(dp0
S'2015'
p1
(dp2
S'11'
p3
(dp4
S'FGLng'
p5
S'43'
p6
sS'WK'
p7
S'11'
p8
sS'Ret'
p9
S'--'
p10
sS'FGAtt'
p11
S'1'
p12
sS'Opp'
p13
S'@ATL'
p14
sS'G'
p15
g12
sS'FGM'
p16
g12
sS'TB'
p17
S'--'
p18
sS'GS'
p19
S'0'
p20
sS'XPM'
p21
S'3'
p22
sS'KOAvg'
p23
S'--'
p24
sS'KO'
p25
S'--'
p26
sS'RetAvg'
p27
S'--'
p28
sS'Game Date'
p29
S'11/22'
p30
sS'XPPct'
p31
S'100.0'
p32
sS'Player'
p33
S'Adam Vinatieri'
p34
sS'Result'
p35
S'W24-21'
p36
sS'Year'
p37
S'2015'
p38
sS'XPBlk'
p39
g20
sS'FGPct'
p40
S'100.0'
p41
sS'XPAtt'
p42
g22
sS'FGBlk'
p43
g20
ssS'10'
p44
(dp45
g5
S''
p46
sg7
S'10'
p47
sg9
g46
sg11
g46
sg13
g46
sg15
g46
sg16
g46
sg17
g46
sg19
g46
sg21
g46
sg23
g46
sg25
g46
sg27
g46
sg29
S'Bye'
p48
sg31
g46
sg33
S'Adam Vinatieri'
p49
sg35
g46
sg37
S'2015'
p50
sg39
g46
sg40
g46
sg42
g46
sg43
g46
ssS'13'
p51
(dp52
g5
S'35'
p53
sg7
S'13'
p54
sg9
S'--'
p55
sg11
g12
sg13
S'@PIT'
p56
sg15
g12
sg16
g12
sg17
S'--'
p57
sg19
g20
sg21
g12
sg23
S'--'
p58
sg25
S'--'
p59
sg27
S'--'
p60
sg29
S'12/06'
p61
sg31
S'100.0'
p62
sg33
S'Adam Vinatieri'
p63
sg35
S'L10-45'
p64
sg37
S'2015'
p65
sg39
g20
sg40
S'100.0'
p66
sg42
g12
sg43
g20
ssS'12'
p67
(dp68
g5
S'49'
p69
sg7
S'12'
p70
sg9
S'--'
p71
sg11
S'4'
p72
sg13
S'TB'
p73
sg15
g12
sg16
g72
sg17
S'--'
p74
sg19
g20
sg21
g12
sg23
S'--'
p75
sg25
S'--'
p76
sg27
S'--'
p77
sg29
S'11/29'
p78
sg31
S'50.0'
p79
sg33
S'Adam Vinatieri'
p80
sg35
S'W25-12'
p81
sg37
S'2015'
p82
sg39
g20
sg40
S'100.0'
p83
sg42
S'2'
p84
sg43
g20
ssS'15'
p85
(dp86
g5
S'29'
p87
sg7
S'15'
p88
sg9
S'--'
p89
sg11
g12
sg13
S'HOU'
p90
sg15
g12
sg16
g12
sg17
S'--'
p91
sg19
g20
sg21
g12
sg23
S'--'
p92
sg25
S'--'
p93
sg27
S'--'
p94
sg29
S'12/20'
p95
sg31
S'100.0'
p96
sg33
S'Adam Vinatieri'
p97
sg35
S'L10-16'
p98
sg37
S'2015'
p99
sg39
g20
sg40
S'100.0'
p100
sg42
g12
sg43
g20
ssS'14'
p101
(dp102
g5
S'32'
p103
sg7
S'14'
p104
sg9
S'--'
p105
sg11
g22
sg13
S'@JAC'
p106
sg15
g12
sg16
g22
sg17
S'--'
p107
sg19
g20
sg21
g12
sg23
S'--'
p108
sg25
S'--'
p109
sg27
S'--'
p110
sg29
S'12/13'
p111
sg31
S'100.0'
p112
sg33
S'Adam Vinatieri'
p113
sg35
S'L16-51'
p114
sg37
S'2015'
p115
sg39
g20
sg40
S'100.0'
p116
sg42
g12
sg43
g20
ssS'17'
p117
(dp118
g5
S'52'
p119
sg7
S'17'
p120
sg9
S'--'
p121
sg11
g22
sg13
S'TEN'
p122
sg15
g12
sg16
g22
sg17
S'--'
p123
sg19
g20
sg21
g22
sg23
S'--'
p124
sg25
S'--'
p125
sg27
S'--'
p126
sg29
S'01/03'
p127
sg31
S'100.0'
p128
sg33
S'Adam Vinatieri'
p129
sg35
S'W30-24'
p130
sg37
S'2015'
p131
sg39
g20
sg40
S'100.0'
p132
sg42
g22
sg43
g20
ssS'16'
p133
(dp134
g5
S'38'
p135
sg7
S'16'
p136
sg9
S'--'
p137
sg11
g12
sg13
S'@MIA'
p138
sg15
g12
sg16
g12
sg17
S'--'
p139
sg19
g20
sg21
g12
sg23
S'--'
p140
sg25
S'--'
p141
sg27
S'--'
p142
sg29
S'12/27'
p143
sg31
S'50.0'
p144
sg33
S'Adam Vinatieri'
p145
sg35
S'W18-12'
p146
sg37
S'2015'
p147
sg39
g20
sg40
S'100.0'
p148
sg42
g84
sg43
g20
ssg12
(dp149
g5
g20
sg7
g12
sg9
S'--'
p150
sg11
g12
sg13
S'@BUF'
p151
sg15
g12
sg16
g20
sg17
S'--'
p152
sg19
g20
sg21
g20
sg23
S'--'
p153
sg25
S'--'
p154
sg27
S'--'
p155
sg29
S'09/13'
p156
sg31
S'--'
p157
sg33
S'Adam Vinatieri'
p158
sg35
S'L14-27'
p159
sg37
S'2015'
p160
sg39
g20
sg40
S'0.0'
p161
sg42
g20
sg43
g20
ssg22
(dp162
g5
g20
sg7
g22
sg9
S'--'
p163
sg11
g20
sg13
S'@TEN'
p164
sg15
g12
sg16
g20
sg17
S'--'
p165
sg19
g20
sg21
S'5'
p166
sg23
S'--'
p167
sg25
S'--'
p168
sg27
S'--'
p169
sg29
S'09/27'
p170
sg31
S'100.0'
p171
sg33
S'Adam Vinatieri'
p172
sg35
S'W35-33'
p173
sg37
S'2015'
p174
sg39
g20
sg40
S'--'
p175
sg42
g166
sg43
g20
ssg84
(dp176
g5
g20
sg7
g84
sg9
S'--'
p177
sg11
g12
sg13
S'NYJ'
p178
sg15
g12
sg16
g20
sg17
S'--'
p179
sg19
g20
sg21
g12
sg23
S'--'
p180
sg25
S'--'
p181
sg27
S'--'
p182
sg29
S'09/21'
p183
sg31
S'100.0'
p184
sg33
S'Adam Vinatieri'
p185
sg35
S'L7-20'
p186
sg37
S'2015'
p187
sg39
g20
sg40
S'0.0'
p188
sg42
g12
sg43
g20
ssg166
(dp189
g5
S'48'
p190
sg7
g166
sg9
S'--'
p191
sg11
g84
sg13
S'@HOU'
p192
sg15
g12
sg16
g84
sg17
S'--'
p193
sg19
g20
sg21
g22
sg23
S'--'
p194
sg25
S'--'
p195
sg27
S'--'
p196
sg29
S'10/08'
p197
sg31
S'100.0'
p198
sg33
S'Adam Vinatieri'
p199
sg35
S'W27-20'
p200
sg37
S'2015'
p201
sg39
g20
sg40
S'100.0'
p202
sg42
g22
sg43
g20
ssg72
(dp203
g5
S'54'
p204
sg7
g72
sg9
S'--'
p205
sg11
g22
sg13
S'JAC'
p206
sg15
g12
sg16
g22
sg17
S'--'
p207
sg19
g20
sg21
g12
sg23
S'--'
p208
sg25
S'--'
p209
sg27
S'--'
p210
sg29
S'10/04'
p211
sg31
S'100.0'
p212
sg33
S'Adam Vinatieri'
p213
sg35
S'W16-13'
p214
sg37
S'2015'
p215
sg39
g20
sg40
S'100.0'
p216
sg42
g12
sg43
g20
ssS'7'
p217
(dp218
g5
g20
sg7
g217
sg9
S'--'
p219
sg11
g20
sg13
S'NO'
p220
sg15
g12
sg16
g20
sg17
S'--'
p221
sg19
g20
sg21
g22
sg23
S'--'
p222
sg25
S'--'
p223
sg27
S'--'
p224
sg29
S'10/25'
p225
sg31
S'100.0'
p226
sg33
S'Adam Vinatieri'
p227
sg35
S'L21-27'
p228
sg37
S'2015'
p229
sg39
g20
sg40
S'--'
p230
sg42
g22
sg43
g20
ssS'6'
p231
(dp232
g5
g20
sg7
g231
sg9
S'--'
p233
sg11
g20
sg13
S'NE'
p234
sg15
g12
sg16
g20
sg17
S'--'
p235
sg19
g20
sg21
g22
sg23
S'--'
p236
sg25
S'--'
p237
sg27
S'--'
p238
sg29
S'10/18'
p239
sg31
S'75.0'
p240
sg33
S'Adam Vinatieri'
p241
sg35
S'L27-34'
p242
sg37
S'2015'
p243
sg39
g12
sg40
S'--'
p244
sg42
g72
sg43
g20
ssS'9'
p245
(dp246
g5
S'55'
p247
sg7
g245
sg9
S'--'
p248
sg11
g84
sg13
S'DEN'
p249
sg15
g12
sg16
g84
sg17
S'--'
p250
sg19
g20
sg21
g22
sg23
S'--'
p251
sg25
S'--'
p252
sg27
S'--'
p253
sg29
S'11/08'
p254
sg31
S'100.0'
p255
sg33
S'Adam Vinatieri'
p256
sg35
S'W27-24'
p257
sg37
S'2015'
p258
sg39
g20
sg40
S'100.0'
p259
sg42
g22
sg43
g20
ssS'8'
p260
(dp261
g5
S'50'
p262
sg7
g260
sg9
S'--'
p263
sg11
g72
sg13
S'@CAR'
p264
sg15
g12
sg16
g72
sg17
S'--'
p265
sg19
g20
sg21
g84
sg23
S'--'
p266
sg25
S'--'
p267
sg27
S'--'
p268
sg29
S'11/02'
p269
sg31
S'100.0'
p270
sg33
S'Adam Vinatieri'
p271
sg35
S'L26-29'
p272
sg37
S'2015'
p273
sg39
g20
sg40
S'100.0'
p274
sg42
g84
sg43
g20
sssS'2014'
p275
(dp276
g3
(dp277
g5
S'53'
p278
sg7
S'11'
p279
sg9
S'--'
p280
sg11
g84
sg13
S'NE'
p281
sg15
g12
sg16
g84
sg17
S'--'
p282
sg19
g20
sg21
g84
sg23
S'--'
p283
sg25
S'--'
p284
sg27
S'--'
p285
sg29
S'11/16'
p286
sg31
S'100.0'
p287
sg33
S'Adam Vinatieri'
p288
sg35
S'L20-42'
p289
sg37
S'2014'
p290
sg39
g20
sg40
S'100.0'
p291
sg42
g84
sg43
g20
ssg44
(dp292
g5
g46
sg7
S'10'
p293
sg9
g46
sg11
g46
sg13
g46
sg15
g46
sg16
g46
sg17
g46
sg19
g46
sg21
g46
sg23
g46
sg25
g46
sg27
g46
sg29
S'Bye'
p294
sg31
g46
sg33
S'Adam Vinatieri'
p295
sg35
g46
sg37
S'2014'
p296
sg39
g46
sg40
g46
sg42
g46
sg43
g46
ssg51
(dp297
g5
g20
sg7
S'13'
p298
sg9
S'--'
p299
sg11
g20
sg13
S'WAS'
p300
sg15
g12
sg16
g20
sg17
S'--'
p301
sg19
g20
sg21
g217
sg23
S'--'
p302
sg25
S'--'
p303
sg27
S'--'
p304
sg29
S'11/30'
p305
sg31
S'100.0'
p306
sg33
S'Adam Vinatieri'
p307
sg35
S'W49-27'
p308
sg37
S'2014'
p309
sg39
g20
sg40
S'--'
p310
sg42
g217
sg43
g20
ssg67
(dp311
g5
S'46'
p312
sg7
S'12'
p313
sg9
S'--'
p314
sg11
g22
sg13
S'JAC'
p315
sg15
g12
sg16
g22
sg17
S'--'
p316
sg19
g20
sg21
g84
sg23
S'--'
p317
sg25
S'--'
p318
sg27
S'--'
p319
sg29
S'11/23'
p320
sg31
S'100.0'
p321
sg33
S'Adam Vinatieri'
p322
sg35
S'W23-3'
p323
sg37
S'2014'
p324
sg39
g20
sg40
S'100.0'
p325
sg42
g84
sg43
g20
ssg85
(dp326
g5
S'29'
p327
sg7
S'15'
p328
sg9
S'--'
p329
sg11
g12
sg13
S'HOU'
p330
sg15
g12
sg16
g12
sg17
S'--'
p331
sg19
g20
sg21
g84
sg23
S'--'
p332
sg25
S'--'
p333
sg27
S'--'
p334
sg29
S'12/14'
p335
sg31
S'100.0'
p336
sg33
S'Adam Vinatieri'
p337
sg35
S'W17-10'
p338
sg37
S'2014'
p339
sg39
g20
sg40
S'100.0'
p340
sg42
g84
sg43
g20
ssg101
(dp341
g5
S'51'
p342
sg7
S'14'
p343
sg9
S'--'
p344
sg11
g84
sg13
S'@CLE'
p345
sg15
g12
sg16
g84
sg17
S'--'
p346
sg19
g20
sg21
g12
sg23
S'--'
p347
sg25
S'--'
p348
sg27
S'--'
p349
sg29
S'12/07'
p350
sg31
S'100.0'
p351
sg33
S'Adam Vinatieri'
p352
sg35
S'W25-24'
p353
sg37
S'2014'
p354
sg39
g20
sg40
S'100.0'
p355
sg42
g12
sg43
g20
ssg117
(dp356
g5
S'26'
p357
sg7
S'17'
p358
sg9
S'--'
p359
sg11
g22
sg13
S'@TEN'
p360
sg15
g12
sg16
g84
sg17
S'--'
p361
sg19
g20
sg21
g22
sg23
S'--'
p362
sg25
S'--'
p363
sg27
S'--'
p364
sg29
S'12/28'
p365
sg31
S'100.0'
p366
sg33
S'Adam Vinatieri'
p367
sg35
S'W27-10'
p368
sg37
S'2014'
p369
sg39
g20
sg40
S'66.7'
p370
sg42
g22
sg43
g20
ssg133
(dp371
g5
g20
sg7
S'16'
p372
sg9
S'--'
p373
sg11
g20
sg13
S'@DAL'
p374
sg15
g12
sg16
g20
sg17
S'--'
p375
sg19
g20
sg21
g12
sg23
S'--'
p376
sg25
S'--'
p377
sg27
S'--'
p378
sg29
S'12/21'
p379
sg31
S'100.0'
p380
sg33
S'Adam Vinatieri'
p381
sg35
S'L7-42'
p382
sg37
S'2014'
p383
sg39
g20
sg40
S'--'
p384
sg42
g12
sg43
g20
ssg12
(dp385
g5
S'25'
p386
sg7
g12
sg9
S'--'
p387
sg11
g12
sg13
S'@DEN'
p388
sg15
g12
sg16
g12
sg17
S'--'
p389
sg19
g20
sg21
g22
sg23
S'--'
p390
sg25
S'--'
p391
sg27
S'--'
p392
sg29
S'09/07'
p393
sg31
S'100.0'
p394
sg33
S'Adam Vinatieri'
p395
sg35
S'L24-31'
p396
sg37
S'2014'
p397
sg39
g20
sg40
S'100.0'
p398
sg42
g22
sg43
g20
ssg22
(dp399
g5
S'48'
p400
sg7
g22
sg9
S'--'
p401
sg11
g22
sg13
S'@JAC'
p402
sg15
g12
sg16
g22
sg17
S'--'
p403
sg19
g20
sg21
g166
sg23
S'--'
p404
sg25
S'--'
p405
sg27
S'--'
p406
sg29
S'09/21'
p407
sg31
S'100.0'
p408
sg33
S'Adam Vinatieri'
p409
sg35
S'W44-17'
p410
sg37
S'2014'
p411
sg39
g20
sg40
S'100.0'
p412
sg42
g166
sg43
g20
ssg84
(dp413
g5
S'46'
p414
sg7
g84
sg9
S'--'
p415
sg11
g84
sg13
S'PHI'
p416
sg15
g12
sg16
g84
sg17
S'--'
p417
sg19
g20
sg21
g22
sg23
S'--'
p418
sg25
S'--'
p419
sg27
S'--'
p420
sg29
S'09/15'
p421
sg31
S'100.0'
p422
sg33
S'Adam Vinatieri'
p423
sg35
S'L27-30'
p424
sg37
S'2014'
p425
sg39
g20
sg40
S'100.0'
p426
sg42
g22
sg43
g20
ssg166
(dp427
g5
S'38'
p428
sg7
g166
sg9
S'--'
p429
sg11
g84
sg13
S'BAL'
p430
sg15
g12
sg16
g84
sg17
S'--'
p431
sg19
g20
sg21
g84
sg23
S'--'
p432
sg25
S'--'
p433
sg27
S'--'
p434
sg29
S'10/05'
p435
sg31
S'100.0'
p436
sg33
S'Adam Vinatieri'
p437
sg35
S'W20-13'
p438
sg37
S'2014'
p439
sg39
g20
sg40
S'100.0'
p440
sg42
g84
sg43
g20
ssg72
(dp441
g5
S'31'
p442
sg7
g72
sg9
S'--'
p443
sg11
g84
sg13
S'TEN'
p444
sg15
g12
sg16
g84
sg17
S'--'
p445
sg19
g20
sg21
g166
sg23
S'--'
p446
sg25
S'--'
p447
sg27
S'--'
p448
sg29
S'09/28'
p449
sg31
S'100.0'
p450
sg33
S'Adam Vinatieri'
p451
sg35
S'W41-17'
p452
sg37
S'2014'
p453
sg39
g20
sg40
S'100.0'
p454
sg42
g166
sg43
g20
ssg217
(dp455
g5
S'50'
p456
sg7
g217
sg9
S'--'
p457
sg11
g84
sg13
S'CIN'
p458
sg15
g12
sg16
g84
sg17
S'--'
p459
sg19
g20
sg21
g22
sg23
S'--'
p460
sg25
S'--'
p461
sg27
S'--'
p462
sg29
S'10/19'
p463
sg31
S'100.0'
p464
sg33
S'Adam Vinatieri'
p465
sg35
S'W27-0'
p466
sg37
S'2014'
p467
sg39
g20
sg40
S'100.0'
p468
sg42
g22
sg43
g20
ssg231
(dp469
g5
S'34'
p470
sg7
g231
sg9
S'--'
p471
sg11
g84
sg13
S'@HOU'
p472
sg15
g12
sg16
g84
sg17
S'--'
p473
sg19
g20
sg21
g22
sg23
S'--'
p474
sg25
S'--'
p475
sg27
S'--'
p476
sg29
S'10/09'
p477
sg31
S'100.0'
p478
sg33
S'Adam Vinatieri'
p479
sg35
S'W33-28'
p480
sg37
S'2014'
p481
sg39
g20
sg40
S'100.0'
p482
sg42
g22
sg43
g20
ssg245
(dp483
g5
S'48'
p484
sg7
g245
sg9
S'--'
p485
sg11
g72
sg13
S'@NYG'
p486
sg15
g12
sg16
g72
sg17
S'--'
p487
sg19
g20
sg21
g72
sg23
S'--'
p488
sg25
S'--'
p489
sg27
S'--'
p490
sg29
S'11/03'
p491
sg31
S'100.0'
p492
sg33
S'Adam Vinatieri'
p493
sg35
S'W40-24'
p494
sg37
S'2014'
p495
sg39
g20
sg40
S'100.0'
p496
sg42
g72
sg43
g20
ssg260
(dp497
g5
S'31'
p498
sg7
g260
sg9
S'--'
p499
sg11
g84
sg13
S'@PIT'
p500
sg15
g12
sg16
g84
sg17
S'--'
p501
sg19
g20
sg21
g72
sg23
S'--'
p502
sg25
S'--'
p503
sg27
S'--'
p504
sg29
S'10/26'
p505
sg31
S'100.0'
p506
sg33
S'Adam Vinatieri'
p507
sg35
S'L34-51'
p508
sg37
S'2014'
p509
sg39
g20
sg40
S'100.0'
p510
sg42
g72
sg43
g20
sssS'2011'
p511
(dp512
g3
(dp513
g5
g46
sg7
S'11'
p514
sg9
g46
sg11
g46
sg13
g46
sg15
g46
sg16
g46
sg17
g46
sg19
g46
sg21
g46
sg23
g46
sg25
g46
sg27
g46
sg29
S'Bye'
p515
sg31
g46
sg33
S'Adam Vinatieri'
p516
sg35
g46
sg37
S'2011'
p517
sg39
g46
sg40
g46
sg42
g46
sg43
g46
ssg44
(dp518
g5
S'42'
p519
sg7
S'10'
p520
sg9
S'--'
p521
sg11
g12
sg13
S'JAC'
p522
sg15
g12
sg16
g12
sg17
S'--'
p523
sg19
g20
sg21
g20
sg23
S'--'
p524
sg25
S'--'
p525
sg27
S'--'
p526
sg29
S'11/13'
p527
sg31
S'--'
p528
sg33
S'Adam Vinatieri'
p529
sg35
S'L3-17'
p530
sg37
S'2011'
p531
sg39
g20
sg40
S'100.0'
p532
sg42
g20
sg43
g20
ssg51
(dp533
g5
S'31'
p534
sg7
S'13'
p535
sg9
S'--'
p536
sg11
g12
sg13
S'@NE'
p537
sg15
g12
sg16
g12
sg17
S'--'
p538
sg19
g20
sg21
g22
sg23
S'--'
p539
sg25
S'--'
p540
sg27
S'--'
p541
sg29
S'12/04'
p542
sg31
S'100.0'
p543
sg33
S'Adam Vinatieri'
p544
sg35
S'L24-31'
p545
sg37
S'2011'
p546
sg39
g20
sg40
S'100.0'
p547
sg42
g22
sg43
g20
ssg67
(dp548
g5
S'43'
p549
sg7
S'12'
p550
sg9
S'--'
p551
sg11
g84
sg13
S'CAR'
p552
sg15
g12
sg16
g84
sg17
S'--'
p553
sg19
g20
sg21
g12
sg23
S'--'
p554
sg25
S'--'
p555
sg27
S'--'
p556
sg29
S'11/27'
p557
sg31
S'100.0'
p558
sg33
S'Adam Vinatieri'
p559
sg35
S'L19-27'
p560
sg37
S'2011'
p561
sg39
g20
sg40
S'100.0'
p562
sg42
g12
sg43
g20
ssg85
(dp563
g5
S'47'
p564
sg7
S'15'
p565
sg9
S'--'
p566
sg11
g84
sg13
S'TEN'
p567
sg15
g12
sg16
g84
sg17
S'--'
p568
sg19
g20
sg21
g22
sg23
S'--'
p569
sg25
S'--'
p570
sg27
S'--'
p571
sg29
S'12/18'
p572
sg31
S'100.0'
p573
sg33
S'Adam Vinatieri'
p574
sg35
S'W27-13'
p575
sg37
S'2011'
p576
sg39
g20
sg40
S'100.0'
p577
sg42
g22
sg43
g20
ssg101
(dp578
g5
S'22'
p579
sg7
S'14'
p580
sg9
S'--'
p581
sg11
g12
sg13
S'@BAL'
p582
sg15
g12
sg16
g12
sg17
S'--'
p583
sg19
g20
sg21
g12
sg23
S'--'
p584
sg25
S'--'
p585
sg27
S'--'
p586
sg29
S'12/11'
p587
sg31
S'100.0'
p588
sg33
S'Adam Vinatieri'
p589
sg35
S'L10-24'
p590
sg37
S'2011'
p591
sg39
g20
sg40
S'100.0'
p592
sg42
g12
sg43
g20
ssg117
(dp593
g5
S'48'
p594
sg7
S'17'
p595
sg9
S'--'
p596
sg11
g84
sg13
S'@JAC'
p597
sg15
g12
sg16
g84
sg17
S'--'
p598
sg19
g20
sg21
g12
sg23
S'--'
p599
sg25
S'--'
p600
sg27
S'--'
p601
sg29
S'01/01'
p602
sg31
S'100.0'
p603
sg33
S'Adam Vinatieri'
p604
sg35
S'L13-19'
p605
sg37
S'2011'
p606
sg39
g20
sg40
S'100.0'
p607
sg42
g12
sg43
g20
ssg133
(dp608
g5
S'47'
p609
sg7
S'16'
p610
sg9
S'--'
p611
sg11
g166
sg13
S'HOU'
p612
sg15
g12
sg16
g72
sg17
S'--'
p613
sg19
g20
sg21
g12
sg23
S'--'
p614
sg25
S'--'
p615
sg27
S'--'
p616
sg29
S'12/22'
p617
sg31
S'100.0'
p618
sg33
S'Adam Vinatieri'
p619
sg35
S'W19-16'
p620
sg37
S'2011'
p621
sg39
g20
sg40
S'80.0'
p622
sg42
g12
sg43
g20
ssg12
(dp623
g5
g20
sg7
g12
sg9
S'--'
p624
sg11
g12
sg13
S'@HOU'
p625
sg15
g12
sg16
g20
sg17
S'--'
p626
sg19
g20
sg21
g12
sg23
S'--'
p627
sg25
S'--'
p628
sg27
S'--'
p629
sg29
S'09/11'
p630
sg31
S'100.0'
p631
sg33
S'Adam Vinatieri'
p632
sg35
S'L7-34'
p633
sg37
S'2011'
p634
sg39
g20
sg40
S'0.0'
p635
sg42
g12
sg43
g20
ssg22
(dp636
g5
S'25'
p637
sg7
g22
sg9
S'--'
p638
sg11
g84
sg13
S'PIT'
p639
sg15
g12
sg16
g84
sg17
S'--'
p640
sg19
g20
sg21
g84
sg23
S'--'
p641
sg25
S'--'
p642
sg27
S'--'
p643
sg29
S'09/25'
p644
sg31
S'100.0'
p645
sg33
S'Adam Vinatieri'
p646
sg35
S'L20-23'
p647
sg37
S'2011'
p648
sg39
g20
sg40
S'100.0'
p649
sg42
g84
sg43
g20
ssg84
(dp650
g5
S'52'
p651
sg7
g84
sg9
S'--'
p652
sg11
g72
sg13
S'CLE'
p653
sg15
g12
sg16
g72
sg17
S'--'
p654
sg19
g20
sg21
g12
sg23
S'--'
p655
sg25
S'--'
p656
sg27
S'--'
p657
sg29
S'09/18'
p658
sg31
S'100.0'
p659
sg33
S'Adam Vinatieri'
p660
sg35
S'L19-27'
p661
sg37
S'2011'
p662
sg39
g20
sg40
S'100.0'
p663
sg42
g12
sg43
g20
ssg166
(dp664
g5
S'53'
p665
sg7
g166
sg9
S'--'
p666
sg11
g12
sg13
S'KC'
p667
sg15
g12
sg16
g12
sg17
S'--'
p668
sg19
g20
sg21
g22
sg23
S'--'
p669
sg25
S'--'
p670
sg27
S'--'
p671
sg29
S'10/09'
p672
sg31
S'100.0'
p673
sg33
S'Adam Vinatieri'
p674
sg35
S'L24-28'
p675
sg37
S'2011'
p676
sg39
g20
sg40
S'100.0'
p677
sg42
g22
sg43
g20
ssg72
(dp678
g5
S'45'
p679
sg7
g72
sg9
S'--'
p680
sg11
g84
sg13
S'@TB'
p681
sg15
g12
sg16
g12
sg17
S'--'
p682
sg19
g20
sg21
g84
sg23
S'--'
p683
sg25
S'--'
p684
sg27
S'--'
p685
sg29
S'10/03'
p686
sg31
S'100.0'
p687
sg33
S'Adam Vinatieri'
p688
sg35
S'L17-24'
p689
sg37
S'2011'
p690
sg39
g20
sg40
S'50.0'
p691
sg42
g84
sg43
g20
ssg217
(dp692
g5
g20
sg7
g217
sg9
S'--'
p693
sg11
g20
sg13
S'@NO'
p694
sg15
g12
sg16
g20
sg17
S'--'
p695
sg19
g20
sg21
g12
sg23
S'--'
p696
sg25
S'--'
p697
sg27
S'--'
p698
sg29
S'10/23'
p699
sg31
S'100.0'
p700
sg33
S'Adam Vinatieri'
p701
sg35
S'L7-62'
p702
sg37
S'2011'
p703
sg39
g20
sg40
S'--'
p704
sg42
g12
sg43
g20
ssg231
(dp705
g5
S'46'
p706
sg7
g231
sg9
S'--'
p707
sg11
g84
sg13
S'@CIN'
p708
sg15
g12
sg16
g12
sg17
S'--'
p709
sg19
g20
sg21
g84
sg23
S'--'
p710
sg25
S'--'
p711
sg27
S'--'
p712
sg29
S'10/16'
p713
sg31
S'100.0'
p714
sg33
S'Adam Vinatieri'
p715
sg35
S'L17-27'
p716
sg37
S'2011'
p717
sg39
g20
sg40
S'50.0'
p718
sg42
g84
sg43
g12
ssg245
(dp719
g5
g20
sg7
g245
sg9
S'--'
p720
sg11
g20
sg13
S'ATL'
p721
sg15
g12
sg16
g20
sg17
S'--'
p722
sg19
g20
sg21
g12
sg23
S'--'
p723
sg25
S'--'
p724
sg27
S'--'
p725
sg29
S'11/06'
p726
sg31
S'100.0'
p727
sg33
S'Adam Vinatieri'
p728
sg35
S'L7-31'
p729
sg37
S'2011'
p730
sg39
g20
sg40
S'--'
p731
sg42
g12
sg43
g20
ssg260
(dp732
g5
S'22'
p733
sg7
g260
sg9
S'--'
p734
sg11
g12
sg13
S'@TEN'
p735
sg15
g12
sg16
g12
sg17
S'--'
p736
sg19
g20
sg21
g12
sg23
S'--'
p737
sg25
S'--'
p738
sg27
S'--'
p739
sg29
S'10/30'
p740
sg31
S'100.0'
p741
sg33
S'Adam Vinatieri'
p742
sg35
S'L10-27'
p743
sg37
S'2011'
p744
sg39
g20
sg40
S'100.0'
p745
sg42
g12
sg43
g20
sssS'2010'
p746
(dp747
g3
(dp748
g5
g20
sg7
S'11'
p749
sg9
S'--'
p750
sg11
g20
sg13
S'@NE'
p751
sg15
g12
sg16
g20
sg17
S'--'
p752
sg19
g20
sg21
g72
sg23
S'--'
p753
sg25
S'--'
p754
sg27
S'--'
p755
sg29
S'11/21'
p756
sg31
S'100.0'
p757
sg33
S'Adam Vinatieri'
p758
sg35
S'L28-31'
p759
sg37
S'2010'
p760
sg39
g20
sg40
S'--'
p761
sg42
g72
sg43
g20
ssg44
(dp762
g5
S'47'
p763
sg7
S'10'
p764
sg9
S'--'
p765
sg11
g22
sg13
S'CIN'
p766
sg15
g12
sg16
g22
sg17
S'--'
p767
sg19
g20
sg21
g84
sg23
S'--'
p768
sg25
S'--'
p769
sg27
S'--'
p770
sg29
S'11/14'
p771
sg31
S'100.0'
p772
sg33
S'Adam Vinatieri'
p773
sg35
S'W23-17'
p774
sg37
S'2010'
p775
sg39
g20
sg40
S'100.0'
p776
sg42
g84
sg43
g20
ssg51
(dp777
g5
g20
sg7
S'13'
p778
sg9
S'--'
p779
sg11
g20
sg13
S'DAL'
p780
sg15
g12
sg16
g20
sg17
S'--'
p781
sg19
g20
sg21
g166
sg23
S'--'
p782
sg25
S'--'
p783
sg27
S'--'
p784
sg29
S'12/05'
p785
sg31
S'100.0'
p786
sg33
S'Adam Vinatieri'
p787
sg35
S'L35-38'
p788
sg37
S'2010'
p789
sg39
g20
sg40
S'--'
p790
sg42
g166
sg43
g20
ssg67
(dp791
g5
g20
sg7
S'12'
p792
sg9
S'--'
p793
sg11
g20
sg13
S'SD'
p794
sg15
g12
sg16
g20
sg17
S'--'
p795
sg19
g20
sg21
g84
sg23
S'--'
p796
sg25
S'--'
p797
sg27
S'--'
p798
sg29
S'11/28'
p799
sg31
S'100.0'
p800
sg33
S'Adam Vinatieri'
p801
sg35
S'L14-36'
p802
sg37
S'2010'
p803
sg39
g20
sg40
S'--'
p804
sg42
g84
sg43
g20
ssg85
(dp805
g5
S'37'
p806
sg7
S'15'
p807
sg9
S'--'
p808
sg11
g84
sg13
S'JAC'
p809
sg15
g12
sg16
g84
sg17
S'--'
p810
sg19
g20
sg21
g72
sg23
S'--'
p811
sg25
S'--'
p812
sg27
S'--'
p813
sg29
S'12/19'
p814
sg31
S'100.0'
p815
sg33
S'Adam Vinatieri'
p816
sg35
S'W34-24'
p817
sg37
S'2010'
p818
sg39
g20
sg40
S'100.0'
p819
sg42
g72
sg43
g20
ssg101
(dp820
g5
S'47'
p821
sg7
S'14'
p822
sg9
S'--'
p823
sg11
g22
sg13
S'@TEN'
p824
sg15
g12
sg16
g22
sg17
S'--'
p825
sg19
g20
sg21
g22
sg23
S'--'
p826
sg25
S'--'
p827
sg27
S'--'
p828
sg29
S'12/09'
p829
sg31
S'100.0'
p830
sg33
S'Adam Vinatieri'
p831
sg35
S'W30-28'
p832
sg37
S'2010'
p833
sg39
g20
sg40
S'100.0'
p834
sg42
g22
sg43
g20
ssg117
(dp835
g5
S'48'
p836
sg7
S'17'
p837
sg9
S'--'
p838
sg11
g22
sg13
S'TEN'
p839
sg15
g12
sg16
g22
sg17
S'--'
p840
sg19
g20
sg21
g84
sg23
S'--'
p841
sg25
S'--'
p842
sg27
S'--'
p843
sg29
S'01/02'
p844
sg31
S'100.0'
p845
sg33
S'Adam Vinatieri'
p846
sg35
S'W23-20'
p847
sg37
S'2010'
p848
sg39
g20
sg40
S'100.0'
p849
sg42
g84
sg43
g20
ssg133
(dp850
g5
S'30'
p851
sg7
S'16'
p852
sg9
S'--'
p853
sg11
g12
sg13
S'@OAK'
p854
sg15
g12
sg16
g12
sg17
S'--'
p855
sg19
g20
sg21
g72
sg23
S'--'
p856
sg25
S'--'
p857
sg27
S'--'
p858
sg29
S'12/26'
p859
sg31
S'100.0'
p860
sg33
S'Adam Vinatieri'
p861
sg35
S'W31-26'
p862
sg37
S'2010'
p863
sg39
g20
sg40
S'100.0'
p864
sg42
g72
sg43
g20
ssg12
(dp865
g5
S'20'
p866
sg7
g12
sg9
S'--'
p867
sg11
g12
sg13
S'@HOU'
p868
sg15
g12
sg16
g12
sg17
S'--'
p869
sg19
g20
sg21
g22
sg23
S'--'
p870
sg25
S'--'
p871
sg27
S'--'
p872
sg29
S'09/12'
p873
sg31
S'100.0'
p874
sg33
S'Adam Vinatieri'
p875
sg35
S'L24-34'
p876
sg37
S'2010'
p877
sg39
g20
sg40
S'100.0'
p878
sg42
g22
sg43
g20
ssg22
(dp879
g5
S'38'
p880
sg7
g22
sg9
S'--'
p881
sg11
g84
sg13
S'@DEN'
p882
sg15
g12
sg16
g84
sg17
S'--'
p883
sg19
g20
sg21
g22
sg23
S'--'
p884
sg25
S'--'
p885
sg27
S'--'
p886
sg29
S'09/26'
p887
sg31
S'100.0'
p888
sg33
S'Adam Vinatieri'
p889
sg35
S'W27-13'
p890
sg37
S'2010'
p891
sg39
g20
sg40
S'100.0'
p892
sg42
g22
sg43
g20
ssg84
(dp893
g5
S'38'
p894
sg7
g84
sg9
S'--'
p895
sg11
g12
sg13
S'NYG'
p896
sg15
g12
sg16
g12
sg17
S'--'
p897
sg19
g20
sg21
g166
sg23
S'--'
p898
sg25
S'--'
p899
sg27
S'--'
p900
sg29
S'09/19'
p901
sg31
S'100.0'
p902
sg33
S'Adam Vinatieri'
p903
sg35
S'W38-14'
p904
sg37
S'2010'
p905
sg39
g20
sg40
S'100.0'
p906
sg42
g166
sg43
g20
ssg166
(dp907
g5
S'47'
p908
sg7
g166
sg9
S'--'
p909
sg11
g72
sg13
S'KC'
p910
sg15
g12
sg16
g72
sg17
S'--'
p911
sg19
g20
sg21
g12
sg23
S'--'
p912
sg25
S'--'
p913
sg27
S'--'
p914
sg29
S'10/10'
p915
sg31
S'100.0'
p916
sg33
S'Adam Vinatieri'
p917
sg35
S'W19-9'
p918
sg37
S'2010'
p919
sg39
g20
sg40
S'100.0'
p920
sg42
g12
sg43
g20
ssg72
(dp921
g5
g20
sg7
g72
sg9
S'--'
p922
sg11
g20
sg13
S'@JAC'
p923
sg15
g12
sg16
g20
sg17
S'--'
p924
sg19
g20
sg21
g72
sg23
S'--'
p925
sg25
S'--'
p926
sg27
S'--'
p927
sg29
S'10/03'
p928
sg31
S'100.0'
p929
sg33
S'Adam Vinatieri'
p930
sg35
S'L28-31'
p931
sg37
S'2010'
p932
sg39
g20
sg40
S'--'
p933
sg42
g72
sg43
g20
ssg217
(dp934
g5
g46
sg7
g217
sg9
g46
sg11
g46
sg13
g46
sg15
g46
sg16
g46
sg17
g46
sg19
g46
sg21
g46
sg23
g46
sg25
g46
sg27
g46
sg29
S'Bye'
p935
sg31
g46
sg33
S'Adam Vinatieri'
p936
sg35
g46
sg37
S'2010'
p937
sg39
g46
sg40
g46
sg42
g46
sg43
g46
ssg231
(dp938
g5
S'43'
p939
sg7
g231
sg9
S'--'
p940
sg11
g72
sg13
S'@WAS'
p941
sg15
g12
sg16
g84
sg17
S'--'
p942
sg19
g20
sg21
g22
sg23
S'--'
p943
sg25
S'--'
p944
sg27
S'--'
p945
sg29
S'10/17'
p946
sg31
S'100.0'
p947
sg33
S'Adam Vinatieri'
p948
sg35
S'W27-24'
p949
sg37
S'2010'
p950
sg39
g20
sg40
S'50.0'
p951
sg42
g22
sg43
g12
ssg245
(dp952
g5
S'37'
p953
sg7
g245
sg9
S'--'
p954
sg11
g12
sg13
S'@PHI'
p955
sg15
g12
sg16
g12
sg17
S'--'
p956
sg19
g20
sg21
g22
sg23
S'--'
p957
sg25
S'--'
p958
sg27
S'--'
p959
sg29
S'11/07'
p960
sg31
S'100.0'
p961
sg33
S'Adam Vinatieri'
p962
sg35
S'L24-26'
p963
sg37
S'2010'
p964
sg39
g20
sg40
S'100.0'
p965
sg42
g22
sg43
g20
ssg260
(dp966
g5
S'48'
p967
sg7
g260
sg9
S'--'
p968
sg11
g22
sg13
S'HOU'
p969
sg15
g12
sg16
g22
sg17
S'--'
p970
sg19
g20
sg21
g22
sg23
S'--'
p971
sg25
S'--'
p972
sg27
S'--'
p973
sg29
S'11/01'
p974
sg31
S'100.0'
p975
sg33
S'Adam Vinatieri'
p976
sg35
S'W30-17'
p977
sg37
S'2010'
p978
sg39
g20
sg40
S'100.0'
p979
sg42
g22
sg43
g20
sssS'2013'
p980
(dp981
g3
(dp982
g5
S'50'
p983
sg7
S'11'
p984
sg9
S'--'
p985
sg11
g22
sg13
S'@TEN'
p986
sg15
g12
sg16
g22
sg17
S'--'
p987
sg19
g20
sg21
g22
sg23
S'--'
p988
sg25
S'--'
p989
sg27
S'--'
p990
sg29
S'11/14'
p991
sg31
S'100.0'
p992
sg33
S'Adam Vinatieri'
p993
sg35
S'W30-27'
p994
sg37
S'2013'
p995
sg39
g20
sg40
S'100.0'
p996
sg42
g22
sg43
g20
ssg44
(dp997
g5
S'--'
p998
sg7
S'10'
p999
sg9
S'--'
p1000
sg11
S'--'
p1001
sg13
S'STL'
p1002
sg15
g20
sg16
S'--'
p1003
sg17
S'--'
p1004
sg19
g20
sg21
S'--'
p1005
sg23
S'--'
p1006
sg25
S'--'
p1007
sg27
S'--'
p1008
sg29
S'11/10'
p1009
sg31
S'--'
p1010
sg33
S'Adam Vinatieri'
p1011
sg35
S'L8-38'
p1012
sg37
S'2013'
p1013
sg39
S'--'
p1014
sg40
S'--'
p1015
sg42
S'--'
p1016
sg43
S'--'
p1017
ssg51
(dp1018
g5
S'49'
p1019
sg7
S'13'
p1020
sg9
S'--'
p1021
sg11
g166
sg13
S'TEN'
p1022
sg15
g12
sg16
g166
sg17
S'--'
p1023
sg19
g20
sg21
g12
sg23
S'--'
p1024
sg25
S'--'
p1025
sg27
S'--'
p1026
sg29
S'12/01'
p1027
sg31
S'100.0'
p1028
sg33
S'Adam Vinatieri'
p1029
sg35
S'W22-14'
p1030
sg37
S'2013'
p1031
sg39
g20
sg40
S'100.0'
p1032
sg42
g12
sg43
g20
ssg67
(dp1033
g5
S'27'
p1034
sg7
S'12'
p1035
sg9
S'--'
p1036
sg11
g12
sg13
S'@ARI'
p1037
sg15
g12
sg16
g12
sg17
S'--'
p1038
sg19
g20
sg21
g20
sg23
S'--'
p1039
sg25
S'--'
p1040
sg27
S'--'
p1041
sg29
S'11/24'
p1042
sg31
S'--'
p1043
sg33
S'Adam Vinatieri'
p1044
sg35
S'L11-40'
p1045
sg37
S'2013'
p1046
sg39
g20
sg40
S'100.0'
p1047
sg42
g20
sg43
g20
ssg85
(dp1048
g5
S'43'
p1049
sg7
S'15'
p1050
sg9
S'--'
p1051
sg11
g22
sg13
S'HOU'
p1052
sg15
g12
sg16
g22
sg17
S'--'
p1053
sg19
g20
sg21
g84
sg23
S'--'
p1054
sg25
S'--'
p1055
sg27
S'--'
p1056
sg29
S'12/15'
p1057
sg31
S'100.0'
p1058
sg33
S'Adam Vinatieri'
p1059
sg35
S'W25-3'
p1060
sg37
S'2013'
p1061
sg39
g20
sg40
S'100.0'
p1062
sg42
g84
sg43
g20
ssg101
(dp1063
g5
g20
sg7
S'14'
p1064
sg9
S'--'
p1065
sg11
g12
sg13
S'@CIN'
p1066
sg15
g12
sg16
g20
sg17
S'--'
p1067
sg19
g20
sg21
g72
sg23
S'--'
p1068
sg25
S'--'
p1069
sg27
S'--'
p1070
sg29
S'12/08'
p1071
sg31
S'100.0'
p1072
sg33
S'Adam Vinatieri'
p1073
sg35
S'L28-42'
p1074
sg37
S'2013'
p1075
sg39
g20
sg40
S'0.0'
p1076
sg42
g72
sg43
g20
ssg117
(dp1077
g5
S'39'
p1078
sg7
S'17'
p1079
sg9
S'--'
p1080
sg11
g22
sg13
S'JAC'
p1081
sg15
g12
sg16
g22
sg17
S'--'
p1082
sg19
g20
sg21
g22
sg23
S'--'
p1083
sg25
S'--'
p1084
sg27
S'--'
p1085
sg29
S'12/29'
p1086
sg31
S'100.0'
p1087
sg33
S'Adam Vinatieri'
p1088
sg35
S'W30-10'
p1089
sg37
S'2013'
p1090
sg39
g20
sg40
S'100.0'
p1091
sg42
g22
sg43
g20
ssg133
(dp1092
g5
S'46'
p1093
sg7
S'16'
p1094
sg9
S'--'
p1095
sg11
g72
sg13
S'@KC'
p1096
sg15
g12
sg16
g22
sg17
S'--'
p1097
sg19
g20
sg21
g84
sg23
S'--'
p1098
sg25
S'--'
p1099
sg27
S'--'
p1100
sg29
S'12/22'
p1101
sg31
S'100.0'
p1102
sg33
S'Adam Vinatieri'
p1103
sg35
S'W23-7'
p1104
sg37
S'2013'
p1105
sg39
g20
sg40
S'75.0'
p1106
sg42
g84
sg43
g20
ssg12
(dp1107
g5
g20
sg7
g12
sg9
S'--'
p1108
sg11
g20
sg13
S'OAK'
p1109
sg15
g12
sg16
g20
sg17
S'--'
p1110
sg19
g20
sg21
g22
sg23
S'--'
p1111
sg25
S'--'
p1112
sg27
S'--'
p1113
sg29
S'09/08'
p1114
sg31
S'100.0'
p1115
sg33
S'Adam Vinatieri'
p1116
sg35
S'W21-17'
p1117
sg37
S'2013'
p1118
sg39
g20
sg40
S'--'
p1119
sg42
g22
sg43
g20
ssg22
(dp1120
g5
S'43'
p1121
sg7
g22
sg9
S'--'
p1122
sg11
g22
sg13
S'@SF'
p1123
sg15
g12
sg16
g84
sg17
S'--'
p1124
sg19
g20
sg21
g22
sg23
S'--'
p1125
sg25
S'--'
p1126
sg27
S'--'
p1127
sg29
S'09/22'
p1128
sg31
S'100.0'
p1129
sg33
S'Adam Vinatieri'
p1130
sg35
S'W27-7'
p1131
sg37
S'2013'
p1132
sg39
g20
sg40
S'66.7'
p1133
sg42
g22
sg43
g20
ssg84
(dp1134
g5
S'38'
p1135
sg7
g84
sg9
S'--'
p1136
sg11
g22
sg13
S'MIA'
p1137
sg15
g12
sg16
g84
sg17
S'--'
p1138
sg19
g20
sg21
g84
sg23
S'--'
p1139
sg25
S'--'
p1140
sg27
S'--'
p1141
sg29
S'09/15'
p1142
sg31
S'100.0'
p1143
sg33
S'Adam Vinatieri'
p1144
sg35
S'L20-24'
p1145
sg37
S'2013'
p1146
sg39
g20
sg40
S'66.7'
p1147
sg42
g84
sg43
g20
ssg166
(dp1148
g5
S'49'
p1149
sg7
g166
sg9
S'--'
p1150
sg11
g84
sg13
S'SEA'
p1151
sg15
g12
sg16
g84
sg17
S'--'
p1152
sg19
g20
sg21
g84
sg23
S'--'
p1153
sg25
S'--'
p1154
sg27
S'--'
p1155
sg29
S'10/06'
p1156
sg31
S'100.0'
p1157
sg33
S'Adam Vinatieri'
p1158
sg35
S'W34-28'
p1159
sg37
S'2013'
p1160
sg39
g20
sg40
S'100.0'
p1161
sg42
g84
sg43
g20
ssg72
(dp1162
g5
S'46'
p1163
sg7
g72
sg9
S'--'
p1164
sg11
g22
sg13
S'@JAC'
p1165
sg15
g12
sg16
g22
sg17
S'--'
p1166
sg19
g20
sg21
g72
sg23
S'--'
p1167
sg25
S'--'
p1168
sg27
S'--'
p1169
sg29
S'09/29'
p1170
sg31
S'100.0'
p1171
sg33
S'Adam Vinatieri'
p1172
sg35
S'W37-3'
p1173
sg37
S'2013'
p1174
sg39
g20
sg40
S'100.0'
p1175
sg42
g72
sg43
g20
ssg217
(dp1176
g5
S'52'
p1177
sg7
g217
sg9
S'--'
p1178
sg11
g22
sg13
S'DEN'
p1179
sg15
g12
sg16
g22
sg17
S'--'
p1180
sg19
g20
sg21
g72
sg23
S'--'
p1181
sg25
S'--'
p1182
sg27
S'--'
p1183
sg29
S'10/20'
p1184
sg31
S'100.0'
p1185
sg33
S'Adam Vinatieri'
p1186
sg35
S'W39-33'
p1187
sg37
S'2013'
p1188
sg39
g20
sg40
S'100.0'
p1189
sg42
g72
sg43
g20
ssg231
(dp1190
g5
S'51'
p1191
sg7
g231
sg9
S'--'
p1192
sg11
g22
sg13
S'@SD'
p1193
sg15
g12
sg16
g22
sg17
S'--'
p1194
sg19
g20
sg21
g20
sg23
S'--'
p1195
sg25
S'--'
p1196
sg27
S'--'
p1197
sg29
S'10/14'
p1198
sg31
S'--'
p1199
sg33
S'Adam Vinatieri'
p1200
sg35
S'L9-19'
p1201
sg37
S'2013'
p1202
sg39
g20
sg40
S'100.0'
p1203
sg42
g20
sg43
g20
ssg245
(dp1204
g5
S'35'
p1205
sg7
g245
sg9
S'--'
p1206
sg11
g22
sg13
S'@HOU'
p1207
sg15
g12
sg16
g84
sg17
S'--'
p1208
sg19
g20
sg21
g12
sg23
S'--'
p1209
sg25
S'--'
p1210
sg27
S'--'
p1211
sg29
S'11/03'
p1212
sg31
S'100.0'
p1213
sg33
S'Adam Vinatieri'
p1214
sg35
S'W27-24'
p1215
sg37
S'2013'
p1216
sg39
g20
sg40
S'66.7'
p1217
sg42
g12
sg43
g12
ssg260
(dp1218
g5
g46
sg7
g260
sg9
g46
sg11
g46
sg13
g46
sg15
g46
sg16
g46
sg17
g46
sg19
g46
sg21
g46
sg23
g46
sg25
g46
sg27
g46
sg29
S'Bye'
p1219
sg31
g46
sg33
S'Adam Vinatieri'
p1220
sg35
g46
sg37
S'2013'
p1221
sg39
g46
sg40
g46
sg42
g46
sg43
g46
sssS'2012'
p1222
(dp1223
g3
(dp1224
g5
S'47'
p1225
sg7
S'11'
p1226
sg9
S'--'
p1227
sg11
g84
sg13
S'@NE'
p1228
sg15
g12
sg16
g12
sg17
S'--'
p1229
sg19
g20
sg21
g22
sg23
S'--'
p1230
sg25
S'--'
p1231
sg27
S'--'
p1232
sg29
S'11/18'
p1233
sg31
S'100.0'
p1234
sg33
S'Adam Vinatieri'
p1235
sg35
S'L24-59'
p1236
sg37
S'2012'
p1237
sg39
g20
sg40
S'50.0'
p1238
sg42
g22
sg43
g20
ssg44
(dp1239
g5
S'41'
p1240
sg7
S'10'
p1241
sg9
S'--'
p1242
sg11
g84
sg13
S'@JAC'
p1243
sg15
g12
sg16
g84
sg17
S'--'
p1244
sg19
g20
sg21
g22
sg23
S'--'
p1245
sg25
S'--'
p1246
sg27
S'--'
p1247
sg29
S'11/08'
p1248
sg31
S'100.0'
p1249
sg33
S'Adam Vinatieri'
p1250
sg35
S'W27-10'
p1251
sg37
S'2012'
p1252
sg39
g20
sg40
S'100.0'
p1253
sg42
g22
sg43
g20
ssg51
(dp1254
g5
g20
sg7
S'13'
p1255
sg9
S'--'
p1256
sg11
g20
sg13
S'@DET'
p1257
sg15
g12
sg16
g20
sg17
S'--'
p1258
sg19
g20
sg21
g166
sg23
S'--'
p1259
sg25
S'--'
p1260
sg27
S'--'
p1261
sg29
S'12/02'
p1262
sg31
S'100.0'
p1263
sg33
S'Adam Vinatieri'
p1264
sg35
S'W35-33'
p1265
sg37
S'2012'
p1266
sg39
g20
sg40
S'--'
p1267
sg42
g166
sg43
g20
ssg67
(dp1268
g5
S'25'
p1269
sg7
S'12'
p1270
sg9
S'--'
p1271
sg11
g84
sg13
S'BUF'
p1272
sg15
g12
sg16
g84
sg17
S'--'
p1273
sg19
g20
sg21
g84
sg23
S'--'
p1274
sg25
S'--'
p1275
sg27
S'--'
p1276
sg29
S'11/25'
p1277
sg31
S'100.0'
p1278
sg33
S'Adam Vinatieri'
p1279
sg35
S'W20-13'
p1280
sg37
S'2012'
p1281
sg39
g20
sg40
S'100.0'
p1282
sg42
g84
sg43
g20
ssg85
(dp1283
g5
S'26'
p1284
sg7
S'15'
p1285
sg9
S'--'
p1286
sg11
g12
sg13
S'@HOU'
p1287
sg15
g12
sg16
g12
sg17
S'--'
p1288
sg19
g20
sg21
g84
sg23
S'--'
p1289
sg25
S'--'
p1290
sg27
S'--'
p1291
sg29
S'12/16'
p1292
sg31
S'100.0'
p1293
sg33
S'Adam Vinatieri'
p1294
sg35
S'L17-29'
p1295
sg37
S'2012'
p1296
sg39
g20
sg40
S'100.0'
p1297
sg42
g84
sg43
g20
ssg101
(dp1298
g5
S'53'
p1299
sg7
S'14'
p1300
sg9
S'--'
p1301
sg11
g84
sg13
S'TEN'
p1302
sg15
g12
sg16
g84
sg17
S'--'
p1303
sg19
g20
sg21
g22
sg23
S'--'
p1304
sg25
S'--'
p1305
sg27
S'--'
p1306
sg29
S'12/09'
p1307
sg31
S'100.0'
p1308
sg33
S'Adam Vinatieri'
p1309
sg35
S'W27-23'
p1310
sg37
S'2012'
p1311
sg39
g20
sg40
S'100.0'
p1312
sg42
g22
sg43
g20
ssg117
(dp1313
g5
g20
sg7
S'17'
p1314
sg9
S'--'
p1315
sg11
g20
sg13
S'HOU'
p1316
sg15
g12
sg16
g20
sg17
S'--'
p1317
sg19
g20
sg21
g72
sg23
S'--'
p1318
sg25
S'--'
p1319
sg27
S'--'
p1320
sg29
S'12/30'
p1321
sg31
S'100.0'
p1322
sg33
S'Adam Vinatieri'
p1323
sg35
S'W28-16'
p1324
sg37
S'2012'
p1325
sg39
g20
sg40
S'--'
p1326
sg42
g72
sg43
g20
ssg133
(dp1327
g5
S'48'
p1328
sg7
S'16'
p1329
sg9
S'--'
p1330
sg11
g84
sg13
S'@KC'
p1331
sg15
g12
sg16
g84
sg17
S'--'
p1332
sg19
g20
sg21
g84
sg23
S'--'
p1333
sg25
S'--'
p1334
sg27
S'--'
p1335
sg29
S'12/23'
p1336
sg31
S'100.0'
p1337
sg33
S'Adam Vinatieri'
p1338
sg35
S'W20-13'
p1339
sg37
S'2012'
p1340
sg39
g20
sg40
S'100.0'
p1341
sg42
g84
sg43
g20
ssg12
(dp1342
g5
g20
sg7
g12
sg9
S'--'
p1343
sg11
g12
sg13
S'@CHI'
p1344
sg15
g12
sg16
g20
sg17
S'--'
p1345
sg19
g20
sg21
g22
sg23
S'--'
p1346
sg25
S'--'
p1347
sg27
S'--'
p1348
sg29
S'09/09'
p1349
sg31
S'100.0'
p1350
sg33
S'Adam Vinatieri'
p1351
sg35
S'L21-41'
p1352
sg37
S'2012'
p1353
sg39
g20
sg40
S'0.0'
p1354
sg42
g22
sg43
g20
ssg22
(dp1355
g5
S'37'
p1356
sg7
g22
sg9
S'--'
p1357
sg11
g84
sg13
S'JAC'
p1358
sg15
g12
sg16
g12
sg17
S'--'
p1359
sg19
g20
sg21
g84
sg23
S'--'
p1360
sg25
S'--'
p1361
sg27
S'--'
p1362
sg29
S'09/23'
p1363
sg31
S'100.0'
p1364
sg33
S'Adam Vinatieri'
p1365
sg35
S'L17-22'
p1366
sg37
S'2012'
p1367
sg39
g20
sg40
S'50.0'
p1368
sg42
g84
sg43
g20
ssg84
(dp1369
g5
S'53'
p1370
sg7
g84
sg9
S'--'
p1371
sg11
g22
sg13
S'MIN'
p1372
sg15
g12
sg16
g22
sg17
S'--'
p1373
sg19
g20
sg21
g84
sg23
S'--'
p1374
sg25
S'--'
p1375
sg27
S'--'
p1376
sg29
S'09/16'
p1377
sg31
S'100.0'
p1378
sg33
S'Adam Vinatieri'
p1379
sg35
S'W23-20'
p1380
sg37
S'2012'
p1381
sg39
g20
sg40
S'100.0'
p1382
sg42
g84
sg43
g20
ssg166
(dp1383
g5
S'50'
p1384
sg7
g166
sg9
S'--'
p1385
sg11
g72
sg13
S'GB'
p1386
sg15
g12
sg16
g22
sg17
S'--'
p1387
sg19
g20
sg21
g12
sg23
S'--'
p1388
sg25
S'--'
p1389
sg27
S'--'
p1390
sg29
S'10/07'
p1391
sg31
S'100.0'
p1392
sg33
S'Adam Vinatieri'
p1393
sg35
S'W30-27'
p1394
sg37
S'2012'
p1395
sg39
g20
sg40
S'75.0'
p1396
sg42
g12
sg43
g20
ssg72
(dp1397
g5
g46
sg7
g72
sg9
g46
sg11
g46
sg13
g46
sg15
g46
sg16
g46
sg17
g46
sg19
g46
sg21
g46
sg23
g46
sg25
g46
sg27
g46
sg29
S'Bye'
p1398
sg31
g46
sg33
S'Adam Vinatieri'
p1399
sg35
g46
sg37
S'2012'
p1400
sg39
g46
sg40
g46
sg42
g46
sg43
g46
ssg217
(dp1401
g5
S'38'
p1402
sg7
g217
sg9
S'--'
p1403
sg11
g12
sg13
S'CLE'
p1404
sg15
g12
sg16
g12
sg17
S'--'
p1405
sg19
g20
sg21
g84
sg23
S'--'
p1406
sg25
S'--'
p1407
sg27
S'--'
p1408
sg29
S'10/21'
p1409
sg31
S'100.0'
p1410
sg33
S'Adam Vinatieri'
p1411
sg35
S'W17-13'
p1412
sg37
S'2012'
p1413
sg39
g20
sg40
S'100.0'
p1414
sg42
g84
sg43
g20
ssg231
(dp1415
g5
S'50'
p1416
sg7
g231
sg9
S'--'
p1417
sg11
g22
sg13
S'@NYJ'
p1418
sg15
g12
sg16
g22
sg17
S'--'
p1419
sg19
g20
sg21
g20
sg23
S'--'
p1420
sg25
S'--'
p1421
sg27
S'--'
p1422
sg29
S'10/14'
p1423
sg31
S'--'
p1424
sg33
S'Adam Vinatieri'
p1425
sg35
S'L9-35'
p1426
sg37
S'2012'
p1427
sg39
g20
sg40
S'100.0'
p1428
sg42
g20
sg43
g20
ssg245
(dp1429
g5
S'47'
p1430
sg7
g245
sg9
S'--'
p1431
sg11
g166
sg13
S'MIA'
p1432
sg15
g12
sg16
g22
sg17
S'--'
p1433
sg19
g20
sg21
g84
sg23
S'--'
p1434
sg25
S'--'
p1435
sg27
S'--'
p1436
sg29
S'11/04'
p1437
sg31
S'100.0'
p1438
sg33
S'Adam Vinatieri'
p1439
sg35
S'W23-20'
p1440
sg37
S'2012'
p1441
sg39
g20
sg40
S'60.0'
p1442
sg42
g84
sg43
g12
ssg260
(dp1443
g5
S'44'
p1444
sg7
g260
sg9
S'--'
p1445
sg11
g22
sg13
S'@TEN'
p1446
sg15
g12
sg16
g84
sg17
S'--'
p1447
sg19
g20
sg21
g12
sg23
S'--'
p1448
sg25
S'--'
p1449
sg27
S'--'
p1450
sg29
S'10/28'
p1451
sg31
S'100.0'
p1452
sg33
S'Adam Vinatieri'
p1453
sg35
S'W19-13'
p1454
sg37
S'2012'
p1455
sg39
g20
sg40
S'66.7'
p1456
sg42
g12
sg43
g12
sss.