(dp0
S'2015'
p1
(dp2
S'11'
p3
(dp4
S'FGLng'
p5
S'0'
p6
sS'WK'
p7
S'11'
p8
sS'Ret'
p9
g6
sS'FGAtt'
p10
g6
sS'Opp'
p11
S'DAL'
p12
sS'G'
p13
S'1'
p14
sS'FGM'
p15
g6
sS'TB'
p16
S'3'
p17
sS'GS'
p18
g6
sS'XPM'
p19
S'2'
p20
sS'KOAvg'
p21
S'65.0'
p22
sS'KO'
p23
g17
sS'RetAvg'
p24
S'--'
p25
sS'Game Date'
p26
S'11/22'
p27
sS'XPPct'
p28
S'100.0'
p29
sS'Player'
p30
S'Andrew Franks'
p31
sS'Result'
p32
S'L14-24'
p33
sS'Year'
p34
S'2015'
p35
sS'XPBlk'
p36
g6
sS'FGPct'
p37
S'--'
p38
sS'XPAtt'
p39
g20
sS'FGBlk'
p40
g6
ssS'10'
p41
(dp42
g5
S'42'
p43
sg7
S'10'
p44
sg9
g14
sg10
g20
sg11
S'@PHI'
p45
sg13
g14
sg15
g20
sg16
S'4'
p46
sg18
g6
sg19
g20
sg21
S'64.0'
p47
sg23
S'5'
p48
sg24
S'31.0'
p49
sg26
S'11/15'
p50
sg28
S'100.0'
p51
sg30
S'Andrew Franks'
p52
sg32
S'W20-19'
p53
sg34
S'2015'
p54
sg36
g6
sg37
S'100.0'
p55
sg39
g20
sg40
g6
ssS'13'
p56
(dp57
g5
g6
sg7
S'13'
p58
sg9
g14
sg10
g6
sg11
S'BAL'
p59
sg13
g14
sg15
g6
sg16
g20
sg18
g6
sg19
g14
sg21
S'65.3'
p60
sg23
g17
sg24
S'23.0'
p61
sg26
S'12/06'
p62
sg28
S'100.0'
p63
sg30
S'Andrew Franks'
p64
sg32
S'W15-13'
p65
sg34
S'2015'
p66
sg36
g6
sg37
S'--'
p67
sg39
g14
sg40
g6
ssS'12'
p68
(dp69
g5
g6
sg7
S'12'
p70
sg9
g14
sg10
g6
sg11
S'@NYJ'
p71
sg13
g14
sg15
g6
sg16
g14
sg18
g6
sg19
g20
sg21
S'50.0'
p72
sg23
g17
sg24
S'11.0'
p73
sg26
S'11/29'
p74
sg28
S'66.7'
p75
sg30
S'Andrew Franks'
p76
sg32
S'L20-38'
p77
sg34
S'2015'
p78
sg36
g6
sg37
S'--'
p79
sg39
g17
sg40
g6
ssS'15'
p80
(dp81
g5
g6
sg7
S'15'
p82
sg9
g6
sg10
g6
sg11
S'@SD'
p83
sg13
g14
sg15
g6
sg16
g20
sg18
g6
sg19
g20
sg21
S'46.0'
p84
sg23
g17
sg24
S'--'
p85
sg26
S'12/20'
p86
sg28
S'100.0'
p87
sg30
S'Andrew Franks'
p88
sg32
S'L14-30'
p89
sg34
S'2015'
p90
sg36
g6
sg37
S'--'
p91
sg39
g20
sg40
g6
ssS'14'
p92
(dp93
g5
S'36'
p94
sg7
S'14'
p95
sg9
g14
sg10
g14
sg11
S'NYG'
p96
sg13
g14
sg15
g14
sg16
g46
sg18
g6
sg19
g17
sg21
S'65.4'
p97
sg23
g48
sg24
S'22.0'
p98
sg26
S'12/14'
p99
sg28
S'100.0'
p100
sg30
S'Andrew Franks'
p101
sg32
S'L24-31'
p102
sg34
S'2015'
p103
sg36
g6
sg37
S'100.0'
p104
sg39
g17
sg40
g6
ssS'17'
p105
(dp106
g5
S'38'
p107
sg7
S'17'
p108
sg9
g6
sg10
g17
sg11
S'NE'
p109
sg13
g14
sg15
g20
sg16
g48
sg18
g6
sg19
g20
sg21
S'65.0'
p110
sg23
g48
sg24
S'--'
p111
sg26
S'01/03'
p112
sg28
S'100.0'
p113
sg30
S'Andrew Franks'
p114
sg32
S'W20-10'
p115
sg34
S'2015'
p116
sg36
g6
sg37
S'66.7'
p117
sg39
g20
sg40
g6
ssS'16'
p118
(dp119
g5
S'33'
p120
sg7
S'16'
p121
sg9
g20
sg10
g20
sg11
S'IND'
p122
sg13
g14
sg15
g20
sg16
g20
sg18
g6
sg19
g6
sg21
S'66.0'
p123
sg23
g46
sg24
S'22.5'
p124
sg26
S'12/27'
p125
sg28
S'--'
p126
sg30
S'Andrew Franks'
p127
sg32
S'L12-18'
p128
sg34
S'2015'
p129
sg36
g6
sg37
S'100.0'
p130
sg39
g6
sg40
g6
ssg14
(dp131
g5
S'22'
p132
sg7
g14
sg9
g14
sg10
g14
sg11
S'@WAS'
p133
sg13
g14
sg15
g14
sg16
g17
sg18
g6
sg19
g20
sg21
S'65.3'
p134
sg23
g46
sg24
S'36.0'
p135
sg26
S'09/13'
p136
sg28
S'100.0'
p137
sg30
S'Andrew Franks'
p138
sg32
S'W17-10'
p139
sg34
S'2015'
p140
sg36
g6
sg37
S'100.0'
p141
sg39
g20
sg40
g6
ssg17
(dp142
g5
g6
sg7
g17
sg9
g6
sg10
g6
sg11
S'BUF'
p143
sg13
g14
sg15
g6
sg16
g20
sg18
g6
sg19
g6
sg21
S'65.0'
p144
sg23
g20
sg24
S'--'
p145
sg26
S'09/27'
p146
sg28
S'0.0'
p147
sg30
S'Andrew Franks'
p148
sg32
S'L14-41'
p149
sg34
S'2015'
p150
sg36
g6
sg37
S'--'
p151
sg39
g14
sg40
g6
ssg20
(dp152
g5
S'48'
p153
sg7
g20
sg9
g20
sg10
g17
sg11
S'@JAC'
p154
sg13
g14
sg15
g20
sg16
g17
sg18
g6
sg19
g20
sg21
S'67.2'
p155
sg23
g48
sg24
S'23.0'
p156
sg26
S'09/20'
p157
sg28
S'100.0'
p158
sg30
S'Andrew Franks'
p159
sg32
S'L20-23'
p160
sg34
S'2015'
p161
sg36
g6
sg37
S'66.7'
p162
sg39
g20
sg40
g6
ssg48
(dp163
g5
S''
p164
sg7
g48
sg9
g164
sg10
g164
sg11
g164
sg13
g164
sg15
g164
sg16
g164
sg18
g164
sg19
g164
sg21
g164
sg23
g164
sg24
g164
sg26
S'Bye'
p165
sg28
g164
sg30
S'Andrew Franks'
p166
sg32
g164
sg34
S'2015'
p167
sg36
g164
sg37
g164
sg39
g164
sg40
g164
ssg46
(dp168
g5
g6
sg7
g46
sg9
g20
sg10
g6
sg11
S'NYJ'
p169
sg13
g14
sg15
g6
sg16
g14
sg18
g6
sg19
g20
sg21
S'68.3'
p170
sg23
g17
sg24
S'22.5'
p171
sg26
S'10/04'
p172
sg28
S'100.0'
p173
sg30
S'Andrew Franks'
p174
sg32
S'L14-27'
p175
sg34
S'2015'
p176
sg36
g6
sg37
S'--'
p177
sg39
g20
sg40
g6
ssS'7'
p178
(dp179
g5
S'53'
p180
sg7
g178
sg9
g17
sg10
g14
sg11
S'HOU'
p181
sg13
g14
sg15
g14
sg16
g48
sg18
g6
sg19
g48
sg21
S'65.6'
p182
sg23
S'8'
p183
sg24
S'29.3'
p184
sg26
S'10/25'
p185
sg28
S'83.3'
p186
sg30
S'Andrew Franks'
p187
sg32
S'W44-26'
p188
sg34
S'2015'
p189
sg36
g6
sg37
S'100.0'
p190
sg39
S'6'
p191
sg40
g6
ssg191
(dp192
g5
S'30'
p193
sg7
g191
sg9
g17
sg10
g14
sg11
S'@TEN'
p194
sg13
g14
sg15
g14
sg16
g46
sg18
g6
sg19
g48
sg21
S'65.0'
p195
sg23
g178
sg24
S'26.3'
p196
sg26
S'10/18'
p197
sg28
S'100.0'
p198
sg30
S'Andrew Franks'
p199
sg32
S'W38-10'
p200
sg34
S'2015'
p201
sg36
g6
sg37
S'100.0'
p202
sg39
g48
sg40
g6
ssS'9'
p203
(dp204
g5
S'48'
p205
sg7
g203
sg9
g20
sg10
g14
sg11
S'@BUF'
p206
sg13
g14
sg15
g14
sg16
g14
sg18
g6
sg19
g20
sg21
S'45.3'
p207
sg23
g46
sg24
S'16.0'
p208
sg26
S'11/08'
p209
sg28
S'100.0'
p210
sg30
S'Andrew Franks'
p211
sg32
S'L17-33'
p212
sg34
S'2015'
p213
sg36
g6
sg37
S'100.0'
p214
sg39
g20
sg40
g6
ssg183
(dp215
g5
g6
sg7
g183
sg9
g6
sg10
g14
sg11
S'@NE'
p216
sg13
g14
sg15
g6
sg16
g20
sg18
g6
sg19
g14
sg21
S'65.0'
p217
sg23
g20
sg24
S'--'
p218
sg26
S'10/29'
p219
sg28
S'100.0'
p220
sg30
S'Andrew Franks'
p221
sg32
S'L7-36'
p222
sg34
S'2015'
p223
sg36
g6
sg37
S'0.0'
p224
sg39
g14
sg40
g6
sss.