(dp0
S'2015'
p1
(dp2
S'11'
p3
(dp4
S'FGLng'
p5
S'0'
p6
sS'WK'
p7
S'11'
p8
sS'Ret'
p9
S'2'
p10
sS'FGAtt'
p11
g6
sS'Opp'
p12
S'GB'
p13
sS'G'
p14
S'1'
p15
sS'FGM'
p16
g6
sS'TB'
p17
g15
sS'GS'
p18
g6
sS'XPM'
p19
g15
sS'KOAvg'
p20
S'65.7'
p21
sS'KO'
p22
S'3'
p23
sS'RetAvg'
p24
S'41.5'
p25
sS'Game Date'
p26
S'11/22'
p27
sS'XPPct'
p28
S'50.0'
p29
sS'Player'
p30
S'Blair Walsh'
p31
sS'Result'
p32
S'L13-30'
p33
sS'Year'
p34
S'2015'
p35
sS'XPBlk'
p36
g6
sS'FGPct'
p37
S'--'
p38
sS'XPAtt'
p39
g10
sS'FGBlk'
p40
g6
ssS'10'
p41
(dp42
g5
S'38'
p43
sg7
S'10'
p44
sg9
S'6'
p45
sg11
S'5'
p46
sg12
S'@OAK'
p47
sg14
g15
sg16
g23
sg17
g15
sg18
g6
sg19
g23
sg20
S'64.1'
p48
sg22
S'7'
p49
sg24
S'24.2'
p50
sg26
S'11/15'
p51
sg28
S'100.0'
p52
sg30
S'Blair Walsh'
p53
sg32
S'W30-14'
p54
sg34
S'2015'
p55
sg36
g6
sg37
S'60.0'
p56
sg39
g23
sg40
g15
ssS'13'
p57
(dp58
g5
g6
sg7
S'13'
p59
sg9
g15
sg11
g6
sg12
S'SEA'
p60
sg14
g15
sg16
g6
sg17
g15
sg18
g6
sg19
g15
sg20
S'64.0'
p61
sg22
g10
sg24
S'47.0'
p62
sg26
S'12/06'
p63
sg28
S'100.0'
p64
sg30
S'Blair Walsh'
p65
sg32
S'L7-38'
p66
sg34
S'2015'
p67
sg36
g6
sg37
S'--'
p68
sg39
g15
sg40
g6
ssS'12'
p69
(dp70
g5
S'39'
p71
sg7
S'12'
p72
sg9
g15
sg11
g23
sg12
S'@ATL'
p73
sg14
g15
sg16
g10
sg17
S'4'
p74
sg18
g6
sg19
g10
sg20
S'66.0'
p75
sg22
g46
sg24
S'44.0'
p76
sg26
S'11/29'
p77
sg28
S'100.0'
p78
sg30
S'Blair Walsh'
p79
sg32
S'W20-10'
p80
sg34
S'2015'
p81
sg36
g6
sg37
S'66.7'
p82
sg39
g10
sg40
g6
ssS'15'
p83
(dp84
g5
S'53'
p85
sg7
S'15'
p86
sg9
g46
sg11
g15
sg12
S'CHI'
p87
sg14
g15
sg16
g15
sg17
g10
sg18
g6
sg19
g46
sg20
S'67.0'
p88
sg22
g49
sg24
S'30.6'
p89
sg26
S'12/20'
p90
sg28
S'100.0'
p91
sg30
S'Blair Walsh'
p92
sg32
S'W38-17'
p93
sg34
S'2015'
p94
sg36
g6
sg37
S'100.0'
p95
sg39
g46
sg40
g6
ssS'14'
p96
(dp97
g5
S'54'
p98
sg7
S'14'
p99
sg9
g15
sg11
g10
sg12
S'@ARI'
p100
sg14
g15
sg16
g10
sg17
g74
sg18
g6
sg19
g10
sg20
S'66.4'
p101
sg22
g46
sg24
S'23.0'
p102
sg26
S'12/10'
p103
sg28
S'100.0'
p104
sg30
S'Blair Walsh'
p105
sg32
S'L20-23'
p106
sg34
S'2015'
p107
sg36
g6
sg37
S'100.0'
p108
sg39
g10
sg40
g6
ssS'17'
p109
(dp110
g5
S'39'
p111
sg7
S'17'
p112
sg9
g15
sg11
g10
sg12
S'@GB'
p113
sg14
g15
sg16
g10
sg17
g74
sg18
g6
sg19
g10
sg20
S'64.8'
p114
sg22
g46
sg24
S'26.0'
p115
sg26
S'01/03'
p116
sg28
S'100.0'
p117
sg30
S'Blair Walsh'
p118
sg32
S'W20-13'
p119
sg34
S'2015'
p120
sg36
g6
sg37
S'100.0'
p121
sg39
g10
sg40
g6
ssS'16'
p122
(dp123
g5
S'53'
p124
sg7
S'16'
p125
sg9
S'8'
p126
sg11
g46
sg12
S'NYG'
p127
sg14
g15
sg16
g46
sg17
g23
sg18
g6
sg19
g74
sg20
S'62.5'
p128
sg22
S'11'
p129
sg24
S'20.3'
p130
sg26
S'12/27'
p131
sg28
S'80.0'
p132
sg30
S'Blair Walsh'
p133
sg32
S'W49-17'
p134
sg34
S'2015'
p135
sg36
g6
sg37
S'100.0'
p136
sg39
g46
sg40
g6
ssg15
(dp137
g5
S'37'
p138
sg7
g15
sg9
g6
sg11
g10
sg12
S'@SF'
p139
sg14
g15
sg16
g15
sg17
g10
sg18
g6
sg19
g6
sg20
S'65.0'
p140
sg22
g10
sg24
S'--'
p141
sg26
S'09/14'
p142
sg28
S'--'
p143
sg30
S'Blair Walsh'
p144
sg32
S'L3-20'
p145
sg34
S'2015'
p146
sg36
g6
sg37
S'50.0'
p147
sg39
g6
sg40
g6
ssg23
(dp148
g5
S'24'
p149
sg7
g23
sg9
g15
sg11
g15
sg12
S'SD'
p150
sg14
g15
sg16
g15
sg17
g46
sg18
g6
sg19
g74
sg20
S'67.5'
p151
sg22
g45
sg24
S'19.0'
p152
sg26
S'09/27'
p153
sg28
S'100.0'
p154
sg30
S'Blair Walsh'
p155
sg32
S'W31-14'
p156
sg34
S'2015'
p157
sg36
g6
sg37
S'100.0'
p158
sg39
g74
sg40
g6
ssg10
(dp159
g5
S'28'
p160
sg7
g10
sg9
g23
sg11
g10
sg12
S'DET'
p161
sg14
g15
sg16
g10
sg17
g23
sg18
g6
sg19
g10
sg20
S'68.0'
p162
sg22
g45
sg24
S'28.0'
p163
sg26
S'09/20'
p164
sg28
S'66.7'
p165
sg30
S'Blair Walsh'
p166
sg32
S'W26-16'
p167
sg34
S'2015'
p168
sg36
g6
sg37
S'100.0'
p169
sg39
g23
sg40
g6
ssg46
(dp170
g5
S''
p171
sg7
g46
sg9
g171
sg11
g171
sg12
g171
sg14
g171
sg16
g171
sg17
g171
sg18
g171
sg19
g171
sg20
g171
sg22
g171
sg24
g171
sg26
S'Bye'
p172
sg28
g171
sg30
S'Blair Walsh'
p173
sg32
g171
sg34
S'2015'
p174
sg36
g171
sg37
g171
sg39
g171
sg40
g171
ssg74
(dp175
g5
S'38'
p176
sg7
g74
sg9
g10
sg11
g23
sg12
S'@DEN'
p177
sg14
g15
sg16
g10
sg17
g23
sg18
g6
sg19
g10
sg20
S'67.4'
p178
sg22
g46
sg24
S'27.5'
p179
sg26
S'10/04'
p180
sg28
S'100.0'
p181
sg30
S'Blair Walsh'
p182
sg32
S'L20-23'
p183
sg34
S'2015'
p184
sg36
g6
sg37
S'66.7'
p185
sg39
g10
sg40
g6
ssg49
(dp186
g5
S'53'
p187
sg7
g49
sg9
g23
sg11
g46
sg12
S'@DET'
p188
sg14
g15
sg16
g46
sg17
g74
sg18
g6
sg19
g15
sg20
S'66.7'
p189
sg22
g49
sg24
S'26.3'
p190
sg26
S'10/25'
p191
sg28
S'50.0'
p192
sg30
S'Blair Walsh'
p193
sg32
S'W28-19'
p194
sg34
S'2015'
p195
sg36
g6
sg37
S'100.0'
p196
sg39
g10
sg40
g6
ssg45
(dp197
g5
S'45'
p198
sg7
g45
sg9
g10
sg11
g23
sg12
S'KC'
p199
sg14
g15
sg16
g23
sg17
g23
sg18
g6
sg19
g15
sg20
S'64.8'
p200
sg22
g46
sg24
S'19.5'
p201
sg26
S'10/18'
p202
sg28
S'100.0'
p203
sg30
S'Blair Walsh'
p204
sg32
S'W16-10'
p205
sg34
S'2015'
p206
sg36
g6
sg37
S'100.0'
p207
sg39
g15
sg40
g6
ssS'9'
p208
(dp209
g5
S'40'
p210
sg7
g208
sg9
g6
sg11
g10
sg12
S'STL'
p211
sg14
g15
sg16
g10
sg17
g46
sg18
g6
sg19
g15
sg20
S'65.0'
p212
sg22
g46
sg24
S'--'
p213
sg26
S'11/08'
p214
sg28
S'100.0'
p215
sg30
S'Blair Walsh'
p216
sg32
S'W21-18'
p217
sg34
S'2015'
p218
sg36
g6
sg37
S'100.0'
p219
sg39
g15
sg40
g6
ssg126
(dp220
g5
S'48'
p221
sg7
g126
sg9
g23
sg11
g23
sg12
S'@CHI'
p222
sg14
g15
sg16
g23
sg17
g10
sg18
g6
sg19
g10
sg20
S'67.6'
p223
sg22
g46
sg24
S'26.0'
p224
sg26
S'11/01'
p225
sg28
S'100.0'
p226
sg30
S'Blair Walsh'
p227
sg32
S'W23-20'
p228
sg34
S'2015'
p229
sg36
g6
sg37
S'100.0'
p230
sg39
g10
sg40
g6
sssS'2014'
p231
(dp232
g3
(dp233
g5
S'50'
p234
sg7
S'11'
p235
sg9
g74
sg11
g23
sg12
S'@CHI'
p236
sg14
g15
sg16
g10
sg17
g6
sg18
g6
sg19
g15
sg20
S'60.5'
p237
sg22
g74
sg24
S'14.8'
p238
sg26
S'11/16'
p239
sg28
S'100.0'
p240
sg30
S'Blair Walsh'
p241
sg32
S'L13-21'
p242
sg34
S'2014'
p243
sg36
g6
sg37
S'66.7'
p244
sg39
g15
sg40
g6
ssg41
(dp245
g5
g171
sg7
S'10'
p246
sg9
g171
sg11
g171
sg12
g171
sg14
g171
sg16
g171
sg17
g171
sg18
g171
sg19
g171
sg20
g171
sg22
g171
sg24
g171
sg26
S'Bye'
p247
sg28
g171
sg30
S'Blair Walsh'
p248
sg32
g171
sg34
S'2014'
p249
sg36
g171
sg37
g171
sg39
g171
sg40
g171
ssg57
(dp250
g5
S'39'
p251
sg7
S'13'
p252
sg9
g23
sg11
g15
sg12
S'CAR'
p253
sg14
g15
sg16
g15
sg17
g23
sg18
g6
sg19
g74
sg20
S'59.8'
p254
sg22
g45
sg24
S'14.3'
p255
sg26
S'11/30'
p256
sg28
S'100.0'
p257
sg30
S'Blair Walsh'
p258
sg32
S'W31-13'
p259
sg34
S'2014'
p260
sg36
g6
sg37
S'100.0'
p261
sg39
g74
sg40
g6
ssg69
(dp262
g5
S'51'
p263
sg7
S'12'
p264
sg9
g6
sg11
g10
sg12
S'GB'
p265
sg14
g15
sg16
g10
sg17
g46
sg18
g6
sg19
g15
sg20
S'62.0'
p266
sg22
g46
sg24
S'--'
p267
sg26
S'11/23'
p268
sg28
S'100.0'
p269
sg30
S'Blair Walsh'
p270
sg32
S'L21-24'
p271
sg34
S'2014'
p272
sg36
g6
sg37
S'100.0'
p273
sg39
g15
sg40
g6
ssg83
(dp274
g5
g6
sg7
S'15'
p275
sg9
g6
sg11
g23
sg12
S'@DET'
p276
sg14
g15
sg16
g6
sg17
g23
sg18
g6
sg19
g10
sg20
S'65.0'
p277
sg22
g23
sg24
S'--'
p278
sg26
S'12/14'
p279
sg28
S'100.0'
p280
sg30
S'Blair Walsh'
p281
sg32
S'L14-16'
p282
sg34
S'2014'
p283
sg36
g6
sg37
S'0.0'
p284
sg39
g10
sg40
g15
ssg96
(dp285
g5
S'20'
p286
sg7
S'14'
p287
sg9
g74
sg11
g23
sg12
S'NYJ'
p288
sg14
g15
sg16
g15
sg17
g10
sg18
g6
sg19
g23
sg20
S'64.2'
p289
sg22
g45
sg24
S'27.3'
p290
sg26
S'12/07'
p291
sg28
S'100.0'
p292
sg30
S'Blair Walsh'
p293
sg32
S'W30-24'
p294
sg34
S'2014'
p295
sg36
g6
sg37
S'33.3'
p296
sg39
g23
sg40
g6
ssg109
(dp297
g5
S'44'
p298
sg7
S'17'
p299
sg9
g23
sg11
g10
sg12
S'CHI'
p300
sg14
g15
sg16
g10
sg17
g15
sg18
g6
sg19
g15
sg20
S'59.0'
p301
sg22
g74
sg24
S'29.3'
p302
sg26
S'12/28'
p303
sg28
S'100.0'
p304
sg30
S'Blair Walsh'
p305
sg32
S'W13-9'
p306
sg34
S'2014'
p307
sg36
g6
sg37
S'100.0'
p308
sg39
g15
sg40
g6
ssg122
(dp309
g5
S'33'
p310
sg7
S'16'
p311
sg9
g23
sg11
g10
sg12
S'@MIA'
p312
sg14
g15
sg16
g10
sg17
g74
sg18
g6
sg19
g23
sg20
S'57.4'
p313
sg22
g126
sg24
S'15.0'
p314
sg26
S'12/21'
p315
sg28
S'100.0'
p316
sg30
S'Blair Walsh'
p317
sg32
S'L35-37'
p318
sg34
S'2014'
p319
sg36
g6
sg37
S'100.0'
p320
sg39
g23
sg40
g6
ssg15
(dp321
g5
S'52'
p322
sg7
g15
sg9
g15
sg11
g10
sg12
S'@STL'
p323
sg14
g15
sg16
g10
sg17
g45
sg18
g6
sg19
g74
sg20
S'66.3'
p324
sg22
g49
sg24
S'26.0'
p325
sg26
S'09/07'
p326
sg28
S'100.0'
p327
sg30
S'Blair Walsh'
p328
sg32
S'W34-6'
p329
sg34
S'2014'
p330
sg36
g6
sg37
S'100.0'
p331
sg39
g74
sg40
g6
ssg23
(dp332
g5
S'40'
p333
sg7
g23
sg9
g6
sg11
g23
sg12
S'@NO'
p334
sg14
g15
sg16
g23
sg17
g74
sg18
g6
sg19
g6
sg20
S'65.0'
p335
sg22
g74
sg24
S'--'
p336
sg26
S'09/21'
p337
sg28
S'--'
p338
sg30
S'Blair Walsh'
p339
sg32
S'L9-20'
p340
sg34
S'2014'
p341
sg36
g6
sg37
S'100.0'
p342
sg39
g6
sg40
g6
ssg10
(dp343
g5
g6
sg7
g10
sg9
g6
sg11
g15
sg12
S'NE'
p344
sg14
g15
sg16
g6
sg17
g10
sg18
g6
sg19
g15
sg20
S'65.0'
p345
sg22
g10
sg24
S'--'
p346
sg26
S'09/14'
p347
sg28
S'100.0'
p348
sg30
S'Blair Walsh'
p349
sg32
S'L7-30'
p350
sg34
S'2014'
p351
sg36
g6
sg37
S'0.0'
p352
sg39
g15
sg40
g15
ssg46
(dp353
g5
S'26'
p354
sg7
g46
sg9
g6
sg11
g15
sg12
S'@GB'
p355
sg14
g15
sg16
g15
sg17
g23
sg18
g6
sg19
g15
sg20
S'65.0'
p356
sg22
g23
sg24
S'--'
p357
sg26
S'10/02'
p358
sg28
S'100.0'
p359
sg30
S'Blair Walsh'
p360
sg32
S'L10-42'
p361
sg34
S'2014'
p362
sg36
g6
sg37
S'100.0'
p363
sg39
g15
sg40
g6
ssg74
(dp364
g5
S'55'
p365
sg7
g74
sg9
g23
sg11
g46
sg12
S'ATL'
p366
sg14
g15
sg16
g74
sg17
g45
sg18
g6
sg19
g23
sg20
S'63.3'
p367
sg22
g208
sg24
S'20.7'
p368
sg26
S'09/28'
p369
sg28
S'100.0'
p370
sg30
S'Blair Walsh'
p371
sg32
S'W41-28'
p372
sg34
S'2014'
p373
sg36
g6
sg37
S'80.0'
p374
sg39
g23
sg40
g6
ssg49
(dp375
g5
S'55'
p376
sg7
g49
sg9
g10
sg11
g23
sg12
S'@BUF'
p377
sg14
g15
sg16
g23
sg17
g23
sg18
g6
sg19
g15
sg20
S'63.4'
p378
sg22
g46
sg24
S'16.5'
p379
sg26
S'10/19'
p380
sg28
S'100.0'
p381
sg30
S'Blair Walsh'
p382
sg32
S'L16-17'
p383
sg34
S'2014'
p384
sg36
g6
sg37
S'100.0'
p385
sg39
g15
sg40
g6
ssg45
(dp386
g5
S'40'
p387
sg7
g45
sg9
g6
sg11
g15
sg12
S'DET'
p388
sg14
g15
sg16
g15
sg17
g10
sg18
g6
sg19
g6
sg20
S'65.0'
p389
sg22
g10
sg24
S'--'
p390
sg26
S'10/12'
p391
sg28
S'--'
p392
sg30
S'Blair Walsh'
p393
sg32
S'L3-17'
p394
sg34
S'2014'
p395
sg36
g6
sg37
S'100.0'
p396
sg39
g6
sg40
g6
ssg208
(dp397
g5
g6
sg7
g208
sg9
g10
sg11
g6
sg12
S'WAS'
p398
sg14
g15
sg16
g6
sg17
g23
sg18
g6
sg19
g23
sg20
S'66.8'
p399
sg22
g46
sg24
S'32.0'
p400
sg26
S'11/02'
p401
sg28
S'100.0'
p402
sg30
S'Blair Walsh'
p403
sg32
S'W29-26'
p404
sg34
S'2014'
p405
sg36
g6
sg37
S'--'
p406
sg39
g23
sg40
g6
ssg126
(dp407
g5
S'46'
p408
sg7
g126
sg9
g10
sg11
g23
sg12
S'@TB'
p409
sg14
g15
sg16
g10
sg17
g15
sg18
g6
sg19
g15
sg20
S'70.0'
p410
sg22
g23
sg24
S'22.5'
p411
sg26
S'10/26'
p412
sg28
S'100.0'
p413
sg30
S'Blair Walsh'
p414
sg32
S'W19-13'
p415
sg34
S'2014'
p416
sg36
g6
sg37
S'66.7'
p417
sg39
g15
sg40
g6
sssS'2013'
p418
(dp419
g3
(dp420
g5
S'45'
p421
sg7
S'11'
p422
sg9
g46
sg11
g10
sg12
S'@SEA'
p423
sg14
g15
sg16
g10
sg17
g6
sg18
g6
sg19
g10
sg20
S'54.6'
p424
sg22
g46
sg24
S'20.0'
p425
sg26
S'11/17'
p426
sg28
S'100.0'
p427
sg30
S'Blair Walsh'
p428
sg32
S'L20-41'
p429
sg34
S'2013'
p430
sg36
g6
sg37
S'100.0'
p431
sg39
g10
sg40
g6
ssg41
(dp432
g5
S'40'
p433
sg7
S'10'
p434
sg9
g23
sg11
g10
sg12
S'WAS'
p435
sg14
g15
sg16
g10
sg17
g74
sg18
g6
sg19
g74
sg20
S'66.1'
p436
sg22
g49
sg24
S'24.7'
p437
sg26
S'11/07'
p438
sg28
S'100.0'
p439
sg30
S'Blair Walsh'
p440
sg32
S'W34-27'
p441
sg34
S'2013'
p442
sg36
g6
sg37
S'100.0'
p443
sg39
g74
sg40
g6
ssg57
(dp444
g5
S'34'
p445
sg7
S'13'
p446
sg9
g23
sg11
g74
sg12
S'CHI'
p447
sg14
g15
sg16
g23
sg17
g23
sg18
g6
sg19
g10
sg20
S'64.5'
p448
sg22
g45
sg24
S'29.0'
p449
sg26
S'12/01'
p450
sg28
S'100.0'
p451
sg30
S'Blair Walsh'
p452
sg32
S'W23-20'
p453
sg34
S'2013'
p454
sg36
g6
sg37
S'75.0'
p455
sg39
g10
sg40
g6
ssg69
(dp456
g5
S'47'
p457
sg7
S'12'
p458
sg9
g23
sg11
g74
sg12
S'@GB'
p459
sg14
g15
sg16
g74
sg17
g46
sg18
g6
sg19
g10
sg20
S'67.6'
p460
sg22
g126
sg24
S'21.0'
p461
sg26
S'11/24'
p462
sg28
S'100.0'
p463
sg30
S'Blair Walsh'
p464
sg32
S'T26-26'
p465
sg34
S'2013'
p466
sg36
g6
sg37
S'100.0'
p467
sg39
g10
sg40
g6
ssg83
(dp468
g5
S'38'
p469
sg7
S'15'
p470
sg9
g10
sg11
g23
sg12
S'PHI'
p471
sg14
g15
sg16
g10
sg17
g49
sg18
g6
sg19
g45
sg20
S'70.0'
p472
sg22
g208
sg24
S'41.5'
p473
sg26
S'12/15'
p474
sg28
S'100.0'
p475
sg30
S'Blair Walsh'
p476
sg32
S'W48-30'
p477
sg34
S'2013'
p478
sg36
g6
sg37
S'66.7'
p479
sg39
g45
sg40
g6
ssg96
(dp480
g5
S'40'
p481
sg7
S'14'
p482
sg9
g74
sg11
g10
sg12
S'@BAL'
p483
sg14
g15
sg16
g10
sg17
g15
sg18
g6
sg19
g10
sg20
S'60.8'
p484
sg22
g45
sg24
S'38.0'
p485
sg26
S'12/08'
p486
sg28
S'100.0'
p487
sg30
S'Blair Walsh'
p488
sg32
S'L26-29'
p489
sg34
S'2013'
p490
sg36
g6
sg37
S'100.0'
p491
sg39
g10
sg40
g6
ssg109
(dp492
g5
g6
sg7
S'17'
p493
sg9
g15
sg11
g6
sg12
S'DET'
p494
sg14
g15
sg16
g6
sg17
g10
sg18
g6
sg19
g10
sg20
S'69.7'
p495
sg22
g23
sg24
S'20.0'
p496
sg26
S'12/29'
p497
sg28
S'100.0'
p498
sg30
S'Blair Walsh'
p499
sg32
S'W14-13'
p500
sg34
S'2013'
p501
sg36
g6
sg37
S'--'
p502
sg39
g10
sg40
g6
ssg122
(dp503
g5
g6
sg7
S'16'
p504
sg9
g15
sg11
g6
sg12
S'@CIN'
p505
sg14
g15
sg16
g6
sg17
g10
sg18
g6
sg19
g10
sg20
S'61.7'
p506
sg22
g23
sg24
S'3.0'
p507
sg26
S'12/22'
p508
sg28
S'100.0'
p509
sg30
S'Blair Walsh'
p510
sg32
S'L14-42'
p511
sg34
S'2013'
p512
sg36
g6
sg37
S'--'
p513
sg39
g10
sg40
g6
ssg15
(dp514
g5
S'52'
p515
sg7
g15
sg9
g6
sg11
g15
sg12
S'@DET'
p516
sg14
g15
sg16
g15
sg17
g46
sg18
g6
sg19
g23
sg20
S'68.4'
p517
sg22
g46
sg24
S'--'
p518
sg26
S'09/08'
p519
sg28
S'100.0'
p520
sg30
S'Blair Walsh'
p521
sg32
S'L24-34'
p522
sg34
S'2013'
p523
sg36
g6
sg37
S'100.0'
p524
sg39
g23
sg40
g6
ssg23
(dp525
g5
S'43'
p526
sg7
g23
sg9
g15
sg11
g10
sg12
S'CLE'
p527
sg14
g15
sg16
g10
sg17
g46
sg18
g6
sg19
g23
sg20
S'65.0'
p528
sg22
g45
sg24
S'26.0'
p529
sg26
S'09/22'
p530
sg28
S'100.0'
p531
sg30
S'Blair Walsh'
p532
sg32
S'L27-31'
p533
sg34
S'2013'
p534
sg36
g6
sg37
S'100.0'
p535
sg39
g23
sg40
g6
ssg10
(dp536
g5
S'28'
p537
sg7
g10
sg9
g45
sg11
g23
sg12
S'@CHI'
p538
sg14
g15
sg16
g23
sg17
g15
sg18
g6
sg19
g23
sg20
S'64.6'
p539
sg22
g49
sg24
S'43.8'
p540
sg26
S'09/15'
p541
sg28
S'100.0'
p542
sg30
S'Blair Walsh'
p543
sg32
S'L30-31'
p544
sg34
S'2013'
p545
sg36
g6
sg37
S'100.0'
p546
sg39
g23
sg40
g6
ssg46
(dp547
g5
g171
sg7
g46
sg9
g171
sg11
g171
sg12
g171
sg14
g171
sg16
g171
sg17
g171
sg18
g171
sg19
g171
sg20
g171
sg22
g171
sg24
g171
sg26
S'Bye'
p548
sg28
g171
sg30
S'Blair Walsh'
p549
sg32
g171
sg34
S'2013'
p550
sg36
g171
sg37
g171
sg39
g171
sg40
g171
ssg74
(dp551
g5
S'54'
p552
sg7
g74
sg9
g74
sg11
g23
sg12
S'PIT'
p553
sg14
g15
sg16
g10
sg17
g23
sg18
g6
sg19
g74
sg20
S'67.4'
p554
sg22
g49
sg24
S'23.0'
p555
sg26
S'09/29'
p556
sg28
S'100.0'
p557
sg30
S'Blair Walsh'
p558
sg32
S'W34-27'
p559
sg34
S'2013'
p560
sg36
g6
sg37
S'66.7'
p561
sg39
g74
sg40
g6
ssg49
(dp562
g5
g6
sg7
g49
sg9
g15
sg11
g15
sg12
S'@NYG'
p563
sg14
g15
sg16
g6
sg17
g6
sg18
g6
sg19
g15
sg20
S'42.0'
p564
sg22
g15
sg24
S'14.0'
p565
sg26
S'10/21'
p566
sg28
S'100.0'
p567
sg30
S'Blair Walsh'
p568
sg32
S'L7-23'
p569
sg34
S'2013'
p570
sg36
g6
sg37
S'0.0'
p571
sg39
g15
sg40
g6
ssg45
(dp572
g5
S'22'
p573
sg7
g45
sg9
S'--'
p574
sg11
g15
sg12
S'CAR'
p575
sg14
g15
sg16
g15
sg17
S'--'
p576
sg18
g6
sg19
g15
sg20
S'--'
p577
sg22
S'--'
p578
sg24
S'--'
p579
sg26
S'10/13'
p580
sg28
S'100.0'
p581
sg30
S'Blair Walsh'
p582
sg32
S'L10-35'
p583
sg34
S'2013'
p584
sg36
g6
sg37
S'100.0'
p585
sg39
g15
sg40
g6
ssg208
(dp586
g5
S'23'
p587
sg7
g208
sg9
g10
sg11
g15
sg12
S'@DAL'
p588
sg14
g15
sg16
g15
sg17
g23
sg18
g6
sg19
g10
sg20
S'70.2'
p589
sg22
g46
sg24
S'30.0'
p590
sg26
S'11/03'
p591
sg28
S'66.7'
p592
sg30
S'Blair Walsh'
p593
sg32
S'L23-27'
p594
sg34
S'2013'
p595
sg36
g6
sg37
S'100.0'
p596
sg39
g23
sg40
g6
ssg126
(dp597
g5
S'36'
p598
sg7
g126
sg9
g10
sg11
g15
sg12
S'GB'
p599
sg14
g15
sg16
g15
sg17
g10
sg18
g6
sg19
g74
sg20
S'48.3'
p600
sg22
g45
sg24
S'17.0'
p601
sg26
S'10/27'
p602
sg28
S'100.0'
p603
sg30
S'Blair Walsh'
p604
sg32
S'L31-44'
p605
sg34
S'2013'
p606
sg36
g6
sg37
S'100.0'
p607
sg39
g74
sg40
g6
sssS'2012'
p608
(dp609
g3
(dp610
g5
g171
sg7
S'11'
p611
sg9
g171
sg11
g171
sg12
g171
sg14
g171
sg16
g171
sg17
g171
sg18
g171
sg19
g171
sg20
g171
sg22
g171
sg24
g171
sg26
S'Bye'
p612
sg28
g171
sg30
S'Blair Walsh'
p613
sg32
g171
sg34
S'2012'
p614
sg36
g171
sg37
g171
sg39
g171
sg40
g171
ssg41
(dp615
g5
S'48'
p616
sg7
S'10'
p617
sg9
g10
sg11
g74
sg12
S'DET'
p618
sg14
g15
sg16
g74
sg17
g45
sg18
g6
sg19
g10
sg20
S'69.0'
p619
sg22
g126
sg24
S'18.0'
p620
sg26
S'11/11'
p621
sg28
S'100.0'
p622
sg30
S'Blair Walsh'
p623
sg32
S'W34-24'
p624
sg34
S'2012'
p625
sg36
g6
sg37
S'100.0'
p626
sg39
g10
sg40
g6
ssg57
(dp627
g5
g6
sg7
S'13'
p628
sg9
g23
sg11
g15
sg12
S'@GB'
p629
sg14
g15
sg16
g6
sg17
g6
sg18
g6
sg19
g10
sg20
S'67.3'
p630
sg22
g23
sg24
S'22.7'
p631
sg26
S'12/02'
p632
sg28
S'100.0'
p633
sg30
S'Blair Walsh'
p634
sg32
S'L14-23'
p635
sg34
S'2012'
p636
sg36
g6
sg37
S'0.0'
p637
sg39
g10
sg40
g6
ssg69
(dp638
g5
S'40'
p639
sg7
S'12'
p640
sg9
g23
sg11
g10
sg12
S'@CHI'
p641
sg14
g15
sg16
g15
sg17
g6
sg18
g6
sg19
g15
sg20
S'64.0'
p642
sg22
g23
sg24
S'21.7'
p643
sg26
S'11/25'
p644
sg28
S'100.0'
p645
sg30
S'Blair Walsh'
p646
sg32
S'L10-28'
p647
sg34
S'2012'
p648
sg36
g6
sg37
S'50.0'
p649
sg39
g15
sg40
g15
ssg83
(dp650
g5
S'53'
p651
sg7
S'15'
p652
sg9
g10
sg11
g46
sg12
S'@STL'
p653
sg14
g15
sg16
g46
sg17
g45
sg18
g6
sg19
g23
sg20
S'70.0'
p654
sg22
g126
sg24
S'14.5'
p655
sg26
S'12/16'
p656
sg28
S'100.0'
p657
sg30
S'Blair Walsh'
p658
sg32
S'W36-22'
p659
sg34
S'2012'
p660
sg36
g6
sg37
S'100.0'
p661
sg39
g23
sg40
g6
ssg96
(dp662
g5
g6
sg7
S'14'
p663
sg9
g74
sg11
g6
sg12
S'CHI'
p664
sg14
g15
sg16
g6
sg17
g6
sg18
g6
sg19
g23
sg20
S'63.0'
p665
sg22
g74
sg24
S'14.8'
p666
sg26
S'12/09'
p667
sg28
S'100.0'
p668
sg30
S'Blair Walsh'
p669
sg32
S'W21-14'
p670
sg34
S'2012'
p671
sg36
g6
sg37
S'--'
p672
sg39
g23
sg40
g6
ssg109
(dp673
g5
S'54'
p674
sg7
S'17'
p675
sg9
g23
sg11
g23
sg12
S'GB'
p676
sg14
g15
sg16
g23
sg17
g74
sg18
g6
sg19
g74
sg20
S'69.9'
p677
sg22
g49
sg24
S'28.7'
p678
sg26
S'12/30'
p679
sg28
S'100.0'
p680
sg30
S'Blair Walsh'
p681
sg32
S'W37-34'
p682
sg34
S'2012'
p683
sg36
g6
sg37
S'100.0'
p684
sg39
g74
sg40
g6
ssg122
(dp685
g5
S'56'
p686
sg7
S'16'
p687
sg9
g74
sg11
g23
sg12
S'@HOU'
p688
sg14
g15
sg16
g23
sg17
g10
sg18
g6
sg19
g10
sg20
S'65.3'
p689
sg22
g45
sg24
S'21.0'
p690
sg26
S'12/23'
p691
sg28
S'100.0'
p692
sg30
S'Blair Walsh'
p693
sg32
S'W23-6'
p694
sg34
S'2012'
p695
sg36
g6
sg37
S'100.0'
p696
sg39
g10
sg40
g6
ssg15
(dp697
g5
S'55'
p698
sg7
g15
sg9
g23
sg11
g74
sg12
S'JAC'
p699
sg14
g15
sg16
g74
sg17
g23
sg18
g6
sg19
g10
sg20
S'69.2'
p700
sg22
g45
sg24
S'21.0'
p701
sg26
S'09/09'
p702
sg28
S'100.0'
p703
sg30
S'Blair Walsh'
p704
sg32
S'W26-23'
p705
sg34
S'2012'
p706
sg36
g6
sg37
S'100.0'
p707
sg39
g10
sg40
g6
ssg23
(dp708
g5
S'52'
p709
sg7
g23
sg9
g74
sg11
g15
sg12
S'SF'
p710
sg14
g15
sg16
g15
sg17
g6
sg18
g6
sg19
g23
sg20
S'70.0'
p711
sg22
g74
sg24
S'48.3'
p712
sg26
S'09/23'
p713
sg28
S'100.0'
p714
sg30
S'Blair Walsh'
p715
sg32
S'W24-13'
p716
sg34
S'2012'
p717
sg36
g6
sg37
S'100.0'
p718
sg39
g23
sg40
g6
ssg10
(dp719
g5
S'51'
p720
sg7
g10
sg9
g15
sg11
g10
sg12
S'@IND'
p721
sg14
g15
sg16
g10
sg17
g74
sg18
g6
sg19
g10
sg20
S'72.8'
p722
sg22
g46
sg24
S'19.0'
p723
sg26
S'09/16'
p724
sg28
S'100.0'
p725
sg30
S'Blair Walsh'
p726
sg32
S'L20-23'
p727
sg34
S'2012'
p728
sg36
g6
sg37
S'100.0'
p729
sg39
g10
sg40
g6
ssg46
(dp730
g5
S'42'
p731
sg7
g46
sg9
g10
sg11
g23
sg12
S'TEN'
p732
sg14
g15
sg16
g23
sg17
g46
sg18
g6
sg19
g23
sg20
S'67.1'
p733
sg22
g49
sg24
S'30.5'
p734
sg26
S'10/07'
p735
sg28
S'100.0'
p736
sg30
S'Blair Walsh'
p737
sg32
S'W30-7'
p738
sg34
S'2012'
p739
sg36
g6
sg37
S'100.0'
p740
sg39
g23
sg40
g6
ssg74
(dp741
g5
S'49'
p742
sg7
g74
sg9
g6
sg11
g23
sg12
S'@DET'
p743
sg14
g15
sg16
g10
sg17
g46
sg18
g6
sg19
g10
sg20
S'68.8'
p744
sg22
g46
sg24
S'--'
p745
sg26
S'09/30'
p746
sg28
S'100.0'
p747
sg30
S'Blair Walsh'
p748
sg32
S'W20-13'
p749
sg34
S'2012'
p750
sg36
g6
sg37
S'66.7'
p751
sg39
g10
sg40
g6
ssg49
(dp752
g5
g6
sg7
g49
sg9
g15
sg11
g6
sg12
S'ARI'
p753
sg14
g15
sg16
g6
sg17
g23
sg18
g6
sg19
g23
sg20
S'69.0'
p754
sg22
g74
sg24
S'13.0'
p755
sg26
S'10/21'
p756
sg28
S'100.0'
p757
sg30
S'Blair Walsh'
p758
sg32
S'W21-14'
p759
sg34
S'2012'
p760
sg36
g6
sg37
S'--'
p761
sg39
g23
sg40
g6
ssg45
(dp762
g5
S'37'
p763
sg7
g45
sg9
g6
sg11
g74
sg12
S'@WAS'
p764
sg14
g15
sg16
g74
sg17
g49
sg18
g6
sg19
g6
sg20
S'66.3'
p765
sg22
g49
sg24
S'--'
p766
sg26
S'10/14'
p767
sg28
S'--'
p768
sg30
S'Blair Walsh'
p769
sg32
S'L26-38'
p770
sg34
S'2012'
p771
sg36
g6
sg37
S'100.0'
p772
sg39
g6
sg40
g6
ssg208
(dp773
g5
S'55'
p774
sg7
g208
sg9
g15
sg11
g10
sg12
S'@SEA'
p775
sg14
g15
sg16
g10
sg17
g74
sg18
g6
sg19
g10
sg20
S'65.8'
p776
sg22
g46
sg24
S'19.0'
p777
sg26
S'11/04'
p778
sg28
S'100.0'
p779
sg30
S'Blair Walsh'
p780
sg32
S'L20-30'
p781
sg34
S'2012'
p782
sg36
g6
sg37
S'100.0'
p783
sg39
g10
sg40
g6
ssg126
(dp784
g5
S'51'
p785
sg7
g126
sg9
g6
sg11
g15
sg12
S'TB'
p786
sg14
g15
sg16
g15
sg17
g74
sg18
g6
sg19
g10
sg20
S'69.3'
p787
sg22
g74
sg24
S'--'
p788
sg26
S'10/25'
p789
sg28
S'100.0'
p790
sg30
S'Blair Walsh'
p791
sg32
S'L17-36'
p792
sg34
S'2012'
p793
sg36
g6
sg37
S'100.0'
p794
sg39
g10
sg40
g6
sss.