(dp0
S'2015'
p1
(dp2
S'11'
p3
(dp4
S'FGLng'
p5
S'28'
p6
sS'WK'
p7
S'11'
p8
sS'Ret'
p9
S'2'
p10
sS'FGAtt'
p11
g10
sS'Opp'
p12
S'@SD'
p13
sS'G'
p14
S'1'
p15
sS'FGM'
p16
g10
sS'TB'
p17
S'5'
p18
sS'GS'
p19
S'0'
p20
sS'XPM'
p21
S'3'
p22
sS'KOAvg'
p23
S'61.4'
p24
sS'KO'
p25
S'7'
p26
sS'RetAvg'
p27
S'9.5'
p28
sS'Game Date'
p29
S'11/22'
p30
sS'XPPct'
p31
S'75.0'
p32
sS'Player'
p33
S'Cairo Santos'
p34
sS'Result'
p35
S'W33-3'
p36
sS'Year'
p37
S'2015'
p38
sS'XPBlk'
p39
g20
sS'FGPct'
p40
S'100.0'
p41
sS'XPAtt'
p42
S'4'
p43
sS'FGBlk'
p44
g20
ssS'10'
p45
(dp46
g5
S'50'
p47
sg7
S'10'
p48
sg9
g20
sg11
S'6'
p49
sg12
S'@DEN'
p50
sg14
g15
sg16
g18
sg17
g26
sg19
g20
sg21
g10
sg23
S'62.9'
p51
sg25
g26
sg27
S'--'
p52
sg29
S'11/15'
p53
sg31
S'100.0'
p54
sg33
S'Cairo Santos'
p55
sg35
S'W29-13'
p56
sg37
S'2015'
p57
sg39
g20
sg40
S'83.3'
p58
sg42
g10
sg44
g20
ssS'13'
p59
(dp60
g5
g20
sg7
S'13'
p61
sg9
g43
sg11
g20
sg12
S'@OAK'
p62
sg14
g15
sg16
g20
sg17
g10
sg19
g20
sg21
g10
sg23
S'67.7'
p63
sg25
g49
sg27
S'22.0'
p64
sg29
S'12/06'
p65
sg31
S'66.7'
p66
sg33
S'Cairo Santos'
p67
sg35
S'W34-20'
p68
sg37
S'2015'
p69
sg39
g20
sg40
S'--'
p70
sg42
g22
sg44
g20
ssS'12'
p71
(dp72
g5
S'49'
p73
sg7
S'12'
p74
sg9
g26
sg11
g43
sg12
S'BUF'
p75
sg14
g15
sg16
g22
sg17
g20
sg19
g20
sg21
g22
sg23
S'64.0'
p76
sg25
g26
sg27
S'23.4'
p77
sg29
S'11/29'
p78
sg31
S'100.0'
p79
sg33
S'Cairo Santos'
p80
sg35
S'W30-22'
p81
sg37
S'2015'
p82
sg39
g20
sg40
S'75.0'
p83
sg42
g22
sg44
g20
ssS'15'
p84
(dp85
g5
S'53'
p86
sg7
S'15'
p87
sg9
g49
sg11
g10
sg12
S'@BAL'
p88
sg14
g15
sg16
g10
sg17
g15
sg19
g20
sg21
g43
sg23
S'65.6'
p89
sg25
g26
sg27
S'25.5'
p90
sg29
S'12/20'
p91
sg31
S'100.0'
p92
sg33
S'Cairo Santos'
p93
sg35
S'W34-14'
p94
sg37
S'2015'
p95
sg39
g20
sg40
S'100.0'
p96
sg42
g43
sg44
g20
ssS'14'
p97
(dp98
g5
S'40'
p99
sg7
S'14'
p100
sg9
g15
sg11
g10
sg12
S'SD'
p101
sg14
g15
sg16
g15
sg17
g15
sg19
g20
sg21
g15
sg23
S'47.7'
p102
sg25
g22
sg27
S'34.0'
p103
sg29
S'12/13'
p104
sg31
S'100.0'
p105
sg33
S'Cairo Santos'
p106
sg35
S'W10-3'
p107
sg37
S'2015'
p108
sg39
g20
sg40
S'50.0'
p109
sg42
g15
sg44
g20
ssS'17'
p110
(dp111
g5
g20
sg7
S'17'
p112
sg9
g43
sg11
g20
sg12
S'OAK'
p113
sg14
g15
sg16
g20
sg17
g20
sg19
g20
sg21
g22
sg23
S'67.3'
p114
sg25
g43
sg27
S'36.8'
p115
sg29
S'01/03'
p116
sg31
S'100.0'
p117
sg33
S'Cairo Santos'
p118
sg35
S'W23-17'
p119
sg37
S'2015'
p120
sg39
g20
sg40
S'--'
p121
sg42
g22
sg44
g20
ssS'16'
p122
(dp123
g5
S'40'
p124
sg7
S'16'
p125
sg9
g43
sg11
g15
sg12
S'CLE'
p126
sg14
g15
sg16
g15
sg17
g20
sg19
g20
sg21
g10
sg23
S'68.0'
p127
sg25
g43
sg27
S'19.0'
p128
sg29
S'12/27'
p129
sg31
S'100.0'
p130
sg33
S'Cairo Santos'
p131
sg35
S'W17-13'
p132
sg37
S'2015'
p133
sg39
g20
sg40
S'100.0'
p134
sg42
g10
sg44
g20
ssg15
(dp135
g5
S'48'
p136
sg7
g15
sg9
g20
sg11
g22
sg12
S'@HOU'
p137
sg14
g15
sg16
g10
sg17
g49
sg19
g20
sg21
g22
sg23
S'65.0'
p138
sg25
g49
sg27
S'--'
p139
sg29
S'09/13'
p140
sg31
S'100.0'
p141
sg33
S'Cairo Santos'
p142
sg35
S'W27-20'
p143
sg37
S'2015'
p144
sg39
g20
sg40
S'66.7'
p145
sg42
g22
sg44
g20
ssg22
(dp146
g5
g20
sg7
g22
sg9
g10
sg11
g20
sg12
S'@GB'
p147
sg14
g15
sg16
g20
sg17
g10
sg19
g20
sg21
g10
sg23
S'56.6'
p148
sg25
g18
sg27
S'32.0'
p149
sg29
S'09/28'
p150
sg31
S'100.0'
p151
sg33
S'Cairo Santos'
p152
sg35
S'L28-38'
p153
sg37
S'2015'
p154
sg39
g20
sg40
S'--'
p155
sg42
g10
sg44
g20
ssg10
(dp156
g5
S'35'
p157
sg7
g10
sg9
g15
sg11
g15
sg12
S'DEN'
p158
sg14
g15
sg16
g15
sg17
g43
sg19
g20
sg21
g22
sg23
S'63.2'
p159
sg25
g18
sg27
S'21.0'
p160
sg29
S'09/17'
p161
sg31
S'100.0'
p162
sg33
S'Cairo Santos'
p163
sg35
S'L24-31'
p164
sg37
S'2015'
p165
sg39
g20
sg40
S'100.0'
p166
sg42
g22
sg44
g20
ssg18
(dp167
g5
S'35'
p168
sg7
g18
sg9
g20
sg11
g22
sg12
S'CHI'
p169
sg14
g15
sg16
g15
sg17
g43
sg19
g20
sg21
g10
sg23
S'65.0'
p170
sg25
g43
sg27
S'--'
p171
sg29
S'10/11'
p172
sg31
S'100.0'
p173
sg33
S'Cairo Santos'
p174
sg35
S'L17-18'
p175
sg37
S'2015'
p176
sg39
g20
sg40
S'33.3'
p177
sg42
g10
sg44
g15
ssg43
(dp178
g5
S'51'
p179
sg7
g43
sg9
g22
sg11
g26
sg12
S'@CIN'
p180
sg14
g15
sg16
g26
sg17
g22
sg19
g20
sg21
g20
sg23
S'57.5'
p181
sg25
S'8'
p182
sg27
S'17.7'
p183
sg29
S'10/04'
p184
sg31
S'--'
p185
sg33
S'Cairo Santos'
p186
sg35
S'L21-36'
p187
sg37
S'2015'
p188
sg39
g20
sg40
S'100.0'
p189
sg42
g20
sg44
g20
ssg26
(dp190
g5
S'30'
p191
sg7
g26
sg9
g43
sg11
g43
sg12
S'PIT'
p192
sg14
g15
sg16
g22
sg17
g10
sg19
g20
sg21
g10
sg23
S'68.3'
p193
sg25
g49
sg27
S'29.0'
p194
sg29
S'10/25'
p195
sg31
S'100.0'
p196
sg33
S'Cairo Santos'
p197
sg35
S'W23-13'
p198
sg37
S'2015'
p199
sg39
g20
sg40
S'75.0'
p200
sg42
g10
sg44
g20
ssg49
(dp201
g5
S'48'
p202
sg7
g49
sg9
g10
sg11
g15
sg12
S'@MIN'
p203
sg14
g15
sg16
g15
sg17
g15
sg19
g20
sg21
g15
sg23
S'68.0'
p204
sg25
g22
sg27
S'25.5'
p205
sg29
S'10/18'
p206
sg31
S'100.0'
p207
sg33
S'Cairo Santos'
p208
sg35
S'L10-16'
p209
sg37
S'2015'
p210
sg39
g20
sg40
S'100.0'
p211
sg42
g15
sg44
g20
ssS'9'
p212
(dp213
g5
S''
p214
sg7
g212
sg9
g214
sg11
g214
sg12
g214
sg14
g214
sg16
g214
sg17
g214
sg19
g214
sg21
g214
sg23
g214
sg25
g214
sg27
g214
sg29
S'Bye'
p215
sg31
g214
sg33
S'Cairo Santos'
p216
sg35
g214
sg37
S'2015'
p217
sg39
g214
sg40
g214
sg42
g214
sg44
g214
ssg182
(dp218
g5
S'33'
p219
sg7
g182
sg9
g49
sg11
g15
sg12
S'DET'
p220
sg14
g15
sg16
g15
sg17
g10
sg19
g20
sg21
g49
sg23
S'69.5'
p221
sg25
g182
sg27
S'25.2'
p222
sg29
S'11/01'
p223
sg31
S'100.0'
p224
sg33
S'Cairo Santos'
p225
sg35
S'W45-10'
p226
sg37
S'2015'
p227
sg39
g20
sg40
S'100.0'
p228
sg42
g49
sg44
g20
sssS'2014'
p229
(dp230
g3
(dp231
g5
S'23'
p232
sg7
S'11'
p233
sg9
g18
sg11
g15
sg12
S'SEA'
p234
sg14
g15
sg16
g15
sg17
g20
sg19
g20
sg21
g22
sg23
S'61.6'
p235
sg25
g18
sg27
S'15.8'
p236
sg29
S'11/16'
p237
sg31
S'100.0'
p238
sg33
S'Cairo Santos'
p239
sg35
S'W24-20'
p240
sg37
S'2014'
p241
sg39
g20
sg40
S'100.0'
p242
sg42
g22
sg44
g20
ssg45
(dp243
g5
S'36'
p244
sg7
S'10'
p245
sg9
g43
sg11
g15
sg12
S'@BUF'
p246
sg14
g15
sg16
g15
sg17
g20
sg19
g20
sg21
g10
sg23
S'62.3'
p247
sg25
g43
sg27
S'21.0'
p248
sg29
S'11/09'
p249
sg31
S'100.0'
p250
sg33
S'Cairo Santos'
p251
sg35
S'W17-13'
p252
sg37
S'2014'
p253
sg39
g20
sg40
S'100.0'
p254
sg42
g10
sg44
g20
ssg59
(dp255
g5
S'39'
p256
sg7
S'13'
p257
sg9
g43
sg11
g15
sg12
S'DEN'
p258
sg14
g15
sg16
g15
sg17
g20
sg19
g20
sg21
g15
sg23
S'62.3'
p259
sg25
g43
sg27
S'19.0'
p260
sg29
S'11/30'
p261
sg31
S'100.0'
p262
sg33
S'Cairo Santos'
p263
sg35
S'L16-29'
p264
sg37
S'2014'
p265
sg39
g20
sg40
S'100.0'
p266
sg42
g15
sg44
g20
ssg71
(dp267
g5
S'25'
p268
sg7
S'12'
p269
sg9
g43
sg11
g10
sg12
S'@OAK'
p270
sg14
g15
sg16
g10
sg17
g15
sg19
g20
sg21
g10
sg23
S'62.8'
p271
sg25
g18
sg27
S'20.8'
p272
sg29
S'11/20'
p273
sg31
S'100.0'
p274
sg33
S'Cairo Santos'
p275
sg35
S'L20-24'
p276
sg37
S'2014'
p277
sg39
g20
sg40
S'100.0'
p278
sg42
g10
sg44
g20
ssg84
(dp279
g5
S'41'
p280
sg7
S'15'
p281
sg9
g22
sg11
g22
sg12
S'OAK'
p282
sg14
g15
sg16
g15
sg17
g22
sg19
g20
sg21
g43
sg23
S'65.7'
p283
sg25
g49
sg27
S'24.3'
p284
sg29
S'12/14'
p285
sg31
S'100.0'
p286
sg33
S'Cairo Santos'
p287
sg35
S'W31-13'
p288
sg37
S'2014'
p289
sg39
g20
sg40
S'33.3'
p290
sg42
g43
sg44
g20
ssg97
(dp291
g5
g20
sg7
S'14'
p292
sg9
g10
sg11
g20
sg12
S'@ARI'
p293
sg14
g15
sg16
g20
sg17
g15
sg19
g20
sg21
g10
sg23
S'67.7'
p294
sg25
g22
sg27
S'32.0'
p295
sg29
S'12/07'
p296
sg31
S'100.0'
p297
sg33
S'Cairo Santos'
p298
sg35
S'L14-17'
p299
sg37
S'2014'
p300
sg39
g20
sg40
S'--'
p301
sg42
g10
sg44
g20
ssg110
(dp302
g5
S'43'
p303
sg7
S'17'
p304
sg9
g43
sg11
g18
sg12
S'SD'
p305
sg14
g15
sg16
g43
sg17
g10
sg19
g20
sg21
g15
sg23
S'61.5'
p306
sg25
g49
sg27
S'19.8'
p307
sg29
S'12/28'
p308
sg31
S'100.0'
p309
sg33
S'Cairo Santos'
p310
sg35
S'W19-7'
p311
sg37
S'2014'
p312
sg39
g20
sg40
S'80.0'
p313
sg42
g15
sg44
g20
ssg122
(dp314
g5
S'43'
p315
sg7
S'16'
p316
sg9
g22
sg11
g43
sg12
S'@PIT'
p317
sg14
g15
sg16
g43
sg17
g15
sg19
g20
sg21
g20
sg23
S'55.2'
p318
sg25
g18
sg27
S'23.3'
p319
sg29
S'12/21'
p320
sg31
S'--'
p321
sg33
S'Cairo Santos'
p322
sg35
S'L12-20'
p323
sg37
S'2014'
p324
sg39
g20
sg40
S'100.0'
p325
sg42
g20
sg44
g20
ssg15
(dp326
g5
S'35'
p327
sg7
g15
sg9
g15
sg11
g10
sg12
S'TEN'
p328
sg14
g15
sg16
g15
sg17
g10
sg19
g20
sg21
g15
sg23
S'66.7'
p329
sg25
g22
sg27
S'22.0'
p330
sg29
S'09/07'
p331
sg31
S'100.0'
p332
sg33
S'Cairo Santos'
p333
sg35
S'L10-26'
p334
sg37
S'2014'
p335
sg39
g20
sg40
S'50.0'
p336
sg42
g15
sg44
g20
ssg22
(dp337
g5
g20
sg7
g22
sg9
g49
sg11
g20
sg12
S'@MIA'
p338
sg14
g15
sg16
g20
sg17
g20
sg19
g20
sg21
g43
sg23
S'64.0'
p339
sg25
g49
sg27
S'32.8'
p340
sg29
S'09/21'
p341
sg31
S'100.0'
p342
sg33
S'Cairo Santos'
p343
sg35
S'W34-15'
p344
sg37
S'2014'
p345
sg39
g20
sg40
S'--'
p346
sg42
g43
sg44
g20
ssg10
(dp347
g5
S'45'
p348
sg7
g10
sg9
g15
sg11
g10
sg12
S'@DEN'
p349
sg14
g15
sg16
g15
sg17
g22
sg19
g20
sg21
g10
sg23
S'65.0'
p350
sg25
g43
sg27
S'54.0'
p351
sg29
S'09/14'
p352
sg31
S'100.0'
p353
sg33
S'Cairo Santos'
p354
sg35
S'L17-24'
p355
sg37
S'2014'
p356
sg39
g20
sg40
S'50.0'
p357
sg42
g10
sg44
g20
ssg18
(dp358
g5
S'42'
p359
sg7
g18
sg9
g43
sg11
g15
sg12
S'@SF'
p360
sg14
g15
sg16
g15
sg17
g20
sg19
g20
sg21
g10
sg23
S'69.5'
p361
sg25
g43
sg27
S'27.0'
p362
sg29
S'10/05'
p363
sg31
S'100.0'
p364
sg33
S'Cairo Santos'
p365
sg35
S'L17-22'
p366
sg37
S'2014'
p367
sg39
g20
sg40
S'100.0'
p368
sg42
g10
sg44
g20
ssg43
(dp369
g5
S'31'
p370
sg7
g43
sg9
g10
sg11
g10
sg12
S'NE'
p371
sg14
g15
sg16
g10
sg17
g18
sg19
g20
sg21
g18
sg23
S'66.7'
p372
sg25
g26
sg27
S'22.5'
p373
sg29
S'09/29'
p374
sg31
S'100.0'
p375
sg33
S'Cairo Santos'
p376
sg35
S'W41-14'
p377
sg37
S'2014'
p378
sg39
g20
sg40
S'100.0'
p379
sg42
g18
sg44
g20
ssg26
(dp380
g5
S'48'
p381
sg7
g26
sg9
g22
sg11
g22
sg12
S'@SD'
p382
sg14
g15
sg16
g22
sg17
g22
sg19
g20
sg21
g10
sg23
S'65.5'
p383
sg25
g49
sg27
S'19.3'
p384
sg29
S'10/19'
p385
sg31
S'100.0'
p386
sg33
S'Cairo Santos'
p387
sg35
S'W23-20'
p388
sg37
S'2014'
p389
sg39
g20
sg40
S'100.0'
p390
sg42
g10
sg44
g20
ssg49
(dp391
g5
g214
sg7
g49
sg9
g214
sg11
g214
sg12
g214
sg14
g214
sg16
g214
sg17
g214
sg19
g214
sg21
g214
sg23
g214
sg25
g214
sg27
g214
sg29
S'Bye'
p392
sg31
g214
sg33
S'Cairo Santos'
p393
sg35
g214
sg37
S'2014'
p394
sg39
g214
sg40
g214
sg42
g214
sg44
g214
ssg212
(dp395
g5
S'19'
p396
sg7
g212
sg9
g43
sg11
g15
sg12
S'NYJ'
p397
sg14
g15
sg16
g15
sg17
g15
sg19
g20
sg21
g22
sg23
S'57.2'
p398
sg25
g18
sg27
S'29.5'
p399
sg29
S'11/02'
p400
sg31
S'100.0'
p401
sg33
S'Cairo Santos'
p402
sg35
S'W24-10'
p403
sg37
S'2014'
p404
sg39
g20
sg40
S'100.0'
p405
sg42
g22
sg44
g20
ssg182
(dp406
g5
S'53'
p407
sg7
g182
sg9
g22
sg11
g10
sg12
S'STL'
p408
sg14
g15
sg16
g10
sg17
g43
sg19
g20
sg21
g43
sg23
S'65.0'
p409
sg25
g26
sg27
S'22.7'
p410
sg29
S'10/26'
p411
sg31
S'100.0'
p412
sg33
S'Cairo Santos'
p413
sg35
S'W34-7'
p414
sg37
S'2014'
p415
sg39
g20
sg40
S'100.0'
p416
sg42
g43
sg44
g20
sss.