(dp0
S'2015'
p1
(dp2
S'11'
p3
(dp4
S'FGLng'
p5
S'43'
p6
sS'WK'
p7
S'11'
p8
sS'Ret'
p9
S'1'
p10
sS'FGAtt'
p11
g10
sS'Opp'
p12
S'TB'
p13
sS'G'
p14
g10
sS'FGM'
p15
g10
sS'TB'
p16
S'2'
p17
sS'GS'
p18
S'0'
p19
sS'XPM'
p20
g17
sS'KOAvg'
p21
S'52.0'
p22
sS'KO'
p23
S'4'
p24
sS'RetAvg'
p25
S'20.0'
p26
sS'Game Date'
p27
S'11/22'
p28
sS'XPPct'
p29
S'100.0'
p30
sS'Player'
p31
S'Caleb Sturgis'
p32
sS'Result'
p33
S'L17-45'
p34
sS'Year'
p35
S'2015'
p36
sS'XPBlk'
p37
g19
sS'FGPct'
p38
S'100.0'
p39
sS'XPAtt'
p40
g17
sS'FGBlk'
p41
g19
ssS'10'
p42
(dp43
g5
S'37'
p44
sg7
S'10'
p45
sg9
g17
sg11
g17
sg12
S'MIA'
p46
sg14
g10
sg15
g10
sg16
g17
sg18
g19
sg20
g17
sg21
S'67.3'
p47
sg23
g24
sg25
S'21.0'
p48
sg27
S'11/15'
p49
sg29
S'100.0'
p50
sg31
S'Caleb Sturgis'
p51
sg33
S'L19-20'
p52
sg35
S'2015'
p53
sg37
g19
sg38
S'50.0'
p54
sg40
g17
sg41
g19
ssS'13'
p55
(dp56
g5
g19
sg7
S'13'
p57
sg9
S'5'
p58
sg11
g19
sg12
S'@NE'
p59
sg14
g10
sg15
g19
sg16
g10
sg18
g19
sg20
g58
sg21
S'60.0'
p60
sg23
S'6'
p61
sg25
S'13.6'
p62
sg27
S'12/06'
p63
sg29
S'100.0'
p64
sg31
S'Caleb Sturgis'
p65
sg33
S'W35-28'
p66
sg35
S'2015'
p67
sg37
g19
sg38
S'--'
p68
sg40
g58
sg41
g19
ssS'12'
p69
(dp70
g5
g19
sg7
S'12'
p71
sg9
g10
sg11
g10
sg12
S'@DET'
p72
sg14
g10
sg15
g19
sg16
g17
sg18
g19
sg20
g17
sg21
S'66.7'
p73
sg23
S'3'
p74
sg25
S'25.0'
p75
sg27
S'11/26'
p76
sg29
S'100.0'
p77
sg31
S'Caleb Sturgis'
p78
sg33
S'L14-45'
p79
sg35
S'2015'
p80
sg37
g19
sg38
S'0.0'
p81
sg40
g17
sg41
g19
ssS'15'
p82
(dp83
g5
S'36'
p84
sg7
S'15'
p85
sg9
g74
sg11
g10
sg12
S'ARI'
p86
sg14
g10
sg15
g10
sg16
g10
sg18
g19
sg20
g17
sg21
S'65.3'
p87
sg23
g24
sg25
S'20.7'
p88
sg27
S'12/20'
p89
sg29
S'100.0'
p90
sg31
S'Caleb Sturgis'
p91
sg33
S'L17-40'
p92
sg35
S'2015'
p93
sg37
g19
sg38
S'100.0'
p94
sg40
g17
sg41
g19
ssS'14'
p95
(dp96
g5
S'45'
p97
sg7
S'14'
p98
sg9
g10
sg11
g74
sg12
S'BUF'
p99
sg14
g10
sg15
g74
sg16
g58
sg18
g19
sg20
g17
sg21
S'60.5'
p100
sg23
g61
sg25
S'5.0'
p101
sg27
S'12/13'
p102
sg29
S'100.0'
p103
sg31
S'Caleb Sturgis'
p104
sg33
S'W23-20'
p105
sg35
S'2015'
p106
sg37
g19
sg38
S'100.0'
p107
sg40
g17
sg41
g19
ssS'17'
p108
(dp109
g5
g19
sg7
S'17'
p110
sg9
g19
sg11
g19
sg12
S'@NYG'
p111
sg14
g10
sg15
g19
sg16
g61
sg18
g19
sg20
g58
sg21
S'65.0'
p112
sg23
g61
sg25
S'--'
p113
sg27
S'01/03'
p114
sg29
S'100.0'
p115
sg31
S'Caleb Sturgis'
p116
sg33
S'W35-30'
p117
sg35
S'2015'
p118
sg37
g19
sg38
S'--'
p119
sg40
g58
sg41
g19
ssS'16'
p120
(dp121
g5
S'34'
p122
sg7
S'16'
p123
sg9
g10
sg11
g10
sg12
S'WAS'
p124
sg14
g10
sg15
g10
sg16
g74
sg18
g19
sg20
g74
sg21
S'56.2'
p125
sg23
g58
sg25
S'19.0'
p126
sg27
S'12/26'
p127
sg29
S'100.0'
p128
sg31
S'Caleb Sturgis'
p129
sg33
S'L24-38'
p130
sg35
S'2015'
p131
sg37
g19
sg38
S'100.0'
p132
sg40
g74
sg41
g19
ssg58
(dp133
g5
S'41'
p134
sg7
g58
sg9
g24
sg11
g24
sg12
S'NO'
p135
sg14
g10
sg15
g24
sg16
g58
sg18
g19
sg20
g74
sg21
S'64.1'
p136
sg23
S'9'
p137
sg25
S'21.3'
p138
sg27
S'10/11'
p139
sg29
S'75.0'
p140
sg31
S'Caleb Sturgis'
p141
sg33
S'W39-17'
p142
sg35
S'2015'
p143
sg37
g19
sg38
S'100.0'
p144
sg40
g24
sg41
g19
ssg24
(dp145
g5
g19
sg7
g24
sg9
g10
sg11
g10
sg12
S'@WAS'
p146
sg14
g10
sg15
g19
sg16
g74
sg18
g19
sg20
g17
sg21
S'65.8'
p147
sg23
g24
sg25
S'22.0'
p148
sg27
S'10/04'
p149
sg29
S'66.7'
p150
sg31
S'Caleb Sturgis'
p151
sg33
S'L20-23'
p152
sg35
S'2015'
p153
sg37
g19
sg38
S'0.0'
p154
sg40
g74
sg41
g19
ssS'7'
p155
(dp156
g5
S'52'
p157
sg7
g155
sg9
g17
sg11
g24
sg12
S'@CAR'
p158
sg14
g10
sg15
g74
sg16
g17
sg18
g19
sg20
g10
sg21
S'59.0'
p159
sg23
g58
sg25
S'13.5'
p160
sg27
S'10/25'
p161
sg29
S'100.0'
p162
sg31
S'Caleb Sturgis'
p163
sg33
S'L16-27'
p164
sg35
S'2015'
p165
sg37
g19
sg38
S'75.0'
p166
sg40
g10
sg41
g19
ssg61
(dp167
g5
S'39'
p168
sg7
g61
sg9
g24
sg11
g17
sg12
S'NYG'
p169
sg14
g10
sg15
g17
sg16
g17
sg18
g19
sg20
g74
sg21
S'60.5'
p170
sg23
g61
sg25
S'19.8'
p171
sg27
S'10/19'
p172
sg29
S'100.0'
p173
sg31
S'Caleb Sturgis'
p174
sg33
S'W27-7'
p175
sg35
S'2015'
p176
sg37
g19
sg38
S'100.0'
p177
sg40
g74
sg41
g19
ssg137
(dp178
g5
S'53'
p179
sg7
g137
sg9
g10
sg11
g17
sg12
S'@DAL'
p180
sg14
g10
sg15
g17
sg16
g58
sg18
g19
sg20
g74
sg21
S'63.0'
p181
sg23
g61
sg25
S'79.0'
p182
sg27
S'11/08'
p183
sg29
S'100.0'
p184
sg31
S'Caleb Sturgis'
p185
sg33
S'W33-27'
p186
sg35
S'2015'
p187
sg37
g19
sg38
S'100.0'
p188
sg40
g74
sg41
g19
ssS'8'
p189
(dp190
g5
S''
p191
sg7
g189
sg9
g191
sg11
g191
sg12
g191
sg14
g191
sg15
g191
sg16
g191
sg18
g191
sg20
g191
sg21
g191
sg23
g191
sg25
g191
sg27
S'Bye'
p192
sg29
g191
sg31
S'Caleb Sturgis'
p193
sg33
g191
sg35
S'2015'
p194
sg37
g191
sg38
g191
sg40
g191
sg41
g191
sssS'2014'
p195
(dp196
g3
(dp197
g5
S'38'
p198
sg7
S'11'
p199
sg9
g74
sg11
g17
sg12
S'BUF'
p200
sg14
g10
sg15
g17
sg16
g17
sg18
g19
sg20
g17
sg21
S'66.2'
p201
sg23
g58
sg25
S'25.0'
p202
sg27
S'11/13'
p203
sg29
S'100.0'
p204
sg31
S'Caleb Sturgis'
p205
sg33
S'W22-9'
p206
sg35
S'2014'
p207
sg37
g19
sg38
S'100.0'
p208
sg40
g17
sg41
g19
ssg42
(dp209
g5
S'50'
p210
sg7
S'10'
p211
sg9
g24
sg11
g74
sg12
S'@DET'
p212
sg14
g10
sg15
g74
sg16
g10
sg18
g19
sg20
g10
sg21
S'69.0'
p213
sg23
g58
sg25
S'25.5'
p214
sg27
S'11/09'
p215
sg29
S'100.0'
p216
sg31
S'Caleb Sturgis'
p217
sg33
S'L16-20'
p218
sg35
S'2014'
p219
sg37
g19
sg38
S'100.0'
p220
sg40
g10
sg41
g19
ssg55
(dp221
g5
S'44'
p222
sg7
S'13'
p223
sg9
g17
sg11
g24
sg12
S'@NYJ'
p224
sg14
g10
sg15
g74
sg16
g10
sg18
g19
sg20
g10
sg21
S'53.8'
p225
sg23
g24
sg25
S'16.5'
p226
sg27
S'12/01'
p227
sg29
S'100.0'
p228
sg31
S'Caleb Sturgis'
p229
sg33
S'W16-13'
p230
sg35
S'2014'
p231
sg37
g19
sg38
S'75.0'
p232
sg40
g10
sg41
g19
ssg69
(dp233
g5
g19
sg7
S'12'
p234
sg9
g74
sg11
g19
sg12
S'@DEN'
p235
sg14
g10
sg15
g19
sg16
g17
sg18
g19
sg20
g24
sg21
S'57.3'
p236
sg23
g61
sg25
S'33.3'
p237
sg27
S'11/23'
p238
sg29
S'100.0'
p239
sg31
S'Caleb Sturgis'
p240
sg33
S'L36-39'
p241
sg35
S'2014'
p242
sg37
g19
sg38
S'--'
p243
sg40
g24
sg41
g19
ssg82
(dp244
g5
S'53'
p245
sg7
S'15'
p246
sg9
g74
sg11
g74
sg12
S'@NE'
p247
sg14
g10
sg15
g17
sg16
g10
sg18
g19
sg20
g10
sg21
S'58.3'
p248
sg23
g24
sg25
S'14.3'
p249
sg27
S'12/14'
p250
sg29
S'100.0'
p251
sg31
S'Caleb Sturgis'
p252
sg33
S'L13-41'
p253
sg35
S'2014'
p254
sg37
g19
sg38
S'66.7'
p255
sg40
g10
sg41
g10
ssg95
(dp256
g5
S'46'
p257
sg7
S'14'
p258
sg9
g19
sg11
g17
sg12
S'BAL'
p259
sg14
g10
sg15
g17
sg16
g24
sg18
g19
sg20
g10
sg21
S'65.0'
p260
sg23
g24
sg25
S'--'
p261
sg27
S'12/07'
p262
sg29
S'100.0'
p263
sg31
S'Caleb Sturgis'
p264
sg33
S'L13-28'
p265
sg35
S'2014'
p266
sg37
g19
sg38
S'100.0'
p267
sg40
g10
sg41
g19
ssg108
(dp268
g5
S'37'
p269
sg7
S'17'
p270
sg9
g24
sg11
g17
sg12
S'NYJ'
p271
sg14
g10
sg15
g10
sg16
g10
sg18
g19
sg20
g74
sg21
S'64.2'
p272
sg23
g58
sg25
S'36.3'
p273
sg27
S'12/28'
p274
sg29
S'100.0'
p275
sg31
S'Caleb Sturgis'
p276
sg33
S'L24-37'
p277
sg35
S'2014'
p278
sg37
g19
sg38
S'50.0'
p279
sg40
g74
sg41
g19
ssg120
(dp280
g5
g19
sg7
S'16'
p281
sg9
g24
sg11
g10
sg12
S'MIN'
p282
sg14
g10
sg15
g19
sg16
g17
sg18
g19
sg20
g58
sg21
S'59.0'
p283
sg23
g61
sg25
S'18.3'
p284
sg27
S'12/21'
p285
sg29
S'100.0'
p286
sg31
S'Caleb Sturgis'
p287
sg33
S'W37-35'
p288
sg35
S'2014'
p289
sg37
g19
sg38
S'0.0'
p290
sg40
g58
sg41
g19
ssg10
(dp291
g5
S'38'
p292
sg7
g10
sg9
g74
sg11
g24
sg12
S'NE'
p293
sg14
g10
sg15
g24
sg16
g58
sg18
g19
sg20
g74
sg21
S'65.5'
p294
sg23
g189
sg25
S'25.7'
p295
sg27
S'09/07'
p296
sg29
S'100.0'
p297
sg31
S'Caleb Sturgis'
p298
sg33
S'W33-20'
p299
sg35
S'2014'
p300
sg37
g19
sg38
S'100.0'
p301
sg40
g74
sg41
g19
ssg74
(dp302
g5
S'51'
p303
sg7
g74
sg9
g74
sg11
g74
sg12
S'KC'
p304
sg14
g10
sg15
g17
sg16
g19
sg18
g19
sg20
g10
sg21
S'69.7'
p305
sg23
g74
sg25
S'21.7'
p306
sg27
S'09/21'
p307
sg29
S'100.0'
p308
sg31
S'Caleb Sturgis'
p309
sg33
S'L15-34'
p310
sg35
S'2014'
p311
sg37
g19
sg38
S'66.7'
p312
sg40
g10
sg41
g19
ssg17
(dp313
g5
S'34'
p314
sg7
g17
sg9
g74
sg11
g10
sg12
S'@BUF'
p315
sg14
g10
sg15
g10
sg16
g19
sg18
g19
sg20
g10
sg21
S'64.7'
p316
sg23
g74
sg25
S'45.3'
p317
sg27
S'09/14'
p318
sg29
S'100.0'
p319
sg31
S'Caleb Sturgis'
p320
sg33
S'L10-29'
p321
sg35
S'2014'
p322
sg37
g19
sg38
S'100.0'
p323
sg40
g10
sg41
g19
ssg58
(dp324
g5
g191
sg7
g58
sg9
g191
sg11
g191
sg12
g191
sg14
g191
sg15
g191
sg16
g191
sg18
g191
sg20
g191
sg21
g191
sg23
g191
sg25
g191
sg27
S'Bye'
p325
sg29
g191
sg31
S'Caleb Sturgis'
p326
sg33
g191
sg35
S'2014'
p327
sg37
g191
sg38
g191
sg40
g191
sg41
g191
ssg24
(dp328
g5
S'41'
p329
sg7
g24
sg9
g58
sg11
g10
sg12
S'@OAK'
p330
sg14
g10
sg15
g10
sg16
g17
sg18
g19
sg20
g58
sg21
S'67.1'
p331
sg23
g155
sg25
S'22.4'
p332
sg27
S'09/28'
p333
sg29
S'100.0'
p334
sg31
S'Caleb Sturgis'
p335
sg33
S'W38-14'
p336
sg35
S'2014'
p337
sg37
g19
sg38
S'100.0'
p338
sg40
g58
sg41
g19
ssg155
(dp339
g5
S'33'
p340
sg7
g155
sg9
g17
sg11
g24
sg12
S'@CHI'
p341
sg14
g10
sg15
g17
sg16
g24
sg18
g19
sg20
g74
sg21
S'65.8'
p342
sg23
g61
sg25
S'37.5'
p343
sg27
S'10/19'
p344
sg29
S'100.0'
p345
sg31
S'Caleb Sturgis'
p346
sg33
S'W27-14'
p347
sg35
S'2014'
p348
sg37
g19
sg38
S'50.0'
p349
sg40
g74
sg41
g10
ssg61
(dp350
g5
S'48'
p351
sg7
g61
sg9
g10
sg11
g10
sg12
S'GB'
p352
sg14
g10
sg15
g10
sg16
g24
sg18
g19
sg20
g74
sg21
S'66.6'
p353
sg23
g58
sg25
S'33.0'
p354
sg27
S'10/12'
p355
sg29
S'100.0'
p356
sg31
S'Caleb Sturgis'
p357
sg33
S'L24-27'
p358
sg35
S'2014'
p359
sg37
g19
sg38
S'100.0'
p360
sg40
g74
sg41
g19
ssg137
(dp361
g5
S'26'
p362
sg7
g137
sg9
g24
sg11
g24
sg12
S'SD'
p363
sg14
g10
sg15
g74
sg16
g24
sg18
g19
sg20
g24
sg21
S'68.4'
p364
sg23
g189
sg25
S'29.0'
p365
sg27
S'11/02'
p366
sg29
S'100.0'
p367
sg31
S'Caleb Sturgis'
p368
sg33
S'W37-0'
p369
sg35
S'2014'
p370
sg37
g19
sg38
S'75.0'
p371
sg40
g24
sg41
g19
ssg189
(dp372
g5
S'43'
p373
sg7
g189
sg9
g17
sg11
g17
sg12
S'@JAC'
p374
sg14
g10
sg15
g17
sg16
g24
sg18
g19
sg20
g74
sg21
S'66.8'
p375
sg23
g61
sg25
S'26.0'
p376
sg27
S'10/26'
p377
sg29
S'100.0'
p378
sg31
S'Caleb Sturgis'
p379
sg33
S'W27-13'
p380
sg35
S'2014'
p381
sg37
g19
sg38
S'100.0'
p382
sg40
g74
sg41
g19
sssS'2013'
p383
(dp384
g3
(dp385
g5
S'37'
p386
sg7
S'11'
p387
sg9
g17
sg11
g17
sg12
S'SD'
p388
sg14
g10
sg15
g17
sg16
g74
sg18
g19
sg20
g17
sg21
S'70.8'
p389
sg23
g58
sg25
S'21.5'
p390
sg27
S'11/17'
p391
sg29
S'100.0'
p392
sg31
S'Caleb Sturgis'
p393
sg33
S'W20-16'
p394
sg35
S'2013'
p395
sg37
g19
sg38
S'100.0'
p396
sg40
g17
sg41
g19
ssg42
(dp397
g5
S'40'
p398
sg7
S'10'
p399
sg9
g17
sg11
g17
sg12
S'@TB'
p400
sg14
g10
sg15
g17
sg16
g74
sg18
g19
sg20
g10
sg21
S'64.8'
p401
sg23
g58
sg25
S'21.0'
p402
sg27
S'11/11'
p403
sg29
S'100.0'
p404
sg31
S'Caleb Sturgis'
p405
sg33
S'L19-22'
p406
sg35
S'2013'
p407
sg37
g19
sg38
S'100.0'
p408
sg40
g10
sg41
g19
ssg55
(dp409
g5
S'43'
p410
sg7
S'13'
p411
sg9
g58
sg11
g24
sg12
S'@NYJ'
p412
sg14
g10
sg15
g74
sg16
g10
sg18
g19
sg20
g17
sg21
S'64.2'
p413
sg23
g61
sg25
S'27.2'
p414
sg27
S'12/01'
p415
sg29
S'100.0'
p416
sg31
S'Caleb Sturgis'
p417
sg33
S'W23-3'
p418
sg35
S'2013'
p419
sg37
g19
sg38
S'75.0'
p420
sg40
g17
sg41
g19
ssg69
(dp421
g5
S'47'
p422
sg7
S'12'
p423
sg9
g10
sg11
g24
sg12
S'CAR'
p424
sg14
g10
sg15
g74
sg16
g24
sg18
g19
sg20
g10
sg21
S'66.8'
p425
sg23
g58
sg25
S'17.0'
p426
sg27
S'11/24'
p427
sg29
S'100.0'
p428
sg31
S'Caleb Sturgis'
p429
sg33
S'L16-20'
p430
sg35
S'2013'
p431
sg37
g19
sg38
S'75.0'
p432
sg40
g10
sg41
g19
ssg82
(dp433
g5
S'32'
p434
sg7
S'15'
p435
sg9
g10
sg11
g10
sg12
S'NE'
p436
sg14
g10
sg15
g10
sg16
g24
sg18
g19
sg20
g74
sg21
S'72.2'
p437
sg23
g58
sg25
S'19.0'
p438
sg27
S'12/15'
p439
sg29
S'100.0'
p440
sg31
S'Caleb Sturgis'
p441
sg33
S'W24-20'
p442
sg35
S'2013'
p443
sg37
g19
sg38
S'100.0'
p444
sg40
g74
sg41
g19
ssg95
(dp445
g5
S'30'
p446
sg7
S'14'
p447
sg9
g58
sg11
g74
sg12
S'@PIT'
p448
sg14
g10
sg15
g17
sg16
g17
sg18
g19
sg20
g24
sg21
S'63.4'
p449
sg23
g155
sg25
S'20.6'
p450
sg27
S'12/08'
p451
sg29
S'100.0'
p452
sg31
S'Caleb Sturgis'
p453
sg33
S'W34-28'
p454
sg35
S'2013'
p455
sg37
g19
sg38
S'66.7'
p456
sg40
g24
sg41
g19
ssg108
(dp457
g5
g19
sg7
S'17'
p458
sg9
g10
sg11
g19
sg12
S'NYJ'
p459
sg14
g10
sg15
g19
sg16
g10
sg18
g19
sg20
g10
sg21
S'67.5'
p460
sg23
g17
sg25
S'16.0'
p461
sg27
S'12/29'
p462
sg29
S'100.0'
p463
sg31
S'Caleb Sturgis'
p464
sg33
S'L7-20'
p465
sg35
S'2013'
p466
sg37
g19
sg38
S'--'
p467
sg40
g10
sg41
g19
ssg120
(dp468
g5
S'--'
p469
sg7
S'16'
p470
sg9
g19
sg11
S'--'
p471
sg12
S'@BUF'
p472
sg14
g10
sg15
S'--'
p473
sg16
g10
sg18
g19
sg20
S'--'
p474
sg21
S'65.0'
p475
sg23
g10
sg25
S'--'
p476
sg27
S'12/22'
p477
sg29
S'--'
p478
sg31
S'Caleb Sturgis'
p479
sg33
S'L0-19'
p480
sg35
S'2013'
p481
sg37
S'--'
p482
sg38
S'--'
p483
sg40
S'--'
p484
sg41
S'--'
p485
ssg10
(dp486
g5
S'49'
p487
sg7
g10
sg9
g24
sg11
g74
sg12
S'@CLE'
p488
sg14
g10
sg15
g74
sg16
g17
sg18
g19
sg20
g17
sg21
S'70.2'
p489
sg23
g61
sg25
S'25.8'
p490
sg27
S'09/08'
p491
sg29
S'100.0'
p492
sg31
S'Caleb Sturgis'
p493
sg33
S'W23-10'
p494
sg35
S'2013'
p495
sg37
g19
sg38
S'100.0'
p496
sg40
g17
sg41
g19
ssg74
(dp497
g5
S'50'
p498
sg7
g74
sg9
g19
sg11
g17
sg12
S'ATL'
p499
sg14
g10
sg15
g17
sg16
g58
sg18
g19
sg20
g74
sg21
S'67.8'
p500
sg23
g58
sg25
S'--'
p501
sg27
S'09/22'
p502
sg29
S'100.0'
p503
sg31
S'Caleb Sturgis'
p504
sg33
S'W27-23'
p505
sg35
S'2013'
p506
sg37
g19
sg38
S'100.0'
p507
sg40
g74
sg41
g19
ssg17
(dp508
g5
S'54'
p509
sg7
g17
sg9
g10
sg11
g10
sg12
S'@IND'
p510
sg14
g10
sg15
g10
sg16
g74
sg18
g19
sg20
g74
sg21
S'74.0'
p511
sg23
g24
sg25
S'28.0'
p512
sg27
S'09/15'
p513
sg29
S'100.0'
p514
sg31
S'Caleb Sturgis'
p515
sg33
S'W24-20'
p516
sg35
S'2013'
p517
sg37
g19
sg38
S'100.0'
p518
sg40
g74
sg41
g19
ssg58
(dp519
g5
S'48'
p520
sg7
g58
sg9
g24
sg11
g24
sg12
S'BAL'
p521
sg14
g10
sg15
g74
sg16
g10
sg18
g19
sg20
g17
sg21
S'60.2'
p522
sg23
g61
sg25
S'32.0'
p523
sg27
S'10/06'
p524
sg29
S'100.0'
p525
sg31
S'Caleb Sturgis'
p526
sg33
S'L23-26'
p527
sg35
S'2013'
p528
sg37
g19
sg38
S'75.0'
p529
sg40
g17
sg41
g19
ssg24
(dp530
g5
S'34'
p531
sg7
g24
sg9
g17
sg11
g10
sg12
S'@NO'
p532
sg14
g10
sg15
g10
sg16
g17
sg18
g19
sg20
g17
sg21
S'66.5'
p533
sg23
g24
sg25
S'18.0'
p534
sg27
S'09/30'
p535
sg29
S'100.0'
p536
sg31
S'Caleb Sturgis'
p537
sg33
S'L17-38'
p538
sg35
S'2013'
p539
sg37
g19
sg38
S'100.0'
p540
sg40
g17
sg41
g19
ssg155
(dp541
g5
g19
sg7
g155
sg9
g17
sg11
g10
sg12
S'BUF'
p542
sg14
g10
sg15
g19
sg16
g17
sg18
g19
sg20
g74
sg21
S'65.8'
p543
sg23
g24
sg25
S'24.5'
p544
sg27
S'10/20'
p545
sg29
S'100.0'
p546
sg31
S'Caleb Sturgis'
p547
sg33
S'L21-23'
p548
sg35
S'2013'
p549
sg37
g19
sg38
S'0.0'
p550
sg40
g74
sg41
g19
ssg61
(dp551
g5
g191
sg7
g61
sg9
g191
sg11
g191
sg12
g191
sg14
g191
sg15
g191
sg16
g191
sg18
g191
sg20
g191
sg21
g191
sg23
g191
sg25
g191
sg27
S'Bye'
p552
sg29
g191
sg31
S'Caleb Sturgis'
p553
sg33
g191
sg35
S'2013'
p554
sg37
g191
sg38
g191
sg40
g191
sg41
g191
ssg137
(dp555
g5
S'44'
p556
sg7
g137
sg9
g74
sg11
g74
sg12
S'CIN'
p557
sg14
g10
sg15
g17
sg16
g17
sg18
g19
sg20
g17
sg21
S'64.4'
p558
sg23
g58
sg25
S'15.0'
p559
sg27
S'10/31'
p560
sg29
S'100.0'
p561
sg31
S'Caleb Sturgis'
p562
sg33
S'W22-20'
p563
sg35
S'2013'
p564
sg37
g19
sg38
S'66.7'
p565
sg40
g17
sg41
g19
ssg189
(dp566
g5
S'52'
p567
sg7
g189
sg9
g17
sg11
g74
sg12
S'@NE'
p568
sg14
g10
sg15
g10
sg16
g17
sg18
g19
sg20
g17
sg21
S'61.3'
p569
sg23
g24
sg25
S'23.0'
p570
sg27
S'10/27'
p571
sg29
S'100.0'
p572
sg31
S'Caleb Sturgis'
p573
sg33
S'L17-27'
p574
sg35
S'2013'
p575
sg37
g19
sg38
S'33.3'
p576
sg40
g17
sg41
g10
sss.