(dp0
S'2015'
p1
(dp2
S'11'
p3
(dp4
S'FGLng'
p5
S'32'
p6
sS'WK'
p7
S'11'
p8
sS'Ret'
p9
S'2'
p10
sS'FGAtt'
p11
g10
sS'Opp'
p12
S'CIN'
p13
sS'G'
p14
S'1'
p15
sS'FGM'
p16
g10
sS'TB'
p17
S'5'
p18
sS'GS'
p19
S'0'
p20
sS'XPM'
p21
S'4'
p22
sS'KOAvg'
p23
S'61.7'
p24
sS'KO'
p25
S'7'
p26
sS'RetAvg'
p27
S'30.0'
p28
sS'Game Date'
p29
S'11/22'
p30
sS'XPPct'
p31
S'100.0'
p32
sS'Player'
p33
S'Chandler Catanzaro'
p34
sS'Result'
p35
S'W34-31'
p36
sS'Year'
p37
S'2015'
p38
sS'XPBlk'
p39
g20
sS'FGPct'
p40
S'100.0'
p41
sS'XPAtt'
p42
g22
sS'FGBlk'
p43
g20
ssS'10'
p44
(dp45
g5
S'43'
p46
sg7
S'10'
p47
sg9
g18
sg11
S'3'
p48
sg12
S'@SEA'
p49
sg14
g15
sg16
g48
sg17
g10
sg19
g20
sg21
g22
sg23
S'63.9'
p50
sg25
g26
sg27
S'20.8'
p51
sg29
S'11/15'
p52
sg31
S'100.0'
p53
sg33
S'Chandler Catanzaro'
p54
sg35
S'W39-32'
p55
sg37
S'2015'
p56
sg39
g20
sg40
S'100.0'
p57
sg42
g22
sg43
g20
ssS'13'
p58
(dp59
g5
S'33'
p60
sg7
S'13'
p61
sg9
g18
sg11
g10
sg12
S'@STL'
p62
sg14
g15
sg16
g10
sg17
g15
sg19
g20
sg21
g48
sg23
S'67.2'
p63
sg25
S'6'
p64
sg27
S'26.4'
p65
sg29
S'12/06'
p66
sg31
S'100.0'
p67
sg33
S'Chandler Catanzaro'
p68
sg35
S'W27-3'
p69
sg37
S'2015'
p70
sg39
g20
sg40
S'100.0'
p71
sg42
g48
sg43
g20
ssS'12'
p72
(dp73
g5
S'41'
p74
sg7
S'12'
p75
sg9
g22
sg11
g10
sg12
S'@SF'
p76
sg14
g15
sg16
g10
sg17
g15
sg19
g20
sg21
g15
sg23
S'65.4'
p77
sg25
g18
sg27
S'21.3'
p78
sg29
S'11/29'
p79
sg31
S'50.0'
p80
sg33
S'Chandler Catanzaro'
p81
sg35
S'W19-13'
p82
sg37
S'2015'
p83
sg39
g20
sg40
S'100.0'
p84
sg42
g10
sg43
g20
ssS'15'
p85
(dp86
g5
S'38'
p87
sg7
S'15'
p88
sg9
g18
sg11
g10
sg12
S'@PHI'
p89
sg14
g15
sg16
g10
sg17
g48
sg19
g20
sg21
g22
sg23
S'62.9'
p90
sg25
S'8'
p91
sg27
S'23.6'
p92
sg29
S'12/20'
p93
sg31
S'80.0'
p94
sg33
S'Chandler Catanzaro'
p95
sg35
S'W40-17'
p96
sg37
S'2015'
p97
sg39
g20
sg40
S'100.0'
p98
sg42
g18
sg43
g20
ssS'14'
p99
(dp100
g5
S'47'
p101
sg7
S'14'
p102
sg9
g48
sg11
g48
sg12
S'MIN'
p103
sg14
g15
sg16
g48
sg17
g48
sg19
g20
sg21
g10
sg23
S'65.8'
p104
sg25
g64
sg27
S'31.0'
p105
sg29
S'12/10'
p106
sg31
S'100.0'
p107
sg33
S'Chandler Catanzaro'
p108
sg35
S'W23-20'
p109
sg37
S'2015'
p110
sg39
g20
sg40
S'100.0'
p111
sg42
g10
sg43
g20
ssS'17'
p112
(dp113
g5
g20
sg7
S'17'
p114
sg9
g20
sg11
g15
sg12
S'SEA'
p115
sg14
g15
sg16
g20
sg17
g10
sg19
g20
sg21
g20
sg23
S'65.0'
p116
sg25
g10
sg27
S'--'
p117
sg29
S'01/03'
p118
sg31
S'0.0'
p119
sg33
S'Chandler Catanzaro'
p120
sg35
S'L6-36'
p121
sg37
S'2015'
p122
sg39
g20
sg40
S'0.0'
p123
sg42
g15
sg43
g20
ssS'16'
p124
(dp125
g5
S'19'
p126
sg7
S'16'
p127
sg9
g10
sg11
g15
sg12
S'GB'
p128
sg14
g15
sg16
g15
sg17
g18
sg19
g20
sg21
g18
sg23
S'62.9'
p129
sg25
g26
sg27
S'15.0'
p130
sg29
S'12/27'
p131
sg31
S'100.0'
p132
sg33
S'Chandler Catanzaro'
p133
sg35
S'W38-8'
p134
sg37
S'2015'
p135
sg39
g20
sg40
S'100.0'
p136
sg42
g18
sg43
g20
ssg15
(dp137
g5
S'43'
p138
sg7
g15
sg9
g15
sg11
g15
sg12
S'NO'
p139
sg14
g15
sg16
g15
sg17
g18
sg19
g20
sg21
g22
sg23
S'62.8'
p140
sg25
g64
sg27
S'10.0'
p141
sg29
S'09/13'
p142
sg31
S'100.0'
p143
sg33
S'Chandler Catanzaro'
p144
sg35
S'W31-19'
p145
sg37
S'2015'
p146
sg39
g20
sg40
S'100.0'
p147
sg42
g22
sg43
g20
ssg48
(dp148
g5
S'22'
p149
sg7
g48
sg9
g22
sg11
g15
sg12
S'SF'
p150
sg14
g15
sg16
g15
sg17
g48
sg19
g20
sg21
g64
sg23
S'69.3'
p151
sg25
g26
sg27
S'23.8'
p152
sg29
S'09/27'
p153
sg31
S'100.0'
p154
sg33
S'Chandler Catanzaro'
p155
sg35
S'W47-7'
p156
sg37
S'2015'
p157
sg39
g20
sg40
S'100.0'
p158
sg42
g64
sg43
g20
ssg10
(dp159
g5
g20
sg7
g10
sg9
g48
sg11
g20
sg12
S'@CHI'
p160
sg14
g15
sg16
g20
sg17
g18
sg19
g20
sg21
g64
sg23
S'64.8'
p161
sg25
g91
sg27
S'28.7'
p162
sg29
S'09/20'
p163
sg31
S'85.7'
p164
sg33
S'Chandler Catanzaro'
p165
sg35
S'W48-23'
p166
sg37
S'2015'
p167
sg39
g20
sg40
S'--'
p168
sg42
g26
sg43
g20
ssg18
(dp169
g5
g20
sg7
g18
sg9
g48
sg11
g20
sg12
S'@DET'
p170
sg14
g15
sg16
g20
sg17
g22
sg19
g20
sg21
g64
sg23
S'66.7'
p171
sg25
g26
sg27
S'31.3'
p172
sg29
S'10/11'
p173
sg31
S'100.0'
p174
sg33
S'Chandler Catanzaro'
p175
sg35
S'W42-17'
p176
sg37
S'2015'
p177
sg39
g20
sg40
S'--'
p178
sg42
g64
sg43
g20
ssg22
(dp179
g5
S'42'
p180
sg7
g22
sg9
g18
sg11
g18
sg12
S'STL'
p181
sg14
g15
sg16
g18
sg17
g10
sg19
g20
sg21
g15
sg23
S'67.9'
p182
sg25
g26
sg27
S'24.2'
p183
sg29
S'10/04'
p184
sg31
S'100.0'
p185
sg33
S'Chandler Catanzaro'
p186
sg35
S'L22-24'
p187
sg37
S'2015'
p188
sg39
g20
sg40
S'100.0'
p189
sg42
g15
sg43
g20
ssg26
(dp190
g5
S'21'
p191
sg7
g26
sg9
g15
sg11
g48
sg12
S'BAL'
p192
sg14
g15
sg16
g10
sg17
g18
sg19
g20
sg21
g10
sg23
S'65.5'
p193
sg25
g64
sg27
S'28.0'
p194
sg29
S'10/26'
p195
sg31
S'66.7'
p196
sg33
S'Chandler Catanzaro'
p197
sg35
S'W26-18'
p198
sg37
S'2015'
p199
sg39
g20
sg40
S'66.7'
p200
sg42
g48
sg43
g20
ssg64
(dp201
g5
S'39'
p202
sg7
g64
sg9
g22
sg11
g48
sg12
S'@PIT'
p203
sg14
g15
sg16
g10
sg17
g20
sg19
g20
sg21
g15
sg23
S'65.0'
p204
sg25
g22
sg27
S'22.3'
p205
sg29
S'10/18'
p206
sg31
S'100.0'
p207
sg33
S'Chandler Catanzaro'
p208
sg35
S'L13-25'
p209
sg37
S'2015'
p210
sg39
g20
sg40
S'66.7'
p211
sg42
g15
sg43
g20
ssS'9'
p212
(dp213
g5
S''
p214
sg7
g212
sg9
g214
sg11
g214
sg12
g214
sg14
g214
sg16
g214
sg17
g214
sg19
g214
sg21
g214
sg23
g214
sg25
g214
sg27
g214
sg29
S'Bye'
p215
sg31
g214
sg33
S'Chandler Catanzaro'
p216
sg35
g214
sg37
S'2015'
p217
sg39
g214
sg40
g214
sg42
g214
sg43
g214
ssg91
(dp218
g5
S'37'
p219
sg7
g91
sg9
g10
sg11
g10
sg12
S'@CLE'
p220
sg14
g15
sg16
g10
sg17
g22
sg19
g20
sg21
g22
sg23
S'65.5'
p221
sg25
g64
sg27
S'23.0'
p222
sg29
S'11/01'
p223
sg31
S'100.0'
p224
sg33
S'Chandler Catanzaro'
p225
sg35
S'W34-20'
p226
sg37
S'2015'
p227
sg39
g20
sg40
S'100.0'
p228
sg42
g22
sg43
g20
sssS'2014'
p229
(dp230
g3
(dp231
g5
g20
sg7
S'11'
p232
sg9
g15
sg11
g20
sg12
S'DET'
p233
sg14
g15
sg16
g20
sg17
g10
sg19
g20
sg21
g10
sg23
S'67.3'
p234
sg25
g48
sg27
S'26.0'
p235
sg29
S'11/16'
p236
sg31
S'100.0'
p237
sg33
S'Chandler Catanzaro'
p238
sg35
S'W14-6'
p239
sg37
S'2014'
p240
sg39
g20
sg40
S'--'
p241
sg42
g10
sg43
g20
ssg44
(dp242
g5
S'43'
p243
sg7
S'10'
p244
sg9
g10
sg11
g10
sg12
S'STL'
p245
sg14
g15
sg16
g15
sg17
g22
sg19
g20
sg21
g22
sg23
S'67.7'
p246
sg25
g64
sg27
S'31.5'
p247
sg29
S'11/09'
p248
sg31
S'100.0'
p249
sg33
S'Chandler Catanzaro'
p250
sg35
S'W31-14'
p251
sg37
S'2014'
p252
sg39
g20
sg40
S'50.0'
p253
sg42
g22
sg43
g20
ssg58
(dp254
g5
S'44'
p255
sg7
S'13'
p256
sg9
g48
sg11
g15
sg12
S'@ATL'
p257
sg14
g15
sg16
g15
sg17
g20
sg19
g20
sg21
g15
sg23
S'54.8'
p258
sg25
g22
sg27
S'30.3'
p259
sg29
S'11/30'
p260
sg31
S'100.0'
p261
sg33
S'Chandler Catanzaro'
p262
sg35
S'L18-29'
p263
sg37
S'2014'
p264
sg39
g20
sg40
S'100.0'
p265
sg42
g15
sg43
g20
ssg72
(dp266
g5
S'23'
p267
sg7
S'12'
p268
sg9
g15
sg11
g10
sg12
S'@SEA'
p269
sg14
g15
sg16
g15
sg17
g15
sg19
g20
sg21
g20
sg23
S'69.5'
p270
sg25
g10
sg27
S'20.0'
p271
sg29
S'11/23'
p272
sg31
S'--'
p273
sg33
S'Chandler Catanzaro'
p274
sg35
S'L3-19'
p275
sg37
S'2014'
p276
sg39
g20
sg40
S'50.0'
p277
sg42
g20
sg43
g20
ssg85
(dp278
g5
S'51'
p279
sg7
S'15'
p280
sg9
g22
sg11
g22
sg12
S'@STL'
p281
sg14
g15
sg16
g22
sg17
g15
sg19
g20
sg21
g20
sg23
S'68.2'
p282
sg25
g18
sg27
S'29.0'
p283
sg29
S'12/11'
p284
sg31
S'--'
p285
sg33
S'Chandler Catanzaro'
p286
sg35
S'W12-6'
p287
sg37
S'2014'
p288
sg39
g20
sg40
S'100.0'
p289
sg42
g20
sg43
g20
ssg99
(dp290
g5
S'44'
p291
sg7
S'14'
p292
sg9
g18
sg11
g18
sg12
S'KC'
p293
sg14
g15
sg16
g48
sg17
g20
sg19
g20
sg21
g20
sg23
S'71.0'
p294
sg25
g18
sg27
S'30.0'
p295
sg29
S'12/07'
p296
sg31
S'--'
p297
sg33
S'Chandler Catanzaro'
p298
sg35
S'W17-14'
p299
sg37
S'2014'
p300
sg39
g20
sg40
S'60.0'
p301
sg42
g20
sg43
g20
ssg112
(dp302
g5
S'36'
p303
sg7
S'17'
p304
sg9
g22
sg11
g15
sg12
S'@SF'
p305
sg14
g15
sg16
g15
sg17
g20
sg19
g20
sg21
g10
sg23
S'64.5'
p306
sg25
g22
sg27
S'25.3'
p307
sg29
S'12/28'
p308
sg31
S'100.0'
p309
sg33
S'Chandler Catanzaro'
p310
sg35
S'L17-20'
p311
sg37
S'2014'
p312
sg39
g20
sg40
S'100.0'
p313
sg42
g10
sg43
g20
ssg124
(dp314
g5
S'32'
p315
sg7
S'16'
p316
sg9
g15
sg11
g10
sg12
S'SEA'
p317
sg14
g15
sg16
g10
sg17
g10
sg19
g20
sg21
g20
sg23
S'67.0'
p318
sg25
g48
sg27
S'27.0'
p319
sg29
S'12/21'
p320
sg31
S'--'
p321
sg33
S'Chandler Catanzaro'
p322
sg35
S'L6-35'
p323
sg37
S'2014'
p324
sg39
g20
sg40
S'100.0'
p325
sg42
g20
sg43
g20
ssg15
(dp326
g5
S'44'
p327
sg7
g15
sg9
g20
sg11
g10
sg12
S'SD'
p328
sg14
g15
sg16
g10
sg17
g22
sg19
g20
sg21
g20
sg23
S'66.8'
p329
sg25
g22
sg27
S'--'
p330
sg29
S'09/08'
p331
sg31
S'--'
p332
sg33
S'Chandler Catanzaro'
p333
sg35
S'W18-17'
p334
sg37
S'2014'
p335
sg39
g20
sg40
S'100.0'
p336
sg42
g20
sg43
g20
ssg48
(dp337
g5
S'51'
p338
sg7
g48
sg9
g10
sg11
g48
sg12
S'SF'
p339
sg14
g15
sg16
g48
sg17
g22
sg19
g20
sg21
g10
sg23
S'67.8'
p340
sg25
g64
sg27
S'22.0'
p341
sg29
S'09/21'
p342
sg31
S'100.0'
p343
sg33
S'Chandler Catanzaro'
p344
sg35
S'W23-14'
p345
sg37
S'2014'
p346
sg39
g20
sg40
S'100.0'
p347
sg42
g10
sg43
g20
ssg10
(dp348
g5
S'49'
p349
sg7
g10
sg9
g64
sg11
g22
sg12
S'@NYG'
p350
sg14
g15
sg16
g22
sg17
g15
sg19
g20
sg21
g15
sg23
S'68.4'
p351
sg25
g26
sg27
S'23.8'
p352
sg29
S'09/14'
p353
sg31
S'100.0'
p354
sg33
S'Chandler Catanzaro'
p355
sg35
S'W25-14'
p356
sg37
S'2014'
p357
sg39
g20
sg40
S'100.0'
p358
sg42
g15
sg43
g20
ssg18
(dp359
g5
S'48'
p360
sg7
g18
sg9
g20
sg11
g10
sg12
S'@DEN'
p361
sg14
g15
sg16
g10
sg17
g18
sg19
g20
sg21
g10
sg23
S'65.0'
p362
sg25
g18
sg27
S'--'
p363
sg29
S'10/05'
p364
sg31
S'100.0'
p365
sg33
S'Chandler Catanzaro'
p366
sg35
S'L20-41'
p367
sg37
S'2014'
p368
sg39
g20
sg40
S'100.0'
p369
sg42
g10
sg43
g20
ssg22
(dp370
g5
g214
sg7
g22
sg9
g214
sg11
g214
sg12
g214
sg14
g214
sg16
g214
sg17
g214
sg19
g214
sg21
g214
sg23
g214
sg25
g214
sg27
g214
sg29
S'Bye'
p371
sg31
g214
sg33
S'Chandler Catanzaro'
p372
sg35
g214
sg37
S'2014'
p373
sg39
g214
sg40
g214
sg42
g214
sg43
g214
ssg26
(dp374
g5
S'41'
p375
sg7
g26
sg9
g48
sg11
g15
sg12
S'@OAK'
p376
sg14
g15
sg16
g15
sg17
g10
sg19
g20
sg21
g48
sg23
S'66.2'
p377
sg25
g18
sg27
S'20.3'
p378
sg29
S'10/19'
p379
sg31
S'100.0'
p380
sg33
S'Chandler Catanzaro'
p381
sg35
S'W24-13'
p382
sg37
S'2014'
p383
sg39
g20
sg40
S'100.0'
p384
sg42
g48
sg43
g20
ssg64
(dp385
g5
S'49'
p386
sg7
g64
sg9
g15
sg11
g48
sg12
S'WAS'
p387
sg14
g15
sg16
g48
sg17
g64
sg19
g20
sg21
g48
sg23
S'65.7'
p388
sg25
g26
sg27
S'23.0'
p389
sg29
S'10/12'
p390
sg31
S'100.0'
p391
sg33
S'Chandler Catanzaro'
p392
sg35
S'W30-20'
p393
sg37
S'2014'
p394
sg39
g20
sg40
S'100.0'
p395
sg42
g48
sg43
g20
ssg212
(dp396
g5
g20
sg7
g212
sg9
g48
sg11
g20
sg12
S'@DAL'
p397
sg14
g15
sg16
g20
sg17
g10
sg19
g20
sg21
g22
sg23
S'68.2'
p398
sg25
g18
sg27
S'25.3'
p399
sg29
S'11/02'
p400
sg31
S'100.0'
p401
sg33
S'Chandler Catanzaro'
p402
sg35
S'W28-17'
p403
sg37
S'2014'
p404
sg39
g20
sg40
S'--'
p405
sg42
g22
sg43
g20
ssg91
(dp406
g5
S'28'
p407
sg7
g91
sg9
g15
sg11
g15
sg12
S'PHI'
p408
sg14
g15
sg16
g15
sg17
g22
sg19
g20
sg21
g48
sg23
S'66.0'
p409
sg25
g18
sg27
S'26.0'
p410
sg29
S'10/26'
p411
sg31
S'100.0'
p412
sg33
S'Chandler Catanzaro'
p413
sg35
S'W24-20'
p414
sg37
S'2014'
p415
sg39
g20
sg40
S'100.0'
p416
sg42
g48
sg43
g20
sss.