(dp0
S'2015'
p1
(dp2
S'11'
p3
(dp4
S'FGLng'
p5
S''
p6
sS'WK'
p7
S'11'
p8
sS'Ret'
p9
g6
sS'FGAtt'
p10
g6
sS'Opp'
p11
g6
sS'G'
p12
g6
sS'FGM'
p13
g6
sS'TB'
p14
g6
sS'GS'
p15
g6
sS'XPM'
p16
g6
sS'KOAvg'
p17
g6
sS'KO'
p18
g6
sS'RetAvg'
p19
g6
sS'Game Date'
p20
S'Bye'
p21
sS'XPPct'
p22
g6
sS'Player'
p23
S'Chris Boswell'
p24
sS'Result'
p25
g6
sS'Year'
p26
S'2015'
p27
sS'XPBlk'
p28
g6
sS'FGPct'
p29
g6
sS'XPAtt'
p30
g6
sS'FGBlk'
p31
g6
ssS'10'
p32
(dp33
g5
S'34'
p34
sg7
S'10'
p35
sg9
S'4'
p36
sg10
S'3'
p37
sg11
S'CLE'
p38
sg12
S'1'
p39
sg13
g37
sg14
g37
sg15
S'0'
p40
sg16
g39
sg17
S'67.4'
p41
sg18
S'7'
p42
sg19
S'25.0'
p43
sg20
S'11/15'
p44
sg22
S'50.0'
p45
sg23
S'Chris Boswell'
p46
sg25
S'W30-9'
p47
sg26
S'2015'
p48
sg28
g40
sg29
S'100.0'
p49
sg30
S'2'
p50
sg31
g40
ssS'13'
p51
(dp52
g5
S'51'
p53
sg7
S'13'
p54
sg9
S'6'
p55
sg10
g36
sg11
S'IND'
p56
sg12
g39
sg13
g37
sg14
g37
sg15
g40
sg16
g36
sg17
S'57.7'
p57
sg18
S'9'
p58
sg19
S'20.8'
p59
sg20
S'12/06'
p60
sg22
S'100.0'
p61
sg23
S'Chris Boswell'
p62
sg25
S'W45-10'
p63
sg26
S'2015'
p64
sg28
g40
sg29
S'75.0'
p65
sg30
g36
sg31
g40
ssS'12'
p66
(dp67
g5
S'44'
p68
sg7
S'12'
p69
sg9
S'5'
p70
sg10
g37
sg11
S'@SEA'
p71
sg12
g39
sg13
g37
sg14
g50
sg15
g40
sg16
g39
sg17
S'64.6'
p72
sg18
g42
sg19
S'29.6'
p73
sg20
S'11/29'
p74
sg22
S'100.0'
p75
sg23
S'Chris Boswell'
p76
sg25
S'L30-39'
p77
sg26
S'2015'
p78
sg28
g40
sg29
S'100.0'
p79
sg30
g39
sg31
g40
ssS'15'
p80
(dp81
g5
S'41'
p82
sg7
S'15'
p83
sg9
g36
sg10
g50
sg11
S'DEN'
p84
sg12
g39
sg13
g50
sg14
g37
sg15
g40
sg16
g36
sg17
S'62.0'
p85
sg18
g42
sg19
S'18.5'
p86
sg20
S'12/20'
p87
sg22
S'100.0'
p88
sg23
S'Chris Boswell'
p89
sg25
S'W34-27'
p90
sg26
S'2015'
p91
sg28
g40
sg29
S'100.0'
p92
sg30
g36
sg31
g40
ssS'14'
p93
(dp94
g5
S'47'
p95
sg7
S'14'
p96
sg9
g37
sg10
g36
sg11
S'@CIN'
p97
sg12
g39
sg13
g36
sg14
g70
sg15
g40
sg16
g37
sg17
S'66.3'
p98
sg18
S'8'
p99
sg19
S'22.7'
p100
sg20
S'12/13'
p101
sg22
S'100.0'
p102
sg23
S'Chris Boswell'
p103
sg25
S'W33-20'
p104
sg26
S'2015'
p105
sg28
g40
sg29
S'100.0'
p106
sg30
g37
sg31
g40
ssS'17'
p107
(dp108
g5
S'39'
p109
sg7
S'17'
p110
sg9
g70
sg10
g37
sg11
S'@CLE'
p111
sg12
g39
sg13
g50
sg14
g39
sg15
g40
sg16
g50
sg17
S'64.7'
p112
sg18
g55
sg19
S'24.0'
p113
sg20
S'01/03'
p114
sg22
S'100.0'
p115
sg23
S'Chris Boswell'
p116
sg25
S'W28-12'
p117
sg26
S'2015'
p118
sg28
g40
sg29
S'66.7'
p119
sg30
g50
sg31
g40
ssS'16'
p120
(dp121
g5
S'34'
p122
sg7
S'16'
p123
sg9
g37
sg10
g39
sg11
S'@BAL'
p124
sg12
g39
sg13
g39
sg14
g39
sg15
g40
sg16
g50
sg17
S'64.3'
p125
sg18
g36
sg19
S'24.3'
p126
sg20
S'12/27'
p127
sg22
S'100.0'
p128
sg23
S'Chris Boswell'
p129
sg25
S'L17-20'
p130
sg26
S'2015'
p131
sg28
g40
sg29
S'100.0'
p132
sg30
g50
sg31
g40
ssg70
(dp133
g5
S'47'
p134
sg7
g70
sg9
g39
sg10
g39
sg11
S'@SD'
p135
sg12
g39
sg13
g39
sg14
g37
sg15
g40
sg16
g37
sg17
S'67.0'
p136
sg18
g36
sg19
S'30.0'
p137
sg20
S'10/12'
p138
sg22
S'100.0'
p139
sg23
S'Chris Boswell'
p140
sg25
S'W24-20'
p141
sg26
S'2015'
p142
sg28
g40
sg29
S'100.0'
p143
sg30
g37
sg31
g40
ssg42
(dp144
g5
S'36'
p145
sg7
g42
sg9
g37
sg10
g50
sg11
S'@KC'
p146
sg12
g39
sg13
g50
sg14
g39
sg15
g40
sg16
g39
sg17
S'68.0'
p147
sg18
g36
sg19
S'25.3'
p148
sg20
S'10/25'
p149
sg22
S'100.0'
p150
sg23
S'Chris Boswell'
p151
sg25
S'L13-23'
p152
sg26
S'2015'
p153
sg28
g40
sg29
S'100.0'
p154
sg30
g39
sg31
g40
ssg55
(dp155
g5
S'51'
p156
sg7
g55
sg9
g55
sg10
g36
sg11
S'ARI'
p157
sg12
g39
sg13
g36
sg14
g39
sg15
g40
sg16
g39
sg17
S'63.1'
p158
sg18
g42
sg19
S'20.3'
p159
sg20
S'10/18'
p160
sg22
S'100.0'
p161
sg23
S'Chris Boswell'
p162
sg25
S'W25-13'
p163
sg26
S'2015'
p164
sg28
g40
sg29
S'100.0'
p165
sg30
g39
sg31
g40
ssg58
(dp166
g5
S'38'
p167
sg7
g58
sg9
g70
sg10
g36
sg11
S'OAK'
p168
sg12
g39
sg13
g37
sg14
g50
sg15
g40
sg16
g37
sg17
S'61.3'
p169
sg18
g99
sg19
S'14.8'
p170
sg20
S'11/08'
p171
sg22
S'100.0'
p172
sg23
S'Chris Boswell'
p173
sg25
S'W38-35'
p174
sg26
S'2015'
p175
sg28
g40
sg29
S'75.0'
p176
sg30
g37
sg31
g40
ssg99
(dp177
g5
S'32'
p178
sg7
g99
sg9
g50
sg10
g39
sg11
S'CIN'
p179
sg12
g39
sg13
g39
sg14
g39
sg15
g40
sg16
g39
sg17
S'63.0'
p180
sg18
g37
sg19
S'26.0'
p181
sg20
S'11/01'
p182
sg22
S'100.0'
p183
sg23
S'Chris Boswell'
p184
sg25
S'L10-16'
p185
sg26
S'2015'
p186
sg28
g40
sg29
S'100.0'
p187
sg30
g39
sg31
g40
sss.