(dp0
S'2015'
p1
(dp2
S'11'
p3
(dp4
S'FGLng'
p5
S'28'
p6
sS'WK'
p7
S'11'
p8
sS'Ret'
p9
S'5'
p10
sS'FGAtt'
p11
S'1'
p12
sS'Opp'
p13
S'@PHI'
p14
sS'G'
p15
g12
sS'FGM'
p16
g12
sS'TB'
p17
S'3'
p18
sS'GS'
p19
S'0'
p20
sS'XPM'
p21
S'6'
p22
sS'KOAvg'
p23
S'65.4'
p24
sS'KO'
p25
S'8'
p26
sS'RetAvg'
p27
S'22.4'
p28
sS'Game Date'
p29
S'11/22'
p30
sS'XPPct'
p31
S'100.0'
p32
sS'Player'
p33
S'Connor Barth'
p34
sS'Result'
p35
S'W45-17'
p36
sS'Year'
p37
S'2015'
p38
sS'XPBlk'
p39
g20
sS'FGPct'
p40
S'100.0'
p41
sS'XPAtt'
p42
g22
sS'FGBlk'
p43
g20
ssS'10'
p44
(dp45
g5
S'52'
p46
sg7
S'10'
p47
sg9
S'2'
p48
sg11
g48
sg13
S'DAL'
p49
sg15
g12
sg16
g12
sg17
g12
sg19
g20
sg21
g12
sg23
S'56.7'
p50
sg25
g18
sg27
S'17.5'
p51
sg29
S'11/15'
p52
sg31
S'100.0'
p53
sg33
S'Connor Barth'
p54
sg35
S'W10-6'
p55
sg37
S'2015'
p56
sg39
g20
sg40
S'50.0'
p57
sg42
g12
sg43
g20
ssS'13'
p58
(dp59
g5
S'23'
p60
sg7
S'13'
p61
sg9
g48
sg11
g12
sg13
S'ATL'
p62
sg15
g12
sg16
g12
sg17
g18
sg19
g20
sg21
g48
sg23
S'66.0'
p63
sg25
g10
sg27
S'23.5'
p64
sg29
S'12/06'
p65
sg31
S'100.0'
p66
sg33
S'Connor Barth'
p67
sg35
S'W23-19'
p68
sg37
S'2015'
p69
sg39
g20
sg40
S'100.0'
p70
sg42
g48
sg43
g20
ssS'12'
p71
(dp72
g5
S'38'
p73
sg7
S'12'
p74
sg9
S'4'
p75
sg11
g18
sg13
S'@IND'
p76
sg15
g12
sg16
g48
sg17
g20
sg19
g20
sg21
g20
sg23
S'68.3'
p77
sg25
g75
sg27
S'21.0'
p78
sg29
S'11/29'
p79
sg31
S'0.0'
p80
sg33
S'Connor Barth'
p81
sg35
S'L12-25'
p82
sg37
S'2015'
p83
sg39
g20
sg40
S'66.7'
p84
sg42
g12
sg43
g20
ssS'15'
p85
(dp86
g5
S'53'
p87
sg7
S'15'
p88
sg9
g10
sg11
g18
sg13
S'@STL'
p89
sg15
g12
sg16
g18
sg17
g20
sg19
g20
sg21
g48
sg23
S'55.0'
p90
sg25
g22
sg27
S'37.6'
p91
sg29
S'12/17'
p92
sg31
S'100.0'
p93
sg33
S'Connor Barth'
p94
sg35
S'L23-31'
p95
sg37
S'2015'
p96
sg39
g20
sg40
S'100.0'
p97
sg42
g48
sg43
g20
ssS'14'
p98
(dp99
g5
S'39'
p100
sg7
S'14'
p101
sg9
g12
sg11
g48
sg13
S'NO'
p102
sg15
g12
sg16
g12
sg17
g18
sg19
g20
sg21
g48
sg23
S'58.5'
p103
sg25
g75
sg27
S'0.0'
p104
sg29
S'12/13'
p105
sg31
S'100.0'
p106
sg33
S'Connor Barth'
p107
sg35
S'L17-24'
p108
sg37
S'2015'
p109
sg39
g20
sg40
S'50.0'
p110
sg42
g48
sg43
g20
ssS'17'
p111
(dp112
g5
S'39'
p113
sg7
S'17'
p114
sg9
g48
sg11
g12
sg13
S'@CAR'
p115
sg15
g12
sg16
g12
sg17
g12
sg19
g20
sg21
g12
sg23
S'64.7'
p116
sg25
g18
sg27
S'25.5'
p117
sg29
S'01/03'
p118
sg31
S'100.0'
p119
sg33
S'Connor Barth'
p120
sg35
S'L10-38'
p121
sg37
S'2015'
p122
sg39
g20
sg40
S'100.0'
p123
sg42
g12
sg43
g20
ssS'16'
p124
(dp125
g5
g20
sg7
S'16'
p126
sg9
g20
sg11
g12
sg13
S'CHI'
p127
sg15
g12
sg16
g20
sg17
g18
sg19
g20
sg21
g18
sg23
S'52.3'
p128
sg25
g75
sg27
S'--'
p129
sg29
S'12/27'
p130
sg31
S'100.0'
p131
sg33
S'Connor Barth'
p132
sg35
S'L21-26'
p133
sg37
S'2015'
p134
sg39
g20
sg40
S'0.0'
p135
sg42
g18
sg43
g20
ssg10
(dp136
g5
S'47'
p137
sg7
g10
sg9
g18
sg11
g18
sg13
S'JAC'
p138
sg15
g12
sg16
g18
sg17
g10
sg19
g20
sg21
g18
sg23
S'66.8'
p139
sg25
g26
sg27
S'31.0'
p140
sg29
S'10/11'
p141
sg31
S'100.0'
p142
sg33
S'Connor Barth'
p143
sg35
S'W38-31'
p144
sg37
S'2015'
p145
sg39
g20
sg40
S'100.0'
p146
sg42
g18
sg43
g20
ssS'7'
p147
(dp148
g5
S'45'
p149
sg7
g147
sg9
g48
sg11
g18
sg13
S'@WAS'
p150
sg15
g12
sg16
g18
sg17
g10
sg19
g20
sg21
g18
sg23
S'66.1'
p151
sg25
g147
sg27
S'24.0'
p152
sg29
S'10/25'
p153
sg31
S'100.0'
p154
sg33
S'Connor Barth'
p155
sg35
S'L30-31'
p156
sg37
S'2015'
p157
sg39
g20
sg40
S'100.0'
p158
sg42
g18
sg43
g20
ssg22
(dp159
g5
S''
p160
sg7
g22
sg9
g160
sg11
g160
sg13
g160
sg15
g160
sg16
g160
sg17
g160
sg19
g160
sg21
g160
sg23
g160
sg25
g160
sg27
g160
sg29
S'Bye'
p161
sg31
g160
sg33
S'Connor Barth'
p162
sg35
g160
sg37
S'2015'
p163
sg39
g160
sg40
g160
sg42
g160
sg43
g160
ssS'9'
p164
(dp165
g5
S'53'
p166
sg7
g164
sg9
g48
sg11
g10
sg13
S'NYG'
p167
sg15
g12
sg16
g75
sg17
g75
sg19
g20
sg21
g20
sg23
S'66.7'
p168
sg25
g22
sg27
S'27.0'
p169
sg29
S'11/08'
p170
sg31
S'--'
p171
sg33
S'Connor Barth'
p172
sg35
S'L18-32'
p173
sg37
S'2015'
p174
sg39
g20
sg40
S'80.0'
p175
sg42
g20
sg43
g20
ssg26
(dp176
g5
S'38'
p177
sg7
g26
sg9
g48
sg11
g18
sg13
S'@ATL'
p178
sg15
g12
sg16
g18
sg17
g75
sg19
g20
sg21
g48
sg23
S'67.0'
p179
sg25
g22
sg27
S'29.0'
p180
sg29
S'11/01'
p181
sg31
S'100.0'
p182
sg33
S'Connor Barth'
p183
sg35
S'W23-20'
p184
sg37
S'2015'
p185
sg39
g20
sg40
S'100.0'
p186
sg42
g48
sg43
g20
sssS'2014'
p187
(dp188
g58
(dp189
g5
S'37'
p190
sg7
S'13'
p191
sg9
g26
sg11
g10
sg13
S'@KC'
p192
sg15
g12
sg16
g10
sg17
g20
sg19
g20
sg21
g48
sg23
S'57.0'
p193
sg25
g26
sg27
S'24.9'
p194
sg29
S'11/30'
p195
sg31
S'100.0'
p196
sg33
S'Connor Barth'
p197
sg35
S'W29-16'
p198
sg37
S'2014'
p199
sg39
g20
sg40
S'100.0'
p200
sg42
g48
sg43
g20
ssg85
(dp201
g5
S'49'
p202
sg7
S'15'
p203
sg9
S'--'
p204
sg11
g10
sg13
S'@SD'
p205
sg15
g12
sg16
g10
sg17
S'--'
p206
sg19
g20
sg21
g12
sg23
S'--'
p207
sg25
S'--'
p208
sg27
S'--'
p209
sg29
S'12/14'
p210
sg31
S'100.0'
p211
sg33
S'Connor Barth'
p212
sg35
S'W22-10'
p213
sg37
S'2014'
p214
sg39
g20
sg40
S'100.0'
p215
sg42
g12
sg43
g20
ssg98
(dp216
g5
S'50'
p217
sg7
S'14'
p218
sg9
S'--'
p219
sg11
g12
sg13
S'BUF'
p220
sg15
g12
sg16
g12
sg17
S'--'
p221
sg19
g20
sg21
g18
sg23
S'--'
p222
sg25
S'--'
p223
sg27
S'--'
p224
sg29
S'12/07'
p225
sg31
S'100.0'
p226
sg33
S'Connor Barth'
p227
sg35
S'W24-17'
p228
sg37
S'2014'
p229
sg39
g20
sg40
S'100.0'
p230
sg42
g18
sg43
g20
ssg111
(dp231
g5
S'49'
p232
sg7
S'17'
p233
sg9
S'--'
p234
sg11
g75
sg13
S'OAK'
p235
sg15
g12
sg16
g75
sg17
S'--'
p236
sg19
g20
sg21
g10
sg23
S'--'
p237
sg25
S'--'
p238
sg27
S'--'
p239
sg29
S'12/28'
p240
sg31
S'100.0'
p241
sg33
S'Connor Barth'
p242
sg35
S'W47-14'
p243
sg37
S'2014'
p244
sg39
g20
sg40
S'100.0'
p245
sg42
g10
sg43
g20
ssg124
(dp246
g5
g20
sg7
S'16'
p247
sg9
S'--'
p248
sg11
g12
sg13
S'@CIN'
p249
sg15
g12
sg16
g20
sg17
S'--'
p250
sg19
g20
sg21
g75
sg23
S'--'
p251
sg25
S'--'
p252
sg27
S'--'
p253
sg29
S'12/22'
p254
sg31
S'100.0'
p255
sg33
S'Connor Barth'
p256
sg35
S'L28-37'
p257
sg37
S'2014'
p258
sg39
g20
sg40
S'0.0'
p259
sg42
g75
sg43
g20
sssS'2011'
p260
(dp261
g3
(dp262
g5
S'32'
p263
sg7
S'11'
p264
sg9
S'--'
p265
sg11
g48
sg13
S'@GB'
p266
sg15
g12
sg16
g48
sg17
S'--'
p267
sg19
g20
sg21
g48
sg23
S'--'
p268
sg25
S'--'
p269
sg27
S'--'
p270
sg29
S'11/20'
p271
sg31
S'100.0'
p272
sg33
S'Connor Barth'
p273
sg35
S'L26-35'
p274
sg37
S'2011'
p275
sg39
g20
sg40
S'100.0'
p276
sg42
g48
sg43
g20
ssg44
(dp277
g5
S'55'
p278
sg7
S'10'
p279
sg9
S'--'
p280
sg11
g12
sg13
S'HOU'
p281
sg15
g12
sg16
g12
sg17
S'--'
p282
sg19
g20
sg21
g20
sg23
S'--'
p283
sg25
S'--'
p284
sg27
S'--'
p285
sg29
S'11/13'
p286
sg31
S'--'
p287
sg33
S'Connor Barth'
p288
sg35
S'L9-37'
p289
sg37
S'2011'
p290
sg39
g20
sg40
S'100.0'
p291
sg42
g20
sg43
g20
ssg58
(dp292
g5
S'50'
p293
sg7
S'13'
p294
sg9
S'--'
p295
sg11
g75
sg13
S'CAR'
p296
sg15
g12
sg16
g75
sg17
S'--'
p297
sg19
g20
sg21
g12
sg23
S'--'
p298
sg25
S'--'
p299
sg27
S'--'
p300
sg29
S'12/04'
p301
sg31
S'100.0'
p302
sg33
S'Connor Barth'
p303
sg35
S'L19-38'
p304
sg37
S'2011'
p305
sg39
g20
sg40
S'100.0'
p306
sg42
g12
sg43
g20
ssg71
(dp307
g5
S'43'
p308
sg7
S'12'
p309
sg9
S'--'
p310
sg11
g12
sg13
S'@TEN'
p311
sg15
g12
sg16
g12
sg17
S'--'
p312
sg19
g20
sg21
g48
sg23
S'--'
p313
sg25
S'--'
p314
sg27
S'--'
p315
sg29
S'11/27'
p316
sg31
S'100.0'
p317
sg33
S'Connor Barth'
p318
sg35
S'L17-23'
p319
sg37
S'2011'
p320
sg39
g20
sg40
S'100.0'
p321
sg42
g48
sg43
g20
ssg85
(dp322
g5
g20
sg7
S'15'
p323
sg9
S'--'
p324
sg11
g20
sg13
S'DAL'
p325
sg15
g12
sg16
g20
sg17
S'--'
p326
sg19
g20
sg21
g12
sg23
S'--'
p327
sg25
S'--'
p328
sg27
S'--'
p329
sg29
S'12/17'
p330
sg31
S'100.0'
p331
sg33
S'Connor Barth'
p332
sg35
S'L15-31'
p333
sg37
S'2011'
p334
sg39
g20
sg40
S'--'
p335
sg42
g12
sg43
g20
ssg98
(dp336
g5
g20
sg7
S'14'
p337
sg9
S'--'
p338
sg11
g20
sg13
S'@JAC'
p339
sg15
g12
sg16
g20
sg17
S'--'
p340
sg19
g20
sg21
g48
sg23
S'--'
p341
sg25
S'--'
p342
sg27
S'--'
p343
sg29
S'12/11'
p344
sg31
S'100.0'
p345
sg33
S'Connor Barth'
p346
sg35
S'L14-41'
p347
sg37
S'2011'
p348
sg39
g20
sg40
S'--'
p349
sg42
g48
sg43
g20
ssg111
(dp350
g5
S'41'
p351
sg7
S'17'
p352
sg9
S'--'
p353
sg11
g12
sg13
S'@ATL'
p354
sg15
g12
sg16
g12
sg17
S'--'
p355
sg19
g20
sg21
g12
sg23
S'--'
p356
sg25
S'--'
p357
sg27
S'--'
p358
sg29
S'01/01'
p359
sg31
S'100.0'
p360
sg33
S'Connor Barth'
p361
sg35
S'L24-45'
p362
sg37
S'2011'
p363
sg39
g20
sg40
S'100.0'
p364
sg42
g12
sg43
g20
ssg124
(dp365
g5
S'42'
p366
sg7
S'16'
p367
sg9
S'--'
p368
sg11
g12
sg13
S'@CAR'
p369
sg15
g12
sg16
g12
sg17
S'--'
p370
sg19
g20
sg21
g12
sg23
S'--'
p371
sg25
S'--'
p372
sg27
S'--'
p373
sg29
S'12/24'
p374
sg31
S'100.0'
p375
sg33
S'Connor Barth'
p376
sg35
S'L16-48'
p377
sg37
S'2011'
p378
sg39
g20
sg40
S'100.0'
p379
sg42
g12
sg43
g20
ssg12
(dp380
g5
S'38'
p381
sg7
g12
sg9
S'--'
p382
sg11
g48
sg13
S'DET'
p383
sg15
g12
sg16
g48
sg17
S'--'
p384
sg19
g20
sg21
g48
sg23
S'--'
p385
sg25
S'--'
p386
sg27
S'--'
p387
sg29
S'09/11'
p388
sg31
S'100.0'
p389
sg33
S'Connor Barth'
p390
sg35
S'L20-27'
p391
sg37
S'2011'
p392
sg39
g20
sg40
S'100.0'
p393
sg42
g48
sg43
g20
ssg18
(dp394
g5
S'49'
p395
sg7
g18
sg9
S'--'
p396
sg11
g18
sg13
S'ATL'
p397
sg15
g12
sg16
g18
sg17
S'--'
p398
sg19
g20
sg21
g12
sg23
S'--'
p399
sg25
S'--'
p400
sg27
S'--'
p401
sg29
S'09/25'
p402
sg31
S'100.0'
p403
sg33
S'Connor Barth'
p404
sg35
S'W16-13'
p405
sg37
S'2011'
p406
sg39
g20
sg40
S'100.0'
p407
sg42
g12
sg43
g20
ssg48
(dp408
g5
S'36'
p409
sg7
g48
sg9
S'--'
p410
sg11
g12
sg13
S'@MIN'
p411
sg15
g12
sg16
g12
sg17
S'--'
p412
sg19
g20
sg21
g18
sg23
S'--'
p413
sg25
S'--'
p414
sg27
S'--'
p415
sg29
S'09/18'
p416
sg31
S'100.0'
p417
sg33
S'Connor Barth'
p418
sg35
S'W24-20'
p419
sg37
S'2011'
p420
sg39
g20
sg40
S'100.0'
p421
sg42
g18
sg43
g20
ssg10
(dp422
g5
S'24'
p423
sg7
g10
sg9
S'--'
p424
sg11
g12
sg13
S'@SF'
p425
sg15
g12
sg16
g12
sg17
S'--'
p426
sg19
g20
sg21
g20
sg23
S'--'
p427
sg25
S'--'
p428
sg27
S'--'
p429
sg29
S'10/09'
p430
sg31
S'--'
p431
sg33
S'Connor Barth'
p432
sg35
S'L3-48'
p433
sg37
S'2011'
p434
sg39
g20
sg40
S'100.0'
p435
sg42
g20
sg43
g20
ssg75
(dp436
g5
S'46'
p437
sg7
g75
sg9
S'--'
p438
sg11
g48
sg13
S'IND'
p439
sg15
g12
sg16
g12
sg17
S'--'
p440
sg19
g20
sg21
g18
sg23
S'--'
p441
sg25
S'--'
p442
sg27
S'--'
p443
sg29
S'10/03'
p444
sg31
S'100.0'
p445
sg33
S'Connor Barth'
p446
sg35
S'W24-17'
p447
sg37
S'2011'
p448
sg39
g20
sg40
S'50.0'
p449
sg42
g18
sg43
g20
ssg147
(dp450
g5
S'33'
p451
sg7
g147
sg9
S'--'
p452
sg11
g12
sg13
S'CHI'
p453
sg15
g12
sg16
g12
sg17
S'--'
p454
sg19
g20
sg21
g12
sg23
S'--'
p455
sg25
S'--'
p456
sg27
S'--'
p457
sg29
S'10/23'
p458
sg31
S'100.0'
p459
sg33
S'Connor Barth'
p460
sg35
S'L18-24'
p461
sg37
S'2011'
p462
sg39
g20
sg40
S'100.0'
p463
sg42
g12
sg43
g20
ssg22
(dp464
g5
S'48'
p465
sg7
g22
sg9
S'--'
p466
sg11
g10
sg13
S'NO'
p467
sg15
g12
sg16
g75
sg17
S'--'
p468
sg19
g20
sg21
g48
sg23
S'--'
p469
sg25
S'--'
p470
sg27
S'--'
p471
sg29
S'10/16'
p472
sg31
S'100.0'
p473
sg33
S'Connor Barth'
p474
sg35
S'W26-20'
p475
sg37
S'2011'
p476
sg39
g20
sg40
S'80.0'
p477
sg42
g48
sg43
g20
ssg164
(dp478
g5
S'48'
p479
sg7
g164
sg9
S'--'
p480
sg11
g18
sg13
S'@NO'
p481
sg15
g12
sg16
g18
sg17
S'--'
p482
sg19
g20
sg21
g12
sg23
S'--'
p483
sg25
S'--'
p484
sg27
S'--'
p485
sg29
S'11/06'
p486
sg31
S'100.0'
p487
sg33
S'Connor Barth'
p488
sg35
S'L16-27'
p489
sg37
S'2011'
p490
sg39
g20
sg40
S'100.0'
p491
sg42
g12
sg43
g20
ssg26
(dp492
g5
g160
sg7
g26
sg9
g160
sg11
g160
sg13
g160
sg15
g160
sg16
g160
sg17
g160
sg19
g160
sg21
g160
sg23
g160
sg25
g160
sg27
g160
sg29
S'Bye'
p493
sg31
g160
sg33
S'Connor Barth'
p494
sg35
g160
sg37
S'2011'
p495
sg39
g160
sg40
g160
sg42
g160
sg43
g160
sssS'2010'
p496
(dp497
g3
(dp498
g5
g20
sg7
S'11'
p499
sg9
g75
sg11
g12
sg13
S'@SF'
p500
sg15
g12
sg16
g20
sg17
g20
sg19
g20
sg21
g18
sg23
S'58.3'
p501
sg25
g75
sg27
S'20.3'
p502
sg29
S'11/21'
p503
sg31
S'100.0'
p504
sg33
S'Connor Barth'
p505
sg35
S'W21-0'
p506
sg37
S'2010'
p507
sg39
g20
sg40
S'0.0'
p508
sg42
g18
sg43
g20
ssg44
(dp509
g5
S'32'
p510
sg7
S'10'
p511
sg9
g10
sg11
g12
sg13
S'CAR'
p512
sg15
g12
sg16
g12
sg17
g12
sg19
g20
sg21
g75
sg23
S'68.0'
p513
sg25
g22
sg27
S'20.2'
p514
sg29
S'11/14'
p515
sg31
S'100.0'
p516
sg33
S'Connor Barth'
p517
sg35
S'W31-16'
p518
sg37
S'2010'
p519
sg39
g20
sg40
S'100.0'
p520
sg42
g75
sg43
g20
ssg58
(dp521
g5
S'33'
p522
sg7
S'13'
p523
sg9
g10
sg11
g12
sg13
S'ATL'
p524
sg15
g12
sg16
g12
sg17
g20
sg19
g20
sg21
g18
sg23
S'63.4'
p525
sg25
g10
sg27
S'36.2'
p526
sg29
S'12/05'
p527
sg31
S'100.0'
p528
sg33
S'Connor Barth'
p529
sg35
S'L24-28'
p530
sg37
S'2010'
p531
sg39
g20
sg40
S'100.0'
p532
sg42
g18
sg43
g20
ssg71
(dp533
g5
S'22'
p534
sg7
S'12'
p535
sg9
g18
sg11
g12
sg13
S'@BAL'
p536
sg15
g12
sg16
g12
sg17
g20
sg19
g20
sg21
g12
sg23
S'70.7'
p537
sg25
g18
sg27
S'21.3'
p538
sg29
S'11/28'
p539
sg31
S'100.0'
p540
sg33
S'Connor Barth'
p541
sg35
S'L10-17'
p542
sg37
S'2010'
p543
sg39
g20
sg40
S'100.0'
p544
sg42
g12
sg43
g20
ssg85
(dp545
g5
S'30'
p546
sg7
S'15'
p547
sg9
g22
sg11
g48
sg13
S'DET'
p548
sg15
g12
sg16
g48
sg17
g20
sg19
g20
sg21
g48
sg23
S'58.7'
p549
sg25
g22
sg27
S'15.2'
p550
sg29
S'12/19'
p551
sg31
S'100.0'
p552
sg33
S'Connor Barth'
p553
sg35
S'L20-23'
p554
sg37
S'2010'
p555
sg39
g20
sg40
S'100.0'
p556
sg42
g48
sg43
g20
ssg98
(dp557
g5
S'44'
p558
sg7
S'14'
p559
sg9
g10
sg11
g18
sg13
S'@WAS'
p560
sg15
g12
sg16
g18
sg17
g20
sg19
g20
sg21
g20
sg23
S'52.2'
p561
sg25
g10
sg27
S'14.4'
p562
sg29
S'12/12'
p563
sg31
S'--'
p564
sg33
S'Connor Barth'
p565
sg35
S'W17-16'
p566
sg37
S'2010'
p567
sg39
g20
sg40
S'100.0'
p568
sg42
g20
sg43
g20
ssg111
(dp569
g5
S'48'
p570
sg7
S'17'
p571
sg9
g22
sg11
g18
sg13
S'@NO'
p572
sg15
g12
sg16
g18
sg17
g20
sg19
g20
sg21
g48
sg23
S'67.0'
p573
sg25
g22
sg27
S'23.7'
p574
sg29
S'01/02'
p575
sg31
S'100.0'
p576
sg33
S'Connor Barth'
p577
sg35
S'W23-13'
p578
sg37
S'2010'
p579
sg39
g20
sg40
S'100.0'
p580
sg42
g48
sg43
g20
ssg124
(dp581
g5
S'46'
p582
sg7
S'16'
p583
sg9
g147
sg11
g48
sg13
S'SEA'
p584
sg15
g12
sg16
g12
sg17
g20
sg19
g20
sg21
g10
sg23
S'56.9'
p585
sg25
g147
sg27
S'18.3'
p586
sg29
S'12/26'
p587
sg31
S'100.0'
p588
sg33
S'Connor Barth'
p589
sg35
S'W38-15'
p590
sg37
S'2010'
p591
sg39
g20
sg40
S'50.0'
p592
sg42
g10
sg43
g12
ssg12
(dp593
g5
S'49'
p594
sg7
g12
sg9
g75
sg11
g12
sg13
S'CLE'
p595
sg15
g12
sg16
g12
sg17
g20
sg19
g20
sg21
g48
sg23
S'59.3'
p596
sg25
g75
sg27
S'14.3'
p597
sg29
S'09/12'
p598
sg31
S'100.0'
p599
sg33
S'Connor Barth'
p600
sg35
S'W17-14'
p601
sg37
S'2010'
p602
sg39
g20
sg40
S'100.0'
p603
sg42
g48
sg43
g20
ssg18
(dp604
g5
S'40'
p605
sg7
g18
sg9
g75
sg11
g48
sg13
S'PIT'
p606
sg15
g12
sg16
g48
sg17
g20
sg19
g20
sg21
g12
sg23
S'65.3'
p607
sg25
g75
sg27
S'21.0'
p608
sg29
S'09/26'
p609
sg31
S'100.0'
p610
sg33
S'Connor Barth'
p611
sg35
S'L13-38'
p612
sg37
S'2010'
p613
sg39
g20
sg40
S'100.0'
p614
sg42
g12
sg43
g20
ssg48
(dp615
g5
S'33'
p616
sg7
g48
sg9
g10
sg11
g48
sg13
S'@CAR'
p617
sg15
g12
sg16
g48
sg17
g20
sg19
g20
sg21
g48
sg23
S'63.8'
p618
sg25
g10
sg27
S'18.4'
p619
sg29
S'09/19'
p620
sg31
S'100.0'
p621
sg33
S'Connor Barth'
p622
sg35
S'W20-7'
p623
sg37
S'2010'
p624
sg39
g20
sg40
S'100.0'
p625
sg42
g48
sg43
g20
ssg10
(dp626
g5
S'31'
p627
sg7
g10
sg9
g10
sg11
g12
sg13
S'@CIN'
p628
sg15
g12
sg16
g12
sg17
g20
sg19
g20
sg21
g18
sg23
S'62.4'
p629
sg25
g10
sg27
S'20.4'
p630
sg29
S'10/10'
p631
sg31
S'100.0'
p632
sg33
S'Connor Barth'
p633
sg35
S'W24-21'
p634
sg37
S'2010'
p635
sg39
g20
sg40
S'100.0'
p636
sg42
g18
sg43
g20
ssg75
(dp637
g5
g160
sg7
g75
sg9
g160
sg11
g160
sg13
g160
sg15
g160
sg16
g160
sg17
g160
sg19
g160
sg21
g160
sg23
g160
sg25
g160
sg27
g160
sg29
S'Bye'
p638
sg31
g160
sg33
S'Connor Barth'
p639
sg35
g160
sg37
S'2010'
p640
sg39
g160
sg40
g160
sg42
g160
sg43
g160
ssg147
(dp641
g5
S'53'
p642
sg7
g147
sg9
g22
sg11
g75
sg13
S'STL'
p643
sg15
g12
sg16
g75
sg17
g20
sg19
g20
sg21
g20
sg23
S'68.5'
p644
sg25
g22
sg27
S'23.0'
p645
sg29
S'10/24'
p646
sg31
S'--'
p647
sg33
S'Connor Barth'
p648
sg35
S'W18-17'
p649
sg37
S'2010'
p650
sg39
g20
sg40
S'100.0'
p651
sg42
g20
sg43
g20
ssg22
(dp652
g5
g20
sg7
g22
sg9
g12
sg11
g48
sg13
S'NO'
p653
sg15
g12
sg16
g20
sg17
g20
sg19
g20
sg21
g20
sg23
S'41.0'
p654
sg25
g48
sg27
S'8.0'
p655
sg29
S'10/17'
p656
sg31
S'--'
p657
sg33
S'Connor Barth'
p658
sg35
S'L6-31'
p659
sg37
S'2010'
p660
sg39
g20
sg40
S'0.0'
p661
sg42
g20
sg43
g20
ssg164
(dp662
g5
g20
sg7
g164
sg9
g18
sg11
g20
sg13
S'@ATL'
p663
sg15
g12
sg16
g20
sg17
g20
sg19
g20
sg21
g18
sg23
S'53.5'
p664
sg25
g75
sg27
S'23.3'
p665
sg29
S'11/07'
p666
sg31
S'100.0'
p667
sg33
S'Connor Barth'
p668
sg35
S'L21-27'
p669
sg37
S'2010'
p670
sg39
g20
sg40
S'--'
p671
sg42
g18
sg43
g20
ssg26
(dp672
g5
S'21'
p673
sg7
g26
sg9
g22
sg11
g48
sg13
S'@ARI'
p674
sg15
g12
sg16
g12
sg17
g20
sg19
g20
sg21
g10
sg23
S'65.3'
p675
sg25
g22
sg27
S'23.8'
p676
sg29
S'10/31'
p677
sg31
S'100.0'
p678
sg33
S'Connor Barth'
p679
sg35
S'W38-35'
p680
sg37
S'2010'
p681
sg39
g20
sg40
S'50.0'
p682
sg42
g10
sg43
g12
sssS'2012'
p683
(dp684
g3
(dp685
g5
S'51'
p686
sg7
S'11'
p687
sg9
S'--'
p688
sg11
g48
sg13
S'@CAR'
p689
sg15
g12
sg16
g48
sg17
S'--'
p690
sg19
g20
sg21
g12
sg23
S'--'
p691
sg25
S'--'
p692
sg27
S'--'
p693
sg29
S'11/18'
p694
sg31
S'100.0'
p695
sg33
S'Connor Barth'
p696
sg35
S'W27-21'
p697
sg37
S'2012'
p698
sg39
g20
sg40
S'100.0'
p699
sg42
g12
sg43
g20
ssg44
(dp700
g5
S'45'
p701
sg7
S'10'
p702
sg9
S'--'
p703
sg11
g48
sg13
S'SD'
p704
sg15
g12
sg16
g48
sg17
S'--'
p705
sg19
g20
sg21
g75
sg23
S'--'
p706
sg25
S'--'
p707
sg27
S'--'
p708
sg29
S'11/11'
p709
sg31
S'100.0'
p710
sg33
S'Connor Barth'
p711
sg35
S'W34-24'
p712
sg37
S'2012'
p713
sg39
g20
sg40
S'100.0'
p714
sg42
g75
sg43
g20
ssg58
(dp715
g5
S'55'
p716
sg7
S'13'
p717
sg9
S'--'
p718
sg11
g18
sg13
S'@DEN'
p719
sg15
g12
sg16
g18
sg17
S'--'
p720
sg19
g20
sg21
g48
sg23
S'--'
p721
sg25
S'--'
p722
sg27
S'--'
p723
sg29
S'12/02'
p724
sg31
S'100.0'
p725
sg33
S'Connor Barth'
p726
sg35
S'L23-31'
p727
sg37
S'2012'
p728
sg39
g20
sg40
S'100.0'
p729
sg42
g48
sg43
g20
ssg71
(dp730
g5
S'48'
p731
sg7
S'12'
p732
sg9
S'--'
p733
sg11
g75
sg13
S'ATL'
p734
sg15
g12
sg16
g18
sg17
S'--'
p735
sg19
g20
sg21
g48
sg23
S'--'
p736
sg25
S'--'
p737
sg27
S'--'
p738
sg29
S'11/25'
p739
sg31
S'100.0'
p740
sg33
S'Connor Barth'
p741
sg35
S'L23-24'
p742
sg37
S'2012'
p743
sg39
g20
sg40
S'75.0'
p744
sg42
g48
sg43
g20
ssg85
(dp745
g5
S'--'
p746
sg7
S'15'
p747
sg9
S'--'
p748
sg11
S'--'
p749
sg13
S'@NO'
p750
sg15
g20
sg16
S'--'
p751
sg17
S'--'
p752
sg19
g20
sg21
S'--'
p753
sg23
S'--'
p754
sg25
S'--'
p755
sg27
S'--'
p756
sg29
S'12/16'
p757
sg31
S'--'
p758
sg33
S'Connor Barth'
p759
sg35
S'L0-41'
p760
sg37
S'2012'
p761
sg39
S'--'
p762
sg40
S'--'
p763
sg42
S'--'
p764
sg43
S'--'
p765
ssg98
(dp766
g5
g20
sg7
S'14'
p767
sg9
S'--'
p768
sg11
g20
sg13
S'PHI'
p769
sg15
g12
sg16
g20
sg17
S'--'
p770
sg19
g20
sg21
g18
sg23
S'--'
p771
sg25
S'--'
p772
sg27
S'--'
p773
sg29
S'12/09'
p774
sg31
S'100.0'
p775
sg33
S'Connor Barth'
p776
sg35
S'L21-23'
p777
sg37
S'2012'
p778
sg39
g20
sg40
S'--'
p779
sg42
g18
sg43
g20
ssg111
(dp780
g5
S'48'
p781
sg7
S'17'
p782
sg9
S'--'
p783
sg11
g18
sg13
S'@ATL'
p784
sg15
g12
sg16
g18
sg17
S'--'
p785
sg19
g20
sg21
g12
sg23
S'--'
p786
sg25
S'--'
p787
sg27
S'--'
p788
sg29
S'12/30'
p789
sg31
S'100.0'
p790
sg33
S'Connor Barth'
p791
sg35
S'W22-17'
p792
sg37
S'2012'
p793
sg39
g20
sg40
S'100.0'
p794
sg42
g12
sg43
g20
ssg124
(dp795
g5
S'49'
p796
sg7
S'16'
p797
sg9
S'--'
p798
sg11
g48
sg13
S'STL'
p799
sg15
g12
sg16
g48
sg17
S'--'
p800
sg19
g20
sg21
g12
sg23
S'--'
p801
sg25
S'--'
p802
sg27
S'--'
p803
sg29
S'12/23'
p804
sg31
S'100.0'
p805
sg33
S'Connor Barth'
p806
sg35
S'L13-28'
p807
sg37
S'2012'
p808
sg39
g20
sg40
S'100.0'
p809
sg42
g12
sg43
g20
ssg12
(dp810
g5
S'40'
p811
sg7
g12
sg9
S'--'
p812
sg11
g18
sg13
S'CAR'
p813
sg15
g12
sg16
g18
sg17
S'--'
p814
sg19
g20
sg21
g12
sg23
S'--'
p815
sg25
S'--'
p816
sg27
S'--'
p817
sg29
S'09/09'
p818
sg31
S'100.0'
p819
sg33
S'Connor Barth'
p820
sg35
S'W16-10'
p821
sg37
S'2012'
p822
sg39
g20
sg40
S'100.0'
p823
sg42
g12
sg43
g20
ssg18
(dp824
g5
S'28'
p825
sg7
g18
sg9
S'--'
p826
sg11
g12
sg13
S'@DAL'
p827
sg15
g12
sg16
g12
sg17
S'--'
p828
sg19
g20
sg21
g12
sg23
S'--'
p829
sg25
S'--'
p830
sg27
S'--'
p831
sg29
S'09/23'
p832
sg31
S'100.0'
p833
sg33
S'Connor Barth'
p834
sg35
S'L10-16'
p835
sg37
S'2012'
p836
sg39
g20
sg40
S'100.0'
p837
sg42
g12
sg43
g20
ssg48
(dp838
g5
S'52'
p839
sg7
g48
sg9
S'--'
p840
sg11
g48
sg13
S'@NYG'
p841
sg15
g12
sg16
g48
sg17
S'--'
p842
sg19
g20
sg21
g75
sg23
S'--'
p843
sg25
S'--'
p844
sg27
S'--'
p845
sg29
S'09/16'
p846
sg31
S'100.0'
p847
sg33
S'Connor Barth'
p848
sg35
S'L34-41'
p849
sg37
S'2012'
p850
sg39
g20
sg40
S'100.0'
p851
sg42
g75
sg43
g20
ssg10
(dp852
g5
g160
sg7
g10
sg9
g160
sg11
g160
sg13
g160
sg15
g160
sg16
g160
sg17
g160
sg19
g160
sg21
g160
sg23
g160
sg25
g160
sg27
g160
sg29
S'Bye'
p853
sg31
g160
sg33
S'Connor Barth'
p854
sg35
g160
sg37
S'2012'
p855
sg39
g160
sg40
g160
sg42
g160
sg43
g160
ssg75
(dp856
g5
S'57'
p857
sg7
g75
sg9
S'--'
p858
sg11
g18
sg13
S'WAS'
p859
sg15
g12
sg16
g18
sg17
S'--'
p860
sg19
g20
sg21
g12
sg23
S'--'
p861
sg25
S'--'
p862
sg27
S'--'
p863
sg29
S'09/30'
p864
sg31
S'100.0'
p865
sg33
S'Connor Barth'
p866
sg35
S'L22-24'
p867
sg37
S'2012'
p868
sg39
g20
sg40
S'100.0'
p869
sg42
g12
sg43
g20
ssg147
(dp870
g5
g20
sg7
g147
sg9
S'--'
p871
sg11
g12
sg13
S'NO'
p872
sg15
g12
sg16
g20
sg17
S'--'
p873
sg19
g20
sg21
g75
sg23
S'--'
p874
sg25
S'--'
p875
sg27
S'--'
p876
sg29
S'10/21'
p877
sg31
S'100.0'
p878
sg33
S'Connor Barth'
p879
sg35
S'L28-35'
p880
sg37
S'2012'
p881
sg39
g20
sg40
S'0.0'
p882
sg42
g75
sg43
g20
ssg22
(dp883
g5
S'27'
p884
sg7
g22
sg9
S'--'
p885
sg11
g48
sg13
S'KC'
p886
sg15
g12
sg16
g12
sg17
S'--'
p887
sg19
g20
sg21
g10
sg23
S'--'
p888
sg25
S'--'
p889
sg27
S'--'
p890
sg29
S'10/14'
p891
sg31
S'100.0'
p892
sg33
S'Connor Barth'
p893
sg35
S'W38-10'
p894
sg37
S'2012'
p895
sg39
g20
sg40
S'50.0'
p896
sg42
g10
sg43
g20
ssg164
(dp897
g5
g20
sg7
g164
sg9
S'--'
p898
sg11
g48
sg13
S'@OAK'
p899
sg15
g12
sg16
g20
sg17
S'--'
p900
sg19
g20
sg21
g22
sg23
S'--'
p901
sg25
S'--'
p902
sg27
S'--'
p903
sg29
S'11/04'
p904
sg31
S'100.0'
p905
sg33
S'Connor Barth'
p906
sg35
S'W42-32'
p907
sg37
S'2012'
p908
sg39
g20
sg40
S'0.0'
p909
sg42
g22
sg43
g12
ssg26
(dp910
g5
S'40'
p911
sg7
g26
sg9
S'--'
p912
sg11
g18
sg13
S'@MIN'
p913
sg15
g12
sg16
g18
sg17
S'--'
p914
sg19
g20
sg21
g18
sg23
S'--'
p915
sg25
S'--'
p916
sg27
S'--'
p917
sg29
S'10/25'
p918
sg31
S'100.0'
p919
sg33
S'Connor Barth'
p920
sg35
S'W36-17'
p921
sg37
S'2012'
p922
sg39
g20
sg40
S'100.0'
p923
sg42
g18
sg43
g20
sss.