(dp0
S'2015'
p1
(dp2
S'11'
p3
(dp4
S'FGLng'
p5
S'52'
p6
sS'WK'
p7
S'11'
p8
sS'Ret'
p9
S'--'
p10
sS'FGAtt'
p11
S'3'
p12
sS'Opp'
p13
S'@NE'
p14
sS'G'
p15
S'1'
p16
sS'FGM'
p17
S'2'
p18
sS'TB'
p19
S'--'
p20
sS'GS'
p21
S'0'
p22
sS'XPM'
p23
g16
sS'KOAvg'
p24
S'--'
p25
sS'KO'
p26
S'--'
p27
sS'RetAvg'
p28
S'--'
p29
sS'Game Date'
p30
S'11/23'
p31
sS'XPPct'
p32
S'100.0'
p33
sS'Player'
p34
S'Dan Carpenter'
p35
sS'Result'
p36
S'L13-20'
p37
sS'Year'
p38
S'2015'
p39
sS'XPBlk'
p40
g22
sS'FGPct'
p41
S'66.7'
p42
sS'XPAtt'
p43
g16
sS'FGBlk'
p44
g22
ssS'10'
p45
(dp46
g5
S'47'
p47
sg7
S'10'
p48
sg9
S'--'
p49
sg11
g12
sg13
S'@NYJ'
p50
sg15
g16
sg17
g12
sg19
S'--'
p51
sg21
g22
sg23
g16
sg24
S'--'
p52
sg26
S'--'
p53
sg28
S'--'
p54
sg30
S'11/12'
p55
sg32
S'50.0'
p56
sg34
S'Dan Carpenter'
p57
sg36
S'W22-17'
p58
sg38
S'2015'
p59
sg40
g22
sg41
S'100.0'
p60
sg43
g18
sg44
g22
ssS'13'
p61
(dp62
g5
S'36'
p63
sg7
S'13'
p64
sg9
S'--'
p65
sg11
g18
sg13
S'HOU'
p66
sg15
g16
sg17
g16
sg19
S'--'
p67
sg21
g22
sg23
g12
sg24
S'--'
p68
sg26
S'--'
p69
sg28
S'--'
p70
sg30
S'12/06'
p71
sg32
S'75.0'
p72
sg34
S'Dan Carpenter'
p73
sg36
S'W30-21'
p74
sg38
S'2015'
p75
sg40
g22
sg41
S'50.0'
p76
sg43
S'4'
p77
sg44
g22
ssS'12'
p78
(dp79
g5
S'27'
p80
sg7
S'12'
p81
sg9
S'--'
p82
sg11
g16
sg13
S'@KC'
p83
sg15
g16
sg17
g16
sg19
S'--'
p84
sg21
g22
sg23
g16
sg24
S'--'
p85
sg26
S'--'
p86
sg28
S'--'
p87
sg30
S'11/29'
p88
sg32
S'50.0'
p89
sg34
S'Dan Carpenter'
p90
sg36
S'L22-30'
p91
sg38
S'2015'
p92
sg40
g22
sg41
S'100.0'
p93
sg43
g18
sg44
g22
ssS'15'
p94
(dp95
g5
S'32'
p96
sg7
S'15'
p97
sg9
S'--'
p98
sg11
g16
sg13
S'@WAS'
p99
sg15
g16
sg17
g16
sg19
S'--'
p100
sg21
g22
sg23
g18
sg24
S'--'
p101
sg26
S'--'
p102
sg28
S'--'
p103
sg30
S'12/20'
p104
sg32
S'100.0'
p105
sg34
S'Dan Carpenter'
p106
sg36
S'L25-35'
p107
sg38
S'2015'
p108
sg40
g22
sg41
S'100.0'
p109
sg43
g18
sg44
g22
ssS'14'
p110
(dp111
g5
S'40'
p112
sg7
S'14'
p113
sg9
S'--'
p114
sg11
g18
sg13
S'@PHI'
p115
sg15
g16
sg17
g18
sg19
S'--'
p116
sg21
g22
sg23
g18
sg24
S'--'
p117
sg26
S'--'
p118
sg28
S'--'
p119
sg30
S'12/13'
p120
sg32
S'100.0'
p121
sg34
S'Dan Carpenter'
p122
sg36
S'L20-23'
p123
sg38
S'2015'
p124
sg40
g22
sg41
S'100.0'
p125
sg43
g18
sg44
g22
ssS'17'
p126
(dp127
g5
S'42'
p128
sg7
S'17'
p129
sg9
S'--'
p130
sg11
g12
sg13
S'NYJ'
p131
sg15
g16
sg17
g12
sg19
S'--'
p132
sg21
g22
sg23
g16
sg24
S'--'
p133
sg26
S'--'
p134
sg28
S'--'
p135
sg30
S'01/03'
p136
sg32
S'50.0'
p137
sg34
S'Dan Carpenter'
p138
sg36
S'W22-17'
p139
sg38
S'2015'
p140
sg40
g22
sg41
S'100.0'
p141
sg43
g18
sg44
g22
ssS'16'
p142
(dp143
g5
S'32'
p144
sg7
S'16'
p145
sg9
S'--'
p146
sg11
g16
sg13
S'DAL'
p147
sg15
g16
sg17
g16
sg19
S'--'
p148
sg21
g22
sg23
g16
sg24
S'--'
p149
sg26
S'--'
p150
sg28
S'--'
p151
sg30
S'12/27'
p152
sg32
S'50.0'
p153
sg34
S'Dan Carpenter'
p154
sg36
S'W16-6'
p155
sg38
S'2015'
p156
sg40
g22
sg41
S'100.0'
p157
sg43
g18
sg44
g22
ssg16
(dp158
g5
S'45'
p159
sg7
g16
sg9
S'--'
p160
sg11
g18
sg13
S'IND'
p161
sg15
g16
sg17
g18
sg19
S'--'
p162
sg21
g22
sg23
g12
sg24
S'--'
p163
sg26
S'--'
p164
sg28
S'--'
p165
sg30
S'09/13'
p166
sg32
S'100.0'
p167
sg34
S'Dan Carpenter'
p168
sg36
S'W27-14'
p169
sg38
S'2015'
p170
sg40
g22
sg41
S'100.0'
p171
sg43
g12
sg44
g22
ssg12
(dp172
g5
S'51'
p173
sg7
g12
sg9
S'--'
p174
sg11
g12
sg13
S'@MIA'
p175
sg15
g16
sg17
g18
sg19
S'--'
p176
sg21
g22
sg23
S'5'
p177
sg24
S'--'
p178
sg26
S'--'
p179
sg28
S'--'
p180
sg30
S'09/27'
p181
sg32
S'100.0'
p182
sg34
S'Dan Carpenter'
p183
sg36
S'W41-14'
p184
sg38
S'2015'
p185
sg40
g22
sg41
S'66.7'
p186
sg43
g177
sg44
g22
ssg18
(dp187
g5
g22
sg7
g18
sg9
S'--'
p188
sg11
g22
sg13
S'NE'
p189
sg15
g16
sg17
g22
sg19
S'--'
p190
sg21
g22
sg23
g18
sg24
S'--'
p191
sg26
S'--'
p192
sg28
S'--'
p193
sg30
S'09/20'
p194
sg32
S'66.7'
p195
sg34
S'Dan Carpenter'
p196
sg36
S'L32-40'
p197
sg38
S'2015'
p198
sg40
g22
sg41
S'--'
p199
sg43
g12
sg44
g22
ssg177
(dp200
g5
g22
sg7
g177
sg9
S'--'
p201
sg11
g22
sg13
S'@TEN'
p202
sg15
g16
sg17
g22
sg19
S'--'
p203
sg21
g22
sg23
g18
sg24
S'--'
p204
sg26
S'--'
p205
sg28
S'--'
p206
sg30
S'10/11'
p207
sg32
S'100.0'
p208
sg34
S'Dan Carpenter'
p209
sg36
S'W14-13'
p210
sg38
S'2015'
p211
sg40
g22
sg41
S'--'
p212
sg43
g18
sg44
g22
ssg77
(dp213
g5
S'51'
p214
sg7
g77
sg9
S'--'
p215
sg11
g18
sg13
S'NYG'
p216
sg15
g16
sg17
g16
sg19
S'--'
p217
sg21
g22
sg23
g16
sg24
S'--'
p218
sg26
S'--'
p219
sg28
S'--'
p220
sg30
S'10/04'
p221
sg32
S'100.0'
p222
sg34
S'Dan Carpenter'
p223
sg36
S'L10-24'
p224
sg38
S'2015'
p225
sg40
g22
sg41
S'50.0'
p226
sg43
g16
sg44
g22
ssS'7'
p227
(dp228
g5
S'38'
p229
sg7
g227
sg9
S'--'
p230
sg11
g12
sg13
S'@JAC'
p231
sg15
g16
sg17
g12
sg19
S'--'
p232
sg21
g22
sg23
g18
sg24
S'--'
p233
sg26
S'--'
p234
sg28
S'--'
p235
sg30
S'10/25'
p236
sg32
S'100.0'
p237
sg34
S'Dan Carpenter'
p238
sg36
S'L31-34'
p239
sg38
S'2015'
p240
sg40
g22
sg41
S'100.0'
p241
sg43
g18
sg44
g22
ssS'6'
p242
(dp243
g5
g22
sg7
g242
sg9
g77
sg11
g22
sg13
S'CIN'
p244
sg15
g16
sg17
g22
sg19
g22
sg21
g22
sg23
g12
sg24
S'53.3'
p245
sg26
g77
sg28
S'21.0'
p246
sg30
S'10/18'
p247
sg32
S'100.0'
p248
sg34
S'Dan Carpenter'
p249
sg36
S'L21-34'
p250
sg38
S'2015'
p251
sg40
g22
sg41
S'--'
p252
sg43
g12
sg44
g22
ssS'9'
p253
(dp254
g5
S'43'
p255
sg7
g253
sg9
S'--'
p256
sg11
g16
sg13
S'MIA'
p257
sg15
g16
sg17
g16
sg19
S'--'
p258
sg21
g22
sg23
g77
sg24
S'--'
p259
sg26
S'--'
p260
sg28
S'--'
p261
sg30
S'11/08'
p262
sg32
S'100.0'
p263
sg34
S'Dan Carpenter'
p264
sg36
S'W33-17'
p265
sg38
S'2015'
p266
sg40
g22
sg41
S'100.0'
p267
sg43
g77
sg44
g22
ssS'8'
p268
(dp269
g5
S''
p270
sg7
g268
sg9
g270
sg11
g270
sg13
g270
sg15
g270
sg17
g270
sg19
g270
sg21
g270
sg23
g270
sg24
g270
sg26
g270
sg28
g270
sg30
S'Bye'
p271
sg32
g270
sg34
S'Dan Carpenter'
p272
sg36
g270
sg38
S'2015'
p273
sg40
g270
sg41
g270
sg43
g270
sg44
g270
sssS'2014'
p274
(dp275
g3
(dp276
g5
S'46'
p277
sg7
S'11'
p278
sg9
S'--'
p279
sg11
g77
sg13
S'@MIA'
p280
sg15
g16
sg17
g12
sg19
S'--'
p281
sg21
g22
sg23
g22
sg24
S'--'
p282
sg26
S'--'
p283
sg28
S'--'
p284
sg30
S'11/13'
p285
sg32
S'--'
p286
sg34
S'Dan Carpenter'
p287
sg36
S'L9-22'
p288
sg38
S'2014'
p289
sg40
g22
sg41
S'75.0'
p290
sg43
g22
sg44
g22
ssg45
(dp291
g5
S'26'
p292
sg7
S'10'
p293
sg9
S'--'
p294
sg11
g18
sg13
S'KC'
p295
sg15
g16
sg17
g18
sg19
S'--'
p296
sg21
g22
sg23
g16
sg24
S'--'
p297
sg26
S'--'
p298
sg28
S'--'
p299
sg30
S'11/09'
p300
sg32
S'100.0'
p301
sg34
S'Dan Carpenter'
p302
sg36
S'L13-17'
p303
sg38
S'2014'
p304
sg40
g22
sg41
S'100.0'
p305
sg43
g16
sg44
g22
ssg61
(dp306
g5
S'49'
p307
sg7
S'13'
p308
sg9
S'--'
p309
sg11
g177
sg13
S'CLE'
p310
sg15
g16
sg17
g77
sg19
S'--'
p311
sg21
g22
sg23
g18
sg24
S'--'
p312
sg26
S'--'
p313
sg28
S'--'
p314
sg30
S'11/30'
p315
sg32
S'100.0'
p316
sg34
S'Dan Carpenter'
p317
sg36
S'W26-10'
p318
sg38
S'2014'
p319
sg40
g22
sg41
S'80.0'
p320
sg43
g18
sg44
g16
ssg78
(dp321
g5
S'53'
p322
sg7
S'12'
p323
sg9
S'--'
p324
sg11
g16
sg13
S'NYJ'
p325
sg15
g16
sg17
g16
sg19
S'--'
p326
sg21
g22
sg23
g177
sg24
S'--'
p327
sg26
S'--'
p328
sg28
S'--'
p329
sg30
S'11/24'
p330
sg32
S'100.0'
p331
sg34
S'Dan Carpenter'
p332
sg36
S'W38-3'
p333
sg38
S'2014'
p334
sg40
g22
sg41
S'100.0'
p335
sg43
g177
sg44
g22
ssg94
(dp336
g5
S'51'
p337
sg7
S'15'
p338
sg9
S'--'
p339
sg11
g77
sg13
S'GB'
p340
sg15
g16
sg17
g77
sg19
S'--'
p341
sg21
g22
sg23
g16
sg24
S'--'
p342
sg26
S'--'
p343
sg28
S'--'
p344
sg30
S'12/14'
p345
sg32
S'100.0'
p346
sg34
S'Dan Carpenter'
p347
sg36
S'W21-13'
p348
sg38
S'2014'
p349
sg40
g22
sg41
S'100.0'
p350
sg43
g16
sg44
g22
ssg110
(dp351
g5
S'44'
p352
sg7
S'14'
p353
sg9
S'--'
p354
sg11
g16
sg13
S'@DEN'
p355
sg15
g16
sg17
g16
sg19
S'--'
p356
sg21
g22
sg23
g18
sg24
S'--'
p357
sg26
S'--'
p358
sg28
S'--'
p359
sg30
S'12/07'
p360
sg32
S'100.0'
p361
sg34
S'Dan Carpenter'
p362
sg36
S'L17-24'
p363
sg38
S'2014'
p364
sg40
g22
sg41
S'100.0'
p365
sg43
g18
sg44
g22
ssg126
(dp366
g5
S'48'
p367
sg7
S'17'
p368
sg9
S'--'
p369
sg11
g16
sg13
S'@NE'
p370
sg15
g16
sg17
g16
sg19
S'--'
p371
sg21
g22
sg23
g18
sg24
S'--'
p372
sg26
S'--'
p373
sg28
S'--'
p374
sg30
S'12/28'
p375
sg32
S'100.0'
p376
sg34
S'Dan Carpenter'
p377
sg36
S'W17-9'
p378
sg38
S'2014'
p379
sg40
g22
sg41
S'100.0'
p380
sg43
g18
sg44
g22
ssg142
(dp381
g5
S'54'
p382
sg7
S'16'
p383
sg9
S'--'
p384
sg11
g16
sg13
S'@OAK'
p385
sg15
g16
sg17
g16
sg19
S'--'
p386
sg21
g22
sg23
g12
sg24
S'--'
p387
sg26
S'--'
p388
sg28
S'--'
p389
sg30
S'12/21'
p390
sg32
S'100.0'
p391
sg34
S'Dan Carpenter'
p392
sg36
S'L24-26'
p393
sg38
S'2014'
p394
sg40
g22
sg41
S'100.0'
p395
sg43
g12
sg44
g22
ssg16
(dp396
g5
S'50'
p397
sg7
g16
sg9
S'--'
p398
sg11
g12
sg13
S'@CHI'
p399
sg15
g16
sg17
g12
sg19
S'--'
p400
sg21
g22
sg23
g18
sg24
S'--'
p401
sg26
S'--'
p402
sg28
S'--'
p403
sg30
S'09/07'
p404
sg32
S'100.0'
p405
sg34
S'Dan Carpenter'
p406
sg36
S'W23-20'
p407
sg38
S'2014'
p408
sg40
g22
sg41
S'100.0'
p409
sg43
g18
sg44
g22
ssg12
(dp410
g5
S'45'
p411
sg7
g12
sg9
S'--'
p412
sg11
g16
sg13
S'SD'
p413
sg15
g16
sg17
g16
sg19
S'--'
p414
sg21
g22
sg23
g16
sg24
S'--'
p415
sg26
S'--'
p416
sg28
S'--'
p417
sg30
S'09/21'
p418
sg32
S'100.0'
p419
sg34
S'Dan Carpenter'
p420
sg36
S'L10-22'
p421
sg38
S'2014'
p422
sg40
g22
sg41
S'100.0'
p423
sg43
g16
sg44
g22
ssg18
(dp424
g5
S'38'
p425
sg7
g18
sg9
S'--'
p426
sg11
g242
sg13
S'MIA'
p427
sg15
g16
sg17
g177
sg19
S'--'
p428
sg21
g22
sg23
g18
sg24
S'--'
p429
sg26
S'--'
p430
sg28
S'--'
p431
sg30
S'09/14'
p432
sg32
S'100.0'
p433
sg34
S'Dan Carpenter'
p434
sg36
S'W29-10'
p435
sg38
S'2014'
p436
sg40
g22
sg41
S'83.3'
p437
sg43
g18
sg44
g22
ssg177
(dp438
g5
S'58'
p439
sg7
g177
sg9
S'--'
p440
sg11
g77
sg13
S'@DET'
p441
sg15
g16
sg17
g12
sg19
S'--'
p442
sg21
g22
sg23
g22
sg24
S'--'
p443
sg26
S'--'
p444
sg28
S'--'
p445
sg30
S'10/05'
p446
sg32
S'--'
p447
sg34
S'Dan Carpenter'
p448
sg36
S'W17-14'
p449
sg38
S'2014'
p450
sg40
g22
sg41
S'75.0'
p451
sg43
g22
sg44
g22
ssg77
(dp452
g5
S'31'
p453
sg7
g77
sg9
S'--'
p454
sg11
g16
sg13
S'@HOU'
p455
sg15
g16
sg17
g16
sg19
S'--'
p456
sg21
g22
sg23
g18
sg24
S'--'
p457
sg26
S'--'
p458
sg28
S'--'
p459
sg30
S'09/28'
p460
sg32
S'100.0'
p461
sg34
S'Dan Carpenter'
p462
sg36
S'L17-23'
p463
sg38
S'2014'
p464
sg40
g22
sg41
S'100.0'
p465
sg43
g18
sg44
g22
ssg227
(dp466
g5
S'31'
p467
sg7
g227
sg9
S'--'
p468
sg11
g16
sg13
S'MIN'
p469
sg15
g16
sg17
g16
sg19
S'--'
p470
sg21
g22
sg23
g18
sg24
S'--'
p471
sg26
S'--'
p472
sg28
S'--'
p473
sg30
S'10/19'
p474
sg32
S'100.0'
p475
sg34
S'Dan Carpenter'
p476
sg36
S'W17-16'
p477
sg38
S'2014'
p478
sg40
g22
sg41
S'100.0'
p479
sg43
g18
sg44
g22
ssg242
(dp480
g5
g22
sg7
g242
sg9
S'--'
p481
sg11
g22
sg13
S'NE'
p482
sg15
g16
sg17
g22
sg19
S'--'
p483
sg21
g22
sg23
g18
sg24
S'--'
p484
sg26
S'--'
p485
sg28
S'--'
p486
sg30
S'10/12'
p487
sg32
S'100.0'
p488
sg34
S'Dan Carpenter'
p489
sg36
S'L22-37'
p490
sg38
S'2014'
p491
sg40
g22
sg41
S'--'
p492
sg43
g18
sg44
g22
ssg253
(dp493
g5
g270
sg7
g253
sg9
g270
sg11
g270
sg13
g270
sg15
g270
sg17
g270
sg19
g270
sg21
g270
sg23
g270
sg24
g270
sg26
g270
sg28
g270
sg30
S'Bye'
p494
sg32
g270
sg34
S'Dan Carpenter'
p495
sg36
g270
sg38
S'2014'
p496
sg40
g270
sg41
g270
sg43
g270
sg44
g270
ssg268
(dp497
g5
S'53'
p498
sg7
g268
sg9
S'--'
p499
sg11
g12
sg13
S'@NYJ'
p500
sg15
g16
sg17
g12
sg19
S'--'
p501
sg21
g22
sg23
g77
sg24
S'--'
p502
sg26
S'--'
p503
sg28
S'--'
p504
sg30
S'10/26'
p505
sg32
S'80.0'
p506
sg34
S'Dan Carpenter'
p507
sg36
S'W43-23'
p508
sg38
S'2014'
p509
sg40
g22
sg41
S'100.0'
p510
sg43
g177
sg44
g22
sssS'2011'
p511
(dp512
g3
(dp513
g5
S'--'
p514
sg7
S'11'
p515
sg9
S'--'
p516
sg11
S'--'
p517
sg13
S'BUF'
p518
sg15
g22
sg17
S'--'
p519
sg19
S'--'
p520
sg21
g22
sg23
S'--'
p521
sg24
S'--'
p522
sg26
S'--'
p523
sg28
S'--'
p524
sg30
S'11/20'
p525
sg32
S'--'
p526
sg34
S'Dan Carpenter'
p527
sg36
S'W35-8'
p528
sg38
S'2011'
p529
sg40
S'--'
p530
sg41
S'--'
p531
sg43
S'--'
p532
sg44
S'--'
p533
ssg45
(dp534
g5
S'28'
p535
sg7
S'10'
p536
sg9
g18
sg11
g12
sg13
S'WAS'
p537
sg15
g16
sg17
g18
sg19
g12
sg21
g22
sg23
g18
sg24
S'65.8'
p538
sg26
g177
sg28
S'19.0'
p539
sg30
S'11/13'
p540
sg32
S'100.0'
p541
sg34
S'Dan Carpenter'
p542
sg36
S'W20-9'
p543
sg38
S'2011'
p544
sg40
g22
sg41
S'66.7'
p545
sg43
g18
sg44
g22
ssg61
(dp546
g5
S'48'
p547
sg7
S'13'
p548
sg9
g22
sg11
g18
sg13
S'OAK'
p549
sg15
g16
sg17
g18
sg19
g227
sg21
g22
sg23
g77
sg24
S'67.7'
p550
sg26
g227
sg28
S'--'
p551
sg30
S'12/04'
p552
sg32
S'100.0'
p553
sg34
S'Dan Carpenter'
p554
sg36
S'W34-14'
p555
sg38
S'2011'
p556
sg40
g22
sg41
S'100.0'
p557
sg43
g77
sg44
g22
ssg78
(dp558
g5
S'--'
p559
sg7
S'12'
p560
sg9
S'--'
p561
sg11
S'--'
p562
sg13
S'@DAL'
p563
sg15
g22
sg17
S'--'
p564
sg19
S'--'
p565
sg21
g22
sg23
S'--'
p566
sg24
S'--'
p567
sg26
S'--'
p568
sg28
S'--'
p569
sg30
S'11/24'
p570
sg32
S'--'
p571
sg34
S'Dan Carpenter'
p572
sg36
S'L19-20'
p573
sg38
S'2011'
p574
sg40
S'--'
p575
sg41
S'--'
p576
sg43
S'--'
p577
sg44
S'--'
p578
ssg94
(dp579
g5
S'26'
p580
sg7
S'15'
p581
sg9
g77
sg11
g12
sg13
S'@BUF'
p582
sg15
g16
sg17
g12
sg19
g12
sg21
g22
sg23
g12
sg24
S'68.3'
p583
sg26
g227
sg28
S'33.5'
p584
sg30
S'12/18'
p585
sg32
S'100.0'
p586
sg34
S'Dan Carpenter'
p587
sg36
S'W30-23'
p588
sg38
S'2011'
p589
sg40
g22
sg41
S'100.0'
p590
sg43
g12
sg44
g22
ssg110
(dp591
g5
S'22'
p592
sg7
S'14'
p593
sg9
g22
sg11
g18
sg13
S'PHI'
p594
sg15
g16
sg17
g16
sg19
g12
sg21
g22
sg23
g16
sg24
S'61.7'
p595
sg26
g12
sg28
S'--'
p596
sg30
S'12/11'
p597
sg32
S'100.0'
p598
sg34
S'Dan Carpenter'
p599
sg36
S'L10-26'
p600
sg38
S'2011'
p601
sg40
g22
sg41
S'50.0'
p602
sg43
g16
sg44
g22
ssg126
(dp603
g5
S'58'
p604
sg7
S'17'
p605
sg9
g18
sg11
g77
sg13
S'NYJ'
p606
sg15
g16
sg17
g77
sg19
g12
sg21
g22
sg23
g16
sg24
S'67.4'
p607
sg26
g177
sg28
S'25.5'
p608
sg30
S'01/01'
p609
sg32
S'100.0'
p610
sg34
S'Dan Carpenter'
p611
sg36
S'W19-17'
p612
sg38
S'2011'
p613
sg40
g22
sg41
S'100.0'
p614
sg43
g16
sg44
g22
ssg142
(dp615
g5
S'47'
p616
sg7
S'16'
p617
sg9
g12
sg11
g16
sg13
S'@NE'
p618
sg15
g16
sg17
g16
sg19
g18
sg21
g22
sg23
g12
sg24
S'68.4'
p619
sg26
g177
sg28
S'27.7'
p620
sg30
S'12/24'
p621
sg32
S'100.0'
p622
sg34
S'Dan Carpenter'
p623
sg36
S'L24-27'
p624
sg38
S'2011'
p625
sg40
g22
sg41
S'100.0'
p626
sg43
g12
sg44
g22
ssg16
(dp627
g5
S'20'
p628
sg7
g16
sg9
g77
sg11
g16
sg13
S'NE'
p629
sg15
g16
sg17
g16
sg19
g22
sg21
g22
sg23
g12
sg24
S'62.8'
p630
sg26
g77
sg28
S'24.5'
p631
sg30
S'09/12'
p632
sg32
S'100.0'
p633
sg34
S'Dan Carpenter'
p634
sg36
S'L24-38'
p635
sg38
S'2011'
p636
sg40
g22
sg41
S'100.0'
p637
sg43
g12
sg44
g22
ssg12
(dp638
g5
S'41'
p639
sg7
g12
sg9
g16
sg11
g77
sg13
S'@CLE'
p640
sg15
g16
sg17
g12
sg19
g77
sg21
g22
sg23
g16
sg24
S'66.4'
p641
sg26
g177
sg28
S'23.0'
p642
sg30
S'09/25'
p643
sg32
S'100.0'
p644
sg34
S'Dan Carpenter'
p645
sg36
S'L16-17'
p646
sg38
S'2011'
p647
sg40
g22
sg41
S'75.0'
p648
sg43
g16
sg44
g22
ssg18
(dp649
g5
S'42'
p650
sg7
g18
sg9
g18
sg11
g77
sg13
S'HOU'
p651
sg15
g16
sg17
g18
sg19
g18
sg21
g22
sg23
g16
sg24
S'68.8'
p652
sg26
g77
sg28
S'38.5'
p653
sg30
S'09/18'
p654
sg32
S'100.0'
p655
sg34
S'Dan Carpenter'
p656
sg36
S'L13-23'
p657
sg38
S'2011'
p658
sg40
g22
sg41
S'50.0'
p659
sg43
g16
sg44
g16
ssg177
(dp660
g5
g270
sg7
g177
sg9
g270
sg11
g270
sg13
g270
sg15
g270
sg17
g270
sg19
g270
sg21
g270
sg23
g270
sg24
g270
sg26
g270
sg28
g270
sg30
S'Bye'
p661
sg32
g270
sg34
S'Dan Carpenter'
p662
sg36
g270
sg38
S'2011'
p663
sg40
g270
sg41
g270
sg43
g270
sg44
g270
ssg77
(dp664
g5
S'51'
p665
sg7
g77
sg9
g16
sg11
g12
sg13
S'@SD'
p666
sg15
g16
sg17
g12
sg19
g77
sg21
g22
sg23
g16
sg24
S'71.4'
p667
sg26
g177
sg28
S'21.0'
p668
sg30
S'10/02'
p669
sg32
S'100.0'
p670
sg34
S'Dan Carpenter'
p671
sg36
S'L16-26'
p672
sg38
S'2011'
p673
sg40
g22
sg41
S'100.0'
p674
sg43
g16
sg44
g22
ssg227
(dp675
g5
S'43'
p676
sg7
g227
sg9
g22
sg11
g12
sg13
S'DEN'
p677
sg15
g16
sg17
g12
sg19
g177
sg21
g22
sg23
g22
sg24
S'68.2'
p678
sg26
g177
sg28
S'--'
p679
sg30
S'10/23'
p680
sg32
S'--'
p681
sg34
S'Dan Carpenter'
p682
sg36
S'L15-18'
p683
sg38
S'2011'
p684
sg40
g22
sg41
S'100.0'
p685
sg43
g22
sg44
g22
ssg242
(dp686
g5
S'23'
p687
sg7
g242
sg9
g12
sg11
g18
sg13
S'@NYJ'
p688
sg15
g16
sg17
g18
sg19
g22
sg21
g22
sg23
g22
sg24
S'54.7'
p689
sg26
g12
sg28
S'15.7'
p690
sg30
S'10/17'
p691
sg32
S'--'
p692
sg34
S'Dan Carpenter'
p693
sg36
S'L6-24'
p694
sg38
S'2011'
p695
sg40
g22
sg41
S'100.0'
p696
sg43
g22
sg44
g22
ssg253
(dp697
g5
S'42'
p698
sg7
g253
sg9
g77
sg11
g16
sg13
S'@KC'
p699
sg15
g16
sg17
g16
sg19
g18
sg21
g22
sg23
g77
sg24
S'65.5'
p700
sg26
g242
sg28
S'16.3'
p701
sg30
S'11/06'
p702
sg32
S'100.0'
p703
sg34
S'Dan Carpenter'
p704
sg36
S'W31-3'
p705
sg38
S'2011'
p706
sg40
g22
sg41
S'100.0'
p707
sg43
g77
sg44
g22
ssg268
(dp708
g5
S'40'
p709
sg7
g268
sg9
g12
sg11
g16
sg13
S'@NYG'
p710
sg15
g16
sg17
g16
sg19
g16
sg21
g22
sg23
g18
sg24
S'69.3'
p711
sg26
g77
sg28
S'26.0'
p712
sg30
S'10/30'
p713
sg32
S'100.0'
p714
sg34
S'Dan Carpenter'
p715
sg36
S'L17-20'
p716
sg38
S'2011'
p717
sg40
g22
sg41
S'100.0'
p718
sg43
g18
sg44
g22
sssS'2010'
p719
(dp720
g3
(dp721
g5
S'--'
p722
sg7
S'11'
p723
sg9
g16
sg11
S'--'
p724
sg13
S'CHI'
p725
sg15
g16
sg17
S'--'
p726
sg19
g22
sg21
g22
sg23
S'--'
p727
sg24
S'50.0'
p728
sg26
g16
sg28
S'10.0'
p729
sg30
S'11/18'
p730
sg32
S'--'
p731
sg34
S'Dan Carpenter'
p732
sg36
S'L0-16'
p733
sg38
S'2010'
p734
sg40
S'--'
p735
sg41
S'--'
p736
sg43
S'--'
p737
sg44
S'--'
p738
ssg45
(dp739
g5
S'42'
p740
sg7
S'10'
p741
sg9
g77
sg11
g12
sg13
S'TEN'
p742
sg15
g16
sg17
g12
sg19
g12
sg21
g22
sg23
g18
sg24
S'72.0'
p743
sg26
g227
sg28
S'23.0'
p744
sg30
S'11/14'
p745
sg32
S'100.0'
p746
sg34
S'Dan Carpenter'
p747
sg36
S'W29-17'
p748
sg38
S'2010'
p749
sg40
g22
sg41
S'100.0'
p750
sg43
g18
sg44
g22
ssg61
(dp751
g5
S'60'
p752
sg7
S'13'
p753
sg9
g12
sg11
g18
sg13
S'CLE'
p754
sg15
g16
sg17
g16
sg19
g22
sg21
g22
sg23
g16
sg24
S'62.0'
p755
sg26
g12
sg28
S'16.7'
p756
sg30
S'12/05'
p757
sg32
S'100.0'
p758
sg34
S'Dan Carpenter'
p759
sg36
S'L10-13'
p760
sg38
S'2010'
p761
sg40
g22
sg41
S'50.0'
p762
sg43
g16
sg44
g16
ssg78
(dp763
g5
S'49'
p764
sg7
S'12'
p765
sg9
g268
sg11
g242
sg13
S'@OAK'
p766
sg15
g16
sg17
g77
sg19
g22
sg21
g22
sg23
g12
sg24
S'61.0'
p767
sg26
g268
sg28
S'26.9'
p768
sg30
S'11/28'
p769
sg32
S'100.0'
p770
sg34
S'Dan Carpenter'
p771
sg36
S'W33-17'
p772
sg38
S'2010'
p773
sg40
g22
sg41
S'66.7'
p774
sg43
g12
sg44
g22
ssg94
(dp775
g5
g22
sg7
S'15'
p776
sg9
g16
sg11
g77
sg13
S'BUF'
p777
sg15
g16
sg17
g22
sg19
g18
sg21
g22
sg23
g18
sg24
S'71.7'
p778
sg26
g12
sg28
S'14.0'
p779
sg30
S'12/19'
p780
sg32
S'100.0'
p781
sg34
S'Dan Carpenter'
p782
sg36
S'L14-17'
p783
sg38
S'2010'
p784
sg40
g22
sg41
S'0.0'
p785
sg43
g18
sg44
g22
ssg110
(dp786
g5
S'47'
p787
sg7
S'14'
p788
sg9
g12
sg11
g16
sg13
S'@NYJ'
p789
sg15
g16
sg17
g16
sg19
g22
sg21
g22
sg23
g16
sg24
S'71.0'
p790
sg26
g12
sg28
S'31.3'
p791
sg30
S'12/12'
p792
sg32
S'100.0'
p793
sg34
S'Dan Carpenter'
p794
sg36
S'W10-6'
p795
sg38
S'2010'
p796
sg40
g22
sg41
S'100.0'
p797
sg43
g16
sg44
g22
ssg126
(dp798
g5
g22
sg7
S'17'
p799
sg9
g16
sg11
g16
sg13
S'@NE'
p800
sg15
g16
sg17
g22
sg19
g22
sg21
g22
sg23
g16
sg24
S'60.5'
p801
sg26
g18
sg28
S'23.0'
p802
sg30
S'01/02'
p803
sg32
S'100.0'
p804
sg34
S'Dan Carpenter'
p805
sg36
S'L7-38'
p806
sg38
S'2010'
p807
sg40
g22
sg41
S'0.0'
p808
sg43
g16
sg44
g22
ssg142
(dp809
g5
S'40'
p810
sg7
S'16'
p811
sg9
g12
sg11
g18
sg13
S'DET'
p812
sg15
g16
sg17
g18
sg19
g12
sg21
g22
sg23
g12
sg24
S'61.5'
p813
sg26
g242
sg28
S'6.0'
p814
sg30
S'12/26'
p815
sg32
S'100.0'
p816
sg34
S'Dan Carpenter'
p817
sg36
S'L27-34'
p818
sg38
S'2010'
p819
sg40
g22
sg41
S'100.0'
p820
sg43
g12
sg44
g22
ssg16
(dp821
g5
S'43'
p822
sg7
g16
sg9
g16
sg11
g12
sg13
S'@BUF'
p823
sg15
g16
sg17
g18
sg19
g18
sg21
g22
sg23
g16
sg24
S'65.5'
p824
sg26
g77
sg28
S'11.0'
p825
sg30
S'09/12'
p826
sg32
S'100.0'
p827
sg34
S'Dan Carpenter'
p828
sg36
S'W15-10'
p829
sg38
S'2010'
p830
sg40
g22
sg41
S'66.7'
p831
sg43
g16
sg44
g22
ssg12
(dp832
g5
S'50'
p833
sg7
g12
sg9
g77
sg11
g12
sg13
S'NYJ'
p834
sg15
g16
sg17
g12
sg19
g16
sg21
g22
sg23
g18
sg24
S'68.0'
p835
sg26
g242
sg28
S'37.5'
p836
sg30
S'09/26'
p837
sg32
S'100.0'
p838
sg34
S'Dan Carpenter'
p839
sg36
S'L23-31'
p840
sg38
S'2010'
p841
sg40
g22
sg41
S'100.0'
p842
sg43
g18
sg44
g22
ssg18
(dp843
g5
g22
sg7
g18
sg9
g18
sg11
g22
sg13
S'@MIN'
p844
sg15
g16
sg17
g22
sg19
g16
sg21
g22
sg23
g18
sg24
S'61.3'
p845
sg26
g12
sg28
S'22.0'
p846
sg30
S'09/19'
p847
sg32
S'100.0'
p848
sg34
S'Dan Carpenter'
p849
sg36
S'W14-10'
p850
sg38
S'2010'
p851
sg40
g22
sg41
S'--'
p852
sg43
g18
sg44
g22
ssg177
(dp853
g5
g270
sg7
g177
sg9
g270
sg11
g270
sg13
g270
sg15
g270
sg17
g270
sg19
g270
sg21
g270
sg23
g270
sg24
g270
sg26
g270
sg28
g270
sg30
S'Bye'
p854
sg32
g270
sg34
S'Dan Carpenter'
p855
sg36
g270
sg38
S'2010'
p856
sg40
g270
sg41
g270
sg43
g270
sg44
g270
ssg77
(dp857
g5
g22
sg7
g77
sg9
g12
sg11
g16
sg13
S'NE'
p858
sg15
g16
sg17
g22
sg19
g22
sg21
g22
sg23
g18
sg24
S'72.3'
p859
sg26
g12
sg28
S'51.0'
p860
sg30
S'10/04'
p861
sg32
S'100.0'
p862
sg34
S'Dan Carpenter'
p863
sg36
S'L14-41'
p864
sg38
S'2010'
p865
sg40
g22
sg41
S'0.0'
p866
sg43
g18
sg44
g16
ssg227
(dp867
g5
S'40'
p868
sg7
g227
sg9
g177
sg11
g177
sg13
S'PIT'
p869
sg15
g16
sg17
g177
sg19
g18
sg21
g22
sg23
g16
sg24
S'67.0'
p870
sg26
g227
sg28
S'28.8'
p871
sg30
S'10/24'
p872
sg32
S'100.0'
p873
sg34
S'Dan Carpenter'
p874
sg36
S'L22-23'
p875
sg38
S'2010'
p876
sg40
g22
sg41
S'100.0'
p877
sg43
g16
sg44
g22
ssg242
(dp878
g5
S'53'
p879
sg7
g242
sg9
g177
sg11
g12
sg13
S'@GB'
p880
sg15
g16
sg17
g12
sg19
g22
sg21
g22
sg23
g18
sg24
S'66.0'
p881
sg26
g177
sg28
S'19.8'
p882
sg30
S'10/17'
p883
sg32
S'100.0'
p884
sg34
S'Dan Carpenter'
p885
sg36
S'W23-20'
p886
sg38
S'2010'
p887
sg40
g22
sg41
S'100.0'
p888
sg43
g18
sg44
g22
ssg253
(dp889
g5
S'19'
p890
sg7
g253
sg9
g12
sg11
g18
sg13
S'@BAL'
p891
sg15
g16
sg17
g16
sg19
g22
sg21
g22
sg23
g16
sg24
S'65.0'
p892
sg26
g12
sg28
S'23.0'
p893
sg30
S'11/07'
p894
sg32
S'100.0'
p895
sg34
S'Dan Carpenter'
p896
sg36
S'L10-26'
p897
sg38
S'2010'
p898
sg40
g22
sg41
S'50.0'
p899
sg43
g16
sg44
g22
ssg268
(dp900
g5
S'54'
p901
sg7
g268
sg9
g242
sg11
g177
sg13
S'@CIN'
p902
sg15
g16
sg17
g177
sg19
g22
sg21
g22
sg23
g16
sg24
S'65.3'
p903
sg26
g242
sg28
S'19.5'
p904
sg30
S'10/31'
p905
sg32
S'100.0'
p906
sg34
S'Dan Carpenter'
p907
sg36
S'W22-14'
p908
sg38
S'2010'
p909
sg40
g22
sg41
S'100.0'
p910
sg43
g16
sg44
g22
sssS'2013'
p911
(dp912
g3
(dp913
g5
S'43'
p914
sg7
S'11'
p915
sg9
g177
sg11
g12
sg13
S'NYJ'
p916
sg15
g16
sg17
g12
sg19
g12
sg21
g22
sg23
g77
sg24
S'65.6'
p917
sg26
g268
sg28
S'23.0'
p918
sg30
S'11/17'
p919
sg32
S'100.0'
p920
sg34
S'Dan Carpenter'
p921
sg36
S'W37-14'
p922
sg38
S'2013'
p923
sg40
g22
sg41
S'100.0'
p924
sg43
g77
sg44
g22
ssg45
(dp925
g5
S'20'
p926
sg7
S'10'
p927
sg9
g16
sg11
g16
sg13
S'@PIT'
p928
sg15
g16
sg17
g16
sg19
g18
sg21
g22
sg23
g16
sg24
S'58.3'
p929
sg26
g12
sg28
S'1.0'
p930
sg30
S'11/10'
p931
sg32
S'100.0'
p932
sg34
S'Dan Carpenter'
p933
sg36
S'L10-23'
p934
sg38
S'2013'
p935
sg40
g22
sg41
S'100.0'
p936
sg43
g16
sg44
g22
ssg61
(dp937
g5
S'29'
p938
sg7
S'13'
p939
sg9
g77
sg11
g16
sg13
S'ATL'
p940
sg15
g16
sg17
g16
sg19
g18
sg21
g22
sg23
g77
sg24
S'65.8'
p941
sg26
g242
sg28
S'28.8'
p942
sg30
S'12/01'
p943
sg32
S'100.0'
p944
sg34
S'Dan Carpenter'
p945
sg36
S'L31-34'
p946
sg38
S'2013'
p947
sg40
g22
sg41
S'100.0'
p948
sg43
g77
sg44
g22
ssg78
(dp949
g5
g270
sg7
S'12'
p950
sg9
g270
sg11
g270
sg13
g270
sg15
g270
sg17
g270
sg19
g270
sg21
g270
sg23
g270
sg24
g270
sg26
g270
sg28
g270
sg30
S'Bye'
p951
sg32
g270
sg34
S'Dan Carpenter'
p952
sg36
g270
sg38
S'2013'
p953
sg40
g270
sg41
g270
sg43
g270
sg44
g270
ssg94
(dp954
g5
S'42'
p955
sg7
S'15'
p956
sg9
g16
sg11
g12
sg13
S'@JAC'
p957
sg15
g16
sg17
g18
sg19
g77
sg21
g22
sg23
g12
sg24
S'69.4'
p958
sg26
g177
sg28
S'17.0'
p959
sg30
S'12/15'
p960
sg32
S'100.0'
p961
sg34
S'Dan Carpenter'
p962
sg36
S'W27-20'
p963
sg38
S'2013'
p964
sg40
g22
sg41
S'66.7'
p965
sg43
g12
sg44
g22
ssg110
(dp966
g5
S'46'
p967
sg7
S'14'
p968
sg9
g16
sg11
g18
sg13
S'@TB'
p969
sg15
g16
sg17
g18
sg19
g18
sg21
g22
sg23
g22
sg24
S'67.7'
p970
sg26
g12
sg28
S'20.0'
p971
sg30
S'12/08'
p972
sg32
S'--'
p973
sg34
S'Dan Carpenter'
p974
sg36
S'L6-27'
p975
sg38
S'2013'
p976
sg40
g22
sg41
S'100.0'
p977
sg43
g22
sg44
g22
ssg126
(dp978
g5
S'51'
p979
sg7
S'17'
p980
sg9
g77
sg11
g18
sg13
S'@NE'
p981
sg15
g16
sg17
g18
sg19
g22
sg21
g22
sg23
g18
sg24
S'54.4'
p982
sg26
g177
sg28
S'47.3'
p983
sg30
S'12/29'
p984
sg32
S'100.0'
p985
sg34
S'Dan Carpenter'
p986
sg36
S'L20-34'
p987
sg38
S'2013'
p988
sg40
g22
sg41
S'100.0'
p989
sg43
g18
sg44
g22
ssg142
(dp990
g5
S'45'
p991
sg7
S'16'
p992
sg9
g177
sg11
g77
sg13
S'MIA'
p993
sg15
g16
sg17
g77
sg19
g16
sg21
g22
sg23
g16
sg24
S'61.5'
p994
sg26
g242
sg28
S'16.6'
p995
sg30
S'12/22'
p996
sg32
S'100.0'
p997
sg34
S'Dan Carpenter'
p998
sg36
S'W19-0'
p999
sg38
S'2013'
p1000
sg40
g22
sg41
S'100.0'
p1001
sg43
g16
sg44
g22
ssg16
(dp1002
g5
g22
sg7
g16
sg9
g18
sg11
g22
sg13
S'NE'
p1003
sg15
g16
sg17
g22
sg19
g18
sg21
g22
sg23
g12
sg24
S'64.8'
p1004
sg26
g77
sg28
S'17.5'
p1005
sg30
S'09/08'
p1006
sg32
S'100.0'
p1007
sg34
S'Dan Carpenter'
p1008
sg36
S'L21-23'
p1009
sg38
S'2013'
p1010
sg40
g22
sg41
S'--'
p1011
sg43
g12
sg44
g22
ssg12
(dp1012
g5
S'43'
p1013
sg7
g12
sg9
g12
sg11
g77
sg13
S'@NYJ'
p1014
sg15
g16
sg17
g77
sg19
g12
sg21
g22
sg23
g22
sg24
S'66.3'
p1015
sg26
g242
sg28
S'17.7'
p1016
sg30
S'09/22'
p1017
sg32
S'--'
p1018
sg34
S'Dan Carpenter'
p1019
sg36
S'L20-27'
p1020
sg38
S'2013'
p1021
sg40
g22
sg41
S'100.0'
p1022
sg43
g22
sg44
g22
ssg18
(dp1023
g5
S'55'
p1024
sg7
g18
sg9
g77
sg11
g77
sg13
S'CAR'
p1025
sg15
g16
sg17
g12
sg19
g18
sg21
g22
sg23
g16
sg24
S'62.3'
p1026
sg26
g242
sg28
S'20.0'
p1027
sg30
S'09/15'
p1028
sg32
S'100.0'
p1029
sg34
S'Dan Carpenter'
p1030
sg36
S'W24-23'
p1031
sg38
S'2013'
p1032
sg40
g22
sg41
S'75.0'
p1033
sg43
g16
sg44
g22
ssg177
(dp1034
g5
S'52'
p1035
sg7
g177
sg9
g12
sg11
g16
sg13
S'@CLE'
p1036
sg15
g16
sg17
g16
sg19
g18
sg21
g22
sg23
g12
sg24
S'68.0'
p1037
sg26
g177
sg28
S'14.7'
p1038
sg30
S'10/03'
p1039
sg32
S'100.0'
p1040
sg34
S'Dan Carpenter'
p1041
sg36
S'L24-37'
p1042
sg38
S'2013'
p1043
sg40
g22
sg41
S'100.0'
p1044
sg43
g12
sg44
g22
ssg77
(dp1045
g5
S'27'
p1046
sg7
g77
sg9
g12
sg11
g12
sg13
S'BAL'
p1047
sg15
g16
sg17
g12
sg19
g12
sg21
g22
sg23
g18
sg24
S'66.7'
p1048
sg26
g242
sg28
S'24.3'
p1049
sg30
S'09/29'
p1050
sg32
S'100.0'
p1051
sg34
S'Dan Carpenter'
p1052
sg36
S'W23-20'
p1053
sg38
S'2013'
p1054
sg40
g22
sg41
S'100.0'
p1055
sg43
g18
sg44
g22
ssg227
(dp1056
g5
S'39'
p1057
sg7
g227
sg9
g18
sg11
g12
sg13
S'@MIA'
p1058
sg15
g16
sg17
g12
sg19
g77
sg21
g22
sg23
g18
sg24
S'70.0'
p1059
sg26
g242
sg28
S'29.5'
p1060
sg30
S'10/20'
p1061
sg32
S'100.0'
p1062
sg34
S'Dan Carpenter'
p1063
sg36
S'W23-21'
p1064
sg38
S'2013'
p1065
sg40
g22
sg41
S'100.0'
p1066
sg43
g18
sg44
g22
ssg242
(dp1067
g5
S'51'
p1068
sg7
g242
sg9
g77
sg11
g16
sg13
S'CIN'
p1069
sg15
g16
sg17
g16
sg19
g18
sg21
g22
sg23
g12
sg24
S'67.8'
p1070
sg26
g242
sg28
S'25.8'
p1071
sg30
S'10/13'
p1072
sg32
S'100.0'
p1073
sg34
S'Dan Carpenter'
p1074
sg36
S'L24-27'
p1075
sg38
S'2013'
p1076
sg40
g22
sg41
S'100.0'
p1077
sg43
g12
sg44
g22
ssg253
(dp1078
g5
S'30'
p1079
sg7
g253
sg9
g77
sg11
g18
sg13
S'KC'
p1080
sg15
g16
sg17
g18
sg19
g22
sg21
g22
sg23
g16
sg24
S'61.3'
p1081
sg26
g77
sg28
S'21.0'
p1082
sg30
S'11/03'
p1083
sg32
S'100.0'
p1084
sg34
S'Dan Carpenter'
p1085
sg36
S'L13-23'
p1086
sg38
S'2013'
p1087
sg40
g22
sg41
S'100.0'
p1088
sg43
g16
sg44
g22
ssg268
(dp1089
g5
S'37'
p1090
sg7
g268
sg9
g18
sg11
g18
sg13
S'@NO'
p1091
sg15
g16
sg17
g16
sg19
g18
sg21
g22
sg23
g18
sg24
S'66.3'
p1092
sg26
g77
sg28
S'25.5'
p1093
sg30
S'10/27'
p1094
sg32
S'100.0'
p1095
sg34
S'Dan Carpenter'
p1096
sg36
S'L17-35'
p1097
sg38
S'2013'
p1098
sg40
g22
sg41
S'50.0'
p1099
sg43
g18
sg44
g22
sssS'2012'
p1100
(dp1101
g3
(dp1102
g5
g22
sg7
S'11'
p1103
sg9
g12
sg11
g16
sg13
S'@BUF'
p1104
sg15
g16
sg17
g22
sg19
g22
sg21
g22
sg23
g18
sg24
S'67.3'
p1105
sg26
g12
sg28
S'25.0'
p1106
sg30
S'11/15'
p1107
sg32
S'100.0'
p1108
sg34
S'Dan Carpenter'
p1109
sg36
S'L14-19'
p1110
sg38
S'2012'
p1111
sg40
g22
sg41
S'0.0'
p1112
sg43
g18
sg44
g22
ssg45
(dp1113
g5
S'40'
p1114
sg7
S'10'
p1115
sg9
g16
sg11
g16
sg13
S'TEN'
p1116
sg15
g16
sg17
g16
sg19
g16
sg21
g22
sg23
g22
sg24
S'67.0'
p1117
sg26
g18
sg28
S'19.0'
p1118
sg30
S'11/11'
p1119
sg32
S'--'
p1120
sg34
S'Dan Carpenter'
p1121
sg36
S'L3-37'
p1122
sg38
S'2012'
p1123
sg40
g22
sg41
S'100.0'
p1124
sg43
g22
sg44
g22
ssg61
(dp1125
g5
S'44'
p1126
sg7
S'13'
p1127
sg9
g16
sg11
g12
sg13
S'NE'
p1128
sg15
g16
sg17
g12
sg19
g12
sg21
g22
sg23
g16
sg24
S'59.2'
p1129
sg26
g177
sg28
S'29.0'
p1130
sg30
S'12/02'
p1131
sg32
S'100.0'
p1132
sg34
S'Dan Carpenter'
p1133
sg36
S'L16-23'
p1134
sg38
S'2012'
p1135
sg40
g22
sg41
S'100.0'
p1136
sg43
g16
sg44
g22
ssg78
(dp1137
g5
S'43'
p1138
sg7
S'12'
p1139
sg9
g18
sg11
g16
sg13
S'SEA'
p1140
sg15
g16
sg17
g16
sg19
g18
sg21
g22
sg23
g12
sg24
S'71.0'
p1141
sg26
g77
sg28
S'61.0'
p1142
sg30
S'11/25'
p1143
sg32
S'100.0'
p1144
sg34
S'Dan Carpenter'
p1145
sg36
S'W24-21'
p1146
sg38
S'2012'
p1147
sg40
g22
sg41
S'100.0'
p1148
sg43
g12
sg44
g22
ssg94
(dp1149
g5
S'53'
p1150
sg7
S'15'
p1151
sg9
g16
sg11
g12
sg13
S'JAC'
p1152
sg15
g16
sg17
g12
sg19
g177
sg21
g22
sg23
g16
sg24
S'66.8'
p1153
sg26
g242
sg28
S'24.0'
p1154
sg30
S'12/16'
p1155
sg32
S'100.0'
p1156
sg34
S'Dan Carpenter'
p1157
sg36
S'W24-3'
p1158
sg38
S'2012'
p1159
sg40
g22
sg41
S'100.0'
p1160
sg43
g16
sg44
g22
ssg110
(dp1161
g5
S'53'
p1162
sg7
S'14'
p1163
sg9
g12
sg11
g18
sg13
S'@SF'
p1164
sg15
g16
sg17
g18
sg19
g16
sg21
g22
sg23
g16
sg24
S'72.0'
p1165
sg26
g77
sg28
S'26.3'
p1166
sg30
S'12/09'
p1167
sg32
S'100.0'
p1168
sg34
S'Dan Carpenter'
p1169
sg36
S'L13-27'
p1170
sg38
S'2012'
p1171
sg40
g22
sg41
S'100.0'
p1172
sg43
g16
sg44
g22
ssg16
(dp1173
g5
S'39'
p1174
sg7
g16
sg9
g12
sg11
g16
sg13
S'@HOU'
p1175
sg15
g16
sg17
g16
sg19
g22
sg21
g22
sg23
g16
sg24
S'69.3'
p1176
sg26
g12
sg28
S'15.7'
p1177
sg30
S'09/09'
p1178
sg32
S'100.0'
p1179
sg34
S'Dan Carpenter'
p1180
sg36
S'L10-30'
p1181
sg38
S'2012'
p1182
sg40
g22
sg41
S'100.0'
p1183
sg43
g16
sg44
g22
ssg12
(dp1184
g5
S'41'
p1185
sg7
g12
sg9
g12
sg11
g77
sg13
S'NYJ'
p1186
sg15
g16
sg17
g18
sg19
g12
sg21
g22
sg23
g18
sg24
S'65.0'
p1187
sg26
g242
sg28
S'20.7'
p1188
sg30
S'09/23'
p1189
sg32
S'100.0'
p1190
sg34
S'Dan Carpenter'
p1191
sg36
S'L20-23'
p1192
sg38
S'2012'
p1193
sg40
g22
sg41
S'50.0'
p1194
sg43
g18
sg44
g22
ssg18
(dp1195
g5
g22
sg7
g18
sg9
g12
sg11
g22
sg13
S'OAK'
p1196
sg15
g16
sg17
g22
sg19
g12
sg21
g22
sg23
g177
sg24
S'64.2'
p1197
sg26
g242
sg28
S'18.0'
p1198
sg30
S'09/16'
p1199
sg32
S'100.0'
p1200
sg34
S'Dan Carpenter'
p1201
sg36
S'W35-13'
p1202
sg38
S'2012'
p1203
sg40
g22
sg41
S'--'
p1204
sg43
g177
sg44
g22
ssg177
(dp1205
g5
S'46'
p1206
sg7
g177
sg9
g18
sg11
g18
sg13
S'@CIN'
p1207
sg15
g16
sg17
g16
sg19
g18
sg21
g22
sg23
g18
sg24
S'67.3'
p1208
sg26
g77
sg28
S'24.5'
p1209
sg30
S'10/07'
p1210
sg32
S'100.0'
p1211
sg34
S'Dan Carpenter'
p1212
sg36
S'W17-13'
p1213
sg38
S'2012'
p1214
sg40
g22
sg41
S'50.0'
p1215
sg43
g18
sg44
g22
ssg77
(dp1216
g5
S'32'
p1217
sg7
g77
sg9
g12
sg11
g12
sg13
S'@ARI'
p1218
sg15
g16
sg17
g18
sg19
g12
sg21
g22
sg23
g16
sg24
S'67.2'
p1219
sg26
g242
sg28
S'30.0'
p1220
sg30
S'09/30'
p1221
sg32
S'100.0'
p1222
sg34
S'Dan Carpenter'
p1223
sg36
S'L21-24'
p1224
sg38
S'2012'
p1225
sg40
g22
sg41
S'66.7'
p1226
sg43
g16
sg44
g22
ssg227
(dp1227
g5
g270
sg7
g227
sg9
g270
sg11
g270
sg13
g270
sg15
g270
sg17
g270
sg19
g270
sg21
g270
sg23
g270
sg24
g270
sg26
g270
sg28
g270
sg30
S'Bye'
p1228
sg32
g270
sg34
S'Dan Carpenter'
p1229
sg36
g270
sg38
S'2012'
p1230
sg40
g270
sg41
g270
sg43
g270
sg44
g270
ssg242
(dp1231
g5
S'42'
p1232
sg7
g242
sg9
g18
sg11
g16
sg13
S'STL'
p1233
sg15
g16
sg17
g16
sg19
g18
sg21
g22
sg23
g18
sg24
S'61.8'
p1234
sg26
g77
sg28
S'16.5'
p1235
sg30
S'10/14'
p1236
sg32
S'100.0'
p1237
sg34
S'Dan Carpenter'
p1238
sg36
S'W17-14'
p1239
sg38
S'2012'
p1240
sg40
g22
sg41
S'100.0'
p1241
sg43
g18
sg44
g22
ssg253
(dp1242
g5
S'37'
p1243
sg7
g253
sg9
g18
sg11
g18
sg13
S'@IND'
p1244
sg15
g16
sg17
g18
sg19
g12
sg21
g22
sg23
g18
sg24
S'69.2'
p1245
sg26
g177
sg28
S'26.0'
p1246
sg30
S'11/04'
p1247
sg32
S'100.0'
p1248
sg34
S'Dan Carpenter'
p1249
sg36
S'L20-23'
p1250
sg38
S'2012'
p1251
sg40
g22
sg41
S'100.0'
p1252
sg43
g18
sg44
g22
ssg268
(dp1253
g5
S'42'
p1254
sg7
g268
sg9
g77
sg11
g12
sg13
S'@NYJ'
p1255
sg15
g16
sg17
g12
sg19
g18
sg21
g22
sg23
g12
sg24
S'56.6'
p1256
sg26
g227
sg28
S'25.3'
p1257
sg30
S'10/28'
p1258
sg32
S'100.0'
p1259
sg34
S'Dan Carpenter'
p1260
sg36
S'W30-9'
p1261
sg38
S'2012'
p1262
sg40
g22
sg41
S'100.0'
p1263
sg43
g12
sg44
g22
sss.