(dp0
S'2015'
p1
(dp2
S'11'
p3
(dp4
S'FGLng'
p5
S'30'
p6
sS'WK'
p7
S'11'
p8
sS'Ret'
p9
S'3'
p10
sS'FGAtt'
p11
S'1'
p12
sS'Opp'
p13
S'@MIA'
p14
sS'G'
p15
g12
sS'FGM'
p16
g12
sS'TB'
p17
S'2'
p18
sS'GS'
p19
S'0'
p20
sS'XPM'
p21
g10
sS'KOAvg'
p22
S'60.4'
p23
sS'KO'
p24
S'5'
p25
sS'RetAvg'
p26
S'13.0'
p27
sS'Game Date'
p28
S'11/22'
p29
sS'XPPct'
p30
S'100.0'
p31
sS'Player'
p32
S'Dan Bailey'
p33
sS'Result'
p34
S'W24-14'
p35
sS'Year'
p36
S'2015'
p37
sS'XPBlk'
p38
g20
sS'FGPct'
p39
S'100.0'
p40
sS'XPAtt'
p41
g10
sS'FGBlk'
p42
g20
ssS'10'
p43
(dp44
g5
S'53'
p45
sg7
S'10'
p46
sg9
g20
sg11
g10
sg13
S'@TB'
p47
sg15
g12
sg16
g18
sg17
g10
sg19
g20
sg21
g20
sg22
S'65.0'
p48
sg24
g10
sg26
S'--'
p49
sg28
S'11/15'
p50
sg30
S'--'
p51
sg32
S'Dan Bailey'
p52
sg34
S'L6-10'
p53
sg36
S'2015'
p54
sg38
g20
sg39
S'66.7'
p55
sg41
g20
sg42
g20
ssS'13'
p56
(dp57
g5
S'54'
p58
sg7
S'13'
p59
sg9
g25
sg11
S'4'
p60
sg13
S'@WAS'
p61
sg15
g12
sg16
g60
sg17
g12
sg19
g20
sg21
g12
sg22
S'65.3'
p62
sg24
S'6'
p63
sg26
S'25.0'
p64
sg28
S'12/07'
p65
sg30
S'100.0'
p66
sg32
S'Dan Bailey'
p67
sg34
S'W19-16'
p68
sg36
S'2015'
p69
sg38
g20
sg39
S'100.0'
p70
sg41
g12
sg42
g20
ssS'12'
p71
(dp72
g5
S'48'
p73
sg7
S'12'
p74
sg9
g12
sg11
g18
sg13
S'CAR'
p75
sg15
g12
sg16
g18
sg17
g10
sg19
g20
sg21
g20
sg22
S'51.0'
p76
sg24
g60
sg26
S'3.0'
p77
sg28
S'11/26'
p78
sg30
S'--'
p79
sg32
S'Dan Bailey'
p80
sg34
S'L14-33'
p81
sg36
S'2015'
p82
sg38
g20
sg39
S'100.0'
p83
sg41
g20
sg42
g20
ssS'15'
p84
(dp85
g5
S'50'
p86
sg7
S'15'
p87
sg9
g10
sg11
g10
sg13
S'NYJ'
p88
sg15
g12
sg16
g10
sg17
g18
sg19
g20
sg21
g12
sg22
S'67.0'
p89
sg24
g25
sg26
S'20.3'
p90
sg28
S'12/19'
p91
sg30
S'100.0'
p92
sg32
S'Dan Bailey'
p93
sg34
S'L16-19'
p94
sg36
S'2015'
p95
sg38
g20
sg39
S'100.0'
p96
sg41
g12
sg42
g20
ssS'14'
p97
(dp98
g5
g20
sg7
S'14'
p99
sg9
g18
sg11
g20
sg13
S'@GB'
p100
sg15
g12
sg16
g20
sg17
g20
sg19
g20
sg21
g12
sg22
S'69.0'
p101
sg24
g18
sg26
S'20.0'
p102
sg28
S'12/13'
p103
sg30
S'100.0'
p104
sg32
S'Dan Bailey'
p105
sg34
S'L7-28'
p106
sg36
S'2015'
p107
sg38
g20
sg39
S'--'
p108
sg41
g12
sg42
g20
ssS'17'
p109
(dp110
g5
g20
sg7
S'17'
p111
sg9
g20
sg11
g20
sg13
S'WAS'
p112
sg15
g12
sg16
g20
sg17
g10
sg19
g20
sg21
g10
sg22
S'52.0'
p113
sg24
g60
sg26
S'--'
p114
sg28
S'01/03'
p115
sg30
S'100.0'
p116
sg32
S'Dan Bailey'
p117
sg34
S'L23-34'
p118
sg36
S'2015'
p119
sg38
g20
sg39
S'--'
p120
sg41
g10
sg42
g20
ssS'16'
p121
(dp122
g5
S'46'
p123
sg7
S'16'
p124
sg9
g18
sg11
g10
sg13
S'@BUF'
p125
sg15
g12
sg16
g18
sg17
g12
sg19
g20
sg21
g20
sg22
S'60.3'
p126
sg24
g10
sg26
S'18.0'
p127
sg28
S'12/27'
p128
sg30
S'--'
p129
sg32
S'Dan Bailey'
p130
sg34
S'L6-16'
p131
sg36
S'2015'
p132
sg38
g20
sg39
S'66.7'
p133
sg41
g20
sg42
g20
ssg12
(dp134
g5
S'32'
p135
sg7
g12
sg9
g20
sg11
g18
sg13
S'NYG'
p136
sg15
g12
sg16
g18
sg17
g63
sg19
g20
sg21
g10
sg22
S'65.0'
p137
sg24
g63
sg26
S'--'
p138
sg28
S'09/13'
p139
sg30
S'100.0'
p140
sg32
S'Dan Bailey'
p141
sg34
S'W27-26'
p142
sg36
S'2015'
p143
sg38
g20
sg39
S'100.0'
p144
sg41
g10
sg42
g20
ssg10
(dp145
g5
g20
sg7
g10
sg9
g12
sg11
g20
sg13
S'ATL'
p146
sg15
g12
sg16
g20
sg17
g60
sg19
g20
sg21
g60
sg22
S'65.6'
p147
sg24
g25
sg26
S'23.0'
p148
sg28
S'09/27'
p149
sg30
S'100.0'
p150
sg32
S'Dan Bailey'
p151
sg34
S'L28-39'
p152
sg36
S'2015'
p153
sg38
g20
sg39
S'--'
p154
sg41
g60
sg42
g20
ssg18
(dp155
g5
S'28'
p156
sg7
g18
sg9
g12
sg11
g18
sg13
S'@PHI'
p157
sg15
g12
sg16
g18
sg17
g10
sg19
g20
sg21
g18
sg22
S'65.3'
p158
sg24
g60
sg26
S'21.0'
p159
sg28
S'09/20'
p160
sg30
S'100.0'
p161
sg32
S'Dan Bailey'
p162
sg34
S'W20-10'
p163
sg36
S'2015'
p164
sg38
g20
sg39
S'100.0'
p165
sg41
g18
sg42
g20
ssg25
(dp166
g5
S'51'
p167
sg7
g25
sg9
g20
sg11
g18
sg13
S'NE'
p168
sg15
g12
sg16
g18
sg17
g10
sg19
g20
sg21
g20
sg22
S'65.0'
p169
sg24
g10
sg26
S'--'
p170
sg28
S'10/11'
p171
sg30
S'--'
p172
sg32
S'Dan Bailey'
p173
sg34
S'L6-30'
p174
sg36
S'2015'
p175
sg38
g20
sg39
S'100.0'
p176
sg41
g20
sg42
g20
ssg60
(dp177
g5
S'38'
p178
sg7
g60
sg9
g12
sg11
g18
sg13
S'@NO'
p179
sg15
g12
sg16
g18
sg17
g25
sg19
g20
sg21
g18
sg22
S'64.8'
p180
sg24
g63
sg26
S'34.0'
p181
sg28
S'10/04'
p182
sg30
S'100.0'
p183
sg32
S'Dan Bailey'
p184
sg34
S'L20-26'
p185
sg36
S'2015'
p186
sg38
g20
sg39
S'100.0'
p187
sg41
g18
sg42
g20
ssS'7'
p188
(dp189
g5
S'48'
p190
sg7
g188
sg9
g10
sg11
g18
sg13
S'@NYG'
p191
sg15
g12
sg16
g18
sg17
g18
sg19
g20
sg21
g18
sg22
S'66.0'
p192
sg24
g25
sg26
S'49.7'
p193
sg28
S'10/25'
p194
sg30
S'100.0'
p195
sg32
S'Dan Bailey'
p196
sg34
S'L20-27'
p197
sg36
S'2015'
p198
sg38
g20
sg39
S'100.0'
p199
sg41
g18
sg42
g20
ssg63
(dp200
g5
S''
p201
sg7
g63
sg9
g201
sg11
g201
sg13
g201
sg15
g201
sg16
g201
sg17
g201
sg19
g201
sg21
g201
sg22
g201
sg24
g201
sg26
g201
sg28
S'Bye'
p202
sg30
g201
sg32
S'Dan Bailey'
p203
sg34
g201
sg36
S'2015'
p204
sg38
g201
sg39
g201
sg41
g201
sg42
g201
ssS'9'
p205
(dp206
g5
S'44'
p207
sg7
g205
sg9
g20
sg11
g18
sg13
S'PHI'
p208
sg15
g12
sg16
g18
sg17
g188
sg19
g20
sg21
g10
sg22
S'65.0'
p209
sg24
g188
sg26
S'--'
p210
sg28
S'11/08'
p211
sg30
S'100.0'
p212
sg32
S'Dan Bailey'
p213
sg34
S'L27-33'
p214
sg36
S'2015'
p215
sg38
g20
sg39
S'100.0'
p216
sg41
g10
sg42
g20
ssS'8'
p217
(dp218
g5
S'52'
p219
sg7
g217
sg9
g12
sg11
g60
sg13
S'SEA'
p220
sg15
g12
sg16
g60
sg17
g60
sg19
g20
sg21
g20
sg22
S'63.4'
p221
sg24
g25
sg26
S'18.0'
p222
sg28
S'11/01'
p223
sg30
S'--'
p224
sg32
S'Dan Bailey'
p225
sg34
S'L12-13'
p226
sg36
S'2015'
p227
sg38
g20
sg39
S'100.0'
p228
sg41
g20
sg42
g20
sssS'2014'
p229
(dp230
g3
(dp231
g5
g201
sg7
S'11'
p232
sg9
g201
sg11
g201
sg13
g201
sg15
g201
sg16
g201
sg17
g201
sg19
g201
sg21
g201
sg22
g201
sg24
g201
sg26
g201
sg28
S'Bye'
p233
sg30
g201
sg32
S'Dan Bailey'
p234
sg34
g201
sg36
S'2014'
p235
sg38
g201
sg39
g201
sg41
g201
sg42
g201
ssg43
(dp236
g5
S'54'
p237
sg7
S'10'
p238
sg9
g10
sg11
g18
sg13
S'@JAC'
p239
sg15
g12
sg16
g12
sg17
g10
sg19
g20
sg21
g60
sg22
S'62.3'
p240
sg24
g63
sg26
S'13.0'
p241
sg28
S'11/09'
p242
sg30
S'100.0'
p243
sg32
S'Dan Bailey'
p244
sg34
S'W31-17'
p245
sg36
S'2014'
p246
sg38
g20
sg39
S'50.0'
p247
sg41
g60
sg42
g20
ssg56
(dp248
g5
S'28'
p249
sg7
S'13'
p250
sg9
g20
sg11
g12
sg13
S'PHI'
p251
sg15
g12
sg16
g12
sg17
g10
sg19
g20
sg21
g12
sg22
S'67.7'
p252
sg24
g10
sg26
S'--'
p253
sg28
S'11/27'
p254
sg30
S'100.0'
p255
sg32
S'Dan Bailey'
p256
sg34
S'L10-33'
p257
sg36
S'2014'
p258
sg38
g20
sg39
S'100.0'
p259
sg41
g12
sg42
g20
ssg71
(dp260
g5
S'38'
p261
sg7
S'12'
p262
sg9
g60
sg11
g12
sg13
S'@NYG'
p263
sg15
g12
sg16
g12
sg17
g18
sg19
g20
sg21
g60
sg22
S'64.8'
p264
sg24
g63
sg26
S'24.8'
p265
sg28
S'11/23'
p266
sg30
S'100.0'
p267
sg32
S'Dan Bailey'
p268
sg34
S'W31-28'
p269
sg36
S'2014'
p270
sg38
g20
sg39
S'100.0'
p271
sg41
g60
sg42
g20
ssg84
(dp272
g5
S'49'
p273
sg7
S'15'
p274
sg9
g60
sg11
g12
sg13
S'@PHI'
p275
sg15
g12
sg16
g12
sg17
g18
sg19
g20
sg21
g25
sg22
S'58.3'
p276
sg24
g188
sg26
S'18.8'
p277
sg28
S'12/14'
p278
sg30
S'100.0'
p279
sg32
S'Dan Bailey'
p280
sg34
S'W38-27'
p281
sg36
S'2014'
p282
sg38
g20
sg39
S'100.0'
p283
sg41
g25
sg42
g20
ssg97
(dp284
g5
S'35'
p285
sg7
S'14'
p286
sg9
g63
sg11
g18
sg13
S'@CHI'
p287
sg15
g12
sg16
g18
sg17
g18
sg19
g20
sg21
g25
sg22
S'65.6'
p288
sg24
g217
sg26
S'24.2'
p289
sg28
S'12/04'
p290
sg30
S'100.0'
p291
sg32
S'Dan Bailey'
p292
sg34
S'W41-28'
p293
sg36
S'2014'
p294
sg38
g20
sg39
S'100.0'
p295
sg41
g25
sg42
g20
ssg109
(dp296
g5
S'36'
p297
sg7
S'17'
p298
sg9
g63
sg11
g10
sg13
S'@WAS'
p299
sg15
g12
sg16
g10
sg17
g18
sg19
g20
sg21
g25
sg22
S'55.4'
p300
sg24
g205
sg26
S'19.8'
p301
sg28
S'12/28'
p302
sg30
S'100.0'
p303
sg32
S'Dan Bailey'
p304
sg34
S'W44-17'
p305
sg36
S'2014'
p306
sg38
g20
sg39
S'100.0'
p307
sg41
g25
sg42
g20
ssg121
(dp308
g5
g20
sg7
S'16'
p309
sg9
g18
sg11
g12
sg13
S'IND'
p310
sg15
g12
sg16
g20
sg17
g25
sg19
g20
sg21
g63
sg22
S'67.4'
p311
sg24
g188
sg26
S'28.5'
p312
sg28
S'12/21'
p313
sg30
S'100.0'
p314
sg32
S'Dan Bailey'
p315
sg34
S'W42-7'
p316
sg36
S'2014'
p317
sg38
g20
sg39
S'0.0'
p318
sg41
g63
sg42
g20
ssg12
(dp319
g5
S'29'
p320
sg7
g12
sg9
g20
sg11
g12
sg13
S'SF'
p321
sg15
g12
sg16
g12
sg17
g10
sg19
g20
sg21
g18
sg22
S'52.0'
p322
sg24
g60
sg26
S'--'
p323
sg28
S'09/07'
p324
sg30
S'100.0'
p325
sg32
S'Dan Bailey'
p326
sg34
S'L17-28'
p327
sg36
S'2014'
p328
sg38
g20
sg39
S'100.0'
p329
sg41
g18
sg42
g20
ssg10
(dp330
g5
S'40'
p331
sg7
g10
sg9
g18
sg11
g18
sg13
S'@STL'
p332
sg15
g12
sg16
g18
sg17
g25
sg19
g20
sg21
g60
sg22
S'67.0'
p333
sg24
g188
sg26
S'26.5'
p334
sg28
S'09/21'
p335
sg30
S'100.0'
p336
sg32
S'Dan Bailey'
p337
sg34
S'W34-31'
p338
sg36
S'2014'
p339
sg38
g20
sg39
S'100.0'
p340
sg41
g60
sg42
g20
ssg18
(dp341
g5
S'51'
p342
sg7
g18
sg9
g25
sg11
g60
sg13
S'@TEN'
p343
sg15
g12
sg16
g60
sg17
g18
sg19
g20
sg21
g18
sg22
S'63.1'
p344
sg24
g188
sg26
S'13.6'
p345
sg28
S'09/14'
p346
sg30
S'100.0'
p347
sg32
S'Dan Bailey'
p348
sg34
S'W26-10'
p349
sg36
S'2014'
p350
sg38
g20
sg39
S'100.0'
p351
sg41
g18
sg42
g20
ssg25
(dp352
g5
S'49'
p353
sg7
g25
sg9
g12
sg11
g10
sg13
S'HOU'
p354
sg15
g12
sg16
g18
sg17
g60
sg19
g20
sg21
g18
sg22
S'66.6'
p355
sg24
g25
sg26
S'21.0'
p356
sg28
S'10/05'
p357
sg30
S'100.0'
p358
sg32
S'Dan Bailey'
p359
sg34
S'W20-17'
p360
sg36
S'2014'
p361
sg38
g20
sg39
S'66.7'
p362
sg41
g18
sg42
g20
ssg60
(dp363
g5
S'51'
p364
sg7
g60
sg9
g20
sg11
g12
sg13
S'NO'
p365
sg15
g12
sg16
g12
sg17
g188
sg19
g20
sg21
g25
sg22
S'65.0'
p366
sg24
g188
sg26
S'--'
p367
sg28
S'09/28'
p368
sg30
S'100.0'
p369
sg32
S'Dan Bailey'
p370
sg34
S'W38-17'
p371
sg36
S'2014'
p372
sg38
g20
sg39
S'100.0'
p373
sg41
g25
sg42
g20
ssg188
(dp374
g5
S'49'
p375
sg7
g188
sg9
g10
sg11
g12
sg13
S'NYG'
p376
sg15
g12
sg16
g12
sg17
g10
sg19
g20
sg21
g60
sg22
S'67.7'
p377
sg24
g63
sg26
S'29.0'
p378
sg28
S'10/19'
p379
sg30
S'100.0'
p380
sg32
S'Dan Bailey'
p381
sg34
S'W31-21'
p382
sg36
S'2014'
p383
sg38
g20
sg39
S'100.0'
p384
sg41
g60
sg42
g20
ssg63
(dp385
g5
S'56'
p386
sg7
g63
sg9
g25
sg11
g10
sg13
S'@SEA'
p387
sg15
g12
sg16
g10
sg17
g18
sg19
g20
sg21
g10
sg22
S'69.1'
p388
sg24
g188
sg26
S'28.4'
p389
sg28
S'10/12'
p390
sg30
S'100.0'
p391
sg32
S'Dan Bailey'
p392
sg34
S'W30-23'
p393
sg36
S'2014'
p394
sg38
g20
sg39
S'100.0'
p395
sg41
g10
sg42
g20
ssg205
(dp396
g5
S'52'
p397
sg7
g205
sg9
g12
sg11
g18
sg13
S'ARI'
p398
sg15
g12
sg16
g12
sg17
g18
sg19
g20
sg21
g18
sg22
S'47.8'
p399
sg24
g60
sg26
S'0.0'
p400
sg28
S'11/02'
p401
sg30
S'100.0'
p402
sg32
S'Dan Bailey'
p403
sg34
S'L17-28'
p404
sg36
S'2014'
p405
sg38
g20
sg39
S'50.0'
p406
sg41
g18
sg42
g12
ssg217
(dp407
g5
S'21'
p408
sg7
g217
sg9
g20
sg11
g12
sg13
S'WAS'
p409
sg15
g12
sg16
g12
sg17
g25
sg19
g20
sg21
g18
sg22
S'65.0'
p410
sg24
g25
sg26
S'--'
p411
sg28
S'10/27'
p412
sg30
S'100.0'
p413
sg32
S'Dan Bailey'
p414
sg34
S'L17-20'
p415
sg36
S'2014'
p416
sg38
g20
sg39
S'100.0'
p417
sg41
g18
sg42
g20
sssS'2011'
p418
(dp419
g3
(dp420
g5
S'39'
p421
sg7
S'11'
p422
sg9
g60
sg11
g18
sg13
S'@WAS'
p423
sg15
g12
sg16
g18
sg17
g18
sg19
g20
sg21
g10
sg22
S'68.5'
p424
sg24
g63
sg26
S'23.3'
p425
sg28
S'11/20'
p426
sg30
S'100.0'
p427
sg32
S'Dan Bailey'
p428
sg34
S'W27-24'
p429
sg36
S'2011'
p430
sg38
g20
sg39
S'100.0'
p431
sg41
g10
sg42
g20
ssg43
(dp432
g5
S'45'
p433
sg7
S'10'
p434
sg9
g10
sg11
g10
sg13
S'BUF'
p435
sg15
g12
sg16
g10
sg17
g63
sg19
g20
sg21
g25
sg22
S'67.4'
p436
sg24
g205
sg26
S'20.3'
p437
sg28
S'11/13'
p438
sg30
S'100.0'
p439
sg32
S'Dan Bailey'
p440
sg34
S'W44-7'
p441
sg36
S'2011'
p442
sg38
g20
sg39
S'100.0'
p443
sg41
g25
sg42
g20
ssg56
(dp444
g5
S'50'
p445
sg7
S'13'
p446
sg9
g10
sg11
g60
sg13
S'@ARI'
p447
sg15
g12
sg16
g18
sg17
g18
sg19
g20
sg21
g12
sg22
S'67.2'
p448
sg24
g25
sg26
S'22.0'
p449
sg28
S'12/04'
p450
sg30
S'100.0'
p451
sg32
S'Dan Bailey'
p452
sg34
S'L13-19'
p453
sg36
S'2011'
p454
sg38
g20
sg39
S'50.0'
p455
sg41
g12
sg42
g20
ssg71
(dp456
g5
S'32'
p457
sg7
S'12'
p458
sg9
g10
sg11
g18
sg13
S'MIA'
p459
sg15
g12
sg16
g18
sg17
g12
sg19
g20
sg21
g18
sg22
S'67.5'
p460
sg24
g60
sg26
S'30.7'
p461
sg28
S'11/24'
p462
sg30
S'100.0'
p463
sg32
S'Dan Bailey'
p464
sg34
S'W20-19'
p465
sg36
S'2011'
p466
sg38
g20
sg39
S'100.0'
p467
sg41
g18
sg42
g20
ssg84
(dp468
g5
S'30'
p469
sg7
S'15'
p470
sg9
g60
sg11
g12
sg13
S'@TB'
p471
sg15
g12
sg16
g12
sg17
g18
sg19
g20
sg21
g60
sg22
S'62.7'
p472
sg24
g63
sg26
S'17.5'
p473
sg28
S'12/17'
p474
sg30
S'100.0'
p475
sg32
S'Dan Bailey'
p476
sg34
S'W31-15'
p477
sg36
S'2011'
p478
sg38
g20
sg39
S'100.0'
p479
sg41
g60
sg42
g20
ssg97
(dp480
g5
S'49'
p481
sg7
S'14'
p482
sg9
g10
sg11
g10
sg13
S'NYG'
p483
sg15
g12
sg16
g18
sg17
g60
sg19
g20
sg21
g60
sg22
S'67.0'
p484
sg24
g188
sg26
S'21.0'
p485
sg28
S'12/11'
p486
sg30
S'100.0'
p487
sg32
S'Dan Bailey'
p488
sg34
S'L34-37'
p489
sg36
S'2011'
p490
sg38
g20
sg39
S'66.7'
p491
sg41
g60
sg42
g12
ssg109
(dp492
g5
g20
sg7
S'17'
p493
sg9
g10
sg11
g12
sg13
S'@NYG'
p494
sg15
g12
sg16
g20
sg17
g20
sg19
g20
sg21
g18
sg22
S'62.7'
p495
sg24
g10
sg26
S'22.0'
p496
sg28
S'01/01'
p497
sg30
S'100.0'
p498
sg32
S'Dan Bailey'
p499
sg34
S'L14-31'
p500
sg36
S'2011'
p501
sg38
g20
sg39
S'0.0'
p502
sg41
g18
sg42
g20
ssg121
(dp503
g5
g20
sg7
S'16'
p504
sg9
g12
sg11
g20
sg13
S'PHI'
p505
sg15
g12
sg16
g20
sg17
g12
sg19
g20
sg21
g12
sg22
S'49.5'
p506
sg24
g18
sg26
S'3.0'
p507
sg28
S'12/24'
p508
sg30
S'100.0'
p509
sg32
S'Dan Bailey'
p510
sg34
S'L7-20'
p511
sg36
S'2011'
p512
sg38
g20
sg39
S'--'
p513
sg41
g12
sg42
g20
ssg12
(dp514
g5
S'34'
p515
sg7
g12
sg9
S'--'
p516
sg11
g12
sg13
S'@NYJ'
p517
sg15
g12
sg16
g12
sg17
S'--'
p518
sg19
g20
sg21
g10
sg22
S'--'
p519
sg24
S'--'
p520
sg26
S'--'
p521
sg28
S'09/11'
p522
sg30
S'100.0'
p523
sg32
S'Dan Bailey'
p524
sg34
S'L24-27'
p525
sg36
S'2011'
p526
sg38
g20
sg39
S'100.0'
p527
sg41
g10
sg42
g20
ssg10
(dp528
g5
S'41'
p529
sg7
g10
sg9
g25
sg11
g63
sg13
S'WAS'
p530
sg15
g12
sg16
g63
sg17
g18
sg19
g20
sg21
g20
sg22
S'64.1'
p531
sg24
g188
sg26
S'20.0'
p532
sg28
S'09/26'
p533
sg30
S'--'
p534
sg32
S'Dan Bailey'
p535
sg34
S'W18-16'
p536
sg36
S'2011'
p537
sg38
g20
sg39
S'100.0'
p538
sg41
g20
sg42
g20
ssg18
(dp539
g5
S'48'
p540
sg7
g18
sg9
S'--'
p541
sg11
g10
sg13
S'@SF'
p542
sg15
g12
sg16
g18
sg17
S'--'
p543
sg19
g20
sg21
g10
sg22
S'--'
p544
sg24
S'--'
p545
sg26
S'--'
p546
sg28
S'09/18'
p547
sg30
S'100.0'
p548
sg32
S'Dan Bailey'
p549
sg34
S'W27-24'
p550
sg36
S'2011'
p551
sg38
g20
sg39
S'66.7'
p552
sg41
g10
sg42
g20
ssg25
(dp553
g5
g201
sg7
g25
sg9
g201
sg11
g201
sg13
g201
sg15
g201
sg16
g201
sg17
g201
sg19
g201
sg21
g201
sg22
g201
sg24
g201
sg26
g201
sg28
S'Bye'
p554
sg30
g201
sg32
S'Dan Bailey'
p555
sg34
g201
sg36
S'2011'
p556
sg38
g201
sg39
g201
sg41
g201
sg42
g201
ssg60
(dp557
g5
S'41'
p558
sg7
g60
sg9
g10
sg11
g10
sg13
S'DET'
p559
sg15
g12
sg16
g10
sg17
g10
sg19
g20
sg21
g10
sg22
S'65.7'
p560
sg24
g63
sg26
S'25.3'
p561
sg28
S'10/02'
p562
sg30
S'100.0'
p563
sg32
S'Dan Bailey'
p564
sg34
S'L30-34'
p565
sg36
S'2011'
p566
sg38
g20
sg39
S'100.0'
p567
sg41
g10
sg42
g20
ssg188
(dp568
g5
S'51'
p569
sg7
g188
sg9
g25
sg11
g18
sg13
S'STL'
p570
sg15
g12
sg16
g18
sg17
g12
sg19
g20
sg21
g60
sg22
S'66.4'
p571
sg24
g188
sg26
S'22.8'
p572
sg28
S'10/23'
p573
sg30
S'100.0'
p574
sg32
S'Dan Bailey'
p575
sg34
S'W34-7'
p576
sg36
S'2011'
p577
sg38
g20
sg39
S'100.0'
p578
sg41
g60
sg42
g20
ssg63
(dp579
g5
S'48'
p580
sg7
g63
sg9
g25
sg11
g10
sg13
S'@NE'
p581
sg15
g12
sg16
g10
sg17
g20
sg19
g20
sg21
g12
sg22
S'62.6'
p582
sg24
g25
sg26
S'20.6'
p583
sg28
S'10/16'
p584
sg30
S'100.0'
p585
sg32
S'Dan Bailey'
p586
sg34
S'L16-20'
p587
sg36
S'2011'
p588
sg38
g20
sg39
S'100.0'
p589
sg41
g12
sg42
g20
ssg205
(dp590
g5
S'42'
p591
sg7
g205
sg9
S'--'
p592
sg11
g10
sg13
S'SEA'
p593
sg15
g12
sg16
g10
sg17
S'--'
p594
sg19
g20
sg21
g18
sg22
S'--'
p595
sg24
S'--'
p596
sg26
S'--'
p597
sg28
S'11/06'
p598
sg30
S'100.0'
p599
sg32
S'Dan Bailey'
p600
sg34
S'W23-13'
p601
sg36
S'2011'
p602
sg38
g20
sg39
S'100.0'
p603
sg41
g18
sg42
g20
ssg217
(dp604
g5
g20
sg7
g217
sg9
S'--'
p605
sg11
g20
sg13
S'@PHI'
p606
sg15
g12
sg16
g20
sg17
S'--'
p607
sg19
g20
sg21
g12
sg22
S'--'
p608
sg24
S'--'
p609
sg26
S'--'
p610
sg28
S'10/30'
p611
sg30
S'100.0'
p612
sg32
S'Dan Bailey'
p613
sg34
S'L7-34'
p614
sg36
S'2011'
p615
sg38
g20
sg39
S'--'
p616
sg41
g12
sg42
g20
sssS'2013'
p617
(dp618
g3
(dp619
g5
g201
sg7
S'11'
p620
sg9
g201
sg11
g201
sg13
g201
sg15
g201
sg16
g201
sg17
g201
sg19
g201
sg21
g201
sg22
g201
sg24
g201
sg26
g201
sg28
S'Bye'
p621
sg30
g201
sg32
S'Dan Bailey'
p622
sg34
g201
sg36
S'2013'
p623
sg38
g201
sg39
g201
sg41
g201
sg42
g201
ssg43
(dp624
g5
S'37'
p625
sg7
S'10'
p626
sg9
g20
sg11
g12
sg13
S'@NO'
p627
sg15
g12
sg16
g12
sg17
g10
sg19
g20
sg21
g18
sg22
S'52.0'
p628
sg24
g60
sg26
S'--'
p629
sg28
S'11/10'
p630
sg30
S'100.0'
p631
sg32
S'Dan Bailey'
p632
sg34
S'L17-49'
p633
sg36
S'2013'
p634
sg38
g20
sg39
S'100.0'
p635
sg41
g18
sg42
g20
ssg56
(dp636
g5
S'19'
p637
sg7
S'13'
p638
sg9
g25
sg11
g12
sg13
S'OAK'
p639
sg15
g12
sg16
g12
sg17
g12
sg19
g20
sg21
g60
sg22
S'62.3'
p640
sg24
g63
sg26
S'19.4'
p641
sg28
S'11/28'
p642
sg30
S'100.0'
p643
sg32
S'Dan Bailey'
p644
sg34
S'W31-24'
p645
sg36
S'2013'
p646
sg38
g20
sg39
S'100.0'
p647
sg41
g60
sg42
g20
ssg71
(dp648
g5
S'35'
p649
sg7
S'12'
p650
sg9
g60
sg11
g12
sg13
S'@NYG'
p651
sg15
g12
sg16
g12
sg17
g20
sg19
g20
sg21
g10
sg22
S'56.3'
p652
sg24
g60
sg26
S'21.3'
p653
sg28
S'11/24'
p654
sg30
S'100.0'
p655
sg32
S'Dan Bailey'
p656
sg34
S'W24-21'
p657
sg36
S'2013'
p658
sg38
g20
sg39
S'100.0'
p659
sg41
g10
sg42
g20
ssg84
(dp660
g5
S'50'
p661
sg7
S'15'
p662
sg9
g20
sg11
g25
sg13
S'GB'
p663
sg15
g12
sg16
g25
sg17
g205
sg19
g20
sg21
g10
sg22
S'67.0'
p664
sg24
g205
sg26
S'--'
p665
sg28
S'12/15'
p666
sg30
S'100.0'
p667
sg32
S'Dan Bailey'
p668
sg34
S'L36-37'
p669
sg36
S'2013'
p670
sg38
g20
sg39
S'100.0'
p671
sg41
g10
sg42
g20
ssg97
(dp672
g5
g20
sg7
S'14'
p673
sg9
g10
sg11
g20
sg13
S'@CHI'
p674
sg15
g12
sg16
g20
sg17
g20
sg19
g20
sg21
g60
sg22
S'45.8'
p675
sg24
g25
sg26
S'20.7'
p676
sg28
S'12/09'
p677
sg30
S'100.0'
p678
sg32
S'Dan Bailey'
p679
sg34
S'L28-45'
p680
sg36
S'2013'
p681
sg38
g20
sg39
S'--'
p682
sg41
g60
sg42
g20
ssg109
(dp683
g5
S'44'
p684
sg7
S'17'
p685
sg9
g12
sg11
g10
sg13
S'PHI'
p686
sg15
g12
sg16
g10
sg17
g25
sg19
g20
sg21
g12
sg22
S'65.7'
p687
sg24
g63
sg26
S'11.0'
p688
sg28
S'12/29'
p689
sg30
S'100.0'
p690
sg32
S'Dan Bailey'
p691
sg34
S'L22-24'
p692
sg36
S'2013'
p693
sg38
g20
sg39
S'100.0'
p694
sg41
g12
sg42
g20
ssg121
(dp695
g5
S'25'
p696
sg7
S'16'
p697
sg9
g25
sg11
g12
sg13
S'@WAS'
p698
sg15
g12
sg16
g12
sg17
g20
sg19
g20
sg21
g10
sg22
S'63.0'
p699
sg24
g25
sg26
S'21.4'
p700
sg28
S'12/22'
p701
sg30
S'100.0'
p702
sg32
S'Dan Bailey'
p703
sg34
S'W24-23'
p704
sg36
S'2013'
p705
sg38
g20
sg39
S'100.0'
p706
sg41
g10
sg42
g20
ssg12
(dp707
g5
S'45'
p708
sg7
g12
sg9
g12
sg11
g10
sg13
S'NYG'
p709
sg15
g12
sg16
g10
sg17
g188
sg19
g20
sg21
g10
sg22
S'68.3'
p710
sg24
g217
sg26
S'26.0'
p711
sg28
S'09/08'
p712
sg30
S'100.0'
p713
sg32
S'Dan Bailey'
p714
sg34
S'W36-31'
p715
sg36
S'2013'
p716
sg38
g20
sg39
S'100.0'
p717
sg41
g10
sg42
g20
ssg10
(dp718
g5
S'19'
p719
sg7
g10
sg9
g18
sg11
g18
sg13
S'STL'
p720
sg15
g12
sg16
g12
sg17
g60
sg19
g20
sg21
g60
sg22
S'67.2'
p721
sg24
g63
sg26
S'23.0'
p722
sg28
S'09/22'
p723
sg30
S'100.0'
p724
sg32
S'Dan Bailey'
p725
sg34
S'W31-7'
p726
sg36
S'2013'
p727
sg38
g20
sg39
S'50.0'
p728
sg41
g60
sg42
g20
ssg18
(dp729
g5
S'53'
p730
sg7
g18
sg9
g18
sg11
g10
sg13
S'@KC'
p731
sg15
g12
sg16
g10
sg17
g10
sg19
g20
sg21
g12
sg22
S'66.6'
p732
sg24
g25
sg26
S'12.5'
p733
sg28
S'09/15'
p734
sg30
S'100.0'
p735
sg32
S'Dan Bailey'
p736
sg34
S'L16-17'
p737
sg36
S'2013'
p738
sg38
g20
sg39
S'100.0'
p739
sg41
g12
sg42
g20
ssg25
(dp740
g5
S'48'
p741
sg7
g25
sg9
g60
sg11
g18
sg13
S'DEN'
p742
sg15
g12
sg16
g18
sg17
g60
sg19
g20
sg21
g60
sg22
S'64.5'
p743
sg24
g217
sg26
S'23.3'
p744
sg28
S'10/06'
p745
sg30
S'100.0'
p746
sg32
S'Dan Bailey'
p747
sg34
S'L48-51'
p748
sg36
S'2013'
p749
sg38
g20
sg39
S'100.0'
p750
sg41
g60
sg42
g20
ssg60
(dp751
g5
g20
sg7
g60
sg9
g12
sg11
g12
sg13
S'@SD'
p752
sg15
g12
sg16
g20
sg17
g10
sg19
g20
sg21
g10
sg22
S'67.8'
p753
sg24
g60
sg26
S'18.0'
p754
sg28
S'09/29'
p755
sg30
S'100.0'
p756
sg32
S'Dan Bailey'
p757
sg34
S'L21-30'
p758
sg36
S'2013'
p759
sg38
g20
sg39
S'0.0'
p760
sg41
g10
sg42
g20
ssg188
(dp761
g5
S'38'
p762
sg7
g188
sg9
g12
sg11
g12
sg13
S'@PHI'
p763
sg15
g12
sg16
g12
sg17
g10
sg19
g20
sg21
g18
sg22
S'66.3'
p764
sg24
g60
sg26
S'23.0'
p765
sg28
S'10/20'
p766
sg30
S'100.0'
p767
sg32
S'Dan Bailey'
p768
sg34
S'W17-3'
p769
sg36
S'2013'
p770
sg38
g20
sg39
S'100.0'
p771
sg41
g18
sg42
g20
ssg63
(dp772
g5
S'30'
p773
sg7
g63
sg9
g18
sg11
g12
sg13
S'WAS'
p774
sg15
g12
sg16
g12
sg17
g60
sg19
g20
sg21
g60
sg22
S'62.0'
p775
sg24
g63
sg26
S'14.5'
p776
sg28
S'10/13'
p777
sg30
S'100.0'
p778
sg32
S'Dan Bailey'
p779
sg34
S'W31-16'
p780
sg36
S'2013'
p781
sg38
g20
sg39
S'100.0'
p782
sg41
g60
sg42
g20
ssg205
(dp783
g5
S'44'
p784
sg7
g205
sg9
g63
sg11
g18
sg13
S'MIN'
p785
sg15
g12
sg16
g18
sg17
g20
sg19
g20
sg21
g10
sg22
S'61.2'
p786
sg24
g63
sg26
S'20.8'
p787
sg28
S'11/03'
p788
sg30
S'100.0'
p789
sg32
S'Dan Bailey'
p790
sg34
S'W27-23'
p791
sg36
S'2013'
p792
sg38
g20
sg39
S'100.0'
p793
sg41
g10
sg42
g20
ssg217
(dp794
g5
S'53'
p795
sg7
g217
sg9
g12
sg11
g10
sg13
S'@DET'
p796
sg15
g12
sg16
g10
sg17
g63
sg19
g20
sg21
g10
sg22
S'69.1'
p797
sg24
g188
sg26
S'44.0'
p798
sg28
S'10/27'
p799
sg30
S'100.0'
p800
sg32
S'Dan Bailey'
p801
sg34
S'L30-31'
p802
sg36
S'2013'
p803
sg38
g20
sg39
S'100.0'
p804
sg41
g10
sg42
g20
sssS'2012'
p805
(dp806
g3
(dp807
g5
S'44'
p808
sg7
S'11'
p809
sg9
g25
sg11
g10
sg13
S'CLE'
p810
sg15
g12
sg16
g10
sg17
g20
sg19
g20
sg21
g18
sg22
S'49.6'
p811
sg24
g25
sg26
S'10.8'
p812
sg28
S'11/18'
p813
sg30
S'100.0'
p814
sg32
S'Dan Bailey'
p815
sg34
S'W23-20'
p816
sg36
S'2012'
p817
sg38
g20
sg39
S'100.0'
p818
sg41
g18
sg42
g20
ssg43
(dp819
g5
S'30'
p820
sg7
S'10'
p821
sg9
g25
sg11
g12
sg13
S'@PHI'
p822
sg15
g12
sg16
g12
sg17
g18
sg19
g20
sg21
g25
sg22
S'61.9'
p823
sg24
g188
sg26
S'18.8'
p824
sg28
S'11/11'
p825
sg30
S'100.0'
p826
sg32
S'Dan Bailey'
p827
sg34
S'W38-23'
p828
sg36
S'2012'
p829
sg38
g20
sg39
S'100.0'
p830
sg41
g25
sg42
g20
ssg56
(dp831
g5
S'39'
p832
sg7
S'13'
p833
sg9
g10
sg11
g12
sg13
S'PHI'
p834
sg15
g12
sg16
g12
sg17
g60
sg19
g20
sg21
g25
sg22
S'66.4'
p835
sg24
g188
sg26
S'21.7'
p836
sg28
S'12/02'
p837
sg30
S'100.0'
p838
sg32
S'Dan Bailey'
p839
sg34
S'W38-33'
p840
sg36
S'2012'
p841
sg38
g20
sg39
S'100.0'
p842
sg41
g25
sg42
g20
ssg71
(dp843
g5
S'51'
p844
sg7
S'12'
p845
sg9
g10
sg11
g10
sg13
S'WAS'
p846
sg15
g12
sg16
g10
sg17
g60
sg19
g20
sg21
g18
sg22
S'62.1'
p847
sg24
g188
sg26
S'27.7'
p848
sg28
S'11/22'
p849
sg30
S'100.0'
p850
sg32
S'Dan Bailey'
p851
sg34
S'L31-38'
p852
sg36
S'2012'
p853
sg38
g20
sg39
S'100.0'
p854
sg41
g18
sg42
g20
ssg84
(dp855
g5
S'50'
p856
sg7
S'15'
p857
sg9
g18
sg11
g18
sg13
S'PIT'
p858
sg15
g12
sg16
g18
sg17
g60
sg19
g20
sg21
g10
sg22
S'62.5'
p859
sg24
g63
sg26
S'24.5'
p860
sg28
S'12/16'
p861
sg30
S'100.0'
p862
sg32
S'Dan Bailey'
p863
sg34
S'W27-24'
p864
sg36
S'2012'
p865
sg38
g20
sg39
S'100.0'
p866
sg41
g10
sg42
g20
ssg97
(dp867
g5
S'40'
p868
sg7
S'14'
p869
sg9
g10
sg11
g18
sg13
S'@CIN'
p870
sg15
g12
sg16
g18
sg17
g12
sg19
g20
sg21
g18
sg22
S'65.0'
p871
sg24
g60
sg26
S'21.7'
p872
sg28
S'12/09'
p873
sg30
S'100.0'
p874
sg32
S'Dan Bailey'
p875
sg34
S'W20-19'
p876
sg36
S'2012'
p877
sg38
g20
sg39
S'100.0'
p878
sg41
g18
sg42
g20
ssg109
(dp879
g5
S'48'
p880
sg7
S'17'
p881
sg9
g60
sg11
g12
sg13
S'@WAS'
p882
sg15
g12
sg16
g12
sg17
g20
sg19
g20
sg21
g12
sg22
S'62.5'
p883
sg24
g60
sg26
S'27.3'
p884
sg28
S'12/30'
p885
sg30
S'100.0'
p886
sg32
S'Dan Bailey'
p887
sg34
S'L18-28'
p888
sg36
S'2012'
p889
sg38
g20
sg39
S'100.0'
p890
sg41
g12
sg42
g20
ssg121
(dp891
g5
S'47'
p892
sg7
S'16'
p893
sg9
g60
sg11
g12
sg13
S'NO'
p894
sg15
g12
sg16
g12
sg17
g18
sg19
g20
sg21
g60
sg22
S'63.5'
p895
sg24
g63
sg26
S'15.0'
p896
sg28
S'12/23'
p897
sg30
S'100.0'
p898
sg32
S'Dan Bailey'
p899
sg34
S'L31-34'
p900
sg36
S'2012'
p901
sg38
g20
sg39
S'100.0'
p902
sg41
g60
sg42
g20
ssg12
(dp903
g5
S'33'
p904
sg7
g12
sg9
g25
sg11
g12
sg13
S'@NYG'
p905
sg15
g12
sg16
g12
sg17
g20
sg19
g20
sg21
g10
sg22
S'65.8'
p906
sg24
g25
sg26
S'20.0'
p907
sg28
S'09/05'
p908
sg30
S'100.0'
p909
sg32
S'Dan Bailey'
p910
sg34
S'W24-17'
p911
sg36
S'2012'
p912
sg38
g20
sg39
S'100.0'
p913
sg41
g10
sg42
g20
ssg10
(dp914
g5
S'32'
p915
sg7
g10
sg9
g12
sg11
g10
sg13
S'TB'
p916
sg15
g12
sg16
g10
sg17
g10
sg19
g20
sg21
g12
sg22
S'59.8'
p917
sg24
g25
sg26
S'15.0'
p918
sg28
S'09/23'
p919
sg30
S'100.0'
p920
sg32
S'Dan Bailey'
p921
sg34
S'W16-10'
p922
sg36
S'2012'
p923
sg38
g20
sg39
S'100.0'
p924
sg41
g12
sg42
g20
ssg18
(dp925
g5
g20
sg7
g18
sg9
g12
sg11
g20
sg13
S'@SEA'
p926
sg15
g12
sg16
g20
sg17
g12
sg19
g20
sg21
g12
sg22
S'62.0'
p927
sg24
g18
sg26
S'20.0'
p928
sg28
S'09/16'
p929
sg30
S'100.0'
p930
sg32
S'Dan Bailey'
p931
sg34
S'L7-27'
p932
sg36
S'2012'
p933
sg38
g20
sg39
S'--'
p934
sg41
g12
sg42
g20
ssg25
(dp935
g5
g201
sg7
g25
sg9
g201
sg11
g201
sg13
g201
sg15
g201
sg16
g201
sg17
g201
sg19
g201
sg21
g201
sg22
g201
sg24
g201
sg26
g201
sg28
S'Bye'
p936
sg30
g201
sg32
S'Dan Bailey'
p937
sg34
g201
sg36
S'2012'
p938
sg38
g201
sg39
g201
sg41
g201
sg42
g201
ssg60
(dp939
g5
S'39'
p940
sg7
g60
sg9
g10
sg11
g12
sg13
S'CHI'
p941
sg15
g12
sg16
g12
sg17
g20
sg19
g20
sg21
g12
sg22
S'46.3'
p942
sg24
g60
sg26
S'16.7'
p943
sg28
S'10/01'
p944
sg30
S'100.0'
p945
sg32
S'Dan Bailey'
p946
sg34
S'L18-34'
p947
sg36
S'2012'
p948
sg38
g20
sg39
S'100.0'
p949
sg41
g12
sg42
g20
ssg188
(dp950
g5
S'49'
p951
sg7
g188
sg9
g18
sg11
g60
sg13
S'@CAR'
p952
sg15
g12
sg16
g60
sg17
g10
sg19
g20
sg21
g12
sg22
S'66.0'
p953
sg24
g63
sg26
S'24.0'
p954
sg28
S'10/21'
p955
sg30
S'100.0'
p956
sg32
S'Dan Bailey'
p957
sg34
S'W19-14'
p958
sg36
S'2012'
p959
sg38
g20
sg39
S'100.0'
p960
sg41
g12
sg42
g20
ssg63
(dp961
g5
S'43'
p962
sg7
g63
sg9
g10
sg11
g60
sg13
S'@BAL'
p963
sg15
g12
sg16
g10
sg17
g10
sg19
g20
sg21
g18
sg22
S'63.3'
p964
sg24
g188
sg26
S'53.0'
p965
sg28
S'10/14'
p966
sg30
S'100.0'
p967
sg32
S'Dan Bailey'
p968
sg34
S'L29-31'
p969
sg36
S'2012'
p970
sg38
g20
sg39
S'75.0'
p971
sg41
g18
sg42
g20
ssg205
(dp972
g5
S'32'
p973
sg7
g205
sg9
g18
sg11
g10
sg13
S'@ATL'
p974
sg15
g12
sg16
g18
sg17
g18
sg19
g20
sg21
g12
sg22
S'64.3'
p975
sg24
g60
sg26
S'22.5'
p976
sg28
S'11/04'
p977
sg30
S'100.0'
p978
sg32
S'Dan Bailey'
p979
sg34
S'L13-19'
p980
sg36
S'2012'
p981
sg38
g20
sg39
S'66.7'
p982
sg41
g12
sg42
g20
ssg217
(dp983
g5
S'51'
p984
sg7
g217
sg9
g60
sg11
g12
sg13
S'NYG'
p985
sg15
g12
sg16
g12
sg17
g12
sg19
g20
sg21
g10
sg22
S'66.4'
p986
sg24
g25
sg26
S'21.5'
p987
sg28
S'10/28'
p988
sg30
S'100.0'
p989
sg32
S'Dan Bailey'
p990
sg34
S'L24-29'
p991
sg36
S'2012'
p992
sg38
g20
sg39
S'100.0'
p993
sg41
g10
sg42
g20
sss.