(dp0
S'2015'
p1
(dp2
S'11'
p3
(dp4
S'FGLng'
p5
S'0'
p6
sS'WK'
p7
S'11'
p8
sS'Ret'
p9
S'2'
p10
sS'FGAtt'
p11
g6
sS'Opp'
p12
S'@CAR'
p13
sS'G'
p14
S'1'
p15
sS'FGM'
p16
g6
sS'TB'
p17
g15
sS'GS'
p18
g6
sS'XPM'
p19
g10
sS'KOAvg'
p20
S'55.3'
p21
sS'KO'
p22
S'3'
p23
sS'RetAvg'
p24
S'15.5'
p25
sS'Game Date'
p26
S'11/22'
p27
sS'XPPct'
p28
S'100.0'
p29
sS'Player'
p30
S'Dustin Hopkins'
p31
sS'Result'
p32
S'L16-44'
p33
sS'Year'
p34
S'2015'
p35
sS'XPBlk'
p36
g6
sS'FGPct'
p37
S'--'
p38
sS'XPAtt'
p39
g10
sS'FGBlk'
p40
g6
ssS'10'
p41
(dp42
g5
S'40'
p43
sg7
S'10'
p44
sg9
g23
sg11
S'4'
p45
sg12
S'NO'
p46
sg14
g15
sg16
g45
sg17
S'6'
p47
sg18
g6
sg19
S'5'
p48
sg20
S'65.7'
p49
sg22
S'9'
p50
sg24
S'19.7'
p51
sg26
S'11/15'
p52
sg28
S'100.0'
p53
sg30
S'Dustin Hopkins'
p54
sg32
S'W47-14'
p55
sg34
S'2015'
p56
sg36
g6
sg37
S'100.0'
p57
sg39
g48
sg40
g6
ssS'13'
p58
(dp59
g5
S'46'
p60
sg7
S'13'
p61
sg9
g10
sg11
g45
sg12
S'DAL'
p62
sg14
g15
sg16
g23
sg17
g10
sg18
g6
sg19
g15
sg20
S'66.0'
p63
sg22
g45
sg24
S'35.0'
p64
sg26
S'12/07'
p65
sg28
S'100.0'
p66
sg30
S'Dustin Hopkins'
p67
sg32
S'L16-19'
p68
sg34
S'2015'
p69
sg36
g6
sg37
S'75.0'
p70
sg39
g15
sg40
g6
ssS'12'
p71
(dp72
g5
S'41'
p73
sg7
S'12'
p74
sg9
g15
sg11
g23
sg12
S'NYG'
p75
sg14
g15
sg16
g10
sg17
g45
sg18
g6
sg19
g10
sg20
S'64.6'
p76
sg22
g48
sg24
S'19.0'
p77
sg26
S'11/29'
p78
sg28
S'100.0'
p79
sg30
S'Dustin Hopkins'
p80
sg32
S'W20-14'
p81
sg34
S'2015'
p82
sg36
g6
sg37
S'66.7'
p83
sg39
g10
sg40
g15
ssS'15'
p84
(dp85
g5
g6
sg7
S'15'
p86
sg9
g23
sg11
g6
sg12
S'BUF'
p87
sg14
g15
sg16
g6
sg17
g23
sg18
g6
sg19
g48
sg20
S'65.2'
p88
sg22
g47
sg24
S'17.0'
p89
sg26
S'12/20'
p90
sg28
S'100.0'
p91
sg30
S'Dustin Hopkins'
p92
sg32
S'W35-25'
p93
sg34
S'2015'
p94
sg36
g6
sg37
S'--'
p95
sg39
g48
sg40
g6
ssS'14'
p96
(dp97
g5
S'47'
p98
sg7
S'14'
p99
sg9
g10
sg11
g15
sg12
S'@CHI'
p100
sg14
g15
sg16
g15
sg17
g23
sg18
g6
sg19
g23
sg20
S'64.2'
p101
sg22
g48
sg24
S'19.0'
p102
sg26
S'12/13'
p103
sg28
S'100.0'
p104
sg30
S'Dustin Hopkins'
p105
sg32
S'W24-21'
p106
sg34
S'2015'
p107
sg36
g6
sg37
S'100.0'
p108
sg39
g23
sg40
g6
ssS'17'
p109
(dp110
g5
S'33'
p111
sg7
S'17'
p112
sg9
g10
sg11
g10
sg12
S'@DAL'
p113
sg14
g15
sg16
g10
sg17
g48
sg18
g6
sg19
g45
sg20
S'64.9'
p114
sg22
S'7'
p115
sg24
S'23.5'
p116
sg26
S'01/03'
p117
sg28
S'100.0'
p118
sg30
S'Dustin Hopkins'
p119
sg32
S'W34-23'
p120
sg34
S'2015'
p121
sg36
g6
sg37
S'100.0'
p122
sg39
g45
sg40
g6
ssS'16'
p123
(dp124
g5
S'28'
p125
sg7
S'16'
p126
sg9
g10
sg11
g15
sg12
S'@PHI'
p127
sg14
g15
sg16
g15
sg17
g48
sg18
g6
sg19
g23
sg20
S'65.0'
p128
sg22
g115
sg24
S'32.5'
p129
sg26
S'12/26'
p130
sg28
S'75.0'
p131
sg30
S'Dustin Hopkins'
p132
sg32
S'W38-24'
p133
sg34
S'2015'
p134
sg36
g6
sg37
S'100.0'
p135
sg39
g45
sg40
g6
ssg23
(dp136
g5
S'44'
p137
sg7
g23
sg9
g15
sg11
g10
sg12
S'@NYG'
p138
sg14
g15
sg16
g10
sg17
g23
sg18
g6
sg19
g15
sg20
S'45.2'
p139
sg22
g48
sg24
S'4.0'
p140
sg26
S'09/24'
p141
sg28
S'100.0'
p142
sg30
S'Dustin Hopkins'
p143
sg32
S'L21-32'
p144
sg34
S'2015'
p145
sg36
g6
sg37
S'100.0'
p146
sg39
g15
sg40
g6
ssg10
(dp147
g5
S'46'
p148
sg7
g10
sg9
g15
sg11
g15
sg12
S'STL'
p149
sg14
g15
sg16
g15
sg17
g45
sg18
g6
sg19
g23
sg20
S'66.6'
p150
sg22
g48
sg24
S'28.0'
p151
sg26
S'09/20'
p152
sg28
S'100.0'
p153
sg30
S'Dustin Hopkins'
p154
sg32
S'W24-10'
p155
sg34
S'2015'
p156
sg36
g6
sg37
S'100.0'
p157
sg39
g23
sg40
g6
ssg48
(dp158
g5
S'52'
p159
sg7
g48
sg9
g6
sg11
g23
sg12
S'@ATL'
p160
sg14
g15
sg16
g10
sg17
g45
sg18
g6
sg19
g15
sg20
S'65.0'
p161
sg22
g45
sg24
S'--'
p162
sg26
S'10/11'
p163
sg28
S'100.0'
p164
sg30
S'Dustin Hopkins'
p165
sg32
S'L19-25'
p166
sg34
S'2015'
p167
sg36
g6
sg37
S'66.7'
p168
sg39
g15
sg40
g6
ssg45
(dp169
g5
S'38'
p170
sg7
g45
sg9
g6
sg11
g23
sg12
S'PHI'
p171
sg14
g15
sg16
g23
sg17
g47
sg18
g6
sg19
g10
sg20
S'65.0'
p172
sg22
g47
sg24
S'--'
p173
sg26
S'10/04'
p174
sg28
S'100.0'
p175
sg30
S'Dustin Hopkins'
p176
sg32
S'W23-20'
p177
sg34
S'2015'
p178
sg36
g6
sg37
S'100.0'
p179
sg39
g10
sg40
g6
ssg115
(dp180
g5
S'35'
p181
sg7
g115
sg9
g15
sg11
g15
sg12
S'TB'
p182
sg14
g15
sg16
g15
sg17
g45
sg18
g6
sg19
g45
sg20
S'57.0'
p183
sg22
g47
sg24
S'15.0'
p184
sg26
S'10/25'
p185
sg28
S'100.0'
p186
sg30
S'Dustin Hopkins'
p187
sg32
S'W31-30'
p188
sg34
S'2015'
p189
sg36
g6
sg37
S'100.0'
p190
sg39
g45
sg40
g6
ssg47
(dp191
g5
S'54'
p192
sg7
g47
sg9
g23
sg11
g10
sg12
S'@NYJ'
p193
sg14
g15
sg16
g10
sg17
g15
sg18
g6
sg19
g10
sg20
S'51.2'
p194
sg22
g48
sg24
S'15.7'
p195
sg26
S'10/18'
p196
sg28
S'100.0'
p197
sg30
S'Dustin Hopkins'
p198
sg32
S'L20-34'
p199
sg34
S'2015'
p200
sg36
g6
sg37
S'100.0'
p201
sg39
g10
sg40
g6
ssg50
(dp202
g5
S'23'
p203
sg7
g50
sg9
g10
sg11
g15
sg12
S'@NE'
p204
sg14
g15
sg16
g15
sg17
g15
sg18
g6
sg19
g15
sg20
S'65.0'
p205
sg22
g23
sg24
S'9.0'
p206
sg26
S'11/08'
p207
sg28
S'100.0'
p208
sg30
S'Dustin Hopkins'
p209
sg32
S'L10-27'
p210
sg34
S'2015'
p211
sg36
g6
sg37
S'100.0'
p212
sg39
g15
sg40
g6
ssS'8'
p213
(dp214
g5
S''
p215
sg7
g213
sg9
g215
sg11
g215
sg12
g215
sg14
g215
sg16
g215
sg17
g215
sg18
g215
sg19
g215
sg20
g215
sg22
g215
sg24
g215
sg26
S'Bye'
p216
sg28
g215
sg30
S'Dustin Hopkins'
p217
sg32
g215
sg34
S'2015'
p218
sg36
g215
sg37
g215
sg39
g215
sg40
g215
sssS'2013'
p219
(dp220
g15
(dp221
g5
S'--'
p222
sg7
g15
sg9
S'--'
p223
sg11
S'--'
p224
sg12
S'NE'
p225
sg14
g6
sg16
S'--'
p226
sg17
S'--'
p227
sg18
g6
sg19
S'--'
p228
sg20
S'--'
p229
sg22
S'--'
p230
sg24
S'--'
p231
sg26
S'09/08'
p232
sg28
S'--'
p233
sg30
S'Dustin Hopkins'
p234
sg32
S'L21-23'
p235
sg34
S'2013'
p236
sg36
S'--'
p237
sg37
S'--'
p238
sg39
S'--'
p239
sg40
S'--'
p240
ssg23
(dp241
g5
S'--'
p242
sg7
g23
sg9
S'--'
p243
sg11
S'--'
p244
sg12
S'@NYJ'
p245
sg14
g6
sg16
S'--'
p246
sg17
S'--'
p247
sg18
g6
sg19
S'--'
p248
sg20
S'--'
p249
sg22
S'--'
p250
sg24
S'--'
p251
sg26
S'09/22'
p252
sg28
S'--'
p253
sg30
S'Dustin Hopkins'
p254
sg32
S'L20-27'
p255
sg34
S'2013'
p256
sg36
S'--'
p257
sg37
S'--'
p258
sg39
S'--'
p259
sg40
S'--'
p260
ssg10
(dp261
g5
S'--'
p262
sg7
g10
sg9
S'--'
p263
sg11
S'--'
p264
sg12
S'CAR'
p265
sg14
g6
sg16
S'--'
p266
sg17
S'--'
p267
sg18
g6
sg19
S'--'
p268
sg20
S'--'
p269
sg22
S'--'
p270
sg24
S'--'
p271
sg26
S'09/15'
p272
sg28
S'--'
p273
sg30
S'Dustin Hopkins'
p274
sg32
S'W24-23'
p275
sg34
S'2013'
p276
sg36
S'--'
p277
sg37
S'--'
p278
sg39
S'--'
p279
sg40
S'--'
p280
ssg48
(dp281
g5
S'--'
p282
sg7
g48
sg9
S'--'
p283
sg11
S'--'
p284
sg12
S'@CLE'
p285
sg14
g6
sg16
S'--'
p286
sg17
S'--'
p287
sg18
g6
sg19
S'--'
p288
sg20
S'--'
p289
sg22
S'--'
p290
sg24
S'--'
p291
sg26
S'10/03'
p292
sg28
S'--'
p293
sg30
S'Dustin Hopkins'
p294
sg32
S'L24-37'
p295
sg34
S'2013'
p296
sg36
S'--'
p297
sg37
S'--'
p298
sg39
S'--'
p299
sg40
S'--'
p300
ssg45
(dp301
g5
S'--'
p302
sg7
g45
sg9
S'--'
p303
sg11
S'--'
p304
sg12
S'BAL'
p305
sg14
g6
sg16
S'--'
p306
sg17
S'--'
p307
sg18
g6
sg19
S'--'
p308
sg20
S'--'
p309
sg22
S'--'
p310
sg24
S'--'
p311
sg26
S'09/29'
p312
sg28
S'--'
p313
sg30
S'Dustin Hopkins'
p314
sg32
S'W23-20'
p315
sg34
S'2013'
p316
sg36
S'--'
p317
sg37
S'--'
p318
sg39
S'--'
p319
sg40
S'--'
p320
sss.