(dp0
S'2015'
p1
(dp2
S'11'
p3
(dp4
S'FGLng'
p5
S'48'
p6
sS'WK'
p7
S'11'
p8
sS'Ret'
p9
S'4'
p10
sS'FGAtt'
p11
S'3'
p12
sS'Opp'
p13
S'WAS'
p14
sS'G'
p15
S'1'
p16
sS'FGM'
p17
g12
sS'TB'
p18
g10
sS'GS'
p19
S'0'
p20
sS'XPM'
p21
S'5'
p22
sS'KOAvg'
p23
S'66.8'
p24
sS'KO'
p25
S'8'
p26
sS'RetAvg'
p27
S'44.3'
p28
sS'Game Date'
p29
S'11/22'
p30
sS'XPPct'
p31
S'100.0'
p32
sS'Player'
p33
S'Graham Gano'
p34
sS'Result'
p35
S'W44-16'
p36
sS'Year'
p37
S'2015'
p38
sS'XPBlk'
p39
g20
sS'FGPct'
p40
S'100.0'
p41
sS'XPAtt'
p42
g22
sS'FGBlk'
p43
g20
ssS'10'
p44
(dp45
g5
S'48'
p46
sg7
S'10'
p47
sg9
g22
sg11
S'2'
p48
sg13
S'@TEN'
p49
sg15
g16
sg17
g48
sg18
g16
sg19
g20
sg21
g12
sg23
S'64.7'
p50
sg25
S'6'
p51
sg27
S'17.2'
p52
sg29
S'11/15'
p53
sg31
S'100.0'
p54
sg33
S'Graham Gano'
p55
sg35
S'W27-10'
p56
sg37
S'2015'
p57
sg39
g20
sg40
S'100.0'
p58
sg42
g12
sg43
g20
ssS'13'
p59
(dp60
g5
g20
sg7
S'13'
p61
sg9
g16
sg11
g20
sg13
S'@NO'
p62
sg15
g16
sg17
g20
sg18
g51
sg19
g20
sg21
g22
sg23
S'65.4'
p63
sg25
S'7'
p64
sg27
S'26.0'
p65
sg29
S'12/06'
p66
sg31
S'83.3'
p67
sg33
S'Graham Gano'
p68
sg35
S'W41-38'
p69
sg37
S'2015'
p70
sg39
g16
sg40
S'--'
p71
sg42
g51
sg43
g20
ssS'12'
p72
(dp73
g5
S'50'
p74
sg7
S'12'
p75
sg9
g20
sg11
g22
sg13
S'@DAL'
p76
sg15
g16
sg17
g10
sg18
g64
sg19
g20
sg21
g12
sg23
S'65.0'
p77
sg25
g64
sg27
S'--'
p78
sg29
S'11/26'
p79
sg31
S'100.0'
p80
sg33
S'Graham Gano'
p81
sg35
S'W33-14'
p82
sg37
S'2015'
p83
sg39
g20
sg40
S'80.0'
p84
sg42
g12
sg43
g16
ssS'15'
p85
(dp86
g5
S'43'
p87
sg7
S'15'
p88
sg9
g16
sg11
g48
sg13
S'@NYG'
p89
sg15
g16
sg17
g16
sg18
g22
sg19
g20
sg21
g22
sg23
S'64.7'
p90
sg25
g51
sg27
S'19.0'
p91
sg29
S'12/20'
p92
sg31
S'100.0'
p93
sg33
S'Graham Gano'
p94
sg35
S'W38-35'
p95
sg37
S'2015'
p96
sg39
g20
sg40
S'50.0'
p97
sg42
g22
sg43
g16
ssS'14'
p98
(dp99
g5
S'38'
p100
sg7
S'14'
p101
sg9
g48
sg11
g16
sg13
S'ATL'
p102
sg15
g16
sg17
g16
sg18
g22
sg19
g20
sg21
g22
sg23
S'65.4'
p103
sg25
g64
sg27
S'31.0'
p104
sg29
S'12/13'
p105
sg31
S'100.0'
p106
sg33
S'Graham Gano'
p107
sg35
S'W38-0'
p108
sg37
S'2015'
p109
sg39
g20
sg40
S'100.0'
p110
sg42
g22
sg43
g20
ssS'17'
p111
(dp112
g5
S'49'
p113
sg7
S'17'
p114
sg9
g20
sg11
g16
sg13
S'TB'
p115
sg15
g16
sg17
g16
sg18
g64
sg19
g20
sg21
g22
sg23
S'65.0'
p116
sg25
g64
sg27
S'--'
p117
sg29
S'01/03'
p118
sg31
S'100.0'
p119
sg33
S'Graham Gano'
p120
sg35
S'W38-10'
p121
sg37
S'2015'
p122
sg39
g20
sg40
S'100.0'
p123
sg42
g22
sg43
g20
ssS'16'
p124
(dp125
g5
S'47'
p126
sg7
S'16'
p127
sg9
g16
sg11
g48
sg13
S'@ATL'
p128
sg15
g16
sg17
g48
sg18
g12
sg19
g20
sg21
g16
sg23
S'67.0'
p129
sg25
g10
sg27
S'29.0'
p130
sg29
S'12/27'
p131
sg31
S'100.0'
p132
sg33
S'Graham Gano'
p133
sg35
S'L13-20'
p134
sg37
S'2015'
p135
sg39
g20
sg40
S'100.0'
p136
sg42
g16
sg43
g20
ssg16
(dp137
g5
S'47'
p138
sg7
g16
sg9
g16
sg11
g10
sg13
S'@JAC'
p139
sg15
g16
sg17
g48
sg18
g10
sg19
g20
sg21
g48
sg23
S'66.0'
p140
sg25
g22
sg27
S'40.0'
p141
sg29
S'09/13'
p142
sg31
S'100.0'
p143
sg33
S'Graham Gano'
p144
sg35
S'W20-9'
p145
sg37
S'2015'
p146
sg39
g20
sg40
S'50.0'
p147
sg42
g48
sg43
g16
ssg12
(dp148
g5
S'47'
p149
sg7
g12
sg9
g10
sg11
g48
sg13
S'NO'
p150
sg15
g16
sg17
g48
sg18
g48
sg19
g20
sg21
g12
sg23
S'64.7'
p151
sg25
g51
sg27
S'21.5'
p152
sg29
S'09/27'
p153
sg31
S'100.0'
p154
sg33
S'Graham Gano'
p155
sg35
S'W27-22'
p156
sg37
S'2015'
p157
sg39
g20
sg40
S'100.0'
p158
sg42
g12
sg43
g20
ssg48
(dp159
g5
S'28'
p160
sg7
g48
sg9
g16
sg11
g48
sg13
S'HOU'
p161
sg15
g16
sg17
g16
sg18
g10
sg19
g20
sg21
g12
sg23
S'66.6'
p162
sg25
g22
sg27
S'27.0'
p163
sg29
S'09/20'
p164
sg31
S'100.0'
p165
sg33
S'Graham Gano'
p166
sg35
S'W24-17'
p167
sg37
S'2015'
p168
sg39
g20
sg40
S'50.0'
p169
sg42
g12
sg43
g16
ssg22
(dp170
g5
S''
p171
sg7
g22
sg9
g171
sg11
g171
sg13
g171
sg15
g171
sg17
g171
sg18
g171
sg19
g171
sg21
g171
sg23
g171
sg25
g171
sg27
g171
sg29
S'Bye'
p172
sg31
g171
sg33
S'Graham Gano'
p173
sg35
g171
sg37
S'2015'
p174
sg39
g171
sg40
g171
sg42
g171
sg43
g171
ssg10
(dp175
g5
S'27'
p176
sg7
g10
sg9
g12
sg11
g12
sg13
S'@TB'
p177
sg15
g16
sg17
g12
sg18
g22
sg19
g20
sg21
g10
sg23
S'66.6'
p178
sg25
g26
sg27
S'30.7'
p179
sg29
S'10/04'
p180
sg31
S'100.0'
p181
sg33
S'Graham Gano'
p182
sg35
S'W37-23'
p183
sg37
S'2015'
p184
sg39
g20
sg40
S'100.0'
p185
sg42
g10
sg43
g20
ssg64
(dp186
g5
S'35'
p187
sg7
g64
sg9
g20
sg11
g48
sg13
S'PHI'
p188
sg15
g16
sg17
g48
sg18
g51
sg19
g20
sg21
g12
sg23
S'65.0'
p189
sg25
g51
sg27
S'--'
p190
sg29
S'10/25'
p191
sg31
S'100.0'
p192
sg33
S'Graham Gano'
p193
sg35
S'W27-16'
p194
sg37
S'2015'
p195
sg39
g20
sg40
S'100.0'
p196
sg42
g12
sg43
g20
ssg51
(dp197
g5
g20
sg7
g51
sg9
g48
sg11
g20
sg13
S'@SEA'
p198
sg15
g16
sg17
g20
sg18
g12
sg19
g20
sg21
g12
sg23
S'66.6'
p199
sg25
g22
sg27
S'13.5'
p200
sg29
S'10/18'
p201
sg31
S'75.0'
p202
sg33
S'Graham Gano'
p203
sg35
S'W27-23'
p204
sg37
S'2015'
p205
sg39
g20
sg40
S'--'
p206
sg42
g10
sg43
g20
ssS'9'
p207
(dp208
g5
S'49'
p209
sg7
g207
sg9
g12
sg11
g10
sg13
S'GB'
p210
sg15
g16
sg17
g12
sg18
g22
sg19
g20
sg21
g10
sg23
S'66.0'
p211
sg25
g26
sg27
S'23.7'
p212
sg29
S'11/08'
p213
sg31
S'100.0'
p214
sg33
S'Graham Gano'
p215
sg35
S'W37-29'
p216
sg37
S'2015'
p217
sg39
g20
sg40
S'75.0'
p218
sg42
g10
sg43
g20
ssg26
(dp219
g5
S'52'
p220
sg7
g26
sg9
g22
sg11
g12
sg13
S'IND'
p221
sg15
g16
sg17
g12
sg18
g48
sg19
g20
sg21
g48
sg23
S'66.7'
p222
sg25
g64
sg27
S'30.0'
p223
sg29
S'11/02'
p224
sg31
S'66.7'
p225
sg33
S'Graham Gano'
p226
sg35
S'W29-26'
p227
sg37
S'2015'
p228
sg39
g20
sg40
S'100.0'
p229
sg42
g12
sg43
g20
sssS'2014'
p230
(dp231
g3
(dp232
g5
S'23'
p233
sg7
S'11'
p234
sg9
g16
sg11
g12
sg13
S'ATL'
p235
sg15
g16
sg17
g16
sg18
g12
sg19
g20
sg21
g48
sg23
S'65.8'
p236
sg25
g10
sg27
S'19.0'
p237
sg29
S'11/16'
p238
sg31
S'100.0'
p239
sg33
S'Graham Gano'
p240
sg35
S'L17-19'
p241
sg37
S'2014'
p242
sg39
g20
sg40
S'33.3'
p243
sg42
g48
sg43
g16
ssg44
(dp244
g5
g20
sg7
S'10'
p245
sg9
g20
sg11
g20
sg13
S'@PHI'
p246
sg15
g16
sg17
g20
sg18
g10
sg19
g20
sg21
g12
sg23
S'65.0'
p247
sg25
g10
sg27
S'--'
p248
sg29
S'11/10'
p249
sg31
S'100.0'
p250
sg33
S'Graham Gano'
p251
sg35
S'L21-45'
p252
sg37
S'2014'
p253
sg39
g20
sg40
S'--'
p254
sg42
g12
sg43
g20
ssg59
(dp255
g5
S'35'
p256
sg7
S'13'
p257
sg9
g16
sg11
g48
sg13
S'@MIN'
p258
sg15
g16
sg17
g48
sg18
g12
sg19
g20
sg21
g16
sg23
S'65.8'
p259
sg25
g10
sg27
S'28.0'
p260
sg29
S'11/30'
p261
sg31
S'100.0'
p262
sg33
S'Graham Gano'
p263
sg35
S'L13-31'
p264
sg37
S'2014'
p265
sg39
g20
sg40
S'100.0'
p266
sg42
g16
sg43
g20
ssg72
(dp267
g5
g171
sg7
S'12'
p268
sg9
g171
sg11
g171
sg13
g171
sg15
g171
sg17
g171
sg18
g171
sg19
g171
sg21
g171
sg23
g171
sg25
g171
sg27
g171
sg29
S'Bye'
p269
sg31
g171
sg33
S'Graham Gano'
p270
sg35
g171
sg37
S'2014'
p271
sg39
g171
sg40
g171
sg42
g171
sg43
g171
ssg85
(dp272
g5
S'49'
p273
sg7
S'15'
p274
sg9
g16
sg11
g22
sg13
S'TB'
p275
sg15
g16
sg17
g10
sg18
g22
sg19
g20
sg21
g16
sg23
S'65.3'
p276
sg25
g51
sg27
S'25.0'
p277
sg29
S'12/14'
p278
sg31
S'100.0'
p279
sg33
S'Graham Gano'
p280
sg35
S'W19-17'
p281
sg37
S'2014'
p282
sg39
g20
sg40
S'80.0'
p283
sg42
g16
sg43
g20
ssg98
(dp284
g5
S'41'
p285
sg7
S'14'
p286
sg9
g16
sg11
g48
sg13
S'@NO'
p287
sg15
g16
sg17
g48
sg18
g64
sg19
g20
sg21
g22
sg23
S'65.4'
p288
sg25
g26
sg27
S'28.0'
p289
sg29
S'12/07'
p290
sg31
S'100.0'
p291
sg33
S'Graham Gano'
p292
sg35
S'W41-10'
p293
sg37
S'2014'
p294
sg39
g20
sg40
S'100.0'
p295
sg42
g22
sg43
g20
ssg111
(dp296
g5
S'48'
p297
sg7
S'17'
p298
sg9
g12
sg11
g48
sg13
S'@ATL'
p299
sg15
g16
sg17
g48
sg18
g10
sg19
g20
sg21
g10
sg23
S'68.3'
p300
sg25
g64
sg27
S'35.7'
p301
sg29
S'12/28'
p302
sg31
S'100.0'
p303
sg33
S'Graham Gano'
p304
sg35
S'W34-3'
p305
sg37
S'2014'
p306
sg39
g20
sg40
S'100.0'
p307
sg42
g10
sg43
g20
ssg124
(dp308
g5
S'23'
p309
sg7
S'16'
p310
sg9
g16
sg11
g48
sg13
S'CLE'
p311
sg15
g16
sg17
g16
sg18
g12
sg19
g20
sg21
g48
sg23
S'66.8'
p312
sg25
g10
sg27
S'39.0'
p313
sg29
S'12/21'
p314
sg31
S'100.0'
p315
sg33
S'Graham Gano'
p316
sg35
S'W17-13'
p317
sg37
S'2014'
p318
sg39
g20
sg40
S'50.0'
p319
sg42
g48
sg43
g20
ssg16
(dp320
g5
S'33'
p321
sg7
g16
sg9
g48
sg11
g12
sg13
S'@TB'
p322
sg15
g16
sg17
g48
sg18
g48
sg19
g20
sg21
g48
sg23
S'68.3'
p323
sg25
g10
sg27
S'26.0'
p324
sg29
S'09/07'
p325
sg31
S'100.0'
p326
sg33
S'Graham Gano'
p327
sg35
S'W20-14'
p328
sg37
S'2014'
p329
sg39
g20
sg40
S'66.7'
p330
sg42
g48
sg43
g20
ssg12
(dp331
g5
S'40'
p332
sg7
g12
sg9
g20
sg11
g48
sg13
S'PIT'
p333
sg15
g16
sg17
g48
sg18
g22
sg19
g20
sg21
g16
sg23
S'65.0'
p334
sg25
g22
sg27
S'--'
p335
sg29
S'09/21'
p336
sg31
S'100.0'
p337
sg33
S'Graham Gano'
p338
sg35
S'L19-37'
p339
sg37
S'2014'
p340
sg39
g20
sg40
S'100.0'
p341
sg42
g16
sg43
g20
ssg48
(dp342
g5
S'53'
p343
sg7
g48
sg9
g16
sg11
g12
sg13
S'DET'
p344
sg15
g16
sg17
g12
sg18
g22
sg19
g20
sg21
g16
sg23
S'65.7'
p345
sg25
g51
sg27
S'33.0'
p346
sg29
S'09/14'
p347
sg31
S'100.0'
p348
sg33
S'Graham Gano'
p349
sg35
S'W24-7'
p350
sg37
S'2014'
p351
sg39
g20
sg40
S'100.0'
p352
sg42
g16
sg43
g20
ssg22
(dp353
g5
S'44'
p354
sg7
g22
sg9
g48
sg11
g16
sg13
S'CHI'
p355
sg15
g16
sg17
g16
sg18
g10
sg19
g20
sg21
g10
sg23
S'65.0'
p356
sg25
g51
sg27
S'22.5'
p357
sg29
S'10/05'
p358
sg31
S'100.0'
p359
sg33
S'Graham Gano'
p360
sg35
S'W31-24'
p361
sg37
S'2014'
p362
sg39
g20
sg40
S'100.0'
p363
sg42
g10
sg43
g20
ssg10
(dp364
g5
S'37'
p365
sg7
g10
sg9
g20
sg11
g16
sg13
S'@BAL'
p366
sg15
g16
sg17
g16
sg18
g12
sg19
g20
sg21
g16
sg23
S'65.0'
p367
sg25
g12
sg27
S'--'
p368
sg29
S'09/28'
p369
sg31
S'100.0'
p370
sg33
S'Graham Gano'
p371
sg35
S'L10-38'
p372
sg37
S'2014'
p373
sg39
g20
sg40
S'100.0'
p374
sg42
g16
sg43
g20
ssg64
(dp375
g5
S'33'
p376
sg7
g64
sg9
g16
sg11
g16
sg13
S'@GB'
p377
sg15
g16
sg17
g16
sg18
g48
sg19
g20
sg21
g48
sg23
S'64.3'
p378
sg25
g12
sg27
S'9.0'
p379
sg29
S'10/19'
p380
sg31
S'100.0'
p381
sg33
S'Graham Gano'
p382
sg35
S'L17-38'
p383
sg37
S'2014'
p384
sg39
g20
sg40
S'100.0'
p385
sg42
g48
sg43
g20
ssg51
(dp386
g5
S'44'
p387
sg7
g51
sg9
g48
sg11
g10
sg13
S'@CIN'
p388
sg15
g16
sg17
g12
sg18
g51
sg19
g20
sg21
g10
sg23
S'64.8'
p389
sg25
g26
sg27
S'63.0'
p390
sg29
S'10/12'
p391
sg31
S'100.0'
p392
sg33
S'Graham Gano'
p393
sg35
S'T37-37'
p394
sg37
S'2014'
p395
sg39
g20
sg40
S'75.0'
p396
sg42
g10
sg43
g20
ssg207
(dp397
g5
S'31'
p398
sg7
g207
sg9
g20
sg11
g16
sg13
S'NO'
p399
sg15
g16
sg17
g16
sg18
g12
sg19
g20
sg21
g16
sg23
S'65.0'
p400
sg25
g12
sg27
S'--'
p401
sg29
S'10/30'
p402
sg31
S'100.0'
p403
sg33
S'Graham Gano'
p404
sg35
S'L10-28'
p405
sg37
S'2014'
p406
sg39
g20
sg40
S'100.0'
p407
sg42
g16
sg43
g20
ssg26
(dp408
g5
S'46'
p409
sg7
g26
sg9
g48
sg11
g12
sg13
S'SEA'
p410
sg15
g16
sg17
g12
sg18
g48
sg19
g20
sg21
g20
sg23
S'66.8'
p411
sg25
g10
sg27
S'36.5'
p412
sg29
S'10/26'
p413
sg31
S'--'
p414
sg33
S'Graham Gano'
p415
sg35
S'L9-13'
p416
sg37
S'2014'
p417
sg39
g20
sg40
S'100.0'
p418
sg42
g20
sg43
g20
sssS'2011'
p419
(dp420
g3
(dp421
g5
S'40'
p422
sg7
S'11'
p423
sg9
g12
sg11
g12
sg13
S'DAL'
p424
sg15
g16
sg17
g16
sg18
g48
sg19
g20
sg21
g12
sg23
S'66.2'
p425
sg25
g22
sg27
S'18.7'
p426
sg29
S'11/20'
p427
sg31
S'100.0'
p428
sg33
S'Graham Gano'
p429
sg35
S'L24-27'
p430
sg37
S'2011'
p431
sg39
g20
sg40
S'33.3'
p432
sg42
g12
sg43
g20
ssg44
(dp433
g5
S'47'
p434
sg7
S'10'
p435
sg9
g48
sg11
g22
sg13
S'@MIA'
p436
sg15
g16
sg17
g12
sg18
g48
sg19
g20
sg21
g20
sg23
S'65.5'
p437
sg25
g10
sg27
S'21.0'
p438
sg29
S'11/13'
p439
sg31
S'--'
p440
sg33
S'Graham Gano'
p441
sg35
S'L9-20'
p442
sg37
S'2011'
p443
sg39
g20
sg40
S'60.0'
p444
sg42
g20
sg43
g20
ssg59
(dp445
g5
S'46'
p446
sg7
S'13'
p447
sg9
g51
sg11
g10
sg13
S'NYJ'
p448
sg15
g16
sg17
g10
sg18
g20
sg19
g20
sg21
g16
sg23
S'47.5'
p449
sg25
g51
sg27
S'14.0'
p450
sg29
S'12/04'
p451
sg31
S'100.0'
p452
sg33
S'Graham Gano'
p453
sg35
S'L19-34'
p454
sg37
S'2011'
p455
sg39
g20
sg40
S'100.0'
p456
sg42
g16
sg43
g20
ssg72
(dp457
g5
S'25'
p458
sg7
S'12'
p459
sg9
g48
sg11
g48
sg13
S'@SEA'
p460
sg15
g16
sg17
g16
sg18
g48
sg19
g20
sg21
g48
sg23
S'64.4'
p461
sg25
g22
sg27
S'43.0'
p462
sg29
S'11/27'
p463
sg31
S'66.7'
p464
sg33
S'Graham Gano'
p465
sg35
S'W23-17'
p466
sg37
S'2011'
p467
sg39
g16
sg40
S'50.0'
p468
sg42
g12
sg43
g16
ssg85
(dp469
g5
S'43'
p470
sg7
S'15'
p471
sg9
g10
sg11
g12
sg13
S'@NYG'
p472
sg15
g16
sg17
g12
sg18
g48
sg19
g20
sg21
g48
sg23
S'67.3'
p473
sg25
g51
sg27
S'26.0'
p474
sg29
S'12/18'
p475
sg31
S'100.0'
p476
sg33
S'Graham Gano'
p477
sg35
S'W23-10'
p478
sg37
S'2011'
p479
sg39
g20
sg40
S'100.0'
p480
sg42
g48
sg43
g20
ssg98
(dp481
g5
S'25'
p482
sg7
S'14'
p483
sg9
g48
sg11
g48
sg13
S'NE'
p484
sg15
g16
sg17
g48
sg18
g12
sg19
g20
sg21
g12
sg23
S'66.8'
p485
sg25
g51
sg27
S'19.5'
p486
sg29
S'12/11'
p487
sg31
S'100.0'
p488
sg33
S'Graham Gano'
p489
sg35
S'L27-34'
p490
sg37
S'2011'
p491
sg39
g20
sg40
S'100.0'
p492
sg42
g12
sg43
g20
ssg111
(dp493
g5
S'27'
p494
sg7
S'17'
p495
sg9
g48
sg11
g48
sg13
S'@PHI'
p496
sg15
g16
sg17
g16
sg18
g16
sg19
g20
sg21
g16
sg23
S'69.0'
p497
sg25
g12
sg27
S'21.5'
p498
sg29
S'01/01'
p499
sg31
S'100.0'
p500
sg33
S'Graham Gano'
p501
sg35
S'L10-34'
p502
sg37
S'2011'
p503
sg39
g20
sg40
S'50.0'
p504
sg42
g16
sg43
g16
ssg124
(dp505
g5
S'53'
p506
sg7
S'16'
p507
sg9
g64
sg11
g10
sg13
S'MIN'
p508
sg15
g16
sg17
g10
sg18
g20
sg19
g20
sg21
g48
sg23
S'63.0'
p509
sg25
g64
sg27
S'20.7'
p510
sg29
S'12/24'
p511
sg31
S'100.0'
p512
sg33
S'Graham Gano'
p513
sg35
S'L26-33'
p514
sg37
S'2011'
p515
sg39
g20
sg40
S'100.0'
p516
sg42
g48
sg43
g20
ssg16
(dp517
g5
g20
sg7
g16
sg9
g48
sg11
g16
sg13
S'NYG'
p518
sg15
g16
sg17
g20
sg18
g12
sg19
g20
sg21
g10
sg23
S'64.6'
p519
sg25
g22
sg27
S'10.5'
p520
sg29
S'09/11'
p521
sg31
S'100.0'
p522
sg33
S'Graham Gano'
p523
sg35
S'W28-14'
p524
sg37
S'2011'
p525
sg39
g20
sg40
S'0.0'
p526
sg42
g10
sg43
g20
ssg12
(dp527
g5
S'50'
p528
sg7
g12
sg9
g20
sg11
g10
sg13
S'@DAL'
p529
sg15
g16
sg17
g12
sg18
g10
sg19
g20
sg21
g16
sg23
S'69.5'
p530
sg25
g10
sg27
S'--'
p531
sg29
S'09/26'
p532
sg31
S'100.0'
p533
sg33
S'Graham Gano'
p534
sg35
S'L16-18'
p535
sg37
S'2011'
p536
sg39
g20
sg40
S'75.0'
p537
sg42
g16
sg43
g16
ssg48
(dp538
g5
S'34'
p539
sg7
g48
sg9
g48
sg11
g10
sg13
S'ARI'
p540
sg15
g16
sg17
g12
sg18
g12
sg19
g20
sg21
g16
sg23
S'66.7'
p541
sg25
g51
sg27
S'31.0'
p542
sg29
S'09/18'
p543
sg31
S'100.0'
p544
sg33
S'Graham Gano'
p545
sg35
S'W22-21'
p546
sg37
S'2011'
p547
sg39
g20
sg40
S'75.0'
p548
sg42
g16
sg43
g16
ssg22
(dp549
g5
g171
sg7
g22
sg9
g171
sg11
g171
sg13
g171
sg15
g171
sg17
g171
sg18
g171
sg19
g171
sg21
g171
sg23
g171
sg25
g171
sg27
g171
sg29
S'Bye'
p550
sg31
g171
sg33
S'Graham Gano'
p551
sg35
g171
sg37
S'2011'
p552
sg39
g171
sg40
g171
sg42
g171
sg43
g171
ssg10
(dp553
g5
S'38'
p554
sg7
g10
sg9
g48
sg11
g16
sg13
S'@STL'
p555
sg15
g16
sg17
g16
sg18
g48
sg19
g20
sg21
g48
sg23
S'68.0'
p556
sg25
g10
sg27
S'16.0'
p557
sg29
S'10/02'
p558
sg31
S'100.0'
p559
sg33
S'Graham Gano'
p560
sg35
S'W17-10'
p561
sg37
S'2011'
p562
sg39
g20
sg40
S'100.0'
p563
sg42
g48
sg43
g20
ssg64
(dp564
g5
S'49'
p565
sg7
g64
sg9
g16
sg11
g48
sg13
S'@CAR'
p566
sg15
g16
sg17
g48
sg18
g12
sg19
g20
sg21
g48
sg23
S'55.6'
p567
sg25
g22
sg27
S'15.0'
p568
sg29
S'10/23'
p569
sg31
S'100.0'
p570
sg33
S'Graham Gano'
p571
sg35
S'L20-33'
p572
sg37
S'2011'
p573
sg39
g20
sg40
S'100.0'
p574
sg42
g48
sg43
g20
ssg51
(dp575
g5
S'50'
p576
sg7
g51
sg9
g20
sg11
g48
sg13
S'PHI'
p577
sg15
g16
sg17
g48
sg18
g10
sg19
g20
sg21
g16
sg23
S'69.3'
p578
sg25
g10
sg27
S'--'
p579
sg29
S'10/16'
p580
sg31
S'100.0'
p581
sg33
S'Graham Gano'
p582
sg35
S'L13-20'
p583
sg37
S'2011'
p584
sg39
g20
sg40
S'100.0'
p585
sg42
g16
sg43
g20
ssg207
(dp586
g5
S'59'
p587
sg7
g207
sg9
g16
sg11
g16
sg13
S'SF'
p588
sg15
g16
sg17
g16
sg18
g20
sg19
g20
sg21
g20
sg23
S'37.5'
p589
sg25
g48
sg27
S'20.0'
p590
sg29
S'11/06'
p591
sg31
S'--'
p592
sg33
S'Graham Gano'
p593
sg35
S'L11-19'
p594
sg37
S'2011'
p595
sg39
g20
sg40
S'100.0'
p596
sg42
g20
sg43
g20
ssg26
(dp597
g5
g20
sg7
g26
sg9
g20
sg11
g16
sg13
S'@BUF'
p598
sg15
g16
sg17
g20
sg18
g16
sg19
g20
sg21
g20
sg23
S'73.0'
p599
sg25
g16
sg27
S'--'
p600
sg29
S'10/30'
p601
sg31
S'--'
p602
sg33
S'Graham Gano'
p603
sg35
S'L0-23'
p604
sg37
S'2011'
p605
sg39
g20
sg40
S'0.0'
p606
sg42
g20
sg43
g16
sssS'2010'
p607
(dp608
g3
(dp609
g5
S'48'
p610
sg7
S'11'
p611
sg9
g12
sg11
g51
sg13
S'@TEN'
p612
sg15
g16
sg17
g10
sg18
g12
sg19
g20
sg21
g16
sg23
S'68.7'
p613
sg25
g51
sg27
S'27.3'
p614
sg29
S'11/21'
p615
sg31
S'100.0'
p616
sg33
S'Graham Gano'
p617
sg35
S'W19-16'
p618
sg37
S'2010'
p619
sg39
g20
sg40
S'66.7'
p620
sg42
g16
sg43
g20
ssg44
(dp621
g5
g20
sg7
S'10'
p622
sg9
g10
sg11
g20
sg13
S'PHI'
p623
sg15
g16
sg17
g20
sg18
g16
sg19
g20
sg21
g10
sg23
S'68.2'
p624
sg25
g22
sg27
S'16.5'
p625
sg29
S'11/15'
p626
sg31
S'100.0'
p627
sg33
S'Graham Gano'
p628
sg35
S'L28-59'
p629
sg37
S'2010'
p630
sg39
g20
sg40
S'--'
p631
sg42
g10
sg43
g20
ssg59
(dp632
g5
g20
sg7
S'13'
p633
sg9
g48
sg11
g16
sg13
S'@NYG'
p634
sg15
g16
sg17
g20
sg18
g20
sg19
g20
sg21
g16
sg23
S'65.5'
p635
sg25
g48
sg27
S'26.0'
p636
sg29
S'12/05'
p637
sg31
S'100.0'
p638
sg33
S'Graham Gano'
p639
sg35
S'L7-31'
p640
sg37
S'2010'
p641
sg39
g20
sg40
S'0.0'
p642
sg42
g16
sg43
g20
ssg72
(dp643
g5
S'42'
p644
sg7
S'12'
p645
sg9
g10
sg11
g48
sg13
S'MIN'
p646
sg15
g16
sg17
g48
sg18
g20
sg19
g20
sg21
g16
sg23
S'65.5'
p647
sg25
g10
sg27
S'19.5'
p648
sg29
S'11/28'
p649
sg31
S'100.0'
p650
sg33
S'Graham Gano'
p651
sg35
S'L13-17'
p652
sg37
S'2010'
p653
sg39
g20
sg40
S'100.0'
p654
sg42
g16
sg43
g20
ssg85
(dp655
g5
g20
sg7
S'15'
p656
sg9
g10
sg11
g20
sg13
S'@DAL'
p657
sg15
g16
sg17
g20
sg18
g16
sg19
g20
sg21
g48
sg23
S'68.6'
p658
sg25
g22
sg27
S'22.3'
p659
sg29
S'12/19'
p660
sg31
S'100.0'
p661
sg33
S'Graham Gano'
p662
sg35
S'L30-33'
p663
sg37
S'2010'
p664
sg39
g20
sg40
S'--'
p665
sg42
g48
sg43
g20
ssg98
(dp666
g5
S'25'
p667
sg7
S'14'
p668
sg9
g12
sg11
g12
sg13
S'TB'
p669
sg15
g16
sg17
g16
sg18
g20
sg19
g20
sg21
g16
sg23
S'57.0'
p670
sg25
g12
sg27
S'14.3'
p671
sg29
S'12/12'
p672
sg31
S'100.0'
p673
sg33
S'Graham Gano'
p674
sg35
S'L16-17'
p675
sg37
S'2010'
p676
sg39
g20
sg40
S'33.3'
p677
sg42
g16
sg43
g20
ssg111
(dp678
g5
g20
sg7
S'17'
p679
sg9
g48
sg11
g16
sg13
S'NYG'
p680
sg15
g16
sg17
g20
sg18
g16
sg19
g20
sg21
g48
sg23
S'58.7'
p681
sg25
g12
sg27
S'18.0'
p682
sg29
S'01/02'
p683
sg31
S'100.0'
p684
sg33
S'Graham Gano'
p685
sg35
S'L14-17'
p686
sg37
S'2010'
p687
sg39
g20
sg40
S'0.0'
p688
sg42
g48
sg43
g20
ssg124
(dp689
g5
S'48'
p690
sg7
S'16'
p691
sg9
g22
sg11
g48
sg13
S'@JAC'
p692
sg15
g16
sg17
g48
sg18
g20
sg19
g20
sg21
g48
sg23
S'61.8'
p693
sg25
g22
sg27
S'14.4'
p694
sg29
S'12/26'
p695
sg31
S'100.0'
p696
sg33
S'Graham Gano'
p697
sg35
S'W20-17'
p698
sg37
S'2010'
p699
sg39
g20
sg40
S'100.0'
p700
sg42
g48
sg43
g20
ssg16
(dp701
g5
S'49'
p702
sg7
g16
sg9
g12
sg11
g48
sg13
S'DAL'
p703
sg15
g16
sg17
g48
sg18
g20
sg19
g20
sg21
g16
sg23
S'62.0'
p704
sg25
g12
sg27
S'16.7'
p705
sg29
S'09/12'
p706
sg31
S'100.0'
p707
sg33
S'Graham Gano'
p708
sg35
S'W13-7'
p709
sg37
S'2010'
p710
sg39
g20
sg40
S'100.0'
p711
sg42
g16
sg43
g20
ssg12
(dp712
g5
S'29'
p713
sg7
g12
sg9
g12
sg11
g12
sg13
S'@STL'
p714
sg15
g16
sg17
g12
sg18
g16
sg19
g20
sg21
g16
sg23
S'67.4'
p715
sg25
g22
sg27
S'19.0'
p716
sg29
S'09/26'
p717
sg31
S'100.0'
p718
sg33
S'Graham Gano'
p719
sg35
S'L16-30'
p720
sg37
S'2010'
p721
sg39
g20
sg40
S'100.0'
p722
sg42
g16
sg43
g20
ssg48
(dp723
g5
S'41'
p724
sg7
g48
sg9
g51
sg11
g10
sg13
S'HOU'
p725
sg15
g16
sg17
g48
sg18
g16
sg19
g20
sg21
g12
sg23
S'70.0'
p726
sg25
g64
sg27
S'14.7'
p727
sg29
S'09/19'
p728
sg31
S'100.0'
p729
sg33
S'Graham Gano'
p730
sg35
S'L27-30'
p731
sg37
S'2010'
p732
sg39
g20
sg40
S'50.0'
p733
sg42
g12
sg43
g16
ssg22
(dp734
g5
S'45'
p735
sg7
g22
sg9
g22
sg11
g10
sg13
S'GB'
p736
sg15
g16
sg17
g12
sg18
g20
sg19
g20
sg21
g16
sg23
S'61.8'
p737
sg25
g22
sg27
S'13.6'
p738
sg29
S'10/10'
p739
sg31
S'100.0'
p740
sg33
S'Graham Gano'
p741
sg35
S'W16-13'
p742
sg37
S'2010'
p743
sg39
g20
sg40
S'75.0'
p744
sg42
g16
sg43
g20
ssg10
(dp745
g5
S'26'
p746
sg7
g10
sg9
g10
sg11
g16
sg13
S'@PHI'
p747
sg15
g16
sg17
g16
sg18
g20
sg19
g20
sg21
g48
sg23
S'69.0'
p748
sg25
g10
sg27
S'23.0'
p749
sg29
S'10/03'
p750
sg31
S'100.0'
p751
sg33
S'Graham Gano'
p752
sg35
S'W17-12'
p753
sg37
S'2010'
p754
sg39
g20
sg40
S'100.0'
p755
sg42
g48
sg43
g20
ssg64
(dp756
g5
S'46'
p757
sg7
g64
sg9
g10
sg11
g48
sg13
S'@CHI'
p758
sg15
g16
sg17
g16
sg18
g20
sg19
g20
sg21
g48
sg23
S'66.0'
p759
sg25
g10
sg27
S'19.5'
p760
sg29
S'10/24'
p761
sg31
S'100.0'
p762
sg33
S'Graham Gano'
p763
sg35
S'W17-14'
p764
sg37
S'2010'
p765
sg39
g20
sg40
S'50.0'
p766
sg42
g48
sg43
g20
ssg51
(dp767
g5
S'39'
p768
sg7
g51
sg9
g22
sg11
g48
sg13
S'IND'
p769
sg15
g16
sg17
g16
sg18
g20
sg19
g20
sg21
g12
sg23
S'66.8'
p770
sg25
g22
sg27
S'19.6'
p771
sg29
S'10/17'
p772
sg31
S'100.0'
p773
sg33
S'Graham Gano'
p774
sg35
S'L24-27'
p775
sg37
S'2010'
p776
sg39
g20
sg40
S'50.0'
p777
sg42
g12
sg43
g20
ssg207
(dp778
g5
g171
sg7
g207
sg9
g171
sg11
g171
sg13
g171
sg15
g171
sg17
g171
sg18
g171
sg19
g171
sg21
g171
sg23
g171
sg25
g171
sg27
g171
sg29
S'Bye'
p779
sg31
g171
sg33
S'Graham Gano'
p780
sg35
g171
sg37
S'2010'
p781
sg39
g171
sg40
g171
sg42
g171
sg43
g171
ssg26
(dp782
g5
S'46'
p783
sg7
g26
sg9
g10
sg11
g48
sg13
S'@DET'
p784
sg15
g16
sg17
g48
sg18
g16
sg19
g20
sg21
g16
sg23
S'67.4'
p785
sg25
g22
sg27
S'27.8'
p786
sg29
S'10/31'
p787
sg31
S'100.0'
p788
sg33
S'Graham Gano'
p789
sg35
S'L25-37'
p790
sg37
S'2010'
p791
sg39
g20
sg40
S'100.0'
p792
sg42
g16
sg43
g20
sssS'2013'
p793
(dp794
g3
(dp795
g5
S'43'
p796
sg7
S'11'
p797
sg9
g20
sg11
g16
sg13
S'NE'
p798
sg15
g16
sg17
g16
sg18
g22
sg19
g20
sg21
g12
sg23
S'65.0'
p799
sg25
g22
sg27
S'--'
p800
sg29
S'11/18'
p801
sg31
S'100.0'
p802
sg33
S'Graham Gano'
p803
sg35
S'W24-20'
p804
sg37
S'2013'
p805
sg39
g20
sg40
S'100.0'
p806
sg42
g12
sg43
g20
ssg44
(dp807
g5
S'53'
p808
sg7
S'10'
p809
sg9
g16
sg11
g48
sg13
S'@SF'
p810
sg15
g16
sg17
g16
sg18
g48
sg19
g20
sg21
g16
sg23
S'69.7'
p811
sg25
g12
sg27
S'18.0'
p812
sg29
S'11/10'
p813
sg31
S'100.0'
p814
sg33
S'Graham Gano'
p815
sg35
S'W10-9'
p816
sg37
S'2013'
p817
sg39
g20
sg40
S'50.0'
p818
sg42
g16
sg43
g20
ssg59
(dp819
g5
S'23'
p820
sg7
S'13'
p821
sg9
g16
sg11
g48
sg13
S'TB'
p822
sg15
g16
sg17
g48
sg18
g22
sg19
g20
sg21
g12
sg23
S'66.0'
p823
sg25
g51
sg27
S'26.0'
p824
sg29
S'12/01'
p825
sg31
S'100.0'
p826
sg33
S'Graham Gano'
p827
sg35
S'W27-6'
p828
sg37
S'2013'
p829
sg39
g20
sg40
S'100.0'
p830
sg42
g12
sg43
g20
ssg72
(dp831
g5
S'52'
p832
sg7
S'12'
p833
sg9
g12
sg11
g12
sg13
S'@MIA'
p834
sg15
g16
sg17
g48
sg18
g16
sg19
g20
sg21
g48
sg23
S'65.5'
p835
sg25
g10
sg27
S'19.7'
p836
sg29
S'11/24'
p837
sg31
S'100.0'
p838
sg33
S'Graham Gano'
p839
sg35
S'W20-16'
p840
sg37
S'2013'
p841
sg39
g20
sg40
S'66.7'
p842
sg42
g48
sg43
g16
ssg85
(dp843
g5
S'40'
p844
sg7
S'15'
p845
sg9
g16
sg11
g12
sg13
S'NYJ'
p846
sg15
g16
sg17
g12
sg18
g51
sg19
g20
sg21
g12
sg23
S'66.3'
p847
sg25
g64
sg27
S'22.0'
p848
sg29
S'12/15'
p849
sg31
S'100.0'
p850
sg33
S'Graham Gano'
p851
sg35
S'W30-20'
p852
sg37
S'2013'
p853
sg39
g20
sg40
S'100.0'
p854
sg42
g12
sg43
g20
ssg98
(dp855
g5
S'45'
p856
sg7
S'14'
p857
sg9
g16
sg11
g12
sg13
S'@NO'
p858
sg15
g16
sg17
g48
sg18
g48
sg19
g20
sg21
g16
sg23
S'52.5'
p859
sg25
g10
sg27
S'22.0'
p860
sg29
S'12/08'
p861
sg31
S'100.0'
p862
sg33
S'Graham Gano'
p863
sg35
S'L13-31'
p864
sg37
S'2013'
p865
sg39
g20
sg40
S'66.7'
p866
sg42
g16
sg43
g20
ssg111
(dp867
g5
g20
sg7
S'17'
p868
sg9
g20
sg11
g20
sg13
S'@ATL'
p869
sg15
g16
sg17
g20
sg18
g10
sg19
g20
sg21
g12
sg23
S'65.0'
p870
sg25
g10
sg27
S'--'
p871
sg29
S'12/29'
p872
sg31
S'100.0'
p873
sg33
S'Graham Gano'
p874
sg35
S'W21-20'
p875
sg37
S'2013'
p876
sg39
g20
sg40
S'--'
p877
sg42
g12
sg43
g20
ssg124
(dp878
g5
S'40'
p879
sg7
S'16'
p880
sg9
g16
sg11
g16
sg13
S'NO'
p881
sg15
g16
sg17
g16
sg18
g12
sg19
g20
sg21
g48
sg23
S'64.3'
p882
sg25
g10
sg27
S'21.0'
p883
sg29
S'12/22'
p884
sg31
S'100.0'
p885
sg33
S'Graham Gano'
p886
sg35
S'W17-13'
p887
sg37
S'2013'
p888
sg39
g20
sg40
S'100.0'
p889
sg42
g48
sg43
g20
ssg16
(dp890
g5
g20
sg7
g16
sg9
g20
sg11
g20
sg13
S'SEA'
p891
sg15
g16
sg17
g20
sg18
g48
sg19
g20
sg21
g16
sg23
S'65.0'
p892
sg25
g48
sg27
S'--'
p893
sg29
S'09/08'
p894
sg31
S'100.0'
p895
sg33
S'Graham Gano'
p896
sg35
S'L7-12'
p897
sg37
S'2013'
p898
sg39
g20
sg40
S'--'
p899
sg42
g16
sg43
g20
ssg12
(dp900
g5
S'53'
p901
sg7
g12
sg9
g16
sg11
g16
sg13
S'NYG'
p902
sg15
g16
sg17
g16
sg18
g51
sg19
g20
sg21
g22
sg23
S'66.3'
p903
sg25
g64
sg27
S'24.0'
p904
sg29
S'09/22'
p905
sg31
S'100.0'
p906
sg33
S'Graham Gano'
p907
sg35
S'W38-0'
p908
sg37
S'2013'
p909
sg39
g20
sg40
S'100.0'
p910
sg42
g22
sg43
g20
ssg48
(dp911
g5
S'39'
p912
sg7
g48
sg9
g20
sg11
g12
sg13
S'@BUF'
p913
sg15
g16
sg17
g12
sg18
g51
sg19
g20
sg21
g48
sg23
S'66.5'
p914
sg25
g51
sg27
S'--'
p915
sg29
S'09/15'
p916
sg31
S'100.0'
p917
sg33
S'Graham Gano'
p918
sg35
S'L23-24'
p919
sg37
S'2013'
p920
sg39
g20
sg40
S'100.0'
p921
sg42
g48
sg43
g20
ssg22
(dp922
g5
S'51'
p923
sg7
g22
sg9
g20
sg11
g48
sg13
S'@ARI'
p924
sg15
g16
sg17
g48
sg18
g48
sg19
g20
sg21
g20
sg23
S'65.0'
p925
sg25
g48
sg27
S'--'
p926
sg29
S'10/06'
p927
sg31
S'--'
p928
sg33
S'Graham Gano'
p929
sg35
S'L6-22'
p930
sg37
S'2013'
p931
sg39
g20
sg40
S'100.0'
p932
sg42
g20
sg43
g20
ssg10
(dp933
g5
g171
sg7
g10
sg9
g171
sg11
g171
sg13
g171
sg15
g171
sg17
g171
sg18
g171
sg19
g171
sg21
g171
sg23
g171
sg25
g171
sg27
g171
sg29
S'Bye'
p934
sg31
g171
sg33
S'Graham Gano'
p935
sg35
g171
sg37
S'2013'
p936
sg39
g171
sg40
g171
sg42
g171
sg43
g171
ssg64
(dp937
g5
S'50'
p938
sg7
g64
sg9
g48
sg11
g12
sg13
S'STL'
p939
sg15
g16
sg17
g12
sg18
g22
sg19
g20
sg21
g12
sg23
S'66.1'
p940
sg25
g64
sg27
S'29.0'
p941
sg29
S'10/20'
p942
sg31
S'100.0'
p943
sg33
S'Graham Gano'
p944
sg35
S'W30-15'
p945
sg37
S'2013'
p946
sg39
g20
sg40
S'100.0'
p947
sg42
g12
sg43
g20
ssg51
(dp948
g5
g20
sg7
g51
sg9
g20
sg11
g20
sg13
S'@MIN'
p949
sg15
g16
sg17
g20
sg18
g51
sg19
g20
sg21
g22
sg23
S'60.0'
p950
sg25
g51
sg27
S'--'
p951
sg29
S'10/13'
p952
sg31
S'100.0'
p953
sg33
S'Graham Gano'
p954
sg35
S'W35-10'
p955
sg37
S'2013'
p956
sg39
g20
sg40
S'--'
p957
sg42
g22
sg43
g20
ssg207
(dp958
g5
S'55'
p959
sg7
g207
sg9
g48
sg11
g48
sg13
S'ATL'
p960
sg15
g16
sg17
g48
sg18
g22
sg19
g20
sg21
g10
sg23
S'66.4'
p961
sg25
g64
sg27
S'29.5'
p962
sg29
S'11/03'
p963
sg31
S'100.0'
p964
sg33
S'Graham Gano'
p965
sg35
S'W34-10'
p966
sg37
S'2013'
p967
sg39
g20
sg40
S'100.0'
p968
sg42
g10
sg43
g20
ssg26
(dp969
g5
S'29'
p970
sg7
g26
sg9
g12
sg11
g16
sg13
S'@TB'
p971
sg15
g16
sg17
g16
sg18
g12
sg19
g20
sg21
g10
sg23
S'68.0'
p972
sg25
g51
sg27
S'21.7'
p973
sg29
S'10/24'
p974
sg31
S'100.0'
p975
sg33
S'Graham Gano'
p976
sg35
S'W31-13'
p977
sg37
S'2013'
p978
sg39
g20
sg40
S'100.0'
p979
sg42
g10
sg43
g20
sssS'2012'
p980
(dp981
g59
(dp982
g5
g20
sg7
S'13'
p983
sg9
g16
sg11
g20
sg13
S'@KC'
p984
sg15
g16
sg17
g20
sg18
g12
sg19
g20
sg21
g12
sg23
S'66.3'
p985
sg25
g10
sg27
S'31.0'
p986
sg29
S'12/02'
p987
sg31
S'100.0'
p988
sg33
S'Graham Gano'
p989
sg35
S'L21-27'
p990
sg37
S'2012'
p991
sg39
g20
sg40
S'--'
p992
sg42
g12
sg43
g20
ssg72
(dp993
g5
S'23'
p994
sg7
S'12'
p995
sg9
g10
sg11
g16
sg13
S'@PHI'
p996
sg15
g16
sg17
g16
sg18
g48
sg19
g20
sg21
g12
sg23
S'66.0'
p997
sg25
g51
sg27
S'27.5'
p998
sg29
S'11/26'
p999
sg31
S'75.0'
p1000
sg33
S'Graham Gano'
p1001
sg35
S'W30-22'
p1002
sg37
S'2012'
p1003
sg39
g20
sg40
S'100.0'
p1004
sg42
g10
sg43
g20
ssg85
(dp1005
g5
S'33'
p1006
sg7
S'15'
p1007
sg9
g48
sg11
g16
sg13
S'@SD'
p1008
sg15
g16
sg17
g16
sg18
g10
sg19
g20
sg21
g10
sg23
S'69.0'
p1009
sg25
g51
sg27
S'24.5'
p1010
sg29
S'12/16'
p1011
sg31
S'100.0'
p1012
sg33
S'Graham Gano'
p1013
sg35
S'W31-7'
p1014
sg37
S'2012'
p1015
sg39
g20
sg40
S'100.0'
p1016
sg42
g10
sg43
g20
ssg98
(dp1017
g5
S'41'
p1018
sg7
S'14'
p1019
sg9
g12
sg11
g12
sg13
S'ATL'
p1020
sg15
g16
sg17
g12
sg18
g12
sg19
g20
sg21
g12
sg23
S'64.3'
p1021
sg25
g51
sg27
S'16.3'
p1022
sg29
S'12/09'
p1023
sg31
S'100.0'
p1024
sg33
S'Graham Gano'
p1025
sg35
S'W30-20'
p1026
sg37
S'2012'
p1027
sg39
g20
sg40
S'100.0'
p1028
sg42
g12
sg43
g20
ssg111
(dp1029
g5
S'42'
p1030
sg7
S'17'
p1031
sg9
g10
sg11
g10
sg13
S'@NO'
p1032
sg15
g16
sg17
g12
sg18
g22
sg19
g20
sg21
g22
sg23
S'72.7'
p1033
sg25
g207
sg27
S'23.8'
p1034
sg29
S'12/30'
p1035
sg31
S'100.0'
p1036
sg33
S'Graham Gano'
p1037
sg35
S'W44-38'
p1038
sg37
S'2012'
p1039
sg39
g20
sg40
S'75.0'
p1040
sg42
g22
sg43
g20
ssg124
(dp1041
g5
S'51'
p1042
sg7
S'16'
p1043
sg9
g16
sg11
g48
sg13
S'OAK'
p1044
sg15
g16
sg17
g16
sg18
g12
sg19
g20
sg21
g48
sg23
S'66.3'
p1045
sg25
g10
sg27
S'26.0'
p1046
sg29
S'12/23'
p1047
sg31
S'100.0'
p1048
sg33
S'Graham Gano'
p1049
sg35
S'W17-6'
p1050
sg37
S'2012'
p1051
sg39
g20
sg40
S'50.0'
p1052
sg42
g48
sg43
g20
sss.