(dp0
S'2015'
p1
(dp2
S'11'
p3
(dp4
S'FGLng'
p5
S'0'
p6
sS'WK'
p7
S'11'
p8
sS'Ret'
p9
S'2'
p10
sS'FGAtt'
p11
S'1'
p12
sS'Opp'
p13
S'@BAL'
p14
sS'G'
p15
g12
sS'FGM'
p16
g6
sS'TB'
p17
g12
sS'GS'
p18
g6
sS'XPM'
p19
g12
sS'KOAvg'
p20
S'65.3'
p21
sS'KO'
p22
S'3'
p23
sS'RetAvg'
p24
S'29.0'
p25
sS'Game Date'
p26
S'11/22'
p27
sS'XPPct'
p28
S'50.0'
p29
sS'Player'
p30
S'Greg Zuerlein'
p31
sS'Result'
p32
S'L13-16'
p33
sS'Year'
p34
S'2015'
p35
sS'XPBlk'
p36
g12
sS'FGPct'
p37
S'0.0'
p38
sS'XPAtt'
p39
g10
sS'FGBlk'
p40
g6
ssS'10'
p41
(dp42
g5
S'38'
p43
sg7
S'10'
p44
sg9
g10
sg11
g10
sg13
S'CHI'
p45
sg15
g12
sg16
g10
sg17
g10
sg18
g6
sg19
g12
sg20
S'66.3'
p46
sg22
S'4'
p47
sg24
S'15.5'
p48
sg26
S'11/15'
p49
sg28
S'100.0'
p50
sg30
S'Greg Zuerlein'
p51
sg32
S'L13-37'
p52
sg34
S'2015'
p53
sg36
g6
sg37
S'100.0'
p54
sg39
g12
sg40
g6
ssS'13'
p55
(dp56
g5
S'--'
p57
sg7
S'13'
p58
sg9
S'--'
p59
sg11
S'--'
p60
sg13
S'ARI'
p61
sg15
g6
sg16
S'--'
p62
sg17
S'--'
p63
sg18
g6
sg19
S'--'
p64
sg20
S'--'
p65
sg22
S'--'
p66
sg24
S'--'
p67
sg26
S'12/06'
p68
sg28
S'--'
p69
sg30
S'Greg Zuerlein'
p70
sg32
S'L3-27'
p71
sg34
S'2015'
p72
sg36
S'--'
p73
sg37
S'--'
p74
sg39
S'--'
p75
sg40
S'--'
p76
ssS'12'
p77
(dp78
g5
S'--'
p79
sg7
S'12'
p80
sg9
S'--'
p81
sg11
S'--'
p82
sg13
S'@CIN'
p83
sg15
g6
sg16
S'--'
p84
sg17
S'--'
p85
sg18
g6
sg19
S'--'
p86
sg20
S'--'
p87
sg22
S'--'
p88
sg24
S'--'
p89
sg26
S'11/29'
p90
sg28
S'--'
p91
sg30
S'Greg Zuerlein'
p92
sg32
S'L7-31'
p93
sg34
S'2015'
p94
sg36
S'--'
p95
sg37
S'--'
p96
sg39
S'--'
p97
sg40
S'--'
p98
ssS'15'
p99
(dp100
g5
S'19'
p101
sg7
S'15'
p102
sg9
g10
sg11
g12
sg13
S'TB'
p103
sg15
g12
sg16
g12
sg17
g47
sg18
g6
sg19
g47
sg20
S'65.7'
p104
sg22
S'6'
p105
sg24
S'19.0'
p106
sg26
S'12/17'
p107
sg28
S'100.0'
p108
sg30
S'Greg Zuerlein'
p109
sg32
S'W31-23'
p110
sg34
S'2015'
p111
sg36
g6
sg37
S'100.0'
p112
sg39
g47
sg40
g6
ssS'14'
p113
(dp114
g5
g6
sg7
S'14'
p115
sg9
g12
sg11
g6
sg13
S'DET'
p116
sg15
g12
sg16
g6
sg17
g23
sg18
g6
sg19
g23
sg20
S'67.0'
p117
sg22
g47
sg24
S'21.0'
p118
sg26
S'12/13'
p119
sg28
S'100.0'
p120
sg30
S'Greg Zuerlein'
p121
sg32
S'W21-14'
p122
sg34
S'2015'
p123
sg36
g6
sg37
S'--'
p124
sg39
g23
sg40
g6
ssS'17'
p125
(dp126
g5
S'44'
p127
sg7
S'17'
p128
sg9
g23
sg11
S'5'
p129
sg13
S'@SF'
p130
sg15
g12
sg16
g23
sg17
g23
sg18
g6
sg19
g12
sg20
S'60.5'
p131
sg22
g105
sg24
S'21.7'
p132
sg26
S'01/03'
p133
sg28
S'100.0'
p134
sg30
S'Greg Zuerlein'
p135
sg32
S'L16-19'
p136
sg34
S'2015'
p137
sg36
g6
sg37
S'60.0'
p138
sg39
g12
sg40
g12
ssS'16'
p139
(dp140
g5
S'42'
p141
sg7
S'16'
p142
sg9
g47
sg11
g12
sg13
S'@SEA'
p143
sg15
g12
sg16
g12
sg17
g12
sg18
g6
sg19
g10
sg20
S'62.2'
p144
sg22
g129
sg24
S'26.5'
p145
sg26
S'12/27'
p146
sg28
S'66.7'
p147
sg30
S'Greg Zuerlein'
p148
sg32
S'W23-17'
p149
sg34
S'2015'
p150
sg36
g6
sg37
S'100.0'
p151
sg39
g23
sg40
g6
ssg12
(dp152
g5
S'37'
p153
sg7
g12
sg9
g10
sg11
g10
sg13
S'SEA'
p154
sg15
g12
sg16
g10
sg17
g129
sg18
g6
sg19
g47
sg20
S'65.9'
p155
sg22
S'7'
p156
sg24
S'28.0'
p157
sg26
S'09/13'
p158
sg28
S'100.0'
p159
sg30
S'Greg Zuerlein'
p160
sg32
S'W34-31'
p161
sg34
S'2015'
p162
sg36
g6
sg37
S'100.0'
p163
sg39
g47
sg40
g6
ssg23
(dp164
g5
S'49'
p165
sg7
g23
sg9
g12
sg11
g10
sg13
S'PIT'
p166
sg15
g12
sg16
g10
sg17
g10
sg18
g6
sg19
g6
sg20
S'66.3'
p167
sg22
g23
sg24
S'22.0'
p168
sg26
S'09/27'
p169
sg28
S'--'
p170
sg30
S'Greg Zuerlein'
p171
sg32
S'L6-12'
p172
sg34
S'2015'
p173
sg36
g6
sg37
S'100.0'
p174
sg39
g6
sg40
g6
ssg10
(dp175
g5
S'52'
p176
sg7
g10
sg9
g12
sg11
g12
sg13
S'@WAS'
p177
sg15
g12
sg16
g12
sg17
g10
sg18
g6
sg19
g12
sg20
S'67.7'
p178
sg22
g23
sg24
S'23.0'
p179
sg26
S'09/20'
p180
sg28
S'100.0'
p181
sg30
S'Greg Zuerlein'
p182
sg32
S'L10-24'
p183
sg34
S'2015'
p184
sg36
g6
sg37
S'100.0'
p185
sg39
g12
sg40
g6
ssg129
(dp186
g5
S'42'
p187
sg7
g129
sg9
g6
sg11
g47
sg13
S'@GB'
p188
sg15
g12
sg16
g12
sg17
g23
sg18
g6
sg19
g12
sg20
S'65.0'
p189
sg22
g23
sg24
S'--'
p190
sg26
S'10/11'
p191
sg28
S'100.0'
p192
sg30
S'Greg Zuerlein'
p193
sg32
S'L10-24'
p194
sg34
S'2015'
p195
sg36
g6
sg37
S'25.0'
p196
sg39
g12
sg40
g12
ssg47
(dp197
g5
S'30'
p198
sg7
g47
sg9
g12
sg11
g12
sg13
S'@ARI'
p199
sg15
g12
sg16
g12
sg17
g47
sg18
g6
sg19
g23
sg20
S'66.0'
p200
sg22
g129
sg24
S'19.0'
p201
sg26
S'10/04'
p202
sg28
S'100.0'
p203
sg30
S'Greg Zuerlein'
p204
sg32
S'W24-22'
p205
sg34
S'2015'
p206
sg36
g6
sg37
S'100.0'
p207
sg39
g23
sg40
g6
ssg156
(dp208
g5
S'39'
p209
sg7
g156
sg9
g12
sg11
g23
sg13
S'CLE'
p210
sg15
g12
sg16
g12
sg17
g47
sg18
g6
sg19
g23
sg20
S'66.6'
p211
sg22
g129
sg24
S'21.0'
p212
sg26
S'10/25'
p213
sg28
S'100.0'
p214
sg30
S'Greg Zuerlein'
p215
sg32
S'W24-6'
p216
sg34
S'2015'
p217
sg36
g6
sg37
S'33.3'
p218
sg39
g23
sg40
g6
ssg105
(dp219
g5
S''
p220
sg7
g105
sg9
g220
sg11
g220
sg13
g220
sg15
g220
sg16
g220
sg17
g220
sg18
g220
sg19
g220
sg20
g220
sg22
g220
sg24
g220
sg26
S'Bye'
p221
sg28
g220
sg30
S'Greg Zuerlein'
p222
sg32
g220
sg34
S'2015'
p223
sg36
g220
sg37
g220
sg39
g220
sg40
g220
ssS'9'
p224
(dp225
g5
S'61'
p226
sg7
g224
sg9
g47
sg11
g129
sg13
S'@MIN'
p227
sg15
g12
sg16
g47
sg17
g12
sg18
g6
sg19
g6
sg20
S'62.8'
p228
sg22
g129
sg24
S'24.0'
p229
sg26
S'11/08'
p230
sg28
S'--'
p231
sg30
S'Greg Zuerlein'
p232
sg32
S'L18-21'
p233
sg34
S'2015'
p234
sg36
g6
sg37
S'80.0'
p235
sg39
g6
sg40
g6
ssS'8'
p236
(dp237
g5
S'38'
p238
sg7
g236
sg9
g10
sg11
g10
sg13
S'SF'
p239
sg15
g12
sg16
g12
sg17
g23
sg18
g6
sg19
g10
sg20
S'67.2'
p240
sg22
g129
sg24
S'24.5'
p241
sg26
S'11/01'
p242
sg28
S'100.0'
p243
sg30
S'Greg Zuerlein'
p244
sg32
S'W27-6'
p245
sg34
S'2015'
p246
sg36
g6
sg37
S'50.0'
p247
sg39
g10
sg40
g12
sssS'2014'
p248
(dp249
g3
(dp250
g5
S'55'
p251
sg7
S'11'
p252
sg9
g10
sg11
g129
sg13
S'DEN'
p253
sg15
g12
sg16
g129
sg17
g129
sg18
g6
sg19
g12
sg20
S'64.7'
p254
sg22
g156
sg24
S'12.0'
p255
sg26
S'11/16'
p256
sg28
S'100.0'
p257
sg30
S'Greg Zuerlein'
p258
sg32
S'W22-7'
p259
sg34
S'2014'
p260
sg36
g6
sg37
S'100.0'
p261
sg39
g12
sg40
g6
ssg41
(dp262
g5
g6
sg7
S'10'
p263
sg9
g10
sg11
g6
sg13
S'@ARI'
p264
sg15
g12
sg16
g6
sg17
g12
sg18
g6
sg19
g10
sg20
S'72.3'
p265
sg22
g23
sg24
S'22.0'
p266
sg26
S'11/09'
p267
sg28
S'100.0'
p268
sg30
S'Greg Zuerlein'
p269
sg32
S'L14-31'
p270
sg34
S'2014'
p271
sg36
g6
sg37
S'--'
p272
sg39
g10
sg40
g6
ssg55
(dp273
g5
S'38'
p274
sg7
S'13'
p275
sg9
g47
sg11
g12
sg13
S'OAK'
p276
sg15
g12
sg16
g12
sg17
g129
sg18
g6
sg19
g156
sg20
S'68.7'
p277
sg22
g224
sg24
S'13.3'
p278
sg26
S'11/30'
p279
sg28
S'100.0'
p280
sg30
S'Greg Zuerlein'
p281
sg32
S'W52-0'
p282
sg34
S'2014'
p283
sg36
g6
sg37
S'100.0'
p284
sg39
g156
sg40
g6
ssg77
(dp285
g5
S'22'
p286
sg7
S'12'
p287
sg9
g10
sg11
g10
sg13
S'@SD'
p288
sg15
g12
sg16
g12
sg17
g23
sg18
g6
sg19
g23
sg20
S'68.4'
p289
sg22
g129
sg24
S'21.5'
p290
sg26
S'11/23'
p291
sg28
S'100.0'
p292
sg30
S'Greg Zuerlein'
p293
sg32
S'L24-27'
p294
sg34
S'2014'
p295
sg36
g6
sg37
S'50.0'
p296
sg39
g23
sg40
g12
ssg99
(dp297
g5
S'24'
p298
sg7
S'15'
p299
sg9
g12
sg11
g10
sg13
S'ARI'
p300
sg15
g12
sg16
g10
sg17
g10
sg18
g6
sg19
g6
sg20
S'66.0'
p301
sg22
g23
sg24
S'18.0'
p302
sg26
S'12/11'
p303
sg28
S'--'
p304
sg30
S'Greg Zuerlein'
p305
sg32
S'L6-12'
p306
sg34
S'2014'
p307
sg36
g6
sg37
S'100.0'
p308
sg39
g6
sg40
g6
ssg113
(dp309
g5
S'34'
p310
sg7
S'14'
p311
sg9
g47
sg11
g23
sg13
S'@WAS'
p312
sg15
g12
sg16
g12
sg17
g12
sg18
g6
sg19
g12
sg20
S'67.2'
p313
sg22
g129
sg24
S'22.8'
p314
sg26
S'12/07'
p315
sg28
S'50.0'
p316
sg30
S'Greg Zuerlein'
p317
sg32
S'W24-0'
p318
sg34
S'2014'
p319
sg36
g6
sg37
S'33.3'
p320
sg39
g10
sg40
g6
ssg125
(dp321
g5
S'52'
p322
sg7
S'17'
p323
sg9
g10
sg11
g10
sg13
S'@SEA'
p324
sg15
g12
sg16
g10
sg17
g12
sg18
g6
sg19
g6
sg20
S'66.3'
p325
sg22
g23
sg24
S'26.0'
p326
sg26
S'12/28'
p327
sg28
S'--'
p328
sg30
S'Greg Zuerlein'
p329
sg32
S'L6-20'
p330
sg34
S'2014'
p331
sg36
g6
sg37
S'100.0'
p332
sg39
g6
sg40
g6
ssg139
(dp333
g5
S'51'
p334
sg7
S'16'
p335
sg9
g10
sg11
g10
sg13
S'NYG'
p336
sg15
g12
sg16
g10
sg17
g10
sg18
g6
sg19
g23
sg20
S'61.3'
p337
sg22
g47
sg24
S'22.5'
p338
sg26
S'12/21'
p339
sg28
S'100.0'
p340
sg30
S'Greg Zuerlein'
p341
sg32
S'L27-37'
p342
sg34
S'2014'
p343
sg36
g6
sg37
S'100.0'
p344
sg39
g23
sg40
g6
ssg12
(dp345
g5
S'56'
p346
sg7
g12
sg9
g10
sg11
g23
sg13
S'MIN'
p347
sg15
g12
sg16
g10
sg17
g12
sg18
g6
sg19
g6
sg20
S'70.3'
p348
sg22
g23
sg24
S'24.0'
p349
sg26
S'09/07'
p350
sg28
S'--'
p351
sg30
S'Greg Zuerlein'
p352
sg32
S'L6-34'
p353
sg34
S'2014'
p354
sg36
g6
sg37
S'66.7'
p355
sg39
g6
sg40
g6
ssg23
(dp356
g5
S'28'
p357
sg7
g23
sg9
g23
sg11
g12
sg13
S'DAL'
p358
sg15
g12
sg16
g12
sg17
g23
sg18
g6
sg19
g47
sg20
S'68.2'
p359
sg22
g105
sg24
S'24.7'
p360
sg26
S'09/21'
p361
sg28
S'100.0'
p362
sg30
S'Greg Zuerlein'
p363
sg32
S'L31-34'
p364
sg34
S'2014'
p365
sg36
g6
sg37
S'100.0'
p366
sg39
g47
sg40
g6
ssg10
(dp367
g5
S'46'
p368
sg7
g10
sg9
g47
sg11
g47
sg13
S'@TB'
p369
sg15
g12
sg16
g47
sg17
g10
sg18
g6
sg19
g12
sg20
S'65.0'
p370
sg22
g105
sg24
S'29.0'
p371
sg26
S'09/14'
p372
sg28
S'100.0'
p373
sg30
S'Greg Zuerlein'
p374
sg32
S'W19-17'
p375
sg34
S'2014'
p376
sg36
g6
sg37
S'100.0'
p377
sg39
g12
sg40
g6
ssg129
(dp378
g5
g6
sg7
g129
sg9
g12
sg11
g6
sg13
S'@PHI'
p379
sg15
g12
sg16
g6
sg17
g47
sg18
g6
sg19
g47
sg20
S'62.2'
p380
sg22
g129
sg24
S'15.0'
p381
sg26
S'10/05'
p382
sg28
S'100.0'
p383
sg30
S'Greg Zuerlein'
p384
sg32
S'L28-34'
p385
sg34
S'2014'
p386
sg36
g6
sg37
S'--'
p387
sg39
g47
sg40
g6
ssg47
(dp388
g5
g220
sg7
g47
sg9
g220
sg11
g220
sg13
g220
sg15
g220
sg16
g220
sg17
g220
sg18
g220
sg19
g220
sg20
g220
sg22
g220
sg24
g220
sg26
S'Bye'
p389
sg28
g220
sg30
S'Greg Zuerlein'
p390
sg32
g220
sg34
S'2014'
p391
sg36
g220
sg37
g220
sg39
g220
sg40
g220
ssg156
(dp392
g5
g6
sg7
g156
sg9
g10
sg11
g12
sg13
S'SEA'
p393
sg15
g12
sg16
g6
sg17
g23
sg18
g6
sg19
g47
sg20
S'67.6'
p394
sg22
g129
sg24
S'21.5'
p395
sg26
S'10/19'
p396
sg28
S'100.0'
p397
sg30
S'Greg Zuerlein'
p398
sg32
S'W28-26'
p399
sg34
S'2014'
p400
sg36
g6
sg37
S'0.0'
p401
sg39
g47
sg40
g6
ssg105
(dp402
g5
S'38'
p403
sg7
g105
sg9
g6
sg11
g12
sg13
S'SF'
p404
sg15
g12
sg16
g12
sg17
g23
sg18
g6
sg19
g10
sg20
S'65.0'
p405
sg22
g23
sg24
S'--'
p406
sg26
S'10/13'
p407
sg28
S'100.0'
p408
sg30
S'Greg Zuerlein'
p409
sg32
S'L17-31'
p410
sg34
S'2014'
p411
sg36
g6
sg37
S'100.0'
p412
sg39
g10
sg40
g6
ssg224
(dp413
g5
S'39'
p414
sg7
g224
sg9
g23
sg11
g10
sg13
S'@SF'
p415
sg15
g12
sg16
g10
sg17
g12
sg18
g6
sg19
g12
sg20
S'67.8'
p416
sg22
g47
sg24
S'28.0'
p417
sg26
S'11/02'
p418
sg28
S'100.0'
p419
sg30
S'Greg Zuerlein'
p420
sg32
S'W13-10'
p421
sg34
S'2014'
p422
sg36
g6
sg37
S'100.0'
p423
sg39
g12
sg40
g6
ssg236
(dp424
g5
g6
sg7
g236
sg9
g12
sg11
g12
sg13
S'@KC'
p425
sg15
g12
sg16
g6
sg17
g12
sg18
g6
sg19
g12
sg20
S'64.5'
p426
sg22
g10
sg24
S'99.0'
p427
sg26
S'10/26'
p428
sg28
S'100.0'
p429
sg30
S'Greg Zuerlein'
p430
sg32
S'L7-34'
p431
sg34
S'2014'
p432
sg36
g6
sg37
S'0.0'
p433
sg39
g12
sg40
g6
sssS'2013'
p434
(dp435
g3
(dp436
g5
g220
sg7
S'11'
p437
sg9
g220
sg11
g220
sg13
g220
sg15
g220
sg16
g220
sg17
g220
sg18
g220
sg19
g220
sg20
g220
sg22
g220
sg24
g220
sg26
S'Bye'
p438
sg28
g220
sg30
S'Greg Zuerlein'
p439
sg32
g220
sg34
S'2013'
p440
sg36
g220
sg37
g220
sg39
g220
sg40
g220
ssg41
(dp441
g5
S'32'
p442
sg7
S'10'
p443
sg9
g47
sg11
g12
sg13
S'@IND'
p444
sg15
g12
sg16
g12
sg17
g23
sg18
g6
sg19
g129
sg20
S'71.6'
p445
sg22
g156
sg24
S'15.0'
p446
sg26
S'11/10'
p447
sg28
S'100.0'
p448
sg30
S'Greg Zuerlein'
p449
sg32
S'W38-8'
p450
sg34
S'2013'
p451
sg36
g6
sg37
S'100.0'
p452
sg39
g129
sg40
g6
ssg55
(dp453
g5
S'43'
p454
sg7
S'13'
p455
sg9
g12
sg11
g10
sg13
S'@SF'
p456
sg15
g12
sg16
g10
sg17
g23
sg18
g6
sg19
g12
sg20
S'70.0'
p457
sg22
g47
sg24
S'24.0'
p458
sg26
S'12/01'
p459
sg28
S'100.0'
p460
sg30
S'Greg Zuerlein'
p461
sg32
S'L13-23'
p462
sg34
S'2013'
p463
sg36
g6
sg37
S'100.0'
p464
sg39
g12
sg40
g6
ssg77
(dp465
g5
S'40'
p466
sg7
S'12'
p467
sg9
g47
sg11
g10
sg13
S'CHI'
p468
sg15
g12
sg16
g10
sg17
g47
sg18
g6
sg19
g47
sg20
S'68.8'
p469
sg22
g236
sg24
S'22.5'
p470
sg26
S'11/24'
p471
sg28
S'100.0'
p472
sg30
S'Greg Zuerlein'
p473
sg32
S'W42-21'
p474
sg34
S'2013'
p475
sg36
g6
sg37
S'100.0'
p476
sg39
g47
sg40
g6
ssg99
(dp477
g5
S'35'
p478
sg7
S'15'
p479
sg9
g6
sg11
g10
sg13
S'NO'
p480
sg15
g12
sg16
g10
sg17
g129
sg18
g6
sg19
g23
sg20
S'57.2'
p481
sg22
g105
sg24
S'--'
p482
sg26
S'12/15'
p483
sg28
S'100.0'
p484
sg30
S'Greg Zuerlein'
p485
sg32
S'W27-16'
p486
sg34
S'2013'
p487
sg36
g6
sg37
S'100.0'
p488
sg39
g23
sg40
g6
ssg113
(dp489
g5
S'44'
p490
sg7
S'14'
p491
sg9
g12
sg11
g12
sg13
S'@ARI'
p492
sg15
g12
sg16
g12
sg17
g10
sg18
g6
sg19
g12
sg20
S'63.7'
p493
sg22
g23
sg24
S'26.0'
p494
sg26
S'12/08'
p495
sg28
S'100.0'
p496
sg30
S'Greg Zuerlein'
p497
sg32
S'L10-30'
p498
sg34
S'2013'
p499
sg36
g6
sg37
S'100.0'
p500
sg39
g12
sg40
g6
ssg125
(dp501
g5
S'36'
p502
sg7
S'17'
p503
sg9
g6
sg11
g12
sg13
S'@SEA'
p504
sg15
g12
sg16
g12
sg17
g10
sg18
g6
sg19
g6
sg20
S'65.0'
p505
sg22
g10
sg24
S'--'
p506
sg26
S'12/29'
p507
sg28
S'--'
p508
sg30
S'Greg Zuerlein'
p509
sg32
S'L9-27'
p510
sg34
S'2013'
p511
sg36
g6
sg37
S'100.0'
p512
sg39
g6
sg40
g6
ssg139
(dp513
g5
S'54'
p514
sg7
S'16'
p515
sg9
g6
sg11
g23
sg13
S'TB'
p516
sg15
g12
sg16
g23
sg17
g105
sg18
g6
sg19
g10
sg20
S'65.0'
p517
sg22
g105
sg24
S'--'
p518
sg26
S'12/22'
p519
sg28
S'100.0'
p520
sg30
S'Greg Zuerlein'
p521
sg32
S'W23-13'
p522
sg34
S'2013'
p523
sg36
g6
sg37
S'100.0'
p524
sg39
g10
sg40
g6
ssg12
(dp525
g5
S'48'
p526
sg7
g12
sg9
g10
sg11
g47
sg13
S'ARI'
p527
sg15
g12
sg16
g47
sg17
g129
sg18
g6
sg19
g12
sg20
S'67.7'
p528
sg22
g156
sg24
S'16.0'
p529
sg26
S'09/08'
p530
sg28
S'100.0'
p531
sg30
S'Greg Zuerlein'
p532
sg32
S'W27-24'
p533
sg34
S'2013'
p534
sg36
g6
sg37
S'100.0'
p535
sg39
g12
sg40
g6
ssg23
(dp536
g5
g6
sg7
g23
sg9
g6
sg11
g6
sg13
S'@DAL'
p537
sg15
g12
sg16
g6
sg17
g10
sg18
g6
sg19
g12
sg20
S'65.0'
p538
sg22
g10
sg24
S'--'
p539
sg26
S'09/22'
p540
sg28
S'100.0'
p541
sg30
S'Greg Zuerlein'
p542
sg32
S'L7-31'
p543
sg34
S'2013'
p544
sg36
g6
sg37
S'--'
p545
sg39
g12
sg40
g6
ssg10
(dp546
g5
S'29'
p547
sg7
g10
sg9
g12
sg11
g12
sg13
S'@ATL'
p548
sg15
g12
sg16
g12
sg17
g47
sg18
g6
sg19
g23
sg20
S'65.8'
p549
sg22
g129
sg24
S'17.0'
p550
sg26
S'09/15'
p551
sg28
S'100.0'
p552
sg30
S'Greg Zuerlein'
p553
sg32
S'L24-31'
p554
sg34
S'2013'
p555
sg36
g6
sg37
S'100.0'
p556
sg39
g23
sg40
g6
ssg129
(dp557
g5
S'37'
p558
sg7
g129
sg9
g10
sg11
g10
sg13
S'JAC'
p559
sg15
g12
sg16
g10
sg17
g129
sg18
g6
sg19
g47
sg20
S'66.6'
p560
sg22
g156
sg24
S'32.0'
p561
sg26
S'10/06'
p562
sg28
S'100.0'
p563
sg30
S'Greg Zuerlein'
p564
sg32
S'W34-20'
p565
sg34
S'2013'
p566
sg36
g6
sg37
S'100.0'
p567
sg39
g47
sg40
g6
ssg47
(dp568
g5
S'40'
p569
sg7
g47
sg9
g6
sg11
g12
sg13
S'SF'
p570
sg15
g12
sg16
g12
sg17
g10
sg18
g6
sg19
g6
sg20
S'65.0'
p571
sg22
g10
sg24
S'--'
p572
sg26
S'09/26'
p573
sg28
S'--'
p574
sg30
S'Greg Zuerlein'
p575
sg32
S'L11-35'
p576
sg34
S'2013'
p577
sg36
g6
sg37
S'100.0'
p578
sg39
g6
sg40
g6
ssg156
(dp579
g5
S'42'
p580
sg7
g156
sg9
g10
sg11
g10
sg13
S'@CAR'
p581
sg15
g12
sg16
g10
sg17
g10
sg18
g6
sg19
g12
sg20
S'65.0'
p582
sg22
g47
sg24
S'27.0'
p583
sg26
S'10/20'
p584
sg28
S'100.0'
p585
sg30
S'Greg Zuerlein'
p586
sg32
S'L15-30'
p587
sg34
S'2013'
p588
sg36
g6
sg37
S'100.0'
p589
sg39
g12
sg40
g6
ssg105
(dp590
g5
S'42'
p591
sg7
g105
sg9
g47
sg11
g12
sg13
S'@HOU'
p592
sg15
g12
sg16
g12
sg17
g10
sg18
g6
sg19
g129
sg20
S'68.3'
p593
sg22
g156
sg24
S'24.3'
p594
sg26
S'10/13'
p595
sg28
S'100.0'
p596
sg30
S'Greg Zuerlein'
p597
sg32
S'W38-13'
p598
sg34
S'2013'
p599
sg36
g6
sg37
S'100.0'
p600
sg39
g129
sg40
g6
ssg224
(dp601
g5
g6
sg7
g224
sg9
g23
sg11
g12
sg13
S'TEN'
p602
sg15
g12
sg16
g6
sg17
g12
sg18
g6
sg19
g23
sg20
S'67.3'
p603
sg22
g47
sg24
S'28.3'
p604
sg26
S'11/03'
p605
sg28
S'100.0'
p606
sg30
S'Greg Zuerlein'
p607
sg32
S'L21-28'
p608
sg34
S'2013'
p609
sg36
g6
sg37
S'0.0'
p610
sg39
g23
sg40
g6
ssg236
(dp611
g5
S'33'
p612
sg7
g236
sg9
g6
sg11
g47
sg13
S'SEA'
p613
sg15
g12
sg16
g23
sg17
g47
sg18
g6
sg19
g6
sg20
S'65.0'
p614
sg22
g47
sg24
S'--'
p615
sg26
S'10/28'
p616
sg28
S'--'
p617
sg30
S'Greg Zuerlein'
p618
sg32
S'L9-14'
p619
sg34
S'2013'
p620
sg36
g6
sg37
S'75.0'
p621
sg39
g6
sg40
g6
sssS'2012'
p622
(dp623
g3
(dp624
g5
g6
sg7
S'11'
p625
sg9
g12
sg11
g6
sg13
S'NYJ'
p626
sg15
g12
sg16
g6
sg17
g12
sg18
g6
sg19
g12
sg20
S'67.5'
p627
sg22
g10
sg24
S'42.0'
p628
sg26
S'11/18'
p629
sg28
S'100.0'
p630
sg30
S'Greg Zuerlein'
p631
sg32
S'L13-27'
p632
sg34
S'2012'
p633
sg36
g6
sg37
S'--'
p634
sg39
g12
sg40
g6
ssg41
(dp635
g5
S'27'
p636
sg7
S'10'
p637
sg9
g129
sg11
g10
sg13
S'@SF'
p638
sg15
g12
sg16
g12
sg17
g6
sg18
g6
sg19
g23
sg20
S'68.2'
p639
sg22
g129
sg24
S'23.6'
p640
sg26
S'11/11'
p641
sg28
S'100.0'
p642
sg30
S'Greg Zuerlein'
p643
sg32
S'T24-24'
p644
sg34
S'2012'
p645
sg36
g6
sg37
S'50.0'
p646
sg39
g23
sg40
g6
ssg55
(dp647
g5
S'54'
p648
sg7
S'13'
p649
sg9
g6
sg11
g23
sg13
S'SF'
p650
sg15
g12
sg16
g10
sg17
g10
sg18
g6
sg19
g6
sg20
S'65.0'
p651
sg22
g10
sg24
S'--'
p652
sg26
S'12/02'
p653
sg28
S'--'
p654
sg30
S'Greg Zuerlein'
p655
sg32
S'W16-13'
p656
sg34
S'2012'
p657
sg36
g6
sg37
S'66.7'
p658
sg39
g6
sg40
g6
ssg77
(dp659
g5
S'19'
p660
sg7
S'12'
p661
sg9
g23
sg11
g10
sg13
S'@ARI'
p662
sg15
g12
sg16
g12
sg17
g23
sg18
g6
sg19
g47
sg20
S'66.7'
p663
sg22
g105
sg24
S'22.7'
p664
sg26
S'11/25'
p665
sg28
S'100.0'
p666
sg30
S'Greg Zuerlein'
p667
sg32
S'W31-17'
p668
sg34
S'2012'
p669
sg36
g6
sg37
S'50.0'
p670
sg39
g47
sg40
g6
ssg99
(dp671
g5
g6
sg7
S'15'
p672
sg9
g12
sg11
g12
sg13
S'MIN'
p673
sg15
g12
sg16
g6
sg17
g23
sg18
g6
sg19
g10
sg20
S'66.5'
p674
sg22
g47
sg24
S'24.0'
p675
sg26
S'12/16'
p676
sg28
S'100.0'
p677
sg30
S'Greg Zuerlein'
p678
sg32
S'L22-36'
p679
sg34
S'2012'
p680
sg36
g6
sg37
S'0.0'
p681
sg39
g10
sg40
g6
ssg113
(dp682
g5
g6
sg7
S'14'
p683
sg9
g23
sg11
g6
sg13
S'@BUF'
p684
sg15
g12
sg16
g6
sg17
g6
sg18
g6
sg19
g12
sg20
S'67.0'
p685
sg22
g23
sg24
S'26.3'
p686
sg26
S'12/09'
p687
sg28
S'100.0'
p688
sg30
S'Greg Zuerlein'
p689
sg32
S'W15-12'
p690
sg34
S'2012'
p691
sg36
g6
sg37
S'--'
p692
sg39
g12
sg40
g6
ssg125
(dp693
g5
S'39'
p694
sg7
S'17'
p695
sg9
g23
sg11
g23
sg13
S'@SEA'
p696
sg15
g12
sg16
g10
sg17
g12
sg18
g6
sg19
g12
sg20
S'68.0'
p697
sg22
g47
sg24
S'20.7'
p698
sg26
S'12/30'
p699
sg28
S'100.0'
p700
sg30
S'Greg Zuerlein'
p701
sg32
S'L13-20'
p702
sg34
S'2012'
p703
sg36
g6
sg37
S'66.7'
p704
sg39
g12
sg40
g6
ssg139
(dp705
g5
g6
sg7
S'16'
p706
sg9
g6
sg11
g6
sg13
S'@TB'
p707
sg15
g12
sg16
g6
sg17
g129
sg18
g6
sg19
g47
sg20
S'70.6'
p708
sg22
g129
sg24
S'--'
p709
sg26
S'12/23'
p710
sg28
S'100.0'
p711
sg30
S'Greg Zuerlein'
p712
sg32
S'W28-13'
p713
sg34
S'2012'
p714
sg36
g6
sg37
S'--'
p715
sg39
g47
sg40
g6
ssg12
(dp716
g5
S'48'
p717
sg7
g12
sg9
g10
sg11
g23
sg13
S'@DET'
p718
sg15
g12
sg16
g23
sg17
g47
sg18
g6
sg19
g10
sg20
S'63.5'
p719
sg22
g105
sg24
S'9.5'
p720
sg26
S'09/09'
p721
sg28
S'100.0'
p722
sg30
S'Greg Zuerlein'
p723
sg32
S'L23-27'
p724
sg34
S'2012'
p725
sg36
g6
sg37
S'100.0'
p726
sg39
g10
sg40
g6
ssg23
(dp727
g5
S'56'
p728
sg7
g23
sg9
g23
sg11
g10
sg13
S'@CHI'
p729
sg15
g12
sg16
g10
sg17
g6
sg18
g6
sg19
g6
sg20
S'65.7'
p730
sg22
g23
sg24
S'28.3'
p731
sg26
S'09/23'
p732
sg28
S'--'
p733
sg30
S'Greg Zuerlein'
p734
sg32
S'L6-23'
p735
sg34
S'2012'
p736
sg36
g6
sg37
S'100.0'
p737
sg39
g6
sg40
g6
ssg10
(dp738
g5
S'42'
p739
sg7
g10
sg9
g47
sg11
g23
sg13
S'WAS'
p740
sg15
g12
sg16
g23
sg17
g23
sg18
g6
sg19
g10
sg20
S'64.1'
p741
sg22
g156
sg24
S'13.3'
p742
sg26
S'09/16'
p743
sg28
S'100.0'
p744
sg30
S'Greg Zuerlein'
p745
sg32
S'W31-28'
p746
sg34
S'2012'
p747
sg36
g6
sg37
S'100.0'
p748
sg39
g10
sg40
g6
ssg129
(dp749
g5
S'53'
p750
sg7
g129
sg9
g6
sg11
g12
sg13
S'ARI'
p751
sg15
g12
sg16
g12
sg17
g47
sg18
g6
sg19
g10
sg20
S'69.3'
p752
sg22
g47
sg24
S'--'
p753
sg26
S'10/04'
p754
sg28
S'100.0'
p755
sg30
S'Greg Zuerlein'
p756
sg32
S'W17-3'
p757
sg34
S'2012'
p758
sg36
g6
sg37
S'100.0'
p759
sg39
g10
sg40
g6
ssg47
(dp760
g5
S'60'
p761
sg7
g47
sg9
g12
sg11
g47
sg13
S'SEA'
p762
sg15
g12
sg16
g47
sg17
g47
sg18
g6
sg19
g12
sg20
S'68.2'
p763
sg22
g129
sg24
S'69.0'
p764
sg26
S'09/30'
p765
sg28
S'100.0'
p766
sg30
S'Greg Zuerlein'
p767
sg32
S'W19-13'
p768
sg34
S'2012'
p769
sg36
g6
sg37
S'100.0'
p770
sg39
g12
sg40
g6
ssg156
(dp771
g5
S'50'
p772
sg7
g156
sg9
g12
sg11
g10
sg13
S'GB'
p773
sg15
g12
sg16
g10
sg17
g47
sg18
g6
sg19
g10
sg20
S'70.0'
p774
sg22
g129
sg24
S'23.0'
p775
sg26
S'10/21'
p776
sg28
S'100.0'
p777
sg30
S'Greg Zuerlein'
p778
sg32
S'L20-30'
p779
sg34
S'2012'
p780
sg36
g6
sg37
S'100.0'
p781
sg39
g10
sg40
g6
ssg105
(dp782
g5
S'48'
p783
sg7
g105
sg9
g10
sg11
g129
sg13
S'@MIA'
p784
sg15
g12
sg16
g10
sg17
g10
sg18
g6
sg19
g6
sg20
S'68.3'
p785
sg22
g47
sg24
S'34.5'
p786
sg26
S'10/14'
p787
sg28
S'--'
p788
sg30
S'Greg Zuerlein'
p789
sg32
S'L14-17'
p790
sg34
S'2012'
p791
sg36
g6
sg37
S'40.0'
p792
sg39
g6
sg40
g6
ssg224
(dp793
g5
g220
sg7
g224
sg9
g220
sg11
g220
sg13
g220
sg15
g220
sg16
g220
sg17
g220
sg18
g220
sg19
g220
sg20
g220
sg22
g220
sg24
g220
sg26
S'Bye'
p794
sg28
g220
sg30
S'Greg Zuerlein'
p795
sg32
g220
sg34
S'2012'
p796
sg36
g220
sg37
g220
sg39
g220
sg40
g220
ssg236
(dp797
g5
g6
sg7
g236
sg9
g12
sg11
g6
sg13
S'NE'
p798
sg15
g12
sg16
g6
sg17
g12
sg18
g6
sg19
g12
sg20
S'66.0'
p799
sg22
g10
sg24
S'19.0'
p800
sg26
S'10/28'
p801
sg28
S'100.0'
p802
sg30
S'Greg Zuerlein'
p803
sg32
S'L7-45'
p804
sg34
S'2012'
p805
sg36
g6
sg37
S'--'
p806
sg39
g12
sg40
g6
sss.