(dp0
S'2015'
p1
(dp2
S'11'
p3
(dp4
S'FGLng'
p5
S'36'
p6
sS'WK'
p7
S'11'
p8
sS'Ret'
p9
S'1'
p10
sS'FGAtt'
p11
S'4'
p12
sS'Opp'
p13
S'TEN'
p14
sS'G'
p15
g10
sS'FGM'
p16
g12
sS'TB'
p17
S'5'
p18
sS'GS'
p19
S'0'
p20
sS'XPM'
p21
g10
sS'KOAvg'
p22
S'65.5'
p23
sS'KO'
p24
S'6'
p25
sS'RetAvg'
p26
S'22.0'
p27
sS'Game Date'
p28
S'11/19'
p29
sS'XPPct'
p30
S'100.0'
p31
sS'Player'
p32
S'Jason Myers'
p33
sS'Result'
p34
S'W19-13'
p35
sS'Year'
p36
S'2015'
p37
sS'XPBlk'
p38
g20
sS'FGPct'
p39
S'100.0'
p40
sS'XPAtt'
p41
g10
sS'FGBlk'
p42
g20
ssS'10'
p43
(dp44
g5
S'53'
p45
sg7
S'10'
p46
sg9
g10
sg11
g12
sg13
S'@BAL'
p47
sg15
g10
sg16
S'3'
p48
sg17
g12
sg19
g20
sg21
g10
sg22
S'66.6'
p49
sg24
g18
sg26
S'50.0'
p50
sg28
S'11/15'
p51
sg30
S'100.0'
p52
sg32
S'Jason Myers'
p53
sg34
S'W22-20'
p54
sg36
S'2015'
p55
sg38
g20
sg39
S'75.0'
p56
sg41
g10
sg42
g10
ssS'13'
p57
(dp58
g5
g20
sg7
S'13'
p59
sg9
g12
sg11
g20
sg13
S'@TEN'
p60
sg15
g10
sg16
g20
sg17
g48
sg19
g20
sg21
g48
sg22
S'66.3'
p61
sg24
S'7'
p62
sg26
S'20.0'
p63
sg28
S'12/06'
p64
sg30
S'60.0'
p65
sg32
S'Jason Myers'
p66
sg34
S'L39-42'
p67
sg36
S'2015'
p68
sg38
g20
sg39
S'--'
p69
sg41
g18
sg42
g20
ssS'12'
p70
(dp71
g5
S'51'
p72
sg7
S'12'
p73
sg9
g10
sg11
g12
sg13
S'SD'
p74
sg15
g10
sg16
g12
sg17
g18
sg19
g20
sg21
g10
sg22
S'56.4'
p75
sg24
g62
sg26
S'13.0'
p76
sg28
S'11/29'
p77
sg30
S'50.0'
p78
sg32
S'Jason Myers'
p79
sg34
S'L25-31'
p80
sg36
S'2015'
p81
sg38
g20
sg39
S'100.0'
p82
sg41
S'2'
p83
sg42
g20
ssS'15'
p84
(dp85
g5
S'42'
p86
sg7
S'15'
p87
sg9
g10
sg11
g10
sg13
S'ATL'
p88
sg15
g10
sg16
g10
sg17
g48
sg19
g20
sg21
g83
sg22
S'66.3'
p89
sg24
g12
sg26
S'24.0'
p90
sg28
S'12/20'
p91
sg30
S'100.0'
p92
sg32
S'Jason Myers'
p93
sg34
S'L17-23'
p94
sg36
S'2015'
p95
sg38
g20
sg39
S'100.0'
p96
sg41
g83
sg42
g20
ssS'14'
p97
(dp98
g5
S'46'
p99
sg7
S'14'
p100
sg9
g20
sg11
g10
sg13
S'IND'
p101
sg15
g10
sg16
g10
sg17
S'9'
p102
sg19
g20
sg21
g25
sg22
S'65.0'
p103
sg24
g102
sg26
S'--'
p104
sg28
S'12/13'
p105
sg30
S'85.7'
p106
sg32
S'Jason Myers'
p107
sg34
S'W51-16'
p108
sg36
S'2015'
p109
sg38
g20
sg39
S'100.0'
p110
sg41
g62
sg42
g20
ssS'17'
p111
(dp112
g5
S'43'
p113
sg7
S'17'
p114
sg9
g20
sg11
g83
sg13
S'@HOU'
p115
sg15
g10
sg16
g83
sg17
g48
sg19
g20
sg21
g20
sg22
S'65.0'
p116
sg24
g48
sg26
S'--'
p117
sg28
S'01/03'
p118
sg30
S'--'
p119
sg32
S'Jason Myers'
p120
sg34
S'L6-30'
p121
sg36
S'2015'
p122
sg38
g20
sg39
S'100.0'
p123
sg41
g20
sg42
g20
ssS'16'
p124
(dp125
g5
g20
sg7
S'16'
p126
sg9
g10
sg11
g20
sg13
S'@NO'
p127
sg15
g10
sg16
g20
sg17
g48
sg19
g20
sg21
g10
sg22
S'55.2'
p128
sg24
g18
sg26
S'19.0'
p129
sg28
S'12/27'
p130
sg30
S'100.0'
p131
sg32
S'Jason Myers'
p132
sg34
S'L27-38'
p133
sg36
S'2015'
p134
sg38
g20
sg39
S'--'
p135
sg41
g10
sg42
g20
ssg10
(dp136
g5
S'22'
p137
sg7
g10
sg9
g20
sg11
g83
sg13
S'CAR'
p138
sg15
g10
sg16
g10
sg17
g48
sg19
g20
sg21
g20
sg22
S'65.0'
p139
sg24
g48
sg26
S'--'
p140
sg28
S'09/13'
p141
sg30
S'0.0'
p142
sg32
S'Jason Myers'
p143
sg34
S'L9-20'
p144
sg36
S'2015'
p145
sg38
g20
sg39
S'50.0'
p146
sg41
g10
sg42
g20
ssg48
(dp147
g5
S'40'
p148
sg7
g48
sg9
g20
sg11
g10
sg13
S'@NE'
p149
sg15
g10
sg16
g10
sg17
g12
sg19
g20
sg21
g83
sg22
S'65.0'
p150
sg24
g12
sg26
S'--'
p151
sg28
S'09/27'
p152
sg30
S'100.0'
p153
sg32
S'Jason Myers'
p154
sg34
S'L17-51'
p155
sg36
S'2015'
p156
sg38
g20
sg39
S'100.0'
p157
sg41
g83
sg42
g20
ssg83
(dp158
g5
S'58'
p159
sg7
g83
sg9
g83
sg11
g48
sg13
S'MIA'
p160
sg15
g10
sg16
g48
sg17
g48
sg19
g20
sg21
g83
sg22
S'68.0'
p161
sg24
g18
sg26
S'28.5'
p162
sg28
S'09/20'
p163
sg30
S'100.0'
p164
sg32
S'Jason Myers'
p165
sg34
S'W23-20'
p166
sg36
S'2015'
p167
sg38
g20
sg39
S'100.0'
p168
sg41
g83
sg42
g20
ssg18
(dp169
g5
S'31'
p170
sg7
g18
sg9
g20
sg11
g10
sg13
S'@TB'
p171
sg15
g10
sg16
g10
sg17
g12
sg19
g20
sg21
g12
sg22
S'55.8'
p172
sg24
g25
sg26
S'--'
p173
sg28
S'10/11'
p174
sg30
S'100.0'
p175
sg32
S'Jason Myers'
p176
sg34
S'L31-38'
p177
sg36
S'2015'
p178
sg38
g20
sg39
S'100.0'
p179
sg41
g12
sg42
g20
ssg12
(dp180
g5
S'32'
p181
sg7
g12
sg9
g48
sg11
g12
sg13
S'@IND'
p182
sg15
g10
sg16
g83
sg17
g10
sg19
g20
sg21
g10
sg22
S'69.0'
p183
sg24
g12
sg26
S'24.0'
p184
sg28
S'10/04'
p185
sg30
S'100.0'
p186
sg32
S'Jason Myers'
p187
sg34
S'L13-16'
p188
sg36
S'2015'
p189
sg38
g20
sg39
S'50.0'
p190
sg41
g10
sg42
g20
ssg62
(dp191
g5
g20
sg7
g62
sg9
g12
sg11
g20
sg13
S'BUF'
p192
sg15
g10
sg16
g20
sg17
g83
sg19
g20
sg21
g12
sg22
S'66.8'
p193
sg24
g25
sg26
S'21.8'
p194
sg28
S'10/25'
p195
sg30
S'80.0'
p196
sg32
S'Jason Myers'
p197
sg34
S'W34-31'
p198
sg36
S'2015'
p199
sg38
g20
sg39
S'--'
p200
sg41
g18
sg42
g20
ssg25
(dp201
g5
g20
sg7
g25
sg9
g10
sg11
g20
sg13
S'HOU'
p202
sg15
g10
sg16
g20
sg17
g83
sg19
g20
sg21
g83
sg22
S'50.0'
p203
sg24
g12
sg26
S'14.0'
p204
sg28
S'10/18'
p205
sg30
S'66.7'
p206
sg32
S'Jason Myers'
p207
sg34
S'L20-31'
p208
sg36
S'2015'
p209
sg38
g20
sg39
S'--'
p210
sg41
g48
sg42
g20
ssg102
(dp211
g5
S'45'
p212
sg7
g102
sg9
g12
sg11
g48
sg13
S'@NYJ'
p213
sg15
g10
sg16
g48
sg17
g10
sg19
g20
sg21
g83
sg22
S'55.7'
p214
sg24
g25
sg26
S'28.8'
p215
sg28
S'11/08'
p216
sg30
S'100.0'
p217
sg32
S'Jason Myers'
p218
sg34
S'L23-28'
p219
sg36
S'2015'
p220
sg38
g20
sg39
S'100.0'
p221
sg41
g83
sg42
g20
ssS'8'
p222
(dp223
g5
S''
p224
sg7
g222
sg9
g224
sg11
g224
sg13
g224
sg15
g224
sg16
g224
sg17
g224
sg19
g224
sg21
g224
sg22
g224
sg24
g224
sg26
g224
sg28
S'Bye'
p225
sg30
g224
sg32
S'Jason Myers'
p226
sg34
g224
sg36
S'2015'
p227
sg38
g224
sg39
g224
sg41
g224
sg42
g224
sss.