(dp0
S'2015'
p1
(dp2
S'11'
p3
(dp4
S'FGLng'
p5
S'--'
p6
sS'WK'
p7
S'11'
p8
sS'Ret'
p9
S'2'
p10
sS'FGAtt'
p11
S'--'
p12
sS'Opp'
p13
S'@NE'
p14
sS'G'
p15
S'1'
p16
sS'FGM'
p17
S'--'
p18
sS'TB'
p19
g10
sS'GS'
p20
S'0'
p21
sS'XPM'
p22
S'--'
p23
sS'KOAvg'
p24
S'55.8'
p25
sS'KO'
p26
S'4'
p27
sS'RetAvg'
p28
S'5.0'
p29
sS'Game Date'
p30
S'11/23'
p31
sS'XPPct'
p32
S'--'
p33
sS'Player'
p34
S'Jordan Gay'
p35
sS'Result'
p36
S'L13-20'
p37
sS'Year'
p38
S'2015'
p39
sS'XPBlk'
p40
S'--'
p41
sS'FGPct'
p42
S'--'
p43
sS'XPAtt'
p44
S'--'
p45
sS'FGBlk'
p46
S'--'
p47
ssS'10'
p48
(dp49
g5
S'--'
p50
sg7
S'10'
p51
sg9
S'3'
p52
sg11
S'--'
p53
sg13
S'@NYJ'
p54
sg15
g16
sg17
S'--'
p55
sg19
g52
sg20
g21
sg22
S'--'
p56
sg24
S'66.0'
p57
sg26
S'6'
p58
sg28
S'15.7'
p59
sg30
S'11/12'
p60
sg32
S'--'
p61
sg34
S'Jordan Gay'
p62
sg36
S'W22-17'
p63
sg38
S'2015'
p64
sg40
S'--'
p65
sg42
S'--'
p66
sg44
S'--'
p67
sg46
S'--'
p68
ssS'13'
p69
(dp70
g5
S'--'
p71
sg7
S'13'
p72
sg9
g16
sg11
S'--'
p73
sg13
S'HOU'
p74
sg15
g16
sg17
S'--'
p75
sg19
S'5'
p76
sg20
g21
sg22
S'--'
p77
sg24
S'64.7'
p78
sg26
g58
sg28
S'21.0'
p79
sg30
S'12/06'
p80
sg32
S'--'
p81
sg34
S'Jordan Gay'
p82
sg36
S'W30-21'
p83
sg38
S'2015'
p84
sg40
S'--'
p85
sg42
S'--'
p86
sg44
S'--'
p87
sg46
S'--'
p88
ssS'12'
p89
(dp90
g5
S'--'
p91
sg7
S'12'
p92
sg9
g27
sg11
S'--'
p93
sg13
S'@KC'
p94
sg15
g16
sg17
S'--'
p95
sg19
g16
sg20
g21
sg22
S'--'
p96
sg24
S'66.8'
p97
sg26
g76
sg28
S'26.5'
p98
sg30
S'11/29'
p99
sg32
S'--'
p100
sg34
S'Jordan Gay'
p101
sg36
S'L22-30'
p102
sg38
S'2015'
p103
sg40
S'--'
p104
sg42
S'--'
p105
sg44
S'--'
p106
sg46
S'--'
p107
ssS'15'
p108
(dp109
g5
S'--'
p110
sg7
S'15'
p111
sg9
g52
sg11
S'--'
p112
sg13
S'@WAS'
p113
sg15
g16
sg17
S'--'
p114
sg19
g16
sg20
g21
sg22
S'--'
p115
sg24
S'53.2'
p116
sg26
g76
sg28
S'16.7'
p117
sg30
S'12/20'
p118
sg32
S'--'
p119
sg34
S'Jordan Gay'
p120
sg36
S'L25-35'
p121
sg38
S'2015'
p122
sg40
S'--'
p123
sg42
S'--'
p124
sg44
S'--'
p125
sg46
S'--'
p126
ssS'14'
p127
(dp128
g5
S'--'
p129
sg7
S'14'
p130
sg9
g52
sg11
S'--'
p131
sg13
S'@PHI'
p132
sg15
g16
sg17
S'--'
p133
sg19
g10
sg20
g21
sg22
S'--'
p134
sg24
S'66.4'
p135
sg26
g76
sg28
S'18.7'
p136
sg30
S'12/13'
p137
sg32
S'--'
p138
sg34
S'Jordan Gay'
p139
sg36
S'L20-23'
p140
sg38
S'2015'
p141
sg40
S'--'
p142
sg42
S'--'
p143
sg44
S'--'
p144
sg46
S'--'
p145
ssS'17'
p146
(dp147
g5
S'--'
p148
sg7
S'17'
p149
sg9
g10
sg11
S'--'
p150
sg13
S'NYJ'
p151
sg15
g16
sg17
S'--'
p152
sg19
g27
sg20
g21
sg22
S'--'
p153
sg24
S'62.7'
p154
sg26
g58
sg28
S'15.0'
p155
sg30
S'01/03'
p156
sg32
S'--'
p157
sg34
S'Jordan Gay'
p158
sg36
S'W22-17'
p159
sg38
S'2015'
p160
sg40
S'--'
p161
sg42
S'--'
p162
sg44
S'--'
p163
sg46
S'--'
p164
ssS'16'
p165
(dp166
g5
S'--'
p167
sg7
S'16'
p168
sg9
g16
sg11
S'--'
p169
sg13
S'DAL'
p170
sg15
g16
sg17
S'--'
p171
sg19
g52
sg20
g21
sg22
S'--'
p172
sg24
S'62.5'
p173
sg26
g27
sg28
S'15.0'
p174
sg30
S'12/27'
p175
sg32
S'--'
p176
sg34
S'Jordan Gay'
p177
sg36
S'W16-6'
p178
sg38
S'2015'
p179
sg40
S'--'
p180
sg42
S'--'
p181
sg44
S'--'
p182
sg46
S'--'
p183
ssg16
(dp184
g5
S'--'
p185
sg7
g16
sg9
g52
sg11
S'--'
p186
sg13
S'IND'
p187
sg15
g16
sg17
S'--'
p188
sg19
g52
sg20
g21
sg22
S'--'
p189
sg24
S'66.5'
p190
sg26
g58
sg28
S'19.3'
p191
sg30
S'09/13'
p192
sg32
S'--'
p193
sg34
S'Jordan Gay'
p194
sg36
S'W27-14'
p195
sg38
S'2015'
p196
sg40
S'--'
p197
sg42
S'--'
p198
sg44
S'--'
p199
sg46
S'--'
p200
ssg52
(dp201
g5
S'--'
p202
sg7
g52
sg9
g27
sg11
S'--'
p203
sg13
S'@MIA'
p204
sg15
g16
sg17
S'--'
p205
sg19
g27
sg20
g21
sg22
S'--'
p206
sg24
S'61.6'
p207
sg26
S'8'
p208
sg28
S'15.8'
p209
sg30
S'09/27'
p210
sg32
S'--'
p211
sg34
S'Jordan Gay'
p212
sg36
S'W41-14'
p213
sg38
S'2015'
p214
sg40
S'--'
p215
sg42
S'--'
p216
sg44
S'--'
p217
sg46
S'--'
p218
ssg10
(dp219
g5
S'--'
p220
sg7
g10
sg9
g21
sg11
S'--'
p221
sg13
S'NE'
p222
sg15
g16
sg17
S'--'
p223
sg19
g76
sg20
g21
sg22
S'--'
p224
sg24
S'53.0'
p225
sg26
g58
sg28
S'--'
p226
sg30
S'09/20'
p227
sg32
S'--'
p228
sg34
S'Jordan Gay'
p229
sg36
S'L32-40'
p230
sg38
S'2015'
p231
sg40
S'--'
p232
sg42
S'--'
p233
sg44
S'--'
p234
sg46
S'--'
p235
ssg27
(dp236
g5
S'--'
p237
sg7
g27
sg9
g16
sg11
S'--'
p238
sg13
S'NYG'
p239
sg15
g16
sg17
S'--'
p240
sg19
g10
sg20
g21
sg22
S'--'
p241
sg24
S'64.0'
p242
sg26
g52
sg28
S'25.0'
p243
sg30
S'10/04'
p244
sg32
S'--'
p245
sg34
S'Jordan Gay'
p246
sg36
S'L10-24'
p247
sg38
S'2015'
p248
sg40
S'--'
p249
sg42
S'--'
p250
sg44
S'--'
p251
sg46
S'--'
p252
ssS'7'
p253
(dp254
g5
S'--'
p255
sg7
g253
sg9
g10
sg11
S'--'
p256
sg13
S'@JAC'
p257
sg15
g16
sg17
S'--'
p258
sg19
g76
sg20
g21
sg22
S'--'
p259
sg24
S'65.7'
p260
sg26
g253
sg28
S'10.0'
p261
sg30
S'10/25'
p262
sg32
S'--'
p263
sg34
S'Jordan Gay'
p264
sg36
S'L31-34'
p265
sg38
S'2015'
p266
sg40
S'--'
p267
sg42
S'--'
p268
sg44
S'--'
p269
sg46
S'--'
p270
ssS'9'
p271
(dp272
g5
S'--'
p273
sg7
g271
sg9
g27
sg11
S'--'
p274
sg13
S'MIA'
p275
sg15
g16
sg17
S'--'
p276
sg19
g10
sg20
g21
sg22
S'--'
p277
sg24
S'64.7'
p278
sg26
g58
sg28
S'12.5'
p279
sg30
S'11/08'
p280
sg32
S'--'
p281
sg34
S'Jordan Gay'
p282
sg36
S'W33-17'
p283
sg38
S'2015'
p284
sg40
S'--'
p285
sg42
S'--'
p286
sg44
S'--'
p287
sg46
S'--'
p288
ssg208
(dp289
g5
S''
p290
sg7
g208
sg9
g290
sg11
g290
sg13
g290
sg15
g290
sg17
g290
sg19
g290
sg20
g290
sg22
g290
sg24
g290
sg26
g290
sg28
g290
sg30
S'Bye'
p291
sg32
g290
sg34
S'Jordan Gay'
p292
sg36
g290
sg38
S'2015'
p293
sg40
g290
sg42
g290
sg44
g290
sg46
g290
sssS'2014'
p294
(dp295
g3
(dp296
g5
S'--'
p297
sg7
S'11'
p298
sg9
g16
sg11
S'--'
p299
sg13
S'@MIA'
p300
sg15
g16
sg17
S'--'
p301
sg19
g52
sg20
g21
sg22
S'--'
p302
sg24
S'66.0'
p303
sg26
g27
sg28
S'26.0'
p304
sg30
S'11/13'
p305
sg32
S'--'
p306
sg34
S'Jordan Gay'
p307
sg36
S'L9-22'
p308
sg38
S'2014'
p309
sg40
S'--'
p310
sg42
S'--'
p311
sg44
S'--'
p312
sg46
S'--'
p313
ssg48
(dp314
g5
S'--'
p315
sg7
S'10'
p316
sg9
g16
sg11
S'--'
p317
sg13
S'KC'
p318
sg15
g16
sg17
S'--'
p319
sg19
g52
sg20
g21
sg22
S'--'
p320
sg24
S'67.0'
p321
sg26
g27
sg28
S'38.0'
p322
sg30
S'11/09'
p323
sg32
S'--'
p324
sg34
S'Jordan Gay'
p325
sg36
S'L13-17'
p326
sg38
S'2014'
p327
sg40
S'--'
p328
sg42
S'--'
p329
sg44
S'--'
p330
sg46
S'--'
p331
ssg69
(dp332
g5
S'--'
p333
sg7
S'13'
p334
sg9
g10
sg11
S'--'
p335
sg13
S'CLE'
p336
sg15
g16
sg17
S'--'
p337
sg19
g76
sg20
g21
sg22
S'--'
p338
sg24
S'66.1'
p339
sg26
g253
sg28
S'22.0'
p340
sg30
S'11/30'
p341
sg32
S'--'
p342
sg34
S'Jordan Gay'
p343
sg36
S'W26-10'
p344
sg38
S'2014'
p345
sg40
S'--'
p346
sg42
S'--'
p347
sg44
S'--'
p348
sg46
S'--'
p349
ssg89
(dp350
g5
S'--'
p351
sg7
S'12'
p352
sg9
g58
sg11
S'--'
p353
sg13
S'NYJ'
p354
sg15
g16
sg17
S'--'
p355
sg19
g16
sg20
g21
sg22
S'--'
p356
sg24
S'66.0'
p357
sg26
g253
sg28
S'15.0'
p358
sg30
S'11/24'
p359
sg32
S'--'
p360
sg34
S'Jordan Gay'
p361
sg36
S'W38-3'
p362
sg38
S'2014'
p363
sg40
S'--'
p364
sg42
S'--'
p365
sg44
S'--'
p366
sg46
S'--'
p367
ssg108
(dp368
g5
S'--'
p369
sg7
S'15'
p370
sg9
g16
sg11
S'--'
p371
sg13
S'GB'
p372
sg15
g16
sg17
S'--'
p373
sg19
g27
sg20
g21
sg22
S'--'
p374
sg24
S'63.2'
p375
sg26
g58
sg28
S'8.0'
p376
sg30
S'12/14'
p377
sg32
S'--'
p378
sg34
S'Jordan Gay'
p379
sg36
S'W21-13'
p380
sg38
S'2014'
p381
sg40
S'--'
p382
sg42
S'--'
p383
sg44
S'--'
p384
sg46
S'--'
p385
ssg127
(dp386
g5
S'--'
p387
sg7
S'14'
p388
sg9
g10
sg11
S'--'
p389
sg13
S'@DEN'
p390
sg15
g16
sg17
S'--'
p391
sg19
g16
sg20
g21
sg22
S'--'
p392
sg24
S'48.0'
p393
sg26
g27
sg28
S'25.0'
p394
sg30
S'12/07'
p395
sg32
S'--'
p396
sg34
S'Jordan Gay'
p397
sg36
S'L17-24'
p398
sg38
S'2014'
p399
sg40
S'--'
p400
sg42
S'--'
p401
sg44
S'--'
p402
sg46
S'--'
p403
ssg146
(dp404
g5
S'--'
p405
sg7
S'17'
p406
sg9
g21
sg11
S'--'
p407
sg13
S'@NE'
p408
sg15
g16
sg17
S'--'
p409
sg19
g27
sg20
g21
sg22
S'--'
p410
sg24
S'65.0'
p411
sg26
g27
sg28
S'--'
p412
sg30
S'12/28'
p413
sg32
S'--'
p414
sg34
S'Jordan Gay'
p415
sg36
S'W17-9'
p416
sg38
S'2014'
p417
sg40
S'--'
p418
sg42
S'--'
p419
sg44
S'--'
p420
sg46
S'--'
p421
ssg165
(dp422
g5
S'--'
p423
sg7
S'16'
p424
sg9
g16
sg11
S'--'
p425
sg13
S'@OAK'
p426
sg15
g16
sg17
S'--'
p427
sg19
g10
sg20
g21
sg22
S'--'
p428
sg24
S'52.5'
p429
sg26
g27
sg28
S'21.0'
p430
sg30
S'12/21'
p431
sg32
S'--'
p432
sg34
S'Jordan Gay'
p433
sg36
S'L24-26'
p434
sg38
S'2014'
p435
sg40
S'--'
p436
sg42
S'--'
p437
sg44
S'--'
p438
sg46
S'--'
p439
ssg16
(dp440
g5
S'--'
p441
sg7
g16
sg9
g16
sg11
S'--'
p442
sg13
S'@CHI'
p443
sg15
g16
sg17
S'--'
p444
sg19
g76
sg20
g21
sg22
S'--'
p445
sg24
S'66.3'
p446
sg26
g58
sg28
S'21.0'
p447
sg30
S'09/07'
p448
sg32
S'--'
p449
sg34
S'Jordan Gay'
p450
sg36
S'W23-20'
p451
sg38
S'2014'
p452
sg40
S'--'
p453
sg42
S'--'
p454
sg44
S'--'
p455
sg46
S'--'
p456
ssg52
(dp457
g5
S'--'
p458
sg7
g52
sg9
g21
sg11
S'--'
p459
sg13
S'SD'
p460
sg15
g16
sg17
S'--'
p461
sg19
g52
sg20
g21
sg22
S'--'
p462
sg24
S'65.0'
p463
sg26
g52
sg28
S'--'
p464
sg30
S'09/21'
p465
sg32
S'--'
p466
sg34
S'Jordan Gay'
p467
sg36
S'L10-22'
p468
sg38
S'2014'
p469
sg40
S'--'
p470
sg42
S'--'
p471
sg44
S'--'
p472
sg46
S'--'
p473
ssg10
(dp474
g5
S'--'
p475
sg7
g10
sg9
g52
sg11
S'--'
p476
sg13
S'MIA'
p477
sg15
g16
sg17
S'--'
p478
sg19
g76
sg20
g21
sg22
S'--'
p479
sg24
S'65.8'
p480
sg26
g208
sg28
S'19.0'
p481
sg30
S'09/14'
p482
sg32
S'--'
p483
sg34
S'Jordan Gay'
p484
sg36
S'W29-10'
p485
sg38
S'2014'
p486
sg40
S'--'
p487
sg42
S'--'
p488
sg44
S'--'
p489
sg46
S'--'
p490
ssg76
(dp491
g5
S'--'
p492
sg7
g76
sg9
g21
sg11
S'--'
p493
sg13
S'@DET'
p494
sg15
g16
sg17
S'--'
p495
sg19
g76
sg20
g21
sg22
S'--'
p496
sg24
S'65.0'
p497
sg26
g76
sg28
S'--'
p498
sg30
S'10/05'
p499
sg32
S'--'
p500
sg34
S'Jordan Gay'
p501
sg36
S'W17-14'
p502
sg38
S'2014'
p503
sg40
S'--'
p504
sg42
S'--'
p505
sg44
S'--'
p506
sg46
S'--'
p507
ssg27
(dp508
g5
S'--'
p509
sg7
g27
sg9
g16
sg11
S'--'
p510
sg13
S'@HOU'
p511
sg15
g16
sg17
S'--'
p512
sg19
g52
sg20
g21
sg22
S'--'
p513
sg24
S'66.3'
p514
sg26
g27
sg28
S'41.0'
p515
sg30
S'09/28'
p516
sg32
S'--'
p517
sg34
S'Jordan Gay'
p518
sg36
S'L17-23'
p519
sg38
S'2014'
p520
sg40
S'--'
p521
sg42
S'--'
p522
sg44
S'--'
p523
sg46
S'--'
p524
ssg253
(dp525
g5
S'--'
p526
sg7
g253
sg9
g27
sg11
S'--'
p527
sg13
S'MIN'
p528
sg15
g16
sg17
S'--'
p529
sg19
g21
sg20
g21
sg22
S'--'
p530
sg24
S'46.0'
p531
sg26
g27
sg28
S'12.3'
p532
sg30
S'10/19'
p533
sg32
S'--'
p534
sg34
S'Jordan Gay'
p535
sg36
S'W17-16'
p536
sg38
S'2014'
p537
sg40
S'--'
p538
sg42
S'--'
p539
sg44
S'--'
p540
sg46
S'--'
p541
ssg58
(dp542
g5
S'--'
p543
sg7
g58
sg9
g10
sg11
S'--'
p544
sg13
S'NE'
p545
sg15
g16
sg17
S'--'
p546
sg19
g10
sg20
g21
sg22
S'--'
p547
sg24
S'63.5'
p548
sg26
g27
sg28
S'14.5'
p549
sg30
S'10/12'
p550
sg32
S'--'
p551
sg34
S'Jordan Gay'
p552
sg36
S'L22-37'
p553
sg38
S'2014'
p554
sg40
S'--'
p555
sg42
S'--'
p556
sg44
S'--'
p557
sg46
S'--'
p558
ssg271
(dp559
g5
g290
sg7
g271
sg9
g290
sg11
g290
sg13
g290
sg15
g290
sg17
g290
sg19
g290
sg20
g290
sg22
g290
sg24
g290
sg26
g290
sg28
g290
sg30
S'Bye'
p560
sg32
g290
sg34
S'Jordan Gay'
p561
sg36
g290
sg38
S'2014'
p562
sg40
g290
sg42
g290
sg44
g290
sg46
g290
ssg208
(dp563
g5
S'--'
p564
sg7
g208
sg9
g58
sg11
S'--'
p565
sg13
S'@NYJ'
p566
sg15
g16
sg17
S'--'
p567
sg19
g52
sg20
g21
sg22
S'--'
p568
sg24
S'68.4'
p569
sg26
g271
sg28
S'24.0'
p570
sg30
S'10/26'
p571
sg32
S'--'
p572
sg34
S'Jordan Gay'
p573
sg36
S'W43-23'
p574
sg38
S'2014'
p575
sg40
S'--'
p576
sg42
S'--'
p577
sg44
S'--'
p578
sg46
S'--'
p579
sss.