(dp0
S'2015'
p1
(dp2
S'11'
p3
(dp4
S'FGLng'
p5
S''
p6
sS'WK'
p7
S'11'
p8
sS'Ret'
p9
g6
sS'FGAtt'
p10
g6
sS'Opp'
p11
g6
sS'G'
p12
g6
sS'FGM'
p13
g6
sS'TB'
p14
g6
sS'GS'
p15
g6
sS'XPM'
p16
g6
sS'KOAvg'
p17
g6
sS'KO'
p18
g6
sS'RetAvg'
p19
g6
sS'Game Date'
p20
S'Bye'
p21
sS'XPPct'
p22
g6
sS'Player'
p23
S'Josh Brown'
p24
sS'Result'
p25
g6
sS'Year'
p26
S'2015'
p27
sS'XPBlk'
p28
g6
sS'FGPct'
p29
g6
sS'XPAtt'
p30
g6
sS'FGBlk'
p31
g6
ssS'10'
p32
(dp33
g5
S'53'
p34
sg7
S'10'
p35
sg9
S'4'
p36
sg10
g36
sg11
S'NE'
p37
sg12
S'1'
p38
sg13
g36
sg14
S'3'
p39
sg15
S'0'
p40
sg16
S'2'
p41
sg17
S'63.4'
p42
sg18
S'7'
p43
sg19
S'17.8'
p44
sg20
S'11/15'
p45
sg22
S'100.0'
p46
sg23
S'Josh Brown'
p47
sg25
S'L26-27'
p48
sg26
S'2015'
p49
sg28
g40
sg29
S'100.0'
p50
sg30
g41
sg31
g40
ssS'13'
p51
(dp52
g5
S'35'
p53
sg7
S'13'
p54
sg9
S'5'
p55
sg10
g39
sg11
S'NYJ'
p56
sg12
g38
sg13
g41
sg14
g38
sg15
g40
sg16
g41
sg17
S'62.5'
p57
sg18
S'6'
p58
sg19
S'21.6'
p59
sg20
S'12/06'
p60
sg22
S'100.0'
p61
sg23
S'Josh Brown'
p62
sg25
S'L20-23'
p63
sg26
S'2015'
p64
sg28
g40
sg29
S'66.7'
p65
sg30
g41
sg31
g40
ssS'12'
p66
(dp67
g5
g40
sg7
S'12'
p68
sg9
g39
sg10
g40
sg11
S'@WAS'
p69
sg12
g38
sg13
g40
sg14
g40
sg15
g40
sg16
g41
sg17
S'67.3'
p70
sg18
g39
sg19
S'19.3'
p71
sg20
S'11/29'
p72
sg22
S'100.0'
p73
sg23
S'Josh Brown'
p74
sg25
S'L14-20'
p75
sg26
S'2015'
p76
sg28
g40
sg29
S'--'
p77
sg30
g41
sg31
g40
ssS'15'
p78
(dp79
g5
g40
sg7
S'15'
p80
sg9
g55
sg10
g40
sg11
S'CAR'
p81
sg12
g38
sg13
g40
sg14
g38
sg15
g40
sg16
g55
sg17
S'59.5'
p82
sg18
g58
sg19
S'16.4'
p83
sg20
S'12/20'
p84
sg22
S'100.0'
p85
sg23
S'Josh Brown'
p86
sg25
S'L35-38'
p87
sg26
S'2015'
p88
sg28
g40
sg29
S'--'
p89
sg30
g55
sg31
g40
ssS'14'
p90
(dp91
g5
S'35'
p92
sg7
S'14'
p93
sg9
g36
sg10
g41
sg11
S'@MIA'
p94
sg12
g38
sg13
g38
sg14
g41
sg15
g40
sg16
g36
sg17
S'67.3'
p95
sg18
g58
sg19
S'27.3'
p96
sg20
S'12/14'
p97
sg22
S'100.0'
p98
sg23
S'Josh Brown'
p99
sg25
S'W31-24'
p100
sg26
S'2015'
p101
sg28
g40
sg29
S'50.0'
p102
sg30
g36
sg31
g40
ssS'17'
p103
(dp104
g5
S'48'
p105
sg7
S'17'
p106
sg9
g41
sg10
g39
sg11
S'PHI'
p107
sg12
g38
sg13
g39
sg14
g55
sg15
g40
sg16
g39
sg17
S'61.6'
p108
sg18
g43
sg19
S'12.0'
p109
sg20
S'01/03'
p110
sg22
S'100.0'
p111
sg23
S'Josh Brown'
p112
sg25
S'L30-35'
p113
sg26
S'2015'
p114
sg28
g40
sg29
S'100.0'
p115
sg30
g39
sg31
g40
ssS'16'
p116
(dp117
g5
S'27'
p118
sg7
S'16'
p119
sg9
g39
sg10
g38
sg11
S'@MIN'
p120
sg12
g38
sg13
g38
sg14
g40
sg15
g40
sg16
g41
sg17
S'30.5'
p121
sg18
g36
sg19
S'17.7'
p122
sg20
S'12/27'
p123
sg22
S'100.0'
p124
sg23
S'Josh Brown'
p125
sg25
S'L17-49'
p126
sg26
S'2015'
p127
sg28
g40
sg29
S'100.0'
p128
sg30
g41
sg31
g40
ssg38
(dp129
g5
S'50'
p130
sg7
g38
sg9
g55
sg10
g36
sg11
S'@DAL'
p131
sg12
g38
sg13
g36
sg14
g41
sg15
g40
sg16
g41
sg17
S'62.6'
p132
sg18
g43
sg19
S'19.2'
p133
sg20
S'09/13'
p134
sg22
S'100.0'
p135
sg23
S'Josh Brown'
p136
sg25
S'L26-27'
p137
sg26
S'2015'
p138
sg28
g40
sg29
S'100.0'
p139
sg30
g41
sg31
g40
ssg39
(dp140
g5
S'48'
p141
sg7
g39
sg9
g36
sg10
g39
sg11
S'WAS'
p142
sg12
g38
sg13
g39
sg14
g39
sg15
g40
sg16
g39
sg17
S'64.0'
p143
sg18
g43
sg19
S'39.5'
p144
sg20
S'09/24'
p145
sg22
S'100.0'
p146
sg23
S'Josh Brown'
p147
sg25
S'W32-21'
p148
sg26
S'2015'
p149
sg28
g40
sg29
S'100.0'
p150
sg30
g39
sg31
g40
ssg41
(dp151
g5
S'44'
p152
sg7
g41
sg9
g41
sg10
g41
sg11
S'ATL'
p153
sg12
g38
sg13
g41
sg14
g39
sg15
g40
sg16
g41
sg17
S'61.6'
p154
sg18
g55
sg19
S'15.5'
p155
sg20
S'09/20'
p156
sg22
S'100.0'
p157
sg23
S'Josh Brown'
p158
sg25
S'L20-24'
p159
sg26
S'2015'
p160
sg28
g40
sg29
S'100.0'
p161
sg30
g41
sg31
g40
ssg55
(dp162
g5
S'41'
p163
sg7
g55
sg9
g41
sg10
g39
sg11
S'SF'
p164
sg12
g38
sg13
g39
sg14
g55
sg15
g40
sg16
g39
sg17
S'62.7'
p165
sg18
g43
sg19
S'12.5'
p166
sg20
S'10/11'
p167
sg22
S'100.0'
p168
sg23
S'Josh Brown'
p169
sg25
S'W30-27'
p170
sg26
S'2015'
p171
sg28
g40
sg29
S'100.0'
p172
sg30
g39
sg31
g40
ssg36
(dp173
g5
S'47'
p174
sg7
g36
sg9
g36
sg10
g38
sg11
S'@BUF'
p175
sg12
g38
sg13
g38
sg14
g38
sg15
g40
sg16
g38
sg17
S'60.4'
p176
sg18
g55
sg19
S'17.0'
p177
sg20
S'10/04'
p178
sg22
S'50.0'
p179
sg23
S'Josh Brown'
p180
sg25
S'W24-10'
p181
sg26
S'2015'
p182
sg28
g40
sg29
S'100.0'
p183
sg30
g41
sg31
g40
ssg43
(dp184
g5
S'47'
p185
sg7
g43
sg9
g39
sg10
g41
sg11
S'DAL'
p186
sg12
g38
sg13
g41
sg14
g41
sg15
g40
sg16
g39
sg17
S'61.3'
p187
sg18
g58
sg19
S'22.0'
p188
sg20
S'10/25'
p189
sg22
S'100.0'
p190
sg23
S'Josh Brown'
p191
sg25
S'W27-20'
p192
sg26
S'2015'
p193
sg28
g40
sg29
S'100.0'
p194
sg30
g39
sg31
g40
ssg58
(dp195
g5
g40
sg7
g58
sg9
g41
sg10
g40
sg11
S'@PHI'
p196
sg12
g38
sg13
g40
sg14
g40
sg15
g40
sg16
g38
sg17
S'64.5'
p197
sg18
g41
sg19
S'16.5'
p198
sg20
S'10/19'
p199
sg22
S'100.0'
p200
sg23
S'Josh Brown'
p201
sg25
S'L7-27'
p202
sg26
S'2015'
p203
sg28
g40
sg29
S'--'
p204
sg30
g38
sg31
g40
ssS'9'
p205
(dp206
g5
S'53'
p207
sg7
g205
sg9
g36
sg10
g36
sg11
S'@TB'
p208
sg12
g38
sg13
g36
sg14
g39
sg15
g40
sg16
g41
sg17
S'67.3'
p209
sg18
g43
sg19
S'21.8'
p210
sg20
S'11/08'
p211
sg22
S'100.0'
p212
sg23
S'Josh Brown'
p213
sg25
S'W32-18'
p214
sg26
S'2015'
p215
sg28
g40
sg29
S'100.0'
p216
sg30
g41
sg31
g40
ssS'8'
p217
(dp218
g5
g40
sg7
g217
sg9
g41
sg10
g40
sg11
S'@NO'
p219
sg12
g38
sg13
g40
sg14
g58
sg15
g40
sg16
g43
sg17
S'61.1'
p220
sg18
g217
sg19
S'13.0'
p221
sg20
S'11/01'
p222
sg22
S'100.0'
p223
sg23
S'Josh Brown'
p224
sg25
S'L49-52'
p225
sg26
S'2015'
p226
sg28
g40
sg29
S'--'
p227
sg30
g43
sg31
g40
sssS'2014'
p228
(dp229
g3
(dp230
g5
S'43'
p231
sg7
S'11'
p232
sg9
g38
sg10
g38
sg11
S'SF'
p233
sg12
g38
sg13
g38
sg14
g38
sg15
g40
sg16
g38
sg17
S'47.3'
p234
sg18
g39
sg19
S'26.0'
p235
sg20
S'11/16'
p236
sg22
S'100.0'
p237
sg23
S'Josh Brown'
p238
sg25
S'L10-16'
p239
sg26
S'2014'
p240
sg28
g40
sg29
S'100.0'
p241
sg30
g38
sg31
g40
ssg32
(dp242
g5
S'41'
p243
sg7
S'10'
p244
sg9
g38
sg10
g38
sg11
S'@SEA'
p245
sg12
g38
sg13
g38
sg14
g41
sg15
g40
sg16
g41
sg17
S'66.7'
p246
sg18
g39
sg19
S'28.0'
p247
sg20
S'11/09'
p248
sg22
S'100.0'
p249
sg23
S'Josh Brown'
p250
sg25
S'L17-38'
p251
sg26
S'2014'
p252
sg28
g40
sg29
S'100.0'
p253
sg30
g41
sg31
g40
ssg51
(dp254
g5
S'33'
p255
sg7
S'13'
p256
sg9
g39
sg10
g41
sg11
S'@JAC'
p257
sg12
g38
sg13
g38
sg14
g41
sg15
g40
sg16
g39
sg17
S'64.2'
p258
sg18
g55
sg19
S'17.0'
p259
sg20
S'11/30'
p260
sg22
S'100.0'
p261
sg23
S'Josh Brown'
p262
sg25
S'L24-25'
p263
sg26
S'2014'
p264
sg28
g40
sg29
S'50.0'
p265
sg30
g39
sg31
g40
ssg66
(dp266
g5
g40
sg7
S'12'
p267
sg9
g38
sg10
g40
sg11
S'DAL'
p268
sg12
g38
sg13
g40
sg14
g36
sg15
g40
sg16
g36
sg17
S'63.8'
p269
sg18
g55
sg19
S'22.0'
p270
sg20
S'11/23'
p271
sg22
S'100.0'
p272
sg23
S'Josh Brown'
p273
sg25
S'L28-31'
p274
sg26
S'2014'
p275
sg28
g40
sg29
S'--'
p276
sg30
g36
sg31
g40
ssg78
(dp277
g5
S'32'
p278
sg7
S'15'
p279
sg9
g38
sg10
g38
sg11
S'WAS'
p280
sg12
g38
sg13
g38
sg14
g41
sg15
g40
sg16
g39
sg17
S'55.4'
p281
sg18
g55
sg19
S'33.0'
p282
sg20
S'12/14'
p283
sg22
S'100.0'
p284
sg23
S'Josh Brown'
p285
sg25
S'W24-13'
p286
sg26
S'2014'
p287
sg28
g40
sg29
S'100.0'
p288
sg30
g39
sg31
g40
ssg90
(dp289
g5
S'52'
p290
sg7
S'14'
p291
sg9
g36
sg10
g55
sg11
S'@TEN'
p292
sg12
g38
sg13
g55
sg14
g55
sg15
g40
sg16
g39
sg17
S'60.9'
p293
sg18
g205
sg19
S'15.8'
p294
sg20
S'12/07'
p295
sg22
S'100.0'
p296
sg23
S'Josh Brown'
p297
sg25
S'W36-7'
p298
sg26
S'2014'
p299
sg28
g40
sg29
S'100.0'
p300
sg30
g39
sg31
g40
ssg103
(dp301
g5
S'53'
p302
sg7
S'17'
p303
sg9
g41
sg10
g36
sg11
S'PHI'
p304
sg12
g38
sg13
g36
sg14
g55
sg15
g40
sg16
g41
sg17
S'63.6'
p305
sg18
g43
sg19
S'20.0'
p306
sg20
S'12/28'
p307
sg22
S'100.0'
p308
sg23
S'Josh Brown'
p309
sg25
S'L26-34'
p310
sg26
S'2014'
p311
sg28
g40
sg29
S'100.0'
p312
sg30
g41
sg31
g40
ssg116
(dp313
g5
S'52'
p314
sg7
S'16'
p315
sg9
g55
sg10
g36
sg11
S'@STL'
p316
sg12
g38
sg13
g39
sg14
g39
sg15
g40
sg16
g36
sg17
S'63.9'
p317
sg18
g217
sg19
S'18.0'
p318
sg20
S'12/21'
p319
sg22
S'100.0'
p320
sg23
S'Josh Brown'
p321
sg25
S'W37-27'
p322
sg26
S'2014'
p323
sg28
g40
sg29
S'75.0'
p324
sg30
g36
sg31
g38
ssg38
(dp325
g5
g40
sg7
g38
sg9
g40
sg10
g40
sg11
S'@DET'
p326
sg12
g38
sg13
g40
sg14
g39
sg15
g40
sg16
g41
sg17
S'65.0'
p327
sg18
g39
sg19
S'--'
p328
sg20
S'09/08'
p329
sg22
S'100.0'
p330
sg23
S'Josh Brown'
p331
sg25
S'L14-35'
p332
sg26
S'2014'
p333
sg28
g40
sg29
S'--'
p334
sg30
g41
sg31
g40
ssg39
(dp335
g5
S'39'
p336
sg7
g39
sg9
g39
sg10
g39
sg11
S'HOU'
p337
sg12
g38
sg13
g39
sg14
g36
sg15
g40
sg16
g39
sg17
S'66.7'
p338
sg18
g43
sg19
S'22.3'
p339
sg20
S'09/21'
p340
sg22
S'100.0'
p341
sg23
S'Josh Brown'
p342
sg25
S'W30-17'
p343
sg26
S'2014'
p344
sg28
g40
sg29
S'100.0'
p345
sg30
g39
sg31
g40
ssg41
(dp346
g5
g40
sg7
g41
sg9
g41
sg10
g40
sg11
S'ARI'
p347
sg12
g38
sg13
g40
sg14
g38
sg15
g40
sg16
g41
sg17
S'65.3'
p348
sg18
g39
sg19
S'14.0'
p349
sg20
S'09/14'
p350
sg22
S'100.0'
p351
sg23
S'Josh Brown'
p352
sg25
S'L14-25'
p353
sg26
S'2014'
p354
sg28
g40
sg29
S'--'
p355
sg30
g41
sg31
g40
ssg55
(dp356
g5
S'50'
p357
sg7
g55
sg9
g36
sg10
g39
sg11
S'ATL'
p358
sg12
g38
sg13
g39
sg14
g39
sg15
g40
sg16
g39
sg17
S'63.4'
p359
sg18
g43
sg19
S'17.5'
p360
sg20
S'10/05'
p361
sg22
S'100.0'
p362
sg23
S'Josh Brown'
p363
sg25
S'W30-20'
p364
sg26
S'2014'
p365
sg28
g40
sg29
S'100.0'
p366
sg30
g39
sg31
g40
ssg36
(dp367
g5
S'29'
p368
sg7
g36
sg9
g41
sg10
g38
sg11
S'@WAS'
p369
sg12
g38
sg13
g38
sg14
g55
sg15
g40
sg16
g58
sg17
S'63.0'
p370
sg18
g43
sg19
S'16.5'
p371
sg20
S'09/25'
p372
sg22
S'100.0'
p373
sg23
S'Josh Brown'
p374
sg25
S'W45-14'
p375
sg26
S'2014'
p376
sg28
g40
sg29
S'100.0'
p377
sg30
g58
sg31
g40
ssg43
(dp378
g5
g40
sg7
g43
sg9
g40
sg10
g40
sg11
S'@DAL'
p379
sg12
g38
sg13
g40
sg14
g36
sg15
g40
sg16
g39
sg17
S'65.0'
p380
sg18
g36
sg19
S'--'
p381
sg20
S'10/19'
p382
sg22
S'100.0'
p383
sg23
S'Josh Brown'
p384
sg25
S'L21-31'
p385
sg26
S'2014'
p386
sg28
g40
sg29
S'--'
p387
sg30
g39
sg31
g40
ssg58
(dp388
g5
S'--'
p389
sg7
g58
sg9
g40
sg10
S'--'
p390
sg11
S'@PHI'
p391
sg12
g38
sg13
S'--'
p392
sg14
g38
sg15
g40
sg16
S'--'
p393
sg17
S'65.0'
p394
sg18
g38
sg19
S'--'
p395
sg20
S'10/12'
p396
sg22
S'--'
p397
sg23
S'Josh Brown'
p398
sg25
S'L0-27'
p399
sg26
S'2014'
p400
sg28
S'--'
p401
sg29
S'--'
p402
sg30
S'--'
p403
sg31
S'--'
p404
ssg205
(dp405
g5
S'38'
p406
sg7
g205
sg9
g39
sg10
g38
sg11
S'IND'
p407
sg12
g38
sg13
g38
sg14
g38
sg15
g40
sg16
g39
sg17
S'48.2'
p408
sg18
g55
sg19
S'12.0'
p409
sg20
S'11/03'
p410
sg22
S'100.0'
p411
sg23
S'Josh Brown'
p412
sg25
S'L24-40'
p413
sg26
S'2014'
p414
sg28
g40
sg29
S'100.0'
p415
sg30
g39
sg31
g40
ssg217
(dp416
g5
g6
sg7
g217
sg9
g6
sg10
g6
sg11
g6
sg12
g6
sg13
g6
sg14
g6
sg15
g6
sg16
g6
sg17
g6
sg18
g6
sg19
g6
sg20
S'Bye'
p417
sg22
g6
sg23
S'Josh Brown'
p418
sg25
g6
sg26
S'2014'
p419
sg28
g6
sg29
g6
sg30
g6
sg31
g6
sssS'2011'
p420
(dp421
g3
(dp422
g5
g40
sg7
S'11'
p423
sg9
g38
sg10
g40
sg11
S'SEA'
p424
sg12
g38
sg13
g40
sg14
g38
sg15
g40
sg16
g38
sg17
S'72.0'
p425
sg18
g41
sg19
S'21.0'
p426
sg20
S'11/20'
p427
sg22
S'100.0'
p428
sg23
S'Josh Brown'
p429
sg25
S'L7-24'
p430
sg26
S'2011'
p431
sg28
g40
sg29
S'--'
p432
sg30
g38
sg31
g40
ssg32
(dp433
g5
S'34'
p434
sg7
S'10'
p435
sg9
g38
sg10
g41
sg11
S'@CLE'
p436
sg12
g38
sg13
g41
sg14
g41
sg15
g40
sg16
g38
sg17
S'65.3'
p437
sg18
g36
sg19
S'27.0'
p438
sg20
S'11/13'
p439
sg22
S'100.0'
p440
sg23
S'Josh Brown'
p441
sg25
S'W13-12'
p442
sg26
S'2011'
p443
sg28
g40
sg29
S'100.0'
p444
sg30
g38
sg31
g40
ssg51
(dp445
g5
S'--'
p446
sg7
S'13'
p447
sg9
g38
sg10
S'--'
p448
sg11
S'@SF'
p449
sg12
g38
sg13
S'--'
p450
sg14
g40
sg15
g40
sg16
S'--'
p451
sg17
S'69.0'
p452
sg18
g38
sg19
S'31.0'
p453
sg20
S'12/04'
p454
sg22
S'--'
p455
sg23
S'Josh Brown'
p456
sg25
S'L0-26'
p457
sg26
S'2011'
p458
sg28
S'--'
p459
sg29
S'--'
p460
sg30
S'--'
p461
sg31
S'--'
p462
ssg66
(dp463
g5
S'48'
p464
sg7
S'12'
p465
sg9
g36
sg10
g39
sg11
S'ARI'
p466
sg12
g38
sg13
g41
sg14
g38
sg15
g40
sg16
g41
sg17
S'65.8'
p467
sg18
g55
sg19
S'24.3'
p468
sg20
S'11/27'
p469
sg22
S'100.0'
p470
sg23
S'Josh Brown'
p471
sg25
S'L20-23'
p472
sg26
S'2011'
p473
sg28
g40
sg29
S'66.7'
p474
sg30
g41
sg31
g40
ssg78
(dp475
g5
S'43'
p476
sg7
S'15'
p477
sg9
g36
sg10
g39
sg11
S'CIN'
p478
sg12
g38
sg13
g41
sg14
g40
sg15
g40
sg16
g38
sg17
S'60.8'
p479
sg18
g36
sg19
S'25.3'
p480
sg20
S'12/18'
p481
sg22
S'100.0'
p482
sg23
S'Josh Brown'
p483
sg25
S'L13-20'
p484
sg26
S'2011'
p485
sg28
g40
sg29
S'66.7'
p486
sg30
g38
sg31
g40
ssg90
(dp487
g5
S'46'
p488
sg7
S'14'
p489
sg9
g39
sg10
g41
sg11
S'@SEA'
p490
sg12
g38
sg13
g41
sg14
g40
sg15
g40
sg16
g38
sg17
S'52.0'
p491
sg18
g36
sg19
S'39.0'
p492
sg20
S'12/12'
p493
sg22
S'100.0'
p494
sg23
S'Josh Brown'
p495
sg25
S'L13-30'
p496
sg26
S'2011'
p497
sg28
g40
sg29
S'100.0'
p498
sg30
g38
sg31
g40
ssg103
(dp499
g5
S'49'
p500
sg7
S'17'
p501
sg9
g39
sg10
g41
sg11
S'SF'
p502
sg12
g38
sg13
g41
sg14
g41
sg15
g40
sg16
g39
sg17
S'60.8'
p503
sg18
g58
sg19
S'25.0'
p504
sg20
S'01/01'
p505
sg22
S'100.0'
p506
sg23
S'Josh Brown'
p507
sg25
S'L27-34'
p508
sg26
S'2011'
p509
sg28
g40
sg29
S'100.0'
p510
sg30
g39
sg31
g40
ssg116
(dp511
g5
g40
sg7
S'16'
p512
sg9
g38
sg10
g41
sg11
S'@PIT'
p513
sg12
g38
sg13
g40
sg14
g40
sg15
g40
sg16
g40
sg17
S'68.0'
p514
sg18
g38
sg19
S'30.0'
p515
sg20
S'12/24'
p516
sg22
S'--'
p517
sg23
S'Josh Brown'
p518
sg25
S'L0-27'
p519
sg26
S'2011'
p520
sg28
g40
sg29
S'0.0'
p521
sg30
g40
sg31
g40
ssg38
(dp522
g5
S'49'
p523
sg7
g38
sg9
g41
sg10
g39
sg11
S'PHI'
p524
sg12
g38
sg13
g41
sg14
g41
sg15
g40
sg16
g38
sg17
S'70.5'
p525
sg18
g36
sg19
S'18.0'
p526
sg20
S'09/11'
p527
sg22
S'100.0'
p528
sg23
S'Josh Brown'
p529
sg25
S'L13-31'
p530
sg26
S'2011'
p531
sg28
g40
sg29
S'66.7'
p532
sg30
g38
sg31
g40
ssg39
(dp533
g5
g40
sg7
g39
sg9
g41
sg10
g40
sg11
S'BAL'
p534
sg12
g38
sg13
g40
sg14
g40
sg15
g40
sg16
g38
sg17
S'74.0'
p535
sg18
g41
sg19
S'30.0'
p536
sg20
S'09/25'
p537
sg22
S'100.0'
p538
sg23
S'Josh Brown'
p539
sg25
S'L7-37'
p540
sg26
S'2011'
p541
sg28
g40
sg29
S'--'
p542
sg30
g38
sg31
g40
ssg41
(dp543
g5
S'27'
p544
sg7
g41
sg9
g41
sg10
g39
sg11
S'@NYG'
p545
sg12
g38
sg13
g39
sg14
g39
sg15
g40
sg16
g38
sg17
S'70.8'
p546
sg18
g55
sg19
S'25.5'
p547
sg20
S'09/19'
p548
sg22
S'100.0'
p549
sg23
S'Josh Brown'
p550
sg25
S'L16-28'
p551
sg26
S'2011'
p552
sg28
g40
sg29
S'100.0'
p553
sg30
g38
sg31
g40
ssg55
(dp554
g5
g6
sg7
g55
sg9
g6
sg10
g6
sg11
g6
sg12
g6
sg13
g6
sg14
g6
sg15
g6
sg16
g6
sg17
g6
sg18
g6
sg19
g6
sg20
S'Bye'
p555
sg22
g6
sg23
S'Josh Brown'
p556
sg25
g6
sg26
S'2011'
p557
sg28
g6
sg29
g6
sg30
g6
sg31
g6
ssg36
(dp558
g5
S'32'
p559
sg7
g36
sg9
g41
sg10
g38
sg11
S'WAS'
p560
sg12
g38
sg13
g38
sg14
g38
sg15
g40
sg16
g38
sg17
S'68.7'
p561
sg18
g39
sg19
S'17.5'
p562
sg20
S'10/02'
p563
sg22
S'100.0'
p564
sg23
S'Josh Brown'
p565
sg25
S'L10-17'
p566
sg26
S'2011'
p567
sg28
g40
sg29
S'100.0'
p568
sg30
g38
sg31
g40
ssg43
(dp569
g5
g40
sg7
g43
sg9
g40
sg10
g40
sg11
S'@DAL'
p570
sg12
g38
sg13
g40
sg14
g41
sg15
g40
sg16
g38
sg17
S'73.5'
p571
sg18
g41
sg19
S'--'
p572
sg20
S'10/23'
p573
sg22
S'100.0'
p574
sg23
S'Josh Brown'
p575
sg25
S'L7-34'
p576
sg26
S'2011'
p577
sg28
g40
sg29
S'--'
p578
sg30
g38
sg31
g40
ssg58
(dp579
g5
S'36'
p580
sg7
g58
sg9
g41
sg10
g41
sg11
S'@GB'
p581
sg12
g38
sg13
g38
sg14
g40
sg15
g40
sg16
g40
sg17
S'53.5'
p582
sg18
g41
sg19
S'13.5'
p583
sg20
S'10/16'
p584
sg22
S'--'
p585
sg23
S'Josh Brown'
p586
sg25
S'L3-24'
p587
sg26
S'2011'
p588
sg28
g40
sg29
S'50.0'
p589
sg30
g40
sg31
g40
ssg205
(dp590
g5
S'48'
p591
sg7
g205
sg9
g39
sg10
g36
sg11
S'@ARI'
p592
sg12
g38
sg13
g39
sg14
g40
sg15
g40
sg16
g40
sg17
S'68.3'
p593
sg18
g39
sg19
S'24.3'
p594
sg20
S'11/06'
p595
sg22
S'--'
p596
sg23
S'Josh Brown'
p597
sg25
S'L13-19'
p598
sg26
S'2011'
p599
sg28
g40
sg29
S'75.0'
p600
sg30
g40
sg31
g38
ssg217
(dp601
g5
S'38'
p602
sg7
g217
sg9
g55
sg10
g38
sg11
S'NO'
p603
sg12
g38
sg13
g38
sg14
g38
sg15
g40
sg16
g36
sg17
S'66.8'
p604
sg18
g58
sg19
S'24.2'
p605
sg20
S'10/30'
p606
sg22
S'100.0'
p607
sg23
S'Josh Brown'
p608
sg25
S'W31-21'
p609
sg26
S'2011'
p610
sg28
g40
sg29
S'100.0'
p611
sg30
g36
sg31
g40
sssS'2010'
p612
(dp613
g3
(dp614
g5
S'53'
p615
sg7
S'11'
p616
sg9
g36
sg10
g38
sg11
S'ATL'
p617
sg12
g38
sg13
g38
sg14
g40
sg15
g40
sg16
g41
sg17
S'68.5'
p618
sg18
g36
sg19
S'30.0'
p619
sg20
S'11/21'
p620
sg22
S'100.0'
p621
sg23
S'Josh Brown'
p622
sg25
S'L17-34'
p623
sg26
S'2010'
p624
sg28
g40
sg29
S'100.0'
p625
sg30
g41
sg31
g40
ssg32
(dp626
g5
S'42'
p627
sg7
S'10'
p628
sg9
g39
sg10
g41
sg11
S'@SF'
p629
sg12
g38
sg13
g41
sg14
g40
sg15
g40
sg16
g41
sg17
S'67.0'
p630
sg18
g36
sg19
S'14.0'
p631
sg20
S'11/14'
p632
sg22
S'100.0'
p633
sg23
S'Josh Brown'
p634
sg25
S'L20-23'
p635
sg26
S'2010'
p636
sg28
g40
sg29
S'100.0'
p637
sg30
g41
sg31
g40
ssg51
(dp638
g5
S'52'
p639
sg7
S'13'
p640
sg9
g58
sg10
g36
sg11
S'@ARI'
p641
sg12
g38
sg13
g36
sg14
g40
sg15
g40
sg16
g38
sg17
S'69.8'
p642
sg18
g58
sg19
S'24.3'
p643
sg20
S'12/05'
p644
sg22
S'100.0'
p645
sg23
S'Josh Brown'
p646
sg25
S'W19-6'
p647
sg26
S'2010'
p648
sg28
g40
sg29
S'100.0'
p649
sg30
g38
sg31
g40
ssg66
(dp650
g5
S'37'
p651
sg7
S'12'
p652
sg9
g55
sg10
g36
sg11
S'@DEN'
p653
sg12
g38
sg13
g39
sg14
g39
sg15
g40
sg16
g39
sg17
S'68.3'
p654
sg18
g217
sg19
S'19.6'
p655
sg20
S'11/28'
p656
sg22
S'75.0'
p657
sg23
S'Josh Brown'
p658
sg25
S'W36-33'
p659
sg26
S'2010'
p660
sg28
g40
sg29
S'75.0'
p661
sg30
g36
sg31
g40
ssg78
(dp662
g5
S'52'
p663
sg7
S'15'
p664
sg9
g36
sg10
g41
sg11
S'KC'
p665
sg12
g38
sg13
g41
sg14
g40
sg15
g40
sg16
g38
sg17
S'65.8'
p666
sg18
g36
sg19
S'15.5'
p667
sg20
S'12/19'
p668
sg22
S'100.0'
p669
sg23
S'Josh Brown'
p670
sg25
S'L13-27'
p671
sg26
S'2010'
p672
sg28
g40
sg29
S'100.0'
p673
sg30
g38
sg31
g40
ssg90
(dp674
g5
S'45'
p675
sg7
S'14'
p676
sg9
g39
sg10
g39
sg11
S'@NO'
p677
sg12
g38
sg13
g41
sg14
g40
sg15
g40
sg16
g38
sg17
S'56.0'
p678
sg18
g36
sg19
S'23.0'
p679
sg20
S'12/12'
p680
sg22
S'100.0'
p681
sg23
S'Josh Brown'
p682
sg25
S'L13-31'
p683
sg26
S'2010'
p684
sg28
g40
sg29
S'66.7'
p685
sg30
g38
sg31
g40
ssg103
(dp686
g5
S'32'
p687
sg7
S'17'
p688
sg9
g39
sg10
g41
sg11
S'@SEA'
p689
sg12
g38
sg13
g41
sg14
g40
sg15
g40
sg16
g40
sg17
S'62.3'
p690
sg18
g39
sg19
S'20.7'
p691
sg20
S'01/02'
p692
sg22
S'--'
p693
sg23
S'Josh Brown'
p694
sg25
S'L6-16'
p695
sg26
S'2010'
p696
sg28
g40
sg29
S'100.0'
p697
sg30
g40
sg31
g40
ssg116
(dp698
g5
S'43'
p699
sg7
S'16'
p700
sg9
g58
sg10
g39
sg11
S'SF'
p701
sg12
g38
sg13
g39
sg14
g40
sg15
g40
sg16
g41
sg17
S'64.8'
p702
sg18
g58
sg19
S'16.7'
p703
sg20
S'12/26'
p704
sg22
S'100.0'
p705
sg23
S'Josh Brown'
p706
sg25
S'W25-17'
p707
sg26
S'2010'
p708
sg28
g40
sg29
S'100.0'
p709
sg30
g41
sg31
g40
ssg38
(dp710
g5
S'46'
p711
sg7
g38
sg9
g39
sg10
g39
sg11
S'ARI'
p712
sg12
g38
sg13
g41
sg14
g40
sg15
g40
sg16
g38
sg17
S'72.3'
p713
sg18
g39
sg19
S'27.3'
p714
sg20
S'09/12'
p715
sg22
S'100.0'
p716
sg23
S'Josh Brown'
p717
sg25
S'L13-17'
p718
sg26
S'2010'
p719
sg28
g40
sg29
S'66.7'
p720
sg30
g38
sg31
g38
ssg39
(dp721
g5
S'37'
p722
sg7
g39
sg9
g58
sg10
g36
sg11
S'WAS'
p723
sg12
g38
sg13
g39
sg14
g38
sg15
g40
sg16
g39
sg17
S'71.4'
p724
sg18
g43
sg19
S'28.3'
p725
sg20
S'09/26'
p726
sg22
S'100.0'
p727
sg23
S'Josh Brown'
p728
sg25
S'W30-16'
p729
sg26
S'2010'
p730
sg28
g40
sg29
S'75.0'
p731
sg30
g39
sg31
g38
ssg41
(dp732
g5
g40
sg7
g41
sg9
g39
sg10
g38
sg11
S'@OAK'
p733
sg12
g38
sg13
g40
sg14
g40
sg15
g40
sg16
g41
sg17
S'71.0'
p734
sg18
g39
sg19
S'20.3'
p735
sg20
S'09/19'
p736
sg22
S'100.0'
p737
sg23
S'Josh Brown'
p738
sg25
S'L14-16'
p739
sg26
S'2010'
p740
sg28
g40
sg29
S'0.0'
p741
sg30
g41
sg31
g40
ssg55
(dp742
g5
S'28'
p743
sg7
g55
sg9
g38
sg10
g41
sg11
S'@DET'
p744
sg12
g38
sg13
g41
sg14
g38
sg15
g40
sg16
g40
sg17
S'54.3'
p745
sg18
g39
sg19
S'105.0'
p746
sg20
S'10/10'
p747
sg22
S'--'
p748
sg23
S'Josh Brown'
p749
sg25
S'L6-44'
p750
sg26
S'2010'
p751
sg28
g40
sg29
S'100.0'
p752
sg30
g40
sg31
g40
ssg36
(dp753
g5
S'31'
p754
sg7
g36
sg9
g36
sg10
g41
sg11
S'SEA'
p755
sg12
g38
sg13
g41
sg14
g40
sg15
g40
sg16
g41
sg17
S'63.3'
p756
sg18
g36
sg19
S'23.0'
p757
sg20
S'10/03'
p758
sg22
S'100.0'
p759
sg23
S'Josh Brown'
p760
sg25
S'W20-3'
p761
sg26
S'2010'
p762
sg28
g40
sg29
S'100.0'
p763
sg30
g41
sg31
g40
ssg43
(dp764
g5
S'25'
p765
sg7
g43
sg9
g36
sg10
g38
sg11
S'@TB'
p766
sg12
g38
sg13
g38
sg14
g40
sg15
g40
sg16
g41
sg17
S'67.3'
p767
sg18
g36
sg19
S'26.8'
p768
sg20
S'10/24'
p769
sg22
S'100.0'
p770
sg23
S'Josh Brown'
p771
sg25
S'L17-18'
p772
sg26
S'2010'
p773
sg28
g40
sg29
S'100.0'
p774
sg30
g41
sg31
g40
ssg58
(dp775
g5
S'48'
p776
sg7
g58
sg9
g55
sg10
g41
sg11
S'SD'
p777
sg12
g38
sg13
g41
sg14
g40
sg15
g40
sg16
g41
sg17
S'67.6'
p778
sg18
g55
sg19
S'23.0'
p779
sg20
S'10/17'
p780
sg22
S'100.0'
p781
sg23
S'Josh Brown'
p782
sg25
S'W20-17'
p783
sg26
S'2010'
p784
sg28
g40
sg29
S'100.0'
p785
sg30
g41
sg31
g40
ssg205
(dp786
g5
g6
sg7
g205
sg9
g6
sg10
g6
sg11
g6
sg12
g6
sg13
g6
sg14
g6
sg15
g6
sg16
g6
sg17
g6
sg18
g6
sg19
g6
sg20
S'Bye'
p787
sg22
g6
sg23
S'Josh Brown'
p788
sg25
g6
sg26
S'2010'
p789
sg28
g6
sg29
g6
sg30
g6
sg31
g6
ssg217
(dp790
g5
S'41'
p791
sg7
g217
sg9
g55
sg10
g39
sg11
S'CAR'
p792
sg12
g38
sg13
g41
sg14
g40
sg15
g40
sg16
g41
sg17
S'68.6'
p793
sg18
g55
sg19
S'21.4'
p794
sg20
S'10/31'
p795
sg22
S'100.0'
p796
sg23
S'Josh Brown'
p797
sg25
S'W20-10'
p798
sg26
S'2010'
p799
sg28
g40
sg29
S'66.7'
p800
sg30
g41
sg31
g40
sssS'2013'
p801
(dp802
g3
(dp803
g5
S'40'
p804
sg7
S'11'
p805
sg9
g39
sg10
g41
sg11
S'GB'
p806
sg12
g38
sg13
g41
sg14
g39
sg15
g40
sg16
g39
sg17
S'70.5'
p807
sg18
g58
sg19
S'23.0'
p808
sg20
S'11/17'
p809
sg22
S'100.0'
p810
sg23
S'Josh Brown'
p811
sg25
S'W27-13'
p812
sg26
S'2013'
p813
sg28
g40
sg29
S'100.0'
p814
sg30
g39
sg31
g40
ssg32
(dp815
g5
S'23'
p816
sg7
S'10'
p817
sg9
g41
sg10
g38
sg11
S'OAK'
p818
sg12
g38
sg13
g38
sg14
g39
sg15
g40
sg16
g39
sg17
S'68.6'
p819
sg18
g55
sg19
S'38.5'
p820
sg20
S'11/10'
p821
sg22
S'100.0'
p822
sg23
S'Josh Brown'
p823
sg25
S'W24-20'
p824
sg26
S'2013'
p825
sg28
g40
sg29
S'100.0'
p826
sg30
g39
sg31
g40
ssg51
(dp827
g5
S'39'
p828
sg7
S'13'
p829
sg9
g39
sg10
g38
sg11
S'@WAS'
p830
sg12
g38
sg13
g38
sg14
g41
sg15
g40
sg16
g39
sg17
S'60.4'
p831
sg18
g55
sg19
S'17.7'
p832
sg20
S'12/01'
p833
sg22
S'100.0'
p834
sg23
S'Josh Brown'
p835
sg25
S'W24-17'
p836
sg26
S'2013'
p837
sg28
g40
sg29
S'100.0'
p838
sg30
g39
sg31
g40
ssg66
(dp839
g5
S'23'
p840
sg7
S'12'
p841
sg9
g39
sg10
g41
sg11
S'DAL'
p842
sg12
g38
sg13
g41
sg14
g38
sg15
g40
sg16
g38
sg17
S'55.4'
p843
sg18
g55
sg19
S'21.7'
p844
sg20
S'11/24'
p845
sg22
S'100.0'
p846
sg23
S'Josh Brown'
p847
sg25
S'L21-24'
p848
sg26
S'2013'
p849
sg28
g40
sg29
S'100.0'
p850
sg30
g38
sg31
g40
ssg78
(dp851
g5
S'--'
p852
sg7
S'15'
p853
sg9
g40
sg10
S'--'
p854
sg11
S'SEA'
p855
sg12
g38
sg13
S'--'
p856
sg14
g38
sg15
g40
sg16
S'--'
p857
sg17
S'73.0'
p858
sg18
g38
sg19
S'--'
p859
sg20
S'12/15'
p860
sg22
S'--'
p861
sg23
S'Josh Brown'
p862
sg25
S'L0-23'
p863
sg26
S'2013'
p864
sg28
S'--'
p865
sg29
S'--'
p866
sg30
S'--'
p867
sg31
S'--'
p868
ssg90
(dp869
g5
g40
sg7
S'14'
p870
sg9
g41
sg10
g40
sg11
S'@SD'
p871
sg12
g38
sg13
g40
sg14
g38
sg15
g40
sg16
g41
sg17
S'64.7'
p872
sg18
g39
sg19
S'17.0'
p873
sg20
S'12/08'
p874
sg22
S'100.0'
p875
sg23
S'Josh Brown'
p876
sg25
S'L14-37'
p877
sg26
S'2013'
p878
sg28
g40
sg29
S'--'
p879
sg30
g41
sg31
g40
ssg103
(dp880
g5
S'38'
p881
sg7
S'17'
p882
sg9
g55
sg10
g39
sg11
S'WAS'
p883
sg12
g38
sg13
g41
sg14
g40
sg15
g40
sg16
g41
sg17
S'63.4'
p884
sg18
g55
sg19
S'18.6'
p885
sg20
S'12/29'
p886
sg22
S'100.0'
p887
sg23
S'Josh Brown'
p888
sg25
S'W20-6'
p889
sg26
S'2013'
p890
sg28
g40
sg29
S'66.7'
p891
sg30
g41
sg31
g40
ssg116
(dp892
g5
S'52'
p893
sg7
S'16'
p894
sg9
g39
sg10
g39
sg11
S'@DET'
p895
sg12
g38
sg13
g39
sg14
g41
sg15
g40
sg16
g41
sg17
S'66.8'
p896
sg18
g55
sg19
S'17.0'
p897
sg20
S'12/22'
p898
sg22
S'100.0'
p899
sg23
S'Josh Brown'
p900
sg25
S'W23-20'
p901
sg26
S'2013'
p902
sg28
g40
sg29
S'100.0'
p903
sg30
g41
sg31
g40
ssg38
(dp904
g5
S'20'
p905
sg7
g38
sg9
g40
sg10
g38
sg11
S'@DAL'
p906
sg12
g38
sg13
g38
sg14
g55
sg15
g40
sg16
g36
sg17
S'62.0'
p907
sg18
g58
sg19
S'--'
p908
sg20
S'09/08'
p909
sg22
S'100.0'
p910
sg23
S'Josh Brown'
p911
sg25
S'L31-36'
p912
sg26
S'2013'
p913
sg28
g40
sg29
S'100.0'
p914
sg30
g36
sg31
g40
ssg39
(dp915
g5
g40
sg7
g39
sg9
g40
sg10
g38
sg11
S'@CAR'
p916
sg12
g38
sg13
g40
sg14
g38
sg15
g40
sg16
g40
sg17
S'65.0'
p917
sg18
g38
sg19
S'--'
p918
sg20
S'09/22'
p919
sg22
S'--'
p920
sg23
S'Josh Brown'
p921
sg25
S'L0-38'
p922
sg26
S'2013'
p923
sg28
g40
sg29
S'0.0'
p924
sg30
g40
sg31
g40
ssg41
(dp925
g5
S'41'
p926
sg7
g41
sg9
g41
sg10
g39
sg11
S'DEN'
p927
sg12
g38
sg13
g39
sg14
g39
sg15
g40
sg16
g41
sg17
S'57.5'
p928
sg18
g58
sg19
S'17.0'
p929
sg20
S'09/15'
p930
sg22
S'100.0'
p931
sg23
S'Josh Brown'
p932
sg25
S'L23-41'
p933
sg26
S'2013'
p934
sg28
g40
sg29
S'100.0'
p935
sg30
g41
sg31
g40
ssg55
(dp936
g5
g40
sg7
g55
sg9
g40
sg10
g40
sg11
S'PHI'
p937
sg12
g38
sg13
g40
sg14
g36
sg15
g40
sg16
g39
sg17
S'67.3'
p938
sg18
g36
sg19
S'--'
p939
sg20
S'10/06'
p940
sg22
S'100.0'
p941
sg23
S'Josh Brown'
p942
sg25
S'L21-36'
p943
sg26
S'2013'
p944
sg28
g40
sg29
S'--'
p945
sg30
g39
sg31
g40
ssg36
(dp946
g5
g40
sg7
g36
sg9
g38
sg10
g38
sg11
S'@KC'
p947
sg12
g38
sg13
g40
sg14
g38
sg15
g40
sg16
g38
sg17
S'67.0'
p948
sg18
g41
sg19
S'22.0'
p949
sg20
S'09/29'
p950
sg22
S'100.0'
p951
sg23
S'Josh Brown'
p952
sg25
S'L7-31'
p953
sg26
S'2013'
p954
sg28
g40
sg29
S'0.0'
p955
sg30
g38
sg31
g40
ssg43
(dp956
g5
S'36'
p957
sg7
g43
sg9
g39
sg10
g39
sg11
S'MIN'
p958
sg12
g38
sg13
g39
sg14
g39
sg15
g40
sg16
g41
sg17
S'60.0'
p959
sg18
g58
sg19
S'30.0'
p960
sg20
S'10/21'
p961
sg22
S'100.0'
p962
sg23
S'Josh Brown'
p963
sg25
S'W23-7'
p964
sg26
S'2013'
p965
sg28
g40
sg29
S'100.0'
p966
sg30
g41
sg31
g40
ssg58
(dp967
g5
g40
sg7
g58
sg9
g39
sg10
g40
sg11
S'@CHI'
p968
sg12
g38
sg13
g40
sg14
g38
sg15
g40
sg16
g39
sg17
S'67.5'
p969
sg18
g36
sg19
S'24.3'
p970
sg20
S'10/10'
p971
sg22
S'100.0'
p972
sg23
S'Josh Brown'
p973
sg25
S'L21-27'
p974
sg26
S'2013'
p975
sg28
g40
sg29
S'--'
p976
sg30
g39
sg31
g40
ssg205
(dp977
g5
g6
sg7
g205
sg9
g6
sg10
g6
sg11
g6
sg12
g6
sg13
g6
sg14
g6
sg15
g6
sg16
g6
sg17
g6
sg18
g6
sg19
g6
sg20
S'Bye'
p978
sg22
g6
sg23
S'Josh Brown'
p979
sg25
g6
sg26
S'2013'
p980
sg28
g6
sg29
g6
sg30
g6
sg31
g6
ssg217
(dp981
g5
S'46'
p982
sg7
g217
sg9
g41
sg10
g55
sg11
S'@PHI'
p983
sg12
g38
sg13
g55
sg14
g36
sg15
g40
sg16
g40
sg17
S'66.7'
p984
sg18
g58
sg19
S'28.0'
p985
sg20
S'10/27'
p986
sg22
S'--'
p987
sg23
S'Josh Brown'
p988
sg25
S'W15-7'
p989
sg26
S'2013'
p990
sg28
g40
sg29
S'100.0'
p991
sg30
g40
sg31
g40
sssS'2012'
p992
(dp993
g78
(dp994
g5
S'32'
p995
sg7
S'15'
p996
sg9
g43
sg10
g41
sg11
S'@PHI'
p997
sg12
g38
sg13
g41
sg14
g40
sg15
g40
sg16
g36
sg17
S'62.1'
p998
sg18
g43
sg19
S'18.6'
p999
sg20
S'12/13'
p1000
sg22
S'100.0'
p1001
sg23
S'Josh Brown'
p1002
sg25
S'W34-13'
p1003
sg26
S'2012'
p1004
sg28
g40
sg29
S'100.0'
p1005
sg30
g36
sg31
g40
ssg90
(dp1006
g5
S'52'
p1007
sg7
S'14'
p1008
sg9
g38
sg10
g36
sg11
S'DAL'
p1009
sg12
g38
sg13
g36
sg14
g55
sg15
g40
sg16
g38
sg17
S'70.8'
p1010
sg18
g58
sg19
S'14.0'
p1011
sg20
S'12/09'
p1012
sg22
S'100.0'
p1013
sg23
S'Josh Brown'
p1014
sg25
S'L19-20'
p1015
sg26
S'2012'
p1016
sg28
g40
sg29
S'100.0'
p1017
sg30
g38
sg31
g40
ssg103
(dp1018
g5
S'47'
p1019
sg7
S'17'
p1020
sg9
g58
sg10
g39
sg11
S'BAL'
p1021
sg12
g38
sg13
g39
sg14
g40
sg15
g40
sg16
g41
sg17
S'68.5'
p1022
sg18
g58
sg19
S'23.5'
p1023
sg20
S'12/30'
p1024
sg22
S'100.0'
p1025
sg23
S'Josh Brown'
p1026
sg25
S'W23-17'
p1027
sg26
S'2012'
p1028
sg28
g40
sg29
S'100.0'
p1029
sg30
g41
sg31
g40
ssg116
(dp1030
g5
S'43'
p1031
sg7
S'16'
p1032
sg9
g39
sg10
g39
sg11
S'@PIT'
p1033
sg12
g38
sg13
g41
sg14
g38
sg15
g40
sg16
g38
sg17
S'59.5'
p1034
sg18
g36
sg19
S'22.3'
p1035
sg20
S'12/23'
p1036
sg22
S'100.0'
p1037
sg23
S'Josh Brown'
p1038
sg25
S'W13-10'
p1039
sg26
S'2012'
p1040
sg28
g40
sg29
S'66.7'
p1041
sg30
g38
sg31
g40
sss.