(dp0
S'2015'
p1
(dp2
S'11'
p3
(dp4
S'FGLng'
p5
S'52'
p6
sS'WK'
p7
S'11'
p8
sS'Ret'
p9
S'0'
p10
sS'FGAtt'
p11
S'1'
p12
sS'Opp'
p13
S'KC'
p14
sS'G'
p15
g12
sS'FGM'
p16
g12
sS'TB'
p17
S'2'
p18
sS'GS'
p19
g10
sS'XPM'
p20
g10
sS'KOAvg'
p21
S'65.0'
p22
sS'KO'
p23
g18
sS'RetAvg'
p24
S'--'
p25
sS'Game Date'
p26
S'11/22'
p27
sS'XPPct'
p28
S'--'
p29
sS'Player'
p30
S'Josh Lambo'
p31
sS'Result'
p32
S'L3-33'
p33
sS'Year'
p34
S'2015'
p35
sS'XPBlk'
p36
g10
sS'FGPct'
p37
S'100.0'
p38
sS'XPAtt'
p39
g10
sS'FGBlk'
p40
g10
ssS'10'
p41
(dp42
g5
S''
p43
sg7
S'10'
p44
sg9
g43
sg11
g43
sg13
g43
sg15
g43
sg16
g43
sg17
g43
sg19
g43
sg20
g43
sg21
g43
sg23
g43
sg24
g43
sg26
S'Bye'
p45
sg28
g43
sg30
S'Josh Lambo'
p46
sg32
g43
sg34
S'2015'
p47
sg36
g43
sg37
g43
sg39
g43
sg40
g43
ssS'13'
p48
(dp49
g5
S'51'
p50
sg7
S'13'
p51
sg9
g12
sg11
g18
sg13
S'DEN'
p52
sg15
g12
sg16
g12
sg17
g12
sg19
g10
sg20
g10
sg21
S'69.5'
p53
sg23
g18
sg24
S'33.0'
p54
sg26
S'12/06'
p55
sg28
S'--'
p56
sg30
S'Josh Lambo'
p57
sg32
S'L3-17'
p58
sg34
S'2015'
p59
sg36
g10
sg37
S'50.0'
p60
sg39
g10
sg40
g10
ssS'12'
p61
(dp62
g5
S'28'
p63
sg7
S'12'
p64
sg9
g10
sg11
g12
sg13
S'@JAC'
p65
sg15
g12
sg16
g12
sg17
S'6'
p66
sg19
g10
sg20
S'4'
p67
sg21
S'65.0'
p68
sg23
g66
sg24
S'--'
p69
sg26
S'11/29'
p70
sg28
S'100.0'
p71
sg30
S'Josh Lambo'
p72
sg32
S'W31-25'
p73
sg34
S'2015'
p74
sg36
g10
sg37
S'100.0'
p75
sg39
g67
sg40
g10
ssS'15'
p76
(dp77
g5
S'28'
p78
sg7
S'15'
p79
sg9
g67
sg11
g18
sg13
S'MIA'
p80
sg15
g12
sg16
g12
sg17
g18
sg19
g10
sg20
S'3'
p81
sg21
S'67.2'
p82
sg23
g66
sg24
S'23.0'
p83
sg26
S'12/20'
p84
sg28
S'75.0'
p85
sg30
S'Josh Lambo'
p86
sg32
S'W30-14'
p87
sg34
S'2015'
p88
sg36
g10
sg37
S'50.0'
p89
sg39
g67
sg40
g10
ssS'14'
p90
(dp91
g5
S'30'
p92
sg7
S'14'
p93
sg9
g12
sg11
g18
sg13
S'@KC'
p94
sg15
g12
sg16
g12
sg17
g12
sg19
g10
sg20
g10
sg21
S'66.0'
p95
sg23
g18
sg24
S'24.0'
p96
sg26
S'12/13'
p97
sg28
S'--'
p98
sg30
S'Josh Lambo'
p99
sg32
S'L3-10'
p100
sg34
S'2015'
p101
sg36
g10
sg37
S'50.0'
p102
sg39
g10
sg40
g10
ssS'17'
p103
(dp104
g5
S'50'
p105
sg7
S'17'
p106
sg9
g10
sg11
g18
sg13
S'@DEN'
p107
sg15
g12
sg16
g18
sg17
S'5'
p108
sg19
g10
sg20
g18
sg21
S'65.0'
p109
sg23
g108
sg24
S'--'
p110
sg26
S'01/03'
p111
sg28
S'100.0'
p112
sg30
S'Josh Lambo'
p113
sg32
S'L20-27'
p114
sg34
S'2015'
p115
sg36
g10
sg37
S'100.0'
p116
sg39
g18
sg40
g10
ssS'16'
p117
(dp118
g5
S'47'
p119
sg7
S'16'
p120
sg9
g108
sg11
g81
sg13
S'@OAK'
p121
sg15
g12
sg16
g18
sg17
g12
sg19
g10
sg20
g18
sg21
S'65.7'
p122
sg23
g66
sg24
S'28.4'
p123
sg26
S'12/24'
p124
sg28
S'100.0'
p125
sg30
S'Josh Lambo'
p126
sg32
S'L20-23'
p127
sg34
S'2015'
p128
sg36
g10
sg37
S'66.7'
p129
sg39
g18
sg40
g10
ssg12
(dp130
g5
S'32'
p131
sg7
g12
sg9
g81
sg11
g18
sg13
S'DET'
p132
sg15
g12
sg16
g18
sg17
g67
sg19
g10
sg20
g81
sg21
S'67.7'
p133
sg23
S'7'
p134
sg24
S'35.0'
p135
sg26
S'09/13'
p136
sg28
S'75.0'
p137
sg30
S'Josh Lambo'
p138
sg32
S'W33-28'
p139
sg34
S'2015'
p140
sg36
g10
sg37
S'100.0'
p141
sg39
g67
sg40
g10
ssg81
(dp142
g5
g10
sg7
g81
sg9
g18
sg11
g10
sg13
S'@MIN'
p143
sg15
g12
sg16
g10
sg17
g12
sg19
g10
sg20
g18
sg21
S'66.3'
p144
sg23
g81
sg24
S'26.5'
p145
sg26
S'09/27'
p146
sg28
S'100.0'
p147
sg30
S'Josh Lambo'
p148
sg32
S'L14-31'
p149
sg34
S'2015'
p150
sg36
g10
sg37
S'--'
p151
sg39
g18
sg40
g10
ssg18
(dp152
g5
S'40'
p153
sg7
g18
sg9
g81
sg11
g81
sg13
S'@CIN'
p154
sg15
g12
sg16
g18
sg17
g18
sg19
g10
sg20
g12
sg21
S'66.8'
p155
sg23
g108
sg24
S'24.7'
p156
sg26
S'09/20'
p157
sg28
S'100.0'
p158
sg30
S'Josh Lambo'
p159
sg32
S'L19-24'
p160
sg34
S'2015'
p161
sg36
g10
sg37
S'66.7'
p162
sg39
g12
sg40
g10
ssg108
(dp163
g5
S'54'
p164
sg7
g108
sg9
g18
sg11
g81
sg13
S'PIT'
p165
sg15
g12
sg16
g18
sg17
g81
sg19
g10
sg20
g18
sg21
S'67.2'
p166
sg23
g108
sg24
S'31.0'
p167
sg26
S'10/12'
p168
sg28
S'100.0'
p169
sg30
S'Josh Lambo'
p170
sg32
S'L20-24'
p171
sg34
S'2015'
p172
sg36
g10
sg37
S'66.7'
p173
sg39
g18
sg40
g10
ssg67
(dp174
g5
S'46'
p175
sg7
g67
sg9
g81
sg11
g81
sg13
S'CLE'
p176
sg15
g12
sg16
g81
sg17
g81
sg19
g10
sg20
g81
sg21
S'67.0'
p177
sg23
g66
sg24
S'36.7'
p178
sg26
S'10/04'
p179
sg28
S'100.0'
p180
sg30
S'Josh Lambo'
p181
sg32
S'W30-27'
p182
sg34
S'2015'
p183
sg36
g10
sg37
S'100.0'
p184
sg39
g81
sg40
g10
ssg134
(dp185
g5
S'44'
p186
sg7
g134
sg9
g12
sg11
g18
sg13
S'OAK'
p187
sg15
g12
sg16
g18
sg17
g12
sg19
g10
sg20
g12
sg21
S'34.8'
p188
sg23
g108
sg24
S'32.0'
p189
sg26
S'10/25'
p190
sg28
S'100.0'
p191
sg30
S'Josh Lambo'
p192
sg32
S'L29-37'
p193
sg34
S'2015'
p194
sg36
g10
sg37
S'100.0'
p195
sg39
g12
sg40
g10
ssg66
(dp196
g5
S'36'
p197
sg7
g66
sg9
g81
sg11
g18
sg13
S'@GB'
p198
sg15
g12
sg16
g18
sg17
g12
sg19
g10
sg20
g18
sg21
S'60.0'
p199
sg23
g67
sg24
S'19.7'
p200
sg26
S'10/18'
p201
sg28
S'100.0'
p202
sg30
S'Josh Lambo'
p203
sg32
S'L20-27'
p204
sg34
S'2015'
p205
sg36
g10
sg37
S'100.0'
p206
sg39
g18
sg40
g10
ssS'9'
p207
(dp208
g5
S'31'
p209
sg7
g207
sg9
g18
sg11
g18
sg13
S'CHI'
p210
sg15
g12
sg16
g18
sg17
g81
sg19
g10
sg20
g12
sg21
S'62.6'
p211
sg23
g108
sg24
S'23.0'
p212
sg26
S'11/09'
p213
sg28
S'50.0'
p214
sg30
S'Josh Lambo'
p215
sg32
S'L19-22'
p216
sg34
S'2015'
p217
sg36
g10
sg37
S'100.0'
p218
sg39
g18
sg40
g10
ssS'8'
p219
(dp220
g5
S'49'
p221
sg7
g219
sg9
g12
sg11
g18
sg13
S'@BAL'
p222
sg15
g12
sg16
g18
sg17
g108
sg19
g10
sg20
g18
sg21
S'66.3'
p223
sg23
g66
sg24
S'33.0'
p224
sg26
S'11/01'
p225
sg28
S'66.7'
p226
sg30
S'Josh Lambo'
p227
sg32
S'L26-29'
p228
sg34
S'2015'
p229
sg36
g12
sg37
S'100.0'
p230
sg39
g81
sg40
g10
sss.