(dp0
S'2015'
p1
(dp2
S'11'
p3
(dp4
S'FGLng'
p5
S'47'
p6
sS'WK'
p7
S'11'
p8
sS'Ret'
p9
S'0'
p10
sS'FGAtt'
p11
S'5'
p12
sS'Opp'
p13
S'STL'
p14
sS'G'
p15
S'1'
p16
sS'FGM'
p17
S'3'
p18
sS'TB'
p19
g18
sS'GS'
p20
g10
sS'XPM'
p21
g16
sS'KOAvg'
p22
S'65.0'
p23
sS'KO'
p24
g18
sS'RetAvg'
p25
S'--'
p26
sS'Game Date'
p27
S'11/22'
p28
sS'XPPct'
p29
S'100.0'
p30
sS'Player'
p31
S'Justin Tucker'
p32
sS'Result'
p33
S'W16-13'
p34
sS'Year'
p35
S'2015'
p36
sS'XPBlk'
p37
g10
sS'FGPct'
p38
S'60.0'
p39
sS'XPAtt'
p40
g16
sS'FGBlk'
p41
g10
ssS'10'
p42
(dp43
g5
g10
sg7
S'10'
p44
sg9
g10
sg11
g16
sg13
S'JAC'
p45
sg15
g16
sg17
g10
sg19
S'4'
p46
sg20
g10
sg21
S'2'
p47
sg22
S'65.0'
p48
sg24
g46
sg25
S'--'
p49
sg27
S'11/15'
p50
sg29
S'100.0'
p51
sg31
S'Justin Tucker'
p52
sg33
S'L20-22'
p53
sg35
S'2015'
p54
sg37
g10
sg38
S'0.0'
p55
sg40
g47
sg41
g10
ssS'13'
p56
(dp57
g5
S'38'
p58
sg7
S'13'
p59
sg9
g47
sg11
g18
sg13
S'@MIA'
p60
sg15
g16
sg17
g47
sg19
g47
sg20
g10
sg21
g16
sg22
S'66.5'
p61
sg24
g46
sg25
S'21.0'
p62
sg27
S'12/06'
p63
sg29
S'100.0'
p64
sg31
S'Justin Tucker'
p65
sg33
S'L13-15'
p66
sg35
S'2015'
p67
sg37
g10
sg38
S'66.7'
p68
sg40
g16
sg41
g10
ssS'12'
p69
(dp70
g5
S'49'
p71
sg7
S'12'
p72
sg9
g47
sg11
g47
sg13
S'@CLE'
p73
sg15
g16
sg17
g47
sg19
g46
sg20
g10
sg21
g18
sg22
S'67.2'
p74
sg24
S'6'
p75
sg25
S'39.0'
p76
sg27
S'11/30'
p77
sg29
S'100.0'
p78
sg31
S'Justin Tucker'
p79
sg33
S'W33-27'
p80
sg35
S'2015'
p81
sg37
g10
sg38
S'100.0'
p82
sg40
g18
sg41
g10
ssS'15'
p83
(dp84
g5
g10
sg7
S'15'
p85
sg9
g16
sg11
g10
sg13
S'KC'
p86
sg15
g16
sg17
g10
sg19
g16
sg20
g10
sg21
g47
sg22
S'69.0'
p87
sg24
g47
sg25
S'19.0'
p88
sg27
S'12/20'
p89
sg29
S'100.0'
p90
sg31
S'Justin Tucker'
p91
sg33
S'L14-34'
p92
sg35
S'2015'
p93
sg37
g10
sg38
S'--'
p94
sg40
g47
sg41
g10
ssS'14'
p95
(dp96
g5
S'30'
p97
sg7
S'14'
p98
sg9
g10
sg11
g47
sg13
S'SEA'
p99
sg15
g16
sg17
g47
sg19
g47
sg20
g10
sg21
g10
sg22
S'65.0'
p100
sg24
g47
sg25
S'--'
p101
sg27
S'12/13'
p102
sg29
S'--'
p103
sg31
S'Justin Tucker'
p104
sg33
S'L6-35'
p105
sg35
S'2015'
p106
sg37
g10
sg38
S'100.0'
p107
sg40
g10
sg41
g10
ssS'17'
p108
(dp109
g5
S'50'
p110
sg7
S'17'
p111
sg9
g16
sg11
g18
sg13
S'@CIN'
p112
sg15
g16
sg17
g18
sg19
g47
sg20
g10
sg21
g16
sg22
S'50.0'
p113
sg24
g46
sg25
S'12.0'
p114
sg27
S'01/03'
p115
sg29
S'100.0'
p116
sg31
S'Justin Tucker'
p117
sg33
S'L16-24'
p118
sg35
S'2015'
p119
sg37
g10
sg38
S'100.0'
p120
sg40
g16
sg41
g10
ssS'16'
p121
(dp122
g5
S'50'
p123
sg7
S'16'
p124
sg9
g10
sg11
g47
sg13
S'PIT'
p125
sg15
g16
sg17
g47
sg19
g12
sg20
g10
sg21
g47
sg22
S'65.0'
p126
sg24
g12
sg25
S'--'
p127
sg27
S'12/27'
p128
sg29
S'100.0'
p129
sg31
S'Justin Tucker'
p130
sg33
S'W20-17'
p131
sg35
S'2015'
p132
sg37
g10
sg38
S'100.0'
p133
sg40
g47
sg41
g10
ssg16
(dp134
g5
S'52'
p135
sg7
g16
sg9
g10
sg11
g47
sg13
S'@DEN'
p136
sg15
g16
sg17
g47
sg19
g46
sg20
g10
sg21
g16
sg22
S'65.0'
p137
sg24
g46
sg25
S'--'
p138
sg27
S'09/13'
p139
sg29
S'100.0'
p140
sg31
S'Justin Tucker'
p141
sg33
S'L13-19'
p142
sg35
S'2015'
p143
sg37
g10
sg38
S'100.0'
p144
sg40
g16
sg41
g10
ssg18
(dp145
g5
S'21'
p146
sg7
g18
sg9
g16
sg11
g47
sg13
S'CIN'
p147
sg15
g16
sg17
g16
sg19
g46
sg20
g10
sg21
g18
sg22
S'65.6'
p148
sg24
g12
sg25
S'32.0'
p149
sg27
S'09/27'
p150
sg29
S'100.0'
p151
sg31
S'Justin Tucker'
p152
sg33
S'L24-28'
p153
sg35
S'2015'
p154
sg37
g10
sg38
S'50.0'
p155
sg40
g18
sg41
g10
ssg47
(dp156
g5
S'37'
p157
sg7
g47
sg9
g10
sg11
g46
sg13
S'@OAK'
p158
sg15
g16
sg17
g46
sg19
S'7'
p159
sg20
g10
sg21
g18
sg22
S'62.9'
p160
sg24
g159
sg25
S'--'
p161
sg27
S'09/20'
p162
sg29
S'100.0'
p163
sg31
S'Justin Tucker'
p164
sg33
S'L33-37'
p165
sg35
S'2015'
p166
sg37
g10
sg38
S'100.0'
p167
sg40
g18
sg41
g10
ssg12
(dp168
g5
S'23'
p169
sg7
g12
sg9
g16
sg11
g47
sg13
S'CLE'
p170
sg15
g16
sg17
g16
sg19
g12
sg20
g10
sg21
g18
sg22
S'65.5'
p171
sg24
g75
sg25
S'15.0'
p172
sg27
S'10/11'
p173
sg29
S'100.0'
p174
sg31
S'Justin Tucker'
p175
sg33
S'L30-33'
p176
sg35
S'2015'
p177
sg37
g10
sg38
S'50.0'
p178
sg40
g18
sg41
g10
ssg46
(dp179
g5
S'52'
p180
sg7
g46
sg9
g16
sg11
g18
sg13
S'@PIT'
p181
sg15
g16
sg17
g18
sg19
g12
sg20
g10
sg21
g47
sg22
S'65.0'
p182
sg24
g75
sg25
S'31.0'
p183
sg27
S'10/01'
p184
sg29
S'100.0'
p185
sg31
S'Justin Tucker'
p186
sg33
S'W23-20'
p187
sg35
S'2015'
p188
sg37
g10
sg38
S'100.0'
p189
sg40
g47
sg41
g10
ssg159
(dp190
g5
S'44'
p191
sg7
g159
sg9
g10
sg11
g16
sg13
S'@ARI'
p192
sg15
g16
sg17
g16
sg19
g18
sg20
g10
sg21
g16
sg22
S'61.3'
p193
sg24
g46
sg25
S'--'
p194
sg27
S'10/26'
p195
sg29
S'100.0'
p196
sg31
S'Justin Tucker'
p197
sg33
S'L18-26'
p198
sg35
S'2015'
p199
sg37
g10
sg38
S'100.0'
p200
sg40
g16
sg41
g10
ssg75
(dp201
g5
S'36'
p202
sg7
g75
sg9
g10
sg11
g18
sg13
S'@SF'
p203
sg15
g16
sg17
g47
sg19
g12
sg20
g10
sg21
g47
sg22
S'65.0'
p204
sg24
g12
sg25
S'--'
p205
sg27
S'10/18'
p206
sg29
S'100.0'
p207
sg31
S'Justin Tucker'
p208
sg33
S'L20-25'
p209
sg35
S'2015'
p210
sg37
g10
sg38
S'66.7'
p211
sg40
g47
sg41
g10
ssS'9'
p212
(dp213
g5
S''
p214
sg7
g212
sg9
g214
sg11
g214
sg13
g214
sg15
g214
sg17
g214
sg19
g214
sg20
g214
sg21
g214
sg22
g214
sg24
g214
sg25
g214
sg27
S'Bye'
p215
sg29
g214
sg31
S'Justin Tucker'
p216
sg33
g214
sg35
S'2015'
p217
sg37
g214
sg38
g214
sg40
g214
sg41
g214
ssS'8'
p218
(dp219
g5
S'48'
p220
sg7
g218
sg9
g10
sg11
g12
sg13
S'SD'
p221
sg15
g16
sg17
g12
sg19
g159
sg20
g10
sg21
g47
sg22
S'65.0'
p222
sg24
g159
sg25
S'--'
p223
sg27
S'11/01'
p224
sg29
S'100.0'
p225
sg31
S'Justin Tucker'
p226
sg33
S'W29-26'
p227
sg35
S'2015'
p228
sg37
g10
sg38
S'100.0'
p229
sg40
g47
sg41
g10
sssS'2014'
p230
(dp231
g3
(dp232
g5
g214
sg7
S'11'
p233
sg9
g214
sg11
g214
sg13
g214
sg15
g214
sg17
g214
sg19
g214
sg20
g214
sg21
g214
sg22
g214
sg24
g214
sg25
g214
sg27
S'Bye'
p234
sg29
g214
sg31
S'Justin Tucker'
p235
sg33
g214
sg35
S'2014'
p236
sg37
g214
sg38
g214
sg40
g214
sg41
g214
ssg42
(dp237
g5
g10
sg7
S'10'
p238
sg9
g47
sg11
g10
sg13
S'TEN'
p239
sg15
g16
sg17
g10
sg19
g47
sg20
g10
sg21
g18
sg22
S'66.0'
p240
sg24
g46
sg25
S'21.5'
p241
sg27
S'11/09'
p242
sg29
S'100.0'
p243
sg31
S'Justin Tucker'
p244
sg33
S'W21-7'
p245
sg35
S'2014'
p246
sg37
g10
sg38
S'--'
p247
sg40
g18
sg41
g10
ssg56
(dp248
g5
S'33'
p249
sg7
S'13'
p250
sg9
g47
sg11
g46
sg13
S'SD'
p251
sg15
g16
sg17
g46
sg19
g75
sg20
g10
sg21
g18
sg22
S'66.3'
p252
sg24
g218
sg25
S'24.0'
p253
sg27
S'11/30'
p254
sg29
S'100.0'
p255
sg31
S'Justin Tucker'
p256
sg33
S'L33-34'
p257
sg35
S'2014'
p258
sg37
g10
sg38
S'100.0'
p259
sg40
g18
sg41
g10
ssg69
(dp260
g5
S'55'
p261
sg7
S'12'
p262
sg9
g16
sg11
g47
sg13
S'@NO'
p263
sg15
g16
sg17
g47
sg19
g75
sg20
g10
sg21
g46
sg22
S'65.0'
p264
sg24
g159
sg25
S'20.0'
p265
sg27
S'11/24'
p266
sg29
S'100.0'
p267
sg31
S'Justin Tucker'
p268
sg33
S'W34-27'
p269
sg35
S'2014'
p270
sg37
g10
sg38
S'100.0'
p271
sg40
g46
sg41
g10
ssg83
(dp272
g5
S'33'
p273
sg7
S'15'
p274
sg9
g18
sg11
g46
sg13
S'JAC'
p275
sg15
g16
sg17
g47
sg19
g47
sg20
g10
sg21
g47
sg22
S'63.0'
p276
sg24
g12
sg25
S'16.7'
p277
sg27
S'12/14'
p278
sg29
S'100.0'
p279
sg31
S'Justin Tucker'
p280
sg33
S'W20-12'
p281
sg35
S'2014'
p282
sg37
g10
sg38
S'50.0'
p283
sg40
g47
sg41
g10
ssg95
(dp284
g5
g10
sg7
S'14'
p285
sg9
g47
sg11
g10
sg13
S'@MIA'
p286
sg15
g16
sg17
g10
sg19
g18
sg20
g10
sg21
g46
sg22
S'68.2'
p287
sg24
g12
sg25
S'30.5'
p288
sg27
S'12/07'
p289
sg29
S'100.0'
p290
sg31
S'Justin Tucker'
p291
sg33
S'W28-13'
p292
sg35
S'2014'
p293
sg37
g10
sg38
S'--'
p294
sg40
g46
sg41
g10
ssg108
(dp295
g5
S'28'
p296
sg7
S'17'
p297
sg9
g47
sg11
g47
sg13
S'CLE'
p298
sg15
g16
sg17
g47
sg19
g18
sg20
g10
sg21
g47
sg22
S'67.4'
p299
sg24
g12
sg25
S'20.0'
p300
sg27
S'12/28'
p301
sg29
S'100.0'
p302
sg31
S'Justin Tucker'
p303
sg33
S'W20-10'
p304
sg35
S'2014'
p305
sg37
g10
sg38
S'100.0'
p306
sg40
g47
sg41
g10
ssg121
(dp307
g5
g10
sg7
S'16'
p308
sg9
g10
sg11
g10
sg13
S'@HOU'
p309
sg15
g16
sg17
g10
sg19
g47
sg20
g10
sg21
g16
sg22
S'47.3'
p310
sg24
g18
sg25
S'--'
p311
sg27
S'12/21'
p312
sg29
S'100.0'
p313
sg31
S'Justin Tucker'
p314
sg33
S'L13-25'
p315
sg35
S'2014'
p316
sg37
g10
sg38
S'--'
p317
sg40
g16
sg41
g10
ssg16
(dp318
g5
S'38'
p319
sg7
g16
sg9
g10
sg11
g47
sg13
S'CIN'
p320
sg15
g16
sg17
g16
sg19
g46
sg20
g10
sg21
g16
sg22
S'65.0'
p321
sg24
g46
sg25
S'--'
p322
sg27
S'09/07'
p323
sg29
S'100.0'
p324
sg31
S'Justin Tucker'
p325
sg33
S'L16-23'
p326
sg35
S'2014'
p327
sg37
g10
sg38
S'50.0'
p328
sg40
g16
sg41
g10
ssg18
(dp329
g5
S'38'
p330
sg7
g18
sg9
g16
sg11
g18
sg13
S'@CLE'
p331
sg15
g16
sg17
g18
sg19
g46
sg20
g10
sg21
g47
sg22
S'66.0'
p332
sg24
g12
sg25
S'31.0'
p333
sg27
S'09/21'
p334
sg29
S'100.0'
p335
sg31
S'Justin Tucker'
p336
sg33
S'W23-21'
p337
sg35
S'2014'
p338
sg37
g10
sg38
S'100.0'
p339
sg40
g47
sg41
g10
ssg47
(dp340
g5
S'30'
p341
sg7
g47
sg9
g16
sg11
g46
sg13
S'PIT'
p342
sg15
g16
sg17
g46
sg19
g75
sg20
g10
sg21
g47
sg22
S'64.6'
p343
sg24
g159
sg25
S'11.0'
p344
sg27
S'09/11'
p345
sg29
S'100.0'
p346
sg31
S'Justin Tucker'
p347
sg33
S'W26-6'
p348
sg35
S'2014'
p349
sg37
g10
sg38
S'100.0'
p350
sg40
g47
sg41
g10
ssg12
(dp351
g5
S'52'
p352
sg7
g12
sg9
g16
sg11
g47
sg13
S'@IND'
p353
sg15
g16
sg17
g47
sg19
g47
sg20
g10
sg21
g16
sg22
S'68.0'
p354
sg24
g18
sg25
S'25.0'
p355
sg27
S'10/05'
p356
sg29
S'100.0'
p357
sg31
S'Justin Tucker'
p358
sg33
S'L13-20'
p359
sg35
S'2014'
p360
sg37
g10
sg38
S'100.0'
p361
sg40
g16
sg41
g10
ssg46
(dp362
g5
S'30'
p363
sg7
g46
sg9
g16
sg11
g47
sg13
S'CAR'
p364
sg15
g16
sg17
g16
sg19
g75
sg20
g10
sg21
g12
sg22
S'65.9'
p365
sg24
g159
sg25
S'23.0'
p366
sg27
S'09/28'
p367
sg29
S'100.0'
p368
sg31
S'Justin Tucker'
p369
sg33
S'W38-10'
p370
sg35
S'2014'
p371
sg37
g10
sg38
S'50.0'
p372
sg40
g12
sg41
g10
ssg159
(dp373
g5
S'38'
p374
sg7
g159
sg9
g18
sg11
g47
sg13
S'ATL'
p375
sg15
g16
sg17
g47
sg19
g47
sg20
g10
sg21
g18
sg22
S'65.6'
p376
sg24
g12
sg25
S'18.3'
p377
sg27
S'10/19'
p378
sg29
S'100.0'
p379
sg31
S'Justin Tucker'
p380
sg33
S'W29-7'
p381
sg35
S'2014'
p382
sg37
g10
sg38
S'100.0'
p383
sg40
g18
sg41
g10
ssg75
(dp384
g5
S'49'
p385
sg7
g75
sg9
g18
sg11
g18
sg13
S'@TB'
p386
sg15
g16
sg17
g47
sg19
g75
sg20
g10
sg21
g75
sg22
S'66.8'
p387
sg24
g212
sg25
S'24.0'
p388
sg27
S'10/12'
p389
sg29
S'100.0'
p390
sg31
S'Justin Tucker'
p391
sg33
S'W48-17'
p392
sg35
S'2014'
p393
sg37
g10
sg38
S'66.7'
p394
sg40
g75
sg41
g16
ssg212
(dp395
g5
S'46'
p396
sg7
g212
sg9
g16
sg11
g16
sg13
S'@PIT'
p397
sg15
g16
sg17
g16
sg19
g18
sg20
g10
sg21
g47
sg22
S'53.2'
p398
sg24
g12
sg25
S'29.0'
p399
sg27
S'11/02'
p400
sg29
S'100.0'
p401
sg31
S'Justin Tucker'
p402
sg33
S'L23-43'
p403
sg35
S'2014'
p404
sg37
g10
sg38
S'100.0'
p405
sg40
g47
sg41
g10
ssg218
(dp406
g5
S'53'
p407
sg7
g218
sg9
g18
sg11
g18
sg13
S'@CIN'
p408
sg15
g16
sg17
g18
sg19
g18
sg20
g10
sg21
g16
sg22
S'69.3'
p409
sg24
g75
sg25
S'31.0'
p410
sg27
S'10/26'
p411
sg29
S'100.0'
p412
sg31
S'Justin Tucker'
p413
sg33
S'L24-27'
p414
sg35
S'2014'
p415
sg37
g10
sg38
S'100.0'
p416
sg40
g16
sg41
g10
sssS'2013'
p417
(dp418
g3
(dp419
g5
S'52'
p420
sg7
S'11'
p421
sg9
g18
sg11
g47
sg13
S'@CHI'
p422
sg15
g16
sg17
g47
sg19
g47
sg20
g10
sg21
g47
sg22
S'55.8'
p423
sg24
g12
sg25
S'10.7'
p424
sg27
S'11/17'
p425
sg29
S'100.0'
p426
sg31
S'Justin Tucker'
p427
sg33
S'L20-23'
p428
sg35
S'2013'
p429
sg37
g10
sg38
S'100.0'
p430
sg40
g47
sg41
g10
ssg42
(dp431
g5
S'46'
p432
sg7
S'10'
p433
sg9
g47
sg11
g47
sg13
S'CIN'
p434
sg15
g16
sg17
g47
sg19
g18
sg20
g10
sg21
g47
sg22
S'69.0'
p435
sg24
g12
sg25
S'25.0'
p436
sg27
S'11/10'
p437
sg29
S'100.0'
p438
sg31
S'Justin Tucker'
p439
sg33
S'W20-17'
p440
sg35
S'2013'
p441
sg37
g10
sg38
S'100.0'
p442
sg40
g47
sg41
g10
ssg56
(dp443
g5
S'48'
p444
sg7
S'13'
p445
sg9
g46
sg11
g12
sg13
S'PIT'
p446
sg15
g16
sg17
g12
sg19
g47
sg20
g10
sg21
g16
sg22
S'60.9'
p447
sg24
g159
sg25
S'25.5'
p448
sg27
S'11/28'
p449
sg29
S'100.0'
p450
sg31
S'Justin Tucker'
p451
sg33
S'W22-20'
p452
sg35
S'2013'
p453
sg37
g10
sg38
S'100.0'
p454
sg40
g16
sg41
g10
ssg69
(dp455
g5
S'53'
p456
sg7
S'12'
p457
sg9
g12
sg11
g46
sg13
S'NYJ'
p458
sg15
g16
sg17
g46
sg19
g16
sg20
g10
sg21
g16
sg22
S'63.0'
p459
sg24
g75
sg25
S'20.4'
p460
sg27
S'11/24'
p461
sg29
S'100.0'
p462
sg31
S'Justin Tucker'
p463
sg33
S'W19-3'
p464
sg35
S'2013'
p465
sg37
g10
sg38
S'100.0'
p466
sg40
g16
sg41
g10
ssg83
(dp467
g5
S'61'
p468
sg7
S'15'
p469
sg9
g47
sg11
g75
sg13
S'@DET'
p470
sg15
g16
sg17
g75
sg19
g46
sg20
g10
sg21
g10
sg22
S'64.2'
p471
sg24
g75
sg25
S'19.0'
p472
sg27
S'12/16'
p473
sg29
S'--'
p474
sg31
S'Justin Tucker'
p475
sg33
S'W18-16'
p476
sg35
S'2013'
p477
sg37
g10
sg38
S'100.0'
p478
sg40
g10
sg41
g10
ssg95
(dp479
g5
g10
sg7
S'14'
p480
sg9
g12
sg11
g10
sg13
S'MIN'
p481
sg15
g16
sg17
g10
sg19
g10
sg20
g10
sg21
g18
sg22
S'58.2'
p482
sg24
g12
sg25
S'26.2'
p483
sg27
S'12/08'
p484
sg29
S'100.0'
p485
sg31
S'Justin Tucker'
p486
sg33
S'W29-26'
p487
sg35
S'2013'
p488
sg37
g10
sg38
S'--'
p489
sg40
g18
sg41
g10
ssg108
(dp490
g5
S'38'
p491
sg7
S'17'
p492
sg9
g46
sg11
g18
sg13
S'@CIN'
p493
sg15
g16
sg17
g18
sg19
g16
sg20
g10
sg21
g10
sg22
S'67.2'
p494
sg24
g12
sg25
S'26.3'
p495
sg27
S'12/29'
p496
sg29
S'--'
p497
sg31
S'Justin Tucker'
p498
sg33
S'L17-34'
p499
sg35
S'2013'
p500
sg37
g10
sg38
S'100.0'
p501
sg40
g10
sg41
g10
ssg121
(dp502
g5
g10
sg7
S'16'
p503
sg9
g16
sg11
g16
sg13
S'NE'
p504
sg15
g16
sg17
g10
sg19
g16
sg20
g10
sg21
g16
sg22
S'69.5'
p505
sg24
g47
sg25
S'22.0'
p506
sg27
S'12/22'
p507
sg29
S'100.0'
p508
sg31
S'Justin Tucker'
p509
sg33
S'L7-41'
p510
sg35
S'2013'
p511
sg37
g10
sg38
S'0.0'
p512
sg40
g16
sg41
g10
ssg16
(dp513
g5
S'30'
p514
sg7
g16
sg9
g10
sg11
g47
sg13
S'@DEN'
p515
sg15
g16
sg17
g47
sg19
g75
sg20
g10
sg21
g18
sg22
S'65.0'
p516
sg24
g75
sg25
S'--'
p517
sg27
S'09/05'
p518
sg29
S'100.0'
p519
sg31
S'Justin Tucker'
p520
sg33
S'L27-49'
p521
sg35
S'2013'
p522
sg37
g10
sg38
S'100.0'
p523
sg40
g18
sg41
g10
ssg18
(dp524
g5
S'45'
p525
sg7
g18
sg9
g47
sg11
g18
sg13
S'HOU'
p526
sg15
g16
sg17
g18
sg19
g12
sg20
g10
sg21
g18
sg22
S'71.4'
p527
sg24
g159
sg25
S'27.5'
p528
sg27
S'09/22'
p529
sg29
S'100.0'
p530
sg31
S'Justin Tucker'
p531
sg33
S'W30-9'
p532
sg35
S'2013'
p533
sg37
g10
sg38
S'100.0'
p534
sg40
g18
sg41
g10
ssg47
(dp535
g5
g10
sg7
g47
sg9
g47
sg11
g47
sg13
S'CLE'
p536
sg15
g16
sg17
g10
sg19
g16
sg20
g10
sg21
g47
sg22
S'66.7'
p537
sg24
g18
sg25
S'22.0'
p538
sg27
S'09/15'
p539
sg29
S'100.0'
p540
sg31
S'Justin Tucker'
p541
sg33
S'W14-6'
p542
sg35
S'2013'
p543
sg37
g10
sg38
S'0.0'
p544
sg40
g47
sg41
g10
ssg12
(dp545
g5
S'50'
p546
sg7
g12
sg9
g47
sg11
g46
sg13
S'@MIA'
p547
sg15
g16
sg17
g46
sg19
g12
sg20
g10
sg21
g47
sg22
S'65.4'
p548
sg24
g159
sg25
S'24.5'
p549
sg27
S'10/06'
p550
sg29
S'100.0'
p551
sg31
S'Justin Tucker'
p552
sg33
S'W26-23'
p553
sg35
S'2013'
p554
sg37
g10
sg38
S'100.0'
p555
sg40
g47
sg41
g10
ssg46
(dp556
g5
S'35'
p557
sg7
g46
sg9
g10
sg11
g47
sg13
S'@BUF'
p558
sg15
g16
sg17
g47
sg19
g12
sg20
g10
sg21
g47
sg22
S'66.6'
p559
sg24
g12
sg25
S'--'
p560
sg27
S'09/29'
p561
sg29
S'100.0'
p562
sg31
S'Justin Tucker'
p563
sg33
S'L20-23'
p564
sg35
S'2013'
p565
sg37
g10
sg38
S'100.0'
p566
sg40
g47
sg41
g10
ssg159
(dp567
g5
S'46'
p568
sg7
g159
sg9
g18
sg11
g18
sg13
S'@PIT'
p569
sg15
g16
sg17
g18
sg19
g16
sg20
g10
sg21
g16
sg22
S'49.6'
p570
sg24
g12
sg25
S'32.3'
p571
sg27
S'10/20'
p572
sg29
S'100.0'
p573
sg31
S'Justin Tucker'
p574
sg33
S'L16-19'
p575
sg35
S'2013'
p576
sg37
g10
sg38
S'100.0'
p577
sg40
g16
sg41
g10
ssg75
(dp578
g5
S'23'
p579
sg7
g75
sg9
g16
sg11
g16
sg13
S'GB'
p580
sg15
g16
sg17
g16
sg19
g18
sg20
g10
sg21
g47
sg22
S'65.8'
p581
sg24
g46
sg25
S'19.0'
p582
sg27
S'10/13'
p583
sg29
S'100.0'
p584
sg31
S'Justin Tucker'
p585
sg33
S'L17-19'
p586
sg35
S'2013'
p587
sg37
g10
sg38
S'100.0'
p588
sg40
g47
sg41
g10
ssg212
(dp589
g5
S'51'
p590
sg7
g212
sg9
g47
sg11
g16
sg13
S'@CLE'
p591
sg15
g16
sg17
g16
sg19
g47
sg20
g10
sg21
g16
sg22
S'56.0'
p592
sg24
g46
sg25
S'13.5'
p593
sg27
S'11/03'
p594
sg29
S'100.0'
p595
sg31
S'Justin Tucker'
p596
sg33
S'L18-24'
p597
sg35
S'2013'
p598
sg37
g10
sg38
S'100.0'
p599
sg40
g16
sg41
g10
ssg218
(dp600
g5
g214
sg7
g218
sg9
g214
sg11
g214
sg13
g214
sg15
g214
sg17
g214
sg19
g214
sg20
g214
sg21
g214
sg22
g214
sg24
g214
sg25
g214
sg27
S'Bye'
p601
sg29
g214
sg31
S'Justin Tucker'
p602
sg33
g214
sg35
S'2013'
p603
sg37
g214
sg38
g214
sg40
g214
sg41
g214
sssS'2012'
p604
(dp605
g3
(dp606
g5
S'39'
p607
sg7
S'11'
p608
sg9
g47
sg11
g18
sg13
S'@PIT'
p609
sg15
g16
sg17
g47
sg19
g47
sg20
g10
sg21
g16
sg22
S'67.0'
p610
sg24
g46
sg25
S'18.0'
p611
sg27
S'11/18'
p612
sg29
S'100.0'
p613
sg31
S'Justin Tucker'
p614
sg33
S'W13-10'
p615
sg35
S'2012'
p616
sg37
g10
sg38
S'66.7'
p617
sg40
g16
sg41
g10
ssg42
(dp618
g5
S'48'
p619
sg7
S'10'
p620
sg9
g12
sg11
g47
sg13
S'OAK'
p621
sg15
g16
sg17
g47
sg19
g12
sg20
g10
sg21
g159
sg22
S'71.9'
p622
sg24
S'10'
p623
sg25
S'27.2'
p624
sg27
S'11/11'
p625
sg29
S'100.0'
p626
sg31
S'Justin Tucker'
p627
sg33
S'W55-20'
p628
sg35
S'2012'
p629
sg37
g10
sg38
S'100.0'
p630
sg40
g159
sg41
g10
ssg56
(dp631
g5
S'45'
p632
sg7
S'13'
p633
sg9
g47
sg11
g47
sg13
S'PIT'
p634
sg15
g16
sg17
g47
sg19
g18
sg20
g10
sg21
g47
sg22
S'70.0'
p635
sg24
g12
sg25
S'30.5'
p636
sg27
S'12/02'
p637
sg29
S'100.0'
p638
sg31
S'Justin Tucker'
p639
sg33
S'L20-23'
p640
sg35
S'2012'
p641
sg37
g10
sg38
S'100.0'
p642
sg40
g47
sg41
g10
ssg69
(dp643
g5
S'43'
p644
sg7
S'12'
p645
sg9
g16
sg11
g18
sg13
S'@SD'
p646
sg15
g16
sg17
g18
sg19
g18
sg20
g10
sg21
g16
sg22
S'70.0'
p647
sg24
g46
sg25
S'25.0'
p648
sg27
S'11/25'
p649
sg29
S'100.0'
p650
sg31
S'Justin Tucker'
p651
sg33
S'W16-13'
p652
sg35
S'2012'
p653
sg37
g10
sg38
S'100.0'
p654
sg40
g16
sg41
g10
ssg83
(dp655
g5
S'45'
p656
sg7
S'15'
p657
sg9
g16
sg11
g16
sg13
S'DEN'
p658
sg15
g16
sg17
g16
sg19
g47
sg20
g10
sg21
g47
sg22
S'56.5'
p659
sg24
g46
sg25
S'20.0'
p660
sg27
S'12/16'
p661
sg29
S'100.0'
p662
sg31
S'Justin Tucker'
p663
sg33
S'L17-34'
p664
sg35
S'2012'
p665
sg37
g10
sg38
S'100.0'
p666
sg40
g47
sg41
g10
ssg95
(dp667
g5
g10
sg7
S'14'
p668
sg9
g47
sg11
g10
sg13
S'@WAS'
p669
sg15
g16
sg17
g10
sg19
g18
sg20
g10
sg21
g46
sg22
S'70.6'
p670
sg24
g12
sg25
S'18.5'
p671
sg27
S'12/09'
p672
sg29
S'100.0'
p673
sg31
S'Justin Tucker'
p674
sg33
S'L28-31'
p675
sg35
S'2012'
p676
sg37
g10
sg38
S'--'
p677
sg40
g46
sg41
g10
ssg108
(dp678
g5
S'49'
p679
sg7
S'17'
p680
sg9
g47
sg11
g47
sg13
S'@CIN'
p681
sg15
g16
sg17
g16
sg19
g16
sg20
g10
sg21
g47
sg22
S'55.0'
p682
sg24
g46
sg25
S'28.0'
p683
sg27
S'12/30'
p684
sg29
S'100.0'
p685
sg31
S'Justin Tucker'
p686
sg33
S'L17-23'
p687
sg35
S'2012'
p688
sg37
g10
sg38
S'50.0'
p689
sg40
g47
sg41
g10
ssg121
(dp690
g5
S'30'
p691
sg7
S'16'
p692
sg9
g12
sg11
g46
sg13
S'NYG'
p693
sg15
g16
sg17
g46
sg19
g18
sg20
g10
sg21
g18
sg22
S'67.5'
p694
sg24
g218
sg25
S'23.4'
p695
sg27
S'12/23'
p696
sg29
S'100.0'
p697
sg31
S'Justin Tucker'
p698
sg33
S'W33-14'
p699
sg35
S'2012'
p700
sg37
g10
sg38
S'100.0'
p701
sg40
g18
sg41
g10
ssg16
(dp702
g5
S'46'
p703
sg7
g16
sg9
g18
sg11
g18
sg13
S'CIN'
p704
sg15
g16
sg17
g18
sg19
g75
sg20
g10
sg21
g12
sg22
S'72.3'
p705
sg24
g212
sg25
S'21.3'
p706
sg27
S'09/10'
p707
sg29
S'100.0'
p708
sg31
S'Justin Tucker'
p709
sg33
S'W44-13'
p710
sg35
S'2012'
p711
sg37
g10
sg38
S'100.0'
p712
sg40
g12
sg41
g10
ssg18
(dp713
g5
S'27'
p714
sg7
g18
sg9
g16
sg11
g16
sg13
S'NE'
p715
sg15
g16
sg17
g16
sg19
g46
sg20
g10
sg21
g46
sg22
S'73.2'
p716
sg24
g12
sg25
S'24.0'
p717
sg27
S'09/23'
p718
sg29
S'100.0'
p719
sg31
S'Justin Tucker'
p720
sg33
S'W31-30'
p721
sg35
S'2012'
p722
sg37
g10
sg38
S'100.0'
p723
sg40
g46
sg41
g10
ssg47
(dp724
g5
S'56'
p725
sg7
g47
sg9
g18
sg11
g18
sg13
S'@PHI'
p726
sg15
g16
sg17
g18
sg19
g18
sg20
g10
sg21
g47
sg22
S'57.7'
p727
sg24
g75
sg25
S'16.3'
p728
sg27
S'09/16'
p729
sg29
S'100.0'
p730
sg31
S'Justin Tucker'
p731
sg33
S'L23-24'
p732
sg35
S'2012'
p733
sg37
g10
sg38
S'100.0'
p734
sg40
g47
sg41
g10
ssg12
(dp735
g5
S'39'
p736
sg7
g12
sg9
g18
sg11
g18
sg13
S'@KC'
p737
sg15
g16
sg17
g18
sg19
g16
sg20
g10
sg21
g10
sg22
S'68.3'
p738
sg24
g46
sg25
S'27.3'
p739
sg27
S'10/07'
p740
sg29
S'--'
p741
sg31
S'Justin Tucker'
p742
sg33
S'W9-6'
p743
sg35
S'2012'
p744
sg37
g10
sg38
S'100.0'
p745
sg40
g10
sg41
g10
ssg46
(dp746
g5
S'45'
p747
sg7
g46
sg9
g47
sg11
g47
sg13
S'CLE'
p748
sg15
g16
sg17
g16
sg19
g18
sg20
g10
sg21
g47
sg22
S'73.6'
p749
sg24
g12
sg25
S'23.5'
p750
sg27
S'09/27'
p751
sg29
S'100.0'
p752
sg31
S'Justin Tucker'
p753
sg33
S'W23-16'
p754
sg35
S'2012'
p755
sg37
g10
sg38
S'50.0'
p756
sg40
g47
sg41
g10
ssg159
(dp757
g5
S'54'
p758
sg7
g159
sg9
g10
sg11
g47
sg13
S'@HOU'
p759
sg15
g16
sg17
g47
sg19
g18
sg20
g10
sg21
g16
sg22
S'54.3'
p760
sg24
g46
sg25
S'--'
p761
sg27
S'10/21'
p762
sg29
S'100.0'
p763
sg31
S'Justin Tucker'
p764
sg33
S'L13-43'
p765
sg35
S'2012'
p766
sg37
g10
sg38
S'100.0'
p767
sg40
g16
sg41
g10
ssg75
(dp768
g5
S'38'
p769
sg7
g75
sg9
g16
sg11
g16
sg13
S'DAL'
p770
sg15
g16
sg17
g16
sg19
g12
sg20
g10
sg21
g46
sg22
S'69.7'
p771
sg24
g75
sg25
S'14.0'
p772
sg27
S'10/14'
p773
sg29
S'100.0'
p774
sg31
S'Justin Tucker'
p775
sg33
S'W31-29'
p776
sg35
S'2012'
p777
sg37
g10
sg38
S'100.0'
p778
sg40
g46
sg41
g10
ssg212
(dp779
g5
S'43'
p780
sg7
g212
sg9
g18
sg11
g16
sg13
S'@CLE'
p781
sg15
g16
sg17
g16
sg19
g47
sg20
g10
sg21
g47
sg22
S'68.6'
p782
sg24
g12
sg25
S'24.7'
p783
sg27
S'11/04'
p784
sg29
S'100.0'
p785
sg31
S'Justin Tucker'
p786
sg33
S'W25-15'
p787
sg35
S'2012'
p788
sg37
g10
sg38
S'100.0'
p789
sg40
g47
sg41
g10
ssg218
(dp790
g5
g214
sg7
g218
sg9
g214
sg11
g214
sg13
g214
sg15
g214
sg17
g214
sg19
g214
sg20
g214
sg21
g214
sg22
g214
sg24
g214
sg25
g214
sg27
S'Bye'
p791
sg29
g214
sg31
S'Justin Tucker'
p792
sg33
g214
sg35
S'2012'
p793
sg37
g214
sg38
g214
sg40
g214
sg41
g214
sss.