(dp0
S'2015'
p1
(dp2
S'11'
p3
(dp4
S'FGLng'
p5
S'52'
p6
sS'WK'
p7
S'11'
p8
sS'Ret'
p9
S'5'
p10
sS'FGAtt'
p11
g10
sS'Opp'
p12
S'@MIN'
p13
sS'G'
p14
S'1'
p15
sS'FGM'
p16
g10
sS'TB'
p17
S'2'
p18
sS'GS'
p19
S'0'
p20
sS'XPM'
p21
g15
sS'KOAvg'
p22
S'60.0'
p23
sS'KO'
p24
S'8'
p25
sS'RetAvg'
p26
S'28.2'
p27
sS'Game Date'
p28
S'11/22'
p29
sS'XPPct'
p30
S'100.0'
p31
sS'Player'
p32
S'Mason Crosby'
p33
sS'Result'
p34
S'W30-13'
p35
sS'Year'
p36
S'2015'
p37
sS'XPBlk'
p38
g20
sS'FGPct'
p39
S'100.0'
p40
sS'XPAtt'
p41
g15
sS'FGBlk'
p42
g20
ssS'10'
p43
(dp44
g5
S'44'
p45
sg7
S'10'
p46
sg9
g18
sg11
g18
sg12
S'DET'
p47
sg14
g15
sg16
g15
sg17
g15
sg19
g20
sg21
g15
sg22
S'55.5'
p48
sg24
S'4'
p49
sg26
S'67.0'
p50
sg28
S'11/15'
p51
sg30
S'100.0'
p52
sg32
S'Mason Crosby'
p53
sg34
S'L16-18'
p54
sg36
S'2015'
p55
sg38
g20
sg39
S'50.0'
p56
sg41
g15
sg42
g20
ssS'13'
p57
(dp58
g5
g20
sg7
S'13'
p59
sg9
g18
sg11
g15
sg12
S'@DET'
p60
sg14
g15
sg16
g20
sg17
g18
sg19
g20
sg21
S'3'
p61
sg22
S'67.8'
p62
sg24
g49
sg26
S'25.5'
p63
sg28
S'12/03'
p64
sg30
S'100.0'
p65
sg32
S'Mason Crosby'
p66
sg34
S'W27-23'
p67
sg36
S'2015'
p68
sg38
g20
sg39
S'0.0'
p69
sg41
g61
sg42
g20
ssS'12'
p70
(dp71
g5
S'50'
p72
sg7
S'12'
p73
sg9
g15
sg11
g18
sg12
S'CHI'
p74
sg14
g15
sg16
g18
sg17
g18
sg19
g20
sg21
g15
sg22
S'63.3'
p75
sg24
g61
sg26
S'37.0'
p76
sg28
S'11/26'
p77
sg30
S'100.0'
p78
sg32
S'Mason Crosby'
p79
sg34
S'L13-17'
p80
sg36
S'2015'
p81
sg38
g20
sg39
S'100.0'
p82
sg41
g15
sg42
g20
ssS'15'
p83
(dp84
g5
S'33'
p85
sg7
S'15'
p86
sg9
g49
sg11
g49
sg12
S'@OAK'
p87
sg14
g15
sg16
g61
sg17
g61
sg19
g20
sg21
g61
sg22
S'65.4'
p88
sg24
S'7'
p89
sg26
S'23.0'
p90
sg28
S'12/20'
p91
sg30
S'100.0'
p92
sg32
S'Mason Crosby'
p93
sg34
S'W30-20'
p94
sg36
S'2015'
p95
sg38
g20
sg39
S'75.0'
p96
sg41
g61
sg42
g15
ssS'14'
p97
(dp98
g5
g20
sg7
S'14'
p99
sg9
g15
sg11
g20
sg12
S'DAL'
p100
sg14
g15
sg16
g20
sg17
g49
sg19
g20
sg21
g49
sg22
S'65.2'
p101
sg24
g10
sg26
S'22.0'
p102
sg28
S'12/13'
p103
sg30
S'100.0'
p104
sg32
S'Mason Crosby'
p105
sg34
S'W28-7'
p106
sg36
S'2015'
p107
sg38
g20
sg39
S'--'
p108
sg41
g49
sg42
g20
ssS'17'
p109
(dp110
g5
S'43'
p111
sg7
S'17'
p112
sg9
g18
sg11
g18
sg12
S'MIN'
p113
sg14
g15
sg16
g18
sg17
g18
sg19
g20
sg21
g15
sg22
S'65.3'
p114
sg24
g49
sg26
S'47.0'
p115
sg28
S'01/03'
p116
sg30
S'100.0'
p117
sg32
S'Mason Crosby'
p118
sg34
S'L13-20'
p119
sg36
S'2015'
p120
sg38
g20
sg39
S'100.0'
p121
sg41
g15
sg42
g20
ssS'16'
p122
(dp123
g5
S'--'
p124
sg7
S'16'
p125
sg9
g15
sg11
S'--'
p126
sg12
S'@ARI'
p127
sg14
g15
sg16
S'--'
p128
sg17
g20
sg19
g20
sg21
S'--'
p129
sg22
S'35.0'
p130
sg24
g18
sg26
S'15.0'
p131
sg28
S'12/27'
p132
sg30
S'--'
p133
sg32
S'Mason Crosby'
p134
sg34
S'L8-38'
p135
sg36
S'2015'
p136
sg38
S'--'
p137
sg39
S'--'
p138
sg41
S'--'
p139
sg42
S'--'
p140
ssg15
(dp141
g5
S'37'
p142
sg7
g15
sg9
g61
sg11
g15
sg12
S'@CHI'
p143
sg14
g15
sg16
g15
sg17
g61
sg19
g20
sg21
g49
sg22
S'64.3'
p144
sg24
S'6'
p145
sg26
S'21.0'
p146
sg28
S'09/13'
p147
sg30
S'100.0'
p148
sg32
S'Mason Crosby'
p149
sg34
S'W31-23'
p150
sg36
S'2015'
p151
sg38
g20
sg39
S'100.0'
p152
sg41
g49
sg42
g20
ssg61
(dp153
g5
S'44'
p154
sg7
g61
sg9
g49
sg11
g15
sg12
S'KC'
p155
sg14
g15
sg16
g15
sg17
g61
sg19
g20
sg21
g10
sg22
S'66.3'
p156
sg24
g89
sg26
S'28.5'
p157
sg28
S'09/28'
p158
sg30
S'100.0'
p159
sg32
S'Mason Crosby'
p160
sg34
S'W38-28'
p161
sg36
S'2015'
p162
sg38
g20
sg39
S'100.0'
p163
sg41
g10
sg42
g20
ssg18
(dp164
g5
S'54'
p165
sg7
g18
sg9
g49
sg11
g49
sg12
S'SEA'
p166
sg14
g15
sg16
g49
sg17
g61
sg19
g20
sg21
g15
sg22
S'65.4'
p167
sg24
g89
sg26
S'19.8'
p168
sg28
S'09/20'
p169
sg30
S'100.0'
p170
sg32
S'Mason Crosby'
p171
sg34
S'W27-17'
p172
sg36
S'2015'
p173
sg38
g20
sg39
S'100.0'
p174
sg41
g15
sg42
g20
ssg10
(dp175
g5
S'35'
p176
sg7
g10
sg9
g15
sg11
g15
sg12
S'STL'
p177
sg14
g15
sg16
g15
sg17
g49
sg19
g20
sg21
g61
sg22
S'65.0'
p178
sg24
g10
sg26
S'25.0'
p179
sg28
S'10/11'
p180
sg30
S'100.0'
p181
sg32
S'Mason Crosby'
p182
sg34
S'W24-10'
p183
sg36
S'2015'
p184
sg38
g20
sg39
S'100.0'
p185
sg41
g61
sg42
g20
ssg49
(dp186
g5
S'31'
p187
sg7
g49
sg9
g15
sg11
g18
sg12
S'@SF'
p188
sg14
g15
sg16
g15
sg17
g61
sg19
g20
sg21
g18
sg22
S'67.0'
p189
sg24
g49
sg26
S'20.0'
p190
sg28
S'10/04'
p191
sg30
S'100.0'
p192
sg32
S'Mason Crosby'
p193
sg34
S'W17-3'
p194
sg36
S'2015'
p195
sg38
g20
sg39
S'50.0'
p196
sg41
g18
sg42
g20
ssg89
(dp197
g5
S''
p198
sg7
g89
sg9
g198
sg11
g198
sg12
g198
sg14
g198
sg16
g198
sg17
g198
sg19
g198
sg21
g198
sg22
g198
sg24
g198
sg26
g198
sg28
S'Bye'
p199
sg30
g198
sg32
S'Mason Crosby'
p200
sg34
g198
sg36
S'2015'
p201
sg38
g198
sg39
g198
sg41
g198
sg42
g198
ssg145
(dp202
g5
S'28'
p203
sg7
g145
sg9
g61
sg11
g18
sg12
S'SD'
p204
sg14
g15
sg16
g18
sg17
g61
sg19
g20
sg21
g61
sg22
S'65.3'
p205
sg24
g145
sg26
S'18.3'
p206
sg28
S'10/18'
p207
sg30
S'100.0'
p208
sg32
S'Mason Crosby'
p209
sg34
S'W27-20'
p210
sg36
S'2015'
p211
sg38
g20
sg39
S'100.0'
p212
sg41
g61
sg42
g20
ssS'9'
p213
(dp214
g5
g20
sg7
g213
sg9
g18
sg11
g20
sg12
S'@CAR'
p215
sg14
g15
sg16
g20
sg17
g61
sg19
g20
sg21
g61
sg22
S'60.6'
p216
sg24
g10
sg26
S'16.5'
p217
sg28
S'11/08'
p218
sg30
S'100.0'
p219
sg32
S'Mason Crosby'
p220
sg34
S'L29-37'
p221
sg36
S'2015'
p222
sg38
g20
sg39
S'--'
p223
sg41
g61
sg42
g20
ssg25
(dp224
g5
S'56'
p225
sg7
g25
sg9
g20
sg11
g15
sg12
S'@DEN'
p226
sg14
g15
sg16
g15
sg17
g61
sg19
g20
sg21
g15
sg22
S'65.0'
p227
sg24
g61
sg26
S'--'
p228
sg28
S'11/01'
p229
sg30
S'100.0'
p230
sg32
S'Mason Crosby'
p231
sg34
S'L10-29'
p232
sg36
S'2015'
p233
sg38
g20
sg39
S'100.0'
p234
sg41
g15
sg42
g20
sssS'2014'
p235
(dp236
g3
(dp237
g5
S'33'
p238
sg7
S'11'
p239
sg9
g49
sg11
g61
sg12
S'PHI'
p240
sg14
g15
sg16
g18
sg17
g145
sg19
g20
sg21
g10
sg22
S'61.3'
p241
sg24
S'10'
p242
sg26
S'22.3'
p243
sg28
S'11/16'
p244
sg30
S'83.3'
p245
sg32
S'Mason Crosby'
p246
sg34
S'W53-20'
p247
sg36
S'2014'
p248
sg38
g15
sg39
S'66.7'
p249
sg41
g145
sg42
g20
ssg43
(dp250
g5
S'52'
p251
sg7
S'10'
p252
sg9
S'10'
p253
sg11
g18
sg12
S'CHI'
p254
sg14
g15
sg16
g18
sg17
g20
sg19
g20
sg21
g89
sg22
S'65.7'
p255
sg24
S'10'
p256
sg26
S'28.8'
p257
sg28
S'11/09'
p258
sg30
S'100.0'
p259
sg32
S'Mason Crosby'
p260
sg34
S'W55-14'
p261
sg36
S'2014'
p262
sg38
g20
sg39
S'100.0'
p263
sg41
g89
sg42
g20
ssg57
(dp264
g5
S'35'
p265
sg7
S'13'
p266
sg9
g49
sg11
g10
sg12
S'NE'
p267
sg14
g15
sg16
g49
sg17
g18
sg19
g20
sg21
g18
sg22
S'60.0'
p268
sg24
g89
sg26
S'19.0'
p269
sg28
S'11/30'
p270
sg30
S'100.0'
p271
sg32
S'Mason Crosby'
p272
sg34
S'W26-21'
p273
sg36
S'2014'
p274
sg38
g20
sg39
S'80.0'
p275
sg41
g18
sg42
g20
ssg70
(dp276
g5
S'48'
p277
sg7
S'12'
p278
sg9
g10
sg11
g15
sg12
S'@MIN'
p279
sg14
g15
sg16
g15
sg17
g20
sg19
g20
sg21
g61
sg22
S'58.2'
p280
sg24
g10
sg26
S'25.2'
p281
sg28
S'11/23'
p282
sg30
S'100.0'
p283
sg32
S'Mason Crosby'
p284
sg34
S'W24-21'
p285
sg36
S'2014'
p286
sg38
g20
sg39
S'100.0'
p287
sg41
g61
sg42
g20
ssg83
(dp288
g5
S'45'
p289
sg7
S'15'
p290
sg9
g18
sg11
g61
sg12
S'@BUF'
p291
sg14
g15
sg16
g18
sg17
g18
sg19
g20
sg21
g15
sg22
S'49.4'
p292
sg24
g10
sg26
S'13.5'
p293
sg28
S'12/14'
p294
sg30
S'100.0'
p295
sg32
S'Mason Crosby'
p296
sg34
S'L13-21'
p297
sg36
S'2014'
p298
sg38
g20
sg39
S'66.7'
p299
sg41
g15
sg42
g15
ssg97
(dp300
g5
S'53'
p301
sg7
S'14'
p302
sg9
g25
sg11
g61
sg12
S'ATL'
p303
sg14
g15
sg16
g61
sg17
g15
sg19
g20
sg21
g49
sg22
S'64.4'
p304
sg24
g213
sg26
S'24.0'
p305
sg28
S'12/08'
p306
sg30
S'80.0'
p307
sg32
S'Mason Crosby'
p308
sg34
S'W43-37'
p309
sg36
S'2014'
p310
sg38
g15
sg39
S'100.0'
p311
sg41
g10
sg42
g20
ssg109
(dp312
g5
g20
sg7
S'17'
p313
sg9
g10
sg11
g15
sg12
S'DET'
p314
sg14
g15
sg16
g20
sg17
g20
sg19
g20
sg21
g49
sg22
S'65.6'
p315
sg24
g10
sg26
S'25.2'
p316
sg28
S'12/28'
p317
sg30
S'100.0'
p318
sg32
S'Mason Crosby'
p319
sg34
S'W30-20'
p320
sg36
S'2014'
p321
sg38
g20
sg39
S'0.0'
p322
sg41
g49
sg42
g15
ssg122
(dp323
g5
S'42'
p324
sg7
S'16'
p325
sg9
g15
sg11
g61
sg12
S'@TB'
p326
sg14
g15
sg16
g18
sg17
g49
sg19
g20
sg21
g18
sg22
S'66.8'
p327
sg24
g10
sg26
S'29.0'
p328
sg28
S'12/21'
p329
sg30
S'100.0'
p330
sg32
S'Mason Crosby'
p331
sg34
S'W20-3'
p332
sg36
S'2014'
p333
sg38
g20
sg39
S'66.7'
p334
sg41
g18
sg42
g20
ssg15
(dp335
g5
S'23'
p336
sg7
g15
sg9
g18
sg11
g15
sg12
S'@SEA'
p337
sg14
g15
sg16
g15
sg17
g18
sg19
g20
sg21
g15
sg22
S'67.3'
p338
sg24
g49
sg26
S'26.5'
p339
sg28
S'09/04'
p340
sg30
S'100.0'
p341
sg32
S'Mason Crosby'
p342
sg34
S'L16-36'
p343
sg36
S'2014'
p344
sg38
g20
sg39
S'100.0'
p345
sg41
g15
sg42
g20
ssg61
(dp346
g5
g20
sg7
g61
sg9
g15
sg11
g20
sg12
S'@DET'
p347
sg14
g15
sg16
g20
sg17
g15
sg19
g20
sg21
g15
sg22
S'67.5'
p348
sg24
g18
sg26
S'22.0'
p349
sg28
S'09/21'
p350
sg30
S'100.0'
p351
sg32
S'Mason Crosby'
p352
sg34
S'L7-19'
p353
sg36
S'2014'
p354
sg38
g20
sg39
S'--'
p355
sg41
g15
sg42
g20
ssg18
(dp356
g5
S'55'
p357
sg7
g18
sg9
g61
sg11
g61
sg12
S'NYJ'
p358
sg14
g15
sg16
g61
sg17
g49
sg19
g20
sg21
g18
sg22
S'56.7'
p359
sg24
g89
sg26
S'9.7'
p360
sg28
S'09/14'
p361
sg30
S'100.0'
p362
sg32
S'Mason Crosby'
p363
sg34
S'W31-24'
p364
sg36
S'2014'
p365
sg38
g20
sg39
S'100.0'
p366
sg41
g18
sg42
g20
ssg10
(dp367
g5
g20
sg7
g10
sg9
g10
sg11
g20
sg12
S'MIN'
p368
sg14
g15
sg16
g20
sg17
g18
sg19
g20
sg21
g145
sg22
S'66.7'
p369
sg24
g89
sg26
S'26.8'
p370
sg28
S'10/02'
p371
sg30
S'100.0'
p372
sg32
S'Mason Crosby'
p373
sg34
S'W42-10'
p374
sg36
S'2014'
p375
sg38
g20
sg39
S'--'
p376
sg41
g145
sg42
g20
ssg49
(dp377
g5
S'53'
p378
sg7
g49
sg9
g18
sg11
g18
sg12
S'@CHI'
p379
sg14
g15
sg16
g15
sg17
g10
sg19
g20
sg21
g10
sg22
S'67.0'
p380
sg24
g89
sg26
S'21.5'
p381
sg28
S'09/28'
p382
sg30
S'100.0'
p383
sg32
S'Mason Crosby'
p384
sg34
S'W38-17'
p385
sg36
S'2014'
p386
sg38
g20
sg39
S'50.0'
p387
sg41
g10
sg42
g15
ssg89
(dp388
g5
S'34'
p389
sg7
g89
sg9
g18
sg11
g15
sg12
S'CAR'
p390
sg14
g15
sg16
g15
sg17
g10
sg19
g20
sg21
g10
sg22
S'66.6'
p391
sg24
g89
sg26
S'27.5'
p392
sg28
S'10/19'
p393
sg30
S'100.0'
p394
sg32
S'Mason Crosby'
p395
sg34
S'W38-17'
p396
sg36
S'2014'
p397
sg38
g20
sg39
S'100.0'
p398
sg41
g10
sg42
g20
ssg145
(dp399
g5
S'43'
p400
sg7
g145
sg9
g18
sg11
g18
sg12
S'@MIA'
p401
sg14
g15
sg16
g18
sg17
g61
sg19
g20
sg21
g61
sg22
S'62.0'
p402
sg24
g145
sg26
S'45.5'
p403
sg28
S'10/12'
p404
sg30
S'100.0'
p405
sg32
S'Mason Crosby'
p406
sg34
S'W27-24'
p407
sg36
S'2014'
p408
sg38
g20
sg39
S'100.0'
p409
sg41
g61
sg42
g20
ssg213
(dp410
g5
g198
sg7
g213
sg9
g198
sg11
g198
sg12
g198
sg14
g198
sg16
g198
sg17
g198
sg19
g198
sg21
g198
sg22
g198
sg24
g198
sg26
g198
sg28
S'Bye'
p411
sg30
g198
sg32
S'Mason Crosby'
p412
sg34
g198
sg36
S'2014'
p413
sg38
g198
sg39
g198
sg41
g198
sg42
g198
ssg25
(dp414
g5
S'49'
p415
sg7
g25
sg9
g20
sg11
g61
sg12
S'@NO'
p416
sg14
g15
sg16
g61
sg17
g49
sg19
g20
sg21
g18
sg22
S'46.3'
p417
sg24
g145
sg26
S'--'
p418
sg28
S'10/26'
p419
sg30
S'100.0'
p420
sg32
S'Mason Crosby'
p421
sg34
S'L23-44'
p422
sg36
S'2014'
p423
sg38
g20
sg39
S'100.0'
p424
sg41
g18
sg42
g20
sssS'2011'
p425
(dp426
g3
(dp427
g5
g20
sg7
S'11'
p428
sg9
g145
sg11
g15
sg12
S'TB'
p429
sg14
g15
sg16
g20
sg17
g20
sg19
g20
sg21
g10
sg22
S'66.0'
p430
sg24
g145
sg26
S'25.3'
p431
sg28
S'11/20'
p432
sg30
S'100.0'
p433
sg32
S'Mason Crosby'
p434
sg34
S'W35-26'
p435
sg36
S'2011'
p436
sg38
g20
sg39
S'0.0'
p437
sg41
g10
sg42
g20
ssg43
(dp438
g5
S'25'
p439
sg7
S'10'
p440
sg9
g49
sg11
g15
sg12
S'MIN'
p441
sg14
g15
sg16
g15
sg17
g49
sg19
g20
sg21
g145
sg22
S'61.3'
p442
sg24
g25
sg26
S'14.0'
p443
sg28
S'11/14'
p444
sg30
S'100.0'
p445
sg32
S'Mason Crosby'
p446
sg34
S'W45-7'
p447
sg36
S'2011'
p448
sg38
g20
sg39
S'100.0'
p449
sg41
g145
sg42
g20
ssg57
(dp450
g5
S'31'
p451
sg7
S'13'
p452
sg9
g10
sg11
g18
sg12
S'@NYG'
p453
sg14
g15
sg16
g15
sg17
g15
sg19
g20
sg21
g10
sg22
S'63.3'
p454
sg24
g145
sg26
S'25.0'
p455
sg28
S'12/04'
p456
sg30
S'100.0'
p457
sg32
S'Mason Crosby'
p458
sg34
S'W38-35'
p459
sg36
S'2011'
p460
sg38
g20
sg39
S'50.0'
p461
sg41
g10
sg42
g20
ssg70
(dp462
g5
S'35'
p463
sg7
S'12'
p464
sg9
g10
sg11
g18
sg12
S'@DET'
p465
sg14
g15
sg16
g18
sg17
g15
sg19
g20
sg21
g61
sg22
S'67.2'
p466
sg24
g145
sg26
S'25.8'
p467
sg28
S'11/24'
p468
sg30
S'100.0'
p469
sg32
S'Mason Crosby'
p470
sg34
S'W27-15'
p471
sg36
S'2011'
p472
sg38
g20
sg39
S'100.0'
p473
sg41
g61
sg42
g20
ssg83
(dp474
g5
g20
sg7
S'15'
p475
sg9
g15
sg11
g15
sg12
S'@KC'
p476
sg14
g15
sg16
g20
sg17
g15
sg19
g20
sg21
g18
sg22
S'50.7'
p477
sg24
g61
sg26
S'22.0'
p478
sg28
S'12/18'
p479
sg30
S'100.0'
p480
sg32
S'Mason Crosby'
p481
sg34
S'L14-19'
p482
sg36
S'2011'
p483
sg38
g20
sg39
S'0.0'
p484
sg41
g18
sg42
g20
ssg97
(dp485
g5
S'49'
p486
sg7
S'14'
p487
sg9
g61
sg11
g49
sg12
S'OAK'
p488
sg14
g15
sg16
g49
sg17
g89
sg19
g20
sg21
g49
sg22
S'65.7'
p489
sg24
S'10'
p490
sg26
S'13.7'
p491
sg28
S'12/11'
p492
sg30
S'80.0'
p493
sg32
S'Mason Crosby'
p494
sg34
S'W46-16'
p495
sg36
S'2011'
p496
sg38
g15
sg39
S'100.0'
p497
sg41
g10
sg42
g20
ssg109
(dp498
g5
S'22'
p499
sg7
S'17'
p500
sg9
g61
sg11
g18
sg12
S'DET'
p501
sg14
g15
sg16
g15
sg17
g10
sg19
g20
sg21
g145
sg22
S'67.3'
p502
sg24
g25
sg26
S'29.7'
p503
sg28
S'01/01'
p504
sg30
S'100.0'
p505
sg32
S'Mason Crosby'
p506
sg34
S'W45-41'
p507
sg36
S'2011'
p508
sg38
g20
sg39
S'50.0'
p509
sg41
g145
sg42
g20
ssg122
(dp510
g5
g20
sg7
S'16'
p511
sg9
g10
sg11
g20
sg12
S'CHI'
p512
sg14
g15
sg16
g20
sg17
g15
sg19
g20
sg21
g10
sg22
S'64.7'
p513
sg24
g145
sg26
S'23.4'
p514
sg28
S'12/25'
p515
sg30
S'100.0'
p516
sg32
S'Mason Crosby'
p517
sg34
S'W35-21'
p518
sg36
S'2011'
p519
sg38
g20
sg39
S'--'
p520
sg41
g10
sg42
g20
ssg15
(dp521
g5
g20
sg7
g15
sg9
g61
sg11
g20
sg12
S'NO'
p522
sg14
g15
sg16
g20
sg17
g49
sg19
g20
sg21
g145
sg22
S'66.4'
p523
sg24
g89
sg26
S'27.7'
p524
sg28
S'09/08'
p525
sg30
S'100.0'
p526
sg32
S'Mason Crosby'
p527
sg34
S'W42-34'
p528
sg36
S'2011'
p529
sg38
g20
sg39
S'--'
p530
sg41
g145
sg42
g20
ssg61
(dp531
g5
S'37'
p532
sg7
g61
sg9
g61
sg11
g18
sg12
S'@CHI'
p533
sg14
g15
sg16
g18
sg17
g61
sg19
g20
sg21
g61
sg22
S'64.8'
p534
sg24
g145
sg26
S'21.3'
p535
sg28
S'09/25'
p536
sg30
S'100.0'
p537
sg32
S'Mason Crosby'
p538
sg34
S'W27-17'
p539
sg36
S'2011'
p540
sg38
g20
sg39
S'100.0'
p541
sg41
g61
sg42
g20
ssg18
(dp542
g5
S'37'
p543
sg7
g18
sg9
g10
sg11
g61
sg12
S'@CAR'
p544
sg14
g15
sg16
g61
sg17
g18
sg19
g20
sg21
g61
sg22
S'66.9'
p545
sg24
g89
sg26
S'21.4'
p546
sg28
S'09/18'
p547
sg30
S'100.0'
p548
sg32
S'Mason Crosby'
p549
sg34
S'W30-23'
p550
sg36
S'2011'
p551
sg38
g20
sg39
S'100.0'
p552
sg41
g61
sg42
g20
ssg10
(dp553
g5
S'56'
p554
sg7
g10
sg9
g15
sg11
g49
sg12
S'@ATL'
p555
sg14
g15
sg16
g49
sg17
g145
sg19
g20
sg21
g15
sg22
S'65.9'
p556
sg24
g89
sg26
S'28.0'
p557
sg28
S'10/09'
p558
sg30
S'100.0'
p559
sg32
S'Mason Crosby'
p560
sg34
S'W25-14'
p561
sg36
S'2011'
p562
sg38
g20
sg39
S'100.0'
p563
sg41
g15
sg42
g20
ssg49
(dp564
g5
g20
sg7
g49
sg9
g10
sg11
g20
sg12
S'DEN'
p565
sg14
g15
sg16
g20
sg17
g18
sg19
g20
sg21
g89
sg22
S'61.3'
p566
sg24
g25
sg26
S'29.2'
p567
sg28
S'10/02'
p568
sg30
S'100.0'
p569
sg32
S'Mason Crosby'
p570
sg34
S'W49-23'
p571
sg36
S'2011'
p572
sg38
g20
sg39
S'--'
p573
sg41
g89
sg42
g20
ssg89
(dp574
g5
S'58'
p575
sg7
g89
sg9
g61
sg11
g49
sg12
S'@MIN'
p576
sg14
g15
sg16
g49
sg17
g49
sg19
g20
sg21
g61
sg22
S'63.9'
p577
sg24
g89
sg26
S'25.3'
p578
sg28
S'10/23'
p579
sg30
S'100.0'
p580
sg32
S'Mason Crosby'
p581
sg34
S'W33-27'
p582
sg36
S'2011'
p583
sg38
g20
sg39
S'100.0'
p584
sg41
g61
sg42
g20
ssg145
(dp585
g5
S'32'
p586
sg7
g145
sg9
g18
sg11
g15
sg12
S'STL'
p587
sg14
g15
sg16
g15
sg17
g61
sg19
g20
sg21
g61
sg22
S'68.8'
p588
sg24
g10
sg26
S'20.0'
p589
sg28
S'10/16'
p590
sg30
S'100.0'
p591
sg32
S'Mason Crosby'
p592
sg34
S'W24-3'
p593
sg36
S'2011'
p594
sg38
g20
sg39
S'100.0'
p595
sg41
g61
sg42
g20
ssg213
(dp596
g5
S'47'
p597
sg7
g213
sg9
g61
sg11
g15
sg12
S'@SD'
p598
sg14
g15
sg16
g15
sg17
g10
sg19
g20
sg21
g145
sg22
S'68.6'
p599
sg24
g25
sg26
S'29.7'
p600
sg28
S'11/06'
p601
sg30
S'100.0'
p602
sg32
S'Mason Crosby'
p603
sg34
S'W45-38'
p604
sg36
S'2011'
p605
sg38
g20
sg39
S'100.0'
p606
sg41
g145
sg42
g20
ssg25
(dp607
g5
g198
sg7
g25
sg9
g198
sg11
g198
sg12
g198
sg14
g198
sg16
g198
sg17
g198
sg19
g198
sg21
g198
sg22
g198
sg24
g198
sg26
g198
sg28
S'Bye'
p608
sg30
g198
sg32
S'Mason Crosby'
p609
sg34
g198
sg36
S'2011'
p610
sg38
g198
sg39
g198
sg41
g198
sg42
g198
sssS'2010'
p611
(dp612
g3
(dp613
g5
S'42'
p614
sg7
S'11'
p615
sg9
g145
sg11
g15
sg12
S'@MIN'
p616
sg14
g15
sg16
g15
sg17
g20
sg19
g20
sg21
g49
sg22
S'59.2'
p617
sg24
g145
sg26
S'12.8'
p618
sg28
S'11/21'
p619
sg30
S'100.0'
p620
sg32
S'Mason Crosby'
p621
sg34
S'W31-3'
p622
sg36
S'2010'
p623
sg38
g20
sg39
S'100.0'
p624
sg41
g49
sg42
g20
ssg43
(dp625
g5
g198
sg7
S'10'
p626
sg9
g198
sg11
g198
sg12
g198
sg14
g198
sg16
g198
sg17
g198
sg19
g198
sg21
g198
sg22
g198
sg24
g198
sg26
g198
sg28
S'Bye'
p627
sg30
g198
sg32
S'Mason Crosby'
p628
sg34
g198
sg36
S'2010'
p629
sg38
g198
sg39
g198
sg41
g198
sg42
g198
ssg57
(dp630
g5
S'43'
p631
sg7
S'13'
p632
sg9
g89
sg11
g61
sg12
S'SF'
p633
sg14
g15
sg16
g18
sg17
g20
sg19
g20
sg21
g49
sg22
S'54.4'
p634
sg24
g89
sg26
S'14.3'
p635
sg28
S'12/05'
p636
sg30
S'100.0'
p637
sg32
S'Mason Crosby'
p638
sg34
S'W34-16'
p639
sg36
S'2010'
p640
sg38
g20
sg39
S'66.7'
p641
sg41
g49
sg42
g20
ssg70
(dp642
g5
S'22'
p643
sg7
S'12'
p644
sg9
g61
sg11
g15
sg12
S'@ATL'
p645
sg14
g15
sg16
g15
sg17
g15
sg19
g20
sg21
g18
sg22
S'71.0'
p646
sg24
g49
sg26
S'31.0'
p647
sg28
S'11/28'
p648
sg30
S'100.0'
p649
sg32
S'Mason Crosby'
p650
sg34
S'L17-20'
p651
sg36
S'2010'
p652
sg38
g20
sg39
S'100.0'
p653
sg41
g18
sg42
g20
ssg83
(dp654
g5
S'31'
p655
sg7
S'15'
p656
sg9
g49
sg11
g18
sg12
S'@NE'
p657
sg14
g15
sg16
g18
sg17
g15
sg19
g20
sg21
g61
sg22
S'47.3'
p658
sg24
g145
sg26
S'24.3'
p659
sg28
S'12/19'
p660
sg30
S'100.0'
p661
sg32
S'Mason Crosby'
p662
sg34
S'L27-31'
p663
sg36
S'2010'
p664
sg38
g20
sg39
S'100.0'
p665
sg41
g61
sg42
g20
ssg97
(dp666
g5
S'42'
p667
sg7
S'14'
p668
sg9
g18
sg11
g15
sg12
S'@DET'
p669
sg14
g15
sg16
g15
sg17
g20
sg19
g20
sg21
g20
sg22
S'70.5'
p670
sg24
g18
sg26
S'27.5'
p671
sg28
S'12/12'
p672
sg30
S'--'
p673
sg32
S'Mason Crosby'
p674
sg34
S'L3-7'
p675
sg36
S'2010'
p676
sg38
g20
sg39
S'100.0'
p677
sg41
g20
sg42
g20
ssg109
(dp678
g5
S'23'
p679
sg7
S'17'
p680
sg9
g18
sg11
g15
sg12
S'CHI'
p681
sg14
g15
sg16
g15
sg17
g15
sg19
g20
sg21
g15
sg22
S'56.0'
p682
sg24
g61
sg26
S'15.5'
p683
sg28
S'01/02'
p684
sg30
S'100.0'
p685
sg32
S'Mason Crosby'
p686
sg34
S'W10-3'
p687
sg36
S'2010'
p688
sg38
g20
sg39
S'100.0'
p689
sg41
g15
sg42
g20
ssg122
(dp690
g5
S'31'
p691
sg7
S'16'
p692
sg9
g25
sg11
g15
sg12
S'NYG'
p693
sg14
g15
sg16
g15
sg17
g20
sg19
g20
sg21
g145
sg22
S'61.3'
p694
sg24
g25
sg26
S'18.6'
p695
sg28
S'12/26'
p696
sg30
S'100.0'
p697
sg32
S'Mason Crosby'
p698
sg34
S'W45-17'
p699
sg36
S'2010'
p700
sg38
g20
sg39
S'100.0'
p701
sg41
g145
sg42
g20
ssg15
(dp702
g5
S'56'
p703
sg7
g15
sg9
g49
sg11
g18
sg12
S'@PHI'
p704
sg14
g15
sg16
g18
sg17
g20
sg19
g20
sg21
g61
sg22
S'64.4'
p705
sg24
g10
sg26
S'23.3'
p706
sg28
S'09/12'
p707
sg30
S'100.0'
p708
sg32
S'Mason Crosby'
p709
sg34
S'W27-20'
p710
sg36
S'2010'
p711
sg38
g20
sg39
S'100.0'
p712
sg41
g61
sg42
g20
ssg61
(dp713
g5
S'38'
p714
sg7
g61
sg9
g61
sg11
g18
sg12
S'@CHI'
p715
sg14
g15
sg16
g15
sg17
g20
sg19
g20
sg21
g18
sg22
S'67.8'
p716
sg24
g49
sg26
S'30.3'
p717
sg28
S'09/27'
p718
sg30
S'100.0'
p719
sg32
S'Mason Crosby'
p720
sg34
S'L17-20'
p721
sg36
S'2010'
p722
sg38
g20
sg39
S'50.0'
p723
sg41
g18
sg42
g15
ssg18
(dp724
g5
S'44'
p725
sg7
g18
sg9
g89
sg11
g18
sg12
S'BUF'
p726
sg14
g15
sg16
g18
sg17
g20
sg19
g20
sg21
g49
sg22
S'67.3'
p727
sg24
g89
sg26
S'27.4'
p728
sg28
S'09/19'
p729
sg30
S'100.0'
p730
sg32
S'Mason Crosby'
p731
sg34
S'W34-7'
p732
sg36
S'2010'
p733
sg38
g20
sg39
S'100.0'
p734
sg41
g49
sg42
g20
ssg10
(dp735
g5
S'52'
p736
sg7
g10
sg9
g49
sg11
g49
sg12
S'@WAS'
p737
sg14
g15
sg16
g18
sg17
g20
sg19
g20
sg21
g15
sg22
S'63.5'
p738
sg24
g49
sg26
S'16.5'
p739
sg28
S'10/10'
p740
sg30
S'100.0'
p741
sg32
S'Mason Crosby'
p742
sg34
S'L13-16'
p743
sg36
S'2010'
p744
sg38
g20
sg39
S'50.0'
p745
sg41
g15
sg42
g20
ssg49
(dp746
g5
g20
sg7
g49
sg9
g49
sg11
g20
sg12
S'DET'
p747
sg14
g15
sg16
g20
sg17
g15
sg19
g20
sg21
g49
sg22
S'65.8'
p748
sg24
g10
sg26
S'24.5'
p749
sg28
S'10/03'
p750
sg30
S'100.0'
p751
sg32
S'Mason Crosby'
p752
sg34
S'W28-26'
p753
sg36
S'2010'
p754
sg38
g20
sg39
S'--'
p755
sg41
g49
sg42
g20
ssg89
(dp756
g5
g20
sg7
g89
sg9
g10
sg11
g20
sg12
S'MIN'
p757
sg14
g15
sg16
g20
sg17
g20
sg19
g20
sg21
g49
sg22
S'53.0'
p758
sg24
g10
sg26
S'16.6'
p759
sg28
S'10/24'
p760
sg30
S'100.0'
p761
sg32
S'Mason Crosby'
p762
sg34
S'W28-24'
p763
sg36
S'2010'
p764
sg38
g20
sg39
S'--'
p765
sg41
g49
sg42
g20
ssg145
(dp766
g5
S'46'
p767
sg7
g145
sg9
g145
sg11
g18
sg12
S'MIA'
p768
sg14
g15
sg16
g18
sg17
g20
sg19
g20
sg21
g18
sg22
S'62.3'
p769
sg24
g145
sg26
S'23.3'
p770
sg28
S'10/17'
p771
sg30
S'100.0'
p772
sg32
S'Mason Crosby'
p773
sg34
S'L20-23'
p774
sg36
S'2010'
p775
sg38
g20
sg39
S'100.0'
p776
sg41
g18
sg42
g20
ssg213
(dp777
g5
S'26'
p778
sg7
g213
sg9
g89
sg11
g18
sg12
S'DAL'
p779
sg14
g15
sg16
g15
sg17
g20
sg19
g20
sg21
g145
sg22
S'63.9'
p780
sg24
g25
sg26
S'24.6'
p781
sg28
S'11/07'
p782
sg30
S'100.0'
p783
sg32
S'Mason Crosby'
p784
sg34
S'W45-7'
p785
sg36
S'2010'
p786
sg38
g20
sg39
S'50.0'
p787
sg41
g145
sg42
g15
ssg25
(dp788
g5
S'41'
p789
sg7
g25
sg9
g49
sg11
g49
sg12
S'@NYJ'
p790
sg14
g15
sg16
g61
sg17
g20
sg19
g20
sg21
g20
sg22
S'68.3'
p791
sg24
g49
sg26
S'30.3'
p792
sg28
S'10/31'
p793
sg30
S'--'
p794
sg32
S'Mason Crosby'
p795
sg34
S'W9-0'
p796
sg36
S'2010'
p797
sg38
g20
sg39
S'75.0'
p798
sg41
g20
sg42
g20
sssS'2013'
p799
(dp800
g3
(dp801
g5
S'57'
p802
sg7
S'11'
p803
sg9
g18
sg11
g18
sg12
S'@NYG'
p804
sg14
g15
sg16
g18
sg17
g15
sg19
g20
sg21
g15
sg22
S'66.7'
p805
sg24
g61
sg26
S'17.5'
p806
sg28
S'11/17'
p807
sg30
S'100.0'
p808
sg32
S'Mason Crosby'
p809
sg34
S'L13-27'
p810
sg36
S'2013'
p811
sg38
g20
sg39
S'100.0'
p812
sg41
g15
sg42
g20
ssg43
(dp813
g5
S'35'
p814
sg7
S'10'
p815
sg9
g18
sg11
g49
sg12
S'PHI'
p816
sg14
g15
sg16
g18
sg17
g18
sg19
g20
sg21
g15
sg22
S'56.8'
p817
sg24
g49
sg26
S'5.0'
p818
sg28
S'11/10'
p819
sg30
S'100.0'
p820
sg32
S'Mason Crosby'
p821
sg34
S'L13-27'
p822
sg36
S'2013'
p823
sg38
g20
sg39
S'50.0'
p824
sg41
g15
sg42
g20
ssg57
(dp825
g5
S'54'
p826
sg7
S'13'
p827
sg9
g18
sg11
g15
sg12
S'@DET'
p828
sg14
g15
sg16
g15
sg17
g15
sg19
g20
sg21
g15
sg22
S'69.0'
p829
sg24
g61
sg26
S'28.5'
p830
sg28
S'11/28'
p831
sg30
S'100.0'
p832
sg32
S'Mason Crosby'
p833
sg34
S'L10-40'
p834
sg36
S'2013'
p835
sg38
g20
sg39
S'100.0'
p836
sg41
g15
sg42
g20
ssg70
(dp837
g5
S'27'
p838
sg7
S'12'
p839
sg9
g10
sg11
g18
sg12
S'MIN'
p840
sg14
g15
sg16
g18
sg17
g20
sg19
g20
sg21
g18
sg22
S'56.8'
p841
sg24
g145
sg26
S'28.6'
p842
sg28
S'11/24'
p843
sg30
S'100.0'
p844
sg32
S'Mason Crosby'
p845
sg34
S'T26-26'
p846
sg36
S'2013'
p847
sg38
g20
sg39
S'100.0'
p848
sg41
g18
sg42
g20
ssg83
(dp849
g5
S'57'
p850
sg7
S'15'
p851
sg9
g18
sg11
g15
sg12
S'@DAL'
p852
sg14
g15
sg16
g15
sg17
g10
sg19
g20
sg21
g49
sg22
S'70.1'
p853
sg24
g89
sg26
S'23.0'
p854
sg28
S'12/15'
p855
sg30
S'100.0'
p856
sg32
S'Mason Crosby'
p857
sg34
S'W37-36'
p858
sg36
S'2013'
p859
sg38
g20
sg39
S'100.0'
p860
sg41
g49
sg42
g20
ssg97
(dp861
g5
S'40'
p862
sg7
S'14'
p863
sg9
g145
sg11
g61
sg12
S'ATL'
p864
sg14
g15
sg16
g61
sg17
g20
sg19
g20
sg21
g15
sg22
S'62.0'
p865
sg24
g145
sg26
S'21.0'
p866
sg28
S'12/08'
p867
sg30
S'100.0'
p868
sg32
S'Mason Crosby'
p869
sg34
S'W22-21'
p870
sg36
S'2013'
p871
sg38
g20
sg39
S'100.0'
p872
sg41
g15
sg42
g20
ssg109
(dp873
g5
S'33'
p874
sg7
S'17'
p875
sg9
g89
sg11
g18
sg12
S'@CHI'
p876
sg14
g15
sg16
g18
sg17
g20
sg19
g20
sg21
g61
sg22
S'55.1'
p877
sg24
g89
sg26
S'18.9'
p878
sg28
S'12/29'
p879
sg30
S'100.0'
p880
sg32
S'Mason Crosby'
p881
sg34
S'W33-28'
p882
sg36
S'2013'
p883
sg38
g20
sg39
S'100.0'
p884
sg41
g61
sg42
g20
ssg122
(dp885
g5
S'22'
p886
sg7
S'16'
p887
sg9
g10
sg11
g15
sg12
S'PIT'
p888
sg14
g15
sg16
g15
sg17
g15
sg19
g20
sg21
g49
sg22
S'59.5'
p889
sg24
g145
sg26
S'23.4'
p890
sg28
S'12/22'
p891
sg30
S'100.0'
p892
sg32
S'Mason Crosby'
p893
sg34
S'L31-38'
p894
sg36
S'2013'
p895
sg38
g20
sg39
S'100.0'
p896
sg41
g49
sg42
g20
ssg15
(dp897
g5
g20
sg7
g15
sg9
S'--'
p898
sg11
g20
sg12
S'@SF'
p899
sg14
g15
sg16
g20
sg17
S'--'
p900
sg19
g20
sg21
g49
sg22
S'--'
p901
sg24
S'--'
p902
sg26
S'--'
p903
sg28
S'09/08'
p904
sg30
S'100.0'
p905
sg32
S'Mason Crosby'
p906
sg34
S'L28-34'
p907
sg36
S'2013'
p908
sg38
g20
sg39
S'--'
p909
sg41
g49
sg42
g20
ssg61
(dp910
g5
S'41'
p911
sg7
g61
sg9
S'--'
p912
sg11
g61
sg12
S'@CIN'
p913
sg14
g15
sg16
g61
sg17
S'--'
p914
sg19
g20
sg21
g61
sg22
S'--'
p915
sg24
S'--'
p916
sg26
S'--'
p917
sg28
S'09/22'
p918
sg30
S'100.0'
p919
sg32
S'Mason Crosby'
p920
sg34
S'L30-34'
p921
sg36
S'2013'
p922
sg38
g20
sg39
S'100.0'
p923
sg41
g61
sg42
g20
ssg18
(dp924
g5
S'28'
p925
sg7
g18
sg9
S'--'
p926
sg11
g15
sg12
S'WAS'
p927
sg14
g15
sg16
g15
sg17
S'--'
p928
sg19
g20
sg21
g10
sg22
S'--'
p929
sg24
S'--'
p930
sg26
S'--'
p931
sg28
S'09/15'
p932
sg30
S'100.0'
p933
sg32
S'Mason Crosby'
p934
sg34
S'W38-20'
p935
sg36
S'2013'
p936
sg38
g20
sg39
S'100.0'
p937
sg41
g10
sg42
g20
ssg10
(dp938
g5
S'52'
p939
sg7
g10
sg9
S'--'
p940
sg11
g10
sg12
S'DET'
p941
sg14
g15
sg16
g10
sg17
S'--'
p942
sg19
g20
sg21
g15
sg22
S'--'
p943
sg24
S'--'
p944
sg26
S'--'
p945
sg28
S'10/06'
p946
sg30
S'100.0'
p947
sg32
S'Mason Crosby'
p948
sg34
S'W22-9'
p949
sg36
S'2013'
p950
sg38
g20
sg39
S'100.0'
p951
sg41
g15
sg42
g20
ssg49
(dp952
g5
g198
sg7
g49
sg9
g198
sg11
g198
sg12
g198
sg14
g198
sg16
g198
sg17
g198
sg19
g198
sg21
g198
sg22
g198
sg24
g198
sg26
g198
sg28
S'Bye'
p953
sg30
g198
sg32
S'Mason Crosby'
p954
sg34
g198
sg36
S'2013'
p955
sg38
g198
sg39
g198
sg41
g198
sg42
g198
ssg89
(dp956
g5
S'26'
p957
sg7
g89
sg9
g18
sg11
g18
sg12
S'CLE'
p958
sg14
g15
sg16
g15
sg17
g20
sg19
g20
sg21
g49
sg22
S'63.0'
p959
sg24
g18
sg26
S'36.0'
p960
sg28
S'10/20'
p961
sg30
S'100.0'
p962
sg32
S'Mason Crosby'
p963
sg34
S'W31-13'
p964
sg36
S'2013'
p965
sg38
g20
sg39
S'50.0'
p966
sg41
g49
sg42
g20
ssg145
(dp967
g5
S'50'
p968
sg7
g145
sg9
S'--'
p969
sg11
g10
sg12
S'@BAL'
p970
sg14
g15
sg16
g49
sg17
S'--'
p971
sg19
g20
sg21
g15
sg22
S'--'
p972
sg24
S'--'
p973
sg26
S'--'
p974
sg28
S'10/13'
p975
sg30
S'100.0'
p976
sg32
S'Mason Crosby'
p977
sg34
S'W19-17'
p978
sg36
S'2013'
p979
sg38
g20
sg39
S'80.0'
p980
sg41
g15
sg42
g20
ssg213
(dp981
g5
S'30'
p982
sg7
g213
sg9
g49
sg11
g18
sg12
S'CHI'
p983
sg14
g15
sg16
g18
sg17
g20
sg19
g20
sg21
g18
sg22
S'56.4'
p984
sg24
g10
sg26
S'22.5'
p985
sg28
S'11/04'
p986
sg30
S'100.0'
p987
sg32
S'Mason Crosby'
p988
sg34
S'L20-27'
p989
sg36
S'2013'
p990
sg38
g20
sg39
S'100.0'
p991
sg41
g18
sg42
g20
ssg25
(dp992
g5
S'45'
p993
sg7
g25
sg9
g10
sg11
g61
sg12
S'@MIN'
p994
sg14
g15
sg16
g61
sg17
g61
sg19
g20
sg21
g10
sg22
S'66.4'
p995
sg24
g25
sg26
S'27.6'
p996
sg28
S'10/27'
p997
sg30
S'100.0'
p998
sg32
S'Mason Crosby'
p999
sg34
S'W44-31'
p1000
sg36
S'2013'
p1001
sg38
g20
sg39
S'100.0'
p1002
sg41
g10
sg42
g20
sssS'2012'
p1003
(dp1004
g3
(dp1005
g5
S'39'
p1006
sg7
S'11'
p1007
sg9
g49
sg11
g61
sg12
S'@DET'
p1008
sg14
g15
sg16
g15
sg17
g15
sg19
g20
sg21
g61
sg22
S'55.2'
p1009
sg24
g10
sg26
S'16.0'
p1010
sg28
S'11/18'
p1011
sg30
S'100.0'
p1012
sg32
S'Mason Crosby'
p1013
sg34
S'W24-20'
p1014
sg36
S'2012'
p1015
sg38
g20
sg39
S'33.3'
p1016
sg41
g61
sg42
g20
ssg43
(dp1017
g5
g198
sg7
S'10'
p1018
sg9
g198
sg11
g198
sg12
g198
sg14
g198
sg16
g198
sg17
g198
sg19
g198
sg21
g198
sg22
g198
sg24
g198
sg26
g198
sg28
S'Bye'
p1019
sg30
g198
sg32
S'Mason Crosby'
p1020
sg34
g198
sg36
S'2012'
p1021
sg38
g198
sg39
g198
sg41
g198
sg42
g198
ssg57
(dp1022
g5
S'47'
p1023
sg7
S'13'
p1024
sg9
g18
sg11
g49
sg12
S'MIN'
p1025
sg14
g15
sg16
g61
sg17
g61
sg19
g20
sg21
g18
sg22
S'69.5'
p1026
sg24
g145
sg26
S'26.5'
p1027
sg28
S'12/02'
p1028
sg30
S'100.0'
p1029
sg32
S'Mason Crosby'
p1030
sg34
S'W23-14'
p1031
sg36
S'2012'
p1032
sg38
g20
sg39
S'75.0'
p1033
sg41
g18
sg42
g20
ssg70
(dp1034
g5
S'28'
p1035
sg7
S'12'
p1036
sg9
g61
sg11
g18
sg12
S'@NYG'
p1037
sg14
g15
sg16
g15
sg17
g20
sg19
g20
sg21
g15
sg22
S'65.7'
p1038
sg24
g61
sg26
S'24.0'
p1039
sg28
S'11/25'
p1040
sg30
S'100.0'
p1041
sg32
S'Mason Crosby'
p1042
sg34
S'L10-38'
p1043
sg36
S'2012'
p1044
sg38
g20
sg39
S'50.0'
p1045
sg41
g15
sg42
g20
ssg83
(dp1046
g5
g20
sg7
S'15'
p1047
sg9
g18
sg11
g18
sg12
S'@CHI'
p1048
sg14
g15
sg16
g20
sg17
g18
sg19
g20
sg21
g61
sg22
S'66.5'
p1049
sg24
g49
sg26
S'31.5'
p1050
sg28
S'12/16'
p1051
sg30
S'100.0'
p1052
sg32
S'Mason Crosby'
p1053
sg34
S'W21-13'
p1054
sg36
S'2012'
p1055
sg38
g20
sg39
S'0.0'
p1056
sg41
g61
sg42
g20
ssg97
(dp1057
g5
S'49'
p1058
sg7
S'14'
p1059
sg9
g49
sg11
g61
sg12
S'DET'
p1060
sg14
g15
sg16
g18
sg17
g18
sg19
g20
sg21
g61
sg22
S'61.2'
p1061
sg24
g145
sg26
S'20.3'
p1062
sg28
S'12/09'
p1063
sg30
S'100.0'
p1064
sg32
S'Mason Crosby'
p1065
sg34
S'W27-20'
p1066
sg36
S'2012'
p1067
sg38
g20
sg39
S'66.7'
p1068
sg41
g61
sg42
g20
ssg109
(dp1069
g5
S'51'
p1070
sg7
S'17'
p1071
sg9
g145
sg11
g18
sg12
S'@MIN'
p1072
sg14
g15
sg16
g18
sg17
g20
sg19
g20
sg21
g49
sg22
S'68.8'
p1073
sg24
g145
sg26
S'28.5'
p1074
sg28
S'12/30'
p1075
sg30
S'100.0'
p1076
sg32
S'Mason Crosby'
p1077
sg34
S'L34-37'
p1078
sg36
S'2012'
p1079
sg38
g20
sg39
S'100.0'
p1080
sg41
g49
sg42
g20
ssg122
(dp1081
g5
S'48'
p1082
sg7
S'16'
p1083
sg9
g213
sg11
g18
sg12
S'TEN'
p1084
sg14
g15
sg16
g18
sg17
g15
sg19
g20
sg21
g89
sg22
S'59.7'
p1085
sg24
S'10'
p1086
sg26
S'19.6'
p1087
sg28
S'12/23'
p1088
sg30
S'100.0'
p1089
sg32
S'Mason Crosby'
p1090
sg34
S'W55-7'
p1091
sg36
S'2012'
p1092
sg38
g20
sg39
S'100.0'
p1093
sg41
g89
sg42
g20
ssg15
(dp1094
g5
g20
sg7
g15
sg9
g15
sg11
g20
sg12
S'SF'
p1095
sg14
g15
sg16
g20
sg17
g61
sg19
g20
sg21
g18
sg22
S'72.5'
p1096
sg24
g49
sg26
S'31.0'
p1097
sg28
S'09/09'
p1098
sg30
S'100.0'
p1099
sg32
S'Mason Crosby'
p1100
sg34
S'L22-30'
p1101
sg36
S'2012'
p1102
sg38
g20
sg39
S'--'
p1103
sg41
g18
sg42
g20
ssg61
(dp1104
g5
S'40'
p1105
sg7
g61
sg9
g18
sg11
g18
sg12
S'@SEA'
p1106
sg14
g15
sg16
g18
sg17
g18
sg19
g20
sg21
g20
sg22
S'64.5'
p1107
sg24
g49
sg26
S'21.0'
p1108
sg28
S'09/24'
p1109
sg30
S'--'
p1110
sg32
S'Mason Crosby'
p1111
sg34
S'L12-14'
p1112
sg36
S'2012'
p1113
sg38
g20
sg39
S'100.0'
p1114
sg41
g20
sg42
g20
ssg18
(dp1115
g5
S'54'
p1116
sg7
g18
sg9
g18
sg11
g61
sg12
S'CHI'
p1117
sg14
g15
sg16
g61
sg17
g61
sg19
g20
sg21
g18
sg22
S'66.8'
p1118
sg24
g10
sg26
S'28.5'
p1119
sg28
S'09/13'
p1120
sg30
S'100.0'
p1121
sg32
S'Mason Crosby'
p1122
sg34
S'W23-10'
p1123
sg36
S'2012'
p1124
sg38
g20
sg39
S'100.0'
p1125
sg41
g18
sg42
g20
ssg10
(dp1126
g5
g20
sg7
g10
sg9
g20
sg11
g18
sg12
S'@IND'
p1127
sg14
g15
sg16
g20
sg17
g10
sg19
g20
sg21
g61
sg22
S'69.2'
p1128
sg24
g10
sg26
S'--'
p1129
sg28
S'10/07'
p1130
sg30
S'100.0'
p1131
sg32
S'Mason Crosby'
p1132
sg34
S'L27-30'
p1133
sg36
S'2012'
p1134
sg38
g20
sg39
S'0.0'
p1135
sg41
g61
sg42
g20
ssg49
(dp1136
g5
g20
sg7
g49
sg9
g61
sg11
g20
sg12
S'NO'
p1137
sg14
g15
sg16
g20
sg17
g18
sg19
g20
sg21
g49
sg22
S'68.0'
p1138
sg24
g10
sg26
S'30.3'
p1139
sg28
S'09/30'
p1140
sg30
S'100.0'
p1141
sg32
S'Mason Crosby'
p1142
sg34
S'W28-27'
p1143
sg36
S'2012'
p1144
sg38
g20
sg39
S'--'
p1145
sg41
g49
sg42
g20
ssg89
(dp1146
g5
S'48'
p1147
sg7
g89
sg9
g61
sg11
g49
sg12
S'@STL'
p1148
sg14
g15
sg16
g61
sg17
g61
sg19
g20
sg21
g61
sg22
S'63.0'
p1149
sg24
g89
sg26
S'27.3'
p1150
sg28
S'10/21'
p1151
sg30
S'100.0'
p1152
sg32
S'Mason Crosby'
p1153
sg34
S'W30-20'
p1154
sg36
S'2012'
p1155
sg38
g20
sg39
S'75.0'
p1156
sg41
g61
sg42
g20
ssg145
(dp1157
g5
g20
sg7
g145
sg9
g61
sg11
g20
sg12
S'@HOU'
p1158
sg14
g15
sg16
g20
sg17
g49
sg19
g20
sg21
g145
sg22
S'65.6'
p1159
sg24
g89
sg26
S'21.7'
p1160
sg28
S'10/14'
p1161
sg30
S'100.0'
p1162
sg32
S'Mason Crosby'
p1163
sg34
S'W42-24'
p1164
sg36
S'2012'
p1165
sg38
g20
sg39
S'--'
p1166
sg41
g145
sg42
g20
ssg213
(dp1167
g5
S'33'
p1168
sg7
g213
sg9
g61
sg11
g18
sg12
S'ARI'
p1169
sg14
g15
sg16
g15
sg17
g61
sg19
g20
sg21
g49
sg22
S'67.2'
p1170
sg24
g145
sg26
S'20.3'
p1171
sg28
S'11/04'
p1172
sg30
S'100.0'
p1173
sg32
S'Mason Crosby'
p1174
sg34
S'W31-17'
p1175
sg36
S'2012'
p1176
sg38
g20
sg39
S'50.0'
p1177
sg41
g49
sg42
g20
ssg25
(dp1178
g5
S'25'
p1179
sg7
g25
sg9
g49
sg11
g18
sg12
S'JAC'
p1180
sg14
g15
sg16
g15
sg17
g15
sg19
g20
sg21
g61
sg22
S'67.4'
p1181
sg24
g10
sg26
S'21.0'
p1182
sg28
S'10/28'
p1183
sg30
S'100.0'
p1184
sg32
S'Mason Crosby'
p1185
sg34
S'W24-15'
p1186
sg36
S'2012'
p1187
sg38
g20
sg39
S'50.0'
p1188
sg41
g61
sg42
g20
sss.