(dp0
S'2015'
p1
(dp2
S'11'
p3
(dp4
S'FGLng'
p5
S'51'
p6
sS'WK'
p7
S'11'
p8
sS'Ret'
p9
S'--'
p10
sS'FGAtt'
p11
S'3'
p12
sS'Opp'
p13
S'OAK'
p14
sS'G'
p15
S'1'
p16
sS'FGM'
p17
g12
sS'TB'
p18
S'--'
p19
sS'GS'
p20
S'0'
p21
sS'XPM'
p22
g16
sS'KOAvg'
p23
S'--'
p24
sS'KO'
p25
S'--'
p26
sS'RetAvg'
p27
S'--'
p28
sS'Game Date'
p29
S'11/22'
p30
sS'XPPct'
p31
S'100.0'
p32
sS'Player'
p33
S'Matt Prater'
p34
sS'Result'
p35
S'W18-13'
p36
sS'Year'
p37
S'2015'
p38
sS'XPBlk'
p39
g21
sS'FGPct'
p40
S'100.0'
p41
sS'XPAtt'
p42
g16
sS'FGBlk'
p43
g21
ssS'10'
p44
(dp45
g5
S'51'
p46
sg7
S'10'
p47
sg9
g16
sg11
S'2'
p48
sg13
S'@GB'
p49
sg15
g16
sg17
g48
sg18
g21
sg20
g21
sg22
g21
sg23
S'63.0'
p50
sg25
g16
sg27
S'25.0'
p51
sg29
S'11/15'
p52
sg31
S'0.0'
p53
sg33
S'Matt Prater'
p54
sg35
S'W18-16'
p55
sg37
S'2015'
p56
sg39
g21
sg40
S'100.0'
p57
sg42
g48
sg43
g21
ssS'13'
p58
(dp59
g5
S'51'
p60
sg7
S'13'
p61
sg9
S'--'
p62
sg11
g12
sg13
S'GB'
p63
sg15
g16
sg17
g12
sg18
S'--'
p64
sg20
g21
sg22
g48
sg23
S'--'
p65
sg25
S'--'
p66
sg27
S'--'
p67
sg29
S'12/03'
p68
sg31
S'100.0'
p69
sg33
S'Matt Prater'
p70
sg35
S'L23-27'
p71
sg37
S'2015'
p72
sg39
g21
sg40
S'100.0'
p73
sg42
g48
sg43
g21
ssS'12'
p74
(dp75
g5
S'48'
p76
sg7
S'12'
p77
sg9
S'--'
p78
sg11
g16
sg13
S'PHI'
p79
sg15
g16
sg17
g16
sg18
S'--'
p80
sg20
g21
sg22
S'6'
p81
sg23
S'--'
p82
sg25
S'--'
p83
sg27
S'--'
p84
sg29
S'11/26'
p85
sg31
S'100.0'
p86
sg33
S'Matt Prater'
p87
sg35
S'W45-14'
p88
sg37
S'2015'
p89
sg39
g21
sg40
S'100.0'
p90
sg42
g81
sg43
g21
ssS'15'
p91
(dp92
g5
g21
sg7
S'15'
p93
sg9
S'--'
p94
sg11
g16
sg13
S'@NO'
p95
sg15
g16
sg17
g21
sg18
S'--'
p96
sg20
g21
sg22
S'5'
p97
sg23
S'--'
p98
sg25
S'--'
p99
sg27
S'--'
p100
sg29
S'12/21'
p101
sg31
S'100.0'
p102
sg33
S'Matt Prater'
p103
sg35
S'W35-27'
p104
sg37
S'2015'
p105
sg39
g21
sg40
S'0.0'
p106
sg42
g97
sg43
g21
ssS'14'
p107
(dp108
g5
g21
sg7
S'14'
p109
sg9
S'--'
p110
sg11
g21
sg13
S'@STL'
p111
sg15
g16
sg17
g21
sg18
S'--'
p112
sg20
g21
sg22
g48
sg23
S'--'
p113
sg25
S'--'
p114
sg27
S'--'
p115
sg29
S'12/13'
p116
sg31
S'100.0'
p117
sg33
S'Matt Prater'
p118
sg35
S'L14-21'
p119
sg37
S'2015'
p120
sg39
g21
sg40
S'--'
p121
sg42
g48
sg43
g21
ssS'17'
p122
(dp123
g5
S'59'
p124
sg7
S'17'
p125
sg9
S'--'
p126
sg11
g48
sg13
S'@CHI'
p127
sg15
g16
sg17
g16
sg18
S'--'
p128
sg20
g21
sg22
g12
sg23
S'--'
p129
sg25
S'--'
p130
sg27
S'--'
p131
sg29
S'01/03'
p132
sg31
S'100.0'
p133
sg33
S'Matt Prater'
p134
sg35
S'W24-20'
p135
sg37
S'2015'
p136
sg39
g21
sg40
S'50.0'
p137
sg42
g12
sg43
g21
ssS'16'
p138
(dp139
g5
S'38'
p140
sg7
S'16'
p141
sg9
S'--'
p142
sg11
S'4'
p143
sg13
S'SF'
p144
sg15
g16
sg17
g143
sg18
S'--'
p145
sg20
g21
sg22
g48
sg23
S'--'
p146
sg25
S'--'
p147
sg27
S'--'
p148
sg29
S'12/27'
p149
sg31
S'100.0'
p150
sg33
S'Matt Prater'
p151
sg35
S'W32-17'
p152
sg37
S'2015'
p153
sg39
g21
sg40
S'100.0'
p154
sg42
g48
sg43
g21
ssg16
(dp155
g5
g21
sg7
g16
sg9
S'--'
p156
sg11
g21
sg13
S'@SD'
p157
sg15
g16
sg17
g21
sg18
S'--'
p158
sg20
g21
sg22
g143
sg23
S'--'
p159
sg25
S'--'
p160
sg27
S'--'
p161
sg29
S'09/13'
p162
sg31
S'100.0'
p163
sg33
S'Matt Prater'
p164
sg35
S'L28-33'
p165
sg37
S'2015'
p166
sg39
g21
sg40
S'--'
p167
sg42
g143
sg43
g21
ssg12
(dp168
g5
g21
sg7
g12
sg9
S'--'
p169
sg11
g21
sg13
S'DEN'
p170
sg15
g16
sg17
g21
sg18
S'--'
p171
sg20
g21
sg22
g21
sg23
S'--'
p172
sg25
S'--'
p173
sg27
S'--'
p174
sg29
S'09/27'
p175
sg31
S'0.0'
p176
sg33
S'Matt Prater'
p177
sg35
S'L12-24'
p178
sg37
S'2015'
p179
sg39
g16
sg40
S'--'
p180
sg42
g16
sg43
g21
ssg48
(dp181
g5
S'26'
p182
sg7
g48
sg9
S'--'
p183
sg11
g16
sg13
S'@MIN'
p184
sg15
g16
sg17
g16
sg18
S'--'
p185
sg20
g21
sg22
g16
sg23
S'--'
p186
sg25
S'--'
p187
sg27
S'--'
p188
sg29
S'09/20'
p189
sg31
S'100.0'
p190
sg33
S'Matt Prater'
p191
sg35
S'L16-26'
p192
sg37
S'2015'
p193
sg39
g21
sg40
S'100.0'
p194
sg42
g16
sg43
g21
ssg97
(dp195
g5
S'40'
p196
sg7
g97
sg9
g21
sg11
g16
sg13
S'ARI'
p197
sg15
g16
sg17
g16
sg18
g21
sg20
g21
sg22
g48
sg23
S'60.0'
p198
sg25
g16
sg27
S'--'
p199
sg29
S'10/11'
p200
sg31
S'100.0'
p201
sg33
S'Matt Prater'
p202
sg35
S'L17-42'
p203
sg37
S'2015'
p204
sg39
g21
sg40
S'100.0'
p205
sg42
g48
sg43
g21
ssg143
(dp206
g5
S'41'
p207
sg7
g143
sg9
g48
sg11
g16
sg13
S'@SEA'
p208
sg15
g16
sg17
g16
sg18
g21
sg20
g21
sg22
g16
sg23
S'50.0'
p209
sg25
g48
sg27
S'13.5'
p210
sg29
S'10/05'
p211
sg31
S'100.0'
p212
sg33
S'Matt Prater'
p213
sg35
S'L10-13'
p214
sg37
S'2015'
p215
sg39
g21
sg40
S'100.0'
p216
sg42
g16
sg43
g21
ssS'7'
p217
(dp218
g5
S'52'
p219
sg7
g217
sg9
S'--'
p220
sg11
g16
sg13
S'MIN'
p221
sg15
g16
sg17
g16
sg18
S'--'
p222
sg20
g21
sg22
g48
sg23
S'--'
p223
sg25
S'--'
p224
sg27
S'--'
p225
sg29
S'10/25'
p226
sg31
S'100.0'
p227
sg33
S'Matt Prater'
p228
sg35
S'L19-28'
p229
sg37
S'2015'
p230
sg39
g21
sg40
S'100.0'
p231
sg42
g48
sg43
g21
ssg81
(dp232
g5
S'39'
p233
sg7
g81
sg9
S'--'
p234
sg11
g12
sg13
S'CHI'
p235
sg15
g16
sg17
g12
sg18
S'--'
p236
sg20
g21
sg22
g143
sg23
S'--'
p237
sg25
S'--'
p238
sg27
S'--'
p239
sg29
S'10/18'
p240
sg31
S'100.0'
p241
sg33
S'Matt Prater'
p242
sg35
S'W37-34'
p243
sg37
S'2015'
p244
sg39
g21
sg40
S'100.0'
p245
sg42
g143
sg43
g21
ssS'9'
p246
(dp247
g5
S''
p248
sg7
g246
sg9
g248
sg11
g248
sg13
g248
sg15
g248
sg17
g248
sg18
g248
sg20
g248
sg22
g248
sg23
g248
sg25
g248
sg27
g248
sg29
S'Bye'
p249
sg31
g248
sg33
S'Matt Prater'
p250
sg35
g248
sg37
S'2015'
p251
sg39
g248
sg40
g248
sg42
g248
sg43
g248
ssS'8'
p252
(dp253
g5
S'35'
p254
sg7
g252
sg9
S'--'
p255
sg11
g16
sg13
S'@KC'
p256
sg15
g16
sg17
g16
sg18
S'--'
p257
sg20
g21
sg22
g16
sg23
S'--'
p258
sg25
S'--'
p259
sg27
S'--'
p260
sg29
S'11/01'
p261
sg31
S'100.0'
p262
sg33
S'Matt Prater'
p263
sg35
S'L10-45'
p264
sg37
S'2015'
p265
sg39
g21
sg40
S'100.0'
p266
sg42
g16
sg43
g21
sssS'2014'
p267
(dp268
g3
(dp269
g5
S'50'
p270
sg7
S'11'
p271
sg9
S'--'
p272
sg11
g48
sg13
S'@ARI'
p273
sg15
g16
sg17
g48
sg18
S'--'
p274
sg20
g21
sg22
g21
sg23
S'--'
p275
sg25
S'--'
p276
sg27
S'--'
p277
sg29
S'11/16'
p278
sg31
S'--'
p279
sg33
S'Matt Prater'
p280
sg35
S'L6-14'
p281
sg37
S'2014'
p282
sg39
g21
sg40
S'100.0'
p283
sg42
g21
sg43
g21
ssg44
(dp284
g5
S'50'
p285
sg7
S'10'
p286
sg9
S'--'
p287
sg11
g12
sg13
S'MIA'
p288
sg15
g16
sg17
g48
sg18
S'--'
p289
sg20
g21
sg22
g48
sg23
S'--'
p290
sg25
S'--'
p291
sg27
S'--'
p292
sg29
S'11/09'
p293
sg31
S'100.0'
p294
sg33
S'Matt Prater'
p295
sg35
S'W20-16'
p296
sg37
S'2014'
p297
sg39
g21
sg40
S'66.7'
p298
sg42
g48
sg43
g16
ssg58
(dp299
g5
S'46'
p300
sg7
S'13'
p301
sg9
S'--'
p302
sg11
g48
sg13
S'CHI'
p303
sg15
g16
sg17
g48
sg18
S'--'
p304
sg20
g21
sg22
g143
sg23
S'--'
p305
sg25
S'--'
p306
sg27
S'--'
p307
sg29
S'11/27'
p308
sg31
S'100.0'
p309
sg33
S'Matt Prater'
p310
sg35
S'W34-17'
p311
sg37
S'2014'
p312
sg39
g21
sg40
S'100.0'
p313
sg42
g143
sg43
g21
ssg74
(dp314
g5
S'49'
p315
sg7
S'12'
p316
sg9
S'--'
p317
sg11
g143
sg13
S'@NE'
p318
sg15
g16
sg17
g12
sg18
S'--'
p319
sg20
g21
sg22
g21
sg23
S'--'
p320
sg25
S'--'
p321
sg27
S'--'
p322
sg29
S'11/23'
p323
sg31
S'--'
p324
sg33
S'Matt Prater'
p325
sg35
S'L9-34'
p326
sg37
S'2014'
p327
sg39
g21
sg40
S'75.0'
p328
sg42
g21
sg43
g21
ssg91
(dp329
g5
S'33'
p330
sg7
S'15'
p331
sg9
S'--'
p332
sg11
g12
sg13
S'MIN'
p333
sg15
g16
sg17
g12
sg18
S'--'
p334
sg20
g21
sg22
g16
sg23
S'--'
p335
sg25
S'--'
p336
sg27
S'--'
p337
sg29
S'12/14'
p338
sg31
S'100.0'
p339
sg33
S'Matt Prater'
p340
sg35
S'W16-14'
p341
sg37
S'2014'
p342
sg39
g21
sg40
S'100.0'
p343
sg42
g16
sg43
g21
ssg107
(dp344
g5
S'46'
p345
sg7
S'14'
p346
sg9
S'--'
p347
sg11
g48
sg13
S'TB'
p348
sg15
g16
sg17
g48
sg18
S'--'
p349
sg20
g21
sg22
g143
sg23
S'--'
p350
sg25
S'--'
p351
sg27
S'--'
p352
sg29
S'12/07'
p353
sg31
S'100.0'
p354
sg33
S'Matt Prater'
p355
sg35
S'W34-17'
p356
sg37
S'2014'
p357
sg39
g21
sg40
S'100.0'
p358
sg42
g143
sg43
g21
ssg122
(dp359
g5
g21
sg7
S'17'
p360
sg9
S'--'
p361
sg11
g21
sg13
S'@GB'
p362
sg15
g16
sg17
g21
sg18
S'--'
p363
sg20
g21
sg22
g48
sg23
S'--'
p364
sg25
S'--'
p365
sg27
S'--'
p366
sg29
S'12/28'
p367
sg31
S'100.0'
p368
sg33
S'Matt Prater'
p369
sg35
S'L20-30'
p370
sg37
S'2014'
p371
sg39
g21
sg40
S'--'
p372
sg42
g48
sg43
g21
ssg138
(dp373
g5
S'39'
p374
sg7
S'16'
p375
sg9
S'--'
p376
sg11
g12
sg13
S'@CHI'
p377
sg15
g16
sg17
g48
sg18
S'--'
p378
sg20
g21
sg22
g48
sg23
S'--'
p379
sg25
S'--'
p380
sg27
S'--'
p381
sg29
S'12/21'
p382
sg31
S'100.0'
p383
sg33
S'Matt Prater'
p384
sg35
S'W20-14'
p385
sg37
S'2014'
p386
sg39
g21
sg40
S'66.7'
p387
sg42
g48
sg43
g16
ssg217
(dp388
g5
S'21'
p389
sg7
g217
sg9
S'--'
p390
sg11
g16
sg13
S'NO'
p391
sg15
g16
sg17
g16
sg18
S'--'
p392
sg20
g21
sg22
g12
sg23
S'--'
p393
sg25
S'--'
p394
sg27
S'--'
p395
sg29
S'10/19'
p396
sg31
S'100.0'
p397
sg33
S'Matt Prater'
p398
sg35
S'W24-23'
p399
sg37
S'2014'
p400
sg39
g21
sg40
S'100.0'
p401
sg42
g12
sg43
g21
ssg81
(dp402
g5
S'52'
p403
sg7
g81
sg9
S'--'
p404
sg11
g12
sg13
S'@MIN'
p405
sg15
g16
sg17
g16
sg18
S'--'
p406
sg20
g21
sg22
g48
sg23
S'--'
p407
sg25
S'--'
p408
sg27
S'--'
p409
sg29
S'10/12'
p410
sg31
S'100.0'
p411
sg33
S'Matt Prater'
p412
sg35
S'W17-3'
p413
sg37
S'2014'
p414
sg39
g21
sg40
S'33.3'
p415
sg42
g48
sg43
g21
ssg246
(dp416
g5
g248
sg7
g246
sg9
g248
sg11
g248
sg13
g248
sg15
g248
sg17
g248
sg18
g248
sg20
g248
sg22
g248
sg23
g248
sg25
g248
sg27
g248
sg29
S'Bye'
p417
sg31
g248
sg33
S'Matt Prater'
p418
sg35
g248
sg37
S'2014'
p419
sg39
g248
sg40
g248
sg42
g248
sg43
g248
ssg252
(dp420
g5
S'48'
p421
sg7
g252
sg9
S'--'
p422
sg11
g12
sg13
S'@ATL'
p423
sg15
g16
sg17
g12
sg18
S'--'
p424
sg20
g21
sg22
g16
sg23
S'--'
p425
sg25
S'--'
p426
sg27
S'--'
p427
sg29
S'10/26'
p428
sg31
S'100.0'
p429
sg33
S'Matt Prater'
p430
sg35
S'W22-21'
p431
sg37
S'2014'
p432
sg39
g21
sg40
S'100.0'
p433
sg42
g16
sg43
g21
sssS'2011'
p434
(dp435
g3
(dp436
g5
S'37'
p437
sg7
S'11'
p438
sg9
g48
sg11
g16
sg13
S'NYJ'
p439
sg15
g16
sg17
g16
sg18
g48
sg20
g21
sg22
g48
sg23
S'70.5'
p440
sg25
g143
sg27
S'31.0'
p441
sg29
S'11/17'
p442
sg31
S'100.0'
p443
sg33
S'Matt Prater'
p444
sg35
S'W17-13'
p445
sg37
S'2011'
p446
sg39
g21
sg40
S'100.0'
p447
sg42
g48
sg43
g21
ssg44
(dp448
g5
S'38'
p449
sg7
S'10'
p450
sg9
g12
sg11
g48
sg13
S'@KC'
p451
sg15
g16
sg17
g16
sg18
g16
sg20
g21
sg22
g48
sg23
S'64.8'
p452
sg25
g143
sg27
S'17.7'
p453
sg29
S'11/13'
p454
sg31
S'100.0'
p455
sg33
S'Matt Prater'
p456
sg35
S'W17-10'
p457
sg37
S'2011'
p458
sg39
g21
sg40
S'50.0'
p459
sg42
g48
sg43
g21
ssg58
(dp460
g5
S'46'
p461
sg7
S'13'
p462
sg9
g143
sg11
g48
sg13
S'@MIN'
p463
sg15
g16
sg17
g48
sg18
g48
sg20
g21
sg22
g12
sg23
S'70.2'
p464
sg25
g81
sg27
S'22.5'
p465
sg29
S'12/04'
p466
sg31
S'100.0'
p467
sg33
S'Matt Prater'
p468
sg35
S'W35-32'
p469
sg37
S'2011'
p470
sg39
g21
sg40
S'100.0'
p471
sg42
g12
sg43
g21
ssg74
(dp472
g5
S'41'
p473
sg7
S'12'
p474
sg9
g16
sg11
g12
sg13
S'@SD'
p475
sg15
g16
sg17
g12
sg18
g12
sg20
g21
sg22
g16
sg23
S'67.3'
p476
sg25
g143
sg27
S'21.0'
p477
sg29
S'11/27'
p478
sg31
S'100.0'
p479
sg33
S'Matt Prater'
p480
sg35
S'W16-13'
p481
sg37
S'2011'
p482
sg39
g21
sg40
S'100.0'
p483
sg42
g16
sg43
g21
ssg91
(dp484
g5
S'26'
p485
sg7
S'15'
p486
sg9
g21
sg11
g16
sg13
S'NE'
p487
sg15
g16
sg17
g16
sg18
g97
sg20
g21
sg22
g48
sg23
S'65.0'
p488
sg25
g97
sg27
S'--'
p489
sg29
S'12/18'
p490
sg31
S'100.0'
p491
sg33
S'Matt Prater'
p492
sg35
S'L23-41'
p493
sg37
S'2011'
p494
sg39
g21
sg40
S'100.0'
p495
sg42
g48
sg43
g21
ssg107
(dp496
g5
S'59'
p497
sg7
S'14'
p498
sg9
g16
sg11
g12
sg13
S'CHI'
p499
sg15
g16
sg17
g48
sg18
g48
sg20
g21
sg22
g16
sg23
S'55.0'
p500
sg25
g143
sg27
S'25.0'
p501
sg29
S'12/11'
p502
sg31
S'100.0'
p503
sg33
S'Matt Prater'
p504
sg35
S'W13-10'
p505
sg37
S'2011'
p506
sg39
g21
sg40
S'66.7'
p507
sg42
g16
sg43
g16
ssg122
(dp508
g5
S'38'
p509
sg7
S'17'
p510
sg9
g21
sg11
g16
sg13
S'KC'
p511
sg15
g16
sg17
g16
sg18
g48
sg20
g21
sg22
g21
sg23
S'65.0'
p512
sg25
g48
sg27
S'--'
p513
sg29
S'01/01'
p514
sg31
S'--'
p515
sg33
S'Matt Prater'
p516
sg35
S'L3-7'
p517
sg37
S'2011'
p518
sg39
g21
sg40
S'100.0'
p519
sg42
g21
sg43
g21
ssg138
(dp520
g5
g21
sg7
S'16'
p521
sg9
g12
sg11
g21
sg13
S'@BUF'
p522
sg15
g16
sg17
g21
sg18
g21
sg20
g21
sg22
g48
sg23
S'66.3'
p523
sg25
g12
sg27
S'33.7'
p524
sg29
S'12/24'
p525
sg31
S'100.0'
p526
sg33
S'Matt Prater'
p527
sg35
S'L14-40'
p528
sg37
S'2011'
p529
sg39
g21
sg40
S'--'
p530
sg42
g48
sg43
g21
ssg16
(dp531
g5
S'30'
p532
sg7
g16
sg9
g21
sg11
g12
sg13
S'OAK'
p533
sg15
g16
sg17
g48
sg18
g97
sg20
g21
sg22
g48
sg23
S'65.0'
p534
sg25
g97
sg27
S'--'
p535
sg29
S'09/12'
p536
sg31
S'100.0'
p537
sg33
S'Matt Prater'
p538
sg35
S'L20-23'
p539
sg37
S'2011'
p540
sg39
g21
sg40
S'66.7'
p541
sg42
g48
sg43
g21
ssg12
(dp542
g5
g21
sg7
g12
sg9
g21
sg11
g21
sg13
S'@TEN'
p543
sg15
g16
sg17
g21
sg18
g12
sg20
g21
sg22
g48
sg23
S'65.0'
p544
sg25
g12
sg27
S'--'
p545
sg29
S'09/25'
p546
sg31
S'100.0'
p547
sg33
S'Matt Prater'
p548
sg35
S'L14-17'
p549
sg37
S'2011'
p550
sg39
g21
sg40
S'--'
p551
sg42
g48
sg43
g21
ssg48
(dp552
g5
S'34'
p553
sg7
g48
sg9
g21
sg11
g16
sg13
S'CIN'
p554
sg15
g16
sg17
g16
sg18
g97
sg20
g21
sg22
g12
sg23
S'62.0'
p555
sg25
g97
sg27
S'--'
p556
sg29
S'09/18'
p557
sg31
S'100.0'
p558
sg33
S'Matt Prater'
p559
sg35
S'W24-22'
p560
sg37
S'2011'
p561
sg39
g21
sg40
S'100.0'
p562
sg42
g12
sg43
g21
ssg97
(dp563
g5
S'35'
p564
sg7
g97
sg9
g21
sg11
g16
sg13
S'SD'
p565
sg15
g16
sg17
g16
sg18
g97
sg20
g21
sg22
g16
sg23
S'65.0'
p566
sg25
g97
sg27
S'--'
p567
sg29
S'10/09'
p568
sg31
S'100.0'
p569
sg33
S'Matt Prater'
p570
sg35
S'L24-29'
p571
sg37
S'2011'
p572
sg39
g21
sg40
S'100.0'
p573
sg42
g16
sg43
g21
ssg143
(dp574
g5
S'27'
p575
sg7
g143
sg9
g48
sg11
g16
sg13
S'@GB'
p576
sg15
g16
sg17
g16
sg18
g48
sg20
g21
sg22
g48
sg23
S'60.8'
p577
sg25
g97
sg27
S'29.5'
p578
sg29
S'10/02'
p579
sg31
S'100.0'
p580
sg33
S'Matt Prater'
p581
sg35
S'L23-49'
p582
sg37
S'2011'
p583
sg39
g21
sg40
S'100.0'
p584
sg42
g48
sg43
g21
ssg217
(dp585
g5
S'52'
p586
sg7
g217
sg9
g21
sg11
g12
sg13
S'@MIA'
p587
sg15
g16
sg17
g16
sg18
g12
sg20
g21
sg22
g16
sg23
S'54.0'
p588
sg25
g143
sg27
S'--'
p589
sg29
S'10/23'
p590
sg31
S'100.0'
p591
sg33
S'Matt Prater'
p592
sg35
S'W18-15'
p593
sg37
S'2011'
p594
sg39
g21
sg40
S'33.3'
p595
sg42
g16
sg43
g21
ssg81
(dp596
g5
g248
sg7
g81
sg9
g248
sg11
g248
sg13
g248
sg15
g248
sg17
g248
sg18
g248
sg20
g248
sg22
g248
sg23
g248
sg25
g248
sg27
g248
sg29
S'Bye'
p597
sg31
g248
sg33
S'Matt Prater'
p598
sg35
g248
sg37
S'2011'
p599
sg39
g248
sg40
g248
sg42
g248
sg43
g248
ssg246
(dp600
g5
S'43'
p601
sg7
g246
sg9
g12
sg11
g48
sg13
S'@OAK'
p602
sg15
g16
sg17
g16
sg18
g143
sg20
g21
sg22
g97
sg23
S'66.7'
p603
sg25
g217
sg27
S'19.7'
p604
sg29
S'11/06'
p605
sg31
S'100.0'
p606
sg33
S'Matt Prater'
p607
sg35
S'W38-24'
p608
sg37
S'2011'
p609
sg39
g21
sg40
S'50.0'
p610
sg42
g97
sg43
g21
ssg252
(dp611
g5
S'39'
p612
sg7
g252
sg9
g21
sg11
g16
sg13
S'DET'
p613
sg15
g16
sg17
g16
sg18
g12
sg20
g21
sg22
g16
sg23
S'65.0'
p614
sg25
g12
sg27
S'--'
p615
sg29
S'10/30'
p616
sg31
S'100.0'
p617
sg33
S'Matt Prater'
p618
sg35
S'L10-45'
p619
sg37
S'2011'
p620
sg39
g21
sg40
S'100.0'
p621
sg42
g16
sg43
g21
sssS'2010'
p622
(dp623
g3
(dp624
g5
g21
sg7
S'11'
p625
sg9
g48
sg11
g21
sg13
S'@SD'
p626
sg15
g16
sg17
g21
sg18
g16
sg20
g21
sg22
g48
sg23
S'66.7'
p627
sg25
g12
sg27
S'25.0'
p628
sg29
S'11/22'
p629
sg31
S'100.0'
p630
sg33
S'Matt Prater'
p631
sg35
S'L14-35'
p632
sg37
S'2010'
p633
sg39
g21
sg40
S'--'
p634
sg42
g48
sg43
g21
ssg44
(dp635
g5
g21
sg7
S'10'
p636
sg9
g81
sg11
g16
sg13
S'KC'
p637
sg15
g16
sg17
g21
sg18
g48
sg20
g21
sg22
g217
sg23
S'69.1'
p638
sg25
g252
sg27
S'21.3'
p639
sg29
S'11/14'
p640
sg31
S'100.0'
p641
sg33
S'Matt Prater'
p642
sg35
S'W49-29'
p643
sg37
S'2010'
p644
sg39
g21
sg40
S'0.0'
p645
sg42
g217
sg43
g21
ssg58
(dp646
g5
S'41'
p647
sg7
S'13'
p648
sg9
g12
sg11
g48
sg13
S'@KC'
p649
sg15
g16
sg17
g48
sg18
g21
sg20
g21
sg22
g21
sg23
S'62.3'
p650
sg25
g12
sg27
S'20.0'
p651
sg29
S'12/05'
p652
sg31
S'--'
p653
sg33
S'Matt Prater'
p654
sg35
S'L6-10'
p655
sg37
S'2010'
p656
sg39
g21
sg40
S'100.0'
p657
sg42
g21
sg43
g21
ssg74
(dp658
g5
S'49'
p659
sg7
S'12'
p660
sg9
g12
sg11
g48
sg13
S'STL'
p661
sg15
g16
sg17
g48
sg18
g12
sg20
g21
sg22
g12
sg23
S'62.1'
p662
sg25
g217
sg27
S'29.0'
p663
sg29
S'11/28'
p664
sg31
S'100.0'
p665
sg33
S'Matt Prater'
p666
sg35
S'L33-36'
p667
sg37
S'2010'
p668
sg39
g21
sg40
S'100.0'
p669
sg42
g12
sg43
g21
ssg91
(dp670
g5
S'--'
p671
sg7
S'15'
p672
sg9
S'--'
p673
sg11
S'--'
p674
sg13
S'@OAK'
p675
sg15
g21
sg17
S'--'
p676
sg18
S'--'
p677
sg20
g21
sg22
S'--'
p678
sg23
S'--'
p679
sg25
S'--'
p680
sg27
S'--'
p681
sg29
S'12/19'
p682
sg31
S'--'
p683
sg33
S'Matt Prater'
p684
sg35
S'L23-39'
p685
sg37
S'2010'
p686
sg39
S'--'
p687
sg40
S'--'
p688
sg42
S'--'
p689
sg43
S'--'
p690
ssg107
(dp691
g5
S'--'
p692
sg7
S'14'
p693
sg9
S'--'
p694
sg11
S'--'
p695
sg13
S'@ARI'
p696
sg15
g21
sg17
S'--'
p697
sg18
S'--'
p698
sg20
g21
sg22
S'--'
p699
sg23
S'--'
p700
sg25
S'--'
p701
sg27
S'--'
p702
sg29
S'12/12'
p703
sg31
S'--'
p704
sg33
S'Matt Prater'
p705
sg35
S'L13-43'
p706
sg37
S'2010'
p707
sg39
S'--'
p708
sg40
S'--'
p709
sg42
S'--'
p710
sg43
S'--'
p711
ssg16
(dp712
g5
S'54'
p713
sg7
g16
sg9
g143
sg11
g16
sg13
S'@JAC'
p714
sg15
g16
sg17
g16
sg18
g21
sg20
g21
sg22
g48
sg23
S'68.5'
p715
sg25
g143
sg27
S'34.3'
p716
sg29
S'09/12'
p717
sg31
S'100.0'
p718
sg33
S'Matt Prater'
p719
sg35
S'L17-24'
p720
sg37
S'2010'
p721
sg39
g21
sg40
S'100.0'
p722
sg42
g48
sg43
g21
ssg12
(dp723
g5
S'34'
p724
sg7
g12
sg9
g16
sg11
g48
sg13
S'IND'
p725
sg15
g16
sg17
g48
sg18
g12
sg20
g21
sg22
g16
sg23
S'68.3'
p726
sg25
g143
sg27
S'16.0'
p727
sg29
S'09/26'
p728
sg31
S'100.0'
p729
sg33
S'Matt Prater'
p730
sg35
S'L13-27'
p731
sg37
S'2010'
p732
sg39
g21
sg40
S'100.0'
p733
sg42
g16
sg43
g21
ssg48
(dp734
g5
S'20'
p735
sg7
g48
sg9
g16
sg11
g16
sg13
S'SEA'
p736
sg15
g16
sg17
g16
sg18
g97
sg20
g21
sg22
g143
sg23
S'68.3'
p737
sg25
g81
sg27
S'13.0'
p738
sg29
S'09/19'
p739
sg31
S'100.0'
p740
sg33
S'Matt Prater'
p741
sg35
S'W31-14'
p742
sg37
S'2010'
p743
sg39
g21
sg40
S'100.0'
p744
sg42
g143
sg43
g21
ssg97
(dp745
g5
S'38'
p746
sg7
g97
sg9
g12
sg11
g16
sg13
S'@BAL'
p747
sg15
g16
sg17
g16
sg18
g21
sg20
g21
sg22
g48
sg23
S'56.0'
p748
sg25
g143
sg27
S'20.0'
p749
sg29
S'10/10'
p750
sg31
S'100.0'
p751
sg33
S'Matt Prater'
p752
sg35
S'L17-31'
p753
sg37
S'2010'
p754
sg39
g21
sg40
S'100.0'
p755
sg42
g48
sg43
g21
ssg143
(dp756
g5
S'36'
p757
sg7
g143
sg9
g81
sg11
g143
sg13
S'@TEN'
p758
sg15
g16
sg17
g143
sg18
g16
sg20
g21
sg22
g48
sg23
S'60.0'
p759
sg25
g217
sg27
S'31.2'
p760
sg29
S'10/03'
p761
sg31
S'100.0'
p762
sg33
S'Matt Prater'
p763
sg35
S'W26-20'
p764
sg37
S'2010'
p765
sg39
g21
sg40
S'100.0'
p766
sg42
g48
sg43
g21
ssg217
(dp767
g5
g21
sg7
g217
sg9
g21
sg11
g21
sg13
S'OAK'
p768
sg15
g16
sg17
g21
sg18
g12
sg20
g21
sg22
g48
sg23
S'70.0'
p769
sg25
g12
sg27
S'--'
p770
sg29
S'10/24'
p771
sg31
S'100.0'
p772
sg33
S'Matt Prater'
p773
sg35
S'L14-59'
p774
sg37
S'2010'
p775
sg39
g21
sg40
S'--'
p776
sg42
g48
sg43
g21
ssg81
(dp777
g5
S'59'
p778
sg7
g81
sg9
g16
sg11
g12
sg13
S'NYJ'
p779
sg15
g16
sg17
g48
sg18
g48
sg20
g21
sg22
g48
sg23
S'56.8'
p780
sg25
g143
sg27
S'26.0'
p781
sg29
S'10/17'
p782
sg31
S'100.0'
p783
sg33
S'Matt Prater'
p784
sg35
S'L20-24'
p785
sg37
S'2010'
p786
sg39
g21
sg40
S'66.7'
p787
sg42
g48
sg43
g21
ssg246
(dp788
g5
g248
sg7
g246
sg9
g248
sg11
g248
sg13
g248
sg15
g248
sg17
g248
sg18
g248
sg20
g248
sg22
g248
sg23
g248
sg25
g248
sg27
g248
sg29
S'Bye'
p789
sg31
g248
sg33
S'Matt Prater'
p790
sg35
g248
sg37
S'2010'
p791
sg39
g248
sg40
g248
sg42
g248
sg43
g248
ssg252
(dp792
g5
S'32'
p793
sg7
g252
sg9
g143
sg11
g16
sg13
S'@SF'
p794
sg15
g16
sg17
g16
sg18
g21
sg20
g21
sg22
g16
sg23
S'66.8'
p795
sg25
g143
sg27
S'22.3'
p796
sg29
S'10/31'
p797
sg31
S'50.0'
p798
sg33
S'Matt Prater'
p799
sg35
S'L16-24'
p800
sg37
S'2010'
p801
sg39
g21
sg40
S'100.0'
p802
sg42
g48
sg43
g21
sssS'2013'
p803
(dp804
g3
(dp805
g5
S'54'
p806
sg7
S'11'
p807
sg9
g16
sg11
g12
sg13
S'KC'
p808
sg15
g16
sg17
g48
sg18
g97
sg20
g21
sg22
g12
sg23
S'65.3'
p809
sg25
g81
sg27
S'23.0'
p810
sg29
S'11/17'
p811
sg31
S'100.0'
p812
sg33
S'Matt Prater'
p813
sg35
S'W27-17'
p814
sg37
S'2013'
p815
sg39
g21
sg40
S'66.7'
p816
sg42
g12
sg43
g21
ssg44
(dp817
g5
g21
sg7
S'10'
p818
sg9
g21
sg11
g21
sg13
S'@SD'
p819
sg15
g16
sg17
g21
sg18
g97
sg20
g21
sg22
g143
sg23
S'66.8'
p820
sg25
g97
sg27
S'--'
p821
sg29
S'11/10'
p822
sg31
S'100.0'
p823
sg33
S'Matt Prater'
p824
sg35
S'W28-20'
p825
sg37
S'2013'
p826
sg39
g21
sg40
S'--'
p827
sg42
g143
sg43
g21
ssg58
(dp828
g5
g21
sg7
S'13'
p829
sg9
g12
sg11
g21
sg13
S'@KC'
p830
sg15
g16
sg17
g21
sg18
g12
sg20
g21
sg22
g97
sg23
S'65.2'
p831
sg25
g81
sg27
S'53.7'
p832
sg29
S'12/01'
p833
sg31
S'100.0'
p834
sg33
S'Matt Prater'
p835
sg35
S'W35-28'
p836
sg37
S'2013'
p837
sg39
g21
sg40
S'--'
p838
sg42
g97
sg43
g21
ssg74
(dp839
g5
S'27'
p840
sg7
S'12'
p841
sg9
g12
sg11
g16
sg13
S'@NE'
p842
sg15
g16
sg17
g16
sg18
g12
sg20
g21
sg22
g143
sg23
S'60.0'
p843
sg25
g81
sg27
S'17.0'
p844
sg29
S'11/24'
p845
sg31
S'100.0'
p846
sg33
S'Matt Prater'
p847
sg35
S'L31-34'
p848
sg37
S'2013'
p849
sg39
g21
sg40
S'100.0'
p850
sg42
g143
sg43
g21
ssg91
(dp851
g5
S'42'
p852
sg7
S'15'
p853
sg9
g21
sg11
g48
sg13
S'SD'
p854
sg15
g16
sg17
g48
sg18
g143
sg20
g21
sg22
g48
sg23
S'52.8'
p855
sg25
g97
sg27
S'--'
p856
sg29
S'12/12'
p857
sg31
S'100.0'
p858
sg33
S'Matt Prater'
p859
sg35
S'L20-27'
p860
sg37
S'2013'
p861
sg39
g21
sg40
S'100.0'
p862
sg42
g48
sg43
g21
ssg107
(dp863
g5
S'64'
p864
sg7
S'14'
p865
sg9
g97
sg11
g12
sg13
S'TEN'
p866
sg15
g16
sg17
g12
sg18
g143
sg20
g21
sg22
g81
sg23
S'65.3'
p867
sg25
g246
sg27
S'41.8'
p868
sg29
S'12/08'
p869
sg31
S'100.0'
p870
sg33
S'Matt Prater'
p871
sg35
S'W51-28'
p872
sg37
S'2013'
p873
sg39
g21
sg40
S'100.0'
p874
sg42
g81
sg43
g21
ssg122
(dp875
g5
S'54'
p876
sg7
S'17'
p877
sg9
g48
sg11
g48
sg13
S'@OAK'
p878
sg15
g16
sg17
g48
sg18
g97
sg20
g21
sg22
g143
sg23
S'67.6'
p879
sg25
g217
sg27
S'25.5'
p880
sg29
S'12/29'
p881
sg31
S'100.0'
p882
sg33
S'Matt Prater'
p883
sg35
S'W34-14'
p884
sg37
S'2013'
p885
sg39
g21
sg40
S'100.0'
p886
sg42
g143
sg43
g21
ssg138
(dp887
g5
S'44'
p888
sg7
S'16'
p889
sg9
g16
sg11
g12
sg13
S'@HOU'
p890
sg15
g16
sg17
g12
sg18
g81
sg20
g21
sg22
g143
sg23
S'66.1'
p891
sg25
g217
sg27
S'22.0'
p892
sg29
S'12/22'
p893
sg31
S'100.0'
p894
sg33
S'Matt Prater'
p895
sg35
S'W37-13'
p896
sg37
S'2013'
p897
sg39
g21
sg40
S'100.0'
p898
sg42
g143
sg43
g21
ssg16
(dp899
g5
g21
sg7
g16
sg9
g21
sg11
g21
sg13
S'BAL'
p900
sg15
g16
sg17
g21
sg18
g252
sg20
g21
sg22
g217
sg23
S'65.0'
p901
sg25
g252
sg27
S'--'
p902
sg29
S'09/05'
p903
sg31
S'100.0'
p904
sg33
S'Matt Prater'
p905
sg35
S'W49-27'
p906
sg37
S'2013'
p907
sg39
g21
sg40
S'--'
p908
sg42
g217
sg43
g21
ssg12
(dp909
g5
S'53'
p910
sg7
g12
sg9
g48
sg11
g12
sg13
S'OAK'
p911
sg15
g16
sg17
g12
sg18
g81
sg20
g21
sg22
g143
sg23
S'66.3'
p912
sg25
g252
sg27
S'22.5'
p913
sg29
S'09/23'
p914
sg31
S'100.0'
p915
sg33
S'Matt Prater'
p916
sg35
S'W37-21'
p917
sg37
S'2013'
p918
sg39
g21
sg40
S'100.0'
p919
sg42
g143
sg43
g21
ssg48
(dp920
g5
S'47'
p921
sg7
g48
sg9
g97
sg11
g48
sg13
S'@NYG'
p922
sg15
g16
sg17
g48
sg18
g12
sg20
g21
sg22
g97
sg23
S'68.1'
p923
sg25
g252
sg27
S'24.2'
p924
sg29
S'09/15'
p925
sg31
S'100.0'
p926
sg33
S'Matt Prater'
p927
sg35
S'W41-23'
p928
sg37
S'2013'
p929
sg39
g21
sg40
S'100.0'
p930
sg42
g97
sg43
g21
ssg97
(dp931
g5
S'50'
p932
sg7
g97
sg9
g97
sg11
g12
sg13
S'@DAL'
p933
sg15
g16
sg17
g12
sg18
g143
sg20
g21
sg22
g81
sg23
S'66.8'
p934
sg25
g246
sg27
S'24.6'
p935
sg29
S'10/06'
p936
sg31
S'100.0'
p937
sg33
S'Matt Prater'
p938
sg35
S'W51-48'
p939
sg37
S'2013'
p940
sg39
g21
sg40
S'100.0'
p941
sg42
g81
sg43
g21
ssg143
(dp942
g5
S'53'
p943
sg7
g143
sg9
g16
sg11
g16
sg13
S'PHI'
p944
sg15
g16
sg17
g16
sg18
g252
sg20
g21
sg22
g217
sg23
S'65.9'
p945
sg25
g246
sg27
S'26.0'
p946
sg29
S'09/29'
p947
sg31
S'100.0'
p948
sg33
S'Matt Prater'
p949
sg35
S'W52-20'
p950
sg37
S'2013'
p951
sg39
g21
sg40
S'100.0'
p952
sg42
g217
sg43
g21
ssg217
(dp953
g5
S'47'
p954
sg7
g217
sg9
g12
sg11
g48
sg13
S'@IND'
p955
sg15
g16
sg17
g48
sg18
g12
sg20
g21
sg22
g12
sg23
S'60.6'
p956
sg25
g217
sg27
S'29.3'
p957
sg29
S'10/20'
p958
sg31
S'100.0'
p959
sg33
S'Matt Prater'
p960
sg35
S'L33-39'
p961
sg37
S'2013'
p962
sg39
g21
sg40
S'100.0'
p963
sg42
g12
sg43
g21
ssg81
(dp964
g5
g21
sg7
g81
sg9
g21
sg11
g21
sg13
S'JAC'
p965
sg15
g16
sg17
g21
sg18
g81
sg20
g21
sg22
g97
sg23
S'65.0'
p966
sg25
g81
sg27
S'--'
p967
sg29
S'10/13'
p968
sg31
S'100.0'
p969
sg33
S'Matt Prater'
p970
sg35
S'W35-19'
p971
sg37
S'2013'
p972
sg39
g21
sg40
S'--'
p973
sg42
g97
sg43
g21
ssg246
(dp974
g5
g248
sg7
g246
sg9
g248
sg11
g248
sg13
g248
sg15
g248
sg17
g248
sg18
g248
sg20
g248
sg22
g248
sg23
g248
sg25
g248
sg27
g248
sg29
S'Bye'
p975
sg31
g248
sg33
S'Matt Prater'
p976
sg35
g248
sg37
S'2013'
p977
sg39
g248
sg40
g248
sg42
g248
sg43
g248
ssg252
(dp978
g5
S'19'
p979
sg7
g252
sg9
g21
sg11
g16
sg13
S'WAS'
p980
sg15
g16
sg17
g16
sg18
g252
sg20
g21
sg22
g81
sg23
S'65.0'
p981
sg25
g252
sg27
S'--'
p982
sg29
S'10/27'
p983
sg31
S'100.0'
p984
sg33
S'Matt Prater'
p985
sg35
S'W45-21'
p986
sg37
S'2013'
p987
sg39
g21
sg40
S'100.0'
p988
sg42
g81
sg43
g21
sssS'2012'
p989
(dp990
g3
(dp991
g5
S'32'
p992
sg7
S'11'
p993
sg9
g21
sg11
g143
sg13
S'SD'
p994
sg15
g16
sg17
g12
sg18
g217
sg20
g21
sg22
g12
sg23
S'65.0'
p995
sg25
g217
sg27
S'--'
p996
sg29
S'11/18'
p997
sg31
S'100.0'
p998
sg33
S'Matt Prater'
p999
sg35
S'W30-23'
p1000
sg37
S'2012'
p1001
sg39
g21
sg40
S'75.0'
p1002
sg42
g12
sg43
g21
ssg44
(dp1003
g5
S'53'
p1004
sg7
S'10'
p1005
sg9
g48
sg11
g12
sg13
S'@CAR'
p1006
sg15
g16
sg17
g48
sg18
g97
sg20
g21
sg22
g143
sg23
S'65.1'
p1007
sg25
g217
sg27
S'17.0'
p1008
sg29
S'11/11'
p1009
sg31
S'100.0'
p1010
sg33
S'Matt Prater'
p1011
sg35
S'W36-14'
p1012
sg37
S'2012'
p1013
sg39
g21
sg40
S'66.7'
p1014
sg42
g143
sg43
g21
ssg58
(dp1015
g5
S'31'
p1016
sg7
S'13'
p1017
sg9
g21
sg11
g48
sg13
S'TB'
p1018
sg15
g16
sg17
g16
sg18
g81
sg20
g21
sg22
g143
sg23
S'65.0'
p1019
sg25
g81
sg27
S'--'
p1020
sg29
S'12/02'
p1021
sg31
S'100.0'
p1022
sg33
S'Matt Prater'
p1023
sg35
S'W31-23'
p1024
sg37
S'2012'
p1025
sg39
g21
sg40
S'50.0'
p1026
sg42
g143
sg43
g21
ssg74
(dp1027
g5
S'34'
p1028
sg7
S'12'
p1029
sg9
g12
sg11
g12
sg13
S'@KC'
p1030
sg15
g16
sg17
g16
sg18
g16
sg20
g21
sg22
g48
sg23
S'63.0'
p1031
sg25
g143
sg27
S'19.0'
p1032
sg29
S'11/25'
p1033
sg31
S'100.0'
p1034
sg33
S'Matt Prater'
p1035
sg35
S'W17-9'
p1036
sg37
S'2012'
p1037
sg39
g21
sg40
S'33.3'
p1038
sg42
g48
sg43
g21
ssg91
(dp1039
g5
S'36'
p1040
sg7
S'15'
p1041
sg9
g81
sg11
g12
sg13
S'@BAL'
p1042
sg15
g16
sg17
g48
sg18
g16
sg20
g21
sg22
g143
sg23
S'64.4'
p1043
sg25
g217
sg27
S'24.0'
p1044
sg29
S'12/16'
p1045
sg31
S'100.0'
p1046
sg33
S'Matt Prater'
p1047
sg35
S'W34-17'
p1048
sg37
S'2012'
p1049
sg39
g21
sg40
S'66.7'
p1050
sg42
g143
sg43
g21
ssg107
(dp1051
g5
S'43'
p1052
sg7
S'14'
p1053
sg9
g48
sg11
g143
sg13
S'@OAK'
p1054
sg15
g16
sg17
g143
sg18
g97
sg20
g21
sg22
g48
sg23
S'67.9'
p1055
sg25
g217
sg27
S'17.0'
p1056
sg29
S'12/06'
p1057
sg31
S'100.0'
p1058
sg33
S'Matt Prater'
p1059
sg35
S'W26-13'
p1060
sg37
S'2012'
p1061
sg39
g21
sg40
S'100.0'
p1062
sg42
g48
sg43
g21
ssg122
(dp1063
g5
S'42'
p1064
sg7
S'17'
p1065
sg9
g12
sg11
g16
sg13
S'KC'
p1066
sg15
g16
sg17
g16
sg18
g143
sg20
g21
sg22
g97
sg23
S'64.0'
p1067
sg25
g217
sg27
S'23.0'
p1068
sg29
S'12/30'
p1069
sg31
S'100.0'
p1070
sg33
S'Matt Prater'
p1071
sg35
S'W38-3'
p1072
sg37
S'2012'
p1073
sg39
g21
sg40
S'100.0'
p1074
sg42
g97
sg43
g21
ssg138
(dp1075
g5
S'41'
p1076
sg7
S'16'
p1077
sg9
g48
sg11
g48
sg13
S'CLE'
p1078
sg15
g16
sg17
g48
sg18
g97
sg20
g21
sg22
g143
sg23
S'65.6'
p1079
sg25
g217
sg27
S'30.0'
p1080
sg29
S'12/23'
p1081
sg31
S'100.0'
p1082
sg33
S'Matt Prater'
p1083
sg35
S'W34-12'
p1084
sg37
S'2012'
p1085
sg39
g21
sg40
S'100.0'
p1086
sg42
g143
sg43
g21
ssg16
(dp1087
g5
S'26'
p1088
sg7
g16
sg9
g16
sg11
g16
sg13
S'PIT'
p1089
sg15
g16
sg17
g16
sg18
g97
sg20
g21
sg22
g48
sg23
S'66.0'
p1090
sg25
g81
sg27
S'27.0'
p1091
sg29
S'09/09'
p1092
sg31
S'100.0'
p1093
sg33
S'Matt Prater'
p1094
sg35
S'W31-19'
p1095
sg37
S'2012'
p1096
sg39
g21
sg40
S'100.0'
p1097
sg42
g48
sg43
g21
ssg12
(dp1098
g5
S'53'
p1099
sg7
g12
sg9
g16
sg11
g12
sg13
S'HOU'
p1100
sg15
g16
sg17
g12
sg18
g97
sg20
g21
sg22
g48
sg23
S'59.3'
p1101
sg25
g81
sg27
S'0.0'
p1102
sg29
S'09/23'
p1103
sg31
S'100.0'
p1104
sg33
S'Matt Prater'
p1105
sg35
S'L25-31'
p1106
sg37
S'2012'
p1107
sg39
g21
sg40
S'100.0'
p1108
sg42
g48
sg43
g21
ssg48
(dp1109
g5
g21
sg7
g48
sg9
g48
sg11
g21
sg13
S'@ATL'
p1110
sg15
g16
sg17
g21
sg18
g48
sg20
g21
sg22
g12
sg23
S'60.5'
p1111
sg25
g143
sg27
S'23.5'
p1112
sg29
S'09/17'
p1113
sg31
S'100.0'
p1114
sg33
S'Matt Prater'
p1115
sg35
S'L21-27'
p1116
sg37
S'2012'
p1117
sg39
g21
sg40
S'--'
p1118
sg42
g12
sg43
g21
ssg97
(dp1119
g5
g21
sg7
g97
sg9
g48
sg11
g21
sg13
S'@NE'
p1120
sg15
g16
sg17
g21
sg18
g48
sg20
g21
sg22
g12
sg23
S'59.5'
p1121
sg25
g143
sg27
S'11.5'
p1122
sg29
S'10/07'
p1123
sg31
S'100.0'
p1124
sg33
S'Matt Prater'
p1125
sg35
S'L21-31'
p1126
sg37
S'2012'
p1127
sg39
g21
sg40
S'--'
p1128
sg42
g12
sg43
g21
ssg143
(dp1129
g5
S'53'
p1130
sg7
g143
sg9
g21
sg11
g12
sg13
S'OAK'
p1131
sg15
g16
sg17
g12
sg18
g252
sg20
g21
sg22
g143
sg23
S'65.0'
p1132
sg25
g252
sg27
S'--'
p1133
sg29
S'09/30'
p1134
sg31
S'100.0'
p1135
sg33
S'Matt Prater'
p1136
sg35
S'W37-6'
p1137
sg37
S'2012'
p1138
sg39
g21
sg40
S'100.0'
p1139
sg42
g143
sg43
g21
ssg217
(dp1140
g5
g248
sg7
g217
sg9
g248
sg11
g248
sg13
g248
sg15
g248
sg17
g248
sg18
g248
sg20
g248
sg22
g248
sg23
g248
sg25
g248
sg27
g248
sg29
S'Bye'
p1141
sg31
g248
sg33
S'Matt Prater'
p1142
sg35
g248
sg37
S'2012'
p1143
sg39
g248
sg40
g248
sg42
g248
sg43
g248
ssg81
(dp1144
g5
g21
sg7
g81
sg9
g97
sg11
g21
sg13
S'@SD'
p1145
sg15
g16
sg17
g21
sg18
g16
sg20
g21
sg22
g97
sg23
S'67.0'
p1146
sg25
g81
sg27
S'25.2'
p1147
sg29
S'10/15'
p1148
sg31
S'100.0'
p1149
sg33
S'Matt Prater'
p1150
sg35
S'W35-24'
p1151
sg37
S'2012'
p1152
sg39
g21
sg40
S'--'
p1153
sg42
g97
sg43
g21
ssg246
(dp1154
g5
S'43'
p1155
sg7
g246
sg9
g143
sg11
g16
sg13
S'@CIN'
p1156
sg15
g16
sg17
g16
sg18
g48
sg20
g21
sg22
g143
sg23
S'62.5'
p1157
sg25
g81
sg27
S'28.5'
p1158
sg29
S'11/04'
p1159
sg31
S'100.0'
p1160
sg33
S'Matt Prater'
p1161
sg35
S'W31-23'
p1162
sg37
S'2012'
p1163
sg39
g21
sg40
S'100.0'
p1164
sg42
g143
sg43
g21
ssg252
(dp1165
g5
S'33'
p1166
sg7
g252
sg9
g21
sg11
g48
sg13
S'NO'
p1167
sg15
g16
sg17
g48
sg18
g81
sg20
g21
sg22
g143
sg23
S'65.0'
p1168
sg25
g81
sg27
S'--'
p1169
sg29
S'10/28'
p1170
sg31
S'100.0'
p1171
sg33
S'Matt Prater'
p1172
sg35
S'W34-14'
p1173
sg37
S'2012'
p1174
sg39
g21
sg40
S'100.0'
p1175
sg42
g143
sg43
g21
sss.