(dp0
S'2015'
p1
(dp2
S'1'
p3
(dp4
S'FGLng'
p5
S'34'
p6
sS'WK'
p7
g3
sS'Ret'
p8
g3
sS'FGAtt'
p9
g3
sS'Opp'
p10
S'CLE'
p11
sS'G'
p12
g3
sS'FGM'
p13
g3
sS'TB'
p14
S'5'
p15
sS'GS'
p16
S'0'
p17
sS'XPM'
p18
S'4'
p19
sS'KOAvg'
p20
S'64.0'
p21
sS'KO'
p22
S'6'
p23
sS'RetAvg'
p24
S'27.0'
p25
sS'Game Date'
p26
S'09/13'
p27
sS'XPPct'
p28
S'100.0'
p29
sS'Player'
p30
S'Nick Folk'
p31
sS'Result'
p32
S'W31-10'
p33
sS'Year'
p34
S'2015'
p35
sS'XPBlk'
p36
g17
sS'FGPct'
p37
S'100.0'
p38
sS'XPAtt'
p39
g19
sS'FGBlk'
p40
g17
ssS'3'
p41
(dp42
g5
S'53'
p43
sg7
g41
sg8
g3
sg9
g3
sg10
S'PHI'
p44
sg12
g3
sg13
g3
sg14
S'2'
p45
sg16
g17
sg18
g45
sg20
S'48.5'
p46
sg22
g19
sg24
S'10.0'
p47
sg26
S'09/27'
p48
sg28
S'100.0'
p49
sg30
S'Nick Folk'
p50
sg32
S'L17-24'
p51
sg34
S'2015'
p52
sg36
g17
sg37
S'100.0'
p53
sg39
g45
sg40
g17
ssg45
(dp54
g5
S'46'
p55
sg7
g45
sg8
g19
sg9
g41
sg10
S'@IND'
p56
sg12
g3
sg13
g45
sg14
g3
sg16
g17
sg18
g45
sg20
S'68.2'
p57
sg22
g15
sg24
S'24.5'
p58
sg26
S'09/21'
p59
sg28
S'100.0'
p60
sg30
S'Nick Folk'
p61
sg32
S'W20-7'
p62
sg34
S'2015'
p63
sg36
g17
sg37
S'66.7'
p64
sg39
g45
sg40
g17
ssg15
(dp65
g5
S''
p66
sg7
g15
sg8
g66
sg9
g66
sg10
g66
sg12
g66
sg13
g66
sg14
g66
sg16
g66
sg18
g66
sg20
g66
sg22
g66
sg24
g66
sg26
S'Bye'
p67
sg28
g66
sg30
S'Nick Folk'
p68
sg32
g66
sg34
S'2015'
p69
sg36
g66
sg37
g66
sg39
g66
sg40
g66
ssg19
(dp70
g5
S'48'
p71
sg7
g19
sg8
g23
sg9
g41
sg10
S'@MIA'
p72
sg12
g3
sg13
g45
sg14
g17
sg16
g17
sg18
g41
sg20
S'67.0'
p73
sg22
g23
sg24
S'23.5'
p74
sg26
S'10/04'
p75
sg28
S'100.0'
p76
sg30
S'Nick Folk'
p77
sg32
S'W27-14'
p78
sg34
S'2015'
p79
sg36
g17
sg37
S'66.7'
p80
sg39
g41
sg40
g17
ssS'7'
p81
(dp82
g5
S'55'
p83
sg7
g81
sg8
g41
sg9
g41
sg10
S'@NE'
p84
sg12
g3
sg13
g41
sg14
g45
sg16
g17
sg18
g45
sg20
S'58.2'
p85
sg22
g23
sg24
S'27.7'
p86
sg26
S'10/25'
p87
sg28
S'100.0'
p88
sg30
S'Nick Folk'
p89
sg32
S'L23-30'
p90
sg34
S'2015'
p91
sg36
g17
sg37
S'100.0'
p92
sg39
g45
sg40
g17
ssg23
(dp93
g5
S'39'
p94
sg7
g23
sg8
g15
sg9
g41
sg10
S'WAS'
p95
sg12
g3
sg13
g45
sg14
g45
sg16
g17
sg18
g19
sg20
S'64.9'
p96
sg22
g81
sg24
S'19.2'
p97
sg26
S'10/18'
p98
sg28
S'100.0'
p99
sg30
S'Nick Folk'
p100
sg32
S'W34-20'
p101
sg34
S'2015'
p102
sg36
g17
sg37
S'66.7'
p103
sg39
g19
sg40
g17
ssS'9'
p104
(dp105
g5
S'--'
p106
sg7
g104
sg8
S'--'
p107
sg9
S'--'
p108
sg10
S'JAC'
p109
sg12
g3
sg13
S'--'
p110
sg14
S'--'
p111
sg16
g17
sg18
S'--'
p112
sg20
S'--'
p113
sg22
S'--'
p114
sg24
S'--'
p115
sg26
S'11/08'
p116
sg28
S'--'
p117
sg30
S'Nick Folk'
p118
sg32
S'W28-23'
p119
sg34
S'2015'
p120
sg36
S'--'
p121
sg37
S'--'
p122
sg39
S'--'
p123
sg40
S'--'
p124
ssS'8'
p125
(dp126
g5
S'40'
p127
sg7
g125
sg8
g19
sg9
g45
sg10
S'@OAK'
p128
sg12
g3
sg13
g45
sg14
g3
sg16
g17
sg18
g45
sg20
S'68.4'
p129
sg22
g15
sg24
S'25.3'
p130
sg26
S'11/01'
p131
sg28
S'100.0'
p132
sg30
S'Nick Folk'
p133
sg32
S'L20-34'
p134
sg34
S'2015'
p135
sg36
g17
sg37
S'100.0'
p136
sg39
g45
sg40
g17
sssS'2014'
p137
(dp138
S'11'
p139
(dp140
g5
g66
sg7
S'11'
p141
sg8
g66
sg9
g66
sg10
g66
sg12
g66
sg13
g66
sg14
g66
sg16
g66
sg18
g66
sg20
g66
sg22
g66
sg24
g66
sg26
S'Bye'
p142
sg28
g66
sg30
S'Nick Folk'
p143
sg32
g66
sg34
S'2014'
p144
sg36
g66
sg37
g66
sg39
g66
sg40
g66
ssS'10'
p145
(dp146
g5
S'30'
p147
sg7
S'10'
p148
sg8
g19
sg9
g41
sg10
S'PIT'
p149
sg12
g3
sg13
g45
sg14
g3
sg16
g17
sg18
g45
sg20
S'68.0'
p150
sg22
g15
sg24
S'25.8'
p151
sg26
S'11/09'
p152
sg28
S'100.0'
p153
sg30
S'Nick Folk'
p154
sg32
S'W20-13'
p155
sg34
S'2014'
p156
sg36
g17
sg37
S'66.7'
p157
sg39
g45
sg40
g17
ssS'13'
p158
(dp159
g5
S'45'
p160
sg7
S'13'
p161
sg8
g41
sg9
g19
sg10
S'MIA'
p162
sg12
g3
sg13
g45
sg14
g17
sg16
g17
sg18
g3
sg20
S'56.0'
p163
sg22
g19
sg24
S'17.3'
p164
sg26
S'12/01'
p165
sg28
S'100.0'
p166
sg30
S'Nick Folk'
p167
sg32
S'L13-16'
p168
sg34
S'2014'
p169
sg36
g17
sg37
S'50.0'
p170
sg39
g3
sg40
g17
ssS'12'
p171
(dp172
g5
S'27'
p173
sg7
S'12'
p174
sg8
g3
sg9
g3
sg10
S'@BUF'
p175
sg12
g3
sg13
g3
sg14
g3
sg16
g17
sg18
g17
sg20
S'62.0'
p176
sg22
g45
sg24
S'13.0'
p177
sg26
S'11/24'
p178
sg28
S'--'
p179
sg30
S'Nick Folk'
p180
sg32
S'L3-38'
p181
sg34
S'2014'
p182
sg36
g17
sg37
S'100.0'
p183
sg39
g17
sg40
g17
ssS'15'
p184
(dp185
g5
S'51'
p186
sg7
S'15'
p187
sg8
S'--'
p188
sg9
g45
sg10
S'@TEN'
p189
sg12
g3
sg13
g3
sg14
S'--'
p190
sg16
g17
sg18
g3
sg20
S'--'
p191
sg22
S'--'
p192
sg24
S'--'
p193
sg26
S'12/14'
p194
sg28
S'100.0'
p195
sg30
S'Nick Folk'
p196
sg32
S'W16-11'
p197
sg34
S'2014'
p198
sg36
g17
sg37
S'50.0'
p199
sg39
g3
sg40
g17
ssS'14'
p200
(dp201
g5
S'44'
p202
sg7
S'14'
p203
sg8
g81
sg9
g15
sg10
S'@MIN'
p204
sg12
g3
sg13
g15
sg14
g17
sg16
g17
sg18
g3
sg20
S'54.1'
p205
sg22
g81
sg24
S'17.3'
p206
sg26
S'12/07'
p207
sg28
S'100.0'
p208
sg30
S'Nick Folk'
p209
sg32
S'L24-30'
p210
sg34
S'2014'
p211
sg36
g17
sg37
S'100.0'
p212
sg39
g3
sg40
g17
ssS'17'
p213
(dp214
g5
S'39'
p215
sg7
S'17'
p216
sg8
g15
sg9
g19
sg10
S'@MIA'
p217
sg12
g3
sg13
g41
sg14
g41
sg16
g17
sg18
g19
sg20
S'64.9'
p218
sg22
g125
sg24
S'24.0'
p219
sg26
S'12/28'
p220
sg28
S'100.0'
p221
sg30
S'Nick Folk'
p222
sg32
S'W37-24'
p223
sg34
S'2014'
p224
sg36
g17
sg37
S'75.0'
p225
sg39
g19
sg40
g17
ssS'16'
p226
(dp227
g5
S'37'
p228
sg7
S'16'
p229
sg8
g15
sg9
g19
sg10
S'NE'
p230
sg12
g3
sg13
g41
sg14
g17
sg16
g17
sg18
g3
sg20
S'65.0'
p231
sg22
g15
sg24
S'18.2'
p232
sg26
S'12/21'
p233
sg28
S'100.0'
p234
sg30
S'Nick Folk'
p235
sg32
S'L16-17'
p236
sg34
S'2014'
p237
sg36
g17
sg37
S'75.0'
p238
sg39
g3
sg40
g3
ssg3
(dp239
g5
S'45'
p240
sg7
g3
sg8
g41
sg9
g45
sg10
S'OAK'
p241
sg12
g3
sg13
g45
sg14
g45
sg16
g17
sg18
g3
sg20
S'66.0'
p242
sg22
g15
sg24
S'22.3'
p243
sg26
S'09/07'
p244
sg28
S'100.0'
p245
sg30
S'Nick Folk'
p246
sg32
S'W19-14'
p247
sg34
S'2014'
p248
sg36
g17
sg37
S'100.0'
p249
sg39
g3
sg40
g17
ssg41
(dp250
g5
S'43'
p251
sg7
g41
sg8
g19
sg9
g19
sg10
S'CHI'
p252
sg12
g3
sg13
g19
sg14
g45
sg16
g17
sg18
g3
sg20
S'59.8'
p253
sg22
g23
sg24
S'18.3'
p254
sg26
S'09/22'
p255
sg28
S'100.0'
p256
sg30
S'Nick Folk'
p257
sg32
S'L19-27'
p258
sg34
S'2014'
p259
sg36
g17
sg37
S'100.0'
p260
sg39
g3
sg40
g17
ssg45
(dp261
g5
S'52'
p262
sg7
g45
sg8
g45
sg9
g3
sg10
S'@GB'
p263
sg12
g3
sg13
g3
sg14
g41
sg16
g17
sg18
g41
sg20
S'65.8'
p264
sg22
g15
sg24
S'29.0'
p265
sg26
S'09/14'
p266
sg28
S'100.0'
p267
sg30
S'Nick Folk'
p268
sg32
S'L24-31'
p269
sg34
S'2014'
p270
sg36
g17
sg37
S'100.0'
p271
sg39
g41
sg40
g17
ssg15
(dp272
g5
S'--'
p273
sg7
g15
sg8
g17
sg9
S'--'
p274
sg10
S'@SD'
p275
sg12
g3
sg13
S'--'
p276
sg14
g3
sg16
g17
sg18
S'--'
p277
sg20
S'65.0'
p278
sg22
g3
sg24
S'--'
p279
sg26
S'10/05'
p280
sg28
S'--'
p281
sg30
S'Nick Folk'
p282
sg32
S'L0-31'
p283
sg34
S'2014'
p284
sg36
S'--'
p285
sg37
S'--'
p286
sg39
S'--'
p287
sg40
S'--'
p288
ssg19
(dp289
g5
S'27'
p290
sg7
g19
sg8
g45
sg9
g3
sg10
S'DET'
p291
sg12
g3
sg13
g3
sg14
g45
sg16
g17
sg18
g45
sg20
S'67.5'
p292
sg22
g19
sg24
S'17.5'
p293
sg26
S'09/28'
p294
sg28
S'100.0'
p295
sg30
S'Nick Folk'
p296
sg32
S'L17-24'
p297
sg34
S'2014'
p298
sg36
g17
sg37
S'100.0'
p299
sg39
g45
sg40
g17
ssg81
(dp300
g5
S'47'
p301
sg7
g81
sg8
g19
sg9
g15
sg10
S'@NE'
p302
sg12
g3
sg13
g19
sg14
g45
sg16
g17
sg18
g3
sg20
S'57.6'
p303
sg22
g81
sg24
S'26.3'
p304
sg26
S'10/16'
p305
sg28
S'100.0'
p306
sg30
S'Nick Folk'
p307
sg32
S'L25-27'
p308
sg34
S'2014'
p309
sg36
g17
sg37
S'80.0'
p310
sg39
g3
sg40
g3
ssg23
(dp311
g5
S'30'
p312
sg7
g23
sg8
g45
sg9
g3
sg10
S'DEN'
p313
sg12
g3
sg13
g3
sg14
g45
sg16
g17
sg18
g45
sg20
S'67.5'
p314
sg22
g19
sg24
S'16.0'
p315
sg26
S'10/12'
p316
sg28
S'100.0'
p317
sg30
S'Nick Folk'
p318
sg32
S'L17-31'
p319
sg34
S'2014'
p320
sg36
g17
sg37
S'100.0'
p321
sg39
g45
sg40
g17
ssg104
(dp322
g5
S'39'
p323
sg7
g104
sg8
g45
sg9
g3
sg10
S'@KC'
p324
sg12
g3
sg13
g3
sg14
g17
sg16
g17
sg18
g3
sg20
S'72.5'
p325
sg22
g45
sg24
S'52.5'
p326
sg26
S'11/02'
p327
sg28
S'100.0'
p328
sg30
S'Nick Folk'
p329
sg32
S'L10-24'
p330
sg34
S'2014'
p331
sg36
g17
sg37
S'100.0'
p332
sg39
g3
sg40
g17
ssg125
(dp333
g5
S'55'
p334
sg7
g125
sg8
g45
sg9
g3
sg10
S'BUF'
p335
sg12
g3
sg13
g3
sg14
g45
sg16
g17
sg18
g45
sg20
S'64.5'
p336
sg22
g19
sg24
S'9.5'
p337
sg26
S'10/26'
p338
sg28
S'100.0'
p339
sg30
S'Nick Folk'
p340
sg32
S'L23-43'
p341
sg34
S'2014'
p342
sg36
g17
sg37
S'100.0'
p343
sg39
g45
sg40
g17
sssS'2011'
p344
(dp345
g139
(dp346
g5
S'45'
p347
sg7
S'11'
p348
sg8
g41
sg9
g19
sg10
S'@DEN'
p349
sg12
g3
sg13
g45
sg14
g3
sg16
g17
sg18
g3
sg20
S'69.5'
p350
sg22
g19
sg24
S'33.0'
p351
sg26
S'11/17'
p352
sg28
S'100.0'
p353
sg30
S'Nick Folk'
p354
sg32
S'L13-17'
p355
sg34
S'2011'
p356
sg36
g17
sg37
S'50.0'
p357
sg39
g3
sg40
g17
ssg145
(dp358
g5
g17
sg7
S'10'
p359
sg8
g45
sg9
g3
sg10
S'NE'
p360
sg12
g3
sg13
g17
sg14
g3
sg16
g17
sg18
g45
sg20
S'62.3'
p361
sg22
g41
sg24
S'21.0'
p362
sg26
S'11/13'
p363
sg28
S'100.0'
p364
sg30
S'Nick Folk'
p365
sg32
S'L16-37'
p366
sg34
S'2011'
p367
sg36
g17
sg37
S'0.0'
p368
sg39
g45
sg40
g17
ssg158
(dp369
g5
S'51'
p370
sg7
S'13'
p371
sg8
g81
sg9
g41
sg10
S'@WAS'
p372
sg12
g3
sg13
g45
sg14
g17
sg16
g17
sg18
g19
sg20
S'62.9'
p373
sg22
g81
sg24
S'23.4'
p374
sg26
S'12/04'
p375
sg28
S'100.0'
p376
sg30
S'Nick Folk'
p377
sg32
S'W34-19'
p378
sg34
S'2011'
p379
sg36
g17
sg37
S'66.7'
p380
sg39
g19
sg40
g17
ssg171
(dp381
g5
g17
sg7
S'12'
p382
sg8
g41
sg9
g17
sg10
S'BUF'
p383
sg12
g3
sg13
g17
sg14
g45
sg16
g17
sg18
g19
sg20
S'65.0'
p384
sg22
g15
sg24
S'23.7'
p385
sg26
S'11/27'
p386
sg28
S'100.0'
p387
sg30
S'Nick Folk'
p388
sg32
S'W28-24'
p389
sg34
S'2011'
p390
sg36
g17
sg37
S'--'
p391
sg39
g19
sg40
g17
ssg184
(dp392
g5
S'39'
p393
sg7
S'15'
p394
sg8
g19
sg9
g45
sg10
S'@PHI'
p395
sg12
g3
sg13
g45
sg14
g3
sg16
g17
sg18
g3
sg20
S'63.2'
p396
sg22
g15
sg24
S'17.0'
p397
sg26
S'12/18'
p398
sg28
S'100.0'
p399
sg30
S'Nick Folk'
p400
sg32
S'L19-45'
p401
sg34
S'2011'
p402
sg36
g17
sg37
S'100.0'
p403
sg39
g3
sg40
g17
ssg200
(dp404
g5
g17
sg7
S'14'
p405
sg8
g23
sg9
g17
sg10
S'KC'
p406
sg12
g3
sg13
g17
sg14
g17
sg16
g17
sg18
g15
sg20
S'62.3'
p407
sg22
g23
sg24
S'20.0'
p408
sg26
S'12/11'
p409
sg28
S'100.0'
p410
sg30
S'Nick Folk'
p411
sg32
S'W37-10'
p412
sg34
S'2011'
p413
sg36
g17
sg37
S'--'
p414
sg39
g15
sg40
g17
ssg213
(dp415
g5
S'31'
p416
sg7
S'17'
p417
sg8
g45
sg9
g3
sg10
S'@MIA'
p418
sg12
g3
sg13
g3
sg14
g3
sg16
g17
sg18
g45
sg20
S'55.8'
p419
sg22
g19
sg24
S'21.0'
p420
sg26
S'01/01'
p421
sg28
S'100.0'
p422
sg30
S'Nick Folk'
p423
sg32
S'L17-19'
p424
sg34
S'2011'
p425
sg36
g17
sg37
S'100.0'
p426
sg39
g45
sg40
g17
ssg226
(dp427
g5
g17
sg7
S'16'
p428
sg8
g41
sg9
g3
sg10
S'NYG'
p429
sg12
g3
sg13
g17
sg14
g17
sg16
g17
sg18
g45
sg20
S'51.8'
p430
sg22
g19
sg24
S'25.7'
p431
sg26
S'12/24'
p432
sg28
S'100.0'
p433
sg30
S'Nick Folk'
p434
sg32
S'L14-29'
p435
sg34
S'2011'
p436
sg36
g17
sg37
S'0.0'
p437
sg39
g45
sg40
g17
ssg3
(dp438
g5
S'50'
p439
sg7
g3
sg8
g45
sg9
g45
sg10
S'DAL'
p440
sg12
g3
sg13
g45
sg14
g19
sg16
g17
sg18
g41
sg20
S'63.8'
p441
sg22
g23
sg24
S'15.0'
p442
sg26
S'09/11'
p443
sg28
S'100.0'
p444
sg30
S'Nick Folk'
p445
sg32
S'W27-24'
p446
sg34
S'2011'
p447
sg36
g17
sg37
S'100.0'
p448
sg39
g41
sg40
g17
ssg41
(dp449
g5
S'21'
p450
sg7
g41
sg8
g41
sg9
g3
sg10
S'@OAK'
p451
sg12
g3
sg13
g3
sg14
g45
sg16
g17
sg18
g41
sg20
S'65.2'
p452
sg22
g15
sg24
S'17.3'
p453
sg26
S'09/25'
p454
sg28
S'100.0'
p455
sg30
S'Nick Folk'
p456
sg32
S'L24-34'
p457
sg34
S'2011'
p458
sg36
g17
sg37
S'100.0'
p459
sg39
g41
sg40
g17
ssg45
(dp460
g5
S'45'
p461
sg7
g45
sg8
g23
sg9
g41
sg10
S'JAC'
p462
sg12
g3
sg13
g41
sg14
g3
sg16
g17
sg18
g41
sg20
S'62.7'
p463
sg22
g81
sg24
S'17.3'
p464
sg26
S'09/18'
p465
sg28
S'100.0'
p466
sg30
S'Nick Folk'
p467
sg32
S'W32-3'
p468
sg34
S'2011'
p469
sg36
g17
sg37
S'100.0'
p470
sg39
g41
sg40
g17
ssg15
(dp471
g5
g17
sg7
g15
sg8
g41
sg9
g17
sg10
S'@NE'
p472
sg12
g3
sg13
g17
sg14
g3
sg16
g17
sg18
g41
sg20
S'69.3'
p473
sg22
g19
sg24
S'23.7'
p474
sg26
S'10/09'
p475
sg28
S'100.0'
p476
sg30
S'Nick Folk'
p477
sg32
S'L21-30'
p478
sg34
S'2011'
p479
sg36
g17
sg37
S'--'
p480
sg39
g41
sg40
g17
ssg19
(dp481
g5
S'40'
p482
sg7
g19
sg8
g41
sg9
g3
sg10
S'@BAL'
p483
sg12
g3
sg13
g3
sg14
g17
sg16
g17
sg18
g45
sg20
S'62.0'
p484
sg22
g19
sg24
S'16.3'
p485
sg26
S'10/02'
p486
sg28
S'100.0'
p487
sg30
S'Nick Folk'
p488
sg32
S'L17-34'
p489
sg34
S'2011'
p490
sg36
g17
sg37
S'100.0'
p491
sg39
g45
sg40
g17
ssg81
(dp492
g5
S'35'
p493
sg7
g81
sg8
g23
sg9
g45
sg10
S'SD'
p494
sg12
g3
sg13
g45
sg14
g17
sg16
g17
sg18
g41
sg20
S'68.3'
p495
sg22
g23
sg24
S'23.2'
p496
sg26
S'10/23'
p497
sg28
S'100.0'
p498
sg30
S'Nick Folk'
p499
sg32
S'W27-21'
p500
sg34
S'2011'
p501
sg36
g17
sg37
S'100.0'
p502
sg39
g41
sg40
g17
ssg23
(dp503
g5
S'28'
p504
sg7
g23
sg8
g19
sg9
g3
sg10
S'MIA'
p505
sg12
g3
sg13
g3
sg14
g3
sg16
g17
sg18
g41
sg20
S'67.6'
p506
sg22
g15
sg24
S'21.8'
p507
sg26
S'10/17'
p508
sg28
S'100.0'
p509
sg30
S'Nick Folk'
p510
sg32
S'W24-6'
p511
sg34
S'2011'
p512
sg36
g17
sg37
S'100.0'
p513
sg39
g41
sg40
g17
ssg104
(dp514
g5
S'50'
p515
sg7
g104
sg8
g19
sg9
g41
sg10
S'@BUF'
p516
sg12
g3
sg13
g45
sg14
g45
sg16
g17
sg18
g41
sg20
S'64.2'
p517
sg22
g23
sg24
S'19.0'
p518
sg26
S'11/06'
p519
sg28
S'100.0'
p520
sg30
S'Nick Folk'
p521
sg32
S'W27-11'
p522
sg34
S'2011'
p523
sg36
g17
sg37
S'66.7'
p524
sg39
g41
sg40
g17
ssg125
(dp525
g5
g66
sg7
g125
sg8
g66
sg9
g66
sg10
g66
sg12
g66
sg13
g66
sg14
g66
sg16
g66
sg18
g66
sg20
g66
sg22
g66
sg24
g66
sg26
S'Bye'
p526
sg28
g66
sg30
S'Nick Folk'
p527
sg32
g66
sg34
S'2011'
p528
sg36
g66
sg37
g66
sg39
g66
sg40
g66
sssS'2010'
p529
(dp530
g139
(dp531
g5
S'37'
p532
sg7
S'11'
p533
sg8
g81
sg9
g19
sg10
S'HOU'
p534
sg12
g3
sg13
g41
sg14
g17
sg16
g17
sg18
g41
sg20
S'60.6'
p535
sg22
g81
sg24
S'12.7'
p536
sg26
S'11/21'
p537
sg28
S'100.0'
p538
sg30
S'Nick Folk'
p539
sg32
S'W30-27'
p540
sg34
S'2010'
p541
sg36
g17
sg37
S'75.0'
p542
sg39
g41
sg40
g17
ssg145
(dp543
g5
S'27'
p544
sg7
S'10'
p545
sg8
g19
sg9
g15
sg10
S'@CLE'
p546
sg12
g3
sg13
g45
sg14
g3
sg16
g17
sg18
g45
sg20
S'61.8'
p547
sg22
g15
sg24
S'18.3'
p548
sg26
S'11/14'
p549
sg28
S'100.0'
p550
sg30
S'Nick Folk'
p551
sg32
S'W26-20'
p552
sg34
S'2010'
p553
sg36
g17
sg37
S'40.0'
p554
sg39
g45
sg40
g17
ssg158
(dp555
g5
S'39'
p556
sg7
S'13'
p557
sg8
g45
sg9
g45
sg10
S'@NE'
p558
sg12
g3
sg13
g3
sg14
g17
sg16
g17
sg18
g17
sg20
S'62.0'
p559
sg22
g45
sg24
S'21.0'
p560
sg26
S'12/06'
p561
sg28
S'--'
p562
sg30
S'Nick Folk'
p563
sg32
S'L3-45'
p564
sg34
S'2010'
p565
sg36
g17
sg37
S'50.0'
p566
sg39
g17
sg40
g17
ssg171
(dp567
g5
S'27'
p568
sg7
S'12'
p569
sg8
g15
sg9
g45
sg10
S'CIN'
p570
sg12
g3
sg13
g3
sg14
g17
sg16
g17
sg18
g41
sg20
S'58.8'
p571
sg22
g15
sg24
S'19.4'
p572
sg26
S'11/25'
p573
sg28
S'100.0'
p574
sg30
S'Nick Folk'
p575
sg32
S'W26-10'
p576
sg34
S'2010'
p577
sg36
g17
sg37
S'50.0'
p578
sg39
g41
sg40
g17
ssg184
(dp579
g5
S'34'
p580
sg7
S'15'
p581
sg8
g15
sg9
g45
sg10
S'@PIT'
p582
sg12
g3
sg13
g45
sg14
g17
sg16
g17
sg18
g45
sg20
S'56.8'
p583
sg22
g15
sg24
S'14.4'
p584
sg26
S'12/19'
p585
sg28
S'100.0'
p586
sg30
S'Nick Folk'
p587
sg32
S'W22-17'
p588
sg34
S'2010'
p589
sg36
g17
sg37
S'100.0'
p590
sg39
g45
sg40
g17
ssg200
(dp591
g5
S'42'
p592
sg7
S'14'
p593
sg8
g41
sg9
g45
sg10
S'MIA'
p594
sg12
g3
sg13
g45
sg14
g17
sg16
g17
sg18
g17
sg20
S'69.0'
p595
sg22
g41
sg24
S'25.7'
p596
sg26
S'12/12'
p597
sg28
S'--'
p598
sg30
S'Nick Folk'
p599
sg32
S'L6-10'
p600
sg34
S'2010'
p601
sg36
g17
sg37
S'100.0'
p602
sg39
g17
sg40
g17
ssg213
(dp603
g5
S'28'
p604
sg7
S'17'
p605
sg8
g81
sg9
g3
sg10
S'BUF'
p606
sg12
g3
sg13
g3
sg14
g17
sg16
g17
sg18
g15
sg20
S'60.7'
p607
sg22
g81
sg24
S'17.6'
p608
sg26
S'01/02'
p609
sg28
S'100.0'
p610
sg30
S'Nick Folk'
p611
sg32
S'W38-7'
p612
sg34
S'2010'
p613
sg36
g17
sg37
S'100.0'
p614
sg39
g15
sg40
g17
ssg226
(dp615
g5
S'34'
p616
sg7
S'16'
p617
sg8
g81
sg9
g45
sg10
S'@CHI'
p618
sg12
g3
sg13
g45
sg14
g17
sg16
g17
sg18
g19
sg20
S'47.9'
p619
sg22
g81
sg24
S'16.3'
p620
sg26
S'12/26'
p621
sg28
S'100.0'
p622
sg30
S'Nick Folk'
p623
sg32
S'L34-38'
p624
sg34
S'2010'
p625
sg36
g17
sg37
S'100.0'
p626
sg39
g19
sg40
g17
ssg3
(dp627
g5
S'48'
p628
sg7
g3
sg8
g19
sg9
g41
sg10
S'BAL'
p629
sg12
g3
sg13
g41
sg14
g17
sg16
g17
sg18
g17
sg20
S'61.5'
p630
sg22
g19
sg24
S'18.0'
p631
sg26
S'09/13'
p632
sg28
S'--'
p633
sg30
S'Nick Folk'
p634
sg32
S'L9-10'
p635
sg34
S'2010'
p636
sg36
g17
sg37
S'100.0'
p637
sg39
g17
sg40
g17
ssg41
(dp638
g5
S'30'
p639
sg7
g41
sg8
g23
sg9
g45
sg10
S'@MIA'
p640
sg12
g3
sg13
g3
sg14
g17
sg16
g17
sg18
g19
sg20
S'66.0'
p641
sg22
g23
sg24
S'23.5'
p642
sg26
S'09/26'
p643
sg28
S'100.0'
p644
sg30
S'Nick Folk'
p645
sg32
S'W31-23'
p646
sg34
S'2010'
p647
sg36
g17
sg37
S'50.0'
p648
sg39
g19
sg40
g3
ssg45
(dp649
g5
S'49'
p650
sg7
g45
sg8
g15
sg9
g45
sg10
S'NE'
p651
sg12
g3
sg13
g45
sg14
g17
sg16
g17
sg18
g45
sg20
S'69.8'
p652
sg22
g15
sg24
S'24.6'
p653
sg26
S'09/19'
p654
sg28
S'100.0'
p655
sg30
S'Nick Folk'
p656
sg32
S'W28-14'
p657
sg34
S'2010'
p658
sg36
g17
sg37
S'100.0'
p659
sg39
g45
sg40
g17
ssg15
(dp660
g5
S'53'
p661
sg7
g15
sg8
g81
sg9
g15
sg10
S'MIN'
p662
sg12
g3
sg13
g15
sg14
g17
sg16
g17
sg18
g45
sg20
S'64.3'
p663
sg22
g125
sg24
S'25.0'
p664
sg26
S'10/11'
p665
sg28
S'100.0'
p666
sg30
S'Nick Folk'
p667
sg32
S'W29-20'
p668
sg34
S'2010'
p669
sg36
g17
sg37
S'100.0'
p670
sg39
g45
sg40
g17
ssg19
(dp671
g5
S'19'
p672
sg7
g19
sg8
g23
sg9
g45
sg10
S'@BUF'
p673
sg12
g3
sg13
g3
sg14
g3
sg16
g17
sg18
g15
sg20
S'62.0'
p674
sg22
g81
sg24
S'18.3'
p675
sg26
S'10/03'
p676
sg28
S'100.0'
p677
sg30
S'Nick Folk'
p678
sg32
S'W38-14'
p679
sg34
S'2010'
p680
sg36
g17
sg37
S'50.0'
p681
sg39
g15
sg40
g17
ssg81
(dp682
g5
g66
sg7
g81
sg8
g66
sg9
g66
sg10
g66
sg12
g66
sg13
g66
sg14
g66
sg16
g66
sg18
g66
sg20
g66
sg22
g66
sg24
g66
sg26
S'Bye'
p683
sg28
g66
sg30
S'Nick Folk'
p684
sg32
g66
sg34
S'2010'
p685
sg36
g66
sg37
g66
sg39
g66
sg40
g66
ssg23
(dp686
g5
S'56'
p687
sg7
g23
sg8
g17
sg9
g3
sg10
S'@DEN'
p688
sg12
g3
sg13
g3
sg14
g15
sg16
g17
sg18
g41
sg20
S'70.0'
p689
sg22
g15
sg24
S'--'
p690
sg26
S'10/17'
p691
sg28
S'100.0'
p692
sg30
S'Nick Folk'
p693
sg32
S'W24-20'
p694
sg34
S'2010'
p695
sg36
g17
sg37
S'100.0'
p696
sg39
g41
sg40
g17
ssg104
(dp697
g5
S'36'
p698
sg7
g104
sg8
g19
sg9
g41
sg10
S'@DET'
p699
sg12
g3
sg13
g41
sg14
g17
sg16
g17
sg18
g45
sg20
S'70.5'
p700
sg22
g19
sg24
S'28.8'
p701
sg26
S'11/07'
p702
sg28
S'100.0'
p703
sg30
S'Nick Folk'
p704
sg32
S'W23-20'
p705
sg34
S'2010'
p706
sg36
g17
sg37
S'100.0'
p707
sg39
g45
sg40
g17
ssg125
(dp708
g5
g17
sg7
g125
sg8
g3
sg9
g3
sg10
S'GB'
p709
sg12
g3
sg13
g17
sg14
g17
sg16
g17
sg18
g17
sg20
S'52.0'
p710
sg22
g3
sg24
S'5.0'
p711
sg26
S'10/31'
p712
sg28
S'--'
p713
sg30
S'Nick Folk'
p714
sg32
S'L0-9'
p715
sg34
S'2010'
p716
sg36
g17
sg37
S'0.0'
p717
sg39
g17
sg40
g17
sssS'2013'
p718
(dp719
g139
(dp720
g5
g17
sg7
S'11'
p721
sg8
g3
sg9
g3
sg10
S'@BUF'
p722
sg12
g3
sg13
g17
sg14
g45
sg16
g17
sg18
g45
sg20
S'66.0'
p723
sg22
g41
sg24
S'26.0'
p724
sg26
S'11/17'
p725
sg28
S'100.0'
p726
sg30
S'Nick Folk'
p727
sg32
S'L14-37'
p728
sg34
S'2013'
p729
sg36
g17
sg37
S'0.0'
p730
sg39
g45
sg40
g17
ssg145
(dp731
g5
g66
sg7
S'10'
p732
sg8
g66
sg9
g66
sg10
g66
sg12
g66
sg13
g66
sg14
g66
sg16
g66
sg18
g66
sg20
g66
sg22
g66
sg24
g66
sg26
S'Bye'
p733
sg28
g66
sg30
S'Nick Folk'
p734
sg32
g66
sg34
S'2013'
p735
sg36
g66
sg37
g66
sg39
g66
sg40
g66
ssg158
(dp736
g5
S'20'
p737
sg7
S'13'
p738
sg8
g45
sg9
g3
sg10
S'MIA'
p739
sg12
g3
sg13
g3
sg14
g17
sg16
g17
sg18
g17
sg20
S'69.5'
p740
sg22
g45
sg24
S'34.5'
p741
sg26
S'12/01'
p742
sg28
S'--'
p743
sg30
S'Nick Folk'
p744
sg32
S'L3-23'
p745
sg34
S'2013'
p746
sg36
g17
sg37
S'100.0'
p747
sg39
g17
sg40
g17
ssg171
(dp748
g5
S'27'
p749
sg7
S'12'
p750
sg8
g45
sg9
g3
sg10
S'@BAL'
p751
sg12
g3
sg13
g3
sg14
g17
sg16
g17
sg18
g17
sg20
S'59.0'
p752
sg22
g45
sg24
S'19.0'
p753
sg26
S'11/24'
p754
sg28
S'--'
p755
sg30
S'Nick Folk'
p756
sg32
S'L3-19'
p757
sg34
S'2013'
p758
sg36
g17
sg37
S'100.0'
p759
sg39
g17
sg40
g17
ssg184
(dp760
g5
S'54'
p761
sg7
S'15'
p762
sg8
g41
sg9
g45
sg10
S'@CAR'
p763
sg12
g3
sg13
g45
sg14
g3
sg16
g17
sg18
g45
sg20
S'51.4'
p764
sg22
g15
sg24
S'16.3'
p765
sg26
S'12/15'
p766
sg28
S'100.0'
p767
sg30
S'Nick Folk'
p768
sg32
S'L20-30'
p769
sg34
S'2013'
p770
sg36
g17
sg37
S'100.0'
p771
sg39
g45
sg40
g17
ssg200
(dp772
g5
S'51'
p773
sg7
S'14'
p774
sg8
g125
sg9
g41
sg10
S'OAK'
p775
sg12
g3
sg13
g41
sg14
g17
sg16
g17
sg18
g19
sg20
S'60.5'
p776
sg22
g125
sg24
S'16.9'
p777
sg26
S'12/08'
p778
sg28
S'100.0'
p779
sg30
S'Nick Folk'
p780
sg32
S'W37-27'
p781
sg34
S'2013'
p782
sg36
g17
sg37
S'100.0'
p783
sg39
g19
sg40
g17
ssg213
(dp784
g5
S'35'
p785
sg7
S'17'
p786
sg8
g19
sg9
g41
sg10
S'@MIA'
p787
sg12
g3
sg13
g45
sg14
g3
sg16
g17
sg18
g45
sg20
S'58.0'
p788
sg22
g15
sg24
S'13.3'
p789
sg26
S'12/29'
p790
sg28
S'100.0'
p791
sg30
S'Nick Folk'
p792
sg32
S'W20-7'
p793
sg34
S'2013'
p794
sg36
g17
sg37
S'66.7'
p795
sg39
g45
sg40
g17
ssg226
(dp796
g5
S'21'
p797
sg7
S'16'
p798
sg8
g41
sg9
g45
sg10
S'CLE'
p799
sg12
g3
sg13
g3
sg14
g3
sg16
g17
sg18
g41
sg20
S'64.8'
p800
sg22
g19
sg24
S'30.7'
p801
sg26
S'12/22'
p802
sg28
S'100.0'
p803
sg30
S'Nick Folk'
p804
sg32
S'W24-13'
p805
sg34
S'2013'
p806
sg36
g17
sg37
S'50.0'
p807
sg39
g41
sg40
g17
ssg3
(dp808
g5
S'48'
p809
sg7
g3
sg8
g41
sg9
g41
sg10
S'TB'
p810
sg12
g3
sg13
g41
sg14
g45
sg16
g17
sg18
g3
sg20
S'61.6'
p811
sg22
g15
sg24
S'30.7'
p812
sg26
S'09/08'
p813
sg28
S'100.0'
p814
sg30
S'Nick Folk'
p815
sg32
S'W18-17'
p816
sg34
S'2013'
p817
sg36
g17
sg37
S'100.0'
p818
sg39
g3
sg40
g17
ssg41
(dp819
g5
S'47'
p820
sg7
g41
sg8
g3
sg9
g45
sg10
S'BUF'
p821
sg12
g3
sg13
g45
sg14
g19
sg16
g17
sg18
g41
sg20
S'66.0'
p822
sg22
g15
sg24
S'18.0'
p823
sg26
S'09/22'
p824
sg28
S'100.0'
p825
sg30
S'Nick Folk'
p826
sg32
S'W27-20'
p827
sg34
S'2013'
p828
sg36
g17
sg37
S'100.0'
p829
sg39
g41
sg40
g17
ssg45
(dp830
g5
S'37'
p831
sg7
g45
sg8
g3
sg9
g3
sg10
S'@NE'
p832
sg12
g3
sg13
g3
sg14
g45
sg16
g17
sg18
g3
sg20
S'67.0'
p833
sg22
g41
sg24
S'25.0'
p834
sg26
S'09/12'
p835
sg28
S'100.0'
p836
sg30
S'Nick Folk'
p837
sg32
S'L10-13'
p838
sg34
S'2013'
p839
sg36
g17
sg37
S'100.0'
p840
sg39
g3
sg40
g17
ssg15
(dp841
g5
S'43'
p842
sg7
g15
sg8
g3
sg9
g41
sg10
S'@ATL'
p843
sg12
g3
sg13
g41
sg14
g15
sg16
g17
sg18
g41
sg20
S'64.8'
p844
sg22
g23
sg24
S'23.0'
p845
sg26
S'10/07'
p846
sg28
S'100.0'
p847
sg30
S'Nick Folk'
p848
sg32
S'W30-28'
p849
sg34
S'2013'
p850
sg36
g17
sg37
S'100.0'
p851
sg39
g41
sg40
g17
ssg19
(dp852
g5
S'47'
p853
sg7
g19
sg8
g17
sg9
g45
sg10
S'@TEN'
p854
sg12
g3
sg13
g45
sg14
g19
sg16
g17
sg18
g3
sg20
S'65.0'
p855
sg22
g19
sg24
S'--'
p856
sg26
S'09/29'
p857
sg28
S'100.0'
p858
sg30
S'Nick Folk'
p859
sg32
S'L13-38'
p860
sg34
S'2013'
p861
sg36
g17
sg37
S'100.0'
p862
sg39
g3
sg40
g17
ssg81
(dp863
g5
S'42'
p864
sg7
g81
sg8
g19
sg9
g41
sg10
S'NE'
p865
sg12
g3
sg13
g41
sg14
g41
sg16
g17
sg18
g41
sg20
S'66.3'
p866
sg22
g81
sg24
S'24.0'
p867
sg26
S'10/20'
p868
sg28
S'100.0'
p869
sg30
S'Nick Folk'
p870
sg32
S'W30-27'
p871
sg34
S'2013'
p872
sg36
g17
sg37
S'100.0'
p873
sg39
g41
sg40
g17
ssg23
(dp874
g5
S'39'
p875
sg7
g23
sg8
g45
sg9
g45
sg10
S'PIT'
p876
sg12
g3
sg13
g45
sg14
g3
sg16
g17
sg18
g17
sg20
S'56.3'
p877
sg22
g41
sg24
S'14.0'
p878
sg26
S'10/13'
p879
sg28
S'--'
p880
sg30
S'Nick Folk'
p881
sg32
S'L6-19'
p882
sg34
S'2013'
p883
sg36
g17
sg37
S'100.0'
p884
sg39
g17
sg40
g17
ssg104
(dp885
g5
S'47'
p886
sg7
g104
sg8
g41
sg9
g19
sg10
S'NO'
p887
sg12
g3
sg13
g19
sg14
g19
sg16
g17
sg18
g45
sg20
S'65.1'
p888
sg22
g81
sg24
S'20.3'
p889
sg26
S'11/03'
p890
sg28
S'100.0'
p891
sg30
S'Nick Folk'
p892
sg32
S'W26-20'
p893
sg34
S'2013'
p894
sg36
g17
sg37
S'100.0'
p895
sg39
g45
sg40
g17
ssg125
(dp896
g5
S'50'
p897
sg7
g125
sg8
g19
sg9
g41
sg10
S'@CIN'
p898
sg12
g3
sg13
g41
sg14
g17
sg16
g17
sg18
g17
sg20
S'65.5'
p899
sg22
g19
sg24
S'33.3'
p900
sg26
S'10/27'
p901
sg28
S'--'
p902
sg30
S'Nick Folk'
p903
sg32
S'L9-49'
p904
sg34
S'2013'
p905
sg36
g17
sg37
S'100.0'
p906
sg39
g17
sg40
g17
sssS'2012'
p907
(dp908
g139
(dp909
g5
S'51'
p910
sg7
S'11'
p911
sg8
g15
sg9
g19
sg10
S'@STL'
p912
sg12
g3
sg13
g45
sg14
g3
sg16
g17
sg18
g41
sg20
S'67.5'
p913
sg22
g23
sg24
S'25.4'
p914
sg26
S'11/18'
p915
sg28
S'100.0'
p916
sg30
S'Nick Folk'
p917
sg32
S'W27-13'
p918
sg34
S'2012'
p919
sg36
g17
sg37
S'50.0'
p920
sg39
g41
sg40
g3
ssg145
(dp921
g5
g17
sg7
S'10'
p922
sg8
g3
sg9
g17
sg10
S'@SEA'
p923
sg12
g3
sg13
g17
sg14
g17
sg16
g17
sg18
g3
sg20
S'63.5'
p924
sg22
g45
sg24
S'17.0'
p925
sg26
S'11/11'
p926
sg28
S'100.0'
p927
sg30
S'Nick Folk'
p928
sg32
S'L7-28'
p929
sg34
S'2012'
p930
sg36
g17
sg37
S'--'
p931
sg39
g3
sg40
g17
ssg158
(dp932
g5
g17
sg7
S'13'
p933
sg8
g45
sg9
g45
sg10
S'ARI'
p934
sg12
g3
sg13
g17
sg14
g17
sg16
g17
sg18
g3
sg20
S'63.0'
p935
sg22
g45
sg24
S'19.5'
p936
sg26
S'12/02'
p937
sg28
S'100.0'
p938
sg30
S'Nick Folk'
p939
sg32
S'W7-6'
p940
sg34
S'2012'
p941
sg36
g17
sg37
S'0.0'
p942
sg39
g3
sg40
g17
ssg171
(dp943
g5
S'32'
p944
sg7
S'12'
p945
sg8
g19
sg9
g3
sg10
S'NE'
p946
sg12
g3
sg13
g3
sg14
g17
sg16
g17
sg18
g45
sg20
S'54.3'
p947
sg22
g19
sg24
S'9.5'
p948
sg26
S'11/22'
p949
sg28
S'100.0'
p950
sg30
S'Nick Folk'
p951
sg32
S'L19-49'
p952
sg34
S'2012'
p953
sg36
g17
sg37
S'100.0'
p954
sg39
g45
sg40
g17
ssg184
(dp955
g5
S'22'
p956
sg7
S'15'
p957
sg8
g41
sg9
g3
sg10
S'@TEN'
p958
sg12
g3
sg13
g3
sg14
g17
sg16
g17
sg18
g3
sg20
S'64.3'
p959
sg22
g41
sg24
S'25.0'
p960
sg26
S'12/17'
p961
sg28
S'100.0'
p962
sg30
S'Nick Folk'
p963
sg32
S'L10-14'
p964
sg34
S'2012'
p965
sg36
g17
sg37
S'100.0'
p966
sg39
g3
sg40
g17
ssg200
(dp967
g5
S'44'
p968
sg7
S'14'
p969
sg8
g19
sg9
g3
sg10
S'@JAC'
p970
sg12
g3
sg13
g3
sg14
g17
sg16
g17
sg18
g45
sg20
S'66.5'
p971
sg22
g19
sg24
S'19.5'
p972
sg26
S'12/09'
p973
sg28
S'100.0'
p974
sg30
S'Nick Folk'
p975
sg32
S'W17-10'
p976
sg34
S'2012'
p977
sg36
g17
sg37
S'100.0'
p978
sg39
g45
sg40
g17
ssg213
(dp979
g5
S'47'
p980
sg7
S'17'
p981
sg8
g19
sg9
g19
sg10
S'@BUF'
p982
sg12
g3
sg13
g41
sg14
g17
sg16
g17
sg18
g17
sg20
S'63.8'
p983
sg22
g19
sg24
S'26.8'
p984
sg26
S'12/30'
p985
sg28
S'--'
p986
sg30
S'Nick Folk'
p987
sg32
S'L9-28'
p988
sg34
S'2012'
p989
sg36
g17
sg37
S'75.0'
p990
sg39
g17
sg40
g3
ssg226
(dp991
g5
S'40'
p992
sg7
S'16'
p993
sg8
g19
sg9
g3
sg10
S'SD'
p994
sg12
g3
sg13
g3
sg14
g17
sg16
g17
sg18
g45
sg20
S'65.3'
p995
sg22
g19
sg24
S'16.5'
p996
sg26
S'12/23'
p997
sg28
S'100.0'
p998
sg30
S'Nick Folk'
p999
sg32
S'L17-27'
p1000
sg34
S'2012'
p1001
sg36
g17
sg37
S'100.0'
p1002
sg39
g45
sg40
g17
ssg3
(dp1003
g5
S'39'
p1004
sg7
g3
sg8
g41
sg9
g45
sg10
S'BUF'
p1005
sg12
g3
sg13
g45
sg14
g23
sg16
g17
sg18
g23
sg20
S'66.0'
p1006
sg22
g104
sg24
S'23.7'
p1007
sg26
S'09/09'
p1008
sg28
S'100.0'
p1009
sg30
S'Nick Folk'
p1010
sg32
S'W48-28'
p1011
sg34
S'2012'
p1012
sg36
g17
sg37
S'100.0'
p1013
sg39
g23
sg40
g17
ssg41
(dp1014
g5
S'33'
p1015
sg7
g41
sg8
g19
sg9
g41
sg10
S'@MIA'
p1016
sg12
g3
sg13
g41
sg14
g3
sg16
g17
sg18
g45
sg20
S'69.4'
p1017
sg22
g15
sg24
S'23.0'
p1018
sg26
S'09/23'
p1019
sg28
S'100.0'
p1020
sg30
S'Nick Folk'
p1021
sg32
S'W23-20'
p1022
sg34
S'2012'
p1023
sg36
g17
sg37
S'100.0'
p1024
sg39
g45
sg40
g17
ssg45
(dp1025
g5
S'38'
p1026
sg7
g45
sg8
g45
sg9
g3
sg10
S'@PIT'
p1027
sg12
g3
sg13
g3
sg14
g3
sg16
g17
sg18
g3
sg20
S'65.3'
p1028
sg22
g41
sg24
S'22.5'
p1029
sg26
S'09/16'
p1030
sg28
S'100.0'
p1031
sg30
S'Nick Folk'
p1032
sg32
S'L10-27'
p1033
sg34
S'2012'
p1034
sg36
g17
sg37
S'100.0'
p1035
sg39
g3
sg40
g17
ssg15
(dp1036
g5
S'21'
p1037
sg7
g15
sg8
g41
sg9
g3
sg10
S'HOU'
p1038
sg12
g3
sg13
g3
sg14
g17
sg16
g17
sg18
g45
sg20
S'51.3'
p1039
sg22
g19
sg24
S'11.0'
p1040
sg26
S'10/08'
p1041
sg28
S'100.0'
p1042
sg30
S'Nick Folk'
p1043
sg32
S'L17-23'
p1044
sg34
S'2012'
p1045
sg36
g17
sg37
S'100.0'
p1046
sg39
g45
sg40
g17
ssg19
(dp1047
g5
S'--'
p1048
sg7
g19
sg8
g3
sg9
S'--'
p1049
sg10
S'SF'
p1050
sg12
g3
sg13
S'--'
p1051
sg14
g17
sg16
g17
sg18
S'--'
p1052
sg20
S'70.0'
p1053
sg22
g3
sg24
S'25.0'
p1054
sg26
S'09/30'
p1055
sg28
S'--'
p1056
sg30
S'Nick Folk'
p1057
sg32
S'L0-34'
p1058
sg34
S'2012'
p1059
sg36
S'--'
p1060
sg37
S'--'
p1061
sg39
S'--'
p1062
sg40
S'--'
p1063
ssg81
(dp1064
g5
S'54'
p1065
sg7
g81
sg8
g81
sg9
g19
sg10
S'@NE'
p1066
sg12
g3
sg13
g19
sg14
g3
sg16
g17
sg18
g45
sg20
S'63.3'
p1067
sg22
g125
sg24
S'29.3'
p1068
sg26
S'10/21'
p1069
sg28
S'100.0'
p1070
sg30
S'Nick Folk'
p1071
sg32
S'L26-29'
p1072
sg34
S'2012'
p1073
sg36
g17
sg37
S'100.0'
p1074
sg39
g45
sg40
g17
ssg23
(dp1075
g5
g17
sg7
g23
sg8
g19
sg9
g17
sg10
S'IND'
p1076
sg12
g3
sg13
g17
sg14
g45
sg16
g17
sg18
g15
sg20
S'64.8'
p1077
sg22
g23
sg24
S'17.8'
p1078
sg26
S'10/14'
p1079
sg28
S'100.0'
p1080
sg30
S'Nick Folk'
p1081
sg32
S'W35-9'
p1082
sg34
S'2012'
p1083
sg36
g17
sg37
S'--'
p1084
sg39
g15
sg40
g17
ssg104
(dp1085
g5
g66
sg7
g104
sg8
g66
sg9
g66
sg10
g66
sg12
g66
sg13
g66
sg14
g66
sg16
g66
sg18
g66
sg20
g66
sg22
g66
sg24
g66
sg26
S'Bye'
p1086
sg28
g66
sg30
S'Nick Folk'
p1087
sg32
g66
sg34
S'2012'
p1088
sg36
g66
sg37
g66
sg39
g66
sg40
g66
ssg125
(dp1089
g5
S'38'
p1090
sg7
g125
sg8
g45
sg9
g45
sg10
S'MIA'
p1091
sg12
g3
sg13
g3
sg14
g17
sg16
g17
sg18
g17
sg20
S'45.3'
p1092
sg22
g41
sg24
S'39.0'
p1093
sg26
S'10/28'
p1094
sg28
S'--'
p1095
sg30
S'Nick Folk'
p1096
sg32
S'L9-30'
p1097
sg34
S'2012'
p1098
sg36
g17
sg37
S'50.0'
p1099
sg39
g17
sg40
g3
sss.