(dp0
S'2014'
p1
(dp2
S'11'
p3
(dp4
S'FGLng'
p5
S'38'
p6
sS'WK'
p7
S'11'
p8
sS'Ret'
p9
S'--'
p10
sS'FGAtt'
p11
S'2'
p12
sS'Opp'
p13
S'@WAS'
p14
sS'G'
p15
S'1'
p16
sS'FGM'
p17
g12
sS'TB'
p18
S'--'
p19
sS'GS'
p20
S'0'
p21
sS'XPM'
p22
S'3'
p23
sS'KOAvg'
p24
S'--'
p25
sS'KO'
p26
S'--'
p27
sS'RetAvg'
p28
S'--'
p29
sS'Game Date'
p30
S'11/16'
p31
sS'XPPct'
p32
S'100.0'
p33
sS'Player'
p34
S'Patrick Murray'
p35
sS'Result'
p36
S'W27-7'
p37
sS'Year'
p38
S'2014'
p39
sS'XPBlk'
p40
g21
sS'FGPct'
p41
S'100.0'
p42
sS'XPAtt'
p43
g23
sS'FGBlk'
p44
g21
ssS'10'
p45
(dp46
g5
S'51'
p47
sg7
S'10'
p48
sg9
S'--'
p49
sg11
g16
sg13
S'ATL'
p50
sg15
g16
sg17
g16
sg18
S'--'
p51
sg20
g21
sg22
g12
sg24
S'--'
p52
sg26
S'--'
p53
sg28
S'--'
p54
sg30
S'11/09'
p55
sg32
S'100.0'
p56
sg34
S'Patrick Murray'
p57
sg36
S'L17-27'
p58
sg38
S'2014'
p59
sg40
g21
sg41
S'100.0'
p60
sg43
g12
sg44
g21
ssS'13'
p61
(dp62
g5
S'42'
p63
sg7
S'13'
p64
sg9
S'--'
p65
sg11
g12
sg13
S'CIN'
p66
sg15
g16
sg17
g12
sg18
S'--'
p67
sg20
g21
sg22
g16
sg24
S'--'
p68
sg26
S'--'
p69
sg28
S'--'
p70
sg30
S'11/30'
p71
sg32
S'100.0'
p72
sg34
S'Patrick Murray'
p73
sg36
S'L13-14'
p74
sg38
S'2014'
p75
sg40
g21
sg41
S'100.0'
p76
sg43
g16
sg44
g21
ssS'12'
p77
(dp78
g5
S'39'
p79
sg7
S'12'
p80
sg9
S'--'
p81
sg11
g12
sg13
S'@CHI'
p82
sg15
g16
sg17
g12
sg18
S'--'
p83
sg20
g21
sg22
g16
sg24
S'--'
p84
sg26
S'--'
p85
sg28
S'--'
p86
sg30
S'11/23'
p87
sg32
S'100.0'
p88
sg34
S'Patrick Murray'
p89
sg36
S'L13-21'
p90
sg38
S'2014'
p91
sg40
g21
sg41
S'100.0'
p92
sg43
g16
sg44
g21
ssS'15'
p93
(dp94
g5
S'48'
p95
sg7
S'15'
p96
sg9
S'--'
p97
sg11
g16
sg13
S'@CAR'
p98
sg15
g16
sg17
g16
sg18
S'--'
p99
sg20
g21
sg22
g12
sg24
S'--'
p100
sg26
S'--'
p101
sg28
S'--'
p102
sg30
S'12/14'
p103
sg32
S'100.0'
p104
sg34
S'Patrick Murray'
p105
sg36
S'L17-19'
p106
sg38
S'2014'
p107
sg40
g21
sg41
S'100.0'
p108
sg43
g12
sg44
g21
ssS'14'
p109
(dp110
g5
S'54'
p111
sg7
S'14'
p112
sg9
S'--'
p113
sg11
g16
sg13
S'@DET'
p114
sg15
g16
sg17
g16
sg18
S'--'
p115
sg20
g21
sg22
g12
sg24
S'--'
p116
sg26
S'--'
p117
sg28
S'--'
p118
sg30
S'12/07'
p119
sg32
S'100.0'
p120
sg34
S'Patrick Murray'
p121
sg36
S'L17-34'
p122
sg38
S'2014'
p123
sg40
g21
sg41
S'100.0'
p124
sg43
g12
sg44
g21
ssS'17'
p125
(dp126
g5
S'39'
p127
sg7
S'17'
p128
sg9
S'--'
p129
sg11
g12
sg13
S'NO'
p130
sg15
g16
sg17
g12
sg18
S'--'
p131
sg20
g21
sg22
g12
sg24
S'--'
p132
sg26
S'--'
p133
sg28
S'--'
p134
sg30
S'12/28'
p135
sg32
S'100.0'
p136
sg34
S'Patrick Murray'
p137
sg36
S'L20-23'
p138
sg38
S'2014'
p139
sg40
g21
sg41
S'100.0'
p140
sg43
g12
sg44
g21
ssS'16'
p141
(dp142
g5
S'43'
p143
sg7
S'16'
p144
sg9
S'--'
p145
sg11
g16
sg13
S'GB'
p146
sg15
g16
sg17
g16
sg18
S'--'
p147
sg20
g21
sg22
g21
sg24
S'--'
p148
sg26
S'--'
p149
sg28
S'--'
p150
sg30
S'12/21'
p151
sg32
S'--'
p152
sg34
S'Patrick Murray'
p153
sg36
S'L3-20'
p154
sg38
S'2014'
p155
sg40
g21
sg41
S'100.0'
p156
sg43
g21
sg44
g21
ssg16
(dp157
g5
g21
sg7
g16
sg9
S'--'
p158
sg11
g21
sg13
S'CAR'
p159
sg15
g16
sg17
g21
sg18
S'--'
p160
sg20
g21
sg22
g12
sg24
S'--'
p161
sg26
S'--'
p162
sg28
S'--'
p163
sg30
S'09/07'
p164
sg32
S'100.0'
p165
sg34
S'Patrick Murray'
p166
sg36
S'L14-20'
p167
sg38
S'2014'
p168
sg40
g21
sg41
S'--'
p169
sg43
g12
sg44
g21
ssg23
(dp170
g5
g21
sg7
g23
sg9
S'--'
p171
sg11
g21
sg13
S'@ATL'
p172
sg15
g16
sg17
g21
sg18
S'--'
p173
sg20
g21
sg22
g12
sg24
S'--'
p174
sg26
S'--'
p175
sg28
S'--'
p176
sg30
S'09/18'
p177
sg32
S'100.0'
p178
sg34
S'Patrick Murray'
p179
sg36
S'L14-56'
p180
sg38
S'2014'
p181
sg40
g21
sg41
S'--'
p182
sg43
g12
sg44
g21
ssg12
(dp183
g5
S'36'
p184
sg7
g12
sg9
S'--'
p185
sg11
g12
sg13
S'STL'
p186
sg15
g16
sg17
g16
sg18
S'--'
p187
sg20
g21
sg22
g12
sg24
S'--'
p188
sg26
S'--'
p189
sg28
S'--'
p190
sg30
S'09/14'
p191
sg32
S'100.0'
p192
sg34
S'Patrick Murray'
p193
sg36
S'L17-19'
p194
sg38
S'2014'
p195
sg40
g21
sg41
S'50.0'
p196
sg43
g12
sg44
g16
ssS'5'
p197
(dp198
g5
S'55'
p199
sg7
g197
sg9
S'--'
p200
sg11
g16
sg13
S'@NO'
p201
sg15
g16
sg17
g16
sg18
S'--'
p202
sg20
g21
sg22
S'4'
p203
sg24
S'--'
p204
sg26
S'--'
p205
sg28
S'--'
p206
sg30
S'10/05'
p207
sg32
S'100.0'
p208
sg34
S'Patrick Murray'
p209
sg36
S'L31-37'
p210
sg38
S'2014'
p211
sg40
g21
sg41
S'100.0'
p212
sg43
g203
sg44
g21
ssg203
(dp213
g5
S'50'
p214
sg7
g203
sg9
S'--'
p215
sg11
g12
sg13
S'@PIT'
p216
sg15
g16
sg17
g12
sg18
S'--'
p217
sg20
g21
sg22
g23
sg24
S'--'
p218
sg26
S'--'
p219
sg28
S'--'
p220
sg30
S'09/28'
p221
sg32
S'100.0'
p222
sg34
S'Patrick Murray'
p223
sg36
S'W27-24'
p224
sg38
S'2014'
p225
sg40
g21
sg41
S'100.0'
p226
sg43
g23
sg44
g21
ssS'7'
p227
(dp228
g5
S''
p229
sg7
g227
sg9
g229
sg11
g229
sg13
g229
sg15
g229
sg17
g229
sg18
g229
sg20
g229
sg22
g229
sg24
g229
sg26
g229
sg28
g229
sg30
S'Bye'
p230
sg32
g229
sg34
S'Patrick Murray'
p231
sg36
g229
sg38
S'2014'
p232
sg40
g229
sg41
g229
sg43
g229
sg44
g229
ssS'6'
p233
(dp234
g5
S'47'
p235
sg7
g233
sg9
S'--'
p236
sg11
g12
sg13
S'BAL'
p237
sg15
g16
sg17
g16
sg18
S'--'
p238
sg20
g21
sg22
g12
sg24
S'--'
p239
sg26
S'--'
p240
sg28
S'--'
p241
sg30
S'10/12'
p242
sg32
S'100.0'
p243
sg34
S'Patrick Murray'
p244
sg36
S'L17-48'
p245
sg38
S'2014'
p246
sg40
g21
sg41
S'50.0'
p247
sg43
g12
sg44
g21
ssS'9'
p248
(dp249
g5
S'40'
p250
sg7
g248
sg9
S'--'
p251
sg11
g23
sg13
S'@CLE'
p252
sg15
g16
sg17
g16
sg18
S'--'
p253
sg20
g21
sg22
g12
sg24
S'--'
p254
sg26
S'--'
p255
sg28
S'--'
p256
sg30
S'11/02'
p257
sg32
S'100.0'
p258
sg34
S'Patrick Murray'
p259
sg36
S'L17-22'
p260
sg38
S'2014'
p261
sg40
g21
sg41
S'33.3'
p262
sg43
g12
sg44
g16
ssS'8'
p263
(dp264
g5
S'54'
p265
sg7
g263
sg9
S'--'
p266
sg11
g12
sg13
S'MIN'
p267
sg15
g16
sg17
g12
sg18
S'--'
p268
sg20
g21
sg22
g16
sg24
S'--'
p269
sg26
S'--'
p270
sg28
S'--'
p271
sg30
S'10/26'
p272
sg32
S'100.0'
p273
sg34
S'Patrick Murray'
p274
sg36
S'L13-19'
p275
sg38
S'2014'
p276
sg40
g21
sg41
S'100.0'
p277
sg43
g16
sg44
g21
sss.