(dp0
S'2015'
p1
(dp2
S'11'
p3
(dp4
S'FGLng'
p5
S'40'
p6
sS'WK'
p7
S'11'
p8
sS'Ret'
p9
S'0'
p10
sS'FGAtt'
p11
S'1'
p12
sS'Opp'
p13
S'@HOU'
p14
sS'G'
p15
g12
sS'FGM'
p16
g12
sS'TB'
p17
S'4'
p18
sS'GS'
p19
g10
sS'XPM'
p20
S'2'
p21
sS'KOAvg'
p22
S'65.0'
p23
sS'KO'
p24
g18
sS'RetAvg'
p25
S'--'
p26
sS'Game Date'
p27
S'11/22'
p28
sS'XPPct'
p29
S'100.0'
p30
sS'Player'
p31
S'Randy Bullock'
p32
sS'Result'
p33
S'L17-24'
p34
sS'Year'
p35
S'2015'
p36
sS'XPBlk'
p37
g10
sS'FGPct'
p38
S'100.0'
p39
sS'XPAtt'
p40
g21
sS'FGBlk'
p41
g10
ssS'10'
p42
(dp43
g5
S'29'
p44
sg7
S'10'
p45
sg9
g12
sg11
g12
sg13
S'BUF'
p46
sg15
g12
sg16
g12
sg17
S'3'
p47
sg19
g10
sg20
g21
sg22
S'65.5'
p48
sg24
g18
sg25
S'22.0'
p49
sg27
S'11/12'
p50
sg29
S'100.0'
p51
sg31
S'Randy Bullock'
p52
sg33
S'L17-22'
p53
sg35
S'2015'
p54
sg37
g10
sg38
S'100.0'
p55
sg40
g21
sg41
g10
ssS'13'
p56
(dp57
g5
S'31'
p58
sg7
S'13'
p59
sg9
g18
sg11
g47
sg13
S'@NYG'
p60
sg15
g12
sg16
g47
sg17
g21
sg19
g10
sg20
g21
sg22
S'65.3'
p61
sg24
S'6'
p62
sg25
S'26.0'
p63
sg27
S'12/06'
p64
sg29
S'100.0'
p65
sg31
S'Randy Bullock'
p66
sg33
S'W23-20'
p67
sg35
S'2015'
p68
sg37
g10
sg38
S'100.0'
p69
sg40
g21
sg41
g10
ssS'12'
p70
(dp71
g5
S'41'
p72
sg7
S'12'
p73
sg9
g18
sg11
g12
sg13
S'MIA'
p74
sg15
g12
sg16
g12
sg17
g21
sg19
g10
sg20
S'5'
p75
sg22
S'67.3'
p76
sg24
S'7'
p77
sg25
S'23.0'
p78
sg27
S'11/29'
p79
sg29
S'100.0'
p80
sg31
S'Randy Bullock'
p81
sg33
S'W38-20'
p82
sg35
S'2015'
p83
sg37
g10
sg38
S'100.0'
p84
sg40
g75
sg41
g10
ssS'15'
p85
(dp86
g5
S'40'
p87
sg7
S'15'
p88
sg9
g75
sg11
g47
sg13
S'@DAL'
p89
sg15
g12
sg16
g21
sg17
g10
sg19
g10
sg20
g12
sg22
S'68.8'
p90
sg24
g75
sg25
S'26.2'
p91
sg27
S'12/19'
p92
sg29
S'50.0'
p93
sg31
S'Randy Bullock'
p94
sg33
S'W19-16'
p95
sg35
S'2015'
p96
sg37
g10
sg38
S'66.7'
p97
sg40
g21
sg41
g10
ssS'14'
p98
(dp99
g5
S'47'
p100
sg7
S'14'
p101
sg9
g47
sg11
g18
sg13
S'TEN'
p102
sg15
g12
sg16
g47
sg17
g18
sg19
g10
sg20
g47
sg22
S'64.4'
p103
sg24
g77
sg25
S'15.7'
p104
sg27
S'12/13'
p105
sg29
S'100.0'
p106
sg31
S'Randy Bullock'
p107
sg33
S'W30-8'
p108
sg35
S'2015'
p109
sg37
g10
sg38
S'75.0'
p110
sg40
g47
sg41
g10
ssS'17'
p111
(dp112
g5
S'39'
p113
sg7
S'17'
p114
sg9
g21
sg11
g21
sg13
S'@BUF'
p115
sg15
g12
sg16
g12
sg17
g21
sg19
g10
sg20
g21
sg22
S'67.3'
p116
sg24
g18
sg25
S'26.0'
p117
sg27
S'01/03'
p118
sg29
S'100.0'
p119
sg31
S'Randy Bullock'
p120
sg33
S'L17-22'
p121
sg35
S'2015'
p122
sg37
g10
sg38
S'50.0'
p123
sg40
g21
sg41
g10
ssS'16'
p124
(dp125
g5
S'49'
p126
sg7
S'16'
p127
sg9
g21
sg11
g21
sg13
S'NE'
p128
sg15
g12
sg16
g21
sg17
g47
sg19
g10
sg20
g21
sg22
S'66.4'
p129
sg24
g75
sg25
S'23.5'
p130
sg27
S'12/27'
p131
sg29
S'100.0'
p132
sg31
S'Randy Bullock'
p133
sg33
S'W26-20'
p134
sg35
S'2015'
p135
sg37
g10
sg38
S'100.0'
p136
sg40
g21
sg41
g10
ssg12
(dp137
g5
S'47'
p138
sg7
g12
sg9
g12
sg11
g21
sg13
S'KC'
p139
sg15
g12
sg16
g21
sg17
g47
sg19
g10
sg20
g10
sg22
S'56.0'
p140
sg24
g75
sg25
S'30.0'
p141
sg27
S'09/13'
p142
sg29
S'0.0'
p143
sg31
S'Randy Bullock'
p144
sg33
S'L20-27'
p145
sg35
S'2015'
p146
sg37
g10
sg38
S'100.0'
p147
sg40
g12
sg41
g10
ssg47
(dp148
g5
S'39'
p149
sg7
g47
sg9
g12
sg11
g47
sg13
S'TB'
p150
sg15
g12
sg16
g21
sg17
g18
sg19
g10
sg20
g12
sg22
S'66.2'
p151
sg24
g75
sg25
S'27.0'
p152
sg27
S'09/27'
p153
sg29
S'50.0'
p154
sg31
S'Randy Bullock'
p155
sg33
S'W19-9'
p156
sg35
S'2015'
p157
sg37
g10
sg38
S'66.7'
p158
sg40
g21
sg41
g10
ssg21
(dp159
g5
S'43'
p160
sg7
g21
sg9
g12
sg11
g12
sg13
S'@CAR'
p161
sg15
g12
sg16
g12
sg17
g47
sg19
g10
sg20
g21
sg22
S'66.0'
p162
sg24
g18
sg25
S'33.0'
p163
sg27
S'09/20'
p164
sg29
S'100.0'
p165
sg31
S'Randy Bullock'
p166
sg33
S'L17-24'
p167
sg35
S'2015'
p168
sg37
g10
sg38
S'100.0'
p169
sg40
g21
sg41
g10
sssS'2014'
p170
(dp171
g3
(dp172
g5
S'50'
p173
sg7
S'11'
p174
sg9
g75
sg11
g18
sg13
S'@CLE'
p175
sg15
g12
sg16
g47
sg17
g12
sg19
g10
sg20
g21
sg22
S'64.7'
p176
sg24
g62
sg25
S'22.0'
p177
sg27
S'11/16'
p178
sg29
S'100.0'
p179
sg31
S'Randy Bullock'
p180
sg33
S'W23-7'
p181
sg35
S'2014'
p182
sg37
g10
sg38
S'75.0'
p183
sg40
g21
sg41
g10
ssg42
(dp184
g5
S''
p185
sg7
S'10'
p186
sg9
g185
sg11
g185
sg13
g185
sg15
g185
sg16
g185
sg17
g185
sg19
g185
sg20
g185
sg22
g185
sg24
g185
sg25
g185
sg27
S'Bye'
p187
sg29
g185
sg31
S'Randy Bullock'
p188
sg33
g185
sg35
S'2014'
p189
sg37
g185
sg38
g185
sg40
g185
sg41
g185
ssg56
(dp190
g5
S'37'
p191
sg7
S'13'
p192
sg9
g21
sg11
g21
sg13
S'TEN'
p193
sg15
g12
sg16
g12
sg17
g62
sg19
g10
sg20
g62
sg22
S'65.8'
p194
sg24
S'8'
p195
sg25
S'35.5'
p196
sg27
S'11/30'
p197
sg29
S'100.0'
p198
sg31
S'Randy Bullock'
p199
sg33
S'W45-21'
p200
sg35
S'2014'
p201
sg37
g10
sg38
S'50.0'
p202
sg40
g62
sg41
g12
ssg70
(dp203
g5
S'36'
p204
sg7
S'12'
p205
sg9
g47
sg11
g21
sg13
S'CIN'
p206
sg15
g12
sg16
g21
sg17
g12
sg19
g10
sg20
g12
sg22
S'68.3'
p207
sg24
g18
sg25
S'28.0'
p208
sg27
S'11/23'
p209
sg29
S'100.0'
p210
sg31
S'Randy Bullock'
p211
sg33
S'L13-22'
p212
sg35
S'2014'
p213
sg37
g10
sg38
S'100.0'
p214
sg40
g12
sg41
g10
ssg85
(dp215
g5
S'53'
p216
sg7
S'15'
p217
sg9
g21
sg11
g12
sg13
S'@IND'
p218
sg15
g12
sg16
g12
sg17
g12
sg19
g10
sg20
g12
sg22
S'70.7'
p219
sg24
g47
sg25
S'30.0'
p220
sg27
S'12/14'
p221
sg29
S'100.0'
p222
sg31
S'Randy Bullock'
p223
sg33
S'L10-17'
p224
sg35
S'2014'
p225
sg37
g10
sg38
S'100.0'
p226
sg40
g12
sg41
g10
ssg98
(dp227
g5
S'44'
p228
sg7
S'14'
p229
sg9
g18
sg11
g21
sg13
S'@JAC'
p230
sg15
g12
sg16
g21
sg17
g21
sg19
g10
sg20
g47
sg22
S'64.8'
p231
sg24
g62
sg25
S'27.8'
p232
sg27
S'12/07'
p233
sg29
S'100.0'
p234
sg31
S'Randy Bullock'
p235
sg33
S'W27-13'
p236
sg35
S'2014'
p237
sg37
g10
sg38
S'100.0'
p238
sg40
g47
sg41
g10
ssg111
(dp239
g5
g10
sg7
S'17'
p240
sg9
g12
sg11
g10
sg13
S'JAC'
p241
sg15
g12
sg16
g10
sg17
g47
sg19
g10
sg20
g47
sg22
S'66.3'
p242
sg24
g18
sg25
S'33.0'
p243
sg27
S'12/28'
p244
sg29
S'100.0'
p245
sg31
S'Randy Bullock'
p246
sg33
S'W23-17'
p247
sg35
S'2014'
p248
sg37
g10
sg38
S'--'
p249
sg40
g47
sg41
g10
ssg124
(dp250
g5
S'39'
p251
sg7
S'16'
p252
sg9
g18
sg11
g62
sg13
S'BAL'
p253
sg15
g12
sg16
g62
sg17
g18
sg19
g10
sg20
g12
sg22
S'67.9'
p254
sg24
g195
sg25
S'30.5'
p255
sg27
S'12/21'
p256
sg29
S'100.0'
p257
sg31
S'Randy Bullock'
p258
sg33
S'W25-13'
p259
sg35
S'2014'
p260
sg37
g10
sg38
S'100.0'
p261
sg40
g12
sg41
g10
ssg12
(dp262
g5
S'42'
p263
sg7
g12
sg9
g21
sg11
g12
sg13
S'WAS'
p264
sg15
g12
sg16
g12
sg17
g21
sg19
g10
sg20
g21
sg22
S'68.3'
p265
sg24
g18
sg25
S'28.0'
p266
sg27
S'09/07'
p267
sg29
S'100.0'
p268
sg31
S'Randy Bullock'
p269
sg33
S'W17-6'
p270
sg35
S'2014'
p271
sg37
g10
sg38
S'100.0'
p272
sg40
g21
sg41
g10
ssg47
(dp273
g5
S'27'
p274
sg7
g47
sg9
g12
sg11
g12
sg13
S'@NYG'
p275
sg15
g12
sg16
g12
sg17
g21
sg19
g10
sg20
g21
sg22
S'53.3'
p276
sg24
g18
sg25
S'17.0'
p277
sg27
S'09/21'
p278
sg29
S'100.0'
p279
sg31
S'Randy Bullock'
p280
sg33
S'L17-30'
p281
sg35
S'2014'
p282
sg37
g10
sg38
S'100.0'
p283
sg40
g21
sg41
g10
ssg21
(dp284
g5
S'46'
p285
sg7
g21
sg9
g18
sg11
g18
sg13
S'@OAK'
p286
sg15
g12
sg16
g47
sg17
g47
sg19
g10
sg20
g47
sg22
S'68.3'
p287
sg24
g77
sg25
S'25.8'
p288
sg27
S'09/14'
p289
sg29
S'100.0'
p290
sg31
S'Randy Bullock'
p291
sg33
S'W30-14'
p292
sg35
S'2014'
p293
sg37
g10
sg38
S'75.0'
p294
sg40
g47
sg41
g12
ssg75
(dp295
g5
S'29'
p296
sg7
g75
sg9
g21
sg11
g12
sg13
S'@DAL'
p297
sg15
g12
sg16
g12
sg17
g21
sg19
g10
sg20
g21
sg22
S'68.5'
p298
sg24
g18
sg25
S'26.5'
p299
sg27
S'10/05'
p300
sg29
S'100.0'
p301
sg31
S'Randy Bullock'
p302
sg33
S'L17-20'
p303
sg35
S'2014'
p304
sg37
g10
sg38
S'100.0'
p305
sg40
g21
sg41
g10
ssg18
(dp306
g5
S'55'
p307
sg7
g18
sg9
g47
sg11
g47
sg13
S'BUF'
p308
sg15
g12
sg16
g47
sg17
g47
sg19
g10
sg20
g21
sg22
S'67.7'
p309
sg24
g62
sg25
S'27.3'
p310
sg27
S'09/28'
p311
sg29
S'100.0'
p312
sg31
S'Randy Bullock'
p313
sg33
S'W23-17'
p314
sg35
S'2014'
p315
sg37
g10
sg38
S'100.0'
p316
sg40
g21
sg41
g10
ssg77
(dp317
g5
S'39'
p318
sg7
g77
sg9
g47
sg11
g47
sg13
S'@PIT'
p319
sg15
g12
sg16
g47
sg17
g21
sg19
g10
sg20
g21
sg22
S'55.5'
p320
sg24
g62
sg25
S'15.0'
p321
sg27
S'10/20'
p322
sg29
S'100.0'
p323
sg31
S'Randy Bullock'
p324
sg33
S'L23-30'
p325
sg35
S'2014'
p326
sg37
g10
sg38
S'100.0'
p327
sg40
g21
sg41
g10
ssg62
(dp328
g5
g10
sg7
g62
sg9
g47
sg11
g12
sg13
S'IND'
p329
sg15
g12
sg16
g10
sg17
g21
sg19
g10
sg20
g18
sg22
S'67.4'
p330
sg24
g75
sg25
S'26.3'
p331
sg27
S'10/09'
p332
sg29
S'100.0'
p333
sg31
S'Randy Bullock'
p334
sg33
S'L28-33'
p335
sg35
S'2014'
p336
sg37
g10
sg38
S'0.0'
p337
sg40
g18
sg41
g10
ssS'9'
p338
(dp339
g5
g10
sg7
g338
sg9
g21
sg11
g12
sg13
S'PHI'
p340
sg15
g12
sg16
g10
sg17
g21
sg19
g10
sg20
g47
sg22
S'64.8'
p341
sg24
g18
sg25
S'20.5'
p342
sg27
S'11/02'
p343
sg29
S'100.0'
p344
sg31
S'Randy Bullock'
p345
sg33
S'L21-31'
p346
sg35
S'2014'
p347
sg37
g10
sg38
S'0.0'
p348
sg40
g47
sg41
g10
ssg195
(dp349
g5
S'49'
p350
sg7
g195
sg9
g47
sg11
g47
sg13
S'@TEN'
p351
sg15
g12
sg16
g47
sg17
g18
sg19
g10
sg20
g47
sg22
S'65.3'
p352
sg24
g77
sg25
S'25.7'
p353
sg27
S'10/26'
p354
sg29
S'100.0'
p355
sg31
S'Randy Bullock'
p356
sg33
S'W30-16'
p357
sg35
S'2014'
p358
sg37
g10
sg38
S'100.0'
p359
sg40
g47
sg41
g10
sssS'2013'
p360
(dp361
g3
(dp362
g5
S'51'
p363
sg7
S'11'
p364
sg9
g47
sg11
g47
sg13
S'OAK'
p365
sg15
g12
sg16
g47
sg17
g47
sg19
g10
sg20
g21
sg22
S'70.8'
p366
sg24
g62
sg25
S'25.7'
p367
sg27
S'11/17'
p368
sg29
S'100.0'
p369
sg31
S'Randy Bullock'
p370
sg33
S'L23-28'
p371
sg35
S'2013'
p372
sg37
g10
sg38
S'100.0'
p373
sg40
g21
sg41
g10
ssg42
(dp374
g5
S'48'
p375
sg7
S'10'
p376
sg9
g21
sg11
g21
sg13
S'@ARI'
p377
sg15
g12
sg16
g12
sg17
g47
sg19
g10
sg20
g47
sg22
S'67.4'
p378
sg24
g75
sg25
S'19.0'
p379
sg27
S'11/10'
p380
sg29
S'100.0'
p381
sg31
S'Randy Bullock'
p382
sg33
S'L24-27'
p383
sg35
S'2013'
p384
sg37
g10
sg38
S'50.0'
p385
sg40
g47
sg41
g12
ssg56
(dp386
g5
S'43'
p387
sg7
S'13'
p388
sg9
g62
sg11
g12
sg13
S'NE'
p389
sg15
g12
sg16
g12
sg17
g10
sg19
g10
sg20
g18
sg22
S'64.8'
p390
sg24
g62
sg25
S'24.8'
p391
sg27
S'12/01'
p392
sg29
S'100.0'
p393
sg31
S'Randy Bullock'
p394
sg33
S'L31-34'
p395
sg35
S'2013'
p396
sg37
g10
sg38
S'100.0'
p397
sg40
g18
sg41
g10
ssg70
(dp398
g5
S'49'
p399
sg7
S'12'
p400
sg9
g12
sg11
g21
sg13
S'JAC'
p401
sg15
g12
sg16
g21
sg17
g21
sg19
g10
sg20
g10
sg22
S'69.0'
p402
sg24
g47
sg25
S'27.0'
p403
sg27
S'11/24'
p404
sg29
S'--'
p405
sg31
S'Randy Bullock'
p406
sg33
S'L6-13'
p407
sg35
S'2013'
p408
sg37
g10
sg38
S'100.0'
p409
sg40
g10
sg41
g10
ssg85
(dp410
g5
S'49'
p411
sg7
S'15'
p412
sg9
g12
sg11
g12
sg13
S'@IND'
p413
sg15
g12
sg16
g12
sg17
g12
sg19
g10
sg20
g10
sg22
S'62.0'
p414
sg24
g21
sg25
S'28.0'
p415
sg27
S'12/15'
p416
sg29
S'--'
p417
sg31
S'Randy Bullock'
p418
sg33
S'L3-25'
p419
sg35
S'2013'
p420
sg37
g10
sg38
S'100.0'
p421
sg40
g10
sg41
g10
ssg98
(dp422
g5
S'34'
p423
sg7
S'14'
p424
sg9
g21
sg11
g21
sg13
S'@JAC'
p425
sg15
g12
sg16
g21
sg17
g47
sg19
g10
sg20
g21
sg22
S'63.8'
p426
sg24
g75
sg25
S'24.0'
p427
sg27
S'12/05'
p428
sg29
S'100.0'
p429
sg31
S'Randy Bullock'
p430
sg33
S'L20-27'
p431
sg35
S'2013'
p432
sg37
g10
sg38
S'100.0'
p433
sg40
g21
sg41
g10
ssg111
(dp434
g5
S'19'
p435
sg7
S'17'
p436
sg9
g21
sg11
g12
sg13
S'@TEN'
p437
sg15
g12
sg16
g12
sg17
g12
sg19
g10
sg20
g12
sg22
S'67.7'
p438
sg24
g47
sg25
S'27.0'
p439
sg27
S'12/29'
p440
sg29
S'100.0'
p441
sg31
S'Randy Bullock'
p442
sg33
S'L10-16'
p443
sg35
S'2013'
p444
sg37
g10
sg38
S'100.0'
p445
sg40
g12
sg41
g10
ssg124
(dp446
g5
S'45'
p447
sg7
S'16'
p448
sg9
g18
sg11
g21
sg13
S'DEN'
p449
sg15
g12
sg16
g21
sg17
g10
sg19
g10
sg20
g12
sg22
S'64.8'
p450
sg24
g18
sg25
S'24.8'
p451
sg27
S'12/22'
p452
sg29
S'100.0'
p453
sg31
S'Randy Bullock'
p454
sg33
S'L13-37'
p455
sg35
S'2013'
p456
sg37
g10
sg38
S'100.0'
p457
sg40
g12
sg41
g10
ssg12
(dp458
g5
S'41'
p459
sg7
g12
sg9
g12
sg11
g21
sg13
S'@SD'
p460
sg15
g12
sg16
g12
sg17
g18
sg19
g10
sg20
g18
sg22
S'67.6'
p461
sg24
g75
sg25
S'42.0'
p462
sg27
S'09/09'
p463
sg29
S'100.0'
p464
sg31
S'Randy Bullock'
p465
sg33
S'W31-28'
p466
sg35
S'2013'
p467
sg37
g10
sg38
S'50.0'
p468
sg40
g18
sg41
g10
ssg47
(dp469
g5
S'47'
p470
sg7
g47
sg9
g21
sg11
g47
sg13
S'@BAL'
p471
sg15
g12
sg16
g47
sg17
g12
sg19
g10
sg20
g10
sg22
S'72.3'
p472
sg24
g47
sg25
S'26.5'
p473
sg27
S'09/22'
p474
sg29
S'--'
p475
sg31
S'Randy Bullock'
p476
sg33
S'L9-30'
p477
sg35
S'2013'
p478
sg37
g10
sg38
S'100.0'
p479
sg40
g10
sg41
g10
ssg21
(dp480
g5
g10
sg7
g21
sg9
g10
sg11
g47
sg13
S'TEN'
p481
sg15
g12
sg16
g10
sg17
g18
sg19
g10
sg20
g21
sg22
S'69.5'
p482
sg24
g18
sg25
S'--'
p483
sg27
S'09/15'
p484
sg29
S'100.0'
p485
sg31
S'Randy Bullock'
p486
sg33
S'W30-24'
p487
sg35
S'2013'
p488
sg37
g10
sg38
S'0.0'
p489
sg40
g21
sg41
g10
ssg75
(dp490
g5
S'41'
p491
sg7
g75
sg9
g12
sg11
g21
sg13
S'@SF'
p492
sg15
g12
sg16
g12
sg17
g12
sg19
g10
sg20
g10
sg22
S'67.0'
p493
sg24
g21
sg25
S'29.0'
p494
sg27
S'10/06'
p495
sg29
S'--'
p496
sg31
S'Randy Bullock'
p497
sg33
S'L3-34'
p498
sg35
S'2013'
p499
sg37
g10
sg38
S'50.0'
p500
sg40
g10
sg41
g10
ssg18
(dp501
g5
S'42'
p502
sg7
g18
sg9
g47
sg11
g21
sg13
S'SEA'
p503
sg15
g12
sg16
g21
sg17
g21
sg19
g10
sg20
g21
sg22
S'63.4'
p504
sg24
g75
sg25
S'18.3'
p505
sg27
S'09/29'
p506
sg29
S'100.0'
p507
sg31
S'Randy Bullock'
p508
sg33
S'L20-23'
p509
sg35
S'2013'
p510
sg37
g10
sg38
S'100.0'
p511
sg40
g21
sg41
g10
ssg77
(dp512
g5
S'48'
p513
sg7
g77
sg9
g18
sg11
g47
sg13
S'@KC'
p514
sg15
g12
sg16
g47
sg17
g12
sg19
g10
sg20
g12
sg22
S'68.2'
p515
sg24
g75
sg25
S'30.8'
p516
sg27
S'10/20'
p517
sg29
S'100.0'
p518
sg31
S'Randy Bullock'
p519
sg33
S'L16-17'
p520
sg35
S'2013'
p521
sg37
g10
sg38
S'100.0'
p522
sg40
g12
sg41
g10
ssg62
(dp523
g5
S'35'
p524
sg7
g62
sg9
g47
sg11
g21
sg13
S'STL'
p525
sg15
g12
sg16
g21
sg17
g12
sg19
g10
sg20
g12
sg22
S'65.8'
p526
sg24
g18
sg25
S'21.3'
p527
sg27
S'10/13'
p528
sg29
S'100.0'
p529
sg31
S'Randy Bullock'
p530
sg33
S'L13-38'
p531
sg35
S'2013'
p532
sg37
g10
sg38
S'100.0'
p533
sg40
g12
sg41
g10
ssg338
(dp534
g5
S'43'
p535
sg7
g338
sg9
g47
sg11
g18
sg13
S'IND'
p536
sg15
g12
sg16
g12
sg17
g21
sg19
g10
sg20
g47
sg22
S'69.6'
p537
sg24
g75
sg25
S'32.0'
p538
sg27
S'11/03'
p539
sg29
S'100.0'
p540
sg31
S'Randy Bullock'
p541
sg33
S'L24-27'
p542
sg35
S'2013'
p543
sg37
g10
sg38
S'25.0'
p544
sg40
g47
sg41
g10
ssg195
(dp545
g5
g185
sg7
g195
sg9
g185
sg11
g185
sg13
g185
sg15
g185
sg16
g185
sg17
g185
sg19
g185
sg20
g185
sg22
g185
sg24
g185
sg25
g185
sg27
S'Bye'
p546
sg29
g185
sg31
S'Randy Bullock'
p547
sg33
g185
sg35
S'2013'
p548
sg37
g185
sg38
g185
sg40
g185
sg41
g185
sss.