(dp0
S'2015'
p1
(dp2
S'11'
p3
(dp4
S'FGLng'
p5
S'46'
p6
sS'WK'
p7
S'11'
p8
sS'Ret'
p9
S'3'
p10
sS'FGAtt'
p11
g10
sS'Opp'
p12
S'DEN'
p13
sS'G'
p14
S'1'
p15
sS'FGM'
p16
g10
sS'TB'
p17
g15
sS'GS'
p18
S'0'
p19
sS'XPM'
p20
g19
sS'KOAvg'
p21
S'53.0'
p22
sS'KO'
p23
S'5'
p24
sS'RetAvg'
p25
S'15.0'
p26
sS'Game Date'
p27
S'11/22'
p28
sS'XPPct'
p29
S'--'
p30
sS'Player'
p31
S'Robbie Gould'
p32
sS'Result'
p33
S'L15-17'
p34
sS'Year'
p35
S'2015'
p36
sS'XPBlk'
p37
g19
sS'FGPct'
p38
S'100.0'
p39
sS'XPAtt'
p40
g19
sS'FGBlk'
p41
g19
ssS'10'
p42
(dp43
g5
S'37'
p44
sg7
S'10'
p45
sg9
g15
sg11
g10
sg12
S'@STL'
p46
sg14
g15
sg16
g10
sg17
S'7'
p47
sg18
g19
sg20
S'4'
p48
sg21
S'65.3'
p49
sg23
S'8'
p50
sg25
S'27.0'
p51
sg27
S'11/15'
p52
sg29
S'100.0'
p53
sg31
S'Robbie Gould'
p54
sg33
S'W37-13'
p55
sg35
S'2015'
p56
sg37
g19
sg38
S'100.0'
p57
sg40
g48
sg41
g19
ssS'13'
p58
(dp59
g5
S'51'
p60
sg7
S'13'
p61
sg9
g24
sg11
g48
sg12
S'SF'
p62
sg14
g15
sg16
S'2'
p63
sg17
g15
sg18
g19
sg20
g63
sg21
S'63.5'
p64
sg23
S'6'
p65
sg25
S'23.2'
p66
sg27
S'12/06'
p67
sg29
S'100.0'
p68
sg31
S'Robbie Gould'
p69
sg33
S'L20-26'
p70
sg35
S'2015'
p71
sg37
g19
sg38
S'50.0'
p72
sg40
g63
sg41
g19
ssS'12'
p73
(dp74
g5
S'21'
p75
sg7
S'12'
p76
sg9
g10
sg11
g15
sg12
S'@GB'
p77
sg14
g15
sg16
g15
sg17
g15
sg18
g19
sg20
g63
sg21
S'57.8'
p78
sg23
g48
sg25
S'27.3'
p79
sg27
S'11/26'
p80
sg29
S'100.0'
p81
sg31
S'Robbie Gould'
p82
sg33
S'W17-13'
p83
sg35
S'2015'
p84
sg37
g19
sg38
S'100.0'
p85
sg40
g63
sg41
g19
ssS'15'
p86
(dp87
g5
S'51'
p88
sg7
S'15'
p89
sg9
g15
sg11
g15
sg12
S'@MIN'
p90
sg14
g15
sg16
g15
sg17
g15
sg18
g19
sg20
g63
sg21
S'38.5'
p91
sg23
g48
sg25
S'22.0'
p92
sg27
S'12/20'
p93
sg29
S'100.0'
p94
sg31
S'Robbie Gould'
p95
sg33
S'L17-38'
p96
sg35
S'2015'
p97
sg37
g19
sg38
S'100.0'
p98
sg40
g63
sg41
g19
ssS'14'
p99
(dp100
g5
g19
sg7
S'14'
p101
sg9
g63
sg11
g15
sg12
S'WAS'
p102
sg14
g15
sg16
g19
sg17
g63
sg18
g19
sg20
g10
sg21
S'67.5'
p103
sg23
g48
sg25
S'22.0'
p104
sg27
S'12/13'
p105
sg29
S'100.0'
p106
sg31
S'Robbie Gould'
p107
sg33
S'L21-24'
p108
sg35
S'2015'
p109
sg37
g19
sg38
S'0.0'
p110
sg40
g10
sg41
g19
ssS'17'
p111
(dp112
g5
S'49'
p113
sg7
S'17'
p114
sg9
g48
sg11
g63
sg12
S'DET'
p115
sg14
g15
sg16
g63
sg17
g15
sg18
g19
sg20
g63
sg21
S'63.4'
p116
sg23
g24
sg25
S'16.0'
p117
sg27
S'01/03'
p118
sg29
S'100.0'
p119
sg31
S'Robbie Gould'
p120
sg33
S'L20-24'
p121
sg35
S'2015'
p122
sg37
g19
sg38
S'100.0'
p123
sg40
g63
sg41
g19
ssS'16'
p124
(dp125
g5
S'50'
p126
sg7
S'16'
p127
sg9
g15
sg11
g48
sg12
S'@TB'
p128
sg14
g15
sg16
g48
sg17
g65
sg18
g19
sg20
g63
sg21
S'64.6'
p129
sg23
g47
sg25
S'19.0'
p130
sg27
S'12/27'
p131
sg29
S'100.0'
p132
sg31
S'Robbie Gould'
p133
sg33
S'W26-21'
p134
sg35
S'2015'
p135
sg37
g19
sg38
S'100.0'
p136
sg40
g63
sg41
g19
ssg15
(dp137
g5
S'50'
p138
sg7
g15
sg9
g48
sg11
g10
sg12
S'GB'
p139
sg14
g15
sg16
g10
sg17
g15
sg18
g19
sg20
g63
sg21
S'53.2'
p140
sg23
g65
sg25
S'26.5'
p141
sg27
S'09/13'
p142
sg29
S'100.0'
p143
sg31
S'Robbie Gould'
p144
sg33
S'L23-31'
p145
sg35
S'2015'
p146
sg37
g19
sg38
S'100.0'
p147
sg40
g63
sg41
g19
ssg10
(dp148
g5
S'--'
p149
sg7
g10
sg9
g15
sg11
S'--'
p150
sg12
S'@SEA'
p151
sg14
g15
sg16
S'--'
p152
sg17
g19
sg18
g19
sg20
S'--'
p153
sg21
S'70.0'
p154
sg23
g15
sg25
S'105.0'
p155
sg27
S'09/27'
p156
sg29
S'--'
p157
sg31
S'Robbie Gould'
p158
sg33
S'L0-26'
p159
sg35
S'2015'
p160
sg37
S'--'
p161
sg38
S'--'
p162
sg40
S'--'
p163
sg41
S'--'
p164
ssg63
(dp165
g5
S'51'
p166
sg7
g63
sg9
g63
sg11
g10
sg12
S'ARI'
p167
sg14
g15
sg16
g10
sg17
g10
sg18
g19
sg20
g63
sg21
S'61.4'
p168
sg23
g24
sg25
S'58.5'
p169
sg27
S'09/20'
p170
sg29
S'100.0'
p171
sg31
S'Robbie Gould'
p172
sg33
S'L23-48'
p173
sg35
S'2015'
p174
sg37
g19
sg38
S'100.0'
p175
sg40
g63
sg41
g19
ssg24
(dp176
g5
S'44'
p177
sg7
g24
sg9
g63
sg11
g63
sg12
S'@KC'
p178
sg14
g15
sg16
g63
sg17
g10
sg18
g19
sg20
g19
sg21
S'61.4'
p179
sg23
g24
sg25
S'15.0'
p180
sg27
S'10/11'
p181
sg29
S'--'
p182
sg31
S'Robbie Gould'
p183
sg33
S'W18-17'
p184
sg35
S'2015'
p185
sg37
g19
sg38
S'100.0'
p186
sg40
g19
sg41
g19
ssg48
(dp187
g5
S'54'
p188
sg7
g48
sg9
g10
sg11
g10
sg12
S'OAK'
p189
sg14
g15
sg16
g10
sg17
g63
sg18
g19
sg20
g15
sg21
S'54.7'
p190
sg23
g65
sg25
S'19.3'
p191
sg27
S'10/04'
p192
sg29
S'50.0'
p193
sg31
S'Robbie Gould'
p194
sg33
S'W22-20'
p195
sg35
S'2015'
p196
sg37
g15
sg38
S'100.0'
p197
sg40
g63
sg41
g19
ssg47
(dp198
g5
S''
p199
sg7
g47
sg9
g199
sg11
g199
sg12
g199
sg14
g199
sg16
g199
sg17
g199
sg18
g199
sg20
g199
sg21
g199
sg23
g199
sg25
g199
sg27
S'Bye'
p200
sg29
g199
sg31
S'Robbie Gould'
p201
sg33
g199
sg35
S'2015'
p202
sg37
g199
sg38
g199
sg40
g199
sg41
g199
ssg65
(dp203
g5
S'38'
p204
sg7
g65
sg9
g10
sg11
g48
sg12
S'@DET'
p205
sg14
g15
sg16
g48
sg17
g24
sg18
g19
sg20
g63
sg21
S'66.9'
p206
sg23
g50
sg25
S'23.0'
p207
sg27
S'10/18'
p208
sg29
S'100.0'
p209
sg31
S'Robbie Gould'
p210
sg33
S'L34-37'
p211
sg35
S'2015'
p212
sg37
g19
sg38
S'100.0'
p213
sg40
g63
sg41
g19
ssS'9'
p214
(dp215
g5
g19
sg7
g214
sg9
g15
sg11
g63
sg12
S'@SD'
p216
sg14
g15
sg16
g19
sg17
g10
sg18
g19
sg20
g63
sg21
S'65.5'
p217
sg23
g48
sg25
S'24.0'
p218
sg27
S'11/09'
p219
sg29
S'100.0'
p220
sg31
S'Robbie Gould'
p221
sg33
S'W22-19'
p222
sg35
S'2015'
p223
sg37
g19
sg38
S'0.0'
p224
sg40
g63
sg41
g19
ssg50
(dp225
g5
S'55'
p226
sg7
g50
sg9
g10
sg11
g10
sg12
S'MIN'
p227
sg14
g15
sg16
g63
sg17
g63
sg18
g19
sg20
g63
sg21
S'63.2'
p228
sg23
g24
sg25
S'18.3'
p229
sg27
S'11/01'
p230
sg29
S'100.0'
p231
sg31
S'Robbie Gould'
p232
sg33
S'L20-23'
p233
sg35
S'2015'
p234
sg37
g19
sg38
S'66.7'
p235
sg40
g63
sg41
g19
sssS'2014'
p236
(dp237
g3
(dp238
g5
g19
sg7
S'11'
p239
sg9
g10
sg11
g15
sg12
S'MIN'
p240
sg14
g15
sg16
g19
sg17
g19
sg18
g19
sg20
g10
sg21
S'51.0'
p241
sg23
g48
sg25
S'11.3'
p242
sg27
S'11/16'
p243
sg29
S'100.0'
p244
sg31
S'Robbie Gould'
p245
sg33
S'W21-13'
p246
sg35
S'2014'
p247
sg37
g19
sg38
S'0.0'
p248
sg40
g10
sg41
g19
ssg42
(dp249
g5
g19
sg7
S'10'
p250
sg9
g15
sg11
g19
sg12
S'@GB'
p251
sg14
g15
sg16
g19
sg17
g15
sg18
g19
sg20
g63
sg21
S'58.3'
p252
sg23
g10
sg25
S'20.0'
p253
sg27
S'11/09'
p254
sg29
S'100.0'
p255
sg31
S'Robbie Gould'
p256
sg33
S'L14-55'
p257
sg35
S'2014'
p258
sg37
g19
sg38
S'--'
p259
sg40
g63
sg41
g19
ssg58
(dp260
g5
S'35'
p261
sg7
S'13'
p262
sg9
g10
sg11
g15
sg12
S'@DET'
p263
sg14
g15
sg16
g15
sg17
g15
sg18
g19
sg20
g63
sg21
S'68.3'
p264
sg23
g48
sg25
S'21.7'
p265
sg27
S'11/27'
p266
sg29
S'100.0'
p267
sg31
S'Robbie Gould'
p268
sg33
S'L17-34'
p269
sg35
S'2014'
p270
sg37
g19
sg38
S'100.0'
p271
sg40
g63
sg41
g19
ssg73
(dp272
g5
g19
sg7
S'12'
p273
sg9
g10
sg11
g15
sg12
S'TB'
p274
sg14
g15
sg16
g19
sg17
g15
sg18
g19
sg20
g10
sg21
S'62.8'
p275
sg23
g48
sg25
S'14.0'
p276
sg27
S'11/23'
p277
sg29
S'100.0'
p278
sg31
S'Robbie Gould'
p279
sg33
S'W21-13'
p280
sg35
S'2014'
p281
sg37
g19
sg38
S'0.0'
p282
sg40
g10
sg41
g19
ssg86
(dp283
g5
S'--'
p284
sg7
S'15'
p285
sg9
S'--'
p286
sg11
S'--'
p287
sg12
S'NO'
p288
sg14
g19
sg16
S'--'
p289
sg17
S'--'
p290
sg18
g19
sg20
S'--'
p291
sg21
S'--'
p292
sg23
S'--'
p293
sg25
S'--'
p294
sg27
S'12/15'
p295
sg29
S'--'
p296
sg31
S'Robbie Gould'
p297
sg33
S'L15-31'
p298
sg35
S'2014'
p299
sg37
S'--'
p300
sg38
S'--'
p301
sg40
S'--'
p302
sg41
S'--'
p303
ssg99
(dp304
g5
S'--'
p305
sg7
S'14'
p306
sg9
S'--'
p307
sg11
S'--'
p308
sg12
S'DAL'
p309
sg14
g19
sg16
S'--'
p310
sg17
S'--'
p311
sg18
g19
sg20
S'--'
p312
sg21
S'--'
p313
sg23
S'--'
p314
sg25
S'--'
p315
sg27
S'12/04'
p316
sg29
S'--'
p317
sg31
S'Robbie Gould'
p318
sg33
S'L28-41'
p319
sg35
S'2014'
p320
sg37
S'--'
p321
sg38
S'--'
p322
sg40
S'--'
p323
sg41
S'--'
p324
ssg111
(dp325
g5
S'--'
p326
sg7
S'17'
p327
sg9
S'--'
p328
sg11
S'--'
p329
sg12
S'@MIN'
p330
sg14
g19
sg16
S'--'
p331
sg17
S'--'
p332
sg18
g19
sg20
S'--'
p333
sg21
S'--'
p334
sg23
S'--'
p335
sg25
S'--'
p336
sg27
S'12/28'
p337
sg29
S'--'
p338
sg31
S'Robbie Gould'
p339
sg33
S'L9-13'
p340
sg35
S'2014'
p341
sg37
S'--'
p342
sg38
S'--'
p343
sg40
S'--'
p344
sg41
S'--'
p345
ssg124
(dp346
g5
S'--'
p347
sg7
S'16'
p348
sg9
S'--'
p349
sg11
S'--'
p350
sg12
S'DET'
p351
sg14
g19
sg16
S'--'
p352
sg17
S'--'
p353
sg18
g19
sg20
S'--'
p354
sg21
S'--'
p355
sg23
S'--'
p356
sg25
S'--'
p357
sg27
S'12/21'
p358
sg29
S'--'
p359
sg31
S'Robbie Gould'
p360
sg33
S'L14-20'
p361
sg35
S'2014'
p362
sg37
S'--'
p363
sg38
S'--'
p364
sg40
S'--'
p365
sg41
S'--'
p366
ssg15
(dp367
g5
S'41'
p368
sg7
g15
sg9
g63
sg11
g63
sg12
S'BUF'
p369
sg14
g15
sg16
g63
sg17
g10
sg18
g19
sg20
g63
sg21
S'63.6'
p370
sg23
g24
sg25
S'20.0'
p371
sg27
S'09/07'
p372
sg29
S'100.0'
p373
sg31
S'Robbie Gould'
p374
sg33
S'L20-23'
p375
sg35
S'2014'
p376
sg37
g19
sg38
S'100.0'
p377
sg40
g63
sg41
g19
ssg10
(dp378
g5
S'45'
p379
sg7
g10
sg9
g48
sg11
g63
sg12
S'@NYJ'
p380
sg14
g15
sg16
g63
sg17
g63
sg18
g19
sg20
g10
sg21
S'63.7'
p381
sg23
g65
sg25
S'20.5'
p382
sg27
S'09/22'
p383
sg29
S'100.0'
p384
sg31
S'Robbie Gould'
p385
sg33
S'W27-19'
p386
sg35
S'2014'
p387
sg37
g19
sg38
S'100.0'
p388
sg40
g10
sg41
g19
ssg63
(dp389
g5
g19
sg7
g63
sg9
g10
sg11
g19
sg12
S'@SF'
p390
sg14
g15
sg16
g19
sg17
g63
sg18
g19
sg20
g48
sg21
S'61.2'
p391
sg23
g24
sg25
S'19.0'
p392
sg27
S'09/14'
p393
sg29
S'100.0'
p394
sg31
S'Robbie Gould'
p395
sg33
S'W28-20'
p396
sg35
S'2014'
p397
sg37
g19
sg38
S'--'
p398
sg40
g48
sg41
g19
ssg24
(dp399
g5
S'45'
p400
sg7
g24
sg9
g15
sg11
g63
sg12
S'@CAR'
p401
sg14
g15
sg16
g15
sg17
g48
sg18
g19
sg20
g10
sg21
S'64.8'
p402
sg23
g24
sg25
S'18.0'
p403
sg27
S'10/05'
p404
sg29
S'100.0'
p405
sg31
S'Robbie Gould'
p406
sg33
S'L24-31'
p407
sg35
S'2014'
p408
sg37
g19
sg38
S'50.0'
p409
sg40
g10
sg41
g19
ssg48
(dp410
g5
S'23'
p411
sg7
g48
sg9
g10
sg11
g15
sg12
S'GB'
p412
sg14
g15
sg16
g15
sg17
g19
sg18
g19
sg20
g63
sg21
S'58.0'
p413
sg23
g48
sg25
S'22.3'
p414
sg27
S'09/28'
p415
sg29
S'100.0'
p416
sg31
S'Robbie Gould'
p417
sg33
S'L17-38'
p418
sg35
S'2014'
p419
sg37
g19
sg38
S'100.0'
p420
sg40
g63
sg41
g19
ssg47
(dp421
g5
g19
sg7
g47
sg9
g63
sg11
g19
sg12
S'MIA'
p422
sg14
g15
sg16
g19
sg17
g15
sg18
g19
sg20
g63
sg21
S'66.3'
p423
sg23
g10
sg25
S'27.5'
p424
sg27
S'10/19'
p425
sg29
S'100.0'
p426
sg31
S'Robbie Gould'
p427
sg33
S'L14-27'
p428
sg35
S'2014'
p429
sg37
g19
sg38
S'--'
p430
sg40
g63
sg41
g19
ssg65
(dp431
g5
S'28'
p432
sg7
g65
sg9
g10
sg11
g63
sg12
S'@ATL'
p433
sg14
g15
sg16
g63
sg17
g10
sg18
g19
sg20
g15
sg21
S'60.2'
p434
sg23
g65
sg25
S'14.7'
p435
sg27
S'10/12'
p436
sg29
S'50.0'
p437
sg31
S'Robbie Gould'
p438
sg33
S'W27-13'
p439
sg35
S'2014'
p440
sg37
g15
sg38
S'100.0'
p441
sg40
g63
sg41
g19
ssg214
(dp442
g5
g199
sg7
g214
sg9
g199
sg11
g199
sg12
g199
sg14
g199
sg16
g199
sg17
g199
sg18
g199
sg20
g199
sg21
g199
sg23
g199
sg25
g199
sg27
S'Bye'
p443
sg29
g199
sg31
S'Robbie Gould'
p444
sg33
g199
sg35
S'2014'
p445
sg37
g199
sg38
g199
sg40
g199
sg41
g199
ssg50
(dp446
g5
g19
sg7
g50
sg9
g19
sg11
g19
sg12
S'@NE'
p447
sg14
g15
sg16
g19
sg17
g10
sg18
g19
sg20
g15
sg21
S'50.5'
p448
sg23
g48
sg25
S'--'
p449
sg27
S'10/26'
p450
sg29
S'100.0'
p451
sg31
S'Robbie Gould'
p452
sg33
S'L23-51'
p453
sg35
S'2014'
p454
sg37
g19
sg38
S'--'
p455
sg40
g15
sg41
g19
sssS'2011'
p456
(dp457
g3
(dp458
g5
S'42'
p459
sg7
S'11'
p460
sg9
g24
sg11
g15
sg12
S'SD'
p461
sg14
g15
sg16
g15
sg17
g15
sg18
g19
sg20
g48
sg21
S'70.0'
p462
sg23
g65
sg25
S'33.4'
p463
sg27
S'11/20'
p464
sg29
S'100.0'
p465
sg31
S'Robbie Gould'
p466
sg33
S'W31-20'
p467
sg35
S'2011'
p468
sg37
g19
sg38
S'100.0'
p469
sg40
g48
sg41
g19
ssg42
(dp470
g5
S'50'
p471
sg7
S'10'
p472
sg9
g63
sg11
g48
sg12
S'DET'
p473
sg14
g15
sg16
g10
sg17
g65
sg18
g19
sg20
g48
sg21
S'63.1'
p474
sg23
g50
sg25
S'22.0'
p475
sg27
S'11/13'
p476
sg29
S'100.0'
p477
sg31
S'Robbie Gould'
p478
sg33
S'W37-13'
p479
sg35
S'2011'
p480
sg37
g19
sg38
S'75.0'
p481
sg40
g48
sg41
g19
ssg58
(dp482
g5
S'32'
p483
sg7
S'13'
p484
sg9
g63
sg11
g63
sg12
S'KC'
p485
sg14
g15
sg16
g15
sg17
g19
sg18
g19
sg20
g19
sg21
S'63.5'
p486
sg23
g63
sg25
S'20.0'
p487
sg27
S'12/04'
p488
sg29
S'--'
p489
sg31
S'Robbie Gould'
p490
sg33
S'L3-10'
p491
sg35
S'2011'
p492
sg37
g19
sg38
S'50.0'
p493
sg40
g19
sg41
g19
ssg73
(dp494
g5
S'53'
p495
sg7
S'12'
p496
sg9
g15
sg11
g63
sg12
S'@OAK'
p497
sg14
g15
sg16
g63
sg17
g10
sg18
g19
sg20
g63
sg21
S'57.6'
p498
sg23
g24
sg25
S'27.0'
p499
sg27
S'11/27'
p500
sg29
S'100.0'
p501
sg31
S'Robbie Gould'
p502
sg33
S'L20-25'
p503
sg35
S'2011'
p504
sg37
g19
sg38
S'100.0'
p505
sg40
g63
sg41
g19
ssg86
(dp506
g5
g19
sg7
S'15'
p507
sg9
g15
sg11
g19
sg12
S'SEA'
p508
sg14
g15
sg16
g19
sg17
g63
sg18
g19
sg20
g63
sg21
S'61.7'
p509
sg23
g10
sg25
S'16.0'
p510
sg27
S'12/18'
p511
sg29
S'100.0'
p512
sg31
S'Robbie Gould'
p513
sg33
S'L14-38'
p514
sg35
S'2011'
p515
sg37
g19
sg38
S'--'
p516
sg40
g63
sg41
g19
ssg99
(dp517
g5
S'57'
p518
sg7
S'14'
p519
sg9
g19
sg11
g15
sg12
S'@DEN'
p520
sg14
g15
sg16
g15
sg17
g10
sg18
g19
sg20
g15
sg21
S'65.0'
p521
sg23
g10
sg25
S'--'
p522
sg27
S'12/11'
p523
sg29
S'100.0'
p524
sg31
S'Robbie Gould'
p525
sg33
S'L10-13'
p526
sg35
S'2011'
p527
sg37
g19
sg38
S'100.0'
p528
sg40
g15
sg41
g19
ssg111
(dp529
g5
S'27'
p530
sg7
S'17'
p531
sg9
g63
sg11
g15
sg12
S'@MIN'
p532
sg14
g15
sg16
g15
sg17
g63
sg18
g19
sg20
g63
sg21
S'69.0'
p533
sg23
g48
sg25
S'29.0'
p534
sg27
S'01/01'
p535
sg29
S'100.0'
p536
sg31
S'Robbie Gould'
p537
sg33
S'W17-13'
p538
sg35
S'2011'
p539
sg37
g19
sg38
S'100.0'
p540
sg40
g63
sg41
g19
ssg124
(dp541
g5
S'35'
p542
sg7
S'16'
p543
sg9
g15
sg11
g10
sg12
S'@GB'
p544
sg14
g15
sg16
g63
sg17
g63
sg18
g19
sg20
g15
sg21
S'50.4'
p545
sg23
g24
sg25
S'34.0'
p546
sg27
S'12/25'
p547
sg29
S'100.0'
p548
sg31
S'Robbie Gould'
p549
sg33
S'L21-35'
p550
sg35
S'2011'
p551
sg37
g19
sg38
S'66.7'
p552
sg40
g15
sg41
g19
ssg15
(dp553
g5
S'41'
p554
sg7
g15
sg9
g63
sg11
g10
sg12
S'ATL'
p555
sg14
g15
sg16
g10
sg17
g24
sg18
g19
sg20
g10
sg21
S'65.9'
p556
sg23
g47
sg25
S'16.5'
p557
sg27
S'09/11'
p558
sg29
S'100.0'
p559
sg31
S'Robbie Gould'
p560
sg33
S'W30-12'
p561
sg35
S'2011'
p562
sg37
g19
sg38
S'100.0'
p563
sg40
g10
sg41
g19
ssg10
(dp564
g5
S'25'
p565
sg7
g10
sg9
g19
sg11
g15
sg12
S'GB'
p566
sg14
g15
sg16
g15
sg17
g48
sg18
g19
sg20
g63
sg21
S'65.0'
p567
sg23
g48
sg25
S'--'
p568
sg27
S'09/25'
p569
sg29
S'100.0'
p570
sg31
S'Robbie Gould'
p571
sg33
S'L17-27'
p572
sg35
S'2011'
p573
sg37
g19
sg38
S'100.0'
p574
sg40
g63
sg41
g19
ssg63
(dp575
g5
S'42'
p576
sg7
g63
sg9
g15
sg11
g63
sg12
S'@NO'
p577
sg14
g15
sg16
g63
sg17
g63
sg18
g19
sg20
g15
sg21
S'68.7'
p578
sg23
g10
sg25
S'24.0'
p579
sg27
S'09/18'
p580
sg29
S'100.0'
p581
sg31
S'Robbie Gould'
p582
sg33
S'L13-30'
p583
sg35
S'2011'
p584
sg37
g19
sg38
S'100.0'
p585
sg40
g15
sg41
g19
ssg24
(dp586
g5
S'49'
p587
sg7
g24
sg9
g19
sg11
g63
sg12
S'@DET'
p588
sg14
g15
sg16
g63
sg17
g48
sg18
g19
sg20
g15
sg21
S'65.0'
p589
sg23
g48
sg25
S'--'
p590
sg27
S'10/10'
p591
sg29
S'100.0'
p592
sg31
S'Robbie Gould'
p593
sg33
S'L13-24'
p594
sg35
S'2011'
p595
sg37
g19
sg38
S'100.0'
p596
sg40
g15
sg41
g19
ssg48
(dp597
g5
S'24'
p598
sg7
g48
sg9
g65
sg11
g63
sg12
S'CAR'
p599
sg14
g15
sg16
g63
sg17
g15
sg18
g19
sg20
g48
sg21
S'68.3'
p600
sg23
g47
sg25
S'24.2'
p601
sg27
S'10/02'
p602
sg29
S'100.0'
p603
sg31
S'Robbie Gould'
p604
sg33
S'W34-29'
p605
sg35
S'2011'
p606
sg37
g19
sg38
S'100.0'
p607
sg40
g48
sg41
g19
ssg47
(dp608
g5
S'25'
p609
sg7
g47
sg9
g15
sg11
g63
sg12
S'@TB'
p610
sg14
g15
sg16
g15
sg17
g48
sg18
g19
sg20
g10
sg21
S'63.0'
p611
sg23
g24
sg25
S'18.0'
p612
sg27
S'10/23'
p613
sg29
S'100.0'
p614
sg31
S'Robbie Gould'
p615
sg33
S'W24-18'
p616
sg35
S'2011'
p617
sg37
g19
sg38
S'50.0'
p618
sg40
g10
sg41
g19
ssg65
(dp619
g5
S'51'
p620
sg7
g65
sg9
g65
sg11
g10
sg12
S'MIN'
p621
sg14
g15
sg16
g10
sg17
g63
sg18
g19
sg20
g48
sg21
S'65.8'
p622
sg23
g50
sg25
S'24.3'
p623
sg27
S'10/16'
p624
sg29
S'100.0'
p625
sg31
S'Robbie Gould'
p626
sg33
S'W39-10'
p627
sg35
S'2011'
p628
sg37
g19
sg38
S'100.0'
p629
sg40
g48
sg41
g19
ssg214
(dp630
g5
S'51'
p631
sg7
g214
sg9
g48
sg11
g10
sg12
S'@PHI'
p632
sg14
g15
sg16
g10
sg17
g63
sg18
g19
sg20
g10
sg21
S'64.3'
p633
sg23
g47
sg25
S'23.3'
p634
sg27
S'11/07'
p635
sg29
S'100.0'
p636
sg31
S'Robbie Gould'
p637
sg33
S'W30-24'
p638
sg35
S'2011'
p639
sg37
g19
sg38
S'100.0'
p640
sg40
g10
sg41
g19
ssg50
(dp641
g5
g199
sg7
g50
sg9
g199
sg11
g199
sg12
g199
sg14
g199
sg16
g199
sg17
g199
sg18
g199
sg20
g199
sg21
g199
sg23
g199
sg25
g199
sg27
S'Bye'
p642
sg29
g199
sg31
S'Robbie Gould'
p643
sg33
g199
sg35
S'2011'
p644
sg37
g199
sg38
g199
sg40
g199
sg41
g199
sssS'2010'
p645
(dp646
g3
(dp647
g5
S'50'
p648
sg7
S'11'
p649
sg9
g10
sg11
g10
sg12
S'@MIA'
p650
sg14
g15
sg16
g10
sg17
g63
sg18
g19
sg20
g15
sg21
S'71.6'
p651
sg23
g24
sg25
S'32.7'
p652
sg27
S'11/18'
p653
sg29
S'100.0'
p654
sg31
S'Robbie Gould'
p655
sg33
S'W16-0'
p656
sg35
S'2010'
p657
sg37
g19
sg38
S'100.0'
p658
sg40
g15
sg41
g19
ssg42
(dp659
g5
S'37'
p660
sg7
S'10'
p661
sg9
g65
sg11
g10
sg12
S'MIN'
p662
sg14
g15
sg16
g63
sg17
g19
sg18
g19
sg20
g10
sg21
S'65.7'
p663
sg23
g65
sg25
S'25.2'
p664
sg27
S'11/14'
p665
sg29
S'100.0'
p666
sg31
S'Robbie Gould'
p667
sg33
S'W27-13'
p668
sg35
S'2010'
p669
sg37
g19
sg38
S'66.7'
p670
sg40
g10
sg41
g19
ssg58
(dp671
g5
S'54'
p672
sg7
S'13'
p673
sg9
g10
sg11
g15
sg12
S'@DET'
p674
sg14
g15
sg16
g15
sg17
g63
sg18
g19
sg20
g10
sg21
S'72.4'
p675
sg23
g24
sg25
S'38.7'
p676
sg27
S'12/05'
p677
sg29
S'100.0'
p678
sg31
S'Robbie Gould'
p679
sg33
S'W24-20'
p680
sg35
S'2010'
p681
sg37
g19
sg38
S'100.0'
p682
sg40
g10
sg41
g19
ssg73
(dp683
g5
S'23'
p684
sg7
S'12'
p685
sg9
g65
sg11
g15
sg12
S'PHI'
p686
sg14
g15
sg16
g15
sg17
g19
sg18
g19
sg20
g48
sg21
S'65.2'
p687
sg23
g65
sg25
S'24.2'
p688
sg27
S'11/28'
p689
sg29
S'100.0'
p690
sg31
S'Robbie Gould'
p691
sg33
S'W31-26'
p692
sg35
S'2010'
p693
sg37
g19
sg38
S'100.0'
p694
sg40
g48
sg41
g19
ssg86
(dp695
g5
S'34'
p696
sg7
S'15'
p697
sg9
g50
sg11
g48
sg12
S'@MIN'
p698
sg14
g15
sg16
g48
sg17
g15
sg18
g19
sg20
g48
sg21
S'57.4'
p699
sg23
g214
sg25
S'19.6'
p700
sg27
S'12/20'
p701
sg29
S'100.0'
p702
sg31
S'Robbie Gould'
p703
sg33
S'W40-14'
p704
sg35
S'2010'
p705
sg37
g19
sg38
S'100.0'
p706
sg40
g48
sg41
g19
ssg99
(dp707
g5
g19
sg7
S'14'
p708
sg9
g15
sg11
g19
sg12
S'NE'
p709
sg14
g15
sg16
g19
sg17
g15
sg18
g19
sg20
g15
sg21
S'63.0'
p710
sg23
g63
sg25
S'18.0'
p711
sg27
S'12/12'
p712
sg29
S'100.0'
p713
sg31
S'Robbie Gould'
p714
sg33
S'L7-36'
p715
sg35
S'2010'
p716
sg37
g19
sg38
S'--'
p717
sg40
g15
sg41
g19
ssg111
(dp718
g5
S'30'
p719
sg7
S'17'
p720
sg9
g63
sg11
g15
sg12
S'@GB'
p721
sg14
g15
sg16
g15
sg17
g19
sg18
g19
sg20
g19
sg21
S'59.5'
p722
sg23
g63
sg25
S'23.5'
p723
sg27
S'01/02'
p724
sg29
S'--'
p725
sg31
S'Robbie Gould'
p726
sg33
S'L3-10'
p727
sg35
S'2010'
p728
sg37
g19
sg38
S'100.0'
p729
sg40
g19
sg41
g19
ssg124
(dp730
g5
S'37'
p731
sg7
S'16'
p732
sg9
g65
sg11
g63
sg12
S'NYJ'
p733
sg14
g15
sg16
g15
sg17
g15
sg18
g19
sg20
g24
sg21
S'61.3'
p734
sg23
g47
sg25
S'21.0'
p735
sg27
S'12/26'
p736
sg29
S'100.0'
p737
sg31
S'Robbie Gould'
p738
sg33
S'W38-34'
p739
sg35
S'2010'
p740
sg37
g19
sg38
S'50.0'
p741
sg40
g24
sg41
g19
ssg15
(dp742
g5
S'31'
p743
sg7
g15
sg9
g10
sg11
g63
sg12
S'DET'
p744
sg14
g15
sg16
g63
sg17
g15
sg18
g19
sg20
g15
sg21
S'68.5'
p745
sg23
g48
sg25
S'22.7'
p746
sg27
S'09/12'
p747
sg29
S'100.0'
p748
sg31
S'Robbie Gould'
p749
sg33
S'W19-14'
p750
sg35
S'2010'
p751
sg37
g19
sg38
S'100.0'
p752
sg40
g15
sg41
g19
ssg10
(dp753
g5
S'25'
p754
sg7
g10
sg9
g24
sg11
g10
sg12
S'GB'
p755
sg14
g15
sg16
g63
sg17
g19
sg18
g19
sg20
g63
sg21
S'60.6'
p756
sg23
g24
sg25
S'19.4'
p757
sg27
S'09/27'
p758
sg29
S'100.0'
p759
sg31
S'Robbie Gould'
p760
sg33
S'W20-17'
p761
sg35
S'2010'
p762
sg37
g19
sg38
S'66.7'
p763
sg40
g63
sg41
g19
ssg63
(dp764
g5
S'40'
p765
sg7
g63
sg9
g48
sg11
g63
sg12
S'@DAL'
p766
sg14
g15
sg16
g63
sg17
g63
sg18
g19
sg20
g10
sg21
S'72.0'
p767
sg23
g65
sg25
S'26.8'
p768
sg27
S'09/19'
p769
sg29
S'100.0'
p770
sg31
S'Robbie Gould'
p771
sg33
S'W27-20'
p772
sg35
S'2010'
p773
sg37
g19
sg38
S'100.0'
p774
sg40
g10
sg41
g19
ssg24
(dp775
g5
S'53'
p776
sg7
g24
sg9
g10
sg11
g10
sg12
S'@CAR'
p777
sg14
g15
sg16
g10
sg17
g63
sg18
g19
sg20
g63
sg21
S'59.5'
p778
sg23
g65
sg25
S'26.3'
p779
sg27
S'10/10'
p780
sg29
S'100.0'
p781
sg31
S'Robbie Gould'
p782
sg33
S'W23-6'
p783
sg35
S'2010'
p784
sg37
g19
sg38
S'100.0'
p785
sg40
g63
sg41
g19
ssg48
(dp786
g5
S'40'
p787
sg7
g48
sg9
g63
sg11
g15
sg12
S'@NYG'
p788
sg14
g15
sg16
g15
sg17
g19
sg18
g19
sg20
g19
sg21
S'61.5'
p789
sg23
g63
sg25
S'22.0'
p790
sg27
S'10/03'
p791
sg29
S'--'
p792
sg31
S'Robbie Gould'
p793
sg33
S'L3-17'
p794
sg35
S'2010'
p795
sg37
g19
sg38
S'100.0'
p796
sg40
g19
sg41
g19
ssg47
(dp797
g5
g19
sg7
g47
sg9
g10
sg11
g19
sg12
S'WAS'
p798
sg14
g15
sg16
g19
sg17
g19
sg18
g19
sg20
g63
sg21
S'68.3'
p799
sg23
g10
sg25
S'21.3'
p800
sg27
S'10/24'
p801
sg29
S'100.0'
p802
sg31
S'Robbie Gould'
p803
sg33
S'L14-17'
p804
sg35
S'2010'
p805
sg37
g19
sg38
S'--'
p806
sg40
g63
sg41
g19
ssg65
(dp807
g5
S'34'
p808
sg7
g65
sg9
g10
sg11
g10
sg12
S'SEA'
p809
sg14
g15
sg16
g63
sg17
g15
sg18
g19
sg20
g63
sg21
S'56.6'
p810
sg23
g24
sg25
S'25.7'
p811
sg27
S'10/17'
p812
sg29
S'100.0'
p813
sg31
S'Robbie Gould'
p814
sg33
S'L20-23'
p815
sg35
S'2010'
p816
sg37
g19
sg38
S'66.7'
p817
sg40
g63
sg41
g15
ssg214
(dp818
g5
g19
sg7
g214
sg9
g19
sg11
g15
sg12
S'@BUF'
p819
sg14
g15
sg16
g19
sg17
g10
sg18
g19
sg20
g63
sg21
S'73.0'
p820
sg23
g48
sg25
S'--'
p821
sg27
S'11/07'
p822
sg29
S'100.0'
p823
sg31
S'Robbie Gould'
p824
sg33
S'W22-19'
p825
sg35
S'2010'
p826
sg37
g19
sg38
S'0.0'
p827
sg40
g63
sg41
g19
ssg50
(dp828
g5
g199
sg7
g50
sg9
g199
sg11
g199
sg12
g199
sg14
g199
sg16
g199
sg17
g199
sg18
g199
sg20
g199
sg21
g199
sg23
g199
sg25
g199
sg27
S'Bye'
p829
sg29
g199
sg31
S'Robbie Gould'
p830
sg33
g199
sg35
S'2010'
p831
sg37
g199
sg38
g199
sg40
g199
sg41
g199
sssS'2013'
p832
(dp833
g3
(dp834
g5
S'46'
p835
sg7
S'11'
p836
sg9
g48
sg11
g10
sg12
S'BAL'
p837
sg14
g15
sg16
g10
sg17
g15
sg18
g19
sg20
g63
sg21
S'54.8'
p838
sg23
g24
sg25
S'11.8'
p839
sg27
S'11/17'
p840
sg29
S'100.0'
p841
sg31
S'Robbie Gould'
p842
sg33
S'W23-20'
p843
sg35
S'2013'
p844
sg37
g19
sg38
S'100.0'
p845
sg40
g63
sg41
g19
ssg42
(dp846
g5
S'32'
p847
sg7
S'10'
p848
sg9
g10
sg11
g63
sg12
S'DET'
p849
sg14
g15
sg16
g63
sg17
g15
sg18
g19
sg20
g15
sg21
S'55.4'
p850
sg23
g24
sg25
S'23.7'
p851
sg27
S'11/10'
p852
sg29
S'100.0'
p853
sg31
S'Robbie Gould'
p854
sg33
S'L19-21'
p855
sg35
S'2013'
p856
sg37
g19
sg38
S'100.0'
p857
sg40
g15
sg41
g19
ssg58
(dp858
g5
S'40'
p859
sg7
S'13'
p860
sg9
g63
sg11
g48
sg12
S'@MIN'
p861
sg14
g15
sg16
g63
sg17
g10
sg18
g19
sg20
g63
sg21
S'52.6'
p862
sg23
g24
sg25
S'7.5'
p863
sg27
S'12/01'
p864
sg29
S'100.0'
p865
sg31
S'Robbie Gould'
p866
sg33
S'L20-23'
p867
sg35
S'2013'
p868
sg37
g19
sg38
S'50.0'
p869
sg40
g63
sg41
g19
ssg73
(dp870
g5
g19
sg7
S'12'
p871
sg9
g15
sg11
g19
sg12
S'@STL'
p872
sg14
g15
sg16
g19
sg17
g10
sg18
g19
sg20
g10
sg21
S'66.3'
p873
sg23
g48
sg25
S'24.0'
p874
sg27
S'11/24'
p875
sg29
S'100.0'
p876
sg31
S'Robbie Gould'
p877
sg33
S'L21-42'
p878
sg35
S'2013'
p879
sg37
g19
sg38
S'--'
p880
sg40
g10
sg41
g19
ssg86
(dp881
g5
S'23'
p882
sg7
S'15'
p883
sg9
g48
sg11
g15
sg12
S'@CLE'
p884
sg14
g15
sg16
g15
sg17
g10
sg18
g19
sg20
g24
sg21
S'59.4'
p885
sg23
g47
sg25
S'11.0'
p886
sg27
S'12/15'
p887
sg29
S'100.0'
p888
sg31
S'Robbie Gould'
p889
sg33
S'W38-31'
p890
sg35
S'2013'
p891
sg37
g19
sg38
S'100.0'
p892
sg40
g24
sg41
g19
ssg99
(dp893
g5
S'34'
p894
sg7
S'14'
p895
sg9
g50
sg11
g10
sg12
S'DAL'
p896
sg14
g15
sg16
g10
sg17
g19
sg18
g19
sg20
g48
sg21
S'51.0'
p897
sg23
g214
sg25
S'17.0'
p898
sg27
S'12/09'
p899
sg29
S'100.0'
p900
sg31
S'Robbie Gould'
p901
sg33
S'W45-28'
p902
sg35
S'2013'
p903
sg37
g19
sg38
S'100.0'
p904
sg40
g48
sg41
g19
ssg111
(dp905
g5
g19
sg7
S'17'
p906
sg9
g63
sg11
g19
sg12
S'GB'
p907
sg14
g15
sg16
g19
sg17
g10
sg18
g19
sg20
g48
sg21
S'64.6'
p908
sg23
g24
sg25
S'20.0'
p909
sg27
S'12/29'
p910
sg29
S'100.0'
p911
sg31
S'Robbie Gould'
p912
sg33
S'L28-33'
p913
sg35
S'2013'
p914
sg37
g19
sg38
S'--'
p915
sg40
g48
sg41
g19
ssg124
(dp916
g5
S'50'
p917
sg7
S'16'
p918
sg9
g63
sg11
g15
sg12
S'@PHI'
p919
sg14
g15
sg16
g15
sg17
g19
sg18
g19
sg20
g19
sg21
S'54.0'
p920
sg23
g63
sg25
S'12.5'
p921
sg27
S'12/22'
p922
sg29
S'--'
p923
sg31
S'Robbie Gould'
p924
sg33
S'L11-54'
p925
sg35
S'2013'
p926
sg37
g19
sg38
S'100.0'
p927
sg40
g19
sg41
g19
ssg15
(dp928
g5
S'58'
p929
sg7
g15
sg9
g19
sg11
g15
sg12
S'CIN'
p930
sg14
g15
sg16
g15
sg17
g24
sg18
g19
sg20
g10
sg21
S'64.0'
p931
sg23
g24
sg25
S'--'
p932
sg27
S'09/08'
p933
sg29
S'100.0'
p934
sg31
S'Robbie Gould'
p935
sg33
S'W24-21'
p936
sg35
S'2013'
p937
sg37
g19
sg38
S'100.0'
p938
sg40
g10
sg41
g19
ssg10
(dp939
g5
S'47'
p940
sg7
g10
sg9
g63
sg11
g63
sg12
S'@PIT'
p941
sg14
g15
sg16
g63
sg17
g65
sg18
g19
sg20
g48
sg21
S'65.3'
p942
sg23
g50
sg25
S'24.0'
p943
sg27
S'09/22'
p944
sg29
S'80.0'
p945
sg31
S'Robbie Gould'
p946
sg33
S'W40-23'
p947
sg35
S'2013'
p948
sg37
g15
sg38
S'100.0'
p949
sg40
g24
sg41
g19
ssg63
(dp950
g5
S'20'
p951
sg7
g63
sg9
g48
sg11
g15
sg12
S'MIN'
p952
sg14
g15
sg16
g15
sg17
g15
sg18
g19
sg20
g48
sg21
S'61.8'
p953
sg23
g24
sg25
S'37.5'
p954
sg27
S'09/15'
p955
sg29
S'100.0'
p956
sg31
S'Robbie Gould'
p957
sg33
S'W31-30'
p958
sg35
S'2013'
p959
sg37
g19
sg38
S'100.0'
p960
sg40
g48
sg41
g19
ssg24
(dp961
g5
S'27'
p962
sg7
g24
sg9
g63
sg11
g15
sg12
S'NO'
p963
sg14
g15
sg16
g15
sg17
g15
sg18
g19
sg20
g15
sg21
S'48.0'
p964
sg23
g48
sg25
S'19.0'
p965
sg27
S'10/06'
p966
sg29
S'100.0'
p967
sg31
S'Robbie Gould'
p968
sg33
S'L18-26'
p969
sg35
S'2013'
p970
sg37
g19
sg38
S'100.0'
p971
sg40
g15
sg41
g19
ssg48
(dp972
g5
S'34'
p973
sg7
g48
sg9
g10
sg11
g10
sg12
S'@DET'
p974
sg14
g15
sg16
g10
sg17
g15
sg18
g19
sg20
g15
sg21
S'51.8'
p975
sg23
g65
sg25
S'20.7'
p976
sg27
S'09/29'
p977
sg29
S'100.0'
p978
sg31
S'Robbie Gould'
p979
sg33
S'L32-40'
p980
sg35
S'2013'
p981
sg37
g19
sg38
S'100.0'
p982
sg40
g15
sg41
g19
ssg47
(dp983
g5
S'49'
p984
sg7
g47
sg9
g10
sg11
g10
sg12
S'@WAS'
p985
sg14
g15
sg16
g63
sg17
g24
sg18
g19
sg20
g24
sg21
S'65.1'
p986
sg23
g50
sg25
S'17.7'
p987
sg27
S'10/20'
p988
sg29
S'100.0'
p989
sg31
S'Robbie Gould'
p990
sg33
S'L41-45'
p991
sg35
S'2013'
p992
sg37
g19
sg38
S'66.7'
p993
sg40
g24
sg41
g19
ssg65
(dp994
g5
S'52'
p995
sg7
g65
sg9
g10
sg11
g63
sg12
S'NYG'
p996
sg14
g15
sg16
g63
sg17
g10
sg18
g19
sg20
g10
sg21
S'61.7'
p997
sg23
g65
sg25
S'24.0'
p998
sg27
S'10/10'
p999
sg29
S'100.0'
p1000
sg31
S'Robbie Gould'
p1001
sg33
S'W27-21'
p1002
sg35
S'2013'
p1003
sg37
g19
sg38
S'100.0'
p1004
sg40
g10
sg41
g19
ssg214
(dp1005
g5
S'27'
p1006
sg7
g214
sg9
g10
sg11
g63
sg12
S'@GB'
p1007
sg14
g15
sg16
g63
sg17
g63
sg18
g19
sg20
g10
sg21
S'65.6'
p1008
sg23
g24
sg25
S'20.7'
p1009
sg27
S'11/04'
p1010
sg29
S'100.0'
p1011
sg31
S'Robbie Gould'
p1012
sg33
S'W27-20'
p1013
sg35
S'2013'
p1014
sg37
g19
sg38
S'100.0'
p1015
sg40
g10
sg41
g19
ssg50
(dp1016
g5
g199
sg7
g50
sg9
g199
sg11
g199
sg12
g199
sg14
g199
sg16
g199
sg17
g199
sg18
g199
sg20
g199
sg21
g199
sg23
g199
sg25
g199
sg27
S'Bye'
p1017
sg29
g199
sg31
S'Robbie Gould'
p1018
sg33
g199
sg35
S'2013'
p1019
sg37
g199
sg38
g199
sg40
g199
sg41
g199
sssS'2012'
p1020
(dp1021
g3
(dp1022
g5
g19
sg7
S'11'
p1023
sg9
g63
sg11
g19
sg12
S'@SF'
p1024
sg14
g15
sg16
g19
sg17
g19
sg18
g19
sg20
g15
sg21
S'69.0'
p1025
sg23
g63
sg25
S'21.0'
p1026
sg27
S'11/19'
p1027
sg29
S'100.0'
p1028
sg31
S'Robbie Gould'
p1029
sg33
S'L7-32'
p1030
sg35
S'2012'
p1031
sg37
g19
sg38
S'--'
p1032
sg40
g15
sg41
g19
ssg42
(dp1033
g5
S'51'
p1034
sg7
S'10'
p1035
sg9
g10
sg11
g10
sg12
S'HOU'
p1036
sg14
g15
sg16
g63
sg17
g19
sg18
g19
sg20
g19
sg21
S'67.0'
p1037
sg23
g10
sg25
S'22.0'
p1038
sg27
S'11/11'
p1039
sg29
S'--'
p1040
sg31
S'Robbie Gould'
p1041
sg33
S'L6-13'
p1042
sg35
S'2012'
p1043
sg37
g19
sg38
S'66.7'
p1044
sg40
g19
sg41
g19
ssg58
(dp1045
g5
S'46'
p1046
sg7
S'13'
p1047
sg9
g19
sg11
g15
sg12
S'SEA'
p1048
sg14
g15
sg16
g15
sg17
g48
sg18
g19
sg20
g63
sg21
S'65.0'
p1049
sg23
g48
sg25
S'--'
p1050
sg27
S'12/02'
p1051
sg29
S'100.0'
p1052
sg31
S'Robbie Gould'
p1053
sg33
S'L17-23'
p1054
sg35
S'2012'
p1055
sg37
g19
sg38
S'100.0'
p1056
sg40
g63
sg41
g19
ssg73
(dp1057
g5
S'47'
p1058
sg7
S'12'
p1059
sg9
g10
sg11
g10
sg12
S'MIN'
p1060
sg14
g15
sg16
g63
sg17
g10
sg18
g19
sg20
g63
sg21
S'64.8'
p1061
sg23
g65
sg25
S'22.3'
p1062
sg27
S'11/25'
p1063
sg29
S'100.0'
p1064
sg31
S'Robbie Gould'
p1065
sg33
S'W28-10'
p1066
sg35
S'2012'
p1067
sg37
g19
sg38
S'66.7'
p1068
sg40
g63
sg41
g15
ssg99
(dp1069
g5
g19
sg7
S'14'
p1070
sg9
g15
sg11
g19
sg12
S'@MIN'
p1071
sg14
g15
sg16
g19
sg17
g19
sg18
g19
sg20
g63
sg21
S'14.0'
p1072
sg23
g15
sg25
S'1.0'
p1073
sg27
S'12/09'
p1074
sg29
S'100.0'
p1075
sg31
S'Robbie Gould'
p1076
sg33
S'L14-21'
p1077
sg35
S'2012'
p1078
sg37
g19
sg38
S'--'
p1079
sg40
g63
sg41
g19
ssg15
(dp1080
g5
S'35'
p1081
sg7
g15
sg9
g48
sg11
g63
sg12
S'IND'
p1082
sg14
g15
sg16
g63
sg17
g48
sg18
g19
sg20
g24
sg21
S'65.0'
p1083
sg23
g50
sg25
S'18.3'
p1084
sg27
S'09/09'
p1085
sg29
S'100.0'
p1086
sg31
S'Robbie Gould'
p1087
sg33
S'W41-21'
p1088
sg35
S'2012'
p1089
sg37
g19
sg38
S'100.0'
p1090
sg40
g24
sg41
g19
ssg10
(dp1091
g5
S'54'
p1092
sg7
g10
sg9
g15
sg11
g10
sg12
S'STL'
p1093
sg14
g15
sg16
g10
sg17
g24
sg18
g19
sg20
g63
sg21
S'66.0'
p1094
sg23
g65
sg25
S'24.0'
p1095
sg27
S'09/23'
p1096
sg29
S'100.0'
p1097
sg31
S'Robbie Gould'
p1098
sg33
S'W23-6'
p1099
sg35
S'2012'
p1100
sg37
g19
sg38
S'100.0'
p1101
sg40
g63
sg41
g19
ssg63
(dp1102
g5
S'45'
p1103
sg7
g63
sg9
g15
sg11
g15
sg12
S'@GB'
p1104
sg14
g15
sg16
g15
sg17
g63
sg18
g19
sg20
g15
sg21
S'68.7'
p1105
sg23
g10
sg25
S'21.0'
p1106
sg27
S'09/13'
p1107
sg29
S'100.0'
p1108
sg31
S'Robbie Gould'
p1109
sg33
S'L10-23'
p1110
sg35
S'2012'
p1111
sg37
g19
sg38
S'100.0'
p1112
sg40
g15
sg41
g19
ssg24
(dp1113
g5
S'32'
p1114
sg7
g24
sg9
g10
sg11
g63
sg12
S'@JAC'
p1115
sg14
g15
sg16
g63
sg17
g24
sg18
g19
sg20
g24
sg21
S'65.3'
p1116
sg23
g50
sg25
S'21.7'
p1117
sg27
S'10/07'
p1118
sg29
S'100.0'
p1119
sg31
S'Robbie Gould'
p1120
sg33
S'W41-3'
p1121
sg35
S'2012'
p1122
sg37
g19
sg38
S'100.0'
p1123
sg40
g24
sg41
g19
ssg48
(dp1124
g5
S'43'
p1125
sg7
g48
sg9
g63
sg11
g63
sg12
S'@DAL'
p1126
sg14
g15
sg16
g63
sg17
g24
sg18
g19
sg20
g48
sg21
S'69.6'
p1127
sg23
g47
sg25
S'24.0'
p1128
sg27
S'10/01'
p1129
sg29
S'100.0'
p1130
sg31
S'Robbie Gould'
p1131
sg33
S'W34-18'
p1132
sg35
S'2012'
p1133
sg37
g19
sg38
S'100.0'
p1134
sg40
g48
sg41
g19
ssg47
(dp1135
g5
S'39'
p1136
sg7
g47
sg9
g63
sg11
g10
sg12
S'DET'
p1137
sg14
g15
sg16
g63
sg17
g63
sg18
g19
sg20
g15
sg21
S'67.3'
p1138
sg23
g48
sg25
S'22.0'
p1139
sg27
S'10/22'
p1140
sg29
S'100.0'
p1141
sg31
S'Robbie Gould'
p1142
sg33
S'W13-7'
p1143
sg35
S'2012'
p1144
sg37
g19
sg38
S'66.7'
p1145
sg40
g15
sg41
g15
ssg65
(dp1146
g5
g199
sg7
g65
sg9
g199
sg11
g199
sg12
g199
sg14
g199
sg16
g199
sg17
g199
sg18
g199
sg20
g199
sg21
g199
sg23
g199
sg25
g199
sg27
S'Bye'
p1147
sg29
g199
sg31
S'Robbie Gould'
p1148
sg33
g199
sg35
S'2012'
p1149
sg37
g199
sg38
g199
sg40
g199
sg41
g199
ssg214
(dp1150
g5
S'40'
p1151
sg7
g214
sg9
g65
sg11
g10
sg12
S'@TEN'
p1152
sg14
g15
sg16
g10
sg17
g48
sg18
g19
sg20
g65
sg21
S'66.7'
p1153
sg23
S'10'
p1154
sg25
S'22.5'
p1155
sg27
S'11/04'
p1156
sg29
S'100.0'
p1157
sg31
S'Robbie Gould'
p1158
sg33
S'W51-20'
p1159
sg35
S'2012'
p1160
sg37
g19
sg38
S'100.0'
p1161
sg40
g65
sg41
g19
ssg50
(dp1162
g5
S'41'
p1163
sg7
g50
sg9
g19
sg11
g63
sg12
S'CAR'
p1164
sg14
g15
sg16
g15
sg17
g48
sg18
g19
sg20
g63
sg21
S'65.0'
p1165
sg23
g48
sg25
S'--'
p1166
sg27
S'10/28'
p1167
sg29
S'100.0'
p1168
sg31
S'Robbie Gould'
p1169
sg33
S'W23-22'
p1170
sg35
S'2012'
p1171
sg37
g19
sg38
S'50.0'
p1172
sg40
g63
sg41
g19
sss.