(dp0
S'2014'
p1
(dp2
S'11'
p3
(dp4
S'FGLng'
p5
S'49'
p6
sS'WK'
p7
S'11'
p8
sS'Ret'
p9
S'5'
p10
sS'FGAtt'
p11
S'2'
p12
sS'Opp'
p13
S'@TEN'
p14
sS'G'
p15
S'1'
p16
sS'FGM'
p17
g12
sS'TB'
p18
g16
sS'GS'
p19
S'0'
p20
sS'XPM'
p21
S'3'
p22
sS'KOAvg'
p23
S'58.7'
p24
sS'KO'
p25
S'6'
p26
sS'RetAvg'
p27
S'24.8'
p28
sS'Game Date'
p29
S'11/17'
p30
sS'XPPct'
p31
S'100.0'
p32
sS'Player'
p33
S'Shaun Suisham'
p34
sS'Result'
p35
S'W27-24'
p36
sS'Year'
p37
S'2014'
p38
sS'XPBlk'
p39
g20
sS'FGPct'
p40
S'100.0'
p41
sS'XPAtt'
p42
g22
sS'FGBlk'
p43
g20
ssS'10'
p44
(dp45
g5
S'53'
p46
sg7
S'10'
p47
sg9
g12
sg11
g22
sg13
S'@NYJ'
p48
sg15
g16
sg17
g12
sg18
g20
sg19
g20
sg21
g16
sg23
S'43.3'
p49
sg25
g22
sg27
S'15.5'
p50
sg29
S'11/09'
p51
sg31
S'100.0'
p52
sg33
S'Shaun Suisham'
p53
sg35
S'L13-20'
p54
sg37
S'2014'
p55
sg39
g20
sg40
S'66.7'
p56
sg42
g16
sg43
g20
ssS'13'
p57
(dp58
g5
S'49'
p59
sg7
S'13'
p60
sg9
g22
sg11
S'4'
p61
sg13
S'NO'
p62
sg15
g16
sg17
g22
sg18
g12
sg19
g20
sg21
g16
sg23
S'59.0'
p63
sg25
g26
sg27
S'25.0'
p64
sg29
S'11/30'
p65
sg31
S'100.0'
p66
sg33
S'Shaun Suisham'
p67
sg35
S'L32-35'
p68
sg37
S'2014'
p69
sg39
g20
sg40
S'75.0'
p70
sg42
g16
sg43
g20
ssS'12'
p71
(dp72
g5
S''
p73
sg7
S'12'
p74
sg9
g73
sg11
g73
sg13
g73
sg15
g73
sg17
g73
sg18
g73
sg19
g73
sg21
g73
sg23
g73
sg25
g73
sg27
g73
sg29
S'Bye'
p75
sg31
g73
sg33
S'Shaun Suisham'
p76
sg35
g73
sg37
S'2014'
p77
sg39
g73
sg40
g73
sg42
g73
sg43
g73
ssS'15'
p78
(dp79
g5
S'38'
p80
sg7
S'15'
p81
sg9
g61
sg11
g12
sg13
S'@ATL'
p82
sg15
g16
sg17
g12
sg18
g12
sg19
g20
sg21
g22
sg23
S'63.0'
p83
sg25
g26
sg27
S'20.8'
p84
sg29
S'12/14'
p85
sg31
S'100.0'
p86
sg33
S'Shaun Suisham'
p87
sg35
S'W27-20'
p88
sg37
S'2014'
p89
sg39
g20
sg40
S'100.0'
p90
sg42
g22
sg43
g20
ssS'14'
p91
(dp92
g5
S'44'
p93
sg7
S'14'
p94
sg9
g61
sg11
g12
sg13
S'@CIN'
p95
sg15
g16
sg17
g12
sg18
g61
sg19
g20
sg21
g61
sg23
S'63.1'
p96
sg25
S'8'
p97
sg27
S'22.8'
p98
sg29
S'12/07'
p99
sg31
S'100.0'
p100
sg33
S'Shaun Suisham'
p101
sg35
S'W42-21'
p102
sg37
S'2014'
p103
sg39
g20
sg40
S'100.0'
p104
sg42
g61
sg43
g20
ssS'17'
p105
(dp106
g5
S'29'
p107
sg7
S'17'
p108
sg9
g10
sg11
g12
sg13
S'CIN'
p109
sg15
g16
sg17
g12
sg18
g16
sg19
g20
sg21
g22
sg23
S'61.7'
p110
sg25
g26
sg27
S'22.8'
p111
sg29
S'12/28'
p112
sg31
S'100.0'
p113
sg33
S'Shaun Suisham'
p114
sg35
S'W27-17'
p115
sg37
S'2014'
p116
sg39
g20
sg40
S'100.0'
p117
sg42
g22
sg43
g20
ssS'16'
p118
(dp119
g5
S'23'
p120
sg7
S'16'
p121
sg9
g10
sg11
g12
sg13
S'KC'
p122
sg15
g16
sg17
g12
sg18
g20
sg19
g20
sg21
g12
sg23
S'61.8'
p123
sg25
g10
sg27
S'20.8'
p124
sg29
S'12/21'
p125
sg31
S'100.0'
p126
sg33
S'Shaun Suisham'
p127
sg35
S'W20-12'
p128
sg37
S'2014'
p129
sg39
g20
sg40
S'100.0'
p130
sg42
g12
sg43
g20
ssg16
(dp131
g5
S'41'
p132
sg7
g16
sg9
g61
sg11
g22
sg13
S'CLE'
p133
sg15
g16
sg17
g22
sg18
g16
sg19
g20
sg21
g22
sg23
S'68.8'
p134
sg25
g10
sg27
S'21.3'
p135
sg29
S'09/07'
p136
sg31
S'100.0'
p137
sg33
S'Shaun Suisham'
p138
sg35
S'W30-27'
p139
sg37
S'2014'
p140
sg39
g20
sg40
S'100.0'
p141
sg42
g22
sg43
g20
ssg22
(dp142
g5
S'45'
p143
sg7
g22
sg9
g12
sg11
g22
sg13
S'@CAR'
p144
sg15
g16
sg17
g22
sg18
g10
sg19
g20
sg21
g61
sg23
S'64.9'
p145
sg25
S'7'
p146
sg27
S'21.5'
p147
sg29
S'09/21'
p148
sg31
S'100.0'
p149
sg33
S'Shaun Suisham'
p150
sg35
S'W37-19'
p151
sg37
S'2014'
p152
sg39
g20
sg40
S'100.0'
p153
sg42
g61
sg43
g20
ssg12
(dp154
g5
S'43'
p155
sg7
g12
sg9
g20
sg11
g12
sg13
S'@BAL'
p156
sg15
g16
sg17
g12
sg18
g22
sg19
g20
sg21
g20
sg23
S'65.0'
p157
sg25
g22
sg27
S'--'
p158
sg29
S'09/11'
p159
sg31
S'--'
p160
sg33
S'Shaun Suisham'
p161
sg35
S'L6-26'
p162
sg37
S'2014'
p163
sg39
g20
sg40
S'100.0'
p164
sg42
g20
sg43
g20
ssg10
(dp165
g5
S'24'
p166
sg7
g10
sg9
g22
sg11
g16
sg13
S'@JAC'
p167
sg15
g16
sg17
g16
sg18
g20
sg19
g20
sg21
g12
sg23
S'59.0'
p168
sg25
g61
sg27
S'22.0'
p169
sg29
S'10/05'
p170
sg31
S'100.0'
p171
sg33
S'Shaun Suisham'
p172
sg35
S'W17-9'
p173
sg37
S'2014'
p174
sg39
g20
sg40
S'100.0'
p175
sg42
g12
sg43
g20
ssg61
(dp176
g5
S'25'
p177
sg7
g61
sg9
g12
sg11
g12
sg13
S'TB'
p178
sg15
g16
sg17
g16
sg18
g22
sg19
g20
sg21
g22
sg23
S'66.8'
p179
sg25
g10
sg27
S'22.5'
p180
sg29
S'09/28'
p181
sg31
S'100.0'
p182
sg33
S'Shaun Suisham'
p183
sg35
S'L24-27'
p184
sg37
S'2014'
p185
sg39
g20
sg40
S'50.0'
p186
sg42
g22
sg43
g20
ssg146
(dp187
g5
S'44'
p188
sg7
g146
sg9
g61
sg11
g22
sg13
S'HOU'
p189
sg15
g16
sg17
g22
sg18
g22
sg19
g20
sg21
g22
sg23
S'65.1'
p190
sg25
g146
sg27
S'14.8'
p191
sg29
S'10/20'
p192
sg31
S'100.0'
p193
sg33
S'Shaun Suisham'
p194
sg35
S'W30-23'
p195
sg37
S'2014'
p196
sg39
g20
sg40
S'100.0'
p197
sg42
g22
sg43
g20
ssg26
(dp198
g5
S'20'
p199
sg7
g26
sg9
g16
sg11
g16
sg13
S'@CLE'
p200
sg15
g16
sg17
g16
sg18
g12
sg19
g20
sg21
g16
sg23
S'46.3'
p201
sg25
g22
sg27
S'3.0'
p202
sg29
S'10/12'
p203
sg31
S'100.0'
p204
sg33
S'Shaun Suisham'
p205
sg35
S'L10-31'
p206
sg37
S'2014'
p207
sg39
g20
sg40
S'100.0'
p208
sg42
g16
sg43
g20
ssS'9'
p209
(dp210
g5
g20
sg7
g209
sg9
g10
sg11
g20
sg13
S'BAL'
p211
sg15
g16
sg17
g20
sg18
g12
sg19
g20
sg21
g10
sg23
S'66.0'
p212
sg25
g146
sg27
S'40.8'
p213
sg29
S'11/02'
p214
sg31
S'100.0'
p215
sg33
S'Shaun Suisham'
p216
sg35
S'W43-23'
p217
sg37
S'2014'
p218
sg39
g20
sg40
S'--'
p219
sg42
g10
sg43
g20
ssg97
(dp220
g5
g20
sg7
g97
sg9
g10
sg11
g20
sg13
S'IND'
p221
sg15
g16
sg17
g20
sg18
g22
sg19
g20
sg21
g146
sg23
S'66.8'
p222
sg25
g97
sg27
S'24.4'
p223
sg29
S'10/26'
p224
sg31
S'100.0'
p225
sg33
S'Shaun Suisham'
p226
sg35
S'W51-34'
p227
sg37
S'2014'
p228
sg39
g20
sg40
S'--'
p229
sg42
g146
sg43
g20
sssS'2011'
p230
(dp231
g3
(dp232
g5
g73
sg7
S'11'
p233
sg9
g73
sg11
g73
sg13
g73
sg15
g73
sg17
g73
sg18
g73
sg19
g73
sg21
g73
sg23
g73
sg25
g73
sg27
g73
sg29
S'Bye'
p234
sg31
g73
sg33
S'Shaun Suisham'
p235
sg35
g73
sg37
S'2011'
p236
sg39
g73
sg40
g73
sg42
g73
sg43
g73
ssg44
(dp237
g5
S'39'
p238
sg7
S'10'
p239
sg9
g12
sg11
g16
sg13
S'@CIN'
p240
sg15
g16
sg17
g16
sg18
g22
sg19
g20
sg21
g22
sg23
S'67.8'
p241
sg25
g10
sg27
S'28.0'
p242
sg29
S'11/13'
p243
sg31
S'100.0'
p244
sg33
S'Shaun Suisham'
p245
sg35
S'W24-17'
p246
sg37
S'2011'
p247
sg39
g20
sg40
S'100.0'
p248
sg42
g22
sg43
g20
ssg57
(dp249
g5
g20
sg7
S'13'
p250
sg9
g61
sg11
g16
sg13
S'CIN'
p251
sg15
g16
sg17
g20
sg18
g12
sg19
g20
sg21
g10
sg23
S'67.8'
p252
sg25
g26
sg27
S'25.8'
p253
sg29
S'12/04'
p254
sg31
S'100.0'
p255
sg33
S'Shaun Suisham'
p256
sg35
S'W35-7'
p257
sg37
S'2011'
p258
sg39
g20
sg40
S'0.0'
p259
sg42
g10
sg43
g20
ssg71
(dp260
g5
S'49'
p261
sg7
S'12'
p262
sg9
g16
sg11
g12
sg13
S'@KC'
p263
sg15
g16
sg17
g12
sg18
g12
sg19
g20
sg21
g16
sg23
S'70.3'
p264
sg25
g22
sg27
S'20.0'
p265
sg29
S'11/27'
p266
sg31
S'100.0'
p267
sg33
S'Shaun Suisham'
p268
sg35
S'W13-9'
p269
sg37
S'2011'
p270
sg39
g20
sg40
S'100.0'
p271
sg42
g16
sg43
g20
ssg78
(dp272
g5
S'51'
p273
sg7
S'15'
p274
sg9
g12
sg11
g12
sg13
S'@SF'
p275
sg15
g16
sg17
g16
sg18
g20
sg19
g20
sg21
g20
sg23
S'65.0'
p276
sg25
g12
sg27
S'15.0'
p277
sg29
S'12/19'
p278
sg31
S'--'
p279
sg33
S'Shaun Suisham'
p280
sg35
S'L3-20'
p281
sg37
S'2011'
p282
sg39
g20
sg40
S'50.0'
p283
sg42
g20
sg43
g20
ssg91
(dp284
g5
g20
sg7
S'14'
p285
sg9
g12
sg11
g20
sg13
S'CLE'
p286
sg15
g16
sg17
g20
sg18
g16
sg19
g20
sg21
g12
sg23
S'66.0'
p287
sg25
g22
sg27
S'19.5'
p288
sg29
S'12/08'
p289
sg31
S'100.0'
p290
sg33
S'Shaun Suisham'
p291
sg35
S'W14-3'
p292
sg37
S'2011'
p293
sg39
g20
sg40
S'--'
p294
sg42
g12
sg43
g20
ssg105
(dp295
g5
S'29'
p296
sg7
S'17'
p297
sg9
g12
sg11
g22
sg13
S'@CLE'
p298
sg15
g16
sg17
g12
sg18
g16
sg19
g20
sg21
g16
sg23
S'52.0'
p299
sg25
g22
sg27
S'11.5'
p300
sg29
S'01/01'
p301
sg31
S'100.0'
p302
sg33
S'Shaun Suisham'
p303
sg35
S'W13-9'
p304
sg37
S'2011'
p305
sg39
g20
sg40
S'66.7'
p306
sg42
g16
sg43
g20
ssg118
(dp307
g5
S'49'
p308
sg7
S'16'
p309
sg9
g22
sg11
g12
sg13
S'STL'
p310
sg15
g16
sg17
g12
sg18
g22
sg19
g20
sg21
g22
sg23
S'66.5'
p311
sg25
g26
sg27
S'24.0'
p312
sg29
S'12/24'
p313
sg31
S'100.0'
p314
sg33
S'Shaun Suisham'
p315
sg35
S'W27-0'
p316
sg37
S'2011'
p317
sg39
g20
sg40
S'100.0'
p318
sg42
g22
sg43
g20
ssg16
(dp319
g5
g20
sg7
g16
sg9
g16
sg11
g20
sg13
S'@BAL'
p320
sg15
g16
sg17
g20
sg18
g16
sg19
g20
sg21
g16
sg23
S'73.5'
p321
sg25
g12
sg27
S'37.0'
p322
sg29
S'09/11'
p323
sg31
S'100.0'
p324
sg33
S'Shaun Suisham'
p325
sg35
S'L7-35'
p326
sg37
S'2011'
p327
sg39
g20
sg40
S'--'
p328
sg42
g16
sg43
g20
ssg22
(dp329
g5
S'48'
p330
sg7
g22
sg9
g22
sg11
g61
sg13
S'@IND'
p331
sg15
g16
sg17
g22
sg18
g22
sg19
g20
sg21
g12
sg23
S'69.0'
p332
sg25
g26
sg27
S'25.0'
p333
sg29
S'09/25'
p334
sg31
S'100.0'
p335
sg33
S'Shaun Suisham'
p336
sg35
S'W23-20'
p337
sg37
S'2011'
p338
sg39
g20
sg40
S'75.0'
p339
sg42
g12
sg43
g20
ssg12
(dp340
g5
S'20'
p341
sg7
g12
sg9
g12
sg11
g12
sg13
S'SEA'
p342
sg15
g16
sg17
g16
sg18
g22
sg19
g20
sg21
g22
sg23
S'65.6'
p343
sg25
g10
sg27
S'19.5'
p344
sg29
S'09/18'
p345
sg31
S'100.0'
p346
sg33
S'Shaun Suisham'
p347
sg35
S'W24-0'
p348
sg37
S'2011'
p349
sg39
g20
sg40
S'50.0'
p350
sg42
g22
sg43
g20
ssg10
(dp351
g5
S'19'
p352
sg7
g10
sg9
g22
sg11
g16
sg13
S'TEN'
p353
sg15
g16
sg17
g16
sg18
g61
sg19
g20
sg21
g10
sg23
S'66.3'
p354
sg25
g146
sg27
S'31.0'
p355
sg29
S'10/09'
p356
sg31
S'100.0'
p357
sg33
S'Shaun Suisham'
p358
sg35
S'W38-17'
p359
sg37
S'2011'
p360
sg39
g20
sg40
S'100.0'
p361
sg42
g10
sg43
g20
ssg61
(dp362
g5
S'26'
p363
sg7
g61
sg9
g12
sg11
g12
sg13
S'@HOU'
p364
sg15
g16
sg17
g16
sg18
g16
sg19
g20
sg21
g16
sg23
S'70.7'
p365
sg25
g22
sg27
S'17.0'
p366
sg29
S'10/02'
p367
sg31
S'100.0'
p368
sg33
S'Shaun Suisham'
p369
sg35
S'L10-17'
p370
sg37
S'2011'
p371
sg39
g20
sg40
S'50.0'
p372
sg42
g16
sg43
g16
ssg146
(dp373
g5
S'42'
p374
sg7
g146
sg9
g10
sg11
g22
sg13
S'@ARI'
p375
sg15
g16
sg17
g22
sg18
g16
sg19
g20
sg21
g22
sg23
S'68.0'
p376
sg25
g26
sg27
S'21.4'
p377
sg29
S'10/23'
p378
sg31
S'100.0'
p379
sg33
S'Shaun Suisham'
p380
sg35
S'W32-20'
p381
sg37
S'2011'
p382
sg39
g20
sg40
S'100.0'
p383
sg42
g22
sg43
g20
ssg26
(dp384
g5
S'21'
p385
sg7
g26
sg9
g22
sg11
g12
sg13
S'JAC'
p386
sg15
g16
sg17
g16
sg18
g16
sg19
g20
sg21
g12
sg23
S'66.5'
p387
sg25
g61
sg27
S'29.0'
p388
sg29
S'10/16'
p389
sg31
S'100.0'
p390
sg33
S'Shaun Suisham'
p391
sg35
S'W17-13'
p392
sg37
S'2011'
p393
sg39
g20
sg40
S'50.0'
p394
sg42
g12
sg43
g20
ssg209
(dp395
g5
S'36'
p396
sg7
g209
sg9
g61
sg11
g12
sg13
S'BAL'
p397
sg15
g16
sg17
g12
sg18
g16
sg19
g20
sg21
g12
sg23
S'66.2'
p398
sg25
g10
sg27
S'32.3'
p399
sg29
S'11/06'
p400
sg31
S'100.0'
p401
sg33
S'Shaun Suisham'
p402
sg35
S'L20-23'
p403
sg37
S'2011'
p404
sg39
g20
sg40
S'100.0'
p405
sg42
g12
sg43
g20
ssg97
(dp406
g5
S'33'
p407
sg7
g97
sg9
g61
sg11
g61
sg13
S'NE'
p408
sg15
g16
sg17
g22
sg18
g16
sg19
g20
sg21
g12
sg23
S'63.2'
p409
sg25
g26
sg27
S'18.5'
p410
sg29
S'10/30'
p411
sg31
S'100.0'
p412
sg33
S'Shaun Suisham'
p413
sg35
S'W25-17'
p414
sg37
S'2011'
p415
sg39
g20
sg40
S'75.0'
p416
sg42
g12
sg43
g20
sssS'2010'
p417
(dp418
g3
(dp419
g5
g20
sg7
S'11'
p420
sg9
g10
sg11
g20
sg13
S'OAK'
p421
sg15
g16
sg17
g20
sg18
g16
sg19
g20
sg21
g10
sg23
S'62.3'
p422
sg25
g26
sg27
S'16.6'
p423
sg29
S'11/21'
p424
sg31
S'100.0'
p425
sg33
S'Shaun Suisham'
p426
sg35
S'W35-3'
p427
sg37
S'2010'
p428
sg39
g20
sg40
S'--'
p429
sg42
g10
sg43
g20
ssg57
(dp430
g5
S'45'
p431
sg7
S'13'
p432
sg9
g61
sg11
g12
sg13
S'@BAL'
p433
sg15
g16
sg17
g12
sg18
g20
sg19
g20
sg21
g16
sg23
S'62.0'
p434
sg25
g61
sg27
S'18.0'
p435
sg29
S'12/05'
p436
sg31
S'100.0'
p437
sg33
S'Shaun Suisham'
p438
sg35
S'W13-10'
p439
sg37
S'2010'
p440
sg39
g20
sg40
S'100.0'
p441
sg42
g16
sg43
g20
ssg71
(dp442
g5
S'48'
p443
sg7
S'12'
p444
sg9
g10
sg11
g61
sg13
S'@BUF'
p445
sg15
g16
sg17
g61
sg18
g16
sg19
g20
sg21
g16
sg23
S'60.0'
p446
sg25
g26
sg27
S'26.2'
p447
sg29
S'11/28'
p448
sg31
S'100.0'
p449
sg33
S'Shaun Suisham'
p450
sg35
S'W19-16'
p451
sg37
S'2010'
p452
sg39
g20
sg40
S'100.0'
p453
sg42
g16
sg43
g20
ssg78
(dp454
g5
S'42'
p455
sg7
S'15'
p456
sg9
g61
sg11
g16
sg13
S'NYJ'
p457
sg15
g16
sg17
g16
sg18
g20
sg19
g20
sg21
g12
sg23
S'55.8'
p458
sg25
g61
sg27
S'37.8'
p459
sg29
S'12/19'
p460
sg31
S'100.0'
p461
sg33
S'Shaun Suisham'
p462
sg35
S'L17-22'
p463
sg37
S'2010'
p464
sg39
g20
sg40
S'100.0'
p465
sg42
g12
sg43
g20
ssg91
(dp466
g5
S'41'
p467
sg7
S'14'
p468
sg9
g10
sg11
g22
sg13
S'CIN'
p469
sg15
g16
sg17
g22
sg18
g20
sg19
g20
sg21
g12
sg23
S'60.0'
p470
sg25
g26
sg27
S'15.4'
p471
sg29
S'12/12'
p472
sg31
S'100.0'
p473
sg33
S'Shaun Suisham'
p474
sg35
S'W23-7'
p475
sg37
S'2010'
p476
sg39
g20
sg40
S'100.0'
p477
sg42
g12
sg43
g20
ssg105
(dp478
g5
S'41'
p479
sg7
S'17'
p480
sg9
g97
sg11
g12
sg13
S'@CLE'
p481
sg15
g16
sg17
g12
sg18
g20
sg19
g20
sg21
g10
sg23
S'52.5'
p482
sg25
g97
sg27
S'9.1'
p483
sg29
S'01/02'
p484
sg31
S'100.0'
p485
sg33
S'Shaun Suisham'
p486
sg35
S'W41-9'
p487
sg37
S'2010'
p488
sg39
g20
sg40
S'100.0'
p489
sg42
g10
sg43
g20
ssg118
(dp490
g5
S'29'
p491
sg7
S'16'
p492
sg9
g26
sg11
g22
sg13
S'CAR'
p493
sg15
g16
sg17
g12
sg18
g20
sg19
g20
sg21
g22
sg23
S'62.0'
p494
sg25
g26
sg27
S'22.0'
p495
sg29
S'12/23'
p496
sg31
S'100.0'
p497
sg33
S'Shaun Suisham'
p498
sg35
S'W27-3'
p499
sg37
S'2010'
p500
sg39
g20
sg40
S'66.7'
p501
sg42
g22
sg43
g20
sssS'2013'
p502
(dp503
g3
(dp504
g5
S'34'
p505
sg7
S'11'
p506
sg9
g61
sg11
g22
sg13
S'DET'
p507
sg15
g16
sg17
g22
sg18
g61
sg19
g20
sg21
g61
sg23
S'64.0'
p508
sg25
g97
sg27
S'23.0'
p509
sg29
S'11/17'
p510
sg31
S'100.0'
p511
sg33
S'Shaun Suisham'
p512
sg35
S'W37-27'
p513
sg37
S'2013'
p514
sg39
g20
sg40
S'100.0'
p515
sg42
g61
sg43
g20
ssg44
(dp516
g5
S'37'
p517
sg7
S'10'
p518
sg9
g16
sg11
g22
sg13
S'BUF'
p519
sg15
g16
sg17
g22
sg18
g61
sg19
g20
sg21
g12
sg23
S'64.8'
p520
sg25
g26
sg27
S'18.0'
p521
sg29
S'11/10'
p522
sg31
S'100.0'
p523
sg33
S'Shaun Suisham'
p524
sg35
S'W23-10'
p525
sg37
S'2013'
p526
sg39
g20
sg40
S'100.0'
p527
sg42
g12
sg43
g20
ssg57
(dp528
g5
g20
sg7
S'13'
p529
sg9
g22
sg11
g20
sg13
S'@BAL'
p530
sg15
g16
sg17
g20
sg18
g20
sg19
g20
sg21
g12
sg23
S'43.8'
p531
sg25
g61
sg27
S'37.7'
p532
sg29
S'11/28'
p533
sg31
S'100.0'
p534
sg33
S'Shaun Suisham'
p535
sg35
S'L20-22'
p536
sg37
S'2013'
p537
sg39
g20
sg40
S'--'
p538
sg42
g12
sg43
g20
ssg71
(dp539
g5
S'47'
p540
sg7
S'12'
p541
sg9
g10
sg11
g12
sg13
S'@CLE'
p542
sg15
g16
sg17
g12
sg18
g16
sg19
g20
sg21
g22
sg23
S'60.3'
p543
sg25
g26
sg27
S'18.2'
p544
sg29
S'11/24'
p545
sg31
S'100.0'
p546
sg33
S'Shaun Suisham'
p547
sg35
S'W27-11'
p548
sg37
S'2013'
p549
sg39
g20
sg40
S'100.0'
p550
sg42
g22
sg43
g20
ssg78
(dp551
g5
S'45'
p552
sg7
S'15'
p553
sg9
g10
sg11
g22
sg13
S'CIN'
p554
sg15
g16
sg17
g22
sg18
g16
sg19
g20
sg21
g22
sg23
S'59.0'
p555
sg25
g146
sg27
S'30.0'
p556
sg29
S'12/15'
p557
sg31
S'100.0'
p558
sg33
S'Shaun Suisham'
p559
sg35
S'W30-20'
p560
sg37
S'2013'
p561
sg39
g20
sg40
S'100.0'
p562
sg42
g22
sg43
g20
ssg91
(dp563
g5
g20
sg7
S'14'
p564
sg9
g61
sg11
g20
sg13
S'MIA'
p565
sg15
g16
sg17
g20
sg18
g16
sg19
g20
sg21
g61
sg23
S'60.2'
p566
sg25
g10
sg27
S'18.5'
p567
sg29
S'12/08'
p568
sg31
S'100.0'
p569
sg33
S'Shaun Suisham'
p570
sg35
S'L28-34'
p571
sg37
S'2013'
p572
sg39
g20
sg40
S'--'
p573
sg42
g61
sg43
g20
ssg105
(dp574
g5
S'32'
p575
sg7
S'17'
p576
sg9
g20
sg11
g12
sg13
S'CLE'
p577
sg15
g16
sg17
g12
sg18
g61
sg19
g20
sg21
g12
sg23
S'63.4'
p578
sg25
g10
sg27
S'--'
p579
sg29
S'12/29'
p580
sg31
S'100.0'
p581
sg33
S'Shaun Suisham'
p582
sg35
S'W20-7'
p583
sg37
S'2013'
p584
sg39
g20
sg40
S'100.0'
p585
sg42
g12
sg43
g20
ssg118
(dp586
g5
S'31'
p587
sg7
S'16'
p588
sg9
g26
sg11
g16
sg13
S'@GB'
p589
sg15
g16
sg17
g16
sg18
g16
sg19
g20
sg21
g10
sg23
S'60.1'
p590
sg25
g146
sg27
S'27.8'
p591
sg29
S'12/22'
p592
sg31
S'100.0'
p593
sg33
S'Shaun Suisham'
p594
sg35
S'W38-31'
p595
sg37
S'2013'
p596
sg39
g20
sg40
S'100.0'
p597
sg42
g10
sg43
g20
ssg16
(dp598
g5
g20
sg7
g16
sg9
g16
sg11
g20
sg13
S'TEN'
p599
sg15
g16
sg17
g20
sg18
g20
sg19
g20
sg21
g16
sg23
S'37.0'
p600
sg25
g12
sg27
S'-1.0'
p601
sg29
S'09/08'
p602
sg31
S'100.0'
p603
sg33
S'Shaun Suisham'
p604
sg35
S'L9-16'
p605
sg37
S'2013'
p606
sg39
g20
sg40
S'--'
p607
sg42
g16
sg43
g20
ssg22
(dp608
g5
S'44'
p609
sg7
g22
sg9
g10
sg11
g22
sg13
S'CHI'
p610
sg15
g16
sg17
g22
sg18
g16
sg19
g20
sg21
g12
sg23
S'60.7'
p611
sg25
g26
sg27
S'14.6'
p612
sg29
S'09/22'
p613
sg31
S'100.0'
p614
sg33
S'Shaun Suisham'
p615
sg35
S'L23-40'
p616
sg37
S'2013'
p617
sg39
g20
sg40
S'100.0'
p618
sg42
g12
sg43
g20
ssg12
(dp619
g5
S'44'
p620
sg7
g12
sg9
g16
sg11
g16
sg13
S'@CIN'
p621
sg15
g16
sg17
g16
sg18
g12
sg19
g20
sg21
g16
sg23
S'65.7'
p622
sg25
g22
sg27
S'17.0'
p623
sg29
S'09/16'
p624
sg31
S'100.0'
p625
sg33
S'Shaun Suisham'
p626
sg35
S'L10-20'
p627
sg37
S'2013'
p628
sg39
g20
sg40
S'100.0'
p629
sg42
g16
sg43
g20
ssg10
(dp630
g5
g73
sg7
g10
sg9
g73
sg11
g73
sg13
g73
sg15
g73
sg17
g73
sg18
g73
sg19
g73
sg21
g73
sg23
g73
sg25
g73
sg27
g73
sg29
S'Bye'
p631
sg31
g73
sg33
S'Shaun Suisham'
p632
sg35
g73
sg37
S'2013'
p633
sg39
g73
sg40
g73
sg42
g73
sg43
g73
ssg61
(dp634
g5
S'28'
p635
sg7
g61
sg9
g10
sg11
g12
sg13
S'@MIN'
p636
sg15
g16
sg17
g12
sg18
g16
sg19
g20
sg21
g22
sg23
S'69.8'
p637
sg25
g26
sg27
S'28.8'
p638
sg29
S'09/29'
p639
sg31
S'100.0'
p640
sg33
S'Shaun Suisham'
p641
sg35
S'L27-34'
p642
sg37
S'2013'
p643
sg39
g20
sg40
S'100.0'
p644
sg42
g22
sg43
g20
ssg146
(dp645
g5
S'42'
p646
sg7
g146
sg9
g61
sg11
g61
sg13
S'BAL'
p647
sg15
g16
sg17
g61
sg18
g16
sg19
g20
sg21
g16
sg23
S'62.4'
p648
sg25
g10
sg27
S'20.3'
p649
sg29
S'10/20'
p650
sg31
S'100.0'
p651
sg33
S'Shaun Suisham'
p652
sg35
S'W19-16'
p653
sg37
S'2013'
p654
sg39
g20
sg40
S'100.0'
p655
sg42
g16
sg43
g20
ssg26
(dp656
g5
S'48'
p657
sg7
g26
sg9
g22
sg11
g61
sg13
S'@NYJ'
p658
sg15
g16
sg17
g61
sg18
g12
sg19
g20
sg21
g16
sg23
S'57.2'
p659
sg25
g26
sg27
S'23.7'
p660
sg29
S'10/13'
p661
sg31
S'100.0'
p662
sg33
S'Shaun Suisham'
p663
sg35
S'W19-6'
p664
sg37
S'2013'
p665
sg39
g20
sg40
S'100.0'
p666
sg42
g16
sg43
g20
ssg209
(dp667
g5
S'30'
p668
sg7
g209
sg9
g10
sg11
g16
sg13
S'@NE'
p669
sg15
g16
sg17
g16
sg18
g16
sg19
g20
sg21
g61
sg23
S'64.7'
p670
sg25
g26
sg27
S'17.8'
p671
sg29
S'11/03'
p672
sg31
S'100.0'
p673
sg33
S'Shaun Suisham'
p674
sg35
S'L31-55'
p675
sg37
S'2013'
p676
sg39
g20
sg40
S'100.0'
p677
sg42
g61
sg43
g20
ssg97
(dp678
g5
S'47'
p679
sg7
g97
sg9
g22
sg11
g22
sg13
S'@OAK'
p680
sg15
g16
sg17
g16
sg18
g20
sg19
g20
sg21
g16
sg23
S'53.5'
p681
sg25
g61
sg27
S'15.3'
p682
sg29
S'10/27'
p683
sg31
S'100.0'
p684
sg33
S'Shaun Suisham'
p685
sg35
S'L18-21'
p686
sg37
S'2013'
p687
sg39
g20
sg40
S'33.3'
p688
sg42
g16
sg43
g20
sssS'2012'
p689
(dp690
g3
(dp691
g5
S'22'
p692
sg7
S'11'
p693
sg9
g22
sg11
g16
sg13
S'BAL'
p694
sg15
g16
sg17
g16
sg18
g20
sg19
g20
sg21
g16
sg23
S'57.0'
p695
sg25
g22
sg27
S'25.3'
p696
sg29
S'11/18'
p697
sg31
S'100.0'
p698
sg33
S'Shaun Suisham'
p699
sg35
S'L10-13'
p700
sg37
S'2012'
p701
sg39
g20
sg40
S'100.0'
p702
sg42
g16
sg43
g20
ssg44
(dp703
g5
S'35'
p704
sg7
S'10'
p705
sg9
g10
sg11
g22
sg13
S'KC'
p706
sg15
g16
sg17
g22
sg18
g20
sg19
g20
sg21
g16
sg23
S'63.2'
p707
sg25
g10
sg27
S'20.4'
p708
sg29
S'11/12'
p709
sg31
S'100.0'
p710
sg33
S'Shaun Suisham'
p711
sg35
S'W16-13'
p712
sg37
S'2012'
p713
sg39
g20
sg40
S'100.0'
p714
sg42
g16
sg43
g20
ssg57
(dp715
g5
S'46'
p716
sg7
S'13'
p717
sg9
g22
sg11
g22
sg13
S'@BAL'
p718
sg15
g16
sg17
g22
sg18
g12
sg19
g20
sg21
g12
sg23
S'67.4'
p719
sg25
g10
sg27
S'24.7'
p720
sg29
S'12/02'
p721
sg31
S'100.0'
p722
sg33
S'Shaun Suisham'
p723
sg35
S'W23-20'
p724
sg37
S'2012'
p725
sg39
g20
sg40
S'100.0'
p726
sg42
g12
sg43
g20
ssg71
(dp727
g5
g20
sg7
S'12'
p728
sg9
g16
sg11
g20
sg13
S'@CLE'
p729
sg15
g16
sg17
g20
sg18
g12
sg19
g20
sg21
g12
sg23
S'51.0'
p730
sg25
g22
sg27
S'5.0'
p731
sg29
S'11/25'
p732
sg31
S'100.0'
p733
sg33
S'Shaun Suisham'
p734
sg35
S'L14-20'
p735
sg37
S'2012'
p736
sg39
g20
sg40
S'--'
p737
sg42
g12
sg43
g20
ssg78
(dp738
g5
S'32'
p739
sg7
S'15'
p740
sg9
g16
sg11
g16
sg13
S'@DAL'
p741
sg15
g16
sg17
g16
sg18
g61
sg19
g20
sg21
g22
sg23
S'67.8'
p742
sg25
g10
sg27
S'25.0'
p743
sg29
S'12/16'
p744
sg31
S'100.0'
p745
sg33
S'Shaun Suisham'
p746
sg35
S'L24-27'
p747
sg37
S'2012'
p748
sg39
g20
sg40
S'100.0'
p749
sg42
g22
sg43
g20
ssg91
(dp750
g5
S'49'
p751
sg7
S'14'
p752
sg9
g22
sg11
g16
sg13
S'SD'
p753
sg15
g16
sg17
g16
sg18
g16
sg19
g20
sg21
g22
sg23
S'51.0'
p754
sg25
g61
sg27
S'8.0'
p755
sg29
S'12/09'
p756
sg31
S'100.0'
p757
sg33
S'Shaun Suisham'
p758
sg35
S'L24-34'
p759
sg37
S'2012'
p760
sg39
g20
sg40
S'100.0'
p761
sg42
g22
sg43
g20
ssg105
(dp762
g5
S'41'
p763
sg7
S'17'
p764
sg9
g22
sg11
g16
sg13
S'CLE'
p765
sg15
g16
sg17
g16
sg18
g12
sg19
g20
sg21
g22
sg23
S'61.0'
p766
sg25
g10
sg27
S'23.7'
p767
sg29
S'12/30'
p768
sg31
S'100.0'
p769
sg33
S'Shaun Suisham'
p770
sg35
S'W24-10'
p771
sg37
S'2012'
p772
sg39
g20
sg40
S'100.0'
p773
sg42
g22
sg43
g20
ssg118
(dp774
g5
S'40'
p775
sg7
S'16'
p776
sg9
g20
sg11
g22
sg13
S'CIN'
p777
sg15
g16
sg17
g16
sg18
g22
sg19
g20
sg21
g16
sg23
S'65.0'
p778
sg25
g22
sg27
S'--'
p779
sg29
S'12/23'
p780
sg31
S'100.0'
p781
sg33
S'Shaun Suisham'
p782
sg35
S'L10-13'
p783
sg37
S'2012'
p784
sg39
g20
sg40
S'33.3'
p785
sg42
g16
sg43
g20
ssg16
(dp786
g5
S'35'
p787
sg7
g16
sg9
g20
sg11
g12
sg13
S'@DEN'
p788
sg15
g16
sg17
g12
sg18
g10
sg19
g20
sg21
g16
sg23
S'65.0'
p789
sg25
g10
sg27
S'--'
p790
sg29
S'09/09'
p791
sg31
S'100.0'
p792
sg33
S'Shaun Suisham'
p793
sg35
S'L19-31'
p794
sg37
S'2012'
p795
sg39
g20
sg40
S'100.0'
p796
sg42
g16
sg43
g20
ssg22
(dp797
g5
S'33'
p798
sg7
g22
sg9
g12
sg11
g16
sg13
S'@OAK'
p799
sg15
g16
sg17
g16
sg18
g22
sg19
g20
sg21
g61
sg23
S'63.8'
p800
sg25
g10
sg27
S'43.5'
p801
sg29
S'09/23'
p802
sg31
S'100.0'
p803
sg33
S'Shaun Suisham'
p804
sg35
S'L31-34'
p805
sg37
S'2012'
p806
sg39
g20
sg40
S'100.0'
p807
sg42
g61
sg43
g20
ssg12
(dp808
g5
S'45'
p809
sg7
g12
sg9
g61
sg11
g12
sg13
S'NYJ'
p810
sg15
g16
sg17
g12
sg18
g12
sg19
g20
sg21
g22
sg23
S'67.8'
p811
sg25
g26
sg27
S'28.0'
p812
sg29
S'09/16'
p813
sg31
S'100.0'
p814
sg33
S'Shaun Suisham'
p815
sg35
S'W27-10'
p816
sg37
S'2012'
p817
sg39
g20
sg40
S'100.0'
p818
sg42
g22
sg43
g20
ssg10
(dp819
g5
S'34'
p820
sg7
g10
sg9
g22
sg11
g22
sg13
S'PHI'
p821
sg15
g16
sg17
g22
sg18
g16
sg19
g20
sg21
g16
sg23
S'64.3'
p822
sg25
g61
sg27
S'21.7'
p823
sg29
S'10/07'
p824
sg31
S'100.0'
p825
sg33
S'Shaun Suisham'
p826
sg35
S'W16-14'
p827
sg37
S'2012'
p828
sg39
g20
sg40
S'100.0'
p829
sg42
g16
sg43
g20
ssg61
(dp830
g5
g73
sg7
g61
sg9
g73
sg11
g73
sg13
g73
sg15
g73
sg17
g73
sg18
g73
sg19
g73
sg21
g73
sg23
g73
sg25
g73
sg27
g73
sg29
S'Bye'
p831
sg31
g73
sg33
S'Shaun Suisham'
p832
sg35
g73
sg37
S'2012'
p833
sg39
g73
sg40
g73
sg42
g73
sg43
g73
ssg146
(dp834
g5
S'47'
p835
sg7
g146
sg9
g10
sg11
g22
sg13
S'@CIN'
p836
sg15
g16
sg17
g22
sg18
g16
sg19
g20
sg21
g16
sg23
S'66.2'
p837
sg25
g26
sg27
S'26.8'
p838
sg29
S'10/21'
p839
sg31
S'100.0'
p840
sg33
S'Shaun Suisham'
p841
sg35
S'W24-17'
p842
sg37
S'2012'
p843
sg39
g20
sg40
S'100.0'
p844
sg42
g16
sg43
g20
ssg26
(dp845
g5
S'52'
p846
sg7
g26
sg9
g10
sg11
g61
sg13
S'@TEN'
p847
sg15
g16
sg17
g22
sg18
g16
sg19
g20
sg21
g12
sg23
S'66.7'
p848
sg25
g26
sg27
S'26.2'
p849
sg29
S'10/11'
p850
sg31
S'100.0'
p851
sg33
S'Shaun Suisham'
p852
sg35
S'L23-26'
p853
sg37
S'2012'
p854
sg39
g20
sg40
S'75.0'
p855
sg42
g12
sg43
g20
ssg209
(dp856
g5
S'30'
p857
sg7
g209
sg9
g61
sg11
g16
sg13
S'@NYG'
p858
sg15
g16
sg17
g16
sg18
g20
sg19
g20
sg21
g22
sg23
S'65.0'
p859
sg25
g61
sg27
S'25.0'
p860
sg29
S'11/04'
p861
sg31
S'100.0'
p862
sg33
S'Shaun Suisham'
p863
sg35
S'W24-20'
p864
sg37
S'2012'
p865
sg39
g20
sg40
S'100.0'
p866
sg42
g22
sg43
g20
ssg97
(dp867
g5
S'48'
p868
sg7
g97
sg9
g61
sg11
g12
sg13
S'WAS'
p869
sg15
g16
sg17
g12
sg18
g12
sg19
g20
sg21
g22
sg23
S'66.5'
p870
sg25
g26
sg27
S'24.3'
p871
sg29
S'10/28'
p872
sg31
S'100.0'
p873
sg33
S'Shaun Suisham'
p874
sg35
S'W27-12'
p875
sg37
S'2012'
p876
sg39
g20
sg40
S'100.0'
p877
sg42
g22
sg43
g20
sss.