(dp0
S'2015'
p1
(dp2
S'11'
p3
(dp4
S'FGLng'
p5
S'35'
p6
sS'WK'
p7
S'11'
p8
sS'Ret'
p9
S'2'
p10
sS'FGAtt'
p11
S'3'
p12
sS'Opp'
p13
S'BUF'
p14
sS'G'
p15
S'1'
p16
sS'FGM'
p17
g10
sS'TB'
p18
g12
sS'GS'
p19
S'0'
p20
sS'XPM'
p21
g10
sS'KOAvg'
p22
S'61.4'
p23
sS'KO'
p24
S'5'
p25
sS'RetAvg'
p26
S'15.0'
p27
sS'Game Date'
p28
S'11/23'
p29
sS'XPPct'
p30
S'100.0'
p31
sS'Player'
p32
S'Stephen Gostkowski'
p33
sS'Result'
p34
S'W20-13'
p35
sS'Year'
p36
S'2015'
p37
sS'XPBlk'
p38
g20
sS'FGPct'
p39
S'66.7'
p40
sS'XPAtt'
p41
g10
sS'FGBlk'
p42
g20
ssS'10'
p43
(dp44
g5
S'54'
p45
sg7
S'10'
p46
sg9
g12
sg11
g10
sg13
S'@NYG'
p47
sg15
g16
sg17
g10
sg18
g12
sg19
g20
sg21
g12
sg22
S'57.7'
p48
sg24
S'6'
p49
sg26
S'10.3'
p50
sg28
S'11/15'
p51
sg30
S'100.0'
p52
sg32
S'Stephen Gostkowski'
p53
sg34
S'W27-26'
p54
sg36
S'2015'
p55
sg38
g20
sg39
S'100.0'
p56
sg41
g12
sg42
g20
ssS'13'
p57
(dp58
g5
g20
sg7
S'13'
p59
sg9
g10
sg11
g20
sg13
S'PHI'
p60
sg15
g16
sg17
g20
sg18
g20
sg19
g20
sg21
S'4'
p61
sg22
S'46.0'
p62
sg24
g12
sg26
S'17.5'
p63
sg28
S'12/06'
p64
sg30
S'100.0'
p65
sg32
S'Stephen Gostkowski'
p66
sg34
S'L28-35'
p67
sg36
S'2015'
p68
sg38
g20
sg39
S'--'
p69
sg41
g61
sg42
g20
ssS'12'
p70
(dp71
g5
S'47'
p72
sg7
S'12'
p73
sg9
g10
sg11
g16
sg13
S'@DEN'
p74
sg15
g16
sg17
g16
sg18
g10
sg19
g20
sg21
g12
sg22
S'67.0'
p75
sg24
g61
sg26
S'23.0'
p76
sg28
S'11/29'
p77
sg30
S'100.0'
p78
sg32
S'Stephen Gostkowski'
p79
sg34
S'L24-30'
p80
sg36
S'2015'
p81
sg38
g20
sg39
S'100.0'
p82
sg41
g12
sg42
g20
ssS'15'
p83
(dp84
g5
S'43'
p85
sg7
S'15'
p86
sg9
g10
sg11
g25
sg13
S'TEN'
p87
sg15
g16
sg17
g61
sg18
g49
sg19
g20
sg21
g12
sg22
S'64.1'
p88
sg24
S'8'
p89
sg26
S'12.0'
p90
sg28
S'12/20'
p91
sg30
S'100.0'
p92
sg32
S'Stephen Gostkowski'
p93
sg34
S'W33-16'
p94
sg36
S'2015'
p95
sg38
g20
sg39
S'80.0'
p96
sg41
g12
sg42
g20
ssS'14'
p97
(dp98
g5
S'49'
p99
sg7
S'14'
p100
sg9
g16
sg11
g10
sg13
S'@HOU'
p101
sg15
g16
sg17
g10
sg18
g25
sg19
g20
sg21
g12
sg22
S'63.0'
p102
sg24
g49
sg26
S'19.0'
p103
sg28
S'12/13'
p104
sg30
S'100.0'
p105
sg32
S'Stephen Gostkowski'
p106
sg34
S'W27-6'
p107
sg36
S'2015'
p108
sg38
g20
sg39
S'100.0'
p109
sg41
g12
sg42
g20
ssS'17'
p110
(dp111
g5
S'34'
p112
sg7
S'17'
p113
sg9
g20
sg11
g10
sg13
S'@MIA'
p114
sg15
g16
sg17
g16
sg18
g12
sg19
g20
sg21
g16
sg22
S'65.0'
p115
sg24
g12
sg26
S'--'
p116
sg28
S'01/03'
p117
sg30
S'100.0'
p118
sg32
S'Stephen Gostkowski'
p119
sg34
S'L10-20'
p120
sg36
S'2015'
p121
sg38
g20
sg39
S'50.0'
p122
sg41
g16
sg42
g20
ssS'16'
p123
(dp124
g5
S'44'
p125
sg7
S'16'
p126
sg9
g16
sg11
g10
sg13
S'@NYJ'
p127
sg15
g16
sg17
g10
sg18
g25
sg19
g20
sg21
g10
sg22
S'64.2'
p128
sg24
g49
sg26
S'19.0'
p129
sg28
S'12/27'
p130
sg30
S'100.0'
p131
sg32
S'Stephen Gostkowski'
p132
sg34
S'L20-26'
p133
sg36
S'2015'
p134
sg38
g20
sg39
S'100.0'
p135
sg41
g10
sg42
g20
ssg16
(dp136
g5
g20
sg7
g16
sg9
g16
sg11
g20
sg13
S'PIT'
p137
sg15
g16
sg17
g20
sg18
g61
sg19
g20
sg21
g61
sg22
S'65.0'
p138
sg24
g25
sg26
S'22.0'
p139
sg28
S'09/10'
p140
sg30
S'100.0'
p141
sg32
S'Stephen Gostkowski'
p142
sg34
S'W28-21'
p143
sg36
S'2015'
p144
sg38
g20
sg39
S'--'
p145
sg41
g61
sg42
g20
ssg12
(dp146
g5
S'46'
p147
sg7
g12
sg9
g12
sg11
g12
sg13
S'JAC'
p148
sg15
g16
sg17
g12
sg18
S'7'
p149
sg19
g20
sg21
g49
sg22
S'63.3'
p150
sg24
S'10'
p151
sg26
S'13.7'
p152
sg28
S'09/27'
p153
sg30
S'100.0'
p154
sg32
S'Stephen Gostkowski'
p155
sg34
S'W51-17'
p156
sg36
S'2015'
p157
sg38
g20
sg39
S'100.0'
p158
sg41
g49
sg42
g20
ssg10
(dp159
g5
S'50'
p160
sg7
g10
sg9
g10
sg11
g61
sg13
S'@BUF'
p161
sg15
g16
sg17
g61
sg18
g149
sg19
g20
sg21
g61
sg22
S'63.7'
p162
sg24
S'9'
p163
sg26
S'22.5'
p164
sg28
S'09/20'
p165
sg30
S'100.0'
p166
sg32
S'Stephen Gostkowski'
p167
sg34
S'W40-32'
p168
sg36
S'2015'
p169
sg38
g20
sg39
S'100.0'
p170
sg41
g61
sg42
g20
ssg25
(dp171
g5
S'57'
p172
sg7
g25
sg9
g16
sg11
g12
sg13
S'@DAL'
p173
sg15
g16
sg17
g12
sg18
g49
sg19
g20
sg21
g12
sg22
S'66.0'
p174
sg24
g149
sg26
S'21.0'
p175
sg28
S'10/11'
p176
sg30
S'100.0'
p177
sg32
S'Stephen Gostkowski'
p178
sg34
S'W30-6'
p179
sg36
S'2015'
p180
sg38
g20
sg39
S'100.0'
p181
sg41
g12
sg42
g20
ssg61
(dp182
g5
S''
p183
sg7
g61
sg9
g183
sg11
g183
sg13
g183
sg15
g183
sg17
g183
sg18
g183
sg19
g183
sg21
g183
sg22
g183
sg24
g183
sg26
g183
sg28
S'Bye'
p184
sg30
g183
sg32
S'Stephen Gostkowski'
p185
sg34
g183
sg36
S'2015'
p186
sg38
g183
sg39
g183
sg41
g183
sg42
g183
ssg149
(dp187
g5
S'46'
p188
sg7
g149
sg9
g10
sg11
g12
sg13
S'NYJ'
p189
sg15
g16
sg17
g12
sg18
g25
sg19
g20
sg21
g12
sg22
S'66.3'
p190
sg24
g149
sg26
S'29.0'
p191
sg28
S'10/25'
p192
sg30
S'100.0'
p193
sg32
S'Stephen Gostkowski'
p194
sg34
S'W30-23'
p195
sg36
S'2015'
p196
sg38
g20
sg39
S'100.0'
p197
sg41
g12
sg42
g20
ssg49
(dp198
g5
S'40'
p199
sg7
g49
sg9
g16
sg11
g10
sg13
S'@IND'
p200
sg15
g16
sg17
g10
sg18
g49
sg19
g20
sg21
g61
sg22
S'66.1'
p201
sg24
g149
sg26
S'19.0'
p202
sg28
S'10/18'
p203
sg30
S'100.0'
p204
sg32
S'Stephen Gostkowski'
p205
sg34
S'W34-27'
p206
sg36
S'2015'
p207
sg38
g20
sg39
S'100.0'
p208
sg41
g61
sg42
g20
ssg163
(dp209
g5
S'21'
p210
sg7
g163
sg9
g12
sg11
g10
sg13
S'WAS'
p211
sg15
g16
sg17
g10
sg18
g10
sg19
g20
sg21
g12
sg22
S'57.3'
p212
sg24
g49
sg26
S'16.0'
p213
sg28
S'11/08'
p214
sg30
S'100.0'
p215
sg32
S'Stephen Gostkowski'
p216
sg34
S'W27-10'
p217
sg36
S'2015'
p218
sg38
g20
sg39
S'100.0'
p219
sg41
g12
sg42
g20
ssg89
(dp220
g5
S'52'
p221
sg7
g89
sg9
g10
sg11
g10
sg13
S'MIA'
p222
sg15
g16
sg17
g10
sg18
g25
sg19
g20
sg21
g61
sg22
S'65.0'
p223
sg24
g149
sg26
S'34.0'
p224
sg28
S'10/29'
p225
sg30
S'100.0'
p226
sg32
S'Stephen Gostkowski'
p227
sg34
S'W36-7'
p228
sg36
S'2015'
p229
sg38
g20
sg39
S'100.0'
p230
sg41
g61
sg42
g20
sssS'2014'
p231
(dp232
g3
(dp233
g5
g20
sg7
S'11'
p234
sg9
g10
sg11
g20
sg13
S'@IND'
p235
sg15
g16
sg17
g20
sg18
g25
sg19
g20
sg21
g49
sg22
S'66.6'
p236
sg24
g149
sg26
S'26.5'
p237
sg28
S'11/16'
p238
sg30
S'100.0'
p239
sg32
S'Stephen Gostkowski'
p240
sg34
S'W42-20'
p241
sg36
S'2014'
p242
sg38
g20
sg39
S'--'
p243
sg41
g49
sg42
g20
ssg43
(dp244
g5
g183
sg7
S'10'
p245
sg9
g183
sg11
g183
sg13
g183
sg15
g183
sg17
g183
sg18
g183
sg19
g183
sg21
g183
sg22
g183
sg24
g183
sg26
g183
sg28
S'Bye'
p246
sg30
g183
sg32
S'Stephen Gostkowski'
p247
sg34
g183
sg36
S'2014'
p248
sg38
g183
sg39
g183
sg41
g183
sg42
g183
ssg57
(dp249
g5
g20
sg7
S'13'
p250
sg9
g61
sg11
g16
sg13
S'@GB'
p251
sg15
g16
sg17
g20
sg18
g20
sg19
g20
sg21
g12
sg22
S'62.5'
p252
sg24
g61
sg26
S'22.5'
p253
sg28
S'11/30'
p254
sg30
S'100.0'
p255
sg32
S'Stephen Gostkowski'
p256
sg34
S'L21-26'
p257
sg36
S'2014'
p258
sg38
g20
sg39
S'0.0'
p259
sg41
g12
sg42
g20
ssg70
(dp260
g5
S'43'
p261
sg7
S'12'
p262
sg9
g16
sg11
g10
sg13
S'DET'
p263
sg15
g16
sg17
g10
sg18
g25
sg19
g20
sg21
g61
sg22
S'66.0'
p264
sg24
g49
sg26
S'27.0'
p265
sg28
S'11/23'
p266
sg30
S'100.0'
p267
sg32
S'Stephen Gostkowski'
p268
sg34
S'W34-9'
p269
sg36
S'2014'
p270
sg38
g20
sg39
S'100.0'
p271
sg41
g61
sg42
g20
ssg83
(dp272
g5
S'36'
p273
sg7
S'15'
p274
sg9
g16
sg11
g10
sg13
S'MIA'
p275
sg15
g16
sg17
g10
sg18
g49
sg19
g20
sg21
g25
sg22
S'64.1'
p276
sg24
g89
sg26
S'26.0'
p277
sg28
S'12/14'
p278
sg30
S'100.0'
p279
sg32
S'Stephen Gostkowski'
p280
sg34
S'W41-13'
p281
sg36
S'2014'
p282
sg38
g20
sg39
S'100.0'
p283
sg41
g25
sg42
g20
ssg97
(dp284
g5
S'38'
p285
sg7
S'14'
p286
sg9
g10
sg11
g12
sg13
S'@SD'
p287
sg15
g16
sg17
g12
sg18
g61
sg19
g20
sg21
g10
sg22
S'65.5'
p288
sg24
g49
sg26
S'16.5'
p289
sg28
S'12/07'
p290
sg30
S'100.0'
p291
sg32
S'Stephen Gostkowski'
p292
sg34
S'W23-14'
p293
sg36
S'2014'
p294
sg38
g20
sg39
S'100.0'
p295
sg41
g10
sg42
g20
ssg110
(dp296
g5
S'44'
p297
sg7
S'17'
p298
sg9
g10
sg11
g12
sg13
S'BUF'
p299
sg15
g16
sg17
g12
sg18
g10
sg19
g20
sg21
g20
sg22
S'64.8'
p300
sg24
g61
sg26
S'36.5'
p301
sg28
S'12/28'
p302
sg30
S'--'
p303
sg32
S'Stephen Gostkowski'
p304
sg34
S'L9-17'
p305
sg36
S'2014'
p306
sg38
g20
sg39
S'100.0'
p307
sg41
g20
sg42
g20
ssg123
(dp308
g5
S'24'
p309
sg7
S'16'
p310
sg9
g12
sg11
g16
sg13
S'@NYJ'
p311
sg15
g16
sg17
g16
sg18
g16
sg19
g20
sg21
g10
sg22
S'63.5'
p312
sg24
g61
sg26
S'15.0'
p313
sg28
S'12/21'
p314
sg30
S'100.0'
p315
sg32
S'Stephen Gostkowski'
p316
sg34
S'W17-16'
p317
sg36
S'2014'
p318
sg38
g20
sg39
S'100.0'
p319
sg41
g10
sg42
g20
ssg16
(dp320
g5
S'47'
p321
sg7
g16
sg9
g12
sg11
g10
sg13
S'@MIA'
p322
sg15
g16
sg17
g10
sg18
g10
sg19
g20
sg21
g10
sg22
S'65.6'
p323
sg24
g25
sg26
S'25.0'
p324
sg28
S'09/07'
p325
sg30
S'100.0'
p326
sg32
S'Stephen Gostkowski'
p327
sg34
S'L20-33'
p328
sg36
S'2014'
p329
sg38
g20
sg39
S'100.0'
p330
sg41
g10
sg42
g20
ssg12
(dp331
g5
S'36'
p332
sg7
g12
sg9
g20
sg11
g12
sg13
S'OAK'
p333
sg15
g16
sg17
g12
sg18
g61
sg19
g20
sg21
g16
sg22
S'65.0'
p334
sg24
g61
sg26
S'--'
p335
sg28
S'09/21'
p336
sg30
S'100.0'
p337
sg32
S'Stephen Gostkowski'
p338
sg34
S'W16-9'
p339
sg36
S'2014'
p340
sg38
g20
sg39
S'100.0'
p341
sg41
g16
sg42
g20
ssg10
(dp342
g5
S'48'
p343
sg7
g10
sg9
g12
sg11
g12
sg13
S'@MIN'
p344
sg15
g16
sg17
g12
sg18
g61
sg19
g20
sg21
g12
sg22
S'60.1'
p345
sg24
g149
sg26
S'16.3'
p346
sg28
S'09/14'
p347
sg30
S'100.0'
p348
sg32
S'Stephen Gostkowski'
p349
sg34
S'W30-7'
p350
sg36
S'2014'
p351
sg38
g20
sg39
S'100.0'
p352
sg41
g12
sg42
g20
ssg25
(dp353
g5
S'48'
p354
sg7
g25
sg9
g149
sg11
g25
sg13
S'CIN'
p355
sg15
g16
sg17
g25
sg18
g12
sg19
g20
sg21
g61
sg22
S'66.7'
p356
sg24
S'10'
p357
sg26
S'20.1'
p358
sg28
S'10/05'
p359
sg30
S'100.0'
p360
sg32
S'Stephen Gostkowski'
p361
sg34
S'W43-17'
p362
sg36
S'2014'
p363
sg38
g20
sg39
S'100.0'
p364
sg41
g61
sg42
g20
ssg61
(dp365
g5
g20
sg7
g61
sg9
g10
sg11
g20
sg13
S'@KC'
p366
sg15
g16
sg17
g20
sg18
g16
sg19
g20
sg21
g10
sg22
S'60.7'
p367
sg24
g12
sg26
S'18.0'
p368
sg28
S'09/29'
p369
sg30
S'100.0'
p370
sg32
S'Stephen Gostkowski'
p371
sg34
S'L14-41'
p372
sg36
S'2014'
p373
sg38
g20
sg39
S'--'
p374
sg41
g10
sg42
g20
ssg149
(dp375
g5
S'39'
p376
sg7
g149
sg9
g10
sg11
g10
sg13
S'NYJ'
p377
sg15
g16
sg17
g10
sg18
g12
sg19
g20
sg21
g12
sg22
S'66.4'
p378
sg24
g25
sg26
S'40.0'
p379
sg28
S'10/16'
p380
sg30
S'100.0'
p381
sg32
S'Stephen Gostkowski'
p382
sg34
S'W27-25'
p383
sg36
S'2014'
p384
sg38
g20
sg39
S'100.0'
p385
sg41
g12
sg42
g20
ssg49
(dp386
g5
S'53'
p387
sg7
g49
sg9
g10
sg11
g61
sg13
S'@BUF'
p388
sg15
g16
sg17
g12
sg18
g25
sg19
g20
sg21
g61
sg22
S'66.0'
p389
sg24
g149
sg26
S'26.0'
p390
sg28
S'10/12'
p391
sg30
S'100.0'
p392
sg32
S'Stephen Gostkowski'
p393
sg34
S'W37-22'
p394
sg36
S'2014'
p395
sg38
g20
sg39
S'75.0'
p396
sg41
g61
sg42
g20
ssg163
(dp397
g5
S'49'
p398
sg7
g163
sg9
g49
sg11
g12
sg13
S'DEN'
p399
sg15
g16
sg17
g12
sg18
g12
sg19
g20
sg21
g61
sg22
S'59.6'
p400
sg24
g163
sg26
S'13.5'
p401
sg28
S'11/02'
p402
sg30
S'100.0'
p403
sg32
S'Stephen Gostkowski'
p404
sg34
S'W43-21'
p405
sg36
S'2014'
p406
sg38
g20
sg39
S'100.0'
p407
sg41
g61
sg42
g20
ssg89
(dp408
g5
S'39'
p409
sg7
g89
sg9
g25
sg11
g12
sg13
S'CHI'
p410
sg15
g16
sg17
g12
sg18
g25
sg19
g20
sg21
g49
sg22
S'64.3'
p411
sg24
S'10'
p412
sg26
S'18.8'
p413
sg28
S'10/26'
p414
sg30
S'100.0'
p415
sg32
S'Stephen Gostkowski'
p416
sg34
S'W51-23'
p417
sg36
S'2014'
p418
sg38
g20
sg39
S'100.0'
p419
sg41
g49
sg42
g20
sssS'2011'
p420
(dp421
g3
(dp422
g5
S'21'
p423
sg7
S'11'
p424
sg9
g49
sg11
g10
sg13
S'KC'
p425
sg15
g16
sg17
g10
sg18
g16
sg19
g20
sg21
g61
sg22
S'62.4'
p426
sg24
g149
sg26
S'16.7'
p427
sg28
S'11/21'
p428
sg30
S'100.0'
p429
sg32
S'Stephen Gostkowski'
p430
sg34
S'W34-3'
p431
sg36
S'2011'
p432
sg38
g20
sg39
S'100.0'
p433
sg41
g61
sg42
g20
ssg43
(dp434
g5
S'50'
p435
sg7
S'10'
p436
sg9
g49
sg11
g12
sg13
S'@NYJ'
p437
sg15
g16
sg17
g12
sg18
g10
sg19
g20
sg21
g61
sg22
S'63.5'
p438
sg24
g89
sg26
S'24.8'
p439
sg28
S'11/13'
p440
sg30
S'100.0'
p441
sg32
S'Stephen Gostkowski'
p442
sg34
S'W37-16'
p443
sg36
S'2011'
p444
sg38
g20
sg39
S'100.0'
p445
sg41
g61
sg42
g20
ssg57
(dp446
g5
S'39'
p447
sg7
S'13'
p448
sg9
g10
sg11
g16
sg13
S'IND'
p449
sg15
g16
sg17
g16
sg18
g61
sg19
g20
sg21
g61
sg22
S'70.5'
p450
sg24
g49
sg26
S'17.0'
p451
sg28
S'12/04'
p452
sg30
S'100.0'
p453
sg32
S'Stephen Gostkowski'
p454
sg34
S'W31-24'
p455
sg36
S'2011'
p456
sg38
g20
sg39
S'100.0'
p457
sg41
g61
sg42
g20
ssg70
(dp458
g5
S'45'
p459
sg7
S'12'
p460
sg9
g10
sg11
g10
sg13
S'@PHI'
p461
sg15
g16
sg17
g16
sg18
g25
sg19
g20
sg21
g25
sg22
S'65.7'
p462
sg24
g149
sg26
S'19.5'
p463
sg28
S'11/27'
p464
sg30
S'100.0'
p465
sg32
S'Stephen Gostkowski'
p466
sg34
S'W38-20'
p467
sg36
S'2011'
p468
sg38
g20
sg39
S'50.0'
p469
sg41
g25
sg42
g20
ssg83
(dp470
g5
S'34'
p471
sg7
S'15'
p472
sg9
g61
sg11
g10
sg13
S'@DEN'
p473
sg15
g16
sg17
g10
sg18
g12
sg19
g20
sg21
g25
sg22
S'67.6'
p474
sg24
g149
sg26
S'17.8'
p475
sg28
S'12/18'
p476
sg30
S'100.0'
p477
sg32
S'Stephen Gostkowski'
p478
sg34
S'W41-23'
p479
sg36
S'2011'
p480
sg38
g20
sg39
S'100.0'
p481
sg41
g25
sg42
g20
ssg97
(dp482
g5
S'24'
p483
sg7
S'14'
p484
sg9
g49
sg11
g10
sg13
S'@WAS'
p485
sg15
g16
sg17
g10
sg18
g20
sg19
g20
sg21
g61
sg22
S'63.2'
p486
sg24
g49
sg26
S'19.5'
p487
sg28
S'12/11'
p488
sg30
S'100.0'
p489
sg32
S'Stephen Gostkowski'
p490
sg34
S'W34-27'
p491
sg36
S'2011'
p492
sg38
g20
sg39
S'100.0'
p493
sg41
g61
sg42
g20
ssg110
(dp494
g5
S'47'
p495
sg7
S'17'
p496
sg9
g10
sg11
g10
sg13
S'BUF'
p497
sg15
g16
sg17
g10
sg18
g149
sg19
g20
sg21
g25
sg22
S'71.7'
p498
sg24
g163
sg26
S'21.0'
p499
sg28
S'01/01'
p500
sg30
S'100.0'
p501
sg32
S'Stephen Gostkowski'
p502
sg34
S'W49-21'
p503
sg36
S'2011'
p504
sg38
g20
sg39
S'100.0'
p505
sg41
g25
sg42
g20
ssg123
(dp506
g5
S'45'
p507
sg7
S'16'
p508
sg9
g12
sg11
g12
sg13
S'MIA'
p509
sg15
g16
sg17
g10
sg18
g12
sg19
g20
sg21
g12
sg22
S'67.7'
p510
sg24
g49
sg26
S'24.3'
p511
sg28
S'12/24'
p512
sg30
S'100.0'
p513
sg32
S'Stephen Gostkowski'
p514
sg34
S'W27-24'
p515
sg36
S'2011'
p516
sg38
g20
sg39
S'66.7'
p517
sg41
g12
sg42
g20
ssg16
(dp518
g5
S'20'
p519
sg7
g16
sg9
g49
sg11
g10
sg13
S'@MIA'
p520
sg15
g16
sg17
g16
sg18
g16
sg19
g20
sg21
g25
sg22
S'66.0'
p521
sg24
g149
sg26
S'21.5'
p522
sg28
S'09/12'
p523
sg30
S'100.0'
p524
sg32
S'Stephen Gostkowski'
p525
sg34
S'W38-24'
p526
sg36
S'2011'
p527
sg38
g20
sg39
S'50.0'
p528
sg41
g25
sg42
g20
ssg12
(dp529
g5
S'23'
p530
sg7
g12
sg9
g16
sg11
g16
sg13
S'@BUF'
p531
sg15
g16
sg17
g16
sg18
g25
sg19
g20
sg21
g61
sg22
S'67.8'
p532
sg24
g49
sg26
S'16.0'
p533
sg28
S'09/25'
p534
sg30
S'100.0'
p535
sg32
S'Stephen Gostkowski'
p536
sg34
S'L31-34'
p537
sg36
S'2011'
p538
sg38
g20
sg39
S'100.0'
p539
sg41
g61
sg42
g20
ssg10
(dp540
g5
S'47'
p541
sg7
g10
sg9
g12
sg11
g10
sg13
S'SD'
p542
sg15
g16
sg17
g10
sg18
g12
sg19
g20
sg21
g12
sg22
S'66.2'
p543
sg24
g49
sg26
S'21.0'
p544
sg28
S'09/18'
p545
sg30
S'100.0'
p546
sg32
S'Stephen Gostkowski'
p547
sg34
S'W35-21'
p548
sg36
S'2011'
p549
sg38
g20
sg39
S'100.0'
p550
sg41
g12
sg42
g20
ssg25
(dp551
g5
S'44'
p552
sg7
g25
sg9
g25
sg11
g12
sg13
S'NYJ'
p553
sg15
g16
sg17
g12
sg18
g10
sg19
g20
sg21
g12
sg22
S'69.4'
p554
sg24
g149
sg26
S'39.6'
p555
sg28
S'10/09'
p556
sg30
S'100.0'
p557
sg32
S'Stephen Gostkowski'
p558
sg34
S'W30-21'
p559
sg36
S'2011'
p560
sg38
g20
sg39
S'100.0'
p561
sg41
g12
sg42
g20
ssg61
(dp562
g5
S'44'
p563
sg7
g61
sg9
g61
sg11
g16
sg13
S'@OAK'
p564
sg15
g16
sg17
g16
sg18
g16
sg19
g20
sg21
g61
sg22
S'63.3'
p565
sg24
g49
sg26
S'15.5'
p566
sg28
S'10/02'
p567
sg30
S'100.0'
p568
sg32
S'Stephen Gostkowski'
p569
sg34
S'W31-19'
p570
sg36
S'2011'
p571
sg38
g20
sg39
S'100.0'
p572
sg41
g61
sg42
g20
ssg149
(dp573
g5
g183
sg7
g149
sg9
g183
sg11
g183
sg13
g183
sg15
g183
sg17
g183
sg18
g183
sg19
g183
sg21
g183
sg22
g183
sg24
g183
sg26
g183
sg28
S'Bye'
p574
sg30
g183
sg32
S'Stephen Gostkowski'
p575
sg34
g183
sg36
S'2011'
p576
sg38
g183
sg39
g183
sg41
g183
sg42
g183
ssg49
(dp577
g5
S'31'
p578
sg7
g49
sg9
g10
sg11
g10
sg13
S'DAL'
p579
sg15
g16
sg17
g10
sg18
g12
sg19
g20
sg21
g10
sg22
S'70.6'
p580
sg24
g25
sg26
S'20.0'
p581
sg28
S'10/16'
p582
sg30
S'100.0'
p583
sg32
S'Stephen Gostkowski'
p584
sg34
S'W20-16'
p585
sg36
S'2011'
p586
sg38
g20
sg39
S'100.0'
p587
sg41
g10
sg42
g20
ssg163
(dp588
g5
S'45'
p589
sg7
g163
sg9
g61
sg11
g12
sg13
S'NYG'
p590
sg15
g16
sg17
g10
sg18
g16
sg19
g20
sg21
g10
sg22
S'65.4'
p591
sg24
g25
sg26
S'15.3'
p592
sg28
S'11/06'
p593
sg30
S'100.0'
p594
sg32
S'Stephen Gostkowski'
p595
sg34
S'L20-24'
p596
sg36
S'2011'
p597
sg38
g20
sg39
S'66.7'
p598
sg41
g10
sg42
g20
ssg89
(dp599
g5
S'46'
p600
sg7
g89
sg9
g12
sg11
g10
sg13
S'@PIT'
p601
sg15
g16
sg17
g16
sg18
g20
sg19
g20
sg21
g10
sg22
S'42.8'
p602
sg24
g25
sg26
S'27.0'
p603
sg28
S'10/30'
p604
sg30
S'100.0'
p605
sg32
S'Stephen Gostkowski'
p606
sg34
S'L17-25'
p607
sg36
S'2011'
p608
sg38
g20
sg39
S'50.0'
p609
sg41
g10
sg42
g20
sssS'2010'
p610
(dp611
g16
(dp612
g5
S'32'
p613
sg7
g16
sg9
g61
sg11
g12
sg13
S'CIN'
p614
sg15
g16
sg17
g16
sg18
g12
sg19
g20
sg21
g25
sg22
S'69.3'
p615
sg24
g149
sg26
S'17.5'
p616
sg28
S'09/12'
p617
sg30
S'100.0'
p618
sg32
S'Stephen Gostkowski'
p619
sg34
S'W38-24'
p620
sg36
S'2010'
p621
sg38
g20
sg39
S'33.3'
p622
sg41
g25
sg42
g20
ssg12
(dp623
g5
S'43'
p624
sg7
g12
sg9
g25
sg11
g16
sg13
S'BUF'
p625
sg15
g16
sg17
g16
sg18
g16
sg19
g20
sg21
g25
sg22
S'68.5'
p626
sg24
g49
sg26
S'37.8'
p627
sg28
S'09/26'
p628
sg30
S'100.0'
p629
sg32
S'Stephen Gostkowski'
p630
sg34
S'W38-30'
p631
sg36
S'2010'
p632
sg38
g20
sg39
S'100.0'
p633
sg41
g25
sg42
g20
ssg10
(dp634
g5
g20
sg7
g10
sg9
g10
sg11
g16
sg13
S'@NYJ'
p635
sg15
g16
sg17
g20
sg18
g16
sg19
g20
sg21
g10
sg22
S'63.0'
p636
sg24
g12
sg26
S'15.0'
p637
sg28
S'09/19'
p638
sg30
S'100.0'
p639
sg32
S'Stephen Gostkowski'
p640
sg34
S'L14-28'
p641
sg36
S'2010'
p642
sg38
g20
sg39
S'0.0'
p643
sg41
g10
sg42
g20
ssg25
(dp644
g5
g183
sg7
g25
sg9
g183
sg11
g183
sg13
g183
sg15
g183
sg17
g183
sg18
g183
sg19
g183
sg21
g183
sg22
g183
sg24
g183
sg26
g183
sg28
S'Bye'
p645
sg30
g183
sg32
S'Stephen Gostkowski'
p646
sg34
g183
sg36
S'2010'
p647
sg38
g183
sg39
g183
sg41
g183
sg42
g183
ssg61
(dp648
g5
S'30'
p649
sg7
g61
sg9
g10
sg11
g10
sg13
S'@MIA'
p650
sg15
g16
sg17
g10
sg18
g25
sg19
g20
sg21
g25
sg22
S'72.9'
p651
sg24
g149
sg26
S'27.0'
p652
sg28
S'10/04'
p653
sg30
S'100.0'
p654
sg32
S'Stephen Gostkowski'
p655
sg34
S'W41-14'
p656
sg36
S'2010'
p657
sg38
g20
sg39
S'100.0'
p658
sg41
g25
sg42
g20
ssg149
(dp659
g5
S'40'
p660
sg7
g149
sg9
g25
sg11
g12
sg13
S'@SD'
p661
sg15
g16
sg17
g12
sg18
g16
sg19
g20
sg21
g10
sg22
S'72.3'
p662
sg24
g49
sg26
S'27.2'
p663
sg28
S'10/24'
p664
sg30
S'100.0'
p665
sg32
S'Stephen Gostkowski'
p666
sg34
S'W23-20'
p667
sg36
S'2010'
p668
sg38
g20
sg39
S'100.0'
p669
sg41
g10
sg42
g20
ssg49
(dp670
g5
S'38'
p671
sg7
g49
sg9
g12
sg11
g12
sg13
S'BAL'
p672
sg15
g16
sg17
g12
sg18
g12
sg19
g20
sg21
g10
sg22
S'72.2'
p673
sg24
g49
sg26
S'18.7'
p674
sg28
S'10/17'
p675
sg30
S'100.0'
p676
sg32
S'Stephen Gostkowski'
p677
sg34
S'W23-20'
p678
sg36
S'2010'
p679
sg38
g20
sg39
S'100.0'
p680
sg41
g10
sg42
g20
ssg163
(dp681
g5
g20
sg7
g163
sg9
g10
sg11
g20
sg13
S'@CLE'
p682
sg15
g16
sg17
g20
sg18
g20
sg19
g20
sg21
g16
sg22
S'54.5'
p683
sg24
g10
sg26
S'23.0'
p684
sg28
S'11/07'
p685
sg30
S'100.0'
p686
sg32
S'Stephen Gostkowski'
p687
sg34
S'L14-34'
p688
sg36
S'2010'
p689
sg38
g20
sg39
S'--'
p690
sg41
g16
sg42
g20
ssg89
(dp691
g5
g20
sg7
g89
sg9
g10
sg11
g20
sg13
S'MIN'
p692
sg15
g16
sg17
g20
sg18
g16
sg19
g20
sg21
g61
sg22
S'56.0'
p693
sg24
g25
sg26
S'15.5'
p694
sg28
S'10/31'
p695
sg30
S'100.0'
p696
sg32
S'Stephen Gostkowski'
p697
sg34
S'W28-18'
p698
sg36
S'2010'
p699
sg38
g20
sg39
S'--'
p700
sg41
g61
sg42
g20
sssS'2013'
p701
(dp702
g3
(dp703
g5
S'42'
p704
sg7
S'11'
p705
sg9
g12
sg11
g10
sg13
S'@CAR'
p706
sg15
g16
sg17
g10
sg18
g10
sg19
g20
sg21
g10
sg22
S'66.2'
p707
sg24
g25
sg26
S'17.7'
p708
sg28
S'11/18'
p709
sg30
S'100.0'
p710
sg32
S'Stephen Gostkowski'
p711
sg34
S'L20-24'
p712
sg36
S'2013'
p713
sg38
g20
sg39
S'100.0'
p714
sg41
g10
sg42
g20
ssg43
(dp715
g5
g183
sg7
S'10'
p716
sg9
g183
sg11
g183
sg13
g183
sg15
g183
sg17
g183
sg18
g183
sg19
g183
sg21
g183
sg22
g183
sg24
g183
sg26
g183
sg28
S'Bye'
p717
sg30
g183
sg32
S'Stephen Gostkowski'
p718
sg34
g183
sg36
S'2013'
p719
sg38
g183
sg39
g183
sg41
g183
sg42
g183
ssg57
(dp720
g5
S'53'
p721
sg7
S'13'
p722
sg9
g10
sg11
g12
sg13
S'@HOU'
p723
sg15
g16
sg17
g10
sg18
g25
sg19
g20
sg21
g61
sg22
S'69.6'
p724
sg24
g149
sg26
S'35.5'
p725
sg28
S'12/01'
p726
sg30
S'100.0'
p727
sg32
S'Stephen Gostkowski'
p728
sg34
S'W34-31'
p729
sg36
S'2013'
p730
sg38
g20
sg39
S'66.7'
p731
sg41
g61
sg42
g20
ssg70
(dp732
g5
S'31'
p733
sg7
S'12'
p734
sg9
g12
sg11
g10
sg13
S'DEN'
p735
sg15
g16
sg17
g10
sg18
g61
sg19
g20
sg21
g61
sg22
S'61.7'
p736
sg24
g149
sg26
S'12.0'
p737
sg28
S'11/24'
p738
sg30
S'100.0'
p739
sg32
S'Stephen Gostkowski'
p740
sg34
S'W34-31'
p741
sg36
S'2013'
p742
sg38
g20
sg39
S'100.0'
p743
sg41
g61
sg42
g20
ssg83
(dp744
g5
S'23'
p745
sg7
S'15'
p746
sg9
g10
sg11
g12
sg13
S'@MIA'
p747
sg15
g16
sg17
g10
sg18
g10
sg19
g20
sg21
g10
sg22
S'63.0'
p748
sg24
g25
sg26
S'12.5'
p749
sg28
S'12/15'
p750
sg30
S'100.0'
p751
sg32
S'Stephen Gostkowski'
p752
sg34
S'L20-24'
p753
sg36
S'2013'
p754
sg38
g20
sg39
S'66.7'
p755
sg41
g10
sg42
g20
ssg97
(dp756
g5
S'50'
p757
sg7
S'14'
p758
sg9
g12
sg11
g10
sg13
S'CLE'
p759
sg15
g16
sg17
g10
sg18
g10
sg19
g20
sg21
g16
sg22
S'55.5'
p760
sg24
g49
sg26
S'20.7'
p761
sg28
S'12/08'
p762
sg30
S'100.0'
p763
sg32
S'Stephen Gostkowski'
p764
sg34
S'W27-26'
p765
sg36
S'2013'
p766
sg38
g20
sg39
S'100.0'
p767
sg41
g16
sg42
g20
ssg110
(dp768
g5
S'43'
p769
sg7
S'17'
p770
sg9
g16
sg11
g61
sg13
S'BUF'
p771
sg15
g16
sg17
g61
sg18
g49
sg19
g20
sg21
g10
sg22
S'64.7'
p772
sg24
g149
sg26
S'28.0'
p773
sg28
S'12/29'
p774
sg30
S'100.0'
p775
sg32
S'Stephen Gostkowski'
p776
sg34
S'W34-20'
p777
sg36
S'2013'
p778
sg38
g20
sg39
S'100.0'
p779
sg41
g10
sg42
g20
ssg123
(dp780
g5
S'45'
p781
sg7
S'16'
p782
sg9
g10
sg11
g10
sg13
S'@BAL'
p783
sg15
g16
sg17
g10
sg18
g49
sg19
g20
sg21
g25
sg22
S'67.6'
p784
sg24
g89
sg26
S'30.5'
p785
sg28
S'12/22'
p786
sg30
S'100.0'
p787
sg32
S'Stephen Gostkowski'
p788
sg34
S'W41-7'
p789
sg36
S'2013'
p790
sg38
g20
sg39
S'100.0'
p791
sg41
g25
sg42
g20
ssg16
(dp792
g5
S'48'
p793
sg7
g16
sg9
g16
sg11
g12
sg13
S'@BUF'
p794
sg15
g16
sg17
g12
sg18
g25
sg19
g20
sg21
g10
sg22
S'68.7'
p795
sg24
g49
sg26
S'19.0'
p796
sg28
S'09/08'
p797
sg30
S'100.0'
p798
sg32
S'Stephen Gostkowski'
p799
sg34
S'W23-21'
p800
sg36
S'2013'
p801
sg38
g20
sg39
S'100.0'
p802
sg41
g10
sg42
g20
ssg12
(dp803
g5
S'53'
p804
sg7
g12
sg9
g20
sg11
g12
sg13
S'TB'
p805
sg15
g16
sg17
g12
sg18
g25
sg19
g20
sg21
g10
sg22
S'65.0'
p806
sg24
g25
sg26
S'--'
p807
sg28
S'09/22'
p808
sg30
S'100.0'
p809
sg32
S'Stephen Gostkowski'
p810
sg34
S'W23-3'
p811
sg36
S'2013'
p812
sg38
g20
sg39
S'100.0'
p813
sg41
g10
sg42
g20
ssg10
(dp814
g5
S'30'
p815
sg7
g10
sg9
g20
sg11
g12
sg13
S'NYJ'
p816
sg15
g16
sg17
g10
sg18
g61
sg19
g20
sg21
g16
sg22
S'65.0'
p817
sg24
g61
sg26
S'--'
p818
sg28
S'09/12'
p819
sg30
S'100.0'
p820
sg32
S'Stephen Gostkowski'
p821
sg34
S'W13-10'
p822
sg36
S'2013'
p823
sg38
g20
sg39
S'66.7'
p824
sg41
g16
sg42
g20
ssg25
(dp825
g5
S'42'
p826
sg7
g25
sg9
g16
sg11
g10
sg13
S'@CIN'
p827
sg15
g16
sg17
g10
sg18
g10
sg19
g20
sg21
g20
sg22
S'65.3'
p828
sg24
g12
sg26
S'29.0'
p829
sg28
S'10/06'
p830
sg30
S'--'
p831
sg32
S'Stephen Gostkowski'
p832
sg34
S'L6-13'
p833
sg36
S'2013'
p834
sg38
g20
sg39
S'100.0'
p835
sg41
g20
sg42
g20
ssg61
(dp836
g5
S'49'
p837
sg7
g61
sg9
g16
sg11
g12
sg13
S'@ATL'
p838
sg15
g16
sg17
g12
sg18
g49
sg19
g20
sg21
g12
sg22
S'65.4'
p839
sg24
g149
sg26
S'29.0'
p840
sg28
S'09/29'
p841
sg30
S'100.0'
p842
sg32
S'Stephen Gostkowski'
p843
sg34
S'W30-23'
p844
sg36
S'2013'
p845
sg38
g20
sg39
S'100.0'
p846
sg41
g12
sg42
g20
ssg149
(dp847
g5
S'44'
p848
sg7
g149
sg9
g16
sg11
g10
sg13
S'@NYJ'
p849
sg15
g16
sg17
g10
sg18
g25
sg19
g20
sg21
g12
sg22
S'65.3'
p850
sg24
g49
sg26
S'17.0'
p851
sg28
S'10/20'
p852
sg30
S'100.0'
p853
sg32
S'Stephen Gostkowski'
p854
sg34
S'L27-30'
p855
sg36
S'2013'
p856
sg38
g20
sg39
S'100.0'
p857
sg41
g12
sg42
g20
ssg49
(dp858
g5
S'54'
p859
sg7
g49
sg9
g12
sg11
g12
sg13
S'NO'
p860
sg15
g16
sg17
g12
sg18
g61
sg19
g20
sg21
g12
sg22
S'65.6'
p861
sg24
g149
sg26
S'17.7'
p862
sg28
S'10/13'
p863
sg30
S'100.0'
p864
sg32
S'Stephen Gostkowski'
p865
sg34
S'W30-27'
p866
sg36
S'2013'
p867
sg38
g20
sg39
S'100.0'
p868
sg41
g12
sg42
g20
ssg163
(dp869
g5
S'32'
p870
sg7
g163
sg9
g49
sg11
g10
sg13
S'PIT'
p871
sg15
g16
sg17
g10
sg18
g61
sg19
g20
sg21
g149
sg22
S'61.4'
p872
sg24
S'10'
p873
sg26
S'21.5'
p874
sg28
S'11/03'
p875
sg30
S'100.0'
p876
sg32
S'Stephen Gostkowski'
p877
sg34
S'W55-31'
p878
sg36
S'2013'
p879
sg38
g20
sg39
S'100.0'
p880
sg41
g149
sg42
g20
ssg89
(dp881
g5
S'48'
p882
sg7
g89
sg9
g12
sg11
g10
sg13
S'MIA'
p883
sg15
g16
sg17
g10
sg18
g12
sg19
g20
sg21
g12
sg22
S'65.0'
p884
sg24
g49
sg26
S'17.3'
p885
sg28
S'10/27'
p886
sg30
S'100.0'
p887
sg32
S'Stephen Gostkowski'
p888
sg34
S'W27-17'
p889
sg36
S'2013'
p890
sg38
g20
sg39
S'100.0'
p891
sg41
g12
sg42
g20
sssS'2012'
p892
(dp893
g3
(dp894
g5
S'31'
p895
sg7
S'11'
p896
sg9
g149
sg11
g10
sg13
S'IND'
p897
sg15
g16
sg17
g16
sg18
g12
sg19
g20
sg21
g89
sg22
S'63.8'
p898
sg24
S'10'
p899
sg26
S'14.9'
p900
sg28
S'11/18'
p901
sg30
S'100.0'
p902
sg32
S'Stephen Gostkowski'
p903
sg34
S'W59-24'
p904
sg36
S'2012'
p905
sg38
g20
sg39
S'50.0'
p906
sg41
g89
sg42
g20
ssg43
(dp907
g5
S'48'
p908
sg7
S'10'
p909
sg9
g10
sg11
g12
sg13
S'BUF'
p910
sg15
g16
sg17
g12
sg18
g49
sg19
g20
sg21
g61
sg22
S'67.9'
p911
sg24
g89
sg26
S'17.0'
p912
sg28
S'11/11'
p913
sg30
S'100.0'
p914
sg32
S'Stephen Gostkowski'
p915
sg34
S'W37-31'
p916
sg36
S'2012'
p917
sg38
g20
sg39
S'100.0'
p918
sg41
g61
sg42
g20
ssg57
(dp919
g5
S'43'
p920
sg7
S'13'
p921
sg9
g16
sg11
g61
sg13
S'@MIA'
p922
sg15
g16
sg17
g12
sg18
g25
sg19
g20
sg21
g10
sg22
S'66.3'
p923
sg24
g49
sg26
S'17.0'
p924
sg28
S'12/02'
p925
sg30
S'100.0'
p926
sg32
S'Stephen Gostkowski'
p927
sg34
S'W23-16'
p928
sg36
S'2012'
p929
sg38
g20
sg39
S'75.0'
p930
sg41
g10
sg42
g20
ssg70
(dp931
g5
g20
sg7
S'12'
p932
sg9
g149
sg11
g16
sg13
S'@NYJ'
p933
sg15
g16
sg17
g20
sg18
g16
sg19
g20
sg21
g149
sg22
S'66.4'
p934
sg24
g89
sg26
S'24.0'
p935
sg28
S'11/22'
p936
sg30
S'100.0'
p937
sg32
S'Stephen Gostkowski'
p938
sg34
S'W49-19'
p939
sg36
S'2012'
p940
sg38
g20
sg39
S'0.0'
p941
sg41
g149
sg42
g20
ssg83
(dp942
g5
S'41'
p943
sg7
S'15'
p944
sg9
g49
sg11
g10
sg13
S'SF'
p945
sg15
g16
sg17
g10
sg18
g16
sg19
g20
sg21
g61
sg22
S'57.1'
p946
sg24
g149
sg26
S'25.7'
p947
sg28
S'12/16'
p948
sg30
S'100.0'
p949
sg32
S'Stephen Gostkowski'
p950
sg34
S'L34-41'
p951
sg36
S'2012'
p952
sg38
g20
sg39
S'100.0'
p953
sg41
g61
sg42
g20
ssg97
(dp954
g5
g20
sg7
S'14'
p955
sg9
g10
sg11
g20
sg13
S'HOU'
p956
sg15
g16
sg17
g20
sg18
g25
sg19
g20
sg21
g49
sg22
S'69.7'
p957
sg24
g149
sg26
S'19.5'
p958
sg28
S'12/10'
p959
sg30
S'100.0'
p960
sg32
S'Stephen Gostkowski'
p961
sg34
S'W42-14'
p962
sg36
S'2012'
p963
sg38
g20
sg39
S'--'
p964
sg41
g49
sg42
g20
ssg110
(dp965
g5
g20
sg7
S'17'
p966
sg9
g12
sg11
g20
sg13
S'MIA'
p967
sg15
g16
sg17
g20
sg18
g10
sg19
g20
sg21
g61
sg22
S'64.6'
p968
sg24
g25
sg26
S'14.0'
p969
sg28
S'12/30'
p970
sg30
S'100.0'
p971
sg32
S'Stephen Gostkowski'
p972
sg34
S'W28-0'
p973
sg36
S'2012'
p974
sg38
g20
sg39
S'--'
p975
sg41
g61
sg42
g20
ssg123
(dp976
g5
S'49'
p977
sg7
S'16'
p978
sg9
g25
sg11
g12
sg13
S'@JAC'
p979
sg15
g16
sg17
g12
sg18
g16
sg19
g20
sg21
g10
sg22
S'60.5'
p980
sg24
g49
sg26
S'19.4'
p981
sg28
S'12/23'
p982
sg30
S'100.0'
p983
sg32
S'Stephen Gostkowski'
p984
sg34
S'W23-16'
p985
sg36
S'2012'
p986
sg38
g20
sg39
S'100.0'
p987
sg41
g10
sg42
g20
ssg16
(dp988
g5
S'31'
p989
sg7
g16
sg9
g61
sg11
g10
sg13
S'@TEN'
p990
sg15
g16
sg17
g10
sg18
g12
sg19
g20
sg21
g61
sg22
S'66.9'
p991
sg24
g149
sg26
S'24.5'
p992
sg28
S'09/09'
p993
sg30
S'100.0'
p994
sg32
S'Stephen Gostkowski'
p995
sg34
S'W34-13'
p996
sg36
S'2012'
p997
sg38
g20
sg39
S'100.0'
p998
sg41
g61
sg42
g20
ssg12
(dp999
g5
S'49'
p1000
sg7
g12
sg9
g61
sg11
g12
sg13
S'@BAL'
p1001
sg15
g16
sg17
g12
sg18
g12
sg19
g20
sg21
g12
sg22
S'64.1'
p1002
sg24
g149
sg26
S'20.3'
p1003
sg28
S'09/23'
p1004
sg30
S'100.0'
p1005
sg32
S'Stephen Gostkowski'
p1006
sg34
S'L30-31'
p1007
sg36
S'2012'
p1008
sg38
g20
sg39
S'100.0'
p1009
sg41
g12
sg42
g20
ssg10
(dp1010
g5
S'53'
p1011
sg7
g10
sg9
g10
sg11
g25
sg13
S'ARI'
p1012
sg15
g16
sg17
g61
sg18
g61
sg19
g20
sg21
g20
sg22
S'64.5'
p1013
sg24
g49
sg26
S'25.0'
p1014
sg28
S'09/16'
p1015
sg30
S'--'
p1016
sg32
S'Stephen Gostkowski'
p1017
sg34
S'L18-20'
p1018
sg36
S'2012'
p1019
sg38
g20
sg39
S'80.0'
p1020
sg41
g20
sg42
g20
ssg25
(dp1021
g5
S'23'
p1022
sg7
g25
sg9
g61
sg11
g16
sg13
S'DEN'
p1023
sg15
g16
sg17
g16
sg18
g10
sg19
g20
sg21
g61
sg22
S'61.3'
p1024
sg24
g49
sg26
S'15.3'
p1025
sg28
S'10/07'
p1026
sg30
S'100.0'
p1027
sg32
S'Stephen Gostkowski'
p1028
sg34
S'W31-21'
p1029
sg36
S'2012'
p1030
sg38
g20
sg39
S'100.0'
p1031
sg41
g61
sg42
g20
ssg61
(dp1032
g5
S'30'
p1033
sg7
g61
sg9
g16
sg11
g12
sg13
S'@BUF'
p1034
sg15
g16
sg17
g16
sg18
g89
sg19
g20
sg21
g149
sg22
S'67.4'
p1035
sg24
g163
sg26
S'26.0'
p1036
sg28
S'09/30'
p1037
sg30
S'100.0'
p1038
sg32
S'Stephen Gostkowski'
p1039
sg34
S'W52-28'
p1040
sg36
S'2012'
p1041
sg38
g20
sg39
S'33.3'
p1042
sg41
g149
sg42
g20
ssg149
(dp1043
g5
S'48'
p1044
sg7
g149
sg9
g61
sg11
g10
sg13
S'NYJ'
p1045
sg15
g16
sg17
g10
sg18
g16
sg19
g20
sg21
g12
sg22
S'66.6'
p1046
sg24
g25
sg26
S'29.0'
p1047
sg28
S'10/21'
p1048
sg30
S'100.0'
p1049
sg32
S'Stephen Gostkowski'
p1050
sg34
S'W29-26'
p1051
sg36
S'2012'
p1052
sg38
g20
sg39
S'100.0'
p1053
sg41
g12
sg42
g20
ssg49
(dp1054
g5
S'35'
p1055
sg7
g49
sg9
g10
sg11
g12
sg13
S'@SEA'
p1056
sg15
g16
sg17
g12
sg18
g61
sg19
g20
sg21
g10
sg22
S'66.3'
p1057
sg24
g49
sg26
S'20.0'
p1058
sg28
S'10/14'
p1059
sg30
S'100.0'
p1060
sg32
S'Stephen Gostkowski'
p1061
sg34
S'L23-24'
p1062
sg36
S'2012'
p1063
sg38
g20
sg39
S'100.0'
p1064
sg41
g10
sg42
g20
ssg163
(dp1065
g5
g183
sg7
g163
sg9
g183
sg11
g183
sg13
g183
sg15
g183
sg17
g183
sg18
g183
sg19
g183
sg21
g183
sg22
g183
sg24
g183
sg26
g183
sg28
S'Bye'
p1066
sg30
g183
sg32
S'Stephen Gostkowski'
p1067
sg34
g183
sg36
S'2012'
p1068
sg38
g183
sg39
g183
sg41
g183
sg42
g183
ssg89
(dp1069
g5
S'26'
p1070
sg7
g89
sg9
g25
sg11
g16
sg13
S'@STL'
p1071
sg15
g16
sg17
g16
sg18
g12
sg19
g20
sg21
g49
sg22
S'65.0'
p1072
sg24
g89
sg26
S'18.6'
p1073
sg28
S'10/28'
p1074
sg30
S'100.0'
p1075
sg32
S'Stephen Gostkowski'
p1076
sg34
S'W45-7'
p1077
sg36
S'2012'
p1078
sg38
g20
sg39
S'100.0'
p1079
sg41
g49
sg42
g20
sss.