(dp0
S'2016'
p1
(dp2
S'K'
p3
(dp4
S'MIN'
p5
F4.0
sS'MIA'
p6
F6.0
sS'CAR'
p7
F3.0
sS'ATL'
p8
F7.0
sS'OAK'
p9
F10.0
sS'CIN'
p10
F10.0
sS'NYJ'
p11
F11.0
sS'DEN'
p12
F8.0
sS'BAL'
p13
F1.0
sS'NYG'
p14
F13.0
sS'DET'
p15
F9.0
sS'TEN'
p16
F13.0
sS'NO'
p17
F7.0
sS'DAL'
p18
F2.0
sS'NE'
p19
F3.0
sS'SEA'
p20
F4.0
sS'CHI'
p21
F11.0
sS'BUF'
p22
F7.0
sS'STL'
p23
F0.0
sS'CLE'
p24
F9.0
sS'TB'
p25
F10.0
sS'HOU'
p26
F2.0
sS'GB'
p27
F11.0
sS'WAS'
p28
F8.0
sS'JAC'
p29
F9.0
sS'KC'
p30
F9.0
sS'PHI'
p31
F4.0
sS'PIT'
p32
F10.0
sS'IND'
p33
F7.0
sS'ARI'
p34
F11.0
sS'SF'
p35
F0.0
sS'SD'
p36
F9.0
ssS'QB'
p37
(dp38
g5
F16.74
sg6
F11.92
sg7
F9.120000000000001
sg8
F25.540000000000003
sg9
F31.42
sg10
F15.060000000000002
sg11
F17.34
sg12
F21.16
sg13
F5.540000000000001
sg14
F10.280000000000001
sg15
F33.5
sg16
F10.24
sg17
F18.36
sg18
F18.28
sg19
F18.94
sg20
F15.14
sg21
F16.64
sg22
F12.02
sg23
F0.0
sg24
F19.220000000000002
sg25
F22.36
sg26
F11.84
sg27
F15.0
sg28
F21.8
sg29
F23.560000000000002
sg30
F14.620000000000001
sg31
F9.3
sg32
F9.96
sg33
F26.1
sg34
F13.760000000000002
sg35
F0.0
sg36
F28.02
ssS'WR'
p39
(dp40
g5
F22.8
sg6
F32.7
sg7
F14.200000000000001
sg8
F27.7
sg9
F66.9
sg10
F30.299999999999997
sg11
F45.1
sg12
F24.1
sg13
F10.3
sg14
F18.8
sg15
F37.7
sg16
F24.0
sg17
F37.800000000000004
sg18
F32.5
sg19
F36.9
sg20
F21.200000000000003
sg21
F34.2
sg22
F30.299999999999997
sg23
F0.0
sg24
F37.0
sg25
F31.6
sg26
F31.1
sg27
F24.299999999999997
sg28
F50.1
sg29
F35.8
sg30
F25.200000000000003
sg31
F16.1
sg32
F31.5
sg33
F24.6
sg34
F35.8
sg35
F0.0
sg36
F30.0
ssS'RB'
p41
(dp42
g5
F25.6
sg6
F17.0
sg7
F36.6
sg8
F23.7
sg9
F20.6
sg10
F23.8
sg11
F13.1
sg12
F9.8
sg13
F14.7
sg14
F17.6
sg15
F16.1
sg16
F5.8
sg17
F41.199999999999996
sg18
F15.900000000000002
sg19
F23.2
sg20
F15.8
sg21
F15.600000000000001
sg22
F15.200000000000001
sg23
F0.0
sg24
F22.6
sg25
F15.5
sg26
F13.7
sg27
F15.6
sg28
F32.7
sg29
F10.100000000000001
sg30
F38.2
sg31
F23.199999999999996
sg32
F14.700000000000001
sg33
F51.900000000000006
sg34
F18.3
sg35
F0.0
sg36
F34.7
ssS'TE'
p43
(dp44
g5
F5.7
sg6
F5.2
sg7
F4.800000000000001
sg8
F20.9
sg9
F1.1
sg10
F0.0
sg11
F6.9
sg12
F10.8
sg13
F5.0
sg14
F13.700000000000001
sg15
F30.3
sg16
F8.5
sg17
F4.0
sg18
F11.1
sg19
F6.1000000000000005
sg20
F1.6
sg21
F7.800000000000001
sg22
F6.4
sg23
F0.0
sg24
F10.4
sg25
F10.000000000000002
sg26
F2.9000000000000004
sg27
F20.700000000000003
sg28
F5.6
sg29
F3.9000000000000004
sg30
F6.0
sg31
F0.0
sg32
F12.4
sg33
F14.100000000000001
sg34
F2.9000000000000004
sg35
F0.0
sg36
F13.4
sss.