(dp0
S'2016'
p1
(dp2
S'K'
p3
(dp4
S'MIN'
p5
F4.0
sS'MIA'
p6
F6.0
sS'CAR'
p7
F3.0
sS'ATL'
p8
F7.0
sS'OAK'
p9
F10.0
sS'CIN'
p10
F10.0
sS'NYJ'
p11
F11.0
sS'DEN'
p12
F8.0
sS'BAL'
p13
F1.0
sS'NYG'
p14
F13.0
sS'DET'
p15
F9.0
sS'TEN'
p16
F13.0
sS'NO'
p17
F7.0
sS'DAL'
p18
F2.0
sS'NE'
p19
F3.0
sS'SEA'
p20
F4.0
sS'CHI'
p21
F11.0
sS'BUF'
p22
F7.0
sS'STL'
p23
F0.0
sS'CLE'
p24
F9.0
sS'TB'
p25
F10.0
sS'HOU'
p26
F2.0
sS'GB'
p27
F11.0
sS'WAS'
p28
F8.0
sS'JAC'
p29
F9.0
sS'KC'
p30
F9.0
sS'PHI'
p31
F4.0
sS'PIT'
p32
F10.0
sS'IND'
p33
F7.0
sS'ARI'
p34
F11.0
sS'SF'
p35
F0.0
sS'SD'
p36
F9.0
ssS'QB'
p37
(dp38
g5
F16.74
sg6
F11.92
sg7
F9.120000000000001
sg8
F25.540000000000003
sg9
F31.42
sg10
F15.060000000000002
sg11
F17.34
sg12
F21.16
sg13
F5.540000000000001
sg14
F10.280000000000001
sg15
F33.5
sg16
F10.24
sg17
F18.36
sg18
F18.28
sg19
F18.94
sg20
F15.14
sg21
F16.64
sg22
F12.02
sg23
F0.0
sg24
F19.220000000000002
sg25
F22.36
sg26
F11.84
sg27
F15.0
sg28
F21.8
sg29
F23.560000000000002
sg30
F14.620000000000001
sg31
F9.3
sg32
F9.96
sg33
F26.1
sg34
F13.760000000000002
sg35
F0.0
sg36
F28.02
ssS'WR'
p39
(dp40
g5
F15.3
sg6
F23.700000000000003
sg7
F9.700000000000001
sg8
F22.7
sg9
F56.400000000000006
sg10
F24.299999999999997
sg11
F35.6
sg12
F19.6
sg13
F6.3
sg14
F12.3
sg15
F29.700000000000003
sg16
F17.5
sg17
F30.300000000000004
sg18
F27.0
sg19
F29.900000000000002
sg20
F14.700000000000001
sg21
F28.700000000000003
sg22
F24.299999999999997
sg23
F0.0
sg24
F30.499999999999996
sg25
F26.6
sg26
F25.6
sg27
F17.799999999999997
sg28
F42.1
sg29
F27.8
sg30
F17.200000000000003
sg31
F13.600000000000001
sg32
F22.0
sg33
F17.1
sg34
F28.3
sg35
F0.0
sg36
F23.5
ssS'RB'
p41
(dp42
g5
F22.1
sg6
F14.000000000000002
sg7
F34.1
sg8
F19.700000000000003
sg9
F17.6
sg10
F20.300000000000004
sg11
F12.1
sg12
F8.8
sg13
F12.2
sg14
F16.6
sg15
F12.100000000000001
sg16
F5.3
sg17
F38.199999999999996
sg18
F13.9
sg19
F20.2
sg20
F13.8
sg21
F13.100000000000001
sg22
F11.700000000000001
sg23
F0.0
sg24
F21.6
sg25
F12.5
sg26
F12.7
sg27
F13.6
sg28
F29.700000000000003
sg29
F9.100000000000001
sg30
F35.7
sg31
F19.699999999999996
sg32
F13.200000000000001
sg33
F46.900000000000006
sg34
F15.8
sg35
F0.0
sg36
F28.2
ssS'TE'
p43
(dp44
g5
F4.2
sg6
F3.7
sg7
F2.8000000000000003
sg8
F18.4
sg9
F0.6000000000000001
sg10
F0.0
sg11
F5.9
sg12
F7.300000000000001
sg13
F4.0
sg14
F8.700000000000001
sg15
F26.8
sg16
F6.5
sg17
F2.5
sg18
F9.1
sg19
F4.1000000000000005
sg20
F0.6000000000000001
sg21
F4.800000000000001
sg22
F4.4
sg23
F0.0
sg24
F6.9
sg25
F6.500000000000001
sg26
F1.4000000000000001
sg27
F17.200000000000003
sg28
F3.1
sg29
F2.9000000000000004
sg30
F4.0
sg31
F0.0
sg32
F8.4
sg33
F11.100000000000001
sg34
F1.4000000000000001
sg35
F0.0
sg36
F9.4
sss.