(dp0
S'2016'
p1
(dp2
S'K'
p3
(dp4
S'MIN'
p5
F3.0
sS'MIA'
p6
F6.5
sS'CAR'
p7
F6.0
sS'ATL'
p8
F5.5
sS'OAK'
p9
F9.5
sS'CIN'
p10
F8.0
sS'NYJ'
p11
F9.0
sS'DEN'
p12
F8.0
sS'BAL'
p13
F1.5
sS'NYG'
p14
F10.0
sS'DET'
p15
F6.5
sS'TEN'
p16
F10.0
sS'NO'
p17
F8.5
sS'DAL'
p18
F6.5
sS'NE'
p19
F4.5
sS'SEA'
p20
F6.5
sS'CHI'
p21
F11.0
sS'BUF'
p22
F10.0
sS'STL'
p23
F7.0
sS'CLE'
p24
F10.0
sS'TB'
p25
F10.0
sS'HOU'
p26
F7.0
sS'GB'
p27
F8.0
sS'WAS'
p28
F8.5
sS'JAC'
p29
F17.0
sS'KC'
p30
F11.0
sS'PHI'
p31
F3.0
sS'PIT'
p32
F10.0
sS'IND'
p33
F10.5
sS'ARI'
p34
F6.0
sS'SF'
p35
F8.0
sS'SD'
p36
F5.5
ssS'QB'
p37
(dp38
g5
F17.08
sg6
F19.040000000000003
sg7
F14.92
sg8
F25.25
sg9
F28.630000000000003
sg10
F17.41
sg11
F21.160000000000004
sg12
F15.62
sg13
F9.969999999999999
sg14
F12.4
sg15
F25.01
sg16
F12.870000000000001
sg17
F15.34
sg18
F18.42
sg19
F20.96
sg20
F12.600000000000001
sg21
F14.620000000000001
sg22
F16.54
sg23
F26.660000000000004
sg24
F17.700000000000003
sg25
F23.48
sg26
F7.74
sg27
F17.07
sg28
F20.04
sg29
F47.260000000000005
sg30
F12.52
sg31
F7.3500000000000005
sg32
F14.65
sg33
F17.72
sg34
F9.190000000000001
sg35
F16.01
sg36
F23.29
ssS'WR'
p39
(dp40
g5
F16.75
sg6
F26.750000000000007
sg7
F13.950000000000001
sg8
F24.9
sg9
F43.849999999999994
sg10
F20.049999999999997
sg11
F35.35000000000001
sg12
F14.15
sg13
F17.35
sg14
F18.75
sg15
F21.95
sg16
F20.700000000000003
sg17
F28.85
sg18
F24.8
sg19
F30.950000000000003
sg20
F15.25
sg21
F20.85
sg22
F32.35
sg23
F29.900000000000006
sg24
F28.55
sg25
F31.35
sg26
F17.85
sg27
F23.7
sg28
F29.900000000000002
sg29
F64.0
sg30
F22.5
sg31
F16.450000000000003
sg32
F19.25
sg33
F17.8
sg34
F27.599999999999998
sg35
F23.150000000000002
sg36
F22.200000000000003
ssS'RB'
p41
(dp42
g5
F14.5
sg6
F18.050000000000004
sg7
F20.200000000000003
sg8
F23.800000000000004
sg9
F15.350000000000001
sg10
F20.700000000000003
sg11
F14.450000000000001
sg12
F15.85
sg13
F19.300000000000004
sg14
F12.45
sg15
F15.749999999999998
sg16
F9.350000000000001
sg17
F23.5
sg18
F16.1
sg19
F15.7
sg20
F10.850000000000001
sg21
F17.599999999999998
sg22
F20.45
sg23
F36.4
sg24
F16.35
sg25
F19.65
sg26
F13.75
sg27
F9.4
sg28
F27.900000000000006
sg29
F31.500000000000007
sg30
F24.300000000000004
sg31
F15.499999999999998
sg32
F17.4
sg33
F34.550000000000004
sg34
F11.9
sg35
F10.75
sg36
F20.45
ssS'TE'
p43
(dp44
g5
F4.9
sg6
F10.549999999999999
sg7
F9.05
sg8
F15.899999999999999
sg9
F12.3
sg10
F9.0
sg11
F4.300000000000001
sg12
F6.75
sg13
F3.85
sg14
F5.800000000000001
sg15
F20.950000000000003
sg16
F5.9
sg17
F2.95
sg18
F11.400000000000002
sg19
F8.55
sg20
F3.3500000000000005
sg21
F7.8500000000000005
sg22
F2.95
sg23
F13.700000000000001
sg24
F9.650000000000002
sg25
F4.800000000000001
sg26
F2.4000000000000004
sg27
F13.15
sg28
F5.55
sg29
F10.399999999999999
sg30
F3.05
sg31
F1.6500000000000001
sg32
F6.4
sg33
F7.850000000000001
sg34
F2.2
sg35
F9.950000000000001
sg36
F12.100000000000001
sss.