(dp0
I2016
(dp1
S'K'
p2
(dp3
S'MIN'
p4
F3.0
sS'MIA'
p5
F6.5
sS'CAR'
p6
F6.0
sS'ATL'
p7
F5.5
sS'OAK'
p8
F9.5
sS'CIN'
p9
F8.0
sS'NYJ'
p10
F9.0
sS'DEN'
p11
F8.0
sS'BAL'
p12
F1.5
sS'NYG'
p13
F10.0
sS'DET'
p14
F6.5
sS'TEN'
p15
F10.0
sS'NO'
p16
F8.5
sS'DAL'
p17
F6.5
sS'NE'
p18
F4.5
sS'SEA'
p19
F6.5
sS'CHI'
p20
F11.0
sS'BUF'
p21
F10.0
sS'STL'
p22
F7.0
sS'CLE'
p23
F10.0
sS'TB'
p24
F10.0
sS'HOU'
p25
F7.0
sS'GB'
p26
F8.0
sS'WAS'
p27
F8.5
sS'JAC'
p28
F17.0
sS'KC'
p29
F11.0
sS'PHI'
p30
F3.0
sS'PIT'
p31
F10.0
sS'IND'
p32
F10.5
sS'ARI'
p33
F6.0
sS'SF'
p34
F8.0
sS'SD'
p35
F5.5
ssS'QB'
p36
(dp37
g4
F17.08
sg5
F19.040000000000003
sg6
F14.92
sg7
F25.25
sg8
F28.630000000000003
sg9
F17.41
sg10
F21.160000000000004
sg11
F15.62
sg12
F9.969999999999999
sg13
F12.4
sg14
F25.01
sg15
F12.870000000000001
sg16
F15.34
sg17
F18.42
sg18
F20.96
sg19
F12.600000000000001
sg20
F14.620000000000001
sg21
F16.54
sg22
F26.660000000000004
sg23
F17.700000000000003
sg24
F23.48
sg25
F7.74
sg26
F17.07
sg27
F20.04
sg28
F47.260000000000005
sg29
F12.52
sg30
F7.3500000000000005
sg31
F14.65
sg32
F17.72
sg33
F9.190000000000001
sg34
F16.01
sg35
F23.29
ssS'WR'
p38
(dp39
g4
F16.75
sg5
F26.750000000000007
sg6
F13.950000000000001
sg7
F24.9
sg8
F43.849999999999994
sg9
F20.049999999999997
sg10
F35.35000000000001
sg11
F14.15
sg12
F17.35
sg13
F18.75
sg14
F21.95
sg15
F20.700000000000003
sg16
F28.85
sg17
F24.8
sg18
F30.950000000000003
sg19
F15.25
sg20
F20.85
sg21
F32.35
sg22
F29.900000000000006
sg23
F28.55
sg24
F31.35
sg25
F17.85
sg26
F23.7
sg27
F29.900000000000002
sg28
F64.0
sg29
F22.5
sg30
F16.450000000000003
sg31
F19.25
sg32
F17.8
sg33
F27.599999999999998
sg34
F23.150000000000002
sg35
F22.200000000000003
ssS'RB'
p40
(dp41
g4
F14.5
sg5
F18.050000000000004
sg6
F20.200000000000003
sg7
F23.800000000000004
sg8
F15.350000000000001
sg9
F20.700000000000003
sg10
F14.450000000000001
sg11
F15.85
sg12
F19.300000000000004
sg13
F12.45
sg14
F15.749999999999998
sg15
F9.350000000000001
sg16
F23.5
sg17
F16.1
sg18
F15.7
sg19
F10.850000000000001
sg20
F17.599999999999998
sg21
F20.45
sg22
F36.4
sg23
F16.35
sg24
F19.65
sg25
F13.75
sg26
F9.4
sg27
F27.900000000000006
sg28
F31.500000000000007
sg29
F24.300000000000004
sg30
F15.499999999999998
sg31
F17.4
sg32
F34.550000000000004
sg33
F11.9
sg34
F10.75
sg35
F20.45
ssS'TE'
p42
(dp43
g4
F4.9
sg5
F10.549999999999999
sg6
F9.05
sg7
F15.899999999999999
sg8
F12.3
sg9
F9.0
sg10
F4.300000000000001
sg11
F6.75
sg12
F3.85
sg13
F5.800000000000001
sg14
F20.950000000000003
sg15
F5.9
sg16
F2.95
sg17
F11.400000000000002
sg18
F8.55
sg19
F3.3500000000000005
sg20
F7.8500000000000005
sg21
F2.95
sg22
F13.700000000000001
sg23
F9.650000000000002
sg24
F4.800000000000001
sg25
F2.4000000000000004
sg26
F13.15
sg27
F5.55
sg28
F10.399999999999999
sg29
F3.05
sg30
F1.6500000000000001
sg31
F6.4
sg32
F7.850000000000001
sg33
F2.2
sg34
F9.950000000000001
sg35
F12.100000000000001
sss.