(dp0
I2016
(dp1
S'K'
p2
(dp3
S'MIN'
p4
F3.0
sS'MIA'
p5
F6.5
sS'CAR'
p6
F6.0
sS'ATL'
p7
F5.5
sS'OAK'
p8
F9.5
sS'CIN'
p9
F8.0
sS'NYJ'
p10
F9.0
sS'DEN'
p11
F8.0
sS'BAL'
p12
F1.5
sS'NYG'
p13
F10.0
sS'DET'
p14
F6.5
sS'TEN'
p15
F10.0
sS'NO'
p16
F8.5
sS'DAL'
p17
F6.5
sS'NE'
p18
F4.5
sS'SEA'
p19
F6.5
sS'CHI'
p20
F11.0
sS'BUF'
p21
F10.0
sS'STL'
p22
F7.0
sS'CLE'
p23
F10.0
sS'TB'
p24
F10.0
sS'HOU'
p25
F7.0
sS'GB'
p26
F8.0
sS'WAS'
p27
F8.5
sS'JAC'
p28
F17.0
sS'KC'
p29
F11.0
sS'PHI'
p30
F3.0
sS'PIT'
p31
F10.0
sS'IND'
p32
F10.5
sS'ARI'
p33
F6.0
sS'SF'
p34
F8.0
sS'SD'
p35
F5.5
ssS'QB'
p36
(dp37
g4
F17.08
sg5
F19.040000000000003
sg6
F14.92
sg7
F25.25
sg8
F28.630000000000003
sg9
F17.41
sg10
F21.160000000000004
sg11
F15.62
sg12
F9.969999999999999
sg13
F12.4
sg14
F25.01
sg15
F12.870000000000001
sg16
F15.34
sg17
F18.42
sg18
F20.96
sg19
F12.600000000000001
sg20
F14.620000000000001
sg21
F16.54
sg22
F26.660000000000004
sg23
F17.700000000000003
sg24
F23.48
sg25
F7.74
sg26
F17.07
sg27
F20.04
sg28
F47.260000000000005
sg29
F12.52
sg30
F7.3500000000000005
sg31
F14.65
sg32
F17.72
sg33
F9.190000000000001
sg34
F16.01
sg35
F23.29
ssS'WR'
p38
(dp39
g4
F30.75
sg5
F43.75000000000001
sg6
F23.45
sg7
F36.9
sg8
F62.35
sg9
F30.049999999999997
sg10
F49.35
sg11
F22.150000000000002
sg12
F26.85
sg13
F34.75
sg14
F34.449999999999996
sg15
F34.2
sg16
F46.35
sg17
F36.800000000000004
sg18
F47.95
sg19
F27.750000000000004
sg20
F32.85
sg21
F48.85
sg22
F55.9
sg23
F40.050000000000004
sg24
F41.35
sg25
F29.349999999999998
sg26
F37.7
sg27
F44.4
sg28
F90.0
sg29
F36.5
sg30
F25.450000000000003
sg31
F35.25
sg32
F32.3
sg33
F44.6
sg34
F35.65
sg35
F36.2
ssS'RB'
p40
(dp41
g4
F18.5
sg5
F22.549999999999997
sg6
F24.700000000000003
sg7
F32.8
sg8
F19.35
sg9
F26.7
sg10
F17.950000000000003
sg11
F20.85
sg12
F24.300000000000004
sg13
F17.450000000000003
sg14
F23.75
sg15
F11.850000000000001
sg16
F29.5
sg17
F20.1
sg18
F21.699999999999996
sg19
F13.850000000000001
sg20
F21.599999999999998
sg21
F24.950000000000003
sg22
F46.4
sg23
F19.850000000000005
sg24
F24.65
sg25
F16.25
sg26
F13.399999999999999
sg27
F34.400000000000006
sg28
F37.50000000000001
sg29
F28.300000000000004
sg30
F21.0
sg31
F24.9
sg32
F42.050000000000004
sg33
F15.900000000000002
sg34
F14.750000000000002
sg35
F31.950000000000003
ssS'TE'
p42
(dp43
g4
F9.4
sg5
F14.549999999999999
sg6
F12.55
sg7
F23.4
sg8
F17.8
sg9
F12.0
sg10
F7.800000000000001
sg11
F13.25
sg12
F6.85
sg13
F11.8
sg14
F28.450000000000003
sg15
F9.9
sg16
F7.45
sg17
F18.900000000000002
sg18
F13.55
sg19
F6.3500000000000005
sg20
F13.350000000000001
sg21
F5.45
sg22
F20.7
sg23
F18.150000000000002
sg24
F10.3
sg25
F6.4
sg26
F18.15
sg27
F10.55
sg28
F15.399999999999999
sg29
F7.05
sg30
F3.6500000000000004
sg31
F13.4
sg32
F12.350000000000001
sg33
F6.2
sg34
F13.950000000000001
sg35
F19.1
sss.