(dp0
S'2016'
p1
(dp2
S'K'
p3
(dp4
S'MIN'
p5
F3.0
sS'MIA'
p6
F6.5
sS'CAR'
p7
F6.0
sS'ATL'
p8
F5.5
sS'OAK'
p9
F9.5
sS'CIN'
p10
F8.0
sS'NYJ'
p11
F9.0
sS'DEN'
p12
F8.0
sS'BAL'
p13
F1.5
sS'NYG'
p14
F10.0
sS'DET'
p15
F6.5
sS'TEN'
p16
F10.0
sS'NO'
p17
F8.5
sS'DAL'
p18
F6.5
sS'NE'
p19
F4.5
sS'SEA'
p20
F6.5
sS'CHI'
p21
F11.0
sS'BUF'
p22
F10.0
sS'STL'
p23
F7.0
sS'CLE'
p24
F10.0
sS'TB'
p25
F10.0
sS'HOU'
p26
F7.0
sS'GB'
p27
F8.0
sS'WAS'
p28
F8.5
sS'JAC'
p29
F17.0
sS'KC'
p30
F11.0
sS'PHI'
p31
F3.0
sS'PIT'
p32
F10.0
sS'IND'
p33
F10.5
sS'ARI'
p34
F6.0
sS'SF'
p35
F8.0
sS'SD'
p36
F5.5
ssS'QB'
p37
(dp38
g5
F17.08
sg6
F19.040000000000003
sg7
F14.92
sg8
F25.25
sg9
F28.630000000000003
sg10
F17.41
sg11
F21.160000000000004
sg12
F15.62
sg13
F9.969999999999999
sg14
F12.4
sg15
F25.01
sg16
F12.870000000000001
sg17
F15.34
sg18
F18.42
sg19
F20.96
sg20
F12.600000000000001
sg21
F14.620000000000001
sg22
F16.54
sg23
F26.660000000000004
sg24
F17.700000000000003
sg25
F23.48
sg26
F7.74
sg27
F17.07
sg28
F20.04
sg29
F47.260000000000005
sg30
F12.52
sg31
F7.3500000000000005
sg32
F14.65
sg33
F17.72
sg34
F9.190000000000001
sg35
F16.01
sg36
F23.29
ssS'WR'
p39
(dp40
g5
F30.75
sg6
F43.75000000000001
sg7
F23.45
sg8
F36.9
sg9
F62.35
sg10
F30.049999999999997
sg11
F49.35
sg12
F22.150000000000002
sg13
F26.85
sg14
F34.75
sg15
F34.449999999999996
sg16
F34.2
sg17
F46.35
sg18
F36.800000000000004
sg19
F47.95
sg20
F27.750000000000004
sg21
F32.85
sg22
F48.85
sg23
F55.9
sg24
F40.050000000000004
sg25
F41.35
sg26
F29.349999999999998
sg27
F37.7
sg28
F44.4
sg29
F90.0
sg30
F36.5
sg31
F25.450000000000003
sg32
F35.25
sg33
F32.3
sg34
F44.6
sg35
F35.65
sg36
F36.2
ssS'RB'
p41
(dp42
g5
F18.5
sg6
F22.549999999999997
sg7
F24.700000000000003
sg8
F32.8
sg9
F19.35
sg10
F26.7
sg11
F17.950000000000003
sg12
F20.85
sg13
F24.300000000000004
sg14
F17.450000000000003
sg15
F23.75
sg16
F11.850000000000001
sg17
F29.5
sg18
F20.1
sg19
F21.699999999999996
sg20
F13.850000000000001
sg21
F21.599999999999998
sg22
F24.950000000000003
sg23
F46.4
sg24
F19.850000000000005
sg25
F24.65
sg26
F16.25
sg27
F13.399999999999999
sg28
F34.400000000000006
sg29
F37.50000000000001
sg30
F28.300000000000004
sg31
F21.0
sg32
F24.9
sg33
F42.050000000000004
sg34
F15.900000000000002
sg35
F14.750000000000002
sg36
F31.950000000000003
ssS'TE'
p43
(dp44
g5
F9.4
sg6
F14.549999999999999
sg7
F12.55
sg8
F23.4
sg9
F17.8
sg10
F12.0
sg11
F7.800000000000001
sg12
F13.25
sg13
F6.85
sg14
F11.8
sg15
F28.450000000000003
sg16
F9.9
sg17
F7.45
sg18
F18.900000000000002
sg19
F13.55
sg20
F6.3500000000000005
sg21
F13.350000000000001
sg22
F5.45
sg23
F20.7
sg24
F18.150000000000002
sg25
F10.3
sg26
F6.4
sg27
F18.15
sg28
F10.55
sg29
F15.399999999999999
sg30
F7.05
sg31
F3.6500000000000004
sg32
F13.4
sg33
F12.350000000000001
sg34
F6.2
sg35
F13.950000000000001
sg36
F19.1
sss.