(dp0
I2016
(dp1
S'K'
p2
(dp3
S'MIN'
p4
F3.0
sS'MIA'
p5
F6.5
sS'CAR'
p6
F6.0
sS'ATL'
p7
F5.5
sS'OAK'
p8
F9.5
sS'CIN'
p9
F8.0
sS'NYJ'
p10
F9.0
sS'DEN'
p11
F8.0
sS'BAL'
p12
F1.5
sS'NYG'
p13
F10.0
sS'DET'
p14
F6.5
sS'TEN'
p15
F10.0
sS'NO'
p16
F8.5
sS'DAL'
p17
F6.5
sS'NE'
p18
F4.5
sS'SEA'
p19
F6.5
sS'CHI'
p20
F11.0
sS'BUF'
p21
F10.0
sS'STL'
p22
F7.0
sS'CLE'
p23
F10.0
sS'TB'
p24
F10.0
sS'HOU'
p25
F7.0
sS'GB'
p26
F8.0
sS'WAS'
p27
F8.5
sS'JAC'
p28
F17.0
sS'KC'
p29
F11.0
sS'PHI'
p30
F3.0
sS'PIT'
p31
F10.0
sS'IND'
p32
F10.5
sS'ARI'
p33
F6.0
sS'SF'
p34
F8.0
sS'SD'
p35
F5.5
ssS'QB'
p36
(dp37
g4
F17.08
sg5
F19.040000000000003
sg6
F14.92
sg7
F25.25
sg8
F28.630000000000003
sg9
F17.41
sg10
F21.160000000000004
sg11
F15.62
sg12
F9.969999999999999
sg13
F12.4
sg14
F25.01
sg15
F12.870000000000001
sg16
F15.34
sg17
F18.42
sg18
F20.96
sg19
F12.600000000000001
sg20
F14.620000000000001
sg21
F16.54
sg22
F26.660000000000004
sg23
F17.700000000000003
sg24
F23.48
sg25
F7.74
sg26
F17.07
sg27
F20.04
sg28
F47.260000000000005
sg29
F12.52
sg30
F7.3500000000000005
sg31
F14.65
sg32
F17.72
sg33
F9.190000000000001
sg34
F16.01
sg35
F23.29
ssS'WR'
p38
(dp39
g4
F23.75
sg5
F35.25000000000001
sg6
F18.700000000000003
sg7
F30.9
sg8
F53.10000000000001
sg9
F25.049999999999997
sg10
F42.35000000000001
sg11
F18.15
sg12
F22.1
sg13
F26.749999999999996
sg14
F28.200000000000003
sg15
F27.450000000000003
sg16
F37.6
sg17
F30.8
sg18
F39.449999999999996
sg19
F21.500000000000004
sg20
F26.85
sg21
F40.6
sg22
F42.900000000000006
sg23
F34.300000000000004
sg24
F36.35
sg25
F23.6
sg26
F30.700000000000003
sg27
F37.15
sg28
F77.0
sg29
F29.500000000000004
sg30
F20.950000000000003
sg31
F27.25
sg32
F25.05
sg33
F36.1
sg34
F29.400000000000002
sg35
F29.2
ssS'RB'
p40
(dp41
g4
F16.5
sg5
F20.300000000000004
sg6
F22.450000000000003
sg7
F28.3
sg8
F17.35
sg9
F23.700000000000003
sg10
F16.200000000000003
sg11
F18.35
sg12
F21.800000000000004
sg13
F14.950000000000001
sg14
F19.75
sg15
F10.600000000000001
sg16
F26.5
sg17
F18.1
sg18
F18.7
sg19
F12.350000000000001
sg20
F19.599999999999998
sg21
F22.699999999999996
sg22
F41.4
sg23
F18.1
sg24
F22.15
sg25
F15.0
sg26
F11.4
sg27
F31.150000000000006
sg28
F34.50000000000001
sg29
F26.300000000000004
sg30
F18.25
sg31
F21.15
sg32
F38.300000000000004
sg33
F13.900000000000002
sg34
F12.75
sg35
F26.200000000000003
ssS'TE'
p42
(dp43
g4
F7.15
sg5
F12.549999999999999
sg6
F10.8
sg7
F19.65
sg8
F15.05
sg9
F10.5
sg10
F6.050000000000001
sg11
F10.0
sg12
F5.35
sg13
F8.8
sg14
F24.700000000000003
sg15
F7.9
sg16
F5.2
sg17
F15.150000000000002
sg18
F11.05
sg19
F4.8500000000000005
sg20
F10.600000000000001
sg21
F4.2
sg22
F17.200000000000003
sg23
F13.9
sg24
F7.550000000000001
sg25
F4.4
sg26
F15.65
sg27
F8.05
sg28
F12.899999999999999
sg29
F5.05
sg30
F2.6500000000000004
sg31
F9.9
sg32
F10.100000000000001
sg33
F4.2
sg34
F11.950000000000001
sg35
F15.600000000000001
sss.