(dp0
I1
(dp1
S'QB'
p2
(dp3
S'Broncos'
p4
(dp5
S'PassTD'
p6
F1.0
sS'Lost'
p7
F0.0
sS'PassAtt'
p8
F33.0
sS'Int'
p9
F1.0
sS'RushTD'
p10
F1.0
sS'RushAtt'
p11
F11.0
sS'PassYds'
p12
F194.0
sS'RushYds'
p13
F54.0
ssS'Vikings'
p14
(dp15
g6
F2.0
sg7
F1.0
sg8
F41.0
sg9
F1.0
sg10
F0.0
sg11
F4.0
sg12
F271.0
sg13
F19.0
ssS'Bears'
p16
(dp17
g6
F2.0
sg7
F0.0
sg8
F35.0
sg9
F1.0
sg10
F0.0
sg11
F4.0
sg12
F231.0
sg13
F14.0
ssS'Falcons'
p18
(dp19
g6
F4.0
sg7
F0.0
sg8
F32.0
sg9
F1.0
sg10
F0.0
sg11
F4.0
sg12
F281.0
sg13
F3.0
ssS'Saints'
p20
(dp21
g6
F1.0
sg7
F0.0
sg8
F38.0
sg9
F0.0
sg10
F0.0
sg11
F2.0
sg12
F319.0
sg13
F16.0
ssS'Chargers'
p22
(dp23
g6
F2.0
sg7
F0.0
sg8
F48.0
sg9
F1.0
sg10
F1.0
sg11
F4.0
sg12
F363.0
sg13
F15.0
ssS'Raiders'
p24
(dp25
g6
F4.0
sg7
F1.0
sg8
F42.0
sg9
F0.0
sg10
F0.0
sg11
F2.0
sg12
F423.0
sg13
F5.0
ssS'Lions'
p26
(dp27
g6
F4.0
sg7
F0.0
sg8
F47.0
sg9
F0.0
sg10
F0.0
sg11
F3.0
sg12
F385.0
sg13
F21.0
ssS'Eagles'
p28
(dp29
g6
F0.0
sg7
F0.0
sg8
F26.0
sg9
F1.0
sg10
F0.0
sg11
F5.0
sg12
F190.0
sg13
F37.0
ssS'Browns'
p30
(dp31
g6
F2.0
sg7
F0.0
sg8
F37.0
sg9
F0.0
sg10
F0.0
sg11
F2.0
sg12
F278.0
sg13
F1.0
ssS'Steelers'
p32
(dp33
g6
F0.0
sg7
F0.0
sg8
F43.0
sg9
F2.0
sg10
F0.0
sg11
F1.0
sg12
F329.0
sg13
F8.0
ssS'Giants'
p34
(dp35
g6
F0.0
sg7
F0.0
sg8
F45.0
sg9
F0.0
sg10
F0.0
sg11
F2.0
sg12
F227.0
sg13
F12.0
ssS'Buccaneers'
p36
(dp37
g6
F2.0
sg7
F0.0
sg8
F39.0
sg9
F0.0
sg10
F0.0
sg11
F3.0
sg12
F334.0
sg13
F10.0
ssS'Cardinals'
p38
(dp39
g6
F1.0
sg7
F1.0
sg8
F33.0
sg9
F0.0
sg10
F0.0
sg11
F4.0
sg12
F264.0
sg13
F12.0
ssS'Bengals'
p40
(dp41
g6
F2.0
sg7
F0.0
sg8
F35.0
sg9
F1.0
sg10
F0.0
sg11
F4.0
sg12
F189.0
sg13
F15.0
ssS'Chiefs'
p42
(dp43
g6
F1.0
sg7
F0.0
sg8
F36.0
sg9
F0.0
sg10
F0.0
sg11
F2.0
sg12
F243.0
sg13
F9.0
ssS'Dolphins'
p44
(dp45
g6
F1.0
sg7
F1.0
sg8
F43.0
sg9
F1.0
sg10
F0.0
sg11
F4.0
sg12
F258.0
sg13
F16.0
ssS'Jaguars'
p46
(dp47
g6
F2.0
sg7
F0.0
sg8
F34.0
sg9
F0.0
sg10
F1.0
sg11
F4.0
sg12
F199.0
sg13
F16.0
ssS'Seahawks'
p48
(dp49
g6
F0.0
sg7
F0.0
sg8
F29.0
sg9
F0.0
sg10
F1.0
sg11
F5.0
sg12
F186.0
sg13
F17.0
ssS'Jets'
p50
(dp51
g6
F1.0
sg7
F0.0
sg8
F30.0
sg9
F1.0
sg10
F0.0
sg11
F3.0
sg12
F366.0
sg13
F7.0
ssS'Ravens'
p52
(dp53
g6
F0.0
sg7
F0.0
sg8
F22.0
sg9
F0.0
sg10
F0.0
sg11
F5.0
sg12
F111.0
sg13
F11.0
ssS'Colts'
p54
(dp55
g6
F3.0
sg7
F0.0
sg8
F39.0
sg9
F0.0
sg10
F0.0
sg11
F2.0
sg12
F340.0
sg13
F5.0
ssS'Packers'
p56
(dp57
g6
F1.0
sg7
F0.0
sg8
F39.0
sg9
F1.0
sg10
F0.0
sg11
F2.0
sg12
F320.0
sg13
F2.0
ssS'Titans'
p58
(dp59
g6
F0.0
sg7
F0.0
sg8
F33.0
sg9
F0.0
sg10
F0.0
sg11
F2.0
sg12
F236.0
sg13
F8.0
ssS'Rams'
p60
(dp61
g6
F1.0
sg7
F0.0
sg8
F35.0
sg9
F0.0
sg10
F0.0
sg11
F9.0
sg12
F170.0
sg13
F43.0
ssS'Bills'
p62
(dp63
g6
F1.0
sg7
F1.0
sg8
F33.0
sg9
F0.0
sg10
F0.0
sg11
F4.0
sg12
F258.0
sg13
F-3.0
ssS'Texans'
p64
(dp65
g6
F1.0
sg7
F0.0
sg8
F29.0
sg9
F1.0
sg10
F0.0
sg11
F2.0
sg12
F216.0
sg13
F12.0
ssS'49ers'
p66
(dp67
g6
F0.0
sg7
F0.0
sg8
F35.0
sg9
F2.0
sg10
F0.0
sg11
F3.0
sg12
F130.0
sg13
F10.0
ssS'Patriots'
p68
(dp69
g6
F2.0
sg7
F0.0
sg8
F37.0
sg9
F0.0
sg10
F0.0
sg11
F2.0
sg12
F271.0
sg13
F1.0
ssS'Cowboys'
p70
(dp71
g6
F3.0
sg7
F0.0
sg8
F28.0
sg9
F1.0
sg10
F0.0
sg11
F0.0
sg12
F207.0
sg13
F0.0
ssS'Panthers'
p72
(dp73
g6
F1.0
sg7
F0.0
sg8
F26.0
sg9
F2.0
sg10
F0.0
sg11
F5.0
sg12
F178.0
sg13
F20.0
ssS'Redskins'
p74
(dp75
g6
F3.0
sg7
F0.0
sg8
F37.0
sg9
F1.0
sg10
F0.0
sg11
F1.0
sg12
F300.0
sg13
F-2.0
sssS'WR'
p76
(dp77
g4
(dp78
g7
F0.0
sS'RecTD'
p79
F1.0
sg10
F0.0
sg11
F1.0
sS'RecYds'
p80
F116.0
sS'Rec'
p81
F9.0
sg13
F20.0
ssg14
(dp82
g7
F0.0
sg79
F0.0
sg10
F0.0
sg11
F0.0
sg80
F153.0
sg81
F15.0
sg13
F0.0
ssg16
(dp83
g7
F0.0
sg79
F2.0
sg10
F0.0
sg11
F0.0
sg80
F167.0
sg81
F11.0
sg13
F0.0
ssg18
(dp84
g7
F0.0
sg79
F1.0
sg10
F0.0
sg11
F2.0
sg80
F151.0
sg81
F10.0
sg13
F16.0
ssg20
(dp85
g7
F0.0
sg79
F1.0
sg10
F0.0
sg11
F0.0
sg80
F243.0
sg81
F15.0
sg13
F0.0
ssg22
(dp86
g7
F0.0
sg79
F2.0
sg10
F0.0
sg11
F1.0
sg80
F116.0
sg81
F13.0
sg13
F-1.0
ssg24
(dp87
g7
F0.0
sg79
F3.0
sg10
F0.0
sg11
F1.0
sg80
F373.0
sg81
F21.0
sg13
F11.0
ssg26
(dp88
g7
F0.0
sg79
F1.0
sg10
F0.0
sg11
F0.0
sg80
F237.0
sg81
F16.0
sg13
F0.0
ssg28
(dp89
g7
F0.0
sg79
F0.0
sg10
F0.0
sg11
F1.0
sg80
F137.0
sg81
F5.0
sg13
F-1.0
ssg30
(dp90
g7
F0.0
sg79
F2.0
sg10
F0.0
sg11
F0.0
sg80
F185.0
sg81
F13.0
sg13
F0.0
ssg32
(dp91
g7
F0.0
sg79
F0.0
sg10
F0.0
sg11
F0.0
sg80
F220.0
sg81
F19.0
sg13
F0.0
ssg34
(dp92
g7
F0.0
sg79
F0.0
sg10
F0.0
sg11
F0.0
sg80
F123.0
sg81
F13.0
sg13
F0.0
ssg36
(dp93
g7
F0.0
sg79
F2.0
sg10
F0.0
sg11
F0.0
sg80
F146.0
sg81
F10.0
sg13
F0.0
ssg38
(dp94
g7
F0.0
sg79
F1.0
sg10
F0.0
sg11
F3.0
sg80
F207.0
sg81
F15.0
sg13
F16.0
ssg40
(dp95
g7
F0.0
sg79
F2.0
sg10
F0.0
sg11
F0.0
sg80
F123.0
sg81
F12.0
sg13
F0.0
ssg42
(dp96
g7
F0.0
sg79
F0.0
sg10
F0.0
sg11
F0.0
sg80
F172.0
sg81
F16.0
sg13
F0.0
ssg44
(dp97
g7
F0.0
sg79
F1.0
sg10
F0.0
sg11
F0.0
sg80
F177.0
sg81
F18.0
sg13
F0.0
ssg46
(dp98
g7
F0.0
sg79
F2.0
sg10
F0.0
sg11
F3.0
sg80
F147.0
sg81
F16.0
sg13
F11.0
ssg48
(dp99
g7
F0.0
sg79
F0.0
sg10
F0.0
sg11
F0.0
sg80
F147.0
sg81
F13.0
sg13
F0.0
ssg50
(dp100
g7
F0.0
sg79
F1.0
sg10
F0.0
sg11
F2.0
sg80
F302.0
sg81
F19.0
sg13
F-6.0
ssg52
(dp101
g7
F0.0
sg79
F0.0
sg10
F0.0
sg11
F0.0
sg80
F63.0
sg81
F8.0
sg13
F0.0
ssg54
(dp102
g7
F0.0
sg79
F0.0
sg10
F0.0
sg11
F1.0
sg80
F169.0
sg81
F15.0
sg13
F2.0
ssg56
(dp103
g7
F0.0
sg79
F0.0
sg10
F0.0
sg11
F0.0
sg80
F178.0
sg81
F13.0
sg13
F0.0
ssg58
(dp104
g7
F0.0
sg79
F0.0
sg10
F0.0
sg11
F2.0
sg80
F168.0
sg81
F13.0
sg13
F7.0
ssg60
(dp105
g7
F0.0
sg79
F0.0
sg10
F0.0
sg11
F0.0
sg80
F134.0
sg81
F14.0
sg13
F0.0
ssg62
(dp106
g7
F0.0
sg79
F1.0
sg10
F0.0
sg11
F1.0
sg80
F172.0
sg81
F12.0
sg13
F11.0
ssg64
(dp107
g7
F0.0
sg79
F1.0
sg10
F0.0
sg11
F0.0
sg80
F196.0
sg81
F11.0
sg13
F0.0
ssg66
(dp108
g7
F0.0
sg79
F0.0
sg10
F0.0
sg11
F1.0
sg80
F103.0
sg81
F11.0
sg13
F2.0
ssg68
(dp109
g7
F0.0
sg79
F2.0
sg10
F0.0
sg11
F0.0
sg80
F179.0
sg81
F14.0
sg13
F0.0
ssg70
(dp110
g7
F0.0
sg79
F2.0
sg10
F0.0
sg11
F0.0
sg80
F150.0
sg81
F11.0
sg13
F0.0
ssg72
(dp111
g7
F0.0
sg79
F0.0
sg10
F0.0
sg11
F0.0
sg80
F97.0
sg81
F9.0
sg13
F0.0
ssg74
(dp112
g7
F0.0
sg79
F3.0
sg10
F0.0
sg11
F0.0
sg80
F241.0
sg81
F16.0
sg13
F0.0
sssS'RB'
p113
(dp114
g4
(dp115
g7
F0.0
sg79
F0.0
sg10
F0.0
sg11
F20.0
sg80
F5.0
sg81
F2.0
sg13
F83.0
ssg14
(dp116
g7
F1.0
sg79
F2.0
sg10
F0.0
sg11
F18.0
sg80
F76.0
sg81
F7.0
sg13
F45.0
ssg16
(dp117
g7
F0.0
sg79
F0.0
sg10
F0.0
sg11
F31.0
sg80
F16.0
sg81
F5.0
sg13
F115.0
ssg18
(dp118
g7
F0.0
sg79
F1.0
sg10
F0.0
sg11
F22.0
sg80
F66.0
sg81
F8.0
sg13
F71.0
ssg20
(dp119
g7
F0.0
sg79
F0.0
sg10
F3.0
sg11
F24.0
sg80
F51.0
sg81
F6.0
sg13
F151.0
ssg22
(dp120
g7
F0.0
sg79
F0.0
sg10
F1.0
sg11
F14.0
sg80
F153.0
sg81
F13.0
sg13
F69.0
ssg24
(dp121
g7
F0.0
sg79
F1.0
sg10
F0.0
sg11
F19.0
sg80
F44.0
sg81
F6.0
sg13
F72.0
ssg26
(dp122
g7
F0.0
sg79
F0.0
sg10
F0.0
sg11
F16.0
sg80
F60.0
sg81
F8.0
sg13
F61.0
ssg28
(dp123
g7
F0.0
sg79
F0.0
sg10
F1.0
sg11
F15.0
sg80
F53.0
sg81
F7.0
sg13
F84.0
ssg30
(dp124
g7
F0.0
sg79
F0.0
sg10
F1.0
sg11
F32.0
sg80
F24.0
sg81
F2.0
sg13
F132.0
ssg32
(dp125
g7
F0.0
sg79
F0.0
sg10
F1.0
sg11
F11.0
sg80
F25.0
sg81
F3.0
sg13
F47.0
ssg34
(dp126
g7
F0.0
sg79
F0.0
sg10
F1.0
sg11
F28.0
sg80
F17.0
sg81
F2.0
sg13
F89.0
ssg36
(dp127
g7
F0.0
sg79
F0.0
sg10
F0.0
sg11
F8.0
sg80
F103.0
sg81
F6.0
sg13
F22.0
ssg38
(dp128
g7
F1.0
sg79
F0.0
sg10
F1.0
sg11
F24.0
sg80
F40.0
sg81
F5.0
sg13
F78.0
ssg40
(dp129
g7
F0.0
sg79
F0.0
sg10
F0.0
sg11
F26.0
sg80
F66.0
sg81
F7.0
sg13
F137.0
ssg42
(dp130
g7
F0.0
sg79
F1.0
sg10
F2.0
sg11
F30.0
sg80
F31.0
sg81
F5.0
sg13
F146.0
ssg44
(dp131
g7
F0.0
sg79
F0.0
sg10
F0.0
sg11
F28.0
sg80
F44.0
sg81
F6.0
sg13
F96.0
ssg46
(dp132
g7
F0.0
sg79
F0.0
sg10
F0.0
sg11
F18.0
sg80
F23.0
sg81
F2.0
sg13
F68.0
ssg48
(dp133
g7
F0.0
sg79
F0.0
sg10
F0.0
sg11
F15.0
sg80
F91.0
sg81
F4.0
sg13
F47.0
ssg50
(dp134
g7
F0.0
sg79
F0.0
sg10
F1.0
sg11
F14.0
sg80
F5.0
sg81
F2.0
sg13
F56.0
ssg52
(dp135
g7
F0.0
sg79
F0.0
sg10
F1.0
sg11
F19.0
sg80
F8.0
sg81
F5.0
sg13
F54.0
ssg54
(dp136
g7
F0.0
sg79
F2.0
sg10
F2.0
sg11
F21.0
sg80
F120.0
sg81
F10.0
sg13
F109.0
ssg56
(dp137
g7
F0.0
sg79
F0.0
sg10
F1.0
sg11
F24.0
sg80
F30.0
sg81
F4.0
sg13
F46.0
ssg58
(dp138
g7
F0.0
sg79
F0.0
sg10
F0.0
sg11
F24.0
sg80
F3.0
sg81
F1.0
sg13
F50.0
ssg60
(dp139
g7
F1.0
sg79
F0.0
sg10
F3.0
sg11
F33.0
sg80
F23.0
sg81
F4.0
sg13
F107.0
ssg62
(dp140
g7
F0.0
sg79
F0.0
sg10
F0.0
sg11
F23.0
sg80
F42.0
sg81
F6.0
sg13
F75.0
ssg64
(dp141
g7
F0.0
sg79
F0.0
sg10
F1.0
sg11
F18.0
sg80
F6.0
sg81
F2.0
sg13
F61.0
ssg66
(dp142
g7
F0.0
sg79
F0.0
sg10
F0.0
sg11
F19.0
sg80
F10.0
sg81
F3.0
sg13
F53.0
ssg68
(dp143
g7
F0.0
sg79
F0.0
sg10
F1.0
sg11
F17.0
sg80
F51.0
sg81
F6.0
sg13
F91.0
ssg70
(dp144
g7
F0.0
sg79
F0.0
sg10
F0.0
sg11
F24.0
sg80
F26.0
sg81
F4.0
sg13
F113.0
ssg72
(dp145
g7
F1.0
sg79
F1.0
sg10
F2.0
sg11
F24.0
sg80
F53.0
sg81
F5.0
sg13
F128.0
ssg74
(dp146
g7
F0.0
sg79
F0.0
sg10
F2.0
sg11
F29.0
sg80
F28.0
sg81
F6.0
sg13
F149.0
sssS'TE'
p147
(dp148
g4
(dp149
g7
F0.0
sg79
F0.0
sg10
F0.0
sg11
F0.0
sg80
F73.0
sg81
F7.0
sg13
F0.0
ssg14
(dp150
g7
F0.0
sg79
F0.0
sg10
F0.0
sg11
F0.0
sg80
F42.0
sg81
F3.0
sg13
F0.0
ssg16
(dp151
g7
F0.0
sg79
F0.0
sg10
F0.0
sg11
F0.0
sg80
F48.0
sg81
F6.0
sg13
F0.0
ssg18
(dp152
g7
F0.0
sg79
F2.0
sg10
F0.0
sg11
F0.0
sg80
F64.0
sg81
F5.0
sg13
F0.0
ssg20
(dp153
g7
F0.0
sg79
F0.0
sg10
F0.0
sg11
F0.0
sg80
F25.0
sg81
F3.0
sg13
F0.0
ssg22
(dp154
g7
F0.0
sg79
F0.0
sg10
F0.0
sg11
F0.0
sg80
F94.0
sg81
F8.0
sg13
F0.0
ssg24
(dp155
g7
F0.0
sg79
F0.0
sg10
F0.0
sg11
F0.0
sg80
F6.0
sg81
F1.0
sg13
F0.0
ssg26
(dp156
g7
F0.0
sg79
F3.0
sg10
F0.0
sg11
F0.0
sg80
F88.0
sg81
F7.0
sg13
F0.0
ssg28
(dp157
g7
F0.0
sg79
F0.0
sg10
F0.0
sg11
F0.0
sg80
F0.0
sg81
F0.0
sg13
F0.0
ssg30
(dp158
g7
F0.0
sg79
F0.0
sg10
F0.0
sg11
F0.0
sg80
F69.0
sg81
F7.0
sg13
F0.0
ssg32
(dp159
g7
F0.0
sg79
F0.0
sg10
F0.0
sg11
F0.0
sg80
F84.0
sg81
F8.0
sg13
F0.0
ssg34
(dp160
g7
F0.0
sg79
F0.0
sg10
F0.0
sg11
F0.0
sg80
F87.0
sg81
F10.0
sg13
F0.0
ssg36
(dp161
g7
F0.0
sg79
F0.0
sg10
F0.0
sg11
F0.0
sg80
F65.0
sg81
F7.0
sg13
F0.0
ssg38
(dp162
g7
F0.0
sg79
F0.0
sg10
F0.0
sg11
F0.0
sg80
F14.0
sg81
F3.0
sg13
F0.0
ssg40
(dp163
g7
F0.0
sg79
F0.0
sg10
F0.0
sg11
F0.0
sg80
F0.0
sg81
F0.0
sg13
F0.0
ssg42
(dp164
g7
F0.0
sg79
F0.0
sg10
F0.0
sg11
F0.0
sg80
F40.0
sg81
F4.0
sg13
F0.0
ssg44
(dp165
g7
F0.0
sg79
F0.0
sg10
F0.0
sg11
F0.0
sg80
F37.0
sg81
F3.0
sg13
F0.0
ssg46
(dp166
g7
F0.0
sg79
F0.0
sg10
F0.0
sg11
F0.0
sg80
F29.0
sg81
F2.0
sg13
F0.0
ssg48
(dp167
g7
F0.0
sg79
F0.0
sg10
F0.0
sg11
F0.0
sg80
F6.0
sg81
F2.0
sg13
F0.0
ssg50
(dp168
g7
F0.0
sg79
F0.0
sg10
F0.0
sg11
F0.0
sg80
F59.0
sg81
F2.0
sg13
F0.0
ssg52
(dp169
g7
F0.0
sg79
F0.0
sg10
F0.0
sg11
F0.0
sg80
F40.0
sg81
F2.0
sg13
F0.0
ssg54
(dp170
g7
F0.0
sg79
F1.0
sg10
F0.0
sg11
F0.0
sg80
F51.0
sg81
F6.0
sg13
F0.0
ssg56
(dp171
g7
F0.0
sg79
F1.0
sg10
F0.0
sg11
F0.0
sg80
F112.0
sg81
F7.0
sg13
F0.0
ssg58
(dp172
g7
F0.0
sg79
F0.0
sg10
F0.0
sg11
F0.0
sg80
F65.0
sg81
F4.0
sg13
F0.0
ssg60
(dp173
g7
F0.0
sg79
F1.0
sg10
F0.0
sg11
F0.0
sg80
F29.0
sg81
F3.0
sg13
F0.0
ssg62
(dp174
g7
F0.0
sg79
F0.0
sg10
F0.0
sg11
F0.0
sg80
F44.0
sg81
F4.0
sg13
F0.0
ssg64
(dp175
g7
F0.0
sg79
F0.0
sg10
F0.0
sg11
F0.0
sg80
F14.0
sg81
F3.0
sg13
F0.0
ssg66
(dp176
g7
F0.0
sg79
F0.0
sg10
F0.0
sg11
F0.0
sg80
F17.0
sg81
F3.0
sg13
F0.0
ssg68
(dp177
g7
F0.0
sg79
F0.0
sg10
F0.0
sg11
F0.0
sg80
F41.0
sg81
F4.0
sg13
F0.0
ssg70
(dp178
g7
F0.0
sg79
F1.0
sg10
F0.0
sg11
F0.0
sg80
F31.0
sg81
F4.0
sg13
F0.0
ssg72
(dp179
g7
F0.0
sg79
F0.0
sg10
F0.0
sg11
F0.0
sg80
F28.0
sg81
F4.0
sg13
F0.0
ssg74
(dp180
g7
F0.0
sg79
F0.0
sg10
F0.0
sg11
F0.0
sg80
F31.0
sg81
F5.0
sg13
F0.0
ssssI2
(dp181
g2
(dp182
g4
(dp183
g6
F1.0
sg7
F0.5
sg8
F36.5
sg9
F1.0
sg10
F0.5
sg11
F7.0
sg12
F195.5
sg13
F38.0
ssg14
(dp184
g6
F1.5
sg7
F1.0
sg8
F38.5
sg9
F1.0
sg10
F0.5
sg11
F3.5
sg12
F242.0
sg13
F24.0
ssg16
(dp185
g6
F1.5
sg7
F0.0
sg8
F34.5
sg9
F0.5
sg10
F0.0
sg11
F5.0
sg12
F210.5
sg13
F12.0
ssg18
(dp186
g6
F3.5
sg7
F0.0
sg8
F38.5
sg9
F0.5
sg10
F0.0
sg11
F3.0
sg12
F290.0
sg13
F6.5
ssg20
(dp187
g6
F0.5
sg7
F0.5
sg8
F39.5
sg9
F0.0
sg10
F0.0
sg11
F3.0
sg12
F343.5
sg13
F6.0
ssg22
(dp188
g6
F2.0
sg7
F0.5
sg8
F49.0
sg9
F1.5
sg10
F0.5
sg11
F3.5
sg12
F346.0
sg13
F24.5
ssg24
(dp189
g6
F3.5
sg7
F0.5
sg8
F38.0
sg9
F0.5
sg10
F0.0
sg11
F1.0
sg12
F409.5
sg13
F2.5
ssg26
(dp190
g6
F3.0
sg7
F0.0
sg8
F40.0
sg9
F0.5
sg10
F0.0
sg11
F3.0
sg12
F311.5
sg13
F15.5
ssg28
(dp191
g6
F0.0
sg7
F0.5
sg8
F27.5
sg9
F1.0
sg10
F0.0
sg11
F2.5
sg12
F212.5
sg13
F18.5
ssg30
(dp192
g6
F2.0
sg7
F0.0
sg8
F41.0
sg9
F1.0
sg10
F0.0
sg11
F1.5
sg12
F290.0
sg13
F1.0
ssg32
(dp193
g6
F0.5
sg7
F0.0
sg8
F48.5
sg9
F1.0
sg10
F0.0
sg11
F1.5
sg12
F347.5
sg13
F7.5
ssg34
(dp194
g6
F0.5
sg7
F0.0
sg8
F44.5
sg9
F0.0
sg10
F0.0
sg11
F1.0
sg12
F245.0
sg13
F6.0
ssg36
(dp195
g6
F2.5
sg7
F0.0
sg8
F36.5
sg9
F0.0
sg10
F0.0
sg11
F1.5
sg12
F324.5
sg13
F5.0
ssg38
(dp196
g6
F1.0
sg7
F1.0
sg8
F42.5
sg9
F2.0
sg10
F0.0
sg11
F3.5
sg12
F253.5
sg13
F10.5
ssg40
(dp197
g6
F2.5
sg7
F0.0
sg8
F36.0
sg9
F1.5
sg10
F0.0
sg11
F2.5
sg12
F224.0
sg13
F14.5
ssg42
(dp198
g6
F1.0
sg7
F0.0
sg8
F34.5
sg9
F1.0
sg10
F0.0
sg11
F2.0
sg12
F255.5
sg13
F3.0
ssg44
(dp199
g6
F2.0
sg7
F0.5
sg8
F39.0
sg9
F0.5
sg10
F0.0
sg11
F4.0
sg12
F291.0
sg13
F14.0
ssg46
(dp200
g6
F3.0
sg7
F0.5
sg8
F29.5
sg9
F0.0
sg10
F0.5
sg11
F3.5
sg12
F209.5
sg13
F12.5
ssg48
(dp201
g6
F0.0
sg7
F0.0
sg8
F29.5
sg9
F0.0
sg10
F0.5
sg11
F4.0
sg12
F212.5
sg13
F11.0
ssg50
(dp202
g6
F2.0
sg7
F0.0
sg8
F30.5
sg9
F1.0
sg10
F0.0
sg11
F3.5
sg12
F336.5
sg13
F17.0
ssg52
(dp203
g6
F1.0
sg7
F0.0
sg8
F27.5
sg9
F1.0
sg10
F0.0
sg11
F3.5
sg12
F185.5
sg13
F5.5
ssg54
(dp204
g6
F1.5
sg7
F0.0
sg8
F36.0
sg9
F0.5
sg10
F0.0
sg11
F1.5
sg12
F303.0
sg13
F6.0
ssg56
(dp205
g6
F1.5
sg7
F0.0
sg8
F35.0
sg9
F0.5
sg10
F0.0
sg11
F1.5
sg12
F303.0
sg13
F-0.5
ssg58
(dp206
g6
F0.5
sg7
F0.0
sg8
F36.5
sg9
F0.5
sg10
F0.0
sg11
F2.0
sg12
F248.0
sg13
F19.5
ssg60
(dp207
g6
F0.5
sg7
F0.0
sg8
F35.0
sg9
F0.0
sg10
F0.0
sg11
F7.0
sg12
F212.0
sg13
F28.5
ssg62
(dp208
g6
F1.0
sg7
F0.5
sg8
F33.5
sg9
F0.0
sg10
F0.0
sg11
F4.5
sg12
F316.0
sg13
F9.0
ssg64
(dp209
g6
F0.5
sg7
F1.0
sg8
F33.0
sg9
F0.5
sg10
F0.0
sg11
F2.0
sg12
F201.0
sg13
F7.0
ssg66
(dp210
g6
F2.0
sg7
F0.5
sg8
F37.5
sg9
F1.5
sg10
F0.0
sg11
F4.5
sg12
F241.5
sg13
F23.5
ssg68
(dp211
g6
F2.0
sg7
F0.0
sg8
F41.0
sg9
F1.0
sg10
F0.0
sg11
F4.0
sg12
F329.0
sg13
F18.0
ssg70
(dp212
g6
F2.0
sg7
F0.0
sg8
F37.0
sg9
F1.0
sg10
F0.0
sg11
F1.0
sg12
F285.5
sg13
F10.0
ssg72
(dp213
g6
F1.5
sg7
F0.0
sg8
F31.0
sg9
F2.0
sg10
F0.5
sg11
F4.0
sg12
F210.5
sg13
F15.0
ssg74
(dp214
g6
F1.5
sg7
F0.0
sg8
F33.5
sg9
F0.5
sg10
F0.5
sg11
F1.0
sg12
F296.0
sg13
F2.0
sssg76
(dp215
g4
(dp216
g7
F0.0
sg79
F0.5
sg10
F0.0
sg11
F0.5
sg80
F101.5
sg81
F8.0
sg13
F10.0
ssg14
(dp217
g7
F0.5
sg79
F0.5
sg10
F0.0
sg11
F0.5
sg80
F147.0
sg81
F14.0
sg13
F0.5
ssg16
(dp218
g7
F0.0
sg79
F1.0
sg10
F0.0
sg11
F0.5
sg80
F148.5
sg81
F12.0
sg13
F0.0
ssg18
(dp219
g7
F0.0
sg79
F1.5
sg10
F0.0
sg11
F1.5
sg80
F144.0
sg81
F12.0
sg13
F15.0
ssg20
(dp220
g7
F0.5
sg79
F0.5
sg10
F0.0
sg11
F0.0
sg80
F268.5
sg81
F17.5
sg13
F0.0
ssg22
(dp221
g7
F0.0
sg79
F1.0
sg10
F0.0
sg11
F0.5
sg80
F162.5
sg81
F14.0
sg13
F-0.5
ssg24
(dp222
g7
F0.0
sg79
F2.5
sg10
F0.0
sg11
F0.5
sg80
F283.0
sg81
F18.5
sg13
F5.5
ssg26
(dp223
g7
F0.0
sg79
F1.0
sg10
F0.0
sg11
F0.0
sg80
F159.5
sg81
F12.5
sg13
F0.0
ssg28
(dp224
g7
F0.0
sg79
F0.0
sg10
F0.0
sg11
F1.0
sg80
F160.5
sg81
F9.0
sg13
F4.0
ssg30
(dp225
g7
F0.0
sg79
F2.0
sg10
F0.0
sg11
F0.0
sg80
F165.5
sg81
F11.5
sg13
F0.0
ssg32
(dp226
g7
F0.5
sg79
F0.0
sg10
F0.0
sg11
F0.0
sg80
F202.5
sg81
F16.0
sg13
F0.0
ssg34
(dp227
g7
F0.0
sg79
F0.5
sg10
F0.0
sg11
F0.0
sg80
F157.5
sg81
F16.0
sg13
F0.0
ssg36
(dp228
g7
F0.0
sg79
F2.5
sg10
F0.0
sg11
F0.5
sg80
F161.5
sg81
F10.0
sg13
F2.0
ssg38
(dp229
g7
F0.0
sg79
F1.0
sg10
F0.0
sg11
F1.5
sg80
F208.0
sg81
F17.0
sg13
F8.0
ssg40
(dp230
g7
F0.0
sg79
F1.0
sg10
F0.0
sg11
F0.5
sg80
F137.5
sg81
F10.0
sg13
F3.0
ssg42
(dp231
g7
F0.0
sg79
F0.5
sg10
F0.0
sg11
F0.5
sg80
F196.0
sg81
F14.0
sg13
F-1.0
ssg44
(dp232
g7
F0.5
sg79
F1.5
sg10
F0.0
sg11
F0.0
sg80
F187.5
sg81
F17.0
sg13
F0.0
ssg46
(dp233
g7
F0.0
sg79
F2.5
sg10
F0.0
sg11
F2.0
sg80
F165.0
sg81
F13.0
sg13
F5.0
ssg48
(dp234
g7
F0.0
sg79
F0.0
sg10
F0.0
sg11
F1.0
sg80
F149.5
sg81
F12.5
sg13
F3.0
ssg50
(dp235
g7
F0.0
sg79
F1.5
sg10
F0.0
sg11
F1.0
sg80
F266.5
sg81
F14.0
sg13
F-3.0
ssg52
(dp236
g7
F0.0
sg79
F1.0
sg10
F0.0
sg11
F0.0
sg80
F113.5
sg81
F9.5
sg13
F0.0
ssg54
(dp237
g7
F0.0
sg79
F0.0
sg10
F0.0
sg11
F0.5
sg80
F177.0
sg81
F14.5
sg13
F1.0
ssg56
(dp238
g7
F0.0
sg79
F0.5
sg10
F0.0
sg11
F0.5
sg80
F208.0
sg81
F14.0
sg13
F-1.0
ssg58
(dp239
g7
F0.0
sg79
F0.5
sg10
F0.0
sg11
F1.0
sg80
F173.5
sg81
F13.5
sg13
F3.5
ssg60
(dp240
g7
F0.0
sg79
F0.0
sg10
F0.0
sg11
F0.0
sg80
F149.5
sg81
F13.0
sg13
F0.0
ssg62
(dp241
g7
F0.5
sg79
F1.0
sg10
F0.0
sg11
F0.5
sg80
F268.0
sg81
F16.5
sg13
F5.5
ssg64
(dp242
g7
F0.0
sg79
F0.5
sg10
F0.0
sg11
F0.5
sg80
F149.0
sg81
F11.5
sg13
F-0.5
ssg66
(dp243
g7
F0.5
sg79
F1.5
sg10
F0.0
sg11
F1.0
sg80
F148.0
sg81
F12.5
sg13
F3.5
ssg68
(dp244
g7
F0.5
sg79
F1.5
sg10
F0.0
sg11
F0.0
sg80
F229.5
sg81
F17.0
sg13
F0.0
ssg70
(dp245
g7
F0.0
sg79
F1.5
sg10
F0.0
sg11
F0.0
sg80
F158.0
sg81
F12.0
sg13
F0.0
ssg72
(dp246
g7
F0.0
sg79
F0.5
sg10
F0.0
sg11
F0.0
sg80
F109.5
sg81
F9.5
sg13
F0.0
ssg74
(dp247
g7
F0.0
sg79
F1.5
sg10
F0.0
sg11
F0.0
sg80
F209.0
sg81
F14.5
sg13
F0.0
sssg113
(dp248
g4
(dp249
g7
F0.0
sg79
F0.5
sg10
F0.5
sg11
F19.0
sg80
F26.5
sg81
F5.0
sg13
F72.0
ssg14
(dp250
g7
F0.5
sg79
F1.0
sg10
F0.0
sg11
F18.5
sg80
F46.0
sg81
F4.0
sg13
F49.0
ssg16
(dp251
g7
F0.0
sg79
F0.0
sg10
F1.0
sg11
F28.0
sg80
F13.5
sg81
F4.0
sg13
F102.5
ssg18
(dp252
g7
F0.0
sg79
F0.5
sg10
F0.5
sg11
F22.0
sg80
F77.0
sg81
F9.0
sg13
F101.0
ssg20
(dp253
g7
F0.5
sg79
F0.0
sg10
F1.5
sg11
F26.0
sg80
F45.5
sg81
F6.0
sg13
F109.5
ssg22
(dp254
g7
F0.0
sg79
F0.5
sg10
F0.5
sg11
F11.0
sg80
F92.5
sg81
F11.5
sg13
F52.0
ssg24
(dp255
g7
F0.0
sg79
F0.5
sg10
F0.5
sg11
F15.5
sg80
F34.5
sg81
F4.0
sg13
F59.0
ssg26
(dp256
g7
F0.0
sg79
F0.0
sg10
F0.0
sg11
F18.5
sg80
F62.5
sg81
F8.0
sg13
F95.0
ssg28
(dp257
g7
F0.5
sg79
F0.0
sg10
F1.0
sg11
F16.0
sg80
F35.5
sg81
F5.5
sg13
F69.5
ssg30
(dp258
g7
F0.0
sg79
F0.0
sg10
F0.5
sg11
F28.5
sg80
F28.0
sg81
F3.5
sg13
F105.5
ssg32
(dp259
g7
F0.5
sg79
F0.5
sg10
F0.5
sg11
F13.5
sg80
F81.0
sg81
F7.5
sg13
F43.0
ssg34
(dp260
g7
F0.0
sg79
F0.0
sg10
F0.5
sg11
F20.5
sg80
F29.5
sg81
F5.0
sg13
F65.0
ssg36
(dp261
g7
F0.0
sg79
F0.0
sg10
F0.5
sg11
F18.5
sg80
F105.0
sg81
F5.0
sg13
F61.5
ssg38
(dp262
g7
F0.5
sg79
F0.0
sg10
F0.5
sg11
F21.0
sg80
F22.0
sg81
F4.0
sg13
F77.0
ssg40
(dp263
g7
F0.0
sg79
F0.5
sg10
F0.0
sg11
F30.0
sg80
F56.5
sg81
F6.0
sg13
F120.5
ssg42
(dp264
g7
F0.0
sg79
F0.5
sg10
F1.0
sg11
F30.5
sg80
F29.0
sg81
F4.0
sg13
F124.0
ssg44
(dp265
g7
F0.0
sg79
F0.0
sg10
F0.5
sg11
F31.0
sg80
F28.0
sg81
F4.5
sg13
F122.5
ssg46
(dp266
g7
F0.0
sg79
F0.0
sg10
F0.5
sg11
F24.5
sg80
F22.5
sg81
F3.0
sg13
F105.0
ssg48
(dp267
g7
F0.0
sg79
F0.0
sg10
F0.0
sg11
F17.5
sg80
F58.5
sg81
F3.0
sg13
F50.0
ssg50
(dp268
g7
F0.0
sg79
F0.5
sg10
F0.5
sg11
F14.5
sg80
F27.0
sg81
F3.5
sg13
F57.5
ssg52
(dp269
g7
F0.0
sg79
F0.0
sg10
F1.0
sg11
F20.0
sg80
F33.5
sg81
F5.0
sg13
F99.5
ssg54
(dp270
g7
F0.0
sg79
F1.0
sg10
F1.5
sg11
F25.5
sg80
F77.5
sg81
F7.5
sg13
F118.0
ssg56
(dp271
g7
F0.0
sg79
F0.0
sg10
F0.5
sg11
F22.0
sg80
F23.5
sg81
F4.0
sg13
F40.5
ssg58
(dp272
g7
F0.0
sg79
F0.0
sg10
F0.0
sg11
F22.5
sg80
F15.5
sg81
F2.5
sg13
F78.0
ssg60
(dp273
g7
F1.0
sg79
F0.0
sg10
F1.5
sg11
F26.0
sg80
F32.0
sg81
F5.0
sg13
F80.0
ssg62
(dp274
g7
F0.0
sg79
F0.0
sg10
F1.5
sg11
F27.0
sg80
F26.0
sg81
F4.5
sg13
F88.5
ssg64
(dp275
g7
F0.5
sg79
F0.0
sg10
F0.5
sg11
F17.0
sg80
F28.0
sg81
F2.5
sg13
F89.5
ssg66
(dp276
g7
F0.5
sg79
F0.0
sg10
F0.0
sg11
F24.5
sg80
F24.0
sg81
F4.0
sg13
F93.5
ssg68
(dp277
g7
F0.5
sg79
F0.0
sg10
F1.0
sg11
F13.5
sg80
F44.0
sg81
F6.0
sg13
F63.0
ssg70
(dp278
g7
F0.0
sg79
F0.0
sg10
F0.5
sg11
F19.5
sg80
F43.5
sg81
F4.0
sg13
F87.5
ssg72
(dp279
g7
F1.0
sg79
F0.5
sg10
F1.0
sg11
F23.5
sg80
F40.5
sg81
F4.5
sg13
F91.5
ssg74
(dp280
g7
F0.5
sg79
F0.0
sg10
F2.0
sg11
F32.5
sg80
F33.5
sg81
F6.5
sg13
F135.5
sssg147
(dp281
g4
(dp282
g7
F0.0
sg79
F0.0
sg10
F0.0
sg11
F0.0
sg80
F67.5
sg81
F6.5
sg13
F0.0
ssg14
(dp283
g7
F0.0
sg79
F0.0
sg10
F0.0
sg11
F0.0
sg80
F49.0
sg81
F4.5
sg13
F0.0
ssg16
(dp284
g7
F0.0
sg79
F0.5
sg10
F0.0
sg11
F0.0
sg80
F48.5
sg81
F5.5
sg13
F0.0
ssg18
(dp285
g7
F0.0
sg79
F1.5
sg10
F0.0
sg11
F0.0
sg80
F69.0
sg81
F7.5
sg13
F0.0
ssg20
(dp286
g7
F0.0
sg79
F0.0
sg10
F0.0
sg11
F0.0
sg80
F29.5
sg81
F4.5
sg13
F0.0
ssg22
(dp287
g7
F0.0
sg79
F0.5
sg10
F0.0
sg11
F0.0
sg80
F91.0
sg81
F7.0
sg13
F0.0
ssg24
(dp288
g7
F0.0
sg79
F0.5
sg10
F0.0
sg11
F0.0
sg80
F93.0
sg81
F5.5
sg13
F0.0
ssg26
(dp289
g7
F0.0
sg79
F2.0
sg10
F0.0
sg11
F0.0
sg80
F89.5
sg81
F7.5
sg13
F0.0
ssg28
(dp290
g7
F0.0
sg79
F0.0
sg10
F0.0
sg11
F0.0
sg80
F16.5
sg81
F2.0
sg13
F0.0
ssg30
(dp291
g7
F0.0
sg79
F0.0
sg10
F0.0
sg11
F0.0
sg80
F96.5
sg81
F8.5
sg13
F0.0
ssg32
(dp292
g7
F0.0
sg79
F0.0
sg10
F0.0
sg11
F0.0
sg80
F64.0
sg81
F7.0
sg13
F0.0
ssg34
(dp293
g7
F0.0
sg79
F0.0
sg10
F0.0
sg11
F0.0
sg80
F58.0
sg81
F6.0
sg13
F0.0
ssg36
(dp294
g7
F0.0
sg79
F0.0
sg10
F0.0
sg11
F0.0
sg80
F48.0
sg81
F5.5
sg13
F0.0
ssg38
(dp295
g7
F0.0
sg79
F0.0
sg10
F0.0
sg11
F0.0
sg80
F22.0
sg81
F4.0
sg13
F0.0
ssg40
(dp296
g7
F0.0
sg79
F1.0
sg10
F0.0
sg11
F0.0
sg80
F30.0
sg81
F3.0
sg13
F0.0
ssg42
(dp297
g7
F0.0
sg79
F0.0
sg10
F0.0
sg11
F0.0
sg80
F30.5
sg81
F4.0
sg13
F0.0
ssg44
(dp298
g7
F0.0
sg79
F0.5
sg10
F0.0
sg11
F0.0
sg80
F75.5
sg81
F4.0
sg13
F0.0
ssg46
(dp299
g7
F0.0
sg79
F0.5
sg10
F0.0
sg11
F0.0
sg80
F22.0
sg81
F2.5
sg13
F0.0
ssg48
(dp300
g7
F0.0
sg79
F0.0
sg10
F0.0
sg11
F0.0
sg80
F33.5
sg81
F3.0
sg13
F0.0
ssg50
(dp301
g7
F0.0
sg79
F0.0
sg10
F0.0
sg11
F0.0
sg80
F43.0
sg81
F3.5
sg13
F0.0
ssg52
(dp302
g7
F0.0
sg79
F0.0
sg10
F0.0
sg11
F0.0
sg80
F38.5
sg81
F3.0
sg13
F0.0
ssg54
(dp303
g7
F0.0
sg79
F0.5
sg10
F0.0
sg11
F0.0
sg80
F48.5
sg81
F4.5
sg13
F0.0
ssg56
(dp304
g7
F0.0
sg79
F1.0
sg10
F0.0
sg11
F0.0
sg80
F71.5
sg81
F5.0
sg13
F0.0
ssg58
(dp305
g7
F0.0
sg79
F0.0
sg10
F0.0
sg11
F0.0
sg80
F59.0
sg81
F4.0
sg13
F0.0
ssg60
(dp306
g7
F0.0
sg79
F0.5
sg10
F0.0
sg11
F0.0
sg80
F38.5
sg81
F3.5
sg13
F0.0
ssg62
(dp307
g7
F0.0
sg79
F0.0
sg10
F0.0
sg11
F0.0
sg80
F29.5
sg81
F2.5
sg13
F0.0
ssg64
(dp308
g7
F0.0
sg79
F0.0
sg10
F0.0
sg11
F0.0
sg80
F24.0
sg81
F4.0
sg13
F0.0
ssg66
(dp309
g7
F0.0
sg79
F0.5
sg10
F0.0
sg11
F0.0
sg80
F69.5
sg81
F4.0
sg13
F0.0
ssg68
(dp310
g7
F0.0
sg79
F0.5
sg10
F0.0
sg11
F0.0
sg80
F55.5
sg81
F5.0
sg13
F0.0
ssg70
(dp311
g7
F0.0
sg79
F0.5
sg10
F0.0
sg11
F0.0
sg80
F84.0
sg81
F7.5
sg13
F0.0
ssg72
(dp312
g7
F0.0
sg79
F0.5
sg10
F0.0
sg11
F0.0
sg80
F60.5
sg81
F3.5
sg13
F0.0
ssg74
(dp313
g7
F0.0
sg79
F0.0
sg10
F0.0
sg11
F0.0
sg80
F55.5
sg81
F5.0
sg13
F0.0
ssssI3
(dp314
g2
(dp315
g4
(dp316
g6
F0.6666666666666666
sg7
F0.3333333333333333
sg8
F34.666666666666664
sg9
F1.0
sg10
F0.3333333333333333
sg11
F6.666666666666667
sg12
F199.0
sg13
F38.666666666666664
ssg14
(dp317
g6
F1.0
sg7
F0.6666666666666666
sg8
F37.666666666666664
sg9
F1.6666666666666667
sg10
F0.6666666666666666
sg11
F4.666666666666667
sg12
F249.66666666666666
sg13
F24.666666666666668
ssg16
(dp318
g6
F1.3333333333333333
sg7
F0.0
sg8
F31.0
sg9
F0.3333333333333333
sg10
F0.3333333333333333
sg11
F4.666666666666667
sg12
F223.0
sg13
F20.0
ssg18
(dp319
g6
F3.3333333333333335
sg7
F0.0
sg8
F43.666666666666664
sg9
F0.6666666666666666
sg10
F0.0
sg11
F2.6666666666666665
sg12
F318.6666666666667
sg13
F7.333333333333333
ssg20
(dp320
g6
F1.0
sg7
F0.3333333333333333
sg8
F36.333333333333336
sg9
F0.0
sg10
F0.0
sg11
F3.6666666666666665
sg12
F309.0
sg13
F11.666666666666666
ssg22
(dp321
g6
F1.6666666666666667
sg7
F0.6666666666666666
sg8
F45.0
sg9
F1.3333333333333333
sg10
F0.3333333333333333
sg11
F2.3333333333333335
sg12
F341.0
sg13
F16.333333333333332
ssg24
(dp322
g6
F2.3333333333333335
sg7
F0.6666666666666666
sg8
F36.333333333333336
sg9
F1.0
sg10
F0.0
sg11
F1.6666666666666667
sg12
F344.3333333333333
sg13
F9.0
ssg26
(dp323
g6
F3.3333333333333335
sg7
F0.0
sg8
F34.666666666666664
sg9
F0.3333333333333333
sg10
F0.0
sg11
F3.6666666666666665
sg12
F276.0
sg13
F17.666666666666668
ssg28
(dp324
g6
F0.0
sg7
F0.6666666666666666
sg8
F33.0
sg9
F1.0
sg10
F0.0
sg11
F2.0
sg12
F227.33333333333334
sg13
F14.666666666666666
ssg30
(dp325
g6
F2.3333333333333335
sg7
F0.3333333333333333
sg8
F40.333333333333336
sg9
F1.3333333333333333
sg10
F0.0
sg11
F1.3333333333333333
sg12
F299.6666666666667
sg13
F1.3333333333333333
ssg32
(dp326
g6
F1.0
sg7
F0.0
sg8
F42.666666666666664
sg9
F0.6666666666666666
sg10
F0.0
sg11
F1.3333333333333333
sg12
F332.0
sg13
F8.333333333333334
ssg34
(dp327
g6
F1.0
sg7
F0.0
sg8
F41.333333333333336
sg9
F0.0
sg10
F0.0
sg11
F1.6666666666666667
sg12
F262.0
sg13
F2.3333333333333335
ssg36
(dp328
g6
F2.3333333333333335
sg7
F0.0
sg8
F33.0
sg9
F0.3333333333333333
sg10
F0.0
sg11
F1.6666666666666667
sg12
F279.6666666666667
sg13
F3.6666666666666665
ssg38
(dp329
g6
F0.6666666666666666
sg7
F0.6666666666666666
sg8
F36.666666666666664
sg9
F1.6666666666666667
sg10
F0.3333333333333333
sg11
F5.333333333333333
sg12
F208.66666666666666
sg13
F32.333333333333336
ssg40
(dp330
g6
F3.0
sg7
F0.0
sg8
F35.666666666666664
sg9
F1.0
sg10
F0.0
sg11
F2.6666666666666665
sg12
F253.33333333333334
sg13
F11.333333333333334
ssg42
(dp331
g6
F0.6666666666666666
sg7
F0.0
sg8
F37.666666666666664
sg9
F2.6666666666666665
sg10
F0.0
sg11
F2.3333333333333335
sg12
F233.0
sg13
F9.333333333333334
ssg44
(dp332
g6
F1.3333333333333333
sg7
F0.6666666666666666
sg8
F37.0
sg9
F0.3333333333333333
sg10
F0.0
sg11
F3.3333333333333335
sg12
F275.3333333333333
sg13
F9.0
ssg46
(dp333
g6
F2.0
sg7
F0.3333333333333333
sg8
F33.0
sg9
F0.6666666666666666
sg10
F0.6666666666666666
sg11
F3.3333333333333335
sg12
F211.0
sg13
F12.333333333333334
ssg48
(dp334
g6
F0.0
sg7
F0.0
sg8
F28.0
sg9
F0.3333333333333333
sg10
F0.3333333333333333
sg11
F4.333333333333333
sg12
F181.33333333333334
sg13
F14.666666666666666
ssg50
(dp335
g6
F1.6666666666666667
sg7
F0.0
sg8
F31.333333333333332
sg9
F0.6666666666666666
sg10
F0.0
sg11
F3.3333333333333335
sg12
F303.3333333333333
sg13
F10.333333333333334
ssg52
(dp336
g6
F1.3333333333333333
sg7
F0.0
sg8
F31.0
sg9
F1.6666666666666667
sg10
F0.0
sg11
F3.3333333333333335
sg12
F188.33333333333334
sg13
F9.333333333333334
ssg54
(dp337
g6
F1.0
sg7
F0.3333333333333333
sg8
F37.0
sg9
F0.3333333333333333
sg10
F0.0
sg11
F1.3333333333333333
sg12
F310.6666666666667
sg13
F4.666666666666667
ssg56
(dp338
g6
F2.0
sg7
F0.0
sg8
F37.0
sg9
F0.6666666666666666
sg10
F0.0
sg11
F1.6666666666666667
sg12
F330.3333333333333
sg13
F3.3333333333333335
ssg58
(dp339
g6
F0.6666666666666666
sg7
F0.0
sg8
F36.0
sg9
F0.6666666666666666
sg10
F0.0
sg11
F1.6666666666666667
sg12
F248.33333333333334
sg13
F12.666666666666666
ssg60
(dp340
g6
F1.3333333333333333
sg7
F0.3333333333333333
sg8
F42.666666666666664
sg9
F0.3333333333333333
sg10
F0.0
sg11
F6.0
sg12
F276.3333333333333
sg13
F23.333333333333332
ssg62
(dp341
g6
F0.6666666666666666
sg7
F0.3333333333333333
sg8
F39.0
sg9
F1.3333333333333333
sg10
F0.0
sg11
F3.0
sg12
F306.3333333333333
sg13
F6.0
ssg64
(dp342
g6
F0.3333333333333333
sg7
F0.6666666666666666
sg8
F28.333333333333332
sg9
F0.3333333333333333
sg10
F0.3333333333333333
sg11
F4.0
sg12
F168.33333333333334
sg13
F20.666666666666668
ssg66
(dp343
g6
F2.0
sg7
F0.3333333333333333
sg8
F35.666666666666664
sg9
F1.3333333333333333
sg10
F0.0
sg11
F4.0
sg12
F263.6666666666667
sg13
F16.0
ssg68
(dp344
g6
F1.3333333333333333
sg7
F0.0
sg8
F41.0
sg9
F1.0
sg10
F0.0
sg11
F3.0
sg12
F284.6666666666667
sg13
F16.333333333333332
ssg70
(dp345
g6
F2.0
sg7
F0.3333333333333333
sg8
F41.0
sg9
F0.6666666666666666
sg10
F0.0
sg11
F1.3333333333333333
sg12
F296.0
sg13
F7.333333333333333
ssg72
(dp346
g6
F1.3333333333333333
sg7
F0.0
sg8
F30.0
sg9
F1.3333333333333333
sg10
F0.3333333333333333
sg11
F3.3333333333333335
sg12
F197.33333333333334
sg13
F9.333333333333334
ssg74
(dp347
g6
F1.3333333333333333
sg7
F0.0
sg8
F35.0
sg9
F1.0
sg10
F0.3333333333333333
sg11
F0.6666666666666666
sg12
F314.0
sg13
F1.3333333333333333
sssg76
(dp348
g4
(dp349
g7
F0.0
sg79
F0.3333333333333333
sg10
F0.0
sg11
F0.6666666666666666
sg80
F114.0
sg81
F10.0
sg13
F6.0
ssg14
(dp350
g7
F0.3333333333333333
sg79
F0.3333333333333333
sg10
F0.0
sg11
F1.0
sg80
F137.66666666666666
sg81
F11.666666666666666
sg13
F2.0
ssg16
(dp351
g7
F0.3333333333333333
sg79
F1.0
sg10
F0.0
sg11
F0.6666666666666666
sg80
F166.0
sg81
F12.666666666666666
sg13
F1.0
ssg18
(dp352
g7
F0.0
sg79
F1.3333333333333333
sg10
F0.0
sg11
F1.6666666666666667
sg80
F164.33333333333334
sg81
F14.333333333333334
sg13
F12.333333333333334
ssg20
(dp353
g7
F0.3333333333333333
sg79
F0.6666666666666666
sg10
F0.0
sg11
F0.0
sg80
F216.33333333333334
sg81
F15.333333333333334
sg13
F0.0
ssg22
(dp354
g7
F0.0
sg79
F1.0
sg10
F0.0
sg11
F0.3333333333333333
sg80
F175.33333333333334
sg81
F13.0
sg13
F-0.3333333333333333
ssg24
(dp355
g7
F0.0
sg79
F1.6666666666666667
sg10
F0.0
sg11
F0.3333333333333333
sg80
F222.0
sg81
F15.0
sg13
F3.6666666666666665
ssg26
(dp356
g7
F0.0
sg79
F1.6666666666666667
sg10
F0.0
sg11
F0.3333333333333333
sg80
F158.66666666666666
sg81
F11.333333333333334
sg13
F-0.3333333333333333
ssg28
(dp357
g7
F0.0
sg79
F0.0
sg10
F0.0
sg11
F0.6666666666666666
sg80
F181.66666666666666
sg81
F12.0
sg13
F2.6666666666666665
ssg30
(dp358
g7
F0.0
sg79
F2.0
sg10
F0.0
sg11
F0.6666666666666666
sg80
F192.66666666666666
sg81
F12.666666666666666
sg13
F5.333333333333333
ssg32
(dp359
g7
F0.3333333333333333
sg79
F0.3333333333333333
sg10
F0.0
sg11
F0.0
sg80
F166.0
sg81
F14.666666666666666
sg13
F0.0
ssg34
(dp360
g7
F0.0
sg79
F1.0
sg10
F0.0
sg11
F0.0
sg80
F182.66666666666666
sg81
F15.333333333333334
sg13
F0.0
ssg36
(dp361
g7
F0.3333333333333333
sg79
F2.3333333333333335
sg10
F0.0
sg11
F1.0
sg80
F169.33333333333334
sg81
F10.666666666666666
sg13
F8.666666666666666
ssg38
(dp362
g7
F0.0
sg79
F0.6666666666666666
sg10
F0.0
sg11
F1.0
sg80
F167.0
sg81
F14.666666666666666
sg13
F5.333333333333333
ssg40
(dp363
g7
F0.3333333333333333
sg79
F1.6666666666666667
sg10
F0.0
sg11
F0.6666666666666666
sg80
F171.66666666666666
sg81
F12.333333333333334
sg13
F2.0
ssg42
(dp364
g7
F0.3333333333333333
sg79
F0.3333333333333333
sg10
F0.0
sg11
F0.3333333333333333
sg80
F180.0
sg81
F13.333333333333334
sg13
F-0.6666666666666666
ssg44
(dp365
g7
F0.3333333333333333
sg79
F1.0
sg10
F0.3333333333333333
sg11
F1.6666666666666667
sg80
F191.0
sg81
F15.666666666666666
sg13
F7.333333333333333
ssg46
(dp366
g7
F0.0
sg79
F1.6666666666666667
sg10
F0.0
sg11
F2.0
sg80
F160.0
sg81
F13.666666666666666
sg13
F5.666666666666667
ssg48
(dp367
g7
F0.0
sg79
F0.0
sg10
F0.0
sg11
F0.6666666666666666
sg80
F128.33333333333334
sg81
F10.666666666666666
sg13
F2.0
ssg50
(dp368
g7
F0.0
sg79
F1.0
sg10
F0.0
sg11
F1.0
sg80
F212.66666666666666
sg81
F12.666666666666666
sg13
F-3.0
ssg52
(dp369
g7
F0.0
sg79
F1.3333333333333333
sg10
F0.0
sg11
F0.0
sg80
F122.66666666666667
sg81
F11.666666666666666
sg13
F0.0
ssg54
(dp370
g7
F0.3333333333333333
sg79
F0.0
sg10
F0.0
sg11
F0.3333333333333333
sg80
F179.0
sg81
F14.0
sg13
F0.6666666666666666
ssg56
(dp371
g7
F0.0
sg79
F1.3333333333333333
sg10
F0.0
sg11
F0.6666666666666666
sg80
F227.66666666666666
sg81
F14.0
sg13
F-3.3333333333333335
ssg58
(dp372
g7
F0.0
sg79
F0.6666666666666666
sg10
F0.0
sg11
F1.0
sg80
F182.0
sg81
F14.0
sg13
F3.0
ssg60
(dp373
g7
F0.0
sg79
F0.3333333333333333
sg10
F0.0
sg11
F0.0
sg80
F191.33333333333334
sg81
F16.333333333333332
sg13
F0.0
ssg62
(dp374
g7
F0.3333333333333333
sg79
F0.6666666666666666
sg10
F0.0
sg11
F0.3333333333333333
sg80
F260.0
sg81
F17.666666666666668
sg13
F3.6666666666666665
ssg64
(dp375
g7
F0.0
sg79
F0.3333333333333333
sg10
F0.0
sg11
F1.3333333333333333
sg80
F129.66666666666666
sg81
F10.333333333333334
sg13
F4.333333333333333
ssg66
(dp376
g7
F0.3333333333333333
sg79
F1.3333333333333333
sg10
F0.0
sg11
F1.0
sg80
F157.0
sg81
F11.666666666666666
sg13
F1.0
ssg68
(dp377
g7
F0.3333333333333333
sg79
F1.0
sg10
F0.0
sg11
F0.0
sg80
F187.0
sg81
F14.0
sg13
F0.0
ssg70
(dp378
g7
F0.3333333333333333
sg79
F1.0
sg10
F0.0
sg11
F0.0
sg80
F164.33333333333334
sg81
F13.333333333333334
sg13
F0.0
ssg72
(dp379
g7
F0.0
sg79
F0.3333333333333333
sg10
F0.0
sg11
F0.0
sg80
F98.66666666666667
sg81
F9.0
sg13
F0.0
ssg74
(dp380
g7
F0.0
sg79
F1.3333333333333333
sg10
F0.0
sg11
F0.0
sg80
F227.33333333333334
sg81
F14.666666666666666
sg13
F0.0
sssg113
(dp381
g4
(dp382
g7
F0.0
sg79
F0.3333333333333333
sg10
F1.0
sg11
F20.0
sg80
F29.666666666666668
sg81
F5.0
sg13
F83.0
ssg14
(dp383
g7
F0.3333333333333333
sg79
F0.6666666666666666
sg10
F0.0
sg11
F18.666666666666668
sg80
F50.333333333333336
sg81
F5.333333333333333
sg13
F57.333333333333336
ssg16
(dp384
g7
F0.0
sg79
F0.0
sg10
F1.3333333333333333
sg11
F30.666666666666668
sg80
F16.333333333333332
sg81
F3.6666666666666665
sg13
F121.66666666666667
ssg18
(dp385
g7
F0.0
sg79
F0.6666666666666666
sg10
F0.6666666666666666
sg11
F21.0
sg80
F72.0
sg81
F9.333333333333334
sg13
F100.33333333333333
ssg20
(dp386
g7
F0.3333333333333333
sg79
F0.0
sg10
F2.0
sg11
F21.333333333333332
sg80
F46.0
sg81
F5.0
sg13
F87.0
ssg22
(dp387
g7
F0.0
sg79
F0.3333333333333333
sg10
F1.0
sg11
F16.0
sg80
F71.66666666666667
sg81
F9.0
sg13
F65.66666666666667
ssg24
(dp388
g7
F0.0
sg79
F0.3333333333333333
sg10
F0.6666666666666666
sg11
F19.0
sg80
F41.333333333333336
sg81
F4.666666666666667
sg13
F92.33333333333333
ssg26
(dp389
g7
F0.0
sg79
F0.0
sg10
F0.0
sg11
F18.333333333333332
sg80
F45.333333333333336
sg81
F6.0
sg13
F97.33333333333333
ssg28
(dp390
g7
F0.3333333333333333
sg79
F0.0
sg10
F0.6666666666666666
sg11
F13.666666666666666
sg80
F31.333333333333332
sg81
F5.0
sg13
F53.666666666666664
ssg30
(dp391
g7
F0.0
sg79
F0.3333333333333333
sg10
F0.6666666666666666
sg11
F26.333333333333332
sg80
F25.666666666666668
sg81
F4.0
sg13
F102.66666666666667
ssg32
(dp392
g7
F0.3333333333333333
sg79
F0.6666666666666666
sg10
F1.0
sg11
F21.666666666666668
sg80
F101.66666666666667
sg81
F7.333333333333333
sg13
F72.33333333333333
ssg34
(dp393
g7
F0.0
sg79
F0.0
sg10
F0.3333333333333333
sg11
F22.666666666666668
sg80
F22.0
sg81
F4.333333333333333
sg13
F75.0
ssg36
(dp394
g7
F0.0
sg79
F0.0
sg10
F1.0
sg11
F22.0
sg80
F71.66666666666667
sg81
F4.0
sg13
F79.0
ssg38
(dp395
g7
F0.3333333333333333
sg79
F0.0
sg10
F1.0
sg11
F21.666666666666668
sg80
F16.666666666666668
sg81
F3.6666666666666665
sg13
F95.33333333333333
ssg40
(dp396
g7
F0.0
sg79
F0.3333333333333333
sg10
F0.0
sg11
F26.333333333333332
sg80
F49.0
sg81
F5.0
sg13
F96.0
ssg42
(dp397
g7
F0.3333333333333333
sg79
F0.3333333333333333
sg10
F0.6666666666666666
sg11
F26.666666666666668
sg80
F32.666666666666664
sg81
F5.333333333333333
sg13
F114.33333333333333
ssg44
(dp398
g7
F0.0
sg79
F0.0
sg10
F0.3333333333333333
sg11
F29.0
sg80
F23.666666666666668
sg81
F5.0
sg13
F131.0
ssg46
(dp399
g7
F0.0
sg79
F0.0
sg10
F0.3333333333333333
sg11
F22.0
sg80
F22.333333333333332
sg81
F4.666666666666667
sg13
F91.66666666666667
ssg48
(dp400
g7
F0.0
sg79
F0.0
sg10
F0.6666666666666666
sg11
F20.333333333333332
sg80
F40.333333333333336
sg81
F2.6666666666666665
sg13
F71.0
ssg50
(dp401
g7
F0.3333333333333333
sg79
F0.3333333333333333
sg10
F0.3333333333333333
sg11
F17.333333333333332
sg80
F24.333333333333332
sg81
F4.0
sg13
F64.33333333333333
ssg52
(dp402
g7
F0.0
sg79
F0.0
sg10
F0.6666666666666666
sg11
F19.333333333333332
sg80
F29.0
sg81
F4.333333333333333
sg13
F76.66666666666667
ssg54
(dp403
g7
F0.0
sg79
F0.6666666666666666
sg10
F1.3333333333333333
sg11
F23.0
sg80
F68.0
sg81
F6.666666666666667
sg13
F93.33333333333333
ssg56
(dp404
g7
F0.0
sg79
F0.0
sg10
F0.3333333333333333
sg11
F21.333333333333332
sg80
F27.666666666666668
sg81
F5.333333333333333
sg13
F42.666666666666664
ssg58
(dp405
g7
F0.0
sg79
F0.0
sg10
F0.3333333333333333
sg11
F22.666666666666668
sg80
F16.666666666666668
sg81
F2.6666666666666665
sg13
F92.66666666666667
ssg60
(dp406
g7
F0.6666666666666666
sg79
F0.0
sg10
F1.3333333333333333
sg11
F23.333333333333332
sg80
F47.0
sg81
F5.666666666666667
sg13
F76.66666666666667
ssg62
(dp407
g7
F0.0
sg79
F0.0
sg10
F1.6666666666666667
sg11
F25.0
sg80
F26.666666666666668
sg81
F4.0
sg13
F88.33333333333333
ssg64
(dp408
g7
F0.3333333333333333
sg79
F0.0
sg10
F1.0
sg11
F20.333333333333332
sg80
F19.333333333333332
sg81
F2.0
sg13
F98.66666666666667
ssg66
(dp409
g7
F0.3333333333333333
sg79
F0.0
sg10
F0.6666666666666666
sg11
F25.333333333333332
sg80
F24.0
sg81
F4.0
sg13
F105.66666666666667
ssg68
(dp410
g7
F0.6666666666666666
sg79
F0.0
sg10
F0.6666666666666666
sg11
F17.666666666666668
sg80
F43.333333333333336
sg81
F6.666666666666667
sg13
F74.0
ssg70
(dp411
g7
F0.0
sg79
F0.0
sg10
F0.3333333333333333
sg11
F17.0
sg80
F49.666666666666664
sg81
F4.666666666666667
sg13
F83.66666666666667
ssg72
(dp412
g7
F0.6666666666666666
sg79
F0.3333333333333333
sg10
F0.6666666666666666
sg11
F23.0
sg80
F29.0
sg81
F3.6666666666666665
sg13
F81.0
ssg74
(dp413
g7
F0.6666666666666666
sg79
F0.0
sg10
F2.0
sg11
F28.666666666666668
sg80
F42.666666666666664
sg81
F5.666666666666667
sg13
F130.33333333333334
sssg147
(dp414
g4
(dp415
g7
F0.0
sg79
F0.0
sg10
F0.0
sg11
F0.0
sg80
F55.333333333333336
sg81
F5.0
sg13
F0.0
ssg14
(dp416
g7
F0.0
sg79
F0.0
sg10
F0.0
sg11
F0.0
sg80
F61.666666666666664
sg81
F5.333333333333333
sg13
F0.0
ssg16
(dp417
g7
F0.0
sg79
F0.3333333333333333
sg10
F0.0
sg11
F0.0
sg80
F40.666666666666664
sg81
F4.333333333333333
sg13
F0.0
ssg18
(dp418
g7
F0.0
sg79
F1.3333333333333333
sg10
F0.0
sg11
F0.0
sg80
F82.33333333333333
sg81
F7.333333333333333
sg13
F0.0
ssg20
(dp419
g7
F0.0
sg79
F0.0
sg10
F0.0
sg11
F0.0
sg80
F29.0
sg81
F4.0
sg13
F0.0
ssg22
(dp420
g7
F0.0
sg79
F0.3333333333333333
sg10
F0.0
sg11
F0.0
sg80
F94.0
sg81
F7.666666666666667
sg13
F0.0
ssg24
(dp421
g7
F0.0
sg79
F0.3333333333333333
sg10
F0.0
sg11
F0.0
sg80
F81.66666666666667
sg81
F4.666666666666667
sg13
F0.0
ssg26
(dp422
g7
F0.0
sg79
F1.6666666666666667
sg10
F0.0
sg11
F0.0
sg80
F72.0
sg81
F6.333333333333333
sg13
F0.0
ssg28
(dp423
g7
F0.0
sg79
F0.0
sg10
F0.0
sg11
F0.0
sg80
F14.333333333333334
sg81
F2.0
sg13
F0.0
ssg30
(dp424
g7
F0.0
sg79
F0.0
sg10
F0.0
sg11
F0.0
sg80
F81.33333333333333
sg81
F7.333333333333333
sg13
F0.0
ssg32
(dp425
g7
F0.0
sg79
F0.0
sg10
F0.0
sg11
F0.0
sg80
F69.33333333333333
sg81
F6.333333333333333
sg13
F0.0
ssg34
(dp426
g7
F0.0
sg79
F0.0
sg10
F0.0
sg11
F0.0
sg80
F57.333333333333336
sg81
F5.333333333333333
sg13
F0.0
ssg36
(dp427
g7
F0.0
sg79
F0.0
sg10
F0.0
sg11
F0.0
sg80
F32.0
sg81
F3.6666666666666665
sg13
F0.0
ssg38
(dp428
g7
F0.0
sg79
F0.0
sg10
F0.0
sg11
F0.0
sg80
F24.0
sg81
F3.0
sg13
F0.0
ssg40
(dp429
g7
F0.0
sg79
F1.0
sg10
F0.0
sg11
F0.0
sg80
F32.666666666666664
sg81
F3.0
sg13
F0.0
ssg42
(dp430
g7
F0.0
sg79
F0.0
sg10
F0.0
sg11
F0.0
sg80
F20.333333333333332
sg81
F2.6666666666666665
sg13
F0.0
ssg44
(dp431
g7
F0.0
sg79
F0.3333333333333333
sg10
F0.0
sg11
F0.0
sg80
F72.33333333333333
sg81
F4.333333333333333
sg13
F0.0
ssg46
(dp432
g7
F0.0
sg79
F0.3333333333333333
sg10
F0.0
sg11
F0.0
sg80
F28.666666666666668
sg81
F3.6666666666666665
sg13
F0.0
ssg48
(dp433
g7
F0.0
sg79
F0.0
sg10
F0.0
sg11
F0.0
sg80
F32.0
sg81
F3.6666666666666665
sg13
F0.0
ssg50
(dp434
g7
F0.0
sg79
F0.3333333333333333
sg10
F0.0
sg11
F0.0
sg80
F66.33333333333333
sg81
F5.666666666666667
sg13
F0.0
ssg52
(dp435
g7
F0.0
sg79
F0.0
sg10
F0.0
sg11
F0.0
sg80
F36.666666666666664
sg81
F3.6666666666666665
sg13
F0.0
ssg54
(dp436
g7
F0.3333333333333333
sg79
F0.3333333333333333
sg10
F0.0
sg11
F0.0
sg80
F60.666666666666664
sg81
F5.0
sg13
F0.0
ssg56
(dp437
g7
F0.0
sg79
F0.6666666666666666
sg10
F0.0
sg11
F0.0
sg80
F75.0
sg81
F5.333333333333333
sg13
F0.0
ssg58
(dp438
g7
F0.0
sg79
F0.0
sg10
F0.0
sg11
F0.0
sg80
F49.666666666666664
sg81
F3.6666666666666665
sg13
F0.0
ssg60
(dp439
g7
F0.0
sg79
F1.0
sg10
F0.0
sg11
F0.0
sg80
F43.333333333333336
sg81
F4.333333333333333
sg13
F0.0
ssg62
(dp440
g7
F0.0
sg79
F0.0
sg10
F0.0
sg11
F0.0
sg80
F24.666666666666668
sg81
F2.6666666666666665
sg13
F0.0
ssg64
(dp441
g7
F0.0
sg79
F0.0
sg10
F0.0
sg11
F0.3333333333333333
sg80
F19.333333333333332
sg81
F3.3333333333333335
sg13
F2.0
ssg66
(dp442
g7
F0.3333333333333333
sg79
F0.6666666666666666
sg10
F0.0
sg11
F0.0
sg80
F82.66666666666667
sg81
F5.333333333333333
sg13
F0.0
ssg68
(dp443
g7
F0.0
sg79
F0.3333333333333333
sg10
F0.0
sg11
F0.0
sg80
F54.333333333333336
sg81
F6.0
sg13
F0.0
ssg70
(dp444
g7
F0.0
sg79
F1.0
sg10
F0.0
sg11
F0.0
sg80
F82.0
sg81
F7.666666666666667
sg13
F0.0
ssg72
(dp445
g7
F0.0
sg79
F0.6666666666666666
sg10
F0.0
sg11
F0.0
sg80
F69.66666666666667
sg81
F5.0
sg13
F0.0
ssg74
(dp446
g7
F0.0
sg79
F0.0
sg10
F0.0
sg11
F0.0
sg80
F45.333333333333336
sg81
F5.333333333333333
sg13
F0.0
ssss.