(dp0
I2016
(dp1
S'QB'
p2
(dp3
S'Broncos'
p4
(dp5
S'PassTD'
p6
F1.0
sS'Lost'
p7
F0.5
sS'PassAtt'
p8
F36.5
sS'Int'
p9
F1.0
sS'RushTD'
p10
F0.5
sS'RushAtt'
p11
F7.0
sS'PassYds'
p12
F195.5
sS'RushYds'
p13
F38.0
ssS'Vikings'
p14
(dp15
g6
F1.5
sg7
F1.0
sg8
F38.5
sg9
F1.0
sg10
F0.5
sg11
F3.5
sg12
F242.0
sg13
F24.0
ssS'Bears'
p16
(dp17
g6
F1.5
sg7
F0.0
sg8
F34.5
sg9
F0.5
sg10
F0.0
sg11
F5.0
sg12
F210.5
sg13
F12.0
ssS'Falcons'
p18
(dp19
g6
F3.5
sg7
F0.0
sg8
F38.5
sg9
F0.5
sg10
F0.0
sg11
F3.0
sg12
F290.0
sg13
F6.5
ssS'Saints'
p20
(dp21
g6
F0.5
sg7
F0.5
sg8
F39.5
sg9
F0.0
sg10
F0.0
sg11
F3.0
sg12
F343.5
sg13
F6.0
ssS'Chargers'
p22
(dp23
g6
F2.0
sg7
F0.5
sg8
F49.0
sg9
F1.5
sg10
F0.5
sg11
F3.5
sg12
F346.0
sg13
F24.5
ssS'Raiders'
p24
(dp25
g6
F3.5
sg7
F0.5
sg8
F38.0
sg9
F0.5
sg10
F0.0
sg11
F1.0
sg12
F409.5
sg13
F2.5
ssS'Lions'
p26
(dp27
g6
F3.0
sg7
F0.0
sg8
F40.0
sg9
F0.5
sg10
F0.0
sg11
F3.0
sg12
F311.5
sg13
F15.5
ssS'Eagles'
p28
(dp29
g6
F0.0
sg7
F0.5
sg8
F27.5
sg9
F1.0
sg10
F0.0
sg11
F2.5
sg12
F212.5
sg13
F18.5
ssS'Browns'
p30
(dp31
g6
F2.0
sg7
F0.0
sg8
F41.0
sg9
F1.0
sg10
F0.0
sg11
F1.5
sg12
F290.0
sg13
F1.0
ssS'Steelers'
p32
(dp33
g6
F0.5
sg7
F0.0
sg8
F48.5
sg9
F1.0
sg10
F0.0
sg11
F1.5
sg12
F347.5
sg13
F7.5
ssS'Giants'
p34
(dp35
g6
F0.5
sg7
F0.0
sg8
F44.5
sg9
F0.0
sg10
F0.0
sg11
F1.0
sg12
F245.0
sg13
F6.0
ssS'Buccaneers'
p36
(dp37
g6
F2.5
sg7
F0.0
sg8
F36.5
sg9
F0.0
sg10
F0.0
sg11
F1.5
sg12
F324.5
sg13
F5.0
ssS'Cardinals'
p38
(dp39
g6
F1.0
sg7
F1.0
sg8
F42.5
sg9
F2.0
sg10
F0.0
sg11
F3.5
sg12
F253.5
sg13
F10.5
ssS'Bengals'
p40
(dp41
g6
F2.5
sg7
F0.0
sg8
F36.0
sg9
F1.5
sg10
F0.0
sg11
F2.5
sg12
F224.0
sg13
F14.5
ssS'Chiefs'
p42
(dp43
g6
F1.0
sg7
F0.0
sg8
F34.5
sg9
F1.0
sg10
F0.0
sg11
F2.0
sg12
F255.5
sg13
F3.0
ssS'Dolphins'
p44
(dp45
g6
F2.0
sg7
F0.5
sg8
F39.0
sg9
F0.5
sg10
F0.0
sg11
F4.0
sg12
F291.0
sg13
F14.0
ssS'Jaguars'
p46
(dp47
g6
F1.5
sg7
F0.25
sg8
F14.75
sg9
F0.0
sg10
F0.25
sg11
F1.75
sg12
F104.75
sg13
F6.25
ssS'Seahawks'
p48
(dp49
g6
F0.0
sg7
F0.0
sg8
F29.5
sg9
F0.0
sg10
F0.5
sg11
F4.0
sg12
F212.5
sg13
F11.0
ssS'Jets'
p50
(dp51
g6
F2.0
sg7
F0.0
sg8
F30.5
sg9
F1.0
sg10
F0.0
sg11
F3.5
sg12
F336.5
sg13
F17.0
ssS'Ravens'
p52
(dp53
g6
F1.0
sg7
F0.0
sg8
F27.5
sg9
F1.0
sg10
F0.0
sg11
F3.5
sg12
F185.5
sg13
F5.5
ssS'Colts'
p54
(dp55
g6
F1.5
sg7
F0.0
sg8
F36.0
sg9
F0.5
sg10
F0.0
sg11
F1.5
sg12
F303.0
sg13
F6.0
ssS'Packers'
p56
(dp57
g6
F1.5
sg7
F0.0
sg8
F35.0
sg9
F0.5
sg10
F0.0
sg11
F1.5
sg12
F303.0
sg13
F-0.5
ssS'Titans'
p58
(dp59
g6
F0.5
sg7
F0.0
sg8
F36.5
sg9
F0.5
sg10
F0.0
sg11
F2.0
sg12
F248.0
sg13
F19.5
ssS'Rams'
p60
(dp61
g6
F0.25
sg7
F0.0
sg8
F17.5
sg9
F0.0
sg10
F0.0
sg11
F3.5
sg12
F106.0
sg13
F14.25
ssS'Bills'
p62
(dp63
g6
F1.0
sg7
F0.5
sg8
F33.5
sg9
F0.0
sg10
F0.0
sg11
F4.5
sg12
F316.0
sg13
F9.0
ssS'Texans'
p64
(dp65
g6
F0.5
sg7
F1.0
sg8
F33.0
sg9
F0.5
sg10
F0.0
sg11
F2.0
sg12
F201.0
sg13
F7.0
ssS'49ers'
p66
(dp67
g6
F2.0
sg7
F0.5
sg8
F37.5
sg9
F1.5
sg10
F0.0
sg11
F4.5
sg12
F241.5
sg13
F23.5
ssS'Patriots'
p68
(dp69
g6
F2.0
sg7
F0.0
sg8
F41.0
sg9
F1.0
sg10
F0.0
sg11
F4.0
sg12
F329.0
sg13
F18.0
ssS'Cowboys'
p70
(dp71
g6
F2.0
sg7
F0.0
sg8
F37.0
sg9
F1.0
sg10
F0.0
sg11
F1.0
sg12
F285.5
sg13
F10.0
ssS'Panthers'
p72
(dp73
g6
F1.5
sg7
F0.0
sg8
F31.0
sg9
F2.0
sg10
F0.5
sg11
F4.0
sg12
F210.5
sg13
F15.0
ssS'Redskins'
p74
(dp75
g6
F1.5
sg7
F0.0
sg8
F33.5
sg9
F0.5
sg10
F0.5
sg11
F1.0
sg12
F296.0
sg13
F2.0
sssS'WR'
p76
(dp77
g4
(dp78
g7
F0.0
sS'RecTD'
p79
F0.5
sg10
F0.0
sg11
F0.5
sS'RecYds'
p80
F101.5
sS'Rec'
p81
F8.0
sg13
F10.0
ssg14
(dp82
g7
F0.5
sg79
F0.5
sg10
F0.0
sg11
F0.5
sg80
F147.0
sg81
F14.0
sg13
F0.5
ssg16
(dp83
g7
F0.0
sg79
F1.0
sg10
F0.0
sg11
F0.5
sg80
F148.5
sg81
F12.0
sg13
F0.0
ssg18
(dp84
g7
F0.0
sg79
F1.5
sg10
F0.0
sg11
F1.5
sg80
F144.0
sg81
F12.0
sg13
F15.0
ssg20
(dp85
g7
F0.5
sg79
F0.5
sg10
F0.0
sg11
F0.0
sg80
F268.5
sg81
F17.5
sg13
F0.0
ssg22
(dp86
g7
F0.0
sg79
F1.0
sg10
F0.0
sg11
F0.5
sg80
F162.5
sg81
F14.0
sg13
F-0.5
ssg24
(dp87
g7
F0.0
sg79
F2.5
sg10
F0.0
sg11
F0.5
sg80
F283.0
sg81
F18.5
sg13
F5.5
ssg26
(dp88
g7
F0.0
sg79
F1.0
sg10
F0.0
sg11
F0.0
sg80
F159.5
sg81
F12.5
sg13
F0.0
ssg28
(dp89
g7
F0.0
sg79
F0.0
sg10
F0.0
sg11
F1.0
sg80
F160.5
sg81
F9.0
sg13
F4.0
ssg30
(dp90
g7
F0.0
sg79
F2.0
sg10
F0.0
sg11
F0.0
sg80
F165.5
sg81
F11.5
sg13
F0.0
ssg32
(dp91
g7
F0.5
sg79
F0.0
sg10
F0.0
sg11
F0.0
sg80
F202.5
sg81
F16.0
sg13
F0.0
ssg34
(dp92
g7
F0.0
sg79
F0.5
sg10
F0.0
sg11
F0.0
sg80
F157.5
sg81
F16.0
sg13
F0.0
ssg36
(dp93
g7
F0.0
sg79
F2.5
sg10
F0.0
sg11
F0.5
sg80
F161.5
sg81
F10.0
sg13
F2.0
ssg38
(dp94
g7
F0.0
sg79
F1.0
sg10
F0.0
sg11
F1.5
sg80
F208.0
sg81
F17.0
sg13
F8.0
ssg40
(dp95
g7
F0.0
sg79
F1.0
sg10
F0.0
sg11
F0.5
sg80
F137.5
sg81
F10.0
sg13
F3.0
ssg42
(dp96
g7
F0.0
sg79
F0.5
sg10
F0.0
sg11
F0.5
sg80
F196.0
sg81
F14.0
sg13
F-1.0
ssg44
(dp97
g7
F0.5
sg79
F1.5
sg10
F0.0
sg11
F0.0
sg80
F187.5
sg81
F17.0
sg13
F0.0
ssg46
(dp98
g7
F0.0
sg79
F1.25
sg10
F0.0
sg11
F1.0
sg80
F82.5
sg81
F6.5
sg13
F2.5
ssg48
(dp99
g7
F0.0
sg79
F0.0
sg10
F0.0
sg11
F1.0
sg80
F149.5
sg81
F12.5
sg13
F3.0
ssg50
(dp100
g7
F0.0
sg79
F1.5
sg10
F0.0
sg11
F1.0
sg80
F266.5
sg81
F14.0
sg13
F-3.0
ssg52
(dp101
g7
F0.0
sg79
F1.0
sg10
F0.0
sg11
F0.0
sg80
F113.5
sg81
F9.5
sg13
F0.0
ssg54
(dp102
g7
F0.0
sg79
F0.0
sg10
F0.0
sg11
F0.5
sg80
F177.0
sg81
F14.5
sg13
F1.0
ssg56
(dp103
g7
F0.0
sg79
F0.5
sg10
F0.0
sg11
F0.5
sg80
F208.0
sg81
F14.0
sg13
F-1.0
ssg58
(dp104
g7
F0.0
sg79
F0.5
sg10
F0.0
sg11
F1.0
sg80
F173.5
sg81
F13.5
sg13
F3.5
ssg60
(dp105
g7
F0.0
sg79
F0.0
sg10
F0.0
sg11
F0.0
sg80
F74.75
sg81
F6.5
sg13
F0.0
ssg62
(dp106
g7
F0.5
sg79
F1.0
sg10
F0.0
sg11
F0.5
sg80
F268.0
sg81
F16.5
sg13
F5.5
ssg64
(dp107
g7
F0.0
sg79
F0.5
sg10
F0.0
sg11
F0.5
sg80
F149.0
sg81
F11.5
sg13
F-0.5
ssg66
(dp108
g7
F0.5
sg79
F1.5
sg10
F0.0
sg11
F1.0
sg80
F148.0
sg81
F12.5
sg13
F3.5
ssg68
(dp109
g7
F0.5
sg79
F1.5
sg10
F0.0
sg11
F0.0
sg80
F229.5
sg81
F17.0
sg13
F0.0
ssg70
(dp110
g7
F0.0
sg79
F1.5
sg10
F0.0
sg11
F0.0
sg80
F158.0
sg81
F12.0
sg13
F0.0
ssg72
(dp111
g7
F0.0
sg79
F0.5
sg10
F0.0
sg11
F0.0
sg80
F109.5
sg81
F9.5
sg13
F0.0
ssg74
(dp112
g7
F0.0
sg79
F1.5
sg10
F0.0
sg11
F0.0
sg80
F209.0
sg81
F14.5
sg13
F0.0
sssS'RB'
p113
(dp114
g4
(dp115
g7
F0.0
sg79
F0.5
sg10
F0.5
sg11
F19.0
sg80
F26.5
sg81
F5.0
sg13
F72.0
ssg14
(dp116
g7
F0.5
sg79
F1.0
sg10
F0.0
sg11
F18.5
sg80
F46.0
sg81
F4.0
sg13
F49.0
ssg16
(dp117
g7
F0.0
sg79
F0.0
sg10
F1.0
sg11
F28.0
sg80
F13.5
sg81
F4.0
sg13
F102.5
ssg18
(dp118
g7
F0.0
sg79
F0.5
sg10
F0.5
sg11
F22.0
sg80
F77.0
sg81
F9.0
sg13
F101.0
ssg20
(dp119
g7
F0.5
sg79
F0.0
sg10
F1.5
sg11
F26.0
sg80
F45.5
sg81
F6.0
sg13
F109.5
ssg22
(dp120
g7
F0.0
sg79
F0.5
sg10
F0.5
sg11
F11.0
sg80
F92.5
sg81
F11.5
sg13
F52.0
ssg24
(dp121
g7
F0.0
sg79
F0.5
sg10
F0.5
sg11
F15.5
sg80
F34.5
sg81
F4.0
sg13
F59.0
ssg26
(dp122
g7
F0.0
sg79
F0.0
sg10
F0.0
sg11
F18.5
sg80
F62.5
sg81
F8.0
sg13
F95.0
ssg28
(dp123
g7
F0.5
sg79
F0.0
sg10
F1.0
sg11
F16.0
sg80
F35.5
sg81
F5.5
sg13
F69.5
ssg30
(dp124
g7
F0.0
sg79
F0.0
sg10
F0.5
sg11
F28.5
sg80
F28.0
sg81
F3.5
sg13
F105.5
ssg32
(dp125
g7
F0.5
sg79
F0.5
sg10
F0.5
sg11
F13.5
sg80
F81.0
sg81
F7.5
sg13
F43.0
ssg34
(dp126
g7
F0.0
sg79
F0.0
sg10
F0.5
sg11
F20.5
sg80
F29.5
sg81
F5.0
sg13
F65.0
ssg36
(dp127
g7
F0.0
sg79
F0.0
sg10
F0.5
sg11
F18.5
sg80
F105.0
sg81
F5.0
sg13
F61.5
ssg38
(dp128
g7
F0.5
sg79
F0.0
sg10
F0.5
sg11
F21.0
sg80
F22.0
sg81
F4.0
sg13
F77.0
ssg40
(dp129
g7
F0.0
sg79
F0.5
sg10
F0.0
sg11
F30.0
sg80
F56.5
sg81
F6.0
sg13
F120.5
ssg42
(dp130
g7
F0.0
sg79
F0.5
sg10
F1.0
sg11
F30.5
sg80
F29.0
sg81
F4.0
sg13
F124.0
ssg44
(dp131
g7
F0.0
sg79
F0.0
sg10
F0.5
sg11
F31.0
sg80
F28.0
sg81
F4.5
sg13
F122.5
ssg46
(dp132
g7
F0.0
sg79
F0.0
sg10
F0.25
sg11
F12.25
sg80
F11.25
sg81
F1.5
sg13
F52.5
ssg48
(dp133
g7
F0.0
sg79
F0.0
sg10
F0.0
sg11
F17.5
sg80
F58.5
sg81
F3.0
sg13
F50.0
ssg50
(dp134
g7
F0.0
sg79
F0.5
sg10
F0.5
sg11
F14.5
sg80
F27.0
sg81
F3.5
sg13
F57.5
ssg52
(dp135
g7
F0.0
sg79
F0.0
sg10
F1.0
sg11
F20.0
sg80
F33.5
sg81
F5.0
sg13
F99.5
ssg54
(dp136
g7
F0.0
sg79
F1.0
sg10
F1.5
sg11
F25.5
sg80
F77.5
sg81
F7.5
sg13
F118.0
ssg56
(dp137
g7
F0.0
sg79
F0.0
sg10
F0.5
sg11
F22.0
sg80
F23.5
sg81
F4.0
sg13
F40.5
ssg58
(dp138
g7
F0.0
sg79
F0.0
sg10
F0.0
sg11
F22.5
sg80
F15.5
sg81
F2.5
sg13
F78.0
ssg60
(dp139
g7
F0.5
sg79
F0.0
sg10
F0.75
sg11
F13.0
sg80
F16.0
sg81
F2.5
sg13
F40.0
ssg62
(dp140
g7
F0.0
sg79
F0.0
sg10
F1.5
sg11
F27.0
sg80
F26.0
sg81
F4.5
sg13
F88.5
ssg64
(dp141
g7
F0.5
sg79
F0.0
sg10
F0.5
sg11
F17.0
sg80
F28.0
sg81
F2.5
sg13
F89.5
ssg66
(dp142
g7
F0.5
sg79
F0.0
sg10
F0.0
sg11
F24.5
sg80
F24.0
sg81
F4.0
sg13
F93.5
ssg68
(dp143
g7
F0.5
sg79
F0.0
sg10
F1.0
sg11
F13.5
sg80
F44.0
sg81
F6.0
sg13
F63.0
ssg70
(dp144
g7
F0.0
sg79
F0.0
sg10
F0.5
sg11
F19.5
sg80
F43.5
sg81
F4.0
sg13
F87.5
ssg72
(dp145
g7
F1.0
sg79
F0.5
sg10
F1.0
sg11
F23.5
sg80
F40.5
sg81
F4.5
sg13
F91.5
ssg74
(dp146
g7
F0.5
sg79
F0.0
sg10
F2.0
sg11
F32.5
sg80
F33.5
sg81
F6.5
sg13
F135.5
sssS'TE'
p147
(dp148
g4
(dp149
g7
F0.0
sg79
F0.0
sg10
F0.0
sg11
F0.0
sg80
F67.5
sg81
F6.5
sg13
F0.0
ssg14
(dp150
g7
F0.0
sg79
F0.0
sg10
F0.0
sg11
F0.0
sg80
F49.0
sg81
F4.5
sg13
F0.0
ssg16
(dp151
g7
F0.0
sg79
F0.5
sg10
F0.0
sg11
F0.0
sg80
F48.5
sg81
F5.5
sg13
F0.0
ssg18
(dp152
g7
F0.0
sg79
F1.5
sg10
F0.0
sg11
F0.0
sg80
F69.0
sg81
F7.5
sg13
F0.0
ssg20
(dp153
g7
F0.0
sg79
F0.0
sg10
F0.0
sg11
F0.0
sg80
F29.5
sg81
F4.5
sg13
F0.0
ssg22
(dp154
g7
F0.0
sg79
F0.5
sg10
F0.0
sg11
F0.0
sg80
F91.0
sg81
F7.0
sg13
F0.0
ssg24
(dp155
g7
F0.0
sg79
F0.5
sg10
F0.0
sg11
F0.0
sg80
F93.0
sg81
F5.5
sg13
F0.0
ssg26
(dp156
g7
F0.0
sg79
F2.0
sg10
F0.0
sg11
F0.0
sg80
F89.5
sg81
F7.5
sg13
F0.0
ssg28
(dp157
g7
F0.0
sg79
F0.0
sg10
F0.0
sg11
F0.0
sg80
F16.5
sg81
F2.0
sg13
F0.0
ssg30
(dp158
g7
F0.0
sg79
F0.0
sg10
F0.0
sg11
F0.0
sg80
F96.5
sg81
F8.5
sg13
F0.0
ssg32
(dp159
g7
F0.0
sg79
F0.0
sg10
F0.0
sg11
F0.0
sg80
F64.0
sg81
F7.0
sg13
F0.0
ssg34
(dp160
g7
F0.0
sg79
F0.0
sg10
F0.0
sg11
F0.0
sg80
F58.0
sg81
F6.0
sg13
F0.0
ssg36
(dp161
g7
F0.0
sg79
F0.0
sg10
F0.0
sg11
F0.0
sg80
F48.0
sg81
F5.5
sg13
F0.0
ssg38
(dp162
g7
F0.0
sg79
F0.0
sg10
F0.0
sg11
F0.0
sg80
F22.0
sg81
F4.0
sg13
F0.0
ssg40
(dp163
g7
F0.0
sg79
F1.0
sg10
F0.0
sg11
F0.0
sg80
F30.0
sg81
F3.0
sg13
F0.0
ssg42
(dp164
g7
F0.0
sg79
F0.0
sg10
F0.0
sg11
F0.0
sg80
F30.5
sg81
F4.0
sg13
F0.0
ssg44
(dp165
g7
F0.0
sg79
F0.5
sg10
F0.0
sg11
F0.0
sg80
F75.5
sg81
F4.0
sg13
F0.0
ssg46
(dp166
g7
F0.0
sg79
F0.25
sg10
F0.0
sg11
F0.0
sg80
F11.0
sg81
F1.25
sg13
F0.0
ssg48
(dp167
g7
F0.0
sg79
F0.0
sg10
F0.0
sg11
F0.0
sg80
F33.5
sg81
F3.0
sg13
F0.0
ssg50
(dp168
g7
F0.0
sg79
F0.0
sg10
F0.0
sg11
F0.0
sg80
F43.0
sg81
F3.5
sg13
F0.0
ssg52
(dp169
g7
F0.0
sg79
F0.0
sg10
F0.0
sg11
F0.0
sg80
F38.5
sg81
F3.0
sg13
F0.0
ssg54
(dp170
g7
F0.0
sg79
F0.5
sg10
F0.0
sg11
F0.0
sg80
F48.5
sg81
F4.5
sg13
F0.0
ssg56
(dp171
g7
F0.0
sg79
F1.0
sg10
F0.0
sg11
F0.0
sg80
F71.5
sg81
F5.0
sg13
F0.0
ssg58
(dp172
g7
F0.0
sg79
F0.0
sg10
F0.0
sg11
F0.0
sg80
F59.0
sg81
F4.0
sg13
F0.0
ssg60
(dp173
g7
F0.0
sg79
F0.25
sg10
F0.0
sg11
F0.0
sg80
F19.25
sg81
F1.75
sg13
F0.0
ssg62
(dp174
g7
F0.0
sg79
F0.0
sg10
F0.0
sg11
F0.0
sg80
F29.5
sg81
F2.5
sg13
F0.0
ssg64
(dp175
g7
F0.0
sg79
F0.0
sg10
F0.0
sg11
F0.0
sg80
F24.0
sg81
F4.0
sg13
F0.0
ssg66
(dp176
g7
F0.0
sg79
F0.5
sg10
F0.0
sg11
F0.0
sg80
F69.5
sg81
F4.0
sg13
F0.0
ssg68
(dp177
g7
F0.0
sg79
F0.5
sg10
F0.0
sg11
F0.0
sg80
F55.5
sg81
F5.0
sg13
F0.0
ssg70
(dp178
g7
F0.0
sg79
F0.5
sg10
F0.0
sg11
F0.0
sg80
F84.0
sg81
F7.5
sg13
F0.0
ssg72
(dp179
g7
F0.0
sg79
F0.5
sg10
F0.0
sg11
F0.0
sg80
F60.5
sg81
F3.5
sg13
F0.0
ssg74
(dp180
g7
F0.0
sg79
F0.0
sg10
F0.0
sg11
F0.0
sg80
F55.5
sg81
F5.0
sg13
F0.0
ssssI2015
(dp181
g2
(dp182
g4
(dp183
g6
F1.1875
sg7
F0.375
sg8
F35.8125
sg9
F0.875
sg10
F0.0
sg11
F2.5625
sg12
F221.5
sg13
F12.125
ssg14
(dp184
g6
F1.4375
sg7
F0.1875
sg8
F33.375
sg9
F0.6875
sg10
F0.125
sg11
F2.625
sg12
F239.3125
sg13
F10.6875
ssg16
(dp185
g6
F1.9375
sg7
F0.0625
sg8
F31.9375
sg9
F0.5
sg10
F0.1875
sg11
F3.625
sg12
F239.375
sg13
F18.875
ssg18
(dp186
g6
F1.0625
sg7
F0.125
sg8
F33.0
sg9
F0.8125
sg10
F0.25
sg11
F3.0
sg12
F236.625
sg13
F11.3125
ssg20
(dp187
g6
F2.6470588235294117
sg7
F0.11764705882352941
sg8
F32.0
sg9
F0.5294117647058824
sg10
F0.11764705882352941
sg11
F3.0
sg12
F279.70588235294116
sg13
F11.411764705882353
ssg22
(dp188
g6
F1.3125
sg7
F0.1875
sg8
F29.6875
sg9
F0.625
sg10
F0.125
sg11
F2.875
sg12
F233.5
sg13
F10.375
ssg24
(dp189
g6
F1.5625
sg7
F0.0
sg8
F37.8125
sg9
F0.75
sg10
F0.125
sg11
F2.3125
sg12
F255.125
sg13
F12.6875
ssg26
(dp190
g6
F1.5625
sg7
F0.3125
sg8
F30.375
sg9
F0.5
sg10
F0.1875
sg11
F2.875
sg12
F233.8125
sg13
F14.125
ssg28
(dp191
g6
F2.25
sg7
F0.25
sg8
F39.5
sg9
F0.9375
sg10
F0.1875
sg11
F3.1875
sg12
F280.0
sg13
F10.1875
ssg30
(dp192
g6
F2.0625
sg7
F0.125
sg8
F28.9375
sg9
F0.5
sg10
F0.1875
sg11
F3.0
sg12
F242.4375
sg13
F10.0
ssg32
(dp193
g6
F1.75
sg7
F0.25
sg8
F36.8125
sg9
F0.9375
sg10
F0.0625
sg11
F3.0
sg12
F277.75
sg13
F9.5
ssg34
(dp194
g6
F1.9375
sg7
F0.125
sg8
F39.875
sg9
F0.9375
sg10
F0.125
sg11
F3.1875
sg12
F307.5
sg13
F14.3125
ssg36
(dp195
g6
F1.8125
sg7
F0.1875
sg8
F31.125
sg9
F0.6875
sg10
F0.1875
sg11
F2.9375
sg12
F234.8125
sg13
F8.3125
ssg38
(dp196
g6
F1.5
sg7
F0.375
sg8
F35.3125
sg9
F1.1875
sg10
F0.0625
sg11
F3.25
sg12
F246.9375
sg13
F13.6875
ssg40
(dp197
g6
F1.0625
sg7
F0.1875
sg8
F39.6875
sg9
F1.3125
sg10
F0.0625
sg11
F2.1875
sg12
F262.1875
sg13
F9.75
ssg42
(dp198
g6
F1.2941176470588236
sg7
F0.23529411764705882
sg8
F31.88235294117647
sg9
F1.0
sg10
F0.0
sg11
F2.7058823529411766
sg12
F217.47058823529412
sg13
F16.294117647058822
ssg44
(dp199
g6
F1.9375
sg7
F0.1875
sg8
F32.0625
sg9
F0.8125
sg10
F0.0
sg11
F2.8125
sg12
F253.0
sg13
F8.875
ssg46
(dp200
g6
F0.109375
sg7
F0.01171875
sg8
F1.99609375
sg9
F0.03125
sg10
F0.0078125
sg11
F0.26953125
sg12
F15.5703125
sg13
F1.0546875
ssg48
(dp201
g6
F0.875
sg7
F0.25
sg8
F34.1875
sg9
F0.875
sg10
F0.1875
sg11
F3.1875
sg12
F226.1875
sg13
F12.3125
ssg50
(dp202
g6
F1.3125
sg7
F0.375
sg8
F35.25
sg9
F1.125
sg10
F0.125
sg11
F3.0
sg12
F234.375
sg13
F12.3125
ssg52
(dp203
g6
F1.8125
sg7
F0.1875
sg8
F29.9375
sg9
F0.3125
sg10
F0.125
sg11
F2.3125
sg12
F228.625
sg13
F8.25
ssg54
(dp204
g6
F1.6875
sg7
F0.1875
sg8
F33.6875
sg9
F0.875
sg10
F0.125
sg11
F3.3125
sg12
F251.0
sg13
F14.375
ssg56
(dp205
g6
F1.25
sg7
F0.0625
sg8
F32.5625
sg9
F0.9375
sg10
F0.0625
sg11
F4.0
sg12
F221.125
sg13
F23.75
ssg58
(dp206
g6
F2.0625
sg7
F0.1875
sg8
F30.5
sg9
F0.6875
sg10
F0.25
sg11
F3.8125
sg12
F242.5
sg13
F13.6875
ssg60
(dp207
g6
F0.08203125
sg7
F0.01953125
sg8
F2.30859375
sg9
F0.05078125
sg10
F0.00390625
sg11
F0.22265625
sg12
F16.65234375
sg13
F0.85546875
ssg62
(dp208
g6
F1.7647058823529411
sg7
F0.11764705882352941
sg8
F35.35294117647059
sg9
F1.0
sg10
F0.058823529411764705
sg11
F2.764705882352941
sg12
F240.47058823529412
sg13
F9.588235294117647
ssg64
(dp209
g6
F1.3125
sg7
F0.1875
sg8
F30.75
sg9
F0.8125
sg10
F0.1875
sg11
F3.0625
sg12
F206.5
sg13
F12.8125
ssg66
(dp210
g6
F1.3125
sg7
F0.0
sg8
F34.25
sg9
F0.5625
sg10
F0.0625
sg11
F3.375
sg12
F273.4375
sg13
F9.5
ssg68
(dp211
g6
F1.411764705882353
sg7
F0.29411764705882354
sg8
F34.94117647058823
sg9
F0.7058823529411765
sg10
F0.058823529411764705
sg11
F2.235294117647059
sg12
F247.35294117647058
sg13
F10.529411764705882
ssg70
(dp212
g6
F1.1875
sg7
F0.0625
sg8
F31.625
sg9
F0.5
sg10
F0.1875
sg11
F4.125
sg12
F241.3125
sg13
F14.375
ssg72
(dp213
g6
F1.3125
sg7
F0.25
sg8
F40.625
sg9
F1.5
sg10
F0.125
sg11
F3.125
sg12
F253.375
sg13
F14.1875
ssg74
(dp214
g6
F1.875
sg7
F0.3125
sg8
F35.375
sg9
F0.6875
sg10
F0.0625
sg11
F2.375
sg12
F274.5
sg13
F11.5625
sssg76
(dp215
g4
(dp216
g7
F0.1875
sg79
F0.4375
sg10
F0.0625
sg11
F0.375
sg80
F128.1875
sg81
F11.0
sg13
F2.0625
ssg14
(dp217
g7
F0.0625
sg79
F0.9375
sg10
F0.0
sg11
F0.75
sg80
F141.5
sg81
F11.3125
sg13
F4.75
ssg16
(dp218
g7
F0.25
sg79
F1.0625
sg10
F0.0
sg11
F0.4375
sg80
F118.125
sg81
F9.3125
sg13
F2.0625
ssg18
(dp219
g7
F0.0625
sg79
F0.4375
sg10
F0.0
sg11
F0.3125
sg80
F131.0625
sg81
F9.8125
sg13
F2.3125
ssg20
(dp220
g7
F0.058823529411764705
sg79
F1.588235294117647
sg10
F0.0
sg11
F0.29411764705882354
sg80
F146.11764705882354
sg81
F10.529411764705882
sg13
F2.411764705882353
ssg22
(dp221
g7
F0.125
sg79
F0.6875
sg10
F0.0
sg11
F0.5
sg80
F150.8125
sg81
F11.3125
sg13
F2.4375
ssg24
(dp222
g7
F0.375
sg79
F0.625
sg10
F0.0
sg11
F0.9375
sg80
F162.0
sg81
F13.625
sg13
F5.1875
ssg26
(dp223
g7
F0.125
sg79
F0.875
sg10
F0.0625
sg11
F0.625
sg80
F164.625
sg81
F13.25
sg13
F5.3125
ssg28
(dp224
g7
F0.0625
sg79
F1.3125
sg10
F0.0
sg11
F0.3125
sg80
F175.0625
sg81
F13.875
sg13
F3.75
ssg30
(dp225
g7
F0.25
sg79
F1.375
sg10
F0.0625
sg11
F0.5625
sg80
F185.1875
sg81
F12.375
sg13
F4.1875
ssg32
(dp226
g7
F0.125
sg79
F1.1875
sg10
F0.0625
sg11
F0.5
sg80
F193.1875
sg81
F14.75
sg13
F4.625
ssg34
(dp227
g7
F0.3125
sg79
F1.0625
sg10
F0.0
sg11
F0.375
sg80
F169.4375
sg81
F14.0
sg13
F2.0
ssg36
(dp228
g7
F0.25
sg79
F1.375
sg10
F0.0625
sg11
F0.375
sg80
F169.1875
sg81
F13.1875
sg13
F2.125
ssg38
(dp229
g7
F0.25
sg79
F0.875
sg10
F0.0
sg11
F0.875
sg80
F137.875
sg81
F10.375
sg13
F4.3125
ssg40
(dp230
g7
F0.125
sg79
F0.75
sg10
F0.0625
sg11
F0.625
sg80
F154.625
sg81
F13.25
sg13
F4.8125
ssg42
(dp231
g7
F0.058823529411764705
sg79
F1.1176470588235294
sg10
F0.0
sg11
F0.4117647058823529
sg80
F162.2941176470588
sg81
F12.176470588235293
sg13
F1.6470588235294117
ssg44
(dp232
g7
F0.0
sg79
F1.1875
sg10
F0.0
sg11
F0.375
sg80
F166.8125
sg81
F12.25
sg13
F2.0
ssg46
(dp233
g7
F0.00390625
sg79
F0.05859375
sg10
F0.0
sg11
F0.03125
sg80
F10.390625
sg81
F0.79296875
sg13
F0.13671875
ssg48
(dp234
g7
F0.0
sg79
F0.375
sg10
F0.125
sg11
F0.9375
sg80
F129.0
sg81
F10.1875
sg13
F4.0625
ssg50
(dp235
g7
F0.0
sg79
F1.0625
sg10
F0.0
sg11
F0.8125
sg80
F161.5625
sg81
F12.0625
sg13
F7.0
ssg52
(dp236
g7
F0.0625
sg79
F1.625
sg10
F0.0
sg11
F0.5
sg80
F164.625
sg81
F13.0625
sg13
F3.625
ssg54
(dp237
g7
F0.0
sg79
F1.25
sg10
F0.0
sg11
F0.375
sg80
F177.8125
sg81
F12.5
sg13
F3.375
ssg56
(dp238
g7
F0.0625
sg79
F0.6875
sg10
F0.0
sg11
F0.6875
sg80
F148.375
sg81
F10.625
sg13
F5.8125
ssg58
(dp239
g7
F0.125
sg79
F1.3125
sg10
F0.0625
sg11
F0.375
sg80
F164.0625
sg81
F11.5625
sg13
F2.375
ssg60
(dp240
g7
F0.015625
sg79
F0.05078125
sg10
F0.0
sg11
F0.01171875
sg80
F9.75390625
sg81
F0.828125
sg13
F0.2265625
ssg62
(dp241
g7
F0.23529411764705882
sg79
F1.1176470588235294
sg10
F0.0
sg11
F0.7058823529411765
sg80
F168.58823529411765
sg81
F13.294117647058824
sg13
F3.0588235294117645
ssg64
(dp242
g7
F0.25
sg79
F1.0625
sg10
F0.0
sg11
F0.25
sg80
F142.9375
sg81
F11.375
sg13
F0.8125
ssg66
(dp243
g7
F0.0625
sg79
F0.75
sg10
F0.0625
sg11
F1.0
sg80
F175.0
sg81
F12.1875
sg13
F4.625
ssg68
(dp244
g7
F0.0
sg79
F0.9411764705882353
sg10
F0.0
sg11
F0.29411764705882354
sg80
F172.2941176470588
sg81
F12.0
sg13
F0.7647058823529411
ssg70
(dp245
g7
F0.0625
sg79
F0.75
sg10
F0.0
sg11
F0.25
sg80
F149.375
sg81
F10.875
sg13
F1.25
ssg72
(dp246
g7
F0.0625
sg79
F0.75
sg10
F0.0
sg11
F0.0
sg80
F155.25
sg81
F12.5
sg13
F0.0
ssg74
(dp247
g7
F0.3125
sg79
F1.3125
sg10
F0.0
sg11
F0.75
sg80
F168.4375
sg81
F11.3125
sg13
F7.5625
sssg113
(dp248
g4
(dp249
g7
F0.1875
sg79
F0.25
sg10
F0.5
sg11
F21.5
sg80
F41.5
sg81
F5.5625
sg13
F69.0625
ssg14
(dp250
g7
F0.25
sg79
F0.125
sg10
F0.3125
sg11
F21.4375
sg80
F40.25
sg81
F4.4375
sg13
F91.5625
ssg16
(dp251
g7
F0.25
sg79
F0.375
sg10
F0.375
sg11
F21.25
sg80
F44.125
sg81
F4.625
sg13
F92.0625
ssg18
(dp252
g7
F0.25
sg79
F0.0625
sg10
F0.75
sg11
F20.0625
sg80
F55.5625
sg81
F6.9375
sg13
F81.4375
ssg20
(dp253
g7
F0.4117647058823529
sg79
F0.35294117647058826
sg10
F0.47058823529411764
sg11
F19.647058823529413
sg80
F45.23529411764706
sg81
F5.176470588235294
sg13
F98.70588235294117
ssg22
(dp254
g7
F0.1875
sg79
F0.1875
sg10
F0.875
sg11
F21.9375
sg80
F44.75
sg81
F4.6875
sg13
F109.6875
ssg24
(dp255
g7
F0.125
sg79
F0.1875
sg10
F0.625
sg11
F21.75
sg80
F45.625
sg81
F6.0625
sg13
F85.625
ssg26
(dp256
g7
F0.125
sg79
F0.0625
sg10
F0.875
sg11
F22.5
sg80
F33.125
sg81
F3.8125
sg13
F92.3125
ssg28
(dp257
g7
F0.0625
sg79
F0.375
sg10
F0.375
sg11
F24.125
sg80
F41.25
sg81
F4.9375
sg13
F113.8125
ssg30
(dp258
g7
F0.1875
sg79
F0.125
sg10
F0.4375
sg11
F25.125
sg80
F38.1875
sg81
F3.8125
sg13
F115.0625
ssg32
(dp259
g7
F0.3125
sg79
F0.125
sg10
F0.25
sg11
F20.0625
sg80
F40.0
sg81
F4.75
sg13
F76.8125
ssg34
(dp260
g7
F0.25
sg79
F0.25
sg10
F0.8125
sg11
F21.75
sg80
F43.0625
sg81
F5.4375
sg13
F95.375
ssg36
(dp261
g7
F0.25
sg79
F0.3125
sg10
F0.5
sg11
F24.875
sg80
F30.4375
sg81
F4.4375
sg13
F88.3125
ssg38
(dp262
g7
F0.25
sg79
F0.25
sg10
F0.4375
sg11
F18.3125
sg80
F46.1875
sg81
F4.8125
sg13
F67.25
ssg40
(dp263
g7
F0.0625
sg79
F0.3125
sg10
F0.375
sg11
F18.4375
sg80
F49.25
sg81
F6.3125
sg13
F77.5625
ssg42
(dp264
g7
F0.11764705882352941
sg79
F0.17647058823529413
sg10
F0.4117647058823529
sg11
F18.764705882352942
sg80
F28.941176470588236
sg81
F4.176470588235294
sg13
F69.17647058823529
ssg44
(dp265
g7
F0.0
sg79
F0.5
sg10
F0.8125
sg11
F27.125
sg80
F44.8125
sg81
F5.1875
sg13
F112.5625
ssg46
(dp266
g7
F0.0078125
sg79
F0.01953125
sg10
F0.05078125
sg11
F1.48046875
sg80
F3.30859375
sg81
F0.39453125
sg13
F5.44140625
ssg48
(dp267
g7
F0.25
sg79
F0.0
sg10
F0.3125
sg11
F18.5
sg80
F38.9375
sg81
F5.4375
sg13
F65.125
ssg50
(dp268
g7
F0.1875
sg79
F0.3125
sg10
F0.125
sg11
F18.5
sg80
F40.125
sg81
F4.8125
sg13
F62.75
ssg52
(dp269
g7
F0.25
sg79
F0.0625
sg10
F0.5
sg11
F22.6875
sg80
F35.75
sg81
F4.5
sg13
F89.9375
ssg54
(dp270
g7
F0.25
sg79
F0.1875
sg10
F0.75
sg11
F24.4375
sg80
F34.9375
sg81
F4.5
sg13
F101.5625
ssg56
(dp271
g7
F0.25
sg79
F0.0625
sg10
F0.75
sg11
F19.25
sg80
F31.5625
sg81
F3.6875
sg13
F85.5625
ssg58
(dp272
g7
F0.0625
sg79
F0.125
sg10
F0.375
sg11
F24.125
sg80
F31.0625
sg81
F3.5
sg13
F94.375
ssg60
(dp273
g7
F0.01171875
sg79
F0.01171875
sg10
F0.015625
sg11
F1.35546875
sg80
F3.44921875
sg81
F0.3671875
sg13
F5.07421875
ssg62
(dp274
g7
F0.11764705882352941
sg79
F0.23529411764705882
sg10
F0.5294117647058824
sg11
F18.823529411764707
sg80
F32.23529411764706
sg81
F3.3529411764705883
sg13
F86.82352941176471
ssg64
(dp275
g7
F0.25
sg79
F0.1875
sg10
F0.4375
sg11
F20.25
sg80
F40.25
sg81
F4.5
sg13
F85.0625
ssg66
(dp276
g7
F0.125
sg79
F0.1875
sg10
F1.0
sg11
F24.8125
sg80
F45.375
sg81
F6.0625
sg13
F103.5625
ssg68
(dp277
g7
F0.058823529411764705
sg79
F0.058823529411764705
sg10
F0.4117647058823529
sg11
F19.0
sg80
F35.23529411764706
sg81
F5.0
sg13
F76.0
ssg70
(dp278
g7
F0.0625
sg79
F0.1875
sg10
F0.8125
sg11
F21.5625
sg80
F49.0625
sg81
F5.5
sg13
F95.875
ssg72
(dp279
g7
F0.3125
sg79
F0.1875
sg10
F0.5
sg11
F17.8125
sg80
F49.625
sg81
F6.6875
sg13
F68.9375
ssg74
(dp280
g7
F0.3125
sg79
F0.1875
sg10
F0.5625
sg11
F22.0625
sg80
F38.4375
sg81
F5.25
sg13
F103.5
sssg147
(dp281
g4
(dp282
g7
F0.0
sg79
F0.4375
sg10
F0.0
sg11
F0.0625
sg80
F56.375
sg81
F4.75
sg13
F0.125
ssg14
(dp283
g7
F0.0
sg79
F0.3125
sg10
F0.0
sg11
F0.0625
sg80
F56.4375
sg81
F5.25
sg13
F0.125
ssg16
(dp284
g7
F0.0
sg79
F0.375
sg10
F0.0
sg11
F0.0625
sg80
F53.5
sg81
F4.8125
sg13
F0.6875
ssg18
(dp285
g7
F0.0625
sg79
F0.5625
sg10
F0.0
sg11
F0.0
sg80
F63.375
sg81
F5.9375
sg13
F0.0
ssg20
(dp286
g7
F0.11764705882352941
sg79
F0.6470588235294118
sg10
F0.0
sg11
F0.0
sg80
F75.88235294117646
sg81
F5.647058823529412
sg13
F0.0
ssg22
(dp287
g7
F0.0
sg79
F0.5
sg10
F0.0
sg11
F0.0
sg80
F50.3125
sg81
F4.5
sg13
F0.0
ssg24
(dp288
g7
F0.125
sg79
F0.75
sg10
F0.0
sg11
F0.0
sg80
F54.9375
sg81
F4.875
sg13
F0.0
ssg26
(dp289
g7
F0.0
sg79
F0.75
sg10
F0.0
sg11
F0.0625
sg80
F52.375
sg81
F4.875
sg13
F0.0
ssg28
(dp290
g7
F0.1875
sg79
F0.375
sg10
F0.0
sg11
F0.0
sg80
F49.9375
sg81
F4.5625
sg13
F0.0
ssg30
(dp291
g7
F0.0625
sg79
F0.5625
sg10
F0.0
sg11
F0.0
sg80
F33.5625
sg81
F3.4375
sg13
F0.0
ssg32
(dp292
g7
F0.0
sg79
F0.5
sg10
F0.0
sg11
F0.0
sg80
F57.125
sg81
F5.4375
sg13
F0.0
ssg34
(dp293
g7
F0.0625
sg79
F0.5625
sg10
F0.0
sg11
F0.0
sg80
F81.4375
sg81
F6.3125
sg13
F0.0
ssg36
(dp294
g7
F0.0
sg79
F0.25
sg10
F0.0
sg11
F0.0
sg80
F53.3125
sg81
F5.6875
sg13
F0.0
ssg38
(dp295
g7
F0.0
sg79
F0.375
sg10
F0.0
sg11
F0.0
sg80
F54.5625
sg81
F5.375
sg13
F0.0
ssg40
(dp296
g7
F0.0625
sg79
F0.0625
sg10
F0.0
sg11
F0.0
sg80
F52.375
sg81
F5.0625
sg13
F0.0
ssg42
(dp297
g7
F0.0
sg79
F0.17647058823529413
sg10
F0.0
sg11
F0.0
sg80
F38.35294117647059
sg81
F3.8823529411764706
sg13
F0.0
ssg44
(dp298
g7
F0.0
sg79
F0.25
sg10
F0.0
sg11
F0.0
sg80
F55.1875
sg81
F4.5625
sg13
F0.0
ssg46
(dp299
g7
F0.00390625
sg79
F0.03515625
sg10
F0.0
sg11
F0.0
sg80
F3.76953125
sg81
F0.31640625
sg13
F0.0
ssg48
(dp300
g7
F0.0
sg79
F0.5
sg10
F0.0
sg11
F0.0
sg80
F51.75
sg81
F4.375
sg13
F0.0
ssg50
(dp301
g7
F0.0
sg79
F0.125
sg10
F0.0
sg11
F0.0
sg80
F46.625
sg81
F4.1875
sg13
F0.0
ssg52
(dp302
g7
F0.0
sg79
F0.1875
sg10
F0.0
sg11
F0.0
sg80
F43.1875
sg81
F3.8125
sg13
F0.0
ssg54
(dp303
g7
F0.0
sg79
F0.375
sg10
F0.0
sg11
F0.0625
sg80
F61.0
sg81
F5.25
sg13
F2.25
ssg56
(dp304
g7
F0.0
sg79
F0.4375
sg10
F0.0
sg11
F0.0
sg80
F50.625
sg81
F4.6875
sg13
F0.0
ssg58
(dp305
g7
F0.0
sg79
F0.6875
sg10
F0.0
sg11
F0.0
sg80
F50.4375
sg81
F4.75
sg13
F0.0
ssg60
(dp306
g7
F0.0
sg79
F0.0234375
sg10
F0.0
sg11
F0.0
sg80
F3.69140625
sg81
F0.33203125
sg13
F0.0
ssg62
(dp307
g7
F0.0
sg79
F0.4117647058823529
sg10
F0.0
sg11
F0.0
sg80
F41.529411764705884
sg81
F3.823529411764706
sg13
F0.0
ssg64
(dp308
g7
F0.0
sg79
F0.3125
sg10
F0.0
sg11
F0.0625
sg80
F51.8125
sg81
F4.5
sg13
F0.0625
ssg66
(dp309
g7
F0.0
sg79
F0.25
sg10
F0.0
sg11
F0.0
sg80
F47.125
sg81
F4.625
sg13
F0.0
ssg68
(dp310
g7
F0.058823529411764705
sg79
F0.4117647058823529
sg10
F0.0
sg11
F0.0
sg80
F32.470588235294116
sg81
F3.3529411764705883
sg13
F0.0
ssg70
(dp311
g7
F0.0
sg79
F0.25
sg10
F0.0
sg11
F0.0
sg80
F38.4375
sg81
F3.8125
sg13
F0.0
ssg72
(dp312
g7
F0.125
sg79
F0.375
sg10
F0.0
sg11
F0.0
sg80
F48.8125
sg81
F5.0625
sg13
F0.0
ssg74
(dp313
g7
F0.0625
sg79
F0.25
sg10
F0.0
sg11
F0.0
sg80
F59.9375
sg81
F5.3125
sg13
F0.0
ssss.