(dp0
I1
(dp1
S'QB'
p2
(dp3
S'Broncos'
p4
(dp5
S'PassTD'
p6
F1.0
sS'Lost'
p7
F0.0
sS'PassAtt'
p8
F33.0
sS'Int'
p9
F1.0
sS'RushTD'
p10
F1.0
sS'RushAtt'
p11
F11.0
sS'PassYds'
p12
F194.0
sS'RushYds'
p13
F54.0
ssS'Vikings'
p14
(dp15
g6
F2.0
sg7
F1.0
sg8
F41.0
sg9
F1.0
sg10
F0.0
sg11
F4.0
sg12
F271.0
sg13
F19.0
ssS'Bears'
p16
(dp17
g6
F2.0
sg7
F0.0
sg8
F35.0
sg9
F1.0
sg10
F0.0
sg11
F4.0
sg12
F231.0
sg13
F14.0
ssS'Falcons'
p18
(dp19
g6
F4.0
sg7
F0.0
sg8
F32.0
sg9
F1.0
sg10
F0.0
sg11
F4.0
sg12
F281.0
sg13
F3.0
ssS'Saints'
p20
(dp21
g6
F1.0
sg7
F0.0
sg8
F38.0
sg9
F0.0
sg10
F0.0
sg11
F2.0
sg12
F319.0
sg13
F16.0
ssS'Chargers'
p22
(dp23
g6
F2.0
sg7
F0.0
sg8
F48.0
sg9
F1.0
sg10
F1.0
sg11
F4.0
sg12
F363.0
sg13
F15.0
ssS'Raiders'
p24
(dp25
g6
F4.0
sg7
F1.0
sg8
F42.0
sg9
F0.0
sg10
F0.0
sg11
F2.0
sg12
F423.0
sg13
F5.0
ssS'Lions'
p26
(dp27
g6
F4.0
sg7
F0.0
sg8
F47.0
sg9
F0.0
sg10
F0.0
sg11
F3.0
sg12
F385.0
sg13
F21.0
ssS'Eagles'
p28
(dp29
g6
F0.0
sg7
F0.0
sg8
F26.0
sg9
F1.0
sg10
F0.0
sg11
F5.0
sg12
F190.0
sg13
F37.0
ssS'Browns'
p30
(dp31
g6
F2.0
sg7
F0.0
sg8
F37.0
sg9
F0.0
sg10
F0.0
sg11
F2.0
sg12
F278.0
sg13
F1.0
ssS'Steelers'
p32
(dp33
g6
F0.0
sg7
F0.0
sg8
F43.0
sg9
F2.0
sg10
F0.0
sg11
F1.0
sg12
F329.0
sg13
F8.0
ssS'Giants'
p34
(dp35
g6
F0.0
sg7
F0.0
sg8
F45.0
sg9
F0.0
sg10
F0.0
sg11
F2.0
sg12
F227.0
sg13
F12.0
ssS'Buccaneers'
p36
(dp37
g6
F2.0
sg7
F0.0
sg8
F39.0
sg9
F0.0
sg10
F0.0
sg11
F3.0
sg12
F334.0
sg13
F10.0
ssS'Cardinals'
p38
(dp39
g6
F1.0
sg7
F1.0
sg8
F33.0
sg9
F0.0
sg10
F0.0
sg11
F4.0
sg12
F264.0
sg13
F12.0
ssS'Bengals'
p40
(dp41
g6
F2.0
sg7
F0.0
sg8
F35.0
sg9
F1.0
sg10
F0.0
sg11
F4.0
sg12
F189.0
sg13
F15.0
ssS'Chiefs'
p42
(dp43
g6
F1.0
sg7
F0.0
sg8
F36.0
sg9
F0.0
sg10
F0.0
sg11
F2.0
sg12
F243.0
sg13
F9.0
ssS'Jaguars'
p44
(dp45
g6
F2.0
sg7
F0.0
sg8
F34.0
sg9
F0.0
sg10
F1.0
sg11
F4.0
sg12
F199.0
sg13
F16.0
ssS'Seahawks'
p46
(dp47
g6
F0.0
sg7
F0.0
sg8
F29.0
sg9
F0.0
sg10
F1.0
sg11
F5.0
sg12
F186.0
sg13
F17.0
ssS'Jets'
p48
(dp49
g6
F1.0
sg7
F0.0
sg8
F30.0
sg9
F1.0
sg10
F0.0
sg11
F3.0
sg12
F366.0
sg13
F7.0
ssS'Ravens'
p50
(dp51
g6
F0.0
sg7
F0.0
sg8
F22.0
sg9
F0.0
sg10
F0.0
sg11
F5.0
sg12
F111.0
sg13
F11.0
ssS'Colts'
p52
(dp53
g6
F3.0
sg7
F0.0
sg8
F39.0
sg9
F0.0
sg10
F0.0
sg11
F2.0
sg12
F340.0
sg13
F5.0
ssS'Packers'
p54
(dp55
g6
F1.0
sg7
F0.0
sg8
F39.0
sg9
F1.0
sg10
F0.0
sg11
F2.0
sg12
F320.0
sg13
F2.0
ssS'Dolphins'
p56
(dp57
g6
F1.0
sg7
F1.0
sg8
F43.0
sg9
F1.0
sg10
F0.0
sg11
F4.0
sg12
F258.0
sg13
F16.0
ssS'Rams'
p58
(dp59
g6
F1.0
sg7
F0.0
sg8
F35.0
sg9
F0.0
sg10
F0.0
sg11
F9.0
sg12
F170.0
sg13
F43.0
ssS'Bills'
p60
(dp61
g6
F1.0
sg7
F1.0
sg8
F33.0
sg9
F0.0
sg10
F0.0
sg11
F4.0
sg12
F258.0
sg13
F-3.0
ssS'Panthers'
p62
(dp63
g6
F1.0
sg7
F0.0
sg8
F26.0
sg9
F2.0
sg10
F0.0
sg11
F5.0
sg12
F178.0
sg13
F20.0
ssS'Texans'
p64
(dp65
g6
F1.0
sg7
F0.0
sg8
F29.0
sg9
F1.0
sg10
F0.0
sg11
F2.0
sg12
F216.0
sg13
F12.0
ssS'49ers'
p66
(dp67
g6
F0.0
sg7
F0.0
sg8
F35.0
sg9
F2.0
sg10
F0.0
sg11
F3.0
sg12
F130.0
sg13
F10.0
ssS'Patriots'
p68
(dp69
g6
F2.0
sg7
F0.0
sg8
F37.0
sg9
F0.0
sg10
F0.0
sg11
F2.0
sg12
F271.0
sg13
F1.0
ssS'Cowboys'
p70
(dp71
g6
F3.0
sg7
F0.0
sg8
F28.0
sg9
F1.0
sg10
F0.0
sg11
F0.0
sg12
F207.0
sg13
F0.0
ssS'Titans'
p72
(dp73
g6
F0.0
sg7
F0.0
sg8
F33.0
sg9
F0.0
sg10
F0.0
sg11
F2.0
sg12
F236.0
sg13
F8.0
ssS'Redskins'
p74
(dp75
g6
F3.0
sg7
F0.0
sg8
F37.0
sg9
F1.0
sg10
F0.0
sg11
F1.0
sg12
F300.0
sg13
F-2.0
sssS'WR'
p76
(dp77
g4
(dp78
g7
F0.0
sS'RecTD'
p79
F1.0
sg10
F0.0
sg11
F1.0
sS'RecYds'
p80
F116.0
sS'Rec'
p81
F9.0
sg13
F20.0
ssg14
(dp82
g7
F0.0
sg79
F0.0
sg10
F0.0
sg11
F0.0
sg80
F153.0
sg81
F15.0
sg13
F0.0
ssg16
(dp83
g7
F0.0
sg79
F2.0
sg10
F0.0
sg11
F0.0
sg80
F167.0
sg81
F11.0
sg13
F0.0
ssg18
(dp84
g7
F0.0
sg79
F1.0
sg10
F0.0
sg11
F2.0
sg80
F151.0
sg81
F10.0
sg13
F16.0
ssg20
(dp85
g7
F0.0
sg79
F1.0
sg10
F0.0
sg11
F0.0
sg80
F243.0
sg81
F15.0
sg13
F0.0
ssg22
(dp86
g7
F0.0
sg79
F2.0
sg10
F0.0
sg11
F1.0
sg80
F116.0
sg81
F13.0
sg13
F-1.0
ssg24
(dp87
g7
F0.0
sg79
F3.0
sg10
F0.0
sg11
F1.0
sg80
F373.0
sg81
F21.0
sg13
F11.0
ssg26
(dp88
g7
F0.0
sg79
F1.0
sg10
F0.0
sg11
F0.0
sg80
F237.0
sg81
F16.0
sg13
F0.0
ssg28
(dp89
g7
F0.0
sg79
F0.0
sg10
F0.0
sg11
F1.0
sg80
F137.0
sg81
F5.0
sg13
F-1.0
ssg30
(dp90
g7
F0.0
sg79
F2.0
sg10
F0.0
sg11
F0.0
sg80
F185.0
sg81
F13.0
sg13
F0.0
ssg32
(dp91
g7
F0.0
sg79
F0.0
sg10
F0.0
sg11
F0.0
sg80
F220.0
sg81
F19.0
sg13
F0.0
ssg34
(dp92
g7
F0.0
sg79
F0.0
sg10
F0.0
sg11
F0.0
sg80
F123.0
sg81
F13.0
sg13
F0.0
ssg36
(dp93
g7
F0.0
sg79
F2.0
sg10
F0.0
sg11
F0.0
sg80
F146.0
sg81
F10.0
sg13
F0.0
ssg38
(dp94
g7
F0.0
sg79
F1.0
sg10
F0.0
sg11
F3.0
sg80
F207.0
sg81
F15.0
sg13
F16.0
ssg40
(dp95
g7
F0.0
sg79
F2.0
sg10
F0.0
sg11
F0.0
sg80
F123.0
sg81
F12.0
sg13
F0.0
ssg42
(dp96
g7
F0.0
sg79
F0.0
sg10
F0.0
sg11
F0.0
sg80
F172.0
sg81
F16.0
sg13
F0.0
ssg44
(dp97
g7
F0.0
sg79
F2.0
sg10
F0.0
sg11
F3.0
sg80
F147.0
sg81
F16.0
sg13
F11.0
ssg46
(dp98
g7
F0.0
sg79
F0.0
sg10
F0.0
sg11
F0.0
sg80
F147.0
sg81
F13.0
sg13
F0.0
ssg48
(dp99
g7
F0.0
sg79
F1.0
sg10
F0.0
sg11
F2.0
sg80
F302.0
sg81
F19.0
sg13
F-6.0
ssg50
(dp100
g7
F0.0
sg79
F0.0
sg10
F0.0
sg11
F0.0
sg80
F63.0
sg81
F8.0
sg13
F0.0
ssg52
(dp101
g7
F0.0
sg79
F0.0
sg10
F0.0
sg11
F1.0
sg80
F169.0
sg81
F15.0
sg13
F2.0
ssg54
(dp102
g7
F0.0
sg79
F0.0
sg10
F0.0
sg11
F0.0
sg80
F178.0
sg81
F13.0
sg13
F0.0
ssg56
(dp103
g7
F0.0
sg79
F1.0
sg10
F0.0
sg11
F0.0
sg80
F177.0
sg81
F18.0
sg13
F0.0
ssg58
(dp104
g7
F0.0
sg79
F0.0
sg10
F0.0
sg11
F0.0
sg80
F134.0
sg81
F14.0
sg13
F0.0
ssg60
(dp105
g7
F0.0
sg79
F1.0
sg10
F0.0
sg11
F1.0
sg80
F172.0
sg81
F12.0
sg13
F11.0
ssg62
(dp106
g7
F0.0
sg79
F0.0
sg10
F0.0
sg11
F0.0
sg80
F97.0
sg81
F9.0
sg13
F0.0
ssg64
(dp107
g7
F0.0
sg79
F1.0
sg10
F0.0
sg11
F0.0
sg80
F196.0
sg81
F11.0
sg13
F0.0
ssg66
(dp108
g7
F0.0
sg79
F0.0
sg10
F0.0
sg11
F1.0
sg80
F103.0
sg81
F11.0
sg13
F2.0
ssg68
(dp109
g7
F0.0
sg79
F2.0
sg10
F0.0
sg11
F0.0
sg80
F179.0
sg81
F14.0
sg13
F0.0
ssg70
(dp110
g7
F0.0
sg79
F2.0
sg10
F0.0
sg11
F0.0
sg80
F150.0
sg81
F11.0
sg13
F0.0
ssg72
(dp111
g7
F0.0
sg79
F0.0
sg10
F0.0
sg11
F2.0
sg80
F168.0
sg81
F13.0
sg13
F7.0
ssg74
(dp112
g7
F0.0
sg79
F3.0
sg10
F0.0
sg11
F0.0
sg80
F241.0
sg81
F16.0
sg13
F0.0
sssS'RB'
p113
(dp114
g4
(dp115
g7
F0.0
sg79
F0.0
sg10
F0.0
sg11
F20.0
sg80
F5.0
sg81
F2.0
sg13
F83.0
ssg14
(dp116
g7
F1.0
sg79
F2.0
sg10
F0.0
sg11
F18.0
sg80
F76.0
sg81
F7.0
sg13
F45.0
ssg16
(dp117
g7
F0.0
sg79
F0.0
sg10
F0.0
sg11
F31.0
sg80
F16.0
sg81
F5.0
sg13
F115.0
ssg18
(dp118
g7
F0.0
sg79
F1.0
sg10
F0.0
sg11
F22.0
sg80
F66.0
sg81
F8.0
sg13
F71.0
ssg20
(dp119
g7
F0.0
sg79
F0.0
sg10
F3.0
sg11
F24.0
sg80
F51.0
sg81
F6.0
sg13
F151.0
ssg22
(dp120
g7
F0.0
sg79
F0.0
sg10
F1.0
sg11
F14.0
sg80
F153.0
sg81
F13.0
sg13
F69.0
ssg24
(dp121
g7
F0.0
sg79
F1.0
sg10
F0.0
sg11
F19.0
sg80
F44.0
sg81
F6.0
sg13
F72.0
ssg26
(dp122
g7
F0.0
sg79
F0.0
sg10
F0.0
sg11
F16.0
sg80
F60.0
sg81
F8.0
sg13
F61.0
ssg28
(dp123
g7
F0.0
sg79
F0.0
sg10
F1.0
sg11
F15.0
sg80
F53.0
sg81
F7.0
sg13
F84.0
ssg30
(dp124
g7
F0.0
sg79
F0.0
sg10
F1.0
sg11
F32.0
sg80
F24.0
sg81
F2.0
sg13
F132.0
ssg32
(dp125
g7
F0.0
sg79
F0.0
sg10
F1.0
sg11
F11.0
sg80
F25.0
sg81
F3.0
sg13
F47.0
ssg34
(dp126
g7
F0.0
sg79
F0.0
sg10
F1.0
sg11
F28.0
sg80
F17.0
sg81
F2.0
sg13
F89.0
ssg36
(dp127
g7
F0.0
sg79
F0.0
sg10
F0.0
sg11
F8.0
sg80
F103.0
sg81
F6.0
sg13
F22.0
ssg38
(dp128
g7
F1.0
sg79
F0.0
sg10
F1.0
sg11
F24.0
sg80
F40.0
sg81
F5.0
sg13
F78.0
ssg40
(dp129
g7
F0.0
sg79
F0.0
sg10
F0.0
sg11
F26.0
sg80
F66.0
sg81
F7.0
sg13
F137.0
ssg42
(dp130
g7
F0.0
sg79
F1.0
sg10
F2.0
sg11
F30.0
sg80
F31.0
sg81
F5.0
sg13
F146.0
ssg44
(dp131
g7
F0.0
sg79
F0.0
sg10
F0.0
sg11
F18.0
sg80
F23.0
sg81
F2.0
sg13
F68.0
ssg46
(dp132
g7
F0.0
sg79
F0.0
sg10
F0.0
sg11
F15.0
sg80
F91.0
sg81
F4.0
sg13
F47.0
ssg48
(dp133
g7
F0.0
sg79
F0.0
sg10
F1.0
sg11
F14.0
sg80
F5.0
sg81
F2.0
sg13
F56.0
ssg50
(dp134
g7
F0.0
sg79
F0.0
sg10
F1.0
sg11
F19.0
sg80
F8.0
sg81
F5.0
sg13
F54.0
ssg52
(dp135
g7
F0.0
sg79
F2.0
sg10
F2.0
sg11
F21.0
sg80
F120.0
sg81
F10.0
sg13
F109.0
ssg54
(dp136
g7
F0.0
sg79
F0.0
sg10
F1.0
sg11
F24.0
sg80
F30.0
sg81
F4.0
sg13
F46.0
ssg56
(dp137
g7
F0.0
sg79
F0.0
sg10
F0.0
sg11
F28.0
sg80
F44.0
sg81
F6.0
sg13
F96.0
ssg58
(dp138
g7
F1.0
sg79
F0.0
sg10
F3.0
sg11
F33.0
sg80
F23.0
sg81
F4.0
sg13
F107.0
ssg60
(dp139
g7
F0.0
sg79
F0.0
sg10
F0.0
sg11
F23.0
sg80
F42.0
sg81
F6.0
sg13
F75.0
ssg62
(dp140
g7
F1.0
sg79
F1.0
sg10
F2.0
sg11
F24.0
sg80
F53.0
sg81
F5.0
sg13
F128.0
ssg64
(dp141
g7
F0.0
sg79
F0.0
sg10
F1.0
sg11
F18.0
sg80
F6.0
sg81
F2.0
sg13
F61.0
ssg66
(dp142
g7
F0.0
sg79
F0.0
sg10
F0.0
sg11
F19.0
sg80
F10.0
sg81
F3.0
sg13
F53.0
ssg68
(dp143
g7
F0.0
sg79
F0.0
sg10
F1.0
sg11
F17.0
sg80
F51.0
sg81
F6.0
sg13
F91.0
ssg70
(dp144
g7
F0.0
sg79
F0.0
sg10
F0.0
sg11
F24.0
sg80
F26.0
sg81
F4.0
sg13
F113.0
ssg72
(dp145
g7
F0.0
sg79
F0.0
sg10
F0.0
sg11
F24.0
sg80
F3.0
sg81
F1.0
sg13
F50.0
ssg74
(dp146
g7
F0.0
sg79
F0.0
sg10
F2.0
sg11
F29.0
sg80
F28.0
sg81
F6.0
sg13
F149.0
sssS'TE'
p147
(dp148
g4
(dp149
g7
F0.0
sg79
F0.0
sg10
F0.0
sg11
F0.0
sg80
F73.0
sg81
F7.0
sg13
F0.0
ssg14
(dp150
g7
F0.0
sg79
F0.0
sg10
F0.0
sg11
F0.0
sg80
F42.0
sg81
F3.0
sg13
F0.0
ssg16
(dp151
g7
F0.0
sg79
F0.0
sg10
F0.0
sg11
F0.0
sg80
F48.0
sg81
F6.0
sg13
F0.0
ssg18
(dp152
g7
F0.0
sg79
F2.0
sg10
F0.0
sg11
F0.0
sg80
F64.0
sg81
F5.0
sg13
F0.0
ssg20
(dp153
g7
F0.0
sg79
F0.0
sg10
F0.0
sg11
F0.0
sg80
F25.0
sg81
F3.0
sg13
F0.0
ssg22
(dp154
g7
F0.0
sg79
F0.0
sg10
F0.0
sg11
F0.0
sg80
F94.0
sg81
F8.0
sg13
F0.0
ssg24
(dp155
g7
F0.0
sg79
F0.0
sg10
F0.0
sg11
F0.0
sg80
F6.0
sg81
F1.0
sg13
F0.0
ssg26
(dp156
g7
F0.0
sg79
F3.0
sg10
F0.0
sg11
F0.0
sg80
F88.0
sg81
F7.0
sg13
F0.0
ssg28
(dp157
g7
F0.0
sg79
F0.0
sg10
F0.0
sg11
F0.0
sg80
F0.0
sg81
F0.0
sg13
F0.0
ssg30
(dp158
g7
F0.0
sg79
F0.0
sg10
F0.0
sg11
F0.0
sg80
F69.0
sg81
F7.0
sg13
F0.0
ssg32
(dp159
g7
F0.0
sg79
F0.0
sg10
F0.0
sg11
F0.0
sg80
F84.0
sg81
F8.0
sg13
F0.0
ssg34
(dp160
g7
F0.0
sg79
F0.0
sg10
F0.0
sg11
F0.0
sg80
F87.0
sg81
F10.0
sg13
F0.0
ssg36
(dp161
g7
F0.0
sg79
F0.0
sg10
F0.0
sg11
F0.0
sg80
F65.0
sg81
F7.0
sg13
F0.0
ssg38
(dp162
g7
F0.0
sg79
F0.0
sg10
F0.0
sg11
F0.0
sg80
F14.0
sg81
F3.0
sg13
F0.0
ssg40
(dp163
g7
F0.0
sg79
F0.0
sg10
F0.0
sg11
F0.0
sg80
F0.0
sg81
F0.0
sg13
F0.0
ssg42
(dp164
g7
F0.0
sg79
F0.0
sg10
F0.0
sg11
F0.0
sg80
F40.0
sg81
F4.0
sg13
F0.0
ssg44
(dp165
g7
F0.0
sg79
F0.0
sg10
F0.0
sg11
F0.0
sg80
F29.0
sg81
F2.0
sg13
F0.0
ssg46
(dp166
g7
F0.0
sg79
F0.0
sg10
F0.0
sg11
F0.0
sg80
F6.0
sg81
F2.0
sg13
F0.0
ssg48
(dp167
g7
F0.0
sg79
F0.0
sg10
F0.0
sg11
F0.0
sg80
F59.0
sg81
F2.0
sg13
F0.0
ssg50
(dp168
g7
F0.0
sg79
F0.0
sg10
F0.0
sg11
F0.0
sg80
F40.0
sg81
F2.0
sg13
F0.0
ssg52
(dp169
g7
F0.0
sg79
F1.0
sg10
F0.0
sg11
F0.0
sg80
F51.0
sg81
F6.0
sg13
F0.0
ssg54
(dp170
g7
F0.0
sg79
F1.0
sg10
F0.0
sg11
F0.0
sg80
F112.0
sg81
F7.0
sg13
F0.0
ssg56
(dp171
g7
F0.0
sg79
F0.0
sg10
F0.0
sg11
F0.0
sg80
F37.0
sg81
F3.0
sg13
F0.0
ssg58
(dp172
g7
F0.0
sg79
F1.0
sg10
F0.0
sg11
F0.0
sg80
F29.0
sg81
F3.0
sg13
F0.0
ssg60
(dp173
g7
F0.0
sg79
F0.0
sg10
F0.0
sg11
F0.0
sg80
F44.0
sg81
F4.0
sg13
F0.0
ssg62
(dp174
g7
F0.0
sg79
F0.0
sg10
F0.0
sg11
F0.0
sg80
F28.0
sg81
F4.0
sg13
F0.0
ssg64
(dp175
g7
F0.0
sg79
F0.0
sg10
F0.0
sg11
F0.0
sg80
F14.0
sg81
F3.0
sg13
F0.0
ssg66
(dp176
g7
F0.0
sg79
F0.0
sg10
F0.0
sg11
F0.0
sg80
F17.0
sg81
F3.0
sg13
F0.0
ssg68
(dp177
g7
F0.0
sg79
F0.0
sg10
F0.0
sg11
F0.0
sg80
F41.0
sg81
F4.0
sg13
F0.0
ssg70
(dp178
g7
F0.0
sg79
F1.0
sg10
F0.0
sg11
F0.0
sg80
F31.0
sg81
F4.0
sg13
F0.0
ssg72
(dp179
g7
F0.0
sg79
F0.0
sg10
F0.0
sg11
F0.0
sg80
F65.0
sg81
F4.0
sg13
F0.0
ssg74
(dp180
g7
F0.0
sg79
F0.0
sg10
F0.0
sg11
F0.0
sg80
F31.0
sg81
F5.0
sg13
F0.0
ssssI2
(dp181
g2
(dp182
g4
(dp183
g6
F1.0
sg7
F0.5
sg8
F36.5
sg9
F1.0
sg10
F0.5
sg11
F7.0
sg12
F195.5
sg13
F38.0
ssg14
(dp184
g6
F1.5
sg7
F1.0
sg8
F38.5
sg9
F1.0
sg10
F0.5
sg11
F3.5
sg12
F242.0
sg13
F24.0
ssg16
(dp185
g6
F1.5
sg7
F0.0
sg8
F34.5
sg9
F0.5
sg10
F0.0
sg11
F5.0
sg12
F210.5
sg13
F12.0
ssg18
(dp186
g6
F3.5
sg7
F0.0
sg8
F38.5
sg9
F0.5
sg10
F0.0
sg11
F3.0
sg12
F290.0
sg13
F6.5
ssg20
(dp187
g6
F0.5
sg7
F0.5
sg8
F39.5
sg9
F0.0
sg10
F0.0
sg11
F3.0
sg12
F343.5
sg13
F6.0
ssg22
(dp188
g6
F2.0
sg7
F0.5
sg8
F49.0
sg9
F1.5
sg10
F0.5
sg11
F3.5
sg12
F346.0
sg13
F24.5
ssg24
(dp189
g6
F3.5
sg7
F0.5
sg8
F38.0
sg9
F0.5
sg10
F0.0
sg11
F1.0
sg12
F409.5
sg13
F2.5
ssg26
(dp190
g6
F3.0
sg7
F0.0
sg8
F40.0
sg9
F0.5
sg10
F0.0
sg11
F3.0
sg12
F311.5
sg13
F15.5
ssg28
(dp191
g6
F0.0
sg7
F0.5
sg8
F27.5
sg9
F1.0
sg10
F0.0
sg11
F2.5
sg12
F212.5
sg13
F18.5
ssg30
(dp192
g6
F2.0
sg7
F0.0
sg8
F41.0
sg9
F1.0
sg10
F0.0
sg11
F1.5
sg12
F290.0
sg13
F1.0
ssg32
(dp193
g6
F0.5
sg7
F0.0
sg8
F48.5
sg9
F1.0
sg10
F0.0
sg11
F1.5
sg12
F347.5
sg13
F7.5
ssg34
(dp194
g6
F0.5
sg7
F0.0
sg8
F44.5
sg9
F0.0
sg10
F0.0
sg11
F1.0
sg12
F245.0
sg13
F6.0
ssg36
(dp195
g6
F2.5
sg7
F0.0
sg8
F36.5
sg9
F0.0
sg10
F0.0
sg11
F1.5
sg12
F324.5
sg13
F5.0
ssg38
(dp196
g6
F1.0
sg7
F1.0
sg8
F42.5
sg9
F2.0
sg10
F0.0
sg11
F3.5
sg12
F253.5
sg13
F10.5
ssg40
(dp197
g6
F2.5
sg7
F0.0
sg8
F36.0
sg9
F1.5
sg10
F0.0
sg11
F2.5
sg12
F224.0
sg13
F14.5
ssg42
(dp198
g6
F1.0
sg7
F0.0
sg8
F34.5
sg9
F1.0
sg10
F0.0
sg11
F2.0
sg12
F255.5
sg13
F3.0
ssg44
(dp199
g6
F3.0
sg7
F0.5
sg8
F29.5
sg9
F0.0
sg10
F0.5
sg11
F3.5
sg12
F209.5
sg13
F12.5
ssg46
(dp200
g6
F0.0
sg7
F0.0
sg8
F29.5
sg9
F0.0
sg10
F0.5
sg11
F4.0
sg12
F212.5
sg13
F11.0
ssg48
(dp201
g6
F2.0
sg7
F0.0
sg8
F30.5
sg9
F1.0
sg10
F0.0
sg11
F3.5
sg12
F336.5
sg13
F17.0
ssg50
(dp202
g6
F1.0
sg7
F0.0
sg8
F27.5
sg9
F1.0
sg10
F0.0
sg11
F3.5
sg12
F185.5
sg13
F5.5
ssg52
(dp203
g6
F1.5
sg7
F0.0
sg8
F36.0
sg9
F0.5
sg10
F0.0
sg11
F1.5
sg12
F303.0
sg13
F6.0
ssg54
(dp204
g6
F1.5
sg7
F0.0
sg8
F35.0
sg9
F0.5
sg10
F0.0
sg11
F1.5
sg12
F303.0
sg13
F-0.5
ssg56
(dp205
g6
F2.0
sg7
F0.5
sg8
F39.0
sg9
F0.5
sg10
F0.0
sg11
F4.0
sg12
F291.0
sg13
F14.0
ssg58
(dp206
g6
F0.5
sg7
F0.0
sg8
F35.0
sg9
F0.0
sg10
F0.0
sg11
F7.0
sg12
F212.0
sg13
F28.5
ssg60
(dp207
g6
F1.0
sg7
F0.5
sg8
F33.5
sg9
F0.0
sg10
F0.0
sg11
F4.5
sg12
F316.0
sg13
F9.0
ssg62
(dp208
g6
F1.5
sg7
F0.0
sg8
F31.0
sg9
F2.0
sg10
F0.5
sg11
F4.0
sg12
F210.5
sg13
F15.0
ssg64
(dp209
g6
F0.5
sg7
F1.0
sg8
F33.0
sg9
F0.5
sg10
F0.0
sg11
F2.0
sg12
F201.0
sg13
F7.0
ssg66
(dp210
g6
F2.0
sg7
F0.5
sg8
F37.5
sg9
F1.5
sg10
F0.0
sg11
F4.5
sg12
F241.5
sg13
F23.5
ssg68
(dp211
g6
F2.0
sg7
F0.0
sg8
F41.0
sg9
F1.0
sg10
F0.0
sg11
F4.0
sg12
F329.0
sg13
F18.0
ssg70
(dp212
g6
F2.0
sg7
F0.0
sg8
F37.0
sg9
F1.0
sg10
F0.0
sg11
F1.0
sg12
F285.5
sg13
F10.0
ssg72
(dp213
g6
F0.5
sg7
F0.0
sg8
F36.5
sg9
F0.5
sg10
F0.0
sg11
F2.0
sg12
F248.0
sg13
F19.5
ssg74
(dp214
g6
F1.5
sg7
F0.0
sg8
F33.5
sg9
F0.5
sg10
F0.5
sg11
F1.0
sg12
F296.0
sg13
F2.0
sssg76
(dp215
g4
(dp216
g7
F0.0
sg79
F0.5
sg10
F0.0
sg11
F0.5
sg80
F101.5
sg81
F8.0
sg13
F10.0
ssg14
(dp217
g7
F0.5
sg79
F0.5
sg10
F0.0
sg11
F0.5
sg80
F147.0
sg81
F14.0
sg13
F0.5
ssg16
(dp218
g7
F0.0
sg79
F1.0
sg10
F0.0
sg11
F0.5
sg80
F148.5
sg81
F12.0
sg13
F0.0
ssg18
(dp219
g7
F0.0
sg79
F1.5
sg10
F0.0
sg11
F1.5
sg80
F144.0
sg81
F12.0
sg13
F15.0
ssg20
(dp220
g7
F0.5
sg79
F0.5
sg10
F0.0
sg11
F0.0
sg80
F268.5
sg81
F17.5
sg13
F0.0
ssg22
(dp221
g7
F0.0
sg79
F1.0
sg10
F0.0
sg11
F0.5
sg80
F162.5
sg81
F14.0
sg13
F-0.5
ssg24
(dp222
g7
F0.0
sg79
F2.5
sg10
F0.0
sg11
F0.5
sg80
F283.0
sg81
F18.5
sg13
F5.5
ssg26
(dp223
g7
F0.0
sg79
F1.0
sg10
F0.0
sg11
F0.0
sg80
F159.5
sg81
F12.5
sg13
F0.0
ssg28
(dp224
g7
F0.0
sg79
F0.0
sg10
F0.0
sg11
F1.0
sg80
F160.5
sg81
F9.0
sg13
F4.0
ssg30
(dp225
g7
F0.0
sg79
F2.0
sg10
F0.0
sg11
F0.0
sg80
F165.5
sg81
F11.5
sg13
F0.0
ssg32
(dp226
g7
F0.5
sg79
F0.0
sg10
F0.0
sg11
F0.0
sg80
F202.5
sg81
F16.0
sg13
F0.0
ssg34
(dp227
g7
F0.0
sg79
F0.5
sg10
F0.0
sg11
F0.0
sg80
F157.5
sg81
F16.0
sg13
F0.0
ssg36
(dp228
g7
F0.0
sg79
F2.5
sg10
F0.0
sg11
F0.5
sg80
F161.5
sg81
F10.0
sg13
F2.0
ssg38
(dp229
g7
F0.0
sg79
F1.0
sg10
F0.0
sg11
F1.5
sg80
F208.0
sg81
F17.0
sg13
F8.0
ssg40
(dp230
g7
F0.0
sg79
F1.0
sg10
F0.0
sg11
F0.5
sg80
F137.5
sg81
F10.0
sg13
F3.0
ssg42
(dp231
g7
F0.0
sg79
F0.5
sg10
F0.0
sg11
F0.5
sg80
F196.0
sg81
F14.0
sg13
F-1.0
ssg44
(dp232
g7
F0.0
sg79
F2.5
sg10
F0.0
sg11
F2.0
sg80
F165.0
sg81
F13.0
sg13
F5.0
ssg46
(dp233
g7
F0.0
sg79
F0.0
sg10
F0.0
sg11
F1.0
sg80
F149.5
sg81
F12.5
sg13
F3.0
ssg48
(dp234
g7
F0.0
sg79
F1.5
sg10
F0.0
sg11
F1.0
sg80
F266.5
sg81
F14.0
sg13
F-3.0
ssg50
(dp235
g7
F0.0
sg79
F1.0
sg10
F0.0
sg11
F0.0
sg80
F113.5
sg81
F9.5
sg13
F0.0
ssg52
(dp236
g7
F0.0
sg79
F0.0
sg10
F0.0
sg11
F0.5
sg80
F177.0
sg81
F14.5
sg13
F1.0
ssg54
(dp237
g7
F0.0
sg79
F0.5
sg10
F0.0
sg11
F0.5
sg80
F208.0
sg81
F14.0
sg13
F-1.0
ssg56
(dp238
g7
F0.5
sg79
F1.5
sg10
F0.0
sg11
F0.0
sg80
F187.5
sg81
F17.0
sg13
F0.0
ssg58
(dp239
g7
F0.0
sg79
F0.0
sg10
F0.0
sg11
F0.0
sg80
F149.5
sg81
F13.0
sg13
F0.0
ssg60
(dp240
g7
F0.5
sg79
F1.0
sg10
F0.0
sg11
F0.5
sg80
F268.0
sg81
F16.5
sg13
F5.5
ssg62
(dp241
g7
F0.0
sg79
F0.5
sg10
F0.0
sg11
F0.0
sg80
F109.5
sg81
F9.5
sg13
F0.0
ssg64
(dp242
g7
F0.0
sg79
F0.5
sg10
F0.0
sg11
F0.5
sg80
F149.0
sg81
F11.5
sg13
F-0.5
ssg66
(dp243
g7
F0.5
sg79
F1.5
sg10
F0.0
sg11
F1.0
sg80
F148.0
sg81
F12.5
sg13
F3.5
ssg68
(dp244
g7
F0.5
sg79
F1.5
sg10
F0.0
sg11
F0.0
sg80
F229.5
sg81
F17.0
sg13
F0.0
ssg70
(dp245
g7
F0.0
sg79
F1.5
sg10
F0.0
sg11
F0.0
sg80
F158.0
sg81
F12.0
sg13
F0.0
ssg72
(dp246
g7
F0.0
sg79
F0.5
sg10
F0.0
sg11
F1.0
sg80
F173.5
sg81
F13.5
sg13
F3.5
ssg74
(dp247
g7
F0.0
sg79
F1.5
sg10
F0.0
sg11
F0.0
sg80
F209.0
sg81
F14.5
sg13
F0.0
sssg113
(dp248
g4
(dp249
g7
F0.0
sg79
F0.5
sg10
F0.5
sg11
F19.0
sg80
F26.5
sg81
F5.0
sg13
F72.0
ssg14
(dp250
g7
F0.5
sg79
F1.0
sg10
F0.0
sg11
F18.5
sg80
F46.0
sg81
F4.0
sg13
F49.0
ssg16
(dp251
g7
F0.0
sg79
F0.0
sg10
F1.0
sg11
F28.0
sg80
F13.5
sg81
F4.0
sg13
F102.5
ssg18
(dp252
g7
F0.0
sg79
F0.5
sg10
F0.5
sg11
F22.0
sg80
F77.0
sg81
F9.0
sg13
F101.0
ssg20
(dp253
g7
F0.5
sg79
F0.0
sg10
F1.5
sg11
F26.0
sg80
F45.5
sg81
F6.0
sg13
F109.5
ssg22
(dp254
g7
F0.0
sg79
F0.5
sg10
F0.5
sg11
F11.0
sg80
F92.5
sg81
F11.5
sg13
F52.0
ssg24
(dp255
g7
F0.0
sg79
F0.5
sg10
F0.5
sg11
F15.5
sg80
F34.5
sg81
F4.0
sg13
F59.0
ssg26
(dp256
g7
F0.0
sg79
F0.0
sg10
F0.0
sg11
F18.5
sg80
F62.5
sg81
F8.0
sg13
F95.0
ssg28
(dp257
g7
F0.5
sg79
F0.0
sg10
F1.0
sg11
F16.0
sg80
F35.5
sg81
F5.5
sg13
F69.5
ssg30
(dp258
g7
F0.0
sg79
F0.0
sg10
F0.5
sg11
F28.5
sg80
F28.0
sg81
F3.5
sg13
F105.5
ssg32
(dp259
g7
F0.5
sg79
F0.5
sg10
F0.5
sg11
F13.5
sg80
F81.0
sg81
F7.5
sg13
F43.0
ssg34
(dp260
g7
F0.0
sg79
F0.0
sg10
F0.5
sg11
F20.5
sg80
F29.5
sg81
F5.0
sg13
F65.0
ssg36
(dp261
g7
F0.0
sg79
F0.0
sg10
F0.5
sg11
F18.5
sg80
F105.0
sg81
F5.0
sg13
F61.5
ssg38
(dp262
g7
F0.5
sg79
F0.0
sg10
F0.5
sg11
F21.0
sg80
F22.0
sg81
F4.0
sg13
F77.0
ssg40
(dp263
g7
F0.0
sg79
F0.5
sg10
F0.0
sg11
F30.0
sg80
F56.5
sg81
F6.0
sg13
F120.5
ssg42
(dp264
g7
F0.0
sg79
F0.5
sg10
F1.0
sg11
F30.5
sg80
F29.0
sg81
F4.0
sg13
F124.0
ssg44
(dp265
g7
F0.0
sg79
F0.0
sg10
F0.5
sg11
F24.5
sg80
F22.5
sg81
F3.0
sg13
F105.0
ssg46
(dp266
g7
F0.0
sg79
F0.0
sg10
F0.0
sg11
F17.5
sg80
F58.5
sg81
F3.0
sg13
F50.0
ssg48
(dp267
g7
F0.0
sg79
F0.5
sg10
F0.5
sg11
F14.5
sg80
F27.0
sg81
F3.5
sg13
F57.5
ssg50
(dp268
g7
F0.0
sg79
F0.0
sg10
F1.0
sg11
F20.0
sg80
F33.5
sg81
F5.0
sg13
F99.5
ssg52
(dp269
g7
F0.0
sg79
F1.0
sg10
F1.5
sg11
F25.5
sg80
F77.5
sg81
F7.5
sg13
F118.0
ssg54
(dp270
g7
F0.0
sg79
F0.0
sg10
F0.5
sg11
F22.0
sg80
F23.5
sg81
F4.0
sg13
F40.5
ssg56
(dp271
g7
F0.0
sg79
F0.0
sg10
F0.5
sg11
F31.0
sg80
F28.0
sg81
F4.5
sg13
F122.5
ssg58
(dp272
g7
F1.0
sg79
F0.0
sg10
F1.5
sg11
F26.0
sg80
F32.0
sg81
F5.0
sg13
F80.0
ssg60
(dp273
g7
F0.0
sg79
F0.0
sg10
F1.5
sg11
F27.0
sg80
F26.0
sg81
F4.5
sg13
F88.5
ssg62
(dp274
g7
F1.0
sg79
F0.5
sg10
F1.0
sg11
F23.5
sg80
F40.5
sg81
F4.5
sg13
F91.5
ssg64
(dp275
g7
F0.5
sg79
F0.0
sg10
F0.5
sg11
F17.0
sg80
F28.0
sg81
F2.5
sg13
F89.5
ssg66
(dp276
g7
F0.5
sg79
F0.0
sg10
F0.0
sg11
F24.5
sg80
F24.0
sg81
F4.0
sg13
F93.5
ssg68
(dp277
g7
F0.5
sg79
F0.0
sg10
F1.0
sg11
F13.5
sg80
F44.0
sg81
F6.0
sg13
F63.0
ssg70
(dp278
g7
F0.0
sg79
F0.0
sg10
F0.5
sg11
F19.5
sg80
F43.5
sg81
F4.0
sg13
F87.5
ssg72
(dp279
g7
F0.0
sg79
F0.0
sg10
F0.0
sg11
F22.5
sg80
F15.5
sg81
F2.5
sg13
F78.0
ssg74
(dp280
g7
F0.5
sg79
F0.0
sg10
F2.0
sg11
F32.5
sg80
F33.5
sg81
F6.5
sg13
F135.5
sssg147
(dp281
g4
(dp282
g7
F0.0
sg79
F0.0
sg10
F0.0
sg11
F0.0
sg80
F67.5
sg81
F6.5
sg13
F0.0
ssg14
(dp283
g7
F0.0
sg79
F0.0
sg10
F0.0
sg11
F0.0
sg80
F49.0
sg81
F4.5
sg13
F0.0
ssg16
(dp284
g7
F0.0
sg79
F0.5
sg10
F0.0
sg11
F0.0
sg80
F48.5
sg81
F5.5
sg13
F0.0
ssg18
(dp285
g7
F0.0
sg79
F1.5
sg10
F0.0
sg11
F0.0
sg80
F69.0
sg81
F7.5
sg13
F0.0
ssg20
(dp286
g7
F0.0
sg79
F0.0
sg10
F0.0
sg11
F0.0
sg80
F29.5
sg81
F4.5
sg13
F0.0
ssg22
(dp287
g7
F0.0
sg79
F0.5
sg10
F0.0
sg11
F0.0
sg80
F91.0
sg81
F7.0
sg13
F0.0
ssg24
(dp288
g7
F0.0
sg79
F0.5
sg10
F0.0
sg11
F0.0
sg80
F93.0
sg81
F5.5
sg13
F0.0
ssg26
(dp289
g7
F0.0
sg79
F2.0
sg10
F0.0
sg11
F0.0
sg80
F89.5
sg81
F7.5
sg13
F0.0
ssg28
(dp290
g7
F0.0
sg79
F0.0
sg10
F0.0
sg11
F0.0
sg80
F16.5
sg81
F2.0
sg13
F0.0
ssg30
(dp291
g7
F0.0
sg79
F0.0
sg10
F0.0
sg11
F0.0
sg80
F96.5
sg81
F8.5
sg13
F0.0
ssg32
(dp292
g7
F0.0
sg79
F0.0
sg10
F0.0
sg11
F0.0
sg80
F64.0
sg81
F7.0
sg13
F0.0
ssg34
(dp293
g7
F0.0
sg79
F0.0
sg10
F0.0
sg11
F0.0
sg80
F58.0
sg81
F6.0
sg13
F0.0
ssg36
(dp294
g7
F0.0
sg79
F0.0
sg10
F0.0
sg11
F0.0
sg80
F48.0
sg81
F5.5
sg13
F0.0
ssg38
(dp295
g7
F0.0
sg79
F0.0
sg10
F0.0
sg11
F0.0
sg80
F22.0
sg81
F4.0
sg13
F0.0
ssg40
(dp296
g7
F0.0
sg79
F1.0
sg10
F0.0
sg11
F0.0
sg80
F30.0
sg81
F3.0
sg13
F0.0
ssg42
(dp297
g7
F0.0
sg79
F0.0
sg10
F0.0
sg11
F0.0
sg80
F30.5
sg81
F4.0
sg13
F0.0
ssg44
(dp298
g7
F0.0
sg79
F0.5
sg10
F0.0
sg11
F0.0
sg80
F22.0
sg81
F2.5
sg13
F0.0
ssg46
(dp299
g7
F0.0
sg79
F0.0
sg10
F0.0
sg11
F0.0
sg80
F33.5
sg81
F3.0
sg13
F0.0
ssg48
(dp300
g7
F0.0
sg79
F0.0
sg10
F0.0
sg11
F0.0
sg80
F43.0
sg81
F3.5
sg13
F0.0
ssg50
(dp301
g7
F0.0
sg79
F0.0
sg10
F0.0
sg11
F0.0
sg80
F38.5
sg81
F3.0
sg13
F0.0
ssg52
(dp302
g7
F0.0
sg79
F0.5
sg10
F0.0
sg11
F0.0
sg80
F48.5
sg81
F4.5
sg13
F0.0
ssg54
(dp303
g7
F0.0
sg79
F1.0
sg10
F0.0
sg11
F0.0
sg80
F71.5
sg81
F5.0
sg13
F0.0
ssg56
(dp304
g7
F0.0
sg79
F0.5
sg10
F0.0
sg11
F0.0
sg80
F75.5
sg81
F4.0
sg13
F0.0
ssg58
(dp305
g7
F0.0
sg79
F0.5
sg10
F0.0
sg11
F0.0
sg80
F38.5
sg81
F3.5
sg13
F0.0
ssg60
(dp306
g7
F0.0
sg79
F0.0
sg10
F0.0
sg11
F0.0
sg80
F29.5
sg81
F2.5
sg13
F0.0
ssg62
(dp307
g7
F0.0
sg79
F0.5
sg10
F0.0
sg11
F0.0
sg80
F60.5
sg81
F3.5
sg13
F0.0
ssg64
(dp308
g7
F0.0
sg79
F0.0
sg10
F0.0
sg11
F0.0
sg80
F24.0
sg81
F4.0
sg13
F0.0
ssg66
(dp309
g7
F0.0
sg79
F0.5
sg10
F0.0
sg11
F0.0
sg80
F69.5
sg81
F4.0
sg13
F0.0
ssg68
(dp310
g7
F0.0
sg79
F0.5
sg10
F0.0
sg11
F0.0
sg80
F55.5
sg81
F5.0
sg13
F0.0
ssg70
(dp311
g7
F0.0
sg79
F0.5
sg10
F0.0
sg11
F0.0
sg80
F84.0
sg81
F7.5
sg13
F0.0
ssg72
(dp312
g7
F0.0
sg79
F0.0
sg10
F0.0
sg11
F0.0
sg80
F59.0
sg81
F4.0
sg13
F0.0
ssg74
(dp313
g7
F0.0
sg79
F0.0
sg10
F0.0
sg11
F0.0
sg80
F55.5
sg81
F5.0
sg13
F0.0
ssssI3
(dp314
g2
(dp315
g4
(dp316
g6
F0.6666666666666666
sg7
F0.3333333333333333
sg8
F34.666666666666664
sg9
F1.0
sg10
F0.3333333333333333
sg11
F6.666666666666667
sg12
F199.0
sg13
F38.666666666666664
ssg14
(dp317
g6
F1.0
sg7
F0.6666666666666666
sg8
F37.666666666666664
sg9
F1.6666666666666667
sg10
F0.6666666666666666
sg11
F4.666666666666667
sg12
F249.66666666666666
sg13
F24.666666666666668
ssg16
(dp318
g6
F1.3333333333333333
sg7
F0.0
sg8
F31.0
sg9
F0.3333333333333333
sg10
F0.3333333333333333
sg11
F4.666666666666667
sg12
F223.0
sg13
F20.0
ssg18
(dp319
g6
F3.3333333333333335
sg7
F0.0
sg8
F43.666666666666664
sg9
F0.6666666666666666
sg10
F0.0
sg11
F2.6666666666666665
sg12
F318.6666666666667
sg13
F7.333333333333333
ssg20
(dp320
g6
F1.0
sg7
F0.3333333333333333
sg8
F36.333333333333336
sg9
F0.0
sg10
F0.0
sg11
F3.6666666666666665
sg12
F309.0
sg13
F11.666666666666666
ssg22
(dp321
g6
F1.6666666666666667
sg7
F0.6666666666666666
sg8
F45.0
sg9
F1.3333333333333333
sg10
F0.3333333333333333
sg11
F2.3333333333333335
sg12
F341.0
sg13
F16.333333333333332
ssg24
(dp322
g6
F2.3333333333333335
sg7
F0.6666666666666666
sg8
F36.333333333333336
sg9
F1.0
sg10
F0.0
sg11
F1.6666666666666667
sg12
F344.3333333333333
sg13
F9.0
ssg26
(dp323
g6
F3.3333333333333335
sg7
F0.0
sg8
F34.666666666666664
sg9
F0.3333333333333333
sg10
F0.0
sg11
F3.6666666666666665
sg12
F276.0
sg13
F17.666666666666668
ssg28
(dp324
g6
F0.0
sg7
F0.6666666666666666
sg8
F33.0
sg9
F1.0
sg10
F0.0
sg11
F2.0
sg12
F227.33333333333334
sg13
F14.666666666666666
ssg30
(dp325
g6
F2.3333333333333335
sg7
F0.3333333333333333
sg8
F40.333333333333336
sg9
F1.3333333333333333
sg10
F0.0
sg11
F1.3333333333333333
sg12
F299.6666666666667
sg13
F1.3333333333333333
ssg32
(dp326
g6
F1.0
sg7
F0.0
sg8
F42.666666666666664
sg9
F0.6666666666666666
sg10
F0.0
sg11
F1.3333333333333333
sg12
F332.0
sg13
F8.333333333333334
ssg34
(dp327
g6
F1.0
sg7
F0.0
sg8
F41.333333333333336
sg9
F0.0
sg10
F0.0
sg11
F1.6666666666666667
sg12
F262.0
sg13
F2.3333333333333335
ssg36
(dp328
g6
F2.3333333333333335
sg7
F0.0
sg8
F33.0
sg9
F0.3333333333333333
sg10
F0.0
sg11
F1.6666666666666667
sg12
F279.6666666666667
sg13
F3.6666666666666665
ssg38
(dp329
g6
F0.6666666666666666
sg7
F0.6666666666666666
sg8
F36.666666666666664
sg9
F1.6666666666666667
sg10
F0.3333333333333333
sg11
F5.333333333333333
sg12
F208.66666666666666
sg13
F32.333333333333336
ssg40
(dp330
g6
F3.0
sg7
F0.0
sg8
F35.666666666666664
sg9
F1.0
sg10
F0.0
sg11
F2.6666666666666665
sg12
F253.33333333333334
sg13
F11.333333333333334
ssg42
(dp331
g6
F0.6666666666666666
sg7
F0.0
sg8
F37.666666666666664
sg9
F2.6666666666666665
sg10
F0.0
sg11
F2.3333333333333335
sg12
F233.0
sg13
F9.333333333333334
ssg44
(dp332
g6
F2.0
sg7
F0.3333333333333333
sg8
F33.0
sg9
F0.6666666666666666
sg10
F0.6666666666666666
sg11
F3.3333333333333335
sg12
F211.0
sg13
F12.333333333333334
ssg46
(dp333
g6
F0.0
sg7
F0.0
sg8
F28.0
sg9
F0.3333333333333333
sg10
F0.3333333333333333
sg11
F4.333333333333333
sg12
F181.33333333333334
sg13
F14.666666666666666
ssg48
(dp334
g6
F1.6666666666666667
sg7
F0.0
sg8
F31.333333333333332
sg9
F0.6666666666666666
sg10
F0.0
sg11
F3.3333333333333335
sg12
F303.3333333333333
sg13
F10.333333333333334
ssg50
(dp335
g6
F1.3333333333333333
sg7
F0.0
sg8
F31.0
sg9
F1.6666666666666667
sg10
F0.0
sg11
F3.3333333333333335
sg12
F188.33333333333334
sg13
F9.333333333333334
ssg52
(dp336
g6
F1.0
sg7
F0.3333333333333333
sg8
F37.0
sg9
F0.3333333333333333
sg10
F0.0
sg11
F1.3333333333333333
sg12
F310.6666666666667
sg13
F4.666666666666667
ssg54
(dp337
g6
F2.0
sg7
F0.0
sg8
F37.0
sg9
F0.6666666666666666
sg10
F0.0
sg11
F1.6666666666666667
sg12
F330.3333333333333
sg13
F3.3333333333333335
ssg56
(dp338
g6
F1.3333333333333333
sg7
F0.6666666666666666
sg8
F37.0
sg9
F0.3333333333333333
sg10
F0.0
sg11
F3.3333333333333335
sg12
F275.3333333333333
sg13
F9.0
ssg58
(dp339
g6
F1.3333333333333333
sg7
F0.3333333333333333
sg8
F42.666666666666664
sg9
F0.3333333333333333
sg10
F0.0
sg11
F6.0
sg12
F276.3333333333333
sg13
F23.333333333333332
ssg60
(dp340
g6
F0.6666666666666666
sg7
F0.3333333333333333
sg8
F39.0
sg9
F1.3333333333333333
sg10
F0.0
sg11
F3.0
sg12
F306.3333333333333
sg13
F6.0
ssg62
(dp341
g6
F1.3333333333333333
sg7
F0.0
sg8
F30.0
sg9
F1.3333333333333333
sg10
F0.3333333333333333
sg11
F3.3333333333333335
sg12
F197.33333333333334
sg13
F9.333333333333334
ssg64
(dp342
g6
F0.3333333333333333
sg7
F0.6666666666666666
sg8
F28.333333333333332
sg9
F0.3333333333333333
sg10
F0.3333333333333333
sg11
F4.0
sg12
F168.33333333333334
sg13
F20.666666666666668
ssg66
(dp343
g6
F2.0
sg7
F0.3333333333333333
sg8
F35.666666666666664
sg9
F1.3333333333333333
sg10
F0.0
sg11
F4.0
sg12
F263.6666666666667
sg13
F16.0
ssg68
(dp344
g6
F1.3333333333333333
sg7
F0.0
sg8
F41.0
sg9
F1.0
sg10
F0.0
sg11
F3.0
sg12
F284.6666666666667
sg13
F16.333333333333332
ssg70
(dp345
g6
F2.0
sg7
F0.3333333333333333
sg8
F41.0
sg9
F0.6666666666666666
sg10
F0.0
sg11
F1.3333333333333333
sg12
F296.0
sg13
F7.333333333333333
ssg72
(dp346
g6
F0.6666666666666666
sg7
F0.0
sg8
F36.0
sg9
F0.6666666666666666
sg10
F0.0
sg11
F1.6666666666666667
sg12
F248.33333333333334
sg13
F12.666666666666666
ssg74
(dp347
g6
F1.3333333333333333
sg7
F0.0
sg8
F35.0
sg9
F1.0
sg10
F0.3333333333333333
sg11
F0.6666666666666666
sg12
F314.0
sg13
F1.3333333333333333
sssg76
(dp348
g4
(dp349
g7
F0.0
sg79
F0.3333333333333333
sg10
F0.0
sg11
F0.6666666666666666
sg80
F114.0
sg81
F10.0
sg13
F6.0
ssg14
(dp350
g7
F0.3333333333333333
sg79
F0.3333333333333333
sg10
F0.0
sg11
F1.0
sg80
F137.66666666666666
sg81
F11.666666666666666
sg13
F2.0
ssg16
(dp351
g7
F0.3333333333333333
sg79
F1.0
sg10
F0.0
sg11
F0.6666666666666666
sg80
F166.0
sg81
F12.666666666666666
sg13
F1.0
ssg18
(dp352
g7
F0.0
sg79
F1.3333333333333333
sg10
F0.0
sg11
F1.6666666666666667
sg80
F164.33333333333334
sg81
F14.333333333333334
sg13
F12.333333333333334
ssg20
(dp353
g7
F0.3333333333333333
sg79
F0.6666666666666666
sg10
F0.0
sg11
F0.0
sg80
F216.33333333333334
sg81
F15.333333333333334
sg13
F0.0
ssg22
(dp354
g7
F0.0
sg79
F1.0
sg10
F0.0
sg11
F0.3333333333333333
sg80
F175.33333333333334
sg81
F13.0
sg13
F-0.3333333333333333
ssg24
(dp355
g7
F0.0
sg79
F1.6666666666666667
sg10
F0.0
sg11
F0.3333333333333333
sg80
F222.0
sg81
F15.0
sg13
F3.6666666666666665
ssg26
(dp356
g7
F0.0
sg79
F1.6666666666666667
sg10
F0.0
sg11
F0.3333333333333333
sg80
F158.66666666666666
sg81
F11.333333333333334
sg13
F-0.3333333333333333
ssg28
(dp357
g7
F0.0
sg79
F0.0
sg10
F0.0
sg11
F0.6666666666666666
sg80
F181.66666666666666
sg81
F12.0
sg13
F2.6666666666666665
ssg30
(dp358
g7
F0.0
sg79
F2.0
sg10
F0.0
sg11
F0.6666666666666666
sg80
F192.66666666666666
sg81
F12.666666666666666
sg13
F5.333333333333333
ssg32
(dp359
g7
F0.3333333333333333
sg79
F0.3333333333333333
sg10
F0.0
sg11
F0.0
sg80
F166.0
sg81
F14.666666666666666
sg13
F0.0
ssg34
(dp360
g7
F0.0
sg79
F1.0
sg10
F0.0
sg11
F0.0
sg80
F182.66666666666666
sg81
F15.333333333333334
sg13
F0.0
ssg36
(dp361
g7
F0.3333333333333333
sg79
F2.3333333333333335
sg10
F0.0
sg11
F1.0
sg80
F169.33333333333334
sg81
F10.666666666666666
sg13
F8.666666666666666
ssg38
(dp362
g7
F0.0
sg79
F0.6666666666666666
sg10
F0.0
sg11
F1.0
sg80
F167.0
sg81
F14.666666666666666
sg13
F5.333333333333333
ssg40
(dp363
g7
F0.3333333333333333
sg79
F1.6666666666666667
sg10
F0.0
sg11
F0.6666666666666666
sg80
F171.66666666666666
sg81
F12.333333333333334
sg13
F2.0
ssg42
(dp364
g7
F0.3333333333333333
sg79
F0.3333333333333333
sg10
F0.0
sg11
F0.3333333333333333
sg80
F180.0
sg81
F13.333333333333334
sg13
F-0.6666666666666666
ssg44
(dp365
g7
F0.0
sg79
F1.6666666666666667
sg10
F0.0
sg11
F2.0
sg80
F160.0
sg81
F13.666666666666666
sg13
F5.666666666666667
ssg46
(dp366
g7
F0.0
sg79
F0.0
sg10
F0.0
sg11
F0.6666666666666666
sg80
F128.33333333333334
sg81
F10.666666666666666
sg13
F2.0
ssg48
(dp367
g7
F0.0
sg79
F1.0
sg10
F0.0
sg11
F1.0
sg80
F212.66666666666666
sg81
F12.666666666666666
sg13
F-3.0
ssg50
(dp368
g7
F0.0
sg79
F1.3333333333333333
sg10
F0.0
sg11
F0.0
sg80
F122.66666666666667
sg81
F11.666666666666666
sg13
F0.0
ssg52
(dp369
g7
F0.3333333333333333
sg79
F0.0
sg10
F0.0
sg11
F0.3333333333333333
sg80
F179.0
sg81
F14.0
sg13
F0.6666666666666666
ssg54
(dp370
g7
F0.0
sg79
F1.3333333333333333
sg10
F0.0
sg11
F0.6666666666666666
sg80
F227.66666666666666
sg81
F14.0
sg13
F-3.3333333333333335
ssg56
(dp371
g7
F0.3333333333333333
sg79
F1.0
sg10
F0.3333333333333333
sg11
F1.6666666666666667
sg80
F191.0
sg81
F15.666666666666666
sg13
F7.333333333333333
ssg58
(dp372
g7
F0.0
sg79
F0.3333333333333333
sg10
F0.0
sg11
F0.0
sg80
F191.33333333333334
sg81
F16.333333333333332
sg13
F0.0
ssg60
(dp373
g7
F0.3333333333333333
sg79
F0.6666666666666666
sg10
F0.0
sg11
F0.3333333333333333
sg80
F260.0
sg81
F17.666666666666668
sg13
F3.6666666666666665
ssg62
(dp374
g7
F0.0
sg79
F0.3333333333333333
sg10
F0.0
sg11
F0.0
sg80
F98.66666666666667
sg81
F9.0
sg13
F0.0
ssg64
(dp375
g7
F0.0
sg79
F0.3333333333333333
sg10
F0.0
sg11
F1.3333333333333333
sg80
F129.66666666666666
sg81
F10.333333333333334
sg13
F4.333333333333333
ssg66
(dp376
g7
F0.3333333333333333
sg79
F1.3333333333333333
sg10
F0.0
sg11
F1.0
sg80
F157.0
sg81
F11.666666666666666
sg13
F1.0
ssg68
(dp377
g7
F0.3333333333333333
sg79
F1.0
sg10
F0.0
sg11
F0.0
sg80
F187.0
sg81
F14.0
sg13
F0.0
ssg70
(dp378
g7
F0.3333333333333333
sg79
F1.0
sg10
F0.0
sg11
F0.0
sg80
F164.33333333333334
sg81
F13.333333333333334
sg13
F0.0
ssg72
(dp379
g7
F0.0
sg79
F0.6666666666666666
sg10
F0.0
sg11
F1.0
sg80
F182.0
sg81
F14.0
sg13
F3.0
ssg74
(dp380
g7
F0.0
sg79
F1.3333333333333333
sg10
F0.0
sg11
F0.0
sg80
F227.33333333333334
sg81
F14.666666666666666
sg13
F0.0
sssg113
(dp381
g4
(dp382
g7
F0.0
sg79
F0.3333333333333333
sg10
F1.0
sg11
F20.0
sg80
F29.666666666666668
sg81
F5.0
sg13
F83.0
ssg14
(dp383
g7
F0.3333333333333333
sg79
F0.6666666666666666
sg10
F0.0
sg11
F18.666666666666668
sg80
F50.333333333333336
sg81
F5.333333333333333
sg13
F57.333333333333336
ssg16
(dp384
g7
F0.0
sg79
F0.0
sg10
F1.3333333333333333
sg11
F30.666666666666668
sg80
F16.333333333333332
sg81
F3.6666666666666665
sg13
F121.66666666666667
ssg18
(dp385
g7
F0.0
sg79
F0.6666666666666666
sg10
F0.6666666666666666
sg11
F21.0
sg80
F72.0
sg81
F9.333333333333334
sg13
F100.33333333333333
ssg20
(dp386
g7
F0.3333333333333333
sg79
F0.0
sg10
F2.0
sg11
F21.333333333333332
sg80
F46.0
sg81
F5.0
sg13
F87.0
ssg22
(dp387
g7
F0.0
sg79
F0.3333333333333333
sg10
F1.0
sg11
F16.0
sg80
F71.66666666666667
sg81
F9.0
sg13
F65.66666666666667
ssg24
(dp388
g7
F0.0
sg79
F0.3333333333333333
sg10
F0.6666666666666666
sg11
F19.0
sg80
F41.333333333333336
sg81
F4.666666666666667
sg13
F92.33333333333333
ssg26
(dp389
g7
F0.0
sg79
F0.0
sg10
F0.0
sg11
F18.333333333333332
sg80
F45.333333333333336
sg81
F6.0
sg13
F97.33333333333333
ssg28
(dp390
g7
F0.3333333333333333
sg79
F0.0
sg10
F0.6666666666666666
sg11
F13.666666666666666
sg80
F31.333333333333332
sg81
F5.0
sg13
F53.666666666666664
ssg30
(dp391
g7
F0.0
sg79
F0.3333333333333333
sg10
F0.6666666666666666
sg11
F26.333333333333332
sg80
F25.666666666666668
sg81
F4.0
sg13
F102.66666666666667
ssg32
(dp392
g7
F0.3333333333333333
sg79
F0.6666666666666666
sg10
F1.0
sg11
F21.666666666666668
sg80
F101.66666666666667
sg81
F7.333333333333333
sg13
F72.33333333333333
ssg34
(dp393
g7
F0.0
sg79
F0.0
sg10
F0.3333333333333333
sg11
F22.666666666666668
sg80
F22.0
sg81
F4.333333333333333
sg13
F75.0
ssg36
(dp394
g7
F0.0
sg79
F0.0
sg10
F1.0
sg11
F22.0
sg80
F71.66666666666667
sg81
F4.0
sg13
F79.0
ssg38
(dp395
g7
F0.3333333333333333
sg79
F0.0
sg10
F1.0
sg11
F21.666666666666668
sg80
F16.666666666666668
sg81
F3.6666666666666665
sg13
F95.33333333333333
ssg40
(dp396
g7
F0.0
sg79
F0.3333333333333333
sg10
F0.0
sg11
F26.333333333333332
sg80
F49.0
sg81
F5.0
sg13
F96.0
ssg42
(dp397
g7
F0.3333333333333333
sg79
F0.3333333333333333
sg10
F0.6666666666666666
sg11
F26.666666666666668
sg80
F32.666666666666664
sg81
F5.333333333333333
sg13
F114.33333333333333
ssg44
(dp398
g7
F0.0
sg79
F0.0
sg10
F0.3333333333333333
sg11
F22.0
sg80
F22.333333333333332
sg81
F4.666666666666667
sg13
F91.66666666666667
ssg46
(dp399
g7
F0.0
sg79
F0.0
sg10
F0.6666666666666666
sg11
F20.333333333333332
sg80
F40.333333333333336
sg81
F2.6666666666666665
sg13
F71.0
ssg48
(dp400
g7
F0.3333333333333333
sg79
F0.3333333333333333
sg10
F0.3333333333333333
sg11
F17.333333333333332
sg80
F24.333333333333332
sg81
F4.0
sg13
F64.33333333333333
ssg50
(dp401
g7
F0.0
sg79
F0.0
sg10
F0.6666666666666666
sg11
F19.333333333333332
sg80
F29.0
sg81
F4.333333333333333
sg13
F76.66666666666667
ssg52
(dp402
g7
F0.0
sg79
F0.6666666666666666
sg10
F1.3333333333333333
sg11
F23.0
sg80
F68.0
sg81
F6.666666666666667
sg13
F93.33333333333333
ssg54
(dp403
g7
F0.0
sg79
F0.0
sg10
F0.3333333333333333
sg11
F21.333333333333332
sg80
F27.666666666666668
sg81
F5.333333333333333
sg13
F42.666666666666664
ssg56
(dp404
g7
F0.0
sg79
F0.0
sg10
F0.3333333333333333
sg11
F29.0
sg80
F23.666666666666668
sg81
F5.0
sg13
F131.0
ssg58
(dp405
g7
F0.6666666666666666
sg79
F0.0
sg10
F1.3333333333333333
sg11
F23.333333333333332
sg80
F47.0
sg81
F5.666666666666667
sg13
F76.66666666666667
ssg60
(dp406
g7
F0.0
sg79
F0.0
sg10
F1.6666666666666667
sg11
F25.0
sg80
F26.666666666666668
sg81
F4.0
sg13
F88.33333333333333
ssg62
(dp407
g7
F0.6666666666666666
sg79
F0.3333333333333333
sg10
F0.6666666666666666
sg11
F23.0
sg80
F29.0
sg81
F3.6666666666666665
sg13
F81.0
ssg64
(dp408
g7
F0.3333333333333333
sg79
F0.0
sg10
F1.0
sg11
F20.333333333333332
sg80
F19.333333333333332
sg81
F2.0
sg13
F98.66666666666667
ssg66
(dp409
g7
F0.3333333333333333
sg79
F0.0
sg10
F0.6666666666666666
sg11
F25.333333333333332
sg80
F24.0
sg81
F4.0
sg13
F105.66666666666667
ssg68
(dp410
g7
F0.6666666666666666
sg79
F0.0
sg10
F0.6666666666666666
sg11
F17.666666666666668
sg80
F43.333333333333336
sg81
F6.666666666666667
sg13
F74.0
ssg70
(dp411
g7
F0.0
sg79
F0.0
sg10
F0.3333333333333333
sg11
F17.0
sg80
F49.666666666666664
sg81
F4.666666666666667
sg13
F83.66666666666667
ssg72
(dp412
g7
F0.0
sg79
F0.0
sg10
F0.3333333333333333
sg11
F22.666666666666668
sg80
F16.666666666666668
sg81
F2.6666666666666665
sg13
F92.66666666666667
ssg74
(dp413
g7
F0.6666666666666666
sg79
F0.0
sg10
F2.0
sg11
F28.666666666666668
sg80
F42.666666666666664
sg81
F5.666666666666667
sg13
F130.33333333333334
sssg147
(dp414
g4
(dp415
g7
F0.0
sg79
F0.0
sg10
F0.0
sg11
F0.0
sg80
F55.333333333333336
sg81
F5.0
sg13
F0.0
ssg14
(dp416
g7
F0.0
sg79
F0.0
sg10
F0.0
sg11
F0.0
sg80
F61.666666666666664
sg81
F5.333333333333333
sg13
F0.0
ssg16
(dp417
g7
F0.0
sg79
F0.3333333333333333
sg10
F0.0
sg11
F0.0
sg80
F40.666666666666664
sg81
F4.333333333333333
sg13
F0.0
ssg18
(dp418
g7
F0.0
sg79
F1.3333333333333333
sg10
F0.0
sg11
F0.0
sg80
F82.33333333333333
sg81
F7.333333333333333
sg13
F0.0
ssg20
(dp419
g7
F0.0
sg79
F0.0
sg10
F0.0
sg11
F0.0
sg80
F29.0
sg81
F4.0
sg13
F0.0
ssg22
(dp420
g7
F0.0
sg79
F0.3333333333333333
sg10
F0.0
sg11
F0.0
sg80
F94.0
sg81
F7.666666666666667
sg13
F0.0
ssg24
(dp421
g7
F0.0
sg79
F0.3333333333333333
sg10
F0.0
sg11
F0.0
sg80
F81.66666666666667
sg81
F4.666666666666667
sg13
F0.0
ssg26
(dp422
g7
F0.0
sg79
F1.6666666666666667
sg10
F0.0
sg11
F0.0
sg80
F72.0
sg81
F6.333333333333333
sg13
F0.0
ssg28
(dp423
g7
F0.0
sg79
F0.0
sg10
F0.0
sg11
F0.0
sg80
F14.333333333333334
sg81
F2.0
sg13
F0.0
ssg30
(dp424
g7
F0.0
sg79
F0.0
sg10
F0.0
sg11
F0.0
sg80
F81.33333333333333
sg81
F7.333333333333333
sg13
F0.0
ssg32
(dp425
g7
F0.0
sg79
F0.0
sg10
F0.0
sg11
F0.0
sg80
F69.33333333333333
sg81
F6.333333333333333
sg13
F0.0
ssg34
(dp426
g7
F0.0
sg79
F0.0
sg10
F0.0
sg11
F0.0
sg80
F57.333333333333336
sg81
F5.333333333333333
sg13
F0.0
ssg36
(dp427
g7
F0.0
sg79
F0.0
sg10
F0.0
sg11
F0.0
sg80
F32.0
sg81
F3.6666666666666665
sg13
F0.0
ssg38
(dp428
g7
F0.0
sg79
F0.0
sg10
F0.0
sg11
F0.0
sg80
F24.0
sg81
F3.0
sg13
F0.0
ssg40
(dp429
g7
F0.0
sg79
F1.0
sg10
F0.0
sg11
F0.0
sg80
F32.666666666666664
sg81
F3.0
sg13
F0.0
ssg42
(dp430
g7
F0.0
sg79
F0.0
sg10
F0.0
sg11
F0.0
sg80
F20.333333333333332
sg81
F2.6666666666666665
sg13
F0.0
ssg44
(dp431
g7
F0.0
sg79
F0.3333333333333333
sg10
F0.0
sg11
F0.0
sg80
F28.666666666666668
sg81
F3.6666666666666665
sg13
F0.0
ssg46
(dp432
g7
F0.0
sg79
F0.0
sg10
F0.0
sg11
F0.0
sg80
F32.0
sg81
F3.6666666666666665
sg13
F0.0
ssg48
(dp433
g7
F0.0
sg79
F0.3333333333333333
sg10
F0.0
sg11
F0.0
sg80
F66.33333333333333
sg81
F5.666666666666667
sg13
F0.0
ssg50
(dp434
g7
F0.0
sg79
F0.0
sg10
F0.0
sg11
F0.0
sg80
F36.666666666666664
sg81
F3.6666666666666665
sg13
F0.0
ssg52
(dp435
g7
F0.3333333333333333
sg79
F0.3333333333333333
sg10
F0.0
sg11
F0.0
sg80
F60.666666666666664
sg81
F5.0
sg13
F0.0
ssg54
(dp436
g7
F0.0
sg79
F0.6666666666666666
sg10
F0.0
sg11
F0.0
sg80
F75.0
sg81
F5.333333333333333
sg13
F0.0
ssg56
(dp437
g7
F0.0
sg79
F0.3333333333333333
sg10
F0.0
sg11
F0.0
sg80
F72.33333333333333
sg81
F4.333333333333333
sg13
F0.0
ssg58
(dp438
g7
F0.0
sg79
F1.0
sg10
F0.0
sg11
F0.0
sg80
F43.333333333333336
sg81
F4.333333333333333
sg13
F0.0
ssg60
(dp439
g7
F0.0
sg79
F0.0
sg10
F0.0
sg11
F0.0
sg80
F24.666666666666668
sg81
F2.6666666666666665
sg13
F0.0
ssg62
(dp440
g7
F0.0
sg79
F0.6666666666666666
sg10
F0.0
sg11
F0.0
sg80
F69.66666666666667
sg81
F5.0
sg13
F0.0
ssg64
(dp441
g7
F0.0
sg79
F0.0
sg10
F0.0
sg11
F0.3333333333333333
sg80
F19.333333333333332
sg81
F3.3333333333333335
sg13
F2.0
ssg66
(dp442
g7
F0.3333333333333333
sg79
F0.6666666666666666
sg10
F0.0
sg11
F0.0
sg80
F82.66666666666667
sg81
F5.333333333333333
sg13
F0.0
ssg68
(dp443
g7
F0.0
sg79
F0.3333333333333333
sg10
F0.0
sg11
F0.0
sg80
F54.333333333333336
sg81
F6.0
sg13
F0.0
ssg70
(dp444
g7
F0.0
sg79
F1.0
sg10
F0.0
sg11
F0.0
sg80
F82.0
sg81
F7.666666666666667
sg13
F0.0
ssg72
(dp445
g7
F0.0
sg79
F0.0
sg10
F0.0
sg11
F0.0
sg80
F49.666666666666664
sg81
F3.6666666666666665
sg13
F0.0
ssg74
(dp446
g7
F0.0
sg79
F0.0
sg10
F0.0
sg11
F0.0
sg80
F45.333333333333336
sg81
F5.333333333333333
sg13
F0.0
ssssI4
(dp447
S'QB'
p448
(dp449
S'Broncos'
p450
(dp451
S'PassTD'
p452
F0.5
sS'Lost'
p453
F0.25
sS'PassAtt'
p454
F34.75
sS'Int'
p455
F1.25
sS'RushTD'
p456
F0.5
sS'RushAtt'
p457
F6.25
sS'PassYds'
p458
F194.0
sS'RushYds'
p459
F33.75
ssS'Vikings'
p460
(dp461
g452
F0.75
sg453
F0.5
sg454
F39.5
sg455
F1.5
sg456
F0.5
sg457
F3.5
sg458
F252.5
sg459
F18.5
ssS'Bears'
p462
(dp463
g452
F1.0
sg453
F0.0
sg454
F32.25
sg455
F0.75
sg456
F0.25
sg457
F4.0
sg458
F220.5
sg459
F19.25
ssS'Falcons'
p464
(dp465
g452
F3.25
sg453
F0.0
sg454
F44.75
sg455
F1.0
sg456
F0.0
sg457
F3.25
sg458
F323.25
sg459
F13.0
ssS'Saints'
p466
(dp467
g452
F1.25
sg453
F0.25
sg454
F38.0
sg455
F0.25
sg456
F0.0
sg457
F3.0
sg458
F312.0
sg459
F8.75
ssS'Chargers'
p468
(dp469
g452
F1.75
sg453
F0.5
sg454
F42.75
sg455
F1.5
sg456
F0.25
sg457
F2.75
sg458
F307.5
sg459
F11.25
ssS'Raiders'
p470
(dp471
g452
F2.0
sg453
F0.75
sg454
F40.25
sg455
F0.75
sg456
F0.25
sg457
F1.5
sg458
F332.75
sg459
F7.0
ssS'Lions'
p472
(dp473
g452
F3.0
sg453
F0.0
sg454
F35.0
sg455
F0.25
sg456
F0.0
sg457
F3.5
sg458
F282.5
sg459
F12.5
ssS'Eagles'
p474
(dp475
g452
F0.0
sg453
F0.6666666666666666
sg454
F33.0
sg455
F1.0
sg456
F0.0
sg457
F2.0
sg458
F227.33333333333334
sg459
F14.666666666666666
ssS'Browns'
p476
(dp477
g452
F2.5
sg453
F0.25
sg454
F37.0
sg455
F1.25
sg456
F0.0
sg457
F1.0
sg458
F270.5
sg459
F1.0
ssS'Steelers'
p478
(dp479
g452
F1.25
sg453
F0.0
sg454
F44.5
sg455
F0.75
sg456
F0.0
sg457
F1.25
sg458
F320.75
sg459
F6.75
ssS'Giants'
p480
(dp481
g452
F1.0
sg453
F0.0
sg454
F40.0
sg455
F0.0
sg456
F0.0
sg457
F2.25
sg458
F262.0
sg459
F3.25
ssS'Buccaneers'
p482
(dp483
g452
F2.25
sg453
F0.0
sg454
F32.5
sg455
F0.25
sg456
F0.0
sg457
F2.0
sg458
F269.25
sg459
F1.75
ssS'Cardinals'
p484
(dp485
g452
F1.0
sg453
F0.75
sg454
F35.0
sg455
F1.25
sg456
F0.25
sg457
F4.75
sg458
F223.0
sg459
F27.75
ssS'Bengals'
p486
(dp487
g452
F2.5
sg453
F0.25
sg454
F33.0
sg455
F1.0
sg456
F0.0
sg457
F2.0
sg458
F237.25
sg459
F8.5
ssS'Chiefs'
p488
(dp489
g452
F1.75
sg453
F0.0
sg454
F35.0
sg455
F2.0
sg456
F0.0
sg457
F2.5
sg458
F249.75
sg459
F6.75
ssS'Jaguars'
p490
(dp491
g452
F2.0
sg453
F0.25
sg454
F35.25
sg455
F0.75
sg456
F0.5
sg457
F3.5
sg458
F216.75
sg459
F15.0
ssS'Seahawks'
p492
(dp493
g452
F0.25
sg453
F0.0
sg454
F31.25
sg455
F1.0
sg456
F0.25
sg457
F3.75
sg458
F201.25
sg459
F12.25
ssS'Jets'
p494
(dp495
g452
F2.0
sg453
F0.0
sg454
F31.5
sg455
F0.5
sg456
F0.0
sg457
F3.75
sg458
F304.75
sg459
F6.5
ssS'Ravens'
p496
(dp497
g452
F2.0
sg453
F0.0
sg454
F32.0
sg455
F1.25
sg456
F0.0
sg457
F3.25
sg458
F191.0
sg459
F6.5
ssS'Colts'
p498
(dp499
g452
F1.25
sg453
F0.25
sg454
F36.0
sg455
F0.25
sg456
F0.25
sg457
F2.75
sg458
F284.75
sg459
F12.5
ssS'Packers'
p500
(dp501
g452
F2.0
sg453
F0.0
sg454
F37.0
sg455
F0.6666666666666666
sg456
F0.0
sg457
F1.6666666666666667
sg458
F330.3333333333333
sg459
F3.3333333333333335
ssS'Dolphins'
p502
(dp503
g452
F1.25
sg453
F0.5
sg454
F35.5
sg455
F0.25
sg456
F0.0
sg457
F4.0
sg458
F280.5
sg459
F3.75
ssS'Titans'
p504
(dp505
g452
F1.0
sg453
F0.0
sg454
F36.25
sg455
F1.0
sg456
F0.0
sg457
F1.5
sg458
F249.75
sg459
F13.0
ssS'Rams'
p506
(dp507
g452
F1.25
sg453
F0.5
sg454
F43.75
sg455
F1.0
sg456
F0.0
sg457
F4.5
sg458
F288.5
sg459
F17.5
ssS'Bills'
p508
(dp509
g452
F0.5
sg453
F0.5
sg454
F36.0
sg455
F1.0
sg456
F0.0
sg457
F3.25
sg458
F281.0
sg459
F10.25
ssS'Texans'
p510
(dp511
g452
F0.25
sg453
F0.5
sg454
F28.5
sg455
F0.5
sg456
F0.25
sg457
F4.0
sg458
F176.75
sg459
F20.5
ssS'49ers'
p512
(dp513
g452
F2.0
sg453
F0.25
sg454
F34.75
sg455
F1.0
sg456
F0.0
sg457
F4.25
sg458
F259.0
sg459
F12.75
ssS'Patriots'
p514
(dp515
g452
F1.25
sg453
F0.0
sg454
F40.5
sg455
F0.75
sg456
F0.0
sg457
F3.5
sg458
F275.0
sg459
F19.25
ssS'Cowboys'
p516
(dp517
g452
F1.75
sg453
F0.25
sg454
F36.5
sg455
F0.75
sg456
F0.0
sg457
F4.0
sg458
F271.0
sg459
F12.25
ssS'Panthers'
p518
(dp519
g452
F2.0
sg453
F0.0
sg454
F31.75
sg455
F1.25
sg456
F0.25
sg457
F3.5
sg458
F273.75
sg459
F10.5
ssS'Redskins'
p520
(dp521
g452
F1.25
sg453
F0.0
sg454
F36.25
sg455
F1.0
sg456
F0.25
sg457
F1.0
sg458
F291.25
sg459
F1.5
sssS'WR'
p522
(dp523
g450
(dp524
g453
F0.0
sS'RecTD'
p525
F0.25
sg456
F0.0
sg457
F0.5
sS'RecYds'
p526
F110.75
sS'Rec'
p527
F9.75
sg459
F4.5
ssg460
(dp528
g453
F0.5
sg525
F0.25
sg456
F0.0
sg457
F0.75
sg526
F129.0
sg527
F11.75
sg459
F1.5
ssg462
(dp529
g453
F0.25
sg525
F0.75
sg456
F0.0
sg457
F0.5
sg526
F153.0
sg527
F12.75
sg459
F0.75
ssg464
(dp530
g453
F0.0
sg525
F1.5
sg456
F0.0
sg457
F1.25
sg526
F162.5
sg527
F13.75
sg459
F9.25
ssg466
(dp531
g453
F0.5
sg525
F0.75
sg456
F0.0
sg457
F0.0
sg526
F214.25
sg527
F15.5
sg459
F0.0
ssg468
(dp532
g453
F0.0
sg525
F1.0
sg456
F0.0
sg457
F0.5
sg526
F162.75
sg527
F12.5
sg459
F0.5
ssg470
(dp533
g453
F0.0
sg525
F1.5
sg456
F0.0
sg457
F0.5
sg526
F215.0
sg527
F16.0
sg459
F3.5
ssg472
(dp534
g453
F0.0
sg525
F1.5
sg456
F0.0
sg457
F0.25
sg526
F179.0
sg527
F13.5
sg459
F-0.25
ssg474
(dp535
g453
F0.0
sg525
F0.0
sg456
F0.0
sg457
F0.6666666666666666
sg526
F181.66666666666666
sg527
F12.0
sg459
F2.6666666666666665
ssg476
(dp536
g453
F0.0
sg525
F1.5
sg456
F0.0
sg457
F0.5
sg526
F160.75
sg527
F11.25
sg459
F4.0
ssg478
(dp537
g453
F0.25
sg525
F0.5
sg456
F0.0
sg457
F0.25
sg526
F180.5
sg527
F16.25
sg459
F-0.5
ssg480
(dp538
g453
F0.0
sg525
F0.75
sg456
F0.0
sg457
F0.5
sg526
F181.0
sg527
F15.0
sg459
F0.25
ssg482
(dp539
g453
F0.25
sg525
F2.25
sg456
F0.0
sg457
F0.75
sg526
F181.0
sg527
F12.25
sg459
F6.5
ssg484
(dp540
g453
F0.0
sg525
F1.25
sg456
F0.0
sg457
F1.0
sg526
F174.0
sg527
F13.5
sg459
F2.5
ssg486
(dp541
g453
F0.25
sg525
F1.5
sg456
F0.0
sg457
F0.5
sg526
F167.5
sg527
F11.75
sg459
F1.5
ssg488
(dp542
g453
F0.25
sg525
F1.25
sg456
F0.0
sg457
F0.5
sg526
F186.0
sg527
F13.0
sg459
F-0.75
ssg490
(dp543
g453
F0.0
sg525
F1.75
sg456
F0.0
sg457
F1.75
sg526
F156.25
sg527
F12.75
sg459
F5.0
ssg492
(dp544
g453
F0.0
sg525
F0.25
sg456
F0.0
sg457
F0.5
sg526
F144.0
sg527
F11.75
sg459
F1.5
ssg494
(dp545
g453
F0.0
sg525
F0.75
sg456
F0.0
sg457
F0.75
sg526
F188.75
sg527
F11.75
sg459
F-2.25
ssg496
(dp546
g453
F0.0
sg525
F2.0
sg456
F0.0
sg457
F0.0
sg526
F129.0
sg527
F12.5
sg459
F0.0
ssg498
(dp547
g453
F0.25
sg525
F0.5
sg456
F0.0
sg457
F0.25
sg526
F169.0
sg527
F13.75
sg459
F0.5
ssg500
(dp548
g453
F0.0
sg525
F1.3333333333333333
sg456
F0.0
sg457
F0.6666666666666666
sg526
F227.66666666666666
sg527
F14.0
sg459
F-3.3333333333333335
ssg502
(dp549
g453
F0.25
sg525
F1.0
sg456
F0.25
sg457
F1.25
sg526
F200.0
sg527
F15.5
sg459
F5.5
ssg504
(dp550
g453
F0.0
sg525
F0.75
sg456
F0.0
sg457
F0.75
sg526
F165.5
sg527
F13.75
sg459
F2.25
ssg506
(dp551
g453
F0.0
sg525
F0.5
sg456
F0.0
sg457
F0.25
sg526
F211.75
sg527
F17.25
sg459
F0.25
ssg508
(dp552
g453
F0.25
sg525
F0.5
sg456
F0.0
sg457
F0.5
sg526
F199.0
sg527
F13.5
sg459
F3.0
ssg510
(dp553
g453
F0.0
sg525
F0.25
sg456
F0.0
sg457
F1.0
sg526
F133.25
sg527
F10.0
sg459
F3.25
ssg512
(dp554
g453
F0.25
sg525
F1.5
sg456
F0.0
sg457
F1.25
sg526
F155.5
sg527
F11.75
sg459
F4.5
ssg514
(dp555
g453
F0.25
sg525
F0.75
sg456
F0.0
sg457
F0.25
sg526
F171.0
sg527
F13.5
sg459
F1.0
ssg516
(dp556
g453
F0.25
sg525
F1.0
sg456
F0.0
sg457
F0.0
sg526
F150.5
sg527
F12.25
sg459
F0.0
ssg518
(dp557
g453
F0.0
sg525
F0.75
sg456
F0.0
sg457
F0.0
sg526
F178.75
sg527
F11.5
sg459
F0.0
ssg520
(dp558
g453
F0.0
sg525
F1.25
sg456
F0.0
sg457
F0.25
sg526
F196.0
sg527
F13.75
sg459
F-1.5
sssS'RB'
p559
(dp560
g450
(dp561
g453
F0.25
sg525
F0.25
sg456
F0.75
sg457
F20.25
sg526
F25.0
sg527
F4.5
sg459
F75.5
ssg460
(dp562
g453
F0.25
sg525
F0.5
sg456
F0.25
sg457
F18.5
sg526
F66.5
sg527
F6.25
sg459
F62.5
ssg462
(dp563
g453
F0.0
sg525
F0.0
sg456
F1.0
sg457
F27.0
sg526
F26.5
sg527
F4.25
sg459
F103.5
ssg464
(dp564
g453
F0.0
sg525
F0.5
sg456
F0.5
sg457
F18.25
sg526
F75.0
sg527
F9.5
sg459
F80.0
ssg466
(dp565
g453
F0.5
sg525
F0.0
sg456
F2.0
sg457
F21.25
sg526
F45.75
sg527
F5.5
sg459
F76.5
ssg468
(dp566
g453
F0.0
sg525
F0.5
sg456
F1.5
sg457
F19.25
sg526
F69.5
sg527
F9.0
sg459
F70.25
ssg470
(dp567
g453
F0.0
sg525
F0.25
sg456
F0.75
sg457
F20.25
sg526
F48.75
sg527
F5.5
sg459
F100.75
ssg472
(dp568
g453
F0.0
sg525
F0.0
sg456
F0.0
sg457
F19.5
sg526
F39.25
sg527
F5.25
sg459
F100.75
ssg474
(dp569
g453
F0.3333333333333333
sg525
F0.0
sg456
F0.6666666666666666
sg457
F13.666666666666666
sg526
F31.333333333333332
sg527
F5.0
sg459
F53.666666666666664
ssg476
(dp570
g453
F0.0
sg525
F0.5
sg456
F0.75
sg457
F26.25
sg526
F28.5
sg527
F4.0
sg459
F113.25
ssg478
(dp571
g453
F0.5
sg525
F0.5
sg456
F0.75
sg457
F20.25
sg526
F83.25
sg527
F6.25
sg459
F76.0
ssg480
(dp572
g453
F0.0
sg525
F0.0
sg456
F0.75
sg457
F23.75
sg526
F22.0
sg527
F4.5
sg459
F80.5
ssg482
(dp573
g453
F0.0
sg525
F0.0
sg456
F1.0
sg457
F23.75
sg526
F54.5
sg527
F3.25
sg459
F82.5
ssg484
(dp574
g453
F0.25
sg525
F0.0
sg456
F0.75
sg457
F21.5
sg526
F24.75
sg527
F4.0
sg459
F79.5
ssg486
(dp575
g453
F0.0
sg525
F0.25
sg456
F0.0
sg457
F23.0
sg526
F43.0
sg527
F4.75
sg459
F87.5
ssg488
(dp576
g453
F0.25
sg525
F0.25
sg456
F0.75
sg457
F25.5
sg526
F33.5
sg527
F5.5
sg459
F123.5
ssg490
(dp577
g453
F0.0
sg525
F0.0
sg456
F0.5
sg457
F21.5
sg526
F32.5
sg527
F7.0
sg459
F85.75
ssg492
(dp578
g453
F0.0
sg525
F0.0
sg456
F0.5
sg457
F19.75
sg526
F47.75
sg527
F4.0
sg459
F66.5
ssg494
(dp579
g453
F0.25
sg525
F0.75
sg456
F0.25
sg457
F18.25
sg526
F27.5
sg527
F4.75
sg459
F66.0
ssg496
(dp580
g453
F0.25
sg525
F0.0
sg456
F0.5
sg457
F18.5
sg526
F28.25
sg527
F4.75
sg459
F73.5
ssg498
(dp581
g453
F0.0
sg525
F0.5
sg456
F1.0
sg457
F22.75
sg526
F62.5
sg527
F6.0
sg459
F95.0
ssg500
(dp582
g453
F0.0
sg525
F0.0
sg456
F0.3333333333333333
sg457
F21.333333333333332
sg526
F27.666666666666668
sg527
F5.333333333333333
sg459
F42.666666666666664
ssg502
(dp583
g453
F0.0
sg525
F0.0
sg456
F0.25
sg457
F29.5
sg526
F23.75
sg527
F4.5
sg459
F120.5
ssg504
(dp584
g453
F0.0
sg525
F0.0
sg456
F0.25
sg457
F22.75
sg526
F21.5
sg527
F3.25
sg459
F94.75
ssg506
(dp585
g453
F0.75
sg525
F0.0
sg456
F1.0
sg457
F23.5
sg526
F46.5
sg527
F5.5
sg459
F86.75
ssg508
(dp586
g453
F0.0
sg525
F0.0
sg456
F1.25
sg457
F23.0
sg526
F37.25
sg527
F5.5
sg459
F82.75
ssg510
(dp587
g453
F0.25
sg525
F0.0
sg456
F1.25
sg457
F22.25
sg526
F20.5
sg527
F2.0
sg459
F100.0
ssg512
(dp588
g453
F0.25
sg525
F0.0
sg456
F0.75
sg457
F27.0
sg526
F29.75
sg527
F4.0
sg459
F123.25
ssg514
(dp589
g453
F0.5
sg525
F0.25
sg456
F0.5
sg457
F19.75
sg526
F46.5
sg527
F7.0
sg459
F81.0
ssg516
(dp590
g453
F0.0
sg525
F0.0
sg456
F0.5
sg457
F17.0
sg526
F39.25
sg527
F4.0
sg459
F82.5
ssg518
(dp591
g453
F0.5
sg525
F0.25
sg456
F0.5
sg457
F19.25
sg526
F29.75
sg527
F3.75
sg459
F65.5
ssg520
(dp592
g453
F1.0
sg525
F0.0
sg456
F1.75
sg457
F27.75
sg526
F48.0
sg527
F6.75
sg459
F139.5
sssS'TE'
p593
(dp594
g450
(dp595
g453
F0.0
sg525
F0.0
sg456
F0.0
sg457
F0.0
sg526
F58.25
sg527
F5.0
sg459
F0.0
ssg460
(dp596
g453
F0.0
sg525
F0.0
sg456
F0.0
sg457
F0.0
sg526
F57.0
sg527
F5.0
sg459
F0.0
ssg462
(dp597
g453
F0.0
sg525
F0.25
sg456
F0.0
sg457
F0.0
sg526
F41.0
sg527
F4.25
sg459
F0.0
ssg464
(dp598
g453
F0.0
sg525
F1.25
sg456
F0.0
sg457
F0.0
sg526
F85.0
sg527
F7.5
sg459
F0.0
ssg466
(dp599
g453
F0.0
sg525
F0.25
sg456
F0.0
sg457
F0.0
sg526
F37.0
sg527
F4.0
sg459
F0.0
ssg468
(dp600
g453
F0.0
sg525
F0.25
sg456
F0.0
sg457
F0.0
sg526
F75.25
sg527
F6.5
sg459
F0.0
ssg470
(dp601
g453
F0.0
sg525
F0.25
sg456
F0.0
sg457
F0.0
sg526
F69.5
sg527
F4.75
sg459
F0.0
ssg472
(dp602
g453
F0.0
sg525
F1.5
sg456
F0.0
sg457
F0.0
sg526
F64.25
sg527
F6.0
sg459
F0.0
ssg474
(dp603
g453
F0.0
sg525
F0.0
sg456
F0.0
sg457
F0.0
sg526
F14.333333333333334
sg527
F2.0
sg459
F0.0
ssg476
(dp604
g453
F0.0
sg525
F0.5
sg456
F0.0
sg457
F0.0
sg526
F81.25
sg527
F8.0
sg459
F0.0
ssg478
(dp605
g453
F0.0
sg525
F0.25
sg456
F0.0
sg457
F0.0
sg526
F60.75
sg527
F6.25
sg459
F0.0
ssg480
(dp606
g453
F0.0
sg525
F0.25
sg456
F0.0
sg457
F0.0
sg526
F59.0
sg527
F5.75
sg459
F0.0
ssg482
(dp607
g453
F0.0
sg525
F0.0
sg456
F0.0
sg457
F0.0
sg526
F28.75
sg527
F3.0
sg459
F0.0
ssg484
(dp608
g453
F0.0
sg525
F0.0
sg456
F0.0
sg457
F0.0
sg526
F31.0
sg527
F3.5
sg459
F0.0
ssg486
(dp609
g453
F0.0
sg525
F0.75
sg456
F0.0
sg457
F0.0
sg526
F26.75
sg527
F2.5
sg459
F0.0
ssg488
(dp610
g453
F0.0
sg525
F0.25
sg456
F0.0
sg457
F0.0
sg526
F30.25
sg527
F3.0
sg459
F0.0
ssg490
(dp611
g453
F0.0
sg525
F0.25
sg456
F0.0
sg457
F0.0
sg526
F28.0
sg527
F3.5
sg459
F0.0
ssg492
(dp612
g453
F0.0
sg525
F0.0
sg456
F0.0
sg457
F0.0
sg526
F30.5
sg527
F3.0
sg459
F0.0
ssg494
(dp613
g453
F0.0
sg525
F0.25
sg456
F0.0
sg457
F0.0
sg526
F78.0
sg527
F5.75
sg459
F0.0
ssg496
(dp614
g453
F0.0
sg525
F0.0
sg456
F0.0
sg457
F0.0
sg526
F33.75
sg527
F3.75
sg459
F0.0
ssg498
(dp615
g453
F0.25
sg525
F0.25
sg456
F0.0
sg457
F0.0
sg526
F51.0
sg527
F4.25
sg459
F0.0
ssg500
(dp616
g453
F0.0
sg525
F0.6666666666666666
sg456
F0.0
sg457
F0.0
sg526
F75.0
sg527
F5.333333333333333
sg459
F0.0
ssg502
(dp617
g453
F0.0
sg525
F0.25
sg456
F0.0
sg457
F0.0
sg526
F65.5
sg527
F4.25
sg459
F0.0
ssg504
(dp618
g453
F0.0
sg525
F0.25
sg456
F0.0
sg457
F0.0
sg526
F62.75
sg527
F4.5
sg459
F0.0
ssg506
(dp619
g453
F0.0
sg525
F0.75
sg456
F0.0
sg457
F0.0
sg526
F34.25
sg527
F3.75
sg459
F0.0
ssg508
(dp620
g453
F0.0
sg525
F0.0
sg456
F0.0
sg457
F0.0
sg526
F48.5
sg527
F3.5
sg459
F0.0
ssg510
(dp621
g453
F0.0
sg525
F0.0
sg456
F0.0
sg457
F0.25
sg526
F23.0
sg527
F3.0
sg459
F1.5
ssg512
(dp622
g453
F0.25
sg525
F0.5
sg456
F0.0
sg457
F0.0
sg526
F73.75
sg527
F5.75
sg459
F0.0
ssg514
(dp623
g453
F0.0
sg525
F0.25
sg456
F0.0
sg457
F0.0
sg526
F57.5
sg527
F6.25
sg459
F0.0
ssg516
(dp624
g453
F0.0
sg525
F0.75
sg456
F0.0
sg457
F0.0
sg526
F81.25
sg527
F7.0
sg459
F0.0
ssg518
(dp625
g453
F0.0
sg525
F1.0
sg456
F0.0
sg457
F0.0
sg526
F63.5
sg527
F4.5
sg459
F0.0
ssg520
(dp626
g453
F0.0
sg525
F0.0
sg456
F0.0
sg457
F0.0
sg526
F48.25
sg527
F5.75
sg459
F0.0
ssssI5
(dp627
S'QB'
p628
(dp629
S'Broncos'
p630
(dp631
S'PassTD'
p632
F0.6
sS'Lost'
p633
F0.2
sS'PassAtt'
p634
F33.4
sS'Int'
p635
F1.0
sS'RushTD'
p636
F0.4
sS'RushAtt'
p637
F5.6
sS'PassYds'
p638
F208.6
sS'RushYds'
p639
F27.6
ssS'Vikings'
p640
(dp641
g632
F0.8
sg633
F0.4
sg634
F40.0
sg635
F1.4
sg636
F0.4
sg637
F2.8
sg638
F238.8
sg639
F14.8
ssS'Bears'
p642
(dp643
g632
F1.2
sg633
F0.0
sg634
F33.6
sg635
F0.6
sg636
F0.2
sg637
F4.2
sg638
F240.8
sg639
F18.0
ssS'Falcons'
p644
(dp645
g632
F2.8
sg633
F0.0
sg634
F42.8
sg635
F1.0
sg636
F0.0
sg637
F3.8
sg638
F303.2
sg639
F14.0
ssS'Saints'
p646
(dp647
g632
F1.25
sg633
F0.25
sg634
F38.0
sg635
F0.25
sg636
F0.0
sg637
F3.0
sg638
F312.0
sg639
F8.75
ssS'Chargers'
p648
(dp649
g632
F1.8
sg633
F0.4
sg634
F42.2
sg635
F1.4
sg636
F0.2
sg637
F2.6
sg638
F309.4
sg639
F11.6
ssS'Raiders'
p650
(dp651
g632
F2.4
sg633
F0.6
sg634
F38.2
sg635
F1.0
sg636
F0.2
sg637
F1.2
sg638
F338.0
sg639
F5.6
ssS'Lions'
p652
(dp653
g632
F2.8
sg633
F0.0
sg634
F34.6
sg635
F0.4
sg636
F0.0
sg637
F3.2
sg638
F273.6
sg639
F12.8
ssS'Eagles'
p654
(dp655
g632
F0.75
sg633
F0.75
sg634
F31.0
sg635
F0.75
sg636
F0.0
sg637
F3.0
sg638
F215.5
sg639
F15.0
ssS'Browns'
p656
(dp657
g632
F2.6
sg633
F0.2
sg634
F37.8
sg635
F1.0
sg636
F0.0
sg637
F1.6
sg638
F297.6
sg639
F3.0
ssS'Steelers'
p658
(dp659
g632
F1.2
sg633
F0.0
sg634
F43.2
sg635
F0.6
sg636
F0.0
sg637
F1.2
sg638
F307.6
sg639
F7.2
ssS'Giants'
p660
(dp661
g632
F1.2
sg633
F0.0
sg634
F41.0
sg635
F0.4
sg636
F0.0
sg637
F2.8
sg638
F261.4
sg639
F5.6
ssS'Buccaneers'
p662
(dp663
g632
F1.8
sg633
F0.2
sg634
F31.6
sg635
F0.6
sg636
F0.0
sg637
F1.8
sg638
F271.0
sg639
F2.2
ssS'Cardinals'
p664
(dp665
g632
F1.0
sg633
F0.6
sg634
F34.2
sg635
F1.4
sg636
F0.4
sg637
F5.8
sg638
F210.8
sg639
F36.2
ssS'Bengals'
p666
(dp667
g632
F2.2
sg633
F0.4
sg634
F31.2
sg635
F0.8
sg636
F0.2
sg637
F3.0
sg638
F235.2
sg639
F7.6
ssS'Chiefs'
p668
(dp669
g632
F1.75
sg633
F0.0
sg634
F35.0
sg635
F2.0
sg636
F0.0
sg637
F2.5
sg638
F249.75
sg639
F6.75
ssS'Jaguars'
p670
(dp671
g632
F2.0
sg633
F0.25
sg634
F35.25
sg635
F0.75
sg636
F0.5
sg637
F3.5
sg638
F216.75
sg639
F15.0
ssS'Seahawks'
p672
(dp673
g632
F0.25
sg633
F0.0
sg634
F31.25
sg635
F1.0
sg636
F0.25
sg637
F3.75
sg638
F201.25
sg639
F12.25
ssS'Jets'
p674
(dp675
g632
F2.4
sg633
F0.2
sg634
F34.6
sg635
F0.4
sg636
F0.0
sg637
F3.4
sg638
F319.8
sg639
F4.8
ssS'Ravens'
p676
(dp677
g632
F1.8
sg633
F0.0
sg634
F33.8
sg635
F1.2
sg636
F0.0
sg637
F2.8
sg638
F204.8
sg639
F5.0
ssS'Colts'
p678
(dp679
g632
F1.4
sg633
F0.2
sg634
F37.4
sg635
F0.2
sg636
F0.2
sg637
F2.4
sg638
F307.2
sg639
F9.8
ssS'Packers'
p680
(dp681
g632
F1.75
sg633
F0.25
sg634
F36.5
sg635
F0.5
sg636
F0.0
sg637
F1.5
sg638
F297.5
sg639
F2.75
ssS'Dolphins'
p682
(dp683
g632
F1.6
sg633
F0.4
sg634
F34.2
sg635
F0.2
sg636
F0.2
sg637
F4.6
sg638
F257.0
sg639
F15.0
ssS'Rams'
p684
(dp685
g632
F1.4
sg633
F0.4
sg634
F39.6
sg635
F0.8
sg636
F0.0
sg637
F4.6
sg638
F255.6
sg639
F19.6
ssS'Bills'
p686
(dp687
g632
F0.4
sg633
F0.4
sg634
F35.0
sg635
F1.2
sg636
F0.0
sg637
F2.6
sg638
F279.0
sg639
F8.2
ssS'Panthers'
p688
(dp689
g632
F1.8
sg633
F0.0
sg634
F31.4
sg635
F1.0
sg636
F0.2
sg637
F3.6
sg638
F262.8
sg639
F9.6
ssS'Texans'
p690
(dp691
g632
F0.6
sg633
F0.4
sg634
F28.8
sg635
F0.4
sg636
F0.2
sg637
F3.6
sg638
F195.6
sg639
F16.0
ssS'49ers'
p692
(dp693
g632
F2.0
sg633
F0.2
sg634
F33.4
sg635
F0.8
sg636
F0.0
sg637
F3.8
sg638
F232.0
sg639
F9.8
ssS'Patriots'
p694
(dp695
g632
F1.2
sg633
F0.0
sg634
F34.0
sg635
F0.6
sg636
F0.0
sg637
F3.0
sg638
F232.4
sg639
F15.4
ssS'Cowboys'
p696
(dp697
g632
F1.8
sg633
F0.2
sg634
F37.4
sg635
F0.6
sg636
F0.0
sg637
F4.4
sg638
F270.6
sg639
F16.6
ssS'Titans'
p698
(dp699
g632
F0.8
sg633
F0.0
sg634
F32.6
sg635
F1.2
sg636
F0.0
sg637
F1.2
sg638
F238.0
sg639
F10.4
ssS'Redskins'
p700
(dp701
g632
F1.2
sg633
F0.0
sg634
F38.2
sg635
F0.8
sg636
F0.2
sg637
F1.0
sg638
F275.0
sg639
F2.4
sssS'WR'
p702
(dp703
g630
(dp704
g633
F0.2
sS'RecTD'
p705
F0.2
sg636
F0.0
sg637
F0.4
sS'RecYds'
p706
F103.0
sS'Rec'
p707
F8.8
sg639
F3.6
ssg640
(dp708
g633
F0.4
sg705
F0.4
sg636
F0.0
sg637
F0.6
sg706
F125.4
sg707
F11.8
sg639
F1.2
ssg642
(dp709
g633
F0.2
sg705
F0.8
sg636
F0.0
sg637
F0.6
sg706
F172.4
sg707
F13.6
sg639
F2.0
ssg644
(dp710
g633
F0.0
sg705
F1.4
sg636
F0.0
sg637
F1.0
sg706
F163.2
sg707
F14.2
sg639
F7.4
ssg646
(dp711
g633
F0.5
sg705
F0.75
sg636
F0.0
sg637
F0.0
sg706
F214.25
sg707
F15.5
sg639
F0.0
ssg648
(dp712
g633
F0.0
sg705
F1.2
sg636
F0.0
sg637
F0.4
sg706
F174.2
sg707
F12.6
sg639
F0.4
ssg650
(dp713
g633
F0.0
sg705
F1.4
sg636
F0.0
sg637
F0.4
sg706
F219.4
sg707
F15.4
sg639
F2.8
ssg652
(dp714
g633
F0.0
sg705
F1.4
sg636
F0.0
sg637
F0.8
sg706
F171.2
sg707
F13.2
sg639
F2.8
ssg654
(dp715
g633
F0.0
sg705
F0.25
sg636
F0.0
sg637
F1.25
sg706
F167.25
sg707
F11.75
sg639
F3.5
ssg656
(dp716
g633
F0.0
sg705
F1.2
sg636
F0.0
sg637
F0.8
sg706
F162.0
sg707
F11.6
sg639
F4.6
ssg658
(dp717
g633
F0.2
sg705
F0.6
sg636
F0.0
sg637
F0.2
sg706
F180.6
sg707
F15.8
sg639
F-0.4
ssg660
(dp718
g633
F0.0
sg705
F1.0
sg636
F0.0
sg637
F0.8
sg706
F191.0
sg707
F15.6
sg639
F0.4
ssg662
(dp719
g633
F0.4
sg705
F1.8
sg636
F0.0
sg637
F0.6
sg706
F162.4
sg707
F11.4
sg639
F5.2
ssg664
(dp720
g633
F0.0
sg705
F1.2
sg636
F0.0
sg637
F0.8
sg706
F162.8
sg707
F12.8
sg639
F2.0
ssg666
(dp721
g633
F0.2
sg705
F1.4
sg636
F0.0
sg637
F0.6
sg706
F162.6
sg707
F11.6
sg639
F3.0
ssg668
(dp722
g633
F0.25
sg705
F1.25
sg636
F0.0
sg637
F0.5
sg706
F186.0
sg707
F13.0
sg639
F-0.75
ssg670
(dp723
g633
F0.0
sg705
F1.75
sg636
F0.0
sg637
F1.75
sg706
F156.25
sg707
F12.75
sg639
F5.0
ssg672
(dp724
g633
F0.0
sg705
F0.25
sg636
F0.0
sg637
F0.5
sg706
F144.0
sg707
F11.75
sg639
F1.5
ssg674
(dp725
g633
F0.0
sg705
F1.2
sg636
F0.0
sg637
F0.6
sg706
F198.2
sg707
F12.8
sg639
F-1.8
ssg676
(dp726
g633
F0.0
sg705
F1.8
sg636
F0.0
sg637
F0.0
sg706
F130.0
sg707
F12.4
sg639
F0.0
ssg678
(dp727
g633
F0.4
sg705
F0.6
sg636
F0.0
sg637
F0.4
sg706
F188.0
sg707
F15.4
sg639
F1.6
ssg680
(dp728
g633
F0.0
sg705
F1.25
sg636
F0.0
sg637
F0.5
sg706
F206.5
sg707
F13.0
sg639
F-2.5
ssg682
(dp729
g633
F0.2
sg705
F1.2
sg636
F0.2
sg637
F1.0
sg706
F174.2
sg707
F14.2
sg639
F4.4
ssg684
(dp730
g633
F0.0
sg705
F1.0
sg636
F0.0
sg637
F0.2
sg706
F205.2
sg707
F15.8
sg639
F0.2
ssg686
(dp731
g633
F0.2
sg705
F0.4
sg636
F0.0
sg637
F1.2
sg706
F196.2
sg707
F13.8
sg639
F8.0
ssg688
(dp732
g633
F0.0
sg705
F0.8
sg636
F0.0
sg637
F0.0
sg706
F170.2
sg707
F11.2
sg639
F0.0
ssg690
(dp733
g633
F0.0
sg705
F0.6
sg636
F0.0
sg637
F1.0
sg706
F146.6
sg707
F11.2
sg639
F4.0
ssg692
(dp734
g633
F0.2
sg705
F1.6
sg636
F0.0
sg637
F1.0
sg706
F142.8
sg707
F10.8
sg639
F3.6
ssg694
(dp735
g633
F0.2
sg705
F0.8
sg636
F0.0
sg637
F0.6
sg706
F160.2
sg707
F13.0
sg639
F1.4
ssg696
(dp736
g633
F0.2
sg705
F1.2
sg636
F0.0
sg637
F0.0
sg706
F150.6
sg707
F12.8
sg639
F0.0
ssg698
(dp737
g633
F0.0
sg705
F0.6
sg636
F0.0
sg637
F0.8
sg706
F152.0
sg707
F12.0
sg639
F2.2
ssg700
(dp738
g633
F0.0
sg705
F1.0
sg636
F0.0
sg637
F0.2
sg706
F177.4
sg707
F13.4
sg639
F-1.2
sssS'RB'
p739
(dp740
g630
(dp741
g633
F0.2
sg705
F0.4
sg636
F0.6
sg637
F17.4
sg706
F49.0
sg707
F4.6
sg639
F66.6
ssg640
(dp742
g633
F0.2
sg705
F0.4
sg636
F0.2
sg637
F17.6
sg706
F54.0
sg707
F5.2
sg639
F61.8
ssg642
(dp743
g633
F0.0
sg705
F0.0
sg636
F0.8
sg637
F24.6
sg706
F24.0
sg707
F4.0
sg639
F98.4
ssg644
(dp744
g633
F0.0
sg705
F0.4
sg636
F0.4
sg637
F18.2
sg706
F71.4
sg707
F9.0
sg639
F77.2
ssg646
(dp745
g633
F0.5
sg705
F0.0
sg636
F2.0
sg637
F21.25
sg706
F45.75
sg707
F5.5
sg639
F76.5
ssg648
(dp746
g633
F0.0
sg705
F0.4
sg636
F1.4
sg637
F20.0
sg706
F75.0
sg707
F9.6
sg639
F71.4
ssg650
(dp747
g633
F0.2
sg705
F0.4
sg636
F0.6
sg637
F19.6
sg706
F42.8
sg707
F4.8
sg639
F94.8
ssg652
(dp748
g633
F0.2
sg705
F0.2
sg636
F0.0
sg637
F18.8
sg706
F42.6
sg707
F6.0
sg639
F98.0
ssg654
(dp749
g633
F0.25
sg705
F0.5
sg636
F0.5
sg637
F14.75
sg706
F37.5
sg707
F5.75
sg639
F54.75
ssg656
(dp750
g633
F0.0
sg705
F0.4
sg636
F0.8
sg637
F25.8
sg706
F22.8
sg707
F3.2
sg639
F101.4
ssg658
(dp751
g633
F0.4
sg705
F0.4
sg636
F0.6
sg637
F19.4
sg706
F76.2
sg707
F6.6
sg639
F73.4
ssg660
(dp752
g633
F0.0
sg705
F0.0
sg636
F0.6
sg637
F24.0
sg706
F22.0
sg707
F4.4
sg639
F90.6
ssg662
(dp753
g633
F0.0
sg705
F0.0
sg636
F1.2
sg637
F23.8
sg706
F45.4
sg707
F2.8
sg639
F92.4
ssg664
(dp754
g633
F0.2
sg705
F0.0
sg636
F0.8
sg637
F22.4
sg706
F27.0
sg707
F4.4
sg639
F79.8
ssg666
(dp755
g633
F0.0
sg705
F0.2
sg636
F0.4
sg637
F22.6
sg706
F42.6
sg707
F4.6
sg639
F103.4
ssg668
(dp756
g633
F0.25
sg705
F0.25
sg636
F0.75
sg637
F25.5
sg706
F33.5
sg707
F5.5
sg639
F123.5
ssg670
(dp757
g633
F0.0
sg705
F0.0
sg636
F0.5
sg637
F21.5
sg706
F32.5
sg707
F7.0
sg639
F85.75
ssg672
(dp758
g633
F0.0
sg705
F0.0
sg636
F0.5
sg637
F19.75
sg706
F47.75
sg707
F4.0
sg639
F66.5
ssg674
(dp759
g633
F0.2
sg705
F0.6
sg636
F0.2
sg637
F18.8
sg706
F39.6
sg707
F5.6
sg639
F66.0
ssg676
(dp760
g633
F0.4
sg705
F0.0
sg636
F0.4
sg637
F18.6
sg706
F34.2
sg707
F5.0
sg639
F71.0
ssg678
(dp761
g633
F0.0
sg705
F0.6
sg636
F0.8
sg637
F21.6
sg706
F62.0
sg707
F5.6
sg639
F100.0
ssg680
(dp762
g633
F0.0
sg705
F0.0
sg636
F0.25
sg637
F20.0
sg706
F37.0
sg707
F5.75
sg639
F44.5
ssg682
(dp763
g633
F0.0
sg705
F0.0
sg636
F0.2
sg637
F30.4
sg706
F22.2
sg707
F4.6
sg639
F131.4
ssg684
(dp764
g633
F0.6
sg705
F0.0
sg636
F1.0
sg637
F23.2
sg706
F38.8
sg707
F4.8
sg639
F102.4
ssg686
(dp765
g633
F0.2
sg705
F0.0
sg636
F1.2
sg637
F23.4
sg706
F42.2
sg707
F5.2
sg639
F81.0
ssg688
(dp766
g633
F0.4
sg705
F0.2
sg636
F0.4
sg637
F22.0
sg706
F29.4
sg707
F4.0
sg639
F73.8
ssg690
(dp767
g633
F0.2
sg705
F0.0
sg636
F1.2
sg637
F24.6
sg706
F27.6
sg707
F2.4
sg639
F98.2
ssg692
(dp768
g633
F0.2
sg705
F0.0
sg636
F1.0
sg637
F28.6
sg706
F29.4
sg707
F3.8
sg639
F133.4
ssg694
(dp769
g633
F0.4
sg705
F0.2
sg636
F0.4
sg637
F19.2
sg706
F45.0
sg707
F6.2
sg639
F69.4
ssg696
(dp770
g633
F0.0
sg705
F0.0
sg636
F0.4
sg637
F16.2
sg706
F40.6
sg707
F4.4
sg639
F78.4
ssg698
(dp771
g633
F0.0
sg705
F0.0
sg636
F0.4
sg637
F21.4
sg706
F33.8
sg707
F3.4
sg639
F85.6
ssg700
(dp772
g633
F0.8
sg705
F0.0
sg636
F1.4
sg637
F25.8
sg706
F42.4
sg707
F6.8
sg639
F134.0
sssS'TE'
p773
(dp774
g630
(dp775
g633
F0.0
sg705
F0.0
sg636
F0.0
sg637
F0.0
sg706
F49.6
sg707
F4.4
sg639
F0.0
ssg640
(dp776
g633
F0.0
sg705
F0.0
sg636
F0.0
sg637
F0.0
sg706
F59.4
sg707
F5.2
sg639
F0.0
ssg642
(dp777
g633
F0.0
sg705
F0.4
sg636
F0.0
sg637
F0.0
sg706
F44.4
sg707
F5.0
sg639
F0.0
ssg644
(dp778
g633
F0.0
sg705
F1.0
sg636
F0.0
sg637
F0.0
sg706
F68.0
sg707
F6.0
sg639
F0.0
ssg646
(dp779
g633
F0.0
sg705
F0.25
sg636
F0.0
sg637
F0.0
sg706
F37.0
sg707
F4.0
sg639
F0.0
ssg648
(dp780
g633
F0.0
sg705
F0.2
sg636
F0.0
sg637
F0.0
sg706
F60.2
sg707
F5.2
sg639
F0.0
ssg650
(dp781
g633
F0.2
sg705
F0.6
sg636
F0.0
sg637
F0.0
sg706
F76.4
sg707
F5.2
sg639
F0.0
ssg652
(dp782
g633
F0.0
sg705
F1.2
sg636
F0.0
sg637
F0.0
sg706
F59.8
sg707
F5.6
sg639
F0.0
ssg654
(dp783
g633
F0.0
sg705
F0.0
sg636
F0.0
sg637
F0.0
sg706
F10.75
sg707
F1.5
sg639
F0.0
ssg656
(dp784
g633
F0.0
sg705
F1.0
sg636
F0.0
sg637
F0.0
sg706
F100.2
sg707
F8.6
sg639
F0.0
ssg658
(dp785
g633
F0.0
sg705
F0.2
sg636
F0.0
sg637
F0.0
sg706
F53.8
sg707
F5.6
sg639
F0.0
ssg660
(dp786
g633
F0.0
sg705
F0.2
sg636
F0.0
sg637
F0.0
sg706
F48.4
sg707
F4.8
sg639
F0.0
ssg662
(dp787
g633
F0.0
sg705
F0.0
sg636
F0.0
sg637
F0.0
sg706
F59.2
sg707
F4.2
sg639
F0.0
ssg664
(dp788
g633
F0.0
sg705
F0.0
sg636
F0.0
sg637
F0.0
sg706
F28.8
sg707
F3.8
sg639
F0.0
ssg666
(dp789
g633
F0.0
sg705
F0.6
sg636
F0.0
sg637
F0.0
sg706
F30.0
sg707
F2.6
sg639
F0.0
ssg668
(dp790
g633
F0.0
sg705
F0.25
sg636
F0.0
sg637
F0.0
sg706
F30.25
sg707
F3.0
sg639
F0.0
ssg670
(dp791
g633
F0.0
sg705
F0.25
sg636
F0.0
sg637
F0.0
sg706
F28.0
sg707
F3.5
sg639
F0.0
ssg672
(dp792
g633
F0.0
sg705
F0.0
sg636
F0.0
sg637
F0.0
sg706
F30.5
sg707
F3.0
sg639
F0.0
ssg674
(dp793
g633
F0.0
sg705
F0.4
sg636
F0.0
sg637
F0.0
sg706
F73.6
sg707
F6.2
sg639
F0.0
ssg676
(dp794
g633
F0.0
sg705
F0.0
sg636
F0.0
sg637
F0.0
sg706
F40.6
sg707
F5.2
sg639
F0.0
ssg678
(dp795
g633
F0.2
sg705
F0.2
sg636
F0.0
sg637
F0.0
sg706
F55.4
sg707
F4.8
sg639
F0.0
ssg680
(dp796
g633
F0.0
sg705
F0.5
sg636
F0.0
sg637
F0.0
sg706
F72.25
sg707
F5.0
sg639
F0.0
ssg682
(dp797
g633
F0.0
sg705
F0.4
sg636
F0.0
sg637
F0.0
sg706
F67.6
sg707
F4.6
sg639
F0.0
ssg684
(dp798
g633
F0.0
sg705
F0.6
sg636
F0.0
sg637
F0.0
sg706
F42.0
sg707
F4.0
sg639
F0.0
ssg686
(dp799
g633
F0.0
sg705
F0.0
sg636
F0.0
sg637
F0.0
sg706
F43.6
sg707
F3.2
sg639
F0.0
ssg688
(dp800
g633
F0.0
sg705
F0.8
sg636
F0.0
sg637
F0.2
sg706
F60.8
sg707
F4.0
sg639
F1.0
ssg690
(dp801
g633
F0.0
sg705
F0.0
sg636
F0.0
sg637
F0.2
sg706
F21.4
sg707
F2.8
sg639
F1.2
ssg692
(dp802
g633
F0.2
sg705
F0.4
sg636
F0.0
sg637
F0.0
sg706
F59.8
sg707
F4.8
sg639
F0.0
ssg694
(dp803
g633
F0.0
sg705
F0.4
sg636
F0.0
sg637
F0.0
sg706
F64.6
sg707
F6.2
sg639
F0.0
ssg696
(dp804
g633
F0.0
sg705
F0.6
sg636
F0.0
sg637
F0.0
sg706
F79.4
sg707
F7.2
sg639
F0.0
ssg698
(dp805
g633
F0.0
sg705
F0.2
sg636
F0.0
sg637
F0.0
sg706
F52.2
sg707
F4.2
sg639
F0.0
ssg700
(dp806
g633
F0.0
sg705
F0.2
sg636
F0.0
sg637
F0.0
sg706
F56.0
sg707
F6.8
sg639
F0.0
ssssI6
(dp807
S'QB'
p808
(dp809
S'Broncos'
p810
(dp811
S'PassTD'
p812
F0.6666666666666666
sS'Lost'
p813
F0.16666666666666666
sS'PassAtt'
p814
F32.666666666666664
sS'Int'
p815
F0.8333333333333334
sS'RushTD'
p816
F0.3333333333333333
sS'RushAtt'
p817
F4.666666666666667
sS'PassYds'
p818
F203.5
sS'RushYds'
p819
F23.0
ssS'Vikings'
p820
(dp821
g812
F0.8
sg813
F0.4
sg814
F40.0
sg815
F1.4
sg816
F0.4
sg817
F2.8
sg818
F238.8
sg819
F14.8
ssS'Bears'
p822
(dp823
g812
F1.1666666666666667
sg813
F0.16666666666666666
sg814
F33.5
sg815
F0.6666666666666666
sg816
F0.16666666666666666
sg817
F4.0
sg818
F245.83333333333334
sg819
F15.166666666666666
ssS'Falcons'
p824
(dp825
g812
F2.3333333333333335
sg813
F0.0
sg814
F41.833333333333336
sg815
F0.8333333333333334
sg816
F0.0
sg817
F4.166666666666667
sg818
F297.6666666666667
sg819
F12.833333333333334
ssS'Saints'
p826
(dp827
g812
F1.4
sg813
F0.2
sg814
F39.8
sg815
F0.4
sg816
F0.2
sg817
F2.8
sg818
F314.0
sg819
F7.2
ssS'Chargers'
p828
(dp829
g812
F1.6666666666666667
sg813
F0.3333333333333333
sg814
F43.5
sg815
F1.1666666666666667
sg816
F0.16666666666666666
sg817
F2.3333333333333335
sg818
F296.1666666666667
sg819
F9.833333333333334
ssS'Raiders'
p830
(dp831
g812
F2.0
sg813
F0.5
sg814
F35.5
sg815
F0.8333333333333334
sg816
F0.16666666666666666
sg817
F1.5
sg818
F319.0
sg819
F4.5
ssS'Lions'
p832
(dp833
g812
F2.8333333333333335
sg813
F0.0
sg814
F34.166666666666664
sg815
F0.5
sg816
F0.16666666666666666
sg817
F3.1666666666666665
sg818
F281.5
sg819
F11.833333333333334
ssS'Eagles'
p834
(dp835
g812
F1.0
sg813
F0.6
sg814
F31.6
sg815
F0.8
sg816
F0.0
sg817
F2.8
sg818
F225.0
sg819
F13.6
ssS'Browns'
p836
(dp837
g812
F2.6666666666666665
sg813
F0.16666666666666666
sg814
F35.5
sg815
F1.0
sg816
F0.0
sg817
F2.5
sg818
F295.3333333333333
sg819
F13.166666666666666
ssS'Steelers'
p838
(dp839
g812
F1.0
sg813
F0.0
sg814
F41.333333333333336
sg815
F0.5
sg816
F0.0
sg817
F1.3333333333333333
sg818
F298.3333333333333
sg819
F6.5
ssS'Giants'
p840
(dp841
g812
F1.0
sg813
F0.0
sg814
F42.166666666666664
sg815
F0.3333333333333333
sg816
F0.0
sg817
F2.5
sg818
F269.0
sg819
F4.666666666666667
ssS'Buccaneers'
p842
(dp843
g812
F1.8
sg813
F0.2
sg814
F31.6
sg815
F0.6
sg816
F0.0
sg817
F1.8
sg818
F271.0
sg819
F2.2
ssS'Cardinals'
p844
(dp845
g812
F0.8333333333333334
sg813
F0.5
sg814
F34.666666666666664
sg815
F1.5
sg816
F0.3333333333333333
sg817
F5.166666666666667
sg818
F209.83333333333334
sg819
F30.833333333333332
ssS'Bengals'
p846
(dp847
g812
F2.3333333333333335
sg813
F0.3333333333333333
sg814
F31.833333333333332
sg815
F0.6666666666666666
sg816
F0.16666666666666666
sg817
F2.8333333333333335
sg818
F258.6666666666667
sg819
F6.666666666666667
ssS'Chiefs'
p848
(dp849
g812
F1.6
sg813
F0.2
sg814
F34.8
sg815
F1.8
sg816
F0.0
sg817
F2.6
sg818
F244.8
sg819
F7.0
ssS'Dolphins'
p850
(dp851
g812
F1.5
sg813
F0.3333333333333333
sg814
F34.333333333333336
sg815
F0.5
sg816
F0.16666666666666666
sg817
F4.0
sg818
F245.66666666666666
sg819
F12.333333333333334
ssS'Jaguars'
p852
(dp853
g812
F1.6
sg813
F0.2
sg814
F38.0
sg815
F0.6
sg816
F0.4
sg817
F3.0
sg818
F233.8
sg819
F12.0
ssS'Seahawks'
p854
(dp855
g812
F0.8
sg813
F0.2
sg814
F33.4
sg815
F1.0
sg816
F0.2
sg817
F3.2
sg818
F228.0
sg819
F10.2
ssS'Jets'
p856
(dp857
g812
F2.1666666666666665
sg813
F0.16666666666666666
sg814
F34.666666666666664
sg815
F0.3333333333333333
sg816
F0.0
sg817
F3.5
sg818
F304.0
sg819
F3.6666666666666665
ssS'Ravens'
p858
(dp859
g812
F2.0
sg813
F0.0
sg814
F35.833333333333336
sg815
F1.3333333333333333
sg816
F0.0
sg817
F2.3333333333333335
sg818
F237.83333333333334
sg819
F4.166666666666667
ssS'Colts'
p860
(dp861
g812
F1.5
sg813
F0.16666666666666666
sg814
F37.666666666666664
sg815
F0.3333333333333333
sg816
F0.16666666666666666
sg817
F2.3333333333333335
sg818
F300.8333333333333
sg819
F7.5
ssS'Packers'
p862
(dp863
g812
F2.0
sg813
F0.4
sg814
F34.6
sg815
F0.6
sg816
F0.0
sg817
F1.4
sg818
F287.4
sg819
F3.4
ssS'Titans'
p864
(dp865
g812
F1.0
sg813
F0.0
sg814
F34.0
sg815
F1.0
sg816
F0.0
sg817
F1.1666666666666667
sg818
F254.33333333333334
sg819
F9.166666666666666
ssS'Rams'
p866
(dp867
g812
F1.8333333333333333
sg813
F0.3333333333333333
sg814
F38.166666666666664
sg815
F0.6666666666666666
sg816
F0.0
sg817
F4.666666666666667
sg818
F258.0
sg819
F18.666666666666668
ssS'Bills'
p868
(dp869
g812
F0.5
sg813
F0.3333333333333333
sg814
F34.0
sg815
F1.0
sg816
F0.0
sg817
F3.5
sg818
F263.6666666666667
sg819
F17.833333333333332
ssS'Texans'
p870
(dp871
g812
F0.6666666666666666
sg813
F0.3333333333333333
sg814
F29.333333333333332
sg815
F0.5
sg816
F0.3333333333333333
sg817
F4.166666666666667
sg818
F205.0
sg819
F22.166666666666668
ssS'49ers'
p872
(dp873
g812
F2.0
sg813
F0.3333333333333333
sg814
F32.5
sg815
F0.6666666666666666
sg816
F0.0
sg817
F5.0
sg818
F223.16666666666666
sg819
F21.333333333333332
ssS'Patriots'
p874
(dp875
g812
F1.1666666666666667
sg813
F0.0
sg814
F33.5
sg815
F0.5
sg816
F0.16666666666666666
sg817
F2.8333333333333335
sg818
F236.0
sg819
F15.666666666666666
ssS'Cowboys'
p876
(dp877
g812
F1.6666666666666667
sg813
F0.3333333333333333
sg814
F38.166666666666664
sg815
F0.6666666666666666
sg816
F0.0
sg817
F4.166666666666667
sg818
F274.5
sg819
F15.0
ssS'Panthers'
p878
(dp879
g812
F2.1666666666666665
sg813
F0.0
sg814
F34.333333333333336
sg815
F1.0
sg816
F0.16666666666666666
sg817
F3.0
sg818
F296.5
sg819
F8.0
ssS'Redskins'
p880
(dp881
g812
F1.0
sg813
F0.0
sg814
F35.5
sg815
F0.6666666666666666
sg816
F0.16666666666666666
sg817
F1.1666666666666667
sg818
F259.0
sg819
F2.3333333333333335
sssS'WR'
p882
(dp883
g810
(dp884
g813
F0.3333333333333333
sS'RecTD'
p885
F0.16666666666666666
sg816
F0.0
sg817
F0.3333333333333333
sS'RecYds'
p886
F126.83333333333333
sS'Rec'
p887
F10.833333333333334
sg819
F3.0
ssg820
(dp888
g813
F0.4
sg885
F0.4
sg816
F0.0
sg817
F0.6
sg886
F125.4
sg887
F11.8
sg819
F1.2
ssg822
(dp889
g813
F0.16666666666666666
sg885
F0.8333333333333334
sg816
F0.0
sg817
F0.5
sg886
F182.83333333333334
sg887
F13.833333333333334
sg819
F1.6666666666666667
ssg824
(dp890
g813
F0.0
sg885
F1.1666666666666667
sg816
F0.0
sg817
F1.0
sg886
F150.83333333333334
sg887
F13.5
sg819
F6.5
ssg826
(dp891
g813
F0.6
sg885
F0.8
sg816
F0.0
sg817
F0.4
sg886
F211.6
sg887
F15.8
sg819
F1.2
ssg828
(dp892
g813
F0.3333333333333333
sg885
F1.1666666666666667
sg816
F0.0
sg817
F0.3333333333333333
sg886
F168.0
sg887
F13.5
sg819
F0.3333333333333333
ssg830
(dp893
g813
F0.0
sg885
F1.1666666666666667
sg816
F0.0
sg817
F0.3333333333333333
sg886
F205.33333333333334
sg887
F14.666666666666666
sg819
F2.3333333333333335
ssg832
(dp894
g813
F0.0
sg885
F1.5
sg816
F0.0
sg817
F1.1666666666666667
sg886
F181.66666666666666
sg887
F13.666666666666666
sg819
F2.6666666666666665
ssg834
(dp895
g813
F0.0
sg885
F0.4
sg816
F0.0
sg817
F1.2
sg886
F170.6
sg887
F12.0
sg819
F1.0
ssg836
(dp896
g813
F0.0
sg885
F1.3333333333333333
sg816
F0.0
sg817
F0.8333333333333334
sg886
F168.83333333333334
sg887
F11.5
sg819
F4.0
ssg838
(dp897
g813
F0.16666666666666666
sg885
F0.5
sg816
F0.0
sg817
F0.16666666666666666
sg886
F172.33333333333334
sg887
F15.5
sg819
F-0.3333333333333333
ssg840
(dp898
g813
F0.0
sg885
F0.8333333333333334
sg816
F0.0
sg817
F0.6666666666666666
sg886
F194.0
sg887
F14.833333333333334
sg819
F0.3333333333333333
ssg842
(dp899
g813
F0.4
sg885
F1.8
sg816
F0.0
sg817
F0.6
sg886
F162.4
sg887
F11.4
sg819
F5.2
ssg844
(dp900
g813
F0.0
sg885
F1.3333333333333333
sg816
F0.0
sg817
F0.8333333333333334
sg886
F190.16666666666666
sg887
F14.333333333333334
sg819
F3.0
ssg846
(dp901
g813
F0.16666666666666666
sg885
F1.1666666666666667
sg816
F0.0
sg817
F0.6666666666666666
sg886
F152.0
sg887
F10.833333333333334
sg819
F3.8333333333333335
ssg848
(dp902
g813
F0.2
sg885
F1.2
sg816
F0.0
sg817
F0.4
sg886
F184.6
sg887
F13.8
sg819
F-0.6
ssg850
(dp903
g813
F0.16666666666666666
sg885
F1.1666666666666667
sg816
F0.3333333333333333
sg817
F1.1666666666666667
sg886
F163.5
sg887
F13.5
sg819
F14.666666666666666
ssg852
(dp904
g813
F0.0
sg885
F1.4
sg816
F0.0
sg817
F1.6
sg886
F177.0
sg887
F14.6
sg819
F5.4
ssg854
(dp905
g813
F0.0
sg885
F0.6
sg816
F0.0
sg817
F0.4
sg886
F161.4
sg887
F13.2
sg819
F1.2
ssg856
(dp906
g813
F0.0
sg885
F1.1666666666666667
sg816
F0.0
sg817
F0.8333333333333334
sg886
F194.5
sg887
F13.833333333333334
sg819
F2.3333333333333335
ssg858
(dp907
g813
F0.16666666666666666
sg885
F2.0
sg816
F0.0
sg817
F0.0
sg886
F158.66666666666666
sg887
F13.0
sg819
F0.0
ssg860
(dp908
g813
F0.3333333333333333
sg885
F0.5
sg816
F0.0
sg817
F0.3333333333333333
sg886
F176.66666666666666
sg887
F14.833333333333334
sg819
F1.3333333333333333
ssg862
(dp909
g813
F0.0
sg885
F1.6
sg816
F0.0
sg817
F0.6
sg886
F202.8
sg887
F12.8
sg819
F3.2
ssg864
(dp910
g813
F0.0
sg885
F0.8333333333333334
sg816
F0.0
sg817
F0.8333333333333334
sg886
F160.33333333333334
sg887
F13.0
sg819
F2.3333333333333335
ssg866
(dp911
g813
F0.0
sg885
F1.5
sg816
F0.0
sg817
F0.5
sg886
F212.33333333333334
sg887
F16.5
sg819
F1.1666666666666667
ssg868
(dp912
g813
F0.3333333333333333
sg885
F0.5
sg816
F0.0
sg817
F1.0
sg886
F189.5
sg887
F13.166666666666666
sg819
F6.666666666666667
ssg870
(dp913
g813
F0.0
sg885
F0.5
sg816
F0.0
sg817
F0.8333333333333334
sg886
F142.83333333333334
sg887
F10.833333333333334
sg819
F3.3333333333333335
ssg872
(dp914
g813
F0.16666666666666666
sg885
F1.6666666666666667
sg816
F0.0
sg817
F1.0
sg886
F135.0
sg887
F10.333333333333334
sg819
F4.0
ssg874
(dp915
g813
F0.16666666666666666
sg885
F0.8333333333333334
sg816
F0.0
sg817
F0.5
sg886
F163.66666666666666
sg887
F13.0
sg819
F1.1666666666666667
ssg876
(dp916
g813
F0.5
sg885
F1.1666666666666667
sg816
F0.0
sg817
F0.5
sg886
F170.0
sg887
F15.0
sg819
F1.0
ssg878
(dp917
g813
F0.0
sg885
F1.0
sg816
F0.0
sg817
F0.16666666666666666
sg886
F196.5
sg887
F12.5
sg819
F0.3333333333333333
ssg880
(dp918
g813
F0.0
sg885
F0.8333333333333334
sg816
F0.0
sg817
F0.16666666666666666
sg886
F169.83333333333334
sg887
F12.333333333333334
sg819
F-1.0
sssS'RB'
p919
(dp920
g810
(dp921
g813
F0.16666666666666666
sg885
F0.3333333333333333
sg816
F0.5
sg817
F19.666666666666668
sg886
F42.166666666666664
sg887
F4.0
sg819
F74.5
ssg820
(dp922
g813
F0.2
sg885
F0.4
sg816
F0.2
sg817
F17.6
sg886
F54.0
sg887
F5.2
sg819
F61.8
ssg822
(dp923
g813
F0.0
sg885
F0.0
sg816
F0.8333333333333334
sg817
F23.333333333333332
sg886
F21.333333333333332
sg887
F3.8333333333333335
sg819
F90.83333333333333
ssg824
(dp924
g813
F0.0
sg885
F0.3333333333333333
sg816
F0.8333333333333334
sg817
F18.5
sg886
F70.5
sg887
F8.666666666666666
sg819
F74.83333333333333
ssg826
(dp925
g813
F0.4
sg885
F0.0
sg816
F2.0
sg817
F21.6
sg886
F37.4
sg887
F4.6
sg819
F80.4
ssg828
(dp926
g813
F0.0
sg885
F0.3333333333333333
sg816
F1.1666666666666667
sg817
F19.166666666666668
sg886
F69.33333333333333
sg887
F9.0
sg819
F73.33333333333333
ssg830
(dp927
g813
F0.16666666666666666
sg885
F0.3333333333333333
sg816
F0.8333333333333334
sg817
F22.333333333333332
sg886
F43.333333333333336
sg887
F4.666666666666667
sg819
F109.5
ssg832
(dp928
g813
F0.16666666666666666
sg885
F0.16666666666666666
sg816
F0.0
sg817
F18.333333333333332
sg886
F44.333333333333336
sg887
F6.0
sg819
F92.83333333333333
ssg834
(dp929
g813
F0.2
sg885
F0.4
sg816
F0.6
sg817
F17.8
sg886
F35.8
sg887
F5.2
sg819
F90.0
ssg836
(dp930
g813
F0.0
sg885
F0.3333333333333333
sg816
F0.8333333333333334
sg817
F25.333333333333332
sg886
F22.333333333333332
sg887
F3.0
sg819
F96.5
ssg838
(dp931
g813
F0.3333333333333333
sg885
F0.3333333333333333
sg816
F1.0
sg817
F21.833333333333332
sg886
F66.83333333333333
sg887
F6.333333333333333
sg819
F97.66666666666667
ssg840
(dp932
g813
F0.0
sg885
F0.0
sg816
F0.8333333333333334
sg817
F24.166666666666668
sg886
F28.666666666666668
sg887
F5.166666666666667
sg819
F91.83333333333333
ssg842
(dp933
g813
F0.0
sg885
F0.0
sg816
F1.2
sg817
F23.8
sg886
F45.4
sg887
F2.8
sg819
F92.4
ssg844
(dp934
g813
F0.16666666666666666
sg885
F0.0
sg816
F0.6666666666666666
sg817
F20.666666666666668
sg886
F25.0
sg887
F4.333333333333333
sg819
F71.33333333333333
ssg846
(dp935
g813
F0.0
sg885
F0.5
sg816
F0.5
sg817
F22.166666666666668
sg886
F46.666666666666664
sg887
F5.5
sg819
F97.66666666666667
ssg848
(dp936
g813
F0.2
sg885
F0.2
sg816
F0.6
sg817
F23.2
sg886
F27.8
sg887
F4.8
sg819
F110.2
ssg850
(dp937
g813
F0.0
sg885
F0.0
sg816
F0.16666666666666666
sg817
F27.5
sg886
F27.666666666666668
sg887
F4.833333333333333
sg819
F120.0
ssg852
(dp938
g813
F0.0
sg885
F0.0
sg816
F0.6
sg817
F22.2
sg886
F27.2
sg887
F6.0
sg819
F85.6
ssg854
(dp939
g813
F0.0
sg885
F0.0
sg816
F0.4
sg817
F16.8
sg886
F40.2
sg887
F3.6
sg819
F55.2
ssg856
(dp940
g813
F0.16666666666666666
sg885
F0.5
sg816
F0.6666666666666666
sg817
F20.5
sg886
F37.5
sg887
F5.166666666666667
sg819
F80.0
ssg858
(dp941
g813
F0.3333333333333333
sg885
F0.0
sg816
F0.3333333333333333
sg817
F18.333333333333332
sg886
F37.166666666666664
sg887
F5.5
sg819
F65.5
ssg860
(dp942
g813
F0.0
sg885
F0.6666666666666666
sg816
F0.8333333333333334
sg817
F22.333333333333332
sg886
F57.166666666666664
sg887
F5.333333333333333
sg819
F110.33333333333333
ssg862
(dp943
g813
F0.0
sg885
F0.0
sg816
F0.2
sg817
F22.2
sg886
F33.0
sg887
F5.0
sg819
F67.4
ssg864
(dp944
g813
F0.0
sg885
F0.0
sg816
F0.5
sg817
F20.0
sg886
F40.833333333333336
sg887
F3.8333333333333335
sg819
F77.0
ssg866
(dp945
g813
F0.5
sg885
F0.0
sg816
F0.8333333333333334
sg817
F22.5
sg886
F35.5
sg887
F4.333333333333333
sg819
F95.83333333333333
ssg868
(dp946
g813
F0.16666666666666666
sg885
F0.0
sg816
F1.0
sg817
F22.833333333333332
sg886
F36.166666666666664
sg887
F4.5
sg819
F78.66666666666667
ssg870
(dp947
g813
F0.16666666666666666
sg885
F0.0
sg816
F1.0
sg817
F24.666666666666668
sg886
F27.0
sg887
F2.8333333333333335
sg819
F99.83333333333333
ssg872
(dp948
g813
F0.3333333333333333
sg885
F0.0
sg816
F1.5
sg817
F29.166666666666668
sg886
F24.833333333333332
sg887
F3.5
sg819
F149.0
ssg874
(dp949
g813
F0.3333333333333333
sg885
F0.16666666666666666
sg816
F0.3333333333333333
sg817
F21.0
sg886
F45.5
sg887
F6.0
sg819
F75.0
ssg876
(dp950
g813
F0.0
sg885
F0.0
sg816
F0.3333333333333333
sg817
F16.5
sg886
F35.166666666666664
sg887
F4.0
sg819
F76.16666666666667
ssg878
(dp951
g813
F0.3333333333333333
sg885
F0.16666666666666666
sg816
F0.3333333333333333
sg817
F21.5
sg886
F31.166666666666668
sg887
F4.5
sg819
F71.33333333333333
ssg880
(dp952
g813
F0.6666666666666666
sg885
F0.0
sg816
F1.1666666666666667
sg817
F24.666666666666668
sg886
F38.333333333333336
sg887
F6.0
sg819
F127.0
sssS'TE'
p953
(dp954
g810
(dp955
g813
F0.0
sg885
F0.16666666666666666
sg816
F0.0
sg817
F0.0
sg886
F57.833333333333336
sg887
F5.0
sg819
F0.0
ssg820
(dp956
g813
F0.0
sg885
F0.0
sg816
F0.0
sg817
F0.0
sg886
F59.4
sg887
F5.2
sg819
F0.0
ssg822
(dp957
g813
F0.0
sg885
F0.5
sg816
F0.0
sg817
F0.0
sg886
F44.5
sg887
F5.0
sg819
F0.0
ssg824
(dp958
g813
F0.0
sg885
F0.8333333333333334
sg816
F0.0
sg817
F0.0
sg886
F73.0
sg887
F6.166666666666667
sg819
F0.0
ssg826
(dp959
g813
F0.0
sg885
F0.4
sg816
F0.0
sg817
F0.0
sg886
F53.0
sg887
F5.0
sg819
F0.0
ssg828
(dp960
g813
F0.0
sg885
F0.16666666666666666
sg816
F0.0
sg817
F0.0
sg886
F58.833333333333336
sg887
F5.333333333333333
sg819
F0.0
ssg830
(dp961
g813
F0.16666666666666666
sg885
F0.5
sg816
F0.0
sg817
F0.0
sg886
F70.83333333333333
sg887
F5.0
sg819
F0.0
ssg832
(dp962
g813
F0.0
sg885
F1.1666666666666667
sg816
F0.0
sg817
F0.0
sg886
F55.5
sg887
F5.5
sg819
F0.0
ssg834
(dp963
g813
F0.0
sg885
F0.2
sg816
F0.0
sg817
F0.0
sg886
F18.6
sg887
F1.6
sg819
F0.0
ssg836
(dp964
g813
F0.0
sg885
F1.0
sg816
F0.0
sg817
F0.0
sg886
F93.66666666666667
sg887
F7.833333333333333
sg819
F0.0
ssg838
(dp965
g813
F0.0
sg885
F0.16666666666666666
sg816
F0.0
sg817
F0.0
sg886
F61.666666666666664
sg887
F5.5
sg819
F0.0
ssg840
(dp966
g813
F0.0
sg885
F0.16666666666666666
sg816
F0.0
sg817
F0.0
sg886
F46.333333333333336
sg887
F5.0
sg819
F0.0
ssg842
(dp967
g813
F0.0
sg885
F0.0
sg816
F0.0
sg817
F0.0
sg886
F59.2
sg887
F4.2
sg819
F0.0
ssg844
(dp968
g813
F0.0
sg885
F0.0
sg816
F0.0
sg817
F0.0
sg886
F24.0
sg887
F3.1666666666666665
sg819
F0.0
ssg846
(dp969
g813
F0.0
sg885
F0.6666666666666666
sg816
F0.0
sg817
F0.0
sg886
F60.0
sg887
F4.166666666666667
sg819
F0.0
ssg848
(dp970
g813
F0.0
sg885
F0.2
sg816
F0.0
sg817
F0.0
sg886
F32.4
sg887
F3.0
sg819
F0.0
ssg850
(dp971
g813
F0.0
sg885
F0.3333333333333333
sg816
F0.0
sg817
F0.0
sg886
F60.333333333333336
sg887
F4.333333333333333
sg819
F0.0
ssg852
(dp972
g813
F0.0
sg885
F0.2
sg816
F0.0
sg817
F0.0
sg886
F29.6
sg887
F4.0
sg819
F0.0
ssg854
(dp973
g813
F0.0
sg885
F0.2
sg816
F0.0
sg817
F0.0
sg886
F41.4
sg887
F3.4
sg819
F0.0
ssg856
(dp974
g813
F0.0
sg885
F0.3333333333333333
sg816
F0.0
sg817
F0.0
sg886
F65.0
sg887
F5.5
sg819
F0.0
ssg858
(dp975
g813
F0.0
sg885
F0.0
sg816
F0.0
sg817
F0.0
sg886
F42.0
sg887
F5.666666666666667
sg819
F0.0
ssg860
(dp976
g813
F0.16666666666666666
sg885
F0.3333333333333333
sg816
F0.0
sg817
F0.0
sg886
F65.5
sg887
F5.5
sg819
F0.0
ssg862
(dp977
g813
F0.0
sg885
F0.4
sg816
F0.0
sg817
F0.0
sg886
F66.2
sg887
F4.8
sg819
F0.0
ssg864
(dp978
g813
F0.0
sg885
F0.16666666666666666
sg816
F0.0
sg817
F0.0
sg886
F53.333333333333336
sg887
F4.0
sg819
F0.0
ssg866
(dp979
g813
F0.0
sg885
F0.5
sg816
F0.0
sg817
F0.0
sg886
F35.5
sg887
F3.5
sg819
F0.0
ssg868
(dp980
g813
F0.0
sg885
F0.0
sg816
F0.0
sg817
F0.0
sg886
F40.5
sg887
F3.0
sg819
F0.0
ssg870
(dp981
g813
F0.0
sg885
F0.16666666666666666
sg816
F0.0
sg817
F0.16666666666666666
sg886
F35.166666666666664
sg887
F3.5
sg819
F1.0
ssg872
(dp982
g813
F0.16666666666666666
sg885
F0.3333333333333333
sg816
F0.0
sg817
F0.0
sg886
F63.333333333333336
sg887
F5.166666666666667
sg819
F0.0
ssg874
(dp983
g813
F0.0
sg885
F0.3333333333333333
sg816
F0.0
sg817
F0.0
sg886
F58.0
sg887
F5.666666666666667
sg819
F0.0
ssg876
(dp984
g813
F0.0
sg885
F0.5
sg816
F0.0
sg817
F0.0
sg886
F69.33333333333333
sg887
F6.5
sg819
F0.0
ssg878
(dp985
g813
F0.0
sg885
F1.0
sg816
F0.16666666666666666
sg817
F0.3333333333333333
sg886
F66.83333333333333
sg887
F4.666666666666667
sg819
F1.1666666666666667
ssg880
(dp986
g813
F0.0
sg885
F0.16666666666666666
sg816
F0.0
sg817
F0.0
sg886
F51.5
sg887
F6.0
sg819
F0.0
ssss.