(dp0
I2016
(dp1
I1
(dp2
S'QB'
p3
(dp4
S'Broncos'
p5
(dp6
S'PassTD'
p7
F1.0
sS'Lost'
p8
F0.0
sS'PassAtt'
p9
F33.0
sS'Int'
p10
F1.0
sS'RushTD'
p11
F1.0
sS'RushAtt'
p12
F11.0
sS'PassYds'
p13
F194.0
sS'RushYds'
p14
F54.0
ssS'Vikings'
p15
(dp16
g7
F2.0
sg8
F1.0
sg9
F41.0
sg10
F1.0
sg11
F0.0
sg12
F4.0
sg13
F271.0
sg14
F19.0
ssS'Bears'
p17
(dp18
g7
F2.0
sg8
F0.0
sg9
F35.0
sg10
F1.0
sg11
F0.0
sg12
F4.0
sg13
F231.0
sg14
F14.0
ssS'Falcons'
p19
(dp20
g7
F4.0
sg8
F0.0
sg9
F32.0
sg10
F1.0
sg11
F0.0
sg12
F4.0
sg13
F281.0
sg14
F3.0
ssS'Saints'
p21
(dp22
g7
F1.0
sg8
F0.0
sg9
F38.0
sg10
F0.0
sg11
F0.0
sg12
F2.0
sg13
F319.0
sg14
F16.0
ssS'Chargers'
p23
(dp24
g7
F2.0
sg8
F0.0
sg9
F48.0
sg10
F1.0
sg11
F1.0
sg12
F4.0
sg13
F363.0
sg14
F15.0
ssS'Raiders'
p25
(dp26
g7
F4.0
sg8
F1.0
sg9
F42.0
sg10
F0.0
sg11
F0.0
sg12
F2.0
sg13
F423.0
sg14
F5.0
ssS'Lions'
p27
(dp28
g7
F4.0
sg8
F0.0
sg9
F47.0
sg10
F0.0
sg11
F0.0
sg12
F3.0
sg13
F385.0
sg14
F21.0
ssS'Eagles'
p29
(dp30
g7
F0.0
sg8
F0.0
sg9
F26.0
sg10
F1.0
sg11
F0.0
sg12
F5.0
sg13
F190.0
sg14
F37.0
ssS'Browns'
p31
(dp32
g7
F2.0
sg8
F0.0
sg9
F37.0
sg10
F0.0
sg11
F0.0
sg12
F2.0
sg13
F278.0
sg14
F1.0
ssS'Steelers'
p33
(dp34
g7
F0.0
sg8
F0.0
sg9
F43.0
sg10
F2.0
sg11
F0.0
sg12
F1.0
sg13
F329.0
sg14
F8.0
ssS'Giants'
p35
(dp36
g7
F0.0
sg8
F0.0
sg9
F45.0
sg10
F0.0
sg11
F0.0
sg12
F2.0
sg13
F227.0
sg14
F12.0
ssS'Buccaneers'
p37
(dp38
g7
F2.0
sg8
F0.0
sg9
F39.0
sg10
F0.0
sg11
F0.0
sg12
F3.0
sg13
F334.0
sg14
F10.0
ssS'Cardinals'
p39
(dp40
g7
F1.0
sg8
F1.0
sg9
F33.0
sg10
F0.0
sg11
F0.0
sg12
F4.0
sg13
F264.0
sg14
F12.0
ssS'Bengals'
p41
(dp42
g7
F2.0
sg8
F0.0
sg9
F35.0
sg10
F1.0
sg11
F0.0
sg12
F4.0
sg13
F189.0
sg14
F15.0
ssS'Chiefs'
p43
(dp44
g7
F1.0
sg8
F0.0
sg9
F36.0
sg10
F0.0
sg11
F0.0
sg12
F2.0
sg13
F243.0
sg14
F9.0
ssS'Dolphins'
p45
(dp46
g7
F1.0
sg8
F1.0
sg9
F43.0
sg10
F1.0
sg11
F0.0
sg12
F4.0
sg13
F258.0
sg14
F16.0
ssS'Jaguars'
p47
(dp48
g7
F2.0
sg8
F0.0
sg9
F34.0
sg10
F0.0
sg11
F1.0
sg12
F4.0
sg13
F199.0
sg14
F16.0
ssS'Seahawks'
p49
(dp50
g7
F0.0
sg8
F0.0
sg9
F29.0
sg10
F0.0
sg11
F1.0
sg12
F5.0
sg13
F186.0
sg14
F17.0
ssS'Jets'
p51
(dp52
g7
F1.0
sg8
F0.0
sg9
F30.0
sg10
F1.0
sg11
F0.0
sg12
F3.0
sg13
F366.0
sg14
F7.0
ssS'Ravens'
p53
(dp54
g7
F0.0
sg8
F0.0
sg9
F22.0
sg10
F0.0
sg11
F0.0
sg12
F5.0
sg13
F111.0
sg14
F11.0
ssS'Colts'
p55
(dp56
g7
F3.0
sg8
F0.0
sg9
F39.0
sg10
F0.0
sg11
F0.0
sg12
F2.0
sg13
F340.0
sg14
F5.0
ssS'Packers'
p57
(dp58
g7
F1.0
sg8
F0.0
sg9
F39.0
sg10
F1.0
sg11
F0.0
sg12
F2.0
sg13
F320.0
sg14
F2.0
ssS'Titans'
p59
(dp60
g7
F0.0
sg8
F0.0
sg9
F33.0
sg10
F0.0
sg11
F0.0
sg12
F2.0
sg13
F236.0
sg14
F8.0
ssS'Rams'
p61
(dp62
g7
F1.0
sg8
F0.0
sg9
F35.0
sg10
F0.0
sg11
F0.0
sg12
F9.0
sg13
F170.0
sg14
F43.0
ssS'Bills'
p63
(dp64
g7
F1.0
sg8
F1.0
sg9
F33.0
sg10
F0.0
sg11
F0.0
sg12
F4.0
sg13
F258.0
sg14
F-3.0
ssS'Texans'
p65
(dp66
g7
F1.0
sg8
F0.0
sg9
F29.0
sg10
F1.0
sg11
F0.0
sg12
F2.0
sg13
F216.0
sg14
F12.0
ssS'49ers'
p67
(dp68
g7
F0.0
sg8
F0.0
sg9
F35.0
sg10
F2.0
sg11
F0.0
sg12
F3.0
sg13
F130.0
sg14
F10.0
ssS'Patriots'
p69
(dp70
g7
F2.0
sg8
F0.0
sg9
F37.0
sg10
F0.0
sg11
F0.0
sg12
F2.0
sg13
F271.0
sg14
F1.0
ssS'Cowboys'
p71
(dp72
g7
F3.0
sg8
F0.0
sg9
F28.0
sg10
F1.0
sg11
F0.0
sg12
F0.0
sg13
F207.0
sg14
F0.0
ssS'Panthers'
p73
(dp74
g7
F1.0
sg8
F0.0
sg9
F26.0
sg10
F2.0
sg11
F0.0
sg12
F5.0
sg13
F178.0
sg14
F20.0
ssS'Redskins'
p75
(dp76
g7
F3.0
sg8
F0.0
sg9
F37.0
sg10
F1.0
sg11
F0.0
sg12
F1.0
sg13
F300.0
sg14
F-2.0
sssS'WR'
p77
(dp78
g5
(dp79
g8
F0.0
sS'RecTD'
p80
F1.0
sg11
F0.0
sg12
F1.0
sS'RecYds'
p81
F116.0
sS'Rec'
p82
F9.0
sg14
F20.0
ssg15
(dp83
g8
F0.0
sg80
F0.0
sg11
F0.0
sg12
F0.0
sg81
F153.0
sg82
F15.0
sg14
F0.0
ssg17
(dp84
g8
F0.0
sg80
F2.0
sg11
F0.0
sg12
F0.0
sg81
F167.0
sg82
F11.0
sg14
F0.0
ssg19
(dp85
g8
F0.0
sg80
F1.0
sg11
F0.0
sg12
F2.0
sg81
F151.0
sg82
F10.0
sg14
F16.0
ssg21
(dp86
g8
F0.0
sg80
F1.0
sg11
F0.0
sg12
F0.0
sg81
F243.0
sg82
F15.0
sg14
F0.0
ssg23
(dp87
g8
F0.0
sg80
F2.0
sg11
F0.0
sg12
F1.0
sg81
F116.0
sg82
F13.0
sg14
F-1.0
ssg25
(dp88
g8
F0.0
sg80
F3.0
sg11
F0.0
sg12
F1.0
sg81
F373.0
sg82
F21.0
sg14
F11.0
ssg27
(dp89
g8
F0.0
sg80
F1.0
sg11
F0.0
sg12
F0.0
sg81
F237.0
sg82
F16.0
sg14
F0.0
ssg29
(dp90
g8
F0.0
sg80
F0.0
sg11
F0.0
sg12
F1.0
sg81
F137.0
sg82
F5.0
sg14
F-1.0
ssg31
(dp91
g8
F0.0
sg80
F2.0
sg11
F0.0
sg12
F0.0
sg81
F185.0
sg82
F13.0
sg14
F0.0
ssg33
(dp92
g8
F0.0
sg80
F0.0
sg11
F0.0
sg12
F0.0
sg81
F220.0
sg82
F19.0
sg14
F0.0
ssg35
(dp93
g8
F0.0
sg80
F0.0
sg11
F0.0
sg12
F0.0
sg81
F123.0
sg82
F13.0
sg14
F0.0
ssg37
(dp94
g8
F0.0
sg80
F2.0
sg11
F0.0
sg12
F0.0
sg81
F146.0
sg82
F10.0
sg14
F0.0
ssg39
(dp95
g8
F0.0
sg80
F1.0
sg11
F0.0
sg12
F3.0
sg81
F207.0
sg82
F15.0
sg14
F16.0
ssg41
(dp96
g8
F0.0
sg80
F2.0
sg11
F0.0
sg12
F0.0
sg81
F123.0
sg82
F12.0
sg14
F0.0
ssg43
(dp97
g8
F0.0
sg80
F0.0
sg11
F0.0
sg12
F0.0
sg81
F172.0
sg82
F16.0
sg14
F0.0
ssg45
(dp98
g8
F0.0
sg80
F1.0
sg11
F0.0
sg12
F0.0
sg81
F177.0
sg82
F18.0
sg14
F0.0
ssg47
(dp99
g8
F0.0
sg80
F2.0
sg11
F0.0
sg12
F3.0
sg81
F147.0
sg82
F16.0
sg14
F11.0
ssg49
(dp100
g8
F0.0
sg80
F0.0
sg11
F0.0
sg12
F0.0
sg81
F147.0
sg82
F13.0
sg14
F0.0
ssg51
(dp101
g8
F0.0
sg80
F1.0
sg11
F0.0
sg12
F2.0
sg81
F302.0
sg82
F19.0
sg14
F-6.0
ssg53
(dp102
g8
F0.0
sg80
F0.0
sg11
F0.0
sg12
F0.0
sg81
F63.0
sg82
F8.0
sg14
F0.0
ssg55
(dp103
g8
F0.0
sg80
F0.0
sg11
F0.0
sg12
F1.0
sg81
F169.0
sg82
F15.0
sg14
F2.0
ssg57
(dp104
g8
F0.0
sg80
F0.0
sg11
F0.0
sg12
F0.0
sg81
F178.0
sg82
F13.0
sg14
F0.0
ssg59
(dp105
g8
F0.0
sg80
F0.0
sg11
F0.0
sg12
F2.0
sg81
F168.0
sg82
F13.0
sg14
F7.0
ssg61
(dp106
g8
F0.0
sg80
F0.0
sg11
F0.0
sg12
F0.0
sg81
F134.0
sg82
F14.0
sg14
F0.0
ssg63
(dp107
g8
F0.0
sg80
F1.0
sg11
F0.0
sg12
F1.0
sg81
F172.0
sg82
F12.0
sg14
F11.0
ssg65
(dp108
g8
F0.0
sg80
F1.0
sg11
F0.0
sg12
F0.0
sg81
F196.0
sg82
F11.0
sg14
F0.0
ssg67
(dp109
g8
F0.0
sg80
F0.0
sg11
F0.0
sg12
F1.0
sg81
F103.0
sg82
F11.0
sg14
F2.0
ssg69
(dp110
g8
F0.0
sg80
F2.0
sg11
F0.0
sg12
F0.0
sg81
F179.0
sg82
F14.0
sg14
F0.0
ssg71
(dp111
g8
F0.0
sg80
F2.0
sg11
F0.0
sg12
F0.0
sg81
F150.0
sg82
F11.0
sg14
F0.0
ssg73
(dp112
g8
F0.0
sg80
F0.0
sg11
F0.0
sg12
F0.0
sg81
F97.0
sg82
F9.0
sg14
F0.0
ssg75
(dp113
g8
F0.0
sg80
F3.0
sg11
F0.0
sg12
F0.0
sg81
F241.0
sg82
F16.0
sg14
F0.0
sssS'RB'
p114
(dp115
g5
(dp116
g8
F0.0
sg80
F0.0
sg11
F0.0
sg12
F20.0
sg81
F5.0
sg82
F2.0
sg14
F83.0
ssg15
(dp117
g8
F1.0
sg80
F2.0
sg11
F0.0
sg12
F18.0
sg81
F76.0
sg82
F7.0
sg14
F45.0
ssg17
(dp118
g8
F0.0
sg80
F0.0
sg11
F0.0
sg12
F31.0
sg81
F16.0
sg82
F5.0
sg14
F115.0
ssg19
(dp119
g8
F0.0
sg80
F1.0
sg11
F0.0
sg12
F22.0
sg81
F66.0
sg82
F8.0
sg14
F71.0
ssg21
(dp120
g8
F0.0
sg80
F0.0
sg11
F3.0
sg12
F24.0
sg81
F51.0
sg82
F6.0
sg14
F151.0
ssg23
(dp121
g8
F0.0
sg80
F0.0
sg11
F1.0
sg12
F14.0
sg81
F153.0
sg82
F13.0
sg14
F69.0
ssg25
(dp122
g8
F0.0
sg80
F1.0
sg11
F0.0
sg12
F19.0
sg81
F44.0
sg82
F6.0
sg14
F72.0
ssg27
(dp123
g8
F0.0
sg80
F0.0
sg11
F0.0
sg12
F16.0
sg81
F60.0
sg82
F8.0
sg14
F61.0
ssg29
(dp124
g8
F0.0
sg80
F0.0
sg11
F1.0
sg12
F15.0
sg81
F53.0
sg82
F7.0
sg14
F84.0
ssg31
(dp125
g8
F0.0
sg80
F0.0
sg11
F1.0
sg12
F32.0
sg81
F24.0
sg82
F2.0
sg14
F132.0
ssg33
(dp126
g8
F0.0
sg80
F0.0
sg11
F1.0
sg12
F11.0
sg81
F25.0
sg82
F3.0
sg14
F47.0
ssg35
(dp127
g8
F0.0
sg80
F0.0
sg11
F1.0
sg12
F28.0
sg81
F17.0
sg82
F2.0
sg14
F89.0
ssg37
(dp128
g8
F0.0
sg80
F0.0
sg11
F0.0
sg12
F8.0
sg81
F103.0
sg82
F6.0
sg14
F22.0
ssg39
(dp129
g8
F1.0
sg80
F0.0
sg11
F1.0
sg12
F24.0
sg81
F40.0
sg82
F5.0
sg14
F78.0
ssg41
(dp130
g8
F0.0
sg80
F0.0
sg11
F0.0
sg12
F26.0
sg81
F66.0
sg82
F7.0
sg14
F137.0
ssg43
(dp131
g8
F0.0
sg80
F1.0
sg11
F2.0
sg12
F30.0
sg81
F31.0
sg82
F5.0
sg14
F146.0
ssg45
(dp132
g8
F0.0
sg80
F0.0
sg11
F0.0
sg12
F28.0
sg81
F44.0
sg82
F6.0
sg14
F96.0
ssg47
(dp133
g8
F0.0
sg80
F0.0
sg11
F0.0
sg12
F18.0
sg81
F23.0
sg82
F2.0
sg14
F68.0
ssg49
(dp134
g8
F0.0
sg80
F0.0
sg11
F0.0
sg12
F15.0
sg81
F91.0
sg82
F4.0
sg14
F47.0
ssg51
(dp135
g8
F0.0
sg80
F0.0
sg11
F1.0
sg12
F14.0
sg81
F5.0
sg82
F2.0
sg14
F56.0
ssg53
(dp136
g8
F0.0
sg80
F0.0
sg11
F1.0
sg12
F19.0
sg81
F8.0
sg82
F5.0
sg14
F54.0
ssg55
(dp137
g8
F0.0
sg80
F2.0
sg11
F2.0
sg12
F21.0
sg81
F120.0
sg82
F10.0
sg14
F109.0
ssg57
(dp138
g8
F0.0
sg80
F0.0
sg11
F1.0
sg12
F24.0
sg81
F30.0
sg82
F4.0
sg14
F46.0
ssg59
(dp139
g8
F0.0
sg80
F0.0
sg11
F0.0
sg12
F24.0
sg81
F3.0
sg82
F1.0
sg14
F50.0
ssg61
(dp140
g8
F1.0
sg80
F0.0
sg11
F3.0
sg12
F33.0
sg81
F23.0
sg82
F4.0
sg14
F107.0
ssg63
(dp141
g8
F0.0
sg80
F0.0
sg11
F0.0
sg12
F23.0
sg81
F42.0
sg82
F6.0
sg14
F75.0
ssg65
(dp142
g8
F0.0
sg80
F0.0
sg11
F1.0
sg12
F18.0
sg81
F6.0
sg82
F2.0
sg14
F61.0
ssg67
(dp143
g8
F0.0
sg80
F0.0
sg11
F0.0
sg12
F19.0
sg81
F10.0
sg82
F3.0
sg14
F53.0
ssg69
(dp144
g8
F0.0
sg80
F0.0
sg11
F1.0
sg12
F17.0
sg81
F51.0
sg82
F6.0
sg14
F91.0
ssg71
(dp145
g8
F0.0
sg80
F0.0
sg11
F0.0
sg12
F24.0
sg81
F26.0
sg82
F4.0
sg14
F113.0
ssg73
(dp146
g8
F1.0
sg80
F1.0
sg11
F2.0
sg12
F24.0
sg81
F53.0
sg82
F5.0
sg14
F128.0
ssg75
(dp147
g8
F0.0
sg80
F0.0
sg11
F2.0
sg12
F29.0
sg81
F28.0
sg82
F6.0
sg14
F149.0
sssS'TE'
p148
(dp149
g5
(dp150
g8
F0.0
sg80
F0.0
sg11
F0.0
sg12
F0.0
sg81
F73.0
sg82
F7.0
sg14
F0.0
ssg15
(dp151
g8
F0.0
sg80
F0.0
sg11
F0.0
sg12
F0.0
sg81
F42.0
sg82
F3.0
sg14
F0.0
ssg17
(dp152
g8
F0.0
sg80
F0.0
sg11
F0.0
sg12
F0.0
sg81
F48.0
sg82
F6.0
sg14
F0.0
ssg19
(dp153
g8
F0.0
sg80
F2.0
sg11
F0.0
sg12
F0.0
sg81
F64.0
sg82
F5.0
sg14
F0.0
ssg21
(dp154
g8
F0.0
sg80
F0.0
sg11
F0.0
sg12
F0.0
sg81
F25.0
sg82
F3.0
sg14
F0.0
ssg23
(dp155
g8
F0.0
sg80
F0.0
sg11
F0.0
sg12
F0.0
sg81
F94.0
sg82
F8.0
sg14
F0.0
ssg25
(dp156
g8
F0.0
sg80
F0.0
sg11
F0.0
sg12
F0.0
sg81
F6.0
sg82
F1.0
sg14
F0.0
ssg27
(dp157
g8
F0.0
sg80
F3.0
sg11
F0.0
sg12
F0.0
sg81
F88.0
sg82
F7.0
sg14
F0.0
ssg29
(dp158
g8
F0.0
sg80
F0.0
sg11
F0.0
sg12
F0.0
sg81
F0.0
sg82
F0.0
sg14
F0.0
ssg31
(dp159
g8
F0.0
sg80
F0.0
sg11
F0.0
sg12
F0.0
sg81
F69.0
sg82
F7.0
sg14
F0.0
ssg33
(dp160
g8
F0.0
sg80
F0.0
sg11
F0.0
sg12
F0.0
sg81
F84.0
sg82
F8.0
sg14
F0.0
ssg35
(dp161
g8
F0.0
sg80
F0.0
sg11
F0.0
sg12
F0.0
sg81
F87.0
sg82
F10.0
sg14
F0.0
ssg37
(dp162
g8
F0.0
sg80
F0.0
sg11
F0.0
sg12
F0.0
sg81
F65.0
sg82
F7.0
sg14
F0.0
ssg39
(dp163
g8
F0.0
sg80
F0.0
sg11
F0.0
sg12
F0.0
sg81
F14.0
sg82
F3.0
sg14
F0.0
ssg41
(dp164
g8
F0.0
sg80
F0.0
sg11
F0.0
sg12
F0.0
sg81
F0.0
sg82
F0.0
sg14
F0.0
ssg43
(dp165
g8
F0.0
sg80
F0.0
sg11
F0.0
sg12
F0.0
sg81
F40.0
sg82
F4.0
sg14
F0.0
ssg45
(dp166
g8
F0.0
sg80
F0.0
sg11
F0.0
sg12
F0.0
sg81
F37.0
sg82
F3.0
sg14
F0.0
ssg47
(dp167
g8
F0.0
sg80
F0.0
sg11
F0.0
sg12
F0.0
sg81
F29.0
sg82
F2.0
sg14
F0.0
ssg49
(dp168
g8
F0.0
sg80
F0.0
sg11
F0.0
sg12
F0.0
sg81
F6.0
sg82
F2.0
sg14
F0.0
ssg51
(dp169
g8
F0.0
sg80
F0.0
sg11
F0.0
sg12
F0.0
sg81
F59.0
sg82
F2.0
sg14
F0.0
ssg53
(dp170
g8
F0.0
sg80
F0.0
sg11
F0.0
sg12
F0.0
sg81
F40.0
sg82
F2.0
sg14
F0.0
ssg55
(dp171
g8
F0.0
sg80
F1.0
sg11
F0.0
sg12
F0.0
sg81
F51.0
sg82
F6.0
sg14
F0.0
ssg57
(dp172
g8
F0.0
sg80
F1.0
sg11
F0.0
sg12
F0.0
sg81
F112.0
sg82
F7.0
sg14
F0.0
ssg59
(dp173
g8
F0.0
sg80
F0.0
sg11
F0.0
sg12
F0.0
sg81
F65.0
sg82
F4.0
sg14
F0.0
ssg61
(dp174
g8
F0.0
sg80
F1.0
sg11
F0.0
sg12
F0.0
sg81
F29.0
sg82
F3.0
sg14
F0.0
ssg63
(dp175
g8
F0.0
sg80
F0.0
sg11
F0.0
sg12
F0.0
sg81
F44.0
sg82
F4.0
sg14
F0.0
ssg65
(dp176
g8
F0.0
sg80
F0.0
sg11
F0.0
sg12
F0.0
sg81
F14.0
sg82
F3.0
sg14
F0.0
ssg67
(dp177
g8
F0.0
sg80
F0.0
sg11
F0.0
sg12
F0.0
sg81
F17.0
sg82
F3.0
sg14
F0.0
ssg69
(dp178
g8
F0.0
sg80
F0.0
sg11
F0.0
sg12
F0.0
sg81
F41.0
sg82
F4.0
sg14
F0.0
ssg71
(dp179
g8
F0.0
sg80
F1.0
sg11
F0.0
sg12
F0.0
sg81
F31.0
sg82
F4.0
sg14
F0.0
ssg73
(dp180
g8
F0.0
sg80
F0.0
sg11
F0.0
sg12
F0.0
sg81
F28.0
sg82
F4.0
sg14
F0.0
ssg75
(dp181
g8
F0.0
sg80
F0.0
sg11
F0.0
sg12
F0.0
sg81
F31.0
sg82
F5.0
sg14
F0.0
ssssI2
(dp182
g3
(dp183
g5
(dp184
g7
F1.0
sg8
F0.5
sg9
F36.5
sg10
F1.0
sg11
F0.5
sg12
F7.0
sg13
F195.5
sg14
F38.0
ssg15
(dp185
g7
F1.5
sg8
F1.0
sg9
F38.5
sg10
F1.0
sg11
F0.5
sg12
F3.5
sg13
F242.0
sg14
F24.0
ssg17
(dp186
g7
F1.5
sg8
F0.0
sg9
F34.5
sg10
F0.5
sg11
F0.0
sg12
F5.0
sg13
F210.5
sg14
F12.0
ssg19
(dp187
g7
F3.5
sg8
F0.0
sg9
F38.5
sg10
F0.5
sg11
F0.0
sg12
F3.0
sg13
F290.0
sg14
F6.5
ssg21
(dp188
g7
F0.5
sg8
F0.5
sg9
F39.5
sg10
F0.0
sg11
F0.0
sg12
F3.0
sg13
F343.5
sg14
F6.0
ssg23
(dp189
g7
F2.0
sg8
F0.5
sg9
F49.0
sg10
F1.5
sg11
F0.5
sg12
F3.5
sg13
F346.0
sg14
F24.5
ssg25
(dp190
g7
F3.5
sg8
F0.5
sg9
F38.0
sg10
F0.5
sg11
F0.0
sg12
F1.0
sg13
F409.5
sg14
F2.5
ssg27
(dp191
g7
F3.0
sg8
F0.0
sg9
F40.0
sg10
F0.5
sg11
F0.0
sg12
F3.0
sg13
F311.5
sg14
F15.5
ssg29
(dp192
g7
F0.0
sg8
F0.5
sg9
F27.5
sg10
F1.0
sg11
F0.0
sg12
F2.5
sg13
F212.5
sg14
F18.5
ssg31
(dp193
g7
F2.0
sg8
F0.0
sg9
F41.0
sg10
F1.0
sg11
F0.0
sg12
F1.5
sg13
F290.0
sg14
F1.0
ssg33
(dp194
g7
F0.5
sg8
F0.0
sg9
F48.5
sg10
F1.0
sg11
F0.0
sg12
F1.5
sg13
F347.5
sg14
F7.5
ssg35
(dp195
g7
F0.5
sg8
F0.0
sg9
F44.5
sg10
F0.0
sg11
F0.0
sg12
F1.0
sg13
F245.0
sg14
F6.0
ssg37
(dp196
g7
F2.5
sg8
F0.0
sg9
F36.5
sg10
F0.0
sg11
F0.0
sg12
F1.5
sg13
F324.5
sg14
F5.0
ssg39
(dp197
g7
F1.0
sg8
F1.0
sg9
F42.5
sg10
F2.0
sg11
F0.0
sg12
F3.5
sg13
F253.5
sg14
F10.5
ssg41
(dp198
g7
F2.5
sg8
F0.0
sg9
F36.0
sg10
F1.5
sg11
F0.0
sg12
F2.5
sg13
F224.0
sg14
F14.5
ssg43
(dp199
g7
F1.0
sg8
F0.0
sg9
F34.5
sg10
F1.0
sg11
F0.0
sg12
F2.0
sg13
F255.5
sg14
F3.0
ssg45
(dp200
g7
F2.0
sg8
F0.5
sg9
F39.0
sg10
F0.5
sg11
F0.0
sg12
F4.0
sg13
F291.0
sg14
F14.0
ssg47
(dp201
g7
F1.5
sg8
F0.25
sg9
F14.75
sg10
F0.0
sg11
F0.25
sg12
F1.75
sg13
F104.75
sg14
F6.25
ssg49
(dp202
g7
F0.0
sg8
F0.0
sg9
F29.5
sg10
F0.0
sg11
F0.5
sg12
F4.0
sg13
F212.5
sg14
F11.0
ssg51
(dp203
g7
F2.0
sg8
F0.0
sg9
F30.5
sg10
F1.0
sg11
F0.0
sg12
F3.5
sg13
F336.5
sg14
F17.0
ssg53
(dp204
g7
F1.0
sg8
F0.0
sg9
F27.5
sg10
F1.0
sg11
F0.0
sg12
F3.5
sg13
F185.5
sg14
F5.5
ssg55
(dp205
g7
F1.5
sg8
F0.0
sg9
F36.0
sg10
F0.5
sg11
F0.0
sg12
F1.5
sg13
F303.0
sg14
F6.0
ssg57
(dp206
g7
F1.5
sg8
F0.0
sg9
F35.0
sg10
F0.5
sg11
F0.0
sg12
F1.5
sg13
F303.0
sg14
F-0.5
ssg59
(dp207
g7
F0.5
sg8
F0.0
sg9
F36.5
sg10
F0.5
sg11
F0.0
sg12
F2.0
sg13
F248.0
sg14
F19.5
ssg61
(dp208
g7
F0.25
sg8
F0.0
sg9
F17.5
sg10
F0.0
sg11
F0.0
sg12
F3.5
sg13
F106.0
sg14
F14.25
ssg63
(dp209
g7
F1.0
sg8
F0.5
sg9
F33.5
sg10
F0.0
sg11
F0.0
sg12
F4.5
sg13
F316.0
sg14
F9.0
ssg65
(dp210
g7
F0.5
sg8
F1.0
sg9
F33.0
sg10
F0.5
sg11
F0.0
sg12
F2.0
sg13
F201.0
sg14
F7.0
ssg67
(dp211
g7
F2.0
sg8
F0.5
sg9
F37.5
sg10
F1.5
sg11
F0.0
sg12
F4.5
sg13
F241.5
sg14
F23.5
ssg69
(dp212
g7
F2.0
sg8
F0.0
sg9
F41.0
sg10
F1.0
sg11
F0.0
sg12
F4.0
sg13
F329.0
sg14
F18.0
ssg71
(dp213
g7
F2.0
sg8
F0.0
sg9
F37.0
sg10
F1.0
sg11
F0.0
sg12
F1.0
sg13
F285.5
sg14
F10.0
ssg73
(dp214
g7
F1.5
sg8
F0.0
sg9
F31.0
sg10
F2.0
sg11
F0.5
sg12
F4.0
sg13
F210.5
sg14
F15.0
ssg75
(dp215
g7
F1.5
sg8
F0.0
sg9
F33.5
sg10
F0.5
sg11
F0.5
sg12
F1.0
sg13
F296.0
sg14
F2.0
sssg77
(dp216
g5
(dp217
g8
F0.0
sg80
F0.5
sg11
F0.0
sg12
F0.5
sg81
F101.5
sg82
F8.0
sg14
F10.0
ssg15
(dp218
g8
F0.5
sg80
F0.5
sg11
F0.0
sg12
F0.5
sg81
F147.0
sg82
F14.0
sg14
F0.5
ssg17
(dp219
g8
F0.0
sg80
F1.0
sg11
F0.0
sg12
F0.5
sg81
F148.5
sg82
F12.0
sg14
F0.0
ssg19
(dp220
g8
F0.0
sg80
F1.5
sg11
F0.0
sg12
F1.5
sg81
F144.0
sg82
F12.0
sg14
F15.0
ssg21
(dp221
g8
F0.5
sg80
F0.5
sg11
F0.0
sg12
F0.0
sg81
F268.5
sg82
F17.5
sg14
F0.0
ssg23
(dp222
g8
F0.0
sg80
F1.0
sg11
F0.0
sg12
F0.5
sg81
F162.5
sg82
F14.0
sg14
F-0.5
ssg25
(dp223
g8
F0.0
sg80
F2.5
sg11
F0.0
sg12
F0.5
sg81
F283.0
sg82
F18.5
sg14
F5.5
ssg27
(dp224
g8
F0.0
sg80
F1.0
sg11
F0.0
sg12
F0.0
sg81
F159.5
sg82
F12.5
sg14
F0.0
ssg29
(dp225
g8
F0.0
sg80
F0.0
sg11
F0.0
sg12
F1.0
sg81
F160.5
sg82
F9.0
sg14
F4.0
ssg31
(dp226
g8
F0.0
sg80
F2.0
sg11
F0.0
sg12
F0.0
sg81
F165.5
sg82
F11.5
sg14
F0.0
ssg33
(dp227
g8
F0.5
sg80
F0.0
sg11
F0.0
sg12
F0.0
sg81
F202.5
sg82
F16.0
sg14
F0.0
ssg35
(dp228
g8
F0.0
sg80
F0.5
sg11
F0.0
sg12
F0.0
sg81
F157.5
sg82
F16.0
sg14
F0.0
ssg37
(dp229
g8
F0.0
sg80
F2.5
sg11
F0.0
sg12
F0.5
sg81
F161.5
sg82
F10.0
sg14
F2.0
ssg39
(dp230
g8
F0.0
sg80
F1.0
sg11
F0.0
sg12
F1.5
sg81
F208.0
sg82
F17.0
sg14
F8.0
ssg41
(dp231
g8
F0.0
sg80
F1.0
sg11
F0.0
sg12
F0.5
sg81
F137.5
sg82
F10.0
sg14
F3.0
ssg43
(dp232
g8
F0.0
sg80
F0.5
sg11
F0.0
sg12
F0.5
sg81
F196.0
sg82
F14.0
sg14
F-1.0
ssg45
(dp233
g8
F0.5
sg80
F1.5
sg11
F0.0
sg12
F0.0
sg81
F187.5
sg82
F17.0
sg14
F0.0
ssg47
(dp234
g8
F0.0
sg80
F1.25
sg11
F0.0
sg12
F1.0
sg81
F82.5
sg82
F6.5
sg14
F2.5
ssg49
(dp235
g8
F0.0
sg80
F0.0
sg11
F0.0
sg12
F1.0
sg81
F149.5
sg82
F12.5
sg14
F3.0
ssg51
(dp236
g8
F0.0
sg80
F1.5
sg11
F0.0
sg12
F1.0
sg81
F266.5
sg82
F14.0
sg14
F-3.0
ssg53
(dp237
g8
F0.0
sg80
F1.0
sg11
F0.0
sg12
F0.0
sg81
F113.5
sg82
F9.5
sg14
F0.0
ssg55
(dp238
g8
F0.0
sg80
F0.0
sg11
F0.0
sg12
F0.5
sg81
F177.0
sg82
F14.5
sg14
F1.0
ssg57
(dp239
g8
F0.0
sg80
F0.5
sg11
F0.0
sg12
F0.5
sg81
F208.0
sg82
F14.0
sg14
F-1.0
ssg59
(dp240
g8
F0.0
sg80
F0.5
sg11
F0.0
sg12
F1.0
sg81
F173.5
sg82
F13.5
sg14
F3.5
ssg61
(dp241
g8
F0.0
sg80
F0.0
sg11
F0.0
sg12
F0.0
sg81
F74.75
sg82
F6.5
sg14
F0.0
ssg63
(dp242
g8
F0.5
sg80
F1.0
sg11
F0.0
sg12
F0.5
sg81
F268.0
sg82
F16.5
sg14
F5.5
ssg65
(dp243
g8
F0.0
sg80
F0.5
sg11
F0.0
sg12
F0.5
sg81
F149.0
sg82
F11.5
sg14
F-0.5
ssg67
(dp244
g8
F0.5
sg80
F1.5
sg11
F0.0
sg12
F1.0
sg81
F148.0
sg82
F12.5
sg14
F3.5
ssg69
(dp245
g8
F0.5
sg80
F1.5
sg11
F0.0
sg12
F0.0
sg81
F229.5
sg82
F17.0
sg14
F0.0
ssg71
(dp246
g8
F0.0
sg80
F1.5
sg11
F0.0
sg12
F0.0
sg81
F158.0
sg82
F12.0
sg14
F0.0
ssg73
(dp247
g8
F0.0
sg80
F0.5
sg11
F0.0
sg12
F0.0
sg81
F109.5
sg82
F9.5
sg14
F0.0
ssg75
(dp248
g8
F0.0
sg80
F1.5
sg11
F0.0
sg12
F0.0
sg81
F209.0
sg82
F14.5
sg14
F0.0
sssg114
(dp249
g5
(dp250
g8
F0.0
sg80
F0.5
sg11
F0.5
sg12
F19.0
sg81
F26.5
sg82
F5.0
sg14
F72.0
ssg15
(dp251
g8
F0.5
sg80
F1.0
sg11
F0.0
sg12
F18.5
sg81
F46.0
sg82
F4.0
sg14
F49.0
ssg17
(dp252
g8
F0.0
sg80
F0.0
sg11
F1.0
sg12
F28.0
sg81
F13.5
sg82
F4.0
sg14
F102.5
ssg19
(dp253
g8
F0.0
sg80
F0.5
sg11
F0.5
sg12
F22.0
sg81
F77.0
sg82
F9.0
sg14
F101.0
ssg21
(dp254
g8
F0.5
sg80
F0.0
sg11
F1.5
sg12
F26.0
sg81
F45.5
sg82
F6.0
sg14
F109.5
ssg23
(dp255
g8
F0.0
sg80
F0.5
sg11
F0.5
sg12
F11.0
sg81
F92.5
sg82
F11.5
sg14
F52.0
ssg25
(dp256
g8
F0.0
sg80
F0.5
sg11
F0.5
sg12
F15.5
sg81
F34.5
sg82
F4.0
sg14
F59.0
ssg27
(dp257
g8
F0.0
sg80
F0.0
sg11
F0.0
sg12
F18.5
sg81
F62.5
sg82
F8.0
sg14
F95.0
ssg29
(dp258
g8
F0.5
sg80
F0.0
sg11
F1.0
sg12
F16.0
sg81
F35.5
sg82
F5.5
sg14
F69.5
ssg31
(dp259
g8
F0.0
sg80
F0.0
sg11
F0.5
sg12
F28.5
sg81
F28.0
sg82
F3.5
sg14
F105.5
ssg33
(dp260
g8
F0.5
sg80
F0.5
sg11
F0.5
sg12
F13.5
sg81
F81.0
sg82
F7.5
sg14
F43.0
ssg35
(dp261
g8
F0.0
sg80
F0.0
sg11
F0.5
sg12
F20.5
sg81
F29.5
sg82
F5.0
sg14
F65.0
ssg37
(dp262
g8
F0.0
sg80
F0.0
sg11
F0.5
sg12
F18.5
sg81
F105.0
sg82
F5.0
sg14
F61.5
ssg39
(dp263
g8
F0.5
sg80
F0.0
sg11
F0.5
sg12
F21.0
sg81
F22.0
sg82
F4.0
sg14
F77.0
ssg41
(dp264
g8
F0.0
sg80
F0.5
sg11
F0.0
sg12
F30.0
sg81
F56.5
sg82
F6.0
sg14
F120.5
ssg43
(dp265
g8
F0.0
sg80
F0.5
sg11
F1.0
sg12
F30.5
sg81
F29.0
sg82
F4.0
sg14
F124.0
ssg45
(dp266
g8
F0.0
sg80
F0.0
sg11
F0.5
sg12
F31.0
sg81
F28.0
sg82
F4.5
sg14
F122.5
ssg47
(dp267
g8
F0.0
sg80
F0.0
sg11
F0.25
sg12
F12.25
sg81
F11.25
sg82
F1.5
sg14
F52.5
ssg49
(dp268
g8
F0.0
sg80
F0.0
sg11
F0.0
sg12
F17.5
sg81
F58.5
sg82
F3.0
sg14
F50.0
ssg51
(dp269
g8
F0.0
sg80
F0.5
sg11
F0.5
sg12
F14.5
sg81
F27.0
sg82
F3.5
sg14
F57.5
ssg53
(dp270
g8
F0.0
sg80
F0.0
sg11
F1.0
sg12
F20.0
sg81
F33.5
sg82
F5.0
sg14
F99.5
ssg55
(dp271
g8
F0.0
sg80
F1.0
sg11
F1.5
sg12
F25.5
sg81
F77.5
sg82
F7.5
sg14
F118.0
ssg57
(dp272
g8
F0.0
sg80
F0.0
sg11
F0.5
sg12
F22.0
sg81
F23.5
sg82
F4.0
sg14
F40.5
ssg59
(dp273
g8
F0.0
sg80
F0.0
sg11
F0.0
sg12
F22.5
sg81
F15.5
sg82
F2.5
sg14
F78.0
ssg61
(dp274
g8
F0.5
sg80
F0.0
sg11
F0.75
sg12
F13.0
sg81
F16.0
sg82
F2.5
sg14
F40.0
ssg63
(dp275
g8
F0.0
sg80
F0.0
sg11
F1.5
sg12
F27.0
sg81
F26.0
sg82
F4.5
sg14
F88.5
ssg65
(dp276
g8
F0.5
sg80
F0.0
sg11
F0.5
sg12
F17.0
sg81
F28.0
sg82
F2.5
sg14
F89.5
ssg67
(dp277
g8
F0.5
sg80
F0.0
sg11
F0.0
sg12
F24.5
sg81
F24.0
sg82
F4.0
sg14
F93.5
ssg69
(dp278
g8
F0.5
sg80
F0.0
sg11
F1.0
sg12
F13.5
sg81
F44.0
sg82
F6.0
sg14
F63.0
ssg71
(dp279
g8
F0.0
sg80
F0.0
sg11
F0.5
sg12
F19.5
sg81
F43.5
sg82
F4.0
sg14
F87.5
ssg73
(dp280
g8
F1.0
sg80
F0.5
sg11
F1.0
sg12
F23.5
sg81
F40.5
sg82
F4.5
sg14
F91.5
ssg75
(dp281
g8
F0.5
sg80
F0.0
sg11
F2.0
sg12
F32.5
sg81
F33.5
sg82
F6.5
sg14
F135.5
sssg148
(dp282
g5
(dp283
g8
F0.0
sg80
F0.0
sg11
F0.0
sg12
F0.0
sg81
F67.5
sg82
F6.5
sg14
F0.0
ssg15
(dp284
g8
F0.0
sg80
F0.0
sg11
F0.0
sg12
F0.0
sg81
F49.0
sg82
F4.5
sg14
F0.0
ssg17
(dp285
g8
F0.0
sg80
F0.5
sg11
F0.0
sg12
F0.0
sg81
F48.5
sg82
F5.5
sg14
F0.0
ssg19
(dp286
g8
F0.0
sg80
F1.5
sg11
F0.0
sg12
F0.0
sg81
F69.0
sg82
F7.5
sg14
F0.0
ssg21
(dp287
g8
F0.0
sg80
F0.0
sg11
F0.0
sg12
F0.0
sg81
F29.5
sg82
F4.5
sg14
F0.0
ssg23
(dp288
g8
F0.0
sg80
F0.5
sg11
F0.0
sg12
F0.0
sg81
F91.0
sg82
F7.0
sg14
F0.0
ssg25
(dp289
g8
F0.0
sg80
F0.5
sg11
F0.0
sg12
F0.0
sg81
F93.0
sg82
F5.5
sg14
F0.0
ssg27
(dp290
g8
F0.0
sg80
F2.0
sg11
F0.0
sg12
F0.0
sg81
F89.5
sg82
F7.5
sg14
F0.0
ssg29
(dp291
g8
F0.0
sg80
F0.0
sg11
F0.0
sg12
F0.0
sg81
F16.5
sg82
F2.0
sg14
F0.0
ssg31
(dp292
g8
F0.0
sg80
F0.0
sg11
F0.0
sg12
F0.0
sg81
F96.5
sg82
F8.5
sg14
F0.0
ssg33
(dp293
g8
F0.0
sg80
F0.0
sg11
F0.0
sg12
F0.0
sg81
F64.0
sg82
F7.0
sg14
F0.0
ssg35
(dp294
g8
F0.0
sg80
F0.0
sg11
F0.0
sg12
F0.0
sg81
F58.0
sg82
F6.0
sg14
F0.0
ssg37
(dp295
g8
F0.0
sg80
F0.0
sg11
F0.0
sg12
F0.0
sg81
F48.0
sg82
F5.5
sg14
F0.0
ssg39
(dp296
g8
F0.0
sg80
F0.0
sg11
F0.0
sg12
F0.0
sg81
F22.0
sg82
F4.0
sg14
F0.0
ssg41
(dp297
g8
F0.0
sg80
F1.0
sg11
F0.0
sg12
F0.0
sg81
F30.0
sg82
F3.0
sg14
F0.0
ssg43
(dp298
g8
F0.0
sg80
F0.0
sg11
F0.0
sg12
F0.0
sg81
F30.5
sg82
F4.0
sg14
F0.0
ssg45
(dp299
g8
F0.0
sg80
F0.5
sg11
F0.0
sg12
F0.0
sg81
F75.5
sg82
F4.0
sg14
F0.0
ssg47
(dp300
g8
F0.0
sg80
F0.25
sg11
F0.0
sg12
F0.0
sg81
F11.0
sg82
F1.25
sg14
F0.0
ssg49
(dp301
g8
F0.0
sg80
F0.0
sg11
F0.0
sg12
F0.0
sg81
F33.5
sg82
F3.0
sg14
F0.0
ssg51
(dp302
g8
F0.0
sg80
F0.0
sg11
F0.0
sg12
F0.0
sg81
F43.0
sg82
F3.5
sg14
F0.0
ssg53
(dp303
g8
F0.0
sg80
F0.0
sg11
F0.0
sg12
F0.0
sg81
F38.5
sg82
F3.0
sg14
F0.0
ssg55
(dp304
g8
F0.0
sg80
F0.5
sg11
F0.0
sg12
F0.0
sg81
F48.5
sg82
F4.5
sg14
F0.0
ssg57
(dp305
g8
F0.0
sg80
F1.0
sg11
F0.0
sg12
F0.0
sg81
F71.5
sg82
F5.0
sg14
F0.0
ssg59
(dp306
g8
F0.0
sg80
F0.0
sg11
F0.0
sg12
F0.0
sg81
F59.0
sg82
F4.0
sg14
F0.0
ssg61
(dp307
g8
F0.0
sg80
F0.25
sg11
F0.0
sg12
F0.0
sg81
F19.25
sg82
F1.75
sg14
F0.0
ssg63
(dp308
g8
F0.0
sg80
F0.0
sg11
F0.0
sg12
F0.0
sg81
F29.5
sg82
F2.5
sg14
F0.0
ssg65
(dp309
g8
F0.0
sg80
F0.0
sg11
F0.0
sg12
F0.0
sg81
F24.0
sg82
F4.0
sg14
F0.0
ssg67
(dp310
g8
F0.0
sg80
F0.5
sg11
F0.0
sg12
F0.0
sg81
F69.5
sg82
F4.0
sg14
F0.0
ssg69
(dp311
g8
F0.0
sg80
F0.5
sg11
F0.0
sg12
F0.0
sg81
F55.5
sg82
F5.0
sg14
F0.0
ssg71
(dp312
g8
F0.0
sg80
F0.5
sg11
F0.0
sg12
F0.0
sg81
F84.0
sg82
F7.5
sg14
F0.0
ssg73
(dp313
g8
F0.0
sg80
F0.5
sg11
F0.0
sg12
F0.0
sg81
F60.5
sg82
F3.5
sg14
F0.0
ssg75
(dp314
g8
F0.0
sg80
F0.0
sg11
F0.0
sg12
F0.0
sg81
F55.5
sg82
F5.0
sg14
F0.0
sssssI2015
(dp315
I1
(dp316
g3
(dp317
g5
(dp318
g7
F0.0
sg8
F0.0
sg9
F32.0
sg10
F2.0
sg11
F0.0
sg12
F0.0
sg13
F117.0
sg14
F0.0
ssg15
(dp319
g7
F0.0
sg8
F0.0
sg9
F26.0
sg10
F0.0
sg11
F0.0
sg12
F7.0
sg13
F165.0
sg14
F41.0
ssg17
(dp320
g7
F3.0
sg8
F0.0
sg9
F23.0
sg10
F0.0
sg11
F0.0
sg12
F8.0
sg13
F189.0
sg14
F35.0
ssg19
(dp321
g7
F1.0
sg8
F0.0
sg9
F52.0
sg10
F2.0
sg11
F0.0
sg12
F0.0
sg13
F336.0
sg14
F0.0
ssg21
(dp322
g7
F3.0
sg8
F0.0
sg9
F32.0
sg10
F0.0
sg11
F0.0
sg12
F3.0
sg13
F307.0
sg14
F14.0
ssg23
(dp323
g7
F2.0
sg8
F0.0
sg9
F30.0
sg10
F2.0
sg11
F0.0
sg12
F1.0
sg13
F246.0
sg14
F-1.0
ssg25
(dp324
g7
F2.0
sg8
F0.0
sg9
F34.0
sg10
F0.0
sg11
F0.0
sg12
F4.0
sg13
F269.0
sg14
F1.0
ssg27
(dp325
g7
F2.0
sg8
F0.0
sg9
F41.0
sg10
F2.0
sg11
F0.0
sg12
F2.0
sg13
F403.0
sg14
F-2.0
ssg29
(dp326
g7
F2.0
sg8
F0.0
sg9
F34.0
sg10
F2.0
sg11
F0.0
sg12
F5.0
sg13
F298.0
sg14
F7.0
ssg31
(dp327
g7
F2.0
sg8
F0.0
sg9
F24.0
sg10
F1.0
sg11
F0.0
sg12
F2.0
sg13
F179.0
sg14
F-1.0
ssg33
(dp328
g7
F4.0
sg8
F0.0
sg9
F32.0
sg10
F0.0
sg11
F0.0
sg12
F3.0
sg13
F288.0
sg14
F1.0
ssg35
(dp329
g7
F3.0
sg8
F0.0
sg9
F45.0
sg10
F2.0
sg11
F0.0
sg12
F1.0
sg13
F356.0
sg14
F-1.0
ssg37
(dp330
g7
F4.0
sg8
F0.0
sg9
F15.0
sg10
F0.0
sg11
F0.0
sg12
F5.0
sg13
F209.0
sg14
F1.0
ssg39
(dp331
g7
F1.0
sg8
F0.0
sg9
F48.0
sg10
F1.0
sg11
F0.0
sg12
F1.0
sg13
F355.0
sg14
F3.0
ssg41
(dp332
g7
F2.0
sg8
F1.0
sg9
F43.0
sg10
F1.0
sg11
F0.0
sg12
F1.0
sg13
F203.0
sg14
F8.0
ssg43
(dp333
g7
F2.0
sg8
F1.0
sg9
F47.0
sg10
F1.0
sg11
F0.0
sg12
F1.0
sg13
F334.0
sg14
F6.0
ssg45
(dp334
g7
F1.0
sg8
F0.0
sg9
F31.0
sg10
F2.0
sg11
F0.0
sg12
F2.0
sg13
F196.0
sg14
F-1.0
ssg47
(dp335
g7
F1.0
sg8
F0.0
sg9
F31.0
sg10
F1.0
sg11
F0.0
sg12
F14.0
sg13
F175.0
sg14
F35.0
ssg49
(dp336
g7
F1.0
sg8
F2.0
sg9
F27.0
sg10
F0.0
sg11
F1.0
sg12
F4.0
sg13
F297.0
sg14
F11.0
ssg51
(dp337
g7
F1.0
sg8
F3.0
sg9
F32.0
sg10
F1.0
sg11
F0.0
sg12
F8.0
sg13
F231.0
sg14
F58.0
ssg53
(dp338
g7
F0.0
sg8
F0.0
sg9
F0.0
sg10
F0.0
sg11
F0.0
sg12
F0.0
sg13
F0.0
sg14
F0.0
ssg55
(dp339
g7
F1.0
sg8
F0.0
sg9
F19.0
sg10
F0.0
sg11
F0.0
sg12
F9.0
sg13
F195.0
sg14
F41.0
ssg57
(dp340
g7
F1.0
sg8
F0.0
sg9
F36.0
sg10
F1.0
sg11
F0.0
sg12
F4.0
sg13
F225.0
sg14
F31.0
ssg59
(dp341
g7
F2.0
sg8
F0.0
sg9
F33.0
sg10
F2.0
sg11
F0.0
sg12
F6.0
sg13
F210.0
sg14
F18.0
ssg61
(dp342
g7
F1.0
sg8
F0.0
sg9
F41.0
sg10
F1.0
sg11
F0.0
sg12
F8.0
sg13
F251.0
sg14
F31.0
ssg63
(dp343
g7
F2.0
sg8
F0.0
sg9
F49.0
sg10
F2.0
sg11
F0.0
sg12
F4.0
sg13
F243.0
sg14
F20.0
ssg65
(dp344
g7
F3.0
sg8
F0.0
sg9
F33.0
sg10
F0.0
sg11
F0.0
sg12
F9.0
sg13
F243.0
sg14
F15.0
ssg67
(dp345
g7
F0.0
sg8
F0.0
sg9
F32.0
sg10
F1.0
sg11
F0.0
sg12
F3.0
sg13
F231.0
sg14
F16.0
ssg69
(dp346
g7
F1.0
sg8
F0.0
sg9
F38.0
sg10
F1.0
sg11
F0.0
sg12
F0.0
sg13
F351.0
sg14
F0.0
ssg71
(dp347
g7
F0.0
sg8
F0.0
sg9
F36.0
sg10
F0.0
sg11
F0.0
sg12
F1.0
sg13
F189.0
sg14
F8.0
ssg73
(dp348
g7
F1.0
sg8
F0.0
sg9
F40.0
sg10
F2.0
sg11
F0.0
sg12
F4.0
sg13
F183.0
sg14
F26.0
ssg75
(dp349
g7
F1.0
sg8
F1.0
sg9
F34.0
sg10
F0.0
sg11
F0.0
sg12
F3.0
sg13
F226.0
sg14
F7.0
sssg77
(dp350
g5
(dp351
g8
F0.0
sg80
F0.0
sg11
F0.0
sg12
F0.0
sg81
F20.0
sg82
F4.0
sg14
F0.0
ssg15
(dp352
g8
F0.0
sg80
F0.0
sg11
F0.0
sg12
F0.0
sg81
F52.0
sg82
F7.0
sg14
F0.0
ssg17
(dp353
g8
F0.0
sg80
F3.0
sg11
F0.0
sg12
F0.0
sg81
F184.0
sg82
F15.0
sg14
F0.0
ssg19
(dp354
g8
F0.0
sg80
F0.0
sg11
F0.0
sg12
F0.0
sg81
F126.0
sg82
F13.0
sg14
F0.0
ssg21
(dp355
g8
F0.0
sg80
F1.0
sg11
F0.0
sg12
F0.0
sg81
F159.0
sg82
F12.0
sg14
F0.0
ssg23
(dp356
g8
F0.0
sg80
F0.0
sg11
F0.0
sg12
F0.0
sg81
F46.0
sg82
F5.0
sg14
F0.0
ssg25
(dp357
g8
F0.0
sg80
F0.0
sg11
F0.0
sg12
F0.0
sg81
F116.0
sg82
F9.0
sg14
F0.0
ssg27
(dp358
g8
F0.0
sg80
F1.0
sg11
F0.0
sg12
F0.0
sg81
F277.0
sg82
F22.0
sg14
F0.0
ssg29
(dp359
g8
F0.0
sg80
F2.0
sg11
F0.0
sg12
F0.0
sg81
F246.0
sg82
F16.0
sg14
F0.0
ssg31
(dp360
g8
F0.0
sg80
F2.0
sg11
F0.0
sg12
F0.0
sg81
F154.0
sg82
F12.0
sg14
F0.0
ssg33
(dp361
g8
F0.0
sg80
F0.0
sg11
F0.0
sg12
F1.0
sg81
F130.0
sg82
F14.0
sg14
F9.0
ssg35
(dp362
g8
F1.0
sg80
F0.0
sg11
F0.0
sg12
F0.0
sg81
F157.0
sg82
F14.0
sg14
F0.0
ssg37
(dp363
g8
F0.0
sg80
F2.0
sg11
F0.0
sg12
F0.0
sg81
F136.0
sg82
F7.0
sg14
F0.0
ssg39
(dp364
g8
F0.0
sg80
F1.0
sg11
F0.0
sg12
F1.0
sg81
F182.0
sg82
F12.0
sg14
F4.0
ssg41
(dp365
g8
F0.0
sg80
F0.0
sg11
F0.0
sg12
F0.0
sg81
F104.0
sg82
F14.0
sg14
F0.0
ssg43
(dp366
g8
F0.0
sg80
F2.0
sg11
F0.0
sg12
F0.0
sg81
F283.0
sg82
F21.0
sg14
F0.0
ssg45
(dp367
g8
F0.0
sg80
F0.0
sg11
F0.0
sg12
F1.0
sg81
F125.0
sg82
F11.0
sg14
F2.0
ssg47
(dp368
g8
F0.0
sg80
F1.0
sg11
F0.0
sg12
F0.0
sg81
F121.0
sg82
F9.0
sg14
F0.0
ssg49
(dp369
g8
F0.0
sg80
F0.0
sg11
F1.0
sg12
F4.0
sg81
F93.0
sg82
F7.0
sg14
F17.0
ssg51
(dp370
g8
F0.0
sg80
F1.0
sg11
F0.0
sg12
F0.0
sg81
F153.0
sg82
F10.0
sg14
F0.0
ssg53
(dp371
g8
F0.0
sg80
F0.0
sg11
F0.0
sg12
F0.0
sg81
F151.0
sg82
F18.0
sg14
F0.0
ssg55
(dp372
g8
F0.0
sg80
F1.0
sg11
F0.0
sg12
F1.0
sg81
F106.0
sg82
F7.0
sg14
F9.0
ssg57
(dp373
g8
F0.0
sg80
F0.0
sg11
F0.0
sg12
F0.0
sg81
F145.0
sg82
F8.0
sg14
F0.0
ssg59
(dp374
g8
F0.0
sg80
F0.0
sg11
F0.0
sg12
F0.0
sg81
F71.0
sg82
F7.0
sg14
F0.0
ssg61
(dp375
g8
F0.0
sg80
F0.0
sg11
F0.0
sg12
F0.0
sg81
F153.0
sg82
F20.0
sg14
F0.0
ssg63
(dp376
g8
F1.0
sg80
F1.0
sg11
F0.0
sg12
F0.0
sg81
F203.0
sg82
F19.0
sg14
F0.0
ssg65
(dp377
g8
F0.0
sg80
F0.0
sg11
F0.0
sg12
F1.0
sg81
F79.0
sg82
F9.0
sg14
F9.0
ssg67
(dp378
g8
F0.0
sg80
F0.0
sg11
F0.0
sg12
F0.0
sg81
F118.0
sg82
F10.0
sg14
F0.0
ssg69
(dp379
g8
F0.0
sg80
F1.0
sg11
F0.0
sg12
F0.0
sg81
F262.0
sg82
F17.0
sg14
F0.0
ssg71
(dp380
g8
F0.0
sg80
F0.0
sg11
F0.0
sg12
F1.0
sg81
F67.0
sg82
F8.0
sg14
F11.0
ssg73
(dp381
g8
F1.0
sg80
F1.0
sg11
F0.0
sg12
F0.0
sg81
F132.0
sg82
F15.0
sg14
F0.0
ssg75
(dp382
g8
F0.0
sg80
F1.0
sg11
F0.0
sg12
F1.0
sg81
F128.0
sg82
F16.0
sg14
F14.0
sssg114
(dp383
g5
(dp384
g8
F0.0
sg80
F0.0
sg11
F0.0
sg12
F23.0
sg81
F34.0
sg82
F9.0
sg14
F73.0
ssg15
(dp385
g8
F0.0
sg80
F0.0
sg11
F2.0
sg12
F28.0
sg81
F14.0
sg82
F2.0
sg14
F176.0
ssg17
(dp386
g8
F0.0
sg80
F0.0
sg11
F1.0
sg12
F21.0
sg81
F14.0
sg82
F2.0
sg14
F87.0
ssg19
(dp387
g8
F0.0
sg80
F1.0
sg11
F2.0
sg12
F16.0
sg81
F111.0
sg82
F14.0
sg14
F63.0
ssg21
(dp388
g8
F1.0
sg80
F1.0
sg11
F1.0
sg12
F22.0
sg81
F62.0
sg82
F2.0
sg14
F106.0
ssg23
(dp389
g8
F0.0
sg80
F1.0
sg11
F1.0
sg12
F9.0
sg81
F81.0
sg82
F6.0
sg14
F56.0
ssg25
(dp390
g8
F0.0
sg80
F0.0
sg11
F2.0
sg12
F27.0
sg81
F49.0
sg82
F7.0
sg14
F126.0
ssg27
(dp391
g8
F1.0
sg80
F0.0
sg11
F2.0
sg12
F29.0
sg81
F52.0
sg82
F7.0
sg14
F98.0
ssg29
(dp392
g8
F0.0
sg80
F0.0
sg11
F0.0
sg12
F30.0
sg81
F29.0
sg82
F3.0
sg14
F98.0
ssg31
(dp393
g8
F0.0
sg80
F0.0
sg11
F2.0
sg12
F34.0
sg81
F25.0
sg82
F3.0
sg14
F155.0
ssg33
(dp394
g8
F0.0
sg80
F0.0
sg11
F0.0
sg12
F20.0
sg81
F63.0
sg82
F5.0
sg14
F70.0
ssg35
(dp395
g8
F0.0
sg80
F0.0
sg11
F0.0
sg12
F6.0
sg81
F89.0
sg82
F9.0
sg14
F16.0
ssg37
(dp396
g8
F1.0
sg80
F1.0
sg11
F1.0
sg12
F27.0
sg81
F12.0
sg82
F2.0
sg14
F123.0
ssg39
(dp397
g8
F0.0
sg80
F0.0
sg11
F0.0
sg12
F18.0
sg81
F154.0
sg82
F15.0
sg14
F47.0
ssg41
(dp398
g8
F0.0
sg80
F2.0
sg11
F0.0
sg12
F15.0
sg81
F94.0
sg82
F14.0
sg14
F55.0
ssg43
(dp399
g8
F0.0
sg80
F0.0
sg11
F0.0
sg12
F20.0
sg81
F18.0
sg82
F3.0
sg14
F92.0
ssg45
(dp400
g8
F0.0
sg80
F0.0
sg11
F0.0
sg12
F28.0
sg81
F0.0
sg82
F1.0
sg14
F132.0
ssg47
(dp401
g8
F0.0
sg80
F0.0
sg11
F0.0
sg12
F21.0
sg81
F34.0
sg82
F7.0
sg14
F70.0
ssg49
(dp402
g8
F1.0
sg80
F0.0
sg11
F0.0
sg12
F18.0
sg81
F77.0
sg82
F4.0
sg14
F48.0
ssg51
(dp403
g8
F0.0
sg80
F0.0
sg11
F0.0
sg12
F20.0
sg81
F27.0
sg82
F4.0
sg14
F46.0
ssg53
(dp404
g8
F0.0
sg80
F0.0
sg11
F0.0
sg12
F24.0
sg81
F19.0
sg82
F4.0
sg14
F70.0
ssg55
(dp405
g8
F0.0
sg80
F0.0
sg11
F2.0
sg12
F26.0
sg81
F46.0
sg82
F3.0
sg14
F97.0
ssg57
(dp406
g8
F0.0
sg80
F0.0
sg11
F1.0
sg12
F29.0
sg81
F25.0
sg82
F5.0
sg14
F158.0
ssg59
(dp407
g8
F0.0
sg80
F0.0
sg11
F0.0
sg12
F22.0
sg81
F29.0
sg82
F4.0
sg14
F79.0
ssg61
(dp408
g8
F0.0
sg80
F0.0
sg11
F0.0
sg12
F6.0
sg81
F16.0
sg82
F1.0
sg14
F20.0
ssg63
(dp409
g8
F0.0
sg80
F0.0
sg11
F0.0
sg12
F9.0
sg81
F18.0
sg82
F3.0
sg14
F33.0
ssg65
(dp410
g8
F0.0
sg80
F1.0
sg11
F0.0
sg12
F22.0
sg81
F58.0
sg82
F7.0
sg14
F73.0
ssg67
(dp411
g8
F0.0
sg80
F0.0
sg11
F0.0
sg12
F14.0
sg81
F57.0
sg82
F7.0
sg14
F55.0
ssg69
(dp412
g8
F0.0
sg80
F0.0
sg11
F1.0
sg12
F25.0
sg81
F5.0
sg82
F1.0
sg14
F134.0
ssg71
(dp413
g8
F0.0
sg80
F0.0
sg11
F1.0
sg12
F22.0
sg81
F45.0
sg82
F4.0
sg14
F80.0
ssg73
(dp414
g8
F0.0
sg80
F0.0
sg11
F0.0
sg12
F17.0
sg81
F51.0
sg82
F7.0
sg14
F70.0
ssg75
(dp415
g8
F0.0
sg80
F0.0
sg11
F0.0
sg12
F14.0
sg81
F25.0
sg82
F2.0
sg14
F53.0
sssg148
(dp416
g5
(dp417
g8
F0.0
sg80
F0.0
sg11
F0.0
sg12
F0.0
sg81
F38.0
sg82
F3.0
sg14
F0.0
ssg15
(dp418
g8
F0.0
sg80
F0.0
sg11
F0.0
sg12
F0.0
sg81
F92.0
sg82
F7.0
sg14
F0.0
ssg17
(dp419
g8
F0.0
sg80
F0.0
sg11
F0.0
sg12
F1.0
sg81
F27.0
sg82
F3.0
sg14
F11.0
ssg19
(dp420
g8
F0.0
sg80
F0.0
sg11
F0.0
sg12
F0.0
sg81
F52.0
sg82
F4.0
sg14
F0.0
ssg21
(dp421
g8
F0.0
sg80
F1.0
sg11
F0.0
sg12
F0.0
sg81
F86.0
sg82
F5.0
sg14
F0.0
ssg23
(dp422
g8
F0.0
sg80
F1.0
sg11
F0.0
sg12
F0.0
sg81
F53.0
sg82
F4.0
sg14
F0.0
ssg25
(dp423
g8
F0.0
sg80
F2.0
sg11
F0.0
sg12
F0.0
sg81
F104.0
sg82
F9.0
sg14
F0.0
ssg27
(dp424
g8
F0.0
sg80
F1.0
sg11
F0.0
sg12
F0.0
sg81
F74.0
sg82
F5.0
sg14
F0.0
ssg29
(dp425
g8
F0.0
sg80
F0.0
sg11
F0.0
sg12
F0.0
sg81
F23.0
sg82
F4.0
sg14
F0.0
ssg31
(dp426
g8
F0.0
sg80
F0.0
sg11
F0.0
sg12
F0.0
sg81
F0.0
sg82
F0.0
sg14
F0.0
ssg33
(dp427
g8
F0.0
sg80
F4.0
sg11
F0.0
sg12
F0.0
sg81
F95.0
sg82
F6.0
sg14
F0.0
ssg35
(dp428
g8
F0.0
sg80
F3.0
sg11
F0.0
sg12
F0.0
sg81
F68.0
sg82
F10.0
sg14
F0.0
ssg37
(dp429
g8
F0.0
sg80
F1.0
sg11
F0.0
sg12
F0.0
sg81
F61.0
sg82
F4.0
sg14
F0.0
ssg39
(dp430
g8
F0.0
sg80
F0.0
sg11
F0.0
sg12
F0.0
sg81
F19.0
sg82
F3.0
sg14
F0.0
ssg41
(dp431
g8
F0.0
sg80
F0.0
sg11
F0.0
sg12
F0.0
sg81
F5.0
sg82
F2.0
sg14
F0.0
ssg43
(dp432
g8
F0.0
sg80
F0.0
sg11
F0.0
sg12
F0.0
sg81
F33.0
sg82
F2.0
sg14
F0.0
ssg45
(dp433
g8
F0.0
sg80
F1.0
sg11
F0.0
sg12
F0.0
sg81
F71.0
sg82
F9.0
sg14
F0.0
ssg47
(dp434
g8
F0.0
sg80
F0.0
sg11
F0.0
sg12
F0.0
sg81
F20.0
sg82
F2.0
sg14
F0.0
ssg49
(dp435
g8
F0.0
sg80
F1.0
sg11
F0.0
sg12
F0.0
sg81
F127.0
sg82
F7.0
sg14
F0.0
ssg51
(dp436
g8
F0.0
sg80
F0.0
sg11
F0.0
sg12
F0.0
sg81
F51.0
sg82
F4.0
sg14
F0.0
ssg53
(dp437
g8
F0.0
sg80
F0.0
sg11
F0.0
sg12
F0.0
sg81
F5.0
sg82
F2.0
sg14
F0.0
ssg55
(dp438
g8
F0.0
sg80
F0.0
sg11
F0.0
sg12
F0.0
sg81
F43.0
sg82
F4.0
sg14
F0.0
ssg57
(dp439
g8
F0.0
sg80
F1.0
sg11
F0.0
sg12
F0.0
sg81
F55.0
sg82
F5.0
sg14
F0.0
ssg59
(dp440
g8
F0.0
sg80
F2.0
sg11
F0.0
sg12
F0.0
sg81
F110.0
sg82
F5.0
sg14
F0.0
ssg61
(dp441
g8
F0.0
sg80
F1.0
sg11
F0.0
sg12
F0.0
sg81
F51.0
sg82
F6.0
sg14
F0.0
ssg63
(dp442
g8
F0.0
sg80
F1.0
sg11
F0.0
sg12
F0.0
sg81
F22.0
sg82
F4.0
sg14
F0.0
ssg65
(dp443
g8
F0.0
sg80
F2.0
sg11
F0.0
sg12
F0.0
sg81
F106.0
sg82
F6.0
sg14
F0.0
ssg67
(dp444
g8
F0.0
sg80
F0.0
sg11
F0.0
sg12
F0.0
sg81
F56.0
sg82
F6.0
sg14
F0.0
ssg69
(dp445
g8
F0.0
sg80
F0.0
sg11
F0.0
sg12
F0.0
sg81
F0.0
sg82
F0.0
sg14
F0.0
ssg71
(dp446
g8
F0.0
sg80
F0.0
sg11
F0.0
sg12
F0.0
sg81
F54.0
sg82
F6.0
sg14
F0.0
ssg73
(dp447
g8
F0.0
sg80
F0.0
sg11
F0.0
sg12
F0.0
sg81
F0.0
sg82
F0.0
sg14
F0.0
ssg75
(dp448
g8
F0.0
sg80
F0.0
sg11
F0.0
sg12
F0.0
sg81
F73.0
sg82
F4.0
sg14
F0.0
ssssI2
(dp449
g3
(dp450
g5
(dp451
g7
F0.0
sg8
F0.0
sg9
F28.5
sg10
F2.0
sg11
F0.0
sg12
F1.5
sg13
F154.0
sg14
F7.5
ssg15
(dp452
g7
F1.0
sg8
F0.0
sg9
F39.5
sg10
F0.5
sg11
F0.0
sg12
F5.5
sg13
F225.5
sg14
F30.5
ssg17
(dp453
g7
F3.5
sg8
F0.0
sg9
F23.5
sg10
F0.5
sg11
F0.0
sg12
F5.0
sg13
F187.0
sg14
F16.5
ssg19
(dp454
g7
F1.5
sg8
F0.5
sg9
F46.0
sg10
F1.0
sg11
F0.0
sg12
F1.0
sg13
F314.0
sg14
F11.5
ssg21
(dp455
g7
F2.0
sg8
F0.5
sg9
F26.5
sg10
F0.0
sg11
F0.5
sg12
F4.5
sg13
F257.0
sg14
F18.5
ssg23
(dp456
g7
F2.5
sg8
F0.0
sg9
F28.0
sg10
F1.0
sg11
F0.0
sg12
F3.0
sg13
F230.0
sg14
F4.5
ssg25
(dp457
g7
F2.0
sg8
F0.0
sg9
F39.5
sg10
F0.5
sg11
F0.0
sg12
F3.0
sg13
F326.5
sg14
F1.5
ssg27
(dp458
g7
F1.5
sg8
F0.0
sg9
F29.5
sg10
F1.0
sg11
F0.5
sg12
F4.0
sg13
F278.0
sg14
F9.5
ssg29
(dp459
g7
F1.5
sg8
F0.5
sg9
F34.0
sg10
F1.0
sg11
F0.0
sg12
F4.5
sg13
F283.0
sg14
F13.0
ssg31
(dp460
g7
F2.0
sg8
F1.0
sg9
F30.5
sg10
F0.5
sg11
F0.0
sg12
F2.5
sg13
F218.0
sg14
F9.0
ssg33
(dp461
g7
F3.0
sg8
F0.5
sg9
F39.0
sg10
F0.0
sg11
F0.0
sg12
F6.0
sg13
F311.5
sg14
F26.0
ssg35
(dp462
g7
F2.0
sg8
F0.0
sg9
F45.5
sg10
F1.0
sg11
F0.0
sg12
F1.0
sg13
F359.5
sg14
F-1.0
ssg37
(dp463
g7
F2.5
sg8
F0.0
sg9
F26.5
sg10
F0.5
sg11
F0.0
sg12
F3.0
sg13
F232.0
sg14
F0.0
ssg39
(dp464
g7
F1.0
sg8
F0.0
sg9
F40.0
sg10
F1.5
sg11
F0.0
sg12
F3.0
sg13
F298.0
sg14
F11.0
ssg41
(dp465
g7
F2.0
sg8
F1.0
sg9
F35.0
sg10
F1.0
sg11
F0.0
sg12
F1.0
sg13
F222.0
sg14
F6.5
ssg43
(dp466
g7
F1.0
sg8
F0.5
sg9
F23.5
sg10
F0.5
sg11
F0.0
sg12
F0.5
sg13
F167.0
sg14
F3.0
ssg45
(dp467
g7
F1.5
sg8
F0.0
sg9
F32.0
sg10
F1.0
sg11
F0.0
sg12
F2.0
sg13
F234.5
sg14
F13.0
ssg47
(dp468
g7
F0.75
sg8
F0.0
sg9
F18.75
sg10
F0.25
sg11
F0.0
sg12
F4.25
sg13
F133.5
sg14
F13.0
ssg49
(dp469
g7
F1.5
sg8
F1.0
sg9
F30.0
sg10
F0.0
sg11
F0.5
sg12
F5.0
sg13
F273.0
sg14
F17.0
ssg51
(dp470
g7
F1.0
sg8
F2.0
sg9
F34.5
sg10
F2.0
sg11
F0.0
sg12
F6.0
sg13
F240.5
sg14
F41.0
ssg53
(dp471
g7
F1.5
sg8
F0.0
sg9
F23.0
sg10
F0.5
sg11
F0.0
sg12
F1.0
sg13
F175.5
sg14
F11.5
ssg55
(dp472
g7
F1.5
sg8
F0.0
sg9
F26.5
sg10
F0.5
sg11
F0.0
sg12
F5.0
sg13
F219.5
sg14
F23.5
ssg57
(dp473
g7
F1.5
sg8
F0.0
sg9
F33.0
sg10
F1.0
sg11
F0.0
sg12
F7.0
sg13
F215.5
sg14
F54.5
ssg59
(dp474
g7
F2.0
sg8
F0.0
sg9
F24.0
sg10
F1.0
sg11
F0.0
sg12
F4.5
sg13
F191.0
sg14
F9.5
ssg61
(dp475
g7
F0.5
sg8
F0.0
sg9
F17.0
sg10
F0.25
sg11
F0.0
sg12
F2.0
sg13
F113.5
sg14
F7.75
ssg63
(dp476
g7
F2.5
sg8
F0.5
sg9
F54.0
sg10
F1.0
sg11
F0.0
sg12
F3.5
sg13
F354.5
sg14
F8.0
ssg65
(dp477
g7
F2.5
sg8
F0.0
sg9
F35.0
sg10
F0.5
sg11
F0.5
sg12
F9.5
sg13
F219.0
sg14
F45.5
ssg67
(dp478
g7
F1.5
sg8
F0.0
sg9
F29.5
sg10
F0.5
sg11
F0.0
sg12
F2.0
sg13
F300.0
sg14
F7.5
ssg69
(dp479
g7
F2.0
sg8
F0.0
sg9
F34.0
sg10
F2.0
sg11
F0.5
sg12
F2.5
sg13
F296.5
sg14
F21.5
ssg71
(dp480
g7
F0.5
sg8
F0.5
sg9
F36.5
sg10
F1.0
sg11
F0.0
sg12
F1.5
sg13
F206.5
sg14
F8.5
ssg73
(dp481
g7
F1.0
sg8
F0.0
sg9
F49.0
sg10
F1.5
sg11
F0.5
sg12
F2.5
sg13
F213.5
sg14
F16.0
ssg75
(dp482
g7
F1.0
sg8
F0.5
sg9
F33.0
sg10
F0.0
sg11
F0.0
sg12
F2.0
sg13
F188.0
sg14
F4.0
sssg77
(dp483
g5
(dp484
g8
F0.5
sg80
F0.0
sg11
F0.0
sg12
F0.5
sg81
F48.5
sg82
F5.0
sg14
F-1.0
ssg15
(dp485
g8
F0.5
sg80
F0.0
sg11
F0.0
sg12
F0.0
sg81
F73.0
sg82
F8.0
sg14
F0.0
ssg17
(dp486
g8
F0.5
sg80
F3.5
sg11
F0.0
sg12
F0.0
sg81
F180.5
sg82
F15.0
sg14
F0.0
ssg19
(dp487
g8
F0.0
sg80
F0.5
sg11
F0.0
sg12
F0.0
sg81
F141.0
sg82
F11.0
sg14
F0.0
ssg21
(dp488
g8
F0.0
sg80
F1.0
sg11
F0.0
sg12
F0.0
sg81
F147.5
sg82
F9.0
sg14
F0.0
ssg23
(dp489
g8
F0.0
sg80
F1.0
sg11
F0.0
sg12
F0.5
sg81
F77.0
sg82
F5.5
sg14
F1.5
ssg25
(dp490
g8
F0.5
sg80
F0.0
sg11
F0.0
sg12
F0.0
sg81
F177.5
sg82
F12.0
sg14
F0.0
ssg27
(dp491
g8
F0.0
sg80
F0.5
sg11
F0.0
sg12
F0.5
sg81
F171.0
sg82
F14.5
sg14
F14.5
ssg29
(dp492
g8
F0.0
sg80
F1.5
sg11
F0.0
sg12
F0.0
sg81
F181.0
sg82
F12.5
sg14
F0.0
ssg31
(dp493
g8
F0.0
sg80
F1.5
sg11
F0.0
sg12
F0.5
sg81
F113.5
sg82
F9.0
sg14
F-3.0
ssg33
(dp494
g8
F0.0
sg80
F1.0
sg11
F0.0
sg12
F0.5
sg81
F176.5
sg82
F16.0
sg14
F4.5
ssg35
(dp495
g8
F0.5
sg80
F0.5
sg11
F0.0
sg12
F0.0
sg81
F190.5
sg82
F17.0
sg14
F0.0
ssg37
(dp496
g8
F0.5
sg80
F1.5
sg11
F0.0
sg12
F0.5
sg81
F172.0
sg82
F11.5
sg14
F-2.0
ssg39
(dp497
g8
F0.0
sg80
F1.0
sg11
F0.0
sg12
F0.5
sg81
F158.5
sg82
F12.0
sg14
F2.0
ssg41
(dp498
g8
F0.5
sg80
F1.0
sg11
F0.0
sg12
F0.0
sg81
F110.0
sg82
F11.5
sg14
F0.0
ssg43
(dp499
g8
F0.0
sg80
F2.0
sg11
F0.0
sg12
F0.5
sg81
F253.0
sg82
F20.5
sg14
F0.0
ssg45
(dp500
g8
F0.0
sg80
F1.0
sg11
F0.0
sg12
F1.0
sg81
F192.5
sg82
F13.0
sg14
F7.0
ssg47
(dp501
g8
F0.0
sg80
F0.25
sg11
F0.0
sg12
F0.25
sg81
F89.25
sg82
F6.5
sg14
F1.5
ssg49
(dp502
g8
F0.0
sg80
F0.5
sg11
F0.5
sg12
F2.0
sg81
F154.0
sg82
F12.5
sg14
F8.5
ssg51
(dp503
g8
F0.0
sg80
F1.0
sg11
F0.0
sg12
F0.0
sg81
F186.0
sg82
F12.5
sg14
F0.0
ssg53
(dp504
g8
F0.0
sg80
F1.5
sg11
F0.0
sg12
F0.0
sg81
F216.5
sg82
F19.0
sg14
F0.0
ssg55
(dp505
g8
F0.0
sg80
F1.5
sg11
F0.0
sg12
F0.5
sg81
F165.5
sg82
F11.5
sg14
F4.5
ssg57
(dp506
g8
F0.0
sg80
F0.5
sg11
F0.0
sg12
F0.0
sg81
F133.5
sg82
F9.0
sg14
F0.0
ssg59
(dp507
g8
F0.0
sg80
F1.0
sg11
F0.0
sg12
F0.0
sg81
F113.0
sg82
F7.0
sg14
F0.0
ssg61
(dp508
g8
F0.0
sg80
F0.25
sg11
F0.0
sg12
F0.0
sg81
F57.0
sg82
F7.75
sg14
F0.0
ssg63
(dp509
g8
F0.5
sg80
F1.5
sg11
F0.0
sg12
F1.0
sg81
F208.0
sg82
F19.0
sg14
F7.5
ssg65
(dp510
g8
F0.0
sg80
F1.0
sg11
F0.0
sg12
F0.5
sg81
F101.5
sg82
F9.0
sg14
F4.5
ssg67
(dp511
g8
F0.0
sg80
F1.0
sg11
F0.0
sg12
F0.0
sg81
F228.5
sg82
F12.5
sg14
F0.0
ssg69
(dp512
g8
F0.0
sg80
F1.5
sg11
F0.0
sg12
F0.5
sg81
F220.0
sg82
F15.5
sg14
F3.5
ssg71
(dp513
g8
F0.0
sg80
F0.5
sg11
F0.0
sg12
F0.5
sg81
F99.0
sg82
F9.5
sg14
F5.5
ssg73
(dp514
g8
F0.5
sg80
F0.5
sg11
F0.0
sg12
F0.0
sg81
F148.5
sg82
F15.5
sg14
F0.0
ssg75
(dp515
g8
F0.0
sg80
F1.0
sg11
F0.0
sg12
F2.5
sg81
F92.5
sg82
F10.5
sg14
F27.0
sssg114
(dp516
g5
(dp517
g8
F1.0
sg80
F0.0
sg11
F1.0
sg12
F24.5
sg81
F18.0
sg82
F6.5
sg14
F107.5
ssg15
(dp518
g8
F0.5
sg80
F0.0
sg11
F1.0
sg12
F18.0
sg81
F32.0
sg82
F4.0
sg14
F96.0
ssg17
(dp519
g8
F0.0
sg80
F0.0
sg11
F1.0
sg12
F23.5
sg81
F8.5
sg82
F1.5
sg14
F102.0
ssg19
(dp520
g8
F0.0
sg80
F0.5
sg11
F1.0
sg12
F18.5
sg81
F99.5
sg82
F12.0
sg14
F68.5
ssg21
(dp521
g8
F1.0
sg80
F0.5
sg11
F0.5
sg12
F25.5
sg81
F52.0
sg82
F4.0
sg14
F111.0
ssg23
(dp522
g8
F1.0
sg80
F0.5
sg11
F0.5
sg12
F19.5
sg81
F53.5
sg82
F5.5
sg14
F109.0
ssg25
(dp523
g8
F0.0
sg80
F0.0
sg11
F1.5
sg12
F25.0
sg81
F43.0
sg82
F8.0
sg14
F116.5
ssg27
(dp524
g8
F1.0
sg80
F0.0
sg11
F1.5
sg12
F32.0
sg81
F55.0
sg82
F4.5
sg14
F123.5
ssg29
(dp525
g8
F0.0
sg80
F0.0
sg11
F0.0
sg12
F20.5
sg81
F47.5
sg82
F4.0
sg14
F68.5
ssg31
(dp526
g8
F0.5
sg80
F0.0
sg11
F1.0
sg12
F30.0
sg81
F35.0
sg82
F4.0
sg14
F154.0
ssg33
(dp527
g8
F0.0
sg80
F0.0
sg11
F0.0
sg12
F20.0
sg81
F46.0
sg82
F6.0
sg14
F63.5
ssg35
(dp528
g8
F0.0
sg80
F0.0
sg11
F1.0
sg12
F13.5
sg81
F75.5
sg82
F7.5
sg14
F36.5
ssg37
(dp529
g8
F1.0
sg80
F0.5
sg11
F1.5
sg12
F26.0
sg81
F22.5
sg82
F3.5
sg14
F116.0
ssg39
(dp530
g8
F0.0
sg80
F0.0
sg11
F0.5
sg12
F20.5
sg81
F99.0
sg82
F9.5
sg14
F68.5
ssg41
(dp531
g8
F0.0
sg80
F1.0
sg11
F0.0
sg12
F19.5
sg81
F86.0
sg82
F10.5
sg14
F90.5
ssg43
(dp532
g8
F0.0
sg80
F0.0
sg11
F0.0
sg12
F20.5
sg81
F10.0
sg82
F2.0
sg14
F76.5
ssg45
(dp533
g8
F0.0
sg80
F0.0
sg11
F0.0
sg12
F29.0
sg81
F6.5
sg82
F2.0
sg14
F108.0
ssg47
(dp534
g8
F0.0
sg80
F0.25
sg11
F0.0
sg12
F8.25
sg81
F19.25
sg82
F3.75
sg14
F22.25
ssg49
(dp535
g8
F1.0
sg80
F0.0
sg11
F0.0
sg12
F20.5
sg81
F44.0
sg82
F4.0
sg14
F76.0
ssg51
(dp536
g8
F0.5
sg80
F0.0
sg11
F0.0
sg12
F17.5
sg81
F15.5
sg82
F2.5
sg14
F51.5
ssg53
(dp537
g8
F0.0
sg80
F0.0
sg11
F0.5
sg12
F20.5
sg81
F31.5
sg82
F4.5
sg14
F72.0
ssg55
(dp538
g8
F0.0
sg80
F0.0
sg11
F1.0
sg12
F26.0
sg81
F32.5
sg82
F4.5
sg14
F96.0
ssg57
(dp539
g8
F0.5
sg80
F0.5
sg11
F0.5
sg12
F14.5
sg81
F20.5
sg82
F4.0
sg14
F79.0
ssg59
(dp540
g8
F0.0
sg80
F0.0
sg11
F0.5
sg12
F24.5
sg81
F14.5
sg82
F2.0
sg14
F97.0
ssg61
(dp541
g8
F0.0
sg80
F0.0
sg11
F0.0
sg12
F6.0
sg81
F9.75
sg82
F1.0
sg14
F19.75
ssg63
(dp542
g8
F0.5
sg80
F0.0
sg11
F0.5
sg12
F9.5
sg81
F60.0
sg82
F5.5
sg14
F39.0
ssg65
(dp543
g8
F0.0
sg80
F0.5
sg11
F0.0
sg12
F22.5
sg81
F29.5
sg82
F5.0
sg14
F84.5
ssg67
(dp544
g8
F0.0
sg80
F0.0
sg11
F1.5
sg12
F17.5
sg81
F36.0
sg82
F5.5
sg14
F71.5
ssg69
(dp545
g8
F0.0
sg80
F0.0
sg11
F1.0
sg12
F23.0
sg81
F24.0
sg82
F3.0
sg14
F122.0
ssg71
(dp546
g8
F0.0
sg80
F0.0
sg11
F0.5
sg12
F18.5
sg81
F60.5
sg82
F6.5
sg14
F39.0
ssg73
(dp547
g8
F0.0
sg80
F0.0
sg11
F0.0
sg12
F19.5
sg81
F52.0
sg82
F8.0
sg14
F62.5
ssg75
(dp548
g8
F0.0
sg80
F0.0
sg11
F0.0
sg12
F11.0
sg81
F28.0
sg82
F4.0
sg14
F39.5
sssg148
(dp549
g5
(dp550
g8
F0.0
sg80
F0.0
sg11
F0.0
sg12
F0.0
sg81
F75.0
sg82
F4.5
sg14
F0.0
ssg15
(dp551
g8
F0.0
sg80
F0.5
sg11
F0.0
sg12
F0.0
sg81
F67.5
sg82
F6.0
sg14
F0.0
ssg17
(dp552
g8
F0.0
sg80
F0.0
sg11
F0.0
sg12
F0.5
sg81
F16.0
sg82
F2.0
sg14
F5.5
ssg19
(dp553
g8
F0.0
sg80
F0.5
sg11
F0.0
sg12
F0.0
sg81
F41.5
sg82
F4.5
sg14
F0.0
ssg21
(dp554
g8
F0.0
sg80
F0.5
sg11
F0.0
sg12
F0.0
sg81
F57.5
sg82
F3.5
sg14
F0.0
ssg23
(dp555
g8
F0.0
sg80
F1.0
sg11
F0.0
sg12
F0.0
sg81
F51.0
sg82
F4.0
sg14
F0.0
ssg25
(dp556
g8
F0.0
sg80
F2.0
sg11
F0.0
sg12
F0.0
sg81
F100.0
sg82
F7.5
sg14
F0.0
ssg27
(dp557
g8
F0.0
sg80
F1.0
sg11
F0.0
sg12
F0.0
sg81
F52.0
sg82
F5.0
sg14
F0.0
ssg29
(dp558
g8
F0.5
sg80
F0.0
sg11
F0.0
sg12
F0.0
sg81
F47.5
sg82
F7.0
sg14
F0.0
ssg31
(dp559
g8
F0.0
sg80
F0.5
sg11
F0.0
sg12
F0.0
sg81
F69.5
sg82
F5.0
sg14
F0.0
ssg33
(dp560
g8
F0.0
sg80
F2.0
sg11
F0.0
sg12
F0.0
sg81
F89.0
sg82
F7.0
sg14
F0.0
ssg35
(dp561
g8
F0.0
sg80
F1.5
sg11
F0.0
sg12
F0.0
sg81
F72.5
sg82
F7.0
sg14
F0.0
ssg37
(dp562
g8
F0.0
sg80
F0.5
sg11
F0.0
sg12
F0.0
sg81
F37.5
sg82
F3.5
sg14
F0.0
ssg39
(dp563
g8
F0.0
sg80
F0.0
sg11
F0.0
sg12
F0.0
sg81
F40.5
sg82
F4.5
sg14
F0.0
ssg41
(dp564
g8
F0.0
sg80
F0.0
sg11
F0.0
sg12
F0.0
sg81
F26.0
sg82
F3.5
sg14
F0.0
ssg43
(dp565
g8
F0.0
sg80
F0.5
sg11
F0.0
sg12
F0.0
sg81
F32.0
sg82
F3.5
sg14
F0.0
ssg45
(dp566
g8
F0.0
sg80
F0.5
sg11
F0.0
sg12
F0.0
sg81
F35.5
sg82
F4.5
sg14
F0.0
ssg47
(dp567
g8
F0.0
sg80
F0.25
sg11
F0.0
sg12
F0.0
sg81
F25.0
sg82
F1.75
sg14
F0.0
ssg49
(dp568
g8
F0.0
sg80
F1.0
sg11
F0.0
sg12
F0.0
sg81
F75.0
sg82
F5.0
sg14
F0.0
ssg51
(dp569
g8
F0.0
sg80
F0.0
sg11
F0.0
sg12
F0.0
sg81
F25.5
sg82
F2.0
sg14
F0.0
ssg53
(dp570
g8
F0.0
sg80
F0.0
sg11
F0.0
sg12
F0.0
sg81
F15.0
sg82
F3.5
sg14
F0.0
ssg55
(dp571
g8
F0.0
sg80
F0.0
sg11
F0.0
sg12
F0.0
sg81
F21.5
sg82
F2.0
sg14
F0.0
ssg57
(dp572
g8
F0.0
sg80
F0.5
sg11
F0.0
sg12
F0.0
sg81
F51.0
sg82
F4.0
sg14
F0.0
ssg59
(dp573
g8
F0.0
sg80
F1.0
sg11
F0.0
sg12
F0.0
sg81
F63.5
sg82
F3.0
sg14
F0.0
ssg61
(dp574
g8
F0.0
sg80
F0.25
sg11
F0.0
sg12
F0.0
sg81
F33.25
sg82
F3.0
sg14
F0.0
ssg63
(dp575
g8
F0.0
sg80
F1.0
sg11
F0.0
sg12
F0.0
sg81
F86.5
sg82
F7.5
sg14
F0.0
ssg65
(dp576
g8
F0.0
sg80
F1.0
sg11
F0.0
sg12
F0.0
sg81
F88.0
sg82
F6.0
sg14
F0.0
ssg67
(dp577
g8
F0.0
sg80
F0.0
sg11
F0.0
sg12
F0.0
sg81
F28.0
sg82
F3.0
sg14
F0.0
ssg69
(dp578
g8
F0.0
sg80
F0.5
sg11
F0.0
sg12
F0.0
sg81
F10.5
sg82
F2.0
sg14
F0.0
ssg71
(dp579
g8
F0.0
sg80
F0.0
sg11
F0.0
sg12
F0.0
sg81
F35.5
sg82
F4.5
sg14
F0.0
ssg73
(dp580
g8
F0.0
sg80
F0.5
sg11
F0.0
sg12
F0.0
sg81
F13.0
sg82
F1.0
sg14
F0.0
ssg75
(dp581
g8
F0.0
sg80
F0.0
sg11
F0.0
sg12
F0.0
sg81
F67.5
sg82
F5.0
sg14
F0.0
sssss.