(dp0
I4
(dp1
S'QB'
p2
(dp3
S'Broncos'
p4
(dp5
S'PassTD'
p6
F0.5
sS'Lost'
p7
F0.25
sS'PassAtt'
p8
F34.75
sS'Int'
p9
F1.25
sS'RushTD'
p10
F0.5
sS'RushAtt'
p11
F6.25
sS'PassYds'
p12
F194.0
sS'RushYds'
p13
F33.75
ssS'Vikings'
p14
(dp15
g6
F0.75
sg7
F0.5
sg8
F39.5
sg9
F1.5
sg10
F0.5
sg11
F3.5
sg12
F252.5
sg13
F18.5
ssS'Bears'
p16
(dp17
g6
F1.0
sg7
F0.0
sg8
F32.25
sg9
F0.75
sg10
F0.25
sg11
F4.0
sg12
F220.5
sg13
F19.25
ssS'Falcons'
p18
(dp19
g6
F3.25
sg7
F0.0
sg8
F44.75
sg9
F1.0
sg10
F0.0
sg11
F3.25
sg12
F323.25
sg13
F13.0
ssS'Saints'
p20
(dp21
g6
F1.25
sg7
F0.25
sg8
F38.0
sg9
F0.25
sg10
F0.0
sg11
F3.0
sg12
F312.0
sg13
F8.75
ssS'Chargers'
p22
(dp23
g6
F1.75
sg7
F0.5
sg8
F42.75
sg9
F1.5
sg10
F0.25
sg11
F2.75
sg12
F307.5
sg13
F11.25
ssS'Raiders'
p24
(dp25
g6
F2.0
sg7
F0.75
sg8
F40.25
sg9
F0.75
sg10
F0.25
sg11
F1.5
sg12
F332.75
sg13
F7.0
ssS'Lions'
p26
(dp27
g6
F3.0
sg7
F0.0
sg8
F35.0
sg9
F0.25
sg10
F0.0
sg11
F3.5
sg12
F282.5
sg13
F12.5
ssS'Eagles'
p28
(dp29
g6
F0.0
sg7
F0.6666666666666666
sg8
F33.0
sg9
F1.0
sg10
F0.0
sg11
F2.0
sg12
F227.33333333333334
sg13
F14.666666666666666
ssS'Browns'
p30
(dp31
g6
F2.5
sg7
F0.25
sg8
F37.0
sg9
F1.25
sg10
F0.0
sg11
F1.0
sg12
F270.5
sg13
F1.0
ssS'Steelers'
p32
(dp33
g6
F1.25
sg7
F0.0
sg8
F44.5
sg9
F0.75
sg10
F0.0
sg11
F1.25
sg12
F320.75
sg13
F6.75
ssS'Giants'
p34
(dp35
g6
F1.0
sg7
F0.0
sg8
F40.0
sg9
F0.0
sg10
F0.0
sg11
F2.25
sg12
F262.0
sg13
F3.25
ssS'Buccaneers'
p36
(dp37
g6
F2.25
sg7
F0.0
sg8
F32.5
sg9
F0.25
sg10
F0.0
sg11
F2.0
sg12
F269.25
sg13
F1.75
ssS'Cardinals'
p38
(dp39
g6
F1.0
sg7
F0.75
sg8
F35.0
sg9
F1.25
sg10
F0.25
sg11
F4.75
sg12
F223.0
sg13
F27.75
ssS'Bengals'
p40
(dp41
g6
F2.5
sg7
F0.25
sg8
F33.0
sg9
F1.0
sg10
F0.0
sg11
F2.0
sg12
F237.25
sg13
F8.5
ssS'Chiefs'
p42
(dp43
g6
F1.75
sg7
F0.0
sg8
F35.0
sg9
F2.0
sg10
F0.0
sg11
F2.5
sg12
F249.75
sg13
F6.75
ssS'Dolphins'
p44
(dp45
g6
F1.25
sg7
F0.5
sg8
F35.5
sg9
F0.25
sg10
F0.0
sg11
F4.0
sg12
F280.5
sg13
F3.75
ssS'Jaguars'
p46
(dp47
g6
F2.0
sg7
F0.25
sg8
F35.25
sg9
F0.75
sg10
F0.5
sg11
F3.5
sg12
F216.75
sg13
F15.0
ssS'Seahawks'
p48
(dp49
g6
F0.25
sg7
F0.0
sg8
F31.25
sg9
F1.0
sg10
F0.25
sg11
F3.75
sg12
F201.25
sg13
F12.25
ssS'Jets'
p50
(dp51
g6
F2.0
sg7
F0.0
sg8
F31.5
sg9
F0.5
sg10
F0.0
sg11
F3.75
sg12
F304.75
sg13
F6.5
ssS'Ravens'
p52
(dp53
g6
F2.0
sg7
F0.0
sg8
F32.0
sg9
F1.25
sg10
F0.0
sg11
F3.25
sg12
F191.0
sg13
F6.5
ssS'Colts'
p54
(dp55
g6
F1.25
sg7
F0.25
sg8
F36.0
sg9
F0.25
sg10
F0.25
sg11
F2.75
sg12
F284.75
sg13
F12.5
ssS'Packers'
p56
(dp57
g6
F2.0
sg7
F0.0
sg8
F37.0
sg9
F0.6666666666666666
sg10
F0.0
sg11
F1.6666666666666667
sg12
F330.3333333333333
sg13
F3.3333333333333335
ssS'Titans'
p58
(dp59
g6
F1.0
sg7
F0.0
sg8
F36.25
sg9
F1.0
sg10
F0.0
sg11
F1.5
sg12
F249.75
sg13
F13.0
ssS'Rams'
p60
(dp61
g6
F1.25
sg7
F0.5
sg8
F43.75
sg9
F1.0
sg10
F0.0
sg11
F4.5
sg12
F288.5
sg13
F17.5
ssS'Bills'
p62
(dp63
g6
F0.5
sg7
F0.5
sg8
F36.0
sg9
F1.0
sg10
F0.0
sg11
F3.25
sg12
F281.0
sg13
F10.25
ssS'Texans'
p64
(dp65
g6
F0.25
sg7
F0.5
sg8
F28.5
sg9
F0.5
sg10
F0.25
sg11
F4.0
sg12
F176.75
sg13
F20.5
ssS'49ers'
p66
(dp67
g6
F2.0
sg7
F0.25
sg8
F34.75
sg9
F1.0
sg10
F0.0
sg11
F4.25
sg12
F259.0
sg13
F12.75
ssS'Patriots'
p68
(dp69
g6
F1.25
sg7
F0.0
sg8
F40.5
sg9
F0.75
sg10
F0.0
sg11
F3.5
sg12
F275.0
sg13
F19.25
ssS'Cowboys'
p70
(dp71
g6
F1.75
sg7
F0.25
sg8
F36.5
sg9
F0.75
sg10
F0.0
sg11
F4.0
sg12
F271.0
sg13
F12.25
ssS'Panthers'
p72
(dp73
g6
F2.0
sg7
F0.0
sg8
F31.75
sg9
F1.25
sg10
F0.25
sg11
F3.5
sg12
F273.75
sg13
F10.5
ssS'Redskins'
p74
(dp75
g6
F1.25
sg7
F0.0
sg8
F36.25
sg9
F1.0
sg10
F0.25
sg11
F1.0
sg12
F291.25
sg13
F1.5
sssS'WR'
p76
(dp77
g4
(dp78
g7
F0.0
sS'RecTD'
p79
F0.25
sg10
F0.0
sg11
F0.5
sS'RecYds'
p80
F110.75
sS'Rec'
p81
F9.75
sg13
F4.5
ssg14
(dp82
g7
F0.5
sg79
F0.25
sg10
F0.0
sg11
F0.75
sg80
F129.0
sg81
F11.75
sg13
F1.5
ssg16
(dp83
g7
F0.25
sg79
F0.75
sg10
F0.0
sg11
F0.5
sg80
F153.0
sg81
F12.75
sg13
F0.75
ssg18
(dp84
g7
F0.0
sg79
F1.5
sg10
F0.0
sg11
F1.25
sg80
F162.5
sg81
F13.75
sg13
F9.25
ssg20
(dp85
g7
F0.5
sg79
F0.75
sg10
F0.0
sg11
F0.0
sg80
F214.25
sg81
F15.5
sg13
F0.0
ssg22
(dp86
g7
F0.0
sg79
F1.0
sg10
F0.0
sg11
F0.5
sg80
F162.75
sg81
F12.5
sg13
F0.5
ssg24
(dp87
g7
F0.0
sg79
F1.5
sg10
F0.0
sg11
F0.5
sg80
F215.0
sg81
F16.0
sg13
F3.5
ssg26
(dp88
g7
F0.0
sg79
F1.5
sg10
F0.0
sg11
F0.25
sg80
F179.0
sg81
F13.5
sg13
F-0.25
ssg28
(dp89
g7
F0.0
sg79
F0.0
sg10
F0.0
sg11
F0.6666666666666666
sg80
F181.66666666666666
sg81
F12.0
sg13
F2.6666666666666665
ssg30
(dp90
g7
F0.0
sg79
F1.5
sg10
F0.0
sg11
F0.5
sg80
F160.75
sg81
F11.25
sg13
F4.0
ssg32
(dp91
g7
F0.25
sg79
F0.5
sg10
F0.0
sg11
F0.25
sg80
F180.5
sg81
F16.25
sg13
F-0.5
ssg34
(dp92
g7
F0.0
sg79
F0.75
sg10
F0.0
sg11
F0.5
sg80
F181.0
sg81
F15.0
sg13
F0.25
ssg36
(dp93
g7
F0.25
sg79
F2.25
sg10
F0.0
sg11
F0.75
sg80
F181.0
sg81
F12.25
sg13
F6.5
ssg38
(dp94
g7
F0.0
sg79
F1.25
sg10
F0.0
sg11
F1.0
sg80
F174.0
sg81
F13.5
sg13
F2.5
ssg40
(dp95
g7
F0.25
sg79
F1.5
sg10
F0.0
sg11
F0.5
sg80
F167.5
sg81
F11.75
sg13
F1.5
ssg42
(dp96
g7
F0.25
sg79
F1.25
sg10
F0.0
sg11
F0.5
sg80
F186.0
sg81
F13.0
sg13
F-0.75
ssg44
(dp97
g7
F0.25
sg79
F1.0
sg10
F0.25
sg11
F1.25
sg80
F200.0
sg81
F15.5
sg13
F5.5
ssg46
(dp98
g7
F0.0
sg79
F1.75
sg10
F0.0
sg11
F1.75
sg80
F156.25
sg81
F12.75
sg13
F5.0
ssg48
(dp99
g7
F0.0
sg79
F0.25
sg10
F0.0
sg11
F0.5
sg80
F144.0
sg81
F11.75
sg13
F1.5
ssg50
(dp100
g7
F0.0
sg79
F0.75
sg10
F0.0
sg11
F0.75
sg80
F188.75
sg81
F11.75
sg13
F-2.25
ssg52
(dp101
g7
F0.0
sg79
F2.0
sg10
F0.0
sg11
F0.0
sg80
F129.0
sg81
F12.5
sg13
F0.0
ssg54
(dp102
g7
F0.25
sg79
F0.5
sg10
F0.0
sg11
F0.25
sg80
F169.0
sg81
F13.75
sg13
F0.5
ssg56
(dp103
g7
F0.0
sg79
F1.3333333333333333
sg10
F0.0
sg11
F0.6666666666666666
sg80
F227.66666666666666
sg81
F14.0
sg13
F-3.3333333333333335
ssg58
(dp104
g7
F0.0
sg79
F0.75
sg10
F0.0
sg11
F0.75
sg80
F165.5
sg81
F13.75
sg13
F2.25
ssg60
(dp105
g7
F0.0
sg79
F0.5
sg10
F0.0
sg11
F0.25
sg80
F211.75
sg81
F17.25
sg13
F0.25
ssg62
(dp106
g7
F0.25
sg79
F0.5
sg10
F0.0
sg11
F0.5
sg80
F199.0
sg81
F13.5
sg13
F3.0
ssg64
(dp107
g7
F0.0
sg79
F0.25
sg10
F0.0
sg11
F1.0
sg80
F133.25
sg81
F10.0
sg13
F3.25
ssg66
(dp108
g7
F0.25
sg79
F1.5
sg10
F0.0
sg11
F1.25
sg80
F155.5
sg81
F11.75
sg13
F4.5
ssg68
(dp109
g7
F0.25
sg79
F0.75
sg10
F0.0
sg11
F0.25
sg80
F171.0
sg81
F13.5
sg13
F1.0
ssg70
(dp110
g7
F0.25
sg79
F1.0
sg10
F0.0
sg11
F0.0
sg80
F150.5
sg81
F12.25
sg13
F0.0
ssg72
(dp111
g7
F0.0
sg79
F0.75
sg10
F0.0
sg11
F0.0
sg80
F178.75
sg81
F11.5
sg13
F0.0
ssg74
(dp112
g7
F0.0
sg79
F1.25
sg10
F0.0
sg11
F0.25
sg80
F196.0
sg81
F13.75
sg13
F-1.5
sssS'RB'
p113
(dp114
g4
(dp115
g7
F0.25
sg79
F0.25
sg10
F0.75
sg11
F20.25
sg80
F25.0
sg81
F4.5
sg13
F75.5
ssg14
(dp116
g7
F0.25
sg79
F0.5
sg10
F0.25
sg11
F18.5
sg80
F66.5
sg81
F6.25
sg13
F62.5
ssg16
(dp117
g7
F0.0
sg79
F0.0
sg10
F1.0
sg11
F27.0
sg80
F26.5
sg81
F4.25
sg13
F103.5
ssg18
(dp118
g7
F0.0
sg79
F0.5
sg10
F0.5
sg11
F18.25
sg80
F75.0
sg81
F9.5
sg13
F80.0
ssg20
(dp119
g7
F0.5
sg79
F0.0
sg10
F2.0
sg11
F21.25
sg80
F45.75
sg81
F5.5
sg13
F76.5
ssg22
(dp120
g7
F0.0
sg79
F0.5
sg10
F1.5
sg11
F19.25
sg80
F69.5
sg81
F9.0
sg13
F70.25
ssg24
(dp121
g7
F0.0
sg79
F0.25
sg10
F0.75
sg11
F20.25
sg80
F48.75
sg81
F5.5
sg13
F100.75
ssg26
(dp122
g7
F0.0
sg79
F0.0
sg10
F0.0
sg11
F19.5
sg80
F39.25
sg81
F5.25
sg13
F100.75
ssg28
(dp123
g7
F0.3333333333333333
sg79
F0.0
sg10
F0.6666666666666666
sg11
F13.666666666666666
sg80
F31.333333333333332
sg81
F5.0
sg13
F53.666666666666664
ssg30
(dp124
g7
F0.0
sg79
F0.5
sg10
F0.75
sg11
F26.25
sg80
F28.5
sg81
F4.0
sg13
F113.25
ssg32
(dp125
g7
F0.5
sg79
F0.5
sg10
F0.75
sg11
F20.25
sg80
F83.25
sg81
F6.25
sg13
F76.0
ssg34
(dp126
g7
F0.0
sg79
F0.0
sg10
F0.75
sg11
F23.75
sg80
F22.0
sg81
F4.5
sg13
F80.5
ssg36
(dp127
g7
F0.0
sg79
F0.0
sg10
F1.0
sg11
F23.75
sg80
F54.5
sg81
F3.25
sg13
F82.5
ssg38
(dp128
g7
F0.25
sg79
F0.0
sg10
F0.75
sg11
F21.5
sg80
F24.75
sg81
F4.0
sg13
F79.5
ssg40
(dp129
g7
F0.0
sg79
F0.25
sg10
F0.0
sg11
F23.0
sg80
F43.0
sg81
F4.75
sg13
F87.5
ssg42
(dp130
g7
F0.25
sg79
F0.25
sg10
F0.75
sg11
F25.5
sg80
F33.5
sg81
F5.5
sg13
F123.5
ssg44
(dp131
g7
F0.0
sg79
F0.0
sg10
F0.25
sg11
F29.5
sg80
F23.75
sg81
F4.5
sg13
F120.5
ssg46
(dp132
g7
F0.0
sg79
F0.0
sg10
F0.5
sg11
F21.5
sg80
F32.5
sg81
F7.0
sg13
F85.75
ssg48
(dp133
g7
F0.0
sg79
F0.0
sg10
F0.5
sg11
F19.75
sg80
F47.75
sg81
F4.0
sg13
F66.5
ssg50
(dp134
g7
F0.25
sg79
F0.75
sg10
F0.25
sg11
F18.25
sg80
F27.5
sg81
F4.75
sg13
F66.0
ssg52
(dp135
g7
F0.25
sg79
F0.0
sg10
F0.5
sg11
F18.5
sg80
F28.25
sg81
F4.75
sg13
F73.5
ssg54
(dp136
g7
F0.0
sg79
F0.5
sg10
F1.0
sg11
F22.75
sg80
F62.5
sg81
F6.0
sg13
F95.0
ssg56
(dp137
g7
F0.0
sg79
F0.0
sg10
F0.3333333333333333
sg11
F21.333333333333332
sg80
F27.666666666666668
sg81
F5.333333333333333
sg13
F42.666666666666664
ssg58
(dp138
g7
F0.0
sg79
F0.0
sg10
F0.25
sg11
F22.75
sg80
F21.5
sg81
F3.25
sg13
F94.75
ssg60
(dp139
g7
F0.75
sg79
F0.0
sg10
F1.0
sg11
F23.5
sg80
F46.5
sg81
F5.5
sg13
F86.75
ssg62
(dp140
g7
F0.0
sg79
F0.0
sg10
F1.25
sg11
F23.0
sg80
F37.25
sg81
F5.5
sg13
F82.75
ssg64
(dp141
g7
F0.25
sg79
F0.0
sg10
F1.25
sg11
F22.25
sg80
F20.5
sg81
F2.0
sg13
F100.0
ssg66
(dp142
g7
F0.25
sg79
F0.0
sg10
F0.75
sg11
F27.0
sg80
F29.75
sg81
F4.0
sg13
F123.25
ssg68
(dp143
g7
F0.5
sg79
F0.25
sg10
F0.5
sg11
F19.75
sg80
F46.5
sg81
F7.0
sg13
F81.0
ssg70
(dp144
g7
F0.0
sg79
F0.0
sg10
F0.5
sg11
F17.0
sg80
F39.25
sg81
F4.0
sg13
F82.5
ssg72
(dp145
g7
F0.5
sg79
F0.25
sg10
F0.5
sg11
F19.25
sg80
F29.75
sg81
F3.75
sg13
F65.5
ssg74
(dp146
g7
F1.0
sg79
F0.0
sg10
F1.75
sg11
F27.75
sg80
F48.0
sg81
F6.75
sg13
F139.5
sssS'TE'
p147
(dp148
g4
(dp149
g7
F0.0
sg79
F0.0
sg10
F0.0
sg11
F0.0
sg80
F58.25
sg81
F5.0
sg13
F0.0
ssg14
(dp150
g7
F0.0
sg79
F0.0
sg10
F0.0
sg11
F0.0
sg80
F57.0
sg81
F5.0
sg13
F0.0
ssg16
(dp151
g7
F0.0
sg79
F0.25
sg10
F0.0
sg11
F0.0
sg80
F41.0
sg81
F4.25
sg13
F0.0
ssg18
(dp152
g7
F0.0
sg79
F1.25
sg10
F0.0
sg11
F0.0
sg80
F85.0
sg81
F7.5
sg13
F0.0
ssg20
(dp153
g7
F0.0
sg79
F0.25
sg10
F0.0
sg11
F0.0
sg80
F37.0
sg81
F4.0
sg13
F0.0
ssg22
(dp154
g7
F0.0
sg79
F0.25
sg10
F0.0
sg11
F0.0
sg80
F75.25
sg81
F6.5
sg13
F0.0
ssg24
(dp155
g7
F0.0
sg79
F0.25
sg10
F0.0
sg11
F0.0
sg80
F69.5
sg81
F4.75
sg13
F0.0
ssg26
(dp156
g7
F0.0
sg79
F1.5
sg10
F0.0
sg11
F0.0
sg80
F64.25
sg81
F6.0
sg13
F0.0
ssg28
(dp157
g7
F0.0
sg79
F0.0
sg10
F0.0
sg11
F0.0
sg80
F14.333333333333334
sg81
F2.0
sg13
F0.0
ssg30
(dp158
g7
F0.0
sg79
F0.5
sg10
F0.0
sg11
F0.0
sg80
F81.25
sg81
F8.0
sg13
F0.0
ssg32
(dp159
g7
F0.0
sg79
F0.25
sg10
F0.0
sg11
F0.0
sg80
F60.75
sg81
F6.25
sg13
F0.0
ssg34
(dp160
g7
F0.0
sg79
F0.25
sg10
F0.0
sg11
F0.0
sg80
F59.0
sg81
F5.75
sg13
F0.0
ssg36
(dp161
g7
F0.0
sg79
F0.0
sg10
F0.0
sg11
F0.0
sg80
F28.75
sg81
F3.0
sg13
F0.0
ssg38
(dp162
g7
F0.0
sg79
F0.0
sg10
F0.0
sg11
F0.0
sg80
F31.0
sg81
F3.5
sg13
F0.0
ssg40
(dp163
g7
F0.0
sg79
F0.75
sg10
F0.0
sg11
F0.0
sg80
F26.75
sg81
F2.5
sg13
F0.0
ssg42
(dp164
g7
F0.0
sg79
F0.25
sg10
F0.0
sg11
F0.0
sg80
F30.25
sg81
F3.0
sg13
F0.0
ssg44
(dp165
g7
F0.0
sg79
F0.25
sg10
F0.0
sg11
F0.0
sg80
F65.5
sg81
F4.25
sg13
F0.0
ssg46
(dp166
g7
F0.0
sg79
F0.25
sg10
F0.0
sg11
F0.0
sg80
F28.0
sg81
F3.5
sg13
F0.0
ssg48
(dp167
g7
F0.0
sg79
F0.0
sg10
F0.0
sg11
F0.0
sg80
F30.5
sg81
F3.0
sg13
F0.0
ssg50
(dp168
g7
F0.0
sg79
F0.25
sg10
F0.0
sg11
F0.0
sg80
F78.0
sg81
F5.75
sg13
F0.0
ssg52
(dp169
g7
F0.0
sg79
F0.0
sg10
F0.0
sg11
F0.0
sg80
F33.75
sg81
F3.75
sg13
F0.0
ssg54
(dp170
g7
F0.25
sg79
F0.25
sg10
F0.0
sg11
F0.0
sg80
F51.0
sg81
F4.25
sg13
F0.0
ssg56
(dp171
g7
F0.0
sg79
F0.6666666666666666
sg10
F0.0
sg11
F0.0
sg80
F75.0
sg81
F5.333333333333333
sg13
F0.0
ssg58
(dp172
g7
F0.0
sg79
F0.25
sg10
F0.0
sg11
F0.0
sg80
F62.75
sg81
F4.5
sg13
F0.0
ssg60
(dp173
g7
F0.0
sg79
F0.75
sg10
F0.0
sg11
F0.0
sg80
F34.25
sg81
F3.75
sg13
F0.0
ssg62
(dp174
g7
F0.0
sg79
F0.0
sg10
F0.0
sg11
F0.0
sg80
F48.5
sg81
F3.5
sg13
F0.0
ssg64
(dp175
g7
F0.0
sg79
F0.0
sg10
F0.0
sg11
F0.25
sg80
F23.0
sg81
F3.0
sg13
F1.5
ssg66
(dp176
g7
F0.25
sg79
F0.5
sg10
F0.0
sg11
F0.0
sg80
F73.75
sg81
F5.75
sg13
F0.0
ssg68
(dp177
g7
F0.0
sg79
F0.25
sg10
F0.0
sg11
F0.0
sg80
F57.5
sg81
F6.25
sg13
F0.0
ssg70
(dp178
g7
F0.0
sg79
F0.75
sg10
F0.0
sg11
F0.0
sg80
F81.25
sg81
F7.0
sg13
F0.0
ssg72
(dp179
g7
F0.0
sg79
F1.0
sg10
F0.0
sg11
F0.0
sg80
F63.5
sg81
F4.5
sg13
F0.0
ssg74
(dp180
g7
F0.0
sg79
F0.0
sg10
F0.0
sg11
F0.0
sg80
F48.25
sg81
F5.75
sg13
F0.0
ssss.