(dp0
S'DST'
p1
(dp2
S'Broncos'
p3
(lp4
I3500
aS'Broncos'
p5
ag5
asS'Vikings'
p6
(lp7
I3100
aS'Vikings'
p8
ag8
asS'Bears'
p9
(lp10
I2700
aS'Bears'
p11
ag11
asS'Falcons'
p12
(lp13
I2000
aS'Falcons'
p14
ag14
asS'Saints'
p15
(lp16
I2200
ag14
aS'Saints'
p17
asS'Chargers'
p18
(lp19
I2300
aS'Chargers'
p20
ag20
asS'Raiders'
p21
(lp22
I2600
aS'Raiders'
p23
ag23
asS'Lions'
p24
(lp25
I2400
aS'Lions'
p26
ag26
asS'Browns'
p27
(lp28
I2300
aS'Browns'
p29
ag29
asS'Eagles'
p30
(lp31
I2800
aS'Steelers'
p32
aS'Eagles'
p33
asS'Steelers'
p34
(lp35
I2900
ag32
ag32
asS'Giants'
p36
(lp37
I3300
aS'Redskins'
p38
aS'Giants'
p39
asS'Buccaneers'
p40
(lp41
I3100
aS'Rams'
p42
aS'Buccaneers'
p43
asS'Cardinals'
p44
(lp45
I3600
aS'Cardinals'
p46
ag46
asS'Bengals'
p47
(lp48
I2800
ag5
aS'Bengals'
p49
asS'Chiefs'
p50
(lp51
I3200
aS'Jets'
p52
aS'Chiefs'
p53
asS'Dolphins'
p54
(lp55
I3000
ag29
aS'Dolphins'
p56
asS'Jaguars'
p57
(lp58
I2600
aS'Ravens'
p59
aS'Jaguars'
p60
asS'Seahawks'
p61
(lp62
I4100
aS'49ers'
p63
aS'Seahawks'
p64
asS'Jets'
p65
(lp66
I2900
ag52
ag52
asS'Ravens'
p67
(lp68
I2500
ag59
ag59
asS'Colts'
p69
(lp70
I2400
ag20
aS'Colts'
p71
asS'Packers'
p72
(lp73
I3000
ag26
aS'Packers'
p74
asS'Titans'
p75
(lp76
I2500
ag23
aS'Titans'
p77
asS'Rams'
p78
(lp79
I3000
ag42
ag42
asS'Bills'
p80
(lp81
I2700
ag46
aS'Bills'
p82
asS'Texans'
p83
(lp84
I3000
aS'Texans'
p85
ag85
asS'49ers'
p86
(lp87
I2400
ag63
ag63
asS'Patriots'
p88
(lp89
I3200
ag85
aS'Patriots'
p90
asS'Cowboys'
p91
(lp92
I2500
ag11
aS'Cowboys'
p93
asS'Panthers'
p94
(lp95
I3800
ag8
aS'Panthers'
p96
asS'Redskins'
p97
(lp98
I2400
ag38
ag38
assS'QB'
p99
(dp100
S'Ryan Tannehill'
p101
(lp102
I6200
ag29
ag56
asS'Carson Wentz'
p103
(lp104
I5500
ag32
ag33
asS'Tom Savage'
p105
(lp106
I5000
ag85
ag85
asS'Landry Jones'
p107
(lp108
I5000
ag32
ag32
asS'Colt McCoy'
p109
(lp110
I5000
ag38
ag38
asS'Cam Newton'
p111
(lp112
I7800
ag8
ag96
asS'Josh McCown'
p113
(lp114
I5600
ag29
ag29
asS'Chase Daniel'
p115
(lp116
I5000
ag32
ag33
asS'Mark Sanchez'
p117
(lp118
I5000
ag11
ag93
asS'Jared Goff'
p119
(lp120
I5000
ag42
ag42
asS'Mike Glennon'
p121
(lp122
I5000
ag42
ag43
asS'Colin Kaepernick'
p123
(lp124
I5000
ag63
ag63
asS'Blake Bortles'
p125
(lp126
I6500
ag59
ag60
asS'Connor Cook'
p127
(lp128
I5000
ag23
ag23
asS'Brett Hundley'
p129
(lp130
I5000
ag26
ag74
asS'Ryan Mallett'
p131
(lp132
I5000
ag59
ag59
asS'Christian Hackenberg'
p133
(lp134
I5000
ag52
ag52
asS'Philip Rivers'
p135
(lp136
I6700
ag20
ag20
asS'Jimmy Garoppolo'
p137
(lp138
I5600
ag85
ag90
asS'Alex Smith'
p139
(lp140
I5800
ag52
ag53
asS'Chad Henne'
p141
(lp142
I5000
ag59
ag60
asS'Dan Orlovsky'
p143
(lp144
I5000
ag26
ag26
asS'Matt Schaub'
p145
(lp146
I5000
ag14
ag14
asS'Joe Callahan'
p147
(lp148
I5000
ag26
ag74
asS'Jeff Driskel'
p149
(lp150
I5000
ag5
ag49
asS'AJ McCarron'
p151
(lp152
I5000
ag5
ag49
asS'Tyrod Taylor'
p153
(lp154
I5800
ag46
ag82
asS'Matt Ryan'
p155
(lp156
I7400
ag14
ag14
asS'Matt Moore'
p157
(lp158
I5000
ag29
ag56
asS'Kirk Cousins'
p159
(lp160
I6400
ag38
ag38
asS'Nick Foles'
p161
(lp162
I5000
ag52
ag53
asS'Nate Sudfeld'
p163
(lp164
I5000
ag38
ag38
asS'Jameis Winston'
p165
(lp166
I6000
ag42
ag43
asS'Brandon Allen'
p167
(lp168
I5000
ag59
ag60
asS'Ben Roethlisberger'
p169
(lp170
I7300
ag32
ag32
asS'Matt McGloin'
p171
(lp172
I5000
ag23
ag23
asS'Russell Wilson'
p173
(lp174
I7100
ag63
ag64
asS'Joe Webb'
p175
(lp176
I5000
ag8
ag96
asS'Shaun Hill'
p177
(lp178
I5000
ag8
ag8
asS'Matthew Stafford'
p179
(lp180
I6800
ag26
ag26
asS'Andrew Luck'
p181
(lp182
I7600
ag20
ag71
asS'Tyler Bray'
p183
(lp184
I5000
ag52
ag53
asS'Josh Johnson'
p185
(lp186
I5000
ag38
ag39
asS'Brandon Weeden'
p187
(lp188
I5000
ag85
ag85
asS'Trevone Boykin'
p189
(lp190
I5000
ag63
ag64
asS'Jay Cutler'
p191
(lp192
I5600
ag11
ag11
asS'Dak Prescott'
p193
(lp194
I5700
ag11
ag93
asS'Brock Osweiler'
p195
(lp196
I6000
ag85
ag85
asS'Paxton Lynch'
p197
(lp198
I5000
ag5
ag5
asS'Case Keenum'
p199
(lp200
I5000
ag42
ag42
asS'Trevor Siemian'
p201
(lp202
I5100
ag5
ag5
asS'Geno Smith'
p203
(lp204
I5000
ag52
ag52
asS'Brian Hoyer'
p205
(lp206
I5000
ag11
ag11
asS'Marcus Mariota'
p207
(lp208
I5900
ag23
ag77
asS'Sean Mannion'
p209
(lp210
I5000
ag42
ag42
asS'Jacoby Brissett'
p211
(lp212
I5000
ag85
ag90
asS'Carson Palmer'
p213
(lp214
I7200
ag46
ag46
asS'Sam Bradford'
p215
(lp216
I5300
ag8
ag8
asS'Derek Anderson'
p217
(lp218
I5000
ag8
ag96
asS'Christian Ponder'
p219
(lp220
I5000
ag63
ag63
asS'EJ Manuel'
p221
(lp222
I5000
ag46
ag82
asS'Eli Manning'
p223
(lp224
I7000
ag38
ag39
asS'Blaine Gabbert'
p225
(lp226
I5000
ag63
ag63
asS'Andy Dalton'
p227
(lp228
I5700
ag5
ag49
asS'Tony Romo'
p229
(lp230
I6000
ag11
ag93
asS'Matt Cassel'
p231
(lp232
I5000
ag23
ag77
asS'Austin Davis'
p233
(lp234
I5000
ag5
ag5
asS'Derek Carr'
p235
(lp236
I6900
ag23
ag23
asS'Ryan Griffin'
p237
(lp238
I5000
ag42
ag43
asS'Ryan Fitzpatrick'
p239
(lp240
I5900
ag52
ag52
asS'Kellen Clemens'
p241
(lp242
I5000
ag20
ag20
asS'Aaron Rodgers'
p243
(lp244
I7700
ag26
ag74
asS'Joe Flacco'
p245
(lp246
I6100
ag59
ag59
asS'Drew Stanton'
p247
(lp248
I5000
ag46
ag46
asS'Zach Mettenberger'
p249
(lp250
I5000
ag32
ag32
asS'Drew Brees'
p251
(lp252
I7900
ag14
ag17
asS'Cardale Jones'
p253
(lp254
I5000
ag46
ag82
asS'Bryce Petty'
p255
(lp256
I5000
ag52
ag52
asS'Luke McCown'
p257
(lp258
I5000
ag14
ag17
asS'Scott Tolzien'
p259
(lp260
I5000
ag20
ag71
asS'Cody Kessler'
p261
(lp262
I5000
ag29
ag29
asS'Ryan Nassib'
p263
(lp264
I5000
ag38
ag39
assS'WR'
p265
(dp266
S'Tyler Lockett'
p267
(lp268
I4200
ag63
ag64
asS'Chester Rogers'
p269
(lp270
I3000
ag20
ag71
asS'Deonte Thompson'
p271
(lp272
I3000
ag11
ag11
asS'Andre Holmes'
p273
(lp274
I3000
ag23
ag23
asS'Jalin Marshall'
p275
(lp276
I3000
ag52
ag52
asS'Dwayne Harris'
p277
(lp278
I3000
ag38
ag39
asS'Lucky Whitehead'
p279
(lp280
I3000
ag11
ag93
asS'Golden Tate'
p281
(lp282
I5900
ag26
ag26
asS'Ty Montgomery'
p283
(lp284
I3000
ag26
ag74
asS'Braxton Miller'
p285
(lp286
I3000
ag85
ag85
asS'Tajae Sharpe'
p287
(lp288
I4700
ag23
ag77
asS'Bryan Walters'
p289
(lp290
I3000
ag59
ag60
asS'Josh Huff'
p291
(lp292
I3000
ag32
ag33
asS'Anquan Boldin'
p293
(lp294
I4200
ag26
ag26
asS'Kenny Stills'
p295
(lp296
I3600
ag29
ag56
asS'Dorial Green-Beckham'
p297
(lp298
I3200
ag32
ag33
asS'Brandon Coleman'
p299
(lp300
I3000
ag14
ag17
asS'Kendall Wright'
p301
(lp302
I3000
ag23
ag77
asS'DeSean Jackson'
p303
(lp304
I5900
ag38
ag38
asS'Jamison Crowder'
p305
(lp306
I3800
ag38
ag38
asS'Tavon Austin'
p307
(lp308
I4100
ag42
ag42
asS'Markus Wheaton'
p309
(lp310
I4600
ag32
ag32
asS'Amari Cooper'
p311
(lp312
I7700
ag23
ag23
asS'Josh Doctson'
p313
(lp314
I3000
ag38
ag38
asS'Justin Hardy'
p315
(lp316
I3000
ag14
ag14
asS'Albert Wilson'
p317
(lp318
I3000
ag52
ag53
asS'Sterling Shepard'
p319
(lp320
I5500
ag38
ag39
asS'Doug Baldwin'
p321
(lp322
I6300
ag63
ag64
asS'Justin Hunter'
p323
(lp324
I3000
ag29
ag56
asS'Jarvis Landry'
p325
(lp326
I6600
ag29
ag56
asS'Danny Amendola'
p327
(lp328
I3700
ag85
ag90
asS'Travis Benjamin'
p329
(lp330
I5200
ag20
ag20
asS'Allen Robinson'
p331
(lp332
I7500
ag59
ag60
asS'Mohamed Sanu'
p333
(lp334
I5700
ag14
ag14
asS'Harry Douglas'
p335
(lp336
I3000
ag23
ag77
asS'Quan Bray'
p337
(lp338
I3000
ag20
ag71
asS'Mike Thomas'
p339
(lp340
I3000
ag42
ag42
asS'Jeremy Maclin'
p341
(lp342
I6000
ag52
ag53
asS'Adam Humphries'
p343
(lp344
I3000
ag42
ag43
asS'Bradley Marquez'
p345
(lp346
I3000
ag42
ag42
asS'Chris Moore'
p347
(lp348
I3000
ag59
ag59
asS'Laquon Treadwell'
p349
(lp350
I3100
ag8
ag8
asS'Cody Latimer'
p351
(lp352
I3000
ag5
ag5
asS'Brandon Tate'
p353
(lp354
I3000
ag46
ag82
asS'Eric Weems'
p355
(lp356
I3000
ag14
ag14
asS'Charone Peake'
p357
(lp358
I3000
ag52
ag52
asS'Kevin White'
p359
(lp360
I4000
ag11
ag11
asS'Marquise Goodwin'
p361
(lp362
I3000
ag46
ag82
asS'Julian Edelman'
p363
(lp364
I6400
ag85
ag90
asS'Tanner McEvoy'
p365
(lp366
I3000
ag63
ag64
asS'Ted Ginn'
p367
(lp368
I3700
ag8
ag96
asS'Malcolm Mitchell'
p369
(lp370
I3000
ag85
ag90
asS'Andre Roberts'
p371
(lp372
I3000
ag26
ag26
asS'Brice Butler'
p373
(lp374
I3000
ag11
ag93
asS'Breshad Perriman'
p375
(lp376
I3000
ag59
ag59
asS'Jermaine Kearse'
p377
(lp378
I3400
ag63
ag64
asS'Allen Hurns'
p379
(lp380
I5200
ag59
ag60
asS'Phillip Dorsett'
p381
(lp382
I4400
ag20
ag71
asS'Sammy Watkins'
p383
(lp384
I6100
ag46
ag82
asS'Jakeem Grant'
p385
(lp386
I3000
ag29
ag56
asS'Matthew Slater'
p387
(lp388
I3000
ag85
ag90
asS'Demaryius Thomas'
p389
(lp390
I6400
ag5
ag5
asS'Davante Adams'
p391
(lp392
I4100
ag26
ag74
asS'Tyreek Hill'
p393
(lp394
I3000
ag52
ag53
asS'Will Fuller'
p395
(lp396
I4800
ag85
ag85
asS'Rishard Matthews'
p397
(lp398
I3300
ag23
ag77
asS'Marqise Lee'
p399
(lp400
I3000
ag59
ag60
asS'Jaron Brown'
p401
(lp402
I3300
ag46
ag46
asS'Devin Funchess'
p403
(lp404
I4100
ag8
ag96
asS'Tommylee Lewis'
p405
(lp406
I3000
ag14
ag17
asS'Brandin Cooks'
p407
(lp408
I7900
ag14
ag17
asS'Ryan Grant'
p409
(lp410
I3000
ag38
ag38
asS'Damiere Byrd'
p411
(lp412
I3000
ag8
ag96
asS'J.J. Nelson'
p413
(lp414
I3000
ag46
ag46
asS"De'Anthony Thomas"
p415
(lp416
I3000
ag52
ag53
asS'Terrelle Pryor'
p417
(lp418
I3400
ag29
ag29
asS'Antonio Brown'
p419
(lp420
I9600
ag32
ag32
asS'Bryce Treggs'
p421
(lp422
I3000
ag32
ag33
asS'Michael Thomas'
p423
(lp424
I4200
ag14
ag17
asS'Andrew Hawkins'
p425
(lp426
I3000
ag29
ag29
asS'Jordan Norwood'
p427
(lp428
I3000
ag5
ag5
asS'Rashad Ross'
p429
(lp430
I3000
ag38
ag38
asS'James Wright'
p431
(lp432
I3000
ag5
ag49
asS'Sammie Coates'
p433
(lp434
I3800
ag32
ag32
asS'Charles Johnson'
p435
(lp436
I3000
ag8
ag8
asS'Michael Crabtree'
p437
(lp438
I6000
ag23
ag23
asS'Terrance Williams'
p439
(lp440
I3300
ag11
ag93
asS'Eric Decker'
p441
(lp442
I6900
ag52
ag52
asS'Arrelious Benn'
p443
(lp444
I3000
ag59
ag60
asS'Aldrick Robinson'
p445
(lp446
I3000
ag14
ag14
asS'Keith Mumphery'
p447
(lp448
I3000
ag85
ag85
asS'Chris Conley'
p449
(lp450
I3100
ag52
ag53
asS'Jaelen Strong'
p451
(lp452
I3300
ag85
ag85
asS'Rashad Greene'
p453
(lp454
I3000
ag59
ag60
asS'Jarius Wright'
p455
(lp456
I3000
ag8
ag8
asS'Seth Roberts'
p457
(lp458
I3500
ag23
ag23
asS'Brandon LaFell'
p459
(lp460
I3400
ag5
ag49
asS'Pharoh Cooper'
p461
(lp462
I3000
ag42
ag42
asS'Cameron Meredith'
p463
(lp464
I3000
ag11
ag11
asS'Rod Streater'
p465
(lp466
I3000
ag63
ag63
asS'A.J. Green'
p467
(lp468
I8100
ag5
ag49
asS'Bennie Fowler'
p469
(lp470
I3000
ag5
ag5
asS'Robert Woods'
p471
(lp472
I3200
ag46
ag82
asS'Vincent Jackson'
p473
(lp474
I3900
ag42
ag43
asS'Alex Erickson'
p475
(lp476
I3000
ag5
ag49
asS'Julio Jones'
p477
(lp478
I9500
ag14
ag14
asS'Kelvin Benjamin'
p479
(lp480
I7200
ag8
ag96
asS'Cole Beasley'
p481
(lp482
I3200
ag11
ag93
asS'Cody Core'
p483
(lp484
I3000
ag5
ag49
asS'Corey Coleman'
p485
(lp486
I5300
ag29
ag29
asS'Cecil Shorts'
p487
(lp488
I3000
ag42
ag43
asS'Mike Evans'
p489
(lp490
I7000
ag42
ag43
asS'Russell Shepard'
p491
(lp492
I3000
ag42
ag43
asS'Eddie Royal'
p493
(lp494
I3500
ag11
ag11
asS'Jared Abbrederis'
p495
(lp496
I3000
ag26
ag74
asS'Willie Snead'
p497
(lp498
I6500
ag14
ag17
asS'Trevor Davis'
p499
(lp500
I3000
ag26
ag74
asS'Jeff Janis'
p501
(lp502
I3200
ag26
ag74
asS'Nelson Spruce'
p503
(lp504
I3000
ag42
ag42
asS'DeVante Parker'
p505
(lp506
I4900
ag29
ag56
asS'Adam Thielen'
p507
(lp508
I3200
ag8
ag8
asS'DeAndre Hopkins'
p509
(lp510
I8600
ag85
ag85
asS'Demarcus Robinson'
p511
(lp512
I3000
ag52
ag53
asS'Victor Cruz'
p513
(lp514
I4700
ag38
ag39
asS'Jordan Taylor'
p515
(lp516
I3000
ag5
ag5
asS'Jeremy Kerley'
p517
(lp518
I3400
ag63
ag63
asS'Greg Salas'
p519
(lp520
I3000
ag46
ag82
asS'Emmanuel Sanders'
p521
(lp522
I6000
ag5
ag5
asS'Kenny Britt'
p523
(lp524
I3900
ag42
ag42
asS'Odell Beckham'
p525
(lp526
I9100
ag38
ag39
asS'Cordarrelle Patterson'
p527
(lp528
I3000
ag8
ag8
asS'Paul Richardson'
p529
(lp530
I3000
ag63
ag64
asS'Tavarres King'
p531
(lp532
I3000
ag38
ag39
asS'Dontrelle Inman'
p533
(lp534
I3600
ag20
ag20
asS'Randall Cobb'
p535
(lp536
I7300
ag26
ag74
asS'Brian Quick'
p537
(lp538
I3000
ag42
ag42
asS'Steve Smith'
p539
(lp540
I4100
ag59
ag59
asS'Johnny Holton'
p541
(lp542
I3000
ag23
ag23
asS'T.Y. Hilton'
p543
(lp544
I6800
ag20
ag71
asS'John Brown'
p545
(lp546
I4800
ag46
ag46
asS'Jordan Payton'
p547
(lp548
I3000
ag29
ag29
asS'Jordy Nelson'
p549
(lp550
I7400
ag26
ag74
asS'Quincy Enunwa'
p551
(lp552
I4800
ag52
ag52
asS'Joshua Bellamy'
p553
(lp554
I3000
ag11
ag11
asS'Jordan Matthews'
p555
(lp556
I7100
ag32
ag33
asS'Taylor Gabriel'
p557
(lp558
I3000
ag14
ag14
asS'Marc Mariani'
p559
(lp560
I3000
ag23
ag77
asS'Mike Wallace'
p561
(lp562
I5000
ag59
ag59
asS'Torrey Smith'
p563
(lp564
I4300
ag63
ag63
asS'Corey Brown'
p565
(lp566
I3000
ag8
ag96
asS'Roger Lewis'
p567
(lp568
I3000
ag38
ag39
asS'Nelson Agholor'
p569
(lp570
I3500
ag32
ag33
asS'Michael Floyd'
p571
(lp572
I5800
ag46
ag46
asS'Quinton Patton'
p573
(lp574
I3100
ag63
ag63
asS'Walt Powell'
p575
(lp576
I3000
ag46
ag82
asS'Tyler Boyd'
p577
(lp578
I3500
ag5
ag49
asS'Rashard Higgins'
p579
(lp580
I3000
ag29
ag29
asS'Leonte Carroo'
p581
(lp582
I3000
ag29
ag56
asS'Andre Johnson'
p583
(lp584
I3400
ag23
ag77
asS'Alshon Jeffery'
p585
(lp586
I8000
ag11
ag11
asS'Brandon Marshall'
p587
(lp588
I7300
ag52
ag52
asS'Kamar Aiken'
p589
(lp590
I3100
ag59
ag59
asS'Robby Anderson'
p591
(lp592
I3000
ag52
ag52
asS'Stefon Diggs'
p593
(lp594
I5100
ag8
ag8
asS'Larry Fitzgerald'
p595
(lp596
I6900
ag46
ag46
asS'Devin Hester'
p597
(lp598
I3000
ag59
ag59
asS'Isaiah Burse'
p599
(lp600
I3000
ag20
ag20
asS'Brenton Bersin'
p601
(lp602
I3000
ag8
ag96
asS'Ricardo Louis'
p603
(lp604
I3000
ag29
ag29
asS'Marvin Jones'
p605
(lp606
I6200
ag26
ag26
asS'Pierre Garcon'
p607
(lp608
I3900
ag38
ag38
asS'Chris Hogan'
p609
(lp610
I3900
ag85
ag90
asS'Donte Moncrief'
p611
(lp612
I6700
ag20
ag71
asS'Darrius Heyward-Bey'
p613
(lp614
I3200
ag32
ag32
asS'Dez Bryant'
p615
(lp616
I8400
ag11
ag93
asS'Tyrell Williams'
p617
(lp618
I4300
ag20
ag20
asS'Aaron Burbridge'
p619
(lp620
I3000
ag63
ag63
asS'Eli Rogers'
p621
(lp622
I3900
ag32
ag32
assS'RB'
p623
(dp624
S'Will Tukuafu'
p625
(lp626
I3000
ag63
ag64
asS'Taiwan Jones'
p627
(lp628
I3000
ag23
ag23
asS'Frank Gore'
p629
(lp630
I5000
ag20
ag71
asS'Jay Ajayi'
p631
(lp632
I4000
ag29
ag56
asS'Rashad Jennings'
p633
(lp634
I5100
ag38
ag39
asS'Jerick McKinnon'
p635
(lp636
I3800
ag8
ag8
asS'Terrance West'
p637
(lp638
I3500
ag59
ag59
asS'Jalston Fowler'
p639
(lp640
I3000
ag23
ag77
asS'Bilal Powell'
p641
(lp642
I3400
ag52
ag52
asS'D.J. Foster'
p643
(lp644
I3000
ag85
ag90
asS'Fozzy Whittaker'
p645
(lp646
I3800
ag8
ag96
asS'Terron Ward'
p647
(lp648
I3000
ag14
ag14
asS'Kenneth Dixon'
p649
(lp650
I3000
ag59
ag59
asS'Tyler Ervin'
p651
(lp652
I3000
ag85
ag85
asS'Alex Collins'
p653
(lp654
I3000
ag63
ag64
asS'Theo Riddick'
p655
(lp656
I4900
ag26
ag26
asS'Corey Grant'
p657
(lp658
I3000
ag59
ag60
asS'Malcolm Brown'
p659
(lp660
I3000
ag42
ag42
asS'Darren Sproles'
p661
(lp662
I3700
ag32
ag33
asS'Christine Michael'
p663
(lp664
I5000
ag63
ag64
asS'Charles Sims'
p665
(lp666
I4900
ag42
ag43
asS'Jeremy Hill'
p667
(lp668
I3700
ag5
ag49
asS'Ezekiel Elliott'
p669
(lp670
I6900
ag11
ag93
asS'Tevin Coleman'
p671
(lp672
I4500
ag14
ag14
asS'Shaun Draughn'
p673
(lp674
I3400
ag63
ag63
asS'Mike Tolbert'
p675
(lp676
I3000
ag8
ag96
asS'Jonathan Grimes'
p677
(lp678
I3000
ag85
ag85
asS'Paul Perkins'
p679
(lp680
I3000
ag38
ag39
asS'Roosevelt Nix'
p681
(lp682
I3000
ag32
ag32
asS'Reggie Bush'
p683
(lp684
I3200
ag46
ag82
asS'Devontae Booker'
p685
(lp686
I3000
ag5
ag5
asS'Jamaal Charles'
p687
(lp688
I5600
ag52
ag53
asS'C.J. Anderson'
p689
(lp690
I7300
ag5
ag5
asS'Denard Robinson'
p691
(lp692
I3000
ag59
ag60
asS'Julian Howsare'
p693
(lp694
I3000
ag52
ag52
asS'Danny Woodhead'
p695
(lp696
I5400
ag20
ag20
asS'Derrick Henry'
p697
(lp698
I3700
ag23
ag77
asS'Ameer Abdullah'
p699
(lp700
I4600
ag26
ag26
asS'Fitzgerald Toussaint'
p701
(lp702
I3000
ag32
ag32
asS'Michael Burton'
p703
(lp704
I3000
ag26
ag26
asS'Bobby Rainey'
p705
(lp706
I3000
ag38
ag39
asS'Melvin Gordon'
p707
(lp708
I5800
ag20
ag20
asS'George Atkinson'
p709
(lp710
I3000
ag29
ag29
asS'Kenneth Farrow'
p711
(lp712
I3000
ag20
ag20
asS'DeAngelo Williams'
p713
(lp714
I7500
ag32
ag32
asS'James Starks'
p715
(lp716
I4000
ag26
ag74
asS'Zach Zenner'
p717
(lp718
I3000
ag26
ag26
asS'Kapri Bibbs'
p719
(lp720
I3000
ag5
ag5
asS'Chris Johnson'
p721
(lp722
I3500
ag46
ag46
asS'LeGarrette Blount'
p723
(lp724
I4400
ag85
ag90
asS'Rob Kelley'
p725
(lp726
I3000
ag38
ag38
asS'Lance Dunbar'
p727
(lp728
I3000
ag11
ag93
asS'Andy Janovich'
p729
(lp730
I3000
ag5
ag5
asS'Wendell Smallwood'
p731
(lp732
I3000
ag32
ag33
asS'Antonio Andrews'
p733
(lp734
I3000
ag23
ag77
asS'Keith Smith'
p735
(lp736
I3000
ag11
ag93
asS'Chris Ivory'
p737
(lp738
I3900
ag59
ag60
asS'DeMarco Murray'
p739
(lp740
I6300
ag23
ag77
asS'Eddie Lacy'
p741
(lp742
I6100
ag26
ag74
asS'Isaiah Crowell'
p743
(lp744
I4700
ag29
ag29
asS'John Kuhn'
p745
(lp746
I3000
ag14
ag17
asS'Darius Jackson'
p747
(lp748
I3000
ag11
ag93
asS'Todd Gurley'
p749
(lp750
I7100
ag42
ag42
asS'Daniel Lasco'
p751
(lp752
I3000
ag14
ag17
asS'Duke Johnson'
p753
(lp754
I4200
ag29
ag29
asS'Adrian Peterson'
p755
(lp756
I6700
ag8
ag8
asS'Giovani Bernard'
p757
(lp758
I4300
ag5
ag49
asS'James White'
p759
(lp760
I4200
ag85
ag90
asS'T.J. Yeldon'
p761
(lp762
I5600
ag59
ag60
asS'Andre Ellington'
p763
(lp764
I3600
ag46
ag46
asS'Alfred Morris'
p765
(lp766
I3700
ag11
ag93
asS'Mark Ingram'
p767
(lp768
I5900
ag14
ag17
asS'Chase Reynolds'
p769
(lp770
I3000
ag42
ag42
asS'Rod Smith'
p771
(lp772
I3000
ag11
ag93
asS'Benny Cunningham'
p773
(lp774
I3400
ag42
ag42
asS'Kenyan Drake'
p775
(lp776
I3600
ag29
ag56
asS'Derek Watt'
p777
(lp778
I3000
ag20
ag20
asS'Isaiah Pead'
p779
(lp780
I3000
ag29
ag56
asS'Doug Martin'
p781
(lp782
I5700
ag42
ag43
asS'David Johnson'
p783
(lp784
I7700
ag46
ag46
asS'Rex Burkhead'
p785
(lp786
I3000
ag5
ag49
asS'Ryan Mathews'
p787
(lp788
I5800
ag32
ag33
asS'Jonathan Stewart'
p789
(lp790
I4800
ag8
ag96
asS'Damien Williams'
p791
(lp792
I3000
ag29
ag56
asS'Tim Hightower'
p793
(lp794
I3300
ag14
ag17
asS'Brandon Bolden'
p795
(lp796
I3000
ag85
ag90
asS'Jeremy Langford'
p797
(lp798
I5200
ag11
ag11
asS'Daryl Richardson'
p799
(lp800
I3000
ag32
ag32
asS'Knile Davis'
p801
(lp802
I3000
ag52
ag53
asS'Anthony Sherman'
p803
(lp804
I3000
ag52
ag53
asS'Troymaine Pope'
p805
(lp806
I3000
ag52
ag52
asS'Patrick DiMarco'
p807
(lp808
I3000
ag14
ag14
asS'Peyton Barber'
p809
(lp810
I3000
ag42
ag43
asS'Stepfan Taylor'
p811
(lp812
I3000
ag46
ag46
asS'Aaron Ripkowski'
p813
(lp814
I3000
ag26
ag74
asS'Carlos Hyde'
p815
(lp816
I4400
ag63
ag63
asS'Orleans Darkwa'
p817
(lp818
I3000
ag38
ag39
asS'Kenjon Barner'
p819
(lp820
I3000
ag32
ag33
asS'Arian Foster'
p821
(lp822
I5500
ag29
ag56
asS'Jordan Todman'
p823
(lp824
I3000
ag20
ag71
asS'Latavius Murray'
p825
(lp826
I5700
ag23
ag23
asS'Cameron Artis-Payne'
p827
(lp828
I3000
ag8
ag96
asS'DuJuan Harris'
p829
(lp830
I3000
ag63
ag63
asS'Shane Vereen'
p831
(lp832
I3700
ag38
ag39
asS'C.J. Prosise'
p833
(lp834
I3300
ag63
ag64
asS'Josh Ferguson'
p835
(lp836
I3000
ag20
ag71
asS'Spencer Ware'
p837
(lp838
I5700
ag52
ag53
asS'Javorius Allen'
p839
(lp840
I3000
ag59
ag59
asS'Justin Forsett'
p841
(lp842
I3900
ag59
ag59
asS'Paul Lasike'
p843
(lp844
I3000
ag11
ag11
asS'Chris Thompson'
p845
(lp846
I3400
ag38
ag38
asS'Jacquizz Rodgers'
p847
(lp848
I3000
ag42
ag43
asS'Charcandrick West'
p849
(lp850
I3500
ag52
ag53
asS'Mike Davis'
p851
(lp852
I3000
ag63
ag63
asS'Kyle Juszczyk'
p853
(lp854
I3000
ag59
ag59
asS'Jordan Howard'
p855
(lp856
I3300
ag11
ag11
asS'Travaris Cadet'
p857
(lp858
I3100
ag14
ag17
asS"Ka'Deem Carey"
p859
(lp860
I3100
ag11
ag11
asS'Devonta Freeman'
p861
(lp862
I5800
ag14
ag14
asS'Alfred Blue'
p863
(lp864
I3400
ag85
ag85
asS'Matt Forte'
p865
(lp866
I7000
ag52
ag52
asS'Matt Asiata'
p867
(lp868
I3000
ag8
ag8
asS'Mike Gillislee'
p869
(lp870
I3300
ag46
ag82
asS'Malcolm Johnson'
p871
(lp872
I3000
ag29
ag29
asS'Jalen Richard'
p873
(lp874
I3600
ag23
ag23
asS'Jerome Felton'
p875
(lp876
I3000
ag46
ag82
asS'Matt Jones'
p877
(lp878
I4100
ag38
ag38
asS'Dwayne Washington'
p879
(lp880
I3600
ag26
ag26
asS'Lamar Miller'
p881
(lp882
I7200
ag85
ag85
asS'LeSean McCoy'
p883
(lp884
I6500
ag46
ag82
asS'DeAndre Washington'
p885
(lp886
I3400
ag23
ag23
asS'Jay Prosch'
p887
(lp888
I3000
ag85
ag85
asS'Andre Williams'
p889
(lp890
I3000
ag20
ag20
asS'Marcus Murphy'
p891
(lp892
I3000
ag14
ag17
asS'Jonathan Williams'
p893
(lp894
I3000
ag46
ag82
asS'Robert Turbin'
p895
(lp896
I3000
ag20
ag71
asS'James Develin'
p897
(lp898
I3000
ag85
ag90
asS'Zach Line'
p899
(lp900
I3000
ag8
ag8
asS'Thomas Rawls'
p901
(lp902
I5500
ag63
ag64
asS'Jamize Olawale'
p903
(lp904
I3000
ag23
ag23
assS'TE'
p905
(dp906
S'Will Tye'
p907
(lp908
I2600
ag38
ag39
asS'Lee Smith'
p909
(lp910
I2500
ag23
ag23
asS'Maxx Williams'
p911
(lp912
I2500
ag59
ag59
asS'Brent Celek'
p913
(lp914
I2800
ag32
ag33
asS'Jason Witten'
p915
(lp916
I4300
ag11
ag93
asS'Greg Scruggs'
p917
(lp918
I2500
ag11
ag11
asS'Neal Sterling'
p919
(lp920
I2500
ag59
ag60
asS'Levine Toilolo'
p921
(lp922
I2500
ag14
ag14
asS'Ben Koyack'
p923
(lp924
I2500
ag59
ag60
asS'Clay Harbor'
p925
(lp926
I2500
ag85
ag90
asS'Scott Simonson'
p927
(lp928
I2500
ag8
ag96
asS'Garrett Celek'
p929
(lp930
I2500
ag63
ag63
asS'Seth DeValve'
p931
(lp932
I2500
ag29
ag29
asS'Geoff Swaim'
p933
(lp934
I2500
ag11
ag93
asS'Logan Paulsen'
p935
(lp936
I2500
ag11
ag11
asS'Jordan Reed'
p937
(lp938
I6500
ag38
ag38
asS'Mychal Rivera'
p939
(lp940
I2500
ag23
ag23
asS'Marcedes Lewis'
p941
(lp942
I2500
ag59
ag60
asS'Hunter Henry'
p943
(lp944
I2500
ag20
ag20
asS'Trey Burton'
p945
(lp946
I2500
ag32
ag33
asS'Jermaine Gresham'
p947
(lp948
I2500
ag46
ag46
asS'Cory Harkey'
p949
(lp950
I2500
ag42
ag42
asS'Tyler Higbee'
p951
(lp952
I2500
ag42
ag42
asS"James O'Shaughnessy"
p953
(lp954
I2500
ag52
ag53
asS'Erik Swoope'
p955
(lp956
I2500
ag20
ag71
asS'Stephen Anderson'
p957
(lp958
I2500
ag85
ag85
asS'Vance McDonald'
p959
(lp960
I2900
ag63
ag63
asS'Jordan Cameron'
p961
(lp962
I2900
ag29
ag56
asS'Temarrick Hemingway'
p963
(lp964
I2500
ag42
ag42
asS'Clark Harris'
p965
(lp966
I2500
ag5
ag49
asS'Coby Fleener'
p967
(lp968
I3300
ag14
ag17
asS'Gary Barnidge'
p969
(lp970
I4000
ag29
ag29
asS'Cameron Brate'
p971
(lp972
I2500
ag42
ag43
asS'Beau Brinkley'
p973
(lp974
I2500
ag23
ag77
asS'Jared Cook'
p975
(lp976
I2900
ag26
ag74
asS'Kyle Rudolph'
p977
(lp978
I3100
ag8
ag8
asS'Dennis Pitta'
p979
(lp980
I3400
ag59
ag59
asS'Kyle Nelson'
p981
(lp982
I2500
ag63
ag63
asS'Nick Vannett'
p983
(lp984
I2500
ag63
ag64
asS'Zach Ertz'
p985
(lp986
I3900
ag32
ag33
asS'Anthony Fasano'
p987
(lp988
I2500
ag23
ag77
asS'Phillip Supernaw'
p989
(lp990
I2500
ag23
ag77
asS'Orson Charles'
p991
(lp992
I2500
ag26
ag26
asS'Richard Rodgers'
p993
(lp994
I2700
ag26
ag74
asS'Jim Dray'
p995
(lp996
I2500
ag46
ag82
asS'Darren Fells'
p997
(lp998
I2500
ag46
ag46
asS'Martellus Bennett'
p999
(lp1000
I4700
ag85
ag90
asS'Khari Lee'
p1001
(lp1002
I2500
ag26
ag26
asS'MyCole Pruitt'
p1003
(lp1004
I2500
ag8
ag8
asS'Rob Gronkowski'
p1005
(lp1006
I6800
ag85
ag90
asS'Luke Stocker'
p1007
(lp1008
I2500
ag42
ag43
asS'Chris Manhertz'
p1009
(lp1010
I2500
ag14
ag17
asS'Patrick Scales'
p1011
(lp1012
I2500
ag11
ag11
asS'MarQueis Gray'
p1013
(lp1014
I2500
ag29
ag56
asS"Nick O'Leary"
p1015
(lp1016
I2500
ag46
ag82
asS'Demetrius Harris'
p1017
(lp1018
I2500
ag52
ag53
asS'James Winchester'
p1019
(lp1020
I2500
ag52
ag53
asS'Clive Walford'
p1021
(lp1022
I2800
ag23
ag23
asS'Jesse James'
p1023
(lp1024
I3500
ag32
ag32
asS'Austin Hooper'
p1025
(lp1026
I2500
ag14
ag14
asS'Troy Niklas'
p1027
(lp1028
I2500
ag46
ag46
asS'Larry Donnell'
p1029
(lp1030
I2700
ag38
ag39
asS'Austin Seferian-Jenkins'
p1031
(lp1032
I2900
ag42
ag43
asS'Jace Amaro'
p1033
(lp1034
I2500
ag23
ag77
asS'Ed Dickson'
p1035
(lp1036
I2500
ag8
ag96
asS'Zach Miller'
p1037
(lp1038
I2900
ag11
ag11
asS'Dwayne Allen'
p1039
(lp1040
I3800
ag20
ag71
asS'Dion Sims'
p1041
(lp1042
I2500
ag29
ag56
asS'Brandon Bostick'
p1043
(lp1044
I2500
ag52
ag52
asS'A.J. Derby'
p1045
(lp1046
I2500
ag85
ag90
asS'Ryan Griffin'
p1047
(lp1048
I2500
ag85
ag85
asS'Gavin Escobar'
p1049
(lp1050
I2500
ag11
ag93
asS'Jimmy Graham'
p1051
(lp1052
I3000
ag63
ag64
asS'Antonio Gates'
p1053
(lp1054
I4600
ag20
ag20
asS'Kellen Davis'
p1055
(lp1056
I2500
ag52
ag52
asS'Vernon Davis'
p1057
(lp1058
I2700
ag38
ag38
asS'David Johnson'
p1059
(lp1060
I2500
ag32
ag32
asS'Ross Travis'
p1061
(lp1062
I2500
ag52
ag53
asS'Blake Bell'
p1063
(lp1064
I2500
ag63
ag63
asS'Jack Doyle'
p1065
(lp1066
I2500
ag20
ag71
asS'David Morgan'
p1067
(lp1068
I2500
ag8
ag8
asS'John Phillips'
p1069
(lp1070
I2500
ag5
ag5
asS'Josh Hill'
p1071
(lp1072
I2500
ag14
ag17
asS'Julius Thomas'
p1073
(lp1074
I4600
ag59
ag60
asS'Sean McGrath'
p1075
(lp1076
I2500
ag20
ag20
asS'Jerell Adams'
p1077
(lp1078
I2500
ag38
ag39
asS'Travis Kelce'
p1079
(lp1080
I4700
ag52
ag53
asS'Tyler Kroft'
p1081
(lp1082
I2500
ag5
ag49
asS'Eric Ebron'
p1083
(lp1084
I3700
ag26
ag26
asS'Brandon Myers'
p1085
(lp1086
I2500
ag42
ag43
asS'Charles Clay'
p1087
(lp1088
I2900
ag46
ag82
asS'Justin Perillo'
p1089
(lp1090
I2500
ag26
ag74
asS'Joshua Perkins'
p1091
(lp1092
I2500
ag14
ag14
asS'C.J. Uzomah'
p1093
(lp1094
I2500
ag5
ag49
asS'Greg Olsen'
p1095
(lp1096
I5800
ag8
ag96
asS'Rhett Ellison'
p1097
(lp1098
I2500
ag8
ag8
asS'Crockett Gillmore'
p1099
(lp1100
I2500
ag59
ag59
asS'Delanie Walker'
p1101
(lp1102
I5000
ag23
ag77
asS'Kevin McDermott'
p1103
(lp1104
I2500
ag8
ag8
asS'Tyler Eifert'
p1105
(lp1106
I4500
ag5
ag49
asS'Ryan Hewitt'
p1107
(lp1108
I2500
ag5
ag49
asS'C.J. Fiedorowicz'
p1109
(lp1110
I2500
ag85
ag85
asS'Randall Telfer'
p1111
(lp1112
I2500
ag29
ag29
asS'Jeff Heuerman'
p1113
(lp1114
I2500
ag5
ag5
asS'Xavier Grimble'
p1115
(lp1116
I2500
ag32
ag32
asS'Andrew DePaola'
p1117
(lp1118
I2500
ag42
ag43
asS'Jacob Tamme'
p1119
(lp1120
I3200
ag14
ag14
asS'Lance Kendricks'
p1121
(lp1122
I2700
ag42
ag42
asS'Luke Willson'
p1123
(lp1124
I2500
ag63
ag64
asS'Virgil Green'
p1125
(lp1126
I3000
ag5
ag5
asS'Andrew Quarless'
p1127
(lp1128
I2500
ag26
ag26
asS'Cole Wick'
p1129
(lp1130
I2500
ag26
ag26
asS'Brandon Williams'
p1131
(lp1132
I2500
ag63
ag64
asS'Niles Paul'
p1133
(lp1134
I2500
ag38
ag38
ass.