(dp0
S'DST'
p1
(dp2
S'Broncos'
p3
(lp4
I3700
aS'CAR'
p5
asS'Vikings'
p6
(lp7
I3100
aS'TEN'
p8
asS'Bears'
p9
(lp10
I2500
aS'HOU'
p11
asS'Falcons'
p12
(lp13
I2800
aS'TB'
p14
asS'Saints'
p15
(lp16
I2300
aS'OAK'
p17
asS'Chargers'
p18
(lp19
I2500
aS'KC'
p20
asS'Raiders'
p21
(lp22
I2400
aS'NO'
p23
asS'Lions'
p24
(lp25
I2500
aS'IND'
p26
asS'Browns'
p27
(lp28
I2300
aS'PHI'
p29
asS'Eagles'
p30
(lp31
I3300
aS'CLE'
p32
asS'Steelers'
p33
(lp34
I2900
aS'WAS'
p35
asS'Giants'
p36
(lp37
I2700
aS'DAL'
p38
asS'Buccaneers'
p39
(lp40
I2600
aS'ATL'
p41
asS'Cardinals'
p42
(lp43
I3500
aS'NE'
p44
asS'Bengals'
p45
(lp46
I3000
aS'NYJ'
p47
asS'Chiefs'
p48
(lp49
I3600
aS'SD'
p50
asS'Dolphins'
p51
(lp52
I2200
aS'SEA'
p53
asS'Jaguars'
p54
(lp55
I2400
aS'GB'
p56
asS'Seahawks'
p57
(lp58
I3900
aS'MIA'
p59
asS'Jets'
p60
(lp61
I3400
aS'CIN'
p62
asS'Ravens'
p63
(lp64
I2700
aS'BUF'
p65
asS'Colts'
p66
(lp67
I2700
aS'DET'
p68
asS'Packers'
p69
(lp70
I2800
aS'JAC'
p71
asS'Titans'
p72
(lp73
I2600
aS'MIN'
p74
asS'Rams'
p75
(lp76
I3800
aS'SF'
p77
asS'Bills'
p78
(lp79
I2900
aS'BAL'
p80
asS'Texans'
p81
(lp82
I3200
aS'CHI'
p83
asS'49ers'
p84
(lp85
I3100
aS'STL'
p86
asS'Patriots'
p87
(lp88
I2900
aS'ARI'
p89
asS'Cowboys'
p90
(lp91
I2500
aS'NYG'
p92
asS'Panthers'
p93
(lp94
I3800
aS'DEN'
p95
asS'Redskins'
p96
(lp97
I2700
aS'PIT'
p98
assS'QB'
p99
(dp100
S'Jake Heaps'
p101
(lp102
I5000
aS'MIA'
p103
asS'Carson Wentz'
p104
(lp105
I5000
aS'CLE'
p106
asS'Colt McCoy'
p107
(lp108
I5000
aS'PIT'
p109
asS'Cody Kessler'
p110
(lp111
I5000
aS'PHI'
p112
asS'Derek Anderson'
p113
(lp114
I5000
aS'DEN'
p115
asS'Taylor Heinicke'
p116
(lp117
I5000
aS'TEN'
p118
asS'Robert Griffin'
p119
(lp120
I5600
aS'PHI'
p121
asS'Jeff Driskel'
p122
(lp123
I5000
ag86
asS'Logan Thomas'
p124
(lp125
I5000
aS'DAL'
p126
asS'Austin Davis'
p127
(lp128
I5000
aS'PHI'
p129
asS'Aaron Rodgers'
p130
(lp131
I8500
ag71
asS'Christian Hackenberg'
p132
(lp133
I5000
aS'CIN'
p134
asS'Matt Moore'
p135
(lp136
I5000
aS'SEA'
p137
asS'Brock Osweiler'
p138
(lp139
I6300
aS'CHI'
p140
asS'Brian Hoyer'
p141
(lp142
I5000
aS'HOU'
p143
asS'Marcus Mariota'
p144
(lp145
I6400
aS'MIN'
p146
asS'Bruce Gradkowski'
p147
(lp148
I5000
aS'WAS'
p149
asS'Joel Stave'
p150
(lp151
I5000
aS'TEN'
p152
asS'Carson Palmer'
p153
(lp154
I7100
aS'NE'
p155
asS'Colin Kaepernick'
p156
(lp157
I5000
ag86
asS'Blaine Gabbert'
p158
(lp159
I5200
ag86
asS'Tony Romo'
p160
(lp161
I6800
aS'NYG'
p162
asS'Derek Carr'
p163
(lp164
I7300
aS'NO'
p165
asS'Matt Simms'
p166
(lp167
I5000
aS'TB'
p168
asS'Joe Licata'
p169
(lp170
I5000
aS'NYJ'
p171
asS'Connor Shaw'
p172
(lp173
I5000
aS'HOU'
p174
asS'Max Wittek'
p175
(lp176
I5000
aS'GB'
p177
asS'Teddy Bridgewater'
p178
(lp179
I6000
aS'TEN'
p180
asS'Cam Newton'
p181
(lp182
I7700
aS'DEN'
p183
asS'Zach Mettenberger'
p184
(lp185
I5000
aS'KC'
p186
asS'Ryan Mallett'
p187
(lp188
I5000
aS'BUF'
p189
asS'Dan Orlovsky'
p190
(lp191
I5000
aS'IND'
p192
asS'Matt Schaub'
p193
(lp194
I5000
aS'TB'
p195
asS'Landry Jones'
p196
(lp197
I5000
aS'WAS'
p198
asS'Jameis Winston'
p199
(lp200
I6600
aS'ATL'
p201
asS'Brandon Allen'
p202
(lp203
I5000
aS'GB'
p204
asS'Bryn Renner'
p205
(lp206
I5000
aS'WAS'
p207
asS'Scott Tolzien'
p208
(lp209
I5000
aS'DET'
p210
asS'Jay Cutler'
p211
(lp212
I6300
aS'HOU'
p213
asS'Joe Webb'
p214
(lp215
I5000
aS'DEN'
p216
asS'Nick Foles'
p217
(lp218
I5000
aS'SD'
p219
asS'Ryan Nassib'
p220
(lp221
I5000
aS'DAL'
p222
asS'Sam Bradford'
p223
(lp224
I6400
aS'CLE'
p225
asS'EJ Manuel'
p226
(lp227
I5000
aS'BAL'
p228
asS'Eli Manning'
p229
(lp230
I7500
aS'DAL'
p231
asS'Matt McGloin'
p232
(lp233
I5000
aS'NO'
p234
asS'Josh Johnson'
p235
(lp236
I5000
aS'BUF'
p237
asS'Matthew Stafford'
p238
(lp239
I7200
aS'IND'
p240
asS'Keith Wenning'
p241
(lp242
I5000
aS'NYJ'
p243
asS'Aaron Murray'
p244
(lp245
I5000
aS'SD'
p246
asS'Jacoby Brissett'
p247
(lp248
I5000
aS'ARI'
p249
asS'Mike Glennon'
p250
(lp251
I5000
aS'ATL'
p252
asS'Ryan Griffin'
p253
(lp254
I5000
aS'ATL'
p255
asS'Christian Ponder'
p256
(lp257
I5000
ag86
asS'Luke McCown'
p258
(lp259
I5000
aS'OAK'
p260
asS'Joe Callahan'
p261
(lp262
I5000
ag71
asS'Tyrod Taylor'
p263
(lp264
I6900
aS'BAL'
p265
asS'Matt Ryan'
p266
(lp267
I7100
aS'TB'
p268
asS'Kirk Cousins'
p269
(lp270
I7400
aS'PIT'
p271
asS'Nate Sudfeld'
p272
(lp273
I5000
aS'PIT'
p274
asS'Shaun Hill'
p275
(lp276
I5000
aS'TEN'
p277
asS'Tom Savage'
p278
(lp279
I5000
aS'CHI'
p280
asS'Brandon Weeden'
p281
(lp282
I5000
aS'CHI'
p283
asS'Trevone Boykin'
p284
(lp285
I5000
aS'MIA'
p286
asS'Marquise Williams'
p287
(lp288
I5000
ag71
asS'Zac Dysert'
p289
(lp290
I5000
aS'SEA'
p291
asS'McLeod Bethel-Thompson'
p292
(lp293
I5000
aS'CLE'
p294
asS'Jared Goff'
p295
(lp296
I5000
aS'SF'
p297
asS'Jake Coker'
p298
(lp299
I5000
aS'NE'
p300
asS'Case Keenum'
p301
(lp302
I5400
aS'SF'
p303
asS'Mark Sanchez'
p304
(lp305
I5000
aS'CAR'
p306
asS'Andy Dalton'
p307
(lp308
I6800
aS'NYJ'
p309
asS'Ryan Fitzpatrick'
p310
(lp311
I6500
aS'CIN'
p312
asS'David Fales'
p313
(lp314
I5000
aS'HOU'
p315
asS'Mike Bercovici'
p316
(lp317
I5000
aS'KC'
p318
asS'Drew Brees'
p319
(lp320
I8100
aS'OAK'
p321
asS'Jake Rudock'
p322
(lp323
I5000
aS'IND'
p324
asS'Jerrod Johnson'
p325
(lp326
I5000
aS'BUF'
p327
asS'Ryan Tannehill'
p328
(lp329
I5900
aS'SEA'
p330
asS'Chad Henne'
p331
(lp332
I5000
aS'GB'
p333
asS'AJ McCarron'
p334
(lp335
I5000
aS'NYJ'
p336
asS'Brandon Doughty'
p337
(lp338
I5000
aS'SEA'
p339
asS'Josh McCown'
p340
(lp341
I5000
aS'PHI'
p342
asS'Blake Bortles'
p343
(lp344
I7200
aS'GB'
p345
asS'Connor Cook'
p346
(lp347
I5000
aS'NO'
p348
asS'Philip Rivers'
p349
(lp350
I7000
aS'KC'
p351
asS'Jimmy Garoppolo'
p352
(lp353
I6200
aS'ARI'
p354
asS'Alex Smith'
p355
(lp356
I6500
aS'SD'
p357
asS'Joe Flacco'
p358
(lp359
I6700
aS'BUF'
p360
asS'Brett Hundley'
p361
(lp362
I5000
ag71
asS'Ben Roethlisberger'
p363
(lp364
I7800
aS'WAS'
p365
asS'Russell Wilson'
p366
(lp367
I7900
aS'MIA'
p368
asS'Sean Mannion'
p369
(lp370
I5000
aS'SF'
p371
asS'Andrew Luck'
p372
(lp373
I8300
aS'DET'
p374
asS'Tyler Bray'
p375
(lp376
I5000
aS'SD'
p377
asS'Dak Prescott'
p378
(lp379
I5000
aS'NYG'
p380
asS'Paxton Lynch'
p381
(lp382
I5000
aS'CAR'
p383
asS'Trevor Siemian'
p384
(lp385
I5200
aS'CAR'
p386
asS'Geno Smith'
p387
(lp388
I5000
aS'CIN'
p389
asS'Matt Cassel'
p390
(lp391
I5000
aS'MIN'
p392
asS'Jameill Showers'
p393
(lp394
I5000
aS'NYG'
p395
asS'Tom Brady'
p396
(lp397
I7400
aS'ARI'
p398
asS'Stephen Morris'
p399
(lp400
I5000
aS'DET'
p401
asS'Kevin Hogan'
p402
(lp403
I5000
aS'SD'
p404
asS'Alex Tanney'
p405
(lp406
I5000
aS'MIN'
p407
asS'Kellen Moore'
p408
(lp409
I5000
aS'NYG'
p410
asS'Sean Renfree'
p411
(lp412
I5000
aS'TB'
p413
asS'Drew Stanton'
p414
(lp415
I5000
aS'NE'
p416
asS'Cardale Jones'
p417
(lp418
I5000
aS'BAL'
p419
asS'Bryce Petty'
p420
(lp421
I5000
aS'CIN'
p422
asS'Matt Barkley'
p423
(lp424
I5000
aS'NE'
p425
asS'Chase Daniel'
p426
(lp427
I5000
aS'CLE'
p428
asS'Garrett Grayson'
p429
(lp430
I5000
aS'OAK'
p431
asS'Kellen Clemens'
p432
(lp433
I5000
aS'KC'
p434
assS'WR'
p435
(dp436
S'Tyler Lockett'
p437
(lp438
I5000
aS'MIA'
p439
asS'Tony Washington'
p440
(lp441
I3000
aS'GB'
p442
asS'Deonte Thompson'
p443
(lp444
I3000
aS'HOU'
p445
asS'Dobson Collins'
p446
(lp447
I3000
aS'BUF'
p448
asS'Golden Tate'
p449
(lp450
I7300
aS'IND'
p451
asS'Josh Boyce'
p452
(lp453
I3000
aS'DET'
p454
asS'Wendall Williams'
p455
(lp456
I3000
aS'CHI'
p457
asS'Andy Jones'
p458
(lp459
I3000
aS'NYG'
p460
asS'Jeremy Ross'
p461
(lp462
I3000
aS'CIN'
p463
asS'DeAndrew White'
p464
(lp465
I3000
ag86
asS'Brandon Coleman'
p466
(lp467
I3000
aS'OAK'
p468
asS'Dorial Green-Beckham'
p469
(lp470
I4500
aS'MIN'
p471
asS'Tavon Austin'
p472
(lp473
I5000
aS'SF'
p474
asS'Odell Beckham'
p475
(lp476
I9300
aS'DAL'
p477
asS'Dominique Williams'
p478
(lp479
I3000
aS'KC'
p480
asS'Josh Doctson'
p481
(lp482
I3000
aS'PIT'
p483
asS'Pierre Garcon'
p484
(lp485
I4400
aS'PIT'
p486
asS'Harry Douglas'
p487
(lp488
I3400
aS'MIN'
p489
asS'Joe Hansley'
p490
(lp491
I3000
aS'NO'
p492
asS'Quan Bray'
p493
(lp494
I3000
aS'DET'
p495
asS'Mike Thomas'
p496
(lp497
I3000
aS'SF'
p498
asS'Griff Whalen'
p499
(lp500
I3000
aS'SEA'
p501
asS'James Jones'
p502
(lp503
I3500
aS'KC'
p504
asS'Anthony Dable'
p505
(lp506
I3000
aS'DAL'
p507
asS'Moritz Boehringer'
p508
(lp509
I3000
aS'TEN'
p510
asS'Brandon Shippen'
p511
(lp512
I3000
aS'SEA'
p513
asS'Kevin Smith'
p514
(lp515
I3000
aS'MIA'
p516
asS'Victor Cruz'
p517
(lp518
I4000
aS'DAL'
p519
asS'Laquon Treadwell'
p520
(lp521
I4500
aS'TEN'
p522
asS'Max McCaffrey'
p523
(lp524
I3000
aS'NO'
p525
asS'Tevaun Smith'
p526
(lp527
I3000
aS'DET'
p528
asS'DeAndre Reaves'
p529
(lp530
I3000
aS'KC'
p531
asS'Andre Caldwell'
p532
(lp533
I3000
aS'IND'
p534
asS'Marquise Goodwin'
p535
(lp536
I3000
aS'BAL'
p537
asS'Herb Waters'
p538
(lp539
I3000
ag71
asS'Malcolm Mitchell'
p540
(lp541
I3000
aS'ARI'
p542
asS'Breshad Perriman'
p543
(lp544
I3700
aS'BUF'
p545
asS'Jermaine Kearse'
p546
(lp547
I3500
aS'MIA'
p548
asS'Phillip Dorsett'
p549
(lp550
I4500
aS'DET'
p551
asS'Sammy Watkins'
p552
(lp553
I6900
aS'BAL'
p554
asS'Damian Copeland'
p555
(lp556
I3000
aS'IND'
p557
asS'Davante Adams'
p558
(lp559
I4300
ag71
asS'Devin Fuller'
p560
(lp561
I3000
aS'TB'
p562
asS'Terrelle Pryor'
p563
(lp564
I3000
aS'PHI'
p565
asS'Jordan Norwood'
p566
(lp567
I3000
aS'CAR'
p568
asS'James Wright'
p569
(lp570
I3000
aS'NYJ'
p571
asS'Tevin Jones'
p572
(lp573
I3000
aS'CHI'
p574
asS'Kevin White'
p575
(lp576
I5200
aS'HOU'
p577
asS'Jaydon Mickens'
p578
(lp579
I3000
aS'NO'
p580
asS'Harvey Binford'
p581
(lp582
I3000
ag71
asS'Quinshad Davis'
p583
(lp584
I3000
aS'IND'
p585
asS'Chris Conley'
p586
(lp587
I3700
aS'SD'
p588
asS'Chris Harper'
p589
(lp590
I3000
aS'ARI'
p591
asS'Jaelen Strong'
p592
(lp593
I3800
aS'CHI'
p594
asS'DeAndre Smelter'
p595
(lp596
I3000
ag86
asS'Chris King'
p597
(lp598
I3000
aS'TB'
p599
asS'Pharoh Cooper'
p600
(lp601
I3600
aS'SF'
p602
asS'Rod Streater'
p603
(lp604
I3000
aS'SD'
p605
asS'Stevie Johnson'
p606
(lp607
I3100
aS'KC'
p608
asS'Hunter Sharp'
p609
(lp610
I3000
aS'CLE'
p611
asS'Robert Woods'
p612
(lp613
I4600
aS'BAL'
p614
asS'Rueben Randle'
p615
(lp616
I3300
aS'CLE'
p617
asS'Cole Beasley'
p618
(lp619
I3200
aS'NYG'
p620
asS'Cody Core'
p621
(lp622
I3000
aS'NYJ'
p623
asS'Tre McBride'
p624
(lp625
I3000
aS'MIN'
p626
asS'Evan Spencer'
p627
(lp628
I3000
aS'ATL'
p629
asS'Alex Erickson'
p630
(lp631
I3000
aS'NYJ'
p632
asS'Daniel Braverman'
p633
(lp634
I3000
aS'HOU'
p635
asS'Willie Snead'
p636
(lp637
I4800
aS'OAK'
p638
asS'Terrell Sinkfield'
p639
(lp640
I3000
aS'TEN'
p641
asS'Jonathan Krause'
p642
(lp643
I3000
aS'ATL'
p644
asS'Rishard Matthews'
p645
(lp646
I3300
aS'MIN'
p647
asS'Emmanuel Sanders'
p648
(lp649
I5700
aS'CAR'
p650
asS'Amir Carlisle'
p651
(lp652
I3000
aS'NE'
p653
asS'Marquis Bundy'
p654
(lp655
I3000
aS'NE'
p656
asS'Steve Smith'
p657
(lp658
I4900
aS'BUF'
p659
asS'Cameron Meredith'
p660
(lp661
I3000
aS'HOU'
p662
asS'Kenny Bell'
p663
(lp664
I3400
aS'ATL'
p665
asS'Quincy Enunwa'
p666
(lp667
I3800
aS'CIN'
p668
asS'Jake Kumerow'
p669
(lp670
I3000
aS'NYJ'
p671
asS'Marlon Moore'
p672
(lp673
I3000
aS'PHI'
p674
asS'Corey Brown'
p675
(lp676
I3000
aS'DEN'
p677
asS'Kasen Williams'
p678
(lp679
I3000
aS'MIA'
p680
asS'Nelson Agholor'
p681
(lp682
I3500
aS'CLE'
p683
asS'Kyle Williams'
p684
(lp685
I3000
aS'CIN'
p686
asS'Walt Powell'
p687
(lp688
I3000
aS'BAL'
p689
asS'Dres Anderson'
p690
(lp691
I3000
ag86
asS'Rashard Higgins'
p692
(lp693
I3000
aS'PHI'
p694
asS'Brice Butler'
p695
(lp696
I3000
aS'NYG'
p697
asS'Frankie Hammond'
p698
(lp699
I3000
aS'SD'
p700
asS'Isaac Fruechte'
p701
(lp702
I3000
aS'TEN'
p703
asS'Kalif Raymond'
p704
(lp705
I3000
aS'CAR'
p706
asS'Chris Hubert'
p707
(lp708
I3000
aS'NE'
p709
asS'Ed Williams'
p710
(lp711
I3000
ag71
asS'Ed Eagan'
p712
(lp713
I3000
aS'NYG'
p714
asS'Vincent Jackson'
p715
(lp716
I4400
aS'ATL'
p717
asS'Isaiah Burse'
p718
(lp719
I3000
aS'KC'
p720
asS'Brenton Bersin'
p721
(lp722
I3000
aS'DEN'
p723
asS'Rashawn Scott'
p724
(lp725
I3000
aS'SEA'
p726
asS'Shane Wynn'
p727
(lp728
I3000
aS'GB'
p729
asS'Chris Hogan'
p730
(lp731
I3600
aS'ARI'
p732
asS'Donte Moncrief'
p733
(lp734
I6000
aS'DET'
p735
asS'Chester Rogers'
p736
(lp737
I3000
aS'DET'
p738
asS'Dwayne Harris'
p739
(lp740
I3600
aS'DAL'
p741
asS'Rodney Smith'
p742
(lp743
I3000
aS'NYG'
p744
asS'Javontee Herndon'
p745
(lp746
I3000
aS'KC'
p747
asS'Bryan Walters'
p748
(lp749
I3000
aS'GB'
p750
asS'Josh Huff'
p751
(lp752
I3000
aS'CLE'
p753
asS'Kenny Stills'
p754
(lp755
I3200
aS'SEA'
p756
asS'Daniel Anthrop'
p757
(lp758
I3000
aS'DET'
p759
asS'Dennis Parks'
p760
(lp761
I3000
aS'PHI'
p762
asS'Albert Wilson'
p763
(lp764
I3600
aS'SD'
p765
asS'Chris Brown'
p766
(lp767
I3000
aS'NYG'
p768
asS'Mario Alford'
p769
(lp770
I3000
aS'NYJ'
p771
asS'Tyler Boyd'
p772
(lp773
I3600
aS'NYJ'
p774
asS'Xavier Rush'
p775
(lp776
I3000
aS'CLE'
p777
asS'Marcus Tucker'
p778
(lp779
I3000
aS'WAS'
p780
asS'Brandon Tate'
p781
(lp782
I3000
aS'NYJ'
p783
asS'Ted Ginn'
p784
(lp785
I4100
aS'DEN'
p786
asS'Keyarris Garrett'
p787
(lp788
I3000
aS'DEN'
p789
asS'Ben Roberts'
p790
(lp791
I3000
aS'MIN'
p792
asS'DeAndre Carter'
p793
(lp794
I3000
aS'ARI'
p795
asS'Mitch Mathews'
p796
(lp797
I3000
aS'SD'
p798
asS'Darrin Peterson'
p799
(lp800
I3000
aS'HOU'
p801
asS'Eli Rogers'
p802
(lp803
I4200
aS'WAS'
p804
asS'Jalin Marshall'
p805
(lp806
I3000
aS'CIN'
p807
asS'Matthew Slater'
p808
(lp809
I3000
aS'ARI'
p810
asS'Paul Turner'
p811
(lp812
I3000
aS'CLE'
p813
asS'Marqise Lee'
p814
(lp815
I3100
aS'GB'
p816
asS'Jaron Brown'
p817
(lp818
I3400
aS'NE'
p819
asS'Devin Funchess'
p820
(lp821
I4800
aS'DEN'
p822
asS'David Glidden'
p823
(lp824
I3000
aS'TB'
p825
asS'Damiere Byrd'
p826
(lp827
I3000
aS'DEN'
p828
asS'Antonio Brown'
p829
(lp830
I9800
aS'WAS'
p831
asS'Myles White'
p832
(lp833
I3000
aS'DAL'
p834
asS'Rashad Ross'
p835
(lp836
I3000
aS'PIT'
p837
asS'Mike Williams'
p838
(lp839
I3000
aS'SD'
p840
asS'Andrew Turzilli'
p841
(lp842
I3000
aS'MIN'
p843
asS'A.J. Green'
p844
(lp845
I8400
aS'NYJ'
p846
asS'Gary Chambers'
p847
(lp848
I3000
aS'BAL'
p849
asS'Marquess Wilson'
p850
(lp851
I3700
aS'HOU'
p852
asS'Rashaun Simonise'
p853
(lp854
I3000
aS'NYJ'
p855
asS'Devon Cajuste'
p856
(lp857
I3000
ag86
asS'Kenbrell Thompkins'
p858
(lp859
I3000
aS'CIN'
p860
asS'Jarrett Boykin'
p861
(lp862
I3000
aS'BAL'
p863
asS'Nate Washington'
p864
(lp865
I3000
aS'ARI'
p866
asS'Ryan Whalen'
p867
(lp868
I3000
ag86
asS'Jace Billingsley'
p869
(lp870
I3000
aS'IND'
p871
asS'Cecil Shorts'
p872
(lp873
I3300
aS'CHI'
p874
asS'Franky Okafor'
p875
(lp876
I3000
aS'NE'
p877
asS'Josh Gordon'
p878
(lp879
I6800
aS'PHI'
p880
asS'Eddie Royal'
p881
(lp882
I3200
aS'HOU'
p883
asS'Jared Abbrederis'
p884
(lp885
I3300
ag71
asS'Adam Thielen'
p886
(lp887
I3000
aS'TEN'
p888
asS'Jordan Williams-Lambert'
p889
(lp890
I3000
aS'OAK'
p891
asS'Leonard Hankerson'
p892
(lp893
I3300
aS'BAL'
p894
asS'Mekale McKay'
p895
(lp896
I3000
aS'DET'
p897
asS'Tavarres King'
p898
(lp899
I3000
aS'DAL'
p900
asS'Brian Quick'
p901
(lp902
I3500
aS'SF'
p903
asS'Seth Roberts'
p904
(lp905
I3800
aS'NO'
p906
asS'Rannell Hall'
p907
(lp908
I3000
aS'PHI'
p909
asS'Josh Lenz'
p910
(lp911
I3000
aS'CHI'
p912
asS'Jordan Matthews'
p913
(lp914
I6700
aS'CLE'
p915
asS'Michael Floyd'
p916
(lp917
I5900
aS'NE'
p918
asS'J.D. McKissic'
p919
(lp920
I3000
aS'TB'
p921
asS'Alonzo Russell'
p922
(lp923
I3000
aS'NYJ'
p924
asS'Bradley Marquez'
p925
(lp926
I3000
aS'SF'
p927
asS'T.J. Graham'
p928
(lp929
I3000
aS'CLE'
p930
asS'Kamar Aiken'
p931
(lp932
I4700
aS'BUF'
p933
asS'Louis Murphy'
p934
(lp935
I3000
aS'ATL'
p936
asS'Vince Mayle'
p937
(lp938
I3000
aS'NYG'
p939
asS'Larry Fitzgerald'
p940
(lp941
I6300
aS'NE'
p942
asS'Keenan Reynolds'
p943
(lp944
I3000
aS'BUF'
p945
asS'Jordan Leslie'
p946
(lp947
I3000
aS'TB'
p948
asS'Marvin Jones'
p949
(lp950
I4600
aS'IND'
p951
asS'Leonte Carroo'
p952
(lp953
I3200
aS'SEA'
p954
asS'Antwane Grant'
p955
(lp956
I3000
aS'NYJ'
p957
asS'Corey Washington'
p958
(lp959
I3000
aS'TB'
p960
asS'Dez Bryant'
p961
(lp962
I8500
aS'NYG'
p963
asS'Marcus Easley'
p964
(lp965
I3000
aS'BAL'
p966
asS"Da'Ron Brown"
p967
(lp968
I3000
aS'SD'
p969
asS'Rashad Lawrence'
p970
(lp971
I3000
aS'GB'
p972
asS'Lucky Whitehead'
p973
(lp974
I3000
aS'NYG'
p975
asS'Chris Matthews'
p976
(lp977
I3000
aS'BUF'
p978
asS'Nick Williams'
p979
(lp980
I3000
aS'TB'
p981
asS'Charone Peake'
p982
(lp983
I3000
aS'CIN'
p984
asS'Neal Sterling'
p985
(lp986
I3000
aS'GB'
p987
asS'Marcus Johnson'
p988
(lp989
I3000
aS'CLE'
p990
asS'Anquan Boldin'
p991
(lp992
I4500
aS'IND'
p993
asS'Eric Decker'
p994
(lp995
I6600
aS'CIN'
p996
asS'Jamison Crowder'
p997
(lp998
I3800
aS'PIT'
p999
asS'Markus Wheaton'
p1000
(lp1001
I5400
aS'WAS'
p1002
asS'Cobi Hamilton'
p1003
(lp1004
I3000
aS'WAS'
p1005
asS'Russell Shepard'
p1006
(lp1007
I3000
aS'ATL'
p1008
asS'Jarvis Landry'
p1009
(lp1010
I6000
aS'SEA'
p1011
asS"De'Anthony Thomas"
p1012
(lp1013
I3000
aS'SD'
p1014
asS'Travis Benjamin'
p1015
(lp1016
I4100
aS'KC'
p1017
asS'Allen Robinson'
p1018
(lp1019
I8300
aS'GB'
p1020
asS'Kain Colter'
p1021
(lp1022
I3000
aS'BAL'
p1023
asS'Jaxon Shipley'
p1024
(lp1025
I3000
aS'NE'
p1026
asS'Jeremy Maclin'
p1027
(lp1028
I6500
aS'SD'
p1029
asS'Adam Humphries'
p1030
(lp1031
I3000
aS'ATL'
p1032
asS'Bryce Treggs'
p1033
(lp1034
I3000
ag86
asS'R.J. Harris'
p1035
(lp1036
I3000
aS'OAK'
p1037
asS'Jake Lampman'
p1038
(lp1039
I3000
aS'OAK'
p1040
asS'Julian Edelman'
p1041
(lp1042
I6100
aS'ARI'
p1043
asS'Tanner McEvoy'
p1044
(lp1045
I3000
aS'MIA'
p1046
asS'Seantavius Jones'
p1047
(lp1048
I3000
aS'SD'
p1049
asS'Tajae Sharpe'
p1050
(lp1051
I3000
aS'MIN'
p1052
asS'K.J. Brent'
p1053
(lp1054
I3000
aS'NO'
p1055
asS'Devin Smith'
p1056
(lp1057
I3000
aS'CIN'
p1058
asS'Jamel Johnson'
p1059
(lp1060
I3000
ag71
asS'Tyreek Hill'
p1061
(lp1062
I3000
aS'SD'
p1063
asS'Will Fuller'
p1064
(lp1065
I3700
aS'CHI'
p1066
asS'Darius Powe'
p1067
(lp1068
I3000
aS'DAL'
p1069
asS'Michael Bennett'
p1070
(lp1071
I3000
aS'NYJ'
p1072
asS'KJ Maye'
p1073
(lp1074
I3000
aS'DAL'
p1075
asS'Brandin Cooks'
p1076
(lp1077
I7700
aS'OAK'
p1078
asS'Ryan Grant'
p1079
(lp1080
I3000
aS'PIT'
p1081
asS'Troy Stoudermire'
p1082
(lp1083
I3000
aS'TEN'
p1084
asS'Rashad Greene'
p1085
(lp1086
I3500
aS'GB'
p1087
asS'Cordarrelle Patterson'
p1088
(lp1089
I3000
aS'TEN'
p1090
asS'Demarcus Ayers'
p1091
(lp1092
I3000
aS'WAS'
p1093
asS'Michael Thomas'
p1094
(lp1095
I4000
aS'OAK'
p1096
asS'Sammie Coates'
p1097
(lp1098
I3700
aS'WAS'
p1099
asS'Mose Frazier'
p1100
(lp1101
I3000
aS'CAR'
p1102
asS'Terrance Williams'
p1103
(lp1104
I3300
aS'NYG'
p1105
asS'Marvin Hall'
p1106
(lp1107
I3000
aS'NO'
p1108
asS'Quenton Bundrage'
p1109
(lp1110
I3000
aS'CHI'
p1111
asS'J.J. Nelson'
p1112
(lp1113
I3200
aS'NE'
p1114
asS'Bernard Reedy'
p1115
(lp1116
I3000
aS'ATL'
p1117
asS'Kendal Thompson'
p1118
(lp1119
I3000
aS'PIT'
p1120
asS'Bennie Fowler'
p1121
(lp1122
I3000
aS'CAR'
p1123
asS'Kelvin Benjamin'
p1124
(lp1125
I5700
aS'DEN'
p1126
asS'Trevor Davis'
p1127
(lp1128
I3000
ag71
asS'Jeff Janis'
p1129
(lp1130
I3700
ag71
asS'Nelson Spruce'
p1131
(lp1132
I3000
aS'SF'
p1133
asS'Andre Davis'
p1134
(lp1135
I3000
aS'ATL'
p1136
asS'Joshua Bellamy'
p1137
(lp1138
I3000
aS'HOU'
p1139
asS'Jeremy Kerley'
p1140
(lp1141
I3000
aS'IND'
p1142
asS'Kenny Britt'
p1143
(lp1144
I3900
aS'SF'
p1145
asS'Paul Richardson'
p1146
(lp1147
I3000
aS'MIA'
p1148
asS'Dontrelle Inman'
p1149
(lp1150
I3400
aS'KC'
p1151
asS'Johnny Holton'
p1152
(lp1153
I3000
aS'NO'
p1154
asS'T.Y. Hilton'
p1155
(lp1156
I7500
aS'DET'
p1157
asS'Matt Hazel'
p1158
(lp1159
I3000
aS'SEA'
p1160
asS'Jordan Payton'
p1161
(lp1162
I3000
aS'PHI'
p1163
asS'Kieran Duncan'
p1164
(lp1165
I3000
aS'HOU'
p1166
asS'Greg Little'
p1167
(lp1168
I3000
aS'BAL'
p1169
asS'Jakeem Grant'
p1170
(lp1171
I3000
aS'SEA'
p1172
asS'Jay Lee'
p1173
(lp1174
I3000
aS'IND'
p1175
asS'Taylor Gabriel'
p1176
(lp1177
I3000
aS'PHI'
p1178
asS'Torrey Smith'
p1179
(lp1180
I4900
ag86
asS'Nathan Palmer'
p1181
(lp1182
I3000
aS'NO'
p1183
asS'Roger Lewis'
p1184
(lp1185
I3000
aS'DAL'
p1186
asS'Mike Wallace'
p1187
(lp1188
I4200
aS'BUF'
p1189
asS'Joshua Stangby'
p1190
(lp1191
I3000
aS'DET'
p1192
asS'Geronimo Allison'
p1193
(lp1194
I3000
ag71
asS'Quinton Patton'
p1195
(lp1196
I4000
ag86
asS'Freddie Martino'
p1197
(lp1198
I3000
aS'ATL'
p1199
asS'Andre Holmes'
p1200
(lp1201
I3200
aS'NO'
p1202
asS'Dezmin Lewis'
p1203
(lp1204
I3000
aS'BAL'
p1205
asS'Donteea Dye'
p1206
(lp1207
I3000
aS'ATL'
p1208
asS'Andre Johnson'
p1209
(lp1210
I3900
aS'MIN'
p1211
asS'Alshon Jeffery'
p1212
(lp1213
I7900
aS'HOU'
p1214
asS'Brandon Marshall'
p1215
(lp1216
I7800
aS'CIN'
p1217
asS'Keenan Allen'
p1218
(lp1219
I8000
aS'KC'
p1220
asS'Montario Hunter'
p1221
(lp1222
I3000
aS'MIA'
p1223
asS'Hakeem Nicks'
p1224
(lp1225
I3200
aS'OAK'
p1226
asS'B.J. Daniels'
p1227
(lp1228
I3000
aS'HOU'
p1229
asS"D'haquille Williams"
p1230
(lp1231
I3000
aS'SF'
p1232
asS'Daniel Brown'
p1233
(lp1234
I3000
aS'BUF'
p1235
asS'Ricardo Louis'
p1236
(lp1237
I3000
aS'PHI'
p1238
asS'Chuck Jacobs'
p1239
(lp1240
I3000
aS'BUF'
p1241
asS'Chandler Worthy'
p1242
(lp1243
I3000
aS'CIN'
p1244
asS'Rasheed Bailey'
p1245
(lp1246
I3000
aS'GB'
p1247
asS'Tyrell Williams'
p1248
(lp1249
I3000
aS'KC'
p1250
asS'Aaron Burbridge'
p1251
(lp1252
I3000
ag86
asS'Reggie Bell'
p1253
(lp1254
I3000
aS'OAK'
p1255
asS'Jeremy Butler'
p1256
(lp1257
I3000
aS'BUF'
p1258
asS'Keith Mumphery'
p1259
(lp1260
I3000
aS'CHI'
p1261
asS'Ty Montgomery'
p1262
(lp1263
I3600
ag71
asS'Devin Lucien'
p1264
(lp1265
I3000
aS'ARI'
p1266
asS'T.J. Thorpe'
p1267
(lp1268
I3000
aS'PIT'
p1269
asS'Kevin Norwood'
p1270
(lp1271
I3000
aS'DEN'
p1272
asS'Jamal Robinson'
p1273
(lp1274
I3000
aS'GB'
p1275
asS'Kendall Wright'
p1276
(lp1277
I3400
aS'MIN'
p1278
asS'DeSean Jackson'
p1279
(lp1280
I6100
aS'PIT'
p1281
asS'Amari Cooper'
p1282
(lp1283
I7200
aS'NO'
p1284
asS'Austin Hill'
p1285
(lp1286
I3000
aS'SF'
p1287
asS'Aaron Dobson'
p1288
(lp1289
I3000
aS'ARI'
p1290
asS'Sterling Shepard'
p1291
(lp1292
I4900
aS'DAL'
p1293
asS'Doug Baldwin'
p1294
(lp1295
I6600
aS'MIA'
p1296
asS'Douglas McNeil'
p1297
(lp1298
I3000
aS'MIA'
p1299
asS'Justin Hunter'
p1300
(lp1301
I3000
aS'MIN'
p1302
asS'Danny Amendola'
p1303
(lp1304
I4200
aS'ARI'
p1305
asS'Mohamed Sanu'
p1306
(lp1307
I5100
aS'TB'
p1308
asS'Eric Weems'
p1309
(lp1310
I3000
aS'TB'
p1311
asS'Brandon LaFell'
p1312
(lp1313
I3900
aS'NYJ'
p1314
asS'Deshon Foxx'
p1315
(lp1316
I3000
aS'MIA'
p1317
asS'Jared Dangerfield'
p1318
(lp1319
I3000
aS'OAK'
p1320
asS'Andre Roberts'
p1321
(lp1322
I3000
aS'IND'
p1323
asS'Allen Hurns'
p1324
(lp1325
I5800
aS'GB'
p1326
asS'David Watford'
p1327
(lp1328
I3000
aS'CLE'
p1329
asS'Geremy Davis'
p1330
(lp1331
I3000
aS'DAL'
p1332
asS'Braxton Miller'
p1333
(lp1334
I3000
aS'CHI'
p1335
asS'Corey Fuller'
p1336
(lp1337
I3000
aS'IND'
p1338
asS'Demaryius Thomas'
p1339
(lp1340
I7000
aS'CAR'
p1341
asS'Marcus Leak'
p1342
(lp1343
I3000
aS'DET'
p1344
asS'Tommylee Lewis'
p1345
(lp1346
I3000
aS'OAK'
p1347
asS'Kadron Boone'
p1348
(lp1349
I3000
aS'DAL'
p1350
asS'Andrew Hawkins'
p1351
(lp1352
I3800
aS'PHI'
p1353
asS'Cody Latimer'
p1354
(lp1355
I3000
aS'CAR'
p1356
asS'Marken Michel'
p1357
(lp1358
I3000
aS'TEN'
p1359
asS'Charles Johnson'
p1360
(lp1361
I3000
aS'TEN'
p1362
asS'Michael Crabtree'
p1363
(lp1364
I5500
aS'NO'
p1365
asS'Arrelious Benn'
p1366
(lp1367
I3000
aS'GB'
p1368
asS'Aldrick Robinson'
p1369
(lp1370
I3000
aS'TB'
p1371
asS'Justin Hardy'
p1372
(lp1373
I3100
aS'TB'
p1374
asS'Jarius Wright'
p1375
(lp1376
I3000
aS'TEN'
p1377
asS'Torrence Allen'
p1378
(lp1379
I3000
aS'KC'
p1380
asS'Devin Street'
p1381
(lp1382
I3000
aS'NYG'
p1383
asS'Shaq Evans'
p1384
(lp1385
I3000
aS'GB'
p1386
asS'Keshawn Martin'
p1387
(lp1388
I3000
aS'ARI'
p1389
asS'Darius Jennings'
p1390
(lp1391
I3000
aS'PHI'
p1392
asS'Julio Jones'
p1393
(lp1394
I9400
aS'TB'
p1395
asS'A.J. Cruz'
p1396
(lp1397
I3000
aS'SEA'
p1398
asS'Maurice Harris'
p1399
(lp1400
I3000
aS'PIT'
p1401
asS'Corey Coleman'
p1402
(lp1403
I5100
aS'PHI'
p1404
asS'Chris Givens'
p1405
(lp1406
I3000
aS'CLE'
p1407
asS'Derek Keaton'
p1408
(lp1409
I3000
aS'HOU'
p1410
asS'Andre Debose'
p1411
(lp1412
I3000
aS'DET'
p1413
asS'Paul McRoberts'
p1414
(lp1415
I3000
aS'SF'
p1416
asS'DeVante Parker'
p1417
(lp1418
I5300
aS'SEA'
p1419
asS'DeAndre Hopkins'
p1420
(lp1421
I8800
aS'CHI'
p1422
asS'Demarcus Robinson'
p1423
(lp1424
I3000
aS'SD'
p1425
asS'Chris Moore'
p1426
(lp1427
I3000
aS'BUF'
p1428
asS'Jordan Taylor'
p1429
(lp1430
I3000
aS'CAR'
p1431
asS'Greg Salas'
p1432
(lp1433
I3000
aS'BAL'
p1434
asS'Randall Cobb'
p1435
(lp1436
I7600
ag71
asS'Kaelin Clay'
p1437
(lp1438
I3000
aS'BUF'
p1439
asS'John Brown'
p1440
(lp1441
I5200
aS'NE'
p1442
asS'Titus Davis'
p1443
(lp1444
I3000
aS'CIN'
p1445
asS'Jordy Nelson'
p1446
(lp1447
I7700
ag71
asS'Kashif Moore'
p1448
(lp1449
I3000
aS'SD'
p1450
asS'Marc Mariani'
p1451
(lp1452
I3000
aS'HOU'
p1453
asS'Cayleb Jones'
p1454
(lp1455
I3000
aS'CLE'
p1456
asS'Kenny Lawler'
p1457
(lp1458
I3000
aS'MIA'
p1459
asS'Antwan Goodley'
p1460
(lp1461
I3000
aS'MIA'
p1462
asS'Mike Evans'
p1463
(lp1464
I7400
aS'ATL'
p1465
asS'Brittan Golden'
p1466
(lp1467
I3000
aS'NE'
p1468
asS'Michael Campanaro'
p1469
(lp1470
I3000
aS'BUF'
p1471
asS'Robby Anderson'
p1472
(lp1473
I3000
aS'CIN'
p1474
asS'Stefon Diggs'
p1475
(lp1476
I4800
aS'TEN'
p1477
asS'TJ Jones'
p1478
(lp1479
I3000
aS'IND'
p1480
asS'Kolby Listenbee'
p1481
(lp1482
I3000
aS'BAL'
p1483
asS'Darrius Heyward-Bey'
p1484
(lp1485
I3600
aS'WAS'
p1486
assS'RB'
p1487
(dp1488
S'Mike James'
p1489
(lp1490
I3000
aS'ATL'
p1491
asS'Taiwan Jones'
p1492
(lp1493
I3000
aS'NO'
p1494
asS'Frank Gore'
p1495
(lp1496
I5500
aS'DET'
p1497
asS'Rashad Jennings'
p1498
(lp1499
I5400
aS'DAL'
p1500
asS'Jerick McKinnon'
p1501
(lp1502
I4600
aS'TEN'
p1503
asS'Trey Williams'
p1504
(lp1505
I3000
aS'DET'
p1506
asS'Zac Brooks'
p1507
(lp1508
I3000
aS'MIA'
p1509
asS'Daniel Herron'
p1510
(lp1511
I3000
aS'BAL'
p1512
asS'Kapri Bibbs'
p1513
(lp1514
I3000
aS'CAR'
p1515
asS'T.J. Yeldon'
p1516
(lp1517
I4100
aS'GB'
p1518
asS'Jalston Fowler'
p1519
(lp1520
I3000
aS'MIN'
p1521
asS'C.J. Ham'
p1522
(lp1523
I3000
aS'TEN'
p1524
asS'Andre Ellington'
p1525
(lp1526
I4100
aS'NE'
p1527
asS'D.J. Foster'
p1528
(lp1529
I3000
aS'ARI'
p1530
asS'Darren McFadden'
p1531
(lp1532
I4200
aS'NYG'
p1533
asS'Fozzy Whittaker'
p1534
(lp1535
I3000
aS'DEN'
p1536
asS'Terron Ward'
p1537
(lp1538
I3000
aS'TB'
p1539
asS'Kenneth Dixon'
p1540
(lp1541
I3400
aS'BUF'
p1542
asS'James Wilder'
p1543
(lp1544
I3000
aS'BAL'
p1545
asS'Tyler Ervin'
p1546
(lp1547
I3000
aS'CHI'
p1548
asS'Alex Collins'
p1549
(lp1550
I3100
aS'MIA'
p1551
asS'Theo Riddick'
p1552
(lp1553
I4000
aS'IND'
p1554
asS'Karlos Williams'
p1555
(lp1556
I3200
aS'BAL'
p1557
asS'Malcolm Brown'
p1558
(lp1559
I3000
aS'SF'
p1560
asS'Dreamius Smith'
p1561
(lp1562
I3000
aS'KC'
p1563
asS'Darren Sproles'
p1564
(lp1565
I4200
aS'CLE'
p1566
asS'Dexter McCluster'
p1567
(lp1568
I3000
aS'MIN'
p1569
asS'Dominique Williams'
p1570
(lp1571
I3000
aS'CIN'
p1572
asS'Bernard Pierce'
p1573
(lp1574
I3000
aS'CIN'
p1575
asS'Stephen Houston'
p1576
(lp1577
I3000
aS'BUF'
p1578
asS'Alan Cross'
p1579
(lp1580
I3000
aS'ATL'
p1581
asS'Christine Michael'
p1582
(lp1583
I3700
aS'MIA'
p1584
asS'Tyler Gaffney'
p1585
(lp1586
I3000
aS'ARI'
p1587
asS'Charles Sims'
p1588
(lp1589
I4400
aS'ATL'
p1590
asS'Aaron Green'
p1591
(lp1592
I3000
aS'SF'
p1593
asS'Jeremy Hill'
p1594
(lp1595
I4600
aS'NYJ'
p1596
asS'Javorius Allen'
p1597
(lp1598
I3600
aS'BUF'
p1599
asS'Jonas Gray'
p1600
(lp1601
I3000
aS'GB'
p1602
asS'Tevin Coleman'
p1603
(lp1604
I4200
aS'TB'
p1605
asS'Shaun Draughn'
p1606
(lp1607
I3700
ag86
asS'Mike Tolbert'
p1608
(lp1609
I3000
aS'DEN'
p1610
asS'Jonathan Grimes'
p1611
(lp1612
I3000
aS'CHI'
p1613
asS'Paul Perkins'
p1614
(lp1615
I3200
aS'DAL'
p1616
asS'Roosevelt Nix'
p1617
(lp1618
I3000
aS'WAS'
p1619
asS'Reggie Bush'
p1620
(lp1621
I3500
aS'BAL'
p1622
asS'Branden Oliver'
p1623
(lp1624
I3000
aS'KC'
p1625
asS'Andre Williams'
p1626
(lp1627
I3000
aS'DAL'
p1628
asS'Will Johnson'
p1629
(lp1630
I3000
aS'DAL'
p1631
asS'Raheem Mostert'
p1632
(lp1633
I3000
aS'PHI'
p1634
asS'Robert Hughes'
p1635
(lp1636
I3000
aS'PHI'
p1637
asS'Devontae Booker'
p1638
(lp1639
I3300
aS'CAR'
p1640
asS'Jamaal Charles'
p1641
(lp1642
I7100
aS'SD'
p1643
asS'Taniela Tupou'
p1644
(lp1645
I3000
aS'MIA'
p1646
asS'C.J. Anderson'
p1647
(lp1648
I5900
aS'CAR'
p1649
asS'Denard Robinson'
p1650
(lp1651
I3100
aS'GB'
p1652
asS'Jalen Simmons'
p1653
(lp1654
I3000
aS'DEN'
p1655
asS'Danny Woodhead'
p1656
(lp1657
I5000
aS'KC'
p1658
asS'Joe Banyard'
p1659
(lp1660
I3000
aS'GB'
p1661
asS'Derrick Henry'
p1662
(lp1663
I4000
aS'MIN'
p1664
asS'Khiry Robinson'
p1665
(lp1666
I3000
aS'CIN'
p1667
asS'Ameer Abdullah'
p1668
(lp1669
I4900
aS'IND'
p1670
asS'Fitzgerald Toussaint'
p1671
(lp1672
I3500
aS'WAS'
p1673
asS'Michael Burton'
p1674
(lp1675
I3000
aS'IND'
p1676
asS'Bobby Rainey'
p1677
(lp1678
I3000
aS'DAL'
p1679
asS'James White'
p1680
(lp1681
I3600
aS'ARI'
p1682
asS'Melvin Gordon'
p1683
(lp1684
I4600
aS'KC'
p1685
asS'George Atkinson'
p1686
(lp1687
I3000
aS'NO'
p1688
asS'Kenneth Farrow'
p1689
(lp1690
I3000
aS'KC'
p1691
asS'Daniel Thomas'
p1692
(lp1693
I3000
aS'SEA'
p1694
asS'DeAngelo Williams'
p1695
(lp1696
I7000
aS'WAS'
p1697
asS'James Starks'
p1698
(lp1699
I4800
ag71
asS'Andrew Bonnet'
p1700
(lp1701
I3000
aS'NYJ'
p1702
asS'Zach Zenner'
p1703
(lp1704
I3000
aS'IND'
p1705
asS'David Fluellen'
p1706
(lp1707
I3000
aS'MIN'
p1708
asS'Marshaun Coprich'
p1709
(lp1710
I3000
aS'DAL'
p1711
asS'Senorise Perry'
p1712
(lp1713
I3000
aS'HOU'
p1714
asS'Lorenzo Taliaferro'
p1715
(lp1716
I3200
aS'BUF'
p1717
asS'Chris Johnson'
p1718
(lp1719
I3700
aS'NE'
p1720
asS'LeGarrette Blount'
p1721
(lp1722
I3700
aS'ARI'
p1723
asS'Jhurell Pressley'
p1724
(lp1725
I3000
aS'TEN'
p1726
asS'Rob Kelley'
p1727
(lp1728
I4300
aS'PIT'
p1729
asS'John Crockett'
p1730
(lp1731
I3000
ag71
asS'Lance Dunbar'
p1732
(lp1733
I3000
aS'NYG'
p1734
asS'Andy Janovich'
p1735
(lp1736
I3000
aS'CAR'
p1737
asS'Wendell Smallwood'
p1738
(lp1739
I3000
aS'CLE'
p1740
asS'George Winn'
p1741
(lp1742
I3000
aS'IND'
p1743
asS'Joey Iosefa'
p1744
(lp1745
I3000
aS'ARI'
p1746
asS'David Cobb'
p1747
(lp1748
I3000
aS'MIN'
p1749
asS'Romar Morris'
p1750
(lp1751
I3000
aS'CIN'
p1752
asS'Dion Lewis'
p1753
(lp1754
I5700
aS'ARI'
p1755
asS'Nikita Whitlock'
p1756
(lp1757
I3000
aS'DAL'
p1758
asS'Matthew Tucker'
p1759
(lp1760
I3000
aS'CIN'
p1761
asS'Antonio Andrews'
p1762
(lp1763
I3000
aS'MIN'
p1764
asS'Glenn Gronkowski'
p1765
(lp1766
I3000
aS'BAL'
p1767
asS'Mack Brown'
p1768
(lp1769
I3000
aS'PIT'
p1770
asS'Cedric Peerman'
p1771
(lp1772
I3000
aS'NYJ'
p1773
asS'Jay Ajayi'
p1774
(lp1775
I4200
aS'SEA'
p1776
asS'DeMarco Murray'
p1777
(lp1778
I5300
aS'MIN'
p1779
asS'Eddie Lacy'
p1780
(lp1781
I6700
ag71
asS"Le'Veon Bell"
p1782
(lp1783
I7400
aS'WAS'
p1784
asS'Isaiah Crowell'
p1785
(lp1786
I4200
aS'PHI'
p1787
asS'Darius Jackson'
p1788
(lp1789
I3000
aS'NYG'
p1790
asS'Todd Gurley'
p1791
(lp1792
I7800
aS'SF'
p1793
asS'Daniel Lasco'
p1794
(lp1795
I3000
aS'OAK'
p1796
asS'Duke Johnson'
p1797
(lp1798
I5100
aS'PHI'
p1799
asS'Terrence Magee'
p1800
(lp1801
I3000
aS'SF'
p1802
asS'Adrian Peterson'
p1803
(lp1804
I7600
aS'TEN'
p1805
asS'Byron Marshall'
p1806
(lp1807
I3000
aS'CLE'
p1808
asS'Giovani Bernard'
p1809
(lp1810
I4800
aS'NYJ'
p1811
asS'Terrell Watson'
p1812
(lp1813
I3500
aS'PHI'
p1814
asS'LeSean McCoy'
p1815
(lp1816
I6400
aS'BAL'
p1817
asS'Storm Johnson'
p1818
(lp1819
I3000
aS'ATL'
p1820
asS'Corey Grant'
p1821
(lp1822
I3000
aS'GB'
p1823
asS'Dwayne Washington'
p1824
(lp1825
I3000
aS'IND'
p1826
asS'Brandon Wilds'
p1827
(lp1828
I3000
aS'TB'
p1829
asS'Terrance West'
p1830
(lp1831
I4100
aS'BUF'
p1832
asS'Bilal Powell'
p1833
(lp1834
I4300
aS'CIN'
p1835
asS'Alfred Morris'
p1836
(lp1837
I3800
aS'NYG'
p1838
asS'Mark Ingram'
p1839
(lp1840
I6600
aS'OAK'
p1841
asS'Chase Reynolds'
p1842
(lp1843
I3000
aS'SF'
p1844
asS'Rod Smith'
p1845
(lp1846
I3000
aS'NYG'
p1847
asS'Blake Renaud'
p1848
(lp1849
I3000
aS'TEN'
p1850
asS'Benny Cunningham'
p1851
(lp1852
I3700
aS'SF'
p1853
asS'Chris Ivory'
p1854
(lp1855
I4300
aS'GB'
p1856
asS'Jordan Todman'
p1857
(lp1858
I3000
aS'DET'
p1859
asS'Cameron Artis-Payne'
p1860
(lp1861
I3000
aS'DEN'
p1862
asS'Derek Watt'
p1863
(lp1864
I3000
aS'KC'
p1865
asS'Isaiah Pead'
p1866
(lp1867
I3000
aS'SEA'
p1868
asS'Juwan Thompson'
p1869
(lp1870
I3000
aS'CAR'
p1871
asS'Doug Martin'
p1872
(lp1873
I6200
aS'ATL'
p1874
asS'Gus Johnson'
p1875
(lp1876
I3000
aS'TB'
p1877
asS'David Johnson'
p1878
(lp1879
I7500
aS'NE'
p1880
asS'Rex Burkhead'
p1881
(lp1882
I3000
aS'NYJ'
p1883
asS'Brandon Burks'
p1884
(lp1885
I3000
ag71
asS'Ryan Mathews'
p1886
(lp1887
I5700
aS'CLE'
p1888
asS'Jonathan Stewart'
p1889
(lp1890
I5100
aS'DEN'
p1891
asS'Bronson Hill'
p1892
(lp1893
I3000
aS'NYJ'
p1894
asS'Will Ratelle'
p1895
(lp1896
I3000
aS'TB'
p1897
asS'Kelvin Taylor'
p1898
(lp1899
I3000
ag86
asS'Damien Williams'
p1900
(lp1901
I3000
aS'SEA'
p1902
asS'Tim Hightower'
p1903
(lp1904
I4300
aS'OAK'
p1905
asS'Brandon Bolden'
p1906
(lp1907
I3000
aS'ARI'
p1908
asS'Stevan Ridley'
p1909
(lp1910
I3000
aS'IND'
p1911
asS'Brandon Wegher'
p1912
(lp1913
I3000
aS'DEN'
p1914
asS'Jeremy Langford'
p1915
(lp1916
I4700
aS'HOU'
p1917
asS'Kevin Monangai'
p1918
(lp1919
I3000
aS'TEN'
p1920
asS'Brandon Brown-Dukes'
p1921
(lp1922
I3000
aS'WAS'
p1923
asS'Daryl Richardson'
p1924
(lp1925
I3000
aS'WAS'
p1926
asS'Akeem Hunt'
p1927
(lp1928
I3000
aS'CHI'
p1929
asS'Knile Davis'
p1930
(lp1931
I3100
aS'SD'
p1932
asS'Chris Swain'
p1933
(lp1934
I3000
aS'KC'
p1935
asS'Anthony Sherman'
p1936
(lp1937
I3000
aS'SD'
p1938
asS'Sione Houma'
p1939
(lp1940
I3000
aS'OAK'
p1941
asS'Glenn Winston'
p1942
(lp1943
I3000
aS'PHI'
p1944
asS'Patrick DiMarco'
p1945
(lp1946
I3000
aS'TB'
p1947
asS'Peyton Barber'
p1948
(lp1949
I3000
aS'ATL'
p1950
asS'Stepfan Taylor'
p1951
(lp1952
I3000
aS'NE'
p1953
asS'Aaron Ripkowski'
p1954
(lp1955
I3000
ag71
asS'Brandon Ross'
p1956
(lp1957
I3000
ag71
asS'Russell Hansbrough'
p1958
(lp1959
I3000
aS'ATL'
p1960
asS'Carlos Hyde'
p1961
(lp1962
I5600
ag86
asS'Cameron Marshall'
p1963
(lp1964
I3000
aS'MIA'
p1965
asS'Orleans Darkwa'
p1966
(lp1967
I3000
aS'DAL'
p1968
asS'Kenjon Barner'
p1969
(lp1970
I3000
aS'CLE'
p1971
asS'Arian Foster'
p1972
(lp1973
I5800
aS'SEA'
p1974
asS'Marcel Reece'
p1975
(lp1976
I3000
aS'NO'
p1977
asS'Latavius Murray'
p1978
(lp1979
I5600
aS'NO'
p1980
asS'Bruce Miller'
p1981
(lp1982
I3000
ag86
asS'Alstevis Squirewell'
p1983
(lp1984
I3000
ag71
asS'DuJuan Harris'
p1985
(lp1986
I3000
ag86
asS'Soma Vainuku'
p1987
(lp1988
I3000
aS'CHI'
p1989
asS'Abou Toure'
p1990
(lp1991
I3000
aS'DET'
p1992
asS'Shane Vereen'
p1993
(lp1994
I3800
aS'DAL'
p1995
asS'C.J. Prosise'
p1996
(lp1997
I3900
aS'MIA'
p1998
asS'Bishop Sankey'
p1999
(lp2000
I3000
aS'MIN'
p2001
asS'Josh Ferguson'
p2002
(lp2003
I3500
aS'DET'
p2004
asS'Spencer Ware'
p2005
(lp2006
I4400
aS'SD'
p2007
asS'Justin Forsett'
p2008
(lp2009
I4600
aS'BUF'
p2010
asS'Austin Johnson'
p2011
(lp2012
I3000
aS'OAK'
p2013
asS'Paul Lasike'
p2014
(lp2015
I3000
aS'HOU'
p2016
asS'Chris Thompson'
p2017
(lp2018
I4000
aS'PIT'
p2019
asS'Tommy Bohanon'
p2020
(lp2021
I3000
aS'CIN'
p2022
asS'Jacquizz Rodgers'
p2023
(lp2024
I3100
aS'HOU'
p2025
asS'Charcandrick West'
p2026
(lp2027
I3500
aS'SD'
p2028
asS'Elijhaa Penny'
p2029
(lp2030
I3000
aS'NE'
p2031
asS'Brandon Cottom'
p2032
(lp2033
I3000
aS'MIA'
p2034
asS'Rajion Neal'
p2035
(lp2036
I3000
aS'PHI'
p2037
asS'Darrin Reaves'
p2038
(lp2039
I3000
aS'SD'
p2040
asS'Ronnie Hillman'
p2041
(lp2042
I3000
aS'CAR'
p2043
asS'Kerwynn Williams'
p2044
(lp2045
I3000
aS'NE'
p2046
asS'Kyle Juszczyk'
p2047
(lp2048
I3100
aS'BUF'
p2049
asS'Jordan Howard'
p2050
(lp2051
I3700
aS'HOU'
p2052
asS'Travaris Cadet'
p2053
(lp2054
I3000
aS'OAK'
p2055
asS'Tre Madden'
p2056
(lp2057
I3000
aS'MIA'
p2058
asS"Ka'Deem Carey"
p2059
(lp2060
I3500
aS'HOU'
p2061
asS'Devonta Freeman'
p2062
(lp2063
I6900
aS'TB'
p2064
asS'Alfred Blue'
p2065
(lp2066
I3600
aS'CHI'
p2067
asS'Kenny Hilliard'
p2068
(lp2069
I3000
aS'CHI'
p2070
asS'Matt Forte'
p2071
(lp2072
I6100
aS'CIN'
p2073
asS'Jonathan Williams'
p2074
(lp2075
I3000
aS'BAL'
p2076
asS'Mike Gillislee'
p2077
(lp2078
I3800
aS'BAL'
p2079
asS'Malcolm Johnson'
p2080
(lp2081
I3000
aS'PHI'
p2082
asS'Jalen Richard'
p2083
(lp2084
I3000
aS'NO'
p2085
asS'Kenyan Drake'
p2086
(lp2087
I3000
aS'SEA'
p2088
asS'Cameron Stingily'
p2089
(lp2090
I3000
aS'WAS'
p2091
asS'Jerome Felton'
p2092
(lp2093
I3000
aS'BAL'
p2094
asS'Sam Bergen'
p2095
(lp2096
I3000
aS'MIN'
p2097
asS'Matt Jones'
p2098
(lp2099
I4700
aS'PIT'
p2100
asS'Mike Davis'
p2101
(lp2102
I3000
ag86
asS'Lamar Miller'
p2103
(lp2104
I7000
aS'CHI'
p2105
asS"Cedric O'Neal"
p2106
(lp2107
I3000
aS'CLE'
p2108
asS'Ezekiel Elliott'
p2109
(lp2110
I7300
aS'NYG'
p2111
asS'Donald Brown'
p2112
(lp2113
I3000
aS'ARI'
p2114
asS'Darrel Young'
p2115
(lp2116
I3000
aS'HOU'
p2117
asS'Joe Kerridge'
p2118
(lp2119
I3000
aS'PIT'
p2120
asS'Jeff Luc'
p2121
(lp2122
I3000
aS'NYJ'
p2123
asS'DeAndre Washington'
p2124
(lp2125
I3700
aS'NO'
p2126
asS'Jay Prosch'
p2127
(lp2128
I3000
aS'CHI'
p2129
asS'Tra Carson'
p2130
(lp2131
I3000
aS'NYJ'
p2132
asS'C.J. Spiller'
p2133
(lp2134
I3600
aS'OAK'
p2135
asS'Trey Millard'
p2136
(lp2137
I3000
aS'SD'
p2138
asS'Marcus Murphy'
p2139
(lp2140
I3000
aS'OAK'
p2141
asS'Matt Asiata'
p2142
(lp2143
I3300
aS'TEN'
p2144
asS'Robert Turbin'
p2145
(lp2146
I3000
aS'DET'
p2147
asS'James Develin'
p2148
(lp2149
I3000
aS'ARI'
p2150
asS'Zach Line'
p2151
(lp2152
I3000
aS'TEN'
p2153
asS'Thomas Rawls'
p2154
(lp2155
I6000
aS'MIA'
p2156
asS'Jamize Olawale'
p2157
(lp2158
I3000
aS'NO'
p2159
assS'TE'
p2160
(dp2161
S'Brian Leonhardt'
p2162
(lp2163
I2500
aS'TEN'
p2164
asS'Ifeanyi Momah'
p2165
(lp2166
I2500
aS'NE'
p2167
asS'Eric Tomlinson'
p2168
(lp2169
I2500
aS'CHI'
p2170
asS'Will Tye'
p2171
(lp2172
I3300
aS'DAL'
p2173
asS'Lee Smith'
p2174
(lp2175
I2500
aS'NO'
p2176
asS'Maxx Williams'
p2177
(lp2178
I2600
aS'BUF'
p2179
asS'Brent Celek'
p2180
(lp2181
I2700
aS'CLE'
p2182
asS'Brian Parker'
p2183
(lp2184
I2500
aS'SD'
p2185
asS'Jason Witten'
p2186
(lp2187
I4100
aS'NYG'
p2188
asS'Greg Scruggs'
p2189
(lp2190
I2500
aS'HOU'
p2191
asS'Levine Toilolo'
p2192
(lp2193
I2500
aS'TB'
p2194
asS'Konrad Reuland'
p2195
(lp2196
I2500
aS'DET'
p2197
asS'Ben Koyack'
p2198
(lp2199
I2500
aS'GB'
p2200
asS'Henry Krieger-Coble'
p2201
(lp2202
I2500
aS'CAR'
p2203
asS'Kyle Carter'
p2204
(lp2205
I2500
aS'TEN'
p2206
asS'E.J. Bibbs'
p2207
(lp2208
I2500
aS'PHI'
p2209
asS'Clay Harbor'
p2210
(lp2211
I2500
aS'ARI'
p2212
asS'Emil Igwenagu'
p2213
(lp2214
I2500
aS'DET'
p2215
asS'Larry Donnell'
p2216
(lp2217
I2900
aS'DAL'
p2218
asS'Garrett Celek'
p2219
(lp2220
I2700
ag86
asS'Bear Pascoe'
p2221
(lp2222
I2500
aS'ARI'
p2223
asS'Casey Pierce'
p2224
(lp2225
I2500
ag71
asS'John Phillips'
p2226
(lp2227
I2500
aS'CAR'
p2228
asS'Gabe Hughes'
p2229
(lp2230
I2500
aS'SEA'
p2231
asS'Garrett Griffin'
p2232
(lp2233
I2500
aS'OAK'
p2234
asS'Geoff Swaim'
p2235
(lp2236
I2500
aS'NYG'
p2237
asS'Logan Paulsen'
p2238
(lp2239
I2500
aS'PIT'
p2240
asS'Jordan Reed'
p2241
(lp2242
I6600
aS'PIT'
p2243
asS"Ryan O'Malley"
p2244
(lp2245
I2500
aS'NO'
p2246
asS'Mychal Rivera'
p2247
(lp2248
I2600
aS'NO'
p2249
asS'Marcedes Lewis'
p2250
(lp2251
I2700
aS'GB'
p2252
asS'J.P. Holtz'
p2253
(lp2254
I2500
aS'PHI'
p2255
asS'Hunter Henry'
p2256
(lp2257
I2500
aS'KC'
p2258
asS'Trey Burton'
p2259
(lp2260
I2500
aS'CLE'
p2261
asS'Jermaine Gresham'
p2262
(lp2263
I2500
aS'NE'
p2264
asS'RaShaun Allen'
p2265
(lp2266
I2500
aS'OAK'
p2267
asS'Cory Harkey'
p2268
(lp2269
I2500
aS'SF'
p2270
asS'Dion Sims'
p2271
(lp2272
I2500
aS'SEA'
p2273
asS'Tyler Higbee'
p2274
(lp2275
I2500
aS'SF'
p2276
asS'Jerell Adams'
p2277
(lp2278
I2500
aS'DAL'
p2279
asS'Colton Underwood'
p2280
(lp2281
I2500
aS'NO'
p2282
asS"James O'Shaughnessy"
p2283
(lp2284
I2500
aS'SD'
p2285
asS'David Morgan'
p2286
(lp2287
I2500
aS'TEN'
p2288
asS'Tony Moeaki'
p2289
(lp2290
I2500
aS'HOU'
p2291
asS'Stephen Anderson'
p2292
(lp2293
I2500
aS'CHI'
p2294
asS'Vance McDonald'
p2295
(lp2296
I3100
ag86
asS'Zach Sudfeld'
p2297
(lp2298
I2500
aS'CIN'
p2299
asS'Jordan Cameron'
p2300
(lp2301
I3000
aS'SEA'
p2302
asS'Temarrick Hemingway'
p2303
(lp2304
I2500
aS'SF'
p2305
asS'Nic Jacobs'
p2306
(lp2307
I2500
aS'GB'
p2308
asS'Ryan Malleck'
p2309
(lp2310
I2500
aS'DAL'
p2311
asS'Clark Harris'
p2312
(lp2313
I2500
aS'NYJ'
p2314
asS'John DePalma'
p2315
(lp2316
I2500
aS'CLE'
p2317
asS'Coby Fleener'
p2318
(lp2319
I4900
aS'OAK'
p2320
asS'Tyler Ott'
p2321
(lp2322
I2500
aS'DAL'
p2323
asS'Braedon Bowman'
p2324
(lp2325
I2500
aS'GB'
p2326
asS'Gary Barnidge'
p2327
(lp2328
I4700
aS'PHI'
p2329
asS'Arthur Lynch'
p2330
(lp2331
I2500
aS'TB'
p2332
asS'Cameron Brate'
p2333
(lp2334
I2900
aS'ATL'
p2335
asS'Rico Gathers'
p2336
(lp2337
I2500
aS'NYG'
p2338
asS'Beau Brinkley'
p2339
(lp2340
I2500
aS'MIN'
p2341
asS'Marcus Lucas'
p2342
(lp2343
I2500
aS'DEN'
p2344
asS'Jared Cook'
p2345
(lp2346
I2900
ag71
asS'Kyle Rudolph'
p2347
(lp2348
I3000
aS'TEN'
p2349
asS'Dennis Pitta'
p2350
(lp2351
I2600
aS'BUF'
p2352
asS'Matt Weiser'
p2353
(lp2354
I2500
aS'KC'
p2355
asS'Kyle Nelson'
p2356
(lp2357
I2500
ag86
asS'Nick Vannett'
p2358
(lp2359
I2500
aS'MIA'
p2360
asS"Je'Ron Hamm"
p2361
(lp2362
I2500
ag86
asS'Erik Swoope'
p2363
(lp2364
I2500
aS'DET'
p2365
asS'Zach Ertz'
p2366
(lp2367
I4300
aS'CLE'
p2368
asS'Anthony Fasano'
p2369
(lp2370
I2500
aS'MIN'
p2371
asS'Phillip Supernaw'
p2372
(lp2373
I2500
aS'MIN'
p2374
asS'Orson Charles'
p2375
(lp2376
I2500
aS'IND'
p2377
asS'Nick Boyle'
p2378
(lp2379
I2500
aS'BUF'
p2380
asS'Richard Rodgers'
p2381
(lp2382
I3100
ag71
asS'Patrick Scales'
p2383
(lp2384
I2500
aS'HOU'
p2385
asS'Darren Fells'
p2386
(lp2387
I2700
aS'NE'
p2388
asS'Martellus Bennett'
p2389
(lp2390
I3400
aS'ARI'
p2391
asS'Khari Lee'
p2392
(lp2393
I2500
aS'HOU'
p2394
asS'MyCole Pruitt'
p2395
(lp2396
I2500
aS'TEN'
p2397
asS'Chris Pantale'
p2398
(lp2399
I2500
aS'CLE'
p2400
asS'Luke Stocker'
p2401
(lp2402
I2500
aS'ATL'
p2403
asS'Chris Manhertz'
p2404
(lp2405
I2500
aS'OAK'
p2406
asS'Clayton Echard'
p2407
(lp2408
I2500
aS'MIA'
p2409
asS'Marcel Jensen'
p2410
(lp2411
I2500
aS'PIT'
p2412
asS'Jerome Cunningham'
p2413
(lp2414
I2500
aS'MIN'
p2415
asS'MarQueis Gray'
p2416
(lp2417
I2500
aS'SEA'
p2418
asS'Asante Cleveland'
p2419
(lp2420
I2500
aS'KC'
p2421
asS"Nick O'Leary"
p2422
(lp2423
I2500
aS'BAL'
p2424
asS'Demetrius Harris'
p2425
(lp2426
I2500
aS'SD'
p2427
asS'James Winchester'
p2428
(lp2429
I2500
aS'SD'
p2430
asS'Clive Walford'
p2431
(lp2432
I3000
aS'NO'
p2433
asS'Jesse James'
p2434
(lp2435
I3400
aS'WAS'
p2436
asS'Eric Wallace'
p2437
(lp2438
I2500
aS'DEN'
p2439
asS'Blake Annen'
p2440
(lp2441
I2500
aS'BAL'
p2442
asS'Troy Niklas'
p2443
(lp2444
I2500
aS'NE'
p2445
asS'Scott Simonson'
p2446
(lp2447
I2500
aS'DEN'
p2448
asS'Darren Waller'
p2449
(lp2450
I2500
aS'BUF'
p2451
asS'Austin Seferian-Jenkins'
p2452
(lp2453
I2800
aS'ATL'
p2454
asS'Jace Amaro'
p2455
(lp2456
I2700
aS'CIN'
p2457
asS'Ed Dickson'
p2458
(lp2459
I2500
aS'DEN'
p2460
asS'Zach Miller'
p2461
(lp2462
I3700
aS'HOU'
p2463
asS'Thomas Duarte'
p2464
(lp2465
I2500
aS'SEA'
p2466
asS'Dwayne Allen'
p2467
(lp2468
I3200
aS'DET'
p2469
asS'Matthew Mulligan'
p2470
(lp2471
I2500
aS'IND'
p2472
asS'Brandon Bostick'
p2473
(lp2474
I2500
aS'CIN'
p2475
asS'A.J. Derby'
p2476
(lp2477
I2500
aS'ARI'
p2478
asS'Ryan Griffin'
p2479
(lp2480
I2600
aS'CHI'
p2481
asS'Gavin Escobar'
p2482
(lp2483
I2600
aS'NYG'
p2484
asS'Gabe Holmes'
p2485
(lp2486
I2500
aS'NO'
p2487
asS'Austin Traylor'
p2488
(lp2489
I2500
aS'NYG'
p2490
asS'Jimmy Graham'
p2491
(lp2492
I3800
aS'MIA'
p2493
asS'Antonio Gates'
p2494
(lp2495
I4200
aS'KC'
p2496
asS'Kellen Davis'
p2497
(lp2498
I2500
aS'CIN'
p2499
asS'Danny Vitale'
p2500
(lp2501
I2500
aS'ATL'
p2502
asS'Chris Gragg'
p2503
(lp2504
I2500
aS'BAL'
p2505
asS'Alex Ellis'
p2506
(lp2507
I2500
aS'MIN'
p2508
asS'Vernon Davis'
p2509
(lp2510
I2600
aS'PIT'
p2511
asS'David Johnson'
p2512
(lp2513
I2500
aS'WAS'
p2514
asS'Rob Gronkowski'
p2515
(lp2516
I7400
aS'ARI'
p2517
asS'David Reeves'
p2518
(lp2519
I2500
aS'PHI'
p2520
asS'Blake Bell'
p2521
(lp2522
I2500
ag86
asS'Jack Doyle'
p2523
(lp2524
I2500
aS'DET'
p2525
asS'Matt Lengel'
p2526
(lp2527
I2500
aS'NYJ'
p2528
asS'Beau Sandland'
p2529
(lp2530
I2500
aS'DEN'
p2531
asS'Kivon Cartwright'
p2532
(lp2533
I2500
aS'ATL'
p2534
asS'Hakeem Valles'
p2535
(lp2536
I2500
aS'NE'
p2537
asS'Seth DeValve'
p2538
(lp2539
I2500
aS'PHI'
p2540
asS'Josh Hill'
p2541
(lp2542
I2500
aS'OAK'
p2543
asS'Rob Housler'
p2544
(lp2545
I2500
aS'HOU'
p2546
asS'Julius Thomas'
p2547
(lp2548
I3800
aS'GB'
p2549
asS'Sean McGrath'
p2550
(lp2551
I2500
aS'KC'
p2552
asS'Daniel Dillon'
p2553
(lp2554
I2500
aS'NE'
p2555
asS'Cooper Helfet'
p2556
(lp2557
I2500
aS'MIA'
p2558
asS'Justice Cunningham'
p2559
(lp2560
I2500
aS'SF'
p2561
asS'Ross Travis'
p2562
(lp2563
I2500
aS'SD'
p2564
asS'Travis Kelce'
p2565
(lp2566
I5000
aS'SD'
p2567
asS'Tyler Kroft'
p2568
(lp2569
I2700
aS'NYJ'
p2570
asS'Mitchell Henry'
p2571
(lp2572
I2500
ag71
asS'Crockett Gillmore'
p2573
(lp2574
I2600
aS'BUF'
p2575
asS'Brandon Myers'
p2576
(lp2577
I2500
aS'ATL'
p2578
asS'Wes Saxton'
p2579
(lp2580
I2500
aS'CIN'
p2581
asS'Charles Clay'
p2582
(lp2583
I3400
aS'BAL'
p2584
asS'Jim Dray'
p2585
(lp2586
I2500
aS'BAL'
p2587
asS'Craig Stevens'
p2588
(lp2589
I2500
aS'MIN'
p2590
asS'Matt LaCosse'
p2591
(lp2592
I2500
aS'DAL'
p2593
asS'C.J. Uzomah'
p2594
(lp2595
I2500
aS'NYJ'
p2596
asS'Kennard Backman'
p2597
(lp2598
I2500
ag71
asS'Greg Olsen'
p2599
(lp2600
I5100
aS'DEN'
p2601
asS'Gannon Sinclair'
p2602
(lp2603
I2500
aS'HOU'
p2604
asS'Rhett Ellison'
p2605
(lp2606
I2500
aS'TEN'
p2607
asS'Justin Perillo'
p2608
(lp2609
I2500
ag71
asS'Eric Ebron'
p2610
(lp2611
I3900
aS'IND'
p2612
asS'James Hanna'
p2613
(lp2614
I2500
aS'NYG'
p2615
asS'Tim Semisch'
p2616
(lp2617
I2500
aS'KC'
p2618
asS'Delanie Walker'
p2619
(lp2620
I4500
aS'MIN'
p2621
asS'Kevin McDermott'
p2622
(lp2623
I2500
aS'TEN'
p2624
asS'Tyler Eifert'
p2625
(lp2626
I4700
aS'NYJ'
p2627
asS'Tevin Westbrook'
p2628
(lp2629
I2500
aS'ATL'
p2630
asS'John Peters'
p2631
(lp2632
I2500
aS'NYJ'
p2633
asS'Ryan Hewitt'
p2634
(lp2635
I2500
aS'NYJ'
p2636
asS'C.J. Fiedorowicz'
p2637
(lp2638
I2500
aS'CHI'
p2639
asS'Randall Telfer'
p2640
(lp2641
I2500
aS'PHI'
p2642
asS'Jason Vander'
p2643
(lp2644
I2500
aS'CIN'
p2645
asS'Jeff Heuerman'
p2646
(lp2647
I2500
aS'CAR'
p2648
asS'Xavier Grimble'
p2649
(lp2650
I2500
aS'WAS'
p2651
asS'Adam Fuehne'
p2652
(lp2653
I2500
aS'IND'
p2654
asS'Dominique Jones'
p2655
(lp2656
I2500
aS'SEA'
p2657
asS'Paul Lang'
p2658
(lp2659
I2500
aS'WAS'
p2660
asS'Anthony Denham'
p2661
(lp2662
I2500
aS'CHI'
p2663
asS'Benjamin Watson'
p2664
(lp2665
I3500
aS'BUF'
p2666
asS'Darion Griswold'
p2667
(lp2668
I2500
aS'DET'
p2669
asS'Steven Scheu'
p2670
(lp2671
I2500
aS'ARI'
p2672
asS'Gerald Christian'
p2673
(lp2674
I2500
aS'NE'
p2675
asS'Joshua Perkins'
p2676
(lp2677
I2500
aS'TB'
p2678
asS'Michael Hoomanawanui'
p2679
(lp2680
I2500
aS'OAK'
p2681
asS'Andrew DePaola'
p2682
(lp2683
I2500
aS'ATL'
p2684
asS'Jacob Tamme'
p2685
(lp2686
I2800
aS'TB'
p2687
asS'Lance Kendricks'
p2688
(lp2689
I3200
aS'SF'
p2690
asS'Luke Willson'
p2691
(lp2692
I2700
aS'MIA'
p2693
asS'M.J. McFarland'
p2694
(lp2695
I2500
aS'CLE'
p2696
asS'Virgil Green'
p2697
(lp2698
I2900
aS'CAR'
p2699
asS'Jeff Cumberland'
p2700
(lp2701
I2500
aS'KC'
p2702
asS'Bryce Williams'
p2703
(lp2704
I2500
aS'ARI'
p2705
asS'Brandon Pettigrew'
p2706
(lp2707
I2500
aS'IND'
p2708
asS'Austin Hooper'
p2709
(lp2710
I2500
aS'TB'
p2711
asS'Cole Wick'
p2712
(lp2713
I2500
aS'IND'
p2714
asS'Ben McCord'
p2715
(lp2716
I2500
aS'IND'
p2717
asS'Brandon Williams'
p2718
(lp2719
I2500
aS'MIA'
p2720
asS'Ben Braunecker'
p2721
(lp2722
I2500
aS'HOU'
p2723
asS'Ronnie Shields'
p2724
(lp2725
I2500
aS'MIA'
p2726
asS'Niles Paul'
p2727
(lp2728
I2500
aS'PIT'
p2729
asS'Connor Hamlett'
p2730
(lp2731
I2500
aS'PHI'
p2732
asS'D.J. Tialavea'
p2733
(lp2734
I2500
aS'TB'
p2735
ass.