(dp0
S'DST'
p1
(dp2
S'Broncos'
p3
(lp4
I3500
aS'CIN'
p5
aS'DEN'
p6
asS'Vikings'
p7
(lp8
I3100
aS'CAR'
p9
aS'MIN'
p10
asS'Bears'
p11
(lp12
I2700
aS'DAL'
p13
aS'CHI'
p14
asS'Falcons'
p15
(lp16
I2000
aS'NO'
p17
aS'ATL'
p18
asS'Saints'
p19
(lp20
I2200
aS'ATL'
p21
aS'NO'
p22
asS'Chargers'
p23
(lp24
I2300
aS'IND'
p25
aS'SD'
p26
asS'Raiders'
p27
(lp28
I2600
aS'TEN'
p29
aS'OAK'
p30
asS'Lions'
p31
(lp32
I2400
aS'GB'
p33
aS'DET'
p34
asS'Browns'
p35
(lp36
I2300
aS'MIA'
p37
aS'CLE'
p38
asS'Eagles'
p39
(lp40
I2800
aS'PIT'
p41
aS'PHI'
p42
asS'Steelers'
p43
(lp44
I2900
aS'PHI'
p45
aS'PIT'
p46
asS'Giants'
p47
(lp48
I3300
aS'WAS'
p49
aS'NYG'
p50
asS'Buccaneers'
p51
(lp52
I3100
aS'STL'
p53
aS'TB'
p54
asS'Cardinals'
p55
(lp56
I3600
aS'BUF'
p57
aS'ARI'
p58
asS'Bengals'
p59
(lp60
I2800
aS'DEN'
p61
aS'CIN'
p62
asS'Chiefs'
p63
(lp64
I3200
aS'NYJ'
p65
aS'KC'
p66
asS'Dolphins'
p67
(lp68
I3000
aS'CLE'
p69
aS'MIA'
p70
asS'Jaguars'
p71
(lp72
I2600
aS'BAL'
p73
aS'JAC'
p74
asS'Seahawks'
p75
(lp76
I4100
aS'SF'
p77
aS'SEA'
p78
asS'Jets'
p79
(lp80
I2900
aS'KC'
p81
aS'NYJ'
p82
asS'Ravens'
p83
(lp84
I2500
ag74
aS'BAL'
p85
asS'Colts'
p86
(lp87
I2400
aS'SD'
p88
aS'IND'
p89
asS'Packers'
p90
(lp91
I3000
aS'DET'
p92
aS'GB'
p93
asS'Titans'
p94
(lp95
I2500
aS'OAK'
p96
aS'TEN'
p97
asS'Rams'
p98
(lp99
I3000
aS'TB'
p100
ag53
asS'Bills'
p101
(lp102
I2700
aS'ARI'
p103
aS'BUF'
p104
asS'Texans'
p105
(lp106
I3000
aS'NE'
p107
aS'HOU'
p108
asS'49ers'
p109
(lp110
I2400
aS'SEA'
p111
aS'SF'
p112
asS'Patriots'
p113
(lp114
I3200
aS'HOU'
p115
aS'NE'
p116
asS'Cowboys'
p117
(lp118
I2500
aS'CHI'
p119
aS'DAL'
p120
asS'Panthers'
p121
(lp122
I3800
aS'MIN'
p123
aS'CAR'
p124
asS'Redskins'
p125
(lp126
I2400
aS'NYG'
p127
aS'WAS'
p128
assS'QB'
p129
(dp130
S'Ryan Tannehill'
p131
(lp132
I6200
aS'CLE'
p133
aS'MIA'
p134
asS'Carson Wentz'
p135
(lp136
I5500
aS'PIT'
p137
aS'PHI'
p138
asS'Tom Savage'
p139
(lp140
I5000
aS'NE'
p141
aS'HOU'
p142
asS'Landry Jones'
p143
(lp144
I5000
aS'PHI'
p145
aS'PIT'
p146
asS'Colt McCoy'
p147
(lp148
I5000
aS'NYG'
p149
aS'WAS'
p150
asS'Cam Newton'
p151
(lp152
I7800
aS'MIN'
p153
aS'CAR'
p154
asS'Josh McCown'
p155
(lp156
I5600
aS'MIA'
p157
aS'CLE'
p158
asS'Chase Daniel'
p159
(lp160
I5000
aS'PIT'
p161
aS'PHI'
p162
asS'Mark Sanchez'
p163
(lp164
I5000
aS'CHI'
p165
aS'DAL'
p166
asS'Jared Goff'
p167
(lp168
I5000
aS'TB'
p169
ag53
asS'Mike Glennon'
p170
(lp171
I5000
ag53
aS'TB'
p172
asS'Colin Kaepernick'
p173
(lp174
I5000
aS'SEA'
p175
aS'SF'
p176
asS'Blake Bortles'
p177
(lp178
I6500
aS'BAL'
p179
ag74
asS'Connor Cook'
p180
(lp181
I5000
aS'TEN'
p182
aS'OAK'
p183
asS'Brett Hundley'
p184
(lp185
I5000
aS'DET'
p186
aS'GB'
p187
asS'Ryan Mallett'
p188
(lp189
I5000
ag74
aS'BAL'
p190
asS'Christian Hackenberg'
p191
(lp192
I5000
aS'KC'
p193
aS'NYJ'
p194
asS'Philip Rivers'
p195
(lp196
I6700
aS'IND'
p197
aS'SD'
p198
asS'Jimmy Garoppolo'
p199
(lp200
I5600
aS'HOU'
p201
aS'NE'
p202
asS'Alex Smith'
p203
(lp204
I5800
aS'NYJ'
p205
aS'KC'
p206
asS'Chad Henne'
p207
(lp208
I5000
aS'BAL'
p209
ag74
asS'Dan Orlovsky'
p210
(lp211
I5000
aS'GB'
p212
aS'DET'
p213
asS'Matt Schaub'
p214
(lp215
I5000
aS'NO'
p216
aS'ATL'
p217
asS'Joe Callahan'
p218
(lp219
I5000
aS'DET'
p220
aS'GB'
p221
asS'Jeff Driskel'
p222
(lp223
I5000
aS'DEN'
p224
aS'CIN'
p225
asS'AJ McCarron'
p226
(lp227
I5000
aS'DEN'
p228
aS'CIN'
p229
asS'Tyrod Taylor'
p230
(lp231
I5800
aS'ARI'
p232
aS'BUF'
p233
asS'Matt Ryan'
p234
(lp235
I7400
aS'NO'
p236
aS'ATL'
p237
asS'Matt Moore'
p238
(lp239
I5000
aS'CLE'
p240
aS'MIA'
p241
asS'Kirk Cousins'
p242
(lp243
I6400
aS'NYG'
p244
aS'WAS'
p245
asS'Nick Foles'
p246
(lp247
I5000
aS'NYJ'
p248
aS'KC'
p249
asS'Nate Sudfeld'
p250
(lp251
I5000
aS'NYG'
p252
aS'WAS'
p253
asS'Jameis Winston'
p254
(lp255
I6000
ag53
aS'TB'
p256
asS'Brandon Allen'
p257
(lp258
I5000
aS'BAL'
p259
ag74
asS'Ben Roethlisberger'
p260
(lp261
I7300
aS'PHI'
p262
aS'PIT'
p263
asS'Matt McGloin'
p264
(lp265
I5000
aS'TEN'
p266
aS'OAK'
p267
asS'Russell Wilson'
p268
(lp269
I7100
aS'SF'
p270
aS'SEA'
p271
asS'Joe Webb'
p272
(lp273
I5000
aS'MIN'
p274
aS'CAR'
p275
asS'Shaun Hill'
p276
(lp277
I5000
aS'CAR'
p278
aS'MIN'
p279
asS'Matthew Stafford'
p280
(lp281
I6800
aS'GB'
p282
aS'DET'
p283
asS'Andrew Luck'
p284
(lp285
I7600
aS'SD'
p286
aS'IND'
p287
asS'Tyler Bray'
p288
(lp289
I5000
aS'NYJ'
p290
aS'KC'
p291
asS'Josh Johnson'
p292
(lp293
I5000
aS'WAS'
p294
aS'NYG'
p295
asS'Brandon Weeden'
p296
(lp297
I5000
aS'NE'
p298
aS'HOU'
p299
asS'Trevone Boykin'
p300
(lp301
I5000
aS'SF'
p302
aS'SEA'
p303
asS'Jay Cutler'
p304
(lp305
I5600
aS'DAL'
p306
aS'CHI'
p307
asS'Dak Prescott'
p308
(lp309
I5700
aS'CHI'
p310
aS'DAL'
p311
asS'Brock Osweiler'
p312
(lp313
I6000
aS'NE'
p314
aS'HOU'
p315
asS'Paxton Lynch'
p316
(lp317
I5000
aS'CIN'
p318
aS'DEN'
p319
asS'Case Keenum'
p320
(lp321
I5000
aS'TB'
p322
ag53
asS'Trevor Siemian'
p323
(lp324
I5100
aS'CIN'
p325
aS'DEN'
p326
asS'Geno Smith'
p327
(lp328
I5000
aS'KC'
p329
aS'NYJ'
p330
asS'Brian Hoyer'
p331
(lp332
I5000
aS'DAL'
p333
aS'CHI'
p334
asS'Marcus Mariota'
p335
(lp336
I5900
aS'OAK'
p337
aS'TEN'
p338
asS'Sean Mannion'
p339
(lp340
I5000
aS'TB'
p341
ag53
asS'Jacoby Brissett'
p342
(lp343
I5000
aS'HOU'
p344
aS'NE'
p345
asS'Carson Palmer'
p346
(lp347
I7200
aS'BUF'
p348
aS'ARI'
p349
asS'Sam Bradford'
p350
(lp351
I5300
aS'CAR'
p352
aS'MIN'
p353
asS'Derek Anderson'
p354
(lp355
I5000
aS'MIN'
p356
aS'CAR'
p357
asS'Christian Ponder'
p358
(lp359
I5000
aS'SEA'
p360
aS'SF'
p361
asS'EJ Manuel'
p362
(lp363
I5000
aS'ARI'
p364
aS'BUF'
p365
asS'Eli Manning'
p366
(lp367
I7000
aS'WAS'
p368
aS'NYG'
p369
asS'Blaine Gabbert'
p370
(lp371
I5000
aS'SEA'
p372
aS'SF'
p373
asS'Andy Dalton'
p374
(lp375
I5700
aS'DEN'
p376
aS'CIN'
p377
asS'Tony Romo'
p378
(lp379
I6000
aS'CHI'
p380
aS'DAL'
p381
asS'Matt Cassel'
p382
(lp383
I5000
aS'OAK'
p384
aS'TEN'
p385
asS'Austin Davis'
p386
(lp387
I5000
aS'CIN'
p388
aS'DEN'
p389
asS'Derek Carr'
p390
(lp391
I6900
aS'TEN'
p392
aS'OAK'
p393
asS'Ryan Griffin'
p394
(lp395
I5000
ag53
aS'TB'
p396
asS'Ryan Fitzpatrick'
p397
(lp398
I5900
aS'KC'
p399
aS'NYJ'
p400
asS'Kellen Clemens'
p401
(lp402
I5000
aS'IND'
p403
aS'SD'
p404
asS'Aaron Rodgers'
p405
(lp406
I7700
aS'DET'
p407
aS'GB'
p408
asS'Joe Flacco'
p409
(lp410
I6100
ag74
aS'BAL'
p411
asS'Drew Stanton'
p412
(lp413
I5000
aS'BUF'
p414
aS'ARI'
p415
asS'Zach Mettenberger'
p416
(lp417
I5000
aS'PHI'
p418
aS'PIT'
p419
asS'Drew Brees'
p420
(lp421
I7900
aS'ATL'
p422
aS'NO'
p423
asS'Cardale Jones'
p424
(lp425
I5000
aS'ARI'
p426
aS'BUF'
p427
asS'Bryce Petty'
p428
(lp429
I5000
aS'KC'
p430
aS'NYJ'
p431
asS'Luke McCown'
p432
(lp433
I5000
aS'ATL'
p434
aS'NO'
p435
asS'Scott Tolzien'
p436
(lp437
I5000
aS'SD'
p438
aS'IND'
p439
asS'Cody Kessler'
p440
(lp441
I5000
aS'MIA'
p442
aS'CLE'
p443
asS'Ryan Nassib'
p444
(lp445
I5000
aS'WAS'
p446
aS'NYG'
p447
assS'WR'
p448
(dp449
S'Tyler Lockett'
p450
(lp451
I4200
aS'SF'
p452
aS'SEA'
p453
asS'Chester Rogers'
p454
(lp455
I3000
aS'SD'
p456
aS'IND'
p457
asS'Deonte Thompson'
p458
(lp459
I3000
aS'DAL'
p460
aS'CHI'
p461
asS'Andre Holmes'
p462
(lp463
I3000
aS'TEN'
p464
aS'OAK'
p465
asS'Jalin Marshall'
p466
(lp467
I3000
aS'KC'
p468
aS'NYJ'
p469
asS'Dwayne Harris'
p470
(lp471
I3000
aS'WAS'
p472
aS'NYG'
p473
asS'Lucky Whitehead'
p474
(lp475
I3000
aS'CHI'
p476
aS'DAL'
p477
asS'Golden Tate'
p478
(lp479
I5900
aS'GB'
p480
aS'DET'
p481
asS'Ty Montgomery'
p482
(lp483
I3000
aS'DET'
p484
aS'GB'
p485
asS'Braxton Miller'
p486
(lp487
I3000
aS'NE'
p488
aS'HOU'
p489
asS'Tajae Sharpe'
p490
(lp491
I4700
aS'OAK'
p492
aS'TEN'
p493
asS'Bryan Walters'
p494
(lp495
I3000
aS'BAL'
p496
ag74
asS'Josh Huff'
p497
(lp498
I3000
aS'PIT'
p499
aS'PHI'
p500
asS'Anquan Boldin'
p501
(lp502
I4200
aS'GB'
p503
aS'DET'
p504
asS'Kenny Stills'
p505
(lp506
I3600
aS'CLE'
p507
aS'MIA'
p508
asS'Dorial Green-Beckham'
p509
(lp510
I3200
aS'PIT'
p511
aS'PHI'
p512
asS'Brandon Coleman'
p513
(lp514
I3000
aS'ATL'
p515
aS'NO'
p516
asS'Kendall Wright'
p517
(lp518
I3000
aS'OAK'
p519
aS'TEN'
p520
asS'DeSean Jackson'
p521
(lp522
I5900
aS'NYG'
p523
aS'WAS'
p524
asS'Jamison Crowder'
p525
(lp526
I3800
aS'NYG'
p527
aS'WAS'
p528
asS'Tavon Austin'
p529
(lp530
I4100
aS'TB'
p531
ag53
asS'Markus Wheaton'
p532
(lp533
I4600
aS'PHI'
p534
aS'PIT'
p535
asS'Amari Cooper'
p536
(lp537
I7700
aS'TEN'
p538
aS'OAK'
p539
asS'Josh Doctson'
p540
(lp541
I3000
aS'NYG'
p542
aS'WAS'
p543
asS'Justin Hardy'
p544
(lp545
I3000
aS'NO'
p546
aS'ATL'
p547
asS'Albert Wilson'
p548
(lp549
I3000
aS'NYJ'
p550
aS'KC'
p551
asS'Sterling Shepard'
p552
(lp553
I5500
aS'WAS'
p554
aS'NYG'
p555
asS'Doug Baldwin'
p556
(lp557
I6300
aS'SF'
p558
aS'SEA'
p559
asS'Justin Hunter'
p560
(lp561
I3000
aS'CLE'
p562
aS'MIA'
p563
asS'Jarvis Landry'
p564
(lp565
I6600
aS'CLE'
p566
aS'MIA'
p567
asS'Danny Amendola'
p568
(lp569
I3700
aS'HOU'
p570
aS'NE'
p571
asS'Travis Benjamin'
p572
(lp573
I5200
aS'IND'
p574
aS'SD'
p575
asS'Allen Robinson'
p576
(lp577
I7500
aS'BAL'
p578
ag74
asS'Mohamed Sanu'
p579
(lp580
I5700
aS'NO'
p581
aS'ATL'
p582
asS'Harry Douglas'
p583
(lp584
I3000
aS'OAK'
p585
aS'TEN'
p586
asS'Quan Bray'
p587
(lp588
I3000
aS'SD'
p589
aS'IND'
p590
asS'Mike Thomas'
p591
(lp592
I3000
aS'TB'
p593
ag53
asS'Jeremy Maclin'
p594
(lp595
I6000
aS'NYJ'
p596
aS'KC'
p597
asS'Adam Humphries'
p598
(lp599
I3000
ag53
aS'TB'
p600
asS'Bradley Marquez'
p601
(lp602
I3000
aS'TB'
p603
ag53
asS'Chris Moore'
p604
(lp605
I3000
ag74
aS'BAL'
p606
asS'Laquon Treadwell'
p607
(lp608
I3100
aS'CAR'
p609
aS'MIN'
p610
asS'Cody Latimer'
p611
(lp612
I3000
aS'CIN'
p613
aS'DEN'
p614
asS'Brandon Tate'
p615
(lp616
I3000
aS'ARI'
p617
aS'BUF'
p618
asS'Eric Weems'
p619
(lp620
I3000
aS'NO'
p621
aS'ATL'
p622
asS'Charone Peake'
p623
(lp624
I3000
aS'KC'
p625
aS'NYJ'
p626
asS'Kevin White'
p627
(lp628
I4000
aS'DAL'
p629
aS'CHI'
p630
asS'Marquise Goodwin'
p631
(lp632
I3000
aS'ARI'
p633
aS'BUF'
p634
asS'Julian Edelman'
p635
(lp636
I6400
aS'HOU'
p637
aS'NE'
p638
asS'Tanner McEvoy'
p639
(lp640
I3000
aS'SF'
p641
aS'SEA'
p642
asS'Ted Ginn'
p643
(lp644
I3700
aS'MIN'
p645
aS'CAR'
p646
asS'Malcolm Mitchell'
p647
(lp648
I3000
aS'HOU'
p649
aS'NE'
p650
asS'Andre Roberts'
p651
(lp652
I3000
aS'GB'
p653
aS'DET'
p654
asS'Brice Butler'
p655
(lp656
I3000
aS'CHI'
p657
aS'DAL'
p658
asS'Breshad Perriman'
p659
(lp660
I3000
ag74
aS'BAL'
p661
asS'Jermaine Kearse'
p662
(lp663
I3400
aS'SF'
p664
aS'SEA'
p665
asS'Allen Hurns'
p666
(lp667
I5200
aS'BAL'
p668
ag74
asS'Phillip Dorsett'
p669
(lp670
I4400
aS'SD'
p671
aS'IND'
p672
asS'Sammy Watkins'
p673
(lp674
I6100
aS'ARI'
p675
aS'BUF'
p676
asS'Jakeem Grant'
p677
(lp678
I3000
aS'CLE'
p679
aS'MIA'
p680
asS'Matthew Slater'
p681
(lp682
I3000
aS'HOU'
p683
aS'NE'
p684
asS'Demaryius Thomas'
p685
(lp686
I6400
aS'CIN'
p687
aS'DEN'
p688
asS'Davante Adams'
p689
(lp690
I4100
aS'DET'
p691
aS'GB'
p692
asS'Tyreek Hill'
p693
(lp694
I3000
aS'NYJ'
p695
aS'KC'
p696
asS'Will Fuller'
p697
(lp698
I4800
aS'NE'
p699
aS'HOU'
p700
asS'Rishard Matthews'
p701
(lp702
I3300
aS'OAK'
p703
aS'TEN'
p704
asS'Marqise Lee'
p705
(lp706
I3000
aS'BAL'
p707
ag74
asS'Jaron Brown'
p708
(lp709
I3300
aS'BUF'
p710
aS'ARI'
p711
asS'Devin Funchess'
p712
(lp713
I4100
aS'MIN'
p714
aS'CAR'
p715
asS'Tommylee Lewis'
p716
(lp717
I3000
aS'ATL'
p718
aS'NO'
p719
asS'Brandin Cooks'
p720
(lp721
I7900
aS'ATL'
p722
aS'NO'
p723
asS'Ryan Grant'
p724
(lp725
I3000
aS'NYG'
p726
aS'WAS'
p727
asS'Damiere Byrd'
p728
(lp729
I3000
aS'MIN'
p730
aS'CAR'
p731
asS'J.J. Nelson'
p732
(lp733
I3000
aS'BUF'
p734
aS'ARI'
p735
asS"De'Anthony Thomas"
p736
(lp737
I3000
aS'NYJ'
p738
aS'KC'
p739
asS'Terrelle Pryor'
p740
(lp741
I3400
aS'MIA'
p742
aS'CLE'
p743
asS'Antonio Brown'
p744
(lp745
I9600
aS'PHI'
p746
aS'PIT'
p747
asS'Bryce Treggs'
p748
(lp749
I3000
aS'PIT'
p750
aS'PHI'
p751
asS'Michael Thomas'
p752
(lp753
I4200
aS'ATL'
p754
aS'NO'
p755
asS'Andrew Hawkins'
p756
(lp757
I3000
aS'MIA'
p758
aS'CLE'
p759
asS'Jordan Norwood'
p760
(lp761
I3000
aS'CIN'
p762
aS'DEN'
p763
asS'Rashad Ross'
p764
(lp765
I3000
aS'NYG'
p766
aS'WAS'
p767
asS'James Wright'
p768
(lp769
I3000
aS'DEN'
p770
aS'CIN'
p771
asS'Sammie Coates'
p772
(lp773
I3800
aS'PHI'
p774
aS'PIT'
p775
asS'Charles Johnson'
p776
(lp777
I3000
aS'CAR'
p778
aS'MIN'
p779
asS'Michael Crabtree'
p780
(lp781
I6000
aS'TEN'
p782
aS'OAK'
p783
asS'Terrance Williams'
p784
(lp785
I3300
aS'CHI'
p786
aS'DAL'
p787
asS'Eric Decker'
p788
(lp789
I6900
aS'KC'
p790
aS'NYJ'
p791
asS'Arrelious Benn'
p792
(lp793
I3000
aS'BAL'
p794
ag74
asS'Aldrick Robinson'
p795
(lp796
I3000
aS'NO'
p797
aS'ATL'
p798
asS'Keith Mumphery'
p799
(lp800
I3000
aS'NE'
p801
aS'HOU'
p802
asS'Chris Conley'
p803
(lp804
I3100
aS'NYJ'
p805
aS'KC'
p806
asS'Jaelen Strong'
p807
(lp808
I3300
aS'NE'
p809
aS'HOU'
p810
asS'Rashad Greene'
p811
(lp812
I3000
aS'BAL'
p813
ag74
asS'Jarius Wright'
p814
(lp815
I3000
aS'CAR'
p816
aS'MIN'
p817
asS'Seth Roberts'
p818
(lp819
I3500
aS'TEN'
p820
aS'OAK'
p821
asS'Brandon LaFell'
p822
(lp823
I3400
aS'DEN'
p824
aS'CIN'
p825
asS'Pharoh Cooper'
p826
(lp827
I3000
aS'TB'
p828
ag53
asS'Cameron Meredith'
p829
(lp830
I3000
aS'DAL'
p831
aS'CHI'
p832
asS'Rod Streater'
p833
(lp834
I3000
aS'SEA'
p835
aS'SF'
p836
asS'A.J. Green'
p837
(lp838
I8100
aS'DEN'
p839
aS'CIN'
p840
asS'Bennie Fowler'
p841
(lp842
I3000
aS'CIN'
p843
aS'DEN'
p844
asS'Robert Woods'
p845
(lp846
I3200
aS'ARI'
p847
aS'BUF'
p848
asS'Vincent Jackson'
p849
(lp850
I3900
ag53
aS'TB'
p851
asS'Alex Erickson'
p852
(lp853
I3000
aS'DEN'
p854
aS'CIN'
p855
asS'Julio Jones'
p856
(lp857
I9500
aS'NO'
p858
aS'ATL'
p859
asS'Kelvin Benjamin'
p860
(lp861
I7200
aS'MIN'
p862
aS'CAR'
p863
asS'Cole Beasley'
p864
(lp865
I3200
aS'CHI'
p866
aS'DAL'
p867
asS'Cody Core'
p868
(lp869
I3000
aS'DEN'
p870
aS'CIN'
p871
asS'Corey Coleman'
p872
(lp873
I5300
aS'MIA'
p874
aS'CLE'
p875
asS'Cecil Shorts'
p876
(lp877
I3000
ag53
aS'TB'
p878
asS'Mike Evans'
p879
(lp880
I7000
ag53
aS'TB'
p881
asS'Russell Shepard'
p882
(lp883
I3000
ag53
aS'TB'
p884
asS'Eddie Royal'
p885
(lp886
I3500
aS'DAL'
p887
aS'CHI'
p888
asS'Jared Abbrederis'
p889
(lp890
I3000
aS'DET'
p891
aS'GB'
p892
asS'Willie Snead'
p893
(lp894
I6500
aS'ATL'
p895
aS'NO'
p896
asS'Trevor Davis'
p897
(lp898
I3000
aS'DET'
p899
aS'GB'
p900
asS'Jeff Janis'
p901
(lp902
I3200
aS'DET'
p903
aS'GB'
p904
asS'Nelson Spruce'
p905
(lp906
I3000
aS'TB'
p907
ag53
asS'DeVante Parker'
p908
(lp909
I4900
aS'CLE'
p910
aS'MIA'
p911
asS'Adam Thielen'
p912
(lp913
I3200
aS'CAR'
p914
aS'MIN'
p915
asS'DeAndre Hopkins'
p916
(lp917
I8600
aS'NE'
p918
aS'HOU'
p919
asS'Demarcus Robinson'
p920
(lp921
I3000
aS'NYJ'
p922
aS'KC'
p923
asS'Victor Cruz'
p924
(lp925
I4700
aS'WAS'
p926
aS'NYG'
p927
asS'Jordan Taylor'
p928
(lp929
I3000
aS'CIN'
p930
aS'DEN'
p931
asS'Jeremy Kerley'
p932
(lp933
I3400
aS'SEA'
p934
aS'SF'
p935
asS'Greg Salas'
p936
(lp937
I3000
aS'ARI'
p938
aS'BUF'
p939
asS'Emmanuel Sanders'
p940
(lp941
I6000
aS'CIN'
p942
aS'DEN'
p943
asS'Kenny Britt'
p944
(lp945
I3900
aS'TB'
p946
ag53
asS'Odell Beckham'
p947
(lp948
I9100
aS'WAS'
p949
aS'NYG'
p950
asS'Cordarrelle Patterson'
p951
(lp952
I3000
aS'CAR'
p953
aS'MIN'
p954
asS'Paul Richardson'
p955
(lp956
I3000
aS'SF'
p957
aS'SEA'
p958
asS'Tavarres King'
p959
(lp960
I3000
aS'WAS'
p961
aS'NYG'
p962
asS'Dontrelle Inman'
p963
(lp964
I3600
aS'IND'
p965
aS'SD'
p966
asS'Randall Cobb'
p967
(lp968
I7300
aS'DET'
p969
aS'GB'
p970
asS'Brian Quick'
p971
(lp972
I3000
aS'TB'
p973
ag53
asS'Steve Smith'
p974
(lp975
I4100
ag74
aS'BAL'
p976
asS'Johnny Holton'
p977
(lp978
I3000
aS'TEN'
p979
aS'OAK'
p980
asS'T.Y. Hilton'
p981
(lp982
I6800
aS'SD'
p983
aS'IND'
p984
asS'John Brown'
p985
(lp986
I4800
aS'BUF'
p987
aS'ARI'
p988
asS'Jordan Payton'
p989
(lp990
I3000
aS'MIA'
p991
aS'CLE'
p992
asS'Jordy Nelson'
p993
(lp994
I7400
aS'DET'
p995
aS'GB'
p996
asS'Quincy Enunwa'
p997
(lp998
I4800
aS'KC'
p999
aS'NYJ'
p1000
asS'Joshua Bellamy'
p1001
(lp1002
I3000
aS'DAL'
p1003
aS'CHI'
p1004
asS'Jordan Matthews'
p1005
(lp1006
I7100
aS'PIT'
p1007
aS'PHI'
p1008
asS'Taylor Gabriel'
p1009
(lp1010
I3000
aS'NO'
p1011
aS'ATL'
p1012
asS'Marc Mariani'
p1013
(lp1014
I3000
aS'OAK'
p1015
aS'TEN'
p1016
asS'Mike Wallace'
p1017
(lp1018
I5000
ag74
aS'BAL'
p1019
asS'Torrey Smith'
p1020
(lp1021
I4300
aS'SEA'
p1022
aS'SF'
p1023
asS'Corey Brown'
p1024
(lp1025
I3000
aS'MIN'
p1026
aS'CAR'
p1027
asS'Roger Lewis'
p1028
(lp1029
I3000
aS'WAS'
p1030
aS'NYG'
p1031
asS'Nelson Agholor'
p1032
(lp1033
I3500
aS'PIT'
p1034
aS'PHI'
p1035
asS'Michael Floyd'
p1036
(lp1037
I5800
aS'BUF'
p1038
aS'ARI'
p1039
asS'Quinton Patton'
p1040
(lp1041
I3100
aS'SEA'
p1042
aS'SF'
p1043
asS'Walt Powell'
p1044
(lp1045
I3000
aS'ARI'
p1046
aS'BUF'
p1047
asS'Tyler Boyd'
p1048
(lp1049
I3500
aS'DEN'
p1050
aS'CIN'
p1051
asS'Rashard Higgins'
p1052
(lp1053
I3000
aS'MIA'
p1054
aS'CLE'
p1055
asS'Leonte Carroo'
p1056
(lp1057
I3000
aS'CLE'
p1058
aS'MIA'
p1059
asS'Andre Johnson'
p1060
(lp1061
I3400
aS'OAK'
p1062
aS'TEN'
p1063
asS'Alshon Jeffery'
p1064
(lp1065
I8000
aS'DAL'
p1066
aS'CHI'
p1067
asS'Brandon Marshall'
p1068
(lp1069
I7300
aS'KC'
p1070
aS'NYJ'
p1071
asS'Kamar Aiken'
p1072
(lp1073
I3100
ag74
aS'BAL'
p1074
asS'Robby Anderson'
p1075
(lp1076
I3000
aS'KC'
p1077
aS'NYJ'
p1078
asS'Stefon Diggs'
p1079
(lp1080
I5100
aS'CAR'
p1081
aS'MIN'
p1082
asS'Larry Fitzgerald'
p1083
(lp1084
I6900
aS'BUF'
p1085
aS'ARI'
p1086
asS'Devin Hester'
p1087
(lp1088
I3000
ag74
aS'BAL'
p1089
asS'Isaiah Burse'
p1090
(lp1091
I3000
aS'IND'
p1092
aS'SD'
p1093
asS'Brenton Bersin'
p1094
(lp1095
I3000
aS'MIN'
p1096
aS'CAR'
p1097
asS'Ricardo Louis'
p1098
(lp1099
I3000
aS'MIA'
p1100
aS'CLE'
p1101
asS'Marvin Jones'
p1102
(lp1103
I6200
aS'GB'
p1104
aS'DET'
p1105
asS'Pierre Garcon'
p1106
(lp1107
I3900
aS'NYG'
p1108
aS'WAS'
p1109
asS'Chris Hogan'
p1110
(lp1111
I3900
aS'HOU'
p1112
aS'NE'
p1113
asS'Donte Moncrief'
p1114
(lp1115
I6700
aS'SD'
p1116
aS'IND'
p1117
asS'Darrius Heyward-Bey'
p1118
(lp1119
I3200
aS'PHI'
p1120
aS'PIT'
p1121
asS'Dez Bryant'
p1122
(lp1123
I8400
aS'CHI'
p1124
aS'DAL'
p1125
asS'Tyrell Williams'
p1126
(lp1127
I4300
aS'IND'
p1128
aS'SD'
p1129
asS'Aaron Burbridge'
p1130
(lp1131
I3000
aS'SEA'
p1132
aS'SF'
p1133
asS'Eli Rogers'
p1134
(lp1135
I3900
aS'PHI'
p1136
aS'PIT'
p1137
assS'RB'
p1138
(dp1139
S'Will Tukuafu'
p1140
(lp1141
I3000
aS'SF'
p1142
aS'SEA'
p1143
asS'Taiwan Jones'
p1144
(lp1145
I3000
aS'TEN'
p1146
aS'OAK'
p1147
asS'Frank Gore'
p1148
(lp1149
I5000
aS'SD'
p1150
aS'IND'
p1151
asS'Jay Ajayi'
p1152
(lp1153
I4000
aS'CLE'
p1154
aS'MIA'
p1155
asS'Rashad Jennings'
p1156
(lp1157
I5100
aS'WAS'
p1158
aS'NYG'
p1159
asS'Jerick McKinnon'
p1160
(lp1161
I3800
aS'CAR'
p1162
aS'MIN'
p1163
asS'Terrance West'
p1164
(lp1165
I3500
ag74
aS'BAL'
p1166
asS'Jalston Fowler'
p1167
(lp1168
I3000
aS'OAK'
p1169
aS'TEN'
p1170
asS'Bilal Powell'
p1171
(lp1172
I3400
aS'KC'
p1173
aS'NYJ'
p1174
asS'D.J. Foster'
p1175
(lp1176
I3000
aS'HOU'
p1177
aS'NE'
p1178
asS'Fozzy Whittaker'
p1179
(lp1180
I3800
aS'MIN'
p1181
aS'CAR'
p1182
asS'Terron Ward'
p1183
(lp1184
I3000
aS'NO'
p1185
aS'ATL'
p1186
asS'Kenneth Dixon'
p1187
(lp1188
I3000
ag74
aS'BAL'
p1189
asS'Tyler Ervin'
p1190
(lp1191
I3000
aS'NE'
p1192
aS'HOU'
p1193
asS'Alex Collins'
p1194
(lp1195
I3000
aS'SF'
p1196
aS'SEA'
p1197
asS'Theo Riddick'
p1198
(lp1199
I4900
aS'GB'
p1200
aS'DET'
p1201
asS'Corey Grant'
p1202
(lp1203
I3000
aS'BAL'
p1204
ag74
asS'Malcolm Brown'
p1205
(lp1206
I3000
aS'TB'
p1207
ag53
asS'Darren Sproles'
p1208
(lp1209
I3700
aS'PIT'
p1210
aS'PHI'
p1211
asS'Christine Michael'
p1212
(lp1213
I5000
aS'SF'
p1214
aS'SEA'
p1215
asS'Charles Sims'
p1216
(lp1217
I4900
ag53
aS'TB'
p1218
asS'Jeremy Hill'
p1219
(lp1220
I3700
aS'DEN'
p1221
aS'CIN'
p1222
asS'Ezekiel Elliott'
p1223
(lp1224
I6900
aS'CHI'
p1225
aS'DAL'
p1226
asS'Tevin Coleman'
p1227
(lp1228
I4500
aS'NO'
p1229
aS'ATL'
p1230
asS'Shaun Draughn'
p1231
(lp1232
I3400
aS'SEA'
p1233
aS'SF'
p1234
asS'Mike Tolbert'
p1235
(lp1236
I3000
aS'MIN'
p1237
aS'CAR'
p1238
asS'Jonathan Grimes'
p1239
(lp1240
I3000
aS'NE'
p1241
aS'HOU'
p1242
asS'Paul Perkins'
p1243
(lp1244
I3000
aS'WAS'
p1245
aS'NYG'
p1246
asS'Roosevelt Nix'
p1247
(lp1248
I3000
aS'PHI'
p1249
aS'PIT'
p1250
asS'Reggie Bush'
p1251
(lp1252
I3200
aS'ARI'
p1253
aS'BUF'
p1254
asS'Devontae Booker'
p1255
(lp1256
I3000
aS'CIN'
p1257
aS'DEN'
p1258
asS'Jamaal Charles'
p1259
(lp1260
I5600
aS'NYJ'
p1261
aS'KC'
p1262
asS'C.J. Anderson'
p1263
(lp1264
I7300
aS'CIN'
p1265
aS'DEN'
p1266
asS'Denard Robinson'
p1267
(lp1268
I3000
aS'BAL'
p1269
ag74
asS'Julian Howsare'
p1270
(lp1271
I3000
aS'KC'
p1272
aS'NYJ'
p1273
asS'Danny Woodhead'
p1274
(lp1275
I5400
aS'IND'
p1276
aS'SD'
p1277
asS'Derrick Henry'
p1278
(lp1279
I3700
aS'OAK'
p1280
aS'TEN'
p1281
asS'Ameer Abdullah'
p1282
(lp1283
I4600
aS'GB'
p1284
aS'DET'
p1285
asS'Fitzgerald Toussaint'
p1286
(lp1287
I3000
aS'PHI'
p1288
aS'PIT'
p1289
asS'Michael Burton'
p1290
(lp1291
I3000
aS'GB'
p1292
aS'DET'
p1293
asS'Bobby Rainey'
p1294
(lp1295
I3000
aS'WAS'
p1296
aS'NYG'
p1297
asS'Melvin Gordon'
p1298
(lp1299
I5800
aS'IND'
p1300
aS'SD'
p1301
asS'George Atkinson'
p1302
(lp1303
I3000
aS'MIA'
p1304
aS'CLE'
p1305
asS'Kenneth Farrow'
p1306
(lp1307
I3000
aS'IND'
p1308
aS'SD'
p1309
asS'DeAngelo Williams'
p1310
(lp1311
I7500
aS'PHI'
p1312
aS'PIT'
p1313
asS'James Starks'
p1314
(lp1315
I4000
aS'DET'
p1316
aS'GB'
p1317
asS'Zach Zenner'
p1318
(lp1319
I3000
aS'GB'
p1320
aS'DET'
p1321
asS'Kapri Bibbs'
p1322
(lp1323
I3000
aS'CIN'
p1324
aS'DEN'
p1325
asS'Chris Johnson'
p1326
(lp1327
I3500
aS'BUF'
p1328
aS'ARI'
p1329
asS'LeGarrette Blount'
p1330
(lp1331
I4400
aS'HOU'
p1332
aS'NE'
p1333
asS'Rob Kelley'
p1334
(lp1335
I3000
aS'NYG'
p1336
aS'WAS'
p1337
asS'Lance Dunbar'
p1338
(lp1339
I3000
aS'CHI'
p1340
aS'DAL'
p1341
asS'Andy Janovich'
p1342
(lp1343
I3000
aS'CIN'
p1344
aS'DEN'
p1345
asS'Wendell Smallwood'
p1346
(lp1347
I3000
aS'PIT'
p1348
aS'PHI'
p1349
asS'Antonio Andrews'
p1350
(lp1351
I3000
aS'OAK'
p1352
aS'TEN'
p1353
asS'Keith Smith'
p1354
(lp1355
I3000
aS'CHI'
p1356
aS'DAL'
p1357
asS'Chris Ivory'
p1358
(lp1359
I3900
aS'BAL'
p1360
ag74
asS'DeMarco Murray'
p1361
(lp1362
I6300
aS'OAK'
p1363
aS'TEN'
p1364
asS'Eddie Lacy'
p1365
(lp1366
I6100
aS'DET'
p1367
aS'GB'
p1368
asS'Isaiah Crowell'
p1369
(lp1370
I4700
aS'MIA'
p1371
aS'CLE'
p1372
asS'John Kuhn'
p1373
(lp1374
I3000
aS'ATL'
p1375
aS'NO'
p1376
asS'Darius Jackson'
p1377
(lp1378
I3000
aS'CHI'
p1379
aS'DAL'
p1380
asS'Todd Gurley'
p1381
(lp1382
I7100
aS'TB'
p1383
ag53
asS'Daniel Lasco'
p1384
(lp1385
I3000
aS'ATL'
p1386
aS'NO'
p1387
asS'Duke Johnson'
p1388
(lp1389
I4200
aS'MIA'
p1390
aS'CLE'
p1391
asS'Adrian Peterson'
p1392
(lp1393
I6700
aS'CAR'
p1394
aS'MIN'
p1395
asS'Giovani Bernard'
p1396
(lp1397
I4300
aS'DEN'
p1398
aS'CIN'
p1399
asS'James White'
p1400
(lp1401
I4200
aS'HOU'
p1402
aS'NE'
p1403
asS'T.J. Yeldon'
p1404
(lp1405
I5600
aS'BAL'
p1406
ag74
asS'Andre Ellington'
p1407
(lp1408
I3600
aS'BUF'
p1409
aS'ARI'
p1410
asS'Alfred Morris'
p1411
(lp1412
I3700
aS'CHI'
p1413
aS'DAL'
p1414
asS'Mark Ingram'
p1415
(lp1416
I5900
aS'ATL'
p1417
aS'NO'
p1418
asS'Chase Reynolds'
p1419
(lp1420
I3000
aS'TB'
p1421
ag53
asS'Rod Smith'
p1422
(lp1423
I3000
aS'CHI'
p1424
aS'DAL'
p1425
asS'Benny Cunningham'
p1426
(lp1427
I3400
aS'TB'
p1428
ag53
asS'Kenyan Drake'
p1429
(lp1430
I3600
aS'CLE'
p1431
aS'MIA'
p1432
asS'Derek Watt'
p1433
(lp1434
I3000
aS'IND'
p1435
aS'SD'
p1436
asS'Isaiah Pead'
p1437
(lp1438
I3000
aS'CLE'
p1439
aS'MIA'
p1440
asS'Doug Martin'
p1441
(lp1442
I5700
ag53
aS'TB'
p1443
asS'David Johnson'
p1444
(lp1445
I7700
aS'BUF'
p1446
aS'ARI'
p1447
asS'Rex Burkhead'
p1448
(lp1449
I3000
aS'DEN'
p1450
aS'CIN'
p1451
asS'Ryan Mathews'
p1452
(lp1453
I5800
aS'PIT'
p1454
aS'PHI'
p1455
asS'Jonathan Stewart'
p1456
(lp1457
I4800
aS'MIN'
p1458
aS'CAR'
p1459
asS'Damien Williams'
p1460
(lp1461
I3000
aS'CLE'
p1462
aS'MIA'
p1463
asS'Tim Hightower'
p1464
(lp1465
I3300
aS'ATL'
p1466
aS'NO'
p1467
asS'Brandon Bolden'
p1468
(lp1469
I3000
aS'HOU'
p1470
aS'NE'
p1471
asS'Jeremy Langford'
p1472
(lp1473
I5200
aS'DAL'
p1474
aS'CHI'
p1475
asS'Daryl Richardson'
p1476
(lp1477
I3000
aS'PHI'
p1478
aS'PIT'
p1479
asS'Knile Davis'
p1480
(lp1481
I3000
aS'NYJ'
p1482
aS'KC'
p1483
asS'Anthony Sherman'
p1484
(lp1485
I3000
aS'NYJ'
p1486
aS'KC'
p1487
asS'Troymaine Pope'
p1488
(lp1489
I3000
aS'KC'
p1490
aS'NYJ'
p1491
asS'Patrick DiMarco'
p1492
(lp1493
I3000
aS'NO'
p1494
aS'ATL'
p1495
asS'Peyton Barber'
p1496
(lp1497
I3000
ag53
aS'TB'
p1498
asS'Stepfan Taylor'
p1499
(lp1500
I3000
aS'BUF'
p1501
aS'ARI'
p1502
asS'Aaron Ripkowski'
p1503
(lp1504
I3000
aS'DET'
p1505
aS'GB'
p1506
asS'Carlos Hyde'
p1507
(lp1508
I4400
aS'SEA'
p1509
aS'SF'
p1510
asS'Orleans Darkwa'
p1511
(lp1512
I3000
aS'WAS'
p1513
aS'NYG'
p1514
asS'Kenjon Barner'
p1515
(lp1516
I3000
aS'PIT'
p1517
aS'PHI'
p1518
asS'Arian Foster'
p1519
(lp1520
I5500
aS'CLE'
p1521
aS'MIA'
p1522
asS'Jordan Todman'
p1523
(lp1524
I3000
aS'SD'
p1525
aS'IND'
p1526
asS'Latavius Murray'
p1527
(lp1528
I5700
aS'TEN'
p1529
aS'OAK'
p1530
asS'Cameron Artis-Payne'
p1531
(lp1532
I3000
aS'MIN'
p1533
aS'CAR'
p1534
asS'DuJuan Harris'
p1535
(lp1536
I3000
aS'SEA'
p1537
aS'SF'
p1538
asS'Shane Vereen'
p1539
(lp1540
I3700
aS'WAS'
p1541
aS'NYG'
p1542
asS'C.J. Prosise'
p1543
(lp1544
I3300
aS'SF'
p1545
aS'SEA'
p1546
asS'Josh Ferguson'
p1547
(lp1548
I3000
aS'SD'
p1549
aS'IND'
p1550
asS'Spencer Ware'
p1551
(lp1552
I5700
aS'NYJ'
p1553
aS'KC'
p1554
asS'Javorius Allen'
p1555
(lp1556
I3000
ag74
aS'BAL'
p1557
asS'Justin Forsett'
p1558
(lp1559
I3900
ag74
aS'BAL'
p1560
asS'Paul Lasike'
p1561
(lp1562
I3000
aS'DAL'
p1563
aS'CHI'
p1564
asS'Chris Thompson'
p1565
(lp1566
I3400
aS'NYG'
p1567
aS'WAS'
p1568
asS'Jacquizz Rodgers'
p1569
(lp1570
I3000
ag53
aS'TB'
p1571
asS'Charcandrick West'
p1572
(lp1573
I3500
aS'NYJ'
p1574
aS'KC'
p1575
asS'Mike Davis'
p1576
(lp1577
I3000
aS'SEA'
p1578
aS'SF'
p1579
asS'Kyle Juszczyk'
p1580
(lp1581
I3000
ag74
aS'BAL'
p1582
asS'Jordan Howard'
p1583
(lp1584
I3300
aS'DAL'
p1585
aS'CHI'
p1586
asS'Travaris Cadet'
p1587
(lp1588
I3100
aS'ATL'
p1589
aS'NO'
p1590
asS"Ka'Deem Carey"
p1591
(lp1592
I3100
aS'DAL'
p1593
aS'CHI'
p1594
asS'Devonta Freeman'
p1595
(lp1596
I5800
aS'NO'
p1597
aS'ATL'
p1598
asS'Alfred Blue'
p1599
(lp1600
I3400
aS'NE'
p1601
aS'HOU'
p1602
asS'Matt Forte'
p1603
(lp1604
I7000
aS'KC'
p1605
aS'NYJ'
p1606
asS'Matt Asiata'
p1607
(lp1608
I3000
aS'CAR'
p1609
aS'MIN'
p1610
asS'Mike Gillislee'
p1611
(lp1612
I3300
aS'ARI'
p1613
aS'BUF'
p1614
asS'Malcolm Johnson'
p1615
(lp1616
I3000
aS'MIA'
p1617
aS'CLE'
p1618
asS'Jalen Richard'
p1619
(lp1620
I3600
aS'TEN'
p1621
aS'OAK'
p1622
asS'Jerome Felton'
p1623
(lp1624
I3000
aS'ARI'
p1625
aS'BUF'
p1626
asS'Matt Jones'
p1627
(lp1628
I4100
aS'NYG'
p1629
aS'WAS'
p1630
asS'Dwayne Washington'
p1631
(lp1632
I3600
aS'GB'
p1633
aS'DET'
p1634
asS'Lamar Miller'
p1635
(lp1636
I7200
aS'NE'
p1637
aS'HOU'
p1638
asS'LeSean McCoy'
p1639
(lp1640
I6500
aS'ARI'
p1641
aS'BUF'
p1642
asS'DeAndre Washington'
p1643
(lp1644
I3400
aS'TEN'
p1645
aS'OAK'
p1646
asS'Jay Prosch'
p1647
(lp1648
I3000
aS'NE'
p1649
aS'HOU'
p1650
asS'Andre Williams'
p1651
(lp1652
I3000
aS'IND'
p1653
aS'SD'
p1654
asS'Marcus Murphy'
p1655
(lp1656
I3000
aS'ATL'
p1657
aS'NO'
p1658
asS'Jonathan Williams'
p1659
(lp1660
I3000
aS'ARI'
p1661
aS'BUF'
p1662
asS'Robert Turbin'
p1663
(lp1664
I3000
aS'SD'
p1665
aS'IND'
p1666
asS'James Develin'
p1667
(lp1668
I3000
aS'HOU'
p1669
aS'NE'
p1670
asS'Zach Line'
p1671
(lp1672
I3000
aS'CAR'
p1673
aS'MIN'
p1674
asS'Thomas Rawls'
p1675
(lp1676
I5500
aS'SF'
p1677
aS'SEA'
p1678
asS'Jamize Olawale'
p1679
(lp1680
I3000
aS'TEN'
p1681
aS'OAK'
p1682
assS'TE'
p1683
(dp1684
S'Will Tye'
p1685
(lp1686
I2600
aS'WAS'
p1687
aS'NYG'
p1688
asS'Lee Smith'
p1689
(lp1690
I2500
aS'TEN'
p1691
aS'OAK'
p1692
asS'Maxx Williams'
p1693
(lp1694
I2500
ag74
aS'BAL'
p1695
asS'Brent Celek'
p1696
(lp1697
I2800
aS'PIT'
p1698
aS'PHI'
p1699
asS'Jason Witten'
p1700
(lp1701
I4300
aS'CHI'
p1702
aS'DAL'
p1703
asS'Greg Scruggs'
p1704
(lp1705
I2500
aS'DAL'
p1706
aS'CHI'
p1707
asS'Neal Sterling'
p1708
(lp1709
I2500
aS'BAL'
p1710
ag74
asS'Levine Toilolo'
p1711
(lp1712
I2500
aS'NO'
p1713
aS'ATL'
p1714
asS'Ben Koyack'
p1715
(lp1716
I2500
aS'BAL'
p1717
ag74
asS'Clay Harbor'
p1718
(lp1719
I2500
aS'HOU'
p1720
aS'NE'
p1721
asS'Scott Simonson'
p1722
(lp1723
I2500
aS'MIN'
p1724
aS'CAR'
p1725
asS'Garrett Celek'
p1726
(lp1727
I2500
aS'SEA'
p1728
aS'SF'
p1729
asS'Seth DeValve'
p1730
(lp1731
I2500
aS'MIA'
p1732
aS'CLE'
p1733
asS'Geoff Swaim'
p1734
(lp1735
I2500
aS'CHI'
p1736
aS'DAL'
p1737
asS'Logan Paulsen'
p1738
(lp1739
I2500
aS'DAL'
p1740
aS'CHI'
p1741
asS'Jordan Reed'
p1742
(lp1743
I6500
aS'NYG'
p1744
aS'WAS'
p1745
asS'Mychal Rivera'
p1746
(lp1747
I2500
aS'TEN'
p1748
aS'OAK'
p1749
asS'Marcedes Lewis'
p1750
(lp1751
I2500
aS'BAL'
p1752
ag74
asS'Hunter Henry'
p1753
(lp1754
I2500
aS'IND'
p1755
aS'SD'
p1756
asS'Trey Burton'
p1757
(lp1758
I2500
aS'PIT'
p1759
aS'PHI'
p1760
asS'Jermaine Gresham'
p1761
(lp1762
I2500
aS'BUF'
p1763
aS'ARI'
p1764
asS'Cory Harkey'
p1765
(lp1766
I2500
aS'TB'
p1767
ag53
asS'Tyler Higbee'
p1768
(lp1769
I2500
aS'TB'
p1770
ag53
asS"James O'Shaughnessy"
p1771
(lp1772
I2500
aS'NYJ'
p1773
aS'KC'
p1774
asS'Erik Swoope'
p1775
(lp1776
I2500
aS'SD'
p1777
aS'IND'
p1778
asS'Stephen Anderson'
p1779
(lp1780
I2500
aS'NE'
p1781
aS'HOU'
p1782
asS'Vance McDonald'
p1783
(lp1784
I2900
aS'SEA'
p1785
aS'SF'
p1786
asS'Jordan Cameron'
p1787
(lp1788
I2900
aS'CLE'
p1789
aS'MIA'
p1790
asS'Temarrick Hemingway'
p1791
(lp1792
I2500
aS'TB'
p1793
ag53
asS'Clark Harris'
p1794
(lp1795
I2500
aS'DEN'
p1796
aS'CIN'
p1797
asS'Coby Fleener'
p1798
(lp1799
I3300
aS'ATL'
p1800
aS'NO'
p1801
asS'Gary Barnidge'
p1802
(lp1803
I4000
aS'MIA'
p1804
aS'CLE'
p1805
asS'Cameron Brate'
p1806
(lp1807
I2500
ag53
aS'TB'
p1808
asS'Beau Brinkley'
p1809
(lp1810
I2500
aS'OAK'
p1811
aS'TEN'
p1812
asS'Jared Cook'
p1813
(lp1814
I2900
aS'DET'
p1815
aS'GB'
p1816
asS'Kyle Rudolph'
p1817
(lp1818
I3100
aS'CAR'
p1819
aS'MIN'
p1820
asS'Dennis Pitta'
p1821
(lp1822
I3400
ag74
aS'BAL'
p1823
asS'Kyle Nelson'
p1824
(lp1825
I2500
aS'SEA'
p1826
aS'SF'
p1827
asS'Nick Vannett'
p1828
(lp1829
I2500
aS'SF'
p1830
aS'SEA'
p1831
asS'Zach Ertz'
p1832
(lp1833
I3900
aS'PIT'
p1834
aS'PHI'
p1835
asS'Anthony Fasano'
p1836
(lp1837
I2500
aS'OAK'
p1838
aS'TEN'
p1839
asS'Phillip Supernaw'
p1840
(lp1841
I2500
aS'OAK'
p1842
aS'TEN'
p1843
asS'Orson Charles'
p1844
(lp1845
I2500
aS'GB'
p1846
aS'DET'
p1847
asS'Richard Rodgers'
p1848
(lp1849
I2700
aS'DET'
p1850
aS'GB'
p1851
asS'Jim Dray'
p1852
(lp1853
I2500
aS'ARI'
p1854
aS'BUF'
p1855
asS'Darren Fells'
p1856
(lp1857
I2500
aS'BUF'
p1858
aS'ARI'
p1859
asS'Martellus Bennett'
p1860
(lp1861
I4700
aS'HOU'
p1862
aS'NE'
p1863
asS'Khari Lee'
p1864
(lp1865
I2500
aS'GB'
p1866
aS'DET'
p1867
asS'MyCole Pruitt'
p1868
(lp1869
I2500
aS'CAR'
p1870
aS'MIN'
p1871
asS'Rob Gronkowski'
p1872
(lp1873
I6800
aS'HOU'
p1874
aS'NE'
p1875
asS'Luke Stocker'
p1876
(lp1877
I2500
ag53
aS'TB'
p1878
asS'Chris Manhertz'
p1879
(lp1880
I2500
aS'ATL'
p1881
aS'NO'
p1882
asS'Patrick Scales'
p1883
(lp1884
I2500
aS'DAL'
p1885
aS'CHI'
p1886
asS'MarQueis Gray'
p1887
(lp1888
I2500
aS'CLE'
p1889
aS'MIA'
p1890
asS"Nick O'Leary"
p1891
(lp1892
I2500
aS'ARI'
p1893
aS'BUF'
p1894
asS'Demetrius Harris'
p1895
(lp1896
I2500
aS'NYJ'
p1897
aS'KC'
p1898
asS'James Winchester'
p1899
(lp1900
I2500
aS'NYJ'
p1901
aS'KC'
p1902
asS'Clive Walford'
p1903
(lp1904
I2800
aS'TEN'
p1905
aS'OAK'
p1906
asS'Jesse James'
p1907
(lp1908
I3500
aS'PHI'
p1909
aS'PIT'
p1910
asS'Austin Hooper'
p1911
(lp1912
I2500
aS'NO'
p1913
aS'ATL'
p1914
asS'Troy Niklas'
p1915
(lp1916
I2500
aS'BUF'
p1917
aS'ARI'
p1918
asS'Larry Donnell'
p1919
(lp1920
I2700
aS'WAS'
p1921
aS'NYG'
p1922
asS'Austin Seferian-Jenkins'
p1923
(lp1924
I2900
ag53
aS'TB'
p1925
asS'Jace Amaro'
p1926
(lp1927
I2500
aS'OAK'
p1928
aS'TEN'
p1929
asS'Ed Dickson'
p1930
(lp1931
I2500
aS'MIN'
p1932
aS'CAR'
p1933
asS'Zach Miller'
p1934
(lp1935
I2900
aS'DAL'
p1936
aS'CHI'
p1937
asS'Dwayne Allen'
p1938
(lp1939
I3800
aS'SD'
p1940
aS'IND'
p1941
asS'Dion Sims'
p1942
(lp1943
I2500
aS'CLE'
p1944
aS'MIA'
p1945
asS'Brandon Bostick'
p1946
(lp1947
I2500
aS'KC'
p1948
aS'NYJ'
p1949
asS'A.J. Derby'
p1950
(lp1951
I2500
aS'HOU'
p1952
aS'NE'
p1953
asS'Ryan Griffin'
p1954
(lp1955
I2500
aS'NE'
p1956
aS'HOU'
p1957
asS'Gavin Escobar'
p1958
(lp1959
I2500
aS'CHI'
p1960
aS'DAL'
p1961
asS'Jimmy Graham'
p1962
(lp1963
I3000
aS'SF'
p1964
aS'SEA'
p1965
asS'Antonio Gates'
p1966
(lp1967
I4600
aS'IND'
p1968
aS'SD'
p1969
asS'Kellen Davis'
p1970
(lp1971
I2500
aS'KC'
p1972
aS'NYJ'
p1973
asS'Vernon Davis'
p1974
(lp1975
I2700
aS'NYG'
p1976
aS'WAS'
p1977
asS'David Johnson'
p1978
(lp1979
I2500
aS'PHI'
p1980
aS'PIT'
p1981
asS'Ross Travis'
p1982
(lp1983
I2500
aS'NYJ'
p1984
aS'KC'
p1985
asS'Blake Bell'
p1986
(lp1987
I2500
aS'SEA'
p1988
aS'SF'
p1989
asS'Jack Doyle'
p1990
(lp1991
I2500
aS'SD'
p1992
aS'IND'
p1993
asS'David Morgan'
p1994
(lp1995
I2500
aS'CAR'
p1996
aS'MIN'
p1997
asS'John Phillips'
p1998
(lp1999
I2500
aS'CIN'
p2000
aS'DEN'
p2001
asS'Josh Hill'
p2002
(lp2003
I2500
aS'ATL'
p2004
aS'NO'
p2005
asS'Julius Thomas'
p2006
(lp2007
I4600
aS'BAL'
p2008
ag74
asS'Sean McGrath'
p2009
(lp2010
I2500
aS'IND'
p2011
aS'SD'
p2012
asS'Jerell Adams'
p2013
(lp2014
I2500
aS'WAS'
p2015
aS'NYG'
p2016
asS'Travis Kelce'
p2017
(lp2018
I4700
aS'NYJ'
p2019
aS'KC'
p2020
asS'Tyler Kroft'
p2021
(lp2022
I2500
aS'DEN'
p2023
aS'CIN'
p2024
asS'Eric Ebron'
p2025
(lp2026
I3700
aS'GB'
p2027
aS'DET'
p2028
asS'Brandon Myers'
p2029
(lp2030
I2500
ag53
aS'TB'
p2031
asS'Charles Clay'
p2032
(lp2033
I2900
aS'ARI'
p2034
aS'BUF'
p2035
asS'Justin Perillo'
p2036
(lp2037
I2500
aS'DET'
p2038
aS'GB'
p2039
asS'Joshua Perkins'
p2040
(lp2041
I2500
aS'NO'
p2042
aS'ATL'
p2043
asS'C.J. Uzomah'
p2044
(lp2045
I2500
aS'DEN'
p2046
aS'CIN'
p2047
asS'Greg Olsen'
p2048
(lp2049
I5800
aS'MIN'
p2050
aS'CAR'
p2051
asS'Rhett Ellison'
p2052
(lp2053
I2500
aS'CAR'
p2054
aS'MIN'
p2055
asS'Crockett Gillmore'
p2056
(lp2057
I2500
ag74
aS'BAL'
p2058
asS'Delanie Walker'
p2059
(lp2060
I5000
aS'OAK'
p2061
aS'TEN'
p2062
asS'Kevin McDermott'
p2063
(lp2064
I2500
aS'CAR'
p2065
aS'MIN'
p2066
asS'Tyler Eifert'
p2067
(lp2068
I4500
aS'DEN'
p2069
aS'CIN'
p2070
asS'Ryan Hewitt'
p2071
(lp2072
I2500
aS'DEN'
p2073
aS'CIN'
p2074
asS'C.J. Fiedorowicz'
p2075
(lp2076
I2500
aS'NE'
p2077
aS'HOU'
p2078
asS'Randall Telfer'
p2079
(lp2080
I2500
aS'MIA'
p2081
aS'CLE'
p2082
asS'Jeff Heuerman'
p2083
(lp2084
I2500
aS'CIN'
p2085
aS'DEN'
p2086
asS'Xavier Grimble'
p2087
(lp2088
I2500
aS'PHI'
p2089
aS'PIT'
p2090
asS'Andrew DePaola'
p2091
(lp2092
I2500
ag53
aS'TB'
p2093
asS'Jacob Tamme'
p2094
(lp2095
I3200
aS'NO'
p2096
aS'ATL'
p2097
asS'Lance Kendricks'
p2098
(lp2099
I2700
aS'TB'
p2100
ag53
asS'Luke Willson'
p2101
(lp2102
I2500
aS'SF'
p2103
aS'SEA'
p2104
asS'Virgil Green'
p2105
(lp2106
I3000
aS'CIN'
p2107
aS'DEN'
p2108
asS'Andrew Quarless'
p2109
(lp2110
I2500
aS'GB'
p2111
aS'DET'
p2112
asS'Cole Wick'
p2113
(lp2114
I2500
aS'GB'
p2115
aS'DET'
p2116
asS'Brandon Williams'
p2117
(lp2118
I2500
aS'SF'
p2119
aS'SEA'
p2120
asS'Niles Paul'
p2121
(lp2122
I2500
aS'NYG'
p2123
aS'WAS'
p2124
ass.