(dp0
S'DST'
p1
(dp2
S'Broncos'
p3
(lp4
I3500
aS'Bengals'
p5
aS'Away'
p6
aS'Broncos'
p7
asS'Vikings'
p8
(lp9
I3100
aS'Panthers'
p10
ag6
aS'Vikings'
p11
asS'Bears'
p12
(lp13
I2700
aS'Cowboys'
p14
ag6
aS'Bears'
p15
asS'Falcons'
p16
(lp17
I2000
aS'Saints'
p18
ag6
aS'Falcons'
p19
asS'Saints'
p20
(lp21
I2200
ag19
aS'Home'
p22
ag18
asS'Chargers'
p23
(lp24
I2300
aS'Colts'
p25
ag6
aS'Chargers'
p26
asS'Raiders'
p27
(lp28
I2600
aS'Titans'
p29
ag6
aS'Raiders'
p30
asS'Lions'
p31
(lp32
I2400
aS'Packers'
p33
ag6
aS'Lions'
p34
asS'Browns'
p35
(lp36
I2300
aS'Dolphins'
p37
ag6
aS'Browns'
p38
asS'Eagles'
p39
(lp40
I2800
aS'Steelers'
p41
ag22
aS'Eagles'
p42
asS'Steelers'
p43
(lp44
I2900
ag42
ag6
ag41
asS'Giants'
p45
(lp46
I3300
aS'Redskins'
p47
ag22
aS'Giants'
p48
asS'Buccaneers'
p49
(lp50
I3100
aS'Rams'
p51
ag22
aS'Buccaneers'
p52
asS'Cardinals'
p53
(lp54
I3600
aS'Bills'
p55
ag6
aS'Cardinals'
p56
asS'Bengals'
p57
(lp58
I2800
ag7
ag22
ag5
asS'Chiefs'
p59
(lp60
I3200
aS'Jets'
p61
ag22
aS'Chiefs'
p62
asS'Dolphins'
p63
(lp64
I3000
ag38
ag22
ag37
asS'Jaguars'
p65
(lp66
I2600
aS'Ravens'
p67
ag22
aS'Jaguars'
p68
asS'Seahawks'
p69
(lp70
I4100
aS'49ers'
p71
ag22
aS'Seahawks'
p72
asS'Jets'
p73
(lp74
I2900
ag62
ag6
ag61
asS'Ravens'
p75
(lp76
I2500
ag68
ag6
ag67
asS'Colts'
p77
(lp78
I2400
ag26
ag22
ag25
asS'Packers'
p79
(lp80
I3000
ag34
ag22
ag33
asS'Titans'
p81
(lp82
I2500
ag30
ag22
ag29
asS'Rams'
p83
(lp84
I3000
ag52
ag6
ag51
asS'Bills'
p85
(lp86
I2700
ag56
ag22
ag55
asS'Texans'
p87
(lp88
I3000
aS'Patriots'
p89
ag6
aS'Texans'
p90
asS'49ers'
p91
(lp92
I2400
ag72
ag6
ag71
asS'Patriots'
p93
(lp94
I3200
ag90
ag22
ag89
asS'Cowboys'
p95
(lp96
I2500
ag15
ag22
ag14
asS'Panthers'
p97
(lp98
I3800
ag11
ag22
ag10
asS'Redskins'
p99
(lp100
I2400
ag48
ag6
ag47
assS'QB'
p101
(dp102
S'Ryan Tannehill'
p103
(lp104
I6200
ag38
ag22
ag37
asS'Carson Wentz'
p105
(lp106
I5500
ag41
ag22
ag42
asS'Tom Savage'
p107
(lp108
I5000
ag89
ag6
ag90
asS'Landry Jones'
p109
(lp110
I5000
ag42
ag6
ag41
asS'Colt McCoy'
p111
(lp112
I5000
ag48
ag6
ag47
asS'Cam Newton'
p113
(lp114
I7800
ag11
ag22
ag10
asS'Josh McCown'
p115
(lp116
I5600
ag37
ag6
ag38
asS'Chase Daniel'
p117
(lp118
I5000
ag41
ag22
ag42
asS'Mark Sanchez'
p119
(lp120
I5000
ag15
ag22
ag14
asS'Jared Goff'
p121
(lp122
I5000
ag52
ag6
ag51
asS'Mike Glennon'
p123
(lp124
I5000
ag51
ag22
ag52
asS'Colin Kaepernick'
p125
(lp126
I5000
ag72
ag6
ag71
asS'Blake Bortles'
p127
(lp128
I6500
ag67
ag22
ag68
asS'Connor Cook'
p129
(lp130
I5000
ag29
ag6
ag30
asS'Brett Hundley'
p131
(lp132
I5000
ag34
ag22
ag33
asS'Ryan Mallett'
p133
(lp134
I5000
ag68
ag6
ag67
asS'Christian Hackenberg'
p135
(lp136
I5000
ag62
ag6
ag61
asS'Philip Rivers'
p137
(lp138
I6700
ag25
ag6
ag26
asS'Jimmy Garoppolo'
p139
(lp140
I5600
ag90
ag22
ag89
asS'Alex Smith'
p141
(lp142
I5800
ag61
ag22
ag62
asS'Chad Henne'
p143
(lp144
I5000
ag67
ag22
ag68
asS'Dan Orlovsky'
p145
(lp146
I5000
ag33
ag6
ag34
asS'Matt Schaub'
p147
(lp148
I5000
ag18
ag6
ag19
asS'Joe Callahan'
p149
(lp150
I5000
ag34
ag22
ag33
asS'Jeff Driskel'
p151
(lp152
I5000
ag7
ag22
ag5
asS'AJ McCarron'
p153
(lp154
I5000
ag7
ag22
ag5
asS'Tyrod Taylor'
p155
(lp156
I5800
ag56
ag22
ag55
asS'Matt Ryan'
p157
(lp158
I7400
ag18
ag6
ag19
asS'Matt Moore'
p159
(lp160
I5000
ag38
ag22
ag37
asS'Kirk Cousins'
p161
(lp162
I6400
ag48
ag6
ag47
asS'Nick Foles'
p163
(lp164
I5000
ag61
ag22
ag62
asS'Nate Sudfeld'
p165
(lp166
I5000
ag48
ag6
ag47
asS'Jameis Winston'
p167
(lp168
I6000
ag51
ag22
ag52
asS'Brandon Allen'
p169
(lp170
I5000
ag67
ag22
ag68
asS'Ben Roethlisberger'
p171
(lp172
I7300
ag42
ag6
ag41
asS'Matt McGloin'
p173
(lp174
I5000
ag29
ag6
ag30
asS'Russell Wilson'
p175
(lp176
I7100
ag71
ag22
ag72
asS'Joe Webb'
p177
(lp178
I5000
ag11
ag22
ag10
asS'Shaun Hill'
p179
(lp180
I5000
ag10
ag6
ag11
asS'Matthew Stafford'
p181
(lp182
I6800
ag33
ag6
ag34
asS'Andrew Luck'
p183
(lp184
I7600
ag26
ag22
ag25
asS'Tyler Bray'
p185
(lp186
I5000
ag61
ag22
ag62
asS'Josh Johnson'
p187
(lp188
I5000
ag47
ag22
ag48
asS'Brandon Weeden'
p189
(lp190
I5000
ag89
ag6
ag90
asS'Trevone Boykin'
p191
(lp192
I5000
ag71
ag22
ag72
asS'Jay Cutler'
p193
(lp194
I5600
ag14
ag6
ag15
asS'Dak Prescott'
p195
(lp196
I5700
ag15
ag22
ag14
asS'Brock Osweiler'
p197
(lp198
I6000
ag89
ag6
ag90
asS'Paxton Lynch'
p199
(lp200
I5000
ag5
ag6
ag7
asS'Case Keenum'
p201
(lp202
I5000
ag52
ag6
ag51
asS'Trevor Siemian'
p203
(lp204
I5100
ag5
ag6
ag7
asS'Geno Smith'
p205
(lp206
I5000
ag62
ag6
ag61
asS'Brian Hoyer'
p207
(lp208
I5000
ag14
ag6
ag15
asS'Marcus Mariota'
p209
(lp210
I5900
ag30
ag22
ag29
asS'Sean Mannion'
p211
(lp212
I5000
ag52
ag6
ag51
asS'Jacoby Brissett'
p213
(lp214
I5000
ag90
ag22
ag89
asS'Carson Palmer'
p215
(lp216
I7200
ag55
ag6
ag56
asS'Sam Bradford'
p217
(lp218
I5300
ag10
ag6
ag11
asS'Derek Anderson'
p219
(lp220
I5000
ag11
ag22
ag10
asS'Christian Ponder'
p221
(lp222
I5000
ag72
ag6
ag71
asS'EJ Manuel'
p223
(lp224
I5000
ag56
ag22
ag55
asS'Eli Manning'
p225
(lp226
I7000
ag47
ag22
ag48
asS'Blaine Gabbert'
p227
(lp228
I5000
ag72
ag6
ag71
asS'Andy Dalton'
p229
(lp230
I5700
ag7
ag22
ag5
asS'Tony Romo'
p231
(lp232
I6000
ag15
ag22
ag14
asS'Matt Cassel'
p233
(lp234
I5000
ag30
ag22
ag29
asS'Austin Davis'
p235
(lp236
I5000
ag5
ag6
ag7
asS'Derek Carr'
p237
(lp238
I6900
ag29
ag6
ag30
asS'Ryan Griffin'
p239
(lp240
I5000
ag51
ag22
ag52
asS'Ryan Fitzpatrick'
p241
(lp242
I5900
ag62
ag6
ag61
asS'Kellen Clemens'
p243
(lp244
I5000
ag25
ag6
ag26
asS'Aaron Rodgers'
p245
(lp246
I7700
ag34
ag22
ag33
asS'Joe Flacco'
p247
(lp248
I6100
ag68
ag6
ag67
asS'Drew Stanton'
p249
(lp250
I5000
ag55
ag6
ag56
asS'Zach Mettenberger'
p251
(lp252
I5000
ag42
ag6
ag41
asS'Drew Brees'
p253
(lp254
I7900
ag19
ag22
ag18
asS'Cardale Jones'
p255
(lp256
I5000
ag56
ag22
ag55
asS'Bryce Petty'
p257
(lp258
I5000
ag62
ag6
ag61
asS'Luke McCown'
p259
(lp260
I5000
ag19
ag22
ag18
asS'Scott Tolzien'
p261
(lp262
I5000
ag26
ag22
ag25
asS'Cody Kessler'
p263
(lp264
I5000
ag37
ag6
ag38
asS'Ryan Nassib'
p265
(lp266
I5000
ag47
ag22
ag48
assS'WR'
p267
(dp268
S'Tyler Lockett'
p269
(lp270
I4200
ag71
ag22
ag72
asS'Chester Rogers'
p271
(lp272
I3000
ag26
ag22
ag25
asS'Deonte Thompson'
p273
(lp274
I3000
ag14
ag6
ag15
asS'Andre Holmes'
p275
(lp276
I3000
ag29
ag6
ag30
asS'Jalin Marshall'
p277
(lp278
I3000
ag62
ag6
ag61
asS'Dwayne Harris'
p279
(lp280
I3000
ag47
ag22
ag48
asS'Lucky Whitehead'
p281
(lp282
I3000
ag15
ag22
ag14
asS'Golden Tate'
p283
(lp284
I5900
ag33
ag6
ag34
asS'Ty Montgomery'
p285
(lp286
I3000
ag34
ag22
ag33
asS'Braxton Miller'
p287
(lp288
I3000
ag89
ag6
ag90
asS'Tajae Sharpe'
p289
(lp290
I4700
ag30
ag22
ag29
asS'Bryan Walters'
p291
(lp292
I3000
ag67
ag22
ag68
asS'Josh Huff'
p293
(lp294
I3000
ag41
ag22
ag42
asS'Anquan Boldin'
p295
(lp296
I4200
ag33
ag6
ag34
asS'Kenny Stills'
p297
(lp298
I3600
ag38
ag22
ag37
asS'Dorial Green-Beckham'
p299
(lp300
I3200
ag41
ag22
ag42
asS'Brandon Coleman'
p301
(lp302
I3000
ag19
ag22
ag18
asS'Kendall Wright'
p303
(lp304
I3000
ag30
ag22
ag29
asS'DeSean Jackson'
p305
(lp306
I5900
ag48
ag6
ag47
asS'Jamison Crowder'
p307
(lp308
I3800
ag48
ag6
ag47
asS'Tavon Austin'
p309
(lp310
I4100
ag52
ag6
ag51
asS'Markus Wheaton'
p311
(lp312
I4600
ag42
ag6
ag41
asS'Amari Cooper'
p313
(lp314
I7700
ag29
ag6
ag30
asS'Josh Doctson'
p315
(lp316
I3000
ag48
ag6
ag47
asS'Justin Hardy'
p317
(lp318
I3000
ag18
ag6
ag19
asS'Albert Wilson'
p319
(lp320
I3000
ag61
ag22
ag62
asS'Sterling Shepard'
p321
(lp322
I5500
ag47
ag22
ag48
asS'Doug Baldwin'
p323
(lp324
I6300
ag71
ag22
ag72
asS'Justin Hunter'
p325
(lp326
I3000
ag38
ag22
ag37
asS'Jarvis Landry'
p327
(lp328
I6600
ag38
ag22
ag37
asS'Danny Amendola'
p329
(lp330
I3700
ag90
ag22
ag89
asS'Travis Benjamin'
p331
(lp332
I5200
ag25
ag6
ag26
asS'Allen Robinson'
p333
(lp334
I7500
ag67
ag22
ag68
asS'Mohamed Sanu'
p335
(lp336
I5700
ag18
ag6
ag19
asS'Harry Douglas'
p337
(lp338
I3000
ag30
ag22
ag29
asS'Quan Bray'
p339
(lp340
I3000
ag26
ag22
ag25
asS'Mike Thomas'
p341
(lp342
I3000
ag52
ag6
ag51
asS'Jeremy Maclin'
p343
(lp344
I6000
ag61
ag22
ag62
asS'Adam Humphries'
p345
(lp346
I3000
ag51
ag22
ag52
asS'Bradley Marquez'
p347
(lp348
I3000
ag52
ag6
ag51
asS'Chris Moore'
p349
(lp350
I3000
ag68
ag6
ag67
asS'Laquon Treadwell'
p351
(lp352
I3100
ag10
ag6
ag11
asS'Cody Latimer'
p353
(lp354
I3000
ag5
ag6
ag7
asS'Brandon Tate'
p355
(lp356
I3000
ag56
ag22
ag55
asS'Eric Weems'
p357
(lp358
I3000
ag18
ag6
ag19
asS'Charone Peake'
p359
(lp360
I3000
ag62
ag6
ag61
asS'Kevin White'
p361
(lp362
I4000
ag14
ag6
ag15
asS'Marquise Goodwin'
p363
(lp364
I3000
ag56
ag22
ag55
asS'Julian Edelman'
p365
(lp366
I6400
ag90
ag22
ag89
asS'Tanner McEvoy'
p367
(lp368
I3000
ag71
ag22
ag72
asS'Ted Ginn'
p369
(lp370
I3700
ag11
ag22
ag10
asS'Malcolm Mitchell'
p371
(lp372
I3000
ag90
ag22
ag89
asS'Andre Roberts'
p373
(lp374
I3000
ag33
ag6
ag34
asS'Brice Butler'
p375
(lp376
I3000
ag15
ag22
ag14
asS'Breshad Perriman'
p377
(lp378
I3000
ag68
ag6
ag67
asS'Jermaine Kearse'
p379
(lp380
I3400
ag71
ag22
ag72
asS'Allen Hurns'
p381
(lp382
I5200
ag67
ag22
ag68
asS'Phillip Dorsett'
p383
(lp384
I4400
ag26
ag22
ag25
asS'Sammy Watkins'
p385
(lp386
I6100
ag56
ag22
ag55
asS'Jakeem Grant'
p387
(lp388
I3000
ag38
ag22
ag37
asS'Matthew Slater'
p389
(lp390
I3000
ag90
ag22
ag89
asS'Demaryius Thomas'
p391
(lp392
I6400
ag5
ag6
ag7
asS'Davante Adams'
p393
(lp394
I4100
ag34
ag22
ag33
asS'Tyreek Hill'
p395
(lp396
I3000
ag61
ag22
ag62
asS'Will Fuller'
p397
(lp398
I4800
ag89
ag6
ag90
asS'Rishard Matthews'
p399
(lp400
I3300
ag30
ag22
ag29
asS'Marqise Lee'
p401
(lp402
I3000
ag67
ag22
ag68
asS'Jaron Brown'
p403
(lp404
I3300
ag55
ag6
ag56
asS'Devin Funchess'
p405
(lp406
I4100
ag11
ag22
ag10
asS'Tommylee Lewis'
p407
(lp408
I3000
ag19
ag22
ag18
asS'Brandin Cooks'
p409
(lp410
I7900
ag19
ag22
ag18
asS'Ryan Grant'
p411
(lp412
I3000
ag48
ag6
ag47
asS'Damiere Byrd'
p413
(lp414
I3000
ag11
ag22
ag10
asS'J.J. Nelson'
p415
(lp416
I3000
ag55
ag6
ag56
asS"De'Anthony Thomas"
p417
(lp418
I3000
ag61
ag22
ag62
asS'Terrelle Pryor'
p419
(lp420
I3400
ag37
ag6
ag38
asS'Antonio Brown'
p421
(lp422
I9600
ag42
ag6
ag41
asS'Bryce Treggs'
p423
(lp424
I3000
ag41
ag22
ag42
asS'Michael Thomas'
p425
(lp426
I4200
ag19
ag22
ag18
asS'Andrew Hawkins'
p427
(lp428
I3000
ag37
ag6
ag38
asS'Jordan Norwood'
p429
(lp430
I3000
ag5
ag6
ag7
asS'Rashad Ross'
p431
(lp432
I3000
ag48
ag6
ag47
asS'James Wright'
p433
(lp434
I3000
ag7
ag22
ag5
asS'Sammie Coates'
p435
(lp436
I3800
ag42
ag6
ag41
asS'Charles Johnson'
p437
(lp438
I3000
ag10
ag6
ag11
asS'Michael Crabtree'
p439
(lp440
I6000
ag29
ag6
ag30
asS'Terrance Williams'
p441
(lp442
I3300
ag15
ag22
ag14
asS'Eric Decker'
p443
(lp444
I6900
ag62
ag6
ag61
asS'Arrelious Benn'
p445
(lp446
I3000
ag67
ag22
ag68
asS'Aldrick Robinson'
p447
(lp448
I3000
ag18
ag6
ag19
asS'Keith Mumphery'
p449
(lp450
I3000
ag89
ag6
ag90
asS'Chris Conley'
p451
(lp452
I3100
ag61
ag22
ag62
asS'Jaelen Strong'
p453
(lp454
I3300
ag89
ag6
ag90
asS'Rashad Greene'
p455
(lp456
I3000
ag67
ag22
ag68
asS'Jarius Wright'
p457
(lp458
I3000
ag10
ag6
ag11
asS'Seth Roberts'
p459
(lp460
I3500
ag29
ag6
ag30
asS'Brandon LaFell'
p461
(lp462
I3400
ag7
ag22
ag5
asS'Pharoh Cooper'
p463
(lp464
I3000
ag52
ag6
ag51
asS'Cameron Meredith'
p465
(lp466
I3000
ag14
ag6
ag15
asS'Rod Streater'
p467
(lp468
I3000
ag72
ag6
ag71
asS'A.J. Green'
p469
(lp470
I8100
ag7
ag22
ag5
asS'Bennie Fowler'
p471
(lp472
I3000
ag5
ag6
ag7
asS'Robert Woods'
p473
(lp474
I3200
ag56
ag22
ag55
asS'Vincent Jackson'
p475
(lp476
I3900
ag51
ag22
ag52
asS'Alex Erickson'
p477
(lp478
I3000
ag7
ag22
ag5
asS'Julio Jones'
p479
(lp480
I9500
ag18
ag6
ag19
asS'Kelvin Benjamin'
p481
(lp482
I7200
ag11
ag22
ag10
asS'Cole Beasley'
p483
(lp484
I3200
ag15
ag22
ag14
asS'Cody Core'
p485
(lp486
I3000
ag7
ag22
ag5
asS'Corey Coleman'
p487
(lp488
I5300
ag37
ag6
ag38
asS'Cecil Shorts'
p489
(lp490
I3000
ag51
ag22
ag52
asS'Mike Evans'
p491
(lp492
I7000
ag51
ag22
ag52
asS'Russell Shepard'
p493
(lp494
I3000
ag51
ag22
ag52
asS'Eddie Royal'
p495
(lp496
I3500
ag14
ag6
ag15
asS'Jared Abbrederis'
p497
(lp498
I3000
ag34
ag22
ag33
asS'Willie Snead'
p499
(lp500
I6500
ag19
ag22
ag18
asS'Trevor Davis'
p501
(lp502
I3000
ag34
ag22
ag33
asS'Jeff Janis'
p503
(lp504
I3200
ag34
ag22
ag33
asS'Nelson Spruce'
p505
(lp506
I3000
ag52
ag6
ag51
asS'DeVante Parker'
p507
(lp508
I4900
ag38
ag22
ag37
asS'Adam Thielen'
p509
(lp510
I3200
ag10
ag6
ag11
asS'DeAndre Hopkins'
p511
(lp512
I8600
ag89
ag6
ag90
asS'Demarcus Robinson'
p513
(lp514
I3000
ag61
ag22
ag62
asS'Victor Cruz'
p515
(lp516
I4700
ag47
ag22
ag48
asS'Jordan Taylor'
p517
(lp518
I3000
ag5
ag6
ag7
asS'Jeremy Kerley'
p519
(lp520
I3400
ag72
ag6
ag71
asS'Greg Salas'
p521
(lp522
I3000
ag56
ag22
ag55
asS'Emmanuel Sanders'
p523
(lp524
I6000
ag5
ag6
ag7
asS'Kenny Britt'
p525
(lp526
I3900
ag52
ag6
ag51
asS'Odell Beckham'
p527
(lp528
I9100
ag47
ag22
ag48
asS'Cordarrelle Patterson'
p529
(lp530
I3000
ag10
ag6
ag11
asS'Paul Richardson'
p531
(lp532
I3000
ag71
ag22
ag72
asS'Tavarres King'
p533
(lp534
I3000
ag47
ag22
ag48
asS'Dontrelle Inman'
p535
(lp536
I3600
ag25
ag6
ag26
asS'Randall Cobb'
p537
(lp538
I7300
ag34
ag22
ag33
asS'Brian Quick'
p539
(lp540
I3000
ag52
ag6
ag51
asS'Steve Smith'
p541
(lp542
I4100
ag68
ag6
ag67
asS'Johnny Holton'
p543
(lp544
I3000
ag29
ag6
ag30
asS'T.Y. Hilton'
p545
(lp546
I6800
ag26
ag22
ag25
asS'John Brown'
p547
(lp548
I4800
ag55
ag6
ag56
asS'Jordan Payton'
p549
(lp550
I3000
ag37
ag6
ag38
asS'Jordy Nelson'
p551
(lp552
I7400
ag34
ag22
ag33
asS'Quincy Enunwa'
p553
(lp554
I4800
ag62
ag6
ag61
asS'Joshua Bellamy'
p555
(lp556
I3000
ag14
ag6
ag15
asS'Jordan Matthews'
p557
(lp558
I7100
ag41
ag22
ag42
asS'Taylor Gabriel'
p559
(lp560
I3000
ag18
ag6
ag19
asS'Marc Mariani'
p561
(lp562
I3000
ag30
ag22
ag29
asS'Mike Wallace'
p563
(lp564
I5000
ag68
ag6
ag67
asS'Torrey Smith'
p565
(lp566
I4300
ag72
ag6
ag71
asS'Corey Brown'
p567
(lp568
I3000
ag11
ag22
ag10
asS'Roger Lewis'
p569
(lp570
I3000
ag47
ag22
ag48
asS'Nelson Agholor'
p571
(lp572
I3500
ag41
ag22
ag42
asS'Michael Floyd'
p573
(lp574
I5800
ag55
ag6
ag56
asS'Quinton Patton'
p575
(lp576
I3100
ag72
ag6
ag71
asS'Walt Powell'
p577
(lp578
I3000
ag56
ag22
ag55
asS'Tyler Boyd'
p579
(lp580
I3500
ag7
ag22
ag5
asS'Rashard Higgins'
p581
(lp582
I3000
ag37
ag6
ag38
asS'Leonte Carroo'
p583
(lp584
I3000
ag38
ag22
ag37
asS'Andre Johnson'
p585
(lp586
I3400
ag30
ag22
ag29
asS'Alshon Jeffery'
p587
(lp588
I8000
ag14
ag6
ag15
asS'Brandon Marshall'
p589
(lp590
I7300
ag62
ag6
ag61
asS'Kamar Aiken'
p591
(lp592
I3100
ag68
ag6
ag67
asS'Robby Anderson'
p593
(lp594
I3000
ag62
ag6
ag61
asS'Stefon Diggs'
p595
(lp596
I5100
ag10
ag6
ag11
asS'Larry Fitzgerald'
p597
(lp598
I6900
ag55
ag6
ag56
asS'Devin Hester'
p599
(lp600
I3000
ag68
ag6
ag67
asS'Isaiah Burse'
p601
(lp602
I3000
ag25
ag6
ag26
asS'Brenton Bersin'
p603
(lp604
I3000
ag11
ag22
ag10
asS'Ricardo Louis'
p605
(lp606
I3000
ag37
ag6
ag38
asS'Marvin Jones'
p607
(lp608
I6200
ag33
ag6
ag34
asS'Pierre Garcon'
p609
(lp610
I3900
ag48
ag6
ag47
asS'Chris Hogan'
p611
(lp612
I3900
ag90
ag22
ag89
asS'Donte Moncrief'
p613
(lp614
I6700
ag26
ag22
ag25
asS'Darrius Heyward-Bey'
p615
(lp616
I3200
ag42
ag6
ag41
asS'Dez Bryant'
p617
(lp618
I8400
ag15
ag22
ag14
asS'Tyrell Williams'
p619
(lp620
I4300
ag25
ag6
ag26
asS'Aaron Burbridge'
p621
(lp622
I3000
ag72
ag6
ag71
asS'Eli Rogers'
p623
(lp624
I3900
ag42
ag6
ag41
assS'RB'
p625
(dp626
S'Will Tukuafu'
p627
(lp628
I3000
ag71
ag22
ag72
asS'Taiwan Jones'
p629
(lp630
I3000
ag29
ag6
ag30
asS'Frank Gore'
p631
(lp632
I5000
ag26
ag22
ag25
asS'Jay Ajayi'
p633
(lp634
I4000
ag38
ag22
ag37
asS'Rashad Jennings'
p635
(lp636
I5100
ag47
ag22
ag48
asS'Jerick McKinnon'
p637
(lp638
I3800
ag10
ag6
ag11
asS'Terrance West'
p639
(lp640
I3500
ag68
ag6
ag67
asS'Jalston Fowler'
p641
(lp642
I3000
ag30
ag22
ag29
asS'Bilal Powell'
p643
(lp644
I3400
ag62
ag6
ag61
asS'D.J. Foster'
p645
(lp646
I3000
ag90
ag22
ag89
asS'Fozzy Whittaker'
p647
(lp648
I3800
ag11
ag22
ag10
asS'Terron Ward'
p649
(lp650
I3000
ag18
ag6
ag19
asS'Kenneth Dixon'
p651
(lp652
I3000
ag68
ag6
ag67
asS'Tyler Ervin'
p653
(lp654
I3000
ag89
ag6
ag90
asS'Alex Collins'
p655
(lp656
I3000
ag71
ag22
ag72
asS'Theo Riddick'
p657
(lp658
I4900
ag33
ag6
ag34
asS'Corey Grant'
p659
(lp660
I3000
ag67
ag22
ag68
asS'Malcolm Brown'
p661
(lp662
I3000
ag52
ag6
ag51
asS'Darren Sproles'
p663
(lp664
I3700
ag41
ag22
ag42
asS'Christine Michael'
p665
(lp666
I5000
ag71
ag22
ag72
asS'Charles Sims'
p667
(lp668
I4900
ag51
ag22
ag52
asS'Jeremy Hill'
p669
(lp670
I3700
ag7
ag22
ag5
asS'Ezekiel Elliott'
p671
(lp672
I6900
ag15
ag22
ag14
asS'Tevin Coleman'
p673
(lp674
I4500
ag18
ag6
ag19
asS'Shaun Draughn'
p675
(lp676
I3400
ag72
ag6
ag71
asS'Mike Tolbert'
p677
(lp678
I3000
ag11
ag22
ag10
asS'Jonathan Grimes'
p679
(lp680
I3000
ag89
ag6
ag90
asS'Paul Perkins'
p681
(lp682
I3000
ag47
ag22
ag48
asS'Roosevelt Nix'
p683
(lp684
I3000
ag42
ag6
ag41
asS'Reggie Bush'
p685
(lp686
I3200
ag56
ag22
ag55
asS'Devontae Booker'
p687
(lp688
I3000
ag5
ag6
ag7
asS'Jamaal Charles'
p689
(lp690
I5600
ag61
ag22
ag62
asS'C.J. Anderson'
p691
(lp692
I7300
ag5
ag6
ag7
asS'Denard Robinson'
p693
(lp694
I3000
ag67
ag22
ag68
asS'Julian Howsare'
p695
(lp696
I3000
ag62
ag6
ag61
asS'Danny Woodhead'
p697
(lp698
I5400
ag25
ag6
ag26
asS'Derrick Henry'
p699
(lp700
I3700
ag30
ag22
ag29
asS'Ameer Abdullah'
p701
(lp702
I4600
ag33
ag6
ag34
asS'Fitzgerald Toussaint'
p703
(lp704
I3000
ag42
ag6
ag41
asS'Michael Burton'
p705
(lp706
I3000
ag33
ag6
ag34
asS'Bobby Rainey'
p707
(lp708
I3000
ag47
ag22
ag48
asS'Melvin Gordon'
p709
(lp710
I5800
ag25
ag6
ag26
asS'George Atkinson'
p711
(lp712
I3000
ag37
ag6
ag38
asS'Kenneth Farrow'
p713
(lp714
I3000
ag25
ag6
ag26
asS'DeAngelo Williams'
p715
(lp716
I7500
ag42
ag6
ag41
asS'James Starks'
p717
(lp718
I4000
ag34
ag22
ag33
asS'Zach Zenner'
p719
(lp720
I3000
ag33
ag6
ag34
asS'Kapri Bibbs'
p721
(lp722
I3000
ag5
ag6
ag7
asS'Chris Johnson'
p723
(lp724
I3500
ag55
ag6
ag56
asS'LeGarrette Blount'
p725
(lp726
I4400
ag90
ag22
ag89
asS'Rob Kelley'
p727
(lp728
I3000
ag48
ag6
ag47
asS'Lance Dunbar'
p729
(lp730
I3000
ag15
ag22
ag14
asS'Andy Janovich'
p731
(lp732
I3000
ag5
ag6
ag7
asS'Wendell Smallwood'
p733
(lp734
I3000
ag41
ag22
ag42
asS'Antonio Andrews'
p735
(lp736
I3000
ag30
ag22
ag29
asS'Keith Smith'
p737
(lp738
I3000
ag15
ag22
ag14
asS'Chris Ivory'
p739
(lp740
I3900
ag67
ag22
ag68
asS'DeMarco Murray'
p741
(lp742
I6300
ag30
ag22
ag29
asS'Eddie Lacy'
p743
(lp744
I6100
ag34
ag22
ag33
asS'Isaiah Crowell'
p745
(lp746
I4700
ag37
ag6
ag38
asS'John Kuhn'
p747
(lp748
I3000
ag19
ag22
ag18
asS'Darius Jackson'
p749
(lp750
I3000
ag15
ag22
ag14
asS'Todd Gurley'
p751
(lp752
I7100
ag52
ag6
ag51
asS'Daniel Lasco'
p753
(lp754
I3000
ag19
ag22
ag18
asS'Duke Johnson'
p755
(lp756
I4200
ag37
ag6
ag38
asS'Adrian Peterson'
p757
(lp758
I6700
ag10
ag6
ag11
asS'Giovani Bernard'
p759
(lp760
I4300
ag7
ag22
ag5
asS'James White'
p761
(lp762
I4200
ag90
ag22
ag89
asS'T.J. Yeldon'
p763
(lp764
I5600
ag67
ag22
ag68
asS'Andre Ellington'
p765
(lp766
I3600
ag55
ag6
ag56
asS'Alfred Morris'
p767
(lp768
I3700
ag15
ag22
ag14
asS'Mark Ingram'
p769
(lp770
I5900
ag19
ag22
ag18
asS'Chase Reynolds'
p771
(lp772
I3000
ag52
ag6
ag51
asS'Rod Smith'
p773
(lp774
I3000
ag15
ag22
ag14
asS'Benny Cunningham'
p775
(lp776
I3400
ag52
ag6
ag51
asS'Kenyan Drake'
p777
(lp778
I3600
ag38
ag22
ag37
asS'Derek Watt'
p779
(lp780
I3000
ag25
ag6
ag26
asS'Isaiah Pead'
p781
(lp782
I3000
ag38
ag22
ag37
asS'Doug Martin'
p783
(lp784
I5700
ag51
ag22
ag52
asS'David Johnson'
p785
(lp786
I7700
ag55
ag6
ag56
asS'Rex Burkhead'
p787
(lp788
I3000
ag7
ag22
ag5
asS'Ryan Mathews'
p789
(lp790
I5800
ag41
ag22
ag42
asS'Jonathan Stewart'
p791
(lp792
I4800
ag11
ag22
ag10
asS'Damien Williams'
p793
(lp794
I3000
ag38
ag22
ag37
asS'Tim Hightower'
p795
(lp796
I3300
ag19
ag22
ag18
asS'Brandon Bolden'
p797
(lp798
I3000
ag90
ag22
ag89
asS'Jeremy Langford'
p799
(lp800
I5200
ag14
ag6
ag15
asS'Daryl Richardson'
p801
(lp802
I3000
ag42
ag6
ag41
asS'Knile Davis'
p803
(lp804
I3000
ag61
ag22
ag62
asS'Anthony Sherman'
p805
(lp806
I3000
ag61
ag22
ag62
asS'Troymaine Pope'
p807
(lp808
I3000
ag62
ag6
ag61
asS'Patrick DiMarco'
p809
(lp810
I3000
ag18
ag6
ag19
asS'Peyton Barber'
p811
(lp812
I3000
ag51
ag22
ag52
asS'Stepfan Taylor'
p813
(lp814
I3000
ag55
ag6
ag56
asS'Aaron Ripkowski'
p815
(lp816
I3000
ag34
ag22
ag33
asS'Carlos Hyde'
p817
(lp818
I4400
ag72
ag6
ag71
asS'Orleans Darkwa'
p819
(lp820
I3000
ag47
ag22
ag48
asS'Kenjon Barner'
p821
(lp822
I3000
ag41
ag22
ag42
asS'Arian Foster'
p823
(lp824
I5500
ag38
ag22
ag37
asS'Jordan Todman'
p825
(lp826
I3000
ag26
ag22
ag25
asS'Latavius Murray'
p827
(lp828
I5700
ag29
ag6
ag30
asS'Cameron Artis-Payne'
p829
(lp830
I3000
ag11
ag22
ag10
asS'DuJuan Harris'
p831
(lp832
I3000
ag72
ag6
ag71
asS'Shane Vereen'
p833
(lp834
I3700
ag47
ag22
ag48
asS'C.J. Prosise'
p835
(lp836
I3300
ag71
ag22
ag72
asS'Josh Ferguson'
p837
(lp838
I3000
ag26
ag22
ag25
asS'Spencer Ware'
p839
(lp840
I5700
ag61
ag22
ag62
asS'Javorius Allen'
p841
(lp842
I3000
ag68
ag6
ag67
asS'Justin Forsett'
p843
(lp844
I3900
ag68
ag6
ag67
asS'Paul Lasike'
p845
(lp846
I3000
ag14
ag6
ag15
asS'Chris Thompson'
p847
(lp848
I3400
ag48
ag6
ag47
asS'Jacquizz Rodgers'
p849
(lp850
I3000
ag51
ag22
ag52
asS'Charcandrick West'
p851
(lp852
I3500
ag61
ag22
ag62
asS'Mike Davis'
p853
(lp854
I3000
ag72
ag6
ag71
asS'Kyle Juszczyk'
p855
(lp856
I3000
ag68
ag6
ag67
asS'Jordan Howard'
p857
(lp858
I3300
ag14
ag6
ag15
asS'Travaris Cadet'
p859
(lp860
I3100
ag19
ag22
ag18
asS"Ka'Deem Carey"
p861
(lp862
I3100
ag14
ag6
ag15
asS'Devonta Freeman'
p863
(lp864
I5800
ag18
ag6
ag19
asS'Alfred Blue'
p865
(lp866
I3400
ag89
ag6
ag90
asS'Matt Forte'
p867
(lp868
I7000
ag62
ag6
ag61
asS'Matt Asiata'
p869
(lp870
I3000
ag10
ag6
ag11
asS'Mike Gillislee'
p871
(lp872
I3300
ag56
ag22
ag55
asS'Malcolm Johnson'
p873
(lp874
I3000
ag37
ag6
ag38
asS'Jalen Richard'
p875
(lp876
I3600
ag29
ag6
ag30
asS'Jerome Felton'
p877
(lp878
I3000
ag56
ag22
ag55
asS'Matt Jones'
p879
(lp880
I4100
ag48
ag6
ag47
asS'Dwayne Washington'
p881
(lp882
I3600
ag33
ag6
ag34
asS'Lamar Miller'
p883
(lp884
I7200
ag89
ag6
ag90
asS'LeSean McCoy'
p885
(lp886
I6500
ag56
ag22
ag55
asS'DeAndre Washington'
p887
(lp888
I3400
ag29
ag6
ag30
asS'Jay Prosch'
p889
(lp890
I3000
ag89
ag6
ag90
asS'Andre Williams'
p891
(lp892
I3000
ag25
ag6
ag26
asS'Marcus Murphy'
p893
(lp894
I3000
ag19
ag22
ag18
asS'Jonathan Williams'
p895
(lp896
I3000
ag56
ag22
ag55
asS'Robert Turbin'
p897
(lp898
I3000
ag26
ag22
ag25
asS'James Develin'
p899
(lp900
I3000
ag90
ag22
ag89
asS'Zach Line'
p901
(lp902
I3000
ag10
ag6
ag11
asS'Thomas Rawls'
p903
(lp904
I5500
ag71
ag22
ag72
asS'Jamize Olawale'
p905
(lp906
I3000
ag29
ag6
ag30
assS'TE'
p907
(dp908
S'Will Tye'
p909
(lp910
I2600
ag47
ag22
ag48
asS'Lee Smith'
p911
(lp912
I2500
ag29
ag6
ag30
asS'Maxx Williams'
p913
(lp914
I2500
ag68
ag6
ag67
asS'Brent Celek'
p915
(lp916
I2800
ag41
ag22
ag42
asS'Jason Witten'
p917
(lp918
I4300
ag15
ag22
ag14
asS'Greg Scruggs'
p919
(lp920
I2500
ag14
ag6
ag15
asS'Neal Sterling'
p921
(lp922
I2500
ag67
ag22
ag68
asS'Levine Toilolo'
p923
(lp924
I2500
ag18
ag6
ag19
asS'Ben Koyack'
p925
(lp926
I2500
ag67
ag22
ag68
asS'Clay Harbor'
p927
(lp928
I2500
ag90
ag22
ag89
asS'Scott Simonson'
p929
(lp930
I2500
ag11
ag22
ag10
asS'Garrett Celek'
p931
(lp932
I2500
ag72
ag6
ag71
asS'Seth DeValve'
p933
(lp934
I2500
ag37
ag6
ag38
asS'Geoff Swaim'
p935
(lp936
I2500
ag15
ag22
ag14
asS'Logan Paulsen'
p937
(lp938
I2500
ag14
ag6
ag15
asS'Jordan Reed'
p939
(lp940
I6500
ag48
ag6
ag47
asS'Mychal Rivera'
p941
(lp942
I2500
ag29
ag6
ag30
asS'Marcedes Lewis'
p943
(lp944
I2500
ag67
ag22
ag68
asS'Hunter Henry'
p945
(lp946
I2500
ag25
ag6
ag26
asS'Trey Burton'
p947
(lp948
I2500
ag41
ag22
ag42
asS'Jermaine Gresham'
p949
(lp950
I2500
ag55
ag6
ag56
asS'Cory Harkey'
p951
(lp952
I2500
ag52
ag6
ag51
asS'Tyler Higbee'
p953
(lp954
I2500
ag52
ag6
ag51
asS"James O'Shaughnessy"
p955
(lp956
I2500
ag61
ag22
ag62
asS'Erik Swoope'
p957
(lp958
I2500
ag26
ag22
ag25
asS'Stephen Anderson'
p959
(lp960
I2500
ag89
ag6
ag90
asS'Vance McDonald'
p961
(lp962
I2900
ag72
ag6
ag71
asS'Jordan Cameron'
p963
(lp964
I2900
ag38
ag22
ag37
asS'Temarrick Hemingway'
p965
(lp966
I2500
ag52
ag6
ag51
asS'Clark Harris'
p967
(lp968
I2500
ag7
ag22
ag5
asS'Coby Fleener'
p969
(lp970
I3300
ag19
ag22
ag18
asS'Gary Barnidge'
p971
(lp972
I4000
ag37
ag6
ag38
asS'Cameron Brate'
p973
(lp974
I2500
ag51
ag22
ag52
asS'Beau Brinkley'
p975
(lp976
I2500
ag30
ag22
ag29
asS'Jared Cook'
p977
(lp978
I2900
ag34
ag22
ag33
asS'Kyle Rudolph'
p979
(lp980
I3100
ag10
ag6
ag11
asS'Dennis Pitta'
p981
(lp982
I3400
ag68
ag6
ag67
asS'Kyle Nelson'
p983
(lp984
I2500
ag72
ag6
ag71
asS'Nick Vannett'
p985
(lp986
I2500
ag71
ag22
ag72
asS'Zach Ertz'
p987
(lp988
I3900
ag41
ag22
ag42
asS'Anthony Fasano'
p989
(lp990
I2500
ag30
ag22
ag29
asS'Phillip Supernaw'
p991
(lp992
I2500
ag30
ag22
ag29
asS'Orson Charles'
p993
(lp994
I2500
ag33
ag6
ag34
asS'Richard Rodgers'
p995
(lp996
I2700
ag34
ag22
ag33
asS'Jim Dray'
p997
(lp998
I2500
ag56
ag22
ag55
asS'Darren Fells'
p999
(lp1000
I2500
ag55
ag6
ag56
asS'Martellus Bennett'
p1001
(lp1002
I4700
ag90
ag22
ag89
asS'Khari Lee'
p1003
(lp1004
I2500
ag33
ag6
ag34
asS'MyCole Pruitt'
p1005
(lp1006
I2500
ag10
ag6
ag11
asS'Rob Gronkowski'
p1007
(lp1008
I6800
ag90
ag22
ag89
asS'Luke Stocker'
p1009
(lp1010
I2500
ag51
ag22
ag52
asS'Chris Manhertz'
p1011
(lp1012
I2500
ag19
ag22
ag18
asS'Patrick Scales'
p1013
(lp1014
I2500
ag14
ag6
ag15
asS'MarQueis Gray'
p1015
(lp1016
I2500
ag38
ag22
ag37
asS"Nick O'Leary"
p1017
(lp1018
I2500
ag56
ag22
ag55
asS'Demetrius Harris'
p1019
(lp1020
I2500
ag61
ag22
ag62
asS'James Winchester'
p1021
(lp1022
I2500
ag61
ag22
ag62
asS'Clive Walford'
p1023
(lp1024
I2800
ag29
ag6
ag30
asS'Jesse James'
p1025
(lp1026
I3500
ag42
ag6
ag41
asS'Austin Hooper'
p1027
(lp1028
I2500
ag18
ag6
ag19
asS'Troy Niklas'
p1029
(lp1030
I2500
ag55
ag6
ag56
asS'Larry Donnell'
p1031
(lp1032
I2700
ag47
ag22
ag48
asS'Austin Seferian-Jenkins'
p1033
(lp1034
I2900
ag51
ag22
ag52
asS'Jace Amaro'
p1035
(lp1036
I2500
ag30
ag22
ag29
asS'Ed Dickson'
p1037
(lp1038
I2500
ag11
ag22
ag10
asS'Zach Miller'
p1039
(lp1040
I2900
ag14
ag6
ag15
asS'Dwayne Allen'
p1041
(lp1042
I3800
ag26
ag22
ag25
asS'Dion Sims'
p1043
(lp1044
I2500
ag38
ag22
ag37
asS'Brandon Bostick'
p1045
(lp1046
I2500
ag62
ag6
ag61
asS'A.J. Derby'
p1047
(lp1048
I2500
ag90
ag22
ag89
asS'Ryan Griffin'
p1049
(lp1050
I2500
ag89
ag6
ag90
asS'Gavin Escobar'
p1051
(lp1052
I2500
ag15
ag22
ag14
asS'Jimmy Graham'
p1053
(lp1054
I3000
ag71
ag22
ag72
asS'Antonio Gates'
p1055
(lp1056
I4600
ag25
ag6
ag26
asS'Kellen Davis'
p1057
(lp1058
I2500
ag62
ag6
ag61
asS'Vernon Davis'
p1059
(lp1060
I2700
ag48
ag6
ag47
asS'David Johnson'
p1061
(lp1062
I2500
ag42
ag6
ag41
asS'Ross Travis'
p1063
(lp1064
I2500
ag61
ag22
ag62
asS'Blake Bell'
p1065
(lp1066
I2500
ag72
ag6
ag71
asS'Jack Doyle'
p1067
(lp1068
I2500
ag26
ag22
ag25
asS'David Morgan'
p1069
(lp1070
I2500
ag10
ag6
ag11
asS'John Phillips'
p1071
(lp1072
I2500
ag5
ag6
ag7
asS'Josh Hill'
p1073
(lp1074
I2500
ag19
ag22
ag18
asS'Julius Thomas'
p1075
(lp1076
I4600
ag67
ag22
ag68
asS'Sean McGrath'
p1077
(lp1078
I2500
ag25
ag6
ag26
asS'Jerell Adams'
p1079
(lp1080
I2500
ag47
ag22
ag48
asS'Travis Kelce'
p1081
(lp1082
I4700
ag61
ag22
ag62
asS'Tyler Kroft'
p1083
(lp1084
I2500
ag7
ag22
ag5
asS'Eric Ebron'
p1085
(lp1086
I3700
ag33
ag6
ag34
asS'Brandon Myers'
p1087
(lp1088
I2500
ag51
ag22
ag52
asS'Charles Clay'
p1089
(lp1090
I2900
ag56
ag22
ag55
asS'Justin Perillo'
p1091
(lp1092
I2500
ag34
ag22
ag33
asS'Joshua Perkins'
p1093
(lp1094
I2500
ag18
ag6
ag19
asS'C.J. Uzomah'
p1095
(lp1096
I2500
ag7
ag22
ag5
asS'Greg Olsen'
p1097
(lp1098
I5800
ag11
ag22
ag10
asS'Rhett Ellison'
p1099
(lp1100
I2500
ag10
ag6
ag11
asS'Crockett Gillmore'
p1101
(lp1102
I2500
ag68
ag6
ag67
asS'Delanie Walker'
p1103
(lp1104
I5000
ag30
ag22
ag29
asS'Kevin McDermott'
p1105
(lp1106
I2500
ag10
ag6
ag11
asS'Tyler Eifert'
p1107
(lp1108
I4500
ag7
ag22
ag5
asS'Ryan Hewitt'
p1109
(lp1110
I2500
ag7
ag22
ag5
asS'C.J. Fiedorowicz'
p1111
(lp1112
I2500
ag89
ag6
ag90
asS'Randall Telfer'
p1113
(lp1114
I2500
ag37
ag6
ag38
asS'Jeff Heuerman'
p1115
(lp1116
I2500
ag5
ag6
ag7
asS'Xavier Grimble'
p1117
(lp1118
I2500
ag42
ag6
ag41
asS'Andrew DePaola'
p1119
(lp1120
I2500
ag51
ag22
ag52
asS'Jacob Tamme'
p1121
(lp1122
I3200
ag18
ag6
ag19
asS'Lance Kendricks'
p1123
(lp1124
I2700
ag52
ag6
ag51
asS'Luke Willson'
p1125
(lp1126
I2500
ag71
ag22
ag72
asS'Virgil Green'
p1127
(lp1128
I3000
ag5
ag6
ag7
asS'Andrew Quarless'
p1129
(lp1130
I2500
ag33
ag6
ag34
asS'Cole Wick'
p1131
(lp1132
I2500
ag33
ag6
ag34
asS'Brandon Williams'
p1133
(lp1134
I2500
ag71
ag22
ag72
asS'Niles Paul'
p1135
(lp1136
I2500
ag48
ag6
ag47
ass.