(dp0
I2016
(dp1
S'Broncos'
p2
(lp3
(S'Emmanuel Sanders'
p4
S'WR'
p5
tp6
a(S'Demaryius Thomas'
p7
S'WR'
p8
tp9
a(S'C.J. Anderson'
p10
S'RB'
p11
tp12
a(S'Trevor Siemian'
p13
S'QB'
p14
tp15
a(S'Austin Davis'
p16
S'QB'
p17
tp18
a(S'Paxton Lynch'
p19
S'QB'
p20
tp21
a(S'Broncos'
p22
S'DST'
p23
tp24
a(S'Devontae Booker'
p25
S'RB'
p26
tp27
a(S'Kapri Bibbs'
p28
S'RB'
p29
tp30
a(S'Andy Janovich'
p31
S'RB'
p32
tp33
a(S'Jordan Norwood'
p34
S'WR'
p35
tp36
a(S'Bennie Fowler'
p37
S'WR'
p38
tp39
a(S'Jordan Taylor'
p40
S'WR'
p41
tp42
a(S'Cody Latimer'
p43
S'WR'
p44
tp45
a(S'Virgil Green'
p46
S'TE'
p47
tp48
a(S'John Phillips'
p49
S'TE'
p50
tp51
a(S'Jeff Heuerman'
p52
S'TE'
p53
tp54
asS'Vikings'
p55
(lp56
(S'Stefon Diggs'
p57
S'WR'
p58
tp59
a(S'Sam Bradford'
p60
S'QB'
p61
tp62
a(S'Shaun Hill'
p63
S'QB'
p64
tp65
a(S'Jerick McKinnon'
p66
S'RB'
p67
tp68
a(S'Adam Thielen'
p69
S'WR'
p70
tp71
a(S'Vikings'
p72
S'DST'
p73
tp74
a(S'Matt Asiata'
p75
S'RB'
p76
tp77
a(S'Kyle Rudolph'
p78
S'TE'
p79
tp80
a(S'Cordarrelle Patterson'
p81
S'WR'
p82
tp83
a(S'Zach Line'
p84
S'RB'
p85
tp86
a(S'Ronnie Hillman'
p87
S'RB'
p88
tp89
a(S'Charles Johnson'
p90
S'WR'
p91
tp92
a(S'Jarius Wright'
p93
S'WR'
p94
tp95
a(S'Laquon Treadwell'
p96
S'WR'
p97
tp98
a(S'Rhett Ellison'
p99
S'TE'
p100
tp101
a(S'Kevin McDermott'
p102
S'TE'
p103
tp104
a(S'MyCole Pruitt'
p105
S'TE'
p106
tp107
a(S'David Morgan'
p108
S'TE'
p109
tp110
asS'Bears'
p111
(lp112
(S'Alshon Jeffery'
p113
S'WR'
p114
tp115
a(S'Jordan Howard'
p116
S'RB'
p117
tp118
a(S'Brian Hoyer'
p119
S'QB'
p120
tp121
a(S'Jay Cutler'
p122
S'QB'
p123
tp124
a(S'Matt Barkley'
p125
S'QB'
p126
tp127
a(S'Cameron Meredith'
p128
S'WR'
p129
tp130
a(S'Eddie Royal'
p131
S'WR'
p132
tp133
a(S'Jeremy Langford'
p134
S'RB'
p135
tp136
a(S'Zach Miller'
p137
S'TE'
p138
tp139
a(S'Joique Bell'
p140
S'RB'
p141
tp142
a(S"Ka'Deem Carey"
p143
S'RB'
p144
tp145
a(S'Paul Lasike'
p146
S'RB'
p147
tp148
a(S'Deonte Thompson'
p149
S'WR'
p150
tp151
a(S'Joshua Bellamy'
p152
S'WR'
p153
tp154
a(S'Marquess Wilson'
p155
S'WR'
p156
tp157
a(S'Logan Paulsen'
p158
S'TE'
p159
tp160
a(S'Patrick Scales'
p161
S'TE'
p162
tp163
a(S'Ben Braunecker'
p164
S'TE'
p165
tp166
a(S'Bears'
p167
S'DST'
p168
tp169
asS'Falcons'
p170
(lp171
(S'Julio Jones'
p172
S'WR'
p173
tp174
a(S'Matt Ryan'
p175
S'QB'
p176
tp177
a(S'Devonta Freeman'
p178
S'RB'
p179
tp180
a(S'Matt Schaub'
p181
S'QB'
p182
tp183
a(S'Tevin Coleman'
p184
S'RB'
p185
tp186
a(S'Mohamed Sanu'
p187
S'WR'
p188
tp189
a(S'Patrick DiMarco'
p190
S'RB'
p191
tp192
a(S'Eric Weems'
p193
S'WR'
p194
tp195
a(S'Aldrick Robinson'
p196
S'WR'
p197
tp198
a(S'Justin Hardy'
p199
S'WR'
p200
tp201
a(S'Taylor Gabriel'
p202
S'WR'
p203
tp204
a(S'Jacob Tamme'
p205
S'TE'
p206
tp207
a(S'Falcons'
p208
S'DST'
p209
tp210
a(S'Levine Toilolo'
p211
S'TE'
p212
tp213
a(S'Joshua Perkins'
p214
S'TE'
p215
tp216
a(S'Austin Hooper'
p217
S'TE'
p218
tp219
asS'Saints'
p220
(lp221
(S'Brandin Cooks'
p222
S'WR'
p223
tp224
a(S'Drew Brees'
p225
S'QB'
p226
tp227
a(S'Willie Snead'
p228
S'WR'
p229
tp230
a(S'Mark Ingram'
p231
S'RB'
p232
tp233
a(S'Luke McCown'
p234
S'QB'
p235
tp236
a(S'Michael Thomas'
p237
S'WR'
p238
tp239
a(S'Coby Fleener'
p240
S'TE'
p241
tp242
a(S'Tim Hightower'
p243
S'RB'
p244
tp245
a(S'John Kuhn'
p246
S'RB'
p247
tp248
a(S'Travaris Cadet'
p249
S'RB'
p250
tp251
a(S'Marcus Murphy'
p252
S'RB'
p253
tp254
a(S'Daniel Lasco'
p255
S'RB'
p256
tp257
a(S'Brandon Coleman'
p258
S'WR'
p259
tp260
a(S'Tommylee Lewis'
p261
S'WR'
p262
tp263
a(S'Jake Lampman'
p264
S'WR'
p265
tp266
a(S'Josh Hill'
p267
S'TE'
p268
tp269
a(S'Saints'
p270
S'DST'
p271
tp272
asS'Chargers'
p273
(lp274
(S'Philip Rivers'
p275
S'QB'
p276
tp277
a(S'Melvin Gordon'
p278
S'RB'
p279
tp280
a(S'Travis Benjamin'
p281
S'WR'
p282
tp283
a(S'Kellen Clemens'
p284
S'QB'
p285
tp286
a(S'Tyrell Williams'
p287
S'WR'
p288
tp289
a(S'Hunter Henry'
p290
S'TE'
p291
tp292
a(S'Dontrelle Inman'
p293
S'WR'
p294
tp295
a(S'Dexter McCluster'
p296
S'RB'
p297
tp298
a(S'Derek Watt'
p299
S'RB'
p300
tp301
a(S'Kenneth Farrow'
p302
S'RB'
p303
tp304
a(S'Griff Whalen'
p305
S'WR'
p306
tp307
a(S'Antonio Gates'
p308
S'TE'
p309
tp310
a(S'Sean McGrath'
p311
S'TE'
p312
tp313
a(S'Asante Cleveland'
p314
S'TE'
p315
tp316
a(S'Chargers'
p317
S'DST'
p318
tp319
asS'Raiders'
p320
(lp321
(S'Amari Cooper'
p322
S'WR'
p323
tp324
a(S'Michael Crabtree'
p325
S'WR'
p326
tp327
a(S'Derek Carr'
p328
S'QB'
p329
tp330
a(S'Matt McGloin'
p331
S'QB'
p332
tp333
a(S'Connor Cook'
p334
S'QB'
p335
tp336
a(S'Latavius Murray'
p337
S'RB'
p338
tp339
a(S'DeAndre Washington'
p340
S'RB'
p341
tp342
a(S'Jalen Richard'
p343
S'RB'
p344
tp345
a(S'Taiwan Jones'
p346
S'RB'
p347
tp348
a(S'Jamize Olawale'
p349
S'RB'
p350
tp351
a(S'Andre Holmes'
p352
S'WR'
p353
tp354
a(S'Seth Roberts'
p355
S'WR'
p356
tp357
a(S'Johnny Holton'
p358
S'WR'
p359
tp360
a(S'Mychal Rivera'
p361
S'TE'
p362
tp363
a(S'Clive Walford'
p364
S'TE'
p365
tp366
a(S"Ryan O'Malley"
p367
S'TE'
p368
tp369
a(S'Raiders'
p370
S'DST'
p371
tp372
asS'Lions'
p373
(lp374
(S'Marvin Jones'
p375
S'WR'
p376
tp377
a(S'Matthew Stafford'
p378
S'QB'
p379
tp380
a(S'Theo Riddick'
p381
S'RB'
p382
tp383
a(S'Dan Orlovsky'
p384
S'QB'
p385
tp386
a(S'Golden Tate'
p387
S'WR'
p388
tp389
a(S'Anquan Boldin'
p390
S'WR'
p391
tp392
a(S'Dwayne Washington'
p393
S'RB'
p394
tp395
a(S'Zach Zenner'
p396
S'RB'
p397
tp398
a(S'Justin Forsett'
p399
S'RB'
p400
tp401
a(S'Michael Burton'
p402
S'RB'
p403
tp404
a(S'Andre Roberts'
p405
S'WR'
p406
tp407
a(S'Eric Ebron'
p408
S'TE'
p409
tp410
a(S'Lions'
p411
S'DST'
p412
tp413
a(S'Clay Harbor'
p414
S'TE'
p415
tp416
a(S'Cole Wick'
p417
S'TE'
p418
tp419
a(S'Khari Lee'
p420
S'TE'
p421
tp422
asS'Eagles'
p423
(lp424
(S'Jordan Matthews'
p425
S'WR'
p426
tp427
a(S'Carson Wentz'
p428
S'QB'
p429
tp430
a(S'Chase Daniel'
p431
S'QB'
p432
tp433
a(S'Ryan Mathews'
p434
S'RB'
p435
tp436
a(S'Darren Sproles'
p437
S'RB'
p438
tp439
a(S'Zach Ertz'
p440
S'TE'
p441
tp442
a(S'Nelson Agholor'
p443
S'WR'
p444
tp445
a(S'Eagles'
p446
S'DST'
p447
tp448
a(S'Kenjon Barner'
p449
S'RB'
p450
tp451
a(S'Wendell Smallwood'
p452
S'RB'
p453
tp454
a(S'Josh Huff'
p455
S'WR'
p456
tp457
a(S'Dorial Green-Beckham'
p458
S'WR'
p459
tp460
a(S'Bryce Treggs'
p461
S'WR'
p462
tp463
a(S'Brent Celek'
p464
S'TE'
p465
tp466
a(S'Trey Burton'
p467
S'TE'
p468
tp469
asS'Browns'
p470
(lp471
(S'Terrelle Pryor'
p472
S'WR'
p473
tp474
a(S'Josh McCown'
p475
S'QB'
p476
tp477
a(S'Cody Kessler'
p478
S'QB'
p479
tp480
a(S'Kevin Hogan'
p481
S'QB'
p482
tp483
a(S'Corey Coleman'
p484
S'WR'
p485
tp486
a(S'Isaiah Crowell'
p487
S'RB'
p488
tp489
a(S'Duke Johnson'
p490
S'RB'
p491
tp492
a(S'Gary Barnidge'
p493
S'TE'
p494
tp495
a(S'Malcolm Johnson'
p496
S'RB'
p497
tp498
a(S'George Atkinson'
p499
S'RB'
p500
tp501
a(S'Andrew Hawkins'
p502
S'WR'
p503
tp504
a(S'Jordan Payton'
p505
S'WR'
p506
tp507
a(S'Ricardo Louis'
p508
S'WR'
p509
tp510
a(S'Rashard Higgins'
p511
S'WR'
p512
tp513
a(S'Randall Telfer'
p514
S'TE'
p515
tp516
a(S'Connor Hamlett'
p517
S'TE'
p518
tp519
a(S'Seth DeValve'
p520
S'TE'
p521
tp522
a(S'Danny Vitale'
p523
S'TE'
p524
tp525
a(S'Browns'
p526
S'DST'
p527
tp528
asS'Steelers'
p529
(lp530
(S'Antonio Brown'
p531
S'WR'
p532
tp533
a(S"Le'Veon Bell"
p534
S'RB'
p535
tp536
a(S'Ben Roethlisberger'
p537
S'QB'
p538
tp539
a(S'Sammie Coates'
p540
S'WR'
p541
tp542
a(S'Bruce Gradkowski'
p543
S'QB'
p544
tp545
a(S'Landry Jones'
p546
S'QB'
p547
tp548
a(S'Zach Mettenberger'
p549
S'QB'
p550
tp551
a(S'DeAngelo Williams'
p552
S'RB'
p553
tp554
a(S'Eli Rogers'
p555
S'WR'
p556
tp557
a(S'Markus Wheaton'
p558
S'WR'
p559
tp560
a(S'Jesse James'
p561
S'TE'
p562
tp563
a(S'Fitzgerald Toussaint'
p564
S'RB'
p565
tp566
a(S'Roosevelt Nix'
p567
S'RB'
p568
tp569
a(S'Darrius Heyward-Bey'
p570
S'WR'
p571
tp572
a(S'Cobi Hamilton'
p573
S'WR'
p574
tp575
a(S'Steelers'
p576
S'DST'
p577
tp578
a(S'David Johnson'
p579
S'TE'
p580
tp581
a(S'Ladarius Green'
p582
S'TE'
p583
tp584
a(S'Xavier Grimble'
p585
S'TE'
p586
tp587
asS'Giants'
p588
(lp589
(S'Odell Beckham'
p590
S'WR'
p591
tp592
a(S'Eli Manning'
p593
S'QB'
p594
tp595
a(S'Sterling Shepard'
p596
S'WR'
p597
tp598
a(S'Josh Johnson'
p599
S'QB'
p600
tp601
a(S'Ryan Nassib'
p602
S'QB'
p603
tp604
a(S'Rashad Jennings'
p605
S'RB'
p606
tp607
a(S'Victor Cruz'
p608
S'WR'
p609
tp610
a(S'Bobby Rainey'
p611
S'RB'
p612
tp613
a(S'Orleans Darkwa'
p614
S'RB'
p615
tp616
a(S'Paul Perkins'
p617
S'RB'
p618
tp619
a(S'Dwayne Harris'
p620
S'WR'
p621
tp622
a(S'Tavarres King'
p623
S'WR'
p624
tp625
a(S'Roger Lewis'
p626
S'WR'
p627
tp628
a(S'Giants'
p629
S'DST'
p630
tp631
a(S'Larry Donnell'
p632
S'TE'
p633
tp634
a(S'Will Tye'
p635
S'TE'
p636
tp637
a(S'Jerell Adams'
p638
S'TE'
p639
tp640
asS'Buccaneers'
p641
(lp642
(S'Mike Evans'
p643
S'WR'
p644
tp645
a(S'Doug Martin'
p646
S'RB'
p647
tp648
a(S'Jameis Winston'
p649
S'QB'
p650
tp651
a(S'Mike Glennon'
p652
S'QB'
p653
tp654
a(S'Ryan Griffin'
p655
S'QB'
p656
tp657
a(S'Jacquizz Rodgers'
p658
S'RB'
p659
tp660
a(S'Buccaneers'
p661
S'DST'
p662
tp663
a(S'Vincent Jackson'
p664
S'WR'
p665
tp666
a(S'Russell Hansbrough'
p667
S'RB'
p668
tp669
a(S'Peyton Barber'
p670
S'RB'
p671
tp672
a(S'Russell Shepard'
p673
S'WR'
p674
tp675
a(S'Cecil Shorts'
p676
S'WR'
p677
tp678
a(S'Adam Humphries'
p679
S'WR'
p680
tp681
a(S'Cameron Brate'
p682
S'TE'
p683
tp684
a(S'Brandon Myers'
p685
S'TE'
p686
tp687
a(S'Andrew DePaola'
p688
S'TE'
p689
tp690
a(S'Luke Stocker'
p691
S'TE'
p692
tp693
a(S'Alan Cross'
p694
S'TE'
p695
tp696
asS'Cardinals'
p697
(lp698
(S'David Johnson'
p699
S'RB'
p700
tp701
a(S'Larry Fitzgerald'
p702
S'WR'
p703
tp704
a(S'Carson Palmer'
p705
S'QB'
p706
tp707
a(S'Drew Stanton'
p708
S'QB'
p709
tp710
a(S'John Brown'
p711
S'WR'
p712
tp713
a(S'Michael Floyd'
p714
S'WR'
p715
tp716
a(S'Jaron Brown'
p717
S'WR'
p718
tp719
a(S'Andre Ellington'
p720
S'RB'
p721
tp722
a(S'Stepfan Taylor'
p723
S'RB'
p724
tp725
a(S'Kerwynn Williams'
p726
S'RB'
p727
tp728
a(S'J.J. Nelson'
p729
S'WR'
p730
tp731
a(S'Brittan Golden'
p732
S'WR'
p733
tp734
a(S'Cardinals'
p735
S'DST'
p736
tp737
a(S'Darren Fells'
p738
S'TE'
p739
tp740
a(S'Jermaine Gresham'
p741
S'TE'
p742
tp743
a(S'Ifeanyi Momah'
p744
S'TE'
p745
tp746
a(S'Hakeem Valles'
p747
S'TE'
p748
tp749
asS'Bengals'
p750
(lp751
(S'A.J. Green'
p752
S'WR'
p753
tp754
a(S'Andy Dalton'
p755
S'QB'
p756
tp757
a(S'AJ McCarron'
p758
S'QB'
p759
tp760
a(S'Jeff Driskel'
p761
S'QB'
p762
tp763
a(S'Giovani Bernard'
p764
S'RB'
p765
tp766
a(S'Tyler Eifert'
p767
S'TE'
p768
tp769
a(S'Jeremy Hill'
p770
S'RB'
p771
tp772
a(S'Brandon LaFell'
p773
S'WR'
p774
tp775
a(S'Bengals'
p776
S'DST'
p777
tp778
a(S'Rex Burkhead'
p779
S'RB'
p780
tp781
a(S'James Wright'
p782
S'WR'
p783
tp784
a(S'Alex Erickson'
p785
S'WR'
p786
tp787
a(S'Cody Core'
p788
S'WR'
p789
tp790
a(S'Tyler Boyd'
p791
S'WR'
p792
tp793
a(S'Clark Harris'
p794
S'TE'
p795
tp796
a(S'Ryan Hewitt'
p797
S'TE'
p798
tp799
a(S'Tyler Kroft'
p800
S'TE'
p801
tp802
a(S'C.J. Uzomah'
p803
S'TE'
p804
tp805
asS'Chiefs'
p806
(lp807
(S'Jeremy Maclin'
p808
S'WR'
p809
tp810
a(S'Alex Smith'
p811
S'QB'
p812
tp813
a(S'Spencer Ware'
p814
S'RB'
p815
tp816
a(S'Jamaal Charles'
p817
S'RB'
p818
tp819
a(S'Travis Kelce'
p820
S'TE'
p821
tp822
a(S'Nick Foles'
p823
S'QB'
p824
tp825
a(S'Tyler Bray'
p826
S'QB'
p827
tp828
a(S'Chris Conley'
p829
S'WR'
p830
tp831
a(S'Anthony Sherman'
p832
S'RB'
p833
tp834
a(S'Knile Davis'
p835
S'RB'
p836
tp837
a(S'Charcandrick West'
p838
S'RB'
p839
tp840
a(S'Albert Wilson'
p841
S'WR'
p842
tp843
a(S"De'Anthony Thomas"
p844
S'WR'
p845
tp846
a(S'Demarcus Robinson'
p847
S'WR'
p848
tp849
a(S'Tyreek Hill'
p850
S'WR'
p851
tp852
a(S'Chiefs'
p853
S'DST'
p854
tp855
a(S'James Winchester'
p856
S'TE'
p857
tp858
a(S"James O'Shaughnessy"
p859
S'TE'
p860
tp861
a(S'Ross Travis'
p862
S'TE'
p863
tp864
a(S'Demetrius Harris'
p865
S'TE'
p866
tp867
asS'Dolphins'
p868
(lp869
(S'Jarvis Landry'
p870
S'WR'
p871
tp872
a(S'Ryan Tannehill'
p873
S'QB'
p874
tp875
a(S'Matt Moore'
p876
S'QB'
p877
tp878
a(S'Jay Ajayi'
p879
S'RB'
p880
tp881
a(S'DeVante Parker'
p882
S'WR'
p883
tp884
a(S'Arian Foster'
p885
S'RB'
p886
tp887
a(S'Kenny Stills'
p888
S'WR'
p889
tp890
a(S'Damien Williams'
p891
S'RB'
p892
tp893
a(S'Kenyan Drake'
p894
S'RB'
p895
tp896
a(S'Jakeem Grant'
p897
S'WR'
p898
tp899
a(S'Leonte Carroo'
p900
S'WR'
p901
tp902
a(S'Jordan Cameron'
p903
S'TE'
p904
tp905
a(S'MarQueis Gray'
p906
S'TE'
p907
tp908
a(S'Dion Sims'
p909
S'TE'
p910
tp911
a(S'Dominique Jones'
p912
S'TE'
p913
tp914
a(S'Dolphins'
p915
S'DST'
p916
tp917
asS'Jaguars'
p918
(lp919
(S'Allen Robinson'
p920
S'WR'
p921
tp922
a(S'Blake Bortles'
p923
S'QB'
p924
tp925
a(S'Chad Henne'
p926
S'QB'
p927
tp928
a(S'Brandon Allen'
p929
S'QB'
p930
tp931
a(S'Allen Hurns'
p932
S'WR'
p933
tp934
a(S'T.J. Yeldon'
p935
S'RB'
p936
tp937
a(S'Julius Thomas'
p938
S'TE'
p939
tp940
a(S'Chris Ivory'
p941
S'RB'
p942
tp943
a(S'Marqise Lee'
p944
S'WR'
p945
tp946
a(S'Denard Robinson'
p947
S'RB'
p948
tp949
a(S'Corey Grant'
p950
S'RB'
p951
tp952
a(S'Bryan Walters'
p953
S'WR'
p954
tp955
a(S'Arrelious Benn'
p956
S'WR'
p957
tp958
a(S'Rashad Greene'
p959
S'WR'
p960
tp961
a(S'Marcedes Lewis'
p962
S'TE'
p963
tp964
a(S'Neal Sterling'
p965
S'TE'
p966
tp967
a(S'Ben Koyack'
p968
S'TE'
p969
tp970
a(S'Jaguars'
p971
S'DST'
p972
tp973
asS'Seahawks'
p974
(lp975
(S'Russell Wilson'
p976
S'QB'
p977
tp978
a(S'Christine Michael'
p979
S'RB'
p980
tp981
a(S'Doug Baldwin'
p982
S'WR'
p983
tp984
a(S'Jimmy Graham'
p985
S'TE'
p986
tp987
a(S'Trevone Boykin'
p988
S'QB'
p989
tp990
a(S'Thomas Rawls'
p991
S'RB'
p992
tp993
a(S'C.J. Spiller'
p994
S'RB'
p995
tp996
a(S'Tyler Lockett'
p997
S'WR'
p998
tp999
a(S'Seahawks'
p1000
S'DST'
p1001
tp1002
a(S'C.J. Prosise'
p1003
S'RB'
p1004
tp1005
a(S'Alex Collins'
p1006
S'RB'
p1007
tp1008
a(S'Jermaine Kearse'
p1009
S'WR'
p1010
tp1011
a(S'Paul Richardson'
p1012
S'WR'
p1013
tp1014
a(S'Tanner McEvoy'
p1015
S'WR'
p1016
tp1017
a(S'Luke Willson'
p1018
S'TE'
p1019
tp1020
a(S'Brandon Williams'
p1021
S'TE'
p1022
tp1023
a(S'Nick Vannett'
p1024
S'TE'
p1025
tp1026
asS'Jets'
p1027
(lp1028
(S'Brandon Marshall'
p1029
S'WR'
p1030
tp1031
a(S'Ryan Fitzpatrick'
p1032
S'QB'
p1033
tp1034
a(S'Bryce Petty'
p1035
S'QB'
p1036
tp1037
a(S'Geno Smith'
p1038
S'QB'
p1039
tp1040
a(S'Christian Hackenberg'
p1041
S'QB'
p1042
tp1043
a(S'Matt Forte'
p1044
S'RB'
p1045
tp1046
a(S'Quincy Enunwa'
p1047
S'WR'
p1048
tp1049
a(S'Bilal Powell'
p1050
S'RB'
p1051
tp1052
a(S'Troymaine Pope'
p1053
S'RB'
p1054
tp1055
a(S'Charone Peake'
p1056
S'WR'
p1057
tp1058
a(S'Jeremy Butler'
p1059
S'WR'
p1060
tp1061
a(S'Robby Anderson'
p1062
S'WR'
p1063
tp1064
a(S'Jalin Marshall'
p1065
S'WR'
p1066
tp1067
a(S'Jets'
p1068
S'DST'
p1069
tp1070
a(S'Kellen Davis'
p1071
S'TE'
p1072
tp1073
a(S'Brandon Bostick'
p1074
S'TE'
p1075
tp1076
a(S'Austin Seferian-Jenkins'
p1077
S'TE'
p1078
tp1079
a(S'Braedon Bowman'
p1080
S'TE'
p1081
tp1082
asS'Ravens'
p1083
(lp1084
(S'Joe Flacco'
p1085
S'QB'
p1086
tp1087
a(S'Mike Wallace'
p1088
S'WR'
p1089
tp1090
a(S'Steve Smith'
p1091
S'WR'
p1092
tp1093
a(S'Ryan Mallett'
p1094
S'QB'
p1095
tp1096
a(S'Terrance West'
p1097
S'RB'
p1098
tp1099
a(S'Dennis Pitta'
p1100
S'TE'
p1101
tp1102
a(S'Kamar Aiken'
p1103
S'WR'
p1104
tp1105
a(S'Breshad Perriman'
p1106
S'WR'
p1107
tp1108
a(S'Kyle Juszczyk'
p1109
S'RB'
p1110
tp1111
a(S'Javorius Allen'
p1112
S'RB'
p1113
tp1114
a(S'Kenneth Dixon'
p1115
S'RB'
p1116
tp1117
a(S'Devin Hester'
p1118
S'WR'
p1119
tp1120
a(S'Chris Moore'
p1121
S'WR'
p1122
tp1123
a(S'Ravens'
p1124
S'DST'
p1125
tp1126
a(S'Crockett Gillmore'
p1127
S'TE'
p1128
tp1129
a(S'Daniel Brown'
p1130
S'TE'
p1131
tp1132
a(S'Darren Waller'
p1133
S'TE'
p1134
tp1135
asS'Colts'
p1136
(lp1137
(S'T.Y. Hilton'
p1138
S'WR'
p1139
tp1140
a(S'Andrew Luck'
p1141
S'QB'
p1142
tp1143
a(S'Donte Moncrief'
p1144
S'WR'
p1145
tp1146
a(S'Scott Tolzien'
p1147
S'QB'
p1148
tp1149
a(S'Frank Gore'
p1150
S'RB'
p1151
tp1152
a(S'Phillip Dorsett'
p1153
S'WR'
p1154
tp1155
a(S'Robert Turbin'
p1156
S'RB'
p1157
tp1158
a(S'Jordan Todman'
p1159
S'RB'
p1160
tp1161
a(S'Josh Ferguson'
p1162
S'RB'
p1163
tp1164
a(S'Devin Street'
p1165
S'WR'
p1166
tp1167
a(S'Quan Bray'
p1168
S'WR'
p1169
tp1170
a(S'Chester Rogers'
p1171
S'WR'
p1172
tp1173
a(S'Dwayne Allen'
p1174
S'TE'
p1175
tp1176
a(S'Jack Doyle'
p1177
S'TE'
p1178
tp1179
a(S'Erik Swoope'
p1180
S'TE'
p1181
tp1182
a(S'Colts'
p1183
S'DST'
p1184
tp1185
asS'Packers'
p1186
(lp1187
(S'Jordy Nelson'
p1188
S'WR'
p1189
tp1190
a(S'Aaron Rodgers'
p1191
S'QB'
p1192
tp1193
a(S'Randall Cobb'
p1194
S'WR'
p1195
tp1196
a(S'Eddie Lacy'
p1197
S'RB'
p1198
tp1199
a(S'Brett Hundley'
p1200
S'QB'
p1201
tp1202
a(S'Joe Callahan'
p1203
S'QB'
p1204
tp1205
a(S'Davante Adams'
p1206
S'WR'
p1207
tp1208
a(S'James Starks'
p1209
S'RB'
p1210
tp1211
a(S'Packers'
p1212
S'DST'
p1213
tp1214
a(S'Aaron Ripkowski'
p1215
S'RB'
p1216
tp1217
a(S'Jared Abbrederis'
p1218
S'WR'
p1219
tp1220
a(S'Ty Montgomery'
p1221
S'WR'
p1222
tp1223
a(S'Trevor Davis'
p1224
S'WR'
p1225
tp1226
a(S'Jeff Janis'
p1227
S'WR'
p1228
tp1229
a(S'Richard Rodgers'
p1230
S'TE'
p1231
tp1232
a(S'Jared Cook'
p1233
S'TE'
p1234
tp1235
a(S'Justin Perillo'
p1236
S'TE'
p1237
tp1238
asS'Titans'
p1239
(lp1240
(S'DeMarco Murray'
p1241
S'RB'
p1242
tp1243
a(S'Marcus Mariota'
p1244
S'QB'
p1245
tp1246
a(S'Matt Cassel'
p1247
S'QB'
p1248
tp1249
a(S'Delanie Walker'
p1250
S'TE'
p1251
tp1252
a(S'Kendall Wright'
p1253
S'WR'
p1254
tp1255
a(S'Rishard Matthews'
p1256
S'WR'
p1257
tp1258
a(S'Tajae Sharpe'
p1259
S'WR'
p1260
tp1261
a(S'Derrick Henry'
p1262
S'RB'
p1263
tp1264
a(S'Andre Johnson'
p1265
S'WR'
p1266
tp1267
a(S'Jalston Fowler'
p1268
S'RB'
p1269
tp1270
a(S'Antonio Andrews'
p1271
S'RB'
p1272
tp1273
a(S'Harry Douglas'
p1274
S'WR'
p1275
tp1276
a(S'Marc Mariani'
p1277
S'WR'
p1278
tp1279
a(S'Anthony Fasano'
p1280
S'TE'
p1281
tp1282
a(S'Beau Brinkley'
p1283
S'TE'
p1284
tp1285
a(S'Jace Amaro'
p1286
S'TE'
p1287
tp1288
a(S'Phillip Supernaw'
p1289
S'TE'
p1290
tp1291
a(S'Titans'
p1292
S'DST'
p1293
tp1294
asS'Rams'
p1295
(lp1296
(S'Todd Gurley'
p1297
S'RB'
p1298
tp1299
a(S'Case Keenum'
p1300
S'QB'
p1301
tp1302
a(S'Sean Mannion'
p1303
S'QB'
p1304
tp1305
a(S'Jared Goff'
p1306
S'QB'
p1307
tp1308
a(S'Kenny Britt'
p1309
S'WR'
p1310
tp1311
a(S'Tavon Austin'
p1312
S'WR'
p1313
tp1314
a(S'Brian Quick'
p1315
S'WR'
p1316
tp1317
a(S'Chase Reynolds'
p1318
S'RB'
p1319
tp1320
a(S'Benny Cunningham'
p1321
S'RB'
p1322
tp1323
a(S'Malcolm Brown'
p1324
S'RB'
p1325
tp1326
a(S'Bradley Marquez'
p1327
S'WR'
p1328
tp1329
a(S'Nelson Spruce'
p1330
S'WR'
p1331
tp1332
a(S'Pharoh Cooper'
p1333
S'WR'
p1334
tp1335
a(S'Mike Thomas'
p1336
S'WR'
p1337
tp1338
a(S'Lance Kendricks'
p1339
S'TE'
p1340
tp1341
a(S'Rams'
p1342
S'DST'
p1343
tp1344
a(S'Cory Harkey'
p1345
S'TE'
p1346
tp1347
a(S'Tyler Higbee'
p1348
S'TE'
p1349
tp1350
a(S'Temarrick Hemingway'
p1351
S'TE'
p1352
tp1353
asS'Bills'
p1354
(lp1355
(S'LeSean McCoy'
p1356
S'RB'
p1357
tp1358
a(S'Tyrod Taylor'
p1359
S'QB'
p1360
tp1361
a(S'EJ Manuel'
p1362
S'QB'
p1363
tp1364
a(S'Cardale Jones'
p1365
S'QB'
p1366
tp1367
a(S'Robert Woods'
p1368
S'WR'
p1369
tp1370
a(S'Bills'
p1371
S'DST'
p1372
tp1373
a(S'Reggie Bush'
p1374
S'RB'
p1375
tp1376
a(S'Jerome Felton'
p1377
S'RB'
p1378
tp1379
a(S'Mike Gillislee'
p1380
S'RB'
p1381
tp1382
a(S'Jonathan Williams'
p1383
S'RB'
p1384
tp1385
a(S'Brandon Tate'
p1386
S'WR'
p1387
tp1388
a(S'Marquise Goodwin'
p1389
S'WR'
p1390
tp1391
a(S'Justin Hunter'
p1392
S'WR'
p1393
tp1394
a(S'Walt Powell'
p1395
S'WR'
p1396
tp1397
a(S'Charles Clay'
p1398
S'TE'
p1399
tp1400
a(S'Gerald Christian'
p1401
S'TE'
p1402
tp1403
a(S"Nick O'Leary"
p1404
S'TE'
p1405
tp1406
asS'Texans'
p1407
(lp1408
(S'DeAndre Hopkins'
p1409
S'WR'
p1410
tp1411
a(S'Lamar Miller'
p1412
S'RB'
p1413
tp1414
a(S'Will Fuller'
p1415
S'WR'
p1416
tp1417
a(S'Brock Osweiler'
p1418
S'QB'
p1419
tp1420
a(S'Brandon Weeden'
p1421
S'QB'
p1422
tp1423
a(S'Tom Savage'
p1424
S'QB'
p1425
tp1426
a(S'Jonathan Grimes'
p1427
S'RB'
p1428
tp1429
a(S'Alfred Blue'
p1430
S'RB'
p1431
tp1432
a(S'Jay Prosch'
p1433
S'RB'
p1434
tp1435
a(S'Tyler Ervin'
p1436
S'RB'
p1437
tp1438
a(S'Keith Mumphery'
p1439
S'WR'
p1440
tp1441
a(S'Braxton Miller'
p1442
S'WR'
p1443
tp1444
a(S'Jaelen Strong'
p1445
S'WR'
p1446
tp1447
a(S'Texans'
p1448
S'DST'
p1449
tp1450
a(S'Ryan Griffin'
p1451
S'TE'
p1452
tp1453
a(S'C.J. Fiedorowicz'
p1454
S'TE'
p1455
tp1456
a(S'Stephen Anderson'
p1457
S'TE'
p1458
tp1459
asS'49ers'
p1460
(lp1461
(S'Carlos Hyde'
p1462
S'RB'
p1463
tp1464
a(S'Colin Kaepernick'
p1465
S'QB'
p1466
tp1467
a(S'Christian Ponder'
p1468
S'QB'
p1469
tp1470
a(S'Blaine Gabbert'
p1471
S'QB'
p1472
tp1473
a(S'Jeremy Kerley'
p1474
S'WR'
p1475
tp1476
a(S'Torrey Smith'
p1477
S'WR'
p1478
tp1479
a(S'Shaun Draughn'
p1480
S'RB'
p1481
tp1482
a(S'Mike Davis'
p1483
S'RB'
p1484
tp1485
a(S'Keshawn Martin'
p1486
S'WR'
p1487
tp1488
a(S'Rod Streater'
p1489
S'WR'
p1490
tp1491
a(S'Quinton Patton'
p1492
S'WR'
p1493
tp1494
a(S'Aaron Burbridge'
p1495
S'WR'
p1496
tp1497
a(S'Kyle Nelson'
p1498
S'TE'
p1499
tp1500
a(S'Garrett Celek'
p1501
S'TE'
p1502
tp1503
a(S'Vance McDonald'
p1504
S'TE'
p1505
tp1506
a(S'Blake Bell'
p1507
S'TE'
p1508
tp1509
a(S"Je'Ron Hamm"
p1510
S'TE'
p1511
tp1512
a(S'49ers'
p1513
S'DST'
p1514
tp1515
asS'Patriots'
p1516
(lp1517
(S'Tom Brady'
p1518
S'QB'
p1519
tp1520
a(S'Rob Gronkowski'
p1521
S'TE'
p1522
tp1523
a(S'Julian Edelman'
p1524
S'WR'
p1525
tp1526
a(S'Jimmy Garoppolo'
p1527
S'QB'
p1528
tp1529
a(S'LeGarrette Blount'
p1530
S'RB'
p1531
tp1532
a(S'Chris Hogan'
p1533
S'WR'
p1534
tp1535
a(S'James White'
p1536
S'RB'
p1537
tp1538
a(S'Martellus Bennett'
p1539
S'TE'
p1540
tp1541
a(S'Danny Amendola'
p1542
S'WR'
p1543
tp1544
a(S'James Develin'
p1545
S'RB'
p1546
tp1547
a(S'Brandon Bolden'
p1548
S'RB'
p1549
tp1550
a(S'Dion Lewis'
p1551
S'RB'
p1552
tp1553
a(S'D.J. Foster'
p1554
S'RB'
p1555
tp1556
a(S'Matthew Slater'
p1557
S'WR'
p1558
tp1559
a(S'Malcolm Mitchell'
p1560
S'WR'
p1561
tp1562
a(S'Patriots'
p1563
S'DST'
p1564
tp1565
a(S'A.J. Derby'
p1566
S'TE'
p1567
tp1568
asS'Cowboys'
p1569
(lp1570
sS'Panthers'
p1571
(lp1572
sS'Redskins'
p1573
(lp1574
(S'Jordan Reed'
p1575
S'TE'
p1576
tp1577
a(S'Kirk Cousins'
p1578
S'QB'
p1579
tp1580
a(S'DeSean Jackson'
p1581
S'WR'
p1582
tp1583
a(S'Colt McCoy'
p1584
S'QB'
p1585
tp1586
a(S'Nate Sudfeld'
p1587
S'QB'
p1588
tp1589
a(S'Jamison Crowder'
p1590
S'WR'
p1591
tp1592
a(S'Matt Jones'
p1593
S'RB'
p1594
tp1595
a(S'Pierre Garcon'
p1596
S'WR'
p1597
tp1598
a(S'Chris Thompson'
p1599
S'RB'
p1600
tp1601
a(S'Rob Kelley'
p1602
S'RB'
p1603
tp1604
a(S'Ryan Grant'
p1605
S'WR'
p1606
tp1607
a(S'Josh Doctson'
p1608
S'WR'
p1609
tp1610
a(S'Rashad Ross'
p1611
S'WR'
p1612
tp1613
a(S'Vernon Davis'
p1614
S'TE'
p1615
tp1616
a(S'Niles Paul'
p1617
S'TE'
p1618
tp1619
a(S'Redskins'
p1620
S'DST'
p1621
tp1622
ass.