(dp0
I2016
(dp1
S'Broncos'
p2
(lp3
(S'C.J. Anderson'
p4
S'RB'
p5
tp6
a(S'Demaryius Thomas'
p7
S'WR'
p8
tp9
a(S'Emmanuel Sanders'
p10
S'WR'
p11
tp12
a(S'Trevor Siemian'
p13
S'QB'
p14
tp15
a(S'Paxton Lynch'
p16
S'QB'
p17
tp18
a(S'Austin Davis'
p19
S'QB'
p20
tp21
a(S'Broncos'
p22
S'DST'
p23
tp24
a(S'Kapri Bibbs'
p25
S'RB'
p26
tp27
a(S'Andy Janovich'
p28
S'RB'
p29
tp30
a(S'Devontae Booker'
p31
S'RB'
p32
tp33
a(S'Jordan Norwood'
p34
S'WR'
p35
tp36
a(S'Bennie Fowler'
p37
S'WR'
p38
tp39
a(S'Jordan Taylor'
p40
S'WR'
p41
tp42
a(S'Cody Latimer'
p43
S'WR'
p44
tp45
a(S'Virgil Green'
p46
S'TE'
p47
tp48
a(S'John Phillips'
p49
S'TE'
p50
tp51
a(S'Jeff Heuerman'
p52
S'TE'
p53
tp54
asS'Vikings'
p55
(lp56
(S'Stefon Diggs'
p57
S'WR'
p58
tp59
a(S'Sam Bradford'
p60
S'QB'
p61
tp62
a(S'Shaun Hill'
p63
S'QB'
p64
tp65
a(S'Jerick McKinnon'
p66
S'RB'
p67
tp68
a(S'Kyle Rudolph'
p69
S'TE'
p70
tp71
a(S'Matt Asiata'
p72
S'RB'
p73
tp74
a(S'Vikings'
p75
S'DST'
p76
tp77
a(S'Adam Thielen'
p78
S'WR'
p79
tp80
a(S'Zach Line'
p81
S'RB'
p82
tp83
a(S'Ronnie Hillman'
p84
S'RB'
p85
tp86
a(S'Charles Johnson'
p87
S'WR'
p88
tp89
a(S'Jarius Wright'
p90
S'WR'
p91
tp92
a(S'Cordarrelle Patterson'
p93
S'WR'
p94
tp95
a(S'Laquon Treadwell'
p96
S'WR'
p97
tp98
a(S'Rhett Ellison'
p99
S'TE'
p100
tp101
a(S'Kevin McDermott'
p102
S'TE'
p103
tp104
a(S'MyCole Pruitt'
p105
S'TE'
p106
tp107
a(S'David Morgan'
p108
S'TE'
p109
tp110
asS'Bears'
p111
(lp112
(S'Alshon Jeffery'
p113
S'WR'
p114
tp115
a(S'Brian Hoyer'
p116
S'QB'
p117
tp118
a(S'Jay Cutler'
p119
S'QB'
p120
tp121
a(S'Jordan Howard'
p122
S'RB'
p123
tp124
a(S'Matt Barkley'
p125
S'QB'
p126
tp127
a(S'Jeremy Langford'
p128
S'RB'
p129
tp130
a(S'Eddie Royal'
p131
S'WR'
p132
tp133
a(S'Kevin White'
p134
S'WR'
p135
tp136
a(S'Zach Miller'
p137
S'TE'
p138
tp139
a(S'Joique Bell'
p140
S'RB'
p141
tp142
a(S"Ka'Deem Carey"
p143
S'RB'
p144
tp145
a(S'Raheem Mostert'
p146
S'RB'
p147
tp148
a(S'Deonte Thompson'
p149
S'WR'
p150
tp151
a(S'Joshua Bellamy'
p152
S'WR'
p153
tp154
a(S'Cameron Meredith'
p155
S'WR'
p156
tp157
a(S'Logan Paulsen'
p158
S'TE'
p159
tp160
a(S'Patrick Scales'
p161
S'TE'
p162
tp163
a(S'Ben Braunecker'
p164
S'TE'
p165
tp166
a(S'Bears'
p167
S'DST'
p168
tp169
asS'Falcons'
p170
(lp171
(S'Julio Jones'
p172
S'WR'
p173
tp174
a(S'Matt Ryan'
p175
S'QB'
p176
tp177
a(S'Matt Schaub'
p178
S'QB'
p179
tp180
a(S'Devonta Freeman'
p181
S'RB'
p182
tp183
a(S'Mohamed Sanu'
p184
S'WR'
p185
tp186
a(S'Tevin Coleman'
p187
S'RB'
p188
tp189
a(S'Patrick DiMarco'
p190
S'RB'
p191
tp192
a(S'Eric Weems'
p193
S'WR'
p194
tp195
a(S'Aldrick Robinson'
p196
S'WR'
p197
tp198
a(S'Justin Hardy'
p199
S'WR'
p200
tp201
a(S'Taylor Gabriel'
p202
S'WR'
p203
tp204
a(S'Jacob Tamme'
p205
S'TE'
p206
tp207
a(S'Levine Toilolo'
p208
S'TE'
p209
tp210
a(S'Joshua Perkins'
p211
S'TE'
p212
tp213
a(S'Austin Hooper'
p214
S'TE'
p215
tp216
a(S'Falcons'
p217
S'DST'
p218
tp219
asS'Saints'
p220
(lp221
sS'Chargers'
p222
(lp223
(S'Melvin Gordon'
p224
S'RB'
p225
tp226
a(S'Philip Rivers'
p227
S'QB'
p228
tp229
a(S'Travis Benjamin'
p230
S'WR'
p231
tp232
a(S'Kellen Clemens'
p233
S'QB'
p234
tp235
a(S'Tyrell Williams'
p236
S'WR'
p237
tp238
a(S'Dontrelle Inman'
p239
S'WR'
p240
tp241
a(S'Antonio Gates'
p242
S'TE'
p243
tp244
a(S'Dexter McCluster'
p245
S'RB'
p246
tp247
a(S'Hunter Henry'
p248
S'TE'
p249
tp250
a(S'Derek Watt'
p251
S'RB'
p252
tp253
a(S'Kenneth Farrow'
p254
S'RB'
p255
tp256
a(S'Griff Whalen'
p257
S'WR'
p258
tp259
a(S'Sean McGrath'
p260
S'TE'
p261
tp262
a(S'Asante Cleveland'
p263
S'TE'
p264
tp265
a(S'Chargers'
p266
S'DST'
p267
tp268
asS'Raiders'
p269
(lp270
(S'Amari Cooper'
p271
S'WR'
p272
tp273
a(S'Michael Crabtree'
p274
S'WR'
p275
tp276
a(S'Derek Carr'
p277
S'QB'
p278
tp279
a(S'Matt McGloin'
p280
S'QB'
p281
tp282
a(S'Connor Cook'
p283
S'QB'
p284
tp285
a(S'Latavius Murray'
p286
S'RB'
p287
tp288
a(S'DeAndre Washington'
p289
S'RB'
p290
tp291
a(S'Seth Roberts'
p292
S'WR'
p293
tp294
a(S'Jalen Richard'
p295
S'RB'
p296
tp297
a(S'Taiwan Jones'
p298
S'RB'
p299
tp300
a(S'Jamize Olawale'
p301
S'RB'
p302
tp303
a(S'Andre Holmes'
p304
S'WR'
p305
tp306
a(S'Johnny Holton'
p307
S'WR'
p308
tp309
a(S'Clive Walford'
p310
S'TE'
p311
tp312
a(S'Lee Smith'
p313
S'TE'
p314
tp315
a(S'Mychal Rivera'
p316
S'TE'
p317
tp318
a(S'Raiders'
p319
S'DST'
p320
tp321
asS'Lions'
p322
(lp323
(S'Marvin Jones'
p324
S'WR'
p325
tp326
a(S'Matthew Stafford'
p327
S'QB'
p328
tp329
a(S'Dan Orlovsky'
p330
S'QB'
p331
tp332
a(S'Theo Riddick'
p333
S'RB'
p334
tp335
a(S'Golden Tate'
p336
S'WR'
p337
tp338
a(S'Anquan Boldin'
p339
S'WR'
p340
tp341
a(S'Dwayne Washington'
p342
S'RB'
p343
tp344
a(S'Eric Ebron'
p345
S'TE'
p346
tp347
a(S'Michael Burton'
p348
S'RB'
p349
tp350
a(S'Zach Zenner'
p351
S'RB'
p352
tp353
a(S'Andre Roberts'
p354
S'WR'
p355
tp356
a(S'Aaron Dobson'
p357
S'WR'
p358
tp359
a(S'Orson Charles'
p360
S'TE'
p361
tp362
a(S'Cole Wick'
p363
S'TE'
p364
tp365
a(S'Khari Lee'
p366
S'TE'
p367
tp368
a(S'Lions'
p369
S'DST'
p370
tp371
asS'Eagles'
p372
(lp373
(S'Jordan Matthews'
p374
S'WR'
p375
tp376
a(S'Carson Wentz'
p377
S'QB'
p378
tp379
a(S'Chase Daniel'
p380
S'QB'
p381
tp382
a(S'Ryan Mathews'
p383
S'RB'
p384
tp385
a(S'Darren Sproles'
p386
S'RB'
p387
tp388
a(S'Nelson Agholor'
p389
S'WR'
p390
tp391
a(S'Zach Ertz'
p392
S'TE'
p393
tp394
a(S'Wendell Smallwood'
p395
S'RB'
p396
tp397
a(S'Dorial Green-Beckham'
p398
S'WR'
p399
tp400
a(S'Kenjon Barner'
p401
S'RB'
p402
tp403
a(S'Josh Huff'
p404
S'WR'
p405
tp406
a(S'Bryce Treggs'
p407
S'WR'
p408
tp409
a(S'Eagles'
p410
S'DST'
p411
tp412
a(S'Brent Celek'
p413
S'TE'
p414
tp415
a(S'Trey Burton'
p416
S'TE'
p417
tp418
asS'Browns'
p419
(lp420
(S'Terrelle Pryor'
p421
S'WR'
p422
tp423
a(S'Josh McCown'
p424
S'QB'
p425
tp426
a(S'Charlie Whitehurst'
p427
S'QB'
p428
tp429
a(S'Cody Kessler'
p430
S'QB'
p431
tp432
a(S'Isaiah Crowell'
p433
S'RB'
p434
tp435
a(S'Corey Coleman'
p436
S'WR'
p437
tp438
a(S'Duke Johnson'
p439
S'RB'
p440
tp441
a(S'Gary Barnidge'
p442
S'TE'
p443
tp444
a(S'Malcolm Johnson'
p445
S'RB'
p446
tp447
a(S'George Atkinson'
p448
S'RB'
p449
tp450
a(S'Andrew Hawkins'
p451
S'WR'
p452
tp453
a(S'Jordan Payton'
p454
S'WR'
p455
tp456
a(S'Ricardo Louis'
p457
S'WR'
p458
tp459
a(S'Rashard Higgins'
p460
S'WR'
p461
tp462
a(S'Randall Telfer'
p463
S'TE'
p464
tp465
a(S'Seth DeValve'
p466
S'TE'
p467
tp468
a(S'Browns'
p469
S'DST'
p470
tp471
asS'Steelers'
p472
(lp473
(S'Antonio Brown'
p474
S'WR'
p475
tp476
a(S"Le'Veon Bell"
p477
S'RB'
p478
tp479
a(S'Ben Roethlisberger'
p480
S'QB'
p481
tp482
a(S'DeAngelo Williams'
p483
S'RB'
p484
tp485
a(S'Landry Jones'
p486
S'QB'
p487
tp488
a(S'Zach Mettenberger'
p489
S'QB'
p490
tp491
a(S'Markus Wheaton'
p492
S'WR'
p493
tp494
a(S'Sammie Coates'
p495
S'WR'
p496
tp497
a(S'Steelers'
p498
S'DST'
p499
tp500
a(S'Eli Rogers'
p501
S'WR'
p502
tp503
a(S'Fitzgerald Toussaint'
p504
S'RB'
p505
tp506
a(S'Roosevelt Nix'
p507
S'RB'
p508
tp509
a(S'Darrius Heyward-Bey'
p510
S'WR'
p511
tp512
a(S'Jesse James'
p513
S'TE'
p514
tp515
a(S'David Johnson'
p516
S'TE'
p517
tp518
a(S'Xavier Grimble'
p519
S'TE'
p520
tp521
asS'Giants'
p522
(lp523
(S'Odell Beckham'
p524
S'WR'
p525
tp526
a(S'Eli Manning'
p527
S'QB'
p528
tp529
a(S'Sterling Shepard'
p530
S'WR'
p531
tp532
a(S'Josh Johnson'
p533
S'QB'
p534
tp535
a(S'Ryan Nassib'
p536
S'QB'
p537
tp538
a(S'Rashad Jennings'
p539
S'RB'
p540
tp541
a(S'Victor Cruz'
p542
S'WR'
p543
tp544
a(S'Orleans Darkwa'
p545
S'RB'
p546
tp547
a(S'Bobby Rainey'
p548
S'RB'
p549
tp550
a(S'Paul Perkins'
p551
S'RB'
p552
tp553
a(S'Dwayne Harris'
p554
S'WR'
p555
tp556
a(S'Tavarres King'
p557
S'WR'
p558
tp559
a(S'Roger Lewis'
p560
S'WR'
p561
tp562
a(S'Larry Donnell'
p563
S'TE'
p564
tp565
a(S'Will Tye'
p566
S'TE'
p567
tp568
a(S'Giants'
p569
S'DST'
p570
tp571
a(S'Jerell Adams'
p572
S'TE'
p573
tp574
asS'Buccaneers'
p575
(lp576
(S'Mike Evans'
p577
S'WR'
p578
tp579
a(S'Jameis Winston'
p580
S'QB'
p581
tp582
a(S'Charles Sims'
p583
S'RB'
p584
tp585
a(S'Doug Martin'
p586
S'RB'
p587
tp588
a(S'Mike Glennon'
p589
S'QB'
p590
tp591
a(S'Ryan Griffin'
p592
S'QB'
p593
tp594
a(S'Vincent Jackson'
p595
S'WR'
p596
tp597
a(S'Jacquizz Rodgers'
p598
S'RB'
p599
tp600
a(S'Peyton Barber'
p601
S'RB'
p602
tp603
a(S'Russell Shepard'
p604
S'WR'
p605
tp606
a(S'Cecil Shorts'
p607
S'WR'
p608
tp609
a(S'Freddie Martino'
p610
S'WR'
p611
tp612
a(S'Adam Humphries'
p613
S'WR'
p614
tp615
a(S'Cameron Brate'
p616
S'TE'
p617
tp618
a(S'Brandon Myers'
p619
S'TE'
p620
tp621
a(S'Andrew DePaola'
p622
S'TE'
p623
tp624
a(S'Luke Stocker'
p625
S'TE'
p626
tp627
a(S'Alan Cross'
p628
S'TE'
p629
tp630
a(S'Buccaneers'
p631
S'DST'
p632
tp633
asS'Cardinals'
p634
(lp635
(S'David Johnson'
p636
S'RB'
p637
tp638
a(S'Larry Fitzgerald'
p639
S'WR'
p640
tp641
a(S'Carson Palmer'
p642
S'QB'
p643
tp644
a(S'Drew Stanton'
p645
S'QB'
p646
tp647
a(S'Michael Floyd'
p648
S'WR'
p649
tp650
a(S'John Brown'
p651
S'WR'
p652
tp653
a(S'Chris Johnson'
p654
S'RB'
p655
tp656
a(S'Cardinals'
p657
S'DST'
p658
tp659
a(S'Jaron Brown'
p660
S'WR'
p661
tp662
a(S'Andre Ellington'
p663
S'RB'
p664
tp665
a(S'Stepfan Taylor'
p666
S'RB'
p667
tp668
a(S'J.J. Nelson'
p669
S'WR'
p670
tp671
a(S'Darren Fells'
p672
S'TE'
p673
tp674
a(S'Jermaine Gresham'
p675
S'TE'
p676
tp677
a(S'Ifeanyi Momah'
p678
S'TE'
p679
tp680
asS'Bengals'
p681
(lp682
(S'A.J. Green'
p683
S'WR'
p684
tp685
a(S'Andy Dalton'
p686
S'QB'
p687
tp688
a(S'AJ McCarron'
p689
S'QB'
p690
tp691
a(S'Jeff Driskel'
p692
S'QB'
p693
tp694
a(S'Giovani Bernard'
p695
S'RB'
p696
tp697
a(S'Jeremy Hill'
p698
S'RB'
p699
tp700
a(S'Tyler Eifert'
p701
S'TE'
p702
tp703
a(S'Brandon LaFell'
p704
S'WR'
p705
tp706
a(S'Tyler Boyd'
p707
S'WR'
p708
tp709
a(S'Rex Burkhead'
p710
S'RB'
p711
tp712
a(S'James Wright'
p713
S'WR'
p714
tp715
a(S'Alex Erickson'
p716
S'WR'
p717
tp718
a(S'Cody Core'
p719
S'WR'
p720
tp721
a(S'Bengals'
p722
S'DST'
p723
tp724
a(S'Clark Harris'
p725
S'TE'
p726
tp727
a(S'Ryan Hewitt'
p728
S'TE'
p729
tp730
a(S'Tyler Kroft'
p731
S'TE'
p732
tp733
a(S'C.J. Uzomah'
p734
S'TE'
p735
tp736
asS'Chiefs'
p737
(lp738
sS'Dolphins'
p739
(lp740
(S'Jarvis Landry'
p741
S'WR'
p742
tp743
a(S'Ryan Tannehill'
p744
S'QB'
p745
tp746
a(S'Matt Moore'
p747
S'QB'
p748
tp749
a(S'DeVante Parker'
p750
S'WR'
p751
tp752
a(S'Arian Foster'
p753
S'RB'
p754
tp755
a(S'Kenny Stills'
p756
S'WR'
p757
tp758
a(S'Jay Ajayi'
p759
S'RB'
p760
tp761
a(S'Kenyan Drake'
p762
S'RB'
p763
tp764
a(S'Isaiah Pead'
p765
S'RB'
p766
tp767
a(S'Damien Williams'
p768
S'RB'
p769
tp770
a(S'Jakeem Grant'
p771
S'WR'
p772
tp773
a(S'Leonte Carroo'
p774
S'WR'
p775
tp776
a(S'Jordan Cameron'
p777
S'TE'
p778
tp779
a(S'Dolphins'
p780
S'DST'
p781
tp782
a(S'MarQueis Gray'
p783
S'TE'
p784
tp785
a(S'Dion Sims'
p786
S'TE'
p787
tp788
asS'Jaguars'
p789
(lp790
sS'Seahawks'
p791
(lp792
sS'Jets'
p793
(lp794
(S'Brandon Marshall'
p795
S'WR'
p796
tp797
a(S'Matt Forte'
p798
S'RB'
p799
tp800
a(S'Eric Decker'
p801
S'WR'
p802
tp803
a(S'Ryan Fitzpatrick'
p804
S'QB'
p805
tp806
a(S'Bryce Petty'
p807
S'QB'
p808
tp809
a(S'Geno Smith'
p810
S'QB'
p811
tp812
a(S'Christian Hackenberg'
p813
S'QB'
p814
tp815
a(S'Quincy Enunwa'
p816
S'WR'
p817
tp818
a(S'Bilal Powell'
p819
S'RB'
p820
tp821
a(S'Robby Anderson'
p822
S'WR'
p823
tp824
a(S'Jalin Marshall'
p825
S'WR'
p826
tp827
a(S'Troymaine Pope'
p828
S'RB'
p829
tp830
a(S'Jeremy Ross'
p831
S'WR'
p832
tp833
a(S'Charone Peake'
p834
S'WR'
p835
tp836
a(S'Jets'
p837
S'DST'
p838
tp839
a(S'Kellen Davis'
p840
S'TE'
p841
tp842
a(S'Brandon Bostick'
p843
S'TE'
p844
tp845
a(S'Austin Seferian-Jenkins'
p846
S'TE'
p847
tp848
a(S'Braedon Bowman'
p849
S'TE'
p850
tp851
asS'Ravens'
p852
(lp853
(S'Joe Flacco'
p854
S'QB'
p855
tp856
a(S'Steve Smith'
p857
S'WR'
p858
tp859
a(S'Mike Wallace'
p860
S'WR'
p861
tp862
a(S'Ryan Mallett'
p863
S'QB'
p864
tp865
a(S'Terrance West'
p866
S'RB'
p867
tp868
a(S'Dennis Pitta'
p869
S'TE'
p870
tp871
a(S'Kenneth Dixon'
p872
S'RB'
p873
tp874
a(S'Justin Forsett'
p875
S'RB'
p876
tp877
a(S'Kyle Juszczyk'
p878
S'RB'
p879
tp880
a(S'Javorius Allen'
p881
S'RB'
p882
tp883
a(S'Devin Hester'
p884
S'WR'
p885
tp886
a(S'Kamar Aiken'
p887
S'WR'
p888
tp889
a(S'Chris Moore'
p890
S'WR'
p891
tp892
a(S'Breshad Perriman'
p893
S'WR'
p894
tp895
a(S'Ravens'
p896
S'DST'
p897
tp898
a(S'Crockett Gillmore'
p899
S'TE'
p900
tp901
a(S'Darren Waller'
p902
S'TE'
p903
tp904
a(S'Maxx Williams'
p905
S'TE'
p906
tp907
asS'Colts'
p908
(lp909
(S'T.Y. Hilton'
p910
S'WR'
p911
tp912
a(S'Andrew Luck'
p913
S'QB'
p914
tp915
a(S'Frank Gore'
p916
S'RB'
p917
tp918
a(S'Donte Moncrief'
p919
S'WR'
p920
tp921
a(S'Scott Tolzien'
p922
S'QB'
p923
tp924
a(S'Phillip Dorsett'
p925
S'WR'
p926
tp927
a(S'Dwayne Allen'
p928
S'TE'
p929
tp930
a(S'Robert Turbin'
p931
S'RB'
p932
tp933
a(S'Jordan Todman'
p934
S'RB'
p935
tp936
a(S'Josh Ferguson'
p937
S'RB'
p938
tp939
a(S'Devin Street'
p940
S'WR'
p941
tp942
a(S'Quan Bray'
p943
S'WR'
p944
tp945
a(S'Chester Rogers'
p946
S'WR'
p947
tp948
a(S'Jack Doyle'
p949
S'TE'
p950
tp951
a(S'Colts'
p952
S'DST'
p953
tp954
a(S'Erik Swoope'
p955
S'TE'
p956
tp957
asS'Packers'
p958
(lp959
(S'Jordy Nelson'
p960
S'WR'
p961
tp962
a(S'Aaron Rodgers'
p963
S'QB'
p964
tp965
a(S'Randall Cobb'
p966
S'WR'
p967
tp968
a(S'Eddie Lacy'
p969
S'RB'
p970
tp971
a(S'Brett Hundley'
p972
S'QB'
p973
tp974
a(S'Joe Callahan'
p975
S'QB'
p976
tp977
a(S'Davante Adams'
p978
S'WR'
p979
tp980
a(S'James Starks'
p981
S'RB'
p982
tp983
a(S'Packers'
p984
S'DST'
p985
tp986
a(S'Aaron Ripkowski'
p987
S'RB'
p988
tp989
a(S'Jared Abbrederis'
p990
S'WR'
p991
tp992
a(S'Ty Montgomery'
p993
S'WR'
p994
tp995
a(S'Trevor Davis'
p996
S'WR'
p997
tp998
a(S'Jeff Janis'
p999
S'WR'
p1000
tp1001
a(S'Richard Rodgers'
p1002
S'TE'
p1003
tp1004
a(S'Jared Cook'
p1005
S'TE'
p1006
tp1007
a(S'Justin Perillo'
p1008
S'TE'
p1009
tp1010
asS'Titans'
p1011
(lp1012
(S'DeMarco Murray'
p1013
S'RB'
p1014
tp1015
a(S'Marcus Mariota'
p1016
S'QB'
p1017
tp1018
a(S'Matt Cassel'
p1019
S'QB'
p1020
tp1021
a(S'Delanie Walker'
p1022
S'TE'
p1023
tp1024
a(S'Tajae Sharpe'
p1025
S'WR'
p1026
tp1027
a(S'Derrick Henry'
p1028
S'RB'
p1029
tp1030
a(S'Rishard Matthews'
p1031
S'WR'
p1032
tp1033
a(S'Andre Johnson'
p1034
S'WR'
p1035
tp1036
a(S'Jalston Fowler'
p1037
S'RB'
p1038
tp1039
a(S'Antonio Andrews'
p1040
S'RB'
p1041
tp1042
a(S'Harry Douglas'
p1043
S'WR'
p1044
tp1045
a(S'Marc Mariani'
p1046
S'WR'
p1047
tp1048
a(S'Kendall Wright'
p1049
S'WR'
p1050
tp1051
a(S'Anthony Fasano'
p1052
S'TE'
p1053
tp1054
a(S'Beau Brinkley'
p1055
S'TE'
p1056
tp1057
a(S'Jace Amaro'
p1058
S'TE'
p1059
tp1060
a(S'Phillip Supernaw'
p1061
S'TE'
p1062
tp1063
a(S'Titans'
p1064
S'DST'
p1065
tp1066
asS'Rams'
p1067
(lp1068
(S'Todd Gurley'
p1069
S'RB'
p1070
tp1071
a(S'Case Keenum'
p1072
S'QB'
p1073
tp1074
a(S'Sean Mannion'
p1075
S'QB'
p1076
tp1077
a(S'Jared Goff'
p1078
S'QB'
p1079
tp1080
a(S'Kenny Britt'
p1081
S'WR'
p1082
tp1083
a(S'Tavon Austin'
p1084
S'WR'
p1085
tp1086
a(S'Benny Cunningham'
p1087
S'RB'
p1088
tp1089
a(S'Brian Quick'
p1090
S'WR'
p1091
tp1092
a(S'Rams'
p1093
S'DST'
p1094
tp1095
a(S'Chase Reynolds'
p1096
S'RB'
p1097
tp1098
a(S'Malcolm Brown'
p1099
S'RB'
p1100
tp1101
a(S'Bradley Marquez'
p1102
S'WR'
p1103
tp1104
a(S'Nelson Spruce'
p1105
S'WR'
p1106
tp1107
a(S'Pharoh Cooper'
p1108
S'WR'
p1109
tp1110
a(S'Mike Thomas'
p1111
S'WR'
p1112
tp1113
a(S'Lance Kendricks'
p1114
S'TE'
p1115
tp1116
a(S'Cory Harkey'
p1117
S'TE'
p1118
tp1119
a(S'Tyler Higbee'
p1120
S'TE'
p1121
tp1122
a(S'Temarrick Hemingway'
p1123
S'TE'
p1124
tp1125
asS'Bills'
p1126
(lp1127
(S'LeSean McCoy'
p1128
S'RB'
p1129
tp1130
a(S'Tyrod Taylor'
p1131
S'QB'
p1132
tp1133
a(S'EJ Manuel'
p1134
S'QB'
p1135
tp1136
a(S'Cardale Jones'
p1137
S'QB'
p1138
tp1139
a(S'Robert Woods'
p1140
S'WR'
p1141
tp1142
a(S'Bills'
p1143
S'DST'
p1144
tp1145
a(S'Reggie Bush'
p1146
S'RB'
p1147
tp1148
a(S'Jerome Felton'
p1149
S'RB'
p1150
tp1151
a(S'Mike Gillislee'
p1152
S'RB'
p1153
tp1154
a(S'Jonathan Williams'
p1155
S'RB'
p1156
tp1157
a(S'Brandon Tate'
p1158
S'WR'
p1159
tp1160
a(S'Greg Salas'
p1161
S'WR'
p1162
tp1163
a(S'Marquise Goodwin'
p1164
S'WR'
p1165
tp1166
a(S'Justin Hunter'
p1167
S'WR'
p1168
tp1169
a(S'Walt Powell'
p1170
S'WR'
p1171
tp1172
a(S'Charles Clay'
p1173
S'TE'
p1174
tp1175
a(S'Jim Dray'
p1176
S'TE'
p1177
tp1178
a(S"Nick O'Leary"
p1179
S'TE'
p1180
tp1181
asS'Texans'
p1182
(lp1183
(S'DeAndre Hopkins'
p1184
S'WR'
p1185
tp1186
a(S'Lamar Miller'
p1187
S'RB'
p1188
tp1189
a(S'Will Fuller'
p1190
S'WR'
p1191
tp1192
a(S'Brock Osweiler'
p1193
S'QB'
p1194
tp1195
a(S'Brandon Weeden'
p1196
S'QB'
p1197
tp1198
a(S'Tom Savage'
p1199
S'QB'
p1200
tp1201
a(S'Alfred Blue'
p1202
S'RB'
p1203
tp1204
a(S'Jaelen Strong'
p1205
S'WR'
p1206
tp1207
a(S'Jonathan Grimes'
p1208
S'RB'
p1209
tp1210
a(S'Jay Prosch'
p1211
S'RB'
p1212
tp1213
a(S'Tyler Ervin'
p1214
S'RB'
p1215
tp1216
a(S'Keith Mumphery'
p1217
S'WR'
p1218
tp1219
a(S'Braxton Miller'
p1220
S'WR'
p1221
tp1222
a(S'Texans'
p1223
S'DST'
p1224
tp1225
a(S'Ryan Griffin'
p1226
S'TE'
p1227
tp1228
a(S'C.J. Fiedorowicz'
p1229
S'TE'
p1230
tp1231
a(S'Stephen Anderson'
p1232
S'TE'
p1233
tp1234
asS'49ers'
p1235
(lp1236
(S'Colin Kaepernick'
p1237
S'QB'
p1238
tp1239
a(S'Christian Ponder'
p1240
S'QB'
p1241
tp1242
a(S'Blaine Gabbert'
p1243
S'QB'
p1244
tp1245
a(S'Carlos Hyde'
p1246
S'RB'
p1247
tp1248
a(S'Torrey Smith'
p1249
S'WR'
p1250
tp1251
a(S'Jeremy Kerley'
p1252
S'WR'
p1253
tp1254
a(S'Shaun Draughn'
p1255
S'RB'
p1256
tp1257
a(S'DuJuan Harris'
p1258
S'RB'
p1259
tp1260
a(S'Mike Davis'
p1261
S'RB'
p1262
tp1263
a(S'Keshawn Martin'
p1264
S'WR'
p1265
tp1266
a(S'Rod Streater'
p1267
S'WR'
p1268
tp1269
a(S'Quinton Patton'
p1270
S'WR'
p1271
tp1272
a(S'Aaron Burbridge'
p1273
S'WR'
p1274
tp1275
a(S'Vance McDonald'
p1276
S'TE'
p1277
tp1278
a(S'Garrett Celek'
p1279
S'TE'
p1280
tp1281
a(S'49ers'
p1282
S'DST'
p1283
tp1284
a(S'Kyle Nelson'
p1285
S'TE'
p1286
tp1287
a(S'Blake Bell'
p1288
S'TE'
p1289
tp1290
asS'Patriots'
p1291
(lp1292
(S'Tom Brady'
p1293
S'QB'
p1294
tp1295
a(S'Julian Edelman'
p1296
S'WR'
p1297
tp1298
a(S'Rob Gronkowski'
p1299
S'TE'
p1300
tp1301
a(S'LeGarrette Blount'
p1302
S'RB'
p1303
tp1304
a(S'Jimmy Garoppolo'
p1305
S'QB'
p1306
tp1307
a(S'Jacoby Brissett'
p1308
S'QB'
p1309
tp1310
a(S'Chris Hogan'
p1311
S'WR'
p1312
tp1313
a(S'James White'
p1314
S'RB'
p1315
tp1316
a(S'Danny Amendola'
p1317
S'WR'
p1318
tp1319
a(S'Martellus Bennett'
p1320
S'TE'
p1321
tp1322
a(S'Patriots'
p1323
S'DST'
p1324
tp1325
a(S'James Develin'
p1326
S'RB'
p1327
tp1328
a(S'Brandon Bolden'
p1329
S'RB'
p1330
tp1331
a(S'D.J. Foster'
p1332
S'RB'
p1333
tp1334
a(S'Matthew Slater'
p1335
S'WR'
p1336
tp1337
a(S'Malcolm Mitchell'
p1338
S'WR'
p1339
tp1340
a(S'Clay Harbor'
p1341
S'TE'
p1342
tp1343
a(S'Greg Scruggs'
p1344
S'TE'
p1345
tp1346
a(S'A.J. Derby'
p1347
S'TE'
p1348
tp1349
asS'Cowboys'
p1350
(lp1351
(S'Dez Bryant'
p1352
S'WR'
p1353
tp1354
a(S'Ezekiel Elliott'
p1355
S'RB'
p1356
tp1357
a(S'Tony Romo'
p1358
S'QB'
p1359
tp1360
a(S'Dak Prescott'
p1361
S'QB'
p1362
tp1363
a(S'Mark Sanchez'
p1364
S'QB'
p1365
tp1366
a(S'Jason Witten'
p1367
S'TE'
p1368
tp1369
a(S'Cole Beasley'
p1370
S'WR'
p1371
tp1372
a(S'Terrance Williams'
p1373
S'WR'
p1374
tp1375
a(S'Alfred Morris'
p1376
S'RB'
p1377
tp1378
a(S'Brice Butler'
p1379
S'WR'
p1380
tp1381
a(S'Lance Dunbar'
p1382
S'RB'
p1383
tp1384
a(S'Rod Smith'
p1385
S'RB'
p1386
tp1387
a(S'Keith Smith'
p1388
S'RB'
p1389
tp1390
a(S'Darius Jackson'
p1391
S'RB'
p1392
tp1393
a(S'Lucky Whitehead'
p1394
S'WR'
p1395
tp1396
a(S'Cowboys'
p1397
S'DST'
p1398
tp1399
a(S'Gavin Escobar'
p1400
S'TE'
p1401
tp1402
a(S'Geoff Swaim'
p1403
S'TE'
p1404
tp1405
asS'Panthers'
p1406
(lp1407
(S'Cam Newton'
p1408
S'QB'
p1409
tp1410
a(S'Kelvin Benjamin'
p1411
S'WR'
p1412
tp1413
a(S'Greg Olsen'
p1414
S'TE'
p1415
tp1416
a(S'Derek Anderson'
p1417
S'QB'
p1418
tp1419
a(S'Joe Webb'
p1420
S'QB'
p1421
tp1422
a(S'Jonathan Stewart'
p1423
S'RB'
p1424
tp1425
a(S'Fozzy Whittaker'
p1426
S'RB'
p1427
tp1428
a(S'Ted Ginn'
p1429
S'WR'
p1430
tp1431
a(S'Devin Funchess'
p1432
S'WR'
p1433
tp1434
a(S'Cameron Artis-Payne'
p1435
S'RB'
p1436
tp1437
a(S'Panthers'
p1438
S'DST'
p1439
tp1440
a(S'Corey Brown'
p1441
S'WR'
p1442
tp1443
a(S'Mike Tolbert'
p1444
S'RB'
p1445
tp1446
a(S'Damiere Byrd'
p1447
S'WR'
p1448
tp1449
a(S'Ed Dickson'
p1450
S'TE'
p1451
tp1452
a(S'Scott Simonson'
p1453
S'TE'
p1454
tp1455
asS'Redskins'
p1456
(lp1457
(S'Jordan Reed'
p1458
S'TE'
p1459
tp1460
a(S'Kirk Cousins'
p1461
S'QB'
p1462
tp1463
a(S'DeSean Jackson'
p1464
S'WR'
p1465
tp1466
a(S'Colt McCoy'
p1467
S'QB'
p1468
tp1469
a(S'Nate Sudfeld'
p1470
S'QB'
p1471
tp1472
a(S'Jamison Crowder'
p1473
S'WR'
p1474
tp1475
a(S'Matt Jones'
p1476
S'RB'
p1477
tp1478
a(S'Pierre Garcon'
p1479
S'WR'
p1480
tp1481
a(S'Chris Thompson'
p1482
S'RB'
p1483
tp1484
a(S'Rob Kelley'
p1485
S'RB'
p1486
tp1487
a(S'Ryan Grant'
p1488
S'WR'
p1489
tp1490
a(S'Josh Doctson'
p1491
S'WR'
p1492
tp1493
a(S'Rashad Ross'
p1494
S'WR'
p1495
tp1496
a(S'Redskins'
p1497
S'DST'
p1498
tp1499
a(S'Vernon Davis'
p1500
S'TE'
p1501
tp1502
a(S'Niles Paul'
p1503
S'TE'
p1504
tp1505
ass.