(dp0
S'2015'
p1
(dp2
S'K'
p3
(dp4
S'MIN'
p5
F108.0
sS'MIA'
p6
F105.0
sS'CAR'
p7
F75.0
sS'ATL'
p8
F99.0
sS'OAK'
p9
F139.0
sS'CIN'
p10
F105.0
sS'NYJ'
p11
F108.0
sS'DEN'
p12
F102.0
sS'BAL'
p13
F127.0
sS'NYG'
p14
F140.0
sS'DET'
p15
F116.0
sS'TEN'
p16
F115.0
sS'NO'
p17
F99.0
sS'DAL'
p18
F126.0
sS'NE'
p19
F97.0
sS'SEA'
p20
F103.0
sS'CHI'
p21
F115.0
sS'BUF'
p22
F99.0
sS'STL'
p23
F134.0
sS'CLE'
p24
F134.0
sS'TB'
p25
F122.0
sS'HOU'
p26
F88.0
sS'GB'
p27
F103.0
sS'WAS'
p28
F109.0
sS'JAC'
p29
F123.0
sS'KC'
p30
F79.0
sS'PHI'
p31
F128.0
sS'PIT'
p32
F107.0
sS'IND'
p33
F124.0
sS'ARI'
p34
F105.0
sS'SF'
p35
F119.0
sS'SD'
p36
F126.0
ssS'QB'
p37
(dp38
g5
F246.26000000000002
sg6
F268.12
sg7
F224.86000000000007
sg8
F231.53999999999996
sg9
F271.58
sg10
F209.39999999999998
sg11
F217.70000000000002
sg12
F197.16000000000003
sg13
F271.52000000000004
sg14
F321.7
sg15
F264.24
sg16
F305.09999999999997
sg17
F379.59999999999997
sg18
F253.43999999999994
sg19
F254.09999999999994
sg20
F202.46000000000004
sg21
F307.4
sg22
F267.82000000000005
sg23
F246.42000000000004
sg24
F301.15999999999997
sg25
F269.58000000000004
sg26
F222.66000000000003
sg27
F233.52
sg28
F288.18
sg29
F288.44000000000005
sg30
F221.58
sg31
F319.5
sg32
F272.96
sg33
F269.64000000000004
sg34
F231.94
sg35
F262.20000000000005
sg36
F236.04000000000002
ssS'WR'
p39
(dp40
g5
F412.5
sg6
F482.09999999999985
sg7
F418.4
sg8
F331.8999999999999
sg9
F424.49999999999994
sg10
F435.0999999999999
sg11
F468.19999999999993
sg12
F338.4
sg13
F527.7
sg14
F478.29999999999984
sg15
F463.9
sg16
F486.80000000000007
sg17
F501.99999999999994
sg18
F398.00000000000006
sg19
F492.2
sg20
F342.4000000000001
sg21
F360.8
sg22
F510.8
sg23
F431.5
sg24
F532.0000000000001
sg25
F509.6000000000001
sg26
F415.00000000000006
sg27
F395.7
sg28
F488.0999999999999
sg29
F459.00000000000006
sg30
F494.19999999999993
sg31
F521.1
sg32
F550.5000000000001
sg33
F509.9
sg34
F386.5000000000001
sg35
F460.8999999999998
sg36
F397.70000000000005
ssS'RB'
p41
(dp42
g5
F280.3999999999999
sg6
F419.3000000000001
sg7
F299.2
sg8
F344.70000000000005
sg9
F332.50000000000006
sg10
F317.4
sg11
F239.10000000000002
sg12
F287.3999999999999
sg13
F283.09999999999997
sg14
F358.9999999999998
sg15
F317.19999999999993
sg16
F274.6999999999999
sg17
F358.7
sg18
F369.9
sg19
F277.6
sg20
F232.00000000000003
sg21
F318.9
sg22
F304.9
sg23
F301.2
sg24
F323.70000000000005
sg25
F295.50000000000006
sg26
F288.5
sg27
F286.90000000000003
sg28
F331.10000000000014
sg29
F378.4999999999999
sg30
F258.3
sg31
F357.60000000000014
sg32
F250.90000000000003
sg33
F336.40000000000003
sg34
F277.99999999999994
sg35
F396.8
sg36
F380.6000000000001
ssS'TE'
p43
(dp44
g5
F162.5
sg6
F148.80000000000004
sg7
F150.60000000000002
sg8
F200.9000000000001
sg9
F194.90000000000003
sg10
F128.30000000000004
sg11
F120.09999999999998
sg12
F170.4
sg13
F117.6
sg14
F232.80000000000007
sg15
F194.8
sg16
F184.7
sg17
F238.99999999999997
sg18
F115.99999999999999
sg19
F123.69999999999999
sg20
F165.79999999999995
sg21
F161.20000000000005
sg22
F145.10000000000002
sg23
F173.0
sg24
F133.2
sg25
F154.79999999999995
sg26
F149.0
sg27
F160.49999999999997
sg28
F160.4
sg29
F188.99999999999997
sg30
F116.20000000000002
sg31
F146.39999999999998
sg32
F182.9
sg33
F179.20000000000002
sg34
F166.3
sg35
F136.40000000000003
sg36
F164.50000000000003
sssS'2014'
p45
(dp46
g3
(dp47
g5
F102.0
sg6
F117.0
sg7
F102.0
sg8
F119.0
sg9
F135.0
sg10
F106.0
sg11
F115.0
sg12
F106.0
sg13
F111.0
sg14
F119.0
sg15
F82.0
sg16
F137.0
sg17
F127.0
sg18
F86.0
sg19
F115.0
sg20
F88.0
sg21
F148.0
sg22
F111.0
sg23
F114.0
sg24
F121.0
sg25
F118.0
sg26
F88.0
sg27
F95.0
sg28
F116.0
sg29
F132.0
sg30
F121.0
sg31
F112.0
sg32
F112.0
sg33
F85.0
sg34
F107.0
sg35
F100.0
sg36
F120.0
ssg37
(dp48
g5
F233.14
sg6
F207.02
sg7
F259.42
sg8
F264.82
sg9
F214.6
sg10
F200.57999999999998
sg11
F207.84
sg12
F250.58000000000004
sg13
F256.88
sg14
F275.78
sg15
F210.62000000000006
sg16
F247.93999999999997
sg17
F289.68
sg18
F240.58000000000004
sg19
F191.84000000000003
sg20
F152.98000000000002
sg21
F304.32
sg22
F188.12
sg23
F227.57999999999998
sg24
F191.02
sg25
F262.47999999999996
sg26
F236.66
sg27
F237.25999999999996
sg28
F315.14
sg29
F231.05999999999997
sg30
F140.32
sg31
F302.1000000000001
sg32
F268.90000000000003
sg33
F209.18000000000004
sg34
F235.88
sg35
F185.28
sg36
F226.0
ssg39
(dp49
g5
F416.8000000000001
sg6
F438.7999999999999
sg7
F434.50000000000006
sg8
F462.3
sg9
F400.5
sg10
F376.4
sg11
F450.0
sg12
F383.5
sg13
F480.2999999999999
sg14
F352.7000000000001
sg15
F423.5
sg16
F375.79999999999984
sg17
F470.3000000000001
sg18
F367.6999999999999
sg19
F356.3999999999999
sg20
F267.80000000000007
sg21
F431.40000000000003
sg22
F396.1000000000001
sg23
F479.7
sg24
F429.2000000000001
sg25
F468.2
sg26
F475.3
sg27
F427.70000000000005
sg28
F466.5
sg29
F382.79999999999984
sg30
F421.99999999999994
sg31
F518.9
sg32
F463.50000000000006
sg33
F366.4
sg34
F422.7
sg35
F408.70000000000005
sg36
F433.8999999999999
ssg41
(dp50
g5
F307.0
sg6
F298.80000000000007
sg7
F284.19999999999993
sg8
F378.4
sg9
F367.99999999999994
sg10
F330.30000000000007
sg11
F257.0
sg12
F259.29999999999995
sg13
F209.49999999999997
sg14
F254.7
sg15
F248.40000000000003
sg16
F352.4
sg17
F361.1
sg18
F293.20000000000005
sg19
F294.80000000000007
sg20
F255.6
sg21
F270.30000000000007
sg22
F274.40000000000003
sg23
F248.2
sg24
F323.19999999999993
sg25
F270.59999999999997
sg26
F283.3
sg27
F260.8
sg28
F223.49999999999994
sg29
F337.9
sg30
F244.39999999999995
sg31
F301.79999999999995
sg32
F235.79999999999993
sg33
F308.79999999999995
sg34
F210.0
sg35
F230.79999999999998
sg36
F271.6
ssg43
(dp51
g5
F131.3
sg6
F121.3
sg7
F127.3
sg8
F108.0
sg9
F170.49999999999997
sg10
F139.3
sg11
F196.3
sg12
F189.7
sg13
F133.7
sg14
F158.29999999999998
sg15
F145.8
sg16
F164.20000000000002
sg17
F103.50000000000001
sg18
F194.2
sg19
F174.29999999999998
sg20
F152.10000000000005
sg21
F205.60000000000002
sg22
F94.30000000000001
sg23
F109.10000000000001
sg24
F120.2
sg25
F118.3
sg26
F107.3
sg27
F123.59999999999998
sg28
F177.5
sg29
F150.29999999999998
sg30
F114.09999999999998
sg31
F107.69999999999997
sg32
F168.1
sg33
F176.2
sg34
F197.00000000000003
sg35
F166.80000000000004
sg36
F110.60000000000001
sssS'2011'
p52
(dp53
g3
(dp54
g5
F102.0
sg6
F73.0
sg7
F72.0
sg8
F46.0
sg9
F92.0
sg10
F56.0
sg11
F88.0
sg12
F94.0
sg13
F79.0
sg14
F70.0
sg15
F89.0
sg16
F67.0
sg17
F70.0
sg18
F55.0
sg19
F71.0
sg20
F60.0
sg21
F70.0
sg22
F88.0
sg23
F68.0
sg24
F80.0
sg25
F44.0
sg26
F73.0
sg27
F53.0
sg28
F64.0
sg29
F56.0
sg30
F78.0
sg31
F63.0
sg32
F47.0
sg33
F71.0
sg34
F77.0
sg35
F47.0
sg36
F96.0
ssg37
(dp55
g5
F259.78000000000003
sg6
F213.25999999999996
sg7
F195.22
sg8
F185.28000000000003
sg9
F209.16
sg10
F135.62
sg11
F120.16
sg12
F183.74
sg13
F119.22
sg14
F214.78000000000006
sg15
F213.58
sg16
F187.0
sg17
F227.26
sg18
F149.18
sg19
F213.52
sg20
F140.62
sg21
F184.37999999999994
sg22
F191.92000000000002
sg23
F162.66000000000003
sg24
F129.5
sg25
F257.1
sg26
F134.33999999999997
sg27
F219.90000000000003
sg28
F187.32
sg29
F168.26
sg30
F164.07999999999998
sg31
F169.48000000000005
sg32
F120.78000000000002
sg33
F225.08
sg34
F189.04000000000002
sg35
F133.32000000000002
sg36
F194.42000000000002
ssg39
(dp56
g5
F285.90000000000003
sg6
F191.79999999999998
sg7
F193.39999999999998
sg8
F256.5
sg9
F207.8
sg10
F226.50000000000003
sg11
F137.7
sg12
F244.70000000000002
sg13
F254.50000000000003
sg14
F200.10000000000002
sg15
F340.40000000000003
sg16
F193.7
sg17
F299.7
sg18
F207.00000000000003
sg19
F324.29999999999995
sg20
F227.20000000000005
sg21
F266.5
sg22
F170.7
sg23
F352.8
sg24
F193.60000000000005
sg25
F245.09999999999997
sg26
F229.20000000000002
sg27
F260.70000000000005
sg28
F243.3
sg29
F248.09999999999997
sg30
F186.3
sg31
F192.80000000000004
sg32
F156.79999999999998
sg33
F279.7
sg34
F322.59999999999997
sg35
F240.10000000000005
sg36
F178.49999999999997
ssg41
(dp57
g5
F175.60000000000005
sg6
F152.20000000000002
sg7
F234.10000000000005
sg8
F191.90000000000003
sg9
F171.5
sg10
F72.9
sg11
F147.50000000000003
sg12
F204.60000000000002
sg13
F69.30000000000001
sg14
F171.5
sg15
F193.3
sg16
F137.70000000000002
sg17
F145.10000000000002
sg18
F118.20000000000002
sg19
F177.29999999999998
sg20
F119.30000000000001
sg21
F130.6
sg22
F227.20000000000002
sg23
F132.4
sg24
F97.59999999999998
sg25
F280.3
sg26
F97.99999999999999
sg27
F130.20000000000002
sg28
F165.8
sg29
F141.10000000000002
sg30
F131.90000000000003
sg31
F132.60000000000005
sg32
F67.1
sg33
F146.9
sg34
F128.8
sg35
F52.1
sg36
F72.20000000000002
ssg43
(dp58
g5
F90.7
sg6
F97.80000000000001
sg7
F74.70000000000002
sg8
F95.3
sg9
F95.9
sg10
F86.39999999999999
sg11
F126.4
sg12
F58.400000000000006
sg13
F57.29999999999998
sg14
F115.00000000000001
sg15
F75.69999999999999
sg16
F72.3
sg17
F49.5
sg18
F101.90000000000002
sg19
F70.4
sg20
F80.50000000000001
sg21
F79.00000000000001
sg22
F151.80000000000004
sg23
F64.8
sg24
F103.9
sg25
F98.9
sg26
F71.10000000000001
sg27
F100.3
sg28
F147.39999999999998
sg29
F127.0
sg30
F92.39999999999999
sg31
F66.30000000000001
sg32
F112.70000000000002
sg33
F101.0
sg34
F82.60000000000001
sg35
F81.19999999999999
sg36
F87.70000000000002
sssS'2010'
p59
(dp60
g3
(dp61
g5
F66.0
sg6
F64.0
sg7
F71.0
sg8
F31.0
sg9
F62.0
sg10
F81.0
sg11
F64.0
sg12
F66.0
sg13
F72.0
sg14
F31.0
sg15
F74.0
sg16
F86.0
sg17
F41.0
sg18
F37.0
sg19
F44.0
sg20
F68.0
sg21
F36.0
sg22
F99.0
sg23
F64.0
sg24
F61.0
sg25
F31.0
sg26
F70.0
sg27
F47.0
sg28
F44.0
sg29
F48.0
sg30
F61.0
sg31
F39.0
sg32
F62.0
sg33
F61.0
sg34
F64.0
sg35
F62.0
sg36
F50.0
ssg37
(dp62
g5
F196.21999999999997
sg6
F188.84
sg7
F183.56
sg8
F174.56
sg9
F160.33999999999997
sg10
F179.89999999999998
sg11
F199.64000000000001
sg12
F142.22000000000003
sg13
F164.64000000000001
sg14
F71.48
sg15
F176.70000000000002
sg16
F125.66000000000001
sg17
F139.7
sg18
F136.78
sg19
F196.26000000000002
sg20
F237.18
sg21
F130.10000000000002
sg22
F210.82000000000005
sg23
F132.12
sg24
F212.04
sg25
F134.4
sg26
F142.9
sg27
F113.89999999999999
sg28
F132.2
sg29
F126.94
sg30
F100.19999999999999
sg31
F161.28
sg32
F179.82
sg33
F66.52000000000001
sg34
F141.42
sg35
F169.02000000000004
sg36
F75.25999999999999
ssg39
(dp63
g5
F232.69999999999993
sg6
F143.4
sg7
F211.8
sg8
F275.90000000000003
sg9
F193.20000000000002
sg10
F196.0
sg11
F192.79999999999998
sg12
F128.70000000000002
sg13
F207.4
sg14
F194.39999999999998
sg15
F170.59999999999997
sg16
F182.80000000000004
sg17
F98.90000000000002
sg18
F241.29999999999998
sg19
F180.20000000000002
sg20
F275.9
sg21
F163.3
sg22
F105.69999999999999
sg23
F208.49999999999994
sg24
F202.6
sg25
F151.09999999999997
sg26
F162.1
sg27
F140.3
sg28
F192.79999999999998
sg29
F199.40000000000003
sg30
F162.69999999999996
sg31
F176.6
sg32
F153.70000000000002
sg33
F129.79999999999998
sg34
F191.19999999999996
sg35
F237.80000000000004
sg36
F132.89999999999998
ssg41
(dp64
g5
F68.9
sg6
F100.50000000000003
sg7
F84.2
sg8
F90.0
sg9
F166.30000000000004
sg10
F97.89999999999999
sg11
F90.0
sg12
F288.5
sg13
F51.800000000000004
sg14
F126.60000000000001
sg15
F181.99999999999997
sg16
F168.10000000000002
sg17
F94.89999999999998
sg18
F111.10000000000001
sg19
F116.8
sg20
F165.10000000000002
sg21
F99.60000000000001
sg22
F104.99999999999999
sg23
F155.5
sg24
F50.20000000000002
sg25
F62.300000000000004
sg26
F132.9
sg27
F112.6
sg28
F121.5
sg29
F218.7
sg30
F141.8
sg31
F107.3
sg32
F57.0
sg33
F206.60000000000002
sg34
F180.20000000000005
sg35
F133.4
sg36
F145.40000000000006
ssg43
(dp65
g5
F79.60000000000001
sg6
F69.8
sg7
F56.4
sg8
F61.60000000000001
sg9
F100.8
sg10
F58.30000000000001
sg11
F51.300000000000004
sg12
F83.20000000000002
sg13
F65.6
sg14
F70.7
sg15
F42.2
sg16
F111.3
sg17
F56.0
sg18
F61.50000000000001
sg19
F59.800000000000004
sg20
F82.30000000000001
sg21
F54.900000000000006
sg22
F94.8
sg23
F52.1
sg24
F57.30000000000001
sg25
F48.099999999999994
sg26
F84.4
sg27
F85.1
sg28
F87.30000000000003
sg29
F84.0
sg30
F78.9
sg31
F109.99999999999999
sg32
F74.5
sg33
F93.7
sg34
F80.6
sg35
F34.9
sg36
F83.60000000000001
sssS'2013'
p66
(dp67
g3
(dp68
g5
F100.0
sg6
F115.0
sg7
F81.0
sg8
F102.0
sg9
F103.0
sg10
F90.0
sg11
F111.0
sg12
F101.0
sg13
F114.0
sg14
F104.0
sg15
F108.0
sg16
F120.0
sg17
F96.0
sg18
F99.0
sg19
F84.0
sg20
F62.0
sg21
F88.0
sg22
F107.0
sg23
F71.0
sg24
F117.0
sg25
F106.0
sg26
F111.0
sg27
F91.0
sg28
F100.0
sg29
F101.0
sg30
F85.0
sg31
F105.0
sg32
F99.0
sg33
F79.0
sg34
F78.0
sg35
F60.0
sg36
F88.0
ssg37
(dp69
g5
F348.22
sg6
F218.36
sg7
F191.07999999999998
sg8
F306.02
sg9
F260.38
sg10
F209.89999999999998
sg11
F236.6
sg12
F228.71999999999997
sg13
F173.4
sg14
F200.01999999999995
sg15
F235.04000000000005
sg16
F182.38000000000005
sg17
F216.94
sg18
F280.8
sg19
F229.14000000000001
sg20
F138.56
sg21
F205.5
sg22
F220.64
sg23
F225.16000000000003
sg24
F243.78000000000003
sg25
F293.68
sg26
F207.24000000000004
sg27
F254.54
sg28
F209.48000000000002
sg29
F280.20000000000005
sg30
F145.67999999999998
sg31
F220.66000000000003
sg32
F207.06
sg33
F206.24
sg34
F256.7
sg35
F190.11999999999998
sg36
F155.5
ssg39
(dp70
g5
F465.70000000000016
sg6
F324.19999999999993
sg7
F306.90000000000003
sg8
F424.2
sg9
F379.0
sg10
F283.5
sg11
F439.09999999999997
sg12
F359.2999999999999
sg13
F389.4000000000001
sg14
F314.90000000000003
sg15
F422.8
sg16
F236.59999999999997
sg17
F313.49999999999994
sg18
F358.0
sg19
F381.1999999999999
sg20
F240.29999999999995
sg21
F372.1
sg22
F389.6
sg23
F427.50000000000006
sg24
F309.99999999999994
sg25
F387.20000000000005
sg26
F323.20000000000005
sg27
F337.00000000000006
sg28
F343.40000000000003
sg29
F368.3999999999999
sg30
F400.1999999999999
sg31
F488.59999999999997
sg32
F343.9000000000001
sg33
F404.80000000000007
sg34
F260.6
sg35
F342.60000000000014
sg36
F389.59999999999997
ssg41
(dp71
g5
F255.7
sg6
F260.1
sg7
F184.20000000000005
sg8
F296.90000000000003
sg9
F299.6
sg10
F167.8
sg11
F185.4
sg12
F243.90000000000003
sg13
F228.7
sg14
F255.7
sg15
F198.80000000000004
sg16
F261.0
sg17
F208.0
sg18
F340.40000000000003
sg19
F219.9
sg20
F177.30000000000004
sg21
F283.3
sg22
F238.20000000000005
sg23
F250.60000000000002
sg24
F300.79999999999995
sg25
F213.70000000000002
sg26
F251.8
sg27
F278.1000000000001
sg28
F275.49999999999994
sg29
F232.1
sg30
F240.0
sg31
F203.79999999999998
sg32
F249.69999999999996
sg33
F197.60000000000002
sg34
F138.9
sg35
F154.7
sg36
F250.39999999999998
ssg43
(dp72
g5
F165.7
sg6
F159.6
sg7
F138.7
sg8
F151.00000000000003
sg9
F139.4
sg10
F114.20000000000002
sg11
F145.1
sg12
F163.39999999999998
sg13
F90.8
sg14
F150.8
sg15
F111.4
sg16
F155.3
sg17
F116.0
sg18
F190.70000000000005
sg19
F129.50000000000003
sg20
F129.5
sg21
F158.09999999999997
sg22
F116.49999999999999
sg23
F106.4
sg24
F94.00000000000001
sg25
F128.00000000000003
sg26
F153.60000000000002
sg27
F121.99999999999997
sg28
F102.89999999999999
sg29
F175.99999999999997
sg30
F125.60000000000001
sg31
F138.19999999999996
sg32
F141.70000000000002
sg33
F135.2
sg34
F234.30000000000004
sg35
F113.99999999999999
sg36
F147.60000000000002
sssS'2012'
p73
(dp74
g3
(dp75
g5
F85.0
sg6
F78.0
sg7
F92.0
sg8
F57.0
sg9
F119.0
sg10
F93.0
sg11
F83.0
sg12
F91.0
sg13
F134.0
sg14
F89.0
sg15
F83.0
sg16
F106.0
sg17
F89.0
sg18
F82.0
sg19
F64.0
sg20
F58.0
sg21
F49.0
sg22
F83.0
sg23
F86.0
sg24
F80.0
sg25
F53.0
sg26
F79.0
sg27
F54.0
sg28
F78.0
sg29
F116.0
sg30
F132.0
sg31
F94.0
sg32
F90.0
sg33
F95.0
sg34
F79.0
sg35
F50.0
sg36
F85.0
ssg37
(dp76
g5
F269.58000000000004
sg6
F216.2
sg7
F195.94
sg8
F192.49999999999997
sg9
F239.60000000000002
sg10
F182.70000000000005
sg11
F192.08000000000004
sg12
F208.42
sg13
F144.82000000000002
sg14
F240.73999999999995
sg15
F192.94
sg16
F253.22
sg17
F276.72
sg18
F240.89999999999998
sg19
F207.04
sg20
F168.14000000000001
sg21
F150.0
sg22
F260.74
sg23
F224.24000000000004
sg24
F214.78
sg25
F267.86
sg26
F187.73999999999995
sg27
F187.76
sg28
F258.6
sg29
F229.28
sg30
F238.38000000000005
sg31
F285.93999999999994
sg32
F134.84
sg33
F191.56000000000003
sg34
F163.88000000000002
sg35
F173.45999999999998
sg36
F180.39999999999998
ssg39
(dp77
g5
F327.1
sg6
F259.80000000000007
sg7
F264.79999999999995
sg8
F206.7
sg9
F359.9
sg10
F242.1
sg11
F182.09999999999997
sg12
F232.1
sg13
F311.6
sg14
F362.00000000000006
sg15
F349.0
sg16
F269.50000000000006
sg17
F439.40000000000015
sg18
F366.8000000000001
sg19
F317.6
sg20
F194.60000000000002
sg21
F247.20000000000002
sg22
F263.1000000000001
sg23
F269.2
sg24
F404.3
sg25
F401.3999999999999
sg26
F284.1000000000001
sg27
F269.3
sg28
F443.0
sg29
F267.00000000000006
sg30
F353.1
sg31
F329.70000000000005
sg32
F256.79999999999995
sg33
F341.29999999999995
sg34
F296.70000000000005
sg35
F260.3
sg36
F332.59999999999997
ssg41
(dp78
g5
F131.8
sg6
F203.00000000000003
sg7
F205.20000000000005
sg8
F218.29999999999995
sg9
F225.40000000000003
sg10
F154.9
sg11
F235.0
sg12
F188.90000000000003
sg13
F188.20000000000005
sg14
F200.2
sg15
F206.6
sg16
F207.0
sg17
F314.5
sg18
F199.00000000000006
sg19
F159.10000000000005
sg20
F172.4
sg21
F157.19999999999996
sg22
F279.3
sg23
F182.6
sg24
F142.1
sg25
F207.60000000000005
sg26
F141.0
sg27
F199.70000000000002
sg28
F161.1
sg29
F238.49999999999997
sg30
F164.69999999999996
sg31
F119.00000000000001
sg32
F138.2
sg33
F194.7
sg34
F185.6
sg35
F99.90000000000002
sg36
F192.29999999999998
ssg43
(dp79
g5
F114.9
sg6
F104.80000000000001
sg7
F113.80000000000003
sg8
F113.2
sg9
F122.90000000000003
sg10
F107.7
sg11
F107.69999999999999
sg12
F156.9
sg13
F93.80000000000001
sg14
F117.3
sg15
F117.39999999999999
sg16
F119.7
sg17
F89.5
sg18
F129.09999999999997
sg19
F126.80000000000001
sg20
F115.0
sg21
F101.2
sg22
F120.4
sg23
F122.9
sg24
F111.80000000000003
sg25
F135.20000000000005
sg26
F118.30000000000001
sg27
F104.5
sg28
F166.5
sg29
F129.90000000000003
sg30
F105.2
sg31
F110.39999999999999
sg32
F133.5
sg33
F117.19999999999999
sg34
F87.50000000000001
sg35
F83.10000000000001
sg36
F78.9
sss.