(dp0
S'2015'
p1
(dp2
S'K'
p3
(dp4
S'MIN'
p5
F6.75
sS'MIA'
p6
F6.5625
sS'CAR'
p7
F4.6875
sS'ATL'
p8
F6.1875
sS'OAK'
p9
F8.6875
sS'CIN'
p10
F6.5625
sS'NYJ'
p11
F6.75
sS'DEN'
p12
F6.375
sS'BAL'
p13
F7.9375
sS'NYG'
p14
F8.75
sS'DET'
p15
F7.25
sS'TEN'
p16
F7.1875
sS'NO'
p17
F5.823529411764706
sS'DAL'
p18
F7.875
sS'NE'
p19
F5.705882352941177
sS'SEA'
p20
F6.4375
sS'CHI'
p21
F7.1875
sS'BUF'
p22
F5.823529411764706
sS'STL'
p23
F8.375
sS'CLE'
p24
F8.375
sS'TB'
p25
F7.625
sS'HOU'
p26
F5.5
sS'GB'
p27
F6.4375
sS'WAS'
p28
F6.8125
sS'JAC'
p29
F7.6875
sS'KC'
p30
F4.647058823529412
sS'PHI'
p31
F8.0
sS'PIT'
p32
F6.6875
sS'IND'
p33
F7.75
sS'ARI'
p34
F6.5625
sS'SF'
p35
F7.4375
sS'SD'
p36
F7.875
ssS'QB'
p37
(dp38
g5
F15.391250000000001
sg6
F16.7575
sg7
F14.053750000000004
sg8
F14.471249999999998
sg9
F16.97375
sg10
F13.087499999999999
sg11
F13.606250000000001
sg12
F12.322500000000002
sg13
F16.970000000000002
sg14
F20.10625
sg15
F16.515
sg16
F19.068749999999998
sg17
F22.32941176470588
sg18
F15.839999999999996
sg19
F14.947058823529408
sg20
F12.653750000000002
sg21
F19.2125
sg22
F15.754117647058827
sg23
F15.401250000000003
sg24
F18.822499999999998
sg25
F16.848750000000003
sg26
F13.916250000000002
sg27
F14.595
sg28
F18.01125
sg29
F18.027500000000003
sg30
F13.034117647058824
sg31
F19.96875
sg32
F17.06
sg33
F16.852500000000003
sg34
F14.49625
sg35
F16.387500000000003
sg36
F14.752500000000001
ssS'WR'
p39
(dp40
g5
F25.78125
sg6
F30.13124999999999
sg7
F26.15
sg8
F20.743749999999995
sg9
F26.531249999999996
sg10
F27.193749999999994
sg11
F29.262499999999996
sg12
F21.15
sg13
F32.98125
sg14
F29.89374999999999
sg15
F28.99375
sg16
F30.425000000000004
sg17
F29.52941176470588
sg18
F24.875000000000004
sg19
F28.95294117647059
sg20
F21.400000000000006
sg21
F22.55
sg22
F30.04705882352941
sg23
F26.96875
sg24
F33.25000000000001
sg25
F31.850000000000005
sg26
F25.937500000000004
sg27
F24.73125
sg28
F30.506249999999994
sg29
F28.687500000000004
sg30
F29.070588235294114
sg31
F32.56875
sg32
F34.40625000000001
sg33
F31.86875
sg34
F24.156250000000007
sg35
F28.806249999999988
sg36
F24.856250000000003
ssS'RB'
p41
(dp42
g5
F17.524999999999995
sg6
F26.206250000000008
sg7
F18.7
sg8
F21.543750000000003
sg9
F20.781250000000004
sg10
F19.8375
sg11
F14.943750000000001
sg12
F17.962499999999995
sg13
F17.693749999999998
sg14
F22.437499999999986
sg15
F19.824999999999996
sg16
F17.168749999999992
sg17
F21.099999999999998
sg18
F23.11875
sg19
F16.329411764705885
sg20
F14.500000000000002
sg21
F19.93125
sg22
F17.935294117647057
sg23
F18.825
sg24
F20.231250000000003
sg25
F18.468750000000004
sg26
F18.03125
sg27
F17.931250000000002
sg28
F20.69375000000001
sg29
F23.656249999999993
sg30
F15.194117647058825
sg31
F22.35000000000001
sg32
F15.681250000000002
sg33
F21.025000000000002
sg34
F17.374999999999996
sg35
F24.8
sg36
F23.787500000000005
ssS'TE'
p43
(dp44
g5
F10.15625
sg6
F9.300000000000002
sg7
F9.412500000000001
sg8
F12.556250000000006
sg9
F12.181250000000002
sg10
F8.018750000000002
sg11
F7.506249999999999
sg12
F10.65
sg13
F7.35
sg14
F14.550000000000004
sg15
F12.175
sg16
F11.54375
sg17
F14.058823529411763
sg18
F7.249999999999999
sg19
F7.276470588235293
sg20
F10.362499999999997
sg21
F10.075000000000003
sg22
F8.53529411764706
sg23
F10.8125
sg24
F8.325
sg25
F9.674999999999997
sg26
F9.3125
sg27
F10.031249999999998
sg28
F10.025
sg29
F11.812499999999998
sg30
F6.835294117647059
sg31
F9.149999999999999
sg32
F11.43125
sg33
F11.200000000000001
sg34
F10.39375
sg35
F8.525000000000002
sg36
F10.281250000000002
sssS'2014'
p45
(dp46
g3
(dp47
g5
F6.375
sg6
F7.3125
sg7
F6.375
sg8
F7.4375
sg9
F8.4375
sg10
F6.625
sg11
F7.1875
sg12
F6.625
sg13
F6.9375
sg14
F7.4375
sg15
F5.125
sg16
F8.5625
sg17
F7.9375
sg18
F5.375
sg19
F7.1875
sg20
F5.5
sg21
F9.25
sg22
F6.9375
sg23
F7.125
sg24
F7.5625
sg25
F7.375
sg26
F5.5
sg27
F5.9375
sg28
F7.25
sg29
F8.25
sg30
F7.5625
sg31
F7.0
sg32
F7.0
sg33
F5.3125
sg34
F6.6875
sg35
F5.882352941176471
sg36
F7.5
ssg37
(dp48
g5
F14.57125
sg6
F12.93875
sg7
F16.21375
sg8
F16.55125
sg9
F13.4125
sg10
F12.536249999999999
sg11
F12.99
sg12
F15.661250000000003
sg13
F16.055
sg14
F17.23625
sg15
F13.163750000000004
sg16
F15.496249999999998
sg17
F18.105
sg18
F15.036250000000003
sg19
F11.990000000000002
sg20
F9.561250000000001
sg21
F19.02
sg22
F11.7575
sg23
F14.223749999999999
sg24
F11.93875
sg25
F16.404999999999998
sg26
F14.79125
sg27
F14.828749999999998
sg28
F19.69625
sg29
F14.441249999999998
sg30
F8.77
sg31
F18.881250000000005
sg32
F16.806250000000002
sg33
F13.073750000000002
sg34
F14.7425
sg35
F10.898823529411764
sg36
F14.125
ssg39
(dp49
g5
F26.050000000000008
sg6
F27.424999999999994
sg7
F27.156250000000004
sg8
F28.89375
sg9
F25.03125
sg10
F23.525
sg11
F28.125
sg12
F23.96875
sg13
F30.018749999999994
sg14
F22.043750000000006
sg15
F26.46875
sg16
F23.48749999999999
sg17
F29.393750000000008
sg18
F22.981249999999992
sg19
F22.274999999999995
sg20
F16.737500000000004
sg21
F26.962500000000002
sg22
F24.756250000000005
sg23
F29.98125
sg24
F26.825000000000006
sg25
F29.2625
sg26
F29.70625
sg27
F26.731250000000003
sg28
F29.15625
sg29
F23.92499999999999
sg30
F26.374999999999996
sg31
F32.43125
sg32
F28.968750000000004
sg33
F22.9
sg34
F26.41875
sg35
F24.041176470588237
sg36
F27.118749999999995
ssg41
(dp50
g5
F19.1875
sg6
F18.675000000000004
sg7
F17.762499999999996
sg8
F23.65
sg9
F22.999999999999996
sg10
F20.643750000000004
sg11
F16.0625
sg12
F16.206249999999997
sg13
F13.093749999999998
sg14
F15.91875
sg15
F15.525000000000002
sg16
F22.025
sg17
F22.56875
sg18
F18.325000000000003
sg19
F18.425000000000004
sg20
F15.975
sg21
F16.893750000000004
sg22
F17.150000000000002
sg23
F15.5125
sg24
F20.199999999999996
sg25
F16.912499999999998
sg26
F17.70625
sg27
F16.3
sg28
F13.968749999999996
sg29
F21.11875
sg30
F15.274999999999997
sg31
F18.862499999999997
sg32
F14.737499999999995
sg33
F19.299999999999997
sg34
F13.125
sg35
F13.576470588235294
sg36
F16.975
ssg43
(dp51
g5
F8.20625
sg6
F7.58125
sg7
F7.95625
sg8
F6.75
sg9
F10.656249999999998
sg10
F8.70625
sg11
F12.26875
sg12
F11.85625
sg13
F8.35625
sg14
F9.893749999999999
sg15
F9.1125
sg16
F10.262500000000001
sg17
F6.468750000000001
sg18
F12.1375
sg19
F10.893749999999999
sg20
F9.506250000000003
sg21
F12.850000000000001
sg22
F5.893750000000001
sg23
F6.8187500000000005
sg24
F7.5125
sg25
F7.39375
sg26
F6.70625
sg27
F7.724999999999999
sg28
F11.09375
sg29
F9.393749999999999
sg30
F7.131249999999999
sg31
F6.731249999999998
sg32
F10.50625
sg33
F11.0125
sg34
F12.312500000000002
sg35
F9.811764705882355
sg36
F6.9125000000000005
sssS'2011'
p52
(dp53
g3
(dp54
g5
F6.375
sg6
F4.5625
sg7
F4.5
sg8
F2.875
sg9
F5.75
sg10
F3.5
sg11
F5.5
sg12
F5.875
sg13
F4.9375
sg14
F4.375
sg15
F5.5625
sg16
F4.1875
sg17
F4.375
sg18
F3.4375
sg19
F4.4375
sg20
F3.75
sg21
F4.375
sg22
F5.5
sg23
F4.25
sg24
F5.0
sg25
F2.75
sg26
F4.5625
sg27
F3.3125
sg28
F4.0
sg29
F3.5
sg30
F4.875
sg31
F3.9375
sg32
F2.9375
sg33
F4.4375
sg34
F4.8125
sg35
F2.9375
sg36
F6.0
ssg37
(dp55
g5
F16.236250000000002
sg6
F13.328749999999998
sg7
F12.20125
sg8
F11.580000000000002
sg9
F13.0725
sg10
F8.47625
sg11
F7.51
sg12
F11.48375
sg13
F7.45125
sg14
F13.423750000000004
sg15
F13.34875
sg16
F11.6875
sg17
F14.20375
sg18
F9.32375
sg19
F13.345
sg20
F8.78875
sg21
F11.523749999999996
sg22
F11.995000000000001
sg23
F10.166250000000002
sg24
F8.09375
sg25
F16.06875
sg26
F8.396249999999998
sg27
F13.743750000000002
sg28
F11.7075
sg29
F10.51625
sg30
F10.254999999999999
sg31
F10.592500000000003
sg32
F7.548750000000001
sg33
F14.0675
sg34
F11.815000000000001
sg35
F8.332500000000001
sg36
F12.151250000000001
ssg39
(dp56
g5
F17.868750000000002
sg6
F11.987499999999999
sg7
F12.087499999999999
sg8
F16.03125
sg9
F12.9875
sg10
F14.156250000000002
sg11
F8.60625
sg12
F15.293750000000001
sg13
F15.906250000000002
sg14
F12.506250000000001
sg15
F21.275000000000002
sg16
F12.10625
sg17
F18.73125
sg18
F12.937500000000002
sg19
F20.268749999999997
sg20
F14.200000000000003
sg21
F16.65625
sg22
F10.66875
sg23
F22.05
sg24
F12.100000000000003
sg25
F15.318749999999998
sg26
F14.325000000000001
sg27
F16.293750000000003
sg28
F15.20625
sg29
F15.506249999999998
sg30
F11.64375
sg31
F12.050000000000002
sg32
F9.799999999999999
sg33
F17.48125
sg34
F20.162499999999998
sg35
F15.006250000000003
sg36
F11.156249999999998
ssg41
(dp57
g5
F10.975000000000003
sg6
F9.512500000000001
sg7
F14.631250000000003
sg8
F11.993750000000002
sg9
F10.71875
sg10
F4.55625
sg11
F9.218750000000002
sg12
F12.787500000000001
sg13
F4.331250000000001
sg14
F10.71875
sg15
F12.08125
sg16
F8.606250000000001
sg17
F9.068750000000001
sg18
F7.387500000000001
sg19
F11.081249999999999
sg20
F7.456250000000001
sg21
F8.1625
sg22
F14.200000000000001
sg23
F8.275
sg24
F6.099999999999999
sg25
F17.51875
sg26
F6.124999999999999
sg27
F8.137500000000001
sg28
F10.3625
sg29
F8.818750000000001
sg30
F8.243750000000002
sg31
F8.287500000000003
sg32
F4.19375
sg33
F9.18125
sg34
F8.05
sg35
F3.25625
sg36
F4.512500000000001
ssg43
(dp58
g5
F5.66875
sg6
F6.112500000000001
sg7
F4.668750000000001
sg8
F5.95625
sg9
F5.99375
sg10
F5.3999999999999995
sg11
F7.9
sg12
F3.6500000000000004
sg13
F3.581249999999999
sg14
F7.187500000000001
sg15
F4.731249999999999
sg16
F4.51875
sg17
F3.09375
sg18
F6.368750000000001
sg19
F4.4
sg20
F5.031250000000001
sg21
F4.937500000000001
sg22
F9.487500000000002
sg23
F4.05
sg24
F6.49375
sg25
F6.18125
sg26
F4.4437500000000005
sg27
F6.26875
sg28
F9.212499999999999
sg29
F7.9375
sg30
F5.7749999999999995
sg31
F4.143750000000001
sg32
F7.043750000000001
sg33
F6.3125
sg34
F5.1625000000000005
sg35
F5.074999999999999
sg36
F5.481250000000001
sssS'2010'
p59
(dp60
g3
(dp61
g5
F4.125
sg6
F4.0
sg7
F4.4375
sg8
F1.9375
sg9
F3.875
sg10
F5.0625
sg11
F4.0
sg12
F4.125
sg13
F4.5
sg14
F1.9375
sg15
F4.625
sg16
F5.375
sg17
F2.5625
sg18
F2.3125
sg19
F2.75
sg20
F4.25
sg21
F2.25
sg22
F6.1875
sg23
F4.0
sg24
F3.8125
sg25
F1.9375
sg26
F4.375
sg27
F2.9375
sg28
F2.75
sg29
F3.0
sg30
F3.8125
sg31
F2.4375
sg32
F3.875
sg33
F3.8125
sg34
F4.0
sg35
F3.875
sg36
F3.125
ssg37
(dp62
g5
F12.263749999999998
sg6
F11.8025
sg7
F11.4725
sg8
F10.91
sg9
F10.021249999999998
sg10
F11.243749999999999
sg11
F12.477500000000001
sg12
F8.888750000000002
sg13
F10.290000000000001
sg14
F4.4675
sg15
F11.043750000000001
sg16
F7.853750000000001
sg17
F8.73125
sg18
F8.54875
sg19
F12.266250000000001
sg20
F14.82375
sg21
F8.131250000000001
sg22
F13.176250000000003
sg23
F8.2575
sg24
F13.2525
sg25
F8.4
sg26
F8.93125
sg27
F7.1187499999999995
sg28
F8.2625
sg29
F7.93375
sg30
F6.262499999999999
sg31
F10.08
sg32
F11.23875
sg33
F4.157500000000001
sg34
F8.83875
sg35
F10.563750000000002
sg36
F4.703749999999999
ssg39
(dp63
g5
F14.543749999999996
sg6
F8.9625
sg7
F13.2375
sg8
F17.243750000000002
sg9
F12.075000000000001
sg10
F12.25
sg11
F12.049999999999999
sg12
F8.043750000000001
sg13
F12.9625
sg14
F12.149999999999999
sg15
F10.662499999999998
sg16
F11.425000000000002
sg17
F6.181250000000001
sg18
F15.081249999999999
sg19
F11.262500000000001
sg20
F17.24375
sg21
F10.20625
sg22
F6.606249999999999
sg23
F13.031249999999996
sg24
F12.6625
sg25
F9.443749999999998
sg26
F10.13125
sg27
F8.76875
sg28
F12.049999999999999
sg29
F12.462500000000002
sg30
F10.168749999999998
sg31
F11.0375
sg32
F9.606250000000001
sg33
F8.112499999999999
sg34
F11.949999999999998
sg35
F14.862500000000002
sg36
F8.306249999999999
ssg41
(dp64
g5
F4.30625
sg6
F6.281250000000002
sg7
F5.2625
sg8
F5.625
sg9
F10.393750000000002
sg10
F6.1187499999999995
sg11
F5.625
sg12
F18.03125
sg13
F3.2375000000000003
sg14
F7.9125000000000005
sg15
F11.374999999999998
sg16
F10.506250000000001
sg17
F5.931249999999999
sg18
F6.9437500000000005
sg19
F7.3
sg20
F10.318750000000001
sg21
F6.2250000000000005
sg22
F6.562499999999999
sg23
F9.71875
sg24
F3.137500000000001
sg25
F3.8937500000000003
sg26
F8.30625
sg27
F7.0375
sg28
F7.59375
sg29
F13.66875
sg30
F8.8625
sg31
F6.70625
sg32
F3.5625
sg33
F12.912500000000001
sg34
F11.262500000000003
sg35
F8.3375
sg36
F9.087500000000004
ssg43
(dp65
g5
F4.9750000000000005
sg6
F4.3625
sg7
F3.525
sg8
F3.8500000000000005
sg9
F6.3
sg10
F3.6437500000000007
sg11
F3.2062500000000003
sg12
F5.200000000000001
sg13
F4.1
sg14
F4.41875
sg15
F2.6375
sg16
F6.95625
sg17
F3.5
sg18
F3.8437500000000004
sg19
F3.7375000000000003
sg20
F5.143750000000001
sg21
F3.4312500000000004
sg22
F5.925
sg23
F3.25625
sg24
F3.5812500000000007
sg25
F3.0062499999999996
sg26
F5.275
sg27
F5.31875
sg28
F5.456250000000002
sg29
F5.25
sg30
F4.93125
sg31
F6.874999999999999
sg32
F4.65625
sg33
F5.85625
sg34
F5.0375
sg35
F2.18125
sg36
F5.2250000000000005
sssS'2013'
p66
(dp67
g3
(dp68
g5
F6.25
sg6
F7.1875
sg7
F5.0625
sg8
F6.375
sg9
F6.4375
sg10
F5.625
sg11
F6.9375
sg12
F6.3125
sg13
F7.125
sg14
F6.5
sg15
F6.75
sg16
F7.5
sg17
F6.0
sg18
F6.1875
sg19
F5.25
sg20
F3.875
sg21
F5.5
sg22
F6.6875
sg23
F4.4375
sg24
F7.3125
sg25
F6.625
sg26
F6.9375
sg27
F5.6875
sg28
F6.25
sg29
F6.3125
sg30
F5.3125
sg31
F6.5625
sg32
F6.1875
sg33
F4.9375
sg34
F4.875
sg35
F3.75
sg36
F5.5
ssg37
(dp69
g5
F21.76375
sg6
F13.6475
sg7
F11.942499999999999
sg8
F19.12625
sg9
F16.27375
sg10
F13.118749999999999
sg11
F14.7875
sg12
F14.294999999999998
sg13
F10.8375
sg14
F12.501249999999997
sg15
F14.690000000000003
sg16
F11.398750000000003
sg17
F13.55875
sg18
F17.55
sg19
F14.321250000000001
sg20
F8.66
sg21
F12.84375
sg22
F13.79
sg23
F14.072500000000002
sg24
F15.236250000000002
sg25
F18.355
sg26
F12.952500000000002
sg27
F15.90875
sg28
F13.092500000000001
sg29
F17.512500000000003
sg30
F9.104999999999999
sg31
F13.791250000000002
sg32
F12.94125
sg33
F12.89
sg34
F16.04375
sg35
F11.882499999999999
sg36
F9.71875
ssg39
(dp70
g5
F29.10625000000001
sg6
F20.262499999999996
sg7
F19.181250000000002
sg8
F26.5125
sg9
F23.6875
sg10
F17.71875
sg11
F27.443749999999998
sg12
F22.456249999999994
sg13
F24.337500000000006
sg14
F19.681250000000002
sg15
F26.425
sg16
F14.787499999999998
sg17
F19.593749999999996
sg18
F22.375
sg19
F23.824999999999992
sg20
F15.018749999999997
sg21
F23.25625
sg22
F24.35
sg23
F26.718750000000004
sg24
F19.374999999999996
sg25
F24.200000000000003
sg26
F20.200000000000003
sg27
F21.062500000000004
sg28
F21.462500000000002
sg29
F23.024999999999995
sg30
F25.012499999999992
sg31
F30.537499999999998
sg32
F21.493750000000006
sg33
F25.300000000000004
sg34
F16.2875
sg35
F21.41250000000001
sg36
F24.349999999999998
ssg41
(dp71
g5
F15.98125
sg6
F16.25625
sg7
F11.512500000000003
sg8
F18.556250000000002
sg9
F18.725
sg10
F10.4875
sg11
F11.5875
sg12
F15.243750000000002
sg13
F14.29375
sg14
F15.98125
sg15
F12.425000000000002
sg16
F16.3125
sg17
F13.0
sg18
F21.275000000000002
sg19
F13.74375
sg20
F11.081250000000002
sg21
F17.70625
sg22
F14.887500000000003
sg23
F15.662500000000001
sg24
F18.799999999999997
sg25
F13.356250000000001
sg26
F15.7375
sg27
F17.381250000000005
sg28
F17.218749999999996
sg29
F14.50625
sg30
F15.0
sg31
F12.737499999999999
sg32
F15.606249999999998
sg33
F12.350000000000001
sg34
F8.68125
sg35
F9.66875
sg36
F15.649999999999999
ssg43
(dp72
g5
F10.35625
sg6
F9.975
sg7
F8.66875
sg8
F9.437500000000002
sg9
F8.7125
sg10
F7.137500000000001
sg11
F9.06875
sg12
F10.212499999999999
sg13
F5.675
sg14
F9.425
sg15
F6.9625
sg16
F9.70625
sg17
F7.25
sg18
F11.918750000000003
sg19
F8.093750000000002
sg20
F8.09375
sg21
F9.881249999999998
sg22
F7.281249999999999
sg23
F6.65
sg24
F5.875000000000001
sg25
F8.000000000000002
sg26
F9.600000000000001
sg27
F7.624999999999998
sg28
F6.4312499999999995
sg29
F10.999999999999998
sg30
F7.8500000000000005
sg31
F8.637499999999998
sg32
F8.856250000000001
sg33
F8.45
sg34
F14.643750000000002
sg35
F7.124999999999999
sg36
F9.225000000000001
sssS'2012'
p73
(dp74
g3
(dp75
g5
F5.3125
sg6
F4.875
sg7
F5.75
sg8
F3.5625
sg9
F7.4375
sg10
F5.8125
sg11
F5.1875
sg12
F5.6875
sg13
F8.375
sg14
F5.5625
sg15
F5.1875
sg16
F6.625
sg17
F5.5625
sg18
F5.125
sg19
F4.0
sg20
F3.625
sg21
F3.0625
sg22
F5.1875
sg23
F5.375
sg24
F5.0
sg25
F3.3125
sg26
F4.9375
sg27
F3.375
sg28
F4.875
sg29
F7.25
sg30
F8.25
sg31
F5.875
sg32
F5.625
sg33
F5.9375
sg34
F4.9375
sg35
F3.125
sg36
F5.3125
ssg37
(dp76
g5
F16.848750000000003
sg6
F13.5125
sg7
F12.24625
sg8
F12.031249999999998
sg9
F14.975000000000001
sg10
F11.418750000000003
sg11
F12.005000000000003
sg12
F13.02625
sg13
F9.051250000000001
sg14
F15.046249999999997
sg15
F12.05875
sg16
F15.82625
sg17
F17.295
sg18
F15.056249999999999
sg19
F12.94
sg20
F10.508750000000001
sg21
F9.375
sg22
F16.29625
sg23
F14.015000000000002
sg24
F13.42375
sg25
F16.74125
sg26
F11.733749999999997
sg27
F11.735
sg28
F16.1625
sg29
F14.33
sg30
F14.898750000000003
sg31
F17.871249999999996
sg32
F8.4275
sg33
F11.972500000000002
sg34
F10.242500000000001
sg35
F10.841249999999999
sg36
F11.274999999999999
ssg39
(dp77
g5
F20.44375
sg6
F16.237500000000004
sg7
F16.549999999999997
sg8
F12.91875
sg9
F22.49375
sg10
F15.13125
sg11
F11.381249999999998
sg12
F14.50625
sg13
F19.475
sg14
F22.625000000000004
sg15
F21.8125
sg16
F16.843750000000004
sg17
F27.46250000000001
sg18
F22.925000000000008
sg19
F19.85
sg20
F12.162500000000001
sg21
F15.450000000000001
sg22
F16.443750000000005
sg23
F16.825
sg24
F25.26875
sg25
F25.087499999999995
sg26
F17.756250000000005
sg27
F16.83125
sg28
F27.6875
sg29
F16.687500000000004
sg30
F22.06875
sg31
F20.606250000000003
sg32
F16.049999999999997
sg33
F21.331249999999997
sg34
F18.543750000000003
sg35
F16.26875
sg36
F20.787499999999998
ssg41
(dp78
g5
F8.2375
sg6
F12.687500000000002
sg7
F12.825000000000003
sg8
F13.643749999999997
sg9
F14.087500000000002
sg10
F9.68125
sg11
F14.6875
sg12
F11.806250000000002
sg13
F11.762500000000003
sg14
F12.5125
sg15
F12.9125
sg16
F12.9375
sg17
F19.65625
sg18
F12.437500000000004
sg19
F9.943750000000003
sg20
F10.775
sg21
F9.824999999999998
sg22
F17.45625
sg23
F11.4125
sg24
F8.88125
sg25
F12.975000000000003
sg26
F8.8125
sg27
F12.481250000000001
sg28
F10.06875
sg29
F14.906249999999998
sg30
F10.293749999999998
sg31
F7.437500000000001
sg32
F8.6375
sg33
F12.16875
sg34
F11.6
sg35
F6.243750000000001
sg36
F12.018749999999999
ssg43
(dp79
g5
F7.18125
sg6
F6.550000000000001
sg7
F7.112500000000002
sg8
F7.075
sg9
F7.681250000000002
sg10
F6.73125
sg11
F6.731249999999999
sg12
F9.80625
sg13
F5.862500000000001
sg14
F7.33125
sg15
F7.3374999999999995
sg16
F7.48125
sg17
F5.59375
sg18
F8.068749999999998
sg19
F7.925000000000001
sg20
F7.1875
sg21
F6.325
sg22
F7.525
sg23
F7.68125
sg24
F6.987500000000002
sg25
F8.450000000000003
sg26
F7.393750000000001
sg27
F6.53125
sg28
F10.40625
sg29
F8.118750000000002
sg30
F6.575
sg31
F6.8999999999999995
sg32
F8.34375
sg33
F7.324999999999999
sg34
F5.468750000000001
sg35
F5.1937500000000005
sg36
F4.93125
sss.