(dp0
I2010
(dp1
S'K'
p2
(dp3
S'MIN'
p4
F0.0
sS'MIA'
p5
F0.0
sS'CAR'
p6
F0.0
sS'ATL'
p7
F0.0
sS'OAK'
p8
F0.0
sS'CIN'
p9
F0.0
sS'NYJ'
p10
F0.0
sS'DEN'
p11
F0.0
sS'BAL'
p12
F0.0
sS'NYG'
p13
F0.0
sS'DET'
p14
F0.0
sS'TEN'
p15
F0.0
sS'NO'
p16
F0.0
sS'DAL'
p17
F0.0
sS'NE'
p18
F0.0
sS'SEA'
p19
F0.0
sS'CHI'
p20
F0.0
sS'BUF'
p21
F0.0
sS'STL'
p22
F0.0
sS'CLE'
p23
F0.0
sS'TB'
p24
F0.0
sS'HOU'
p25
F0.0
sS'GB'
p26
F0.0
sS'WAS'
p27
F0.0
sS'JAC'
p28
F0.0
sS'KC'
p29
F0.0
sS'PHI'
p30
F0.0
sS'PIT'
p31
F0.0
sS'IND'
p32
F0.0
sS'ARI'
p33
F0.0
sS'SF'
p34
F0.0
sS'SD'
p35
F0.0
ssS'QB'
p36
(dp37
g4
F0.0
sg5
F0.0
sg6
F0.0
sg7
F0.0
sg8
F0.0
sg9
F0.0
sg10
F0.0
sg11
F0.0
sg12
F0.0
sg13
F0.0
sg14
F0.0
sg15
F0.0
sg16
F0.0
sg17
F0.0
sg18
F0.0
sg19
F0.0
sg20
F0.0
sg21
F0.0
sg22
F0.0
sg23
F0.0
sg24
F0.0
sg25
F0.0
sg26
F0.0
sg27
F0.0
sg28
F0.0
sg29
F0.0
sg30
F0.0
sg31
F0.0
sg32
F0.0
sg33
F0.0
sg34
F0.0
sg35
F0.0
ssS'WR'
p38
(dp39
g4
F0.0
sg5
F0.0
sg6
F0.0
sg7
F0.0
sg8
F0.0
sg9
F0.0
sg10
F0.0
sg11
F0.0
sg12
F0.0
sg13
F0.0
sg14
F0.0
sg15
F0.0
sg16
F0.0
sg17
F0.0
sg18
F0.0
sg19
F0.0
sg20
F0.0
sg21
F0.0
sg22
F0.0
sg23
F0.0
sg24
F0.0
sg25
F0.0
sg26
F0.0
sg27
F0.0
sg28
F0.0
sg29
F0.0
sg30
F0.0
sg31
F0.0
sg32
F0.0
sg33
F0.0
sg34
F0.0
sg35
F0.0
ssS'RB'
p40
(dp41
g4
F0.0
sg5
F0.0
sg6
F0.0
sg7
F0.0
sg8
F0.0
sg9
F0.0
sg10
F0.0
sg11
F0.0
sg12
F0.0
sg13
F0.0
sg14
F0.0
sg15
F0.0
sg16
F0.0
sg17
F0.0
sg18
F0.0
sg19
F0.0
sg20
F0.0
sg21
F0.0
sg22
F0.0
sg23
F0.0
sg24
F0.0
sg25
F0.0
sg26
F0.0
sg27
F0.0
sg28
F0.0
sg29
F0.0
sg30
F0.0
sg31
F0.0
sg32
F0.0
sg33
F0.0
sg34
F0.0
sg35
F0.0
ssS'TE'
p42
(dp43
g4
F0.0
sg5
F0.0
sg6
F0.0
sg7
F0.0
sg8
F0.0
sg9
F0.0
sg10
F0.0
sg11
F0.0
sg12
F0.0
sg13
F0.0
sg14
F0.0
sg15
F0.0
sg16
F0.0
sg17
F0.0
sg18
F0.0
sg19
F0.0
sg20
F0.0
sg21
F0.0
sg22
F0.0
sg23
F0.0
sg24
F0.0
sg25
F0.0
sg26
F0.0
sg27
F0.0
sg28
F0.0
sg29
F0.0
sg30
F0.0
sg31
F0.0
sg32
F0.0
sg33
F0.0
sg34
F0.0
sg35
F0.0
sssI2011
(dp44
g2
(dp45
g4
F0.0
sg5
F1.375
sg6
F0.0
sg7
F0.0
sg8
F0.8125
sg9
F0.0
sg10
F0.5625
sg11
F1.5
sg12
F0.625
sg13
F0.75
sg14
F1.0
sg15
F0.0
sg16
F0.0
sg17
F0.0
sg18
F0.8125
sg19
F0.6875
sg20
F0.5
sg21
F1.3125
sg22
F0.625
sg23
F0.0
sg24
F0.4375
sg25
F0.0
sg26
F0.5
sg27
F1.6875
sg28
F0.5
sg29
F1.25
sg30
F0.125
sg31
F0.0
sg32
F0.0
sg33
F0.4375
sg34
F0.5625
sg35
F0.0
ssg36
(dp46
g4
F2.2687500000000003
sg5
F0.0
sg6
F0.485
sg7
F2.31
sg8
F0.0
sg9
F0.62125
sg10
F0.13625
sg11
F1.3487500000000001
sg12
F1.9200000000000002
sg13
F0.0
sg14
F1.4312500000000001
sg15
F2.4612499999999997
sg16
F2.90125
sg17
F0.0
sg18
F0.0
sg19
F0.59375
sg20
F2.02875
sg21
F1.195
sg22
F0.31
sg23
F1.99625
sg24
F5.03
sg25
F2.3775
sg26
F2.50375
sg27
F1.63375
sg28
F1.63625
sg29
F0.0
sg30
F0.0
sg31
F1.9224999999999999
sg32
F2.9362500000000002
sg33
F3.1025
sg34
F0.17375000000000002
sg35
F1.0262499999999999
ssg38
(dp47
g4
F0.6
sg5
F3.3687500000000004
sg6
F1.5875
sg7
F0.90625
sg8
F3.1500000000000004
sg9
F3.64375
sg10
F0.1625
sg11
F2.925
sg12
F2.6812500000000004
sg13
F2.0625
sg14
F0.7875000000000001
sg15
F1.28125
sg16
F2.575
sg17
F0.55625
sg18
F3.5125
sg19
F2.7875
sg20
F2.73125
sg21
F2.175
sg22
F5.831250000000001
sg23
F2.1875
sg24
F2.35625
sg25
F2.34375
sg26
F3.8125
sg27
F0.51875
sg28
F4.60625
sg29
F1.4500000000000002
sg30
F0.7312500000000001
sg31
F3.7375
sg32
F4.0875
sg33
F4.1375
sg34
F2.96875
sg35
F1.7875
ssg40
(dp48
g4
F0.34375
sg5
F1.75625
sg6
F1.73125
sg7
F0.1125
sg8
F1.4875000000000003
sg9
F0.96875
sg10
F2.1812499999999995
sg11
F0.9500000000000001
sg12
F0.2
sg13
F2.8125000000000004
sg14
F1.26875
sg15
F0.04375
sg16
F0.5375
sg17
F0.88125
sg18
F1.19375
sg19
F3.9625000000000004
sg20
F0.4937500000000001
sg21
F3.3499999999999996
sg22
F3.1812500000000004
sg23
F1.4625000000000001
sg24
F1.9937500000000001
sg25
F1.3562500000000002
sg26
F0.3625
sg27
F2.6937499999999996
sg28
F0.54375
sg29
F1.0875000000000001
sg30
F2.675
sg31
F0.36875
sg32
F1.3812499999999999
sg33
F1.8000000000000003
sg34
F1.4125
sg35
F0.4
ssg42
(dp49
g4
F0.3875
sg5
F0.1625
sg6
F0.55625
sg7
F0.33125000000000004
sg8
F0.5125
sg9
F0.375
sg10
F0.59375
sg11
F0.7375
sg12
F0.26875
sg13
F0.98125
sg14
F0.5125
sg15
F0.23750000000000002
sg16
F0.2
sg17
F0.28750000000000003
sg18
F0.53125
sg19
F0.49375
sg20
F0.525
sg21
F1.2374999999999998
sg22
F0.0
sg23
F0.0
sg24
F0.125
sg25
F0.07500000000000001
sg26
F1.0125
sg27
F1.0562500000000001
sg28
F0.0
sg29
F0.775
sg30
F0.14375
sg31
F0.50625
sg32
F0.11875
sg33
F0.68125
sg34
F0.5125000000000001
sg35
F0.30625
sssI2012
(dp50
g2
(dp51
g4
F0.625
sg5
F0.375
sg6
F1.3125
sg7
F0.4375
sg8
F1.1875
sg9
F2.125
sg10
F0.625
sg11
F0.875
sg12
F1.8125
sg13
F2.6875
sg14
F2.0625
sg15
F0.75
sg16
F0.8125
sg17
F1.1875
sg18
F0.5
sg19
F1.8125
sg20
F1.0625
sg21
F0.0625
sg22
F1.125
sg23
F2.1875
sg24
F1.5625
sg25
F1.125
sg26
F1.4375
sg27
F2.625
sg28
F0.875
sg29
F1.8125
sg30
F2.6875
sg31
F2.5
sg32
F0.5
sg33
F0.9375
sg34
F1.125
sg35
F0.625
ssg36
(dp52
g4
F5.7975
sg5
F4.796250000000001
sg6
F1.79375
sg7
F4.81625
sg8
F5.31625
sg9
F6.698750000000001
sg10
F2.47375
sg11
F2.15375
sg12
F3.1325000000000003
sg13
F5.9
sg14
F3.655
sg15
F1.7374999999999998
sg16
F5.08625
sg17
F7.585
sg18
F5.1475
sg19
F2.37625
sg20
F4.1775
sg21
F5.9125
sg22
F6.71375
sg23
F5.1975
sg24
F5.31625
sg25
F2.36375
sg26
F3.85625
sg27
F4.755
sg28
F5.2475000000000005
sg29
F4.87125
sg30
F6.016249999999999
sg31
F2.1387500000000004
sg32
F3.3762499999999998
sg33
F3.25125
sg34
F2.5075000000000003
sg35
F2.4025
ssg38
(dp53
g4
F5.012500000000002
sg5
F8.243750000000002
sg6
F4.0687500000000005
sg7
F1.81875
sg8
F7.475
sg9
F4.825
sg10
F2.14375
sg11
F5.03125
sg12
F5.6187499999999995
sg13
F9.2875
sg14
F7.575
sg15
F5.218749999999999
sg16
F6.0562499999999995
sg17
F6.787500000000001
sg18
F10.81875
sg19
F2.0187500000000003
sg20
F4.125
sg21
F7.175
sg22
F5.725
sg23
F10.237499999999999
sg24
F3.7312499999999997
sg25
F9.2625
sg26
F5.425
sg27
F9.15
sg28
F6.825
sg29
F7.337500000000001
sg30
F7.75625
sg31
F6.7375000000000025
sg32
F9.175000000000002
sg33
F5.5875
sg34
F6.393749999999999
sg35
F7.09375
ssg40
(dp54
g4
F4.16875
sg5
F5.05
sg6
F7.062499999999999
sg7
F5.531249999999999
sg8
F7.593750000000001
sg9
F6.331250000000001
sg10
F6.99375
sg11
F3.7625
sg12
F5.581250000000001
sg13
F6.5375
sg14
F2.3000000000000003
sg15
F4.643750000000001
sg16
F6.36875
sg17
F9.212500000000002
sg18
F3.38125
sg19
F2.93125
sg20
F1.7750000000000001
sg21
F7.725
sg22
F5.7562500000000005
sg23
F3.66875
sg24
F5.550000000000001
sg25
F3.3375000000000004
sg26
F1.24375
sg27
F4.78125
sg28
F2.6250000000000004
sg29
F2.93125
sg30
F5.6125
sg31
F3.3
sg32
F2.0999999999999996
sg33
F3.9437500000000005
sg34
F1.4875000000000003
sg35
F5.1187499999999995
ssg42
(dp55
g4
F1.9312500000000001
sg5
F1.53125
sg6
F0.16875
sg7
F0.46875
sg8
F0.48750000000000004
sg9
F0.6625000000000001
sg10
F1.0875000000000001
sg11
F0.48750000000000004
sg12
F0.275
sg13
F1.15625
sg14
F2.35625
sg15
F2.2062500000000003
sg16
F0.925
sg17
F1.1375
sg18
F1.48125
sg19
F2.68125
sg20
F1.88125
sg21
F1.3249999999999997
sg22
F2.3499999999999996
sg23
F0.3625
sg24
F1.775
sg25
F2.20625
sg26
F2.8875
sg27
F2.0375
sg28
F1.51875
sg29
F0.525
sg30
F0.36875
sg31
F1.71875
sg32
F1.75625
sg33
F1.0875
sg34
F2.19375
sg35
F0.20625000000000002
sssI2013
(dp56
g2
(dp57
g4
F1.3125
sg5
F1.5
sg6
F1.3125
sg7
F1.4375
sg8
F2.3125
sg9
F1.9375
sg10
F1.5625
sg11
F2.875
sg12
F1.75
sg13
F2.6875
sg14
F2.375
sg15
F0.875
sg16
F1.1875
sg17
F2.4375
sg18
F1.1875
sg19
F1.75
sg20
F3.375
sg21
F0.6875
sg22
F0.875
sg23
F1.625
sg24
F1.125
sg25
F1.5
sg26
F2.75
sg27
F1.8125
sg28
F1.875
sg29
F2.75
sg30
F2.8125
sg31
F2.875
sg32
F2.25
sg33
F1.4375
sg34
F1.1875
sg35
F1.5
ssg36
(dp58
g4
F10.8925
sg5
F4.9350000000000005
sg6
F5.10375
sg7
F12.068750000000001
sg8
F7.401249999999999
sg9
F3.4875000000000003
sg10
F8.221250000000001
sg11
F2.3737500000000002
sg12
F5.0175
sg13
F5.859999999999999
sg14
F6.063750000000001
sg15
F5.43625
sg16
F6.602500000000001
sg17
F5.682499999999999
sg18
F8.08375
sg19
F3.9224999999999994
sg20
F3.79375
sg21
F6.62625
sg22
F7.14625
sg23
F4.022500000000001
sg24
F10.022499999999997
sg25
F4.94125
sg26
F7.565
sg27
F3.8425000000000002
sg28
F8.8525
sg29
F3.3825
sg30
F4.70125
sg31
F5.143750000000001
sg32
F6.5775
sg33
F8.473749999999999
sg34
F3.7962499999999997
sg35
F3.21125
ssg38
(dp59
g4
F14.15625
sg5
F10.837500000000002
sg6
F7.31875
sg7
F13.69375
sg8
F9.250000000000002
sg9
F9.481250000000003
sg10
F15.450000000000001
sg11
F12.693750000000003
sg12
F12.3875
sg13
F5.7749999999999995
sg14
F12.3875
sg15
F6.70625
sg16
F9.756249999999998
sg17
F8.250000000000002
sg18
F10.837499999999999
sg19
F8.837500000000002
sg20
F12.13125
sg21
F11.093750000000002
sg22
F10.274999999999999
sg23
F9.000000000000002
sg24
F9.481250000000001
sg25
F10.6875
sg26
F7.3999999999999995
sg27
F7.1625
sg28
F14.48125
sg29
F10.837500000000002
sg30
F14.262500000000001
sg31
F14.0875
sg32
F12.825
sg33
F6.05
sg34
F10.175000000000002
sg35
F9.250000000000002
ssg40
(dp60
g4
F7.018749999999999
sg5
F7.943750000000001
sg6
F6.887499999999999
sg7
F10.237500000000004
sg8
F8.068750000000001
sg9
F5.5874999999999995
sg10
F6.23125
sg11
F5.768750000000001
sg12
F7.762499999999999
sg13
F5.899999999999999
sg14
F6.518750000000001
sg15
F7.6
sg16
F7.975
sg17
F7.606250000000001
sg18
F8.381249999999998
sg19
F5.218750000000001
sg20
F9.5625
sg21
F9.975
sg22
F6.675
sg23
F9.793750000000001
sg24
F6.4499999999999975
sg25
F6.924999999999999
sg26
F6.00625
sg27
F4.41875
sg28
F4.8062499999999995
sg29
F2.45
sg30
F6.450000000000001
sg31
F8.112499999999999
sg32
F5.18125
sg33
F3.9749999999999996
sg34
F5.7625
sg35
F5.981250000000001
ssg42
(dp61
g4
F4.08125
sg5
F4.268750000000001
sg6
F2.8812500000000005
sg7
F2.0
sg8
F3.58125
sg9
F3.4125
sg10
F2.58125
sg11
F4.018750000000001
sg12
F3.9249999999999994
sg13
F3.2125000000000004
sg14
F3.0375
sg15
F3.89375
sg16
F3.7312500000000006
sg17
F4.5625
sg18
F2.7124999999999995
sg19
F2.4187499999999997
sg20
F3.6312500000000005
sg21
F2.08125
sg22
F1.9124999999999996
sg23
F1.50625
sg24
F1.2750000000000001
sg25
F4.23125
sg26
F2.9375
sg27
F1.8000000000000003
sg28
F5.793750000000001
sg29
F4.825
sg30
F3.8812500000000005
sg31
F4.49375
sg32
F4.3
sg33
F3.9562500000000007
sg34
F3.9937500000000004
sg35
F4.46875
sssI2014
(dp62
g2
(dp63
g4
F1.625
sg5
F1.5
sg6
F1.9375
sg7
F2.1875
sg8
F4.75
sg9
F1.75
sg10
F2.625
sg11
F2.75
sg12
F2.5625
sg13
F4.3125
sg14
F1.375
sg15
F4.625
sg16
F2.625
sg17
F3.3125
sg18
F2.4375
sg19
F3.75
sg20
F2.5625
sg21
F2.875
sg22
F4.625
sg23
F2.1875
sg24
F2.0625
sg25
F1.0
sg26
F1.75
sg27
F4.4375
sg28
F4.5
sg29
F2.0
sg30
F2.75
sg31
F3.1875
sg32
F3.0625
sg33
F2.9375
sg34
F3.6470588235294117
sg35
F4.3125
ssg36
(dp64
g4
F5.607500000000001
sg5
F5.3
sg6
F4.71625
sg7
F6.5874999999999995
sg8
F3.6975000000000002
sg9
F5.16625
sg10
F3.37875
sg11
F9.303749999999999
sg12
F8.0575
sg13
F7.485
sg14
F4.199999999999999
sg15
F6.015
sg16
F7.146250000000001
sg17
F4.8725
sg18
F6.202500000000001
sg19
F4.0249999999999995
sg20
F7.31625
sg21
F4.166250000000001
sg22
F7.585
sg23
F6.289999999999999
sg24
F2.9475
sg25
F9.084999999999999
sg26
F5.663749999999999
sg27
F9.4175
sg28
F8.03125
sg29
F5.516249999999999
sg30
F10.315
sg31
F7.486249999999999
sg32
F3.095
sg33
F9.815000000000001
sg34
F4.376470588235294
sg35
F8.2425
ssg38
(dp65
g4
F12.349999999999998
sg5
F12.65625
sg6
F15.775
sg7
F19.2375
sg8
F11.2875
sg9
F13.712500000000002
sg10
F14.53125
sg11
F11.51875
sg12
F18.7875
sg13
F11.44375
sg14
F16.206249999999997
sg15
F15.475
sg16
F16.093750000000004
sg17
F13.124999999999998
sg18
F11.69375
sg19
F7.625000000000001
sg20
F12.775
sg21
F9.356250000000001
sg22
F15.800000000000006
sg23
F18.7
sg24
F17.249999999999996
sg25
F17.349999999999998
sg26
F14.987499999999997
sg27
F18.593750000000004
sg28
F12.637499999999998
sg29
F10.787500000000001
sg30
F19.025000000000002
sg31
F19.7625
sg32
F13.200000000000001
sg33
F9.018749999999999
sg34
F14.205882352941178
sg35
F14.981250000000003
ssg40
(dp66
g4
F13.549999999999999
sg5
F10.875
sg6
F11.900000000000002
sg7
F18.162500000000005
sg8
F15.78125
sg9
F18.287499999999994
sg10
F11.325
sg11
F12.512500000000003
sg12
F10.70625
sg13
F11.700000000000001
sg14
F7.30625
sg15
F12.643749999999999
sg16
F16.018749999999997
sg17
F10.924999999999999
sg18
F8.537499999999998
sg19
F9.825000000000001
sg20
F11.85
sg21
F9.68125
sg22
F9.76875
sg23
F14.987499999999999
sg24
F12.2625
sg25
F10.687499999999996
sg26
F9.337500000000002
sg27
F10.481250000000003
sg28
F13.193750000000003
sg29
F11.606250000000001
sg30
F12.075
sg31
F10.14375
sg32
F11.6375
sg33
F7.437499999999999
sg34
F10.888235294117644
sg35
F9.137500000000001
ssg42
(dp67
g4
F4.34375
sg5
F2.9624999999999995
sg6
F3.3312500000000003
sg7
F1.1375
sg8
F6.4375
sg9
F3.48125
sg10
F5.7250000000000005
sg11
F5.2
sg12
F4.2
sg13
F6.3687499999999995
sg14
F5.3062499999999995
sg15
F6.24375
sg16
F1.8062500000000001
sg17
F4.731250000000001
sg18
F6.4312499999999995
sg19
F4.9437500000000005
sg20
F6.800000000000001
sg21
F2.7875
sg22
F4.406250000000001
sg23
F2.5312500000000004
sg24
F1.9062500000000002
sg25
F3.1312499999999996
sg26
F3.0312500000000004
sg27
F6.25625
sg28
F5.8875
sg29
F3.2062500000000003
sg30
F2.18125
sg31
F4.21875
sg32
F5.606249999999999
sg33
F8.7625
sg34
F4.46470588235294
sg35
F3.73125
sssI2015
(dp68
g2
(dp69
g4
F2.5
sg5
F3.0625
sg6
F2.125
sg7
F3.0
sg8
F5.5625
sg9
F5.8125
sg10
F3.0625
sg11
F4.0
sg12
F4.875
sg13
F5.75
sg14
F4.25
sg15
F3.875
sg16
F3.176470588235294
sg17
F3.125
sg18
F2.8823529411764706
sg19
F4.0
sg20
F3.4375
sg21
F3.176470588235294
sg22
F3.375
sg23
F5.0
sg24
F2.875
sg25
F2.25
sg26
F2.5625
sg27
F2.1875
sg28
F2.75
sg29
F2.7058823529411766
sg30
F3.5625
sg31
F4.3125
sg32
F3.875
sg33
F3.375
sg34
F3.0
sg35
F5.3125
ssg36
(dp70
g4
F4.73
sg5
F4.8125
sg6
F6.4975
sg7
F9.15625
sg8
F6.51875
sg9
F6.842499999999999
sg10
F9.67375
sg11
F5.20125
sg12
F13.1925
sg13
F9.85625
sg14
F4.94125
sg15
F12.051249999999998
sg16
F13.187058823529414
sg17
F6.428749999999999
sg18
F9.17529411764706
sg19
F6.6525
sg20
F10.15
sg21
F7.409411764705883
sg22
F8.3475
sg23
F8.151250000000001
sg24
F9.982500000000002
sg25
F8.99625
sg26
F6.81875
sg27
F7.678749999999999
sg28
F7.5875
sg29
F6.881176470588237
sg30
F8.60875
sg31
F11.61875
sg32
F9.2725
sg33
F9.5475
sg34
F5.7875
sg35
F8.442500000000003
ssg38
(dp71
g4
F16.775000000000002
sg5
F18.231250000000003
sg6
F20.5125
sg7
F18.0375
sg8
F10.54375
sg9
F13.956250000000002
sg10
F22.5125
sg11
F14.931249999999999
sg12
F23.000000000000004
sg13
F18.34375
sg14
F20.075
sg15
F22.993750000000006
sg16
F22.058823529411764
sg17
F18.537500000000005
sg18
F19.311764705882357
sg19
F14.2625
sg20
F12.05625
sg21
F18.400000000000006
sg22
F19.83125
sg23
F21.081250000000004
sg24
F23.91875
sg25
F17.86875
sg26
F15.925000000000004
sg27
F22.818749999999998
sg28
F21.90625000000001
sg29
F17.835294117647056
sg30
F22.900000000000006
sg31
F23.61250000000001
sg32
F21.425000000000004
sg33
F17.412499999999998
sg34
F17.843749999999996
sg35
F15.343749999999996
ssg40
(dp72
g4
F12.968750000000002
sg5
F12.068749999999998
sg6
F12.575000000000003
sg7
F12.825
sg8
F10.69375
sg9
F12.63125
sg10
F9.868749999999999
sg11
F10.174999999999999
sg12
F14.106249999999994
sg13
F16.006249999999998
sg14
F11.037499999999994
sg15
F12.999999999999996
sg16
F15.664705882352942
sg17
F16.581250000000004
sg18
F9.952941176470588
sg19
F8.831249999999999
sg20
F15.406249999999998
sg21
F13.28235294117647
sg22
F15.687500000000002
sg23
F13.7375
sg24
F13.781250000000004
sg25
F12.54375
sg26
F10.08125
sg27
F11.118749999999999
sg28
F14.118750000000002
sg29
F11.652941176470586
sg30
F16.21875
sg31
F12.481250000000001
sg32
F14.206250000000004
sg33
F13.631250000000001
sg34
F16.725
sg35
F19.6625
ssg42
(dp73
g4
F7.7437499999999995
sg5
F4.9125
sg6
F4.9625
sg7
F6.856249999999999
sg8
F6.5625
sg9
F5.68125
sg10
F3.40625
sg11
F5.75
sg12
F3.50625
sg13
F7.2625
sg14
F9.137500000000001
sg15
F7.58125
sg16
F5.870588235294117
sg17
F4.3625
sg18
F4.111764705882353
sg19
F5.300000000000001
sg20
F6.83125
sg21
F6.129411764705882
sg22
F6.6000000000000005
sg23
F6.318750000000002
sg24
F3.4562500000000007
sg25
F4.768750000000001
sg26
F5.3500000000000005
sg27
F3.931250000000001
sg28
F5.5
sg29
F4.717647058823529
sg30
F5.5875
sg31
F4.487500000000001
sg32
F3.2125000000000004
sg33
F6.4875
sg34
F5.2749999999999995
sg35
F6.9125
sss.