(dp0
I2010
(dp1
S'K'
p2
(dp3
S'MIN'
p4
F0.0
sS'MIA'
p5
F0.0
sS'CAR'
p6
F0.0
sS'ATL'
p7
F0.0
sS'OAK'
p8
F0.0
sS'CIN'
p9
F0.0
sS'NYJ'
p10
F0.0
sS'DEN'
p11
F0.0
sS'BAL'
p12
F0.0
sS'NYG'
p13
F0.0
sS'DET'
p14
F0.0
sS'TEN'
p15
F0.0
sS'NO'
p16
F0.0
sS'DAL'
p17
F0.0
sS'NE'
p18
F0.0
sS'SEA'
p19
F0.0
sS'CHI'
p20
F0.0
sS'BUF'
p21
F0.0
sS'STL'
p22
F0.0
sS'CLE'
p23
F0.0
sS'TB'
p24
F0.0
sS'HOU'
p25
F0.0
sS'GB'
p26
F0.0
sS'WAS'
p27
F0.0
sS'JAC'
p28
F0.0
sS'KC'
p29
F0.0
sS'PHI'
p30
F0.0
sS'PIT'
p31
F0.0
sS'IND'
p32
F0.0
sS'ARI'
p33
F0.0
sS'SF'
p34
F0.0
sS'SD'
p35
F0.0
ssS'QB'
p36
(dp37
g4
F0.0
sg5
F0.0
sg6
F0.0
sg7
F0.0
sg8
F0.0
sg9
F0.0
sg10
F0.0
sg11
F0.0
sg12
F0.0
sg13
F0.0
sg14
F0.0
sg15
F0.0
sg16
F0.0
sg17
F0.0
sg18
F0.0
sg19
F0.0
sg20
F0.0
sg21
F0.0
sg22
F0.0
sg23
F0.0
sg24
F0.0
sg25
F0.0
sg26
F0.0
sg27
F0.0
sg28
F0.0
sg29
F0.0
sg30
F0.0
sg31
F0.0
sg32
F0.0
sg33
F0.0
sg34
F0.0
sg35
F0.0
ssS'WR'
p38
(dp39
g4
F0.0
sg5
F0.0
sg6
F0.0
sg7
F0.0
sg8
F0.0
sg9
F0.0
sg10
F0.0
sg11
F0.0
sg12
F0.0
sg13
F0.0
sg14
F0.0
sg15
F0.0
sg16
F0.0
sg17
F0.0
sg18
F0.0
sg19
F0.0
sg20
F0.0
sg21
F0.0
sg22
F0.0
sg23
F0.0
sg24
F0.0
sg25
F0.0
sg26
F0.0
sg27
F0.0
sg28
F0.0
sg29
F0.0
sg30
F0.0
sg31
F0.0
sg32
F0.0
sg33
F0.0
sg34
F0.0
sg35
F0.0
ssS'RB'
p40
(dp41
g4
F0.0
sg5
F0.0
sg6
F0.0
sg7
F0.0
sg8
F0.0
sg9
F0.0
sg10
F0.0
sg11
F0.0
sg12
F0.0
sg13
F0.0
sg14
F0.0
sg15
F0.0
sg16
F0.0
sg17
F0.0
sg18
F0.0
sg19
F0.0
sg20
F0.0
sg21
F0.0
sg22
F0.0
sg23
F0.0
sg24
F0.0
sg25
F0.0
sg26
F0.0
sg27
F0.0
sg28
F0.0
sg29
F0.0
sg30
F0.0
sg31
F0.0
sg32
F0.0
sg33
F0.0
sg34
F0.0
sg35
F0.0
ssS'TE'
p42
(dp43
g4
F0.0
sg5
F0.0
sg6
F0.0
sg7
F0.0
sg8
F0.0
sg9
F0.0
sg10
F0.0
sg11
F0.0
sg12
F0.0
sg13
F0.0
sg14
F0.0
sg15
F0.0
sg16
F0.0
sg17
F0.0
sg18
F0.0
sg19
F0.0
sg20
F0.0
sg21
F0.0
sg22
F0.0
sg23
F0.0
sg24
F0.0
sg25
F0.0
sg26
F0.0
sg27
F0.0
sg28
F0.0
sg29
F0.0
sg30
F0.0
sg31
F0.0
sg32
F0.0
sg33
F0.0
sg34
F0.0
sg35
F0.0
sssI2011
(dp44
g2
(dp45
g4
F0.0
sg5
F1.375
sg6
F0.0
sg7
F0.0
sg8
F0.8125
sg9
F0.0
sg10
F0.5625
sg11
F1.5
sg12
F0.625
sg13
F0.75
sg14
F1.0
sg15
F0.0
sg16
F0.0
sg17
F0.0
sg18
F0.8125
sg19
F0.6875
sg20
F0.5
sg21
F1.3125
sg22
F0.625
sg23
F0.0
sg24
F0.4375
sg25
F0.0
sg26
F0.5
sg27
F1.6875
sg28
F0.5
sg29
F1.25
sg30
F0.125
sg31
F0.0
sg32
F0.0
sg33
F0.4375
sg34
F0.5625
sg35
F0.0
ssg36
(dp46
g4
F2.2687500000000003
sg5
F0.0
sg6
F0.485
sg7
F2.31
sg8
F0.0
sg9
F0.62125
sg10
F0.13625
sg11
F1.3487500000000001
sg12
F1.9200000000000002
sg13
F0.0
sg14
F1.4312500000000001
sg15
F2.4612499999999997
sg16
F2.90125
sg17
F0.0
sg18
F0.0
sg19
F0.59375
sg20
F2.02875
sg21
F1.195
sg22
F0.31
sg23
F1.99625
sg24
F5.03
sg25
F2.3775
sg26
F2.50375
sg27
F1.63375
sg28
F1.63625
sg29
F0.0
sg30
F0.0
sg31
F1.9224999999999999
sg32
F2.9362500000000002
sg33
F3.1025
sg34
F0.17375000000000002
sg35
F1.0262499999999999
ssg38
(dp47
g4
F0.85
sg5
F4.05625
sg6
F1.74375
sg7
F1.125
sg8
F3.6500000000000004
sg9
F4.33125
sg10
F0.225
sg11
F3.55
sg12
F3.3374999999999995
sg13
F2.59375
sg14
F0.9750000000000001
sg15
F1.6875
sg16
F3.10625
sg17
F0.7125
sg18
F4.075
sg19
F3.50625
sg20
F3.2625
sg21
F2.675
sg22
F6.7375
sg23
F2.46875
sg24
F2.7
sg25
F2.84375
sg26
F4.4375
sg27
F0.70625
sg28
F5.3875
sg29
F1.8250000000000002
sg30
F0.9187500000000001
sg31
F4.39375
sg32
F4.65
sg33
F4.8875
sg34
F3.625
sg35
F2.13125
ssg40
(dp48
g4
F0.4375
sg5
F1.975
sg6
F1.98125
sg7
F0.14375000000000002
sg8
F1.5187500000000003
sg9
F1.15625
sg10
F2.4625
sg11
F1.0437500000000002
sg12
F0.23125
sg13
F3.1250000000000004
sg14
F1.425
sg15
F0.04375
sg16
F0.6625
sg17
F1.0374999999999999
sg18
F1.2875
sg19
F4.4625
sg20
F0.5875000000000001
sg21
F3.6624999999999996
sg22
F3.4000000000000004
sg23
F1.5875000000000001
sg24
F2.1812500000000004
sg25
F1.4812500000000002
sg26
F0.39375
sg27
F2.9124999999999996
sg28
F0.6375
sg29
F1.1187500000000001
sg30
F3.01875
sg31
F0.4625
sg32
F1.4749999999999999
sg33
F2.0812500000000003
sg34
F1.88125
sg35
F0.43125
ssg42
(dp49
g4
F0.5125
sg5
F0.225
sg6
F0.775
sg7
F0.42500000000000004
sg8
F0.60625
sg9
F0.53125
sg10
F0.6875
sg11
F0.8
sg12
F0.39375
sg13
F1.10625
sg14
F0.73125
sg15
F0.3625
sg16
F0.29375
sg17
F0.41250000000000003
sg18
F0.625
sg19
F0.6499999999999999
sg20
F0.74375
sg21
F1.4249999999999998
sg22
F0.0
sg23
F0.0
sg24
F0.15625
sg25
F0.10625000000000001
sg26
F1.2937500000000002
sg27
F1.3062500000000001
sg28
F0.0
sg29
F0.9625
sg30
F0.175
sg31
F0.6625000000000001
sg32
F0.18125
sg33
F1.025
sg34
F0.6375000000000001
sg35
F0.4
sssI2012
(dp50
g2
(dp51
g4
F0.625
sg5
F0.375
sg6
F1.3125
sg7
F0.4375
sg8
F1.1875
sg9
F2.125
sg10
F0.625
sg11
F0.875
sg12
F1.8125
sg13
F2.6875
sg14
F2.0625
sg15
F0.75
sg16
F0.8125
sg17
F1.1875
sg18
F0.5
sg19
F1.8125
sg20
F1.0625
sg21
F0.0625
sg22
F1.125
sg23
F2.1875
sg24
F1.5625
sg25
F1.125
sg26
F1.4375
sg27
F2.625
sg28
F0.875
sg29
F1.8125
sg30
F2.6875
sg31
F2.5
sg32
F0.5
sg33
F0.9375
sg34
F1.125
sg35
F0.625
ssg36
(dp52
g4
F5.7975
sg5
F4.796250000000001
sg6
F1.79375
sg7
F4.81625
sg8
F5.31625
sg9
F6.698750000000001
sg10
F2.47375
sg11
F2.15375
sg12
F3.1325000000000003
sg13
F5.9
sg14
F3.655
sg15
F1.7374999999999998
sg16
F5.08625
sg17
F7.585
sg18
F5.1475
sg19
F2.37625
sg20
F4.1775
sg21
F5.9125
sg22
F6.71375
sg23
F5.1975
sg24
F5.31625
sg25
F2.36375
sg26
F3.85625
sg27
F4.755
sg28
F5.2475000000000005
sg29
F4.87125
sg30
F6.016249999999999
sg31
F2.1387500000000004
sg32
F3.3762499999999998
sg33
F3.25125
sg34
F2.5075000000000003
sg35
F2.4025
ssg38
(dp53
g4
F6.2
sg5
F10.0875
sg6
F4.9750000000000005
sg7
F2.31875
sg8
F8.475
sg9
F5.95
sg10
F2.8937500000000003
sg11
F6.187499999999999
sg12
F7.0249999999999995
sg13
F10.693750000000001
sg14
F9.35625
sg15
F6.124999999999999
sg16
F7.2124999999999995
sg17
F8.006250000000001
sg18
F12.9125
sg19
F2.4875000000000003
sg20
F5.34375
sg21
F8.4875
sg22
F6.94375
sg23
F11.925
sg24
F4.5125
sg25
F10.825000000000001
sg26
F6.4875
sg27
F10.86875
sg28
F8.10625
sg29
F8.65
sg30
F8.81875
sg31
F8.64375
sg32
F10.737500000000002
sg33
F6.61875
sg34
F7.925000000000001
sg35
F8.59375
ssg40
(dp54
g4
F4.5125
sg5
F5.4875
sg6
F7.906250000000001
sg7
F5.906249999999999
sg8
F8.218750000000002
sg9
F7.081250000000001
sg10
F7.36875
sg11
F4.04375
sg12
F6.081250000000001
sg13
F6.94375
sg14
F2.5500000000000003
sg15
F5.050000000000001
sg16
F7.18125
sg17
F9.962500000000002
sg18
F3.975
sg19
F3.3999999999999995
sg20
F2.0875000000000004
sg21
F8.1625
sg22
F6.4125000000000005
sg23
F3.95
sg24
F6.2375
sg25
F3.4937500000000004
sg26
F1.4625
sg27
F5.3125
sg28
F2.8125000000000004
sg29
F3.11875
sg30
F6.143750000000001
sg31
F3.6125
sg32
F2.2874999999999996
sg33
F4.3500000000000005
sg34
F1.8312499999999998
sg35
F5.775
ssg42
(dp55
g4
F2.30625
sg5
F1.96875
sg6
F0.2
sg7
F0.59375
sg8
F0.675
sg9
F0.8500000000000001
sg10
F1.4937500000000001
sg11
F0.675
sg12
F0.3375
sg13
F1.4375
sg14
F2.85625
sg15
F2.7375000000000003
sg16
F1.175
sg17
F1.23125
sg18
F1.98125
sg19
F3.43125
sg20
F2.3812499999999996
sg21
F1.7937499999999997
sg22
F3.0375
sg23
F0.4875
sg24
F2.05625
sg25
F2.51875
sg26
F3.66875
sg27
F2.56875
sg28
F2.05
sg29
F0.74375
sg30
F0.49374999999999997
sg31
F1.96875
sg32
F1.94375
sg33
F1.15
sg34
F2.6937500000000005
sg35
F0.26875000000000004
sssI2013
(dp56
g2
(dp57
g4
F1.3125
sg5
F1.5
sg6
F1.3125
sg7
F1.4375
sg8
F2.3125
sg9
F1.9375
sg10
F1.5625
sg11
F2.875
sg12
F1.75
sg13
F2.6875
sg14
F2.375
sg15
F0.875
sg16
F1.1875
sg17
F2.4375
sg18
F1.1875
sg19
F1.75
sg20
F3.375
sg21
F0.6875
sg22
F0.875
sg23
F1.625
sg24
F1.125
sg25
F1.5
sg26
F2.75
sg27
F1.8125
sg28
F1.875
sg29
F2.75
sg30
F2.8125
sg31
F2.875
sg32
F2.25
sg33
F1.4375
sg34
F1.1875
sg35
F1.5
ssg36
(dp58
g4
F10.8925
sg5
F4.9350000000000005
sg6
F5.10375
sg7
F12.068750000000001
sg8
F7.401249999999999
sg9
F3.4875000000000003
sg10
F8.221250000000001
sg11
F2.3737500000000002
sg12
F5.0175
sg13
F5.859999999999999
sg14
F6.063750000000001
sg15
F5.43625
sg16
F6.602500000000001
sg17
F5.682499999999999
sg18
F8.08375
sg19
F3.9224999999999994
sg20
F3.79375
sg21
F6.62625
sg22
F7.14625
sg23
F4.022500000000001
sg24
F10.022499999999997
sg25
F4.94125
sg26
F7.565
sg27
F3.8425000000000002
sg28
F8.8525
sg29
F3.3825
sg30
F4.70125
sg31
F5.143750000000001
sg32
F6.5775
sg33
F8.473749999999999
sg34
F3.7962499999999997
sg35
F3.21125
ssg38
(dp59
g4
F16.84375
sg5
F13.806250000000002
sg6
F9.06875
sg7
F16.1625
sg8
F11.187500000000002
sg9
F11.606250000000001
sg10
F18.16875
sg11
F15.068750000000001
sg12
F14.79375
sg13
F6.9624999999999995
sg14
F14.45
sg15
F8.518749999999999
sg16
F11.724999999999998
sg17
F10.21875
sg18
F12.868749999999997
sg19
F10.431250000000002
sg20
F13.943750000000001
sg21
F12.625000000000002
sg22
F12.462499999999999
sg23
F11.281250000000002
sg24
F11.325000000000001
sg25
F12.875
sg26
F9.025
sg27
F8.56875
sg28
F17.1375
sg29
F13.118750000000002
sg30
F16.85625
sg31
F17.275
sg32
F15.325
sg33
F7.706250000000001
sg34
F12.706250000000002
sg35
F11.593749999999998
ssg40
(dp60
g4
F7.987500000000001
sg5
F8.693750000000001
sg6
F8.3875
sg7
F11.143750000000004
sg8
F8.7875
sg9
F6.8062499999999995
sg10
F6.918750000000001
sg11
F6.456250000000001
sg12
F9.043750000000001
sg13
F6.837499999999999
sg14
F7.175000000000001
sg15
F8.756250000000001
sg16
F8.568750000000001
sg17
F8.418750000000001
sg18
F9.318749999999998
sg19
F5.937500000000001
sg20
F9.90625
sg21
F11.193750000000001
sg22
F7.55
sg23
F11.231250000000001
sg24
F7.449999999999999
sg25
F7.7375
sg26
F6.756250000000001
sg27
F4.91875
sg28
F5.3062499999999995
sg29
F2.95
sg30
F7.200000000000001
sg31
F8.768749999999999
sg32
F5.74375
sg33
F4.7250000000000005
sg34
F6.45
sg35
F6.606249999999999
ssg42
(dp61
g4
F4.76875
sg5
F5.112500000000001
sg6
F3.6625000000000005
sg7
F2.53125
sg8
F4.3625
sg9
F4.38125
sg10
F3.2687500000000007
sg11
F5.05
sg12
F4.518749999999999
sg13
F3.9937500000000004
sg14
F3.85
sg15
F4.89375
sg16
F4.5125
sg17
F5.53125
sg18
F3.5249999999999995
sg19
F3.0749999999999997
sg20
F4.3812500000000005
sg21
F2.55
sg22
F2.4437499999999996
sg23
F2.00625
sg24
F1.8062500000000001
sg25
F4.95
sg26
F3.53125
sg27
F2.1750000000000003
sg28
F7.075000000000001
sg29
F5.79375
sg30
F4.9125000000000005
sg31
F5.368750000000001
sg32
F5.26875
sg33
F4.8
sg34
F4.7125
sg35
F5.40625
sssI2014
(dp62
g2
(dp63
g4
F1.625
sg5
F1.5
sg6
F1.9375
sg7
F2.1875
sg8
F4.75
sg9
F1.75
sg10
F2.625
sg11
F2.75
sg12
F2.5625
sg13
F4.3125
sg14
F1.375
sg15
F4.625
sg16
F2.625
sg17
F3.3125
sg18
F2.4375
sg19
F3.75
sg20
F2.5625
sg21
F2.875
sg22
F4.625
sg23
F2.1875
sg24
F2.0625
sg25
F1.0
sg26
F1.75
sg27
F4.4375
sg28
F4.5
sg29
F2.0
sg30
F2.75
sg31
F3.1875
sg32
F3.0625
sg33
F2.9375
sg34
F3.6470588235294117
sg35
F4.3125
ssg36
(dp64
g4
F5.607500000000001
sg5
F5.3
sg6
F4.71625
sg7
F6.5874999999999995
sg8
F3.6975000000000002
sg9
F5.16625
sg10
F3.37875
sg11
F9.303749999999999
sg12
F8.0575
sg13
F7.485
sg14
F4.199999999999999
sg15
F6.015
sg16
F7.146250000000001
sg17
F4.8725
sg18
F6.202500000000001
sg19
F4.0249999999999995
sg20
F7.31625
sg21
F4.166250000000001
sg22
F7.585
sg23
F6.289999999999999
sg24
F2.9475
sg25
F9.084999999999999
sg26
F5.663749999999999
sg27
F9.4175
sg28
F8.03125
sg29
F5.516249999999999
sg30
F10.315
sg31
F7.486249999999999
sg32
F3.095
sg33
F9.815000000000001
sg34
F4.376470588235294
sg35
F8.2425
ssg38
(dp65
g4
F15.568750000000001
sg5
F15.25
sg6
F19.212500000000006
sg7
F23.20625
sg8
F13.94375
sg9
F17.087500000000002
sg10
F17.062500000000004
sg11
F14.45625
sg12
F23.006249999999998
sg13
F13.662499999999998
sg14
F19.7375
sg15
F19.0375
sg16
F19.5
sg17
F15.874999999999998
sg18
F14.318750000000001
sg19
F9.500000000000002
sg20
F15.337499999999999
sg21
F11.637500000000001
sg22
F18.893750000000004
sg23
F22.54375
sg24
F20.812499999999996
sg25
F21.068750000000005
sg26
F17.768749999999997
sg27
F21.968750000000004
sg28
F15.356249999999996
sg29
F13.600000000000003
sg30
F22.556250000000002
sg31
F23.637500000000006
sg32
F15.731250000000001
sg33
F11.299999999999999
sg34
F17.11764705882353
sg35
F17.825
ssg40
(dp66
g4
F15.081249999999999
sg5
F12.0625
sg6
F13.368750000000002
sg7
F19.850000000000005
sg8
F17.0625
sg9
F20.443749999999994
sg10
F12.5125
sg11
F14.231250000000003
sg12
F12.456249999999999
sg13
F13.012500000000001
sg14
F8.9625
sg15
F13.706249999999999
sg16
F17.70625
sg17
F12.112499999999999
sg18
F9.881249999999998
sg19
F11.7
sg20
F13.63125
sg21
F10.7125
sg22
F11.14375
sg23
F16.05
sg24
F13.887499999999998
sg25
F11.843749999999996
sg26
F10.587500000000004
sg27
F11.668750000000001
sg28
F14.850000000000003
sg29
F12.700000000000001
sg30
F13.23125
sg31
F11.299999999999999
sg32
F12.7
sg33
F8.718750000000002
sg34
F12.09411764705882
sg35
F10.387500000000001
ssg42
(dp67
g4
F5.187499999999999
sg5
F3.5874999999999995
sg6
F3.9250000000000003
sg7
F1.41875
sg8
F7.656249999999999
sg9
F4.16875
sg10
F6.8500000000000005
sg11
F6.543749999999999
sg12
F5.2
sg13
F7.3374999999999995
sg14
F6.6812499999999995
sg15
F7.49375
sg16
F2.3375000000000004
sg17
F6.325000000000001
sg18
F7.9625
sg19
F5.9437500000000005
sg20
F8.1125
sg21
F3.725
sg22
F5.562500000000001
sg23
F3.2500000000000004
sg24
F2.625
sg25
F4.0375
sg26
F3.9375000000000004
sg27
F7.69375
sg28
F7.16875
sg29
F3.9875000000000003
sg30
F2.7750000000000004
sg31
F4.968749999999999
sg32
F6.699999999999999
sg33
F10.60625
sg34
F5.347058823529411
sg35
F4.6375
sssI2015
(dp68
g2
(dp69
g4
F2.5
sg5
F3.0625
sg6
F2.125
sg7
F3.0
sg8
F5.5625
sg9
F5.8125
sg10
F3.0625
sg11
F4.0
sg12
F4.875
sg13
F5.75
sg14
F4.25
sg15
F3.875
sg16
F3.176470588235294
sg17
F3.125
sg18
F2.8823529411764706
sg19
F4.0
sg20
F3.4375
sg21
F3.176470588235294
sg22
F3.375
sg23
F5.0
sg24
F2.875
sg25
F2.25
sg26
F2.5625
sg27
F2.1875
sg28
F2.75
sg29
F2.7058823529411766
sg30
F3.5625
sg31
F4.3125
sg32
F3.875
sg33
F3.375
sg34
F3.0
sg35
F5.3125
ssg36
(dp70
g4
F4.73
sg5
F4.8125
sg6
F6.4975
sg7
F9.15625
sg8
F6.51875
sg9
F6.842499999999999
sg10
F9.67375
sg11
F5.20125
sg12
F13.1925
sg13
F9.85625
sg14
F4.94125
sg15
F12.051249999999998
sg16
F13.187058823529414
sg17
F6.428749999999999
sg18
F9.17529411764706
sg19
F6.6525
sg20
F10.15
sg21
F7.409411764705883
sg22
F8.3475
sg23
F8.151250000000001
sg24
F9.982500000000002
sg25
F8.99625
sg26
F6.81875
sg27
F7.678749999999999
sg28
F7.5875
sg29
F6.881176470588237
sg30
F8.60875
sg31
F11.61875
sg32
F9.2725
sg33
F9.5475
sg34
F5.7875
sg35
F8.442500000000003
ssg38
(dp71
g4
F19.962500000000006
sg5
F21.950000000000003
sg6
F25.512499999999996
sg7
F22.5375
sg8
F13.449999999999996
sg9
F17.33125
sg10
F27.012499999999996
sg11
F18.712500000000002
sg12
F27.062500000000007
sg13
F22.687499999999996
sg14
F24.5125
sg15
F27.337500000000006
sg16
F25.91176470588235
sg17
F22.631249999999998
sg18
F23.37058823529412
sg19
F17.66875
sg20
F14.55625
sg21
F22.752941176470593
sg22
F24.612499999999997
sg23
F24.76875
sg24
F28.981249999999996
sg25
F21.775
sg26
F19.23750000000001
sg27
F26.849999999999994
sg28
F26.781250000000007
sg29
F21.599999999999994
sg30
F27.618750000000006
sg31
F28.643750000000008
sg32
F25.487500000000004
sg33
F20.850000000000005
sg34
F21.718749999999996
sg35
F18.812499999999996
ssg40
(dp72
g4
F14.437500000000002
sg5
F13.506249999999998
sg6
F14.950000000000001
sg7
F14.98125
sg8
F12.5375
sg9
F14.818749999999998
sg10
F11.55625
sg11
F11.674999999999997
sg12
F16.043749999999996
sg13
F18.068749999999994
sg14
F11.818749999999994
sg15
F14.499999999999996
sg16
F17.605882352941176
sg17
F18.643750000000004
sg18
F11.48235294117647
sg19
F10.76875
sg20
F17.15625
sg21
F14.547058823529412
sg22
F18.187499999999996
sg23
F15.05
sg24
F15.437500000000004
sg25
F14.2
sg26
F11.112500000000002
sg27
F12.774999999999999
sg28
F16.118750000000002
sg29
F13.182352941176472
sg30
F18.187499999999996
sg31
F14.512500000000001
sg32
F15.550000000000004
sg33
F15.600000000000001
sg34
F18.725
sg35
F21.725
ssg42
(dp73
g4
F9.74375
sg5
F6.2250000000000005
sg6
F6.3374999999999995
sg7
F8.35625
sg8
F7.6875
sg9
F7.5562499999999995
sg10
F4.4375
sg11
F7.25
sg12
F4.4437500000000005
sg13
F9.10625
sg14
F10.825000000000001
sg15
F9.018749999999999
sg16
F7.135294117647058
sg17
F5.425
sg18
F5.082352941176471
sg19
F6.39375
sg20
F8.425
sg21
F7.394117647058823
sg22
F8.287500000000001
sg23
F7.537500000000002
sg24
F4.518750000000001
sg25
F5.768750000000001
sg26
F6.6625000000000005
sg27
F5.181250000000001
sg28
F6.875000000000001
sg29
F5.98235294117647
sg30
F6.9
sg31
F5.893749999999999
sg32
F3.9937499999999995
sg33
F8.05
sg34
F6.80625
sg35
F8.443749999999998
sss.