(dp0
I2010
(dp1
S'K'
p2
(dp3
S'MIN'
p4
F4.125
sS'MIA'
p5
F4.0
sS'CAR'
p6
F4.4375
sS'ATL'
p7
F1.9375
sS'OAK'
p8
F3.875
sS'CIN'
p9
F5.0625
sS'NYJ'
p10
F4.0
sS'DEN'
p11
F4.125
sS'BAL'
p12
F4.5
sS'NYG'
p13
F1.9375
sS'DET'
p14
F4.625
sS'TEN'
p15
F5.375
sS'NO'
p16
F2.5625
sS'DAL'
p17
F2.3125
sS'NE'
p18
F2.75
sS'SEA'
p19
F4.25
sS'CHI'
p20
F2.25
sS'BUF'
p21
F6.1875
sS'STL'
p22
F4.0
sS'CLE'
p23
F3.8125
sS'TB'
p24
F1.9375
sS'HOU'
p25
F4.375
sS'GB'
p26
F2.9375
sS'WAS'
p27
F2.75
sS'JAC'
p28
F3.0
sS'KC'
p29
F3.8125
sS'PHI'
p30
F2.4375
sS'PIT'
p31
F3.875
sS'IND'
p32
F3.8125
sS'ARI'
p33
F4.0
sS'SF'
p34
F3.875
sS'SD'
p35
F3.125
ssS'QB'
p36
(dp37
g4
F12.263749999999998
sg5
F11.8025
sg6
F11.4725
sg7
F10.91
sg8
F10.021249999999998
sg9
F11.243749999999999
sg10
F12.477500000000001
sg11
F8.888750000000002
sg12
F10.290000000000001
sg13
F4.4675
sg14
F11.043750000000001
sg15
F7.853750000000001
sg16
F8.73125
sg17
F8.54875
sg18
F12.266250000000001
sg19
F14.82375
sg20
F8.131250000000001
sg21
F13.176250000000003
sg22
F8.2575
sg23
F13.2525
sg24
F8.4
sg25
F8.93125
sg26
F7.1187499999999995
sg27
F8.2625
sg28
F7.93375
sg29
F6.262499999999999
sg30
F10.08
sg31
F11.23875
sg32
F4.157500000000001
sg33
F8.83875
sg34
F10.563750000000002
sg35
F4.703749999999999
ssS'WR'
p38
(dp39
g4
F17.2
sg5
F10.7125
sg6
F16.20625
sg7
F20.400000000000002
sg8
F13.91875
sg9
F14.749999999999996
sg10
F14.487499999999999
sg11
F9.668750000000001
sg12
F15.99375
sg13
F14.4
sg14
F13.256249999999998
sg15
F13.987500000000002
sg16
F7.650000000000001
sg17
F17.674999999999997
sg18
F13.481250000000001
sg19
F20.4625
sg20
F12.58125
sg21
F8.325000000000001
sg22
F15.687499999999996
sg23
F15.0375
sg24
F11.318749999999998
sg25
F12.037500000000001
sg26
F10.83125
sg27
F14.581249999999999
sg28
F14.431250000000002
sg29
F12.449999999999998
sg30
F13.13125
sg31
F12.325000000000001
sg32
F9.8
sg33
F14.418749999999998
sg34
F18.33125
sg35
F10.149999999999999
ssS'RB'
p40
(dp41
g4
F4.9625
sg5
F7.093750000000002
sg6
F5.54375
sg7
F6.25
sg8
F11.393750000000002
sg9
F6.7124999999999995
sg10
F6.15625
sg11
F19.28125
sg12
F3.8000000000000007
sg13
F8.475
sg14
F12.312499999999998
sg15
F12.037500000000001
sg16
F6.524999999999999
sg17
F7.5375000000000005
sg18
F8.518749999999999
sg19
F11.131250000000001
sg20
F7.318750000000001
sg21
F6.968749999999999
sg22
F10.84375
sg23
F3.293750000000001
sg24
F4.425
sg25
F9.43125
sg26
F7.975000000000001
sg27
F8.71875
sg28
F14.6375
sg29
F10.174999999999999
sg30
F7.20625
sg31
F4.03125
sg32
F14.693750000000001
sg33
F12.075000000000005
sg34
F9.306250000000002
sg35
F10.275
ssS'TE'
p42
(dp43
g4
F6.1625000000000005
sg5
F5.3
sg6
F4.18125
sg7
F4.8187500000000005
sg8
F7.58125
sg9
F4.612500000000001
sg10
F3.8312500000000003
sg11
F6.106250000000001
sg12
F5.0687500000000005
sg13
F5.54375
sg14
F3.54375
sg15
F8.58125
sg16
F4.4375
sg17
F4.656250000000001
sg18
F4.737500000000001
sg19
F6.3
sg20
F4.36875
sg21
F6.9875
sg22
F4.0375
sg23
F4.55
sg24
F3.6312499999999996
sg25
F6.618749999999999
sg26
F6.443750000000001
sg27
F6.737500000000002
sg28
F6.5
sg29
F6.087500000000001
sg30
F8.312499999999998
sg31
F5.625
sg32
F7.387500000000001
sg33
F6.06875
sg34
F2.65
sg35
F6.2875000000000005
sssI2011
(dp44
g2
(dp45
g4
F6.375
sg5
F4.5625
sg6
F4.5
sg7
F2.875
sg8
F5.75
sg9
F3.5
sg10
F5.5
sg11
F5.875
sg12
F4.9375
sg13
F4.375
sg14
F5.5625
sg15
F4.1875
sg16
F4.375
sg17
F3.4375
sg18
F4.4375
sg19
F3.75
sg20
F4.375
sg21
F5.5
sg22
F4.25
sg23
F5.0
sg24
F2.75
sg25
F4.5625
sg26
F3.3125
sg27
F4.0
sg28
F3.5
sg29
F4.875
sg30
F3.9375
sg31
F2.9375
sg32
F4.4375
sg33
F4.8125
sg34
F2.9375
sg35
F6.0
ssg36
(dp46
g4
F16.236250000000002
sg5
F13.328749999999998
sg6
F12.20125
sg7
F11.580000000000002
sg8
F13.0725
sg9
F8.47625
sg10
F7.51
sg11
F11.48375
sg12
F7.45125
sg13
F13.423750000000004
sg14
F13.34875
sg15
F11.6875
sg16
F14.20375
sg17
F9.32375
sg18
F13.345
sg19
F8.78875
sg20
F11.523749999999996
sg21
F11.995000000000001
sg22
F10.166250000000002
sg23
F8.09375
sg24
F16.06875
sg25
F8.396249999999998
sg26
F13.743750000000002
sg27
F11.7075
sg28
F10.51625
sg29
F10.254999999999999
sg30
F10.592500000000003
sg31
F7.548750000000001
sg32
F14.0675
sg33
F11.815000000000001
sg34
F8.332500000000001
sg35
F12.151250000000001
ssg38
(dp47
g4
F20.962500000000006
sg5
F14.518749999999999
sg6
F14.11875
sg7
F19.250000000000007
sg8
F15.26875
sg9
F16.875
sg10
F10.35625
sg11
F18.1375
sg12
F19.375000000000004
sg13
F15.287500000000003
sg14
F25.368750000000002
sg15
F15.04375
sg16
F22.731249999999996
sg17
F15.437500000000002
sg18
F24.175
sg19
F17.481250000000003
sg20
F20.437500000000004
sg21
F13.012500000000001
sg22
F25.89375
sg23
F14.475000000000003
sg24
F17.974999999999994
sg25
F17.2625
sg26
F19.543750000000003
sg27
F18.456249999999997
sg28
F18.287499999999998
sg29
F13.83125
sg30
F14.362500000000002
sg31
F12.174999999999999
sg32
F20.5125
sg33
F24.31875
sg34
F18.44375
sg35
F13.218749999999998
ssg40
(dp48
g4
F12.412500000000003
sg5
F10.825000000000001
sg6
F15.912500000000003
sg7
F13.368750000000002
sg8
F11.6875
sg9
F5.275
sg10
F10.062500000000002
sg11
F14.35
sg12
F4.831250000000001
sg13
F11.96875
sg14
F13.675
sg15
F9.387500000000001
sg16
F10.100000000000001
sg17
F8.262500000000001
sg18
F12.674999999999999
sg19
F8.26875
sg20
F9.600000000000001
sg21
F15.825
sg22
F8.962500000000002
sg23
F6.506249999999999
sg24
F18.8625
sg25
F6.999999999999999
sg26
F9.356250000000001
sg27
F11.1125
sg28
F9.975000000000001
sg29
F9.025000000000002
sg30
F9.318750000000001
sg31
F4.63125
sg32
F10.056249999999999
sg33
F8.7375
sg34
F4.1625
sg35
F5.325000000000001
ssg42
(dp49
g4
F7.1375
sg5
F7.518750000000001
sg6
F5.79375
sg7
F7.393750000000001
sg8
F7.30625
sg9
F6.8687499999999995
sg10
F9.618750000000002
sg11
F4.4312499999999995
sg12
F4.58125
sg13
F8.8125
sg14
F6.012499999999999
sg15
F5.737499999999999
sg16
F3.6875
sg17
F7.837500000000001
sg18
F5.431250000000001
sg19
F6.3125
sg20
F6.187500000000001
sg21
F11.050000000000002
sg22
F5.2375
sg23
F7.80625
sg24
F7.4
sg25
F5.4750000000000005
sg26
F7.4875
sg27
F10.899999999999999
sg28
F9.968750000000002
sg29
F6.5874999999999995
sg30
F5.143750000000001
sg31
F8.731250000000001
sg32
F7.75
sg33
F6.631250000000001
sg34
F6.23125
sg35
F6.575000000000001
sssI2012
(dp50
g2
(dp51
g4
F5.3125
sg5
F4.875
sg6
F5.75
sg7
F3.5625
sg8
F7.4375
sg9
F5.8125
sg10
F5.1875
sg11
F5.6875
sg12
F8.375
sg13
F5.5625
sg14
F5.1875
sg15
F6.625
sg16
F5.5625
sg17
F5.125
sg18
F4.0
sg19
F3.625
sg20
F3.0625
sg21
F5.1875
sg22
F5.375
sg23
F5.0
sg24
F3.3125
sg25
F4.9375
sg26
F3.375
sg27
F4.875
sg28
F7.25
sg29
F8.25
sg30
F5.875
sg31
F5.625
sg32
F5.9375
sg33
F4.9375
sg34
F3.125
sg35
F5.3125
ssg36
(dp52
g4
F16.848750000000003
sg5
F13.5125
sg6
F12.24625
sg7
F12.031249999999998
sg8
F14.975000000000001
sg9
F11.418750000000003
sg10
F12.005000000000003
sg11
F13.02625
sg12
F9.051250000000001
sg13
F15.046249999999997
sg14
F12.05875
sg15
F15.82625
sg16
F17.295
sg17
F15.056249999999999
sg18
F12.94
sg19
F10.508750000000001
sg20
F9.375
sg21
F16.29625
sg22
F14.015000000000002
sg23
F13.42375
sg24
F16.74125
sg25
F11.733749999999997
sg26
F11.735
sg27
F16.1625
sg28
F14.33
sg29
F14.898750000000003
sg30
F17.871249999999996
sg31
F8.4275
sg32
F11.972500000000002
sg33
F10.242500000000001
sg34
F10.841249999999999
sg35
F11.274999999999999
ssg38
(dp53
g4
F24.94375
sg5
F19.956249999999997
sg6
F20.112499999999994
sg7
F16.3875
sg8
F26.7125
sg9
F18.63125
sg10
F14.006249999999998
sg11
F17.69375
sg12
F24.162500000000005
sg13
F26.812500000000007
sg14
F26.781249999999996
sg15
F20.031250000000004
sg16
F32.431250000000006
sg17
F27.706250000000008
sg18
F23.818750000000005
sg19
F15.2875
sg20
F19.106250000000003
sg21
F19.5375
sg22
F20.668750000000006
sg23
F30.081250000000008
sg24
F30.462500000000006
sg25
F21.00625
sg26
F20.206250000000004
sg27
F33.28125
sg28
F20.062500000000004
sg29
F25.693749999999998
sg30
F24.16875
sg31
F19.924999999999997
sg32
F25.643749999999997
sg33
F22.043750000000006
sg34
F20.45625
sg35
F24.693749999999994
ssg40
(dp54
g4
F9.175
sg5
F13.843750000000002
sg6
F15.012500000000005
sg7
F15.018749999999997
sg8
F15.681250000000002
sg9
F10.9625
sg10
F15.5
sg11
F13.24375
sg12
F12.793750000000001
sg13
F13.79375
sg14
F14.318749999999998
sg15
F14.218750000000002
sg16
F21.34375
sg17
F13.656250000000004
sg18
F11.475000000000001
sg19
F12.056249999999999
sg20
F10.95
sg21
F18.550000000000004
sg22
F12.75625
sg23
F9.943750000000001
sg24
F15.037500000000003
sg25
F9.843749999999998
sg26
F13.762500000000001
sg27
F11.56875
sg28
F16.093749999999996
sg29
F11.106249999999998
sg30
F8.15625
sg31
F9.45
sg32
F13.16875
sg33
F12.63125
sg34
F7.368750000000001
sg35
F13.8625
ssg42
(dp55
g4
F8.74375
sg5
F8.018749999999999
sg6
F8.675
sg7
F8.6375
sg8
F9.55625
sg9
F8.512500000000001
sg10
F8.075000000000001
sg11
F11.681250000000002
sg12
F7.456250000000001
sg13
F9.393749999999999
sg14
F8.9625
sg15
F9.325
sg16
F7.15625
sg17
F9.974999999999998
sg18
F9.8625
sg19
F8.96875
sg20
F8.262500000000001
sg21
F9.274999999999999
sg22
F9.49375
sg23
F8.8
sg24
F10.262500000000001
sg25
F8.987499999999999
sg26
F8.21875
sg27
F12.875
sg28
F10.337499999999999
sg29
F7.91875
sg30
F8.65
sg31
F10.40625
sg32
F8.66875
sg33
F6.437500000000001
sg34
F6.4125000000000005
sg35
F6.24375
sssI2013
(dp56
g2
(dp57
g4
F6.25
sg5
F7.1875
sg6
F5.0625
sg7
F6.375
sg8
F6.4375
sg9
F5.625
sg10
F6.9375
sg11
F6.3125
sg12
F7.125
sg13
F6.5
sg14
F6.75
sg15
F7.5
sg16
F6.0
sg17
F6.1875
sg18
F5.25
sg19
F3.875
sg20
F5.5
sg21
F6.6875
sg22
F4.4375
sg23
F7.3125
sg24
F6.625
sg25
F6.9375
sg26
F5.6875
sg27
F6.25
sg28
F6.3125
sg29
F5.3125
sg30
F6.5625
sg31
F6.1875
sg32
F4.9375
sg33
F4.875
sg34
F3.75
sg35
F5.5
ssg36
(dp58
g4
F21.76375
sg5
F13.6475
sg6
F11.942499999999999
sg7
F19.12625
sg8
F16.27375
sg9
F13.118749999999999
sg10
F14.7875
sg11
F14.294999999999998
sg12
F10.8375
sg13
F12.501249999999997
sg14
F14.690000000000003
sg15
F11.398750000000003
sg16
F13.55875
sg17
F17.55
sg18
F14.321250000000001
sg19
F8.66
sg20
F12.84375
sg21
F13.79
sg22
F14.072500000000002
sg23
F15.236250000000002
sg24
F18.355
sg25
F12.952500000000002
sg26
F15.90875
sg27
F13.092500000000001
sg28
F17.512500000000003
sg29
F9.104999999999999
sg30
F13.791250000000002
sg31
F12.94125
sg32
F12.89
sg33
F16.04375
sg34
F11.882499999999999
sg35
F9.71875
ssg38
(dp59
g4
F34.79375000000001
sg5
F25.54375
sg6
F23.868750000000002
sg7
F31.824999999999996
sg8
F28.937499999999996
sg9
F21.937499999999996
sg10
F32.943749999999994
sg11
F26.768749999999997
sg12
F29.243750000000006
sg13
F24.243750000000002
sg14
F31.08125
sg15
F18.81875
sg16
F24.06249999999999
sg17
F27.124999999999996
sg18
F28.356249999999992
sg19
F18.643749999999997
sg20
F27.506250000000005
sg21
F29.099999999999998
sg22
F32.4375
sg23
F23.937499999999993
sg24
F29.168750000000003
sg25
F24.45
sg26
F25.53125
sg27
F25.868750000000002
sg28
F27.649999999999995
sg29
F29.731249999999996
sg30
F36.912499999999994
sg31
F26.15000000000001
sg32
F30.050000000000004
sg33
F20.38125
sg34
F26.66250000000001
sg35
F29.599999999999998
ssg40
(dp60
g4
F18.10625
sg5
F17.912499999999998
sg6
F13.637500000000003
sg7
F20.275
sg8
F20.63125
sg9
F12.487499999999999
sg10
F12.837499999999999
sg11
F17.243750000000002
sg12
F15.91875
sg13
F18.45
sg14
F13.550000000000002
sg15
F18.28125
sg16
F14.0625
sg17
F23.962500000000002
sg18
F15.493750000000002
sg19
F12.612500000000002
sg20
F18.76875
sg21
F16.54375
sg22
F17.475000000000005
sg23
F21.237499999999997
sg24
F15.262500000000001
sg25
F17.175
sg26
F19.037500000000005
sg27
F18.906249999999996
sg28
F15.9125
sg29
F16.6875
sg30
F14.581249999999997
sg31
F16.7625
sg32
F13.725
sg33
F10.11875
sg34
F10.91875
sg35
F17.618750000000002
ssg42
(dp61
g4
F12.387499999999998
sg5
F11.725
sg6
F10.60625
sg7
F11.250000000000002
sg8
F10.68125
sg9
F9.075
sg10
F10.975
sg11
F12.525
sg12
F6.706249999999999
sg13
F11.456250000000002
sg14
F9.087500000000002
sg15
F11.70625
sg16
F9.125
sg17
F14.575000000000003
sg18
F10.156250000000004
sg19
F10.156250000000002
sg20
F12.1
sg21
F8.781250000000002
sg22
F8.275000000000002
sg23
F7.375000000000001
sg24
F9.781250000000002
sg25
F11.225
sg26
F9.187499999999998
sg27
F7.74375
sg28
F13.687499999999996
sg29
F9.69375
sg30
F10.887499999999998
sg31
F10.918750000000001
sg32
F10.481249999999998
sg33
F17.3625
sg34
F8.78125
sg35
F11.193750000000001
sssI2014
(dp62
g2
(dp63
g4
F6.375
sg5
F7.3125
sg6
F6.375
sg7
F7.4375
sg8
F8.4375
sg9
F6.625
sg10
F7.1875
sg11
F6.625
sg12
F6.9375
sg13
F7.4375
sg14
F5.125
sg15
F8.5625
sg16
F7.9375
sg17
F5.375
sg18
F7.1875
sg19
F5.5
sg20
F9.25
sg21
F6.9375
sg22
F7.125
sg23
F7.5625
sg24
F7.375
sg25
F5.5
sg26
F5.9375
sg27
F7.25
sg28
F8.25
sg29
F7.5625
sg30
F7.0
sg31
F7.0
sg32
F5.3125
sg33
F6.6875
sg34
F5.882352941176471
sg35
F7.5
ssg36
(dp64
g4
F14.57125
sg5
F12.93875
sg6
F16.21375
sg7
F16.55125
sg8
F13.4125
sg9
F12.536249999999999
sg10
F12.99
sg11
F15.661250000000003
sg12
F16.055
sg13
F17.23625
sg14
F13.163750000000004
sg15
F15.496249999999998
sg16
F18.105
sg17
F15.036250000000003
sg18
F11.990000000000002
sg19
F9.561250000000001
sg20
F19.02
sg21
F11.7575
sg22
F14.223749999999999
sg23
F11.93875
sg24
F16.404999999999998
sg25
F14.79125
sg26
F14.828749999999998
sg27
F19.69625
sg28
F14.441249999999998
sg29
F8.77
sg30
F18.881250000000005
sg31
F16.806250000000002
sg32
F13.073750000000002
sg33
F14.7425
sg34
F10.898823529411764
sg35
F14.125
ssg38
(dp65
g4
F31.737500000000008
sg5
F33.3
sg6
F33.125
sg7
F34.800000000000004
sg8
F30.968749999999996
sg9
F29.212499999999995
sg10
F34.06250000000001
sg11
F30.062499999999996
sg12
F36.89375
sg13
F26.70000000000001
sg14
F32.68750000000001
sg15
F29.1125
sg16
F35.393750000000004
sg17
F28.168750000000003
sg18
F27.087499999999995
sg19
F21.175000000000004
sg20
F32.525
sg21
F30.506250000000005
sg22
F36.60625
sg23
F32.70000000000001
sg24
F34.98125
sg25
F35.925
sg26
F31.887500000000003
sg27
F34.53124999999999
sg28
F28.643749999999994
sg29
F32.71874999999999
sg30
F38.33749999999999
sg31
F35.00000000000001
sg32
F27.556250000000002
sg33
F32.293749999999996
sg34
F28.80588235294118
sg35
F32.55625
ssg40
(dp66
g4
F21.750000000000004
sg5
F20.706250000000004
sg6
F19.856250000000003
sg7
F25.99375
sg8
F25.124999999999996
sg9
F23.206250000000004
sg10
F17.968749999999996
sg11
F18.925
sg12
F15.0
sg13
F17.79375
sg14
F18.243750000000002
sg15
F23.743750000000006
sg16
F24.662499999999998
sg17
F20.356250000000003
sg18
F20.95625
sg19
F18.537499999999998
sg20
F19.2375
sg21
F19.337500000000006
sg22
F17.60625
sg23
F21.918749999999996
sg24
F19.162499999999998
sg25
F19.831250000000004
sg26
F18.39375
sg27
F15.718749999999996
sg28
F23.837500000000002
sg29
F16.743749999999995
sg30
F20.7375
sg31
F16.737499999999994
sg32
F21.3625
sg33
F14.968749999999998
sg34
F15.370588235294111
sg35
F19.0375
ssg42
(dp67
g4
F10.33125
sg5
F9.081250000000002
sg6
F9.8
sg7
F8.5625
sg8
F12.687499999999996
sg9
F10.768749999999999
sg10
F14.456249999999999
sg11
F14.699999999999998
sg12
F10.293749999999998
sg13
F11.925
sg14
F11.45625
sg15
F12.293750000000003
sg16
F8.343750000000002
sg17
F15.45
sg18
F13.331249999999999
sg19
F11.350000000000003
sg20
F15.25625
sg21
F7.768750000000001
sg22
F8.81875
sg23
F9.481250000000001
sg24
F9.768749999999999
sg25
F8.4875
sg26
F9.756249999999998
sg27
F13.3125
sg28
F11.549999999999999
sg29
F8.50625
sg30
F8.575000000000001
sg31
F12.475
sg32
F13.387499999999998
sg33
F14.968750000000002
sg34
F11.841176470588238
sg35
F8.725
sssI2015
(dp68
g2
(dp69
g4
F6.75
sg5
F6.5625
sg6
F4.6875
sg7
F6.1875
sg8
F8.6875
sg9
F6.5625
sg10
F6.75
sg11
F6.375
sg12
F7.9375
sg13
F8.75
sg14
F7.25
sg15
F7.1875
sg16
F5.823529411764706
sg17
F7.875
sg18
F5.705882352941177
sg19
F6.4375
sg20
F7.1875
sg21
F5.823529411764706
sg22
F8.375
sg23
F8.375
sg24
F7.625
sg25
F5.5
sg26
F6.4375
sg27
F6.8125
sg28
F7.6875
sg29
F4.647058823529412
sg30
F8.0
sg31
F6.6875
sg32
F7.75
sg33
F6.5625
sg34
F7.4375
sg35
F7.875
ssg36
(dp70
g4
F15.391250000000001
sg5
F16.7575
sg6
F14.053750000000004
sg7
F14.471249999999998
sg8
F16.97375
sg9
F13.087499999999999
sg10
F13.606250000000001
sg11
F12.322500000000002
sg12
F16.970000000000002
sg13
F20.10625
sg14
F16.515
sg15
F19.068749999999998
sg16
F22.32941176470588
sg17
F15.839999999999996
sg18
F14.947058823529408
sg19
F12.653750000000002
sg20
F19.2125
sg21
F15.754117647058827
sg22
F15.401250000000003
sg23
F18.822499999999998
sg24
F16.848750000000003
sg25
F13.916250000000002
sg26
F14.595
sg27
F18.01125
sg28
F18.027500000000003
sg29
F13.034117647058824
sg30
F19.96875
sg31
F17.06
sg32
F16.852500000000003
sg33
F14.49625
sg34
F16.387500000000003
sg35
F14.752500000000001
ssg38
(dp71
g4
F31.437500000000004
sg5
F36.25624999999999
sg6
F32.4
sg7
F25.650000000000002
sg8
F33.34375
sg9
F33.818749999999994
sg10
F35.29374999999999
sg11
F26.64999999999999
sg12
F39.512499999999996
sg13
F36.89374999999999
sg14
F35.61874999999999
sg15
F36.20625000000001
sg16
F34.79411764705882
sg17
F30.3125
sg18
F34.95294117647058
sg19
F26.493750000000006
sg20
F27.206250000000004
sg21
F36.69411764705882
sg22
F33.59375
sg23
F39.43750000000001
sg24
F38.44375
sg25
F31.625000000000004
sg26
F30.04375
sg27
F36.16249999999998
sg28
F35.031250000000014
sg29
F35.15882352941176
sg30
F39.506250000000016
sg31
F41.78125
sg32
F38.11874999999999
sg33
F29.34375000000001
sg34
F34.899999999999984
sg35
F30.5125
ssg40
(dp72
g4
F19.74375
sg5
F28.800000000000008
sg6
F22.04375
sg7
F25.012500000000006
sg8
F23.81250000000001
sg9
F22.993750000000002
sg10
F17.35
sg11
F20.743749999999995
sg12
F19.943750000000005
sg13
F25.156249999999986
sg14
F21.731249999999996
sg15
F18.918749999999996
sg16
F23.68823529411765
sg17
F25.868750000000002
sg18
F18.829411764705885
sg19
F17.218750000000007
sg20
F22.24375
sg21
F19.61176470588235
sg22
F21.762500000000003
sg23
F22.137500000000003
sg24
F20.687500000000004
sg25
F20.281250000000004
sg26
F19.775000000000002
sg27
F23.31875000000001
sg28
F26.812499999999993
sg29
F17.28235294117647
sg30
F24.81875
sg31
F18.056250000000006
sg32
F23.275000000000002
sg33
F19.78125
sg34
F27.83125
sg35
F26.131250000000005
ssg42
(dp73
g4
F12.781250000000002
sg5
F11.581250000000002
sg6
F11.943750000000003
sg7
F15.525000000000002
sg8
F14.618750000000002
sg9
F10.550000000000002
sg10
F9.6
sg11
F13.025
sg12
F9.25625
sg13
F17.70625
sg14
F14.6125
sg15
F13.91875
sg16
F16.88235294117647
sg17
F9.156249999999998
sg18
F8.952941176470587
sg19
F12.549999999999999
sg20
F12.481250000000005
sg21
F10.447058823529416
sg22
F13.46875
sg23
F10.04375
sg24
F12.518749999999997
sg25
F11.562499999999996
sg26
F12.375
sg27
F12.681249999999999
sg28
F14.343749999999996
sg29
F8.776470588235295
sg30
F11.431249999999999
sg31
F14.15
sg32
F13.825000000000001
sg33
F13.081249999999999
sg34
F10.837500000000002
sg35
F12.531250000000002
sss.