(dp0
I2010
(dp1
S'K'
p2
(dp3
S'Broncos'
p4
F0.0
sS'Vikings'
p5
F0.0
sS'Bears'
p6
F0.0
sS'Falcons'
p7
F0.0
sS'Saints'
p8
F0.0
sS'Chargers'
p9
F0.0
sS'Raiders'
p10
F0.0
sS'Lions'
p11
F0.0
sS'Eagles'
p12
F0.0
sS'Browns'
p13
F0.0
sS'Steelers'
p14
F0.0
sS'Giants'
p15
F0.0
sS'Buccaneers'
p16
F0.0
sS'Cardinals'
p17
F0.0
sS'Bengals'
p18
F0.0
sS'Chiefs'
p19
F0.0
sS'Dolphins'
p20
F0.0
sS'Jaguars'
p21
F0.0
sS'Seahawks'
p22
F0.0
sS'Jets'
p23
F0.0
sS'Ravens'
p24
F0.0
sS'Colts'
p25
F0.0
sS'Packers'
p26
F0.0
sS'Titans'
p27
F0.0
sS'Rams'
p28
F0.0
sS'Bills'
p29
F0.0
sS'Texans'
p30
F0.0
sS'49ers'
p31
F0.0
sS'Patriots'
p32
F0.0
sS'Cowboys'
p33
F0.0
sS'Panthers'
p34
F0.0
sS'Redskins'
p35
F0.0
ssS'QB'
p36
(dp37
g4
F0.0
sg5
F0.0
sg6
F0.0
sg7
F0.0
sg8
F0.0
sg9
F0.0
sg10
F0.0
sg11
F0.0
sg12
F0.0
sg13
F0.0
sg14
F0.0
sg15
F0.0
sg16
F0.0
sg17
F0.0
sg18
F0.0
sg19
F0.0
sg20
F0.0
sg21
F0.0
sg22
F0.0
sg23
F0.0
sg24
F0.0
sg25
F0.0
sg26
F0.0
sg27
F0.0
sg28
F0.0
sg29
F0.0
sg30
F0.0
sg31
F0.0
sg32
F0.0
sg33
F0.0
sg34
F0.0
sg35
F0.0
ssS'WR'
p38
(dp39
g4
F0.0
sg5
F0.0
sg6
F0.0
sg7
F0.0
sg8
F0.0
sg9
F0.0
sg10
F0.0
sg11
F0.0
sg12
F0.0
sg13
F0.0
sg14
F0.0
sg15
F0.0
sg16
F0.0
sg17
F0.0
sg18
F0.0
sg19
F0.0
sg20
F0.0
sg21
F0.0
sg22
F0.0
sg23
F0.0
sg24
F0.0
sg25
F0.0
sg26
F0.0
sg27
F0.0
sg28
F0.0
sg29
F0.0
sg30
F0.0
sg31
F0.0
sg32
F0.0
sg33
F0.0
sg34
F0.0
sg35
F0.0
ssS'RB'
p40
(dp41
g4
F0.0
sg5
F0.0
sg6
F0.0
sg7
F0.0
sg8
F0.0
sg9
F0.0
sg10
F0.0
sg11
F0.0
sg12
F0.0
sg13
F0.0
sg14
F0.0
sg15
F0.0
sg16
F0.0
sg17
F0.0
sg18
F0.0
sg19
F0.0
sg20
F0.0
sg21
F0.0
sg22
F0.0
sg23
F0.0
sg24
F0.0
sg25
F0.0
sg26
F0.0
sg27
F0.0
sg28
F0.0
sg29
F0.0
sg30
F0.0
sg31
F0.0
sg32
F0.0
sg33
F0.0
sg34
F0.0
sg35
F0.0
ssS'TE'
p42
(dp43
g4
F0.0
sg5
F0.0
sg6
F0.0
sg7
F0.0
sg8
F0.0
sg9
F0.0
sg10
F0.0
sg11
F0.0
sg12
F0.0
sg13
F0.0
sg14
F0.0
sg15
F0.0
sg16
F0.0
sg17
F0.0
sg18
F0.0
sg19
F0.0
sg20
F0.0
sg21
F0.0
sg22
F0.0
sg23
F0.0
sg24
F0.0
sg25
F0.0
sg26
F0.0
sg27
F0.0
sg28
F0.0
sg29
F0.0
sg30
F0.0
sg31
F0.0
sg32
F0.0
sg33
F0.0
sg34
F0.0
sg35
F0.0
sssI2011
(dp44
g2
(dp45
g4
F1.5
sg5
F0.0
sg6
F0.5
sg7
F0.0
sg8
F0.0
sg9
F0.0
sg10
F0.8125
sg11
F1.0
sg12
F0.125
sg13
F0.0
sg14
F0.0
sg15
F0.75
sg16
F0.4375
sg17
F0.4375
sg18
F0.0
sg19
F1.25
sg20
F1.375
sg21
F0.03125
sg22
F0.6875
sg23
F0.5625
sg24
F0.625
sg25
F0.0
sg26
F0.5
sg27
F0.0
sg28
F0.0390625
sg29
F1.3125
sg30
F0.0
sg31
F0.5625
sg32
F0.8125
sg33
F0.0
sg34
F0.0
sg35
F1.6875
ssg36
(dp46
g4
F1.3487500000000001
sg5
F2.2687500000000003
sg6
F2.02875
sg7
F2.31
sg8
F2.90125
sg9
F1.0262499999999999
sg10
F0.0
sg11
F1.4312500000000001
sg12
F0.0
sg13
F1.99625
sg14
F1.9224999999999999
sg15
F0.0
sg16
F5.03
sg17
F3.1025
sg18
F0.62125
sg19
F0.0
sg20
F0.0
sg21
F0.102265625
sg22
F0.59375
sg23
F0.13625
sg24
F1.9200000000000002
sg25
F2.9362500000000002
sg26
F2.50375
sg27
F2.4612499999999997
sg28
F0.019375
sg29
F1.195
sg30
F2.3775
sg31
F0.17375000000000002
sg32
F0.0
sg33
F0.0
sg34
F0.485
sg35
F1.63375
ssg38
(dp47
g4
F2.925
sg5
F0.6
sg6
F2.73125
sg7
F0.90625
sg8
F2.575
sg9
F1.7875
sg10
F3.1500000000000004
sg11
F0.7875000000000001
sg12
F0.7312500000000001
sg13
F2.1875
sg14
F3.7375
sg15
F2.0625
sg16
F2.35625
sg17
F4.1375
sg18
F3.64375
sg19
F1.4500000000000002
sg20
F3.3687500000000004
sg21
F0.287890625
sg22
F2.7875
sg23
F0.1625
sg24
F2.6812500000000004
sg25
F4.0875
sg26
F3.8125
sg27
F1.28125
sg28
F0.36445312500000004
sg29
F2.175
sg30
F2.34375
sg31
F2.96875
sg32
F3.5125
sg33
F0.55625
sg34
F1.5875
sg35
F0.51875
ssg40
(dp48
g4
F0.9500000000000001
sg5
F0.34375
sg6
F0.4937500000000001
sg7
F0.1125
sg8
F0.5375
sg9
F0.4
sg10
F1.4875000000000003
sg11
F1.26875
sg12
F2.675
sg13
F1.4625000000000001
sg14
F0.36875
sg15
F2.8125000000000004
sg16
F1.9937500000000001
sg17
F1.8000000000000003
sg18
F0.96875
sg19
F1.0875000000000001
sg20
F1.75625
sg21
F0.033984375
sg22
F3.9625000000000004
sg23
F2.1812499999999995
sg24
F0.2
sg25
F1.3812499999999999
sg26
F0.3625
sg27
F0.04375
sg28
F0.19882812500000002
sg29
F3.3499999999999996
sg30
F1.3562500000000002
sg31
F1.4125
sg32
F1.19375
sg33
F0.88125
sg34
F1.73125
sg35
F2.6937499999999996
ssg42
(dp49
g4
F0.7375
sg5
F0.3875
sg6
F0.525
sg7
F0.33125000000000004
sg8
F0.2
sg9
F0.30625
sg10
F0.5125
sg11
F0.5125
sg12
F0.14375
sg13
F0.0
sg14
F0.50625
sg15
F0.98125
sg16
F0.125
sg17
F0.68125
sg18
F0.375
sg19
F0.775
sg20
F0.1625
sg21
F0.0
sg22
F0.49375
sg23
F0.59375
sg24
F0.26875
sg25
F0.11875
sg26
F1.0125
sg27
F0.23750000000000002
sg28
F0.0
sg29
F1.2374999999999998
sg30
F0.07500000000000001
sg31
F0.5125000000000001
sg32
F0.53125
sg33
F0.28750000000000003
sg34
F0.55625
sg35
F1.0562500000000001
sssI2012
(dp50
g2
(dp51
g4
F0.875
sg5
F0.625
sg6
F1.0625
sg7
F0.4375
sg8
F0.8125
sg9
F0.625
sg10
F1.1875
sg11
F2.0625
sg12
F2.6875
sg13
F2.1875
sg14
F2.5
sg15
F2.6875
sg16
F1.5625
sg17
F0.9375
sg18
F2.125
sg19
F1.8125
sg20
F0.375
sg21
F0.0546875
sg22
F1.8125
sg23
F0.625
sg24
F1.8125
sg25
F0.5
sg26
F1.4375
sg27
F0.75
sg28
F0.0703125
sg29
F0.0625
sg30
F1.125
sg31
F1.125
sg32
F0.5
sg33
F1.1875
sg34
F1.3125
sg35
F2.625
ssg36
(dp52
g4
F2.15375
sg5
F5.7975
sg6
F4.1775
sg7
F4.81625
sg8
F5.08625
sg9
F2.4025
sg10
F5.31625
sg11
F3.655
sg12
F6.016249999999999
sg13
F5.1975
sg14
F2.1387500000000004
sg15
F5.9
sg16
F5.31625
sg17
F3.25125
sg18
F6.698750000000001
sg19
F4.87125
sg20
F4.796250000000001
sg21
F0.32796875000000003
sg22
F2.37625
sg23
F2.47375
sg24
F3.1325000000000003
sg25
F3.3762499999999998
sg26
F3.85625
sg27
F1.7374999999999998
sg28
F0.419609375
sg29
F5.9125
sg30
F2.36375
sg31
F2.5075000000000003
sg32
F5.1475
sg33
F7.585
sg34
F1.79375
sg35
F4.755
ssg38
(dp53
g4
F5.03125
sg5
F5.012500000000002
sg6
F4.125
sg7
F1.81875
sg8
F6.0562499999999995
sg9
F7.09375
sg10
F7.475
sg11
F7.575
sg12
F7.75625
sg13
F10.237499999999999
sg14
F6.7375000000000025
sg15
F9.2875
sg16
F3.7312499999999997
sg17
F5.5875
sg18
F4.825
sg19
F7.337500000000001
sg20
F8.243750000000002
sg21
F0.4265625
sg22
F2.0187500000000003
sg23
F2.14375
sg24
F5.6187499999999995
sg25
F9.175000000000002
sg26
F5.425
sg27
F5.218749999999999
sg28
F0.3578125
sg29
F7.175
sg30
F9.2625
sg31
F6.393749999999999
sg32
F10.81875
sg33
F6.787500000000001
sg34
F4.0687500000000005
sg35
F9.15
ssg40
(dp54
g4
F3.7625
sg5
F4.16875
sg6
F1.7750000000000001
sg7
F5.531249999999999
sg8
F6.36875
sg9
F5.1187499999999995
sg10
F7.593750000000001
sg11
F2.3000000000000003
sg12
F5.6125
sg13
F3.66875
sg14
F3.3
sg15
F6.5375
sg16
F5.550000000000001
sg17
F3.9437500000000005
sg18
F6.331250000000001
sg19
F2.93125
sg20
F5.05
sg21
F0.16406250000000003
sg22
F2.93125
sg23
F6.99375
sg24
F5.581250000000001
sg25
F2.0999999999999996
sg26
F1.24375
sg27
F4.643750000000001
sg28
F0.35976562500000003
sg29
F7.725
sg30
F3.3375000000000004
sg31
F1.4875000000000003
sg32
F3.38125
sg33
F9.212500000000002
sg34
F7.062499999999999
sg35
F4.78125
ssg42
(dp55
g4
F0.48750000000000004
sg5
F1.9312500000000001
sg6
F1.88125
sg7
F0.46875
sg8
F0.925
sg9
F0.20625000000000002
sg10
F0.48750000000000004
sg11
F2.35625
sg12
F0.36875
sg13
F0.3625
sg14
F1.71875
sg15
F1.15625
sg16
F1.775
sg17
F1.0875
sg18
F0.6625000000000001
sg19
F0.525
sg20
F1.53125
sg21
F0.094921875
sg22
F2.68125
sg23
F1.0875000000000001
sg24
F0.275
sg25
F1.75625
sg26
F2.8875
sg27
F2.2062500000000003
sg28
F0.14687499999999998
sg29
F1.3249999999999997
sg30
F2.20625
sg31
F2.19375
sg32
F1.48125
sg33
F1.1375
sg34
F0.16875
sg35
F2.0375
sssI2013
(dp56
g2
(dp57
g4
F2.875
sg5
F1.3125
sg6
F3.375
sg7
F1.4375
sg8
F1.1875
sg9
F1.5
sg10
F2.3125
sg11
F2.375
sg12
F2.8125
sg13
F1.625
sg14
F2.875
sg15
F2.6875
sg16
F1.125
sg17
F1.4375
sg18
F1.9375
sg19
F2.75
sg20
F1.5
sg21
F0.1171875
sg22
F1.75
sg23
F1.5625
sg24
F1.75
sg25
F2.25
sg26
F2.75
sg27
F0.875
sg28
F0.0546875
sg29
F0.6875
sg30
F1.5
sg31
F1.1875
sg32
F1.1875
sg33
F2.4375
sg34
F1.3125
sg35
F1.8125
ssg36
(dp58
g4
F2.3737500000000002
sg5
F10.8925
sg6
F3.79375
sg7
F12.068750000000001
sg8
F6.602500000000001
sg9
F3.21125
sg10
F7.401249999999999
sg11
F6.063750000000001
sg12
F4.70125
sg13
F4.022500000000001
sg14
F5.143750000000001
sg15
F5.859999999999999
sg16
F10.022499999999997
sg17
F8.473749999999999
sg18
F3.4875000000000003
sg19
F3.3825
sg20
F4.9350000000000005
sg21
F0.55328125
sg22
F3.9224999999999994
sg23
F8.221250000000001
sg24
F5.0175
sg25
F6.5775
sg26
F7.565
sg27
F5.43625
sg28
F0.446640625
sg29
F6.62625
sg30
F4.94125
sg31
F3.7962499999999997
sg32
F8.08375
sg33
F5.682499999999999
sg34
F5.10375
sg35
F3.8425000000000002
ssg38
(dp59
g4
F12.693750000000003
sg5
F14.15625
sg6
F12.13125
sg7
F13.69375
sg8
F9.756249999999998
sg9
F9.250000000000002
sg10
F9.250000000000002
sg11
F12.3875
sg12
F14.262500000000001
sg13
F9.000000000000002
sg14
F14.0875
sg15
F5.7749999999999995
sg16
F9.481250000000001
sg17
F6.05
sg18
F9.481250000000003
sg19
F10.837500000000002
sg20
F10.837500000000002
sg21
F0.905078125
sg22
F8.837500000000002
sg23
F15.450000000000001
sg24
F12.3875
sg25
F12.825
sg26
F7.3999999999999995
sg27
F6.70625
sg28
F0.6421874999999999
sg29
F11.093750000000002
sg30
F10.6875
sg31
F10.175000000000002
sg32
F10.837499999999999
sg33
F8.250000000000002
sg34
F7.31875
sg35
F7.1625
ssg40
(dp60
g4
F5.768750000000001
sg5
F7.018749999999999
sg6
F9.5625
sg7
F10.237500000000004
sg8
F7.975
sg9
F5.981250000000001
sg10
F8.068750000000001
sg11
F6.518750000000001
sg12
F6.450000000000001
sg13
F9.793750000000001
sg14
F8.112499999999999
sg15
F5.899999999999999
sg16
F6.4499999999999975
sg17
F3.9749999999999996
sg18
F5.5874999999999995
sg19
F2.45
sg20
F7.943750000000001
sg21
F0.30039062499999997
sg22
F5.218750000000001
sg23
F6.23125
sg24
F7.762499999999999
sg25
F5.18125
sg26
F6.00625
sg27
F7.6
sg28
F0.4171875
sg29
F9.975
sg30
F6.924999999999999
sg31
F5.7625
sg32
F8.381249999999998
sg33
F7.606250000000001
sg34
F6.887499999999999
sg35
F4.41875
ssg42
(dp61
g4
F4.018750000000001
sg5
F4.08125
sg6
F3.6312500000000005
sg7
F2.0
sg8
F3.7312500000000006
sg9
F4.46875
sg10
F3.58125
sg11
F3.0375
sg12
F3.8812500000000005
sg13
F1.50625
sg14
F4.49375
sg15
F3.2125000000000004
sg16
F1.2750000000000001
sg17
F3.9562500000000007
sg18
F3.4125
sg19
F4.825
sg20
F4.268750000000001
sg21
F0.36210937500000007
sg22
F2.4187499999999997
sg23
F2.58125
sg24
F3.9249999999999994
sg25
F4.3
sg26
F2.9375
sg27
F3.89375
sg28
F0.11953124999999998
sg29
F2.08125
sg30
F4.23125
sg31
F3.9937500000000004
sg32
F2.7124999999999995
sg33
F4.5625
sg34
F2.8812500000000005
sg35
F1.8000000000000003
sssI2014
(dp62
g2
(dp63
g4
F2.75
sg5
F1.625
sg6
F2.5625
sg7
F2.1875
sg8
F2.625
sg9
F4.3125
sg10
F4.75
sg11
F1.375
sg12
F2.75
sg13
F2.1875
sg14
F3.1875
sg15
F4.3125
sg16
F2.0625
sg17
F2.9375
sg18
F1.75
sg19
F2.0
sg20
F1.5
sg21
F0.28125
sg22
F3.75
sg23
F2.625
sg24
F2.5625
sg25
F3.0625
sg26
F1.75
sg27
F4.625
sg28
F0.2890625
sg29
F2.875
sg30
F1.0
sg31
F3.6470588235294117
sg32
F2.4375
sg33
F3.3125
sg34
F1.9375
sg35
F4.4375
ssg36
(dp64
g4
F9.303749999999999
sg5
F5.607500000000001
sg6
F7.31625
sg7
F6.5874999999999995
sg8
F7.146250000000001
sg9
F8.2425
sg10
F3.6975000000000002
sg11
F4.199999999999999
sg12
F10.315
sg13
F6.289999999999999
sg14
F7.486249999999999
sg15
F7.485
sg16
F2.9475
sg17
F9.815000000000001
sg18
F5.16625
sg19
F5.516249999999999
sg20
F5.3
sg21
F0.501953125
sg22
F4.0249999999999995
sg23
F3.37875
sg24
F8.0575
sg25
F3.095
sg26
F5.663749999999999
sg27
F6.015
sg28
F0.4740625
sg29
F4.166250000000001
sg30
F9.084999999999999
sg31
F4.376470588235294
sg32
F6.202500000000001
sg33
F4.8725
sg34
F4.71625
sg35
F9.4175
ssg38
(dp65
g4
F11.51875
sg5
F12.349999999999998
sg6
F12.775
sg7
F19.2375
sg8
F16.093750000000004
sg9
F14.981250000000003
sg10
F11.2875
sg11
F16.206249999999997
sg12
F19.025000000000002
sg13
F18.7
sg14
F19.7625
sg15
F11.44375
sg16
F17.249999999999996
sg17
F9.018749999999999
sg18
F13.712500000000002
sg19
F10.787500000000001
sg20
F12.65625
sg21
F0.7898437499999998
sg22
F7.625000000000001
sg23
F14.53125
sg24
F18.7875
sg25
F13.200000000000001
sg26
F14.987499999999997
sg27
F15.475
sg28
F0.9875000000000004
sg29
F9.356250000000001
sg30
F17.349999999999998
sg31
F14.205882352941178
sg32
F11.69375
sg33
F13.124999999999998
sg34
F15.775
sg35
F18.593750000000004
ssg40
(dp66
g4
F12.512500000000003
sg5
F13.549999999999999
sg6
F11.85
sg7
F18.162500000000005
sg8
F16.018749999999997
sg9
F9.137500000000001
sg10
F15.78125
sg11
F7.30625
sg12
F12.075
sg13
F14.987499999999999
sg14
F10.14375
sg15
F11.700000000000001
sg16
F12.2625
sg17
F7.437499999999999
sg18
F18.287499999999994
sg19
F11.606250000000001
sg20
F10.875
sg21
F0.8246093750000002
sg22
F9.825000000000001
sg23
F11.325
sg24
F10.70625
sg25
F11.6375
sg26
F9.337500000000002
sg27
F12.643749999999999
sg28
F0.610546875
sg29
F9.68125
sg30
F10.687499999999996
sg31
F10.888235294117644
sg32
F8.537499999999998
sg33
F10.924999999999999
sg34
F11.900000000000002
sg35
F10.481250000000003
ssg42
(dp67
g4
F5.2
sg5
F4.34375
sg6
F6.800000000000001
sg7
F1.1375
sg8
F1.8062500000000001
sg9
F3.73125
sg10
F6.4375
sg11
F5.3062499999999995
sg12
F2.18125
sg13
F2.5312500000000004
sg14
F4.21875
sg15
F6.3687499999999995
sg16
F1.9062500000000002
sg17
F8.7625
sg18
F3.48125
sg19
F3.2062500000000003
sg20
F2.9624999999999995
sg21
F0.36796875
sg22
F4.9437500000000005
sg23
F5.7250000000000005
sg24
F4.2
sg25
F5.606249999999999
sg26
F3.0312500000000004
sg27
F6.24375
sg28
F0.27539062500000006
sg29
F2.7875
sg30
F3.1312499999999996
sg31
F4.46470588235294
sg32
F6.4312499999999995
sg33
F4.731250000000001
sg34
F3.3312500000000003
sg35
F6.25625
sssI2015
(dp68
g2
(dp69
g4
F4.0
sg5
F2.5
sg6
F3.4375
sg7
F3.0
sg8
F3.176470588235294
sg9
F5.3125
sg10
F5.5625
sg11
F4.25
sg12
F3.5625
sg13
F5.0
sg14
F4.3125
sg15
F5.75
sg16
F2.875
sg17
F3.375
sg18
F5.8125
sg19
F2.7058823529411766
sg20
F3.0625
sg21
F0.171875
sg22
F4.0
sg23
F3.0625
sg24
F4.875
sg25
F3.875
sg26
F2.5625
sg27
F3.875
sg28
F0.2109375
sg29
F3.176470588235294
sg30
F2.25
sg31
F3.0
sg32
F2.8823529411764706
sg33
F3.125
sg34
F2.125
sg35
F2.1875
ssg36
(dp70
g4
F5.20125
sg5
F4.73
sg6
F10.15
sg7
F9.15625
sg8
F13.187058823529414
sg9
F8.442500000000003
sg10
F6.51875
sg11
F4.94125
sg12
F8.60875
sg13
F8.151250000000001
sg14
F11.61875
sg15
F9.85625
sg16
F9.982500000000002
sg17
F9.5475
sg18
F6.842499999999999
sg19
F6.881176470588237
sg20
F4.8125
sg21
F0.47421875
sg22
F6.6525
sg23
F9.67375
sg24
F13.1925
sg25
F9.2725
sg26
F6.81875
sg27
F12.051249999999998
sg28
F0.52171875
sg29
F7.409411764705883
sg30
F8.99625
sg31
F5.7875
sg32
F9.17529411764706
sg33
F6.428749999999999
sg34
F6.4975
sg35
F7.678749999999999
ssg38
(dp71
g4
F14.931249999999999
sg5
F16.775000000000002
sg6
F12.05625
sg7
F18.0375
sg8
F22.058823529411764
sg9
F15.343749999999996
sg10
F10.54375
sg11
F20.075
sg12
F22.900000000000006
sg13
F21.081250000000004
sg14
F23.61250000000001
sg15
F18.34375
sg16
F23.91875
sg17
F17.412499999999998
sg18
F13.956250000000002
sg19
F17.835294117647056
sg20
F18.231250000000003
sg21
F1.3691406250000007
sg22
F14.2625
sg23
F22.5125
sg24
F23.000000000000004
sg25
F21.425000000000004
sg26
F15.925000000000004
sg27
F22.993750000000006
sg28
F1.239453125
sg29
F18.400000000000006
sg30
F17.86875
sg31
F17.843749999999996
sg32
F19.311764705882357
sg33
F18.537500000000005
sg34
F20.5125
sg35
F22.818749999999998
ssg40
(dp72
g4
F10.174999999999999
sg5
F12.968750000000002
sg6
F15.406249999999998
sg7
F12.825
sg8
F15.664705882352942
sg9
F19.6625
sg10
F10.69375
sg11
F11.037499999999994
sg12
F16.21875
sg13
F13.7375
sg14
F12.481250000000001
sg15
F16.006249999999998
sg16
F13.781250000000004
sg17
F13.631250000000001
sg18
F12.63125
sg19
F11.652941176470586
sg20
F12.068749999999998
sg21
F0.8824218750000001
sg22
F8.831249999999999
sg23
F9.868749999999999
sg24
F14.106249999999994
sg25
F14.206250000000004
sg26
F10.08125
sg27
F12.999999999999996
sg28
F0.9804687500000001
sg29
F13.28235294117647
sg30
F12.54375
sg31
F16.725
sg32
F9.952941176470588
sg33
F16.581250000000004
sg34
F12.575000000000003
sg35
F11.118749999999999
ssg42
(dp73
g4
F5.75
sg5
F7.7437499999999995
sg6
F6.83125
sg7
F6.856249999999999
sg8
F5.870588235294117
sg9
F6.9125
sg10
F6.5625
sg11
F9.137500000000001
sg12
F5.5875
sg13
F6.318750000000002
sg14
F4.487500000000001
sg15
F7.2625
sg16
F3.4562500000000007
sg17
F6.4875
sg18
F5.68125
sg19
F4.717647058823529
sg20
F4.9125
sg21
F0.34375
sg22
F5.300000000000001
sg23
F3.40625
sg24
F3.50625
sg25
F3.2125000000000004
sg26
F5.3500000000000005
sg27
F7.58125
sg28
F0.41250000000000003
sg29
F6.129411764705882
sg30
F4.768750000000001
sg31
F5.2749999999999995
sg32
F4.111764705882353
sg33
F4.3625
sg34
F4.9625
sg35
F3.931250000000001
sss.