(dp0
S'2015'
p1
(dp2
S'K'
p3
(dp4
S'MIN'
p5
F108.0
sS'MIA'
p6
F105.0
sS'CAR'
p7
F75.0
sS'ATL'
p8
F99.0
sS'OAK'
p9
F139.0
sS'CIN'
p10
F105.0
sS'NYJ'
p11
F108.0
sS'DEN'
p12
F102.0
sS'BAL'
p13
F127.0
sS'NYG'
p14
F140.0
sS'DET'
p15
F116.0
sS'TEN'
p16
F115.0
sS'NO'
p17
F99.0
sS'DAL'
p18
F126.0
sS'NE'
p19
F97.0
sS'SEA'
p20
F103.0
sS'CHI'
p21
F115.0
sS'BUF'
p22
F99.0
sS'STL'
p23
F134.0
sS'CLE'
p24
F134.0
sS'TB'
p25
F122.0
sS'HOU'
p26
F88.0
sS'GB'
p27
F103.0
sS'WAS'
p28
F109.0
sS'JAC'
p29
F123.0
sS'KC'
p30
F79.0
sS'PHI'
p31
F128.0
sS'PIT'
p32
F107.0
sS'IND'
p33
F124.0
sS'ARI'
p34
F105.0
sS'SF'
p35
F119.0
sS'SD'
p36
F126.0
ssS'QB'
p37
(dp38
g5
F246.26000000000002
sg6
F268.12
sg7
F224.86000000000007
sg8
F231.53999999999996
sg9
F271.58
sg10
F209.39999999999998
sg11
F217.70000000000002
sg12
F197.16000000000003
sg13
F271.52000000000004
sg14
F321.7
sg15
F264.24
sg16
F305.09999999999997
sg17
F379.59999999999997
sg18
F253.43999999999994
sg19
F254.09999999999994
sg20
F202.46000000000004
sg21
F307.4
sg22
F267.82000000000005
sg23
F246.42000000000004
sg24
F301.15999999999997
sg25
F269.58000000000004
sg26
F222.66000000000003
sg27
F233.52
sg28
F288.18
sg29
F288.44000000000005
sg30
F221.58
sg31
F319.5
sg32
F272.96
sg33
F269.64000000000004
sg34
F231.94
sg35
F262.20000000000005
sg36
F236.04000000000002
ssS'WR'
p39
(dp40
g5
F503.00000000000006
sg6
F580.0999999999998
sg7
F518.4
sg8
F410.40000000000003
sg9
F533.5
sg10
F541.0999999999999
sg11
F564.6999999999998
sg12
F426.39999999999986
sg13
F632.1999999999999
sg14
F590.2999999999998
sg15
F569.8999999999999
sg16
F579.3000000000002
sg17
F591.4999999999999
sg18
F485.0
sg19
F594.1999999999999
sg20
F423.9000000000001
sg21
F435.30000000000007
sg22
F623.7999999999998
sg23
F537.5
sg24
F631.0000000000001
sg25
F615.1
sg26
F506.00000000000006
sg27
F480.7
sg28
F578.5999999999997
sg29
F560.5000000000002
sg30
F597.6999999999999
sg31
F632.1000000000003
sg32
F668.5
sg33
F609.8999999999999
sg34
F469.50000000000017
sg35
F558.3999999999997
sg36
F488.2
ssS'RB'
p41
(dp42
g5
F315.9
sg6
F460.8000000000001
sg7
F352.7
sg8
F400.2000000000001
sg9
F381.00000000000017
sg10
F367.90000000000003
sg11
F277.6
sg12
F331.8999999999999
sg13
F319.1000000000001
sg14
F402.4999999999998
sg15
F347.69999999999993
sg16
F302.69999999999993
sg17
F402.70000000000005
sg18
F413.90000000000003
sg19
F320.1
sg20
F275.5000000000001
sg21
F355.9
sg22
F333.4
sg23
F348.20000000000005
sg24
F354.20000000000005
sg25
F331.00000000000006
sg26
F324.50000000000006
sg27
F316.40000000000003
sg28
F373.10000000000014
sg29
F428.9999999999999
sg30
F293.8
sg31
F397.1
sg32
F288.9000000000001
sg33
F372.40000000000003
sg34
F316.5
sg35
F445.3
sg36
F418.1000000000001
ssS'TE'
p43
(dp44
g5
F204.50000000000003
sg6
F185.30000000000004
sg7
F191.10000000000005
sg8
F248.40000000000003
sg9
F233.90000000000003
sg10
F168.80000000000004
sg11
F153.6
sg12
F208.4
sg13
F148.1
sg14
F283.3
sg15
F233.8
sg16
F222.7
sg17
F287.0
sg18
F146.49999999999997
sg19
F152.19999999999996
sg20
F200.79999999999998
sg21
F199.70000000000007
sg22
F177.60000000000005
sg23
F215.5
sg24
F160.7
sg25
F200.29999999999995
sg26
F184.99999999999994
sg27
F198.0
sg28
F202.89999999999998
sg29
F229.49999999999994
sg30
F149.20000000000002
sg31
F182.89999999999998
sg32
F226.4
sg33
F221.20000000000002
sg34
F209.29999999999998
sg35
F173.40000000000003
sg36
F200.50000000000003
sssS'2014'
p45
(dp46
g3
(dp47
g5
F102.0
sg6
F117.0
sg7
F102.0
sg8
F119.0
sg9
F135.0
sg10
F106.0
sg11
F115.0
sg12
F106.0
sg13
F111.0
sg14
F119.0
sg15
F82.0
sg16
F137.0
sg17
F127.0
sg18
F86.0
sg19
F115.0
sg20
F88.0
sg21
F148.0
sg22
F111.0
sg23
F114.0
sg24
F121.0
sg25
F118.0
sg26
F88.0
sg27
F95.0
sg28
F116.0
sg29
F132.0
sg30
F121.0
sg31
F112.0
sg32
F112.0
sg33
F85.0
sg34
F107.0
sg35
F100.0
sg36
F120.0
ssg37
(dp48
g5
F233.14
sg6
F207.02
sg7
F259.42
sg8
F264.82
sg9
F214.6
sg10
F200.57999999999998
sg11
F207.84
sg12
F250.58000000000004
sg13
F256.88
sg14
F275.78
sg15
F210.62000000000006
sg16
F247.93999999999997
sg17
F289.68
sg18
F240.58000000000004
sg19
F191.84000000000003
sg20
F152.98000000000002
sg21
F304.32
sg22
F188.12
sg23
F227.57999999999998
sg24
F191.02
sg25
F262.47999999999996
sg26
F236.66
sg27
F237.25999999999996
sg28
F315.14
sg29
F231.05999999999997
sg30
F140.32
sg31
F302.1000000000001
sg32
F268.90000000000003
sg33
F209.18000000000004
sg34
F235.88
sg35
F185.28
sg36
F226.0
ssg39
(dp49
g5
F507.8000000000001
sg6
F532.8
sg7
F530.0
sg8
F556.8000000000001
sg9
F495.49999999999994
sg10
F467.3999999999999
sg11
F545.0000000000001
sg12
F480.99999999999994
sg13
F590.3
sg14
F427.20000000000016
sg15
F523.0000000000001
sg16
F465.8
sg17
F566.3000000000001
sg18
F450.70000000000005
sg19
F433.3999999999999
sg20
F338.80000000000007
sg21
F520.4
sg22
F488.1000000000001
sg23
F585.7
sg24
F523.2000000000002
sg25
F559.7
sg26
F574.8
sg27
F510.20000000000005
sg28
F552.4999999999999
sg29
F458.2999999999999
sg30
F523.4999999999999
sg31
F613.3999999999999
sg32
F560.0000000000001
sg33
F440.90000000000003
sg34
F516.6999999999999
sg35
F489.70000000000005
sg36
F520.9
ssg41
(dp50
g5
F348.00000000000006
sg6
F331.30000000000007
sg7
F317.70000000000005
sg8
F415.9
sg9
F401.99999999999994
sg10
F371.30000000000007
sg11
F287.49999999999994
sg12
F302.8
sg13
F240.0
sg14
F284.7
sg15
F291.90000000000003
sg16
F379.9000000000001
sg17
F394.59999999999997
sg18
F325.70000000000005
sg19
F335.3
sg20
F296.59999999999997
sg21
F307.8
sg22
F309.4000000000001
sg23
F281.7
sg24
F350.69999999999993
sg25
F306.59999999999997
sg26
F317.30000000000007
sg27
F294.3
sg28
F251.49999999999994
sg29
F381.40000000000003
sg30
F267.8999999999999
sg31
F331.8
sg32
F267.7999999999999
sg33
F341.8
sg34
F239.49999999999997
sg35
F261.2999999999999
sg36
F304.6
ssg43
(dp51
g5
F165.3
sg6
F145.30000000000004
sg7
F156.8
sg8
F137.0
sg9
F202.99999999999994
sg10
F172.29999999999998
sg11
F231.29999999999998
sg12
F235.19999999999996
sg13
F164.69999999999996
sg14
F190.8
sg15
F183.3
sg16
F196.70000000000005
sg17
F133.50000000000003
sg18
F247.2
sg19
F213.29999999999998
sg20
F181.60000000000005
sg21
F244.1
sg22
F124.30000000000001
sg23
F141.1
sg24
F151.70000000000002
sg25
F156.29999999999998
sg26
F135.8
sg27
F156.09999999999997
sg28
F213.0
sg29
F184.79999999999998
sg30
F136.1
sg31
F137.20000000000002
sg32
F199.6
sg33
F214.19999999999996
sg34
F239.50000000000003
sg35
F201.30000000000004
sg36
F139.6
sssS'2011'
p52
(dp53
g3
(dp54
g5
F102.0
sg6
F73.0
sg7
F72.0
sg8
F46.0
sg9
F92.0
sg10
F56.0
sg11
F88.0
sg12
F94.0
sg13
F79.0
sg14
F70.0
sg15
F89.0
sg16
F67.0
sg17
F70.0
sg18
F55.0
sg19
F71.0
sg20
F60.0
sg21
F70.0
sg22
F88.0
sg23
F68.0
sg24
F80.0
sg25
F44.0
sg26
F73.0
sg27
F53.0
sg28
F64.0
sg29
F56.0
sg30
F78.0
sg31
F63.0
sg32
F47.0
sg33
F71.0
sg34
F77.0
sg35
F47.0
sg36
F96.0
ssg37
(dp55
g5
F259.78000000000003
sg6
F213.25999999999996
sg7
F195.22
sg8
F185.28000000000003
sg9
F209.16
sg10
F135.62
sg11
F120.16
sg12
F183.74
sg13
F119.22
sg14
F214.78000000000006
sg15
F213.58
sg16
F187.0
sg17
F227.26
sg18
F149.18
sg19
F213.52
sg20
F140.62
sg21
F184.37999999999994
sg22
F191.92000000000002
sg23
F162.66000000000003
sg24
F129.5
sg25
F257.1
sg26
F134.33999999999997
sg27
F219.90000000000003
sg28
F187.32
sg29
F168.26
sg30
F164.07999999999998
sg31
F169.48000000000005
sg32
F120.78000000000002
sg33
F225.08
sg34
F189.04000000000002
sg35
F133.32000000000002
sg36
F194.42000000000002
ssg39
(dp56
g5
F335.4000000000001
sg6
F232.29999999999998
sg7
F225.9
sg8
F308.0000000000001
sg9
F244.3
sg10
F270.0
sg11
F165.7
sg12
F290.2
sg13
F310.00000000000006
sg14
F244.60000000000005
sg15
F405.90000000000003
sg16
F240.7
sg17
F363.69999999999993
sg18
F247.00000000000003
sg19
F386.8
sg20
F279.70000000000005
sg21
F327.00000000000006
sg22
F208.20000000000002
sg23
F414.3
sg24
F231.60000000000005
sg25
F287.5999999999999
sg26
F276.2
sg27
F312.70000000000005
sg28
F295.29999999999995
sg29
F292.59999999999997
sg30
F221.3
sg31
F229.80000000000004
sg32
F194.79999999999998
sg33
F328.2
sg34
F389.1
sg35
F295.1
sg36
F211.49999999999997
ssg41
(dp57
g5
F198.60000000000005
sg6
F173.20000000000002
sg7
F254.60000000000005
sg8
F213.90000000000003
sg9
F187.0
sg10
F84.4
sg11
F161.00000000000003
sg12
F229.6
sg13
F77.30000000000001
sg14
F191.5
sg15
F218.8
sg16
F150.20000000000002
sg17
F161.60000000000002
sg18
F132.20000000000002
sg19
F202.79999999999998
sg20
F132.3
sg21
F153.60000000000002
sg22
F253.2
sg23
F143.40000000000003
sg24
F104.09999999999998
sg25
F301.8
sg26
F111.99999999999999
sg27
F149.70000000000002
sg28
F177.8
sg29
F159.60000000000002
sg30
F144.40000000000003
sg31
F149.10000000000002
sg32
F74.1
sg33
F160.89999999999998
sg34
F139.8
sg35
F66.6
sg36
F85.20000000000002
ssg43
(dp58
g5
F114.2
sg6
F120.30000000000001
sg7
F92.7
sg8
F118.30000000000001
sg9
F116.9
sg10
F109.89999999999999
sg11
F153.90000000000003
sg12
F70.89999999999999
sg13
F73.3
sg14
F141.0
sg15
F96.19999999999999
sg16
F91.79999999999998
sg17
F59.0
sg18
F125.40000000000002
sg19
F86.90000000000002
sg20
F101.0
sg21
F99.00000000000001
sg22
F176.80000000000004
sg23
F83.8
sg24
F124.9
sg25
F118.4
sg26
F87.60000000000001
sg27
F119.8
sg28
F174.39999999999998
sg29
F159.50000000000003
sg30
F105.39999999999999
sg31
F82.30000000000001
sg32
F139.70000000000002
sg33
F124.0
sg34
F106.10000000000002
sg35
F99.7
sg36
F105.20000000000002
sssS'2010'
p59
(dp60
g3
(dp61
g5
F66.0
sg6
F64.0
sg7
F71.0
sg8
F31.0
sg9
F62.0
sg10
F81.0
sg11
F64.0
sg12
F66.0
sg13
F72.0
sg14
F31.0
sg15
F74.0
sg16
F86.0
sg17
F41.0
sg18
F37.0
sg19
F44.0
sg20
F68.0
sg21
F36.0
sg22
F99.0
sg23
F64.0
sg24
F61.0
sg25
F31.0
sg26
F70.0
sg27
F47.0
sg28
F44.0
sg29
F48.0
sg30
F61.0
sg31
F39.0
sg32
F62.0
sg33
F61.0
sg34
F64.0
sg35
F62.0
sg36
F50.0
ssg37
(dp62
g5
F196.21999999999997
sg6
F188.84
sg7
F183.56
sg8
F174.56
sg9
F160.33999999999997
sg10
F179.89999999999998
sg11
F199.64000000000001
sg12
F142.22000000000003
sg13
F164.64000000000001
sg14
F71.48
sg15
F176.70000000000002
sg16
F125.66000000000001
sg17
F139.7
sg18
F136.78
sg19
F196.26000000000002
sg20
F237.18
sg21
F130.10000000000002
sg22
F210.82000000000005
sg23
F132.12
sg24
F212.04
sg25
F134.4
sg26
F142.9
sg27
F113.89999999999999
sg28
F132.2
sg29
F126.94
sg30
F100.19999999999999
sg31
F161.28
sg32
F179.82
sg33
F66.52000000000001
sg34
F141.42
sg35
F169.02000000000004
sg36
F75.25999999999999
ssg39
(dp63
g5
F275.2
sg6
F171.4
sg7
F259.3
sg8
F326.40000000000003
sg9
F222.7
sg10
F235.99999999999994
sg11
F231.79999999999998
sg12
F154.70000000000002
sg13
F255.9
sg14
F230.4
sg15
F212.09999999999997
sg16
F223.80000000000004
sg17
F122.40000000000002
sg18
F282.79999999999995
sg19
F215.70000000000002
sg20
F327.4
sg21
F201.3
sg22
F133.20000000000002
sg23
F250.99999999999994
sg24
F240.6
sg25
F181.09999999999997
sg26
F192.60000000000002
sg27
F173.3
sg28
F233.29999999999998
sg29
F230.90000000000003
sg30
F199.19999999999996
sg31
F210.1
sg32
F197.20000000000002
sg33
F156.8
sg34
F230.69999999999996
sg35
F293.3
sg36
F162.39999999999998
ssg41
(dp64
g5
F79.4
sg6
F113.50000000000003
sg7
F88.7
sg8
F100.0
sg9
F182.30000000000004
sg10
F107.39999999999999
sg11
F98.5
sg12
F308.5
sg13
F60.80000000000001
sg14
F135.6
sg15
F196.99999999999997
sg16
F192.60000000000002
sg17
F104.39999999999998
sg18
F120.60000000000001
sg19
F136.29999999999998
sg20
F178.10000000000002
sg21
F117.10000000000002
sg22
F111.49999999999999
sg23
F173.5
sg24
F52.70000000000002
sg25
F70.8
sg26
F150.9
sg27
F127.60000000000002
sg28
F139.5
sg29
F234.2
sg30
F162.79999999999998
sg31
F115.3
sg32
F64.5
sg33
F235.10000000000002
sg34
F193.20000000000007
sg35
F148.90000000000003
sg36
F164.4
ssg43
(dp65
g5
F98.60000000000001
sg6
F84.8
sg7
F66.9
sg8
F77.10000000000001
sg9
F121.3
sg10
F73.80000000000001
sg11
F61.300000000000004
sg12
F97.70000000000002
sg13
F81.10000000000001
sg14
F88.7
sg15
F56.7
sg16
F137.3
sg17
F71.0
sg18
F74.50000000000001
sg19
F75.80000000000001
sg20
F100.8
sg21
F69.9
sg22
F111.8
sg23
F64.6
sg24
F72.8
sg25
F58.099999999999994
sg26
F105.89999999999998
sg27
F103.10000000000002
sg28
F107.80000000000003
sg29
F104.0
sg30
F97.40000000000002
sg31
F132.99999999999997
sg32
F90.0
sg33
F118.20000000000002
sg34
F97.1
sg35
F42.4
sg36
F100.60000000000001
sssS'2013'
p66
(dp67
g3
(dp68
g5
F100.0
sg6
F115.0
sg7
F81.0
sg8
F102.0
sg9
F103.0
sg10
F90.0
sg11
F111.0
sg12
F101.0
sg13
F114.0
sg14
F104.0
sg15
F108.0
sg16
F120.0
sg17
F96.0
sg18
F99.0
sg19
F84.0
sg20
F62.0
sg21
F88.0
sg22
F107.0
sg23
F71.0
sg24
F117.0
sg25
F106.0
sg26
F111.0
sg27
F91.0
sg28
F100.0
sg29
F101.0
sg30
F85.0
sg31
F105.0
sg32
F99.0
sg33
F79.0
sg34
F78.0
sg35
F60.0
sg36
F88.0
ssg37
(dp69
g5
F348.22
sg6
F218.36
sg7
F191.07999999999998
sg8
F306.02
sg9
F260.38
sg10
F209.89999999999998
sg11
F236.6
sg12
F228.71999999999997
sg13
F173.4
sg14
F200.01999999999995
sg15
F235.04000000000005
sg16
F182.38000000000005
sg17
F216.94
sg18
F280.8
sg19
F229.14000000000001
sg20
F138.56
sg21
F205.5
sg22
F220.64
sg23
F225.16000000000003
sg24
F243.78000000000003
sg25
F293.68
sg26
F207.24000000000004
sg27
F254.54
sg28
F209.48000000000002
sg29
F280.20000000000005
sg30
F145.67999999999998
sg31
F220.66000000000003
sg32
F207.06
sg33
F206.24
sg34
F256.7
sg35
F190.11999999999998
sg36
F155.5
ssg39
(dp70
g5
F556.7000000000002
sg6
F408.7
sg7
F381.90000000000003
sg8
F509.19999999999993
sg9
F462.99999999999994
sg10
F350.99999999999994
sg11
F527.0999999999999
sg12
F428.29999999999995
sg13
F467.9000000000001
sg14
F387.90000000000003
sg15
F497.3
sg16
F301.1
sg17
F384.99999999999983
sg18
F433.99999999999994
sg19
F453.6999999999999
sg20
F298.29999999999995
sg21
F440.1000000000001
sg22
F465.59999999999997
sg23
F519.0
sg24
F382.9999999999999
sg25
F466.70000000000005
sg26
F391.2
sg27
F408.5
sg28
F413.90000000000003
sg29
F442.3999999999999
sg30
F475.69999999999993
sg31
F590.5999999999999
sg32
F418.40000000000015
sg33
F480.80000000000007
sg34
F326.1
sg35
F426.60000000000014
sg36
F473.59999999999997
ssg41
(dp71
g5
F289.7
sg6
F286.59999999999997
sg7
F218.20000000000005
sg8
F324.4
sg9
F330.1
sg10
F199.79999999999998
sg11
F205.39999999999998
sg12
F275.90000000000003
sg13
F254.7
sg14
F295.2
sg15
F216.80000000000004
sg16
F292.5
sg17
F225.0
sg18
F383.40000000000003
sg19
F247.90000000000003
sg20
F201.80000000000004
sg21
F300.3
sg22
F264.7
sg23
F279.6000000000001
sg24
F339.79999999999995
sg25
F244.20000000000002
sg26
F274.8
sg27
F304.6000000000001
sg28
F302.49999999999994
sg29
F254.6
sg30
F267.0
sg31
F233.29999999999995
sg32
F268.2
sg33
F219.6
sg34
F161.9
sg35
F174.7
sg36
F281.90000000000003
ssg43
(dp72
g5
F198.19999999999996
sg6
F187.6
sg7
F169.7
sg8
F180.00000000000003
sg9
F170.9
sg10
F145.2
sg11
F175.6
sg12
F200.4
sg13
F107.29999999999998
sg14
F183.30000000000004
sg15
F145.40000000000003
sg16
F187.3
sg17
F146.0
sg18
F233.20000000000005
sg19
F162.50000000000006
sg20
F162.50000000000003
sg21
F193.6
sg22
F140.50000000000003
sg23
F132.40000000000003
sg24
F118.00000000000001
sg25
F156.50000000000003
sg26
F179.6
sg27
F146.99999999999997
sg28
F123.9
sg29
F218.99999999999994
sg30
F155.1
sg31
F174.19999999999996
sg32
F174.70000000000002
sg33
F167.69999999999996
sg34
F277.8
sg35
F140.5
sg36
F179.10000000000002
sssS'2012'
p73
(dp74
g3
(dp75
g5
F85.0
sg6
F78.0
sg7
F92.0
sg8
F57.0
sg9
F119.0
sg10
F93.0
sg11
F83.0
sg12
F91.0
sg13
F134.0
sg14
F89.0
sg15
F83.0
sg16
F106.0
sg17
F89.0
sg18
F82.0
sg19
F64.0
sg20
F58.0
sg21
F49.0
sg22
F83.0
sg23
F86.0
sg24
F80.0
sg25
F53.0
sg26
F79.0
sg27
F54.0
sg28
F78.0
sg29
F116.0
sg30
F132.0
sg31
F94.0
sg32
F90.0
sg33
F95.0
sg34
F79.0
sg35
F50.0
sg36
F85.0
ssg37
(dp76
g5
F269.58000000000004
sg6
F216.2
sg7
F195.94
sg8
F192.49999999999997
sg9
F239.60000000000002
sg10
F182.70000000000005
sg11
F192.08000000000004
sg12
F208.42
sg13
F144.82000000000002
sg14
F240.73999999999995
sg15
F192.94
sg16
F253.22
sg17
F276.72
sg18
F240.89999999999998
sg19
F207.04
sg20
F168.14000000000001
sg21
F150.0
sg22
F260.74
sg23
F224.24000000000004
sg24
F214.78
sg25
F267.86
sg26
F187.73999999999995
sg27
F187.76
sg28
F258.6
sg29
F229.28
sg30
F238.38000000000005
sg31
F285.93999999999994
sg32
F134.84
sg33
F191.56000000000003
sg34
F163.88000000000002
sg35
F173.45999999999998
sg36
F180.39999999999998
ssg39
(dp77
g5
F399.1
sg6
F319.29999999999995
sg7
F321.7999999999999
sg8
F262.2
sg9
F427.4
sg10
F298.1
sg11
F224.09999999999997
sg12
F283.1
sg13
F386.6000000000001
sg14
F429.0000000000001
sg15
F428.49999999999994
sg16
F320.50000000000006
sg17
F518.9000000000001
sg18
F443.3000000000001
sg19
F381.1000000000001
sg20
F244.6
sg21
F305.70000000000005
sg22
F312.6
sg23
F330.7000000000001
sg24
F481.3000000000001
sg25
F487.4000000000001
sg26
F336.1
sg27
F323.30000000000007
sg28
F532.5
sg29
F321.00000000000006
sg30
F411.09999999999997
sg31
F386.7
sg32
F318.79999999999995
sg33
F410.29999999999995
sg34
F352.7000000000001
sg35
F327.3
sg36
F395.0999999999999
ssg41
(dp78
g5
F146.8
sg6
F221.50000000000003
sg7
F240.20000000000007
sg8
F240.29999999999995
sg9
F250.90000000000003
sg10
F175.4
sg11
F248.0
sg12
F211.9
sg13
F204.70000000000002
sg14
F220.7
sg15
F229.09999999999997
sg16
F227.50000000000003
sg17
F341.5
sg18
F218.50000000000006
sg19
F183.60000000000002
sg20
F192.89999999999998
sg21
F175.2
sg22
F296.80000000000007
sg23
F204.1
sg24
F159.10000000000002
sg25
F240.60000000000005
sg26
F157.49999999999997
sg27
F220.20000000000002
sg28
F185.1
sg29
F257.49999999999994
sg30
F177.69999999999996
sg31
F130.5
sg32
F151.2
sg33
F210.7
sg34
F202.1
sg35
F117.90000000000002
sg36
F221.8
ssg43
(dp79
g5
F139.9
sg6
F128.29999999999998
sg7
F138.8
sg8
F138.2
sg9
F152.9
sg10
F136.20000000000002
sg11
F129.20000000000002
sg12
F186.90000000000003
sg13
F119.30000000000001
sg14
F150.29999999999998
sg15
F143.4
sg16
F149.2
sg17
F114.5
sg18
F159.59999999999997
sg19
F157.8
sg20
F143.5
sg21
F132.20000000000002
sg22
F148.39999999999998
sg23
F151.9
sg24
F140.8
sg25
F164.20000000000002
sg26
F143.79999999999998
sg27
F131.5
sg28
F206.0
sg29
F165.39999999999998
sg30
F126.7
sg31
F138.4
sg32
F166.5
sg33
F138.7
sg34
F103.00000000000001
sg35
F102.60000000000001
sg36
F99.9
sss.