(dp0
S'2015'
p1
(dp2
S'K'
p3
(dp4
S'MIN'
p5
F108.0
sS'MIA'
p6
F105.0
sS'CAR'
p7
F75.0
sS'ATL'
p8
F99.0
sS'OAK'
p9
F139.0
sS'CIN'
p10
F105.0
sS'NYJ'
p11
F108.0
sS'DEN'
p12
F102.0
sS'BAL'
p13
F127.0
sS'NYG'
p14
F140.0
sS'DET'
p15
F116.0
sS'TEN'
p16
F115.0
sS'NO'
p17
F99.0
sS'DAL'
p18
F126.0
sS'NE'
p19
F97.0
sS'SEA'
p20
F103.0
sS'CHI'
p21
F115.0
sS'BUF'
p22
F99.0
sS'STL'
p23
F134.0
sS'CLE'
p24
F134.0
sS'TB'
p25
F122.0
sS'HOU'
p26
F88.0
sS'GB'
p27
F103.0
sS'WAS'
p28
F109.0
sS'JAC'
p29
F123.0
sS'KC'
p30
F79.0
sS'PHI'
p31
F128.0
sS'PIT'
p32
F107.0
sS'IND'
p33
F124.0
sS'ARI'
p34
F105.0
sS'SF'
p35
F119.0
sS'SD'
p36
F126.0
ssS'QB'
p37
(dp38
g5
F246.26000000000002
sg6
F268.12
sg7
F224.86000000000007
sg8
F231.53999999999996
sg9
F271.58
sg10
F209.39999999999998
sg11
F217.70000000000002
sg12
F197.16000000000003
sg13
F271.52000000000004
sg14
F321.7
sg15
F264.24
sg16
F305.09999999999997
sg17
F379.59999999999997
sg18
F253.43999999999994
sg19
F254.09999999999994
sg20
F202.46000000000004
sg21
F307.4
sg22
F267.82000000000005
sg23
F246.42000000000004
sg24
F301.15999999999997
sg25
F269.58000000000004
sg26
F222.66000000000003
sg27
F233.52
sg28
F288.18
sg29
F288.44000000000005
sg30
F221.58
sg31
F319.5
sg32
F272.96
sg33
F269.64000000000004
sg34
F231.94
sg35
F262.20000000000005
sg36
F236.04000000000002
ssS'WR'
p39
(dp40
g5
F322.0
sg6
F384.0999999999999
sg7
F318.4
sg8
F253.39999999999998
sg9
F315.49999999999994
sg10
F329.1
sg11
F371.7
sg12
F250.4
sg13
F423.20000000000016
sg14
F366.29999999999995
sg15
F357.8999999999999
sg16
F394.3
sg17
F412.50000000000006
sg18
F311.00000000000006
sg19
F390.19999999999993
sg20
F260.90000000000003
sg21
F286.3
sg22
F397.7999999999999
sg23
F325.5
sg24
F433.0000000000001
sg25
F404.09999999999997
sg26
F324.00000000000006
sg27
F310.70000000000005
sg28
F397.6
sg29
F357.5
sg30
F390.69999999999993
sg31
F410.09999999999997
sg32
F432.5000000000001
sg33
F409.90000000000003
sg34
F303.5
sg35
F363.39999999999986
sg36
F307.2
ssS'RB'
p41
(dp42
g5
F244.90000000000006
sg6
F377.8000000000001
sg7
F245.7
sg8
F289.2000000000001
sg9
F284.00000000000006
sg10
F266.90000000000003
sg11
F200.60000000000002
sg12
F242.89999999999995
sg13
F247.09999999999994
sg14
F315.4999999999999
sg15
F286.69999999999993
sg16
F246.69999999999987
sg17
F314.7000000000001
sg18
F325.9
sg19
F235.1
sg20
F188.5
sg21
F281.9
sg22
F276.4
sg23
F254.20000000000005
sg24
F293.2
sg25
F260.0
sg26
F252.5
sg27
F257.4
sg28
F289.10000000000014
sg29
F327.99999999999994
sg30
F222.8
sg31
F318.10000000000014
sg32
F212.90000000000006
sg33
F300.4000000000001
sg34
F239.49999999999997
sg35
F348.3
sg36
F343.1000000000001
ssS'TE'
p43
(dp44
g5
F120.50000000000001
sg6
F112.30000000000001
sg7
F110.1
sg8
F153.40000000000006
sg9
F155.9
sg10
F87.80000000000001
sg11
F86.6
sg12
F132.39999999999995
sg13
F87.1
sg14
F182.3
sg15
F155.79999999999998
sg16
F146.7
sg17
F191.0
sg18
F85.50000000000001
sg19
F95.19999999999999
sg20
F130.79999999999998
sg21
F122.70000000000003
sg22
F112.6
sg23
F130.5
sg24
F105.7
sg25
F109.30000000000003
sg26
F113.0
sg27
F123.0
sg28
F117.90000000000002
sg29
F148.5
sg30
F83.2
sg31
F109.9
sg32
F139.4
sg33
F137.20000000000002
sg34
F123.3
sg35
F99.4
sg36
F128.5
sssS'2014'
p45
(dp46
g3
(dp47
g5
F102.0
sg6
F117.0
sg7
F102.0
sg8
F119.0
sg9
F135.0
sg10
F106.0
sg11
F115.0
sg12
F106.0
sg13
F111.0
sg14
F119.0
sg15
F82.0
sg16
F137.0
sg17
F127.0
sg18
F86.0
sg19
F115.0
sg20
F88.0
sg21
F148.0
sg22
F111.0
sg23
F114.0
sg24
F121.0
sg25
F118.0
sg26
F88.0
sg27
F95.0
sg28
F116.0
sg29
F132.0
sg30
F121.0
sg31
F112.0
sg32
F112.0
sg33
F85.0
sg34
F107.0
sg35
F100.0
sg36
F120.0
ssg37
(dp48
g5
F233.14
sg6
F207.02
sg7
F259.42
sg8
F264.82
sg9
F214.6
sg10
F200.57999999999998
sg11
F207.84
sg12
F250.58000000000004
sg13
F256.88
sg14
F275.78
sg15
F210.62000000000006
sg16
F247.93999999999997
sg17
F289.68
sg18
F240.58000000000004
sg19
F191.84000000000003
sg20
F152.98000000000002
sg21
F304.32
sg22
F188.12
sg23
F227.57999999999998
sg24
F191.02
sg25
F262.47999999999996
sg26
F236.66
sg27
F237.25999999999996
sg28
F315.14
sg29
F231.05999999999997
sg30
F140.32
sg31
F302.1000000000001
sg32
F268.90000000000003
sg33
F209.18000000000004
sg34
F235.88
sg35
F185.28
sg36
F226.0
ssg39
(dp49
g5
F325.8
sg6
F344.79999999999995
sg7
F339.0
sg8
F367.8
sg9
F305.5
sg10
F285.4
sg11
F355.0
sg12
F286.00000000000006
sg13
F370.29999999999995
sg14
F278.20000000000005
sg15
F324.0
sg16
F285.79999999999995
sg17
F374.3000000000001
sg18
F284.7
sg19
F279.4
sg20
F196.80000000000007
sg21
F342.4000000000001
sg22
F304.1000000000001
sg23
F373.7000000000001
sg24
F335.2000000000001
sg25
F376.70000000000005
sg26
F375.8
sg27
F345.2
sg28
F380.5
sg29
F307.2999999999999
sg30
F320.5
sg31
F424.40000000000003
sg32
F367.0
sg33
F291.9
sg34
F328.7
sg35
F327.70000000000005
sg36
F346.8999999999999
ssg41
(dp50
g5
F265.99999999999994
sg6
F266.3
sg7
F250.7
sg8
F340.9
sg9
F334.00000000000006
sg10
F289.30000000000007
sg11
F226.49999999999997
sg12
F215.79999999999995
sg13
F179.0
sg14
F224.7
sg15
F204.90000000000003
sg16
F324.9
sg17
F327.59999999999997
sg18
F260.70000000000005
sg19
F254.3
sg20
F214.6
sg21
F232.80000000000007
sg22
F239.4
sg23
F214.7
sg24
F295.6999999999999
sg25
F234.6
sg26
F249.29999999999995
sg27
F227.29999999999995
sg28
F195.49999999999994
sg29
F294.40000000000003
sg30
F220.89999999999995
sg31
F271.8
sg32
F203.79999999999995
sg33
F275.79999999999995
sg34
F180.5
sg35
F200.29999999999998
sg36
F238.60000000000005
ssg43
(dp51
g5
F97.3
sg6
F97.3
sg7
F97.8
sg8
F79.00000000000001
sg9
F138.0
sg10
F106.30000000000001
sg11
F161.3
sg12
F144.2
sg13
F102.69999999999999
sg14
F125.8
sg15
F108.3
sg16
F131.7
sg17
F73.5
sg18
F141.20000000000002
sg19
F135.29999999999998
sg20
F122.60000000000001
sg21
F167.1
sg22
F64.3
sg23
F77.10000000000004
sg24
F88.69999999999999
sg25
F80.30000000000001
sg26
F78.8
sg27
F91.10000000000001
sg28
F142.0
sg29
F115.80000000000001
sg30
F92.1
sg31
F78.20000000000002
sg32
F136.6
sg33
F138.2
sg34
F154.50000000000003
sg35
F132.3
sg36
F81.60000000000001
sssS'2011'
p52
(dp53
g3
(dp54
g5
F102.0
sg6
F73.0
sg7
F72.0
sg8
F46.0
sg9
F92.0
sg10
F56.0
sg11
F88.0
sg12
F94.0
sg13
F79.0
sg14
F70.0
sg15
F89.0
sg16
F67.0
sg17
F70.0
sg18
F55.0
sg19
F71.0
sg20
F60.0
sg21
F70.0
sg22
F88.0
sg23
F68.0
sg24
F80.0
sg25
F44.0
sg26
F73.0
sg27
F53.0
sg28
F64.0
sg29
F56.0
sg30
F78.0
sg31
F63.0
sg32
F47.0
sg33
F71.0
sg34
F77.0
sg35
F47.0
sg36
F96.0
ssg37
(dp55
g5
F259.78000000000003
sg6
F213.25999999999996
sg7
F195.22
sg8
F185.28000000000003
sg9
F209.16
sg10
F135.62
sg11
F120.16
sg12
F183.74
sg13
F119.22
sg14
F214.78000000000006
sg15
F213.58
sg16
F187.0
sg17
F227.26
sg18
F149.18
sg19
F213.52
sg20
F140.62
sg21
F184.37999999999994
sg22
F191.92000000000002
sg23
F162.66000000000003
sg24
F129.5
sg25
F257.1
sg26
F134.33999999999997
sg27
F219.90000000000003
sg28
F187.32
sg29
F168.26
sg30
F164.07999999999998
sg31
F169.48000000000005
sg32
F120.78000000000002
sg33
F225.08
sg34
F189.04000000000002
sg35
F133.32000000000002
sg36
F194.42000000000002
ssg39
(dp56
g5
F236.39999999999998
sg6
F151.29999999999998
sg7
F160.89999999999998
sg8
F205.0
sg9
F171.29999999999998
sg10
F183.00000000000003
sg11
F109.70000000000002
sg12
F199.19999999999996
sg13
F199.00000000000006
sg14
F155.60000000000002
sg15
F274.90000000000003
sg16
F146.70000000000002
sg17
F235.7
sg18
F167.00000000000006
sg19
F261.8
sg20
F174.70000000000007
sg21
F206.0
sg22
F133.20000000000002
sg23
F291.29999999999995
sg24
F155.60000000000002
sg25
F202.59999999999997
sg26
F182.2
sg27
F208.7
sg28
F191.3
sg29
F203.59999999999994
sg30
F151.30000000000004
sg31
F155.8
sg32
F118.79999999999998
sg33
F231.2
sg34
F256.09999999999997
sg35
F185.10000000000005
sg36
F145.5
ssg41
(dp57
g5
F152.60000000000002
sg6
F131.20000000000002
sg7
F213.60000000000005
sg8
F169.90000000000003
sg9
F156.0
sg10
F61.400000000000006
sg11
F134.00000000000003
sg12
F179.60000000000002
sg13
F61.300000000000004
sg14
F151.49999999999997
sg15
F167.8
sg16
F125.20000000000002
sg17
F128.60000000000002
sg18
F104.20000000000002
sg19
F151.79999999999998
sg20
F106.3
sg21
F107.6
sg22
F201.20000000000005
sg23
F121.39999999999999
sg24
F91.09999999999998
sg25
F258.8
sg26
F84.0
sg27
F110.70000000000003
sg28
F153.8
sg29
F122.60000000000002
sg30
F119.40000000000002
sg31
F116.10000000000002
sg32
F60.1
sg33
F132.9
sg34
F117.80000000000001
sg35
F37.6
sg36
F59.19999999999999
ssg43
(dp58
g5
F67.2
sg6
F75.3
sg7
F56.7
sg8
F72.3
sg9
F74.9
sg10
F62.900000000000006
sg11
F98.9
sg12
F45.900000000000006
sg13
F41.29999999999999
sg14
F89.0
sg15
F55.199999999999996
sg16
F52.8
sg17
F40.0
sg18
F78.4
sg19
F53.900000000000006
sg20
F60.00000000000001
sg21
F59.0
sg22
F126.8
sg23
F45.80000000000001
sg24
F82.9
sg25
F79.4
sg26
F54.60000000000001
sg27
F80.79999999999998
sg28
F120.39999999999998
sg29
F94.5
sg30
F79.39999999999999
sg31
F50.300000000000004
sg32
F85.7
sg33
F78.0
sg34
F59.10000000000001
sg35
F62.7
sg36
F70.19999999999999
sssS'2010'
p59
(dp60
g3
(dp61
g5
F66.0
sg6
F64.0
sg7
F71.0
sg8
F31.0
sg9
F62.0
sg10
F81.0
sg11
F64.0
sg12
F66.0
sg13
F72.0
sg14
F31.0
sg15
F74.0
sg16
F86.0
sg17
F41.0
sg18
F37.0
sg19
F44.0
sg20
F68.0
sg21
F36.0
sg22
F99.0
sg23
F64.0
sg24
F61.0
sg25
F31.0
sg26
F70.0
sg27
F47.0
sg28
F44.0
sg29
F48.0
sg30
F61.0
sg31
F39.0
sg32
F62.0
sg33
F61.0
sg34
F64.0
sg35
F62.0
sg36
F50.0
ssg37
(dp62
g5
F196.21999999999997
sg6
F188.84
sg7
F183.56
sg8
F174.56
sg9
F160.33999999999997
sg10
F179.89999999999998
sg11
F199.64000000000001
sg12
F142.22000000000003
sg13
F164.64000000000001
sg14
F71.48
sg15
F176.70000000000002
sg16
F125.66000000000001
sg17
F139.7
sg18
F136.78
sg19
F196.26000000000002
sg20
F237.18
sg21
F130.10000000000002
sg22
F210.82000000000005
sg23
F132.12
sg24
F212.04
sg25
F134.4
sg26
F142.9
sg27
F113.89999999999999
sg28
F132.2
sg29
F126.94
sg30
F100.19999999999999
sg31
F161.28
sg32
F179.82
sg33
F66.52000000000001
sg34
F141.42
sg35
F169.02000000000004
sg36
F75.25999999999999
ssg39
(dp63
g5
F190.19999999999996
sg6
F115.39999999999999
sg7
F164.3
sg8
F225.40000000000003
sg9
F163.70000000000002
sg10
F156.0
sg11
F153.79999999999998
sg12
F102.70000000000003
sg13
F158.9
sg14
F158.39999999999998
sg15
F129.09999999999997
sg16
F141.8
sg17
F75.39999999999999
sg18
F199.79999999999998
sg19
F144.70000000000005
sg20
F224.4
sg21
F125.30000000000001
sg22
F78.19999999999999
sg23
F166.0
sg24
F164.6
sg25
F121.10000000000002
sg26
F131.6
sg27
F107.30000000000001
sg28
F152.3
sg29
F167.9
sg30
F126.20000000000002
sg31
F143.10000000000002
sg32
F110.20000000000002
sg33
F102.79999999999998
sg34
F151.7
sg35
F182.3
sg36
F103.39999999999999
ssg41
(dp64
g5
F58.4
sg6
F87.50000000000001
sg7
F79.7
sg8
F80.0
sg9
F150.3
sg10
F88.39999999999999
sg11
F81.5
sg12
F268.5
sg13
F42.800000000000004
sg14
F117.60000000000001
sg15
F167.0
sg16
F143.60000000000002
sg17
F85.39999999999999
sg18
F101.60000000000001
sg19
F97.3
sg20
F152.10000000000002
sg21
F82.10000000000001
sg22
F98.49999999999999
sg23
F137.5
sg24
F47.70000000000002
sg25
F53.800000000000004
sg26
F114.9
sg27
F97.6
sg28
F103.5
sg29
F203.2
sg30
F120.80000000000001
sg31
F99.3
sg32
F49.5
sg33
F178.10000000000002
sg34
F167.20000000000005
sg35
F117.90000000000002
sg36
F126.40000000000003
ssg43
(dp65
g5
F60.6
sg6
F54.800000000000004
sg7
F45.9
sg8
F46.1
sg9
F80.30000000000001
sg10
F42.800000000000004
sg11
F41.300000000000004
sg12
F68.7
sg13
F50.1
sg14
F52.7
sg15
F27.7
sg16
F85.3
sg17
F41.0
sg18
F48.5
sg19
F43.8
sg20
F63.8
sg21
F39.900000000000006
sg22
F77.8
sg23
F39.6
sg24
F41.80000000000001
sg25
F38.1
sg26
F62.900000000000006
sg27
F67.1
sg28
F66.80000000000001
sg29
F64.0
sg30
F60.400000000000006
sg31
F86.99999999999999
sg32
F59.0
sg33
F69.19999999999999
sg34
F64.1
sg35
F27.4
sg36
F66.60000000000001
sssS'2013'
p66
(dp67
g3
(dp68
g5
F100.0
sg6
F115.0
sg7
F81.0
sg8
F102.0
sg9
F103.0
sg10
F90.0
sg11
F111.0
sg12
F101.0
sg13
F114.0
sg14
F104.0
sg15
F108.0
sg16
F120.0
sg17
F96.0
sg18
F99.0
sg19
F84.0
sg20
F62.0
sg21
F88.0
sg22
F107.0
sg23
F71.0
sg24
F117.0
sg25
F106.0
sg26
F111.0
sg27
F91.0
sg28
F100.0
sg29
F101.0
sg30
F85.0
sg31
F105.0
sg32
F99.0
sg33
F79.0
sg34
F78.0
sg35
F60.0
sg36
F88.0
ssg37
(dp69
g5
F348.22
sg6
F218.36
sg7
F191.07999999999998
sg8
F306.02
sg9
F260.38
sg10
F209.89999999999998
sg11
F236.6
sg12
F228.71999999999997
sg13
F173.4
sg14
F200.01999999999995
sg15
F235.04000000000005
sg16
F182.38000000000005
sg17
F216.94
sg18
F280.8
sg19
F229.14000000000001
sg20
F138.56
sg21
F205.5
sg22
F220.64
sg23
F225.16000000000003
sg24
F243.78000000000003
sg25
F293.68
sg26
F207.24000000000004
sg27
F254.54
sg28
F209.48000000000002
sg29
F280.20000000000005
sg30
F145.67999999999998
sg31
F220.66000000000003
sg32
F207.06
sg33
F206.24
sg34
F256.7
sg35
F190.11999999999998
sg36
F155.5
ssg39
(dp70
g5
F374.7000000000001
sg6
F239.69999999999996
sg7
F231.9
sg8
F339.20000000000005
sg9
F295.0
sg10
F215.99999999999997
sg11
F351.09999999999997
sg12
F290.2999999999999
sg13
F310.9000000000001
sg14
F241.89999999999995
sg15
F348.3
sg16
F172.1
sg17
F241.99999999999997
sg18
F282.00000000000006
sg19
F308.69999999999993
sg20
F182.3
sg21
F304.1
sg22
F313.6000000000001
sg23
F336.00000000000006
sg24
F237.00000000000009
sg25
F307.7
sg26
F255.20000000000002
sg27
F265.50000000000006
sg28
F272.90000000000003
sg29
F294.4
sg30
F324.70000000000005
sg31
F386.59999999999997
sg32
F269.40000000000003
sg33
F328.8
sg34
F195.10000000000005
sg35
F258.6
sg36
F305.6
ssg41
(dp71
g5
F221.7
sg6
F233.60000000000002
sg7
F150.20000000000002
sg8
F269.40000000000003
sg9
F269.1
sg10
F135.8
sg11
F165.4
sg12
F211.90000000000003
sg13
F202.7
sg14
F216.20000000000002
sg15
F180.80000000000004
sg16
F229.50000000000003
sg17
F191.0
sg18
F297.40000000000003
sg19
F191.9
sg20
F152.80000000000004
sg21
F266.3
sg22
F211.70000000000002
sg23
F221.60000000000002
sg24
F261.79999999999995
sg25
F183.2
sg26
F228.8
sg27
F251.60000000000002
sg28
F248.5
sg29
F209.59999999999997
sg30
F213.00000000000003
sg31
F174.3
sg32
F231.19999999999996
sg33
F175.60000000000002
sg34
F115.90000000000002
sg35
F134.70000000000002
sg36
F218.89999999999998
ssg43
(dp72
g5
F133.2
sg6
F131.59999999999997
sg7
F107.70000000000002
sg8
F122.0
sg9
F107.89999999999999
sg10
F83.20000000000002
sg11
F114.60000000000001
sg12
F126.39999999999998
sg13
F74.29999999999998
sg14
F118.3
sg15
F77.4
sg16
F123.30000000000003
sg17
F86.0
sg18
F148.20000000000005
sg19
F96.5
sg20
F96.49999999999999
sg21
F122.60000000000001
sg22
F92.5
sg23
F80.4
sg24
F70.0
sg25
F99.50000000000001
sg26
F127.60000000000001
sg27
F97.0
sg28
F81.89999999999999
sg29
F133.0
sg30
F96.10000000000001
sg31
F102.19999999999997
sg32
F108.7
sg33
F102.69999999999999
sg34
F190.79999999999998
sg35
F87.5
sg36
F116.1
sssS'2012'
p73
(dp74
g3
(dp75
g5
F85.0
sg6
F78.0
sg7
F92.0
sg8
F57.0
sg9
F119.0
sg10
F93.0
sg11
F83.0
sg12
F91.0
sg13
F134.0
sg14
F89.0
sg15
F83.0
sg16
F106.0
sg17
F89.0
sg18
F82.0
sg19
F64.0
sg20
F58.0
sg21
F49.0
sg22
F83.0
sg23
F86.0
sg24
F80.0
sg25
F53.0
sg26
F79.0
sg27
F54.0
sg28
F78.0
sg29
F116.0
sg30
F132.0
sg31
F94.0
sg32
F90.0
sg33
F95.0
sg34
F79.0
sg35
F50.0
sg36
F85.0
ssg37
(dp76
g5
F269.58000000000004
sg6
F216.2
sg7
F195.94
sg8
F192.49999999999997
sg9
F239.60000000000002
sg10
F182.70000000000005
sg11
F192.08000000000004
sg12
F208.42
sg13
F144.82000000000002
sg14
F240.73999999999995
sg15
F192.94
sg16
F253.22
sg17
F276.72
sg18
F240.89999999999998
sg19
F207.04
sg20
F168.14000000000001
sg21
F150.0
sg22
F260.74
sg23
F224.24000000000004
sg24
F214.78
sg25
F267.86
sg26
F187.73999999999995
sg27
F187.76
sg28
F258.6
sg29
F229.28
sg30
F238.38000000000005
sg31
F285.93999999999994
sg32
F134.84
sg33
F191.56000000000003
sg34
F163.88000000000002
sg35
F173.45999999999998
sg36
F180.39999999999998
ssg39
(dp77
g5
F255.09999999999997
sg6
F200.3
sg7
F207.80000000000004
sg8
F151.2
sg9
F292.40000000000003
sg10
F186.10000000000002
sg11
F140.10000000000002
sg12
F181.1
sg13
F236.60000000000002
sg14
F295.0
sg15
F269.5
sg16
F218.5
sg17
F359.9000000000001
sg18
F290.3
sg19
F254.10000000000002
sg20
F144.60000000000002
sg21
F188.70000000000002
sg22
F213.60000000000005
sg23
F207.70000000000005
sg24
F327.29999999999995
sg25
F315.4
sg26
F232.10000000000002
sg27
F215.3
sg28
F353.5
sg29
F213.00000000000009
sg30
F295.1
sg31
F272.7
sg32
F194.79999999999995
sg33
F272.3
sg34
F240.7
sg35
F193.30000000000004
sg36
F270.0999999999999
ssg41
(dp78
g5
F116.8
sg6
F184.50000000000003
sg7
F170.20000000000002
sg8
F196.29999999999995
sg9
F199.90000000000003
sg10
F134.4
sg11
F222.0
sg12
F165.9
sg13
F171.70000000000005
sg14
F179.7
sg15
F184.1
sg16
F186.5
sg17
F287.50000000000006
sg18
F179.50000000000006
sg19
F134.60000000000002
sg20
F151.89999999999998
sg21
F139.2
sg22
F261.80000000000007
sg23
F161.1
sg24
F125.09999999999998
sg25
F174.60000000000002
sg26
F124.5
sg27
F179.20000000000002
sg28
F137.10000000000002
sg29
F219.49999999999997
sg30
F151.7
sg31
F107.50000000000001
sg32
F125.2
sg33
F178.7
sg34
F169.1
sg35
F81.89999999999999
sg36
F162.79999999999998
ssg43
(dp79
g5
F89.9
sg6
F81.3
sg7
F88.80000000000001
sg8
F88.2
sg9
F92.9
sg10
F79.19999999999999
sg11
F86.19999999999999
sg12
F126.89999999999999
sg13
F68.3
sg14
F84.3
sg15
F91.39999999999999
sg16
F90.2
sg17
F64.5
sg18
F98.6
sg19
F95.80000000000001
sg20
F86.50000000000001
sg21
F70.2
sg22
F92.4
sg23
F93.89999999999999
sg24
F82.80000000000001
sg25
F106.2
sg26
F92.80000000000001
sg27
F77.50000000000001
sg28
F127.00000000000001
sg29
F94.4
sg30
F83.7
sg31
F82.39999999999999
sg32
F100.5
sg33
F95.69999999999999
sg34
F72.00000000000001
sg35
F63.60000000000001
sg36
F57.900000000000006
sss.