(dp0
I2010
(dp1
S'K'
p2
(dp3
S'MIN'
p4
F4.125
sS'MIA'
p5
F4.0
sS'CAR'
p6
F4.4375
sS'ATL'
p7
F1.9375
sS'OAK'
p8
F3.875
sS'CIN'
p9
F5.0625
sS'NYJ'
p10
F4.0
sS'DEN'
p11
F4.125
sS'BAL'
p12
F4.5
sS'NYG'
p13
F1.9375
sS'DET'
p14
F4.625
sS'TEN'
p15
F5.375
sS'NO'
p16
F2.5625
sS'DAL'
p17
F2.3125
sS'NE'
p18
F2.75
sS'SEA'
p19
F4.25
sS'CHI'
p20
F2.25
sS'BUF'
p21
F6.1875
sS'STL'
p22
F4.0
sS'CLE'
p23
F3.8125
sS'TB'
p24
F1.9375
sS'HOU'
p25
F4.375
sS'GB'
p26
F2.9375
sS'WAS'
p27
F2.75
sS'JAC'
p28
F3.0
sS'KC'
p29
F3.8125
sS'PHI'
p30
F2.4375
sS'PIT'
p31
F3.875
sS'IND'
p32
F3.8125
sS'ARI'
p33
F4.0
sS'SF'
p34
F3.875
sS'SD'
p35
F3.125
ssS'QB'
p36
(dp37
g4
F12.263749999999998
sg5
F11.8025
sg6
F11.4725
sg7
F10.91
sg8
F10.021249999999998
sg9
F11.243749999999999
sg10
F12.477500000000001
sg11
F8.888750000000002
sg12
F10.290000000000001
sg13
F4.4675
sg14
F11.043750000000001
sg15
F7.853750000000001
sg16
F8.73125
sg17
F8.54875
sg18
F12.266250000000001
sg19
F14.82375
sg20
F8.131250000000001
sg21
F13.176250000000003
sg22
F8.2575
sg23
F13.2525
sg24
F8.4
sg25
F8.93125
sg26
F7.1187499999999995
sg27
F8.2625
sg28
F7.93375
sg29
F6.262499999999999
sg30
F10.08
sg31
F11.23875
sg32
F4.157500000000001
sg33
F8.83875
sg34
F10.563750000000002
sg35
F4.703749999999999
ssS'WR'
p38
(dp39
g4
F11.887499999999998
sg5
F7.2124999999999995
sg6
F10.26875
sg7
F14.087500000000002
sg8
F10.231250000000001
sg9
F9.75
sg10
F9.612499999999999
sg11
F6.418750000000002
sg12
F9.93125
sg13
F9.899999999999999
sg14
F8.068749999999998
sg15
F8.8625
sg16
F4.7124999999999995
sg17
F12.487499999999999
sg18
F9.043750000000003
sg19
F14.025
sg20
F7.831250000000001
sg21
F4.887499999999999
sg22
F10.375
sg23
F10.2875
sg24
F7.568750000000001
sg25
F8.225
sg26
F6.706250000000001
sg27
F9.51875
sg28
F10.49375
sg29
F7.887500000000001
sg30
F8.943750000000001
sg31
F6.887500000000001
sg32
F6.424999999999999
sg33
F9.48125
sg34
F11.39375
sg35
F6.4624999999999995
ssS'RB'
p40
(dp41
g4
F3.65
sg5
F5.468750000000001
sg6
F4.98125
sg7
F5.0
sg8
F9.39375
sg9
F5.5249999999999995
sg10
F5.09375
sg11
F16.78125
sg12
F2.6750000000000003
sg13
F7.3500000000000005
sg14
F10.4375
sg15
F8.975000000000001
sg16
F5.3374999999999995
sg17
F6.3500000000000005
sg18
F6.08125
sg19
F9.506250000000001
sg20
F5.1312500000000005
sg21
F6.156249999999999
sg22
F8.59375
sg23
F2.981250000000001
sg24
F3.3625000000000003
sg25
F7.18125
sg26
F6.1
sg27
F6.46875
sg28
F12.7
sg29
F7.550000000000001
sg30
F6.20625
sg31
F3.09375
sg32
F11.131250000000001
sg33
F10.450000000000003
sg34
F7.368750000000001
sg35
F7.900000000000002
ssS'TE'
p42
(dp43
g4
F3.7875
sg5
F3.4250000000000003
sg6
F2.86875
sg7
F2.88125
sg8
F5.018750000000001
sg9
F2.6750000000000003
sg10
F2.5812500000000003
sg11
F4.29375
sg12
F3.13125
sg13
F3.29375
sg14
F1.73125
sg15
F5.33125
sg16
F2.5625
sg17
F3.03125
sg18
F2.7375
sg19
F3.9875
sg20
F2.4937500000000004
sg21
F4.8625
sg22
F2.475
sg23
F2.6125000000000007
sg24
F2.38125
sg25
F3.9312500000000004
sg26
F4.19375
sg27
F4.175000000000001
sg28
F4.0
sg29
F3.7750000000000004
sg30
F5.437499999999999
sg31
F3.6875
sg32
F4.324999999999999
sg33
F4.00625
sg34
F1.7125
sg35
F4.1625000000000005
sssI2011
(dp44
g2
(dp45
g4
F6.375
sg5
F4.5625
sg6
F4.5
sg7
F2.875
sg8
F5.75
sg9
F3.5
sg10
F5.5
sg11
F5.875
sg12
F4.9375
sg13
F4.375
sg14
F5.5625
sg15
F4.1875
sg16
F4.375
sg17
F3.4375
sg18
F4.4375
sg19
F3.75
sg20
F4.375
sg21
F5.5
sg22
F4.25
sg23
F5.0
sg24
F2.75
sg25
F4.5625
sg26
F3.3125
sg27
F4.0
sg28
F3.5
sg29
F4.875
sg30
F3.9375
sg31
F2.9375
sg32
F4.4375
sg33
F4.8125
sg34
F2.9375
sg35
F6.0
ssg36
(dp46
g4
F16.236250000000002
sg5
F13.328749999999998
sg6
F12.20125
sg7
F11.580000000000002
sg8
F13.0725
sg9
F8.47625
sg10
F7.51
sg11
F11.48375
sg12
F7.45125
sg13
F13.423750000000004
sg14
F13.34875
sg15
F11.6875
sg16
F14.20375
sg17
F9.32375
sg18
F13.345
sg19
F8.78875
sg20
F11.523749999999996
sg21
F11.995000000000001
sg22
F10.166250000000002
sg23
F8.09375
sg24
F16.06875
sg25
F8.396249999999998
sg26
F13.743750000000002
sg27
F11.7075
sg28
F10.51625
sg29
F10.254999999999999
sg30
F10.592500000000003
sg31
F7.548750000000001
sg32
F14.0675
sg33
F11.815000000000001
sg34
F8.332500000000001
sg35
F12.151250000000001
ssg38
(dp47
g4
F14.774999999999999
sg5
F9.456249999999999
sg6
F10.056249999999999
sg7
F12.8125
sg8
F10.706249999999999
sg9
F11.437500000000002
sg10
F6.856250000000001
sg11
F12.449999999999998
sg12
F12.437500000000004
sg13
F9.725000000000001
sg14
F17.181250000000002
sg15
F9.168750000000001
sg16
F14.73125
sg17
F10.437500000000004
sg18
F16.3625
sg19
F10.918750000000005
sg20
F12.875
sg21
F8.325000000000001
sg22
F18.206249999999997
sg23
F9.725000000000001
sg24
F12.662499999999998
sg25
F11.3875
sg26
F13.04375
sg27
F11.95625
sg28
F12.724999999999996
sg29
F9.456250000000002
sg30
F9.7375
sg31
F7.424999999999999
sg32
F14.45
sg33
F16.006249999999998
sg34
F11.568750000000003
sg35
F9.09375
ssg40
(dp48
g4
F9.537500000000001
sg5
F8.200000000000001
sg6
F13.350000000000003
sg7
F10.618750000000002
sg8
F9.75
sg9
F3.8375000000000004
sg10
F8.375000000000002
sg11
F11.225000000000001
sg12
F3.8312500000000003
sg13
F9.468749999999998
sg14
F10.4875
sg15
F7.825000000000001
sg16
F8.037500000000001
sg17
F6.512500000000001
sg18
F9.487499999999999
sg19
F6.64375
sg20
F6.725
sg21
F12.575000000000003
sg22
F7.5874999999999995
sg23
F5.693749999999999
sg24
F16.175
sg25
F5.25
sg26
F6.918750000000002
sg27
F9.6125
sg28
F7.662500000000001
sg29
F7.462500000000001
sg30
F7.256250000000001
sg31
F3.75625
sg32
F8.30625
sg33
F7.362500000000001
sg34
F2.35
sg35
F3.6999999999999993
ssg42
(dp49
g4
F4.2
sg5
F4.70625
sg6
F3.54375
sg7
F4.51875
sg8
F4.68125
sg9
F3.9312500000000004
sg10
F6.18125
sg11
F2.8687500000000004
sg12
F2.5812499999999994
sg13
F5.5625
sg14
F3.4499999999999997
sg15
F3.3
sg16
F2.5
sg17
F4.9
sg18
F3.3687500000000004
sg19
F3.7500000000000004
sg20
F3.6875
sg21
F7.925
sg22
F2.8625000000000007
sg23
F5.18125
sg24
F4.9625
sg25
F3.4125000000000005
sg26
F5.049999999999999
sg27
F7.524999999999999
sg28
F5.90625
sg29
F4.9624999999999995
sg30
F3.1437500000000003
sg31
F5.35625
sg32
F4.875
sg33
F3.6937500000000005
sg34
F3.91875
sg35
F4.387499999999999
sssI2012
(dp50
g2
(dp51
g4
F5.3125
sg5
F4.875
sg6
F5.75
sg7
F3.5625
sg8
F7.4375
sg9
F5.8125
sg10
F5.1875
sg11
F5.6875
sg12
F8.375
sg13
F5.5625
sg14
F5.1875
sg15
F6.625
sg16
F5.5625
sg17
F5.125
sg18
F4.0
sg19
F3.625
sg20
F3.0625
sg21
F5.1875
sg22
F5.375
sg23
F5.0
sg24
F3.3125
sg25
F4.9375
sg26
F3.375
sg27
F4.875
sg28
F7.25
sg29
F8.25
sg30
F5.875
sg31
F5.625
sg32
F5.9375
sg33
F4.9375
sg34
F3.125
sg35
F5.3125
ssg36
(dp52
g4
F16.848750000000003
sg5
F13.5125
sg6
F12.24625
sg7
F12.031249999999998
sg8
F14.975000000000001
sg9
F11.418750000000003
sg10
F12.005000000000003
sg11
F13.02625
sg12
F9.051250000000001
sg13
F15.046249999999997
sg14
F12.05875
sg15
F15.82625
sg16
F17.295
sg17
F15.056249999999999
sg18
F12.94
sg19
F10.508750000000001
sg20
F9.375
sg21
F16.29625
sg22
F14.015000000000002
sg23
F13.42375
sg24
F16.74125
sg25
F11.733749999999997
sg26
F11.735
sg27
F16.1625
sg28
F14.33
sg29
F14.898750000000003
sg30
F17.871249999999996
sg31
F8.4275
sg32
F11.972500000000002
sg33
F10.242500000000001
sg34
F10.841249999999999
sg35
F11.274999999999999
ssg38
(dp53
g4
F15.943749999999998
sg5
F12.51875
sg6
F12.987500000000002
sg7
F9.45
sg8
F18.275000000000002
sg9
F11.631250000000001
sg10
F8.756250000000001
sg11
F11.31875
sg12
F14.787500000000001
sg13
F18.4375
sg14
F16.84375
sg15
F13.65625
sg16
F22.493750000000006
sg17
F18.14375
sg18
F15.881250000000001
sg19
F9.037500000000001
sg20
F11.793750000000001
sg21
F13.350000000000003
sg22
F12.981250000000003
sg23
F20.456249999999997
sg24
F19.7125
sg25
F14.506250000000001
sg26
F13.45625
sg27
F22.09375
sg28
F13.312500000000005
sg29
F18.44375
sg30
F17.04375
sg31
F12.174999999999997
sg32
F17.01875
sg33
F15.04375
sg34
F12.081250000000002
sg35
F16.881249999999994
ssg40
(dp54
g4
F7.3
sg5
F11.531250000000002
sg6
F10.637500000000001
sg7
F12.268749999999997
sg8
F12.493750000000002
sg9
F8.4
sg10
F13.875
sg11
F10.36875
sg12
F10.731250000000003
sg13
F11.23125
sg14
F11.50625
sg15
F11.65625
sg16
F17.968750000000004
sg17
F11.218750000000004
sg18
F8.412500000000001
sg19
F9.493749999999999
sg20
F8.7
sg21
F16.362500000000004
sg22
F10.06875
sg23
F7.818749999999999
sg24
F10.912500000000001
sg25
F7.78125
sg26
F11.200000000000001
sg27
F8.568750000000001
sg28
F13.718749999999998
sg29
F9.48125
sg30
F6.718750000000001
sg31
F7.825
sg32
F11.16875
sg33
F10.56875
sg34
F5.1187499999999995
sg35
F10.174999999999999
ssg42
(dp55
g4
F5.61875
sg5
F5.08125
sg6
F5.550000000000001
sg7
F5.5125
sg8
F5.80625
sg9
F4.949999999999999
sg10
F5.387499999999999
sg11
F7.9312499999999995
sg12
F4.26875
sg13
F5.26875
sg14
F5.7124999999999995
sg15
F5.6375
sg16
F4.03125
sg17
F6.1625
sg18
F5.987500000000001
sg19
F5.406250000000001
sg20
F4.3875
sg21
F5.775
sg22
F5.8687499999999995
sg23
F5.175000000000001
sg24
F6.6375
sg25
F5.800000000000001
sg26
F4.843750000000001
sg27
F7.937500000000001
sg28
F5.9
sg29
F5.23125
sg30
F5.1499999999999995
sg31
F6.28125
sg32
F5.981249999999999
sg33
F4.500000000000001
sg34
F3.9750000000000005
sg35
F3.6187500000000004
sssI2013
(dp56
g2
(dp57
g4
F6.25
sg5
F7.1875
sg6
F5.0625
sg7
F6.375
sg8
F6.4375
sg9
F5.625
sg10
F6.9375
sg11
F6.3125
sg12
F7.125
sg13
F6.5
sg14
F6.75
sg15
F7.5
sg16
F6.0
sg17
F6.1875
sg18
F5.25
sg19
F3.875
sg20
F5.5
sg21
F6.6875
sg22
F4.4375
sg23
F7.3125
sg24
F6.625
sg25
F6.9375
sg26
F5.6875
sg27
F6.25
sg28
F6.3125
sg29
F5.3125
sg30
F6.5625
sg31
F6.1875
sg32
F4.9375
sg33
F4.875
sg34
F3.75
sg35
F5.5
ssg36
(dp58
g4
F21.76375
sg5
F13.6475
sg6
F11.942499999999999
sg7
F19.12625
sg8
F16.27375
sg9
F13.118749999999999
sg10
F14.7875
sg11
F14.294999999999998
sg12
F10.8375
sg13
F12.501249999999997
sg14
F14.690000000000003
sg15
F11.398750000000003
sg16
F13.55875
sg17
F17.55
sg18
F14.321250000000001
sg19
F8.66
sg20
F12.84375
sg21
F13.79
sg22
F14.072500000000002
sg23
F15.236250000000002
sg24
F18.355
sg25
F12.952500000000002
sg26
F15.90875
sg27
F13.092500000000001
sg28
F17.512500000000003
sg29
F9.104999999999999
sg30
F13.791250000000002
sg31
F12.94125
sg32
F12.89
sg33
F16.04375
sg34
F11.882499999999999
sg35
F9.71875
ssg38
(dp59
g4
F23.418750000000006
sg5
F14.981249999999998
sg6
F14.49375
sg7
F21.200000000000003
sg8
F18.4375
sg9
F13.499999999999998
sg10
F21.943749999999998
sg11
F18.143749999999994
sg12
F19.431250000000006
sg13
F15.118749999999997
sg14
F21.76875
sg15
F10.75625
sg16
F15.124999999999998
sg17
F17.625000000000004
sg18
F19.293749999999996
sg19
F11.39375
sg20
F19.00625
sg21
F19.600000000000005
sg22
F21.000000000000004
sg23
F14.812500000000005
sg24
F19.23125
sg25
F15.950000000000001
sg26
F16.593750000000004
sg27
F17.056250000000002
sg28
F18.4
sg29
F20.293750000000003
sg30
F24.162499999999998
sg31
F16.837500000000002
sg32
F20.55
sg33
F12.193750000000003
sg34
F16.1625
sg35
F19.1
ssg40
(dp60
g4
F13.85625
sg5
F14.600000000000001
sg6
F9.387500000000001
sg7
F16.837500000000002
sg8
F16.81875
sg9
F8.4875
sg10
F10.3375
sg11
F13.243750000000002
sg12
F12.66875
sg13
F13.512500000000001
sg14
F11.300000000000002
sg15
F14.343750000000002
sg16
F11.9375
sg17
F18.587500000000002
sg18
F11.99375
sg19
F9.550000000000002
sg20
F16.64375
sg21
F13.231250000000001
sg22
F13.850000000000001
sg23
F16.362499999999997
sg24
F11.45
sg25
F14.3
sg26
F15.725000000000001
sg27
F15.53125
sg28
F13.099999999999998
sg29
F13.312500000000002
sg30
F10.89375
sg31
F14.449999999999998
sg32
F10.975000000000001
sg33
F7.243750000000001
sg34
F8.418750000000001
sg35
F13.681249999999999
ssg42
(dp61
g4
F8.325
sg5
F8.224999999999998
sg6
F6.731250000000001
sg7
F7.625
sg8
F6.7437499999999995
sg9
F5.200000000000001
sg10
F7.1625000000000005
sg11
F7.899999999999999
sg12
F4.643749999999999
sg13
F7.39375
sg14
F4.8375
sg15
F7.706250000000002
sg16
F5.375
sg17
F9.262500000000003
sg18
F6.03125
sg19
F6.031249999999999
sg20
F7.6625000000000005
sg21
F5.78125
sg22
F5.025
sg23
F4.375
sg24
F6.218750000000001
sg25
F7.9750000000000005
sg26
F6.0625
sg27
F5.1187499999999995
sg28
F8.3125
sg29
F6.0062500000000005
sg30
F6.387499999999998
sg31
F6.79375
sg32
F6.418749999999999
sg33
F11.924999999999999
sg34
F5.46875
sg35
F7.25625
sssI2014
(dp62
g2
(dp63
g4
F6.375
sg5
F7.3125
sg6
F6.375
sg7
F7.4375
sg8
F8.4375
sg9
F6.625
sg10
F7.1875
sg11
F6.625
sg12
F6.9375
sg13
F7.4375
sg14
F5.125
sg15
F8.5625
sg16
F7.9375
sg17
F5.375
sg18
F7.1875
sg19
F5.5
sg20
F9.25
sg21
F6.9375
sg22
F7.125
sg23
F7.5625
sg24
F7.375
sg25
F5.5
sg26
F5.9375
sg27
F7.25
sg28
F8.25
sg29
F7.5625
sg30
F7.0
sg31
F7.0
sg32
F5.3125
sg33
F6.6875
sg34
F5.882352941176471
sg35
F7.5
ssg36
(dp64
g4
F14.57125
sg5
F12.93875
sg6
F16.21375
sg7
F16.55125
sg8
F13.4125
sg9
F12.536249999999999
sg10
F12.99
sg11
F15.661250000000003
sg12
F16.055
sg13
F17.23625
sg14
F13.163750000000004
sg15
F15.496249999999998
sg16
F18.105
sg17
F15.036250000000003
sg18
F11.990000000000002
sg19
F9.561250000000001
sg20
F19.02
sg21
F11.7575
sg22
F14.223749999999999
sg23
F11.93875
sg24
F16.404999999999998
sg25
F14.79125
sg26
F14.828749999999998
sg27
F19.69625
sg28
F14.441249999999998
sg29
F8.77
sg30
F18.881250000000005
sg31
F16.806250000000002
sg32
F13.073750000000002
sg33
F14.7425
sg34
F10.898823529411764
sg35
F14.125
ssg38
(dp65
g4
F20.3625
sg5
F21.549999999999997
sg6
F21.1875
sg7
F22.9875
sg8
F19.09375
sg9
F17.8375
sg10
F22.1875
sg11
F17.875000000000004
sg12
F23.143749999999997
sg13
F17.387500000000003
sg14
F20.25
sg15
F17.862499999999997
sg16
F23.393750000000008
sg17
F17.79375
sg18
F17.4625
sg19
F12.300000000000004
sg20
F21.400000000000006
sg21
F19.006250000000005
sg22
F23.356250000000006
sg23
F20.950000000000006
sg24
F23.543750000000003
sg25
F23.4875
sg26
F21.575
sg27
F23.78125
sg28
F19.206249999999994
sg29
F20.03125
sg30
F26.525000000000002
sg31
F22.9375
sg32
F18.24375
sg33
F20.54375
sg34
F19.2764705882353
sg35
F21.681249999999995
ssg40
(dp66
g4
F16.624999999999996
sg5
F16.64375
sg6
F15.66875
sg7
F21.30625
sg8
F20.875000000000004
sg9
F18.081250000000004
sg10
F14.156249999999998
sg11
F13.487499999999997
sg12
F11.1875
sg13
F14.04375
sg14
F12.806250000000002
sg15
F20.30625
sg16
F20.474999999999998
sg17
F16.293750000000003
sg18
F15.89375
sg19
F13.4125
sg20
F14.550000000000004
sg21
F14.9625
sg22
F13.41875
sg23
F18.481249999999992
sg24
F14.6625
sg25
F15.581249999999997
sg26
F14.206249999999997
sg27
F12.218749999999996
sg28
F18.400000000000002
sg29
F13.806249999999997
sg30
F16.9875
sg31
F12.737499999999997
sg32
F17.237499999999997
sg33
F11.28125
sg34
F11.78235294117647
sg35
F14.912500000000003
ssg42
(dp67
g4
F6.08125
sg5
F6.08125
sg6
F6.1125
sg7
F4.937500000000001
sg8
F8.625
sg9
F6.643750000000001
sg10
F10.08125
sg11
F9.0125
sg12
F6.418749999999999
sg13
F7.8625
sg14
F6.76875
sg15
F8.23125
sg16
F4.59375
sg17
F8.825000000000001
sg18
F8.456249999999999
sg19
F7.6625000000000005
sg20
F10.44375
sg21
F4.01875
sg22
F4.818750000000002
sg23
F5.543749999999999
sg24
F5.018750000000001
sg25
F4.925
sg26
F5.6937500000000005
sg27
F8.875
sg28
F7.237500000000001
sg29
F5.75625
sg30
F4.887500000000001
sg31
F8.5375
sg32
F8.6375
sg33
F9.656250000000002
sg34
F7.782352941176471
sg35
F5.1000000000000005
sssI2015
(dp68
g2
(dp69
g4
F6.75
sg5
F6.5625
sg6
F4.6875
sg7
F6.1875
sg8
F8.6875
sg9
F6.5625
sg10
F6.75
sg11
F6.375
sg12
F7.9375
sg13
F8.75
sg14
F7.25
sg15
F7.1875
sg16
F5.823529411764706
sg17
F7.875
sg18
F5.705882352941177
sg19
F6.4375
sg20
F7.1875
sg21
F5.823529411764706
sg22
F8.375
sg23
F8.375
sg24
F7.625
sg25
F5.5
sg26
F6.4375
sg27
F6.8125
sg28
F7.6875
sg29
F4.647058823529412
sg30
F8.0
sg31
F6.6875
sg32
F7.75
sg33
F6.5625
sg34
F7.4375
sg35
F7.875
ssg36
(dp70
g4
F15.391250000000001
sg5
F16.7575
sg6
F14.053750000000004
sg7
F14.471249999999998
sg8
F16.97375
sg9
F13.087499999999999
sg10
F13.606250000000001
sg11
F12.322500000000002
sg12
F16.970000000000002
sg13
F20.10625
sg14
F16.515
sg15
F19.068749999999998
sg16
F22.32941176470588
sg17
F15.839999999999996
sg18
F14.947058823529408
sg19
F12.653750000000002
sg20
F19.2125
sg21
F15.754117647058827
sg22
F15.401250000000003
sg23
F18.822499999999998
sg24
F16.848750000000003
sg25
F13.916250000000002
sg26
F14.595
sg27
F18.01125
sg28
F18.027500000000003
sg29
F13.034117647058824
sg30
F19.96875
sg31
F17.06
sg32
F16.852500000000003
sg33
F14.49625
sg34
F16.387500000000003
sg35
F14.752500000000001
ssg38
(dp71
g4
F20.125
sg5
F24.006249999999994
sg6
F19.9
sg7
F15.837499999999999
sg8
F19.718749999999996
sg9
F20.56875
sg10
F23.23125
sg11
F15.65
sg12
F26.45000000000001
sg13
F22.893749999999997
sg14
F22.368749999999995
sg15
F24.64375
sg16
F24.264705882352946
sg17
F19.437500000000004
sg18
F22.952941176470585
sg19
F16.306250000000002
sg20
F17.89375
sg21
F23.399999999999995
sg22
F20.34375
sg23
F27.062500000000007
sg24
F25.256249999999998
sg25
F20.250000000000004
sg26
F19.418750000000003
sg27
F24.85
sg28
F22.34375
sg29
F22.982352941176465
sg30
F25.631249999999998
sg31
F27.031250000000007
sg32
F25.618750000000002
sg33
F18.96875
sg34
F22.71249999999999
sg35
F19.2
ssg40
(dp72
g4
F15.306250000000004
sg5
F23.612500000000008
sg6
F15.35625
sg7
F18.075000000000006
sg8
F17.750000000000004
sg9
F16.681250000000002
sg10
F12.537500000000001
sg11
F15.181249999999997
sg12
F15.443749999999996
sg13
F19.718749999999993
sg14
F17.918749999999996
sg15
F15.418749999999992
sg16
F18.51176470588236
sg17
F20.36875
sg18
F13.829411764705881
sg19
F11.78125
sg20
F17.61875
sg21
F16.258823529411764
sg22
F15.887500000000003
sg23
F18.325
sg24
F16.25
sg25
F15.78125
sg26
F16.0875
sg27
F18.06875000000001
sg28
F20.499999999999996
sg29
F13.105882352941178
sg30
F19.88125000000001
sg31
F13.306250000000004
sg32
F18.775000000000006
sg33
F14.968749999999998
sg34
F21.76875
sg35
F21.443750000000005
ssg42
(dp73
g4
F7.531250000000001
sg5
F7.018750000000001
sg6
F6.88125
sg7
F9.587500000000004
sg8
F9.74375
sg9
F5.487500000000001
sg10
F5.4125
sg11
F8.274999999999997
sg12
F5.44375
sg13
F11.39375
sg14
F9.737499999999999
sg15
F9.16875
sg16
F11.235294117647058
sg17
F5.343750000000001
sg18
F5.6
sg19
F8.174999999999999
sg20
F7.668750000000002
sg21
F6.623529411764705
sg22
F8.15625
sg23
F6.60625
sg24
F6.831250000000002
sg25
F7.0625
sg26
F7.6875
sg27
F7.368750000000001
sg28
F9.28125
sg29
F4.894117647058824
sg30
F6.86875
sg31
F8.7125
sg32
F8.575000000000001
sg33
F7.70625
sg34
F6.2125
sg35
F8.03125
sss.