(dp0
S'K'
p1
(dp2
S'2015'
p3
(lp4
S'Andrew Franks'
p5
aS'Chris Boswell'
p6
aS'Jason Myers'
p7
aS'Josh Lambo'
p8
aS'Travis Coons'
p9
aS'Zach Hocker'
p10
asS'2014'
p11
(lp12
S'Brandon McManus'
p13
aS'Cairo Santos'
p14
aS'Chandler Catanzaro'
p15
aS'Cody Parkey'
p16
aS'Jordan Gay'
p17
aS'Patrick Murray'
p18
asS'2016'
p19
(lp20
S'Roberto Aguayo'
p21
aS'Will Lutz'
p22
asS'2011'
p23
(lp24
S'Dan Bailey'
p25
aS'Nick Novak'
p26
asS'2013'
p27
(lp28
S'Caleb Sturgis'
p29
aS'Dustin Hopkins'
p30
aS'Randy Bullock'
p31
asS'2012'
p32
(lp33
S'Blair Walsh'
p34
aS'Greg Zuerlein'
p35
aS'Justin Tucker'
p36
aS'Kai Forbath'
p37
assS'QB'
p38
(dp39
g3
(lp40
S'Brett Hundley'
p41
aS'Bryce Petty'
p42
aS'Dylan Thompson'
p43
aS'Garrett Grayson'
p44
aS'Jameill Showers'
p45
aS'Jameis Winston'
p46
aS'Keith Wenning'
p47
aS'Marcus Mariota'
p48
aS'Sean Mannion'
p49
aS'Taylor Heinicke'
p50
aS'Trevor Siemian'
p51
asg11
(lp52
S'Aaron Murray'
p53
aS'AJ McCarron'
p54
aS'Blake Bortles'
p55
aS'Connor Shaw'
p56
aS'David Fales'
p57
aS'Derek Carr'
p58
aS'Dustin Vaughan'
p59
aS'Jimmy Garoppolo'
p60
aS'Johnny Manziel'
p61
aS'Logan Thomas'
p62
aS'Sean Renfree'
p63
aS'Stephen Morris'
p64
aS'Teddy Bridgewater'
p65
aS'Tom Savage'
p66
aS'Zach Mettenberger'
p67
asg19
(lp68
S'Brandon Allen'
p69
aS'Brandon Doughty'
p70
aS'Cardale Jones'
p71
aS'Carson Wentz'
p72
aS'Christian Hackenberg'
p73
aS'Cody Kessler'
p74
aS'Connor Cook'
p75
aS'Dak Prescott'
p76
aS'Jacoby Brissett'
p77
aS'Jeff Driskel'
p78
aS'Joe Callahan'
p79
aS'Nate Sudfeld'
p80
aS'Paxton Lynch'
p81
aS'Trevone Boykin'
p82
asg23
(lp83
S'Andy Dalton'
p84
aS'Blaine Gabbert'
p85
aS'Cam Newton'
p86
aS'Colin Kaepernick'
p87
aS'Josh McCown'
p88
aS'Ryan Mallett'
p89
aS'Scott Tolzien'
p90
aS'Tyrod Taylor'
p91
asg27
(lp92
S'Alex Tanney'
p93
aS'Case Keenum'
p94
aS'EJ Manuel'
p95
aS'Geno Smith'
p96
aS'Landry Jones'
p97
aS'Matt Barkley'
p98
aS'Matt McGloin'
p99
aS'Matt Simms'
p100
aS'Mike Glennon'
p101
aS'Ryan Griffin'
p102
aS'Ryan Nassib'
p103
aS'Tyler Bray'
p104
aS'Zac Dysert'
p105
asg32
(lp106
S'Andrew Luck'
p107
aS'Austin Davis'
p108
aS'Brandon Weeden'
p109
aS'Brock Osweiler'
p110
aS'Kellen Moore'
p111
aS'Kirk Cousins'
p112
aS'Nick Foles'
p113
aS'Robert Griffin III'
p114
aS'Russell Wilson'
p115
aS'Ryan Tannehill'
p116
assS'WR'
p117
(dp118
g3
(lp119
S'Adam Humphries'
p120
aS'Amari Cooper'
p121
aS'Andrew Turzilli'
p122
aS'Bennie Fowler'
p123
aS'Bradley Marquez'
p124
aS'Breshad Perriman'
p125
aS'Cameron Meredith'
p126
aS'Chandler Worthy'
p127
aS'Chris Conley'
p128
aS'Chris Harper'
p129
aS'Daniel Brown'
p130
aS'Darius Jennings'
p131
aS'Darren Waller'
p132
aS'DeAndrew White'
p133
aS'DeVante Parker'
p134
aS'Devin Funchess'
p135
aS'Devin Smith'
p136
aS'Dezmin Lewis'
p137
aS'Dontee Dye'
p138
aS'Dorial Green-Beckham'
p139
aS'Evan Spencer'
p140
aS'Geremy Davis'
p141
aS'J.J. Nelson'
p142
aS'Jaelen Strong'
p143
aS'Jamison Crowder'
p144
aS'Jared Abbrederis'
p145
aS'Javontee Herndon'
p146
aS'Jeremy Butler'
p147
aS'Jonathan Krause'
p148
aS'Justin Hardy'
p149
aS'Kaelin Clay'
p150
aS'Kasen Williams'
p151
aS'Keith Mumphery'
p152
aS'Kevin Smith'
p153
aS'Lucky Whitehead'
p154
aS'Mario Alford'
p155
aS'Neal Sterling'
p156
aS'Nelson Agholor'
p157
aS'Phillip Dorsett'
p158
aS'Quan Bray'
p159
aS'Rannell Hall'
p160
aS'Rashad Greene'
p161
aS'Rashad Lawrence'
p162
aS'Sammie Coates'
p163
aS'Seth Roberts'
p164
aS'Stefon Diggs'
p165
aS'T.J. Jones'
p166
aS'Tony Washington'
p167
aS'Tre McBride'
p168
aS'Ty Montgomery'
p169
aS'Tyler Lockett'
p170
aS'Tyler Murphy'
p171
aS'Tyrell Williams'
p172
aS'Vince Mayle'
p173
aS'Willie Snead'
p174
asg11
(lp175
S'Adam Thielen'
p176
aS'Albert Wilson'
p177
aS'Allen Hurns'
p178
aS'Allen Robinson'
p179
aS'Brandin Cooks'
p180
aS'Brandon Coleman'
p181
aS'Brenton Bersin'
p182
aS'Bruce Ellington'
p183
aS'Chris Matthews'
p184
aS'Cody Latimer'
p185
aS'Corey Brown'
p186
aS'Corey Fuller'
p187
aS'Davante Adams'
p188
aS"De'Anthony Thomas"
p189
aS'Devin Street'
p190
aS'Donte Moncrief'
p191
aS'Dontrelle Inman'
p192
aS'Frankie Hammond'
p193
aS'Freddie Martino'
p194
aS'Isaiah Burse'
p195
aS'James Wright'
p196
aS'Jarvis Landry'
p197
aS'Jeff Janis'
p198
aS'John Brown'
p199
aS'Jordan Matthews'
p200
aS'Josh Huff'
p201
aS'Kelvin Benjamin'
p202
aS'Kevin Norwood'
p203
aS'Marqise Lee'
p204
aS'Martavis Bryant'
p205
aS'Matt Hazel'
p206
aS'Michael Campanaro'
p207
aS'Mike Evans'
p208
aS'Odell Beckham'
p209
aS'Paul Richardson'
p210
aS'Quincy Enunwa'
p211
aS'Rashad Ross'
p212
aS'Rico Richardson'
p213
aS'Ryan Grant'
p214
aS'Sammy Watkins'
p215
aS'Seantavius Jones'
p216
aS'Taylor Gabriel'
p217
aS'Walt Powell'
p218
asg19
(lp219
S'Alex Erickson'
p220
aS'Braxton Miller'
p221
aS'Bryce Treggs'
p222
aS'C.J. Goodwin'
p223
aS'Charone Peake'
p224
aS'Chester Rogers'
p225
aS'Chris Moore'
p226
aS'Cody Core'
p227
aS'Corey Coleman'
p228
aS'Damiere Byrd'
p229
aS'Demarcus Robinson'
p230
aS'Eli Rogers'
p231
aS'Jakeem Grant'
p232
aS'Jalin Marshall'
p233
aS'Johnny Holton'
p234
aS'Jordan Payton'
p235
aS'Jordan Taylor'
p236
aS'Josh Doctson'
p237
aS'Kevin White'
p238
aS'Laquon Treadwell'
p239
aS'Leonte Carroo'
p240
aS'Malcolm Mitchell'
p241
aS'Michael Thomas'
p242
aS'Rashard Higgins'
p243
aS'Ricardo Louis'
p244
aS'Robby Anderson'
p245
aS'Roger Lewis'
p246
aS'Sterling Shepard'
p247
aS'Tajae Sharpe'
p248
aS'Tommylee Lewis'
p249
aS'Trevor Davis'
p250
aS'Tyler Boyd'
p251
aS'Tyreek Hill'
p252
aS'Will Fuller'
p253
asg23
(lp254
S'A.J. Green'
p255
aS'Aldrick Robinson'
p256
aS'Andre Holmes'
p257
aS'Andrew Hawkins'
p258
aS'Bryan Walters'
p259
aS'Cecil Shorts'
p260
aS'Doug Baldwin'
p261
aS'Dwayne Harris'
p262
aS'Greg Little'
p263
aS'Greg Salas'
p264
aS'Jeremy Kerley'
p265
aS'Julio Jones'
p266
aS'Kamar Aiken'
p267
aS'Leonard Hankerson'
p268
aS'Marcus Easley'
p269
aS'Randall Cobb'
p270
aS'Ricardo Lockette'
p271
aS'Terrelle Pryor'
p272
aS'Torrey Smith'
p273
aS'Vincent Brown'
p274
aS'Vincent Jackson'
p275
asg27
(lp276
S'Aaron Dobson'
p277
aS'Brian Tyms'
p278
aS'Brice Butler'
p279
aS'Brittan Golden'
p280
aS'Charles Johnson'
p281
aS'Cordarrelle Patterson'
p282
aS'DeAndre Hopkins'
p283
aS'Griff Whalen'
p284
aS'Jaron Brown'
p285
aS'Josh Boyce'
p286
aS'Justin Hunter'
p287
aS'Keenan Allen'
p288
aS'Kenbrell Thompkins'
p289
aS'Kenny Stills'
p290
aS'Markus Wheaton'
p291
aS'Marquess Wilson'
p292
aS'Marquise Goodwin'
p293
aS'Myles White'
p294
aS'Nick Toon'
p295
aS'Nick Williams'
p296
aS'Quinton Patton'
p297
aS'Robert Woods'
p298
aS'Rodney Smith'
p299
aS'Russell Shepard'
p300
aS'Ryan Spadola'
p301
aS'Stedman Bailey'
p302
aS'Tavarres King'
p303
aS'Tavon Austin'
p304
aS'Terrance Williams'
p305
aS'Tobais Palmer'
p306
asg32
(lp307
S'Alshon Jeffery'
p308
aS'Brian Quick'
p309
aS'Chris Givens'
p310
aS'Chris Hogan'
p311
aS'Chris Owusu'
p312
aS'Cole Beasley'
p313
aS'Damaris Johnson'
p314
aS'Deonte Thompson'
p315
aS'DeVier Posey'
p316
aS'Jarius Wright'
p317
aS'Jarrett Boykin'
p318
aS'Jeremy Ross'
p319
aS'Jermaine Kearse'
p320
aS'Josh Bellamy'
p321
aS'Josh Gordon'
p322
aS'Justin Blackmon'
p323
aS'Kendall Wright'
p324
aS'Keshawn Martin'
p325
aS'LaRon Byrd'
p326
aS'Marvin Jones'
p327
aS'Michael Floyd'
p328
aS'Mohamed Sanu'
p329
aS'Nathan Palmer'
p330
aS'Rishard Matthews'
p331
aS'Rod Streater'
p332
aS'Rueben Randle'
p333
aS'Saalim Hakim'
p334
aS'Stephen Hill'
p335
aS'T.J. Graham'
p336
aS'T.Y. Hilton'
p337
aS'Travis Benjamin'
p338
assS'RB'
p339
(dp340
g3
(lp341
S'Aaron Ripkowski'
p342
aS'Akeem Hunt'
p343
aS'Ameer Abdullah'
p344
aS'Brandon Wegher'
p345
aS'Cameron Artis-Payne'
p346
aS'Corey Grant'
p347
aS'David Cobb'
p348
aS'David Johnson'
p349
aS'Dreamius Smith'
p350
aS'Duke Johnson'
p351
aS'Jalston Fowler'
p352
aS'Javorius Allen'
p353
aS'Jay Ajayi'
p354
aS'Jeremy Langford'
p355
aS'Joey Iosefa'
p356
aS'John Crockett'
p357
aS'Karlos Williams'
p358
aS'Kendall Gaskins'
p359
aS'Malcolm Brown'
p360
aS'Malcolm Johnson'
p361
aS'Marcus Murphy'
p362
aS'Melvin Gordon'
p363
aS'Michael Burton'
p364
aS'Mike Davis'
p365
aS'Nikit Whitlock'
p366
aS'Raheem Mostert'
p367
aS'Rod Smith'
p368
aS'Roosevelt Nix-Jones'
p369
aS'T.J. Yeldon'
p370
aS'Terrence Magee'
p371
aS'Terron Ward'
p372
aS'Tevin Coleman'
p373
aS'Thomas Rawls'
p374
aS'Todd Gurley'
p375
aS'Trey Williams'
p376
aS'Tyler Varga'
p377
aS'Zach Zenner'
p378
asg11
(lp379
S'Alfred Blue'
p380
aS'Andre Williams'
p381
aS'Antonio Andrews'
p382
aS'Austin Johnson'
p383
aS'Bishop Sankey'
p384
aS'Branden Oliver'
p385
aS'Carlos Hyde'
p386
aS'Charcandrick West'
p387
aS'Charles Sims'
p388
aS'Damien Williams'
p389
aS'Darrin Reaves'
p390
aS'Devont Freeman'
p391
aS'Dri Archer'
p392
aS'Fitzgerald Toussaint'
p393
aS'George Atkinson'
p394
aS'George Winn'
p395
aS'Glenn Winston'
p396
aS'Isaiah Crowell'
p397
aS'James White'
p398
aS'Jay Prosch'
p399
aS'Jeremy Hill'
p400
aS'Jerick McKinnon'
p401
aS'Jonas Gray'
p402
aS'Juwan Thompson'
p403
aS"Ka'Deem Carey"
p404
aS'Kapri Bibbs'
p405
aS'Latavius Murray'
p406
aS'Lorenzo Taliaferro'
p407
aS'Orleans Darkwa'
p408
aS'Senorise Perry'
p409
aS'Silas Redd'
p410
aS'Storm Johnson'
p411
aS'Terrance West'
p412
aS'Tre Mason'
p413
asg19
(lp414
S'Alex Collins'
p415
aS'Andy Janovich'
p416
aS'C.J. Prosise'
p417
aS'D.J. Foster'
p418
aS'Daniel Lasco'
p419
aS'Darius Jackson'
p420
aS'DeAndre Washington'
p421
aS'Derek Watt'
p422
aS'Derrick Henry'
p423
aS'Devontae Booker'
p424
aS'Dwayne Washington'
p425
aS'Ezekiel Elliott'
p426
aS'Glenn Gronkowski'
p427
aS'Jalen Richard'
p428
aS'Jhurrell Pressley'
p429
aS'Jonathan Williams'
p430
aS'Jordan Howard'
p431
aS'Josh Ferguson'
p432
aS'Julian Howsare'
p433
aS'Keith Smith'
p434
aS'Kenneth Dixon'
p435
aS'Kenneth Farrow'
p436
aS'Kenyan Drake'
p437
aS'Matt Jones'
p438
aS'Paul Lasike'
p439
aS'Paul Perkins'
p440
aS'Peyton Barber'
p441
aS'Rob Kelley'
p442
aS'Roosevelt Nix'
p443
aS'Troymaine Pope'
p444
aS'Tyler Ervin'
p445
aS'Wendell Smallwood'
p446
asg23
(lp447
S'Anthony Sherman'
p448
aS'Bilal Powell'
p449
aS'Bruce Miller'
p450
aS'Daniel Thomas'
p451
aS'DeMarco Murray'
p452
aS'Dion Lewis'
p453
aS'DuJuan Harris'
p454
aS'Jacquizz Rodgers'
p455
aS'Jordan Todman'
p456
aS'Kendall Hunter'
p457
aS'Mark Ingram'
p458
aS'Roy Helu'
p459
aS'Shane Vereen'
p460
aS'Shaun Draughn'
p461
aS'Stevan Ridley'
p462
aS'Taiwan Jones'
p463
aS'Tyler Clutts'
p464
asg27
(lp465
S'Andre Ellington'
p466
aS'Benny Cunningham'
p467
aS'C.J. Anderson'
p468
aS'Chase Reynolds'
p469
aS'Chris Thompson'
p470
aS'Christine Michael'
p471
aS'Denard Robinson'
p472
aS'Derrick Coleman'
p473
aS'Eddie Lacy'
p474
aS'Fozzy Whittaker'
p475
aS'Giovani Bernard'
p476
aS'Joe Banyard'
p477
aS'Kenjon Barner'
p478
aS'Kerwynn Williams'
p479
aS'Khiry Robinson'
p480
aS'Knile Davis'
p481
aS'Kyle Juszczyk'
p482
aS"Le'Veon Bell"
p483
aS'Mike Gillislee'
p484
aS'Mike James'
p485
aS'Rex Burkhead'
p486
aS'Spencer Ware'
p487
aS'Stepfan Taylor'
p488
aS'Theo Riddick'
p489
aS'Tommy Bohanon'
p490
aS'Zac Stacy'
p491
aS'Zach Line'
p492
asg32
(lp493
S'Alfred Morris'
p494
aS'Bernard Pierce'
p495
aS'Bobby Rainey'
p496
aS'Brandon Bolden'
p497
aS'Bryce Brown'
p498
aS'Chris Polk'
p499
aS'Cyrus Gray'
p500
aS'Dan Herron'
p501
aS'Daryl Richardson'
p502
aS'Doug Martin'
p503
aS'Isaiah Pead'
p504
aS'James Develin'
p505
aS'Jamize Olawale'
p506
aS'Jonathan Grimes'
p507
aS'Jorvorskie Lane'
p508
aS'Lamar Miller'
p509
aS'Lance Dunbar'
p510
aS'Matt Asiata'
p511
aS'Patrick DiMarco'
p512
aS'Robert Turbin'
p513
aS'Ronnie Hillman'
p514
aS'Travaris Cadet'
p515
aS'Trent Richardson'
p516
aS'Vick Ballard'
p517
aS'Will Johnson'
p518
assS'TE'
p519
(dp520
g3
(lp521
S'Blake Bell'
p522
aS'Brian Parker'
p523
aS'C.J. Uzomah'
p524
aS'Clive Walford'
p525
aS'D.J. Tialavea'
p526
aS'E.J. Bibbs'
p527
aS'Erik Swoope'
p528
aS'Gabe Holmes'
p529
aS'Geoff Swaim'
p530
aS"James O'Shaughnessy"
p531
aS"Je'Ron Hamm"
p532
aS'Jesse James'
p533
aS'Kennard Backman'
p534
aS'Khari Lee'
p535
aS'Matt LaCosse'
p536
aS'Maxx Williams'
p537
aS'Michael Williams'
p538
aS'Mitchell Henry'
p539
aS'MyCole Pruitt'
p540
aS'Nick Boyle'
p541
aS"Nick O'Leary"
p542
aS'Tevin Westbrook'
p543
aS'Tyler Kroft'
p544
aS'Wes Saxton'
p545
aS'Will Tye'
p546
asg11
(lp547
S'Anthony Denham'
p548
aS'Asante Cleveland'
p549
aS'Austin Seferian-Jenkins'
p550
aS'Blake Annen'
p551
aS'Brian Leonhardt'
p552
aS'C.J. Fiedorowicz'
p553
aS'Cameron Brate'
p554
aS'Cooper Helfet'
p555
aS'Crockett Gillmore'
p556
aS'Darren Fells'
p557
aS'Demetrius Harris'
p558
aS'Eric Ebron'
p559
aS'Jace Amaro'
p560
aS'Jerome Cunningham'
p561
aS'Justin Perillo'
p562
aS'Marcel Jensen'
p563
aS'Nic Jacobs'
p564
aS'Phillip Supernaw'
p565
aS'RaShaun Allen'
p566
aS'Richard Rodgers'
p567
aS'Ryan Hewitt'
p568
aS'Scott Simonson'
p569
aS'Trey Burton'
p570
aS'Troy Niklas'
p571
asg19
(lp572
S'A.J. Derby'
p573
aS'Austin Hooper'
p574
aS'Ben Koyack'
p575
aS'Braedon Bowman'
p576
aS'Chris Manhertz'
p577
aS'Cole Wick'
p578
aS'David Morgan'
p579
aS'Greg Scruggs'
p580
aS'Hunter Henry'
p581
aS'Jeff Heuerman'
p582
aS'Jerell Adams'
p583
aS'Josh Perkins'
p584
aS'Neal Sterling'
p585
aS'Nick Vannett'
p586
aS'Randall Telfer'
p587
aS'Ross Travis'
p588
aS'Seth Devalve'
p589
aS'Stephen Anderson'
p590
aS'Xavier Grimble'
p591
asg23
(lp592
S'Allen Reisner'
p593
aS'Charles Clay'
p594
aS'John Phillips'
p595
aS'Jordan Cameron'
p596
aS'Julius Thomas'
p597
aS'Kyle Rudolph'
p598
aS'Lance Kendricks'
p599
aS'Lee Smith'
p600
aS'Luke Stocker'
p601
aS'Niles Paul'
p602
aS'Richard Gordon'
p603
aS'Rob Housler'
p604
aS'Virgil Green'
p605
asg27
(lp606
S'Brandon Bostick'
p607
aS'Brandon Williams'
p608
aS'Chris Gragg'
p609
aS'Chris Pantale'
p610
aS'Derek Carrier'
p611
aS'Dion Sims'
p612
aS'Gavin Escobar'
p613
aS'Jack Doyle'
p614
aS'Jake Stoneburner'
p615
aS'Jordan Reed'
p616
aS'Josh Hill'
p617
aS'Justice Cunningham'
p618
aS'Larry Donnell'
p619
aS'Levine Toilolo'
p620
aS'Luke Willson'
p621
aS'MarQueis Gray'
p622
aS'Mychal Rivera'
p623
aS'Ryan Griffin'
p624
aS'Timothy Wright'
p625
aS'Travis Kelce'
p626
aS'Tyler Eifert'
p627
aS'Vance McDonald'
p628
aS'Zach Ertz'
p629
aS'Zach Sudfeld'
p630
asg32
(lp631
S'Coby Fleener'
p632
aS'Cory Harkey'
p633
aS'Dominique Jones'
p634
aS'Dwayne Allen'
p635
aS'Garrett Celek'
p636
aS'James Hanna'
p637
aS'Konrad Reuland'
p638
aS'Ladarius Green'
p639
aS'Orson Charles'
p640
aS'Rhett Ellison'
p641
aS'Sean McGrath'
p642
ass.