(dp0
S'K'
p1
(dp2
I2016
(lp3
S'Roberto Aguayo'
p4
aS'Will Lutz'
p5
asI2011
(lp6
S'Dan Bailey'
p7
aS'Nick Novak'
p8
asI2012
(lp9
S'Blair Walsh'
p10
aS'Greg Zuerlein'
p11
aS'Justin Tucker'
p12
aS'Kai Forbath'
p13
asI2013
(lp14
S'Caleb Sturgis'
p15
aS'Dustin Hopkins'
p16
aS'Randy Bullock'
p17
asI2014
(lp18
S'Brandon McManus'
p19
aS'Cairo Santos'
p20
aS'Chandler Catanzaro'
p21
aS'Cody Parkey'
p22
aS'Jordan Gay'
p23
aS'Patrick Murray'
p24
asI2015
(lp25
S'Andrew Franks'
p26
aS'Chris Boswell'
p27
aS'Jason Myers'
p28
aS'Josh Lambo'
p29
aS'Travis Coons'
p30
aS'Zach Hocker'
p31
assS'QB'
p32
(dp33
I2016
(lp34
S'Brandon Allen'
p35
aS'Brandon Doughty'
p36
aS'Cardale Jones'
p37
aS'Carson Wentz'
p38
aS'Christian Hackenberg'
p39
aS'Christian Ponder'
p40
aS'Cody Kessler'
p41
aS'Connor Cook'
p42
aS'Dak Prescott'
p43
aS'Jacoby Brissett'
p44
aS'Jared Goff'
p45
aS'Jeff Driskel'
p46
aS'Joe Callahan'
p47
aS'Nate Sudfeld'
p48
aS'Paxton Lynch'
p49
aS'Trevone Boykin'
p50
asI2011
(lp51
S'Andy Dalton'
p52
aS'Blaine Gabbert'
p53
aS'Cam Newton'
p54
aS'Colin Kaepernick'
p55
aS'Josh McCown'
p56
aS'Ryan Mallett'
p57
aS'Scott Tolzien'
p58
aS'Tyrod Taylor'
p59
asI2012
(lp60
S'Andrew Luck'
p61
aS'Austin Davis'
p62
aS'Brandon Weeden'
p63
aS'Brock Osweiler'
p64
aS'Kellen Moore'
p65
aS'Kirk Cousins'
p66
aS'Nick Foles'
p67
aS'Robert Griffin III'
p68
aS'Russell Wilson'
p69
aS'Ryan Tannehill'
p70
asI2013
(lp71
S'Alex Tanney'
p72
aS'Case Keenum'
p73
aS'EJ Manuel'
p74
aS'Geno Smith'
p75
aS'Landry Jones'
p76
aS'Matt Barkley'
p77
aS'Matt McGloin'
p78
aS'Matt Simms'
p79
aS'Mike Glennon'
p80
aS'Ryan Griffin'
p81
aS'Ryan Nassib'
p82
aS'Tyler Bray'
p83
aS'Zac Dysert'
p84
asI2014
(lp85
S'Aaron Murray'
p86
aS'AJ McCarron'
p87
aS'Blake Bortles'
p88
aS'Connor Shaw'
p89
aS'David Fales'
p90
aS'Derek Carr'
p91
aS'Dustin Vaughan'
p92
aS'Jimmy Garoppolo'
p93
aS'Johnny Manziel'
p94
aS'Logan Thomas'
p95
aS'Sean Renfree'
p96
aS'Stephen Morris'
p97
aS'Teddy Bridgewater'
p98
aS'Tom Savage'
p99
aS'Zach Mettenberger'
p100
asI2015
(lp101
S'Brett Hundley'
p102
aS'Bryce Petty'
p103
aS'Dylan Thompson'
p104
aS'Garrett Grayson'
p105
aS'Jameill Showers'
p106
aS'Jameis Winston'
p107
aS'Keith Wenning'
p108
aS'Marcus Mariota'
p109
aS'Sean Mannion'
p110
aS'Taylor Heinicke'
p111
aS'Trevor Siemian'
p112
assS'WR'
p113
(dp114
I2016
(lp115
S'Aaron Burbridge'
p116
aS'Alex Erickson'
p117
aS'Braxton Miller'
p118
aS'Bryce Treggs'
p119
aS'C.J. Goodwin'
p120
aS'Charone Peake'
p121
aS'Chester Rogers'
p122
aS'Chris Moore'
p123
aS'Cody Core'
p124
aS'Corey Coleman'
p125
aS'Damiere Byrd'
p126
aS'Demarcus Robinson'
p127
aS'Eli Rogers'
p128
aS'Jakeem Grant'
p129
aS'Jalin Marshall'
p130
aS'Johnny Holton'
p131
aS'Jordan Payton'
p132
aS'Jordan Taylor'
p133
aS'Josh Doctson'
p134
aS'Kevin White'
p135
aS'Laquon Treadwell'
p136
aS'Leonte Carroo'
p137
aS'Malcolm Mitchell'
p138
aS'Michael Thomas'
p139
aS'Mike Thomas'
p140
aS'Nelson Spruce'
p141
aS'Pharoh Cooper'
p142
aS'Rashard Higgins'
p143
aS'Ricardo Louis'
p144
aS'Robby Anderson'
p145
aS'Roger Lewis'
p146
aS'Sterling Shepard'
p147
aS'Tajae Sharpe'
p148
aS'Tommylee Lewis'
p149
aS'Trevor Davis'
p150
aS'Tyler Boyd'
p151
aS'Tyreek Hill'
p152
aS'Will Fuller'
p153
asI2011
(lp154
S'A.J. Green'
p155
aS'Aldrick Robinson'
p156
aS'Andre Holmes'
p157
aS'Andrew Hawkins'
p158
aS'Bryan Walters'
p159
aS'Cecil Shorts'
p160
aS'Doug Baldwin'
p161
aS'Dwayne Harris'
p162
aS'Greg Little'
p163
aS'Greg Salas'
p164
aS'Jeremy Kerley'
p165
aS'Julio Jones'
p166
aS'Kamar Aiken'
p167
aS'Leonard Hankerson'
p168
aS'Marcus Easley'
p169
aS'Randall Cobb'
p170
aS'Ricardo Lockette'
p171
aS'Terrelle Pryor'
p172
aS'Torrey Smith'
p173
aS'Vincent Brown'
p174
aS'Vincent Jackson'
p175
asI2012
(lp176
S'Alshon Jeffery'
p177
aS'Brian Quick'
p178
aS'Chris Givens'
p179
aS'Chris Hogan'
p180
aS'Chris Owusu'
p181
aS'Cole Beasley'
p182
aS'Damaris Johnson'
p183
aS'Deonte Thompson'
p184
aS'DeVier Posey'
p185
aS'Jarius Wright'
p186
aS'Jarrett Boykin'
p187
aS'Jeremy Ross'
p188
aS'Jermaine Kearse'
p189
aS'Josh Bellamy'
p190
aS'Josh Gordon'
p191
aS'Justin Blackmon'
p192
aS'Kendall Wright'
p193
aS'Keshawn Martin'
p194
aS'LaRon Byrd'
p195
aS'Marvin Jones'
p196
aS'Michael Floyd'
p197
aS'Mohamed Sanu'
p198
aS'Nathan Palmer'
p199
aS'Rishard Matthews'
p200
aS'Rod Streater'
p201
aS'Rueben Randle'
p202
aS'Saalim Hakim'
p203
aS'Stephen Hill'
p204
aS'T.J. Graham'
p205
aS'T.Y. Hilton'
p206
aS'Travis Benjamin'
p207
asI2013
(lp208
S'Aaron Dobson'
p209
aS'Brian Tyms'
p210
aS'Brice Butler'
p211
aS'Brittan Golden'
p212
aS'Charles Johnson'
p213
aS'Cordarrelle Patterson'
p214
aS'DeAndre Hopkins'
p215
aS'Griff Whalen'
p216
aS'Jaron Brown'
p217
aS'Josh Boyce'
p218
aS'Justin Hunter'
p219
aS'Keenan Allen'
p220
aS'Kenbrell Thompkins'
p221
aS'Kenny Stills'
p222
aS'Markus Wheaton'
p223
aS'Marquess Wilson'
p224
aS'Marquise Goodwin'
p225
aS'Myles White'
p226
aS'Nick Toon'
p227
aS'Nick Williams'
p228
aS'Quinton Patton'
p229
aS'Robert Woods'
p230
aS'Rodney Smith'
p231
aS'Russell Shepard'
p232
aS'Ryan Spadola'
p233
aS'Stedman Bailey'
p234
aS'Tavarres King'
p235
aS'Tavon Austin'
p236
aS'Terrance Williams'
p237
aS'Tobais Palmer'
p238
asI2014
(lp239
S'Adam Thielen'
p240
aS'Albert Wilson'
p241
aS'Allen Hurns'
p242
aS'Allen Robinson'
p243
aS'Brandin Cooks'
p244
aS'Brandon Coleman'
p245
aS'Brenton Bersin'
p246
aS'Bruce Ellington'
p247
aS'Chris Matthews'
p248
aS'Cody Latimer'
p249
aS'Corey Brown'
p250
aS'Corey Fuller'
p251
aS'Davante Adams'
p252
aS"De'Anthony Thomas"
p253
aS'Devin Street'
p254
aS'Donte Moncrief'
p255
aS'Dontrelle Inman'
p256
aS'Frankie Hammond'
p257
aS'Freddie Martino'
p258
aS'Isaiah Burse'
p259
aS'James Wright'
p260
aS'Jarvis Landry'
p261
aS'Jeff Janis'
p262
aS'John Brown'
p263
aS'Jordan Matthews'
p264
aS'Josh Huff'
p265
aS'Kelvin Benjamin'
p266
aS'Kevin Norwood'
p267
aS'Marqise Lee'
p268
aS'Martavis Bryant'
p269
aS'Matt Hazel'
p270
aS'Michael Campanaro'
p271
aS'Mike Evans'
p272
aS'Odell Beckham'
p273
aS'Paul Richardson'
p274
aS'Quincy Enunwa'
p275
aS'Rashad Ross'
p276
aS'Rico Richardson'
p277
aS'Ryan Grant'
p278
aS'Sammy Watkins'
p279
aS'Seantavius Jones'
p280
aS'Taylor Gabriel'
p281
aS'Walt Powell'
p282
asI2015
(lp283
S'Adam Humphries'
p284
aS'Amari Cooper'
p285
aS'Andrew Turzilli'
p286
aS'Bennie Fowler'
p287
aS'Bradley Marquez'
p288
aS'Breshad Perriman'
p289
aS'Cameron Meredith'
p290
aS'Chandler Worthy'
p291
aS'Chris Conley'
p292
aS'Chris Harper'
p293
aS'Daniel Brown'
p294
aS'Darius Jennings'
p295
aS'Darren Waller'
p296
aS'DeAndrew White'
p297
aS'DeVante Parker'
p298
aS'Devin Funchess'
p299
aS'Devin Smith'
p300
aS'Dezmin Lewis'
p301
aS'Dontee Dye'
p302
aS'Dorial Green-Beckham'
p303
aS'Evan Spencer'
p304
aS'Geremy Davis'
p305
aS'J.J. Nelson'
p306
aS'Jaelen Strong'
p307
aS'Jamison Crowder'
p308
aS'Jared Abbrederis'
p309
aS'Javontee Herndon'
p310
aS'Jeremy Butler'
p311
aS'Jonathan Krause'
p312
aS'Justin Hardy'
p313
aS'Kaelin Clay'
p314
aS'Kasen Williams'
p315
aS'Keith Mumphery'
p316
aS'Kevin Smith'
p317
aS'Lucky Whitehead'
p318
aS'Mario Alford'
p319
aS'Neal Sterling'
p320
aS'Nelson Agholor'
p321
aS'Phillip Dorsett'
p322
aS'Quan Bray'
p323
aS'Rannell Hall'
p324
aS'Rashad Greene'
p325
aS'Rashad Lawrence'
p326
aS'Sammie Coates'
p327
aS'Seth Roberts'
p328
aS'Stefon Diggs'
p329
aS'T.J. Jones'
p330
aS'Tony Washington'
p331
aS'Tre McBride'
p332
aS'Ty Montgomery'
p333
aS'Tyler Lockett'
p334
aS'Tyler Murphy'
p335
aS'Tyrell Williams'
p336
aS'Vince Mayle'
p337
aS'Willie Snead'
p338
assS'RB'
p339
(dp340
I2016
(lp341
S'Alex Collins'
p342
aS'Andy Janovich'
p343
aS'C.J. Prosise'
p344
aS'D.J. Foster'
p345
aS'Daniel Lasco'
p346
aS'Darius Jackson'
p347
aS'DeAndre Washington'
p348
aS'Derek Watt'
p349
aS'Derrick Henry'
p350
aS'Devontae Booker'
p351
aS'Dwayne Washington'
p352
aS'Ezekiel Elliott'
p353
aS'Glenn Gronkowski'
p354
aS'Jalen Richard'
p355
aS'Jhurrell Pressley'
p356
aS'Jonathan Williams'
p357
aS'Jordan Howard'
p358
aS'Josh Ferguson'
p359
aS'Julian Howsare'
p360
aS'Keith Smith'
p361
aS'Kenneth Dixon'
p362
aS'Kenneth Farrow'
p363
aS'Kenyan Drake'
p364
aS'Matt Jones'
p365
aS'Paul Lasike'
p366
aS'Paul Perkins'
p367
aS'Peyton Barber'
p368
aS'Rob Kelley'
p369
aS'Roosevelt Nix'
p370
aS'Troymaine Pope'
p371
aS'Tyler Ervin'
p372
aS'Wendell Smallwood'
p373
asI2011
(lp374
S'Anthony Sherman'
p375
aS'Bilal Powell'
p376
aS'Bruce Miller'
p377
aS'Daniel Thomas'
p378
aS'DeMarco Murray'
p379
aS'Dion Lewis'
p380
aS'DuJuan Harris'
p381
aS'Jacquizz Rodgers'
p382
aS'Jordan Todman'
p383
aS'Kendall Hunter'
p384
aS'Mark Ingram'
p385
aS'Roy Helu'
p386
aS'Shane Vereen'
p387
aS'Shaun Draughn'
p388
aS'Stevan Ridley'
p389
aS'Taiwan Jones'
p390
aS'Tyler Clutts'
p391
asI2012
(lp392
S'Alfred Morris'
p393
aS'Bernard Pierce'
p394
aS'Bobby Rainey'
p395
aS'Brandon Bolden'
p396
aS'Bryce Brown'
p397
aS'Chris Polk'
p398
aS'Cyrus Gray'
p399
aS'Dan Herron'
p400
aS'Daryl Richardson'
p401
aS'Doug Martin'
p402
aS'Isaiah Pead'
p403
aS'James Develin'
p404
aS'Jamize Olawale'
p405
aS'Jonathan Grimes'
p406
aS'Jorvorskie Lane'
p407
aS'Lamar Miller'
p408
aS'Lance Dunbar'
p409
aS'Matt Asiata'
p410
aS'Patrick DiMarco'
p411
aS'Robert Turbin'
p412
aS'Ronnie Hillman'
p413
aS'Travaris Cadet'
p414
aS'Trent Richardson'
p415
aS'Vick Ballard'
p416
aS'Will Johnson'
p417
asI2013
(lp418
S'Andre Ellington'
p419
aS'Benny Cunningham'
p420
aS'C.J. Anderson'
p421
aS'Chase Reynolds'
p422
aS'Chris Thompson'
p423
aS'Christine Michael'
p424
aS'Denard Robinson'
p425
aS'Derrick Coleman'
p426
aS'Eddie Lacy'
p427
aS'Fozzy Whittaker'
p428
aS'Giovani Bernard'
p429
aS'Joe Banyard'
p430
aS'Kenjon Barner'
p431
aS'Kerwynn Williams'
p432
aS'Khiry Robinson'
p433
aS'Knile Davis'
p434
aS'Kyle Juszczyk'
p435
aS"Le'Veon Bell"
p436
aS'Mike Gillislee'
p437
aS'Mike James'
p438
aS'Rex Burkhead'
p439
aS'Spencer Ware'
p440
aS'Stepfan Taylor'
p441
aS'Theo Riddick'
p442
aS'Tommy Bohanon'
p443
aS'Zac Stacy'
p444
aS'Zach Line'
p445
asI2014
(lp446
S'Alfred Blue'
p447
aS'Andre Williams'
p448
aS'Antonio Andrews'
p449
aS'Austin Johnson'
p450
aS'Bishop Sankey'
p451
aS'Branden Oliver'
p452
aS'Carlos Hyde'
p453
aS'Charcandrick West'
p454
aS'Charles Sims'
p455
aS'Damien Williams'
p456
aS'Darrin Reaves'
p457
aS'Devont Freeman'
p458
aS'Dri Archer'
p459
aS'Fitzgerald Toussaint'
p460
aS'George Atkinson'
p461
aS'George Winn'
p462
aS'Glenn Winston'
p463
aS'Isaiah Crowell'
p464
aS'James White'
p465
aS'Jay Prosch'
p466
aS'Jeremy Hill'
p467
aS'Jerick McKinnon'
p468
aS'Jonas Gray'
p469
aS'Juwan Thompson'
p470
aS"Ka'Deem Carey"
p471
aS'Kapri Bibbs'
p472
aS'Latavius Murray'
p473
aS'Lorenzo Taliaferro'
p474
aS'Orleans Darkwa'
p475
aS'Senorise Perry'
p476
aS'Silas Redd'
p477
aS'Storm Johnson'
p478
aS'Terrance West'
p479
aS'Tre Mason'
p480
asI2015
(lp481
S'Aaron Ripkowski'
p482
aS'Akeem Hunt'
p483
aS'Ameer Abdullah'
p484
aS'Brandon Wegher'
p485
aS'Cameron Artis-Payne'
p486
aS'Corey Grant'
p487
aS'David Cobb'
p488
aS'David Johnson'
p489
aS'Dreamius Smith'
p490
aS'Duke Johnson'
p491
aS'Jalston Fowler'
p492
aS'Javorius Allen'
p493
aS'Jay Ajayi'
p494
aS'Jeremy Langford'
p495
aS'Joey Iosefa'
p496
aS'John Crockett'
p497
aS'Karlos Williams'
p498
aS'Kendall Gaskins'
p499
aS'Malcolm Brown'
p500
aS'Malcolm Johnson'
p501
aS'Marcus Murphy'
p502
aS'Melvin Gordon'
p503
aS'Michael Burton'
p504
aS'Mike Davis'
p505
aS'Nikit Whitlock'
p506
aS'Raheem Mostert'
p507
aS'Rod Smith'
p508
aS'Roosevelt Nix-Jones'
p509
aS'T.J. Yeldon'
p510
aS'Terrence Magee'
p511
aS'Terron Ward'
p512
aS'Tevin Coleman'
p513
aS'Thomas Rawls'
p514
aS'Todd Gurley'
p515
aS'Trey Williams'
p516
aS'Tyler Varga'
p517
aS'Zach Zenner'
p518
assS'TE'
p519
(dp520
I2016
(lp521
S'A.J. Derby'
p522
aS'Austin Hooper'
p523
aS'Ben Koyack'
p524
aS'Braedon Bowman'
p525
aS'Chris Manhertz'
p526
aS'Cole Wick'
p527
aS'David Morgan'
p528
aS'Greg Scruggs'
p529
aS'Hunter Henry'
p530
aS'Jeff Heuerman'
p531
aS'Jerell Adams'
p532
aS'Josh Perkins'
p533
aS'Neal Sterling'
p534
aS'Nick Vannett'
p535
aS'Randall Telfer'
p536
aS'Ross Travis'
p537
aS'Seth Devalve'
p538
aS'Stephen Anderson'
p539
aS'Temarrick Hemingway'
p540
aS'Tyler Higbee'
p541
aS'Xavier Grimble'
p542
asI2011
(lp543
S'Allen Reisner'
p544
aS'Charles Clay'
p545
aS'John Phillips'
p546
aS'Jordan Cameron'
p547
aS'Julius Thomas'
p548
aS'Kyle Rudolph'
p549
aS'Lance Kendricks'
p550
aS'Lee Smith'
p551
aS'Luke Stocker'
p552
aS'Niles Paul'
p553
aS'Richard Gordon'
p554
aS'Rob Housler'
p555
aS'Virgil Green'
p556
asI2012
(lp557
S'Coby Fleener'
p558
aS'Cory Harkey'
p559
aS'Dominique Jones'
p560
aS'Dwayne Allen'
p561
aS'Garrett Celek'
p562
aS'James Hanna'
p563
aS'Konrad Reuland'
p564
aS'Ladarius Green'
p565
aS'Orson Charles'
p566
aS'Rhett Ellison'
p567
aS'Sean McGrath'
p568
asI2013
(lp569
S'Brandon Bostick'
p570
aS'Brandon Williams'
p571
aS'Chris Gragg'
p572
aS'Chris Pantale'
p573
aS'Derek Carrier'
p574
aS'Dion Sims'
p575
aS'Gavin Escobar'
p576
aS'Jack Doyle'
p577
aS'Jake Stoneburner'
p578
aS'Jordan Reed'
p579
aS'Josh Hill'
p580
aS'Justice Cunningham'
p581
aS'Larry Donnell'
p582
aS'Levine Toilolo'
p583
aS'Luke Willson'
p584
aS'MarQueis Gray'
p585
aS'Mychal Rivera'
p586
aS'Ryan Griffin'
p587
aS'Timothy Wright'
p588
aS'Travis Kelce'
p589
aS'Tyler Eifert'
p590
aS'Vance McDonald'
p591
aS'Zach Ertz'
p592
aS'Zach Sudfeld'
p593
asI2014
(lp594
S'Anthony Denham'
p595
aS'Asante Cleveland'
p596
aS'Austin Seferian-Jenkins'
p597
aS'Blake Annen'
p598
aS'Brian Leonhardt'
p599
aS'C.J. Fiedorowicz'
p600
aS'Cameron Brate'
p601
aS'Cooper Helfet'
p602
aS'Crockett Gillmore'
p603
aS'Darren Fells'
p604
aS'Demetrius Harris'
p605
aS'Eric Ebron'
p606
aS'Jace Amaro'
p607
aS'Jerome Cunningham'
p608
aS'Justin Perillo'
p609
aS'Marcel Jensen'
p610
aS'Nic Jacobs'
p611
aS'Phillip Supernaw'
p612
aS'RaShaun Allen'
p613
aS'Richard Rodgers'
p614
aS'Ryan Hewitt'
p615
aS'Scott Simonson'
p616
aS'Trey Burton'
p617
aS'Troy Niklas'
p618
asI2015
(lp619
S'Blake Bell'
p620
aS'Brian Parker'
p621
aS'C.J. Uzomah'
p622
aS'Clive Walford'
p623
aS'D.J. Tialavea'
p624
aS'E.J. Bibbs'
p625
aS'Erik Swoope'
p626
aS'Gabe Holmes'
p627
aS'Geoff Swaim'
p628
aS"James O'Shaughnessy"
p629
aS"Je'Ron Hamm"
p630
aS'Jesse James'
p631
aS'Kennard Backman'
p632
aS'Khari Lee'
p633
aS'Matt LaCosse'
p634
aS'Maxx Williams'
p635
aS'Michael Williams'
p636
aS'Mitchell Henry'
p637
aS'MyCole Pruitt'
p638
aS'Nick Boyle'
p639
aS"Nick O'Leary"
p640
aS'Tevin Westbrook'
p641
aS'Tyler Kroft'
p642
aS'Wes Saxton'
p643
aS'Will Tye'
p644
ass.