(dp0
S'Broncos'
p1
(dp2
I3
(S'Bengals'
p3
S'Away'
p4
tp5
sI4
(S'Buccaneers'
p6
S'Away'
p7
tp8
ssS'Vikings'
p9
(dp10
I3
(S'Panthers'
p11
g4
tp12
sI4
(S'Giants'
p13
S'Home'
p14
tp15
ssS'Bears'
p16
(dp17
I3
(S'Cowboys'
p18
g4
tp19
sI4
(S'Lions'
p20
g14
tp21
ssS'Falcons'
p22
(dp23
I3
(S'Saints'
p24
g4
tp25
sI4
(S'Panthers'
p26
g14
tp27
ssS'Saints'
p28
(dp29
I3
(S'Falcons'
p30
S'Home'
p31
tp32
sI4
(S'Chargers'
p33
g7
tp34
ssS'Chargers'
p35
(dp36
I3
(S'Colts'
p37
g4
tp38
sI4
(S'Saints'
p39
g14
tp40
ssS'Raiders'
p41
(dp42
I3
(S'Titans'
p43
g4
tp44
sI4
(S'Ravens'
p45
g7
tp46
ssS'Lions'
p47
(dp48
I3
(S'Packers'
p49
g4
tp50
sI4
(S'Bears'
p51
g7
tp52
ssS'Browns'
p53
(dp54
I3
(S'Dolphins'
p55
g4
tp56
sI4
(S'Redskins'
p57
g7
tp58
ssS'Eagles'
p59
(dp60
I3
(S'Steelers'
p61
g31
tp62
sI4
S''
p63
ssS'Steelers'
p64
(dp65
I3
(S'Eagles'
p66
g4
tp67
sI4
(S'Chiefs'
p68
g14
tp69
ssS'Giants'
p70
(dp71
I3
(S'Redskins'
p72
g31
tp73
sI4
(S'Vikings'
p74
g7
tp75
ssS'Buccaneers'
p76
(dp77
I3
(S'Rams'
p78
g31
tp79
sI4
(S'Broncos'
p80
g14
tp81
ssS'Cardinals'
p82
(dp83
I3
(S'Bills'
p84
g4
tp85
sI4
(S'Rams'
p86
g14
tp87
ssS'Bengals'
p88
(dp89
I3
(S'Broncos'
p90
g31
tp91
sI4
(S'Dolphins'
p92
g14
tp93
ssS'Chiefs'
p94
(dp95
I3
(S'Jets'
p96
g31
tp97
sI4
(S'Steelers'
p98
g7
tp99
ssS'Jaguars'
p100
(dp101
I3
(S'Ravens'
p102
g31
tp103
sI4
(S'Colts'
p104
g14
tp105
ssS'Seahawks'
p106
(dp107
I3
(S'49ers'
p108
g31
tp109
sI4
(S'Jets'
p110
g7
tp111
ssS'Jets'
p112
(dp113
I3
(S'Chiefs'
p114
g4
tp115
sI4
(S'Seahawks'
p116
g14
tp117
ssS'Ravens'
p118
(dp119
I3
(S'Jaguars'
p120
g4
tp121
sI4
(S'Raiders'
p122
g14
tp123
ssS'Colts'
p124
(dp125
I3
(S'Chargers'
p126
g31
tp127
sI4
(S'Jaguars'
p128
g7
tp129
ssS'Packers'
p130
(dp131
I3
(S'Lions'
p132
g31
tp133
sI4
g63
ssS'Dolphins'
p134
(dp135
I3
(S'Browns'
p136
g31
tp137
sI4
(S'Bengals'
p138
g7
tp139
ssS'Titans'
p140
(dp141
I3
(S'Raiders'
p142
g31
tp143
sI4
(S'Texans'
p144
g7
tp145
ssS'Rams'
p146
(dp147
I3
(S'Buccaneers'
p148
g4
tp149
sI4
(S'Cardinals'
p150
g7
tp151
ssS'Bills'
p152
(dp153
I3
(S'Cardinals'
p154
g31
tp155
sI4
(S'Patriots'
p156
g7
tp157
ssS'Texans'
p158
(dp159
I3
(S'Patriots'
p160
g4
tp161
sI4
(S'Titans'
p162
g14
tp163
ssS'49ers'
p164
(dp165
I3
(S'Seahawks'
p166
g4
tp167
sI4
(S'Cowboys'
p168
g14
tp169
ssS'Patriots'
p170
(dp171
I3
(S'Texans'
p172
g31
tp173
sI4
(S'Bills'
p174
g14
tp175
ssS'Cowboys'
p176
(dp177
I3
(S'Bears'
p178
g31
tp179
sI4
(S'49ers'
p180
g7
tp181
ssS'Panthers'
p182
(dp183
I3
(S'Vikings'
p184
g31
tp185
sI4
(S'Falcons'
p186
g7
tp187
ssS'Redskins'
p188
(dp189
I3
(S'Giants'
p190
g4
tp191
sI4
(S'Browns'
p192
g14
tp193
ss.