(dp0
S'Broncos'
p1
(dp2
I1
(S'Panthers'
p3
S'Home'
p4
tp5
sI2
(S'Colts'
p6
S'Home'
p7
tp8
sI3
(S'Bengals'
p9
S'Away'
p10
tp11
sI4
(S'Buccaneers'
p12
S'Away'
p13
tp14
sI5
(S'Falcons'
p15
S'Home'
p16
tp17
ssS'Vikings'
p18
(dp19
I1
(S'Titans'
p20
S'Away'
p21
tp22
sI2
(S'Packers'
p23
g7
tp24
sI3
(S'Panthers'
p25
g10
tp26
sI4
(S'Giants'
p27
S'Home'
p28
tp29
sI5
(S'Texans'
p30
g16
tp31
ssS'Bears'
p32
(dp33
I1
(S'Texans'
p34
g21
tp35
sI2
(S'Eagles'
p36
g7
tp37
sI3
(S'Cowboys'
p38
g10
tp39
sI4
(S'Lions'
p40
g28
tp41
sI5
(S'Colts'
p42
S'Away'
p43
tp44
ssS'Falcons'
p45
(dp46
I1
(S'Buccaneers'
p47
g4
tp48
sI2
(S'Raiders'
p49
S'Away'
p50
tp51
sI3
(S'Saints'
p52
g10
tp53
sI4
(S'Panthers'
p54
g28
tp55
sI5
(S'Broncos'
p56
g43
tp57
ssS'Saints'
p58
(dp59
I1
(S'Raiders'
p60
g4
tp61
sI2
(S'Giants'
p62
g50
tp63
sI3
(S'Falcons'
p64
S'Home'
p65
tp66
sI4
(S'Chargers'
p67
g13
tp68
sI5
(S'Bye'
p69
Ntp70
ssS'Chargers'
p71
(dp72
I1
(S'Chiefs'
p73
g21
tp74
sI2
(S'Jaguars'
p75
g7
tp76
sI3
(S'Colts'
p77
g10
tp78
sI4
(S'Saints'
p79
g28
tp80
sI5
(S'Raiders'
p81
g43
tp82
ssS'Raiders'
p83
(dp84
I1
(S'Saints'
p85
g21
tp86
sI2
(S'Falcons'
p87
g7
tp88
sI3
(S'Titans'
p89
g10
tp90
sI4
(S'Ravens'
p91
g13
tp92
sI5
(S'Chargers'
p93
g16
tp94
ssS'Lions'
p95
(dp96
I1
(S'Colts'
p97
g21
tp98
sI2
(S'Titans'
p99
g7
tp100
sI3
(S'Packers'
p101
g10
tp102
sI4
(S'Bears'
p103
g13
tp104
sI5
(S'Eagles'
p105
g16
tp106
ssS'Eagles'
p107
(dp108
I1
(S'Browns'
p109
g4
tp110
sI2
(S'Bears'
p111
g50
tp112
sI3
(S'Steelers'
p113
g65
tp114
sI4
(S'Bye'
p115
Ntp116
sI5
(S'Lions'
p117
g43
tp118
ssS'Browns'
p119
(dp120
I1
(S'Eagles'
p121
g21
tp122
sI2
(S'Ravens'
p123
g7
tp124
sI3
(S'Dolphins'
p125
g10
tp126
sI4
(S'Redskins'
p127
g13
tp128
sI5
(S'Patriots'
p129
g16
tp130
ssS'Steelers'
p131
(dp132
I1
(S'Redskins'
p133
g21
tp134
sI2
(S'Bengals'
p135
g7
tp136
sI3
(S'Eagles'
p137
g10
tp138
sI4
(S'Chiefs'
p139
g28
tp140
sI5
(S'Jets'
p141
g16
tp142
ssS'Giants'
p143
(dp144
I1
(S'Cowboys'
p145
g21
tp146
sI2
(S'Saints'
p147
g7
tp148
sI3
(S'Redskins'
p149
g65
tp150
sI4
(S'Vikings'
p151
g13
tp152
sI5
(S'Packers'
p153
g43
tp154
ssS'Buccaneers'
p155
(dp156
I1
(S'Falcons'
p157
g21
tp158
sI2
(S'Cardinals'
p159
g50
tp160
sI3
(S'Rams'
p161
g65
tp162
sI4
(S'Broncos'
p163
g28
tp164
sI5
(S'Panthers'
p165
g43
tp166
ssS'Cardinals'
p167
(dp168
I1
(S'Patriots'
p169
g4
tp170
sI2
(S'Buccaneers'
p171
g7
tp172
sI3
(S'Bills'
p173
g10
tp174
sI4
(S'Rams'
p175
g28
tp176
sI5
(S'49ers'
p177
g43
tp178
ssS'Bengals'
p179
(dp180
I1
(S'Jets'
p181
g21
tp182
sI2
(S'Steelers'
p183
g50
tp184
sI3
(S'Broncos'
p185
g65
tp186
sI4
(S'Dolphins'
p187
g28
tp188
sI5
(S'Cowboys'
p189
g43
tp190
ssS'Chiefs'
p191
(dp192
I1
(S'Chargers'
p193
g4
tp194
sI2
(S'Texans'
p195
g50
tp196
sI3
(S'Jets'
p197
g65
tp198
sI4
(S'Steelers'
p199
g13
tp200
sI5
g70
ssS'Dolphins'
p201
(dp202
I1
(S'Seahawks'
p203
g21
tp204
sI2
(S'Patriots'
p205
g50
tp206
sI3
(S'Browns'
p207
g65
tp208
sI4
(S'Bengals'
p209
g13
tp210
sI5
(S'Titans'
p211
g16
tp212
ssS'Jaguars'
p213
(dp214
I1
(S'Packers'
p215
g4
tp216
sI2
(S'Chargers'
p217
g50
tp218
sI3
(S'Ravens'
p219
g65
tp220
sI4
(S'Colts'
p221
g28
tp222
sI5
g70
ssS'Seahawks'
p223
(dp224
I1
(S'Dolphins'
p225
g4
tp226
sI2
(S'Rams'
p227
g50
tp228
sI3
(S'49ers'
p229
g65
tp230
sI4
(S'Jets'
p231
g13
tp232
sI5
g70
ssS'Jets'
p233
(dp234
I1
(S'Bengals'
p235
g4
tp236
sI2
(S'Bills'
p237
g50
tp238
sI3
(S'Chiefs'
p239
g10
tp240
sI4
(S'Seahawks'
p241
g28
tp242
sI5
(S'Steelers'
p243
g43
tp244
ssS'Ravens'
p245
(dp246
I1
(S'Bills'
p247
g4
tp248
sI2
(S'Browns'
p249
g50
tp250
sI3
(S'Jaguars'
p251
g10
tp252
sI4
(S'Raiders'
p253
g28
tp254
sI5
(S'Redskins'
p255
g16
tp256
ssS'Colts'
p257
(dp258
I1
(S'Lions'
p259
g4
tp260
sI2
(S'Broncos'
p261
g50
tp262
sI3
(S'Chargers'
p263
g65
tp264
sI4
(S'Jaguars'
p265
g13
tp266
sI5
(S'Bears'
p267
g16
tp268
ssS'Packers'
p269
(dp270
I1
(S'Jaguars'
p271
g21
tp272
sI2
(S'Vikings'
p273
g50
tp274
sI3
(S'Lions'
p275
g65
tp276
sI4
(S'Bye'
p277
Ntp278
sI5
(S'Giants'
p279
g16
tp280
ssS'Titans'
p281
(dp282
I1
(S'Vikings'
p283
g4
tp284
sI2
(S'Lions'
p285
g50
tp286
sI3
(S'Raiders'
p287
g65
tp288
sI4
(S'Texans'
p289
g13
tp290
sI5
(S'Dolphins'
p291
g43
tp292
ssS'Rams'
p293
(dp294
I1
(S'49ers'
p295
g21
tp296
sI2
(S'Seahawks'
p297
g7
tp298
sI3
(S'Buccaneers'
p299
g10
tp300
sI4
(S'Cardinals'
p301
g13
tp302
sI5
(S'Bills'
p303
g16
tp304
ssS'Bills'
p305
(dp306
I1
(S'Ravens'
p307
g21
tp308
sI2
(S'Jets'
p309
g7
tp310
sI3
(S'Cardinals'
p311
g65
tp312
sI4
(S'Patriots'
p313
g13
tp314
sI5
(S'Rams'
p315
g43
tp316
ssS'Texans'
p317
(dp318
I1
(S'Bears'
p319
g4
tp320
sI2
(S'Chiefs'
p321
g7
tp322
sI3
(S'Patriots'
p323
g10
tp324
sI4
(S'Titans'
p325
g28
tp326
sI5
(S'Vikings'
p327
g43
tp328
ssS'49ers'
p329
(dp330
I1
(S'Rams'
p331
g4
tp332
sI2
(S'Panthers'
p333
g50
tp334
sI3
(S'Seahawks'
p335
g10
tp336
sI4
(S'Cowboys'
p337
g28
tp338
sI5
(S'Cardinals'
p339
g16
tp340
ssS'Patriots'
p341
(dp342
I1
(S'Cardinals'
p343
g21
tp344
sI2
(S'Dolphins'
p345
g7
tp346
sI3
(S'Texans'
p347
g65
tp348
sI4
(S'Bills'
p349
g28
tp350
sI5
(S'Browns'
p351
g43
tp352
ssS'Cowboys'
p353
(dp354
I1
(S'Giants'
p355
g4
tp356
sI2
(S'Redskins'
p357
g50
tp358
sI3
(S'Bears'
p359
g65
tp360
sI4
(S'49ers'
p361
g13
tp362
sI5
(S'Bengals'
p363
g16
tp364
ssS'Panthers'
p365
(dp366
I1
(S'Broncos'
p367
g21
tp368
sI2
(S'49ers'
p369
g7
tp370
sI3
(S'Vikings'
p371
g65
tp372
sI4
(S'Falcons'
p373
g13
tp374
sI5
(S'Buccaneers'
p375
g16
tp376
ssS'Redskins'
p377
(dp378
I1
(S'Steelers'
p379
g4
tp380
sI2
(S'Cowboys'
p381
g7
tp382
sI3
(S'Giants'
p383
g10
tp384
sI4
(S'Browns'
p385
g28
tp386
sI5
(S'Ravens'
p387
g43
tp388
ss.