(dp0
S'Broncos'
p1
(dp2
I1
(S'Panthers'
p3
S'Home'
p4
tp5
sI2
(S'Colts'
p6
S'Home'
p7
tp8
sI3
(S'Bengals'
p9
S'Away'
p10
tp11
sI4
(S'Buccaneers'
p12
S'Away'
p13
tp14
sI5
(S'Falcons'
p15
S'Home'
p16
tp17
sI6
(S'Chargers'
p18
S'Away'
p19
tp20
sI7
(S'Texans'
p21
S'Home'
p22
tp23
ssS'Vikings'
p24
(dp25
I1
(S'Titans'
p26
S'Away'
p27
tp28
sI2
(S'Packers'
p29
g7
tp30
sI3
(S'Panthers'
p31
g10
tp32
sI4
(S'Giants'
p33
S'Home'
p34
tp35
sI5
(S'Texans'
p36
g16
tp37
sI6
(S'Bye'
p38
Ntp39
sI7
(S'Eagles'
p40
S'Away'
p41
tp42
ssS'Bears'
p43
(dp44
I1
(S'Texans'
p45
g27
tp46
sI2
(S'Eagles'
p47
g7
tp48
sI3
(S'Cowboys'
p49
g10
tp50
sI4
(S'Lions'
p51
g34
tp52
sI5
(S'Colts'
p53
S'Away'
p54
tp55
sI6
(S'Jaguars'
p56
S'Home'
p57
tp58
sI7
(S'Packers'
p59
g41
tp60
ssS'Falcons'
p61
(dp62
I1
(S'Buccaneers'
p63
g4
tp64
sI2
(S'Raiders'
p65
S'Away'
p66
tp67
sI3
(S'Saints'
p68
g10
tp69
sI4
(S'Panthers'
p70
g34
tp71
sI5
(S'Broncos'
p72
g54
tp73
sI6
(S'Seahawks'
p74
g19
tp75
sI7
(S'Chargers'
p76
g22
tp77
ssS'Saints'
p78
(dp79
I1
(S'Raiders'
p80
g4
tp81
sI2
(S'Giants'
p82
g66
tp83
sI3
(S'Falcons'
p84
S'Home'
p85
tp86
sI4
(S'Chargers'
p87
g13
tp88
sI5
(S'Bye'
p89
Ntp90
sI6
(S'Panthers'
p91
g57
tp92
sI7
(S'Chiefs'
p93
g41
tp94
ssS'Chargers'
p95
(dp96
I1
(S'Chiefs'
p97
g27
tp98
sI2
(S'Jaguars'
p99
g7
tp100
sI3
(S'Colts'
p101
g10
tp102
sI4
(S'Saints'
p103
g34
tp104
sI5
(S'Raiders'
p105
g54
tp106
sI6
(S'Broncos'
p107
g57
tp108
sI7
(S'Falcons'
p109
g41
tp110
ssS'Raiders'
p111
(dp112
I1
(S'Saints'
p113
g27
tp114
sI2
(S'Falcons'
p115
g7
tp116
sI3
(S'Titans'
p117
g10
tp118
sI4
(S'Ravens'
p119
g13
tp120
sI5
(S'Chargers'
p121
g16
tp122
sI6
(S'Chiefs'
p123
g57
tp124
sI7
(S'Jaguars'
p125
g41
tp126
ssS'Lions'
p127
(dp128
I1
(S'Colts'
p129
g27
tp130
sI2
(S'Titans'
p131
g7
tp132
sI3
(S'Packers'
p133
g10
tp134
sI4
(S'Bears'
p135
g13
tp136
sI5
(S'Eagles'
p137
g16
tp138
sI6
(S'Rams'
p139
g57
tp140
sI7
(S'Redskins'
p141
g22
tp142
ssS'Eagles'
p143
(dp144
I1
(S'Browns'
p145
g4
tp146
sI2
(S'Bears'
p147
g66
tp148
sI3
(S'Steelers'
p149
g85
tp150
sI4
(S'Bye'
p151
Ntp152
sI5
(S'Lions'
p153
g54
tp154
sI6
(S'Redskins'
p155
g19
tp156
sI7
(S'Vikings'
p157
g22
tp158
ssS'Browns'
p159
(dp160
I1
(S'Eagles'
p161
g27
tp162
sI2
(S'Ravens'
p163
g7
tp164
sI3
(S'Dolphins'
p165
g10
tp166
sI4
(S'Redskins'
p167
g13
tp168
sI5
(S'Patriots'
p169
g16
tp170
sI6
(S'Titans'
p171
g19
tp172
sI7
(S'Bengals'
p173
g41
tp174
ssS'Steelers'
p175
(dp176
I1
(S'Redskins'
p177
g27
tp178
sI2
(S'Bengals'
p179
g7
tp180
sI3
(S'Eagles'
p181
g10
tp182
sI4
(S'Chiefs'
p183
g34
tp184
sI5
(S'Jets'
p185
g16
tp186
sI6
(S'Dolphins'
p187
g19
tp188
sI7
(S'Patriots'
p189
g22
tp190
ssS'Giants'
p191
(dp192
I1
(S'Cowboys'
p193
g27
tp194
sI2
(S'Saints'
p195
g7
tp196
sI3
(S'Redskins'
p197
g85
tp198
sI4
(S'Vikings'
p199
g13
tp200
sI5
(S'Packers'
p201
g54
tp202
sI6
(S'Ravens'
p203
g57
tp204
sI7
(S'Rams'
p205
g41
tp206
ssS'Buccaneers'
p207
(dp208
I1
(S'Falcons'
p209
g27
tp210
sI2
(S'Cardinals'
p211
g66
tp212
sI3
(S'Rams'
p213
g85
tp214
sI4
(S'Broncos'
p215
g34
tp216
sI5
(S'Panthers'
p217
g54
tp218
sI6
g39
sI7
(S'49ers'
p219
g41
tp220
ssS'Cardinals'
p221
(dp222
I1
(S'Patriots'
p223
g4
tp224
sI2
(S'Buccaneers'
p225
g7
tp226
sI3
(S'Bills'
p227
g10
tp228
sI4
(S'Rams'
p229
g34
tp230
sI5
(S'49ers'
p231
g54
tp232
sI6
(S'Jets'
p233
g57
tp234
sI7
(S'Seahawks'
p235
g22
tp236
ssS'Bengals'
p237
(dp238
I1
(S'Jets'
p239
g27
tp240
sI2
(S'Steelers'
p241
g66
tp242
sI3
(S'Broncos'
p243
g85
tp244
sI4
(S'Dolphins'
p245
g34
tp246
sI5
(S'Cowboys'
p247
g54
tp248
sI6
(S'Patriots'
p249
g19
tp250
sI7
(S'Browns'
p251
g22
tp252
ssS'Chiefs'
p253
(dp254
I1
(S'Chargers'
p255
g4
tp256
sI2
(S'Texans'
p257
g66
tp258
sI3
(S'Jets'
p259
g85
tp260
sI4
(S'Steelers'
p261
g13
tp262
sI5
g90
sI6
(S'Raiders'
p263
g19
tp264
sI7
(S'Saints'
p265
g22
tp266
ssS'Dolphins'
p267
(dp268
I1
(S'Seahawks'
p269
g27
tp270
sI2
(S'Patriots'
p271
g66
tp272
sI3
(S'Browns'
p273
g85
tp274
sI4
(S'Bengals'
p275
g13
tp276
sI5
(S'Titans'
p277
g16
tp278
sI6
(S'Steelers'
p279
g57
tp280
sI7
(S'Bills'
p281
g22
tp282
ssS'Jaguars'
p283
(dp284
I1
(S'Packers'
p285
g4
tp286
sI2
(S'Chargers'
p287
g66
tp288
sI3
(S'Ravens'
p289
g85
tp290
sI4
(S'Colts'
p291
g34
tp292
sI5
g90
sI6
(S'Bears'
p293
g19
tp294
sI7
(S'Raiders'
p295
g22
tp296
ssS'Seahawks'
p297
(dp298
I1
(S'Dolphins'
p299
g4
tp300
sI2
(S'Rams'
p301
g66
tp302
sI3
(S'49ers'
p303
g85
tp304
sI4
(S'Jets'
p305
g13
tp306
sI5
g90
sI6
(S'Falcons'
p307
g57
tp308
sI7
(S'Cardinals'
p309
g41
tp310
ssS'Jets'
p311
(dp312
I1
(S'Bengals'
p313
g4
tp314
sI2
(S'Bills'
p315
g66
tp316
sI3
(S'Chiefs'
p317
g10
tp318
sI4
(S'Seahawks'
p319
g34
tp320
sI5
(S'Steelers'
p321
g54
tp322
sI6
(S'Cardinals'
p323
g19
tp324
sI7
(S'Ravens'
p325
g22
tp326
ssS'Ravens'
p327
(dp328
I1
(S'Bills'
p329
g4
tp330
sI2
(S'Browns'
p331
g66
tp332
sI3
(S'Jaguars'
p333
g10
tp334
sI4
(S'Raiders'
p335
g34
tp336
sI5
(S'Redskins'
p337
g16
tp338
sI6
(S'Giants'
p339
g19
tp340
sI7
(S'Jets'
p341
g41
tp342
ssS'Colts'
p343
(dp344
I1
(S'Lions'
p345
g4
tp346
sI2
(S'Broncos'
p347
g66
tp348
sI3
(S'Chargers'
p349
g85
tp350
sI4
(S'Jaguars'
p351
g13
tp352
sI5
(S'Bears'
p353
g16
tp354
sI6
(S'Texans'
p355
g19
tp356
sI7
(S'Titans'
p357
g41
tp358
ssS'Packers'
p359
(dp360
I1
(S'Jaguars'
p361
g27
tp362
sI2
(S'Vikings'
p363
g66
tp364
sI3
(S'Lions'
p365
g85
tp366
sI4
(S'Bye'
p367
Ntp368
sI5
(S'Giants'
p369
g16
tp370
sI6
(S'Cowboys'
p371
g57
tp372
sI7
(S'Bears'
p373
g22
tp374
ssS'Titans'
p375
(dp376
I1
(S'Vikings'
p377
g4
tp378
sI2
(S'Lions'
p379
g66
tp380
sI3
(S'Raiders'
p381
g85
tp382
sI4
(S'Texans'
p383
g13
tp384
sI5
(S'Dolphins'
p385
g54
tp386
sI6
(S'Browns'
p387
g57
tp388
sI7
(S'Colts'
p389
g22
tp390
ssS'Rams'
p391
(dp392
I1
(S'49ers'
p393
g27
tp394
sI2
(S'Seahawks'
p395
g7
tp396
sI3
(S'Buccaneers'
p397
g10
tp398
sI4
(S'Cardinals'
p399
g13
tp400
sI5
(S'Bills'
p401
g16
tp402
sI6
(S'Lions'
p403
g19
tp404
sI7
(S'Giants'
p405
g22
tp406
ssS'Bills'
p407
(dp408
I1
(S'Ravens'
p409
g27
tp410
sI2
(S'Jets'
p411
g7
tp412
sI3
(S'Cardinals'
p413
g85
tp414
sI4
(S'Patriots'
p415
g13
tp416
sI5
(S'Rams'
p417
g54
tp418
sI6
(S'49ers'
p419
g57
tp420
sI7
(S'Dolphins'
p421
g41
tp422
ssS'Texans'
p423
(dp424
I1
(S'Bears'
p425
g4
tp426
sI2
(S'Chiefs'
p427
g7
tp428
sI3
(S'Patriots'
p429
g10
tp430
sI4
(S'Titans'
p431
g34
tp432
sI5
(S'Vikings'
p433
g54
tp434
sI6
(S'Colts'
p435
g57
tp436
sI7
(S'Broncos'
p437
g41
tp438
ssS'49ers'
p439
(dp440
I1
(S'Rams'
p441
g4
tp442
sI2
(S'Panthers'
p443
g66
tp444
sI3
(S'Seahawks'
p445
g10
tp446
sI4
(S'Cowboys'
p447
g34
tp448
sI5
(S'Cardinals'
p449
g16
tp450
sI6
(S'Bills'
p451
g19
tp452
sI7
(S'Buccaneers'
p453
g22
tp454
ssS'Patriots'
p455
(dp456
I1
(S'Cardinals'
p457
g27
tp458
sI2
(S'Dolphins'
p459
g7
tp460
sI3
(S'Texans'
p461
g85
tp462
sI4
(S'Bills'
p463
g34
tp464
sI5
(S'Browns'
p465
g54
tp466
sI6
(S'Bengals'
p467
g57
tp468
sI7
(S'Steelers'
p469
g41
tp470
ssS'Cowboys'
p471
(dp472
I1
(S'Giants'
p473
g4
tp474
sI2
(S'Redskins'
p475
g66
tp476
sI3
(S'Bears'
p477
g85
tp478
sI4
(S'49ers'
p479
g13
tp480
sI5
(S'Bengals'
p481
g16
tp482
sI6
(S'Packers'
p483
g19
tp484
sI7
(S'Bye'
p485
Ntp486
ssS'Panthers'
p487
(dp488
I1
(S'Broncos'
p489
g27
tp490
sI2
(S'49ers'
p491
g7
tp492
sI3
(S'Vikings'
p493
g85
tp494
sI4
(S'Falcons'
p495
g13
tp496
sI5
(S'Buccaneers'
p497
g16
tp498
sI6
(S'Saints'
p499
g19
tp500
sI7
g486
ssS'Redskins'
p501
(dp502
I1
(S'Steelers'
p503
g4
tp504
sI2
(S'Cowboys'
p505
g7
tp506
sI3
(S'Giants'
p507
g10
tp508
sI4
(S'Browns'
p509
g34
tp510
sI5
(S'Ravens'
p511
g54
tp512
sI6
(S'Eagles'
p513
g57
tp514
sI7
(S'Lions'
p515
g41
tp516
ss.