(dp0
I2016
(dp1
S'Raiders'
p2
(lp3
(S'Derek Carr'
p4
S'QB'
p5
tp6
a(S'Connor Cook'
p7
g5
tp8
a(S'Matt McGloin'
p9
g5
tp10
a(S'Taiwan Jones'
p11
S'RB'
p12
tp13
a(S'Latavius Murray'
p14
g12
tp15
a(S'Jamize Olawale'
p16
g12
tp17
a(S'Jalen Richard'
p18
g12
tp19
a(S'DeAndre Washington'
p20
g12
tp21
a(S'Amari Cooper'
p22
S'WR'
p23
tp24
a(S'Michael Crabtree'
p25
g23
tp26
a(S'Andre Holmes'
p27
g23
tp28
a(S'Johnny Holton'
p29
g23
tp30
a(S'Seth Roberts'
p31
g23
tp32
a(S'Mychal Rivera'
p33
S'TE'
p34
tp35
a(S'Lee Smith'
p36
g34
tp37
a(S'Clive Walford'
p38
g34
tp39
a(S'Sebastian Janikowski'
p40
S'K'
p41
tp42
asS'Vikings'
p43
(lp44
(S'Sam Bradford'
p45
S'QB'
p46
tp47
a(S'Shaun Hill'
p48
g46
tp49
a(S'Matt Asiata'
p50
S'RB'
p51
tp52
a(S'Zach Line'
p53
g51
tp54
a(S'Jerick McKinnon'
p55
g51
tp56
a(S'Adrian Peterson'
p57
g51
tp58
a(S'Stefon Diggs'
p59
S'WR'
p60
tp61
a(S'Charles Johnson'
p62
g60
tp63
a(S'Cordarrelle Patterson'
p64
g60
tp65
a(S'Adam Thielen'
p66
g60
tp67
a(S'Laquon Treadwell'
p68
g60
tp69
a(S'Jarius Wright'
p70
g60
tp71
a(S'Rhett Ellison'
p72
S'TE'
p73
tp74
a(S'David Morgan'
p75
g73
tp76
a(S'MyCole Pruitt'
p77
g73
tp78
a(S'Kyle Rudolph'
p79
g73
tp80
a(S'Blair Walsh'
p81
S'K'
p82
tp83
asS'Bears'
p84
(lp85
(S'Jay Cutler'
p86
S'QB'
p87
tp88
a(S'Brian Hoyer'
p89
g87
tp90
a(S"Ka'Deem Carey"
p91
S'RB'
p92
tp93
a(S'Jordan Howard'
p94
g92
tp95
a(S'Jeremy Langford'
p96
g92
tp97
a(S'Paul Lasike'
p98
g92
tp99
a(S'Josh Bellamy'
p100
S'WR'
p101
tp102
a(S'Alshon Jeffery'
p103
g101
tp104
a(S'Cameron Meredith'
p105
g101
tp106
a(S'Eddie Royal'
p107
g101
tp108
a(S'Deonte Thompson'
p109
g101
tp110
a(S'Kevin White'
p111
g101
tp112
a(S'Zach Miller'
p113
S'TE'
p114
tp115
a(S'Logan Paulsen'
p116
g114
tp117
a(S'Greg Scruggs'
p118
g114
tp119
a(S'Connor Barth'
p120
S'K'
p121
tp122
asS'Falcons'
p123
(lp124
(S'Matt Ryan'
p125
S'QB'
p126
tp127
a(S'Matt Schaub'
p128
g126
tp129
a(S'Tevin Coleman'
p130
S'RB'
p131
tp132
a(S'Patrick DiMarco'
p133
g131
tp134
a(S'Devonta Freeman'
p135
g131
tp136
a(S'Terron Ward'
p137
g131
tp138
a(S'Taylor Gabriel'
p139
S'WR'
p140
tp141
a(S'C.J. Goodwin'
p142
g140
tp143
a(S'Justin Hardy'
p144
g140
tp145
a(S'Julio Jones'
p146
g140
tp147
a(S'Aldrick Robinson'
p148
g140
tp149
a(S'Mohamed Sanu'
p150
g140
tp151
a(S'Eric Weems'
p152
g140
tp153
a(S'Austin Hooper'
p154
S'TE'
p155
tp156
a(S'Josh Perkins'
p157
g155
tp158
a(S'Jacob Tamme'
p159
g155
tp160
a(S'Levine Toilolo'
p161
g155
tp162
a(S'Matt Bryant'
p163
S'K'
p164
tp165
asS'Saints'
p166
(lp167
(S'Drew Brees'
p168
S'QB'
p169
tp170
a(S'Luke McCown'
p171
g169
tp172
a(S'Travaris Cadet'
p173
S'RB'
p174
tp175
a(S'Tim Hightower'
p176
g174
tp177
a(S'Mark Ingram'
p178
g174
tp179
a(S'John Kuhn'
p180
g174
tp181
a(S'Daniel Lasco'
p182
g174
tp183
a(S'Marcus Murphy'
p184
g174
tp185
a(S'C.J. Spiller'
p186
g174
tp187
a(S'Brandon Coleman'
p188
S'WR'
p189
tp190
a(S'Brandin Cooks'
p191
g189
tp192
a(S'Tommylee Lewis'
p193
g189
tp194
a(S'Willie Snead'
p195
g189
tp196
a(S'Michael Thomas'
p197
g189
tp198
a(S'Coby Fleener'
p199
S'TE'
p200
tp201
a(S'Josh Hill'
p202
g200
tp203
a(S'Chris Manhertz'
p204
g200
tp205
a(S'Will Lutz'
p206
S'K'
p207
tp208
asS'Chargers'
p209
(lp210
(S'Kellen Clemens'
p211
S'QB'
p212
tp213
a(S'Philip Rivers'
p214
g212
tp215
a(S'Kenneth Farrow'
p216
S'RB'
p217
tp218
a(S'Melvin Gordon'
p219
g217
tp220
a(S'Derek Watt'
p221
g217
tp222
a(S'Andre Williams'
p223
g217
tp224
a(S'Danny Woodhead'
p225
g217
tp226
a(S'Keenan Allen'
p227
S'WR'
p228
tp229
a(S'Travis Benjamin'
p230
g228
tp231
a(S'Isaiah Burse'
p232
g228
tp233
a(S'Dontrelle Inman'
p234
g228
tp235
a(S'Tyrell Williams'
p236
g228
tp237
a(S'Antonio Gates'
p238
S'TE'
p239
tp240
a(S'Hunter Henry'
p241
g239
tp242
a(S'Sean McGrath'
p243
g239
tp244
a(S'Josh Lambo'
p245
S'K'
p246
tp247
asS'Broncos'
p248
(lp249
(S'Austin Davis'
p250
S'QB'
p251
tp252
a(S'Paxton Lynch'
p253
g251
tp254
a(S'Trevor Siemian'
p255
g251
tp256
a(S'C.J. Anderson'
p257
S'RB'
p258
tp259
a(S'Kapri Bibbs'
p260
g258
tp261
a(S'Devontae Booker'
p262
g258
tp263
a(S'Andy Janovich'
p264
g258
tp265
a(S'Bennie Fowler'
p266
S'WR'
p267
tp268
a(S'Cody Latimer'
p269
g267
tp270
a(S'Jordan Norwood'
p271
g267
tp272
a(S'Emmanuel Sanders'
p273
g267
tp274
a(S'Jordan Taylor'
p275
g267
tp276
a(S'Demaryius Thomas'
p277
g267
tp278
a(S'Virgil Green'
p279
S'TE'
p280
tp281
a(S'Jeff Heuerman'
p282
g280
tp283
a(S'John Phillips'
p284
g280
tp285
a(S'Brandon McManus'
p286
S'K'
p287
tp288
asS'Lions'
p289
(lp290
(S'Dan Orlovsky'
p291
S'QB'
p292
tp293
a(S'Matthew Stafford'
p294
g292
tp295
a(S'Ameer Abdullah'
p296
S'RB'
p297
tp298
a(S'Michael Burton'
p299
g297
tp300
a(S'Theo Riddick'
p301
g297
tp302
a(S'Dwayne Washington'
p303
g297
tp304
a(S'Zach Zenner'
p305
g297
tp306
a(S'Anquan Boldin'
p307
S'WR'
p308
tp309
a(S'Marvin Jones'
p310
g308
tp311
a(S'Andre Roberts'
p312
g308
tp313
a(S'Golden Tate'
p314
g308
tp315
a(S'Orson Charles'
p316
S'TE'
p317
tp318
a(S'Eric Ebron'
p319
g317
tp320
a(S'Khari Lee'
p321
g317
tp322
a(S'Cole Wick'
p323
g317
tp324
a(S'Matt Prater'
p325
S'K'
p326
tp327
asS'Eagles'
p328
(lp329
(S'Chase Daniel'
p330
S'QB'
p331
tp332
a(S'Carson Wentz'
p333
g331
tp334
a(S'Kenjon Barner'
p335
S'RB'
p336
tp337
a(S'Ryan Mathews'
p338
g336
tp339
a(S'Wendell Smallwood'
p340
g336
tp341
a(S'Darren Sproles'
p342
g336
tp343
a(S'Nelson Agholor'
p344
S'WR'
p345
tp346
a(S'Dorial Green-Beckham'
p347
g345
tp348
a(S'Josh Huff'
p349
g345
tp350
a(S'Jordan Matthews'
p351
g345
tp352
a(S'Bryce Treggs'
p353
g345
tp354
a(S'Trey Burton'
p355
S'TE'
p356
tp357
a(S'Brent Celek'
p358
g356
tp359
a(S'Zach Ertz'
p360
g356
tp361
a(S'Caleb Sturgis'
p362
S'K'
p363
tp364
asS'Browns'
p365
(lp366
(S'Robert Griffin III'
p367
S'QB'
p368
tp369
a(S'Cody Kessler'
p370
g368
tp371
a(S'Josh McCown'
p372
g368
tp373
a(S'George Atkinson'
p374
S'RB'
p375
tp376
a(S'Isaiah Crowell'
p377
g375
tp378
a(S'Malcolm Johnson'
p379
g375
tp380
a(S'Duke Johnson'
p381
g375
tp382
a(S'Corey Coleman'
p383
S'WR'
p384
tp385
a(S'Andrew Hawkins'
p386
g384
tp387
a(S'Rashard Higgins'
p388
g384
tp389
a(S'Ricardo Louis'
p390
g384
tp391
a(S'Jordan Payton'
p392
g384
tp393
a(S'Terrelle Pryor'
p394
g384
tp395
a(S'Gary Barnidge'
p396
S'TE'
p397
tp398
a(S'Seth Devalve'
p399
g397
tp400
a(S'Randall Telfer'
p401
g397
tp402
a(S'Patrick Murray'
p403
S'K'
p404
tp405
asS'Steelers'
p406
(lp407
(S'Landry Jones'
p408
S'QB'
p409
tp410
a(S'Zach Mettenberger'
p411
g409
tp412
a(S'Ben Roethlisberger'
p413
g409
tp414
a(S'Roosevelt Nix'
p415
S'RB'
p416
tp417
a(S'Daryl Richardson'
p418
g416
tp419
a(S'Fitzgerald Toussaint'
p420
g416
tp421
a(S'DeAngelo Williams'
p422
g416
tp423
a(S'Antonio Brown'
p424
S'WR'
p425
tp426
a(S'Sammie Coates'
p427
g425
tp428
a(S'Darrius Heyward-Bey'
p429
g425
tp430
a(S'Eli Rogers'
p431
g425
tp432
a(S'Markus Wheaton'
p433
g425
tp434
a(S'Xavier Grimble'
p435
S'TE'
p436
tp437
a(S'Jesse James'
p438
g436
tp439
a(S'David Johnson'
p440
g436
tp441
a(S'Chris Boswell'
p442
S'K'
p443
tp444
a(S"Le'Veon Bell"
p445
S'RB'
p446
tp447
asS'Giants'
p448
(lp449
(S'Josh Johnson'
p450
S'QB'
p451
tp452
a(S'Eli Manning'
p453
g451
tp454
a(S'Ryan Nassib'
p455
g451
tp456
a(S'Orleans Darkwa'
p457
S'RB'
p458
tp459
a(S'Rashad Jennings'
p460
g458
tp461
a(S'Paul Perkins'
p462
g458
tp463
a(S'Bobby Rainey'
p464
g458
tp465
a(S'Shane Vereen'
p466
g458
tp467
a(S'Odell Beckham'
p468
S'WR'
p469
tp470
a(S'Victor Cruz'
p471
g469
tp472
a(S'Dwayne Harris'
p473
g469
tp474
a(S'Tavarres King'
p475
g469
tp476
a(S'Roger Lewis'
p477
g469
tp478
a(S'Sterling Shepard'
p479
g469
tp480
a(S'Jerell Adams'
p481
S'TE'
p482
tp483
a(S'Larry Donnell'
p484
g482
tp485
a(S'Will Tye'
p486
g482
tp487
a(S'Randy Bullock'
p488
S'K'
p489
tp490
asS'Buccaneers'
p491
(lp492
(S'Mike Glennon'
p493
S'QB'
p494
tp495
a(S'Ryan Griffin'
p496
g494
tp497
a(S'Jameis Winston'
p498
g494
tp499
a(S'Peyton Barber'
p500
S'RB'
p501
tp502
a(S'Doug Martin'
p503
g501
tp504
a(S'Charles Sims'
p505
g501
tp506
a(S'Mike Evans'
p507
S'WR'
p508
tp509
a(S'Adam Humphries'
p510
g508
tp511
a(S'Vincent Jackson'
p512
g508
tp513
a(S'Russell Shepard'
p514
g508
tp515
a(S'Cecil Shorts'
p516
g508
tp517
a(S'Cameron Brate'
p518
S'TE'
p519
tp520
a(S'Brandon Myers'
p521
g519
tp522
a(S'Austin Seferian-Jenkins'
p523
g519
tp524
a(S'Luke Stocker'
p525
g519
tp526
a(S'Roberto Aguayo'
p527
S'K'
p528
tp529
asS'Cardinals'
p530
(lp531
(S'Carson Palmer'
p532
S'QB'
p533
tp534
a(S'Drew Stanton'
p535
g533
tp536
a(S'Dri Archer'
p537
S'RB'
p538
tp539
a(S'Andre Ellington'
p540
g538
tp541
a(S'Chris Johnson'
p542
g538
tp543
a(S'David Johnson'
p544
g538
tp545
a(S'Stepfan Taylor'
p546
g538
tp547
a(S'Jaron Brown'
p548
S'WR'
p549
tp550
a(S'John Brown'
p551
g549
tp552
a(S'Larry Fitzgerald'
p553
g549
tp554
a(S'Michael Floyd'
p555
g549
tp556
a(S'J.J. Nelson'
p557
g549
tp558
a(S'Darren Fells'
p559
S'TE'
p560
tp561
a(S'Jermaine Gresham'
p562
g560
tp563
a(S'Troy Niklas'
p564
g560
tp565
a(S'Chandler Catanzaro'
p566
S'K'
p567
tp568
asS'Bengals'
p569
(lp570
(S'Andy Dalton'
p571
S'QB'
p572
tp573
a(S'Jeff Driskel'
p574
g572
tp575
a(S'AJ McCarron'
p576
g572
tp577
a(S'Giovani Bernard'
p578
S'RB'
p579
tp580
a(S'Rex Burkhead'
p581
g579
tp582
a(S'Jeremy Hill'
p583
g579
tp584
a(S'Tyler Boyd'
p585
S'WR'
p586
tp587
a(S'Cody Core'
p588
g586
tp589
a(S'Alex Erickson'
p590
g586
tp591
a(S'A.J. Green'
p592
g586
tp593
a(S'Brandon LaFell'
p594
g586
tp595
a(S'James Wright'
p596
g586
tp597
a(S'Tyler Eifert'
p598
S'TE'
p599
tp600
a(S'Ryan Hewitt'
p601
g599
tp602
a(S'Tyler Kroft'
p603
g599
tp604
a(S'C.J. Uzomah'
p605
g599
tp606
a(S'Mike Nugent'
p607
S'K'
p608
tp609
asS'Chiefs'
p610
(lp611
(S'Tyler Bray'
p612
S'QB'
p613
tp614
a(S'Nick Foles'
p615
g613
tp616
a(S'Alex Smith'
p617
g613
tp618
a(S'Jamaal Charles'
p619
S'RB'
p620
tp621
a(S'Knile Davis'
p622
g620
tp623
a(S'Anthony Sherman'
p624
g620
tp625
a(S'Spencer Ware'
p626
g620
tp627
a(S'Charcandrick West'
p628
g620
tp629
a(S'Chris Conley'
p630
S'WR'
p631
tp632
a(S'Tyreek Hill'
p633
g631
tp634
a(S'Jeremy Maclin'
p635
g631
tp636
a(S'Demarcus Robinson'
p637
g631
tp638
a(S"De'Anthony Thomas"
p639
g631
tp640
a(S'Albert Wilson'
p641
g631
tp642
a(S'Demetrius Harris'
p643
S'TE'
p644
tp645
a(S'Travis Kelce'
p646
g644
tp647
a(S"James O'Shaughnessy"
p648
g644
tp649
a(S'Ross Travis'
p650
g644
tp651
a(S'Timothy Wright'
p652
g644
tp653
a(S'Cairo Santos'
p654
S'K'
p655
tp656
asS'Dolphins'
p657
(lp658
(S'Brandon Doughty'
p659
S'QB'
p660
tp661
a(S'Matt Moore'
p662
g660
tp663
a(S'Ryan Tannehill'
p664
g660
tp665
a(S'Jay Ajayi'
p666
S'RB'
p667
tp668
a(S'Kenyan Drake'
p669
g667
tp670
a(S'Arian Foster'
p671
g667
tp672
a(S'Tre Mason'
p673
g667
tp674
a(S'Isaiah Pead'
p675
g667
tp676
a(S'Damien Williams'
p677
g667
tp678
a(S'Stedman Bailey'
p679
S'WR'
p680
tp681
a(S'Leonte Carroo'
p682
g680
tp683
a(S'Jakeem Grant'
p684
g680
tp685
a(S'Justin Hunter'
p686
g680
tp687
a(S'Jarvis Landry'
p688
g680
tp689
a(S'DeVante Parker'
p690
g680
tp691
a(S'Kenny Stills'
p692
g680
tp693
a(S'Jordan Cameron'
p694
S'TE'
p695
tp696
a(S'MarQueis Gray'
p697
g695
tp698
a(S'Dion Sims'
p699
g695
tp700
a(S'Andrew Franks'
p701
S'K'
p702
tp703
asS'Jaguars'
p704
(lp705
(S'Brandon Allen'
p706
S'QB'
p707
tp708
a(S'Blake Bortles'
p709
g707
tp710
a(S'Chad Henne'
p711
g707
tp712
a(S'Corey Grant'
p713
S'RB'
p714
tp715
a(S'Chris Ivory'
p716
g714
tp717
a(S'Denard Robinson'
p718
g714
tp719
a(S'T.J. Yeldon'
p720
g714
tp721
a(S'Arrelious Benn'
p722
S'WR'
p723
tp724
a(S'Rashad Greene'
p725
g723
tp726
a(S'Allen Hurns'
p727
g723
tp728
a(S'Marqise Lee'
p729
g723
tp730
a(S'Allen Robinson'
p731
g723
tp732
a(S'Bryan Walters'
p733
g723
tp734
a(S'Ben Koyack'
p735
S'TE'
p736
tp737
a(S'Marcedes Lewis'
p738
g736
tp739
a(S'Neal Sterling'
p740
g736
tp741
a(S'Julius Thomas'
p742
g736
tp743
a(S'Jason Myers'
p744
S'K'
p745
tp746
asS'Redskins'
p747
(lp748
(S'Kirk Cousins'
p749
S'QB'
p750
tp751
a(S'Colt McCoy'
p752
g750
tp753
a(S'Nate Sudfeld'
p754
g750
tp755
a(S'Matt Jones'
p756
S'RB'
p757
tp758
a(S'Rob Kelley'
p759
g757
tp760
a(S'Chris Thompson'
p761
g757
tp762
a(S'Jamison Crowder'
p763
S'WR'
p764
tp765
a(S'Josh Doctson'
p766
g764
tp767
a(S'Pierre Garcon'
p768
g764
tp769
a(S'Ryan Grant'
p770
g764
tp771
a(S'DeSean Jackson'
p772
g764
tp773
a(S'Rashad Ross'
p774
g764
tp775
a(S'Vernon Davis'
p776
S'TE'
p777
tp778
a(S'Niles Paul'
p779
g777
tp780
a(S'Jordan Reed'
p781
g777
tp782
a(S'Michael Williams'
p783
g777
tp784
a(S'Dustin Hopkins'
p785
S'K'
p786
tp787
asS'Jets'
p788
(lp789
(S'Ryan Fitzpatrick'
p790
S'QB'
p791
tp792
a(S'Christian Hackenberg'
p793
g791
tp794
a(S'Bryce Petty'
p795
g791
tp796
a(S'Geno Smith'
p797
g791
tp798
a(S'Matt Forte'
p799
S'RB'
p800
tp801
a(S'Julian Howsare'
p802
g800
tp803
a(S'Troymaine Pope'
p804
g800
tp805
a(S'Bilal Powell'
p806
g800
tp807
a(S'Robby Anderson'
p808
S'WR'
p809
tp810
a(S'Eric Decker'
p811
g809
tp812
a(S'Quincy Enunwa'
p813
g809
tp814
a(S'Brandon Marshall'
p815
g809
tp816
a(S'Jalin Marshall'
p817
g809
tp818
a(S'Charone Peake'
p819
g809
tp820
a(S'Brandon Bostick'
p821
S'TE'
p822
tp823
a(S'Braedon Bowman'
p824
g822
tp825
a(S'Kellen Davis'
p826
g822
tp827
a(S'Nick Folk'
p828
S'K'
p829
tp830
asS'Ravens'
p831
(lp832
(S'Joe Flacco'
p833
S'QB'
p834
tp835
a(S'Ryan Mallett'
p836
g834
tp837
a(S'Javorius Allen'
p838
S'RB'
p839
tp840
a(S'Kenneth Dixon'
p841
g839
tp842
a(S'Justin Forsett'
p843
g839
tp844
a(S'Kyle Juszczyk'
p845
g839
tp846
a(S'Terrance West'
p847
g839
tp848
a(S'Kamar Aiken'
p849
S'WR'
p850
tp851
a(S'Chris Moore'
p852
g850
tp853
a(S'Breshad Perriman'
p854
g850
tp855
a(S'Steve Smith'
p856
g850
tp857
a(S'Mike Wallace'
p858
g850
tp859
a(S'Crockett Gillmore'
p860
S'TE'
p861
tp862
a(S'Dennis Pitta'
p863
g861
tp864
a(S'Maxx Williams'
p865
g861
tp866
a(S'Justin Tucker'
p867
S'K'
p868
tp869
asS'Colts'
p870
(lp871
(S'Andrew Luck'
p872
S'QB'
p873
tp874
a(S'Scott Tolzien'
p875
g873
tp876
a(S'Josh Ferguson'
p877
S'RB'
p878
tp879
a(S'Frank Gore'
p880
g878
tp881
a(S'Jordan Todman'
p882
g878
tp883
a(S'Robert Turbin'
p884
g878
tp885
a(S'Quan Bray'
p886
S'WR'
p887
tp888
a(S'Phillip Dorsett'
p889
g887
tp890
a(S'T.Y. Hilton'
p891
g887
tp892
a(S'Donte Moncrief'
p893
g887
tp894
a(S'Chester Rogers'
p895
g887
tp896
a(S'Dwayne Allen'
p897
S'TE'
p898
tp899
a(S'Jack Doyle'
p900
g898
tp901
a(S'Erik Swoope'
p902
g898
tp903
a(S'Adam Vinatieri'
p904
S'K'
p905
tp906
asS'Packers'
p907
(lp908
(S'Joe Callahan'
p909
S'QB'
p910
tp911
a(S'Brett Hundley'
p912
g910
tp913
a(S'Aaron Rodgers'
p914
g910
tp915
a(S'Eddie Lacy'
p916
S'RB'
p917
tp918
a(S'Jhurrell Pressley'
p919
g917
tp920
a(S'Aaron Ripkowski'
p921
g917
tp922
a(S'James Starks'
p923
g917
tp924
a(S'Jared Abbrederis'
p925
S'WR'
p926
tp927
a(S'Davante Adams'
p928
g926
tp929
a(S'Randall Cobb'
p930
g926
tp931
a(S'Trevor Davis'
p932
g926
tp933
a(S'Jeff Janis'
p934
g926
tp935
a(S'Ty Montgomery'
p936
g926
tp937
a(S'Jordy Nelson'
p938
g926
tp939
a(S'Jared Cook'
p940
S'TE'
p941
tp942
a(S'Justin Perillo'
p943
g941
tp944
a(S'Richard Rodgers'
p945
g941
tp946
a(S'Mason Crosby'
p947
S'K'
p948
tp949
asS'Titans'
p950
(lp951
(S'Matt Cassel'
p952
S'QB'
p953
tp954
a(S'Marcus Mariota'
p955
g953
tp956
a(S'Alex Tanney'
p957
g953
tp958
a(S'Antonio Andrews'
p959
S'RB'
p960
tp961
a(S'Jalston Fowler'
p962
g960
tp963
a(S'Derrick Henry'
p964
g960
tp965
a(S'DeMarco Murray'
p966
g960
tp967
a(S'Harry Douglas'
p968
S'WR'
p969
tp970
a(S'Andre Johnson'
p971
g969
tp972
a(S'Marc Mariani'
p973
g969
tp974
a(S'Rishard Matthews'
p975
g969
tp976
a(S'Tajae Sharpe'
p977
g969
tp978
a(S'Kendall Wright'
p979
g969
tp980
a(S'Jace Amaro'
p981
S'TE'
p982
tp983
a(S'Anthony Fasano'
p984
g982
tp985
a(S'Phillip Supernaw'
p986
g982
tp987
a(S'Delanie Walker'
p988
g982
tp989
a(S'Ryan Succop'
p990
S'K'
p991
tp992
asS'Rams'
p993
(lp994
(S'Jared Goff'
p995
S'QB'
p996
tp997
a(S'Case Keenum'
p998
g996
tp999
a(S'Sean Mannion'
p1000
g996
tp1001
a(S'Malcolm Brown'
p1002
S'RB'
p1003
tp1004
a(S'Benny Cunningham'
p1005
g1003
tp1006
a(S'Todd Gurley'
p1007
g1003
tp1008
a(S'Chase Reynolds'
p1009
g1003
tp1010
a(S'Tavon Austin'
p1011
S'WR'
p1012
tp1013
a(S'Kenny Britt'
p1014
g1012
tp1015
a(S'Pharoh Cooper'
p1016
g1012
tp1017
a(S'Bradley Marquez'
p1018
g1012
tp1019
a(S'Brian Quick'
p1020
g1012
tp1021
a(S'Nelson Spruce'
p1022
g1012
tp1023
a(S'Mike Thomas'
p1024
g1012
tp1025
a(S'Cory Harkey'
p1026
S'TE'
p1027
tp1028
a(S'Temarrick Hemingway'
p1029
g1027
tp1030
a(S'Tyler Higbee'
p1031
g1027
tp1032
a(S'Lance Kendricks'
p1033
g1027
tp1034
a(S'Greg Zuerlein'
p1035
S'K'
p1036
tp1037
asS'Bills'
p1038
(lp1039
(S'Cardale Jones'
p1040
S'QB'
p1041
tp1042
a(S'EJ Manuel'
p1043
g1041
tp1044
a(S'Tyrod Taylor'
p1045
g1041
tp1046
a(S'Reggie Bush'
p1047
S'RB'
p1048
tp1049
a(S'Mike Gillislee'
p1050
g1048
tp1051
a(S'Glenn Gronkowski'
p1052
g1048
tp1053
a(S'LeSean McCoy'
p1054
g1048
tp1055
a(S'Jonathan Williams'
p1056
g1048
tp1057
a(S'Marquise Goodwin'
p1058
S'WR'
p1059
tp1060
a(S'Walt Powell'
p1061
g1059
tp1062
a(S'Greg Salas'
p1063
g1059
tp1064
a(S'Brandon Tate'
p1065
g1059
tp1066
a(S'Sammy Watkins'
p1067
g1059
tp1068
a(S'Robert Woods'
p1069
g1059
tp1070
a(S'Charles Clay'
p1071
S'TE'
p1072
tp1073
a(S'Jim Dray'
p1074
g1072
tp1075
a(S"Nick O'Leary"
p1076
g1072
tp1077
a(S'Dan Carpenter'
p1078
S'K'
p1079
tp1080
a(S'Jordan Gay'
p1081
g1079
tp1082
asS'Texans'
p1083
(lp1084
(S'Brock Osweiler'
p1085
S'QB'
p1086
tp1087
a(S'Tom Savage'
p1088
g1086
tp1089
a(S'Brandon Weeden'
p1090
g1086
tp1091
a(S'Alfred Blue'
p1092
S'RB'
p1093
tp1094
a(S'Tyler Ervin'
p1095
g1093
tp1096
a(S'Jonathan Grimes'
p1097
g1093
tp1098
a(S'Lamar Miller'
p1099
g1093
tp1100
a(S'Jay Prosch'
p1101
g1093
tp1102
a(S'Will Fuller'
p1103
S'WR'
p1104
tp1105
a(S'DeAndre Hopkins'
p1106
g1104
tp1107
a(S'Braxton Miller'
p1108
g1104
tp1109
a(S'Keith Mumphery'
p1110
g1104
tp1111
a(S'Jaelen Strong'
p1112
g1104
tp1113
a(S'Stephen Anderson'
p1114
S'TE'
p1115
tp1116
a(S'C.J. Fiedorowicz'
p1117
g1115
tp1118
a(S'Ryan Griffin'
p1119
g1115
tp1120
a(S'Nick Novak'
p1121
S'K'
p1122
tp1123
asS'49ers'
p1124
(lp1125
(S'Blaine Gabbert'
p1126
S'QB'
p1127
tp1128
a(S'Colin Kaepernick'
p1129
g1127
tp1130
a(S'Christian Ponder'
p1131
g1127
tp1132
a(S'Mike Davis'
p1133
S'RB'
p1134
tp1135
a(S'Shaun Draughn'
p1136
g1134
tp1137
a(S'Carlos Hyde'
p1138
g1134
tp1139
a(S'Aaron Burbridge'
p1140
S'WR'
p1141
tp1142
a(S'Chris Harper'
p1143
g1141
tp1144
a(S'Jeremy Kerley'
p1145
g1141
tp1146
a(S'Quinton Patton'
p1147
g1141
tp1148
a(S'Torrey Smith'
p1149
g1141
tp1150
a(S'Rod Streater'
p1151
g1141
tp1152
a(S'Blake Bell'
p1153
S'TE'
p1154
tp1155
a(S'Garrett Celek'
p1156
g1154
tp1157
a(S'Vance McDonald'
p1158
g1154
tp1159
a(S'Phil Dawson'
p1160
S'K'
p1161
tp1162
asS'Patriots'
p1163
(lp1164
(S'Jacoby Brissett'
p1165
S'QB'
p1166
tp1167
a(S'Jimmy Garoppolo'
p1168
g1166
tp1169
a(S'LeGarrette Blount'
p1170
S'RB'
p1171
tp1172
a(S'Brandon Bolden'
p1173
g1171
tp1174
a(S'James Develin'
p1175
g1171
tp1176
a(S'D.J. Foster'
p1177
g1171
tp1178
a(S'James White'
p1179
g1171
tp1180
a(S'Danny Amendola'
p1181
S'WR'
p1182
tp1183
a(S'Julian Edelman'
p1184
g1182
tp1185
a(S'Chris Hogan'
p1186
g1182
tp1187
a(S'Malcolm Mitchell'
p1188
g1182
tp1189
a(S'Matthew Slater'
p1190
g1182
tp1191
a(S'Martellus Bennett'
p1192
S'TE'
p1193
tp1194
a(S'A.J. Derby'
p1195
g1193
tp1196
a(S'Rob Gronkowski'
p1197
g1193
tp1198
a(S'Clay Harbor'
p1199
g1193
tp1200
a(S'Stephen Gostkowski'
p1201
S'K'
p1202
tp1203
a(S'Tom Brady'
p1204
S'QB'
p1205
tp1206
asS'Cowboys'
p1207
(lp1208
(S'Dak Prescott'
p1209
S'QB'
p1210
tp1211
a(S'Tony Romo'
p1212
g1210
tp1213
a(S'Mark Sanchez'
p1214
g1210
tp1215
a(S'Lance Dunbar'
p1216
S'RB'
p1217
tp1218
a(S'Ezekiel Elliott'
p1219
g1217
tp1220
a(S'Darius Jackson'
p1221
g1217
tp1222
a(S'Alfred Morris'
p1223
g1217
tp1224
a(S'Keith Smith'
p1225
g1217
tp1226
a(S'Rod Smith'
p1227
g1217
tp1228
a(S'Cole Beasley'
p1229
S'WR'
p1230
tp1231
a(S'Dez Bryant'
p1232
g1230
tp1233
a(S'Brice Butler'
p1234
g1230
tp1235
a(S'Lucky Whitehead'
p1236
g1230
tp1237
a(S'Terrance Williams'
p1238
g1230
tp1239
a(S'Gavin Escobar'
p1240
S'TE'
p1241
tp1242
a(S'Geoff Swaim'
p1243
g1241
tp1244
a(S'Jason Witten'
p1245
g1241
tp1246
a(S'Dan Bailey'
p1247
S'K'
p1248
tp1249
asS'Seahawks'
p1250
(lp1251
(S'Trevone Boykin'
p1252
S'QB'
p1253
tp1254
a(S'Russell Wilson'
p1255
g1253
tp1256
a(S'Alex Collins'
p1257
S'RB'
p1258
tp1259
a(S'Christine Michael'
p1260
g1258
tp1261
a(S'C.J. Prosise'
p1262
g1258
tp1263
a(S'Thomas Rawls'
p1264
g1258
tp1265
a(S'Tani Tupou'
p1266
g1258
tp1267
a(S'Doug Baldwin'
p1268
S'WR'
p1269
tp1270
a(S'Jermaine Kearse'
p1271
g1269
tp1272
a(S'Tyler Lockett'
p1273
g1269
tp1274
a(S'Paul Richardson'
p1275
g1269
tp1276
a(S'Jimmy Graham'
p1277
S'TE'
p1278
tp1279
a(S'Nick Vannett'
p1280
g1278
tp1281
a(S'Brandon Williams'
p1282
g1278
tp1283
a(S'Luke Willson'
p1284
g1278
tp1285
a(S'Steven Hauschka'
p1286
S'K'
p1287
tp1288
asS'Panthers'
p1289
(lp1290
(S'Derek Anderson'
p1291
S'QB'
p1292
tp1293
a(S'Cam Newton'
p1294
g1292
tp1295
a(S'Joe Webb'
p1296
g1292
tp1297
a(S'Cameron Artis-Payne'
p1298
S'RB'
p1299
tp1300
a(S'Jonathan Stewart'
p1301
g1299
tp1302
a(S'Mike Tolbert'
p1303
g1299
tp1304
a(S'Fozzy Whittaker'
p1305
g1299
tp1306
a(S'Kelvin Benjamin'
p1307
S'WR'
p1308
tp1309
a(S'Brenton Bersin'
p1310
g1308
tp1311
a(S'Corey Brown'
p1312
g1308
tp1313
a(S'Damiere Byrd'
p1314
g1308
tp1315
a(S'Devin Funchess'
p1316
g1308
tp1317
a(S'Ted Ginn'
p1318
g1308
tp1319
a(S'Ed Dickson'
p1320
S'TE'
p1321
tp1322
a(S'Greg Olsen'
p1323
g1321
tp1324
a(S'Scott Simonson'
p1325
g1321
tp1326
a(S'Graham Gano'
p1327
S'K'
p1328
tp1329
assI2015
(dp1330
g2
(lp1331
(S'Derek Carr'
p1332
S'QB'
p1333
tp1334
a(S'Matt McGloin'
p1335
g1333
tp1336
a(S'Roy Helu'
p1337
S'RB'
p1338
tp1339
a(S'Taiwan Jones'
p1340
g1338
tp1341
a(S'Latavius Murray'
p1342
g1338
tp1343
a(S'Jamize Olawale'
p1344
g1338
tp1345
a(S'Marcel Reece'
p1346
g1338
tp1347
a(S'Brice Butler'
p1348
S'WR'
p1349
tp1350
a(S'Amari Cooper'
p1351
g1349
tp1352
a(S'Michael Crabtree'
p1353
g1349
tp1354
a(S'Andre Holmes'
p1355
g1349
tp1356
a(S'Seth Roberts'
p1357
g1349
tp1358
a(S'Rod Streater'
p1359
g1349
tp1360
a(S'Gabe Holmes'
p1361
S'TE'
p1362
tp1363
a(S'Mychal Rivera'
p1364
g1362
tp1365
a(S'Lee Smith'
p1366
g1362
tp1367
a(S'Clive Walford'
p1368
g1362
tp1369
a(S'Sebastian Janikowski'
p1370
S'K'
p1371
tp1372
asg43
(lp1373
(S'Teddy Bridgewater'
p1374
S'QB'
p1375
tp1376
a(S'Taylor Heinicke'
p1377
g1375
tp1378
a(S'Shaun Hill'
p1379
g1375
tp1380
a(S'Matt Asiata'
p1381
S'RB'
p1382
tp1383
a(S'Zach Line'
p1384
g1382
tp1385
a(S'Jerick McKinnon'
p1386
g1382
tp1387
a(S'Adrian Peterson'
p1388
g1382
tp1389
a(S'Stefon Diggs'
p1390
S'WR'
p1391
tp1392
a(S'Charles Johnson'
p1393
g1391
tp1394
a(S'Cordarrelle Patterson'
p1395
g1391
tp1396
a(S'Adam Thielen'
p1397
g1391
tp1398
a(S'Mike Wallace'
p1399
g1391
tp1400
a(S'Jarius Wright'
p1401
g1391
tp1402
a(S'Rhett Ellison'
p1403
S'TE'
p1404
tp1405
a(S'MyCole Pruitt'
p1406
g1404
tp1407
a(S'Kyle Rudolph'
p1408
g1404
tp1409
a(S'Blair Walsh'
p1410
S'K'
p1411
tp1412
asg84
(lp1413
(S'Jimmy Clausen'
p1414
S'QB'
p1415
tp1416
a(S'Jay Cutler'
p1417
g1415
tp1418
a(S'David Fales'
p1419
g1415
tp1420
a(S"Ka'Deem Carey"
p1421
S'RB'
p1422
tp1423
a(S'Matt Forte'
p1424
g1422
tp1425
a(S'Jeremy Langford'
p1426
g1422
tp1427
a(S'Jacquizz Rodgers'
p1428
g1422
tp1429
a(S'Josh Bellamy'
p1430
S'WR'
p1431
tp1432
a(S'Alshon Jeffery'
p1433
g1431
tp1434
a(S'Marc Mariani'
p1435
g1431
tp1436
a(S'Cameron Meredith'
p1437
g1431
tp1438
a(S'Eddie Royal'
p1439
g1431
tp1440
a(S'Marquess Wilson'
p1441
g1431
tp1442
a(S'Martellus Bennett'
p1443
S'TE'
p1444
tp1445
a(S'Khari Lee'
p1446
g1444
tp1447
a(S'Zach Miller'
p1448
g1444
tp1449
a(S'Robbie Gould'
p1450
S'K'
p1451
tp1452
asg123
(lp1453
(S'Sean Renfree'
p1454
S'QB'
p1455
tp1456
a(S'Matt Ryan'
p1457
g1455
tp1458
a(S'Tevin Coleman'
p1459
S'RB'
p1460
tp1461
a(S'Patrick DiMarco'
p1462
g1460
tp1463
a(S'Devont Freeman'
p1464
g1460
tp1465
a(S'Terron Ward'
p1466
g1460
tp1467
a(S'Leonard Hankerson'
p1468
S'WR'
p1469
tp1470
a(S'Justin Hardy'
p1471
g1469
tp1472
a(S'Devin Hester'
p1473
g1469
tp1474
a(S'Julio Jones'
p1475
g1469
tp1476
a(S'Eric Weems'
p1477
g1469
tp1478
a(S'Roddy White'
p1479
g1469
tp1480
a(S'Nick Williams'
p1481
g1469
tp1482
a(S'Jacob Tamme'
p1483
S'TE'
p1484
tp1485
a(S'Levine Toilolo'
p1486
g1484
tp1487
a(S'Matt Bryant'
p1488
S'K'
p1489
tp1490
asg166
(lp1491
(S'Drew Brees'
p1492
S'QB'
p1493
tp1494
a(S'Garrett Grayson'
p1495
g1493
tp1496
a(S'Luke McCown'
p1497
g1493
tp1498
a(S'Mark Ingram'
p1499
S'RB'
p1500
tp1501
a(S'Austin Johnson'
p1502
g1500
tp1503
a(S'Marcus Murphy'
p1504
g1500
tp1505
a(S'Khiry Robinson'
p1506
g1500
tp1507
a(S'C.J. Spiller'
p1508
g1500
tp1509
a(S'Brandon Coleman'
p1510
S'WR'
p1511
tp1512
a(S'Marques Colston'
p1513
g1511
tp1514
a(S'Brandin Cooks'
p1515
g1511
tp1516
a(S'Seantavius Jones'
p1517
g1511
tp1518
a(S'Willie Snead'
p1519
g1511
tp1520
a(S'Josh Hill'
p1521
S'TE'
p1522
tp1523
a(S'Benjamin Watson'
p1524
g1522
tp1525
a(S'Zach Hocker'
p1526
S'K'
p1527
tp1528
asg209
(lp1529
(S'Kellen Clemens'
p1530
S'QB'
p1531
tp1532
a(S'Philip Rivers'
p1533
g1531
tp1534
a(S'Donald Brown'
p1535
S'RB'
p1536
tp1537
a(S'Melvin Gordon'
p1538
g1536
tp1539
a(S'Branden Oliver'
p1540
g1536
tp1541
a(S'Danny Woodhead'
p1542
g1536
tp1543
a(S'Keenan Allen'
p1544
S'WR'
p1545
tp1546
a(S'Malcom Floyd'
p1547
g1545
tp1548
a(S'Dontrelle Inman'
p1549
g1545
tp1550
a(S'Steve Johnson'
p1551
g1545
tp1552
a(S'Tyrell Williams'
p1553
g1545
tp1554
a(S'Ladarius Green'
p1555
S'TE'
p1556
tp1557
a(S'David Johnson'
p1558
g1556
tp1559
a(S'John Phillips'
p1560
g1556
tp1561
a(S'Josh Lambo'
p1562
S'K'
p1563
tp1564
a(S'Antonio Gates'
p1565
S'TE'
p1566
tp1567
asg248
(lp1568
(S'Brock Osweiler'
p1569
S'QB'
p1570
tp1571
a(S'Trevor Siemian'
p1572
g1570
tp1573
a(S'C.J. Anderson'
p1574
S'RB'
p1575
tp1576
a(S'Ronnie Hillman'
p1577
g1575
tp1578
a(S'Juwan Thompson'
p1579
g1575
tp1580
a(S'Andre Caldwell'
p1581
S'WR'
p1582
tp1583
a(S'Bennie Fowler'
p1584
g1582
tp1585
a(S'Cody Latimer'
p1586
g1582
tp1587
a(S'Jordan Norwood'
p1588
g1582
tp1589
a(S'Emmanuel Sanders'
p1590
g1582
tp1591
a(S'Demaryius Thomas'
p1592
g1582
tp1593
a(S'James Wright'
p1594
g1582
tp1595
a(S'Owen Daniels'
p1596
S'TE'
p1597
tp1598
a(S'Virgil Green'
p1599
g1597
tp1600
a(S'Mitchell Henry'
p1601
g1597
tp1602
a(S'Brandon McManus'
p1603
S'K'
p1604
tp1605
asg289
(lp1606
(S'Dan Orlovsky'
p1607
S'QB'
p1608
tp1609
a(S'Matthew Stafford'
p1610
g1608
tp1611
a(S'Ameer Abdullah'
p1612
S'RB'
p1613
tp1614
a(S'Michael Burton'
p1615
g1613
tp1616
a(S'Theo Riddick'
p1617
g1613
tp1618
a(S'Zach Zenner'
p1619
g1613
tp1620
a(S'Corey Fuller'
p1621
S'WR'
p1622
tp1623
a(S'T.J. Jones'
p1624
g1622
tp1625
a(S'Lance Moore'
p1626
g1622
tp1627
a(S'Golden Tate'
p1628
g1622
tp1629
a(S'Eric Ebron'
p1630
S'TE'
p1631
tp1632
a(S'Brandon Pettigrew'
p1633
g1631
tp1634
a(S'Timothy Wright'
p1635
g1631
tp1636
a(S'Matt Prater'
p1637
S'K'
p1638
tp1639
asg365
(lp1640
(S'Austin Davis'
p1641
S'QB'
p1642
tp1643
a(S'Johnny Manziel'
p1644
g1642
tp1645
a(S'Josh McCown'
p1646
g1642
tp1647
a(S'Isaiah Crowell'
p1648
S'RB'
p1649
tp1650
a(S'Shaun Draughn'
p1651
g1649
tp1652
a(S'Malcolm Johnson'
p1653
g1649
tp1654
a(S'Duke Johnson'
p1655
g1649
tp1656
a(S'Robert Turbin'
p1657
g1649
tp1658
a(S'Travis Benjamin'
p1659
S'WR'
p1660
tp1661
a(S'Dwayne Bowe'
p1662
g1660
tp1663
a(S'Taylor Gabriel'
p1664
g1660
tp1665
a(S'Brian Hartline'
p1666
g1660
tp1667
a(S'Andrew Hawkins'
p1668
g1660
tp1669
a(S'Marlon Moore'
p1670
g1660
tp1671
a(S'Gary Barnidge'
p1672
S'TE'
p1673
tp1674
a(S'E.J. Bibbs'
p1675
g1673
tp1676
a(S'Jim Dray'
p1677
g1673
tp1678
a(S'Rob Housler'
p1679
g1673
tp1680
a(S'Travis Coons'
p1681
S'K'
p1682
tp1683
asg328
(lp1684
(S'Sam Bradford'
p1685
S'QB'
p1686
tp1687
a(S'Stephen Morris'
p1688
g1686
tp1689
a(S'Mark Sanchez'
p1690
g1686
tp1691
a(S'Kenjon Barner'
p1692
S'RB'
p1693
tp1694
a(S'Ryan Mathews'
p1695
g1693
tp1696
a(S'DeMarco Murray'
p1697
g1693
tp1698
a(S'Darren Sproles'
p1699
g1693
tp1700
a(S'Nelson Agholor'
p1701
S'WR'
p1702
tp1703
a(S'Seyi Ajirotutu'
p1704
g1702
tp1705
a(S'Josh Huff'
p1706
g1702
tp1707
a(S'Jordan Matthews'
p1708
g1702
tp1709
a(S'Trey Burton'
p1710
S'TE'
p1711
tp1712
a(S'Brent Celek'
p1713
g1711
tp1714
a(S'Zach Ertz'
p1715
g1711
tp1716
a(S'Cody Parkey'
p1717
S'K'
p1718
tp1719
asg406
(lp1720
(S'Landry Jones'
p1721
S'QB'
p1722
tp1723
a(S'Ben Roethlisberger'
p1724
g1722
tp1725
a(S'Mike Vick'
p1726
g1722
tp1727
a(S'Dri Archer'
p1728
S'RB'
p1729
tp1730
a(S'Will Johnson'
p1731
g1729
tp1732
a(S'Roosevelt Nix-Jones'
p1733
g1729
tp1734
a(S'Jordan Todman'
p1735
g1729
tp1736
a(S'DeAngelo Williams'
p1737
g1729
tp1738
a(S'Antonio Brown'
p1739
S'WR'
p1740
tp1741
a(S'Sammie Coates'
p1742
g1740
tp1743
a(S'Darrius Heyward-Bey'
p1744
g1740
tp1745
a(S'Tyler Murphy'
p1746
g1740
tp1747
a(S'Markus Wheaton'
p1748
g1740
tp1749
a(S'Jesse James'
p1750
S'TE'
p1751
tp1752
a(S'Matt Spaeth'
p1753
g1751
tp1754
a(S'Josh Scobee'
p1755
S'K'
p1756
tp1757
a(S"Le'Veon Bell"
p1758
S'RB'
p1759
tp1760
asg448
(lp1761
(S'Eli Manning'
p1762
S'QB'
p1763
tp1764
a(S'Ryan Nassib'
p1765
g1763
tp1766
a(S'Orleans Darkwa'
p1767
S'RB'
p1768
tp1769
a(S'Rashad Jennings'
p1770
g1768
tp1771
a(S'Shane Vereen'
p1772
g1768
tp1773
a(S'Nikit Whitlock'
p1774
g1768
tp1775
a(S'Andre Williams'
p1776
g1768
tp1777
a(S'Odell Beckham'
p1778
S'WR'
p1779
tp1780
a(S'Victor Cruz'
p1781
g1779
tp1782
a(S'Geremy Davis'
p1783
g1779
tp1784
a(S'Dwayne Harris'
p1785
g1779
tp1786
a(S'Rueben Randle'
p1787
g1779
tp1788
a(S'Jerome Cunningham'
p1789
S'TE'
p1790
tp1791
a(S'Larry Donnell'
p1792
g1790
tp1793
a(S'Daniel Fells'
p1794
g1790
tp1795
a(S'Josh Brown'
p1796
S'K'
p1797
tp1798
asg491
(lp1799
(S'Mike Glennon'
p1800
S'QB'
p1801
tp1802
a(S'Ryan Griffin'
p1803
g1801
tp1804
a(S'Jameis Winston'
p1805
g1801
tp1806
a(S'Cyrus Gray'
p1807
S'RB'
p1808
tp1809
a(S'Mike James'
p1810
g1808
tp1811
a(S'Jorvorskie Lane'
p1812
g1808
tp1813
a(S'Doug Martin'
p1814
g1808
tp1815
a(S'Bobby Rainey'
p1816
g1808
tp1817
a(S'Charles Sims'
p1818
g1808
tp1819
a(S'Mike Evans'
p1820
S'WR'
p1821
tp1822
a(S'Adam Humphries'
p1823
g1821
tp1824
a(S'Vincent Jackson'
p1825
g1821
tp1826
a(S'Louis Murphy'
p1827
g1821
tp1828
a(S'Russell Shepard'
p1829
g1821
tp1830
a(S'Brandon Myers'
p1831
S'TE'
p1832
tp1833
a(S'Austin Seferian-Jenkins'
p1834
g1832
tp1835
a(S'Luke Stocker'
p1836
g1832
tp1837
asg530
(lp1838
(S'Matt Barkley'
p1839
S'QB'
p1840
tp1841
a(S'Carson Palmer'
p1842
g1840
tp1843
a(S'Drew Stanton'
p1844
g1840
tp1845
a(S'Andre Ellington'
p1846
S'RB'
p1847
tp1848
a(S'Chris Johnson'
p1849
g1847
tp1850
a(S'David Johnson'
p1851
g1847
tp1852
a(S'Stepfan Taylor'
p1853
g1847
tp1854
a(S'Jaron Brown'
p1855
S'WR'
p1856
tp1857
a(S'John Brown'
p1858
g1856
tp1859
a(S'Larry Fitzgerald'
p1860
g1856
tp1861
a(S'Michael Floyd'
p1862
g1856
tp1863
a(S'Brittan Golden'
p1864
g1856
tp1865
a(S'J.J. Nelson'
p1866
g1856
tp1867
a(S'Darren Fells'
p1868
S'TE'
p1869
tp1870
a(S'Jermaine Gresham'
p1871
g1869
tp1872
a(S'Troy Niklas'
p1873
g1869
tp1874
a(S'Chandler Catanzaro'
p1875
S'K'
p1876
tp1877
asg569
(lp1878
(S'Andy Dalton'
p1879
S'QB'
p1880
tp1881
a(S'AJ McCarron'
p1882
g1880
tp1883
a(S'Giovani Bernard'
p1884
S'RB'
p1885
tp1886
a(S'Rex Burkhead'
p1887
g1885
tp1888
a(S'Jeremy Hill'
p1889
g1885
tp1890
a(S'Cedric Peerman'
p1891
g1885
tp1892
a(S'Mario Alford'
p1893
S'WR'
p1894
tp1895
a(S'A.J. Green'
p1896
g1894
tp1897
a(S'Marvin Jones'
p1898
g1894
tp1899
a(S'Greg Little'
p1900
g1894
tp1901
a(S'Mohamed Sanu'
p1902
g1894
tp1903
a(S'Brandon Tate'
p1904
g1894
tp1905
a(S'Tyler Eifert'
p1906
S'TE'
p1907
tp1908
a(S'Ryan Hewitt'
p1909
g1907
tp1910
a(S'Tyler Kroft'
p1911
g1907
tp1912
a(S'Zach Sudfeld'
p1913
g1907
tp1914
a(S'C.J. Uzomah'
p1915
g1907
tp1916
a(S'Mike Nugent'
p1917
S'K'
p1918
tp1919
asg610
(lp1920
(S'Chase Daniel'
p1921
S'QB'
p1922
tp1923
a(S'Aaron Murray'
p1924
g1922
tp1925
a(S'Alex Smith'
p1926
g1922
tp1927
a(S'Jamaal Charles'
p1928
S'RB'
p1929
tp1930
a(S'Knile Davis'
p1931
g1929
tp1932
a(S'Anthony Sherman'
p1933
g1929
tp1934
a(S'Charcandrick West'
p1935
g1929
tp1936
a(S'Jason Avant'
p1937
S'WR'
p1938
tp1939
a(S'Chris Conley'
p1940
g1938
tp1941
a(S'Frankie Hammond'
p1942
g1938
tp1943
a(S'Jeremy Maclin'
p1944
g1938
tp1945
a(S"De'Anthony Thomas"
p1946
g1938
tp1947
a(S'Albert Wilson'
p1948
g1938
tp1949
a(S'Demetrius Harris'
p1950
S'TE'
p1951
tp1952
a(S'Travis Kelce'
p1953
g1951
tp1954
a(S"James O'Shaughnessy"
p1955
g1951
tp1956
a(S'Brian Parker'
p1957
g1951
tp1958
a(S'Cairo Santos'
p1959
S'K'
p1960
tp1961
asg657
(lp1962
(S'Matt Moore'
p1963
S'QB'
p1964
tp1965
a(S'Ryan Tannehill'
p1966
g1964
tp1967
a(S'Jonas Gray'
p1968
S'RB'
p1969
tp1970
a(S'Lamar Miller'
p1971
g1969
tp1972
a(S'Damien Williams'
p1973
g1969
tp1974
a(S'Matt Hazel'
p1975
S'WR'
p1976
tp1977
a(S'Greg Jennings'
p1978
g1976
tp1979
a(S'Jarvis Landry'
p1980
g1976
tp1981
a(S'Rishard Matthews'
p1982
g1976
tp1983
a(S'DeVante Parker'
p1984
g1976
tp1985
a(S'Kenny Stills'
p1986
g1976
tp1987
a(S'Jordan Cameron'
p1988
S'TE'
p1989
tp1990
a(S'Dion Sims'
p1991
g1989
tp1992
a(S'Andrew Franks'
p1993
S'K'
p1994
tp1995
asg704
(lp1996
(S'Blake Bortles'
p1997
S'QB'
p1998
tp1999
a(S'Chad Henne'
p2000
g1998
tp2001
a(S'Toby Gerhart'
p2002
S'RB'
p2003
tp2004
a(S'Corey Grant'
p2005
g2003
tp2006
a(S'Bernard Pierce'
p2007
g2003
tp2008
a(S'Denard Robinson'
p2009
g2003
tp2010
a(S'T.J. Yeldon'
p2011
g2003
tp2012
a(S'Rashad Greene'
p2013
S'WR'
p2014
tp2015
a(S'Allen Hurns'
p2016
g2014
tp2017
a(S'Marqise Lee'
p2018
g2014
tp2019
a(S'Allen Robinson'
p2020
g2014
tp2021
a(S'Bryan Walters'
p2022
g2014
tp2023
a(S'Clay Harbor'
p2024
S'TE'
p2025
tp2026
a(S'Nic Jacobs'
p2027
g2025
tp2028
a(S'Marcedes Lewis'
p2029
g2025
tp2030
a(S'Julius Thomas'
p2031
g2025
tp2032
a(S'Jason Myers'
p2033
S'K'
p2034
tp2035
asg1250
(lp2036
(S'Tarvaris Jackson'
p2037
S'QB'
p2038
tp2039
a(S'Russell Wilson'
p2040
g2038
tp2041
a(S'Derrick Coleman'
p2042
S'RB'
p2043
tp2044
a(S'Fred Jackson'
p2045
g2043
tp2046
a(S'Thomas Rawls'
p2047
g2043
tp2048
a(S'Will Tukuafu'
p2049
g2043
tp2050
a(S'Doug Baldwin'
p2051
S'WR'
p2052
tp2053
a(S'Jermaine Kearse'
p2054
g2052
tp2055
a(S'Tyler Lockett'
p2056
g2052
tp2057
a(S'Ricardo Lockette'
p2058
g2052
tp2059
a(S'Chris Matthews'
p2060
g2052
tp2061
a(S'Jimmy Graham'
p2062
S'TE'
p2063
tp2064
a(S'Cooper Helfet'
p2065
g2063
tp2066
a(S'Luke Willson'
p2067
g2063
tp2068
a(S'Steven Hauschka'
p2069
S'K'
p2070
tp2071
asg788
(lp2072
(S'Ryan Fitzpatrick'
p2073
S'QB'
p2074
tp2075
a(S'Bryce Petty'
p2076
g2074
tp2077
a(S'Geno Smith'
p2078
g2074
tp2079
a(S'Tommy Bohanon'
p2080
S'RB'
p2081
tp2082
a(S'Chris Ivory'
p2083
g2081
tp2084
a(S'Bilal Powell'
p2085
g2081
tp2086
a(S'Zac Stacy'
p2087
g2081
tp2088
a(S'Eric Decker'
p2089
S'WR'
p2090
tp2091
a(S'Quincy Enunwa'
p2092
g2090
tp2093
a(S'Jeremy Kerley'
p2094
g2090
tp2095
a(S'Brandon Marshall'
p2096
g2090
tp2097
a(S'Chris Owusu'
p2098
g2090
tp2099
a(S'Devin Smith'
p2100
g2090
tp2101
a(S'Jeff Cumberland'
p2102
S'TE'
p2103
tp2104
a(S'Kellen Davis'
p2105
g2103
tp2106
a(S'Nick Folk'
p2107
S'K'
p2108
tp2109
asg831
(lp2110
(S'Joe Flacco'
p2111
S'QB'
p2112
tp2113
a(S'Matt Schaub'
p2114
g2112
tp2115
a(S'Javorius Allen'
p2116
S'RB'
p2117
tp2118
a(S'Justin Forsett'
p2119
g2117
tp2120
a(S'Kyle Juszczyk'
p2121
g2117
tp2122
a(S'Terrence Magee'
p2123
g2117
tp2124
a(S'Lorenzo Taliaferro'
p2125
g2117
tp2126
a(S'Kamar Aiken'
p2127
S'WR'
p2128
tp2129
a(S'Michael Campanaro'
p2130
g2128
tp2131
a(S'Breshad Perriman'
p2132
g2128
tp2133
a(S'Steve Smith'
p2134
g2128
tp2135
a(S'Darren Waller'
p2136
g2128
tp2137
a(S'Nick Boyle'
p2138
S'TE'
p2139
tp2140
a(S'Crockett Gillmore'
p2141
g2139
tp2142
a(S'Maxx Williams'
p2143
g2139
tp2144
a(S'Justin Tucker'
p2145
S'K'
p2146
tp2147
asg870
(lp2148
(S'Andrew Luck'
p2149
S'QB'
p2150
tp2151
a(S'Vick Ballard'
p2152
S'RB'
p2153
tp2154
a(S'Frank Gore'
p2155
g2153
tp2156
a(S'Tyler Varga'
p2157
g2153
tp2158
a(S'Phillip Dorsett'
p2159
S'WR'
p2160
tp2161
a(S'T.Y. Hilton'
p2162
g2160
tp2163
a(S'Andre Johnson'
p2164
g2160
tp2165
a(S'Donte Moncrief'
p2166
g2160
tp2167
a(S'Griff Whalen'
p2168
g2160
tp2169
a(S'Dwayne Allen'
p2170
S'TE'
p2171
tp2172
a(S'Jack Doyle'
p2173
g2171
tp2174
a(S'Coby Fleener'
p2175
g2171
tp2176
a(S'Adam Vinatieri'
p2177
S'K'
p2178
tp2179
asg907
(lp2180
(S'Brett Hundley'
p2181
S'QB'
p2182
tp2183
a(S'Aaron Rodgers'
p2184
g2182
tp2185
a(S'Scott Tolzien'
p2186
g2182
tp2187
a(S'John Kuhn'
p2188
S'RB'
p2189
tp2190
a(S'Eddie Lacy'
p2191
g2189
tp2192
a(S'Aaron Ripkowski'
p2193
g2189
tp2194
a(S'James Starks'
p2195
g2189
tp2196
a(S'Davante Adams'
p2197
S'WR'
p2198
tp2199
a(S'Randall Cobb'
p2200
g2198
tp2201
a(S'Jeff Janis'
p2202
g2198
tp2203
a(S'James Jones'
p2204
g2198
tp2205
a(S'Ty Montgomery'
p2206
g2198
tp2207
a(S'Mike Williams'
p2208
g2198
tp2209
a(S'Kennard Backman'
p2210
S'TE'
p2211
tp2212
a(S'Andrew Quarless'
p2213
g2211
tp2214
a(S'Richard Rodgers'
p2215
g2211
tp2216
a(S'Mason Crosby'
p2217
S'K'
p2218
tp2219
asg950
(lp2220
(S'Marcus Mariota'
p2221
S'QB'
p2222
tp2223
a(S'Zach Mettenberger'
p2224
g2222
tp2225
a(S'Antonio Andrews'
p2226
S'RB'
p2227
tp2228
a(S'Jalston Fowler'
p2229
g2227
tp2230
a(S'Dexter McCluster'
p2231
g2227
tp2232
a(S'Bishop Sankey'
p2233
g2227
tp2234
a(S'Terrance West'
p2235
g2227
tp2236
a(S'Harry Douglas'
p2237
S'WR'
p2238
tp2239
a(S'Dorial Green-Beckham'
p2240
g2238
tp2241
a(S'Justin Hunter'
p2242
g2238
tp2243
a(S'Kendall Wright'
p2244
g2238
tp2245
a(S'Chase Coffman'
p2246
S'TE'
p2247
tp2248
a(S'Anthony Fasano'
p2249
g2247
tp2250
a(S'Craig Stevens'
p2251
g2247
tp2252
a(S'Phillip Supernaw'
p2253
g2247
tp2254
a(S'Delanie Walker'
p2255
g2247
tp2256
a(S'Ryan Succop'
p2257
S'K'
p2258
tp2259
asg993
(lp2260
(S'Nick Foles'
p2261
S'QB'
p2262
tp2263
a(S'Case Keenum'
p2264
g2262
tp2265
a(S'Sean Mannion'
p2266
g2262
tp2267
a(S'Benny Cunningham'
p2268
S'RB'
p2269
tp2270
a(S'Todd Gurley'
p2271
g2269
tp2272
a(S'Tre Mason'
p2273
g2269
tp2274
a(S'Isaiah Pead'
p2275
g2269
tp2276
a(S'Chase Reynolds'
p2277
g2269
tp2278
a(S'Tavon Austin'
p2279
S'WR'
p2280
tp2281
a(S'Stedman Bailey'
p2282
g2280
tp2283
a(S'Kenny Britt'
p2284
g2280
tp2285
a(S'Chris Givens'
p2286
g2280
tp2287
a(S'Bradley Marquez'
p2288
g2280
tp2289
a(S'Brian Quick'
p2290
g2280
tp2291
a(S'Jared Cook'
p2292
S'TE'
p2293
tp2294
a(S'Cory Harkey'
p2295
g2293
tp2296
a(S'Lance Kendricks'
p2297
g2293
tp2298
a(S'Greg Zuerlein'
p2299
S'K'
p2300
tp2301
asg1038
(lp2302
(S'Matt Cassel'
p2303
S'QB'
p2304
tp2305
a(S'EJ Manuel'
p2306
g2304
tp2307
a(S'Tyrod Taylor'
p2308
g2304
tp2309
a(S'Bryce Brown'
p2310
S'RB'
p2311
tp2312
a(S'Anthony Dixon'
p2313
g2311
tp2314
a(S'Jerome Felton'
p2315
g2311
tp2316
a(S'LeSean McCoy'
p2317
g2311
tp2318
a(S'Karlos Williams'
p2319
g2311
tp2320
a(S'Marcus Easley'
p2321
S'WR'
p2322
tp2323
a(S'Marquise Goodwin'
p2324
g2322
tp2325
a(S'Percy Harvin'
p2326
g2322
tp2327
a(S'Chris Hogan'
p2328
g2322
tp2329
a(S'Sammy Watkins'
p2330
g2322
tp2331
a(S'Robert Woods'
p2332
g2322
tp2333
a(S'Charles Clay'
p2334
S'TE'
p2335
tp2336
a(S'Chris Gragg'
p2337
g2335
tp2338
a(S'MarQueis Gray'
p2339
g2335
tp2340
a(S'Matthew Mulligan'
p2341
g2335
tp2342
a(S'Dan Carpenter'
p2343
S'K'
p2344
tp2345
a(S'Jordan Gay'
p2346
g2344
tp2347
asg1083
(lp2348
(S'Brian Hoyer'
p2349
S'QB'
p2350
tp2351
a(S'Ryan Mallett'
p2352
g2350
tp2353
a(S'Alfred Blue'
p2354
S'RB'
p2355
tp2356
a(S'Arian Foster'
p2357
g2355
tp2358
a(S'Jonathan Grimes'
p2359
g2355
tp2360
a(S'Chris Polk'
p2361
g2355
tp2362
a(S'Jay Prosch'
p2363
g2355
tp2364
a(S'DeAndre Hopkins'
p2365
S'WR'
p2366
tp2367
a(S'Keshawn Martin'
p2368
g2366
tp2369
a(S'Keith Mumphery'
p2370
g2366
tp2371
a(S'Cecil Shorts'
p2372
g2366
tp2373
a(S'Jaelen Strong'
p2374
g2366
tp2375
a(S'Nate Washington'
p2376
g2366
tp2377
a(S'C.J. Fiedorowicz'
p2378
S'TE'
p2379
tp2380
a(S'Garrett Graham'
p2381
g2379
tp2382
a(S'Ryan Griffin'
p2383
g2379
tp2384
a(S'Randy Bullock'
p2385
S'K'
p2386
tp2387
asg1124
(lp2388
(S'Blaine Gabbert'
p2389
S'QB'
p2390
tp2391
a(S'Colin Kaepernick'
p2392
g2390
tp2393
a(S'Reggie Bush'
p2394
S'RB'
p2395
tp2396
a(S'Mike Davis'
p2397
g2395
tp2398
a(S'Carlos Hyde'
p2399
g2395
tp2400
a(S'Bruce Miller'
p2401
g2395
tp2402
a(S'Anquan Boldin'
p2403
S'WR'
p2404
tp2405
a(S'Bruce Ellington'
p2406
g2404
tp2407
a(S'Quinton Patton'
p2408
g2404
tp2409
a(S'Torrey Smith'
p2410
g2404
tp2411
a(S'DeAndrew White'
p2412
g2404
tp2413
a(S'Blake Bell'
p2414
S'TE'
p2415
tp2416
a(S'Garrett Celek'
p2417
g2415
tp2418
a(S'Vernon Davis'
p2419
g2415
tp2420
a(S'Vance McDonald'
p2421
g2415
tp2422
a(S'Phil Dawson'
p2423
S'K'
p2424
tp2425
asg1163
(lp2426
(S'Tom Brady'
p2427
S'QB'
p2428
tp2429
a(S'Jimmy Garoppolo'
p2430
g2428
tp2431
a(S'Brandon Bolden'
p2432
S'RB'
p2433
tp2434
a(S'Travaris Cadet'
p2435
g2433
tp2436
a(S'Dion Lewis'
p2437
g2433
tp2438
a(S'James White'
p2439
g2433
tp2440
a(S'Danny Amendola'
p2441
S'WR'
p2442
tp2443
a(S'Aaron Dobson'
p2444
g2442
tp2445
a(S'Julian Edelman'
p2446
g2442
tp2447
a(S'Chris Harper'
p2448
g2442
tp2449
a(S'Matthew Slater'
p2450
g2442
tp2451
a(S'Scott Chandler'
p2452
S'TE'
p2453
tp2454
a(S'Rob Gronkowski'
p2455
g2453
tp2456
a(S'Michael Hoomanawanui'
p2457
g2453
tp2458
a(S'Michael Williams'
p2459
g2453
tp2460
a(S'Stephen Gostkowski'
p2461
S'K'
p2462
tp2463
asg1207
(lp2464
(S'Tony Romo'
p2465
S'QB'
p2466
tp2467
a(S'Brandon Weeden'
p2468
g2466
tp2469
a(S'Tyler Clutts'
p2470
S'RB'
p2471
tp2472
a(S'Lance Dunbar'
p2473
g2471
tp2474
a(S'Darren McFadden'
p2475
g2471
tp2476
a(S'Christine Michael'
p2477
g2471
tp2478
a(S'Cole Beasley'
p2479
S'WR'
p2480
tp2481
a(S'Dez Bryant'
p2482
g2480
tp2483
a(S'Devin Street'
p2484
g2480
tp2485
a(S'Lucky Whitehead'
p2486
g2480
tp2487
a(S'Terrance Williams'
p2488
g2480
tp2489
a(S'Gavin Escobar'
p2490
S'TE'
p2491
tp2492
a(S'James Hanna'
p2493
g2491
tp2494
a(S'Geoff Swaim'
p2495
g2491
tp2496
a(S'Jason Witten'
p2497
g2491
tp2498
a(S'Dan Bailey'
p2499
S'K'
p2500
tp2501
asg1289
(lp2502
(S'Derek Anderson'
p2503
S'QB'
p2504
tp2505
a(S'Cam Newton'
p2506
g2504
tp2507
a(S'Joe Webb'
p2508
g2504
tp2509
a(S'Cameron Artis-Payne'
p2510
S'RB'
p2511
tp2512
a(S'Jonathan Stewart'
p2513
g2511
tp2514
a(S'Mike Tolbert'
p2515
g2511
tp2516
a(S'Brandon Wegher'
p2517
g2511
tp2518
a(S'Fozzy Whittaker'
p2519
g2511
tp2520
a(S'Corey Brown'
p2521
S'WR'
p2522
tp2523
a(S'Jerricho Cotchery'
p2524
g2522
tp2525
a(S'Devin Funchess'
p2526
g2522
tp2527
a(S'Ted Ginn'
p2528
g2522
tp2529
a(S'Kevin Norwood'
p2530
g2522
tp2531
a(S'Ed Dickson'
p2532
S'TE'
p2533
tp2534
a(S'Greg Olsen'
p2535
g2533
tp2536
a(S'Brandon Williams'
p2537
g2533
tp2538
a(S'Graham Gano'
p2539
S'K'
p2540
tp2541
asg747
(lp2542
(S'Kirk Cousins'
p2543
S'QB'
p2544
tp2545
a(S'Robert Griffin III'
p2546
g2544
tp2547
a(S'Colt McCoy'
p2548
g2544
tp2549
a(S'Alfred Morris'
p2550
S'RB'
p2551
tp2552
a(S'Chris Thompson'
p2553
g2551
tp2554
a(S'Darrel Young'
p2555
g2551
tp2556
a(S'Jamison Crowder'
p2557
S'WR'
p2558
tp2559
a(S'Pierre Garcon'
p2560
g2558
tp2561
a(S'Ryan Grant'
p2562
g2558
tp2563
a(S'DeSean Jackson'
p2564
g2558
tp2565
a(S'Andre Roberts'
p2566
g2558
tp2567
a(S'Rashad Ross'
p2568
g2558
tp2569
a(S'Derek Carrier'
p2570
S'TE'
p2571
tp2572
a(S'Anthony McCoy'
p2573
g2571
tp2574
a(S'Jordan Reed'
p2575
g2571
tp2576
a(S'Kai Forbath'
p2577
S'K'
p2578
tp2579
ass.