(dp0
I3
(dp1
S'DST'
p2
(dp3
S'Broncos'
p4
I3500
sS'Vikings'
p5
I3100
sS'Bears'
p6
I2700
sS'Falcons'
p7
I2000
sS'Saints'
p8
I2200
sS'Chargers'
p9
I2300
sS'Raiders'
p10
I2600
sS'Lions'
p11
I2400
sS'Browns'
p12
I2300
sS'Eagles'
p13
I2800
sS'Steelers'
p14
I2900
sS'Giants'
p15
I3300
sS'Buccaneers'
p16
I3100
sS'Cardinals'
p17
I3600
sS'Bengals'
p18
I2800
sS'Chiefs'
p19
I3200
sS'Jaguars'
p20
I2600
sS'Seahawks'
p21
I4100
sS'Jets'
p22
I2900
sS'Ravens'
p23
I2500
sS'Colts'
p24
I2400
sS'Packers'
p25
I3000
sS'Dolphins'
p26
I3000
sS'Rams'
p27
I3000
sS'Bills'
p28
I2700
sS'Panthers'
p29
I3800
sS'Texans'
p30
I3000
sS'49ers'
p31
I2400
sS'Patriots'
p32
I3200
sS'Cowboys'
p33
I2500
sS'Titans'
p34
I2500
sS'Redskins'
p35
I2400
ssS'QB'
p36
(dp37
S'Ryan Tannehill'
p38
I6200
sS'Carson Wentz'
p39
I5500
sS'AJ McCarron'
p40
I5000
sS'Christian Hackenberg'
p41
I5000
sS'Cam Newton'
p42
I7800
sS'Josh McCown'
p43
I5600
sS'Ben Roethlisberger'
p44
I7300
sS'Mike Glennon'
p45
I5000
sS'EJ Manuel'
p46
I5000
sS'Nate Sudfeld'
p47
I5000
sS'Blake Bortles'
p48
I6500
sS'Drew Stanton'
p49
I5000
sS'Brandon Weeden'
p50
I5000
sS'Christian Ponder'
p51
I5000
sS'Ryan Mallett'
p52
I5000
sS'Joe Flacco'
p53
I6100
sS'Jimmy Garoppolo'
p54
I5600
sS'Alex Smith'
p55
I5800
sS'Chad Henne'
p56
I5000
sS'Dan Orlovsky'
p57
I5000
sS'Matt Schaub'
p58
I5000
sS'Case Keenum'
p59
I5000
sS'Cody Kessler'
p60
I5000
sS'Andy Dalton'
p61
I5700
sS'Tyrod Taylor'
p62
I5800
sS'Brett Hundley'
p63
I5000
sS'Dak Prescott'
p64
I5700
sS'Kirk Cousins'
p65
I6400
sS'Landry Jones'
p66
I5000
sS'Jameis Winston'
p67
I6000
sS'Brandon Allen'
p68
I5000
sS'Colin Kaepernick'
p69
I5000
sS'Austin Davis'
p70
I5000
sS'Russell Wilson'
p71
I7100
sS'Paxton Lynch'
p72
I5000
sS'Shaun Hill'
p73
I5000
sS'Jeff Driskel'
p74
I5000
sS'Eli Manning'
p75
I7000
sS'Tom Savage'
p76
I5000
sS'Tyler Bray'
p77
I5000
sS'Colt McCoy'
p78
I5000
sS'Connor Cook'
p79
I5000
sS'Trevone Boykin'
p80
I5000
sS'Jay Cutler'
p81
I5600
sS'Matt Moore'
p82
I5000
sS'Brock Osweiler'
p83
I6000
sS'Joe Webb'
p84
I5000
sS'Nick Foles'
p85
I5000
sS'Geno Smith'
p86
I5000
sS'Brian Hoyer'
p87
I5000
sS'Marcus Mariota'
p88
I5900
sS'Matt Ryan'
p89
I7400
sS'Sean Mannion'
p90
I5000
sS'Drew Brees'
p91
I7900
sS'Jacoby Brissett'
p92
I5000
sS'Carson Palmer'
p93
I7200
sS'Sam Bradford'
p94
I5300
sS'Jared Goff'
p95
I5000
sS'Ryan Nassib'
p96
I5000
sS'Derek Anderson'
p97
I5000
sS'Joe Callahan'
p98
I5000
sS'Mark Sanchez'
p99
I5000
sS'Blaine Gabbert'
p100
I5000
sS'Matt McGloin'
p101
I5000
sS'Tony Romo'
p102
I6000
sS'Matt Cassel'
p103
I5000
sS'Andrew Luck'
p104
I7600
sS'Josh Johnson'
p105
I5000
sS'Ryan Griffin'
p106
I5000
sS'Ryan Fitzpatrick'
p107
I5900
sS'Aaron Rodgers'
p108
I7700
sS'Trevor Siemian'
p109
I5100
sS'Philip Rivers'
p110
I6700
sS'Derek Carr'
p111
I6900
sS'Zach Mettenberger'
p112
I5000
sS'Matthew Stafford'
p113
I6800
sS'Cardale Jones'
p114
I5000
sS'Bryce Petty'
p115
I5000
sS'Luke McCown'
p116
I5000
sS'Chase Daniel'
p117
I5000
sS'Kellen Clemens'
p118
I5000
sS'Scott Tolzien'
p119
I5000
ssS'WR'
p120
(dp121
S'Tyler Lockett'
p122
I4200
sS'Chester Rogers'
p123
I3000
sS'Deonte Thompson'
p124
I3000
sS'Dwayne Harris'
p125
I3000
sS'Lucky Whitehead'
p126
I3000
sS'Golden Tate'
p127
I5900
sS'Ty Montgomery'
p128
I3000
sS'Charone Peake'
p129
I3000
sS'Tajae Sharpe'
p130
I4700
sS'Alshon Jeffery'
p131
I8000
sS'Bryan Walters'
p132
I3000
sS'Tyler Boyd'
p133
I3500
sS'Josh Huff'
p134
I3000
sS'Anquan Boldin'
p135
I4200
sS'Brandon Coleman'
p136
I3000
sS'Dorial Green-Beckham'
p137
I3200
sS'Kendall Wright'
p138
I3000
sS'DeSean Jackson'
p139
I5900
sS'Jamison Crowder'
p140
I3800
sS'Tavon Austin'
p141
I4100
sS'Markus Wheaton'
p142
I4600
sS'Jordy Nelson'
p143
I7400
sS'Amari Cooper'
p144
I7700
sS'Josh Doctson'
p145
I3000
sS'Jaelen Strong'
p146
I3300
sS'Albert Wilson'
p147
I3000
sS'Sterling Shepard'
p148
I5500
sS'Doug Baldwin'
p149
I6300
sS'Justin Hunter'
p150
I3000
sS'Jarvis Landry'
p151
I6600
sS'Danny Amendola'
p152
I3700
sS'Travis Benjamin'
p153
I5200
sS'Allen Robinson'
p154
I7500
sS'Mohamed Sanu'
p155
I5700
sS'Harry Douglas'
p156
I3000
sS'Quan Bray'
p157
I3000
sS'Mike Thomas'
p158
I3000
sS'Jeremy Maclin'
p159
I6000
sS'Adam Humphries'
p160
I3000
sS'Bryce Treggs'
p161
I3000
sS'Victor Cruz'
p162
I4700
sS'Laquon Treadwell'
p163
I3100
sS'Brandon Tate'
p164
I3000
sS'Eric Weems'
p165
I3000
sS'Eric Decker'
p166
I6900
sS'Marquise Goodwin'
p167
I3000
sS'Julian Edelman'
p168
I6400
sS'Tanner McEvoy'
p169
I3000
sS'Ted Ginn'
p170
I3700
sS'Malcolm Mitchell'
p171
I3000
sS'Andre Roberts'
p172
I3000
sS'Breshad Perriman'
p173
I3000
sS'Jermaine Kearse'
p174
I3400
sS'Allen Hurns'
p175
I5200
sS'Phillip Dorsett'
p176
I4400
sS'Sammy Watkins'
p177
I6100
sS'Jalin Marshall'
p178
I3000
sS'Braxton Miller'
p179
I3000
sS'Demaryius Thomas'
p180
I6400
sS'Rashard Higgins'
p181
I3000
sS'Davante Adams'
p182
I4100
sS'Tyreek Hill'
p183
I3000
sS'Will Fuller'
p184
I4800
sS'Rishard Matthews'
p185
I3300
sS'Marqise Lee'
p186
I3000
sS'Jaron Brown'
p187
I3300
sS'Devin Funchess'
p188
I4100
sS'Tommylee Lewis'
p189
I3000
sS'Brandin Cooks'
p190
I7900
sS'Ryan Grant'
p191
I3000
sS'Damiere Byrd'
p192
I3000
sS'J.J. Nelson'
p193
I3000
sS'Darrius Heyward-Bey'
p194
I3200
sS"De'Anthony Thomas"
p195
I3000
sS'Matthew Slater'
p196
I3000
sS'Antonio Brown'
p197
I9600
sS'Michael Thomas'
p198
I4200
sS'Andrew Hawkins'
p199
I3000
sS'Jordan Norwood'
p200
I3000
sS'Rashad Ross'
p201
I3000
sS'James Wright'
p202
I3000
sS'Sammie Coates'
p203
I3800
sS'Charles Johnson'
p204
I3000
sS'Michael Crabtree'
p205
I6000
sS'Terrance Williams'
p206
I3300
sS'Kenny Stills'
p207
I3600
sS'Arrelious Benn'
p208
I3000
sS'Aldrick Robinson'
p209
I3000
sS'Keith Mumphery'
p210
I3000
sS'Chris Conley'
p211
I3100
sS'Justin Hardy'
p212
I3000
sS'Rashad Greene'
p213
I3000
sS'Jarius Wright'
p214
I3000
sS'Seth Roberts'
p215
I3500
sS'Brandon LaFell'
p216
I3400
sS'Pharoh Cooper'
p217
I3000
sS'Johnny Holton'
p218
I3000
sS'Rod Streater'
p219
I3000
sS'A.J. Green'
p220
I8100
sS'Bennie Fowler'
p221
I3000
sS'Robert Woods'
p222
I3200
sS'Terrelle Pryor'
p223
I3400
sS'Julio Jones'
p224
I9500
sS'Kelvin Benjamin'
p225
I7200
sS'Cole Beasley'
p226
I3200
sS'Cody Core'
p227
I3000
sS'Corey Coleman'
p228
I5300
sS'Cecil Shorts'
p229
I3000
sS'Alex Erickson'
p230
I3000
sS'Eddie Royal'
p231
I3500
sS'Jared Abbrederis'
p232
I3000
sS'Willie Snead'
p233
I6500
sS'Trevor Davis'
p234
I3000
sS'Jeff Janis'
p235
I3200
sS'Nelson Spruce'
p236
I3000
sS'DeVante Parker'
p237
I4900
sS'Adam Thielen'
p238
I3200
sS'DeAndre Hopkins'
p239
I8600
sS'Demarcus Robinson'
p240
I3000
sS'Chris Moore'
p241
I3000
sS'Jordan Taylor'
p242
I3000
sS'Jeremy Kerley'
p243
I3400
sS'Greg Salas'
p244
I3000
sS'Emmanuel Sanders'
p245
I6000
sS'Kenny Britt'
p246
I3900
sS'Odell Beckham'
p247
I9100
sS'Cordarrelle Patterson'
p248
I3000
sS'Paul Richardson'
p249
I3000
sS'Tavarres King'
p250
I3000
sS'Kevin White'
p251
I4000
sS'Randall Cobb'
p252
I7300
sS'Brian Quick'
p253
I3000
sS'Cody Latimer'
p254
I3000
sS'Cameron Meredith'
p255
I3000
sS'T.Y. Hilton'
p256
I6800
sS'John Brown'
p257
I4800
sS'Jordan Payton'
p258
I3000
sS'Jakeem Grant'
p259
I3000
sS'Quincy Enunwa'
p260
I4800
sS'Dontrelle Inman'
p261
I3600
sS'Jordan Matthews'
p262
I7100
sS'Taylor Gabriel'
p263
I3000
sS'Marc Mariani'
p264
I3000
sS'Mike Wallace'
p265
I5000
sS'Torrey Smith'
p266
I4300
sS'Corey Brown'
p267
I3000
sS'Roger Lewis'
p268
I3000
sS'Nelson Agholor'
p269
I3500
sS'Michael Floyd'
p270
I5800
sS'Mike Evans'
p271
I7000
sS'Steve Smith'
p272
I4100
sS'Quinton Patton'
p273
I3100
sS'Walt Powell'
p274
I3000
sS'Andre Holmes'
p275
I3000
sS'Bradley Marquez'
p276
I3000
sS'Brice Butler'
p277
I3000
sS'Andre Johnson'
p278
I3400
sS'Russell Shepard'
p279
I3000
sS'Brandon Marshall'
p280
I7300
sS'Kamar Aiken'
p281
I3100
sS'Robby Anderson'
p282
I3000
sS'Vincent Jackson'
p283
I3900
sS'Stefon Diggs'
p284
I5100
sS'Joshua Bellamy'
p285
I3000
sS'Larry Fitzgerald'
p286
I6900
sS'Devin Hester'
p287
I3000
sS'Isaiah Burse'
p288
I3000
sS'Brenton Bersin'
p289
I3000
sS'Ricardo Louis'
p290
I3000
sS'Marvin Jones'
p291
I6200
sS'Pierre Garcon'
p292
I3900
sS'Chris Hogan'
p293
I3900
sS'Donte Moncrief'
p294
I6700
sS'Leonte Carroo'
p295
I3000
sS'Dez Bryant'
p296
I8400
sS'Tyrell Williams'
p297
I4300
sS'Aaron Burbridge'
p298
I3000
sS'Eli Rogers'
p299
I3900
ssS'RB'
p300
(dp301
S'Will Tukuafu'
p302
I3000
sS'Taiwan Jones'
p303
I3000
sS'Frank Gore'
p304
I5000
sS'Charles Sims'
p305
I4900
sS'Jerick McKinnon'
p306
I3800
sS'T.J. Yeldon'
p307
I5600
sS'Jalston Fowler'
p308
I3000
sS'Rob Kelley'
p309
I3000
sS'D.J. Foster'
p310
I3000
sS'Fozzy Whittaker'
p311
I3800
sS'Daniel Lasco'
p312
I3000
sS'Kenneth Dixon'
p313
I3000
sS'Tyler Ervin'
p314
I3000
sS'Alex Collins'
p315
I3000
sS'Theo Riddick'
p316
I4900
sS'Corey Grant'
p317
I3000
sS'Malcolm Brown'
p318
I3000
sS'Darren Sproles'
p319
I3700
sS'Christine Michael'
p320
I5000
sS'Rashad Jennings'
p321
I5100
sS'Jeremy Hill'
p322
I3700
sS'Ezekiel Elliott'
p323
I6900
sS'Tevin Coleman'
p324
I4500
sS'Shaun Draughn'
p325
I3400
sS'Mike Tolbert'
p326
I3000
sS'Jonathan Grimes'
p327
I3000
sS'Paul Perkins'
p328
I3000
sS'Reggie Bush'
p329
I3200
sS'Devontae Booker'
p330
I3000
sS'Jamaal Charles'
p331
I5600
sS'C.J. Anderson'
p332
I7300
sS'Denard Robinson'
p333
I3000
sS'Julian Howsare'
p334
I3000
sS'Danny Woodhead'
p335
I5400
sS'Derrick Henry'
p336
I3700
sS'Ameer Abdullah'
p337
I4600
sS'Fitzgerald Toussaint'
p338
I3000
sS'Michael Burton'
p339
I3000
sS'Bobby Rainey'
p340
I3000
sS'Melvin Gordon'
p341
I5800
sS'George Atkinson'
p342
I3000
sS'Matt Forte'
p343
I7000
sS'DeAngelo Williams'
p344
I7500
sS'Stepfan Taylor'
p345
I3000
sS'James Starks'
p346
I4000
sS'Zach Zenner'
p347
I3000
sS'Kapri Bibbs'
p348
I3000
sS'Jalen Richard'
p349
I3600
sS'Chris Johnson'
p350
I3500
sS'LeGarrette Blount'
p351
I4400
sS'Chris Ivory'
p352
I3900
sS'Roosevelt Nix'
p353
I3000
sS'Lance Dunbar'
p354
I3000
sS'Andy Janovich'
p355
I3000
sS'Wendell Smallwood'
p356
I3000
sS'Antonio Andrews'
p357
I3000
sS'Keith Smith'
p358
I3000
sS'Kenyan Drake'
p359
I3600
sS'DeMarco Murray'
p360
I6300
sS'Eddie Lacy'
p361
I6100
sS'Isaiah Crowell'
p362
I4700
sS'John Kuhn'
p363
I3000
sS'Darius Jackson'
p364
I3000
sS'Todd Gurley'
p365
I7100
sS'Terron Ward'
p366
I3000
sS'Duke Johnson'
p367
I4200
sS'Adrian Peterson'
p368
I6700
sS'Giovani Bernard'
p369
I4300
sS'James White'
p370
I4200
sS'LeSean McCoy'
p371
I6500
sS'Terrance West'
p372
I3500
sS'Andre Ellington'
p373
I3600
sS'Alfred Morris'
p374
I3700
sS'Mark Ingram'
p375
I5900
sS'Chase Reynolds'
p376
I3000
sS'Rod Smith'
p377
I3000
sS'Benny Cunningham'
p378
I3400
sS'Jay Ajayi'
p379
I4000
sS'Derek Watt'
p380
I3000
sS'Isaiah Pead'
p381
I3000
sS'Doug Martin'
p382
I5700
sS'David Johnson'
p383
I7700
sS'Rex Burkhead'
p384
I3000
sS'Ryan Mathews'
p385
I5800
sS'Jonathan Stewart'
p386
I4800
sS'Damien Williams'
p387
I3000
sS'Tim Hightower'
p388
I3300
sS'Brandon Bolden'
p389
I3000
sS'Jeremy Langford'
p390
I5200
sS'Daryl Richardson'
p391
I3000
sS'Knile Davis'
p392
I3000
sS'Anthony Sherman'
p393
I3000
sS'Troymaine Pope'
p394
I3000
sS'Patrick DiMarco'
p395
I3000
sS'Peyton Barber'
p396
I3000
sS'Aaron Ripkowski'
p397
I3000
sS'Carlos Hyde'
p398
I4400
sS'Orleans Darkwa'
p399
I3000
sS'Kenjon Barner'
p400
I3000
sS'Arian Foster'
p401
I5500
sS'Jordan Todman'
p402
I3000
sS'Latavius Murray'
p403
I5700
sS'Cameron Artis-Payne'
p404
I3000
sS'DuJuan Harris'
p405
I3000
sS'Shane Vereen'
p406
I3700
sS'C.J. Prosise'
p407
I3300
sS'Josh Ferguson'
p408
I3000
sS'Spencer Ware'
p409
I5700
sS'Justin Forsett'
p410
I3900
sS'Paul Lasike'
p411
I3000
sS'Chris Thompson'
p412
I3400
sS'Jacquizz Rodgers'
p413
I3000
sS'Charcandrick West'
p414
I3500
sS'Mike Davis'
p415
I3000
sS'Kyle Juszczyk'
p416
I3000
sS'Jordan Howard'
p417
I3300
sS'Travaris Cadet'
p418
I3100
sS"Ka'Deem Carey"
p419
I3100
sS'Devonta Freeman'
p420
I5800
sS'Alfred Blue'
p421
I3400
sS'Kenneth Farrow'
p422
I3000
sS'Jonathan Williams'
p423
I3000
sS'Mike Gillislee'
p424
I3300
sS'Malcolm Johnson'
p425
I3000
sS'Bilal Powell'
p426
I3400
sS'Jerome Felton'
p427
I3000
sS'Matt Jones'
p428
I4100
sS'Dwayne Washington'
p429
I3600
sS'Lamar Miller'
p430
I7200
sS'Javorius Allen'
p431
I3000
sS'DeAndre Washington'
p432
I3400
sS'Jay Prosch'
p433
I3000
sS'Andre Williams'
p434
I3000
sS'Marcus Murphy'
p435
I3000
sS'Matt Asiata'
p436
I3000
sS'Robert Turbin'
p437
I3000
sS'James Develin'
p438
I3000
sS'Zach Line'
p439
I3000
sS'Thomas Rawls'
p440
I5500
sS'Jamize Olawale'
p441
I3000
ssS'TE'
p442
(dp443
S'Will Tye'
p444
I2600
sS'Lee Smith'
p445
I2500
sS'Maxx Williams'
p446
I2500
sS'Brent Celek'
p447
I2800
sS'Jason Witten'
p448
I4300
sS'Greg Scruggs'
p449
I2500
sS'Neal Sterling'
p450
I2500
sS'Levine Toilolo'
p451
I2500
sS'Ben Koyack'
p452
I2500
sS'Clay Harbor'
p453
I2500
sS'Larry Donnell'
p454
I2700
sS'Garrett Celek'
p455
I2500
sS'John Phillips'
p456
I2500
sS'Logan Paulsen'
p457
I2500
sS'Jordan Reed'
p458
I6500
sS'Mychal Rivera'
p459
I2500
sS'Marcedes Lewis'
p460
I2500
sS'Hunter Henry'
p461
I2500
sS'Trey Burton'
p462
I2500
sS'Jermaine Gresham'
p463
I2500
sS'Cory Harkey'
p464
I2500
sS'Tyler Higbee'
p465
I2500
sS"James O'Shaughnessy"
p466
I2500
sS'Seth DeValve'
p467
I2500
sS'Erik Swoope'
p468
I2500
sS'Stephen Anderson'
p469
I2500
sS'Vance McDonald'
p470
I2900
sS'Jordan Cameron'
p471
I2900
sS'Temarrick Hemingway'
p472
I2500
sS'Clark Harris'
p473
I2500
sS'Coby Fleener'
p474
I3300
sS'Gary Barnidge'
p475
I4000
sS'Cameron Brate'
p476
I2500
sS'Beau Brinkley'
p477
I2500
sS'Jared Cook'
p478
I2900
sS'Kyle Rudolph'
p479
I3100
sS'Dennis Pitta'
p480
I3400
sS'Kyle Nelson'
p481
I2500
sS'Nick Vannett'
p482
I2500
sS'Zach Ertz'
p483
I3900
sS'Anthony Fasano'
p484
I2500
sS'Phillip Supernaw'
p485
I2500
sS'Orson Charles'
p486
I2500
sS'Richard Rodgers'
p487
I2700
sS'Patrick Scales'
p488
I2500
sS'Darren Fells'
p489
I2500
sS'Martellus Bennett'
p490
I4700
sS'Khari Lee'
p491
I2500
sS'MyCole Pruitt'
p492
I2500
sS'Rob Gronkowski'
p493
I6800
sS'Luke Stocker'
p494
I2500
sS'Chris Manhertz'
p495
I2500
sS'MarQueis Gray'
p496
I2500
sS"Nick O'Leary"
p497
I2500
sS'Demetrius Harris'
p498
I2500
sS'James Winchester'
p499
I2500
sS'Clive Walford'
p500
I2800
sS'Jesse James'
p501
I3500
sS'Austin Hooper'
p502
I2500
sS'Troy Niklas'
p503
I2500
sS'Scott Simonson'
p504
I2500
sS'Austin Seferian-Jenkins'
p505
I2900
sS'Jace Amaro'
p506
I2500
sS'Ed Dickson'
p507
I2500
sS'Zach Miller'
p508
I2900
sS'Dwayne Allen'
p509
I3800
sS'Dion Sims'
p510
I2500
sS'Brandon Bostick'
p511
I2500
sS'A.J. Derby'
p512
I2500
sS'Ryan Griffin'
p513
I2500
sS'Gavin Escobar'
p514
I2500
sS'Jimmy Graham'
p515
I3000
sS'Antonio Gates'
p516
I4600
sS'Kellen Davis'
p517
I2500
sS'Vernon Davis'
p518
I2700
sS'David Johnson'
p519
I2500
sS'Luke Willson'
p520
I2500
sS'Blake Bell'
p521
I2500
sS'Jack Doyle'
p522
I2500
sS'David Morgan'
p523
I2500
sS'Geoff Swaim'
p524
I2500
sS'Josh Hill'
p525
I2500
sS'Julius Thomas'
p526
I4600
sS'Sean McGrath'
p527
I2500
sS'Jerell Adams'
p528
I2500
sS'Travis Kelce'
p529
I4700
sS'Tyler Kroft'
p530
I2500
sS'Crockett Gillmore'
p531
I2500
sS'Brandon Myers'
p532
I2500
sS'Charles Clay'
p533
I2900
sS'Jim Dray'
p534
I2500
sS'Joshua Perkins'
p535
I2500
sS'C.J. Uzomah'
p536
I2500
sS'Greg Olsen'
p537
I5800
sS'Rhett Ellison'
p538
I2500
sS'Justin Perillo'
p539
I2500
sS'Eric Ebron'
p540
I3700
sS'Delanie Walker'
p541
I5000
sS'Kevin McDermott'
p542
I2500
sS'Tyler Eifert'
p543
I4500
sS'Ryan Hewitt'
p544
I2500
sS'C.J. Fiedorowicz'
p545
I2500
sS'Randall Telfer'
p546
I2500
sS'Jeff Heuerman'
p547
I2500
sS'Xavier Grimble'
p548
I2500
sS'Andrew DePaola'
p549
I2500
sS'Jacob Tamme'
p550
I3200
sS'Lance Kendricks'
p551
I2700
sS'Ross Travis'
p552
I2500
sS'Virgil Green'
p553
I3000
sS'Andrew Quarless'
p554
I2500
sS'Cole Wick'
p555
I2500
sS'Brandon Williams'
p556
I2500
sS'Niles Paul'
p557
I2500
sssI4
(dp558
S'DST'
p559
(dp560
S'Broncos'
p561
I3700
sS'Vikings'
p562
I3600
sS'Bears'
p563
I2500
sS'Falcons'
p564
I2400
sS'Saints'
p565
I2000
sS'Chargers'
p566
I2300
sS'Raiders'
p567
I2700
sS'Lions'
p568
I3100
sS'Browns'
p569
I2500
sS'Steelers'
p570
I2800
sS'Giants'
p571
I2900
sS'Buccaneers'
p572
I2600
sS'Cardinals'
p573
I3900
sS'Bengals'
p574
I3200
sS'Chiefs'
p575
I3000
sS'Jaguars'
p576
I2400
sS'Seahawks'
p577
I3800
sS'Jets'
p578
I2800
sS'Ravens'
p579
I2400
sS'Colts'
p580
I2200
sS'Dolphins'
p581
I2700
sS'Titans'
p582
I2400
sS'Rams'
p583
I2700
sS'Bills'
p584
I2600
sS'Texans'
p585
I3200
sS'49ers'
p586
I2600
sS'Patriots'
p587
I3300
sS'Cowboys'
p588
I2900
sS'Panthers'
p589
I3400
sS'Redskins'
p590
I3500
ssS'QB'
p591
(dp592
S'Ryan Tannehill'
p593
I5800
sS'Sean Mannion'
p594
I5000
sS'Josh Johnson'
p595
I5000
sS'Chad Henne'
p596
I5000
sS'AJ McCarron'
p597
I5000
sS'Luke McCown'
p598
I5000
sS'Landry Jones'
p599
I5000
sS'Colt McCoy'
p600
I5000
sS'Cam Newton'
p601
I7800
sS'Josh McCown'
p602
I5000
sS'Mark Sanchez'
p603
I5000
sS'Jared Goff'
p604
I5000
sS'Mike Glennon'
p605
I5000
sS'Nate Sudfeld'
p606
I5000
sS'Blake Bortles'
p607
I6400
sS'Connor Cook'
p608
I5000
sS'Christian Ponder'
p609
I5000
sS'Ryan Mallett'
p610
I5000
sS'Philip Rivers'
p611
I6900
sS'Jimmy Garoppolo'
p612
I5200
sS'Alex Smith'
p613
I5600
sS'Case Keenum'
p614
I5000
sS'Dan Orlovsky'
p615
I5000
sS'Matt Schaub'
p616
I5000
sS'Ryan Griffin'
p617
I5000
sS'Tyrod Taylor'
p618
I5400
sS'Matt Ryan'
p619
I7000
sS'Matt Moore'
p620
I5000
sS'Kirk Cousins'
p621
I6500
sS'Nick Foles'
p622
I5000
sS'Jeff Driskel'
p623
I5000
sS'Jameis Winston'
p624
I5400
sS'Brandon Allen'
p625
I5000
sS'Ben Roethlisberger'
p626
I7100
sS'Matt McGloin'
p627
I5000
sS'Russell Wilson'
p628
I6600
sS'Paxton Lynch'
p629
I5000
sS'Shaun Hill'
p630
I5000
sS'Matthew Stafford'
p631
I7300
sS'Andrew Luck'
p632
I7400
sS'Tyler Bray'
p633
I5000
sS'Christian Hackenberg'
p634
I5000
sS'Brandon Weeden'
p635
I5000
sS'Trevone Boykin'
p636
I5000
sS'Jay Cutler'
p637
I5300
sS'Dak Prescott'
p638
I5700
sS'Brock Osweiler'
p639
I5800
sS'Joe Webb'
p640
I5000
sS'Trevor Siemian'
p641
I5400
sS'Geno Smith'
p642
I5000
sS'Brian Hoyer'
p643
I5000
sS'Marcus Mariota'
p644
I5500
sS'Ryan Nassib'
p645
I5000
sS'Cody Kessler'
p646
I5000
sS'Jacoby Brissett'
p647
I5100
sS'Carson Palmer'
p648
I6300
sS'Sam Bradford'
p649
I5100
sS'Derek Anderson'
p650
I5000
sS'EJ Manuel'
p651
I5000
sS'Eli Manning'
p652
I6100
sS'Blaine Gabbert'
p653
I5000
sS'Andy Dalton'
p654
I6100
sS'Tony Romo'
p655
I6000
sS'Matt Cassel'
p656
I5000
sS'Austin Davis'
p657
I5000
sS'Derek Carr'
p658
I6700
sS'Colin Kaepernick'
p659
I5000
sS'Ryan Fitzpatrick'
p660
I5300
sS'Kellen Clemens'
p661
I5000
sS'Joe Flacco'
p662
I5900
sS'Drew Stanton'
p663
I5000
sS'Zach Mettenberger'
p664
I5000
sS'Drew Brees'
p665
I7600
sS'Cardale Jones'
p666
I5000
sS'Bryce Petty'
p667
I5000
sS'Matt Barkley'
p668
I5000
sS'Scott Tolzien'
p669
I5000
sS'Tom Savage'
p670
I5000
sS'Charlie Whitehurst'
p671
I5000
ssS'WR'
p672
(dp673
S'Tyler Lockett'
p674
I3900
sS'Chester Rogers'
p675
I3000
sS'Deonte Thompson'
p676
I3000
sS'Andre Holmes'
p677
I3000
sS'Dwayne Harris'
p678
I3000
sS'Lucky Whitehead'
p679
I3000
sS'Golden Tate'
p680
I5800
sS'Charone Peake'
p681
I3000
sS'Tajae Sharpe'
p682
I5000
sS'Anquan Boldin'
p683
I4200
sS'Kenny Stills'
p684
I3500
sS'Brandon Coleman'
p685
I3000
sS'Kendall Wright'
p686
I3000
sS'DeSean Jackson'
p687
I6200
sS'Jamison Crowder'
p688
I4200
sS'Tavon Austin'
p689
I4000
sS'Markus Wheaton'
p690
I4100
sS'Amari Cooper'
p691
I7600
sS'Jordan Taylor'
p692
I3000
sS'Josh Doctson'
p693
I3000
sS'Justin Hardy'
p694
I3000
sS'Albert Wilson'
p695
I3000
sS'Sterling Shepard'
p696
I5800
sS'Doug Baldwin'
p697
I6100
sS'Justin Hunter'
p698
I3000
sS'Jarvis Landry'
p699
I6900
sS'Danny Amendola'
p700
I3600
sS'Travis Benjamin'
p701
I5900
sS'Allen Robinson'
p702
I8000
sS'Mohamed Sanu'
p703
I5700
sS'Harry Douglas'
p704
I3000
sS'Quan Bray'
p705
I3000
sS'Mike Thomas'
p706
I3000
sS'Griff Whalen'
p707
I3000
sS'Jeremy Maclin'
p708
I6000
sS'Adam Humphries'
p709
I3000
sS'Bradley Marquez'
p710
I3000
sS'Chris Moore'
p711
I3000
sS'Laquon Treadwell'
p712
I3000
sS'Cody Latimer'
p713
I3000
sS'Brandon Tate'
p714
I3000
sS'Eric Weems'
p715
I3000
sS'Kevin White'
p716
I3400
sS'Marquise Goodwin'
p717
I3000
sS'Julian Edelman'
p718
I5800
sS'Tanner McEvoy'
p719
I3000
sS'Ted Ginn'
p720
I3700
sS'Malcolm Mitchell'
p721
I3000
sS'Andre Roberts'
p722
I3000
sS'Breshad Perriman'
p723
I3000
sS'Jermaine Kearse'
p724
I3200
sS'Allen Hurns'
p725
I4800
sS'Phillip Dorsett'
p726
I4700
sS'Sammy Watkins'
p727
I5400
sS'Jalin Marshall'
p728
I3000
sS'Braxton Miller'
p729
I3000
sS'Demaryius Thomas'
p730
I6700
sS"De'Anthony Thomas"
p731
I3000
sS'Tyreek Hill'
p732
I3000
sS'Will Fuller'
p733
I5300
sS'Rishard Matthews'
p734
I3100
sS'Marqise Lee'
p735
I3100
sS'Jaron Brown'
p736
I3300
sS'Devin Funchess'
p737
I3600
sS'Tommylee Lewis'
p738
I3000
sS'Brandin Cooks'
p739
I7400
sS'Ryan Grant'
p740
I3000
sS'Damiere Byrd'
p741
I3000
sS'Rashad Greene'
p742
I3000
sS'Darrius Heyward-Bey'
p743
I3000
sS'Terrelle Pryor'
p744
I4300
sS'Alex Erickson'
p745
I3000
sS'Michael Thomas'
p746
I3800
sS'Andrew Hawkins'
p747
I3000
sS'Paul Richardson'
p748
I3000
sS'Rashad Ross'
p749
I3000
sS'James Wright'
p750
I3000
sS'Sammie Coates'
p751
I3600
sS'Charles Johnson'
p752
I3000
sS'Michael Crabtree'
p753
I6400
sS'Terrance Williams'
p754
I3100
sS'Eric Decker'
p755
I6300
sS'Arrelious Benn'
p756
I3000
sS'Aldrick Robinson'
p757
I3000
sS'Keith Mumphery'
p758
I3000
sS'Matthew Slater'
p759
I3000
sS'Chris Conley'
p760
I3000
sS'Jaelen Strong'
p761
I3100
sS'J.J. Nelson'
p762
I3000
sS'Jarius Wright'
p763
I3000
sS'Seth Roberts'
p764
I3500
sS'Brandon LaFell'
p765
I3200
sS'Pharoh Cooper'
p766
I3000
sS'Devin Street'
p767
I3000
sS'Cameron Meredith'
p768
I3000
sS'Rod Streater'
p769
I3000
sS'A.J. Green'
p770
I8500
sS'Bennie Fowler'
p771
I3000
sS'Robert Woods'
p772
I3400
sS'Vincent Jackson'
p773
I3400
sS'Julio Jones'
p774
I9200
sS'Kelvin Benjamin'
p775
I7100
sS'Antonio Brown'
p776
I9700
sS'Cole Beasley'
p777
I3900
sS'Cody Core'
p778
I3000
sS'Corey Coleman'
p779
I4800
sS'Cecil Shorts'
p780
I3000
sS'Mike Evans'
p781
I6500
sS'Russell Shepard'
p782
I3000
sS'Eddie Royal'
p783
I3500
sS'Willie Snead'
p784
I6600
sS'Nelson Spruce'
p785
I3000
sS'DeVante Parker'
p786
I5200
sS'Adam Thielen'
p787
I3100
sS'DeAndre Hopkins'
p788
I8400
sS'Demarcus Robinson'
p789
I3000
sS'Victor Cruz'
p790
I4600
sS'Joshua Bellamy'
p791
I3000
sS'Jeremy Kerley'
p792
I3400
sS'Greg Salas'
p793
I3000
sS'Emmanuel Sanders'
p794
I6400
sS'Kenny Britt'
p795
I3900
sS'Odell Beckham'
p796
I8700
sS'Cordarrelle Patterson'
p797
I3000
sS'Jordan Norwood'
p798
I3000
sS'Tavarres King'
p799
I3000
sS'Dontrelle Inman'
p800
I3300
sS'Brian Quick'
p801
I3000
sS'Steve Smith'
p802
I4500
sS'Johnny Holton'
p803
I3000
sS'T.Y. Hilton'
p804
I7000
sS'John Brown'
p805
I4300
sS'Jordan Payton'
p806
I3000
sS'Jakeem Grant'
p807
I3000
sS'Quincy Enunwa'
p808
I4400
sS'Taylor Gabriel'
p809
I3000
sS'Marc Mariani'
p810
I3000
sS'Mike Wallace'
p811
I5200
sS'Torrey Smith'
p812
I3900
sS'Corey Brown'
p813
I3000
sS'Roger Lewis'
p814
I3000
sS'Michael Floyd'
p815
I5100
sS'Quinton Patton'
p816
I3000
sS'Freddie Martino'
p817
I3000
sS'Walt Powell'
p818
I3000
sS'Tyler Boyd'
p819
I3400
sS'Rashard Higgins'
p820
I3000
sS'Brice Butler'
p821
I3000
sS'Andre Johnson'
p822
I3200
sS'Alshon Jeffery'
p823
I7500
sS'Brandon Marshall'
p824
I7000
sS'Kamar Aiken'
p825
I3000
sS'Robby Anderson'
p826
I3000
sS'Stefon Diggs'
p827
I6100
sS'Larry Fitzgerald'
p828
I7200
sS'Devin Hester'
p829
I3000
sS'Brenton Bersin'
p830
I3000
sS'Ricardo Louis'
p831
I3000
sS'Marvin Jones'
p832
I7300
sS'Pierre Garcon'
p833
I4000
sS'Chris Hogan'
p834
I3700
sS'Donte Moncrief'
p835
I6200
sS'Leonte Carroo'
p836
I3000
sS'Dez Bryant'
p837
I7900
sS'Tyrell Williams'
p838
I4400
sS'Aaron Burbridge'
p839
I3000
sS'Eli Rogers'
p840
I3500
ssS'RB'
p841
(dp842
S'Taiwan Jones'
p843
I3000
sS'Frank Gore'
p844
I5200
sS'Jay Ajayi'
p845
I4000
sS'Charles Sims'
p846
I5600
sS'Jerick McKinnon'
p847
I3900
sS'Terrance West'
p848
I3400
sS'Jalston Fowler'
p849
I3000
sS'Andre Ellington'
p850
I3200
sS'D.J. Foster'
p851
I3000
sS'Fozzy Whittaker'
p852
I3900
sS'Daniel Lasco'
p853
I3000
sS'Kenneth Dixon'
p854
I3300
sS'Tyler Ervin'
p855
I3000
sS'Alex Collins'
p856
I3000
sS'Theo Riddick'
p857
I5200
sS'Corey Grant'
p858
I3000
sS'Malcolm Brown'
p859
I3000
sS'Dexter McCluster'
p860
I3500
sS'Christine Michael'
p861
I6000
sS'Rashad Jennings'
p862
I4700
sS'Jeremy Hill'
p863
I4100
sS'LeSean McCoy'
p864
I6700
sS'Tevin Coleman'
p865
I4500
sS'Shaun Draughn'
p866
I3300
sS'Mike Tolbert'
p867
I3000
sS'Jonathan Grimes'
p868
I3000
sS'Paul Perkins'
p869
I3000
sS'Roosevelt Nix'
p870
I3000
sS'Reggie Bush'
p871
I3000
sS'Devontae Booker'
p872
I3000
sS'Jamaal Charles'
p873
I5400
sS'C.J. Anderson'
p874
I6500
sS'Denard Robinson'
p875
I3000
sS'Derrick Henry'
p876
I3500
sS'Fitzgerald Toussaint'
p877
I3000
sS'Michael Burton'
p878
I3000
sS'Bobby Rainey'
p879
I3000
sS'Melvin Gordon'
p880
I6300
sS'George Atkinson'
p881
I3000
sS'Kenneth Farrow'
p882
I3000
sS'DeAngelo Williams'
p883
I6200
sS'Stepfan Taylor'
p884
I3000
sS'Zach Zenner'
p885
I3000
sS'Kapri Bibbs'
p886
I3000
sS'Chris Johnson'
p887
I3400
sS'LeGarrette Blount'
p888
I5000
sS'Rob Kelley'
p889
I3400
sS'Lance Dunbar'
p890
I3000
sS'Andy Janovich'
p891
I3000
sS'Antonio Andrews'
p892
I3000
sS'Keith Smith'
p893
I3000
sS'Chris Ivory'
p894
I3700
sS'DeMarco Murray'
p895
I6800
sS"Le'Veon Bell"
p896
I7500
sS'Isaiah Crowell'
p897
I4400
sS'John Kuhn'
p898
I3000
sS'Darius Jackson'
p899
I3000
sS'Todd Gurley'
p900
I6700
sS'Duke Johnson'
p901
I4000
sS'Terrence Magee'
p902
I3000
sS'C.J. Prosise'
p903
I3100
sS'Giovani Bernard'
p904
I4700
sS'James White'
p905
I3600
sS'T.J. Yeldon'
p906
I4600
sS'Bilal Powell'
p907
I3300
sS'Alfred Morris'
p908
I3900
sS'Mark Ingram'
p909
I5900
sS'Chase Reynolds'
p910
I3000
sS'Rod Smith'
p911
I3000
sS'Raheem Mostert'
p912
I3000
sS'Benny Cunningham'
p913
I3200
sS'Kenyan Drake'
p914
I3600
sS'Marcel Reece'
p915
I3000
sS'Derek Watt'
p916
I3000
sS'Isaiah Pead'
p917
I3000
sS'Doug Martin'
p918
I5300
sS'David Johnson'
p919
I7800
sS'Rex Burkhead'
p920
I3000
sS'Jonathan Stewart'
p921
I4800
sS'Damien Williams'
p922
I3000
sS'Tim Hightower'
p923
I3300
sS'Brandon Bolden'
p924
I3000
sS'Jeremy Langford'
p925
I4800
sS'Daryl Richardson'
p926
I3000
sS'Knile Davis'
p927
I3000
sS'Anthony Sherman'
p928
I3000
sS'Troymaine Pope'
p929
I3000
sS'Patrick DiMarco'
p930
I3000
sS'Peyton Barber'
p931
I3000
sS'Carlos Hyde'
p932
I4200
sS'Orleans Darkwa'
p933
I3000
sS'Arian Foster'
p934
I5300
sS'Jordan Todman'
p935
I3000
sS'Latavius Murray'
p936
I4900
sS'Cameron Artis-Payne'
p937
I3400
sS'DuJuan Harris'
p938
I3000
sS'Shane Vereen'
p939
I4300
sS'Josh Ferguson'
p940
I3000
sS'Spencer Ware'
p941
I5700
sS'Javorius Allen'
p942
I3000
sS'Justin Forsett'
p943
I3800
sS'Chris Thompson'
p944
I3400
sS'Jacquizz Rodgers'
p945
I3000
sS'Charcandrick West'
p946
I3400
sS'Mike Davis'
p947
I3000
sS'Ronnie Hillman'
p948
I3000
sS'Kyle Juszczyk'
p949
I3000
sS'Jordan Howard'
p950
I3700
sS'Travaris Cadet'
p951
I3100
sS"Ka'Deem Carey"
p952
I3100
sS'Devonta Freeman'
p953
I5500
sS'Alfred Blue'
p954
I3100
sS'Matt Forte'
p955
I6600
sS'Jonathan Williams'
p956
I3000
sS'Mike Gillislee'
p957
I3000
sS'Malcolm Johnson'
p958
I3000
sS'Jalen Richard'
p959
I3400
sS'Jerome Felton'
p960
I3000
sS'Matt Jones'
p961
I4300
sS'Dwayne Washington'
p962
I3800
sS'Lamar Miller'
p963
I7000
sS'Ezekiel Elliott'
p964
I6900
sS'DeAndre Washington'
p965
I3300
sS'Jay Prosch'
p966
I3000
sS'Marcus Murphy'
p967
I3000
sS'Matt Asiata'
p968
I3300
sS'Robert Turbin'
p969
I3000
sS'James Develin'
p970
I3000
sS'Zach Line'
p971
I3000
sS'Thomas Rawls'
p972
I4900
sS'Jamize Olawale'
p973
I3000
ssS'TE'
p974
(dp975
S'Will Tye'
p976
I2600
sS'Lee Smith'
p977
I2500
sS'Maxx Williams'
p978
I2500
sS'Jason Witten'
p979
I4500
sS'Greg Scruggs'
p980
I2500
sS'Neal Sterling'
p981
I2500
sS'Levine Toilolo'
p982
I2500
sS'Ben Koyack'
p983
I2500
sS'Clay Harbor'
p984
I2500
sS'Scott Simonson'
p985
I2500
sS'Garrett Celek'
p986
I2500
sS'Seth DeValve'
p987
I2500
sS'Geoff Swaim'
p988
I2500
sS'Logan Paulsen'
p989
I2500
sS'Jordan Reed'
p990
I6300
sS'Alan Cross'
p991
I2500
sS'Mychal Rivera'
p992
I2500
sS'Marcedes Lewis'
p993
I2500
sS'Hunter Henry'
p994
I2700
sS'Jermaine Gresham'
p995
I2500
sS'Cory Harkey'
p996
I2500
sS'Tyler Higbee'
p997
I2500
sS"James O'Shaughnessy"
p998
I2500
sS'Erik Swoope'
p999
I2500
sS'Stephen Anderson'
p1000
I2500
sS'Blake Bell'
p1001
I2500
sS'Vance McDonald'
p1002
I2700
sS'Jordan Cameron'
p1003
I2900
sS'Temarrick Hemingway'
p1004
I2500
sS'Clark Harris'
p1005
I2500
sS'Coby Fleener'
p1006
I3200
sS'Braedon Bowman'
p1007
I2500
sS'Gary Barnidge'
p1008
I3600
sS'Cameron Brate'
p1009
I2800
sS'Beau Brinkley'
p1010
I2500
sS'Kyle Rudolph'
p1011
I3400
sS'Dennis Pitta'
p1012
I3900
sS'Kyle Nelson'
p1013
I2500
sS'Nick Vannett'
p1014
I2500
sS'Anthony Fasano'
p1015
I2500
sS'Phillip Supernaw'
p1016
I2500
sS'Orson Charles'
p1017
I2500
sS'Patrick Scales'
p1018
I2500
sS'Darren Fells'
p1019
I2500
sS'Martellus Bennett'
p1020
I3500
sS'Khari Lee'
p1021
I2500
sS'MyCole Pruitt'
p1022
I2500
sS'Rob Gronkowski'
p1023
I6500
sS'Luke Stocker'
p1024
I2500
sS'Chris Manhertz'
p1025
I2500
sS'MarQueis Gray'
p1026
I2500
sS"Nick O'Leary"
p1027
I2500
sS'Demetrius Harris'
p1028
I2500
sS'James Winchester'
p1029
I2500
sS'Clive Walford'
p1030
I2700
sS'Jesse James'
p1031
I3100
sS'Austin Hooper'
p1032
I2500
sS'Troy Niklas'
p1033
I2500
sS'Larry Donnell'
p1034
I2600
sS'Jace Amaro'
p1035
I2600
sS'Ed Dickson'
p1036
I2500
sS'Zach Miller'
p1037
I2700
sS'Dwayne Allen'
p1038
I3800
sS'Dion Sims'
p1039
I2500
sS'Brandon Bostick'
p1040
I2500
sS'A.J. Derby'
p1041
I2500
sS'Ryan Griffin'
p1042
I2600
sS'Gavin Escobar'
p1043
I2500
sS'Jimmy Graham'
p1044
I4000
sS'Antonio Gates'
p1045
I4600
sS'Kellen Davis'
p1046
I2500
sS'Vernon Davis'
p1047
I2500
sS'David Johnson'
p1048
I2500
sS'Ross Travis'
p1049
I2500
sS'Joshua Perkins'
p1050
I2500
sS'Jack Doyle'
p1051
I2500
sS'David Morgan'
p1052
I2500
sS'John Phillips'
p1053
I2500
sS'Josh Hill'
p1054
I2500
sS'Julius Thomas'
p1055
I4400
sS'Sean McGrath'
p1056
I2500
sS'Jerell Adams'
p1057
I2500
sS'Travis Kelce'
p1058
I4800
sS'Tyler Kroft'
p1059
I2500
sS'Crockett Gillmore'
p1060
I2500
sS'Brandon Myers'
p1061
I2500
sS'Charles Clay'
p1062
I2600
sS'Jim Dray'
p1063
I2500
sS'C.J. Uzomah'
p1064
I2500
sS'Greg Olsen'
p1065
I6000
sS'Rhett Ellison'
p1066
I2500
sS'Eric Ebron'
p1067
I3700
sS'Delanie Walker'
p1068
I5000
sS'Kevin McDermott'
p1069
I2500
sS'Tyler Eifert'
p1070
I4500
sS'Ryan Hewitt'
p1071
I2500
sS'C.J. Fiedorowicz'
p1072
I2500
sS'Randall Telfer'
p1073
I2500
sS'Jeff Heuerman'
p1074
I2500
sS'Xavier Grimble'
p1075
I2500
sS'Asante Cleveland'
p1076
I2500
sS'Andrew DePaola'
p1077
I2500
sS'Jacob Tamme'
p1078
I3400
sS'Lance Kendricks'
p1079
I2600
sS'Luke Willson'
p1080
I2500
sS'Virgil Green'
p1081
I3000
sS'Cole Wick'
p1082
I2500
sS'Brandon Williams'
p1083
I2500
sS'Niles Paul'
p1084
I2500
sss.