(dp0
I1
(dp1
S'DST'
p2
(dp3
S'Broncos'
p4
I3700
sS'Vikings'
p5
I3100
sS'Bears'
p6
I2500
sS'Falcons'
p7
I2800
sS'Saints'
p8
I2300
sS'Chargers'
p9
I2500
sS'Raiders'
p10
I2400
sS'Lions'
p11
I2500
sS'Browns'
p12
I2300
sS'Eagles'
p13
I3300
sS'Steelers'
p14
I2900
sS'Giants'
p15
I2700
sS'Buccaneers'
p16
I2600
sS'Cardinals'
p17
I3500
sS'Bengals'
p18
I3000
sS'Chiefs'
p19
I3600
sS'Jaguars'
p20
I2400
sS'Seahawks'
p21
I3900
sS'Jets'
p22
I3400
sS'Ravens'
p23
I2700
sS'Colts'
p24
I2700
sS'Packers'
p25
I2800
sS'Dolphins'
p26
I2200
sS'Rams'
p27
I3800
sS'Bills'
p28
I2900
sS'Panthers'
p29
I3800
sS'Texans'
p30
I3200
sS'49ers'
p31
I3100
sS'Patriots'
p32
I2900
sS'Cowboys'
p33
I2500
sS'Titans'
p34
I2600
sS'Redskins'
p35
I2700
ssS'QB'
p36
(dp37
S'Jake Heaps'
p38
I5000
sS'Carson Wentz'
p39
I5000
sS'Christian Hackenberg'
p40
I5000
sS'Cody Kessler'
p41
I5000
sS'Derek Anderson'
p42
I5000
sS'Taylor Heinicke'
p43
I5000
sS'Christian Ponder'
p44
I5000
sS'Jeff Driskel'
p45
I5000
sS'Logan Thomas'
p46
I5000
sS'Austin Davis'
p47
I5000
sS'Aaron Rodgers'
p48
I8500
sS'Colt McCoy'
p49
I5000
sS'Matt Moore'
p50
I5000
sS'Brock Osweiler'
p51
I6300
sS'Brian Hoyer'
p52
I5000
sS'Marcus Mariota'
p53
I6400
sS'Bruce Gradkowski'
p54
I5000
sS'Joel Stave'
p55
I5000
sS'Carson Palmer'
p56
I7100
sS'Ben Roethlisberger'
p57
I7800
sS'Blaine Gabbert'
p58
I5200
sS'Tony Romo'
p59
I6800
sS'Derek Carr'
p60
I7300
sS'Matt Simms'
p61
I5000
sS'Joe Licata'
p62
I5000
sS'Connor Shaw'
p63
I5000
sS'David Fales'
p64
I5000
sS'Ryan Griffin'
p65
I5000
sS'Cam Newton'
p66
I7700
sS'Zach Mettenberger'
p67
I5000
sS'Ryan Mallett'
p68
I5000
sS'Dan Orlovsky'
p69
I5000
sS'Matt Schaub'
p70
I5000
sS'Landry Jones'
p71
I5000
sS'Jameis Winston'
p72
I6600
sS'Brandon Allen'
p73
I5000
sS'Bryn Renner'
p74
I5000
sS'Scott Tolzien'
p75
I5000
sS'Jay Cutler'
p76
I6300
sS'Joe Webb'
p77
I5000
sS'Nick Foles'
p78
I5000
sS'Ryan Nassib'
p79
I5000
sS'Sam Bradford'
p80
I6400
sS'Joe Callahan'
p81
I5000
sS'Matt Ryan'
p82
I7100
sS'Matt McGloin'
p83
I5000
sS'Josh Johnson'
p84
I5000
sS'Matthew Stafford'
p85
I7200
sS'Keith Wenning'
p86
I5000
sS'Aaron Murray'
p87
I5000
sS'Tom Brady'
p88
I7400
sS'Mike Glennon'
p89
I5000
sS'Teddy Bridgewater'
p90
I6000
sS'Robert Griffin'
p91
I5600
sS'Luke McCown'
p92
I5000
sS'EJ Manuel'
p93
I5000
sS'Tyrod Taylor'
p94
I6900
sS'Eli Manning'
p95
I7500
sS'Kirk Cousins'
p96
I7400
sS'Nate Sudfeld'
p97
I5000
sS'Shaun Hill'
p98
I5000
sS'Tom Savage'
p99
I5000
sS'Connor Cook'
p100
I5000
sS'Trevone Boykin'
p101
I5000
sS'Marquise Williams'
p102
I5000
sS'Zac Dysert'
p103
I5000
sS'McLeod Bethel-Thompson'
p104
I5000
sS'Jared Goff'
p105
I5000
sS'Jake Coker'
p106
I5000
sS'Case Keenum'
p107
I5400
sS'Mark Sanchez'
p108
I5000
sS'Andy Dalton'
p109
I6800
sS'Ryan Fitzpatrick'
p110
I6500
sS'Max Wittek'
p111
I5000
sS'Mike Bercovici'
p112
I5000
sS'Drew Brees'
p113
I8100
sS'Jake Rudock'
p114
I5000
sS'Jerrod Johnson'
p115
I5000
sS'Ryan Tannehill'
p116
I5900
sS'Chad Henne'
p117
I5000
sS'AJ McCarron'
p118
I5000
sS'Brandon Doughty'
p119
I5000
sS'Josh McCown'
p120
I5000
sS'Blake Bortles'
p121
I7200
sS'Brandon Weeden'
p122
I5000
sS'Sean Renfree'
p123
I5000
sS'Joe Flacco'
p124
I6700
sS'Jimmy Garoppolo'
p125
I6200
sS'Alex Smith'
p126
I6500
sS'Brett Hundley'
p127
I5000
sS'Colin Kaepernick'
p128
I5000
sS'Russell Wilson'
p129
I7900
sS'Sean Mannion'
p130
I5000
sS'Andrew Luck'
p131
I8300
sS'Tyler Bray'
p132
I5000
sS'Dak Prescott'
p133
I5000
sS'Paxton Lynch'
p134
I5000
sS'Trevor Siemian'
p135
I5200
sS'Geno Smith'
p136
I5000
sS'Matt Cassel'
p137
I5000
sS'Jameill Showers'
p138
I5000
sS'Jacoby Brissett'
p139
I5000
sS'Stephen Morris'
p140
I5000
sS'Kevin Hogan'
p141
I5000
sS'Alex Tanney'
p142
I5000
sS'Kellen Moore'
p143
I5000
sS'Philip Rivers'
p144
I7000
sS'Drew Stanton'
p145
I5000
sS'Cardale Jones'
p146
I5000
sS'Bryce Petty'
p147
I5000
sS'Matt Barkley'
p148
I5000
sS'Chase Daniel'
p149
I5000
sS'Garrett Grayson'
p150
I5000
sS'Kellen Clemens'
p151
I5000
ssS'WR'
p152
(dp153
S'Tyler Lockett'
p154
I5000
sS'Tony Washington'
p155
I3000
sS'Deonte Thompson'
p156
I3000
sS'Dobson Collins'
p157
I3000
sS'Golden Tate'
p158
I7300
sS'Josh Boyce'
p159
I3000
sS'Wendall Williams'
p160
I3000
sS'Andy Jones'
p161
I3000
sS'Jeremy Ross'
p162
I3000
sS'DeAndrew White'
p163
I3000
sS'Brandon Coleman'
p164
I3000
sS'Dorial Green-Beckham'
p165
I4500
sS'Tavon Austin'
p166
I5000
sS'Odell Beckham'
p167
I9300
sS'Dominique Williams'
p168
I3000
sS'Josh Doctson'
p169
I3000
sS'Pierre Garcon'
p170
I4400
sS'Javontee Herndon'
p171
I3000
sS'Joe Hansley'
p172
I3000
sS'Quan Bray'
p173
I3000
sS'Mike Thomas'
p174
I3000
sS'Griff Whalen'
p175
I3000
sS'James Jones'
p176
I3500
sS'Anthony Dable'
p177
I3000
sS'Moritz Boehringer'
p178
I3000
sS'Brandon Shippen'
p179
I3000
sS'Kevin Smith'
p180
I3000
sS'Victor Cruz'
p181
I4000
sS'Laquon Treadwell'
p182
I4500
sS'Max McCaffrey'
p183
I3000
sS'Tevaun Smith'
p184
I3000
sS'DeAndre Reaves'
p185
I3000
sS'Andre Caldwell'
p186
I3000
sS'Marquise Goodwin'
p187
I3000
sS'Herb Waters'
p188
I3000
sS'Malcolm Mitchell'
p189
I3000
sS'Breshad Perriman'
p190
I3700
sS'Jermaine Kearse'
p191
I3500
sS'Phillip Dorsett'
p192
I4500
sS'Sammy Watkins'
p193
I6900
sS'Damian Copeland'
p194
I3000
sS'Davante Adams'
p195
I4300
sS'Devin Fuller'
p196
I3000
sS'Terrelle Pryor'
p197
I3000
sS'Paul Richardson'
p198
I3000
sS'James Wright'
p199
I3000
sS'Tevin Jones'
p200
I3000
sS'Dontrelle Inman'
p201
I3400
sS'Jaydon Mickens'
p202
I3000
sS'Harvey Binford'
p203
I3000
sS'Keith Mumphery'
p204
I3000
sS'Chris Conley'
p205
I3700
sS'Chris Harper'
p206
I3000
sS'Jaelen Strong'
p207
I3800
sS'DeAndre Smelter'
p208
I3000
sS'Brandon LaFell'
p209
I3900
sS'Pharoh Cooper'
p210
I3600
sS'Rod Streater'
p211
I3000
sS'Stevie Johnson'
p212
I3100
sS'Jamison Crowder'
p213
I3800
sS'Robert Woods'
p214
I4600
sS'Rueben Randle'
p215
I3300
sS'Cole Beasley'
p216
I3200
sS'Cody Core'
p217
I3000
sS'Tre McBride'
p218
I3000
sS'Evan Spencer'
p219
I3000
sS'Antonio Brown'
p220
I9800
sS'Daniel Braverman'
p221
I3000
sS'Willie Snead'
p222
I4800
sS'Terrell Sinkfield'
p223
I3000
sS'Jonathan Krause'
p224
I3000
sS'Emmanuel Sanders'
p225
I5700
sS'Amir Carlisle'
p226
I3000
sS'Marquis Bundy'
p227
I3000
sS'Steve Smith'
p228
I4900
sS'Cameron Meredith'
p229
I3000
sS'Kenny Bell'
p230
I3400
sS'Quincy Enunwa'
p231
I3800
sS'Jake Kumerow'
p232
I3000
sS'Marlon Moore'
p233
I3000
sS'Corey Brown'
p234
I3000
sS'Kasen Williams'
p235
I3000
sS'Nelson Agholor'
p236
I3500
sS'Torrey Smith'
p237
I4900
sS'Walt Powell'
p238
I3000
sS'Dres Anderson'
p239
I3000
sS'Rashard Higgins'
p240
I3000
sS'Brice Butler'
p241
I3000
sS'Paul Turner'
p242
I3000
sS'Isaac Fruechte'
p243
I3000
sS'Kalif Raymond'
p244
I3000
sS'Chris Hubert'
p245
I3000
sS'Ed Williams'
p246
I3000
sS'Ed Eagan'
p247
I3000
sS'Vincent Jackson'
p248
I4400
sS'Isaiah Burse'
p249
I3000
sS'Josh Lenz'
p250
I3000
sS'Shane Wynn'
p251
I3000
sS'Chris Hogan'
p252
I3600
sS'Donte Moncrief'
p253
I6000
sS'Chester Rogers'
p254
I3000
sS'Dwayne Harris'
p255
I3600
sS'Rodney Smith'
p256
I3000
sS'Harry Douglas'
p257
I3400
sS'Bryan Walters'
p258
I3000
sS'Josh Huff'
p259
I3000
sS'Kenny Stills'
p260
I3200
sS'Daniel Anthrop'
p261
I3000
sS'Dennis Parks'
p262
I3000
sS'Albert Wilson'
p263
I3600
sS'Chris Brown'
p264
I3000
sS'Mario Alford'
p265
I3000
sS'Andre Holmes'
p266
I3200
sS'Xavier Rush'
p267
I3000
sS'Marcus Tucker'
p268
I3000
sS'Brandon Tate'
p269
I3000
sS'Ted Ginn'
p270
I4100
sS'Keyarris Garrett'
p271
I3000
sS'Ben Roberts'
p272
I3000
sS'DeAndre Carter'
p273
I3000
sS'Mitch Mathews'
p274
I3000
sS'Darrin Peterson'
p275
I3000
sS'Eli Rogers'
p276
I4200
sS'Jalin Marshall'
p277
I3000
sS'Matthew Slater'
p278
I3000
sS'Frankie Hammond'
p279
I3000
sS'Marqise Lee'
p280
I3100
sS'Jaron Brown'
p281
I3400
sS'Devin Funchess'
p282
I4800
sS'David Glidden'
p283
I3000
sS'Damiere Byrd'
p284
I3000
sS'Alex Erickson'
p285
I3000
sS'Myles White'
p286
I3000
sS'Rashad Ross'
p287
I3000
sS'Mike Williams'
p288
I3000
sS'Andrew Turzilli'
p289
I3000
sS'A.J. Green'
p290
I8400
sS'Gary Chambers'
p291
I3000
sS'Marquess Wilson'
p292
I3700
sS'Rashaun Simonise'
p293
I3000
sS'Devon Cajuste'
p294
I3000
sS'Kenbrell Thompkins'
p295
I3000
sS'Jarrett Boykin'
p296
I3000
sS'Nate Washington'
p297
I3000
sS'Ryan Whalen'
p298
I3000
sS'Jace Billingsley'
p299
I3000
sS'Cecil Shorts'
p300
I3300
sS'Franky Okafor'
p301
I3000
sS'Josh Gordon'
p302
I6800
sS'Eddie Royal'
p303
I3200
sS'Jared Abbrederis'
p304
I3300
sS'Adam Thielen'
p305
I3000
sS'Jordan Williams-Lambert'
p306
I3000
sS'Leonard Hankerson'
p307
I3300
sS'Cordarrelle Patterson'
p308
I3000
sS'Tavarres King'
p309
I3000
sS'Brian Quick'
p310
I3500
sS'Seth Roberts'
p311
I3800
sS'Rannell Hall'
p312
I3000
sS'Rashawn Scott'
p313
I3000
sS'Jordan Matthews'
p314
I6700
sS'Michael Floyd'
p315
I5900
sS'J.D. McKissic'
p316
I3000
sS'Alonzo Russell'
p317
I3000
sS'Bradley Marquez'
p318
I3000
sS'T.J. Graham'
p319
I3000
sS'Kamar Aiken'
p320
I4700
sS'Louis Murphy'
p321
I3000
sS'Vince Mayle'
p322
I3000
sS'Larry Fitzgerald'
p323
I6300
sS'Keenan Reynolds'
p324
I3000
sS'Jordan Leslie'
p325
I3000
sS'Marvin Jones'
p326
I4600
sS'Leonte Carroo'
p327
I3200
sS'Antwane Grant'
p328
I3000
sS'Corey Washington'
p329
I3000
sS'Dez Bryant'
p330
I8500
sS'Marcus Easley'
p331
I3000
sS"Da'Ron Brown"
p332
I3000
sS'Rashad Lawrence'
p333
I3000
sS'Lucky Whitehead'
p334
I3000
sS'Chris Matthews'
p335
I3000
sS'Nick Williams'
p336
I3000
sS'Charone Peake'
p337
I3000
sS'Neal Sterling'
p338
I3000
sS'Marcus Johnson'
p339
I3000
sS'Anquan Boldin'
p340
I4500
sS'Eric Decker'
p341
I6600
sS'Hunter Sharp'
p342
I3000
sS'Markus Wheaton'
p343
I5400
sS'Cobi Hamilton'
p344
I3000
sS'Russell Shepard'
p345
I3000
sS'Jarvis Landry'
p346
I6000
sS'Brenton Bersin'
p347
I3000
sS'Travis Benjamin'
p348
I4100
sS'Allen Robinson'
p349
I8300
sS'Kain Colter'
p350
I3000
sS'Darius Powe'
p351
I3000
sS'Jaxon Shipley'
p352
I3000
sS'Jeremy Maclin'
p353
I6500
sS'Adam Humphries'
p354
I3000
sS'Bryce Treggs'
p355
I3000
sS'R.J. Harris'
p356
I3000
sS'Jake Lampman'
p357
I3000
sS'Julian Edelman'
p358
I6100
sS'Tanner McEvoy'
p359
I3000
sS'Seantavius Jones'
p360
I3000
sS'Devin Lucien'
p361
I3000
sS'K.J. Brent'
p362
I3000
sS'Devin Smith'
p363
I3000
sS'Jamel Johnson'
p364
I3000
sS'Tyreek Hill'
p365
I3000
sS'Will Fuller'
p366
I3700
sS'Rishard Matthews'
p367
I3300
sS'Michael Bennett'
p368
I3000
sS'KJ Maye'
p369
I3000
sS'Brandin Cooks'
p370
I7700
sS'Ryan Grant'
p371
I3000
sS'Troy Stoudermire'
p372
I3000
sS'Rashad Greene'
p373
I3500
sS'Mekale McKay'
p374
I3000
sS'Demarcus Ayers'
p375
I3000
sS'Michael Thomas'
p376
I4000
sS'Sammie Coates'
p377
I3700
sS'Mose Frazier'
p378
I3000
sS'Terrance Williams'
p379
I3300
sS'Marvin Hall'
p380
I3000
sS'Quenton Bundrage'
p381
I3000
sS'J.J. Nelson'
p382
I3200
sS'Bernard Reedy'
p383
I3000
sS'Kendal Thompson'
p384
I3000
sS'Bennie Fowler'
p385
I3000
sS'Kelvin Benjamin'
p386
I5700
sS'Trevor Davis'
p387
I3000
sS'Jeff Janis'
p388
I3700
sS'Nelson Spruce'
p389
I3000
sS'Andre Davis'
p390
I3000
sS'Joshua Bellamy'
p391
I3000
sS'Jeremy Kerley'
p392
I3000
sS'Kenny Britt'
p393
I3900
sS'Jordan Norwood'
p394
I3000
sS'Kevin White'
p395
I5200
sS'Johnny Holton'
p396
I3000
sS'T.Y. Hilton'
p397
I7500
sS'Matt Hazel'
p398
I3000
sS'Jordan Payton'
p399
I3000
sS'Kieran Duncan'
p400
I3000
sS'Greg Little'
p401
I3000
sS'Jakeem Grant'
p402
I3000
sS'Jay Lee'
p403
I3000
sS'Taylor Gabriel'
p404
I3000
sS'Kyle Williams'
p405
I3000
sS'Marc Mariani'
p406
I3000
sS'Roger Lewis'
p407
I3000
sS'Cayleb Jones'
p408
I3000
sS'Joshua Stangby'
p409
I3000
sS'Geronimo Allison'
p410
I3000
sS'Quinton Patton'
p411
I4000
sS'Freddie Martino'
p412
I3000
sS'Tyler Boyd'
p413
I3600
sS'Dezmin Lewis'
p414
I3000
sS'Donteea Dye'
p415
I3000
sS'Andre Johnson'
p416
I3900
sS'Alshon Jeffery'
p417
I7900
sS'Brandon Marshall'
p418
I7800
sS'Keenan Allen'
p419
I8000
sS'Montario Hunter'
p420
I3000
sS'Hakeem Nicks'
p421
I3200
sS'B.J. Daniels'
p422
I3000
sS"D'haquille Williams"
p423
I3000
sS'Daniel Brown'
p424
I3000
sS'Ricardo Louis'
p425
I3000
sS'Chuck Jacobs'
p426
I3000
sS'Chandler Worthy'
p427
I3000
sS'Rasheed Bailey'
p428
I3000
sS'Tyrell Williams'
p429
I3000
sS'Aaron Burbridge'
p430
I3000
sS'Reggie Bell'
p431
I3000
sS'Jeremy Butler'
p432
I3000
sS'Quinshad Davis'
p433
I3000
sS'Ty Montgomery'
p434
I3600
sS'Tajae Sharpe'
p435
I3000
sS'T.J. Thorpe'
p436
I3000
sS'Kevin Norwood'
p437
I3000
sS'Jamal Robinson'
p438
I3000
sS'Kendall Wright'
p439
I3400
sS'DeSean Jackson'
p440
I6100
sS'Amari Cooper'
p441
I7200
sS'Austin Hill'
p442
I3000
sS'Aaron Dobson'
p443
I3000
sS'Sterling Shepard'
p444
I4900
sS'Doug Baldwin'
p445
I6600
sS'Douglas McNeil'
p446
I3000
sS'Justin Hunter'
p447
I3000
sS'Danny Amendola'
p448
I4200
sS'Mohamed Sanu'
p449
I5100
sS'Eric Weems'
p450
I3000
sS'Chris King'
p451
I3000
sS'Deshon Foxx'
p452
I3000
sS'Jared Dangerfield'
p453
I3000
sS'Andre Roberts'
p454
I3000
sS'Allen Hurns'
p455
I5800
sS'David Watford'
p456
I3000
sS'Geremy Davis'
p457
I3000
sS'Braxton Miller'
p458
I3000
sS'Corey Fuller'
p459
I3000
sS'Demaryius Thomas'
p460
I7000
sS'Marcus Leak'
p461
I3000
sS'Tommylee Lewis'
p462
I3000
sS'Kadron Boone'
p463
I3000
sS"De'Anthony Thomas"
p464
I3000
sS'Andrew Hawkins'
p465
I3800
sS'Cody Latimer'
p466
I3000
sS'Marken Michel'
p467
I3000
sS'Charles Johnson'
p468
I3000
sS'Michael Crabtree'
p469
I5500
sS'Arrelious Benn'
p470
I3000
sS'Aldrick Robinson'
p471
I3000
sS'Justin Hardy'
p472
I3100
sS'Jarius Wright'
p473
I3000
sS'Torrence Allen'
p474
I3000
sS'Devin Street'
p475
I3000
sS'Shaq Evans'
p476
I3000
sS'Keshawn Martin'
p477
I3000
sS'Darius Jennings'
p478
I3000
sS'Julio Jones'
p479
I9400
sS'A.J. Cruz'
p480
I3000
sS'Maurice Harris'
p481
I3000
sS'Corey Coleman'
p482
I5100
sS'Chris Givens'
p483
I3000
sS'Derek Keaton'
p484
I3000
sS'Andre Debose'
p485
I3000
sS'Paul McRoberts'
p486
I3000
sS'DeVante Parker'
p487
I5300
sS'DeAndre Hopkins'
p488
I8800
sS'Demarcus Robinson'
p489
I3000
sS'Chris Moore'
p490
I3000
sS'Jordan Taylor'
p491
I3000
sS'Greg Salas'
p492
I3000
sS'Randall Cobb'
p493
I7600
sS'Kaelin Clay'
p494
I3000
sS'John Brown'
p495
I5200
sS'Titus Davis'
p496
I3000
sS'Jordy Nelson'
p497
I7700
sS'Kashif Moore'
p498
I3000
sS'Nathan Palmer'
p499
I3000
sS'Mike Wallace'
p500
I4200
sS'Kenny Lawler'
p501
I3000
sS'Antwan Goodley'
p502
I3000
sS'Mike Evans'
p503
I7400
sS'Brittan Golden'
p504
I3000
sS'Michael Campanaro'
p505
I3000
sS'Robby Anderson'
p506
I3000
sS'Stefon Diggs'
p507
I4800
sS'TJ Jones'
p508
I3000
sS'Kolby Listenbee'
p509
I3000
sS'Darrius Heyward-Bey'
p510
I3600
ssS'RB'
p511
(dp512
S'Mike James'
p513
I3000
sS'Taiwan Jones'
p514
I3000
sS'Frank Gore'
p515
I5500
sS'Rashad Jennings'
p516
I5400
sS'Jerick McKinnon'
p517
I4600
sS'Trey Williams'
p518
I3000
sS'Zac Brooks'
p519
I3000
sS'Daniel Herron'
p520
I3000
sS'Kapri Bibbs'
p521
I3000
sS'Terrance West'
p522
I4100
sS'Jalston Fowler'
p523
I3000
sS'C.J. Ham'
p524
I3000
sS'Rob Kelley'
p525
I4300
sS'D.J. Foster'
p526
I3000
sS'Joey Iosefa'
p527
I3000
sS'Fozzy Whittaker'
p528
I3000
sS'Terron Ward'
p529
I3000
sS'Kenneth Dixon'
p530
I3400
sS'James Wilder'
p531
I3000
sS'Robert Hughes'
p532
I3000
sS'Tyler Ervin'
p533
I3000
sS'Alex Collins'
p534
I3100
sS'Theo Riddick'
p535
I4000
sS'Corey Grant'
p536
I3000
sS'Malcolm Brown'
p537
I3000
sS'Dreamius Smith'
p538
I3000
sS'Darren Sproles'
p539
I4200
sS'Dexter McCluster'
p540
I3000
sS'Dominique Williams'
p541
I3000
sS'Anthony Sherman'
p542
I3000
sS'Stephen Houston'
p543
I3000
sS'Alan Cross'
p544
I3000
sS'Christine Michael'
p545
I3700
sS'Tyler Gaffney'
p546
I3000
sS'Charles Sims'
p547
I4400
sS'Aaron Green'
p548
I3000
sS'Jeremy Hill'
p549
I4600
sS'Javorius Allen'
p550
I3600
sS'Jonas Gray'
p551
I3000
sS'Tevin Coleman'
p552
I4200
sS'Shaun Draughn'
p553
I3700
sS'Mike Tolbert'
p554
I3000
sS'Jonathan Grimes'
p555
I3000
sS'Paul Perkins'
p556
I3200
sS'David Cobb'
p557
I3000
sS'Reggie Bush'
p558
I3500
sS'Branden Oliver'
p559
I3000
sS'Will Johnson'
p560
I3000
sS'Blake Renaud'
p561
I3000
sS'Gus Johnson'
p562
I3000
sS'Devontae Booker'
p563
I3300
sS'Jamaal Charles'
p564
I7100
sS'C.J. Anderson'
p565
I5900
sS'Denard Robinson'
p566
I3100
sS'Danny Woodhead'
p567
I5000
sS'Joe Banyard'
p568
I3000
sS'Derrick Henry'
p569
I4000
sS'Khiry Robinson'
p570
I3000
sS'Kenny Hilliard'
p571
I3000
sS'Ameer Abdullah'
p572
I4900
sS'Fitzgerald Toussaint'
p573
I3500
sS'Michael Burton'
p574
I3000
sS'Bobby Rainey'
p575
I3000
sS'Melvin Gordon'
p576
I4600
sS'George Atkinson'
p577
I3000
sS'Matt Forte'
p578
I6100
sS'Daniel Thomas'
p579
I3000
sS'DeAngelo Williams'
p580
I7000
sS'Stepfan Taylor'
p581
I3000
sS'James Starks'
p582
I4800
sS'Andrew Bonnet'
p583
I3000
sS'Zach Zenner'
p584
I3000
sS'David Fluellen'
p585
I3000
sS'Senorise Perry'
p586
I3000
sS'Patrick DiMarco'
p587
I3000
sS'Lorenzo Taliaferro'
p588
I3200
sS'Chris Johnson'
p589
I3700
sS'LeGarrette Blount'
p590
I3700
sS'Roosevelt Nix'
p591
I3000
sS'John Crockett'
p592
I3000
sS'Lance Dunbar'
p593
I3000
sS'Andy Janovich'
p594
I3000
sS'Wendell Smallwood'
p595
I3000
sS'George Winn'
p596
I3000
sS'Darren McFadden'
p597
I4200
sS'Romar Morris'
p598
I3000
sS'Jhurell Pressley'
p599
I3000
sS'Dion Lewis'
p600
I5700
sS'Matthew Tucker'
p601
I3000
sS'Antonio Andrews'
p602
I3000
sS'Sam Bergen'
p603
I3000
sS'Mack Brown'
p604
I3000
sS'Cedric Peerman'
p605
I3000
sS'Jay Ajayi'
p606
I4200
sS'DeMarco Murray'
p607
I5300
sS'Eddie Lacy'
p608
I6700
sS"Le'Veon Bell"
p609
I7400
sS'Isaiah Crowell'
p610
I4200
sS'Darius Jackson'
p611
I3000
sS'Todd Gurley'
p612
I7800
sS'Daniel Lasco'
p613
I3000
sS'Taniela Tupou'
p614
I3000
sS'Jalen Simmons'
p615
I3000
sS'Adrian Peterson'
p616
I7600
sS'Byron Marshall'
p617
I3000
sS'Giovani Bernard'
p618
I4800
sS'James White'
p619
I3600
sS'Darrel Young'
p620
I3000
sS'Storm Johnson'
p621
I3000
sS'Brandon Wilds'
p622
I3000
sS'T.J. Yeldon'
p623
I4100
sS'Andre Ellington'
p624
I4100
sS'Alfred Morris'
p625
I3800
sS'Mark Ingram'
p626
I6600
sS'Chase Reynolds'
p627
I3000
sS'Rod Smith'
p628
I3000
sS'James Develin'
p629
I3000
sS'Raheem Mostert'
p630
I3000
sS'Benny Cunningham'
p631
I3700
sS'Chris Ivory'
p632
I4300
sS'Marcel Reece'
p633
I3000
sS'C.J. Spiller'
p634
I3600
sS'Derek Watt'
p635
I3000
sS'Isaiah Pead'
p636
I3000
sS'Juwan Thompson'
p637
I3000
sS'Terrence Magee'
p638
I3000
sS'Alfred Blue'
p639
I3600
sS'Doug Martin'
p640
I6200
sS'Bilal Powell'
p641
I4300
sS'David Johnson'
p642
I7500
sS'Rex Burkhead'
p643
I3000
sS'Brandon Burks'
p644
I3000
sS'Karlos Williams'
p645
I3200
sS'Ryan Mathews'
p646
I5700
sS'Jonathan Stewart'
p647
I5100
sS'Bronson Hill'
p648
I3000
sS'Will Ratelle'
p649
I3000
sS'Damien Williams'
p650
I3000
sS'Tim Hightower'
p651
I4300
sS'Brandon Bolden'
p652
I3000
sS'Stevan Ridley'
p653
I3000
sS'Brandon Wegher'
p654
I3000
sS'Jeremy Langford'
p655
I4700
sS'Brandon Brown-Dukes'
p656
I3000
sS'Daryl Richardson'
p657
I3000
sS'Akeem Hunt'
p658
I3000
sS'Knile Davis'
p659
I3100
sS'Chris Swain'
p660
I3000
sS'Bernard Pierce'
p661
I3000
sS'Glenn Winston'
p662
I3000
sS'Kelvin Taylor'
p663
I3000
sS'Jay Prosch'
p664
I3000
sS'Peyton Barber'
p665
I3000
sS'Aaron Ripkowski'
p666
I3000
sS'Brandon Ross'
p667
I3000
sS'Mike Davis'
p668
I3000
sS'Carlos Hyde'
p669
I5600
sS'Cameron Marshall'
p670
I3000
sS'Orleans Darkwa'
p671
I3000
sS'Kenjon Barner'
p672
I3000
sS'Arian Foster'
p673
I5800
sS'Jordan Todman'
p674
I3000
sS'Latavius Murray'
p675
I5600
sS'Bruce Miller'
p676
I3000
sS'Alstevis Squirewell'
p677
I3000
sS'Jeff Luc'
p678
I3000
sS'DuJuan Harris'
p679
I3000
sS'Soma Vainuku'
p680
I3000
sS'Abou Toure'
p681
I3000
sS'Shane Vereen'
p682
I3800
sS'C.J. Prosise'
p683
I3900
sS'Bishop Sankey'
p684
I3000
sS'Josh Ferguson'
p685
I3500
sS'Spencer Ware'
p686
I4400
sS'Justin Forsett'
p687
I4600
sS'Austin Johnson'
p688
I3000
sS'Paul Lasike'
p689
I3000
sS'Chris Thompson'
p690
I4000
sS'Tommy Bohanon'
p691
I3000
sS'Jacquizz Rodgers'
p692
I3100
sS'Charcandrick West'
p693
I3500
sS'Elijhaa Penny'
p694
I3000
sS'Brandon Cottom'
p695
I3000
sS'Rajion Neal'
p696
I3000
sS'Darrin Reaves'
p697
I3000
sS'Robert Turbin'
p698
I3000
sS'Ronnie Hillman'
p699
I3000
sS'Kerwynn Williams'
p700
I3000
sS'Kyle Juszczyk'
p701
I3100
sS'Jordan Howard'
p702
I3700
sS'Travaris Cadet'
p703
I3000
sS'Tre Madden'
p704
I3000
sS"Ka'Deem Carey"
p705
I3500
sS'Devonta Freeman'
p706
I6900
sS'Marshaun Coprich'
p707
I3000
sS'Cameron Artis-Payne'
p708
I3000
sS'Kenneth Farrow'
p709
I3000
sS'Matt Asiata'
p710
I3300
sS'Mike Gillislee'
p711
I3800
sS'Malcolm Johnson'
p712
I3000
sS'Jalen Richard'
p713
I3000
sS'Kenyan Drake'
p714
I3000
sS'Cameron Stingily'
p715
I3000
sS'Jerome Felton'
p716
I3000
sS'Glenn Gronkowski'
p717
I3000
sS'Matt Jones'
p718
I4700
sS'Dwayne Washington'
p719
I3000
sS'Lamar Miller'
p720
I7000
sS"Cedric O'Neal"
p721
I3000
sS'LeSean McCoy'
p722
I6400
sS'Donald Brown'
p723
I3000
sS'Terrell Watson'
p724
I3500
sS'Joe Kerridge'
p725
I3000
sS'Kevin Monangai'
p726
I3000
sS'DeAndre Washington'
p727
I3700
sS'Sione Houma'
p728
I3000
sS'Tra Carson'
p729
I3000
sS'Andre Williams'
p730
I3000
sS'Trey Millard'
p731
I3000
sS'Duke Johnson'
p732
I5100
sS'Ezekiel Elliott'
p733
I7300
sS'Marcus Murphy'
p734
I3000
sS'Jonathan Williams'
p735
I3000
sS'Russell Hansbrough'
p736
I3000
sS'Nikita Whitlock'
p737
I3000
sS'Zach Line'
p738
I3000
sS'Thomas Rawls'
p739
I6000
sS'Jamize Olawale'
p740
I3000
ssS'TE'
p741
(dp742
S'Brian Leonhardt'
p743
I2500
sS'Ifeanyi Momah'
p744
I2500
sS'Eric Tomlinson'
p745
I2500
sS'Will Tye'
p746
I3300
sS'Lee Smith'
p747
I2500
sS'Maxx Williams'
p748
I2600
sS'Brent Celek'
p749
I2700
sS'Brian Parker'
p750
I2500
sS'Jason Witten'
p751
I4100
sS'Greg Scruggs'
p752
I2500
sS'Levine Toilolo'
p753
I2500
sS'Konrad Reuland'
p754
I2500
sS'Ben Koyack'
p755
I2500
sS'Henry Krieger-Coble'
p756
I2500
sS'Jeff Heuerman'
p757
I2500
sS'Clay Harbor'
p758
I2500
sS'Emil Igwenagu'
p759
I2500
sS'Larry Donnell'
p760
I2900
sS'Garrett Celek'
p761
I2700
sS'Tyler Kroft'
p762
I2700
sS'Bear Pascoe'
p763
I2500
sS'Casey Pierce'
p764
I2500
sS'John Phillips'
p765
I2500
sS'Gabe Hughes'
p766
I2500
sS'Garrett Griffin'
p767
I2500
sS'Logan Paulsen'
p768
I2500
sS'Jordan Reed'
p769
I6600
sS'Mychal Rivera'
p770
I2600
sS'Marcedes Lewis'
p771
I2700
sS'J.P. Holtz'
p772
I2500
sS'Hunter Henry'
p773
I2500
sS'Trey Burton'
p774
I2500
sS'Jermaine Gresham'
p775
I2500
sS'RaShaun Allen'
p776
I2500
sS'Cory Harkey'
p777
I2500
sS'Kyle Carter'
p778
I2500
sS'Tyler Higbee'
p779
I2500
sS'Colton Underwood'
p780
I2500
sS"Ryan O'Malley"
p781
I2500
sS'Seth DeValve'
p782
I2500
sS'Jim Dray'
p783
I2500
sS'Erik Swoope'
p784
I2500
sS'Stephen Anderson'
p785
I2500
sS'Clayton Echard'
p786
I2500
sS'Zach Sudfeld'
p787
I2500
sS'Jordan Cameron'
p788
I3000
sS'Temarrick Hemingway'
p789
I2500
sS'Nic Jacobs'
p790
I2500
sS'Ryan Malleck'
p791
I2500
sS'Blake Bell'
p792
I2500
sS'John DePalma'
p793
I2500
sS'Coby Fleener'
p794
I4900
sS'Tyler Ott'
p795
I2500
sS'Braedon Bowman'
p796
I2500
sS'Gary Barnidge'
p797
I4700
sS'Arthur Lynch'
p798
I2500
sS'Cameron Brate'
p799
I2900
sS'Rico Gathers'
p800
I2500
sS'Beau Brinkley'
p801
I2500
sS'Marcus Lucas'
p802
I2500
sS'Vernon Davis'
p803
I2600
sS'Jared Cook'
p804
I2900
sS'Kyle Rudolph'
p805
I3000
sS'Dennis Pitta'
p806
I2600
sS'Matt Weiser'
p807
I2500
sS'Kyle Nelson'
p808
I2500
sS'Nick Vannett'
p809
I2500
sS"Je'Ron Hamm"
p810
I2500
sS'Tony Moeaki'
p811
I2500
sS'Zach Ertz'
p812
I4300
sS'Anthony Fasano'
p813
I2500
sS'Phillip Supernaw'
p814
I2500
sS'Orson Charles'
p815
I2500
sS'Nick Boyle'
p816
I2500
sS'Richard Rodgers'
p817
I3100
sS'Patrick Scales'
p818
I2500
sS'Darren Fells'
p819
I2700
sS'Martellus Bennett'
p820
I3400
sS'Khari Lee'
p821
I2500
sS'MyCole Pruitt'
p822
I2500
sS'Chris Pantale'
p823
I2500
sS'Luke Stocker'
p824
I2500
sS'Daniel Dillon'
p825
I2500
sS'Chris Manhertz'
p826
I2500
sS'Vance McDonald'
p827
I3100
sS'Marcel Jensen'
p828
I2500
sS'Jerome Cunningham'
p829
I2500
sS'MarQueis Gray'
p830
I2500
sS'Gerald Christian'
p831
I2500
sS"Nick O'Leary"
p832
I2500
sS'Demetrius Harris'
p833
I2500
sS'James Winchester'
p834
I2500
sS'Clive Walford'
p835
I3000
sS'Jesse James'
p836
I3400
sS'Eric Wallace'
p837
I2500
sS'Luke Willson'
p838
I2700
sS'Blake Annen'
p839
I2500
sS'Troy Niklas'
p840
I2500
sS'Scott Simonson'
p841
I2500
sS'Darren Waller'
p842
I2500
sS'Austin Seferian-Jenkins'
p843
I2800
sS'Jace Amaro'
p844
I2700
sS'Ed Dickson'
p845
I2500
sS'Zach Miller'
p846
I3700
sS'Thomas Duarte'
p847
I2500
sS'Dwayne Allen'
p848
I3200
sS'Dion Sims'
p849
I2500
sS'Brandon Bostick'
p850
I2500
sS'A.J. Derby'
p851
I2500
sS'Ryan Griffin'
p852
I2600
sS'Gavin Escobar'
p853
I2600
sS'Gabe Holmes'
p854
I2500
sS'Austin Traylor'
p855
I2500
sS'Jimmy Graham'
p856
I3800
sS'Antonio Gates'
p857
I4200
sS'Kellen Davis'
p858
I2500
sS"James O'Shaughnessy"
p859
I2500
sS'Lance Kendricks'
p860
I3200
sS'Alex Ellis'
p861
I2500
sS'Matthew Mulligan'
p862
I2500
sS'David Johnson'
p863
I2500
sS'Rob Gronkowski'
p864
I7400
sS'David Reeves'
p865
I2500
sS'Clark Harris'
p866
I2500
sS'Jack Doyle'
p867
I2500
sS'Matt Lengel'
p868
I2500
sS'Beau Sandland'
p869
I2500
sS'Kivon Cartwright'
p870
I2500
sS'Hakeem Valles'
p871
I2500
sS'Geoff Swaim'
p872
I2500
sS'Josh Hill'
p873
I2500
sS'Rob Housler'
p874
I2500
sS'Julius Thomas'
p875
I3800
sS'Sean McGrath'
p876
I2500
sS'Jerell Adams'
p877
I2500
sS'Cooper Helfet'
p878
I2500
sS'Justice Cunningham'
p879
I2500
sS'Travis Kelce'
p880
I5000
sS'David Morgan'
p881
I2500
sS'Eric Ebron'
p882
I3900
sS'Brandon Myers'
p883
I2500
sS'Wes Saxton'
p884
I2500
sS'Charles Clay'
p885
I3400
sS'Mitchell Henry'
p886
I2500
sS'Craig Stevens'
p887
I2500
sS'Matt LaCosse'
p888
I2500
sS'C.J. Uzomah'
p889
I2500
sS'Kennard Backman'
p890
I2500
sS'Greg Olsen'
p891
I5100
sS'Gannon Sinclair'
p892
I2500
sS'Rhett Ellison'
p893
I2500
sS'Justin Perillo'
p894
I2500
sS'Crockett Gillmore'
p895
I2600
sS'James Hanna'
p896
I2500
sS'Kevin McDermott'
p897
I2500
sS'Delanie Walker'
p898
I4500
sS'Tim Semisch'
p899
I2500
sS'Tyler Eifert'
p900
I4700
sS'Tevin Westbrook'
p901
I2500
sS'John Peters'
p902
I2500
sS'Ryan Hewitt'
p903
I2500
sS'C.J. Fiedorowicz'
p904
I2500
sS'Randall Telfer'
p905
I2500
sS'Jason Vander'
p906
I2500
sS'E.J. Bibbs'
p907
I2500
sS'Xavier Grimble'
p908
I2500
sS'Adam Fuehne'
p909
I2500
sS'Dominique Jones'
p910
I2500
sS'Danny Vitale'
p911
I2500
sS'Paul Lang'
p912
I2500
sS'Anthony Denham'
p913
I2500
sS'Benjamin Watson'
p914
I3500
sS'Darion Griswold'
p915
I2500
sS'Steven Scheu'
p916
I2500
sS'Asante Cleveland'
p917
I2500
sS'Joshua Perkins'
p918
I2500
sS'Michael Hoomanawanui'
p919
I2500
sS'Andrew DePaola'
p920
I2500
sS'Jacob Tamme'
p921
I2800
sS'Chris Gragg'
p922
I2500
sS'Ross Travis'
p923
I2500
sS'M.J. McFarland'
p924
I2500
sS'Virgil Green'
p925
I2900
sS'Jeff Cumberland'
p926
I2500
sS'Bryce Williams'
p927
I2500
sS'Brandon Pettigrew'
p928
I2500
sS'Austin Hooper'
p929
I2500
sS'Cole Wick'
p930
I2500
sS'Ben McCord'
p931
I2500
sS'Brandon Williams'
p932
I2500
sS'Ben Braunecker'
p933
I2500
sS'Ronnie Shields'
p934
I2500
sS'Niles Paul'
p935
I2500
sS'Connor Hamlett'
p936
I2500
sS'D.J. Tialavea'
p937
I2500
sssI2
(dp938
S'DST'
p939
(dp940
S'Broncos'
p941
I3600
sS'Vikings'
p942
I3400
sS'Bears'
p943
I2900
sS'Falcons'
p944
I2300
sS'Saints'
p945
I2300
sS'Chargers'
p946
I2500
sS'Raiders'
p947
I2700
sS'Lions'
p948
I2800
sS'Browns'
p949
I2500
sS'Eagles'
p950
I3300
sS'Steelers'
p951
I2900
sS'Giants'
p952
I2600
sS'Buccaneers'
p953
I2200
sS'Cardinals'
p954
I3500
sS'Bengals'
p955
I2800
sS'Chiefs'
p956
I3200
sS'Jaguars'
p957
I2300
sS'Seahawks'
p958
I3800
sS'Jets'
p959
I3300
sS'Ravens'
p960
I3000
sS'Colts'
p961
I2700
sS'Packers'
p962
I3200
sS'Dolphins'
p963
I2500
sS'Titans'
p964
I2200
sS'Rams'
p965
I3300
sS'Bills'
p966
I3100
sS'Texans'
p967
I3400
sS'49ers'
p968
I2400
sS'Patriots'
p969
I3000
sS'Cowboys'
p970
I2400
sS'Panthers'
p971
I3900
sS'Redskins'
p972
I2800
ssS'QB'
p973
(dp974
S'Ryan Tannehill'
p975
I5600
sS'Sean Mannion'
p976
I5000
sS'Chad Henne'
p977
I5000
sS'AJ McCarron'
p978
I5000
sS'Christian Hackenberg'
p979
I5000
sS'Cam Newton'
p980
I7900
sS'Josh McCown'
p981
I5000
sS'Chase Daniel'
p982
I5000
sS'Mike Glennon'
p983
I5000
sS'EJ Manuel'
p984
I5000
sS'Colin Kaepernick'
p985
I5000
sS'Derek Anderson'
p986
I5000
sS'Connor Cook'
p987
I5000
sS'Robert Griffin'
p988
I5300
sS'Ryan Mallett'
p989
I5000
sS'Zach Mettenberger'
p990
I5000
sS'Luke McCown'
p991
I5000
sS'Jimmy Garoppolo'
p992
I5900
sS'Alex Smith'
p993
I6300
sS'Carson Wentz'
p994
I5500
sS'Dan Orlovsky'
p995
I5000
sS'Matt Schaub'
p996
I5000
sS'Case Keenum'
p997
I5100
sS'Jeff Driskel'
p998
I5000
sS'Tyrod Taylor'
p999
I6300
sS'Christian Ponder'
p1000
I5000
sS'Matt Moore'
p1001
I5000
sS'Kirk Cousins'
p1002
I7000
sS'Nick Foles'
p1003
I5000
sS'Landry Jones'
p1004
I5000
sS'Jameis Winston'
p1005
I6200
sS'Brandon Allen'
p1006
I5000
sS'Ben Roethlisberger'
p1007
I7500
sS'Austin Davis'
p1008
I5000
sS'Russell Wilson'
p1009
I7400
sS'Joe Webb'
p1010
I5000
sS'Shaun Hill'
p1011
I5000
sS'Nate Sudfeld'
p1012
I5000
sS'Andrew Luck'
p1013
I7700
sS'Tyler Bray'
p1014
I5000
sS'Colt McCoy'
p1015
I5000
sS'Brandon Weeden'
p1016
I5000
sS'Trevone Boykin'
p1017
I5000
sS'Jay Cutler'
p1018
I5700
sS'Dak Prescott'
p1019
I5800
sS'Brock Osweiler'
p1020
I6100
sS'Paxton Lynch'
p1021
I5000
sS'Joe Flacco'
p1022
I6500
sS'Brandon Doughty'
p1023
I5000
sS'Geno Smith'
p1024
I5000
sS'Brian Hoyer'
p1025
I5000
sS'Matt Cassel'
p1026
I5000
sS'Eli Manning'
p1027
I7600
sS'Mark Sanchez'
p1028
I5000
sS'Matt McGloin'
p1029
I5000
sS'Ryan Nassib'
p1030
I5000
sS'Carson Palmer'
p1031
I6900
sS'Sam Bradford'
p1032
I5600
sS'Jared Goff'
p1033
I5000
sS'Tom Savage'
p1034
I5000
sS'Joe Callahan'
p1035
I5000
sS'Matt Ryan'
p1036
I6800
sS'Blaine Gabbert'
p1037
I5000
sS'Andy Dalton'
p1038
I6400
sS'Tony Romo'
p1039
I6000
sS'Marcus Mariota'
p1040
I6000
sS'Matthew Stafford'
p1041
I7300
sS'Derek Carr'
p1042
I7200
sS'Ryan Griffin'
p1043
I5000
sS'Ryan Fitzpatrick'
p1044
I6100
sS'Kellen Clemens'
p1045
I5000
sS'Aaron Rodgers'
p1046
I7800
sS'Alex Tanney'
p1047
I5000
sS'Brett Hundley'
p1048
I5000
sS'Trevor Siemian'
p1049
I5200
sS'Philip Rivers'
p1050
I6400
sS'Drew Stanton'
p1051
I5000
sS'Josh Johnson'
p1052
I5000
sS'Blake Bortles'
p1053
I6700
sS'Drew Brees'
p1054
I8200
sS'Cardale Jones'
p1055
I5000
sS'Bryce Petty'
p1056
I5000
sS'Scott Tolzien'
p1057
I5000
sS'Cody Kessler'
p1058
I5000
sS'Jacoby Brissett'
p1059
I5000
ssS'WR'
p1060
(dp1061
S'Tyler Lockett'
p1062
I4600
sS'Chester Rogers'
p1063
I3000
sS'Deonte Thompson'
p1064
I3000
sS'Andre Holmes'
p1065
I3000
sS'Dwayne Harris'
p1066
I3300
sS'Lucky Whitehead'
p1067
I3000
sS'Golden Tate'
p1068
I6800
sS'Ty Montgomery'
p1069
I3000
sS'Charone Peake'
p1070
I3000
sS'Tajae Sharpe'
p1071
I4100
sS'Bryan Walters'
p1072
I3000
sS'Josh Huff'
p1073
I3000
sS'Anquan Boldin'
p1074
I4500
sS'Kenny Stills'
p1075
I3400
sS'Dorial Green-Beckham'
p1076
I3300
sS'Kendall Wright'
p1077
I3000
sS'DeSean Jackson'
p1078
I6300
sS'Jamison Crowder'
p1079
I3600
sS'Demaryius Thomas'
p1080
I6400
sS'Tavon Austin'
p1081
I4900
sS'Markus Wheaton'
p1082
I5000
sS'Jakeem Grant'
p1083
I3000
sS'Leonte Carroo'
p1084
I3200
sS'Amari Cooper'
p1085
I7600
sS'Josh Doctson'
p1086
I3000
sS'Justin Hardy'
p1087
I3000
sS'Albert Wilson'
p1088
I3200
sS'Sterling Shepard'
p1089
I5200
sS'Doug Baldwin'
p1090
I6600
sS'Justin Hunter'
p1091
I3000
sS'Jarvis Landry'
p1092
I6400
sS'Danny Amendola'
p1093
I3800
sS'Travis Benjamin'
p1094
I4400
sS'Allen Robinson'
p1095
I7800
sS'Mohamed Sanu'
p1096
I5500
sS'Harry Douglas'
p1097
I3100
sS'Quan Bray'
p1098
I3000
sS'Mike Thomas'
p1099
I3000
sS'Jeremy Maclin'
p1100
I6300
sS'Adam Humphries'
p1101
I3100
sS'Bryce Treggs'
p1102
I3000
sS'Chris Moore'
p1103
I3000
sS'Laquon Treadwell'
p1104
I3500
sS'Cody Latimer'
p1105
I3000
sS'Brandon Tate'
p1106
I3000
sS'Eric Weems'
p1107
I3000
sS'Marquise Goodwin'
p1108
I3000
sS'Julian Edelman'
p1109
I6200
sS'Tanner McEvoy'
p1110
I3000
sS'Ted Ginn'
p1111
I3900
sS'Malcolm Mitchell'
p1112
I3000
sS'Andre Roberts'
p1113
I3000
sS'Breshad Perriman'
p1114
I3200
sS'Jermaine Kearse'
p1115
I3500
sS'Allen Hurns'
p1116
I5400
sS'Phillip Dorsett'
p1117
I4400
sS'Sammy Watkins'
p1118
I7300
sS'Jalin Marshall'
p1119
I3000
sS'Braxton Miller'
p1120
I3000
sS'Brandon Coleman'
p1121
I3000
sS'Rashard Higgins'
p1122
I3000
sS'Davante Adams'
p1123
I4200
sS'Tyreek Hill'
p1124
I3000
sS'Will Fuller'
p1125
I4200
sS'Rishard Matthews'
p1126
I3300
sS'Marqise Lee'
p1127
I3100
sS'Jaron Brown'
p1128
I3300
sS'Devin Funchess'
p1129
I4300
sS'Tommylee Lewis'
p1130
I3000
sS'Brandin Cooks'
p1131
I8000
sS'Ryan Grant'
p1132
I3000
sS'Damiere Byrd'
p1133
I3000
sS'Rashad Greene'
p1134
I3100
sS"De'Anthony Thomas"
p1135
I3000
sS'Matthew Slater'
p1136
I3000
sS'Antonio Brown'
p1137
I9900
sS'Michael Thomas'
p1138
I4000
sS'Andrew Hawkins'
p1139
I3100
sS'Jordan Norwood'
p1140
I3000
sS'Rashad Ross'
p1141
I3000
sS'James Wright'
p1142
I3000
sS'Sammie Coates'
p1143
I3700
sS'Charles Johnson'
p1144
I3000
sS'Michael Crabtree'
p1145
I6100
sS'Kevin White'
p1146
I4300
sS'Eric Decker'
p1147
I6500
sS'Arrelious Benn'
p1148
I3000
sS'Aldrick Robinson'
p1149
I3000
sS'Keith Mumphery'
p1150
I3000
sS'Chris Conley'
p1151
I3500
sS'Jaelen Strong'
p1152
I3300
sS'J.J. Nelson'
p1153
I3000
sS'Jarius Wright'
p1154
I3000
sS'Steve Smith'
p1155
I4300
sS'Brandon LaFell'
p1156
I4000
sS'Pharoh Cooper'
p1157
I3300
sS'Johnny Holton'
p1158
I3000
sS'Rod Streater'
p1159
I3000
sS'A.J. Green'
p1160
I8900
sS'Bennie Fowler'
p1161
I3000
sS'Robert Woods'
p1162
I4000
sS'Terrelle Pryor'
p1163
I3500
sS'Julio Jones'
p1164
I9200
sS'Kelvin Benjamin'
p1165
I6500
sS'Cole Beasley'
p1166
I3200
sS'Cody Core'
p1167
I3000
sS'Corey Coleman'
p1168
I4700
sS'Cecil Shorts'
p1169
I3000
sS'Alex Erickson'
p1170
I3000
sS'Russell Shepard'
p1171
I3000
sS'Eddie Royal'
p1172
I3500
sS'Jared Abbrederis'
p1173
I3000
sS'Willie Snead'
p1174
I5800
sS'Trevor Davis'
p1175
I3000
sS'Jeff Janis'
p1176
I3300
sS'Nelson Spruce'
p1177
I3000
sS'DeVante Parker'
p1178
I4800
sS'Adam Thielen'
p1179
I3200
sS'DeAndre Hopkins'
p1180
I8700
sS'Demarcus Robinson'
p1181
I3000
sS'Victor Cruz'
p1182
I4300
sS'Jordan Taylor'
p1183
I3000
sS'Jeremy Kerley'
p1184
I3000
sS'Greg Salas'
p1185
I3000
sS'Emmanuel Sanders'
p1186
I6000
sS'Kenny Britt'
p1187
I3700
sS'Odell Beckham'
p1188
I9500
sS'Cordarrelle Patterson'
p1189
I3000
sS'Paul Richardson'
p1190
I3000
sS'Tavarres King'
p1191
I3000
sS'Dontrelle Inman'
p1192
I3600
sS'Randall Cobb'
p1193
I7400
sS'Brian Quick'
p1194
I3300
sS'Seth Roberts'
p1195
I3800
sS'Cameron Meredith'
p1196
I3000
sS'T.Y. Hilton'
p1197
I7000
sS'John Brown'
p1198
I5300
sS'Jordan Payton'
p1199
I3000
sS'Jordy Nelson'
p1200
I7500
sS'Quincy Enunwa'
p1201
I4400
sS'Joshua Bellamy'
p1202
I3000
sS'Jordan Matthews'
p1203
I6900
sS'Taylor Gabriel'
p1204
I3000
sS'Marc Mariani'
p1205
I3000
sS'Mike Wallace'
p1206
I4700
sS'Torrey Smith'
p1207
I4700
sS'Corey Brown'
p1208
I3000
sS'Roger Lewis'
p1209
I3000
sS'Nelson Agholor'
p1210
I3500
sS'Michael Floyd'
p1211
I5900
sS'Mike Evans'
p1212
I7200
sS'Quinton Patton'
p1213
I3800
sS'Walt Powell'
p1214
I3000
sS'Tyler Boyd'
p1215
I3500
sS'Bradley Marquez'
p1216
I3000
sS'Brice Butler'
p1217
I3000
sS'Andre Johnson'
p1218
I3400
sS'Alshon Jeffery'
p1219
I7700
sS'Brandon Marshall'
p1220
I7500
sS'Kamar Aiken'
p1221
I3900
sS'Keenan Allen'
p1222
I7500
sS'Robby Anderson'
p1223
I3000
sS'Vincent Jackson'
p1224
I4000
sS'Stefon Diggs'
p1225
I5100
sS'Larry Fitzgerald'
p1226
I6400
sS'Terrance Williams'
p1227
I3300
sS'Devin Hester'
p1228
I3000
sS'Isaiah Burse'
p1229
I3000
sS'Brenton Bersin'
p1230
I3000
sS'Ricardo Louis'
p1231
I3000
sS'Marvin Jones'
p1232
I5500
sS'Pierre Garcon'
p1233
I4200
sS'Chris Hogan'
p1234
I3500
sS'Donte Moncrief'
p1235
I6400
sS'Darrius Heyward-Bey'
p1236
I3600
sS'Dez Bryant'
p1237
I8400
sS'Tyrell Williams'
p1238
I3700
sS'Aaron Burbridge'
p1239
I3000
sS'Eli Rogers'
p1240
I4100
ssS'RB'
p1241
(dp1242
S'Taiwan Jones'
p1243
I3000
sS'Frank Gore'
p1244
I5000
sS'Rashad Jennings'
p1245
I5600
sS'Jerick McKinnon'
p1246
I3700
sS'Terrance West'
p1247
I3300
sS'Jalston Fowler'
p1248
I3000
sS'Rob Kelley'
p1249
I3900
sS'D.J. Foster'
p1250
I3000
sS'Fozzy Whittaker'
p1251
I3000
sS'Daniel Lasco'
p1252
I3000
sS'Kenneth Dixon'
p1253
I3000
sS'Tyler Ervin'
p1254
I3000
sS'Alex Collins'
p1255
I3000
sS'Theo Riddick'
p1256
I4300
sS'Zach Line'
p1257
I3000
sS'Malcolm Brown'
p1258
I3000
sS'Darren Sproles'
p1259
I3800
sS'Christine Michael'
p1260
I4600
sS'Charles Sims'
p1261
I4400
sS'Jeremy Hill'
p1262
I4300
sS'Javorius Allen'
p1263
I3100
sS'Tevin Coleman'
p1264
I4500
sS'Shaun Draughn'
p1265
I3700
sS'Mike Tolbert'
p1266
I3000
sS'Jonathan Grimes'
p1267
I3000
sS'Paul Perkins'
p1268
I3200
sS'Reggie Bush'
p1269
I3200
sS'Devontae Booker'
p1270
I3000
sS'Jamaal Charles'
p1271
I6300
sS'C.J. Anderson'
p1272
I6800
sS'Denard Robinson'
p1273
I3100
sS'Julian Howsare'
p1274
I3000
sS'Danny Woodhead'
p1275
I5200
sS'Derrick Henry'
p1276
I3800
sS'Ameer Abdullah'
p1277
I4900
sS'Fitzgerald Toussaint'
p1278
I3500
sS'Michael Burton'
p1279
I3000
sS'Bobby Rainey'
p1280
I3000
sS'Andre Williams'
p1281
I3000
sS'Melvin Gordon'
p1282
I4800
sS'George Atkinson'
p1283
I3000
sS'Kenneth Farrow'
p1284
I3000
sS'DeAngelo Williams'
p1285
I7100
sS'James Starks'
p1286
I4000
sS'Zach Zenner'
p1287
I3000
sS'Kapri Bibbs'
p1288
I3000
sS'Chris Johnson'
p1289
I3700
sS'LeGarrette Blount'
p1290
I4000
sS'Roosevelt Nix'
p1291
I3000
sS'Lance Dunbar'
p1292
I3000
sS'Andy Janovich'
p1293
I3000
sS'Wendell Smallwood'
p1294
I3000
sS'Jhurell Pressley'
p1295
I3000
sS'Antonio Andrews'
p1296
I3000
sS'Keith Smith'
p1297
I3000
sS'Jay Ajayi'
p1298
I3700
sS'DeMarco Murray'
p1299
I5700
sS'Eddie Lacy'
p1300
I6000
sS'Isaiah Crowell'
p1301
I4400
sS'John Kuhn'
p1302
I3000
sS'Darius Jackson'
p1303
I3000
sS'Todd Gurley'
p1304
I7500
sS'Terron Ward'
p1305
I3000
sS'Duke Johnson'
p1306
I4500
sS'Adrian Peterson'
p1307
I7000
sS'Giovani Bernard'
p1308
I4200
sS'James White'
p1309
I4000
sS'T.J. Yeldon'
p1310
I4700
sS'Andre Ellington'
p1311
I3900
sS'Alfred Morris'
p1312
I3600
sS'Mark Ingram'
p1313
I6200
sS'Chase Reynolds'
p1314
I3000
sS'Rod Smith'
p1315
I3000
sS'Benny Cunningham'
p1316
I3700
sS'Chris Ivory'
p1317
I4100
sS'Derek Watt'
p1318
I3000
sS'Isaiah Pead'
p1319
I3000
sS'Doug Martin'
p1320
I5900
sS'David Johnson'
p1321
I7600
sS'Rex Burkhead'
p1322
I3000
sS'Ryan Mathews'
p1323
I5800
sS'Jonathan Stewart'
p1324
I5400
sS'Bilal Powell'
p1325
I4000
sS'Damien Williams'
p1326
I3000
sS'Tim Hightower'
p1327
I3800
sS'Brandon Bolden'
p1328
I3000
sS'Corey Grant'
p1329
I3000
sS'Jeremy Langford'
p1330
I4600
sS'Daryl Richardson'
p1331
I3000
sS'Knile Davis'
p1332
I3000
sS'Anthony Sherman'
p1333
I3000
sS'Troymaine Pope'
p1334
I3000
sS'Patrick DiMarco'
p1335
I3000
sS'Peyton Barber'
p1336
I3000
sS'Stepfan Taylor'
p1337
I3000
sS'Aaron Ripkowski'
p1338
I3000
sS'Carlos Hyde'
p1339
I5100
sS'Orleans Darkwa'
p1340
I3000
sS'Kenjon Barner'
p1341
I3000
sS'Tani Tupou'
p1342
I3000
sS'Arian Foster'
p1343
I6000
sS'Jordan Todman'
p1344
I3000
sS'Latavius Murray'
p1345
I5700
sS'Cameron Artis-Payne'
p1346
I3000
sS'DuJuan Harris'
p1347
I3000
sS'Shane Vereen'
p1348
I3800
sS'C.J. Prosise'
p1349
I3700
sS'Josh Ferguson'
p1350
I3300
sS'Spencer Ware'
p1351
I6100
sS'Justin Forsett'
p1352
I4400
sS'Paul Lasike'
p1353
I3000
sS'Chris Thompson'
p1354
I3700
sS'Charcandrick West'
p1355
I3500
sS'Mike Davis'
p1356
I3000
sS'Kyle Juszczyk'
p1357
I3000
sS'Jordan Howard'
p1358
I3300
sS'Travaris Cadet'
p1359
I3000
sS"Ka'Deem Carey"
p1360
I3100
sS'Devonta Freeman'
p1361
I6100
sS'Alfred Blue'
p1362
I3400
sS'Matt Forte'
p1363
I6600
sS'Jonathan Williams'
p1364
I3000
sS'Mike Gillislee'
p1365
I3400
sS'Malcolm Johnson'
p1366
I3000
sS'Jalen Richard'
p1367
I3600
sS'Kenyan Drake'
p1368
I3000
sS'Glenn Gronkowski'
p1369
I3000
sS'Matt Jones'
p1370
I4500
sS'Dwayne Washington'
p1371
I3000
sS'Lamar Miller'
p1372
I7200
sS'LeSean McCoy'
p1373
I6500
sS'DeAndre Washington'
p1374
I3400
sS'Jay Prosch'
p1375
I3000
sS'C.J. Spiller'
p1376
I3000
sS'Ezekiel Elliott'
p1377
I7300
sS'Marcus Murphy'
p1378
I3000
sS'Matt Asiata'
p1379
I3000
sS'Robert Turbin'
p1380
I3000
sS'James Develin'
p1381
I3000
sS'Thomas Rawls'
p1382
I5500
sS'Jamize Olawale'
p1383
I3100
ssS'TE'
p1384
(dp1385
S'Will Tye'
p1386
I2900
sS'Lee Smith'
p1387
I2500
sS'Maxx Williams'
p1388
I2500
sS'Brent Celek'
p1389
I2600
sS'Jason Witten'
p1390
I4300
sS'Greg Scruggs'
p1391
I2500
sS'Neal Sterling'
p1392
I3000
sS'Levine Toilolo'
p1393
I2500
sS'Ben Koyack'
p1394
I2500
sS'Clay Harbor'
p1395
I2500
sS'Larry Donnell'
p1396
I2900
sS'Garrett Celek'
p1397
I2600
sS'John Phillips'
p1398
I2500
sS'Logan Paulsen'
p1399
I2500
sS'Jordan Reed'
p1400
I6800
sS'Mychal Rivera'
p1401
I2600
sS'Marcedes Lewis'
p1402
I2600
sS'Hunter Henry'
p1403
I2500
sS'Trey Burton'
p1404
I2500
sS'Jermaine Gresham'
p1405
I2500
sS'Cory Harkey'
p1406
I2500
sS'Tyler Higbee'
p1407
I2500
sS"James O'Shaughnessy"
p1408
I2500
sS'Seth DeValve'
p1409
I2500
sS'Erik Swoope'
p1410
I2500
sS'Stephen Anderson'
p1411
I2500
sS'Vance McDonald'
p1412
I3000
sS'Jordan Cameron'
p1413
I2800
sS'Temarrick Hemingway'
p1414
I2500
sS'Clark Harris'
p1415
I2500
sS'Coby Fleener'
p1416
I3900
sS'Braedon Bowman'
p1417
I2500
sS'Gary Barnidge'
p1418
I4000
sS'Cameron Brate'
p1419
I2600
sS'Beau Brinkley'
p1420
I2500
sS'Jared Cook'
p1421
I3000
sS'Kyle Rudolph'
p1422
I3100
sS'Dennis Pitta'
p1423
I2800
sS'Kyle Nelson'
p1424
I2500
sS'Nick Vannett'
p1425
I2500
sS'Zach Ertz'
p1426
I4100
sS'Anthony Fasano'
p1427
I2500
sS'Phillip Supernaw'
p1428
I2500
sS'Orson Charles'
p1429
I2500
sS'Richard Rodgers'
p1430
I2800
sS'Patrick Scales'
p1431
I2500
sS'Darren Fells'
p1432
I2600
sS'Martellus Bennett'
p1433
I4400
sS'Khari Lee'
p1434
I2500
sS'MyCole Pruitt'
p1435
I2500
sS'Rob Gronkowski'
p1436
I6900
sS'Luke Stocker'
p1437
I2500
sS'Chris Manhertz'
p1438
I2500
sS'MarQueis Gray'
p1439
I2500
sS"Nick O'Leary"
p1440
I2500
sS'Demetrius Harris'
p1441
I2500
sS'James Winchester'
p1442
I2500
sS'Clive Walford'
p1443
I2900
sS'Jesse James'
p1444
I3400
sS'Austin Hooper'
p1445
I2500
sS'Troy Niklas'
p1446
I2500
sS'Scott Simonson'
p1447
I2500
sS'Austin Seferian-Jenkins'
p1448
I2900
sS'Jace Amaro'
p1449
I2500
sS'Ed Dickson'
p1450
I2500
sS'Zach Miller'
p1451
I3000
sS'Dwayne Allen'
p1452
I3600
sS'Dion Sims'
p1453
I2500
sS'Brandon Bostick'
p1454
I2500
sS'A.J. Derby'
p1455
I2500
sS'Ryan Griffin'
p1456
I2500
sS'Gavin Escobar'
p1457
I2600
sS'Jimmy Graham'
p1458
I3200
sS'Antonio Gates'
p1459
I4500
sS'Kellen Davis'
p1460
I2500
sS'Vernon Davis'
p1461
I2600
sS'David Johnson'
p1462
I2500
sS'Ross Travis'
p1463
I2500
sS'Blake Bell'
p1464
I2500
sS'Jack Doyle'
p1465
I2500
sS'David Morgan'
p1466
I2500
sS'Geoff Swaim'
p1467
I2500
sS'Josh Hill'
p1468
I2500
sS'Julius Thomas'
p1469
I4400
sS'Sean McGrath'
p1470
I2500
sS'Jerell Adams'
p1471
I2500
sS'Travis Kelce'
p1472
I5000
sS'Tyler Kroft'
p1473
I2500
sS'Crockett Gillmore'
p1474
I2500
sS'Brandon Myers'
p1475
I2500
sS'Charles Clay'
p1476
I3300
sS'Jim Dray'
p1477
I2500
sS'Joshua Perkins'
p1478
I2500
sS'C.J. Uzomah'
p1479
I2600
sS'Greg Olsen'
p1480
I5600
sS'Rhett Ellison'
p1481
I2500
sS'Justin Perillo'
p1482
I2500
sS'Eric Ebron'
p1483
I3500
sS'Delanie Walker'
p1484
I4500
sS'Kevin McDermott'
p1485
I2500
sS'Tyler Eifert'
p1486
I4500
sS'Ryan Hewitt'
p1487
I2500
sS'C.J. Fiedorowicz'
p1488
I2500
sS'Randall Telfer'
p1489
I2500
sS'Jeff Heuerman'
p1490
I2500
sS'Xavier Grimble'
p1491
I2500
sS'Andrew DePaola'
p1492
I2500
sS'Jacob Tamme'
p1493
I2900
sS'Lance Kendricks'
p1494
I2900
sS'Luke Willson'
p1495
I2700
sS'Virgil Green'
p1496
I2800
sS'Cole Wick'
p1497
I2500
sS'Brandon Williams'
p1498
I2500
sS'Niles Paul'
p1499
I2500
sssI3
(dp1500
S'DST'
p1501
(dp1502
S'Broncos'
p1503
I3500
sS'Vikings'
p1504
I3100
sS'Bears'
p1505
I2700
sS'Falcons'
p1506
I2000
sS'Saints'
p1507
I2200
sS'Chargers'
p1508
I2300
sS'Raiders'
p1509
I2600
sS'Lions'
p1510
I2400
sS'Browns'
p1511
I2300
sS'Eagles'
p1512
I2800
sS'Steelers'
p1513
I2900
sS'Giants'
p1514
I3300
sS'Buccaneers'
p1515
I3100
sS'Cardinals'
p1516
I3600
sS'Bengals'
p1517
I2800
sS'Chiefs'
p1518
I3200
sS'Jaguars'
p1519
I2600
sS'Seahawks'
p1520
I4100
sS'Jets'
p1521
I2900
sS'Ravens'
p1522
I2500
sS'Colts'
p1523
I2400
sS'Packers'
p1524
I3000
sS'Dolphins'
p1525
I3000
sS'Rams'
p1526
I3000
sS'Bills'
p1527
I2700
sS'Panthers'
p1528
I3800
sS'Texans'
p1529
I3000
sS'49ers'
p1530
I2400
sS'Patriots'
p1531
I3200
sS'Cowboys'
p1532
I2500
sS'Titans'
p1533
I2500
sS'Redskins'
p1534
I2400
ssS'QB'
p1535
(dp1536
S'Ryan Tannehill'
p1537
I6200
sS'Carson Wentz'
p1538
I5500
sS'AJ McCarron'
p1539
I5000
sS'Christian Hackenberg'
p1540
I5000
sS'Cam Newton'
p1541
I7800
sS'Josh McCown'
p1542
I5600
sS'Ben Roethlisberger'
p1543
I7300
sS'Mike Glennon'
p1544
I5000
sS'EJ Manuel'
p1545
I5000
sS'Nate Sudfeld'
p1546
I5000
sS'Blake Bortles'
p1547
I6500
sS'Drew Stanton'
p1548
I5000
sS'Brandon Weeden'
p1549
I5000
sS'Christian Ponder'
p1550
I5000
sS'Ryan Mallett'
p1551
I5000
sS'Joe Flacco'
p1552
I6100
sS'Jimmy Garoppolo'
p1553
I5600
sS'Alex Smith'
p1554
I5800
sS'Chad Henne'
p1555
I5000
sS'Dan Orlovsky'
p1556
I5000
sS'Matt Schaub'
p1557
I5000
sS'Case Keenum'
p1558
I5000
sS'Cody Kessler'
p1559
I5000
sS'Andy Dalton'
p1560
I5700
sS'Tyrod Taylor'
p1561
I5800
sS'Brett Hundley'
p1562
I5000
sS'Dak Prescott'
p1563
I5700
sS'Kirk Cousins'
p1564
I6400
sS'Landry Jones'
p1565
I5000
sS'Jameis Winston'
p1566
I6000
sS'Brandon Allen'
p1567
I5000
sS'Colin Kaepernick'
p1568
I5000
sS'Austin Davis'
p1569
I5000
sS'Russell Wilson'
p1570
I7100
sS'Paxton Lynch'
p1571
I5000
sS'Shaun Hill'
p1572
I5000
sS'Jeff Driskel'
p1573
I5000
sS'Eli Manning'
p1574
I7000
sS'Tom Savage'
p1575
I5000
sS'Tyler Bray'
p1576
I5000
sS'Colt McCoy'
p1577
I5000
sS'Connor Cook'
p1578
I5000
sS'Trevone Boykin'
p1579
I5000
sS'Jay Cutler'
p1580
I5600
sS'Matt Moore'
p1581
I5000
sS'Brock Osweiler'
p1582
I6000
sS'Joe Webb'
p1583
I5000
sS'Nick Foles'
p1584
I5000
sS'Geno Smith'
p1585
I5000
sS'Brian Hoyer'
p1586
I5000
sS'Marcus Mariota'
p1587
I5900
sS'Matt Ryan'
p1588
I7400
sS'Sean Mannion'
p1589
I5000
sS'Drew Brees'
p1590
I7900
sS'Jacoby Brissett'
p1591
I5000
sS'Carson Palmer'
p1592
I7200
sS'Sam Bradford'
p1593
I5300
sS'Jared Goff'
p1594
I5000
sS'Ryan Nassib'
p1595
I5000
sS'Derek Anderson'
p1596
I5000
sS'Joe Callahan'
p1597
I5000
sS'Mark Sanchez'
p1598
I5000
sS'Blaine Gabbert'
p1599
I5000
sS'Matt McGloin'
p1600
I5000
sS'Tony Romo'
p1601
I6000
sS'Matt Cassel'
p1602
I5000
sS'Andrew Luck'
p1603
I7600
sS'Josh Johnson'
p1604
I5000
sS'Ryan Griffin'
p1605
I5000
sS'Ryan Fitzpatrick'
p1606
I5900
sS'Aaron Rodgers'
p1607
I7700
sS'Trevor Siemian'
p1608
I5100
sS'Philip Rivers'
p1609
I6700
sS'Derek Carr'
p1610
I6900
sS'Zach Mettenberger'
p1611
I5000
sS'Matthew Stafford'
p1612
I6800
sS'Cardale Jones'
p1613
I5000
sS'Bryce Petty'
p1614
I5000
sS'Luke McCown'
p1615
I5000
sS'Chase Daniel'
p1616
I5000
sS'Kellen Clemens'
p1617
I5000
sS'Scott Tolzien'
p1618
I5000
ssS'WR'
p1619
(dp1620
S'Tyler Lockett'
p1621
I4200
sS'Chester Rogers'
p1622
I3000
sS'Deonte Thompson'
p1623
I3000
sS'Dwayne Harris'
p1624
I3000
sS'Lucky Whitehead'
p1625
I3000
sS'Golden Tate'
p1626
I5900
sS'Ty Montgomery'
p1627
I3000
sS'Charone Peake'
p1628
I3000
sS'Tajae Sharpe'
p1629
I4700
sS'Alshon Jeffery'
p1630
I8000
sS'Bryan Walters'
p1631
I3000
sS'Tyler Boyd'
p1632
I3500
sS'Josh Huff'
p1633
I3000
sS'Anquan Boldin'
p1634
I4200
sS'Brandon Coleman'
p1635
I3000
sS'Dorial Green-Beckham'
p1636
I3200
sS'Kendall Wright'
p1637
I3000
sS'DeSean Jackson'
p1638
I5900
sS'Jamison Crowder'
p1639
I3800
sS'Tavon Austin'
p1640
I4100
sS'Markus Wheaton'
p1641
I4600
sS'Jordy Nelson'
p1642
I7400
sS'Amari Cooper'
p1643
I7700
sS'Josh Doctson'
p1644
I3000
sS'Jaelen Strong'
p1645
I3300
sS'Albert Wilson'
p1646
I3000
sS'Sterling Shepard'
p1647
I5500
sS'Doug Baldwin'
p1648
I6300
sS'Justin Hunter'
p1649
I3000
sS'Jarvis Landry'
p1650
I6600
sS'Danny Amendola'
p1651
I3700
sS'Travis Benjamin'
p1652
I5200
sS'Allen Robinson'
p1653
I7500
sS'Mohamed Sanu'
p1654
I5700
sS'Harry Douglas'
p1655
I3000
sS'Quan Bray'
p1656
I3000
sS'Mike Thomas'
p1657
I3000
sS'Jeremy Maclin'
p1658
I6000
sS'Adam Humphries'
p1659
I3000
sS'Bryce Treggs'
p1660
I3000
sS'Victor Cruz'
p1661
I4700
sS'Laquon Treadwell'
p1662
I3100
sS'Brandon Tate'
p1663
I3000
sS'Eric Weems'
p1664
I3000
sS'Eric Decker'
p1665
I6900
sS'Marquise Goodwin'
p1666
I3000
sS'Julian Edelman'
p1667
I6400
sS'Tanner McEvoy'
p1668
I3000
sS'Ted Ginn'
p1669
I3700
sS'Malcolm Mitchell'
p1670
I3000
sS'Andre Roberts'
p1671
I3000
sS'Breshad Perriman'
p1672
I3000
sS'Jermaine Kearse'
p1673
I3400
sS'Allen Hurns'
p1674
I5200
sS'Phillip Dorsett'
p1675
I4400
sS'Sammy Watkins'
p1676
I6100
sS'Jalin Marshall'
p1677
I3000
sS'Braxton Miller'
p1678
I3000
sS'Demaryius Thomas'
p1679
I6400
sS'Rashard Higgins'
p1680
I3000
sS'Davante Adams'
p1681
I4100
sS'Tyreek Hill'
p1682
I3000
sS'Will Fuller'
p1683
I4800
sS'Rishard Matthews'
p1684
I3300
sS'Marqise Lee'
p1685
I3000
sS'Jaron Brown'
p1686
I3300
sS'Devin Funchess'
p1687
I4100
sS'Tommylee Lewis'
p1688
I3000
sS'Brandin Cooks'
p1689
I7900
sS'Ryan Grant'
p1690
I3000
sS'Damiere Byrd'
p1691
I3000
sS'J.J. Nelson'
p1692
I3000
sS'Darrius Heyward-Bey'
p1693
I3200
sS"De'Anthony Thomas"
p1694
I3000
sS'Matthew Slater'
p1695
I3000
sS'Antonio Brown'
p1696
I9600
sS'Michael Thomas'
p1697
I4200
sS'Andrew Hawkins'
p1698
I3000
sS'Jordan Norwood'
p1699
I3000
sS'Rashad Ross'
p1700
I3000
sS'James Wright'
p1701
I3000
sS'Sammie Coates'
p1702
I3800
sS'Charles Johnson'
p1703
I3000
sS'Michael Crabtree'
p1704
I6000
sS'Terrance Williams'
p1705
I3300
sS'Kenny Stills'
p1706
I3600
sS'Arrelious Benn'
p1707
I3000
sS'Aldrick Robinson'
p1708
I3000
sS'Keith Mumphery'
p1709
I3000
sS'Chris Conley'
p1710
I3100
sS'Justin Hardy'
p1711
I3000
sS'Rashad Greene'
p1712
I3000
sS'Jarius Wright'
p1713
I3000
sS'Seth Roberts'
p1714
I3500
sS'Brandon LaFell'
p1715
I3400
sS'Pharoh Cooper'
p1716
I3000
sS'Johnny Holton'
p1717
I3000
sS'Rod Streater'
p1718
I3000
sS'A.J. Green'
p1719
I8100
sS'Bennie Fowler'
p1720
I3000
sS'Robert Woods'
p1721
I3200
sS'Terrelle Pryor'
p1722
I3400
sS'Julio Jones'
p1723
I9500
sS'Kelvin Benjamin'
p1724
I7200
sS'Cole Beasley'
p1725
I3200
sS'Cody Core'
p1726
I3000
sS'Corey Coleman'
p1727
I5300
sS'Cecil Shorts'
p1728
I3000
sS'Alex Erickson'
p1729
I3000
sS'Eddie Royal'
p1730
I3500
sS'Jared Abbrederis'
p1731
I3000
sS'Willie Snead'
p1732
I6500
sS'Trevor Davis'
p1733
I3000
sS'Jeff Janis'
p1734
I3200
sS'Nelson Spruce'
p1735
I3000
sS'DeVante Parker'
p1736
I4900
sS'Adam Thielen'
p1737
I3200
sS'DeAndre Hopkins'
p1738
I8600
sS'Demarcus Robinson'
p1739
I3000
sS'Chris Moore'
p1740
I3000
sS'Jordan Taylor'
p1741
I3000
sS'Jeremy Kerley'
p1742
I3400
sS'Greg Salas'
p1743
I3000
sS'Emmanuel Sanders'
p1744
I6000
sS'Kenny Britt'
p1745
I3900
sS'Odell Beckham'
p1746
I9100
sS'Cordarrelle Patterson'
p1747
I3000
sS'Paul Richardson'
p1748
I3000
sS'Tavarres King'
p1749
I3000
sS'Kevin White'
p1750
I4000
sS'Randall Cobb'
p1751
I7300
sS'Brian Quick'
p1752
I3000
sS'Cody Latimer'
p1753
I3000
sS'Cameron Meredith'
p1754
I3000
sS'T.Y. Hilton'
p1755
I6800
sS'John Brown'
p1756
I4800
sS'Jordan Payton'
p1757
I3000
sS'Jakeem Grant'
p1758
I3000
sS'Quincy Enunwa'
p1759
I4800
sS'Dontrelle Inman'
p1760
I3600
sS'Jordan Matthews'
p1761
I7100
sS'Taylor Gabriel'
p1762
I3000
sS'Marc Mariani'
p1763
I3000
sS'Mike Wallace'
p1764
I5000
sS'Torrey Smith'
p1765
I4300
sS'Corey Brown'
p1766
I3000
sS'Roger Lewis'
p1767
I3000
sS'Nelson Agholor'
p1768
I3500
sS'Michael Floyd'
p1769
I5800
sS'Mike Evans'
p1770
I7000
sS'Steve Smith'
p1771
I4100
sS'Quinton Patton'
p1772
I3100
sS'Walt Powell'
p1773
I3000
sS'Andre Holmes'
p1774
I3000
sS'Bradley Marquez'
p1775
I3000
sS'Brice Butler'
p1776
I3000
sS'Andre Johnson'
p1777
I3400
sS'Russell Shepard'
p1778
I3000
sS'Brandon Marshall'
p1779
I7300
sS'Kamar Aiken'
p1780
I3100
sS'Robby Anderson'
p1781
I3000
sS'Vincent Jackson'
p1782
I3900
sS'Stefon Diggs'
p1783
I5100
sS'Joshua Bellamy'
p1784
I3000
sS'Larry Fitzgerald'
p1785
I6900
sS'Devin Hester'
p1786
I3000
sS'Isaiah Burse'
p1787
I3000
sS'Brenton Bersin'
p1788
I3000
sS'Ricardo Louis'
p1789
I3000
sS'Marvin Jones'
p1790
I6200
sS'Pierre Garcon'
p1791
I3900
sS'Chris Hogan'
p1792
I3900
sS'Donte Moncrief'
p1793
I6700
sS'Leonte Carroo'
p1794
I3000
sS'Dez Bryant'
p1795
I8400
sS'Tyrell Williams'
p1796
I4300
sS'Aaron Burbridge'
p1797
I3000
sS'Eli Rogers'
p1798
I3900
ssS'RB'
p1799
(dp1800
S'Will Tukuafu'
p1801
I3000
sS'Taiwan Jones'
p1802
I3000
sS'Frank Gore'
p1803
I5000
sS'Charles Sims'
p1804
I4900
sS'Jerick McKinnon'
p1805
I3800
sS'T.J. Yeldon'
p1806
I5600
sS'Jalston Fowler'
p1807
I3000
sS'Rob Kelley'
p1808
I3000
sS'D.J. Foster'
p1809
I3000
sS'Fozzy Whittaker'
p1810
I3800
sS'Daniel Lasco'
p1811
I3000
sS'Kenneth Dixon'
p1812
I3000
sS'Tyler Ervin'
p1813
I3000
sS'Alex Collins'
p1814
I3000
sS'Theo Riddick'
p1815
I4900
sS'Corey Grant'
p1816
I3000
sS'Malcolm Brown'
p1817
I3000
sS'Darren Sproles'
p1818
I3700
sS'Christine Michael'
p1819
I5000
sS'Rashad Jennings'
p1820
I5100
sS'Jeremy Hill'
p1821
I3700
sS'Ezekiel Elliott'
p1822
I6900
sS'Tevin Coleman'
p1823
I4500
sS'Shaun Draughn'
p1824
I3400
sS'Mike Tolbert'
p1825
I3000
sS'Jonathan Grimes'
p1826
I3000
sS'Paul Perkins'
p1827
I3000
sS'Reggie Bush'
p1828
I3200
sS'Devontae Booker'
p1829
I3000
sS'Jamaal Charles'
p1830
I5600
sS'C.J. Anderson'
p1831
I7300
sS'Denard Robinson'
p1832
I3000
sS'Julian Howsare'
p1833
I3000
sS'Danny Woodhead'
p1834
I5400
sS'Derrick Henry'
p1835
I3700
sS'Ameer Abdullah'
p1836
I4600
sS'Fitzgerald Toussaint'
p1837
I3000
sS'Michael Burton'
p1838
I3000
sS'Bobby Rainey'
p1839
I3000
sS'Melvin Gordon'
p1840
I5800
sS'George Atkinson'
p1841
I3000
sS'Matt Forte'
p1842
I7000
sS'DeAngelo Williams'
p1843
I7500
sS'Stepfan Taylor'
p1844
I3000
sS'James Starks'
p1845
I4000
sS'Zach Zenner'
p1846
I3000
sS'Kapri Bibbs'
p1847
I3000
sS'Jalen Richard'
p1848
I3600
sS'Chris Johnson'
p1849
I3500
sS'LeGarrette Blount'
p1850
I4400
sS'Chris Ivory'
p1851
I3900
sS'Roosevelt Nix'
p1852
I3000
sS'Lance Dunbar'
p1853
I3000
sS'Andy Janovich'
p1854
I3000
sS'Wendell Smallwood'
p1855
I3000
sS'Antonio Andrews'
p1856
I3000
sS'Keith Smith'
p1857
I3000
sS'Kenyan Drake'
p1858
I3600
sS'DeMarco Murray'
p1859
I6300
sS'Eddie Lacy'
p1860
I6100
sS'Isaiah Crowell'
p1861
I4700
sS'John Kuhn'
p1862
I3000
sS'Darius Jackson'
p1863
I3000
sS'Todd Gurley'
p1864
I7100
sS'Terron Ward'
p1865
I3000
sS'Duke Johnson'
p1866
I4200
sS'Adrian Peterson'
p1867
I6700
sS'Giovani Bernard'
p1868
I4300
sS'James White'
p1869
I4200
sS'LeSean McCoy'
p1870
I6500
sS'Terrance West'
p1871
I3500
sS'Andre Ellington'
p1872
I3600
sS'Alfred Morris'
p1873
I3700
sS'Mark Ingram'
p1874
I5900
sS'Chase Reynolds'
p1875
I3000
sS'Rod Smith'
p1876
I3000
sS'Benny Cunningham'
p1877
I3400
sS'Jay Ajayi'
p1878
I4000
sS'Derek Watt'
p1879
I3000
sS'Isaiah Pead'
p1880
I3000
sS'Doug Martin'
p1881
I5700
sS'David Johnson'
p1882
I7700
sS'Rex Burkhead'
p1883
I3000
sS'Ryan Mathews'
p1884
I5800
sS'Jonathan Stewart'
p1885
I4800
sS'Damien Williams'
p1886
I3000
sS'Tim Hightower'
p1887
I3300
sS'Brandon Bolden'
p1888
I3000
sS'Jeremy Langford'
p1889
I5200
sS'Daryl Richardson'
p1890
I3000
sS'Knile Davis'
p1891
I3000
sS'Anthony Sherman'
p1892
I3000
sS'Troymaine Pope'
p1893
I3000
sS'Patrick DiMarco'
p1894
I3000
sS'Peyton Barber'
p1895
I3000
sS'Aaron Ripkowski'
p1896
I3000
sS'Carlos Hyde'
p1897
I4400
sS'Orleans Darkwa'
p1898
I3000
sS'Kenjon Barner'
p1899
I3000
sS'Arian Foster'
p1900
I5500
sS'Jordan Todman'
p1901
I3000
sS'Latavius Murray'
p1902
I5700
sS'Cameron Artis-Payne'
p1903
I3000
sS'DuJuan Harris'
p1904
I3000
sS'Shane Vereen'
p1905
I3700
sS'C.J. Prosise'
p1906
I3300
sS'Josh Ferguson'
p1907
I3000
sS'Spencer Ware'
p1908
I5700
sS'Justin Forsett'
p1909
I3900
sS'Paul Lasike'
p1910
I3000
sS'Chris Thompson'
p1911
I3400
sS'Jacquizz Rodgers'
p1912
I3000
sS'Charcandrick West'
p1913
I3500
sS'Mike Davis'
p1914
I3000
sS'Kyle Juszczyk'
p1915
I3000
sS'Jordan Howard'
p1916
I3300
sS'Travaris Cadet'
p1917
I3100
sS"Ka'Deem Carey"
p1918
I3100
sS'Devonta Freeman'
p1919
I5800
sS'Alfred Blue'
p1920
I3400
sS'Kenneth Farrow'
p1921
I3000
sS'Jonathan Williams'
p1922
I3000
sS'Mike Gillislee'
p1923
I3300
sS'Malcolm Johnson'
p1924
I3000
sS'Bilal Powell'
p1925
I3400
sS'Jerome Felton'
p1926
I3000
sS'Matt Jones'
p1927
I4100
sS'Dwayne Washington'
p1928
I3600
sS'Lamar Miller'
p1929
I7200
sS'Javorius Allen'
p1930
I3000
sS'DeAndre Washington'
p1931
I3400
sS'Jay Prosch'
p1932
I3000
sS'Andre Williams'
p1933
I3000
sS'Marcus Murphy'
p1934
I3000
sS'Matt Asiata'
p1935
I3000
sS'Robert Turbin'
p1936
I3000
sS'James Develin'
p1937
I3000
sS'Zach Line'
p1938
I3000
sS'Thomas Rawls'
p1939
I5500
sS'Jamize Olawale'
p1940
I3000
ssS'TE'
p1941
(dp1942
S'Will Tye'
p1943
I2600
sS'Lee Smith'
p1944
I2500
sS'Maxx Williams'
p1945
I2500
sS'Brent Celek'
p1946
I2800
sS'Jason Witten'
p1947
I4300
sS'Greg Scruggs'
p1948
I2500
sS'Neal Sterling'
p1949
I2500
sS'Levine Toilolo'
p1950
I2500
sS'Ben Koyack'
p1951
I2500
sS'Clay Harbor'
p1952
I2500
sS'Larry Donnell'
p1953
I2700
sS'Garrett Celek'
p1954
I2500
sS'John Phillips'
p1955
I2500
sS'Logan Paulsen'
p1956
I2500
sS'Jordan Reed'
p1957
I6500
sS'Mychal Rivera'
p1958
I2500
sS'Marcedes Lewis'
p1959
I2500
sS'Hunter Henry'
p1960
I2500
sS'Trey Burton'
p1961
I2500
sS'Jermaine Gresham'
p1962
I2500
sS'Cory Harkey'
p1963
I2500
sS'Tyler Higbee'
p1964
I2500
sS"James O'Shaughnessy"
p1965
I2500
sS'Seth DeValve'
p1966
I2500
sS'Erik Swoope'
p1967
I2500
sS'Stephen Anderson'
p1968
I2500
sS'Vance McDonald'
p1969
I2900
sS'Jordan Cameron'
p1970
I2900
sS'Temarrick Hemingway'
p1971
I2500
sS'Clark Harris'
p1972
I2500
sS'Coby Fleener'
p1973
I3300
sS'Gary Barnidge'
p1974
I4000
sS'Cameron Brate'
p1975
I2500
sS'Beau Brinkley'
p1976
I2500
sS'Jared Cook'
p1977
I2900
sS'Kyle Rudolph'
p1978
I3100
sS'Dennis Pitta'
p1979
I3400
sS'Kyle Nelson'
p1980
I2500
sS'Nick Vannett'
p1981
I2500
sS'Zach Ertz'
p1982
I3900
sS'Anthony Fasano'
p1983
I2500
sS'Phillip Supernaw'
p1984
I2500
sS'Orson Charles'
p1985
I2500
sS'Richard Rodgers'
p1986
I2700
sS'Patrick Scales'
p1987
I2500
sS'Darren Fells'
p1988
I2500
sS'Martellus Bennett'
p1989
I4700
sS'Khari Lee'
p1990
I2500
sS'MyCole Pruitt'
p1991
I2500
sS'Rob Gronkowski'
p1992
I6800
sS'Luke Stocker'
p1993
I2500
sS'Chris Manhertz'
p1994
I2500
sS'MarQueis Gray'
p1995
I2500
sS"Nick O'Leary"
p1996
I2500
sS'Demetrius Harris'
p1997
I2500
sS'James Winchester'
p1998
I2500
sS'Clive Walford'
p1999
I2800
sS'Jesse James'
p2000
I3500
sS'Austin Hooper'
p2001
I2500
sS'Troy Niklas'
p2002
I2500
sS'Scott Simonson'
p2003
I2500
sS'Austin Seferian-Jenkins'
p2004
I2900
sS'Jace Amaro'
p2005
I2500
sS'Ed Dickson'
p2006
I2500
sS'Zach Miller'
p2007
I2900
sS'Dwayne Allen'
p2008
I3800
sS'Dion Sims'
p2009
I2500
sS'Brandon Bostick'
p2010
I2500
sS'A.J. Derby'
p2011
I2500
sS'Ryan Griffin'
p2012
I2500
sS'Gavin Escobar'
p2013
I2500
sS'Jimmy Graham'
p2014
I3000
sS'Antonio Gates'
p2015
I4600
sS'Kellen Davis'
p2016
I2500
sS'Vernon Davis'
p2017
I2700
sS'David Johnson'
p2018
I2500
sS'Luke Willson'
p2019
I2500
sS'Blake Bell'
p2020
I2500
sS'Jack Doyle'
p2021
I2500
sS'David Morgan'
p2022
I2500
sS'Geoff Swaim'
p2023
I2500
sS'Josh Hill'
p2024
I2500
sS'Julius Thomas'
p2025
I4600
sS'Sean McGrath'
p2026
I2500
sS'Jerell Adams'
p2027
I2500
sS'Travis Kelce'
p2028
I4700
sS'Tyler Kroft'
p2029
I2500
sS'Crockett Gillmore'
p2030
I2500
sS'Brandon Myers'
p2031
I2500
sS'Charles Clay'
p2032
I2900
sS'Jim Dray'
p2033
I2500
sS'Joshua Perkins'
p2034
I2500
sS'C.J. Uzomah'
p2035
I2500
sS'Greg Olsen'
p2036
I5800
sS'Rhett Ellison'
p2037
I2500
sS'Justin Perillo'
p2038
I2500
sS'Eric Ebron'
p2039
I3700
sS'Delanie Walker'
p2040
I5000
sS'Kevin McDermott'
p2041
I2500
sS'Tyler Eifert'
p2042
I4500
sS'Ryan Hewitt'
p2043
I2500
sS'C.J. Fiedorowicz'
p2044
I2500
sS'Randall Telfer'
p2045
I2500
sS'Jeff Heuerman'
p2046
I2500
sS'Xavier Grimble'
p2047
I2500
sS'Andrew DePaola'
p2048
I2500
sS'Jacob Tamme'
p2049
I3200
sS'Lance Kendricks'
p2050
I2700
sS'Ross Travis'
p2051
I2500
sS'Virgil Green'
p2052
I3000
sS'Andrew Quarless'
p2053
I2500
sS'Cole Wick'
p2054
I2500
sS'Brandon Williams'
p2055
I2500
sS'Niles Paul'
p2056
I2500
sssI4
(dp2057
S'DST'
p2058
(dp2059
S'Broncos'
p2060
I3700
sS'Vikings'
p2061
I3600
sS'Bears'
p2062
I2500
sS'Falcons'
p2063
I2400
sS'Saints'
p2064
I2000
sS'Chargers'
p2065
I2300
sS'Raiders'
p2066
I2700
sS'Lions'
p2067
I3100
sS'Browns'
p2068
I2500
sS'Steelers'
p2069
I2800
sS'Giants'
p2070
I2900
sS'Buccaneers'
p2071
I2600
sS'Cardinals'
p2072
I3900
sS'Bengals'
p2073
I3200
sS'Chiefs'
p2074
I3000
sS'Dolphins'
p2075
I2700
sS'Jaguars'
p2076
I2400
sS'Seahawks'
p2077
I3800
sS'Jets'
p2078
I2800
sS'Ravens'
p2079
I2400
sS'Colts'
p2080
I2200
sS'Titans'
p2081
I2400
sS'Rams'
p2082
I2700
sS'Bills'
p2083
I2600
sS'Texans'
p2084
I3200
sS'49ers'
p2085
I2600
sS'Patriots'
p2086
I3300
sS'Cowboys'
p2087
I2900
sS'Panthers'
p2088
I3400
sS'Redskins'
p2089
I3500
ssS'QB'
p2090
(dp2091
S'Matt Ryan'
p2092
I7000
sS'Ryan Tannehill'
p2093
I5800
sS'Sean Mannion'
p2094
I5000
sS'Philip Rivers'
p2095
I6900
sS'Chad Henne'
p2096
I5000
sS'AJ McCarron'
p2097
I5000
sS'Colt McCoy'
p2098
I5000
sS'Cam Newton'
p2099
I7800
sS'Josh McCown'
p2100
I5000
sS'Mike Glennon'
p2101
I5000
sS'Ryan Griffin'
p2102
I5000
sS'Connor Cook'
p2103
I5000
sS'Charlie Whitehurst'
p2104
I5000
sS'Ryan Mallett'
p2105
I5000
sS'Luke McCown'
p2106
I5000
sS'Jimmy Garoppolo'
p2107
I5200
sS'Alex Smith'
p2108
I5600
sS'Dan Orlovsky'
p2109
I5000
sS'Matt Schaub'
p2110
I5000
sS'Case Keenum'
p2111
I5000
sS'Andy Dalton'
p2112
I6100
sS'Tyrod Taylor'
p2113
I5400
sS'Christian Ponder'
p2114
I5000
sS'Matt Moore'
p2115
I5000
sS'Kirk Cousins'
p2116
I6500
sS'Nate Sudfeld'
p2117
I5000
sS'Jameis Winston'
p2118
I5400
sS'Brandon Allen'
p2119
I5000
sS'Ben Roethlisberger'
p2120
I7100
sS'Austin Davis'
p2121
I5000
sS'Russell Wilson'
p2122
I6600
sS'Paxton Lynch'
p2123
I5000
sS'Shaun Hill'
p2124
I5000
sS'Landry Jones'
p2125
I5000
sS'Andrew Luck'
p2126
I7400
sS'Tyler Bray'
p2127
I5000
sS'Christian Hackenberg'
p2128
I5000
sS'Brandon Weeden'
p2129
I5000
sS'Trevone Boykin'
p2130
I5000
sS'Jay Cutler'
p2131
I5300
sS'Dak Prescott'
p2132
I5700
sS'Brock Osweiler'
p2133
I5800
sS'Joe Webb'
p2134
I5000
sS'Nick Foles'
p2135
I5000
sS'Geno Smith'
p2136
I5000
sS'Brian Hoyer'
p2137
I5000
sS'Matt Cassel'
p2138
I5000
sS'Eli Manning'
p2139
I6100
sS'Mark Sanchez'
p2140
I5000
sS'Matt McGloin'
p2141
I5000
sS'Jacoby Brissett'
p2142
I5100
sS'Carson Palmer'
p2143
I6300
sS'Sam Bradford'
p2144
I5100
sS'Jared Goff'
p2145
I5000
sS'Tom Savage'
p2146
I5000
sS'Derek Anderson'
p2147
I5000
sS'EJ Manuel'
p2148
I5000
sS'Jeff Driskel'
p2149
I5000
sS'Blaine Gabbert'
p2150
I5000
sS'Derek Carr'
p2151
I6700
sS'Tony Romo'
p2152
I6000
sS'Marcus Mariota'
p2153
I5500
sS'Matthew Stafford'
p2154
I7300
sS'Josh Johnson'
p2155
I5000
sS'Colin Kaepernick'
p2156
I5000
sS'Ryan Fitzpatrick'
p2157
I5300
sS'Kellen Clemens'
p2158
I5000
sS'Trevor Siemian'
p2159
I5400
sS'Joe Flacco'
p2160
I5900
sS'Drew Stanton'
p2161
I5000
sS'Zach Mettenberger'
p2162
I5000
sS'Blake Bortles'
p2163
I6400
sS'Drew Brees'
p2164
I7600
sS'Cardale Jones'
p2165
I5000
sS'Bryce Petty'
p2166
I5000
sS'Matt Barkley'
p2167
I5000
sS'Scott Tolzien'
p2168
I5000
sS'Cody Kessler'
p2169
I5000
sS'Ryan Nassib'
p2170
I5000
ssS'WR'
p2171
(dp2172
S'Tyler Lockett'
p2173
I3900
sS'Chester Rogers'
p2174
I3000
sS'Deonte Thompson'
p2175
I3000
sS'Andre Holmes'
p2176
I3000
sS'Dwayne Harris'
p2177
I3000
sS'Lucky Whitehead'
p2178
I3000
sS'Golden Tate'
p2179
I5800
sS'Charone Peake'
p2180
I3000
sS'Tajae Sharpe'
p2181
I5000
sS'Anquan Boldin'
p2182
I4200
sS'Kenny Stills'
p2183
I3500
sS'Kendall Wright'
p2184
I3000
sS'DeSean Jackson'
p2185
I6200
sS'Jamison Crowder'
p2186
I4200
sS'Demaryius Thomas'
p2187
I6700
sS'Tavon Austin'
p2188
I4000
sS'Markus Wheaton'
p2189
I4100
sS'Amari Cooper'
p2190
I7600
sS'Josh Doctson'
p2191
I3000
sS'Justin Hardy'
p2192
I3000
sS'Albert Wilson'
p2193
I3000
sS'Sterling Shepard'
p2194
I5800
sS'Doug Baldwin'
p2195
I6100
sS'Justin Hunter'
p2196
I3000
sS'Jarvis Landry'
p2197
I6900
sS'Danny Amendola'
p2198
I3600
sS'Travis Benjamin'
p2199
I5900
sS'Allen Robinson'
p2200
I8000
sS'Mohamed Sanu'
p2201
I5700
sS'Harry Douglas'
p2202
I3000
sS'Quan Bray'
p2203
I3000
sS'Mike Thomas'
p2204
I3000
sS'Griff Whalen'
p2205
I3000
sS'Jeremy Maclin'
p2206
I6000
sS'Adam Humphries'
p2207
I3000
sS'Bradley Marquez'
p2208
I3000
sS'Chris Moore'
p2209
I3000
sS'Laquon Treadwell'
p2210
I3000
sS'Cody Latimer'
p2211
I3000
sS'Brandon Tate'
p2212
I3000
sS'Eric Weems'
p2213
I3000
sS'Marquise Goodwin'
p2214
I3000
sS'Julian Edelman'
p2215
I5800
sS'Tanner McEvoy'
p2216
I3000
sS'Ted Ginn'
p2217
I3700
sS'Malcolm Mitchell'
p2218
I3000
sS'Andre Roberts'
p2219
I3000
sS'Breshad Perriman'
p2220
I3000
sS'Jermaine Kearse'
p2221
I3200
sS'Allen Hurns'
p2222
I4800
sS'Phillip Dorsett'
p2223
I4700
sS'Sammy Watkins'
p2224
I5400
sS'Jalin Marshall'
p2225
I3000
sS'Braxton Miller'
p2226
I3000
sS'Brandon Coleman'
p2227
I3000
sS"De'Anthony Thomas"
p2228
I3000
sS'Tyreek Hill'
p2229
I3000
sS'Will Fuller'
p2230
I5300
sS'Rishard Matthews'
p2231
I3100
sS'Marqise Lee'
p2232
I3100
sS'Jaron Brown'
p2233
I3300
sS'Devin Funchess'
p2234
I3600
sS'Tommylee Lewis'
p2235
I3000
sS'Brandin Cooks'
p2236
I7400
sS'Ryan Grant'
p2237
I3000
sS'Damiere Byrd'
p2238
I3000
sS'Rashad Greene'
p2239
I3000
sS'Darrius Heyward-Bey'
p2240
I3000
sS'Matthew Slater'
p2241
I3000
sS'Alex Erickson'
p2242
I3000
sS'Michael Thomas'
p2243
I3800
sS'Andrew Hawkins'
p2244
I3000
sS'Paul Richardson'
p2245
I3000
sS'Rashad Ross'
p2246
I3000
sS'James Wright'
p2247
I3000
sS'Sammie Coates'
p2248
I3600
sS'Charles Johnson'
p2249
I3000
sS'Michael Crabtree'
p2250
I6400
sS'Terrance Williams'
p2251
I3100
sS'Eric Decker'
p2252
I6300
sS'Arrelious Benn'
p2253
I3000
sS'Aldrick Robinson'
p2254
I3000
sS'Keith Mumphery'
p2255
I3000
sS'Chris Conley'
p2256
I3000
sS'Jaelen Strong'
p2257
I3100
sS'J.J. Nelson'
p2258
I3000
sS'Jarius Wright'
p2259
I3000
sS'Seth Roberts'
p2260
I3500
sS'Brandon LaFell'
p2261
I3200
sS'Pharoh Cooper'
p2262
I3000
sS'Devin Street'
p2263
I3000
sS'Cameron Meredith'
p2264
I3000
sS'Rod Streater'
p2265
I3000
sS'A.J. Green'
p2266
I8500
sS'Bennie Fowler'
p2267
I3000
sS'Robert Woods'
p2268
I3400
sS'Terrelle Pryor'
p2269
I4300
sS'Julio Jones'
p2270
I9200
sS'Kelvin Benjamin'
p2271
I7100
sS'Cole Beasley'
p2272
I3900
sS'Cody Core'
p2273
I3000
sS'Corey Coleman'
p2274
I4800
sS'Cecil Shorts'
p2275
I3000
sS'Antonio Brown'
p2276
I9700
sS'Russell Shepard'
p2277
I3000
sS'Eddie Royal'
p2278
I3500
sS'Willie Snead'
p2279
I6600
sS'Nelson Spruce'
p2280
I3000
sS'DeVante Parker'
p2281
I5200
sS'Adam Thielen'
p2282
I3100
sS'DeAndre Hopkins'
p2283
I8400
sS'Demarcus Robinson'
p2284
I3000
sS'Victor Cruz'
p2285
I4600
sS'Jordan Taylor'
p2286
I3000
sS'Jeremy Kerley'
p2287
I3400
sS'Greg Salas'
p2288
I3000
sS'Emmanuel Sanders'
p2289
I6400
sS'Kenny Britt'
p2290
I3900
sS'Odell Beckham'
p2291
I8700
sS'Cordarrelle Patterson'
p2292
I3000
sS'Jordan Norwood'
p2293
I3000
sS'Tavarres King'
p2294
I3000
sS'Kevin White'
p2295
I3400
sS'Brian Quick'
p2296
I3000
sS'Steve Smith'
p2297
I4500
sS'Johnny Holton'
p2298
I3000
sS'T.Y. Hilton'
p2299
I7000
sS'John Brown'
p2300
I4300
sS'Jordan Payton'
p2301
I3000
sS'Jakeem Grant'
p2302
I3000
sS'Quincy Enunwa'
p2303
I4400
sS'Dontrelle Inman'
p2304
I3300
sS'Taylor Gabriel'
p2305
I3000
sS'Marc Mariani'
p2306
I3000
sS'Mike Wallace'
p2307
I5200
sS'Torrey Smith'
p2308
I3900
sS'Corey Brown'
p2309
I3000
sS'Roger Lewis'
p2310
I3000
sS'Michael Floyd'
p2311
I5100
sS'Mike Evans'
p2312
I6500
sS'Quinton Patton'
p2313
I3000
sS'Freddie Martino'
p2314
I3000
sS'Walt Powell'
p2315
I3000
sS'Tyler Boyd'
p2316
I3400
sS'Rashard Higgins'
p2317
I3000
sS'Brice Butler'
p2318
I3000
sS'Andre Johnson'
p2319
I3200
sS'Alshon Jeffery'
p2320
I7500
sS'Brandon Marshall'
p2321
I7000
sS'Kamar Aiken'
p2322
I3000
sS'Robby Anderson'
p2323
I3000
sS'Stefon Diggs'
p2324
I6100
sS'Joshua Bellamy'
p2325
I3000
sS'Larry Fitzgerald'
p2326
I7200
sS'Devin Hester'
p2327
I3000
sS'Brenton Bersin'
p2328
I3000
sS'Ricardo Louis'
p2329
I3000
sS'Marvin Jones'
p2330
I7300
sS'Pierre Garcon'
p2331
I4000
sS'Chris Hogan'
p2332
I3700
sS'Donte Moncrief'
p2333
I6200
sS'Leonte Carroo'
p2334
I3000
sS'Dez Bryant'
p2335
I7900
sS'Vincent Jackson'
p2336
I3400
sS'Tyrell Williams'
p2337
I4400
sS'Aaron Burbridge'
p2338
I3000
sS'Eli Rogers'
p2339
I3500
ssS'RB'
p2340
(dp2341
S'Taiwan Jones'
p2342
I3000
sS'Frank Gore'
p2343
I5200
sS'Jay Ajayi'
p2344
I4000
sS'Charles Sims'
p2345
I5600
sS'Jerick McKinnon'
p2346
I3900
sS'Terrance West'
p2347
I3400
sS'Jalston Fowler'
p2348
I3000
sS'Rob Kelley'
p2349
I3400
sS'D.J. Foster'
p2350
I3000
sS'Fozzy Whittaker'
p2351
I3900
sS'Daniel Lasco'
p2352
I3000
sS'Kenneth Dixon'
p2353
I3300
sS'Tyler Ervin'
p2354
I3000
sS'Alex Collins'
p2355
I3000
sS'Theo Riddick'
p2356
I5200
sS'Corey Grant'
p2357
I3000
sS'Malcolm Brown'
p2358
I3000
sS'Dexter McCluster'
p2359
I3500
sS'Christine Michael'
p2360
I6000
sS'Rashad Jennings'
p2361
I4700
sS'Jeremy Hill'
p2362
I4100
sS'Ezekiel Elliott'
p2363
I6900
sS'Tevin Coleman'
p2364
I4500
sS'Shaun Draughn'
p2365
I3300
sS'Mike Tolbert'
p2366
I3000
sS'Jonathan Grimes'
p2367
I3000
sS'Paul Perkins'
p2368
I3000
sS'Reggie Bush'
p2369
I3000
sS'Devontae Booker'
p2370
I3000
sS'Jamaal Charles'
p2371
I5400
sS'C.J. Anderson'
p2372
I6500
sS'Denard Robinson'
p2373
I3000
sS'Derrick Henry'
p2374
I3500
sS'Fitzgerald Toussaint'
p2375
I3000
sS'Michael Burton'
p2376
I3000
sS'Bobby Rainey'
p2377
I3000
sS'Melvin Gordon'
p2378
I6300
sS'George Atkinson'
p2379
I3000
sS'Kenneth Farrow'
p2380
I3000
sS'DeAngelo Williams'
p2381
I6200
sS'Stepfan Taylor'
p2382
I3000
sS'Zach Zenner'
p2383
I3000
sS'Kapri Bibbs'
p2384
I3000
sS'Chris Johnson'
p2385
I3400
sS'LeGarrette Blount'
p2386
I5000
sS'Roosevelt Nix'
p2387
I3000
sS'Lance Dunbar'
p2388
I3000
sS'Andy Janovich'
p2389
I3000
sS'Antonio Andrews'
p2390
I3000
sS'Keith Smith'
p2391
I3000
sS'Chris Ivory'
p2392
I3700
sS'DeMarco Murray'
p2393
I6800
sS"Le'Veon Bell"
p2394
I7500
sS'Isaiah Crowell'
p2395
I4400
sS'John Kuhn'
p2396
I3000
sS'Darius Jackson'
p2397
I3000
sS'Todd Gurley'
p2398
I6700
sS'Duke Johnson'
p2399
I4000
sS'Terrence Magee'
p2400
I3000
sS'C.J. Prosise'
p2401
I3100
sS'Giovani Bernard'
p2402
I4700
sS'James White'
p2403
I3600
sS'T.J. Yeldon'
p2404
I4600
sS'Andre Ellington'
p2405
I3200
sS'Alfred Morris'
p2406
I3900
sS'Mark Ingram'
p2407
I5900
sS'Chase Reynolds'
p2408
I3000
sS'Rod Smith'
p2409
I3000
sS'Raheem Mostert'
p2410
I3000
sS'Benny Cunningham'
p2411
I3200
sS'Kenyan Drake'
p2412
I3600
sS'Marcel Reece'
p2413
I3000
sS'Derek Watt'
p2414
I3000
sS'Isaiah Pead'
p2415
I3000
sS'Doug Martin'
p2416
I5300
sS'David Johnson'
p2417
I7800
sS'Rex Burkhead'
p2418
I3000
sS'Jonathan Stewart'
p2419
I4800
sS'Bilal Powell'
p2420
I3300
sS'Damien Williams'
p2421
I3000
sS'Tim Hightower'
p2422
I3300
sS'Brandon Bolden'
p2423
I3000
sS'Jeremy Langford'
p2424
I4800
sS'Daryl Richardson'
p2425
I3000
sS'Knile Davis'
p2426
I3000
sS'Anthony Sherman'
p2427
I3000
sS'Troymaine Pope'
p2428
I3000
sS'Patrick DiMarco'
p2429
I3000
sS'Peyton Barber'
p2430
I3000
sS'Carlos Hyde'
p2431
I4200
sS'Orleans Darkwa'
p2432
I3000
sS'Arian Foster'
p2433
I5300
sS'Jordan Todman'
p2434
I3000
sS'Latavius Murray'
p2435
I4900
sS'Cameron Artis-Payne'
p2436
I3400
sS'DuJuan Harris'
p2437
I3000
sS'Shane Vereen'
p2438
I4300
sS'Josh Ferguson'
p2439
I3000
sS'Spencer Ware'
p2440
I5700
sS'Javorius Allen'
p2441
I3000
sS'Justin Forsett'
p2442
I3800
sS'Chris Thompson'
p2443
I3400
sS'Jacquizz Rodgers'
p2444
I3000
sS'Charcandrick West'
p2445
I3400
sS'Mike Davis'
p2446
I3000
sS'Ronnie Hillman'
p2447
I3000
sS'Kyle Juszczyk'
p2448
I3000
sS'Jordan Howard'
p2449
I3700
sS'Travaris Cadet'
p2450
I3100
sS"Ka'Deem Carey"
p2451
I3100
sS'Devonta Freeman'
p2452
I5500
sS'Alfred Blue'
p2453
I3100
sS'Matt Forte'
p2454
I6600
sS'Jonathan Williams'
p2455
I3000
sS'Mike Gillislee'
p2456
I3000
sS'Malcolm Johnson'
p2457
I3000
sS'Jalen Richard'
p2458
I3400
sS'Jerome Felton'
p2459
I3000
sS'Matt Jones'
p2460
I4300
sS'Dwayne Washington'
p2461
I3800
sS'Lamar Miller'
p2462
I7000
sS'LeSean McCoy'
p2463
I6700
sS'DeAndre Washington'
p2464
I3300
sS'Jay Prosch'
p2465
I3000
sS'Marcus Murphy'
p2466
I3000
sS'Matt Asiata'
p2467
I3300
sS'Robert Turbin'
p2468
I3000
sS'James Develin'
p2469
I3000
sS'Zach Line'
p2470
I3000
sS'Thomas Rawls'
p2471
I4900
sS'Jamize Olawale'
p2472
I3000
ssS'TE'
p2473
(dp2474
S'Will Tye'
p2475
I2600
sS'Lee Smith'
p2476
I2500
sS'Maxx Williams'
p2477
I2500
sS'Jason Witten'
p2478
I4500
sS'Greg Scruggs'
p2479
I2500
sS'Neal Sterling'
p2480
I2500
sS'Levine Toilolo'
p2481
I2500
sS'Ben Koyack'
p2482
I2500
sS'Clay Harbor'
p2483
I2500
sS'Scott Simonson'
p2484
I2500
sS'Garrett Celek'
p2485
I2500
sS'Geoff Swaim'
p2486
I2500
sS'Logan Paulsen'
p2487
I2500
sS'Jordan Reed'
p2488
I6300
sS'Alan Cross'
p2489
I2500
sS'Mychal Rivera'
p2490
I2500
sS'Marcedes Lewis'
p2491
I2500
sS'Hunter Henry'
p2492
I2700
sS'Jermaine Gresham'
p2493
I2500
sS'Cory Harkey'
p2494
I2500
sS'Tyler Higbee'
p2495
I2500
sS"James O'Shaughnessy"
p2496
I2500
sS'Seth DeValve'
p2497
I2500
sS'Erik Swoope'
p2498
I2500
sS'Stephen Anderson'
p2499
I2500
sS'Vance McDonald'
p2500
I2700
sS'Jordan Cameron'
p2501
I2900
sS'Temarrick Hemingway'
p2502
I2500
sS'Blake Bell'
p2503
I2500
sS'Coby Fleener'
p2504
I3200
sS'Braedon Bowman'
p2505
I2500
sS'Gary Barnidge'
p2506
I3600
sS'Cameron Brate'
p2507
I2800
sS'Beau Brinkley'
p2508
I2500
sS'Kyle Rudolph'
p2509
I3400
sS'Dennis Pitta'
p2510
I3900
sS'Kyle Nelson'
p2511
I2500
sS'Nick Vannett'
p2512
I2500
sS'Anthony Fasano'
p2513
I2500
sS'Phillip Supernaw'
p2514
I2500
sS'Orson Charles'
p2515
I2500
sS'Patrick Scales'
p2516
I2500
sS'Darren Fells'
p2517
I2500
sS'Martellus Bennett'
p2518
I3500
sS'Khari Lee'
p2519
I2500
sS'MyCole Pruitt'
p2520
I2500
sS'Rob Gronkowski'
p2521
I6500
sS'Luke Stocker'
p2522
I2500
sS'Chris Manhertz'
p2523
I2500
sS'MarQueis Gray'
p2524
I2500
sS"Nick O'Leary"
p2525
I2500
sS'Demetrius Harris'
p2526
I2500
sS'James Winchester'
p2527
I2500
sS'Clive Walford'
p2528
I2700
sS'Jesse James'
p2529
I3100
sS'Austin Hooper'
p2530
I2500
sS'Troy Niklas'
p2531
I2500
sS'Larry Donnell'
p2532
I2600
sS'Jace Amaro'
p2533
I2600
sS'Ed Dickson'
p2534
I2500
sS'Zach Miller'
p2535
I2700
sS'Dwayne Allen'
p2536
I3800
sS'Dion Sims'
p2537
I2500
sS'Brandon Bostick'
p2538
I2500
sS'A.J. Derby'
p2539
I2500
sS'Ryan Griffin'
p2540
I2600
sS'Gavin Escobar'
p2541
I2500
sS'Jimmy Graham'
p2542
I4000
sS'Antonio Gates'
p2543
I4600
sS'Kellen Davis'
p2544
I2500
sS'Vernon Davis'
p2545
I2500
sS'David Johnson'
p2546
I2500
sS'Ross Travis'
p2547
I2500
sS'Clark Harris'
p2548
I2500
sS'Jack Doyle'
p2549
I2500
sS'David Morgan'
p2550
I2500
sS'John Phillips'
p2551
I2500
sS'Josh Hill'
p2552
I2500
sS'Julius Thomas'
p2553
I4400
sS'Sean McGrath'
p2554
I2500
sS'Jerell Adams'
p2555
I2500
sS'Travis Kelce'
p2556
I4800
sS'Tyler Kroft'
p2557
I2500
sS'Crockett Gillmore'
p2558
I2500
sS'Brandon Myers'
p2559
I2500
sS'Charles Clay'
p2560
I2600
sS'Jim Dray'
p2561
I2500
sS'Joshua Perkins'
p2562
I2500
sS'C.J. Uzomah'
p2563
I2500
sS'Greg Olsen'
p2564
I6000
sS'Rhett Ellison'
p2565
I2500
sS'Eric Ebron'
p2566
I3700
sS'Delanie Walker'
p2567
I5000
sS'Kevin McDermott'
p2568
I2500
sS'Tyler Eifert'
p2569
I4500
sS'Ryan Hewitt'
p2570
I2500
sS'C.J. Fiedorowicz'
p2571
I2500
sS'Randall Telfer'
p2572
I2500
sS'Jeff Heuerman'
p2573
I2500
sS'Xavier Grimble'
p2574
I2500
sS'Asante Cleveland'
p2575
I2500
sS'Andrew DePaola'
p2576
I2500
sS'Jacob Tamme'
p2577
I3400
sS'Lance Kendricks'
p2578
I2600
sS'Luke Willson'
p2579
I2500
sS'Virgil Green'
p2580
I3000
sS'Cole Wick'
p2581
I2500
sS'Brandon Williams'
p2582
I2500
sS'Niles Paul'
p2583
I2500
sssI5
(dp2584
S'DST'
p2585
(dp2586
S'Broncos'
p2587
I3800
sS'Vikings'
p2588
I3400
sS'Bears'
p2589
I2200
sS'Falcons'
p2590
I2300
sS'Chargers'
p2591
I2100
sS'Raiders'
p2592
I2400
sS'Lions'
p2593
I2500
sS'Browns'
p2594
I2200
sS'Eagles'
p2595
I2900
sS'Steelers'
p2596
I3500
sS'Giants'
p2597
I2600
sS'Buccaneers'
p2598
I2400
sS'Cardinals'
p2599
I3700
sS'Bengals'
p2600
I2800
sS'Redskins'
p2601
I2700
sS'Jets'
p2602
I2800
sS'Ravens'
p2603
I3000
sS'Colts'
p2604
I2600
sS'Packers'
p2605
I3200
sS'Titans'
p2606
I2400
sS'Rams'
p2607
I3200
sS'Bills'
p2608
I3100
sS'Panthers'
p2609
I3300
sS'Texans'
p2610
I3000
sS'49ers'
p2611
I2600
sS'Patriots'
p2612
I3700
sS'Cowboys'
p2613
I2700
sS'Dolphins'
p2614
I2900
ssS'QB'
p2615
(dp2616
S'Ryan Tannehill'
p2617
I5700
sS'Sean Mannion'
p2618
I5000
sS'Carson Wentz'
p2619
I6400
sS'Tom Savage'
p2620
I5000
sS'Landry Jones'
p2621
I5000
sS'Ryan Griffin'
p2622
I5000
sS'Colt McCoy'
p2623
I5000
sS'Cam Newton'
p2624
I7900
sS'Josh McCown'
p2625
I5000
sS'Zach Mettenberger'
p2626
I5000
sS'Derek Anderson'
p2627
I5500
sS'Connor Cook'
p2628
I5000
sS'Christian Ponder'
p2629
I5000
sS'Ryan Mallett'
p2630
I5000
sS'Philip Rivers'
p2631
I6900
sS'Jimmy Garoppolo'
p2632
I5200
sS'Joe Callahan'
p2633
I5000
sS'Dan Orlovsky'
p2634
I5000
sS'Matt Schaub'
p2635
I5000
sS'EJ Manuel'
p2636
I5000
sS'Jeff Driskel'
p2637
I5000
sS'AJ McCarron'
p2638
I5000
sS'Tyrod Taylor'
p2639
I5200
sS'Matt Ryan'
p2640
I7100
sS'Matt Moore'
p2641
I5000
sS'Kirk Cousins'
p2642
I6100
sS'Nate Sudfeld'
p2643
I5000
sS'Jameis Winston'
p2644
I5800
sS'Ben Roethlisberger'
p2645
I7200
sS'Austin Davis'
p2646
I5000
sS'Aaron Rodgers'
p2647
I7700
sS'Joe Webb'
p2648
I5000
sS'Shaun Hill'
p2649
I5000
sS'Scott Tolzien'
p2650
I5000
sS'Andrew Luck'
p2651
I7300
sS'Christian Hackenberg'
p2652
I5000
sS'Brandon Weeden'
p2653
I5000
sS'Jay Cutler'
p2654
I5300
sS'Dak Prescott'
p2655
I5600
sS'Brock Osweiler'
p2656
I5300
sS'Paxton Lynch'
p2657
I5200
sS'Trevor Siemian'
p2658
I5200
sS'Geno Smith'
p2659
I5000
sS'Brian Hoyer'
p2660
I5500
sS'Marcus Mariota'
p2661
I5400
sS'Ryan Nassib'
p2662
I5000
sS'Mark Sanchez'
p2663
I5000
sS'Matt McGloin'
p2664
I5000
sS'Tom Brady'
p2665
I7500
sS'Carson Palmer'
p2666
I6700
sS'Sam Bradford'
p2667
I5100
sS'Jared Goff'
p2668
I5000
sS'Jacoby Brissett'
p2669
I5000
sS'Case Keenum'
p2670
I5000
sS'Eli Manning'
p2671
I6000
sS'Blaine Gabbert'
p2672
I5000
sS'Andy Dalton'
p2673
I5900
sS'Tony Romo'
p2674
I6000
sS'Matt Cassel'
p2675
I5000
sS'Derek Carr'
p2676
I6800
sS'Colin Kaepernick'
p2677
I5000
sS'Ryan Fitzpatrick'
p2678
I5100
sS'Kellen Clemens'
p2679
I5000
sS'Brett Hundley'
p2680
I5000
sS'Joe Flacco'
p2681
I6200
sS'Drew Stanton'
p2682
I5000
sS'Josh Johnson'
p2683
I5000
sS'Matthew Stafford'
p2684
I6600
sS'Cardale Jones'
p2685
I5000
sS'Bryce Petty'
p2686
I5000
sS'Matt Barkley'
p2687
I5000
sS'Chase Daniel'
p2688
I5000
sS'Mike Glennon'
p2689
I5000
sS'Cody Kessler'
p2690
I5000
sS'Charlie Whitehurst'
p2691
I5000
ssS'WR'
p2692
(dp2693
S'Chester Rogers'
p2694
I3000
sS'Deonte Thompson'
p2695
I3000
sS'Dwayne Harris'
p2696
I3000
sS'Lucky Whitehead'
p2697
I3000
sS'Golden Tate'
p2698
I4900
sS'Ty Montgomery'
p2699
I3000
sS'Braxton Miller'
p2700
I3000
sS'Tajae Sharpe'
p2701
I4400
sS'Jeremy Ross'
p2702
I3000
sS'Josh Huff'
p2703
I3000
sS'Anquan Boldin'
p2704
I4000
sS'Kenny Stills'
p2705
I3600
sS'Dorial Green-Beckham'
p2706
I3200
sS'Kendall Wright'
p2707
I3000
sS'DeSean Jackson'
p2708
I5900
sS'Jamison Crowder'
p2709
I4600
sS'Tavon Austin'
p2710
I3700
sS'Markus Wheaton'
p2711
I3900
sS'Jakeem Grant'
p2712
I3000
sS'Amari Cooper'
p2713
I7200
sS'Jordan Taylor'
p2714
I3000
sS'Josh Doctson'
p2715
I3000
sS'Justin Hardy'
p2716
I3000
sS'Aaron Dobson'
p2717
I3000
sS'Sterling Shepard'
p2718
I5500
sS'Alshon Jeffery'
p2719
I7800
sS'Justin Hunter'
p2720
I3000
sS'Jarvis Landry'
p2721
I7000
sS'Danny Amendola'
p2722
I3900
sS'Travis Benjamin'
p2723
I6500
sS'Mohamed Sanu'
p2724
I4800
sS'Harry Douglas'
p2725
I3000
sS'Quan Bray'
p2726
I3000
sS'Mike Thomas'
p2727
I3000
sS'Griff Whalen'
p2728
I3000
sS'Andre Holmes'
p2729
I3000
sS'Adam Humphries'
p2730
I3000
sS'Bryce Treggs'
p2731
I3000
sS'Chris Moore'
p2732
I3000
sS'Laquon Treadwell'
p2733
I3000
sS'Cody Latimer'
p2734
I3000
sS'Brandon Tate'
p2735
I3000
sS'Eric Weems'
p2736
I3000
sS'Charone Peake'
p2737
I3000
sS'Marquise Goodwin'
p2738
I3000
sS'Julian Edelman'
p2739
I6700
sS'Ted Ginn'
p2740
I3600
sS'Malcolm Mitchell'
p2741
I3000
sS'Andre Roberts'
p2742
I3000
sS'Breshad Perriman'
p2743
I3000
sS'Eli Rogers'
p2744
I3300
sS'Jalin Marshall'
p2745
I3100
sS'Matthew Slater'
p2746
I3000
sS'Demaryius Thomas'
p2747
I6900
sS'Davante Adams'
p2748
I3900
sS'Will Fuller'
p2749
I5800
sS'Rishard Matthews'
p2750
I3300
sS'Bradley Marquez'
p2751
I3000
sS'Jaron Brown'
p2752
I3500
sS'Devin Funchess'
p2753
I3600
sS'Ryan Grant'
p2754
I3000
sS'Damiere Byrd'
p2755
I3000
sS'J.J. Nelson'
p2756
I3000
sS'Darrius Heyward-Bey'
p2757
I3000
sS'Terrelle Pryor'
p2758
I5800
sS'Antonio Brown'
p2759
I9800
sS'Andrew Hawkins'
p2760
I3000
sS'Jordan Norwood'
p2761
I3000
sS'Rashad Ross'
p2762
I3000
sS'James Wright'
p2763
I3000
sS'Sammie Coates'
p2764
I3600
sS'Charles Johnson'
p2765
I3000
sS'Michael Crabtree'
p2766
I6900
sS'Terrance Williams'
p2767
I3800
sS'Eric Decker'
p2768
I6000
sS'Aldrick Robinson'
p2769
I3000
sS'Keith Mumphery'
p2770
I3000
sS'Jaelen Strong'
p2771
I3100
sS'Jarius Wright'
p2772
I3000
sS'Seth Roberts'
p2773
I3400
sS'Brandon LaFell'
p2774
I3200
sS'Pharoh Cooper'
p2775
I3000
sS'Devin Street'
p2776
I3000
sS'Johnny Holton'
p2777
I3000
sS'Rod Streater'
p2778
I3000
sS'A.J. Green'
p2779
I8900
sS'Bennie Fowler'
p2780
I3000
sS'Robert Woods'
p2781
I3900
sS'Vincent Jackson'
p2782
I3200
sS'Keshawn Martin'
p2783
I3000
sS'Alex Erickson'
p2784
I3000
sS'Julio Jones'
p2785
I9600
sS'Kelvin Benjamin'
p2786
I7300
sS'Cole Beasley'
p2787
I4300
sS'Cody Core'
p2788
I3000
sS'Corey Coleman'
p2789
I4600
sS'Cecil Shorts'
p2790
I3000
sS'Mike Evans'
p2791
I7500
sS'Eddie Royal'
p2792
I4200
sS'Jared Abbrederis'
p2793
I3000
sS'Trevor Davis'
p2794
I3000
sS'Jeff Janis'
p2795
I3000
sS'Nelson Spruce'
p2796
I3000
sS'DeVante Parker'
p2797
I5000
sS'Adam Thielen'
p2798
I3100
sS'DeAndre Hopkins'
p2799
I7700
sS'Victor Cruz'
p2800
I4500
sS'Joshua Bellamy'
p2801
I3000
sS'Jeremy Kerley'
p2802
I3700
sS'Greg Salas'
p2803
I3000
sS'Emmanuel Sanders'
p2804
I6800
sS'Kenny Britt'
p2805
I3700
sS'Odell Beckham'
p2806
I8500
sS'Cordarrelle Patterson'
p2807
I3000
sS'Tavarres King'
p2808
I3000
sS'Kevin White'
p2809
I3800
sS'Randall Cobb'
p2810
I6200
sS'Brian Quick'
p2811
I3200
sS'Steve Smith'
p2812
I5300
sS'Cameron Meredith'
p2813
I3000
sS'T.Y. Hilton'
p2814
I7400
sS'John Brown'
p2815
I4400
sS'Jordan Payton'
p2816
I3000
sS'Jordy Nelson'
p2817
I7900
sS'Quincy Enunwa'
p2818
I4600
sS'Dontrelle Inman'
p2819
I4100
sS'Jordan Matthews'
p2820
I6800
sS'Taylor Gabriel'
p2821
I3000
sS'Marc Mariani'
p2822
I3000
sS'Mike Wallace'
p2823
I5100
sS'Torrey Smith'
p2824
I3900
sS'Corey Brown'
p2825
I3200
sS'Roger Lewis'
p2826
I3000
sS'Nelson Agholor'
p2827
I3500
sS'Michael Floyd'
p2828
I4900
sS'Quinton Patton'
p2829
I3000
sS'Freddie Martino'
p2830
I3000
sS'Walt Powell'
p2831
I3000
sS'Tyler Boyd'
p2832
I3100
sS'Rashard Higgins'
p2833
I3000
sS'Brice Butler'
p2834
I3500
sS'Andre Johnson'
p2835
I3200
sS'Russell Shepard'
p2836
I3000
sS'Brandon Marshall'
p2837
I7100
sS'Kamar Aiken'
p2838
I3000
sS'Robby Anderson'
p2839
I3100
sS'Stefon Diggs'
p2840
I6300
sS'Larry Fitzgerald'
p2841
I7200
sS'Devin Hester'
p2842
I3000
sS'Ricardo Louis'
p2843
I3000
sS'Marvin Jones'
p2844
I7600
sS'Pierre Garcon'
p2845
I3900
sS'Chris Hogan'
p2846
I4100
sS'Donte Moncrief'
p2847
I5700
sS'Leonte Carroo'
p2848
I3000
sS'Dez Bryant'
p2849
I7700
sS'Tyrell Williams'
p2850
I4700
sS'Aaron Burbridge'
p2851
I3000
sS'Phillip Dorsett'
p2852
I4800
ssS'RB'
p2853
(dp2854
S'Taiwan Jones'
p2855
I3000
sS'Frank Gore'
p2856
I5700
sS'Charles Sims'
p2857
I5500
sS'Jerick McKinnon'
p2858
I4000
sS'Jalston Fowler'
p2859
I3000
sS'Andre Ellington'
p2860
I3200
sS'D.J. Foster'
p2861
I3000
sS'Fozzy Whittaker'
p2862
I4100
sS'Kenneth Dixon'
p2863
I3600
sS'Tyler Ervin'
p2864
I3000
sS'Joique Bell'
p2865
I3200
sS'Theo Riddick'
p2866
I4900
sS'Mike Davis'
p2867
I3000
sS'Malcolm Brown'
p2868
I3000
sS'Darren Sproles'
p2869
I4300
sS'Dexter McCluster'
p2870
I3400
sS'Rashad Jennings'
p2871
I4500
sS'Jeremy Hill'
p2872
I4200
sS'Javorius Allen'
p2873
I3000
sS'Tevin Coleman'
p2874
I4100
sS'Shaun Draughn'
p2875
I3300
sS'Mike Tolbert'
p2876
I3000
sS'Jonathan Grimes'
p2877
I3000
sS'Paul Perkins'
p2878
I3300
sS'Roosevelt Nix'
p2879
I3000
sS'Reggie Bush'
p2880
I3000
sS'Devontae Booker'
p2881
I3000
sS'C.J. Anderson'
p2882
I6900
sS'Derrick Henry'
p2883
I3400
sS'Fitzgerald Toussaint'
p2884
I3000
sS'Michael Burton'
p2885
I3000
sS'Bobby Rainey'
p2886
I3300
sS'Melvin Gordon'
p2887
I7000
sS'George Atkinson'
p2888
I3000
sS'Kenneth Farrow'
p2889
I3000
sS'DeAngelo Williams'
p2890
I6100
sS'James Starks'
p2891
I3400
sS'Zach Zenner'
p2892
I3000
sS'Kapri Bibbs'
p2893
I3000
sS'Chris Johnson'
p2894
I3800
sS'LeGarrette Blount'
p2895
I5600
sS'Rob Kelley'
p2896
I3000
sS'Lance Dunbar'
p2897
I3000
sS'Andy Janovich'
p2898
I3000
sS'Wendell Smallwood'
p2899
I3400
sS'Antonio Andrews'
p2900
I3000
sS'Keith Smith'
p2901
I3000
sS'Kenyan Drake'
p2902
I3200
sS'DeMarco Murray'
p2903
I7200
sS'Eddie Lacy'
p2904
I5900
sS"Le'Veon Bell"
p2905
I7500
sS'Isaiah Crowell'
p2906
I4800
sS'Darius Jackson'
p2907
I3000
sS'Todd Gurley'
p2908
I6500
sS'Duke Johnson'
p2909
I4100
sS'Giovani Bernard'
p2910
I4400
sS'James White'
p2911
I3900
sS'LeSean McCoy'
p2912
I6600
sS'Terrance West'
p2913
I4800
sS'Bilal Powell'
p2914
I4000
sS'Alfred Morris'
p2915
I3600
sS'Chase Reynolds'
p2916
I3000
sS'Rod Smith'
p2917
I3000
sS'Raheem Mostert'
p2918
I3000
sS'Benny Cunningham'
p2919
I3200
sS'Jay Ajayi'
p2920
I3500
sS'Derek Watt'
p2921
I3000
sS'Isaiah Pead'
p2922
I3000
sS'Doug Martin'
p2923
I5300
sS'David Johnson'
p2924
I7900
sS'Rex Burkhead'
p2925
I3000
sS'Ryan Mathews'
p2926
I4600
sS'Jonathan Stewart'
p2927
I4500
sS'Damien Williams'
p2928
I3000
sS'Brandon Bolden'
p2929
I3000
sS'Jeremy Langford'
p2930
I4300
sS'Troymaine Pope'
p2931
I3000
sS'Patrick DiMarco'
p2932
I3000
sS'Peyton Barber'
p2933
I3000
sS'Stepfan Taylor'
p2934
I3000
sS'Aaron Ripkowski'
p2935
I3000
sS'Carlos Hyde'
p2936
I4800
sS'Orleans Darkwa'
p2937
I3700
sS'Kenjon Barner'
p2938
I3000
sS'Arian Foster'
p2939
I4700
sS'Jordan Todman'
p2940
I3000
sS'Latavius Murray'
p2941
I4200
sS'Cameron Artis-Payne'
p2942
I3300
sS'DuJuan Harris'
p2943
I3000
sS'Josh Ferguson'
p2944
I3000
sS'Justin Forsett'
p2945
I3500
sS'Chris Thompson'
p2946
I3300
sS'Jacquizz Rodgers'
p2947
I3000
sS'Robert Turbin'
p2948
I3000
sS'Ronnie Hillman'
p2949
I3000
sS'Kyle Juszczyk'
p2950
I3000
sS'Jordan Howard'
p2951
I5200
sS"Ka'Deem Carey"
p2952
I3100
sS'Devonta Freeman'
p2953
I5000
sS'Alfred Blue'
p2954
I3100
sS'Matt Forte'
p2955
I6200
sS'Jonathan Williams'
p2956
I3000
sS'Mike Gillislee'
p2957
I3000
sS'Malcolm Johnson'
p2958
I3000
sS'Jalen Richard'
p2959
I3300
sS'Jerome Felton'
p2960
I3000
sS'Matt Jones'
p2961
I4500
sS'Dwayne Washington'
p2962
I3800
sS'Lamar Miller'
p2963
I6300
sS'Ezekiel Elliott'
p2964
I6800
sS'DeAndre Washington'
p2965
I3400
sS'Jay Prosch'
p2966
I3000
sS'Matt Asiata'
p2967
I3500
sS'James Develin'
p2968
I3000
sS'Zach Line'
p2969
I3000
sS'Jamize Olawale'
p2970
I3000
ssS'TE'
p2971
(dp2972
S'Ifeanyi Momah'
p2973
I2500
sS'Will Tye'
p2974
I2600
sS'Lee Smith'
p2975
I2500
sS'Maxx Williams'
p2976
I2500
sS'Brent Celek'
p2977
I2700
sS'Jason Witten'
p2978
I4400
sS'Greg Scruggs'
p2979
I2500
sS'Levine Toilolo'
p2980
I2500
sS'Clay Harbor'
p2981
I2500
sS'Larry Donnell'
p2982
I2600
sS'Garrett Celek'
p2983
I2600
sS'John Phillips'
p2984
I2500
sS'Logan Paulsen'
p2985
I2500
sS'Jordan Reed'
p2986
I6600
sS'Alan Cross'
p2987
I2500
sS'Mychal Rivera'
p2988
I2500
sS'Hunter Henry'
p2989
I3300
sS'Trey Burton'
p2990
I2700
sS'Jermaine Gresham'
p2991
I2500
sS'Cory Harkey'
p2992
I2500
sS'Tyler Higbee'
p2993
I2500
sS'Seth DeValve'
p2994
I2500
sS'Erik Swoope'
p2995
I2500
sS'Stephen Anderson'
p2996
I2500
sS'Vance McDonald'
p2997
I2700
sS'Jordan Cameron'
p2998
I2900
sS'Temarrick Hemingway'
p2999
I2500
sS'Blake Bell'
p3000
I2500
sS'Braedon Bowman'
p3001
I2500
sS'Gary Barnidge'
p3002
I3200
sS'Cameron Brate'
p3003
I2900
sS'Beau Brinkley'
p3004
I2500
sS'Jared Cook'
p3005
I2500
sS'Kyle Rudolph'
p3006
I3600
sS'Dennis Pitta'
p3007
I4100
sS'Kyle Nelson'
p3008
I2500
sS'Zach Ertz'
p3009
I3500
sS'Anthony Fasano'
p3010
I2500
sS'Phillip Supernaw'
p3011
I2500
sS'Orson Charles'
p3012
I2500
sS'Richard Rodgers'
p3013
I2900
sS'Patrick Scales'
p3014
I2500
sS'Darren Fells'
p3015
I2500
sS'Martellus Bennett'
p3016
I3700
sS'Khari Lee'
p3017
I2500
sS'MyCole Pruitt'
p3018
I2500
sS'Rob Gronkowski'
p3019
I6500
sS'Luke Stocker'
p3020
I2500
sS'MarQueis Gray'
p3021
I2500
sS"Nick O'Leary"
p3022
I2500
sS'Clive Walford'
p3023
I2700
sS'Jesse James'
p3024
I2900
sS'Austin Hooper'
p3025
I2500
sS'Scott Simonson'
p3026
I2500
sS'Darren Waller'
p3027
I2500
sS'Austin Seferian-Jenkins'
p3028
I2500
sS'Jace Amaro'
p3029
I2500
sS'Ed Dickson'
p3030
I2500
sS'Zach Miller'
p3031
I3600
sS'Dwayne Allen'
p3032
I3100
sS'Dion Sims'
p3033
I2500
sS'Brandon Bostick'
p3034
I2500
sS'A.J. Derby'
p3035
I2500
sS'Ryan Griffin'
p3036
I2500
sS'Gavin Escobar'
p3037
I2500
sS'Antonio Gates'
p3038
I4000
sS'Kellen Davis'
p3039
I2500
sS'Vernon Davis'
p3040
I2500
sS'David Johnson'
p3041
I2500
sS'Clark Harris'
p3042
I2500
sS'Jack Doyle'
p3043
I2600
sS'David Morgan'
p3044
I2500
sS'Geoff Swaim'
p3045
I2500
sS'Sean McGrath'
p3046
I2500
sS'Jerell Adams'
p3047
I2500
sS'Joshua Perkins'
p3048
I2500
sS'Tyler Kroft'
p3049
I2500
sS'Eric Ebron'
p3050
I3400
sS'Brandon Myers'
p3051
I2500
sS'Charles Clay'
p3052
I2700
sS'Jim Dray'
p3053
I2500
sS'C.J. Uzomah'
p3054
I2500
sS'Greg Olsen'
p3055
I6300
sS'Rhett Ellison'
p3056
I2500
sS'Justin Perillo'
p3057
I2500
sS'Crockett Gillmore'
p3058
I2500
sS'Delanie Walker'
p3059
I4700
sS'Kevin McDermott'
p3060
I2500
sS'Tyler Eifert'
p3061
I4200
sS'Ryan Hewitt'
p3062
I2500
sS'C.J. Fiedorowicz'
p3063
I2500
sS'Randall Telfer'
p3064
I2500
sS'Jeff Heuerman'
p3065
I2500
sS'Xavier Grimble'
p3066
I2500
sS'Asante Cleveland'
p3067
I2500
sS'Andrew DePaola'
p3068
I2500
sS'Jacob Tamme'
p3069
I3000
sS'Lance Kendricks'
p3070
I2700
sS'Virgil Green'
p3071
I2800
sS'Cole Wick'
p3072
I2500
sS'Ben Braunecker'
p3073
I2500
sS'Niles Paul'
p3074
I2500
sss.