(dp0
I2016
(dp1
S'K'
p2
(dp3
S'Broncos'
p4
F8.0
sS'Vikings'
p5
F3.0
sS'Bears'
p6
F11.0
sS'Falcons'
p7
F5.5
sS'Saints'
p8
F8.5
sS'Chargers'
p9
F5.5
sS'Raiders'
p10
F9.5
sS'Lions'
p11
F6.5
sS'Eagles'
p12
F3.0
sS'Browns'
p13
F10.0
sS'Steelers'
p14
F10.0
sS'Giants'
p15
F10.0
sS'Buccaneers'
p16
F10.0
sS'Cardinals'
p17
F6.0
sS'Bengals'
p18
F8.0
sS'Chiefs'
p19
F11.0
sS'Dolphins'
p20
F6.5
sS'Jaguars'
p21
F4.25
sS'Seahawks'
p22
F6.5
sS'Jets'
p23
F9.0
sS'Ravens'
p24
F1.5
sS'Colts'
p25
F10.5
sS'Packers'
p26
F8.0
sS'Titans'
p27
F10.0
sS'Rams'
p28
F1.75
sS'Bills'
p29
F10.0
sS'Texans'
p30
F7.0
sS'49ers'
p31
F8.0
sS'Patriots'
p32
F4.5
sS'Cowboys'
p33
F6.5
sS'Panthers'
p34
F6.0
sS'Redskins'
p35
F8.5
ssS'QB'
p36
(dp37
g4
F15.62
sg5
F17.08
sg6
F14.620000000000001
sg7
F25.25
sg8
F15.34
sg9
F23.29
sg10
F28.630000000000003
sg11
F25.01
sg12
F7.3500000000000005
sg13
F17.700000000000003
sg14
F14.65
sg15
F12.4
sg16
F23.48
sg17
F9.190000000000001
sg18
F17.41
sg19
F12.52
sg20
F19.040000000000003
sg21
F11.815000000000001
sg22
F12.600000000000001
sg23
F21.160000000000004
sg24
F9.969999999999999
sg25
F17.72
sg26
F17.07
sg27
F12.870000000000001
sg28
F6.665000000000001
sg29
F16.54
sg30
F7.74
sg31
F16.01
sg32
F20.96
sg33
F18.42
sg34
F14.92
sg35
F20.04
ssS'WR'
p38
(dp39
g4
F14.15
sg5
F16.75
sg6
F20.85
sg7
F24.9
sg8
F28.85
sg9
F22.200000000000003
sg10
F43.849999999999994
sg11
F21.95
sg12
F16.450000000000003
sg13
F28.55
sg14
F19.25
sg15
F18.75
sg16
F31.35
sg17
F27.599999999999998
sg18
F20.049999999999997
sg19
F22.5
sg20
F26.750000000000007
sg21
F16.0
sg22
F15.25
sg23
F35.35000000000001
sg24
F17.35
sg25
F17.8
sg26
F23.7
sg27
F20.700000000000003
sg28
F7.475000000000001
sg29
F32.35
sg30
F17.85
sg31
F23.150000000000002
sg32
F30.950000000000003
sg33
F24.8
sg34
F13.950000000000001
sg35
F29.900000000000002
ssS'RB'
p40
(dp41
g4
F15.85
sg5
F14.5
sg6
F17.599999999999998
sg7
F23.800000000000004
sg8
F23.5
sg9
F20.45
sg10
F15.350000000000001
sg11
F15.749999999999998
sg12
F15.499999999999998
sg13
F16.35
sg14
F17.4
sg15
F12.45
sg16
F19.65
sg17
F11.9
sg18
F20.700000000000003
sg19
F24.300000000000004
sg20
F18.050000000000004
sg21
F7.875000000000002
sg22
F10.850000000000001
sg23
F14.450000000000001
sg24
F19.300000000000004
sg25
F34.550000000000004
sg26
F9.4
sg27
F9.350000000000001
sg28
F9.1
sg29
F20.45
sg30
F13.75
sg31
F10.75
sg32
F15.7
sg33
F16.1
sg34
F20.200000000000003
sg35
F27.900000000000006
ssS'TE'
p42
(dp43
g4
F6.75
sg5
F4.9
sg6
F7.8500000000000005
sg7
F15.899999999999999
sg8
F2.95
sg9
F12.100000000000001
sg10
F12.3
sg11
F20.950000000000003
sg12
F1.6500000000000001
sg13
F9.650000000000002
sg14
F6.4
sg15
F5.800000000000001
sg16
F4.800000000000001
sg17
F2.2
sg18
F9.0
sg19
F3.05
sg20
F10.549999999999999
sg21
F2.5999999999999996
sg22
F3.3500000000000005
sg23
F4.300000000000001
sg24
F3.85
sg25
F7.850000000000001
sg26
F13.15
sg27
F5.9
sg28
F3.4250000000000003
sg29
F2.95
sg30
F2.4000000000000004
sg31
F9.950000000000001
sg32
F8.55
sg33
F11.400000000000002
sg34
F9.05
sg35
F5.55
sss.