(dp0
I2016
(dp1
S'K'
p2
(dp3
S'Broncos'
p4
F8.0
sS'Vikings'
p5
F3.0
sS'Bears'
p6
F11.0
sS'Falcons'
p7
F5.5
sS'Saints'
p8
F8.5
sS'Chargers'
p9
F5.5
sS'Raiders'
p10
F9.5
sS'Lions'
p11
F6.5
sS'Eagles'
p12
F3.0
sS'Browns'
p13
F10.0
sS'Steelers'
p14
F10.0
sS'Giants'
p15
F10.0
sS'Buccaneers'
p16
F10.0
sS'Cardinals'
p17
F6.0
sS'Bengals'
p18
F8.0
sS'Chiefs'
p19
F11.0
sS'Dolphins'
p20
F6.5
sS'Jaguars'
p21
F4.25
sS'Seahawks'
p22
F6.5
sS'Jets'
p23
F9.0
sS'Ravens'
p24
F1.5
sS'Colts'
p25
F10.5
sS'Packers'
p26
F8.0
sS'Titans'
p27
F10.0
sS'Rams'
p28
F1.75
sS'Bills'
p29
F10.0
sS'Texans'
p30
F7.0
sS'49ers'
p31
F8.0
sS'Patriots'
p32
F4.5
sS'Cowboys'
p33
F6.5
sS'Panthers'
p34
F6.0
sS'Redskins'
p35
F8.5
ssS'QB'
p36
(dp37
g4
F15.62
sg5
F17.08
sg6
F14.620000000000001
sg7
F25.25
sg8
F15.34
sg9
F23.29
sg10
F28.630000000000003
sg11
F25.01
sg12
F7.3500000000000005
sg13
F17.700000000000003
sg14
F14.65
sg15
F12.4
sg16
F23.48
sg17
F9.190000000000001
sg18
F17.41
sg19
F12.52
sg20
F19.040000000000003
sg21
F11.815000000000001
sg22
F12.600000000000001
sg23
F21.160000000000004
sg24
F9.969999999999999
sg25
F17.72
sg26
F17.07
sg27
F12.870000000000001
sg28
F6.665000000000001
sg29
F16.54
sg30
F7.74
sg31
F16.01
sg32
F20.96
sg33
F18.42
sg34
F14.92
sg35
F20.04
ssS'WR'
p38
(dp39
g4
F22.150000000000002
sg5
F30.75
sg6
F32.85
sg7
F36.9
sg8
F46.35
sg9
F36.2
sg10
F62.35
sg11
F34.449999999999996
sg12
F25.450000000000003
sg13
F40.050000000000004
sg14
F35.25
sg15
F34.75
sg16
F41.35
sg17
F44.6
sg18
F30.049999999999997
sg19
F36.5
sg20
F43.75000000000001
sg21
F22.5
sg22
F27.750000000000004
sg23
F49.35
sg24
F26.85
sg25
F32.3
sg26
F37.7
sg27
F34.2
sg28
F13.975
sg29
F48.85
sg30
F29.349999999999998
sg31
F35.65
sg32
F47.95
sg33
F36.800000000000004
sg34
F23.45
sg35
F44.4
ssS'RB'
p40
(dp41
g4
F20.85
sg5
F18.5
sg6
F21.599999999999998
sg7
F32.8
sg8
F29.5
sg9
F31.950000000000003
sg10
F19.35
sg11
F23.75
sg12
F21.0
sg13
F19.850000000000005
sg14
F24.9
sg15
F17.450000000000003
sg16
F24.65
sg17
F15.900000000000002
sg18
F26.7
sg19
F28.300000000000004
sg20
F22.549999999999997
sg21
F9.375000000000002
sg22
F13.850000000000001
sg23
F17.950000000000003
sg24
F24.300000000000004
sg25
F42.050000000000004
sg26
F13.399999999999999
sg27
F11.850000000000001
sg28
F11.6
sg29
F24.950000000000003
sg30
F16.25
sg31
F14.750000000000002
sg32
F21.699999999999996
sg33
F20.1
sg34
F24.700000000000003
sg35
F34.400000000000006
ssS'TE'
p42
(dp43
g4
F13.25
sg5
F9.4
sg6
F13.350000000000001
sg7
F23.4
sg8
F7.45
sg9
F19.1
sg10
F17.8
sg11
F28.450000000000003
sg12
F3.6500000000000004
sg13
F18.150000000000002
sg14
F13.4
sg15
F11.8
sg16
F10.3
sg17
F6.2
sg18
F12.0
sg19
F7.05
sg20
F14.549999999999999
sg21
F3.8499999999999996
sg22
F6.3500000000000005
sg23
F7.800000000000001
sg24
F6.85
sg25
F12.350000000000001
sg26
F18.15
sg27
F9.9
sg28
F5.175
sg29
F5.45
sg30
F6.4
sg31
F13.950000000000001
sg32
F13.55
sg33
F18.900000000000002
sg34
F12.55
sg35
F10.55
sss.