(dp0
I2016
(dp1
S'K'
p2
(dp3
S'Broncos'
p4
F8.0
sS'Vikings'
p5
F3.0
sS'Bears'
p6
F11.0
sS'Falcons'
p7
F5.5
sS'Saints'
p8
F8.5
sS'Chargers'
p9
F5.5
sS'Raiders'
p10
F9.5
sS'Lions'
p11
F6.5
sS'Eagles'
p12
F3.0
sS'Browns'
p13
F10.0
sS'Steelers'
p14
F10.0
sS'Giants'
p15
F10.0
sS'Buccaneers'
p16
F10.0
sS'Cardinals'
p17
F6.0
sS'Bengals'
p18
F8.0
sS'Chiefs'
p19
F11.0
sS'Dolphins'
p20
F6.5
sS'Jaguars'
p21
F4.25
sS'Seahawks'
p22
F6.5
sS'Jets'
p23
F9.0
sS'Ravens'
p24
F1.5
sS'Colts'
p25
F10.5
sS'Packers'
p26
F8.0
sS'Titans'
p27
F10.0
sS'Rams'
p28
F1.75
sS'Bills'
p29
F10.0
sS'Texans'
p30
F7.0
sS'49ers'
p31
F8.0
sS'Patriots'
p32
F4.5
sS'Cowboys'
p33
F6.5
sS'Panthers'
p34
F6.0
sS'Redskins'
p35
F8.5
ssS'QB'
p36
(dp37
g4
F15.62
sg5
F17.08
sg6
F14.620000000000001
sg7
F25.25
sg8
F15.34
sg9
F23.29
sg10
F28.630000000000003
sg11
F25.01
sg12
F7.3500000000000005
sg13
F17.700000000000003
sg14
F14.65
sg15
F12.4
sg16
F23.48
sg17
F9.190000000000001
sg18
F17.41
sg19
F12.52
sg20
F19.040000000000003
sg21
F11.815000000000001
sg22
F12.600000000000001
sg23
F21.160000000000004
sg24
F9.969999999999999
sg25
F17.72
sg26
F17.07
sg27
F12.870000000000001
sg28
F6.665000000000001
sg29
F16.54
sg30
F7.74
sg31
F16.01
sg32
F20.96
sg33
F18.42
sg34
F14.92
sg35
F20.04
ssS'WR'
p38
(dp39
g4
F18.15
sg5
F23.75
sg6
F26.85
sg7
F30.9
sg8
F37.6
sg9
F29.2
sg10
F53.10000000000001
sg11
F28.200000000000003
sg12
F20.950000000000003
sg13
F34.300000000000004
sg14
F27.25
sg15
F26.749999999999996
sg16
F36.35
sg17
F36.1
sg18
F25.049999999999997
sg19
F29.500000000000004
sg20
F35.25000000000001
sg21
F19.25
sg22
F21.500000000000004
sg23
F42.35000000000001
sg24
F22.1
sg25
F25.05
sg26
F30.700000000000003
sg27
F27.450000000000003
sg28
F10.725000000000001
sg29
F40.6
sg30
F23.6
sg31
F29.400000000000002
sg32
F39.449999999999996
sg33
F30.8
sg34
F18.700000000000003
sg35
F37.15
ssS'RB'
p40
(dp41
g4
F18.35
sg5
F16.5
sg6
F19.599999999999998
sg7
F28.3
sg8
F26.5
sg9
F26.200000000000003
sg10
F17.35
sg11
F19.75
sg12
F18.25
sg13
F18.1
sg14
F21.15
sg15
F14.950000000000001
sg16
F22.15
sg17
F13.900000000000002
sg18
F23.700000000000003
sg19
F26.300000000000004
sg20
F20.300000000000004
sg21
F8.625000000000002
sg22
F12.350000000000001
sg23
F16.200000000000003
sg24
F21.800000000000004
sg25
F38.300000000000004
sg26
F11.4
sg27
F10.600000000000001
sg28
F10.35
sg29
F22.699999999999996
sg30
F15.0
sg31
F12.75
sg32
F18.7
sg33
F18.1
sg34
F22.450000000000003
sg35
F31.150000000000006
ssS'TE'
p42
(dp43
g4
F10.0
sg5
F7.15
sg6
F10.600000000000001
sg7
F19.65
sg8
F5.2
sg9
F15.600000000000001
sg10
F15.05
sg11
F24.700000000000003
sg12
F2.6500000000000004
sg13
F13.9
sg14
F9.9
sg15
F8.8
sg16
F7.550000000000001
sg17
F4.2
sg18
F10.5
sg19
F5.05
sg20
F12.549999999999999
sg21
F3.2249999999999996
sg22
F4.8500000000000005
sg23
F6.050000000000001
sg24
F5.35
sg25
F10.100000000000001
sg26
F15.65
sg27
F7.9
sg28
F4.300000000000001
sg29
F4.2
sg30
F4.4
sg31
F11.950000000000001
sg32
F11.05
sg33
F15.150000000000002
sg34
F10.8
sg35
F8.05
sss.