(dp0
I2010
(dp1
S'K'
p2
(dp3
S'Broncos'
p4
F4.125
sS'Vikings'
p5
F4.125
sS'Bears'
p6
F2.25
sS'Falcons'
p7
F1.9375
sS'Saints'
p8
F2.5625
sS'Chargers'
p9
F3.125
sS'Raiders'
p10
F3.875
sS'Lions'
p11
F4.625
sS'Eagles'
p12
F2.4375
sS'Browns'
p13
F3.8125
sS'Steelers'
p14
F3.875
sS'Giants'
p15
F1.9375
sS'Buccaneers'
p16
F1.9375
sS'Cardinals'
p17
F4.0
sS'Bengals'
p18
F5.0625
sS'Chiefs'
p19
F3.8125
sS'Dolphins'
p20
F4.0
sS'Jaguars'
p21
F0.1875
sS'Seahawks'
p22
F4.25
sS'Jets'
p23
F4.0
sS'Ravens'
p24
F4.5
sS'Colts'
p25
F3.8125
sS'Packers'
p26
F2.9375
sS'Titans'
p27
F5.375
sS'Rams'
p28
F0.25
sS'Bills'
p29
F6.1875
sS'Texans'
p30
F4.375
sS'49ers'
p31
F3.875
sS'Patriots'
p32
F2.75
sS'Cowboys'
p33
F2.3125
sS'Panthers'
p34
F4.4375
sS'Redskins'
p35
F2.75
ssS'QB'
p36
(dp37
g4
F8.888750000000002
sg5
F12.263749999999998
sg6
F8.131250000000001
sg7
F10.91
sg8
F8.73125
sg9
F4.703749999999999
sg10
F10.021249999999998
sg11
F11.043750000000001
sg12
F10.08
sg13
F13.2525
sg14
F11.23875
sg15
F4.4675
sg16
F8.4
sg17
F8.83875
sg18
F11.243749999999999
sg19
F6.262499999999999
sg20
F11.8025
sg21
F0.495859375
sg22
F14.82375
sg23
F12.477500000000001
sg24
F10.290000000000001
sg25
F4.157500000000001
sg26
F7.1187499999999995
sg27
F7.853750000000001
sg28
F0.51609375
sg29
F13.176250000000003
sg30
F8.93125
sg31
F10.563750000000002
sg32
F12.266250000000001
sg33
F8.54875
sg34
F11.4725
sg35
F8.2625
ssS'WR'
p38
(dp39
g4
F6.418750000000002
sg5
F11.887499999999998
sg6
F7.831250000000001
sg7
F14.087500000000002
sg8
F4.7124999999999995
sg9
F6.4624999999999995
sg10
F10.231250000000001
sg11
F8.068749999999998
sg12
F8.943750000000001
sg13
F10.2875
sg14
F6.887500000000001
sg15
F9.899999999999999
sg16
F7.568750000000001
sg17
F9.48125
sg18
F9.75
sg19
F7.887500000000001
sg20
F7.2124999999999995
sg21
F0.655859375
sg22
F14.025
sg23
F9.612499999999999
sg24
F9.93125
sg25
F6.424999999999999
sg26
F6.706250000000001
sg27
F8.8625
sg28
F0.6484375
sg29
F4.887499999999999
sg30
F8.225
sg31
F11.39375
sg32
F9.043750000000003
sg33
F12.487499999999999
sg34
F10.26875
sg35
F9.51875
ssS'RB'
p40
(dp41
g4
F16.78125
sg5
F3.65
sg6
F5.1312500000000005
sg7
F5.0
sg8
F5.3374999999999995
sg9
F7.900000000000002
sg10
F9.39375
sg11
F10.4375
sg12
F6.20625
sg13
F2.981250000000001
sg14
F3.09375
sg15
F7.3500000000000005
sg16
F3.3625000000000003
sg17
F10.450000000000003
sg18
F5.5249999999999995
sg19
F7.550000000000001
sg20
F5.468750000000001
sg21
F0.79375
sg22
F9.506250000000001
sg23
F5.09375
sg24
F2.6750000000000003
sg25
F11.131250000000001
sg26
F6.1
sg27
F8.975000000000001
sg28
F0.537109375
sg29
F6.156249999999999
sg30
F7.18125
sg31
F7.368750000000001
sg32
F6.08125
sg33
F6.3500000000000005
sg34
F4.98125
sg35
F6.46875
ssS'TE'
p42
(dp43
g4
F4.29375
sg5
F3.7875
sg6
F2.4937500000000004
sg7
F2.88125
sg8
F2.5625
sg9
F4.1625000000000005
sg10
F5.018750000000001
sg11
F1.73125
sg12
F5.437499999999999
sg13
F2.6125000000000007
sg14
F3.6875
sg15
F3.29375
sg16
F2.38125
sg17
F4.00625
sg18
F2.6750000000000003
sg19
F3.7750000000000004
sg20
F3.4250000000000003
sg21
F0.25
sg22
F3.9875
sg23
F2.5812500000000003
sg24
F3.13125
sg25
F4.324999999999999
sg26
F4.19375
sg27
F5.33125
sg28
F0.1546875
sg29
F4.8625
sg30
F3.9312500000000004
sg31
F1.7125
sg32
F2.7375
sg33
F3.03125
sg34
F2.86875
sg35
F4.175000000000001
sssI2011
(dp44
g2
(dp45
g4
F5.875
sg5
F6.375
sg6
F4.375
sg7
F2.875
sg8
F4.375
sg9
F6.0
sg10
F5.75
sg11
F5.5625
sg12
F3.9375
sg13
F5.0
sg14
F2.9375
sg15
F4.375
sg16
F2.75
sg17
F4.8125
sg18
F3.5
sg19
F4.875
sg20
F4.5625
sg21
F0.21875
sg22
F3.75
sg23
F5.5
sg24
F4.9375
sg25
F4.4375
sg26
F3.3125
sg27
F4.1875
sg28
F0.265625
sg29
F5.5
sg30
F4.5625
sg31
F2.9375
sg32
F4.4375
sg33
F3.4375
sg34
F4.5
sg35
F4.0
ssg36
(dp46
g4
F11.48375
sg5
F16.236250000000002
sg6
F11.523749999999996
sg7
F11.580000000000002
sg8
F14.20375
sg9
F12.151250000000001
sg10
F13.0725
sg11
F13.34875
sg12
F10.592500000000003
sg13
F8.09375
sg14
F7.548750000000001
sg15
F13.423750000000004
sg16
F16.06875
sg17
F11.815000000000001
sg18
F8.47625
sg19
F10.254999999999999
sg20
F13.328749999999998
sg21
F0.657265625
sg22
F8.78875
sg23
F7.51
sg24
F7.45125
sg25
F14.0675
sg26
F13.743750000000002
sg27
F11.6875
sg28
F0.6353906250000001
sg29
F11.995000000000001
sg30
F8.396249999999998
sg31
F8.332500000000001
sg32
F13.345
sg33
F9.32375
sg34
F12.20125
sg35
F11.7075
ssg38
(dp47
g4
F12.449999999999998
sg5
F14.774999999999999
sg6
F12.875
sg7
F12.8125
sg8
F14.73125
sg9
F9.09375
sg10
F10.706249999999999
sg11
F17.181250000000002
sg12
F9.7375
sg13
F9.725000000000001
sg14
F7.424999999999999
sg15
F9.725000000000001
sg16
F12.662499999999998
sg17
F16.006249999999998
sg18
F11.437500000000002
sg19
F9.456250000000002
sg20
F9.456249999999999
sg21
F0.7953124999999998
sg22
F10.918750000000005
sg23
F6.856250000000001
sg24
F12.437500000000004
sg25
F14.45
sg26
F13.04375
sg27
F9.168750000000001
sg28
F1.1378906249999998
sg29
F8.325000000000001
sg30
F11.3875
sg31
F11.568750000000003
sg32
F16.3625
sg33
F10.437500000000004
sg34
F10.056249999999999
sg35
F11.95625
ssg40
(dp48
g4
F11.225000000000001
sg5
F9.537500000000001
sg6
F6.725
sg7
F10.618750000000002
sg8
F8.037500000000001
sg9
F3.6999999999999993
sg10
F9.75
sg11
F10.4875
sg12
F7.256250000000001
sg13
F5.693749999999999
sg14
F3.75625
sg15
F9.468749999999998
sg16
F16.175
sg17
F7.362500000000001
sg18
F3.8375000000000004
sg19
F7.462500000000001
sg20
F8.200000000000001
sg21
F0.4789062500000001
sg22
F6.64375
sg23
F8.375000000000002
sg24
F3.8312500000000003
sg25
F8.30625
sg26
F6.918750000000002
sg27
F7.825000000000001
sg28
F0.47421874999999997
sg29
F12.575000000000003
sg30
F5.25
sg31
F2.35
sg32
F9.487499999999999
sg33
F6.512500000000001
sg34
F13.350000000000003
sg35
F9.6125
ssg42
(dp49
g4
F2.8687500000000004
sg5
F4.2
sg6
F3.6875
sg7
F4.51875
sg8
F2.5
sg9
F4.387499999999999
sg10
F4.68125
sg11
F3.4499999999999997
sg12
F3.1437500000000003
sg13
F5.18125
sg14
F5.35625
sg15
F5.5625
sg16
F4.9625
sg17
F3.6937500000000005
sg18
F3.9312500000000004
sg19
F4.9624999999999995
sg20
F4.70625
sg21
F0.369140625
sg22
F3.7500000000000004
sg23
F6.18125
sg24
F2.5812499999999994
sg25
F4.875
sg26
F5.049999999999999
sg27
F3.3
sg28
F0.17890625000000004
sg29
F7.925
sg30
F3.4125000000000005
sg31
F3.91875
sg32
F3.3687500000000004
sg33
F4.9
sg34
F3.54375
sg35
F7.524999999999999
sssI2012
(dp50
g2
(dp51
g4
F5.6875
sg5
F5.3125
sg6
F3.0625
sg7
F3.5625
sg8
F5.5625
sg9
F5.3125
sg10
F7.4375
sg11
F5.1875
sg12
F5.875
sg13
F5.0
sg14
F5.625
sg15
F5.5625
sg16
F3.3125
sg17
F4.9375
sg18
F5.8125
sg19
F8.25
sg20
F4.875
sg21
F0.453125
sg22
F3.625
sg23
F5.1875
sg24
F8.375
sg25
F5.9375
sg26
F3.375
sg27
F6.625
sg28
F0.3359375
sg29
F5.1875
sg30
F4.9375
sg31
F3.125
sg32
F4.0
sg33
F5.125
sg34
F5.75
sg35
F4.875
ssg36
(dp52
g4
F13.02625
sg5
F16.848750000000003
sg6
F9.375
sg7
F12.031249999999998
sg8
F17.295
sg9
F11.274999999999999
sg10
F14.975000000000001
sg11
F12.05875
sg12
F17.871249999999996
sg13
F13.42375
sg14
F8.4275
sg15
F15.046249999999997
sg16
F16.74125
sg17
F10.242500000000001
sg18
F11.418750000000003
sg19
F14.898750000000003
sg20
F13.5125
sg21
F0.895625
sg22
F10.508750000000001
sg23
F12.005000000000003
sg24
F9.051250000000001
sg25
F11.972500000000002
sg26
F11.735
sg27
F15.82625
sg28
F0.8759375000000001
sg29
F16.29625
sg30
F11.733749999999997
sg31
F10.841249999999999
sg32
F12.94
sg33
F15.056249999999999
sg34
F12.24625
sg35
F16.1625
ssg38
(dp53
g4
F11.31875
sg5
F15.943749999999998
sg6
F11.793750000000001
sg7
F9.45
sg8
F22.493750000000006
sg9
F16.881249999999994
sg10
F18.275000000000002
sg11
F16.84375
sg12
F17.04375
sg13
F20.456249999999997
sg14
F12.174999999999997
sg15
F18.4375
sg16
F19.7125
sg17
F15.04375
sg18
F11.631250000000001
sg19
F18.44375
sg20
F12.51875
sg21
F0.8320312500000003
sg22
F9.037500000000001
sg23
F8.756250000000001
sg24
F14.787500000000001
sg25
F17.01875
sg26
F13.45625
sg27
F13.65625
sg28
F0.8113281250000002
sg29
F13.350000000000003
sg30
F14.506250000000001
sg31
F12.081250000000002
sg32
F15.881250000000001
sg33
F18.14375
sg34
F12.987500000000002
sg35
F22.09375
ssg40
(dp54
g4
F10.36875
sg5
F7.3
sg6
F8.7
sg7
F12.268749999999997
sg8
F17.968750000000004
sg9
F10.174999999999999
sg10
F12.493750000000002
sg11
F11.50625
sg12
F6.718750000000001
sg13
F7.818749999999999
sg14
F7.825
sg15
F11.23125
sg16
F10.912500000000001
sg17
F10.56875
sg18
F8.4
sg19
F9.48125
sg20
F11.531250000000002
sg21
F0.8574218749999999
sg22
F9.493749999999999
sg23
F13.875
sg24
F10.731250000000003
sg25
F11.16875
sg26
F11.200000000000001
sg27
F11.65625
sg28
F0.629296875
sg29
F16.362500000000004
sg30
F7.78125
sg31
F5.1187499999999995
sg32
F8.412500000000001
sg33
F11.218750000000004
sg34
F10.637500000000001
sg35
F8.568750000000001
ssg42
(dp55
g4
F7.9312499999999995
sg5
F5.61875
sg6
F4.3875
sg7
F5.5125
sg8
F4.03125
sg9
F3.6187500000000004
sg10
F5.80625
sg11
F5.7124999999999995
sg12
F5.1499999999999995
sg13
F5.175000000000001
sg14
F6.28125
sg15
F5.26875
sg16
F6.6375
sg17
F4.500000000000001
sg18
F4.949999999999999
sg19
F5.23125
sg20
F5.08125
sg21
F0.36875
sg22
F5.406250000000001
sg23
F5.387499999999999
sg24
F4.26875
sg25
F5.981249999999999
sg26
F4.843750000000001
sg27
F5.6375
sg28
F0.36679687499999997
sg29
F5.775
sg30
F5.800000000000001
sg31
F3.9750000000000005
sg32
F5.987500000000001
sg33
F6.1625
sg34
F5.550000000000001
sg35
F7.937500000000001
sssI2013
(dp56
g2
(dp57
g4
F6.3125
sg5
F6.25
sg6
F5.5
sg7
F6.375
sg8
F6.0
sg9
F5.5
sg10
F6.4375
sg11
F6.75
sg12
F6.5625
sg13
F7.3125
sg14
F6.1875
sg15
F6.5
sg16
F6.625
sg17
F4.875
sg18
F5.625
sg19
F5.3125
sg20
F7.1875
sg21
F0.39453125
sg22
F3.875
sg23
F6.9375
sg24
F7.125
sg25
F4.9375
sg26
F5.6875
sg27
F7.5
sg28
F0.27734375
sg29
F6.6875
sg30
F6.9375
sg31
F3.75
sg32
F5.25
sg33
F6.1875
sg34
F5.0625
sg35
F6.25
ssg36
(dp58
g4
F14.294999999999998
sg5
F21.76375
sg6
F12.84375
sg7
F19.12625
sg8
F13.55875
sg9
F9.71875
sg10
F16.27375
sg11
F14.690000000000003
sg12
F13.791250000000002
sg13
F15.236250000000002
sg14
F12.94125
sg15
F12.501249999999997
sg16
F18.355
sg17
F16.04375
sg18
F13.118749999999999
sg19
F9.104999999999999
sg20
F13.6475
sg21
F1.0945312500000002
sg22
F8.66
sg23
F14.7875
sg24
F10.8375
sg25
F12.89
sg26
F15.90875
sg27
F11.398750000000003
sg28
F0.8795312500000001
sg29
F13.79
sg30
F12.952500000000002
sg31
F11.882499999999999
sg32
F14.321250000000001
sg33
F17.55
sg34
F11.942499999999999
sg35
F13.092500000000001
ssg38
(dp59
g4
F18.143749999999994
sg5
F23.418750000000006
sg6
F19.00625
sg7
F21.200000000000003
sg8
F15.124999999999998
sg9
F19.1
sg10
F18.4375
sg11
F21.76875
sg12
F24.162499999999998
sg13
F14.812500000000005
sg14
F16.837500000000002
sg15
F15.118749999999997
sg16
F19.23125
sg17
F12.193750000000003
sg18
F13.499999999999998
sg19
F20.293750000000003
sg20
F14.981249999999998
sg21
F1.15
sg22
F11.39375
sg23
F21.943749999999998
sg24
F19.431250000000006
sg25
F20.55
sg26
F16.593750000000004
sg27
F10.75625
sg28
F1.3125000000000002
sg29
F19.600000000000005
sg30
F15.950000000000001
sg31
F16.1625
sg32
F19.293749999999996
sg33
F17.625000000000004
sg34
F14.49375
sg35
F17.056250000000002
ssg40
(dp60
g4
F13.243750000000002
sg5
F13.85625
sg6
F16.64375
sg7
F16.837500000000002
sg8
F11.9375
sg9
F13.681249999999999
sg10
F16.81875
sg11
F11.300000000000002
sg12
F10.89375
sg13
F16.362499999999997
sg14
F14.449999999999998
sg15
F13.512500000000001
sg16
F11.45
sg17
F7.243750000000001
sg18
F8.4875
sg19
F13.312500000000002
sg20
F14.600000000000001
sg21
F0.8187499999999999
sg22
F9.550000000000002
sg23
F10.3375
sg24
F12.66875
sg25
F10.975000000000001
sg26
F15.725000000000001
sg27
F14.343750000000002
sg28
F0.8656250000000001
sg29
F13.231250000000001
sg30
F14.3
sg31
F8.418750000000001
sg32
F11.99375
sg33
F18.587500000000002
sg34
F9.387500000000001
sg35
F15.53125
ssg42
(dp61
g4
F7.899999999999999
sg5
F8.325
sg6
F7.6625000000000005
sg7
F7.625
sg8
F5.375
sg9
F7.25625
sg10
F6.7437499999999995
sg11
F4.8375
sg12
F6.387499999999998
sg13
F4.375
sg14
F6.79375
sg15
F7.39375
sg16
F6.218750000000001
sg17
F11.924999999999999
sg18
F5.200000000000001
sg19
F6.0062500000000005
sg20
F8.224999999999998
sg21
F0.51953125
sg22
F6.031249999999999
sg23
F7.1625000000000005
sg24
F4.643749999999999
sg25
F6.418749999999999
sg26
F6.0625
sg27
F7.706250000000002
sg28
F0.3140625
sg29
F5.78125
sg30
F7.9750000000000005
sg31
F5.46875
sg32
F6.03125
sg33
F9.262500000000003
sg34
F6.731250000000001
sg35
F5.1187499999999995
sssI2014
(dp62
g2
(dp63
g4
F6.625
sg5
F6.375
sg6
F9.25
sg7
F7.4375
sg8
F7.9375
sg9
F7.5
sg10
F8.4375
sg11
F5.125
sg12
F7.0
sg13
F7.5625
sg14
F7.0
sg15
F7.4375
sg16
F7.375
sg17
F6.6875
sg18
F6.625
sg19
F7.5625
sg20
F7.3125
sg21
F0.515625
sg22
F5.5
sg23
F7.1875
sg24
F6.9375
sg25
F5.3125
sg26
F5.9375
sg27
F8.5625
sg28
F0.4453125
sg29
F6.9375
sg30
F5.5
sg31
F5.882352941176471
sg32
F7.1875
sg33
F5.375
sg34
F6.375
sg35
F7.25
ssg36
(dp64
g4
F15.661250000000003
sg5
F14.57125
sg6
F19.02
sg7
F16.55125
sg8
F18.105
sg9
F14.125
sg10
F13.4125
sg11
F13.163750000000004
sg12
F18.881250000000005
sg13
F11.93875
sg14
F16.806250000000002
sg15
F17.23625
sg16
F16.404999999999998
sg17
F14.7425
sg18
F12.536249999999999
sg19
F8.77
sg20
F12.93875
sg21
F0.9025781249999999
sg22
F9.561250000000001
sg23
F12.99
sg24
F16.055
sg25
F13.073750000000002
sg26
F14.828749999999998
sg27
F15.496249999999998
sg28
F0.8889843749999999
sg29
F11.7575
sg30
F14.79125
sg31
F10.898823529411764
sg32
F11.990000000000002
sg33
F15.036250000000003
sg34
F16.21375
sg35
F19.69625
ssg38
(dp65
g4
F17.875000000000004
sg5
F20.3625
sg6
F21.400000000000006
sg7
F22.9875
sg8
F23.393750000000008
sg9
F21.681249999999995
sg10
F19.09375
sg11
F20.25
sg12
F26.525000000000002
sg13
F20.950000000000006
sg14
F22.9375
sg15
F17.387500000000003
sg16
F23.543750000000003
sg17
F20.54375
sg18
F17.8375
sg19
F20.03125
sg20
F21.549999999999997
sg21
F1.2003906249999996
sg22
F12.300000000000004
sg23
F22.1875
sg24
F23.143749999999997
sg25
F18.24375
sg26
F21.575
sg27
F17.862499999999997
sg28
F1.4597656250000004
sg29
F19.006250000000005
sg30
F23.4875
sg31
F19.2764705882353
sg32
F17.4625
sg33
F17.79375
sg34
F21.1875
sg35
F23.78125
ssg40
(dp66
g4
F13.487499999999997
sg5
F16.624999999999996
sg6
F14.550000000000004
sg7
F21.30625
sg8
F20.474999999999998
sg9
F14.912500000000003
sg10
F20.875000000000004
sg11
F12.806250000000002
sg12
F16.9875
sg13
F18.481249999999992
sg14
F12.737499999999997
sg15
F14.04375
sg16
F14.6625
sg17
F11.28125
sg18
F18.081250000000004
sg19
F13.806249999999997
sg20
F16.64375
sg21
F1.1500000000000001
sg22
F13.4125
sg23
F14.156249999999998
sg24
F11.1875
sg25
F17.237499999999997
sg26
F14.206249999999997
sg27
F20.30625
sg28
F0.838671875
sg29
F14.9625
sg30
F15.581249999999997
sg31
F11.78235294117647
sg32
F15.89375
sg33
F16.293750000000003
sg34
F15.66875
sg35
F12.218749999999996
ssg42
(dp67
g4
F9.0125
sg5
F6.08125
sg6
F10.44375
sg7
F4.937500000000001
sg8
F4.59375
sg9
F5.1000000000000005
sg10
F8.625
sg11
F6.76875
sg12
F4.887500000000001
sg13
F5.543749999999999
sg14
F8.5375
sg15
F7.8625
sg16
F5.018750000000001
sg17
F9.656250000000002
sg18
F6.643750000000001
sg19
F5.75625
sg20
F6.08125
sg21
F0.45234375000000004
sg22
F7.6625000000000005
sg23
F10.08125
sg24
F6.418749999999999
sg25
F8.6375
sg26
F5.6937500000000005
sg27
F8.23125
sg28
F0.30117187500000014
sg29
F4.01875
sg30
F4.925
sg31
F7.782352941176471
sg32
F8.456249999999999
sg33
F8.825000000000001
sg34
F6.1125
sg35
F8.875
sssI2015
(dp68
g2
(dp69
g4
F6.375
sg5
F6.75
sg6
F7.1875
sg7
F6.1875
sg8
F5.823529411764706
sg9
F7.875
sg10
F8.6875
sg11
F7.25
sg12
F8.0
sg13
F8.375
sg14
F6.6875
sg15
F8.75
sg16
F7.625
sg17
F6.5625
sg18
F6.5625
sg19
F4.647058823529412
sg20
F6.5625
sg21
F0.48046875
sg22
F6.4375
sg23
F6.75
sg24
F7.9375
sg25
F7.75
sg26
F6.4375
sg27
F7.1875
sg28
F0.5234375
sg29
F5.823529411764706
sg30
F5.5
sg31
F7.4375
sg32
F5.705882352941177
sg33
F7.875
sg34
F4.6875
sg35
F6.8125
ssg36
(dp70
g4
F12.322500000000002
sg5
F15.391250000000001
sg6
F19.2125
sg7
F14.471249999999998
sg8
F22.32941176470588
sg9
F14.752500000000001
sg10
F16.97375
sg11
F16.515
sg12
F19.96875
sg13
F18.822499999999998
sg14
F17.06
sg15
F20.10625
sg16
F16.848750000000003
sg17
F14.49625
sg18
F13.087499999999999
sg19
F13.034117647058824
sg20
F16.7575
sg21
F1.1267187500000002
sg22
F12.653750000000002
sg23
F13.606250000000001
sg24
F16.970000000000002
sg25
F16.852500000000003
sg26
F14.595
sg27
F19.068749999999998
sg28
F0.9625781250000002
sg29
F15.754117647058827
sg30
F13.916250000000002
sg31
F16.387500000000003
sg32
F14.947058823529408
sg33
F15.839999999999996
sg34
F14.053750000000004
sg35
F18.01125
ssg38
(dp71
g4
F15.65
sg5
F20.125
sg6
F17.89375
sg7
F15.837499999999999
sg8
F24.264705882352946
sg9
F19.2
sg10
F19.718749999999996
sg11
F22.368749999999995
sg12
F25.631249999999998
sg13
F27.062500000000007
sg14
F27.031250000000007
sg15
F22.893749999999997
sg16
F25.256249999999998
sg17
F18.96875
sg18
F20.56875
sg19
F22.982352941176465
sg20
F24.006249999999994
sg21
F1.396484375
sg22
F16.306250000000002
sg23
F23.23125
sg24
F26.45000000000001
sg25
F25.618750000000002
sg26
F19.418750000000003
sg27
F24.64375
sg28
F1.271484375
sg29
F23.399999999999995
sg30
F20.250000000000004
sg31
F22.71249999999999
sg32
F22.952941176470585
sg33
F19.437500000000004
sg34
F19.9
sg35
F24.85
ssg40
(dp72
g4
F15.181249999999997
sg5
F15.306250000000004
sg6
F17.61875
sg7
F18.075000000000006
sg8
F18.51176470588236
sg9
F21.443750000000005
sg10
F17.750000000000004
sg11
F17.918749999999996
sg12
F19.88125000000001
sg13
F18.325
sg14
F13.306250000000004
sg15
F19.718749999999993
sg16
F16.25
sg17
F14.968749999999998
sg18
F16.681250000000002
sg19
F13.105882352941178
sg20
F23.612500000000008
sg21
F1.2812499999999998
sg22
F11.78125
sg23
F12.537500000000001
sg24
F15.443749999999996
sg25
F18.775000000000006
sg26
F16.0875
sg27
F15.418749999999992
sg28
F0.9929687500000002
sg29
F16.258823529411764
sg30
F15.78125
sg31
F21.76875
sg32
F13.829411764705881
sg33
F20.36875
sg34
F15.35625
sg35
F18.06875000000001
ssg42
(dp73
g4
F8.274999999999997
sg5
F7.531250000000001
sg6
F7.668750000000002
sg7
F9.587500000000004
sg8
F11.235294117647058
sg9
F8.03125
sg10
F9.74375
sg11
F9.737499999999999
sg12
F6.86875
sg13
F6.60625
sg14
F8.7125
sg15
F11.39375
sg16
F6.831250000000002
sg17
F7.70625
sg18
F5.487500000000001
sg19
F4.894117647058824
sg20
F7.018750000000001
sg21
F0.580078125
sg22
F8.174999999999999
sg23
F5.4125
sg24
F5.44375
sg25
F8.575000000000001
sg26
F7.6875
sg27
F9.16875
sg28
F0.509765625
sg29
F6.623529411764705
sg30
F7.0625
sg31
F6.2125
sg32
F5.6
sg33
F5.343750000000001
sg34
F6.88125
sg35
F7.368750000000001
sss.