(dp0
I2010
(dp1
S'K'
p2
(dp3
S'Broncos'
p4
F4.125
sS'Vikings'
p5
F4.125
sS'Bears'
p6
F2.25
sS'Falcons'
p7
F1.9375
sS'Saints'
p8
F2.5625
sS'Chargers'
p9
F3.125
sS'Raiders'
p10
F3.875
sS'Lions'
p11
F4.625
sS'Eagles'
p12
F2.4375
sS'Browns'
p13
F3.8125
sS'Steelers'
p14
F3.875
sS'Giants'
p15
F1.9375
sS'Buccaneers'
p16
F1.9375
sS'Cardinals'
p17
F4.0
sS'Bengals'
p18
F5.0625
sS'Chiefs'
p19
F3.8125
sS'Dolphins'
p20
F4.0
sS'Jaguars'
p21
F0.1875
sS'Seahawks'
p22
F4.25
sS'Jets'
p23
F4.0
sS'Ravens'
p24
F4.5
sS'Colts'
p25
F3.8125
sS'Packers'
p26
F2.9375
sS'Titans'
p27
F5.375
sS'Rams'
p28
F0.25
sS'Bills'
p29
F6.1875
sS'Texans'
p30
F4.375
sS'49ers'
p31
F3.875
sS'Patriots'
p32
F2.75
sS'Cowboys'
p33
F2.3125
sS'Panthers'
p34
F4.4375
sS'Redskins'
p35
F2.75
ssS'QB'
p36
(dp37
g4
F8.888750000000002
sg5
F12.263749999999998
sg6
F8.131250000000001
sg7
F10.91
sg8
F8.73125
sg9
F4.703749999999999
sg10
F10.021249999999998
sg11
F11.043750000000001
sg12
F10.08
sg13
F13.2525
sg14
F11.23875
sg15
F4.4675
sg16
F8.4
sg17
F8.83875
sg18
F11.243749999999999
sg19
F6.262499999999999
sg20
F11.8025
sg21
F0.495859375
sg22
F14.82375
sg23
F12.477500000000001
sg24
F10.290000000000001
sg25
F4.157500000000001
sg26
F7.1187499999999995
sg27
F7.853750000000001
sg28
F0.51609375
sg29
F13.176250000000003
sg30
F8.93125
sg31
F10.563750000000002
sg32
F12.266250000000001
sg33
F8.54875
sg34
F11.4725
sg35
F8.2625
ssS'WR'
p38
(dp39
g4
F9.668750000000001
sg5
F17.2
sg6
F12.58125
sg7
F20.400000000000002
sg8
F7.650000000000001
sg9
F10.149999999999999
sg10
F13.91875
sg11
F13.256249999999998
sg12
F13.13125
sg13
F15.0375
sg14
F12.325000000000001
sg15
F14.4
sg16
F11.318749999999998
sg17
F14.418749999999998
sg18
F14.749999999999996
sg19
F12.449999999999998
sg20
F10.7125
sg21
F0.9019531250000001
sg22
F20.4625
sg23
F14.487499999999999
sg24
F15.99375
sg25
F9.8
sg26
F10.83125
sg27
F13.987500000000002
sg28
F0.9804687499999998
sg29
F8.325000000000001
sg30
F12.037500000000001
sg31
F18.33125
sg32
F13.481250000000001
sg33
F17.674999999999997
sg34
F16.20625
sg35
F14.581249999999999
ssS'RB'
p40
(dp41
g4
F19.28125
sg5
F4.9625
sg6
F7.318750000000001
sg7
F6.25
sg8
F6.524999999999999
sg9
F10.275
sg10
F11.393750000000002
sg11
F12.312499999999998
sg12
F7.20625
sg13
F3.293750000000001
sg14
F4.03125
sg15
F8.475
sg16
F4.425
sg17
F12.075000000000005
sg18
F6.7124999999999995
sg19
F10.174999999999999
sg20
F7.093750000000002
sg21
F0.91484375
sg22
F11.131250000000001
sg23
F6.15625
sg24
F3.8000000000000007
sg25
F14.693750000000001
sg26
F7.975000000000001
sg27
F12.037500000000001
sg28
F0.677734375
sg29
F6.968749999999999
sg30
F9.43125
sg31
F9.306250000000002
sg32
F8.518749999999999
sg33
F7.5375000000000005
sg34
F5.54375
sg35
F8.71875
ssS'TE'
p42
(dp43
g4
F6.106250000000001
sg5
F6.1625000000000005
sg6
F4.36875
sg7
F4.8187500000000005
sg8
F4.4375
sg9
F6.2875000000000005
sg10
F7.58125
sg11
F3.54375
sg12
F8.312499999999998
sg13
F4.55
sg14
F5.625
sg15
F5.54375
sg16
F3.6312499999999996
sg17
F6.06875
sg18
F4.612500000000001
sg19
F6.087500000000001
sg20
F5.3
sg21
F0.40625
sg22
F6.3
sg23
F3.8312500000000003
sg24
F5.0687500000000005
sg25
F7.387500000000001
sg26
F6.443750000000001
sg27
F8.58125
sg28
F0.25234375
sg29
F6.9875
sg30
F6.618749999999999
sg31
F2.65
sg32
F4.737500000000001
sg33
F4.656250000000001
sg34
F4.18125
sg35
F6.737500000000002
sssI2011
(dp44
g2
(dp45
g4
F5.875
sg5
F6.375
sg6
F4.375
sg7
F2.875
sg8
F4.375
sg9
F6.0
sg10
F5.75
sg11
F5.5625
sg12
F3.9375
sg13
F5.0
sg14
F2.9375
sg15
F4.375
sg16
F2.75
sg17
F4.8125
sg18
F3.5
sg19
F4.875
sg20
F4.5625
sg21
F0.21875
sg22
F3.75
sg23
F5.5
sg24
F4.9375
sg25
F4.4375
sg26
F3.3125
sg27
F4.1875
sg28
F0.265625
sg29
F5.5
sg30
F4.5625
sg31
F2.9375
sg32
F4.4375
sg33
F3.4375
sg34
F4.5
sg35
F4.0
ssg36
(dp46
g4
F11.48375
sg5
F16.236250000000002
sg6
F11.523749999999996
sg7
F11.580000000000002
sg8
F14.20375
sg9
F12.151250000000001
sg10
F13.0725
sg11
F13.34875
sg12
F10.592500000000003
sg13
F8.09375
sg14
F7.548750000000001
sg15
F13.423750000000004
sg16
F16.06875
sg17
F11.815000000000001
sg18
F8.47625
sg19
F10.254999999999999
sg20
F13.328749999999998
sg21
F0.657265625
sg22
F8.78875
sg23
F7.51
sg24
F7.45125
sg25
F14.0675
sg26
F13.743750000000002
sg27
F11.6875
sg28
F0.6353906250000001
sg29
F11.995000000000001
sg30
F8.396249999999998
sg31
F8.332500000000001
sg32
F13.345
sg33
F9.32375
sg34
F12.20125
sg35
F11.7075
ssg38
(dp47
g4
F18.1375
sg5
F20.962500000000006
sg6
F20.437500000000004
sg7
F19.250000000000007
sg8
F22.731249999999996
sg9
F13.218749999999998
sg10
F15.26875
sg11
F25.368750000000002
sg12
F14.362500000000002
sg13
F14.475000000000003
sg14
F12.174999999999999
sg15
F15.287500000000003
sg16
F17.974999999999994
sg17
F24.31875
sg18
F16.875
sg19
F13.83125
sg20
F14.518749999999999
sg21
F1.1429687499999999
sg22
F17.481250000000003
sg23
F10.35625
sg24
F19.375000000000004
sg25
F20.5125
sg26
F19.543750000000003
sg27
F15.04375
sg28
F1.618359375
sg29
F13.012500000000001
sg30
F17.2625
sg31
F18.44375
sg32
F24.175
sg33
F15.437500000000002
sg34
F14.11875
sg35
F18.456249999999997
ssg40
(dp48
g4
F14.35
sg5
F12.412500000000003
sg6
F9.600000000000001
sg7
F13.368750000000002
sg8
F10.100000000000001
sg9
F5.325000000000001
sg10
F11.6875
sg11
F13.675
sg12
F9.318750000000001
sg13
F6.506249999999999
sg14
F4.63125
sg15
F11.96875
sg16
F18.8625
sg17
F8.7375
sg18
F5.275
sg19
F9.025000000000002
sg20
F10.825000000000001
sg21
F0.6234375000000001
sg22
F8.26875
sg23
F10.062500000000002
sg24
F4.831250000000001
sg25
F10.056249999999999
sg26
F9.356250000000001
sg27
F9.387500000000001
sg28
F0.5601562500000001
sg29
F15.825
sg30
F6.999999999999999
sg31
F4.1625
sg32
F12.674999999999999
sg33
F8.262500000000001
sg34
F15.912500000000003
sg35
F11.1125
ssg42
(dp49
g4
F4.4312499999999995
sg5
F7.1375
sg6
F6.187500000000001
sg7
F7.393750000000001
sg8
F3.6875
sg9
F6.575000000000001
sg10
F7.30625
sg11
F6.012499999999999
sg12
F5.143750000000001
sg13
F7.80625
sg14
F8.731250000000001
sg15
F8.8125
sg16
F7.4
sg17
F6.631250000000001
sg18
F6.8687499999999995
sg19
F6.5874999999999995
sg20
F7.518750000000001
sg21
F0.6230468750000001
sg22
F6.3125
sg23
F9.618750000000002
sg24
F4.58125
sg25
F7.75
sg26
F7.4875
sg27
F5.737499999999999
sg28
F0.32734375
sg29
F11.050000000000002
sg30
F5.4750000000000005
sg31
F6.23125
sg32
F5.431250000000001
sg33
F7.837500000000001
sg34
F5.79375
sg35
F10.899999999999999
sssI2012
(dp50
g2
(dp51
g4
F5.6875
sg5
F5.3125
sg6
F3.0625
sg7
F3.5625
sg8
F5.5625
sg9
F5.3125
sg10
F7.4375
sg11
F5.1875
sg12
F5.875
sg13
F5.0
sg14
F5.625
sg15
F5.5625
sg16
F3.3125
sg17
F4.9375
sg18
F5.8125
sg19
F8.25
sg20
F4.875
sg21
F0.453125
sg22
F3.625
sg23
F5.1875
sg24
F8.375
sg25
F5.9375
sg26
F3.375
sg27
F6.625
sg28
F0.3359375
sg29
F5.1875
sg30
F4.9375
sg31
F3.125
sg32
F4.0
sg33
F5.125
sg34
F5.75
sg35
F4.875
ssg36
(dp52
g4
F13.02625
sg5
F16.848750000000003
sg6
F9.375
sg7
F12.031249999999998
sg8
F17.295
sg9
F11.274999999999999
sg10
F14.975000000000001
sg11
F12.05875
sg12
F17.871249999999996
sg13
F13.42375
sg14
F8.4275
sg15
F15.046249999999997
sg16
F16.74125
sg17
F10.242500000000001
sg18
F11.418750000000003
sg19
F14.898750000000003
sg20
F13.5125
sg21
F0.895625
sg22
F10.508750000000001
sg23
F12.005000000000003
sg24
F9.051250000000001
sg25
F11.972500000000002
sg26
F11.735
sg27
F15.82625
sg28
F0.8759375000000001
sg29
F16.29625
sg30
F11.733749999999997
sg31
F10.841249999999999
sg32
F12.94
sg33
F15.056249999999999
sg34
F12.24625
sg35
F16.1625
ssg38
(dp53
g4
F17.69375
sg5
F24.94375
sg6
F19.106250000000003
sg7
F16.3875
sg8
F32.431250000000006
sg9
F24.693749999999994
sg10
F26.7125
sg11
F26.781249999999996
sg12
F24.16875
sg13
F30.081250000000008
sg14
F19.924999999999997
sg15
F26.812500000000007
sg16
F30.462500000000006
sg17
F22.043750000000006
sg18
F18.63125
sg19
F25.693749999999998
sg20
F19.956249999999997
sg21
F1.2539062500000002
sg22
F15.2875
sg23
F14.006249999999998
sg24
F24.162500000000005
sg25
F25.643749999999997
sg26
F20.206250000000004
sg27
F20.031250000000004
sg28
F1.2917968750000004
sg29
F19.5375
sg30
F21.00625
sg31
F20.45625
sg32
F23.818750000000005
sg33
F27.706250000000008
sg34
F20.112499999999994
sg35
F33.28125
ssg40
(dp54
g4
F13.24375
sg5
F9.175
sg6
F10.95
sg7
F15.018749999999997
sg8
F21.34375
sg9
F13.8625
sg10
F15.681250000000002
sg11
F14.318749999999998
sg12
F8.15625
sg13
F9.943750000000001
sg14
F9.45
sg15
F13.79375
sg16
F15.037500000000003
sg17
F12.63125
sg18
F10.9625
sg19
F11.106249999999998
sg20
F13.843750000000002
sg21
F1.0058593749999998
sg22
F12.056249999999999
sg23
F15.5
sg24
F12.793750000000001
sg25
F13.16875
sg26
F13.762500000000001
sg27
F14.218750000000002
sg28
F0.797265625
sg29
F18.550000000000004
sg30
F9.843749999999998
sg31
F7.368750000000001
sg32
F11.475000000000001
sg33
F13.656250000000004
sg34
F15.012500000000005
sg35
F11.56875
ssg42
(dp55
g4
F11.681250000000002
sg5
F8.74375
sg6
F8.262500000000001
sg7
F8.6375
sg8
F7.15625
sg9
F6.24375
sg10
F9.55625
sg11
F8.9625
sg12
F8.65
sg13
F8.8
sg14
F10.40625
sg15
F9.393749999999999
sg16
F10.262500000000001
sg17
F6.437500000000001
sg18
F8.512500000000001
sg19
F7.91875
sg20
F8.018749999999999
sg21
F0.6460937499999999
sg22
F8.96875
sg23
F8.075000000000001
sg24
F7.456250000000001
sg25
F8.66875
sg26
F8.21875
sg27
F9.325
sg28
F0.593359375
sg29
F9.274999999999999
sg30
F8.987499999999999
sg31
F6.4125000000000005
sg32
F9.8625
sg33
F9.974999999999998
sg34
F8.675
sg35
F12.875
sssI2013
(dp56
g2
(dp57
g4
F6.3125
sg5
F6.25
sg6
F5.5
sg7
F6.375
sg8
F6.0
sg9
F5.5
sg10
F6.4375
sg11
F6.75
sg12
F6.5625
sg13
F7.3125
sg14
F6.1875
sg15
F6.5
sg16
F6.625
sg17
F4.875
sg18
F5.625
sg19
F5.3125
sg20
F7.1875
sg21
F0.39453125
sg22
F3.875
sg23
F6.9375
sg24
F7.125
sg25
F4.9375
sg26
F5.6875
sg27
F7.5
sg28
F0.27734375
sg29
F6.6875
sg30
F6.9375
sg31
F3.75
sg32
F5.25
sg33
F6.1875
sg34
F5.0625
sg35
F6.25
ssg36
(dp58
g4
F14.294999999999998
sg5
F21.76375
sg6
F12.84375
sg7
F19.12625
sg8
F13.55875
sg9
F9.71875
sg10
F16.27375
sg11
F14.690000000000003
sg12
F13.791250000000002
sg13
F15.236250000000002
sg14
F12.94125
sg15
F12.501249999999997
sg16
F18.355
sg17
F16.04375
sg18
F13.118749999999999
sg19
F9.104999999999999
sg20
F13.6475
sg21
F1.0945312500000002
sg22
F8.66
sg23
F14.7875
sg24
F10.8375
sg25
F12.89
sg26
F15.90875
sg27
F11.398750000000003
sg28
F0.8795312500000001
sg29
F13.79
sg30
F12.952500000000002
sg31
F11.882499999999999
sg32
F14.321250000000001
sg33
F17.55
sg34
F11.942499999999999
sg35
F13.092500000000001
ssg38
(dp59
g4
F26.768749999999997
sg5
F34.79375000000001
sg6
F27.506250000000005
sg7
F31.824999999999996
sg8
F24.06249999999999
sg9
F29.599999999999998
sg10
F28.937499999999996
sg11
F31.08125
sg12
F36.912499999999994
sg13
F23.937499999999993
sg14
F26.15000000000001
sg15
F24.243750000000002
sg16
F29.168750000000003
sg17
F20.38125
sg18
F21.937499999999996
sg19
F29.731249999999996
sg20
F25.54375
sg21
F1.7281249999999997
sg22
F18.643749999999997
sg23
F32.943749999999994
sg24
F29.243750000000006
sg25
F30.050000000000004
sg26
F25.53125
sg27
F18.81875
sg28
F2.02734375
sg29
F29.099999999999998
sg30
F24.45
sg31
F26.66250000000001
sg32
F28.356249999999992
sg33
F27.124999999999996
sg34
F23.868750000000002
sg35
F25.868750000000002
ssg40
(dp60
g4
F17.243750000000002
sg5
F18.10625
sg6
F18.76875
sg7
F20.275
sg8
F14.0625
sg9
F17.618750000000002
sg10
F20.63125
sg11
F13.550000000000002
sg12
F14.581249999999997
sg13
F21.237499999999997
sg14
F16.7625
sg15
F18.45
sg16
F15.262500000000001
sg17
F10.11875
sg18
F12.487499999999999
sg19
F16.6875
sg20
F17.912499999999998
sg21
F0.99453125
sg22
F12.612500000000002
sg23
F12.837499999999999
sg24
F15.91875
sg25
F13.725
sg26
F19.037500000000005
sg27
F18.28125
sg28
F1.0921875000000003
sg29
F16.54375
sg30
F17.175
sg31
F10.91875
sg32
F15.493750000000002
sg33
F23.962500000000002
sg34
F13.637500000000003
sg35
F18.906249999999996
ssg42
(dp61
g4
F12.525
sg5
F12.387499999999998
sg6
F12.1
sg7
F11.250000000000002
sg8
F9.125
sg9
F11.193750000000001
sg10
F10.68125
sg11
F9.087500000000002
sg12
F10.887499999999998
sg13
F7.375000000000001
sg14
F10.918750000000001
sg15
F11.456250000000002
sg16
F9.781250000000002
sg17
F17.3625
sg18
F9.075
sg19
F9.69375
sg20
F11.725
sg21
F0.8554687499999998
sg22
F10.156250000000002
sg23
F10.975
sg24
F6.706249999999999
sg25
F10.481249999999998
sg26
F9.187499999999998
sg27
F11.70625
sg28
F0.5171875000000001
sg29
F8.781250000000002
sg30
F11.225
sg31
F8.78125
sg32
F10.156250000000004
sg33
F14.575000000000003
sg34
F10.60625
sg35
F7.74375
sssI2014
(dp62
g2
(dp63
g4
F6.625
sg5
F6.375
sg6
F9.25
sg7
F7.4375
sg8
F7.9375
sg9
F7.5
sg10
F8.4375
sg11
F5.125
sg12
F7.0
sg13
F7.5625
sg14
F7.0
sg15
F7.4375
sg16
F7.375
sg17
F6.6875
sg18
F6.625
sg19
F7.5625
sg20
F7.3125
sg21
F0.515625
sg22
F5.5
sg23
F7.1875
sg24
F6.9375
sg25
F5.3125
sg26
F5.9375
sg27
F8.5625
sg28
F0.4453125
sg29
F6.9375
sg30
F5.5
sg31
F5.882352941176471
sg32
F7.1875
sg33
F5.375
sg34
F6.375
sg35
F7.25
ssg36
(dp64
g4
F15.661250000000003
sg5
F14.57125
sg6
F19.02
sg7
F16.55125
sg8
F18.105
sg9
F14.125
sg10
F13.4125
sg11
F13.163750000000004
sg12
F18.881250000000005
sg13
F11.93875
sg14
F16.806250000000002
sg15
F17.23625
sg16
F16.404999999999998
sg17
F14.7425
sg18
F12.536249999999999
sg19
F8.77
sg20
F12.93875
sg21
F0.9025781249999999
sg22
F9.561250000000001
sg23
F12.99
sg24
F16.055
sg25
F13.073750000000002
sg26
F14.828749999999998
sg27
F15.496249999999998
sg28
F0.8889843749999999
sg29
F11.7575
sg30
F14.79125
sg31
F10.898823529411764
sg32
F11.990000000000002
sg33
F15.036250000000003
sg34
F16.21375
sg35
F19.69625
ssg38
(dp65
g4
F30.062499999999996
sg5
F31.737500000000008
sg6
F32.525
sg7
F34.800000000000004
sg8
F35.393750000000004
sg9
F32.55625
sg10
F30.968749999999996
sg11
F32.68750000000001
sg12
F38.33749999999999
sg13
F32.70000000000001
sg14
F35.00000000000001
sg15
F26.70000000000001
sg16
F34.98125
sg17
F32.293749999999996
sg18
F29.212499999999995
sg19
F32.71874999999999
sg20
F33.3
sg21
F1.7902343749999996
sg22
F21.175000000000004
sg23
F34.06250000000001
sg24
F36.89375
sg25
F27.556250000000002
sg26
F31.887500000000003
sg27
F29.1125
sg28
F2.287890625
sg29
F30.506250000000005
sg30
F35.925
sg31
F28.80588235294118
sg32
F27.087499999999995
sg33
F28.168750000000003
sg34
F33.125
sg35
F34.53124999999999
ssg40
(dp66
g4
F18.925
sg5
F21.750000000000004
sg6
F19.2375
sg7
F25.99375
sg8
F24.662499999999998
sg9
F19.0375
sg10
F25.124999999999996
sg11
F18.243750000000002
sg12
F20.7375
sg13
F21.918749999999996
sg14
F16.737499999999994
sg15
F17.79375
sg16
F19.162499999999998
sg17
F14.968749999999998
sg18
F23.206250000000004
sg19
F16.743749999999995
sg20
F20.706250000000004
sg21
F1.4898437500000001
sg22
F18.537499999999998
sg23
F17.968749999999996
sg24
F15.0
sg25
F21.3625
sg26
F18.39375
sg27
F23.743750000000006
sg28
F1.100390625
sg29
F19.337500000000006
sg30
F19.831250000000004
sg31
F15.370588235294111
sg32
F20.95625
sg33
F20.356250000000003
sg34
F19.856250000000003
sg35
F15.718749999999996
ssg42
(dp67
g4
F14.699999999999998
sg5
F10.33125
sg6
F15.25625
sg7
F8.5625
sg8
F8.343750000000002
sg9
F8.725
sg10
F12.687499999999996
sg11
F11.45625
sg12
F8.575000000000001
sg13
F9.481250000000001
sg14
F12.475
sg15
F11.925
sg16
F9.768749999999999
sg17
F14.968750000000002
sg18
F10.768749999999999
sg19
F8.50625
sg20
F9.081250000000002
sg21
F0.7218749999999999
sg22
F11.350000000000003
sg23
F14.456249999999999
sg24
F10.293749999999998
sg25
F13.387499999999998
sg26
F9.756249999999998
sg27
F12.293750000000003
sg28
F0.551171875
sg29
F7.768750000000001
sg30
F8.4875
sg31
F11.841176470588238
sg32
F13.331249999999999
sg33
F15.45
sg34
F9.8
sg35
F13.3125
sssI2015
(dp68
g2
(dp69
g4
F6.375
sg5
F6.75
sg6
F7.1875
sg7
F6.1875
sg8
F5.823529411764706
sg9
F7.875
sg10
F8.6875
sg11
F7.25
sg12
F8.0
sg13
F8.375
sg14
F6.6875
sg15
F8.75
sg16
F7.625
sg17
F6.5625
sg18
F6.5625
sg19
F4.647058823529412
sg20
F6.5625
sg21
F0.48046875
sg22
F6.4375
sg23
F6.75
sg24
F7.9375
sg25
F7.75
sg26
F6.4375
sg27
F7.1875
sg28
F0.5234375
sg29
F5.823529411764706
sg30
F5.5
sg31
F7.4375
sg32
F5.705882352941177
sg33
F7.875
sg34
F4.6875
sg35
F6.8125
ssg36
(dp70
g4
F12.322500000000002
sg5
F15.391250000000001
sg6
F19.2125
sg7
F14.471249999999998
sg8
F22.32941176470588
sg9
F14.752500000000001
sg10
F16.97375
sg11
F16.515
sg12
F19.96875
sg13
F18.822499999999998
sg14
F17.06
sg15
F20.10625
sg16
F16.848750000000003
sg17
F14.49625
sg18
F13.087499999999999
sg19
F13.034117647058824
sg20
F16.7575
sg21
F1.1267187500000002
sg22
F12.653750000000002
sg23
F13.606250000000001
sg24
F16.970000000000002
sg25
F16.852500000000003
sg26
F14.595
sg27
F19.068749999999998
sg28
F0.9625781250000002
sg29
F15.754117647058827
sg30
F13.916250000000002
sg31
F16.387500000000003
sg32
F14.947058823529408
sg33
F15.839999999999996
sg34
F14.053750000000004
sg35
F18.01125
ssg38
(dp71
g4
F26.64999999999999
sg5
F31.437500000000004
sg6
F27.206250000000004
sg7
F25.650000000000002
sg8
F34.79411764705882
sg9
F30.5125
sg10
F33.34375
sg11
F35.61874999999999
sg12
F39.506250000000016
sg13
F39.43750000000001
sg14
F41.78125
sg15
F36.89374999999999
sg16
F38.44375
sg17
F29.34375000000001
sg18
F33.818749999999994
sg19
F35.15882352941176
sg20
F36.25624999999999
sg21
F2.189453125000001
sg22
F26.493750000000006
sg23
F35.29374999999999
sg24
F39.512499999999996
sg25
F38.11874999999999
sg26
F30.04375
sg27
F36.20625000000001
sg28
F2.099609375
sg29
F36.69411764705882
sg30
F31.625000000000004
sg31
F34.899999999999984
sg32
F34.95294117647058
sg33
F30.3125
sg34
F32.4
sg35
F36.16249999999998
ssg40
(dp72
g4
F20.743749999999995
sg5
F19.74375
sg6
F22.24375
sg7
F25.012500000000006
sg8
F23.68823529411765
sg9
F26.131250000000005
sg10
F23.81250000000001
sg11
F21.731249999999996
sg12
F24.81875
sg13
F22.137500000000003
sg14
F18.056250000000006
sg15
F25.156249999999986
sg16
F20.687500000000004
sg17
F19.78125
sg18
F22.993750000000002
sg19
F17.28235294117647
sg20
F28.800000000000008
sg21
F1.6757812499999996
sg22
F17.218750000000007
sg23
F17.35
sg24
F19.943750000000005
sg25
F23.275000000000002
sg26
F19.775000000000002
sg27
F18.918749999999996
sg28
F1.3601562500000002
sg29
F19.61176470588235
sg30
F20.281250000000004
sg31
F27.83125
sg32
F18.829411764705885
sg33
F25.868750000000002
sg34
F22.04375
sg35
F23.31875000000001
ssg42
(dp73
g4
F13.025
sg5
F12.781250000000002
sg6
F12.481250000000005
sg7
F15.525000000000002
sg8
F16.88235294117647
sg9
F12.531250000000002
sg10
F14.618750000000002
sg11
F14.6125
sg12
F11.431249999999999
sg13
F10.04375
sg14
F14.15
sg15
F17.70625
sg16
F12.518749999999997
sg17
F13.081249999999999
sg18
F10.550000000000002
sg19
F8.776470588235295
sg20
F11.581250000000002
sg21
F0.8964843749999998
sg22
F12.549999999999999
sg23
F9.6
sg24
F9.25625
sg25
F13.825000000000001
sg26
F12.375
sg27
F13.91875
sg28
F0.841796875
sg29
F10.447058823529416
sg30
F11.562499999999996
sg31
F10.837500000000002
sg32
F8.952941176470587
sg33
F9.156249999999998
sg34
F11.943750000000003
sg35
F12.681249999999999
sss.