(dp0
S'2015'
p1
(dp2
S'11'
p3
(dp4
S'PassAtt'
p5
F39.0
sS'RushTD'
p6
F1.0
sS'Players'
p7
(lp8
(S'Tom Brady'
p9
S'QB'
p10
tp11
a(S'Jimmy Garoppolo'
p12
g10
tp13
a(S'LeGarrette Blount'
p14
S'RB'
p15
tp16
a(S'Brandon Bolden'
p17
g15
tp18
a(S'James White'
p19
g15
tp20
a(S'Danny Amendola'
p21
S'WR'
p22
tp23
a(S'Aaron Dobson'
p24
g22
tp25
a(S'Julian Edelman'
p26
g22
tp27
a(S'Chris Harper'
p28
g22
tp29
a(S'Brandon LaFell'
p30
g22
tp31
a(S'Keshawn Martin'
p32
g22
tp33
a(S'Matthew Slater'
p34
g22
tp35
a(S'Scott Chandler'
p36
S'TE'
p37
tp38
a(S'Rob Gronkowski'
p39
g37
tp40
a(S'Michael Williams'
p41
g37
tp42
a(S'Stephen Gostkowski'
p43
S'K'
p44
tp45
asS'Won'
p46
I00
sS'RushAtt'
p47
F22.0
sS'PassYds'
p48
F277.0
sS'FGAtt'
p49
F3.0
sS'PassTD'
p50
F1.0
sS'FGM'
p51
F2.0
sS'Score'
p52
S'13-20'
p53
sS'Home'
p54
I00
sS'RushYds'
p55
F85.0
sS'FGBlk'
p56
F0.0
ssS'10'
p57
(dp58
g5
F34.0
sg6
F0.0
sg7
(lp59
(S'Ryan Fitzpatrick'
p60
g10
tp61
a(S'Bryce Petty'
p62
g10
tp63
a(S'Geno Smith'
p64
g10
tp65
a(S'Tommy Bohanon'
p66
g15
tp67
a(S'Cyrus Gray'
p68
g15
tp69
a(S'Chris Ivory'
p70
g15
tp71
a(S'Bilal Powell'
p72
g15
tp73
a(S'Stevan Ridley'
p74
g15
tp75
a(S'Zac Stacy'
p76
g15
tp77
a(S'Eric Decker'
p78
g22
tp79
a(S'Jeremy Kerley'
p80
g22
tp81
a(S'Brandon Marshall'
p82
g22
tp83
a(S'Devin Smith'
p84
g22
tp85
a(S'Kenbrell Thompkins'
p86
g22
tp87
a(S'Jeff Cumberland'
p88
g37
tp89
a(S'Kellen Davis'
p90
g37
tp91
a(S'Randy Bullock'
p92
g44
tp93
asg46
I01
sg47
F24.0
sg48
F193.0
sg49
F1.0
sg50
F2.0
sg51
F1.0
sg52
S'22-17'
p94
sg54
I00
sg55
F128.0
sg56
F0.0
ssS'13'
p95
(dp96
g5
F43.0
sg6
F0.0
sg7
(lp97
(S'Brian Hoyer'
p98
g10
tp99
a(S'Brandon Weeden'
p100
g10
tp101
a(S'T.J. Yates'
p102
g10
tp103
a(S'Alfred Blue'
p104
g15
tp105
a(S'Jonathan Grimes'
p106
g15
tp107
a(S'Akeem Hunt'
p108
g15
tp109
a(S'Chris Polk'
p110
g15
tp111
a(S'Jay Prosch'
p112
g15
tp113
a(S'Josh Gordon'
p114
g22
tp115
a(S'DeAndre Hopkins'
p116
g22
tp117
a(S'Keith Mumphery'
p118
g22
tp119
a(S'Cecil Shorts'
p120
g22
tp121
a(S'Jaelen Strong'
p122
g22
tp123
a(S'Nate Washington'
p124
g22
tp125
a(S'C.J. Fiedorowicz'
p126
g37
tp127
a(S'Garrett Graham'
p128
g37
tp129
a(S'Ryan Griffin'
p130
g37
tp131
a(S'Nick Novak'
p132
g44
tp133
asg46
I01
sg47
F26.0
sg48
F293.0
sg49
F0.0
sg50
F3.0
sg51
F0.0
sg52
S'30-21'
p134
sg54
I01
sg55
F126.0
sg56
F0.0
ssS'12'
p135
(dp136
g5
F30.0
sg6
F1.0
sg7
(lp137
(S'Chase Daniel'
p138
g10
tp139
a(S'Aaron Murray'
p140
g10
tp141
a(S'Alex Smith'
p142
g10
tp143
a(S'Knile Davis'
p144
g15
tp145
a(S'Anthony Sherman'
p146
g15
tp147
a(S'Spencer Ware'
p148
g15
tp149
a(S'Charcandrick West'
p150
g15
tp151
a(S'Jason Avant'
p152
g22
tp153
a(S'Chris Conley'
p154
g22
tp155
a(S'Frankie Hammond'
p156
g22
tp157
a(S'Jeremy Maclin'
p158
g22
tp159
a(S"De'Anthony Thomas"
p160
g22
tp161
a(S'Albert Wilson'
p162
g22
tp163
a(S'Demetrius Harris'
p164
g37
tp165
a(S'Travis Kelce'
p166
g37
tp167
a(S'Brian Parker'
p168
g37
tp169
a(S'Zach Sudfeld'
p170
g37
tp171
a(S'Cairo Santos'
p172
g44
tp173
asg46
I00
sg47
F27.0
sg48
F255.0
sg49
F4.0
sg50
F2.0
sg51
F3.0
sg52
S'22-30'
p174
sg54
I00
sg55
F158.0
sg56
F0.0
ssS'15'
p175
(dp176
g5
F28.0
sg6
F1.0
sg7
(lp177
(S'Kirk Cousins'
p178
g10
tp179
a(S'Robert Griffin III'
p180
g10
tp181
a(S'Colt McCoy'
p182
g10
tp183
a(S'Alfred Morris'
p184
g15
tp185
a(S'Chris Thompson'
p186
g15
tp187
a(S'Darrel Young'
p188
g15
tp189
a(S'Jamison Crowder'
p190
g22
tp191
a(S'Pierre Garcon'
p192
g22
tp193
a(S'Ryan Grant'
p194
g22
tp195
a(S'DeSean Jackson'
p196
g22
tp197
a(S'Andre Roberts'
p198
g22
tp199
a(S'Rashad Ross'
p200
g22
tp201
a(S"Je'Ron Hamm"
p202
g37
tp203
a(S'Jordan Reed'
p204
g37
tp205
a(S'Alex Smith'
p206
g37
tp207
a(S'Dustin Hopkins'
p208
g44
tp209
asg46
I00
sg47
F17.0
sg48
F319.0
sg49
F0.0
sg50
F4.0
sg51
F0.0
sg52
S'25-35'
p210
sg54
I00
sg55
F95.0
sg56
F0.0
ssS'14'
p211
(dp212
g5
F38.0
sg6
F1.0
sg7
(lp213
(S'Sam Bradford'
p214
g10
tp215
a(S'Thad Lewis'
p216
g10
tp217
a(S'Mark Sanchez'
p218
g10
tp219
a(S'Kenjon Barner'
p220
g15
tp221
a(S'Ryan Mathews'
p222
g15
tp223
a(S'DeMarco Murray'
p224
g15
tp225
a(S'Darren Sproles'
p226
g15
tp227
a(S'Nelson Agholor'
p228
g22
tp229
a(S'Seyi Ajirotutu'
p230
g22
tp231
a(S'Josh Huff'
p232
g22
tp233
a(S'Jonathan Krause'
p234
g22
tp235
a(S'Jordan Matthews'
p236
g22
tp237
a(S'Trey Burton'
p238
g37
tp239
a(S'Brent Celek'
p240
g37
tp241
a(S'Zach Ertz'
p242
g37
tp243
a(S'Caleb Sturgis'
p244
g44
tp245
asg46
I00
sg47
F34.0
sg48
F247.0
sg49
F3.0
sg50
F1.0
sg51
F3.0
sg52
S'20-23'
p246
sg54
I00
sg55
F116.0
sg56
F0.0
ssS'17'
p247
(dp248
g5
F37.0
sg6
F0.0
sg7
(lp249
(S'Ryan Fitzpatrick'
p250
g10
tp251
a(S'Bryce Petty'
p252
g10
tp253
a(S'Geno Smith'
p254
g10
tp255
a(S'Tommy Bohanon'
p256
g15
tp257
a(S'Chris Ivory'
p258
g15
tp259
a(S'Bilal Powell'
p260
g15
tp261
a(S'Stevan Ridley'
p262
g15
tp263
a(S'Eric Decker'
p264
g22
tp265
a(S'Quincy Enunwa'
p266
g22
tp267
a(S'Jeremy Kerley'
p268
g22
tp269
a(S'Brandon Marshall'
p270
g22
tp271
a(S'Kenbrell Thompkins'
p272
g22
tp273
a(S'Jeff Cumberland'
p274
g37
tp275
a(S'Kellen Davis'
p276
g37
tp277
a(S'Randy Bullock'
p278
g44
tp279
asg46
I01
sg47
F17.0
sg48
F181.0
sg49
F2.0
sg50
F2.0
sg51
F1.0
sg52
S'22-17'
p280
sg54
I01
sg55
F122.0
sg56
F0.0
ssS'16'
p281
(dp282
g5
F31.0
sg6
F0.0
sg7
(lp283
(S'Matt Cassel'
p284
g10
tp285
a(S'Kellen Moore'
p286
g10
tp287
a(S'Jameill Showers'
p288
g10
tp289
a(S'Tyler Clutts'
p290
g15
tp291
a(S'Darren McFadden'
p292
g15
tp293
a(S'Rod Smith'
p294
g15
tp295
a(S'Robert Turbin'
p296
g15
tp297
a(S'Cole Beasley'
p298
g22
tp299
a(S'Dez Bryant'
p300
g22
tp301
a(S'Brice Butler'
p302
g22
tp303
a(S'Devin Street'
p304
g22
tp305
a(S'Lucky Whitehead'
p306
g22
tp307
a(S'Terrance Williams'
p308
g22
tp309
a(S'James Hanna'
p310
g37
tp311
a(S'Geoff Swaim'
p312
g37
tp313
a(S'Jason Witten'
p314
g37
tp315
a(S'Dan Bailey'
p316
g44
tp317
asg46
I01
sg47
F25.0
sg48
F186.0
sg49
F3.0
sg50
F0.0
sg51
F2.0
sg52
S'16-6'
p318
sg54
I01
sg55
F121.0
sg56
F0.0
ssS'1'
p319
(dp320
g5
F49.0
sg6
F0.0
sg7
(lp321
(S'Andrew Luck'
p322
g10
tp323
a(S'Vick Ballard'
p324
g15
tp325
a(S'Frank Gore'
p326
g15
tp327
a(S'Tyler Varga'
p328
g15
tp329
a(S'Phillip Dorsett'
p330
g22
tp331
a(S'T.Y. Hilton'
p332
g22
tp333
a(S'Andre Johnson'
p334
g22
tp335
a(S'Donte Moncrief'
p336
g22
tp337
a(S'Griff Whalen'
p338
g22
tp339
a(S'Dwayne Allen'
p340
g37
tp341
a(S'Jack Doyle'
p342
g37
tp343
a(S'Coby Fleener'
p344
g37
tp345
a(S'Adam Vinatieri'
p346
g44
tp347
asg46
I01
sg47
F13.0
sg48
F243.0
sg49
F1.0
sg50
F2.0
sg51
F0.0
sg52
S'27-14'
p348
sg54
I01
sg55
F53.0
sg56
F0.0
ssS'3'
p349
(dp350
g5
F49.0
sg6
F0.0
sg7
(lp351
(S'Matt Moore'
p352
g10
tp353
a(S'Ryan Tannehill'
p354
g10
tp355
a(S'Jonas Gray'
p356
g15
tp357
a(S'Lamar Miller'
p358
g15
tp359
a(S'Raheem Mostert'
p360
g15
tp361
a(S'Damien Williams'
p362
g15
tp363
a(S'Matt Hazel'
p364
g22
tp365
a(S'Greg Jennings'
p366
g22
tp367
a(S'Jarvis Landry'
p368
g22
tp369
a(S'Rishard Matthews'
p370
g22
tp371
a(S'DeVante Parker'
p372
g22
tp373
a(S'Kenny Stills'
p374
g22
tp375
a(S'Jordan Cameron'
p376
g37
tp377
a(S'Dion Sims'
p378
g37
tp379
a(S'Jake Stoneburner'
p380
g37
tp381
a(S'Andrew Franks'
p382
g44
tp383
asg46
I01
sg47
F20.0
sg48
F297.0
sg49
F0.0
sg50
F2.0
sg51
F0.0
sg52
S'41-14'
p384
sg54
I00
sg55
F102.0
sg56
F0.0
ssS'2'
p385
(dp386
g5
F59.0
sg6
F1.0
sg7
(lp387
(S'Tom Brady'
p388
g10
tp389
a(S'Jimmy Garoppolo'
p390
g10
tp391
a(S'LeGarrette Blount'
p392
g15
tp393
a(S'Brandon Bolden'
p394
g15
tp395
a(S'Travaris Cadet'
p396
g15
tp397
a(S'Dion Lewis'
p398
g15
tp399
a(S'James White'
p400
g15
tp401
a(S'Danny Amendola'
p402
g22
tp403
a(S'Aaron Dobson'
p404
g22
tp405
a(S'Julian Edelman'
p406
g22
tp407
a(S'Keshawn Martin'
p408
g22
tp409
a(S'Matthew Slater'
p410
g22
tp411
a(S'Scott Chandler'
p412
g37
tp413
a(S'Rob Gronkowski'
p414
g37
tp415
a(S'Michael Hoomanawanui'
p416
g37
tp417
a(S'Michael Williams'
p418
g37
tp419
a(S'Stephen Gostkowski'
p420
g44
tp421
asg46
I00
sg47
F15.0
sg48
F466.0
sg49
F4.0
sg50
F3.0
sg51
F4.0
sg52
S'32-40'
p422
sg54
I01
sg55
F56.0
sg56
F0.0
ssS'5'
p423
(dp424
g5
F32.0
sg6
F1.0
sg7
(lp425
(S'Marcus Mariota'
p426
g10
tp427
a(S'Zach Mettenberger'
p428
g10
tp429
a(S'Antonio Andrews'
p430
g15
tp431
a(S'Jalston Fowler'
p432
g15
tp433
a(S'Dexter McCluster'
p434
g15
tp435
a(S'Bishop Sankey'
p436
g15
tp437
a(S'Terrance West'
p438
g15
tp439
a(S'Harry Douglas'
p440
g22
tp441
a(S'Dorial Green-Beckham'
p442
g22
tp443
a(S'Justin Hunter'
p444
g22
tp445
a(S'Kendall Wright'
p446
g22
tp447
a(S'Chase Coffman'
p448
g37
tp449
a(S'Anthony Fasano'
p450
g37
tp451
a(S'Craig Stevens'
p452
g37
tp453
a(S'Phillip Supernaw'
p454
g37
tp455
a(S'Delanie Walker'
p456
g37
tp457
a(S'Ryan Succop'
p458
g44
tp459
asg46
I01
sg47
F28.0
sg48
F187.0
sg49
F2.0
sg50
F0.0
sg51
F2.0
sg52
S'14-13'
p460
sg54
I00
sg55
F97.0
sg56
F0.0
ssS'4'
p461
(dp462
g5
F35.0
sg6
F0.0
sg7
(lp463
(S'Eli Manning'
p464
g10
tp465
a(S'Ryan Nassib'
p466
g10
tp467
a(S'Orleans Darkwa'
p468
g15
tp469
a(S'Rashad Jennings'
p470
g15
tp471
a(S'Shane Vereen'
p472
g15
tp473
a(S'Nikit Whitlock'
p474
g15
tp475
a(S'Andre Williams'
p476
g15
tp477
a(S'Odell Beckham'
p478
g22
tp479
a(S'Victor Cruz'
p480
g22
tp481
a(S'Geremy Davis'
p482
g22
tp483
a(S'Dwayne Harris'
p484
g22
tp485
a(S'Rueben Randle'
p486
g22
tp487
a(S'Jerome Cunningham'
p488
g37
tp489
a(S'Larry Donnell'
p490
g37
tp491
a(S'Daniel Fells'
p492
g37
tp493
a(S'Will Tye'
p494
g37
tp495
a(S'Josh Brown'
p496
g44
tp497
asg46
I00
sg47
F28.0
sg48
F212.0
sg49
F1.0
sg50
F3.0
sg51
F1.0
sg52
S'10-24'
p498
sg54
I01
sg55
F92.0
sg56
F0.0
ssS'7'
p499
(dp500
g5
F29.0
sg6
F1.0
sg7
(lp501
(S'Blake Bortles'
p502
g10
tp503
a(S'Chad Henne'
p504
g10
tp505
a(S'Joe Banyard'
p506
g15
tp507
a(S'Toby Gerhart'
p508
g15
tp509
a(S'Bernard Pierce'
p510
g15
tp511
a(S'Denard Robinson'
p512
g15
tp513
a(S'T.J. Yeldon'
p514
g15
tp515
a(S'Allen Hurns'
p516
g22
tp517
a(S'Marqise Lee'
p518
g22
tp519
a(S'Allen Robinson'
p520
g22
tp521
a(S'Neal Sterling'
p522
g22
tp523
a(S'Bryan Walters'
p524
g22
tp525
a(S'Clay Harbor'
p526
g37
tp527
a(S'Nic Jacobs'
p528
g37
tp529
a(S'Marcedes Lewis'
p530
g37
tp531
a(S'Julius Thomas'
p532
g37
tp533
a(S'Jason Myers'
p534
g44
tp535
asg46
I00
sg47
F31.0
sg48
F182.0
sg49
F0.0
sg50
F2.0
sg51
F0.0
sg52
S'31-34'
p536
sg54
I00
sg55
F120.0
sg56
F0.0
ssS'6'
p537
(dp538
g5
F33.0
sg6
F1.0
sg7
(lp539
(S'Andy Dalton'
p540
g10
tp541
a(S'AJ McCarron'
p542
g10
tp543
a(S'Giovani Bernard'
p544
g15
tp545
a(S'Rex Burkhead'
p546
g15
tp547
a(S'Jeremy Hill'
p548
g15
tp549
a(S'Cedric Peerman'
p550
g15
tp551
a(S'Mario Alford'
p552
g22
tp553
a(S'A.J. Green'
p554
g22
tp555
a(S'Marvin Jones'
p556
g22
tp557
a(S'Greg Little'
p558
g22
tp559
a(S'Mohamed Sanu'
p560
g22
tp561
a(S'Brandon Tate'
p562
g22
tp563
a(S'Tyler Eifert'
p564
g37
tp565
a(S'Ryan Hewitt'
p566
g37
tp567
a(S'Tyler Kroft'
p568
g37
tp569
a(S'C.J. Uzomah'
p570
g37
tp571
a(S'Mike Nugent'
p572
g44
tp573
asg46
I00
sg47
F28.0
sg48
F243.0
sg49
F2.0
sg50
F3.0
sg51
F2.0
sg52
S'21-34'
p574
sg54
I01
sg55
F112.0
sg56
F0.0
ssS'9'
p575
(dp576
g5
F35.0
sg6
F2.0
sg7
(lp577
(S'Matt Moore'
p578
g10
tp579
a(S'Ryan Tannehill'
p580
g10
tp581
a(S'Jay Ajayi'
p582
g15
tp583
a(S'Jonas Gray'
p584
g15
tp585
a(S'Lamar Miller'
p586
g15
tp587
a(S'Damien Williams'
p588
g15
tp589
a(S'Matt Hazel'
p590
g22
tp591
a(S'Greg Jennings'
p592
g22
tp593
a(S'Jarvis Landry'
p594
g22
tp595
a(S'Rishard Matthews'
p596
g22
tp597
a(S'DeVante Parker'
p598
g22
tp599
a(S'Kenny Stills'
p600
g22
tp601
a(S'Jordan Cameron'
p602
g37
tp603
a(S'Dion Sims'
p604
g37
tp605
a(S'Jake Stoneburner'
p606
g37
tp607
a(S'Brandon Williams'
p608
g37
tp609
a(S'Andrew Franks'
p610
g44
tp611
asg46
I01
sg47
F24.0
sg48
F307.0
sg49
F1.0
sg50
F0.0
sg51
F1.0
sg52
S'33-17'
p612
sg54
I01
sg55
F108.0
sg56
F0.0
ssS'8'
p613
(dp614
g5
F0.0
sg6
F0.0
sg7
(lp615
(S'Zach Sudfeld'
p616
g37
tp617
asg46
I01
sg47
F0.0
sg48
F0.0
sg49
F0.0
sg50
F0.0
sg51
F0.0
sg52
S'43-23'
p618
sg54
I00
sg55
F0.0
sg56
F0.0
sssS'2014'
p619
(dp620
g3
(dp621
g5
F34.0
sg6
F0.0
sg7
(lp622
(S'Matt Moore'
p623
g10
tp624
a(S'Ryan Tannehill'
p625
g10
tp626
a(S'Lamar Miller'
p627
g15
tp628
a(S'Daniel Thomas'
p629
g15
tp630
a(S'Damien Williams'
p631
g15
tp632
a(S'Brandon Gibson'
p633
g22
tp634
a(S'Brian Hartline'
p635
g22
tp636
a(S'Jarvis Landry'
p637
g22
tp638
a(S'Rishard Matthews'
p639
g22
tp640
a(S'Mike Wallace'
p641
g22
tp642
a(S'Charles Clay'
p643
g37
tp644
a(S'Dion Sims'
p645
g37
tp646
a(S'Caleb Sturgis'
p647
g44
tp648
asg46
I00
sg47
F24.0
sg48
F240.0
sg49
F2.0
sg50
F2.0
sg51
F2.0
sg52
S'9-22'
p649
sg54
I00
sg55
F125.0
sg56
F0.0
ssg57
(dp650
g5
F29.0
sg6
F2.0
sg7
(lp651
(S'Chase Daniel'
p652
g10
tp653
a(S'Aaron Murray'
p654
g10
tp655
a(S'Alex Smith'
p656
g10
tp657
a(S'Jamaal Charles'
p658
g15
tp659
a(S'Knile Davis'
p660
g15
tp661
a(S'Cyrus Gray'
p662
g15
tp663
a(S'Anthony Sherman'
p664
g15
tp665
a(S'Dwayne Bowe'
p666
g22
tp667
a(S'Frankie Hammond'
p668
g22
tp669
a(S"De'Anthony Thomas"
p670
g22
tp671
a(S'Albert Wilson'
p672
g22
tp673
a(S'Anthony Fasano'
p674
g37
tp675
a(S'Demetrius Harris'
p676
g37
tp677
a(S'Travis Kelce'
p678
g37
tp679
a(S'Cairo Santos'
p680
g44
tp681
asg46
I00
sg47
F24.0
sg48
F177.0
sg49
F1.0
sg50
F0.0
sg51
F1.0
sg52
S'13-17'
p682
sg54
I01
sg55
F127.0
sg56
F0.0
ssg95
(dp683
g5
F38.0
sg6
F1.0
sg7
(lp684
(S'Brian Hoyer'
p685
g10
tp686
a(S'Johnny Manziel'
p687
g10
tp688
a(S'Isaiah Crowell'
p689
g15
tp690
a(S'Terrance West'
p691
g15
tp692
a(S'Glenn Winston'
p693
g15
tp694
a(S'Travis Benjamin'
p695
g22
tp696
a(S'Taylor Gabriel'
p697
g22
tp698
a(S'Josh Gordon'
p699
g22
tp700
a(S'Andrew Hawkins'
p701
g22
tp702
a(S'Marlon Moore'
p703
g22
tp704
a(S'Rodney Smith'
p705
g22
tp706
a(S'Gary Barnidge'
p707
g37
tp708
a(S'Jordan Cameron'
p709
g37
tp710
a(S'Jim Dray'
p711
g37
tp712
asg46
I01
sg47
F26.0
sg48
F255.0
sg49
F0.0
sg50
F0.0
sg51
F0.0
sg52
S'26-10'
p713
sg54
I01
sg55
F74.0
sg56
F0.0
ssg135
(dp714
g5
F31.0
sg6
F0.0
sg7
(lp715
(S'Matt Simms'
p716
g10
tp717
a(S'Geno Smith'
p718
g10
tp719
a(S'Mike Vick'
p720
g10
tp721
a(S'Chris Ivory'
p722
g15
tp723
a(S'Chris Johnson'
p724
g15
tp725
a(S'Bilal Powell'
p726
g15
tp727
a(S'Eric Decker'
p728
g22
tp729
a(S'T.J. Graham'
p730
g22
tp731
a(S'Saalim Hakim'
p732
g22
tp733
a(S'Percy Harvin'
p734
g22
tp735
a(S'Jeremy Kerley'
p736
g22
tp737
a(S'Walt Powell'
p738
g22
tp739
a(S'Greg Salas'
p740
g22
tp741
a(S'Jace Amaro'
p742
g37
tp743
a(S'Jeff Cumberland'
p744
g37
tp745
a(S'Zach Sudfeld'
p746
g37
tp747
a(S'Nick Folk'
p748
g44
tp749
asg46
I01
sg47
F18.0
sg48
F165.0
sg49
F1.0
sg50
F0.0
sg51
F1.0
sg52
S'38-3'
p750
sg54
I01
sg55
F79.0
sg56
F0.0
ssg175
(dp751
g5
F42.0
sg6
F1.0
sg7
(lp752
(S'Matt Flynn'
p753
g10
tp754
a(S'Aaron Rodgers'
p755
g10
tp756
a(S'Scott Tolzien'
p757
g10
tp758
a(S'DuJuan Harris'
p759
g15
tp760
a(S'John Kuhn'
p761
g15
tp762
a(S'Eddie Lacy'
p763
g15
tp764
a(S'James Starks'
p765
g15
tp766
a(S'Davante Adams'
p767
g22
tp768
a(S'Jarrett Boykin'
p769
g22
tp770
a(S'Randall Cobb'
p771
g22
tp772
a(S'Jeff Janis'
p773
g22
tp774
a(S'Jordy Nelson'
p775
g22
tp776
a(S'Brandon Bostick'
p777
g37
tp778
a(S'Justin Perillo'
p779
g37
tp780
a(S'Andrew Quarless'
p781
g37
tp782
a(S'Richard Rodgers'
p783
g37
tp784
a(S'Mason Crosby'
p785
g44
tp786
asg46
I01
sg47
F24.0
sg48
F185.0
sg49
F3.0
sg50
F0.0
sg51
F2.0
sg52
S'21-13'
p787
sg54
I01
sg55
F158.0
sg56
F1.0
ssg211
(dp788
g5
F0.0
sg6
F3.0
sg7
(lp789
(S'Brock Osweiler'
p790
g10
tp791
a(S'C.J. Anderson'
p792
g15
tp793
a(S'Ronnie Hillman'
p794
g15
tp795
a(S'Juwan Thompson'
p796
g15
tp797
a(S'Andre Caldwell'
p798
g22
tp799
a(S'Cody Latimer'
p800
g22
tp801
a(S'Emmanuel Sanders'
p802
g22
tp803
a(S'Demaryius Thomas'
p804
g22
tp805
a(S'Wes Welker'
p806
g22
tp807
a(S'Virgil Green'
p808
g37
tp809
a(S'Jacob Tamme'
p810
g37
tp811
a(S'Julius Thomas'
p812
g37
tp813
a(S'Connor Barth'
p814
g44
tp815
a(S'Brandon McManus'
p816
g44
tp817
asg46
I00
sg47
F26.0
sg48
F0.0
sg49
F1.0
sg50
F0.0
sg51
F1.0
sg52
S'17-24'
p818
sg54
I00
sg55
F134.0
sg56
F0.0
ssg247
(dp819
g5
F33.0
sg6
F0.0
sg7
(lp820
(S'Tom Brady'
p821
g10
tp822
a(S'Jimmy Garoppolo'
p823
g10
tp824
a(S'LeGarrette Blount'
p825
g15
tp826
a(S'Brandon Bolden'
p827
g15
tp828
a(S'James Develin'
p829
g15
tp830
a(S'Jonas Gray'
p831
g15
tp832
a(S'Shane Vereen'
p833
g15
tp834
a(S'James White'
p835
g15
tp836
a(S'Danny Amendola'
p837
g22
tp838
a(S'Josh Boyce'
p839
g22
tp840
a(S'Julian Edelman'
p841
g22
tp842
a(S'Brandon LaFell'
p843
g22
tp844
a(S'Matthew Slater'
p845
g22
tp846
a(S'Brian Tyms'
p847
g22
tp848
a(S'Rob Gronkowski'
p849
g37
tp850
a(S'Michael Hoomanawanui'
p851
g37
tp852
a(S'Timothy Wright'
p853
g37
tp854
a(S'Stephen Gostkowski'
p855
g44
tp856
asg46
I01
sg47
F25.0
sg48
F170.0
sg49
F3.0
sg50
F0.0
sg51
F3.0
sg52
S'17-9'
p857
sg54
I00
sg55
F116.0
sg56
F0.0
ssg281
(dp858
g5
F34.0
sg6
F0.0
sg7
(lp859
(S'Derek Carr'
p860
g10
tp861
a(S'Matt McGloin'
p862
g10
tp863
a(S'Matt Schaub'
p864
g10
tp865
a(S'George Atkinson'
p866
g15
tp867
a(S'Darren McFadden'
p868
g15
tp869
a(S'Latavius Murray'
p870
g15
tp871
a(S'Jamize Olawale'
p872
g15
tp873
a(S'Marcel Reece'
p874
g15
tp875
a(S'Vincent Brown'
p876
g22
tp877
a(S'Brice Butler'
p878
g22
tp879
a(S'Andre Holmes'
p880
g22
tp881
a(S'James Jones'
p882
g22
tp883
a(S'Kenbrell Thompkins'
p884
g22
tp885
a(S'Brian Leonhardt'
p886
g37
tp887
a(S'Mychal Rivera'
p888
g37
tp889
a(S'Scott Simonson'
p890
g37
tp891
a(S'Sebastian Janikowski'
p892
g44
tp893
asg46
I00
sg47
F36.0
sg48
F214.0
sg49
F5.0
sg50
F2.0
sg51
F4.0
sg52
S'24-26'
p894
sg54
I00
sg55
F140.0
sg56
F0.0
ssg319
(dp895
g5
F49.0
sg6
F0.0
sg7
(lp896
(S'Jimmy Clausen'
p897
g10
tp898
a(S'Jay Cutler'
p899
g10
tp900
a(S'David Fales'
p901
g10
tp902
a(S"Ka'Deem Carey"
p903
g15
tp904
a(S'Shaun Draughn'
p905
g15
tp906
a(S'Matt Forte'
p907
g15
tp908
a(S'Senorise Perry'
p909
g15
tp910
a(S'Alshon Jeffery'
p911
g22
tp912
a(S'Brandon Marshall'
p913
g22
tp914
a(S'Martellus Bennett'
p915
g37
tp916
a(S'Matthew Mulligan'
p917
g37
tp918
a(S'Robbie Gould'
p919
g44
tp920
asg46
I01
sg47
F18.0
sg48
F349.0
sg49
F2.0
sg50
F2.0
sg51
F2.0
sg52
S'23-20'
p921
sg54
I00
sg55
F86.0
sg56
F0.0
ssg349
(dp922
g5
F25.0
sg6
F0.0
sg7
(lp923
(S'Kellen Clemens'
p924
g10
tp925
a(S'Philip Rivers'
p926
g10
tp927
a(S'Donald Brown'
p928
g15
tp929
a(S'Ryan Mathews'
p930
g15
tp931
a(S'Branden Oliver'
p932
g15
tp933
a(S'Danny Woodhead'
p934
g15
tp935
a(S'Seyi Ajirotutu'
p936
g22
tp937
a(S'Keenan Allen'
p938
g22
tp939
a(S'Malcom Floyd'
p940
g22
tp941
a(S'Dontrelle Inman'
p942
g22
tp943
a(S'Eddie Royal'
p944
g22
tp945
a(S'Antonio Gates'
p946
g37
tp947
a(S'Ladarius Green'
p948
g37
tp949
a(S'David Johnson'
p950
g37
tp951
a(S'John Phillips'
p952
g37
tp953
a(S'Nick Novak'
p954
g44
tp955
asg46
I00
sg47
F36.0
sg48
F256.0
sg49
F2.0
sg50
F2.0
sg51
F2.0
sg52
S'10-22'
p956
sg54
I01
sg55
F83.0
sg56
F0.0
ssg385
(dp957
g5
F49.0
sg6
F0.0
sg7
(lp958
(S'Matt Moore'
p959
g10
tp960
a(S'Ryan Tannehill'
p961
g10
tp962
a(S'Orleans Darkwa'
p963
g15
tp964
a(S'Lamar Miller'
p965
g15
tp966
a(S'Damien Williams'
p967
g15
tp968
a(S'Brandon Gibson'
p969
g22
tp970
a(S'Brian Hartline'
p971
g22
tp972
a(S'Jarvis Landry'
p973
g22
tp974
a(S'Rishard Matthews'
p975
g22
tp976
a(S'Mike Wallace'
p977
g22
tp978
a(S'Charles Clay'
p979
g37
tp980
a(S'Dion Sims'
p981
g37
tp982
a(S'Caleb Sturgis'
p983
g44
tp984
asg46
I01
sg47
F20.0
sg48
F241.0
sg49
F1.0
sg50
F1.0
sg51
F1.0
sg52
S'29-10'
p985
sg54
I01
sg55
F76.0
sg56
F0.0
ssg423
(dp986
g5
F31.0
sg6
F0.0
sg7
(lp987
(S'Kellen Moore'
p988
g10
tp989
a(S'Dan Orlovsky'
p990
g10
tp991
a(S'Matthew Stafford'
p992
g10
tp993
a(S'Reggie Bush'
p994
g15
tp995
a(S'Theo Riddick'
p996
g15
tp997
a(S'George Winn'
p998
g15
tp999
a(S'Corey Fuller'
p1000
g22
tp1001
a(S'Jeremy Ross'
p1002
g22
tp1003
a(S'Golden Tate'
p1004
g22
tp1005
a(S'Eric Ebron'
p1006
g37
tp1007
a(S'Brandon Pettigrew'
p1008
g37
tp1009
asg46
I01
sg47
F20.0
sg48
F231.0
sg49
F0.0
sg50
F1.0
sg51
F0.0
sg52
S'17-14'
p1010
sg54
I00
sg55
F69.0
sg56
F0.0
ssg461
(dp1011
g5
F37.0
sg6
F0.0
sg7
(lp1012
(S'Ryan Fitzpatrick'
p1013
g10
tp1014
a(S'Ryan Mallett'
p1015
g10
tp1016
a(S'Tom Savage'
p1017
g10
tp1018
a(S'Alfred Blue'
p1019
g15
tp1020
a(S'Arian Foster'
p1021
g15
tp1022
a(S'Jonathan Grimes'
p1023
g15
tp1024
a(S'Jay Prosch'
p1025
g15
tp1026
a(S'DeAndre Hopkins'
p1027
g22
tp1028
a(S'Andre Johnson'
p1029
g22
tp1030
a(S'Damaris Johnson'
p1031
g22
tp1032
a(S'Keshawn Martin'
p1033
g22
tp1034
a(S'DeVier Posey'
p1035
g22
tp1036
a(S'C.J. Fiedorowicz'
p1037
g37
tp1038
a(S'Garrett Graham'
p1039
g37
tp1040
a(S'Ryan Griffin'
p1041
g37
tp1042
a(S'Randy Bullock'
p1043
g44
tp1044
asg46
I00
sg47
F23.0
sg48
F268.0
sg49
F3.0
sg50
F1.0
sg51
F3.0
sg52
S'17-23'
p1045
sg54
I00
sg55
F37.0
sg56
F0.0
ssg499
(dp1046
g5
F26.0
sg6
F0.0
sg7
(lp1047
(S'Teddy Bridgewater'
p1048
g10
tp1049
a(S'Matt Asiata'
p1050
g15
tp1051
a(S'Joe Banyard'
p1052
g15
tp1053
a(S'Jerome Felton'
p1054
g15
tp1055
a(S'Zach Line'
p1056
g15
tp1057
a(S'Jerick McKinnon'
p1058
g15
tp1059
a(S'Greg Jennings'
p1060
g22
tp1061
a(S'Charles Johnson'
p1062
g22
tp1063
a(S'Cordarrelle Patterson'
p1064
g22
tp1065
a(S'Adam Thielen'
p1066
g22
tp1067
a(S'Jarius Wright'
p1068
g22
tp1069
a(S'Rhett Ellison'
p1070
g37
tp1071
a(S'MarQueis Gray'
p1072
g37
tp1073
a(S'Kyle Rudolph'
p1074
g37
tp1075
a(S'Blair Walsh'
p1076
g44
tp1077
asg46
I01
sg47
F29.0
sg48
F157.0
sg49
F3.0
sg50
F1.0
sg51
F3.0
sg52
S'17-16'
p1078
sg54
I01
sg55
F158.0
sg56
F0.0
ssg537
(dp1079
g5
F37.0
sg6
F0.0
sg7
(lp1080
(S'Tom Brady'
p1081
g10
tp1082
a(S'Jimmy Garoppolo'
p1083
g10
tp1084
a(S'Brandon Bolden'
p1085
g15
tp1086
a(S'James Develin'
p1087
g15
tp1088
a(S'Stevan Ridley'
p1089
g15
tp1090
a(S'Shane Vereen'
p1091
g15
tp1092
a(S'James White'
p1093
g15
tp1094
a(S'Danny Amendola'
p1095
g22
tp1096
a(S'Aaron Dobson'
p1097
g22
tp1098
a(S'Julian Edelman'
p1099
g22
tp1100
a(S'Brandon LaFell'
p1101
g22
tp1102
a(S'Matthew Slater'
p1103
g22
tp1104
a(S'Brian Tyms'
p1105
g22
tp1106
a(S'Rob Gronkowski'
p1107
g37
tp1108
a(S'Michael Hoomanawanui'
p1109
g37
tp1110
a(S'Timothy Wright'
p1111
g37
tp1112
a(S'Stephen Gostkowski'
p1113
g44
tp1114
asg46
I00
sg47
F27.0
sg48
F361.0
sg49
F4.0
sg50
F4.0
sg51
F3.0
sg52
S'22-37'
p1115
sg54
I01
sg55
F50.0
sg56
F0.0
ssg575
(dp1116
g5
F0.0
sg6
F0.0
sg7
(lp1117
sg46
(lp1118
sg47
F0.0
sg48
F0.0
sg49
F0.0
sg50
F0.0
sg51
F0.0
sg52
(lp1119
sg54
(lp1120
sg55
F0.0
sg56
F0.0
ssg613
(dp1121
g5
F44.0
sg6
F3.0
sg7
(lp1122
(S'Geno Smith'
p1123
g10
tp1124
a(S'Mike Vick'
p1125
g10
tp1126
a(S'Chris Ivory'
p1127
g15
tp1128
a(S'Chris Johnson'
p1129
g15
tp1130
a(S'Bilal Powell'
p1131
g15
tp1132
a(S'Eric Decker'
p1133
g22
tp1134
a(S'T.J. Graham'
p1135
g22
tp1136
a(S'Saalim Hakim'
p1137
g22
tp1138
a(S'Percy Harvin'
p1139
g22
tp1140
a(S'Jeremy Kerley'
p1141
g22
tp1142
a(S'Chris Owusu'
p1143
g22
tp1144
a(S'Walt Powell'
p1145
g22
tp1146
a(S'Greg Salas'
p1147
g22
tp1148
a(S'Jace Amaro'
p1149
g37
tp1150
a(S'Jeff Cumberland'
p1151
g37
tp1152
a(S'Zach Sudfeld'
p1153
g37
tp1154
a(S'Nick Folk'
p1155
g44
tp1156
asg46
I01
sg47
F33.0
sg48
F158.0
sg49
F1.0
sg50
F0.0
sg51
F1.0
sg52
S'43-23'
p1157
sg54
I00
sg55
F175.0
sg56
F0.0
sssS'2011'
p1158
(dp1159
g3
(dp1160
g5
F20.0
sg6
F1.0
sg7
(lp1161
(S'Matt Moore'
p1162
g10
tp1163
a(S'Reggie Bush'
p1164
g15
tp1165
a(S'Daniel Thomas'
p1166
g15
tp1167
a(S'Brian Hartline'
p1168
g22
tp1169
a(S'Brandon Marshall'
p1170
g22
tp1171
a(S'Charles Clay'
p1172
g37
tp1173
a(S'Anthony Fasano'
p1174
g37
tp1175
a(S'Dan Carpenter'
p1176
g44
tp1177
a(S'Shayne Graham'
p1178
g44
tp1179
asg46
I00
sg47
F34.0
sg48
F160.0
sg49
F0.0
sg50
F3.0
sg51
F0.0
sg52
S'8-35'
p1180
sg54
I00
sg55
F93.0
sg56
F0.0
ssg57
(dp1181
g5
F26.0
sg6
F1.0
sg7
(lp1182
(S'Tony Romo'
p1183
g10
tp1184
a(S'DeMarco Murray'
p1185
g15
tp1186
a(S'Dez Bryant'
p1187
g22
tp1188
a(S'Martellus Bennett'
p1189
g37
tp1190
a(S'John Phillips'
p1191
g37
tp1192
a(S'Jason Witten'
p1193
g37
tp1194
a(S'Dan Bailey'
p1195
g44
tp1196
asg46
I00
sg47
F22.0
sg48
F270.0
sg49
F3.0
sg50
F3.0
sg51
F3.0
sg52
S'7-44'
p1197
sg54
I00
sg55
F135.0
sg56
F0.0
ssg95
(dp1198
g5
F0.0
sg6
F2.0
sg7
(lp1199
(S'Chris Johnson'
p1200
g15
tp1201
a(S'Marc Mariani'
p1202
g22
tp1203
a(S'Nate Washington'
p1204
g22
tp1205
a(S'Jared Cook'
p1206
g37
tp1207
a(S'Craig Stevens'
p1208
g37
tp1209
asg46
I00
sg47
F23.0
sg48
F0.0
sg49
F0.0
sg50
F0.0
sg51
F0.0
sg52
S'17-23'
p1210
sg54
I01
sg55
F153.0
sg56
F0.0
ssg135
(dp1211
g5
F35.0
sg6
F0.0
sg7
(lp1212
(S'Mark Sanchez'
p1213
g10
tp1214
a(S'Bilal Powell'
p1215
g15
tp1216
a(S'Jeremy Kerley'
p1217
g22
tp1218
a(S'Matthew Mulligan'
p1219
g37
tp1220
a(S'Nick Folk'
p1221
g44
tp1222
asg46
I00
sg47
F2.0
sg48
F180.0
sg49
F0.0
sg50
F4.0
sg51
F0.0
sg52
S'24-28'
p1223
sg54
I00
sg55
F5.0
sg56
F0.0
ssg175
(dp1224
g5
F20.0
sg6
F1.0
sg7
(lp1225
(S'Matt Moore'
p1226
g10
tp1227
a(S'Reggie Bush'
p1228
g15
tp1229
a(S'Daniel Thomas'
p1230
g15
tp1231
a(S'Brian Hartline'
p1232
g22
tp1233
a(S'Brandon Marshall'
p1234
g22
tp1235
a(S'Charles Clay'
p1236
g37
tp1237
a(S'Anthony Fasano'
p1238
g37
tp1239
a(S'Dan Carpenter'
p1240
g44
tp1241
asg46
I00
sg47
F36.0
sg48
F217.0
sg49
F3.0
sg50
F2.0
sg51
F3.0
sg52
S'23-30'
p1242
sg54
I01
sg55
F245.0
sg56
F0.0
ssg211
(dp1243
g5
F33.0
sg6
F1.0
sg7
(lp1244
(S'Philip Rivers'
p1245
g10
tp1246
a(S'Ryan Mathews'
p1247
g15
tp1248
a(S'Mike Tolbert'
p1249
g15
tp1250
a(S'Vincent Brown'
p1251
g22
tp1252
a(S'Malcom Floyd'
p1253
g22
tp1254
a(S'Vincent Jackson'
p1255
g22
tp1256
a(S'Bryan Walters'
p1257
g22
tp1258
a(S'Antonio Gates'
p1259
g37
tp1260
a(S'Nick Novak'
p1261
g44
tp1262
asg46
I00
sg47
F26.0
sg48
F240.0
sg49
F1.0
sg50
F3.0
sg51
F1.0
sg52
S'10-37'
p1263
sg54
I00
sg55
F135.0
sg56
F0.0
ssg247
(dp1264
g5
F36.0
sg6
F0.0
sg7
(lp1265
(S'Tom Brady'
p1266
g10
tp1267
a(S'Brian Hoyer'
p1268
g10
tp1269
a(S'Ryan Mallett'
p1270
g10
tp1271
a(S'Stevan Ridley'
p1272
g15
tp1273
a(S'Shane Vereen'
p1274
g15
tp1275
a(S'Danny Woodhead'
p1276
g15
tp1277
a(S'Julian Edelman'
p1278
g22
tp1279
a(S'Matthew Slater'
p1280
g22
tp1281
a(S'Wes Welker'
p1282
g22
tp1283
a(S'Rob Gronkowski'
p1284
g37
tp1285
a(S'Stephen Gostkowski'
p1286
g44
tp1287
asg46
I00
sg47
F20.0
sg48
F360.0
sg49
F2.0
sg50
F3.0
sg51
F2.0
sg52
S'21-49'
p1288
sg54
I00
sg55
F90.0
sg56
F0.0
ssg281
(dp1289
g5
F0.0
sg6
F0.0
sg7
(lp1290
(S'Eric Decker'
p1291
g22
tp1292
a(S'Eddie Royal'
p1293
g22
tp1294
a(S'Demaryius Thomas'
p1295
g22
tp1296
a(S'Daniel Fells'
p1297
g37
tp1298
a(S'Virgil Green'
p1299
g37
tp1300
a(S'Julius Thomas'
p1301
g37
tp1302
a(S'Matt Prater'
p1303
g44
tp1304
asg46
I01
sg47
F0.0
sg48
F0.0
sg49
F0.0
sg50
F0.0
sg51
F0.0
sg52
S'40-14'
p1305
sg54
I01
sg55
F0.0
sg56
F0.0
ssg319
(dp1306
g5
F36.0
sg6
F0.0
sg7
(lp1307
(S'Matt Cassel'
p1308
g10
tp1309
a(S'Jamaal Charles'
p1310
g15
tp1311
a(S'Dexter McCluster'
p1312
g15
tp1313
a(S'Dwayne Bowe'
p1314
g22
tp1315
a(S'Ryan Succop'
p1316
g44
tp1317
asg46
I01
sg47
F14.0
sg48
F119.0
sg49
F1.0
sg50
F1.0
sg51
F0.0
sg52
S'41-7'
p1318
sg54
I00
sg55
F98.0
sg56
F0.0
ssg349
(dp1319
g5
F45.0
sg6
F0.0
sg7
(lp1320
(S'Tom Brady'
p1321
g10
tp1322
a(S'Brian Hoyer'
p1323
g10
tp1324
a(S'Ryan Mallett'
p1325
g10
tp1326
a(S'Stevan Ridley'
p1327
g15
tp1328
a(S'Shane Vereen'
p1329
g15
tp1330
a(S'Danny Woodhead'
p1331
g15
tp1332
a(S'Julian Edelman'
p1333
g22
tp1334
a(S'Matthew Slater'
p1335
g22
tp1336
a(S'Wes Welker'
p1337
g22
tp1338
a(S'Rob Gronkowski'
p1339
g37
tp1340
a(S'Stephen Gostkowski'
p1341
g44
tp1342
asg46
I01
sg47
F16.0
sg48
F387.0
sg49
F1.0
sg50
F4.0
sg51
F1.0
sg52
S'34-31'
p1343
sg54
I01
sg55
F90.0
sg56
F0.0
ssg385
(dp1344
g5
F0.0
sg6
F1.0
sg7
(lp1345
(S'Taiwan Jones'
p1346
g15
tp1347
a(S'Darren McFadden'
p1348
g15
tp1349
a(S'Marcel Reece'
p1350
g15
tp1351
a(S'Darrius Heyward-Bey'
p1352
g22
tp1353
a(S'Louis Murphy'
p1354
g22
tp1355
a(S'Richard Gordon'
p1356
g37
tp1357
a(S'Brandon Myers'
p1358
g37
tp1359
a(S'Sebastian Janikowski'
p1360
g44
tp1361
asg46
I01
sg47
F22.0
sg48
F0.0
sg49
F0.0
sg50
F0.0
sg51
F0.0
sg52
S'38-35'
p1362
sg54
I01
sg55
F80.0
sg56
F0.0
ssg423
(dp1363
g5
F40.0
sg6
F1.0
sg7
(lp1364
(S'Mike Vick'
p1365
g10
tp1366
a(S'Dion Lewis'
p1367
g15
tp1368
a(S'LeSean McCoy'
p1369
g15
tp1370
a(S'Jason Avant'
p1371
g22
tp1372
a(S'DeSean Jackson'
p1373
g22
tp1374
a(S'Jeremy Maclin'
p1375
g22
tp1376
a(S'Brent Celek'
p1377
g37
tp1378
a(S'Clay Harbor'
p1379
g37
tp1380
asg46
I01
sg47
F20.0
sg48
F315.0
sg49
F0.0
sg50
F2.0
sg51
F0.0
sg52
S'31-24'
p1381
sg54
I01
sg55
F174.0
sg56
F0.0
ssg461
(dp1382
g5
F36.0
sg6
F1.0
sg7
(lp1383
(S'Andy Dalton'
p1384
g10
tp1385
a(S'Bruce Gradkowski'
p1386
g10
tp1387
a(S'Cedric Peerman'
p1388
g15
tp1389
a(S'Andre Caldwell'
p1390
g22
tp1391
a(S'A.J. Green'
p1392
g22
tp1393
a(S'Andrew Hawkins'
p1394
g22
tp1395
a(S'Jerome Simpson'
p1396
g22
tp1397
a(S'Brandon Tate'
p1398
g22
tp1399
a(S'Jermaine Gresham'
p1400
g37
tp1401
a(S'Mike Nugent'
p1402
g44
tp1403
asg46
I00
sg47
F4.0
sg48
F298.0
sg49
F3.0
sg50
F1.0
sg51
F3.0
sg52
S'20-23'
p1404
sg54
I00
sg55
F18.0
sg56
F0.0
ssg499
(dp1405
g5
F0.0
sg6
F0.0
sg7
(lp1406
sg46
(lp1407
sg47
F0.0
sg48
F0.0
sg49
F0.0
sg50
F0.0
sg51
F0.0
sg52
(lp1408
sg54
(lp1409
sg55
F0.0
sg56
F0.0
ssg537
(dp1410
g5
F32.0
sg6
F3.0
sg7
(lp1411
(S'Eli Manning'
p1412
g10
tp1413
a(S'Ahmad Bradshaw'
p1414
g15
tp1415
a(S'Victor Cruz'
p1416
g22
tp1417
a(S'Hakeem Nicks'
p1418
g22
tp1419
a(S'Bear Pascoe'
p1420
g37
tp1421
asg46
I00
sg47
F28.0
sg48
F292.0
sg49
F0.0
sg50
F0.0
sg51
F0.0
sg52
S'24-27'
p1422
sg54
I00
sg55
F103.0
sg56
F0.0
ssg575
(dp1423
g5
F28.0
sg6
F0.0
sg7
(lp1424
(S'Mark Sanchez'
p1425
g10
tp1426
a(S'Bilal Powell'
p1427
g15
tp1428
a(S'Jeremy Kerley'
p1429
g22
tp1430
a(S'Matthew Mulligan'
p1431
g37
tp1432
a(S'Nick Folk'
p1433
g44
tp1434
asg46
I00
sg47
F4.0
sg48
F230.0
sg49
F3.0
sg50
F1.0
sg51
F2.0
sg52
S'11-27'
p1435
sg54
I01
sg55
F-3.0
sg56
F0.0
ssg613
(dp1436
g5
F0.0
sg6
F0.0
sg7
(lp1437
(S'Roy Helu'
p1438
g15
tp1439
a(S'Darrel Young'
p1440
g15
tp1441
a(S'Leonard Hankerson'
p1442
g22
tp1443
a(S'Niles Paul'
p1444
g37
tp1445
a(S'Logan Paulsen'
p1446
g37
tp1447
a(S'Graham Gano'
p1448
g44
tp1449
asg46
I01
sg47
F0.0
sg48
F0.0
sg49
F1.0
sg50
F0.0
sg51
F0.0
sg52
S'23-0'
p1450
sg54
I01
sg55
F0.0
sg56
F1.0
sssS'2010'
p1451
(dp1452
g3
(dp1453
g5
F34.0
sg6
F0.0
sg7
(lp1454
(S'Dan LeFevour'
p1455
g10
tp1456
a(S'Carson Palmer'
p1457
g10
tp1458
a(S'Cedric Peerman'
p1459
g15
tp1460
a(S'Andre Caldwell'
p1461
g22
tp1462
a(S'Jerome Simpson'
p1463
g22
tp1464
a(S'Chase Coffman'
p1465
g37
tp1466
a(S'Jermaine Gresham'
p1467
g37
tp1468
asg46
I01
sg47
F2.0
sg48
F230.0
sg49
F0.0
sg50
F2.0
sg51
F0.0
sg52
S'49-31'
p1469
sg54
I00
sg55
F12.0
sg56
F0.0
ssg57
(dp1470
g5
F50.0
sg6
F0.0
sg7
(lp1471
(S'Shaun Hill'
p1472
g10
tp1473
a(S'Matthew Stafford'
p1474
g10
tp1475
a(S'Drew Stanton'
p1476
g10
tp1477
a(S'Jerome Felton'
p1478
g15
tp1479
a(S'Brandon Pettigrew'
p1480
g37
tp1481
asg46
I01
sg47
F2.0
sg48
F323.0
sg49
F0.0
sg50
F1.0
sg51
F0.0
sg52
S'14-12'
p1482
sg54
I01
sg55
F5.0
sg56
F0.0
ssg95
(dp1483
g5
F22.0
sg6
F3.0
sg7
(lp1484
(S'Tarvaris Jackson'
p1485
g10
tp1486
a(S'Joe Webb'
p1487
g10
tp1488
a(S'Toby Gerhart'
p1489
g15
tp1490
a(S'Adrian Peterson'
p1491
g15
tp1492
a(S'Percy Harvin'
p1493
g22
tp1494
asg46
I00
sg47
F30.0
sg48
F187.0
sg49
F0.0
sg50
F2.0
sg51
F0.0
sg52
S'14-38'
p1495
sg54
I00
sg55
F183.0
sg56
F0.0
ssg135
(dp1496
g5
F33.0
sg6
F0.0
sg7
(lp1497
(S'Ben Roethlisberger'
p1498
g10
tp1499
a(S'Antonio Brown'
p1500
g22
tp1501
a(S'Emmanuel Sanders'
p1502
g22
tp1503
a(S'Mike Wallace'
p1504
g22
tp1505
a(S'David Johnson'
p1506
g37
tp1507
a(S'Matt Spaeth'
p1508
g37
tp1509
a(S'Shaun Suisham'
p1510
g44
tp1511
asg46
I00
sg47
F1.0
sg48
F246.0
sg49
F4.0
sg50
F0.0
sg51
F4.0
sg52
S'16-19'
p1512
sg54
I01
sg55
F18.0
sg56
F0.0
ssg175
(dp1513
g5
F45.0
sg6
F0.0
sg7
(lp1514
(S'Chad Henne'
p1515
g10
tp1516
a(S'Brandon Marshall'
p1517
g22
tp1518
a(S'Marlon Moore'
p1519
g22
tp1520
a(S'Anthony Fasano'
p1521
g37
tp1522
a(S'Dan Carpenter'
p1523
g44
tp1524
asg46
I01
sg47
F0.0
sg48
F276.0
sg49
F4.0
sg50
F1.0
sg51
F0.0
sg52
S'17-14'
p1525
sg54
I00
sg55
F0.0
sg56
F0.0
ssg211
(dp1526
g5
F0.0
sg6
F0.0
sg7
(lp1527
(S'Colt McCoy'
p1528
g10
tp1529
a(S'Jordan Norwood'
p1530
g22
tp1531
a(S'Alex Smith'
p1532
g37
tp1533
a(S'Benjamin Watson'
p1534
g37
tp1535
a(S'Phil Dawson'
p1536
g44
tp1537
asg46
I01
sg47
F0.0
sg48
F0.0
sg49
F2.0
sg50
F0.0
sg51
F2.0
sg52
S'13-6'
p1538
sg54
I01
sg55
F0.0
sg56
F0.0
ssg247
(dp1539
g5
F2.0
sg6
F1.0
sg7
(lp1540
(S'Kellen Clemens'
p1541
g10
tp1542
a(S'Mark Sanchez'
p1543
g10
tp1544
a(S'Jerricho Cotchery'
p1545
g22
tp1546
a(S'Jeff Cumberland'
p1547
g37
tp1548
a(S'Matthew Mulligan'
p1549
g37
tp1550
a(S'Nick Folk'
p1551
g44
tp1552
asg46
I00
sg47
F3.0
sg48
F6.0
sg49
F1.0
sg50
F0.0
sg51
F1.0
sg52
S'7-38'
p1553
sg54
I00
sg55
F8.0
sg56
F0.0
ssg281
(dp1554
g5
F27.0
sg6
F1.0
sg7
(lp1555
(S'Tom Brady'
p1556
g10
tp1557
a(S'Brian Hoyer'
p1558
g10
tp1559
a(S'Danny Woodhead'
p1560
g15
tp1561
a(S'Julian Edelman'
p1562
g22
tp1563
a(S'Matthew Slater'
p1564
g22
tp1565
a(S'Brandon Tate'
p1566
g22
tp1567
a(S'Wes Welker'
p1568
g22
tp1569
a(S'Rob Gronkowski'
p1570
g37
tp1571
a(S'Shayne Graham'
p1572
g44
tp1573
asg46
I00
sg47
F21.0
sg48
F140.0
sg49
F2.0
sg50
F3.0
sg51
F2.0
sg52
S'3-34'
p1574
sg54
I01
sg55
F116.0
sg56
F0.0
ssg319
(dp1575
g5
F34.0
sg6
F0.0
sg7
(lp1576
(S'Chad Henne'
p1577
g10
tp1578
a(S'Brian Hartline'
p1579
g22
tp1580
a(S'Brandon Marshall'
p1581
g22
tp1582
a(S'Marlon Moore'
p1583
g22
tp1584
a(S'Anthony Fasano'
p1585
g37
tp1586
a(S'Dan Carpenter'
p1587
g44
tp1588
asg46
I00
sg47
F2.0
sg48
F182.0
sg49
F3.0
sg50
F0.0
sg51
F2.0
sg52
S'10-15'
p1589
sg54
I01
sg55
F-1.0
sg56
F0.0
ssg349
(dp1590
g5
F27.0
sg6
F1.0
sg7
(lp1591
(S'Tom Brady'
p1592
g10
tp1593
a(S'Brian Hoyer'
p1594
g10
tp1595
a(S'Danny Woodhead'
p1596
g15
tp1597
a(S'Julian Edelman'
p1598
g22
tp1599
a(S'Matthew Slater'
p1600
g22
tp1601
a(S'Brandon Tate'
p1602
g22
tp1603
a(S'Wes Welker'
p1604
g22
tp1605
a(S'Rob Gronkowski'
p1606
g37
tp1607
a(S'Stephen Gostkowski'
p1608
g44
tp1609
asg46
I00
sg47
F9.0
sg48
F252.0
sg49
F1.0
sg50
F3.0
sg51
F1.0
sg52
S'30-38'
p1610
sg54
I00
sg55
F54.0
sg56
F0.0
ssg385
(dp1611
g5
F29.0
sg6
F1.0
sg7
(lp1612
(S'Matt Flynn'
p1613
g10
tp1614
a(S'Aaron Rodgers'
p1615
g10
tp1616
a(S'John Kuhn'
p1617
g15
tp1618
a(S'Greg Jennings'
p1619
g22
tp1620
a(S'James Jones'
p1621
g22
tp1622
a(S'Jordy Nelson'
p1623
g22
tp1624
a(S'Andrew Quarless'
p1625
g37
tp1626
a(S'Mason Crosby'
p1627
g44
tp1628
asg46
I00
sg47
F14.0
sg48
F255.0
sg49
F2.0
sg50
F2.0
sg51
F2.0
sg52
S'7-34'
p1629
sg54
I00
sg55
F56.0
sg56
F0.0
ssg423
(dp1630
g5
F0.0
sg6
F0.0
sg7
(lp1631
(S'Rashad Jennings'
p1632
g15
tp1633
a(S'Marcedes Lewis'
p1634
g37
tp1635
a(S'Zach Miller'
p1636
g37
tp1637
a(S'Josh Scobee'
p1638
g44
tp1639
asg46
I00
sg47
F0.0
sg48
F0.0
sg49
F5.0
sg50
F0.0
sg51
F5.0
sg52
S'26-36'
p1640
sg54
I01
sg55
F0.0
sg56
F0.0
ssg461
(dp1641
g5
F24.0
sg6
F0.0
sg7
(lp1642
(S'Kellen Clemens'
p1643
g10
tp1644
a(S'Mark Sanchez'
p1645
g10
tp1646
a(S'Jerricho Cotchery'
p1647
g22
tp1648
a(S'Jeff Cumberland'
p1649
g37
tp1650
a(S'Matthew Mulligan'
p1651
g37
tp1652
a(S'Nick Folk'
p1653
g44
tp1654
asg46
I00
sg47
F1.0
sg48
F161.0
sg49
F2.0
sg50
F2.0
sg51
F1.0
sg52
S'14-38'
p1655
sg54
I01
sg55
F0.0
sg56
F0.0
ssg499
(dp1656
g5
F31.0
sg6
F0.0
sg7
(lp1657
(S'Joe Flacco'
p1658
g10
tp1659
a(S'Anquan Boldin'
p1660
g22
tp1661
a(S'Ed Dickson'
p1662
g37
tp1663
a(S'Dennis Pitta'
p1664
g37
tp1665
asg46
I00
sg47
F2.0
sg48
F250.0
sg49
F0.0
sg50
F3.0
sg51
F0.0
sg52
S'34-37'
p1666
sg54
I00
sg55
F-1.0
sg56
F0.0
ssg537
(dp1667
g5
F0.0
sg6
F0.0
sg7
(lp1668
sg46
(lp1669
sg47
F0.0
sg48
F0.0
sg49
F0.0
sg50
F0.0
sg51
F0.0
sg52
(lp1670
sg54
(lp1671
sg55
F0.0
sg56
F0.0
ssg575
(dp1672
g5
F30.0
sg6
F0.0
sg7
(lp1673
(S'Jay Cutler'
p1674
g10
tp1675
a(S'Matt Forte'
p1676
g15
tp1677
a(S'Devin Hester'
p1678
g22
tp1679
a(S'Kellen Davis'
p1680
g37
tp1681
a(S'Greg Olsen'
p1682
g37
tp1683
a(S'Robbie Gould'
p1684
g44
tp1685
asg46
I00
sg47
F20.0
sg48
F188.0
sg49
F1.0
sg50
F2.0
sg51
F0.0
sg52
S'19-22'
p1686
sg54
I01
sg55
F87.0
sg56
F0.0
ssg613
(dp1687
g5
F26.0
sg6
F0.0
sg7
(lp1688
(S'Matt Cassel'
p1689
g10
tp1690
a(S'Jamaal Charles'
p1691
g15
tp1692
a(S'Dexter McCluster'
p1693
g15
tp1694
a(S'Dwayne Bowe'
p1695
g22
tp1696
a(S'Tony Moeaki'
p1697
g37
tp1698
a(S'Ryan Succop'
p1699
g44
tp1700
asg46
I00
sg47
F25.0
sg48
F152.0
sg49
F3.0
sg50
F1.0
sg51
F2.0
sg52
S'10-13'
p1701
sg54
I00
sg55
F194.0
sg56
F0.0
sssS'2013'
p1702
(dp1703
g3
(dp1704
g5
F29.0
sg6
F1.0
sg7
(lp1705
(S'Matt Simms'
p1706
g10
tp1707
a(S'Geno Smith'
p1708
g10
tp1709
a(S'Tommy Bohanon'
p1710
g15
tp1711
a(S'Chris Ivory'
p1712
g15
tp1713
a(S'Bilal Powell'
p1714
g15
tp1715
a(S'Stephen Hill'
p1716
g22
tp1717
a(S'Jeremy Kerley'
p1718
g22
tp1719
a(S'Greg Salas'
p1720
g22
tp1721
a(S'Jeff Cumberland'
p1722
g37
tp1723
a(S'Konrad Reuland'
p1724
g37
tp1725
a(S'Zach Sudfeld'
p1726
g37
tp1727
a(S'Nick Folk'
p1728
g44
tp1729
asg46
I01
sg47
F21.0
sg48
F163.0
sg49
F1.0
sg50
F1.0
sg51
F0.0
sg52
S'37-14'
p1730
sg54
I01
sg55
F125.0
sg56
F0.0
ssg57
(dp1731
g5
F30.0
sg6
F1.0
sg7
(lp1732
(S'Bruce Gradkowski'
p1733
g10
tp1734
a(S'Landry Jones'
p1735
g10
tp1736
a(S'Ben Roethlisberger'
p1737
g10
tp1738
a(S"Le'Veon Bell"
p1739
g15
tp1740
a(S'Will Johnson'
p1741
g15
tp1742
a(S'Antonio Brown'
p1743
g22
tp1744
a(S'Jerricho Cotchery'
p1745
g22
tp1746
a(S'Emmanuel Sanders'
p1747
g22
tp1748
a(S'Markus Wheaton'
p1749
g22
tp1750
a(S'Richard Gordon'
p1751
g37
tp1752
a(S'Shaun Suisham'
p1753
g44
tp1754
asg46
I00
sg47
F23.0
sg48
F204.0
sg49
F3.0
sg50
F1.0
sg51
F3.0
sg52
S'10-23'
p1755
sg54
I00
sg55
F82.0
sg56
F0.0
ssg95
(dp1756
g5
F47.0
sg6
F2.0
sg7
(lp1757
(S'Matt Ryan'
p1758
g10
tp1759
a(S'Patrick DiMarco'
p1760
g15
tp1761
a(S'Steven Jackson'
p1762
g15
tp1763
a(S'Jacquizz Rodgers'
p1764
g15
tp1765
a(S'Harry Douglas'
p1766
g22
tp1767
a(S'Roddy White'
p1768
g22
tp1769
a(S'Chase Coffman'
p1770
g37
tp1771
a(S'Levine Toilolo'
p1772
g37
tp1773
a(S'Matt Bryant'
p1774
g44
tp1775
asg46
I00
sg47
F29.0
sg48
F311.0
sg49
F2.0
sg50
F1.0
sg51
F2.0
sg52
S'31-34'
p1776
sg54
I01
sg55
F113.0
sg56
F0.0
ssg135
(dp1777
g5
F0.0
sg6
F0.0
sg7
(lp1778
sg46
(lp1779
sg47
F0.0
sg48
F0.0
sg49
F0.0
sg50
F0.0
sg51
F0.0
sg52
(lp1780
sg54
(lp1781
sg55
F0.0
sg56
F0.0
ssg175
(dp1782
g5
F36.0
sg6
F0.0
sg7
(lp1783
(S'Blaine Gabbert'
p1784
g10
tp1785
a(S'Chad Henne'
p1786
g10
tp1787
a(S'Denard Robinson'
p1788
g15
tp1789
a(S'Jordan Todman'
p1790
g15
tp1791
a(S'Cecil Shorts'
p1792
g22
tp1793
a(S'Clay Harbor'
p1794
g37
tp1795
a(S'Marcedes Lewis'
p1796
g37
tp1797
a(S'Allen Reisner'
p1798
g37
tp1799
a(S'Josh Scobee'
p1800
g44
tp1801
asg46
I01
sg47
F31.0
sg48
F237.0
sg49
F2.0
sg50
F2.0
sg51
F2.0
sg52
S'27-20'
p1802
sg54
I00
sg55
F159.0
sg56
F0.0
ssg211
(dp1803
g5
F25.0
sg6
F1.0
sg7
(lp1804
(S'Mike Glennon'
p1805
g10
tp1806
a(S'Dan Orlovsky'
p1807
g10
tp1808
a(S'Bobby Rainey'
p1809
g15
tp1810
a(S'Vincent Jackson'
p1811
g22
tp1812
a(S'Chris Owusu'
p1813
g22
tp1814
a(S'Russell Shepard'
p1815
g22
tp1816
a(S'Timothy Wright'
p1817
g37
tp1818
asg46
I00
sg47
F23.0
sg48
F90.0
sg49
F0.0
sg50
F2.0
sg51
F0.0
sg52
S'6-27'
p1819
sg54
I00
sg55
F127.0
sg56
F0.0
ssg247
(dp1820
g5
F24.0
sg6
F2.0
sg7
(lp1821
(S'Tom Brady'
p1822
g10
tp1823
a(S'Ryan Mallett'
p1824
g10
tp1825
a(S'LeGarrette Blount'
p1826
g15
tp1827
a(S'Brandon Bolden'
p1828
g15
tp1829
a(S'James Develin'
p1830
g15
tp1831
a(S'Stevan Ridley'
p1832
g15
tp1833
a(S'Shane Vereen'
p1834
g15
tp1835
a(S'Danny Amendola'
p1836
g22
tp1837
a(S'Josh Boyce'
p1838
g22
tp1839
a(S'Aaron Dobson'
p1840
g22
tp1841
a(S'Julian Edelman'
p1842
g22
tp1843
a(S'Matthew Slater'
p1844
g22
tp1845
a(S'Kenbrell Thompkins'
p1846
g22
tp1847
a(S'Michael Hoomanawanui'
p1848
g37
tp1849
a(S'Matthew Mulligan'
p1850
g37
tp1851
a(S'Stephen Gostkowski'
p1852
g44
tp1853
asg46
I00
sg47
F43.0
sg48
F122.0
sg49
F4.0
sg50
F1.0
sg51
F4.0
sg52
S'20-34'
p1854
sg54
I00
sg55
F267.0
sg56
F0.0
ssg281
(dp1855
g5
F33.0
sg6
F0.0
sg7
(lp1856
(S'Pat Devlin'
p1857
g10
tp1858
a(S'Matt Moore'
p1859
g10
tp1860
a(S'Ryan Tannehill'
p1861
g10
tp1862
a(S'Mike Gillislee'
p1863
g15
tp1864
a(S'Lamar Miller'
p1865
g15
tp1866
a(S'Daniel Thomas'
p1867
g15
tp1868
a(S'Brian Hartline'
p1869
g22
tp1870
a(S'Rishard Matthews'
p1871
g22
tp1872
a(S'Marlon Moore'
p1873
g22
tp1874
a(S'Mike Wallace'
p1875
g22
tp1876
a(S'Charles Clay'
p1877
g37
tp1878
a(S'Dion Sims'
p1879
g37
tp1880
a(S'Caleb Sturgis'
p1881
g44
tp1882
asg46
I01
sg47
F12.0
sg48
F135.0
sg49
F0.0
sg50
F0.0
sg51
F0.0
sg52
S'19-0'
p1883
sg54
I01
sg55
F14.0
sg56
F0.0
ssg319
(dp1884
g5
F52.0
sg6
F0.0
sg7
(lp1885
(S'Tom Brady'
p1886
g10
tp1887
a(S'Ryan Mallett'
p1888
g10
tp1889
a(S'LeGarrette Blount'
p1890
g15
tp1891
a(S'Brandon Bolden'
p1892
g15
tp1893
a(S'James Develin'
p1894
g15
tp1895
a(S'Stevan Ridley'
p1896
g15
tp1897
a(S'Shane Vereen'
p1898
g15
tp1899
a(S'Danny Amendola'
p1900
g22
tp1901
a(S'Josh Boyce'
p1902
g22
tp1903
a(S'Aaron Dobson'
p1904
g22
tp1905
a(S'Julian Edelman'
p1906
g22
tp1907
a(S'Matthew Slater'
p1908
g22
tp1909
a(S'Kenbrell Thompkins'
p1910
g22
tp1911
a(S'Rob Gronkowski'
p1912
g37
tp1913
a(S'Michael Hoomanawanui'
p1914
g37
tp1915
a(S'Zach Sudfeld'
p1916
g37
tp1917
a(S'Stephen Gostkowski'
p1918
g44
tp1919
asg46
I00
sg47
F34.0
sg48
F288.0
sg49
F3.0
sg50
F2.0
sg51
F3.0
sg52
S'21-23'
p1920
sg54
I01
sg55
F158.0
sg56
F0.0
ssg349
(dp1921
g5
F29.0
sg6
F1.0
sg7
(lp1922
(S'Matt Simms'
p1923
g10
tp1924
a(S'Geno Smith'
p1925
g10
tp1926
a(S'Tommy Bohanon'
p1927
g15
tp1928
a(S'Chris Ivory'
p1929
g15
tp1930
a(S'Bilal Powell'
p1931
g15
tp1932
a(S'Stephen Hill'
p1933
g22
tp1934
a(S'Jeremy Kerley'
p1935
g22
tp1936
a(S'Ryan Spadola'
p1937
g22
tp1938
a(S'Jeff Cumberland'
p1939
g37
tp1940
a(S'Konrad Reuland'
p1941
g37
tp1942
a(S'Nick Folk'
p1943
g44
tp1944
asg46
I00
sg47
F36.0
sg48
F331.0
sg49
F2.0
sg50
F2.0
sg51
F2.0
sg52
S'20-27'
p1945
sg54
I00
sg55
F168.0
sg56
F0.0
ssg385
(dp1946
g5
F38.0
sg6
F0.0
sg7
(lp1947
(S'Derek Anderson'
p1948
g10
tp1949
a(S'Cam Newton'
p1950
g10
tp1951
a(S'Kenjon Barner'
p1952
g15
tp1953
a(S'Mike Tolbert'
p1954
g15
tp1955
a(S'DeAngelo Williams'
p1956
g15
tp1957
a(S'Ted Ginn'
p1958
g22
tp1959
a(S'Brandon LaFell'
p1960
g22
tp1961
a(S'Steve Smith'
p1962
g22
tp1963
a(S'Greg Olsen'
p1964
g37
tp1965
a(S'Brandon Williams'
p1966
g37
tp1967
a(S'Graham Gano'
p1968
g44
tp1969
asg46
I01
sg47
F32.0
sg48
F229.0
sg49
F3.0
sg50
F2.0
sg51
F3.0
sg52
S'24-23'
p1970
sg54
I01
sg55
F125.0
sg56
F0.0
ssg423
(dp1971
g5
F28.0
sg6
F0.0
sg7
(lp1972
(S'Brian Hoyer'
p1973
g10
tp1974
a(S'Brandon Weeden'
p1975
g10
tp1976
a(S'Bobby Rainey'
p1977
g15
tp1978
a(S'Fozzy Whittaker'
p1979
g15
tp1980
a(S'Travis Benjamin'
p1981
g22
tp1982
a(S'Josh Gordon'
p1983
g22
tp1984
a(S'Greg Little'
p1985
g22
tp1986
a(S'Gary Barnidge'
p1987
g37
tp1988
a(S'Jordan Cameron'
p1989
g37
tp1990
a(S'MarQueis Gray'
p1991
g37
tp1992
asg46
I00
sg47
F6.0
sg48
F222.0
sg49
F0.0
sg50
F1.0
sg51
F0.0
sg52
S'24-37'
p1993
sg54
I00
sg55
F19.0
sg56
F0.0
ssg461
(dp1994
g5
F50.0
sg6
F0.0
sg7
(lp1995
(S'Joe Flacco'
p1996
g10
tp1997
a(S'Tyrod Taylor'
p1998
g10
tp1999
a(S'Shaun Draughn'
p2000
g15
tp2001
a(S'Kyle Juszczyk'
p2002
g15
tp2003
a(S'Bernard Pierce'
p2004
g15
tp2005
a(S'Torrey Smith'
p2006
g22
tp2007
a(S'Deonte Thompson'
p2008
g22
tp2009
a(S'Ed Dickson'
p2010
g37
tp2011
a(S'Justin Tucker'
p2012
g44
tp2013
asg46
I01
sg47
F4.0
sg48
F347.0
sg49
F2.0
sg50
F2.0
sg51
F2.0
sg52
S'23-20'
p2014
sg54
I01
sg55
F7.0
sg56
F0.0
ssg499
(dp2015
g5
F37.0
sg6
F0.0
sg7
(lp2016
(S'Pat Devlin'
p2017
g10
tp2018
a(S'Matt Moore'
p2019
g10
tp2020
a(S'Ryan Tannehill'
p2021
g10
tp2022
a(S'Mike Gillislee'
p2023
g15
tp2024
a(S'Lamar Miller'
p2025
g15
tp2026
a(S'Daniel Thomas'
p2027
g15
tp2028
a(S'Brandon Gibson'
p2029
g22
tp2030
a(S'Brian Hartline'
p2031
g22
tp2032
a(S'Rishard Matthews'
p2033
g22
tp2034
a(S'Mike Wallace'
p2035
g22
tp2036
a(S'Charles Clay'
p2037
g37
tp2038
a(S'Dion Sims'
p2039
g37
tp2040
a(S'Caleb Sturgis'
p2041
g44
tp2042
asg46
I01
sg47
F25.0
sg48
F194.0
sg49
F1.0
sg50
F3.0
sg51
F0.0
sg52
S'23-21'
p2043
sg54
I00
sg55
F120.0
sg56
F0.0
ssg537
(dp2044
g5
F40.0
sg6
F0.0
sg7
(lp2045
(S'Andy Dalton'
p2046
g10
tp2047
a(S'Josh Johnson'
p2048
g10
tp2049
a(S'Giovani Bernard'
p2050
g15
tp2051
a(S'Rex Burkhead'
p2052
g15
tp2053
a(S'Cedric Peerman'
p2054
g15
tp2055
a(S'A.J. Green'
p2056
g22
tp2057
a(S'Marvin Jones'
p2058
g22
tp2059
a(S'Mohamed Sanu'
p2060
g22
tp2061
a(S'Brandon Tate'
p2062
g22
tp2063
a(S'Orson Charles'
p2064
g37
tp2065
a(S'Tyler Eifert'
p2066
g37
tp2067
a(S'Jermaine Gresham'
p2068
g37
tp2069
a(S'Alex Smith'
p2070
g37
tp2071
a(S'Mike Nugent'
p2072
g44
tp2073
asg46
I00
sg47
F23.0
sg48
F337.0
sg49
F3.0
sg50
F3.0
sg51
F2.0
sg52
S'24-27'
p2074
sg54
I01
sg55
F79.0
sg56
F0.0
ssg575
(dp2075
g5
F29.0
sg6
F0.0
sg7
(lp2076
(S'Tyler Bray'
p2077
g10
tp2078
a(S'Chase Daniel'
p2079
g10
tp2080
a(S'Alex Smith'
p2081
g10
tp2082
a(S'Jamaal Charles'
p2083
g15
tp2084
a(S'Knile Davis'
p2085
g15
tp2086
a(S'Cyrus Gray'
p2087
g15
tp2088
a(S'Dexter McCluster'
p2089
g15
tp2090
a(S'Anthony Sherman'
p2091
g15
tp2092
a(S'Dwayne Bowe'
p2093
g22
tp2094
a(S'Anthony Fasano'
p2095
g37
tp2096
a(S'Sean McGrath'
p2097
g37
tp2098
a(S'Ryan Succop'
p2099
g44
tp2100
asg46
I00
sg47
F23.0
sg48
F124.0
sg49
F3.0
sg50
F0.0
sg51
F3.0
sg52
S'13-23'
p2101
sg54
I01
sg55
F95.0
sg56
F0.0
ssg613
(dp2102
g5
F34.0
sg6
F0.0
sg7
(lp2103
(S'Drew Brees'
p2104
g10
tp2105
a(S'Ryan Griffin'
p2106
g10
tp2107
a(S'Luke McCown'
p2108
g10
tp2109
a(S'Travaris Cadet'
p2110
g15
tp2111
a(S'Mark Ingram'
p2112
g15
tp2113
a(S'Khiry Robinson'
p2114
g15
tp2115
a(S'Darren Sproles'
p2116
g15
tp2117
a(S'Pierre Thomas'
p2118
g15
tp2119
a(S'Marques Colston'
p2120
g22
tp2121
a(S'Lance Moore'
p2122
g22
tp2123
a(S'Kenny Stills'
p2124
g22
tp2125
a(S'Nick Toon'
p2126
g22
tp2127
a(S'Jimmy Graham'
p2128
g37
tp2129
a(S'Josh Hill'
p2130
g37
tp2131
a(S'Benjamin Watson'
p2132
g37
tp2133
asg46
I00
sg47
F26.0
sg48
F332.0
sg49
F0.0
sg50
F5.0
sg51
F0.0
sg52
S'17-35'
p2134
sg54
I00
sg55
F77.0
sg56
F0.0
sssS'2012'
p2135
(dp2136
g3
(dp2137
g5
F28.0
sg6
F0.0
sg7
(lp2138
(S'Pat Devlin'
p2139
g10
tp2140
a(S'Matt Moore'
p2141
g10
tp2142
a(S'Ryan Tannehill'
p2143
g10
tp2144
a(S'Reggie Bush'
p2145
g15
tp2146
a(S'Jorvorskie Lane'
p2147
g15
tp2148
a(S'Lamar Miller'
p2149
g15
tp2150
a(S'Daniel Thomas'
p2151
g15
tp2152
a(S'Brian Hartline'
p2153
g22
tp2154
a(S'Rishard Matthews'
p2155
g22
tp2156
a(S'Marlon Moore'
p2157
g22
tp2158
a(S'Charles Clay'
p2159
g37
tp2160
a(S'Anthony Fasano'
p2161
g37
tp2162
a(S'Dan Carpenter'
p2163
g44
tp2164
asg46
I01
sg47
F24.0
sg48
F141.0
sg49
F1.0
sg50
F1.0
sg51
F0.0
sg52
S'19-14'
p2165
sg54
I01
sg55
F60.0
sg56
F0.0
ssg57
(dp2166
g5
F38.0
sg6
F2.0
sg7
(lp2167
(S'Tom Brady'
p2168
g10
tp2169
a(S'Ryan Mallett'
p2170
g10
tp2171
a(S'Stevan Ridley'
p2172
g15
tp2173
a(S'Shane Vereen'
p2174
g15
tp2175
a(S'Danny Woodhead'
p2176
g15
tp2177
a(S'Julian Edelman'
p2178
g22
tp2179
a(S'Matthew Slater'
p2180
g22
tp2181
a(S'Wes Welker'
p2182
g22
tp2183
a(S'Daniel Fells'
p2184
g37
tp2185
a(S'Rob Gronkowski'
p2186
g37
tp2187
a(S'Michael Hoomanawanui'
p2188
g37
tp2189
a(S'Stephen Gostkowski'
p2190
g44
tp2191
asg46
I00
sg47
F29.0
sg48
F237.0
sg49
F3.0
sg50
F2.0
sg51
F3.0
sg52
S'31-37'
p2192
sg54
I00
sg55
F117.0
sg56
F0.0
ssg95
(dp2193
g5
F42.0
sg6
F1.0
sg7
(lp2194
(S'Chad Henne'
p2195
g10
tp2196
a(S'Rashad Jennings'
p2197
g15
tp2198
a(S'Jordan Todman'
p2199
g15
tp2200
a(S'Justin Blackmon'
p2201
g22
tp2202
a(S'Cecil Shorts'
p2203
g22
tp2204
a(S'Marcedes Lewis'
p2205
g37
tp2206
a(S'Josh Scobee'
p2207
g44
tp2208
asg46
I01
sg47
F11.0
sg48
F202.0
sg49
F1.0
sg50
F1.0
sg51
F1.0
sg52
S'34-18'
p2209
sg54
I01
sg55
F21.0
sg56
F0.0
ssg135
(dp2210
g5
F37.0
sg6
F0.0
sg7
(lp2211
(S'Andrew Luck'
p2212
g10
tp2213
a(S'Drew Stanton'
p2214
g10
tp2215
a(S'Vick Ballard'
p2216
g15
tp2217
a(S'Donald Brown'
p2218
g15
tp2219
a(S'T.Y. Hilton'
p2220
g22
tp2221
a(S'Nathan Palmer'
p2222
g22
tp2223
a(S'Dwayne Allen'
p2224
g37
tp2225
a(S'Coby Fleener'
p2226
g37
tp2227
a(S'Dominique Jones'
p2228
g37
tp2229
a(S'Adam Vinatieri'
p2230
g44
tp2231
asg46
I00
sg47
F29.0
sg48
F240.0
sg49
F2.0
sg50
F1.0
sg51
F2.0
sg52
S'13-20'
p2232
sg54
I00
sg55
F87.0
sg56
F0.0
ssg175
(dp2233
g5
F23.0
sg6
F3.0
sg7
(lp2234
(S'Matt Flynn'
p2235
g10
tp2236
a(S'Russell Wilson'
p2237
g10
tp2238
a(S'Robert Turbin'
p2239
g15
tp2240
a(S'Doug Baldwin'
p2241
g22
tp2242
a(S'Jermaine Kearse'
p2243
g22
tp2244
a(S'Golden Tate'
p2245
g22
tp2246
a(S'Anthony McCoy'
p2247
g37
tp2248
a(S'Steven Hauschka'
p2249
g44
tp2250
asg46
I00
sg47
F19.0
sg48
F205.0
sg49
F3.0
sg50
F1.0
sg51
F3.0
sg52
S'17-50'
p2251
sg54
I01
sg55
F123.0
sg56
F0.0
ssg211
(dp2252
g5
F39.0
sg6
F1.0
sg7
(lp2253
(S'Sam Bradford'
p2254
g10
tp2255
a(S'Kellen Clemens'
p2256
g10
tp2257
a(S'Austin Davis'
p2258
g10
tp2259
a(S'Steven Jackson'
p2260
g15
tp2261
a(S'Isaiah Pead'
p2262
g15
tp2263
a(S'Daryl Richardson'
p2264
g15
tp2265
a(S'Danny Amendola'
p2266
g22
tp2267
a(S'Brandon Gibson'
p2268
g22
tp2269
a(S'Chris Givens'
p2270
g22
tp2271
a(S'Brian Quick'
p2272
g22
tp2273
a(S'Cory Harkey'
p2274
g37
tp2275
a(S'Lance Kendricks'
p2276
g37
tp2277
a(S'Matthew Mulligan'
p2278
g37
tp2279
a(S'Greg Zuerlein'
p2280
g44
tp2281
asg46
I00
sg47
F27.0
sg48
F209.0
sg49
F0.0
sg50
F1.0
sg51
F0.0
sg52
S'12-15'
p2282
sg54
I01
sg55
F78.0
sg56
F0.0
ssg247
(dp2283
g5
F35.0
sg6
F0.0
sg7
(lp2284
(S'Mark Sanchez'
p2285
g10
tp2286
a(S'Bilal Powell'
p2287
g15
tp2288
a(S'Jeremy Kerley'
p2289
g22
tp2290
a(S'Jeff Cumberland'
p2291
g37
tp2292
a(S'Konrad Reuland'
p2293
g37
tp2294
a(S'Nick Folk'
p2295
g44
tp2296
asg46
I01
sg47
F15.0
sg48
F205.0
sg49
F4.0
sg50
F0.0
sg51
F3.0
sg52
S'28-9'
p2297
sg54
I01
sg55
F55.0
sg56
F1.0
ssg281
(dp2298
g5
F25.0
sg6
F1.0
sg7
(lp2299
(S'Pat Devlin'
p2300
g10
tp2301
a(S'Matt Moore'
p2302
g10
tp2303
a(S'Ryan Tannehill'
p2304
g10
tp2305
a(S'Reggie Bush'
p2306
g15
tp2307
a(S'Jorvorskie Lane'
p2308
g15
tp2309
a(S'Lamar Miller'
p2310
g15
tp2311
a(S'Brian Hartline'
p2312
g22
tp2313
a(S'Rishard Matthews'
p2314
g22
tp2315
a(S'Marlon Moore'
p2316
g22
tp2317
a(S'Anthony Fasano'
p2318
g37
tp2319
asg46
I00
sg47
F35.0
sg48
F130.0
sg49
F0.0
sg50
F2.0
sg51
F0.0
sg52
S'10-24'
p2320
sg54
I00
sg55
F182.0
sg56
F0.0
ssg319
(dp2321
g5
F27.0
sg6
F0.0
sg7
(lp2322
(S'Mark Sanchez'
p2323
g10
tp2324
a(S'Bilal Powell'
p2325
g15
tp2326
a(S'Stephen Hill'
p2327
g22
tp2328
a(S'Jeremy Kerley'
p2329
g22
tp2330
a(S'Jeff Cumberland'
p2331
g37
tp2332
a(S'Konrad Reuland'
p2333
g37
tp2334
a(S'Nick Folk'
p2335
g44
tp2336
asg46
I00
sg47
F3.0
sg48
F266.0
sg49
F2.0
sg50
F3.0
sg51
F2.0
sg52
S'28-48'
p2337
sg54
I00
sg55
F10.0
sg56
F0.0
ssg349
(dp2338
g5
F43.0
sg6
F1.0
sg7
(lp2339
(S'Thad Lewis'
p2340
g10
tp2341
a(S'Colt McCoy'
p2342
g10
tp2343
a(S'Brandon Weeden'
p2344
g10
tp2345
a(S'Trent Richardson'
p2346
g15
tp2347
a(S'Travis Benjamin'
p2348
g22
tp2349
a(S'Josh Gordon'
p2350
g22
tp2351
a(S'Greg Little'
p2352
g22
tp2353
a(S'Jordan Norwood'
p2354
g22
tp2355
a(S'Jordan Cameron'
p2356
g37
tp2357
a(S'Alex Smith'
p2358
g37
tp2359
a(S'Benjamin Watson'
p2360
g37
tp2361
a(S'Phil Dawson'
p2362
g44
tp2363
asg46
I01
sg47
F12.0
sg48
F237.0
sg49
F0.0
sg50
F1.0
sg51
F0.0
sg52
S'24-14'
p2364
sg54
I00
sg55
F27.0
sg56
F0.0
ssg385
(dp2365
g5
F42.0
sg6
F0.0
sg7
(lp2366
(S'Matt Cassel'
p2367
g10
tp2368
a(S'Jamaal Charles'
p2369
g15
tp2370
a(S'Shaun Draughn'
p2371
g15
tp2372
a(S'Cyrus Gray'
p2373
g15
tp2374
a(S'Dexter McCluster'
p2375
g15
tp2376
a(S'Dwayne Bowe'
p2377
g22
tp2378
a(S'Tony Moeaki'
p2379
g37
tp2380
a(S'Ryan Succop'
p2381
g44
tp2382
asg46
I01
sg47
F13.0
sg48
F301.0
sg49
F1.0
sg50
F2.0
sg51
F1.0
sg52
S'35-17'
p2383
sg54
I01
sg55
F84.0
sg56
F0.0
ssg423
(dp2384
g5
F25.0
sg6
F3.0
sg7
(lp2385
(S'Colin Kaepernick'
p2386
g10
tp2387
a(S'Alex Smith'
p2388
g10
tp2389
a(S'Scott Tolzien'
p2390
g10
tp2391
a(S'Anthony Dixon'
p2392
g15
tp2393
a(S'Frank Gore'
p2394
g15
tp2395
a(S'Kendall Hunter'
p2396
g15
tp2397
a(S'Bruce Miller'
p2398
g15
tp2399
a(S'Will Tukuafu'
p2400
g15
tp2401
a(S'Michael Crabtree'
p2402
g22
tp2403
a(S'Ted Ginn'
p2404
g22
tp2405
a(S'Kyle Williams'
p2406
g22
tp2407
a(S'Garrett Celek'
p2408
g37
tp2409
a(S'Vernon Davis'
p2410
g37
tp2411
a(S'Delanie Walker'
p2412
g37
tp2413
asg46
I00
sg47
F38.0
sg48
F310.0
sg49
F0.0
sg50
F3.0
sg51
F0.0
sg52
S'3-45'
p2414
sg54
I00
sg55
F311.0
sg56
F0.0
ssg461
(dp2415
g5
F36.0
sg6
F4.0
sg7
(lp2416
(S'Tom Brady'
p2417
g10
tp2418
a(S'Ryan Mallett'
p2419
g10
tp2420
a(S'Brandon Bolden'
p2421
g15
tp2422
a(S'Stevan Ridley'
p2423
g15
tp2424
a(S'Shane Vereen'
p2425
g15
tp2426
a(S'Danny Woodhead'
p2427
g15
tp2428
a(S'Julian Edelman'
p2429
g22
tp2430
a(S'Matthew Slater'
p2431
g22
tp2432
a(S'Wes Welker'
p2433
g22
tp2434
a(S'Daniel Fells'
p2435
g37
tp2436
a(S'Rob Gronkowski'
p2437
g37
tp2438
a(S'Michael Hoomanawanui'
p2439
g37
tp2440
a(S'Stephen Gostkowski'
p2441
g44
tp2442
asg46
I00
sg47
F40.0
sg48
F340.0
sg49
F3.0
sg50
F3.0
sg51
F1.0
sg52
S'28-52'
p2443
sg54
I01
sg55
F247.0
sg56
F0.0
ssg499
(dp2444
g5
F0.0
sg6
F2.0
sg7
(lp2445
(S'Chris Johnson'
p2446
g15
tp2447
a(S'Kenny Britt'
p2448
g22
tp2449
a(S'Nate Washington'
p2450
g22
tp2451
a(S'Kendall Wright'
p2452
g22
tp2453
a(S'Jared Cook'
p2454
g37
tp2455
a(S'Craig Stevens'
p2456
g37
tp2457
asg46
I00
sg47
F18.0
sg48
F0.0
sg49
F0.0
sg50
F0.0
sg51
F0.0
sg52
S'34-35'
p2458
sg54
I01
sg55
F195.0
sg56
F0.0
ssg537
(dp2459
g5
F0.0
sg6
F0.0
sg7
(lp2460
(S'Anthony Sherman'
p2461
g15
tp2462
a(S'LaRon Byrd'
p2463
g22
tp2464
a(S'Larry Fitzgerald'
p2465
g22
tp2466
a(S'Michael Floyd'
p2467
g22
tp2468
a(S'Andre Roberts'
p2469
g22
tp2470
a(S'Jim Dray'
p2471
g37
tp2472
a(S'Rob Housler'
p2473
g37
tp2474
asg46
I01
sg47
F0.0
sg48
F0.0
sg49
F0.0
sg50
F0.0
sg51
F0.0
sg52
S'19-16'
p2475
sg54
I00
sg55
F0.0
sg56
F0.0
ssg575
(dp2476
g5
F27.0
sg6
F1.0
sg7
(lp2477
(S'Matt Schaub'
p2478
g10
tp2479
a(S'T.J. Yates'
p2480
g10
tp2481
a(S'Tyler Clutts'
p2482
g15
tp2483
a(S'Justin Forsett'
p2484
g15
tp2485
a(S'Arian Foster'
p2486
g15
tp2487
a(S'Jonathan Grimes'
p2488
g15
tp2489
a(S'Andre Johnson'
p2490
g22
tp2491
a(S'Keshawn Martin'
p2492
g22
tp2493
a(S'DeVier Posey'
p2494
g22
tp2495
a(S'Owen Daniels'
p2496
g37
tp2497
a(S'Garrett Graham'
p2498
g37
tp2499
a(S'Shayne Graham'
p2500
g44
tp2501
asg46
I00
sg47
F32.0
sg48
F268.0
sg49
F1.0
sg50
F2.0
sg51
F0.0
sg52
S'9-21'
p2502
sg54
I00
sg55
F118.0
sg56
F1.0
ssg613
(dp2503
g5
F0.0
sg6
F0.0
sg7
(lp2504
sg46
(lp2505
sg47
F0.0
sg48
F0.0
sg49
F0.0
sg50
F0.0
sg51
F0.0
sg52
(lp2506
sg54
(lp2507
sg55
F0.0
sg56
F0.0
sss.