(dp0
S'2015'
p1
(dp2
S'11'
p3
(dp4
S'PassAtt'
p5
F31.0
sS'RushTD'
p6
F0.0
sS'Players'
p7
(lp8
(S'Matt Barkley'
p9
S'QB'
p10
tp11
a(S'Carson Palmer'
p12
g10
tp13
a(S'Drew Stanton'
p14
g10
tp15
a(S'Andre Ellington'
p16
S'RB'
p17
tp18
a(S'Chris Johnson'
p19
g17
tp20
a(S'David Johnson'
p21
g17
tp22
a(S'Stepfan Taylor'
p23
g17
tp24
a(S'Jaron Brown'
p25
S'WR'
p26
tp27
a(S'John Brown'
p28
g26
tp29
a(S'Larry Fitzgerald'
p30
g26
tp31
a(S'Michael Floyd'
p32
g26
tp33
a(S'Brittan Golden'
p34
g26
tp35
a(S'J.J. Nelson'
p36
g26
tp37
a(S'Darren Fells'
p38
S'TE'
p39
tp40
a(S'Jermaine Gresham'
p41
g39
tp42
a(S'Troy Niklas'
p43
g39
tp44
a(S'Chandler Catanzaro'
p45
S'K'
p46
tp47
asS'Won'
p48
I00
sS'RushAtt'
p49
F25.0
sS'PassYds'
p50
F317.0
sS'FGAtt'
p51
F2.0
sS'PassTD'
p52
F4.0
sS'FGM'
p53
F2.0
sS'Score'
p54
S'31-34'
p55
sS'Home'
p56
I00
sS'RushYds'
p57
F82.0
sS'FGBlk'
p58
F0.0
ssS'10'
p59
(dp60
g5
F33.0
sg6
F0.0
sg7
(lp61
(S'Brian Hoyer'
p62
g10
tp63
a(S'T.J. Yates'
p64
g10
tp65
a(S'Alfred Blue'
p66
g17
tp67
a(S'Jonathan Grimes'
p68
g17
tp69
a(S'Chris Polk'
p70
g17
tp71
a(S'Jay Prosch'
p72
g17
tp73
a(S'DeAndre Hopkins'
p74
g26
tp75
a(S'Keith Mumphery'
p76
g26
tp77
a(S'Cecil Shorts'
p78
g26
tp79
a(S'Jaelen Strong'
p80
g26
tp81
a(S'Nate Washington'
p82
g26
tp83
a(S'C.J. Fiedorowicz'
p84
g39
tp85
a(S'Garrett Graham'
p86
g39
tp87
a(S'Ryan Griffin'
p88
g39
tp89
a(S'Nick Novak'
p90
g46
tp91
asg48
I00
sg49
F25.0
sg50
F192.0
sg51
F1.0
sg52
F1.0
sg53
F1.0
sg54
S'6-10'
p92
sg56
I01
sg57
F82.0
sg58
F0.0
ssS'13'
p93
(dp94
g5
F38.0
sg6
F0.0
sg7
(lp95
(S'Austin Davis'
p96
g10
tp97
a(S'Johnny Manziel'
p98
g10
tp99
a(S'Isaiah Crowell'
p100
g17
tp101
a(S'Malcolm Johnson'
p102
g17
tp103
a(S'Duke Johnson'
p104
g17
tp105
a(S'Glenn Winston'
p106
g17
tp107
a(S'Travis Benjamin'
p108
g26
tp109
a(S'Dwayne Bowe'
p110
g26
tp111
a(S'Taylor Gabriel'
p112
g26
tp113
a(S'Brian Hartline'
p114
g26
tp115
a(S'Andrew Hawkins'
p116
g26
tp117
a(S'Darius Jennings'
p118
g26
tp119
a(S'Marlon Moore'
p120
g26
tp121
a(S'Terrelle Pryor'
p122
g26
tp123
a(S'Gary Barnidge'
p124
g39
tp125
a(S'E.J. Bibbs'
p126
g39
tp127
a(S'Jim Dray'
p128
g39
tp129
a(S'Travis Coons'
p130
g46
tp131
asg48
I01
sg49
F19.0
sg50
F230.0
sg51
F2.0
sg52
F0.0
sg53
F1.0
sg54
S'37-3'
p132
sg56
I00
sg57
F68.0
sg58
F1.0
ssS'12'
p133
(dp134
g5
F53.0
sg6
F1.0
sg7
(lp135
(S'Nick Foles'
p136
g10
tp137
a(S'Case Keenum'
p138
g10
tp139
a(S'Sean Mannion'
p140
g10
tp141
a(S'Benny Cunningham'
p142
g17
tp143
a(S'Todd Gurley'
p144
g17
tp145
a(S'Tre Mason'
p146
g17
tp147
a(S'Chase Reynolds'
p148
g17
tp149
a(S'Tavon Austin'
p150
g26
tp151
a(S'Kenny Britt'
p152
g26
tp153
a(S'Bradley Marquez'
p154
g26
tp155
a(S'Brian Quick'
p156
g26
tp157
a(S'Jared Cook'
p158
g39
tp159
a(S'Cory Harkey'
p160
g39
tp161
a(S'Lance Kendricks'
p162
g39
tp163
a(S'Zach Hocker'
p164
g46
tp165
a(S'Greg Zuerlein'
p166
g46
tp167
asg48
I01
sg49
F17.0
sg50
F259.0
sg51
F0.0
sg52
F0.0
sg53
F0.0
sg54
S'31-7'
p168
sg56
I01
sg57
F94.0
sg58
F0.0
ssS'15'
p169
(dp170
g5
F50.0
sg6
F1.0
sg7
(lp171
(S'Blaine Gabbert'
p172
g10
tp173
a(S'Dylan Thompson'
p174
g10
tp175
a(S'Travaris Cadet'
p176
g17
tp177
a(S'Shaun Draughn'
p178
g17
tp179
a(S'Kendall Gaskins'
p180
g17
tp181
a(S'Bruce Miller'
p182
g17
tp183
a(S'Anquan Boldin'
p184
g26
tp185
a(S'Bruce Ellington'
p186
g26
tp187
a(S'Josh Gordon'
p188
g26
tp189
a(S'Quinton Patton'
p190
g26
tp191
a(S'Jerome Simpson'
p192
g26
tp193
a(S'Torrey Smith'
p194
g26
tp195
a(S'DeAndrew White'
p196
g26
tp197
a(S'Blake Bell'
p198
g39
tp199
a(S'Brian Leonhardt'
p200
g39
tp201
a(S'Vance McDonald'
p202
g39
tp203
a(S'Phil Dawson'
p204
g46
tp205
asg48
I01
sg49
F17.0
sg50
F295.0
sg51
F1.0
sg52
F1.0
sg53
F0.0
sg54
S'24-14'
p206
sg56
I00
sg57
F55.0
sg58
F1.0
ssS'14'
p207
(dp208
g5
F39.0
sg6
F2.0
sg7
(lp209
(S'Landry Jones'
p210
g10
tp211
a(S'Ben Roethlisberger'
p212
g10
tp213
a(S'Mike Vick'
p214
g10
tp215
a(S'Will Johnson'
p216
g17
tp217
a(S'Roosevelt Nix-Jones'
p218
g17
tp219
a(S'Jordan Todman'
p220
g17
tp221
a(S'Fitzgerald Toussaint'
p222
g17
tp223
a(S'DeAngelo Williams'
p224
g17
tp225
a(S'Antonio Brown'
p226
g26
tp227
a(S'Martavis Bryant'
p228
g26
tp229
a(S'Sammie Coates'
p230
g26
tp231
a(S'Darrius Heyward-Bey'
p232
g26
tp233
a(S'Markus Wheaton'
p234
g26
tp235
a(S'Jesse James'
p236
g39
tp237
a(S'Matt Spaeth'
p238
g39
tp239
a(S'Chris Boswell'
p240
g46
tp241
asg48
I00
sg49
F27.0
sg50
F282.0
sg51
F4.0
sg52
F0.0
sg53
F4.0
sg54
S'20-33'
p242
sg56
I01
sg57
F82.0
sg58
F0.0
ssS'17'
p243
(dp244
g5
F56.0
sg6
F0.0
sg7
(lp245
(S'Jimmy Clausen'
p246
g10
tp247
a(S'Ryan Mallett'
p248
g10
tp249
a(S'Matt Schaub'
p250
g10
tp251
a(S'Javorius Allen'
p252
g17
tp253
a(S'Kyle Juszczyk'
p254
g17
tp255
a(S'Terrence Magee'
p256
g17
tp257
a(S'Terrance West'
p258
g17
tp259
a(S'Kamar Aiken'
p260
g26
tp261
a(S'Daniel Brown'
p262
g26
tp263
a(S'Jeremy Butler'
p264
g26
tp265
a(S'Kaelin Clay'
p266
g26
tp267
a(S'Chris Givens'
p268
g26
tp269
a(S'Chris Matthews'
p270
g26
tp271
a(S'Konrad Reuland'
p272
g39
tp273
a(S'Maxx Williams'
p274
g39
tp275
a(S'Justin Tucker'
p276
g46
tp277
asg48
I01
sg49
F21.0
sg50
F292.0
sg51
F3.0
sg52
F1.0
sg53
F3.0
sg54
S'24-16'
p278
sg56
I01
sg57
F59.0
sg58
F0.0
ssS'16'
p279
(dp280
g5
F39.0
sg6
F1.0
sg7
(lp281
(S'Brock Osweiler'
p282
g10
tp283
a(S'Trevor Siemian'
p284
g10
tp285
a(S'C.J. Anderson'
p286
g17
tp287
a(S'Ronnie Hillman'
p288
g17
tp289
a(S'Juwan Thompson'
p290
g17
tp291
a(S'Andre Caldwell'
p292
g26
tp293
a(S'Bennie Fowler'
p294
g26
tp295
a(S'Cody Latimer'
p296
g26
tp297
a(S'Jordan Norwood'
p298
g26
tp299
a(S'Emmanuel Sanders'
p300
g26
tp301
a(S'Demaryius Thomas'
p302
g26
tp303
a(S'Owen Daniels'
p304
g39
tp305
a(S'Vernon Davis'
p306
g39
tp307
a(S'Virgil Green'
p308
g39
tp309
a(S'Brandon McManus'
p310
g46
tp311
asg48
I00
sg49
F21.0
sg50
F299.0
sg51
F3.0
sg52
F1.0
sg53
F2.0
sg54
S'17-20'
p312
sg56
I00
sg57
F113.0
sg58
F0.0
ssS'1'
p313
(dp314
g5
F43.0
sg6
F0.0
sg7
(lp315
(S'Derek Carr'
p316
g10
tp317
a(S'Matt McGloin'
p318
g10
tp319
a(S'Roy Helu'
p320
g17
tp321
a(S'Taiwan Jones'
p322
g17
tp323
a(S'Latavius Murray'
p324
g17
tp325
a(S'Jamize Olawale'
p326
g17
tp327
a(S'Marcel Reece'
p328
g17
tp329
a(S'Brice Butler'
p330
g26
tp331
a(S'Amari Cooper'
p332
g26
tp333
a(S'Michael Crabtree'
p334
g26
tp335
a(S'Andre Holmes'
p336
g26
tp337
a(S'Seth Roberts'
p338
g26
tp339
a(S'Rod Streater'
p340
g26
tp341
a(S'Gabe Holmes'
p342
g39
tp343
a(S'Mychal Rivera'
p344
g39
tp345
a(S'Lee Smith'
p346
g39
tp347
a(S'Clive Walford'
p348
g39
tp349
a(S'Sebastian Janikowski'
p350
g46
tp351
asg48
I01
sg49
F16.0
sg50
F203.0
sg51
F0.0
sg52
F2.0
sg53
F0.0
sg54
S'33-13'
p352
sg56
I00
sg57
F63.0
sg58
F0.0
ssS'3'
p353
(dp354
g5
F49.0
sg6
F0.0
sg7
(lp355
(S'Joe Flacco'
p356
g10
tp357
a(S'Matt Schaub'
p358
g10
tp359
a(S'Javorius Allen'
p360
g17
tp361
a(S'Justin Forsett'
p362
g17
tp363
a(S'Kyle Juszczyk'
p364
g17
tp365
a(S'Lorenzo Taliaferro'
p366
g17
tp367
a(S'Kamar Aiken'
p368
g26
tp369
a(S'Michael Campanaro'
p370
g26
tp371
a(S'Breshad Perriman'
p372
g26
tp373
a(S'Steve Smith'
p374
g26
tp375
a(S'Darren Waller'
p376
g26
tp377
a(S'Nick Boyle'
p378
g39
tp379
a(S'Crockett Gillmore'
p380
g39
tp381
a(S'Maxx Williams'
p382
g39
tp383
a(S'Justin Tucker'
p384
g46
tp385
asg48
I01
sg49
F17.0
sg50
F362.0
sg51
F2.0
sg52
F2.0
sg53
F1.0
sg54
S'28-24'
p386
sg56
I00
sg57
F33.0
sg58
F0.0
ssS'2'
p387
(dp388
g5
F27.0
sg6
F0.0
sg7
(lp389
(S'Kellen Clemens'
p390
g10
tp391
a(S'Philip Rivers'
p392
g10
tp393
a(S'Donald Brown'
p394
g17
tp395
a(S'Melvin Gordon'
p396
g17
tp397
a(S'Branden Oliver'
p398
g17
tp399
a(S'Danny Woodhead'
p400
g17
tp401
a(S'Keenan Allen'
p402
g26
tp403
a(S'Malcom Floyd'
p404
g26
tp405
a(S'Dontrelle Inman'
p406
g26
tp407
a(S'Steve Johnson'
p408
g26
tp409
a(S'Ladarius Green'
p410
g39
tp411
a(S'David Johnson'
p412
g39
tp413
a(S'John Phillips'
p414
g39
tp415
a(S'Josh Lambo'
p416
g46
tp417
asg48
I01
sg49
F25.0
sg50
F241.0
sg51
F3.0
sg52
F2.0
sg53
F2.0
sg54
S'24-19'
p418
sg56
I01
sg57
F131.0
sg58
F0.0
ssS'5'
p419
(dp420
g5
F23.0
sg6
F1.0
sg7
(lp421
(S'Tarvaris Jackson'
p422
g10
tp423
a(S'Russell Wilson'
p424
g10
tp425
a(S'Derrick Coleman'
p426
g17
tp427
a(S'Fred Jackson'
p428
g17
tp429
a(S'Thomas Rawls'
p430
g17
tp431
a(S'Rod Smith'
p432
g17
tp433
a(S'Will Tukuafu'
p434
g17
tp435
a(S'Doug Baldwin'
p436
g26
tp437
a(S'Jermaine Kearse'
p438
g26
tp439
a(S'Tyler Lockett'
p440
g26
tp441
a(S'Ricardo Lockette'
p442
g26
tp443
a(S'Chris Matthews'
p444
g26
tp445
a(S'Jimmy Graham'
p446
g39
tp447
a(S'Cooper Helfet'
p448
g39
tp449
a(S'Luke Willson'
p450
g39
tp451
a(S'Steven Hauschka'
p452
g46
tp453
asg48
I01
sg49
F30.0
sg50
F213.0
sg51
F1.0
sg52
F1.0
sg53
F1.0
sg54
S'27-24'
p454
sg56
I01
sg57
F200.0
sg58
F0.0
ssS'4'
p455
(dp456
g5
F45.0
sg6
F0.0
sg7
(lp457
(S'Chase Daniel'
p458
g10
tp459
a(S'Aaron Murray'
p460
g10
tp461
a(S'Alex Smith'
p462
g10
tp463
a(S'Jamaal Charles'
p464
g17
tp465
a(S'Knile Davis'
p466
g17
tp467
a(S'Anthony Sherman'
p468
g17
tp469
a(S'Charcandrick West'
p470
g17
tp471
a(S'Jason Avant'
p472
g26
tp473
a(S'Chris Conley'
p474
g26
tp475
a(S'Frankie Hammond'
p476
g26
tp477
a(S'Jeremy Maclin'
p478
g26
tp479
a(S"De'Anthony Thomas"
p480
g26
tp481
a(S'Albert Wilson'
p482
g26
tp483
a(S'Demetrius Harris'
p484
g39
tp485
a(S'Travis Kelce'
p486
g39
tp487
a(S"James O'Shaughnessy"
p488
g39
tp489
a(S'Brian Parker'
p490
g39
tp491
a(S'Cairo Santos'
p492
g46
tp493
asg48
I01
sg49
F23.0
sg50
F386.0
sg51
F7.0
sg52
F0.0
sg53
F7.0
sg54
S'36-21'
p494
sg56
I01
sg57
F113.0
sg58
F0.0
ssS'7'
p495
(dp496
g5
F0.0
sg6
F0.0
sg7
(lp497
sg48
(lp498
sg49
F0.0
sg50
F0.0
sg51
F0.0
sg52
F0.0
sg53
F0.0
sg54
(lp499
sg56
(lp500
sg57
F0.0
sg58
F0.0
ssS'6'
p501
(dp502
g5
F42.0
sg6
F2.0
sg7
(lp503
(S'Josh Johnson'
p504
g10
tp505
a(S'EJ Manuel'
p506
g10
tp507
a(S'Tyrod Taylor'
p508
g10
tp509
a(S'Anthony Dixon'
p510
g17
tp511
a(S'Jerome Felton'
p512
g17
tp513
a(S'Dan Herron'
p514
g17
tp515
a(S'LeSean McCoy'
p516
g17
tp517
a(S'Karlos Williams'
p518
g17
tp519
a(S'Marcus Easley'
p520
g26
tp521
a(S'Marquise Goodwin'
p522
g26
tp523
a(S'Percy Harvin'
p524
g26
tp525
a(S'Chris Hogan'
p526
g26
tp527
a(S'Sammy Watkins'
p528
g26
tp529
a(S'Robert Woods'
p530
g26
tp531
a(S'Charles Clay'
p532
g39
tp533
a(S'Chris Gragg'
p534
g39
tp535
a(S'Matthew Mulligan'
p536
g39
tp537
a(S'Dan Carpenter'
p538
g46
tp539
asg48
I01
sg49
F23.0
sg50
F263.0
sg51
F0.0
sg52
F1.0
sg53
F0.0
sg54
S'34-21'
p540
sg56
I00
sg57
F112.0
sg58
F0.0
ssS'9'
p541
(dp542
g5
F33.0
sg6
F0.0
sg7
(lp543
(S'Austin Davis'
p544
g10
tp545
a(S'Johnny Manziel'
p546
g10
tp547
a(S'Josh McCown'
p548
g10
tp549
a(S'Isaiah Crowell'
p550
g17
tp551
a(S'Malcolm Johnson'
p552
g17
tp553
a(S'Duke Johnson'
p554
g17
tp555
a(S'Robert Turbin'
p556
g17
tp557
a(S'Travis Benjamin'
p558
g26
tp559
a(S'Dwayne Bowe'
p560
g26
tp561
a(S'Taylor Gabriel'
p562
g26
tp563
a(S'Brian Hartline'
p564
g26
tp565
a(S'Andrew Hawkins'
p566
g26
tp567
a(S'Marlon Moore'
p568
g26
tp569
a(S'Gary Barnidge'
p570
g39
tp571
a(S'E.J. Bibbs'
p572
g39
tp573
a(S'Jim Dray'
p574
g39
tp575
a(S'Travis Coons'
p576
g46
tp577
asg48
I01
sg49
F17.0
sg50
F168.0
sg51
F1.0
sg52
F1.0
sg53
F1.0
sg54
S'31-10'
p578
sg56
I01
sg57
F69.0
sg58
F0.0
ssS'8'
p579
(dp580
g5
F45.0
sg6
F0.0
sg7
(lp581
(S'Landry Jones'
p582
g10
tp583
a(S'Ben Roethlisberger'
p584
g10
tp585
a(S'Mike Vick'
p586
g10
tp587
a(S'Dri Archer'
p588
g17
tp589
a(S"Le'Veon Bell"
p590
g17
tp591
a(S'Will Johnson'
p592
g17
tp593
a(S'Roosevelt Nix-Jones'
p594
g17
tp595
a(S'Jordan Todman'
p596
g17
tp597
a(S'DeAngelo Williams'
p598
g17
tp599
a(S'Antonio Brown'
p600
g26
tp601
a(S'Martavis Bryant'
p602
g26
tp603
a(S'Sammie Coates'
p604
g26
tp605
a(S'Darrius Heyward-Bey'
p606
g26
tp607
a(S'Tyler Murphy'
p608
g26
tp609
a(S'Markus Wheaton'
p610
g26
tp611
a(S'Jesse James'
p612
g39
tp613
a(S'Matt Spaeth'
p614
g39
tp615
a(S'Chris Boswell'
p616
g46
tp617
asg48
I01
sg49
F19.0
sg50
F262.0
sg51
F1.0
sg52
F1.0
sg53
F1.0
sg54
S'16-10'
p618
sg56
I00
sg57
F116.0
sg58
F0.0
sssS'2014'
p619
(dp620
g3
(dp621
g5
F41.0
sg6
F0.0
sg7
(lp622
(S'Drew Brees'
p623
g10
tp624
a(S'Luke McCown'
p625
g10
tp626
a(S'Travaris Cadet'
p627
g17
tp628
a(S'Mark Ingram'
p629
g17
tp630
a(S'Khiry Robinson'
p631
g17
tp632
a(S'Pierre Thomas'
p633
g17
tp634
a(S'Marques Colston'
p635
g26
tp636
a(S'Brandin Cooks'
p637
g26
tp638
a(S'Kenny Stills'
p639
g26
tp640
a(S'Nick Toon'
p641
g26
tp642
a(S'Jimmy Graham'
p643
g39
tp644
a(S'Josh Hill'
p645
g39
tp646
a(S'Benjamin Watson'
p647
g39
tp648
a(S'Shayne Graham'
p649
g46
tp650
asg48
I01
sg49
F26.0
sg50
F255.0
sg51
F1.0
sg52
F1.0
sg53
F1.0
sg54
S'27-10'
p651
sg56
I00
sg57
F75.0
sg58
F0.0
ssg59
(dp652
g5
F23.0
sg6
F2.0
sg7
(lp653
(S'Brian Hoyer'
p654
g10
tp655
a(S'Johnny Manziel'
p656
g10
tp657
a(S'Isaiah Crowell'
p658
g17
tp659
a(S'Terrance West'
p660
g17
tp661
a(S'Glenn Winston'
p662
g17
tp663
a(S'Travis Benjamin'
p664
g26
tp665
a(S'Taylor Gabriel'
p666
g26
tp667
a(S'Andrew Hawkins'
p668
g26
tp669
a(S'Marlon Moore'
p670
g26
tp671
a(S'Rodney Smith'
p672
g26
tp673
a(S'Gary Barnidge'
p674
g39
tp675
a(S'Jordan Cameron'
p676
g39
tp677
a(S'Jim Dray'
p678
g39
tp679
asg48
I00
sg49
F42.0
sg50
F198.0
sg51
F0.0
sg52
F0.0
sg53
F0.0
sg54
S'3-24'
p680
sg56
I01
sg57
F136.0
sg58
F0.0
ssg93
(dp681
g5
F29.0
sg6
F1.0
sg7
(lp682
(S'Mike Glennon'
p683
g10
tp684
a(S'Josh McCown'
p685
g10
tp686
a(S'Mike James'
p687
g17
tp688
a(S'Doug Martin'
p689
g17
tp690
a(S'Bobby Rainey'
p691
g17
tp692
a(S'Charles Sims'
p693
g17
tp694
a(S'Mike Evans'
p695
g26
tp696
a(S'Vincent Jackson'
p697
g26
tp698
a(S'Louis Murphy'
p699
g26
tp700
a(S'Russell Shepard'
p701
g26
tp702
a(S'Cameron Brate'
p703
g39
tp704
a(S'Brandon Myers'
p705
g39
tp706
a(S'Austin Seferian-Jenkins'
p707
g39
tp708
a(S'Luke Stocker'
p709
g39
tp710
a(S'Patrick Murray'
p711
g46
tp712
asg48
I01
sg49
F25.0
sg50
F190.0
sg51
F2.0
sg52
F0.0
sg53
F2.0
sg54
S'14-13'
p713
sg56
I00
sg57
F75.0
sg58
F0.0
ssg133
(dp714
g5
F45.0
sg6
F0.0
sg7
(lp715
(S'Ryan Fitzpatrick'
p716
g10
tp717
a(S'Ryan Mallett'
p718
g10
tp719
a(S'Tom Savage'
p720
g10
tp721
a(S'Alfred Blue'
p722
g17
tp723
a(S'Arian Foster'
p724
g17
tp725
a(S'Jonathan Grimes'
p726
g17
tp727
a(S'Jay Prosch'
p728
g17
tp729
a(S'DeAndre Hopkins'
p730
g26
tp731
a(S'Andre Johnson'
p732
g26
tp733
a(S'Damaris Johnson'
p734
g26
tp735
a(S'Keshawn Martin'
p736
g26
tp737
a(S'DeVier Posey'
p738
g26
tp739
a(S'C.J. Fiedorowicz'
p740
g39
tp741
a(S'Garrett Graham'
p742
g39
tp743
a(S'Ryan Griffin'
p744
g39
tp745
a(S'Randy Bullock'
p746
g46
tp747
asg48
I01
sg49
F19.0
sg50
F189.0
sg51
F2.0
sg52
F0.0
sg53
F2.0
sg54
S'22-13'
p748
sg56
I00
sg57
F64.0
sg58
F0.0
ssg169
(dp749
g5
F18.0
sg6
F0.0
sg7
(lp750
(S'Brian Hoyer'
p751
g10
tp752
a(S'Johnny Manziel'
p753
g10
tp754
a(S'Isaiah Crowell'
p755
g17
tp756
a(S'Shaun Draughn'
p757
g17
tp758
a(S'Terrance West'
p759
g17
tp760
a(S'Glenn Winston'
p761
g17
tp762
a(S'Travis Benjamin'
p763
g26
tp764
a(S'Taylor Gabriel'
p765
g26
tp766
a(S'Josh Gordon'
p767
g26
tp768
a(S'Andrew Hawkins'
p769
g26
tp770
a(S'Marlon Moore'
p771
g26
tp772
a(S'Rodney Smith'
p773
g26
tp774
a(S'Gary Barnidge'
p775
g39
tp776
a(S'Jordan Cameron'
p777
g39
tp778
a(S'Jim Dray'
p779
g39
tp780
asg48
I01
sg49
F17.0
sg50
F80.0
sg51
F0.0
sg52
F0.0
sg53
F0.0
sg54
S'30-0'
p781
sg56
I00
sg57
F53.0
sg58
F0.0
ssg207
(dp782
g5
F39.0
sg6
F2.0
sg7
(lp783
(S'Bruce Gradkowski'
p784
g10
tp785
a(S'Landry Jones'
p786
g10
tp787
a(S'Ben Roethlisberger'
p788
g10
tp789
a(S'Dri Archer'
p790
g17
tp791
a(S"Le'Veon Bell"
p792
g17
tp793
a(S'Will Johnson'
p794
g17
tp795
a(S'Antonio Brown'
p796
g26
tp797
a(S'Martavis Bryant'
p798
g26
tp799
a(S'Darrius Heyward-Bey'
p800
g26
tp801
a(S'Lance Moore'
p802
g26
tp803
a(S'Markus Wheaton'
p804
g26
tp805
a(S'Matt Spaeth'
p806
g39
tp807
a(S'Shaun Suisham'
p808
g46
tp809
asg48
I00
sg49
F27.0
sg50
F350.0
sg51
F2.0
sg52
F3.0
sg53
F2.0
sg54
S'21-42'
p810
sg56
I01
sg57
F184.0
sg58
F0.0
ssg243
(dp811
g5
F38.0
sg6
F0.0
sg7
(lp812
(S'Bruce Gradkowski'
p813
g10
tp814
a(S'Landry Jones'
p815
g10
tp816
a(S'Ben Roethlisberger'
p817
g10
tp818
a(S'Dri Archer'
p819
g17
tp820
a(S"Le'Veon Bell"
p821
g17
tp822
a(S'Will Johnson'
p823
g17
tp824
a(S'Antonio Brown'
p825
g26
tp826
a(S'Martavis Bryant'
p827
g26
tp828
a(S'Darrius Heyward-Bey'
p829
g26
tp830
a(S'Lance Moore'
p831
g26
tp832
a(S'Markus Wheaton'
p833
g26
tp834
a(S'Matt Spaeth'
p835
g39
tp836
a(S'Shaun Suisham'
p837
g46
tp838
asg48
I00
sg49
F13.0
sg50
F317.0
sg51
F2.0
sg52
F2.0
sg53
F2.0
sg54
S'17-27'
p839
sg56
I00
sg57
F22.0
sg58
F0.0
ssg279
(dp840
g5
F0.0
sg6
F1.0
sg7
(lp841
(S'Brock Osweiler'
p842
g10
tp843
a(S'C.J. Anderson'
p844
g17
tp845
a(S'Ronnie Hillman'
p846
g17
tp847
a(S'Juwan Thompson'
p848
g17
tp849
a(S'Andre Caldwell'
p850
g26
tp851
a(S'Cody Latimer'
p852
g26
tp853
a(S'Emmanuel Sanders'
p854
g26
tp855
a(S'Demaryius Thomas'
p856
g26
tp857
a(S'Wes Welker'
p858
g26
tp859
a(S'Virgil Green'
p860
g39
tp861
a(S'Dominique Jones'
p862
g39
tp863
a(S'Jacob Tamme'
p864
g39
tp865
a(S'Julius Thomas'
p866
g39
tp867
a(S'Connor Barth'
p868
g46
tp869
a(S'Brandon McManus'
p870
g46
tp871
asg48
I01
sg49
F19.0
sg50
F0.0
sg51
F1.0
sg52
F0.0
sg53
F0.0
sg54
S'37-28'
p872
sg56
I01
sg57
F85.0
sg58
F0.0
ssg313
(dp873
g5
F62.0
sg6
F1.0
sg7
(lp874
(S'Joe Flacco'
p875
g10
tp876
a(S'Tyrod Taylor'
p877
g10
tp878
a(S'Justin Forsett'
p879
g17
tp880
a(S'Kyle Juszczyk'
p881
g17
tp882
a(S'Bernard Pierce'
p883
g17
tp884
a(S'Lorenzo Taliaferro'
p885
g17
tp886
a(S'Fitzgerald Toussaint'
p887
g17
tp888
a(S'Kamar Aiken'
p889
g26
tp890
a(S'Michael Campanaro'
p891
g26
tp892
a(S'Torrey Smith'
p893
g26
tp894
a(S'Steve Smith'
p895
g26
tp896
a(S'Deonte Thompson'
p897
g26
tp898
a(S'Owen Daniels'
p899
g39
tp900
a(S'Crockett Gillmore'
p901
g39
tp902
a(S'Dennis Pitta'
p903
g39
tp904
a(S'Justin Tucker'
p905
g46
tp906
asg48
I01
sg49
F20.0
sg50
F345.0
sg51
F2.0
sg52
F1.0
sg53
F1.0
sg54
S'23-16'
p907
sg56
I00
sg57
F94.0
sg58
F0.0
ssg353
(dp908
g5
F0.0
sg6
F0.0
sg7
(lp909
(S'Zach Mettenberger'
p910
g10
tp911
a(S'Dexter McCluster'
p912
g17
tp913
a(S'Bishop Sankey'
p914
g17
tp915
a(S'T.J. Graham'
p916
g26
tp917
a(S'Justin Hunter'
p918
g26
tp919
a(S'Nate Washington'
p920
g26
tp921
a(S'Kendall Wright'
p922
g26
tp923
a(S'Craig Stevens'
p924
g39
tp925
a(S'Delanie Walker'
p926
g39
tp927
a(S'Ryan Succop'
p928
g46
tp929
asg48
I01
sg49
F11.0
sg50
F0.0
sg51
F2.0
sg52
F0.0
sg53
F0.0
sg54
S'33-7'
p930
sg56
I01
sg57
F61.0
sg58
F0.0
ssg387
(dp931
g5
F44.0
sg6
F0.0
sg7
(lp932
(S'Sean Renfree'
p933
g10
tp934
a(S'Matt Ryan'
p935
g10
tp936
a(S'T.J. Yates'
p937
g10
tp938
a(S'Patrick DiMarco'
p939
g17
tp940
a(S'Devont Freeman'
p941
g17
tp942
a(S'Steven Jackson'
p943
g17
tp944
a(S'Jacquizz Rodgers'
p945
g17
tp946
a(S'Harry Douglas'
p947
g26
tp948
a(S'Devin Hester'
p949
g26
tp950
a(S'Julio Jones'
p951
g26
tp952
a(S'Eric Weems'
p953
g26
tp954
a(S'Roddy White'
p955
g26
tp956
a(S'Bear Pascoe'
p957
g39
tp958
a(S'Levine Toilolo'
p959
g39
tp960
a(S'Matt Bryant'
p961
g46
tp962
asg48
I01
sg49
F19.0
sg50
F231.0
sg51
F1.0
sg52
F1.0
sg53
F1.0
sg54
S'24-10'
p963
sg56
I01
sg57
F97.0
sg58
F0.0
ssg419
(dp964
g5
F35.0
sg6
F1.0
sg7
(lp965
(S'Tom Brady'
p966
g10
tp967
a(S'Jimmy Garoppolo'
p968
g10
tp969
a(S'Brandon Bolden'
p970
g17
tp971
a(S'James Develin'
p972
g17
tp973
a(S'Stevan Ridley'
p974
g17
tp975
a(S'Shane Vereen'
p976
g17
tp977
a(S'James White'
p978
g17
tp979
a(S'Danny Amendola'
p980
g26
tp981
a(S'Aaron Dobson'
p982
g26
tp983
a(S'Julian Edelman'
p984
g26
tp985
a(S'Brandon LaFell'
p986
g26
tp987
a(S'Matthew Slater'
p988
g26
tp989
a(S'Rob Gronkowski'
p990
g39
tp991
a(S'Michael Hoomanawanui'
p992
g39
tp993
a(S'Timothy Wright'
p994
g39
tp995
a(S'Stephen Gostkowski'
p996
g46
tp997
asg48
I00
sg49
F46.0
sg50
F292.0
sg51
F5.0
sg52
F2.0
sg53
F5.0
sg54
S'17-43'
p998
sg56
I00
sg57
F220.0
sg58
F0.0
ssg455
(dp999
g5
F0.0
sg6
F0.0
sg7
(lp1000
sg48
(lp1001
sg49
F0.0
sg50
F0.0
sg51
F0.0
sg52
F0.0
sg53
F0.0
sg54
(lp1002
sg56
(lp1003
sg57
F0.0
sg58
F0.0
ssg495
(dp1004
g5
F42.0
sg6
F1.0
sg7
(lp1005
(S'Andrew Luck'
p1006
g10
tp1007
a(S'Ahmad Bradshaw'
p1008
g17
tp1009
a(S'Dan Herron'
p1010
g17
tp1011
a(S'Trent Richardson'
p1012
g17
tp1013
a(S'T.Y. Hilton'
p1014
g26
tp1015
a(S'Donte Moncrief'
p1016
g26
tp1017
a(S'Hakeem Nicks'
p1018
g26
tp1019
a(S'Griff Whalen'
p1020
g26
tp1021
a(S'Dwayne Allen'
p1022
g39
tp1023
a(S'Jack Doyle'
p1024
g39
tp1025
a(S'Coby Fleener'
p1026
g39
tp1027
a(S'Adam Vinatieri'
p1028
g46
tp1029
asg48
I00
sg49
F34.0
sg50
F344.0
sg51
F2.0
sg52
F2.0
sg53
F2.0
sg54
S'0-27'
p1030
sg56
I00
sg57
F171.0
sg58
F0.0
ssg501
(dp1031
g5
F46.0
sg6
F2.0
sg7
(lp1032
(S'Derek Anderson'
p1033
g10
tp1034
a(S'Cam Newton'
p1035
g10
tp1036
a(S'Joe Webb'
p1037
g10
tp1038
a(S'Darrin Reaves'
p1039
g17
tp1040
a(S'Jonathan Stewart'
p1041
g17
tp1042
a(S'Fozzy Whittaker'
p1043
g17
tp1044
a(S'DeAngelo Williams'
p1045
g17
tp1046
a(S'Jason Avant'
p1047
g26
tp1048
a(S'Kelvin Benjamin'
p1049
g26
tp1050
a(S'Brenton Bersin'
p1051
g26
tp1052
a(S'Corey Brown'
p1053
g26
tp1054
a(S'Jerricho Cotchery'
p1055
g26
tp1056
a(S'Ed Dickson'
p1057
g39
tp1058
a(S'Greg Olsen'
p1059
g39
tp1060
a(S'Brandon Williams'
p1061
g39
tp1062
a(S'Graham Gano'
p1063
g46
tp1064
asg48
I00
sg49
F34.0
sg50
F284.0
sg51
F4.0
sg52
F2.0
sg53
F3.0
sg54
S'37-37'
p1065
sg56
I01
sg57
F147.0
sg58
F0.0
ssg541
(dp1066
g5
F33.0
sg6
F1.0
sg7
(lp1067
(S'Blake Bortles'
p1068
g10
tp1069
a(S'Chad Henne'
p1070
g10
tp1071
a(S'Toby Gerhart'
p1072
g17
tp1073
a(S'Storm Johnson'
p1074
g17
tp1075
a(S'Denard Robinson'
p1076
g17
tp1077
a(S'Jordan Todman'
p1078
g17
tp1079
a(S'Allen Hurns'
p1080
g26
tp1081
a(S'Marqise Lee'
p1082
g26
tp1083
a(S'Allen Robinson'
p1084
g26
tp1085
a(S'Cecil Shorts'
p1086
g26
tp1087
a(S'Clay Harbor'
p1088
g39
tp1089
a(S'Nic Jacobs'
p1090
g39
tp1091
a(S'Josh Scobee'
p1092
g46
tp1093
asg48
I01
sg49
F25.0
sg50
F247.0
sg51
F1.0
sg52
F2.0
sg53
F1.0
sg54
S'33-23'
p1094
sg56
I01
sg57
F132.0
sg58
F0.0
ssg579
(dp1095
g5
F34.0
sg6
F2.0
sg7
(lp1096
(S'Joe Flacco'
p1097
g10
tp1098
a(S'Tyrod Taylor'
p1099
g10
tp1100
a(S'Justin Forsett'
p1101
g17
tp1102
a(S'Kyle Juszczyk'
p1103
g17
tp1104
a(S'Bernard Pierce'
p1105
g17
tp1106
a(S'Lorenzo Taliaferro'
p1107
g17
tp1108
a(S'Kamar Aiken'
p1109
g26
tp1110
a(S'Michael Campanaro'
p1111
g26
tp1112
a(S'Torrey Smith'
p1113
g26
tp1114
a(S'Steve Smith'
p1115
g26
tp1116
a(S'Owen Daniels'
p1117
g39
tp1118
a(S'Crockett Gillmore'
p1119
g39
tp1120
a(S'Phillip Supernaw'
p1121
g39
tp1122
a(S'Justin Tucker'
p1123
g46
tp1124
asg48
I01
sg49
F26.0
sg50
F195.0
sg51
F3.0
sg52
F0.0
sg53
F3.0
sg54
S'27-24'
p1125
sg56
I01
sg57
F107.0
sg58
F0.0
sssS'2011'
p1126
(dp1127
g3
(dp1128
g5
F27.0
sg6
F0.0
sg7
(lp1129
(S'Joe Flacco'
p1130
g10
tp1131
a(S'Tyrod Taylor'
p1132
g10
tp1133
a(S'Anquan Boldin'
p1134
g26
tp1135
a(S'Torrey Smith'
p1136
g26
tp1137
a(S'Ed Dickson'
p1138
g39
tp1139
a(S'Dennis Pitta'
p1140
g39
tp1141
asg48
I00
sg49
F3.0
sg50
F270.0
sg51
F0.0
sg52
F2.0
sg53
F0.0
sg54
S'24-31'
p1142
sg56
I00
sg57
F-2.0
sg58
F0.0
ssg59
(dp1143
g5
F33.0
sg6
F0.0
sg7
(lp1144
(S'Ben Roethlisberger'
p1145
g10
tp1146
a(S'Antonio Brown'
p1147
g26
tp1148
a(S'Jerricho Cotchery'
p1149
g26
tp1150
a(S'Emmanuel Sanders'
p1151
g26
tp1152
a(S'Mike Wallace'
p1153
g26
tp1154
a(S'David Johnson'
p1155
g39
tp1156
a(S'Shaun Suisham'
p1157
g46
tp1158
asg48
I00
sg49
F5.0
sg50
F245.0
sg51
F1.0
sg52
F1.0
sg53
F1.0
sg54
S'17-24'
p1159
sg56
I01
sg57
F29.0
sg58
F0.0
ssg93
(dp1160
g5
F23.0
sg6
F0.0
sg7
(lp1161
(S'Ben Roethlisberger'
p1162
g10
tp1163
a(S'Antonio Brown'
p1164
g26
tp1165
a(S'Jerricho Cotchery'
p1166
g26
tp1167
a(S'Emmanuel Sanders'
p1168
g26
tp1169
a(S'Mike Wallace'
p1170
g26
tp1171
a(S'David Johnson'
p1172
g39
tp1173
a(S'Shaun Suisham'
p1174
g46
tp1175
asg48
I00
sg49
F2.0
sg50
F176.0
sg51
F1.0
sg52
F2.0
sg53
F0.0
sg54
S'7-35'
p1176
sg56
I00
sg57
F6.0
sg58
F0.0
ssg133
(dp1177
g5
F34.0
sg6
F0.0
sg7
(lp1178
(S'Thad Lewis'
p1179
g10
tp1180
a(S'Colt McCoy'
p1181
g10
tp1182
a(S'Greg Little'
p1183
g26
tp1184
a(S'Jordan Norwood'
p1185
g26
tp1186
a(S'Jordan Cameron'
p1187
g39
tp1188
a(S'Alex Smith'
p1189
g39
tp1190
a(S'Benjamin Watson'
p1191
g39
tp1192
a(S'Phil Dawson'
p1193
g46
tp1194
asg48
I01
sg49
F7.0
sg50
F151.0
sg51
F3.0
sg52
F2.0
sg53
F2.0
sg54
S'23-20'
p1195
sg56
I01
sg57
F51.0
sg58
F0.0
ssg169
(dp1196
g5
F36.0
sg6
F0.0
sg7
(lp1197
(S'Sam Bradford'
p1198
g10
tp1199
a(S'Kellen Clemens'
p1200
g10
tp1201
a(S'Steven Jackson'
p1202
g17
tp1203
a(S'Brandon Gibson'
p1204
g26
tp1205
a(S'Lance Kendricks'
p1206
g39
tp1207
a(S'Josh Brown'
p1208
g46
tp1209
asg48
I01
sg49
F20.0
sg50
F229.0
sg51
F3.0
sg52
F1.0
sg53
F2.0
sg54
S'20-13'
p1210
sg56
I00
sg57
F80.0
sg58
F0.0
ssg207
(dp1211
g5
F44.0
sg6
F0.0
sg7
(lp1212
(S'T.J. Yates'
p1213
g10
tp1214
a(S'Arian Foster'
p1215
g17
tp1216
a(S'Andre Johnson'
p1217
g26
tp1218
a(S'Owen Daniels'
p1219
g39
tp1220
a(S'Garrett Graham'
p1221
g39
tp1222
asg48
I00
sg49
F20.0
sg50
F300.0
sg51
F0.0
sg52
F2.0
sg53
F0.0
sg54
S'19-20'
p1223
sg56
I01
sg57
F77.0
sg58
F0.0
ssg243
(dp1224
g5
F19.0
sg6
F0.0
sg7
(lp1225
(S'Joe Flacco'
p1226
g10
tp1227
a(S'Tyrod Taylor'
p1228
g10
tp1229
a(S'Anquan Boldin'
p1230
g26
tp1231
a(S'Torrey Smith'
p1232
g26
tp1233
a(S'Ed Dickson'
p1234
g39
tp1235
a(S'Dennis Pitta'
p1236
g39
tp1237
a(S'Shayne Graham'
p1238
g46
tp1239
asg48
I00
sg49
F1.0
sg50
F130.0
sg51
F0.0
sg52
F1.0
sg53
F0.0
sg54
S'16-24'
p1240
sg56
I01
sg57
F1.0
sg58
F0.0
ssg279
(dp1241
g5
F0.0
sg6
F0.0
sg7
(lp1242
(S'Anthony Sherman'
p1243
g17
tp1244
a(S'Larry Fitzgerald'
p1245
g26
tp1246
a(S'Andre Roberts'
p1247
g26
tp1248
a(S'Jim Dray'
p1249
g39
tp1250
a(S'Rob Housler'
p1251
g39
tp1252
asg48
I01
sg49
F0.0
sg50
F0.0
sg51
F0.0
sg52
F0.0
sg53
F0.0
sg54
S'23-16'
p1253
sg56
I01
sg57
F0.0
sg58
F0.0
ssg313
(dp1254
g5
F40.0
sg6
F0.0
sg7
(lp1255
(S'Thad Lewis'
p1256
g10
tp1257
a(S'Colt McCoy'
p1258
g10
tp1259
a(S'Greg Little'
p1260
g26
tp1261
a(S'Jordan Norwood'
p1262
g26
tp1263
a(S'Jordan Cameron'
p1264
g39
tp1265
a(S'Alex Smith'
p1266
g39
tp1267
a(S'Benjamin Watson'
p1268
g39
tp1269
a(S'Phil Dawson'
p1270
g46
tp1271
asg48
I01
sg49
F3.0
sg50
F213.0
sg51
F1.0
sg52
F2.0
sg53
F1.0
sg54
S'27-17'
p1272
sg56
I00
sg57
F11.0
sg58
F0.0
ssg353
(dp1273
g5
F30.0
sg6
F1.0
sg7
(lp1274
(S'Colin Kaepernick'
p1275
g10
tp1276
a(S'Alex Smith'
p1277
g10
tp1278
a(S'Scott Tolzien'
p1279
g10
tp1280
a(S'Anthony Dixon'
p1281
g17
tp1282
a(S'Frank Gore'
p1283
g17
tp1284
a(S'Kendall Hunter'
p1285
g17
tp1286
a(S'Bruce Miller'
p1287
g17
tp1288
a(S'Will Tukuafu'
p1289
g17
tp1290
a(S'Michael Crabtree'
p1291
g26
tp1292
a(S'Ted Ginn'
p1293
g26
tp1294
a(S'Kyle Williams'
p1295
g26
tp1296
a(S'Vernon Davis'
p1297
g39
tp1298
a(S'Delanie Walker'
p1299
g39
tp1300
asg48
I00
sg49
F28.0
sg50
F201.0
sg51
F0.0
sg52
F0.0
sg53
F0.0
sg54
S'8-13'
p1301
sg56
I01
sg57
F68.0
sg58
F0.0
ssg387
(dp1302
g5
F0.0
sg6
F0.0
sg7
(lp1303
(S'Eric Decker'
p1304
g26
tp1305
a(S'Eddie Royal'
p1306
g26
tp1307
a(S'Demaryius Thomas'
p1308
g26
tp1309
a(S'Daniel Fells'
p1310
g39
tp1311
a(S'Virgil Green'
p1312
g39
tp1313
a(S'Julius Thomas'
p1314
g39
tp1315
a(S'Matt Prater'
p1316
g46
tp1317
asg48
I00
sg49
F0.0
sg50
F0.0
sg51
F1.0
sg52
F0.0
sg53
F1.0
sg54
S'22-24'
p1318
sg56
I00
sg57
F0.0
sg58
F0.0
ssg419
(dp1319
g5
F28.0
sg6
F0.0
sg7
(lp1320
(S'Blaine Gabbert'
p1321
g10
tp1322
a(S'Luke McCown'
p1323
g10
tp1324
a(S'Cecil Shorts'
p1325
g26
tp1326
a(S'Marcedes Lewis'
p1327
g39
tp1328
a(S'Zach Miller'
p1329
g39
tp1330
a(S'Josh Scobee'
p1331
g46
tp1332
asg48
I01
sg49
F5.0
sg50
F221.0
sg51
F2.0
sg52
F1.0
sg53
F2.0
sg54
S'30-20'
p1333
sg56
I00
sg57
F11.0
sg58
F0.0
ssg455
(dp1334
g5
F34.0
sg6
F1.0
sg7
(lp1335
(S'Ryan Fitzpatrick'
p1336
g10
tp1337
a(S'Fred Jackson'
p1338
g17
tp1339
a(S'C.J. Spiller'
p1340
g17
tp1341
a(S'Steve Johnson'
p1342
g26
tp1343
a(S'Scott Chandler'
p1344
g39
tp1345
a(S'Lee Smith'
p1346
g39
tp1347
asg48
I01
sg49
F21.0
sg50
F199.0
sg51
F0.0
sg52
F0.0
sg53
F0.0
sg54
S'23-20'
p1348
sg56
I01
sg57
F83.0
sg58
F0.0
ssg495
(dp1349
g5
F0.0
sg6
F0.0
sg7
(lp1350
sg48
(lp1351
sg49
F0.0
sg50
F0.0
sg51
F0.0
sg52
F0.0
sg53
F0.0
sg54
(lp1352
sg56
(lp1353
sg57
F0.0
sg58
F0.0
ssg501
(dp1354
g5
F0.0
sg6
F1.0
sg7
(lp1355
(S'Dan Orlovsky'
p1356
g10
tp1357
a(S'Donald Brown'
p1358
g17
tp1359
a(S'Pierre Garcon'
p1360
g26
tp1361
a(S'Jacob Tamme'
p1362
g39
tp1363
a(S'Adam Vinatieri'
p1364
g46
tp1365
asg48
I01
sg49
F5.0
sg50
F0.0
sg51
F2.0
sg52
F0.0
sg53
F1.0
sg54
S'27-17'
p1366
sg56
I01
sg57
F35.0
sg58
F1.0
ssg541
(dp1367
g5
F0.0
sg6
F0.0
sg7
(lp1368
(S'Chris Johnson'
p1369
g17
tp1370
a(S'Marc Mariani'
p1371
g26
tp1372
a(S'Nate Washington'
p1373
g26
tp1374
a(S'Jared Cook'
p1375
g39
tp1376
a(S'Craig Stevens'
p1377
g39
tp1378
asg48
I01
sg49
F14.0
sg50
F0.0
sg51
F0.0
sg52
F0.0
sg53
F0.0
sg54
S'24-17'
p1379
sg56
I00
sg57
F64.0
sg58
F0.0
ssg579
(dp1380
g5
F40.0
sg6
F0.0
sg7
(lp1381
(S'Tarvaris Jackson'
p1382
g10
tp1383
a(S'Justin Forsett'
p1384
g17
tp1385
a(S'Doug Baldwin'
p1386
g26
tp1387
a(S'Golden Tate'
p1388
g26
tp1389
a(S'Anthony McCoy'
p1390
g39
tp1391
a(S'Steven Hauschka'
p1392
g46
tp1393
asg48
I01
sg49
F1.0
sg50
F323.0
sg51
F2.0
sg52
F0.0
sg53
F2.0
sg54
S'34-12'
p1394
sg56
I00
sg57
F2.0
sg58
F0.0
sssS'2010'
p1395
(dp1396
g3
(dp1397
g5
F34.0
sg6
F2.0
sg7
(lp1398
(S'Ryan Fitzpatrick'
p1399
g10
tp1400
a(S'Fred Jackson'
p1401
g17
tp1402
a(S'C.J. Spiller'
p1403
g17
tp1404
a(S'Steve Johnson'
p1405
g26
tp1406
asg48
I00
sg49
F22.0
sg50
F316.0
sg51
F0.0
sg52
F4.0
sg53
F0.0
sg54
S'31-49'
p1407
sg56
I01
sg57
F127.0
sg58
F0.0
ssg59
(dp1408
g5
F0.0
sg6
F0.0
sg7
(lp1409
(S'Donald Brown'
p1410
g17
tp1411
a(S'Pierre Garcon'
p1412
g26
tp1413
a(S'Jacob Tamme'
p1414
g39
tp1415
a(S'Adam Vinatieri'
p1416
g46
tp1417
asg48
I00
sg49
F12.0
sg50
F0.0
sg51
F3.0
sg52
F0.0
sg53
F3.0
sg54
S'17-23'
p1418
sg56
I00
sg57
F50.0
sg58
F0.0
ssg93
(dp1419
g5
F29.0
sg6
F2.0
sg7
(lp1420
(S'Drew Brees'
p1421
g10
tp1422
a(S'Chase Daniel'
p1423
g10
tp1424
a(S'Reggie Bush'
p1425
g17
tp1426
a(S'Chris Ivory'
p1427
g17
tp1428
a(S'Pierre Thomas'
p1429
g17
tp1430
a(S'Marques Colston'
p1431
g26
tp1432
a(S'Lance Moore'
p1433
g26
tp1434
a(S'Jimmy Graham'
p1435
g39
tp1436
asg48
I00
sg49
F20.0
sg50
F313.0
sg51
F0.0
sg52
F2.0
sg53
F0.0
sg54
S'30-34'
p1437
sg56
I01
sg57
F143.0
sg58
F0.0
ssg133
(dp1438
g5
F28.0
sg6
F0.0
sg7
(lp1439
(S'Kellen Clemens'
p1440
g10
tp1441
a(S'Mark Sanchez'
p1442
g10
tp1443
a(S'Jerricho Cotchery'
p1444
g26
tp1445
a(S'Jeff Cumberland'
p1446
g39
tp1447
a(S'Matthew Mulligan'
p1448
g39
tp1449
a(S'Nick Folk'
p1450
g46
tp1451
asg48
I00
sg49
F3.0
sg50
F166.0
sg51
F2.0
sg52
F1.0
sg53
F1.0
sg54
S'10-26'
p1452
sg56
I00
sg57
F-4.0
sg58
F0.0
ssg169
(dp1453
g5
F25.0
sg6
F0.0
sg7
(lp1454
(S'Colt McCoy'
p1455
g10
tp1456
a(S'Jordan Norwood'
p1457
g26
tp1458
a(S'Alex Smith'
p1459
g39
tp1460
a(S'Benjamin Watson'
p1461
g39
tp1462
a(S'Phil Dawson'
p1463
g46
tp1464
asg48
I01
sg49
F0.0
sg50
F243.0
sg51
F1.0
sg52
F2.0
sg53
F1.0
sg54
S'19-17'
p1465
sg56
I01
sg57
F0.0
sg58
F0.0
ssg207
(dp1466
g5
F33.0
sg6
F0.0
sg7
(lp1467
(S'Ben Roethlisberger'
p1468
g10
tp1469
a(S'Antonio Brown'
p1470
g26
tp1471
a(S'Emmanuel Sanders'
p1472
g26
tp1473
a(S'Mike Wallace'
p1474
g26
tp1475
a(S'David Johnson'
p1476
g39
tp1477
a(S'Matt Spaeth'
p1478
g39
tp1479
a(S'Shaun Suisham'
p1480
g46
tp1481
asg48
I00
sg49
F4.0
sg50
F258.0
sg51
F3.0
sg52
F0.0
sg53
F3.0
sg54
S'7-23'
p1482
sg56
I00
sg57
F35.0
sg58
F0.0
ssg243
(dp1483
g5
F19.0
sg6
F0.0
sg7
(lp1484
(S'Joe Flacco'
p1485
g10
tp1486
a(S'Anquan Boldin'
p1487
g26
tp1488
a(S'Ed Dickson'
p1489
g39
tp1490
a(S'Dennis Pitta'
p1491
g39
tp1492
asg48
I00
sg49
F3.0
sg50
F125.0
sg51
F0.0
sg52
F0.0
sg53
F0.0
sg54
S'7-13'
p1493
sg56
I00
sg57
F1.0
sg58
F0.0
ssg279
(dp1494
g5
F40.0
sg6
F1.0
sg7
(lp1495
(S'Philip Rivers'
p1496
g10
tp1497
a(S'Ryan Mathews'
p1498
g17
tp1499
a(S'Darren Sproles'
p1500
g17
tp1501
a(S'Mike Tolbert'
p1502
g17
tp1503
a(S'Seyi Ajirotutu'
p1504
g26
tp1505
a(S'Malcom Floyd'
p1506
g26
tp1507
a(S'Antonio Gates'
p1508
g39
tp1509
asg48
I01
sg49
F20.0
sg50
F256.0
sg51
F0.0
sg52
F1.0
sg53
F0.0
sg54
S'34-20'
p1510
sg56
I01
sg57
F63.0
sg58
F0.0
ssg313
(dp1511
g5
F35.0
sg6
F0.0
sg7
(lp1512
(S'Tom Brady'
p1513
g10
tp1514
a(S'Brian Hoyer'
p1515
g10
tp1516
a(S'Julian Edelman'
p1517
g26
tp1518
a(S'Matthew Slater'
p1519
g26
tp1520
a(S'Brandon Tate'
p1521
g26
tp1522
a(S'Wes Welker'
p1523
g26
tp1524
a(S'Rob Gronkowski'
p1525
g39
tp1526
a(S'Stephen Gostkowski'
p1527
g46
tp1528
asg48
I00
sg49
F0.0
sg50
F258.0
sg51
F3.0
sg52
F3.0
sg53
F1.0
sg54
S'24-38'
p1529
sg56
I00
sg57
F0.0
sg58
F0.0
ssg353
(dp1530
g5
F33.0
sg6
F1.0
sg7
(lp1531
(S'Jimmy Clausen'
p1532
g10
tp1533
a(S'Matt Moore'
p1534
g10
tp1535
a(S'Jonathan Stewart'
p1536
g17
tp1537
a(S'DeAngelo Williams'
p1538
g17
tp1539
a(S'Brandon LaFell'
p1540
g26
tp1541
a(S'Steve Smith'
p1542
g26
tp1543
a(S'Gary Barnidge'
p1544
g39
tp1545
asg48
I01
sg49
F24.0
sg50
F188.0
sg51
F0.0
sg52
F0.0
sg53
F0.0
sg54
S'20-7'
p1546
sg56
I00
sg57
F87.0
sg58
F0.0
ssg387
(dp1547
g5
F39.0
sg6
F0.0
sg7
(lp1548
(S'Joe Flacco'
p1549
g10
tp1550
a(S'Anquan Boldin'
p1551
g26
tp1552
a(S'Ed Dickson'
p1553
g39
tp1554
a(S'Dennis Pitta'
p1555
g39
tp1556
asg48
I01
sg49
F3.0
sg50
F154.0
sg51
F0.0
sg52
F1.0
sg53
F0.0
sg54
S'15-10'
p1557
sg56
I01
sg57
F9.0
sg58
F0.0
ssg419
(dp1558
g5
F35.0
sg6
F0.0
sg7
(lp1559
(S'Josh Freeman'
p1560
g10
tp1561
a(S'Josh Johnson'
p1562
g10
tp1563
a(S'LeGarrette Blount'
p1564
g17
tp1565
a(S'Arrelious Benn'
p1566
g26
tp1567
a(S'Mike Williams'
p1568
g26
tp1569
a(S'Connor Barth'
p1570
g46
tp1571
asg48
I00
sg49
F7.0
sg50
F284.0
sg51
F1.0
sg52
F1.0
sg53
F1.0
sg54
S'21-24'
p1572
sg56
I01
sg57
F23.0
sg58
F0.0
ssg455
(dp1573
g5
F0.0
sg6
F0.0
sg7
(lp1574
(S'Colt McCoy'
p1575
g10
tp1576
a(S'Alex Smith'
p1577
g39
tp1578
a(S'Benjamin Watson'
p1579
g39
tp1580
a(S'Phil Dawson'
p1581
g46
tp1582
asg48
I00
sg49
F0.0
sg50
F0.0
sg51
F3.0
sg52
F0.0
sg53
F3.0
sg54
S'20-23'
p1583
sg56
I00
sg57
F0.0
sg58
F0.0
ssg495
(dp1584
g5
F33.0
sg6
F0.0
sg7
(lp1585
(S'Matt Ryan'
p1586
g10
tp1587
a(S'Harry Douglas'
p1588
g26
tp1589
a(S'Eric Weems'
p1590
g26
tp1591
a(S'Roddy White'
p1592
g26
tp1593
a(S'Matt Bryant'
p1594
g46
tp1595
asg48
I00
sg49
F1.0
sg50
F299.0
sg51
F1.0
sg52
F3.0
sg53
F1.0
sg54
S'32-39'
p1596
sg56
I00
sg57
F5.0
sg58
F0.0
ssg501
(dp1597
g5
F0.0
sg6
F0.0
sg7
(lp1598
sg48
(lp1599
sg49
F0.0
sg50
F0.0
sg51
F0.0
sg52
F0.0
sg53
F0.0
sg54
(lp1600
sg56
(lp1601
sg57
F0.0
sg58
F0.0
ssg541
(dp1602
g5
F27.0
sg6
F0.0
sg7
(lp1603
(S'Ben Roethlisberger'
p1604
g10
tp1605
a(S'Antonio Brown'
p1606
g26
tp1607
a(S'Emmanuel Sanders'
p1608
g26
tp1609
a(S'Mike Wallace'
p1610
g26
tp1611
a(S'David Johnson'
p1612
g39
tp1613
a(S'Matt Spaeth'
p1614
g39
tp1615
asg48
I00
sg49
F5.0
sg50
F163.0
sg51
F0.0
sg52
F1.0
sg53
F0.0
sg54
S'21-27'
p1616
sg56
I01
sg57
F13.0
sg58
F0.0
ssg579
(dp1617
g5
F37.0
sg6
F0.0
sg7
(lp1618
(S'Chad Henne'
p1619
g10
tp1620
a(S'Brian Hartline'
p1621
g26
tp1622
a(S'Brandon Marshall'
p1623
g26
tp1624
a(S'Marlon Moore'
p1625
g26
tp1626
a(S'Anthony Fasano'
p1627
g39
tp1628
a(S'Dan Carpenter'
p1629
g46
tp1630
asg48
I00
sg49
F4.0
sg50
F217.0
sg51
F5.0
sg52
F0.0
sg53
F5.0
sg54
S'14-22'
p1631
sg56
I01
sg57
F23.0
sg58
F0.0
sssS'2013'
p1632
(dp1633
g3
(dp1634
g5
F0.0
sg6
F0.0
sg7
(lp1635
(S'Brandon Weeden'
p1636
g10
tp1637
a(S'Fozzy Whittaker'
p1638
g17
tp1639
a(S'Josh Gordon'
p1640
g26
tp1641
a(S'Greg Little'
p1642
g26
tp1643
a(S'Brian Tyms'
p1644
g26
tp1645
a(S'Gary Barnidge'
p1646
g39
tp1647
a(S'Jordan Cameron'
p1648
g39
tp1649
a(S'MarQueis Gray'
p1650
g39
tp1651
asg48
I01
sg49
F4.0
sg50
F0.0
sg51
F0.0
sg52
F0.0
sg53
F0.0
sg54
S'41-20'
p1652
sg56
I01
sg57
F20.0
sg58
F0.0
ssg59
(dp1653
g5
F36.0
sg6
F0.0
sg7
(lp1654
(S'Joe Flacco'
p1655
g10
tp1656
a(S'Tyrod Taylor'
p1657
g10
tp1658
a(S'Kyle Juszczyk'
p1659
g17
tp1660
a(S'Bernard Pierce'
p1661
g17
tp1662
a(S'Torrey Smith'
p1663
g26
tp1664
a(S'Deonte Thompson'
p1665
g26
tp1666
a(S'Ed Dickson'
p1667
g39
tp1668
a(S'Justin Tucker'
p1669
g46
tp1670
asg48
I00
sg49
F10.0
sg50
F140.0
sg51
F2.0
sg52
F2.0
sg53
F2.0
sg54
S'17-20'
p1671
sg56
I00
sg57
F53.0
sg58
F0.0
ssg93
(dp1672
g5
F37.0
sg6
F0.0
sg7
(lp1673
(S'Philip Rivers'
p1674
g10
tp1675
a(S'Ryan Mathews'
p1676
g17
tp1677
a(S'Danny Woodhead'
p1678
g17
tp1679
a(S'Seyi Ajirotutu'
p1680
g26
tp1681
a(S'Keenan Allen'
p1682
g26
tp1683
a(S'Vincent Brown'
p1684
g26
tp1685
a(S'Eddie Royal'
p1686
g26
tp1687
a(S'Antonio Gates'
p1688
g39
tp1689
a(S'Ladarius Green'
p1690
g39
tp1691
a(S'John Phillips'
p1692
g39
tp1693
a(S'Nick Novak'
p1694
g46
tp1695
asg48
I01
sg49
F22.0
sg50
F252.0
sg51
F1.0
sg52
F1.0
sg53
F1.0
sg54
S'17-10'
p1696
sg56
I00
sg57
F87.0
sg58
F0.0
ssg133
(dp1697
g5
F0.0
sg6
F0.0
sg7
(lp1698
sg48
(lp1699
sg49
F0.0
sg50
F0.0
sg51
F0.0
sg52
F0.0
sg53
F0.0
sg54
(lp1700
sg56
(lp1701
sg57
F0.0
sg58
F0.0
ssg169
(dp1702
g5
F25.0
sg6
F1.0
sg7
(lp1703
(S'Bruce Gradkowski'
p1704
g10
tp1705
a(S'Landry Jones'
p1706
g10
tp1707
a(S'Ben Roethlisberger'
p1708
g10
tp1709
a(S"Le'Veon Bell"
p1710
g17
tp1711
a(S'Will Johnson'
p1712
g17
tp1713
a(S'Antonio Brown'
p1714
g26
tp1715
a(S'Jerricho Cotchery'
p1716
g26
tp1717
a(S'Emmanuel Sanders'
p1718
g26
tp1719
a(S'Markus Wheaton'
p1720
g26
tp1721
a(S'Matt Spaeth'
p1722
g39
tp1723
a(S'Shaun Suisham'
p1724
g46
tp1725
asg48
I00
sg49
F25.0
sg50
F191.0
sg51
F3.0
sg52
F1.0
sg53
F3.0
sg54
S'20-30'
p1726
sg56
I00
sg57
F58.0
sg58
F0.0
ssg207
(dp1727
g5
F46.0
sg6
F0.0
sg7
(lp1728
(S'Andrew Luck'
p1729
g10
tp1730
a(S'Donald Brown'
p1731
g17
tp1732
a(S'Trent Richardson'
p1733
g17
tp1734
a(S'Darrius Heyward-Bey'
p1735
g26
tp1736
a(S'T.Y. Hilton'
p1737
g26
tp1738
a(S'Jack Doyle'
p1739
g39
tp1740
a(S'Coby Fleener'
p1741
g39
tp1742
a(S'Adam Vinatieri'
p1743
g46
tp1744
asg48
I01
sg49
F12.0
sg50
F326.0
sg51
F1.0
sg52
F4.0
sg53
F0.0
sg54
S'42-28'
p1745
sg56
I01
sg57
F63.0
sg58
F0.0
ssg243
(dp1746
g5
F50.0
sg6
F0.0
sg7
(lp1747
(S'Joe Flacco'
p1748
g10
tp1749
a(S'Tyrod Taylor'
p1750
g10
tp1751
a(S'Kyle Juszczyk'
p1752
g17
tp1753
a(S'Bernard Pierce'
p1754
g17
tp1755
a(S'Torrey Smith'
p1756
g26
tp1757
a(S'Deonte Thompson'
p1758
g26
tp1759
a(S'Ed Dickson'
p1760
g39
tp1761
a(S'Dennis Pitta'
p1762
g39
tp1763
a(S'Justin Tucker'
p1764
g46
tp1765
asg48
I01
sg49
F6.0
sg50
F192.0
sg51
F3.0
sg52
F1.0
sg53
F3.0
sg54
S'34-17'
p1766
sg56
I01
sg57
F29.0
sg58
F0.0
ssg279
(dp1767
g5
F27.0
sg6
F1.0
sg7
(lp1768
(S'Matt Cassel'
p1769
g10
tp1770
a(S'Josh Freeman'
p1771
g10
tp1772
a(S'Joe Webb'
p1773
g10
tp1774
a(S'Matt Asiata'
p1775
g17
tp1776
a(S'Joe Banyard'
p1777
g17
tp1778
a(S'Jerome Felton'
p1779
g17
tp1780
a(S'Toby Gerhart'
p1781
g17
tp1782
a(S'Adrian Peterson'
p1783
g17
tp1784
a(S'Greg Jennings'
p1785
g26
tp1786
a(S'Cordarrelle Patterson'
p1787
g26
tp1788
a(S'Jerome Simpson'
p1789
g26
tp1790
a(S'Rodney Smith'
p1791
g26
tp1792
a(S'Jarius Wright'
p1793
g26
tp1794
a(S'Rhett Ellison'
p1795
g39
tp1796
a(S'Blair Walsh'
p1797
g46
tp1798
asg48
I01
sg49
F17.0
sg50
F114.0
sg51
F0.0
sg52
F1.0
sg53
F0.0
sg54
S'42-14'
p1799
sg56
I01
sg57
F115.0
sg58
F0.0
ssg313
(dp1800
g5
F33.0
sg6
F1.0
sg7
(lp1801
(S'Jay Cutler'
p1802
g10
tp1803
a(S'Josh McCown'
p1804
g10
tp1805
a(S'Matt Forte'
p1806
g17
tp1807
a(S'Devin Hester'
p1808
g26
tp1809
a(S'Alshon Jeffery'
p1810
g26
tp1811
a(S'Brandon Marshall'
p1812
g26
tp1813
a(S'Eric Weems'
p1814
g26
tp1815
a(S'Marquess Wilson'
p1816
g26
tp1817
a(S'Martellus Bennett'
p1818
g39
tp1819
a(S'Robbie Gould'
p1820
g46
tp1821
asg48
I00
sg49
F22.0
sg50
F242.0
sg51
F1.0
sg52
F2.0
sg53
F1.0
sg54
S'21-24'
p1822
sg56
I00
sg57
F66.0
sg58
F0.0
ssg353
(dp1823
g5
F43.0
sg6
F0.0
sg7
(lp1824
(S'Aaron Rodgers'
p1825
g10
tp1826
a(S'John Kuhn'
p1827
g17
tp1828
a(S'Eddie Lacy'
p1829
g17
tp1830
a(S'James Starks'
p1831
g17
tp1832
a(S'Jarrett Boykin'
p1833
g26
tp1834
a(S'Randall Cobb'
p1835
g26
tp1836
a(S'James Jones'
p1837
g26
tp1838
a(S'Jordy Nelson'
p1839
g26
tp1840
a(S'Jeremy Ross'
p1841
g26
tp1842
a(S'Brandon Bostick'
p1843
g39
tp1844
a(S'Andrew Quarless'
p1845
g39
tp1846
a(S'Mason Crosby'
p1847
g46
tp1848
asg48
I01
sg49
F17.0
sg50
F244.0
sg51
F3.0
sg52
F1.0
sg53
F3.0
sg54
S'34-30'
p1849
sg56
I01
sg57
F79.0
sg58
F0.0
ssg387
(dp1850
g5
F37.0
sg6
F0.0
sg7
(lp1851
(S'Bruce Gradkowski'
p1852
g10
tp1853
a(S'Landry Jones'
p1854
g10
tp1855
a(S'Ben Roethlisberger'
p1856
g10
tp1857
a(S"Le'Veon Bell"
p1858
g17
tp1859
a(S'Will Johnson'
p1860
g17
tp1861
a(S'Antonio Brown'
p1862
g26
tp1863
a(S'Jerricho Cotchery'
p1864
g26
tp1865
a(S'Emmanuel Sanders'
p1866
g26
tp1867
a(S'Markus Wheaton'
p1868
g26
tp1869
a(S'David Johnson'
p1870
g39
tp1871
a(S'Shayne Graham'
p1872
g46
tp1873
a(S'Shaun Suisham'
p1874
g46
tp1875
asg48
I01
sg49
F2.0
sg50
F251.0
sg51
F1.0
sg52
F1.0
sg53
F1.0
sg54
S'20-10'
p1876
sg56
I01
sg57
F1.0
sg58
F0.0
ssg419
(dp1877
g5
F38.0
sg6
F0.0
sg7
(lp1878
(S'Tom Brady'
p1879
g10
tp1880
a(S'Ryan Mallett'
p1881
g10
tp1882
a(S'LeGarrette Blount'
p1883
g17
tp1884
a(S'Brandon Bolden'
p1885
g17
tp1886
a(S'James Develin'
p1887
g17
tp1888
a(S'Stevan Ridley'
p1889
g17
tp1890
a(S'Danny Amendola'
p1891
g26
tp1892
a(S'Josh Boyce'
p1893
g26
tp1894
a(S'Aaron Dobson'
p1895
g26
tp1896
a(S'Julian Edelman'
p1897
g26
tp1898
a(S'Matthew Slater'
p1899
g26
tp1900
a(S'Kenbrell Thompkins'
p1901
g26
tp1902
a(S'Rob Gronkowski'
p1903
g39
tp1904
a(S'Michael Hoomanawanui'
p1905
g39
tp1906
a(S'Matthew Mulligan'
p1907
g39
tp1908
a(S'Stephen Gostkowski'
p1909
g46
tp1910
asg48
I01
sg49
F18.0
sg50
F197.0
sg51
F2.0
sg52
F0.0
sg53
F2.0
sg54
S'13-6'
p1911
sg56
I01
sg57
F82.0
sg58
F0.0
ssg455
(dp1912
g5
F38.0
sg6
F0.0
sg7
(lp1913
(S'Brian Hoyer'
p1914
g10
tp1915
a(S'Brandon Weeden'
p1916
g10
tp1917
a(S'Bobby Rainey'
p1918
g17
tp1919
a(S'Travis Benjamin'
p1920
g26
tp1921
a(S'Josh Gordon'
p1922
g26
tp1923
a(S'Greg Little'
p1924
g26
tp1925
a(S'Gary Barnidge'
p1926
g39
tp1927
a(S'Jordan Cameron'
p1928
g39
tp1929
a(S'MarQueis Gray'
p1930
g39
tp1931
asg48
I00
sg49
F10.0
sg50
F269.0
sg51
F0.0
sg52
F2.0
sg53
F0.0
sg54
S'6-17'
p1932
sg56
I00
sg57
F16.0
sg58
F0.0
ssg495
(dp1933
g5
F51.0
sg6
F0.0
sg7
(lp1934
(S'Shaun Hill'
p1935
g10
tp1936
a(S'Kellen Moore'
p1937
g10
tp1938
a(S'Matthew Stafford'
p1939
g10
tp1940
a(S'Reggie Bush'
p1941
g17
tp1942
a(S'Theo Riddick'
p1943
g17
tp1944
a(S'Jeremy Ross'
p1945
g26
tp1946
a(S'Brandon Pettigrew'
p1947
g39
tp1948
asg48
I01
sg49
F20.0
sg50
F357.0
sg51
F0.0
sg52
F3.0
sg53
F0.0
sg54
S'27-24'
p1949
sg56
I00
sg57
F50.0
sg58
F0.0
ssg501
(dp1950
g5
F32.0
sg6
F1.0
sg7
(lp1951
(S'Thad Lewis'
p1952
g10
tp1953
a(S'EJ Manuel'
p1954
g10
tp1955
a(S'Fred Jackson'
p1956
g17
tp1957
a(S'C.J. Spiller'
p1958
g17
tp1959
a(S'Marcus Easley'
p1960
g26
tp1961
a(S'Marquise Goodwin'
p1962
g26
tp1963
a(S'T.J. Graham'
p1964
g26
tp1965
a(S'Chris Hogan'
p1966
g26
tp1967
a(S'Steve Johnson'
p1968
g26
tp1969
a(S'Robert Woods'
p1970
g26
tp1971
a(S'Scott Chandler'
p1972
g39
tp1973
a(S'Chris Gragg'
p1974
g39
tp1975
a(S'Lee Smith'
p1976
g39
tp1977
a(S'Dan Carpenter'
p1978
g46
tp1979
asg48
I01
sg49
F28.0
sg50
F216.0
sg51
F1.0
sg52
F2.0
sg53
F1.0
sg54
S'27-24'
p1980
sg56
I00
sg57
F106.0
sg58
F0.0
ssg541
(dp1981
g5
F28.0
sg6
F1.0
sg7
(lp1982
(S'Pat Devlin'
p1983
g10
tp1984
a(S'Matt Moore'
p1985
g10
tp1986
a(S'Ryan Tannehill'
p1987
g10
tp1988
a(S'Mike Gillislee'
p1989
g17
tp1990
a(S'Lamar Miller'
p1991
g17
tp1992
a(S'Daniel Thomas'
p1993
g17
tp1994
a(S'Brian Hartline'
p1995
g26
tp1996
a(S'Rishard Matthews'
p1997
g26
tp1998
a(S'Ryan Spadola'
p1999
g26
tp2000
a(S'Mike Wallace'
p2001
g26
tp2002
a(S'Charles Clay'
p2003
g39
tp2004
a(S'Dion Sims'
p2005
g39
tp2006
a(S'Caleb Sturgis'
p2007
g46
tp2008
asg48
I00
sg49
F30.0
sg50
F208.0
sg51
F3.0
sg52
F0.0
sg53
F2.0
sg54
S'20-22'
p2009
sg56
I00
sg57
F157.0
sg58
F0.0
ssg579
(dp2010
g5
F37.0
sg6
F0.0
sg7
(lp2011
(S'Matt Simms'
p2012
g10
tp2013
a(S'Geno Smith'
p2014
g10
tp2015
a(S'Tommy Bohanon'
p2016
g17
tp2017
a(S'Chris Ivory'
p2018
g17
tp2019
a(S'Bilal Powell'
p2020
g17
tp2021
a(S'Stephen Hill'
p2022
g26
tp2023
a(S'Jeremy Kerley'
p2024
g26
tp2025
a(S'Greg Salas'
p2026
g26
tp2027
a(S'Jeff Cumberland'
p2028
g39
tp2029
a(S'Konrad Reuland'
p2030
g39
tp2031
a(S'Zach Sudfeld'
p2032
g39
tp2033
a(S'Nick Folk'
p2034
g46
tp2035
asg48
I01
sg49
F21.0
sg50
F176.0
sg51
F3.0
sg52
F0.0
sg53
F3.0
sg54
S'49-9'
p2036
sg56
I01
sg57
F73.0
sg58
F0.0
sssS'2012'
p2037
(dp2038
g3
(dp2039
g5
F16.0
sg6
F0.0
sg7
(lp2040
(S'Matt Cassel'
p2041
g10
tp2042
a(S'Jamaal Charles'
p2043
g17
tp2044
a(S'Shaun Draughn'
p2045
g17
tp2046
a(S'Cyrus Gray'
p2047
g17
tp2048
a(S'Dexter McCluster'
p2049
g17
tp2050
a(S'Dwayne Bowe'
p2051
g26
tp2052
a(S'Tony Moeaki'
p2053
g39
tp2054
a(S'Ryan Succop'
p2055
g46
tp2056
asg48
I01
sg49
F20.0
sg50
F93.0
sg51
F2.0
sg52
F0.0
sg53
F2.0
sg54
S'28-6'
p2057
sg56
I00
sg57
F97.0
sg58
F0.0
ssg59
(dp2058
g5
F46.0
sg6
F0.0
sg7
(lp2059
(S'Eli Manning'
p2060
g10
tp2061
a(S'Ahmad Bradshaw'
p2062
g17
tp2063
a(S'Victor Cruz'
p2064
g26
tp2065
a(S'Hakeem Nicks'
p2066
g26
tp2067
a(S'Rueben Randle'
p2068
g26
tp2069
a(S'Martellus Bennett'
p2070
g39
tp2071
a(S'Bear Pascoe'
p2072
g39
tp2073
asg48
I01
sg49
F11.0
sg50
F215.0
sg51
F0.0
sg52
F0.0
sg53
F0.0
sg54
S'31-13'
p2074
sg56
I01
sg57
F58.0
sg58
F0.0
ssg93
(dp2075
g5
F48.0
sg6
F0.0
sg7
(lp2076
(S'Philip Rivers'
p2077
g10
tp2078
a(S'Ryan Mathews'
p2079
g17
tp2080
a(S'Seyi Ajirotutu'
p2081
g26
tp2082
a(S'Malcom Floyd'
p2083
g26
tp2084
a(S'Eddie Royal'
p2085
g26
tp2086
a(S'Antonio Gates'
p2087
g39
tp2088
a(S'Ladarius Green'
p2089
g39
tp2090
a(S'Nick Novak'
p2091
g46
tp2092
asg48
I01
sg49
F11.0
sg50
F280.0
sg51
F3.0
sg52
F0.0
sg53
F2.0
sg54
S'20-13'
p2093
sg56
I00
sg57
F46.0
sg58
F0.0
ssg133
(dp2094
g5
F34.0
sg6
F0.0
sg7
(lp2095
(S'Carson Palmer'
p2096
g10
tp2097
a(S'Taiwan Jones'
p2098
g17
tp2099
a(S'Darren McFadden'
p2100
g17
tp2101
a(S'Marcel Reece'
p2102
g17
tp2103
a(S'Darrius Heyward-Bey'
p2104
g26
tp2105
a(S'Terrelle Pryor'
p2106
g26
tp2107
a(S'Rod Streater'
p2108
g26
tp2109
a(S'Richard Gordon'
p2110
g39
tp2111
a(S'Brandon Myers'
p2112
g39
tp2113
a(S'Sebastian Janikowski'
p2114
g46
tp2115
asg48
I01
sg49
F15.0
sg50
F146.0
sg51
F1.0
sg52
F1.0
sg53
F1.0
sg54
S'34-10'
p2116
sg56
I01
sg57
F74.0
sg58
F0.0
ssg169
(dp2117
g5
F33.0
sg6
F0.0
sg7
(lp2118
(S'Nick Foles'
p2119
g10
tp2120
a(S'Mike Vick'
p2121
g10
tp2122
a(S'Bryce Brown'
p2123
g17
tp2124
a(S'Dion Lewis'
p2125
g17
tp2126
a(S'LeSean McCoy'
p2127
g17
tp2128
a(S'Chris Polk'
p2129
g17
tp2130
a(S'Jason Avant'
p2131
g26
tp2132
a(S'Damaris Johnson'
p2133
g26
tp2134
a(S'Jeremy Maclin'
p2135
g26
tp2136
a(S'Greg Salas'
p2137
g26
tp2138
a(S'Brent Celek'
p2139
g39
tp2140
a(S'Clay Harbor'
p2141
g39
tp2142
asg48
I01
sg49
F19.0
sg50
F180.0
sg51
F0.0
sg52
F1.0
sg53
F0.0
sg54
S'34-13'
p2143
sg56
I00
sg57
F42.0
sg58
F0.0
ssg207
(dp2144
g5
F43.0
sg6
F1.0
sg7
(lp2145
(S'Tony Romo'
p2146
g10
tp2147
a(S'Lance Dunbar'
p2148
g17
tp2149
a(S'DeMarco Murray'
p2150
g17
tp2151
a(S'Cole Beasley'
p2152
g26
tp2153
a(S'Dez Bryant'
p2154
g26
tp2155
a(S'Dwayne Harris'
p2156
g26
tp2157
a(S'James Hanna'
p2158
g39
tp2159
a(S'John Phillips'
p2160
g39
tp2161
a(S'Jason Witten'
p2162
g39
tp2163
a(S'Dan Bailey'
p2164
g46
tp2165
asg48
I00
sg49
F22.0
sg50
F268.0
sg51
F2.0
sg52
F1.0
sg53
F2.0
sg54
S'19-20'
p2166
sg56
I01
sg57
F42.0
sg58
F0.0
ssg243
(dp2167
g5
F33.0
sg6
F1.0
sg7
(lp2168
(S'Joe Flacco'
p2169
g10
tp2170
a(S'Tyrod Taylor'
p2171
g10
tp2172
a(S'Bernard Pierce'
p2173
g17
tp2174
a(S'Anquan Boldin'
p2175
g26
tp2176
a(S'Torrey Smith'
p2177
g26
tp2178
a(S'Deonte Thompson'
p2179
g26
tp2180
a(S'Ed Dickson'
p2181
g39
tp2182
a(S'Dennis Pitta'
p2183
g39
tp2184
a(S'Justin Tucker'
p2185
g46
tp2186
asg48
I01
sg49
F32.0
sg50
F183.0
sg51
F2.0
sg52
F0.0
sg53
F1.0
sg54
S'23-17'
p2187
sg56
I01
sg57
F150.0
sg58
F0.0
ssg279
(dp2188
g5
F28.0
sg6
F0.0
sg7
(lp2189
(S'Ben Roethlisberger'
p2190
g10
tp2191
a(S'Will Johnson'
p2192
g17
tp2193
a(S'Antonio Brown'
p2194
g26
tp2195
a(S'Jerricho Cotchery'
p2196
g26
tp2197
a(S'Emmanuel Sanders'
p2198
g26
tp2199
a(S'Mike Wallace'
p2200
g26
tp2201
a(S'Shaun Suisham'
p2202
g46
tp2203
asg48
I01
sg49
F3.0
sg50
F220.0
sg51
F3.0
sg52
F1.0
sg53
F1.0
sg54
S'13-10'
p2204
sg56
I00
sg57
F2.0
sg58
F0.0
ssg313
(dp2205
g5
F32.0
sg6
F0.0
sg7
(lp2206
(S'Joe Flacco'
p2207
g10
tp2208
a(S'Tyrod Taylor'
p2209
g10
tp2210
a(S'Bernard Pierce'
p2211
g17
tp2212
a(S'Anquan Boldin'
p2213
g26
tp2214
a(S'Torrey Smith'
p2215
g26
tp2216
a(S'Deonte Thompson'
p2217
g26
tp2218
a(S'Ed Dickson'
p2219
g39
tp2220
a(S'Dennis Pitta'
p2221
g39
tp2222
a(S'Justin Tucker'
p2223
g46
tp2224
asg48
I00
sg49
F9.0
sg50
F329.0
sg51
F3.0
sg52
F2.0
sg53
F3.0
sg54
S'13-44'
p2225
sg56
I00
sg57
F41.0
sg58
F0.0
ssg353
(dp2226
g5
F34.0
sg6
F2.0
sg7
(lp2227
(S'Kirk Cousins'
p2228
g10
tp2229
a(S'Robert Griffin III'
p2230
g10
tp2231
a(S'Roy Helu'
p2232
g17
tp2233
a(S'Alfred Morris'
p2234
g17
tp2235
a(S'Darrel Young'
p2236
g17
tp2237
a(S'Pierre Garcon'
p2238
g26
tp2239
a(S'Leonard Hankerson'
p2240
g26
tp2241
a(S'Aldrick Robinson'
p2242
g26
tp2243
a(S'Niles Paul'
p2244
g39
tp2245
a(S'Logan Paulsen'
p2246
g39
tp2247
asg48
I01
sg49
F30.0
sg50
F221.0
sg51
F0.0
sg52
F1.0
sg53
F0.0
sg54
S'38-31'
p2248
sg56
I00
sg57
F152.0
sg58
F0.0
ssg387
(dp2249
g5
F37.0
sg6
F1.0
sg7
(lp2250
(S'Thad Lewis'
p2251
g10
tp2252
a(S'Colt McCoy'
p2253
g10
tp2254
a(S'Brandon Weeden'
p2255
g10
tp2256
a(S'Trent Richardson'
p2257
g17
tp2258
a(S'Travis Benjamin'
p2259
g26
tp2260
a(S'Josh Gordon'
p2261
g26
tp2262
a(S'Greg Little'
p2263
g26
tp2264
a(S'Jordan Norwood'
p2265
g26
tp2266
a(S'Jordan Cameron'
p2267
g39
tp2268
a(S'Alex Smith'
p2269
g39
tp2270
a(S'Benjamin Watson'
p2271
g39
tp2272
a(S'Phil Dawson'
p2273
g46
tp2274
asg48
I01
sg49
F23.0
sg50
F322.0
sg51
F2.0
sg52
F2.0
sg53
F2.0
sg54
S'34-27'
p2275
sg56
I01
sg57
F130.0
sg58
F0.0
ssg419
(dp2276
g5
F26.0
sg6
F2.0
sg7
(lp2277
(S'Pat Devlin'
p2278
g10
tp2279
a(S'Matt Moore'
p2280
g10
tp2281
a(S'Ryan Tannehill'
p2282
g10
tp2283
a(S'Reggie Bush'
p2284
g17
tp2285
a(S'Jorvorskie Lane'
p2286
g17
tp2287
a(S'Lamar Miller'
p2288
g17
tp2289
a(S'Daniel Thomas'
p2290
g17
tp2291
a(S'Brian Hartline'
p2292
g26
tp2293
a(S'Rishard Matthews'
p2294
g26
tp2295
a(S'Marlon Moore'
p2296
g26
tp2297
a(S'Charles Clay'
p2298
g39
tp2299
a(S'Anthony Fasano'
p2300
g39
tp2301
a(S'Dan Carpenter'
p2302
g46
tp2303
asg48
I00
sg49
F35.0
sg50
F223.0
sg51
F2.0
sg52
F0.0
sg53
F1.0
sg54
S'13-17'
p2304
sg56
I01
sg57
F68.0
sg58
F0.0
ssg455
(dp2305
g5
F34.0
sg6
F0.0
sg7
(lp2306
(S'Blaine Gabbert'
p2307
g10
tp2308
a(S'Chad Henne'
p2309
g10
tp2310
a(S'Rashad Jennings'
p2311
g17
tp2312
a(S'Justin Blackmon'
p2313
g26
tp2314
a(S'Cecil Shorts'
p2315
g26
tp2316
a(S'Marcedes Lewis'
p2317
g39
tp2318
a(S'Josh Scobee'
p2319
g46
tp2320
asg48
I01
sg49
F5.0
sg50
F186.0
sg51
F1.0
sg52
F1.0
sg53
F1.0
sg54
S'27-10'
p2321
sg56
I00
sg57
F31.0
sg58
F0.0
ssg495
(dp2322
g5
F37.0
sg6
F0.0
sg7
(lp2323
(S'Ben Roethlisberger'
p2324
g10
tp2325
a(S'Will Johnson'
p2326
g17
tp2327
a(S'Antonio Brown'
p2328
g26
tp2329
a(S'Jerricho Cotchery'
p2330
g26
tp2331
a(S'Emmanuel Sanders'
p2332
g26
tp2333
a(S'Mike Wallace'
p2334
g26
tp2335
a(S'Shaun Suisham'
p2336
g46
tp2337
asg48
I00
sg49
F6.0
sg50
F278.0
sg51
F3.0
sg52
F1.0
sg53
F3.0
sg54
S'17-24'
p2338
sg56
I01
sg57
F24.0
sg58
F0.0
ssg501
(dp2339
g5
F29.0
sg6
F0.0
sg7
(lp2340
(S'Colt McCoy'
p2341
g10
tp2342
a(S'Brandon Weeden'
p2343
g10
tp2344
a(S'Trent Richardson'
p2345
g17
tp2346
a(S'Travis Benjamin'
p2347
g26
tp2348
a(S'Josh Gordon'
p2349
g26
tp2350
a(S'Greg Little'
p2351
g26
tp2352
a(S'Jordan Cameron'
p2353
g39
tp2354
a(S'Alex Smith'
p2355
g39
tp2356
a(S'Benjamin Watson'
p2357
g39
tp2358
a(S'Phil Dawson'
p2359
g46
tp2360
asg48
I00
sg49
F17.0
sg50
F231.0
sg51
F2.0
sg52
F2.0
sg53
F2.0
sg54
S'24-34'
p2361
sg56
I00
sg57
F40.0
sg58
F0.0
ssg541
(dp2362
g5
F0.0
sg6
F0.0
sg7
(lp2363
(S'Brock Osweiler'
p2364
g10
tp2365
a(S'Ronnie Hillman'
p2366
g17
tp2367
a(S'Andre Caldwell'
p2368
g26
tp2369
a(S'Eric Decker'
p2370
g26
tp2371
a(S'Demaryius Thomas'
p2372
g26
tp2373
a(S'Virgil Green'
p2374
g39
tp2375
a(S'Jacob Tamme'
p2376
g39
tp2377
a(S'Julius Thomas'
p2378
g39
tp2379
a(S'Matt Prater'
p2380
g46
tp2381
asg48
I00
sg49
F1.0
sg50
F0.0
sg51
F1.0
sg52
F0.0
sg53
F1.0
sg54
S'23-31'
p2382
sg56
I01
sg57
F4.0
sg58
F0.0
ssg579
(dp2383
g5
F0.0
sg6
F0.0
sg7
(lp2384
sg48
(lp2385
sg49
F0.0
sg50
F0.0
sg51
F0.0
sg52
F0.0
sg53
F0.0
sg54
(lp2386
sg56
(lp2387
sg57
F0.0
sg58
F0.0
sss.