(dp0
S'2015'
p1
(dp2
S'11'
p3
(dp4
S'PassAtt'
p5
F24.0
sS'RushTD'
p6
F0.0
sS'Players'
p7
(lp8
(S'Matt Moore'
p9
S'QB'
p10
tp11
a(S'Ryan Tannehill'
p12
g10
tp13
a(S'Jay Ajayi'
p14
S'RB'
p15
tp16
a(S'Lamar Miller'
p17
g15
tp18
a(S'Damien Williams'
p19
g15
tp20
a(S'Matt Hazel'
p21
S'WR'
p22
tp23
a(S'Greg Jennings'
p24
g22
tp25
a(S'Jarvis Landry'
p26
g22
tp27
a(S'Rishard Matthews'
p28
g22
tp29
a(S'DeVante Parker'
p30
g22
tp31
a(S'Kenny Stills'
p32
g22
tp33
a(S'Jordan Cameron'
p34
S'TE'
p35
tp36
a(S'Dion Sims'
p37
g35
tp38
a(S'Jake Stoneburner'
p39
g35
tp40
a(S'Brandon Williams'
p41
g35
tp42
a(S'Andrew Franks'
p43
S'K'
p44
tp45
asS'Won'
p46
I01
sS'RushAtt'
p47
F14.0
sS'PassYds'
p48
F188.0
sS'FGAtt'
p49
F0.0
sS'PassTD'
p50
F2.0
sS'FGM'
p51
F0.0
sS'Score'
p52
S'24-14'
p53
sS'Home'
p54
I00
sS'RushYds'
p55
F70.0
sS'FGBlk'
p56
F0.0
ssS'10'
p57
(dp58
g5
F39.0
sg6
F1.0
sg7
(lp59
(S'Mike Glennon'
p60
g10
tp61
a(S'Ryan Griffin'
p62
g10
tp63
a(S'Jameis Winston'
p64
g10
tp65
a(S'Jorvorskie Lane'
p66
g15
tp67
a(S'Doug Martin'
p68
g15
tp69
a(S'Bobby Rainey'
p70
g15
tp71
a(S'Charles Sims'
p72
g15
tp73
a(S'Dontee Dye'
p74
g22
tp75
a(S'Mike Evans'
p76
g22
tp77
a(S'Adam Humphries'
p78
g22
tp79
a(S'Vincent Jackson'
p80
g22
tp81
a(S'Russell Shepard'
p82
g22
tp83
a(S'Cameron Brate'
p84
g35
tp85
a(S'Brandon Myers'
p86
g35
tp87
a(S'Austin Seferian-Jenkins'
p88
g35
tp89
a(S'Luke Stocker'
p90
g35
tp91
a(S'Connor Barth'
p92
g44
tp93
asg46
I00
sg47
F26.0
sg48
F264.0
sg49
F2.0
sg50
F0.0
sg51
F1.0
sg52
S'6-10'
p94
sg54
I00
sg55
F84.0
sg56
F0.0
ssS'13'
p95
(dp96
g5
F31.0
sg6
F0.0
sg7
(lp97
(S'Kirk Cousins'
p98
g10
tp99
a(S'Robert Griffin III'
p100
g10
tp101
a(S'Colt McCoy'
p102
g10
tp103
a(S'Alfred Morris'
p104
g15
tp105
a(S'Chris Thompson'
p106
g15
tp107
a(S'Darrel Young'
p108
g15
tp109
a(S'Jamison Crowder'
p110
g22
tp111
a(S'Pierre Garcon'
p112
g22
tp113
a(S'Ryan Grant'
p114
g22
tp115
a(S'DeSean Jackson'
p116
g22
tp117
a(S'Andre Roberts'
p118
g22
tp119
a(S'Rashad Ross'
p120
g22
tp121
a(S'Derek Carrier'
p122
g35
tp123
a(S"Je'Ron Hamm"
p124
g35
tp125
a(S'Jordan Reed'
p126
g35
tp127
a(S'Dustin Hopkins'
p128
g44
tp129
asg46
I01
sg47
F8.0
sg48
F219.0
sg49
F4.0
sg50
F1.0
sg51
F3.0
sg52
S'19-16'
p130
sg54
I00
sg55
F24.0
sg56
F0.0
ssS'12'
p131
(dp132
g5
F27.0
sg6
F1.0
sg7
(lp133
(S'Derek Anderson'
p134
g10
tp135
a(S'Cam Newton'
p136
g10
tp137
a(S'Joe Webb'
p138
g10
tp139
a(S'Cameron Artis-Payne'
p140
g15
tp141
a(S'Jonathan Stewart'
p142
g15
tp143
a(S'Mike Tolbert'
p144
g15
tp145
a(S'Brandon Wegher'
p146
g15
tp147
a(S'Fozzy Whittaker'
p148
g15
tp149
a(S'Brenton Bersin'
p150
g22
tp151
a(S'Corey Brown'
p152
g22
tp153
a(S'Jerricho Cotchery'
p154
g22
tp155
a(S'Devin Funchess'
p156
g22
tp157
a(S'Ted Ginn'
p158
g22
tp159
a(S'Kevin Norwood'
p160
g22
tp161
a(S'Ed Dickson'
p162
g35
tp163
a(S'Greg Olsen'
p164
g35
tp165
a(S'Scott Simonson'
p166
g35
tp167
a(S'Graham Gano'
p168
g44
tp169
asg46
I00
sg47
F37.0
sg48
F183.0
sg49
F5.0
sg50
F0.0
sg51
F4.0
sg52
S'14-33'
p170
sg54
I01
sg55
F129.0
sg56
F1.0
ssS'15'
p171
(dp172
g5
F39.0
sg6
F1.0
sg7
(lp173
(S'Ryan Fitzpatrick'
p174
g10
tp175
a(S'Bryce Petty'
p176
g10
tp177
a(S'Geno Smith'
p178
g10
tp179
a(S'Tommy Bohanon'
p180
g15
tp181
a(S'Chris Ivory'
p182
g15
tp183
a(S'Bilal Powell'
p184
g15
tp185
a(S'Stevan Ridley'
p186
g15
tp187
a(S'Eric Decker'
p188
g22
tp189
a(S'Quincy Enunwa'
p190
g22
tp191
a(S'Jeremy Kerley'
p192
g22
tp193
a(S'Brandon Marshall'
p194
g22
tp195
a(S'Kenbrell Thompkins'
p196
g22
tp197
a(S'Jeff Cumberland'
p198
g35
tp199
a(S'Kellen Davis'
p200
g35
tp201
a(S'Randy Bullock'
p202
g44
tp203
asg46
I00
sg47
F26.0
sg48
F299.0
sg49
F3.0
sg50
F1.0
sg51
F2.0
sg52
S'16-19'
p204
sg54
I01
sg55
F73.0
sg56
F0.0
ssS'14'
p205
(dp206
g5
F35.0
sg6
F2.0
sg7
(lp207
(S'Brett Hundley'
p208
g10
tp209
a(S'Aaron Rodgers'
p210
g10
tp211
a(S'Scott Tolzien'
p212
g10
tp213
a(S'John Crockett'
p214
g15
tp215
a(S'John Kuhn'
p216
g15
tp217
a(S'Eddie Lacy'
p218
g15
tp219
a(S'Aaron Ripkowski'
p220
g15
tp221
a(S'James Starks'
p222
g15
tp223
a(S'Jared Abbrederis'
p224
g22
tp225
a(S'Davante Adams'
p226
g22
tp227
a(S'Randall Cobb'
p228
g22
tp229
a(S'Jeff Janis'
p230
g22
tp231
a(S'James Jones'
p232
g22
tp233
a(S'Ty Montgomery'
p234
g22
tp235
a(S'Kennard Backman'
p236
g35
tp237
a(S'Justin Perillo'
p238
g35
tp239
a(S'Richard Rodgers'
p240
g35
tp241
a(S'Mason Crosby'
p242
g44
tp243
asg46
I00
sg47
F44.0
sg48
F218.0
sg49
F0.0
sg50
F2.0
sg51
F0.0
sg52
S'7-28'
p244
sg54
I00
sg55
F230.0
sg56
F0.0
ssS'17'
p245
(dp246
g5
F26.0
sg6
F0.0
sg7
(lp247
(S'Kirk Cousins'
p248
g10
tp249
a(S'Robert Griffin III'
p250
g10
tp251
a(S'Colt McCoy'
p252
g10
tp253
a(S'Alfred Morris'
p254
g15
tp255
a(S'Chris Thompson'
p256
g15
tp257
a(S'Darrel Young'
p258
g15
tp259
a(S'Jamison Crowder'
p260
g22
tp261
a(S'Pierre Garcon'
p262
g22
tp263
a(S'Ryan Grant'
p264
g22
tp265
a(S'DeSean Jackson'
p266
g22
tp267
a(S'Rashad Ross'
p268
g22
tp269
a(S'Marcel Jensen'
p270
g35
tp271
a(S'Jordan Reed'
p272
g35
tp273
a(S'Alex Smith'
p274
g35
tp275
a(S'Dustin Hopkins'
p276
g44
tp277
asg46
I00
sg47
F29.0
sg48
F304.0
sg49
F2.0
sg50
F4.0
sg51
F2.0
sg52
S'23-34'
p278
sg54
I01
sg55
F116.0
sg56
F0.0
ssS'16'
p279
(dp280
g5
F18.0
sg6
F2.0
sg7
(lp281
(S'Josh Johnson'
p282
g10
tp283
a(S'EJ Manuel'
p284
g10
tp285
a(S'Tyrod Taylor'
p286
g10
tp287
a(S'Anthony Dixon'
p288
g15
tp289
a(S'Jerome Felton'
p290
g15
tp291
a(S'Mike Gillislee'
p292
g15
tp293
a(S'LeSean McCoy'
p294
g15
tp295
a(S'Karlos Williams'
p296
g15
tp297
a(S'Marcus Easley'
p298
g22
tp299
a(S'Chris Hogan'
p300
g22
tp301
a(S'Dezmin Lewis'
p302
g22
tp303
a(S'Walt Powell'
p304
g22
tp305
a(S'Greg Salas'
p306
g22
tp307
a(S'Sammy Watkins'
p308
g22
tp309
a(S'Charles Clay'
p310
g35
tp311
a(S'Chris Gragg'
p312
g35
tp313
a(S"Nick O'Leary"
p314
g35
tp315
a(S'Dan Carpenter'
p316
g44
tp317
a(S'Jordan Gay'
p318
g44
tp319
asg46
I00
sg47
F40.0
sg48
F179.0
sg49
F1.0
sg50
F0.0
sg51
F1.0
sg52
S'6-16'
p320
sg54
I00
sg55
F236.0
sg56
F0.0
ssS'1'
p321
(dp322
g5
F36.0
sg6
F1.0
sg7
(lp323
(S'Eli Manning'
p324
g10
tp325
a(S'Ryan Nassib'
p326
g10
tp327
a(S'Orleans Darkwa'
p328
g15
tp329
a(S'Rashad Jennings'
p330
g15
tp331
a(S'Shane Vereen'
p332
g15
tp333
a(S'Nikit Whitlock'
p334
g15
tp335
a(S'Andre Williams'
p336
g15
tp337
a(S'Odell Beckham'
p338
g22
tp339
a(S'Victor Cruz'
p340
g22
tp341
a(S'Geremy Davis'
p342
g22
tp343
a(S'Dwayne Harris'
p344
g22
tp345
a(S'Rueben Randle'
p346
g22
tp347
a(S'Jerome Cunningham'
p348
g35
tp349
a(S'Larry Donnell'
p350
g35
tp351
a(S'Daniel Fells'
p352
g35
tp353
a(S'Josh Brown'
p354
g44
tp355
asg46
I01
sg47
F24.0
sg48
F189.0
sg49
F4.0
sg50
F0.0
sg51
F4.0
sg52
S'27-26'
p356
sg54
I01
sg55
F99.0
sg56
F0.0
ssS'3'
p357
(dp358
g5
F36.0
sg6
F3.0
sg7
(lp359
(S'Sean Renfree'
p360
g10
tp361
a(S'Matt Ryan'
p362
g10
tp363
a(S'Tevin Coleman'
p364
g15
tp365
a(S'Patrick DiMarco'
p366
g15
tp367
a(S'Devont Freeman'
p368
g15
tp369
a(S'Terron Ward'
p370
g15
tp371
a(S'Leonard Hankerson'
p372
g22
tp373
a(S'Justin Hardy'
p374
g22
tp375
a(S'Devin Hester'
p376
g22
tp377
a(S'Julio Jones'
p378
g22
tp379
a(S'Eric Weems'
p380
g22
tp381
a(S'Roddy White'
p382
g22
tp383
a(S'Nick Williams'
p384
g22
tp385
a(S'Jacob Tamme'
p386
g35
tp387
a(S'Levine Toilolo'
p388
g35
tp389
a(S'Matt Bryant'
p390
g44
tp391
asg46
I00
sg47
F32.0
sg48
F285.0
sg49
F1.0
sg50
F2.0
sg51
F1.0
sg52
S'28-39'
p392
sg54
I01
sg55
F158.0
sg56
F0.0
ssS'2'
p393
(dp394
g5
F37.0
sg6
F0.0
sg7
(lp395
(S'Sam Bradford'
p396
g10
tp397
a(S'Stephen Morris'
p398
g10
tp399
a(S'Mark Sanchez'
p400
g10
tp401
a(S'Kenjon Barner'
p402
g15
tp403
a(S'Ryan Mathews'
p404
g15
tp405
a(S'DeMarco Murray'
p406
g15
tp407
a(S'Darren Sproles'
p408
g15
tp409
a(S'Nelson Agholor'
p410
g22
tp411
a(S'Seyi Ajirotutu'
p412
g22
tp413
a(S'Josh Huff'
p414
g22
tp415
a(S'Jordan Matthews'
p416
g22
tp417
a(S'Trey Burton'
p418
g35
tp419
a(S'Brent Celek'
p420
g35
tp421
a(S'Zach Ertz'
p422
g35
tp423
a(S'Cody Parkey'
p424
g44
tp425
asg46
I01
sg47
F17.0
sg48
F224.0
sg49
F1.0
sg50
F1.0
sg51
F1.0
sg52
S'20-10'
p426
sg54
I00
sg55
F7.0
sg56
F0.0
ssS'5'
p427
(dp428
g5
F27.0
sg6
F1.0
sg7
(lp429
(S'Tom Brady'
p430
g10
tp431
a(S'Jimmy Garoppolo'
p432
g10
tp433
a(S'LeGarrette Blount'
p434
g15
tp435
a(S'Brandon Bolden'
p436
g15
tp437
a(S'Dion Lewis'
p438
g15
tp439
a(S'James White'
p440
g15
tp441
a(S'Danny Amendola'
p442
g22
tp443
a(S'Aaron Dobson'
p444
g22
tp445
a(S'Julian Edelman'
p446
g22
tp447
a(S'Keshawn Martin'
p448
g22
tp449
a(S'Matthew Slater'
p450
g22
tp451
a(S'Scott Chandler'
p452
g35
tp453
a(S'Rob Gronkowski'
p454
g35
tp455
a(S'Michael Williams'
p456
g35
tp457
a(S'Stephen Gostkowski'
p458
g44
tp459
asg46
I00
sg47
F23.0
sg48
F275.0
sg49
F3.0
sg50
F2.0
sg51
F3.0
sg52
S'6-30'
p460
sg54
I01
sg55
F109.0
sg56
F0.0
ssS'4'
p461
(dp462
g5
F41.0
sg6
F1.0
sg7
(lp463
(S'Drew Brees'
p464
g10
tp465
a(S'Garrett Grayson'
p466
g10
tp467
a(S'Luke McCown'
p468
g10
tp469
a(S'Mark Ingram'
p470
g15
tp471
a(S'Austin Johnson'
p472
g15
tp473
a(S'Marcus Murphy'
p474
g15
tp475
a(S'Khiry Robinson'
p476
g15
tp477
a(S'C.J. Spiller'
p478
g15
tp479
a(S'Brandon Coleman'
p480
g22
tp481
a(S'Marques Colston'
p482
g22
tp483
a(S'Brandin Cooks'
p484
g22
tp485
a(S'Willie Snead'
p486
g22
tp487
a(S'Josh Hill'
p488
g35
tp489
a(S'Michael Hoomanawanui'
p490
g35
tp491
a(S'Benjamin Watson'
p492
g35
tp493
a(S'Zach Hocker'
p494
g44
tp495
asg46
I00
sg47
F25.0
sg48
F359.0
sg49
F3.0
sg50
F2.0
sg51
F2.0
sg52
S'20-26'
p496
sg54
I00
sg55
F103.0
sg56
F0.0
ssS'7'
p497
(dp498
g5
F24.0
sg6
F1.0
sg7
(lp499
(S'Eli Manning'
p500
g10
tp501
a(S'Ryan Nassib'
p502
g10
tp503
a(S'Orleans Darkwa'
p504
g15
tp505
a(S'Rashad Jennings'
p506
g15
tp507
a(S'Shane Vereen'
p508
g15
tp509
a(S'Nikit Whitlock'
p510
g15
tp511
a(S'Andre Williams'
p512
g15
tp513
a(S'Odell Beckham'
p514
g22
tp515
a(S'Victor Cruz'
p516
g22
tp517
a(S'Geremy Davis'
p518
g22
tp519
a(S'Dwayne Harris'
p520
g22
tp521
a(S'Rueben Randle'
p522
g22
tp523
a(S'Myles White'
p524
g22
tp525
a(S'Larry Donnell'
p526
g35
tp527
a(S'Will Tye'
p528
g35
tp529
a(S'Josh Brown'
p530
g44
tp531
asg46
I00
sg47
F25.0
sg48
F170.0
sg49
F2.0
sg50
F0.0
sg51
F2.0
sg52
S'20-27'
p532
sg54
I00
sg55
F132.0
sg56
F0.0
ssS'6'
p533
(dp534
g5
F0.0
sg6
F0.0
sg7
(lp535
sg46
(lp536
sg47
F0.0
sg48
F0.0
sg49
F0.0
sg50
F0.0
sg51
F0.0
sg52
(lp537
sg54
(lp538
sg55
F0.0
sg56
F0.0
ssS'9'
p539
(dp540
g5
F36.0
sg6
F2.0
sg7
(lp541
(S'Sam Bradford'
p542
g10
tp543
a(S'Thad Lewis'
p544
g10
tp545
a(S'Mark Sanchez'
p546
g10
tp547
a(S'Kenjon Barner'
p548
g15
tp549
a(S'Ryan Mathews'
p550
g15
tp551
a(S'DeMarco Murray'
p552
g15
tp553
a(S'Darren Sproles'
p554
g15
tp555
a(S'Nelson Agholor'
p556
g22
tp557
a(S'Seyi Ajirotutu'
p558
g22
tp559
a(S'Josh Huff'
p560
g22
tp561
a(S'Jordan Matthews'
p562
g22
tp563
a(S'Trey Burton'
p564
g35
tp565
a(S'Brent Celek'
p566
g35
tp567
a(S'Zach Ertz'
p568
g35
tp569
a(S'Caleb Sturgis'
p570
g44
tp571
asg46
I00
sg47
F35.0
sg48
F295.0
sg49
F2.0
sg50
F1.0
sg51
F2.0
sg52
S'27-33'
p572
sg54
I01
sg55
F172.0
sg56
F0.0
ssS'8'
p573
(dp574
g5
F30.0
sg6
F0.0
sg7
(lp575
(S'Tarvaris Jackson'
p576
g10
tp577
a(S'Russell Wilson'
p578
g10
tp579
a(S'Bryce Brown'
p580
g15
tp581
a(S'Derrick Coleman'
p582
g15
tp583
a(S'Fred Jackson'
p584
g15
tp585
a(S'Thomas Rawls'
p586
g15
tp587
a(S'Will Tukuafu'
p588
g15
tp589
a(S'Doug Baldwin'
p590
g22
tp591
a(S'Jermaine Kearse'
p592
g22
tp593
a(S'Tyler Lockett'
p594
g22
tp595
a(S'Ricardo Lockette'
p596
g22
tp597
a(S'Chris Matthews'
p598
g22
tp599
a(S'Jimmy Graham'
p600
g35
tp601
a(S'Cooper Helfet'
p602
g35
tp603
a(S'Luke Willson'
p604
g35
tp605
a(S'Steven Hauschka'
p606
g44
tp607
asg46
I00
sg47
F10.0
sg48
F210.0
sg49
F3.0
sg50
F1.0
sg51
F2.0
sg52
S'12-13'
p608
sg54
I01
sg55
F42.0
sg56
F1.0
sssS'2014'
p609
(dp610
g3
(dp611
g5
F0.0
sg6
F0.0
sg7
(lp612
sg46
(lp613
sg47
F0.0
sg48
F0.0
sg49
F0.0
sg50
F0.0
sg51
F0.0
sg52
(lp614
sg54
(lp615
sg55
F0.0
sg56
F0.0
ssg57
(dp616
g5
F37.0
sg6
F2.0
sg7
(lp617
(S'Blake Bortles'
p618
g10
tp619
a(S'Chad Henne'
p620
g10
tp621
a(S'Toby Gerhart'
p622
g15
tp623
a(S'Storm Johnson'
p624
g15
tp625
a(S'Denard Robinson'
p626
g15
tp627
a(S'Jordan Todman'
p628
g15
tp629
a(S'Allen Hurns'
p630
g22
tp631
a(S'Marqise Lee'
p632
g22
tp633
a(S'Allen Robinson'
p634
g22
tp635
a(S'Cecil Shorts'
p636
g22
tp637
a(S'Clay Harbor'
p638
g35
tp639
a(S'Nic Jacobs'
p640
g35
tp641
a(S'Josh Scobee'
p642
g44
tp643
asg46
I01
sg47
F24.0
sg48
F290.0
sg49
F0.0
sg50
F0.0
sg51
F0.0
sg52
S'31-17'
p644
sg54
I00
sg55
F71.0
sg56
F0.0
ssg95
(dp645
g5
F29.0
sg6
F2.0
sg7
(lp646
(S'Matt Barkley'
p647
g10
tp648
a(S'Nick Foles'
p649
g10
tp650
a(S'Mark Sanchez'
p651
g10
tp652
a(S'LeSean McCoy'
p653
g15
tp654
a(S'Chris Polk'
p655
g15
tp656
a(S'Darren Sproles'
p657
g15
tp658
a(S'Josh Huff'
p659
g22
tp660
a(S'Jeremy Maclin'
p661
g22
tp662
a(S'Jordan Matthews'
p663
g22
tp664
a(S'Trey Burton'
p665
g35
tp666
a(S'Brent Celek'
p667
g35
tp668
a(S'Zach Ertz'
p669
g35
tp670
a(S'Cody Parkey'
p671
g44
tp672
asg46
I00
sg47
F45.0
sg48
F217.0
sg49
F4.0
sg50
F1.0
sg51
F4.0
sg52
S'10-33'
p673
sg54
I01
sg55
F256.0
sg56
F0.0
ssg131
(dp674
g5
F40.0
sg6
F1.0
sg7
(lp675
(S'Eli Manning'
p676
g10
tp677
a(S'Ryan Nassib'
p678
g10
tp679
a(S'Orleans Darkwa'
p680
g15
tp681
a(S'Rashad Jennings'
p682
g15
tp683
a(S'Andre Williams'
p684
g15
tp685
a(S'Odell Beckham'
p686
g22
tp687
a(S'Rueben Randle'
p688
g22
tp689
a(S'Larry Donnell'
p690
g35
tp691
a(S'Daniel Fells'
p692
g35
tp693
a(S'Josh Brown'
p694
g44
tp695
asg46
I01
sg47
F30.0
sg48
F338.0
sg49
F0.0
sg50
F3.0
sg51
F0.0
sg52
S'31-28'
p696
sg54
I00
sg55
F85.0
sg56
F0.0
ssg171
(dp697
g5
F28.0
sg6
F3.0
sg7
(lp698
(S'Matt Barkley'
p699
g10
tp700
a(S'Nick Foles'
p701
g10
tp702
a(S'Mark Sanchez'
p703
g10
tp704
a(S'LeSean McCoy'
p705
g15
tp706
a(S'Chris Polk'
p707
g15
tp708
a(S'Darren Sproles'
p709
g15
tp710
a(S'Josh Huff'
p711
g22
tp712
a(S'Jeremy Maclin'
p713
g22
tp714
a(S'Jordan Matthews'
p715
g22
tp716
a(S'Trey Burton'
p717
g35
tp718
a(S'Brent Celek'
p719
g35
tp720
a(S'Zach Ertz'
p721
g35
tp722
a(S'Cody Parkey'
p723
g44
tp724
asg46
I01
sg47
F21.0
sg48
F252.0
sg49
F2.0
sg50
F0.0
sg51
F2.0
sg52
S'38-27'
p725
sg54
I00
sg55
F75.0
sg56
F0.0
ssg205
(dp726
g5
F46.0
sg6
F2.0
sg7
(lp727
(S'Jimmy Clausen'
p728
g10
tp729
a(S'Jay Cutler'
p730
g10
tp731
a(S"Ka'Deem Carey"
p732
g15
tp733
a(S'Matt Forte'
p734
g15
tp735
a(S'Senorise Perry'
p736
g15
tp737
a(S'Alshon Jeffery'
p738
g22
tp739
a(S'Marc Mariani'
p740
g22
tp741
a(S'Brandon Marshall'
p742
g22
tp743
a(S'Marquess Wilson'
p744
g22
tp745
a(S'Blake Annen'
p746
g35
tp747
a(S'Martellus Bennett'
p748
g35
tp749
a(S'Robbie Gould'
p750
g44
tp751
asg46
I01
sg47
F15.0
sg48
F341.0
sg49
F0.0
sg50
F2.0
sg51
F0.0
sg52
S'41-28'
p752
sg54
I00
sg55
F35.0
sg56
F0.0
ssg245
(dp753
g5
F41.0
sg6
F1.0
sg7
(lp754
(S'Kirk Cousins'
p755
g10
tp756
a(S'Robert Griffin III'
p757
g10
tp758
a(S'Roy Helu'
p759
g15
tp760
a(S'Alfred Morris'
p761
g15
tp762
a(S'Silas Redd'
p763
g15
tp764
a(S'Chris Thompson'
p765
g15
tp766
a(S'Darrel Young'
p767
g15
tp768
a(S'Pierre Garcon'
p769
g22
tp770
a(S'Ryan Grant'
p771
g22
tp772
a(S'Leonard Hankerson'
p773
g22
tp774
a(S'DeSean Jackson'
p775
g22
tp776
a(S'Andre Roberts'
p777
g22
tp778
a(S'Niles Paul'
p779
g35
tp780
a(S'Logan Paulsen'
p781
g35
tp782
a(S'Jordan Reed'
p783
g35
tp784
a(S'Kai Forbath'
p785
g44
tp786
asg46
I01
sg47
F24.0
sg48
F336.0
sg49
F1.0
sg50
F1.0
sg51
F1.0
sg52
S'44-17'
p787
sg54
I00
sg55
F104.0
sg56
F0.0
ssg279
(dp788
g5
F22.0
sg6
F0.0
sg7
(lp789
(S'Andrew Luck'
p790
g10
tp791
a(S'Dan Herron'
p792
g15
tp793
a(S'Trent Richardson'
p794
g15
tp795
a(S'T.Y. Hilton'
p796
g22
tp797
a(S'Donte Moncrief'
p798
g22
tp799
a(S'Hakeem Nicks'
p800
g22
tp801
a(S'Dwayne Allen'
p802
g35
tp803
a(S'Jack Doyle'
p804
g35
tp805
a(S'Coby Fleener'
p806
g35
tp807
a(S'Adam Vinatieri'
p808
g44
tp809
asg46
I01
sg47
F9.0
sg48
F109.0
sg49
F0.0
sg50
F0.0
sg51
F0.0
sg52
S'42-7'
p810
sg54
I01
sg55
F4.0
sg56
F0.0
ssg321
(dp811
g5
F23.0
sg6
F1.0
sg7
(lp812
(S'Blaine Gabbert'
p813
g10
tp814
a(S'Josh Johnson'
p815
g10
tp816
a(S'Colin Kaepernick'
p817
g10
tp818
a(S'Frank Gore'
p819
g15
tp820
a(S'Carlos Hyde'
p821
g15
tp822
a(S'Bruce Miller'
p823
g15
tp824
a(S'Anquan Boldin'
p825
g22
tp826
a(S'Michael Crabtree'
p827
g22
tp828
a(S'Bruce Ellington'
p829
g22
tp830
a(S'Steve Johnson'
p831
g22
tp832
a(S'Quinton Patton'
p833
g22
tp834
a(S'Derek Carrier'
p835
g35
tp836
a(S'Vernon Davis'
p837
g35
tp838
a(S'Vance McDonald'
p839
g35
tp840
a(S'Phil Dawson'
p841
g44
tp842
asg46
I00
sg47
F28.0
sg48
F201.0
sg49
F1.0
sg50
F2.0
sg51
F0.0
sg52
S'17-28'
p843
sg54
I01
sg55
F127.0
sg56
F0.0
ssg357
(dp844
g5
F42.0
sg6
F0.0
sg7
(lp845
(S'Austin Davis'
p846
g10
tp847
a(S'Shaun Hill'
p848
g10
tp849
a(S'Case Keenum'
p850
g10
tp851
a(S'Benny Cunningham'
p852
g15
tp853
a(S'Tre Mason'
p854
g15
tp855
a(S'Chase Reynolds'
p856
g15
tp857
a(S'Zac Stacy'
p858
g15
tp859
a(S'Tavon Austin'
p860
g22
tp861
a(S'Stedman Bailey'
p862
g22
tp863
a(S'Kenny Britt'
p864
g22
tp865
a(S'Chris Givens'
p866
g22
tp867
a(S'Brian Quick'
p868
g22
tp869
a(S'Jared Cook'
p870
g35
tp871
a(S'Cory Harkey'
p872
g35
tp873
a(S'Lance Kendricks'
p874
g35
tp875
a(S'Greg Zuerlein'
p876
g44
tp877
asg46
I01
sg47
F25.0
sg48
F327.0
sg49
F1.0
sg50
F3.0
sg51
F1.0
sg52
S'34-31'
p878
sg54
I00
sg55
F97.0
sg56
F0.0
ssg393
(dp879
g5
F0.0
sg6
F0.0
sg7
(lp880
(S'Zach Mettenberger'
p881
g10
tp882
a(S'Dexter McCluster'
p883
g15
tp884
a(S'Bishop Sankey'
p885
g15
tp886
a(S'T.J. Graham'
p887
g22
tp888
a(S'Justin Hunter'
p889
g22
tp890
a(S'Nate Washington'
p891
g22
tp892
a(S'Kendall Wright'
p893
g22
tp894
a(S'Craig Stevens'
p895
g35
tp896
a(S'Delanie Walker'
p897
g35
tp898
a(S'Ryan Succop'
p899
g44
tp900
asg46
I01
sg47
F6.0
sg48
F0.0
sg49
F1.0
sg50
F0.0
sg51
F1.0
sg52
S'26-10'
p901
sg54
I00
sg55
F33.0
sg56
F0.0
ssg427
(dp902
g5
F25.0
sg6
F2.0
sg7
(lp903
(S'Ryan Fitzpatrick'
p904
g10
tp905
a(S'Ryan Mallett'
p906
g10
tp907
a(S'Tom Savage'
p908
g10
tp909
a(S'Alfred Blue'
p910
g15
tp911
a(S'Arian Foster'
p912
g15
tp913
a(S'Jonathan Grimes'
p914
g15
tp915
a(S'Jay Prosch'
p916
g15
tp917
a(S'DeAndre Hopkins'
p918
g22
tp919
a(S'Andre Johnson'
p920
g22
tp921
a(S'Damaris Johnson'
p922
g22
tp923
a(S'Keshawn Martin'
p924
g22
tp925
a(S'DeVier Posey'
p926
g22
tp927
a(S'C.J. Fiedorowicz'
p928
g35
tp929
a(S'Garrett Graham'
p930
g35
tp931
a(S'Ryan Griffin'
p932
g35
tp933
a(S'Randy Bullock'
p934
g44
tp935
asg46
I01
sg47
F31.0
sg48
F154.0
sg49
F1.0
sg50
F0.0
sg51
F1.0
sg52
S'20-17'
p936
sg54
I01
sg55
F176.0
sg56
F0.0
ssg461
(dp937
g5
F44.0
sg6
F0.0
sg7
(lp938
(S'Drew Brees'
p939
g10
tp940
a(S'Luke McCown'
p941
g10
tp942
a(S'Travaris Cadet'
p943
g15
tp944
a(S'Mark Ingram'
p945
g15
tp946
a(S'Austin Johnson'
p947
g15
tp948
a(S'Khiry Robinson'
p949
g15
tp950
a(S'Pierre Thomas'
p951
g15
tp952
a(S'Marques Colston'
p953
g22
tp954
a(S'Brandin Cooks'
p955
g22
tp956
a(S'Kenny Stills'
p957
g22
tp958
a(S'Nick Toon'
p959
g22
tp960
a(S'Jimmy Graham'
p961
g35
tp962
a(S'Josh Hill'
p963
g35
tp964
a(S'Benjamin Watson'
p965
g35
tp966
a(S'Shayne Graham'
p967
g44
tp968
asg46
I01
sg47
F13.0
sg48
F340.0
sg49
F2.0
sg50
F2.0
sg51
F1.0
sg52
S'38-17'
p969
sg54
I01
sg55
F104.0
sg56
F0.0
ssg497
(dp970
g5
F33.0
sg6
F0.0
sg7
(lp971
(S'Eli Manning'
p972
g10
tp973
a(S'Ryan Nassib'
p974
g10
tp975
a(S'Rashad Jennings'
p976
g15
tp977
a(S'Andre Williams'
p978
g15
tp979
a(S'Odell Beckham'
p980
g22
tp981
a(S'Rueben Randle'
p982
g22
tp983
a(S'Larry Donnell'
p984
g35
tp985
a(S'Daniel Fells'
p986
g35
tp987
a(S'Josh Brown'
p988
g44
tp989
asg46
I01
sg47
F20.0
sg48
F248.0
sg49
F0.0
sg50
F3.0
sg51
F0.0
sg52
S'31-21'
p990
sg54
I01
sg55
F75.0
sg56
F0.0
ssg533
(dp991
g5
F28.0
sg6
F1.0
sg7
(lp992
(S'Tarvaris Jackson'
p993
g10
tp994
a(S'Russell Wilson'
p995
g10
tp996
a(S'Derrick Coleman'
p997
g15
tp998
a(S'Christine Michael'
p999
g15
tp1000
a(S'Robert Turbin'
p1001
g15
tp1002
a(S'Doug Baldwin'
p1003
g22
tp1004
a(S'Percy Harvin'
p1005
g22
tp1006
a(S'Jermaine Kearse'
p1007
g22
tp1008
a(S'Ricardo Lockette'
p1009
g22
tp1010
a(S'Kevin Norwood'
p1011
g22
tp1012
a(S'Paul Richardson'
p1013
g22
tp1014
a(S'Bryan Walters'
p1015
g22
tp1016
a(S'Cooper Helfet'
p1017
g35
tp1018
a(S'Luke Willson'
p1019
g35
tp1020
a(S'Steven Hauschka'
p1021
g44
tp1022
asg46
I01
sg47
F8.0
sg48
F126.0
sg49
F3.0
sg50
F0.0
sg51
F3.0
sg52
S'30-23'
p1023
sg54
I00
sg55
F19.0
sg56
F0.0
ssg539
(dp1024
g5
F34.0
sg6
F0.0
sg7
(lp1025
(S'Carson Palmer'
p1026
g10
tp1027
a(S'Drew Stanton'
p1028
g10
tp1029
a(S'Logan Thomas'
p1030
g10
tp1031
a(S'Andre Ellington'
p1032
g15
tp1033
a(S'Stepfan Taylor'
p1034
g15
tp1035
a(S'Kerwynn Williams'
p1036
g15
tp1037
a(S'Jaron Brown'
p1038
g22
tp1039
a(S'John Brown'
p1040
g22
tp1041
a(S'Larry Fitzgerald'
p1042
g22
tp1043
a(S'Michael Floyd'
p1044
g22
tp1045
a(S'Ted Ginn'
p1046
g22
tp1047
a(S'Darren Fells'
p1048
g35
tp1049
a(S'Rob Housler'
p1050
g35
tp1051
a(S'Troy Niklas'
p1052
g35
tp1053
a(S'Chandler Catanzaro'
p1054
g44
tp1055
asg46
I00
sg47
F24.0
sg48
F249.0
sg49
F0.0
sg50
F3.0
sg51
F0.0
sg52
S'17-28'
p1056
sg54
I01
sg55
F90.0
sg56
F0.0
ssg573
(dp1057
g5
F30.0
sg6
F2.0
sg7
(lp1058
(S'Kirk Cousins'
p1059
g10
tp1060
a(S'Robert Griffin III'
p1061
g10
tp1062
a(S'Colt McCoy'
p1063
g10
tp1064
a(S'Roy Helu'
p1065
g15
tp1066
a(S'Alfred Morris'
p1067
g15
tp1068
a(S'Silas Redd'
p1069
g15
tp1070
a(S'Darrel Young'
p1071
g15
tp1072
a(S'Pierre Garcon'
p1073
g22
tp1074
a(S'Ryan Grant'
p1075
g22
tp1076
a(S'DeSean Jackson'
p1077
g22
tp1078
a(S'Andre Roberts'
p1079
g22
tp1080
a(S'Aldrick Robinson'
p1081
g22
tp1082
a(S'Niles Paul'
p1083
g35
tp1084
a(S'Logan Paulsen'
p1085
g35
tp1086
a(S'Jordan Reed'
p1087
g35
tp1088
a(S'Kai Forbath'
p1089
g44
tp1090
asg46
I00
sg47
F31.0
sg48
F299.0
sg49
F2.0
sg50
F0.0
sg51
F2.0
sg52
S'17-20'
p1091
sg54
I01
sg55
F123.0
sg56
F0.0
sssS'2011'
p1092
(dp1093
g3
(dp1094
g5
F0.0
sg6
F0.0
sg7
(lp1095
(S'Roy Helu'
p1096
g15
tp1097
a(S'Darrel Young'
p1098
g15
tp1099
a(S'Niles Paul'
p1100
g35
tp1101
a(S'Logan Paulsen'
p1102
g35
tp1103
a(S'Graham Gano'
p1104
g44
tp1105
asg46
I01
sg47
F8.0
sg48
F0.0
sg49
F3.0
sg50
F0.0
sg51
F1.0
sg52
S'27-24'
p1106
sg54
I00
sg55
F35.0
sg56
F0.0
ssg57
(dp1107
g5
F31.0
sg6
F0.0
sg7
(lp1108
(S'Ryan Fitzpatrick'
p1109
g10
tp1110
a(S'Fred Jackson'
p1111
g15
tp1112
a(S'C.J. Spiller'
p1113
g15
tp1114
a(S'Steve Johnson'
p1115
g22
tp1116
a(S'Scott Chandler'
p1117
g35
tp1118
a(S'Lee Smith'
p1119
g35
tp1120
asg46
I01
sg47
F17.0
sg48
F146.0
sg49
F0.0
sg50
F1.0
sg51
F0.0
sg52
S'44-7'
p1121
sg54
I01
sg55
F135.0
sg56
F0.0
ssg95
(dp1122
g5
F0.0
sg6
F0.0
sg7
(lp1123
(S'Anthony Sherman'
p1124
g15
tp1125
a(S'Larry Fitzgerald'
p1126
g22
tp1127
a(S'Andre Roberts'
p1128
g22
tp1129
a(S'Jim Dray'
p1130
g35
tp1131
a(S'Rob Housler'
p1132
g35
tp1133
asg46
I00
sg47
F0.0
sg48
F0.0
sg49
F0.0
sg50
F0.0
sg51
F0.0
sg52
S'13-19'
p1134
sg54
I00
sg55
F0.0
sg56
F0.0
ssg131
(dp1135
g5
F32.0
sg6
F0.0
sg7
(lp1136
(S'Matt Moore'
p1137
g10
tp1138
a(S'Reggie Bush'
p1139
g15
tp1140
a(S'Daniel Thomas'
p1141
g15
tp1142
a(S'Brian Hartline'
p1143
g22
tp1144
a(S'Brandon Marshall'
p1145
g22
tp1146
a(S'Charles Clay'
p1147
g35
tp1148
a(S'Anthony Fasano'
p1149
g35
tp1150
a(S'Dan Carpenter'
p1151
g44
tp1152
a(S'Shayne Graham'
p1153
g44
tp1154
asg46
I01
sg47
F25.0
sg48
F288.0
sg49
F5.0
sg50
F1.0
sg51
F4.0
sg52
S'20-19'
p1155
sg54
I01
sg55
F89.0
sg56
F0.0
ssg171
(dp1156
g5
F27.0
sg6
F0.0
sg7
(lp1157
(S'Josh Freeman'
p1158
g10
tp1159
a(S'Josh Johnson'
p1160
g10
tp1161
a(S'LeGarrette Blount'
p1162
g15
tp1163
a(S'Arrelious Benn'
p1164
g22
tp1165
a(S'Mike Williams'
p1166
g22
tp1167
a(S'Luke Stocker'
p1168
g35
tp1169
a(S'Connor Barth'
p1170
g44
tp1171
asg46
I01
sg47
F13.0
sg48
F148.0
sg49
F0.0
sg50
F1.0
sg51
F0.0
sg52
S'31-15'
p1172
sg54
I00
sg55
F58.0
sg56
F0.0
ssg205
(dp1173
g5
F47.0
sg6
F0.0
sg7
(lp1174
(S'Eli Manning'
p1175
g10
tp1176
a(S'Ahmad Bradshaw'
p1177
g15
tp1178
a(S'Victor Cruz'
p1179
g22
tp1180
a(S'Hakeem Nicks'
p1181
g22
tp1182
a(S'Bear Pascoe'
p1183
g35
tp1184
asg46
I00
sg47
F10.0
sg48
F400.0
sg49
F0.0
sg50
F2.0
sg51
F0.0
sg52
S'34-37'
p1185
sg54
I01
sg55
F10.0
sg56
F0.0
ssg245
(dp1186
g5
F33.0
sg6
F1.0
sg7
(lp1187
(S'Eli Manning'
p1188
g10
tp1189
a(S'Ahmad Bradshaw'
p1190
g15
tp1191
a(S'Victor Cruz'
p1192
g22
tp1193
a(S'Hakeem Nicks'
p1194
g22
tp1195
a(S'Bear Pascoe'
p1196
g35
tp1197
asg46
I00
sg47
F22.0
sg48
F346.0
sg49
F0.0
sg50
F3.0
sg51
F0.0
sg52
S'14-31'
p1198
sg54
I00
sg55
F71.0
sg56
F0.0
ssg279
(dp1199
g5
F32.0
sg6
F0.0
sg7
(lp1200
(S'Mike Vick'
p1201
g10
tp1202
a(S'Dion Lewis'
p1203
g15
tp1204
a(S'LeSean McCoy'
p1205
g15
tp1206
a(S'Jason Avant'
p1207
g22
tp1208
a(S'DeSean Jackson'
p1209
g22
tp1210
a(S'Jeremy Maclin'
p1211
g22
tp1212
a(S'Brent Celek'
p1213
g35
tp1214
a(S'Clay Harbor'
p1215
g35
tp1216
asg46
I00
sg47
F18.0
sg48
F293.0
sg49
F0.0
sg50
F2.0
sg51
F0.0
sg52
S'7-20'
p1217
sg54
I01
sg55
F72.0
sg56
F0.0
ssg321
(dp1218
g5
F44.0
sg6
F0.0
sg7
(lp1219
(S'Mark Sanchez'
p1220
g10
tp1221
a(S'Bilal Powell'
p1222
g15
tp1223
a(S'Jeremy Kerley'
p1224
g22
tp1225
a(S'Jeff Cumberland'
p1226
g35
tp1227
a(S'Matthew Mulligan'
p1228
g35
tp1229
a(S'Nick Folk'
p1230
g44
tp1231
asg46
I00
sg47
F1.0
sg48
F335.0
sg49
F2.0
sg50
F2.0
sg51
F2.0
sg52
S'24-27'
p1232
sg54
I00
sg55
F3.0
sg56
F0.0
ssg357
(dp1233
g5
F0.0
sg6
F0.0
sg7
(lp1234
(S'Roy Helu'
p1235
g15
tp1236
a(S'Tim Hightower'
p1237
g15
tp1238
a(S'Darrel Young'
p1239
g15
tp1240
a(S'Leonard Hankerson'
p1241
g22
tp1242
a(S'Niles Paul'
p1243
g35
tp1244
a(S'Logan Paulsen'
p1245
g35
tp1246
a(S'Graham Gano'
p1247
g44
tp1248
asg46
I01
sg47
F19.0
sg48
F0.0
sg49
F4.0
sg50
F0.0
sg51
F3.0
sg52
S'18-16'
p1249
sg54
I01
sg55
F56.0
sg56
F1.0
ssg393
(dp1250
g5
F24.0
sg6
F1.0
sg7
(lp1251
(S'Colin Kaepernick'
p1252
g10
tp1253
a(S'Alex Smith'
p1254
g10
tp1255
a(S'Scott Tolzien'
p1256
g10
tp1257
a(S'Anthony Dixon'
p1258
g15
tp1259
a(S'Frank Gore'
p1260
g15
tp1261
a(S'Kendall Hunter'
p1262
g15
tp1263
a(S'Bruce Miller'
p1264
g15
tp1265
a(S'Will Tukuafu'
p1266
g15
tp1267
a(S'Michael Crabtree'
p1268
g22
tp1269
a(S'Ted Ginn'
p1270
g22
tp1271
a(S'Kyle Williams'
p1272
g22
tp1273
a(S'Vernon Davis'
p1274
g35
tp1275
a(S'Delanie Walker'
p1276
g35
tp1277
asg46
I01
sg47
F24.0
sg48
F179.0
sg49
F0.0
sg50
F2.0
sg51
F0.0
sg52
S'27-24'
p1278
sg54
I00
sg55
F74.0
sg56
F0.0
ssg427
(dp1279
g5
F0.0
sg6
F0.0
sg7
(lp1280
sg46
(lp1281
sg47
F0.0
sg48
F0.0
sg49
F0.0
sg50
F0.0
sg51
F0.0
sg52
(lp1282
sg54
(lp1283
sg55
F0.0
sg56
F0.0
ssg461
(dp1284
g5
F43.0
sg6
F0.0
sg7
(lp1285
(S'Shaun Hill'
p1286
g10
tp1287
a(S'Matthew Stafford'
p1288
g10
tp1289
a(S'Drew Stanton'
p1290
g10
tp1291
a(S'Brandon Pettigrew'
p1292
g35
tp1293
asg46
I00
sg47
F1.0
sg48
F240.0
sg49
F0.0
sg50
F2.0
sg51
F0.0
sg52
S'30-34'
p1294
sg54
I01
sg55
F-1.0
sg56
F0.0
ssg497
(dp1295
g5
F0.0
sg6
F1.0
sg7
(lp1296
(S'Sam Bradford'
p1297
g10
tp1298
a(S'Steven Jackson'
p1299
g15
tp1300
a(S'Brandon Gibson'
p1301
g22
tp1302
a(S'Greg Salas'
p1303
g22
tp1304
a(S'Michael Hoomanawanui'
p1305
g35
tp1306
a(S'Lance Kendricks'
p1307
g35
tp1308
a(S'Josh Brown'
p1309
g44
tp1310
asg46
I01
sg47
F18.0
sg48
F0.0
sg49
F0.0
sg50
F0.0
sg51
F0.0
sg52
S'34-7'
p1311
sg54
I01
sg55
F70.0
sg56
F0.0
ssg533
(dp1312
g5
F41.0
sg6
F0.0
sg7
(lp1313
(S'Tom Brady'
p1314
g10
tp1315
a(S'Brian Hoyer'
p1316
g10
tp1317
a(S'Ryan Mallett'
p1318
g10
tp1319
a(S'Stevan Ridley'
p1320
g15
tp1321
a(S'Shane Vereen'
p1322
g15
tp1323
a(S'Danny Woodhead'
p1324
g15
tp1325
a(S'Julian Edelman'
p1326
g22
tp1327
a(S'Matthew Slater'
p1328
g22
tp1329
a(S'Wes Welker'
p1330
g22
tp1331
a(S'Rob Gronkowski'
p1332
g35
tp1333
a(S'Stephen Gostkowski'
p1334
g44
tp1335
asg46
I00
sg47
F11.0
sg48
F289.0
sg49
F2.0
sg50
F2.0
sg51
F2.0
sg52
S'16-20'
p1336
sg54
I00
sg55
F43.0
sg56
F0.0
ssg539
(dp1337
g5
F30.0
sg6
F0.0
sg7
(lp1338
(S'Tarvaris Jackson'
p1339
g10
tp1340
a(S'Justin Forsett'
p1341
g15
tp1342
a(S'Doug Baldwin'
p1343
g22
tp1344
a(S'Golden Tate'
p1345
g22
tp1346
a(S'Anthony McCoy'
p1347
g35
tp1348
a(S'Steven Hauschka'
p1349
g44
tp1350
asg46
I01
sg47
F4.0
sg48
F221.0
sg49
F3.0
sg50
F0.0
sg51
F2.0
sg52
S'23-13'
p1351
sg54
I01
sg55
F11.0
sg56
F1.0
ssg573
(dp1352
g5
F28.0
sg6
F2.0
sg7
(lp1353
(S'Mike Vick'
p1354
g10
tp1355
a(S'Dion Lewis'
p1356
g15
tp1357
a(S'LeSean McCoy'
p1358
g15
tp1359
a(S'Jason Avant'
p1360
g22
tp1361
a(S'DeSean Jackson'
p1362
g22
tp1363
a(S'Jeremy Maclin'
p1364
g22
tp1365
a(S'Brent Celek'
p1366
g35
tp1367
a(S'Clay Harbor'
p1368
g35
tp1369
asg46
I00
sg47
F37.0
sg48
F279.0
sg49
F0.0
sg50
F2.0
sg51
F0.0
sg52
S'7-34'
p1370
sg54
I00
sg55
F235.0
sg56
F0.0
sssS'2010'
p1371
(dp1372
g3
(dp1373
g5
F47.0
sg6
F0.0
sg7
(lp1374
(S'Shaun Hill'
p1375
g10
tp1376
a(S'Matthew Stafford'
p1377
g10
tp1378
a(S'Drew Stanton'
p1379
g10
tp1380
a(S'Jerome Felton'
p1381
g15
tp1382
a(S'Brandon Pettigrew'
p1383
g35
tp1384
asg46
I01
sg47
F4.0
sg48
F289.0
sg49
F0.0
sg50
F2.0
sg51
F0.0
sg52
S'35-19'
p1385
sg54
I01
sg55
F14.0
sg56
F0.0
ssg57
(dp1386
g5
F48.0
sg6
F0.0
sg7
(lp1387
(S'Eli Manning'
p1388
g10
tp1389
a(S'Ahmad Bradshaw'
p1390
g15
tp1391
a(S'Hakeem Nicks'
p1392
g22
tp1393
a(S'Bear Pascoe'
p1394
g35
tp1395
asg46
I01
sg47
F23.0
sg48
F373.0
sg49
F0.0
sg50
F2.0
sg51
F0.0
sg52
S'33-20'
p1396
sg54
I00
sg55
F90.0
sg56
F0.0
ssg95
(dp1397
g5
F0.0
sg6
F0.0
sg7
(lp1398
(S'Donald Brown'
p1399
g15
tp1400
a(S'Pierre Garcon'
p1401
g22
tp1402
a(S'Jacob Tamme'
p1403
g35
tp1404
a(S'Adam Vinatieri'
p1405
g44
tp1406
asg46
I01
sg47
F5.0
sg48
F0.0
sg49
F0.0
sg50
F0.0
sg51
F0.0
sg52
S'38-35'
p1407
sg54
I00
sg55
F15.0
sg56
F0.0
ssg131
(dp1408
g5
F39.0
sg6
F2.0
sg7
(lp1409
(S'Drew Brees'
p1410
g10
tp1411
a(S'Chase Daniel'
p1412
g10
tp1413
a(S'Reggie Bush'
p1414
g15
tp1415
a(S'Chris Ivory'
p1416
g15
tp1417
a(S'Pierre Thomas'
p1418
g15
tp1419
a(S'Marques Colston'
p1420
g22
tp1421
a(S'Lance Moore'
p1422
g22
tp1423
a(S'Jimmy Graham'
p1424
g35
tp1425
asg46
I00
sg47
F11.0
sg48
F352.0
sg49
F0.0
sg50
F1.0
sg51
F0.0
sg52
S'27-30'
p1426
sg54
I01
sg55
F36.0
sg56
F0.0
ssg171
(dp1427
g5
F0.0
sg6
F0.0
sg7
(lp1428
(S'Darrel Young'
p1429
g15
tp1430
a(S'Logan Paulsen'
p1431
g35
tp1432
a(S'Graham Gano'
p1433
g44
tp1434
asg46
I01
sg47
F0.0
sg48
F0.0
sg49
F0.0
sg50
F0.0
sg51
F0.0
sg52
S'33-30'
p1435
sg54
I01
sg55
F0.0
sg56
F0.0
ssg205
(dp1436
g5
F26.0
sg6
F1.0
sg7
(lp1437
(S'Mike Vick'
p1438
g10
tp1439
a(S'LeSean McCoy'
p1440
g15
tp1441
a(S'Jason Avant'
p1442
g22
tp1443
a(S'DeSean Jackson'
p1444
g22
tp1445
a(S'Jeremy Maclin'
p1446
g22
tp1447
a(S'Brent Celek'
p1448
g35
tp1449
a(S'Clay Harbor'
p1450
g35
tp1451
asg46
I00
sg47
F26.0
sg48
F270.0
sg49
F0.0
sg50
F2.0
sg51
F0.0
sg52
S'27-30'
p1452
sg54
I01
sg55
F171.0
sg56
F0.0
ssg245
(dp1453
g5
F0.0
sg6
F0.0
sg7
(lp1454
(S'Mike Vick'
p1455
g10
tp1456
a(S'LeSean McCoy'
p1457
g15
tp1458
a(S'Jason Avant'
p1459
g22
tp1460
a(S'DeSean Jackson'
p1461
g22
tp1462
a(S'Jeremy Maclin'
p1463
g22
tp1464
a(S'Brent Celek'
p1465
g35
tp1466
a(S'Clay Harbor'
p1467
g35
tp1468
asg46
I01
sg47
F0.0
sg48
F0.0
sg49
F0.0
sg50
F0.0
sg51
F0.0
sg52
S'14-13'
p1469
sg54
I00
sg55
F0.0
sg56
F0.0
ssg279
(dp1470
g5
F0.0
sg6
F0.0
sg7
(lp1471
(S'Derek Anderson'
p1472
g10
tp1473
a(S'Tim Hightower'
p1474
g15
tp1475
a(S'Larry Fitzgerald'
p1476
g22
tp1477
a(S'Andre Roberts'
p1478
g22
tp1479
a(S'Jim Dray'
p1480
g35
tp1481
asg46
I00
sg47
F6.0
sg48
F0.0
sg49
F0.0
sg50
F0.0
sg51
F0.0
sg52
S'26-27'
p1482
sg54
I00
sg55
F23.0
sg56
F0.0
ssg321
(dp1483
g5
F0.0
sg6
F0.0
sg7
(lp1484
(S'Darrel Young'
p1485
g15
tp1486
a(S'Logan Paulsen'
p1487
g35
tp1488
a(S'Graham Gano'
p1489
g44
tp1490
asg46
I00
sg47
F0.0
sg48
F0.0
sg49
F2.0
sg50
F0.0
sg51
F2.0
sg52
S'7-13'
p1491
sg54
I00
sg55
F0.0
sg56
F0.0
ssg357
(dp1492
g5
F32.0
sg6
F0.0
sg7
(lp1493
(S'Dan Orlovsky'
p1494
g10
tp1495
a(S'Matt Schaub'
p1496
g10
tp1497
a(S'Arian Foster'
p1498
g15
tp1499
a(S'Andre Johnson'
p1500
g22
tp1501
a(S'Owen Daniels'
p1502
g35
tp1503
a(S'Dorin Dickerson'
p1504
g35
tp1505
a(S'Garrett Graham'
p1506
g35
tp1507
asg46
I01
sg47
F17.0
sg48
F241.0
sg49
F0.0
sg50
F1.0
sg51
F0.0
sg52
S'27-13'
p1508
sg54
I00
sg55
F106.0
sg56
F0.0
ssg393
(dp1509
g5
F29.0
sg6
F0.0
sg7
(lp1510
(S'Jay Cutler'
p1511
g10
tp1512
a(S'Matt Forte'
p1513
g15
tp1514
a(S'Devin Hester'
p1515
g22
tp1516
a(S'Kellen Davis'
p1517
g35
tp1518
a(S'Greg Olsen'
p1519
g35
tp1520
a(S'Robbie Gould'
p1521
g44
tp1522
asg46
I00
sg47
F15.0
sg48
F277.0
sg49
F2.0
sg50
F3.0
sg51
F2.0
sg52
S'20-27'
p1523
sg54
I01
sg55
F32.0
sg56
F0.0
ssg427
(dp1524
g5
F0.0
sg6
F2.0
sg7
(lp1525
(S'Chris Johnson'
p1526
g15
tp1527
a(S'Kenny Britt'
p1528
g22
tp1529
a(S'Marc Mariani'
p1530
g22
tp1531
a(S'Nate Washington'
p1532
g22
tp1533
a(S'Jared Cook'
p1534
g35
tp1535
a(S'Craig Stevens'
p1536
g35
tp1537
asg46
I00
sg47
F19.0
sg48
F0.0
sg49
F0.0
sg50
F0.0
sg51
F0.0
sg52
S'27-34'
p1538
sg54
I01
sg55
F131.0
sg56
F0.0
ssg461
(dp1539
g5
F0.0
sg6
F0.0
sg7
(lp1540
sg46
(lp1541
sg47
F0.0
sg48
F0.0
sg49
F0.0
sg50
F0.0
sg51
F0.0
sg52
(lp1542
sg54
(lp1543
sg55
F0.0
sg56
F0.0
ssg497
(dp1544
g5
F35.0
sg6
F0.0
sg7
(lp1545
(S'Eli Manning'
p1546
g10
tp1547
a(S'Ahmad Bradshaw'
p1548
g15
tp1549
a(S'Hakeem Nicks'
p1550
g22
tp1551
a(S'Bear Pascoe'
p1552
g35
tp1553
asg46
I00
sg47
F25.0
sg48
F306.0
sg49
F0.0
sg50
F4.0
sg51
F0.0
sg52
S'35-41'
p1554
sg54
I01
sg55
F125.0
sg56
F0.0
ssg533
(dp1555
g5
F0.0
sg6
F1.0
sg7
(lp1556
(S'Tarvaris Jackson'
p1557
g10
tp1558
a(S'Joe Webb'
p1559
g10
tp1560
a(S'Toby Gerhart'
p1561
g15
tp1562
a(S'Adrian Peterson'
p1563
g15
tp1564
a(S'Percy Harvin'
p1565
g22
tp1566
asg46
I00
sg47
F27.0
sg48
F0.0
sg49
F0.0
sg50
F0.0
sg51
F0.0
sg52
S'21-24'
p1567
sg54
I00
sg55
F95.0
sg56
F0.0
ssg539
(dp1568
g5
F35.0
sg6
F0.0
sg7
(lp1569
(S'Matt Flynn'
p1570
g10
tp1571
a(S'Aaron Rodgers'
p1572
g10
tp1573
a(S'John Kuhn'
p1574
g15
tp1575
a(S'Greg Jennings'
p1576
g22
tp1577
a(S'James Jones'
p1578
g22
tp1579
a(S'Jordy Nelson'
p1580
g22
tp1581
a(S'Andrew Quarless'
p1582
g35
tp1583
a(S'Mason Crosby'
p1584
g44
tp1585
asg46
I00
sg47
F18.0
sg48
F289.0
sg49
F2.0
sg50
F3.0
sg51
F1.0
sg52
S'7-45'
p1586
sg54
I00
sg55
F91.0
sg56
F1.0
ssg573
(dp1587
g5
F0.0
sg6
F0.0
sg7
(lp1588
(S'Rashad Jennings'
p1589
g15
tp1590
a(S'Marcedes Lewis'
p1591
g35
tp1592
a(S'Zach Miller'
p1593
g35
tp1594
a(S'Josh Scobee'
p1595
g44
tp1596
asg46
I00
sg47
F0.0
sg48
F0.0
sg49
F0.0
sg50
F0.0
sg51
F0.0
sg52
S'17-35'
p1597
sg54
I01
sg55
F0.0
sg56
F0.0
sssS'2013'
p1598
(dp1599
g3
(dp1600
g5
F0.0
sg6
F0.0
sg7
(lp1601
sg46
(lp1602
sg47
F0.0
sg48
F0.0
sg49
F0.0
sg50
F0.0
sg51
F0.0
sg52
(lp1603
sg54
(lp1604
sg55
F0.0
sg56
F0.0
ssg57
(dp1605
g5
F41.0
sg6
F3.0
sg7
(lp1606
(S'Drew Brees'
p1607
g10
tp1608
a(S'Ryan Griffin'
p1609
g10
tp1610
a(S'Luke McCown'
p1611
g10
tp1612
a(S'Travaris Cadet'
p1613
g15
tp1614
a(S'Mark Ingram'
p1615
g15
tp1616
a(S'Khiry Robinson'
p1617
g15
tp1618
a(S'Darren Sproles'
p1619
g15
tp1620
a(S'Pierre Thomas'
p1621
g15
tp1622
a(S'Marques Colston'
p1623
g22
tp1624
a(S'Lance Moore'
p1625
g22
tp1626
a(S'Kenny Stills'
p1627
g22
tp1628
a(S'Nick Toon'
p1629
g22
tp1630
a(S'Jimmy Graham'
p1631
g35
tp1632
a(S'Josh Hill'
p1633
g35
tp1634
a(S'Benjamin Watson'
p1635
g35
tp1636
asg46
I00
sg47
F38.0
sg48
F392.0
sg49
F0.0
sg50
F4.0
sg51
F0.0
sg52
S'17-49'
p1637
sg54
I00
sg55
F242.0
sg56
F0.0
ssg95
(dp1638
g5
F30.0
sg6
F2.0
sg7
(lp1639
(S'Matt McGloin'
p1640
g10
tp1641
a(S'Rashad Jennings'
p1642
g15
tp1643
a(S'Taiwan Jones'
p1644
g15
tp1645
a(S'Darren McFadden'
p1646
g15
tp1647
a(S'Jamize Olawale'
p1648
g15
tp1649
a(S'Marcel Reece'
p1650
g15
tp1651
a(S'Brice Butler'
p1652
g22
tp1653
a(S'Andre Holmes'
p1654
g22
tp1655
a(S'Terrelle Pryor'
p1656
g22
tp1657
a(S'Rod Streater'
p1658
g22
tp1659
a(S'Mychal Rivera'
p1660
g35
tp1661
a(S'Sebastian Janikowski'
p1662
g44
tp1663
asg46
I01
sg47
F24.0
sg48
F255.0
sg49
F1.0
sg50
F0.0
sg51
F1.0
sg52
S'31-24'
p1664
sg54
I01
sg55
F47.0
sg56
F0.0
ssg131
(dp1665
g5
F30.0
sg6
F0.0
sg7
(lp1666
(S'Eli Manning'
p1667
g10
tp1668
a(S'Ryan Nassib'
p1669
g10
tp1670
a(S'Victor Cruz'
p1671
g22
tp1672
a(S'Louis Murphy'
p1673
g22
tp1674
a(S'Hakeem Nicks'
p1675
g22
tp1676
a(S'Rueben Randle'
p1677
g22
tp1678
a(S'Larry Donnell'
p1679
g35
tp1680
a(S'Brandon Myers'
p1681
g35
tp1682
a(S'Bear Pascoe'
p1683
g35
tp1684
a(S'Josh Brown'
p1685
g44
tp1686
asg46
I01
sg47
F0.0
sg48
F174.0
sg49
F2.0
sg50
F2.0
sg51
F2.0
sg52
S'24-21'
p1687
sg54
I00
sg55
F0.0
sg56
F0.0
ssg171
(dp1688
g5
F39.0
sg6
F1.0
sg7
(lp1689
(S'Matt Flynn'
p1690
g10
tp1691
a(S'Aaron Rodgers'
p1692
g10
tp1693
a(S'Scott Tolzien'
p1694
g10
tp1695
a(S'John Kuhn'
p1696
g15
tp1697
a(S'Eddie Lacy'
p1698
g15
tp1699
a(S'James Starks'
p1700
g15
tp1701
a(S'Jarrett Boykin'
p1702
g22
tp1703
a(S'James Jones'
p1704
g22
tp1705
a(S'Jordy Nelson'
p1706
g22
tp1707
a(S'Brandon Bostick'
p1708
g35
tp1709
a(S'Andrew Quarless'
p1710
g35
tp1711
a(S'Jake Stoneburner'
p1712
g35
tp1713
a(S'Mason Crosby'
p1714
g44
tp1715
asg46
I00
sg47
F27.0
sg48
F299.0
sg49
F1.0
sg50
F4.0
sg51
F1.0
sg52
S'36-37'
p1716
sg54
I01
sg55
F150.0
sg56
F0.0
ssg205
(dp1717
g5
F36.0
sg6
F1.0
sg7
(lp1718
(S'Jay Cutler'
p1719
g10
tp1720
a(S'Josh McCown'
p1721
g10
tp1722
a(S'Matt Forte'
p1723
g15
tp1724
a(S'Devin Hester'
p1725
g22
tp1726
a(S'Alshon Jeffery'
p1727
g22
tp1728
a(S'Brandon Marshall'
p1729
g22
tp1730
a(S'Eric Weems'
p1731
g22
tp1732
a(S'Marquess Wilson'
p1733
g22
tp1734
a(S'Martellus Bennett'
p1735
g35
tp1736
a(S'Robbie Gould'
p1737
g44
tp1738
asg46
I00
sg47
F24.0
sg48
F348.0
sg49
F3.0
sg50
F4.0
sg51
F3.0
sg52
S'28-45'
p1739
sg54
I00
sg55
F111.0
sg56
F0.0
ssg245
(dp1740
g5
F26.0
sg6
F1.0
sg7
(lp1741
(S'Matt Barkley'
p1742
g10
tp1743
a(S'Nick Foles'
p1744
g10
tp1745
a(S'Mike Vick'
p1746
g10
tp1747
a(S'Bryce Brown'
p1748
g15
tp1749
a(S'LeSean McCoy'
p1750
g15
tp1751
a(S'Chris Polk'
p1752
g15
tp1753
a(S'Jason Avant'
p1754
g22
tp1755
a(S'DeSean Jackson'
p1756
g22
tp1757
a(S'Damaris Johnson'
p1758
g22
tp1759
a(S'Brent Celek'
p1760
g35
tp1761
a(S'Zach Ertz'
p1762
g35
tp1763
asg46
I00
sg47
F34.0
sg48
F263.0
sg49
F0.0
sg50
F2.0
sg51
F0.0
sg52
S'22-24'
p1764
sg54
I01
sg55
F137.0
sg56
F0.0
ssg279
(dp1765
g5
F36.0
sg6
F1.0
sg7
(lp1766
(S'Kirk Cousins'
p1767
g10
tp1768
a(S'Robert Griffin III'
p1769
g10
tp1770
a(S'Roy Helu'
p1771
g15
tp1772
a(S'Alfred Morris'
p1773
g15
tp1774
a(S'Darrel Young'
p1775
g15
tp1776
a(S'Josh Bellamy'
p1777
g22
tp1778
a(S'Pierre Garcon'
p1779
g22
tp1780
a(S'Aldrick Robinson'
p1781
g22
tp1782
a(S'Nick Williams'
p1783
g22
tp1784
a(S'Niles Paul'
p1785
g35
tp1786
a(S'Logan Paulsen'
p1787
g35
tp1788
a(S'Kai Forbath'
p1789
g44
tp1790
asg46
I01
sg47
F27.0
sg48
F197.0
sg49
F3.0
sg50
F1.0
sg51
F3.0
sg52
S'24-23'
p1791
sg54
I00
sg55
F96.0
sg56
F0.0
ssg321
(dp1792
g5
F42.0
sg6
F0.0
sg7
(lp1793
(S'Eli Manning'
p1794
g10
tp1795
a(S'Ryan Nassib'
p1796
g10
tp1797
a(S'Victor Cruz'
p1798
g22
tp1799
a(S'Louis Murphy'
p1800
g22
tp1801
a(S'Hakeem Nicks'
p1802
g22
tp1803
a(S'Rueben Randle'
p1804
g22
tp1805
a(S'Larry Donnell'
p1806
g35
tp1807
a(S'Brandon Myers'
p1808
g35
tp1809
a(S'Bear Pascoe'
p1810
g35
tp1811
a(S'Josh Brown'
p1812
g44
tp1813
asg46
I01
sg47
F2.0
sg48
F450.0
sg49
F1.0
sg50
F4.0
sg51
F1.0
sg52
S'36-31'
p1814
sg54
I01
sg55
F8.0
sg56
F0.0
ssg357
(dp1815
g5
F48.0
sg6
F0.0
sg7
(lp1816
(S'Sam Bradford'
p1817
g10
tp1818
a(S'Kellen Clemens'
p1819
g10
tp1820
a(S'Benny Cunningham'
p1821
g15
tp1822
a(S'Isaiah Pead'
p1823
g15
tp1824
a(S'Chase Reynolds'
p1825
g15
tp1826
a(S'Daryl Richardson'
p1827
g15
tp1828
a(S'Zac Stacy'
p1829
g15
tp1830
a(S'Tavon Austin'
p1831
g22
tp1832
a(S'Stedman Bailey'
p1833
g22
tp1834
a(S'Chris Givens'
p1835
g22
tp1836
a(S'Brian Quick'
p1837
g22
tp1838
a(S'Jared Cook'
p1839
g35
tp1840
a(S'Cory Harkey'
p1841
g35
tp1842
a(S'Lance Kendricks'
p1843
g35
tp1844
a(S'Greg Zuerlein'
p1845
g44
tp1846
asg46
I01
sg47
F12.0
sg48
F240.0
sg49
F0.0
sg50
F1.0
sg51
F0.0
sg52
S'31-7'
p1847
sg54
I01
sg55
F35.0
sg56
F0.0
ssg393
(dp1848
g5
F36.0
sg6
F0.0
sg7
(lp1849
(S'Tyler Bray'
p1850
g10
tp1851
a(S'Chase Daniel'
p1852
g10
tp1853
a(S'Alex Smith'
p1854
g10
tp1855
a(S'Jamaal Charles'
p1856
g15
tp1857
a(S'Knile Davis'
p1858
g15
tp1859
a(S'Cyrus Gray'
p1860
g15
tp1861
a(S'Dexter McCluster'
p1862
g15
tp1863
a(S'Anthony Sherman'
p1864
g15
tp1865
a(S'Dwayne Bowe'
p1866
g22
tp1867
a(S'Anthony Fasano'
p1868
g35
tp1869
a(S'Travis Kelce'
p1870
g35
tp1871
a(S'Sean McGrath'
p1872
g35
tp1873
a(S'Ryan Succop'
p1874
g44
tp1875
asg46
I00
sg47
F24.0
sg48
F223.0
sg49
F2.0
sg50
F2.0
sg51
F1.0
sg52
S'16-17'
p1876
sg54
I00
sg55
F112.0
sg56
F1.0
ssg427
(dp1877
g5
F0.0
sg6
F0.0
sg7
(lp1878
(S'Zac Dysert'
p1879
g10
tp1880
a(S'Brock Osweiler'
p1881
g10
tp1882
a(S'C.J. Anderson'
p1883
g15
tp1884
a(S'Ronnie Hillman'
p1885
g15
tp1886
a(S'Andre Caldwell'
p1887
g22
tp1888
a(S'Eric Decker'
p1889
g22
tp1890
a(S'Demaryius Thomas'
p1891
g22
tp1892
a(S'Wes Welker'
p1893
g22
tp1894
a(S'Virgil Green'
p1895
g35
tp1896
a(S'Jacob Tamme'
p1897
g35
tp1898
a(S'Julius Thomas'
p1899
g35
tp1900
a(S'Matt Prater'
p1901
g44
tp1902
asg46
I00
sg47
F7.0
sg48
F0.0
sg49
F3.0
sg50
F0.0
sg51
F3.0
sg52
S'48-51'
p1903
sg54
I01
sg55
F17.0
sg56
F0.0
ssg461
(dp1904
g5
F42.0
sg6
F0.0
sg7
(lp1905
(S'Philip Rivers'
p1906
g10
tp1907
a(S'Ryan Mathews'
p1908
g15
tp1909
a(S'Danny Woodhead'
p1910
g15
tp1911
a(S'Seyi Ajirotutu'
p1912
g22
tp1913
a(S'Keenan Allen'
p1914
g22
tp1915
a(S'Vincent Brown'
p1916
g22
tp1917
a(S'Malcom Floyd'
p1918
g22
tp1919
a(S'Eddie Royal'
p1920
g22
tp1921
a(S'Antonio Gates'
p1922
g35
tp1923
a(S'Ladarius Green'
p1924
g35
tp1925
a(S'John Phillips'
p1926
g35
tp1927
a(S'Nick Novak'
p1928
g44
tp1929
asg46
I00
sg47
F24.0
sg48
F401.0
sg49
F3.0
sg50
F3.0
sg51
F3.0
sg52
S'21-30'
p1930
sg54
I00
sg55
F94.0
sg56
F0.0
ssg497
(dp1931
g5
F49.0
sg6
F0.0
sg7
(lp1932
(S'Matt Barkley'
p1933
g10
tp1934
a(S'Nick Foles'
p1935
g10
tp1936
a(S'Mike Vick'
p1937
g10
tp1938
a(S'Bryce Brown'
p1939
g15
tp1940
a(S'LeSean McCoy'
p1941
g15
tp1942
a(S'Chris Polk'
p1943
g15
tp1944
a(S'Jason Avant'
p1945
g22
tp1946
a(S'DeSean Jackson'
p1947
g22
tp1948
a(S'Damaris Johnson'
p1949
g22
tp1950
a(S'Brent Celek'
p1951
g35
tp1952
a(S'Zach Ertz'
p1953
g35
tp1954
asg46
I01
sg47
F23.0
sg48
F209.0
sg49
F0.0
sg50
F0.0
sg51
F0.0
sg52
S'17-3'
p1955
sg54
I00
sg55
F84.0
sg56
F0.0
ssg533
(dp1956
g5
F39.0
sg6
F1.0
sg7
(lp1957
(S'Kirk Cousins'
p1958
g10
tp1959
a(S'Robert Griffin III'
p1960
g10
tp1961
a(S'Roy Helu'
p1962
g15
tp1963
a(S'Alfred Morris'
p1964
g15
tp1965
a(S'Chris Thompson'
p1966
g15
tp1967
a(S'Darrel Young'
p1968
g15
tp1969
a(S'Pierre Garcon'
p1970
g22
tp1971
a(S'Leonard Hankerson'
p1972
g22
tp1973
a(S'Aldrick Robinson'
p1974
g22
tp1975
a(S'Niles Paul'
p1976
g35
tp1977
a(S'Logan Paulsen'
p1978
g35
tp1979
a(S'Jordan Reed'
p1980
g35
tp1981
a(S'Kai Forbath'
p1982
g44
tp1983
asg46
I01
sg47
F32.0
sg48
F246.0
sg49
F4.0
sg50
F0.0
sg51
F3.0
sg52
S'31-16'
p1984
sg54
I01
sg55
F219.0
sg56
F0.0
ssg539
(dp1985
g5
F0.0
sg6
F1.0
sg7
(lp1986
(S'Matt Cassel'
p1987
g10
tp1988
a(S'Josh Freeman'
p1989
g10
tp1990
a(S'Joe Webb'
p1991
g10
tp1992
a(S'Matt Asiata'
p1993
g15
tp1994
a(S'Jerome Felton'
p1995
g15
tp1996
a(S'Toby Gerhart'
p1997
g15
tp1998
a(S'Adrian Peterson'
p1999
g15
tp2000
a(S'Greg Jennings'
p2001
g22
tp2002
a(S'Cordarrelle Patterson'
p2003
g22
tp2004
a(S'Jerome Simpson'
p2005
g22
tp2006
a(S'Rodney Smith'
p2007
g22
tp2008
a(S'Jarius Wright'
p2009
g22
tp2010
a(S'Rhett Ellison'
p2011
g35
tp2012
a(S'Kyle Rudolph'
p2013
g35
tp2014
a(S'Blair Walsh'
p2015
g44
tp2016
asg46
I01
sg47
F25.0
sg48
F0.0
sg49
F1.0
sg50
F0.0
sg51
F1.0
sg52
S'27-23'
p2017
sg54
I01
sg55
F140.0
sg56
F0.0
ssg573
(dp2018
g5
F48.0
sg6
F2.0
sg7
(lp2019
(S'Shaun Hill'
p2020
g10
tp2021
a(S'Kellen Moore'
p2022
g10
tp2023
a(S'Matthew Stafford'
p2024
g10
tp2025
a(S'Reggie Bush'
p2026
g15
tp2027
a(S'Theo Riddick'
p2028
g15
tp2029
a(S'Jeremy Ross'
p2030
g22
tp2031
a(S'Brandon Pettigrew'
p2032
g35
tp2033
asg46
I00
sg47
F25.0
sg48
F488.0
sg49
F0.0
sg50
F1.0
sg51
F0.0
sg52
S'30-31'
p2034
sg54
I00
sg55
F111.0
sg56
F0.0
sssS'2012'
p2035
(dp2036
g3
(dp2037
g5
F35.0
sg6
F0.0
sg7
(lp2038
(S'Colt McCoy'
p2039
g10
tp2040
a(S'Brandon Weeden'
p2041
g10
tp2042
a(S'Trent Richardson'
p2043
g15
tp2044
a(S'Travis Benjamin'
p2045
g22
tp2046
a(S'Josh Gordon'
p2047
g22
tp2048
a(S'Greg Little'
p2049
g22
tp2050
a(S'Jordan Cameron'
p2051
g35
tp2052
a(S'Alex Smith'
p2053
g35
tp2054
a(S'Benjamin Watson'
p2055
g35
tp2056
a(S'Phil Dawson'
p2057
g44
tp2058
asg46
I01
sg47
F28.0
sg48
F210.0
sg49
F2.0
sg50
F2.0
sg51
F2.0
sg52
S'23-20'
p2059
sg54
I01
sg55
F95.0
sg56
F0.0
ssg57
(dp2060
g5
F41.0
sg6
F0.0
sg7
(lp2061
(S'Nick Foles'
p2062
g10
tp2063
a(S'Mike Vick'
p2064
g10
tp2065
a(S'Bryce Brown'
p2066
g15
tp2067
a(S'Dion Lewis'
p2068
g15
tp2069
a(S'LeSean McCoy'
p2070
g15
tp2071
a(S'Chris Polk'
p2072
g15
tp2073
a(S'Jason Avant'
p2074
g22
tp2075
a(S'DeSean Jackson'
p2076
g22
tp2077
a(S'Damaris Johnson'
p2078
g22
tp2079
a(S'Jeremy Maclin'
p2080
g22
tp2081
a(S'Brent Celek'
p2082
g35
tp2083
a(S'Clay Harbor'
p2084
g35
tp2085
asg46
I01
sg47
F22.0
sg48
F289.0
sg49
F0.0
sg50
F2.0
sg51
F0.0
sg52
S'38-23'
p2086
sg54
I00
sg55
F90.0
sg56
F0.0
ssg95
(dp2087
g5
F34.0
sg6
F2.0
sg7
(lp2088
(S'Nick Foles'
p2089
g10
tp2090
a(S'Mike Vick'
p2091
g10
tp2092
a(S'Bryce Brown'
p2093
g15
tp2094
a(S'Dion Lewis'
p2095
g15
tp2096
a(S'LeSean McCoy'
p2097
g15
tp2098
a(S'Chris Polk'
p2099
g15
tp2100
a(S'Jason Avant'
p2101
g22
tp2102
a(S'Damaris Johnson'
p2103
g22
tp2104
a(S'Jeremy Maclin'
p2105
g22
tp2106
a(S'Greg Salas'
p2107
g22
tp2108
a(S'Brent Celek'
p2109
g35
tp2110
a(S'Clay Harbor'
p2111
g35
tp2112
asg46
I01
sg47
F26.0
sg48
F251.0
sg49
F0.0
sg50
F1.0
sg51
F0.0
sg52
S'38-33'
p2113
sg54
I01
sg55
F183.0
sg56
F0.0
ssg131
(dp2114
g5
F27.0
sg6
F1.0
sg7
(lp2115
(S'Kirk Cousins'
p2116
g10
tp2117
a(S'Robert Griffin III'
p2118
g10
tp2119
a(S'Alfred Morris'
p2120
g15
tp2121
a(S'Darrel Young'
p2122
g15
tp2123
a(S'Pierre Garcon'
p2124
g22
tp2125
a(S'Leonard Hankerson'
p2126
g22
tp2127
a(S'Aldrick Robinson'
p2128
g22
tp2129
a(S'Niles Paul'
p2130
g35
tp2131
a(S'Logan Paulsen'
p2132
g35
tp2133
a(S'Kai Forbath'
p2134
g44
tp2135
asg46
I00
sg47
F32.0
sg48
F304.0
sg49
F1.0
sg50
F4.0
sg51
F1.0
sg52
S'31-38'
p2136
sg54
I01
sg55
F149.0
sg56
F0.0
ssg171
(dp2137
g5
F40.0
sg6
F0.0
sg7
(lp2138
(S'Ben Roethlisberger'
p2139
g10
tp2140
a(S'Will Johnson'
p2141
g15
tp2142
a(S'Antonio Brown'
p2143
g22
tp2144
a(S'Jerricho Cotchery'
p2145
g22
tp2146
a(S'Emmanuel Sanders'
p2147
g22
tp2148
a(S'Mike Wallace'
p2149
g22
tp2150
a(S'Shaun Suisham'
p2151
g44
tp2152
asg46
I01
sg47
F2.0
sg48
F339.0
sg49
F1.0
sg50
F2.0
sg51
F1.0
sg52
S'27-24'
p2153
sg54
I01
sg55
F2.0
sg56
F0.0
ssg205
(dp2154
g5
F33.0
sg6
F0.0
sg7
(lp2155
(S'Andy Dalton'
p2156
g10
tp2157
a(S'Bruce Gradkowski'
p2158
g10
tp2159
a(S'Dan Herron'
p2160
g15
tp2161
a(S'Cedric Peerman'
p2162
g15
tp2163
a(S'A.J. Green'
p2164
g22
tp2165
a(S'Andrew Hawkins'
p2166
g22
tp2167
a(S'Marvin Jones'
p2168
g22
tp2169
a(S'Brandon Tate'
p2170
g22
tp2171
a(S'Orson Charles'
p2172
g35
tp2173
a(S'Jermaine Gresham'
p2174
g35
tp2175
a(S'Josh Brown'
p2176
g44
tp2177
a(S'Mike Nugent'
p2178
g44
tp2179
asg46
I01
sg47
F2.0
sg48
F206.0
sg49
F4.0
sg50
F1.0
sg51
F4.0
sg52
S'20-19'
p2180
sg54
I00
sg55
F37.0
sg56
F0.0
ssg245
(dp2181
g5
F18.0
sg6
F4.0
sg7
(lp2182
(S'Kirk Cousins'
p2183
g10
tp2184
a(S'Robert Griffin III'
p2185
g10
tp2186
a(S'Alfred Morris'
p2187
g15
tp2188
a(S'Darrel Young'
p2189
g15
tp2190
a(S'Pierre Garcon'
p2191
g22
tp2192
a(S'Leonard Hankerson'
p2193
g22
tp2194
a(S'Aldrick Robinson'
p2195
g22
tp2196
a(S'Niles Paul'
p2197
g35
tp2198
a(S'Logan Paulsen'
p2199
g35
tp2200
a(S'Kai Forbath'
p2201
g44
tp2202
asg46
I00
sg47
F39.0
sg48
F100.0
sg49
F1.0
sg50
F0.0
sg51
F0.0
sg52
S'18-28'
p2203
sg54
I00
sg55
F263.0
sg56
F0.0
ssg279
(dp2204
g5
F53.0
sg6
F1.0
sg7
(lp2205
(S'Drew Brees'
p2206
g10
tp2207
a(S'Chase Daniel'
p2208
g10
tp2209
a(S'Travaris Cadet'
p2210
g15
tp2211
a(S'Mark Ingram'
p2212
g15
tp2213
a(S'Chris Ivory'
p2214
g15
tp2215
a(S'Darren Sproles'
p2216
g15
tp2217
a(S'Pierre Thomas'
p2218
g15
tp2219
a(S'Marques Colston'
p2220
g22
tp2221
a(S'Saalim Hakim'
p2222
g22
tp2223
a(S'Lance Moore'
p2224
g22
tp2225
a(S'Jimmy Graham'
p2226
g35
tp2227
asg46
I00
sg47
F38.0
sg48
F446.0
sg49
F0.0
sg50
F3.0
sg51
F0.0
sg52
S'31-34'
p2228
sg54
I01
sg55
F116.0
sg56
F0.0
ssg321
(dp2229
g5
F32.0
sg6
F1.0
sg7
(lp2230
(S'Eli Manning'
p2231
g10
tp2232
a(S'Ahmad Bradshaw'
p2233
g15
tp2234
a(S'Victor Cruz'
p2235
g22
tp2236
a(S'Hakeem Nicks'
p2237
g22
tp2238
a(S'Rueben Randle'
p2239
g22
tp2240
a(S'Martellus Bennett'
p2241
g35
tp2242
a(S'Bear Pascoe'
p2243
g35
tp2244
asg46
I01
sg47
F17.0
sg48
F213.0
sg49
F0.0
sg50
F1.0
sg51
F0.0
sg52
S'24-17'
p2245
sg54
I00
sg55
F78.0
sg56
F0.0
ssg357
(dp2246
g5
F28.0
sg6
F0.0
sg7
(lp2247
(S'Josh Freeman'
p2248
g10
tp2249
a(S'Dan Orlovsky'
p2250
g10
tp2251
a(S'LeGarrette Blount'
p2252
g15
tp2253
a(S'Doug Martin'
p2254
g15
tp2255
a(S'Arrelious Benn'
p2256
g22
tp2257
a(S'Vincent Jackson'
p2258
g22
tp2259
a(S'Chris Owusu'
p2260
g22
tp2261
a(S'Mike Williams'
p2262
g22
tp2263
a(S'Luke Stocker'
p2264
g35
tp2265
a(S'Connor Barth'
p2266
g44
tp2267
asg46
I01
sg47
F24.0
sg48
F110.0
sg49
F1.0
sg50
F1.0
sg51
F1.0
sg52
S'16-10'
p2268
sg54
I01
sg55
F73.0
sg56
F0.0
ssg393
(dp2269
g5
F20.0
sg6
F0.0
sg7
(lp2270
(S'Matt Flynn'
p2271
g10
tp2272
a(S'Russell Wilson'
p2273
g10
tp2274
a(S'Robert Turbin'
p2275
g15
tp2276
a(S'Doug Baldwin'
p2277
g22
tp2278
a(S'Golden Tate'
p2279
g22
tp2280
a(S'Anthony McCoy'
p2281
g35
tp2282
a(S'Steven Hauschka'
p2283
g44
tp2284
asg46
I00
sg47
F9.0
sg48
F151.0
sg49
F2.0
sg50
F1.0
sg51
F2.0
sg52
S'7-27'
p2285
sg54
I00
sg55
F43.0
sg56
F0.0
ssg427
(dp2286
g5
F0.0
sg6
F0.0
sg7
(lp2287
sg46
(lp2288
sg47
F0.0
sg48
F0.0
sg49
F0.0
sg50
F0.0
sg51
F0.0
sg52
(lp2289
sg54
(lp2290
sg55
F0.0
sg56
F0.0
ssg461
(dp2291
g5
F24.0
sg6
F0.0
sg7
(lp2292
(S'Jay Cutler'
p2293
g10
tp2294
a(S'Matt Forte'
p2295
g15
tp2296
a(S'Devin Hester'
p2297
g22
tp2298
a(S'Alshon Jeffery'
p2299
g22
tp2300
a(S'Brandon Marshall'
p2301
g22
tp2302
a(S'Eric Weems'
p2303
g22
tp2304
a(S'Kellen Davis'
p2305
g35
tp2306
a(S'Matt Spaeth'
p2307
g35
tp2308
a(S'Robbie Gould'
p2309
g44
tp2310
asg46
I00
sg47
F16.0
sg48
F275.0
sg49
F2.0
sg50
F2.0
sg51
F2.0
sg52
S'18-34'
p2311
sg54
I01
sg55
F52.0
sg56
F0.0
ssg497
(dp2312
g5
F37.0
sg6
F1.0
sg7
(lp2313
(S'Derek Anderson'
p2314
g10
tp2315
a(S'Jimmy Clausen'
p2316
g10
tp2317
a(S'Cam Newton'
p2318
g10
tp2319
a(S'Jonathan Stewart'
p2320
g15
tp2321
a(S'Mike Tolbert'
p2322
g15
tp2323
a(S'DeAngelo Williams'
p2324
g15
tp2325
a(S'Brandon LaFell'
p2326
g22
tp2327
a(S'Louis Murphy'
p2328
g22
tp2329
a(S'Steve Smith'
p2330
g22
tp2331
a(S'Gary Barnidge'
p2332
g35
tp2333
a(S'Greg Olsen'
p2334
g35
tp2335
asg46
I01
sg47
F21.0
sg48
F233.0
sg49
F0.0
sg50
F1.0
sg51
F0.0
sg52
S'19-14'
p2336
sg54
I00
sg55
F112.0
sg56
F0.0
ssg533
(dp2337
g5
F26.0
sg6
F0.0
sg7
(lp2338
(S'Joe Flacco'
p2339
g10
tp2340
a(S'Tyrod Taylor'
p2341
g10
tp2342
a(S'Bernard Pierce'
p2343
g15
tp2344
a(S'Anquan Boldin'
p2345
g22
tp2346
a(S'Torrey Smith'
p2347
g22
tp2348
a(S'Deonte Thompson'
p2349
g22
tp2350
a(S'Ed Dickson'
p2351
g35
tp2352
a(S'Dennis Pitta'
p2353
g35
tp2354
a(S'Justin Tucker'
p2355
g44
tp2356
asg46
I00
sg47
F6.0
sg48
F234.0
sg49
F1.0
sg50
F1.0
sg51
F1.0
sg52
S'29-31'
p2357
sg54
I00
sg55
F23.0
sg56
F0.0
ssg539
(dp2358
g5
F34.0
sg6
F0.0
sg7
(lp2359
(S'Luke McCown'
p2360
g10
tp2361
a(S'Matt Ryan'
p2362
g10
tp2363
a(S'Jacquizz Rodgers'
p2364
g15
tp2365
a(S'Harry Douglas'
p2366
g22
tp2367
a(S'Julio Jones'
p2368
g22
tp2369
a(S'Roddy White'
p2370
g22
tp2371
a(S'Matt Bryant'
p2372
g44
tp2373
asg46
I00
sg47
F5.0
sg48
F342.0
sg49
F6.0
sg50
F0.0
sg51
F4.0
sg52
S'13-19'
p2374
sg54
I00
sg55
F16.0
sg56
F0.0
ssg573
(dp2375
g5
F29.0
sg6
F0.0
sg7
(lp2376
(S'Eli Manning'
p2377
g10
tp2378
a(S'Ahmad Bradshaw'
p2379
g15
tp2380
a(S'Victor Cruz'
p2381
g22
tp2382
a(S'Hakeem Nicks'
p2383
g22
tp2384
a(S'Rueben Randle'
p2385
g22
tp2386
a(S'Martellus Bennett'
p2387
g35
tp2388
a(S'Bear Pascoe'
p2389
g35
tp2390
asg46
I00
sg47
F23.0
sg48
F192.0
sg49
F0.0
sg50
F0.0
sg51
F0.0
sg52
S'24-29'
p2391
sg54
I01
sg55
F81.0
sg56
F0.0
sss.