(dp0
S'2015'
p1
(dp2
S'11'
p3
(dp4
S'PassAtt'
p5
F32.0
sS'RushTD'
p6
F1.0
sS'Players'
p7
(lp8
(S'Jimmy Clausen'
p9
S'QB'
p10
tp11
a(S'Jay Cutler'
p12
g10
tp13
a(S"Ka'Deem Carey"
p14
S'RB'
p15
tp16
a(S'Matt Forte'
p17
g15
tp18
a(S'Jeremy Langford'
p19
g15
tp20
a(S'Josh Bellamy'
p21
S'WR'
p22
tp23
a(S'Alshon Jeffery'
p24
g22
tp25
a(S'Marc Mariani'
p26
g22
tp27
a(S'Cameron Meredith'
p28
g22
tp29
a(S'Eddie Royal'
p30
g22
tp31
a(S'Deonte Thompson'
p32
g22
tp33
a(S'Marquess Wilson'
p34
g22
tp35
a(S'Martellus Bennett'
p36
S'TE'
p37
tp38
a(S'Khari Lee'
p39
g37
tp40
a(S'Zach Miller'
p41
g37
tp42
a(S'Robbie Gould'
p43
S'K'
p44
tp45
asS'Won'
p46
I01
sS'RushAtt'
p47
F25.0
sS'PassYds'
p48
F265.0
sS'FGAtt'
p49
F3.0
sS'PassTD'
p50
F0.0
sS'FGM'
p51
F3.0
sS'Score'
p52
S'17-15'
p53
sS'Home'
p54
I00
sS'RushYds'
p55
F86.0
sS'FGBlk'
p56
F0.0
ssS'10'
p57
(dp58
g5
F31.0
sg6
F1.0
sg7
(lp59
(S'Chase Daniel'
p60
g10
tp61
a(S'Aaron Murray'
p62
g10
tp63
a(S'Alex Smith'
p64
g10
tp65
a(S'Knile Davis'
p66
g15
tp67
a(S'Anthony Sherman'
p68
g15
tp69
a(S'Spencer Ware'
p70
g15
tp71
a(S'Charcandrick West'
p72
g15
tp73
a(S'Jason Avant'
p74
g22
tp75
a(S'Chris Conley'
p76
g22
tp77
a(S'Saalim Hakim'
p78
g22
tp79
a(S'Jeremy Maclin'
p80
g22
tp81
a(S"De'Anthony Thomas"
p82
g22
tp83
a(S'Albert Wilson'
p84
g22
tp85
a(S'Demetrius Harris'
p86
g37
tp87
a(S'Travis Kelce'
p88
g37
tp89
a(S"James O'Shaughnessy"
p90
g37
tp91
a(S'Brian Parker'
p92
g37
tp93
a(S'Cairo Santos'
p94
g44
tp95
asg46
I00
sg47
F32.0
sg48
F204.0
sg49
F6.0
sg50
F1.0
sg51
F5.0
sg52
S'13-29'
p96
sg54
I01
sg55
F106.0
sg56
F0.0
ssS'13'
p97
(dp98
g5
F35.0
sg6
F0.0
sg7
(lp99
(S'Kellen Clemens'
p100
g10
tp101
a(S'Philip Rivers'
p102
g10
tp103
a(S'Donald Brown'
p104
g15
tp105
a(S'Melvin Gordon'
p106
g15
tp107
a(S'Danny Woodhead'
p108
g15
tp109
a(S'Malcom Floyd'
p110
g22
tp111
a(S'Javontee Herndon'
p112
g22
tp113
a(S'Dontrelle Inman'
p114
g22
tp115
a(S'Steve Johnson'
p116
g22
tp117
a(S'Tyrell Williams'
p118
g22
tp119
a(S'Antonio Gates'
p120
g37
tp121
a(S'Ladarius Green'
p122
g37
tp123
a(S'David Johnson'
p124
g37
tp125
a(S'John Phillips'
p126
g37
tp127
a(S'Josh Lambo'
p128
g44
tp129
asg46
I01
sg47
F23.0
sg48
F202.0
sg49
F2.0
sg50
F0.0
sg51
F1.0
sg52
S'17-3'
p130
sg54
I00
sg55
F93.0
sg56
F0.0
ssS'12'
p131
(dp132
g5
F42.0
sg6
F0.0
sg7
(lp133
(S'Tom Brady'
p134
g10
tp135
a(S'Jimmy Garoppolo'
p136
g10
tp137
a(S'LeGarrette Blount'
p138
g15
tp139
a(S'Brandon Bolden'
p140
g15
tp141
a(S'James White'
p142
g15
tp143
a(S'Danny Amendola'
p144
g22
tp145
a(S'Julian Edelman'
p146
g22
tp147
a(S'Chris Harper'
p148
g22
tp149
a(S'Brandon LaFell'
p150
g22
tp151
a(S'Keshawn Martin'
p152
g22
tp153
a(S'Matthew Slater'
p154
g22
tp155
a(S'Scott Chandler'
p156
g37
tp157
a(S'Asante Cleveland'
p158
g37
tp159
a(S'Rob Gronkowski'
p160
g37
tp161
a(S'Michael Williams'
p162
g37
tp163
a(S'Stephen Gostkowski'
p164
g44
tp165
asg46
I01
sg47
F16.0
sg48
F280.0
sg49
F1.0
sg50
F3.0
sg51
F1.0
sg52
S'30-24'
p166
sg54
I01
sg55
F39.0
sg56
F0.0
ssS'15'
p167
(dp168
g5
F55.0
sg6
F1.0
sg7
(lp169
(S'Landry Jones'
p170
g10
tp171
a(S'Ben Roethlisberger'
p172
g10
tp173
a(S'Mike Vick'
p174
g10
tp175
a(S'Will Johnson'
p176
g15
tp177
a(S'Roosevelt Nix-Jones'
p178
g15
tp179
a(S'Jordan Todman'
p180
g15
tp181
a(S'Fitzgerald Toussaint'
p182
g15
tp183
a(S'DeAngelo Williams'
p184
g15
tp185
a(S'Antonio Brown'
p186
g22
tp187
a(S'Martavis Bryant'
p188
g22
tp189
a(S'Sammie Coates'
p190
g22
tp191
a(S'Darrius Heyward-Bey'
p192
g22
tp193
a(S'Markus Wheaton'
p194
g22
tp195
a(S'Jesse James'
p196
g37
tp197
a(S'Matt Spaeth'
p198
g37
tp199
a(S'Chris Boswell'
p200
g44
tp201
asg46
I00
sg47
F17.0
sg48
F380.0
sg49
F2.0
sg50
F3.0
sg51
F2.0
sg52
S'27-34'
p202
sg54
I00
sg55
F23.0
sg56
F0.0
ssS'14'
p203
(dp204
g5
F29.0
sg6
F0.0
sg7
(lp205
(S'Derek Carr'
p206
g10
tp207
a(S'Matt McGloin'
p208
g10
tp209
a(S'Roy Helu'
p210
g15
tp211
a(S'Taiwan Jones'
p212
g15
tp213
a(S'Latavius Murray'
p214
g15
tp215
a(S'Jamize Olawale'
p216
g15
tp217
a(S'Marcel Reece'
p218
g15
tp219
a(S'Amari Cooper'
p220
g22
tp221
a(S'Michael Crabtree'
p222
g22
tp223
a(S'Andre Holmes'
p224
g22
tp225
a(S'Seth Roberts'
p226
g22
tp227
a(S'Jeremy Ross'
p228
g22
tp229
a(S'Rod Streater'
p230
g22
tp231
a(S'Mike Williams'
p232
g22
tp233
a(S'Gabe Holmes'
p234
g37
tp235
a(S'Mychal Rivera'
p236
g37
tp237
a(S'Lee Smith'
p238
g37
tp239
a(S'Clive Walford'
p240
g37
tp241
a(S'Sebastian Janikowski'
p242
g44
tp243
asg46
I00
sg47
F23.0
sg48
F135.0
sg49
F1.0
sg50
F2.0
sg51
F0.0
sg52
S'12-15'
p244
sg54
I01
sg55
F27.0
sg56
F0.0
ssS'17'
p245
(dp246
g5
F35.0
sg6
F0.0
sg7
(lp247
(S'Kellen Clemens'
p248
g10
tp249
a(S'Philip Rivers'
p250
g10
tp251
a(S'Donald Brown'
p252
g15
tp253
a(S'Dreamius Smith'
p254
g15
tp255
a(S'Danny Woodhead'
p256
g15
tp257
a(S'Malcom Floyd'
p258
g22
tp259
a(S'Javontee Herndon'
p260
g22
tp261
a(S'Dontrelle Inman'
p262
g22
tp263
a(S'Steve Johnson'
p264
g22
tp265
a(S'Tyrell Williams'
p266
g22
tp267
a(S'Asante Cleveland'
p268
g37
tp269
a(S'Antonio Gates'
p270
g37
tp271
a(S'David Johnson'
p272
g37
tp273
a(S'Sean McGrath'
p274
g37
tp275
a(S'John Phillips'
p276
g37
tp277
a(S'Josh Lambo'
p278
g44
tp279
asg46
I01
sg47
F29.0
sg48
F228.0
sg49
F2.0
sg50
F2.0
sg51
F2.0
sg52
S'27-20'
p280
sg54
I01
sg55
F110.0
sg56
F0.0
ssS'16'
p281
(dp282
g5
F35.0
sg6
F1.0
sg7
(lp283
(S'Andy Dalton'
p284
g10
tp285
a(S'AJ McCarron'
p286
g10
tp287
a(S'Keith Wenning'
p288
g10
tp289
a(S'Giovani Bernard'
p290
g15
tp291
a(S'Rex Burkhead'
p292
g15
tp293
a(S'Jeremy Hill'
p294
g15
tp295
a(S'Cedric Peerman'
p296
g15
tp297
a(S'Mario Alford'
p298
g22
tp299
a(S'A.J. Green'
p300
g22
tp301
a(S'Marvin Jones'
p302
g22
tp303
a(S'Mohamed Sanu'
p304
g22
tp305
a(S'Brandon Tate'
p306
g22
tp307
a(S'James Wright'
p308
g22
tp309
a(S'Tyler Eifert'
p310
g37
tp311
a(S'Ryan Hewitt'
p312
g37
tp313
a(S'Tyler Kroft'
p314
g37
tp315
a(S'C.J. Uzomah'
p316
g37
tp317
a(S'Mike Nugent'
p318
g44
tp319
asg46
I01
sg47
F33.0
sg48
F200.0
sg49
F2.0
sg50
F1.0
sg51
F1.0
sg52
S'20-17'
p320
sg54
I01
sg55
F108.0
sg56
F0.0
ssS'1'
p321
(dp322
g5
F32.0
sg6
F0.0
sg7
(lp323
(S'Joe Flacco'
p324
g10
tp325
a(S'Matt Schaub'
p326
g10
tp327
a(S'Javorius Allen'
p328
g15
tp329
a(S'Justin Forsett'
p330
g15
tp331
a(S'Kyle Juszczyk'
p332
g15
tp333
a(S'Terrence Magee'
p334
g15
tp335
a(S'Lorenzo Taliaferro'
p336
g15
tp337
a(S'Kamar Aiken'
p338
g22
tp339
a(S'Michael Campanaro'
p340
g22
tp341
a(S'Breshad Perriman'
p342
g22
tp343
a(S'Steve Smith'
p344
g22
tp345
a(S'Darren Waller'
p346
g22
tp347
a(S'Nick Boyle'
p348
g37
tp349
a(S'Crockett Gillmore'
p350
g37
tp351
a(S'Maxx Williams'
p352
g37
tp353
a(S'Justin Tucker'
p354
g44
tp355
asg46
I01
sg47
F23.0
sg48
F117.0
sg49
F2.0
sg50
F0.0
sg51
F2.0
sg52
S'19-13'
p356
sg54
I01
sg55
F73.0
sg56
F0.0
ssS'3'
p357
(dp358
g5
F45.0
sg6
F0.0
sg7
(lp359
(S'Dan Orlovsky'
p360
g10
tp361
a(S'Matthew Stafford'
p362
g10
tp363
a(S'Ameer Abdullah'
p364
g15
tp365
a(S'Michael Burton'
p366
g15
tp367
a(S'Theo Riddick'
p368
g15
tp369
a(S'Zach Zenner'
p370
g15
tp371
a(S'Corey Fuller'
p372
g22
tp373
a(S'T.J. Jones'
p374
g22
tp375
a(S'Lance Moore'
p376
g22
tp377
a(S'Golden Tate'
p378
g22
tp379
a(S'Eric Ebron'
p380
g37
tp381
a(S'Brandon Pettigrew'
p382
g37
tp383
a(S'Timothy Wright'
p384
g37
tp385
a(S'Matt Prater'
p386
g44
tp387
asg46
I01
sg47
F9.0
sg48
F282.0
sg49
F0.0
sg50
F1.0
sg51
F0.0
sg52
S'24-12'
p388
sg54
I00
sg55
F22.0
sg56
F0.0
ssS'2'
p389
(dp390
g5
F25.0
sg6
F2.0
sg7
(lp391
(S'Chase Daniel'
p392
g10
tp393
a(S'Aaron Murray'
p394
g10
tp395
a(S'Alex Smith'
p396
g10
tp397
a(S'Jamaal Charles'
p398
g15
tp399
a(S'Knile Davis'
p400
g15
tp401
a(S'Cyrus Gray'
p402
g15
tp403
a(S'Anthony Sherman'
p404
g15
tp405
a(S'Charcandrick West'
p406
g15
tp407
a(S'Jason Avant'
p408
g22
tp409
a(S'Chris Conley'
p410
g22
tp411
a(S'Frankie Hammond'
p412
g22
tp413
a(S'Jeremy Maclin'
p414
g22
tp415
a(S"De'Anthony Thomas"
p416
g22
tp417
a(S'Albert Wilson'
p418
g22
tp419
a(S'Demetrius Harris'
p420
g37
tp421
a(S'Travis Kelce'
p422
g37
tp423
a(S"James O'Shaughnessy"
p424
g37
tp425
a(S'Brian Parker'
p426
g37
tp427
a(S'Cairo Santos'
p428
g44
tp429
asg46
I01
sg47
F30.0
sg48
F191.0
sg49
F1.0
sg50
F0.0
sg51
F1.0
sg52
S'31-24'
p430
sg54
I00
sg55
F155.0
sg56
F0.0
ssS'5'
p431
(dp432
g5
F39.0
sg6
F0.0
sg7
(lp433
(S'Derek Carr'
p434
g10
tp435
a(S'Matt McGloin'
p436
g10
tp437
a(S'Roy Helu'
p438
g15
tp439
a(S'Taiwan Jones'
p440
g15
tp441
a(S'Latavius Murray'
p442
g15
tp443
a(S'Jamize Olawale'
p444
g15
tp445
a(S'Marcel Reece'
p446
g15
tp447
a(S'Amari Cooper'
p448
g22
tp449
a(S'Michael Crabtree'
p450
g22
tp451
a(S'Andre Holmes'
p452
g22
tp453
a(S'Seth Roberts'
p454
g22
tp455
a(S'Rod Streater'
p456
g22
tp457
a(S'Mychal Rivera'
p458
g37
tp459
a(S'Lee Smith'
p460
g37
tp461
a(S'Clive Walford'
p462
g37
tp463
a(S'Sebastian Janikowski'
p464
g44
tp465
asg46
I01
sg47
F25.0
sg48
F249.0
sg49
F3.0
sg50
F1.0
sg51
F1.0
sg52
S'16-10'
p466
sg54
I00
sg55
F65.0
sg56
F1.0
ssS'4'
p467
(dp468
g5
F41.0
sg6
F1.0
sg7
(lp469
(S'Teddy Bridgewater'
p470
g10
tp471
a(S'Taylor Heinicke'
p472
g10
tp473
a(S'Shaun Hill'
p474
g10
tp475
a(S'Matt Asiata'
p476
g15
tp477
a(S'Zach Line'
p478
g15
tp479
a(S'Jerick McKinnon'
p480
g15
tp481
a(S'Adrian Peterson'
p482
g15
tp483
a(S'Stefon Diggs'
p484
g22
tp485
a(S'Charles Johnson'
p486
g22
tp487
a(S'Cordarrelle Patterson'
p488
g22
tp489
a(S'Adam Thielen'
p490
g22
tp491
a(S'Mike Wallace'
p492
g22
tp493
a(S'Jarius Wright'
p494
g22
tp495
a(S'Rhett Ellison'
p496
g37
tp497
a(S'MyCole Pruitt'
p498
g37
tp499
a(S'Kyle Rudolph'
p500
g37
tp501
a(S'Blair Walsh'
p502
g44
tp503
asg46
I01
sg47
F21.0
sg48
F269.0
sg49
F3.0
sg50
F1.0
sg51
F2.0
sg52
S'23-20'
p504
sg54
I01
sg55
F113.0
sg56
F0.0
ssS'7'
p505
(dp506
g5
F0.0
sg6
F0.0
sg7
(lp507
sg46
(lp508
sg47
F0.0
sg48
F0.0
sg49
F0.0
sg50
F0.0
sg51
F0.0
sg52
(lp509
sg54
(lp510
sg55
F0.0
sg56
F0.0
ssS'6'
p511
(dp512
g5
F39.0
sg6
F0.0
sg7
(lp513
(S'Austin Davis'
p514
g10
tp515
a(S'Johnny Manziel'
p516
g10
tp517
a(S'Josh McCown'
p518
g10
tp519
a(S'Isaiah Crowell'
p520
g15
tp521
a(S'Shaun Draughn'
p522
g15
tp523
a(S'Malcolm Johnson'
p524
g15
tp525
a(S'Duke Johnson'
p526
g15
tp527
a(S'Robert Turbin'
p528
g15
tp529
a(S'Travis Benjamin'
p530
g22
tp531
a(S'Justin Blackmon'
p532
g22
tp533
a(S'Dwayne Bowe'
p534
g22
tp535
a(S'Taylor Gabriel'
p536
g22
tp537
a(S'Brian Hartline'
p538
g22
tp539
a(S'Andrew Hawkins'
p540
g22
tp541
a(S'Marlon Moore'
p542
g22
tp543
a(S'Gary Barnidge'
p544
g37
tp545
a(S'E.J. Bibbs'
p546
g37
tp547
a(S'Jim Dray'
p548
g37
tp549
a(S'Rob Housler'
p550
g37
tp551
a(S'Zach Sudfeld'
p552
g37
tp553
a(S'Travis Coons'
p554
g44
tp555
asg46
I01
sg47
F33.0
sg48
F213.0
sg49
F1.0
sg50
F2.0
sg51
F1.0
sg52
S'26-23'
p556
sg54
I00
sg55
F109.0
sg56
F0.0
ssS'9'
p557
(dp558
g5
F36.0
sg6
F1.0
sg7
(lp559
(S'Andrew Luck'
p560
g10
tp561
a(S'Frank Gore'
p562
g15
tp563
a(S'Quan Bray'
p564
g22
tp565
a(S'Phillip Dorsett'
p566
g22
tp567
a(S'T.Y. Hilton'
p568
g22
tp569
a(S'Andre Johnson'
p570
g22
tp571
a(S'Donte Moncrief'
p572
g22
tp573
a(S'Griff Whalen'
p574
g22
tp575
a(S'Dwayne Allen'
p576
g37
tp577
a(S'Jack Doyle'
p578
g37
tp579
a(S'Coby Fleener'
p580
g37
tp581
a(S'Adam Vinatieri'
p582
g44
tp583
asg46
I00
sg47
F34.0
sg48
F252.0
sg49
F2.0
sg50
F2.0
sg51
F2.0
sg52
S'24-27'
p584
sg54
I00
sg55
F117.0
sg56
F0.0
ssS'8'
p585
(dp586
g5
F22.0
sg6
F1.0
sg7
(lp587
(S'Brett Hundley'
p588
g10
tp589
a(S'Aaron Rodgers'
p590
g10
tp591
a(S'Scott Tolzien'
p592
g10
tp593
a(S'John Kuhn'
p594
g15
tp595
a(S'Eddie Lacy'
p596
g15
tp597
a(S'Aaron Ripkowski'
p598
g15
tp599
a(S'James Starks'
p600
g15
tp601
a(S'Jared Abbrederis'
p602
g22
tp603
a(S'Davante Adams'
p604
g22
tp605
a(S'Randall Cobb'
p606
g22
tp607
a(S'Jeff Janis'
p608
g22
tp609
a(S'James Jones'
p610
g22
tp611
a(S'Ty Montgomery'
p612
g22
tp613
a(S'Kennard Backman'
p614
g37
tp615
a(S'Justin Perillo'
p616
g37
tp617
a(S'Richard Rodgers'
p618
g37
tp619
a(S'Mason Crosby'
p620
g44
tp621
asg46
I01
sg47
F19.0
sg48
F77.0
sg49
F1.0
sg50
F0.0
sg51
F1.0
sg52
S'29-10'
p622
sg54
I01
sg55
F88.0
sg56
F0.0
sssS'2014'
p623
(dp624
g3
(dp625
g5
F29.0
sg6
F0.0
sg7
(lp626
(S'Austin Davis'
p627
g10
tp628
a(S'Shaun Hill'
p629
g10
tp630
a(S'Benny Cunningham'
p631
g15
tp632
a(S'Tre Mason'
p633
g15
tp634
a(S'Chase Reynolds'
p635
g15
tp636
a(S'Zac Stacy'
p637
g15
tp638
a(S'Tavon Austin'
p639
g22
tp640
a(S'Stedman Bailey'
p641
g22
tp642
a(S'Kenny Britt'
p643
g22
tp644
a(S'Chris Givens'
p645
g22
tp646
a(S'Jared Cook'
p647
g37
tp648
a(S'Cory Harkey'
p649
g37
tp650
a(S'Lance Kendricks'
p651
g37
tp652
a(S'Greg Zuerlein'
p653
g44
tp654
asg46
I00
sg47
F33.0
sg48
F220.0
sg49
F5.0
sg50
F1.0
sg51
F5.0
sg52
S'7-22'
p655
sg54
I00
sg55
F131.0
sg56
F0.0
ssg57
(dp656
g5
F47.0
sg6
F0.0
sg7
(lp657
(S'Derek Carr'
p658
g10
tp659
a(S'Matt McGloin'
p660
g10
tp661
a(S'Matt Schaub'
p662
g10
tp663
a(S'Darren McFadden'
p664
g15
tp665
a(S'Latavius Murray'
p666
g15
tp667
a(S'Jamize Olawale'
p668
g15
tp669
a(S'Marcel Reece'
p670
g15
tp671
a(S'Vincent Brown'
p672
g22
tp673
a(S'Brice Butler'
p674
g22
tp675
a(S'Andre Holmes'
p676
g22
tp677
a(S'James Jones'
p678
g22
tp679
a(S'Kenbrell Thompkins'
p680
g22
tp681
a(S'Brian Leonhardt'
p682
g37
tp683
a(S'Mychal Rivera'
p684
g37
tp685
a(S'Sebastian Janikowski'
p686
g44
tp687
asg46
I01
sg47
F11.0
sg48
F192.0
sg49
F1.0
sg50
F2.0
sg51
F1.0
sg52
S'41-17'
p688
sg54
I00
sg55
F19.0
sg56
F0.0
ssg97
(dp689
g5
F23.0
sg6
F0.0
sg7
(lp690
(S'Chase Daniel'
p691
g10
tp692
a(S'Aaron Murray'
p693
g10
tp694
a(S'Alex Smith'
p695
g10
tp696
a(S'Jamaal Charles'
p697
g15
tp698
a(S'Knile Davis'
p699
g15
tp700
a(S'Anthony Sherman'
p701
g15
tp702
a(S'Charcandrick West'
p703
g15
tp704
a(S'Jason Avant'
p705
g22
tp706
a(S'Dwayne Bowe'
p707
g22
tp708
a(S'Frankie Hammond'
p709
g22
tp710
a(S"De'Anthony Thomas"
p711
g22
tp712
a(S'Albert Wilson'
p713
g22
tp714
a(S'Anthony Fasano'
p715
g37
tp716
a(S'Travis Kelce'
p717
g37
tp718
a(S'Phillip Supernaw'
p719
g37
tp720
a(S'Cairo Santos'
p721
g44
tp722
asg46
I01
sg47
F15.0
sg48
F153.0
sg49
F1.0
sg50
F2.0
sg51
F1.0
sg52
S'29-16'
p723
sg54
I00
sg55
F41.0
sg56
F0.0
ssg131
(dp724
g5
F36.0
sg6
F2.0
sg7
(lp725
(S'Matt Moore'
p726
g10
tp727
a(S'Ryan Tannehill'
p728
g10
tp729
a(S'Lamar Miller'
p730
g15
tp731
a(S'Daniel Thomas'
p732
g15
tp733
a(S'Damien Williams'
p734
g15
tp735
a(S'Brandon Gibson'
p736
g22
tp737
a(S'Brian Hartline'
p738
g22
tp739
a(S'Jarvis Landry'
p740
g22
tp741
a(S'Rishard Matthews'
p742
g22
tp743
a(S'Mike Wallace'
p744
g22
tp745
a(S'Charles Clay'
p746
g37
tp747
a(S'Dion Sims'
p748
g37
tp749
a(S'Caleb Sturgis'
p750
g44
tp751
asg46
I01
sg47
F19.0
sg48
F228.0
sg49
F0.0
sg50
F3.0
sg51
F0.0
sg52
S'39-36'
p752
sg54
I01
sg55
F93.0
sg56
F0.0
ssg167
(dp753
g5
F41.0
sg6
F0.0
sg7
(lp754
(S'Kellen Clemens'
p755
g10
tp756
a(S'Philip Rivers'
p757
g10
tp758
a(S'Donald Brown'
p759
g15
tp760
a(S'Ryan Mathews'
p761
g15
tp762
a(S'Branden Oliver'
p763
g15
tp764
a(S'Seyi Ajirotutu'
p765
g22
tp766
a(S'Keenan Allen'
p767
g22
tp768
a(S'Malcom Floyd'
p769
g22
tp770
a(S'Dontrelle Inman'
p771
g22
tp772
a(S'Eddie Royal'
p773
g22
tp774
a(S'Antonio Gates'
p775
g37
tp776
a(S'Ladarius Green'
p777
g37
tp778
a(S'David Johnson'
p779
g37
tp780
a(S'John Phillips'
p781
g37
tp782
a(S'Nick Novak'
p783
g44
tp784
asg46
I01
sg47
F18.0
sg48
F232.0
sg49
F3.0
sg50
F1.0
sg51
F1.0
sg52
S'22-10'
p785
sg54
I00
sg55
F47.0
sg56
F1.0
ssg203
(dp786
g5
F0.0
sg6
F0.0
sg7
(lp787
(S'EJ Manuel'
p788
g10
tp789
a(S'Bryce Brown'
p790
g15
tp791
a(S'Anthony Dixon'
p792
g15
tp793
a(S'Fred Jackson'
p794
g15
tp795
a(S'Marcus Easley'
p796
g22
tp797
a(S'Marquise Goodwin'
p798
g22
tp799
a(S'Chris Hogan'
p800
g22
tp801
a(S'Sammy Watkins'
p802
g22
tp803
a(S'Mike Williams'
p804
g22
tp805
a(S'Robert Woods'
p806
g22
tp807
a(S'Scott Chandler'
p808
g37
tp809
a(S'Chris Gragg'
p810
g37
tp811
a(S'MarQueis Gray'
p812
g37
tp813
a(S'Lee Smith'
p814
g37
tp815
a(S'Dan Carpenter'
p816
g44
tp817
a(S'Jordan Gay'
p818
g44
tp819
asg46
I01
sg47
F15.0
sg48
F0.0
sg49
F1.0
sg50
F0.0
sg51
F1.0
sg52
S'24-17'
p820
sg54
I01
sg55
F73.0
sg56
F0.0
ssg245
(dp821
g5
F36.0
sg6
F0.0
sg7
(lp822
(S'Derek Carr'
p823
g10
tp824
a(S'Matt McGloin'
p825
g10
tp826
a(S'Matt Schaub'
p827
g10
tp828
a(S'George Atkinson'
p829
g15
tp830
a(S'Darren McFadden'
p831
g15
tp832
a(S'Latavius Murray'
p833
g15
tp834
a(S'Jamize Olawale'
p835
g15
tp836
a(S'Marcel Reece'
p837
g15
tp838
a(S'Vincent Brown'
p839
g22
tp840
a(S'Brice Butler'
p841
g22
tp842
a(S'Andre Holmes'
p843
g22
tp844
a(S'James Jones'
p845
g22
tp846
a(S'Kenbrell Thompkins'
p847
g22
tp848
a(S'Mychal Rivera'
p849
g37
tp850
a(S'Scott Simonson'
p851
g37
tp852
a(S'Sebastian Janikowski'
p853
g44
tp854
asg46
I01
sg47
F18.0
sg48
F158.0
sg49
F0.0
sg50
F1.0
sg51
F0.0
sg52
S'47-14'
p855
sg54
I01
sg55
F67.0
sg56
F0.0
ssg281
(dp856
g5
F25.0
sg6
F1.0
sg7
(lp857
(S'Andy Dalton'
p858
g10
tp859
a(S'AJ McCarron'
p860
g10
tp861
a(S'Giovani Bernard'
p862
g15
tp863
a(S'Rex Burkhead'
p864
g15
tp865
a(S'Jeremy Hill'
p866
g15
tp867
a(S'Cedric Peerman'
p868
g15
tp869
a(S'A.J. Green'
p870
g22
tp871
a(S'Greg Little'
p872
g22
tp873
a(S'Mohamed Sanu'
p874
g22
tp875
a(S'Brandon Tate'
p876
g22
tp877
a(S'James Wright'
p878
g22
tp879
a(S'Jermaine Gresham'
p880
g37
tp881
a(S'Ryan Hewitt'
p882
g37
tp883
a(S'Mike Nugent'
p884
g44
tp885
asg46
I00
sg47
F36.0
sg48
F146.0
sg49
F3.0
sg50
F2.0
sg51
F3.0
sg52
S'28-37'
p886
sg54
I00
sg55
F208.0
sg56
F0.0
ssg321
(dp887
g5
F53.0
sg6
F1.0
sg7
(lp888
(S'Andrew Luck'
p889
g10
tp890
a(S'Ahmad Bradshaw'
p891
g15
tp892
a(S'Dan Herron'
p893
g15
tp894
a(S'Trent Richardson'
p895
g15
tp896
a(S'T.Y. Hilton'
p897
g22
tp898
a(S'Donte Moncrief'
p899
g22
tp900
a(S'Hakeem Nicks'
p901
g22
tp902
a(S'Griff Whalen'
p903
g22
tp904
a(S'Dwayne Allen'
p905
g37
tp906
a(S'Jack Doyle'
p907
g37
tp908
a(S'Coby Fleener'
p909
g37
tp910
a(S'Adam Vinatieri'
p911
g44
tp912
asg46
I01
sg47
F14.0
sg48
F370.0
sg49
F1.0
sg50
F2.0
sg51
F1.0
sg52
S'31-24'
p913
sg54
I01
sg55
F54.0
sg56
F0.0
ssg357
(dp914
g5
F34.0
sg6
F0.0
sg7
(lp915
(S'Tarvaris Jackson'
p916
g10
tp917
a(S'Russell Wilson'
p918
g10
tp919
a(S'Derrick Coleman'
p920
g15
tp921
a(S'Christine Michael'
p922
g15
tp923
a(S'Robert Turbin'
p924
g15
tp925
a(S'Doug Baldwin'
p926
g22
tp927
a(S'Percy Harvin'
p928
g22
tp929
a(S'Jermaine Kearse'
p930
g22
tp931
a(S'Ricardo Lockette'
p932
g22
tp933
a(S'Kevin Norwood'
p934
g22
tp935
a(S'Paul Richardson'
p936
g22
tp937
a(S'Bryan Walters'
p938
g22
tp939
a(S'Cooper Helfet'
p940
g37
tp941
a(S'Luke Willson'
p942
g37
tp943
a(S'Steven Hauschka'
p944
g44
tp945
asg46
I00
sg47
F11.0
sg48
F258.0
sg49
F3.0
sg50
F2.0
sg51
F2.0
sg52
S'20-26'
p946
sg54
I00
sg55
F41.0
sg56
F1.0
ssg389
(dp947
g5
F42.0
sg6
F2.0
sg7
(lp948
(S'Chase Daniel'
p949
g10
tp950
a(S'Aaron Murray'
p951
g10
tp952
a(S'Alex Smith'
p953
g10
tp954
a(S'Jamaal Charles'
p955
g15
tp956
a(S'Knile Davis'
p957
g15
tp958
a(S'Cyrus Gray'
p959
g15
tp960
a(S'Anthony Sherman'
p961
g15
tp962
a(S'Dwayne Bowe'
p963
g22
tp964
a(S'Frankie Hammond'
p965
g22
tp966
a(S"De'Anthony Thomas"
p967
g22
tp968
a(S'Albert Wilson'
p969
g22
tp970
a(S'Anthony Fasano'
p971
g37
tp972
a(S'Demetrius Harris'
p973
g37
tp974
a(S'Travis Kelce'
p975
g37
tp976
a(S'Cairo Santos'
p977
g44
tp978
asg46
I01
sg47
F31.0
sg48
F255.0
sg49
F2.0
sg50
F0.0
sg51
F1.0
sg52
S'24-17'
p979
sg54
I01
sg55
F133.0
sg56
F0.0
ssg431
(dp980
g5
F34.0
sg6
F1.0
sg7
(lp981
(S'Carson Palmer'
p982
g10
tp983
a(S'Drew Stanton'
p984
g10
tp985
a(S'Logan Thomas'
p986
g10
tp987
a(S'Andre Ellington'
p988
g15
tp989
a(S'Stepfan Taylor'
p990
g15
tp991
a(S'Jaron Brown'
p992
g22
tp993
a(S'John Brown'
p994
g22
tp995
a(S'Larry Fitzgerald'
p996
g22
tp997
a(S'Michael Floyd'
p998
g22
tp999
a(S'Ted Ginn'
p1000
g22
tp1001
a(S'Darren Fells'
p1002
g37
tp1003
a(S'Rob Housler'
p1004
g37
tp1005
a(S'Troy Niklas'
p1006
g37
tp1007
a(S'Chandler Catanzaro'
p1008
g44
tp1009
asg46
I01
sg47
F18.0
sg48
F199.0
sg49
F2.0
sg50
F1.0
sg51
F2.0
sg52
S'41-20'
p1010
sg54
I01
sg55
F37.0
sg56
F0.0
ssg467
(dp1011
g5
F0.0
sg6
F0.0
sg7
(lp1012
sg46
(lp1013
sg47
F0.0
sg48
F0.0
sg49
F0.0
sg50
F0.0
sg51
F0.0
sg52
(lp1014
sg54
(lp1015
sg55
F0.0
sg56
F0.0
ssg505
(dp1016
g5
F46.0
sg6
F0.0
sg7
(lp1017
(S'Blaine Gabbert'
p1018
g10
tp1019
a(S'Colin Kaepernick'
p1020
g10
tp1021
a(S'Frank Gore'
p1022
g15
tp1023
a(S'Carlos Hyde'
p1024
g15
tp1025
a(S'Bruce Miller'
p1026
g15
tp1027
a(S'Anquan Boldin'
p1028
g22
tp1029
a(S'Michael Crabtree'
p1030
g22
tp1031
a(S'Bruce Ellington'
p1032
g22
tp1033
a(S'Steve Johnson'
p1034
g22
tp1035
a(S'Quinton Patton'
p1036
g22
tp1037
a(S'Derek Carrier'
p1038
g37
tp1039
a(S'Vernon Davis'
p1040
g37
tp1041
a(S'Vance McDonald'
p1042
g37
tp1043
a(S'Phil Dawson'
p1044
g44
tp1045
asg46
I01
sg47
F18.0
sg48
F301.0
sg49
F2.0
sg50
F2.0
sg51
F1.0
sg52
S'42-17'
p1046
sg54
I01
sg55
F62.0
sg56
F0.0
ssg511
(dp1047
g5
F43.0
sg6
F0.0
sg7
(lp1048
(S'Geno Smith'
p1049
g10
tp1050
a(S'Mike Vick'
p1051
g10
tp1052
a(S'Chris Ivory'
p1053
g15
tp1054
a(S'Chris Johnson'
p1055
g15
tp1056
a(S'Bilal Powell'
p1057
g15
tp1058
a(S'Justin Blackmon'
p1059
g22
tp1060
a(S'Eric Decker'
p1061
g22
tp1062
a(S'T.J. Graham'
p1063
g22
tp1064
a(S'Saalim Hakim'
p1065
g22
tp1066
a(S'Jeremy Kerley'
p1067
g22
tp1068
a(S'Chris Owusu'
p1069
g22
tp1070
a(S'Walt Powell'
p1071
g22
tp1072
a(S'Greg Salas'
p1073
g22
tp1074
a(S'Jace Amaro'
p1075
g37
tp1076
a(S'Jeff Cumberland'
p1077
g37
tp1078
a(S'Zach Sudfeld'
p1079
g37
tp1080
a(S'Nick Folk'
p1081
g44
tp1082
asg46
I01
sg47
F15.0
sg48
F190.0
sg49
F1.0
sg50
F2.0
sg51
F1.0
sg52
S'31-17'
p1083
sg54
I00
sg55
F31.0
sg56
F0.0
ssg557
(dp1084
g5
F53.0
sg6
F0.0
sg7
(lp1085
(S'Tom Brady'
p1086
g10
tp1087
a(S'Jimmy Garoppolo'
p1088
g10
tp1089
a(S'Brandon Bolden'
p1090
g15
tp1091
a(S'James Develin'
p1092
g15
tp1093
a(S'Jonas Gray'
p1094
g15
tp1095
a(S'Shane Vereen'
p1096
g15
tp1097
a(S'James White'
p1098
g15
tp1099
a(S'Danny Amendola'
p1100
g22
tp1101
a(S'Aaron Dobson'
p1102
g22
tp1103
a(S'Julian Edelman'
p1104
g22
tp1105
a(S'Brandon LaFell'
p1106
g22
tp1107
a(S'Matthew Slater'
p1108
g22
tp1109
a(S'Brian Tyms'
p1110
g22
tp1111
a(S'Rob Gronkowski'
p1112
g37
tp1113
a(S'Michael Hoomanawanui'
p1114
g37
tp1115
a(S'Timothy Wright'
p1116
g37
tp1117
a(S'Stephen Gostkowski'
p1118
g44
tp1119
asg46
I00
sg47
F25.0
sg48
F333.0
sg49
F3.0
sg50
F4.0
sg51
F3.0
sg52
S'21-43'
p1120
sg54
I00
sg55
F66.0
sg56
F0.0
ssg585
(dp1121
g5
F41.0
sg6
F0.0
sg7
(lp1122
(S'Kellen Clemens'
p1123
g10
tp1124
a(S'Philip Rivers'
p1125
g10
tp1126
a(S'Donald Brown'
p1127
g15
tp1128
a(S'Shaun Draughn'
p1129
g15
tp1130
a(S'Ryan Mathews'
p1131
g15
tp1132
a(S'Branden Oliver'
p1133
g15
tp1134
a(S'Seyi Ajirotutu'
p1135
g22
tp1136
a(S'Keenan Allen'
p1137
g22
tp1138
a(S'Malcom Floyd'
p1139
g22
tp1140
a(S'Dontrelle Inman'
p1141
g22
tp1142
a(S'Eddie Royal'
p1143
g22
tp1144
a(S'Antonio Gates'
p1145
g37
tp1146
a(S'Ladarius Green'
p1147
g37
tp1148
a(S'David Johnson'
p1149
g37
tp1150
a(S'John Phillips'
p1151
g37
tp1152
a(S'Nick Novak'
p1153
g44
tp1154
asg46
I01
sg47
F14.0
sg48
F252.0
sg49
F0.0
sg50
F3.0
sg51
F0.0
sg52
S'35-21'
p1155
sg54
I01
sg55
F53.0
sg56
F0.0
sssS'2011'
p1156
(dp1157
g3
(dp1158
g5
F40.0
sg6
F0.0
sg7
(lp1159
(S'Mark Sanchez'
p1160
g10
tp1161
a(S'Bilal Powell'
p1162
g15
tp1163
a(S'Jeremy Kerley'
p1164
g22
tp1165
a(S'Matthew Mulligan'
p1166
g37
tp1167
a(S'Nick Folk'
p1168
g44
tp1169
asg46
I01
sg47
F8.0
sg48
F252.0
sg49
F4.0
sg50
F0.0
sg51
F2.0
sg52
S'17-13'
p1170
sg54
I01
sg55
F11.0
sg56
F0.0
ssg57
(dp1171
g5
F28.0
sg6
F0.0
sg7
(lp1172
(S'Matt Cassel'
p1173
g10
tp1174
a(S'Dexter McCluster'
p1175
g15
tp1176
a(S'Dwayne Bowe'
p1177
g22
tp1178
a(S'Ryan Succop'
p1179
g44
tp1180
asg46
I01
sg47
F10.0
sg48
F93.0
sg49
F1.0
sg50
F1.0
sg51
F1.0
sg52
S'17-10'
p1181
sg54
I00
sg55
F61.0
sg56
F0.0
ssg97
(dp1182
g5
F1.0
sg6
F0.0
sg7
(lp1183
(S'Joe Webb'
p1184
g10
tp1185
a(S'Toby Gerhart'
p1186
g15
tp1187
a(S'Adrian Peterson'
p1188
g15
tp1189
a(S'Percy Harvin'
p1190
g22
tp1191
a(S'Allen Reisner'
p1192
g37
tp1193
a(S'Kyle Rudolph'
p1194
g37
tp1195
asg46
I01
sg47
F27.0
sg48
F8.0
sg49
F0.0
sg50
F0.0
sg51
F0.0
sg52
S'35-32'
p1196
sg54
I00
sg55
F114.0
sg56
F0.0
ssg131
(dp1197
g5
F36.0
sg6
F0.0
sg7
(lp1198
(S'Philip Rivers'
p1199
g10
tp1200
a(S'Ryan Mathews'
p1201
g15
tp1202
a(S'Mike Tolbert'
p1203
g15
tp1204
a(S'Vincent Brown'
p1205
g22
tp1206
a(S'Malcom Floyd'
p1207
g22
tp1208
a(S'Vincent Jackson'
p1209
g22
tp1210
a(S'Bryan Walters'
p1211
g22
tp1212
a(S'Antonio Gates'
p1213
g37
tp1214
a(S'Nick Novak'
p1215
g44
tp1216
asg46
I01
sg47
F34.0
sg48
F188.0
sg49
F4.0
sg50
F1.0
sg51
F2.0
sg52
S'16-13'
p1217
sg54
I00
sg55
F182.0
sg56
F0.0
ssg167
(dp1218
g5
F34.0
sg6
F2.0
sg7
(lp1219
(S'Tom Brady'
p1220
g10
tp1221
a(S'Brian Hoyer'
p1222
g10
tp1223
a(S'Ryan Mallett'
p1224
g10
tp1225
a(S'Stevan Ridley'
p1226
g15
tp1227
a(S'Shane Vereen'
p1228
g15
tp1229
a(S'Danny Woodhead'
p1230
g15
tp1231
a(S'Julian Edelman'
p1232
g22
tp1233
a(S'Matthew Slater'
p1234
g22
tp1235
a(S'Wes Welker'
p1236
g22
tp1237
a(S'Rob Gronkowski'
p1238
g37
tp1239
a(S'Stephen Gostkowski'
p1240
g44
tp1241
asg46
I00
sg47
F24.0
sg48
F320.0
sg49
F2.0
sg50
F2.0
sg51
F2.0
sg52
S'23-41'
p1242
sg54
I01
sg55
F107.0
sg56
F0.0
ssg203
(dp1243
g5
F0.0
sg6
F0.0
sg7
(lp1244
(S'Jay Cutler'
p1245
g10
tp1246
a(S'Josh McCown'
p1247
g10
tp1248
a(S'Tyler Clutts'
p1249
g15
tp1250
a(S'Matt Forte'
p1251
g15
tp1252
a(S'Devin Hester'
p1253
g22
tp1254
a(S'Kellen Davis'
p1255
g37
tp1256
a(S'Matt Spaeth'
p1257
g37
tp1258
a(S'Robbie Gould'
p1259
g44
tp1260
asg46
I01
sg47
F0.0
sg48
F0.0
sg49
F1.0
sg50
F0.0
sg51
F1.0
sg52
S'13-10'
p1261
sg54
I01
sg55
F0.0
sg56
F0.0
ssg245
(dp1262
g5
F0.0
sg6
F1.0
sg7
(lp1263
(S'Shaun Draughn'
p1264
g15
tp1265
a(S'Dexter McCluster'
p1266
g15
tp1267
a(S'Dwayne Bowe'
p1268
g22
tp1269
a(S'Ryan Succop'
p1270
g44
tp1271
asg46
I00
sg47
F12.0
sg48
F0.0
sg49
F1.0
sg50
F0.0
sg51
F0.0
sg52
S'3-7'
p1272
sg54
I01
sg55
F61.0
sg56
F0.0
ssg281
(dp1273
g5
F27.0
sg6
F1.0
sg7
(lp1274
(S'Ryan Fitzpatrick'
p1275
g10
tp1276
a(S'C.J. Spiller'
p1277
g15
tp1278
a(S'Kamar Aiken'
p1279
g22
tp1280
a(S'Steve Johnson'
p1281
g22
tp1282
a(S'Scott Chandler'
p1283
g37
tp1284
asg46
I00
sg47
F19.0
sg48
F196.0
sg49
F0.0
sg50
F0.0
sg51
F0.0
sg52
S'14-40'
p1285
sg54
I00
sg55
F133.0
sg56
F0.0
ssg321
(dp1286
g5
F0.0
sg6
F0.0
sg7
(lp1287
(S'Taiwan Jones'
p1288
g15
tp1289
a(S'Darren McFadden'
p1290
g15
tp1291
a(S'Marcel Reece'
p1292
g15
tp1293
a(S'Darrius Heyward-Bey'
p1294
g22
tp1295
a(S'Louis Murphy'
p1296
g22
tp1297
a(S'Richard Gordon'
p1298
g37
tp1299
a(S'Brandon Myers'
p1300
g37
tp1301
a(S'Sebastian Janikowski'
p1302
g44
tp1303
asg46
I00
sg47
F23.0
sg48
F0.0
sg49
F3.0
sg50
F0.0
sg51
F3.0
sg52
S'20-23'
p1304
sg54
I01
sg55
F161.0
sg56
F0.0
ssg357
(dp1305
g5
F0.0
sg6
F0.0
sg7
(lp1306
(S'Chris Johnson'
p1307
g15
tp1308
a(S'Kenny Britt'
p1309
g22
tp1310
a(S'Marc Mariani'
p1311
g22
tp1312
a(S'Nate Washington'
p1313
g22
tp1314
a(S'Jared Cook'
p1315
g37
tp1316
a(S'Craig Stevens'
p1317
g37
tp1318
asg46
I00
sg47
F14.0
sg48
F0.0
sg49
F0.0
sg50
F0.0
sg51
F0.0
sg52
S'14-17'
p1319
sg54
I00
sg55
F25.0
sg56
F0.0
ssg389
(dp1320
g5
F41.0
sg6
F0.0
sg7
(lp1321
(S'Andy Dalton'
p1322
g10
tp1323
a(S'Bruce Gradkowski'
p1324
g10
tp1325
a(S'Cedric Peerman'
p1326
g15
tp1327
a(S'Andre Caldwell'
p1328
g22
tp1329
a(S'A.J. Green'
p1330
g22
tp1331
a(S'Jerome Simpson'
p1332
g22
tp1333
a(S'Brandon Tate'
p1334
g22
tp1335
a(S'Jermaine Gresham'
p1336
g37
tp1337
a(S'Mike Nugent'
p1338
g44
tp1339
asg46
I01
sg47
F2.0
sg48
F332.0
sg49
F3.0
sg50
F2.0
sg51
F3.0
sg52
S'24-22'
p1340
sg54
I01
sg55
F3.0
sg56
F0.0
ssg431
(dp1341
g5
F29.0
sg6
F1.0
sg7
(lp1342
(S'Philip Rivers'
p1343
g10
tp1344
a(S'Ryan Mathews'
p1345
g15
tp1346
a(S'Jordan Todman'
p1347
g15
tp1348
a(S'Mike Tolbert'
p1349
g15
tp1350
a(S'Vincent Brown'
p1351
g22
tp1352
a(S'Malcom Floyd'
p1353
g22
tp1354
a(S'Vincent Jackson'
p1355
g22
tp1356
a(S'Bryan Walters'
p1357
g22
tp1358
a(S'Antonio Gates'
p1359
g37
tp1360
a(S'Nick Novak'
p1361
g44
tp1362
asg46
I00
sg47
F32.0
sg48
F250.0
sg49
F5.0
sg50
F1.0
sg51
F5.0
sg52
S'24-29'
p1363
sg54
I01
sg55
F159.0
sg56
F0.0
ssg467
(dp1364
g5
F39.0
sg6
F2.0
sg7
(lp1365
(S'Matt Flynn'
p1366
g10
tp1367
a(S'Aaron Rodgers'
p1368
g10
tp1369
a(S'John Kuhn'
p1370
g15
tp1371
a(S'James Starks'
p1372
g15
tp1373
a(S'Randall Cobb'
p1374
g22
tp1375
a(S'Greg Jennings'
p1376
g22
tp1377
a(S'James Jones'
p1378
g22
tp1379
a(S'Jordy Nelson'
p1380
g22
tp1381
a(S'Andrew Quarless'
p1382
g37
tp1383
a(S'Mason Crosby'
p1384
g44
tp1385
asg46
I00
sg47
F25.0
sg48
F408.0
sg49
F0.0
sg50
F4.0
sg51
F0.0
sg52
S'23-49'
p1386
sg54
I00
sg55
F100.0
sg56
F0.0
ssg505
(dp1387
g5
F33.0
sg6
F0.0
sg7
(lp1388
(S'Matt Moore'
p1389
g10
tp1390
a(S'Reggie Bush'
p1391
g15
tp1392
a(S'Daniel Thomas'
p1393
g15
tp1394
a(S'Brian Hartline'
p1395
g22
tp1396
a(S'Brandon Marshall'
p1397
g22
tp1398
a(S'Marlon Moore'
p1399
g22
tp1400
a(S'Charles Clay'
p1401
g37
tp1402
a(S'Anthony Fasano'
p1403
g37
tp1404
a(S'Dan Carpenter'
p1405
g44
tp1406
asg46
I01
sg47
F31.0
sg48
F197.0
sg49
F3.0
sg50
F1.0
sg51
F3.0
sg52
S'18-15'
p1407
sg54
I00
sg55
F94.0
sg56
F0.0
ssg511
(dp1408
g5
F0.0
sg6
F0.0
sg7
(lp1409
sg46
(lp1410
sg47
F0.0
sg48
F0.0
sg49
F0.0
sg50
F0.0
sg51
F0.0
sg52
(lp1411
sg54
(lp1412
sg55
F0.0
sg56
F0.0
ssg557
(dp1413
g5
F0.0
sg6
F0.0
sg7
(lp1414
(S'Taiwan Jones'
p1415
g15
tp1416
a(S'Darren McFadden'
p1417
g15
tp1418
a(S'Marcel Reece'
p1419
g15
tp1420
a(S'Darrius Heyward-Bey'
p1421
g22
tp1422
a(S'Louis Murphy'
p1423
g22
tp1424
a(S'Terrelle Pryor'
p1425
g22
tp1426
a(S'Richard Gordon'
p1427
g37
tp1428
a(S'Brandon Myers'
p1429
g37
tp1430
a(S'Sebastian Janikowski'
p1431
g44
tp1432
asg46
I01
sg47
F2.0
sg48
F0.0
sg49
F1.0
sg50
F0.0
sg51
F1.0
sg52
S'38-24'
p1433
sg54
I00
sg55
F1.0
sg56
F0.0
ssg585
(dp1434
g5
F32.0
sg6
F0.0
sg7
(lp1435
(S'Shaun Hill'
p1436
g10
tp1437
a(S'Matthew Stafford'
p1438
g10
tp1439
a(S'Drew Stanton'
p1440
g10
tp1441
a(S'Brandon Pettigrew'
p1442
g37
tp1443
asg46
I00
sg47
F2.0
sg48
F272.0
sg49
F0.0
sg50
F3.0
sg51
F0.0
sg52
S'10-45'
p1444
sg54
I01
sg55
F20.0
sg56
F0.0
sssS'2010'
p1445
(dp1446
g3
(dp1447
g5
F24.0
sg6
F1.0
sg7
(lp1448
(S'Philip Rivers'
p1449
g10
tp1450
a(S'Ryan Mathews'
p1451
g15
tp1452
a(S'Darren Sproles'
p1453
g15
tp1454
a(S'Mike Tolbert'
p1455
g15
tp1456
a(S'Seyi Ajirotutu'
p1457
g22
tp1458
a(S'Malcom Floyd'
p1459
g22
tp1460
a(S'Antonio Gates'
p1461
g37
tp1462
asg46
I00
sg47
F34.0
sg48
F233.0
sg49
F0.0
sg50
F4.0
sg51
F0.0
sg52
S'14-35'
p1463
sg54
I00
sg55
F131.0
sg56
F0.0
ssg57
(dp1464
g5
F53.0
sg6
F0.0
sg7
(lp1465
(S'Matt Cassel'
p1466
g10
tp1467
a(S'Jamaal Charles'
p1468
g15
tp1469
a(S'Dexter McCluster'
p1470
g15
tp1471
a(S'Dwayne Bowe'
p1472
g22
tp1473
a(S'Tony Moeaki'
p1474
g37
tp1475
a(S'Ryan Succop'
p1476
g44
tp1477
asg46
I01
sg47
F16.0
sg48
F469.0
sg49
F2.0
sg50
F4.0
sg51
F1.0
sg52
S'49-29'
p1478
sg54
I01
sg55
F44.0
sg56
F0.0
ssg97
(dp1479
g5
F31.0
sg6
F0.0
sg7
(lp1480
(S'Matt Cassel'
p1481
g10
tp1482
a(S'Jamaal Charles'
p1483
g15
tp1484
a(S'Dexter McCluster'
p1485
g15
tp1486
a(S'Dwayne Bowe'
p1487
g22
tp1488
a(S'Tony Moeaki'
p1489
g37
tp1490
a(S'Ryan Succop'
p1491
g44
tp1492
asg46
I00
sg47
F28.0
sg48
F196.0
sg49
F1.0
sg50
F1.0
sg51
F1.0
sg52
S'6-10'
p1493
sg54
I00
sg55
F132.0
sg56
F0.0
ssg131
(dp1494
g5
F37.0
sg6
F0.0
sg7
(lp1495
(S'Sam Bradford'
p1496
g10
tp1497
a(S'Steven Jackson'
p1498
g15
tp1499
a(S'Danny Amendola'
p1500
g22
tp1501
a(S'Brandon Gibson'
p1502
g22
tp1503
a(S'Daniel Fells'
p1504
g37
tp1505
a(S'Michael Hoomanawanui'
p1506
g37
tp1507
a(S'Josh Brown'
p1508
g44
tp1509
asg46
I00
sg47
F33.0
sg48
F308.0
sg49
F4.0
sg50
F3.0
sg51
F3.0
sg52
S'33-36'
p1510
sg54
I01
sg55
F119.0
sg56
F0.0
ssg167
(dp1511
g5
F0.0
sg6
F0.0
sg7
(lp1512
(S'Darren McFadden'
p1513
g15
tp1514
a(S'Marcel Reece'
p1515
g15
tp1516
a(S'Darrius Heyward-Bey'
p1517
g22
tp1518
a(S'Louis Murphy'
p1519
g22
tp1520
a(S'Brandon Myers'
p1521
g37
tp1522
a(S'Sebastian Janikowski'
p1523
g44
tp1524
asg46
I00
sg47
F23.0
sg48
F0.0
sg49
F3.0
sg50
F0.0
sg51
F3.0
sg52
S'23-39'
p1525
sg54
I00
sg55
F128.0
sg56
F0.0
ssg203
(dp1526
g5
F0.0
sg6
F2.0
sg7
(lp1527
(S'Derek Anderson'
p1528
g10
tp1529
a(S'Tim Hightower'
p1530
g15
tp1531
a(S'Larry Fitzgerald'
p1532
g22
tp1533
a(S'Andre Roberts'
p1534
g22
tp1535
a(S'Jim Dray'
p1536
g37
tp1537
asg46
I00
sg47
F18.0
sg48
F0.0
sg49
F0.0
sg50
F0.0
sg51
F0.0
sg52
S'13-43'
p1538
sg54
I00
sg55
F148.0
sg56
F0.0
ssg245
(dp1539
g5
F37.0
sg6
F3.0
sg7
(lp1540
(S'Philip Rivers'
p1541
g10
tp1542
a(S'Ryan Mathews'
p1543
g15
tp1544
a(S'Darren Sproles'
p1545
g15
tp1546
a(S'Seyi Ajirotutu'
p1547
g22
tp1548
a(S'Malcom Floyd'
p1549
g22
tp1550
asg46
I00
sg47
F31.0
sg48
F313.0
sg49
F0.0
sg50
F0.0
sg51
F0.0
sg52
S'28-33'
p1551
sg54
I01
sg55
F164.0
sg56
F0.0
ssg281
(dp1552
g5
F33.0
sg6
F1.0
sg7
(lp1553
(S'Dan Orlovsky'
p1554
g10
tp1555
a(S'Matt Schaub'
p1556
g10
tp1557
a(S'Arian Foster'
p1558
g15
tp1559
a(S'Andre Johnson'
p1560
g22
tp1561
a(S'Owen Daniels'
p1562
g37
tp1563
a(S'Dorin Dickerson'
p1564
g37
tp1565
a(S'Garrett Graham'
p1566
g37
tp1567
asg46
I01
sg47
F20.0
sg48
F310.0
sg49
F0.0
sg50
F1.0
sg51
F0.0
sg52
S'24-23'
p1568
sg54
I01
sg55
F91.0
sg56
F0.0
ssg321
(dp1569
g5
F0.0
sg6
F0.0
sg7
(lp1570
(S'Luke McCown'
p1571
g10
tp1572
a(S'Rashad Jennings'
p1573
g15
tp1574
a(S'Marcedes Lewis'
p1575
g37
tp1576
a(S'Zach Miller'
p1577
g37
tp1578
a(S'Josh Scobee'
p1579
g44
tp1580
asg46
I00
sg47
F4.0
sg48
F0.0
sg49
F1.0
sg50
F0.0
sg51
F1.0
sg52
S'17-24'
p1581
sg54
I00
sg55
F26.0
sg56
F0.0
ssg357
(dp1582
g5
F0.0
sg6
F0.0
sg7
(lp1583
(S'Donald Brown'
p1584
g15
tp1585
a(S'Pierre Garcon'
p1586
g22
tp1587
a(S'Jacob Tamme'
p1588
g37
tp1589
a(S'Adam Vinatieri'
p1590
g44
tp1591
asg46
I00
sg47
F7.0
sg48
F0.0
sg49
F2.0
sg50
F0.0
sg51
F2.0
sg52
S'13-27'
p1592
sg54
I01
sg55
F12.0
sg56
F0.0
ssg389
(dp1593
g5
F0.0
sg6
F0.0
sg7
(lp1594
(S'Justin Forsett'
p1595
g15
tp1596
a(S'Golden Tate'
p1597
g22
tp1598
a(S'Anthony McCoy'
p1599
g37
tp1600
asg46
I01
sg47
F8.0
sg48
F0.0
sg49
F0.0
sg50
F0.0
sg51
F0.0
sg52
S'31-14'
p1601
sg54
I01
sg55
F44.0
sg56
F0.0
ssg431
(dp1602
g5
F25.0
sg6
F1.0
sg7
(lp1603
(S'Joe Flacco'
p1604
g10
tp1605
a(S'Anquan Boldin'
p1606
g22
tp1607
a(S'Ed Dickson'
p1608
g37
tp1609
a(S'Dennis Pitta'
p1610
g37
tp1611
asg46
I00
sg47
F5.0
sg48
F196.0
sg49
F0.0
sg50
F0.0
sg51
F0.0
sg52
S'17-31'
p1612
sg54
I00
sg55
F20.0
sg56
F0.0
ssg467
(dp1613
g5
F0.0
sg6
F0.0
sg7
(lp1614
(S'Chris Johnson'
p1615
g15
tp1616
a(S'Kenny Britt'
p1617
g22
tp1618
a(S'Marc Mariani'
p1619
g22
tp1620
a(S'Nate Washington'
p1621
g22
tp1622
a(S'Jared Cook'
p1623
g37
tp1624
a(S'Craig Stevens'
p1625
g37
tp1626
asg46
I01
sg47
F19.0
sg48
F0.0
sg49
F0.0
sg50
F0.0
sg51
F0.0
sg52
S'26-20'
p1627
sg54
I00
sg55
F53.0
sg56
F0.0
ssg505
(dp1628
g5
F0.0
sg6
F4.0
sg7
(lp1629
(S'Bruce Gradkowski'
p1630
g10
tp1631
a(S'Darren McFadden'
p1632
g15
tp1633
a(S'Marcel Reece'
p1634
g15
tp1635
a(S'Darrius Heyward-Bey'
p1636
g22
tp1637
a(S'Louis Murphy'
p1638
g22
tp1639
a(S'Brandon Myers'
p1640
g37
tp1641
a(S'Sebastian Janikowski'
p1642
g44
tp1643
asg46
I00
sg47
F23.0
sg48
F0.0
sg49
F1.0
sg50
F0.0
sg51
F1.0
sg52
S'14-59'
p1644
sg54
I01
sg55
F204.0
sg56
F0.0
ssg511
(dp1645
g5
F30.0
sg6
F0.0
sg7
(lp1646
(S'Kellen Clemens'
p1647
g10
tp1648
a(S'Mark Sanchez'
p1649
g10
tp1650
a(S'Jerricho Cotchery'
p1651
g22
tp1652
a(S'Jeff Cumberland'
p1653
g37
tp1654
a(S'Matthew Mulligan'
p1655
g37
tp1656
a(S'Nick Folk'
p1657
g44
tp1658
asg46
I00
sg47
F1.0
sg48
F198.0
sg49
F1.0
sg50
F1.0
sg51
F1.0
sg52
S'20-24'
p1659
sg54
I01
sg55
F-1.0
sg56
F0.0
ssg557
(dp1660
g5
F0.0
sg6
F0.0
sg7
(lp1661
sg46
(lp1662
sg47
F0.0
sg48
F0.0
sg49
F0.0
sg50
F0.0
sg51
F0.0
sg52
(lp1663
sg54
(lp1664
sg55
F0.0
sg56
F0.0
ssg585
(dp1665
g5
F0.0
sg6
F1.0
sg7
(lp1666
(S'Alex Smith'
p1667
g10
tp1668
a(S'Anthony Dixon'
p1669
g15
tp1670
a(S'Frank Gore'
p1671
g15
tp1672
a(S'Michael Crabtree'
p1673
g22
tp1674
a(S'Ted Ginn'
p1675
g22
tp1676
a(S'Kyle Williams'
p1677
g22
tp1678
a(S'Vernon Davis'
p1679
g37
tp1680
a(S'Delanie Walker'
p1681
g37
tp1682
asg46
I00
sg47
F35.0
sg48
F0.0
sg49
F0.0
sg50
F0.0
sg51
F0.0
sg52
S'16-24'
p1683
sg54
I00
sg55
F138.0
sg56
F0.0
sssS'2013'
p1684
(dp1685
g3
(dp1686
g5
F45.0
sg6
F0.0
sg7
(lp1687
(S'Tyler Bray'
p1688
g10
tp1689
a(S'Chase Daniel'
p1690
g10
tp1691
a(S'Alex Smith'
p1692
g10
tp1693
a(S'Jamaal Charles'
p1694
g15
tp1695
a(S'Knile Davis'
p1696
g15
tp1697
a(S'Cyrus Gray'
p1698
g15
tp1699
a(S'Dexter McCluster'
p1700
g15
tp1701
a(S'Anthony Sherman'
p1702
g15
tp1703
a(S'Dwayne Bowe'
p1704
g22
tp1705
a(S'Kyle Williams'
p1706
g22
tp1707
a(S'Anthony Fasano'
p1708
g37
tp1709
a(S'Sean McGrath'
p1710
g37
tp1711
a(S'Ryan Succop'
p1712
g44
tp1713
asg46
I01
sg47
F25.0
sg48
F230.0
sg49
F1.0
sg50
F2.0
sg51
F1.0
sg52
S'27-17'
p1714
sg54
I01
sg55
F144.0
sg56
F0.0
ssg57
(dp1715
g5
F29.0
sg6
F1.0
sg7
(lp1716
(S'Philip Rivers'
p1717
g10
tp1718
a(S'Ryan Mathews'
p1719
g15
tp1720
a(S'Danny Woodhead'
p1721
g15
tp1722
a(S'Seyi Ajirotutu'
p1723
g22
tp1724
a(S'Keenan Allen'
p1725
g22
tp1726
a(S'Vincent Brown'
p1727
g22
tp1728
a(S'Eddie Royal'
p1729
g22
tp1730
a(S'Antonio Gates'
p1731
g37
tp1732
a(S'Ladarius Green'
p1733
g37
tp1734
a(S'John Phillips'
p1735
g37
tp1736
a(S'Nick Novak'
p1737
g44
tp1738
asg46
I01
sg47
F25.0
sg48
F218.0
sg49
F3.0
sg50
F1.0
sg51
F2.0
sg52
S'28-20'
p1739
sg54
I00
sg55
F93.0
sg56
F0.0
ssg97
(dp1740
g5
F42.0
sg6
F1.0
sg7
(lp1741
(S'Tyler Bray'
p1742
g10
tp1743
a(S'Chase Daniel'
p1744
g10
tp1745
a(S'Alex Smith'
p1746
g10
tp1747
a(S'Jamaal Charles'
p1748
g15
tp1749
a(S'Knile Davis'
p1750
g15
tp1751
a(S'Cyrus Gray'
p1752
g15
tp1753
a(S'Dexter McCluster'
p1754
g15
tp1755
a(S'Anthony Sherman'
p1756
g15
tp1757
a(S'Dwayne Bowe'
p1758
g22
tp1759
a(S'Anthony Fasano'
p1760
g37
tp1761
a(S'Sean McGrath'
p1762
g37
tp1763
a(S'Ryan Succop'
p1764
g44
tp1765
asg46
I01
sg47
F25.0
sg48
F293.0
sg49
F0.0
sg50
F2.0
sg51
F0.0
sg52
S'35-28'
p1766
sg54
I00
sg55
F159.0
sg56
F0.0
ssg131
(dp1767
g5
F50.0
sg6
F1.0
sg7
(lp1768
(S'Tom Brady'
p1769
g10
tp1770
a(S'Ryan Mallett'
p1771
g10
tp1772
a(S'LeGarrette Blount'
p1773
g15
tp1774
a(S'Brandon Bolden'
p1775
g15
tp1776
a(S'James Develin'
p1777
g15
tp1778
a(S'Stevan Ridley'
p1779
g15
tp1780
a(S'Shane Vereen'
p1781
g15
tp1782
a(S'Danny Amendola'
p1783
g22
tp1784
a(S'Josh Boyce'
p1785
g22
tp1786
a(S'Aaron Dobson'
p1787
g22
tp1788
a(S'Julian Edelman'
p1789
g22
tp1790
a(S'Matthew Slater'
p1791
g22
tp1792
a(S'Kenbrell Thompkins'
p1793
g22
tp1794
a(S'Rob Gronkowski'
p1795
g37
tp1796
a(S'Michael Hoomanawanui'
p1797
g37
tp1798
a(S'Matthew Mulligan'
p1799
g37
tp1800
a(S'Stephen Gostkowski'
p1801
g44
tp1802
asg46
I00
sg47
F31.0
sg48
F344.0
sg49
F2.0
sg50
F3.0
sg51
F2.0
sg52
S'31-34'
p1803
sg54
I00
sg55
F116.0
sg56
F0.0
ssg167
(dp1804
g5
F20.0
sg6
F1.0
sg7
(lp1805
(S'Philip Rivers'
p1806
g10
tp1807
a(S'Ryan Mathews'
p1808
g15
tp1809
a(S'Danny Woodhead'
p1810
g15
tp1811
a(S'Seyi Ajirotutu'
p1812
g22
tp1813
a(S'Keenan Allen'
p1814
g22
tp1815
a(S'Vincent Brown'
p1816
g22
tp1817
a(S'Eddie Royal'
p1818
g22
tp1819
a(S'Antonio Gates'
p1820
g37
tp1821
a(S'Ladarius Green'
p1822
g37
tp1823
a(S'John Phillips'
p1824
g37
tp1825
a(S'Nick Novak'
p1826
g44
tp1827
asg46
I00
sg47
F41.0
sg48
F166.0
sg49
F2.0
sg50
F2.0
sg51
F2.0
sg52
S'20-27'
p1828
sg54
I01
sg55
F165.0
sg56
F0.0
ssg203
(dp1829
g5
F24.0
sg6
F1.0
sg7
(lp1830
(S'Ryan Fitzpatrick'
p1831
g10
tp1832
a(S'Chris Johnson'
p1833
g15
tp1834
a(S'Kenny Britt'
p1835
g22
tp1836
a(S'Justin Hunter'
p1837
g22
tp1838
a(S'Nate Washington'
p1839
g22
tp1840
a(S'Kendall Wright'
p1841
g22
tp1842
a(S'Craig Stevens'
p1843
g37
tp1844
a(S'Delanie Walker'
p1845
g37
tp1846
asg46
I01
sg47
F13.0
sg48
F172.0
sg49
F0.0
sg50
F1.0
sg51
F0.0
sg52
S'51-28'
p1847
sg54
I01
sg55
F50.0
sg56
F0.0
ssg245
(dp1848
g5
F0.0
sg6
F0.0
sg7
(lp1849
(S'Matt McGloin'
p1850
g10
tp1851
a(S'Rashad Jennings'
p1852
g15
tp1853
a(S'Taiwan Jones'
p1854
g15
tp1855
a(S'Darren McFadden'
p1856
g15
tp1857
a(S'Jamize Olawale'
p1858
g15
tp1859
a(S'Marcel Reece'
p1860
g15
tp1861
a(S'Brice Butler'
p1862
g22
tp1863
a(S'Andre Holmes'
p1864
g22
tp1865
a(S'Terrelle Pryor'
p1866
g22
tp1867
a(S'Rod Streater'
p1868
g22
tp1869
a(S'Mychal Rivera'
p1870
g37
tp1871
a(S'Sebastian Janikowski'
p1872
g44
tp1873
asg46
I01
sg47
F20.0
sg48
F0.0
sg49
F1.0
sg50
F0.0
sg51
F0.0
sg52
S'34-14'
p1874
sg54
I00
sg55
F64.0
sg56
F0.0
ssg281
(dp1875
g5
F37.0
sg6
F0.0
sg7
(lp1876
(S'Case Keenum'
p1877
g10
tp1878
a(S'Matt Schaub'
p1879
g10
tp1880
a(S'T.J. Yates'
p1881
g10
tp1882
a(S'Jonathan Grimes'
p1883
g15
tp1884
a(S'DeAndre Hopkins'
p1885
g22
tp1886
a(S'Andre Johnson'
p1887
g22
tp1888
a(S'Keshawn Martin'
p1889
g22
tp1890
a(S'DeVier Posey'
p1891
g22
tp1892
a(S'Garrett Graham'
p1893
g37
tp1894
a(S'Ryan Griffin'
p1895
g37
tp1896
a(S'Randy Bullock'
p1897
g44
tp1898
asg46
I01
sg47
F6.0
sg48
F176.0
sg49
F2.0
sg50
F1.0
sg51
F2.0
sg52
S'37-13'
p1899
sg54
I00
sg55
F28.0
sg56
F0.0
ssg321
(dp1900
g5
F62.0
sg6
F0.0
sg7
(lp1901
(S'Joe Flacco'
p1902
g10
tp1903
a(S'Tyrod Taylor'
p1904
g10
tp1905
a(S'Kyle Juszczyk'
p1906
g15
tp1907
a(S'Bernard Pierce'
p1908
g15
tp1909
a(S'Torrey Smith'
p1910
g22
tp1911
a(S'Deonte Thompson'
p1912
g22
tp1913
a(S'Ed Dickson'
p1914
g37
tp1915
a(S'Justin Tucker'
p1916
g44
tp1917
asg46
I01
sg47
F9.0
sg48
F362.0
sg49
F2.0
sg50
F2.0
sg51
F2.0
sg52
S'49-27'
p1918
sg54
I01
sg55
F22.0
sg56
F0.0
ssg357
(dp1919
g5
F2.0
sg6
F1.0
sg7
(lp1920
(S'Matt Flynn'
p1921
g10
tp1922
a(S'Matt McGloin'
p1923
g10
tp1924
a(S'Rashad Jennings'
p1925
g15
tp1926
a(S'Taiwan Jones'
p1927
g15
tp1928
a(S'Darren McFadden'
p1929
g15
tp1930
a(S'Jamize Olawale'
p1931
g15
tp1932
a(S'Marcel Reece'
p1933
g15
tp1934
a(S'Brice Butler'
p1935
g22
tp1936
a(S'Terrelle Pryor'
p1937
g22
tp1938
a(S'Rod Streater'
p1939
g22
tp1940
a(S'Mychal Rivera'
p1941
g37
tp1942
a(S'Sebastian Janikowski'
p1943
g44
tp1944
asg46
I01
sg47
F16.0
sg48
F19.0
sg49
F0.0
sg50
F0.0
sg51
F0.0
sg52
S'37-21'
p1945
sg54
I01
sg55
F45.0
sg56
F0.0
ssg389
(dp1946
g5
F49.0
sg6
F0.0
sg7
(lp1947
(S'Eli Manning'
p1948
g10
tp1949
a(S'Ryan Nassib'
p1950
g10
tp1951
a(S'Victor Cruz'
p1952
g22
tp1953
a(S'Louis Murphy'
p1954
g22
tp1955
a(S'Hakeem Nicks'
p1956
g22
tp1957
a(S'Rueben Randle'
p1958
g22
tp1959
a(S'Larry Donnell'
p1960
g37
tp1961
a(S'Brandon Myers'
p1962
g37
tp1963
a(S'Bear Pascoe'
p1964
g37
tp1965
a(S'Josh Brown'
p1966
g44
tp1967
asg46
I01
sg47
F0.0
sg48
F362.0
sg49
F3.0
sg50
F1.0
sg51
F3.0
sg52
S'41-23'
p1968
sg54
I00
sg55
F0.0
sg56
F0.0
ssg431
(dp1969
g5
F36.0
sg6
F1.0
sg7
(lp1970
(S'Tony Romo'
p1971
g10
tp1972
a(S'Lance Dunbar'
p1973
g15
tp1974
a(S'DeMarco Murray'
p1975
g15
tp1976
a(S'Cole Beasley'
p1977
g22
tp1978
a(S'Dez Bryant'
p1979
g22
tp1980
a(S'Dwayne Harris'
p1981
g22
tp1982
a(S'Terrance Williams'
p1983
g22
tp1984
a(S'Gavin Escobar'
p1985
g37
tp1986
a(S'James Hanna'
p1987
g37
tp1988
a(S'Jason Witten'
p1989
g37
tp1990
a(S'Dan Bailey'
p1991
g44
tp1992
asg46
I01
sg47
F14.0
sg48
F506.0
sg49
F2.0
sg50
F5.0
sg51
F2.0
sg52
S'51-48'
p1993
sg54
I00
sg55
F52.0
sg56
F0.0
ssg467
(dp1994
g5
F31.0
sg6
F1.0
sg7
(lp1995
(S'Matt Barkley'
p1996
g10
tp1997
a(S'Nick Foles'
p1998
g10
tp1999
a(S'Mike Vick'
p2000
g10
tp2001
a(S'Bryce Brown'
p2002
g15
tp2003
a(S'LeSean McCoy'
p2004
g15
tp2005
a(S'Chris Polk'
p2006
g15
tp2007
a(S'Jason Avant'
p2008
g22
tp2009
a(S'DeSean Jackson'
p2010
g22
tp2011
a(S'Damaris Johnson'
p2012
g22
tp2013
a(S'Brent Celek'
p2014
g37
tp2015
a(S'Zach Ertz'
p2016
g37
tp2017
asg46
I01
sg47
F35.0
sg48
F297.0
sg49
F0.0
sg50
F1.0
sg51
F0.0
sg52
S'52-20'
p2018
sg54
I01
sg55
F166.0
sg56
F0.0
ssg505
(dp2019
g5
F38.0
sg6
F1.0
sg7
(lp2020
(S'Andrew Luck'
p2021
g10
tp2022
a(S'Donald Brown'
p2023
g15
tp2024
a(S'Dan Herron'
p2025
g15
tp2026
a(S'Trent Richardson'
p2027
g15
tp2028
a(S'Darrius Heyward-Bey'
p2029
g22
tp2030
a(S'T.Y. Hilton'
p2031
g22
tp2032
a(S'Jack Doyle'
p2033
g37
tp2034
a(S'Coby Fleener'
p2035
g37
tp2036
a(S'Dominique Jones'
p2037
g37
tp2038
a(S'Adam Vinatieri'
p2039
g44
tp2040
asg46
I00
sg47
F30.0
sg48
F228.0
sg49
F3.0
sg50
F3.0
sg51
F3.0
sg52
S'33-39'
p2041
sg54
I00
sg55
F119.0
sg56
F0.0
ssg511
(dp2042
g5
F42.0
sg6
F0.0
sg7
(lp2043
(S'Blaine Gabbert'
p2044
g10
tp2045
a(S'Chad Henne'
p2046
g10
tp2047
a(S'Justin Forsett'
p2048
g15
tp2049
a(S'Denard Robinson'
p2050
g15
tp2051
a(S'Jordan Todman'
p2052
g15
tp2053
a(S'Justin Blackmon'
p2054
g22
tp2055
a(S'Cecil Shorts'
p2056
g22
tp2057
a(S'Clay Harbor'
p2058
g37
tp2059
a(S'Marcedes Lewis'
p2060
g37
tp2061
a(S'Josh Scobee'
p2062
g44
tp2063
asg46
I01
sg47
F5.0
sg48
F303.0
sg49
F2.0
sg50
F0.0
sg51
F2.0
sg52
S'35-19'
p2064
sg54
I01
sg55
F-1.0
sg56
F0.0
ssg557
(dp2065
g5
F0.0
sg6
F0.0
sg7
(lp2066
sg46
(lp2067
sg47
F0.0
sg48
F0.0
sg49
F0.0
sg50
F0.0
sg51
F0.0
sg52
(lp2068
sg54
(lp2069
sg55
F0.0
sg56
F0.0
ssg585
(dp2070
g5
F39.0
sg6
F1.0
sg7
(lp2071
(S'Kirk Cousins'
p2072
g10
tp2073
a(S'Robert Griffin III'
p2074
g10
tp2075
a(S'Roy Helu'
p2076
g15
tp2077
a(S'Alfred Morris'
p2078
g15
tp2079
a(S'Chris Thompson'
p2080
g15
tp2081
a(S'Darrel Young'
p2082
g15
tp2083
a(S'Pierre Garcon'
p2084
g22
tp2085
a(S'Leonard Hankerson'
p2086
g22
tp2087
a(S'Aldrick Robinson'
p2088
g22
tp2089
a(S'Niles Paul'
p2090
g37
tp2091
a(S'Logan Paulsen'
p2092
g37
tp2093
a(S'Jordan Reed'
p2094
g37
tp2095
a(S'Kai Forbath'
p2096
g44
tp2097
asg46
I01
sg47
F28.0
sg48
F180.0
sg49
F0.0
sg50
F1.0
sg51
F0.0
sg52
S'45-21'
p2098
sg54
I01
sg55
F112.0
sg56
F0.0
sssS'2012'
p2099
(dp2100
g3
(dp2101
g5
F40.0
sg6
F0.0
sg7
(lp2102
(S'Philip Rivers'
p2103
g10
tp2104
a(S'Ryan Mathews'
p2105
g15
tp2106
a(S'Seyi Ajirotutu'
p2107
g22
tp2108
a(S'Malcom Floyd'
p2109
g22
tp2110
a(S'Eddie Royal'
p2111
g22
tp2112
a(S'Antonio Gates'
p2113
g37
tp2114
a(S'Ladarius Green'
p2115
g37
tp2116
a(S'Nick Novak'
p2117
g44
tp2118
asg46
I01
sg47
F15.0
sg48
F258.0
sg49
F0.0
sg50
F2.0
sg51
F0.0
sg52
S'30-23'
p2119
sg54
I01
sg55
F47.0
sg56
F0.0
ssg57
(dp2120
g5
F36.0
sg6
F0.0
sg7
(lp2121
(S'Derek Anderson'
p2122
g10
tp2123
a(S'Jimmy Clausen'
p2124
g10
tp2125
a(S'Cam Newton'
p2126
g10
tp2127
a(S'Jonathan Stewart'
p2128
g15
tp2129
a(S'Mike Tolbert'
p2130
g15
tp2131
a(S'DeAngelo Williams'
p2132
g15
tp2133
a(S'Brandon LaFell'
p2134
g22
tp2135
a(S'Louis Murphy'
p2136
g22
tp2137
a(S'Steve Smith'
p2138
g22
tp2139
a(S'Gary Barnidge'
p2140
g37
tp2141
a(S'Greg Olsen'
p2142
g37
tp2143
asg46
I01
sg47
F21.0
sg48
F241.0
sg49
F0.0
sg50
F2.0
sg51
F0.0
sg52
S'36-14'
p2144
sg54
I00
sg55
F52.0
sg56
F0.0
ssg97
(dp2145
g5
F39.0
sg6
F0.0
sg7
(lp2146
(S'Josh Freeman'
p2147
g10
tp2148
a(S'Dan Orlovsky'
p2149
g10
tp2150
a(S'LeGarrette Blount'
p2151
g15
tp2152
a(S'Doug Martin'
p2153
g15
tp2154
a(S'Vincent Jackson'
p2155
g22
tp2156
a(S'Chris Owusu'
p2157
g22
tp2158
a(S'Mike Williams'
p2159
g22
tp2160
a(S'Luke Stocker'
p2161
g37
tp2162
a(S'Connor Barth'
p2163
g44
tp2164
asg46
I01
sg47
F20.0
sg48
F242.0
sg49
F3.0
sg50
F2.0
sg51
F3.0
sg52
S'31-23'
p2165
sg54
I01
sg55
F63.0
sg56
F0.0
ssg131
(dp2166
g5
F0.0
sg6
F0.0
sg7
(lp2167
(S'Matt Cassel'
p2168
g10
tp2169
a(S'Jamaal Charles'
p2170
g15
tp2171
a(S'Shaun Draughn'
p2172
g15
tp2173
a(S'Cyrus Gray'
p2174
g15
tp2175
a(S'Dexter McCluster'
p2176
g15
tp2177
a(S'Dwayne Bowe'
p2178
g22
tp2179
a(S'Tony Moeaki'
p2180
g37
tp2181
a(S'Ryan Succop'
p2182
g44
tp2183
asg46
I01
sg47
F27.0
sg48
F0.0
sg49
F3.0
sg50
F0.0
sg51
F3.0
sg52
S'17-9'
p2184
sg54
I00
sg55
F143.0
sg56
F0.0
ssg167
(dp2185
g5
F40.0
sg6
F0.0
sg7
(lp2186
(S'Joe Flacco'
p2187
g10
tp2188
a(S'Tyrod Taylor'
p2189
g10
tp2190
a(S'Bernard Pierce'
p2191
g15
tp2192
a(S'Anquan Boldin'
p2193
g22
tp2194
a(S'Torrey Smith'
p2195
g22
tp2196
a(S'Deonte Thompson'
p2197
g22
tp2198
a(S'Ed Dickson'
p2199
g37
tp2200
a(S'Dennis Pitta'
p2201
g37
tp2202
a(S'Justin Tucker'
p2203
g44
tp2204
asg46
I01
sg47
F7.0
sg48
F254.0
sg49
F1.0
sg50
F2.0
sg51
F1.0
sg52
S'34-17'
p2205
sg54
I00
sg55
F18.0
sg56
F0.0
ssg203
(dp2206
g5
F30.0
sg6
F0.0
sg7
(lp2207
(S'Carson Palmer'
p2208
g10
tp2209
a(S'Taiwan Jones'
p2210
g15
tp2211
a(S'Darren McFadden'
p2212
g15
tp2213
a(S'Jamize Olawale'
p2214
g15
tp2215
a(S'Marcel Reece'
p2216
g15
tp2217
a(S'Darrius Heyward-Bey'
p2218
g22
tp2219
a(S'Terrelle Pryor'
p2220
g22
tp2221
a(S'Rod Streater'
p2222
g22
tp2223
a(S'Richard Gordon'
p2224
g37
tp2225
a(S'Brandon Myers'
p2226
g37
tp2227
a(S'Sebastian Janikowski'
p2228
g44
tp2229
asg46
I01
sg47
F16.0
sg48
F273.0
sg49
F0.0
sg50
F2.0
sg51
F0.0
sg52
S'26-13'
p2230
sg54
I00
sg55
F61.0
sg56
F0.0
ssg245
(dp2231
g5
F0.0
sg6
F0.0
sg7
(lp2232
(S'Matt Cassel'
p2233
g10
tp2234
a(S'Jamaal Charles'
p2235
g15
tp2236
a(S'Patrick DiMarco'
p2237
g15
tp2238
a(S'Shaun Draughn'
p2239
g15
tp2240
a(S'Cyrus Gray'
p2241
g15
tp2242
a(S'Dexter McCluster'
p2243
g15
tp2244
a(S'Josh Bellamy'
p2245
g22
tp2246
a(S'Tony Moeaki'
p2247
g37
tp2248
a(S'Ryan Succop'
p2249
g44
tp2250
asg46
I01
sg47
F21.0
sg48
F0.0
sg49
F2.0
sg50
F0.0
sg51
F1.0
sg52
S'38-3'
p2251
sg54
I01
sg55
F85.0
sg56
F0.0
ssg281
(dp2252
g5
F36.0
sg6
F0.0
sg7
(lp2253
(S'Colt McCoy'
p2254
g10
tp2255
a(S'Brandon Weeden'
p2256
g10
tp2257
a(S'Trent Richardson'
p2258
g15
tp2259
a(S'Travis Benjamin'
p2260
g22
tp2261
a(S'Josh Gordon'
p2262
g22
tp2263
a(S'Greg Little'
p2264
g22
tp2265
a(S'Jordan Cameron'
p2266
g37
tp2267
a(S'Alex Smith'
p2268
g37
tp2269
a(S'Benjamin Watson'
p2270
g37
tp2271
a(S'Phil Dawson'
p2272
g44
tp2273
asg46
I01
sg47
F14.0
sg48
F183.0
sg49
F2.0
sg50
F1.0
sg51
F2.0
sg52
S'34-12'
p2274
sg54
I01
sg55
F74.0
sg56
F0.0
ssg321
(dp2275
g5
F40.0
sg6
F0.0
sg7
(lp2276
(S'Ben Roethlisberger'
p2277
g10
tp2278
a(S'Will Johnson'
p2279
g15
tp2280
a(S'Antonio Brown'
p2281
g22
tp2282
a(S'Jerricho Cotchery'
p2283
g22
tp2284
a(S'Emmanuel Sanders'
p2285
g22
tp2286
a(S'Mike Wallace'
p2287
g22
tp2288
a(S'Shaun Suisham'
p2289
g44
tp2290
asg46
I01
sg47
F3.0
sg48
F245.0
sg49
F2.0
sg50
F2.0
sg51
F2.0
sg52
S'31-19'
p2291
sg54
I01
sg55
F8.0
sg56
F0.0
ssg357
(dp2292
g5
F30.0
sg6
F0.0
sg7
(lp2293
(S'Matt Schaub'
p2294
g10
tp2295
a(S'T.J. Yates'
p2296
g10
tp2297
a(S'Tyler Clutts'
p2298
g15
tp2299
a(S'Justin Forsett'
p2300
g15
tp2301
a(S'Arian Foster'
p2302
g15
tp2303
a(S'Andre Johnson'
p2304
g22
tp2305
a(S'Keshawn Martin'
p2306
g22
tp2307
a(S'DeVier Posey'
p2308
g22
tp2309
a(S'Owen Daniels'
p2310
g37
tp2311
a(S'Garrett Graham'
p2312
g37
tp2313
a(S'Shayne Graham'
p2314
g44
tp2315
asg46
I00
sg47
F26.0
sg48
F290.0
sg49
F1.0
sg50
F4.0
sg51
F1.0
sg52
S'25-31'
p2316
sg54
I01
sg55
F126.0
sg56
F0.0
ssg389
(dp2317
g5
F36.0
sg6
F0.0
sg7
(lp2318
(S'Luke McCown'
p2319
g10
tp2320
a(S'Matt Ryan'
p2321
g10
tp2322
a(S'Jacquizz Rodgers'
p2323
g15
tp2324
a(S'Harry Douglas'
p2325
g22
tp2326
a(S'Julio Jones'
p2327
g22
tp2328
a(S'Roddy White'
p2329
g22
tp2330
a(S'Matt Bryant'
p2331
g44
tp2332
asg46
I00
sg47
F10.0
sg48
F219.0
sg49
F2.0
sg50
F2.0
sg51
F2.0
sg52
S'21-27'
p2333
sg54
I00
sg55
F23.0
sg56
F0.0
ssg431
(dp2334
g5
F31.0
sg6
F3.0
sg7
(lp2335
(S'Tom Brady'
p2336
g10
tp2337
a(S'Ryan Mallett'
p2338
g10
tp2339
a(S'Brandon Bolden'
p2340
g15
tp2341
a(S'Stevan Ridley'
p2342
g15
tp2343
a(S'Shane Vereen'
p2344
g15
tp2345
a(S'Danny Woodhead'
p2346
g15
tp2347
a(S'Julian Edelman'
p2348
g22
tp2349
a(S'Matthew Slater'
p2350
g22
tp2351
a(S'Wes Welker'
p2352
g22
tp2353
a(S'Daniel Fells'
p2354
g37
tp2355
a(S'Rob Gronkowski'
p2356
g37
tp2357
a(S'Michael Hoomanawanui'
p2358
g37
tp2359
a(S'Stephen Gostkowski'
p2360
g44
tp2361
asg46
I00
sg47
F54.0
sg48
F223.0
sg49
F1.0
sg50
F1.0
sg51
F1.0
sg52
S'21-31'
p2362
sg54
I00
sg55
F251.0
sg56
F0.0
ssg467
(dp2363
g5
F34.0
sg6
F0.0
sg7
(lp2364
(S'Carson Palmer'
p2365
g10
tp2366
a(S'Taiwan Jones'
p2367
g15
tp2368
a(S'Darren McFadden'
p2369
g15
tp2370
a(S'Marcel Reece'
p2371
g15
tp2372
a(S'Darrius Heyward-Bey'
p2373
g22
tp2374
a(S'Terrelle Pryor'
p2375
g22
tp2376
a(S'Rod Streater'
p2377
g22
tp2378
a(S'Richard Gordon'
p2379
g37
tp2380
a(S'Brandon Myers'
p2381
g37
tp2382
a(S'Sebastian Janikowski'
p2383
g44
tp2384
asg46
I01
sg47
F13.0
sg48
F202.0
sg49
F2.0
sg50
F0.0
sg51
F2.0
sg52
S'37-6'
p2385
sg54
I01
sg55
F34.0
sg56
F0.0
ssg505
(dp2386
g5
F0.0
sg6
F0.0
sg7
(lp2387
sg46
(lp2388
sg47
F0.0
sg48
F0.0
sg49
F0.0
sg50
F0.0
sg51
F0.0
sg52
(lp2389
sg54
(lp2390
sg55
F0.0
sg56
F0.0
ssg511
(dp2391
g5
F41.0
sg6
F0.0
sg7
(lp2392
(S'Philip Rivers'
p2393
g10
tp2394
a(S'Ryan Mathews'
p2395
g15
tp2396
a(S'Malcom Floyd'
p2397
g22
tp2398
a(S'Eddie Royal'
p2399
g22
tp2400
a(S'Antonio Gates'
p2401
g37
tp2402
a(S'Ladarius Green'
p2403
g37
tp2404
a(S'Nick Novak'
p2405
g44
tp2406
asg46
I01
sg47
F22.0
sg48
F241.0
sg49
F1.0
sg50
F2.0
sg51
F1.0
sg52
S'35-24'
p2407
sg54
I00
sg55
F74.0
sg56
F0.0
ssg557
(dp2408
g5
F42.0
sg6
F0.0
sg7
(lp2409
(S'Andy Dalton'
p2410
g10
tp2411
a(S'Bruce Gradkowski'
p2412
g10
tp2413
a(S'Cedric Peerman'
p2414
g15
tp2415
a(S'A.J. Green'
p2416
g22
tp2417
a(S'Andrew Hawkins'
p2418
g22
tp2419
a(S'Marvin Jones'
p2420
g22
tp2421
a(S'Mohamed Sanu'
p2422
g22
tp2423
a(S'Brandon Tate'
p2424
g22
tp2425
a(S'Orson Charles'
p2426
g37
tp2427
a(S'Jermaine Gresham'
p2428
g37
tp2429
a(S'Mike Nugent'
p2430
g44
tp2431
asg46
I01
sg47
F4.0
sg48
F299.0
sg49
F4.0
sg50
F1.0
sg51
F3.0
sg52
S'31-23'
p2432
sg54
I00
sg55
F20.0
sg56
F0.0
ssg585
(dp2433
g5
F42.0
sg6
F0.0
sg7
(lp2434
(S'Drew Brees'
p2435
g10
tp2436
a(S'Chase Daniel'
p2437
g10
tp2438
a(S'Travaris Cadet'
p2439
g15
tp2440
a(S'Mark Ingram'
p2441
g15
tp2442
a(S'Chris Ivory'
p2443
g15
tp2444
a(S'Darren Sproles'
p2445
g15
tp2446
a(S'Pierre Thomas'
p2447
g15
tp2448
a(S'Marques Colston'
p2449
g22
tp2450
a(S'Lance Moore'
p2451
g22
tp2452
a(S'Jimmy Graham'
p2453
g37
tp2454
asg46
I01
sg47
F17.0
sg48
F213.0
sg49
F0.0
sg50
F2.0
sg51
F0.0
sg52
S'34-14'
p2455
sg54
I01
sg55
F51.0
sg56
F0.0
sss.