(dp0
S'2015'
p1
(dp2
S'11'
p3
(dp4
S'PassAtt'
p5
F25.0
sS'RushTD'
p6
F1.0
sS'Players'
p7
(lp8
(S'Derek Carr'
p9
S'QB'
p10
tp11
a(S'Matt McGloin'
p12
g10
tp13
a(S'Roy Helu'
p14
S'RB'
p15
tp16
a(S'Taiwan Jones'
p17
g15
tp18
a(S'Latavius Murray'
p19
g15
tp20
a(S'Jamize Olawale'
p21
g15
tp22
a(S'Marcel Reece'
p23
g15
tp24
a(S'Amari Cooper'
p25
S'WR'
p26
tp27
a(S'Michael Crabtree'
p28
g26
tp29
a(S'Andre Holmes'
p30
g26
tp31
a(S'Seth Roberts'
p32
g26
tp33
a(S'Rod Streater'
p34
g26
tp35
a(S'Gabe Holmes'
p36
S'TE'
p37
tp38
a(S'Mychal Rivera'
p39
g37
tp40
a(S'Lee Smith'
p41
g37
tp42
a(S'Clive Walford'
p43
g37
tp44
a(S'Sebastian Janikowski'
p45
S'K'
p46
tp47
asS'Won'
p48
I01
sS'RushAtt'
p49
F21.0
sS'PassYds'
p50
F169.0
sS'FGAtt'
p51
F2.0
sS'PassTD'
p52
F0.0
sS'FGM'
p53
F2.0
sS'Score'
p54
S'18-13'
p55
sS'Home'
p56
I01
sS'RushYds'
p57
F52.0
sS'FGBlk'
p58
F0.0
ssS'10'
p59
(dp60
g5
F61.0
sg6
F0.0
sg7
(lp61
(S'Brett Hundley'
p62
g10
tp63
a(S'Aaron Rodgers'
p64
g10
tp65
a(S'Scott Tolzien'
p66
g10
tp67
a(S'John Kuhn'
p68
g15
tp69
a(S'Eddie Lacy'
p70
g15
tp71
a(S'Aaron Ripkowski'
p72
g15
tp73
a(S'James Starks'
p74
g15
tp75
a(S'Jared Abbrederis'
p76
g26
tp77
a(S'Davante Adams'
p78
g26
tp79
a(S'Randall Cobb'
p80
g26
tp81
a(S'Jeff Janis'
p82
g26
tp83
a(S'James Jones'
p84
g26
tp85
a(S'Ty Montgomery'
p86
g26
tp87
a(S'Kennard Backman'
p88
g37
tp89
a(S'Justin Perillo'
p90
g37
tp91
a(S'Richard Rodgers'
p92
g37
tp93
a(S'Mason Crosby'
p94
g46
tp95
asg48
I01
sg49
F18.0
sg50
F333.0
sg51
F2.0
sg52
F2.0
sg53
F1.0
sg54
S'18-16'
p96
sg56
I00
sg57
F47.0
sg58
F0.0
ssS'13'
p97
(dp98
g5
F36.0
sg6
F1.0
sg7
(lp99
(S'Brett Hundley'
p100
g10
tp101
a(S'Aaron Rodgers'
p102
g10
tp103
a(S'Scott Tolzien'
p104
g10
tp105
a(S'John Crockett'
p106
g15
tp107
a(S'John Kuhn'
p108
g15
tp109
a(S'Eddie Lacy'
p110
g15
tp111
a(S'Aaron Ripkowski'
p112
g15
tp113
a(S'James Starks'
p114
g15
tp115
a(S'Jared Abbrederis'
p116
g26
tp117
a(S'Davante Adams'
p118
g26
tp119
a(S'Randall Cobb'
p120
g26
tp121
a(S'Jeff Janis'
p122
g26
tp123
a(S'James Jones'
p124
g26
tp125
a(S'Ty Montgomery'
p126
g26
tp127
a(S'Kennard Backman'
p128
g37
tp129
a(S'Justin Perillo'
p130
g37
tp131
a(S'Richard Rodgers'
p132
g37
tp133
a(S'Mason Crosby'
p134
g46
tp135
asg48
I00
sg49
F24.0
sg50
F273.0
sg51
F1.0
sg52
F2.0
sg53
F0.0
sg54
S'23-27'
p136
sg56
I01
sg57
F67.0
sg58
F0.0
ssS'12'
p137
(dp138
g5
F27.0
sg6
F0.0
sg7
(lp139
(S'Sam Bradford'
p140
g10
tp141
a(S'Thad Lewis'
p142
g10
tp143
a(S'Mark Sanchez'
p144
g10
tp145
a(S'Kenjon Barner'
p146
g15
tp147
a(S'Ryan Mathews'
p148
g15
tp149
a(S'DeMarco Murray'
p150
g15
tp151
a(S'Darren Sproles'
p152
g15
tp153
a(S'Nelson Agholor'
p154
g26
tp155
a(S'Seyi Ajirotutu'
p156
g26
tp157
a(S'Josh Huff'
p158
g26
tp159
a(S'Jonathan Krause'
p160
g26
tp161
a(S'Jordan Matthews'
p162
g26
tp163
a(S'Trey Burton'
p164
g37
tp165
a(S'Brent Celek'
p166
g37
tp167
a(S'Zach Ertz'
p168
g37
tp169
a(S'Caleb Sturgis'
p170
g46
tp171
asg48
I01
sg49
F25.0
sg50
F199.0
sg51
F1.0
sg52
F2.0
sg53
F0.0
sg54
S'45-14'
p172
sg56
I01
sg57
F68.0
sg58
F0.0
ssS'15'
p173
(dp174
g5
F52.0
sg6
F0.0
sg7
(lp175
(S'Drew Brees'
p176
g10
tp177
a(S'Matt Flynn'
p178
g10
tp179
a(S'Garrett Grayson'
p180
g10
tp181
a(S'Tim Hightower'
p182
g15
tp183
a(S'Kendall Hunter'
p184
g15
tp185
a(S'Austin Johnson'
p186
g15
tp187
a(S'C.J. Spiller'
p188
g15
tp189
a(S'Brandon Coleman'
p190
g26
tp191
a(S'Marques Colston'
p192
g26
tp193
a(S'Brandin Cooks'
p194
g26
tp195
a(S'T.J. Graham'
p196
g26
tp197
a(S'Willie Snead'
p198
g26
tp199
a(S'Josh Hill'
p200
g37
tp201
a(S'Michael Hoomanawanui'
p202
g37
tp203
a(S'Benjamin Watson'
p204
g37
tp205
a(S'Kai Forbath'
p206
g46
tp207
asg48
I01
sg49
F18.0
sg50
F341.0
sg51
F2.0
sg52
F3.0
sg53
F2.0
sg54
S'35-27'
p208
sg56
I00
sg57
F69.0
sg58
F0.0
ssS'14'
p209
(dp210
g5
F22.0
sg6
F2.0
sg7
(lp211
(S'Nick Foles'
p212
g10
tp213
a(S'Case Keenum'
p214
g10
tp215
a(S'Sean Mannion'
p216
g10
tp217
a(S'Benny Cunningham'
p218
g15
tp219
a(S'Todd Gurley'
p220
g15
tp221
a(S'Tre Mason'
p222
g15
tp223
a(S'Chase Reynolds'
p224
g15
tp225
a(S'Tavon Austin'
p226
g26
tp227
a(S'Kenny Britt'
p228
g26
tp229
a(S'Bradley Marquez'
p230
g26
tp231
a(S'Brian Quick'
p232
g26
tp233
a(S'Jared Cook'
p234
g37
tp235
a(S'Cory Harkey'
p236
g37
tp237
a(S'Lance Kendricks'
p238
g37
tp239
a(S'Zach Hocker'
p240
g46
tp241
a(S'Greg Zuerlein'
p242
g46
tp243
asg48
I00
sg49
F29.0
sg50
F124.0
sg51
F0.0
sg52
F0.0
sg53
F0.0
sg54
S'14-21'
p244
sg56
I00
sg57
F203.0
sg58
F0.0
ssS'17'
p245
(dp246
g5
F23.0
sg6
F0.0
sg7
(lp247
(S'Jay Cutler'
p248
g10
tp249
a(S'David Fales'
p250
g10
tp251
a(S"Ka'Deem Carey"
p252
g15
tp253
a(S'Matt Forte'
p254
g15
tp255
a(S'Jeremy Langford'
p256
g15
tp257
a(S'Josh Bellamy'
p258
g26
tp259
a(S'Marc Mariani'
p260
g26
tp261
a(S'Cameron Meredith'
p262
g26
tp263
a(S'Eddie Royal'
p264
g26
tp265
a(S'Deonte Thompson'
p266
g26
tp267
a(S'Rob Housler'
p268
g37
tp269
a(S'Khari Lee'
p270
g37
tp271
a(S'Zach Miller'
p272
g37
tp273
a(S'Robbie Gould'
p274
g46
tp275
asg48
I01
sg49
F24.0
sg50
F245.0
sg51
F2.0
sg52
F2.0
sg53
F2.0
sg54
S'24-20'
p276
sg56
I00
sg57
F111.0
sg58
F0.0
ssS'16'
p277
(dp278
g5
F33.0
sg6
F0.0
sg7
(lp279
(S'Blaine Gabbert'
p280
g10
tp281
a(S'Dylan Thompson'
p282
g10
tp283
a(S'Shaun Draughn'
p284
g15
tp285
a(S'Kendall Gaskins'
p286
g15
tp287
a(S'DuJuan Harris'
p288
g15
tp289
a(S'Bruce Miller'
p290
g15
tp291
a(S'Anquan Boldin'
p292
g26
tp293
a(S'Bruce Ellington'
p294
g26
tp295
a(S'Quinton Patton'
p296
g26
tp297
a(S'Jerome Simpson'
p298
g26
tp299
a(S'Torrey Smith'
p300
g26
tp301
a(S'DeAndrew White'
p302
g26
tp303
a(S'Blake Bell'
p304
g37
tp305
a(S'Brian Leonhardt'
p306
g37
tp307
a(S'Vance McDonald'
p308
g37
tp309
a(S'Phil Dawson'
p310
g46
tp311
asg48
I01
sg49
F14.0
sg50
F225.0
sg51
F2.0
sg52
F2.0
sg53
F1.0
sg54
S'32-17'
p312
sg56
I01
sg57
F94.0
sg58
F0.0
ssS'1'
p313
(dp314
g5
F41.0
sg6
F2.0
sg7
(lp315
(S'Kellen Clemens'
p316
g10
tp317
a(S'Philip Rivers'
p318
g10
tp319
a(S'Donald Brown'
p320
g15
tp321
a(S'Melvin Gordon'
p322
g15
tp323
a(S'Branden Oliver'
p324
g15
tp325
a(S'Danny Woodhead'
p326
g15
tp327
a(S'Keenan Allen'
p328
g26
tp329
a(S'Malcom Floyd'
p330
g26
tp331
a(S'Dontrelle Inman'
p332
g26
tp333
a(S'Steve Johnson'
p334
g26
tp335
a(S'Tyrell Williams'
p336
g26
tp337
a(S'Ladarius Green'
p338
g37
tp339
a(S'David Johnson'
p340
g37
tp341
a(S'John Phillips'
p342
g37
tp343
a(S'Josh Lambo'
p344
g46
tp345
asg48
I00
sg49
F31.0
sg50
F403.0
sg51
F2.0
sg52
F2.0
sg53
F2.0
sg54
S'28-33'
p346
sg56
I00
sg57
F96.0
sg58
F0.0
ssS'3'
p347
(dp348
g5
F0.0
sg6
F1.0
sg7
(lp349
(S'Brock Osweiler'
p350
g10
tp351
a(S'Trevor Siemian'
p352
g10
tp353
a(S'C.J. Anderson'
p354
g15
tp355
a(S'Ronnie Hillman'
p356
g15
tp357
a(S'Juwan Thompson'
p358
g15
tp359
a(S'Andre Caldwell'
p360
g26
tp361
a(S'Bennie Fowler'
p362
g26
tp363
a(S'Cody Latimer'
p364
g26
tp365
a(S'Jordan Norwood'
p366
g26
tp367
a(S'Emmanuel Sanders'
p368
g26
tp369
a(S'Demaryius Thomas'
p370
g26
tp371
a(S'Owen Daniels'
p372
g37
tp373
a(S'Virgil Green'
p374
g37
tp375
a(S'Mitchell Henry'
p376
g37
tp377
a(S'Brandon McManus'
p378
g46
tp379
asg48
I00
sg49
F18.0
sg50
F0.0
sg51
F1.0
sg52
F0.0
sg53
F1.0
sg54
S'12-24'
p380
sg56
I01
sg57
F42.0
sg58
F0.0
ssS'2'
p381
(dp382
g5
F18.0
sg6
F2.0
sg7
(lp383
(S'Teddy Bridgewater'
p384
g10
tp385
a(S'Taylor Heinicke'
p386
g10
tp387
a(S'Shaun Hill'
p388
g10
tp389
a(S'Matt Asiata'
p390
g15
tp391
a(S'Zach Line'
p392
g15
tp393
a(S'Jerick McKinnon'
p394
g15
tp395
a(S'Adrian Peterson'
p396
g15
tp397
a(S'Stefon Diggs'
p398
g26
tp399
a(S'Charles Johnson'
p400
g26
tp401
a(S'Cordarrelle Patterson'
p402
g26
tp403
a(S'Adam Thielen'
p404
g26
tp405
a(S'Mike Wallace'
p406
g26
tp407
a(S'Jarius Wright'
p408
g26
tp409
a(S'Rhett Ellison'
p410
g37
tp411
a(S'MyCole Pruitt'
p412
g37
tp413
a(S'Kyle Rudolph'
p414
g37
tp415
a(S'Blair Walsh'
p416
g46
tp417
asg48
I00
sg49
F42.0
sg50
F153.0
sg51
F2.0
sg52
F1.0
sg53
F2.0
sg54
S'16-26'
p418
sg56
I00
sg57
F199.0
sg58
F0.0
ssS'5'
p419
(dp420
g5
F18.0
sg6
F3.0
sg7
(lp421
(S'Matt Barkley'
p422
g10
tp423
a(S'Carson Palmer'
p424
g10
tp425
a(S'Drew Stanton'
p426
g10
tp427
a(S'Andre Ellington'
p428
g15
tp429
a(S'Chris Johnson'
p430
g15
tp431
a(S'David Johnson'
p432
g15
tp433
a(S'Stepfan Taylor'
p434
g15
tp435
a(S'Jaron Brown'
p436
g26
tp437
a(S'John Brown'
p438
g26
tp439
a(S'Larry Fitzgerald'
p440
g26
tp441
a(S'Michael Floyd'
p442
g26
tp443
a(S'Brittan Golden'
p444
g26
tp445
a(S'J.J. Nelson'
p446
g26
tp447
a(S'Mike Williams'
p448
g26
tp449
a(S'Darren Fells'
p450
g37
tp451
a(S'Jermaine Gresham'
p452
g37
tp453
a(S'Troy Niklas'
p454
g37
tp455
a(S'Chandler Catanzaro'
p456
g46
tp457
asg48
I00
sg49
F25.0
sg50
F171.0
sg51
F0.0
sg52
F3.0
sg53
F0.0
sg54
S'17-42'
p458
sg56
I01
sg57
F187.0
sg58
F0.0
ssS'4'
p459
(dp460
g5
F26.0
sg6
F0.0
sg7
(lp461
(S'Tarvaris Jackson'
p462
g10
tp463
a(S'Russell Wilson'
p464
g10
tp465
a(S'Derrick Coleman'
p466
g15
tp467
a(S'Fred Jackson'
p468
g15
tp469
a(S'Thomas Rawls'
p470
g15
tp471
a(S'Will Tukuafu'
p472
g15
tp473
a(S'Doug Baldwin'
p474
g26
tp475
a(S'Jermaine Kearse'
p476
g26
tp477
a(S'Tyler Lockett'
p478
g26
tp479
a(S'Ricardo Lockette'
p480
g26
tp481
a(S'Chris Matthews'
p482
g26
tp483
a(S'Jimmy Graham'
p484
g37
tp485
a(S'Cooper Helfet'
p486
g37
tp487
a(S'Zach Sudfeld'
p488
g37
tp489
a(S'Luke Willson'
p490
g37
tp491
a(S'Steven Hauschka'
p492
g46
tp493
asg48
I00
sg49
F31.0
sg50
F287.0
sg51
F2.0
sg52
F1.0
sg53
F2.0
sg54
S'10-13'
p494
sg56
I00
sg57
F110.0
sg58
F0.0
ssS'7'
p495
(dp496
g5
F35.0
sg6
F0.0
sg7
(lp497
(S'Teddy Bridgewater'
p498
g10
tp499
a(S'Taylor Heinicke'
p500
g10
tp501
a(S'Shaun Hill'
p502
g10
tp503
a(S'Matt Asiata'
p504
g15
tp505
a(S'Zach Line'
p506
g15
tp507
a(S'Jerick McKinnon'
p508
g15
tp509
a(S'Adrian Peterson'
p510
g15
tp511
a(S'Stefon Diggs'
p512
g26
tp513
a(S'Charles Johnson'
p514
g26
tp515
a(S'Cordarrelle Patterson'
p516
g26
tp517
a(S'Adam Thielen'
p518
g26
tp519
a(S'Mike Wallace'
p520
g26
tp521
a(S'Jarius Wright'
p522
g26
tp523
a(S'Rhett Ellison'
p524
g37
tp525
a(S'MyCole Pruitt'
p526
g37
tp527
a(S'Kyle Rudolph'
p528
g37
tp529
a(S'Blair Walsh'
p530
g46
tp531
asg48
I00
sg49
F34.0
sg50
F316.0
sg51
F5.0
sg52
F2.0
sg53
F5.0
sg54
S'19-28'
p532
sg56
I01
sg57
F146.0
sg58
F0.0
ssS'6'
p533
(dp534
g5
F41.0
sg6
F2.0
sg7
(lp535
(S'Jimmy Clausen'
p536
g10
tp537
a(S'Jay Cutler'
p538
g10
tp539
a(S"Ka'Deem Carey"
p540
g15
tp541
a(S'Matt Forte'
p542
g15
tp543
a(S'Jeremy Langford'
p544
g15
tp545
a(S'Josh Bellamy'
p546
g26
tp547
a(S'Alshon Jeffery'
p548
g26
tp549
a(S'Marc Mariani'
p550
g26
tp551
a(S'Cameron Meredith'
p552
g26
tp553
a(S'Eddie Royal'
p554
g26
tp555
a(S'Marquess Wilson'
p556
g26
tp557
a(S'Martellus Bennett'
p558
g37
tp559
a(S'Khari Lee'
p560
g37
tp561
a(S'Zach Miller'
p562
g37
tp563
a(S'Robbie Gould'
p564
g46
tp565
asg48
I01
sg49
F31.0
sg50
F353.0
sg51
F4.0
sg52
F1.0
sg53
F4.0
sg54
S'37-34'
p566
sg56
I01
sg57
F91.0
sg58
F0.0
ssS'9'
p567
(dp568
g5
F0.0
sg6
F0.0
sg7
(lp569
sg48
(lp570
sg49
F0.0
sg50
F0.0
sg51
F0.0
sg52
F0.0
sg53
F0.0
sg54
(lp571
sg56
(lp572
sg57
F0.0
sg58
F0.0
ssS'8'
p573
(dp574
g5
F28.0
sg6
F4.0
sg7
(lp575
(S'Chase Daniel'
p576
g10
tp577
a(S'Aaron Murray'
p578
g10
tp579
a(S'Alex Smith'
p580
g10
tp581
a(S'Knile Davis'
p582
g15
tp583
a(S'Anthony Sherman'
p584
g15
tp585
a(S'Spencer Ware'
p586
g15
tp587
a(S'Charcandrick West'
p588
g15
tp589
a(S'Jason Avant'
p590
g26
tp591
a(S'Chris Conley'
p592
g26
tp593
a(S'Frankie Hammond'
p594
g26
tp595
a(S'Jeremy Maclin'
p596
g26
tp597
a(S"De'Anthony Thomas"
p598
g26
tp599
a(S'Albert Wilson'
p600
g26
tp601
a(S'Demetrius Harris'
p602
g37
tp603
a(S'Travis Kelce'
p604
g37
tp605
a(S"James O'Shaughnessy"
p606
g37
tp607
a(S'Brian Parker'
p608
g37
tp609
a(S'Cairo Santos'
p610
g46
tp611
asg48
I00
sg49
F32.0
sg50
F149.0
sg51
F1.0
sg52
F2.0
sg53
F1.0
sg54
S'10-45'
p612
sg56
I00
sg57
F206.0
sg58
F0.0
sssS'2014'
p613
(dp614
g3
(dp615
g5
F32.0
sg6
F0.0
sg7
(lp616
(S'Drew Stanton'
p617
g10
tp618
a(S'Logan Thomas'
p619
g10
tp620
a(S'Andre Ellington'
p621
g15
tp622
a(S'Stepfan Taylor'
p623
g15
tp624
a(S'Kerwynn Williams'
p625
g15
tp626
a(S'Jaron Brown'
p627
g26
tp628
a(S'John Brown'
p629
g26
tp630
a(S'Larry Fitzgerald'
p631
g26
tp632
a(S'Michael Floyd'
p633
g26
tp634
a(S'Ted Ginn'
p635
g26
tp636
a(S'Darren Fells'
p637
g37
tp638
a(S'Rob Housler'
p639
g37
tp640
a(S'Troy Niklas'
p641
g37
tp642
a(S'Chandler Catanzaro'
p643
g46
tp644
asg48
I00
sg49
F25.0
sg50
F306.0
sg51
F0.0
sg52
F2.0
sg53
F0.0
sg54
S'6-14'
p645
sg56
I00
sg57
F44.0
sg58
F0.0
ssg59
(dp646
g5
F38.0
sg6
F0.0
sg7
(lp647
(S'Matt Moore'
p648
g10
tp649
a(S'Ryan Tannehill'
p650
g10
tp651
a(S'Lamar Miller'
p652
g15
tp653
a(S'Daniel Thomas'
p654
g15
tp655
a(S'Damien Williams'
p656
g15
tp657
a(S'Brandon Gibson'
p658
g26
tp659
a(S'Brian Hartline'
p660
g26
tp661
a(S'Jarvis Landry'
p662
g26
tp663
a(S'Rishard Matthews'
p664
g26
tp665
a(S'Mike Wallace'
p666
g26
tp667
a(S'Charles Clay'
p668
g37
tp669
a(S'Dion Sims'
p670
g37
tp671
a(S'Caleb Sturgis'
p672
g46
tp673
asg48
I01
sg49
F19.0
sg50
F207.0
sg51
F3.0
sg52
F1.0
sg53
F3.0
sg54
S'20-16'
p674
sg56
I01
sg57
F50.0
sg58
F0.0
ssg97
(dp675
g5
F48.0
sg6
F0.0
sg7
(lp676
(S'Jimmy Clausen'
p677
g10
tp678
a(S'Jay Cutler'
p679
g10
tp680
a(S"Ka'Deem Carey"
p681
g15
tp682
a(S'Matt Forte'
p683
g15
tp684
a(S'Senorise Perry'
p685
g15
tp686
a(S'Alshon Jeffery'
p687
g26
tp688
a(S'Marc Mariani'
p689
g26
tp690
a(S'Brandon Marshall'
p691
g26
tp692
a(S'Marquess Wilson'
p693
g26
tp694
a(S'Blake Annen'
p695
g37
tp696
a(S'Martellus Bennett'
p697
g37
tp698
a(S'Robbie Gould'
p699
g46
tp700
asg48
I01
sg49
F8.0
sg50
F280.0
sg51
F1.0
sg52
F2.0
sg53
F1.0
sg54
S'34-17'
p701
sg56
I01
sg57
F13.0
sg58
F0.0
ssg137
(dp702
g5
F53.0
sg6
F2.0
sg7
(lp703
(S'Tom Brady'
p704
g10
tp705
a(S'Jimmy Garoppolo'
p706
g10
tp707
a(S'LeGarrette Blount'
p708
g15
tp709
a(S'Brandon Bolden'
p710
g15
tp711
a(S'James Develin'
p712
g15
tp713
a(S'Jonas Gray'
p714
g15
tp715
a(S'Shane Vereen'
p716
g15
tp717
a(S'James White'
p718
g15
tp719
a(S'Danny Amendola'
p720
g26
tp721
a(S'Aaron Dobson'
p722
g26
tp723
a(S'Julian Edelman'
p724
g26
tp725
a(S'Brandon LaFell'
p726
g26
tp727
a(S'Matthew Slater'
p728
g26
tp729
a(S'Brian Tyms'
p730
g26
tp731
a(S'Rob Gronkowski'
p732
g37
tp733
a(S'Michael Hoomanawanui'
p734
g37
tp735
a(S'Timothy Wright'
p736
g37
tp737
a(S'Stephen Gostkowski'
p738
g46
tp739
asg48
I00
sg49
F20.0
sg50
F349.0
sg51
F2.0
sg52
F2.0
sg53
F2.0
sg54
S'9-34'
p740
sg56
I00
sg57
F90.0
sg58
F0.0
ssg173
(dp741
g5
F41.0
sg6
F1.0
sg7
(lp742
(S'Teddy Bridgewater'
p743
g10
tp744
a(S'Matt Asiata'
p745
g15
tp746
a(S'Joe Banyard'
p747
g15
tp748
a(S'Jerome Felton'
p749
g15
tp750
a(S'Zach Line'
p751
g15
tp752
a(S'Greg Jennings'
p753
g26
tp754
a(S'Charles Johnson'
p755
g26
tp756
a(S'Cordarrelle Patterson'
p757
g26
tp758
a(S'Adam Thielen'
p759
g26
tp760
a(S'Jarius Wright'
p761
g26
tp762
a(S'Rhett Ellison'
p763
g37
tp764
a(S'Kyle Rudolph'
p765
g37
tp766
a(S'Blair Walsh'
p767
g46
tp768
asg48
I01
sg49
F16.0
sg50
F315.0
sg51
F3.0
sg52
F1.0
sg53
F0.0
sg54
S'16-14'
p769
sg56
I01
sg57
F68.0
sg58
F1.0
ssg209
(dp770
g5
F39.0
sg6
F0.0
sg7
(lp771
(S'Mike Glennon'
p772
g10
tp773
a(S'Josh McCown'
p774
g10
tp775
a(S'Mike James'
p776
g15
tp777
a(S'Doug Martin'
p778
g15
tp779
a(S'Bobby Rainey'
p780
g15
tp781
a(S'Charles Sims'
p782
g15
tp783
a(S'Mike Evans'
p784
g26
tp785
a(S'Vincent Jackson'
p786
g26
tp787
a(S'Louis Murphy'
p788
g26
tp789
a(S'Russell Shepard'
p790
g26
tp791
a(S'Cameron Brate'
p792
g37
tp793
a(S'Brandon Myers'
p794
g37
tp795
a(S'Austin Seferian-Jenkins'
p796
g37
tp797
a(S'Luke Stocker'
p798
g37
tp799
a(S'Patrick Murray'
p800
g46
tp801
asg48
I01
sg49
F14.0
sg50
F250.0
sg51
F1.0
sg52
F2.0
sg53
F1.0
sg54
S'34-17'
p802
sg56
I01
sg57
F26.0
sg58
F0.0
ssg245
(dp803
g5
F23.0
sg6
F1.0
sg7
(lp804
(S'Matt Flynn'
p805
g10
tp806
a(S'Aaron Rodgers'
p807
g10
tp808
a(S'Scott Tolzien'
p809
g10
tp810
a(S'DuJuan Harris'
p811
g15
tp812
a(S'John Kuhn'
p813
g15
tp814
a(S'Eddie Lacy'
p815
g15
tp816
a(S'James Starks'
p817
g15
tp818
a(S'Davante Adams'
p819
g26
tp820
a(S'Jarrett Boykin'
p821
g26
tp822
a(S'Randall Cobb'
p823
g26
tp824
a(S'Jeff Janis'
p825
g26
tp826
a(S'Jordy Nelson'
p827
g26
tp828
a(S'Brandon Bostick'
p829
g37
tp830
a(S'Justin Perillo'
p831
g37
tp832
a(S'Andrew Quarless'
p833
g37
tp834
a(S'Richard Rodgers'
p835
g37
tp836
a(S'Mason Crosby'
p837
g46
tp838
asg48
I00
sg49
F38.0
sg50
F232.0
sg51
F1.0
sg52
F2.0
sg53
F0.0
sg54
S'20-30'
p839
sg56
I00
sg57
F152.0
sg58
F1.0
ssg277
(dp840
g5
F39.0
sg6
F0.0
sg7
(lp841
(S'Jimmy Clausen'
p842
g10
tp843
a(S'Jay Cutler'
p844
g10
tp845
a(S'David Fales'
p846
g10
tp847
a(S"Ka'Deem Carey"
p848
g15
tp849
a(S'Matt Forte'
p850
g15
tp851
a(S'Senorise Perry'
p852
g15
tp853
a(S'Josh Bellamy'
p854
g26
tp855
a(S'Alshon Jeffery'
p856
g26
tp857
a(S'Marc Mariani'
p858
g26
tp859
a(S'Marquess Wilson'
p860
g26
tp861
a(S'Blake Annen'
p862
g37
tp863
a(S'Martellus Bennett'
p864
g37
tp865
a(S'Robbie Gould'
p866
g46
tp867
asg48
I01
sg49
F22.0
sg50
F181.0
sg51
F0.0
sg52
F2.0
sg53
F0.0
sg54
S'20-14'
p868
sg56
I00
sg57
F64.0
sg58
F0.0
ssg313
(dp869
g5
F33.0
sg6
F1.0
sg7
(lp870
(S'Eli Manning'
p871
g10
tp872
a(S'Ryan Nassib'
p873
g10
tp874
a(S'Rashad Jennings'
p875
g15
tp876
a(S'Andre Williams'
p877
g15
tp878
a(S'Odell Beckham'
p879
g26
tp880
a(S'Victor Cruz'
p881
g26
tp882
a(S'Rueben Randle'
p883
g26
tp884
a(S'Larry Donnell'
p885
g37
tp886
a(S'Daniel Fells'
p887
g37
tp888
a(S'Josh Brown'
p889
g46
tp890
asg48
I01
sg49
F21.0
sg50
F163.0
sg51
F0.0
sg52
F1.0
sg53
F0.0
sg54
S'35-14'
p891
sg56
I01
sg57
F55.0
sg58
F0.0
ssg347
(dp892
g5
F27.0
sg6
F0.0
sg7
(lp893
(S'Matt Flynn'
p894
g10
tp895
a(S'Aaron Rodgers'
p896
g10
tp897
a(S'Scott Tolzien'
p898
g10
tp899
a(S'DuJuan Harris'
p900
g15
tp901
a(S'John Kuhn'
p902
g15
tp903
a(S'Eddie Lacy'
p904
g15
tp905
a(S'James Starks'
p906
g15
tp907
a(S'Davante Adams'
p908
g26
tp909
a(S'Jarrett Boykin'
p910
g26
tp911
a(S'Randall Cobb'
p912
g26
tp913
a(S'Jeff Janis'
p914
g26
tp915
a(S'Jordy Nelson'
p916
g26
tp917
a(S'Brandon Bostick'
p918
g37
tp919
a(S'Andrew Quarless'
p920
g37
tp921
a(S'Richard Rodgers'
p922
g37
tp923
a(S'Mason Crosby'
p924
g46
tp925
asg48
I01
sg49
F22.0
sg50
F162.0
sg51
F0.0
sg52
F1.0
sg53
F0.0
sg54
S'19-7'
p926
sg56
I01
sg57
F76.0
sg58
F0.0
ssg381
(dp927
g5
F34.0
sg6
F1.0
sg7
(lp928
(S'Derek Anderson'
p929
g10
tp930
a(S'Cam Newton'
p931
g10
tp932
a(S'Joe Webb'
p933
g10
tp934
a(S'Jonathan Stewart'
p935
g15
tp936
a(S'Mike Tolbert'
p937
g15
tp938
a(S'Fozzy Whittaker'
p939
g15
tp940
a(S'DeAngelo Williams'
p941
g15
tp942
a(S'Jason Avant'
p943
g26
tp944
a(S'Kelvin Benjamin'
p945
g26
tp946
a(S'Brenton Bersin'
p947
g26
tp948
a(S'Corey Brown'
p949
g26
tp950
a(S'Jerricho Cotchery'
p951
g26
tp952
a(S'Ed Dickson'
p953
g37
tp954
a(S'Greg Olsen'
p955
g37
tp956
a(S'Brandon Williams'
p957
g37
tp958
a(S'Graham Gano'
p959
g46
tp960
asg48
I00
sg49
F24.0
sg50
F281.0
sg51
F3.0
sg52
F1.0
sg53
F3.0
sg54
S'7-24'
p961
sg56
I00
sg57
F62.0
sg58
F0.0
ssg419
(dp962
g5
F0.0
sg6
F0.0
sg7
(lp963
(S'EJ Manuel'
p964
g10
tp965
a(S'Bryce Brown'
p966
g15
tp967
a(S'Anthony Dixon'
p968
g15
tp969
a(S'Fred Jackson'
p970
g15
tp971
a(S'C.J. Spiller'
p972
g15
tp973
a(S'Marcus Easley'
p974
g26
tp975
a(S'Marquise Goodwin'
p976
g26
tp977
a(S'Chris Hogan'
p978
g26
tp979
a(S'Sammy Watkins'
p980
g26
tp981
a(S'Mike Williams'
p982
g26
tp983
a(S'Robert Woods'
p984
g26
tp985
a(S'Scott Chandler'
p986
g37
tp987
a(S'Chris Gragg'
p988
g37
tp989
a(S'Lee Smith'
p990
g37
tp991
a(S'Dan Carpenter'
p992
g46
tp993
a(S'Jordan Gay'
p994
g46
tp995
asg48
I00
sg49
F21.0
sg50
F0.0
sg51
F4.0
sg52
F0.0
sg53
F3.0
sg54
S'14-17'
p996
sg56
I01
sg57
F49.0
sg58
F0.0
ssg459
(dp997
g5
F33.0
sg6
F1.0
sg7
(lp998
(S'Geno Smith'
p999
g10
tp1000
a(S'Mike Vick'
p1001
g10
tp1002
a(S'Tommy Bohanon'
p1003
g15
tp1004
a(S'Chris Ivory'
p1005
g15
tp1006
a(S'Chris Johnson'
p1007
g15
tp1008
a(S'Bilal Powell'
p1009
g15
tp1010
a(S'Eric Decker'
p1011
g26
tp1012
a(S'Saalim Hakim'
p1013
g26
tp1014
a(S'Jeremy Kerley'
p1015
g26
tp1016
a(S'Walt Powell'
p1017
g26
tp1018
a(S'Greg Salas'
p1019
g26
tp1020
a(S'Jace Amaro'
p1021
g37
tp1022
a(S'Jeff Cumberland'
p1023
g37
tp1024
a(S'Zach Sudfeld'
p1025
g37
tp1026
a(S'Nick Folk'
p1027
g46
tp1028
asg48
I01
sg49
F27.0
sg50
F209.0
sg51
F1.0
sg52
F1.0
sg53
F1.0
sg54
S'24-17'
p1029
sg56
I00
sg57
F132.0
sg58
F0.0
ssg495
(dp1030
g5
F45.0
sg6
F0.0
sg7
(lp1031
(S'Drew Brees'
p1032
g10
tp1033
a(S'Luke McCown'
p1034
g10
tp1035
a(S'Travaris Cadet'
p1036
g15
tp1037
a(S'Mark Ingram'
p1038
g15
tp1039
a(S'Austin Johnson'
p1040
g15
tp1041
a(S'Khiry Robinson'
p1042
g15
tp1043
a(S'Pierre Thomas'
p1044
g15
tp1045
a(S'Marques Colston'
p1046
g26
tp1047
a(S'Brandin Cooks'
p1048
g26
tp1049
a(S'Kenny Stills'
p1050
g26
tp1051
a(S'Nick Toon'
p1052
g26
tp1053
a(S'Jimmy Graham'
p1054
g37
tp1055
a(S'Josh Hill'
p1056
g37
tp1057
a(S'Benjamin Watson'
p1058
g37
tp1059
a(S'Shayne Graham'
p1060
g46
tp1061
asg48
I01
sg49
F21.0
sg50
F342.0
sg51
F3.0
sg52
F2.0
sg53
F3.0
sg54
S'24-23'
p1062
sg56
I01
sg57
F73.0
sg58
F0.0
ssg533
(dp1063
g5
F37.0
sg6
F0.0
sg7
(lp1064
(S'Teddy Bridgewater'
p1065
g10
tp1066
a(S'Matt Asiata'
p1067
g15
tp1068
a(S'Joe Banyard'
p1069
g15
tp1070
a(S'Jerome Felton'
p1071
g15
tp1072
a(S'Zach Line'
p1073
g15
tp1074
a(S'Jerick McKinnon'
p1075
g15
tp1076
a(S'Greg Jennings'
p1077
g26
tp1078
a(S'Charles Johnson'
p1079
g26
tp1080
a(S'Cordarrelle Patterson'
p1081
g26
tp1082
a(S'Adam Thielen'
p1083
g26
tp1084
a(S'Jarius Wright'
p1085
g26
tp1086
a(S'Rhett Ellison'
p1087
g37
tp1088
a(S'MarQueis Gray'
p1089
g37
tp1090
a(S'Kyle Rudolph'
p1091
g37
tp1092
a(S'Blair Walsh'
p1093
g46
tp1094
asg48
I01
sg49
F18.0
sg50
F188.0
sg51
F1.0
sg52
F0.0
sg53
F1.0
sg54
S'17-3'
p1095
sg56
I00
sg57
F69.0
sg58
F0.0
ssg567
(dp1096
g5
F0.0
sg6
F0.0
sg7
(lp1097
sg48
(lp1098
sg49
F0.0
sg50
F0.0
sg51
F0.0
sg52
F0.0
sg53
F0.0
sg54
(lp1099
sg56
(lp1100
sg57
F0.0
sg58
F0.0
ssg573
(dp1101
g5
F27.0
sg6
F1.0
sg7
(lp1102
(S'Sean Renfree'
p1103
g10
tp1104
a(S'Matt Ryan'
p1105
g10
tp1106
a(S'T.J. Yates'
p1107
g10
tp1108
a(S'Patrick DiMarco'
p1109
g15
tp1110
a(S'Devont Freeman'
p1111
g15
tp1112
a(S'Steven Jackson'
p1113
g15
tp1114
a(S'Jacquizz Rodgers'
p1115
g15
tp1116
a(S'Harry Douglas'
p1117
g26
tp1118
a(S'Devin Hester'
p1119
g26
tp1120
a(S'Julio Jones'
p1121
g26
tp1122
a(S'Freddie Martino'
p1123
g26
tp1124
a(S'Eric Weems'
p1125
g26
tp1126
a(S'Roddy White'
p1127
g26
tp1128
a(S'Bear Pascoe'
p1129
g37
tp1130
a(S'Levine Toilolo'
p1131
g37
tp1132
a(S'Matt Bryant'
p1133
g46
tp1134
asg48
I01
sg49
F23.0
sg50
F228.0
sg51
F0.0
sg52
F2.0
sg53
F0.0
sg54
S'22-21'
p1135
sg56
I00
sg57
F73.0
sg58
F0.0
sssS'2011'
p1136
(dp1137
g3
(dp1138
g5
F38.0
sg6
F2.0
sg7
(lp1139
(S'Derek Anderson'
p1140
g10
tp1141
a(S'Jimmy Clausen'
p1142
g10
tp1143
a(S'Cam Newton'
p1144
g10
tp1145
a(S'Jerome Felton'
p1146
g15
tp1147
a(S'Jonathan Stewart'
p1148
g15
tp1149
a(S'DeAngelo Williams'
p1150
g15
tp1151
a(S'Seyi Ajirotutu'
p1152
g26
tp1153
a(S'Brandon LaFell'
p1154
g26
tp1155
a(S'Steve Smith'
p1156
g26
tp1157
a(S'Greg Olsen'
p1158
g37
tp1159
asg48
I01
sg49
F26.0
sg50
F280.0
sg51
F0.0
sg52
F1.0
sg53
F0.0
sg54
S'49-35'
p1160
sg56
I01
sg57
F137.0
sg58
F0.0
ssg59
(dp1161
g5
F19.0
sg6
F1.0
sg7
(lp1162
(S'Jay Cutler'
p1163
g10
tp1164
a(S'Tyler Clutts'
p1165
g15
tp1166
a(S'Matt Forte'
p1167
g15
tp1168
a(S'Devin Hester'
p1169
g26
tp1170
a(S'Kellen Davis'
p1171
g37
tp1172
a(S'Matt Spaeth'
p1173
g37
tp1174
a(S'Robbie Gould'
p1175
g46
tp1176
asg48
I00
sg49
F22.0
sg50
F123.0
sg51
F4.0
sg52
F0.0
sg53
F3.0
sg54
S'13-37'
p1177
sg56
I00
sg57
F82.0
sg58
F0.0
ssg97
(dp1178
g5
F36.0
sg6
F1.0
sg7
(lp1179
(S'Drew Brees'
p1180
g10
tp1181
a(S'Chase Daniel'
p1182
g10
tp1183
a(S'Mark Ingram'
p1184
g15
tp1185
a(S'Chris Ivory'
p1186
g15
tp1187
a(S'Darren Sproles'
p1188
g15
tp1189
a(S'Pierre Thomas'
p1190
g15
tp1191
a(S'Marques Colston'
p1192
g26
tp1193
a(S'Lance Moore'
p1194
g26
tp1195
a(S'Jimmy Graham'
p1196
g37
tp1197
asg48
I00
sg49
F22.0
sg50
F342.0
sg51
F0.0
sg52
F3.0
sg53
F0.0
sg54
S'17-31'
p1198
sg56
I00
sg57
F92.0
sg58
F0.0
ssg137
(dp1199
g5
F33.0
sg6
F1.0
sg7
(lp1200
(S'Matt Flynn'
p1201
g10
tp1202
a(S'Aaron Rodgers'
p1203
g10
tp1204
a(S'John Kuhn'
p1205
g15
tp1206
a(S'James Starks'
p1207
g15
tp1208
a(S'Randall Cobb'
p1209
g26
tp1210
a(S'Greg Jennings'
p1211
g26
tp1212
a(S'James Jones'
p1213
g26
tp1214
a(S'Jordy Nelson'
p1215
g26
tp1216
a(S'Andrew Quarless'
p1217
g37
tp1218
a(S'Mason Crosby'
p1219
g46
tp1220
asg48
I00
sg49
F10.0
sg50
F307.0
sg51
F2.0
sg52
F2.0
sg53
F2.0
sg54
S'15-27'
p1221
sg56
I01
sg57
F23.0
sg58
F0.0
ssg173
(dp1222
g5
F0.0
sg6
F1.0
sg7
(lp1223
(S'Taiwan Jones'
p1224
g15
tp1225
a(S'Darren McFadden'
p1226
g15
tp1227
a(S'Marcel Reece'
p1228
g15
tp1229
a(S'Darrius Heyward-Bey'
p1230
g26
tp1231
a(S'Louis Murphy'
p1232
g26
tp1233
a(S'Terrelle Pryor'
p1234
g26
tp1235
a(S'Richard Gordon'
p1236
g37
tp1237
a(S'Brandon Myers'
p1238
g37
tp1239
a(S'Sebastian Janikowski'
p1240
g46
tp1241
asg48
I01
sg49
F3.0
sg50
F0.0
sg51
F3.0
sg52
F0.0
sg53
F2.0
sg54
S'28-27'
p1242
sg56
I00
sg57
F42.0
sg58
F1.0
ssg209
(dp1243
g5
F23.0
sg6
F1.0
sg7
(lp1244
(S'Joe Webb'
p1245
g10
tp1246
a(S'Toby Gerhart'
p1247
g15
tp1248
a(S'Adrian Peterson'
p1249
g15
tp1250
a(S'Percy Harvin'
p1251
g26
tp1252
a(S'Allen Reisner'
p1253
g37
tp1254
a(S'Kyle Rudolph'
p1255
g37
tp1256
asg48
I01
sg49
F30.0
sg50
F84.0
sg51
F0.0
sg52
F1.0
sg53
F0.0
sg54
S'34-28'
p1257
sg56
I01
sg57
F239.0
sg58
F0.0
ssg245
(dp1258
g5
F44.0
sg6
F0.0
sg7
(lp1259
(S'Matt Flynn'
p1260
g10
tp1261
a(S'Aaron Rodgers'
p1262
g10
tp1263
a(S'John Kuhn'
p1264
g15
tp1265
a(S'James Starks'
p1266
g15
tp1267
a(S'Randall Cobb'
p1268
g26
tp1269
a(S'Greg Jennings'
p1270
g26
tp1271
a(S'James Jones'
p1272
g26
tp1273
a(S'Jordy Nelson'
p1274
g26
tp1275
a(S'Mason Crosby'
p1276
g46
tp1277
asg48
I00
sg49
F4.0
sg50
F480.0
sg51
F2.0
sg52
F6.0
sg53
F1.0
sg54
S'41-45'
p1278
sg56
I00
sg57
F5.0
sg58
F0.0
ssg277
(dp1279
g5
F53.0
sg6
F0.0
sg7
(lp1280
(S'Philip Rivers'
p1281
g10
tp1282
a(S'Ryan Mathews'
p1283
g15
tp1284
a(S'Mike Tolbert'
p1285
g15
tp1286
a(S'Vincent Brown'
p1287
g26
tp1288
a(S'Malcom Floyd'
p1289
g26
tp1290
a(S'Vincent Jackson'
p1291
g26
tp1292
a(S'Bryan Walters'
p1293
g26
tp1294
a(S'Antonio Gates'
p1295
g37
tp1296
a(S'Nick Novak'
p1297
g46
tp1298
asg48
I01
sg49
F16.0
sg50
F299.0
sg51
F1.0
sg52
F1.0
sg53
F1.0
sg54
S'38-10'
p1299
sg56
I01
sg57
F65.0
sg58
F0.0
ssg313
(dp1300
g5
F46.0
sg6
F0.0
sg7
(lp1301
(S'Josh Freeman'
p1302
g10
tp1303
a(S'Josh Johnson'
p1304
g10
tp1305
a(S'LeGarrette Blount'
p1306
g15
tp1307
a(S'Arrelious Benn'
p1308
g26
tp1309
a(S'Mike Williams'
p1310
g26
tp1311
a(S'Luke Stocker'
p1312
g37
tp1313
a(S'Connor Barth'
p1314
g46
tp1315
asg48
I01
sg49
F10.0
sg50
F266.0
sg51
F2.0
sg52
F1.0
sg53
F2.0
sg54
S'27-20'
p1316
sg56
I00
sg57
F43.0
sg58
F0.0
ssg347
(dp1317
g5
F0.0
sg6
F1.0
sg7
(lp1318
(S'Joe Webb'
p1319
g10
tp1320
a(S'Toby Gerhart'
p1321
g15
tp1322
a(S'Adrian Peterson'
p1323
g15
tp1324
a(S'Percy Harvin'
p1325
g26
tp1326
a(S'Allen Reisner'
p1327
g37
tp1328
a(S'Kyle Rudolph'
p1329
g37
tp1330
asg48
I01
sg49
F21.0
sg50
F0.0
sg51
F0.0
sg52
F0.0
sg53
F0.0
sg54
S'26-23'
p1331
sg56
I00
sg57
F121.0
sg58
F0.0
ssg381
(dp1332
g5
F22.0
sg6
F0.0
sg7
(lp1333
(S'Matt Cassel'
p1334
g10
tp1335
a(S'Jamaal Charles'
p1336
g15
tp1337
a(S'Dexter McCluster'
p1338
g15
tp1339
a(S'Dwayne Bowe'
p1340
g26
tp1341
a(S'Ryan Succop'
p1342
g46
tp1343
asg48
I01
sg49
F11.0
sg50
F133.0
sg51
F2.0
sg52
F0.0
sg53
F1.0
sg54
S'48-3'
p1344
sg56
I01
sg57
F90.0
sg58
F0.0
ssg419
(dp1345
g5
F38.0
sg6
F0.0
sg7
(lp1346
(S'Jay Cutler'
p1347
g10
tp1348
a(S'Tyler Clutts'
p1349
g15
tp1350
a(S'Matt Forte'
p1351
g15
tp1352
a(S'Devin Hester'
p1353
g26
tp1354
a(S'Kellen Davis'
p1355
g37
tp1356
a(S'Matt Spaeth'
p1357
g37
tp1358
a(S'Robbie Gould'
p1359
g46
tp1360
asg48
I01
sg49
F24.0
sg50
F249.0
sg51
F2.0
sg52
F1.0
sg53
F2.0
sg54
S'24-13'
p1361
sg56
I01
sg57
F119.0
sg58
F0.0
ssg459
(dp1362
g5
F47.0
sg6
F0.0
sg7
(lp1363
(S'Tony Romo'
p1364
g10
tp1365
a(S'DeMarco Murray'
p1366
g15
tp1367
a(S'Dez Bryant'
p1368
g26
tp1369
a(S'Dwayne Harris'
p1370
g26
tp1371
a(S'Martellus Bennett'
p1372
g37
tp1373
a(S'John Phillips'
p1374
g37
tp1375
a(S'Jason Witten'
p1376
g37
tp1377
a(S'Dan Bailey'
p1378
g46
tp1379
asg48
I01
sg49
F5.0
sg50
F331.0
sg51
F3.0
sg52
F3.0
sg53
F3.0
sg54
S'34-30'
p1380
sg56
I00
sg57
F17.0
sg58
F0.0
ssg495
(dp1381
g5
F34.0
sg6
F1.0
sg7
(lp1382
(S'Matt Ryan'
p1383
g10
tp1384
a(S'Jacquizz Rodgers'
p1385
g15
tp1386
a(S'Harry Douglas'
p1387
g26
tp1388
a(S'Julio Jones'
p1389
g26
tp1390
a(S'Eric Weems'
p1391
g26
tp1392
a(S'Roddy White'
p1393
g26
tp1394
a(S'Matt Bryant'
p1395
g46
tp1396
asg48
I00
sg49
F4.0
sg50
F218.0
sg51
F3.0
sg52
F1.0
sg53
F3.0
sg54
S'16-23'
p1397
sg56
I01
sg57
F7.0
sg58
F0.0
ssg533
(dp1398
g5
F32.0
sg6
F1.0
sg7
(lp1399
(S'Colin Kaepernick'
p1400
g10
tp1401
a(S'Alex Smith'
p1402
g10
tp1403
a(S'Scott Tolzien'
p1404
g10
tp1405
a(S'Anthony Dixon'
p1406
g15
tp1407
a(S'Frank Gore'
p1408
g15
tp1409
a(S'Kendall Hunter'
p1410
g15
tp1411
a(S'Bruce Miller'
p1412
g15
tp1413
a(S'Michael Crabtree'
p1414
g26
tp1415
a(S'Ted Ginn'
p1416
g26
tp1417
a(S'Kyle Williams'
p1418
g26
tp1419
a(S'Vernon Davis'
p1420
g37
tp1421
a(S'Delanie Walker'
p1422
g37
tp1423
asg48
I00
sg49
F29.0
sg50
F125.0
sg51
F0.0
sg52
F1.0
sg53
F0.0
sg54
S'19-25'
p1424
sg56
I01
sg57
F203.0
sg58
F0.0
ssg567
(dp1425
g5
F0.0
sg6
F0.0
sg7
(lp1426
sg48
(lp1427
sg49
F0.0
sg50
F0.0
sg51
F0.0
sg52
F0.0
sg53
F0.0
sg54
(lp1428
sg56
(lp1429
sg57
F0.0
sg58
F0.0
ssg573
(dp1430
g5
F0.0
sg6
F0.0
sg7
(lp1431
(S'Eric Decker'
p1432
g26
tp1433
a(S'Eddie Royal'
p1434
g26
tp1435
a(S'Demaryius Thomas'
p1436
g26
tp1437
a(S'Daniel Fells'
p1438
g37
tp1439
a(S'Virgil Green'
p1440
g37
tp1441
a(S'Julius Thomas'
p1442
g37
tp1443
a(S'Matt Prater'
p1444
g46
tp1445
asg48
I01
sg49
F0.0
sg50
F0.0
sg51
F1.0
sg52
F0.0
sg53
F1.0
sg54
S'45-10'
p1446
sg56
I00
sg57
F0.0
sg58
F0.0
sssS'2010'
p1447
(dp1448
g3
(dp1449
g5
F0.0
sg6
F0.0
sg7
(lp1450
(S'Tony Romo'
p1451
g10
tp1452
a(S'Dez Bryant'
p1453
g26
tp1454
a(S'Martellus Bennett'
p1455
g37
tp1456
a(S'Scott Chandler'
p1457
g37
tp1458
a(S'Jason Witten'
p1459
g37
tp1460
asg48
I00
sg49
F0.0
sg50
F0.0
sg51
F0.0
sg52
F0.0
sg53
F0.0
sg54
S'19-35'
p1461
sg56
I00
sg57
F0.0
sg58
F0.0
ssg59
(dp1462
g5
F24.0
sg6
F1.0
sg7
(lp1463
(S'Ryan Fitzpatrick'
p1464
g10
tp1465
a(S'Fred Jackson'
p1466
g15
tp1467
a(S'C.J. Spiller'
p1468
g15
tp1469
a(S'Steve Johnson'
p1470
g26
tp1471
asg48
I00
sg49
F28.0
sg50
F146.0
sg51
F0.0
sg52
F1.0
sg53
F0.0
sg54
S'12-14'
p1472
sg56
I00
sg57
F146.0
sg58
F0.0
ssg97
(dp1473
g5
F26.0
sg6
F1.0
sg7
(lp1474
(S'Jay Cutler'
p1475
g10
tp1476
a(S'Matt Forte'
p1477
g15
tp1478
a(S'Devin Hester'
p1479
g26
tp1480
a(S'Kellen Davis'
p1481
g37
tp1482
a(S'Greg Olsen'
p1483
g37
tp1484
a(S'Robbie Gould'
p1485
g46
tp1486
asg48
I00
sg49
F19.0
sg50
F234.0
sg51
F1.0
sg52
F1.0
sg53
F1.0
sg54
S'20-24'
p1487
sg56
I01
sg57
F81.0
sg58
F0.0
ssg137
(dp1488
g5
F27.0
sg6
F0.0
sg7
(lp1489
(S'Tom Brady'
p1490
g10
tp1491
a(S'Brian Hoyer'
p1492
g10
tp1493
a(S'Danny Woodhead'
p1494
g15
tp1495
a(S'Julian Edelman'
p1496
g26
tp1497
a(S'Matthew Slater'
p1498
g26
tp1499
a(S'Brandon Tate'
p1500
g26
tp1501
a(S'Wes Welker'
p1502
g26
tp1503
a(S'Rob Gronkowski'
p1504
g37
tp1505
a(S'Shayne Graham'
p1506
g46
tp1507
asg48
I00
sg49
F13.0
sg50
F341.0
sg51
F1.0
sg52
F4.0
sg53
F1.0
sg54
S'24-45'
p1508
sg56
I01
sg57
F50.0
sg58
F0.0
ssg173
(dp1509
g5
F33.0
sg6
F1.0
sg7
(lp1510
(S'Josh Freeman'
p1511
g10
tp1512
a(S'Josh Johnson'
p1513
g10
tp1514
a(S'LeGarrette Blount'
p1515
g15
tp1516
a(S'Arrelious Benn'
p1517
g26
tp1518
a(S'Mike Williams'
p1519
g26
tp1520
a(S'Connor Barth'
p1521
g46
tp1522
asg48
I01
sg49
F20.0
sg50
F252.0
sg51
F2.0
sg52
F1.0
sg53
F2.0
sg54
S'23-20'
p1523
sg56
I00
sg57
F139.0
sg58
F0.0
ssg209
(dp1524
g5
F37.0
sg6
F0.0
sg7
(lp1525
(S'Matt Flynn'
p1526
g10
tp1527
a(S'Aaron Rodgers'
p1528
g10
tp1529
a(S'John Kuhn'
p1530
g15
tp1531
a(S'James Starks'
p1532
g15
tp1533
a(S'Greg Jennings'
p1534
g26
tp1535
a(S'James Jones'
p1536
g26
tp1537
a(S'Jordy Nelson'
p1538
g26
tp1539
a(S'Andrew Quarless'
p1540
g37
tp1541
a(S'Mason Crosby'
p1542
g46
tp1543
asg48
I01
sg49
F11.0
sg50
F223.0
sg51
F1.0
sg52
F0.0
sg53
F1.0
sg54
S'7-3'
p1544
sg56
I01
sg57
F43.0
sg58
F0.0
ssg245
(dp1545
g5
F32.0
sg6
F0.0
sg7
(lp1546
(S'Joe Webb'
p1547
g10
tp1548
a(S'Toby Gerhart'
p1549
g15
tp1550
a(S'Adrian Peterson'
p1551
g15
tp1552
a(S'Percy Harvin'
p1553
g26
tp1554
asg48
I01
sg49
F24.0
sg50
F145.0
sg51
F0.0
sg52
F0.0
sg53
F0.0
sg54
S'20-13'
p1555
sg56
I01
sg57
F74.0
sg58
F0.0
ssg277
(dp1556
g5
F44.0
sg6
F0.0
sg7
(lp1557
(S'Chad Henne'
p1558
g10
tp1559
a(S'Brandon Marshall'
p1560
g26
tp1561
a(S'Marlon Moore'
p1562
g26
tp1563
a(S'Anthony Fasano'
p1564
g37
tp1565
a(S'Dan Carpenter'
p1566
g46
tp1567
asg48
I01
sg49
F6.0
sg50
F278.0
sg51
F2.0
sg52
F1.0
sg53
F2.0
sg54
S'34-27'
p1568
sg56
I00
sg57
F30.0
sg58
F0.0
ssg313
(dp1569
g5
F35.0
sg6
F0.0
sg7
(lp1570
(S'Jay Cutler'
p1571
g10
tp1572
a(S'Matt Forte'
p1573
g15
tp1574
a(S'Devin Hester'
p1575
g26
tp1576
a(S'Kellen Davis'
p1577
g37
tp1578
a(S'Greg Olsen'
p1579
g37
tp1580
a(S'Robbie Gould'
p1581
g46
tp1582
asg48
I00
sg49
F22.0
sg50
F372.0
sg51
F2.0
sg52
F2.0
sg53
F2.0
sg54
S'14-19'
p1583
sg56
I00
sg57
F72.0
sg58
F0.0
ssg347
(dp1584
g5
F0.0
sg6
F2.0
sg7
(lp1585
(S'Tarvaris Jackson'
p1586
g10
tp1587
a(S'Joe Webb'
p1588
g10
tp1589
a(S'Toby Gerhart'
p1590
g15
tp1591
a(S'Adrian Peterson'
p1592
g15
tp1593
a(S'Percy Harvin'
p1594
g26
tp1595
asg48
I00
sg49
F28.0
sg50
F0.0
sg51
F0.0
sg52
F0.0
sg53
F0.0
sg54
S'10-24'
p1596
sg56
I00
sg57
F185.0
sg58
F0.0
ssg381
(dp1597
g5
F34.0
sg6
F3.0
sg7
(lp1598
(S'Mike Vick'
p1599
g10
tp1600
a(S'LeSean McCoy'
p1601
g15
tp1602
a(S'Jason Avant'
p1603
g26
tp1604
a(S'DeSean Jackson'
p1605
g26
tp1606
a(S'Jeremy Maclin'
p1607
g26
tp1608
a(S'Brent Celek'
p1609
g37
tp1610
a(S'Clay Harbor'
p1611
g37
tp1612
asg48
I00
sg49
F25.0
sg50
F284.0
sg51
F0.0
sg52
F2.0
sg53
F0.0
sg54
S'32-35'
p1613
sg56
I01
sg57
F162.0
sg58
F0.0
ssg419
(dp1614
g5
F45.0
sg6
F0.0
sg7
(lp1615
(S'Sam Bradford'
p1616
g10
tp1617
a(S'Steven Jackson'
p1618
g15
tp1619
a(S'Danny Amendola'
p1620
g26
tp1621
a(S'Brandon Gibson'
p1622
g26
tp1623
a(S'Daniel Fells'
p1624
g37
tp1625
a(S'Michael Hoomanawanui'
p1626
g37
tp1627
a(S'Josh Brown'
p1628
g46
tp1629
asg48
I01
sg49
F25.0
sg50
F215.0
sg51
F2.0
sg52
F0.0
sg53
F2.0
sg54
S'44-6'
p1630
sg56
I01
sg57
F114.0
sg58
F0.0
ssg459
(dp1631
g5
F17.0
sg6
F0.0
sg7
(lp1632
(S'Matt Flynn'
p1633
g10
tp1634
a(S'Aaron Rodgers'
p1635
g10
tp1636
a(S'John Kuhn'
p1637
g15
tp1638
a(S'Greg Jennings'
p1639
g26
tp1640
a(S'James Jones'
p1641
g26
tp1642
a(S'Jordy Nelson'
p1643
g26
tp1644
a(S'Andrew Quarless'
p1645
g37
tp1646
a(S'Mason Crosby'
p1647
g46
tp1648
asg48
I00
sg49
F12.0
sg50
F181.0
sg51
F0.0
sg52
F3.0
sg53
F0.0
sg54
S'26-28'
p1649
sg56
I00
sg57
F59.0
sg58
F0.0
ssg495
(dp1650
g5
F0.0
sg6
F0.0
sg7
(lp1651
sg48
(lp1652
sg49
F0.0
sg50
F0.0
sg51
F0.0
sg52
F0.0
sg53
F0.0
sg54
(lp1653
sg56
(lp1654
sg57
F0.0
sg58
F0.0
ssg533
(dp1655
g5
F30.0
sg6
F0.0
sg7
(lp1656
(S'Eli Manning'
p1657
g10
tp1658
a(S'Ahmad Bradshaw'
p1659
g15
tp1660
a(S'Hakeem Nicks'
p1661
g26
tp1662
a(S'Bear Pascoe'
p1663
g37
tp1664
a(S'Shayne Graham'
p1665
g46
tp1666
asg48
I00
sg49
F20.0
sg50
F177.0
sg51
F0.0
sg52
F2.0
sg53
F0.0
sg54
S'20-28'
p1667
sg56
I00
sg57
F132.0
sg58
F0.0
ssg567
(dp1668
g5
F39.0
sg6
F1.0
sg7
(lp1669
(S'Kellen Clemens'
p1670
g10
tp1671
a(S'Mark Sanchez'
p1672
g10
tp1673
a(S'Jerricho Cotchery'
p1674
g26
tp1675
a(S'Jeff Cumberland'
p1676
g37
tp1677
a(S'Matthew Mulligan'
p1678
g37
tp1679
a(S'Nick Folk'
p1680
g46
tp1681
asg48
I00
sg49
F3.0
sg50
F336.0
sg51
F3.0
sg52
F1.0
sg53
F3.0
sg54
S'20-23'
p1682
sg56
I01
sg57
F1.0
sg58
F0.0
ssg573
(dp1683
g5
F0.0
sg6
F0.0
sg7
(lp1684
(S'Darrel Young'
p1685
g15
tp1686
a(S'Logan Paulsen'
p1687
g37
tp1688
a(S'Graham Gano'
p1689
g46
tp1690
asg48
I01
sg49
F0.0
sg50
F0.0
sg51
F2.0
sg52
F0.0
sg53
F2.0
sg54
S'37-25'
p1691
sg56
I01
sg57
F0.0
sg58
F0.0
sssS'2013'
p1692
(dp1693
g3
(dp1694
g5
F45.0
sg6
F0.0
sg7
(lp1695
(S'Bruce Gradkowski'
p1696
g10
tp1697
a(S'Landry Jones'
p1698
g10
tp1699
a(S'Ben Roethlisberger'
p1700
g10
tp1701
a(S"Le'Veon Bell"
p1702
g15
tp1703
a(S'Will Johnson'
p1704
g15
tp1705
a(S'Antonio Brown'
p1706
g26
tp1707
a(S'Jerricho Cotchery'
p1708
g26
tp1709
a(S'Emmanuel Sanders'
p1710
g26
tp1711
a(S'Markus Wheaton'
p1712
g26
tp1713
a(S'Richard Gordon'
p1714
g37
tp1715
a(S'Shaun Suisham'
p1716
g46
tp1717
asg48
I00
sg49
F25.0
sg50
F367.0
sg51
F3.0
sg52
F4.0
sg53
F3.0
sg54
S'27-37'
p1718
sg56
I00
sg57
F40.0
sg58
F0.0
ssg59
(dp1719
g5
F49.0
sg6
F0.0
sg7
(lp1720
(S'Jay Cutler'
p1721
g10
tp1722
a(S'Josh McCown'
p1723
g10
tp1724
a(S'Matt Forte'
p1725
g15
tp1726
a(S'Devin Hester'
p1727
g26
tp1728
a(S'Alshon Jeffery'
p1729
g26
tp1730
a(S'Brandon Marshall'
p1731
g26
tp1732
a(S'Eric Weems'
p1733
g26
tp1734
a(S'Marquess Wilson'
p1735
g26
tp1736
a(S'Martellus Bennett'
p1737
g37
tp1738
a(S'Robbie Gould'
p1739
g46
tp1740
asg48
I01
sg49
F19.0
sg50
F312.0
sg51
F2.0
sg52
F2.0
sg53
F2.0
sg54
S'21-19'
p1741
sg56
I00
sg57
F38.0
sg58
F0.0
ssg97
(dp1742
g5
F20.0
sg6
F0.0
sg7
(lp1743
(S'Matt Flynn'
p1744
g10
tp1745
a(S'Aaron Rodgers'
p1746
g10
tp1747
a(S'Scott Tolzien'
p1748
g10
tp1749
a(S'John Kuhn'
p1750
g15
tp1751
a(S'Eddie Lacy'
p1752
g15
tp1753
a(S'James Starks'
p1754
g15
tp1755
a(S'Jarrett Boykin'
p1756
g26
tp1757
a(S'James Jones'
p1758
g26
tp1759
a(S'Jordy Nelson'
p1760
g26
tp1761
a(S'Myles White'
p1762
g26
tp1763
a(S'Brandon Bostick'
p1764
g37
tp1765
a(S'Andrew Quarless'
p1766
g37
tp1767
a(S'Jake Stoneburner'
p1768
g37
tp1769
a(S'Mason Crosby'
p1770
g46
tp1771
asg48
I01
sg49
F15.0
sg50
F139.0
sg51
F1.0
sg52
F0.0
sg53
F1.0
sg54
S'40-10'
p1772
sg56
I01
sg57
F24.0
sg58
F0.0
ssg137
(dp1773
g5
F21.0
sg6
F0.0
sg7
(lp1774
(S'Mike Glennon'
p1775
g10
tp1776
a(S'Dan Orlovsky'
p1777
g10
tp1778
a(S'Bobby Rainey'
p1779
g15
tp1780
a(S'Vincent Jackson'
p1781
g26
tp1782
a(S'Chris Owusu'
p1783
g26
tp1784
a(S'Russell Shepard'
p1785
g26
tp1786
a(S'Timothy Wright'
p1787
g37
tp1788
asg48
I00
sg49
F22.0
sg50
F247.0
sg51
F0.0
sg52
F2.0
sg53
F0.0
sg54
S'21-24'
p1789
sg56
I01
sg57
F18.0
sg58
F0.0
ssg173
(dp1790
g5
F38.0
sg6
F0.0
sg7
(lp1791
(S'Joe Flacco'
p1792
g10
tp1793
a(S'Tyrod Taylor'
p1794
g10
tp1795
a(S'Kyle Juszczyk'
p1796
g15
tp1797
a(S'Bernard Pierce'
p1798
g15
tp1799
a(S'Torrey Smith'
p1800
g26
tp1801
a(S'Deonte Thompson'
p1802
g26
tp1803
a(S'Ed Dickson'
p1804
g37
tp1805
a(S'Dennis Pitta'
p1806
g37
tp1807
a(S'Justin Tucker'
p1808
g46
tp1809
asg48
I00
sg49
F9.0
sg50
F222.0
sg51
F6.0
sg52
F0.0
sg53
F6.0
sg54
S'16-18'
p1810
sg56
I01
sg57
F34.0
sg58
F0.0
ssg209
(dp1811
g5
F22.0
sg6
F4.0
sg7
(lp1812
(S'Matt Barkley'
p1813
g10
tp1814
a(S'Nick Foles'
p1815
g10
tp1816
a(S'Mike Vick'
p1817
g10
tp1818
a(S'Bryce Brown'
p1819
g15
tp1820
a(S'LeSean McCoy'
p1821
g15
tp1822
a(S'Chris Polk'
p1823
g15
tp1824
a(S'Jason Avant'
p1825
g26
tp1826
a(S'DeSean Jackson'
p1827
g26
tp1828
a(S'Damaris Johnson'
p1829
g26
tp1830
a(S'Brent Celek'
p1831
g37
tp1832
a(S'Zach Ertz'
p1833
g37
tp1834
asg48
I00
sg49
F46.0
sg50
F179.0
sg51
F0.0
sg52
F1.0
sg53
F0.0
sg54
S'20-34'
p1835
sg56
I00
sg57
F299.0
sg58
F0.0
ssg245
(dp1836
g5
F33.0
sg6
F1.0
sg7
(lp1837
(S'Matt Cassel'
p1838
g10
tp1839
a(S'Josh Freeman'
p1840
g10
tp1841
a(S'Joe Webb'
p1842
g10
tp1843
a(S'Matt Asiata'
p1844
g15
tp1845
a(S'Joe Banyard'
p1846
g15
tp1847
a(S'Jerome Felton'
p1848
g15
tp1849
a(S'Toby Gerhart'
p1850
g15
tp1851
a(S'Adrian Peterson'
p1852
g15
tp1853
a(S'Greg Jennings'
p1854
g26
tp1855
a(S'Cordarrelle Patterson'
p1856
g26
tp1857
a(S'Jerome Simpson'
p1858
g26
tp1859
a(S'Rodney Smith'
p1860
g26
tp1861
a(S'Jarius Wright'
p1862
g26
tp1863
a(S'Rhett Ellison'
p1864
g37
tp1865
a(S'Blair Walsh'
p1866
g46
tp1867
asg48
I00
sg49
F20.0
sg50
F189.0
sg51
F0.0
sg52
F1.0
sg53
F0.0
sg54
S'13-14'
p1868
sg56
I00
sg57
F174.0
sg58
F0.0
ssg277
(dp1869
g5
F42.0
sg6
F0.0
sg7
(lp1870
(S'Eli Manning'
p1871
g10
tp1872
a(S'Ryan Nassib'
p1873
g10
tp1874
a(S'Victor Cruz'
p1875
g26
tp1876
a(S'Louis Murphy'
p1877
g26
tp1878
a(S'Hakeem Nicks'
p1879
g26
tp1880
a(S'Rueben Randle'
p1881
g26
tp1882
a(S'Larry Donnell'
p1883
g37
tp1884
a(S'Brandon Myers'
p1885
g37
tp1886
a(S'Bear Pascoe'
p1887
g37
tp1888
a(S'Josh Brown'
p1889
g46
tp1890
asg48
I00
sg49
F3.0
sg50
F256.0
sg51
F3.0
sg52
F1.0
sg53
F3.0
sg54
S'20-23'
p1891
sg56
I01
sg57
F0.0
sg58
F0.0
ssg313
(dp1892
g5
F0.0
sg6
F2.0
sg7
(lp1893
(S'Matt Cassel'
p1894
g10
tp1895
a(S'Joe Webb'
p1896
g10
tp1897
a(S'Matt Asiata'
p1898
g15
tp1899
a(S'Toby Gerhart'
p1900
g15
tp1901
a(S'Zach Line'
p1902
g15
tp1903
a(S'Adrian Peterson'
p1904
g15
tp1905
a(S'Greg Jennings'
p1906
g26
tp1907
a(S'Cordarrelle Patterson'
p1908
g26
tp1909
a(S'Jerome Simpson'
p1910
g26
tp1911
a(S'Jarius Wright'
p1912
g26
tp1913
a(S'Rhett Ellison'
p1914
g37
tp1915
a(S'Kyle Rudolph'
p1916
g37
tp1917
a(S'Blair Walsh'
p1918
g46
tp1919
asg48
I01
sg49
F18.0
sg50
F0.0
sg51
F1.0
sg52
F0.0
sg53
F1.0
sg54
S'34-24'
p1920
sg56
I01
sg57
F93.0
sg58
F0.0
ssg347
(dp1921
g5
F50.0
sg6
F1.0
sg7
(lp1922
(S'Kirk Cousins'
p1923
g10
tp1924
a(S'Robert Griffin III'
p1925
g10
tp1926
a(S'Roy Helu'
p1927
g15
tp1928
a(S'Alfred Morris'
p1929
g15
tp1930
a(S'Chris Thompson'
p1931
g15
tp1932
a(S'Darrel Young'
p1933
g15
tp1934
a(S'Pierre Garcon'
p1935
g26
tp1936
a(S'Leonard Hankerson'
p1937
g26
tp1938
a(S'Aldrick Robinson'
p1939
g26
tp1940
a(S'Niles Paul'
p1941
g37
tp1942
a(S'Logan Paulsen'
p1943
g37
tp1944
a(S'Jordan Reed'
p1945
g37
tp1946
a(S'Kai Forbath'
p1947
g46
tp1948
asg48
I01
sg49
F22.0
sg50
F326.0
sg51
F0.0
sg52
F0.0
sg53
F0.0
sg54
S'27-20'
p1949
sg56
I00
sg57
F120.0
sg58
F0.0
ssg381
(dp1950
g5
F39.0
sg6
F0.0
sg7
(lp1951
(S'Carson Palmer'
p1952
g10
tp1953
a(S'Drew Stanton'
p1954
g10
tp1955
a(S'Andre Ellington'
p1956
g15
tp1957
a(S'Stepfan Taylor'
p1958
g15
tp1959
a(S'Jaron Brown'
p1960
g26
tp1961
a(S'Larry Fitzgerald'
p1962
g26
tp1963
a(S'Michael Floyd'
p1964
g26
tp1965
a(S'Andre Roberts'
p1966
g26
tp1967
a(S'Jim Dray'
p1968
g37
tp1969
a(S'Rob Housler'
p1970
g37
tp1971
asg48
I00
sg49
F7.0
sg50
F248.0
sg51
F0.0
sg52
F1.0
sg53
F0.0
sg54
S'21-25'
p1972
sg56
I00
sg57
F20.0
sg58
F0.0
ssg419
(dp1973
g5
F30.0
sg6
F0.0
sg7
(lp1974
(S'Aaron Rodgers'
p1975
g10
tp1976
a(S'John Kuhn'
p1977
g15
tp1978
a(S'Eddie Lacy'
p1979
g15
tp1980
a(S'James Starks'
p1981
g15
tp1982
a(S'Jarrett Boykin'
p1983
g26
tp1984
a(S'Randall Cobb'
p1985
g26
tp1986
a(S'James Jones'
p1987
g26
tp1988
a(S'Jordy Nelson'
p1989
g26
tp1990
a(S'Brandon Bostick'
p1991
g37
tp1992
a(S'Andrew Quarless'
p1993
g37
tp1994
a(S'Mason Crosby'
p1995
g46
tp1996
asg48
I00
sg49
F30.0
sg50
F274.0
sg51
F5.0
sg52
F1.0
sg53
F5.0
sg54
S'9-22'
p1997
sg56
I00
sg57
F179.0
sg58
F0.0
ssg459
(dp1998
g5
F47.0
sg6
F1.0
sg7
(lp1999
(S'Jay Cutler'
p2000
g10
tp2001
a(S'Josh McCown'
p2002
g10
tp2003
a(S'Matt Forte'
p2004
g15
tp2005
a(S'Devin Hester'
p2006
g26
tp2007
a(S'Alshon Jeffery'
p2008
g26
tp2009
a(S'Brandon Marshall'
p2010
g26
tp2011
a(S'Eric Weems'
p2012
g26
tp2013
a(S'Marquess Wilson'
p2014
g26
tp2015
a(S'Martellus Bennett'
p2016
g37
tp2017
a(S'Robbie Gould'
p2018
g46
tp2019
asg48
I01
sg49
F16.0
sg50
F317.0
sg51
F3.0
sg52
F2.0
sg53
F3.0
sg54
S'40-32'
p2020
sg56
I01
sg57
F131.0
sg58
F0.0
ssg495
(dp2021
g5
F34.0
sg6
F0.0
sg7
(lp2022
(S'Andy Dalton'
p2023
g10
tp2024
a(S'Josh Johnson'
p2025
g10
tp2026
a(S'Giovani Bernard'
p2027
g15
tp2028
a(S'Rex Burkhead'
p2029
g15
tp2030
a(S'Cedric Peerman'
p2031
g15
tp2032
a(S'A.J. Green'
p2033
g26
tp2034
a(S'Marvin Jones'
p2035
g26
tp2036
a(S'Mohamed Sanu'
p2037
g26
tp2038
a(S'Brandon Tate'
p2039
g26
tp2040
a(S'Orson Charles'
p2041
g37
tp2042
a(S'Tyler Eifert'
p2043
g37
tp2044
a(S'Jermaine Gresham'
p2045
g37
tp2046
a(S'Alex Smith'
p2047
g37
tp2048
a(S'Mike Nugent'
p2049
g46
tp2050
asg48
I00
sg49
F8.0
sg50
F372.0
sg51
F3.0
sg52
F3.0
sg53
F2.0
sg54
S'24-27'
p2051
sg56
I01
sg57
F33.0
sg58
F0.0
ssg533
(dp2052
g5
F43.0
sg6
F0.0
sg7
(lp2053
(S'Brandon Weeden'
p2054
g10
tp2055
a(S'Bobby Rainey'
p2056
g15
tp2057
a(S'Fozzy Whittaker'
p2058
g15
tp2059
a(S'Travis Benjamin'
p2060
g26
tp2061
a(S'Josh Gordon'
p2062
g26
tp2063
a(S'Charles Johnson'
p2064
g26
tp2065
a(S'Greg Little'
p2066
g26
tp2067
a(S'Gary Barnidge'
p2068
g37
tp2069
a(S'Jordan Cameron'
p2070
g37
tp2071
a(S'MarQueis Gray'
p2072
g37
tp2073
asg48
I01
sg49
F6.0
sg50
F292.0
sg51
F0.0
sg52
F2.0
sg53
F0.0
sg54
S'31-17'
p2074
sg56
I00
sg57
F65.0
sg58
F0.0
ssg567
(dp2075
g5
F0.0
sg6
F0.0
sg7
(lp2076
sg48
(lp2077
sg49
F0.0
sg50
F0.0
sg51
F0.0
sg52
F0.0
sg53
F0.0
sg54
(lp2078
sg56
(lp2079
sg57
F0.0
sg58
F0.0
ssg573
(dp2080
g5
F30.0
sg6
F0.0
sg7
(lp2081
(S'Tony Romo'
p2082
g10
tp2083
a(S'Lance Dunbar'
p2084
g15
tp2085
a(S'DeMarco Murray'
p2086
g15
tp2087
a(S'Cole Beasley'
p2088
g26
tp2089
a(S'Dez Bryant'
p2090
g26
tp2091
a(S'Dwayne Harris'
p2092
g26
tp2093
a(S'Terrance Williams'
p2094
g26
tp2095
a(S'Gavin Escobar'
p2096
g37
tp2097
a(S'James Hanna'
p2098
g37
tp2099
a(S'Jason Witten'
p2100
g37
tp2101
a(S'Dan Bailey'
p2102
g46
tp2103
asg48
I01
sg49
F10.0
sg50
F206.0
sg51
F3.0
sg52
F3.0
sg53
F3.0
sg54
S'31-30'
p2104
sg56
I01
sg57
F28.0
sg58
F0.0
sssS'2012'
p2105
(dp2106
g3
(dp2107
g5
F27.0
sg6
F0.0
sg7
(lp2108
(S'Aaron Rodgers'
p2109
g10
tp2110
a(S'John Kuhn'
p2111
g15
tp2112
a(S'James Starks'
p2113
g15
tp2114
a(S'Jarrett Boykin'
p2115
g26
tp2116
a(S'Randall Cobb'
p2117
g26
tp2118
a(S'Greg Jennings'
p2119
g26
tp2120
a(S'James Jones'
p2121
g26
tp2122
a(S'Jordy Nelson'
p2123
g26
tp2124
a(S'Andrew Quarless'
p2125
g37
tp2126
a(S'Mason Crosby'
p2127
g46
tp2128
asg48
I00
sg49
F29.0
sg50
F236.0
sg51
F3.0
sg52
F2.0
sg53
F1.0
sg54
S'20-24'
p2129
sg56
I01
sg57
F95.0
sg58
F0.0
ssg59
(dp2130
g5
F0.0
sg6
F1.0
sg7
(lp2131
(S'Joe Webb'
p2132
g10
tp2133
a(S'Matt Asiata'
p2134
g15
tp2135
a(S'Jerome Felton'
p2136
g15
tp2137
a(S'Toby Gerhart'
p2138
g15
tp2139
a(S'Adrian Peterson'
p2140
g15
tp2141
a(S'Percy Harvin'
p2142
g26
tp2143
a(S'Jerome Simpson'
p2144
g26
tp2145
a(S'Jarius Wright'
p2146
g26
tp2147
a(S'Rhett Ellison'
p2148
g37
tp2149
a(S'Allen Reisner'
p2150
g37
tp2151
a(S'Kyle Rudolph'
p2152
g37
tp2153
a(S'Blair Walsh'
p2154
g46
tp2155
asg48
I00
sg49
F28.0
sg50
F0.0
sg51
F4.0
sg52
F0.0
sg53
F4.0
sg54
S'24-34'
p2156
sg56
I00
sg57
F174.0
sg58
F0.0
ssg97
(dp2157
g5
F54.0
sg6
F1.0
sg7
(lp2158
(S'Andrew Luck'
p2159
g10
tp2160
a(S'Drew Stanton'
p2161
g10
tp2162
a(S'Vick Ballard'
p2163
g15
tp2164
a(S'Donald Brown'
p2165
g15
tp2166
a(S'T.Y. Hilton'
p2167
g26
tp2168
a(S'Nathan Palmer'
p2169
g26
tp2170
a(S'Dwayne Allen'
p2171
g37
tp2172
a(S'Coby Fleener'
p2173
g37
tp2174
a(S'Dominique Jones'
p2175
g37
tp2176
a(S'Adam Vinatieri'
p2177
g46
tp2178
asg48
I00
sg49
F18.0
sg50
F391.0
sg51
F0.0
sg52
F4.0
sg53
F0.0
sg54
S'33-35'
p2179
sg56
I01
sg57
F87.0
sg58
F0.0
ssg137
(dp2180
g5
F48.0
sg6
F3.0
sg7
(lp2181
(S'Matt Schaub'
p2182
g10
tp2183
a(S'T.J. Yates'
p2184
g10
tp2185
a(S'Tyler Clutts'
p2186
g15
tp2187
a(S'Justin Forsett'
p2188
g15
tp2189
a(S'Arian Foster'
p2190
g15
tp2191
a(S'Jonathan Grimes'
p2192
g15
tp2193
a(S'Andre Johnson'
p2194
g26
tp2195
a(S'Keshawn Martin'
p2196
g26
tp2197
a(S'DeVier Posey'
p2198
g26
tp2199
a(S'Owen Daniels'
p2200
g37
tp2201
a(S'Garrett Graham'
p2202
g37
tp2203
a(S'Shayne Graham'
p2204
g46
tp2205
asg48
I00
sg49
F28.0
sg50
F315.0
sg51
F3.0
sg52
F1.0
sg53
F2.0
sg54
S'31-34'
p2206
sg56
I01
sg57
F205.0
sg58
F0.0
ssg173
(dp2207
g5
F0.0
sg6
F0.0
sg7
(lp2208
(S'Brian Hoyer'
p2209
g10
tp2210
a(S'Anthony Sherman'
p2211
g15
tp2212
a(S'LaRon Byrd'
p2213
g26
tp2214
a(S'Larry Fitzgerald'
p2215
g26
tp2216
a(S'Michael Floyd'
p2217
g26
tp2218
a(S'Andre Roberts'
p2219
g26
tp2220
a(S'Jim Dray'
p2221
g37
tp2222
a(S'Rob Housler'
p2223
g37
tp2224
asg48
I00
sg49
F0.0
sg50
F0.0
sg51
F0.0
sg52
F0.0
sg53
F0.0
sg54
S'10-38'
p2225
sg56
I00
sg57
F0.0
sg58
F0.0
ssg209
(dp2226
g5
F24.0
sg6
F2.0
sg7
(lp2227
(S'Aaron Rodgers'
p2228
g10
tp2229
a(S'DuJuan Harris'
p2230
g15
tp2231
a(S'John Kuhn'
p2232
g15
tp2233
a(S'James Starks'
p2234
g15
tp2235
a(S'Jarrett Boykin'
p2236
g26
tp2237
a(S'Randall Cobb'
p2238
g26
tp2239
a(S'Greg Jennings'
p2240
g26
tp2241
a(S'James Jones'
p2242
g26
tp2243
a(S'Jordy Nelson'
p2244
g26
tp2245
a(S'Jeremy Ross'
p2246
g26
tp2247
a(S'Mason Crosby'
p2248
g46
tp2249
asg48
I00
sg49
F11.0
sg50
F173.0
sg51
F3.0
sg52
F0.0
sg53
F2.0
sg54
S'20-27'
p2250
sg56
I00
sg57
F58.0
sg58
F0.0
ssg245
(dp2251
g5
F31.0
sg6
F1.0
sg7
(lp2252
(S'Jay Cutler'
p2253
g10
tp2254
a(S'Josh McCown'
p2255
g10
tp2256
a(S'Matt Forte'
p2257
g15
tp2258
a(S'Devin Hester'
p2259
g26
tp2260
a(S'Alshon Jeffery'
p2261
g26
tp2262
a(S'Brandon Marshall'
p2263
g26
tp2264
a(S'Eric Weems'
p2265
g26
tp2266
a(S'Kellen Davis'
p2267
g37
tp2268
a(S'Matt Spaeth'
p2269
g37
tp2270
asg48
I00
sg49
F31.0
sg50
F257.0
sg51
F0.0
sg52
F1.0
sg53
F0.0
sg54
S'24-26'
p2271
sg56
I01
sg57
F132.0
sg58
F0.0
ssg277
(dp2272
g5
F32.0
sg6
F0.0
sg7
(lp2273
(S'Luke McCown'
p2274
g10
tp2275
a(S'Matt Ryan'
p2276
g10
tp2277
a(S'Jacquizz Rodgers'
p2278
g15
tp2279
a(S'Harry Douglas'
p2280
g26
tp2281
a(S'Julio Jones'
p2282
g26
tp2283
a(S'Roddy White'
p2284
g26
tp2285
a(S'Chase Coffman'
p2286
g37
tp2287
a(S'Matt Bryant'
p2288
g46
tp2289
asg48
I00
sg49
F9.0
sg50
F279.0
sg51
F1.0
sg52
F4.0
sg53
F1.0
sg54
S'18-31'
p2290
sg56
I01
sg57
F32.0
sg58
F0.0
ssg313
(dp2291
g5
F25.0
sg6
F0.0
sg7
(lp2292
(S'Sam Bradford'
p2293
g10
tp2294
a(S'Austin Davis'
p2295
g10
tp2296
a(S'Steven Jackson'
p2297
g15
tp2298
a(S'Isaiah Pead'
p2299
g15
tp2300
a(S'Daryl Richardson'
p2301
g15
tp2302
a(S'Danny Amendola'
p2303
g26
tp2304
a(S'Brandon Gibson'
p2305
g26
tp2306
a(S'Chris Givens'
p2307
g26
tp2308
a(S'Brian Quick'
p2309
g26
tp2310
a(S'Lance Kendricks'
p2311
g37
tp2312
a(S'Matthew Mulligan'
p2313
g37
tp2314
a(S'Greg Zuerlein'
p2315
g46
tp2316
asg48
I01
sg49
F26.0
sg50
F198.0
sg51
F3.0
sg52
F1.0
sg53
F3.0
sg54
S'27-23'
p2317
sg56
I01
sg57
F77.0
sg58
F0.0
ssg347
(dp2318
g5
F0.0
sg6
F0.0
sg7
(lp2319
(S'Chris Johnson'
p2320
g15
tp2321
a(S'Kenny Britt'
p2322
g26
tp2323
a(S'Nate Washington'
p2324
g26
tp2325
a(S'Kendall Wright'
p2326
g26
tp2327
a(S'Jared Cook'
p2328
g37
tp2329
a(S'Craig Stevens'
p2330
g37
tp2331
asg48
I00
sg49
F14.0
sg50
F0.0
sg51
F0.0
sg52
F0.0
sg53
F0.0
sg54
S'41-44'
p2332
sg56
I00
sg57
F24.0
sg58
F0.0
ssg381
(dp2333
g5
F31.0
sg6
F1.0
sg7
(lp2334
(S'Colin Kaepernick'
p2335
g10
tp2336
a(S'Alex Smith'
p2337
g10
tp2338
a(S'Scott Tolzien'
p2339
g10
tp2340
a(S'Anthony Dixon'
p2341
g15
tp2342
a(S'Frank Gore'
p2343
g15
tp2344
a(S'Kendall Hunter'
p2345
g15
tp2346
a(S'Bruce Miller'
p2347
g15
tp2348
a(S'Will Tukuafu'
p2349
g15
tp2350
a(S'Michael Crabtree'
p2351
g26
tp2352
a(S'Ted Ginn'
p2353
g26
tp2354
a(S'Kyle Williams'
p2355
g26
tp2356
a(S'Garrett Celek'
p2357
g37
tp2358
a(S'Vernon Davis'
p2359
g37
tp2360
a(S'Delanie Walker'
p2361
g37
tp2362
asg48
I00
sg49
F26.0
sg50
F226.0
sg51
F0.0
sg52
F2.0
sg53
F0.0
sg54
S'19-27'
p2363
sg56
I00
sg57
F119.0
sg58
F0.0
ssg419
(dp2364
g5
F0.0
sg6
F0.0
sg7
(lp2365
sg48
(lp2366
sg49
F0.0
sg50
F0.0
sg51
F0.0
sg52
F0.0
sg53
F0.0
sg54
(lp2367
sg56
(lp2368
sg57
F0.0
sg58
F0.0
ssg459
(dp2369
g5
F0.0
sg6
F0.0
sg7
(lp2370
(S'Joe Webb'
p2371
g10
tp2372
a(S'Matt Asiata'
p2373
g15
tp2374
a(S'Jerome Felton'
p2375
g15
tp2376
a(S'Toby Gerhart'
p2377
g15
tp2378
a(S'Adrian Peterson'
p2379
g15
tp2380
a(S'Percy Harvin'
p2381
g26
tp2382
a(S'Jerome Simpson'
p2383
g26
tp2384
a(S'Jarius Wright'
p2385
g26
tp2386
a(S'Rhett Ellison'
p2387
g37
tp2388
a(S'Kyle Rudolph'
p2389
g37
tp2390
a(S'Blair Walsh'
p2391
g46
tp2392
asg48
I00
sg49
F27.0
sg50
F0.0
sg51
F3.0
sg52
F0.0
sg53
F2.0
sg54
S'13-20'
p2393
sg56
I01
sg57
F122.0
sg58
F0.0
ssg495
(dp2394
g5
F31.0
sg6
F0.0
sg7
(lp2395
(S'Jay Cutler'
p2396
g10
tp2397
a(S'Matt Forte'
p2398
g15
tp2399
a(S'Devin Hester'
p2400
g26
tp2401
a(S'Alshon Jeffery'
p2402
g26
tp2403
a(S'Brandon Marshall'
p2404
g26
tp2405
a(S'Eric Weems'
p2406
g26
tp2407
a(S'Kellen Davis'
p2408
g37
tp2409
a(S'Matt Spaeth'
p2410
g37
tp2411
a(S'Robbie Gould'
p2412
g46
tp2413
asg48
I00
sg49
F25.0
sg50
F150.0
sg51
F3.0
sg52
F1.0
sg53
F2.0
sg54
S'7-13'
p2414
sg56
I00
sg57
F130.0
sg58
F1.0
ssg533
(dp2415
g5
F46.0
sg6
F0.0
sg7
(lp2416
(S'Nick Foles'
p2417
g10
tp2418
a(S'Mike Vick'
p2419
g10
tp2420
a(S'Bryce Brown'
p2421
g15
tp2422
a(S'Dion Lewis'
p2423
g15
tp2424
a(S'LeSean McCoy'
p2425
g15
tp2426
a(S'Chris Polk'
p2427
g15
tp2428
a(S'Jason Avant'
p2429
g26
tp2430
a(S'DeSean Jackson'
p2431
g26
tp2432
a(S'Damaris Johnson'
p2433
g26
tp2434
a(S'Jeremy Maclin'
p2435
g26
tp2436
a(S'Brent Celek'
p2437
g37
tp2438
a(S'Clay Harbor'
p2439
g37
tp2440
asg48
I01
sg49
F29.0
sg50
F311.0
sg51
F0.0
sg52
F2.0
sg53
F0.0
sg54
S'26-23'
p2441
sg56
I00
sg57
F71.0
sg58
F0.0
ssg567
(dp2442
g5
F38.0
sg6
F0.0
sg7
(lp2443
(S'Blaine Gabbert'
p2444
g10
tp2445
a(S'Chad Henne'
p2446
g10
tp2447
a(S'Rashad Jennings'
p2448
g15
tp2449
a(S'Justin Blackmon'
p2450
g26
tp2451
a(S'Cecil Shorts'
p2452
g26
tp2453
a(S'Marcedes Lewis'
p2454
g37
tp2455
a(S'Josh Scobee'
p2456
g46
tp2457
asg48
I01
sg49
F15.0
sg50
F220.0
sg51
F0.0
sg52
F2.0
sg53
F0.0
sg54
S'31-14'
p2458
sg56
I00
sg57
F49.0
sg58
F0.0
ssg573
(dp2459
g5
F35.0
sg6
F0.0
sg7
(lp2460
(S'Matt Flynn'
p2461
g10
tp2462
a(S'Russell Wilson'
p2463
g10
tp2464
a(S'Robert Turbin'
p2465
g15
tp2466
a(S'Doug Baldwin'
p2467
g26
tp2468
a(S'Golden Tate'
p2469
g26
tp2470
a(S'Anthony McCoy'
p2471
g37
tp2472
a(S'Steven Hauschka'
p2473
g46
tp2474
asg48
I01
sg49
F5.0
sg50
F236.0
sg51
F2.0
sg52
F2.0
sg53
F1.0
sg54
S'28-24'
p2475
sg56
I01
sg57
F23.0
sg58
F0.0
sss.