(dp0
S'2015'
p1
(dp2
S'11'
p3
(dp4
S'PassAtt'
p5
F38.0
sS'RushTD'
p6
F1.0
sS'Players'
p7
(lp8
(S'Teddy Bridgewater'
p9
S'QB'
p10
tp11
a(S'Taylor Heinicke'
p12
g10
tp13
a(S'Shaun Hill'
p14
g10
tp15
a(S'Matt Asiata'
p16
S'RB'
p17
tp18
a(S'Zach Line'
p19
g17
tp20
a(S'Jerick McKinnon'
p21
g17
tp22
a(S'Adrian Peterson'
p23
g17
tp24
a(S'Stefon Diggs'
p25
S'WR'
p26
tp27
a(S'Charles Johnson'
p28
g26
tp29
a(S'Cordarrelle Patterson'
p30
g26
tp31
a(S'Adam Thielen'
p32
g26
tp33
a(S'Mike Wallace'
p34
g26
tp35
a(S'Jarius Wright'
p36
g26
tp37
a(S'Rhett Ellison'
p38
S'TE'
p39
tp40
a(S'MyCole Pruitt'
p41
g39
tp42
a(S'Kyle Rudolph'
p43
g39
tp44
a(S'Blair Walsh'
p45
S'K'
p46
tp47
asS'Won'
p48
I01
sS'RushAtt'
p49
F18.0
sS'PassYds'
p50
F296.0
sS'FGAtt'
p51
F0.0
sS'PassTD'
p52
F1.0
sS'FGM'
p53
F0.0
sS'Score'
p54
S'30-13'
p55
sS'Home'
p56
I00
sS'RushYds'
p57
F94.0
sS'FGBlk'
p58
F0.0
ssS'10'
p59
(dp60
g5
F38.0
sg6
F0.0
sg7
(lp61
(S'Dan Orlovsky'
p62
g10
tp63
a(S'Matthew Stafford'
p64
g10
tp65
a(S'Ameer Abdullah'
p66
g17
tp67
a(S'Michael Burton'
p68
g17
tp69
a(S'Theo Riddick'
p70
g17
tp71
a(S'George Winn'
p72
g17
tp73
a(S'Corey Fuller'
p74
g26
tp75
a(S'T.J. Jones'
p76
g26
tp77
a(S'Lance Moore'
p78
g26
tp79
a(S'Golden Tate'
p80
g26
tp81
a(S'Eric Ebron'
p82
g39
tp83
a(S'Brandon Pettigrew'
p84
g39
tp85
a(S'Timothy Wright'
p86
g39
tp87
a(S'Matt Prater'
p88
g46
tp89
asg48
I00
sg49
F12.0
sg50
F242.0
sg51
F2.0
sg52
F2.0
sg53
F2.0
sg54
S'16-18'
p90
sg56
I01
sg57
F28.0
sg58
F0.0
ssS'13'
p91
(dp92
g5
F35.0
sg6
F0.0
sg7
(lp93
(S'Dan Orlovsky'
p94
g10
tp95
a(S'Matthew Stafford'
p96
g10
tp97
a(S'Ameer Abdullah'
p98
g17
tp99
a(S'Michael Burton'
p100
g17
tp101
a(S'Theo Riddick'
p102
g17
tp103
a(S'George Winn'
p104
g17
tp105
a(S'Corey Fuller'
p106
g26
tp107
a(S'T.J. Jones'
p108
g26
tp109
a(S'Lance Moore'
p110
g26
tp111
a(S'Golden Tate'
p112
g26
tp113
a(S'Dorin Dickerson'
p114
g39
tp115
a(S'Eric Ebron'
p116
g39
tp117
a(S'Brandon Pettigrew'
p118
g39
tp119
a(S'Timothy Wright'
p120
g39
tp121
a(S'Matt Prater'
p122
g46
tp123
asg48
I01
sg49
F17.0
sg50
F220.0
sg51
F3.0
sg52
F2.0
sg53
F3.0
sg54
S'27-23'
p124
sg56
I00
sg57
F96.0
sg58
F0.0
ssS'12'
p125
(dp126
g5
F31.0
sg6
F1.0
sg7
(lp127
(S'Jay Cutler'
p128
g10
tp129
a(S'David Fales'
p130
g10
tp131
a(S"Ka'Deem Carey"
p132
g17
tp133
a(S'Matt Forte'
p134
g17
tp135
a(S'Jeremy Langford'
p136
g17
tp137
a(S'Josh Bellamy'
p138
g26
tp139
a(S'Alshon Jeffery'
p140
g26
tp141
a(S'Marc Mariani'
p142
g26
tp143
a(S'Cameron Meredith'
p144
g26
tp145
a(S'Eddie Royal'
p146
g26
tp147
a(S'Deonte Thompson'
p148
g26
tp149
a(S'Marquess Wilson'
p150
g26
tp151
a(S'Martellus Bennett'
p152
g39
tp153
a(S'Khari Lee'
p154
g39
tp155
a(S'Zach Miller'
p156
g39
tp157
a(S'Robbie Gould'
p158
g46
tp159
asg48
I00
sg49
F31.0
sg50
F200.0
sg51
F1.0
sg52
F1.0
sg53
F1.0
sg54
S'13-17'
p160
sg56
I01
sg57
F101.0
sg58
F0.0
ssS'15'
p161
(dp162
g5
F47.0
sg6
F0.0
sg7
(lp163
(S'Derek Carr'
p164
g10
tp165
a(S'Matt McGloin'
p166
g10
tp167
a(S'Roy Helu'
p168
g17
tp169
a(S'Taiwan Jones'
p170
g17
tp171
a(S'Latavius Murray'
p172
g17
tp173
a(S'Jamize Olawale'
p174
g17
tp175
a(S'Marcel Reece'
p176
g17
tp177
a(S'Amari Cooper'
p178
g26
tp179
a(S'Michael Crabtree'
p180
g26
tp181
a(S'Andre Holmes'
p182
g26
tp183
a(S'Seth Roberts'
p184
g26
tp185
a(S'Jeremy Ross'
p186
g26
tp187
a(S'Rod Streater'
p188
g26
tp189
a(S'Gabe Holmes'
p190
g39
tp191
a(S'Mychal Rivera'
p192
g39
tp193
a(S'Lee Smith'
p194
g39
tp195
a(S'Clive Walford'
p196
g39
tp197
a(S'Sebastian Janikowski'
p198
g46
tp199
asg48
I01
sg49
F25.0
sg50
F276.0
sg51
F2.0
sg52
F2.0
sg53
F2.0
sg54
S'30-20'
p200
sg56
I00
sg57
F120.0
sg58
F0.0
ssS'14'
p201
(dp202
g5
F29.0
sg6
F1.0
sg7
(lp203
(S'Matt Cassel'
p204
g10
tp205
a(S'Kellen Moore'
p206
g10
tp207
a(S'Tony Romo'
p208
g10
tp209
a(S'Tyler Clutts'
p210
g17
tp211
a(S'Darren McFadden'
p212
g17
tp213
a(S'Rod Smith'
p214
g17
tp215
a(S'Robert Turbin'
p216
g17
tp217
a(S'Cole Beasley'
p218
g26
tp219
a(S'Dez Bryant'
p220
g26
tp221
a(S'Brice Butler'
p222
g26
tp223
a(S'Devin Street'
p224
g26
tp225
a(S'Lucky Whitehead'
p226
g26
tp227
a(S'Terrance Williams'
p228
g26
tp229
a(S'Gavin Escobar'
p230
g39
tp231
a(S'James Hanna'
p232
g39
tp233
a(S'Geoff Swaim'
p234
g39
tp235
a(S'Jason Witten'
p236
g39
tp237
a(S'Dan Bailey'
p238
g46
tp239
asg48
I01
sg49
F20.0
sg50
F114.0
sg51
F0.0
sg52
F0.0
sg53
F0.0
sg54
S'28-7'
p240
sg56
I01
sg57
F171.0
sg58
F0.0
ssS'17'
p241
(dp242
g5
F19.0
sg6
F1.0
sg7
(lp243
(S'Teddy Bridgewater'
p244
g10
tp245
a(S'Taylor Heinicke'
p246
g10
tp247
a(S'Shaun Hill'
p248
g10
tp249
a(S'Matt Asiata'
p250
g17
tp251
a(S'Zach Line'
p252
g17
tp253
a(S'Jerick McKinnon'
p254
g17
tp255
a(S'Adrian Peterson'
p256
g17
tp257
a(S'Stefon Diggs'
p258
g26
tp259
a(S'Charles Johnson'
p260
g26
tp261
a(S'Cordarrelle Patterson'
p262
g26
tp263
a(S'Adam Thielen'
p264
g26
tp265
a(S'Mike Wallace'
p266
g26
tp267
a(S'Jarius Wright'
p268
g26
tp269
a(S'Rhett Ellison'
p270
g39
tp271
a(S'MyCole Pruitt'
p272
g39
tp273
a(S'Kyle Rudolph'
p274
g39
tp275
a(S'Blair Walsh'
p276
g46
tp277
asg48
I00
sg49
F27.0
sg50
F99.0
sg51
F2.0
sg52
F0.0
sg53
F2.0
sg54
S'13-20'
p278
sg56
I01
sg57
F151.0
sg58
F0.0
ssS'16'
p279
(dp280
g5
F28.0
sg6
F1.0
sg7
(lp281
(S'Matt Barkley'
p282
g10
tp283
a(S'Carson Palmer'
p284
g10
tp285
a(S'Drew Stanton'
p286
g10
tp287
a(S'Andre Ellington'
p288
g17
tp289
a(S'David Johnson'
p290
g17
tp291
a(S'Stepfan Taylor'
p292
g17
tp293
a(S'Kerwynn Williams'
p294
g17
tp295
a(S'Jaron Brown'
p296
g26
tp297
a(S'John Brown'
p298
g26
tp299
a(S'Larry Fitzgerald'
p300
g26
tp301
a(S'Michael Floyd'
p302
g26
tp303
a(S'Brittan Golden'
p304
g26
tp305
a(S'J.J. Nelson'
p306
g26
tp307
a(S'Darren Fells'
p308
g39
tp309
a(S'Jermaine Gresham'
p310
g39
tp311
a(S'Troy Niklas'
p312
g39
tp313
a(S'Chandler Catanzaro'
p314
g46
tp315
asg48
I00
sg49
F26.0
sg50
F269.0
sg51
F1.0
sg52
F2.0
sg53
F1.0
sg54
S'8-38'
p316
sg56
I00
sg57
F121.0
sg58
F0.0
ssS'1'
p317
(dp318
g5
F36.0
sg6
F1.0
sg7
(lp319
(S'Jimmy Clausen'
p320
g10
tp321
a(S'Jay Cutler'
p322
g10
tp323
a(S'David Fales'
p324
g10
tp325
a(S"Ka'Deem Carey"
p326
g17
tp327
a(S'Matt Forte'
p328
g17
tp329
a(S'Jeremy Langford'
p330
g17
tp331
a(S'Jacquizz Rodgers'
p332
g17
tp333
a(S'Josh Bellamy'
p334
g26
tp335
a(S'Alshon Jeffery'
p336
g26
tp337
a(S'Marc Mariani'
p338
g26
tp339
a(S'Cameron Meredith'
p340
g26
tp341
a(S'Eddie Royal'
p342
g26
tp343
a(S'Marquess Wilson'
p344
g26
tp345
a(S'Martellus Bennett'
p346
g39
tp347
a(S'Khari Lee'
p348
g39
tp349
a(S'Zach Miller'
p350
g39
tp351
a(S'Robbie Gould'
p352
g46
tp353
asg48
I01
sg49
F33.0
sg50
F225.0
sg51
F3.0
sg52
F1.0
sg53
F3.0
sg54
S'31-23'
p354
sg56
I00
sg57
F189.0
sg58
F0.0
ssS'3'
p355
(dp356
g5
F40.0
sg6
F3.0
sg7
(lp357
(S'Chase Daniel'
p358
g10
tp359
a(S'Aaron Murray'
p360
g10
tp361
a(S'Alex Smith'
p362
g10
tp363
a(S'Jamaal Charles'
p364
g17
tp365
a(S'Knile Davis'
p366
g17
tp367
a(S'Anthony Sherman'
p368
g17
tp369
a(S'Charcandrick West'
p370
g17
tp371
a(S'Jason Avant'
p372
g26
tp373
a(S'Chris Conley'
p374
g26
tp375
a(S'Frankie Hammond'
p376
g26
tp377
a(S'Jeremy Maclin'
p378
g26
tp379
a(S"De'Anthony Thomas"
p380
g26
tp381
a(S'Albert Wilson'
p382
g26
tp383
a(S'Demetrius Harris'
p384
g39
tp385
a(S'Travis Kelce'
p386
g39
tp387
a(S"James O'Shaughnessy"
p388
g39
tp389
a(S'Brian Parker'
p390
g39
tp391
a(S'Cairo Santos'
p392
g46
tp393
asg48
I01
sg49
F18.0
sg50
F290.0
sg51
F0.0
sg52
F1.0
sg53
F0.0
sg54
S'38-28'
p394
sg56
I01
sg57
F75.0
sg58
F0.0
ssS'2'
p395
(dp396
g5
F30.0
sg6
F0.0
sg7
(lp397
(S'Tarvaris Jackson'
p398
g10
tp399
a(S'Russell Wilson'
p400
g10
tp401
a(S'Derrick Coleman'
p402
g17
tp403
a(S'Fred Jackson'
p404
g17
tp405
a(S'Thomas Rawls'
p406
g17
tp407
a(S'Will Tukuafu'
p408
g17
tp409
a(S'Doug Baldwin'
p410
g26
tp411
a(S'Jermaine Kearse'
p412
g26
tp413
a(S'Tyler Lockett'
p414
g26
tp415
a(S'Ricardo Lockette'
p416
g26
tp417
a(S'Chris Matthews'
p418
g26
tp419
a(S'Jimmy Graham'
p420
g39
tp421
a(S'Cooper Helfet'
p422
g39
tp423
a(S'Zach Sudfeld'
p424
g39
tp425
a(S'Luke Willson'
p426
g39
tp427
a(S'Steven Hauschka'
p428
g46
tp429
asg48
I01
sg49
F10.0
sg50
F206.0
sg51
F1.0
sg52
F2.0
sg53
F1.0
sg54
S'27-17'
p430
sg56
I01
sg57
F78.0
sg58
F0.0
ssS'5'
p431
(dp432
g5
F30.0
sg6
F0.0
sg7
(lp433
(S'Nick Foles'
p434
g10
tp435
a(S'Case Keenum'
p436
g10
tp437
a(S'Sean Mannion'
p438
g10
tp439
a(S'Benny Cunningham'
p440
g17
tp441
a(S'Todd Gurley'
p442
g17
tp443
a(S'Tre Mason'
p444
g17
tp445
a(S'Chase Reynolds'
p446
g17
tp447
a(S'Tavon Austin'
p448
g26
tp449
a(S'Stedman Bailey'
p450
g26
tp451
a(S'Kenny Britt'
p452
g26
tp453
a(S'Bradley Marquez'
p454
g26
tp455
a(S'Brian Quick'
p456
g26
tp457
a(S'Jared Cook'
p458
g39
tp459
a(S'Cory Harkey'
p460
g39
tp461
a(S'Lance Kendricks'
p462
g39
tp463
a(S'Greg Zuerlein'
p464
g46
tp465
asg48
I01
sg49
F36.0
sg50
F141.0
sg51
F4.0
sg52
F1.0
sg53
F1.0
sg54
S'24-10'
p466
sg56
I01
sg57
F191.0
sg58
F1.0
ssS'4'
p467
(dp468
g5
F25.0
sg6
F0.0
sg7
(lp469
(S'Blaine Gabbert'
p470
g10
tp471
a(S'Colin Kaepernick'
p472
g10
tp473
a(S'Reggie Bush'
p474
g17
tp475
a(S'Mike Davis'
p476
g17
tp477
a(S'Carlos Hyde'
p478
g17
tp479
a(S'Bruce Miller'
p480
g17
tp481
a(S'Anquan Boldin'
p482
g26
tp483
a(S'Bruce Ellington'
p484
g26
tp485
a(S'Quinton Patton'
p486
g26
tp487
a(S'Torrey Smith'
p488
g26
tp489
a(S'DeAndrew White'
p490
g26
tp491
a(S'Blake Bell'
p492
g39
tp493
a(S'Garrett Celek'
p494
g39
tp495
a(S'Vernon Davis'
p496
g39
tp497
a(S'Vance McDonald'
p498
g39
tp499
a(S'Phil Dawson'
p500
g46
tp501
asg48
I01
sg49
F19.0
sg50
F160.0
sg51
F1.0
sg52
F0.0
sg53
F1.0
sg54
S'17-3'
p502
sg56
I00
sg57
F77.0
sg58
F0.0
ssS'7'
p503
(dp504
g5
F0.0
sg6
F0.0
sg7
(lp505
sg48
(lp506
sg49
F0.0
sg50
F0.0
sg51
F0.0
sg52
F0.0
sg53
F0.0
sg54
(lp507
sg56
(lp508
sg57
F0.0
sg58
F0.0
ssS'6'
p509
(dp510
g5
F65.0
sg6
F0.0
sg7
(lp511
(S'Kellen Clemens'
p512
g10
tp513
a(S'Philip Rivers'
p514
g10
tp515
a(S'Donald Brown'
p516
g17
tp517
a(S'Melvin Gordon'
p518
g17
tp519
a(S'Branden Oliver'
p520
g17
tp521
a(S'Danny Woodhead'
p522
g17
tp523
a(S'Keenan Allen'
p524
g26
tp525
a(S'Malcom Floyd'
p526
g26
tp527
a(S'Dontrelle Inman'
p528
g26
tp529
a(S'Steve Johnson'
p530
g26
tp531
a(S'Antonio Gates'
p532
g39
tp533
a(S'Ladarius Green'
p534
g39
tp535
a(S'David Johnson'
p536
g39
tp537
a(S'John Phillips'
p538
g39
tp539
a(S'Josh Lambo'
p540
g46
tp541
asg48
I01
sg49
F21.0
sg50
F503.0
sg51
F2.0
sg52
F2.0
sg53
F2.0
sg54
S'27-20'
p542
sg56
I01
sg57
F60.0
sg58
F0.0
ssS'9'
p543
(dp544
g5
F30.0
sg6
F1.0
sg7
(lp545
(S'Derek Anderson'
p546
g10
tp547
a(S'Cam Newton'
p548
g10
tp549
a(S'Joe Webb'
p550
g10
tp551
a(S'Cameron Artis-Payne'
p552
g17
tp553
a(S'Jonathan Stewart'
p554
g17
tp555
a(S'Mike Tolbert'
p556
g17
tp557
a(S'Brandon Wegher'
p558
g17
tp559
a(S'Fozzy Whittaker'
p560
g17
tp561
a(S'Brenton Bersin'
p562
g26
tp563
a(S'Corey Brown'
p564
g26
tp565
a(S'Jerricho Cotchery'
p566
g26
tp567
a(S'Devin Funchess'
p568
g26
tp569
a(S'Ted Ginn'
p570
g26
tp571
a(S'Kevin Norwood'
p572
g26
tp573
a(S'Ed Dickson'
p574
g39
tp575
a(S'Greg Olsen'
p576
g39
tp577
a(S'Scott Simonson'
p578
g39
tp579
a(S'Graham Gano'
p580
g46
tp581
asg48
I00
sg49
F36.0
sg50
F297.0
sg51
F4.0
sg52
F3.0
sg53
F3.0
sg54
S'29-37'
p582
sg56
I00
sg57
F130.0
sg58
F0.0
ssS'8'
p583
(dp584
g5
F0.0
sg6
F3.0
sg7
(lp585
(S'Brock Osweiler'
p586
g10
tp587
a(S'Trevor Siemian'
p588
g10
tp589
a(S'C.J. Anderson'
p590
g17
tp591
a(S'Ronnie Hillman'
p592
g17
tp593
a(S'Juwan Thompson'
p594
g17
tp595
a(S'Andre Caldwell'
p596
g26
tp597
a(S'Bennie Fowler'
p598
g26
tp599
a(S'Cody Latimer'
p600
g26
tp601
a(S'Jordan Norwood'
p602
g26
tp603
a(S'Emmanuel Sanders'
p604
g26
tp605
a(S'Demaryius Thomas'
p606
g26
tp607
a(S'Owen Daniels'
p608
g39
tp609
a(S'Richard Gordon'
p610
g39
tp611
a(S'Virgil Green'
p612
g39
tp613
a(S'Brandon McManus'
p614
g46
tp615
asg48
I00
sg49
F34.0
sg50
F0.0
sg51
F2.0
sg52
F0.0
sg53
F2.0
sg54
S'10-29'
p616
sg56
I00
sg57
F160.0
sg58
F0.0
sssS'2014'
p617
(dp618
g3
(dp619
g5
F44.0
sg6
F0.0
sg7
(lp620
(S'Matt Barkley'
p621
g10
tp622
a(S'Nick Foles'
p623
g10
tp624
a(S'Mark Sanchez'
p625
g10
tp626
a(S'LeSean McCoy'
p627
g17
tp628
a(S'Chris Polk'
p629
g17
tp630
a(S'Darren Sproles'
p631
g17
tp632
a(S'Josh Huff'
p633
g26
tp634
a(S'Jeremy Maclin'
p635
g26
tp636
a(S'Jordan Matthews'
p637
g26
tp638
a(S'Trey Burton'
p639
g39
tp640
a(S'Brent Celek'
p641
g39
tp642
a(S'Zach Ertz'
p643
g39
tp644
a(S'Cody Parkey'
p645
g46
tp646
asg48
I01
sg49
F31.0
sg50
F346.0
sg51
F2.0
sg52
F2.0
sg53
F2.0
sg54
S'53-20'
p647
sg56
I01
sg57
F109.0
sg58
F0.0
ssg59
(dp648
g5
F40.0
sg6
F0.0
sg7
(lp649
(S'Jimmy Clausen'
p650
g10
tp651
a(S'Jay Cutler'
p652
g10
tp653
a(S"Ka'Deem Carey"
p654
g17
tp655
a(S'Matt Forte'
p656
g17
tp657
a(S'Senorise Perry'
p658
g17
tp659
a(S'Alshon Jeffery'
p660
g26
tp661
a(S'Brandon Marshall'
p662
g26
tp663
a(S'Blake Annen'
p664
g39
tp665
a(S'Martellus Bennett'
p666
g39
tp667
a(S'Robbie Gould'
p668
g46
tp669
asg48
I01
sg49
F22.0
sg50
F283.0
sg51
F0.0
sg52
F1.0
sg53
F0.0
sg54
S'55-14'
p670
sg56
I01
sg57
F75.0
sg58
F0.0
ssg91
(dp671
g5
F35.0
sg6
F1.0
sg7
(lp672
(S'Tom Brady'
p673
g10
tp674
a(S'Jimmy Garoppolo'
p675
g10
tp676
a(S'LeGarrette Blount'
p677
g17
tp678
a(S'Brandon Bolden'
p679
g17
tp680
a(S'James Develin'
p681
g17
tp682
a(S'Jonas Gray'
p683
g17
tp684
a(S'Shane Vereen'
p685
g17
tp686
a(S'James White'
p687
g17
tp688
a(S'Danny Amendola'
p689
g26
tp690
a(S'Aaron Dobson'
p691
g26
tp692
a(S'Julian Edelman'
p693
g26
tp694
a(S'Brandon LaFell'
p695
g26
tp696
a(S'Matthew Slater'
p697
g26
tp698
a(S'Brian Tyms'
p699
g26
tp700
a(S'Dorin Dickerson'
p701
g39
tp702
a(S'Rob Gronkowski'
p703
g39
tp704
a(S'Michael Hoomanawanui'
p705
g39
tp706
a(S'Timothy Wright'
p707
g39
tp708
a(S'Stephen Gostkowski'
p709
g46
tp710
asg48
I01
sg49
F18.0
sg50
F245.0
sg51
F1.0
sg52
F2.0
sg53
F0.0
sg54
S'26-21'
p711
sg56
I01
sg57
F84.0
sg58
F0.0
ssg125
(dp712
g5
F37.0
sg6
F0.0
sg7
(lp713
(S'Teddy Bridgewater'
p714
g10
tp715
a(S'Matt Asiata'
p716
g17
tp717
a(S'Joe Banyard'
p718
g17
tp719
a(S'Jerome Felton'
p720
g17
tp721
a(S'Zach Line'
p722
g17
tp723
a(S'Jerick McKinnon'
p724
g17
tp725
a(S'Greg Jennings'
p726
g26
tp727
a(S'Charles Johnson'
p728
g26
tp729
a(S'Cordarrelle Patterson'
p730
g26
tp731
a(S'Adam Thielen'
p732
g26
tp733
a(S'Jarius Wright'
p734
g26
tp735
a(S'Rhett Ellison'
p736
g39
tp737
a(S'Kyle Rudolph'
p738
g39
tp739
a(S'Blair Walsh'
p740
g46
tp741
asg48
I01
sg49
F25.0
sg50
F210.0
sg51
F2.0
sg52
F2.0
sg53
F2.0
sg54
S'24-21'
p742
sg56
I00
sg57
F112.0
sg58
F0.0
ssg161
(dp743
g5
F0.0
sg6
F0.0
sg7
(lp744
(S'EJ Manuel'
p745
g10
tp746
a(S'Bryce Brown'
p747
g17
tp748
a(S'Anthony Dixon'
p749
g17
tp750
a(S'Fred Jackson'
p751
g17
tp752
a(S'Marcus Easley'
p753
g26
tp754
a(S'Marquise Goodwin'
p755
g26
tp756
a(S'Chris Hogan'
p757
g26
tp758
a(S'Deonte Thompson'
p759
g26
tp760
a(S'Sammy Watkins'
p761
g26
tp762
a(S'Robert Woods'
p763
g26
tp764
a(S'Scott Chandler'
p765
g39
tp766
a(S'Chris Gragg'
p767
g39
tp768
a(S'MarQueis Gray'
p769
g39
tp770
a(S'Lee Smith'
p771
g39
tp772
a(S'Dan Carpenter'
p773
g46
tp774
a(S'Jordan Gay'
p775
g46
tp776
asg48
I00
sg49
F30.0
sg50
F0.0
sg51
F4.0
sg52
F0.0
sg53
F4.0
sg54
S'13-21'
p777
sg56
I00
sg57
F117.0
sg58
F0.0
ssg201
(dp778
g5
F39.0
sg6
F1.0
sg7
(lp779
(S'Sean Renfree'
p780
g10
tp781
a(S'Matt Ryan'
p782
g10
tp783
a(S'T.J. Yates'
p784
g10
tp785
a(S'Patrick DiMarco'
p786
g17
tp787
a(S'Devont Freeman'
p788
g17
tp789
a(S'Steven Jackson'
p790
g17
tp791
a(S'Jacquizz Rodgers'
p792
g17
tp793
a(S'Harry Douglas'
p794
g26
tp795
a(S'Devin Hester'
p796
g26
tp797
a(S'Julio Jones'
p798
g26
tp799
a(S'Eric Weems'
p800
g26
tp801
a(S'Roddy White'
p802
g26
tp803
a(S'Bear Pascoe'
p804
g39
tp805
a(S'Levine Toilolo'
p806
g39
tp807
a(S'Matt Bryant'
p808
g46
tp809
asg48
I01
sg49
F24.0
sg50
F375.0
sg51
F2.0
sg52
F4.0
sg53
F1.0
sg54
S'43-37'
p810
sg56
I01
sg57
F91.0
sg58
F1.0
ssg241
(dp811
g5
F41.0
sg6
F0.0
sg7
(lp812
(S'Kellen Moore'
p813
g10
tp814
a(S'Dan Orlovsky'
p815
g10
tp816
a(S'Matthew Stafford'
p817
g10
tp818
a(S'Reggie Bush'
p819
g17
tp820
a(S'Theo Riddick'
p821
g17
tp822
a(S'George Winn'
p823
g17
tp824
a(S'Corey Fuller'
p825
g26
tp826
a(S'Jeremy Ross'
p827
g26
tp828
a(S'Golden Tate'
p829
g26
tp830
a(S'Kellen Davis'
p831
g39
tp832
a(S'Eric Ebron'
p833
g39
tp834
a(S'Brandon Pettigrew'
p835
g39
tp836
a(S'Matt Prater'
p837
g46
tp838
asg48
I01
sg49
F9.0
sg50
F217.0
sg51
F0.0
sg52
F3.0
sg53
F0.0
sg54
S'30-20'
p839
sg56
I01
sg57
F48.0
sg58
F0.0
ssg279
(dp840
g5
F26.0
sg6
F0.0
sg7
(lp841
(S'Mike Glennon'
p842
g10
tp843
a(S'Josh McCown'
p844
g10
tp845
a(S'Mike James'
p846
g17
tp847
a(S'Doug Martin'
p848
g17
tp849
a(S'Bobby Rainey'
p850
g17
tp851
a(S'Charles Sims'
p852
g17
tp853
a(S'Mike Evans'
p854
g26
tp855
a(S'Vincent Jackson'
p856
g26
tp857
a(S'Tavarres King'
p858
g26
tp859
a(S'Russell Shepard'
p860
g26
tp861
a(S'Cameron Brate'
p862
g39
tp863
a(S'Brandon Myers'
p864
g39
tp865
a(S'Luke Stocker'
p866
g39
tp867
a(S'Patrick Murray'
p868
g46
tp869
asg48
I01
sg49
F14.0
sg50
F147.0
sg51
F1.0
sg52
F0.0
sg53
F1.0
sg54
S'20-3'
p870
sg56
I00
sg57
F16.0
sg58
F0.0
ssg317
(dp871
g5
F28.0
sg6
F0.0
sg7
(lp872
(S'Tarvaris Jackson'
p873
g10
tp874
a(S'Russell Wilson'
p875
g10
tp876
a(S'Derrick Coleman'
p877
g17
tp878
a(S'Christine Michael'
p879
g17
tp880
a(S'Robert Turbin'
p881
g17
tp882
a(S'Doug Baldwin'
p883
g26
tp884
a(S'Percy Harvin'
p885
g26
tp886
a(S'Jermaine Kearse'
p887
g26
tp888
a(S'Ricardo Lockette'
p889
g26
tp890
a(S'Kevin Norwood'
p891
g26
tp892
a(S'Paul Richardson'
p893
g26
tp894
a(S'Bryan Walters'
p895
g26
tp896
a(S'Cooper Helfet'
p897
g39
tp898
a(S'Luke Willson'
p899
g39
tp900
a(S'Steven Hauschka'
p901
g46
tp902
asg48
I00
sg49
F17.0
sg50
F191.0
sg51
F2.0
sg52
F2.0
sg53
F2.0
sg54
S'16-36'
p903
sg56
I00
sg57
F97.0
sg58
F0.0
ssg355
(dp904
g5
F34.0
sg6
F1.0
sg7
(lp905
(S'Kellen Moore'
p906
g10
tp907
a(S'Dan Orlovsky'
p908
g10
tp909
a(S'Matthew Stafford'
p910
g10
tp911
a(S'Reggie Bush'
p912
g17
tp913
a(S'Theo Riddick'
p914
g17
tp915
a(S'Corey Fuller'
p916
g26
tp917
a(S'Jeremy Ross'
p918
g26
tp919
a(S'Golden Tate'
p920
g26
tp921
a(S'Eric Ebron'
p922
g39
tp923
a(S'Brandon Pettigrew'
p924
g39
tp925
asg48
I00
sg49
F22.0
sg50
F246.0
sg51
F0.0
sg52
F0.0
sg53
F0.0
sg54
S'7-19'
p926
sg56
I00
sg57
F80.0
sg58
F0.0
ssg395
(dp927
g5
F32.0
sg6
F2.0
sg7
(lp928
(S'Geno Smith'
p929
g10
tp930
a(S'Mike Vick'
p931
g10
tp932
a(S'Tommy Bohanon'
p933
g17
tp934
a(S'Chris Ivory'
p935
g17
tp936
a(S'Chris Johnson'
p937
g17
tp938
a(S'Bilal Powell'
p939
g17
tp940
a(S'Eric Decker'
p941
g26
tp942
a(S'Saalim Hakim'
p943
g26
tp944
a(S'Jeremy Kerley'
p945
g26
tp946
a(S'Walt Powell'
p947
g26
tp948
a(S'Greg Salas'
p949
g26
tp950
a(S'Jace Amaro'
p951
g39
tp952
a(S'Jeff Cumberland'
p953
g39
tp954
a(S'Zach Sudfeld'
p955
g39
tp956
a(S'Nick Folk'
p957
g46
tp958
asg48
I01
sg49
F37.0
sg50
F176.0
sg51
F1.0
sg52
F1.0
sg53
F1.0
sg54
S'31-24'
p959
sg56
I01
sg57
F147.0
sg58
F0.0
ssg431
(dp960
g5
F0.0
sg6
F0.0
sg7
(lp961
(S'Teddy Bridgewater'
p962
g10
tp963
a(S'Matt Asiata'
p964
g17
tp965
a(S'Joe Banyard'
p966
g17
tp967
a(S'Jerome Felton'
p968
g17
tp969
a(S'Jerick McKinnon'
p970
g17
tp971
a(S'Greg Jennings'
p972
g26
tp973
a(S'Charles Johnson'
p974
g26
tp975
a(S'Cordarrelle Patterson'
p976
g26
tp977
a(S'Adam Thielen'
p978
g26
tp979
a(S'Jarius Wright'
p980
g26
tp981
a(S'Rhett Ellison'
p982
g39
tp983
a(S'MarQueis Gray'
p984
g39
tp985
a(S'Kyle Rudolph'
p986
g39
tp987
a(S'Blair Walsh'
p988
g46
tp989
asg48
I01
sg49
F22.0
sg50
F0.0
sg51
F1.0
sg52
F0.0
sg53
F1.0
sg54
S'42-10'
p990
sg56
I01
sg57
F96.0
sg58
F0.0
ssg467
(dp991
g5
F35.0
sg6
F0.0
sg7
(lp992
(S'Jimmy Clausen'
p993
g10
tp994
a(S'Jay Cutler'
p995
g10
tp996
a(S"Ka'Deem Carey"
p997
g17
tp998
a(S'Matt Forte'
p999
g17
tp1000
a(S'Senorise Perry'
p1001
g17
tp1002
a(S'Alshon Jeffery'
p1003
g26
tp1004
a(S'Brandon Marshall'
p1005
g26
tp1006
a(S'Rashad Ross'
p1007
g26
tp1008
a(S'Martellus Bennett'
p1009
g39
tp1010
a(S'Robbie Gould'
p1011
g46
tp1012
asg48
I01
sg49
F41.0
sg50
F265.0
sg51
F1.0
sg52
F2.0
sg53
F1.0
sg54
S'38-17'
p1013
sg56
I00
sg57
F235.0
sg58
F0.0
ssg503
(dp1014
g5
F39.0
sg6
F0.0
sg7
(lp1015
(S'Derek Anderson'
p1016
g10
tp1017
a(S'Cam Newton'
p1018
g10
tp1019
a(S'Joe Webb'
p1020
g10
tp1021
a(S'Darrin Reaves'
p1022
g17
tp1023
a(S'Jonathan Stewart'
p1024
g17
tp1025
a(S'Fozzy Whittaker'
p1026
g17
tp1027
a(S'DeAngelo Williams'
p1028
g17
tp1029
a(S'Jason Avant'
p1030
g26
tp1031
a(S'Kelvin Benjamin'
p1032
g26
tp1033
a(S'Brenton Bersin'
p1034
g26
tp1035
a(S'Corey Brown'
p1036
g26
tp1037
a(S'Jerricho Cotchery'
p1038
g26
tp1039
a(S'Ed Dickson'
p1040
g39
tp1041
a(S'Greg Olsen'
p1042
g39
tp1043
a(S'Brandon Williams'
p1044
g39
tp1045
a(S'Graham Gano'
p1046
g46
tp1047
asg48
I01
sg49
F20.0
sg50
F248.0
sg51
F1.0
sg52
F2.0
sg53
F1.0
sg54
S'38-17'
p1048
sg56
I01
sg57
F91.0
sg58
F0.0
ssg509
(dp1049
g5
F31.0
sg6
F1.0
sg7
(lp1050
(S'Matt Moore'
p1051
g10
tp1052
a(S'Ryan Tannehill'
p1053
g10
tp1054
a(S'Lamar Miller'
p1055
g17
tp1056
a(S'Daniel Thomas'
p1057
g17
tp1058
a(S'Damien Williams'
p1059
g17
tp1060
a(S'Brandon Gibson'
p1061
g26
tp1062
a(S'Brian Hartline'
p1063
g26
tp1064
a(S'Jarvis Landry'
p1065
g26
tp1066
a(S'Rishard Matthews'
p1067
g26
tp1068
a(S'Mike Wallace'
p1069
g26
tp1070
a(S'Charles Clay'
p1071
g39
tp1072
a(S'Dion Sims'
p1073
g39
tp1074
a(S'Caleb Sturgis'
p1075
g46
tp1076
asg48
I01
sg49
F17.0
sg50
F244.0
sg51
F1.0
sg52
F2.0
sg53
F1.0
sg54
S'27-24'
p1077
sg56
I00
sg57
F102.0
sg58
F0.0
ssg543
(dp1078
g5
F0.0
sg6
F0.0
sg7
(lp1079
sg48
(lp1080
sg49
F0.0
sg50
F0.0
sg51
F0.0
sg52
F0.0
sg53
F0.0
sg54
(lp1081
sg56
(lp1082
sg57
F0.0
sg58
F0.0
ssg583
(dp1083
g5
F32.0
sg6
F2.0
sg7
(lp1084
(S'Drew Brees'
p1085
g10
tp1086
a(S'Luke McCown'
p1087
g10
tp1088
a(S'Travaris Cadet'
p1089
g17
tp1090
a(S'Mark Ingram'
p1091
g17
tp1092
a(S'Austin Johnson'
p1093
g17
tp1094
a(S'Khiry Robinson'
p1095
g17
tp1096
a(S'Pierre Thomas'
p1097
g17
tp1098
a(S'Marques Colston'
p1099
g26
tp1100
a(S'Brandin Cooks'
p1101
g26
tp1102
a(S'Kenny Stills'
p1103
g26
tp1104
a(S'Nick Toon'
p1105
g26
tp1106
a(S'Jimmy Graham'
p1107
g39
tp1108
a(S'Josh Hill'
p1109
g39
tp1110
a(S'Benjamin Watson'
p1111
g39
tp1112
a(S'Shayne Graham'
p1113
g46
tp1114
asg48
I00
sg49
F29.0
sg50
F311.0
sg51
F3.0
sg52
F3.0
sg53
F3.0
sg54
S'23-44'
p1115
sg56
I00
sg57
F190.0
sg58
F0.0
sssS'2011'
p1116
(dp1117
g3
(dp1118
g5
F38.0
sg6
F1.0
sg7
(lp1119
(S'Josh Freeman'
p1120
g10
tp1121
a(S'Josh Johnson'
p1122
g10
tp1123
a(S'LeGarrette Blount'
p1124
g17
tp1125
a(S'Arrelious Benn'
p1126
g26
tp1127
a(S'Mike Williams'
p1128
g26
tp1129
a(S'Luke Stocker'
p1130
g39
tp1131
a(S'Connor Barth'
p1132
g46
tp1133
asg48
I01
sg49
F20.0
sg50
F342.0
sg51
F2.0
sg52
F2.0
sg53
F2.0
sg54
S'35-26'
p1134
sg56
I01
sg57
F121.0
sg58
F0.0
ssg59
(dp1135
g5
F0.0
sg6
F1.0
sg7
(lp1136
(S'Joe Webb'
p1137
g10
tp1138
a(S'Toby Gerhart'
p1139
g17
tp1140
a(S'Adrian Peterson'
p1141
g17
tp1142
a(S'Percy Harvin'
p1143
g26
tp1144
a(S'Kyle Rudolph'
p1145
g39
tp1146
asg48
I01
sg49
F18.0
sg50
F0.0
sg51
F0.0
sg52
F0.0
sg53
F0.0
sg54
S'45-7'
p1147
sg56
I01
sg57
F75.0
sg58
F0.0
ssg91
(dp1148
g5
F40.0
sg6
F0.0
sg7
(lp1149
(S'Eli Manning'
p1150
g10
tp1151
a(S'Ahmad Bradshaw'
p1152
g17
tp1153
a(S'Victor Cruz'
p1154
g26
tp1155
a(S'Hakeem Nicks'
p1156
g26
tp1157
a(S'Bear Pascoe'
p1158
g39
tp1159
asg48
I01
sg49
F11.0
sg50
F347.0
sg51
F0.0
sg52
F3.0
sg53
F0.0
sg54
S'38-35'
p1160
sg56
I00
sg57
F38.0
sg58
F0.0
ssg125
(dp1161
g5
F45.0
sg6
F0.0
sg7
(lp1162
(S'Shaun Hill'
p1163
g10
tp1164
a(S'Matthew Stafford'
p1165
g10
tp1166
a(S'Drew Stanton'
p1167
g10
tp1168
a(S'Brandon Pettigrew'
p1169
g39
tp1170
asg48
I01
sg49
F4.0
sg50
F276.0
sg51
F0.0
sg52
F1.0
sg53
F0.0
sg54
S'27-15'
p1171
sg56
I00
sg57
F31.0
sg58
F0.0
ssg161
(dp1172
g5
F0.0
sg6
F0.0
sg7
(lp1173
(S'Dexter McCluster'
p1174
g17
tp1175
a(S'Dwayne Bowe'
p1176
g26
tp1177
a(S'Ryan Succop'
p1178
g46
tp1179
asg48
I00
sg49
F5.0
sg50
F0.0
sg51
F4.0
sg52
F0.0
sg53
F4.0
sg54
S'14-19'
p1180
sg56
I00
sg57
F14.0
sg58
F0.0
ssg201
(dp1181
g5
F0.0
sg6
F0.0
sg7
(lp1182
(S'Taiwan Jones'
p1183
g17
tp1184
a(S'Darren McFadden'
p1185
g17
tp1186
a(S'Marcel Reece'
p1187
g17
tp1188
a(S'Darrius Heyward-Bey'
p1189
g26
tp1190
a(S'Louis Murphy'
p1191
g26
tp1192
a(S'Terrelle Pryor'
p1193
g26
tp1194
a(S'Richard Gordon'
p1195
g39
tp1196
a(S'Brandon Myers'
p1197
g39
tp1198
a(S'Sebastian Janikowski'
p1199
g46
tp1200
asg48
I01
sg49
F3.0
sg50
F0.0
sg51
F0.0
sg52
F0.0
sg53
F0.0
sg54
S'46-16'
p1201
sg56
I01
sg57
F22.0
sg58
F0.0
ssg241
(dp1202
g5
F59.0
sg6
F0.0
sg7
(lp1203
(S'Shaun Hill'
p1204
g10
tp1205
a(S'Matthew Stafford'
p1206
g10
tp1207
a(S'Drew Stanton'
p1208
g10
tp1209
a(S'Brandon Pettigrew'
p1210
g39
tp1211
asg48
I01
sg49
F0.0
sg50
F520.0
sg51
F0.0
sg52
F5.0
sg53
F0.0
sg54
S'45-41'
p1212
sg56
I01
sg57
F0.0
sg58
F0.0
ssg279
(dp1213
g5
F28.0
sg6
F0.0
sg7
(lp1214
(S'Jay Cutler'
p1215
g10
tp1216
a(S'Josh McCown'
p1217
g10
tp1218
a(S'Tyler Clutts'
p1219
g17
tp1220
a(S'Matt Forte'
p1221
g17
tp1222
a(S'Devin Hester'
p1223
g26
tp1224
a(S'Kellen Davis'
p1225
g39
tp1226
a(S'Matt Spaeth'
p1227
g39
tp1228
a(S'Robbie Gould'
p1229
g46
tp1230
asg48
I01
sg49
F8.0
sg50
F242.0
sg51
F3.0
sg52
F1.0
sg53
F2.0
sg54
S'35-21'
p1231
sg56
I01
sg57
F38.0
sg58
F0.0
ssg317
(dp1232
g5
F49.0
sg6
F0.0
sg7
(lp1233
(S'Drew Brees'
p1234
g10
tp1235
a(S'Chase Daniel'
p1236
g10
tp1237
a(S'Mark Ingram'
p1238
g17
tp1239
a(S'Darren Sproles'
p1240
g17
tp1241
a(S'Pierre Thomas'
p1242
g17
tp1243
a(S'Marques Colston'
p1244
g26
tp1245
a(S'Lance Moore'
p1246
g26
tp1247
a(S'Jimmy Graham'
p1248
g39
tp1249
asg48
I01
sg49
F21.0
sg50
F419.0
sg51
F0.0
sg52
F3.0
sg53
F0.0
sg54
S'42-34'
p1250
sg56
I01
sg57
F81.0
sg58
F0.0
ssg355
(dp1251
g5
F37.0
sg6
F0.0
sg7
(lp1252
(S'Jay Cutler'
p1253
g10
tp1254
a(S'Tyler Clutts'
p1255
g17
tp1256
a(S'Matt Forte'
p1257
g17
tp1258
a(S'Devin Hester'
p1259
g26
tp1260
a(S'Kellen Davis'
p1261
g39
tp1262
a(S'Matt Spaeth'
p1263
g39
tp1264
a(S'Robbie Gould'
p1265
g46
tp1266
asg48
I01
sg49
F12.0
sg50
F302.0
sg51
F1.0
sg52
F2.0
sg53
F1.0
sg54
S'27-17'
p1267
sg56
I00
sg57
F13.0
sg58
F0.0
ssg395
(dp1268
g5
F46.0
sg6
F1.0
sg7
(lp1269
(S'Derek Anderson'
p1270
g10
tp1271
a(S'Jimmy Clausen'
p1272
g10
tp1273
a(S'Cam Newton'
p1274
g10
tp1275
a(S'Jerome Felton'
p1276
g17
tp1277
a(S'Jonathan Stewart'
p1278
g17
tp1279
a(S'DeAngelo Williams'
p1280
g17
tp1281
a(S'Seyi Ajirotutu'
p1282
g26
tp1283
a(S'Brandon LaFell'
p1284
g26
tp1285
a(S'Steve Smith'
p1286
g26
tp1287
a(S'Greg Olsen'
p1288
g39
tp1289
asg48
I01
sg49
F21.0
sg50
F432.0
sg51
F0.0
sg52
F1.0
sg53
F0.0
sg54
S'30-23'
p1290
sg56
I00
sg57
F71.0
sg58
F0.0
ssg431
(dp1291
g5
F32.0
sg6
F0.0
sg7
(lp1292
(S'Matt Ryan'
p1293
g10
tp1294
a(S'Jacquizz Rodgers'
p1295
g17
tp1296
a(S'Harry Douglas'
p1297
g26
tp1298
a(S'Julio Jones'
p1299
g26
tp1300
a(S'Eric Weems'
p1301
g26
tp1302
a(S'Roddy White'
p1303
g26
tp1304
a(S'Matt Bryant'
p1305
g46
tp1306
asg48
I01
sg49
F5.0
sg50
F167.0
sg51
F0.0
sg52
F1.0
sg53
F0.0
sg54
S'25-14'
p1307
sg56
I00
sg57
F37.0
sg58
F0.0
ssg467
(dp1308
g5
F0.0
sg6
F0.0
sg7
(lp1309
(S'Eric Decker'
p1310
g26
tp1311
a(S'Eddie Royal'
p1312
g26
tp1313
a(S'Demaryius Thomas'
p1314
g26
tp1315
a(S'Daniel Fells'
p1316
g39
tp1317
a(S'Virgil Green'
p1318
g39
tp1319
a(S'Julius Thomas'
p1320
g39
tp1321
a(S'Matt Prater'
p1322
g46
tp1323
asg48
I01
sg49
F1.0
sg50
F0.0
sg51
F1.0
sg52
F0.0
sg53
F1.0
sg54
S'49-23'
p1324
sg56
I01
sg57
F1.0
sg58
F0.0
ssg503
(dp1325
g5
F0.0
sg6
F1.0
sg7
(lp1326
(S'Joe Webb'
p1327
g10
tp1328
a(S'Toby Gerhart'
p1329
g17
tp1330
a(S'Adrian Peterson'
p1331
g17
tp1332
a(S'Percy Harvin'
p1333
g26
tp1334
a(S'Kyle Rudolph'
p1335
g39
tp1336
asg48
I01
sg49
F27.0
sg50
F0.0
sg51
F0.0
sg52
F0.0
sg53
F0.0
sg54
S'33-27'
p1337
sg56
I00
sg57
F187.0
sg58
F0.0
ssg509
(dp1338
g5
F45.0
sg6
F0.0
sg7
(lp1339
(S'Sam Bradford'
p1340
g10
tp1341
a(S'Steven Jackson'
p1342
g17
tp1343
a(S'Brandon Gibson'
p1344
g26
tp1345
a(S'Greg Salas'
p1346
g26
tp1347
a(S'Michael Hoomanawanui'
p1348
g39
tp1349
a(S'Lance Kendricks'
p1350
g39
tp1351
a(S'Josh Brown'
p1352
g46
tp1353
asg48
I01
sg49
F21.0
sg50
F328.0
sg51
F2.0
sg52
F0.0
sg53
F1.0
sg54
S'24-3'
p1354
sg56
I01
sg57
F101.0
sg58
F0.0
ssg543
(dp1355
g5
F46.0
sg6
F1.0
sg7
(lp1356
(S'Philip Rivers'
p1357
g10
tp1358
a(S'Ryan Mathews'
p1359
g17
tp1360
a(S'Mike Tolbert'
p1361
g17
tp1362
a(S'Vincent Brown'
p1363
g26
tp1364
a(S'Malcom Floyd'
p1365
g26
tp1366
a(S'Vincent Jackson'
p1367
g26
tp1368
a(S'Bryan Walters'
p1369
g26
tp1370
a(S'Antonio Gates'
p1371
g39
tp1372
a(S'Nick Novak'
p1373
g46
tp1374
asg48
I01
sg49
F20.0
sg50
F385.0
sg51
F1.0
sg52
F4.0
sg53
F1.0
sg54
S'45-38'
p1375
sg56
I00
sg57
F82.0
sg58
F0.0
ssg583
(dp1376
g5
F0.0
sg6
F0.0
sg7
(lp1377
sg48
(lp1378
sg49
F0.0
sg50
F0.0
sg51
F0.0
sg52
F0.0
sg53
F0.0
sg54
(lp1379
sg56
(lp1380
sg57
F0.0
sg58
F0.0
sssS'2010'
p1381
(dp1382
g3
(dp1383
g5
F0.0
sg6
F0.0
sg7
(lp1384
(S'Tarvaris Jackson'
p1385
g10
tp1386
a(S'Joe Webb'
p1387
g10
tp1388
a(S'Toby Gerhart'
p1389
g17
tp1390
a(S'Adrian Peterson'
p1391
g17
tp1392
a(S'Percy Harvin'
p1393
g26
tp1394
asg48
I01
sg49
F17.0
sg50
F0.0
sg51
F0.0
sg52
F0.0
sg53
F0.0
sg54
S'31-3'
p1395
sg56
I00
sg57
F93.0
sg58
F0.0
ssg59
(dp1396
g5
F0.0
sg6
F0.0
sg7
(lp1397
sg48
(lp1398
sg49
F0.0
sg50
F0.0
sg51
F0.0
sg52
F0.0
sg53
F0.0
sg54
(lp1399
sg56
(lp1400
sg57
F0.0
sg58
F0.0
ssg91
(dp1401
g5
F0.0
sg6
F0.0
sg7
(lp1402
(S'Alex Smith'
p1403
g10
tp1404
a(S'Anthony Dixon'
p1405
g17
tp1406
a(S'Michael Crabtree'
p1407
g26
tp1408
a(S'Ted Ginn'
p1409
g26
tp1410
a(S'Kyle Williams'
p1411
g26
tp1412
a(S'Vernon Davis'
p1413
g39
tp1414
a(S'Delanie Walker'
p1415
g39
tp1416
asg48
I01
sg49
F10.0
sg50
F0.0
sg51
F0.0
sg52
F0.0
sg53
F0.0
sg54
S'34-16'
p1417
sg56
I01
sg57
F38.0
sg58
F0.0
ssg125
(dp1418
g5
F28.0
sg6
F0.0
sg7
(lp1419
(S'Matt Ryan'
p1420
g10
tp1421
a(S'Harry Douglas'
p1422
g26
tp1423
a(S'Eric Weems'
p1424
g26
tp1425
a(S'Roddy White'
p1426
g26
tp1427
a(S'Matt Bryant'
p1428
g46
tp1429
asg48
I00
sg49
F0.0
sg50
F197.0
sg51
F2.0
sg52
F1.0
sg53
F2.0
sg54
S'17-20'
p1430
sg56
I00
sg57
F0.0
sg58
F0.0
ssg161
(dp1431
g5
F24.0
sg6
F0.0
sg7
(lp1432
(S'Tom Brady'
p1433
g10
tp1434
a(S'Brian Hoyer'
p1435
g10
tp1436
a(S'Danny Woodhead'
p1437
g17
tp1438
a(S'Julian Edelman'
p1439
g26
tp1440
a(S'Matthew Slater'
p1441
g26
tp1442
a(S'Brandon Tate'
p1443
g26
tp1444
a(S'Wes Welker'
p1445
g26
tp1446
a(S'Rob Gronkowski'
p1447
g39
tp1448
a(S'Shayne Graham'
p1449
g46
tp1450
asg48
I00
sg49
F9.0
sg50
F163.0
sg51
F1.0
sg52
F2.0
sg53
F1.0
sg54
S'27-31'
p1451
sg56
I00
sg57
F59.0
sg58
F0.0
ssg201
(dp1452
g5
F22.0
sg6
F0.0
sg7
(lp1453
(S'Shaun Hill'
p1454
g10
tp1455
a(S'Matthew Stafford'
p1456
g10
tp1457
a(S'Drew Stanton'
p1458
g10
tp1459
a(S'Jerome Felton'
p1460
g17
tp1461
a(S'Brandon Pettigrew'
p1462
g39
tp1463
asg48
I00
sg49
F10.0
sg50
F117.0
sg51
F0.0
sg52
F1.0
sg53
F0.0
sg54
S'3-7'
p1464
sg56
I00
sg57
F59.0
sg58
F0.0
ssg241
(dp1465
g5
F39.0
sg6
F0.0
sg7
(lp1466
(S'Jay Cutler'
p1467
g10
tp1468
a(S'Matt Forte'
p1469
g17
tp1470
a(S'Devin Hester'
p1471
g26
tp1472
a(S'Kellen Davis'
p1473
g39
tp1474
a(S'Greg Olsen'
p1475
g39
tp1476
a(S'Robbie Gould'
p1477
g46
tp1478
asg48
I01
sg49
F17.0
sg50
F168.0
sg51
F1.0
sg52
F0.0
sg53
F1.0
sg54
S'10-3'
p1479
sg56
I01
sg57
F99.0
sg58
F0.0
ssg279
(dp1480
g5
F33.0
sg6
F0.0
sg7
(lp1481
(S'Eli Manning'
p1482
g10
tp1483
a(S'Ahmad Bradshaw'
p1484
g17
tp1485
a(S'Hakeem Nicks'
p1486
g26
tp1487
a(S'Bear Pascoe'
p1488
g39
tp1489
asg48
I01
sg49
F13.0
sg50
F301.0
sg51
F0.0
sg52
F2.0
sg53
F0.0
sg54
S'45-17'
p1490
sg56
I01
sg57
F43.0
sg58
F0.0
ssg317
(dp1491
g5
F24.0
sg6
F1.0
sg7
(lp1492
(S'Mike Vick'
p1493
g10
tp1494
a(S'LeSean McCoy'
p1495
g17
tp1496
a(S'Jason Avant'
p1497
g26
tp1498
a(S'DeSean Jackson'
p1499
g26
tp1500
a(S'Jeremy Maclin'
p1501
g26
tp1502
a(S'Brent Celek'
p1503
g39
tp1504
a(S'Clay Harbor'
p1505
g39
tp1506
asg48
I01
sg49
F19.0
sg50
F175.0
sg51
F0.0
sg52
F1.0
sg53
F0.0
sg54
S'27-20'
p1507
sg56
I00
sg57
F149.0
sg58
F0.0
ssg355
(dp1508
g5
F27.0
sg6
F0.0
sg7
(lp1509
(S'Jay Cutler'
p1510
g10
tp1511
a(S'Matt Forte'
p1512
g17
tp1513
a(S'Devin Hester'
p1514
g26
tp1515
a(S'Kellen Davis'
p1516
g39
tp1517
a(S'Greg Olsen'
p1518
g39
tp1519
a(S'Robbie Gould'
p1520
g46
tp1521
asg48
I00
sg49
F14.0
sg50
F221.0
sg51
F3.0
sg52
F1.0
sg53
F2.0
sg54
S'17-20'
p1522
sg56
I00
sg57
F66.0
sg58
F0.0
ssg395
(dp1523
g5
F0.0
sg6
F1.0
sg7
(lp1524
(S'Ryan Fitzpatrick'
p1525
g10
tp1526
a(S'Fred Jackson'
p1527
g17
tp1528
a(S'C.J. Spiller'
p1529
g17
tp1530
a(S'Steve Johnson'
p1531
g26
tp1532
asg48
I01
sg49
F10.0
sg50
F0.0
sg51
F0.0
sg52
F0.0
sg53
F0.0
sg54
S'34-7'
p1533
sg56
I01
sg57
F42.0
sg58
F0.0
ssg431
(dp1534
g5
F0.0
sg6
F0.0
sg7
(lp1535
(S'Darrel Young'
p1536
g17
tp1537
a(S'Logan Paulsen'
p1538
g39
tp1539
a(S'Graham Gano'
p1540
g46
tp1541
asg48
I00
sg49
F0.0
sg50
F0.0
sg51
F4.0
sg52
F0.0
sg53
F3.0
sg54
S'13-16'
p1542
sg56
I00
sg57
F0.0
sg58
F0.0
ssg467
(dp1543
g5
F54.0
sg6
F0.0
sg7
(lp1544
(S'Shaun Hill'
p1545
g10
tp1546
a(S'Matthew Stafford'
p1547
g10
tp1548
a(S'Drew Stanton'
p1549
g10
tp1550
a(S'Jerome Felton'
p1551
g17
tp1552
a(S'Brandon Pettigrew'
p1553
g39
tp1554
asg48
I01
sg49
F5.0
sg50
F331.0
sg51
F0.0
sg52
F2.0
sg53
F0.0
sg54
S'28-26'
p1555
sg56
I01
sg57
F59.0
sg58
F0.0
ssg503
(dp1556
g5
F0.0
sg6
F2.0
sg7
(lp1557
(S'Tarvaris Jackson'
p1558
g10
tp1559
a(S'Joe Webb'
p1560
g10
tp1561
a(S'Toby Gerhart'
p1562
g17
tp1563
a(S'Adrian Peterson'
p1564
g17
tp1565
a(S'Percy Harvin'
p1566
g26
tp1567
asg48
I01
sg49
F36.0
sg50
F0.0
sg51
F0.0
sg52
F0.0
sg53
F0.0
sg54
S'28-24'
p1568
sg56
I01
sg57
F196.0
sg58
F0.0
ssg509
(dp1569
g5
F39.0
sg6
F0.0
sg7
(lp1570
(S'Chad Henne'
p1571
g10
tp1572
a(S'Brian Hartline'
p1573
g26
tp1574
a(S'Brandon Marshall'
p1575
g26
tp1576
a(S'Marlon Moore'
p1577
g26
tp1578
a(S'Anthony Fasano'
p1579
g39
tp1580
a(S'Dan Carpenter'
p1581
g46
tp1582
asg48
I00
sg49
F3.0
sg50
F231.0
sg51
F3.0
sg52
F2.0
sg53
F3.0
sg54
S'20-23'
p1583
sg56
I01
sg57
F6.0
sg58
F0.0
ssg543
(dp1584
g5
F0.0
sg6
F0.0
sg7
(lp1585
(S'Tony Romo'
p1586
g10
tp1587
a(S'Dez Bryant'
p1588
g26
tp1589
a(S'Martellus Bennett'
p1590
g39
tp1591
a(S'Scott Chandler'
p1592
g39
tp1593
a(S'Jason Witten'
p1594
g39
tp1595
asg48
I01
sg49
F0.0
sg50
F0.0
sg51
F0.0
sg52
F0.0
sg53
F0.0
sg54
S'45-7'
p1596
sg56
I01
sg57
F0.0
sg58
F0.0
ssg583
(dp1597
g5
F38.0
sg6
F0.0
sg7
(lp1598
(S'Kellen Clemens'
p1599
g10
tp1600
a(S'Mark Sanchez'
p1601
g10
tp1602
a(S'Jerricho Cotchery'
p1603
g26
tp1604
a(S'Jeff Cumberland'
p1605
g39
tp1606
a(S'Matthew Mulligan'
p1607
g39
tp1608
a(S'Nick Folk'
p1609
g46
tp1610
asg48
I01
sg49
F3.0
sg50
F256.0
sg51
F1.0
sg52
F0.0
sg53
F0.0
sg54
S'9-0'
p1611
sg56
I00
sg57
F14.0
sg58
F0.0
sssS'2013'
p1612
(dp1613
g3
(dp1614
g5
F35.0
sg6
F0.0
sg7
(lp1615
(S'Eli Manning'
p1616
g10
tp1617
a(S'Ryan Nassib'
p1618
g10
tp1619
a(S'Victor Cruz'
p1620
g26
tp1621
a(S'Louis Murphy'
p1622
g26
tp1623
a(S'Hakeem Nicks'
p1624
g26
tp1625
a(S'Rueben Randle'
p1626
g26
tp1627
a(S'Larry Donnell'
p1628
g39
tp1629
a(S'Brandon Myers'
p1630
g39
tp1631
a(S'Bear Pascoe'
p1632
g39
tp1633
a(S'Josh Brown'
p1634
g46
tp1635
asg48
I00
sg49
F1.0
sg50
F279.0
sg51
F2.0
sg52
F1.0
sg53
F2.0
sg54
S'13-27'
p1636
sg56
I00
sg57
F3.0
sg58
F0.0
ssg59
(dp1637
g5
F18.0
sg6
F0.0
sg7
(lp1638
(S'Matt Barkley'
p1639
g10
tp1640
a(S'Nick Foles'
p1641
g10
tp1642
a(S'Mike Vick'
p1643
g10
tp1644
a(S'Bryce Brown'
p1645
g17
tp1646
a(S'LeSean McCoy'
p1647
g17
tp1648
a(S'Chris Polk'
p1649
g17
tp1650
a(S'Jason Avant'
p1651
g26
tp1652
a(S'DeSean Jackson'
p1653
g26
tp1654
a(S'Damaris Johnson'
p1655
g26
tp1656
a(S'Brent Celek'
p1657
g39
tp1658
a(S'Zach Ertz'
p1659
g39
tp1660
asg48
I00
sg49
F37.0
sg50
F228.0
sg51
F0.0
sg52
F3.0
sg53
F0.0
sg54
S'13-27'
p1661
sg56
I01
sg57
F204.0
sg58
F0.0
ssg91
(dp1662
g5
F35.0
sg6
F1.0
sg7
(lp1663
(S'Shaun Hill'
p1664
g10
tp1665
a(S'Kellen Moore'
p1666
g10
tp1667
a(S'Matthew Stafford'
p1668
g10
tp1669
a(S'Reggie Bush'
p1670
g17
tp1671
a(S'Theo Riddick'
p1672
g17
tp1673
a(S'Jeremy Ross'
p1674
g26
tp1675
a(S'Dorin Dickerson'
p1676
g39
tp1677
a(S'Brandon Pettigrew'
p1678
g39
tp1679
asg48
I00
sg49
F24.0
sg50
F330.0
sg51
F0.0
sg52
F3.0
sg53
F0.0
sg54
S'10-40'
p1680
sg56
I00
sg57
F147.0
sg58
F0.0
ssg125
(dp1681
g5
F0.0
sg6
F1.0
sg7
(lp1682
(S'Matt Cassel'
p1683
g10
tp1684
a(S'Josh Freeman'
p1685
g10
tp1686
a(S'Joe Webb'
p1687
g10
tp1688
a(S'Matt Asiata'
p1689
g17
tp1690
a(S'Jerome Felton'
p1691
g17
tp1692
a(S'Toby Gerhart'
p1693
g17
tp1694
a(S'Adrian Peterson'
p1695
g17
tp1696
a(S'Greg Jennings'
p1697
g26
tp1698
a(S'Cordarrelle Patterson'
p1699
g26
tp1700
a(S'Jerome Simpson'
p1701
g26
tp1702
a(S'Rodney Smith'
p1703
g26
tp1704
a(S'Jarius Wright'
p1705
g26
tp1706
a(S'Rhett Ellison'
p1707
g39
tp1708
a(S'Kyle Rudolph'
p1709
g39
tp1710
a(S'Blair Walsh'
p1711
g46
tp1712
asg48
I00
sg49
F40.0
sg50
F0.0
sg51
F4.0
sg52
F0.0
sg53
F4.0
sg54
S'26-26'
p1713
sg56
I01
sg57
F237.0
sg58
F0.0
ssg161
(dp1714
g5
F48.0
sg6
F1.0
sg7
(lp1715
(S'Tony Romo'
p1716
g10
tp1717
a(S'Tyler Clutts'
p1718
g17
tp1719
a(S'DeMarco Murray'
p1720
g17
tp1721
a(S'Cole Beasley'
p1722
g26
tp1723
a(S'Dez Bryant'
p1724
g26
tp1725
a(S'Dwayne Harris'
p1726
g26
tp1727
a(S'Terrance Williams'
p1728
g26
tp1729
a(S'Gavin Escobar'
p1730
g39
tp1731
a(S'James Hanna'
p1732
g39
tp1733
a(S'Jason Witten'
p1734
g39
tp1735
a(S'Dan Bailey'
p1736
g46
tp1737
asg48
I01
sg49
F18.0
sg50
F358.0
sg51
F5.0
sg52
F2.0
sg53
F5.0
sg54
S'37-36'
p1738
sg56
I00
sg57
F134.0
sg58
F0.0
ssg201
(dp1739
g5
F35.0
sg6
F0.0
sg7
(lp1740
(S'Matt Ryan'
p1741
g10
tp1742
a(S'Patrick DiMarco'
p1743
g17
tp1744
a(S'Steven Jackson'
p1745
g17
tp1746
a(S'Jacquizz Rodgers'
p1747
g17
tp1748
a(S'Harry Douglas'
p1749
g26
tp1750
a(S'Roddy White'
p1751
g26
tp1752
a(S'Chase Coffman'
p1753
g39
tp1754
a(S'Levine Toilolo'
p1755
g39
tp1756
a(S'Matt Bryant'
p1757
g46
tp1758
asg48
I01
sg49
F22.0
sg50
F206.0
sg51
F1.0
sg52
F2.0
sg53
F0.0
sg54
S'22-21'
p1759
sg56
I01
sg57
F85.0
sg58
F0.0
ssg241
(dp1760
g5
F24.0
sg6
F2.0
sg7
(lp1761
(S'Jay Cutler'
p1762
g10
tp1763
a(S'Josh McCown'
p1764
g10
tp1765
a(S'Matt Forte'
p1766
g17
tp1767
a(S'Devin Hester'
p1768
g26
tp1769
a(S'Alshon Jeffery'
p1770
g26
tp1771
a(S'Brandon Marshall'
p1772
g26
tp1773
a(S'Eric Weems'
p1774
g26
tp1775
a(S'Marquess Wilson'
p1776
g26
tp1777
a(S'Martellus Bennett'
p1778
g39
tp1779
a(S'Robbie Gould'
p1780
g46
tp1781
asg48
I01
sg49
F22.0
sg50
F226.0
sg51
F0.0
sg52
F2.0
sg53
F0.0
sg54
S'33-28'
p1782
sg56
I00
sg57
F110.0
sg58
F0.0
ssg279
(dp1783
g5
F28.0
sg6
F2.0
sg7
(lp1784
(S'Bruce Gradkowski'
p1785
g10
tp1786
a(S'Landry Jones'
p1787
g10
tp1788
a(S'Ben Roethlisberger'
p1789
g10
tp1790
a(S"Le'Veon Bell"
p1791
g17
tp1792
a(S'Will Johnson'
p1793
g17
tp1794
a(S'Antonio Brown'
p1795
g26
tp1796
a(S'Jerricho Cotchery'
p1797
g26
tp1798
a(S'Emmanuel Sanders'
p1799
g26
tp1800
a(S'Markus Wheaton'
p1801
g26
tp1802
a(S'Matt Spaeth'
p1803
g39
tp1804
a(S'Shaun Suisham'
p1805
g46
tp1806
asg48
I00
sg49
F27.0
sg50
F167.0
sg51
F1.0
sg52
F2.0
sg53
F1.0
sg54
S'31-38'
p1807
sg56
I01
sg57
F137.0
sg58
F0.0
ssg317
(dp1808
g5
F39.0
sg6
F1.0
sg7
(lp1809
(S'Colin Kaepernick'
p1810
g10
tp1811
a(S'Colt McCoy'
p1812
g10
tp1813
a(S'Anthony Dixon'
p1814
g17
tp1815
a(S'Frank Gore'
p1816
g17
tp1817
a(S'Kendall Hunter'
p1818
g17
tp1819
a(S'Bruce Miller'
p1820
g17
tp1821
a(S'Will Tukuafu'
p1822
g17
tp1823
a(S'Anquan Boldin'
p1824
g26
tp1825
a(S'Marlon Moore'
p1826
g26
tp1827
a(S'Quinton Patton'
p1828
g26
tp1829
a(S'Kyle Williams'
p1830
g26
tp1831
a(S'Garrett Celek'
p1832
g39
tp1833
a(S'Vernon Davis'
p1834
g39
tp1835
a(S'Vance McDonald'
p1836
g39
tp1837
a(S'Phil Dawson'
p1838
g46
tp1839
asg48
I00
sg49
F34.0
sg50
F412.0
sg51
F3.0
sg52
F3.0
sg53
F2.0
sg54
S'28-34'
p1840
sg56
I00
sg57
F90.0
sg58
F0.0
ssg355
(dp1841
g5
F28.0
sg6
F1.0
sg7
(lp1842
(S'Andy Dalton'
p1843
g10
tp1844
a(S'Josh Johnson'
p1845
g10
tp1846
a(S'Giovani Bernard'
p1847
g17
tp1848
a(S'Rex Burkhead'
p1849
g17
tp1850
a(S'Cedric Peerman'
p1851
g17
tp1852
a(S'A.J. Green'
p1853
g26
tp1854
a(S'Marvin Jones'
p1855
g26
tp1856
a(S'Mohamed Sanu'
p1857
g26
tp1858
a(S'Brandon Tate'
p1859
g26
tp1860
a(S'Orson Charles'
p1861
g39
tp1862
a(S'Tyler Eifert'
p1863
g39
tp1864
a(S'Jermaine Gresham'
p1865
g39
tp1866
a(S'Alex Smith'
p1867
g39
tp1868
a(S'Mike Nugent'
p1869
g46
tp1870
asg48
I00
sg49
F14.0
sg50
F235.0
sg51
F1.0
sg52
F2.0
sg53
F0.0
sg54
S'30-34'
p1871
sg56
I00
sg57
F53.0
sg58
F0.0
ssg395
(dp1872
g5
F40.0
sg6
F0.0
sg7
(lp1873
(S'Kirk Cousins'
p1874
g10
tp1875
a(S'Robert Griffin III'
p1876
g10
tp1877
a(S'Roy Helu'
p1878
g17
tp1879
a(S'Alfred Morris'
p1880
g17
tp1881
a(S'Chris Thompson'
p1882
g17
tp1883
a(S'Darrel Young'
p1884
g17
tp1885
a(S'Pierre Garcon'
p1886
g26
tp1887
a(S'Leonard Hankerson'
p1888
g26
tp1889
a(S'Aldrick Robinson'
p1890
g26
tp1891
a(S'Niles Paul'
p1892
g39
tp1893
a(S'Logan Paulsen'
p1894
g39
tp1895
a(S'Jordan Reed'
p1896
g39
tp1897
a(S'Kai Forbath'
p1898
g46
tp1899
asg48
I01
sg49
F17.0
sg50
F320.0
sg51
F0.0
sg52
F3.0
sg53
F0.0
sg54
S'38-20'
p1900
sg56
I01
sg57
F108.0
sg58
F0.0
ssg431
(dp1901
g5
F40.0
sg6
F0.0
sg7
(lp1902
(S'Shaun Hill'
p1903
g10
tp1904
a(S'Kellen Moore'
p1905
g10
tp1906
a(S'Matthew Stafford'
p1907
g10
tp1908
a(S'Reggie Bush'
p1909
g17
tp1910
a(S'Theo Riddick'
p1911
g17
tp1912
a(S'Brandon Pettigrew'
p1913
g39
tp1914
asg48
I01
sg49
F14.0
sg50
F262.0
sg51
F0.0
sg52
F1.0
sg53
F0.0
sg54
S'22-9'
p1915
sg56
I01
sg57
F43.0
sg58
F0.0
ssg467
(dp1916
g5
F0.0
sg6
F0.0
sg7
(lp1917
sg48
(lp1918
sg49
F0.0
sg50
F0.0
sg51
F0.0
sg52
F0.0
sg53
F0.0
sg54
(lp1919
sg56
(lp1920
sg57
F0.0
sg58
F0.0
ssg503
(dp1921
g5
F42.0
sg6
F0.0
sg7
(lp1922
(S'Brandon Weeden'
p1923
g10
tp1924
a(S'Fozzy Whittaker'
p1925
g17
tp1926
a(S'Travis Benjamin'
p1927
g26
tp1928
a(S'Josh Gordon'
p1929
g26
tp1930
a(S'Greg Little'
p1931
g26
tp1932
a(S'Gary Barnidge'
p1933
g39
tp1934
a(S'Jordan Cameron'
p1935
g39
tp1936
a(S'MarQueis Gray'
p1937
g39
tp1938
asg48
I01
sg49
F8.0
sg50
F149.0
sg51
F0.0
sg52
F1.0
sg53
F0.0
sg54
S'31-13'
p1939
sg56
I01
sg57
F29.0
sg58
F0.0
ssg509
(dp1940
g5
F34.0
sg6
F0.0
sg7
(lp1941
(S'Joe Flacco'
p1942
g10
tp1943
a(S'Tyrod Taylor'
p1944
g10
tp1945
a(S'Kyle Juszczyk'
p1946
g17
tp1947
a(S'Bernard Pierce'
p1948
g17
tp1949
a(S'Torrey Smith'
p1950
g26
tp1951
a(S'Deonte Thompson'
p1952
g26
tp1953
a(S'Ed Dickson'
p1954
g39
tp1955
a(S'Justin Tucker'
p1956
g46
tp1957
asg48
I01
sg49
F7.0
sg50
F342.0
sg51
F1.0
sg52
F2.0
sg53
F1.0
sg54
S'19-17'
p1958
sg56
I00
sg57
F15.0
sg58
F0.0
ssg543
(dp1959
g5
F41.0
sg6
F1.0
sg7
(lp1960
(S'Jay Cutler'
p1961
g10
tp1962
a(S'Josh McCown'
p1963
g10
tp1964
a(S'Matt Forte'
p1965
g17
tp1966
a(S'Devin Hester'
p1967
g26
tp1968
a(S'Alshon Jeffery'
p1969
g26
tp1970
a(S'Brandon Marshall'
p1971
g26
tp1972
a(S'Eric Weems'
p1973
g26
tp1974
a(S'Marquess Wilson'
p1975
g26
tp1976
a(S'Martellus Bennett'
p1977
g39
tp1978
a(S'Robbie Gould'
p1979
g46
tp1980
asg48
I00
sg49
F26.0
sg50
F272.0
sg51
F2.0
sg52
F2.0
sg53
F2.0
sg54
S'20-27'
p1981
sg56
I01
sg57
F146.0
sg58
F0.0
ssg583
(dp1982
g5
F0.0
sg6
F2.0
sg7
(lp1983
(S'Matt Cassel'
p1984
g10
tp1985
a(S'Josh Freeman'
p1986
g10
tp1987
a(S'Joe Webb'
p1988
g10
tp1989
a(S'Matt Asiata'
p1990
g17
tp1991
a(S'Jerome Felton'
p1992
g17
tp1993
a(S'Toby Gerhart'
p1994
g17
tp1995
a(S'Adrian Peterson'
p1996
g17
tp1997
a(S'Greg Jennings'
p1998
g26
tp1999
a(S'Cordarrelle Patterson'
p2000
g26
tp2001
a(S'Jerome Simpson'
p2002
g26
tp2003
a(S'Rodney Smith'
p2004
g26
tp2005
a(S'Jarius Wright'
p2006
g26
tp2007
a(S'Rhett Ellison'
p2008
g39
tp2009
a(S'Kyle Rudolph'
p2010
g39
tp2011
a(S'Blair Walsh'
p2012
g46
tp2013
asg48
I01
sg49
F14.0
sg50
F0.0
sg51
F1.0
sg52
F0.0
sg53
F1.0
sg54
S'44-31'
p2014
sg56
I00
sg57
F73.0
sg58
F0.0
sssS'2012'
p2015
(dp2016
g3
(dp2017
g5
F39.0
sg6
F0.0
sg7
(lp2018
(S'Shaun Hill'
p2019
g10
tp2020
a(S'Kellen Moore'
p2021
g10
tp2022
a(S'Matthew Stafford'
p2023
g10
tp2024
a(S'Brandon Pettigrew'
p2025
g39
tp2026
asg48
I01
sg49
F2.0
sg50
F266.0
sg51
F0.0
sg52
F1.0
sg53
F0.0
sg54
S'24-20'
p2027
sg56
I00
sg57
F12.0
sg58
F0.0
ssg59
(dp2028
g5
F0.0
sg6
F0.0
sg7
(lp2029
sg48
(lp2030
sg49
F0.0
sg50
F0.0
sg51
F0.0
sg52
F0.0
sg53
F0.0
sg54
(lp2031
sg56
(lp2032
sg57
F0.0
sg58
F0.0
ssg91
(dp2033
g5
F0.0
sg6
F1.0
sg7
(lp2034
(S'Joe Webb'
p2035
g10
tp2036
a(S'Matt Asiata'
p2037
g17
tp2038
a(S'Jerome Felton'
p2039
g17
tp2040
a(S'Toby Gerhart'
p2041
g17
tp2042
a(S'Adrian Peterson'
p2043
g17
tp2044
a(S'Percy Harvin'
p2045
g26
tp2046
a(S'Jerome Simpson'
p2047
g26
tp2048
a(S'Jarius Wright'
p2049
g26
tp2050
a(S'Rhett Ellison'
p2051
g39
tp2052
a(S'Allen Reisner'
p2053
g39
tp2054
a(S'Kyle Rudolph'
p2055
g39
tp2056
a(S'Blair Walsh'
p2057
g46
tp2058
asg48
I01
sg49
F22.0
sg50
F0.0
sg51
F1.0
sg52
F0.0
sg53
F0.0
sg54
S'23-14'
p2059
sg56
I01
sg57
F212.0
sg58
F0.0
ssg125
(dp2060
g5
F30.0
sg6
F1.0
sg7
(lp2061
(S'Eli Manning'
p2062
g10
tp2063
a(S'Ahmad Bradshaw'
p2064
g17
tp2065
a(S'Victor Cruz'
p2066
g26
tp2067
a(S'Hakeem Nicks'
p2068
g26
tp2069
a(S'Rueben Randle'
p2070
g26
tp2071
a(S'Martellus Bennett'
p2072
g39
tp2073
a(S'Bear Pascoe'
p2074
g39
tp2075
asg48
I00
sg49
F12.0
sg50
F249.0
sg51
F0.0
sg52
F3.0
sg53
F0.0
sg54
S'10-38'
p2076
sg56
I00
sg57
F70.0
sg58
F0.0
ssg161
(dp2077
g5
F21.0
sg6
F0.0
sg7
(lp2078
(S'Jay Cutler'
p2079
g10
tp2080
a(S'Josh McCown'
p2081
g10
tp2082
a(S'Matt Forte'
p2083
g17
tp2084
a(S'Devin Hester'
p2085
g26
tp2086
a(S'Alshon Jeffery'
p2087
g26
tp2088
a(S'Brandon Marshall'
p2089
g26
tp2090
a(S'Eric Weems'
p2091
g26
tp2092
a(S'Kellen Davis'
p2093
g39
tp2094
a(S'Matt Spaeth'
p2095
g39
tp2096
asg48
I01
sg49
F21.0
sg50
F135.0
sg51
F0.0
sg52
F1.0
sg53
F0.0
sg54
S'21-13'
p2097
sg56
I00
sg57
F78.0
sg58
F0.0
ssg201
(dp2098
g5
F45.0
sg6
F1.0
sg7
(lp2099
(S'Shaun Hill'
p2100
g10
tp2101
a(S'Kellen Moore'
p2102
g10
tp2103
a(S'Matthew Stafford'
p2104
g10
tp2105
a(S'Brandon Pettigrew'
p2106
g39
tp2107
asg48
I01
sg49
F3.0
sg50
F264.0
sg51
F0.0
sg52
F1.0
sg53
F0.0
sg54
S'27-20'
p2108
sg56
I01
sg57
F9.0
sg58
F0.0
ssg241
(dp2109
g5
F0.0
sg6
F1.0
sg7
(lp2110
(S'Joe Webb'
p2111
g10
tp2112
a(S'Matt Asiata'
p2113
g17
tp2114
a(S'Jerome Felton'
p2115
g17
tp2116
a(S'Toby Gerhart'
p2117
g17
tp2118
a(S'Adrian Peterson'
p2119
g17
tp2120
a(S'Jerome Simpson'
p2121
g26
tp2122
a(S'Jarius Wright'
p2123
g26
tp2124
a(S'Rhett Ellison'
p2125
g39
tp2126
a(S'Kyle Rudolph'
p2127
g39
tp2128
a(S'Blair Walsh'
p2129
g46
tp2130
asg48
I00
sg49
F35.0
sg50
F0.0
sg51
F3.0
sg52
F0.0
sg53
F3.0
sg54
S'34-37'
p2131
sg56
I00
sg57
F201.0
sg58
F0.0
ssg279
(dp2132
g5
F0.0
sg6
F0.0
sg7
(lp2133
(S'Chris Johnson'
p2134
g17
tp2135
a(S'Kenny Britt'
p2136
g26
tp2137
a(S'Nate Washington'
p2138
g26
tp2139
a(S'Kendall Wright'
p2140
g26
tp2141
a(S'Craig Stevens'
p2142
g39
tp2143
asg48
I01
sg49
F11.0
sg50
F0.0
sg51
F0.0
sg52
F0.0
sg53
F0.0
sg54
S'55-7'
p2144
sg56
I01
sg57
F28.0
sg58
F0.0
ssg317
(dp2145
g5
F26.0
sg6
F1.0
sg7
(lp2146
(S'Colin Kaepernick'
p2147
g10
tp2148
a(S'Alex Smith'
p2149
g10
tp2150
a(S'Scott Tolzien'
p2151
g10
tp2152
a(S'Anthony Dixon'
p2153
g17
tp2154
a(S'Frank Gore'
p2155
g17
tp2156
a(S'Kendall Hunter'
p2157
g17
tp2158
a(S'Bruce Miller'
p2159
g17
tp2160
a(S'Will Tukuafu'
p2161
g17
tp2162
a(S'Michael Crabtree'
p2163
g26
tp2164
a(S'Ted Ginn'
p2165
g26
tp2166
a(S'Kyle Williams'
p2167
g26
tp2168
a(S'Garrett Celek'
p2169
g39
tp2170
a(S'Vernon Davis'
p2171
g39
tp2172
a(S'Delanie Walker'
p2173
g39
tp2174
asg48
I00
sg49
F32.0
sg50
F211.0
sg51
F0.0
sg52
F2.0
sg53
F0.0
sg54
S'22-30'
p2175
sg56
I01
sg57
F186.0
sg58
F0.0
ssg355
(dp2176
g5
F21.0
sg6
F0.0
sg7
(lp2177
(S'Matt Flynn'
p2178
g10
tp2179
a(S'Russell Wilson'
p2180
g10
tp2181
a(S'Robert Turbin'
p2182
g17
tp2183
a(S'Doug Baldwin'
p2184
g26
tp2185
a(S'Golden Tate'
p2186
g26
tp2187
a(S'Anthony McCoy'
p2188
g39
tp2189
a(S'Steven Hauschka'
p2190
g46
tp2191
asg48
I00
sg49
F3.0
sg50
F130.0
sg51
F0.0
sg52
F2.0
sg53
F0.0
sg54
S'12-14'
p2192
sg56
I00
sg57
F18.0
sg58
F0.0
ssg395
(dp2193
g5
F27.0
sg6
F0.0
sg7
(lp2194
(S'Jay Cutler'
p2195
g10
tp2196
a(S'Matt Forte'
p2197
g17
tp2198
a(S'Devin Hester'
p2199
g26
tp2200
a(S'Alshon Jeffery'
p2201
g26
tp2202
a(S'Brandon Marshall'
p2203
g26
tp2204
a(S'Eric Weems'
p2205
g26
tp2206
a(S'Kellen Davis'
p2207
g39
tp2208
a(S'Matt Spaeth'
p2209
g39
tp2210
a(S'Robbie Gould'
p2211
g46
tp2212
asg48
I01
sg49
F8.0
sg50
F126.0
sg51
F1.0
sg52
F1.0
sg53
F1.0
sg54
S'23-10'
p2213
sg56
I01
sg57
F43.0
sg58
F0.0
ssg431
(dp2214
g5
F55.0
sg6
F1.0
sg7
(lp2215
(S'Andrew Luck'
p2216
g10
tp2217
a(S'Drew Stanton'
p2218
g10
tp2219
a(S'Vick Ballard'
p2220
g17
tp2221
a(S'Donald Brown'
p2222
g17
tp2223
a(S'T.Y. Hilton'
p2224
g26
tp2225
a(S'Nathan Palmer'
p2226
g26
tp2227
a(S'Dwayne Allen'
p2228
g39
tp2229
a(S'Coby Fleener'
p2230
g39
tp2231
a(S'Dominique Jones'
p2232
g39
tp2233
a(S'Adam Vinatieri'
p2234
g46
tp2235
asg48
I00
sg49
F30.0
sg50
F362.0
sg51
F4.0
sg52
F2.0
sg53
F3.0
sg54
S'27-30'
p2236
sg56
I00
sg57
F119.0
sg58
F0.0
ssg467
(dp2237
g5
F54.0
sg6
F0.0
sg7
(lp2238
(S'Drew Brees'
p2239
g10
tp2240
a(S'Chase Daniel'
p2241
g10
tp2242
a(S'Travaris Cadet'
p2243
g17
tp2244
a(S'Mark Ingram'
p2245
g17
tp2246
a(S'Chris Ivory'
p2247
g17
tp2248
a(S'Darren Sproles'
p2249
g17
tp2250
a(S'Pierre Thomas'
p2251
g17
tp2252
a(S'Marques Colston'
p2253
g26
tp2254
a(S'Lance Moore'
p2255
g26
tp2256
a(S'Jimmy Graham'
p2257
g39
tp2258
asg48
I01
sg49
F19.0
sg50
F446.0
sg51
F0.0
sg52
F3.0
sg53
F0.0
sg54
S'28-27'
p2259
sg56
I01
sg57
F45.0
sg58
F0.0
ssg503
(dp2260
g5
F34.0
sg6
F1.0
sg7
(lp2261
(S'Sam Bradford'
p2262
g10
tp2263
a(S'Kellen Clemens'
p2264
g10
tp2265
a(S'Austin Davis'
p2266
g10
tp2267
a(S'Steven Jackson'
p2268
g17
tp2269
a(S'Isaiah Pead'
p2270
g17
tp2271
a(S'Daryl Richardson'
p2272
g17
tp2273
a(S'Danny Amendola'
p2274
g26
tp2275
a(S'Brandon Gibson'
p2276
g26
tp2277
a(S'Chris Givens'
p2278
g26
tp2279
a(S'Brian Quick'
p2280
g26
tp2281
a(S'Lance Kendricks'
p2282
g39
tp2283
a(S'Matthew Mulligan'
p2284
g39
tp2285
a(S'Greg Zuerlein'
p2286
g46
tp2287
asg48
I01
sg49
F22.0
sg50
F255.0
sg51
F2.0
sg52
F1.0
sg53
F2.0
sg54
S'30-20'
p2288
sg56
I00
sg57
F108.0
sg58
F0.0
ssg509
(dp2289
g5
F38.0
sg6
F2.0
sg7
(lp2290
(S'Matt Schaub'
p2291
g10
tp2292
a(S'T.J. Yates'
p2293
g10
tp2294
a(S'Tyler Clutts'
p2295
g17
tp2296
a(S'Justin Forsett'
p2297
g17
tp2298
a(S'Arian Foster'
p2299
g17
tp2300
a(S'Andre Johnson'
p2301
g26
tp2302
a(S'Keshawn Martin'
p2303
g26
tp2304
a(S'DeVier Posey'
p2305
g26
tp2306
a(S'Owen Daniels'
p2307
g39
tp2308
a(S'Garrett Graham'
p2309
g39
tp2310
a(S'Shayne Graham'
p2311
g46
tp2312
asg48
I01
sg49
F25.0
sg50
F255.0
sg51
F1.0
sg52
F0.0
sg53
F1.0
sg54
S'42-24'
p2313
sg56
I00
sg57
F76.0
sg58
F0.0
ssg543
(dp2314
g5
F0.0
sg6
F0.0
sg7
(lp2315
(S'Anthony Sherman'
p2316
g17
tp2317
a(S'LaRon Byrd'
p2318
g26
tp2319
a(S'Larry Fitzgerald'
p2320
g26
tp2321
a(S'Michael Floyd'
p2322
g26
tp2323
a(S'Andre Roberts'
p2324
g26
tp2325
a(S'Jim Dray'
p2326
g39
tp2327
a(S'Rob Housler'
p2328
g39
tp2329
asg48
I01
sg49
F0.0
sg50
F0.0
sg51
F0.0
sg52
F0.0
sg53
F0.0
sg54
S'31-17'
p2330
sg56
I01
sg57
F0.0
sg58
F0.0
ssg583
(dp2331
g5
F49.0
sg6
F0.0
sg7
(lp2332
(S'Blaine Gabbert'
p2333
g10
tp2334
a(S'Chad Henne'
p2335
g10
tp2336
a(S'Rashad Jennings'
p2337
g17
tp2338
a(S'Justin Blackmon'
p2339
g26
tp2340
a(S'Cecil Shorts'
p2341
g26
tp2342
a(S'Marcedes Lewis'
p2343
g39
tp2344
a(S'Josh Scobee'
p2345
g46
tp2346
asg48
I01
sg49
F18.0
sg50
F303.0
sg51
F3.0
sg52
F1.0
sg53
F3.0
sg54
S'24-15'
p2347
sg56
I01
sg57
F59.0
sg58
F0.0
sss.