(dp0
S'2015'
p1
(dp2
S'11'
p3
(dp4
S'PassAtt'
p5
F39.0
sS'RushTD'
p6
F1.0
sS'Players'
p7
(lp8
(S'Ryan Fitzpatrick'
p9
S'QB'
p10
tp11
a(S'Bryce Petty'
p12
g10
tp13
a(S'Geno Smith'
p14
g10
tp15
a(S'Tommy Bohanon'
p16
S'RB'
p17
tp18
a(S'Chris Ivory'
p19
g17
tp20
a(S'Bilal Powell'
p21
g17
tp22
a(S'Stevan Ridley'
p23
g17
tp24
a(S'Eric Decker'
p25
S'WR'
p26
tp27
a(S'Quincy Enunwa'
p28
g26
tp29
a(S'Jeremy Kerley'
p30
g26
tp31
a(S'Brandon Marshall'
p32
g26
tp33
a(S'Devin Smith'
p34
g26
tp35
a(S'Kenbrell Thompkins'
p36
g26
tp37
a(S'Jeff Cumberland'
p38
S'TE'
p39
tp40
a(S'Kellen Davis'
p41
g39
tp42
a(S'Randy Bullock'
p43
S'K'
p44
tp45
asS'Won'
p46
I01
sS'RushAtt'
p47
F21.0
sS'PassYds'
p48
F216.0
sS'FGAtt'
p49
F1.0
sS'PassTD'
p50
F1.0
sS'FGM'
p51
F1.0
sS'Score'
p52
S'24-17'
p53
sS'Home'
p54
I01
sS'RushYds'
p55
F70.0
sS'FGBlk'
p56
F0.0
ssS'10'
p57
(dp58
g5
F38.0
sg6
F0.0
sg7
(lp59
(S'Andy Dalton'
p60
g10
tp61
a(S'AJ McCarron'
p62
g10
tp63
a(S'Giovani Bernard'
p64
g17
tp65
a(S'Rex Burkhead'
p66
g17
tp67
a(S'Jeremy Hill'
p68
g17
tp69
a(S'Cedric Peerman'
p70
g17
tp71
a(S'Mario Alford'
p72
g26
tp73
a(S'A.J. Green'
p74
g26
tp75
a(S'Marvin Jones'
p76
g26
tp77
a(S'Mohamed Sanu'
p78
g26
tp79
a(S'Brandon Tate'
p80
g26
tp81
a(S'Tyler Eifert'
p82
g39
tp83
a(S'Ryan Hewitt'
p84
g39
tp85
a(S'Tyler Kroft'
p86
g39
tp87
a(S'C.J. Uzomah'
p88
g39
tp89
a(S'Mike Nugent'
p90
g44
tp91
asg46
I01
sg47
F20.0
sg48
F197.0
sg49
F2.0
sg50
F0.0
sg51
F2.0
sg52
S'10-6'
p92
sg54
I00
sg55
F74.0
sg56
F0.0
ssS'13'
p93
(dp94
g5
F21.0
sg6
F1.0
sg7
(lp95
(S'Josh Johnson'
p96
g10
tp97
a(S'EJ Manuel'
p98
g10
tp99
a(S'Tyrod Taylor'
p100
g10
tp101
a(S'Anthony Dixon'
p102
g17
tp103
a(S'Jerome Felton'
p104
g17
tp105
a(S'Mike Gillislee'
p106
g17
tp107
a(S'LeSean McCoy'
p108
g17
tp109
a(S'Karlos Williams'
p110
g17
tp111
a(S'Marcus Easley'
p112
g26
tp113
a(S'Chris Hogan'
p114
g26
tp115
a(S'Sammy Watkins'
p116
g26
tp117
a(S'Robert Woods'
p118
g26
tp119
a(S'Charles Clay'
p120
g39
tp121
a(S'Chris Gragg'
p122
g39
tp123
a(S'Matthew Mulligan'
p124
g39
tp125
a(S'Dan Carpenter'
p126
g44
tp127
a(S'Jordan Gay'
p128
g44
tp129
asg46
I00
sg47
F36.0
sg48
F211.0
sg49
F2.0
sg50
F3.0
sg51
F1.0
sg52
S'21-30'
p130
sg54
I00
sg55
F187.0
sg56
F0.0
ssS'12'
p131
(dp132
g5
F44.0
sg6
F0.0
sg7
(lp133
(S'Drew Brees'
p134
g10
tp135
a(S'Matt Flynn'
p136
g10
tp137
a(S'Garrett Grayson'
p138
g10
tp139
a(S'Dan LeFevour'
p140
g10
tp141
a(S'Tim Hightower'
p142
g17
tp143
a(S'Mark Ingram'
p144
g17
tp145
a(S'Marcus Murphy'
p146
g17
tp147
a(S'C.J. Spiller'
p148
g17
tp149
a(S'Brandon Coleman'
p150
g26
tp151
a(S'Marques Colston'
p152
g26
tp153
a(S'Brandin Cooks'
p154
g26
tp155
a(S'T.J. Graham'
p156
g26
tp157
a(S'Willie Snead'
p158
g26
tp159
a(S'James Wright'
p160
g26
tp161
a(S'Josh Hill'
p162
g39
tp163
a(S'Michael Hoomanawanui'
p164
g39
tp165
a(S'Benjamin Watson'
p166
g39
tp167
a(S'Kai Forbath'
p168
g44
tp169
asg46
I01
sg47
F10.0
sg48
F228.0
sg49
F2.0
sg50
F0.0
sg51
F2.0
sg52
S'24-6'
p170
sg54
I01
sg55
F50.0
sg56
F0.0
ssS'15'
p171
(dp172
g5
F0.0
sg6
F0.0
sg7
(lp173
(S'Andrew Luck'
p174
g10
tp175
a(S'Frank Gore'
p176
g17
tp177
a(S'Dan Herron'
p178
g17
tp179
a(S'Quan Bray'
p180
g26
tp181
a(S'Phillip Dorsett'
p182
g26
tp183
a(S'T.Y. Hilton'
p184
g26
tp185
a(S'Andre Johnson'
p186
g26
tp187
a(S'Donte Moncrief'
p188
g26
tp189
a(S'Griff Whalen'
p190
g26
tp191
a(S'Dwayne Allen'
p192
g39
tp193
a(S'Jack Doyle'
p194
g39
tp195
a(S'Coby Fleener'
p196
g39
tp197
a(S'Adam Vinatieri'
p198
g44
tp199
asg46
I01
sg47
F17.0
sg48
F0.0
sg49
F1.0
sg50
F0.0
sg51
F1.0
sg52
S'16-10'
p200
sg54
I00
sg55
F45.0
sg56
F0.0
ssS'14'
p201
(dp202
g5
F30.0
sg6
F1.0
sg7
(lp203
(S'Tom Brady'
p204
g10
tp205
a(S'Jimmy Garoppolo'
p206
g10
tp207
a(S'LeGarrette Blount'
p208
g17
tp209
a(S'Brandon Bolden'
p210
g17
tp211
a(S'James White'
p212
g17
tp213
a(S'Danny Amendola'
p214
g26
tp215
a(S'Julian Edelman'
p216
g26
tp217
a(S'Damaris Johnson'
p218
g26
tp219
a(S'Brandon LaFell'
p220
g26
tp221
a(S'Keshawn Martin'
p222
g26
tp223
a(S'Matthew Slater'
p224
g26
tp225
a(S'Scott Chandler'
p226
g39
tp227
a(S'Asante Cleveland'
p228
g39
tp229
a(S'Rob Gronkowski'
p230
g39
tp231
a(S'Michael Williams'
p232
g39
tp233
a(S'Stephen Gostkowski'
p234
g44
tp235
asg46
I00
sg47
F31.0
sg48
F226.0
sg49
F2.0
sg50
F2.0
sg51
F2.0
sg52
S'6-27'
p236
sg54
I01
sg55
F116.0
sg56
F0.0
ssS'17'
p237
(dp238
g5
F32.0
sg6
F0.0
sg7
(lp239
(S'Blake Bortles'
p240
g10
tp241
a(S'Chad Henne'
p242
g10
tp243
a(S'Joe Banyard'
p244
g17
tp245
a(S'Jonas Gray'
p246
g17
tp247
a(S'Denard Robinson'
p248
g17
tp249
a(S'T.J. Yeldon'
p250
g17
tp251
a(S'Rashad Greene'
p252
g26
tp253
a(S'Allen Hurns'
p254
g26
tp255
a(S'Marqise Lee'
p256
g26
tp257
a(S'Allen Robinson'
p258
g26
tp259
a(S'Neal Sterling'
p260
g26
tp261
a(S'Bryan Walters'
p262
g26
tp263
a(S'Clay Harbor'
p264
g39
tp265
a(S'Nic Jacobs'
p266
g39
tp267
a(S'Marcedes Lewis'
p268
g39
tp269
a(S'Julius Thomas'
p270
g39
tp271
a(S'Jason Myers'
p272
g44
tp273
asg46
I01
sg47
F14.0
sg48
F239.0
sg49
F2.0
sg50
F0.0
sg51
F2.0
sg52
S'30-6'
p274
sg54
I01
sg55
F32.0
sg56
F0.0
ssS'16'
p275
(dp276
g5
F51.0
sg6
F0.0
sg7
(lp277
(S'Marcus Mariota'
p278
g10
tp279
a(S'Zach Mettenberger'
p280
g10
tp281
a(S'Alex Tanney'
p282
g10
tp283
a(S'Antonio Andrews'
p284
g17
tp285
a(S'David Cobb'
p286
g17
tp287
a(S'Jalston Fowler'
p288
g17
tp289
a(S'Bishop Sankey'
p290
g17
tp291
a(S'Harry Douglas'
p292
g26
tp293
a(S'Dorial Green-Beckham'
p294
g26
tp295
a(S'Damaris Johnson'
p296
g26
tp297
a(S'Tre McBride'
p298
g26
tp299
a(S'Andrew Turzilli'
p300
g26
tp301
a(S'Kendall Wright'
p302
g26
tp303
a(S'Anthony Fasano'
p304
g39
tp305
a(S'Craig Stevens'
p306
g39
tp307
a(S'Phillip Supernaw'
p308
g39
tp309
a(S'Delanie Walker'
p310
g39
tp311
a(S'Ryan Succop'
p312
g44
tp313
asg46
I01
sg47
F11.0
sg48
F234.0
sg49
F0.0
sg50
F1.0
sg51
F0.0
sg52
S'34-6'
p314
sg54
I00
sg55
F30.0
sg56
F0.0
ssS'1'
p315
(dp316
g5
F33.0
sg6
F0.0
sg7
(lp317
(S'Chase Daniel'
p318
g10
tp319
a(S'Aaron Murray'
p320
g10
tp321
a(S'Alex Smith'
p322
g10
tp323
a(S'Jamaal Charles'
p324
g17
tp325
a(S'Knile Davis'
p326
g17
tp327
a(S'Anthony Sherman'
p328
g17
tp329
a(S'Charcandrick West'
p330
g17
tp331
a(S'Jason Avant'
p332
g26
tp333
a(S'Chris Conley'
p334
g26
tp335
a(S'Frankie Hammond'
p336
g26
tp337
a(S'Jeremy Maclin'
p338
g26
tp339
a(S"De'Anthony Thomas"
p340
g26
tp341
a(S'Albert Wilson'
p342
g26
tp343
a(S'Demetrius Harris'
p344
g39
tp345
a(S'Travis Kelce'
p346
g39
tp347
a(S"James O'Shaughnessy"
p348
g39
tp349
a(S'Brian Parker'
p350
g39
tp351
a(S'Cairo Santos'
p352
g44
tp353
asg46
I00
sg47
F32.0
sg48
F243.0
sg49
F3.0
sg50
F3.0
sg51
F2.0
sg52
S'20-27'
p354
sg54
I01
sg55
F97.0
sg56
F0.0
ssS'3'
p355
(dp356
g5
F36.0
sg6
F0.0
sg7
(lp357
(S'Mike Glennon'
p358
g10
tp359
a(S'Ryan Griffin'
p360
g10
tp361
a(S'Jameis Winston'
p362
g10
tp363
a(S'Mike James'
p364
g17
tp365
a(S'Jorvorskie Lane'
p366
g17
tp367
a(S'Doug Martin'
p368
g17
tp369
a(S'Bobby Rainey'
p370
g17
tp371
a(S'Charles Sims'
p372
g17
tp373
a(S'Mike Evans'
p374
g26
tp375
a(S'Adam Humphries'
p376
g26
tp377
a(S'Vincent Jackson'
p378
g26
tp379
a(S'Louis Murphy'
p380
g26
tp381
a(S'Russell Shepard'
p382
g26
tp383
a(S'Cameron Brate'
p384
g39
tp385
a(S'Brandon Myers'
p386
g39
tp387
a(S'Austin Seferian-Jenkins'
p388
g39
tp389
a(S'Luke Stocker'
p390
g39
tp391
asg46
I01
sg47
F20.0
sg48
F261.0
sg49
F0.0
sg50
F1.0
sg51
F0.0
sg52
S'19-9'
p392
sg54
I01
sg55
F57.0
sg56
F0.0
ssS'2'
p393
(dp394
g5
F37.0
sg6
F1.0
sg7
(lp395
(S'Derek Anderson'
p396
g10
tp397
a(S'Cam Newton'
p398
g10
tp399
a(S'Joe Webb'
p400
g10
tp401
a(S'Cameron Artis-Payne'
p402
g17
tp403
a(S'Jonathan Stewart'
p404
g17
tp405
a(S'Mike Tolbert'
p406
g17
tp407
a(S'Brandon Wegher'
p408
g17
tp409
a(S'Fozzy Whittaker'
p410
g17
tp411
a(S'Corey Brown'
p412
g26
tp413
a(S'Jerricho Cotchery'
p414
g26
tp415
a(S'Devin Funchess'
p416
g26
tp417
a(S'Ted Ginn'
p418
g26
tp419
a(S'Kevin Norwood'
p420
g26
tp421
a(S'Ed Dickson'
p422
g39
tp423
a(S'Greg Olsen'
p424
g39
tp425
a(S'Brandon Williams'
p426
g39
tp427
a(S'Graham Gano'
p428
g44
tp429
asg46
I00
sg47
F33.0
sg48
F195.0
sg49
F2.0
sg50
F2.0
sg51
F1.0
sg52
S'17-24'
p430
sg54
I00
sg55
F172.0
sg56
F1.0
ssS'5'
p431
(dp432
g5
F0.0
sg6
F1.0
sg7
(lp433
(S'Josh Johnson'
p434
g10
tp435
a(S'Andrew Luck'
p436
g10
tp437
a(S'Frank Gore'
p438
g17
tp439
a(S'Tyler Varga'
p440
g17
tp441
a(S'Phillip Dorsett'
p442
g26
tp443
a(S'T.Y. Hilton'
p444
g26
tp445
a(S'Andre Johnson'
p446
g26
tp447
a(S'Donte Moncrief'
p448
g26
tp449
a(S'Griff Whalen'
p450
g26
tp451
a(S'Dwayne Allen'
p452
g39
tp453
a(S'Jack Doyle'
p454
g39
tp455
a(S'Coby Fleener'
p456
g39
tp457
a(S'Adam Vinatieri'
p458
g44
tp459
asg46
I00
sg47
F22.0
sg48
F0.0
sg49
F2.0
sg50
F0.0
sg51
F2.0
sg52
S'20-27'
p460
sg54
I01
sg55
F98.0
sg56
F0.0
ssS'4'
p461
(dp462
g5
F27.0
sg6
F4.0
sg7
(lp463
(S'Sean Renfree'
p464
g10
tp465
a(S'Matt Ryan'
p466
g10
tp467
a(S'Tevin Coleman'
p468
g17
tp469
a(S'Patrick DiMarco'
p470
g17
tp471
a(S'Devont Freeman'
p472
g17
tp473
a(S'Terron Ward'
p474
g17
tp475
a(S'Leonard Hankerson'
p476
g26
tp477
a(S'Justin Hardy'
p478
g26
tp479
a(S'Devin Hester'
p480
g26
tp481
a(S'Julio Jones'
p482
g26
tp483
a(S'Eric Weems'
p484
g26
tp485
a(S'Roddy White'
p486
g26
tp487
a(S'Mike Williams'
p488
g26
tp489
a(S'Nick Williams'
p490
g26
tp491
a(S'Jacob Tamme'
p492
g39
tp493
a(S'Levine Toilolo'
p494
g39
tp495
a(S'Matt Bryant'
p496
g44
tp497
asg46
I00
sg47
F35.0
sg48
F256.0
sg49
F0.0
sg50
F1.0
sg51
F0.0
sg52
S'21-48'
p498
sg54
I00
sg55
F135.0
sg56
F0.0
ssS'7'
p499
(dp500
g5
F20.0
sg6
F1.0
sg7
(lp501
(S'Matt Moore'
p502
g10
tp503
a(S'Ryan Tannehill'
p504
g10
tp505
a(S'Jonas Gray'
p506
g17
tp507
a(S'Lamar Miller'
p508
g17
tp509
a(S'Damien Williams'
p510
g17
tp511
a(S'Matt Hazel'
p512
g26
tp513
a(S'Greg Jennings'
p514
g26
tp515
a(S'Jarvis Landry'
p516
g26
tp517
a(S'Rishard Matthews'
p518
g26
tp519
a(S'DeVante Parker'
p520
g26
tp521
a(S'Kenny Stills'
p522
g26
tp523
a(S'Jordan Cameron'
p524
g39
tp525
a(S'Dion Sims'
p526
g39
tp527
a(S'Jake Stoneburner'
p528
g39
tp529
a(S'Brandon Williams'
p530
g39
tp531
a(S'Andrew Franks'
p532
g44
tp533
asg46
I00
sg47
F35.0
sg48
F296.0
sg49
F1.0
sg50
F4.0
sg51
F1.0
sg52
S'26-44'
p534
sg54
I00
sg55
F248.0
sg56
F0.0
ssS'6'
p535
(dp536
g5
F53.0
sg6
F0.0
sg7
(lp537
(S'Blake Bortles'
p538
g10
tp539
a(S'Chad Henne'
p540
g10
tp541
a(S'Toby Gerhart'
p542
g17
tp543
a(S'Corey Grant'
p544
g17
tp545
a(S'Bernard Pierce'
p546
g17
tp547
a(S'Denard Robinson'
p548
g17
tp549
a(S'T.J. Yeldon'
p550
g17
tp551
a(S'Allen Hurns'
p552
g26
tp553
a(S'Marqise Lee'
p554
g26
tp555
a(S'Allen Robinson'
p556
g26
tp557
a(S'Bryan Walters'
p558
g26
tp559
a(S'Tony Washington'
p560
g26
tp561
a(S'Clay Harbor'
p562
g39
tp563
a(S'Nic Jacobs'
p564
g39
tp565
a(S'Marcedes Lewis'
p566
g39
tp567
a(S'Julius Thomas'
p568
g39
tp569
a(S'Jason Myers'
p570
g44
tp571
asg46
I01
sg47
F21.0
sg48
F331.0
sg49
F0.0
sg50
F3.0
sg51
F0.0
sg52
S'31-20'
p572
sg54
I00
sg55
F83.0
sg56
F0.0
ssS'9'
p573
(dp574
g5
F0.0
sg6
F0.0
sg7
(lp575
sg46
(lp576
sg47
F0.0
sg48
F0.0
sg49
F0.0
sg50
F0.0
sg51
F0.0
sg52
(lp577
sg54
(lp578
sg55
F0.0
sg56
F0.0
ssS'8'
p579
(dp580
g5
F31.0
sg6
F0.0
sg7
(lp581
(S'Marcus Mariota'
p582
g10
tp583
a(S'Zach Mettenberger'
p584
g10
tp585
a(S'Antonio Andrews'
p586
g17
tp587
a(S'Jalston Fowler'
p588
g17
tp589
a(S'Dexter McCluster'
p590
g17
tp591
a(S'Bishop Sankey'
p592
g17
tp593
a(S'Terrance West'
p594
g17
tp595
a(S'Harry Douglas'
p596
g26
tp597
a(S'Dorial Green-Beckham'
p598
g26
tp599
a(S'Justin Hunter'
p600
g26
tp601
a(S'Rico Richardson'
p602
g26
tp603
a(S'Kendall Wright'
p604
g26
tp605
a(S'Anthony Fasano'
p606
g39
tp607
a(S'Craig Stevens'
p608
g39
tp609
a(S'Phillip Supernaw'
p610
g39
tp611
a(S'Delanie Walker'
p612
g39
tp613
a(S'Ryan Succop'
p614
g44
tp615
asg46
I01
sg47
F20.0
sg48
F171.0
sg49
F2.0
sg50
F0.0
sg51
F2.0
sg52
S'20-6'
p616
sg54
I01
sg55
F86.0
sg56
F0.0
sssS'2014'
p617
(dp618
g3
(dp619
g5
F50.0
sg6
F0.0
sg7
(lp620
(S'Brian Hoyer'
p621
g10
tp622
a(S'Johnny Manziel'
p623
g10
tp624
a(S'Isaiah Crowell'
p625
g17
tp626
a(S'Terrance West'
p627
g17
tp628
a(S'Glenn Winston'
p629
g17
tp630
a(S'Travis Benjamin'
p631
g26
tp632
a(S'Taylor Gabriel'
p633
g26
tp634
a(S'Andrew Hawkins'
p635
g26
tp636
a(S'Marlon Moore'
p637
g26
tp638
a(S'Rodney Smith'
p639
g26
tp640
a(S'Gary Barnidge'
p641
g39
tp642
a(S'Jordan Cameron'
p643
g39
tp644
a(S'Jim Dray'
p645
g39
tp646
asg46
I01
sg47
F21.0
sg48
F330.0
sg49
F0.0
sg50
F1.0
sg51
F0.0
sg52
S'23-7'
p647
sg54
I00
sg55
F74.0
sg56
F0.0
ssg57
(dp648
g5
F0.0
sg6
F0.0
sg7
(lp649
sg46
(lp650
sg47
F0.0
sg48
F0.0
sg49
F0.0
sg50
F0.0
sg51
F0.0
sg52
(lp651
sg54
(lp652
sg55
F0.0
sg56
F0.0
ssg93
(dp653
g5
F19.0
sg6
F0.0
sg7
(lp654
(S'Zach Mettenberger'
p655
g10
tp656
a(S'Antonio Andrews'
p657
g17
tp658
a(S'Dexter McCluster'
p659
g17
tp660
a(S'Bishop Sankey'
p661
g17
tp662
a(S'Justin Hunter'
p663
g26
tp664
a(S'Nate Washington'
p665
g26
tp666
a(S'Kendall Wright'
p667
g26
tp668
a(S'Chase Coffman'
p669
g39
tp670
a(S'Delanie Walker'
p671
g39
tp672
a(S'Ryan Succop'
p673
g44
tp674
asg46
I01
sg47
F20.0
sg48
F184.0
sg49
F0.0
sg50
F1.0
sg51
F0.0
sg52
S'45-21'
p675
sg54
I01
sg55
F83.0
sg56
F0.0
ssg131
(dp676
g5
F35.0
sg6
F1.0
sg7
(lp677
(S'Andy Dalton'
p678
g10
tp679
a(S'Dan LeFevour'
p680
g10
tp681
a(S'Giovani Bernard'
p682
g17
tp683
a(S'Rex Burkhead'
p684
g17
tp685
a(S'Jeremy Hill'
p686
g17
tp687
a(S'Cedric Peerman'
p688
g17
tp689
a(S'A.J. Green'
p690
g26
tp691
a(S'Greg Little'
p692
g26
tp693
a(S'Mohamed Sanu'
p694
g26
tp695
a(S'Brandon Tate'
p696
g26
tp697
a(S'James Wright'
p698
g26
tp699
a(S'Jermaine Gresham'
p700
g39
tp701
a(S'Ryan Hewitt'
p702
g39
tp703
a(S'Mike Nugent'
p704
g44
tp705
asg46
I00
sg47
F43.0
sg48
F233.0
sg49
F2.0
sg50
F1.0
sg51
F2.0
sg52
S'13-22'
p706
sg54
I01
sg55
F139.0
sg56
F0.0
ssg171
(dp707
g5
F34.0
sg6
F0.0
sg7
(lp708
(S'Andrew Luck'
p709
g10
tp710
a(S'Dan Herron'
p711
g17
tp712
a(S'Trent Richardson'
p713
g17
tp714
a(S'T.Y. Hilton'
p715
g26
tp716
a(S'Donte Moncrief'
p717
g26
tp718
a(S'Hakeem Nicks'
p719
g26
tp720
a(S'Dwayne Allen'
p721
g39
tp722
a(S'Jack Doyle'
p723
g39
tp724
a(S'Coby Fleener'
p725
g39
tp726
a(S'Adam Vinatieri'
p727
g44
tp728
asg46
I00
sg47
F28.0
sg48
F187.0
sg49
F1.0
sg50
F2.0
sg51
F1.0
sg52
S'10-17'
p729
sg54
I00
sg55
F110.0
sg56
F0.0
ssg201
(dp730
g5
F39.0
sg6
F0.0
sg7
(lp731
(S'Blake Bortles'
p732
g10
tp733
a(S'Chad Henne'
p734
g10
tp735
a(S'Toby Gerhart'
p736
g17
tp737
a(S'Storm Johnson'
p738
g17
tp739
a(S'Denard Robinson'
p740
g17
tp741
a(S'Jordan Todman'
p742
g17
tp743
a(S'Allen Hurns'
p744
g26
tp745
a(S'Marqise Lee'
p746
g26
tp747
a(S'Cecil Shorts'
p748
g26
tp749
a(S'Clay Harbor'
p750
g39
tp751
a(S'Nic Jacobs'
p752
g39
tp753
a(S'Marcedes Lewis'
p754
g39
tp755
a(S'Josh Scobee'
p756
g44
tp757
asg46
I01
sg47
F22.0
sg48
F205.0
sg49
F2.0
sg50
F1.0
sg51
F2.0
sg52
S'27-13'
p758
sg54
I00
sg55
F74.0
sg56
F0.0
ssg237
(dp759
g5
F33.0
sg6
F0.0
sg7
(lp760
(S'Blake Bortles'
p761
g10
tp762
a(S'Chad Henne'
p763
g10
tp764
a(S'Stephen Morris'
p765
g10
tp766
a(S'Toby Gerhart'
p767
g17
tp768
a(S'Storm Johnson'
p769
g17
tp770
a(S'Jordan Todman'
p771
g17
tp772
a(S'Allen Hurns'
p773
g26
tp774
a(S'Marqise Lee'
p775
g26
tp776
a(S'Cecil Shorts'
p777
g26
tp778
a(S'Clay Harbor'
p779
g39
tp780
a(S'Nic Jacobs'
p781
g39
tp782
a(S'Marcedes Lewis'
p783
g39
tp784
a(S'Josh Scobee'
p785
g44
tp786
asg46
I01
sg47
F14.0
sg48
F117.0
sg49
F2.0
sg50
F0.0
sg51
F1.0
sg52
S'23-17'
p787
sg54
I01
sg55
F121.0
sg56
F0.0
ssg275
(dp788
g5
F50.0
sg6
F0.0
sg7
(lp789
(S'Joe Flacco'
p790
g10
tp791
a(S'Tyrod Taylor'
p792
g10
tp793
a(S'Justin Forsett'
p794
g17
tp795
a(S'Kyle Juszczyk'
p796
g17
tp797
a(S'Bernard Pierce'
p798
g17
tp799
a(S'Fitzgerald Toussaint'
p800
g17
tp801
a(S'Kamar Aiken'
p802
g26
tp803
a(S'Michael Campanaro'
p804
g26
tp805
a(S'Torrey Smith'
p806
g26
tp807
a(S'Steve Smith'
p808
g26
tp809
a(S'Owen Daniels'
p810
g39
tp811
a(S'Crockett Gillmore'
p812
g39
tp813
a(S'Phillip Supernaw'
p814
g39
tp815
a(S'Justin Tucker'
p816
g44
tp817
asg46
I01
sg47
F16.0
sg48
F195.0
sg49
F0.0
sg50
F2.0
sg51
F0.0
sg52
S'25-13'
p818
sg54
I01
sg55
F33.0
sg56
F0.0
ssg315
(dp819
g5
F37.0
sg6
F1.0
sg7
(lp820
(S'Kirk Cousins'
p821
g10
tp822
a(S'Robert Griffin III'
p823
g10
tp824
a(S'Colt McCoy'
p825
g10
tp826
a(S'Roy Helu'
p827
g17
tp828
a(S'Alfred Morris'
p829
g17
tp830
a(S'Silas Redd'
p831
g17
tp832
a(S'Darrel Young'
p833
g17
tp834
a(S'Pierre Garcon'
p835
g26
tp836
a(S'Ryan Grant'
p837
g26
tp838
a(S'DeSean Jackson'
p839
g26
tp840
a(S'Andre Roberts'
p841
g26
tp842
a(S'Aldrick Robinson'
p843
g26
tp844
a(S'Niles Paul'
p845
g39
tp846
a(S'Logan Paulsen'
p847
g39
tp848
a(S'Jordan Reed'
p849
g39
tp850
a(S'Kai Forbath'
p851
g44
tp852
asg46
I01
sg47
F23.0
sg48
F267.0
sg49
F0.0
sg50
F0.0
sg51
F0.0
sg52
S'17-6'
p853
sg54
I01
sg55
F131.0
sg56
F0.0
ssg355
(dp854
g5
F28.0
sg6
F1.0
sg7
(lp855
(S'Eli Manning'
p856
g10
tp857
a(S'Ryan Nassib'
p858
g10
tp859
a(S'Rashad Jennings'
p860
g17
tp861
a(S'Andre Williams'
p862
g17
tp863
a(S'Odell Beckham'
p864
g26
tp865
a(S'Victor Cruz'
p866
g26
tp867
a(S'Rueben Randle'
p868
g26
tp869
a(S'Larry Donnell'
p870
g39
tp871
a(S'Daniel Fells'
p872
g39
tp873
a(S'Josh Brown'
p874
g44
tp875
asg46
I00
sg47
F41.0
sg48
F234.0
sg49
F3.0
sg50
F2.0
sg51
F3.0
sg52
S'17-30'
p876
sg54
I00
sg55
F193.0
sg56
F0.0
ssg393
(dp877
g5
F42.0
sg6
F1.0
sg7
(lp878
(S'Derek Carr'
p879
g10
tp880
a(S'Matt McGloin'
p881
g10
tp882
a(S'Matt Schaub'
p883
g10
tp884
a(S'Darren McFadden'
p885
g17
tp886
a(S'Latavius Murray'
p887
g17
tp888
a(S'Jamize Olawale'
p889
g17
tp890
a(S'Marcel Reece'
p891
g17
tp892
a(S'Brice Butler'
p893
g26
tp894
a(S'Andre Holmes'
p895
g26
tp896
a(S'James Jones'
p897
g26
tp898
a(S'Rod Streater'
p899
g26
tp900
a(S'Brian Leonhardt'
p901
g39
tp902
a(S'Mychal Rivera'
p903
g39
tp904
a(S'Sebastian Janikowski'
p905
g44
tp906
asg46
I01
sg47
F17.0
sg48
F263.0
sg49
F0.0
sg50
F1.0
sg51
F0.0
sg52
S'30-14'
p907
sg54
I00
sg55
F101.0
sg56
F0.0
ssg431
(dp908
g5
F41.0
sg6
F0.0
sg7
(lp909
(S'Tony Romo'
p910
g10
tp911
a(S'Dustin Vaughan'
p912
g10
tp913
a(S'Brandon Weeden'
p914
g10
tp915
a(S'Tyler Clutts'
p916
g17
tp917
a(S'Lance Dunbar'
p918
g17
tp919
a(S'DeMarco Murray'
p920
g17
tp921
a(S'Cole Beasley'
p922
g26
tp923
a(S'Dez Bryant'
p924
g26
tp925
a(S'Dwayne Harris'
p926
g26
tp927
a(S'Devin Street'
p928
g26
tp929
a(S'Terrance Williams'
p930
g26
tp931
a(S'Gavin Escobar'
p932
g39
tp933
a(S'James Hanna'
p934
g39
tp935
a(S'Jason Witten'
p936
g39
tp937
a(S'Dan Bailey'
p938
g44
tp939
asg46
I00
sg47
F31.0
sg48
F324.0
sg49
F3.0
sg50
F2.0
sg51
F2.0
sg52
S'17-20'
p940
sg54
I00
sg55
F136.0
sg56
F0.0
ssg461
(dp941
g5
F44.0
sg6
F0.0
sg7
(lp942
(S'EJ Manuel'
p943
g10
tp944
a(S'Bryce Brown'
p945
g17
tp946
a(S'Anthony Dixon'
p947
g17
tp948
a(S'Fred Jackson'
p949
g17
tp950
a(S'C.J. Spiller'
p951
g17
tp952
a(S'Marcus Easley'
p953
g26
tp954
a(S'Marquise Goodwin'
p955
g26
tp956
a(S'Chris Hogan'
p957
g26
tp958
a(S'Sammy Watkins'
p959
g26
tp960
a(S'Mike Williams'
p961
g26
tp962
a(S'Robert Woods'
p963
g26
tp964
a(S'Scott Chandler'
p965
g39
tp966
a(S'Chris Gragg'
p967
g39
tp968
a(S'Lee Smith'
p969
g39
tp970
a(S'Dan Carpenter'
p971
g44
tp972
a(S'Jordan Gay'
p973
g44
tp974
asg46
I01
sg47
F23.0
sg48
F225.0
sg49
F1.0
sg50
F2.0
sg51
F1.0
sg52
S'23-17'
p975
sg54
I01
sg55
F96.0
sg56
F0.0
ssg499
(dp976
g5
F33.0
sg6
F0.0
sg7
(lp977
(S'Bruce Gradkowski'
p978
g10
tp979
a(S'Landry Jones'
p980
g10
tp981
a(S'Ben Roethlisberger'
p982
g10
tp983
a(S'Dri Archer'
p984
g17
tp985
a(S"Le'Veon Bell"
p986
g17
tp987
a(S'LeGarrette Blount'
p988
g17
tp989
a(S'Will Johnson'
p990
g17
tp991
a(S'Antonio Brown'
p992
g26
tp993
a(S'Martavis Bryant'
p994
g26
tp995
a(S'Darrius Heyward-Bey'
p996
g26
tp997
a(S'Lance Moore'
p998
g26
tp999
a(S'Markus Wheaton'
p1000
g26
tp1001
a(S'Matt Spaeth'
p1002
g39
tp1003
a(S'Shaun Suisham'
p1004
g44
tp1005
asg46
I00
sg47
F25.0
sg48
F265.0
sg49
F3.0
sg50
F2.0
sg51
F3.0
sg52
S'23-30'
p1006
sg54
I00
sg55
F76.0
sg56
F0.0
ssg535
(dp1007
g5
F44.0
sg6
F1.0
sg7
(lp1008
(S'Andrew Luck'
p1009
g10
tp1010
a(S'Ahmad Bradshaw'
p1011
g17
tp1012
a(S'Dan Herron'
p1013
g17
tp1014
a(S'Trent Richardson'
p1015
g17
tp1016
a(S'T.Y. Hilton'
p1017
g26
tp1018
a(S'Donte Moncrief'
p1019
g26
tp1020
a(S'Hakeem Nicks'
p1021
g26
tp1022
a(S'Griff Whalen'
p1023
g26
tp1024
a(S'Dwayne Allen'
p1025
g39
tp1026
a(S'Jack Doyle'
p1027
g39
tp1028
a(S'Coby Fleener'
p1029
g39
tp1030
a(S'Adam Vinatieri'
p1031
g44
tp1032
asg46
I00
sg47
F35.0
sg48
F370.0
sg49
F2.0
sg50
F3.0
sg51
F2.0
sg52
S'28-33'
p1033
sg54
I01
sg55
F93.0
sg56
F0.0
ssg573
(dp1034
g5
F34.0
sg6
F1.0
sg7
(lp1035
(S'Matt Barkley'
p1036
g10
tp1037
a(S'Nick Foles'
p1038
g10
tp1039
a(S'Mark Sanchez'
p1040
g10
tp1041
a(S'LeSean McCoy'
p1042
g17
tp1043
a(S'Chris Polk'
p1044
g17
tp1045
a(S'Darren Sproles'
p1046
g17
tp1047
a(S'Josh Huff'
p1048
g26
tp1049
a(S'Jeremy Maclin'
p1050
g26
tp1051
a(S'Jordan Matthews'
p1052
g26
tp1053
a(S'Trey Burton'
p1054
g39
tp1055
a(S'Brent Celek'
p1056
g39
tp1057
a(S'Zach Ertz'
p1058
g39
tp1059
a(S'Cody Parkey'
p1060
g44
tp1061
asg46
I00
sg47
F41.0
sg48
F326.0
sg49
F1.0
sg50
F3.0
sg51
F1.0
sg52
S'21-31'
p1062
sg54
I01
sg55
F190.0
sg56
F0.0
ssg579
(dp1063
g5
F41.0
sg6
F0.0
sg7
(lp1064
(S'Zach Mettenberger'
p1065
g10
tp1066
a(S'Antonio Andrews'
p1067
g17
tp1068
a(S'Dexter McCluster'
p1069
g17
tp1070
a(S'Bishop Sankey'
p1071
g17
tp1072
a(S'Justin Hunter'
p1073
g26
tp1074
a(S'Nate Washington'
p1075
g26
tp1076
a(S'Kendall Wright'
p1077
g26
tp1078
a(S'Chase Coffman'
p1079
g39
tp1080
a(S'Richard Gordon'
p1081
g39
tp1082
a(S'Delanie Walker'
p1083
g39
tp1084
a(S'Ryan Succop'
p1085
g44
tp1086
asg46
I01
sg47
F12.0
sg48
F299.0
sg49
F1.0
sg50
F2.0
sg51
F1.0
sg52
S'30-16'
p1087
sg54
I00
sg55
F35.0
sg56
F0.0
sssS'2011'
p1088
(dp1089
g3
(dp1090
g5
F0.0
sg6
F0.0
sg7
(lp1091
sg46
(lp1092
sg47
F0.0
sg48
F0.0
sg49
F0.0
sg50
F0.0
sg51
F0.0
sg52
(lp1093
sg54
(lp1094
sg55
F0.0
sg56
F0.0
ssg57
(dp1095
g5
F35.0
sg6
F0.0
sg7
(lp1096
(S'Josh Freeman'
p1097
g10
tp1098
a(S'Josh Johnson'
p1099
g10
tp1100
a(S'LeGarrette Blount'
p1101
g17
tp1102
a(S'Arrelious Benn'
p1103
g26
tp1104
a(S'Mike Williams'
p1105
g26
tp1106
a(S'Luke Stocker'
p1107
g39
tp1108
a(S'Connor Barth'
p1109
g44
tp1110
asg46
I01
sg47
F14.0
sg48
F170.0
sg49
F1.0
sg50
F1.0
sg51
F1.0
sg52
S'37-9'
p1111
sg54
I00
sg55
F59.0
sg56
F0.0
ssg93
(dp1112
g5
F47.0
sg6
F0.0
sg7
(lp1113
(S'Matt Ryan'
p1114
g10
tp1115
a(S'Jacquizz Rodgers'
p1116
g17
tp1117
a(S'Harry Douglas'
p1118
g26
tp1119
a(S'Julio Jones'
p1120
g26
tp1121
a(S'Eric Weems'
p1122
g26
tp1123
a(S'Roddy White'
p1124
g26
tp1125
a(S'Matt Bryant'
p1126
g44
tp1127
asg46
I01
sg47
F2.0
sg48
F267.0
sg49
F1.0
sg50
F1.0
sg51
F1.0
sg52
S'17-10'
p1128
sg54
I01
sg55
F10.0
sg56
F0.0
ssg131
(dp1129
g5
F40.0
sg6
F0.0
sg7
(lp1130
(S'Blaine Gabbert'
p1131
g10
tp1132
a(S'Dan LeFevour'
p1133
g10
tp1134
a(S'Luke McCown'
p1135
g10
tp1136
a(S'Cecil Shorts'
p1137
g26
tp1138
a(S'Marcedes Lewis'
p1139
g39
tp1140
a(S'Josh Scobee'
p1141
g44
tp1142
asg46
I01
sg47
F2.0
sg48
F198.0
sg49
F3.0
sg50
F0.0
sg51
F2.0
sg52
S'20-13'
p1143
sg54
I00
sg55
F10.0
sg56
F0.0
ssg171
(dp1144
g5
F23.0
sg6
F1.0
sg7
(lp1145
(S'Derek Anderson'
p1146
g10
tp1147
a(S'Jimmy Clausen'
p1148
g10
tp1149
a(S'Cam Newton'
p1150
g10
tp1151
a(S'Jonathan Stewart'
p1152
g17
tp1153
a(S'DeAngelo Williams'
p1154
g17
tp1155
a(S'Seyi Ajirotutu'
p1156
g26
tp1157
a(S'Brandon LaFell'
p1158
g26
tp1159
a(S'Steve Smith'
p1160
g26
tp1161
a(S'Greg Olsen'
p1162
g39
tp1163
asg46
I00
sg47
F33.0
sg48
F149.0
sg49
F0.0
sg50
F2.0
sg51
F0.0
sg52
S'13-28'
p1164
sg54
I01
sg55
F159.0
sg56
F0.0
ssg201
(dp1165
g5
F28.0
sg6
F0.0
sg7
(lp1166
(S'Andy Dalton'
p1167
g10
tp1168
a(S'Bruce Gradkowski'
p1169
g10
tp1170
a(S'Cedric Peerman'
p1171
g17
tp1172
a(S'Andre Caldwell'
p1173
g26
tp1174
a(S'A.J. Green'
p1175
g26
tp1176
a(S'Andrew Hawkins'
p1177
g26
tp1178
a(S'Jerome Simpson'
p1179
g26
tp1180
a(S'Brandon Tate'
p1181
g26
tp1182
a(S'Jermaine Gresham'
p1183
g39
tp1184
a(S'Mike Nugent'
p1185
g44
tp1186
asg46
I01
sg47
F2.0
sg48
F189.0
sg49
F4.0
sg50
F1.0
sg51
F4.0
sg52
S'20-19'
p1187
sg54
I00
sg55
F6.0
sg56
F0.0
ssg237
(dp1188
g5
F0.0
sg6
F0.0
sg7
(lp1189
(S'Chris Johnson'
p1190
g17
tp1191
a(S'Marc Mariani'
p1192
g26
tp1193
a(S'Nate Washington'
p1194
g26
tp1195
a(S'Jared Cook'
p1196
g39
tp1197
a(S'Craig Stevens'
p1198
g39
tp1199
asg46
I00
sg47
F15.0
sg48
F0.0
sg49
F0.0
sg50
F0.0
sg51
F0.0
sg52
S'22-23'
p1200
sg54
I01
sg55
F61.0
sg56
F0.0
ssg275
(dp1201
g5
F41.0
sg6
F0.0
sg7
(lp1202
(S'Dan Orlovsky'
p1203
g10
tp1204
a(S'Donald Brown'
p1205
g17
tp1206
a(S'Jerome Felton'
p1207
g17
tp1208
a(S'Pierre Garcon'
p1209
g26
tp1210
a(S'Jacob Tamme'
p1211
g39
tp1212
a(S'Adam Vinatieri'
p1213
g44
tp1214
asg46
I00
sg47
F12.0
sg48
F244.0
sg49
F5.0
sg50
F1.0
sg51
F4.0
sg52
S'16-19'
p1215
sg54
I00
sg55
F37.0
sg56
F0.0
ssg315
(dp1216
g5
F0.0
sg6
F0.0
sg7
(lp1217
(S'Donald Brown'
p1218
g17
tp1219
a(S'Pierre Garcon'
p1220
g26
tp1221
a(S'Jacob Tamme'
p1222
g39
tp1223
a(S'Adam Vinatieri'
p1224
g44
tp1225
asg46
I01
sg47
F0.0
sg48
F0.0
sg49
F1.0
sg50
F0.0
sg51
F0.0
sg52
S'34-7'
p1226
sg54
I01
sg55
F0.0
sg56
F0.0
ssg355
(dp1227
g5
F44.0
sg6
F2.0
sg7
(lp1228
(S'Drew Brees'
p1229
g10
tp1230
a(S'Chase Daniel'
p1231
g10
tp1232
a(S'Mark Ingram'
p1233
g17
tp1234
a(S'Darren Sproles'
p1235
g17
tp1236
a(S'Pierre Thomas'
p1237
g17
tp1238
a(S'Marques Colston'
p1239
g26
tp1240
a(S'Lance Moore'
p1241
g26
tp1242
a(S'Jimmy Graham'
p1243
g39
tp1244
asg46
I00
sg47
F22.0
sg48
F370.0
sg49
F0.0
sg50
F3.0
sg51
F0.0
sg52
S'33-40'
p1245
sg54
I00
sg55
F100.0
sg56
F0.0
ssg393
(dp1246
g5
F30.0
sg6
F0.0
sg7
(lp1247
(S'Chad Henne'
p1248
g10
tp1249
a(S'Matt Moore'
p1250
g10
tp1251
a(S'Reggie Bush'
p1252
g17
tp1253
a(S'Daniel Thomas'
p1254
g17
tp1255
a(S'Brian Hartline'
p1256
g26
tp1257
a(S'Brandon Marshall'
p1258
g26
tp1259
a(S'Marlon Moore'
p1260
g26
tp1261
a(S'Charles Clay'
p1262
g39
tp1263
a(S'Anthony Fasano'
p1264
g39
tp1265
a(S'Dan Carpenter'
p1266
g44
tp1267
asg46
I01
sg47
F27.0
sg48
F170.0
sg49
F4.0
sg50
F1.0
sg51
F2.0
sg52
S'23-13'
p1268
sg54
I00
sg55
F151.0
sg56
F1.0
ssg431
(dp1269
g5
F0.0
sg6
F0.0
sg7
(lp1270
(S'Taiwan Jones'
p1271
g17
tp1272
a(S'Darren McFadden'
p1273
g17
tp1274
a(S'Marcel Reece'
p1275
g17
tp1276
a(S'Darrius Heyward-Bey'
p1277
g26
tp1278
a(S'Louis Murphy'
p1279
g26
tp1280
a(S'Richard Gordon'
p1281
g39
tp1282
a(S'Brandon Myers'
p1283
g39
tp1284
a(S'Sebastian Janikowski'
p1285
g44
tp1286
asg46
I00
sg47
F16.0
sg48
F0.0
sg49
F4.0
sg50
F0.0
sg51
F4.0
sg52
S'20-25'
p1287
sg54
I01
sg55
F51.0
sg56
F0.0
ssg461
(dp1288
g5
F30.0
sg6
F0.0
sg7
(lp1289
(S'Ben Roethlisberger'
p1290
g10
tp1291
a(S'Antonio Brown'
p1292
g26
tp1293
a(S'Jerricho Cotchery'
p1294
g26
tp1295
a(S'Emmanuel Sanders'
p1296
g26
tp1297
a(S'Mike Wallace'
p1298
g26
tp1299
a(S'David Johnson'
p1300
g39
tp1301
a(S'Shaun Suisham'
p1302
g44
tp1303
asg46
I01
sg47
F3.0
sg48
F206.0
sg49
F2.0
sg50
F0.0
sg51
F1.0
sg52
S'17-10'
p1304
sg54
I01
sg55
F19.0
sg56
F1.0
ssg499
(dp1305
g5
F0.0
sg6
F0.0
sg7
(lp1306
(S'Chris Johnson'
p1307
g17
tp1308
a(S'Marc Mariani'
p1309
g26
tp1310
a(S'Nate Washington'
p1311
g26
tp1312
a(S'Jared Cook'
p1313
g39
tp1314
a(S'Craig Stevens'
p1315
g39
tp1316
asg46
I01
sg47
F10.0
sg48
F0.0
sg49
F0.0
sg50
F0.0
sg51
F0.0
sg52
S'41-7'
p1317
sg54
I00
sg55
F18.0
sg56
F0.0
ssg535
(dp1318
g5
F33.0
sg6
F1.0
sg7
(lp1319
(S'Joe Flacco'
p1320
g10
tp1321
a(S'Tyrod Taylor'
p1322
g10
tp1323
a(S'Anquan Boldin'
p1324
g26
tp1325
a(S'Torrey Smith'
p1326
g26
tp1327
a(S'Ed Dickson'
p1328
g39
tp1329
a(S'Dennis Pitta'
p1330
g39
tp1331
asg46
I00
sg47
F3.0
sg48
F305.0
sg49
F0.0
sg50
F0.0
sg51
F0.0
sg52
S'14-29'
p1332
sg54
I00
sg55
F-1.0
sg56
F0.0
ssg573
(dp1333
g5
F22.0
sg6
F0.0
sg7
(lp1334
(S'Thad Lewis'
p1335
g10
tp1336
a(S'Colt McCoy'
p1337
g10
tp1338
a(S'Greg Little'
p1339
g26
tp1340
a(S'Jordan Norwood'
p1341
g26
tp1342
a(S'Jordan Cameron'
p1343
g39
tp1344
a(S'Alex Smith'
p1345
g39
tp1346
a(S'Benjamin Watson'
p1347
g39
tp1348
a(S'Phil Dawson'
p1349
g44
tp1350
asg46
I01
sg47
F3.0
sg48
F146.0
sg49
F2.0
sg50
F1.0
sg51
F2.0
sg52
S'30-12'
p1351
sg54
I01
sg55
F6.0
sg56
F0.0
ssg579
(dp1352
g5
F32.0
sg6
F0.0
sg7
(lp1353
(S'Blaine Gabbert'
p1354
g10
tp1355
a(S'Luke McCown'
p1356
g10
tp1357
a(S'Cecil Shorts'
p1358
g26
tp1359
a(S'Marcedes Lewis'
p1360
g39
tp1361
a(S'Josh Scobee'
p1362
g44
tp1363
asg46
I01
sg47
F4.0
sg48
F97.0
sg49
F0.0
sg50
F1.0
sg51
F0.0
sg52
S'24-14'
p1364
sg54
I01
sg55
F14.0
sg56
F0.0
sssS'2010'
p1365
(dp1366
g3
(dp1367
g5
F38.0
sg6
F0.0
sg7
(lp1368
(S'Kellen Clemens'
p1369
g10
tp1370
a(S'Mark Sanchez'
p1371
g10
tp1372
a(S'Jerricho Cotchery'
p1373
g26
tp1374
a(S'Jeff Cumberland'
p1375
g39
tp1376
a(S'Matthew Mulligan'
p1377
g39
tp1378
a(S'Nick Folk'
p1379
g44
tp1380
asg46
I00
sg47
F2.0
sg48
F315.0
sg49
F4.0
sg50
F3.0
sg51
F3.0
sg52
S'27-30'
p1381
sg54
I00
sg55
F22.0
sg56
F0.0
ssg57
(dp1382
g5
F0.0
sg6
F0.0
sg7
(lp1383
(S'Rashad Jennings'
p1384
g17
tp1385
a(S'Marcedes Lewis'
p1386
g39
tp1387
a(S'Zach Miller'
p1388
g39
tp1389
a(S'Josh Scobee'
p1390
g44
tp1391
asg46
I00
sg47
F1.0
sg48
F0.0
sg49
F3.0
sg50
F0.0
sg51
F1.0
sg52
S'24-31'
p1392
sg54
I00
sg55
F8.0
sg56
F0.0
ssg93
(dp1393
g5
F33.0
sg6
F2.0
sg7
(lp1394
(S'Mike Vick'
p1395
g10
tp1396
a(S'LeSean McCoy'
p1397
g17
tp1398
a(S'Jason Avant'
p1399
g26
tp1400
a(S'DeSean Jackson'
p1401
g26
tp1402
a(S'Jeremy Maclin'
p1403
g26
tp1404
a(S'Brent Celek'
p1405
g39
tp1406
a(S'Clay Harbor'
p1407
g39
tp1408
asg46
I00
sg47
F23.0
sg48
F302.0
sg49
F0.0
sg50
F2.0
sg51
F0.0
sg52
S'24-34'
p1409
sg54
I00
sg55
F92.0
sg56
F0.0
ssg131
(dp1410
g5
F0.0
sg6
F0.0
sg7
(lp1411
(S'Chris Johnson'
p1412
g17
tp1413
a(S'Kenny Britt'
p1414
g26
tp1415
a(S'Marc Mariani'
p1416
g26
tp1417
a(S'Nate Washington'
p1418
g26
tp1419
a(S'Jared Cook'
p1420
g39
tp1421
a(S'Craig Stevens'
p1422
g39
tp1423
asg46
I01
sg47
F8.0
sg48
F0.0
sg49
F0.0
sg50
F0.0
sg51
F0.0
sg52
S'20-0'
p1424
sg54
I01
sg55
F-3.0
sg56
F0.0
ssg171
(dp1425
g5
F0.0
sg6
F1.0
sg7
(lp1426
(S'Chris Johnson'
p1427
g17
tp1428
a(S'Kenny Britt'
p1429
g26
tp1430
a(S'Marc Mariani'
p1431
g26
tp1432
a(S'Nate Washington'
p1433
g26
tp1434
a(S'Jared Cook'
p1435
g39
tp1436
a(S'Craig Stevens'
p1437
g39
tp1438
asg46
I00
sg47
F24.0
sg48
F0.0
sg49
F0.0
sg50
F0.0
sg51
F0.0
sg52
S'17-31'
p1439
sg54
I00
sg55
F130.0
sg56
F0.0
ssg201
(dp1440
g5
F33.0
sg6
F0.0
sg7
(lp1441
(S'Joe Flacco'
p1442
g10
tp1443
a(S'Anquan Boldin'
p1444
g26
tp1445
a(S'Ed Dickson'
p1446
g39
tp1447
a(S'Dennis Pitta'
p1448
g39
tp1449
asg46
I00
sg47
F0.0
sg48
F235.0
sg49
F0.0
sg50
F2.0
sg51
F0.0
sg52
S'28-34'
p1450
sg54
I01
sg55
F0.0
sg56
F0.0
ssg237
(dp1451
g5
F0.0
sg6
F1.0
sg7
(lp1452
(S'Rashad Jennings'
p1453
g17
tp1454
a(S'Marcedes Lewis'
p1455
g39
tp1456
a(S'Zach Miller'
p1457
g39
tp1458
a(S'Josh Scobee'
p1459
g44
tp1460
asg46
I01
sg47
F22.0
sg48
F0.0
sg49
F2.0
sg50
F0.0
sg51
F1.0
sg52
S'34-17'
p1461
sg54
I01
sg55
F108.0
sg56
F0.0
ssg275
(dp1462
g5
F0.0
sg6
F0.0
sg7
(lp1463
(S'Eric Decker'
p1464
g26
tp1465
a(S'Eddie Royal'
p1466
g26
tp1467
a(S'Demaryius Thomas'
p1468
g26
tp1469
a(S'Steven Hauschka'
p1470
g44
tp1471
asg46
I00
sg47
F0.0
sg48
F0.0
sg49
F1.0
sg50
F0.0
sg51
F1.0
sg52
S'23-24'
p1472
sg54
I00
sg55
F0.0
sg56
F0.0
ssg315
(dp1473
g5
F0.0
sg6
F0.0
sg7
(lp1474
(S'Donald Brown'
p1475
g17
tp1476
a(S'Pierre Garcon'
p1477
g26
tp1478
a(S'Jacob Tamme'
p1479
g39
tp1480
a(S'Adam Vinatieri'
p1481
g44
tp1482
asg46
I01
sg47
F0.0
sg48
F0.0
sg49
F1.0
sg50
F0.0
sg51
F1.0
sg52
S'34-24'
p1483
sg54
I01
sg55
F0.0
sg56
F0.0
ssg355
(dp1484
g5
F30.0
sg6
F0.0
sg7
(lp1485
(S'Tony Romo'
p1486
g10
tp1487
a(S'Dez Bryant'
p1488
g26
tp1489
a(S'Martellus Bennett'
p1490
g39
tp1491
a(S'Scott Chandler'
p1492
g39
tp1493
a(S'Jason Witten'
p1494
g39
tp1495
asg46
I00
sg47
F1.0
sg48
F284.0
sg49
F0.0
sg50
F2.0
sg51
F0.0
sg52
S'13-27'
p1496
sg54
I01
sg55
F-1.0
sg56
F0.0
ssg393
(dp1497
g5
F0.0
sg6
F0.0
sg7
(lp1498
(S'Darrel Young'
p1499
g17
tp1500
a(S'Logan Paulsen'
p1501
g39
tp1502
a(S'Graham Gano'
p1503
g44
tp1504
asg46
I01
sg47
F0.0
sg48
F0.0
sg49
F4.0
sg50
F0.0
sg51
F2.0
sg52
S'30-27'
p1505
sg54
I00
sg55
F0.0
sg56
F1.0
ssg431
(dp1506
g5
F42.0
sg6
F0.0
sg7
(lp1507
(S'Eli Manning'
p1508
g10
tp1509
a(S'Ahmad Bradshaw'
p1510
g17
tp1511
a(S'Victor Cruz'
p1512
g26
tp1513
a(S'Hakeem Nicks'
p1514
g26
tp1515
a(S'Bear Pascoe'
p1516
g39
tp1517
asg46
I00
sg47
F22.0
sg48
F297.0
sg49
F0.0
sg50
F3.0
sg51
F0.0
sg52
S'10-34'
p1518
sg54
I01
sg55
F76.0
sg56
F0.0
ssg461
(dp1519
g5
F39.0
sg6
F0.0
sg7
(lp1520
(S'Bruce Gradkowski'
p1521
g10
tp1522
a(S'Darren McFadden'
p1523
g17
tp1524
a(S'Marcel Reece'
p1525
g17
tp1526
a(S'Darrius Heyward-Bey'
p1527
g26
tp1528
a(S'Louis Murphy'
p1529
g26
tp1530
a(S'Brandon Myers'
p1531
g39
tp1532
a(S'Sebastian Janikowski'
p1533
g44
tp1534
asg46
I01
sg47
F17.0
sg48
F278.0
sg49
F1.0
sg50
F2.0
sg51
F1.0
sg52
S'31-24'
p1535
sg54
I00
sg55
F70.0
sg56
F0.0
ssg499
(dp1536
g5
F0.0
sg6
F0.0
sg7
(lp1537
sg46
(lp1538
sg47
F0.0
sg48
F0.0
sg49
F0.0
sg50
F0.0
sg51
F0.0
sg52
(lp1539
sg54
(lp1540
sg55
F0.0
sg56
F0.0
ssg535
(dp1541
g5
F29.0
sg6
F0.0
sg7
(lp1542
(S'Matt Cassel'
p1543
g10
tp1544
a(S'Jamaal Charles'
p1545
g17
tp1546
a(S'Dexter McCluster'
p1547
g17
tp1548
a(S'Dwayne Bowe'
p1549
g26
tp1550
a(S'Tony Moeaki'
p1551
g39
tp1552
a(S'Ryan Succop'
p1553
g44
tp1554
asg46
I01
sg47
F19.0
sg48
F201.0
sg49
F1.0
sg50
F3.0
sg51
F1.0
sg52
S'35-31'
p1555
sg54
I01
sg55
F128.0
sg56
F0.0
ssg573
(dp1556
g5
F23.0
sg6
F0.0
sg7
(lp1557
(S'Philip Rivers'
p1558
g10
tp1559
a(S'Ryan Mathews'
p1560
g17
tp1561
a(S'Darren Sproles'
p1562
g17
tp1563
a(S'Mike Tolbert'
p1564
g17
tp1565
a(S'Seyi Ajirotutu'
p1566
g26
tp1567
a(S'Malcom Floyd'
p1568
g26
tp1569
a(S'Antonio Gates'
p1570
g39
tp1571
asg46
I00
sg47
F22.0
sg48
F295.0
sg49
F0.0
sg50
F4.0
sg51
F0.0
sg52
S'23-29'
p1572
sg54
I01
sg55
F70.0
sg56
F0.0
ssg579
(dp1573
g5
F0.0
sg6
F0.0
sg7
(lp1574
(S'Donald Brown'
p1575
g17
tp1576
a(S'Pierre Garcon'
p1577
g26
tp1578
a(S'Jacob Tamme'
p1579
g39
tp1580
a(S'Adam Vinatieri'
p1581
g44
tp1582
asg46
I00
sg47
F9.0
sg48
F0.0
sg49
F3.0
sg50
F0.0
sg51
F3.0
sg52
S'17-30'
p1583
sg54
I00
sg55
F16.0
sg56
F0.0
sssS'2013'
p1584
(dp1585
g3
(dp1586
g5
F32.0
sg6
F1.0
sg7
(lp1587
(S'Matt McGloin'
p1588
g10
tp1589
a(S'Rashad Jennings'
p1590
g17
tp1591
a(S'Taiwan Jones'
p1592
g17
tp1593
a(S'Darren McFadden'
p1594
g17
tp1595
a(S'Jamize Olawale'
p1596
g17
tp1597
a(S'Marcel Reece'
p1598
g17
tp1599
a(S'Brice Butler'
p1600
g26
tp1601
a(S'Andre Holmes'
p1602
g26
tp1603
a(S'Terrelle Pryor'
p1604
g26
tp1605
a(S'Rod Streater'
p1606
g26
tp1607
a(S'Mychal Rivera'
p1608
g39
tp1609
a(S'Sebastian Janikowski'
p1610
g44
tp1611
asg46
I00
sg47
F30.0
sg48
F197.0
sg49
F1.0
sg50
F3.0
sg51
F0.0
sg52
S'23-28'
p1612
sg54
I01
sg55
F161.0
sg56
F0.0
ssg57
(dp1613
g5
F32.0
sg6
F0.0
sg7
(lp1614
(S'Carson Palmer'
p1615
g10
tp1616
a(S'Drew Stanton'
p1617
g10
tp1618
a(S'Andre Ellington'
p1619
g17
tp1620
a(S'Stepfan Taylor'
p1621
g17
tp1622
a(S'Jaron Brown'
p1623
g26
tp1624
a(S'Larry Fitzgerald'
p1625
g26
tp1626
a(S'Michael Floyd'
p1627
g26
tp1628
a(S'Brittan Golden'
p1629
g26
tp1630
a(S'Andre Roberts'
p1631
g26
tp1632
a(S'Jim Dray'
p1633
g39
tp1634
a(S'Rob Housler'
p1635
g39
tp1636
asg46
I00
sg47
F15.0
sg48
F241.0
sg49
F0.0
sg50
F2.0
sg51
F0.0
sg52
S'24-27'
p1637
sg54
I00
sg55
F59.0
sg56
F0.0
ssg93
(dp1638
g5
F41.0
sg6
F2.0
sg7
(lp1639
(S'Tom Brady'
p1640
g10
tp1641
a(S'Ryan Mallett'
p1642
g10
tp1643
a(S'LeGarrette Blount'
p1644
g17
tp1645
a(S'Brandon Bolden'
p1646
g17
tp1647
a(S'James Develin'
p1648
g17
tp1649
a(S'Stevan Ridley'
p1650
g17
tp1651
a(S'Shane Vereen'
p1652
g17
tp1653
a(S'Danny Amendola'
p1654
g26
tp1655
a(S'Josh Boyce'
p1656
g26
tp1657
a(S'Aaron Dobson'
p1658
g26
tp1659
a(S'Julian Edelman'
p1660
g26
tp1661
a(S'Matthew Slater'
p1662
g26
tp1663
a(S'Kenbrell Thompkins'
p1664
g26
tp1665
a(S'Rob Gronkowski'
p1666
g39
tp1667
a(S'Michael Hoomanawanui'
p1668
g39
tp1669
a(S'Matthew Mulligan'
p1670
g39
tp1671
a(S'Stephen Gostkowski'
p1672
g44
tp1673
asg46
I00
sg47
F27.0
sg48
F371.0
sg49
F3.0
sg50
F2.0
sg51
F2.0
sg52
S'31-34'
p1674
sg54
I01
sg55
F88.0
sg56
F0.0
ssg131
(dp1675
g5
F32.0
sg6
F0.0
sg7
(lp1676
(S'Blaine Gabbert'
p1677
g10
tp1678
a(S'Chad Henne'
p1679
g10
tp1680
a(S'Dan LeFevour'
p1681
g10
tp1682
a(S'Justin Forsett'
p1683
g17
tp1684
a(S'Denard Robinson'
p1685
g17
tp1686
a(S'Jordan Todman'
p1687
g17
tp1688
a(S'Cecil Shorts'
p1689
g26
tp1690
a(S'Clay Harbor'
p1691
g39
tp1692
a(S'Marcedes Lewis'
p1693
g39
tp1694
a(S'Josh Scobee'
p1695
g44
tp1696
asg46
I00
sg47
F14.0
sg48
F239.0
sg49
F3.0
sg50
F0.0
sg51
F2.0
sg52
S'6-13'
p1697
sg54
I01
sg55
F34.0
sg56
F1.0
ssg171
(dp1698
g5
F32.0
sg6
F0.0
sg7
(lp1699
(S'Andrew Luck'
p1700
g10
tp1701
a(S'Donald Brown'
p1702
g17
tp1703
a(S'Trent Richardson'
p1704
g17
tp1705
a(S'Darrius Heyward-Bey'
p1706
g26
tp1707
a(S'T.Y. Hilton'
p1708
g26
tp1709
a(S'Griff Whalen'
p1710
g26
tp1711
a(S'Jack Doyle'
p1712
g39
tp1713
a(S'Coby Fleener'
p1714
g39
tp1715
a(S'Adam Vinatieri'
p1716
g44
tp1717
asg46
I00
sg47
F29.0
sg48
F180.0
sg49
F3.0
sg50
F2.0
sg51
F3.0
sg52
S'3-25'
p1718
sg54
I00
sg55
F131.0
sg56
F0.0
ssg201
(dp1719
g5
F27.0
sg6
F0.0
sg7
(lp1720
(S'Blaine Gabbert'
p1721
g10
tp1722
a(S'Chad Henne'
p1723
g10
tp1724
a(S'Justin Forsett'
p1725
g17
tp1726
a(S'Denard Robinson'
p1727
g17
tp1728
a(S'Jordan Todman'
p1729
g17
tp1730
a(S'Cecil Shorts'
p1731
g26
tp1732
a(S'Clay Harbor'
p1733
g39
tp1734
a(S'Marcedes Lewis'
p1735
g39
tp1736
a(S'Josh Scobee'
p1737
g44
tp1738
asg46
I00
sg47
F13.0
sg48
F117.0
sg49
F2.0
sg50
F2.0
sg51
F2.0
sg52
S'20-27'
p1739
sg54
I00
sg55
F46.0
sg56
F0.0
ssg237
(dp1740
g5
F24.0
sg6
F1.0
sg7
(lp1741
(S'Ryan Fitzpatrick'
p1742
g10
tp1743
a(S'Chris Johnson'
p1744
g17
tp1745
a(S'Kenny Britt'
p1746
g26
tp1747
a(S'Justin Hunter'
p1748
g26
tp1749
a(S'Nate Washington'
p1750
g26
tp1751
a(S'Kendall Wright'
p1752
g26
tp1753
a(S'Craig Stevens'
p1754
g39
tp1755
a(S'Delanie Walker'
p1756
g39
tp1757
asg46
I00
sg47
F29.0
sg48
F166.0
sg49
F0.0
sg50
F0.0
sg51
F0.0
sg52
S'10-16'
p1758
sg54
I00
sg55
F125.0
sg56
F0.0
ssg275
(dp1759
g5
F0.0
sg6
F0.0
sg7
(lp1760
(S'Zac Dysert'
p1761
g10
tp1762
a(S'Brock Osweiler'
p1763
g10
tp1764
a(S'C.J. Anderson'
p1765
g17
tp1766
a(S'Ronnie Hillman'
p1767
g17
tp1768
a(S'Andre Caldwell'
p1769
g26
tp1770
a(S'Eric Decker'
p1771
g26
tp1772
a(S'Demaryius Thomas'
p1773
g26
tp1774
a(S'Wes Welker'
p1775
g26
tp1776
a(S'Virgil Green'
p1777
g39
tp1778
a(S'Jacob Tamme'
p1779
g39
tp1780
a(S'Julius Thomas'
p1781
g39
tp1782
a(S'Matt Prater'
p1783
g44
tp1784
asg46
I00
sg47
F3.0
sg48
F0.0
sg49
F3.0
sg50
F0.0
sg51
F3.0
sg52
S'13-37'
p1785
sg54
I01
sg55
F6.0
sg56
F0.0
ssg315
(dp1786
g5
F29.0
sg6
F0.0
sg7
(lp1787
(S'Philip Rivers'
p1788
g10
tp1789
a(S'Ryan Mathews'
p1790
g17
tp1791
a(S'Fozzy Whittaker'
p1792
g17
tp1793
a(S'Danny Woodhead'
p1794
g17
tp1795
a(S'Seyi Ajirotutu'
p1796
g26
tp1797
a(S'Keenan Allen'
p1798
g26
tp1799
a(S'Vincent Brown'
p1800
g26
tp1801
a(S'Malcom Floyd'
p1802
g26
tp1803
a(S'Eddie Royal'
p1804
g26
tp1805
a(S'Antonio Gates'
p1806
g39
tp1807
a(S'Ladarius Green'
p1808
g39
tp1809
a(S'John Phillips'
p1810
g39
tp1811
a(S'Nick Novak'
p1812
g44
tp1813
asg46
I01
sg47
F14.0
sg48
F195.0
sg49
F0.0
sg50
F4.0
sg51
F0.0
sg52
S'31-28'
p1814
sg54
I00
sg55
F51.0
sg56
F0.0
ssg355
(dp1815
g5
F24.0
sg6
F1.0
sg7
(lp1816
(S'Joe Flacco'
p1817
g10
tp1818
a(S'Tyrod Taylor'
p1819
g10
tp1820
a(S'Shaun Draughn'
p1821
g17
tp1822
a(S'Kyle Juszczyk'
p1823
g17
tp1824
a(S'Bernard Pierce'
p1825
g17
tp1826
a(S'Torrey Smith'
p1827
g26
tp1828
a(S'Deonte Thompson'
p1829
g26
tp1830
a(S'Ed Dickson'
p1831
g39
tp1832
a(S'Justin Tucker'
p1833
g44
tp1834
asg46
I00
sg47
F28.0
sg48
F171.0
sg49
F3.0
sg50
F0.0
sg51
F3.0
sg52
S'9-30'
p1835
sg54
I00
sg55
F67.0
sg56
F0.0
ssg393
(dp1836
g5
F0.0
sg6
F0.0
sg7
(lp1837
(S'Ryan Fitzpatrick'
p1838
g10
tp1839
a(S'Chris Johnson'
p1840
g17
tp1841
a(S'Kenny Britt'
p1842
g26
tp1843
a(S'Justin Hunter'
p1844
g26
tp1845
a(S'Nate Washington'
p1846
g26
tp1847
a(S'Kendall Wright'
p1848
g26
tp1849
a(S'Craig Stevens'
p1850
g39
tp1851
a(S'Delanie Walker'
p1852
g39
tp1853
asg46
I01
sg47
F25.0
sg48
F0.0
sg49
F0.0
sg50
F0.0
sg51
F0.0
sg52
S'30-24'
p1854
sg54
I01
sg55
F96.0
sg56
F0.0
ssg431
(dp1855
g5
F15.0
sg6
F2.0
sg7
(lp1856
(S'Colin Kaepernick'
p1857
g10
tp1858
a(S'Colt McCoy'
p1859
g10
tp1860
a(S'Anthony Dixon'
p1861
g17
tp1862
a(S'Frank Gore'
p1863
g17
tp1864
a(S'Kendall Hunter'
p1865
g17
tp1866
a(S'Bruce Miller'
p1867
g17
tp1868
a(S'Anquan Boldin'
p1869
g26
tp1870
a(S'Marlon Moore'
p1871
g26
tp1872
a(S'Quinton Patton'
p1873
g26
tp1874
a(S'Kyle Williams'
p1875
g26
tp1876
a(S'Garrett Celek'
p1877
g39
tp1878
a(S'Vernon Davis'
p1879
g39
tp1880
a(S'Vance McDonald'
p1881
g39
tp1882
a(S'Phil Dawson'
p1883
g44
tp1884
asg46
I00
sg47
F32.0
sg48
F113.0
sg49
F2.0
sg50
F1.0
sg51
F2.0
sg52
S'3-34'
p1885
sg54
I00
sg55
F146.0
sg56
F0.0
ssg461
(dp1886
g5
F23.0
sg6
F0.0
sg7
(lp1887
(S'Tarvaris Jackson'
p1888
g10
tp1889
a(S'Russell Wilson'
p1890
g10
tp1891
a(S'Derrick Coleman'
p1892
g17
tp1893
a(S'Christine Michael'
p1894
g17
tp1895
a(S'Robert Turbin'
p1896
g17
tp1897
a(S'Spencer Ware'
p1898
g17
tp1899
a(S'Doug Baldwin'
p1900
g26
tp1901
a(S'Jermaine Kearse'
p1902
g26
tp1903
a(S'Golden Tate'
p1904
g26
tp1905
a(S'Kellen Davis'
p1906
g39
tp1907
a(S'Luke Willson'
p1908
g39
tp1909
a(S'Steven Hauschka'
p1910
g44
tp1911
asg46
I00
sg47
F13.0
sg48
F123.0
sg49
F3.0
sg50
F0.0
sg51
F3.0
sg52
S'20-23'
p1912
sg54
I01
sg55
F81.0
sg56
F0.0
ssg499
(dp1913
g5
F34.0
sg6
F2.0
sg7
(lp1914
(S'Tyler Bray'
p1915
g10
tp1916
a(S'Chase Daniel'
p1917
g10
tp1918
a(S'Alex Smith'
p1919
g10
tp1920
a(S'Jamaal Charles'
p1921
g17
tp1922
a(S'Knile Davis'
p1923
g17
tp1924
a(S'Cyrus Gray'
p1925
g17
tp1926
a(S'Dexter McCluster'
p1927
g17
tp1928
a(S'Anthony Sherman'
p1929
g17
tp1930
a(S'Dwayne Bowe'
p1931
g26
tp1932
a(S'Anthony Fasano'
p1933
g39
tp1934
a(S'Sean McGrath'
p1935
g39
tp1936
a(S'Ryan Succop'
p1937
g44
tp1938
asg46
I00
sg47
F32.0
sg48
F240.0
sg49
F1.0
sg50
F0.0
sg51
F1.0
sg52
S'16-17'
p1939
sg54
I00
sg55
F126.0
sg56
F0.0
ssg535
(dp1940
g5
F16.0
sg6
F0.0
sg7
(lp1941
(S'Sam Bradford'
p1942
g10
tp1943
a(S'Kellen Clemens'
p1944
g10
tp1945
a(S'Benny Cunningham'
p1946
g17
tp1947
a(S'Isaiah Pead'
p1948
g17
tp1949
a(S'Chase Reynolds'
p1950
g17
tp1951
a(S'Daryl Richardson'
p1952
g17
tp1953
a(S'Zac Stacy'
p1954
g17
tp1955
a(S'Tavon Austin'
p1956
g26
tp1957
a(S'Stedman Bailey'
p1958
g26
tp1959
a(S'Chris Givens'
p1960
g26
tp1961
a(S'Brian Quick'
p1962
g26
tp1963
a(S'Jared Cook'
p1964
g39
tp1965
a(S'Cory Harkey'
p1966
g39
tp1967
a(S'Lance Kendricks'
p1968
g39
tp1969
a(S'Greg Zuerlein'
p1970
g44
tp1971
asg46
I00
sg47
F25.0
sg48
F117.0
sg49
F1.0
sg50
F3.0
sg51
F1.0
sg52
S'13-38'
p1972
sg54
I01
sg55
F99.0
sg56
F0.0
ssg573
(dp1973
g5
F40.0
sg6
F0.0
sg7
(lp1974
(S'Andrew Luck'
p1975
g10
tp1976
a(S'Donald Brown'
p1977
g17
tp1978
a(S'Dan Herron'
p1979
g17
tp1980
a(S'Trent Richardson'
p1981
g17
tp1982
a(S'Darrius Heyward-Bey'
p1983
g26
tp1984
a(S'T.Y. Hilton'
p1985
g26
tp1986
a(S'Griff Whalen'
p1987
g26
tp1988
a(S'Jack Doyle'
p1989
g39
tp1990
a(S'Coby Fleener'
p1991
g39
tp1992
a(S'Adam Vinatieri'
p1993
g44
tp1994
asg46
I00
sg47
F14.0
sg48
F271.0
sg49
F3.0
sg50
F3.0
sg51
F2.0
sg52
S'24-27'
p1995
sg54
I01
sg55
F69.0
sg56
F1.0
ssg579
(dp1996
g5
F0.0
sg6
F0.0
sg7
(lp1997
sg46
(lp1998
sg47
F0.0
sg48
F0.0
sg49
F0.0
sg50
F0.0
sg51
F0.0
sg52
(lp1999
sg54
(lp2000
sg55
F0.0
sg56
F0.0
sssS'2012'
p2001
(dp2002
g3
(dp2003
g5
F35.0
sg6
F0.0
sg7
(lp2004
(S'Blaine Gabbert'
p2005
g10
tp2006
a(S'Chad Henne'
p2007
g10
tp2008
a(S'Rashad Jennings'
p2009
g17
tp2010
a(S'Justin Blackmon'
p2011
g26
tp2012
a(S'Cecil Shorts'
p2013
g26
tp2014
a(S'Marcedes Lewis'
p2015
g39
tp2016
a(S'Josh Scobee'
p2017
g44
tp2018
asg46
I01
sg47
F5.0
sg48
F378.0
sg49
F3.0
sg50
F4.0
sg51
F3.0
sg52
S'43-37'
p2019
sg54
I01
sg55
F6.0
sg56
F0.0
ssg57
(dp2020
g5
F14.0
sg6
F0.0
sg7
(lp2021
(S'Jay Cutler'
p2022
g10
tp2023
a(S'Matt Forte'
p2024
g17
tp2025
a(S'Devin Hester'
p2026
g26
tp2027
a(S'Alshon Jeffery'
p2028
g26
tp2029
a(S'Brandon Marshall'
p2030
g26
tp2031
a(S'Eric Weems'
p2032
g26
tp2033
a(S'Kellen Davis'
p2034
g39
tp2035
a(S'Matt Spaeth'
p2036
g39
tp2037
a(S'Robbie Gould'
p2038
g44
tp2039
asg46
I01
sg47
F19.0
sg48
F40.0
sg49
F3.0
sg50
F0.0
sg51
F2.0
sg52
S'13-6'
p2040
sg54
I00
sg55
F76.0
sg56
F0.0
ssg93
(dp2041
g5
F0.0
sg6
F0.0
sg7
(lp2042
(S'Chris Johnson'
p2043
g17
tp2044
a(S'Kenny Britt'
p2045
g26
tp2046
a(S'Nate Washington'
p2047
g26
tp2048
a(S'Kendall Wright'
p2049
g26
tp2050
a(S'Jared Cook'
p2051
g39
tp2052
a(S'Craig Stevens'
p2053
g39
tp2054
asg46
I01
sg47
F13.0
sg48
F0.0
sg49
F0.0
sg50
F0.0
sg51
F0.0
sg52
S'24-10'
p2055
sg54
I00
sg55
F51.0
sg56
F0.0
ssg131
(dp2056
g5
F61.0
sg6
F0.0
sg7
(lp2057
(S'Shaun Hill'
p2058
g10
tp2059
a(S'Dan LeFevour'
p2060
g10
tp2061
a(S'Kellen Moore'
p2062
g10
tp2063
a(S'Matthew Stafford'
p2064
g10
tp2065
a(S'Brandon Pettigrew'
p2066
g39
tp2067
asg46
I01
sg47
F2.0
sg48
F441.0
sg49
F0.0
sg50
F2.0
sg51
F0.0
sg52
S'34-31'
p2068
sg54
I00
sg55
F7.0
sg56
F0.0
ssg171
(dp2069
g5
F27.0
sg6
F0.0
sg7
(lp2070
(S'Andrew Luck'
p2071
g10
tp2072
a(S'Drew Stanton'
p2073
g10
tp2074
a(S'Vick Ballard'
p2075
g17
tp2076
a(S'T.Y. Hilton'
p2077
g26
tp2078
a(S'Nathan Palmer'
p2079
g26
tp2080
a(S'Dwayne Allen'
p2081
g39
tp2082
a(S'Coby Fleener'
p2083
g39
tp2084
a(S'Adam Vinatieri'
p2085
g44
tp2086
asg46
I01
sg47
F21.0
sg48
F186.0
sg49
F1.0
sg50
F2.0
sg51
F1.0
sg52
S'29-17'
p2087
sg54
I01
sg55
F118.0
sg56
F0.0
ssg201
(dp2088
g5
F36.0
sg6
F1.0
sg7
(lp2089
(S'Tom Brady'
p2090
g10
tp2091
a(S'Ryan Mallett'
p2092
g10
tp2093
a(S'Brandon Bolden'
p2094
g17
tp2095
a(S'James Develin'
p2096
g17
tp2097
a(S'Stevan Ridley'
p2098
g17
tp2099
a(S'Shane Vereen'
p2100
g17
tp2101
a(S'Danny Woodhead'
p2102
g17
tp2103
a(S'Matthew Slater'
p2104
g26
tp2105
a(S'Wes Welker'
p2106
g26
tp2107
a(S'Daniel Fells'
p2108
g39
tp2109
a(S'Rob Gronkowski'
p2110
g39
tp2111
a(S'Michael Hoomanawanui'
p2112
g39
tp2113
a(S'Stephen Gostkowski'
p2114
g44
tp2115
asg46
I00
sg47
F33.0
sg48
F296.0
sg49
F0.0
sg50
F4.0
sg51
F0.0
sg52
S'14-42'
p2116
sg54
I00
sg55
F130.0
sg56
F0.0
ssg237
(dp2117
g5
F28.0
sg6
F1.0
sg7
(lp2118
(S'Andrew Luck'
p2119
g10
tp2120
a(S'Drew Stanton'
p2121
g10
tp2122
a(S'Vick Ballard'
p2123
g17
tp2124
a(S'T.Y. Hilton'
p2125
g26
tp2126
a(S'Nathan Palmer'
p2127
g26
tp2128
a(S'Dwayne Allen'
p2129
g39
tp2130
a(S'Coby Fleener'
p2131
g39
tp2132
a(S'Adam Vinatieri'
p2133
g44
tp2134
asg46
I00
sg47
F33.0
sg48
F191.0
sg49
F0.0
sg50
F2.0
sg51
F0.0
sg52
S'16-28'
p2135
sg54
I00
sg55
F81.0
sg56
F0.0
ssg275
(dp2136
g5
F0.0
sg6
F1.0
sg7
(lp2137
(S'Joe Webb'
p2138
g10
tp2139
a(S'Matt Asiata'
p2140
g17
tp2141
a(S'Jerome Felton'
p2142
g17
tp2143
a(S'Toby Gerhart'
p2144
g17
tp2145
a(S'Adrian Peterson'
p2146
g17
tp2147
a(S'Jerome Simpson'
p2148
g26
tp2149
a(S'Jarius Wright'
p2150
g26
tp2151
a(S'Rhett Ellison'
p2152
g39
tp2153
a(S'Kyle Rudolph'
p2154
g39
tp2155
a(S'Blair Walsh'
p2156
g44
tp2157
asg46
I00
sg47
F35.0
sg48
F0.0
sg49
F3.0
sg50
F0.0
sg51
F3.0
sg52
S'6-23'
p2158
sg54
I01
sg55
F126.0
sg56
F0.0
ssg315
(dp2159
g5
F36.0
sg6
F0.0
sg7
(lp2160
(S'Pat Devlin'
p2161
g10
tp2162
a(S'Matt Moore'
p2163
g10
tp2164
a(S'Ryan Tannehill'
p2165
g10
tp2166
a(S'Reggie Bush'
p2167
g17
tp2168
a(S'Jorvorskie Lane'
p2169
g17
tp2170
a(S'Lamar Miller'
p2171
g17
tp2172
a(S'Daniel Thomas'
p2173
g17
tp2174
a(S'Brian Hartline'
p2175
g26
tp2176
a(S'Rishard Matthews'
p2177
g26
tp2178
a(S'Marlon Moore'
p2179
g26
tp2180
a(S'Charles Clay'
p2181
g39
tp2182
a(S'Anthony Fasano'
p2183
g39
tp2184
a(S'Dan Carpenter'
p2185
g44
tp2186
asg46
I01
sg47
F20.0
sg48
F219.0
sg49
F1.0
sg50
F0.0
sg51
F1.0
sg52
S'30-10'
p2187
sg54
I01
sg55
F76.0
sg56
F0.0
ssg355
(dp2188
g5
F0.0
sg6
F0.0
sg7
(lp2189
(S'Brock Osweiler'
p2190
g10
tp2191
a(S'Ronnie Hillman'
p2192
g17
tp2193
a(S'Andre Caldwell'
p2194
g26
tp2195
a(S'Eric Decker'
p2196
g26
tp2197
a(S'Demaryius Thomas'
p2198
g26
tp2199
a(S'Jacob Tamme'
p2200
g39
tp2201
a(S'Julius Thomas'
p2202
g39
tp2203
a(S'Matt Prater'
p2204
g44
tp2205
asg46
I01
sg47
F2.0
sg48
F0.0
sg49
F3.0
sg50
F0.0
sg51
F3.0
sg52
S'31-25'
p2206
sg54
I00
sg55
F7.0
sg56
F0.0
ssg393
(dp2207
g5
F21.0
sg6
F0.0
sg7
(lp2208
(S'Blaine Gabbert'
p2209
g10
tp2210
a(S'Chad Henne'
p2211
g10
tp2212
a(S'Rashad Jennings'
p2213
g17
tp2214
a(S'Justin Blackmon'
p2215
g26
tp2216
a(S'Cecil Shorts'
p2217
g26
tp2218
a(S'Marcedes Lewis'
p2219
g39
tp2220
a(S'Josh Scobee'
p2221
g44
tp2222
asg46
I01
sg47
F2.0
sg48
F76.0
sg49
F0.0
sg50
F1.0
sg51
F0.0
sg52
S'27-7'
p2223
sg54
I00
sg55
F5.0
sg56
F0.0
ssg431
(dp2224
g5
F31.0
sg6
F0.0
sg7
(lp2225
(S'Mark Sanchez'
p2226
g10
tp2227
a(S'Jonathan Grimes'
p2228
g17
tp2229
a(S'Bilal Powell'
p2230
g17
tp2231
a(S'Stephen Hill'
p2232
g26
tp2233
a(S'Jeremy Kerley'
p2234
g26
tp2235
a(S'Jeff Cumberland'
p2236
g39
tp2237
a(S'Konrad Reuland'
p2238
g39
tp2239
a(S'Nick Folk'
p2240
g44
tp2241
asg46
I01
sg47
F6.0
sg48
F230.0
sg49
F1.0
sg50
F1.0
sg51
F1.0
sg52
S'23-17'
p2242
sg54
I00
sg55
F19.0
sg56
F0.0
ssg461
(dp2243
g5
F0.0
sg6
F0.0
sg7
(lp2244
(S'Chris Johnson'
p2245
g17
tp2246
a(S'Kenny Britt'
p2247
g26
tp2248
a(S'Nate Washington'
p2249
g26
tp2250
a(S'Kendall Wright'
p2251
g26
tp2252
a(S'Jared Cook'
p2253
g39
tp2254
a(S'Craig Stevens'
p2255
g39
tp2256
asg46
I01
sg47
F25.0
sg48
F0.0
sg49
F0.0
sg50
F0.0
sg51
F0.0
sg52
S'38-14'
p2257
sg54
I01
sg55
F141.0
sg56
F0.0
ssg499
(dp2258
g5
F43.0
sg6
F0.0
sg7
(lp2259
(S'Joe Flacco'
p2260
g10
tp2261
a(S'Tyrod Taylor'
p2262
g10
tp2263
a(S'Bernard Pierce'
p2264
g17
tp2265
a(S'Bobby Rainey'
p2266
g17
tp2267
a(S'Anquan Boldin'
p2268
g26
tp2269
a(S'Torrey Smith'
p2270
g26
tp2271
a(S'Deonte Thompson'
p2272
g26
tp2273
a(S'Ed Dickson'
p2274
g39
tp2275
a(S'Dennis Pitta'
p2276
g39
tp2277
a(S'Justin Tucker'
p2278
g44
tp2279
asg46
I01
sg47
F2.0
sg48
F147.0
sg49
F2.0
sg50
F1.0
sg51
F2.0
sg52
S'43-13'
p2280
sg54
I01
sg55
F7.0
sg56
F0.0
ssg535
(dp2281
g5
F37.0
sg6
F0.0
sg7
(lp2282
(S'Aaron Rodgers'
p2283
g10
tp2284
a(S'John Kuhn'
p2285
g17
tp2286
a(S'James Starks'
p2287
g17
tp2288
a(S'Jarrett Boykin'
p2289
g26
tp2290
a(S'Randall Cobb'
p2291
g26
tp2292
a(S'Greg Jennings'
p2293
g26
tp2294
a(S'James Jones'
p2295
g26
tp2296
a(S'Jordy Nelson'
p2297
g26
tp2298
a(S'Mason Crosby'
p2299
g44
tp2300
asg46
I00
sg47
F9.0
sg48
F338.0
sg49
F0.0
sg50
F6.0
sg51
F0.0
sg52
S'24-42'
p2301
sg54
I01
sg55
F34.0
sg56
F0.0
ssg573
(dp2302
g5
F38.0
sg6
F0.0
sg7
(lp2303
(S'Ryan Fitzpatrick'
p2304
g10
tp2305
a(S'Tarvaris Jackson'
p2306
g10
tp2307
a(S'Fred Jackson'
p2308
g17
tp2309
a(S'C.J. Spiller'
p2310
g17
tp2311
a(S'T.J. Graham'
p2312
g26
tp2313
a(S'Steve Johnson'
p2314
g26
tp2315
a(S'Scott Chandler'
p2316
g39
tp2317
a(S'Dorin Dickerson'
p2318
g39
tp2319
a(S'Lee Smith'
p2320
g39
tp2321
asg46
I01
sg47
F14.0
sg48
F239.0
sg49
F0.0
sg50
F0.0
sg51
F0.0
sg52
S'21-9'
p2322
sg54
I01
sg55
F74.0
sg56
F0.0
ssg579
(dp2323
g5
F0.0
sg6
F0.0
sg7
(lp2324
sg46
(lp2325
sg47
F0.0
sg48
F0.0
sg49
F0.0
sg50
F0.0
sg51
F0.0
sg52
(lp2326
sg54
(lp2327
sg55
F0.0
sg56
F0.0
sss.