(dp0
S'2015'
p1
(dp2
S'11'
p3
(dp4
S'PassAtt'
p5
F30.0
sS'RushTD'
p6
F0.0
sS'Players'
p7
(lp8
(S'Kellen Clemens'
p9
S'QB'
p10
tp11
a(S'Philip Rivers'
p12
g10
tp13
a(S'Donald Brown'
p14
S'RB'
p15
tp16
a(S'Melvin Gordon'
p17
g15
tp18
a(S'Danny Woodhead'
p19
g15
tp20
a(S'Malcom Floyd'
p21
S'WR'
p22
tp23
a(S'Javontee Herndon'
p24
g22
tp25
a(S'Dontrelle Inman'
p26
g22
tp27
a(S'Steve Johnson'
p28
g22
tp29
a(S'Tyrell Williams'
p30
g22
tp31
a(S'Antonio Gates'
p32
S'TE'
p33
tp34
a(S'Ladarius Green'
p35
g33
tp36
a(S'David Johnson'
p37
g33
tp38
a(S'John Phillips'
p39
g33
tp40
a(S'Josh Lambo'
p41
S'K'
p42
tp43
asS'Won'
p44
I01
sS'RushAtt'
p45
F25.0
sS'PassYds'
p46
F178.0
sS'FGAtt'
p47
F1.0
sS'PassTD'
p48
F0.0
sS'FGM'
p49
F1.0
sS'Score'
p50
S'33-3'
p51
sS'Home'
p52
I00
sS'RushYds'
p53
F52.0
sS'FGBlk'
p54
F0.0
ssS'10'
p55
(dp56
g5
F24.0
sg6
F1.0
sg7
(lp57
(S'Brock Osweiler'
p58
g10
tp59
a(S'Trevor Siemian'
p60
g10
tp61
a(S'C.J. Anderson'
p62
g15
tp63
a(S'Ronnie Hillman'
p64
g15
tp65
a(S'Juwan Thompson'
p66
g15
tp67
a(S'Andre Caldwell'
p68
g22
tp69
a(S'Bennie Fowler'
p70
g22
tp71
a(S'Cody Latimer'
p72
g22
tp73
a(S'Jordan Norwood'
p74
g22
tp75
a(S'Emmanuel Sanders'
p76
g22
tp77
a(S'Demaryius Thomas'
p78
g22
tp79
a(S'Mike Williams'
p80
g22
tp81
a(S'Owen Daniels'
p82
g33
tp83
a(S'Vernon Davis'
p84
g33
tp85
a(S'Richard Gordon'
p86
g33
tp87
a(S'Virgil Green'
p88
g33
tp89
a(S'Brandon McManus'
p90
g42
tp91
asg44
I01
sg45
F16.0
sg46
F146.0
sg47
F0.0
sg48
F1.0
sg49
F0.0
sg50
S'29-13'
p92
sg52
I00
sg53
F69.0
sg54
F0.0
ssS'13'
p93
(dp94
g5
F48.0
sg6
F1.0
sg7
(lp95
(S'Derek Carr'
p96
g10
tp97
a(S'Matt McGloin'
p98
g10
tp99
a(S'Roy Helu'
p100
g15
tp101
a(S'Taiwan Jones'
p102
g15
tp103
a(S'Latavius Murray'
p104
g15
tp105
a(S'Jamize Olawale'
p106
g15
tp107
a(S'Marcel Reece'
p108
g15
tp109
a(S'Amari Cooper'
p110
g22
tp111
a(S'Michael Crabtree'
p112
g22
tp113
a(S'Andre Holmes'
p114
g22
tp115
a(S'Seth Roberts'
p116
g22
tp117
a(S'Jeremy Ross'
p118
g22
tp119
a(S'Rod Streater'
p120
g22
tp121
a(S'Gabe Holmes'
p122
g33
tp123
a(S'Mychal Rivera'
p124
g33
tp125
a(S'Lee Smith'
p126
g33
tp127
a(S'Clive Walford'
p128
g33
tp129
a(S'Sebastian Janikowski'
p130
g42
tp131
asg44
I01
sg45
F24.0
sg46
F283.0
sg47
F1.0
sg48
F2.0
sg49
F0.0
sg50
S'34-20'
p132
sg52
I00
sg53
F99.0
sg54
F0.0
ssS'12'
p133
(dp134
g5
F38.0
sg6
F0.0
sg7
(lp135
(S'Josh Johnson'
p136
g10
tp137
a(S'EJ Manuel'
p138
g10
tp139
a(S'Tyrod Taylor'
p140
g10
tp141
a(S'Anthony Dixon'
p142
g15
tp143
a(S'Jerome Felton'
p144
g15
tp145
a(S'LeSean McCoy'
p146
g15
tp147
a(S'Karlos Williams'
p148
g15
tp149
a(S'Marcus Easley'
p150
g22
tp151
a(S'Chris Hogan'
p152
g22
tp153
a(S'Sammy Watkins'
p154
g22
tp155
a(S'Robert Woods'
p156
g22
tp157
a(S'Charles Clay'
p158
g33
tp159
a(S'Chris Gragg'
p160
g33
tp161
a(S'Matthew Mulligan'
p162
g33
tp163
a(S'Dan Carpenter'
p164
g42
tp165
a(S'Jordan Gay'
p166
g42
tp167
asg44
I01
sg45
F28.0
sg46
F291.0
sg47
F1.0
sg48
F3.0
sg49
F1.0
sg50
S'30-22'
p168
sg52
I01
sg53
F129.0
sg54
F0.0
ssS'15'
p169
(dp170
g5
F45.0
sg6
F0.0
sg7
(lp171
(S'Jimmy Clausen'
p172
g10
tp173
a(S'Ryan Mallett'
p174
g10
tp175
a(S'Matt Schaub'
p176
g10
tp177
a(S'Javorius Allen'
p178
g15
tp179
a(S'Kyle Juszczyk'
p180
g15
tp181
a(S'Terrence Magee'
p182
g15
tp183
a(S'Terrance West'
p184
g15
tp185
a(S'Kamar Aiken'
p186
g22
tp187
a(S'Daniel Brown'
p188
g22
tp189
a(S'Jeremy Butler'
p190
g22
tp191
a(S'Kaelin Clay'
p192
g22
tp193
a(S'Chris Givens'
p194
g22
tp195
a(S'Chris Matthews'
p196
g22
tp197
a(S'Crockett Gillmore'
p198
g33
tp199
a(S'Richard Gordon'
p200
g33
tp201
a(S'Konrad Reuland'
p202
g33
tp203
a(S'Maxx Williams'
p204
g33
tp205
a(S'Justin Tucker'
p206
g42
tp207
asg44
I01
sg45
F19.0
sg46
F281.0
sg47
F0.0
sg48
F2.0
sg49
F0.0
sg50
S'34-14'
p208
sg52
I00
sg53
F86.0
sg54
F0.0
ssS'14'
p209
(dp210
g5
F43.0
sg6
F0.0
sg7
(lp211
(S'Kellen Clemens'
p212
g10
tp213
a(S'Philip Rivers'
p214
g10
tp215
a(S'Donald Brown'
p216
g15
tp217
a(S'Melvin Gordon'
p218
g15
tp219
a(S'Danny Woodhead'
p220
g15
tp221
a(S'Vincent Brown'
p222
g22
tp223
a(S'Malcom Floyd'
p224
g22
tp225
a(S'Javontee Herndon'
p226
g22
tp227
a(S'Dontrelle Inman'
p228
g22
tp229
a(S'Steve Johnson'
p230
g22
tp231
a(S'Tyrell Williams'
p232
g22
tp233
a(S'Antonio Gates'
p234
g33
tp235
a(S'Ladarius Green'
p236
g33
tp237
a(S'David Johnson'
p238
g33
tp239
a(S'John Phillips'
p240
g33
tp241
a(S'Josh Lambo'
p242
g42
tp243
asg44
I01
sg45
F18.0
sg46
F263.0
sg47
F2.0
sg48
F0.0
sg49
F1.0
sg50
S'10-3'
p244
sg52
I01
sg53
F44.0
sg54
F0.0
ssS'17'
p245
(dp246
g5
F33.0
sg6
F0.0
sg7
(lp247
(S'Derek Carr'
p248
g10
tp249
a(S'Matt McGloin'
p250
g10
tp251
a(S'Roy Helu'
p252
g15
tp253
a(S'Taiwan Jones'
p254
g15
tp255
a(S'Latavius Murray'
p256
g15
tp257
a(S'Jamize Olawale'
p258
g15
tp259
a(S'Amari Cooper'
p260
g22
tp261
a(S'Michael Crabtree'
p262
g22
tp263
a(S'Andre Holmes'
p264
g22
tp265
a(S'Seth Roberts'
p266
g22
tp267
a(S'Jeremy Ross'
p268
g22
tp269
a(S'Rod Streater'
p270
g22
tp271
a(S'Gabe Holmes'
p272
g33
tp273
a(S'Mychal Rivera'
p274
g33
tp275
a(S'Lee Smith'
p276
g33
tp277
a(S'Clive Walford'
p278
g33
tp279
a(S'Sebastian Janikowski'
p280
g42
tp281
asg44
I01
sg45
F16.0
sg46
F194.0
sg47
F1.0
sg48
F1.0
sg49
F1.0
sg50
S'23-17'
p282
sg52
I01
sg53
F48.0
sg54
F0.0
ssS'16'
p283
(dp284
g5
F32.0
sg6
F1.0
sg7
(lp285
(S'Austin Davis'
p286
g10
tp287
a(S'Johnny Manziel'
p288
g10
tp289
a(S'Isaiah Crowell'
p290
g15
tp291
a(S'Duke Johnson'
p292
g15
tp293
a(S'Raheem Mostert'
p294
g15
tp295
a(S'Daryl Richardson'
p296
g15
tp297
a(S'Glenn Winston'
p298
g15
tp299
a(S'Travis Benjamin'
p300
g22
tp301
a(S'Dwayne Bowe'
p302
g22
tp303
a(S'Taylor Gabriel'
p304
g22
tp305
a(S'Rannell Hall'
p306
g22
tp307
a(S'Darius Jennings'
p308
g22
tp309
a(S'Marlon Moore'
p310
g22
tp311
a(S'Terrelle Pryor'
p312
g22
tp313
a(S'Gary Barnidge'
p314
g33
tp315
a(S'E.J. Bibbs'
p316
g33
tp317
a(S'Jim Dray'
p318
g33
tp319
a(S'Travis Coons'
p320
g42
tp321
asg44
I01
sg45
F35.0
sg46
F136.0
sg47
F3.0
sg48
F0.0
sg49
F2.0
sg50
S'17-13'
p322
sg52
I01
sg53
F222.0
sg54
F1.0
ssS'1'
p323
(dp324
g5
F47.0
sg6
F0.0
sg7
(lp325
(S'Brian Hoyer'
p326
g10
tp327
a(S'Ryan Mallett'
p328
g10
tp329
a(S'Alfred Blue'
p330
g15
tp331
a(S'Arian Foster'
p332
g15
tp333
a(S'Jonathan Grimes'
p334
g15
tp335
a(S'Chris Polk'
p336
g15
tp337
a(S'Jay Prosch'
p338
g15
tp339
a(S'DeAndre Hopkins'
p340
g22
tp341
a(S'Keshawn Martin'
p342
g22
tp343
a(S'Keith Mumphery'
p344
g22
tp345
a(S'Cecil Shorts'
p346
g22
tp347
a(S'Jaelen Strong'
p348
g22
tp349
a(S'Nate Washington'
p350
g22
tp351
a(S'C.J. Fiedorowicz'
p352
g33
tp353
a(S'Garrett Graham'
p354
g33
tp355
a(S'Ryan Griffin'
p356
g33
tp357
a(S'Randy Bullock'
p358
g42
tp359
asg44
I01
sg45
F21.0
sg46
F334.0
sg47
F2.0
sg48
F2.0
sg49
F2.0
sg50
S'27-20'
p360
sg52
I00
sg53
F98.0
sg54
F0.0
ssS'3'
p361
(dp362
g5
F35.0
sg6
F0.0
sg7
(lp363
(S'Brett Hundley'
p364
g10
tp365
a(S'Aaron Rodgers'
p366
g10
tp367
a(S'Scott Tolzien'
p368
g10
tp369
a(S'John Kuhn'
p370
g15
tp371
a(S'Eddie Lacy'
p372
g15
tp373
a(S'Aaron Ripkowski'
p374
g15
tp375
a(S'James Starks'
p376
g15
tp377
a(S'Davante Adams'
p378
g22
tp379
a(S'Randall Cobb'
p380
g22
tp381
a(S'Jeff Janis'
p382
g22
tp383
a(S'James Jones'
p384
g22
tp385
a(S'Ty Montgomery'
p386
g22
tp387
a(S'Kennard Backman'
p388
g33
tp389
a(S'Andrew Quarless'
p390
g33
tp391
a(S'Richard Rodgers'
p392
g33
tp393
a(S'Mason Crosby'
p394
g42
tp395
asg44
I00
sg45
F30.0
sg46
F333.0
sg47
F1.0
sg48
F5.0
sg49
F1.0
sg50
S'28-38'
p396
sg52
I00
sg53
F106.0
sg54
F0.0
ssS'2'
p397
(dp398
g5
F0.0
sg6
F0.0
sg7
(lp399
(S'Brock Osweiler'
p400
g10
tp401
a(S'Trevor Siemian'
p402
g10
tp403
a(S'C.J. Anderson'
p404
g15
tp405
a(S'Ronnie Hillman'
p406
g15
tp407
a(S'Juwan Thompson'
p408
g15
tp409
a(S'Andre Caldwell'
p410
g22
tp411
a(S'Bennie Fowler'
p412
g22
tp413
a(S'Cody Latimer'
p414
g22
tp415
a(S'Jordan Norwood'
p416
g22
tp417
a(S'Emmanuel Sanders'
p418
g22
tp419
a(S'Demaryius Thomas'
p420
g22
tp421
a(S'Owen Daniels'
p422
g33
tp423
a(S'Virgil Green'
p424
g33
tp425
a(S'Mitchell Henry'
p426
g33
tp427
a(S'Brandon McManus'
p428
g42
tp429
asg44
I00
sg45
F22.0
sg46
F0.0
sg47
F1.0
sg48
F0.0
sg49
F1.0
sg50
S'24-31'
p430
sg52
I01
sg53
F61.0
sg54
F0.0
ssS'5'
p431
(dp432
g5
F45.0
sg6
F0.0
sg7
(lp433
(S'Jimmy Clausen'
p434
g10
tp435
a(S'Jay Cutler'
p436
g10
tp437
a(S'David Fales'
p438
g10
tp439
a(S"Ka'Deem Carey"
p440
g15
tp441
a(S'Matt Forte'
p442
g15
tp443
a(S'Jeremy Langford'
p444
g15
tp445
a(S'Jacquizz Rodgers'
p446
g15
tp447
a(S'Josh Bellamy'
p448
g22
tp449
a(S'Alshon Jeffery'
p450
g22
tp451
a(S'Marc Mariani'
p452
g22
tp453
a(S'Cameron Meredith'
p454
g22
tp455
a(S'Eddie Royal'
p456
g22
tp457
a(S'Marquess Wilson'
p458
g22
tp459
a(S'Martellus Bennett'
p460
g33
tp461
a(S'Khari Lee'
p462
g33
tp463
a(S'Zach Miller'
p464
g33
tp465
a(S'Robbie Gould'
p466
g42
tp467
asg44
I00
sg45
F26.0
sg46
F252.0
sg47
F2.0
sg48
F2.0
sg49
F2.0
sg50
S'17-18'
p468
sg52
I01
sg53
F87.0
sg54
F0.0
ssS'4'
p469
(dp470
g5
F24.0
sg6
F4.0
sg7
(lp471
(S'Andy Dalton'
p472
g10
tp473
a(S'AJ McCarron'
p474
g10
tp475
a(S'Giovani Bernard'
p476
g15
tp477
a(S'Rex Burkhead'
p478
g15
tp479
a(S'Jeremy Hill'
p480
g15
tp481
a(S'Cedric Peerman'
p482
g15
tp483
a(S'Mario Alford'
p484
g22
tp485
a(S'A.J. Green'
p486
g22
tp487
a(S'Marvin Jones'
p488
g22
tp489
a(S'Greg Little'
p490
g22
tp491
a(S'Mohamed Sanu'
p492
g22
tp493
a(S'Brandon Tate'
p494
g22
tp495
a(S'Tyler Eifert'
p496
g33
tp497
a(S'Ryan Hewitt'
p498
g33
tp499
a(S'Tyler Kroft'
p500
g33
tp501
a(S'C.J. Uzomah'
p502
g33
tp503
a(S'Mike Nugent'
p504
g42
tp505
asg44
I00
sg45
F26.0
sg46
F321.0
sg47
F1.0
sg48
F1.0
sg49
F0.0
sg50
S'21-36'
p506
sg52
I00
sg53
F124.0
sg54
F0.0
ssS'7'
p507
(dp508
g5
F29.0
sg6
F0.0
sg7
(lp509
(S'Landry Jones'
p510
g10
tp511
a(S'Ben Roethlisberger'
p512
g10
tp513
a(S'Mike Vick'
p514
g10
tp515
a(S'Dri Archer'
p516
g15
tp517
a(S"Le'Veon Bell"
p518
g15
tp519
a(S'Will Johnson'
p520
g15
tp521
a(S'Roosevelt Nix-Jones'
p522
g15
tp523
a(S'Jordan Todman'
p524
g15
tp525
a(S'DeAngelo Williams'
p526
g15
tp527
a(S'Antonio Brown'
p528
g22
tp529
a(S'Martavis Bryant'
p530
g22
tp531
a(S'Sammie Coates'
p532
g22
tp533
a(S'Darrius Heyward-Bey'
p534
g22
tp535
a(S'Tyler Murphy'
p536
g22
tp537
a(S'Markus Wheaton'
p538
g22
tp539
a(S'Jesse James'
p540
g33
tp541
a(S'Matt Spaeth'
p542
g33
tp543
a(S'Chris Boswell'
p544
g42
tp545
asg44
I01
sg45
F24.0
sg46
F209.0
sg47
F2.0
sg48
F1.0
sg49
F2.0
sg50
S'23-13'
p546
sg52
I01
sg53
F147.0
sg54
F0.0
ssS'6'
p547
(dp548
g5
F31.0
sg6
F0.0
sg7
(lp549
(S'Teddy Bridgewater'
p550
g10
tp551
a(S'Taylor Heinicke'
p552
g10
tp553
a(S'Shaun Hill'
p554
g10
tp555
a(S'Matt Asiata'
p556
g15
tp557
a(S'Zach Line'
p558
g15
tp559
a(S'Jerick McKinnon'
p560
g15
tp561
a(S'Adrian Peterson'
p562
g15
tp563
a(S'Stefon Diggs'
p564
g22
tp565
a(S'Charles Johnson'
p566
g22
tp567
a(S'Cordarrelle Patterson'
p568
g22
tp569
a(S'Adam Thielen'
p570
g22
tp571
a(S'Mike Wallace'
p572
g22
tp573
a(S'Jarius Wright'
p574
g22
tp575
a(S'Rhett Ellison'
p576
g33
tp577
a(S'MyCole Pruitt'
p578
g33
tp579
a(S'Kyle Rudolph'
p580
g33
tp581
a(S'Blair Walsh'
p582
g42
tp583
asg44
I00
sg45
F35.0
sg46
F249.0
sg47
F3.0
sg48
F1.0
sg49
F3.0
sg50
S'10-16'
p584
sg52
I00
sg53
F84.0
sg54
F0.0
ssS'9'
p585
(dp586
g5
F0.0
sg6
F0.0
sg7
(lp587
(S'Zach Sudfeld'
p588
g33
tp589
asg44
I01
sg45
F0.0
sg46
F0.0
sg47
F0.0
sg48
F0.0
sg49
F0.0
sg50
S'24-10'
p590
sg52
I01
sg53
F0.0
sg54
F0.0
ssS'8'
p591
(dp592
g5
F38.0
sg6
F0.0
sg7
(lp593
(S'Dan Orlovsky'
p594
g10
tp595
a(S'Matthew Stafford'
p596
g10
tp597
a(S'Ameer Abdullah'
p598
g15
tp599
a(S'Michael Burton'
p600
g15
tp601
a(S'Theo Riddick'
p602
g15
tp603
a(S'George Winn'
p604
g15
tp605
a(S'Corey Fuller'
p606
g22
tp607
a(S'T.J. Jones'
p608
g22
tp609
a(S'Lance Moore'
p610
g22
tp611
a(S'Golden Tate'
p612
g22
tp613
a(S'Eric Ebron'
p614
g33
tp615
a(S'Brandon Pettigrew'
p616
g33
tp617
a(S'Timothy Wright'
p618
g33
tp619
a(S'Matt Prater'
p620
g42
tp621
asg44
I01
sg45
F7.0
sg46
F227.0
sg47
F1.0
sg48
F1.0
sg49
F1.0
sg50
S'45-10'
p622
sg52
I01
sg53
F25.0
sg54
F0.0
sssS'2014'
p623
(dp624
g3
(dp625
g5
F32.0
sg6
F0.0
sg7
(lp626
(S'Tarvaris Jackson'
p627
g10
tp628
a(S'Russell Wilson'
p629
g10
tp630
a(S'Christine Michael'
p631
g15
tp632
a(S'Will Tukuafu'
p633
g15
tp634
a(S'Robert Turbin'
p635
g15
tp636
a(S'Doug Baldwin'
p637
g22
tp638
a(S'Jermaine Kearse'
p639
g22
tp640
a(S'Ricardo Lockette'
p641
g22
tp642
a(S'Kevin Norwood'
p643
g22
tp644
a(S'Paul Richardson'
p645
g22
tp646
a(S'Bryan Walters'
p647
g22
tp648
a(S'RaShaun Allen'
p649
g33
tp650
a(S'Cooper Helfet'
p651
g33
tp652
a(S'Tony Moeaki'
p653
g33
tp654
a(S'Luke Willson'
p655
g33
tp656
a(S'Steven Hauschka'
p657
g42
tp658
asg44
I01
sg45
F13.0
sg46
F178.0
sg47
F2.0
sg48
F2.0
sg49
F2.0
sg50
S'24-20'
p659
sg52
I01
sg53
F80.0
sg54
F0.0
ssg55
(dp660
g5
F0.0
sg6
F0.0
sg7
(lp661
(S'EJ Manuel'
p662
g10
tp663
a(S'Bryce Brown'
p664
g15
tp665
a(S'Anthony Dixon'
p666
g15
tp667
a(S'Fred Jackson'
p668
g15
tp669
a(S'Marcus Easley'
p670
g22
tp671
a(S'Marquise Goodwin'
p672
g22
tp673
a(S'Chris Hogan'
p674
g22
tp675
a(S'Sammy Watkins'
p676
g22
tp677
a(S'Mike Williams'
p678
g22
tp679
a(S'Robert Woods'
p680
g22
tp681
a(S'Scott Chandler'
p682
g33
tp683
a(S'Chris Gragg'
p684
g33
tp685
a(S'Lee Smith'
p686
g33
tp687
a(S'Dan Carpenter'
p688
g42
tp689
a(S'Jordan Gay'
p690
g42
tp691
asg44
I01
sg45
F19.0
sg46
F0.0
sg47
F2.0
sg48
F0.0
sg49
F2.0
sg50
S'17-13'
p692
sg52
I00
sg53
F107.0
sg54
F0.0
ssg93
(dp693
g5
F0.0
sg6
F0.0
sg7
(lp694
(S'Brock Osweiler'
p695
g10
tp696
a(S'C.J. Anderson'
p697
g15
tp698
a(S'Ronnie Hillman'
p699
g15
tp700
a(S'Juwan Thompson'
p701
g15
tp702
a(S'Isaiah Burse'
p703
g22
tp704
a(S'Andre Caldwell'
p705
g22
tp706
a(S'Cody Latimer'
p707
g22
tp708
a(S'Emmanuel Sanders'
p709
g22
tp710
a(S'Demaryius Thomas'
p711
g22
tp712
a(S'Wes Welker'
p713
g22
tp714
a(S'Virgil Green'
p715
g33
tp716
a(S'Jacob Tamme'
p717
g33
tp718
a(S'Julius Thomas'
p719
g33
tp720
a(S'Connor Barth'
p721
g42
tp722
asg44
I00
sg45
F42.0
sg46
F0.0
sg47
F5.0
sg48
F0.0
sg49
F5.0
sg50
S'16-29'
p723
sg52
I01
sg53
F207.0
sg54
F0.0
ssg133
(dp724
g5
F35.0
sg6
F2.0
sg7
(lp725
(S'Derek Carr'
p726
g10
tp727
a(S'Matt McGloin'
p728
g10
tp729
a(S'Matt Schaub'
p730
g10
tp731
a(S'Darren McFadden'
p732
g15
tp733
a(S'Latavius Murray'
p734
g15
tp735
a(S'Jamize Olawale'
p736
g15
tp737
a(S'Marcel Reece'
p738
g15
tp739
a(S'Vincent Brown'
p740
g22
tp741
a(S'Brice Butler'
p742
g22
tp743
a(S'Andre Holmes'
p744
g22
tp745
a(S'James Jones'
p746
g22
tp747
a(S'Kenbrell Thompkins'
p748
g22
tp749
a(S'Brian Leonhardt'
p750
g33
tp751
a(S'Mychal Rivera'
p752
g33
tp753
a(S'Sebastian Janikowski'
p754
g42
tp755
asg44
I00
sg45
F27.0
sg46
F174.0
sg47
F1.0
sg48
F1.0
sg49
F1.0
sg50
S'20-24'
p756
sg52
I00
sg53
F180.0
sg54
F0.0
ssg169
(dp757
g5
F56.0
sg6
F0.0
sg7
(lp758
(S'Derek Carr'
p759
g10
tp760
a(S'Matt McGloin'
p761
g10
tp762
a(S'Matt Schaub'
p763
g10
tp764
a(S'George Atkinson'
p765
g15
tp766
a(S'Darren McFadden'
p767
g15
tp768
a(S'Latavius Murray'
p769
g15
tp770
a(S'Jamize Olawale'
p771
g15
tp772
a(S'Marcel Reece'
p773
g15
tp774
a(S'Vincent Brown'
p775
g22
tp776
a(S'Brice Butler'
p777
g22
tp778
a(S'Andre Holmes'
p779
g22
tp780
a(S'James Jones'
p781
g22
tp782
a(S'Kenbrell Thompkins'
p783
g22
tp784
a(S'Brian Leonhardt'
p785
g33
tp786
a(S'Mychal Rivera'
p787
g33
tp788
a(S'Scott Simonson'
p789
g33
tp790
a(S'Sebastian Janikowski'
p791
g42
tp792
asg44
I01
sg45
F15.0
sg46
F222.0
sg47
F2.0
sg48
F1.0
sg49
F2.0
sg50
S'31-13'
p793
sg52
I01
sg53
F72.0
sg54
F0.0
ssg209
(dp794
g5
F30.0
sg6
F0.0
sg7
(lp795
(S'Drew Stanton'
p796
g10
tp797
a(S'Logan Thomas'
p798
g10
tp799
a(S'Andre Ellington'
p800
g15
tp801
a(S'Stepfan Taylor'
p802
g15
tp803
a(S'Kerwynn Williams'
p804
g15
tp805
a(S'Jaron Brown'
p806
g22
tp807
a(S'John Brown'
p808
g22
tp809
a(S'Larry Fitzgerald'
p810
g22
tp811
a(S'Michael Floyd'
p812
g22
tp813
a(S'Ted Ginn'
p814
g22
tp815
a(S'Darren Fells'
p816
g33
tp817
a(S'Rob Housler'
p818
g33
tp819
a(S'Chandler Catanzaro'
p820
g42
tp821
asg44
I00
sg45
F29.0
sg46
F239.0
sg47
F5.0
sg48
F1.0
sg49
F3.0
sg50
S'14-17'
p822
sg52
I00
sg53
F136.0
sg54
F0.0
ssg245
(dp823
g5
F34.0
sg6
F1.0
sg7
(lp824
(S'Kellen Clemens'
p825
g10
tp826
a(S'Philip Rivers'
p827
g10
tp828
a(S'Donald Brown'
p829
g15
tp830
a(S'Ryan Mathews'
p831
g15
tp832
a(S'Branden Oliver'
p833
g15
tp834
a(S'Seyi Ajirotutu'
p835
g22
tp836
a(S'Keenan Allen'
p837
g22
tp838
a(S'Malcom Floyd'
p839
g22
tp840
a(S'Dontrelle Inman'
p841
g22
tp842
a(S'Eddie Royal'
p843
g22
tp844
a(S'Antonio Gates'
p845
g33
tp846
a(S'Ladarius Green'
p847
g33
tp848
a(S'David Johnson'
p849
g33
tp850
a(S'John Phillips'
p851
g33
tp852
a(S'Nick Novak'
p853
g42
tp854
asg44
I01
sg45
F25.0
sg46
F291.0
sg47
F1.0
sg48
F0.0
sg49
F0.0
sg50
S'19-7'
p855
sg52
I01
sg53
F112.0
sg54
F0.0
ssg283
(dp856
g5
F25.0
sg6
F1.0
sg7
(lp857
(S'Bruce Gradkowski'
p858
g10
tp859
a(S'Landry Jones'
p860
g10
tp861
a(S'Ben Roethlisberger'
p862
g10
tp863
a(S'Dri Archer'
p864
g15
tp865
a(S"Le'Veon Bell"
p866
g15
tp867
a(S'Will Johnson'
p868
g15
tp869
a(S'Antonio Brown'
p870
g22
tp871
a(S'Martavis Bryant'
p872
g22
tp873
a(S'Darrius Heyward-Bey'
p874
g22
tp875
a(S'Lance Moore'
p876
g22
tp877
a(S'Markus Wheaton'
p878
g22
tp879
a(S'Matt Spaeth'
p880
g33
tp881
a(S'Shaun Suisham'
p882
g42
tp883
asg44
I00
sg45
F26.0
sg46
F220.0
sg47
F2.0
sg48
F1.0
sg49
F2.0
sg50
S'12-20'
p884
sg52
I00
sg53
F68.0
sg54
F0.0
ssg323
(dp885
g5
F0.0
sg6
F0.0
sg7
(lp886
(S'Zach Mettenberger'
p887
g10
tp888
a(S'Dexter McCluster'
p889
g15
tp890
a(S'Bishop Sankey'
p891
g15
tp892
a(S'T.J. Graham'
p893
g22
tp894
a(S'Justin Hunter'
p895
g22
tp896
a(S'Nate Washington'
p897
g22
tp898
a(S'Kendall Wright'
p899
g22
tp900
a(S'Craig Stevens'
p901
g33
tp902
a(S'Delanie Walker'
p903
g33
tp904
a(S'Ryan Succop'
p905
g42
tp906
asg44
I00
sg45
F15.0
sg46
F0.0
sg47
F4.0
sg48
F0.0
sg49
F4.0
sg50
S'10-26'
p907
sg52
I01
sg53
F54.0
sg54
F0.0
ssg361
(dp908
g5
F43.0
sg6
F0.0
sg7
(lp909
(S'Matt Moore'
p910
g10
tp911
a(S'Ryan Tannehill'
p912
g10
tp913
a(S'Orleans Darkwa'
p914
g15
tp915
a(S'Lamar Miller'
p916
g15
tp917
a(S'Daniel Thomas'
p918
g15
tp919
a(S'Damien Williams'
p920
g15
tp921
a(S'Brandon Gibson'
p922
g22
tp923
a(S'Brian Hartline'
p924
g22
tp925
a(S'Jarvis Landry'
p926
g22
tp927
a(S'Rishard Matthews'
p928
g22
tp929
a(S'Mike Wallace'
p930
g22
tp931
a(S'Charles Clay'
p932
g33
tp933
a(S'Dion Sims'
p934
g33
tp935
a(S'Caleb Sturgis'
p936
g42
tp937
asg44
I01
sg45
F20.0
sg46
F205.0
sg47
F3.0
sg48
F1.0
sg49
F2.0
sg50
S'34-15'
p938
sg52
I00
sg53
F141.0
sg54
F0.0
ssg397
(dp939
g5
F0.0
sg6
F0.0
sg7
(lp940
(S'Brock Osweiler'
p941
g10
tp942
a(S'C.J. Anderson'
p943
g15
tp944
a(S'Ronnie Hillman'
p945
g15
tp946
a(S'Juwan Thompson'
p947
g15
tp948
a(S'Isaiah Burse'
p949
g22
tp950
a(S'Andre Caldwell'
p951
g22
tp952
a(S'Cody Latimer'
p953
g22
tp954
a(S'Emmanuel Sanders'
p955
g22
tp956
a(S'Demaryius Thomas'
p957
g22
tp958
a(S'Virgil Green'
p959
g33
tp960
a(S'Jacob Tamme'
p961
g33
tp962
a(S'Julius Thomas'
p963
g33
tp964
a(S'Brandon McManus'
p965
g42
tp966
asg44
I00
sg45
F6.0
sg46
F0.0
sg47
F1.0
sg48
F0.0
sg49
F1.0
sg50
S'17-24'
p967
sg52
I00
sg53
F29.0
sg54
F0.0
ssg431
(dp968
g5
F26.0
sg6
F0.0
sg7
(lp969
(S'Blaine Gabbert'
p970
g10
tp971
a(S'Josh Johnson'
p972
g10
tp973
a(S'Colin Kaepernick'
p974
g10
tp975
a(S'Frank Gore'
p976
g15
tp977
a(S'Carlos Hyde'
p978
g15
tp979
a(S'Bruce Miller'
p980
g15
tp981
a(S'Anquan Boldin'
p982
g22
tp983
a(S'Michael Crabtree'
p984
g22
tp985
a(S'Bruce Ellington'
p986
g22
tp987
a(S'Steve Johnson'
p988
g22
tp989
a(S'Quinton Patton'
p990
g22
tp991
a(S'Derek Carrier'
p992
g33
tp993
a(S'Vernon Davis'
p994
g33
tp995
a(S'Vance McDonald'
p996
g33
tp997
a(S'Phil Dawson'
p998
g42
tp999
asg44
I00
sg45
F39.0
sg46
F201.0
sg47
F5.0
sg48
F1.0
sg49
F5.0
sg50
S'17-22'
p1000
sg52
I00
sg53
F168.0
sg54
F0.0
ssg469
(dp1001
g5
F30.0
sg6
F0.0
sg7
(lp1002
(S'Tom Brady'
p1003
g10
tp1004
a(S'Jimmy Garoppolo'
p1005
g10
tp1006
a(S'Brandon Bolden'
p1007
g15
tp1008
a(S'James Develin'
p1009
g15
tp1010
a(S'Stevan Ridley'
p1011
g15
tp1012
a(S'Shane Vereen'
p1013
g15
tp1014
a(S'James White'
p1015
g15
tp1016
a(S'Danny Amendola'
p1017
g22
tp1018
a(S'Aaron Dobson'
p1019
g22
tp1020
a(S'Julian Edelman'
p1021
g22
tp1022
a(S'Brandon LaFell'
p1023
g22
tp1024
a(S'Matthew Slater'
p1025
g22
tp1026
a(S'Kenbrell Thompkins'
p1027
g22
tp1028
a(S'Rob Gronkowski'
p1029
g33
tp1030
a(S'Michael Hoomanawanui'
p1031
g33
tp1032
a(S'Timothy Wright'
p1033
g33
tp1034
a(S'Stephen Gostkowski'
p1035
g42
tp1036
asg44
I01
sg45
F16.0
sg46
F229.0
sg47
F0.0
sg48
F2.0
sg49
F0.0
sg50
S'41-14'
p1037
sg52
I01
sg53
F75.0
sg54
F0.0
ssg507
(dp1038
g5
F31.0
sg6
F0.0
sg7
(lp1039
(S'Kellen Clemens'
p1040
g10
tp1041
a(S'Philip Rivers'
p1042
g10
tp1043
a(S'Donald Brown'
p1044
g15
tp1045
a(S'Shaun Draughn'
p1046
g15
tp1047
a(S'Ryan Mathews'
p1048
g15
tp1049
a(S'Branden Oliver'
p1050
g15
tp1051
a(S'Seyi Ajirotutu'
p1052
g22
tp1053
a(S'Keenan Allen'
p1054
g22
tp1055
a(S'Malcom Floyd'
p1056
g22
tp1057
a(S'Dontrelle Inman'
p1058
g22
tp1059
a(S'Eddie Royal'
p1060
g22
tp1061
a(S'Antonio Gates'
p1062
g33
tp1063
a(S'Ladarius Green'
p1064
g33
tp1065
a(S'David Johnson'
p1066
g33
tp1067
a(S'John Phillips'
p1068
g33
tp1069
a(S'Nick Novak'
p1070
g42
tp1071
asg44
I01
sg45
F15.0
sg46
F205.0
sg47
F2.0
sg48
F2.0
sg49
F2.0
sg50
S'23-20'
p1072
sg52
I00
sg53
F67.0
sg54
F0.0
ssg547
(dp1073
g5
F0.0
sg6
F0.0
sg7
(lp1074
sg44
(lp1075
sg45
F0.0
sg46
F0.0
sg47
F0.0
sg48
F0.0
sg49
F0.0
sg50
(lp1076
sg52
(lp1077
sg53
F0.0
sg54
F0.0
ssg585
(dp1078
g5
F36.0
sg6
F0.0
sg7
(lp1079
(S'Matt Simms'
p1080
g10
tp1081
a(S'Geno Smith'
p1082
g10
tp1083
a(S'Mike Vick'
p1084
g10
tp1085
a(S'Chris Ivory'
p1086
g15
tp1087
a(S'Chris Johnson'
p1088
g15
tp1089
a(S'Bilal Powell'
p1090
g15
tp1091
a(S'Eric Decker'
p1092
g22
tp1093
a(S'T.J. Graham'
p1094
g22
tp1095
a(S'Saalim Hakim'
p1096
g22
tp1097
a(S'Percy Harvin'
p1098
g22
tp1099
a(S'Jeremy Kerley'
p1100
g22
tp1101
a(S'Walt Powell'
p1102
g22
tp1103
a(S'Greg Salas'
p1104
g22
tp1105
a(S'Jace Amaro'
p1106
g33
tp1107
a(S'Jeff Cumberland'
p1108
g33
tp1109
a(S'Zach Sudfeld'
p1110
g33
tp1111
a(S'Nick Folk'
p1112
g42
tp1113
asg44
I01
sg45
F30.0
sg46
F235.0
sg47
F1.0
sg48
F1.0
sg49
F1.0
sg50
S'24-10'
p1114
sg52
I01
sg53
F139.0
sg54
F0.0
ssg591
(dp1115
g5
F25.0
sg6
F0.0
sg7
(lp1116
(S'Austin Davis'
p1117
g10
tp1118
a(S'Shaun Hill'
p1119
g10
tp1120
a(S'Case Keenum'
p1121
g10
tp1122
a(S'Benny Cunningham'
p1123
g15
tp1124
a(S'Tre Mason'
p1125
g15
tp1126
a(S'Chase Reynolds'
p1127
g15
tp1128
a(S'Zac Stacy'
p1129
g15
tp1130
a(S'Tavon Austin'
p1131
g22
tp1132
a(S'Stedman Bailey'
p1133
g22
tp1134
a(S'Kenny Britt'
p1135
g22
tp1136
a(S'Chris Givens'
p1137
g22
tp1138
a(S'Brian Quick'
p1139
g22
tp1140
a(S'Jared Cook'
p1141
g33
tp1142
a(S'Cory Harkey'
p1143
g33
tp1144
a(S'Lance Kendricks'
p1145
g33
tp1146
a(S'Greg Zuerlein'
p1147
g42
tp1148
asg44
I01
sg45
F19.0
sg46
F160.0
sg47
F1.0
sg48
F1.0
sg49
F0.0
sg50
S'34-7'
p1149
sg52
I01
sg53
F84.0
sg54
F0.0
sssS'2011'
p1150
(dp1151
g3
(dp1152
g5
F27.0
sg6
F1.0
sg7
(lp1153
(S'Tom Brady'
p1154
g10
tp1155
a(S'Brian Hoyer'
p1156
g10
tp1157
a(S'Ryan Mallett'
p1158
g10
tp1159
a(S'Stevan Ridley'
p1160
g15
tp1161
a(S'Shane Vereen'
p1162
g15
tp1163
a(S'Danny Woodhead'
p1164
g15
tp1165
a(S'Julian Edelman'
p1166
g22
tp1167
a(S'Matthew Slater'
p1168
g22
tp1169
a(S'Wes Welker'
p1170
g22
tp1171
a(S'Rob Gronkowski'
p1172
g33
tp1173
a(S'Stephen Gostkowski'
p1174
g42
tp1175
asg44
I00
sg45
F15.0
sg46
F234.0
sg47
F2.0
sg48
F2.0
sg49
F2.0
sg50
S'3-34'
p1176
sg52
I00
sg53
F76.0
sg54
F0.0
ssg55
(dp1177
g5
F0.0
sg6
F0.0
sg7
(lp1178
(S'Eric Decker'
p1179
g22
tp1180
a(S'Eddie Royal'
p1181
g22
tp1182
a(S'Demaryius Thomas'
p1183
g22
tp1184
a(S'Daniel Fells'
p1185
g33
tp1186
a(S'Virgil Green'
p1187
g33
tp1188
a(S'Julius Thomas'
p1189
g33
tp1190
a(S'Matt Prater'
p1191
g42
tp1192
asg44
I00
sg45
F3.0
sg46
F0.0
sg47
F2.0
sg48
F0.0
sg49
F1.0
sg50
S'10-17'
p1193
sg52
I01
sg53
F19.0
sg54
F0.0
ssg93
(dp1194
g5
F0.0
sg6
F0.0
sg7
(lp1195
(S'Jay Cutler'
p1196
g10
tp1197
a(S'Josh McCown'
p1198
g10
tp1199
a(S'Tyler Clutts'
p1200
g15
tp1201
a(S'Matt Forte'
p1202
g15
tp1203
a(S'Devin Hester'
p1204
g22
tp1205
a(S'Kellen Davis'
p1206
g33
tp1207
a(S'Matt Spaeth'
p1208
g33
tp1209
a(S'Robbie Gould'
p1210
g42
tp1211
asg44
I01
sg45
F5.0
sg46
F0.0
sg47
F2.0
sg48
F0.0
sg49
F1.0
sg50
S'10-3'
p1212
sg52
I00
sg53
F12.0
sg54
F0.0
ssg133
(dp1213
g5
F31.0
sg6
F0.0
sg7
(lp1214
(S'Ben Roethlisberger'
p1215
g10
tp1216
a(S'Antonio Brown'
p1217
g22
tp1218
a(S'Jerricho Cotchery'
p1219
g22
tp1220
a(S'Emmanuel Sanders'
p1221
g22
tp1222
a(S'Mike Wallace'
p1223
g22
tp1224
a(S'David Johnson'
p1225
g33
tp1226
a(S'Shaun Suisham'
p1227
g42
tp1228
asg44
I00
sg45
F6.0
sg46
F193.0
sg47
F2.0
sg48
F1.0
sg49
F2.0
sg50
S'9-13'
p1229
sg52
I01
sg53
F13.0
sg54
F0.0
ssg169
(dp1230
g5
F35.0
sg6
F1.0
sg7
(lp1231
(S'Matt Flynn'
p1232
g10
tp1233
a(S'Aaron Rodgers'
p1234
g10
tp1235
a(S'John Kuhn'
p1236
g15
tp1237
a(S'James Starks'
p1238
g15
tp1239
a(S'Randall Cobb'
p1240
g22
tp1241
a(S'Greg Jennings'
p1242
g22
tp1243
a(S'James Jones'
p1244
g22
tp1245
a(S'Jordy Nelson'
p1246
g22
tp1247
a(S'Mason Crosby'
p1248
g42
tp1249
asg44
I01
sg45
F6.0
sg46
F235.0
sg47
F1.0
sg48
F1.0
sg49
F0.0
sg50
S'19-14'
p1250
sg52
I01
sg53
F36.0
sg54
F0.0
ssg209
(dp1251
g5
F21.0
sg6
F2.0
sg7
(lp1252
(S'Mark Sanchez'
p1253
g10
tp1254
a(S'Bilal Powell'
p1255
g15
tp1256
a(S'Jeremy Kerley'
p1257
g22
tp1258
a(S'Matthew Mulligan'
p1259
g33
tp1260
a(S'Nick Folk'
p1261
g42
tp1262
asg44
I00
sg45
F9.0
sg46
F181.0
sg47
F0.0
sg48
F2.0
sg49
F0.0
sg50
S'10-37'
p1263
sg52
I00
sg53
F16.0
sg54
F0.0
ssg245
(dp1264
g5
F0.0
sg6
F0.0
sg7
(lp1265
(S'Eric Decker'
p1266
g22
tp1267
a(S'Eddie Royal'
p1268
g22
tp1269
a(S'Demaryius Thomas'
p1270
g22
tp1271
a(S'Daniel Fells'
p1272
g33
tp1273
a(S'Virgil Green'
p1274
g33
tp1275
a(S'Julius Thomas'
p1276
g33
tp1277
a(S'Matt Prater'
p1278
g42
tp1279
asg44
I01
sg45
F2.0
sg46
F0.0
sg47
F1.0
sg48
F0.0
sg49
F1.0
sg50
S'7-3'
p1280
sg52
I00
sg53
F18.0
sg54
F0.0
ssg283
(dp1281
g5
F0.0
sg6
F0.0
sg7
(lp1282
(S'Taiwan Jones'
p1283
g15
tp1284
a(S'Darren McFadden'
p1285
g15
tp1286
a(S'Marcel Reece'
p1287
g15
tp1288
a(S'Darrius Heyward-Bey'
p1289
g22
tp1290
a(S'Louis Murphy'
p1291
g22
tp1292
a(S'Terrelle Pryor'
p1293
g22
tp1294
a(S'Richard Gordon'
p1295
g33
tp1296
a(S'Brandon Myers'
p1297
g33
tp1298
a(S'Sebastian Janikowski'
p1299
g42
tp1300
asg44
I00
sg45
F2.0
sg46
F0.0
sg47
F4.0
sg48
F0.0
sg49
F3.0
sg50
S'13-16'
p1301
sg52
I01
sg53
F1.0
sg54
F0.0
ssg323
(dp1302
g5
F25.0
sg6
F1.0
sg7
(lp1303
(S'Ryan Fitzpatrick'
p1304
g10
tp1305
a(S'Fred Jackson'
p1306
g15
tp1307
a(S'C.J. Spiller'
p1308
g15
tp1309
a(S'Marcus Easley'
p1310
g22
tp1311
a(S'Steve Johnson'
p1312
g22
tp1313
a(S'Scott Chandler'
p1314
g33
tp1315
a(S'Lee Smith'
p1316
g33
tp1317
asg44
I00
sg45
F28.0
sg46
F208.0
sg47
F0.0
sg48
F4.0
sg49
F0.0
sg50
S'7-41'
p1318
sg52
I01
sg53
F131.0
sg54
F0.0
ssg361
(dp1319
g5
F38.0
sg6
F2.0
sg7
(lp1320
(S'Philip Rivers'
p1321
g10
tp1322
a(S'Ryan Mathews'
p1323
g15
tp1324
a(S'Jordan Todman'
p1325
g15
tp1326
a(S'Mike Tolbert'
p1327
g15
tp1328
a(S'Vincent Brown'
p1329
g22
tp1330
a(S'Malcom Floyd'
p1331
g22
tp1332
a(S'Vincent Jackson'
p1333
g22
tp1334
a(S'Bryan Walters'
p1335
g22
tp1336
a(S'Antonio Gates'
p1337
g33
tp1338
a(S'Nick Novak'
p1339
g42
tp1340
asg44
I00
sg45
F29.0
sg46
F266.0
sg47
F2.0
sg48
F0.0
sg49
F2.0
sg50
S'17-20'
p1341
sg52
I00
sg53
F116.0
sg54
F0.0
ssg397
(dp1342
g5
F40.0
sg6
F0.0
sg7
(lp1343
(S'Shaun Hill'
p1344
g10
tp1345
a(S'Matthew Stafford'
p1346
g10
tp1347
a(S'Drew Stanton'
p1348
g10
tp1349
a(S'Brandon Pettigrew'
p1350
g33
tp1351
asg44
I00
sg45
F1.0
sg46
F322.0
sg47
F0.0
sg48
F4.0
sg49
F0.0
sg50
S'3-48'
p1352
sg52
I00
sg53
F1.0
sg54
F0.0
ssg431
(dp1353
g5
F0.0
sg6
F0.0
sg7
(lp1354
(S'Dan Orlovsky'
p1355
g10
tp1356
a(S'Donald Brown'
p1357
g15
tp1358
a(S'Pierre Garcon'
p1359
g22
tp1360
a(S'Jacob Tamme'
p1361
g33
tp1362
a(S'Adam Vinatieri'
p1363
g42
tp1364
asg44
I01
sg45
F8.0
sg46
F0.0
sg47
F1.0
sg48
F0.0
sg49
F1.0
sg50
S'28-24'
p1365
sg52
I00
sg53
F38.0
sg54
F0.0
ssg469
(dp1366
g5
F0.0
sg6
F0.0
sg7
(lp1367
(S'Joe Webb'
p1368
g10
tp1369
a(S'Toby Gerhart'
p1370
g15
tp1371
a(S'Adrian Peterson'
p1372
g15
tp1373
a(S'Percy Harvin'
p1374
g22
tp1375
a(S'Allen Reisner'
p1376
g33
tp1377
a(S'Kyle Rudolph'
p1378
g33
tp1379
asg44
I01
sg45
F29.0
sg46
F0.0
sg47
F0.0
sg48
F0.0
sg49
F0.0
sg50
S'22-17'
p1380
sg52
I01
sg53
F151.0
sg54
F0.0
ssg507
(dp1381
g5
F0.0
sg6
F0.0
sg7
(lp1382
(S'Taiwan Jones'
p1383
g15
tp1384
a(S'Darren McFadden'
p1385
g15
tp1386
a(S'Marcel Reece'
p1387
g15
tp1388
a(S'Darrius Heyward-Bey'
p1389
g22
tp1390
a(S'Louis Murphy'
p1391
g22
tp1392
a(S'Terrelle Pryor'
p1393
g22
tp1394
a(S'Richard Gordon'
p1395
g33
tp1396
a(S'Brandon Myers'
p1397
g33
tp1398
a(S'Sebastian Janikowski'
p1399
g42
tp1400
asg44
I01
sg45
F5.0
sg46
F0.0
sg47
F0.0
sg48
F0.0
sg49
F0.0
sg50
S'28-0'
p1401
sg52
I00
sg53
F22.0
sg54
F0.0
ssg547
(dp1402
g5
F0.0
sg6
F0.0
sg7
(lp1403
sg44
(lp1404
sg45
F0.0
sg46
F0.0
sg47
F0.0
sg48
F0.0
sg49
F0.0
sg50
(lp1405
sg52
(lp1406
sg53
F0.0
sg54
F0.0
ssg585
(dp1407
g5
F23.0
sg6
F1.0
sg7
(lp1408
(S'Matt Moore'
p1409
g10
tp1410
a(S'Reggie Bush'
p1411
g15
tp1412
a(S'Daniel Thomas'
p1413
g15
tp1414
a(S'Brian Hartline'
p1415
g22
tp1416
a(S'Brandon Marshall'
p1417
g22
tp1418
a(S'Charles Clay'
p1419
g33
tp1420
a(S'Anthony Fasano'
p1421
g33
tp1422
a(S'Dan Carpenter'
p1423
g42
tp1424
asg44
I00
sg45
F24.0
sg46
F244.0
sg47
F1.0
sg48
F3.0
sg49
F1.0
sg50
S'3-31'
p1425
sg52
I01
sg53
F107.0
sg54
F0.0
ssg591
(dp1426
g5
F41.0
sg6
F0.0
sg7
(lp1427
(S'Philip Rivers'
p1428
g10
tp1429
a(S'Ryan Mathews'
p1430
g15
tp1431
a(S'Mike Tolbert'
p1432
g15
tp1433
a(S'Vincent Brown'
p1434
g22
tp1435
a(S'Malcom Floyd'
p1436
g22
tp1437
a(S'Vincent Jackson'
p1438
g22
tp1439
a(S'Antonio Gates'
p1440
g33
tp1441
a(S'Nick Novak'
p1442
g42
tp1443
asg44
I01
sg45
F16.0
sg46
F369.0
sg47
F5.0
sg48
F0.0
sg49
F4.0
sg50
S'23-20'
p1444
sg52
I01
sg53
F58.0
sg54
F0.0
sssS'2010'
p1445
(dp1446
g3
(dp1447
g5
F46.0
sg6
F0.0
sg7
(lp1448
(S'Derek Anderson'
p1449
g10
tp1450
a(S'Tim Hightower'
p1451
g15
tp1452
a(S'Larry Fitzgerald'
p1453
g22
tp1454
a(S'Andre Roberts'
p1455
g22
tp1456
a(S'Jim Dray'
p1457
g33
tp1458
asg44
I01
sg45
F12.0
sg46
F295.0
sg47
F0.0
sg48
F1.0
sg49
F0.0
sg50
S'31-13'
p1459
sg52
I01
sg53
F62.0
sg54
F0.0
ssg55
(dp1460
g5
F0.0
sg6
F0.0
sg7
(lp1461
(S'Eric Decker'
p1462
g22
tp1463
a(S'Eddie Royal'
p1464
g22
tp1465
a(S'Demaryius Thomas'
p1466
g22
tp1467
a(S'Matt Prater'
p1468
g42
tp1469
asg44
I00
sg45
F2.0
sg46
F0.0
sg47
F1.0
sg48
F0.0
sg49
F0.0
sg50
S'29-49'
p1470
sg52
I00
sg53
F20.0
sg54
F0.0
ssg93
(dp1471
g5
F0.0
sg6
F0.0
sg7
(lp1472
(S'Eric Decker'
p1473
g22
tp1474
a(S'Eddie Royal'
p1475
g22
tp1476
a(S'Demaryius Thomas'
p1477
g22
tp1478
a(S'Matt Prater'
p1479
g42
tp1480
asg44
I01
sg45
F0.0
sg46
F0.0
sg47
F2.0
sg48
F0.0
sg49
F2.0
sg50
S'10-6'
p1481
sg52
I01
sg53
F0.0
sg54
F0.0
ssg133
(dp1482
g5
F0.0
sg6
F0.0
sg7
(lp1483
(S'Justin Forsett'
p1484
g15
tp1485
a(S'Golden Tate'
p1486
g22
tp1487
asg44
I01
sg45
F3.0
sg46
F0.0
sg47
F0.0
sg48
F0.0
sg49
F0.0
sg50
S'42-24'
p1488
sg52
I00
sg53
F2.0
sg54
F0.0
ssg169
(dp1489
g5
F43.0
sg6
F1.0
sg7
(lp1490
(S'Sam Bradford'
p1491
g10
tp1492
a(S'Steven Jackson'
p1493
g15
tp1494
a(S'Danny Amendola'
p1495
g22
tp1496
a(S'Brandon Gibson'
p1497
g22
tp1498
a(S'Daniel Fells'
p1499
g33
tp1500
a(S'Michael Hoomanawanui'
p1501
g33
tp1502
a(S'Josh Brown'
p1503
g42
tp1504
asg44
I01
sg45
F21.0
sg46
F181.0
sg47
F2.0
sg48
F0.0
sg49
F2.0
sg50
S'27-13'
p1505
sg52
I00
sg53
F69.0
sg54
F0.0
ssg209
(dp1506
g5
F24.0
sg6
F2.0
sg7
(lp1507
(S'Philip Rivers'
p1508
g10
tp1509
a(S'Ryan Mathews'
p1510
g15
tp1511
a(S'Darren Sproles'
p1512
g15
tp1513
a(S'Mike Tolbert'
p1514
g15
tp1515
a(S'Seyi Ajirotutu'
p1516
g22
tp1517
a(S'Malcom Floyd'
p1518
g22
tp1519
a(S'Antonio Gates'
p1520
g33
tp1521
asg44
I00
sg45
F40.0
sg46
F226.0
sg47
F0.0
sg48
F2.0
sg49
F0.0
sg50
S'0-31'
p1522
sg52
I00
sg53
F189.0
sg54
F0.0
ssg245
(dp1523
g5
F0.0
sg6
F0.0
sg7
(lp1524
(S'Darren McFadden'
p1525
g15
tp1526
a(S'Marcel Reece'
p1527
g15
tp1528
a(S'Darrius Heyward-Bey'
p1529
g22
tp1530
a(S'Louis Murphy'
p1531
g22
tp1532
a(S'Brandon Myers'
p1533
g33
tp1534
a(S'Sebastian Janikowski'
p1535
g42
tp1536
asg44
I00
sg45
F3.0
sg46
F0.0
sg47
F1.0
sg48
F0.0
sg49
F1.0
sg50
S'10-31'
p1537
sg52
I01
sg53
F6.0
sg54
F0.0
ssg283
(dp1538
g5
F0.0
sg6
F0.0
sg7
(lp1539
(S'Chris Johnson'
p1540
g15
tp1541
a(S'Kenny Britt'
p1542
g22
tp1543
a(S'Marc Mariani'
p1544
g22
tp1545
a(S'Nate Washington'
p1546
g22
tp1547
a(S'Jared Cook'
p1548
g33
tp1549
a(S'Craig Stevens'
p1550
g33
tp1551
asg44
I01
sg45
F14.0
sg46
F0.0
sg47
F0.0
sg48
F0.0
sg49
F0.0
sg50
S'34-14'
p1552
sg52
I01
sg53
F58.0
sg54
F0.0
ssg323
(dp1553
g5
F39.0
sg6
F0.0
sg7
(lp1554
(S'Philip Rivers'
p1555
g10
tp1556
a(S'Ryan Mathews'
p1557
g15
tp1558
a(S'Darren Sproles'
p1559
g15
tp1560
a(S'Mike Tolbert'
p1561
g15
tp1562
a(S'Malcom Floyd'
p1563
g22
tp1564
a(S'Antonio Gates'
p1565
g33
tp1566
asg44
I01
sg45
F29.0
sg46
F298.0
sg47
F0.0
sg48
F2.0
sg49
F0.0
sg50
S'21-14'
p1567
sg52
I01
sg53
F109.0
sg54
F0.0
ssg361
(dp1568
g5
F42.0
sg6
F0.0
sg7
(lp1569
(S'Alex Smith'
p1570
g10
tp1571
a(S'Anthony Dixon'
p1572
g15
tp1573
a(S'Frank Gore'
p1574
g15
tp1575
a(S'Michael Crabtree'
p1576
g22
tp1577
a(S'Ted Ginn'
p1578
g22
tp1579
a(S'Kyle Williams'
p1580
g22
tp1581
a(S'Vernon Davis'
p1582
g33
tp1583
a(S'Delanie Walker'
p1584
g33
tp1585
asg44
I01
sg45
F15.0
sg46
F232.0
sg47
F0.0
sg48
F1.0
sg49
F0.0
sg50
S'31-10'
p1586
sg52
I01
sg53
F43.0
sg54
F0.0
ssg397
(dp1587
g5
F0.0
sg6
F0.0
sg7
(lp1588
(S'Colt McCoy'
p1589
g10
tp1590
a(S'Alex Smith'
p1591
g33
tp1592
a(S'Benjamin Watson'
p1593
g33
tp1594
a(S'Phil Dawson'
p1595
g42
tp1596
asg44
I01
sg45
F0.0
sg46
F0.0
sg47
F1.0
sg48
F0.0
sg49
F0.0
sg50
S'16-14'
p1597
sg52
I00
sg53
F0.0
sg54
F0.0
ssg431
(dp1598
g5
F0.0
sg6
F0.0
sg7
(lp1599
(S'Donald Brown'
p1600
g15
tp1601
a(S'Pierre Garcon'
p1602
g22
tp1603
a(S'Jacob Tamme'
p1604
g33
tp1605
a(S'Adam Vinatieri'
p1606
g42
tp1607
asg44
I00
sg45
F0.0
sg46
F0.0
sg47
F4.0
sg48
F0.0
sg49
F4.0
sg50
S'9-19'
p1608
sg52
I00
sg53
F0.0
sg54
F0.0
ssg469
(dp1609
g5
F0.0
sg6
F0.0
sg7
(lp1610
sg44
(lp1611
sg45
F0.0
sg46
F0.0
sg47
F0.0
sg48
F0.0
sg49
F0.0
sg50
(lp1612
sg52
(lp1613
sg53
F0.0
sg54
F0.0
ssg507
(dp1614
g5
F0.0
sg6
F0.0
sg7
(lp1615
(S'Rashad Jennings'
p1616
g15
tp1617
a(S'Marcedes Lewis'
p1618
g33
tp1619
a(S'Zach Miller'
p1620
g33
tp1621
a(S'Josh Scobee'
p1622
g42
tp1623
asg44
I01
sg45
F0.0
sg46
F0.0
sg47
F2.0
sg48
F0.0
sg49
F2.0
sg50
S'42-20'
p1624
sg52
I01
sg53
F0.0
sg54
F0.0
ssg547
(dp1625
g5
F33.0
sg6
F2.0
sg7
(lp1626
(S'Dan Orlovsky'
p1627
g10
tp1628
a(S'Matt Schaub'
p1629
g10
tp1630
a(S'Arian Foster'
p1631
g15
tp1632
a(S'Andre Johnson'
p1633
g22
tp1634
a(S'Owen Daniels'
p1635
g33
tp1636
a(S'Dorin Dickerson'
p1637
g33
tp1638
a(S'Garrett Graham'
p1639
g33
tp1640
asg44
I00
sg45
F19.0
sg46
F305.0
sg47
F0.0
sg48
F2.0
sg49
F0.0
sg50
S'31-35'
p1641
sg52
I00
sg53
F74.0
sg54
F0.0
ssg585
(dp1642
g5
F0.0
sg6
F0.0
sg7
(lp1643
(S'Bruce Gradkowski'
p1644
g10
tp1645
a(S'Darren McFadden'
p1646
g15
tp1647
a(S'Marcel Reece'
p1648
g15
tp1649
a(S'Darrius Heyward-Bey'
p1650
g22
tp1651
a(S'Louis Murphy'
p1652
g22
tp1653
a(S'Brandon Myers'
p1654
g33
tp1655
a(S'Sebastian Janikowski'
p1656
g42
tp1657
asg44
I00
sg45
F18.0
sg46
F0.0
sg47
F4.0
sg48
F0.0
sg49
F3.0
sg50
S'20-23'
p1658
sg52
I00
sg53
F93.0
sg54
F0.0
ssg591
(dp1659
g5
F48.0
sg6
F0.0
sg7
(lp1660
(S'Ryan Fitzpatrick'
p1661
g10
tp1662
a(S'Fred Jackson'
p1663
g15
tp1664
a(S'C.J. Spiller'
p1665
g15
tp1666
a(S'Steve Johnson'
p1667
g22
tp1668
asg44
I01
sg45
F32.0
sg46
F223.0
sg47
F0.0
sg48
F1.0
sg49
F0.0
sg50
S'13-10'
p1669
sg52
I01
sg53
F124.0
sg54
F0.0
sssS'2013'
p1670
(dp1671
g3
(dp1672
g5
F0.0
sg6
F0.0
sg7
(lp1673
(S'Zac Dysert'
p1674
g10
tp1675
a(S'Brock Osweiler'
p1676
g10
tp1677
a(S'C.J. Anderson'
p1678
g15
tp1679
a(S'Ronnie Hillman'
p1680
g15
tp1681
a(S'Andre Caldwell'
p1682
g22
tp1683
a(S'Eric Decker'
p1684
g22
tp1685
a(S'Demaryius Thomas'
p1686
g22
tp1687
a(S'Wes Welker'
p1688
g22
tp1689
a(S'Virgil Green'
p1690
g33
tp1691
a(S'Jacob Tamme'
p1692
g33
tp1693
a(S'Julius Thomas'
p1694
g33
tp1695
a(S'Matt Prater'
p1696
g42
tp1697
asg44
I00
sg45
F0.0
sg46
F0.0
sg47
F3.0
sg48
F0.0
sg49
F2.0
sg50
S'17-27'
p1698
sg52
I00
sg53
F0.0
sg54
F0.0
ssg55
(dp1699
g5
F0.0
sg6
F0.0
sg7
(lp1700
sg44
(lp1701
sg45
F0.0
sg46
F0.0
sg47
F0.0
sg48
F0.0
sg49
F0.0
sg50
(lp1702
sg52
(lp1703
sg53
F0.0
sg54
F0.0
ssg93
(dp1704
g5
F0.0
sg6
F0.0
sg7
(lp1705
(S'Zac Dysert'
p1706
g10
tp1707
a(S'Brock Osweiler'
p1708
g10
tp1709
a(S'C.J. Anderson'
p1710
g15
tp1711
a(S'Ronnie Hillman'
p1712
g15
tp1713
a(S'Andre Caldwell'
p1714
g22
tp1715
a(S'Eric Decker'
p1716
g22
tp1717
a(S'Demaryius Thomas'
p1718
g22
tp1719
a(S'Wes Welker'
p1720
g22
tp1721
a(S'Virgil Green'
p1722
g33
tp1723
a(S'Jacob Tamme'
p1724
g33
tp1725
a(S'Julius Thomas'
p1726
g33
tp1727
a(S'Matt Prater'
p1728
g42
tp1729
asg44
I00
sg45
F0.0
sg46
F0.0
sg47
F0.0
sg48
F0.0
sg49
F0.0
sg50
S'28-35'
p1730
sg52
I01
sg53
F0.0
sg54
F0.0
ssg133
(dp1731
g5
F39.0
sg6
F2.0
sg7
(lp1732
(S'Philip Rivers'
p1733
g10
tp1734
a(S'Ryan Mathews'
p1735
g15
tp1736
a(S'Danny Woodhead'
p1737
g15
tp1738
a(S'Seyi Ajirotutu'
p1739
g22
tp1740
a(S'Keenan Allen'
p1741
g22
tp1742
a(S'Vincent Brown'
p1743
g22
tp1744
a(S'Eddie Royal'
p1745
g22
tp1746
a(S'Antonio Gates'
p1747
g33
tp1748
a(S'Ladarius Green'
p1749
g33
tp1750
a(S'John Phillips'
p1751
g33
tp1752
a(S'Nick Novak'
p1753
g42
tp1754
asg44
I00
sg45
F21.0
sg46
F392.0
sg47
F2.0
sg48
F3.0
sg49
F2.0
sg50
S'38-41'
p1755
sg52
I01
sg53
F81.0
sg54
F0.0
ssg169
(dp1756
g5
F35.0
sg6
F2.0
sg7
(lp1757
(S'Matt McGloin'
p1758
g10
tp1759
a(S'Rashad Jennings'
p1760
g15
tp1761
a(S'Taiwan Jones'
p1762
g15
tp1763
a(S'Darren McFadden'
p1764
g15
tp1765
a(S'Jamize Olawale'
p1766
g15
tp1767
a(S'Marcel Reece'
p1768
g15
tp1769
a(S'Brice Butler'
p1770
g22
tp1771
a(S'Andre Holmes'
p1772
g22
tp1773
a(S'Terrelle Pryor'
p1774
g22
tp1775
a(S'Rod Streater'
p1776
g22
tp1777
a(S'Mychal Rivera'
p1778
g33
tp1779
a(S'Sebastian Janikowski'
p1780
g42
tp1781
asg44
I01
sg45
F33.0
sg46
F297.0
sg47
F1.0
sg48
F2.0
sg49
F1.0
sg50
S'56-31'
p1782
sg52
I00
sg53
F130.0
sg54
F0.0
ssg209
(dp1783
g5
F42.0
sg6
F0.0
sg7
(lp1784
(S'Kirk Cousins'
p1785
g10
tp1786
a(S'Robert Griffin III'
p1787
g10
tp1788
a(S'Roy Helu'
p1789
g15
tp1790
a(S'Alfred Morris'
p1791
g15
tp1792
a(S'Darrel Young'
p1793
g15
tp1794
a(S'Josh Bellamy'
p1795
g22
tp1796
a(S'Pierre Garcon'
p1797
g22
tp1798
a(S'Aldrick Robinson'
p1799
g22
tp1800
a(S'Nick Williams'
p1801
g22
tp1802
a(S'Niles Paul'
p1803
g33
tp1804
a(S'Logan Paulsen'
p1805
g33
tp1806
a(S'Jordan Reed'
p1807
g33
tp1808
a(S'Kai Forbath'
p1809
g42
tp1810
asg44
I01
sg45
F17.0
sg46
F223.0
sg47
F1.0
sg48
F1.0
sg49
F1.0
sg50
S'45-10'
p1811
sg52
I00
sg53
F65.0
sg54
F0.0
ssg245
(dp1812
g5
F33.0
sg6
F0.0
sg7
(lp1813
(S'Philip Rivers'
p1814
g10
tp1815
a(S'Ryan Mathews'
p1816
g15
tp1817
a(S'Danny Woodhead'
p1818
g15
tp1819
a(S'Seyi Ajirotutu'
p1820
g22
tp1821
a(S'Keenan Allen'
p1822
g22
tp1823
a(S'Vincent Brown'
p1824
g22
tp1825
a(S'Eddie Royal'
p1826
g22
tp1827
a(S'Antonio Gates'
p1828
g33
tp1829
a(S'Ladarius Green'
p1830
g33
tp1831
a(S'Nick Novak'
p1832
g42
tp1833
asg44
I00
sg45
F34.0
sg46
F229.0
sg47
F2.0
sg48
F3.0
sg49
F2.0
sg50
S'24-27'
p1834
sg52
I00
sg53
F181.0
sg54
F0.0
ssg283
(dp1835
g5
F37.0
sg6
F1.0
sg7
(lp1836
(S'Andrew Luck'
p1837
g10
tp1838
a(S'Donald Brown'
p1839
g15
tp1840
a(S'Trent Richardson'
p1841
g15
tp1842
a(S'Darrius Heyward-Bey'
p1843
g22
tp1844
a(S'T.Y. Hilton'
p1845
g22
tp1846
a(S'Griff Whalen'
p1847
g22
tp1848
a(S'Jack Doyle'
p1849
g33
tp1850
a(S'Coby Fleener'
p1851
g33
tp1852
a(S'Adam Vinatieri'
p1853
g42
tp1854
asg44
I00
sg45
F32.0
sg46
F241.0
sg47
F4.0
sg48
F1.0
sg49
F3.0
sg50
S'7-23'
p1855
sg52
I01
sg53
F127.0
sg54
F0.0
ssg323
(dp1856
g5
F41.0
sg6
F0.0
sg7
(lp1857
(S'Blaine Gabbert'
p1858
g10
tp1859
a(S'Chad Henne'
p1860
g10
tp1861
a(S'Justin Forsett'
p1862
g15
tp1863
a(S'Denard Robinson'
p1864
g15
tp1865
a(S'Jordan Todman'
p1866
g15
tp1867
a(S'Cecil Shorts'
p1868
g22
tp1869
a(S'Clay Harbor'
p1870
g33
tp1871
a(S'Marcedes Lewis'
p1872
g33
tp1873
a(S'Allen Reisner'
p1874
g33
tp1875
a(S'Josh Scobee'
p1876
g42
tp1877
asg44
I01
sg45
F8.0
sg46
F157.0
sg47
F0.0
sg48
F0.0
sg49
F0.0
sg50
S'28-2'
p1878
sg52
I00
sg53
F26.0
sg54
F0.0
ssg361
(dp1879
g5
F30.0
sg6
F1.0
sg7
(lp1880
(S'Matt Barkley'
p1881
g10
tp1882
a(S'Nick Foles'
p1883
g10
tp1884
a(S'Mike Vick'
p1885
g10
tp1886
a(S'Bryce Brown'
p1887
g15
tp1888
a(S'LeSean McCoy'
p1889
g15
tp1890
a(S'Chris Polk'
p1891
g15
tp1892
a(S'Jason Avant'
p1893
g22
tp1894
a(S'DeSean Jackson'
p1895
g22
tp1896
a(S'Damaris Johnson'
p1897
g22
tp1898
a(S'Brent Celek'
p1899
g33
tp1900
a(S'Zach Ertz'
p1901
g33
tp1902
asg44
I01
sg45
F27.0
sg46
F201.0
sg47
F0.0
sg48
F1.0
sg49
F0.0
sg50
S'26-16'
p1903
sg52
I00
sg53
F264.0
sg54
F0.0
ssg397
(dp1904
g5
F42.0
sg6
F0.0
sg7
(lp1905
(S'Tony Romo'
p1906
g10
tp1907
a(S'Lance Dunbar'
p1908
g15
tp1909
a(S'DeMarco Murray'
p1910
g15
tp1911
a(S'Cole Beasley'
p1912
g22
tp1913
a(S'Dez Bryant'
p1914
g22
tp1915
a(S'Dwayne Harris'
p1916
g22
tp1917
a(S'Terrance Williams'
p1918
g22
tp1919
a(S'Gavin Escobar'
p1920
g33
tp1921
a(S'James Hanna'
p1922
g33
tp1923
a(S'Jason Witten'
p1924
g33
tp1925
a(S'Dan Bailey'
p1926
g42
tp1927
asg44
I01
sg45
F16.0
sg46
F298.0
sg47
F3.0
sg48
F1.0
sg49
F3.0
sg50
S'17-16'
p1928
sg52
I01
sg53
F37.0
sg54
F0.0
ssg431
(dp1929
g5
F41.0
sg6
F1.0
sg7
(lp1930
(S'Ryan Fitzpatrick'
p1931
g10
tp1932
a(S'Chris Johnson'
p1933
g15
tp1934
a(S'Kenny Britt'
p1935
g22
tp1936
a(S'Justin Hunter'
p1937
g22
tp1938
a(S'Nate Washington'
p1939
g22
tp1940
a(S'Kendall Wright'
p1941
g22
tp1942
a(S'Craig Stevens'
p1943
g33
tp1944
a(S'Delanie Walker'
p1945
g33
tp1946
asg44
I01
sg45
F16.0
sg46
F247.0
sg47
F0.0
sg48
F1.0
sg49
F0.0
sg50
S'26-17'
p1947
sg52
I00
sg53
F67.0
sg54
F0.0
ssg469
(dp1948
g5
F37.0
sg6
F0.0
sg7
(lp1949
(S'Eli Manning'
p1950
g10
tp1951
a(S'Ryan Nassib'
p1952
g10
tp1953
a(S'Victor Cruz'
p1954
g22
tp1955
a(S'Louis Murphy'
p1956
g22
tp1957
a(S'Hakeem Nicks'
p1958
g22
tp1959
a(S'Rueben Randle'
p1960
g22
tp1961
a(S'Larry Donnell'
p1962
g33
tp1963
a(S'Brandon Myers'
p1964
g33
tp1965
a(S'Bear Pascoe'
p1966
g33
tp1967
a(S'Josh Brown'
p1968
g42
tp1969
asg44
I01
sg45
F2.0
sg46
F217.0
sg47
F1.0
sg48
F1.0
sg49
F0.0
sg50
S'31-7'
p1970
sg52
I01
sg53
F12.0
sg54
F0.0
ssg507
(dp1971
g5
F25.0
sg6
F0.0
sg7
(lp1972
(S'Case Keenum'
p1973
g10
tp1974
a(S'Matt Schaub'
p1975
g10
tp1976
a(S'T.J. Yates'
p1977
g10
tp1978
a(S'Arian Foster'
p1979
g15
tp1980
a(S'DeAndre Hopkins'
p1981
g22
tp1982
a(S'Andre Johnson'
p1983
g22
tp1984
a(S'Keshawn Martin'
p1985
g22
tp1986
a(S'DeVier Posey'
p1987
g22
tp1988
a(S'Garrett Graham'
p1989
g33
tp1990
a(S'Ryan Griffin'
p1991
g33
tp1992
a(S'Randy Bullock'
p1993
g42
tp1994
asg44
I01
sg45
F7.0
sg46
F271.0
sg47
F3.0
sg48
F1.0
sg49
F3.0
sg50
S'17-16'
p1995
sg52
I01
sg53
F21.0
sg54
F0.0
ssg547
(dp1996
g5
F0.0
sg6
F0.0
sg7
(lp1997
(S'Matt McGloin'
p1998
g10
tp1999
a(S'Rashad Jennings'
p2000
g15
tp2001
a(S'Taiwan Jones'
p2002
g15
tp2003
a(S'Darren McFadden'
p2004
g15
tp2005
a(S'Jamize Olawale'
p2006
g15
tp2007
a(S'Marcel Reece'
p2008
g15
tp2009
a(S'Brice Butler'
p2010
g22
tp2011
a(S'Andre Holmes'
p2012
g22
tp2013
a(S'Terrelle Pryor'
p2014
g22
tp2015
a(S'Rod Streater'
p2016
g22
tp2017
a(S'Mychal Rivera'
p2018
g33
tp2019
a(S'Sebastian Janikowski'
p2020
g42
tp2021
asg44
I01
sg45
F27.0
sg46
F0.0
sg47
F1.0
sg48
F0.0
sg49
F0.0
sg50
S'24-7'
p2022
sg52
I01
sg53
F120.0
sg54
F0.0
ssg585
(dp2023
g5
F0.0
sg6
F0.0
sg7
(lp2024
(S'Matt Flynn'
p2025
g10
tp2026
a(S'Thad Lewis'
p2027
g10
tp2028
a(S'EJ Manuel'
p2029
g10
tp2030
a(S'Fred Jackson'
p2031
g15
tp2032
a(S'C.J. Spiller'
p2033
g15
tp2034
a(S'Marcus Easley'
p2035
g22
tp2036
a(S'Marquise Goodwin'
p2037
g22
tp2038
a(S'T.J. Graham'
p2039
g22
tp2040
a(S'Chris Hogan'
p2041
g22
tp2042
a(S'Steve Johnson'
p2043
g22
tp2044
a(S'Robert Woods'
p2045
g22
tp2046
a(S'Scott Chandler'
p2047
g33
tp2048
a(S'Chris Gragg'
p2049
g33
tp2050
a(S'Lee Smith'
p2051
g33
tp2052
a(S'Dan Carpenter'
p2053
g42
tp2054
asg44
I01
sg45
F29.0
sg46
F0.0
sg47
F2.0
sg48
F0.0
sg49
F2.0
sg50
S'23-13'
p2055
sg52
I00
sg53
F203.0
sg54
F0.0
ssg591
(dp2056
g5
F0.0
sg6
F0.0
sg7
(lp2057
(S'Brandon Weeden'
p2058
g10
tp2059
a(S'Fozzy Whittaker'
p2060
g15
tp2061
a(S'Travis Benjamin'
p2062
g22
tp2063
a(S'Josh Gordon'
p2064
g22
tp2065
a(S'Greg Little'
p2066
g22
tp2067
a(S'Brian Tyms'
p2068
g22
tp2069
a(S'Gary Barnidge'
p2070
g33
tp2071
a(S'Jordan Cameron'
p2072
g33
tp2073
a(S'MarQueis Gray'
p2074
g33
tp2075
asg44
I01
sg45
F0.0
sg46
F0.0
sg47
F0.0
sg48
F0.0
sg49
F0.0
sg50
S'23-17'
p2076
sg52
I01
sg53
F0.0
sg54
F0.0
sssS'2012'
p2077
(dp2078
g3
(dp2079
g5
F29.0
sg6
F1.0
sg7
(lp2080
(S'Andy Dalton'
p2081
g10
tp2082
a(S'Bruce Gradkowski'
p2083
g10
tp2084
a(S'Cedric Peerman'
p2085
g15
tp2086
a(S'A.J. Green'
p2087
g22
tp2088
a(S'Andrew Hawkins'
p2089
g22
tp2090
a(S'Marvin Jones'
p2091
g22
tp2092
a(S'Mohamed Sanu'
p2093
g22
tp2094
a(S'Brandon Tate'
p2095
g22
tp2096
a(S'Orson Charles'
p2097
g33
tp2098
a(S'Jermaine Gresham'
p2099
g33
tp2100
a(S'Mike Nugent'
p2101
g42
tp2102
asg44
I00
sg45
F13.0
sg46
F230.0
sg47
F1.0
sg48
F2.0
sg49
F0.0
sg50
S'6-28'
p2103
sg52
I01
sg53
F88.0
sg54
F0.0
ssg55
(dp2104
g5
F18.0
sg6
F0.0
sg7
(lp2105
(S'Ben Roethlisberger'
p2106
g10
tp2107
a(S'Will Johnson'
p2108
g15
tp2109
a(S'Antonio Brown'
p2110
g22
tp2111
a(S'Jerricho Cotchery'
p2112
g22
tp2113
a(S'Emmanuel Sanders'
p2114
g22
tp2115
a(S'Mike Wallace'
p2116
g22
tp2117
a(S'Shaun Suisham'
p2118
g42
tp2119
asg44
I00
sg45
F2.0
sg46
F84.0
sg47
F3.0
sg48
F1.0
sg49
F3.0
sg50
S'13-16'
p2120
sg52
I00
sg53
F18.0
sg54
F0.0
ssg93
(dp2121
g5
F27.0
sg6
F0.0
sg7
(lp2122
(S'Derek Anderson'
p2123
g10
tp2124
a(S'Jimmy Clausen'
p2125
g10
tp2126
a(S'Cam Newton'
p2127
g10
tp2128
a(S'Jonathan Stewart'
p2129
g15
tp2130
a(S'Mike Tolbert'
p2131
g15
tp2132
a(S'DeAngelo Williams'
p2133
g15
tp2134
a(S'Brandon LaFell'
p2135
g22
tp2136
a(S'Louis Murphy'
p2137
g22
tp2138
a(S'Steve Smith'
p2139
g22
tp2140
a(S'Gary Barnidge'
p2141
g33
tp2142
a(S'Greg Olsen'
p2143
g33
tp2144
a(S'Graham Gano'
p2145
g42
tp2146
asg44
I01
sg45
F21.0
sg46
F232.0
sg47
F0.0
sg48
F3.0
sg49
F0.0
sg50
S'27-21'
p2147
sg52
I01
sg53
F160.0
sg54
F0.0
ssg133
(dp2148
g5
F0.0
sg6
F0.0
sg7
(lp2149
(S'Brock Osweiler'
p2150
g10
tp2151
a(S'Ronnie Hillman'
p2152
g15
tp2153
a(S'Andre Caldwell'
p2154
g22
tp2155
a(S'Eric Decker'
p2156
g22
tp2157
a(S'Demaryius Thomas'
p2158
g22
tp2159
a(S'Virgil Green'
p2160
g33
tp2161
a(S'Jacob Tamme'
p2162
g33
tp2163
a(S'Julius Thomas'
p2164
g33
tp2165
a(S'Matt Prater'
p2166
g42
tp2167
asg44
I00
sg45
F3.0
sg46
F0.0
sg47
F3.0
sg48
F0.0
sg49
F1.0
sg50
S'9-17'
p2168
sg52
I01
sg53
F9.0
sg54
F0.0
ssg169
(dp2169
g5
F29.0
sg6
F0.0
sg7
(lp2170
(S'Carson Palmer'
p2171
g10
tp2172
a(S'Taiwan Jones'
p2173
g15
tp2174
a(S'Darren McFadden'
p2175
g15
tp2176
a(S'Jamize Olawale'
p2177
g15
tp2178
a(S'Marcel Reece'
p2179
g15
tp2180
a(S'Darrius Heyward-Bey'
p2181
g22
tp2182
a(S'Terrelle Pryor'
p2183
g22
tp2184
a(S'Rod Streater'
p2185
g22
tp2186
a(S'Richard Gordon'
p2187
g33
tp2188
a(S'Brandon Myers'
p2189
g33
tp2190
a(S'Sebastian Janikowski'
p2191
g42
tp2192
asg44
I00
sg45
F32.0
sg46
F182.0
sg47
F6.0
sg48
F0.0
sg49
F5.0
sg50
S'0-15'
p2193
sg52
I00
sg53
F114.0
sg54
F0.0
ssg209
(dp2194
g5
F30.0
sg6
F2.0
sg7
(lp2195
(S'Colt McCoy'
p2196
g10
tp2197
a(S'Brandon Weeden'
p2198
g10
tp2199
a(S'Trent Richardson'
p2200
g15
tp2201
a(S'Travis Benjamin'
p2202
g22
tp2203
a(S'Josh Gordon'
p2204
g22
tp2205
a(S'Greg Little'
p2206
g22
tp2207
a(S'Jordan Cameron'
p2208
g33
tp2209
a(S'Alex Smith'
p2210
g33
tp2211
a(S'Benjamin Watson'
p2212
g33
tp2213
a(S'Phil Dawson'
p2214
g42
tp2215
asg44
I00
sg45
F23.0
sg46
F217.0
sg47
F3.0
sg48
F0.0
sg49
F3.0
sg50
S'7-30'
p2216
sg52
I00
sg53
F87.0
sg54
F0.0
ssg245
(dp2217
g5
F4.0
sg6
F0.0
sg7
(lp2218
(S'Brock Osweiler'
p2219
g10
tp2220
a(S'Ronnie Hillman'
p2221
g15
tp2222
a(S'Andre Caldwell'
p2223
g22
tp2224
a(S'Eric Decker'
p2225
g22
tp2226
a(S'Demaryius Thomas'
p2227
g22
tp2228
a(S'Virgil Green'
p2229
g33
tp2230
a(S'Jacob Tamme'
p2231
g33
tp2232
a(S'Julius Thomas'
p2233
g33
tp2234
a(S'Matt Prater'
p2235
g42
tp2236
asg44
I00
sg45
F6.0
sg46
F12.0
sg47
F1.0
sg48
F0.0
sg49
F1.0
sg50
S'3-38'
p2237
sg52
I00
sg53
F7.0
sg54
F0.0
ssg283
(dp2238
g5
F35.0
sg6
F0.0
sg7
(lp2239
(S'Andrew Luck'
p2240
g10
tp2241
a(S'Drew Stanton'
p2242
g10
tp2243
a(S'Vick Ballard'
p2244
g15
tp2245
a(S'T.Y. Hilton'
p2246
g22
tp2247
a(S'Nathan Palmer'
p2248
g22
tp2249
a(S'Dwayne Allen'
p2250
g33
tp2251
a(S'Coby Fleener'
p2252
g33
tp2253
a(S'Adam Vinatieri'
p2254
g42
tp2255
asg44
I00
sg45
F26.0
sg46
F205.0
sg47
F2.0
sg48
F1.0
sg49
F2.0
sg50
S'13-20'
p2256
sg52
I01
sg53
F90.0
sg54
F0.0
ssg323
(dp2257
g5
F31.0
sg6
F1.0
sg7
(lp2258
(S'Luke McCown'
p2259
g10
tp2260
a(S'Matt Ryan'
p2261
g10
tp2262
a(S'Jacquizz Rodgers'
p2263
g15
tp2264
a(S'Harry Douglas'
p2265
g22
tp2266
a(S'Julio Jones'
p2267
g22
tp2268
a(S'Roddy White'
p2269
g22
tp2270
a(S'Matt Bryant'
p2271
g42
tp2272
asg44
I00
sg45
F10.0
sg46
F299.0
sg47
F4.0
sg48
F3.0
sg49
F4.0
sg50
S'24-40'
p2273
sg52
I01
sg53
F47.0
sg54
F0.0
ssg361
(dp2274
g5
F36.0
sg6
F0.0
sg7
(lp2275
(S'Drew Brees'
p2276
g10
tp2277
a(S'Chase Daniel'
p2278
g10
tp2279
a(S'Travaris Cadet'
p2280
g15
tp2281
a(S'Mark Ingram'
p2282
g15
tp2283
a(S'Chris Ivory'
p2284
g15
tp2285
a(S'Darren Sproles'
p2286
g15
tp2287
a(S'Pierre Thomas'
p2288
g15
tp2289
a(S'Marques Colston'
p2290
g22
tp2291
a(S'Lance Moore'
p2292
g22
tp2293
a(S'Jimmy Graham'
p2294
g33
tp2295
asg44
I01
sg45
F19.0
sg46
F240.0
sg47
F0.0
sg48
F3.0
sg49
F0.0
sg50
S'27-24'
p2296
sg52
I00
sg53
F83.0
sg54
F0.0
ssg397
(dp2297
g5
F19.0
sg6
F2.0
sg7
(lp2298
(S'Ryan Fitzpatrick'
p2299
g10
tp2300
a(S'Tarvaris Jackson'
p2301
g10
tp2302
a(S'Fred Jackson'
p2303
g15
tp2304
a(S'C.J. Spiller'
p2305
g15
tp2306
a(S'T.J. Graham'
p2307
g22
tp2308
a(S'Steve Johnson'
p2309
g22
tp2310
a(S'Scott Chandler'
p2311
g33
tp2312
a(S'Dorin Dickerson'
p2313
g33
tp2314
a(S'Lee Smith'
p2315
g33
tp2316
asg44
I00
sg45
F20.0
sg46
F178.0
sg47
F0.0
sg48
F2.0
sg49
F0.0
sg50
S'17-35'
p2317
sg52
I00
sg53
F149.0
sg54
F0.0
ssg431
(dp2318
g5
F27.0
sg6
F0.0
sg7
(lp2319
(S'Joe Flacco'
p2320
g10
tp2321
a(S'Tyrod Taylor'
p2322
g10
tp2323
a(S'Bernard Pierce'
p2324
g15
tp2325
a(S'Anquan Boldin'
p2326
g22
tp2327
a(S'Torrey Smith'
p2328
g22
tp2329
a(S'Deonte Thompson'
p2330
g22
tp2331
a(S'Ed Dickson'
p2332
g33
tp2333
a(S'Dennis Pitta'
p2334
g33
tp2335
a(S'Justin Tucker'
p2336
g42
tp2337
asg44
I00
sg45
F5.0
sg46
F187.0
sg47
F3.0
sg48
F0.0
sg49
F3.0
sg50
S'6-9'
p2338
sg52
I01
sg53
F27.0
sg54
F0.0
ssg469
(dp2339
g5
F23.0
sg6
F0.0
sg7
(lp2340
(S'Philip Rivers'
p2341
g10
tp2342
a(S'Ryan Mathews'
p2343
g15
tp2344
a(S'Malcom Floyd'
p2345
g22
tp2346
a(S'Eddie Royal'
p2347
g22
tp2348
a(S'Antonio Gates'
p2349
g33
tp2350
a(S'Ladarius Green'
p2351
g33
tp2352
a(S'Nick Novak'
p2353
g42
tp2354
asg44
I00
sg45
F17.0
sg46
F209.0
sg47
F3.0
sg48
F2.0
sg49
F3.0
sg50
S'20-37'
p2355
sg52
I01
sg53
F61.0
sg54
F0.0
ssg507
(dp2356
g5
F0.0
sg6
F0.0
sg7
(lp2357
sg44
(lp2358
sg45
F0.0
sg46
F0.0
sg47
F0.0
sg48
F0.0
sg49
F0.0
sg50
(lp2359
sg52
(lp2360
sg53
F0.0
sg54
F0.0
ssg547
(dp2361
g5
F26.0
sg6
F1.0
sg7
(lp2362
(S'Josh Freeman'
p2363
g10
tp2364
a(S'Dan Orlovsky'
p2365
g10
tp2366
a(S'LeGarrette Blount'
p2367
g15
tp2368
a(S'Doug Martin'
p2369
g15
tp2370
a(S'Arrelious Benn'
p2371
g22
tp2372
a(S'Vincent Jackson'
p2373
g22
tp2374
a(S'Chris Owusu'
p2375
g22
tp2376
a(S'Mike Williams'
p2377
g22
tp2378
a(S'Luke Stocker'
p2379
g33
tp2380
a(S'Connor Barth'
p2381
g42
tp2382
asg44
I00
sg45
F23.0
sg46
F328.0
sg47
F2.0
sg48
F3.0
sg49
F1.0
sg50
S'10-38'
p2383
sg52
I00
sg53
F139.0
sg54
F0.0
ssg585
(dp2384
g5
F20.0
sg6
F0.0
sg7
(lp2385
(S'Philip Rivers'
p2386
g10
tp2387
a(S'Ryan Mathews'
p2388
g15
tp2389
a(S'Seyi Ajirotutu'
p2390
g22
tp2391
a(S'Malcom Floyd'
p2392
g22
tp2393
a(S'Eddie Royal'
p2394
g22
tp2395
a(S'Antonio Gates'
p2396
g33
tp2397
a(S'Ladarius Green'
p2398
g33
tp2399
a(S'Nick Novak'
p2400
g42
tp2401
asg44
I00
sg45
F15.0
sg46
F220.0
sg47
F1.0
sg48
F2.0
sg49
F1.0
sg50
S'13-31'
p2402
sg52
I00
sg53
F65.0
sg54
F0.0
ssg591
(dp2403
g5
F28.0
sg6
F0.0
sg7
(lp2404
(S'Carson Palmer'
p2405
g10
tp2406
a(S'Taiwan Jones'
p2407
g15
tp2408
a(S'Darren McFadden'
p2409
g15
tp2410
a(S'Marcel Reece'
p2411
g15
tp2412
a(S'Darrius Heyward-Bey'
p2413
g22
tp2414
a(S'Terrelle Pryor'
p2415
g22
tp2416
a(S'Rod Streater'
p2417
g22
tp2418
a(S'Richard Gordon'
p2419
g33
tp2420
a(S'Brandon Myers'
p2421
g33
tp2422
a(S'Sebastian Janikowski'
p2423
g42
tp2424
asg44
I00
sg45
F30.0
sg46
F209.0
sg47
F4.0
sg48
F2.0
sg49
F4.0
sg50
S'16-26'
p2425
sg52
I01
sg53
F113.0
sg54
F0.0
sss.