(dp0
S'2015'
p1
(dp2
S'11'
p3
(dp4
S'PassAtt'
p5
F28.0
sS'RushTD'
p6
F0.0
sS'Players'
p7
(lp8
(S'Matt Cassel'
p9
S'QB'
p10
tp11
a(S'Tony Romo'
p12
g10
tp13
a(S'Tyler Clutts'
p14
S'RB'
p15
tp16
a(S'Darren McFadden'
p17
g15
tp18
a(S'Rod Smith'
p19
g15
tp20
a(S'Robert Turbin'
p21
g15
tp22
a(S'Trey Williams'
p23
g15
tp24
a(S'Cole Beasley'
p25
S'WR'
p26
tp27
a(S'Dez Bryant'
p28
g26
tp29
a(S'Brice Butler'
p30
g26
tp31
a(S'Devin Street'
p32
g26
tp33
a(S'Lucky Whitehead'
p34
g26
tp35
a(S'Mike Williams'
p36
g26
tp37
a(S'Terrance Williams'
p38
g26
tp39
a(S'Gavin Escobar'
p40
S'TE'
p41
tp42
a(S'James Hanna'
p43
g41
tp44
a(S'Geoff Swaim'
p45
g41
tp46
a(S'Jason Witten'
p47
g41
tp48
a(S'Dan Bailey'
p49
S'K'
p50
tp51
asS'Won'
p52
I00
sS'RushAtt'
p53
F38.0
sS'PassYds'
p54
F227.0
sS'FGAtt'
p55
F1.0
sS'PassTD'
p56
F2.0
sS'FGM'
p57
F1.0
sS'Score'
p58
S'14-24'
p59
sS'Home'
p60
I01
sS'RushYds'
p61
F166.0
sS'FGBlk'
p62
F0.0
ssS'10'
p63
(dp64
g5
F48.0
sg6
F1.0
sg7
(lp65
(S'Sam Bradford'
p66
g10
tp67
a(S'Thad Lewis'
p68
g10
tp69
a(S'Mark Sanchez'
p70
g10
tp71
a(S'Kenjon Barner'
p72
g15
tp73
a(S'Ryan Mathews'
p74
g15
tp75
a(S'DeMarco Murray'
p76
g15
tp77
a(S'Darren Sproles'
p78
g15
tp79
a(S'Nelson Agholor'
p80
g26
tp81
a(S'Seyi Ajirotutu'
p82
g26
tp83
a(S'Josh Huff'
p84
g26
tp85
a(S'Jordan Matthews'
p86
g26
tp87
a(S'Trey Burton'
p88
g41
tp89
a(S'Brent Celek'
p90
g41
tp91
a(S'Zach Ertz'
p92
g41
tp93
a(S'Caleb Sturgis'
p94
g50
tp95
asg52
I01
sg53
F35.0
sg54
F392.0
sg55
F2.0
sg56
F1.0
sg57
F1.0
sg58
S'20-19'
p96
sg60
I00
sg61
F83.0
sg62
F0.0
ssS'13'
p97
(dp98
g5
F46.0
sg6
F0.0
sg7
(lp99
(S'Jimmy Clausen'
p100
g10
tp101
a(S'Matt Schaub'
p102
g10
tp103
a(S'Javorius Allen'
p104
g15
tp105
a(S'Kyle Juszczyk'
p106
g15
tp107
a(S'Raheem Mostert'
p108
g15
tp109
a(S'Terrance West'
p110
g15
tp111
a(S'Kamar Aiken'
p112
g26
tp113
a(S'Daniel Brown'
p114
g26
tp115
a(S'Jeremy Butler'
p116
g26
tp117
a(S'Kaelin Clay'
p118
g26
tp119
a(S'Chris Givens'
p120
g26
tp121
a(S'Nick Boyle'
p122
g41
tp123
a(S'Crockett Gillmore'
p124
g41
tp125
a(S'Zach Sudfeld'
p126
g41
tp127
a(S'Maxx Williams'
p128
g41
tp129
a(S'Justin Tucker'
p130
g50
tp131
asg52
I01
sg53
F26.0
sg54
F308.0
sg55
F3.0
sg56
F1.0
sg57
F2.0
sg58
S'15-13'
p132
sg60
I01
sg61
F94.0
sg62
F0.0
ssS'12'
p133
(dp134
g5
F37.0
sg6
F1.0
sg7
(lp135
(S'Ryan Fitzpatrick'
p136
g10
tp137
a(S'Bryce Petty'
p138
g10
tp139
a(S'Geno Smith'
p140
g10
tp141
a(S'Tommy Bohanon'
p142
g15
tp143
a(S'Chris Ivory'
p144
g15
tp145
a(S'Bilal Powell'
p146
g15
tp147
a(S'Stevan Ridley'
p148
g15
tp149
a(S'Eric Decker'
p150
g26
tp151
a(S'Quincy Enunwa'
p152
g26
tp153
a(S'Jeremy Kerley'
p154
g26
tp155
a(S'Brandon Marshall'
p156
g26
tp157
a(S'Devin Smith'
p158
g26
tp159
a(S'Kenbrell Thompkins'
p160
g26
tp161
a(S'Jeff Cumberland'
p162
g41
tp163
a(S'Kellen Davis'
p164
g41
tp165
a(S'Randy Bullock'
p166
g50
tp167
asg52
I00
sg53
F34.0
sg54
F277.0
sg55
F1.0
sg56
F4.0
sg57
F1.0
sg58
S'20-38'
p168
sg60
I00
sg61
F137.0
sg62
F0.0
ssS'15'
p169
(dp170
g5
F36.0
sg6
F1.0
sg7
(lp171
(S'Kellen Clemens'
p172
g10
tp173
a(S'Philip Rivers'
p174
g10
tp175
a(S'Donald Brown'
p176
g15
tp177
a(S'Melvin Gordon'
p178
g15
tp179
a(S'Danny Woodhead'
p180
g15
tp181
a(S'Vincent Brown'
p182
g26
tp183
a(S'Malcom Floyd'
p184
g26
tp185
a(S'Javontee Herndon'
p186
g26
tp187
a(S'Dontrelle Inman'
p188
g26
tp189
a(S'Steve Johnson'
p190
g26
tp191
a(S'Tyrell Williams'
p192
g26
tp193
a(S'Antonio Gates'
p194
g41
tp195
a(S'Ladarius Green'
p196
g41
tp197
a(S'David Johnson'
p198
g41
tp199
a(S'John Phillips'
p200
g41
tp201
a(S'Josh Lambo'
p202
g50
tp203
asg52
I00
sg53
F36.0
sg54
F311.0
sg55
F2.0
sg56
F3.0
sg57
F1.0
sg58
S'14-30'
p204
sg60
I00
sg61
F140.0
sg62
F0.0
ssS'14'
p205
(dp206
g5
F31.0
sg6
F0.0
sg7
(lp207
(S'Eli Manning'
p208
g10
tp209
a(S'Ryan Nassib'
p210
g10
tp211
a(S'Orleans Darkwa'
p212
g15
tp213
a(S'Rashad Jennings'
p214
g15
tp215
a(S'Shane Vereen'
p216
g15
tp217
a(S'Nikit Whitlock'
p218
g15
tp219
a(S'Andre Williams'
p220
g15
tp221
a(S'Odell Beckham'
p222
g26
tp223
a(S'Geremy Davis'
p224
g26
tp225
a(S'Dwayne Harris'
p226
g26
tp227
a(S'Hakeem Nicks'
p228
g26
tp229
a(S'Rueben Randle'
p230
g26
tp231
a(S'Myles White'
p232
g26
tp233
a(S'Jerome Cunningham'
p234
g41
tp235
a(S'Will Tye'
p236
g41
tp237
a(S'Josh Brown'
p238
g50
tp239
asg52
I00
sg53
F31.0
sg54
F337.0
sg55
F2.0
sg56
F4.0
sg57
F1.0
sg58
S'24-31'
p240
sg60
I01
sg61
F92.0
sg62
F0.0
ssS'17'
p241
(dp242
g5
F25.0
sg6
F0.0
sg7
(lp243
(S'Tom Brady'
p244
g10
tp245
a(S'Jimmy Garoppolo'
p246
g10
tp247
a(S'Brandon Bolden'
p248
g15
tp249
a(S'James White'
p250
g15
tp251
a(S'Danny Amendola'
p252
g26
tp253
a(S'Julian Edelman'
p254
g26
tp255
a(S'Chris Harper'
p256
g26
tp257
a(S'Brandon LaFell'
p258
g26
tp259
a(S'Keshawn Martin'
p260
g26
tp261
a(S'Matthew Slater'
p262
g26
tp263
a(S'Scott Chandler'
p264
g41
tp265
a(S'Rob Gronkowski'
p266
g41
tp267
a(S'Zach Sudfeld'
p268
g41
tp269
a(S'Michael Williams'
p270
g41
tp271
a(S'Stephen Gostkowski'
p272
g50
tp273
asg52
I01
sg53
F13.0
sg54
F140.0
sg55
F2.0
sg56
F0.0
sg57
F1.0
sg58
S'20-10'
p274
sg60
I01
sg61
F35.0
sg62
F0.0
ssS'16'
p275
(dp276
g5
F0.0
sg6
F2.0
sg7
(lp277
(S'Andrew Luck'
p278
g10
tp279
a(S'Stephen Morris'
p280
g10
tp281
a(S'Frank Gore'
p282
g15
tp283
a(S'Dan Herron'
p284
g15
tp285
a(S'Trey Williams'
p286
g15
tp287
a(S'Quan Bray'
p288
g26
tp289
a(S'Phillip Dorsett'
p290
g26
tp291
a(S'T.Y. Hilton'
p292
g26
tp293
a(S'Andre Johnson'
p294
g26
tp295
a(S'Donte Moncrief'
p296
g26
tp297
a(S'Dwayne Allen'
p298
g41
tp299
a(S'Jack Doyle'
p300
g41
tp301
a(S'Coby Fleener'
p302
g41
tp303
a(S'Adam Vinatieri'
p304
g50
tp305
asg52
I00
sg53
F22.0
sg54
F0.0
sg55
F1.0
sg56
F0.0
sg57
F1.0
sg58
S'12-18'
p306
sg60
I01
sg61
F101.0
sg62
F0.0
ssS'1'
p307
(dp308
g5
F31.0
sg6
F0.0
sg7
(lp309
(S'Kirk Cousins'
p310
g10
tp311
a(S'Robert Griffin III'
p312
g10
tp313
a(S'Colt McCoy'
p314
g10
tp315
a(S'Alfred Morris'
p316
g15
tp317
a(S'Chris Thompson'
p318
g15
tp319
a(S'Darrel Young'
p320
g15
tp321
a(S'Jamison Crowder'
p322
g26
tp323
a(S'Pierre Garcon'
p324
g26
tp325
a(S'Ryan Grant'
p326
g26
tp327
a(S'DeSean Jackson'
p328
g26
tp329
a(S'Andre Roberts'
p330
g26
tp331
a(S'Rashad Ross'
p332
g26
tp333
a(S'Derek Carrier'
p334
g41
tp335
a(S'Anthony McCoy'
p336
g41
tp337
a(S'Jordan Reed'
p338
g41
tp339
a(S'Kai Forbath'
p340
g50
tp341
asg52
I01
sg53
F31.0
sg54
F196.0
sg55
F2.0
sg56
F1.0
sg57
F1.0
sg58
S'17-10'
p342
sg60
I00
sg61
F133.0
sg62
F0.0
ssS'3'
p343
(dp344
g5
F29.0
sg6
F2.0
sg7
(lp345
(S'EJ Manuel'
p346
g10
tp347
a(S'Tyrod Taylor'
p348
g10
tp349
a(S'Anthony Dixon'
p350
g15
tp351
a(S'Jerome Felton'
p352
g15
tp353
a(S'Cyrus Gray'
p354
g15
tp355
a(S'LeSean McCoy'
p356
g15
tp357
a(S'Karlos Williams'
p358
g15
tp359
a(S'Marcus Easley'
p360
g26
tp361
a(S'Marquise Goodwin'
p362
g26
tp363
a(S'Percy Harvin'
p364
g26
tp365
a(S'Chris Hogan'
p366
g26
tp367
a(S'Sammy Watkins'
p368
g26
tp369
a(S'Robert Woods'
p370
g26
tp371
a(S'Charles Clay'
p372
g41
tp373
a(S'Chris Gragg'
p374
g41
tp375
a(S'MarQueis Gray'
p376
g41
tp377
a(S'Matthew Mulligan'
p378
g41
tp379
a(S'Dan Carpenter'
p380
g50
tp381
a(S'Jordan Gay'
p382
g50
tp383
asg52
I00
sg53
F38.0
sg54
F277.0
sg55
F3.0
sg56
F3.0
sg57
F2.0
sg58
S'14-41'
p384
sg60
I01
sg61
F169.0
sg62
F0.0
ssS'2'
p385
(dp386
g5
F33.0
sg6
F0.0
sg7
(lp387
(S'Blake Bortles'
p388
g10
tp389
a(S'Chad Henne'
p390
g10
tp391
a(S'Toby Gerhart'
p392
g15
tp393
a(S'Corey Grant'
p394
g15
tp395
a(S'Bernard Pierce'
p396
g15
tp397
a(S'Denard Robinson'
p398
g15
tp399
a(S'T.J. Yeldon'
p400
g15
tp401
a(S'Rashad Greene'
p402
g26
tp403
a(S'Allen Hurns'
p404
g26
tp405
a(S'Marqise Lee'
p406
g26
tp407
a(S'Allen Robinson'
p408
g26
tp409
a(S'Mike Williams'
p410
g26
tp411
a(S'Clay Harbor'
p412
g41
tp413
a(S'Nic Jacobs'
p414
g41
tp415
a(S'Marcedes Lewis'
p416
g41
tp417
a(S'Julius Thomas'
p418
g41
tp419
a(S'Jason Myers'
p420
g50
tp421
asg52
I00
sg53
F33.0
sg54
F273.0
sg55
F3.0
sg56
F2.0
sg57
F3.0
sg58
S'20-23'
p422
sg60
I00
sg61
F123.0
sg62
F0.0
ssS'5'
p423
(dp424
g5
F0.0
sg6
F0.0
sg7
(lp425
sg52
(lp426
sg53
F0.0
sg54
F0.0
sg55
F0.0
sg56
F0.0
sg57
F0.0
sg58
(lp427
sg60
(lp428
sg61
F0.0
sg62
F0.0
ssS'4'
p429
(dp430
g5
F29.0
sg6
F2.0
sg7
(lp431
(S'Ryan Fitzpatrick'
p432
g10
tp433
a(S'Bryce Petty'
p434
g10
tp435
a(S'Geno Smith'
p436
g10
tp437
a(S'Tommy Bohanon'
p438
g15
tp439
a(S'Chris Ivory'
p440
g15
tp441
a(S'Bilal Powell'
p442
g15
tp443
a(S'Zac Stacy'
p444
g15
tp445
a(S'Eric Decker'
p446
g26
tp447
a(S'Quincy Enunwa'
p448
g26
tp449
a(S'Jeremy Kerley'
p450
g26
tp451
a(S'Brandon Marshall'
p452
g26
tp453
a(S'Chris Owusu'
p454
g26
tp455
a(S'Devin Smith'
p456
g26
tp457
a(S'Jeff Cumberland'
p458
g41
tp459
a(S'Kellen Davis'
p460
g41
tp461
a(S'Wes Saxton'
p462
g41
tp463
a(S'Nick Folk'
p464
g50
tp465
asg52
I00
sg53
F43.0
sg54
F218.0
sg55
F3.0
sg56
F1.0
sg57
F2.0
sg58
S'14-27'
p466
sg60
I01
sg61
F207.0
sg62
F0.0
ssS'7'
p467
(dp468
g5
F49.0
sg6
F1.0
sg7
(lp469
(S'Brian Hoyer'
p470
g10
tp471
a(S'Ryan Mallett'
p472
g10
tp473
a(S'Alfred Blue'
p474
g15
tp475
a(S'Arian Foster'
p476
g15
tp477
a(S'Jonathan Grimes'
p478
g15
tp479
a(S'Chris Polk'
p480
g15
tp481
a(S'Jay Prosch'
p482
g15
tp483
a(S'DeAndre Hopkins'
p484
g26
tp485
a(S'Keith Mumphery'
p486
g26
tp487
a(S'Cecil Shorts'
p488
g26
tp489
a(S'Jaelen Strong'
p490
g26
tp491
a(S'Nate Washington'
p492
g26
tp493
a(S'C.J. Fiedorowicz'
p494
g41
tp495
a(S'Garrett Graham'
p496
g41
tp497
a(S'Nick Novak'
p498
g50
tp499
asg52
I01
sg53
F25.0
sg54
F273.0
sg55
F0.0
sg56
F3.0
sg57
F0.0
sg58
S'44-26'
p500
sg60
I01
sg61
F71.0
sg62
F0.0
ssS'6'
p501
(dp502
g5
F41.0
sg6
F0.0
sg7
(lp503
(S'Marcus Mariota'
p504
g10
tp505
a(S'Zach Mettenberger'
p506
g10
tp507
a(S'Antonio Andrews'
p508
g15
tp509
a(S'Jalston Fowler'
p510
g15
tp511
a(S'Dexter McCluster'
p512
g15
tp513
a(S'Bishop Sankey'
p514
g15
tp515
a(S'Terrance West'
p516
g15
tp517
a(S'Harry Douglas'
p518
g26
tp519
a(S'Dorial Green-Beckham'
p520
g26
tp521
a(S'Justin Hunter'
p522
g26
tp523
a(S'Kendall Wright'
p524
g26
tp525
a(S'Chase Coffman'
p526
g41
tp527
a(S'Anthony Fasano'
p528
g41
tp529
a(S'Craig Stevens'
p530
g41
tp531
a(S'Phillip Supernaw'
p532
g41
tp533
a(S'Delanie Walker'
p534
g41
tp535
a(S'Ryan Succop'
p536
g50
tp537
asg52
I01
sg53
F18.0
sg54
F282.0
sg55
F1.0
sg56
F1.0
sg57
F1.0
sg58
S'38-10'
p538
sg60
I00
sg61
F63.0
sg62
F0.0
ssS'9'
p539
(dp540
g5
F12.0
sg6
F3.0
sg7
(lp541
(S'Josh Johnson'
p542
g10
tp543
a(S'EJ Manuel'
p544
g10
tp545
a(S'Tyrod Taylor'
p546
g10
tp547
a(S'Anthony Dixon'
p548
g15
tp549
a(S'Jerome Felton'
p550
g15
tp551
a(S'Dan Herron'
p552
g15
tp553
a(S'LeSean McCoy'
p554
g15
tp555
a(S'Karlos Williams'
p556
g15
tp557
a(S'Marcus Easley'
p558
g26
tp559
a(S'Chris Hogan'
p560
g26
tp561
a(S'Sammy Watkins'
p562
g26
tp563
a(S'Robert Woods'
p564
g26
tp565
a(S'Charles Clay'
p566
g41
tp567
a(S'Chris Gragg'
p568
g41
tp569
a(S'Matthew Mulligan'
p570
g41
tp571
a(S'Dan Carpenter'
p572
g50
tp573
a(S'Jordan Gay'
p574
g50
tp575
asg52
I00
sg53
F36.0
sg54
F181.0
sg55
F1.0
sg56
F1.0
sg57
F1.0
sg58
S'17-33'
p576
sg60
I00
sg61
F266.0
sg62
F0.0
ssS'8'
p577
(dp578
g5
F38.0
sg6
F0.0
sg7
(lp579
(S'Tom Brady'
p580
g10
tp581
a(S'Jimmy Garoppolo'
p582
g10
tp583
a(S'LeGarrette Blount'
p584
g15
tp585
a(S'Brandon Bolden'
p586
g15
tp587
a(S'Dion Lewis'
p588
g15
tp589
a(S'James White'
p590
g15
tp591
a(S'Danny Amendola'
p592
g26
tp593
a(S'Aaron Dobson'
p594
g26
tp595
a(S'Julian Edelman'
p596
g26
tp597
a(S'Brandon LaFell'
p598
g26
tp599
a(S'Keshawn Martin'
p600
g26
tp601
a(S'Matthew Slater'
p602
g26
tp603
a(S'Scott Chandler'
p604
g41
tp605
a(S'Rob Gronkowski'
p606
g41
tp607
a(S'Michael Williams'
p608
g41
tp609
a(S'Stephen Gostkowski'
p610
g50
tp611
asg52
I00
sg53
F26.0
sg54
F356.0
sg55
F2.0
sg56
F4.0
sg57
F2.0
sg58
S'7-36'
p612
sg60
I00
sg61
F95.0
sg62
F0.0
sssS'2014'
p613
(dp614
g3
(dp615
g5
F0.0
sg6
F0.0
sg7
(lp616
(S'EJ Manuel'
p617
g10
tp618
a(S'Bryce Brown'
p619
g15
tp620
a(S'Anthony Dixon'
p621
g15
tp622
a(S'Fred Jackson'
p623
g15
tp624
a(S'Marcus Easley'
p625
g26
tp626
a(S'Marquise Goodwin'
p627
g26
tp628
a(S'Chris Hogan'
p629
g26
tp630
a(S'Sammy Watkins'
p631
g26
tp632
a(S'Mike Williams'
p633
g26
tp634
a(S'Robert Woods'
p635
g26
tp636
a(S'Scott Chandler'
p637
g41
tp638
a(S'Chris Gragg'
p639
g41
tp640
a(S'Lee Smith'
p641
g41
tp642
a(S'Dan Carpenter'
p643
g50
tp644
a(S'Jordan Gay'
p645
g50
tp646
asg52
I01
sg53
F17.0
sg54
F0.0
sg55
F4.0
sg56
F0.0
sg57
F3.0
sg58
S'22-9'
p647
sg60
I01
sg61
F52.0
sg62
F0.0
ssg63
(dp648
g5
F40.0
sg6
F0.0
sg7
(lp649
(S'Kellen Moore'
p650
g10
tp651
a(S'Dan Orlovsky'
p652
g10
tp653
a(S'Matthew Stafford'
p654
g10
tp655
a(S'Reggie Bush'
p656
g15
tp657
a(S'Theo Riddick'
p658
g15
tp659
a(S'George Winn'
p660
g15
tp661
a(S'Corey Fuller'
p662
g26
tp663
a(S'Jeremy Ross'
p664
g26
tp665
a(S'Golden Tate'
p666
g26
tp667
a(S'Kellen Davis'
p668
g41
tp669
a(S'Eric Ebron'
p670
g41
tp671
a(S'Brandon Pettigrew'
p672
g41
tp673
a(S'Matt Prater'
p674
g50
tp675
asg52
I00
sg53
F9.0
sg54
F280.0
sg55
F3.0
sg56
F2.0
sg57
F2.0
sg58
S'16-20'
p676
sg60
I00
sg61
F19.0
sg62
F1.0
ssg97
(dp677
g5
F13.0
sg6
F1.0
sg7
(lp678
(S'Matt Simms'
p679
g10
tp680
a(S'Geno Smith'
p681
g10
tp682
a(S'Mike Vick'
p683
g10
tp684
a(S'Chris Ivory'
p685
g15
tp686
a(S'Chris Johnson'
p687
g15
tp688
a(S'Bilal Powell'
p689
g15
tp690
a(S'Eric Decker'
p691
g26
tp692
a(S'T.J. Graham'
p693
g26
tp694
a(S'Saalim Hakim'
p695
g26
tp696
a(S'Percy Harvin'
p697
g26
tp698
a(S'Jeremy Kerley'
p699
g26
tp700
a(S'Walt Powell'
p701
g26
tp702
a(S'Greg Salas'
p703
g26
tp704
a(S'Jace Amaro'
p705
g41
tp706
a(S'Jeff Cumberland'
p707
g41
tp708
a(S'Chris Pantale'
p709
g41
tp710
a(S'Zach Sudfeld'
p711
g41
tp712
a(S'Nick Folk'
p713
g50
tp714
asg52
I01
sg53
F48.0
sg54
F65.0
sg55
F4.0
sg56
F0.0
sg57
F2.0
sg58
S'16-13'
p715
sg60
I00
sg61
F275.0
sg62
F0.0
ssg133
(dp716
g5
F0.0
sg6
F1.0
sg7
(lp717
(S'Brock Osweiler'
p718
g10
tp719
a(S'C.J. Anderson'
p720
g15
tp721
a(S'Ronnie Hillman'
p722
g15
tp723
a(S'Juwan Thompson'
p724
g15
tp725
a(S'Isaiah Burse'
p726
g26
tp727
a(S'Andre Caldwell'
p728
g26
tp729
a(S'Cody Latimer'
p730
g26
tp731
a(S'Emmanuel Sanders'
p732
g26
tp733
a(S'Demaryius Thomas'
p734
g26
tp735
a(S'Wes Welker'
p736
g26
tp737
a(S'Virgil Green'
p738
g41
tp739
a(S'Jacob Tamme'
p740
g41
tp741
a(S'Julius Thomas'
p742
g41
tp743
a(S'Brandon McManus'
p744
g50
tp745
asg52
I00
sg53
F33.0
sg54
F0.0
sg55
F2.0
sg56
F0.0
sg57
F1.0
sg58
S'36-39'
p746
sg60
I00
sg61
F203.0
sg62
F0.0
ssg169
(dp747
g5
F35.0
sg6
F2.0
sg7
(lp748
(S'Tom Brady'
p749
g10
tp750
a(S'Jimmy Garoppolo'
p751
g10
tp752
a(S'LeGarrette Blount'
p753
g15
tp754
a(S'Brandon Bolden'
p755
g15
tp756
a(S'James Develin'
p757
g15
tp758
a(S'Jonas Gray'
p759
g15
tp760
a(S'Shane Vereen'
p761
g15
tp762
a(S'James White'
p763
g15
tp764
a(S'Danny Amendola'
p765
g26
tp766
a(S'Julian Edelman'
p767
g26
tp768
a(S'Brandon LaFell'
p769
g26
tp770
a(S'Matthew Slater'
p771
g26
tp772
a(S'Brian Tyms'
p773
g26
tp774
a(S'Rob Gronkowski'
p775
g41
tp776
a(S'Michael Hoomanawanui'
p777
g41
tp778
a(S'Timothy Wright'
p779
g41
tp780
a(S'Stephen Gostkowski'
p781
g50
tp782
asg52
I00
sg53
F29.0
sg54
F287.0
sg55
F2.0
sg56
F2.0
sg57
F2.0
sg58
S'13-41'
p783
sg60
I00
sg61
F108.0
sg62
F0.0
ssg205
(dp784
g5
F33.0
sg6
F2.0
sg7
(lp785
(S'Joe Flacco'
p786
g10
tp787
a(S'Tyrod Taylor'
p788
g10
tp789
a(S'Justin Forsett'
p790
g15
tp791
a(S'Kyle Juszczyk'
p792
g15
tp793
a(S'Bernard Pierce'
p794
g15
tp795
a(S'Lorenzo Taliaferro'
p796
g15
tp797
a(S'Kamar Aiken'
p798
g26
tp799
a(S'Michael Campanaro'
p800
g26
tp801
a(S'Torrey Smith'
p802
g26
tp803
a(S'Steve Smith'
p804
g26
tp805
a(S'Owen Daniels'
p806
g41
tp807
a(S'Crockett Gillmore'
p808
g41
tp809
a(S'Phillip Supernaw'
p810
g41
tp811
a(S'Justin Tucker'
p812
g50
tp813
asg52
I00
sg53
F30.0
sg54
F269.0
sg55
F0.0
sg56
F2.0
sg57
F0.0
sg58
S'13-28'
p814
sg60
I01
sg61
F172.0
sg62
F0.0
ssg241
(dp815
g5
F25.0
sg6
F1.0
sg7
(lp816
(S'Matt Simms'
p817
g10
tp818
a(S'Geno Smith'
p819
g10
tp820
a(S'Mike Vick'
p821
g10
tp822
a(S'Chris Ivory'
p823
g15
tp824
a(S'Chris Johnson'
p825
g15
tp826
a(S'Bilal Powell'
p827
g15
tp828
a(S'Eric Decker'
p829
g26
tp830
a(S'Quincy Enunwa'
p831
g26
tp832
a(S'T.J. Graham'
p833
g26
tp834
a(S'Saalim Hakim'
p835
g26
tp836
a(S'Percy Harvin'
p837
g26
tp838
a(S'Jeremy Kerley'
p839
g26
tp840
a(S'Chris Owusu'
p841
g26
tp842
a(S'Walt Powell'
p843
g26
tp844
a(S'Jace Amaro'
p845
g41
tp846
a(S'Jeff Cumberland'
p847
g41
tp848
a(S'Chris Pantale'
p849
g41
tp850
a(S'Zach Sudfeld'
p851
g41
tp852
a(S'Nick Folk'
p853
g50
tp854
asg52
I00
sg53
F32.0
sg54
F358.0
sg55
F4.0
sg56
F3.0
sg57
F3.0
sg58
S'24-37'
p855
sg60
I01
sg61
F101.0
sg62
F0.0
ssg275
(dp856
g5
F26.0
sg6
F2.0
sg7
(lp857
(S'Teddy Bridgewater'
p858
g10
tp859
a(S'Matt Asiata'
p860
g15
tp861
a(S'Joe Banyard'
p862
g15
tp863
a(S'Jerome Felton'
p864
g15
tp865
a(S'Zach Line'
p866
g15
tp867
a(S'Greg Jennings'
p868
g26
tp869
a(S'Charles Johnson'
p870
g26
tp871
a(S'Cordarrelle Patterson'
p872
g26
tp873
a(S'Adam Thielen'
p874
g26
tp875
a(S'Jarius Wright'
p876
g26
tp877
a(S'Rhett Ellison'
p878
g41
tp879
a(S'Kyle Rudolph'
p880
g41
tp881
a(S'Blair Walsh'
p882
g50
tp883
asg52
I01
sg53
F28.0
sg54
F259.0
sg55
F2.0
sg56
F2.0
sg57
F2.0
sg58
S'37-35'
p884
sg60
I01
sg61
F119.0
sg62
F0.0
ssg307
(dp885
g5
F56.0
sg6
F1.0
sg7
(lp886
(S'Tom Brady'
p887
g10
tp888
a(S'Jimmy Garoppolo'
p889
g10
tp890
a(S'Brandon Bolden'
p891
g15
tp892
a(S'James Develin'
p893
g15
tp894
a(S'Stevan Ridley'
p895
g15
tp896
a(S'Shane Vereen'
p897
g15
tp898
a(S'James White'
p899
g15
tp900
a(S'Danny Amendola'
p901
g26
tp902
a(S'Aaron Dobson'
p903
g26
tp904
a(S'Julian Edelman'
p905
g26
tp906
a(S'Brandon LaFell'
p907
g26
tp908
a(S'Matthew Slater'
p909
g26
tp910
a(S'Kenbrell Thompkins'
p911
g26
tp912
a(S'Rob Gronkowski'
p913
g41
tp914
a(S'Michael Hoomanawanui'
p915
g41
tp916
a(S'Timothy Wright'
p917
g41
tp918
a(S'Stephen Gostkowski'
p919
g50
tp920
asg52
I01
sg53
F20.0
sg54
F249.0
sg55
F2.0
sg56
F1.0
sg57
F2.0
sg58
S'33-20'
p921
sg60
I01
sg61
F89.0
sg62
F0.0
ssg343
(dp922
g5
F25.0
sg6
F2.0
sg7
(lp923
(S'Chase Daniel'
p924
g10
tp925
a(S'Aaron Murray'
p926
g10
tp927
a(S'Alex Smith'
p928
g10
tp929
a(S'Jamaal Charles'
p930
g15
tp931
a(S'Knile Davis'
p932
g15
tp933
a(S'Cyrus Gray'
p934
g15
tp935
a(S'Anthony Sherman'
p936
g15
tp937
a(S'Dwayne Bowe'
p938
g26
tp939
a(S'Frankie Hammond'
p940
g26
tp941
a(S"De'Anthony Thomas"
p942
g26
tp943
a(S'Albert Wilson'
p944
g26
tp945
a(S'Anthony Fasano'
p946
g41
tp947
a(S'Demetrius Harris'
p948
g41
tp949
a(S'Travis Kelce'
p950
g41
tp951
a(S'Cairo Santos'
p952
g50
tp953
asg52
I00
sg53
F39.0
sg54
F186.0
sg55
F0.0
sg56
F3.0
sg57
F0.0
sg58
S'15-34'
p954
sg60
I01
sg61
F171.0
sg62
F0.0
ssg385
(dp955
g5
F26.0
sg6
F0.0
sg7
(lp956
(S'EJ Manuel'
p957
g10
tp958
a(S'Bryce Brown'
p959
g15
tp960
a(S'Anthony Dixon'
p961
g15
tp962
a(S'Fred Jackson'
p963
g15
tp964
a(S'C.J. Spiller'
p965
g15
tp966
a(S'Marcus Easley'
p967
g26
tp968
a(S'Marquise Goodwin'
p969
g26
tp970
a(S'Chris Hogan'
p971
g26
tp972
a(S'Sammy Watkins'
p973
g26
tp974
a(S'Mike Williams'
p975
g26
tp976
a(S'Robert Woods'
p977
g26
tp978
a(S'Scott Chandler'
p979
g41
tp980
a(S'Chris Gragg'
p981
g41
tp982
a(S'Lee Smith'
p983
g41
tp984
a(S'Dan Carpenter'
p985
g50
tp986
a(S'Jordan Gay'
p987
g50
tp988
asg52
I00
sg53
F31.0
sg54
F202.0
sg55
F6.0
sg56
F1.0
sg57
F5.0
sg58
S'10-29'
p989
sg60
I00
sg61
F106.0
sg62
F0.0
ssg423
(dp990
g5
F0.0
sg6
F0.0
sg7
(lp991
sg52
(lp992
sg53
F0.0
sg54
F0.0
sg55
F0.0
sg56
F0.0
sg57
F0.0
sg58
(lp993
sg60
(lp994
sg61
F0.0
sg62
F0.0
ssg429
(dp995
g5
F44.0
sg6
F0.0
sg7
(lp996
(S'Derek Carr'
p997
g10
tp998
a(S'Matt McGloin'
p999
g10
tp1000
a(S'Matt Schaub'
p1001
g10
tp1002
a(S'Darren McFadden'
p1003
g15
tp1004
a(S'Latavius Murray'
p1005
g15
tp1006
a(S'Jamize Olawale'
p1007
g15
tp1008
a(S'Marcel Reece'
p1009
g15
tp1010
a(S'Vincent Brown'
p1011
g26
tp1012
a(S'Brice Butler'
p1013
g26
tp1014
a(S'Andre Holmes'
p1015
g26
tp1016
a(S'James Jones'
p1017
g26
tp1018
a(S'Rod Streater'
p1019
g26
tp1020
a(S'Brian Leonhardt'
p1021
g41
tp1022
a(S'Mychal Rivera'
p1023
g41
tp1024
a(S'Sebastian Janikowski'
p1025
g50
tp1026
asg52
I01
sg53
F16.0
sg54
F275.0
sg55
F0.0
sg56
F2.0
sg57
F0.0
sg58
S'38-14'
p1027
sg60
I00
sg61
F52.0
sg62
F0.0
ssg467
(dp1028
g5
F34.0
sg6
F1.0
sg7
(lp1029
(S'Jimmy Clausen'
p1030
g10
tp1031
a(S'Jay Cutler'
p1032
g10
tp1033
a(S"Ka'Deem Carey"
p1034
g15
tp1035
a(S'Matt Forte'
p1036
g15
tp1037
a(S'Senorise Perry'
p1038
g15
tp1039
a(S'Alshon Jeffery'
p1040
g26
tp1041
a(S'Brandon Marshall'
p1042
g26
tp1043
a(S'Martellus Bennett'
p1044
g41
tp1045
a(S'Robbie Gould'
p1046
g50
tp1047
asg52
I01
sg53
F14.0
sg54
F190.0
sg55
F0.0
sg56
F1.0
sg57
F0.0
sg58
S'27-14'
p1048
sg60
I00
sg61
F52.0
sg62
F0.0
ssg501
(dp1049
g5
F42.0
sg6
F0.0
sg7
(lp1050
(S'Matt Flynn'
p1051
g10
tp1052
a(S'Aaron Rodgers'
p1053
g10
tp1054
a(S'Scott Tolzien'
p1055
g10
tp1056
a(S'DuJuan Harris'
p1057
g15
tp1058
a(S'John Kuhn'
p1059
g15
tp1060
a(S'Eddie Lacy'
p1061
g15
tp1062
a(S'James Starks'
p1063
g15
tp1064
a(S'Davante Adams'
p1065
g26
tp1066
a(S'Jarrett Boykin'
p1067
g26
tp1068
a(S'Randall Cobb'
p1069
g26
tp1070
a(S'Jeff Janis'
p1071
g26
tp1072
a(S'Jordy Nelson'
p1073
g26
tp1074
a(S'Brandon Bostick'
p1075
g41
tp1076
a(S'Andrew Quarless'
p1077
g41
tp1078
a(S'Richard Rodgers'
p1079
g41
tp1080
a(S'Mason Crosby'
p1081
g50
tp1082
asg52
I00
sg53
F34.0
sg54
F264.0
sg55
F2.0
sg56
F3.0
sg57
F2.0
sg58
S'24-27'
p1083
sg60
I01
sg61
F121.0
sg62
F0.0
ssg539
(dp1084
g5
F26.0
sg6
F0.0
sg7
(lp1085
(S'Kellen Clemens'
p1086
g10
tp1087
a(S'Philip Rivers'
p1088
g10
tp1089
a(S'Donald Brown'
p1090
g15
tp1091
a(S'Ryan Mathews'
p1092
g15
tp1093
a(S'Branden Oliver'
p1094
g15
tp1095
a(S'Seyi Ajirotutu'
p1096
g26
tp1097
a(S'Keenan Allen'
p1098
g26
tp1099
a(S'Malcom Floyd'
p1100
g26
tp1101
a(S'Dontrelle Inman'
p1102
g26
tp1103
a(S'Eddie Royal'
p1104
g26
tp1105
a(S'Antonio Gates'
p1106
g41
tp1107
a(S'Ladarius Green'
p1108
g41
tp1109
a(S'David Johnson'
p1110
g41
tp1111
a(S'John Phillips'
p1112
g41
tp1113
a(S'Nick Novak'
p1114
g50
tp1115
asg52
I01
sg53
F18.0
sg54
F148.0
sg55
F0.0
sg56
F0.0
sg57
F0.0
sg58
S'37-0'
p1116
sg60
I01
sg61
F45.0
sg62
F0.0
ssg577
(dp1117
g5
F34.0
sg6
F0.0
sg7
(lp1118
(S'Blake Bortles'
p1119
g10
tp1120
a(S'Chad Henne'
p1121
g10
tp1122
a(S'Toby Gerhart'
p1123
g15
tp1124
a(S'Storm Johnson'
p1125
g15
tp1126
a(S'Denard Robinson'
p1127
g15
tp1128
a(S'Jordan Todman'
p1129
g15
tp1130
a(S'Allen Hurns'
p1131
g26
tp1132
a(S'Marqise Lee'
p1133
g26
tp1134
a(S'Allen Robinson'
p1135
g26
tp1136
a(S'Cecil Shorts'
p1137
g26
tp1138
a(S'Clay Harbor'
p1139
g41
tp1140
a(S'Nic Jacobs'
p1141
g41
tp1142
a(S'Josh Scobee'
p1143
g50
tp1144
asg52
I01
sg53
F30.0
sg54
F221.0
sg55
F3.0
sg56
F1.0
sg57
F2.0
sg58
S'27-13'
p1145
sg60
I00
sg61
F176.0
sg62
F1.0
sssS'2011'
p1146
(dp1147
g3
(dp1148
g5
F39.0
sg6
F0.0
sg7
(lp1149
(S'Ryan Fitzpatrick'
p1150
g10
tp1151
a(S'Fred Jackson'
p1152
g15
tp1153
a(S'C.J. Spiller'
p1154
g15
tp1155
a(S'Steve Johnson'
p1156
g26
tp1157
a(S'Scott Chandler'
p1158
g41
tp1159
a(S'Lee Smith'
p1160
g41
tp1161
asg52
I01
sg53
F17.0
sg54
F209.0
sg55
F0.0
sg56
F0.0
sg57
F0.0
sg58
S'35-8'
p1162
sg60
I01
sg61
F35.0
sg62
F0.0
ssg63
(dp1163
g5
F0.0
sg6
F0.0
sg7
(lp1164
(S'Roy Helu'
p1165
g15
tp1166
a(S'Darrel Young'
p1167
g15
tp1168
a(S'Leonard Hankerson'
p1169
g26
tp1170
a(S'Niles Paul'
p1171
g41
tp1172
a(S'Logan Paulsen'
p1173
g41
tp1174
a(S'Graham Gano'
p1175
g50
tp1176
asg52
I01
sg53
F6.0
sg54
F0.0
sg55
F5.0
sg56
F0.0
sg57
F3.0
sg58
S'20-9'
p1177
sg60
I01
sg61
F41.0
sg62
F0.0
ssg97
(dp1178
g5
F0.0
sg6
F0.0
sg7
(lp1179
(S'Taiwan Jones'
p1180
g15
tp1181
a(S'Darren McFadden'
p1182
g15
tp1183
a(S'Marcel Reece'
p1184
g15
tp1185
a(S'Darrius Heyward-Bey'
p1186
g26
tp1187
a(S'Louis Murphy'
p1188
g26
tp1189
a(S'Terrelle Pryor'
p1190
g26
tp1191
a(S'Richard Gordon'
p1192
g41
tp1193
a(S'Brandon Myers'
p1194
g41
tp1195
a(S'Sebastian Janikowski'
p1196
g50
tp1197
asg52
I01
sg53
F3.0
sg54
F0.0
sg55
F0.0
sg56
F0.0
sg57
F0.0
sg58
S'34-14'
p1198
sg60
I01
sg61
F26.0
sg62
F0.0
ssg133
(dp1199
g5
F34.0
sg6
F0.0
sg7
(lp1200
(S'Tony Romo'
p1201
g10
tp1202
a(S'DeMarco Murray'
p1203
g15
tp1204
a(S'Dez Bryant'
p1205
g26
tp1206
a(S'Martellus Bennett'
p1207
g41
tp1208
a(S'John Phillips'
p1209
g41
tp1210
a(S'Jason Witten'
p1211
g41
tp1212
a(S'Dan Bailey'
p1213
g50
tp1214
asg52
I00
sg53
F23.0
sg54
F226.0
sg55
F2.0
sg56
F2.0
sg57
F2.0
sg58
S'19-20'
p1215
sg60
I00
sg61
F85.0
sg62
F0.0
ssg169
(dp1216
g5
F47.0
sg6
F1.0
sg7
(lp1217
(S'Ryan Fitzpatrick'
p1218
g10
tp1219
a(S'C.J. Spiller'
p1220
g15
tp1221
a(S'Kamar Aiken'
p1222
g26
tp1223
a(S'Steve Johnson'
p1224
g26
tp1225
a(S'Scott Chandler'
p1226
g41
tp1227
a(S'Lee Smith'
p1228
g41
tp1229
asg52
I01
sg53
F14.0
sg54
F316.0
sg55
F0.0
sg56
F2.0
sg57
F0.0
sg58
S'30-23'
p1230
sg60
I00
sg61
F98.0
sg62
F0.0
ssg205
(dp1231
g5
F30.0
sg6
F2.0
sg7
(lp1232
(S'Mike Vick'
p1233
g10
tp1234
a(S'Dion Lewis'
p1235
g15
tp1236
a(S'LeSean McCoy'
p1237
g15
tp1238
a(S'Jason Avant'
p1239
g26
tp1240
a(S'DeSean Jackson'
p1241
g26
tp1242
a(S'Jeremy Maclin'
p1243
g26
tp1244
a(S'Brent Celek'
p1245
g41
tp1246
a(S'Clay Harbor'
p1247
g41
tp1248
asg52
I00
sg53
F29.0
sg54
F208.0
sg55
F0.0
sg56
F1.0
sg57
F0.0
sg58
S'10-26'
p1249
sg60
I01
sg61
F47.0
sg62
F0.0
ssg241
(dp1250
g5
F32.0
sg6
F0.0
sg7
(lp1251
(S'Mark Sanchez'
p1252
g10
tp1253
a(S'Bilal Powell'
p1254
g15
tp1255
a(S'Jeremy Kerley'
p1256
g26
tp1257
a(S'Matthew Mulligan'
p1258
g41
tp1259
a(S'Nick Folk'
p1260
g50
tp1261
asg52
I01
sg53
F2.0
sg54
F207.0
sg55
F1.0
sg56
F2.0
sg57
F1.0
sg58
S'19-17'
p1262
sg60
I01
sg61
F18.0
sg62
F0.0
ssg275
(dp1263
g5
F46.0
sg6
F2.0
sg7
(lp1264
(S'Tom Brady'
p1265
g10
tp1266
a(S'Brian Hoyer'
p1267
g10
tp1268
a(S'Ryan Mallett'
p1269
g10
tp1270
a(S'Stevan Ridley'
p1271
g15
tp1272
a(S'Shane Vereen'
p1273
g15
tp1274
a(S'Danny Woodhead'
p1275
g15
tp1276
a(S'Julian Edelman'
p1277
g26
tp1278
a(S'Matthew Slater'
p1279
g26
tp1280
a(S'Wes Welker'
p1281
g26
tp1282
a(S'Rob Gronkowski'
p1283
g41
tp1284
a(S'Stephen Gostkowski'
p1285
g50
tp1286
asg52
I00
sg53
F27.0
sg54
F304.0
sg55
F3.0
sg56
F1.0
sg57
F2.0
sg58
S'24-27'
p1287
sg60
I00
sg61
F108.0
sg62
F0.0
ssg307
(dp1288
g5
F48.0
sg6
F0.0
sg7
(lp1289
(S'Tom Brady'
p1290
g10
tp1291
a(S'Brian Hoyer'
p1292
g10
tp1293
a(S'Ryan Mallett'
p1294
g10
tp1295
a(S'Stevan Ridley'
p1296
g15
tp1297
a(S'Shane Vereen'
p1298
g15
tp1299
a(S'Danny Woodhead'
p1300
g15
tp1301
a(S'Julian Edelman'
p1302
g26
tp1303
a(S'Matthew Slater'
p1304
g26
tp1305
a(S'Wes Welker'
p1306
g26
tp1307
a(S'Rob Gronkowski'
p1308
g41
tp1309
a(S'Stephen Gostkowski'
p1310
g50
tp1311
asg52
I00
sg53
F15.0
sg54
F517.0
sg55
F2.0
sg56
F4.0
sg57
F1.0
sg58
S'24-38'
p1312
sg60
I01
sg61
F72.0
sg62
F0.0
ssg343
(dp1313
g5
F39.0
sg6
F0.0
sg7
(lp1314
(S'Thad Lewis'
p1315
g10
tp1316
a(S'Colt McCoy'
p1317
g10
tp1318
a(S'Greg Little'
p1319
g26
tp1320
a(S'Jordan Norwood'
p1321
g26
tp1322
a(S'Jordan Cameron'
p1323
g41
tp1324
a(S'Alex Smith'
p1325
g41
tp1326
a(S'Benjamin Watson'
p1327
g41
tp1328
a(S'Phil Dawson'
p1329
g50
tp1330
asg52
I00
sg53
F2.0
sg54
F210.0
sg55
F1.0
sg56
F2.0
sg57
F1.0
sg58
S'16-17'
p1331
sg60
I00
sg61
F-2.0
sg62
F0.0
ssg385
(dp1332
g5
F29.0
sg6
F0.0
sg7
(lp1333
(S'Matt Schaub'
p1334
g10
tp1335
a(S'T.J. Yates'
p1336
g10
tp1337
a(S'Arian Foster'
p1338
g15
tp1339
a(S'Andre Johnson'
p1340
g26
tp1341
a(S'Owen Daniels'
p1342
g41
tp1343
a(S'Garrett Graham'
p1344
g41
tp1345
asg52
I00
sg53
F12.0
sg54
F230.0
sg55
F0.0
sg56
F2.0
sg57
F0.0
sg58
S'13-23'
p1346
sg60
I01
sg61
F35.0
sg62
F0.0
ssg423
(dp1347
g5
F0.0
sg6
F0.0
sg7
(lp1348
sg52
(lp1349
sg53
F0.0
sg54
F0.0
sg55
F0.0
sg56
F0.0
sg57
F0.0
sg58
(lp1350
sg60
(lp1351
sg61
F0.0
sg62
F0.0
ssg429
(dp1352
g5
F31.0
sg6
F1.0
sg7
(lp1353
(S'Philip Rivers'
p1354
g10
tp1355
a(S'Ryan Mathews'
p1356
g15
tp1357
a(S'Jordan Todman'
p1358
g15
tp1359
a(S'Mike Tolbert'
p1360
g15
tp1361
a(S'Vincent Brown'
p1362
g26
tp1363
a(S'Malcom Floyd'
p1364
g26
tp1365
a(S'Vincent Jackson'
p1366
g26
tp1367
a(S'Bryan Walters'
p1368
g26
tp1369
a(S'Antonio Gates'
p1370
g41
tp1371
a(S'Nick Novak'
p1372
g50
tp1373
asg52
I00
sg53
F27.0
sg54
F307.0
sg55
F4.0
sg56
F1.0
sg57
F4.0
sg58
S'16-26'
p1374
sg60
I00
sg61
F116.0
sg62
F0.0
ssg467
(dp1375
g5
F0.0
sg6
F0.0
sg7
(lp1376
(S'Eric Decker'
p1377
g26
tp1378
a(S'Eddie Royal'
p1379
g26
tp1380
a(S'Demaryius Thomas'
p1381
g26
tp1382
a(S'Daniel Fells'
p1383
g41
tp1384
a(S'Virgil Green'
p1385
g41
tp1386
a(S'Julius Thomas'
p1387
g41
tp1388
a(S'Matt Prater'
p1389
g50
tp1390
asg52
I00
sg53
F0.0
sg54
F0.0
sg55
F3.0
sg56
F0.0
sg57
F1.0
sg58
S'15-18'
p1391
sg60
I01
sg61
F0.0
sg62
F0.0
ssg501
(dp1392
g5
F25.0
sg6
F1.0
sg7
(lp1393
(S'Mark Sanchez'
p1394
g10
tp1395
a(S'Bilal Powell'
p1396
g15
tp1397
a(S'Jeremy Kerley'
p1398
g26
tp1399
a(S'Matthew Mulligan'
p1400
g41
tp1401
a(S'Nick Folk'
p1402
g50
tp1403
asg52
I00
sg53
F1.0
sg54
F201.0
sg55
F1.0
sg56
F1.0
sg57
F1.0
sg58
S'6-24'
p1404
sg60
I00
sg61
F5.0
sg62
F0.0
ssg539
(dp1405
g5
F39.0
sg6
F0.0
sg7
(lp1406
(S'Matt Cassel'
p1407
g10
tp1408
a(S'Dexter McCluster'
p1409
g15
tp1410
a(S'Dwayne Bowe'
p1411
g26
tp1412
a(S'Ryan Succop'
p1413
g50
tp1414
asg52
I01
sg53
F16.0
sg54
F253.0
sg55
F1.0
sg56
F0.0
sg57
F1.0
sg58
S'31-3'
p1415
sg60
I00
sg61
F74.0
sg62
F0.0
ssg577
(dp1416
g5
F45.0
sg6
F0.0
sg7
(lp1417
(S'Eli Manning'
p1418
g10
tp1419
a(S'Ahmad Bradshaw'
p1420
g15
tp1421
a(S'Victor Cruz'
p1422
g26
tp1423
a(S'Hakeem Nicks'
p1424
g26
tp1425
a(S'Bear Pascoe'
p1426
g41
tp1427
asg52
I00
sg53
F17.0
sg54
F349.0
sg55
F0.0
sg56
F2.0
sg57
F0.0
sg58
S'17-20'
p1428
sg60
I00
sg61
F47.0
sg62
F0.0
sssS'2010'
p1429
(dp1430
g3
(dp1431
g5
F25.0
sg6
F1.0
sg7
(lp1432
(S'Jay Cutler'
p1433
g10
tp1434
a(S'Matt Forte'
p1435
g15
tp1436
a(S'Devin Hester'
p1437
g26
tp1438
a(S'Kellen Davis'
p1439
g41
tp1440
a(S'Greg Olsen'
p1441
g41
tp1442
a(S'Robbie Gould'
p1443
g50
tp1444
asg52
I00
sg53
F29.0
sg54
F156.0
sg55
F3.0
sg56
F0.0
sg57
F3.0
sg58
S'0-16'
p1445
sg60
I01
sg61
F125.0
sg62
F0.0
ssg63
(dp1446
g5
F0.0
sg6
F1.0
sg7
(lp1447
(S'Chris Johnson'
p1448
g15
tp1449
a(S'Kenny Britt'
p1450
g26
tp1451
a(S'Marc Mariani'
p1452
g26
tp1453
a(S'Nate Washington'
p1454
g26
tp1455
a(S'Jared Cook'
p1456
g41
tp1457
a(S'Craig Stevens'
p1458
g41
tp1459
asg52
I01
sg53
F17.0
sg54
F0.0
sg55
F0.0
sg56
F0.0
sg57
F0.0
sg58
S'29-17'
p1460
sg60
I01
sg61
F117.0
sg62
F0.0
ssg97
(dp1461
g5
F0.0
sg6
F0.0
sg7
(lp1462
(S'Colt McCoy'
p1463
g10
tp1464
a(S'Jordan Norwood'
p1465
g26
tp1466
a(S'Alex Smith'
p1467
g41
tp1468
a(S'Benjamin Watson'
p1469
g41
tp1470
a(S'Phil Dawson'
p1471
g50
tp1472
asg52
I00
sg53
F0.0
sg54
F0.0
sg55
F3.0
sg56
F0.0
sg57
F2.0
sg58
S'10-13'
p1473
sg60
I01
sg61
F0.0
sg62
F0.0
ssg133
(dp1474
g5
F32.0
sg6
F0.0
sg7
(lp1475
(S'Bruce Gradkowski'
p1476
g10
tp1477
a(S'Darren McFadden'
p1478
g15
tp1479
a(S'Marcel Reece'
p1480
g15
tp1481
a(S'Darrius Heyward-Bey'
p1482
g26
tp1483
a(S'Louis Murphy'
p1484
g26
tp1485
a(S'Brandon Myers'
p1486
g41
tp1487
a(S'Sebastian Janikowski'
p1488
g50
tp1489
asg52
I01
sg53
F10.0
sg54
F252.0
sg55
F1.0
sg56
F1.0
sg57
F1.0
sg58
S'33-17'
p1490
sg60
I00
sg61
F2.0
sg62
F0.0
ssg169
(dp1491
g5
F26.0
sg6
F0.0
sg7
(lp1492
(S'Ryan Fitzpatrick'
p1493
g10
tp1494
a(S'Fred Jackson'
p1495
g15
tp1496
a(S'C.J. Spiller'
p1497
g15
tp1498
a(S'Steve Johnson'
p1499
g26
tp1500
a(S'Scott Chandler'
p1501
g41
tp1502
asg52
I00
sg53
F27.0
sg54
F223.0
sg55
F0.0
sg56
F2.0
sg57
F0.0
sg58
S'14-17'
p1503
sg60
I01
sg61
F71.0
sg62
F0.0
ssg205
(dp1504
g5
F44.0
sg6
F0.0
sg7
(lp1505
(S'Kellen Clemens'
p1506
g10
tp1507
a(S'Mark Sanchez'
p1508
g10
tp1509
a(S'Jerricho Cotchery'
p1510
g26
tp1511
a(S'Jeff Cumberland'
p1512
g41
tp1513
a(S'Matthew Mulligan'
p1514
g41
tp1515
a(S'Nick Folk'
p1516
g50
tp1517
asg52
I01
sg53
F2.0
sg54
F216.0
sg55
F2.0
sg56
F0.0
sg57
F2.0
sg58
S'10-6'
p1518
sg60
I00
sg61
F20.0
sg62
F0.0
ssg241
(dp1519
g5
F29.0
sg6
F0.0
sg7
(lp1520
(S'Tom Brady'
p1521
g10
tp1522
a(S'Brian Hoyer'
p1523
g10
tp1524
a(S'Danny Woodhead'
p1525
g15
tp1526
a(S'Julian Edelman'
p1527
g26
tp1528
a(S'Matthew Slater'
p1529
g26
tp1530
a(S'Brandon Tate'
p1531
g26
tp1532
a(S'Wes Welker'
p1533
g26
tp1534
a(S'Rob Gronkowski'
p1535
g41
tp1536
a(S'Shayne Graham'
p1537
g50
tp1538
asg52
I00
sg53
F4.0
sg54
F321.0
sg55
F1.0
sg56
F3.0
sg57
F1.0
sg58
S'7-38'
p1539
sg60
I00
sg61
F31.0
sg62
F0.0
ssg275
(dp1540
g5
F26.0
sg6
F0.0
sg7
(lp1541
(S'Shaun Hill'
p1542
g10
tp1543
a(S'Drew Stanton'
p1544
g10
tp1545
a(S'Jerome Felton'
p1546
g15
tp1547
a(S'Brandon Pettigrew'
p1548
g41
tp1549
asg52
I00
sg53
F1.0
sg54
F222.0
sg55
F0.0
sg56
F2.0
sg57
F0.0
sg58
S'27-34'
p1550
sg60
I01
sg61
F10.0
sg62
F0.0
ssg307
(dp1551
g5
F0.0
sg6
F0.0
sg7
(lp1552
(S'Ryan Fitzpatrick'
p1553
g10
tp1554
a(S'Fred Jackson'
p1555
g15
tp1556
a(S'C.J. Spiller'
p1557
g15
tp1558
a(S'Steve Johnson'
p1559
g26
tp1560
asg52
I01
sg53
F11.0
sg54
F0.0
sg55
F0.0
sg56
F0.0
sg57
F0.0
sg58
S'15-10'
p1561
sg60
I00
sg61
F25.0
sg62
F0.0
ssg343
(dp1562
g5
F28.0
sg6
F0.0
sg7
(lp1563
(S'Kellen Clemens'
p1564
g10
tp1565
a(S'Mark Sanchez'
p1566
g10
tp1567
a(S'Jerricho Cotchery'
p1568
g26
tp1569
a(S'Jeff Cumberland'
p1570
g41
tp1571
a(S'Matthew Mulligan'
p1572
g41
tp1573
a(S'Nick Folk'
p1574
g50
tp1575
asg52
I00
sg53
F1.0
sg54
F256.0
sg55
F2.0
sg56
F3.0
sg57
F1.0
sg58
S'23-31'
p1576
sg60
I01
sg61
F-1.0
sg62
F1.0
ssg385
(dp1577
g5
F0.0
sg6
F1.0
sg7
(lp1578
(S'Tarvaris Jackson'
p1579
g10
tp1580
a(S'Joe Webb'
p1581
g10
tp1582
a(S'Toby Gerhart'
p1583
g15
tp1584
a(S'Adrian Peterson'
p1585
g15
tp1586
a(S'Percy Harvin'
p1587
g26
tp1588
asg52
I01
sg53
F32.0
sg54
F0.0
sg55
F0.0
sg56
F0.0
sg57
F0.0
sg58
S'14-10'
p1589
sg60
I00
sg61
F155.0
sg62
F0.0
ssg423
(dp1590
g5
F0.0
sg6
F0.0
sg7
(lp1591
sg52
(lp1592
sg53
F0.0
sg54
F0.0
sg55
F0.0
sg56
F0.0
sg57
F0.0
sg58
(lp1593
sg60
(lp1594
sg61
F0.0
sg62
F0.0
ssg429
(dp1595
g5
F24.0
sg6
F0.0
sg7
(lp1596
(S'Tom Brady'
p1597
g10
tp1598
a(S'Brian Hoyer'
p1599
g10
tp1600
a(S'Danny Woodhead'
p1601
g15
tp1602
a(S'Julian Edelman'
p1603
g26
tp1604
a(S'Matthew Slater'
p1605
g26
tp1606
a(S'Brandon Tate'
p1607
g26
tp1608
a(S'Wes Welker'
p1609
g26
tp1610
a(S'Rob Gronkowski'
p1611
g41
tp1612
a(S'Stephen Gostkowski'
p1613
g50
tp1614
asg52
I00
sg53
F14.0
sg54
F153.0
sg55
F2.0
sg56
F1.0
sg57
F2.0
sg58
S'14-41'
p1615
sg60
I01
sg61
F40.0
sg62
F0.0
ssg467
(dp1616
g5
F27.0
sg6
F0.0
sg7
(lp1617
(S'Ben Roethlisberger'
p1618
g10
tp1619
a(S'Antonio Brown'
p1620
g26
tp1621
a(S'Emmanuel Sanders'
p1622
g26
tp1623
a(S'Mike Wallace'
p1624
g26
tp1625
a(S'David Johnson'
p1626
g41
tp1627
a(S'Matt Spaeth'
p1628
g41
tp1629
asg52
I00
sg53
F5.0
sg54
F302.0
sg55
F0.0
sg56
F2.0
sg57
F0.0
sg58
S'22-23'
p1630
sg60
I01
sg61
F1.0
sg62
F0.0
ssg501
(dp1631
g5
F33.0
sg6
F1.0
sg7
(lp1632
(S'Matt Flynn'
p1633
g10
tp1634
a(S'Aaron Rodgers'
p1635
g10
tp1636
a(S'John Kuhn'
p1637
g15
tp1638
a(S'Greg Jennings'
p1639
g26
tp1640
a(S'James Jones'
p1641
g26
tp1642
a(S'Jordy Nelson'
p1643
g26
tp1644
a(S'Andrew Quarless'
p1645
g41
tp1646
a(S'Mason Crosby'
p1647
g50
tp1648
asg52
I01
sg53
F9.0
sg54
F313.0
sg55
F2.0
sg56
F1.0
sg57
F2.0
sg58
S'23-20'
p1649
sg60
I00
sg61
F23.0
sg62
F0.0
ssg539
(dp1650
g5
F27.0
sg6
F0.0
sg7
(lp1651
(S'Joe Flacco'
p1652
g10
tp1653
a(S'Anquan Boldin'
p1654
g26
tp1655
a(S'Ed Dickson'
p1656
g41
tp1657
a(S'Dennis Pitta'
p1658
g41
tp1659
asg52
I00
sg53
F4.0
sg54
F266.0
sg55
F0.0
sg56
F2.0
sg57
F0.0
sg58
S'10-26'
p1660
sg60
I00
sg61
F7.0
sg62
F0.0
ssg577
(dp1661
g5
F38.0
sg6
F0.0
sg7
(lp1662
(S'Dan LeFevour'
p1663
g10
tp1664
a(S'Carson Palmer'
p1665
g10
tp1666
a(S'Cedric Peerman'
p1667
g15
tp1668
a(S'Andre Caldwell'
p1669
g26
tp1670
a(S'Jerome Simpson'
p1671
g26
tp1672
a(S'Jermaine Gresham'
p1673
g41
tp1674
a(S'Mike Nugent'
p1675
g50
tp1676
asg52
I01
sg53
F3.0
sg54
F156.0
sg55
F0.0
sg56
F2.0
sg57
F0.0
sg58
S'22-14'
p1677
sg60
I00
sg61
F13.0
sg62
F0.0
sssS'2013'
p1678
(dp1679
g3
(dp1680
g5
F34.0
sg6
F0.0
sg7
(lp1681
(S'Philip Rivers'
p1682
g10
tp1683
a(S'Ryan Mathews'
p1684
g15
tp1685
a(S'Danny Woodhead'
p1686
g15
tp1687
a(S'Seyi Ajirotutu'
p1688
g26
tp1689
a(S'Keenan Allen'
p1690
g26
tp1691
a(S'Vincent Brown'
p1692
g26
tp1693
a(S'Eddie Royal'
p1694
g26
tp1695
a(S'Antonio Gates'
p1696
g41
tp1697
a(S'Ladarius Green'
p1698
g41
tp1699
a(S'John Phillips'
p1700
g41
tp1701
a(S'Nick Novak'
p1702
g50
tp1703
asg52
I01
sg53
F26.0
sg54
F298.0
sg55
F3.0
sg56
F1.0
sg57
F3.0
sg58
S'20-16'
p1704
sg60
I01
sg61
F154.0
sg62
F0.0
ssg63
(dp1705
g5
F21.0
sg6
F1.0
sg7
(lp1706
(S'Mike Glennon'
p1707
g10
tp1708
a(S'Dan Orlovsky'
p1709
g10
tp1710
a(S'Mike James'
p1711
g15
tp1712
a(S'Bobby Rainey'
p1713
g15
tp1714
a(S'Vincent Jackson'
p1715
g26
tp1716
a(S'Chris Owusu'
p1717
g26
tp1718
a(S'Russell Shepard'
p1719
g26
tp1720
a(S'Timothy Wright'
p1721
g41
tp1722
asg52
I00
sg53
F17.0
sg54
F139.0
sg55
F0.0
sg56
F1.0
sg57
F0.0
sg58
S'19-22'
p1723
sg60
I00
sg61
F83.0
sg62
F0.0
ssg97
(dp1724
g5
F28.0
sg6
F0.0
sg7
(lp1725
(S'Matt Simms'
p1726
g10
tp1727
a(S'Geno Smith'
p1728
g10
tp1729
a(S'Tommy Bohanon'
p1730
g15
tp1731
a(S'Chris Ivory'
p1732
g15
tp1733
a(S'Bilal Powell'
p1734
g15
tp1735
a(S'Stephen Hill'
p1736
g26
tp1737
a(S'Jeremy Kerley'
p1738
g26
tp1739
a(S'Greg Salas'
p1740
g26
tp1741
a(S'Jeff Cumberland'
p1742
g41
tp1743
a(S'Chris Pantale'
p1744
g41
tp1745
a(S'Zach Sudfeld'
p1746
g41
tp1747
a(S'Nick Folk'
p1748
g50
tp1749
asg52
I01
sg53
F22.0
sg54
F108.0
sg55
F1.0
sg56
F0.0
sg57
F1.0
sg58
S'23-3'
p1750
sg60
I00
sg61
F99.0
sg62
F0.0
ssg133
(dp1751
g5
F38.0
sg6
F1.0
sg7
(lp1752
(S'Derek Anderson'
p1753
g10
tp1754
a(S'Cam Newton'
p1755
g10
tp1756
a(S'Kenjon Barner'
p1757
g15
tp1758
a(S'Jonathan Stewart'
p1759
g15
tp1760
a(S'Mike Tolbert'
p1761
g15
tp1762
a(S'DeAngelo Williams'
p1763
g15
tp1764
a(S'Ted Ginn'
p1765
g26
tp1766
a(S'Tavarres King'
p1767
g26
tp1768
a(S'Brandon LaFell'
p1769
g26
tp1770
a(S'Steve Smith'
p1771
g26
tp1772
a(S'Greg Olsen'
p1773
g41
tp1774
a(S'Brandon Williams'
p1775
g41
tp1776
a(S'Graham Gano'
p1777
g50
tp1778
asg52
I00
sg53
F28.0
sg54
F174.0
sg55
F3.0
sg56
F1.0
sg57
F2.0
sg58
S'16-20'
p1779
sg60
I01
sg61
F136.0
sg62
F1.0
ssg169
(dp1780
g5
F55.0
sg6
F0.0
sg7
(lp1781
(S'Tom Brady'
p1782
g10
tp1783
a(S'Ryan Mallett'
p1784
g10
tp1785
a(S'LeGarrette Blount'
p1786
g15
tp1787
a(S'Brandon Bolden'
p1788
g15
tp1789
a(S'James Develin'
p1790
g15
tp1791
a(S'Stevan Ridley'
p1792
g15
tp1793
a(S'Shane Vereen'
p1794
g15
tp1795
a(S'Danny Amendola'
p1796
g26
tp1797
a(S'Josh Boyce'
p1798
g26
tp1799
a(S'Aaron Dobson'
p1800
g26
tp1801
a(S'Julian Edelman'
p1802
g26
tp1803
a(S'Matthew Slater'
p1804
g26
tp1805
a(S'Kenbrell Thompkins'
p1806
g26
tp1807
a(S'Michael Hoomanawanui'
p1808
g41
tp1809
a(S'Matthew Mulligan'
p1810
g41
tp1811
a(S'Stephen Gostkowski'
p1812
g50
tp1813
asg52
I01
sg53
F22.0
sg54
F364.0
sg55
F3.0
sg56
F2.0
sg57
F2.0
sg58
S'24-20'
p1814
sg60
I01
sg61
F96.0
sg62
F0.0
ssg205
(dp1815
g5
F39.0
sg6
F0.0
sg7
(lp1816
(S'Bruce Gradkowski'
p1817
g10
tp1818
a(S'Landry Jones'
p1819
g10
tp1820
a(S'Ben Roethlisberger'
p1821
g10
tp1822
a(S"Le'Veon Bell"
p1823
g15
tp1824
a(S'Will Johnson'
p1825
g15
tp1826
a(S'Antonio Brown'
p1827
g26
tp1828
a(S'Jerricho Cotchery'
p1829
g26
tp1830
a(S'Emmanuel Sanders'
p1831
g26
tp1832
a(S'Markus Wheaton'
p1833
g26
tp1834
a(S'Matt Spaeth'
p1835
g41
tp1836
a(S'Shaun Suisham'
p1837
g50
tp1838
asg52
I01
sg53
F16.0
sg54
F349.0
sg55
F0.0
sg56
F3.0
sg57
F0.0
sg58
S'34-28'
p1839
sg60
I00
sg61
F69.0
sg62
F0.0
ssg241
(dp1840
g5
F27.0
sg6
F1.0
sg7
(lp1841
(S'Matt Simms'
p1842
g10
tp1843
a(S'Geno Smith'
p1844
g10
tp1845
a(S'Tommy Bohanon'
p1846
g15
tp1847
a(S'Chris Ivory'
p1848
g15
tp1849
a(S'Bilal Powell'
p1850
g15
tp1851
a(S'Saalim Hakim'
p1852
g26
tp1853
a(S'Jeremy Kerley'
p1854
g26
tp1855
a(S'Greg Salas'
p1856
g26
tp1857
a(S'Jeff Cumberland'
p1858
g41
tp1859
a(S'Chris Pantale'
p1860
g41
tp1861
a(S'Zach Sudfeld'
p1862
g41
tp1863
a(S'Nick Folk'
p1864
g50
tp1865
asg52
I00
sg53
F39.0
sg54
F190.0
sg55
F3.0
sg56
F0.0
sg57
F2.0
sg58
S'7-20'
p1866
sg60
I01
sg61
F152.0
sg62
F0.0
ssg275
(dp1867
g5
F25.0
sg6
F1.0
sg7
(lp1868
(S'Thad Lewis'
p1869
g10
tp1870
a(S'EJ Manuel'
p1871
g10
tp1872
a(S'Fred Jackson'
p1873
g15
tp1874
a(S'C.J. Spiller'
p1875
g15
tp1876
a(S'Marcus Easley'
p1877
g26
tp1878
a(S'Marquise Goodwin'
p1879
g26
tp1880
a(S'T.J. Graham'
p1881
g26
tp1882
a(S'Chris Hogan'
p1883
g26
tp1884
a(S'Steve Johnson'
p1885
g26
tp1886
a(S'Robert Woods'
p1887
g26
tp1888
a(S'Scott Chandler'
p1889
g41
tp1890
a(S'Chris Gragg'
p1891
g41
tp1892
a(S'Tony Moeaki'
p1893
g41
tp1894
a(S'Lee Smith'
p1895
g41
tp1896
a(S'Dan Carpenter'
p1897
g50
tp1898
asg52
I00
sg53
F49.0
sg54
F193.0
sg55
F4.0
sg56
F0.0
sg57
F4.0
sg58
S'0-19'
p1899
sg60
I00
sg61
F196.0
sg62
F0.0
ssg307
(dp1900
g5
F53.0
sg6
F0.0
sg7
(lp1901
(S'Brian Hoyer'
p1902
g10
tp1903
a(S'Brandon Weeden'
p1904
g10
tp1905
a(S'Bobby Rainey'
p1906
g15
tp1907
a(S'Trent Richardson'
p1908
g15
tp1909
a(S'Travis Benjamin'
p1910
g26
tp1911
a(S'Greg Little'
p1912
g26
tp1913
a(S'Gary Barnidge'
p1914
g41
tp1915
a(S'Jordan Cameron'
p1916
g41
tp1917
a(S'MarQueis Gray'
p1918
g41
tp1919
asg52
I01
sg53
F13.0
sg54
F289.0
sg55
F0.0
sg56
F1.0
sg57
F0.0
sg58
S'23-10'
p1920
sg60
I00
sg61
F47.0
sg62
F0.0
ssg343
(dp1921
g5
F38.0
sg6
F0.0
sg7
(lp1922
(S'Matt Ryan'
p1923
g10
tp1924
a(S'Patrick DiMarco'
p1925
g15
tp1926
a(S'Steven Jackson'
p1927
g15
tp1928
a(S'Jacquizz Rodgers'
p1929
g15
tp1930
a(S'Harry Douglas'
p1931
g26
tp1932
a(S'Julio Jones'
p1933
g26
tp1934
a(S'Roddy White'
p1935
g26
tp1936
a(S'Chase Coffman'
p1937
g41
tp1938
a(S'Levine Toilolo'
p1939
g41
tp1940
a(S'Matt Bryant'
p1941
g50
tp1942
asg52
I01
sg53
F19.0
sg54
F231.0
sg55
F4.0
sg56
F2.0
sg57
F3.0
sg58
S'27-23'
p1943
sg60
I01
sg61
F93.0
sg62
F0.0
ssg385
(dp1944
g5
F43.0
sg6
F1.0
sg7
(lp1945
(S'Andrew Luck'
p1946
g10
tp1947
a(S'Ahmad Bradshaw'
p1948
g15
tp1949
a(S'Donald Brown'
p1950
g15
tp1951
a(S'Kerwynn Williams'
p1952
g15
tp1953
a(S'Darrius Heyward-Bey'
p1954
g26
tp1955
a(S'T.Y. Hilton'
p1956
g26
tp1957
a(S'Griff Whalen'
p1958
g26
tp1959
a(S'Dwayne Allen'
p1960
g41
tp1961
a(S'Jack Doyle'
p1962
g41
tp1963
a(S'Coby Fleener'
p1964
g41
tp1965
a(S'Dominique Jones'
p1966
g41
tp1967
a(S'Adam Vinatieri'
p1968
g50
tp1969
asg52
I01
sg53
F26.0
sg54
F321.0
sg55
F3.0
sg56
F1.0
sg57
F2.0
sg58
S'24-20'
p1970
sg60
I00
sg61
F133.0
sg62
F0.0
ssg423
(dp1971
g5
F32.0
sg6
F0.0
sg7
(lp1972
(S'Joe Flacco'
p1973
g10
tp1974
a(S'Tyrod Taylor'
p1975
g10
tp1976
a(S'Shaun Draughn'
p1977
g15
tp1978
a(S'Kyle Juszczyk'
p1979
g15
tp1980
a(S'Bernard Pierce'
p1981
g15
tp1982
a(S'Torrey Smith'
p1983
g26
tp1984
a(S'Deonte Thompson'
p1985
g26
tp1986
a(S'Ed Dickson'
p1987
g41
tp1988
a(S'Justin Tucker'
p1989
g50
tp1990
asg52
I00
sg53
F13.0
sg54
F269.0
sg55
F4.0
sg56
F0.0
sg57
F4.0
sg58
S'23-26'
p1991
sg60
I01
sg61
F59.0
sg62
F0.0
ssg429
(dp1992
g5
F39.0
sg6
F1.0
sg7
(lp1993
(S'Drew Brees'
p1994
g10
tp1995
a(S'Luke McCown'
p1996
g10
tp1997
a(S'Travaris Cadet'
p1998
g15
tp1999
a(S'Mark Ingram'
p2000
g15
tp2001
a(S'Khiry Robinson'
p2002
g15
tp2003
a(S'Darren Sproles'
p2004
g15
tp2005
a(S'Pierre Thomas'
p2006
g15
tp2007
a(S'Marques Colston'
p2008
g26
tp2009
a(S'Lance Moore'
p2010
g26
tp2011
a(S'Kenny Stills'
p2012
g26
tp2013
a(S'Nick Toon'
p2014
g26
tp2015
a(S'Jimmy Graham'
p2016
g41
tp2017
a(S'Josh Hill'
p2018
g41
tp2019
a(S'Benjamin Watson'
p2020
g41
tp2021
asg52
I00
sg53
F24.0
sg54
F413.0
sg55
F0.0
sg56
F4.0
sg57
F0.0
sg58
S'17-38'
p2022
sg60
I00
sg61
F68.0
sg62
F0.0
ssg467
(dp2023
g5
F32.0
sg6
F1.0
sg7
(lp2024
(S'Matt Flynn'
p2025
g10
tp2026
a(S'Thad Lewis'
p2027
g10
tp2028
a(S'EJ Manuel'
p2029
g10
tp2030
a(S'Fred Jackson'
p2031
g15
tp2032
a(S'C.J. Spiller'
p2033
g15
tp2034
a(S'Marcus Easley'
p2035
g26
tp2036
a(S'Marquise Goodwin'
p2037
g26
tp2038
a(S'T.J. Graham'
p2039
g26
tp2040
a(S'Chris Hogan'
p2041
g26
tp2042
a(S'Steve Johnson'
p2043
g26
tp2044
a(S'Robert Woods'
p2045
g26
tp2046
a(S'Scott Chandler'
p2047
g41
tp2048
a(S'Chris Gragg'
p2049
g41
tp2050
a(S'Lee Smith'
p2051
g41
tp2052
a(S'Dan Carpenter'
p2053
g50
tp2054
asg52
I00
sg53
F22.0
sg54
F202.0
sg55
F3.0
sg56
F0.0
sg57
F3.0
sg58
S'21-23'
p2055
sg60
I01
sg61
F60.0
sg62
F0.0
ssg501
(dp2056
g5
F0.0
sg6
F0.0
sg7
(lp2057
sg52
(lp2058
sg53
F0.0
sg54
F0.0
sg55
F0.0
sg56
F0.0
sg57
F0.0
sg58
(lp2059
sg60
(lp2060
sg61
F0.0
sg62
F0.0
ssg539
(dp2061
g5
F53.0
sg6
F2.0
sg7
(lp2062
(S'Andy Dalton'
p2063
g10
tp2064
a(S'Josh Johnson'
p2065
g10
tp2066
a(S'Giovani Bernard'
p2067
g15
tp2068
a(S'Rex Burkhead'
p2069
g15
tp2070
a(S'Cedric Peerman'
p2071
g15
tp2072
a(S'A.J. Green'
p2073
g26
tp2074
a(S'Andrew Hawkins'
p2075
g26
tp2076
a(S'Marvin Jones'
p2077
g26
tp2078
a(S'Mohamed Sanu'
p2079
g26
tp2080
a(S'Brandon Tate'
p2081
g26
tp2082
a(S'Orson Charles'
p2083
g41
tp2084
a(S'Tyler Eifert'
p2085
g41
tp2086
a(S'Jermaine Gresham'
p2087
g41
tp2088
a(S'Alex Smith'
p2089
g41
tp2090
a(S'Mike Nugent'
p2091
g50
tp2092
asg52
I01
sg53
F14.0
sg54
F338.0
sg55
F2.0
sg56
F0.0
sg57
F2.0
sg58
S'22-20'
p2093
sg60
I01
sg61
F91.0
sg62
F0.0
ssg577
(dp2094
g5
F22.0
sg6
F2.0
sg7
(lp2095
(S'Tom Brady'
p2096
g10
tp2097
a(S'Ryan Mallett'
p2098
g10
tp2099
a(S'LeGarrette Blount'
p2100
g15
tp2101
a(S'Brandon Bolden'
p2102
g15
tp2103
a(S'James Develin'
p2104
g15
tp2105
a(S'Stevan Ridley'
p2106
g15
tp2107
a(S'Danny Amendola'
p2108
g26
tp2109
a(S'Josh Boyce'
p2110
g26
tp2111
a(S'Aaron Dobson'
p2112
g26
tp2113
a(S'Julian Edelman'
p2114
g26
tp2115
a(S'Matthew Slater'
p2116
g26
tp2117
a(S'Kenbrell Thompkins'
p2118
g26
tp2119
a(S'Rob Gronkowski'
p2120
g41
tp2121
a(S'Michael Hoomanawanui'
p2122
g41
tp2123
a(S'Matthew Mulligan'
p2124
g41
tp2125
a(S'Stephen Gostkowski'
p2126
g50
tp2127
asg52
I00
sg53
F37.0
sg54
F116.0
sg55
F2.0
sg56
F1.0
sg57
F2.0
sg58
S'17-27'
p2128
sg60
I00
sg61
F152.0
sg62
F0.0
sssS'2012'
p2129
(dp2130
g3
(dp2131
g5
F27.0
sg6
F0.0
sg7
(lp2132
(S'Ryan Fitzpatrick'
p2133
g10
tp2134
a(S'Tarvaris Jackson'
p2135
g10
tp2136
a(S'Fred Jackson'
p2137
g15
tp2138
a(S'C.J. Spiller'
p2139
g15
tp2140
a(S'Marcus Easley'
p2141
g26
tp2142
a(S'T.J. Graham'
p2143
g26
tp2144
a(S'Steve Johnson'
p2145
g26
tp2146
a(S'Scott Chandler'
p2147
g41
tp2148
a(S'Dorin Dickerson'
p2149
g41
tp2150
a(S'Lee Smith'
p2151
g41
tp2152
asg52
I00
sg53
F25.0
sg54
F168.0
sg55
F0.0
sg56
F0.0
sg57
F0.0
sg58
S'14-19'
p2153
sg60
I00
sg61
F106.0
sg62
F0.0
ssg63
(dp2154
g5
F0.0
sg6
F1.0
sg7
(lp2155
(S'Chris Johnson'
p2156
g15
tp2157
a(S'Kenny Britt'
p2158
g26
tp2159
a(S'Nate Washington'
p2160
g26
tp2161
a(S'Kendall Wright'
p2162
g26
tp2163
a(S'Jared Cook'
p2164
g41
tp2165
a(S'Craig Stevens'
p2166
g41
tp2167
asg52
I00
sg53
F23.0
sg54
F0.0
sg55
F0.0
sg56
F0.0
sg57
F0.0
sg58
S'3-37'
p2168
sg60
I01
sg61
F126.0
sg62
F0.0
ssg97
(dp2169
g5
F40.0
sg6
F1.0
sg7
(lp2170
(S'Tom Brady'
p2171
g10
tp2172
a(S'Ryan Mallett'
p2173
g10
tp2174
a(S'James Develin'
p2175
g15
tp2176
a(S'Stevan Ridley'
p2177
g15
tp2178
a(S'Shane Vereen'
p2179
g15
tp2180
a(S'Danny Woodhead'
p2181
g15
tp2182
a(S'Julian Edelman'
p2183
g26
tp2184
a(S'Matthew Slater'
p2185
g26
tp2186
a(S'Wes Welker'
p2187
g26
tp2188
a(S'Daniel Fells'
p2189
g41
tp2190
a(S'Rob Gronkowski'
p2191
g41
tp2192
a(S'Michael Hoomanawanui'
p2193
g41
tp2194
a(S'Stephen Gostkowski'
p2195
g50
tp2196
asg52
I00
sg53
F32.0
sg54
F238.0
sg55
F4.0
sg56
F1.0
sg57
F3.0
sg58
S'16-23'
p2197
sg60
I01
sg61
F108.0
sg62
F0.0
ssg133
(dp2198
g5
F27.0
sg6
F0.0
sg7
(lp2199
(S'Matt Flynn'
p2200
g10
tp2201
a(S'Russell Wilson'
p2202
g10
tp2203
a(S'Robert Turbin'
p2204
g15
tp2205
a(S'Doug Baldwin'
p2206
g26
tp2207
a(S'Jermaine Kearse'
p2208
g26
tp2209
a(S'Golden Tate'
p2210
g26
tp2211
a(S'Anthony McCoy'
p2212
g41
tp2213
a(S'Steven Hauschka'
p2214
g50
tp2215
asg52
I01
sg53
F7.0
sg54
F224.0
sg55
F0.0
sg56
F2.0
sg57
F0.0
sg58
S'24-21'
p2216
sg60
I01
sg61
F47.0
sg62
F0.0
ssg169
(dp2217
g5
F34.0
sg6
F0.0
sg7
(lp2218
(S'Chad Henne'
p2219
g10
tp2220
a(S'Rashad Jennings'
p2221
g15
tp2222
a(S'Jordan Todman'
p2223
g15
tp2224
a(S'Justin Blackmon'
p2225
g26
tp2226
a(S'Cecil Shorts'
p2227
g26
tp2228
a(S'Marcedes Lewis'
p2229
g41
tp2230
a(S'Josh Scobee'
p2231
g50
tp2232
asg52
I01
sg53
F3.0
sg54
F221.0
sg55
F1.0
sg56
F0.0
sg57
F1.0
sg58
S'24-3'
p2233
sg60
I01
sg61
F16.0
sg62
F0.0
ssg205
(dp2234
g5
F23.0
sg6
F3.0
sg7
(lp2235
(S'Colin Kaepernick'
p2236
g10
tp2237
a(S'Alex Smith'
p2238
g10
tp2239
a(S'Scott Tolzien'
p2240
g10
tp2241
a(S'Anthony Dixon'
p2242
g15
tp2243
a(S'Frank Gore'
p2244
g15
tp2245
a(S'Bruce Miller'
p2246
g15
tp2247
a(S'Will Tukuafu'
p2248
g15
tp2249
a(S'Michael Crabtree'
p2250
g26
tp2251
a(S'Ted Ginn'
p2252
g26
tp2253
a(S'Garrett Celek'
p2254
g41
tp2255
a(S'Vernon Davis'
p2256
g41
tp2257
a(S'Delanie Walker'
p2258
g41
tp2259
asg52
I00
sg53
F20.0
sg54
F185.0
sg55
F0.0
sg56
F0.0
sg57
F0.0
sg58
S'13-27'
p2260
sg60
I00
sg61
F125.0
sg62
F0.0
ssg241
(dp2261
g5
F36.0
sg6
F2.0
sg7
(lp2262
(S'Tom Brady'
p2263
g10
tp2264
a(S'Ryan Mallett'
p2265
g10
tp2266
a(S'Brandon Bolden'
p2267
g15
tp2268
a(S'Stevan Ridley'
p2269
g15
tp2270
a(S'Shane Vereen'
p2271
g15
tp2272
a(S'Danny Woodhead'
p2273
g15
tp2274
a(S'Kamar Aiken'
p2275
g26
tp2276
a(S'Matthew Slater'
p2277
g26
tp2278
a(S'Wes Welker'
p2279
g26
tp2280
a(S'Daniel Fells'
p2281
g41
tp2282
a(S'Rob Gronkowski'
p2283
g41
tp2284
a(S'Michael Hoomanawanui'
p2285
g41
tp2286
a(S'Stephen Gostkowski'
p2287
g50
tp2288
asg52
I00
sg53
F38.0
sg54
F284.0
sg55
F0.0
sg56
F2.0
sg57
F0.0
sg58
S'0-28'
p2289
sg60
I00
sg61
F167.0
sg62
F0.0
ssg275
(dp2290
g5
F35.0
sg6
F0.0
sg7
(lp2291
(S'Ryan Fitzpatrick'
p2292
g10
tp2293
a(S'Tarvaris Jackson'
p2294
g10
tp2295
a(S'C.J. Spiller'
p2296
g15
tp2297
a(S'Marcus Easley'
p2298
g26
tp2299
a(S'T.J. Graham'
p2300
g26
tp2301
a(S'Chris Hogan'
p2302
g26
tp2303
a(S'Steve Johnson'
p2304
g26
tp2305
a(S'Scott Chandler'
p2306
g41
tp2307
a(S'Dorin Dickerson'
p2308
g41
tp2309
a(S'Lee Smith'
p2310
g41
tp2311
asg52
I01
sg53
F26.0
sg54
F240.0
sg55
F0.0
sg56
F1.0
sg57
F0.0
sg58
S'24-10'
p2312
sg60
I01
sg61
F156.0
sg62
F0.0
ssg307
(dp2313
g5
F31.0
sg6
F2.0
sg7
(lp2314
(S'Matt Schaub'
p2315
g10
tp2316
a(S'T.J. Yates'
p2317
g10
tp2318
a(S'Tyler Clutts'
p2319
g15
tp2320
a(S'Justin Forsett'
p2321
g15
tp2322
a(S'Arian Foster'
p2323
g15
tp2324
a(S'Andre Johnson'
p2325
g26
tp2326
a(S'Keshawn Martin'
p2327
g26
tp2328
a(S'DeVier Posey'
p2329
g26
tp2330
a(S'Owen Daniels'
p2331
g41
tp2332
a(S'Garrett Graham'
p2333
g41
tp2334
a(S'Shayne Graham'
p2335
g50
tp2336
asg52
I00
sg53
F30.0
sg54
F266.0
sg55
F4.0
sg56
F1.0
sg57
F3.0
sg58
S'10-30'
p2337
sg60
I00
sg61
F77.0
sg62
F0.0
ssg343
(dp2338
g5
F45.0
sg6
F0.0
sg7
(lp2339
(S'Mark Sanchez'
p2340
g10
tp2341
a(S'Bilal Powell'
p2342
g15
tp2343
a(S'Stephen Hill'
p2344
g26
tp2345
a(S'Jeremy Kerley'
p2346
g26
tp2347
a(S'Jeff Cumberland'
p2348
g41
tp2349
a(S'Konrad Reuland'
p2350
g41
tp2351
a(S'Nick Folk'
p2352
g50
tp2353
asg52
I00
sg53
F11.0
sg54
F306.0
sg55
F3.0
sg56
F1.0
sg57
F3.0
sg58
S'20-23'
p2354
sg60
I01
sg61
F49.0
sg62
F0.0
ssg385
(dp2355
g5
F48.0
sg6
F0.0
sg7
(lp2356
(S'Carson Palmer'
p2357
g10
tp2358
a(S'Taiwan Jones'
p2359
g15
tp2360
a(S'Darren McFadden'
p2361
g15
tp2362
a(S'Marcel Reece'
p2363
g15
tp2364
a(S'Darrius Heyward-Bey'
p2365
g26
tp2366
a(S'Terrelle Pryor'
p2367
g26
tp2368
a(S'Rod Streater'
p2369
g26
tp2370
a(S'Richard Gordon'
p2371
g41
tp2372
a(S'Brandon Myers'
p2373
g41
tp2374
a(S'Sebastian Janikowski'
p2375
g50
tp2376
asg52
I01
sg53
F13.0
sg54
F373.0
sg55
F2.0
sg56
F1.0
sg57
F2.0
sg58
S'35-13'
p2377
sg60
I01
sg61
F29.0
sg62
F0.0
ssg423
(dp2378
g5
F43.0
sg6
F0.0
sg7
(lp2379
(S'Andy Dalton'
p2380
g10
tp2381
a(S'Bruce Gradkowski'
p2382
g10
tp2383
a(S'Cedric Peerman'
p2384
g15
tp2385
a(S'A.J. Green'
p2386
g26
tp2387
a(S'Andrew Hawkins'
p2388
g26
tp2389
a(S'Marvin Jones'
p2390
g26
tp2391
a(S'Mohamed Sanu'
p2392
g26
tp2393
a(S'Brandon Tate'
p2394
g26
tp2395
a(S'Orson Charles'
p2396
g41
tp2397
a(S'Jermaine Gresham'
p2398
g41
tp2399
a(S'Mike Nugent'
p2400
g50
tp2401
asg52
I01
sg53
F5.0
sg54
F234.0
sg55
F3.0
sg56
F1.0
sg57
F2.0
sg58
S'17-13'
p2402
sg60
I00
sg61
F26.0
sg62
F0.0
ssg429
(dp2403
g5
F0.0
sg6
F0.0
sg7
(lp2404
(S'Anthony Sherman'
p2405
g15
tp2406
a(S'LaRon Byrd'
p2407
g26
tp2408
a(S'Larry Fitzgerald'
p2409
g26
tp2410
a(S'Michael Floyd'
p2411
g26
tp2412
a(S'Andre Roberts'
p2413
g26
tp2414
a(S'Jim Dray'
p2415
g41
tp2416
a(S'Rob Housler'
p2417
g41
tp2418
asg52
I00
sg53
F0.0
sg54
F0.0
sg55
F0.0
sg56
F0.0
sg57
F0.0
sg58
S'21-24'
p2419
sg60
I00
sg61
F0.0
sg62
F0.0
ssg467
(dp2420
g5
F0.0
sg6
F0.0
sg7
(lp2421
sg52
(lp2422
sg53
F0.0
sg54
F0.0
sg55
F0.0
sg56
F0.0
sg57
F0.0
sg58
(lp2423
sg60
(lp2424
sg61
F0.0
sg62
F0.0
ssg501
(dp2425
g5
F39.0
sg6
F1.0
sg7
(lp2426
(S'Sam Bradford'
p2427
g10
tp2428
a(S'Kellen Clemens'
p2429
g10
tp2430
a(S'Austin Davis'
p2431
g10
tp2432
a(S'Steven Jackson'
p2433
g15
tp2434
a(S'Isaiah Pead'
p2435
g15
tp2436
a(S'Daryl Richardson'
p2437
g15
tp2438
a(S'Danny Amendola'
p2439
g26
tp2440
a(S'Brandon Gibson'
p2441
g26
tp2442
a(S'Chris Givens'
p2443
g26
tp2444
a(S'Brian Quick'
p2445
g26
tp2446
a(S'Lance Kendricks'
p2447
g41
tp2448
a(S'Matthew Mulligan'
p2449
g41
tp2450
a(S'Greg Zuerlein'
p2451
g50
tp2452
asg52
I01
sg53
F27.0
sg54
F315.0
sg55
F5.0
sg56
F0.0
sg57
F2.0
sg58
S'17-14'
p2453
sg60
I01
sg61
F162.0
sg62
F0.0
ssg539
(dp2454
g5
F48.0
sg6
F0.0
sg7
(lp2455
(S'Andrew Luck'
p2456
g10
tp2457
a(S'Drew Stanton'
p2458
g10
tp2459
a(S'Vick Ballard'
p2460
g15
tp2461
a(S'Donald Brown'
p2462
g15
tp2463
a(S'T.Y. Hilton'
p2464
g26
tp2465
a(S'Nathan Palmer'
p2466
g26
tp2467
a(S'Dwayne Allen'
p2468
g41
tp2469
a(S'Coby Fleener'
p2470
g41
tp2471
a(S'Adam Vinatieri'
p2472
g50
tp2473
asg52
I00
sg53
F18.0
sg54
F433.0
sg55
F5.0
sg56
F2.0
sg57
F3.0
sg58
S'20-23'
p2474
sg60
I00
sg61
F66.0
sg62
F1.0
ssg577
(dp2475
g5
F54.0
sg6
F0.0
sg7
(lp2476
(S'Mark Sanchez'
p2477
g10
tp2478
a(S'Jonathan Grimes'
p2479
g15
tp2480
a(S'Bilal Powell'
p2481
g15
tp2482
a(S'Stephen Hill'
p2483
g26
tp2484
a(S'Jeremy Kerley'
p2485
g26
tp2486
a(S'Jeff Cumberland'
p2487
g41
tp2488
a(S'Konrad Reuland'
p2489
g41
tp2490
a(S'Nick Folk'
p2491
g50
tp2492
asg52
I01
sg53
F2.0
sg54
F283.0
sg55
F2.0
sg56
F1.0
sg57
F1.0
sg58
S'30-9'
p2493
sg60
I00
sg61
F11.0
sg62
F1.0
sss.