(dp0
S'2015'
p1
(dp2
S'11'
p3
(dp4
S'PassAtt'
p5
F0.0
sS'RushTD'
p6
F0.0
sS'Players'
p7
(lp8
sS'Won'
p9
(lp10
sS'RushAtt'
p11
F0.0
sS'PassYds'
p12
F0.0
sS'FGAtt'
p13
F0.0
sS'PassTD'
p14
F0.0
sS'FGM'
p15
F0.0
sS'Score'
p16
(lp17
sS'Home'
p18
(lp19
sS'RushYds'
p20
F0.0
sS'FGBlk'
p21
F0.0
ssS'10'
p22
(dp23
g5
F42.0
sg6
F1.0
sg7
(lp24
(S'Tom Brady'
p25
S'QB'
p26
tp27
a(S'Jimmy Garoppolo'
p28
g26
tp29
a(S'LeGarrette Blount'
p30
S'RB'
p31
tp32
a(S'Brandon Bolden'
p33
g31
tp34
a(S'James White'
p35
g31
tp36
a(S'Danny Amendola'
p37
S'WR'
p38
tp39
a(S'Aaron Dobson'
p40
g38
tp41
a(S'Julian Edelman'
p42
g38
tp43
a(S'Brandon LaFell'
p44
g38
tp45
a(S'Keshawn Martin'
p46
g38
tp47
a(S'Matthew Slater'
p48
g38
tp49
a(S'Scott Chandler'
p50
S'TE'
p51
tp52
a(S'Rob Gronkowski'
p53
g51
tp54
a(S'Michael Williams'
p55
g51
tp56
a(S'Stephen Gostkowski'
p57
S'K'
p58
tp59
asg9
I00
sg11
F23.0
sg12
F334.0
sg13
F2.0
sg14
F2.0
sg15
F2.0
sg16
S'26-27'
p60
sg18
I01
sg20
F77.0
sg21
F0.0
ssS'13'
p61
(dp62
g5
F50.0
sg6
F0.0
sg7
(lp63
(S'Ryan Fitzpatrick'
p64
g26
tp65
a(S'Bryce Petty'
p66
g26
tp67
a(S'Geno Smith'
p68
g26
tp69
a(S'Tommy Bohanon'
p70
g31
tp71
a(S'Chris Ivory'
p72
g31
tp73
a(S'Bilal Powell'
p74
g31
tp75
a(S'Stevan Ridley'
p76
g31
tp77
a(S'Eric Decker'
p78
g38
tp79
a(S'Quincy Enunwa'
p80
g38
tp81
a(S'Jeremy Kerley'
p82
g38
tp83
a(S'Brandon Marshall'
p84
g38
tp85
a(S'Devin Smith'
p86
g38
tp87
a(S'Kenbrell Thompkins'
p88
g38
tp89
a(S'Jeff Cumberland'
p90
g51
tp91
a(S'Kellen Davis'
p92
g51
tp93
a(S'Randy Bullock'
p94
g58
tp95
asg9
I00
sg11
F24.0
sg12
F390.0
sg13
F3.0
sg14
F2.0
sg15
F3.0
sg16
S'20-23'
p96
sg18
I01
sg20
F90.0
sg21
F0.0
ssS'12'
p97
(dp98
g5
F29.0
sg6
F1.0
sg7
(lp99
(S'Kirk Cousins'
p100
g26
tp101
a(S'Robert Griffin III'
p102
g26
tp103
a(S'Colt McCoy'
p104
g26
tp105
a(S'Alfred Morris'
p106
g31
tp107
a(S'Chris Thompson'
p108
g31
tp109
a(S'Darrel Young'
p110
g31
tp111
a(S'Jamison Crowder'
p112
g38
tp113
a(S'Pierre Garcon'
p114
g38
tp115
a(S'Ryan Grant'
p116
g38
tp117
a(S'DeSean Jackson'
p118
g38
tp119
a(S'Andre Roberts'
p120
g38
tp121
a(S'Rashad Ross'
p122
g38
tp123
a(S'Derek Carrier'
p124
g51
tp125
a(S"Je'Ron Hamm"
p126
g51
tp127
a(S'Jordan Reed'
p128
g51
tp129
a(S'Dustin Hopkins'
p130
g58
tp131
asg9
I00
sg11
F29.0
sg12
F302.0
sg13
F3.0
sg14
F1.0
sg15
F2.0
sg16
S'14-20'
p132
sg18
I00
sg20
F86.0
sg21
F1.0
ssS'15'
p133
(dp134
g5
F45.0
sg6
F0.0
sg7
(lp135
(S'Derek Anderson'
p136
g26
tp137
a(S'Cam Newton'
p138
g26
tp139
a(S'Joe Webb'
p140
g26
tp141
a(S'Cameron Artis-Payne'
p142
g31
tp143
a(S'Jonathan Stewart'
p144
g31
tp145
a(S'Mike Tolbert'
p146
g31
tp147
a(S'Brandon Wegher'
p148
g31
tp149
a(S'Fozzy Whittaker'
p150
g31
tp151
a(S'Brenton Bersin'
p152
g38
tp153
a(S'Corey Brown'
p154
g38
tp155
a(S'Jerricho Cotchery'
p156
g38
tp157
a(S'Devin Funchess'
p158
g38
tp159
a(S'Ted Ginn'
p160
g38
tp161
a(S'Kevin Norwood'
p162
g38
tp163
a(S'Ed Dickson'
p164
g51
tp165
a(S'Greg Olsen'
p166
g51
tp167
a(S'Scott Simonson'
p168
g51
tp169
a(S'Graham Gano'
p170
g58
tp171
asg9
I00
sg11
F29.0
sg12
F340.0
sg13
F2.0
sg14
F5.0
sg15
F1.0
sg16
S'35-38'
p172
sg18
I01
sg20
F171.0
sg21
F1.0
ssS'14'
p173
(dp174
g5
F41.0
sg6
F2.0
sg7
(lp175
(S'Matt Moore'
p176
g26
tp177
a(S'Ryan Tannehill'
p178
g26
tp179
a(S'Jay Ajayi'
p180
g31
tp181
a(S'Lamar Miller'
p182
g31
tp183
a(S'Damien Williams'
p184
g31
tp185
a(S'Matt Hazel'
p186
g38
tp187
a(S'Greg Jennings'
p188
g38
tp189
a(S'Jarvis Landry'
p190
g38
tp191
a(S'Rishard Matthews'
p192
g38
tp193
a(S'DeVante Parker'
p194
g38
tp195
a(S'Kenny Stills'
p196
g38
tp197
a(S'Jordan Cameron'
p198
g51
tp199
a(S'Dion Sims'
p200
g51
tp201
a(S'Jake Stoneburner'
p202
g51
tp203
a(S'Andrew Franks'
p204
g58
tp205
asg9
I01
sg11
F22.0
sg12
F236.0
sg13
F1.0
sg14
F1.0
sg15
F1.0
sg16
S'31-24'
p206
sg18
I00
sg20
F128.0
sg21
F0.0
ssS'17'
p207
(dp208
g5
F38.0
sg6
F2.0
sg7
(lp209
(S'Sam Bradford'
p210
g26
tp211
a(S'Thad Lewis'
p212
g26
tp213
a(S'Mark Sanchez'
p214
g26
tp215
a(S'Kenjon Barner'
p216
g31
tp217
a(S'Ryan Mathews'
p218
g31
tp219
a(S'DeMarco Murray'
p220
g31
tp221
a(S'Darren Sproles'
p222
g31
tp223
a(S'Nelson Agholor'
p224
g38
tp225
a(S'Seyi Ajirotutu'
p226
g38
tp227
a(S'Josh Huff'
p228
g38
tp229
a(S'Jonathan Krause'
p230
g38
tp231
a(S'Jordan Matthews'
p232
g38
tp233
a(S'Trey Burton'
p234
g51
tp235
a(S'Brent Celek'
p236
g51
tp237
a(S'Zach Ertz'
p238
g51
tp239
a(S'Caleb Sturgis'
p240
g58
tp241
asg9
I00
sg11
F26.0
sg12
F320.0
sg13
F0.0
sg14
F2.0
sg15
F0.0
sg16
S'30-35'
p242
sg18
I01
sg20
F120.0
sg21
F0.0
ssS'16'
p243
(dp244
g5
F25.0
sg6
F3.0
sg7
(lp245
(S'Teddy Bridgewater'
p246
g26
tp247
a(S'Taylor Heinicke'
p248
g26
tp249
a(S'Shaun Hill'
p250
g26
tp251
a(S'Matt Asiata'
p252
g31
tp253
a(S'Zach Line'
p254
g31
tp255
a(S'Jerick McKinnon'
p256
g31
tp257
a(S'Adrian Peterson'
p258
g31
tp259
a(S'Stefon Diggs'
p260
g38
tp261
a(S'Charles Johnson'
p262
g38
tp263
a(S'Cordarrelle Patterson'
p264
g38
tp265
a(S'Adam Thielen'
p266
g38
tp267
a(S'Mike Wallace'
p268
g38
tp269
a(S'Jarius Wright'
p270
g38
tp271
a(S'Dorin Dickerson'
p272
g51
tp273
a(S'Rhett Ellison'
p274
g51
tp275
a(S'MyCole Pruitt'
p276
g51
tp277
a(S'Kyle Rudolph'
p278
g51
tp279
a(S'Blair Walsh'
p280
g58
tp281
asg9
I00
sg11
F40.0
sg12
F168.0
sg13
F5.0
sg14
F1.0
sg15
F5.0
sg16
S'17-49'
p282
sg18
I00
sg20
F218.0
sg21
F0.0
ssS'1'
p283
(dp284
g5
F45.0
sg6
F0.0
sg7
(lp285
(S'Tony Romo'
p286
g26
tp287
a(S'Brandon Weeden'
p288
g26
tp289
a(S'Tyler Clutts'
p290
g31
tp291
a(S'Lance Dunbar'
p292
g31
tp293
a(S'Darren McFadden'
p294
g31
tp295
a(S'Christine Michael'
p296
g31
tp297
a(S'Cole Beasley'
p298
g38
tp299
a(S'Dez Bryant'
p300
g38
tp301
a(S'Devin Street'
p302
g38
tp303
a(S'Lucky Whitehead'
p304
g38
tp305
a(S'Terrance Williams'
p306
g38
tp307
a(S'Gavin Escobar'
p308
g51
tp309
a(S'James Hanna'
p310
g51
tp311
a(S'Geoff Swaim'
p312
g51
tp313
a(S'Jason Witten'
p314
g51
tp315
a(S'Dan Bailey'
p316
g58
tp317
asg9
I00
sg11
F7.0
sg12
F356.0
sg13
F2.0
sg14
F3.0
sg15
F2.0
sg16
S'26-27'
p318
sg18
I00
sg20
F15.0
sg21
F0.0
ssS'3'
p319
(dp320
g5
F49.0
sg6
F0.0
sg7
(lp321
(S'Kirk Cousins'
p322
g26
tp323
a(S'Robert Griffin III'
p324
g26
tp325
a(S'Colt McCoy'
p326
g26
tp327
a(S'Alfred Morris'
p328
g31
tp329
a(S'Chris Thompson'
p330
g31
tp331
a(S'Darrel Young'
p332
g31
tp333
a(S'Jamison Crowder'
p334
g38
tp335
a(S'Pierre Garcon'
p336
g38
tp337
a(S'Ryan Grant'
p338
g38
tp339
a(S'DeSean Jackson'
p340
g38
tp341
a(S'Andre Roberts'
p342
g38
tp343
a(S'Rashad Ross'
p344
g38
tp345
a(S'Derek Carrier'
p346
g51
tp347
a(S'Anthony McCoy'
p348
g51
tp349
a(S'Jordan Reed'
p350
g51
tp351
a(S'Dustin Hopkins'
p352
g58
tp353
asg9
I01
sg11
F9.0
sg12
F316.0
sg13
F2.0
sg14
F1.0
sg15
F2.0
sg16
S'32-21'
p354
sg18
I01
sg20
F50.0
sg21
F0.0
ssS'2'
p355
(dp356
g5
F46.0
sg6
F2.0
sg7
(lp357
(S'Sean Renfree'
p358
g26
tp359
a(S'Matt Ryan'
p360
g26
tp361
a(S'Tevin Coleman'
p362
g31
tp363
a(S'Patrick DiMarco'
p364
g31
tp365
a(S'Devont Freeman'
p366
g31
tp367
a(S'Terron Ward'
p368
g31
tp369
a(S'Leonard Hankerson'
p370
g38
tp371
a(S'Justin Hardy'
p372
g38
tp373
a(S'Devin Hester'
p374
g38
tp375
a(S'Julio Jones'
p376
g38
tp377
a(S'Eric Weems'
p378
g38
tp379
a(S'Roddy White'
p380
g38
tp381
a(S'Nick Williams'
p382
g38
tp383
a(S'Jacob Tamme'
p384
g51
tp385
a(S'Levine Toilolo'
p386
g51
tp387
a(S'Matt Bryant'
p388
g58
tp389
asg9
I00
sg11
F22.0
sg12
F363.0
sg13
F1.0
sg14
F1.0
sg15
F1.0
sg16
S'20-24'
p390
sg18
I01
sg20
F56.0
sg21
F0.0
ssS'5'
p391
(dp392
g5
F35.0
sg6
F1.0
sg7
(lp393
(S'Blaine Gabbert'
p394
g26
tp395
a(S'Colin Kaepernick'
p396
g26
tp397
a(S'Reggie Bush'
p398
g31
tp399
a(S'Mike Davis'
p400
g31
tp401
a(S'Carlos Hyde'
p402
g31
tp403
a(S'Bruce Miller'
p404
g31
tp405
a(S'Anquan Boldin'
p406
g38
tp407
a(S'Bruce Ellington'
p408
g38
tp409
a(S'Quinton Patton'
p410
g38
tp411
a(S'Torrey Smith'
p412
g38
tp413
a(S'DeAndrew White'
p414
g38
tp415
a(S'Blake Bell'
p416
g51
tp417
a(S'Garrett Celek'
p418
g51
tp419
a(S'Vernon Davis'
p420
g51
tp421
a(S'Vance McDonald'
p422
g51
tp423
a(S'Phil Dawson'
p424
g58
tp425
asg9
I01
sg11
F25.0
sg12
F262.0
sg13
F2.0
sg14
F2.0
sg15
F2.0
sg16
S'30-27'
p426
sg18
I01
sg20
F115.0
sg21
F0.0
ssS'4'
p427
(dp428
g5
F42.0
sg6
F0.0
sg7
(lp429
(S'EJ Manuel'
p430
g26
tp431
a(S'Tyrod Taylor'
p432
g26
tp433
a(S'Anthony Dixon'
p434
g31
tp435
a(S'Jerome Felton'
p436
g31
tp437
a(S'LeSean McCoy'
p438
g31
tp439
a(S'Karlos Williams'
p440
g31
tp441
a(S'Marcus Easley'
p442
g38
tp443
a(S'Marquise Goodwin'
p444
g38
tp445
a(S'Percy Harvin'
p446
g38
tp447
a(S'Chris Hogan'
p448
g38
tp449
a(S'Sammy Watkins'
p450
g38
tp451
a(S'Robert Woods'
p452
g38
tp453
a(S'Charles Clay'
p454
g51
tp455
a(S'Chris Gragg'
p456
g51
tp457
a(S'MarQueis Gray'
p458
g51
tp459
a(S'Matthew Mulligan'
p460
g51
tp461
a(S'Dan Carpenter'
p462
g58
tp463
a(S'Jordan Gay'
p464
g58
tp465
asg9
I01
sg11
F24.0
sg12
F274.0
sg13
F2.0
sg14
F1.0
sg15
F1.0
sg16
S'24-10'
p466
sg18
I00
sg20
F55.0
sg21
F0.0
ssS'7'
p467
(dp468
g5
F27.0
sg6
F1.0
sg7
(lp469
(S'Matt Cassel'
p470
g26
tp471
a(S'Kellen Moore'
p472
g26
tp473
a(S'Brandon Weeden'
p474
g26
tp475
a(S'Tyler Clutts'
p476
g31
tp477
a(S'Darren McFadden'
p478
g31
tp479
a(S'Christine Michael'
p480
g31
tp481
a(S'Rod Smith'
p482
g31
tp483
a(S'Cole Beasley'
p484
g38
tp485
a(S'Dez Bryant'
p486
g38
tp487
a(S'Brice Butler'
p488
g38
tp489
a(S'Devin Street'
p490
g38
tp491
a(S'Lucky Whitehead'
p492
g38
tp493
a(S'Terrance Williams'
p494
g38
tp495
a(S'Gavin Escobar'
p496
g51
tp497
a(S'James Hanna'
p498
g51
tp499
a(S'Geoff Swaim'
p500
g51
tp501
a(S'Jason Witten'
p502
g51
tp503
a(S'Dan Bailey'
p504
g58
tp505
asg9
I01
sg11
F39.0
sg12
F227.0
sg13
F2.0
sg14
F1.0
sg15
F2.0
sg16
S'27-20'
p506
sg18
I01
sg20
F209.0
sg21
F0.0
ssS'6'
p507
(dp508
g5
F38.0
sg6
F1.0
sg7
(lp509
(S'Sam Bradford'
p510
g26
tp511
a(S'Thad Lewis'
p512
g26
tp513
a(S'Mark Sanchez'
p514
g26
tp515
a(S'Kenjon Barner'
p516
g31
tp517
a(S'Ryan Mathews'
p518
g31
tp519
a(S'DeMarco Murray'
p520
g31
tp521
a(S'Darren Sproles'
p522
g31
tp523
a(S'Nelson Agholor'
p524
g38
tp525
a(S'Seyi Ajirotutu'
p526
g38
tp527
a(S'Josh Huff'
p528
g38
tp529
a(S'Jordan Matthews'
p530
g38
tp531
a(S'Trey Burton'
p532
g51
tp533
a(S'Brent Celek'
p534
g51
tp535
a(S'Zach Ertz'
p536
g51
tp537
a(S'Caleb Sturgis'
p538
g58
tp539
asg9
I00
sg11
F37.0
sg12
F280.0
sg13
F2.0
sg14
F1.0
sg15
F2.0
sg16
S'7-27'
p540
sg18
I00
sg20
F158.0
sg21
F0.0
ssS'9'
p541
(dp542
g5
F36.0
sg6
F1.0
sg7
(lp543
(S'Mike Glennon'
p544
g26
tp545
a(S'Ryan Griffin'
p546
g26
tp547
a(S'Jameis Winston'
p548
g26
tp549
a(S'Jorvorskie Lane'
p550
g31
tp551
a(S'Doug Martin'
p552
g31
tp553
a(S'Bobby Rainey'
p554
g31
tp555
a(S'Charles Sims'
p556
g31
tp557
a(S'Dontee Dye'
p558
g38
tp559
a(S'Mike Evans'
p560
g38
tp561
a(S'Adam Humphries'
p562
g38
tp563
a(S'Vincent Jackson'
p564
g38
tp565
a(S'Russell Shepard'
p566
g38
tp567
a(S'Cameron Brate'
p568
g51
tp569
a(S'Brandon Myers'
p570
g51
tp571
a(S'Austin Seferian-Jenkins'
p572
g51
tp573
a(S'Luke Stocker'
p574
g51
tp575
a(S'Connor Barth'
p576
g58
tp577
asg9
I01
sg11
F23.0
sg12
F247.0
sg13
F5.0
sg14
F0.0
sg15
F4.0
sg16
S'32-18'
p578
sg18
I00
sg20
F136.0
sg21
F0.0
ssS'8'
p579
(dp580
g5
F50.0
sg6
F0.0
sg7
(lp581
(S'Drew Brees'
p582
g26
tp583
a(S'Garrett Grayson'
p584
g26
tp585
a(S'Luke McCown'
p586
g26
tp587
a(S'Mark Ingram'
p588
g31
tp589
a(S'Austin Johnson'
p590
g31
tp591
a(S'Marcus Murphy'
p592
g31
tp593
a(S'Khiry Robinson'
p594
g31
tp595
a(S'C.J. Spiller'
p596
g31
tp597
a(S'Brandon Coleman'
p598
g38
tp599
a(S'Marques Colston'
p600
g38
tp601
a(S'Brandin Cooks'
p602
g38
tp603
a(S'Willie Snead'
p604
g38
tp605
a(S'Josh Hill'
p606
g51
tp607
a(S'Michael Hoomanawanui'
p608
g51
tp609
a(S'Benjamin Watson'
p610
g51
tp611
a(S'Kai Forbath'
p612
g58
tp613
asg9
I00
sg11
F26.0
sg12
F505.0
sg13
F1.0
sg14
F7.0
sg15
F1.0
sg16
S'49-52'
p614
sg18
I00
sg20
F103.0
sg21
F0.0
sssS'2014'
p615
(dp616
g3
(dp617
g5
F29.0
sg6
F0.0
sg7
(lp618
(S'Blaine Gabbert'
p619
g26
tp620
a(S'Josh Johnson'
p621
g26
tp622
a(S'Colin Kaepernick'
p623
g26
tp624
a(S'Frank Gore'
p625
g31
tp626
a(S'Carlos Hyde'
p627
g31
tp628
a(S'Bruce Miller'
p629
g31
tp630
a(S'Anquan Boldin'
p631
g38
tp632
a(S'Michael Crabtree'
p633
g38
tp634
a(S'Bruce Ellington'
p635
g38
tp636
a(S'Steve Johnson'
p637
g38
tp638
a(S'Quinton Patton'
p639
g38
tp640
a(S'Derek Carrier'
p641
g51
tp642
a(S'Vernon Davis'
p643
g51
tp644
a(S'Vance McDonald'
p645
g51
tp646
a(S'Phil Dawson'
p647
g58
tp648
asg9
I00
sg11
F37.0
sg12
F193.0
sg13
F3.0
sg14
F1.0
sg15
F3.0
sg16
S'10-16'
p649
sg18
I01
sg20
F148.0
sg21
F0.0
ssg22
(dp650
g5
F17.0
sg6
F1.0
sg7
(lp651
(S'Tarvaris Jackson'
p652
g26
tp653
a(S'Russell Wilson'
p654
g26
tp655
a(S'Christine Michael'
p656
g31
tp657
a(S'Will Tukuafu'
p658
g31
tp659
a(S'Robert Turbin'
p660
g31
tp661
a(S'Doug Baldwin'
p662
g38
tp663
a(S'Jermaine Kearse'
p664
g38
tp665
a(S'Ricardo Lockette'
p666
g38
tp667
a(S'Kevin Norwood'
p668
g38
tp669
a(S'Paul Richardson'
p670
g38
tp671
a(S'Bryan Walters'
p672
g38
tp673
a(S'Cooper Helfet'
p674
g51
tp675
a(S'Tony Moeaki'
p676
g51
tp677
a(S'Luke Willson'
p678
g51
tp679
a(S'Steven Hauschka'
p680
g58
tp681
asg9
I00
sg11
F24.0
sg12
F172.0
sg13
F1.0
sg14
F0.0
sg15
F1.0
sg16
S'17-38'
p682
sg18
I00
sg20
F210.0
sg21
F0.0
ssg61
(dp683
g5
F35.0
sg6
F0.0
sg7
(lp684
(S'Blake Bortles'
p685
g26
tp686
a(S'Chad Henne'
p687
g26
tp688
a(S'Toby Gerhart'
p689
g31
tp690
a(S'Storm Johnson'
p691
g31
tp692
a(S'Denard Robinson'
p693
g31
tp694
a(S'Jordan Todman'
p695
g31
tp696
a(S'Allen Hurns'
p697
g38
tp698
a(S'Marqise Lee'
p699
g38
tp700
a(S'Cecil Shorts'
p701
g38
tp702
a(S'Clay Harbor'
p703
g51
tp704
a(S'Nic Jacobs'
p705
g51
tp706
a(S'Marcedes Lewis'
p707
g51
tp708
a(S'Josh Scobee'
p709
g58
tp710
asg9
I00
sg11
F22.0
sg12
F194.0
sg13
F2.0
sg14
F1.0
sg15
F2.0
sg16
S'24-25'
p711
sg18
I00
sg20
F118.0
sg21
F0.0
ssg97
(dp712
g5
F26.0
sg6
F0.0
sg7
(lp713
(S'Tony Romo'
p714
g26
tp715
a(S'Dustin Vaughan'
p716
g26
tp717
a(S'Brandon Weeden'
p718
g26
tp719
a(S'Tyler Clutts'
p720
g31
tp721
a(S'Lance Dunbar'
p722
g31
tp723
a(S'DeMarco Murray'
p724
g31
tp725
a(S'Cole Beasley'
p726
g38
tp727
a(S'Dez Bryant'
p728
g38
tp729
a(S'Dwayne Harris'
p730
g38
tp731
a(S'Devin Street'
p732
g38
tp733
a(S'Terrance Williams'
p734
g38
tp735
a(S'Gavin Escobar'
p736
g51
tp737
a(S'James Hanna'
p738
g51
tp739
a(S'Jason Witten'
p740
g51
tp741
a(S'Dan Bailey'
p742
g58
tp743
asg9
I00
sg11
F25.0
sg12
F275.0
sg13
F1.0
sg14
F4.0
sg15
F1.0
sg16
S'28-31'
p744
sg18
I01
sg20
F119.0
sg21
F0.0
ssg133
(dp745
g5
F34.0
sg6
F0.0
sg7
(lp746
(S'Kirk Cousins'
p747
g26
tp748
a(S'Robert Griffin III'
p749
g26
tp750
a(S'Colt McCoy'
p751
g26
tp752
a(S'Roy Helu'
p753
g31
tp754
a(S'Alfred Morris'
p755
g31
tp756
a(S'Silas Redd'
p757
g31
tp758
a(S'Chris Thompson'
p759
g31
tp760
a(S'Darrel Young'
p761
g31
tp762
a(S'Pierre Garcon'
p763
g38
tp764
a(S'Ryan Grant'
p765
g38
tp766
a(S'Leonard Hankerson'
p767
g38
tp768
a(S'DeSean Jackson'
p769
g38
tp770
a(S'Andre Roberts'
p771
g38
tp772
a(S'Niles Paul'
p773
g51
tp774
a(S'Logan Paulsen'
p775
g51
tp776
a(S'Jordan Reed'
p777
g51
tp778
a(S'Kai Forbath'
p779
g58
tp780
asg9
I01
sg11
F27.0
sg12
F275.0
sg13
F2.0
sg14
F1.0
sg15
F2.0
sg16
S'24-13'
p781
sg18
I01
sg20
F144.0
sg21
F0.0
ssg173
(dp782
g5
F24.0
sg6
F0.0
sg7
(lp783
(S'Zach Mettenberger'
p784
g26
tp785
a(S'Antonio Andrews'
p786
g31
tp787
a(S'Dexter McCluster'
p788
g31
tp789
a(S'Bishop Sankey'
p790
g31
tp791
a(S'Nate Washington'
p792
g38
tp793
a(S'Kendall Wright'
p794
g38
tp795
a(S'Chase Coffman'
p796
g51
tp797
a(S'Delanie Walker'
p798
g51
tp799
a(S'Ryan Succop'
p800
g58
tp801
asg9
I01
sg11
F10.0
sg12
F125.0
sg13
F1.0
sg14
F0.0
sg15
F0.0
sg16
S'36-7'
p802
sg18
I00
sg20
F24.0
sg21
F0.0
ssg207
(dp803
g5
F36.0
sg6
F1.0
sg7
(lp804
(S'Matt Barkley'
p805
g26
tp806
a(S'Nick Foles'
p807
g26
tp808
a(S'Mark Sanchez'
p809
g26
tp810
a(S'LeSean McCoy'
p811
g31
tp812
a(S'Chris Polk'
p813
g31
tp814
a(S'Darren Sproles'
p815
g31
tp816
a(S'Josh Huff'
p817
g38
tp818
a(S'Jeremy Maclin'
p819
g38
tp820
a(S'Jordan Matthews'
p821
g38
tp822
a(S'Trey Burton'
p823
g51
tp824
a(S'Brent Celek'
p825
g51
tp826
a(S'Zach Ertz'
p827
g51
tp828
a(S'Cody Parkey'
p829
g58
tp830
asg9
I00
sg11
F32.0
sg12
F292.0
sg13
F2.0
sg14
F2.0
sg15
F2.0
sg16
S'26-34'
p831
sg18
I01
sg20
F164.0
sg21
F0.0
ssg243
(dp832
g5
F32.0
sg6
F1.0
sg7
(lp833
(S'Austin Davis'
p834
g26
tp835
a(S'Shaun Hill'
p836
g26
tp837
a(S'Benny Cunningham'
p838
g31
tp839
a(S'Tre Mason'
p840
g31
tp841
a(S'Chase Reynolds'
p842
g31
tp843
a(S'Zac Stacy'
p844
g31
tp845
a(S'Tavon Austin'
p846
g38
tp847
a(S'Stedman Bailey'
p848
g38
tp849
a(S'Kenny Britt'
p850
g38
tp851
a(S'Chris Givens'
p852
g38
tp853
a(S'Jared Cook'
p854
g51
tp855
a(S'Justice Cunningham'
p856
g51
tp857
a(S'Dorin Dickerson'
p858
g51
tp859
a(S'Cory Harkey'
p860
g51
tp861
a(S'Lance Kendricks'
p862
g51
tp863
a(S'Greg Zuerlein'
p864
g58
tp865
asg9
I01
sg11
F20.0
sg12
F290.0
sg13
F2.0
sg14
F2.0
sg15
F2.0
sg16
S'37-27'
p866
sg18
I00
sg20
F106.0
sg21
F0.0
ssg283
(dp867
g5
F32.0
sg6
F1.0
sg7
(lp868
(S'Kellen Moore'
p869
g26
tp870
a(S'Dan Orlovsky'
p871
g26
tp872
a(S'Matthew Stafford'
p873
g26
tp874
a(S'Reggie Bush'
p875
g31
tp876
a(S'Theo Riddick'
p877
g31
tp878
a(S'Corey Fuller'
p879
g38
tp880
a(S'Jeremy Ross'
p881
g38
tp882
a(S'Golden Tate'
p883
g38
tp884
a(S'Eric Ebron'
p885
g51
tp886
a(S'Brandon Pettigrew'
p887
g51
tp888
asg9
I00
sg11
F15.0
sg12
F346.0
sg13
F0.0
sg14
F2.0
sg15
F0.0
sg16
S'14-35'
p889
sg18
I00
sg20
F25.0
sg21
F0.0
ssg319
(dp890
g5
F34.0
sg6
F1.0
sg7
(lp891
(S'Ryan Fitzpatrick'
p892
g26
tp893
a(S'Ryan Mallett'
p894
g26
tp895
a(S'Tom Savage'
p896
g26
tp897
a(S'Alfred Blue'
p898
g31
tp899
a(S'Arian Foster'
p900
g31
tp901
a(S'Jonathan Grimes'
p902
g31
tp903
a(S'Jay Prosch'
p904
g31
tp905
a(S'DeAndre Hopkins'
p906
g38
tp907
a(S'Andre Johnson'
p908
g38
tp909
a(S'Damaris Johnson'
p910
g38
tp911
a(S'Keshawn Martin'
p912
g38
tp913
a(S'DeVier Posey'
p914
g38
tp915
a(S'C.J. Fiedorowicz'
p916
g51
tp917
a(S'Garrett Graham'
p918
g51
tp919
a(S'Ryan Griffin'
p920
g51
tp921
a(S'Randy Bullock'
p922
g58
tp923
asg9
I01
sg11
F22.0
sg12
F289.0
sg13
F1.0
sg14
F1.0
sg15
F1.0
sg16
S'30-17'
p924
sg18
I01
sg20
F117.0
sg21
F0.0
ssg355
(dp925
g5
F29.0
sg6
F0.0
sg7
(lp926
(S'Carson Palmer'
p927
g26
tp928
a(S'Drew Stanton'
p929
g26
tp930
a(S'Logan Thomas'
p931
g26
tp932
a(S'Andre Ellington'
p933
g31
tp934
a(S'Stepfan Taylor'
p935
g31
tp936
a(S'Jaron Brown'
p937
g38
tp938
a(S'John Brown'
p939
g38
tp940
a(S'Larry Fitzgerald'
p941
g38
tp942
a(S'Michael Floyd'
p943
g38
tp944
a(S'Ted Ginn'
p945
g38
tp946
a(S'Darren Fells'
p947
g51
tp948
a(S'Rob Housler'
p949
g51
tp950
a(S'Troy Niklas'
p951
g51
tp952
a(S'Chandler Catanzaro'
p953
g58
tp954
asg9
I00
sg11
F18.0
sg12
F167.0
sg13
F4.0
sg14
F0.0
sg15
F4.0
sg16
S'14-25'
p955
sg18
I01
sg20
F91.0
sg21
F0.0
ssg391
(dp956
g5
F45.0
sg6
F1.0
sg7
(lp957
(S'Sean Renfree'
p958
g26
tp959
a(S'Matt Ryan'
p960
g26
tp961
a(S'T.J. Yates'
p962
g26
tp963
a(S'Patrick DiMarco'
p964
g31
tp965
a(S'Devont Freeman'
p966
g31
tp967
a(S'Steven Jackson'
p968
g31
tp969
a(S'Jacquizz Rodgers'
p970
g31
tp971
a(S'Harry Douglas'
p972
g38
tp973
a(S'Devin Hester'
p974
g38
tp975
a(S'Julio Jones'
p976
g38
tp977
a(S'Eric Weems'
p978
g38
tp979
a(S'Roddy White'
p980
g38
tp981
a(S'Bear Pascoe'
p982
g51
tp983
a(S'Levine Toilolo'
p984
g51
tp985
a(S'Matt Bryant'
p986
g58
tp987
asg9
I01
sg11
F20.0
sg12
F316.0
sg13
F2.0
sg14
F1.0
sg15
F2.0
sg16
S'30-20'
p988
sg18
I01
sg20
F88.0
sg21
F0.0
ssg427
(dp989
g5
F33.0
sg6
F1.0
sg7
(lp990
(S'Kirk Cousins'
p991
g26
tp992
a(S'Robert Griffin III'
p993
g26
tp994
a(S'Colt McCoy'
p995
g26
tp996
a(S'Roy Helu'
p997
g31
tp998
a(S'Alfred Morris'
p999
g31
tp1000
a(S'Silas Redd'
p1001
g31
tp1002
a(S'Darrel Young'
p1003
g31
tp1004
a(S'Pierre Garcon'
p1005
g38
tp1006
a(S'Ryan Grant'
p1007
g38
tp1008
a(S'DeSean Jackson'
p1009
g38
tp1010
a(S'Andre Roberts'
p1011
g38
tp1012
a(S'Aldrick Robinson'
p1013
g38
tp1014
a(S'Niles Paul'
p1015
g51
tp1016
a(S'Logan Paulsen'
p1017
g51
tp1018
a(S'Jordan Reed'
p1019
g51
tp1020
a(S'Kai Forbath'
p1021
g58
tp1022
asg9
I01
sg11
F17.0
sg12
F257.0
sg13
F0.0
sg14
F1.0
sg15
F0.0
sg16
S'45-14'
p1023
sg18
I00
sg20
F86.0
sg21
F0.0
ssg467
(dp1024
g5
F23.0
sg6
F1.0
sg7
(lp1025
(S'Tony Romo'
p1026
g26
tp1027
a(S'Dustin Vaughan'
p1028
g26
tp1029
a(S'Brandon Weeden'
p1030
g26
tp1031
a(S'Tyler Clutts'
p1032
g31
tp1033
a(S'Lance Dunbar'
p1034
g31
tp1035
a(S'DeMarco Murray'
p1036
g31
tp1037
a(S'Cole Beasley'
p1038
g38
tp1039
a(S'Dez Bryant'
p1040
g38
tp1041
a(S'Dwayne Harris'
p1042
g38
tp1043
a(S'Devin Street'
p1044
g38
tp1045
a(S'Terrance Williams'
p1046
g38
tp1047
a(S'Gavin Escobar'
p1048
g51
tp1049
a(S'James Hanna'
p1050
g51
tp1051
a(S'Jason Witten'
p1052
g51
tp1053
a(S'Dan Bailey'
p1054
g58
tp1055
asg9
I00
sg11
F33.0
sg12
F279.0
sg13
F1.0
sg14
F3.0
sg15
F1.0
sg16
S'21-31'
p1056
sg18
I00
sg20
F149.0
sg21
F0.0
ssg507
(dp1057
g5
F34.0
sg6
F1.0
sg7
(lp1058
(S'Matt Barkley'
p1059
g26
tp1060
a(S'Nick Foles'
p1061
g26
tp1062
a(S'Mark Sanchez'
p1063
g26
tp1064
a(S'LeSean McCoy'
p1065
g31
tp1066
a(S'Chris Polk'
p1067
g31
tp1068
a(S'Darren Sproles'
p1069
g31
tp1070
a(S'Josh Huff'
p1071
g38
tp1072
a(S'Jeremy Maclin'
p1073
g38
tp1074
a(S'Jordan Matthews'
p1075
g38
tp1076
a(S'Trey Burton'
p1077
g51
tp1078
a(S'Brent Celek'
p1079
g51
tp1080
a(S'Zach Ertz'
p1081
g51
tp1082
a(S'Cody Parkey'
p1083
g58
tp1084
asg9
I00
sg11
F36.0
sg12
F248.0
sg13
F2.0
sg14
F2.0
sg15
F2.0
sg16
S'0-27'
p1085
sg18
I00
sg20
F203.0
sg21
F0.0
ssg541
(dp1086
g5
F46.0
sg6
F0.0
sg7
(lp1087
(S'Andrew Luck'
p1088
g26
tp1089
a(S'Ahmad Bradshaw'
p1090
g31
tp1091
a(S'Dan Herron'
p1092
g31
tp1093
a(S'Trent Richardson'
p1094
g31
tp1095
a(S'T.Y. Hilton'
p1096
g38
tp1097
a(S'Donte Moncrief'
p1098
g38
tp1099
a(S'Hakeem Nicks'
p1100
g38
tp1101
a(S'Griff Whalen'
p1102
g38
tp1103
a(S'Dwayne Allen'
p1104
g51
tp1105
a(S'Jack Doyle'
p1106
g51
tp1107
a(S'Coby Fleener'
p1108
g51
tp1109
a(S'Adam Vinatieri'
p1110
g58
tp1111
asg9
I00
sg11
F24.0
sg12
F354.0
sg13
F4.0
sg14
F4.0
sg15
F4.0
sg16
S'24-40'
p1112
sg18
I01
sg20
F98.0
sg21
F0.0
ssg579
(dp1113
g5
F0.0
sg6
F0.0
sg7
(lp1114
sg9
(lp1115
sg11
F0.0
sg12
F0.0
sg13
F0.0
sg14
F0.0
sg15
F0.0
sg16
(lp1116
sg18
(lp1117
sg20
F0.0
sg21
F0.0
sssS'2011'
p1118
(dp1119
g3
(dp1120
g5
F0.0
sg6
F0.0
sg7
(lp1121
(S'Mike Vick'
p1122
g26
tp1123
a(S'Dion Lewis'
p1124
g31
tp1125
a(S'LeSean McCoy'
p1126
g31
tp1127
a(S'Jason Avant'
p1128
g38
tp1129
a(S'DeSean Jackson'
p1130
g38
tp1131
a(S'Jeremy Maclin'
p1132
g38
tp1133
a(S'Brent Celek'
p1134
g51
tp1135
a(S'Clay Harbor'
p1136
g51
tp1137
asg9
I00
sg11
F24.0
sg12
F0.0
sg13
F0.0
sg14
F0.0
sg15
F0.0
sg16
S'10-17'
p1138
sg18
I01
sg20
F114.0
sg21
F0.0
ssg22
(dp1139
g5
F30.0
sg6
F1.0
sg7
(lp1140
(S'Colin Kaepernick'
p1141
g26
tp1142
a(S'Alex Smith'
p1143
g26
tp1144
a(S'Scott Tolzien'
p1145
g26
tp1146
a(S'Anthony Dixon'
p1147
g31
tp1148
a(S'Frank Gore'
p1149
g31
tp1150
a(S'Kendall Hunter'
p1151
g31
tp1152
a(S'Bruce Miller'
p1153
g31
tp1154
a(S'Michael Crabtree'
p1155
g38
tp1156
a(S'Ted Ginn'
p1157
g38
tp1158
a(S'Kyle Williams'
p1159
g38
tp1160
a(S'Vernon Davis'
p1161
g51
tp1162
a(S'Delanie Walker'
p1163
g51
tp1164
asg9
I00
sg11
F20.0
sg12
F242.0
sg13
F0.0
sg14
F1.0
sg15
F0.0
sg16
S'20-27'
p1165
sg18
I00
sg20
F77.0
sg21
F0.0
ssg61
(dp1166
g5
F46.0
sg6
F0.0
sg7
(lp1167
(S'Matt Flynn'
p1168
g26
tp1169
a(S'Aaron Rodgers'
p1170
g26
tp1171
a(S'John Kuhn'
p1172
g31
tp1173
a(S'James Starks'
p1174
g31
tp1175
a(S'Randall Cobb'
p1176
g38
tp1177
a(S'Greg Jennings'
p1178
g38
tp1179
a(S'James Jones'
p1180
g38
tp1181
a(S'Jordy Nelson'
p1182
g38
tp1183
a(S'Andrew Quarless'
p1184
g51
tp1185
a(S'Mason Crosby'
p1186
g58
tp1187
asg9
I00
sg11
F9.0
sg12
F369.0
sg13
F2.0
sg14
F4.0
sg15
F1.0
sg16
S'35-38'
p1188
sg18
I01
sg20
F44.0
sg21
F0.0
ssg97
(dp1189
g5
F39.0
sg6
F3.0
sg7
(lp1190
(S'Drew Brees'
p1191
g26
tp1192
a(S'Chase Daniel'
p1193
g26
tp1194
a(S'Mark Ingram'
p1195
g31
tp1196
a(S'Chris Ivory'
p1197
g31
tp1198
a(S'Darren Sproles'
p1199
g31
tp1200
a(S'Pierre Thomas'
p1201
g31
tp1202
a(S'Marques Colston'
p1203
g38
tp1204
a(S'Lance Moore'
p1205
g38
tp1206
a(S'Jimmy Graham'
p1207
g51
tp1208
asg9
I00
sg11
F30.0
sg12
F372.0
sg13
F0.0
sg14
F4.0
sg15
F0.0
sg16
S'24-49'
p1209
sg18
I00
sg20
F205.0
sg21
F0.0
ssg133
(dp1210
g5
F0.0
sg6
F1.0
sg7
(lp1211
(S'Roy Helu'
p1212
g31
tp1213
a(S'Darrel Young'
p1214
g31
tp1215
a(S'Niles Paul'
p1216
g51
tp1217
a(S'Logan Paulsen'
p1218
g51
tp1219
a(S'Graham Gano'
p1220
g58
tp1221
asg9
I00
sg11
F28.0
sg12
F0.0
sg13
F3.0
sg14
F0.0
sg15
F3.0
sg16
S'10-23'
p1222
sg18
I01
sg20
F74.0
sg21
F0.0
ssg173
(dp1223
g5
F31.0
sg6
F0.0
sg7
(lp1224
(S'Tony Romo'
p1225
g26
tp1226
a(S'DeMarco Murray'
p1227
g31
tp1228
a(S'Dez Bryant'
p1229
g38
tp1230
a(S'Andre Holmes'
p1231
g38
tp1232
a(S'Martellus Bennett'
p1233
g51
tp1234
a(S'John Phillips'
p1235
g51
tp1236
a(S'Jason Witten'
p1237
g51
tp1238
a(S'Dan Bailey'
p1239
g58
tp1240
asg9
I01
sg11
F5.0
sg12
F321.0
sg13
F3.0
sg14
F4.0
sg15
F2.0
sg16
S'37-34'
p1241
sg18
I00
sg20
F25.0
sg21
F1.0
ssg207
(dp1242
g5
F37.0
sg6
F0.0
sg7
(lp1243
(S'Tony Romo'
p1244
g26
tp1245
a(S'Dez Bryant'
p1246
g38
tp1247
a(S'Dwayne Harris'
p1248
g38
tp1249
a(S'Andre Holmes'
p1250
g38
tp1251
a(S'Martellus Bennett'
p1252
g51
tp1253
a(S'John Phillips'
p1254
g51
tp1255
a(S'Jason Witten'
p1256
g51
tp1257
a(S'Dan Bailey'
p1258
g58
tp1259
asg9
I01
sg11
F2.0
sg12
F289.0
sg13
F1.0
sg14
F2.0
sg15
F0.0
sg16
S'31-14'
p1260
sg18
I01
sg20
F3.0
sg21
F0.0
ssg243
(dp1261
g5
F59.0
sg6
F1.0
sg7
(lp1262
(S'Mark Sanchez'
p1263
g26
tp1264
a(S'Bilal Powell'
p1265
g31
tp1266
a(S'Jeremy Kerley'
p1267
g38
tp1268
a(S'Matthew Mulligan'
p1269
g51
tp1270
a(S'Nick Folk'
p1271
g58
tp1272
asg9
I01
sg11
F5.0
sg12
F258.0
sg13
F1.0
sg14
F1.0
sg15
F0.0
sg16
S'29-14'
p1273
sg18
I00
sg20
F19.0
sg21
F0.0
ssg283
(dp1274
g5
F0.0
sg6
F1.0
sg7
(lp1275
(S'Roy Helu'
p1276
g31
tp1277
a(S'Tim Hightower'
p1278
g31
tp1279
a(S'Darrel Young'
p1280
g31
tp1281
a(S'Leonard Hankerson'
p1282
g38
tp1283
a(S'Niles Paul'
p1284
g51
tp1285
a(S'Logan Paulsen'
p1286
g51
tp1287
a(S'Graham Gano'
p1288
g58
tp1289
asg9
I00
sg11
F26.0
sg12
F0.0
sg13
F1.0
sg14
F0.0
sg15
F0.0
sg16
S'14-28'
p1290
sg18
I00
sg20
F74.0
sg21
F0.0
ssg319
(dp1291
g5
F23.0
sg6
F1.0
sg7
(lp1292
(S'Mike Vick'
p1293
g26
tp1294
a(S'Dion Lewis'
p1295
g31
tp1296
a(S'LeSean McCoy'
p1297
g31
tp1298
a(S'Jason Avant'
p1299
g38
tp1300
a(S'DeSean Jackson'
p1301
g38
tp1302
a(S'Jeremy Maclin'
p1303
g38
tp1304
a(S'Brent Celek'
p1305
g51
tp1306
a(S'Clay Harbor'
p1307
g51
tp1308
asg9
I01
sg11
F33.0
sg12
F176.0
sg13
F0.0
sg14
F0.0
sg15
F0.0
sg16
S'29-16'
p1309
sg18
I00
sg20
F165.0
sg21
F0.0
ssg355
(dp1310
g5
F46.0
sg6
F0.0
sg7
(lp1311
(S'Sam Bradford'
p1312
g26
tp1313
a(S'Steven Jackson'
p1314
g31
tp1315
a(S'Danny Amendola'
p1316
g38
tp1317
a(S'Brandon Gibson'
p1318
g38
tp1319
a(S'Greg Salas'
p1320
g38
tp1321
a(S'Michael Hoomanawanui'
p1322
g51
tp1323
a(S'Lance Kendricks'
p1324
g51
tp1325
a(S'Josh Brown'
p1326
g58
tp1327
asg9
I01
sg11
F3.0
sg12
F331.0
sg13
F3.0
sg14
F1.0
sg15
F3.0
sg16
S'28-16'
p1328
sg18
I01
sg20
F15.0
sg21
F0.0
ssg391
(dp1329
g5
F22.0
sg6
F0.0
sg7
(lp1330
(S'Tarvaris Jackson'
p1331
g26
tp1332
a(S'Justin Forsett'
p1333
g31
tp1334
a(S'Doug Baldwin'
p1335
g38
tp1336
a(S'Golden Tate'
p1337
g38
tp1338
a(S'Anthony McCoy'
p1339
g51
tp1340
a(S'Steven Hauschka'
p1341
g58
tp1342
asg9
I00
sg11
F8.0
sg12
F166.0
sg13
F2.0
sg14
F1.0
sg15
F2.0
sg16
S'25-36'
p1343
sg18
I01
sg20
F26.0
sg21
F0.0
ssg427
(dp1344
g5
F0.0
sg6
F0.0
sg7
(lp1345
(S'Anthony Sherman'
p1346
g31
tp1347
a(S'Larry Fitzgerald'
p1348
g38
tp1349
a(S'Andre Roberts'
p1350
g38
tp1351
a(S'Jim Dray'
p1352
g51
tp1353
a(S'Rob Housler'
p1354
g51
tp1355
asg9
I01
sg11
F0.0
sg12
F0.0
sg13
F0.0
sg14
F0.0
sg15
F0.0
sg16
S'31-27'
p1356
sg18
I00
sg20
F0.0
sg21
F0.0
ssg467
(dp1357
g5
F0.0
sg6
F0.0
sg7
(lp1358
sg9
(lp1359
sg11
F0.0
sg12
F0.0
sg13
F0.0
sg14
F0.0
sg15
F0.0
sg16
(lp1360
sg18
(lp1361
sg20
F0.0
sg21
F0.0
ssg507
(dp1362
g5
F30.0
sg6
F1.0
sg7
(lp1363
(S'Ryan Fitzpatrick'
p1364
g26
tp1365
a(S'Fred Jackson'
p1366
g31
tp1367
a(S'C.J. Spiller'
p1368
g31
tp1369
a(S'Steve Johnson'
p1370
g38
tp1371
a(S'Scott Chandler'
p1372
g51
tp1373
a(S'Lee Smith'
p1374
g51
tp1375
asg9
I01
sg11
F19.0
sg12
F244.0
sg13
F0.0
sg14
F2.0
sg15
F0.0
sg16
S'27-24'
p1376
sg18
I01
sg20
F129.0
sg21
F0.0
ssg541
(dp1377
g5
F49.0
sg6
F0.0
sg7
(lp1378
(S'Tom Brady'
p1379
g26
tp1380
a(S'Brian Hoyer'
p1381
g26
tp1382
a(S'Ryan Mallett'
p1383
g26
tp1384
a(S'Stevan Ridley'
p1385
g31
tp1386
a(S'Shane Vereen'
p1387
g31
tp1388
a(S'Danny Woodhead'
p1389
g31
tp1390
a(S'Julian Edelman'
p1391
g38
tp1392
a(S'Matthew Slater'
p1393
g38
tp1394
a(S'Wes Welker'
p1395
g38
tp1396
a(S'Rob Gronkowski'
p1397
g51
tp1398
a(S'Stephen Gostkowski'
p1399
g58
tp1400
asg9
I01
sg11
F12.0
sg12
F342.0
sg13
F3.0
sg14
F2.0
sg15
F2.0
sg16
S'24-20'
p1401
sg18
I00
sg20
F54.0
sg21
F0.0
ssg579
(dp1402
g5
F22.0
sg6
F1.0
sg7
(lp1403
(S'Matt Moore'
p1404
g26
tp1405
a(S'Reggie Bush'
p1406
g31
tp1407
a(S'Daniel Thomas'
p1408
g31
tp1409
a(S'Brian Hartline'
p1410
g38
tp1411
a(S'Brandon Marshall'
p1412
g38
tp1413
a(S'Marlon Moore'
p1414
g38
tp1415
a(S'Charles Clay'
p1416
g51
tp1417
a(S'Anthony Fasano'
p1418
g51
tp1419
a(S'Dan Carpenter'
p1420
g58
tp1421
asg9
I01
sg11
F20.0
sg12
F138.0
sg13
F1.0
sg14
F0.0
sg15
F1.0
sg16
S'20-17'
p1422
sg18
I01
sg20
F134.0
sg21
F0.0
sssS'2010'
p1423
(dp1424
g3
(dp1425
g5
F38.0
sg6
F2.0
sg7
(lp1426
(S'Mike Vick'
p1427
g26
tp1428
a(S'LeSean McCoy'
p1429
g31
tp1430
a(S'Jason Avant'
p1431
g38
tp1432
a(S'DeSean Jackson'
p1433
g38
tp1434
a(S'Jeremy Maclin'
p1435
g38
tp1436
a(S'Brent Celek'
p1437
g51
tp1438
a(S'Clay Harbor'
p1439
g51
tp1440
asg9
I00
sg11
F26.0
sg12
F258.0
sg13
F0.0
sg14
F0.0
sg15
F0.0
sg16
S'17-27'
p1441
sg18
I00
sg20
F148.0
sg21
F0.0
ssg22
(dp1442
g5
F0.0
sg6
F0.0
sg7
(lp1443
(S'Tony Romo'
p1444
g26
tp1445
a(S'Dez Bryant'
p1446
g38
tp1447
a(S'Martellus Bennett'
p1448
g51
tp1449
a(S'Scott Chandler'
p1450
g51
tp1451
a(S'Jason Witten'
p1452
g51
tp1453
asg9
I00
sg11
F0.0
sg12
F0.0
sg13
F0.0
sg14
F0.0
sg15
F0.0
sg16
S'20-33'
p1454
sg18
I01
sg20
F0.0
sg21
F0.0
ssg61
(dp1455
g5
F0.0
sg6
F0.0
sg7
(lp1456
(S'Darrel Young'
p1457
g31
tp1458
a(S'Logan Paulsen'
p1459
g51
tp1460
a(S'Graham Gano'
p1461
g58
tp1462
asg9
I01
sg11
F0.0
sg12
F0.0
sg13
F1.0
sg14
F0.0
sg15
F0.0
sg16
S'31-7'
p1463
sg18
I01
sg20
F0.0
sg21
F0.0
ssg97
(dp1464
g5
F0.0
sg6
F1.0
sg7
(lp1465
(S'Rashad Jennings'
p1466
g31
tp1467
a(S'Marcedes Lewis'
p1468
g51
tp1469
a(S'Zach Miller'
p1470
g51
tp1471
a(S'Josh Scobee'
p1472
g58
tp1473
asg9
I01
sg11
F7.0
sg12
F0.0
sg13
F2.0
sg14
F0.0
sg15
F2.0
sg16
S'24-20'
p1474
sg18
I01
sg20
F53.0
sg21
F0.0
ssg133
(dp1475
g5
F35.0
sg6
F1.0
sg7
(lp1476
(S'Mike Vick'
p1477
g26
tp1478
a(S'LeSean McCoy'
p1479
g31
tp1480
a(S'Jason Avant'
p1481
g38
tp1482
a(S'DeSean Jackson'
p1483
g38
tp1484
a(S'Jeremy Maclin'
p1485
g38
tp1486
a(S'Brent Celek'
p1487
g51
tp1488
a(S'Clay Harbor'
p1489
g51
tp1490
asg9
I00
sg11
F20.0
sg12
F242.0
sg13
F0.0
sg14
F3.0
sg15
F0.0
sg16
S'31-38'
p1491
sg18
I01
sg20
F194.0
sg21
F0.0
ssg173
(dp1492
g5
F35.0
sg6
F0.0
sg7
(lp1493
(S'Tarvaris Jackson'
p1494
g26
tp1495
a(S'Joe Webb'
p1496
g26
tp1497
a(S'Toby Gerhart'
p1498
g31
tp1499
a(S'Adrian Peterson'
p1500
g31
tp1501
a(S'Percy Harvin'
p1502
g38
tp1503
asg9
I01
sg11
F22.0
sg12
F126.0
sg13
F0.0
sg14
F0.0
sg15
F0.0
sg16
S'21-3'
p1504
sg18
I00
sg20
F61.0
sg21
F0.0
ssg207
(dp1505
g5
F0.0
sg6
F0.0
sg7
(lp1506
(S'Darrel Young'
p1507
g31
tp1508
a(S'Logan Paulsen'
p1509
g51
tp1510
a(S'Graham Gano'
p1511
g58
tp1512
asg9
I01
sg11
F0.0
sg12
F0.0
sg13
F1.0
sg14
F0.0
sg15
F0.0
sg16
S'17-14'
p1513
sg18
I00
sg20
F0.0
sg21
F0.0
ssg243
(dp1514
g5
F37.0
sg6
F2.0
sg7
(lp1515
(S'Matt Flynn'
p1516
g26
tp1517
a(S'Aaron Rodgers'
p1518
g26
tp1519
a(S'John Kuhn'
p1520
g31
tp1521
a(S'James Starks'
p1522
g31
tp1523
a(S'Greg Jennings'
p1524
g38
tp1525
a(S'James Jones'
p1526
g38
tp1527
a(S'Jordy Nelson'
p1528
g38
tp1529
a(S'Andrew Quarless'
p1530
g51
tp1531
a(S'Mason Crosby'
p1532
g58
tp1533
asg9
I00
sg11
F8.0
sg12
F404.0
sg13
F1.0
sg14
F4.0
sg15
F1.0
sg16
S'17-45'
p1534
sg18
I00
sg20
F48.0
sg21
F0.0
ssg283
(dp1535
g5
F35.0
sg6
F0.0
sg7
(lp1536
(S'Jimmy Clausen'
p1537
g26
tp1538
a(S'Matt Moore'
p1539
g26
tp1540
a(S'Jonathan Stewart'
p1541
g31
tp1542
a(S'DeAngelo Williams'
p1543
g31
tp1544
a(S'Brandon LaFell'
p1545
g38
tp1546
a(S'Steve Smith'
p1547
g38
tp1548
a(S'Gary Barnidge'
p1549
g51
tp1550
asg9
I01
sg11
F23.0
sg12
F182.0
sg13
F0.0
sg14
F1.0
sg15
F0.0
sg16
S'31-18'
p1551
sg18
I01
sg20
F89.0
sg21
F0.0
ssg319
(dp1552
g5
F0.0
sg6
F2.0
sg7
(lp1553
(S'Chris Johnson'
p1554
g31
tp1555
a(S'Kenny Britt'
p1556
g38
tp1557
a(S'Marc Mariani'
p1558
g38
tp1559
a(S'Nate Washington'
p1560
g38
tp1561
a(S'Jared Cook'
p1562
g51
tp1563
a(S'Craig Stevens'
p1564
g51
tp1565
asg9
I00
sg11
F32.0
sg12
F0.0
sg13
F0.0
sg14
F0.0
sg15
F0.0
sg16
S'10-29'
p1566
sg18
I01
sg20
F125.0
sg21
F0.0
ssg355
(dp1567
g5
F0.0
sg6
F1.0
sg7
(lp1568
(S'Donald Brown'
p1569
g31
tp1570
a(S'Pierre Garcon'
p1571
g38
tp1572
a(S'Jacob Tamme'
p1573
g51
tp1574
a(S'Adam Vinatieri'
p1575
g58
tp1576
asg9
I00
sg11
F16.0
sg12
F0.0
sg13
F1.0
sg14
F0.0
sg15
F1.0
sg16
S'14-38'
p1577
sg18
I00
sg20
F69.0
sg21
F0.0
ssg391
(dp1578
g5
F34.0
sg6
F0.0
sg7
(lp1579
(S'Dan Orlovsky'
p1580
g26
tp1581
a(S'Matt Schaub'
p1582
g26
tp1583
a(S'Arian Foster'
p1584
g31
tp1585
a(S'Andre Johnson'
p1586
g38
tp1587
a(S'Owen Daniels'
p1588
g51
tp1589
a(S'Dorin Dickerson'
p1590
g51
tp1591
a(S'Garrett Graham'
p1592
g51
tp1593
asg9
I01
sg11
F12.0
sg12
F196.0
sg13
F0.0
sg14
F0.0
sg15
F0.0
sg16
S'34-10'
p1594
sg18
I00
sg20
F24.0
sg21
F0.0
ssg427
(dp1595
g5
F11.0
sg6
F0.0
sg7
(lp1596
(S'Jay Cutler'
p1597
g26
tp1598
a(S'Matt Forte'
p1599
g31
tp1600
a(S'Devin Hester'
p1601
g38
tp1602
a(S'Kellen Davis'
p1603
g51
tp1604
a(S'Greg Olsen'
p1605
g51
tp1606
a(S'Robbie Gould'
p1607
g58
tp1608
asg9
I01
sg11
F13.0
sg12
F42.0
sg13
F1.0
sg14
F0.0
sg15
F1.0
sg16
S'17-3'
p1609
sg18
I01
sg20
F37.0
sg21
F0.0
ssg467
(dp1610
g5
F7.0
sg6
F0.0
sg7
(lp1611
(S'Tony Romo'
p1612
g26
tp1613
a(S'Dez Bryant'
p1614
g38
tp1615
a(S'Martellus Bennett'
p1616
g51
tp1617
a(S'Scott Chandler'
p1618
g51
tp1619
a(S'Jason Witten'
p1620
g51
tp1621
asg9
I01
sg11
F0.0
sg12
F39.0
sg13
F0.0
sg14
F1.0
sg15
F0.0
sg16
S'41-35'
p1622
sg18
I00
sg20
F0.0
sg21
F0.0
ssg507
(dp1623
g5
F49.0
sg6
F0.0
sg7
(lp1624
(S'Shaun Hill'
p1625
g26
tp1626
a(S'Matthew Stafford'
p1627
g26
tp1628
a(S'Drew Stanton'
p1629
g26
tp1630
a(S'Jerome Felton'
p1631
g31
tp1632
a(S'Brandon Pettigrew'
p1633
g51
tp1634
asg9
I01
sg11
F4.0
sg12
F313.0
sg13
F0.0
sg14
F2.0
sg15
F0.0
sg16
S'28-20'
p1635
sg18
I01
sg20
F38.0
sg21
F0.0
ssg541
(dp1636
g5
F0.0
sg6
F0.0
sg7
(lp1637
(S'Justin Forsett'
p1638
g31
tp1639
a(S'Golden Tate'
p1640
g38
tp1641
a(S'Anthony McCoy'
p1642
g51
tp1643
asg9
I01
sg11
F1.0
sg12
F0.0
sg13
F0.0
sg14
F0.0
sg15
F0.0
sg16
S'41-7'
p1644
sg18
I00
sg20
F-1.0
sg21
F0.0
ssg579
(dp1645
g5
F0.0
sg6
F0.0
sg7
(lp1646
sg9
(lp1647
sg11
F0.0
sg12
F0.0
sg13
F0.0
sg14
F0.0
sg15
F0.0
sg16
(lp1648
sg18
(lp1649
sg20
F0.0
sg21
F0.0
sssS'2013'
p1650
(dp1651
g3
(dp1652
g5
F34.0
sg6
F1.0
sg7
(lp1653
(S'Matt Flynn'
p1654
g26
tp1655
a(S'Aaron Rodgers'
p1656
g26
tp1657
a(S'Scott Tolzien'
p1658
g26
tp1659
a(S'John Kuhn'
p1660
g31
tp1661
a(S'Eddie Lacy'
p1662
g31
tp1663
a(S'James Starks'
p1664
g31
tp1665
a(S'Jarrett Boykin'
p1666
g38
tp1667
a(S'James Jones'
p1668
g38
tp1669
a(S'Jordy Nelson'
p1670
g38
tp1671
a(S'Myles White'
p1672
g38
tp1673
a(S'Brandon Bostick'
p1674
g51
tp1675
a(S'Andrew Quarless'
p1676
g51
tp1677
a(S'Jake Stoneburner'
p1678
g51
tp1679
a(S'Mason Crosby'
p1680
g58
tp1681
asg9
I01
sg11
F19.0
sg12
F339.0
sg13
F2.0
sg14
F0.0
sg15
F2.0
sg16
S'27-13'
p1682
sg18
I01
sg20
F49.0
sg21
F0.0
ssg22
(dp1683
g5
F0.0
sg6
F1.0
sg7
(lp1684
(S'Matt McGloin'
p1685
g26
tp1686
a(S'Rashad Jennings'
p1687
g31
tp1688
a(S'Taiwan Jones'
p1689
g31
tp1690
a(S'Darren McFadden'
p1691
g31
tp1692
a(S'Jamize Olawale'
p1693
g31
tp1694
a(S'Marcel Reece'
p1695
g31
tp1696
a(S'Brice Butler'
p1697
g38
tp1698
a(S'Andre Holmes'
p1699
g38
tp1700
a(S'Terrelle Pryor'
p1701
g38
tp1702
a(S'Rod Streater'
p1703
g38
tp1704
a(S'Mychal Rivera'
p1705
g51
tp1706
a(S'Sebastian Janikowski'
p1707
g58
tp1708
asg9
I01
sg11
F25.0
sg12
F0.0
sg13
F2.0
sg14
F0.0
sg15
F2.0
sg16
S'24-20'
p1709
sg18
I01
sg20
F107.0
sg21
F0.0
ssg61
(dp1710
g5
F32.0
sg6
F1.0
sg7
(lp1711
(S'Kirk Cousins'
p1712
g26
tp1713
a(S'Robert Griffin III'
p1714
g26
tp1715
a(S'Roy Helu'
p1716
g31
tp1717
a(S'Alfred Morris'
p1718
g31
tp1719
a(S'Darrel Young'
p1720
g31
tp1721
a(S'Josh Bellamy'
p1722
g38
tp1723
a(S'Pierre Garcon'
p1724
g38
tp1725
a(S'Aldrick Robinson'
p1726
g38
tp1727
a(S'Nick Williams'
p1728
g38
tp1729
a(S'Niles Paul'
p1730
g51
tp1731
a(S'Logan Paulsen'
p1732
g51
tp1733
a(S'Jordan Reed'
p1734
g51
tp1735
a(S'Kai Forbath'
p1736
g58
tp1737
asg9
I01
sg11
F28.0
sg12
F207.0
sg13
F1.0
sg14
F1.0
sg15
F1.0
sg16
S'24-17'
p1738
sg18
I00
sg20
F129.0
sg21
F0.0
ssg97
(dp1739
g5
F38.0
sg6
F0.0
sg7
(lp1740
(S'Tony Romo'
p1741
g26
tp1742
a(S'Lance Dunbar'
p1743
g31
tp1744
a(S'DeMarco Murray'
p1745
g31
tp1746
a(S'Cole Beasley'
p1747
g38
tp1748
a(S'Dez Bryant'
p1749
g38
tp1750
a(S'Dwayne Harris'
p1751
g38
tp1752
a(S'Terrance Williams'
p1753
g38
tp1754
a(S'Gavin Escobar'
p1755
g51
tp1756
a(S'James Hanna'
p1757
g51
tp1758
a(S'Jason Witten'
p1759
g51
tp1760
a(S'Dan Bailey'
p1761
g58
tp1762
asg9
I00
sg11
F20.0
sg12
F234.0
sg13
F1.0
sg14
F2.0
sg15
F1.0
sg16
S'21-24'
p1763
sg18
I01
sg20
F107.0
sg21
F0.0
ssg133
(dp1764
g5
F29.0
sg6
F0.0
sg7
(lp1765
(S'Tarvaris Jackson'
p1766
g26
tp1767
a(S'Russell Wilson'
p1768
g26
tp1769
a(S'Derrick Coleman'
p1770
g31
tp1771
a(S'Christine Michael'
p1772
g31
tp1773
a(S'Robert Turbin'
p1774
g31
tp1775
a(S'Doug Baldwin'
p1776
g38
tp1777
a(S'Percy Harvin'
p1778
g38
tp1779
a(S'Jermaine Kearse'
p1780
g38
tp1781
a(S'Ricardo Lockette'
p1782
g38
tp1783
a(S'Golden Tate'
p1784
g38
tp1785
a(S'Kellen Davis'
p1786
g51
tp1787
a(S'Luke Willson'
p1788
g51
tp1789
a(S'Steven Hauschka'
p1790
g58
tp1791
asg9
I00
sg11
F18.0
sg12
F222.0
sg13
F3.0
sg14
F1.0
sg15
F3.0
sg16
S'0-23'
p1792
sg18
I01
sg20
F87.0
sg21
F0.0
ssg173
(dp1793
g5
F28.0
sg6
F1.0
sg7
(lp1794
(S'Philip Rivers'
p1795
g26
tp1796
a(S'Ryan Mathews'
p1797
g31
tp1798
a(S'Danny Woodhead'
p1799
g31
tp1800
a(S'Seyi Ajirotutu'
p1801
g38
tp1802
a(S'Keenan Allen'
p1803
g38
tp1804
a(S'Vincent Brown'
p1805
g38
tp1806
a(S'Eddie Royal'
p1807
g38
tp1808
a(S'Antonio Gates'
p1809
g51
tp1810
a(S'Ladarius Green'
p1811
g51
tp1812
a(S'John Phillips'
p1813
g51
tp1814
a(S'Nick Novak'
p1815
g58
tp1816
asg9
I00
sg11
F36.0
sg12
F249.0
sg13
F3.0
sg14
F3.0
sg15
F3.0
sg16
S'14-37'
p1817
sg18
I00
sg20
F145.0
sg21
F0.0
ssg207
(dp1818
g5
F49.0
sg6
F0.0
sg7
(lp1819
(S'Kirk Cousins'
p1820
g26
tp1821
a(S'Robert Griffin III'
p1822
g26
tp1823
a(S'Roy Helu'
p1824
g31
tp1825
a(S'Alfred Morris'
p1826
g31
tp1827
a(S'Darrel Young'
p1828
g31
tp1829
a(S'Josh Bellamy'
p1830
g38
tp1831
a(S'Pierre Garcon'
p1832
g38
tp1833
a(S'Aldrick Robinson'
p1834
g38
tp1835
a(S'Nick Williams'
p1836
g38
tp1837
a(S'Niles Paul'
p1838
g51
tp1839
a(S'Logan Paulsen'
p1840
g51
tp1841
a(S'Kai Forbath'
p1842
g58
tp1843
asg9
I01
sg11
F23.0
sg12
F169.0
sg13
F2.0
sg14
F0.0
sg15
F2.0
sg16
S'20-6'
p1844
sg18
I01
sg20
F91.0
sg21
F0.0
ssg243
(dp1845
g5
F42.0
sg6
F1.0
sg7
(lp1846
(S'Shaun Hill'
p1847
g26
tp1848
a(S'Kellen Moore'
p1849
g26
tp1850
a(S'Matthew Stafford'
p1851
g26
tp1852
a(S'Reggie Bush'
p1853
g31
tp1854
a(S'Theo Riddick'
p1855
g31
tp1856
a(S'Jeremy Ross'
p1857
g38
tp1858
a(S'Dorin Dickerson'
p1859
g51
tp1860
a(S'Brandon Pettigrew'
p1861
g51
tp1862
asg9
I01
sg11
F16.0
sg12
F222.0
sg13
F0.0
sg14
F0.0
sg15
F0.0
sg16
S'23-20'
p1863
sg18
I00
sg20
F57.0
sg21
F0.0
ssg283
(dp1864
g5
F49.0
sg6
F0.0
sg7
(lp1865
(S'Tony Romo'
p1866
g26
tp1867
a(S'Lance Dunbar'
p1868
g31
tp1869
a(S'DeMarco Murray'
p1870
g31
tp1871
a(S'Cole Beasley'
p1872
g38
tp1873
a(S'Dez Bryant'
p1874
g38
tp1875
a(S'Dwayne Harris'
p1876
g38
tp1877
a(S'Terrance Williams'
p1878
g38
tp1879
a(S'Gavin Escobar'
p1880
g51
tp1881
a(S'James Hanna'
p1882
g51
tp1883
a(S'Jason Witten'
p1884
g51
tp1885
a(S'Dan Bailey'
p1886
g58
tp1887
asg9
I00
sg11
F22.0
sg12
F263.0
sg13
F3.0
sg14
F2.0
sg15
F3.0
sg16
S'31-36'
p1888
sg18
I00
sg20
F85.0
sg21
F0.0
ssg319
(dp1889
g5
F27.0
sg6
F2.0
sg7
(lp1890
(S'Derek Anderson'
p1891
g26
tp1892
a(S'Cam Newton'
p1893
g26
tp1894
a(S'Kenjon Barner'
p1895
g31
tp1896
a(S'Mike Tolbert'
p1897
g31
tp1898
a(S'DeAngelo Williams'
p1899
g31
tp1900
a(S'Ted Ginn'
p1901
g38
tp1902
a(S'Brandon LaFell'
p1903
g38
tp1904
a(S'Steve Smith'
p1905
g38
tp1906
a(S'Greg Olsen'
p1907
g51
tp1908
a(S'Brandon Williams'
p1909
g51
tp1910
a(S'Graham Gano'
p1911
g58
tp1912
asg9
I00
sg11
F42.0
sg12
F223.0
sg13
F1.0
sg14
F3.0
sg15
F1.0
sg16
S'0-38'
p1913
sg18
I00
sg20
F193.0
sg21
F0.0
ssg355
(dp1914
g5
F0.0
sg6
F0.0
sg7
(lp1915
(S'Zac Dysert'
p1916
g26
tp1917
a(S'Brock Osweiler'
p1918
g26
tp1919
a(S'C.J. Anderson'
p1920
g31
tp1921
a(S'Ronnie Hillman'
p1922
g31
tp1923
a(S'Andre Caldwell'
p1924
g38
tp1925
a(S'Eric Decker'
p1926
g38
tp1927
a(S'Demaryius Thomas'
p1928
g38
tp1929
a(S'Wes Welker'
p1930
g38
tp1931
a(S'Virgil Green'
p1932
g51
tp1933
a(S'Jacob Tamme'
p1934
g51
tp1935
a(S'Julius Thomas'
p1936
g51
tp1937
a(S'Matt Prater'
p1938
g58
tp1939
asg9
I00
sg11
F1.0
sg12
F0.0
sg13
F2.0
sg14
F0.0
sg15
F2.0
sg16
S'23-41'
p1940
sg18
I01
sg20
F3.0
sg21
F0.0
ssg391
(dp1941
g5
F39.0
sg6
F1.0
sg7
(lp1942
(S'Matt Barkley'
p1943
g26
tp1944
a(S'Nick Foles'
p1945
g26
tp1946
a(S'Mike Vick'
p1947
g26
tp1948
a(S'Bryce Brown'
p1949
g31
tp1950
a(S'LeSean McCoy'
p1951
g31
tp1952
a(S'Chris Polk'
p1953
g31
tp1954
a(S'Jason Avant'
p1955
g38
tp1956
a(S'DeSean Jackson'
p1957
g38
tp1958
a(S'Damaris Johnson'
p1959
g38
tp1960
a(S'Brent Celek'
p1961
g51
tp1962
a(S'Zach Ertz'
p1963
g51
tp1964
asg9
I00
sg11
F37.0
sg12
F302.0
sg13
F0.0
sg14
F2.0
sg15
F0.0
sg16
S'21-36'
p1965
sg18
I01
sg20
F140.0
sg21
F0.0
ssg427
(dp1966
g5
F41.0
sg6
F0.0
sg7
(lp1967
(S'Tyler Bray'
p1968
g26
tp1969
a(S'Chase Daniel'
p1970
g26
tp1971
a(S'Alex Smith'
p1972
g26
tp1973
a(S'Jamaal Charles'
p1974
g31
tp1975
a(S'Knile Davis'
p1976
g31
tp1977
a(S'Cyrus Gray'
p1978
g31
tp1979
a(S'Dexter McCluster'
p1980
g31
tp1981
a(S'Anthony Sherman'
p1982
g31
tp1983
a(S'Dwayne Bowe'
p1984
g38
tp1985
a(S'Anthony Fasano'
p1986
g51
tp1987
a(S'Travis Kelce'
p1988
g51
tp1989
a(S'Sean McGrath'
p1990
g51
tp1991
a(S'Ryan Succop'
p1992
g58
tp1993
asg9
I00
sg11
F28.0
sg12
F288.0
sg13
F1.0
sg14
F3.0
sg15
F1.0
sg16
S'7-31'
p1994
sg18
I00
sg20
F102.0
sg21
F0.0
ssg467
(dp1995
g5
F53.0
sg6
F0.0
sg7
(lp1996
(S'Matt Cassel'
p1997
g26
tp1998
a(S'Josh Freeman'
p1999
g26
tp2000
a(S'Joe Webb'
p2001
g26
tp2002
a(S'Matt Asiata'
p2003
g31
tp2004
a(S'Jerome Felton'
p2005
g31
tp2006
a(S'Toby Gerhart'
p2007
g31
tp2008
a(S'Adrian Peterson'
p2009
g31
tp2010
a(S'Greg Jennings'
p2011
g38
tp2012
a(S'Cordarrelle Patterson'
p2013
g38
tp2014
a(S'Jerome Simpson'
p2015
g38
tp2016
a(S'Rodney Smith'
p2017
g38
tp2018
a(S'Jarius Wright'
p2019
g38
tp2020
a(S'Rhett Ellison'
p2021
g51
tp2022
a(S'Kyle Rudolph'
p2023
g51
tp2024
a(S'Blair Walsh'
p2025
g58
tp2026
asg9
I01
sg11
F14.0
sg12
F190.0
sg13
F1.0
sg14
F0.0
sg15
F0.0
sg16
S'23-7'
p2027
sg18
I01
sg20
F30.0
sg21
F0.0
ssg507
(dp2028
g5
F36.0
sg6
F0.0
sg7
(lp2029
(S'Jay Cutler'
p2030
g26
tp2031
a(S'Josh McCown'
p2032
g26
tp2033
a(S'Matt Forte'
p2034
g31
tp2035
a(S'Devin Hester'
p2036
g38
tp2037
a(S'Alshon Jeffery'
p2038
g38
tp2039
a(S'Brandon Marshall'
p2040
g38
tp2041
a(S'Eric Weems'
p2042
g38
tp2043
a(S'Marquess Wilson'
p2044
g38
tp2045
a(S'Martellus Bennett'
p2046
g51
tp2047
a(S'Robbie Gould'
p2048
g58
tp2049
asg9
I00
sg11
F23.0
sg12
F262.0
sg13
F2.0
sg14
F2.0
sg15
F2.0
sg16
S'21-27'
p2050
sg18
I00
sg20
F102.0
sg21
F0.0
ssg541
(dp2051
g5
F0.0
sg6
F0.0
sg7
(lp2052
sg9
(lp2053
sg11
F0.0
sg12
F0.0
sg13
F0.0
sg14
F0.0
sg15
F0.0
sg16
(lp2054
sg18
(lp2055
sg20
F0.0
sg21
F0.0
ssg579
(dp2056
g5
F35.0
sg6
F0.0
sg7
(lp2057
(S'Matt Barkley'
p2058
g26
tp2059
a(S'Nick Foles'
p2060
g26
tp2061
a(S'Mike Vick'
p2062
g26
tp2063
a(S'Bryce Brown'
p2064
g31
tp2065
a(S'LeSean McCoy'
p2066
g31
tp2067
a(S'Chris Polk'
p2068
g31
tp2069
a(S'Jason Avant'
p2070
g38
tp2071
a(S'DeSean Jackson'
p2072
g38
tp2073
a(S'Damaris Johnson'
p2074
g38
tp2075
a(S'Brent Celek'
p2076
g51
tp2077
a(S'Zach Ertz'
p2078
g51
tp2079
asg9
I01
sg11
F19.0
sg12
F188.0
sg13
F0.0
sg14
F0.0
sg15
F0.0
sg16
S'15-7'
p2080
sg18
I00
sg20
F48.0
sg21
F0.0
sssS'2012'
p2081
(dp2082
g3
(dp2083
g5
F0.0
sg6
F0.0
sg7
(lp2084
sg9
(lp2085
sg11
F0.0
sg12
F0.0
sg13
F0.0
sg14
F0.0
sg15
F0.0
sg16
(lp2086
sg18
(lp2087
sg20
F0.0
sg21
F0.0
ssg22
(dp2088
g5
F30.0
sg6
F0.0
sg7
(lp2089
(S'Andy Dalton'
p2090
g26
tp2091
a(S'Bruce Gradkowski'
p2092
g26
tp2093
a(S'Cedric Peerman'
p2094
g31
tp2095
a(S'A.J. Green'
p2096
g38
tp2097
a(S'Andrew Hawkins'
p2098
g38
tp2099
a(S'Marvin Jones'
p2100
g38
tp2101
a(S'Mohamed Sanu'
p2102
g38
tp2103
a(S'Brandon Tate'
p2104
g38
tp2105
a(S'Orson Charles'
p2106
g51
tp2107
a(S'Jermaine Gresham'
p2108
g51
tp2109
a(S'Mike Nugent'
p2110
g58
tp2111
asg9
I00
sg11
F9.0
sg12
F199.0
sg13
F1.0
sg14
F4.0
sg15
F1.0
sg16
S'13-31'
p2112
sg18
I00
sg20
F22.0
sg21
F0.0
ssg61
(dp2113
g5
F21.0
sg6
F0.0
sg7
(lp2114
(S'Kirk Cousins'
p2115
g26
tp2116
a(S'Robert Griffin III'
p2117
g26
tp2118
a(S'Alfred Morris'
p2119
g31
tp2120
a(S'Darrel Young'
p2121
g31
tp2122
a(S'Pierre Garcon'
p2123
g38
tp2124
a(S'Leonard Hankerson'
p2125
g38
tp2126
a(S'Aldrick Robinson'
p2127
g38
tp2128
a(S'Niles Paul'
p2129
g51
tp2130
a(S'Logan Paulsen'
p2131
g51
tp2132
a(S'Kai Forbath'
p2133
g58
tp2134
asg9
I00
sg11
F29.0
sg12
F163.0
sg13
F1.0
sg14
F1.0
sg15
F1.0
sg16
S'16-17'
p2135
sg18
I00
sg20
F204.0
sg21
F0.0
ssg97
(dp2136
g5
F25.0
sg6
F0.0
sg7
(lp2137
(S'Aaron Rodgers'
p2138
g26
tp2139
a(S'John Kuhn'
p2140
g31
tp2141
a(S'James Starks'
p2142
g31
tp2143
a(S'Jarrett Boykin'
p2144
g38
tp2145
a(S'Randall Cobb'
p2146
g38
tp2147
a(S'Greg Jennings'
p2148
g38
tp2149
a(S'James Jones'
p2150
g38
tp2151
a(S'Jordy Nelson'
p2152
g38
tp2153
a(S'Andrew Quarless'
p2154
g51
tp2155
a(S'Mason Crosby'
p2156
g58
tp2157
asg9
I01
sg11
F16.0
sg12
F219.0
sg13
F2.0
sg14
F1.0
sg15
F1.0
sg16
S'38-10'
p2158
sg18
I01
sg20
F86.0
sg21
F0.0
ssg133
(dp2159
g5
F28.0
sg6
F0.0
sg7
(lp2160
(S'Luke McCown'
p2161
g26
tp2162
a(S'Matt Ryan'
p2163
g26
tp2164
a(S'Jacquizz Rodgers'
p2165
g31
tp2166
a(S'Harry Douglas'
p2167
g38
tp2168
a(S'Julio Jones'
p2169
g38
tp2170
a(S'Roddy White'
p2171
g38
tp2172
a(S'Chase Coffman'
p2173
g51
tp2174
a(S'Matt Bryant'
p2175
g58
tp2176
asg9
I00
sg11
F16.0
sg12
F270.0
sg13
F2.0
sg14
F3.0
sg15
F2.0
sg16
S'0-34'
p2177
sg18
I00
sg20
F38.0
sg21
F0.0
ssg173
(dp2178
g5
F43.0
sg6
F1.0
sg7
(lp2179
(S'Drew Brees'
p2180
g26
tp2181
a(S'Chase Daniel'
p2182
g26
tp2183
a(S'Travaris Cadet'
p2184
g31
tp2185
a(S'Mark Ingram'
p2186
g31
tp2187
a(S'Chris Ivory'
p2188
g31
tp2189
a(S'Darren Sproles'
p2190
g31
tp2191
a(S'Pierre Thomas'
p2192
g31
tp2193
a(S'Marques Colston'
p2194
g38
tp2195
a(S'Lance Moore'
p2196
g38
tp2197
a(S'Jimmy Graham'
p2198
g51
tp2199
asg9
I01
sg11
F24.0
sg12
F354.0
sg13
F0.0
sg14
F1.0
sg15
F0.0
sg16
S'52-27'
p2200
sg18
I01
sg20
F142.0
sg21
F0.0
ssg207
(dp2201
g5
F35.0
sg6
F0.0
sg7
(lp2202
(S'Mike Vick'
p2203
g26
tp2204
a(S'Bryce Brown'
p2205
g31
tp2206
a(S'Dion Lewis'
p2207
g31
tp2208
a(S'LeSean McCoy'
p2209
g31
tp2210
a(S'Chris Polk'
p2211
g31
tp2212
a(S'Jason Avant'
p2213
g38
tp2214
a(S'Damaris Johnson'
p2215
g38
tp2216
a(S'Jeremy Maclin'
p2217
g38
tp2218
a(S'Greg Salas'
p2219
g38
tp2220
a(S'Brent Celek'
p2221
g51
tp2222
asg9
I01
sg11
F27.0
sg12
F197.0
sg13
F0.0
sg14
F1.0
sg15
F0.0
sg16
S'42-7'
p2223
sg18
I01
sg20
F110.0
sg21
F0.0
ssg243
(dp2224
g5
F36.0
sg6
F1.0
sg7
(lp2225
(S'Joe Flacco'
p2226
g26
tp2227
a(S'Tyrod Taylor'
p2228
g26
tp2229
a(S'Bernard Pierce'
p2230
g31
tp2231
a(S'Anquan Boldin'
p2232
g38
tp2233
a(S'Torrey Smith'
p2234
g38
tp2235
a(S'Deonte Thompson'
p2236
g38
tp2237
a(S'Ed Dickson'
p2238
g51
tp2239
a(S'Dennis Pitta'
p2240
g51
tp2241
a(S'Justin Tucker'
p2242
g58
tp2243
asg9
I00
sg11
F20.0
sg12
F309.0
sg13
F4.0
sg14
F2.0
sg15
F4.0
sg16
S'14-33'
p2244
sg18
I00
sg20
F110.0
sg21
F0.0
ssg283
(dp2245
g5
F29.0
sg6
F0.0
sg7
(lp2246
(S'Tony Romo'
p2247
g26
tp2248
a(S'DeMarco Murray'
p2249
g31
tp2250
a(S'Cole Beasley'
p2251
g38
tp2252
a(S'Dez Bryant'
p2253
g38
tp2254
a(S'Dwayne Harris'
p2255
g38
tp2256
a(S'Andre Holmes'
p2257
g38
tp2258
a(S'James Hanna'
p2259
g51
tp2260
a(S'John Phillips'
p2261
g51
tp2262
a(S'Jason Witten'
p2263
g51
tp2264
a(S'Dan Bailey'
p2265
g58
tp2266
asg9
I00
sg11
F25.0
sg12
F307.0
sg13
F1.0
sg14
F3.0
sg15
F1.0
sg16
S'17-24'
p2267
sg18
I01
sg20
F143.0
sg21
F0.0
ssg319
(dp2268
g5
F33.0
sg6
F1.0
sg7
(lp2269
(S'Derek Anderson'
p2270
g26
tp2271
a(S'Jimmy Clausen'
p2272
g26
tp2273
a(S'Cam Newton'
p2274
g26
tp2275
a(S'Jonathan Stewart'
p2276
g31
tp2277
a(S'Mike Tolbert'
p2278
g31
tp2279
a(S'DeAngelo Williams'
p2280
g31
tp2281
a(S'Brandon LaFell'
p2282
g38
tp2283
a(S'Louis Murphy'
p2284
g38
tp2285
a(S'Steve Smith'
p2286
g38
tp2287
a(S'Gary Barnidge'
p2288
g51
tp2289
a(S'Greg Olsen'
p2290
g51
tp2291
asg9
I01
sg11
F20.0
sg12
F288.0
sg13
F0.0
sg14
F0.0
sg15
F0.0
sg16
S'36-7'
p2292
sg18
I00
sg20
F60.0
sg21
F0.0
ssg355
(dp2293
g5
F28.0
sg6
F1.0
sg7
(lp2294
(S'Josh Freeman'
p2295
g26
tp2296
a(S'Dan Orlovsky'
p2297
g26
tp2298
a(S'LeGarrette Blount'
p2299
g31
tp2300
a(S'Doug Martin'
p2301
g31
tp2302
a(S'Arrelious Benn'
p2303
g38
tp2304
a(S'Vincent Jackson'
p2305
g38
tp2306
a(S'Mike Williams'
p2307
g38
tp2308
a(S'Luke Stocker'
p2309
g51
tp2310
a(S'Connor Barth'
p2311
g58
tp2312
asg9
I01
sg11
F20.0
sg12
F243.0
sg13
F2.0
sg14
F2.0
sg15
F2.0
sg16
S'41-34'
p2313
sg18
I01
sg20
F66.0
sg21
F0.0
ssg391
(dp2314
g5
F35.0
sg6
F1.0
sg7
(lp2315
(S'Thad Lewis'
p2316
g26
tp2317
a(S'Colt McCoy'
p2318
g26
tp2319
a(S'Brandon Weeden'
p2320
g26
tp2321
a(S'Trent Richardson'
p2322
g31
tp2323
a(S'Travis Benjamin'
p2324
g38
tp2325
a(S'Josh Gordon'
p2326
g38
tp2327
a(S'Greg Little'
p2328
g38
tp2329
a(S'Jordan Norwood'
p2330
g38
tp2331
a(S'Jordan Cameron'
p2332
g51
tp2333
a(S'Alex Smith'
p2334
g51
tp2335
a(S'Benjamin Watson'
p2336
g51
tp2337
a(S'Phil Dawson'
p2338
g58
tp2339
asg9
I01
sg11
F19.0
sg12
F291.0
sg13
F2.0
sg14
F2.0
sg15
F2.0
sg16
S'41-27'
p2340
sg18
I01
sg20
F84.0
sg21
F0.0
ssg427
(dp2341
g5
F30.0
sg6
F0.0
sg7
(lp2342
(S'Nick Foles'
p2343
g26
tp2344
a(S'Mike Vick'
p2345
g26
tp2346
a(S'Bryce Brown'
p2347
g31
tp2348
a(S'Dion Lewis'
p2349
g31
tp2350
a(S'LeSean McCoy'
p2351
g31
tp2352
a(S'Chris Polk'
p2353
g31
tp2354
a(S'Jason Avant'
p2355
g38
tp2356
a(S'DeSean Jackson'
p2357
g38
tp2358
a(S'Damaris Johnson'
p2359
g38
tp2360
a(S'Jeremy Maclin'
p2361
g38
tp2362
a(S'Brent Celek'
p2363
g51
tp2364
a(S'Clay Harbor'
p2365
g51
tp2366
asg9
I00
sg11
F34.0
sg12
F241.0
sg13
F0.0
sg14
F1.0
sg15
F0.0
sg16
S'17-19'
p2367
sg18
I00
sg20
F176.0
sg21
F0.0
ssg467
(dp2368
g5
F28.0
sg6
F0.0
sg7
(lp2369
(S'Kirk Cousins'
p2370
g26
tp2371
a(S'Robert Griffin III'
p2372
g26
tp2373
a(S'Alfred Morris'
p2374
g31
tp2375
a(S'Darrel Young'
p2376
g31
tp2377
a(S'Pierre Garcon'
p2378
g38
tp2379
a(S'Leonard Hankerson'
p2380
g38
tp2381
a(S'Aldrick Robinson'
p2382
g38
tp2383
a(S'Niles Paul'
p2384
g51
tp2385
a(S'Logan Paulsen'
p2386
g51
tp2387
a(S'Kai Forbath'
p2388
g58
tp2389
asg9
I01
sg11
F38.0
sg12
F258.0
sg13
F3.0
sg14
F2.0
sg15
F3.0
sg16
S'27-23'
p2390
sg18
I01
sg20
F248.0
sg21
F0.0
ssg507
(dp2391
g5
F37.0
sg6
F0.0
sg7
(lp2392
(S'Colin Kaepernick'
p2393
g26
tp2394
a(S'Alex Smith'
p2395
g26
tp2396
a(S'Scott Tolzien'
p2397
g26
tp2398
a(S'Anthony Dixon'
p2399
g31
tp2400
a(S'Frank Gore'
p2401
g31
tp2402
a(S'Kendall Hunter'
p2403
g31
tp2404
a(S'Bruce Miller'
p2405
g31
tp2406
a(S'Will Tukuafu'
p2407
g31
tp2408
a(S'Michael Crabtree'
p2409
g38
tp2410
a(S'Ted Ginn'
p2411
g38
tp2412
a(S'Kyle Williams'
p2413
g38
tp2414
a(S'Garrett Celek'
p2415
g51
tp2416
a(S'Vernon Davis'
p2417
g51
tp2418
a(S'Delanie Walker'
p2419
g51
tp2420
asg9
I01
sg11
F16.0
sg12
F282.0
sg13
F0.0
sg14
F0.0
sg15
F0.0
sg16
S'26-3'
p2421
sg18
I00
sg20
F73.0
sg21
F0.0
ssg541
(dp2422
g5
F30.0
sg6
F0.0
sg7
(lp2423
(S'Ben Roethlisberger'
p2424
g26
tp2425
a(S'Will Johnson'
p2426
g31
tp2427
a(S'Antonio Brown'
p2428
g38
tp2429
a(S'Jerricho Cotchery'
p2430
g38
tp2431
a(S'Emmanuel Sanders'
p2432
g38
tp2433
a(S'Mike Wallace'
p2434
g38
tp2435
a(S'Shaun Suisham'
p2436
g58
tp2437
asg9
I00
sg11
F5.0
sg12
F216.0
sg13
F1.0
sg14
F2.0
sg15
F1.0
sg16
S'20-24'
p2438
sg18
I01
sg20
F1.0
sg21
F0.0
ssg579
(dp2439
g5
F62.0
sg6
F1.0
sg7
(lp2440
(S'Tony Romo'
p2441
g26
tp2442
a(S'Lance Dunbar'
p2443
g31
tp2444
a(S'DeMarco Murray'
p2445
g31
tp2446
a(S'Cole Beasley'
p2447
g38
tp2448
a(S'Dez Bryant'
p2449
g38
tp2450
a(S'Dwayne Harris'
p2451
g38
tp2452
a(S'Andre Holmes'
p2453
g38
tp2454
a(S'James Hanna'
p2455
g51
tp2456
a(S'John Phillips'
p2457
g51
tp2458
a(S'Jason Witten'
p2459
g51
tp2460
a(S'Dan Bailey'
p2461
g58
tp2462
asg9
I01
sg11
F2.0
sg12
F437.0
sg13
F1.0
sg14
F1.0
sg15
F1.0
sg16
S'29-24'
p2463
sg18
I00
sg20
F0.0
sg21
F0.0
sss.