(dp0
S'2015'
p1
(dp2
S'11'
p3
(dp4
S'PassAtt'
p5
F29.0
sS'RushTD'
p6
F0.0
sS'Players'
p7
(lp8
(S'Mike Glennon'
p9
S'QB'
p10
tp11
a(S'Ryan Griffin'
p12
g10
tp13
a(S'Jameis Winston'
p14
g10
tp15
a(S'Jorvorskie Lane'
p16
S'RB'
p17
tp18
a(S'Doug Martin'
p19
g17
tp20
a(S'Bobby Rainey'
p21
g17
tp22
a(S'Charles Sims'
p23
g17
tp24
a(S'Dontee Dye'
p25
S'WR'
p26
tp27
a(S'Mike Evans'
p28
g26
tp29
a(S'Adam Humphries'
p30
g26
tp31
a(S'Vincent Jackson'
p32
g26
tp33
a(S'Russell Shepard'
p34
g26
tp35
a(S'Cameron Brate'
p36
S'TE'
p37
tp38
a(S'Brandon Myers'
p39
g37
tp40
a(S'Austin Seferian-Jenkins'
p41
g37
tp42
a(S'Luke Stocker'
p43
g37
tp44
a(S'Connor Barth'
p45
S'K'
p46
tp47
asS'Won'
p48
I00
sS'RushAtt'
p49
F42.0
sS'PassYds'
p50
F246.0
sS'FGAtt'
p51
F1.0
sS'PassTD'
p52
F5.0
sS'FGM'
p53
F1.0
sS'Score'
p54
S'17-45'
p55
sS'Home'
p56
I01
sS'RushYds'
p57
F283.0
sS'FGBlk'
p58
F0.0
ssS'10'
p59
(dp60
g5
F36.0
sg6
F0.0
sg7
(lp61
(S'Matt Moore'
p62
g10
tp63
a(S'Ryan Tannehill'
p64
g10
tp65
a(S'Jay Ajayi'
p66
g17
tp67
a(S'Lamar Miller'
p68
g17
tp69
a(S'Damien Williams'
p70
g17
tp71
a(S'Matt Hazel'
p72
g26
tp73
a(S'Greg Jennings'
p74
g26
tp75
a(S'Jarvis Landry'
p76
g26
tp77
a(S'Rishard Matthews'
p78
g26
tp79
a(S'DeVante Parker'
p80
g26
tp81
a(S'Kenny Stills'
p82
g26
tp83
a(S'Jordan Cameron'
p84
g37
tp85
a(S'Dion Sims'
p86
g37
tp87
a(S'Jake Stoneburner'
p88
g37
tp89
a(S'Brandon Williams'
p90
g37
tp91
a(S'Andrew Franks'
p92
g46
tp93
asg48
I00
sg49
F26.0
sg50
F217.0
sg51
F2.0
sg52
F2.0
sg53
F2.0
sg54
S'19-20'
p94
sg56
I01
sg57
F99.0
sg58
F0.0
ssS'13'
p95
(dp96
g5
F56.0
sg6
F1.0
sg7
(lp97
(S'Tom Brady'
p98
g10
tp99
a(S'Jimmy Garoppolo'
p100
g10
tp101
a(S'LeGarrette Blount'
p102
g17
tp103
a(S'Brandon Bolden'
p104
g17
tp105
a(S'James White'
p106
g17
tp107
a(S'Trey Williams'
p108
g17
tp109
a(S'Danny Amendola'
p110
g26
tp111
a(S'Julian Edelman'
p112
g26
tp113
a(S'Damaris Johnson'
p114
g26
tp115
a(S'Brandon LaFell'
p116
g26
tp117
a(S'Keshawn Martin'
p118
g26
tp119
a(S'Matthew Slater'
p120
g26
tp121
a(S'Scott Chandler'
p122
g37
tp123
a(S'Asante Cleveland'
p124
g37
tp125
a(S'Rob Gronkowski'
p126
g37
tp127
a(S'Michael Williams'
p128
g37
tp129
a(S'Stephen Gostkowski'
p130
g46
tp131
asg48
I01
sg49
F25.0
sg50
F312.0
sg51
F0.0
sg52
F3.0
sg53
F0.0
sg54
S'35-28'
p132
sg56
I00
sg57
F103.0
sg58
F0.0
ssS'12'
p133
(dp134
g5
F38.0
sg6
F0.0
sg7
(lp135
(S'Dan Orlovsky'
p136
g10
tp137
a(S'Matthew Stafford'
p138
g10
tp139
a(S'Ameer Abdullah'
p140
g17
tp141
a(S'Michael Burton'
p142
g17
tp143
a(S'Theo Riddick'
p144
g17
tp145
a(S'George Winn'
p146
g17
tp147
a(S'Corey Fuller'
p148
g26
tp149
a(S'T.J. Jones'
p150
g26
tp151
a(S'Lance Moore'
p152
g26
tp153
a(S'Golden Tate'
p154
g26
tp155
a(S'Eric Ebron'
p156
g37
tp157
a(S'Brandon Pettigrew'
p158
g37
tp159
a(S'Timothy Wright'
p160
g37
tp161
a(S'Matt Prater'
p162
g46
tp163
asg48
I00
sg49
F23.0
sg50
F337.0
sg51
F1.0
sg52
F5.0
sg53
F1.0
sg54
S'14-45'
p164
sg56
I00
sg57
F83.0
sg58
F0.0
ssS'15'
p165
(dp166
g5
F33.0
sg6
F3.0
sg7
(lp167
(S'Matt Barkley'
p168
g10
tp169
a(S'Carson Palmer'
p170
g10
tp171
a(S'Drew Stanton'
p172
g10
tp173
a(S'Andre Ellington'
p174
g17
tp175
a(S'David Johnson'
p176
g17
tp177
a(S'Stepfan Taylor'
p178
g17
tp179
a(S'Kerwynn Williams'
p180
g17
tp181
a(S'Jaron Brown'
p182
g26
tp183
a(S'John Brown'
p184
g26
tp185
a(S'Larry Fitzgerald'
p186
g26
tp187
a(S'Michael Floyd'
p188
g26
tp189
a(S'Brittan Golden'
p190
g26
tp191
a(S'J.J. Nelson'
p192
g26
tp193
a(S'Darren Fells'
p194
g37
tp195
a(S'Jermaine Gresham'
p196
g37
tp197
a(S'Troy Niklas'
p198
g37
tp199
a(S'Chandler Catanzaro'
p200
g46
tp201
asg48
I00
sg49
F39.0
sg50
F274.0
sg51
F2.0
sg52
F1.0
sg53
F2.0
sg54
S'17-40'
p202
sg56
I01
sg57
F230.0
sg58
F0.0
ssS'14'
p203
(dp204
g5
F36.0
sg6
F1.0
sg7
(lp205
(S'Josh Johnson'
p206
g10
tp207
a(S'EJ Manuel'
p208
g10
tp209
a(S'Tyrod Taylor'
p210
g10
tp211
a(S'Anthony Dixon'
p212
g17
tp213
a(S'Jerome Felton'
p214
g17
tp215
a(S'Mike Gillislee'
p216
g17
tp217
a(S'LeSean McCoy'
p218
g17
tp219
a(S'Karlos Williams'
p220
g17
tp221
a(S'Marcus Easley'
p222
g26
tp223
a(S'Chris Hogan'
p224
g26
tp225
a(S'Sammy Watkins'
p226
g26
tp227
a(S'Robert Woods'
p228
g26
tp229
a(S'Charles Clay'
p230
g37
tp231
a(S'Dorin Dickerson'
p232
g37
tp233
a(S'Chris Gragg'
p234
g37
tp235
a(S"Nick O'Leary"
p236
g37
tp237
a(S'Dan Carpenter'
p238
g46
tp239
a(S'Jordan Gay'
p240
g46
tp241
asg48
I01
sg49
F32.0
sg50
F268.0
sg51
F2.0
sg52
F1.0
sg53
F2.0
sg54
S'23-20'
p242
sg56
I01
sg57
F152.0
sg58
F0.0
ssS'17'
p243
(dp244
g5
F43.0
sg6
F1.0
sg7
(lp245
(S'Eli Manning'
p246
g10
tp247
a(S'Ryan Nassib'
p248
g10
tp249
a(S'Orleans Darkwa'
p250
g17
tp251
a(S'Rashad Jennings'
p252
g17
tp253
a(S'Shane Vereen'
p254
g17
tp255
a(S'Andre Williams'
p256
g17
tp257
a(S'Odell Beckham'
p258
g26
tp259
a(S'Geremy Davis'
p260
g26
tp261
a(S'Dwayne Harris'
p262
g26
tp263
a(S'Hakeem Nicks'
p264
g26
tp265
a(S'Rueben Randle'
p266
g26
tp267
a(S'Myles White'
p268
g26
tp269
a(S'Jerome Cunningham'
p270
g37
tp271
a(S'Matt LaCosse'
p272
g37
tp273
a(S'Will Tye'
p274
g37
tp275
a(S'Josh Brown'
p276
g46
tp277
asg48
I01
sg49
F36.0
sg50
F302.0
sg51
F3.0
sg52
F2.0
sg53
F3.0
sg54
S'35-30'
p278
sg56
I00
sg57
F208.0
sg58
F0.0
ssS'16'
p279
(dp280
g5
F46.0
sg6
F0.0
sg7
(lp281
(S'Kirk Cousins'
p282
g10
tp283
a(S'Robert Griffin III'
p284
g10
tp285
a(S'Colt McCoy'
p286
g10
tp287
a(S'Alfred Morris'
p288
g17
tp289
a(S'Chris Thompson'
p290
g17
tp291
a(S'Darrel Young'
p292
g17
tp293
a(S'Jamison Crowder'
p294
g26
tp295
a(S'Pierre Garcon'
p296
g26
tp297
a(S'Ryan Grant'
p298
g26
tp299
a(S'DeSean Jackson'
p300
g26
tp301
a(S'Rashad Ross'
p302
g26
tp303
a(S"Je'Ron Hamm"
p304
g37
tp305
a(S'Marcel Jensen'
p306
g37
tp307
a(S'Jordan Reed'
p308
g37
tp309
a(S'Alex Smith'
p310
g37
tp311
a(S'Dustin Hopkins'
p312
g46
tp313
asg48
I00
sg49
F22.0
sg50
F365.0
sg51
F1.0
sg52
F4.0
sg53
F1.0
sg54
S'24-38'
p314
sg56
I01
sg57
F45.0
sg58
F0.0
ssS'1'
p315
(dp316
g5
F34.0
sg6
F0.0
sg7
(lp317
(S'Sean Renfree'
p318
g10
tp319
a(S'Matt Ryan'
p320
g10
tp321
a(S'Tevin Coleman'
p322
g17
tp323
a(S'Patrick DiMarco'
p324
g17
tp325
a(S'Devont Freeman'
p326
g17
tp327
a(S'Terron Ward'
p328
g17
tp329
a(S'Leonard Hankerson'
p330
g26
tp331
a(S'Justin Hardy'
p332
g26
tp333
a(S'Devin Hester'
p334
g26
tp335
a(S'Julio Jones'
p336
g26
tp337
a(S'Eric Weems'
p338
g26
tp339
a(S'Roddy White'
p340
g26
tp341
a(S'Nick Williams'
p342
g26
tp343
a(S'Jacob Tamme'
p344
g37
tp345
a(S'Levine Toilolo'
p346
g37
tp347
a(S'Matt Bryant'
p348
g46
tp349
asg48
I00
sg49
F35.0
sg50
F298.0
sg51
F4.0
sg52
F2.0
sg53
F4.0
sg54
S'24-26'
p350
sg56
I00
sg57
F105.0
sg58
F0.0
ssS'3'
p351
(dp352
g5
F58.0
sg6
F0.0
sg7
(lp353
(S'Ryan Fitzpatrick'
p354
g10
tp355
a(S'Bryce Petty'
p356
g10
tp357
a(S'Geno Smith'
p358
g10
tp359
a(S'Tommy Bohanon'
p360
g17
tp361
a(S'Chris Ivory'
p362
g17
tp363
a(S'Bilal Powell'
p364
g17
tp365
a(S'Zac Stacy'
p366
g17
tp367
a(S'Eric Decker'
p368
g26
tp369
a(S'Quincy Enunwa'
p370
g26
tp371
a(S'Jeremy Kerley'
p372
g26
tp373
a(S'Brandon Marshall'
p374
g26
tp375
a(S'Chris Owusu'
p376
g26
tp377
a(S'Devin Smith'
p378
g26
tp379
a(S'Jeff Cumberland'
p380
g37
tp381
a(S'Kellen Davis'
p382
g37
tp383
a(S'Nick Folk'
p384
g46
tp385
asg48
I01
sg49
F16.0
sg50
F283.0
sg51
F1.0
sg52
F2.0
sg53
F1.0
sg54
S'24-17'
p386
sg56
I00
sg57
F47.0
sg58
F0.0
ssS'2'
p387
(dp388
g5
F34.0
sg6
F0.0
sg7
(lp389
(S'Tony Romo'
p390
g10
tp391
a(S'Brandon Weeden'
p392
g10
tp393
a(S'Tyler Clutts'
p394
g17
tp395
a(S'Lance Dunbar'
p396
g17
tp397
a(S'Darren McFadden'
p398
g17
tp399
a(S'Christine Michael'
p400
g17
tp401
a(S'Cole Beasley'
p402
g26
tp403
a(S'Dez Bryant'
p404
g26
tp405
a(S'Brice Butler'
p406
g26
tp407
a(S'Devin Street'
p408
g26
tp409
a(S'Lucky Whitehead'
p410
g26
tp411
a(S'Terrance Williams'
p412
g26
tp413
a(S'Gavin Escobar'
p414
g37
tp415
a(S'James Hanna'
p416
g37
tp417
a(S'Geoff Swaim'
p418
g37
tp419
a(S'Jason Witten'
p420
g37
tp421
a(S'Dan Bailey'
p422
g46
tp423
asg48
I00
sg49
F15.0
sg50
F268.0
sg51
F2.0
sg52
F1.0
sg53
F2.0
sg54
S'10-20'
p424
sg56
I01
sg57
F58.0
sg58
F0.0
ssS'5'
p425
(dp426
g5
F43.0
sg6
F0.0
sg7
(lp427
(S'Drew Brees'
p428
g10
tp429
a(S'Garrett Grayson'
p430
g10
tp431
a(S'Luke McCown'
p432
g10
tp433
a(S'Mark Ingram'
p434
g17
tp435
a(S'Austin Johnson'
p436
g17
tp437
a(S'Marcus Murphy'
p438
g17
tp439
a(S'Khiry Robinson'
p440
g17
tp441
a(S'C.J. Spiller'
p442
g17
tp443
a(S'Brandon Coleman'
p444
g26
tp445
a(S'Marques Colston'
p446
g26
tp447
a(S'Brandin Cooks'
p448
g26
tp449
a(S'Willie Snead'
p450
g26
tp451
a(S'Josh Hill'
p452
g37
tp453
a(S'Michael Hoomanawanui'
p454
g37
tp455
a(S'Benjamin Watson'
p456
g37
tp457
a(S'Zach Hocker'
p458
g46
tp459
asg48
I01
sg49
F21.0
sg50
F335.0
sg51
F1.0
sg52
F2.0
sg53
F1.0
sg54
S'39-17'
p460
sg56
I01
sg57
F96.0
sg58
F0.0
ssS'4'
p461
(dp462
g5
F46.0
sg6
F1.0
sg7
(lp463
(S'Kirk Cousins'
p464
g10
tp465
a(S'Robert Griffin III'
p466
g10
tp467
a(S'Colt McCoy'
p468
g10
tp469
a(S'Alfred Morris'
p470
g17
tp471
a(S'Chris Thompson'
p472
g17
tp473
a(S'Darrel Young'
p474
g17
tp475
a(S'Jamison Crowder'
p476
g26
tp477
a(S'Pierre Garcon'
p478
g26
tp479
a(S'Ryan Grant'
p480
g26
tp481
a(S'DeSean Jackson'
p482
g26
tp483
a(S'Andre Roberts'
p484
g26
tp485
a(S'Rashad Ross'
p486
g26
tp487
a(S'Derek Carrier'
p488
g37
tp489
a(S'Anthony McCoy'
p490
g37
tp491
a(S'Jordan Reed'
p492
g37
tp493
a(S'Dustin Hopkins'
p494
g46
tp495
asg48
I00
sg49
F25.0
sg50
F290.0
sg51
F3.0
sg52
F1.0
sg53
F3.0
sg54
S'20-23'
p496
sg56
I00
sg57
F116.0
sg58
F0.0
ssS'7'
p497
(dp498
g5
F24.0
sg6
F2.0
sg7
(lp499
(S'Derek Anderson'
p500
g10
tp501
a(S'Cam Newton'
p502
g10
tp503
a(S'Joe Webb'
p504
g10
tp505
a(S'Cameron Artis-Payne'
p506
g17
tp507
a(S'Jonathan Stewart'
p508
g17
tp509
a(S'Mike Tolbert'
p510
g17
tp511
a(S'Brandon Wegher'
p512
g17
tp513
a(S'Fozzy Whittaker'
p514
g17
tp515
a(S'Brenton Bersin'
p516
g26
tp517
a(S'Corey Brown'
p518
g26
tp519
a(S'Jerricho Cotchery'
p520
g26
tp521
a(S'Devin Funchess'
p522
g26
tp523
a(S'Ted Ginn'
p524
g26
tp525
a(S'Kevin Norwood'
p526
g26
tp527
a(S'Ed Dickson'
p528
g37
tp529
a(S'Greg Olsen'
p530
g37
tp531
a(S'Scott Simonson'
p532
g37
tp533
a(S'Graham Gano'
p534
g46
tp535
asg48
I00
sg49
F33.0
sg50
F197.0
sg51
F2.0
sg52
F1.0
sg53
F2.0
sg54
S'16-27'
p536
sg56
I00
sg57
F204.0
sg58
F0.0
ssS'6'
p537
(dp538
g5
F38.0
sg6
F0.0
sg7
(lp539
(S'Eli Manning'
p540
g10
tp541
a(S'Ryan Nassib'
p542
g10
tp543
a(S'Orleans Darkwa'
p544
g17
tp545
a(S'Rashad Jennings'
p546
g17
tp547
a(S'Shane Vereen'
p548
g17
tp549
a(S'Nikit Whitlock'
p550
g17
tp551
a(S'Andre Williams'
p552
g17
tp553
a(S'Odell Beckham'
p554
g26
tp555
a(S'Victor Cruz'
p556
g26
tp557
a(S'Geremy Davis'
p558
g26
tp559
a(S'Dwayne Harris'
p560
g26
tp561
a(S'Rueben Randle'
p562
g26
tp563
a(S'Myles White'
p564
g26
tp565
a(S'Larry Donnell'
p566
g37
tp567
a(S'Will Tye'
p568
g37
tp569
a(S'Josh Brown'
p570
g46
tp571
asg48
I01
sg49
F23.0
sg50
F189.0
sg51
F0.0
sg52
F1.0
sg53
F0.0
sg54
S'27-7'
p572
sg56
I01
sg57
F81.0
sg58
F0.0
ssS'9'
p573
(dp574
g5
F38.0
sg6
F0.0
sg7
(lp575
(S'Matt Cassel'
p576
g10
tp577
a(S'Kellen Moore'
p578
g10
tp579
a(S'Brandon Weeden'
p580
g10
tp581
a(S'Tyler Clutts'
p582
g17
tp583
a(S'Darren McFadden'
p584
g17
tp585
a(S'Christine Michael'
p586
g17
tp587
a(S'Rod Smith'
p588
g17
tp589
a(S'Trey Williams'
p590
g17
tp591
a(S'Cole Beasley'
p592
g26
tp593
a(S'Dez Bryant'
p594
g26
tp595
a(S'Brice Butler'
p596
g26
tp597
a(S'Devin Street'
p598
g26
tp599
a(S'Lucky Whitehead'
p600
g26
tp601
a(S'Terrance Williams'
p602
g26
tp603
a(S'Gavin Escobar'
p604
g37
tp605
a(S'James Hanna'
p606
g37
tp607
a(S'Geoff Swaim'
p608
g37
tp609
a(S'Jason Witten'
p610
g37
tp611
a(S'Dan Bailey'
p612
g46
tp613
asg48
I01
sg49
F29.0
sg50
F299.0
sg51
F2.0
sg52
F3.0
sg53
F2.0
sg54
S'33-27'
p614
sg56
I00
sg57
F134.0
sg58
F0.0
ssS'8'
p615
(dp616
g5
F0.0
sg6
F0.0
sg7
(lp617
sg48
(lp618
sg49
F0.0
sg50
F0.0
sg51
F0.0
sg52
F0.0
sg53
F0.0
sg54
(lp619
sg56
(lp620
sg57
F0.0
sg58
F0.0
sssS'2014'
p621
(dp622
g3
(dp623
g5
F38.0
sg6
F1.0
sg7
(lp624
(S'Matt Flynn'
p625
g10
tp626
a(S'Aaron Rodgers'
p627
g10
tp628
a(S'Scott Tolzien'
p629
g10
tp630
a(S'DuJuan Harris'
p631
g17
tp632
a(S'John Kuhn'
p633
g17
tp634
a(S'Eddie Lacy'
p635
g17
tp636
a(S'James Starks'
p637
g17
tp638
a(S'Davante Adams'
p639
g26
tp640
a(S'Jarrett Boykin'
p641
g26
tp642
a(S'Randall Cobb'
p643
g26
tp644
a(S'Jeff Janis'
p645
g26
tp646
a(S'Jordy Nelson'
p647
g26
tp648
a(S'Brandon Bostick'
p649
g37
tp650
a(S'Justin Perillo'
p651
g37
tp652
a(S'Andrew Quarless'
p653
g37
tp654
a(S'Richard Rodgers'
p655
g37
tp656
a(S'Mason Crosby'
p657
g46
tp658
asg48
I00
sg49
F25.0
sg50
F367.0
sg51
F3.0
sg52
F3.0
sg53
F2.0
sg54
S'20-53'
p659
sg56
I00
sg57
F110.0
sg58
F0.0
ssg59
(dp660
g5
F40.0
sg6
F1.0
sg7
(lp661
(S'Derek Anderson'
p662
g10
tp663
a(S'Cam Newton'
p664
g10
tp665
a(S'Joe Webb'
p666
g10
tp667
a(S'Jonathan Stewart'
p668
g17
tp669
a(S'Fozzy Whittaker'
p670
g17
tp671
a(S'DeAngelo Williams'
p672
g17
tp673
a(S'Jason Avant'
p674
g26
tp675
a(S'Kelvin Benjamin'
p676
g26
tp677
a(S'Brenton Bersin'
p678
g26
tp679
a(S'Corey Brown'
p680
g26
tp681
a(S'Jerricho Cotchery'
p682
g26
tp683
a(S'Ed Dickson'
p684
g37
tp685
a(S'Greg Olsen'
p686
g37
tp687
a(S'Brandon Williams'
p688
g37
tp689
a(S'Graham Gano'
p690
g46
tp691
asg48
I01
sg49
F32.0
sg50
F306.0
sg51
F0.0
sg52
F2.0
sg53
F0.0
sg54
S'45-21'
p692
sg56
I01
sg57
F102.0
sg58
F0.0
ssg95
(dp693
g5
F29.0
sg6
F1.0
sg7
(lp694
(S'Tony Romo'
p695
g10
tp696
a(S'Dustin Vaughan'
p697
g10
tp698
a(S'Brandon Weeden'
p699
g10
tp700
a(S'Tyler Clutts'
p701
g17
tp702
a(S'Lance Dunbar'
p703
g17
tp704
a(S'DeMarco Murray'
p705
g17
tp706
a(S'Cole Beasley'
p707
g26
tp708
a(S'Dez Bryant'
p709
g26
tp710
a(S'Dwayne Harris'
p711
g26
tp712
a(S'Devin Street'
p713
g26
tp714
a(S'Terrance Williams'
p715
g26
tp716
a(S'Gavin Escobar'
p717
g37
tp718
a(S'James Hanna'
p719
g37
tp720
a(S'Jason Witten'
p721
g37
tp722
a(S'Dan Bailey'
p723
g46
tp724
asg48
I01
sg49
F23.0
sg50
F199.0
sg51
F1.0
sg52
F0.0
sg53
F1.0
sg54
S'33-10'
p725
sg56
I00
sg57
F87.0
sg58
F0.0
ssg133
(dp726
g5
F39.0
sg6
F0.0
sg7
(lp727
(S'Zach Mettenberger'
p728
g10
tp729
a(S'Antonio Andrews'
p730
g17
tp731
a(S'Dexter McCluster'
p732
g17
tp733
a(S'Bishop Sankey'
p734
g17
tp735
a(S'Justin Hunter'
p736
g26
tp737
a(S'Nate Washington'
p738
g26
tp739
a(S'Kendall Wright'
p740
g26
tp741
a(S'Chase Coffman'
p742
g37
tp743
a(S'Richard Gordon'
p744
g37
tp745
a(S'Delanie Walker'
p746
g37
tp747
a(S'Ryan Succop'
p748
g46
tp749
asg48
I01
sg49
F13.0
sg50
F345.0
sg51
F1.0
sg52
F2.0
sg53
F1.0
sg54
S'43-24'
p750
sg56
I01
sg57
F37.0
sg58
F0.0
ssg165
(dp751
g5
F31.0
sg6
F2.0
sg7
(lp752
(S'Tony Romo'
p753
g10
tp754
a(S'Dustin Vaughan'
p755
g10
tp756
a(S'Brandon Weeden'
p757
g10
tp758
a(S'Tyler Clutts'
p759
g17
tp760
a(S'Lance Dunbar'
p761
g17
tp762
a(S'DeMarco Murray'
p763
g17
tp764
a(S'Cole Beasley'
p765
g26
tp766
a(S'Dez Bryant'
p767
g26
tp768
a(S'Dwayne Harris'
p769
g26
tp770
a(S'Devin Street'
p771
g26
tp772
a(S'Terrance Williams'
p773
g26
tp774
a(S'Gavin Escobar'
p775
g37
tp776
a(S'James Hanna'
p777
g37
tp778
a(S'Jason Witten'
p779
g37
tp780
a(S'Dan Bailey'
p781
g46
tp782
asg48
I00
sg49
F40.0
sg50
F265.0
sg51
F1.0
sg52
F3.0
sg53
F1.0
sg54
S'27-38'
p783
sg56
I01
sg57
F102.0
sg58
F0.0
ssg203
(dp784
g5
F37.0
sg6
F1.0
sg7
(lp785
(S'Tarvaris Jackson'
p786
g10
tp787
a(S'Russell Wilson'
p788
g10
tp789
a(S'Christine Michael'
p790
g17
tp791
a(S'Will Tukuafu'
p792
g17
tp793
a(S'Robert Turbin'
p794
g17
tp795
a(S'Doug Baldwin'
p796
g26
tp797
a(S'Jermaine Kearse'
p798
g26
tp799
a(S'Ricardo Lockette'
p800
g26
tp801
a(S'Chris Matthews'
p802
g26
tp803
a(S'Kevin Norwood'
p804
g26
tp805
a(S'Paul Richardson'
p806
g26
tp807
a(S'Bryan Walters'
p808
g26
tp809
a(S'RaShaun Allen'
p810
g37
tp811
a(S'Dorin Dickerson'
p812
g37
tp813
a(S'Cooper Helfet'
p814
g37
tp815
a(S'Tony Moeaki'
p816
g37
tp817
a(S'Luke Willson'
p818
g37
tp819
a(S'Steven Hauschka'
p820
g46
tp821
asg48
I00
sg49
F22.0
sg50
F263.0
sg51
F1.0
sg52
F2.0
sg53
F1.0
sg54
S'14-24'
p822
sg56
I01
sg57
F102.0
sg58
F0.0
ssg243
(dp823
g5
F53.0
sg6
F1.0
sg7
(lp824
(S'Eli Manning'
p825
g10
tp826
a(S'Ryan Nassib'
p827
g10
tp828
a(S'Orleans Darkwa'
p829
g17
tp830
a(S'Rashad Jennings'
p831
g17
tp832
a(S'Andre Williams'
p833
g17
tp834
a(S'Odell Beckham'
p835
g26
tp836
a(S'Rueben Randle'
p837
g26
tp838
a(S'Jerome Cunningham'
p839
g37
tp840
a(S'Larry Donnell'
p841
g37
tp842
a(S'Daniel Fells'
p843
g37
tp844
a(S'Josh Brown'
p845
g46
tp846
asg48
I01
sg49
F25.0
sg50
F429.0
sg51
F4.0
sg52
F1.0
sg53
F4.0
sg54
S'34-26'
p847
sg56
I00
sg57
F76.0
sg58
F0.0
ssg279
(dp848
g5
F23.0
sg6
F3.0
sg7
(lp849
(S'Kirk Cousins'
p850
g10
tp851
a(S'Robert Griffin III'
p852
g10
tp853
a(S'Roy Helu'
p854
g17
tp855
a(S'Alfred Morris'
p856
g17
tp857
a(S'Silas Redd'
p858
g17
tp859
a(S'Chris Thompson'
p860
g17
tp861
a(S'Darrel Young'
p862
g17
tp863
a(S'Pierre Garcon'
p864
g26
tp865
a(S'Ryan Grant'
p866
g26
tp867
a(S'Leonard Hankerson'
p868
g26
tp869
a(S'DeSean Jackson'
p870
g26
tp871
a(S'Andre Roberts'
p872
g26
tp873
a(S'Niles Paul'
p874
g37
tp875
a(S'Logan Paulsen'
p876
g37
tp877
a(S'Jordan Reed'
p878
g37
tp879
a(S'Kai Forbath'
p880
g46
tp881
asg48
I00
sg49
F29.0
sg50
F220.0
sg51
F2.0
sg52
F0.0
sg53
F2.0
sg54
S'24-27'
p882
sg56
I00
sg57
F100.0
sg58
F0.0
ssg315
(dp883
g5
F43.0
sg6
F0.0
sg7
(lp884
(S'Blake Bortles'
p885
g10
tp886
a(S'Chad Henne'
p887
g10
tp888
a(S'Toby Gerhart'
p889
g17
tp890
a(S'Storm Johnson'
p891
g17
tp892
a(S'Denard Robinson'
p893
g17
tp894
a(S'Jordan Todman'
p895
g17
tp896
a(S'Allen Hurns'
p897
g26
tp898
a(S'Marqise Lee'
p899
g26
tp900
a(S'Allen Robinson'
p901
g26
tp902
a(S'Cecil Shorts'
p903
g26
tp904
a(S'Clay Harbor'
p905
g37
tp906
a(S'Marcedes Lewis'
p907
g37
tp908
a(S'Josh Scobee'
p909
g46
tp910
asg48
I01
sg49
F24.0
sg50
F266.0
sg51
F3.0
sg52
F2.0
sg53
F1.0
sg54
S'34-17'
p911
sg56
I01
sg57
F64.0
sg58
F1.0
ssg351
(dp912
g5
F48.0
sg6
F1.0
sg7
(lp913
(S'Kirk Cousins'
p914
g10
tp915
a(S'Robert Griffin III'
p916
g10
tp917
a(S'Colt McCoy'
p918
g10
tp919
a(S'Roy Helu'
p920
g17
tp921
a(S'Alfred Morris'
p922
g17
tp923
a(S'Silas Redd'
p924
g17
tp925
a(S'Darrel Young'
p926
g17
tp927
a(S'Pierre Garcon'
p928
g26
tp929
a(S'Ryan Grant'
p930
g26
tp931
a(S'DeSean Jackson'
p932
g26
tp933
a(S'Andre Roberts'
p934
g26
tp935
a(S'Aldrick Robinson'
p936
g26
tp937
a(S'Niles Paul'
p938
g37
tp939
a(S'Logan Paulsen'
p940
g37
tp941
a(S'Jordan Reed'
p942
g37
tp943
a(S'Kai Forbath'
p944
g46
tp945
asg48
I01
sg49
F28.0
sg50
F427.0
sg51
F3.0
sg52
F3.0
sg53
F2.0
sg54
S'37-34'
p946
sg56
I01
sg57
F84.0
sg58
F0.0
ssg387
(dp947
g5
F34.0
sg6
F0.0
sg7
(lp948
(S'Andrew Luck'
p949
g10
tp950
a(S'Ahmad Bradshaw'
p951
g17
tp952
a(S'Dan Herron'
p953
g17
tp954
a(S'Dion Lewis'
p955
g17
tp956
a(S'Trent Richardson'
p957
g17
tp958
a(S'T.Y. Hilton'
p959
g26
tp960
a(S'Donte Moncrief'
p961
g26
tp962
a(S'Hakeem Nicks'
p963
g26
tp964
a(S'Griff Whalen'
p965
g26
tp966
a(S'Dwayne Allen'
p967
g37
tp968
a(S'Jack Doyle'
p969
g37
tp970
a(S'Coby Fleener'
p971
g37
tp972
a(S'Adam Vinatieri'
p973
g46
tp974
asg48
I01
sg49
F38.0
sg50
F172.0
sg51
F2.0
sg52
F3.0
sg53
F2.0
sg54
S'30-27'
p975
sg56
I00
sg57
F169.0
sg58
F0.0
ssg425
(dp976
g5
F49.0
sg6
F1.0
sg7
(lp977
(S'Austin Davis'
p978
g10
tp979
a(S'Shaun Hill'
p980
g10
tp981
a(S'Case Keenum'
p982
g10
tp983
a(S'Benny Cunningham'
p984
g17
tp985
a(S'Tre Mason'
p986
g17
tp987
a(S'Chase Reynolds'
p988
g17
tp989
a(S'Zac Stacy'
p990
g17
tp991
a(S'Tavon Austin'
p992
g26
tp993
a(S'Stedman Bailey'
p994
g26
tp995
a(S'Kenny Britt'
p996
g26
tp997
a(S'Chris Givens'
p998
g26
tp999
a(S'Brian Quick'
p1000
g26
tp1001
a(S'Jared Cook'
p1002
g37
tp1003
a(S'Cory Harkey'
p1004
g37
tp1005
a(S'Lance Kendricks'
p1006
g37
tp1007
a(S'Greg Zuerlein'
p1008
g46
tp1009
asg48
I01
sg49
F21.0
sg50
F375.0
sg51
F0.0
sg52
F3.0
sg53
F0.0
sg54
S'34-28'
p1010
sg56
I01
sg57
F119.0
sg58
F0.0
ssg461
(dp1011
g5
F30.0
sg6
F0.0
sg7
(lp1012
(S'Blaine Gabbert'
p1013
g10
tp1014
a(S'Josh Johnson'
p1015
g10
tp1016
a(S'Colin Kaepernick'
p1017
g10
tp1018
a(S'Frank Gore'
p1019
g17
tp1020
a(S'Carlos Hyde'
p1021
g17
tp1022
a(S'Bruce Miller'
p1023
g17
tp1024
a(S'Anquan Boldin'
p1025
g26
tp1026
a(S'Michael Crabtree'
p1027
g26
tp1028
a(S'Bruce Ellington'
p1029
g26
tp1030
a(S'Steve Johnson'
p1031
g26
tp1032
a(S'Quinton Patton'
p1033
g26
tp1034
a(S'Derek Carrier'
p1035
g37
tp1036
a(S'Vernon Davis'
p1037
g37
tp1038
a(S'Vance McDonald'
p1039
g37
tp1040
a(S'Phil Dawson'
p1041
g46
tp1042
asg48
I00
sg49
F42.0
sg50
F218.0
sg51
F4.0
sg52
F2.0
sg53
F4.0
sg54
S'21-26'
p1043
sg56
I00
sg57
F218.0
sg58
F0.0
ssg497
(dp1044
g5
F0.0
sg6
F0.0
sg7
(lp1045
sg48
(lp1046
sg49
F0.0
sg50
F0.0
sg51
F0.0
sg52
F0.0
sg53
F0.0
sg54
(lp1047
sg56
(lp1048
sg57
F0.0
sg58
F0.0
ssg537
(dp1049
g5
F28.0
sg6
F0.0
sg7
(lp1050
(S'Eli Manning'
p1051
g10
tp1052
a(S'Ryan Nassib'
p1053
g10
tp1054
a(S'Rashad Jennings'
p1055
g17
tp1056
a(S'Andre Williams'
p1057
g17
tp1058
a(S'Odell Beckham'
p1059
g26
tp1060
a(S'Victor Cruz'
p1061
g26
tp1062
a(S'Rueben Randle'
p1063
g26
tp1064
a(S'Larry Donnell'
p1065
g37
tp1066
a(S'Daniel Fells'
p1067
g37
tp1068
a(S'Josh Brown'
p1069
g46
tp1070
asg48
I01
sg49
F19.0
sg50
F211.0
sg51
F0.0
sg52
F0.0
sg53
F0.0
sg54
S'27-0'
p1071
sg56
I01
sg57
F62.0
sg58
F0.0
ssg573
(dp1072
g5
F27.0
sg6
F0.0
sg7
(lp1073
(S'Ryan Fitzpatrick'
p1074
g10
tp1075
a(S'Ryan Mallett'
p1076
g10
tp1077
a(S'Tom Savage'
p1078
g10
tp1079
a(S'Alfred Blue'
p1080
g17
tp1081
a(S'Arian Foster'
p1082
g17
tp1083
a(S'Jonathan Grimes'
p1084
g17
tp1085
a(S'Jay Prosch'
p1086
g17
tp1087
a(S'DeAndre Hopkins'
p1088
g26
tp1089
a(S'Andre Johnson'
p1090
g26
tp1091
a(S'Damaris Johnson'
p1092
g26
tp1093
a(S'Keshawn Martin'
p1094
g26
tp1095
a(S'DeVier Posey'
p1096
g26
tp1097
a(S'C.J. Fiedorowicz'
p1098
g37
tp1099
a(S'Garrett Graham'
p1100
g37
tp1101
a(S'Ryan Griffin'
p1102
g37
tp1103
a(S'Randy Bullock'
p1104
g46
tp1105
asg48
I01
sg49
F28.0
sg50
F203.0
sg51
F1.0
sg52
F2.0
sg53
F0.0
sg54
S'31-21'
p1106
sg56
I00
sg57
F118.0
sg58
F0.0
ssg615
(dp1107
g5
F42.0
sg6
F1.0
sg7
(lp1108
(S'Carson Palmer'
p1109
g10
tp1110
a(S'Drew Stanton'
p1111
g10
tp1112
a(S'Logan Thomas'
p1113
g10
tp1114
a(S'Andre Ellington'
p1115
g17
tp1116
a(S'Stepfan Taylor'
p1117
g17
tp1118
a(S'Jaron Brown'
p1119
g26
tp1120
a(S'John Brown'
p1121
g26
tp1122
a(S'Larry Fitzgerald'
p1123
g26
tp1124
a(S'Michael Floyd'
p1125
g26
tp1126
a(S'Ted Ginn'
p1127
g26
tp1128
a(S'Darren Fells'
p1129
g37
tp1130
a(S'Rob Housler'
p1131
g37
tp1132
a(S'Troy Niklas'
p1133
g37
tp1134
a(S'Chandler Catanzaro'
p1135
g46
tp1136
asg48
I00
sg49
F23.0
sg50
F329.0
sg51
F1.0
sg52
F2.0
sg53
F1.0
sg54
S'20-24'
p1137
sg56
I00
sg57
F71.0
sg58
F0.0
sssS'2011'
p1138
(dp1139
g3
(dp1140
g5
F35.0
sg6
F0.0
sg7
(lp1141
(S'Eli Manning'
p1142
g10
tp1143
a(S'Ahmad Bradshaw'
p1144
g17
tp1145
a(S'Victor Cruz'
p1146
g26
tp1147
a(S'Hakeem Nicks'
p1148
g26
tp1149
a(S'Bear Pascoe'
p1150
g37
tp1151
asg48
I01
sg49
F0.0
sg50
F264.0
sg51
F0.0
sg52
F1.0
sg53
F0.0
sg54
S'17-10'
p1152
sg56
I00
sg57
F0.0
sg58
F0.0
ssg59
(dp1153
g5
F0.0
sg6
F0.0
sg7
(lp1154
(S'Anthony Sherman'
p1155
g17
tp1156
a(S'Larry Fitzgerald'
p1157
g26
tp1158
a(S'Andre Roberts'
p1159
g26
tp1160
a(S'Jim Dray'
p1161
g37
tp1162
a(S'Rob Housler'
p1163
g37
tp1164
asg48
I00
sg49
F1.0
sg50
F0.0
sg51
F0.0
sg52
F0.0
sg53
F0.0
sg54
S'17-21'
p1165
sg56
I01
sg57
F12.0
sg58
F0.0
ssg95
(dp1166
g5
F16.0
sg6
F0.0
sg7
(lp1167
(S'Tarvaris Jackson'
p1168
g10
tp1169
a(S'Justin Forsett'
p1170
g17
tp1171
a(S'Doug Baldwin'
p1172
g26
tp1173
a(S'Golden Tate'
p1174
g26
tp1175
a(S'Anthony McCoy'
p1176
g37
tp1177
a(S'Steven Hauschka'
p1178
g46
tp1179
asg48
I00
sg49
F5.0
sg50
F190.0
sg51
F1.0
sg52
F1.0
sg53
F1.0
sg54
S'14-31'
p1180
sg56
I00
sg57
F17.0
sg58
F0.0
ssg133
(dp1181
g5
F34.0
sg6
F0.0
sg7
(lp1182
(S'Tom Brady'
p1183
g10
tp1184
a(S'Brian Hoyer'
p1185
g10
tp1186
a(S'Ryan Mallett'
p1187
g10
tp1188
a(S'Stevan Ridley'
p1189
g17
tp1190
a(S'Shane Vereen'
p1191
g17
tp1192
a(S'Danny Woodhead'
p1193
g17
tp1194
a(S'Julian Edelman'
p1195
g26
tp1196
a(S'Matthew Slater'
p1197
g26
tp1198
a(S'Wes Welker'
p1199
g26
tp1200
a(S'Rob Gronkowski'
p1201
g37
tp1202
a(S'Stephen Gostkowski'
p1203
g46
tp1204
asg48
I00
sg49
F22.0
sg50
F361.0
sg51
F2.0
sg52
F3.0
sg53
F1.0
sg54
S'20-38'
p1205
sg56
I01
sg57
F60.0
sg58
F0.0
ssg165
(dp1206
g5
F26.0
sg6
F0.0
sg7
(lp1207
(S'Mark Sanchez'
p1208
g10
tp1209
a(S'Bilal Powell'
p1210
g17
tp1211
a(S'Jeremy Kerley'
p1212
g26
tp1213
a(S'Matthew Mulligan'
p1214
g37
tp1215
a(S'Nick Folk'
p1216
g46
tp1217
asg48
I01
sg49
F2.0
sg50
F150.0
sg51
F2.0
sg52
F2.0
sg53
F2.0
sg54
S'45-19'
p1218
sg56
I01
sg57
F3.0
sg58
F0.0
ssg203
(dp1219
g5
F19.0
sg6
F0.0
sg7
(lp1220
(S'Matt Moore'
p1221
g10
tp1222
a(S'Reggie Bush'
p1223
g17
tp1224
a(S'Daniel Thomas'
p1225
g17
tp1226
a(S'Brian Hartline'
p1227
g26
tp1228
a(S'Brandon Marshall'
p1229
g26
tp1230
a(S'Charles Clay'
p1231
g37
tp1232
a(S'Anthony Fasano'
p1233
g37
tp1234
a(S'Dan Carpenter'
p1235
g46
tp1236
asg48
I01
sg49
F22.0
sg50
F95.0
sg51
F2.0
sg52
F1.0
sg53
F1.0
sg54
S'26-10'
p1237
sg56
I00
sg57
F108.0
sg58
F0.0
ssg243
(dp1238
g5
F0.0
sg6
F0.0
sg7
(lp1239
(S'Roy Helu'
p1240
g17
tp1241
a(S'Darrel Young'
p1242
g17
tp1243
a(S'Aldrick Robinson'
p1244
g26
tp1245
a(S'Niles Paul'
p1246
g37
tp1247
a(S'Logan Paulsen'
p1248
g37
tp1249
a(S'Graham Gano'
p1250
g46
tp1251
asg48
I01
sg49
F5.0
sg50
F0.0
sg51
F2.0
sg52
F0.0
sg53
F1.0
sg54
S'34-10'
p1252
sg56
I01
sg57
F17.0
sg58
F1.0
ssg279
(dp1253
g5
F2.0
sg6
F0.0
sg7
(lp1254
(S'Tony Romo'
p1255
g10
tp1256
a(S'Dez Bryant'
p1257
g26
tp1258
a(S'Dwayne Harris'
p1259
g26
tp1260
a(S'Andre Holmes'
p1261
g26
tp1262
a(S'Martellus Bennett'
p1263
g37
tp1264
a(S'John Phillips'
p1265
g37
tp1266
a(S'Jason Witten'
p1267
g37
tp1268
a(S'Dan Bailey'
p1269
g46
tp1270
asg48
I01
sg49
F0.0
sg50
F0.0
sg51
F0.0
sg52
F0.0
sg53
F0.0
sg54
S'20-7'
p1271
sg56
I00
sg57
F0.0
sg58
F0.0
ssg315
(dp1272
g5
F30.0
sg6
F1.0
sg7
(lp1273
(S'Sam Bradford'
p1274
g10
tp1275
a(S'Steven Jackson'
p1276
g17
tp1277
a(S'Danny Amendola'
p1278
g26
tp1279
a(S'Brandon Gibson'
p1280
g26
tp1281
a(S'Greg Salas'
p1282
g26
tp1283
a(S'Michael Hoomanawanui'
p1284
g37
tp1285
a(S'Lance Kendricks'
p1286
g37
tp1287
a(S'Josh Brown'
p1288
g46
tp1289
asg48
I01
sg49
F3.0
sg50
F188.0
sg51
F3.0
sg52
F0.0
sg53
F2.0
sg54
S'31-13'
p1290
sg56
I00
sg57
F41.0
sg58
F0.0
ssg351
(dp1291
g5
F23.0
sg6
F0.0
sg7
(lp1292
(S'Eli Manning'
p1293
g10
tp1294
a(S'Ahmad Bradshaw'
p1295
g17
tp1296
a(S'Victor Cruz'
p1297
g26
tp1298
a(S'Hakeem Nicks'
p1299
g26
tp1300
a(S'Bear Pascoe'
p1301
g37
tp1302
asg48
I00
sg49
F18.0
sg50
F254.0
sg51
F0.0
sg52
F4.0
sg53
F0.0
sg54
S'16-29'
p1303
sg56
I01
sg57
F83.0
sg58
F0.0
ssg387
(dp1304
g5
F28.0
sg6
F0.0
sg7
(lp1305
(S'Matt Ryan'
p1306
g10
tp1307
a(S'Jacquizz Rodgers'
p1308
g17
tp1309
a(S'Harry Douglas'
p1310
g26
tp1311
a(S'Julio Jones'
p1312
g26
tp1313
a(S'Eric Weems'
p1314
g26
tp1315
a(S'Roddy White'
p1316
g26
tp1317
a(S'Matt Bryant'
p1318
g46
tp1319
asg48
I00
sg49
F7.0
sg50
F195.0
sg51
F0.0
sg52
F4.0
sg53
F0.0
sg54
S'31-35'
p1320
sg56
I00
sg57
F23.0
sg58
F0.0
ssg425
(dp1321
g5
F27.0
sg6
F1.0
sg7
(lp1322
(S'Ryan Fitzpatrick'
p1323
g10
tp1324
a(S'Fred Jackson'
p1325
g17
tp1326
a(S'C.J. Spiller'
p1327
g17
tp1328
a(S'Steve Johnson'
p1329
g26
tp1330
a(S'Scott Chandler'
p1331
g37
tp1332
a(S'Lee Smith'
p1333
g37
tp1334
asg48
I00
sg49
F31.0
sg50
F193.0
sg51
F0.0
sg52
F1.0
sg53
F0.0
sg54
S'24-31'
p1335
sg56
I00
sg57
F131.0
sg58
F0.0
ssg461
(dp1336
g5
F33.0
sg6
F1.0
sg7
(lp1337
(S'Colin Kaepernick'
p1338
g10
tp1339
a(S'Alex Smith'
p1340
g10
tp1341
a(S'Scott Tolzien'
p1342
g10
tp1343
a(S'Anthony Dixon'
p1344
g17
tp1345
a(S'Frank Gore'
p1346
g17
tp1347
a(S'Kendall Hunter'
p1348
g17
tp1349
a(S'Bruce Miller'
p1350
g17
tp1351
a(S'Will Tukuafu'
p1352
g17
tp1353
a(S'Michael Crabtree'
p1354
g26
tp1355
a(S'Ted Ginn'
p1356
g26
tp1357
a(S'Kyle Williams'
p1358
g26
tp1359
a(S'Vernon Davis'
p1360
g37
tp1361
a(S'Delanie Walker'
p1362
g37
tp1363
asg48
I00
sg49
F25.0
sg50
F291.0
sg51
F0.0
sg52
F2.0
sg53
F0.0
sg54
S'23-24'
p1364
sg56
I01
sg57
F164.0
sg58
F0.0
ssg497
(dp1365
g5
F0.0
sg6
F0.0
sg7
(lp1366
sg48
(lp1367
sg49
F0.0
sg50
F0.0
sg51
F0.0
sg52
F0.0
sg53
F0.0
sg54
(lp1368
sg56
(lp1369
sg57
F0.0
sg58
F0.0
ssg537
(dp1370
g5
F0.0
sg6
F0.0
sg7
(lp1371
(S'Roy Helu'
p1372
g17
tp1373
a(S'Tim Hightower'
p1374
g17
tp1375
a(S'Darrel Young'
p1376
g17
tp1377
a(S'Leonard Hankerson'
p1378
g26
tp1379
a(S'Niles Paul'
p1380
g37
tp1381
a(S'Logan Paulsen'
p1382
g37
tp1383
a(S'Graham Gano'
p1384
g46
tp1385
asg48
I01
sg49
F2.0
sg50
F0.0
sg51
F2.0
sg52
F0.0
sg53
F2.0
sg54
S'20-13'
p1386
sg56
I00
sg57
F6.0
sg58
F0.0
ssg573
(dp1387
g5
F32.0
sg6
F0.0
sg7
(lp1388
(S'Jay Cutler'
p1389
g10
tp1390
a(S'Tyler Clutts'
p1391
g17
tp1392
a(S'Matt Forte'
p1393
g17
tp1394
a(S'Devin Hester'
p1395
g26
tp1396
a(S'Kellen Davis'
p1397
g37
tp1398
a(S'Matt Spaeth'
p1399
g37
tp1400
a(S'Robbie Gould'
p1401
g46
tp1402
asg48
I00
sg49
F25.0
sg50
F208.0
sg51
F3.0
sg52
F2.0
sg53
F3.0
sg54
S'24-30'
p1403
sg56
I01
sg57
F133.0
sg58
F0.0
ssg615
(dp1404
g5
F35.0
sg6
F0.0
sg7
(lp1405
(S'Tony Romo'
p1406
g10
tp1407
a(S'DeMarco Murray'
p1408
g17
tp1409
a(S'Dez Bryant'
p1410
g26
tp1411
a(S'Martellus Bennett'
p1412
g37
tp1413
a(S'John Phillips'
p1414
g37
tp1415
a(S'Jason Witten'
p1416
g37
tp1417
a(S'Dan Bailey'
p1418
g46
tp1419
asg48
I01
sg49
F9.0
sg50
F203.0
sg51
F0.0
sg52
F1.0
sg53
F0.0
sg54
S'34-7'
p1420
sg56
I01
sg57
F83.0
sg58
F0.0
sssS'2010'
p1421
(dp1422
g3
(dp1423
g5
F33.0
sg6
F0.0
sg7
(lp1424
(S'Eli Manning'
p1425
g10
tp1426
a(S'Ahmad Bradshaw'
p1427
g17
tp1428
a(S'Hakeem Nicks'
p1429
g26
tp1430
a(S'Bear Pascoe'
p1431
g37
tp1432
asg48
I01
sg49
F14.0
sg50
F147.0
sg51
F0.0
sg52
F2.0
sg53
F0.0
sg54
S'27-17'
p1433
sg56
I01
sg57
F51.0
sg58
F0.0
ssg59
(dp1434
g5
F0.0
sg6
F0.0
sg7
(lp1435
(S'Darrel Young'
p1436
g17
tp1437
a(S'Logan Paulsen'
p1438
g37
tp1439
a(S'Graham Gano'
p1440
g46
tp1441
asg48
I01
sg49
F1.0
sg50
F0.0
sg51
F0.0
sg52
F0.0
sg53
F0.0
sg54
S'59-28'
p1442
sg56
I00
sg57
F16.0
sg58
F0.0
ssg95
(dp1443
g5
F36.0
sg6
F1.0
sg7
(lp1444
(S'Dan Orlovsky'
p1445
g10
tp1446
a(S'Matt Schaub'
p1447
g10
tp1448
a(S'Arian Foster'
p1449
g17
tp1450
a(S'Andre Johnson'
p1451
g26
tp1452
a(S'Owen Daniels'
p1453
g37
tp1454
a(S'Dorin Dickerson'
p1455
g37
tp1456
a(S'Garrett Graham'
p1457
g37
tp1458
asg48
I01
sg49
F24.0
sg50
F337.0
sg51
F0.0
sg52
F2.0
sg53
F0.0
sg54
S'34-24'
p1459
sg56
I01
sg57
F93.0
sg58
F0.0
ssg133
(dp1460
g5
F21.0
sg6
F0.0
sg7
(lp1461
(S'Jay Cutler'
p1462
g10
tp1463
a(S'Matt Forte'
p1464
g17
tp1465
a(S'Devin Hester'
p1466
g26
tp1467
a(S'Kellen Davis'
p1468
g37
tp1469
a(S'Greg Olsen'
p1470
g37
tp1471
a(S'Robbie Gould'
p1472
g46
tp1473
asg48
I00
sg49
F22.0
sg50
F247.0
sg51
F1.0
sg52
F4.0
sg53
F1.0
sg54
S'26-31'
p1474
sg56
I00
sg57
F134.0
sg58
F0.0
ssg165
(dp1475
g5
F39.0
sg6
F0.0
sg7
(lp1476
(S'Eli Manning'
p1477
g10
tp1478
a(S'Ahmad Bradshaw'
p1479
g17
tp1480
a(S'Hakeem Nicks'
p1481
g26
tp1482
a(S'Bear Pascoe'
p1483
g37
tp1484
asg48
I01
sg49
F19.0
sg50
F289.0
sg51
F0.0
sg52
F4.0
sg53
F0.0
sg54
S'38-31'
p1485
sg56
I00
sg57
F66.0
sg58
F0.0
ssg203
(dp1486
g5
F0.0
sg6
F0.0
sg7
(lp1487
(S'Tony Romo'
p1488
g10
tp1489
a(S'Martellus Bennett'
p1490
g37
tp1491
a(S'Jason Witten'
p1492
g37
tp1493
asg48
I01
sg49
F0.0
sg50
F0.0
sg51
F0.0
sg52
F0.0
sg53
F0.0
sg54
S'30-27'
p1494
sg56
I00
sg57
F0.0
sg58
F0.0
ssg243
(dp1495
g5
F0.0
sg6
F0.0
sg7
(lp1496
(S'Martellus Bennett'
p1497
g37
tp1498
a(S'Jason Witten'
p1499
g37
tp1500
asg48
I00
sg49
F0.0
sg50
F0.0
sg51
F0.0
sg52
F0.0
sg53
F0.0
sg54
S'13-14'
p1501
sg56
I01
sg57
F0.0
sg58
F0.0
ssg279
(dp1502
g5
F26.0
sg6
F2.0
sg7
(lp1503
(S'Joe Webb'
p1504
g10
tp1505
a(S'Toby Gerhart'
p1506
g17
tp1507
a(S'Adrian Peterson'
p1508
g17
tp1509
a(S'Percy Harvin'
p1510
g26
tp1511
asg48
I00
sg49
F31.0
sg50
F195.0
sg51
F0.0
sg52
F0.0
sg53
F0.0
sg54
S'14-24'
p1512
sg56
I01
sg57
F161.0
sg58
F0.0
ssg315
(dp1513
g5
F31.0
sg6
F1.0
sg7
(lp1514
(S'Matt Flynn'
p1515
g10
tp1516
a(S'Aaron Rodgers'
p1517
g10
tp1518
a(S'John Kuhn'
p1519
g17
tp1520
a(S'Greg Jennings'
p1521
g26
tp1522
a(S'James Jones'
p1523
g26
tp1524
a(S'Jordy Nelson'
p1525
g26
tp1526
a(S'Andrew Quarless'
p1527
g37
tp1528
a(S'Mason Crosby'
p1529
g46
tp1530
asg48
I00
sg49
F7.0
sg50
F188.0
sg51
F2.0
sg52
F2.0
sg53
F2.0
sg54
S'20-27'
p1531
sg56
I01
sg57
F24.0
sg58
F0.0
ssg351
(dp1532
g5
F0.0
sg6
F0.0
sg7
(lp1533
(S'Rashad Jennings'
p1534
g17
tp1535
a(S'Marcedes Lewis'
p1536
g37
tp1537
a(S'Zach Miller'
p1538
g37
tp1539
a(S'Josh Scobee'
p1540
g46
tp1541
asg48
I01
sg49
F3.0
sg50
F0.0
sg51
F1.0
sg52
F0.0
sg53
F1.0
sg54
S'28-3'
p1542
sg56
I00
sg57
F19.0
sg58
F0.0
ssg387
(dp1543
g5
F45.0
sg6
F0.0
sg7
(lp1544
(S'Shaun Hill'
p1545
g10
tp1546
a(S'Matthew Stafford'
p1547
g10
tp1548
a(S'Drew Stanton'
p1549
g10
tp1550
a(S'Jerome Felton'
p1551
g17
tp1552
a(S'Brandon Pettigrew'
p1553
g37
tp1554
asg48
I01
sg49
F3.0
sg50
F335.0
sg51
F0.0
sg52
F2.0
sg53
F0.0
sg54
S'35-32'
p1555
sg56
I00
sg57
F16.0
sg58
F0.0
ssg425
(dp1556
g5
F39.0
sg6
F0.0
sg7
(lp1557
(S'Alex Smith'
p1558
g10
tp1559
a(S'Anthony Dixon'
p1560
g17
tp1561
a(S'Frank Gore'
p1562
g17
tp1563
a(S'Michael Crabtree'
p1564
g26
tp1565
a(S'Ted Ginn'
p1566
g26
tp1567
a(S'Kyle Williams'
p1568
g26
tp1569
a(S'Vernon Davis'
p1570
g37
tp1571
a(S'Delanie Walker'
p1572
g37
tp1573
asg48
I01
sg49
F21.0
sg50
F309.0
sg51
F0.0
sg52
F3.0
sg53
F0.0
sg54
S'27-24'
p1574
sg56
I00
sg57
F68.0
sg58
F0.0
ssg461
(dp1575
g5
F0.0
sg6
F0.0
sg7
(lp1576
(S'Darrel Young'
p1577
g17
tp1578
a(S'Logan Paulsen'
p1579
g37
tp1580
a(S'Graham Gano'
p1581
g46
tp1582
asg48
I00
sg49
F0.0
sg50
F0.0
sg51
F1.0
sg52
F0.0
sg53
F1.0
sg54
S'12-17'
p1583
sg56
I01
sg57
F0.0
sg58
F0.0
ssg497
(dp1584
g5
F0.0
sg6
F0.0
sg7
(lp1585
(S'Chris Johnson'
p1586
g17
tp1587
a(S'Kenny Britt'
p1588
g26
tp1589
a(S'Marc Mariani'
p1590
g26
tp1591
a(S'Nate Washington'
p1592
g26
tp1593
a(S'Jared Cook'
p1594
g37
tp1595
a(S'Craig Stevens'
p1596
g37
tp1597
asg48
I00
sg49
F24.0
sg50
F0.0
sg51
F0.0
sg52
F0.0
sg53
F0.0
sg54
S'19-37'
p1598
sg56
I00
sg57
F66.0
sg58
F0.0
ssg537
(dp1599
g5
F42.0
sg6
F0.0
sg7
(lp1600
(S'Matt Ryan'
p1601
g10
tp1602
a(S'Harry Douglas'
p1603
g26
tp1604
a(S'Eric Weems'
p1605
g26
tp1606
a(S'Roddy White'
p1607
g26
tp1608
a(S'Matt Bryant'
p1609
g46
tp1610
asg48
I01
sg49
F1.0
sg50
F250.0
sg51
F2.0
sg52
F2.0
sg53
F1.0
sg54
S'31-17'
p1611
sg56
I01
sg57
F3.0
sg58
F0.0
ssg573
(dp1612
g5
F0.0
sg6
F0.0
sg7
(lp1613
(S'Donald Brown'
p1614
g17
tp1615
a(S'Pierre Garcon'
p1616
g26
tp1617
a(S'Jacob Tamme'
p1618
g37
tp1619
a(S'Adam Vinatieri'
p1620
g46
tp1621
asg48
I01
sg49
F15.0
sg50
F0.0
sg51
F1.0
sg52
F0.0
sg53
F1.0
sg54
S'26-24'
p1622
sg56
I01
sg57
F50.0
sg58
F0.0
ssg615
(dp1623
g5
F0.0
sg6
F0.0
sg7
(lp1624
sg48
(lp1625
sg49
F0.0
sg50
F0.0
sg51
F0.0
sg52
F0.0
sg53
F0.0
sg54
(lp1626
sg56
(lp1627
sg57
F0.0
sg58
F0.0
sssS'2013'
p1628
(dp1629
g3
(dp1630
g5
F35.0
sg6
F0.0
sg7
(lp1631
(S'Kirk Cousins'
p1632
g10
tp1633
a(S'Robert Griffin III'
p1634
g10
tp1635
a(S'Roy Helu'
p1636
g17
tp1637
a(S'Alfred Morris'
p1638
g17
tp1639
a(S'Darrel Young'
p1640
g17
tp1641
a(S'Pierre Garcon'
p1642
g26
tp1643
a(S'Leonard Hankerson'
p1644
g26
tp1645
a(S'Aldrick Robinson'
p1646
g26
tp1647
a(S'Nick Williams'
p1648
g26
tp1649
a(S'Niles Paul'
p1650
g37
tp1651
a(S'Logan Paulsen'
p1652
g37
tp1653
a(S'Jordan Reed'
p1654
g37
tp1655
a(S'Kai Forbath'
p1656
g46
tp1657
asg48
I01
sg49
F38.0
sg50
F264.0
sg51
F0.0
sg52
F2.0
sg53
F0.0
sg54
S'24-16'
p1658
sg56
I01
sg57
F191.0
sg58
F0.0
ssg59
(dp1659
g5
F39.0
sg6
F0.0
sg7
(lp1660
(S'Aaron Rodgers'
p1661
g10
tp1662
a(S'Scott Tolzien'
p1663
g10
tp1664
a(S'John Kuhn'
p1665
g17
tp1666
a(S'Eddie Lacy'
p1667
g17
tp1668
a(S'James Starks'
p1669
g17
tp1670
a(S'Jarrett Boykin'
p1671
g26
tp1672
a(S'James Jones'
p1673
g26
tp1674
a(S'Jordy Nelson'
p1675
g26
tp1676
a(S'Myles White'
p1677
g26
tp1678
a(S'Brandon Bostick'
p1679
g37
tp1680
a(S'Andrew Quarless'
p1681
g37
tp1682
a(S'Jake Stoneburner'
p1683
g37
tp1684
a(S'Mason Crosby'
p1685
g46
tp1686
asg48
I01
sg49
F30.0
sg50
F280.0
sg51
F4.0
sg52
F1.0
sg53
F2.0
sg54
S'27-13'
p1687
sg56
I00
sg57
F99.0
sg58
F0.0
ssg95
(dp1688
g5
F41.0
sg6
F0.0
sg7
(lp1689
(S'Carson Palmer'
p1690
g10
tp1691
a(S'Drew Stanton'
p1692
g10
tp1693
a(S'Andre Ellington'
p1694
g17
tp1695
a(S'Stepfan Taylor'
p1696
g17
tp1697
a(S'Jaron Brown'
p1698
g26
tp1699
a(S'Larry Fitzgerald'
p1700
g26
tp1701
a(S'Michael Floyd'
p1702
g26
tp1703
a(S'Brittan Golden'
p1704
g26
tp1705
a(S'Andre Roberts'
p1706
g26
tp1707
a(S'Jim Dray'
p1708
g37
tp1709
a(S'Rob Housler'
p1710
g37
tp1711
asg48
I01
sg49
F4.0
sg50
F302.0
sg51
F0.0
sg52
F3.0
sg53
F0.0
sg54
S'24-21'
p1712
sg56
I01
sg57
F14.0
sg58
F0.0
ssg133
(dp1713
g5
F0.0
sg6
F0.0
sg7
(lp1714
sg48
(lp1715
sg49
F0.0
sg50
F0.0
sg51
F0.0
sg52
F0.0
sg53
F0.0
sg54
(lp1716
sg56
(lp1717
sg57
F0.0
sg58
F0.0
ssg165
(dp1718
g5
F35.0
sg6
F4.0
sg7
(lp1719
(S'Matt Cassel'
p1720
g10
tp1721
a(S'Josh Freeman'
p1722
g10
tp1723
a(S'Joe Webb'
p1724
g10
tp1725
a(S'Matt Asiata'
p1726
g17
tp1727
a(S'Joe Banyard'
p1728
g17
tp1729
a(S'Jerome Felton'
p1730
g17
tp1731
a(S'Toby Gerhart'
p1732
g17
tp1733
a(S'Adrian Peterson'
p1734
g17
tp1735
a(S'Greg Jennings'
p1736
g26
tp1737
a(S'Cordarrelle Patterson'
p1738
g26
tp1739
a(S'Jerome Simpson'
p1740
g26
tp1741
a(S'Rodney Smith'
p1742
g26
tp1743
a(S'Jarius Wright'
p1744
g26
tp1745
a(S'Rhett Ellison'
p1746
g37
tp1747
a(S'Blair Walsh'
p1748
g46
tp1749
asg48
I00
sg49
F35.0
sg50
F382.0
sg51
F3.0
sg52
F2.0
sg53
F2.0
sg54
S'30-48'
p1750
sg56
I00
sg57
F85.0
sg58
F0.0
ssg203
(dp1751
g5
F25.0
sg6
F0.0
sg7
(lp1752
(S'Shaun Hill'
p1753
g10
tp1754
a(S'Kellen Moore'
p1755
g10
tp1756
a(S'Matthew Stafford'
p1757
g10
tp1758
a(S'Reggie Bush'
p1759
g17
tp1760
a(S'Theo Riddick'
p1761
g17
tp1762
a(S'Jeremy Ross'
p1763
g26
tp1764
a(S'Dorin Dickerson'
p1765
g37
tp1766
a(S'Brandon Pettigrew'
p1767
g37
tp1768
asg48
I01
sg49
F10.0
sg50
F151.0
sg51
F0.0
sg52
F0.0
sg53
F0.0
sg54
S'34-20'
p1769
sg56
I01
sg57
F11.0
sg58
F0.0
ssg243
(dp1770
g5
F0.0
sg6
F0.0
sg7
(lp1771
(S'Tony Romo'
p1772
g10
tp1773
a(S'Tyler Clutts'
p1774
g17
tp1775
a(S'DeMarco Murray'
p1776
g17
tp1777
a(S'Cole Beasley'
p1778
g26
tp1779
a(S'Dez Bryant'
p1780
g26
tp1781
a(S'Dwayne Harris'
p1782
g26
tp1783
a(S'Terrance Williams'
p1784
g26
tp1785
a(S'Gavin Escobar'
p1786
g37
tp1787
a(S'James Hanna'
p1788
g37
tp1789
a(S'Jason Witten'
p1790
g37
tp1791
a(S'Dan Bailey'
p1792
g46
tp1793
asg48
I01
sg49
F17.0
sg50
F0.0
sg51
F3.0
sg52
F0.0
sg53
F3.0
sg54
S'24-22'
p1794
sg56
I00
sg57
F48.0
sg58
F0.0
ssg279
(dp1795
g5
F39.0
sg6
F0.0
sg7
(lp1796
(S'Jay Cutler'
p1797
g10
tp1798
a(S'Josh McCown'
p1799
g10
tp1800
a(S'Matt Forte'
p1801
g17
tp1802
a(S'Devin Hester'
p1803
g26
tp1804
a(S'Alshon Jeffery'
p1805
g26
tp1806
a(S'Brandon Marshall'
p1807
g26
tp1808
a(S'Eric Weems'
p1809
g26
tp1810
a(S'Marquess Wilson'
p1811
g26
tp1812
a(S'Martellus Bennett'
p1813
g37
tp1814
a(S'Robbie Gould'
p1815
g46
tp1816
asg48
I01
sg49
F12.0
sg50
F242.0
sg51
F1.0
sg52
F1.0
sg53
F1.0
sg54
S'54-11'
p1817
sg56
I01
sg57
F41.0
sg58
F0.0
ssg315
(dp1818
g5
F49.0
sg6
F1.0
sg7
(lp1819
(S'Kirk Cousins'
p1820
g10
tp1821
a(S'Robert Griffin III'
p1822
g10
tp1823
a(S'Roy Helu'
p1824
g17
tp1825
a(S'Alfred Morris'
p1826
g17
tp1827
a(S'Chris Thompson'
p1828
g17
tp1829
a(S'Darrel Young'
p1830
g17
tp1831
a(S'Pierre Garcon'
p1832
g26
tp1833
a(S'Leonard Hankerson'
p1834
g26
tp1835
a(S'Aldrick Robinson'
p1836
g26
tp1837
a(S'Niles Paul'
p1838
g37
tp1839
a(S'Logan Paulsen'
p1840
g37
tp1841
a(S'Jordan Reed'
p1842
g37
tp1843
a(S'Kai Forbath'
p1844
g46
tp1845
asg48
I01
sg49
F18.0
sg50
F329.0
sg51
F1.0
sg52
F2.0
sg53
F0.0
sg54
S'33-27'
p1846
sg56
I00
sg57
F74.0
sg58
F0.0
ssg351
(dp1847
g5
F35.0
sg6
F1.0
sg7
(lp1848
(S'Tyler Bray'
p1849
g10
tp1850
a(S'Chase Daniel'
p1851
g10
tp1852
a(S'Alex Smith'
p1853
g10
tp1854
a(S'Jamaal Charles'
p1855
g17
tp1856
a(S'Knile Davis'
p1857
g17
tp1858
a(S'Cyrus Gray'
p1859
g17
tp1860
a(S'Dexter McCluster'
p1861
g17
tp1862
a(S'Anthony Sherman'
p1863
g17
tp1864
a(S'Dwayne Bowe'
p1865
g26
tp1866
a(S'Anthony Fasano'
p1867
g37
tp1868
a(S'Travis Kelce'
p1869
g37
tp1870
a(S'Sean McGrath'
p1871
g37
tp1872
a(S'Ryan Succop'
p1873
g46
tp1874
asg48
I00
sg49
F38.0
sg50
F273.0
sg51
F5.0
sg52
F0.0
sg53
F4.0
sg54
S'16-26'
p1875
sg56
I01
sg57
F146.0
sg58
F0.0
ssg387
(dp1876
g5
F47.0
sg6
F0.0
sg7
(lp1877
(S'Philip Rivers'
p1878
g10
tp1879
a(S'Ryan Mathews'
p1880
g17
tp1881
a(S'Fozzy Whittaker'
p1882
g17
tp1883
a(S'Danny Woodhead'
p1884
g17
tp1885
a(S'Seyi Ajirotutu'
p1886
g26
tp1887
a(S'Keenan Allen'
p1888
g26
tp1889
a(S'Vincent Brown'
p1890
g26
tp1891
a(S'Malcom Floyd'
p1892
g26
tp1893
a(S'Eddie Royal'
p1894
g26
tp1895
a(S'Antonio Gates'
p1896
g37
tp1897
a(S'Ladarius Green'
p1898
g37
tp1899
a(S'John Phillips'
p1900
g37
tp1901
a(S'Nick Novak'
p1902
g46
tp1903
asg48
I00
sg49
F28.0
sg50
F419.0
sg51
F4.0
sg52
F3.0
sg53
F4.0
sg54
S'30-33'
p1904
sg56
I01
sg57
F111.0
sg58
F0.0
ssg425
(dp1905
g5
F52.0
sg6
F0.0
sg7
(lp1906
(S'Eli Manning'
p1907
g10
tp1908
a(S'Ryan Nassib'
p1909
g10
tp1910
a(S'Victor Cruz'
p1911
g26
tp1912
a(S'Louis Murphy'
p1913
g26
tp1914
a(S'Hakeem Nicks'
p1915
g26
tp1916
a(S'Rueben Randle'
p1917
g26
tp1918
a(S'Larry Donnell'
p1919
g37
tp1920
a(S'Brandon Myers'
p1921
g37
tp1922
a(S'Bear Pascoe'
p1923
g37
tp1924
a(S'Josh Brown'
p1925
g46
tp1926
asg48
I01
sg49
F0.0
sg50
F334.0
sg51
F0.0
sg52
F2.0
sg53
F0.0
sg54
S'36-21'
p1927
sg56
I00
sg57
F0.0
sg58
F0.0
ssg461
(dp1928
g5
F3.0
sg6
F0.0
sg7
(lp1929
(S'Zac Dysert'
p1930
g10
tp1931
a(S'Brock Osweiler'
p1932
g10
tp1933
a(S'C.J. Anderson'
p1934
g17
tp1935
a(S'Ronnie Hillman'
p1936
g17
tp1937
a(S'Andre Caldwell'
p1938
g26
tp1939
a(S'Eric Decker'
p1940
g26
tp1941
a(S'Demaryius Thomas'
p1942
g26
tp1943
a(S'Wes Welker'
p1944
g26
tp1945
a(S'Virgil Green'
p1946
g37
tp1947
a(S'Jacob Tamme'
p1948
g37
tp1949
a(S'Julius Thomas'
p1950
g37
tp1951
a(S'Matt Prater'
p1952
g46
tp1953
asg48
I00
sg49
F13.0
sg50
F10.0
sg51
F1.0
sg52
F0.0
sg53
F1.0
sg54
S'20-52'
p1954
sg56
I00
sg57
F39.0
sg58
F0.0
ssg497
(dp1955
g5
F47.0
sg6
F0.0
sg7
(lp1956
(S'Tony Romo'
p1957
g10
tp1958
a(S'Lance Dunbar'
p1959
g17
tp1960
a(S'DeMarco Murray'
p1961
g17
tp1962
a(S'Cole Beasley'
p1963
g26
tp1964
a(S'Dez Bryant'
p1965
g26
tp1966
a(S'Dwayne Harris'
p1967
g26
tp1968
a(S'Terrance Williams'
p1969
g26
tp1970
a(S'Gavin Escobar'
p1971
g37
tp1972
a(S'James Hanna'
p1973
g37
tp1974
a(S'Jason Witten'
p1975
g37
tp1976
a(S'Dan Bailey'
p1977
g46
tp1978
asg48
I00
sg49
F5.0
sg50
F317.0
sg51
F1.0
sg52
F1.0
sg53
F1.0
sg54
S'3-17'
p1979
sg56
I01
sg57
F8.0
sg58
F0.0
ssg537
(dp1980
g5
F43.0
sg6
F0.0
sg7
(lp1981
(S'Mike Glennon'
p1982
g10
tp1983
a(S'Dan Orlovsky'
p1984
g10
tp1985
a(S'Mike James'
p1986
g17
tp1987
a(S'Doug Martin'
p1988
g17
tp1989
a(S'Vincent Jackson'
p1990
g26
tp1991
a(S'Chris Owusu'
p1992
g26
tp1993
a(S'Russell Shepard'
p1994
g26
tp1995
a(S'Mike Williams'
p1996
g26
tp1997
a(S'Timothy Wright'
p1998
g37
tp1999
asg48
I01
sg49
F21.0
sg50
F273.0
sg51
F0.0
sg52
F2.0
sg53
F0.0
sg54
S'31-20'
p2000
sg56
I00
sg57
F94.0
sg58
F0.0
ssg573
(dp2001
g5
F15.0
sg6
F1.0
sg7
(lp2002
(S'Matt McGloin'
p2003
g10
tp2004
a(S'Rashad Jennings'
p2005
g17
tp2006
a(S'Taiwan Jones'
p2007
g17
tp2008
a(S'Darren McFadden'
p2009
g17
tp2010
a(S'Jamize Olawale'
p2011
g17
tp2012
a(S'Marcel Reece'
p2013
g17
tp2014
a(S'Brice Butler'
p2015
g26
tp2016
a(S'Andre Holmes'
p2017
g26
tp2018
a(S'Terrelle Pryor'
p2019
g26
tp2020
a(S'Rod Streater'
p2021
g26
tp2022
a(S'Mychal Rivera'
p2023
g37
tp2024
a(S'Sebastian Janikowski'
p2025
g46
tp2026
asg48
I01
sg49
F31.0
sg50
F87.0
sg51
F2.0
sg52
F0.0
sg53
F2.0
sg54
S'49-20'
p2027
sg56
I00
sg57
F208.0
sg58
F0.0
ssg615
(dp2028
g5
F39.0
sg6
F0.0
sg7
(lp2029
(S'Eli Manning'
p2030
g10
tp2031
a(S'Ryan Nassib'
p2032
g10
tp2033
a(S'Victor Cruz'
p2034
g26
tp2035
a(S'Louis Murphy'
p2036
g26
tp2037
a(S'Hakeem Nicks'
p2038
g26
tp2039
a(S'Rueben Randle'
p2040
g26
tp2041
a(S'Larry Donnell'
p2042
g37
tp2043
a(S'Brandon Myers'
p2044
g37
tp2045
a(S'Bear Pascoe'
p2046
g37
tp2047
a(S'Josh Brown'
p2048
g46
tp2049
asg48
I00
sg49
F1.0
sg50
F246.0
sg51
F5.0
sg52
F0.0
sg53
F5.0
sg54
S'7-15'
p2050
sg56
I01
sg57
F-1.0
sg58
F0.0
sssS'2012'
p2051
(dp2052
g3
(dp2053
g5
F15.0
sg6
F0.0
sg7
(lp2054
(S'Kirk Cousins'
p2055
g10
tp2056
a(S'Robert Griffin III'
p2057
g10
tp2058
a(S'Alfred Morris'
p2059
g17
tp2060
a(S'Darrel Young'
p2061
g17
tp2062
a(S'Pierre Garcon'
p2063
g26
tp2064
a(S'Leonard Hankerson'
p2065
g26
tp2066
a(S'Aldrick Robinson'
p2067
g26
tp2068
a(S'Niles Paul'
p2069
g37
tp2070
a(S'Logan Paulsen'
p2071
g37
tp2072
a(S'Kai Forbath'
p2073
g46
tp2074
asg48
I00
sg49
F32.0
sg50
F200.0
sg51
F1.0
sg52
F4.0
sg53
F1.0
sg54
S'6-31'
p2075
sg56
I00
sg57
F160.0
sg58
F0.0
ssg59
(dp2076
g5
F26.0
sg6
F0.0
sg7
(lp2077
(S'Tony Romo'
p2078
g10
tp2079
a(S'Lance Dunbar'
p2080
g17
tp2081
a(S'DeMarco Murray'
p2082
g17
tp2083
a(S'Cole Beasley'
p2084
g26
tp2085
a(S'Dez Bryant'
p2086
g26
tp2087
a(S'Dwayne Harris'
p2088
g26
tp2089
a(S'Andre Holmes'
p2090
g26
tp2091
a(S'James Hanna'
p2092
g37
tp2093
a(S'John Phillips'
p2094
g37
tp2095
a(S'Jason Witten'
p2096
g37
tp2097
a(S'Dan Bailey'
p2098
g46
tp2099
asg48
I00
sg49
F7.0
sg50
F209.0
sg51
F1.0
sg52
F2.0
sg53
F1.0
sg54
S'23-38'
p2100
sg56
I01
sg57
F19.0
sg58
F0.0
ssg95
(dp2101
g5
F27.0
sg6
F1.0
sg7
(lp2102
(S'Tony Romo'
p2103
g10
tp2104
a(S'Lance Dunbar'
p2105
g17
tp2106
a(S'DeMarco Murray'
p2107
g17
tp2108
a(S'Cole Beasley'
p2109
g26
tp2110
a(S'Dez Bryant'
p2111
g26
tp2112
a(S'Dwayne Harris'
p2113
g26
tp2114
a(S'James Hanna'
p2115
g37
tp2116
a(S'John Phillips'
p2117
g37
tp2118
a(S'Jason Witten'
p2119
g37
tp2120
a(S'Dan Bailey'
p2121
g46
tp2122
asg48
I00
sg49
F26.0
sg50
F303.0
sg51
F1.0
sg52
F3.0
sg53
F1.0
sg54
S'33-38'
p2123
sg56
I00
sg57
F97.0
sg58
F0.0
ssg133
(dp2124
g5
F28.0
sg6
F2.0
sg7
(lp2125
(S'Derek Anderson'
p2126
g10
tp2127
a(S'Jimmy Clausen'
p2128
g10
tp2129
a(S'Cam Newton'
p2130
g10
tp2131
a(S'Jonathan Stewart'
p2132
g17
tp2133
a(S'Mike Tolbert'
p2134
g17
tp2135
a(S'DeAngelo Williams'
p2136
g17
tp2137
a(S'Brandon LaFell'
p2138
g26
tp2139
a(S'Louis Murphy'
p2140
g26
tp2141
a(S'Steve Smith'
p2142
g26
tp2143
a(S'Gary Barnidge'
p2144
g37
tp2145
a(S'Greg Olsen'
p2146
g37
tp2147
a(S'Graham Gano'
p2148
g46
tp2149
asg48
I00
sg49
F35.0
sg50
F306.0
sg51
F1.0
sg52
F2.0
sg53
F1.0
sg54
S'22-30'
p2150
sg56
I01
sg57
F109.0
sg58
F0.0
ssg165
(dp2151
g5
F27.0
sg6
F1.0
sg7
(lp2152
(S'Andy Dalton'
p2153
g10
tp2154
a(S'Bruce Gradkowski'
p2155
g10
tp2156
a(S'Dan Herron'
p2157
g17
tp2158
a(S'Cedric Peerman'
p2159
g17
tp2160
a(S'A.J. Green'
p2161
g26
tp2162
a(S'Andrew Hawkins'
p2163
g26
tp2164
a(S'Marvin Jones'
p2165
g26
tp2166
a(S'Brandon Tate'
p2167
g26
tp2168
a(S'Orson Charles'
p2169
g37
tp2170
a(S'Jermaine Gresham'
p2171
g37
tp2172
a(S'Josh Brown'
p2173
g46
tp2174
a(S'Mike Nugent'
p2175
g46
tp2176
asg48
I00
sg49
F14.0
sg50
F127.0
sg51
F2.0
sg52
F1.0
sg53
F2.0
sg54
S'13-34'
p2177
sg56
I01
sg57
F45.0
sg58
F0.0
ssg203
(dp2178
g5
F34.0
sg6
F1.0
sg7
(lp2179
(S'Josh Freeman'
p2180
g10
tp2181
a(S'Dan Orlovsky'
p2182
g10
tp2183
a(S'LeGarrette Blount'
p2184
g17
tp2185
a(S'Doug Martin'
p2186
g17
tp2187
a(S'Vincent Jackson'
p2188
g26
tp2189
a(S'Chris Owusu'
p2190
g26
tp2191
a(S'Mike Williams'
p2192
g26
tp2193
a(S'Luke Stocker'
p2194
g37
tp2195
a(S'Connor Barth'
p2196
g46
tp2197
asg48
I01
sg49
F31.0
sg50
F189.0
sg51
F0.0
sg52
F2.0
sg53
F0.0
sg54
S'23-21'
p2198
sg56
I00
sg57
F143.0
sg58
F0.0
ssg243
(dp2199
g5
F21.0
sg6
F1.0
sg7
(lp2200
(S'Eli Manning'
p2201
g10
tp2202
a(S'Ahmad Bradshaw'
p2203
g17
tp2204
a(S'Victor Cruz'
p2205
g26
tp2206
a(S'Hakeem Nicks'
p2207
g26
tp2208
a(S'Rueben Randle'
p2209
g26
tp2210
a(S'Martellus Bennett'
p2211
g37
tp2212
a(S'Bear Pascoe'
p2213
g37
tp2214
asg48
I00
sg49
F16.0
sg50
F208.0
sg51
F0.0
sg52
F5.0
sg53
F0.0
sg54
S'7-42'
p2215
sg56
I00
sg57
F107.0
sg58
F0.0
ssg279
(dp2216
g5
F24.0
sg6
F1.0
sg7
(lp2217
(S'Kirk Cousins'
p2218
g10
tp2219
a(S'Robert Griffin III'
p2220
g10
tp2221
a(S'Alfred Morris'
p2222
g17
tp2223
a(S'Darrel Young'
p2224
g17
tp2225
a(S'Pierre Garcon'
p2226
g26
tp2227
a(S'Leonard Hankerson'
p2228
g26
tp2229
a(S'Aldrick Robinson'
p2230
g26
tp2231
a(S'Niles Paul'
p2232
g37
tp2233
a(S'Logan Paulsen'
p2234
g37
tp2235
a(S'Kai Forbath'
p2236
g46
tp2237
asg48
I00
sg49
F24.0
sg50
F198.0
sg51
F2.0
sg52
F2.0
sg53
F2.0
sg54
S'20-27'
p2238
sg56
I01
sg57
F95.0
sg58
F0.0
ssg315
(dp2239
g5
F35.0
sg6
F0.0
sg7
(lp2240
(S'Thad Lewis'
p2241
g10
tp2242
a(S'Colt McCoy'
p2243
g10
tp2244
a(S'Brandon Weeden'
p2245
g10
tp2246
a(S'Trent Richardson'
p2247
g17
tp2248
a(S'Travis Benjamin'
p2249
g26
tp2250
a(S'Josh Gordon'
p2251
g26
tp2252
a(S'Greg Little'
p2253
g26
tp2254
a(S'Jordan Norwood'
p2255
g26
tp2256
a(S'Jordan Cameron'
p2257
g37
tp2258
a(S'Alex Smith'
p2259
g37
tp2260
a(S'Benjamin Watson'
p2261
g37
tp2262
a(S'Phil Dawson'
p2263
g46
tp2264
asg48
I01
sg49
F22.0
sg50
F118.0
sg51
F3.0
sg52
F0.0
sg53
F3.0
sg54
S'17-16'
p2265
sg56
I00
sg57
F99.0
sg58
F0.0
ssg351
(dp2266
g5
F0.0
sg6
F0.0
sg7
(lp2267
(S'Anthony Sherman'
p2268
g17
tp2269
a(S'LaRon Byrd'
p2270
g26
tp2271
a(S'Larry Fitzgerald'
p2272
g26
tp2273
a(S'Michael Floyd'
p2274
g26
tp2275
a(S'Andre Roberts'
p2276
g26
tp2277
a(S'Jim Dray'
p2278
g37
tp2279
a(S'Rob Housler'
p2280
g37
tp2281
asg48
I00
sg49
F0.0
sg50
F0.0
sg51
F0.0
sg52
F0.0
sg53
F0.0
sg54
S'6-27'
p2282
sg56
I00
sg57
F0.0
sg58
F0.0
ssg387
(dp2283
g5
F42.0
sg6
F0.0
sg7
(lp2284
(S'Joe Flacco'
p2285
g10
tp2286
a(S'Tyrod Taylor'
p2287
g10
tp2288
a(S'Bernard Pierce'
p2289
g17
tp2290
a(S'Anquan Boldin'
p2291
g26
tp2292
a(S'Torrey Smith'
p2293
g26
tp2294
a(S'Deonte Thompson'
p2295
g26
tp2296
a(S'Ed Dickson'
p2297
g37
tp2298
a(S'Dennis Pitta'
p2299
g37
tp2300
a(S'Justin Tucker'
p2301
g46
tp2302
asg48
I01
sg49
F3.0
sg50
F232.0
sg51
F3.0
sg52
F1.0
sg53
F3.0
sg54
S'24-23'
p2303
sg56
I01
sg57
F4.0
sg58
F0.0
ssg425
(dp2304
g5
F38.0
sg6
F0.0
sg7
(lp2305
(S'Ben Roethlisberger'
p2306
g10
tp2307
a(S'Will Johnson'
p2308
g17
tp2309
a(S'Antonio Brown'
p2310
g26
tp2311
a(S'Jerricho Cotchery'
p2312
g26
tp2313
a(S'Emmanuel Sanders'
p2314
g26
tp2315
a(S'Mike Wallace'
p2316
g26
tp2317
a(S'Shaun Suisham'
p2318
g46
tp2319
asg48
I00
sg49
F3.0
sg50
F220.0
sg51
F3.0
sg52
F1.0
sg53
F3.0
sg54
S'14-16'
p2320
sg56
I00
sg57
F14.0
sg58
F0.0
ssg461
(dp2321
g5
F42.0
sg6
F0.0
sg7
(lp2322
(S'Eli Manning'
p2323
g10
tp2324
a(S'Ahmad Bradshaw'
p2325
g17
tp2326
a(S'Victor Cruz'
p2327
g26
tp2328
a(S'Hakeem Nicks'
p2329
g26
tp2330
a(S'Rueben Randle'
p2331
g26
tp2332
a(S'Martellus Bennett'
p2333
g37
tp2334
a(S'Bear Pascoe'
p2335
g37
tp2336
asg48
I01
sg49
F13.0
sg50
F309.0
sg51
F0.0
sg52
F2.0
sg53
F0.0
sg54
S'19-17'
p2337
sg56
I01
sg57
F39.0
sg58
F0.0
ssg497
(dp2338
g5
F0.0
sg6
F0.0
sg7
(lp2339
sg48
(lp2340
sg49
F0.0
sg50
F0.0
sg51
F0.0
sg52
F0.0
sg53
F0.0
sg54
(lp2341
sg56
(lp2342
sg57
F0.0
sg58
F0.0
ssg537
(dp2343
g5
F45.0
sg6
F1.0
sg7
(lp2344
(S'Shaun Hill'
p2345
g10
tp2346
a(S'Kellen Moore'
p2347
g10
tp2348
a(S'Matthew Stafford'
p2349
g10
tp2350
a(S'Brandon Pettigrew'
p2351
g37
tp2352
asg48
I00
sg49
F3.0
sg50
F311.0
sg51
F0.0
sg52
F1.0
sg53
F0.0
sg54
S'23-26'
p2353
sg56
I01
sg57
F7.0
sg58
F0.0
ssg573
(dp2354
g5
F27.0
sg6
F1.0
sg7
(lp2355
(S'Drew Brees'
p2356
g10
tp2357
a(S'Chase Daniel'
p2358
g10
tp2359
a(S'Travaris Cadet'
p2360
g17
tp2361
a(S'Mark Ingram'
p2362
g17
tp2363
a(S'Chris Ivory'
p2364
g17
tp2365
a(S'Darren Sproles'
p2366
g17
tp2367
a(S'Pierre Thomas'
p2368
g17
tp2369
a(S'Marques Colston'
p2370
g26
tp2371
a(S'Lance Moore'
p2372
g26
tp2373
a(S'Jimmy Graham'
p2374
g37
tp2375
asg48
I00
sg49
F25.0
sg50
F239.0
sg51
F0.0
sg52
F2.0
sg53
F0.0
sg54
S'13-28'
p2376
sg56
I00
sg57
F140.0
sg58
F0.0
ssg615
(dp2377
g5
F29.0
sg6
F0.0
sg7
(lp2378
(S'Luke McCown'
p2379
g10
tp2380
a(S'Matt Ryan'
p2381
g10
tp2382
a(S'Jacquizz Rodgers'
p2383
g17
tp2384
a(S'Harry Douglas'
p2385
g26
tp2386
a(S'Julio Jones'
p2387
g26
tp2388
a(S'Roddy White'
p2389
g26
tp2390
a(S'Matt Bryant'
p2391
g46
tp2392
asg48
I00
sg49
F12.0
sg50
F262.0
sg51
F3.0
sg52
F3.0
sg53
F3.0
sg54
S'17-30'
p2393
sg56
I01
sg57
F87.0
sg58
F0.0
sss.