(dp0
S'2015'
p1
(dp2
S'11'
p3
(dp4
S'PassAtt'
p5
F25.0
sS'RushTD'
p6
F2.0
sS'Players'
p7
(lp8
(S'Chase Daniel'
p9
S'QB'
p10
tp11
a(S'Aaron Murray'
p12
g10
tp13
a(S'Alex Smith'
p14
g10
tp15
a(S'Knile Davis'
p16
S'RB'
p17
tp18
a(S'Anthony Sherman'
p19
g17
tp20
a(S'Spencer Ware'
p21
g17
tp22
a(S'Charcandrick West'
p23
g17
tp24
a(S'Jason Avant'
p25
S'WR'
p26
tp27
a(S'Chris Conley'
p28
g26
tp29
a(S'Saalim Hakim'
p30
g26
tp31
a(S'Jeremy Maclin'
p32
g26
tp33
a(S"De'Anthony Thomas"
p34
g26
tp35
a(S'Albert Wilson'
p36
g26
tp37
a(S'Demetrius Harris'
p38
S'TE'
p39
tp40
a(S'Travis Kelce'
p41
g39
tp42
a(S'Brian Parker'
p43
g39
tp44
a(S'Cairo Santos'
p45
S'K'
p46
tp47
asS'Won'
p48
I00
sS'RushAtt'
p49
F30.0
sS'PassYds'
p50
F253.0
sS'FGAtt'
p51
F2.0
sS'PassTD'
p52
F0.0
sS'FGM'
p53
F2.0
sS'Score'
p54
S'3-33'
p55
sS'Home'
p56
I01
sS'RushYds'
p57
F152.0
sS'FGBlk'
p58
F0.0
ssS'10'
p59
(dp60
g5
F0.0
sg6
F0.0
sg7
(lp61
sg48
(lp62
sg49
F0.0
sg50
F0.0
sg51
F0.0
sg52
F0.0
sg53
F0.0
sg54
(lp63
sg56
(lp64
sg57
F0.0
sg58
F0.0
ssS'13'
p65
(dp66
g5
F26.0
sg6
F0.0
sg7
(lp67
(S'Dan LeFevour'
p68
g10
tp69
a(S'Brock Osweiler'
p70
g10
tp71
a(S'Trevor Siemian'
p72
g10
tp73
a(S'C.J. Anderson'
p74
g17
tp75
a(S'Ronnie Hillman'
p76
g17
tp77
a(S'Juwan Thompson'
p78
g17
tp79
a(S'Andre Caldwell'
p80
g26
tp81
a(S'Bennie Fowler'
p82
g26
tp83
a(S'Cody Latimer'
p84
g26
tp85
a(S'Jordan Norwood'
p86
g26
tp87
a(S'Emmanuel Sanders'
p88
g26
tp89
a(S'Demaryius Thomas'
p90
g26
tp91
a(S'Owen Daniels'
p92
g39
tp93
a(S'Vernon Davis'
p94
g39
tp95
a(S'Virgil Green'
p96
g39
tp97
a(S'Brandon McManus'
p98
g46
tp99
asg48
I00
sg49
F39.0
sg50
F166.0
sg51
F2.0
sg52
F1.0
sg53
F1.0
sg54
S'3-17'
p100
sg56
I01
sg57
F134.0
sg58
F0.0
ssS'12'
p101
(dp102
g5
F49.0
sg6
F0.0
sg7
(lp103
(S'Blake Bortles'
p104
g10
tp105
a(S'Chad Henne'
p106
g10
tp107
a(S'Joe Banyard'
p108
g17
tp109
a(S'Toby Gerhart'
p110
g17
tp111
a(S'Bernard Pierce'
p112
g17
tp113
a(S'Denard Robinson'
p114
g17
tp115
a(S'T.J. Yeldon'
p116
g17
tp117
a(S'Rashad Greene'
p118
g26
tp119
a(S'Allen Hurns'
p120
g26
tp121
a(S'Marqise Lee'
p122
g26
tp123
a(S'Allen Robinson'
p124
g26
tp125
a(S'Neal Sterling'
p126
g26
tp127
a(S'Bryan Walters'
p128
g26
tp129
a(S'Clay Harbor'
p130
g39
tp131
a(S'Nic Jacobs'
p132
g39
tp133
a(S'Marcedes Lewis'
p134
g39
tp135
a(S'Julius Thomas'
p136
g39
tp137
a(S'Jason Myers'
p138
g46
tp139
asg48
I01
sg49
F19.0
sg50
F329.0
sg51
F4.0
sg52
F2.0
sg53
F4.0
sg54
S'31-25'
p140
sg56
I00
sg57
F102.0
sg58
F0.0
ssS'15'
p141
(dp142
g5
F34.0
sg6
F2.0
sg7
(lp143
(S'Matt Moore'
p144
g10
tp145
a(S'Ryan Tannehill'
p146
g10
tp147
a(S'Logan Thomas'
p148
g10
tp149
a(S'Jay Ajayi'
p150
g17
tp151
a(S'Lamar Miller'
p152
g17
tp153
a(S'Damien Williams'
p154
g17
tp155
a(S'Matt Hazel'
p156
g26
tp157
a(S'Greg Jennings'
p158
g26
tp159
a(S'Jarvis Landry'
p160
g26
tp161
a(S'Rishard Matthews'
p162
g26
tp163
a(S'DeVante Parker'
p164
g26
tp165
a(S'Kenny Stills'
p166
g26
tp167
a(S'Jordan Cameron'
p168
g39
tp169
a(S'Dion Sims'
p170
g39
tp171
a(S'Jake Stoneburner'
p172
g39
tp173
a(S'Andrew Franks'
p174
g46
tp175
asg48
I01
sg49
F19.0
sg50
F216.0
sg51
F0.0
sg52
F0.0
sg53
F0.0
sg54
S'30-14'
p176
sg56
I01
sg57
F44.0
sg58
F0.0
ssS'14'
p177
(dp178
g5
F23.0
sg6
F0.0
sg7
(lp179
(S'Chase Daniel'
p180
g10
tp181
a(S'Aaron Murray'
p182
g10
tp183
a(S'Alex Smith'
p184
g10
tp185
a(S'Knile Davis'
p186
g17
tp187
a(S'Anthony Sherman'
p188
g17
tp189
a(S'Spencer Ware'
p190
g17
tp191
a(S'Charcandrick West'
p192
g17
tp193
a(S'Jason Avant'
p194
g26
tp195
a(S'Chris Conley'
p196
g26
tp197
a(S'Frankie Hammond'
p198
g26
tp199
a(S'Jeremy Maclin'
p200
g26
tp201
a(S"De'Anthony Thomas"
p202
g26
tp203
a(S'Albert Wilson'
p204
g26
tp205
a(S'Demetrius Harris'
p206
g39
tp207
a(S'Travis Kelce'
p208
g39
tp209
a(S'Brian Parker'
p210
g39
tp211
a(S'Cairo Santos'
p212
g46
tp213
asg48
I00
sg49
F25.0
sg50
F191.0
sg51
F2.0
sg52
F1.0
sg53
F1.0
sg54
S'3-10'
p214
sg56
I00
sg57
F150.0
sg58
F0.0
ssS'17'
p215
(dp216
g5
F22.0
sg6
F2.0
sg7
(lp217
(S'Brock Osweiler'
p218
g10
tp219
a(S'Trevor Siemian'
p220
g10
tp221
a(S'C.J. Anderson'
p222
g17
tp223
a(S'Ronnie Hillman'
p224
g17
tp225
a(S'Juwan Thompson'
p226
g17
tp227
a(S'Andre Caldwell'
p228
g26
tp229
a(S'Bennie Fowler'
p230
g26
tp231
a(S'Cody Latimer'
p232
g26
tp233
a(S'Jordan Norwood'
p234
g26
tp235
a(S'Emmanuel Sanders'
p236
g26
tp237
a(S'Demaryius Thomas'
p238
g26
tp239
a(S'Owen Daniels'
p240
g39
tp241
a(S'Vernon Davis'
p242
g39
tp243
a(S'Virgil Green'
p244
g39
tp245
a(S'Brandon McManus'
p246
g46
tp247
asg48
I00
sg49
F30.0
sg50
F232.0
sg51
F2.0
sg52
F1.0
sg53
F2.0
sg54
S'20-27'
p248
sg56
I00
sg57
F212.0
sg58
F0.0
ssS'16'
p249
(dp250
g5
F38.0
sg6
F1.0
sg7
(lp251
(S'Derek Carr'
p252
g10
tp253
a(S'Matt McGloin'
p254
g10
tp255
a(S'Roy Helu'
p256
g17
tp257
a(S'Taiwan Jones'
p258
g17
tp259
a(S'Latavius Murray'
p260
g17
tp261
a(S'Jamize Olawale'
p262
g17
tp263
a(S'Marcel Reece'
p264
g17
tp265
a(S'Amari Cooper'
p266
g26
tp267
a(S'Michael Crabtree'
p268
g26
tp269
a(S'Andre Holmes'
p270
g26
tp271
a(S'Seth Roberts'
p272
g26
tp273
a(S'Jeremy Ross'
p274
g26
tp275
a(S'Rod Streater'
p276
g26
tp277
a(S'Gabe Holmes'
p278
g39
tp279
a(S'Mychal Rivera'
p280
g39
tp281
a(S'Lee Smith'
p282
g39
tp283
a(S'Clive Walford'
p284
g39
tp285
a(S'Sebastian Janikowski'
p286
g46
tp287
asg48
I00
sg49
F23.0
sg50
F204.0
sg51
F2.0
sg52
F1.0
sg53
F2.0
sg54
S'20-23'
p288
sg56
I00
sg57
F109.0
sg58
F0.0
ssS'1'
p289
(dp290
g5
F30.0
sg6
F1.0
sg7
(lp291
(S'Dan Orlovsky'
p292
g10
tp293
a(S'Matthew Stafford'
p294
g10
tp295
a(S'Ameer Abdullah'
p296
g17
tp297
a(S'Michael Burton'
p298
g17
tp299
a(S'Theo Riddick'
p300
g17
tp301
a(S'Zach Zenner'
p302
g17
tp303
a(S'Corey Fuller'
p304
g26
tp305
a(S'T.J. Jones'
p306
g26
tp307
a(S'Lance Moore'
p308
g26
tp309
a(S'Golden Tate'
p310
g26
tp311
a(S'Eric Ebron'
p312
g39
tp313
a(S'Brandon Pettigrew'
p314
g39
tp315
a(S'Timothy Wright'
p316
g39
tp317
a(S'Matt Prater'
p318
g46
tp319
asg48
I01
sg49
F10.0
sg50
F246.0
sg51
F0.0
sg52
F2.0
sg53
F0.0
sg54
S'33-28'
p320
sg56
I01
sg57
F55.0
sg58
F0.0
ssS'3'
p321
(dp322
g5
F24.0
sg6
F3.0
sg7
(lp323
(S'Teddy Bridgewater'
p324
g10
tp325
a(S'Taylor Heinicke'
p326
g10
tp327
a(S'Shaun Hill'
p328
g10
tp329
a(S'Matt Asiata'
p330
g17
tp331
a(S'Zach Line'
p332
g17
tp333
a(S'Jerick McKinnon'
p334
g17
tp335
a(S'Adrian Peterson'
p336
g17
tp337
a(S'Stefon Diggs'
p338
g26
tp339
a(S'Charles Johnson'
p340
g26
tp341
a(S'Cordarrelle Patterson'
p342
g26
tp343
a(S'Adam Thielen'
p344
g26
tp345
a(S'Mike Wallace'
p346
g26
tp347
a(S'Mike Williams'
p348
g26
tp349
a(S'Jarius Wright'
p350
g26
tp351
a(S'Rhett Ellison'
p352
g39
tp353
a(S'MyCole Pruitt'
p354
g39
tp355
a(S'Kyle Rudolph'
p356
g39
tp357
a(S'Blair Walsh'
p358
g46
tp359
asg48
I00
sg49
F31.0
sg50
F121.0
sg51
F1.0
sg52
F0.0
sg53
F1.0
sg54
S'14-31'
p360
sg56
I00
sg57
F163.0
sg58
F0.0
ssS'2'
p361
(dp362
g5
F26.0
sg6
F0.0
sg7
(lp363
(S'Andy Dalton'
p364
g10
tp365
a(S'AJ McCarron'
p366
g10
tp367
a(S'Giovani Bernard'
p368
g17
tp369
a(S'Rex Burkhead'
p370
g17
tp371
a(S'Jeremy Hill'
p372
g17
tp373
a(S'Cedric Peerman'
p374
g17
tp375
a(S'Mario Alford'
p376
g26
tp377
a(S'A.J. Green'
p378
g26
tp379
a(S'Marvin Jones'
p380
g26
tp381
a(S'Greg Little'
p382
g26
tp383
a(S'Mohamed Sanu'
p384
g26
tp385
a(S'Brandon Tate'
p386
g26
tp387
a(S'Tyler Eifert'
p388
g39
tp389
a(S'Ryan Hewitt'
p390
g39
tp391
a(S'Tyler Kroft'
p392
g39
tp393
a(S'C.J. Uzomah'
p394
g39
tp395
a(S'Mike Nugent'
p396
g46
tp397
asg48
I00
sg49
F36.0
sg50
F214.0
sg51
F2.0
sg52
F3.0
sg53
F1.0
sg54
S'19-24'
p398
sg56
I00
sg57
F175.0
sg58
F0.0
ssS'5'
p399
(dp400
g5
F26.0
sg6
F1.0
sg7
(lp401
(S'Landry Jones'
p402
g10
tp403
a(S'Ben Roethlisberger'
p404
g10
tp405
a(S'Mike Vick'
p406
g10
tp407
a(S'Dri Archer'
p408
g17
tp409
a(S"Le'Veon Bell"
p410
g17
tp411
a(S'Will Johnson'
p412
g17
tp413
a(S'Roosevelt Nix-Jones'
p414
g17
tp415
a(S'Jordan Todman'
p416
g17
tp417
a(S'DeAngelo Williams'
p418
g17
tp419
a(S'Antonio Brown'
p420
g26
tp421
a(S'Sammie Coates'
p422
g26
tp423
a(S'Darrius Heyward-Bey'
p424
g26
tp425
a(S'Markus Wheaton'
p426
g26
tp427
a(S'Jesse James'
p428
g39
tp429
a(S'Matt Spaeth'
p430
g39
tp431
a(S'Zach Sudfeld'
p432
g39
tp433
a(S'Chris Boswell'
p434
g46
tp435
asg48
I00
sg49
F27.0
sg50
F203.0
sg51
F1.0
sg52
F1.0
sg53
F1.0
sg54
S'20-24'
p436
sg56
I01
sg57
F155.0
sg58
F0.0
ssS'4'
p437
(dp438
g5
F41.0
sg6
F0.0
sg7
(lp439
(S'Austin Davis'
p440
g10
tp441
a(S'Johnny Manziel'
p442
g10
tp443
a(S'Josh McCown'
p444
g10
tp445
a(S'Isaiah Crowell'
p446
g17
tp447
a(S'Shaun Draughn'
p448
g17
tp449
a(S'Malcolm Johnson'
p450
g17
tp451
a(S'Duke Johnson'
p452
g17
tp453
a(S'Robert Turbin'
p454
g17
tp455
a(S'Travis Benjamin'
p456
g26
tp457
a(S'Dwayne Bowe'
p458
g26
tp459
a(S'Taylor Gabriel'
p460
g26
tp461
a(S'Brian Hartline'
p462
g26
tp463
a(S'Andrew Hawkins'
p464
g26
tp465
a(S'Marlon Moore'
p466
g26
tp467
a(S'Gary Barnidge'
p468
g39
tp469
a(S'E.J. Bibbs'
p470
g39
tp471
a(S'Jim Dray'
p472
g39
tp473
a(S'Rob Housler'
p474
g39
tp475
a(S'Travis Coons'
p476
g46
tp477
asg48
I01
sg49
F21.0
sg50
F356.0
sg51
F4.0
sg52
F2.0
sg53
F4.0
sg54
S'30-27'
p478
sg56
I01
sg57
F100.0
sg58
F0.0
ssS'7'
p479
(dp480
g5
F31.0
sg6
F1.0
sg7
(lp481
(S'Derek Carr'
p482
g10
tp483
a(S'Matt McGloin'
p484
g10
tp485
a(S'Cyrus Gray'
p486
g17
tp487
a(S'Roy Helu'
p488
g17
tp489
a(S'Taiwan Jones'
p490
g17
tp491
a(S'Latavius Murray'
p492
g17
tp493
a(S'Jamize Olawale'
p494
g17
tp495
a(S'Marcel Reece'
p496
g17
tp497
a(S'Justin Blackmon'
p498
g26
tp499
a(S'Amari Cooper'
p500
g26
tp501
a(S'Michael Crabtree'
p502
g26
tp503
a(S'Andre Holmes'
p504
g26
tp505
a(S'Walt Powell'
p506
g26
tp507
a(S'Seth Roberts'
p508
g26
tp509
a(S'Rod Streater'
p510
g26
tp511
a(S'Mychal Rivera'
p512
g39
tp513
a(S'Lee Smith'
p514
g39
tp515
a(S'Clive Walford'
p516
g39
tp517
a(S'Sebastian Janikowski'
p518
g46
tp519
asg48
I00
sg49
F26.0
sg50
F289.0
sg51
F3.0
sg52
F3.0
sg53
F3.0
sg54
S'29-37'
p520
sg56
I01
sg57
F130.0
sg58
F0.0
ssS'6'
p521
(dp522
g5
F29.0
sg6
F1.0
sg7
(lp523
(S'Brett Hundley'
p524
g10
tp525
a(S'Aaron Rodgers'
p526
g10
tp527
a(S'Scott Tolzien'
p528
g10
tp529
a(S'John Kuhn'
p530
g17
tp531
a(S'Eddie Lacy'
p532
g17
tp533
a(S'Aaron Ripkowski'
p534
g17
tp535
a(S'James Starks'
p536
g17
tp537
a(S'Jared Abbrederis'
p538
g26
tp539
a(S'Davante Adams'
p540
g26
tp541
a(S'Randall Cobb'
p542
g26
tp543
a(S'Jeff Janis'
p544
g26
tp545
a(S'James Jones'
p546
g26
tp547
a(S'Ty Montgomery'
p548
g26
tp549
a(S'Kennard Backman'
p550
g39
tp551
a(S'Justin Perillo'
p552
g39
tp553
a(S'Richard Rodgers'
p554
g39
tp555
a(S'Mason Crosby'
p556
g46
tp557
asg48
I00
sg49
F17.0
sg50
F255.0
sg51
F2.0
sg52
F2.0
sg53
F2.0
sg54
S'20-27'
p558
sg56
I00
sg57
F133.0
sg58
F0.0
ssS'9'
p559
(dp560
g5
F40.0
sg6
F1.0
sg7
(lp561
(S'Jimmy Clausen'
p562
g10
tp563
a(S'Jay Cutler'
p564
g10
tp565
a(S"Ka'Deem Carey"
p566
g17
tp567
a(S'Matt Forte'
p568
g17
tp569
a(S'Jeremy Langford'
p570
g17
tp571
a(S'Josh Bellamy'
p572
g26
tp573
a(S'Alshon Jeffery'
p574
g26
tp575
a(S'Marc Mariani'
p576
g26
tp577
a(S'Cameron Meredith'
p578
g26
tp579
a(S'Eddie Royal'
p580
g26
tp581
a(S'Marquess Wilson'
p582
g26
tp583
a(S'Martellus Bennett'
p584
g39
tp585
a(S'Khari Lee'
p586
g39
tp587
a(S'Zach Miller'
p588
g39
tp589
a(S'Robbie Gould'
p590
g46
tp591
asg48
I00
sg49
F28.0
sg50
F345.0
sg51
F2.0
sg52
F2.0
sg53
F0.0
sg54
S'19-22'
p592
sg56
I01
sg57
F98.0
sg58
F0.0
ssS'8'
p593
(dp594
g5
F37.0
sg6
F1.0
sg7
(lp595
(S'Joe Flacco'
p596
g10
tp597
a(S'Matt Schaub'
p598
g10
tp599
a(S'Javorius Allen'
p600
g17
tp601
a(S'Justin Forsett'
p602
g17
tp603
a(S'Kyle Juszczyk'
p604
g17
tp605
a(S'Raheem Mostert'
p606
g17
tp607
a(S'Kamar Aiken'
p608
g26
tp609
a(S'Jeremy Butler'
p610
g26
tp611
a(S'Chris Givens'
p612
g26
tp613
a(S'Breshad Perriman'
p614
g26
tp615
a(S'Jeremy Ross'
p616
g26
tp617
a(S'Steve Smith'
p618
g26
tp619
a(S'Nick Boyle'
p620
g39
tp621
a(S'Crockett Gillmore'
p622
g39
tp623
a(S'Maxx Williams'
p624
g39
tp625
a(S'Justin Tucker'
p626
g46
tp627
asg48
I00
sg49
F25.0
sg50
F319.0
sg51
F5.0
sg52
F1.0
sg53
F5.0
sg54
S'26-29'
p628
sg56
I00
sg57
F72.0
sg58
F0.0
sssS'2014'
p629
(dp630
g3
(dp631
g5
F34.0
sg6
F0.0
sg7
(lp632
(S'Derek Carr'
p633
g10
tp634
a(S'Matt McGloin'
p635
g10
tp636
a(S'Matt Schaub'
p637
g10
tp638
a(S'Darren McFadden'
p639
g17
tp640
a(S'Latavius Murray'
p641
g17
tp642
a(S'Jamize Olawale'
p643
g17
tp644
a(S'Marcel Reece'
p645
g17
tp646
a(S'Vincent Brown'
p647
g26
tp648
a(S'Brice Butler'
p649
g26
tp650
a(S'Andre Holmes'
p651
g26
tp652
a(S'James Jones'
p653
g26
tp654
a(S'Kenbrell Thompkins'
p655
g26
tp656
a(S'Brian Leonhardt'
p657
g39
tp658
a(S'Mychal Rivera'
p659
g39
tp660
a(S'Sebastian Janikowski'
p661
g46
tp662
asg48
I01
sg49
F15.0
sg50
F172.0
sg51
F2.0
sg52
F0.0
sg53
F2.0
sg54
S'13-6'
p663
sg56
I01
sg57
F65.0
sg58
F0.0
ssg59
(dp664
g5
F0.0
sg6
F0.0
sg7
(lp665
sg48
(lp666
sg49
F0.0
sg50
F0.0
sg51
F0.0
sg52
F0.0
sg53
F0.0
sg54
(lp667
sg56
(lp668
sg57
F0.0
sg58
F0.0
ssg65
(dp669
g5
F31.0
sg6
F1.0
sg7
(lp670
(S'Joe Flacco'
p671
g10
tp672
a(S'Dan LeFevour'
p673
g10
tp674
a(S'Tyrod Taylor'
p675
g10
tp676
a(S'Justin Forsett'
p677
g17
tp678
a(S'Kyle Juszczyk'
p679
g17
tp680
a(S'Bernard Pierce'
p681
g17
tp682
a(S'Lorenzo Taliaferro'
p683
g17
tp684
a(S'Kamar Aiken'
p685
g26
tp686
a(S'Michael Campanaro'
p687
g26
tp688
a(S'Torrey Smith'
p689
g26
tp690
a(S'Steve Smith'
p691
g26
tp692
a(S'Owen Daniels'
p693
g39
tp694
a(S'Crockett Gillmore'
p695
g39
tp696
a(S'Justin Tucker'
p697
g46
tp698
asg48
I01
sg49
F32.0
sg50
F225.0
sg51
F4.0
sg52
F2.0
sg53
F4.0
sg54
S'34-33'
p699
sg56
I00
sg57
F125.0
sg58
F0.0
ssg101
(dp700
g5
F35.0
sg6
F1.0
sg7
(lp701
(S'Austin Davis'
p702
g10
tp703
a(S'Shaun Hill'
p704
g10
tp705
a(S'Benny Cunningham'
p706
g17
tp707
a(S'Tre Mason'
p708
g17
tp709
a(S'Chase Reynolds'
p710
g17
tp711
a(S'Zac Stacy'
p712
g17
tp713
a(S'Tavon Austin'
p714
g26
tp715
a(S'Stedman Bailey'
p716
g26
tp717
a(S'Kenny Britt'
p718
g26
tp719
a(S'Chris Givens'
p720
g26
tp721
a(S'Jared Cook'
p722
g39
tp723
a(S'Cory Harkey'
p724
g39
tp725
a(S'Lance Kendricks'
p726
g39
tp727
a(S'Greg Zuerlein'
p728
g46
tp729
asg48
I01
sg49
F24.0
sg50
F198.0
sg51
F2.0
sg52
F1.0
sg53
F1.0
sg54
S'27-24'
p730
sg56
I01
sg57
F107.0
sg58
F1.0
ssg141
(dp731
g5
F2.0
sg6
F0.0
sg7
(lp732
(S'Brock Osweiler'
p733
g10
tp734
a(S'C.J. Anderson'
p735
g17
tp736
a(S'Ronnie Hillman'
p737
g17
tp738
a(S'Juwan Thompson'
p739
g17
tp740
a(S'Andre Caldwell'
p741
g26
tp742
a(S'Cody Latimer'
p743
g26
tp744
a(S'Emmanuel Sanders'
p745
g26
tp746
a(S'Demaryius Thomas'
p747
g26
tp748
a(S'Wes Welker'
p749
g26
tp750
a(S'Virgil Green'
p751
g39
tp752
a(S'Dominique Jones'
p753
g39
tp754
a(S'Jacob Tamme'
p755
g39
tp756
a(S'Julius Thomas'
p757
g39
tp758
a(S'Connor Barth'
p759
g46
tp760
a(S'Brandon McManus'
p761
g46
tp762
asg48
I00
sg49
F34.0
sg50
F0.0
sg51
F5.0
sg52
F0.0
sg53
F5.0
sg54
S'10-22'
p763
sg56
I01
sg57
F98.0
sg58
F0.0
ssg177
(dp764
g5
F44.0
sg6
F0.0
sg7
(lp765
(S'Tom Brady'
p766
g10
tp767
a(S'Jimmy Garoppolo'
p768
g10
tp769
a(S'LeGarrette Blount'
p770
g17
tp771
a(S'Brandon Bolden'
p772
g17
tp773
a(S'James Develin'
p774
g17
tp775
a(S'Jonas Gray'
p776
g17
tp777
a(S'Shane Vereen'
p778
g17
tp779
a(S'James White'
p780
g17
tp781
a(S'Danny Amendola'
p782
g26
tp783
a(S'Julian Edelman'
p784
g26
tp785
a(S'Brandon LaFell'
p786
g26
tp787
a(S'Matthew Slater'
p788
g26
tp789
a(S'Brian Tyms'
p790
g26
tp791
a(S'Rob Gronkowski'
p792
g39
tp793
a(S'Michael Hoomanawanui'
p794
g39
tp795
a(S'Timothy Wright'
p796
g39
tp797
a(S'Stephen Gostkowski'
p798
g46
tp799
asg48
I00
sg49
F28.0
sg50
F317.0
sg51
F3.0
sg52
F2.0
sg53
F3.0
sg54
S'14-23'
p800
sg56
I01
sg57
F87.0
sg58
F0.0
ssg215
(dp801
g5
F27.0
sg6
F0.0
sg7
(lp802
(S'Chase Daniel'
p803
g10
tp804
a(S'Aaron Murray'
p805
g10
tp806
a(S'Alex Smith'
p807
g10
tp808
a(S'Jamaal Charles'
p809
g17
tp810
a(S'Knile Davis'
p811
g17
tp812
a(S'Anthony Sherman'
p813
g17
tp814
a(S'Charcandrick West'
p815
g17
tp816
a(S'Jason Avant'
p817
g26
tp818
a(S'Dwayne Bowe'
p819
g26
tp820
a(S'Frankie Hammond'
p821
g26
tp822
a(S"De'Anthony Thomas"
p823
g26
tp824
a(S'Albert Wilson'
p825
g26
tp826
a(S'Anthony Fasano'
p827
g39
tp828
a(S'Richard Gordon'
p829
g39
tp830
a(S'Travis Kelce'
p831
g39
tp832
a(S'Cairo Santos'
p833
g46
tp834
asg48
I00
sg49
F26.0
sg50
F157.0
sg51
F5.0
sg52
F0.0
sg53
F4.0
sg54
S'7-19'
p835
sg56
I00
sg57
F111.0
sg58
F0.0
ssg249
(dp836
g5
F24.0
sg6
F3.0
sg7
(lp837
(S'Blaine Gabbert'
p838
g10
tp839
a(S'Josh Johnson'
p840
g10
tp841
a(S'Colin Kaepernick'
p842
g10
tp843
a(S'Frank Gore'
p844
g17
tp845
a(S'Carlos Hyde'
p846
g17
tp847
a(S'Bruce Miller'
p848
g17
tp849
a(S'Anquan Boldin'
p850
g26
tp851
a(S'Michael Crabtree'
p852
g26
tp853
a(S'Bruce Ellington'
p854
g26
tp855
a(S'Steve Johnson'
p856
g26
tp857
a(S'Quinton Patton'
p858
g26
tp859
a(S'Asante Cleveland'
p860
g39
tp861
a(S'Vernon Davis'
p862
g39
tp863
a(S'Phil Dawson'
p864
g46
tp865
asg48
I01
sg49
F38.0
sg50
F114.0
sg51
F1.0
sg52
F1.0
sg53
F0.0
sg54
S'38-35'
p866
sg56
I00
sg57
F341.0
sg58
F0.0
ssg289
(dp867
g5
F37.0
sg6
F0.0
sg7
(lp868
(S'Carson Palmer'
p869
g10
tp870
a(S'Drew Stanton'
p871
g10
tp872
a(S'Logan Thomas'
p873
g10
tp874
a(S'Andre Ellington'
p875
g17
tp876
a(S'Stepfan Taylor'
p877
g17
tp878
a(S'Jaron Brown'
p879
g26
tp880
a(S'John Brown'
p881
g26
tp882
a(S'Larry Fitzgerald'
p883
g26
tp884
a(S'Michael Floyd'
p885
g26
tp886
a(S'Ted Ginn'
p887
g26
tp888
a(S'Darren Fells'
p889
g39
tp890
a(S'Rob Housler'
p891
g39
tp892
a(S'Troy Niklas'
p893
g39
tp894
a(S'Chandler Catanzaro'
p895
g46
tp896
asg48
I00
sg49
F19.0
sg50
F304.0
sg51
F2.0
sg52
F2.0
sg53
F2.0
sg54
S'17-18'
p897
sg56
I00
sg57
F89.0
sg58
F0.0
ssg321
(dp898
g5
F39.0
sg6
F0.0
sg7
(lp899
(S'EJ Manuel'
p900
g10
tp901
a(S'Bryce Brown'
p902
g17
tp903
a(S'Anthony Dixon'
p904
g17
tp905
a(S'Fred Jackson'
p906
g17
tp907
a(S'C.J. Spiller'
p908
g17
tp909
a(S'Marcus Easley'
p910
g26
tp911
a(S'Marquise Goodwin'
p912
g26
tp913
a(S'Chris Hogan'
p914
g26
tp915
a(S'Sammy Watkins'
p916
g26
tp917
a(S'Mike Williams'
p918
g26
tp919
a(S'Robert Woods'
p920
g26
tp921
a(S'Scott Chandler'
p922
g39
tp923
a(S'Chris Gragg'
p924
g39
tp925
a(S'Lee Smith'
p926
g39
tp927
a(S'Dan Carpenter'
p928
g46
tp929
a(S'Jordan Gay'
p930
g46
tp931
asg48
I01
sg49
F21.0
sg50
F238.0
sg51
F1.0
sg52
F1.0
sg53
F1.0
sg54
S'22-10'
p932
sg56
I00
sg57
F83.0
sg58
F0.0
ssg361
(dp933
g5
F25.0
sg6
F1.0
sg7
(lp934
(S'Tarvaris Jackson'
p935
g10
tp936
a(S'Russell Wilson'
p937
g10
tp938
a(S'Derrick Coleman'
p939
g17
tp940
a(S'Christine Michael'
p941
g17
tp942
a(S'Robert Turbin'
p943
g17
tp944
a(S'Doug Baldwin'
p945
g26
tp946
a(S'Percy Harvin'
p947
g26
tp948
a(S'Jermaine Kearse'
p949
g26
tp950
a(S'Ricardo Lockette'
p951
g26
tp952
a(S'Kevin Norwood'
p953
g26
tp954
a(S'Paul Richardson'
p955
g26
tp956
a(S'Bryan Walters'
p957
g26
tp958
a(S'Cooper Helfet'
p959
g39
tp960
a(S'Luke Willson'
p961
g39
tp962
a(S'Steven Hauschka'
p963
g46
tp964
asg48
I01
sg49
F7.0
sg50
F202.0
sg51
F0.0
sg52
F2.0
sg53
F0.0
sg54
S'30-21'
p965
sg56
I01
sg57
F72.0
sg58
F0.0
ssg399
(dp966
g5
F31.0
sg6
F0.0
sg7
(lp967
(S'Geno Smith'
p968
g10
tp969
a(S'Mike Vick'
p970
g10
tp971
a(S'Chris Ivory'
p972
g17
tp973
a(S'Chris Johnson'
p974
g17
tp975
a(S'Bilal Powell'
p976
g17
tp977
a(S'Eric Decker'
p978
g26
tp979
a(S'T.J. Graham'
p980
g26
tp981
a(S'Saalim Hakim'
p982
g26
tp983
a(S'Jeremy Kerley'
p984
g26
tp985
a(S'Chris Owusu'
p986
g26
tp987
a(S'Walt Powell'
p988
g26
tp989
a(S'Greg Salas'
p990
g26
tp991
a(S'Jace Amaro'
p992
g39
tp993
a(S'Jeff Cumberland'
p994
g39
tp995
a(S'Zach Sudfeld'
p996
g39
tp997
a(S'Nick Folk'
p998
g46
tp999
asg48
I01
sg49
F21.0
sg50
F74.0
sg51
F0.0
sg52
F0.0
sg53
F0.0
sg54
S'31-0'
p1000
sg56
I01
sg57
F91.0
sg58
F0.0
ssg437
(dp1001
g5
F37.0
sg6
F1.0
sg7
(lp1002
(S'Blake Bortles'
p1003
g10
tp1004
a(S'Chad Henne'
p1005
g10
tp1006
a(S'Toby Gerhart'
p1007
g17
tp1008
a(S'Storm Johnson'
p1009
g17
tp1010
a(S'Denard Robinson'
p1011
g17
tp1012
a(S'Jordan Todman'
p1013
g17
tp1014
a(S'Allen Hurns'
p1015
g26
tp1016
a(S'Tavarres King'
p1017
g26
tp1018
a(S'Marqise Lee'
p1019
g26
tp1020
a(S'Allen Robinson'
p1021
g26
tp1022
a(S'Cecil Shorts'
p1023
g26
tp1024
a(S'Clay Harbor'
p1025
g39
tp1026
a(S'Nic Jacobs'
p1027
g39
tp1028
a(S'Josh Scobee'
p1029
g46
tp1030
asg48
I01
sg49
F25.0
sg50
F254.0
sg51
F0.0
sg52
F1.0
sg53
F0.0
sg54
S'33-14'
p1031
sg56
I01
sg57
F85.0
sg58
F0.0
ssg479
(dp1032
g5
F28.0
sg6
F1.0
sg7
(lp1033
(S'Chase Daniel'
p1034
g10
tp1035
a(S'Aaron Murray'
p1036
g10
tp1037
a(S'Alex Smith'
p1038
g10
tp1039
a(S'Jamaal Charles'
p1040
g17
tp1041
a(S'Knile Davis'
p1042
g17
tp1043
a(S'Cyrus Gray'
p1044
g17
tp1045
a(S'Anthony Sherman'
p1046
g17
tp1047
a(S'Justin Blackmon'
p1048
g26
tp1049
a(S'Dwayne Bowe'
p1050
g26
tp1051
a(S'Frankie Hammond'
p1052
g26
tp1053
a(S"De'Anthony Thomas"
p1054
g26
tp1055
a(S'Albert Wilson'
p1056
g26
tp1057
a(S'Anthony Fasano'
p1058
g39
tp1059
a(S'Demetrius Harris'
p1060
g39
tp1061
a(S'Travis Kelce'
p1062
g39
tp1063
a(S'Cairo Santos'
p1064
g46
tp1065
asg48
I00
sg49
F39.0
sg50
F221.0
sg51
F3.0
sg52
F1.0
sg53
F3.0
sg54
S'20-23'
p1066
sg56
I01
sg57
F154.0
sg58
F0.0
ssg521
(dp1067
g5
F34.0
sg6
F0.0
sg7
(lp1068
(S'Derek Carr'
p1069
g10
tp1070
a(S'Matt McGloin'
p1071
g10
tp1072
a(S'Matt Schaub'
p1073
g10
tp1074
a(S'Darren McFadden'
p1075
g17
tp1076
a(S'Latavius Murray'
p1077
g17
tp1078
a(S'Jamize Olawale'
p1079
g17
tp1080
a(S'Marcel Reece'
p1081
g17
tp1082
a(S'Vincent Brown'
p1083
g26
tp1084
a(S'Brice Butler'
p1085
g26
tp1086
a(S'Andre Holmes'
p1087
g26
tp1088
a(S'James Jones'
p1089
g26
tp1090
a(S'Kenbrell Thompkins'
p1091
g26
tp1092
a(S'Brian Leonhardt'
p1093
g39
tp1094
a(S'Mychal Rivera'
p1095
g39
tp1096
a(S'Sebastian Janikowski'
p1097
g46
tp1098
asg48
I01
sg49
F16.0
sg50
F282.0
sg51
F1.0
sg52
F4.0
sg53
F0.0
sg54
S'31-28'
p1099
sg56
I00
sg57
F84.0
sg58
F0.0
ssg559
(dp1100
g5
F38.0
sg6
F1.0
sg7
(lp1101
(S'Matt Moore'
p1102
g10
tp1103
a(S'Ryan Tannehill'
p1104
g10
tp1105
a(S'Lamar Miller'
p1106
g17
tp1107
a(S'Daniel Thomas'
p1108
g17
tp1109
a(S'Damien Williams'
p1110
g17
tp1111
a(S'Brandon Gibson'
p1112
g26
tp1113
a(S'Brian Hartline'
p1114
g26
tp1115
a(S'Jarvis Landry'
p1116
g26
tp1117
a(S'Rishard Matthews'
p1118
g26
tp1119
a(S'Mike Wallace'
p1120
g26
tp1121
a(S'Charles Clay'
p1122
g39
tp1123
a(S'Dion Sims'
p1124
g39
tp1125
a(S'Caleb Sturgis'
p1126
g46
tp1127
asg48
I00
sg49
F35.0
sg50
F309.0
sg51
F4.0
sg52
F3.0
sg53
F3.0
sg54
S'0-37'
p1128
sg56
I00
sg57
F132.0
sg58
F0.0
ssg593
(dp1129
g5
F0.0
sg6
F2.0
sg7
(lp1130
(S'Brock Osweiler'
p1131
g10
tp1132
a(S'C.J. Anderson'
p1133
g17
tp1134
a(S'Kapri Bibbs'
p1135
g17
tp1136
a(S'Ronnie Hillman'
p1137
g17
tp1138
a(S'Juwan Thompson'
p1139
g17
tp1140
a(S'Isaiah Burse'
p1141
g26
tp1142
a(S'Andre Caldwell'
p1143
g26
tp1144
a(S'Cody Latimer'
p1145
g26
tp1146
a(S'Emmanuel Sanders'
p1147
g26
tp1148
a(S'Demaryius Thomas'
p1149
g26
tp1150
a(S'Wes Welker'
p1151
g26
tp1152
a(S'Virgil Green'
p1153
g39
tp1154
a(S'Jacob Tamme'
p1155
g39
tp1156
a(S'Julius Thomas'
p1157
g39
tp1158
a(S'Brandon McManus'
p1159
g46
tp1160
asg48
I00
sg49
F29.0
sg50
F0.0
sg51
F1.0
sg52
F0.0
sg53
F0.0
sg54
S'21-35'
p1161
sg56
I00
sg57
F139.0
sg58
F0.0
sssS'2011'
p1162
(dp1163
g3
(dp1164
g5
F31.0
sg6
F1.0
sg7
(lp1165
(S'Jay Cutler'
p1166
g10
tp1167
a(S'Tyler Clutts'
p1168
g17
tp1169
a(S'Matt Forte'
p1170
g17
tp1171
a(S'Devin Hester'
p1172
g26
tp1173
a(S'Kellen Davis'
p1174
g39
tp1175
a(S'Matt Spaeth'
p1176
g39
tp1177
a(S'Robbie Gould'
p1178
g46
tp1179
asg48
I00
sg49
F25.0
sg50
F286.0
sg51
F1.0
sg52
F2.0
sg53
F1.0
sg54
S'20-31'
p1180
sg56
I00
sg57
F67.0
sg58
F0.0
ssg59
(dp1181
g5
F0.0
sg6
F0.0
sg7
(lp1182
(S'Taiwan Jones'
p1183
g17
tp1184
a(S'Darren McFadden'
p1185
g17
tp1186
a(S'Marcel Reece'
p1187
g17
tp1188
a(S'Darrius Heyward-Bey'
p1189
g26
tp1190
a(S'Louis Murphy'
p1191
g26
tp1192
a(S'Terrelle Pryor'
p1193
g26
tp1194
a(S'Richard Gordon'
p1195
g39
tp1196
a(S'Brandon Myers'
p1197
g39
tp1198
a(S'Sebastian Janikowski'
p1199
g46
tp1200
asg48
I00
sg49
F8.0
sg50
F0.0
sg51
F1.0
sg52
F0.0
sg53
F1.0
sg54
S'17-24'
p1201
sg56
I01
sg57
F42.0
sg58
F0.0
ssg65
(dp1202
g5
F33.0
sg6
F0.0
sg7
(lp1203
(S'Blaine Gabbert'
p1204
g10
tp1205
a(S'Dan LeFevour'
p1206
g10
tp1207
a(S'Luke McCown'
p1208
g10
tp1209
a(S'DuJuan Harris'
p1210
g17
tp1211
a(S'Cecil Shorts'
p1212
g26
tp1213
a(S'Marcedes Lewis'
p1214
g39
tp1215
a(S'Josh Scobee'
p1216
g46
tp1217
asg48
I01
sg49
F8.0
sg50
F195.0
sg51
F0.0
sg52
F2.0
sg53
F0.0
sg54
S'38-14'
p1218
sg56
I00
sg57
F21.0
sg58
F0.0
ssg101
(dp1219
g5
F0.0
sg6
F0.0
sg7
(lp1220
(S'Eric Decker'
p1221
g26
tp1222
a(S'Eddie Royal'
p1223
g26
tp1224
a(S'Demaryius Thomas'
p1225
g26
tp1226
a(S'Daniel Fells'
p1227
g39
tp1228
a(S'Virgil Green'
p1229
g39
tp1230
a(S'Julius Thomas'
p1231
g39
tp1232
a(S'Matt Prater'
p1233
g46
tp1234
asg48
I00
sg49
F1.0
sg50
F0.0
sg51
F3.0
sg52
F0.0
sg53
F3.0
sg54
S'13-16'
p1235
sg56
I01
sg57
F1.0
sg58
F0.0
ssg141
(dp1236
g5
F35.0
sg6
F0.0
sg7
(lp1237
(S'Joe Flacco'
p1238
g10
tp1239
a(S'Tyrod Taylor'
p1240
g10
tp1241
a(S'Anquan Boldin'
p1242
g26
tp1243
a(S'Torrey Smith'
p1244
g26
tp1245
a(S'Ed Dickson'
p1246
g39
tp1247
a(S'Dennis Pitta'
p1248
g39
tp1249
asg48
I01
sg49
F1.0
sg50
F244.0
sg51
F0.0
sg52
F2.0
sg53
F0.0
sg54
S'34-14'
p1250
sg56
I01
sg57
F12.0
sg58
F0.0
ssg177
(dp1251
g5
F34.0
sg6
F0.0
sg7
(lp1252
(S'Ryan Fitzpatrick'
p1253
g10
tp1254
a(S'C.J. Spiller'
p1255
g17
tp1256
a(S'Kamar Aiken'
p1257
g26
tp1258
a(S'Steve Johnson'
p1259
g26
tp1260
a(S'Scott Chandler'
p1261
g39
tp1262
a(S'Lee Smith'
p1263
g39
tp1264
asg48
I01
sg49
F17.0
sg50
F176.0
sg51
F0.0
sg52
F0.0
sg53
F0.0
sg54
S'37-10'
p1265
sg56
I01
sg57
F72.0
sg58
F0.0
ssg215
(dp1266
g5
F0.0
sg6
F0.0
sg7
(lp1267
(S'Taiwan Jones'
p1268
g17
tp1269
a(S'Darren McFadden'
p1270
g17
tp1271
a(S'Marcel Reece'
p1272
g17
tp1273
a(S'Darrius Heyward-Bey'
p1274
g26
tp1275
a(S'Louis Murphy'
p1276
g26
tp1277
a(S'Terrelle Pryor'
p1278
g26
tp1279
a(S'Richard Gordon'
p1280
g39
tp1281
a(S'Brandon Myers'
p1282
g39
tp1283
a(S'Sebastian Janikowski'
p1284
g46
tp1285
asg48
I01
sg49
F1.0
sg50
F0.0
sg51
F4.0
sg52
F0.0
sg53
F4.0
sg54
S'38-26'
p1286
sg56
I00
sg57
F27.0
sg58
F0.0
ssg249
(dp1287
g5
F36.0
sg6
F0.0
sg7
(lp1288
(S'Shaun Hill'
p1289
g10
tp1290
a(S'Matthew Stafford'
p1291
g10
tp1292
a(S'Drew Stanton'
p1293
g10
tp1294
a(S'Brandon Pettigrew'
p1295
g39
tp1296
asg48
I00
sg49
F2.0
sg50
F373.0
sg51
F0.0
sg52
F3.0
sg53
F0.0
sg54
S'10-38'
p1297
sg56
I00
sg57
F5.0
sg58
F0.0
ssg289
(dp1298
g5
F0.0
sg6
F0.0
sg7
(lp1299
(S'Joe Webb'
p1300
g10
tp1301
a(S'Toby Gerhart'
p1302
g17
tp1303
a(S'Adrian Peterson'
p1304
g17
tp1305
a(S'Percy Harvin'
p1306
g26
tp1307
a(S'Allen Reisner'
p1308
g39
tp1309
a(S'Kyle Rudolph'
p1310
g39
tp1311
asg48
I01
sg49
F23.0
sg50
F0.0
sg51
F0.0
sg52
F0.0
sg53
F0.0
sg54
S'24-17'
p1312
sg56
I01
sg57
F127.0
sg58
F0.0
ssg321
(dp1313
g5
F24.0
sg6
F0.0
sg7
(lp1314
(S'Matt Cassel'
p1315
g10
tp1316
a(S'Dexter McCluster'
p1317
g17
tp1318
a(S'Dwayne Bowe'
p1319
g26
tp1320
a(S'Ryan Succop'
p1321
g46
tp1322
asg48
I01
sg49
F10.0
sg50
F176.0
sg51
F2.0
sg52
F2.0
sg53
F1.0
sg54
S'20-17'
p1323
sg56
I01
sg57
F46.0
sg58
F0.0
ssg361
(dp1324
g5
F40.0
sg6
F0.0
sg7
(lp1325
(S'Tom Brady'
p1326
g10
tp1327
a(S'Brian Hoyer'
p1328
g10
tp1329
a(S'Ryan Mallett'
p1330
g10
tp1331
a(S'Stevan Ridley'
p1332
g17
tp1333
a(S'Shane Vereen'
p1334
g17
tp1335
a(S'Danny Woodhead'
p1336
g17
tp1337
a(S'Julian Edelman'
p1338
g26
tp1339
a(S'Matthew Slater'
p1340
g26
tp1341
a(S'Wes Welker'
p1342
g26
tp1343
a(S'Rob Gronkowski'
p1344
g39
tp1345
a(S'Stephen Gostkowski'
p1346
g46
tp1347
asg48
I00
sg49
F8.0
sg50
F423.0
sg51
F2.0
sg52
F3.0
sg53
F2.0
sg54
S'21-35'
p1348
sg56
I00
sg57
F24.0
sg58
F0.0
ssg399
(dp1349
g5
F0.0
sg6
F0.0
sg7
(lp1350
(S'Eric Decker'
p1351
g26
tp1352
a(S'Eddie Royal'
p1353
g26
tp1354
a(S'Demaryius Thomas'
p1355
g26
tp1356
a(S'Daniel Fells'
p1357
g39
tp1358
a(S'Virgil Green'
p1359
g39
tp1360
a(S'Julius Thomas'
p1361
g39
tp1362
a(S'Matt Prater'
p1363
g46
tp1364
asg48
I01
sg49
F0.0
sg50
F0.0
sg51
F1.0
sg52
F0.0
sg53
F1.0
sg54
S'29-24'
p1365
sg56
I00
sg57
F0.0
sg58
F0.0
ssg437
(dp1366
g5
F30.0
sg6
F0.0
sg7
(lp1367
(S'Chad Henne'
p1368
g10
tp1369
a(S'Matt Moore'
p1370
g10
tp1371
a(S'Reggie Bush'
p1372
g17
tp1373
a(S'Daniel Thomas'
p1374
g17
tp1375
a(S'Brian Hartline'
p1376
g26
tp1377
a(S'Brandon Marshall'
p1378
g26
tp1379
a(S'Marlon Moore'
p1380
g26
tp1381
a(S'Charles Clay'
p1382
g39
tp1383
a(S'Anthony Fasano'
p1384
g39
tp1385
a(S'Dan Carpenter'
p1386
g46
tp1387
asg48
I01
sg49
F15.0
sg50
F194.0
sg51
F3.0
sg52
F0.0
sg53
F3.0
sg54
S'26-16'
p1388
sg56
I01
sg57
F50.0
sg58
F0.0
ssg479
(dp1389
g5
F33.0
sg6
F0.0
sg7
(lp1390
(S'Mark Sanchez'
p1391
g10
tp1392
a(S'Bilal Powell'
p1393
g17
tp1394
a(S'Jeremy Kerley'
p1395
g26
tp1396
a(S'Matthew Mulligan'
p1397
g39
tp1398
a(S'Nick Folk'
p1399
g46
tp1400
asg48
I00
sg49
F3.0
sg50
F173.0
sg51
F2.0
sg52
F3.0
sg53
F2.0
sg54
S'21-27'
p1401
sg56
I00
sg57
F25.0
sg58
F0.0
ssg521
(dp1402
g5
F0.0
sg6
F0.0
sg7
(lp1403
sg48
(lp1404
sg49
F0.0
sg50
F0.0
sg51
F0.0
sg52
F0.0
sg53
F0.0
sg54
(lp1405
sg56
(lp1406
sg57
F0.0
sg58
F0.0
ssg559
(dp1407
g5
F26.0
sg6
F0.0
sg7
(lp1408
(S'Matt Flynn'
p1409
g10
tp1410
a(S'Aaron Rodgers'
p1411
g10
tp1412
a(S'John Kuhn'
p1413
g17
tp1414
a(S'James Starks'
p1415
g17
tp1416
a(S'Randall Cobb'
p1417
g26
tp1418
a(S'Greg Jennings'
p1419
g26
tp1420
a(S'James Jones'
p1421
g26
tp1422
a(S'Jordy Nelson'
p1423
g26
tp1424
a(S'Andrew Quarless'
p1425
g39
tp1426
a(S'Mason Crosby'
p1427
g46
tp1428
asg48
I00
sg49
F22.0
sg50
F247.0
sg51
F1.0
sg52
F4.0
sg53
F1.0
sg54
S'38-45'
p1429
sg56
I01
sg57
F120.0
sg58
F0.0
ssg593
(dp1430
g5
F32.0
sg6
F0.0
sg7
(lp1431
(S'Matt Cassel'
p1432
g10
tp1433
a(S'Dexter McCluster'
p1434
g17
tp1435
a(S'Dwayne Bowe'
p1436
g26
tp1437
a(S'Ryan Succop'
p1438
g46
tp1439
asg48
I00
sg49
F8.0
sg50
F261.0
sg51
F3.0
sg52
F1.0
sg53
F3.0
sg54
S'20-23'
p1440
sg56
I00
sg57
F14.0
sg58
F0.0
sssS'2010'
p1441
(dp1442
g3
(dp1443
g5
F0.0
sg6
F0.0
sg7
(lp1444
(S'Eric Decker'
p1445
g26
tp1446
a(S'Eddie Royal'
p1447
g26
tp1448
a(S'Demaryius Thomas'
p1449
g26
tp1450
a(S'Matt Prater'
p1451
g46
tp1452
asg48
I01
sg49
F0.0
sg50
F0.0
sg51
F0.0
sg52
F0.0
sg53
F0.0
sg54
S'35-14'
p1453
sg56
I01
sg57
F0.0
sg58
F0.0
ssg59
(dp1454
g5
F0.0
sg6
F0.0
sg7
(lp1455
sg48
(lp1456
sg49
F0.0
sg50
F0.0
sg51
F0.0
sg52
F0.0
sg53
F0.0
sg54
(lp1457
sg56
(lp1458
sg57
F0.0
sg58
F0.0
ssg65
(dp1459
g5
F0.0
sg6
F1.0
sg7
(lp1460
(S'Darren McFadden'
p1461
g17
tp1462
a(S'Marcel Reece'
p1463
g17
tp1464
a(S'Darrius Heyward-Bey'
p1465
g26
tp1466
a(S'Louis Murphy'
p1467
g26
tp1468
a(S'Brandon Myers'
p1469
g39
tp1470
a(S'Sebastian Janikowski'
p1471
g46
tp1472
asg48
I00
sg49
F21.0
sg50
F0.0
sg51
F0.0
sg52
F0.0
sg53
F0.0
sg54
S'13-28'
p1473
sg56
I01
sg57
F116.0
sg58
F0.0
ssg101
(dp1474
g5
F0.0
sg6
F0.0
sg7
(lp1475
(S'Donald Brown'
p1476
g17
tp1477
a(S'Pierre Garcon'
p1478
g26
tp1479
a(S'Jacob Tamme'
p1480
g39
tp1481
a(S'Adam Vinatieri'
p1482
g46
tp1483
asg48
I01
sg49
F11.0
sg50
F0.0
sg51
F0.0
sg52
F0.0
sg53
F0.0
sg54
S'36-14'
p1484
sg56
I00
sg57
F24.0
sg58
F0.0
ssg141
(dp1485
g5
F29.0
sg6
F0.0
sg7
(lp1486
(S'Alex Smith'
p1487
g10
tp1488
a(S'Anthony Dixon'
p1489
g17
tp1490
a(S'Michael Crabtree'
p1491
g26
tp1492
a(S'Ted Ginn'
p1493
g26
tp1494
a(S'Kyle Williams'
p1495
g26
tp1496
a(S'Vernon Davis'
p1497
g39
tp1498
a(S'Delanie Walker'
p1499
g39
tp1500
asg48
I01
sg49
F7.0
sg50
F165.0
sg51
F0.0
sg52
F0.0
sg53
F0.0
sg54
S'34-7'
p1501
sg56
I01
sg57
F39.0
sg58
F0.0
ssg177
(dp1502
g5
F0.0
sg6
F0.0
sg7
(lp1503
(S'Matt Cassel'
p1504
g10
tp1505
a(S'Jamaal Charles'
p1506
g17
tp1507
a(S'Dexter McCluster'
p1508
g17
tp1509
a(S'Dwayne Bowe'
p1510
g26
tp1511
a(S'Tony Moeaki'
p1512
g39
tp1513
a(S'Ryan Succop'
p1514
g46
tp1515
asg48
I01
sg49
F10.0
sg50
F0.0
sg51
F0.0
sg52
F0.0
sg53
F0.0
sg54
S'31-0'
p1516
sg56
I01
sg57
F40.0
sg58
F0.0
ssg215
(dp1517
g5
F0.0
sg6
F0.0
sg7
(lp1518
(S'Eric Decker'
p1519
g26
tp1520
a(S'Eddie Royal'
p1521
g26
tp1522
a(S'Demaryius Thomas'
p1523
g26
tp1524
a(S'Steven Hauschka'
p1525
g46
tp1526
asg48
I01
sg49
F0.0
sg50
F0.0
sg51
F0.0
sg52
F0.0
sg53
F0.0
sg54
S'33-28'
p1527
sg56
I00
sg57
F0.0
sg58
F0.0
ssg249
(dp1528
g5
F21.0
sg6
F0.0
sg7
(lp1529
(S'Dan LeFevour'
p1530
g10
tp1531
a(S'Carson Palmer'
p1532
g10
tp1533
a(S'Cedric Peerman'
p1534
g17
tp1535
a(S'Andre Caldwell'
p1536
g26
tp1537
a(S'Jerome Simpson'
p1538
g26
tp1539
a(S'Chase Coffman'
p1540
g39
tp1541
a(S'Jermaine Gresham'
p1542
g39
tp1543
asg48
I00
sg49
F3.0
sg50
F269.0
sg51
F0.0
sg52
F4.0
sg53
F0.0
sg54
S'20-34'
p1544
sg56
I00
sg57
F0.0
sg58
F0.0
ssg289
(dp1545
g5
F22.0
sg6
F1.0
sg7
(lp1546
(S'Matt Cassel'
p1547
g10
tp1548
a(S'Jamaal Charles'
p1549
g17
tp1550
a(S'Dexter McCluster'
p1551
g17
tp1552
a(S'Dwayne Bowe'
p1553
g26
tp1554
a(S'Tony Moeaki'
p1555
g39
tp1556
a(S'Ryan Succop'
p1557
g46
tp1558
asg48
I00
sg49
F14.0
sg50
F68.0
sg51
F0.0
sg52
F1.0
sg53
F0.0
sg54
S'14-21'
p1559
sg56
I00
sg57
F96.0
sg58
F0.0
ssg321
(dp1560
g5
F0.0
sg6
F0.0
sg7
(lp1561
(S'Justin Forsett'
p1562
g17
tp1563
a(S'Golden Tate'
p1564
g26
tp1565
a(S'Anthony McCoy'
p1566
g39
tp1567
asg48
I00
sg49
F17.0
sg50
F0.0
sg51
F0.0
sg52
F0.0
sg53
F0.0
sg54
S'20-27'
p1568
sg56
I00
sg57
F63.0
sg58
F0.0
ssg361
(dp1569
g5
F19.0
sg6
F0.0
sg7
(lp1570
(S'Luke McCown'
p1571
g10
tp1572
a(S'Rashad Jennings'
p1573
g17
tp1574
a(S'Marcedes Lewis'
p1575
g39
tp1576
a(S'Zach Miller'
p1577
g39
tp1578
a(S'Josh Scobee'
p1579
g46
tp1580
asg48
I01
sg49
F10.0
sg50
F120.0
sg51
F2.0
sg52
F0.0
sg53
F2.0
sg54
S'38-13'
p1581
sg56
I01
sg57
F42.0
sg58
F0.0
ssg399
(dp1582
g5
F7.0
sg6
F0.0
sg7
(lp1583
(S'Bruce Gradkowski'
p1584
g10
tp1585
a(S'Darren McFadden'
p1586
g17
tp1587
a(S'Marcel Reece'
p1588
g17
tp1589
a(S'Darrius Heyward-Bey'
p1590
g26
tp1591
a(S'Louis Murphy'
p1592
g26
tp1593
a(S'Brandon Myers'
p1594
g39
tp1595
a(S'Sebastian Janikowski'
p1596
g46
tp1597
asg48
I00
sg49
F0.0
sg50
F14.0
sg51
F2.0
sg52
F0.0
sg53
F2.0
sg54
S'27-35'
p1598
sg56
I00
sg57
F0.0
sg58
F0.0
ssg437
(dp1599
g5
F14.0
sg6
F0.0
sg7
(lp1600
(S'Derek Anderson'
p1601
g10
tp1602
a(S'Tim Hightower'
p1603
g17
tp1604
a(S'Larry Fitzgerald'
p1605
g26
tp1606
a(S'Andre Roberts'
p1607
g26
tp1608
a(S'Jim Dray'
p1609
g39
tp1610
asg48
I01
sg49
F7.0
sg50
F64.0
sg51
F0.0
sg52
F0.0
sg53
F0.0
sg54
S'41-10'
p1611
sg56
I01
sg57
F24.0
sg58
F0.0
ssg479
(dp1612
g5
F32.0
sg6
F0.0
sg7
(lp1613
(S'Tom Brady'
p1614
g10
tp1615
a(S'Brian Hoyer'
p1616
g10
tp1617
a(S'Danny Woodhead'
p1618
g17
tp1619
a(S'Julian Edelman'
p1620
g26
tp1621
a(S'Matthew Slater'
p1622
g26
tp1623
a(S'Brandon Tate'
p1624
g26
tp1625
a(S'Wes Welker'
p1626
g26
tp1627
a(S'Rob Gronkowski'
p1628
g39
tp1629
a(S'Stephen Gostkowski'
p1630
g46
tp1631
asg48
I00
sg49
F10.0
sg50
F159.0
sg51
F3.0
sg52
F1.0
sg53
F3.0
sg54
S'20-23'
p1632
sg56
I01
sg57
F25.0
sg58
F0.0
ssg521
(dp1633
g5
F31.0
sg6
F1.0
sg7
(lp1634
(S'Sam Bradford'
p1635
g10
tp1636
a(S'Steven Jackson'
p1637
g17
tp1638
a(S'Danny Amendola'
p1639
g26
tp1640
a(S'Brandon Gibson'
p1641
g26
tp1642
a(S'Daniel Fells'
p1643
g39
tp1644
a(S'Michael Hoomanawanui'
p1645
g39
tp1646
a(S'Josh Brown'
p1647
g46
tp1648
asg48
I00
sg49
F35.0
sg50
F198.0
sg51
F2.0
sg52
F1.0
sg53
F2.0
sg54
S'17-20'
p1649
sg56
I00
sg57
F117.0
sg58
F0.0
ssg559
(dp1650
g5
F32.0
sg6
F2.0
sg7
(lp1651
(S'Dan Orlovsky'
p1652
g10
tp1653
a(S'Matt Schaub'
p1654
g10
tp1655
a(S'Arian Foster'
p1656
g17
tp1657
a(S'Andre Johnson'
p1658
g26
tp1659
a(S'Owen Daniels'
p1660
g39
tp1661
a(S'Dorin Dickerson'
p1662
g39
tp1663
a(S'Garrett Graham'
p1664
g39
tp1665
asg48
I01
sg49
F29.0
sg50
F267.0
sg51
F0.0
sg52
F0.0
sg53
F0.0
sg54
S'29-23'
p1666
sg56
I00
sg57
F128.0
sg58
F0.0
ssg593
(dp1667
g5
F0.0
sg6
F1.0
sg7
(lp1668
(S'Chris Johnson'
p1669
g17
tp1670
a(S'Kenny Britt'
p1671
g26
tp1672
a(S'Marc Mariani'
p1673
g26
tp1674
a(S'Nate Washington'
p1675
g26
tp1676
a(S'Jared Cook'
p1677
g39
tp1678
a(S'Craig Stevens'
p1679
g39
tp1680
asg48
I01
sg49
F15.0
sg50
F0.0
sg51
F0.0
sg52
F0.0
sg53
F0.0
sg54
S'33-25'
p1681
sg56
I01
sg57
F59.0
sg58
F0.0
sssS'2013'
p1682
(dp1683
g3
(dp1684
g5
F35.0
sg6
F1.0
sg7
(lp1685
(S'Pat Devlin'
p1686
g10
tp1687
a(S'Matt Moore'
p1688
g10
tp1689
a(S'Ryan Tannehill'
p1690
g10
tp1691
a(S'Mike Gillislee'
p1692
g17
tp1693
a(S'Lamar Miller'
p1694
g17
tp1695
a(S'Daniel Thomas'
p1696
g17
tp1697
a(S'Brian Hartline'
p1698
g26
tp1699
a(S'Rishard Matthews'
p1700
g26
tp1701
a(S'Marlon Moore'
p1702
g26
tp1703
a(S'Mike Wallace'
p1704
g26
tp1705
a(S'Charles Clay'
p1706
g39
tp1707
a(S'Dion Sims'
p1708
g39
tp1709
a(S'Caleb Sturgis'
p1710
g46
tp1711
asg48
I00
sg49
F18.0
sg50
F268.0
sg51
F2.0
sg52
F1.0
sg53
F2.0
sg54
S'16-20'
p1712
sg56
I00
sg57
F95.0
sg58
F0.0
ssg59
(dp1713
g5
F0.0
sg6
F0.0
sg7
(lp1714
(S'Zac Dysert'
p1715
g10
tp1716
a(S'Brock Osweiler'
p1717
g10
tp1718
a(S'C.J. Anderson'
p1719
g17
tp1720
a(S'Ronnie Hillman'
p1721
g17
tp1722
a(S'Andre Caldwell'
p1723
g26
tp1724
a(S'Eric Decker'
p1725
g26
tp1726
a(S'Demaryius Thomas'
p1727
g26
tp1728
a(S'Wes Welker'
p1729
g26
tp1730
a(S'Virgil Green'
p1731
g39
tp1732
a(S'Jacob Tamme'
p1733
g39
tp1734
a(S'Julius Thomas'
p1735
g39
tp1736
a(S'Matt Prater'
p1737
g46
tp1738
asg48
I00
sg49
F0.0
sg50
F0.0
sg51
F0.0
sg52
F0.0
sg53
F0.0
sg54
S'20-28'
p1739
sg56
I01
sg57
F0.0
sg58
F0.0
ssg65
(dp1740
g5
F23.0
sg6
F0.0
sg7
(lp1741
(S'Andy Dalton'
p1742
g10
tp1743
a(S'Josh Johnson'
p1744
g10
tp1745
a(S'Dan LeFevour'
p1746
g10
tp1747
a(S'Giovani Bernard'
p1748
g17
tp1749
a(S'Rex Burkhead'
p1750
g17
tp1751
a(S'Cedric Peerman'
p1752
g17
tp1753
a(S'A.J. Green'
p1754
g26
tp1755
a(S'Andrew Hawkins'
p1756
g26
tp1757
a(S'Marvin Jones'
p1758
g26
tp1759
a(S'Mohamed Sanu'
p1760
g26
tp1761
a(S'Brandon Tate'
p1762
g26
tp1763
a(S'Orson Charles'
p1764
g39
tp1765
a(S'Tyler Eifert'
p1766
g39
tp1767
a(S'Jermaine Gresham'
p1768
g39
tp1769
a(S'Alex Smith'
p1770
g39
tp1771
a(S'Mike Nugent'
p1772
g46
tp1773
asg48
I00
sg49
F18.0
sg50
F190.0
sg51
F1.0
sg52
F1.0
sg53
F1.0
sg54
S'10-17'
p1774
sg56
I01
sg57
F72.0
sg58
F0.0
ssg101
(dp1775
g5
F38.0
sg6
F2.0
sg7
(lp1776
(S'Tyler Bray'
p1777
g10
tp1778
a(S'Chase Daniel'
p1779
g10
tp1780
a(S'Alex Smith'
p1781
g10
tp1782
a(S'Jamaal Charles'
p1783
g17
tp1784
a(S'Knile Davis'
p1785
g17
tp1786
a(S'Cyrus Gray'
p1787
g17
tp1788
a(S'Dexter McCluster'
p1789
g17
tp1790
a(S'Anthony Sherman'
p1791
g17
tp1792
a(S'Dwayne Bowe'
p1793
g26
tp1794
a(S'Anthony Fasano'
p1795
g39
tp1796
a(S'Sean McGrath'
p1797
g39
tp1798
a(S'Ryan Succop'
p1799
g46
tp1800
asg48
I01
sg49
F18.0
sg50
F294.0
sg51
F1.0
sg52
F3.0
sg53
F1.0
sg54
S'41-38'
p1801
sg56
I00
sg57
F114.0
sg58
F0.0
ssg141
(dp1802
g5
F0.0
sg6
F0.0
sg7
(lp1803
(S'Zac Dysert'
p1804
g10
tp1805
a(S'Brock Osweiler'
p1806
g10
tp1807
a(S'C.J. Anderson'
p1808
g17
tp1809
a(S'Ronnie Hillman'
p1810
g17
tp1811
a(S'Andre Caldwell'
p1812
g26
tp1813
a(S'Eric Decker'
p1814
g26
tp1815
a(S'Demaryius Thomas'
p1816
g26
tp1817
a(S'Wes Welker'
p1818
g26
tp1819
a(S'Virgil Green'
p1820
g39
tp1821
a(S'Jacob Tamme'
p1822
g39
tp1823
a(S'Julius Thomas'
p1824
g39
tp1825
a(S'Matt Prater'
p1826
g46
tp1827
asg48
I01
sg49
F0.0
sg50
F0.0
sg51
F2.0
sg52
F0.0
sg53
F2.0
sg54
S'27-20'
p1828
sg56
I00
sg57
F0.0
sg58
F0.0
ssg177
(dp1829
g5
F32.0
sg6
F0.0
sg7
(lp1830
(S'Eli Manning'
p1831
g10
tp1832
a(S'Ryan Nassib'
p1833
g10
tp1834
a(S'Victor Cruz'
p1835
g26
tp1836
a(S'Louis Murphy'
p1837
g26
tp1838
a(S'Hakeem Nicks'
p1839
g26
tp1840
a(S'Rueben Randle'
p1841
g26
tp1842
a(S'Larry Donnell'
p1843
g39
tp1844
a(S'Brandon Myers'
p1845
g39
tp1846
a(S'Bear Pascoe'
p1847
g39
tp1848
a(S'Josh Brown'
p1849
g46
tp1850
asg48
I01
sg49
F0.0
sg50
F259.0
sg51
F0.0
sg52
F1.0
sg53
F0.0
sg54
S'37-14'
p1851
sg56
I01
sg57
F0.0
sg58
F0.0
ssg215
(dp1852
g5
F30.0
sg6
F2.0
sg7
(lp1853
(S'Tyler Bray'
p1854
g10
tp1855
a(S'Chase Daniel'
p1856
g10
tp1857
a(S'Alex Smith'
p1858
g10
tp1859
a(S'Jamaal Charles'
p1860
g17
tp1861
a(S'Knile Davis'
p1862
g17
tp1863
a(S'Cyrus Gray'
p1864
g17
tp1865
a(S'Dexter McCluster'
p1866
g17
tp1867
a(S'Anthony Sherman'
p1868
g17
tp1869
a(S'Dwayne Bowe'
p1870
g26
tp1871
a(S'Anthony Fasano'
p1872
g39
tp1873
a(S'Richard Gordon'
p1874
g39
tp1875
a(S'Sean McGrath'
p1876
g39
tp1877
a(S'Ryan Succop'
p1878
g46
tp1879
asg48
I01
sg49
F36.0
sg50
F200.0
sg51
F2.0
sg52
F1.0
sg53
F1.0
sg54
S'27-24'
p1880
sg56
I01
sg57
F142.0
sg58
F0.0
ssg249
(dp1881
g5
F36.0
sg6
F1.0
sg7
(lp1882
(S'Matt McGloin'
p1883
g10
tp1884
a(S'Rashad Jennings'
p1885
g17
tp1886
a(S'Taiwan Jones'
p1887
g17
tp1888
a(S'Darren McFadden'
p1889
g17
tp1890
a(S'Jamize Olawale'
p1891
g17
tp1892
a(S'Marcel Reece'
p1893
g17
tp1894
a(S'Brice Butler'
p1895
g26
tp1896
a(S'Andre Holmes'
p1897
g26
tp1898
a(S'Terrelle Pryor'
p1899
g26
tp1900
a(S'Rod Streater'
p1901
g26
tp1902
a(S'Mychal Rivera'
p1903
g39
tp1904
a(S'Sebastian Janikowski'
p1905
g46
tp1906
asg48
I01
sg49
F17.0
sg50
F206.0
sg51
F2.0
sg52
F0.0
sg53
F2.0
sg54
S'26-13'
p1907
sg56
I01
sg57
F59.0
sg58
F0.0
ssg289
(dp1908
g5
F45.0
sg6
F0.0
sg7
(lp1909
(S'Case Keenum'
p1910
g10
tp1911
a(S'Matt Schaub'
p1912
g10
tp1913
a(S'T.J. Yates'
p1914
g10
tp1915
a(S'Arian Foster'
p1916
g17
tp1917
a(S'DeAndre Hopkins'
p1918
g26
tp1919
a(S'Andre Johnson'
p1920
g26
tp1921
a(S'Keshawn Martin'
p1922
g26
tp1923
a(S'DeVier Posey'
p1924
g26
tp1925
a(S'Owen Daniels'
p1926
g39
tp1927
a(S'Garrett Graham'
p1928
g39
tp1929
a(S'Ryan Griffin'
p1930
g39
tp1931
a(S'Randy Bullock'
p1932
g46
tp1933
asg48
I00
sg49
F18.0
sg50
F346.0
sg51
F2.0
sg52
F3.0
sg53
F1.0
sg54
S'28-31'
p1934
sg56
I01
sg57
F57.0
sg58
F0.0
ssg321
(dp1935
g5
F0.0
sg6
F0.0
sg7
(lp1936
(S'Ryan Fitzpatrick'
p1937
g10
tp1938
a(S'Chris Johnson'
p1939
g17
tp1940
a(S'Kenny Britt'
p1941
g26
tp1942
a(S'Justin Hunter'
p1943
g26
tp1944
a(S'Nate Washington'
p1945
g26
tp1946
a(S'Kendall Wright'
p1947
g26
tp1948
a(S'Craig Stevens'
p1949
g39
tp1950
a(S'Delanie Walker'
p1951
g39
tp1952
asg48
I00
sg49
F19.0
sg50
F0.0
sg51
F0.0
sg52
F0.0
sg53
F0.0
sg54
S'17-20'
p1953
sg56
I00
sg57
F90.0
sg58
F0.0
ssg361
(dp1954
g5
F37.0
sg6
F1.0
sg7
(lp1955
(S'Matt Barkley'
p1956
g10
tp1957
a(S'Nick Foles'
p1958
g10
tp1959
a(S'Mike Vick'
p1960
g10
tp1961
a(S'Bryce Brown'
p1962
g17
tp1963
a(S'LeSean McCoy'
p1964
g17
tp1965
a(S'Chris Polk'
p1966
g17
tp1967
a(S'Jason Avant'
p1968
g26
tp1969
a(S'DeSean Jackson'
p1970
g26
tp1971
a(S'Damaris Johnson'
p1972
g26
tp1973
a(S'Brent Celek'
p1974
g39
tp1975
a(S'Zach Ertz'
p1976
g39
tp1977
asg48
I01
sg49
F19.0
sg50
F428.0
sg51
F0.0
sg52
F2.0
sg53
F0.0
sg54
S'33-30'
p1978
sg56
I00
sg57
F100.0
sg58
F0.0
ssg399
(dp1979
g5
F0.0
sg6
F0.0
sg7
(lp1980
(S'Matt Flynn'
p1981
g10
tp1982
a(S'Matt McGloin'
p1983
g10
tp1984
a(S'Rashad Jennings'
p1985
g17
tp1986
a(S'Taiwan Jones'
p1987
g17
tp1988
a(S'Darren McFadden'
p1989
g17
tp1990
a(S'Jamize Olawale'
p1991
g17
tp1992
a(S'Marcel Reece'
p1993
g17
tp1994
a(S'Brice Butler'
p1995
g26
tp1996
a(S'Terrelle Pryor'
p1997
g26
tp1998
a(S'Rod Streater'
p1999
g26
tp2000
a(S'Mychal Rivera'
p2001
g39
tp2002
a(S'Sebastian Janikowski'
p2003
g46
tp2004
asg48
I00
sg49
F28.0
sg50
F0.0
sg51
F2.0
sg52
F0.0
sg53
F2.0
sg54
S'17-27'
p2005
sg56
I00
sg57
F104.0
sg58
F0.0
ssg437
(dp2006
g5
F37.0
sg6
F0.0
sg7
(lp2007
(S'Tony Romo'
p2008
g10
tp2009
a(S'Lance Dunbar'
p2010
g17
tp2011
a(S'DeMarco Murray'
p2012
g17
tp2013
a(S'Cole Beasley'
p2014
g26
tp2015
a(S'Dez Bryant'
p2016
g26
tp2017
a(S'Dwayne Harris'
p2018
g26
tp2019
a(S'Terrance Williams'
p2020
g26
tp2021
a(S'Gavin Escobar'
p2022
g39
tp2023
a(S'James Hanna'
p2024
g39
tp2025
a(S'Jason Witten'
p2026
g39
tp2027
a(S'Dan Bailey'
p2028
g46
tp2029
asg48
I01
sg49
F16.0
sg50
F246.0
sg51
F1.0
sg52
F2.0
sg53
F0.0
sg54
S'30-21'
p2030
sg56
I01
sg57
F92.0
sg58
F0.0
ssg479
(dp2031
g5
F36.0
sg6
F0.0
sg7
(lp2032
(S'Blaine Gabbert'
p2033
g10
tp2034
a(S'Chad Henne'
p2035
g10
tp2036
a(S'Justin Forsett'
p2037
g17
tp2038
a(S'Denard Robinson'
p2039
g17
tp2040
a(S'Jordan Todman'
p2041
g17
tp2042
a(S'Justin Blackmon'
p2043
g26
tp2044
a(S'Cecil Shorts'
p2045
g26
tp2046
a(S'Clay Harbor'
p2047
g39
tp2048
a(S'Marcedes Lewis'
p2049
g39
tp2050
a(S'Josh Scobee'
p2051
g46
tp2052
asg48
I01
sg49
F8.0
sg50
F318.0
sg51
F2.0
sg52
F0.0
sg53
F2.0
sg54
S'24-6'
p2053
sg56
I00
sg57
F41.0
sg58
F0.0
ssg521
(dp2054
g5
F30.0
sg6
F0.0
sg7
(lp2055
(S'Andrew Luck'
p2056
g10
tp2057
a(S'Donald Brown'
p2058
g17
tp2059
a(S'Dan Herron'
p2060
g17
tp2061
a(S'Trent Richardson'
p2062
g17
tp2063
a(S'Darrius Heyward-Bey'
p2064
g26
tp2065
a(S'T.Y. Hilton'
p2066
g26
tp2067
a(S'Jack Doyle'
p2068
g39
tp2069
a(S'Coby Fleener'
p2070
g39
tp2071
a(S'Dominique Jones'
p2072
g39
tp2073
a(S'Adam Vinatieri'
p2074
g46
tp2075
asg48
I01
sg49
F17.0
sg50
F202.0
sg51
F3.0
sg52
F0.0
sg53
F3.0
sg54
S'19-9'
p2076
sg56
I01
sg57
F74.0
sg58
F0.0
ssg559
(dp2077
g5
F32.0
sg6
F4.0
sg7
(lp2078
(S'Kirk Cousins'
p2079
g10
tp2080
a(S'Robert Griffin III'
p2081
g10
tp2082
a(S'Roy Helu'
p2083
g17
tp2084
a(S'Alfred Morris'
p2085
g17
tp2086
a(S'Chris Thompson'
p2087
g17
tp2088
a(S'Darrel Young'
p2089
g17
tp2090
a(S'Pierre Garcon'
p2091
g26
tp2092
a(S'Leonard Hankerson'
p2093
g26
tp2094
a(S'Aldrick Robinson'
p2095
g26
tp2096
a(S'Niles Paul'
p2097
g39
tp2098
a(S'Logan Paulsen'
p2099
g39
tp2100
a(S'Jordan Reed'
p2101
g39
tp2102
a(S'Kai Forbath'
p2103
g46
tp2104
asg48
I00
sg49
F39.0
sg50
F291.0
sg51
F3.0
sg52
F0.0
sg53
F1.0
sg54
S'24-30'
p2105
sg56
I00
sg57
F191.0
sg58
F2.0
ssg593
(dp2106
g5
F0.0
sg6
F0.0
sg7
(lp2107
sg48
(lp2108
sg49
F0.0
sg50
F0.0
sg51
F0.0
sg52
F0.0
sg53
F0.0
sg54
(lp2109
sg56
(lp2110
sg57
F0.0
sg58
F0.0
sssS'2012'
p2111
(dp2112
g3
(dp2113
g5
F0.0
sg6
F0.0
sg7
(lp2114
(S'Brock Osweiler'
p2115
g10
tp2116
a(S'Ronnie Hillman'
p2117
g17
tp2118
a(S'Andre Caldwell'
p2119
g26
tp2120
a(S'Eric Decker'
p2121
g26
tp2122
a(S'Demaryius Thomas'
p2123
g26
tp2124
a(S'Virgil Green'
p2125
g39
tp2126
a(S'Jacob Tamme'
p2127
g39
tp2128
a(S'Julius Thomas'
p2129
g39
tp2130
a(S'Matt Prater'
p2131
g46
tp2132
asg48
I00
sg49
F12.0
sg50
F0.0
sg51
F4.0
sg52
F0.0
sg53
F3.0
sg54
S'23-30'
p2133
sg56
I00
sg57
F43.0
sg58
F0.0
ssg59
(dp2134
g5
F20.0
sg6
F0.0
sg7
(lp2135
(S'Josh Freeman'
p2136
g10
tp2137
a(S'Dan Orlovsky'
p2138
g10
tp2139
a(S'LeGarrette Blount'
p2140
g17
tp2141
a(S'Doug Martin'
p2142
g17
tp2143
a(S'Arrelious Benn'
p2144
g26
tp2145
a(S'Vincent Jackson'
p2146
g26
tp2147
a(S'Chris Owusu'
p2148
g26
tp2149
a(S'Mike Williams'
p2150
g26
tp2151
a(S'Luke Stocker'
p2152
g39
tp2153
a(S'Connor Barth'
p2154
g46
tp2155
asg48
I00
sg49
F21.0
sg50
F210.0
sg51
F2.0
sg52
F2.0
sg53
F2.0
sg54
S'24-34'
p2156
sg56
I00
sg57
F75.0
sg58
F0.0
ssg65
(dp2157
g5
F38.0
sg6
F1.0
sg7
(lp2158
(S'Andy Dalton'
p2159
g10
tp2160
a(S'Bruce Gradkowski'
p2161
g10
tp2162
a(S'Dan LeFevour'
p2163
g10
tp2164
a(S'Cedric Peerman'
p2165
g17
tp2166
a(S'A.J. Green'
p2167
g26
tp2168
a(S'Andrew Hawkins'
p2169
g26
tp2170
a(S'Marvin Jones'
p2171
g26
tp2172
a(S'Mohamed Sanu'
p2173
g26
tp2174
a(S'Brandon Tate'
p2175
g26
tp2176
a(S'Orson Charles'
p2177
g39
tp2178
a(S'Jermaine Gresham'
p2179
g39
tp2180
a(S'Mike Nugent'
p2181
g46
tp2182
asg48
I00
sg49
F6.0
sg50
F211.0
sg51
F2.0
sg52
F1.0
sg53
F2.0
sg54
S'13-20'
p2183
sg56
I01
sg57
F9.0
sg58
F0.0
ssg101
(dp2184
g5
F51.0
sg6
F0.0
sg7
(lp2185
(S'Joe Flacco'
p2186
g10
tp2187
a(S'Tyrod Taylor'
p2188
g10
tp2189
a(S'Bernard Pierce'
p2190
g17
tp2191
a(S'Anquan Boldin'
p2192
g26
tp2193
a(S'Torrey Smith'
p2194
g26
tp2195
a(S'Deonte Thompson'
p2196
g26
tp2197
a(S'Ed Dickson'
p2198
g39
tp2199
a(S'Dennis Pitta'
p2200
g39
tp2201
a(S'Justin Tucker'
p2202
g46
tp2203
asg48
I00
sg49
F13.0
sg50
F355.0
sg51
F3.0
sg52
F1.0
sg53
F3.0
sg54
S'13-16'
p2204
sg56
I01
sg57
F30.0
sg58
F0.0
ssg141
(dp2205
g5
F33.0
sg6
F2.0
sg7
(lp2206
(S'Derek Anderson'
p2207
g10
tp2208
a(S'Jimmy Clausen'
p2209
g10
tp2210
a(S'Cam Newton'
p2211
g10
tp2212
a(S'Jonathan Stewart'
p2213
g17
tp2214
a(S'Mike Tolbert'
p2215
g17
tp2216
a(S'DeAngelo Williams'
p2217
g17
tp2218
a(S'Brandon LaFell'
p2219
g26
tp2220
a(S'Louis Murphy'
p2221
g26
tp2222
a(S'Steve Smith'
p2223
g26
tp2224
a(S'Gary Barnidge'
p2225
g39
tp2226
a(S'Greg Olsen'
p2227
g39
tp2228
a(S'Graham Gano'
p2229
g46
tp2230
asg48
I00
sg49
F36.0
sg50
F231.0
sg51
F1.0
sg52
F2.0
sg53
F1.0
sg54
S'7-31'
p2231
sg56
I01
sg57
F155.0
sg58
F0.0
ssg177
(dp2232
g5
F42.0
sg6
F0.0
sg7
(lp2233
(S'Ben Roethlisberger'
p2234
g10
tp2235
a(S'Will Johnson'
p2236
g17
tp2237
a(S'Antonio Brown'
p2238
g26
tp2239
a(S'Jerricho Cotchery'
p2240
g26
tp2241
a(S'Emmanuel Sanders'
p2242
g26
tp2243
a(S'Mike Wallace'
p2244
g26
tp2245
a(S'Shaun Suisham'
p2246
g46
tp2247
asg48
I01
sg49
F6.0
sg50
F285.0
sg51
F1.0
sg52
F3.0
sg53
F1.0
sg54
S'34-24'
p2248
sg56
I00
sg57
F31.0
sg58
F0.0
ssg215
(dp2249
g5
F0.0
sg6
F1.0
sg7
(lp2250
(S'Carson Palmer'
p2251
g10
tp2252
a(S'Taiwan Jones'
p2253
g17
tp2254
a(S'Darren McFadden'
p2255
g17
tp2256
a(S'Jamize Olawale'
p2257
g17
tp2258
a(S'Marcel Reece'
p2259
g17
tp2260
a(S'Darrius Heyward-Bey'
p2261
g26
tp2262
a(S'Terrelle Pryor'
p2263
g26
tp2264
a(S'Rod Streater'
p2265
g26
tp2266
a(S'Richard Gordon'
p2267
g39
tp2268
a(S'Brandon Myers'
p2269
g39
tp2270
a(S'Sebastian Janikowski'
p2271
g46
tp2272
asg48
I01
sg49
F28.0
sg50
F0.0
sg51
F0.0
sg52
F0.0
sg53
F0.0
sg54
S'24-21'
p2273
sg56
I01
sg57
F106.0
sg58
F0.0
ssg249
(dp2274
g5
F0.0
sg6
F0.0
sg7
(lp2275
(S'Mark Sanchez'
p2276
g10
tp2277
a(S'Bilal Powell'
p2278
g17
tp2279
a(S'Jeremy Kerley'
p2280
g26
tp2281
a(S'Jeff Cumberland'
p2282
g39
tp2283
a(S'Konrad Reuland'
p2284
g39
tp2285
a(S'Nick Folk'
p2286
g46
tp2287
asg48
I01
sg49
F4.0
sg50
F0.0
sg51
F1.0
sg52
F0.0
sg53
F1.0
sg54
S'27-17'
p2288
sg56
I00
sg57
F-1.0
sg58
F0.0
ssg289
(dp2289
g5
F46.0
sg6
F0.0
sg7
(lp2290
(S'Carson Palmer'
p2291
g10
tp2292
a(S'Taiwan Jones'
p2293
g17
tp2294
a(S'Darren McFadden'
p2295
g17
tp2296
a(S'Marcel Reece'
p2297
g17
tp2298
a(S'Darrius Heyward-Bey'
p2299
g26
tp2300
a(S'Terrelle Pryor'
p2301
g26
tp2302
a(S'Rod Streater'
p2303
g26
tp2304
a(S'Richard Gordon'
p2305
g39
tp2306
a(S'Brandon Myers'
p2307
g39
tp2308
a(S'Sebastian Janikowski'
p2309
g46
tp2310
asg48
I01
sg49
F16.0
sg50
F297.0
sg51
F2.0
sg52
F1.0
sg53
F2.0
sg54
S'22-14'
p2311
sg56
I00
sg57
F32.0
sg58
F0.0
ssg321
(dp2312
g5
F40.0
sg6
F0.0
sg7
(lp2313
(S'Luke McCown'
p2314
g10
tp2315
a(S'Matt Ryan'
p2316
g10
tp2317
a(S'Jacquizz Rodgers'
p2318
g17
tp2319
a(S'Harry Douglas'
p2320
g26
tp2321
a(S'Julio Jones'
p2322
g26
tp2323
a(S'Roddy White'
p2324
g26
tp2325
a(S'Matt Bryant'
p2326
g46
tp2327
asg48
I00
sg49
F11.0
sg50
F275.0
sg51
F0.0
sg52
F3.0
sg53
F0.0
sg54
S'3-27'
p2328
sg56
I01
sg57
F36.0
sg58
F0.0
ssg361
(dp2329
g5
F0.0
sg6
F0.0
sg7
(lp2330
(S'Chris Johnson'
p2331
g17
tp2332
a(S'Kenny Britt'
p2333
g26
tp2334
a(S'Nate Washington'
p2335
g26
tp2336
a(S'Kendall Wright'
p2337
g26
tp2338
a(S'Jared Cook'
p2339
g39
tp2340
a(S'Craig Stevens'
p2341
g39
tp2342
asg48
I01
sg49
F8.0
sg50
F0.0
sg51
F0.0
sg52
F0.0
sg53
F0.0
sg54
S'38-10'
p2343
sg56
I01
sg57
F17.0
sg58
F0.0
ssg399
(dp2344
g5
F45.0
sg6
F0.0
sg7
(lp2345
(S'Drew Brees'
p2346
g10
tp2347
a(S'Chase Daniel'
p2348
g10
tp2349
a(S'Travaris Cadet'
p2350
g17
tp2351
a(S'Mark Ingram'
p2352
g17
tp2353
a(S'Chris Ivory'
p2354
g17
tp2355
a(S'Darren Sproles'
p2356
g17
tp2357
a(S'Pierre Thomas'
p2358
g17
tp2359
a(S'Marques Colston'
p2360
g26
tp2361
a(S'Lance Moore'
p2362
g26
tp2363
a(S'Jimmy Graham'
p2364
g39
tp2365
asg48
I00
sg49
F21.0
sg50
F370.0
sg51
F0.0
sg52
F4.0
sg53
F0.0
sg54
S'24-31'
p2366
sg56
I00
sg57
F53.0
sg58
F0.0
ssg437
(dp2367
g5
F42.0
sg6
F1.0
sg7
(lp2368
(S'Matt Cassel'
p2369
g10
tp2370
a(S'Jamaal Charles'
p2371
g17
tp2372
a(S'Shaun Draughn'
p2373
g17
tp2374
a(S'Cyrus Gray'
p2375
g17
tp2376
a(S'Dexter McCluster'
p2377
g17
tp2378
a(S'Dwayne Bowe'
p2379
g26
tp2380
a(S'Tony Moeaki'
p2381
g39
tp2382
a(S'Ryan Succop'
p2383
g46
tp2384
asg48
I01
sg49
F22.0
sg50
F251.0
sg51
F0.0
sg52
F2.0
sg53
F0.0
sg54
S'37-20'
p2385
sg56
I00
sg57
F115.0
sg58
F0.0
ssg479
(dp2386
g5
F0.0
sg6
F0.0
sg7
(lp2387
sg48
(lp2388
sg49
F0.0
sg50
F0.0
sg51
F0.0
sg52
F0.0
sg53
F0.0
sg54
(lp2389
sg56
(lp2390
sg57
F0.0
sg58
F0.0
ssg521
(dp2391
g5
F0.0
sg6
F0.0
sg7
(lp2392
(S'Brock Osweiler'
p2393
g10
tp2394
a(S'Ronnie Hillman'
p2395
g17
tp2396
a(S'Andre Caldwell'
p2397
g26
tp2398
a(S'Eric Decker'
p2399
g26
tp2400
a(S'Demaryius Thomas'
p2401
g26
tp2402
a(S'Virgil Green'
p2403
g39
tp2404
a(S'Jacob Tamme'
p2405
g39
tp2406
a(S'Julius Thomas'
p2407
g39
tp2408
a(S'Matt Prater'
p2409
g46
tp2410
asg48
I00
sg49
F2.0
sg50
F0.0
sg51
F0.0
sg52
F0.0
sg53
F0.0
sg54
S'24-35'
p2411
sg56
I01
sg57
F3.0
sg58
F0.0
ssg559
(dp2412
g5
F29.0
sg6
F1.0
sg7
(lp2413
(S'Matt Cassel'
p2414
g10
tp2415
a(S'Jamaal Charles'
p2416
g17
tp2417
a(S'Shaun Draughn'
p2418
g17
tp2419
a(S'Cyrus Gray'
p2420
g17
tp2421
a(S'Dexter McCluster'
p2422
g17
tp2423
a(S'Dwayne Bowe'
p2424
g26
tp2425
a(S'Tony Moeaki'
p2426
g39
tp2427
a(S'Ryan Succop'
p2428
g46
tp2429
asg48
I01
sg49
F23.0
sg50
F181.0
sg51
F3.0
sg52
F0.0
sg53
F2.0
sg54
S'31-13'
p2430
sg56
I01
sg57
F99.0
sg58
F0.0
ssg593
(dp2431
g5
F27.0
sg6
F1.0
sg7
(lp2432
(S'Colt McCoy'
p2433
g10
tp2434
a(S'Brandon Weeden'
p2435
g10
tp2436
a(S'Trent Richardson'
p2437
g17
tp2438
a(S'Travis Benjamin'
p2439
g26
tp2440
a(S'Josh Gordon'
p2441
g26
tp2442
a(S'Greg Little'
p2443
g26
tp2444
a(S'Jordan Cameron'
p2445
g39
tp2446
a(S'Alex Smith'
p2447
g39
tp2448
a(S'Benjamin Watson'
p2449
g39
tp2450
a(S'Phil Dawson'
p2451
g46
tp2452
asg48
I00
sg49
F28.0
sg50
F129.0
sg51
F0.0
sg52
F0.0
sg53
F0.0
sg54
S'6-7'
p2453
sg56
I00
sg57
F126.0
sg58
F0.0
sss.