(dp0
S'2015'
p1
(dp2
S'11'
p3
(dp4
S'PassAtt'
p5
F34.0
sS'RushTD'
p6
F0.0
sS'Players'
p7
(lp8
(S'Blaine Gabbert'
p9
S'QB'
p10
tp11
a(S'Dylan Thompson'
p12
g10
tp13
a(S'Travaris Cadet'
p14
S'RB'
p15
tp16
a(S'Shaun Draughn'
p17
g15
tp18
a(S'Kendall Gaskins'
p19
g15
tp20
a(S'Carlos Hyde'
p21
g15
tp22
a(S'Bruce Miller'
p23
g15
tp24
a(S'Anquan Boldin'
p25
S'WR'
p26
tp27
a(S'Bruce Ellington'
p28
g26
tp29
a(S'Quinton Patton'
p30
g26
tp31
a(S'Jerome Simpson'
p32
g26
tp33
a(S'Torrey Smith'
p34
g26
tp35
a(S'DeAndrew White'
p36
g26
tp37
a(S'Blake Bell'
p38
S'TE'
p39
tp40
a(S'Garrett Celek'
p41
g39
tp42
a(S'Vance McDonald'
p43
g39
tp44
a(S'Phil Dawson'
p45
S'K'
p46
tp47
asS'Won'
p48
I01
sS'RushAtt'
p49
F16.0
sS'PassYds'
p50
F264.0
sS'FGAtt'
p51
F2.0
sS'PassTD'
p52
F1.0
sS'FGM'
p53
F2.0
sS'Score'
p54
S'29-13'
p55
sS'Home'
p56
I01
sS'RushYds'
p57
F59.0
sS'FGBlk'
p58
F0.0
ssS'10'
p59
(dp60
g5
F47.0
sg6
F1.0
sg7
(lp61
(S'Matt Barkley'
p62
g10
tp63
a(S'Carson Palmer'
p64
g10
tp65
a(S'Drew Stanton'
p66
g10
tp67
a(S'Andre Ellington'
p68
g15
tp69
a(S'Chris Johnson'
p70
g15
tp71
a(S'David Johnson'
p72
g15
tp73
a(S'Stepfan Taylor'
p74
g15
tp75
a(S'Jaron Brown'
p76
g26
tp77
a(S'John Brown'
p78
g26
tp79
a(S'Larry Fitzgerald'
p80
g26
tp81
a(S'Michael Floyd'
p82
g26
tp83
a(S'Brittan Golden'
p84
g26
tp85
a(S'J.J. Nelson'
p86
g26
tp87
a(S'Darren Fells'
p88
g39
tp89
a(S'Jermaine Gresham'
p90
g39
tp91
a(S'Troy Niklas'
p92
g39
tp93
a(S'Chandler Catanzaro'
p94
g46
tp95
asg48
I00
sg49
F33.0
sg50
F363.0
sg51
F3.0
sg52
F3.0
sg53
F3.0
sg54
S'32-39'
p96
sg56
I01
sg57
F117.0
sg58
F0.0
ssS'13'
p97
(dp98
g5
F28.0
sg6
F0.0
sg7
(lp99
(S'Teddy Bridgewater'
p100
g10
tp101
a(S'Taylor Heinicke'
p102
g10
tp103
a(S'Shaun Hill'
p104
g10
tp105
a(S'Matt Asiata'
p106
g15
tp107
a(S'Zach Line'
p108
g15
tp109
a(S'Jerick McKinnon'
p110
g15
tp111
a(S'Adrian Peterson'
p112
g15
tp113
a(S'Stefon Diggs'
p114
g26
tp115
a(S'Charles Johnson'
p116
g26
tp117
a(S'Cordarrelle Patterson'
p118
g26
tp119
a(S'Adam Thielen'
p120
g26
tp121
a(S'Mike Wallace'
p122
g26
tp123
a(S'Jarius Wright'
p124
g26
tp125
a(S'Rhett Ellison'
p126
g39
tp127
a(S'MyCole Pruitt'
p128
g39
tp129
a(S'Kyle Rudolph'
p130
g39
tp131
a(S'Blair Walsh'
p132
g46
tp133
asg48
I01
sg49
F16.0
sg50
F118.0
sg51
F0.0
sg52
F0.0
sg53
F0.0
sg54
S'38-7'
p134
sg56
I00
sg57
F31.0
sg58
F0.0
ssS'12'
p135
(dp136
g5
F59.0
sg6
F2.0
sg7
(lp137
(S'Landry Jones'
p138
g10
tp139
a(S'Ben Roethlisberger'
p140
g10
tp141
a(S'Mike Vick'
p142
g10
tp143
a(S'Will Johnson'
p144
g15
tp145
a(S'Roosevelt Nix-Jones'
p146
g15
tp147
a(S'Jordan Todman'
p148
g15
tp149
a(S'Fitzgerald Toussaint'
p150
g15
tp151
a(S'DeAngelo Williams'
p152
g15
tp153
a(S'Antonio Brown'
p154
g26
tp155
a(S'Martavis Bryant'
p156
g26
tp157
a(S'Sammie Coates'
p158
g26
tp159
a(S'Darrius Heyward-Bey'
p160
g26
tp161
a(S'Markus Wheaton'
p162
g26
tp163
a(S'Jesse James'
p164
g39
tp165
a(S'Matt Spaeth'
p166
g39
tp167
a(S'Chris Boswell'
p168
g46
tp169
asg48
I01
sg49
F14.0
sg50
F490.0
sg51
F3.0
sg52
F1.0
sg53
F3.0
sg54
S'39-30'
p170
sg56
I01
sg57
F58.0
sg58
F0.0
ssS'15'
p171
(dp172
g5
F32.0
sg6
F0.0
sg7
(lp173
(S'Austin Davis'
p174
g10
tp175
a(S'Johnny Manziel'
p176
g10
tp177
a(S'Isaiah Crowell'
p178
g15
tp179
a(S'Duke Johnson'
p180
g15
tp181
a(S'Raheem Mostert'
p182
g15
tp183
a(S'Daryl Richardson'
p184
g15
tp185
a(S'Glenn Winston'
p186
g15
tp187
a(S'Travis Benjamin'
p188
g26
tp189
a(S'Dwayne Bowe'
p190
g26
tp191
a(S'Taylor Gabriel'
p192
g26
tp193
a(S'Rannell Hall'
p194
g26
tp195
a(S'Andrew Hawkins'
p196
g26
tp197
a(S'Marlon Moore'
p198
g26
tp199
a(S'Terrelle Pryor'
p200
g26
tp201
a(S'Gary Barnidge'
p202
g39
tp203
a(S'E.J. Bibbs'
p204
g39
tp205
a(S'Jim Dray'
p206
g39
tp207
a(S'Travis Coons'
p208
g46
tp209
asg48
I01
sg49
F17.0
sg50
F161.0
sg51
F2.0
sg52
F1.0
sg53
F2.0
sg54
S'30-13'
p210
sg56
I01
sg57
F94.0
sg58
F0.0
ssS'14'
p211
(dp212
g5
F40.0
sg6
F0.0
sg7
(lp213
(S'Jimmy Clausen'
p214
g10
tp215
a(S'Matt Schaub'
p216
g10
tp217
a(S'Javorius Allen'
p218
g15
tp219
a(S'Kyle Juszczyk'
p220
g15
tp221
a(S'Raheem Mostert'
p222
g15
tp223
a(S'Terrance West'
p224
g15
tp225
a(S'Kamar Aiken'
p226
g26
tp227
a(S'Daniel Brown'
p228
g26
tp229
a(S'Jeremy Butler'
p230
g26
tp231
a(S'Kaelin Clay'
p232
g26
tp233
a(S'Chris Givens'
p234
g26
tp235
a(S'Chris Matthews'
p236
g26
tp237
a(S'Crockett Gillmore'
p238
g39
tp239
a(S'Richard Gordon'
p240
g39
tp241
a(S'Konrad Reuland'
p242
g39
tp243
a(S'Maxx Williams'
p244
g39
tp245
a(S'Justin Tucker'
p246
g46
tp247
asg48
I01
sg49
F14.0
sg50
F274.0
sg51
F2.0
sg52
F0.0
sg53
F2.0
sg54
S'35-6'
p248
sg56
I00
sg57
F28.0
sg58
F0.0
ssS'17'
p249
(dp250
g5
F43.0
sg6
F0.0
sg7
(lp251
(S'Matt Barkley'
p252
g10
tp253
a(S'Carson Palmer'
p254
g10
tp255
a(S'Drew Stanton'
p256
g10
tp257
a(S'Andre Ellington'
p258
g15
tp259
a(S'David Johnson'
p260
g15
tp261
a(S'Stepfan Taylor'
p262
g15
tp263
a(S'Kerwynn Williams'
p264
g15
tp265
a(S'Jaron Brown'
p266
g26
tp267
a(S'John Brown'
p268
g26
tp269
a(S'Larry Fitzgerald'
p270
g26
tp271
a(S'Michael Floyd'
p272
g26
tp273
a(S'Brittan Golden'
p274
g26
tp275
a(S'J.J. Nelson'
p276
g26
tp277
a(S'Darren Fells'
p278
g39
tp279
a(S'Jermaine Gresham'
p280
g39
tp281
a(S'Troy Niklas'
p282
g39
tp283
a(S'Chandler Catanzaro'
p284
g46
tp285
asg48
I01
sg49
F13.0
sg50
F213.0
sg51
F1.0
sg52
F1.0
sg53
F0.0
sg54
S'36-6'
p286
sg56
I00
sg57
F27.0
sg58
F0.0
ssS'16'
p287
(dp288
g5
F23.0
sg6
F1.0
sg7
(lp289
(S'Nick Foles'
p290
g10
tp291
a(S'Case Keenum'
p292
g10
tp293
a(S'Sean Mannion'
p294
g10
tp295
a(S'Benny Cunningham'
p296
g15
tp297
a(S'Todd Gurley'
p298
g15
tp299
a(S'Tre Mason'
p300
g15
tp301
a(S'Chase Reynolds'
p302
g15
tp303
a(S'Tavon Austin'
p304
g26
tp305
a(S'Kenny Britt'
p306
g26
tp307
a(S'Bradley Marquez'
p308
g26
tp309
a(S'Brian Quick'
p310
g26
tp311
a(S'Jared Cook'
p312
g39
tp313
a(S'Cory Harkey'
p314
g39
tp315
a(S'Lance Kendricks'
p316
g39
tp317
a(S'Greg Zuerlein'
p318
g46
tp319
asg48
I00
sg49
F30.0
sg50
F103.0
sg51
F1.0
sg52
F1.0
sg53
F1.0
sg54
S'17-23'
p320
sg56
I01
sg57
F102.0
sg58
F0.0
ssS'1'
p321
(dp322
g5
F27.0
sg6
F2.0
sg7
(lp323
(S'Nick Foles'
p324
g10
tp325
a(S'Case Keenum'
p326
g10
tp327
a(S'Sean Mannion'
p328
g10
tp329
a(S'Benny Cunningham'
p330
g15
tp331
a(S'Todd Gurley'
p332
g15
tp333
a(S'Tre Mason'
p334
g15
tp335
a(S'Isaiah Pead'
p336
g15
tp337
a(S'Chase Reynolds'
p338
g15
tp339
a(S'Tavon Austin'
p340
g26
tp341
a(S'Stedman Bailey'
p342
g26
tp343
a(S'Kenny Britt'
p344
g26
tp345
a(S'Chris Givens'
p346
g26
tp347
a(S'Bradley Marquez'
p348
g26
tp349
a(S'Brian Quick'
p350
g26
tp351
a(S'Jared Cook'
p352
g39
tp353
a(S'Cory Harkey'
p354
g39
tp355
a(S'Lance Kendricks'
p356
g39
tp357
a(S'Greg Zuerlein'
p358
g46
tp359
asg48
I00
sg49
F26.0
sg50
F297.0
sg51
F2.0
sg52
F1.0
sg53
F2.0
sg54
S'31-34'
p360
sg56
I00
sg57
F76.0
sg58
F0.0
ssS'3'
p361
(dp362
g5
F17.0
sg6
F0.0
sg7
(lp363
(S'Jimmy Clausen'
p364
g10
tp365
a(S'Jay Cutler'
p366
g10
tp367
a(S'David Fales'
p368
g10
tp369
a(S"Ka'Deem Carey"
p370
g15
tp371
a(S'Matt Forte'
p372
g15
tp373
a(S'Jeremy Langford'
p374
g15
tp375
a(S'Jacquizz Rodgers'
p376
g15
tp377
a(S'Josh Bellamy'
p378
g26
tp379
a(S'Alshon Jeffery'
p380
g26
tp381
a(S'Marc Mariani'
p382
g26
tp383
a(S'Cameron Meredith'
p384
g26
tp385
a(S'Eddie Royal'
p386
g26
tp387
a(S'Marquess Wilson'
p388
g26
tp389
a(S'Martellus Bennett'
p390
g39
tp391
a(S'Khari Lee'
p392
g39
tp393
a(S'Zach Miller'
p394
g39
tp395
a(S'Robbie Gould'
p396
g46
tp397
asg48
I01
sg49
F27.0
sg50
F63.0
sg51
F0.0
sg52
F0.0
sg53
F0.0
sg54
S'26-0'
p398
sg56
I01
sg57
F98.0
sg58
F0.0
ssS'2'
p399
(dp400
g5
F33.0
sg6
F0.0
sg7
(lp401
(S'Brett Hundley'
p402
g10
tp403
a(S'Aaron Rodgers'
p404
g10
tp405
a(S'Scott Tolzien'
p406
g10
tp407
a(S'John Kuhn'
p408
g15
tp409
a(S'Eddie Lacy'
p410
g15
tp411
a(S'Aaron Ripkowski'
p412
g15
tp413
a(S'James Starks'
p414
g15
tp415
a(S'Davante Adams'
p416
g26
tp417
a(S'Randall Cobb'
p418
g26
tp419
a(S'Jeff Janis'
p420
g26
tp421
a(S'James Jones'
p422
g26
tp423
a(S'Ty Montgomery'
p424
g26
tp425
a(S'Kennard Backman'
p426
g39
tp427
a(S'Andrew Quarless'
p428
g39
tp429
a(S'Richard Rodgers'
p430
g39
tp431
a(S'Mason Crosby'
p432
g46
tp433
asg48
I00
sg49
F29.0
sg50
F249.0
sg51
F4.0
sg52
F2.0
sg53
F4.0
sg54
S'17-27'
p434
sg56
I00
sg57
F127.0
sg58
F0.0
ssS'5'
p435
(dp436
g5
F44.0
sg6
F1.0
sg7
(lp437
(S'Andy Dalton'
p438
g10
tp439
a(S'AJ McCarron'
p440
g10
tp441
a(S'Giovani Bernard'
p442
g15
tp443
a(S'Rex Burkhead'
p444
g15
tp445
a(S'Jeremy Hill'
p446
g15
tp447
a(S'Cedric Peerman'
p448
g15
tp449
a(S'Mario Alford'
p450
g26
tp451
a(S'A.J. Green'
p452
g26
tp453
a(S'Marvin Jones'
p454
g26
tp455
a(S'Greg Little'
p456
g26
tp457
a(S'Mohamed Sanu'
p458
g26
tp459
a(S'Brandon Tate'
p460
g26
tp461
a(S'Tyler Eifert'
p462
g39
tp463
a(S'Ryan Hewitt'
p464
g39
tp465
a(S'Tyler Kroft'
p466
g39
tp467
a(S'C.J. Uzomah'
p468
g39
tp469
a(S'Mike Nugent'
p470
g46
tp471
asg48
I00
sg49
F31.0
sg50
F331.0
sg51
F2.0
sg52
F2.0
sg53
F2.0
sg54
S'24-27'
p472
sg56
I00
sg57
F109.0
sg58
F0.0
ssS'4'
p473
(dp474
g5
F35.0
sg6
F0.0
sg7
(lp475
(S'Dan Orlovsky'
p476
g10
tp477
a(S'Matthew Stafford'
p478
g10
tp479
a(S'Ameer Abdullah'
p480
g15
tp481
a(S'Michael Burton'
p482
g15
tp483
a(S'Theo Riddick'
p484
g15
tp485
a(S'Zach Zenner'
p486
g15
tp487
a(S'Corey Fuller'
p488
g26
tp489
a(S'T.J. Jones'
p490
g26
tp491
a(S'Lance Moore'
p492
g26
tp493
a(S'Golden Tate'
p494
g26
tp495
a(S'Eric Ebron'
p496
g39
tp497
a(S'Brandon Pettigrew'
p498
g39
tp499
a(S'Timothy Wright'
p500
g39
tp501
a(S'Matt Prater'
p502
g46
tp503
asg48
I01
sg49
F18.0
sg50
F203.0
sg51
F1.0
sg52
F0.0
sg53
F1.0
sg54
S'13-10'
p504
sg56
I01
sg57
F53.0
sg58
F0.0
ssS'7'
p505
(dp506
g5
F24.0
sg6
F0.0
sg7
(lp507
(S'Blaine Gabbert'
p508
g10
tp509
a(S'Colin Kaepernick'
p510
g10
tp511
a(S'Reggie Bush'
p512
g15
tp513
a(S'Mike Davis'
p514
g15
tp515
a(S'Carlos Hyde'
p516
g15
tp517
a(S'Bruce Miller'
p518
g15
tp519
a(S'Anquan Boldin'
p520
g26
tp521
a(S'Bruce Ellington'
p522
g26
tp523
a(S'Quinton Patton'
p524
g26
tp525
a(S'Torrey Smith'
p526
g26
tp527
a(S'DeAndrew White'
p528
g26
tp529
a(S'Blake Bell'
p530
g39
tp531
a(S'Garrett Celek'
p532
g39
tp533
a(S'Vernon Davis'
p534
g39
tp535
a(S'Vance McDonald'
p536
g39
tp537
a(S'Phil Dawson'
p538
g46
tp539
asg48
I01
sg49
F15.0
sg50
F124.0
sg51
F1.0
sg52
F0.0
sg53
F1.0
sg54
S'20-3'
p540
sg56
I00
sg57
F61.0
sg58
F0.0
ssS'6'
p541
(dp542
g5
F36.0
sg6
F3.0
sg7
(lp543
(S'Derek Anderson'
p544
g10
tp545
a(S'Cam Newton'
p546
g10
tp547
a(S'Joe Webb'
p548
g10
tp549
a(S'Cameron Artis-Payne'
p550
g15
tp551
a(S'Jonathan Stewart'
p552
g15
tp553
a(S'Mike Tolbert'
p554
g15
tp555
a(S'Brandon Wegher'
p556
g15
tp557
a(S'Fozzy Whittaker'
p558
g15
tp559
a(S'Brenton Bersin'
p560
g26
tp561
a(S'Corey Brown'
p562
g26
tp563
a(S'Jerricho Cotchery'
p564
g26
tp565
a(S'Devin Funchess'
p566
g26
tp567
a(S'Ted Ginn'
p568
g26
tp569
a(S'Kevin Norwood'
p570
g26
tp571
a(S'Ed Dickson'
p572
g39
tp573
a(S'Greg Olsen'
p574
g39
tp575
a(S'Graham Gano'
p576
g46
tp577
asg48
I00
sg49
F33.0
sg50
F269.0
sg51
F0.0
sg52
F1.0
sg53
F0.0
sg54
S'23-27'
p578
sg56
I01
sg57
F135.0
sg58
F0.0
ssS'9'
p579
(dp580
g5
F0.0
sg6
F0.0
sg7
(lp581
sg48
(lp582
sg49
F0.0
sg50
F0.0
sg51
F0.0
sg52
F0.0
sg53
F0.0
sg54
(lp583
sg56
(lp584
sg57
F0.0
sg58
F0.0
ssS'8'
p585
(dp586
g5
F25.0
sg6
F0.0
sg7
(lp587
(S'Matt Cassel'
p588
g10
tp589
a(S'Kellen Moore'
p590
g10
tp591
a(S'Brandon Weeden'
p592
g10
tp593
a(S'Tyler Clutts'
p594
g15
tp595
a(S'Darren McFadden'
p596
g15
tp597
a(S'Christine Michael'
p598
g15
tp599
a(S'Rod Smith'
p600
g15
tp601
a(S'Cole Beasley'
p602
g26
tp603
a(S'Dez Bryant'
p604
g26
tp605
a(S'Brice Butler'
p606
g26
tp607
a(S'Devin Street'
p608
g26
tp609
a(S'Lucky Whitehead'
p610
g26
tp611
a(S'Terrance Williams'
p612
g26
tp613
a(S'Gavin Escobar'
p614
g39
tp615
a(S'James Hanna'
p616
g39
tp617
a(S'Geoff Swaim'
p618
g39
tp619
a(S'Jason Witten'
p620
g39
tp621
a(S'Dan Bailey'
p622
g46
tp623
asg48
I01
sg49
F30.0
sg50
F97.0
sg51
F4.0
sg52
F0.0
sg53
F4.0
sg54
S'13-12'
p624
sg56
I00
sg57
F129.0
sg58
F0.0
sssS'2014'
p625
(dp626
g3
(dp627
g5
F16.0
sg6
F3.0
sg7
(lp628
(S'Chase Daniel'
p629
g10
tp630
a(S'Aaron Murray'
p631
g10
tp632
a(S'Alex Smith'
p633
g10
tp634
a(S'Jamaal Charles'
p635
g15
tp636
a(S'Knile Davis'
p637
g15
tp638
a(S'Anthony Sherman'
p639
g15
tp640
a(S'Charcandrick West'
p641
g15
tp642
a(S'Dwayne Bowe'
p643
g26
tp644
a(S'Frankie Hammond'
p645
g26
tp646
a(S"De'Anthony Thomas"
p647
g26
tp648
a(S'Albert Wilson'
p649
g26
tp650
a(S'Anthony Fasano'
p651
g39
tp652
a(S'Travis Kelce'
p653
g39
tp654
a(S'Phillip Supernaw'
p655
g39
tp656
a(S'Cairo Santos'
p657
g46
tp658
asg48
I00
sg49
F30.0
sg50
F108.0
sg51
F1.0
sg52
F0.0
sg53
F1.0
sg54
S'20-24'
p659
sg56
I00
sg57
F190.0
sg58
F0.0
ssg59
(dp660
g5
F44.0
sg6
F1.0
sg7
(lp661
(S'Eli Manning'
p662
g10
tp663
a(S'Ryan Nassib'
p664
g10
tp665
a(S'Rashad Jennings'
p666
g15
tp667
a(S'Andre Williams'
p668
g15
tp669
a(S'Odell Beckham'
p670
g26
tp671
a(S'Rueben Randle'
p672
g26
tp673
a(S'Larry Donnell'
p674
g39
tp675
a(S'Daniel Fells'
p676
g39
tp677
a(S'Josh Brown'
p678
g46
tp679
asg48
I01
sg49
F14.0
sg50
F283.0
sg51
F1.0
sg52
F1.0
sg53
F1.0
sg54
S'38-17'
p680
sg56
I01
sg57
F44.0
sg58
F0.0
ssg97
(dp681
g5
F29.0
sg6
F0.0
sg7
(lp682
(S'Blaine Gabbert'
p683
g10
tp684
a(S'Josh Johnson'
p685
g10
tp686
a(S'Colin Kaepernick'
p687
g10
tp688
a(S'Frank Gore'
p689
g15
tp690
a(S'Carlos Hyde'
p691
g15
tp692
a(S'Bruce Miller'
p693
g15
tp694
a(S'Anquan Boldin'
p695
g26
tp696
a(S'Michael Crabtree'
p697
g26
tp698
a(S'Bruce Ellington'
p699
g26
tp700
a(S'Steve Johnson'
p701
g26
tp702
a(S'Quinton Patton'
p703
g26
tp704
a(S'Garrett Celek'
p705
g39
tp706
a(S'Asante Cleveland'
p707
g39
tp708
a(S'Vernon Davis'
p709
g39
tp710
a(S'Vance McDonald'
p711
g39
tp712
a(S'Phil Dawson'
p713
g46
tp714
asg48
I01
sg49
F18.0
sg50
F121.0
sg51
F1.0
sg52
F0.0
sg53
F1.0
sg54
S'19-3'
p715
sg56
I00
sg57
F64.0
sg58
F0.0
ssg135
(dp716
g5
F26.0
sg6
F0.0
sg7
(lp717
(S'Drew Stanton'
p718
g10
tp719
a(S'Logan Thomas'
p720
g10
tp721
a(S'Andre Ellington'
p722
g15
tp723
a(S'Stepfan Taylor'
p724
g15
tp725
a(S'Kerwynn Williams'
p726
g15
tp727
a(S'Jaron Brown'
p728
g26
tp729
a(S'John Brown'
p730
g26
tp731
a(S'Larry Fitzgerald'
p732
g26
tp733
a(S'Michael Floyd'
p734
g26
tp735
a(S'Ted Ginn'
p736
g26
tp737
a(S'Darren Fells'
p738
g39
tp739
a(S'Rob Housler'
p740
g39
tp741
a(S'Matthew Mulligan'
p742
g39
tp743
a(S'Chandler Catanzaro'
p744
g46
tp745
asg48
I01
sg49
F19.0
sg50
F149.0
sg51
F2.0
sg52
F0.0
sg53
F1.0
sg54
S'19-3'
p746
sg56
I01
sg57
F61.0
sg58
F0.0
ssg171
(dp747
g5
F19.0
sg6
F1.0
sg7
(lp748
(S'Blaine Gabbert'
p749
g10
tp750
a(S'Josh Johnson'
p751
g10
tp752
a(S'Colin Kaepernick'
p753
g10
tp754
a(S'Frank Gore'
p755
g15
tp756
a(S'Carlos Hyde'
p757
g15
tp758
a(S'Bruce Miller'
p759
g15
tp760
a(S'Anquan Boldin'
p761
g26
tp762
a(S'Michael Crabtree'
p763
g26
tp764
a(S'Bruce Ellington'
p765
g26
tp766
a(S'Steve Johnson'
p767
g26
tp768
a(S'Quinton Patton'
p769
g26
tp770
a(S'Garrett Celek'
p771
g39
tp772
a(S'Asante Cleveland'
p773
g39
tp774
a(S'Vernon Davis'
p775
g39
tp776
a(S'Phil Dawson'
p777
g46
tp778
asg48
I01
sg49
F28.0
sg50
F141.0
sg51
F0.0
sg52
F0.0
sg53
F0.0
sg54
S'17-7'
p779
sg56
I01
sg57
F134.0
sg58
F0.0
ssg211
(dp780
g5
F20.0
sg6
F0.0
sg7
(lp781
(S'Matt Barkley'
p782
g10
tp783
a(S'Nick Foles'
p784
g10
tp785
a(S'Mark Sanchez'
p786
g10
tp787
a(S'LeSean McCoy'
p788
g15
tp789
a(S'Chris Polk'
p790
g15
tp791
a(S'Darren Sproles'
p792
g15
tp793
a(S'Josh Huff'
p794
g26
tp795
a(S'Jeremy Maclin'
p796
g26
tp797
a(S'Jordan Matthews'
p798
g26
tp799
a(S'Trey Burton'
p800
g39
tp801
a(S'Brent Celek'
p802
g39
tp803
a(S'Zach Ertz'
p804
g39
tp805
a(S'Cody Parkey'
p806
g46
tp807
asg48
I01
sg49
F22.0
sg50
F96.0
sg51
F0.0
sg52
F2.0
sg53
F0.0
sg54
S'24-14'
p808
sg56
I00
sg57
F57.0
sg58
F0.0
ssg249
(dp809
g5
F37.0
sg6
F0.0
sg7
(lp810
(S'Austin Davis'
p811
g10
tp812
a(S'Shaun Hill'
p813
g10
tp814
a(S'Benny Cunningham'
p815
g15
tp816
a(S'Tre Mason'
p817
g15
tp818
a(S'Chase Reynolds'
p819
g15
tp820
a(S'Zac Stacy'
p821
g15
tp822
a(S'Tavon Austin'
p823
g26
tp824
a(S'Stedman Bailey'
p825
g26
tp826
a(S'Kenny Britt'
p827
g26
tp828
a(S'Chris Givens'
p829
g26
tp830
a(S'Jared Cook'
p831
g39
tp832
a(S'Justice Cunningham'
p833
g39
tp834
a(S'Cory Harkey'
p835
g39
tp836
a(S'Lance Kendricks'
p837
g39
tp838
a(S'Greg Zuerlein'
p839
g46
tp840
asg48
I01
sg49
F19.0
sg50
F243.0
sg51
F2.0
sg52
F0.0
sg53
F2.0
sg54
S'20-6'
p841
sg56
I01
sg57
F42.0
sg58
F0.0
ssg287
(dp842
g5
F1.0
sg6
F0.0
sg7
(lp843
(S'Drew Stanton'
p844
g10
tp845
a(S'Logan Thomas'
p846
g10
tp847
a(S'Stepfan Taylor'
p848
g15
tp849
a(S'Kerwynn Williams'
p850
g15
tp851
a(S'Jaron Brown'
p852
g26
tp853
a(S'John Brown'
p854
g26
tp855
a(S'Larry Fitzgerald'
p856
g26
tp857
a(S'Michael Floyd'
p858
g26
tp859
a(S'Ted Ginn'
p860
g26
tp861
a(S'Brittan Golden'
p862
g26
tp863
a(S'Darren Fells'
p864
g39
tp865
a(S'Rob Housler'
p866
g39
tp867
a(S'Chandler Catanzaro'
p868
g46
tp869
asg48
I01
sg49
F13.0
sg50
F0.0
sg51
F2.0
sg52
F0.0
sg53
F2.0
sg54
S'35-6'
p870
sg56
I00
sg57
F23.0
sg58
F0.0
ssg321
(dp871
g5
F33.0
sg6
F1.0
sg7
(lp872
(S'Matt Flynn'
p873
g10
tp874
a(S'Aaron Rodgers'
p875
g10
tp876
a(S'Scott Tolzien'
p877
g10
tp878
a(S'DuJuan Harris'
p879
g15
tp880
a(S'John Kuhn'
p881
g15
tp882
a(S'Eddie Lacy'
p883
g15
tp884
a(S'James Starks'
p885
g15
tp886
a(S'Davante Adams'
p887
g26
tp888
a(S'Jarrett Boykin'
p889
g26
tp890
a(S'Randall Cobb'
p891
g26
tp892
a(S'Jeff Janis'
p893
g26
tp894
a(S'Jordy Nelson'
p895
g26
tp896
a(S'Brandon Bostick'
p897
g39
tp898
a(S'Andrew Quarless'
p899
g39
tp900
a(S'Richard Rodgers'
p901
g39
tp902
a(S'Mason Crosby'
p903
g46
tp904
asg48
I01
sg49
F21.0
sg50
F189.0
sg51
F1.0
sg52
F1.0
sg53
F1.0
sg54
S'36-16'
p905
sg56
I01
sg57
F80.0
sg58
F0.0
ssg361
(dp906
g5
F0.0
sg6
F0.0
sg7
(lp907
(S'Brock Osweiler'
p908
g10
tp909
a(S'C.J. Anderson'
p910
g15
tp911
a(S'Ronnie Hillman'
p912
g15
tp913
a(S'Juwan Thompson'
p914
g15
tp915
a(S'Isaiah Burse'
p916
g26
tp917
a(S'Andre Caldwell'
p918
g26
tp919
a(S'Cody Latimer'
p920
g26
tp921
a(S'Emmanuel Sanders'
p922
g26
tp923
a(S'Demaryius Thomas'
p924
g26
tp925
a(S'Wes Welker'
p926
g26
tp927
a(S'Virgil Green'
p928
g39
tp929
a(S'Jacob Tamme'
p930
g39
tp931
a(S'Julius Thomas'
p932
g39
tp933
a(S'Brandon McManus'
p934
g46
tp935
asg48
I01
sg49
F5.0
sg50
F0.0
sg51
F1.0
sg52
F0.0
sg53
F1.0
sg54
S'26-20'
p936
sg56
I01
sg57
F-1.0
sg58
F0.0
ssg399
(dp937
g5
F37.0
sg6
F0.0
sg7
(lp938
(S'Kellen Clemens'
p939
g10
tp940
a(S'Philip Rivers'
p941
g10
tp942
a(S'Donald Brown'
p943
g15
tp944
a(S'Ryan Mathews'
p945
g15
tp946
a(S'Branden Oliver'
p947
g15
tp948
a(S'Danny Woodhead'
p949
g15
tp950
a(S'Seyi Ajirotutu'
p951
g26
tp952
a(S'Keenan Allen'
p953
g26
tp954
a(S'Malcom Floyd'
p955
g26
tp956
a(S'Dontrelle Inman'
p957
g26
tp958
a(S'Eddie Royal'
p959
g26
tp960
a(S'Antonio Gates'
p961
g39
tp962
a(S'Ladarius Green'
p963
g39
tp964
a(S'David Johnson'
p965
g39
tp966
a(S'John Phillips'
p967
g39
tp968
a(S'Nick Novak'
p969
g46
tp970
asg48
I00
sg49
F37.0
sg50
F284.0
sg51
F3.0
sg52
F3.0
sg53
F3.0
sg54
S'21-30'
p971
sg56
I00
sg57
F101.0
sg58
F0.0
ssg435
(dp972
g5
F36.0
sg6
F0.0
sg7
(lp973
(S'Kirk Cousins'
p974
g10
tp975
a(S'Robert Griffin III'
p976
g10
tp977
a(S'Colt McCoy'
p978
g10
tp979
a(S'Roy Helu'
p980
g15
tp981
a(S'Alfred Morris'
p982
g15
tp983
a(S'Silas Redd'
p984
g15
tp985
a(S'Darrel Young'
p986
g15
tp987
a(S'Pierre Garcon'
p988
g26
tp989
a(S'Ryan Grant'
p990
g26
tp991
a(S'DeSean Jackson'
p992
g26
tp993
a(S'Andre Roberts'
p994
g26
tp995
a(S'Aldrick Robinson'
p996
g26
tp997
a(S'Niles Paul'
p998
g39
tp999
a(S'Logan Paulsen'
p1000
g39
tp1001
a(S'Jordan Reed'
p1002
g39
tp1003
a(S'Kai Forbath'
p1004
g46
tp1005
asg48
I01
sg49
F17.0
sg50
F283.0
sg51
F1.0
sg52
F2.0
sg53
F1.0
sg54
S'27-17'
p1006
sg56
I00
sg57
F32.0
sg58
F0.0
ssg473
(dp1007
g5
F0.0
sg6
F0.0
sg7
(lp1008
sg48
(lp1009
sg49
F0.0
sg50
F0.0
sg51
F0.0
sg52
F0.0
sg53
F0.0
sg54
(lp1010
sg56
(lp1011
sg57
F0.0
sg58
F0.0
ssg505
(dp1012
g5
F20.0
sg6
F1.0
sg7
(lp1013
(S'Austin Davis'
p1014
g10
tp1015
a(S'Shaun Hill'
p1016
g10
tp1017
a(S'Case Keenum'
p1018
g10
tp1019
a(S'Benny Cunningham'
p1020
g15
tp1021
a(S'Tre Mason'
p1022
g15
tp1023
a(S'Chase Reynolds'
p1024
g15
tp1025
a(S'Zac Stacy'
p1026
g15
tp1027
a(S'Tavon Austin'
p1028
g26
tp1029
a(S'Stedman Bailey'
p1030
g26
tp1031
a(S'Kenny Britt'
p1032
g26
tp1033
a(S'Chris Givens'
p1034
g26
tp1035
a(S'Brian Quick'
p1036
g26
tp1037
a(S'Jared Cook'
p1038
g39
tp1039
a(S'Cory Harkey'
p1040
g39
tp1041
a(S'Lance Kendricks'
p1042
g39
tp1043
a(S'Greg Zuerlein'
p1044
g46
tp1045
asg48
I00
sg49
F27.0
sg50
F155.0
sg51
F1.0
sg52
F2.0
sg53
F0.0
sg54
S'26-28'
p1046
sg56
I00
sg57
F102.0
sg58
F0.0
ssg541
(dp1047
g5
F32.0
sg6
F1.0
sg7
(lp1048
(S'Tony Romo'
p1049
g10
tp1050
a(S'Dustin Vaughan'
p1051
g10
tp1052
a(S'Brandon Weeden'
p1053
g10
tp1054
a(S'Tyler Clutts'
p1055
g15
tp1056
a(S'Lance Dunbar'
p1057
g15
tp1058
a(S'DeMarco Murray'
p1059
g15
tp1060
a(S'Cole Beasley'
p1061
g26
tp1062
a(S'Dez Bryant'
p1063
g26
tp1064
a(S'Dwayne Harris'
p1065
g26
tp1066
a(S'Devin Street'
p1067
g26
tp1068
a(S'Terrance Williams'
p1069
g26
tp1070
a(S'Gavin Escobar'
p1071
g39
tp1072
a(S'James Hanna'
p1073
g39
tp1074
a(S'Jason Witten'
p1075
g39
tp1076
a(S'Dan Bailey'
p1077
g46
tp1078
asg48
I00
sg49
F31.0
sg50
F250.0
sg51
F3.0
sg52
F2.0
sg53
F3.0
sg54
S'23-30'
p1079
sg56
I01
sg57
F110.0
sg58
F0.0
ssg579
(dp1080
g5
F41.0
sg6
F0.0
sg7
(lp1081
(S'Derek Carr'
p1082
g10
tp1083
a(S'Matt McGloin'
p1084
g10
tp1085
a(S'Matt Schaub'
p1086
g10
tp1087
a(S'Darren McFadden'
p1088
g15
tp1089
a(S'Latavius Murray'
p1090
g15
tp1091
a(S'Jamize Olawale'
p1092
g15
tp1093
a(S'Marcel Reece'
p1094
g15
tp1095
a(S'Vincent Brown'
p1096
g26
tp1097
a(S'Brice Butler'
p1098
g26
tp1099
a(S'Andre Holmes'
p1100
g26
tp1101
a(S'James Jones'
p1102
g26
tp1103
a(S'Kenbrell Thompkins'
p1104
g26
tp1105
a(S'Brian Leonhardt'
p1106
g39
tp1107
a(S'Mychal Rivera'
p1108
g39
tp1109
a(S'Sebastian Janikowski'
p1110
g46
tp1111
asg48
I01
sg49
F16.0
sg50
F194.0
sg51
F2.0
sg52
F2.0
sg53
F1.0
sg54
S'30-24'
p1112
sg56
I01
sg57
F39.0
sg58
F0.0
ssg585
(dp1113
g5
F22.0
sg6
F0.0
sg7
(lp1114
(S'Derek Anderson'
p1115
g10
tp1116
a(S'Cam Newton'
p1117
g10
tp1118
a(S'Joe Webb'
p1119
g10
tp1120
a(S'Darrin Reaves'
p1121
g15
tp1122
a(S'Jonathan Stewart'
p1123
g15
tp1124
a(S'Fozzy Whittaker'
p1125
g15
tp1126
a(S'DeAngelo Williams'
p1127
g15
tp1128
a(S'Jason Avant'
p1129
g26
tp1130
a(S'Kelvin Benjamin'
p1131
g26
tp1132
a(S'Brenton Bersin'
p1133
g26
tp1134
a(S'Corey Brown'
p1135
g26
tp1136
a(S'Jerricho Cotchery'
p1137
g26
tp1138
a(S'Ed Dickson'
p1139
g39
tp1140
a(S'Greg Olsen'
p1141
g39
tp1142
a(S'Brandon Williams'
p1143
g39
tp1144
a(S'Graham Gano'
p1145
g46
tp1146
asg48
I01
sg49
F30.0
sg50
F171.0
sg51
F3.0
sg52
F0.0
sg53
F3.0
sg54
S'13-9'
p1147
sg56
I00
sg57
F105.0
sg58
F0.0
sssS'2011'
p1148
(dp1149
g3
(dp1150
g5
F40.0
sg6
F0.0
sg7
(lp1151
(S'Sam Bradford'
p1152
g10
tp1153
a(S'Steven Jackson'
p1154
g15
tp1155
a(S'Brandon Gibson'
p1156
g26
tp1157
a(S'Lance Kendricks'
p1158
g39
tp1159
a(S'Josh Brown'
p1160
g46
tp1161
asg48
I01
sg49
F17.0
sg50
F181.0
sg51
F0.0
sg52
F1.0
sg53
F0.0
sg54
S'24-7'
p1162
sg56
I00
sg57
F42.0
sg58
F0.0
ssg59
(dp1163
g5
F52.0
sg6
F0.0
sg7
(lp1164
(S'Joe Flacco'
p1165
g10
tp1166
a(S'Tyrod Taylor'
p1167
g10
tp1168
a(S'Anquan Boldin'
p1169
g26
tp1170
a(S'Torrey Smith'
p1171
g26
tp1172
a(S'Ed Dickson'
p1173
g39
tp1174
a(S'Dennis Pitta'
p1175
g39
tp1176
asg48
I01
sg49
F3.0
sg50
F255.0
sg51
F0.0
sg52
F1.0
sg53
F0.0
sg54
S'22-17'
p1177
sg56
I01
sg57
F24.0
sg58
F0.0
ssg97
(dp1178
g5
F0.0
sg6
F1.0
sg7
(lp1179
(S'Mike Vick'
p1180
g10
tp1181
a(S'Dion Lewis'
p1182
g15
tp1183
a(S'LeSean McCoy'
p1184
g15
tp1185
a(S'Jason Avant'
p1186
g26
tp1187
a(S'DeSean Jackson'
p1188
g26
tp1189
a(S'Jeremy Maclin'
p1190
g26
tp1191
a(S'Brent Celek'
p1192
g39
tp1193
a(S'Clay Harbor'
p1194
g39
tp1195
asg48
I01
sg49
F18.0
sg50
F0.0
sg51
F0.0
sg52
F0.0
sg53
F0.0
sg54
S'31-14'
p1196
sg56
I01
sg57
F89.0
sg58
F0.0
ssg135
(dp1197
g5
F0.0
sg6
F1.0
sg7
(lp1198
(S'Roy Helu'
p1199
g15
tp1200
a(S'Darrel Young'
p1201
g15
tp1202
a(S'Niles Paul'
p1203
g39
tp1204
a(S'Logan Paulsen'
p1205
g39
tp1206
a(S'Graham Gano'
p1207
g46
tp1208
asg48
I00
sg49
F23.0
sg50
F0.0
sg51
F2.0
sg52
F0.0
sg53
F1.0
sg54
S'17-23'
p1209
sg56
I01
sg57
F108.0
sg58
F1.0
ssg171
(dp1210
g5
F2.0
sg6
F0.0
sg7
(lp1211
(S'Jay Cutler'
p1212
g10
tp1213
a(S'Josh McCown'
p1214
g10
tp1215
a(S'Tyler Clutts'
p1216
g15
tp1217
a(S'Matt Forte'
p1218
g15
tp1219
a(S'Devin Hester'
p1220
g26
tp1221
a(S'Kellen Davis'
p1222
g39
tp1223
a(S'Matt Spaeth'
p1224
g39
tp1225
a(S'Robbie Gould'
p1226
g46
tp1227
asg48
I01
sg49
F0.0
sg50
F12.0
sg51
F0.0
sg52
F0.0
sg53
F0.0
sg54
S'38-14'
p1228
sg56
I00
sg57
F0.0
sg58
F0.0
ssg211
(dp1229
g5
F29.0
sg6
F1.0
sg7
(lp1230
(S'Sam Bradford'
p1231
g10
tp1232
a(S'Kellen Clemens'
p1233
g10
tp1234
a(S'Steven Jackson'
p1235
g15
tp1236
a(S'Brandon Gibson'
p1237
g26
tp1238
a(S'Lance Kendricks'
p1239
g39
tp1240
a(S'Josh Brown'
p1241
g46
tp1242
asg48
I01
sg49
F22.0
sg50
F193.0
sg51
F2.0
sg52
F0.0
sg53
F2.0
sg54
S'30-13'
p1243
sg56
I01
sg57
F62.0
sg58
F0.0
ssg249
(dp1244
g5
F0.0
sg6
F0.0
sg7
(lp1245
(S'Anthony Sherman'
p1246
g15
tp1247
a(S'Larry Fitzgerald'
p1248
g26
tp1249
a(S'Andre Roberts'
p1250
g26
tp1251
a(S'Jim Dray'
p1252
g39
tp1253
a(S'Rob Housler'
p1254
g39
tp1255
asg48
I00
sg49
F2.0
sg50
F0.0
sg51
F0.0
sg52
F0.0
sg53
F0.0
sg54
S'20-23'
p1256
sg56
I00
sg57
F11.0
sg58
F0.0
ssg287
(dp1257
g5
F26.0
sg6
F1.0
sg7
(lp1258
(S'Colin Kaepernick'
p1259
g10
tp1260
a(S'Alex Smith'
p1261
g10
tp1262
a(S'Scott Tolzien'
p1263
g10
tp1264
a(S'Anthony Dixon'
p1265
g15
tp1266
a(S'Frank Gore'
p1267
g15
tp1268
a(S'Kendall Hunter'
p1269
g15
tp1270
a(S'Bruce Miller'
p1271
g15
tp1272
a(S'Michael Crabtree'
p1273
g26
tp1274
a(S'Ted Ginn'
p1275
g26
tp1276
a(S'Kyle Williams'
p1277
g26
tp1278
a(S'Vernon Davis'
p1279
g39
tp1280
a(S'Delanie Walker'
p1281
g39
tp1282
asg48
I00
sg49
F40.0
sg50
F179.0
sg51
F0.0
sg52
F0.0
sg53
F0.0
sg54
S'17-19'
p1283
sg56
I01
sg57
F178.0
sg58
F0.0
ssg321
(dp1284
g5
F20.0
sg6
F1.0
sg7
(lp1285
(S'Colin Kaepernick'
p1286
g10
tp1287
a(S'Alex Smith'
p1288
g10
tp1289
a(S'Scott Tolzien'
p1290
g10
tp1291
a(S'Anthony Dixon'
p1292
g15
tp1293
a(S'Frank Gore'
p1294
g15
tp1295
a(S'Kendall Hunter'
p1296
g15
tp1297
a(S'Bruce Miller'
p1298
g15
tp1299
a(S'Will Tukuafu'
p1300
g15
tp1301
a(S'Michael Crabtree'
p1302
g26
tp1303
a(S'Ted Ginn'
p1304
g26
tp1305
a(S'Kyle Williams'
p1306
g26
tp1307
a(S'Vernon Davis'
p1308
g39
tp1309
a(S'Delanie Walker'
p1310
g39
tp1311
asg48
I00
sg49
F32.0
sg50
F124.0
sg51
F0.0
sg52
F0.0
sg53
F0.0
sg54
S'17-33'
p1312
sg56
I00
sg57
F85.0
sg58
F0.0
ssg361
(dp1313
g5
F0.0
sg6
F0.0
sg7
(lp1314
(S'Anthony Sherman'
p1315
g15
tp1316
a(S'Larry Fitzgerald'
p1317
g26
tp1318
a(S'Andre Roberts'
p1319
g26
tp1320
a(S'Jim Dray'
p1321
g39
tp1322
a(S'Rob Housler'
p1323
g39
tp1324
asg48
I01
sg49
F0.0
sg50
F0.0
sg51
F0.0
sg52
F0.0
sg53
F0.0
sg54
S'13-10'
p1325
sg56
I01
sg57
F0.0
sg58
F0.0
ssg399
(dp1326
g5
F30.0
sg6
F0.0
sg7
(lp1327
(S'Ben Roethlisberger'
p1328
g10
tp1329
a(S'Antonio Brown'
p1330
g26
tp1331
a(S'Jerricho Cotchery'
p1332
g26
tp1333
a(S'Emmanuel Sanders'
p1334
g26
tp1335
a(S'Mike Wallace'
p1336
g26
tp1337
a(S'David Johnson'
p1338
g39
tp1339
a(S'Shaun Suisham'
p1340
g46
tp1341
asg48
I00
sg49
F6.0
sg50
F298.0
sg51
F2.0
sg52
F1.0
sg53
F1.0
sg54
S'0-24'
p1342
sg56
I00
sg57
F9.0
sg58
F0.0
ssg435
(dp1343
g5
F39.0
sg6
F0.0
sg7
(lp1344
(S'Eli Manning'
p1345
g10
tp1346
a(S'Ahmad Bradshaw'
p1347
g15
tp1348
a(S'Victor Cruz'
p1349
g26
tp1350
a(S'Hakeem Nicks'
p1351
g26
tp1352
a(S'Bear Pascoe'
p1353
g39
tp1354
asg48
I01
sg49
F21.0
sg50
F420.0
sg51
F0.0
sg52
F3.0
sg53
F0.0
sg54
S'36-25'
p1355
sg56
I00
sg57
F66.0
sg58
F0.0
ssg473
(dp1356
g5
F42.0
sg6
F0.0
sg7
(lp1357
(S'Matt Ryan'
p1358
g10
tp1359
a(S'Jacquizz Rodgers'
p1360
g15
tp1361
a(S'Harry Douglas'
p1362
g26
tp1363
a(S'Julio Jones'
p1364
g26
tp1365
a(S'Eric Weems'
p1366
g26
tp1367
a(S'Roddy White'
p1368
g26
tp1369
a(S'Matt Bryant'
p1370
g46
tp1371
asg48
I00
sg49
F10.0
sg50
F291.0
sg51
F3.0
sg52
F1.0
sg53
F3.0
sg54
S'28-30'
p1372
sg56
I01
sg57
F51.0
sg58
F0.0
ssg505
(dp1373
g5
F35.0
sg6
F0.0
sg7
(lp1374
(S'Thad Lewis'
p1375
g10
tp1376
a(S'Colt McCoy'
p1377
g10
tp1378
a(S'Greg Little'
p1379
g26
tp1380
a(S'Jordan Norwood'
p1381
g26
tp1382
a(S'Jordan Cameron'
p1383
g39
tp1384
a(S'Alex Smith'
p1385
g39
tp1386
a(S'Benjamin Watson'
p1387
g39
tp1388
a(S'Phil Dawson'
p1389
g46
tp1390
asg48
I00
sg49
F9.0
sg50
F178.0
sg51
F4.0
sg52
F0.0
sg53
F2.0
sg54
S'3-6'
p1391
sg56
I00
sg57
F29.0
sg58
F2.0
ssg541
(dp1392
g5
F0.0
sg6
F0.0
sg7
(lp1393
sg48
(lp1394
sg49
F0.0
sg50
F0.0
sg51
F0.0
sg52
F0.0
sg53
F0.0
sg54
(lp1395
sg56
(lp1396
sg57
F0.0
sg58
F0.0
ssg579
(dp1397
g5
F31.0
sg6
F0.0
sg7
(lp1398
(S'Tony Romo'
p1399
g10
tp1400
a(S'DeMarco Murray'
p1401
g15
tp1402
a(S'Dez Bryant'
p1403
g26
tp1404
a(S'Martellus Bennett'
p1405
g39
tp1406
a(S'John Phillips'
p1407
g39
tp1408
a(S'Jason Witten'
p1409
g39
tp1410
a(S'Dan Bailey'
p1411
g46
tp1412
asg48
I00
sg49
F25.0
sg50
F279.0
sg51
F3.0
sg52
F2.0
sg53
F3.0
sg54
S'13-23'
p1413
sg56
I00
sg57
F152.0
sg58
F0.0
ssg585
(dp1414
g5
F29.0
sg6
F0.0
sg7
(lp1415
(S'Andy Dalton'
p1416
g10
tp1417
a(S'Bruce Gradkowski'
p1418
g10
tp1419
a(S'Cedric Peerman'
p1420
g15
tp1421
a(S'Andre Caldwell'
p1422
g26
tp1423
a(S'A.J. Green'
p1424
g26
tp1425
a(S'Andrew Hawkins'
p1426
g26
tp1427
a(S'Jerome Simpson'
p1428
g26
tp1429
a(S'Brandon Tate'
p1430
g26
tp1431
a(S'Jermaine Gresham'
p1432
g39
tp1433
a(S'Mike Nugent'
p1434
g46
tp1435
asg48
I00
sg49
F3.0
sg50
F168.0
sg51
F2.0
sg52
F2.0
sg53
F2.0
sg54
S'12-34'
p1436
sg56
I01
sg57
F9.0
sg58
F0.0
sssS'2010'
p1437
(dp1438
g3
(dp1439
g5
F43.0
sg6
F1.0
sg7
(lp1440
(S'Drew Brees'
p1441
g10
tp1442
a(S'Chase Daniel'
p1443
g10
tp1444
a(S'Reggie Bush'
p1445
g15
tp1446
a(S'Chris Ivory'
p1447
g15
tp1448
a(S'Pierre Thomas'
p1449
g15
tp1450
a(S'Marques Colston'
p1451
g26
tp1452
a(S'Lance Moore'
p1453
g26
tp1454
a(S'Jimmy Graham'
p1455
g39
tp1456
asg48
I00
sg49
F23.0
sg50
F382.0
sg51
F0.0
sg52
F4.0
sg53
F0.0
sg54
S'19-34'
p1457
sg56
I00
sg57
F99.0
sg58
F0.0
ssg59
(dp1458
g5
F45.0
sg6
F1.0
sg7
(lp1459
(S'Derek Anderson'
p1460
g10
tp1461
a(S'Tim Hightower'
p1462
g15
tp1463
a(S'Larry Fitzgerald'
p1464
g26
tp1465
a(S'Andre Roberts'
p1466
g26
tp1467
a(S'Jim Dray'
p1468
g39
tp1469
asg48
I01
sg49
F13.0
sg50
F322.0
sg51
F0.0
sg52
F1.0
sg53
F0.0
sg54
S'36-18'
p1470
sg56
I00
sg57
F39.0
sg58
F0.0
ssg97
(dp1471
g5
F34.0
sg6
F1.0
sg7
(lp1472
(S'Jimmy Clausen'
p1473
g10
tp1474
a(S'Jonathan Stewart'
p1475
g15
tp1476
a(S'Brandon LaFell'
p1477
g26
tp1478
a(S'Steve Smith'
p1479
g26
tp1480
a(S'Gary Barnidge'
p1481
g39
tp1482
asg48
I01
sg49
F22.0
sg50
F169.0
sg51
F0.0
sg52
F0.0
sg53
F0.0
sg54
S'31-14'
p1483
sg56
I01
sg57
F92.0
sg58
F0.0
ssg135
(dp1484
g5
F32.0
sg6
F1.0
sg7
(lp1485
(S'Matt Cassel'
p1486
g10
tp1487
a(S'Jamaal Charles'
p1488
g15
tp1489
a(S'Dexter McCluster'
p1490
g15
tp1491
a(S'Dwayne Bowe'
p1492
g26
tp1493
a(S'Tony Moeaki'
p1494
g39
tp1495
a(S'Ryan Succop'
p1496
g46
tp1497
asg48
I00
sg49
F27.0
sg50
F233.0
sg51
F1.0
sg52
F4.0
sg53
F0.0
sg54
S'24-42'
p1498
sg56
I01
sg57
F201.0
sg58
F1.0
ssg171
(dp1499
g5
F35.0
sg6
F0.0
sg7
(lp1500
(S'Matt Ryan'
p1501
g10
tp1502
a(S'Harry Douglas'
p1503
g26
tp1504
a(S'Eric Weems'
p1505
g26
tp1506
a(S'Roddy White'
p1507
g26
tp1508
a(S'Matt Bryant'
p1509
g46
tp1510
asg48
I00
sg49
F7.0
sg50
F174.0
sg51
F2.0
sg52
F3.0
sg53
F2.0
sg54
S'18-34'
p1511
sg56
I01
sg57
F6.0
sg58
F0.0
ssg211
(dp1512
g5
F27.0
sg6
F0.0
sg7
(lp1513
(S'Alex Smith'
p1514
g10
tp1515
a(S'Anthony Dixon'
p1516
g15
tp1517
a(S'Michael Crabtree'
p1518
g26
tp1519
a(S'Ted Ginn'
p1520
g26
tp1521
a(S'Kyle Williams'
p1522
g26
tp1523
a(S'Vernon Davis'
p1524
g39
tp1525
a(S'Delanie Walker'
p1526
g39
tp1527
asg48
I00
sg49
F18.0
sg50
F255.0
sg51
F0.0
sg52
F3.0
sg53
F0.0
sg54
S'21-40'
p1528
sg56
I00
sg57
F72.0
sg58
F0.0
ssg249
(dp1529
g5
F36.0
sg6
F0.0
sg7
(lp1530
(S'Sam Bradford'
p1531
g10
tp1532
a(S'Steven Jackson'
p1533
g15
tp1534
a(S'Danny Amendola'
p1535
g26
tp1536
a(S'Brandon Gibson'
p1537
g26
tp1538
a(S'Daniel Fells'
p1539
g39
tp1540
a(S'Michael Hoomanawanui'
p1541
g39
tp1542
a(S'Josh Brown'
p1543
g46
tp1544
asg48
I01
sg49
F11.0
sg50
F155.0
sg51
F2.0
sg52
F0.0
sg53
F2.0
sg54
S'16-6'
p1545
sg56
I01
sg57
F45.0
sg58
F0.0
ssg287
(dp1546
g5
F28.0
sg6
F0.0
sg7
(lp1547
(S'Josh Freeman'
p1548
g10
tp1549
a(S'Josh Johnson'
p1550
g10
tp1551
a(S'LeGarrette Blount'
p1552
g15
tp1553
a(S'Arrelious Benn'
p1554
g26
tp1555
a(S'Mike Williams'
p1556
g26
tp1557
a(S'Connor Barth'
p1558
g46
tp1559
asg48
I00
sg49
F22.0
sg50
F252.0
sg51
F2.0
sg52
F5.0
sg53
F1.0
sg54
S'15-38'
p1560
sg56
I00
sg57
F187.0
sg58
F1.0
ssg321
(dp1561
g5
F45.0
sg6
F0.0
sg7
(lp1562
(S'Alex Smith'
p1563
g10
tp1564
a(S'Anthony Dixon'
p1565
g15
tp1566
a(S'Frank Gore'
p1567
g15
tp1568
a(S'Michael Crabtree'
p1569
g26
tp1570
a(S'Ted Ginn'
p1571
g26
tp1572
a(S'Kyle Williams'
p1573
g26
tp1574
a(S'Vernon Davis'
p1575
g39
tp1576
a(S'Delanie Walker'
p1577
g39
tp1578
asg48
I01
sg49
F18.0
sg50
F225.0
sg51
F0.0
sg52
F0.0
sg53
F0.0
sg54
S'31-6'
p1579
sg56
I01
sg57
F48.0
sg58
F0.0
ssg361
(dp1580
g5
F53.0
sg6
F0.0
sg7
(lp1581
(S'Philip Rivers'
p1582
g10
tp1583
a(S'Ryan Mathews'
p1584
g15
tp1585
a(S'Darren Sproles'
p1586
g15
tp1587
a(S'Mike Tolbert'
p1588
g15
tp1589
a(S'Malcom Floyd'
p1590
g26
tp1591
a(S'Antonio Gates'
p1592
g39
tp1593
asg48
I01
sg49
F19.0
sg50
F455.0
sg51
F0.0
sg52
F2.0
sg53
F0.0
sg54
S'27-20'
p1594
sg56
I01
sg57
F91.0
sg58
F0.0
ssg399
(dp1595
g5
F0.0
sg6
F0.0
sg7
(lp1596
(S'Eric Decker'
p1597
g26
tp1598
a(S'Eddie Royal'
p1599
g26
tp1600
a(S'Demaryius Thomas'
p1601
g26
tp1602
a(S'Matt Prater'
p1603
g46
tp1604
asg48
I00
sg49
F0.0
sg50
F0.0
sg51
F1.0
sg52
F0.0
sg53
F1.0
sg54
S'14-31'
p1605
sg56
I00
sg57
F0.0
sg58
F0.0
ssg435
(dp1606
g5
F0.0
sg6
F0.0
sg7
(lp1607
sg48
(lp1608
sg49
F0.0
sg50
F0.0
sg51
F0.0
sg52
F0.0
sg53
F0.0
sg54
(lp1609
sg56
(lp1610
sg57
F0.0
sg58
F0.0
ssg473
(dp1611
g5
F41.0
sg6
F0.0
sg7
(lp1612
(S'Sam Bradford'
p1613
g10
tp1614
a(S'Steven Jackson'
p1615
g15
tp1616
a(S'Danny Amendola'
p1617
g26
tp1618
a(S'Brandon Gibson'
p1619
g26
tp1620
a(S'Daniel Fells'
p1621
g39
tp1622
a(S'Michael Hoomanawanui'
p1623
g39
tp1624
a(S'Josh Brown'
p1625
g46
tp1626
asg48
I00
sg49
F24.0
sg50
F289.0
sg51
F2.0
sg52
F2.0
sg53
F2.0
sg54
S'3-20'
p1627
sg56
I00
sg57
F78.0
sg58
F0.0
ssg505
(dp1628
g5
F17.0
sg6
F0.0
sg7
(lp1629
(S'Derek Anderson'
p1630
g10
tp1631
a(S'Tim Hightower'
p1632
g15
tp1633
a(S'Larry Fitzgerald'
p1634
g26
tp1635
a(S'Andre Roberts'
p1636
g26
tp1637
a(S'Jim Dray'
p1638
g39
tp1639
asg48
I01
sg49
F6.0
sg50
F96.0
sg51
F0.0
sg52
F0.0
sg53
F0.0
sg54
S'22-10'
p1640
sg56
I01
sg57
F59.0
sg58
F0.0
ssg541
(dp1641
g5
F39.0
sg6
F1.0
sg7
(lp1642
(S'Jay Cutler'
p1643
g10
tp1644
a(S'Matt Forte'
p1645
g15
tp1646
a(S'Devin Hester'
p1647
g26
tp1648
a(S'Kellen Davis'
p1649
g39
tp1650
a(S'Greg Olsen'
p1651
g39
tp1652
a(S'Robbie Gould'
p1653
g46
tp1654
asg48
I01
sg49
F10.0
sg50
F290.0
sg51
F3.0
sg52
F0.0
sg53
F2.0
sg54
S'23-20'
p1655
sg56
I00
sg57
F30.0
sg58
F1.0
ssg579
(dp1656
g5
F32.0
sg6
F2.0
sg7
(lp1657
(S'Eli Manning'
p1658
g10
tp1659
a(S'Ahmad Bradshaw'
p1660
g15
tp1661
a(S'Hakeem Nicks'
p1662
g26
tp1663
a(S'Bear Pascoe'
p1664
g39
tp1665
asg48
I00
sg49
F20.0
sg50
F290.0
sg51
F0.0
sg52
F3.0
sg53
F0.0
sg54
S'7-41'
p1666
sg56
I01
sg57
F56.0
sg58
F0.0
ssg585
(dp1667
g5
F0.0
sg6
F0.0
sg7
(lp1668
(S'Bruce Gradkowski'
p1669
g10
tp1670
a(S'Darren McFadden'
p1671
g15
tp1672
a(S'Marcel Reece'
p1673
g15
tp1674
a(S'Darrius Heyward-Bey'
p1675
g26
tp1676
a(S'Louis Murphy'
p1677
g26
tp1678
a(S'Brandon Myers'
p1679
g39
tp1680
a(S'Sebastian Janikowski'
p1681
g46
tp1682
asg48
I00
sg49
F24.0
sg50
F0.0
sg51
F5.0
sg52
F0.0
sg53
F4.0
sg54
S'3-33'
p1683
sg56
I00
sg57
F173.0
sg58
F0.0
sssS'2013'
p1684
(dp1685
g3
(dp1686
g5
F13.0
sg6
F0.0
sg7
(lp1687
(S'Matt Cassel'
p1688
g10
tp1689
a(S'Josh Freeman'
p1690
g10
tp1691
a(S'Joe Webb'
p1692
g10
tp1693
a(S'Matt Asiata'
p1694
g15
tp1695
a(S'Jerome Felton'
p1696
g15
tp1697
a(S'Toby Gerhart'
p1698
g15
tp1699
a(S'Adrian Peterson'
p1700
g15
tp1701
a(S'Greg Jennings'
p1702
g26
tp1703
a(S'Cordarrelle Patterson'
p1704
g26
tp1705
a(S'Jerome Simpson'
p1706
g26
tp1707
a(S'Rodney Smith'
p1708
g26
tp1709
a(S'Jarius Wright'
p1710
g26
tp1711
a(S'Rhett Ellison'
p1712
g39
tp1713
a(S'Kyle Rudolph'
p1714
g39
tp1715
a(S'Blair Walsh'
p1716
g46
tp1717
asg48
I01
sg49
F28.0
sg50
F78.0
sg51
F2.0
sg52
F1.0
sg53
F2.0
sg54
S'41-20'
p1718
sg56
I01
sg57
F132.0
sg58
F0.0
ssg59
(dp1719
g5
F36.0
sg6
F0.0
sg7
(lp1720
(S'Matt Ryan'
p1721
g10
tp1722
a(S'Patrick DiMarco'
p1723
g15
tp1724
a(S'Steven Jackson'
p1725
g15
tp1726
a(S'Jacquizz Rodgers'
p1727
g15
tp1728
a(S'Harry Douglas'
p1729
g26
tp1730
a(S'Roddy White'
p1731
g26
tp1732
a(S'Chase Coffman'
p1733
g39
tp1734
a(S'Levine Toilolo'
p1735
g39
tp1736
a(S'Matt Bryant'
p1737
g46
tp1738
asg48
I01
sg49
F15.0
sg50
F172.0
sg51
F1.0
sg52
F1.0
sg53
F1.0
sg54
S'33-10'
p1739
sg56
I00
sg57
F57.0
sg58
F0.0
ssg97
(dp1740
g5
F38.0
sg6
F0.0
sg7
(lp1741
(S'Drew Brees'
p1742
g10
tp1743
a(S'Ryan Griffin'
p1744
g10
tp1745
a(S'Luke McCown'
p1746
g10
tp1747
a(S'Travaris Cadet'
p1748
g15
tp1749
a(S'Mark Ingram'
p1750
g15
tp1751
a(S'Khiry Robinson'
p1752
g15
tp1753
a(S'Darren Sproles'
p1754
g15
tp1755
a(S'Pierre Thomas'
p1756
g15
tp1757
a(S'Marques Colston'
p1758
g26
tp1759
a(S'Lance Moore'
p1760
g26
tp1761
a(S'Kenny Stills'
p1762
g26
tp1763
a(S'Nick Toon'
p1764
g26
tp1765
a(S'Jimmy Graham'
p1766
g39
tp1767
a(S'Josh Hill'
p1768
g39
tp1769
a(S'Benjamin Watson'
p1770
g39
tp1771
asg48
I01
sg49
F16.0
sg50
F147.0
sg51
F0.0
sg52
F1.0
sg53
F0.0
sg54
S'34-7'
p1772
sg56
I01
sg57
F32.0
sg58
F0.0
ssg135
(dp1773
g5
F0.0
sg6
F0.0
sg7
(lp1774
sg48
(lp1775
sg49
F0.0
sg50
F0.0
sg51
F0.0
sg52
F0.0
sg53
F0.0
sg54
(lp1776
sg56
(lp1777
sg57
F0.0
sg58
F0.0
ssg171
(dp1778
g5
F31.0
sg6
F0.0
sg7
(lp1779
(S'Eli Manning'
p1780
g10
tp1781
a(S'Ryan Nassib'
p1782
g10
tp1783
a(S'Victor Cruz'
p1784
g26
tp1785
a(S'Louis Murphy'
p1786
g26
tp1787
a(S'Hakeem Nicks'
p1788
g26
tp1789
a(S'Rueben Randle'
p1790
g26
tp1791
a(S'Larry Donnell'
p1792
g39
tp1793
a(S'Brandon Myers'
p1794
g39
tp1795
a(S'Bear Pascoe'
p1796
g39
tp1797
a(S'Josh Brown'
p1798
g46
tp1799
asg48
I01
sg49
F0.0
sg50
F156.0
sg51
F0.0
sg52
F0.0
sg53
F0.0
sg54
S'23-0'
p1800
sg56
I00
sg57
F0.0
sg58
F0.0
ssg211
(dp1801
g5
F29.0
sg6
F0.0
sg7
(lp1802
(S'Colin Kaepernick'
p1803
g10
tp1804
a(S'Colt McCoy'
p1805
g10
tp1806
a(S'Anthony Dixon'
p1807
g15
tp1808
a(S'Frank Gore'
p1809
g15
tp1810
a(S'Kendall Hunter'
p1811
g15
tp1812
a(S'Bruce Miller'
p1813
g15
tp1814
a(S'Anquan Boldin'
p1815
g26
tp1816
a(S'Michael Crabtree'
p1817
g26
tp1818
a(S'Quinton Patton'
p1819
g26
tp1820
a(S'Derek Carrier'
p1821
g39
tp1822
a(S'Garrett Celek'
p1823
g39
tp1824
a(S'Vernon Davis'
p1825
g39
tp1826
a(S'Vance McDonald'
p1827
g39
tp1828
a(S'Phil Dawson'
p1829
g46
tp1830
asg48
I00
sg49
F33.0
sg50
F175.0
sg51
F4.0
sg52
F1.0
sg53
F4.0
sg54
S'17-19'
p1831
sg56
I00
sg57
F163.0
sg58
F0.0
ssg249
(dp1832
g5
F30.0
sg6
F0.0
sg7
(lp1833
(S'Kellen Clemens'
p1834
g10
tp1835
a(S'Austin Davis'
p1836
g10
tp1837
a(S'Benny Cunningham'
p1838
g15
tp1839
a(S'Isaiah Pead'
p1840
g15
tp1841
a(S'Chase Reynolds'
p1842
g15
tp1843
a(S'Daryl Richardson'
p1844
g15
tp1845
a(S'Zac Stacy'
p1846
g15
tp1847
a(S'Tavon Austin'
p1848
g26
tp1849
a(S'Stedman Bailey'
p1850
g26
tp1851
a(S'Chris Givens'
p1852
g26
tp1853
a(S'Brian Quick'
p1854
g26
tp1855
a(S'Jared Cook'
p1856
g39
tp1857
a(S'Cory Harkey'
p1858
g39
tp1859
a(S'Lance Kendricks'
p1860
g39
tp1861
a(S'Greg Zuerlein'
p1862
g46
tp1863
asg48
I01
sg49
F18.0
sg50
F157.0
sg51
F1.0
sg52
F1.0
sg53
F1.0
sg54
S'27-9'
p1864
sg56
I01
sg57
F13.0
sg58
F0.0
ssg287
(dp1865
g5
F25.0
sg6
F0.0
sg7
(lp1866
(S'Carson Palmer'
p1867
g10
tp1868
a(S'Drew Stanton'
p1869
g10
tp1870
a(S'Andre Ellington'
p1871
g15
tp1872
a(S'Stepfan Taylor'
p1873
g15
tp1874
a(S'Jaron Brown'
p1875
g26
tp1876
a(S'Larry Fitzgerald'
p1877
g26
tp1878
a(S'Michael Floyd'
p1879
g26
tp1880
a(S'Brittan Golden'
p1881
g26
tp1882
a(S'Andre Roberts'
p1883
g26
tp1884
a(S'Jim Dray'
p1885
g39
tp1886
a(S'Rob Housler'
p1887
g39
tp1888
asg48
I00
sg49
F22.0
sg50
F178.0
sg51
F0.0
sg52
F1.0
sg53
F0.0
sg54
S'10-17'
p1889
sg56
I01
sg57
F76.0
sg58
F0.0
ssg321
(dp1890
g5
F23.0
sg6
F0.0
sg7
(lp1891
(S'Derek Anderson'
p1892
g10
tp1893
a(S'Cam Newton'
p1894
g10
tp1895
a(S'Kenjon Barner'
p1896
g15
tp1897
a(S'Mike Tolbert'
p1898
g15
tp1899
a(S'DeAngelo Williams'
p1900
g15
tp1901
a(S'Ted Ginn'
p1902
g26
tp1903
a(S'Brandon LaFell'
p1904
g26
tp1905
a(S'Steve Smith'
p1906
g26
tp1907
a(S'Greg Olsen'
p1908
g39
tp1909
a(S'Brandon Williams'
p1910
g39
tp1911
a(S'Graham Gano'
p1912
g46
tp1913
asg48
I01
sg49
F26.0
sg50
F125.0
sg51
F0.0
sg52
F1.0
sg53
F0.0
sg54
S'12-7'
p1914
sg56
I00
sg57
F134.0
sg58
F0.0
ssg361
(dp1915
g5
F38.0
sg6
F1.0
sg7
(lp1916
(S'Blaine Gabbert'
p1917
g10
tp1918
a(S'Chad Henne'
p1919
g10
tp1920
a(S'Justin Forsett'
p1921
g15
tp1922
a(S'Denard Robinson'
p1923
g15
tp1924
a(S'Jordan Todman'
p1925
g15
tp1926
a(S'Cecil Shorts'
p1927
g26
tp1928
a(S'Clay Harbor'
p1929
g39
tp1930
a(S'Marcedes Lewis'
p1931
g39
tp1932
a(S'Allen Reisner'
p1933
g39
tp1934
a(S'Josh Scobee'
p1935
g46
tp1936
asg48
I01
sg49
F6.0
sg50
F235.0
sg51
F1.0
sg52
F0.0
sg53
F1.0
sg54
S'45-17'
p1937
sg56
I01
sg57
F8.0
sg58
F0.0
ssg399
(dp1938
g5
F28.0
sg6
F0.0
sg7
(lp1939
(S'Colin Kaepernick'
p1940
g10
tp1941
a(S'Colt McCoy'
p1942
g10
tp1943
a(S'Anthony Dixon'
p1944
g15
tp1945
a(S'Frank Gore'
p1946
g15
tp1947
a(S'Kendall Hunter'
p1948
g15
tp1949
a(S'Bruce Miller'
p1950
g15
tp1951
a(S'Anquan Boldin'
p1952
g26
tp1953
a(S'Marlon Moore'
p1954
g26
tp1955
a(S'Quinton Patton'
p1956
g26
tp1957
a(S'Kyle Williams'
p1958
g26
tp1959
a(S'Garrett Celek'
p1960
g39
tp1961
a(S'Vernon Davis'
p1962
g39
tp1963
a(S'Vance McDonald'
p1964
g39
tp1965
a(S'Phil Dawson'
p1966
g46
tp1967
asg48
I01
sg49
F20.0
sg50
F127.0
sg51
F1.0
sg52
F0.0
sg53
F1.0
sg54
S'29-3'
p1968
sg56
I01
sg57
F100.0
sg58
F0.0
ssg435
(dp1969
g5
F29.0
sg6
F1.0
sg7
(lp1970
(S'Andrew Luck'
p1971
g10
tp1972
a(S'Ahmad Bradshaw'
p1973
g15
tp1974
a(S'Donald Brown'
p1975
g15
tp1976
a(S'Trent Richardson'
p1977
g15
tp1978
a(S'Darrius Heyward-Bey'
p1979
g26
tp1980
a(S'T.Y. Hilton'
p1981
g26
tp1982
a(S'Jack Doyle'
p1983
g39
tp1984
a(S'Coby Fleener'
p1985
g39
tp1986
a(S'Dominique Jones'
p1987
g39
tp1988
a(S'Adam Vinatieri'
p1989
g46
tp1990
asg48
I00
sg49
F29.0
sg50
F229.0
sg51
F2.0
sg52
F2.0
sg53
F2.0
sg54
S'28-34'
p1991
sg56
I00
sg57
F109.0
sg58
F0.0
ssg473
(dp1992
g5
F49.0
sg6
F0.0
sg7
(lp1993
(S'Case Keenum'
p1994
g10
tp1995
a(S'Matt Schaub'
p1996
g10
tp1997
a(S'T.J. Yates'
p1998
g10
tp1999
a(S'Arian Foster'
p2000
g15
tp2001
a(S'DeAndre Hopkins'
p2002
g26
tp2003
a(S'Andre Johnson'
p2004
g26
tp2005
a(S'Keshawn Martin'
p2006
g26
tp2007
a(S'DeVier Posey'
p2008
g26
tp2009
a(S'Owen Daniels'
p2010
g39
tp2011
a(S'Garrett Graham'
p2012
g39
tp2013
a(S'Ryan Griffin'
p2014
g39
tp2015
a(S'Randy Bullock'
p2016
g46
tp2017
asg48
I01
sg49
F28.0
sg50
F355.0
sg51
F2.0
sg52
F2.0
sg53
F2.0
sg54
S'23-20'
p2018
sg56
I00
sg57
F107.0
sg58
F0.0
ssg505
(dp2019
g5
F45.0
sg6
F0.0
sg7
(lp2020
(S'Carson Palmer'
p2021
g10
tp2022
a(S'Drew Stanton'
p2023
g10
tp2024
a(S'Andre Ellington'
p2025
g15
tp2026
a(S'Stepfan Taylor'
p2027
g15
tp2028
a(S'Jaron Brown'
p2029
g26
tp2030
a(S'Larry Fitzgerald'
p2031
g26
tp2032
a(S'Michael Floyd'
p2033
g26
tp2034
a(S'Brittan Golden'
p2035
g26
tp2036
a(S'Andre Roberts'
p2037
g26
tp2038
a(S'Jim Dray'
p2039
g39
tp2040
a(S'Rob Housler'
p2041
g39
tp2042
asg48
I01
sg49
F5.0
sg50
F258.0
sg51
F0.0
sg52
F1.0
sg53
F0.0
sg54
S'34-22'
p2043
sg56
I00
sg57
F8.0
sg58
F0.0
ssg541
(dp2044
g5
F29.0
sg6
F0.0
sg7
(lp2045
(S'Ryan Fitzpatrick'
p2046
g10
tp2047
a(S'Chris Johnson'
p2048
g15
tp2049
a(S'Kenny Britt'
p2050
g26
tp2051
a(S'Justin Hunter'
p2052
g26
tp2053
a(S'Nate Washington'
p2054
g26
tp2055
a(S'Kendall Wright'
p2056
g26
tp2057
a(S'Craig Stevens'
p2058
g39
tp2059
a(S'Delanie Walker'
p2060
g39
tp2061
asg48
I01
sg49
F18.0
sg50
F171.0
sg51
F0.0
sg52
F0.0
sg53
F0.0
sg54
S'20-13'
p2062
sg56
I01
sg57
F66.0
sg58
F0.0
ssg579
(dp2063
g5
F23.0
sg6
F0.0
sg7
(lp2064
(S'Mike Glennon'
p2065
g10
tp2066
a(S'Dan Orlovsky'
p2067
g10
tp2068
a(S'Mike James'
p2069
g15
tp2070
a(S'Doug Martin'
p2071
g15
tp2072
a(S'Bobby Rainey'
p2073
g15
tp2074
a(S'Vincent Jackson'
p2075
g26
tp2076
a(S'Chris Owusu'
p2077
g26
tp2078
a(S'Russell Shepard'
p2079
g26
tp2080
a(S'Timothy Wright'
p2081
g39
tp2082
asg48
I01
sg49
F32.0
sg50
F168.0
sg51
F0.0
sg52
F2.0
sg53
F0.0
sg54
S'27-24'
p2083
sg56
I01
sg57
F171.0
sg58
F0.0
ssg585
(dp2084
g5
F31.0
sg6
F0.0
sg7
(lp2085
(S'Kellen Clemens'
p2086
g10
tp2087
a(S'Austin Davis'
p2088
g10
tp2089
a(S'Benny Cunningham'
p2090
g15
tp2091
a(S'Isaiah Pead'
p2092
g15
tp2093
a(S'Chase Reynolds'
p2094
g15
tp2095
a(S'Daryl Richardson'
p2096
g15
tp2097
a(S'Zac Stacy'
p2098
g15
tp2099
a(S'Tavon Austin'
p2100
g26
tp2101
a(S'Stedman Bailey'
p2102
g26
tp2103
a(S'Chris Givens'
p2104
g26
tp2105
a(S'Brian Quick'
p2106
g26
tp2107
a(S'Jared Cook'
p2108
g39
tp2109
a(S'Cory Harkey'
p2110
g39
tp2111
a(S'Lance Kendricks'
p2112
g39
tp2113
a(S'Greg Zuerlein'
p2114
g46
tp2115
asg48
I01
sg49
F37.0
sg50
F158.0
sg51
F4.0
sg52
F0.0
sg53
F3.0
sg54
S'14-9'
p2116
sg56
I00
sg57
F200.0
sg58
F0.0
sssS'2012'
p2117
(dp2118
g3
(dp2119
g5
F0.0
sg6
F0.0
sg7
(lp2120
sg48
(lp2121
sg49
F0.0
sg50
F0.0
sg51
F0.0
sg52
F0.0
sg53
F0.0
sg54
(lp2122
sg56
(lp2123
sg57
F0.0
sg58
F0.0
ssg59
(dp2124
g5
F22.0
sg6
F0.0
sg7
(lp2125
(S'Mark Sanchez'
p2126
g10
tp2127
a(S'Bilal Powell'
p2128
g15
tp2129
a(S'Stephen Hill'
p2130
g26
tp2131
a(S'Jeremy Kerley'
p2132
g26
tp2133
a(S'Jeff Cumberland'
p2134
g39
tp2135
a(S'Konrad Reuland'
p2136
g39
tp2137
a(S'Nick Folk'
p2138
g46
tp2139
asg48
I01
sg49
F2.0
sg50
F124.0
sg51
F0.0
sg52
F0.0
sg53
F0.0
sg54
S'28-7'
p2140
sg56
I01
sg57
F12.0
sg58
F0.0
ssg97
(dp2141
g5
F26.0
sg6
F0.0
sg7
(lp2142
(S'Jay Cutler'
p2143
g10
tp2144
a(S'Josh McCown'
p2145
g10
tp2146
a(S'Matt Forte'
p2147
g15
tp2148
a(S'Devin Hester'
p2149
g26
tp2150
a(S'Alshon Jeffery'
p2151
g26
tp2152
a(S'Brandon Marshall'
p2153
g26
tp2154
a(S'Eric Weems'
p2155
g26
tp2156
a(S'Kellen Davis'
p2157
g39
tp2158
a(S'Matt Spaeth'
p2159
g39
tp2160
a(S'Robbie Gould'
p2161
g46
tp2162
asg48
I01
sg49
F26.0
sg50
F233.0
sg51
F1.0
sg52
F2.0
sg53
F1.0
sg54
S'23-17'
p2163
sg56
I00
sg57
F93.0
sg58
F0.0
ssg135
(dp2164
g5
F26.0
sg6
F2.0
sg7
(lp2165
(S'Pat Devlin'
p2166
g10
tp2167
a(S'Matt Moore'
p2168
g10
tp2169
a(S'Ryan Tannehill'
p2170
g10
tp2171
a(S'Reggie Bush'
p2172
g15
tp2173
a(S'Jorvorskie Lane'
p2174
g15
tp2175
a(S'Lamar Miller'
p2176
g15
tp2177
a(S'Daniel Thomas'
p2178
g15
tp2179
a(S'Brian Hartline'
p2180
g26
tp2181
a(S'Rishard Matthews'
p2182
g26
tp2183
a(S'Marlon Moore'
p2184
g26
tp2185
a(S'Charles Clay'
p2186
g39
tp2187
a(S'Anthony Fasano'
p2188
g39
tp2189
a(S'Dan Carpenter'
p2190
g46
tp2191
asg48
I00
sg49
F28.0
sg50
F253.0
sg51
F1.0
sg52
F1.0
sg53
F1.0
sg54
S'21-24'
p2192
sg56
I00
sg57
F189.0
sg58
F0.0
ssg171
(dp2193
g5
F38.0
sg6
F1.0
sg7
(lp2194
(S'Ryan Fitzpatrick'
p2195
g10
tp2196
a(S'Tarvaris Jackson'
p2197
g10
tp2198
a(S'C.J. Spiller'
p2199
g15
tp2200
a(S'Marcus Easley'
p2201
g26
tp2202
a(S'T.J. Graham'
p2203
g26
tp2204
a(S'Steve Johnson'
p2205
g26
tp2206
a(S'Scott Chandler'
p2207
g39
tp2208
a(S'Dorin Dickerson'
p2209
g39
tp2210
a(S'Lee Smith'
p2211
g39
tp2212
asg48
I01
sg49
F20.0
sg50
F217.0
sg51
F0.0
sg52
F1.0
sg53
F0.0
sg54
S'50-17'
p2213
sg56
I00
sg57
F111.0
sg58
F0.0
ssg211
(dp2214
g5
F0.0
sg6
F0.0
sg7
(lp2215
(S'Anthony Sherman'
p2216
g15
tp2217
a(S'LaRon Byrd'
p2218
g26
tp2219
a(S'Larry Fitzgerald'
p2220
g26
tp2221
a(S'Michael Floyd'
p2222
g26
tp2223
a(S'Andre Roberts'
p2224
g26
tp2225
a(S'Jim Dray'
p2226
g39
tp2227
a(S'Rob Housler'
p2228
g39
tp2229
asg48
I01
sg49
F0.0
sg50
F0.0
sg51
F0.0
sg52
F0.0
sg53
F0.0
sg54
S'58-0'
p2230
sg56
I01
sg57
F0.0
sg58
F0.0
ssg249
(dp2231
g5
F42.0
sg6
F0.0
sg7
(lp2232
(S'Sam Bradford'
p2233
g10
tp2234
a(S'Kellen Clemens'
p2235
g10
tp2236
a(S'Austin Davis'
p2237
g10
tp2238
a(S'Steven Jackson'
p2239
g15
tp2240
a(S'Isaiah Pead'
p2241
g15
tp2242
a(S'Daryl Richardson'
p2243
g15
tp2244
a(S'Danny Amendola'
p2245
g26
tp2246
a(S'Brandon Gibson'
p2247
g26
tp2248
a(S'Chris Givens'
p2249
g26
tp2250
a(S'Brian Quick'
p2251
g26
tp2252
a(S'Cory Harkey'
p2253
g39
tp2254
a(S'Lance Kendricks'
p2255
g39
tp2256
a(S'Matthew Mulligan'
p2257
g39
tp2258
a(S'Greg Zuerlein'
p2259
g46
tp2260
asg48
I01
sg49
F19.0
sg50
F252.0
sg51
F3.0
sg52
F1.0
sg53
F2.0
sg54
S'20-13'
p2261
sg56
I01
sg57
F79.0
sg58
F0.0
ssg287
(dp2262
g5
F36.0
sg6
F0.0
sg7
(lp2263
(S'Colin Kaepernick'
p2264
g10
tp2265
a(S'Alex Smith'
p2266
g10
tp2267
a(S'Scott Tolzien'
p2268
g10
tp2269
a(S'Anthony Dixon'
p2270
g15
tp2271
a(S'Frank Gore'
p2272
g15
tp2273
a(S'Bruce Miller'
p2274
g15
tp2275
a(S'Will Tukuafu'
p2276
g15
tp2277
a(S'Michael Crabtree'
p2278
g26
tp2279
a(S'Ted Ginn'
p2280
g26
tp2281
a(S'Garrett Celek'
p2282
g39
tp2283
a(S'Vernon Davis'
p2284
g39
tp2285
a(S'Delanie Walker'
p2286
g39
tp2287
asg48
I01
sg49
F15.0
sg50
F244.0
sg51
F0.0
sg52
F1.0
sg53
F0.0
sg54
S'42-13'
p2288
sg56
I01
sg57
F67.0
sg58
F0.0
ssg321
(dp2289
g5
F0.0
sg6
F0.0
sg7
(lp2290
(S'Anthony Sherman'
p2291
g15
tp2292
a(S'LaRon Byrd'
p2293
g26
tp2294
a(S'Larry Fitzgerald'
p2295
g26
tp2296
a(S'Michael Floyd'
p2297
g26
tp2298
a(S'Andre Roberts'
p2299
g26
tp2300
a(S'Jim Dray'
p2301
g39
tp2302
a(S'Rob Housler'
p2303
g39
tp2304
asg48
I00
sg49
F1.0
sg50
F0.0
sg51
F0.0
sg52
F0.0
sg53
F0.0
sg54
S'16-20'
p2305
sg56
I00
sg57
F15.0
sg58
F0.0
ssg361
(dp2306
g5
F39.0
sg6
F0.0
sg7
(lp2307
(S'Aaron Rodgers'
p2308
g10
tp2309
a(S'John Kuhn'
p2310
g15
tp2311
a(S'James Starks'
p2312
g15
tp2313
a(S'Jarrett Boykin'
p2314
g26
tp2315
a(S'Randall Cobb'
p2316
g26
tp2317
a(S'Greg Jennings'
p2318
g26
tp2319
a(S'James Jones'
p2320
g26
tp2321
a(S'Jordy Nelson'
p2322
g26
tp2323
a(S'Mason Crosby'
p2324
g46
tp2325
asg48
I01
sg49
F4.0
sg50
F223.0
sg51
F2.0
sg52
F0.0
sg53
F2.0
sg54
S'14-12'
p2326
sg56
I01
sg57
F39.0
sg58
F0.0
ssg399
(dp2327
g5
F40.0
sg6
F0.0
sg7
(lp2328
(S'Tony Romo'
p2329
g10
tp2330
a(S'DeMarco Murray'
p2331
g15
tp2332
a(S'Cole Beasley'
p2333
g26
tp2334
a(S'Dez Bryant'
p2335
g26
tp2336
a(S'Dwayne Harris'
p2337
g26
tp2338
a(S'Andre Holmes'
p2339
g26
tp2340
a(S'James Hanna'
p2341
g39
tp2342
a(S'John Phillips'
p2343
g39
tp2344
a(S'Jason Witten'
p2345
g39
tp2346
a(S'Dan Bailey'
p2347
g46
tp2348
asg48
I01
sg49
F14.0
sg50
F251.0
sg51
F0.0
sg52
F1.0
sg53
F0.0
sg54
S'27-7'
p2349
sg56
I01
sg57
F43.0
sg58
F0.0
ssg435
(dp2350
g5
F29.0
sg6
F0.0
sg7
(lp2351
(S'Derek Anderson'
p2352
g10
tp2353
a(S'Jimmy Clausen'
p2354
g10
tp2355
a(S'Cam Newton'
p2356
g10
tp2357
a(S'Jonathan Stewart'
p2358
g15
tp2359
a(S'Mike Tolbert'
p2360
g15
tp2361
a(S'DeAngelo Williams'
p2362
g15
tp2363
a(S'Brandon LaFell'
p2364
g26
tp2365
a(S'Louis Murphy'
p2366
g26
tp2367
a(S'Steve Smith'
p2368
g26
tp2369
a(S'Gary Barnidge'
p2370
g39
tp2371
a(S'Greg Olsen'
p2372
g39
tp2373
asg48
I01
sg49
F19.0
sg50
F141.0
sg51
F0.0
sg52
F0.0
sg53
F0.0
sg54
S'16-12'
p2374
sg56
I00
sg57
F70.0
sg58
F0.0
ssg473
(dp2375
g5
F30.0
sg6
F0.0
sg7
(lp2376
(S'Sam Bradford'
p2377
g10
tp2378
a(S'Kellen Clemens'
p2379
g10
tp2380
a(S'Austin Davis'
p2381
g10
tp2382
a(S'Steven Jackson'
p2383
g15
tp2384
a(S'Isaiah Pead'
p2385
g15
tp2386
a(S'Daryl Richardson'
p2387
g15
tp2388
a(S'Danny Amendola'
p2389
g26
tp2390
a(S'Brandon Gibson'
p2391
g26
tp2392
a(S'Chris Givens'
p2393
g26
tp2394
a(S'Brian Quick'
p2395
g26
tp2396
a(S'Lance Kendricks'
p2397
g39
tp2398
a(S'Matthew Mulligan'
p2399
g39
tp2400
a(S'Greg Zuerlein'
p2401
g46
tp2402
asg48
I00
sg49
F27.0
sg50
F221.0
sg51
F4.0
sg52
F0.0
sg53
F4.0
sg54
S'13-19'
p2403
sg56
I00
sg57
F75.0
sg58
F0.0
ssg505
(dp2404
g5
F23.0
sg6
F0.0
sg7
(lp2405
(S'Colin Kaepernick'
p2406
g10
tp2407
a(S'Alex Smith'
p2408
g10
tp2409
a(S'Scott Tolzien'
p2410
g10
tp2411
a(S'Anthony Dixon'
p2412
g15
tp2413
a(S'Frank Gore'
p2414
g15
tp2415
a(S'Kendall Hunter'
p2416
g15
tp2417
a(S'Bruce Miller'
p2418
g15
tp2419
a(S'Will Tukuafu'
p2420
g15
tp2421
a(S'Michael Crabtree'
p2422
g26
tp2423
a(S'Ted Ginn'
p2424
g26
tp2425
a(S'Kyle Williams'
p2426
g26
tp2427
a(S'Garrett Celek'
p2428
g39
tp2429
a(S'Vernon Davis'
p2430
g39
tp2431
a(S'Delanie Walker'
p2432
g39
tp2433
asg48
I00
sg49
F32.0
sg50
F140.0
sg51
F0.0
sg52
F1.0
sg53
F0.0
sg54
S'6-13'
p2434
sg56
I00
sg57
F175.0
sg58
F0.0
ssg541
(dp2435
g5
F58.0
sg6
F0.0
sg7
(lp2436
(S'Tom Brady'
p2437
g10
tp2438
a(S'Ryan Mallett'
p2439
g10
tp2440
a(S'Brandon Bolden'
p2441
g15
tp2442
a(S'Stevan Ridley'
p2443
g15
tp2444
a(S'Shane Vereen'
p2445
g15
tp2446
a(S'Danny Woodhead'
p2447
g15
tp2448
a(S'Julian Edelman'
p2449
g26
tp2450
a(S'Matthew Slater'
p2451
g26
tp2452
a(S'Wes Welker'
p2453
g26
tp2454
a(S'Daniel Fells'
p2455
g39
tp2456
a(S'Rob Gronkowski'
p2457
g39
tp2458
a(S'Michael Hoomanawanui'
p2459
g39
tp2460
a(S'Stephen Gostkowski'
p2461
g46
tp2462
asg48
I01
sg49
F26.0
sg50
F395.0
sg51
F3.0
sg52
F2.0
sg53
F3.0
sg54
S'24-23'
p2463
sg56
I01
sg57
F87.0
sg58
F0.0
ssg579
(dp2464
g5
F0.0
sg6
F2.0
sg7
(lp2465
(S'Joe Webb'
p2466
g10
tp2467
a(S'Matt Asiata'
p2468
g15
tp2469
a(S'Jerome Felton'
p2470
g15
tp2471
a(S'Toby Gerhart'
p2472
g15
tp2473
a(S'Adrian Peterson'
p2474
g15
tp2475
a(S'Percy Harvin'
p2476
g26
tp2477
a(S'Jerome Simpson'
p2478
g26
tp2479
a(S'Jarius Wright'
p2480
g26
tp2481
a(S'Rhett Ellison'
p2482
g39
tp2483
a(S'Allen Reisner'
p2484
g39
tp2485
a(S'Kyle Rudolph'
p2486
g39
tp2487
a(S'Blair Walsh'
p2488
g46
tp2489
asg48
I01
sg49
F22.0
sg50
F0.0
sg51
F2.0
sg52
F0.0
sg53
F2.0
sg54
S'30-20'
p2490
sg56
I01
sg57
F220.0
sg58
F0.0
ssg585
(dp2491
g5
F49.0
sg6
F1.0
sg7
(lp2492
(S'Shaun Hill'
p2493
g10
tp2494
a(S'Kellen Moore'
p2495
g10
tp2496
a(S'Matthew Stafford'
p2497
g10
tp2498
a(S'Brandon Pettigrew'
p2499
g39
tp2500
asg48
I00
sg49
F4.0
sg50
F352.0
sg51
F0.0
sg52
F3.0
sg53
F0.0
sg54
S'24-28'
p2501
sg56
I00
sg57
F12.0
sg58
F0.0
sss.