(dp0
S'2015'
p1
(dp2
S'11'
p3
(dp4
S'PassAtt'
p5
F29.0
sS'RushTD'
p6
F1.0
sS'Players'
p7
(lp8
(S'Tarvaris Jackson'
p9
S'QB'
p10
tp11
a(S'Russell Wilson'
p12
g10
tp13
a(S'Derrick Coleman'
p14
S'RB'
p15
tp16
a(S'Fred Jackson'
p17
g15
tp18
a(S'Thomas Rawls'
p19
g15
tp20
a(S'Will Tukuafu'
p21
g15
tp22
a(S'Doug Baldwin'
p23
S'WR'
p24
tp25
a(S'Jermaine Kearse'
p26
g24
tp27
a(S'Tyler Lockett'
p28
g24
tp29
a(S'Paul Richardson'
p30
g24
tp31
a(S'Kevin Smith'
p32
g24
tp33
a(S'Jimmy Graham'
p34
S'TE'
p35
tp36
a(S'Cooper Helfet'
p37
g35
tp38
a(S'Luke Willson'
p39
g35
tp40
a(S'Steven Hauschka'
p41
S'K'
p42
tp43
asS'Won'
p44
I00
sS'RushAtt'
p45
F44.0
sS'PassYds'
p46
F260.0
sS'FGAtt'
p47
F1.0
sS'PassTD'
p48
F3.0
sS'FGM'
p49
F1.0
sS'Score'
p50
S'13-29'
p51
sS'Home'
p52
I00
sS'RushYds'
p53
F255.0
sS'FGBlk'
p54
F0.0
ssS'10'
p55
(dp56
g5
F0.0
sg6
F0.0
sg7
(lp57
sg44
(lp58
sg45
F0.0
sg46
F0.0
sg47
F0.0
sg48
F0.0
sg49
F0.0
sg50
(lp59
sg52
(lp60
sg53
F0.0
sg54
F0.0
ssS'13'
p61
(dp62
g5
F31.0
sg6
F2.0
sg7
(lp63
(S'Jay Cutler'
p64
g10
tp65
a(S'David Fales'
p66
g10
tp67
a(S"Ka'Deem Carey"
p68
g15
tp69
a(S'Matt Forte'
p70
g15
tp71
a(S'Jeremy Langford'
p72
g15
tp73
a(S'Josh Bellamy'
p74
g24
tp75
a(S'Alshon Jeffery'
p76
g24
tp77
a(S'Marc Mariani'
p78
g24
tp79
a(S'Cameron Meredith'
p80
g24
tp81
a(S'Eddie Royal'
p82
g24
tp83
a(S'Deonte Thompson'
p84
g24
tp85
a(S'Marquess Wilson'
p86
g24
tp87
a(S'Martellus Bennett'
p88
g35
tp89
a(S'Khari Lee'
p90
g35
tp91
a(S'Zach Miller'
p92
g35
tp93
a(S'Robbie Gould'
p94
g42
tp95
asg44
I01
sg45
F42.0
sg46
F202.0
sg47
F4.0
sg48
F0.0
sg49
F2.0
sg50
S'26-20'
p96
sg52
I00
sg53
F170.0
sg54
F0.0
ssS'12'
p97
(dp98
g5
F40.0
sg6
F2.0
sg7
(lp99
(S'Matt Barkley'
p100
g10
tp101
a(S'Carson Palmer'
p102
g10
tp103
a(S'Drew Stanton'
p104
g10
tp105
a(S'Andre Ellington'
p106
g15
tp107
a(S'Chris Johnson'
p108
g15
tp109
a(S'David Johnson'
p110
g15
tp111
a(S'Stepfan Taylor'
p112
g15
tp113
a(S'Jaron Brown'
p114
g24
tp115
a(S'John Brown'
p116
g24
tp117
a(S'Larry Fitzgerald'
p118
g24
tp119
a(S'Michael Floyd'
p120
g24
tp121
a(S'Brittan Golden'
p122
g24
tp123
a(S'J.J. Nelson'
p124
g24
tp125
a(S'Darren Fells'
p126
g35
tp127
a(S'Jermaine Gresham'
p128
g35
tp129
a(S'Troy Niklas'
p130
g35
tp131
a(S'Chandler Catanzaro'
p132
g42
tp133
asg44
I00
sg45
F29.0
sg46
F271.0
sg47
F2.0
sg48
F0.0
sg49
F2.0
sg50
S'13-19'
p134
sg52
I01
sg53
F70.0
sg54
F0.0
ssS'15'
p135
(dp136
g5
F21.0
sg6
F2.0
sg7
(lp137
(S'Andy Dalton'
p138
g10
tp139
a(S'AJ McCarron'
p140
g10
tp141
a(S'Keith Wenning'
p142
g10
tp143
a(S'Giovani Bernard'
p144
g15
tp145
a(S'Rex Burkhead'
p146
g15
tp147
a(S'Jeremy Hill'
p148
g15
tp149
a(S'Cedric Peerman'
p150
g15
tp151
a(S'Mario Alford'
p152
g24
tp153
a(S'A.J. Green'
p154
g24
tp155
a(S'Marvin Jones'
p156
g24
tp157
a(S'Mohamed Sanu'
p158
g24
tp159
a(S'Brandon Tate'
p160
g24
tp161
a(S'Tyler Eifert'
p162
g35
tp163
a(S'Ryan Hewitt'
p164
g35
tp165
a(S'Tyler Kroft'
p166
g35
tp167
a(S'C.J. Uzomah'
p168
g35
tp169
a(S'Mike Nugent'
p170
g42
tp171
asg44
I00
sg45
F36.0
sg46
F192.0
sg47
F1.0
sg48
F1.0
sg49
F1.0
sg50
S'14-24'
p172
sg52
I01
sg53
F68.0
sg54
F0.0
ssS'14'
p173
(dp174
g5
F31.0
sg6
F2.0
sg7
(lp175
(S'Austin Davis'
p176
g10
tp177
a(S'Johnny Manziel'
p178
g10
tp179
a(S'Isaiah Crowell'
p180
g15
tp181
a(S'Duke Johnson'
p182
g15
tp183
a(S'Glenn Winston'
p184
g15
tp185
a(S'Travis Benjamin'
p186
g24
tp187
a(S'Dwayne Bowe'
p188
g24
tp189
a(S'Taylor Gabriel'
p190
g24
tp191
a(S'Brian Hartline'
p192
g24
tp193
a(S'Andrew Hawkins'
p194
g24
tp195
a(S'Darius Jennings'
p196
g24
tp197
a(S'Marlon Moore'
p198
g24
tp199
a(S'Terrelle Pryor'
p200
g24
tp201
a(S'Gary Barnidge'
p202
g35
tp203
a(S'E.J. Bibbs'
p204
g35
tp205
a(S'Jim Dray'
p206
g35
tp207
a(S'Travis Coons'
p208
g42
tp209
asg44
I00
sg45
F41.0
sg46
F270.0
sg47
F2.0
sg48
F1.0
sg49
F1.0
sg50
S'10-24'
p210
sg52
I00
sg53
F230.0
sg54
F1.0
ssS'17'
p211
(dp212
g5
F37.0
sg6
F1.0
sg7
(lp213
(S'Nick Foles'
p214
g10
tp215
a(S'Case Keenum'
p216
g10
tp217
a(S'Sean Mannion'
p218
g10
tp219
a(S'Malcolm Brown'
p220
g15
tp221
a(S'Benny Cunningham'
p222
g15
tp223
a(S'Todd Gurley'
p224
g15
tp225
a(S'Tre Mason'
p226
g15
tp227
a(S'Chase Reynolds'
p228
g15
tp229
a(S'Tavon Austin'
p230
g24
tp231
a(S'Kenny Britt'
p232
g24
tp233
a(S'Bradley Marquez'
p234
g24
tp235
a(S'Brian Quick'
p236
g24
tp237
a(S'Nick Toon'
p238
g24
tp239
a(S'Jared Cook'
p240
g35
tp241
a(S'Cory Harkey'
p242
g35
tp243
a(S'Lance Kendricks'
p244
g35
tp245
a(S'Greg Zuerlein'
p246
g42
tp247
asg44
I01
sg45
F33.0
sg46
F231.0
sg47
F5.0
sg48
F0.0
sg49
F3.0
sg50
S'19-16'
p248
sg52
I01
sg53
F133.0
sg54
F1.0
ssS'16'
p249
(dp250
g5
F37.0
sg6
F0.0
sg7
(lp251
(S'Dan Orlovsky'
p252
g10
tp253
a(S'Matthew Stafford'
p254
g10
tp255
a(S'Ameer Abdullah'
p256
g15
tp257
a(S'Michael Burton'
p258
g15
tp259
a(S'Theo Riddick'
p260
g15
tp261
a(S'George Winn'
p262
g15
tp263
a(S'Corey Fuller'
p264
g24
tp265
a(S'T.J. Jones'
p266
g24
tp267
a(S'Lance Moore'
p268
g24
tp269
a(S'Golden Tate'
p270
g24
tp271
a(S'Eric Ebron'
p272
g35
tp273
a(S'Bear Pascoe'
p274
g35
tp275
a(S'Timothy Wright'
p276
g35
tp277
a(S'Matt Prater'
p278
g42
tp279
asg44
I00
sg45
F20.0
sg46
F301.0
sg47
F4.0
sg48
F2.0
sg49
F4.0
sg50
S'17-32'
p280
sg52
I00
sg53
F70.0
sg54
F0.0
ssS'1'
p281
(dp282
g5
F32.0
sg6
F0.0
sg7
(lp283
(S'Teddy Bridgewater'
p284
g10
tp285
a(S'Taylor Heinicke'
p286
g10
tp287
a(S'Shaun Hill'
p288
g10
tp289
a(S'Matt Asiata'
p290
g15
tp291
a(S'Zach Line'
p292
g15
tp293
a(S'Jerick McKinnon'
p294
g15
tp295
a(S'Adrian Peterson'
p296
g15
tp297
a(S'Stefon Diggs'
p298
g24
tp299
a(S'Charles Johnson'
p300
g24
tp301
a(S'Cordarrelle Patterson'
p302
g24
tp303
a(S'Adam Thielen'
p304
g24
tp305
a(S'Mike Wallace'
p306
g24
tp307
a(S'Jarius Wright'
p308
g24
tp309
a(S'Rhett Ellison'
p310
g35
tp311
a(S'MyCole Pruitt'
p312
g35
tp313
a(S'Kyle Rudolph'
p314
g35
tp315
a(S'Blair Walsh'
p316
g42
tp317
asg44
I01
sg45
F17.0
sg46
F231.0
sg47
F2.0
sg48
F0.0
sg49
F1.0
sg50
S'20-3'
p318
sg52
I01
sg53
F71.0
sg54
F0.0
ssS'3'
p319
(dp320
g5
F32.0
sg6
F2.0
sg7
(lp321
(S'Matt Barkley'
p322
g10
tp323
a(S'Carson Palmer'
p324
g10
tp325
a(S'Drew Stanton'
p326
g10
tp327
a(S'Andre Ellington'
p328
g15
tp329
a(S'Chris Johnson'
p330
g15
tp331
a(S'David Johnson'
p332
g15
tp333
a(S'Stepfan Taylor'
p334
g15
tp335
a(S'Jaron Brown'
p336
g24
tp337
a(S'John Brown'
p338
g24
tp339
a(S'Larry Fitzgerald'
p340
g24
tp341
a(S'Michael Floyd'
p342
g24
tp343
a(S'Brittan Golden'
p344
g24
tp345
a(S'J.J. Nelson'
p346
g24
tp347
a(S'Darren Fells'
p348
g35
tp349
a(S'Jermaine Gresham'
p350
g35
tp351
a(S'Troy Niklas'
p352
g35
tp353
a(S'Chandler Catanzaro'
p354
g42
tp355
asg44
I00
sg45
F37.0
sg46
F311.0
sg47
F1.0
sg48
F2.0
sg49
F1.0
sg50
S'7-47'
p356
sg52
I00
sg53
F139.0
sg54
F0.0
ssS'2'
p357
(dp358
g5
F27.0
sg6
F3.0
sg7
(lp359
(S'Landry Jones'
p360
g10
tp361
a(S'Ben Roethlisberger'
p362
g10
tp363
a(S'Mike Vick'
p364
g10
tp365
a(S'Dri Archer'
p366
g15
tp367
a(S'Will Johnson'
p368
g15
tp369
a(S'Roosevelt Nix-Jones'
p370
g15
tp371
a(S'Jordan Todman'
p372
g15
tp373
a(S'DeAngelo Williams'
p374
g15
tp375
a(S'Antonio Brown'
p376
g24
tp377
a(S'Sammie Coates'
p378
g24
tp379
a(S'Darrius Heyward-Bey'
p380
g24
tp381
a(S'Tyler Murphy'
p382
g24
tp383
a(S'Markus Wheaton'
p384
g24
tp385
a(S'Jesse James'
p386
g35
tp387
a(S'Matt Spaeth'
p388
g35
tp389
a(S'Josh Scobee'
p390
g42
tp391
asg44
I00
sg45
F25.0
sg46
F369.0
sg47
F0.0
sg48
F3.0
sg49
F0.0
sg50
S'18-43'
p392
sg52
I00
sg53
F84.0
sg54
F0.0
ssS'5'
p393
(dp394
g5
F54.0
sg6
F0.0
sg7
(lp395
(S'Eli Manning'
p396
g10
tp397
a(S'Ryan Nassib'
p398
g10
tp399
a(S'Orleans Darkwa'
p400
g15
tp401
a(S'Cyrus Gray'
p402
g15
tp403
a(S'Rashad Jennings'
p404
g15
tp405
a(S'Shane Vereen'
p406
g15
tp407
a(S'Nikit Whitlock'
p408
g15
tp409
a(S'Andre Williams'
p410
g15
tp411
a(S'Odell Beckham'
p412
g24
tp413
a(S'Victor Cruz'
p414
g24
tp415
a(S'Geremy Davis'
p416
g24
tp417
a(S'Dwayne Harris'
p418
g24
tp419
a(S'Rueben Randle'
p420
g24
tp421
a(S'Myles White'
p422
g24
tp423
a(S'Jerome Cunningham'
p424
g35
tp425
a(S'Larry Donnell'
p426
g35
tp427
a(S'Will Tye'
p428
g35
tp429
a(S'Josh Brown'
p430
g42
tp431
asg44
I00
sg45
F21.0
sg46
F441.0
sg47
F3.0
sg48
F3.0
sg49
F3.0
sg50
S'27-30'
p432
sg52
I00
sg53
F84.0
sg54
F0.0
ssS'4'
p433
(dp434
g5
F32.0
sg6
F1.0
sg7
(lp435
(S'Brett Hundley'
p436
g10
tp437
a(S'Aaron Rodgers'
p438
g10
tp439
a(S'Scott Tolzien'
p440
g10
tp441
a(S'John Kuhn'
p442
g15
tp443
a(S'Eddie Lacy'
p444
g15
tp445
a(S'Aaron Ripkowski'
p446
g15
tp447
a(S'James Starks'
p448
g15
tp449
a(S'Jared Abbrederis'
p450
g24
tp451
a(S'Davante Adams'
p452
g24
tp453
a(S'Randall Cobb'
p454
g24
tp455
a(S'Jeff Janis'
p456
g24
tp457
a(S'James Jones'
p458
g24
tp459
a(S'Ty Montgomery'
p460
g24
tp461
a(S'Kennard Backman'
p462
g35
tp463
a(S'Richard Rodgers'
p464
g35
tp465
a(S'Mason Crosby'
p466
g42
tp467
asg44
I00
sg45
F33.0
sg46
F224.0
sg47
F2.0
sg48
F1.0
sg49
F1.0
sg50
S'3-17'
p468
sg52
I01
sg53
F162.0
sg54
F0.0
ssS'7'
p469
(dp470
g5
F24.0
sg6
F0.0
sg7
(lp471
(S'Tarvaris Jackson'
p472
g10
tp473
a(S'Russell Wilson'
p474
g10
tp475
a(S'Derrick Coleman'
p476
g15
tp477
a(S'Fred Jackson'
p478
g15
tp479
a(S'Thomas Rawls'
p480
g15
tp481
a(S'Will Tukuafu'
p482
g15
tp483
a(S'Doug Baldwin'
p484
g24
tp485
a(S'Jermaine Kearse'
p486
g24
tp487
a(S'Tyler Lockett'
p488
g24
tp489
a(S'Ricardo Lockette'
p490
g24
tp491
a(S'Chris Matthews'
p492
g24
tp493
a(S'Jimmy Graham'
p494
g35
tp495
a(S'Cooper Helfet'
p496
g35
tp497
a(S'Luke Willson'
p498
g35
tp499
a(S'Steven Hauschka'
p500
g42
tp501
asg44
I00
sg45
F14.0
sg46
F235.0
sg47
F2.0
sg48
F1.0
sg49
F2.0
sg50
S'3-20'
p502
sg52
I01
sg53
F54.0
sg54
F0.0
ssS'6'
p503
(dp504
g5
F53.0
sg6
F0.0
sg7
(lp505
(S'Joe Flacco'
p506
g10
tp507
a(S'Matt Schaub'
p508
g10
tp509
a(S'Javorius Allen'
p510
g15
tp511
a(S'Justin Forsett'
p512
g15
tp513
a(S'Kyle Juszczyk'
p514
g15
tp515
a(S'Terrence Magee'
p516
g15
tp517
a(S'Raheem Mostert'
p518
g15
tp519
a(S'Kamar Aiken'
p520
g24
tp521
a(S'Chris Givens'
p522
g24
tp523
a(S'Breshad Perriman'
p524
g24
tp525
a(S'Jeremy Ross'
p526
g24
tp527
a(S'Steve Smith'
p528
g24
tp529
a(S'Darren Waller'
p530
g24
tp531
a(S'Nick Boyle'
p532
g35
tp533
a(S'Crockett Gillmore'
p534
g35
tp535
a(S'Maxx Williams'
p536
g35
tp537
a(S'Justin Tucker'
p538
g42
tp539
asg44
I01
sg45
F22.0
sg46
F343.0
sg47
F3.0
sg48
F2.0
sg49
F2.0
sg50
S'25-20'
p540
sg52
I01
sg53
F77.0
sg54
F0.0
ssS'9'
p541
(dp542
g5
F45.0
sg6
F0.0
sg7
(lp543
(S'Sean Renfree'
p544
g10
tp545
a(S'Matt Ryan'
p546
g10
tp547
a(S'Tevin Coleman'
p548
g15
tp549
a(S'Patrick DiMarco'
p550
g15
tp551
a(S'Devont Freeman'
p552
g15
tp553
a(S'Terron Ward'
p554
g15
tp555
a(S'Leonard Hankerson'
p556
g24
tp557
a(S'Justin Hardy'
p558
g24
tp559
a(S'Julio Jones'
p560
g24
tp561
a(S'Eric Weems'
p562
g24
tp563
a(S'Roddy White'
p564
g24
tp565
a(S'Nick Williams'
p566
g24
tp567
a(S'Tony Moeaki'
p568
g35
tp569
a(S'Jacob Tamme'
p570
g35
tp571
a(S'Levine Toilolo'
p572
g35
tp573
a(S'Matt Bryant'
p574
g42
tp575
asg44
I01
sg45
F14.0
sg46
F303.0
sg47
F3.0
sg48
F1.0
sg49
F3.0
sg50
S'17-16'
p576
sg52
I01
sg53
F17.0
sg54
F0.0
ssS'8'
p577
(dp578
g5
F23.0
sg6
F2.0
sg7
(lp579
(S'Nick Foles'
p580
g10
tp581
a(S'Case Keenum'
p582
g10
tp583
a(S'Sean Mannion'
p584
g10
tp585
a(S'Benny Cunningham'
p586
g15
tp587
a(S'Todd Gurley'
p588
g15
tp589
a(S'Tre Mason'
p590
g15
tp591
a(S'Chase Reynolds'
p592
g15
tp593
a(S'Tavon Austin'
p594
g24
tp595
a(S'Stedman Bailey'
p596
g24
tp597
a(S'Justin Blackmon'
p598
g24
tp599
a(S'Kenny Britt'
p600
g24
tp601
a(S'Bradley Marquez'
p602
g24
tp603
a(S'Brian Quick'
p604
g24
tp605
a(S'Jared Cook'
p606
g35
tp607
a(S'Justice Cunningham'
p608
g35
tp609
a(S'Cory Harkey'
p610
g35
tp611
a(S'Lance Kendricks'
p612
g35
tp613
a(S'Greg Zuerlein'
p614
g42
tp615
asg44
I00
sg45
F42.0
sg46
F191.0
sg47
F2.0
sg48
F1.0
sg49
F1.0
sg50
S'6-27'
p616
sg52
I00
sg53
F196.0
sg54
F1.0
sssS'2014'
p617
(dp618
g3
(dp619
g5
F45.0
sg6
F0.0
sg7
(lp620
(S'Eli Manning'
p621
g10
tp622
a(S'Ryan Nassib'
p623
g10
tp624
a(S'Orleans Darkwa'
p625
g15
tp626
a(S'Rashad Jennings'
p627
g15
tp628
a(S'Andre Williams'
p629
g15
tp630
a(S'Odell Beckham'
p631
g24
tp632
a(S'Rueben Randle'
p633
g24
tp634
a(S'Larry Donnell'
p635
g35
tp636
a(S'Daniel Fells'
p637
g35
tp638
a(S'Josh Brown'
p639
g42
tp640
asg44
I01
sg45
F20.0
sg46
F280.0
sg47
F1.0
sg48
F1.0
sg49
F1.0
sg50
S'16-10'
p641
sg52
I00
sg53
F61.0
sg54
F0.0
ssg55
(dp642
g5
F47.0
sg6
F0.0
sg7
(lp643
(S'Drew Brees'
p644
g10
tp645
a(S'Luke McCown'
p646
g10
tp647
a(S'Travaris Cadet'
p648
g15
tp649
a(S'Mark Ingram'
p650
g15
tp651
a(S'Khiry Robinson'
p652
g15
tp653
a(S'Pierre Thomas'
p654
g15
tp655
a(S'Marques Colston'
p656
g24
tp657
a(S'Brandin Cooks'
p658
g24
tp659
a(S'Kenny Stills'
p660
g24
tp661
a(S'Nick Toon'
p662
g24
tp663
a(S'Jimmy Graham'
p664
g35
tp665
a(S'Josh Hill'
p666
g35
tp667
a(S'Benjamin Watson'
p668
g35
tp669
a(S'Shayne Graham'
p670
g42
tp671
asg44
I01
sg45
F31.0
sg46
F292.0
sg47
F1.0
sg48
F3.0
sg49
F1.0
sg50
S'27-24'
p672
sg52
I00
sg53
F136.0
sg54
F0.0
ssg61
(dp673
g5
F22.0
sg6
F0.0
sg7
(lp674
(S'Tarvaris Jackson'
p675
g10
tp676
a(S'Russell Wilson'
p677
g10
tp678
a(S'Christine Michael'
p679
g15
tp680
a(S'Will Tukuafu'
p681
g15
tp682
a(S'Robert Turbin'
p683
g15
tp684
a(S'Doug Baldwin'
p685
g24
tp686
a(S'Jermaine Kearse'
p687
g24
tp688
a(S'Ricardo Lockette'
p689
g24
tp690
a(S'Kevin Norwood'
p691
g24
tp692
a(S'Paul Richardson'
p693
g24
tp694
a(S'Bryan Walters'
p695
g24
tp696
a(S'RaShaun Allen'
p697
g35
tp698
a(S'Cooper Helfet'
p699
g35
tp700
a(S'Tony Moeaki'
p701
g35
tp702
a(S'Luke Willson'
p703
g35
tp704
a(S'Steven Hauschka'
p705
g42
tp706
asg44
I00
sg45
F14.0
sg46
F236.0
sg47
F4.0
sg48
F1.0
sg49
F4.0
sg50
S'3-19'
p707
sg52
I01
sg53
F53.0
sg54
F0.0
ssg97
(dp708
g5
F19.0
sg6
F1.0
sg7
(lp709
(S'Kirk Cousins'
p710
g10
tp711
a(S'Robert Griffin III'
p712
g10
tp713
a(S'Colt McCoy'
p714
g10
tp715
a(S'Roy Helu'
p716
g15
tp717
a(S'Alfred Morris'
p718
g15
tp719
a(S'Silas Redd'
p720
g15
tp721
a(S'Darrel Young'
p722
g15
tp723
a(S'Pierre Garcon'
p724
g24
tp725
a(S'Ryan Grant'
p726
g24
tp727
a(S'Leonard Hankerson'
p728
g24
tp729
a(S'DeSean Jackson'
p730
g24
tp731
a(S'Andre Roberts'
p732
g24
tp733
a(S'Aldrick Robinson'
p734
g24
tp735
a(S'Niles Paul'
p736
g35
tp737
a(S'Logan Paulsen'
p738
g35
tp739
a(S'Jordan Reed'
p740
g35
tp741
a(S'Kai Forbath'
p742
g42
tp743
asg44
I01
sg45
F27.0
sg46
F106.0
sg47
F2.0
sg48
F0.0
sg49
F2.0
sg50
S'17-13'
p744
sg52
I01
sg53
F136.0
sg54
F0.0
ssg135
(dp745
g5
F24.0
sg6
F0.0
sg7
(lp746
(S'Tarvaris Jackson'
p747
g10
tp748
a(S'Russell Wilson'
p749
g10
tp750
a(S'Christine Michael'
p751
g15
tp752
a(S'Will Tukuafu'
p753
g15
tp754
a(S'Robert Turbin'
p755
g15
tp756
a(S'Doug Baldwin'
p757
g24
tp758
a(S'Jermaine Kearse'
p759
g24
tp760
a(S'Ricardo Lockette'
p761
g24
tp762
a(S'Chris Matthews'
p763
g24
tp764
a(S'Kevin Norwood'
p765
g24
tp766
a(S'Paul Richardson'
p767
g24
tp768
a(S'Bryan Walters'
p769
g24
tp770
a(S'RaShaun Allen'
p771
g35
tp772
a(S'Cooper Helfet'
p773
g35
tp774
a(S'Tony Moeaki'
p775
g35
tp776
a(S'Luke Willson'
p777
g35
tp778
a(S'Steven Hauschka'
p779
g42
tp780
asg44
I00
sg45
F11.0
sg46
F168.0
sg47
F1.0
sg48
F1.0
sg49
F1.0
sg50
S'7-17'
p781
sg52
I00
sg53
F61.0
sg54
F0.0
ssg173
(dp782
g5
F28.0
sg6
F0.0
sg7
(lp783
(S'Derek Carr'
p784
g10
tp785
a(S'Matt McGloin'
p786
g10
tp787
a(S'Matt Schaub'
p788
g10
tp789
a(S'George Atkinson'
p790
g15
tp791
a(S'Darren McFadden'
p792
g15
tp793
a(S'Latavius Murray'
p794
g15
tp795
a(S'Jamize Olawale'
p796
g15
tp797
a(S'Marcel Reece'
p798
g15
tp799
a(S'Vincent Brown'
p800
g24
tp801
a(S'Brice Butler'
p802
g24
tp803
a(S'Andre Holmes'
p804
g24
tp805
a(S'James Jones'
p806
g24
tp807
a(S'Kenbrell Thompkins'
p808
g24
tp809
a(S'Brian Leonhardt'
p810
g35
tp811
a(S'Mychal Rivera'
p812
g35
tp813
a(S'Scott Simonson'
p814
g35
tp815
a(S'Sebastian Janikowski'
p816
g42
tp817
asg44
I00
sg45
F31.0
sg46
F254.0
sg47
F1.0
sg48
F3.0
sg49
F1.0
sg50
S'13-24'
p818
sg52
I00
sg53
F85.0
sg54
F0.0
ssg211
(dp819
g5
F0.0
sg6
F0.0
sg7
(lp820
(S'Drew Stanton'
p821
g10
tp822
a(S'Logan Thomas'
p823
g10
tp824
a(S'Stepfan Taylor'
p825
g15
tp826
a(S'Kerwynn Williams'
p827
g15
tp828
a(S'Jaron Brown'
p829
g24
tp830
a(S'John Brown'
p831
g24
tp832
a(S'Larry Fitzgerald'
p833
g24
tp834
a(S'Michael Floyd'
p835
g24
tp836
a(S'Ted Ginn'
p837
g24
tp838
a(S'Brittan Golden'
p839
g24
tp840
a(S'Darren Fells'
p841
g35
tp842
a(S'Rob Housler'
p843
g35
tp844
a(S'Chandler Catanzaro'
p845
g42
tp846
asg44
I01
sg45
F24.0
sg46
F0.0
sg47
F1.0
sg48
F0.0
sg49
F1.0
sg50
S'20-17'
p847
sg52
I01
sg53
F93.0
sg54
F0.0
ssg249
(dp848
g5
F54.0
sg6
F0.0
sg7
(lp849
(S'Kellen Clemens'
p850
g10
tp851
a(S'Philip Rivers'
p852
g10
tp853
a(S'Donald Brown'
p854
g15
tp855
a(S'Ryan Mathews'
p856
g15
tp857
a(S'Branden Oliver'
p858
g15
tp859
a(S'Seyi Ajirotutu'
p860
g24
tp861
a(S'Keenan Allen'
p862
g24
tp863
a(S'Malcom Floyd'
p864
g24
tp865
a(S'Dontrelle Inman'
p866
g24
tp867
a(S'Eddie Royal'
p868
g24
tp869
a(S'Antonio Gates'
p870
g35
tp871
a(S'Ladarius Green'
p872
g35
tp873
a(S'David Johnson'
p874
g35
tp875
a(S'John Phillips'
p876
g35
tp877
a(S'Nick Novak'
p878
g42
tp879
asg44
I00
sg45
F17.0
sg46
F356.0
sg47
F1.0
sg48
F4.0
sg49
F1.0
sg50
S'35-38'
p880
sg52
I01
sg53
F65.0
sg54
F0.0
ssg281
(dp881
g5
F37.0
sg6
F1.0
sg7
(lp882
(S'Tony Romo'
p883
g10
tp884
a(S'Dustin Vaughan'
p885
g10
tp886
a(S'Brandon Weeden'
p887
g10
tp888
a(S'Tyler Clutts'
p889
g15
tp890
a(S'Lance Dunbar'
p891
g15
tp892
a(S'DeMarco Murray'
p893
g15
tp894
a(S'Cole Beasley'
p895
g24
tp896
a(S'Dez Bryant'
p897
g24
tp898
a(S'Dwayne Harris'
p899
g24
tp900
a(S'Devin Street'
p901
g24
tp902
a(S'Terrance Williams'
p903
g24
tp904
a(S'Gavin Escobar'
p905
g35
tp906
a(S'James Hanna'
p907
g35
tp908
a(S'Jason Witten'
p909
g35
tp910
a(S'Dan Bailey'
p911
g42
tp912
asg44
I01
sg45
F23.0
sg46
F281.0
sg47
F1.0
sg48
F1.0
sg49
F1.0
sg50
S'28-17'
p913
sg52
I00
sg53
F127.0
sg54
F0.0
ssg319
(dp914
g5
F33.0
sg6
F0.0
sg7
(lp915
(S'Carson Palmer'
p916
g10
tp917
a(S'Drew Stanton'
p918
g10
tp919
a(S'Logan Thomas'
p920
g10
tp921
a(S'Andre Ellington'
p922
g15
tp923
a(S'Stepfan Taylor'
p924
g15
tp925
a(S'Jaron Brown'
p926
g24
tp927
a(S'John Brown'
p928
g24
tp929
a(S'Larry Fitzgerald'
p930
g24
tp931
a(S'Michael Floyd'
p932
g24
tp933
a(S'Ted Ginn'
p934
g24
tp935
a(S'Darren Fells'
p936
g35
tp937
a(S'Rob Housler'
p938
g35
tp939
a(S'Troy Niklas'
p940
g35
tp941
a(S'Chandler Catanzaro'
p942
g42
tp943
asg44
I00
sg45
F26.0
sg46
F244.0
sg47
F3.0
sg48
F2.0
sg49
F3.0
sg50
S'14-23'
p944
sg52
I00
sg53
F84.0
sg54
F0.0
ssg357
(dp945
g5
F34.0
sg6
F0.0
sg7
(lp946
(S'Jimmy Clausen'
p947
g10
tp948
a(S'Jay Cutler'
p949
g10
tp950
a(S"Ka'Deem Carey"
p951
g15
tp952
a(S'Shaun Draughn'
p953
g15
tp954
a(S'Matt Forte'
p955
g15
tp956
a(S'Senorise Perry'
p957
g15
tp958
a(S'Josh Bellamy'
p959
g24
tp960
a(S'Alshon Jeffery'
p961
g24
tp962
a(S'Brandon Marshall'
p963
g24
tp964
a(S'Martellus Bennett'
p965
g35
tp966
a(S'Matthew Mulligan'
p967
g35
tp968
a(S'Robbie Gould'
p969
g42
tp970
asg44
I00
sg45
F17.0
sg46
F176.0
sg47
F0.0
sg48
F4.0
sg49
F0.0
sg50
S'20-28'
p971
sg52
I01
sg53
F46.0
sg54
F0.0
ssg393
(dp972
g5
F30.0
sg6
F1.0
sg7
(lp973
(S'Chase Daniel'
p974
g10
tp975
a(S'Aaron Murray'
p976
g10
tp977
a(S'Alex Smith'
p978
g10
tp979
a(S'Jamaal Charles'
p980
g15
tp981
a(S'Knile Davis'
p982
g15
tp983
a(S'Cyrus Gray'
p984
g15
tp985
a(S'Anthony Sherman'
p986
g15
tp987
a(S'Dwayne Bowe'
p988
g24
tp989
a(S'Frankie Hammond'
p990
g24
tp991
a(S"De'Anthony Thomas"
p992
g24
tp993
a(S'Albert Wilson'
p994
g24
tp995
a(S'Anthony Fasano'
p996
g35
tp997
a(S'Demetrius Harris'
p998
g35
tp999
a(S'Travis Kelce'
p1000
g35
tp1001
a(S'Cairo Santos'
p1002
g42
tp1003
asg44
I01
sg45
F19.0
sg46
F158.0
sg47
F1.0
sg48
F1.0
sg49
F1.0
sg50
S'22-17'
p1004
sg52
I01
sg53
F109.0
sg54
F0.0
ssg433
(dp1005
g5
F43.0
sg6
F0.0
sg7
(lp1006
(S'Matt Barkley'
p1007
g10
tp1008
a(S'Nick Foles'
p1009
g10
tp1010
a(S'Mark Sanchez'
p1011
g10
tp1012
a(S'LeSean McCoy'
p1013
g15
tp1014
a(S'Chris Polk'
p1015
g15
tp1016
a(S'Darren Sproles'
p1017
g15
tp1018
a(S'Josh Huff'
p1019
g24
tp1020
a(S'Jeremy Maclin'
p1021
g24
tp1022
a(S'Jordan Matthews'
p1023
g24
tp1024
a(S'Trey Burton'
p1025
g35
tp1026
a(S'Brent Celek'
p1027
g35
tp1028
a(S'Zach Ertz'
p1029
g35
tp1030
a(S'Cody Parkey'
p1031
g42
tp1032
asg44
I01
sg45
F12.0
sg46
F195.0
sg47
F0.0
sg48
F0.0
sg49
F0.0
sg50
S'26-21'
p1033
sg52
I01
sg53
F22.0
sg54
F0.0
ssg469
(dp1034
g5
F1.0
sg6
F2.0
sg7
(lp1035
(S'Brock Osweiler'
p1036
g10
tp1037
a(S'C.J. Anderson'
p1038
g15
tp1039
a(S'Ronnie Hillman'
p1040
g15
tp1041
a(S'Juwan Thompson'
p1042
g15
tp1043
a(S'Isaiah Burse'
p1044
g24
tp1045
a(S'Andre Caldwell'
p1046
g24
tp1047
a(S'Cody Latimer'
p1048
g24
tp1049
a(S'Emmanuel Sanders'
p1050
g24
tp1051
a(S'Demaryius Thomas'
p1052
g24
tp1053
a(S'Wes Welker'
p1054
g24
tp1055
a(S'Virgil Green'
p1056
g35
tp1057
a(S'Jacob Tamme'
p1058
g35
tp1059
a(S'Julius Thomas'
p1060
g35
tp1061
a(S'Brandon McManus'
p1062
g42
tp1063
asg44
I00
sg45
F26.0
sg46
F0.0
sg47
F0.0
sg48
F0.0
sg49
F0.0
sg50
S'17-42'
p1064
sg52
I00
sg53
F116.0
sg54
F0.0
ssg503
(dp1065
g5
F42.0
sg6
F1.0
sg7
(lp1066
(S'Austin Davis'
p1067
g10
tp1068
a(S'Shaun Hill'
p1069
g10
tp1070
a(S'Case Keenum'
p1071
g10
tp1072
a(S'Benny Cunningham'
p1073
g15
tp1074
a(S'Tre Mason'
p1075
g15
tp1076
a(S'Chase Reynolds'
p1077
g15
tp1078
a(S'Zac Stacy'
p1079
g15
tp1080
a(S'Tavon Austin'
p1081
g24
tp1082
a(S'Stedman Bailey'
p1083
g24
tp1084
a(S'Kenny Britt'
p1085
g24
tp1086
a(S'Chris Givens'
p1087
g24
tp1088
a(S'Brian Quick'
p1089
g24
tp1090
a(S'Jared Cook'
p1091
g35
tp1092
a(S'Cory Harkey'
p1093
g35
tp1094
a(S'Lance Kendricks'
p1095
g35
tp1096
a(S'Greg Zuerlein'
p1097
g42
tp1098
asg44
I01
sg45
F24.0
sg46
F236.0
sg47
F1.0
sg48
F1.0
sg49
F1.0
sg50
S'31-17'
p1099
sg52
I00
sg53
F93.0
sg54
F0.0
ssg541
(dp1100
g5
F24.0
sg6
F0.0
sg7
(lp1101
(S'Austin Davis'
p1102
g10
tp1103
a(S'Shaun Hill'
p1104
g10
tp1105
a(S'Benny Cunningham'
p1106
g15
tp1107
a(S'Tre Mason'
p1108
g15
tp1109
a(S'Chase Reynolds'
p1110
g15
tp1111
a(S'Zac Stacy'
p1112
g15
tp1113
a(S'Tavon Austin'
p1114
g24
tp1115
a(S'Stedman Bailey'
p1116
g24
tp1117
a(S'Kenny Britt'
p1118
g24
tp1119
a(S'Chris Givens'
p1120
g24
tp1121
a(S'Jared Cook'
p1122
g35
tp1123
a(S'Cory Harkey'
p1124
g35
tp1125
a(S'Lance Kendricks'
p1126
g35
tp1127
a(S'Greg Zuerlein'
p1128
g42
tp1129
asg44
I00
sg45
F27.0
sg46
F105.0
sg47
F2.0
sg48
F1.0
sg49
F2.0
sg50
S'10-13'
p1130
sg52
I01
sg53
F91.0
sg54
F0.0
ssg577
(dp1131
g5
F0.0
sg6
F0.0
sg7
(lp1132
(S'Justin Blackmon'
p1133
g24
tp1134
asg44
I01
sg45
F1.0
sg46
F0.0
sg47
F0.0
sg48
F0.0
sg49
F0.0
sg50
S'42-10'
p1135
sg52
I00
sg53
F-1.0
sg54
F0.0
sssS'2011'
p1136
(dp1137
g3
(dp1138
g5
F0.0
sg6
F0.0
sg7
(lp1139
(S'Anthony Sherman'
p1140
g15
tp1141
a(S'Larry Fitzgerald'
p1142
g24
tp1143
a(S'Andre Roberts'
p1144
g24
tp1145
a(S'Jim Dray'
p1146
g35
tp1147
a(S'Rob Housler'
p1148
g35
tp1149
asg44
I01
sg45
F0.0
sg46
F0.0
sg47
F0.0
sg48
F0.0
sg49
F0.0
sg50
S'23-7'
p1150
sg52
I01
sg53
F0.0
sg54
F0.0
ssg55
(dp1151
g5
F40.0
sg6
F0.0
sg7
(lp1152
(S'Eli Manning'
p1153
g10
tp1154
a(S'Ahmad Bradshaw'
p1155
g15
tp1156
a(S'Victor Cruz'
p1157
g24
tp1158
a(S'Hakeem Nicks'
p1159
g24
tp1160
a(S'Bear Pascoe'
p1161
g35
tp1162
asg44
I01
sg45
F2.0
sg46
F311.0
sg47
F0.0
sg48
F2.0
sg49
F0.0
sg50
S'27-20'
p1163
sg52
I01
sg53
F4.0
sg54
F0.0
ssg61
(dp1164
g5
F0.0
sg6
F0.0
sg7
(lp1165
(S'Sam Bradford'
p1166
g10
tp1167
a(S'Steven Jackson'
p1168
g15
tp1169
a(S'Brandon Gibson'
p1170
g24
tp1171
a(S'Lance Kendricks'
p1172
g35
tp1173
a(S'Josh Brown'
p1174
g42
tp1175
asg44
I01
sg45
F10.0
sg46
F0.0
sg47
F0.0
sg48
F0.0
sg49
F0.0
sg50
S'26-0'
p1176
sg52
I01
sg53
F19.0
sg54
F0.0
ssg97
(dp1177
g5
F23.0
sg6
F0.0
sg7
(lp1178
(S'Joe Flacco'
p1179
g10
tp1180
a(S'Tyrod Taylor'
p1181
g10
tp1182
a(S'Anquan Boldin'
p1183
g24
tp1184
a(S'Torrey Smith'
p1185
g24
tp1186
a(S'Ed Dickson'
p1187
g35
tp1188
a(S'Dennis Pitta'
p1189
g35
tp1190
asg44
I00
sg45
F6.0
sg46
F161.0
sg47
F0.0
sg48
F1.0
sg49
F0.0
sg50
S'6-16'
p1191
sg52
I00
sg53
F2.0
sg54
F0.0
ssg135
(dp1192
g5
F44.0
sg6
F0.0
sg7
(lp1193
(S'Ben Roethlisberger'
p1194
g10
tp1195
a(S'Antonio Brown'
p1196
g24
tp1197
a(S'Jerricho Cotchery'
p1198
g24
tp1199
a(S'Emmanuel Sanders'
p1200
g24
tp1201
a(S'Mike Wallace'
p1202
g24
tp1203
a(S'David Johnson'
p1204
g35
tp1205
a(S'Shaun Suisham'
p1206
g42
tp1207
asg44
I01
sg45
F1.0
sg46
F330.0
sg47
F2.0
sg48
F0.0
sg49
F1.0
sg50
S'20-3'
p1208
sg52
I01
sg53
F0.0
sg54
F0.0
ssg173
(dp1209
g5
F0.0
sg6
F0.0
sg7
(lp1210
(S'Anthony Sherman'
p1211
g15
tp1212
a(S'Larry Fitzgerald'
p1213
g24
tp1214
a(S'Andre Roberts'
p1215
g24
tp1216
a(S'Jim Dray'
p1217
g35
tp1218
a(S'Rob Housler'
p1219
g35
tp1220
asg44
I00
sg45
F0.0
sg46
F0.0
sg47
F0.0
sg48
F0.0
sg49
F0.0
sg50
S'19-21'
p1221
sg52
I00
sg53
F0.0
sg54
F0.0
ssg211
(dp1222
g5
F31.0
sg6
F1.0
sg7
(lp1223
(S'Sam Bradford'
p1224
g10
tp1225
a(S'Kellen Clemens'
p1226
g10
tp1227
a(S'Steven Jackson'
p1228
g15
tp1229
a(S'Brandon Gibson'
p1230
g24
tp1231
a(S'Lance Kendricks'
p1232
g35
tp1233
a(S'Josh Brown'
p1234
g42
tp1235
asg44
I01
sg45
F18.0
sg46
F226.0
sg47
F2.0
sg48
F1.0
sg49
F2.0
sg50
S'34-27'
p1236
sg52
I00
sg53
F94.0
sg54
F0.0
ssg249
(dp1237
g5
F28.0
sg6
F0.0
sg7
(lp1238
(S'Tarvaris Jackson'
p1239
g10
tp1240
a(S'Justin Forsett'
p1241
g15
tp1242
a(S'Doug Baldwin'
p1243
g24
tp1244
a(S'Ricardo Lockette'
p1245
g24
tp1246
a(S'Golden Tate'
p1247
g24
tp1248
a(S'Anthony McCoy'
p1249
g35
tp1250
a(S'Steven Hauschka'
p1251
g42
tp1252
asg44
I01
sg45
F3.0
sg46
F163.0
sg47
F1.0
sg48
F1.0
sg49
F1.0
sg50
S'19-17'
p1253
sg52
I00
sg53
F8.0
sg54
F0.0
ssg281
(dp1254
g5
F37.0
sg6
F0.0
sg7
(lp1255
(S'Tarvaris Jackson'
p1256
g10
tp1257
a(S'Justin Forsett'
p1258
g15
tp1259
a(S'Doug Baldwin'
p1260
g24
tp1261
a(S'Golden Tate'
p1262
g24
tp1263
a(S'Anthony McCoy'
p1264
g35
tp1265
a(S'Steven Hauschka'
p1266
g42
tp1267
asg44
I01
sg45
F7.0
sg46
F197.0
sg47
F1.0
sg48
F2.0
sg49
F1.0
sg50
S'33-17'
p1268
sg52
I01
sg53
F16.0
sg54
F0.0
ssg319
(dp1269
g5
F32.0
sg6
F0.0
sg7
(lp1270
(S'Andy Dalton'
p1271
g10
tp1272
a(S'Bruce Gradkowski'
p1273
g10
tp1274
a(S'Cedric Peerman'
p1275
g15
tp1276
a(S'Andre Caldwell'
p1277
g24
tp1278
a(S'A.J. Green'
p1279
g24
tp1280
a(S'Andrew Hawkins'
p1281
g24
tp1282
a(S'Jerome Simpson'
p1283
g24
tp1284
a(S'Brandon Tate'
p1285
g24
tp1286
a(S'Jermaine Gresham'
p1287
g35
tp1288
a(S'Mike Nugent'
p1289
g42
tp1290
asg44
I01
sg45
F1.0
sg46
F157.0
sg47
F2.0
sg48
F0.0
sg49
F2.0
sg50
S'13-8'
p1291
sg52
I00
sg53
F5.0
sg54
F0.0
ssg357
(dp1292
g5
F33.0
sg6
F0.0
sg7
(lp1293
(S'Tony Romo'
p1294
g10
tp1295
a(S'DeMarco Murray'
p1296
g15
tp1297
a(S'Dez Bryant'
p1298
g24
tp1299
a(S'Dwayne Harris'
p1300
g24
tp1301
a(S'Martellus Bennett'
p1302
g35
tp1303
a(S'John Phillips'
p1304
g35
tp1305
a(S'Jason Witten'
p1306
g35
tp1307
a(S'Dan Bailey'
p1308
g42
tp1309
asg44
I00
sg45
F6.0
sg46
F345.0
sg47
F3.0
sg48
F2.0
sg49
F2.0
sg50
S'24-27'
p1310
sg52
I01
sg53
F21.0
sg54
F0.0
ssg393
(dp1311
g5
F35.0
sg6
F0.0
sg7
(lp1312
(S'Josh Freeman'
p1313
g10
tp1314
a(S'Josh Johnson'
p1315
g10
tp1316
a(S'LeGarrette Blount'
p1317
g15
tp1318
a(S'Arrelious Benn'
p1319
g24
tp1320
a(S'Mike Williams'
p1321
g24
tp1322
a(S'Luke Stocker'
p1323
g35
tp1324
a(S'Connor Barth'
p1325
g42
tp1326
asg44
I01
sg45
F11.0
sg46
F194.0
sg47
F1.0
sg48
F0.0
sg49
F1.0
sg50
S'48-3'
p1327
sg52
I01
sg53
F36.0
sg54
F0.0
ssg433
(dp1328
g5
F46.0
sg6
F0.0
sg7
(lp1329
(S'Mike Vick'
p1330
g10
tp1331
a(S'Dion Lewis'
p1332
g15
tp1333
a(S'LeSean McCoy'
p1334
g15
tp1335
a(S'Jason Avant'
p1336
g24
tp1337
a(S'DeSean Jackson'
p1338
g24
tp1339
a(S'Jeremy Maclin'
p1340
g24
tp1341
a(S'Brent Celek'
p1342
g35
tp1343
a(S'Clay Harbor'
p1344
g35
tp1345
asg44
I01
sg45
F17.0
sg46
F416.0
sg47
F0.0
sg48
F2.0
sg49
F0.0
sg50
S'24-23'
p1346
sg52
I00
sg53
F93.0
sg54
F0.0
ssg469
(dp1347
g5
F0.0
sg6
F0.0
sg7
(lp1348
sg44
(lp1349
sg45
F0.0
sg46
F0.0
sg47
F0.0
sg48
F0.0
sg49
F0.0
sg50
(lp1350
sg52
(lp1351
sg53
F0.0
sg54
F0.0
ssg503
(dp1352
g5
F50.0
sg6
F0.0
sg7
(lp1353
(S'Shaun Hill'
p1354
g10
tp1355
a(S'Matthew Stafford'
p1356
g10
tp1357
a(S'Drew Stanton'
p1358
g10
tp1359
a(S'Brandon Pettigrew'
p1360
g35
tp1361
asg44
I01
sg45
F1.0
sg46
F293.0
sg47
F0.0
sg48
F2.0
sg49
F0.0
sg50
S'25-19'
p1362
sg52
I00
sg53
F9.0
sg54
F0.0
ssg541
(dp1363
g5
F0.0
sg6
F0.0
sg7
(lp1364
(S'Roy Helu'
p1365
g15
tp1366
a(S'Darrel Young'
p1367
g15
tp1368
a(S'Leonard Hankerson'
p1369
g24
tp1370
a(S'Niles Paul'
p1371
g35
tp1372
a(S'Logan Paulsen'
p1373
g35
tp1374
a(S'Graham Gano'
p1375
g42
tp1376
asg44
I01
sg45
F10.0
sg46
F0.0
sg47
F1.0
sg48
F0.0
sg49
F1.0
sg50
S'19-11'
p1377
sg52
I00
sg53
F41.0
sg54
F0.0
ssg577
(dp1378
g5
F34.0
sg6
F0.0
sg7
(lp1379
(S'Thad Lewis'
p1380
g10
tp1381
a(S'Colt McCoy'
p1382
g10
tp1383
a(S'Greg Little'
p1384
g24
tp1385
a(S'Jordan Norwood'
p1386
g24
tp1387
a(S'Jordan Cameron'
p1388
g35
tp1389
a(S'Alex Smith'
p1390
g35
tp1391
a(S'Benjamin Watson'
p1392
g35
tp1393
a(S'Phil Dawson'
p1394
g42
tp1395
asg44
I01
sg45
F9.0
sg46
F241.0
sg47
F1.0
sg48
F1.0
sg49
F1.0
sg50
S'20-10'
p1396
sg52
I01
sg53
F22.0
sg54
F0.0
sssS'2010'
p1397
(dp1398
g3
(dp1399
g5
F21.0
sg6
F0.0
sg7
(lp1400
(S'Josh Freeman'
p1401
g10
tp1402
a(S'Josh Johnson'
p1403
g10
tp1404
a(S'LeGarrette Blount'
p1405
g15
tp1406
a(S'Arrelious Benn'
p1407
g24
tp1408
a(S'Mike Williams'
p1409
g24
tp1410
a(S'Connor Barth'
p1411
g42
tp1412
asg44
I00
sg45
F32.0
sg46
F143.0
sg47
F1.0
sg48
F2.0
sg49
F0.0
sg50
S'0-21'
p1413
sg52
I01
sg53
F104.0
sg54
F0.0
ssg55
(dp1414
g5
F42.0
sg6
F1.0
sg7
(lp1415
(S'Sam Bradford'
p1416
g10
tp1417
a(S'Steven Jackson'
p1418
g15
tp1419
a(S'Danny Amendola'
p1420
g24
tp1421
a(S'Brandon Gibson'
p1422
g24
tp1423
a(S'Daniel Fells'
p1424
g35
tp1425
a(S'Michael Hoomanawanui'
p1426
g35
tp1427
a(S'Josh Brown'
p1428
g42
tp1429
asg44
I01
sg45
F24.0
sg46
F251.0
sg47
F2.0
sg48
F1.0
sg49
F2.0
sg50
S'23-20'
p1430
sg52
I01
sg53
F104.0
sg54
F0.0
ssg61
(dp1431
g5
F30.0
sg6
F1.0
sg7
(lp1432
(S'Matt Flynn'
p1433
g10
tp1434
a(S'Aaron Rodgers'
p1435
g10
tp1436
a(S'John Kuhn'
p1437
g15
tp1438
a(S'James Starks'
p1439
g15
tp1440
a(S'Greg Jennings'
p1441
g24
tp1442
a(S'James Jones'
p1443
g24
tp1444
a(S'Jordy Nelson'
p1445
g24
tp1446
a(S'Andrew Quarless'
p1447
g35
tp1448
a(S'Mason Crosby'
p1449
g42
tp1450
asg44
I00
sg45
F30.0
sg46
F298.0
sg47
F3.0
sg48
F3.0
sg49
F2.0
sg50
S'16-34'
p1451
sg52
I00
sg53
F123.0
sg54
F0.0
ssg97
(dp1452
g5
F35.0
sg6
F0.0
sg7
(lp1453
(S'Derek Anderson'
p1454
g10
tp1455
a(S'Tim Hightower'
p1456
g15
tp1457
a(S'Larry Fitzgerald'
p1458
g24
tp1459
a(S'Andre Roberts'
p1460
g24
tp1461
a(S'Jim Dray'
p1462
g35
tp1463
asg44
I01
sg45
F6.0
sg46
F196.0
sg47
F0.0
sg48
F0.0
sg49
F0.0
sg50
S'27-6'
p1464
sg52
I00
sg53
F0.0
sg54
F0.0
ssg135
(dp1465
g5
F25.0
sg6
F1.0
sg7
(lp1466
(S'Philip Rivers'
p1467
g10
tp1468
a(S'Ryan Mathews'
p1469
g15
tp1470
a(S'Darren Sproles'
p1471
g15
tp1472
a(S'Mike Tolbert'
p1473
g15
tp1474
a(S'Seyi Ajirotutu'
p1475
g24
tp1476
a(S'Malcom Floyd'
p1477
g24
tp1478
a(S'Antonio Gates'
p1479
g35
tp1480
asg44
I00
sg45
F36.0
sg46
F273.0
sg47
F0.0
sg48
F3.0
sg49
F0.0
sg50
S'7-34'
p1481
sg52
I00
sg53
F103.0
sg54
F0.0
ssg173
(dp1482
g5
F0.0
sg6
F0.0
sg7
(lp1483
(S'Justin Forsett'
p1484
g15
tp1485
a(S'Golden Tate'
p1486
g24
tp1487
asg44
I01
sg45
F3.0
sg46
F0.0
sg47
F0.0
sg48
F0.0
sg49
F0.0
sg50
S'40-21'
p1488
sg52
I01
sg53
F5.0
sg54
F0.0
ssg211
(dp1489
g5
F0.0
sg6
F0.0
sg7
(lp1490
(S'Derek Anderson'
p1491
g10
tp1492
a(S'Tim Hightower'
p1493
g15
tp1494
a(S'Larry Fitzgerald'
p1495
g24
tp1496
a(S'Andre Roberts'
p1497
g24
tp1498
a(S'Jim Dray'
p1499
g35
tp1500
asg44
I01
sg45
F12.0
sg46
F0.0
sg47
F0.0
sg48
F0.0
sg49
F0.0
sg50
S'38-7'
p1501
sg52
I01
sg53
F30.0
sg54
F0.0
ssg249
(dp1502
g5
F37.0
sg6
F1.0
sg7
(lp1503
(S'Sam Bradford'
p1504
g10
tp1505
a(S'Steven Jackson'
p1506
g15
tp1507
a(S'Danny Amendola'
p1508
g24
tp1509
a(S'Brandon Gibson'
p1510
g24
tp1511
a(S'Daniel Fells'
p1512
g35
tp1513
a(S'Michael Hoomanawanui'
p1514
g35
tp1515
a(S'Josh Brown'
p1516
g42
tp1517
asg44
I00
sg45
F26.0
sg46
F292.0
sg47
F3.0
sg48
F1.0
sg49
F3.0
sg50
S'17-25'
p1518
sg52
I00
sg53
F63.0
sg54
F0.0
ssg281
(dp1519
g5
F0.0
sg6
F0.0
sg7
(lp1520
(S'Justin Forsett'
p1521
g15
tp1522
a(S'Golden Tate'
p1523
g24
tp1524
a(S'Anthony McCoy'
p1525
g35
tp1526
asg44
I00
sg45
F7.0
sg46
F0.0
sg47
F0.0
sg48
F0.0
sg49
F0.0
sg50
S'6-31'
p1527
sg52
I00
sg53
F43.0
sg54
F0.0
ssg319
(dp1528
g5
F27.0
sg6
F0.0
sg7
(lp1529
(S'Matt Cassel'
p1530
g10
tp1531
a(S'Jamaal Charles'
p1532
g15
tp1533
a(S'Dexter McCluster'
p1534
g15
tp1535
a(S'Dwayne Bowe'
p1536
g24
tp1537
a(S'Tony Moeaki'
p1538
g35
tp1539
a(S'Ryan Succop'
p1540
g42
tp1541
asg44
I00
sg45
F16.0
sg46
F250.0
sg47
F2.0
sg48
F3.0
sg49
F1.0
sg50
S'10-31'
p1542
sg52
I00
sg53
F103.0
sg54
F0.0
ssg357
(dp1543
g5
F38.0
sg6
F0.0
sg7
(lp1544
(S'Drew Brees'
p1545
g10
tp1546
a(S'Chase Daniel'
p1547
g10
tp1548
a(S'Reggie Bush'
p1549
g15
tp1550
a(S'Chris Ivory'
p1551
g15
tp1552
a(S'Pierre Thomas'
p1553
g15
tp1554
a(S'Marques Colston'
p1555
g24
tp1556
a(S'Lance Moore'
p1557
g24
tp1558
a(S'Jimmy Graham'
p1559
g35
tp1560
asg44
I00
sg45
F23.0
sg46
F254.0
sg47
F0.0
sg48
F2.0
sg49
F0.0
sg50
S'22-25'
p1561
sg52
I01
sg53
F50.0
sg54
F0.0
ssg393
(dp1562
g5
F0.0
sg6
F1.0
sg7
(lp1563
(S'Mike Vick'
p1564
g10
tp1565
a(S'LeSean McCoy'
p1566
g15
tp1567
a(S'Jason Avant'
p1568
g24
tp1569
a(S'DeSean Jackson'
p1570
g24
tp1571
a(S'Jeremy Maclin'
p1572
g24
tp1573
a(S'Brent Celek'
p1574
g35
tp1575
a(S'Clay Harbor'
p1576
g35
tp1577
asg44
I00
sg45
F19.0
sg46
F0.0
sg47
F0.0
sg48
F0.0
sg49
F0.0
sg50
S'24-27'
p1578
sg52
I01
sg53
F100.0
sg54
F0.0
ssg433
(dp1579
g5
F43.0
sg6
F0.0
sg7
(lp1580
(S'Matt Ryan'
p1581
g10
tp1582
a(S'Harry Douglas'
p1583
g24
tp1584
a(S'Eric Weems'
p1585
g24
tp1586
a(S'Roddy White'
p1587
g24
tp1588
a(S'Matt Bryant'
p1589
g42
tp1590
asg44
I00
sg45
F4.0
sg46
F273.0
sg47
F3.0
sg48
F1.0
sg49
F3.0
sg50
S'14-16'
p1591
sg52
I00
sg53
F15.0
sg54
F0.0
ssg469
(dp1592
g5
F41.0
sg6
F0.0
sg7
(lp1593
(S'Jimmy Clausen'
p1594
g10
tp1595
a(S'Matt Moore'
p1596
g10
tp1597
a(S'Jonathan Stewart'
p1598
g15
tp1599
a(S'DeAngelo Williams'
p1600
g15
tp1601
a(S'Brandon LaFell'
p1602
g24
tp1603
a(S'Steve Smith'
p1604
g24
tp1605
a(S'Gary Barnidge'
p1606
g35
tp1607
asg44
I00
sg45
F34.0
sg46
F308.0
sg47
F0.0
sg48
F2.0
sg49
F0.0
sg50
S'20-23'
p1608
sg52
I00
sg53
F76.0
sg54
F0.0
ssg503
(dp1609
g5
F0.0
sg6
F0.0
sg7
(lp1610
(S'Bruce Gradkowski'
p1611
g10
tp1612
a(S'Darren McFadden'
p1613
g15
tp1614
a(S'Marcel Reece'
p1615
g15
tp1616
a(S'Darrius Heyward-Bey'
p1617
g24
tp1618
a(S'Louis Murphy'
p1619
g24
tp1620
a(S'Brandon Myers'
p1621
g35
tp1622
a(S'Sebastian Janikowski'
p1623
g42
tp1624
asg44
I01
sg45
F2.0
sg46
F0.0
sg47
F3.0
sg48
F0.0
sg49
F3.0
sg50
S'17-9'
p1625
sg52
I01
sg53
F45.0
sg54
F0.0
ssg541
(dp1626
g5
F0.0
sg6
F0.0
sg7
(lp1627
sg44
(lp1628
sg45
F0.0
sg46
F0.0
sg47
F0.0
sg48
F0.0
sg49
F0.0
sg50
(lp1629
sg52
(lp1630
sg53
F0.0
sg54
F0.0
ssg577
(dp1631
g5
F0.0
sg6
F0.0
sg7
(lp1632
(S'Eric Decker'
p1633
g24
tp1634
a(S'Eddie Royal'
p1635
g24
tp1636
a(S'Demaryius Thomas'
p1637
g24
tp1638
a(S'Matt Prater'
p1639
g42
tp1640
asg44
I01
sg45
F1.0
sg46
F0.0
sg47
F1.0
sg48
F0.0
sg49
F1.0
sg50
S'24-16'
p1641
sg52
I01
sg53
F0.0
sg54
F0.0
sssS'2013'
p1642
(dp1643
g3
(dp1644
g5
F43.0
sg6
F0.0
sg7
(lp1645
(S'Drew Brees'
p1646
g10
tp1647
a(S'Ryan Griffin'
p1648
g10
tp1649
a(S'Luke McCown'
p1650
g10
tp1651
a(S'Travaris Cadet'
p1652
g15
tp1653
a(S'Mark Ingram'
p1654
g15
tp1655
a(S'Khiry Robinson'
p1656
g15
tp1657
a(S'Darren Sproles'
p1658
g15
tp1659
a(S'Pierre Thomas'
p1660
g15
tp1661
a(S'Marques Colston'
p1662
g24
tp1663
a(S'Lance Moore'
p1664
g24
tp1665
a(S'Kenny Stills'
p1666
g24
tp1667
a(S'Nick Toon'
p1668
g24
tp1669
a(S'Jimmy Graham'
p1670
g35
tp1671
a(S'Josh Hill'
p1672
g35
tp1673
a(S'Benjamin Watson'
p1674
g35
tp1675
asg44
I00
sg45
F21.0
sg46
F305.0
sg47
F0.0
sg48
F1.0
sg49
F0.0
sg50
S'20-23'
p1676
sg52
I00
sg53
F89.0
sg54
F0.0
ssg55
(dp1677
g5
F32.0
sg6
F1.0
sg7
(lp1678
(S'Derek Anderson'
p1679
g10
tp1680
a(S'Cam Newton'
p1681
g10
tp1682
a(S'Kenjon Barner'
p1683
g15
tp1684
a(S'Jonathan Stewart'
p1685
g15
tp1686
a(S'Mike Tolbert'
p1687
g15
tp1688
a(S'DeAngelo Williams'
p1689
g15
tp1690
a(S'Ted Ginn'
p1691
g24
tp1692
a(S'Tavarres King'
p1693
g24
tp1694
a(S'Brandon LaFell'
p1695
g24
tp1696
a(S'Steve Smith'
p1697
g24
tp1698
a(S'Greg Olsen'
p1699
g35
tp1700
a(S'Brandon Williams'
p1701
g35
tp1702
a(S'Graham Gano'
p1703
g42
tp1704
asg44
I00
sg45
F31.0
sg46
F169.0
sg47
F2.0
sg48
F0.0
sg49
F1.0
sg50
S'9-10'
p1705
sg52
I01
sg53
F109.0
sg54
F0.0
ssg61
(dp1706
g5
F37.0
sg6
F0.0
sg7
(lp1707
(S'Kellen Clemens'
p1708
g10
tp1709
a(S'Austin Davis'
p1710
g10
tp1711
a(S'Benny Cunningham'
p1712
g15
tp1713
a(S'Isaiah Pead'
p1714
g15
tp1715
a(S'Chase Reynolds'
p1716
g15
tp1717
a(S'Daryl Richardson'
p1718
g15
tp1719
a(S'Zac Stacy'
p1720
g15
tp1721
a(S'Tavon Austin'
p1722
g24
tp1723
a(S'Stedman Bailey'
p1724
g24
tp1725
a(S'Chris Givens'
p1726
g24
tp1727
a(S'Brian Quick'
p1728
g24
tp1729
a(S'Jared Cook'
p1730
g35
tp1731
a(S'Cory Harkey'
p1732
g35
tp1733
a(S'Lance Kendricks'
p1734
g35
tp1735
a(S'Greg Zuerlein'
p1736
g42
tp1737
asg44
I01
sg45
F25.0
sg46
F218.0
sg47
F2.0
sg48
F1.0
sg49
F2.0
sg50
S'23-13'
p1738
sg52
I01
sg53
F119.0
sg54
F0.0
ssg97
(dp1739
g5
F26.0
sg6
F0.0
sg7
(lp1740
(S'Kirk Cousins'
p1741
g10
tp1742
a(S'Robert Griffin III'
p1743
g10
tp1744
a(S'Roy Helu'
p1745
g15
tp1746
a(S'Alfred Morris'
p1747
g15
tp1748
a(S'Darrel Young'
p1749
g15
tp1750
a(S'Pierre Garcon'
p1751
g24
tp1752
a(S'Aldrick Robinson'
p1753
g24
tp1754
a(S'Nick Williams'
p1755
g24
tp1756
a(S'Niles Paul'
p1757
g35
tp1758
a(S'Logan Paulsen'
p1759
g35
tp1760
a(S'Jordan Reed'
p1761
g35
tp1762
a(S'Kai Forbath'
p1763
g42
tp1764
asg44
I01
sg45
F25.0
sg46
F118.0
sg47
F2.0
sg48
F0.0
sg49
F2.0
sg50
S'27-6'
p1765
sg52
I00
sg53
F105.0
sg54
F0.0
ssg135
(dp1766
g5
F34.0
sg6
F0.0
sg7
(lp1767
(S'Mike Glennon'
p1768
g10
tp1769
a(S'Dan Orlovsky'
p1770
g10
tp1771
a(S'Bobby Rainey'
p1772
g15
tp1773
a(S'Vincent Jackson'
p1774
g24
tp1775
a(S'Chris Owusu'
p1776
g24
tp1777
a(S'Russell Shepard'
p1778
g24
tp1779
a(S'Timothy Wright'
p1780
g35
tp1781
asg44
I01
sg45
F11.0
sg46
F179.0
sg47
F0.0
sg48
F2.0
sg49
F0.0
sg50
S'33-14'
p1782
sg52
I00
sg53
F27.0
sg54
F0.0
ssg173
(dp1783
g5
F25.0
sg6
F0.0
sg7
(lp1784
(S'Tarvaris Jackson'
p1785
g10
tp1786
a(S'Russell Wilson'
p1787
g10
tp1788
a(S'Derrick Coleman'
p1789
g15
tp1790
a(S'Christine Michael'
p1791
g15
tp1792
a(S'Robert Turbin'
p1793
g15
tp1794
a(S'Doug Baldwin'
p1795
g24
tp1796
a(S'Percy Harvin'
p1797
g24
tp1798
a(S'Jermaine Kearse'
p1799
g24
tp1800
a(S'Ricardo Lockette'
p1801
g24
tp1802
a(S'Golden Tate'
p1803
g24
tp1804
a(S'Kellen Davis'
p1805
g35
tp1806
a(S'Luke Willson'
p1807
g35
tp1808
a(S'Steven Hauschka'
p1809
g42
tp1810
asg44
I01
sg45
F3.0
sg46
F199.0
sg47
F1.0
sg48
F1.0
sg49
F1.0
sg50
S'19-17'
p1811
sg52
I01
sg53
F14.0
sg54
F0.0
ssg211
(dp1812
g5
F49.0
sg6
F0.0
sg7
(lp1813
(S'Carson Palmer'
p1814
g10
tp1815
a(S'Drew Stanton'
p1816
g10
tp1817
a(S'Andre Ellington'
p1818
g15
tp1819
a(S'Stepfan Taylor'
p1820
g15
tp1821
a(S'Jaron Brown'
p1822
g24
tp1823
a(S'Larry Fitzgerald'
p1824
g24
tp1825
a(S'Michael Floyd'
p1826
g24
tp1827
a(S'Brittan Golden'
p1828
g24
tp1829
a(S'Andre Roberts'
p1830
g24
tp1831
a(S'Jim Dray'
p1832
g35
tp1833
a(S'Rob Housler'
p1834
g35
tp1835
asg44
I01
sg45
F12.0
sg46
F407.0
sg47
F0.0
sg48
F2.0
sg49
F0.0
sg50
S'23-20'
p1836
sg52
I00
sg53
F36.0
sg54
F0.0
ssg249
(dp1837
g5
F48.0
sg6
F1.0
sg7
(lp1838
(S'Matt Ryan'
p1839
g10
tp1840
a(S'Patrick DiMarco'
p1841
g15
tp1842
a(S'Steven Jackson'
p1843
g15
tp1844
a(S'Jacquizz Rodgers'
p1845
g15
tp1846
a(S'Harry Douglas'
p1847
g24
tp1848
a(S'Roddy White'
p1849
g24
tp1850
a(S'Chase Coffman'
p1851
g35
tp1852
a(S'Levine Toilolo'
p1853
g35
tp1854
a(S'Matt Bryant'
p1855
g42
tp1856
asg44
I01
sg45
F19.0
sg46
F348.0
sg47
F1.0
sg48
F2.0
sg49
F1.0
sg50
S'34-24'
p1857
sg52
I01
sg53
F63.0
sg54
F0.0
ssg281
(dp1858
g5
F37.0
sg6
F1.0
sg7
(lp1859
(S'Aaron Rodgers'
p1860
g10
tp1861
a(S'John Kuhn'
p1862
g15
tp1863
a(S'Eddie Lacy'
p1864
g15
tp1865
a(S'James Starks'
p1866
g15
tp1867
a(S'Jarrett Boykin'
p1868
g24
tp1869
a(S'Randall Cobb'
p1870
g24
tp1871
a(S'James Jones'
p1872
g24
tp1873
a(S'Jordy Nelson'
p1874
g24
tp1875
a(S'Jeremy Ross'
p1876
g24
tp1877
a(S'Brandon Bostick'
p1878
g35
tp1879
a(S'Andrew Quarless'
p1880
g35
tp1881
a(S'Mason Crosby'
p1882
g42
tp1883
asg44
I01
sg45
F19.0
sg46
F333.0
sg47
F0.0
sg48
F3.0
sg49
F0.0
sg50
S'34-28'
p1884
sg52
I01
sg53
F63.0
sg54
F0.0
ssg319
(dp1885
g5
F26.0
sg6
F3.0
sg7
(lp1886
(S'Andrew Luck'
p1887
g10
tp1888
a(S'Ahmad Bradshaw'
p1889
g15
tp1890
a(S'Donald Brown'
p1891
g15
tp1892
a(S'Trent Richardson'
p1893
g15
tp1894
a(S'Kerwynn Williams'
p1895
g15
tp1896
a(S'Darrius Heyward-Bey'
p1897
g24
tp1898
a(S'T.Y. Hilton'
p1899
g24
tp1900
a(S'Griff Whalen'
p1901
g24
tp1902
a(S'Jack Doyle'
p1903
g35
tp1904
a(S'Coby Fleener'
p1905
g35
tp1906
a(S'Dominique Jones'
p1907
g35
tp1908
a(S'Adam Vinatieri'
p1909
g42
tp1910
asg44
I00
sg45
F39.0
sg46
F159.0
sg47
F3.0
sg48
F0.0
sg49
F2.0
sg50
S'7-27'
p1911
sg52
I01
sg53
F179.0
sg54
F0.0
ssg357
(dp1912
g5
F19.0
sg6
F0.0
sg7
(lp1913
(S'Tarvaris Jackson'
p1914
g10
tp1915
a(S'Russell Wilson'
p1916
g10
tp1917
a(S'Derrick Coleman'
p1918
g15
tp1919
a(S'Christine Michael'
p1920
g15
tp1921
a(S'Robert Turbin'
p1922
g15
tp1923
a(S'Spencer Ware'
p1924
g15
tp1925
a(S'Doug Baldwin'
p1926
g24
tp1927
a(S'Jermaine Kearse'
p1928
g24
tp1929
a(S'Golden Tate'
p1930
g24
tp1931
a(S'Kellen Davis'
p1932
g35
tp1933
a(S'Luke Willson'
p1934
g35
tp1935
a(S'Steven Hauschka'
p1936
g42
tp1937
asg44
I00
sg45
F19.0
sg46
F142.0
sg47
F2.0
sg48
F1.0
sg49
F2.0
sg50
S'3-29'
p1938
sg52
I00
sg53
F74.0
sg54
F0.0
ssg393
(dp1939
g5
F40.0
sg6
F0.0
sg7
(lp1940
(S'Case Keenum'
p1941
g10
tp1942
a(S'Matt Schaub'
p1943
g10
tp1944
a(S'T.J. Yates'
p1945
g10
tp1946
a(S'Arian Foster'
p1947
g15
tp1948
a(S'DeAndre Hopkins'
p1949
g24
tp1950
a(S'Andre Johnson'
p1951
g24
tp1952
a(S'Keshawn Martin'
p1953
g24
tp1954
a(S'DeVier Posey'
p1955
g24
tp1956
a(S'Owen Daniels'
p1957
g35
tp1958
a(S'Garrett Graham'
p1959
g35
tp1960
a(S'Ryan Griffin'
p1961
g35
tp1962
a(S'Randy Bullock'
p1963
g42
tp1964
asg44
I01
sg45
F22.0
sg46
F188.0
sg47
F2.0
sg48
F0.0
sg49
F1.0
sg50
S'34-3'
p1965
sg52
I01
sg53
F98.0
sg54
F0.0
ssg433
(dp1966
g5
F41.0
sg6
F0.0
sg7
(lp1967
(S'Sam Bradford'
p1968
g10
tp1969
a(S'Kellen Clemens'
p1970
g10
tp1971
a(S'Benny Cunningham'
p1972
g15
tp1973
a(S'Isaiah Pead'
p1974
g15
tp1975
a(S'Chase Reynolds'
p1976
g15
tp1977
a(S'Daryl Richardson'
p1978
g15
tp1979
a(S'Zac Stacy'
p1980
g15
tp1981
a(S'Tavon Austin'
p1982
g24
tp1983
a(S'Stedman Bailey'
p1984
g24
tp1985
a(S'Chris Givens'
p1986
g24
tp1987
a(S'Brian Quick'
p1988
g24
tp1989
a(S'Jared Cook'
p1990
g35
tp1991
a(S'Cory Harkey'
p1992
g35
tp1993
a(S'Lance Kendricks'
p1994
g35
tp1995
a(S'Greg Zuerlein'
p1996
g42
tp1997
asg44
I01
sg45
F19.0
sg46
F202.0
sg47
F1.0
sg48
F1.0
sg49
F1.0
sg50
S'35-11'
p1998
sg52
I00
sg53
F18.0
sg54
F0.0
ssg469
(dp1999
g5
F0.0
sg6
F0.0
sg7
(lp2000
(S'Ryan Fitzpatrick'
p2001
g10
tp2002
a(S'Chris Johnson'
p2003
g15
tp2004
a(S'Kenny Britt'
p2005
g24
tp2006
a(S'Justin Hunter'
p2007
g24
tp2008
a(S'Nate Washington'
p2009
g24
tp2010
a(S'Kendall Wright'
p2011
g24
tp2012
a(S'Craig Stevens'
p2013
g35
tp2014
a(S'Delanie Walker'
p2015
g35
tp2016
asg44
I01
sg45
F9.0
sg46
F0.0
sg47
F0.0
sg48
F0.0
sg49
F0.0
sg50
S'31-17'
p2017
sg52
I00
sg53
F39.0
sg54
F0.0
ssg503
(dp2018
g5
F41.0
sg6
F1.0
sg7
(lp2019
(S'Carson Palmer'
p2020
g10
tp2021
a(S'Drew Stanton'
p2022
g10
tp2023
a(S'Andre Ellington'
p2024
g15
tp2025
a(S'Stepfan Taylor'
p2026
g15
tp2027
a(S'Jaron Brown'
p2028
g24
tp2029
a(S'Larry Fitzgerald'
p2030
g24
tp2031
a(S'Michael Floyd'
p2032
g24
tp2033
a(S'Brittan Golden'
p2034
g24
tp2035
a(S'Andre Roberts'
p2036
g24
tp2037
a(S'Jim Dray'
p2038
g35
tp2039
a(S'Rob Housler'
p2040
g35
tp2041
asg44
I01
sg45
F10.0
sg46
F298.0
sg47
F0.0
sg48
F2.0
sg49
F0.0
sg50
S'32-20'
p2042
sg52
I01
sg53
F67.0
sg54
F0.0
ssg541
(dp2043
g5
F0.0
sg6
F0.0
sg7
(lp2044
sg44
(lp2045
sg45
F0.0
sg46
F0.0
sg47
F0.0
sg48
F0.0
sg49
F0.0
sg50
(lp2046
sg52
(lp2047
sg53
F0.0
sg54
F0.0
ssg577
(dp2048
g5
F45.0
sg6
F0.0
sg7
(lp2049
(S'Blaine Gabbert'
p2050
g10
tp2051
a(S'Chad Henne'
p2052
g10
tp2053
a(S'Justin Forsett'
p2054
g15
tp2055
a(S'Denard Robinson'
p2056
g15
tp2057
a(S'Jordan Todman'
p2058
g15
tp2059
a(S'Justin Blackmon'
p2060
g24
tp2061
a(S'Cecil Shorts'
p2062
g24
tp2063
a(S'Clay Harbor'
p2064
g35
tp2065
a(S'Marcedes Lewis'
p2066
g35
tp2067
a(S'Josh Scobee'
p2068
g42
tp2069
asg44
I01
sg45
F6.0
sg46
F228.0
sg47
F1.0
sg48
F1.0
sg49
F1.0
sg50
S'42-10'
p2070
sg52
I00
sg53
F15.0
sg54
F0.0
sssS'2012'
p2071
(dp2072
g3
(dp2073
g5
F0.0
sg6
F0.0
sg7
(lp2074
(S'Jay Cutler'
p2075
g10
tp2076
a(S'Josh McCown'
p2077
g10
tp2078
a(S'Matt Forte'
p2079
g15
tp2080
a(S'Devin Hester'
p2081
g24
tp2082
a(S'Alshon Jeffery'
p2083
g24
tp2084
a(S'Brandon Marshall'
p2085
g24
tp2086
a(S'Eric Weems'
p2087
g24
tp2088
a(S'Kellen Davis'
p2089
g35
tp2090
a(S'Matt Spaeth'
p2091
g35
tp2092
a(S'Robbie Gould'
p2093
g42
tp2094
asg44
I01
sg45
F21.0
sg46
F0.0
sg47
F0.0
sg48
F0.0
sg49
F0.0
sg50
S'32-7'
p2095
sg52
I01
sg53
F63.0
sg54
F0.0
ssg55
(dp2096
g5
F39.0
sg6
F1.0
sg7
(lp2097
(S'Sam Bradford'
p2098
g10
tp2099
a(S'Kellen Clemens'
p2100
g10
tp2101
a(S'Austin Davis'
p2102
g10
tp2103
a(S'Steven Jackson'
p2104
g15
tp2105
a(S'Isaiah Pead'
p2106
g15
tp2107
a(S'Daryl Richardson'
p2108
g15
tp2109
a(S'Danny Amendola'
p2110
g24
tp2111
a(S'Brandon Gibson'
p2112
g24
tp2113
a(S'Chris Givens'
p2114
g24
tp2115
a(S'Brian Quick'
p2116
g24
tp2117
a(S'Lance Kendricks'
p2118
g35
tp2119
a(S'Matthew Mulligan'
p2120
g35
tp2121
a(S'Greg Zuerlein'
p2122
g42
tp2123
asg44
I00
sg45
F37.0
sg46
F275.0
sg47
F2.0
sg48
F2.0
sg49
F1.0
sg50
S'24-24'
p2124
sg52
I01
sg53
F159.0
sg54
F0.0
ssg61
(dp2125
g5
F39.0
sg6
F0.0
sg7
(lp2126
(S'Sam Bradford'
p2127
g10
tp2128
a(S'Kellen Clemens'
p2129
g10
tp2130
a(S'Austin Davis'
p2131
g10
tp2132
a(S'Steven Jackson'
p2133
g15
tp2134
a(S'Isaiah Pead'
p2135
g15
tp2136
a(S'Daryl Richardson'
p2137
g15
tp2138
a(S'Danny Amendola'
p2139
g24
tp2140
a(S'Brandon Gibson'
p2141
g24
tp2142
a(S'Chris Givens'
p2143
g24
tp2144
a(S'Brian Quick'
p2145
g24
tp2146
a(S'Cory Harkey'
p2147
g35
tp2148
a(S'Lance Kendricks'
p2149
g35
tp2150
a(S'Matthew Mulligan'
p2151
g35
tp2152
a(S'Greg Zuerlein'
p2153
g42
tp2154
asg44
I00
sg45
F27.0
sg46
F221.0
sg47
F3.0
sg48
F0.0
sg49
F2.0
sg50
S'13-16'
p2155
sg52
I00
sg53
F85.0
sg54
F0.0
ssg97
(dp2156
g5
F41.0
sg6
F0.0
sg7
(lp2157
(S'Drew Brees'
p2158
g10
tp2159
a(S'Chase Daniel'
p2160
g10
tp2161
a(S'Travaris Cadet'
p2162
g15
tp2163
a(S'Mark Ingram'
p2164
g15
tp2165
a(S'Chris Ivory'
p2166
g15
tp2167
a(S'Darren Sproles'
p2168
g15
tp2169
a(S'Pierre Thomas'
p2170
g15
tp2171
a(S'Marques Colston'
p2172
g24
tp2173
a(S'Lance Moore'
p2174
g24
tp2175
a(S'Jimmy Graham'
p2176
g35
tp2177
asg44
I01
sg45
F21.0
sg46
F267.0
sg47
F0.0
sg48
F3.0
sg49
F0.0
sg50
S'31-21'
p2178
sg52
I00
sg53
F59.0
sg54
F0.0
ssg135
(dp2179
g5
F65.0
sg6
F3.0
sg7
(lp2180
(S'Tom Brady'
p2181
g10
tp2182
a(S'Ryan Mallett'
p2183
g10
tp2184
a(S'Brandon Bolden'
p2185
g15
tp2186
a(S'James Develin'
p2187
g15
tp2188
a(S'Stevan Ridley'
p2189
g15
tp2190
a(S'Shane Vereen'
p2191
g15
tp2192
a(S'Danny Woodhead'
p2193
g15
tp2194
a(S'Matthew Slater'
p2195
g24
tp2196
a(S'Wes Welker'
p2197
g24
tp2198
a(S'Daniel Fells'
p2199
g35
tp2200
a(S'Rob Gronkowski'
p2201
g35
tp2202
a(S'Michael Hoomanawanui'
p2203
g35
tp2204
a(S'Stephen Gostkowski'
p2205
g42
tp2206
asg44
I01
sg45
F24.0
sg46
F443.0
sg47
F2.0
sg48
F1.0
sg49
F2.0
sg50
S'41-34'
p2207
sg52
I00
sg53
F95.0
sg54
F0.0
ssg173
(dp2208
g5
F33.0
sg6
F0.0
sg7
(lp2209
(S'Pat Devlin'
p2210
g10
tp2211
a(S'Matt Moore'
p2212
g10
tp2213
a(S'Ryan Tannehill'
p2214
g10
tp2215
a(S'Reggie Bush'
p2216
g15
tp2217
a(S'Jorvorskie Lane'
p2218
g15
tp2219
a(S'Lamar Miller'
p2220
g15
tp2221
a(S'Daniel Thomas'
p2222
g15
tp2223
a(S'Brian Hartline'
p2224
g24
tp2225
a(S'Rishard Matthews'
p2226
g24
tp2227
a(S'Marlon Moore'
p2228
g24
tp2229
a(S'Charles Clay'
p2230
g35
tp2231
a(S'Anthony Fasano'
p2232
g35
tp2233
a(S'Dan Carpenter'
p2234
g42
tp2235
asg44
I01
sg45
F22.0
sg46
F150.0
sg47
F2.0
sg48
F1.0
sg49
F2.0
sg50
S'27-13'
p2236
sg52
I01
sg53
F94.0
sg54
F0.0
ssg211
(dp2237
g5
F34.0
sg6
F0.0
sg7
(lp2238
(S'Brian Hoyer'
p2239
g10
tp2240
a(S'Anthony Sherman'
p2241
g15
tp2242
a(S'LaRon Byrd'
p2243
g24
tp2244
a(S'Larry Fitzgerald'
p2245
g24
tp2246
a(S'Michael Floyd'
p2247
g24
tp2248
a(S'Andre Roberts'
p2249
g24
tp2250
a(S'Jim Dray'
p2251
g35
tp2252
asg44
I01
sg45
F2.0
sg46
F225.0
sg47
F0.0
sg48
F1.0
sg49
F0.0
sg50
S'27-13'
p2253
sg52
I01
sg53
F4.0
sg54
F0.0
ssg249
(dp2254
g5
F21.0
sg6
F0.0
sg7
(lp2255
(S'Matt Flynn'
p2256
g10
tp2257
a(S'Russell Wilson'
p2258
g10
tp2259
a(S'Robert Turbin'
p2260
g15
tp2261
a(S'Doug Baldwin'
p2262
g24
tp2263
a(S'Jermaine Kearse'
p2264
g24
tp2265
a(S'Golden Tate'
p2266
g24
tp2267
a(S'Anthony McCoy'
p2268
g35
tp2269
a(S'Sean McGrath'
p2270
g35
tp2271
a(S'Steven Hauschka'
p2272
g42
tp2273
asg44
I00
sg45
F12.0
sg46
F171.0
sg47
F0.0
sg48
F4.0
sg49
F0.0
sg50
S'13-42'
p2274
sg52
I00
sg53
F64.0
sg54
F0.0
ssg281
(dp2275
g5
F44.0
sg6
F0.0
sg7
(lp2276
(S'Aaron Rodgers'
p2277
g10
tp2278
a(S'John Kuhn'
p2279
g15
tp2280
a(S'James Starks'
p2281
g15
tp2282
a(S'Jarrett Boykin'
p2283
g24
tp2284
a(S'Randall Cobb'
p2285
g24
tp2286
a(S'Greg Jennings'
p2287
g24
tp2288
a(S'James Jones'
p2289
g24
tp2290
a(S'Jordy Nelson'
p2291
g24
tp2292
a(S'Mason Crosby'
p2293
g42
tp2294
asg44
I01
sg45
F5.0
sg46
F303.0
sg47
F0.0
sg48
F2.0
sg49
F0.0
sg50
S'30-22'
p2295
sg52
I00
sg53
F27.0
sg54
F0.0
ssg319
(dp2296
g5
F0.0
sg6
F0.0
sg7
(lp2297
(S'Joe Webb'
p2298
g10
tp2299
a(S'Matt Asiata'
p2300
g15
tp2301
a(S'Jerome Felton'
p2302
g15
tp2303
a(S'Toby Gerhart'
p2304
g15
tp2305
a(S'Adrian Peterson'
p2306
g15
tp2307
a(S'Percy Harvin'
p2308
g24
tp2309
a(S'Jarius Wright'
p2310
g24
tp2311
a(S'Rhett Ellison'
p2312
g35
tp2313
a(S'Allen Reisner'
p2314
g35
tp2315
a(S'Kyle Rudolph'
p2316
g35
tp2317
a(S'Blair Walsh'
p2318
g42
tp2319
asg44
I00
sg45
F34.0
sg46
F0.0
sg47
F1.0
sg48
F0.0
sg49
F1.0
sg50
S'13-24'
p2320
sg52
I00
sg53
F113.0
sg54
F0.0
ssg357
(dp2321
g5
F32.0
sg6
F0.0
sg7
(lp2322
(S'Shaun Hill'
p2323
g10
tp2324
a(S'Kellen Moore'
p2325
g10
tp2326
a(S'Matthew Stafford'
p2327
g10
tp2328
a(S'Brandon Pettigrew'
p2329
g35
tp2330
asg44
I01
sg45
F2.0
sg46
F230.0
sg47
F0.0
sg48
F1.0
sg49
F0.0
sg50
S'27-19'
p2331
sg52
I01
sg53
F10.0
sg54
F0.0
ssg393
(dp2332
g5
F26.0
sg6
F0.0
sg7
(lp2333
(S'Ryan Fitzpatrick'
p2334
g10
tp2335
a(S'Tarvaris Jackson'
p2336
g10
tp2337
a(S'Fred Jackson'
p2338
g15
tp2339
a(S'C.J. Spiller'
p2340
g15
tp2341
a(S'T.J. Graham'
p2342
g24
tp2343
a(S'Steve Johnson'
p2344
g24
tp2345
a(S'Scott Chandler'
p2346
g35
tp2347
a(S'Dorin Dickerson'
p2348
g35
tp2349
a(S'Lee Smith'
p2350
g35
tp2351
asg44
I01
sg45
F18.0
sg46
F126.0
sg47
F0.0
sg48
F0.0
sg49
F0.0
sg50
S'45-3'
p2352
sg52
I01
sg53
F54.0
sg54
F0.0
ssg433
(dp2353
g5
F29.0
sg6
F0.0
sg7
(lp2354
(S'Mark Sanchez'
p2355
g10
tp2356
a(S'Jonathan Grimes'
p2357
g15
tp2358
a(S'Bilal Powell'
p2359
g15
tp2360
a(S'Stephen Hill'
p2361
g24
tp2362
a(S'Jeremy Kerley'
p2363
g24
tp2364
a(S'Jeff Cumberland'
p2365
g35
tp2366
a(S'Konrad Reuland'
p2367
g35
tp2368
a(S'Nick Folk'
p2369
g42
tp2370
asg44
I01
sg45
F4.0
sg46
F103.0
sg47
F0.0
sg48
F0.0
sg49
F0.0
sg50
S'34-0'
p2371
sg52
I00
sg53
F11.0
sg54
F0.0
ssg469
(dp2372
g5
F23.0
sg6
F0.0
sg7
(lp2373
(S'Matt Flynn'
p2374
g10
tp2375
a(S'Russell Wilson'
p2376
g10
tp2377
a(S'Robert Turbin'
p2378
g15
tp2379
a(S'Doug Baldwin'
p2380
g24
tp2381
a(S'Golden Tate'
p2382
g24
tp2383
a(S'Anthony McCoy'
p2384
g35
tp2385
a(S'Steven Hauschka'
p2386
g42
tp2387
asg44
I01
sg45
F7.0
sg46
F122.0
sg47
F3.0
sg48
F0.0
sg49
F2.0
sg50
S'13-6'
p2388
sg52
I01
sg53
F27.0
sg54
F0.0
ssg503
(dp2389
g5
F28.0
sg6
F1.0
sg7
(lp2390
(S'Eli Manning'
p2391
g10
tp2392
a(S'Ahmad Bradshaw'
p2393
g15
tp2394
a(S'Victor Cruz'
p2395
g24
tp2396
a(S'Hakeem Nicks'
p2397
g24
tp2398
a(S'Rueben Randle'
p2399
g24
tp2400
a(S'Martellus Bennett'
p2401
g35
tp2402
a(S'Bear Pascoe'
p2403
g35
tp2404
asg44
I00
sg45
F30.0
sg46
F193.0
sg47
F0.0
sg48
F1.0
sg49
F0.0
sg50
S'3-26'
p2405
sg52
I01
sg53
F114.0
sg54
F0.0
ssg541
(dp2406
g5
F0.0
sg6
F0.0
sg7
(lp2407
sg44
(lp2408
sg45
F0.0
sg46
F0.0
sg47
F0.0
sg48
F0.0
sg49
F0.0
sg50
(lp2409
sg52
(lp2410
sg53
F0.0
sg54
F0.0
ssg577
(dp2411
g5
F0.0
sg6
F0.0
sg7
(lp2412
(S'Anthony Sherman'
p2413
g15
tp2414
a(S'LaRon Byrd'
p2415
g24
tp2416
a(S'Larry Fitzgerald'
p2417
g24
tp2418
a(S'Michael Floyd'
p2419
g24
tp2420
a(S'Andre Roberts'
p2421
g24
tp2422
a(S'Jim Dray'
p2423
g35
tp2424
a(S'Rob Housler'
p2425
g35
tp2426
asg44
I01
sg45
F0.0
sg46
F0.0
sg47
F0.0
sg48
F0.0
sg49
F0.0
sg50
S'24-3'
p2427
sg52
I00
sg53
F0.0
sg54
F0.0
sss.