(dp0
S'2011'
p1
(dp2
S'13'
p3
(dp4
S'RushTD'
p5
S'--'
p6
sS'RushYds'
p7
S'--'
p8
sS'GS'
p9
S'0'
p10
sS'Lost'
p11
S'--'
p12
sS'G'
p13
S'1'
p14
sS'Player'
p15
S'Allen Reisner'
p16
sS'Year'
p17
S'2011'
p18
sS'WK'
p19
S'13'
p20
sS'RushAvg'
p21
S'--'
p22
sS'Game Date'
p23
S'12/04'
p24
sS'RecAvg'
p25
S'--'
p26
sS'FUM'
p27
S'--'
p28
sS'RushAtt'
p29
S'--'
p30
sS'Result'
p31
S'L32-35'
p32
sS'RecYds'
p33
S'--'
p34
sS'Rec'
p35
S'--'
p36
sS'Opp'
p37
S'DEN'
p38
sS'RecLng'
p39
S'--'
p40
sS'RecTD'
p41
S'--'
p42
sS'RushLng'
p43
S'--'
p44
ssS'12'
p45
(dp46
g5
S'--'
p47
sg7
S'--'
p48
sg9
g10
sg11
S'--'
p49
sg13
g14
sg15
S'Allen Reisner'
p50
sg17
S'2011'
p51
sg19
S'12'
p52
sg21
S'--'
p53
sg23
S'11/27'
p54
sg25
S'5.0'
p55
sg27
S'--'
p56
sg29
S'--'
p57
sg31
S'L14-24'
p58
sg33
S'5'
p59
sg35
g14
sg37
S'@ATL'
p60
sg39
g59
sg41
g10
sg43
S'--'
p61
ssS'15'
p62
(dp63
g5
S'--'
p64
sg7
S'--'
p65
sg9
g10
sg11
S'--'
p66
sg13
g10
sg15
S'Allen Reisner'
p67
sg17
S'2011'
p68
sg19
S'15'
p69
sg21
S'--'
p70
sg23
S'12/18'
p71
sg25
S'--'
p72
sg27
S'--'
p73
sg29
S'--'
p74
sg31
S'L20-42'
p75
sg33
S'--'
p76
sg35
S'--'
p77
sg37
S'NO'
p78
sg39
S'--'
p79
sg41
S'--'
p80
sg43
S'--'
p81
ssS'14'
p82
(dp83
g5
S'--'
p84
sg7
S'--'
p85
sg9
g10
sg11
S'--'
p86
sg13
g10
sg15
S'Allen Reisner'
p87
sg17
S'2011'
p88
sg19
S'14'
p89
sg21
S'--'
p90
sg23
S'12/11'
p91
sg25
S'--'
p92
sg27
S'--'
p93
sg29
S'--'
p94
sg31
S'L28-34'
p95
sg33
S'--'
p96
sg35
S'--'
p97
sg37
S'@DET'
p98
sg39
S'--'
p99
sg41
S'--'
p100
sg43
S'--'
p101
ssS'16'
p102
(dp103
g5
S'--'
p104
sg7
S'--'
p105
sg9
g10
sg11
S'--'
p106
sg13
g10
sg15
S'Allen Reisner'
p107
sg17
S'2011'
p108
sg19
S'16'
p109
sg21
S'--'
p110
sg23
S'12/24'
p111
sg25
S'--'
p112
sg27
S'--'
p113
sg29
S'--'
p114
sg31
S'W33-26'
p115
sg33
S'--'
p116
sg35
S'--'
p117
sg37
S'@WAS'
p118
sg39
S'--'
p119
sg41
S'--'
p120
sg43
S'--'
p121
ssg14
(dp122
g5
S'--'
p123
sg7
S'--'
p124
sg9
g10
sg11
S'--'
p125
sg13
g14
sg15
S'Allen Reisner'
p126
sg17
S'2011'
p127
sg19
g14
sg21
S'--'
p128
sg23
S'09/11'
p129
sg25
S'--'
p130
sg27
S'--'
p131
sg29
S'--'
p132
sg31
S'L17-24'
p133
sg33
S'--'
p134
sg35
S'--'
p135
sg37
S'@SD'
p136
sg39
S'--'
p137
sg41
S'--'
p138
sg43
S'--'
p139
ssS'3'
p140
(dp141
g5
S'--'
p142
sg7
S'--'
p143
sg9
g10
sg11
S'--'
p144
sg13
g14
sg15
S'Allen Reisner'
p145
sg17
S'2011'
p146
sg19
g140
sg21
S'--'
p147
sg23
S'09/25'
p148
sg25
S'--'
p149
sg27
S'--'
p150
sg29
S'--'
p151
sg31
S'L23-26'
p152
sg33
S'--'
p153
sg35
S'--'
p154
sg37
S'DET'
p155
sg39
S'--'
p156
sg41
S'--'
p157
sg43
S'--'
p158
ssS'2'
p159
(dp160
g5
S'--'
p161
sg7
S'--'
p162
sg9
g10
sg11
S'--'
p163
sg13
g14
sg15
S'Allen Reisner'
p164
sg17
S'2011'
p165
sg19
g159
sg21
S'--'
p166
sg23
S'09/18'
p167
sg25
S'--'
p168
sg27
S'--'
p169
sg29
S'--'
p170
sg31
S'L20-24'
p171
sg33
S'--'
p172
sg35
S'--'
p173
sg37
S'TB'
p174
sg39
S'--'
p175
sg41
S'--'
p176
sg43
S'--'
p177
ssS'4'
p178
(dp179
g5
S'--'
p180
sg7
S'--'
p181
sg9
g10
sg11
S'--'
p182
sg13
g14
sg15
S'Allen Reisner'
p183
sg17
S'2011'
p184
sg19
g178
sg21
S'--'
p185
sg23
S'10/02'
p186
sg25
S'--'
p187
sg27
S'--'
p188
sg29
S'--'
p189
sg31
S'L17-22'
p190
sg33
S'--'
p191
sg35
S'--'
p192
sg37
S'@KC'
p193
sg39
S'--'
p194
sg41
S'--'
p195
sg43
S'--'
p196
sssS'2013'
p197
(dp198
g62
(dp199
g5
S'--'
p200
sg7
S'--'
p201
sg9
g10
sg11
S'--'
p202
sg13
g10
sg15
S'Allen Reisner'
p203
sg17
S'2013'
p204
sg19
S'15'
p205
sg21
S'--'
p206
sg23
S'12/15'
p207
sg25
S'--'
p208
sg27
S'--'
p209
sg29
S'--'
p210
sg31
S'L20-27'
p211
sg33
S'--'
p212
sg35
S'--'
p213
sg37
S'BUF'
p214
sg39
S'--'
p215
sg41
S'--'
p216
sg43
S'--'
p217
ssS'17'
p218
(dp219
g5
S'--'
p220
sg7
S'--'
p221
sg9
g10
sg11
S'--'
p222
sg13
g10
sg15
S'Allen Reisner'
p223
sg17
S'2013'
p224
sg19
S'17'
p225
sg21
S'--'
p226
sg23
S'12/29'
p227
sg25
S'--'
p228
sg27
S'--'
p229
sg29
S'--'
p230
sg31
S'L10-30'
p231
sg33
S'--'
p232
sg35
S'--'
p233
sg37
S'@IND'
p234
sg39
S'--'
p235
sg41
S'--'
p236
sg43
S'--'
p237
ssg102
(dp238
g5
S'--'
p239
sg7
S'--'
p240
sg9
g10
sg11
S'--'
p241
sg13
g10
sg15
S'Allen Reisner'
p242
sg17
S'2013'
p243
sg19
S'16'
p244
sg21
S'--'
p245
sg23
S'12/22'
p246
sg25
S'--'
p247
sg27
S'--'
p248
sg29
S'--'
p249
sg31
S'L16-20'
p250
sg33
S'--'
p251
sg35
S'--'
p252
sg37
S'TEN'
p253
sg39
S'--'
p254
sg41
S'--'
p255
sg43
S'--'
p256
ssg14
(dp257
g5
S'--'
p258
sg7
S'--'
p259
sg9
g14
sg11
S'--'
p260
sg13
g14
sg15
S'Allen Reisner'
p261
sg17
S'2013'
p262
sg19
g14
sg21
S'--'
p263
sg23
S'09/08'
p264
sg25
S'10.3'
p265
sg27
S'--'
p266
sg29
S'--'
p267
sg31
S'L2-28'
p268
sg33
S'31'
p269
sg35
g140
sg37
S'KC'
p270
sg39
S'16'
p271
sg41
g10
sg43
S'--'
p272
ssg140
(dp273
g5
S'--'
p274
sg7
S'--'
p275
sg9
g14
sg11
S'--'
p276
sg13
g14
sg15
S'Allen Reisner'
p277
sg17
S'2013'
p278
sg19
g140
sg21
S'--'
p279
sg23
S'09/22'
p280
sg25
S'--'
p281
sg27
S'--'
p282
sg29
S'--'
p283
sg31
S'L17-45'
p284
sg33
g10
sg35
g10
sg37
S'@SEA'
p285
sg39
S'--'
p286
sg41
g10
sg43
S'--'
p287
ssg159
(dp288
g5
S'--'
p289
sg7
S'--'
p290
sg9
g14
sg11
S'--'
p291
sg13
g14
sg15
S'Allen Reisner'
p292
sg17
S'2013'
p293
sg19
g159
sg21
S'--'
p294
sg23
S'09/15'
p295
sg25
S'4.5'
p296
sg27
S'--'
p297
sg29
S'--'
p298
sg31
S'L9-19'
p299
sg33
S'9'
p300
sg35
g159
sg37
S'@OAK'
p301
sg39
g59
sg41
g10
sg43
S'--'
p302
ssg59
(dp303
g5
S'--'
p304
sg7
S'--'
p305
sg9
g10
sg11
S'--'
p306
sg13
g14
sg15
S'Allen Reisner'
p307
sg17
S'2013'
p308
sg19
g59
sg21
S'--'
p309
sg23
S'10/06'
p310
sg25
S'--'
p311
sg27
S'--'
p312
sg29
S'--'
p313
sg31
S'L20-34'
p314
sg33
S'--'
p315
sg35
S'--'
p316
sg37
S'@STL'
p317
sg39
S'--'
p318
sg41
S'--'
p319
sg43
S'--'
p320
ssg178
(dp321
g5
S'--'
p322
sg7
S'--'
p323
sg9
g10
sg11
S'--'
p324
sg13
g14
sg15
S'Allen Reisner'
p325
sg17
S'2013'
p326
sg19
g178
sg21
S'--'
p327
sg23
S'09/29'
p328
sg25
S'--'
p329
sg27
S'--'
p330
sg29
S'--'
p331
sg31
S'L3-37'
p332
sg33
g10
sg35
g10
sg37
S'IND'
p333
sg39
S'--'
p334
sg41
g10
sg43
S'--'
p335
sssS'2012'
p336
(dp337
S'11'
p338
(dp339
g5
S''
p340
sg7
g340
sg9
g340
sg11
g340
sg13
g340
sg15
S'Allen Reisner'
p341
sg17
S'2012'
p342
sg19
S'11'
p343
sg21
g340
sg23
S'Bye'
p344
sg25
g340
sg27
g340
sg29
g340
sg31
g340
sg33
g340
sg35
g340
sg37
g340
sg39
g340
sg41
g340
sg43
g340
ssS'10'
p345
(dp346
g5
S'--'
p347
sg7
S'--'
p348
sg9
g10
sg11
S'--'
p349
sg13
g10
sg15
S'Allen Reisner'
p350
sg17
S'2012'
p351
sg19
S'10'
p352
sg21
S'--'
p353
sg23
S'11/11'
p354
sg25
S'--'
p355
sg27
S'--'
p356
sg29
S'--'
p357
sg31
S'W34-24'
p358
sg33
S'--'
p359
sg35
S'--'
p360
sg37
S'DET'
p361
sg39
S'--'
p362
sg41
S'--'
p363
sg43
S'--'
p364
ssg3
(dp365
g5
S'--'
p366
sg7
S'--'
p367
sg9
g10
sg11
S'--'
p368
sg13
g10
sg15
S'Allen Reisner'
p369
sg17
S'2012'
p370
sg19
S'13'
p371
sg21
S'--'
p372
sg23
S'12/02'
p373
sg25
S'--'
p374
sg27
S'--'
p375
sg29
S'--'
p376
sg31
S'L14-23'
p377
sg33
S'--'
p378
sg35
S'--'
p379
sg37
S'@GB'
p380
sg39
S'--'
p381
sg41
S'--'
p382
sg43
S'--'
p383
ssg45
(dp384
g5
S'--'
p385
sg7
S'--'
p386
sg9
g10
sg11
S'--'
p387
sg13
g10
sg15
S'Allen Reisner'
p388
sg17
S'2012'
p389
sg19
S'12'
p390
sg21
S'--'
p391
sg23
S'11/25'
p392
sg25
S'--'
p393
sg27
S'--'
p394
sg29
S'--'
p395
sg31
S'L10-28'
p396
sg33
S'--'
p397
sg35
S'--'
p398
sg37
S'@CHI'
p399
sg39
S'--'
p400
sg41
S'--'
p401
sg43
S'--'
p402
ssg62
(dp403
g5
S'--'
p404
sg7
S'--'
p405
sg9
g10
sg11
S'--'
p406
sg13
g10
sg15
S'Allen Reisner'
p407
sg17
S'2012'
p408
sg19
S'15'
p409
sg21
S'--'
p410
sg23
S'12/16'
p411
sg25
S'--'
p412
sg27
S'--'
p413
sg29
S'--'
p414
sg31
S'W36-22'
p415
sg33
S'--'
p416
sg35
S'--'
p417
sg37
S'@STL'
p418
sg39
S'--'
p419
sg41
S'--'
p420
sg43
S'--'
p421
ssg82
(dp422
g5
S'--'
p423
sg7
S'--'
p424
sg9
g10
sg11
S'--'
p425
sg13
g10
sg15
S'Allen Reisner'
p426
sg17
S'2012'
p427
sg19
S'14'
p428
sg21
S'--'
p429
sg23
S'12/09'
p430
sg25
S'--'
p431
sg27
S'--'
p432
sg29
S'--'
p433
sg31
S'W21-14'
p434
sg33
S'--'
p435
sg35
S'--'
p436
sg37
S'CHI'
p437
sg39
S'--'
p438
sg41
S'--'
p439
sg43
S'--'
p440
ssg218
(dp441
g5
S'--'
p442
sg7
S'--'
p443
sg9
g10
sg11
S'--'
p444
sg13
g10
sg15
S'Allen Reisner'
p445
sg17
S'2012'
p446
sg19
S'17'
p447
sg21
S'--'
p448
sg23
S'12/30'
p449
sg25
S'--'
p450
sg27
S'--'
p451
sg29
S'--'
p452
sg31
S'L20-38'
p453
sg33
S'--'
p454
sg35
S'--'
p455
sg37
S'@TEN'
p456
sg39
S'--'
p457
sg41
S'--'
p458
sg43
S'--'
p459
ssg14
(dp460
g5
S'--'
p461
sg7
S'--'
p462
sg9
g10
sg11
S'--'
p463
sg13
g14
sg15
S'Allen Reisner'
p464
sg17
S'2012'
p465
sg19
g14
sg21
S'--'
p466
sg23
S'09/09'
p467
sg25
S'--'
p468
sg27
S'--'
p469
sg29
S'--'
p470
sg31
S'W26-23'
p471
sg33
S'--'
p472
sg35
S'--'
p473
sg37
S'JAC'
p474
sg39
S'--'
p475
sg41
S'--'
p476
sg43
S'--'
p477
ssg140
(dp478
g5
S'--'
p479
sg7
S'--'
p480
sg9
g10
sg11
S'--'
p481
sg13
g14
sg15
S'Allen Reisner'
p482
sg17
S'2012'
p483
sg19
g140
sg21
S'--'
p484
sg23
S'09/23'
p485
sg25
S'--'
p486
sg27
S'--'
p487
sg29
S'--'
p488
sg31
S'W24-13'
p489
sg33
g10
sg35
g10
sg37
S'SF'
p490
sg39
S'--'
p491
sg41
g10
sg43
S'--'
p492
ssg159
(dp493
g5
S'--'
p494
sg7
S'--'
p495
sg9
g10
sg11
S'--'
p496
sg13
g14
sg15
S'Allen Reisner'
p497
sg17
S'2012'
p498
sg19
g159
sg21
S'--'
p499
sg23
S'09/16'
p500
sg25
S'--'
p501
sg27
S'--'
p502
sg29
S'--'
p503
sg31
S'L20-23'
p504
sg33
S'--'
p505
sg35
S'--'
p506
sg37
S'@IND'
p507
sg39
S'--'
p508
sg41
S'--'
p509
sg43
S'--'
p510
ssg300
(dp511
g5
S'--'
p512
sg7
S'--'
p513
sg9
g10
sg11
S'--'
p514
sg13
g14
sg15
S'Allen Reisner'
p515
sg17
S'2012'
p516
sg19
g300
sg21
S'--'
p517
sg23
S'11/04'
p518
sg25
S'13.0'
p519
sg27
S'--'
p520
sg29
S'--'
p521
sg31
S'L20-30'
p522
sg33
S'13'
p523
sg35
g14
sg37
S'@SEA'
p524
sg39
S'13'
p525
sg41
g10
sg43
S'--'
p526
sss.