(dp0
S'2015'
p1
(dp2
S'17'
p3
(dp4
S'RushTD'
p5
S'--'
p6
sS'RushYds'
p7
S'--'
p8
sS'GS'
p9
S'1'
p10
sS'Lost'
p11
S'--'
p12
sS'G'
p13
g10
sS'Player'
p14
S'Andrew Quarless'
p15
sS'Year'
p16
S'2015'
p17
sS'WK'
p18
S'17'
p19
sS'RushAvg'
p20
S'--'
p21
sS'Game Date'
p22
S'01/03'
p23
sS'RecAvg'
p24
S'--'
p25
sS'FUM'
p26
S'--'
p27
sS'RushAtt'
p28
S'--'
p29
sS'Result'
p30
S'L13-20'
p31
sS'RecYds'
p32
S'0'
p33
sS'Rec'
p34
g33
sS'Opp'
p35
S'MIN'
p36
sS'RecLng'
p37
S'--'
p38
sS'RecTD'
p39
g33
sS'RushLng'
p40
S'--'
p41
ssS'16'
p42
(dp43
g5
S'--'
p44
sg7
S'--'
p45
sg9
g33
sg11
S'--'
p46
sg13
g10
sg14
S'Andrew Quarless'
p47
sg16
S'2015'
p48
sg18
S'16'
p49
sg20
S'--'
p50
sg22
S'12/27'
p51
sg24
S'8.5'
p52
sg26
S'--'
p53
sg28
S'--'
p54
sg30
S'L8-38'
p55
sg32
S'17'
p56
sg34
S'2'
p57
sg35
S'@ARI'
p58
sg37
S'13'
p59
sg39
g33
sg40
S'--'
p60
ssg10
(dp61
g5
S'--'
p62
sg7
S'--'
p63
sg9
g33
sg11
S'--'
p64
sg13
g10
sg14
S'Andrew Quarless'
p65
sg16
S'2015'
p66
sg18
g10
sg20
S'--'
p67
sg22
S'09/13'
p68
sg24
S'--'
p69
sg26
S'--'
p70
sg28
S'--'
p71
sg30
S'W31-23'
p72
sg32
S'--'
p73
sg34
S'--'
p74
sg35
S'@CHI'
p75
sg37
S'--'
p76
sg39
S'--'
p77
sg40
S'--'
p78
ssS'3'
p79
(dp80
g5
S'--'
p81
sg7
S'--'
p82
sg9
g33
sg11
S'--'
p83
sg13
g10
sg14
S'Andrew Quarless'
p84
sg16
S'2015'
p85
sg18
g79
sg20
S'--'
p86
sg22
S'09/28'
p87
sg24
S'7.0'
p88
sg26
S'--'
p89
sg28
S'--'
p90
sg30
S'W38-28'
p91
sg32
S'14'
p92
sg34
g57
sg35
S'KC'
p93
sg37
S'7'
p94
sg39
g33
sg40
S'--'
p95
ssg57
(dp96
g5
S'--'
p97
sg7
S'--'
p98
sg9
g33
sg11
S'--'
p99
sg13
g10
sg14
S'Andrew Quarless'
p100
sg16
S'2015'
p101
sg18
g57
sg20
S'--'
p102
sg22
S'09/20'
p103
sg24
S'--'
p104
sg26
S'--'
p105
sg28
S'--'
p106
sg30
S'W27-17'
p107
sg32
S'--'
p108
sg34
S'--'
p109
sg35
S'SEA'
p110
sg37
S'--'
p111
sg39
S'--'
p112
sg40
S'--'
p113
sssS'2014'
p114
(dp115
S'11'
p116
(dp117
g5
S'--'
p118
sg7
S'--'
p119
sg9
g10
sg11
S'--'
p120
sg13
g10
sg14
S'Andrew Quarless'
p121
sg16
S'2014'
p122
sg18
S'11'
p123
sg20
S'--'
p124
sg22
S'11/16'
p125
sg24
S'17.5'
p126
sg26
S'--'
p127
sg28
S'--'
p128
sg30
S'W53-20'
p129
sg32
S'35'
p130
sg34
g57
sg35
S'PHI'
p131
sg37
S'24'
p132
sg39
g33
sg40
S'--'
p133
ssS'10'
p134
(dp135
g5
S'--'
p136
sg7
S'--'
p137
sg9
g10
sg11
S'--'
p138
sg13
g10
sg14
S'Andrew Quarless'
p139
sg16
S'2014'
p140
sg18
S'10'
p141
sg20
S'--'
p142
sg22
S'11/09'
p143
sg24
S'5.0'
p144
sg26
S'--'
p145
sg28
S'--'
p146
sg30
S'W55-14'
p147
sg32
S'10'
p148
sg34
g57
sg35
S'CHI'
p149
sg37
S'6'
p150
sg39
g10
sg40
S'--'
p151
ssS'13'
p152
(dp153
g5
S'--'
p154
sg7
S'--'
p155
sg9
g10
sg11
S'--'
p156
sg13
g10
sg14
S'Andrew Quarless'
p157
sg16
S'2014'
p158
sg18
S'13'
p159
sg20
S'--'
p160
sg22
S'11/30'
p161
sg24
S'8.5'
p162
sg26
S'--'
p163
sg28
S'--'
p164
sg30
S'W26-21'
p165
sg32
S'17'
p166
sg34
g57
sg35
S'NE'
p167
sg37
S'9'
p168
sg39
g33
sg40
S'--'
p169
ssS'12'
p170
(dp171
g5
S'--'
p172
sg7
S'--'
p173
sg9
g33
sg11
S'--'
p174
sg13
g10
sg14
S'Andrew Quarless'
p175
sg16
S'2014'
p176
sg18
S'12'
p177
sg20
S'--'
p178
sg22
S'11/23'
p179
sg24
S'25.0'
p180
sg26
S'--'
p181
sg28
S'--'
p182
sg30
S'W24-21'
p183
sg32
S'50'
p184
sg34
g57
sg35
S'@MIN'
p185
sg37
S'34'
p186
sg39
g33
sg40
S'--'
p187
ssS'15'
p188
(dp189
g5
S'--'
p190
sg7
S'--'
p191
sg9
g10
sg11
S'--'
p192
sg13
g10
sg14
S'Andrew Quarless'
p193
sg16
S'2014'
p194
sg18
S'15'
p195
sg20
S'--'
p196
sg22
S'12/14'
p197
sg24
S'7.0'
p198
sg26
S'--'
p199
sg28
S'--'
p200
sg30
S'L13-21'
p201
sg32
g94
sg34
g10
sg35
S'@BUF'
p202
sg37
g94
sg39
g33
sg40
S'--'
p203
ssS'14'
p204
(dp205
g5
S'--'
p206
sg7
S'--'
p207
sg9
g33
sg11
S'--'
p208
sg13
g10
sg14
S'Andrew Quarless'
p209
sg16
S'2014'
p210
sg18
S'14'
p211
sg20
S'--'
p212
sg22
S'12/08'
p213
sg24
S'17.3'
p214
sg26
S'--'
p215
sg28
S'--'
p216
sg30
S'W43-37'
p217
sg32
S'52'
p218
sg34
g79
sg35
S'ATL'
p219
sg37
S'30'
p220
sg39
g33
sg40
S'--'
p221
ssg3
(dp222
g5
S'--'
p223
sg7
S'--'
p224
sg9
g10
sg11
S'--'
p225
sg13
g10
sg14
S'Andrew Quarless'
p226
sg16
S'2014'
p227
sg18
S'17'
p228
sg20
S'--'
p229
sg22
S'12/28'
p230
sg24
S'--'
p231
sg26
S'--'
p232
sg28
S'--'
p233
sg30
S'W30-20'
p234
sg32
g33
sg34
g33
sg35
S'DET'
p235
sg37
S'--'
p236
sg39
g33
sg40
S'--'
p237
ssg42
(dp238
g5
S'--'
p239
sg7
S'--'
p240
sg9
g10
sg11
S'--'
p241
sg13
g10
sg14
S'Andrew Quarless'
p242
sg16
S'2014'
p243
sg18
S'16'
p244
sg20
S'--'
p245
sg22
S'12/21'
p246
sg24
S'8.5'
p247
sg26
S'--'
p248
sg28
S'--'
p249
sg30
S'W20-3'
p250
sg32
S'17'
p251
sg34
g57
sg35
S'@TB'
p252
sg37
S'16'
p253
sg39
g33
sg40
S'--'
p254
ssg10
(dp255
g5
S'--'
p256
sg7
S'--'
p257
sg9
g33
sg11
S'--'
p258
sg13
g10
sg14
S'Andrew Quarless'
p259
sg16
S'2014'
p260
sg18
g10
sg20
S'--'
p261
sg22
S'09/04'
p262
sg24
S'8.7'
p263
sg26
S'--'
p264
sg28
S'--'
p265
sg30
S'L16-36'
p266
sg32
S'26'
p267
sg34
g79
sg35
S'@SEA'
p268
sg37
S'18'
p269
sg39
g33
sg40
S'--'
p270
ssg79
(dp271
g5
S'--'
p272
sg7
S'--'
p273
sg9
g33
sg11
S'--'
p274
sg13
g10
sg14
S'Andrew Quarless'
p275
sg16
S'2014'
p276
sg18
g79
sg20
S'--'
p277
sg22
S'09/21'
p278
sg24
S'10.8'
p279
sg26
S'--'
p280
sg28
S'--'
p281
sg30
S'L7-19'
p282
sg32
S'43'
p283
sg34
S'4'
p284
sg35
S'@DET'
p285
sg37
S'18'
p286
sg39
g10
sg40
S'--'
p287
ssg57
(dp288
g5
S'--'
p289
sg7
S'--'
p290
sg9
g33
sg11
S'--'
p291
sg13
g10
sg14
S'Andrew Quarless'
p292
sg16
S'2014'
p293
sg18
g57
sg20
S'--'
p294
sg22
S'09/14'
p295
sg24
S'8.0'
p296
sg26
S'--'
p297
sg28
S'--'
p298
sg30
S'W31-24'
p299
sg32
S'8'
p300
sg34
g10
sg35
S'NYJ'
p301
sg37
g300
sg39
g33
sg40
S'--'
p302
ssS'5'
p303
(dp304
g5
S'--'
p305
sg7
S'--'
p306
sg9
g10
sg11
S'--'
p307
sg13
g10
sg14
S'Andrew Quarless'
p308
sg16
S'2014'
p309
sg18
g303
sg20
S'--'
p310
sg22
S'10/02'
p311
sg24
S'9.5'
p312
sg26
S'--'
p313
sg28
S'--'
p314
sg30
S'W42-10'
p315
sg32
S'19'
p316
sg34
g57
sg35
S'MIN'
p317
sg37
S'10'
p318
sg39
g33
sg40
S'--'
p319
ssg284
(dp320
g5
S'--'
p321
sg7
S'--'
p322
sg9
g10
sg11
S'--'
p323
sg13
g10
sg14
S'Andrew Quarless'
p324
sg16
S'2014'
p325
sg18
g284
sg20
S'--'
p326
sg22
S'09/28'
p327
sg24
S'--'
p328
sg26
S'--'
p329
sg28
S'--'
p330
sg30
S'W38-17'
p331
sg32
S'--'
p332
sg34
S'--'
p333
sg35
S'@CHI'
p334
sg37
S'--'
p335
sg39
S'--'
p336
sg40
S'--'
p337
ssg94
(dp338
g5
S'--'
p339
sg7
S'--'
p340
sg9
g10
sg11
S'--'
p341
sg13
g10
sg14
S'Andrew Quarless'
p342
sg16
S'2014'
p343
sg18
g94
sg20
S'--'
p344
sg22
S'10/19'
p345
sg24
S'9.0'
p346
sg26
S'--'
p347
sg28
S'--'
p348
sg30
S'W38-17'
p349
sg32
g168
sg34
g10
sg35
S'CAR'
p350
sg37
g168
sg39
g33
sg40
S'--'
p351
ssg150
(dp352
g5
S'--'
p353
sg7
S'--'
p354
sg9
g10
sg11
S'--'
p355
sg13
g10
sg14
S'Andrew Quarless'
p356
sg16
S'2014'
p357
sg18
g150
sg20
S'--'
p358
sg22
S'10/12'
p359
sg24
S'5.5'
p360
sg26
S'--'
p361
sg28
S'--'
p362
sg30
S'W27-24'
p363
sg32
S'11'
p364
sg34
g57
sg35
S'@MIA'
p365
sg37
g94
sg39
g10
sg40
S'--'
p366
ssg168
(dp367
g5
S''
p368
sg7
g368
sg9
g368
sg11
g368
sg13
g368
sg14
S'Andrew Quarless'
p369
sg16
S'2014'
p370
sg18
g168
sg20
g368
sg22
S'Bye'
p371
sg24
g368
sg26
g368
sg28
g368
sg30
g368
sg32
g368
sg34
g368
sg35
g368
sg37
g368
sg39
g368
sg40
g368
ssg300
(dp372
g5
S'--'
p373
sg7
S'--'
p374
sg9
g10
sg11
S'--'
p375
sg13
g10
sg14
S'Andrew Quarless'
p376
sg16
S'2014'
p377
sg18
g300
sg20
S'--'
p378
sg22
S'10/26'
p379
sg24
S'9.5'
p380
sg26
S'--'
p381
sg28
S'--'
p382
sg30
S'L23-44'
p383
sg32
S'19'
p384
sg34
g57
sg35
S'@NO'
p385
sg37
S'13'
p386
sg39
g33
sg40
S'--'
p387
sssS'2011'
p388
(dp389
g116
(dp390
g5
S'--'
p391
sg7
S'--'
p392
sg9
g33
sg11
S'--'
p393
sg13
g10
sg14
S'Andrew Quarless'
p394
sg16
S'2011'
p395
sg18
S'11'
p396
sg20
S'--'
p397
sg22
S'11/20'
p398
sg24
S'--'
p399
sg26
S'--'
p400
sg28
S'--'
p401
sg30
S'W35-26'
p402
sg32
S'--'
p403
sg34
S'--'
p404
sg35
S'TB'
p405
sg37
S'--'
p406
sg39
S'--'
p407
sg40
S'--'
p408
ssg134
(dp409
g5
S'--'
p410
sg7
S'--'
p411
sg9
g33
sg11
S'--'
p412
sg13
g10
sg14
S'Andrew Quarless'
p413
sg16
S'2011'
p414
sg18
S'10'
p415
sg20
S'--'
p416
sg22
S'11/14'
p417
sg24
S'8.0'
p418
sg26
S'--'
p419
sg28
S'--'
p420
sg30
S'W45-7'
p421
sg32
g300
sg34
g10
sg35
S'MIN'
p422
sg37
g300
sg39
g33
sg40
S'--'
p423
ssg152
(dp424
g5
S'--'
p425
sg7
S'--'
p426
sg9
g10
sg11
S'--'
p427
sg13
g10
sg14
S'Andrew Quarless'
p428
sg16
S'2011'
p429
sg18
S'13'
p430
sg20
S'--'
p431
sg22
S'12/04'
p432
sg24
S'7.0'
p433
sg26
S'--'
p434
sg28
S'--'
p435
sg30
S'W38-35'
p436
sg32
g94
sg34
g10
sg35
S'@NYG'
p437
sg37
g94
sg39
g33
sg40
S'--'
p438
ssg170
(dp439
g5
S'--'
p440
sg7
S'--'
p441
sg9
g33
sg11
S'--'
p442
sg13
g10
sg14
S'Andrew Quarless'
p443
sg16
S'2011'
p444
sg18
S'12'
p445
sg20
S'--'
p446
sg22
S'11/24'
p447
sg24
S'--'
p448
sg26
S'--'
p449
sg28
S'--'
p450
sg30
S'W27-15'
p451
sg32
g33
sg34
g33
sg35
S'@DET'
p452
sg37
S'--'
p453
sg39
g33
sg40
S'--'
p454
ssg10
(dp455
g5
S'--'
p456
sg7
S'--'
p457
sg9
g33
sg11
S'--'
p458
sg13
g10
sg14
S'Andrew Quarless'
p459
sg16
S'2011'
p460
sg18
g10
sg20
S'--'
p461
sg22
S'09/08'
p462
sg24
S'--'
p463
sg26
S'--'
p464
sg28
S'--'
p465
sg30
S'W42-34'
p466
sg32
S'--'
p467
sg34
S'--'
p468
sg35
S'NO'
p469
sg37
S'--'
p470
sg39
S'--'
p471
sg40
S'--'
p472
ssg79
(dp473
g5
S'--'
p474
sg7
S'--'
p475
sg9
g33
sg11
S'--'
p476
sg13
g10
sg14
S'Andrew Quarless'
p477
sg16
S'2011'
p478
sg18
g79
sg20
S'--'
p479
sg22
S'09/25'
p480
sg24
S'--'
p481
sg26
S'--'
p482
sg28
S'--'
p483
sg30
S'W27-17'
p484
sg32
S'--'
p485
sg34
S'--'
p486
sg35
S'@CHI'
p487
sg37
S'--'
p488
sg39
S'--'
p489
sg40
S'--'
p490
ssg57
(dp491
g5
S'--'
p492
sg7
S'--'
p493
sg9
g33
sg11
S'--'
p494
sg13
g10
sg14
S'Andrew Quarless'
p495
sg16
S'2011'
p496
sg18
g57
sg20
S'--'
p497
sg22
S'09/18'
p498
sg24
S'--'
p499
sg26
S'--'
p500
sg28
S'--'
p501
sg30
S'W30-23'
p502
sg32
S'--'
p503
sg34
S'--'
p504
sg35
S'@CAR'
p505
sg37
S'--'
p506
sg39
S'--'
p507
sg40
S'--'
p508
ssg303
(dp509
g5
S'--'
p510
sg7
S'--'
p511
sg9
g33
sg11
S'--'
p512
sg13
g33
sg14
S'Andrew Quarless'
p513
sg16
S'2011'
p514
sg18
g303
sg20
S'--'
p515
sg22
S'10/09'
p516
sg24
S'--'
p517
sg26
S'--'
p518
sg28
S'--'
p519
sg30
S'W25-14'
p520
sg32
S'--'
p521
sg34
S'--'
p522
sg35
S'@ATL'
p523
sg37
S'--'
p524
sg39
S'--'
p525
sg40
S'--'
p526
ssg284
(dp527
g5
S'--'
p528
sg7
S'--'
p529
sg9
g33
sg11
S'--'
p530
sg13
g10
sg14
S'Andrew Quarless'
p531
sg16
S'2011'
p532
sg18
g284
sg20
S'--'
p533
sg22
S'10/02'
p534
sg24
S'--'
p535
sg26
S'--'
p536
sg28
S'--'
p537
sg30
S'W49-23'
p538
sg32
S'--'
p539
sg34
S'--'
p540
sg35
S'DEN'
p541
sg37
S'--'
p542
sg39
S'--'
p543
sg40
S'--'
p544
ssg94
(dp545
g5
S'--'
p546
sg7
S'--'
p547
sg9
g33
sg11
S'--'
p548
sg13
g10
sg14
S'Andrew Quarless'
p549
sg16
S'2011'
p550
sg18
g94
sg20
S'--'
p551
sg22
S'10/23'
p552
sg24
S'21.0'
p553
sg26
S'--'
p554
sg28
S'--'
p555
sg30
S'W33-27'
p556
sg32
S'21'
p557
sg34
g10
sg35
S'@MIN'
p558
sg37
S'21'
p559
sg39
g33
sg40
S'--'
p560
ssg150
(dp561
g5
S'--'
p562
sg7
S'--'
p563
sg9
g33
sg11
S'--'
p564
sg13
g33
sg14
S'Andrew Quarless'
p565
sg16
S'2011'
p566
sg18
g150
sg20
S'--'
p567
sg22
S'10/16'
p568
sg24
S'--'
p569
sg26
S'--'
p570
sg28
S'--'
p571
sg30
S'W24-3'
p572
sg32
S'--'
p573
sg34
S'--'
p574
sg35
S'STL'
p575
sg37
S'--'
p576
sg39
S'--'
p577
sg40
S'--'
p578
ssg168
(dp579
g5
S'--'
p580
sg7
S'--'
p581
sg9
g10
sg11
S'--'
p582
sg13
g10
sg14
S'Andrew Quarless'
p583
sg16
S'2011'
p584
sg18
g168
sg20
S'--'
p585
sg22
S'11/06'
p586
sg24
S'--'
p587
sg26
S'--'
p588
sg28
S'--'
p589
sg30
S'W45-38'
p590
sg32
S'--'
p591
sg34
S'--'
p592
sg35
S'@SD'
p593
sg37
S'--'
p594
sg39
S'--'
p595
sg40
S'--'
p596
ssg300
(dp597
g5
g368
sg7
g368
sg9
g368
sg11
g368
sg13
g368
sg14
S'Andrew Quarless'
p598
sg16
S'2011'
p599
sg18
g300
sg20
g368
sg22
S'Bye'
p600
sg24
g368
sg26
g368
sg28
g368
sg30
g368
sg32
g368
sg34
g368
sg35
g368
sg37
g368
sg39
g368
sg40
g368
sssS'2010'
p601
(dp602
g116
(dp603
g5
S'--'
p604
sg7
S'--'
p605
sg9
g33
sg11
S'--'
p606
sg13
g10
sg14
S'Andrew Quarless'
p607
sg16
S'2010'
p608
sg18
S'11'
p609
sg20
S'--'
p610
sg22
S'11/21'
p611
sg24
S'14.0'
p612
sg26
S'--'
p613
sg28
S'--'
p614
sg30
S'W31-3'
p615
sg32
S'14'
p616
sg34
g10
sg35
S'@MIN'
p617
sg37
S'14'
p618
sg39
g33
sg40
S'--'
p619
ssg134
(dp620
g5
g368
sg7
g368
sg9
g368
sg11
g368
sg13
g368
sg14
S'Andrew Quarless'
p621
sg16
S'2010'
p622
sg18
S'10'
p623
sg20
g368
sg22
S'Bye'
p624
sg24
g368
sg26
g368
sg28
g368
sg30
g368
sg32
g368
sg34
g368
sg35
g368
sg37
g368
sg39
g368
sg40
g368
ssg152
(dp625
g5
S'--'
p626
sg7
S'--'
p627
sg9
g33
sg11
S'--'
p628
sg13
g10
sg14
S'Andrew Quarless'
p629
sg16
S'2010'
p630
sg18
S'13'
p631
sg20
S'--'
p632
sg22
S'12/05'
p633
sg24
S'4.0'
p634
sg26
S'--'
p635
sg28
S'--'
p636
sg30
S'W34-16'
p637
sg32
g284
sg34
g10
sg35
S'SF'
p638
sg37
g284
sg39
g33
sg40
S'--'
p639
ssg170
(dp640
g5
S'--'
p641
sg7
S'--'
p642
sg9
g10
sg11
S'--'
p643
sg13
g10
sg14
S'Andrew Quarless'
p644
sg16
S'2010'
p645
sg18
S'12'
p646
sg20
S'--'
p647
sg22
S'11/28'
p648
sg24
S'11.7'
p649
sg26
S'--'
p650
sg28
S'--'
p651
sg30
S'L17-20'
p652
sg32
S'35'
p653
sg34
g79
sg35
S'@ATL'
p654
sg37
S'19'
p655
sg39
g33
sg40
S'--'
p656
ssg188
(dp657
g5
S'--'
p658
sg7
S'--'
p659
sg9
g33
sg11
S'--'
p660
sg13
g10
sg14
S'Andrew Quarless'
p661
sg16
S'2010'
p662
sg18
S'15'
p663
sg20
S'--'
p664
sg22
S'12/19'
p665
sg24
S'6.0'
p666
sg26
S'--'
p667
sg28
S'--'
p668
sg30
S'L27-31'
p669
sg32
S'12'
p670
sg34
g57
sg35
S'@NE'
p671
sg37
S'10'
p672
sg39
g33
sg40
S'--'
p673
ssg204
(dp674
g5
S'--'
p675
sg7
S'--'
p676
sg9
g10
sg11
g10
sg13
g10
sg14
S'Andrew Quarless'
p677
sg16
S'2010'
p678
sg18
S'14'
p679
sg20
S'--'
p680
sg22
S'12/12'
p681
sg24
S'12.4'
p682
sg26
g10
sg28
S'--'
p683
sg30
S'L3-7'
p684
sg32
S'62'
p685
sg34
g303
sg35
S'@DET'
p686
sg37
S'20'
p687
sg39
g33
sg40
S'--'
p688
ssg3
(dp689
g5
S'--'
p690
sg7
S'--'
p691
sg9
g33
sg11
S'--'
p692
sg13
g10
sg14
S'Andrew Quarless'
p693
sg16
S'2010'
p694
sg18
S'17'
p695
sg20
S'--'
p696
sg22
S'01/02'
p697
sg24
S'5.0'
p698
sg26
S'--'
p699
sg28
S'--'
p700
sg30
S'W10-3'
p701
sg32
g303
sg34
g10
sg35
S'CHI'
p702
sg37
g303
sg39
g33
sg40
S'--'
p703
ssg42
(dp704
g5
S'--'
p705
sg7
S'--'
p706
sg9
g33
sg11
S'--'
p707
sg13
g10
sg14
S'Andrew Quarless'
p708
sg16
S'2010'
p709
sg18
S'16'
p710
sg20
S'--'
p711
sg22
S'12/26'
p712
sg24
S'16.0'
p713
sg26
S'--'
p714
sg28
S'--'
p715
sg30
S'W45-17'
p716
sg32
S'16'
p717
sg34
g10
sg35
S'NYG'
p718
sg37
S'16'
p719
sg39
g33
sg40
S'--'
p720
ssg10
(dp721
g5
S'--'
p722
sg7
S'--'
p723
sg9
g33
sg11
S'--'
p724
sg13
g33
sg14
S'Andrew Quarless'
p725
sg16
S'2010'
p726
sg18
g10
sg20
S'--'
p727
sg22
S'09/12'
p728
sg24
S'--'
p729
sg26
S'--'
p730
sg28
S'--'
p731
sg30
S'W27-20'
p732
sg32
S'--'
p733
sg34
S'--'
p734
sg35
S'@PHI'
p735
sg37
S'--'
p736
sg39
S'--'
p737
sg40
S'--'
p738
ssg79
(dp739
g5
S'--'
p740
sg7
S'--'
p741
sg9
g33
sg11
S'--'
p742
sg13
g10
sg14
S'Andrew Quarless'
p743
sg16
S'2010'
p744
sg18
g79
sg20
S'--'
p745
sg22
S'09/27'
p746
sg24
S'--'
p747
sg26
S'--'
p748
sg28
S'--'
p749
sg30
S'L17-20'
p750
sg32
g33
sg34
g33
sg35
S'@CHI'
p751
sg37
S'--'
p752
sg39
g33
sg40
S'--'
p753
ssg57
(dp754
g5
S'--'
p755
sg7
S'--'
p756
sg9
g33
sg11
S'--'
p757
sg13
g33
sg14
S'Andrew Quarless'
p758
sg16
S'2010'
p759
sg18
g57
sg20
S'--'
p760
sg22
S'09/19'
p761
sg24
S'--'
p762
sg26
S'--'
p763
sg28
S'--'
p764
sg30
S'W34-7'
p765
sg32
S'--'
p766
sg34
S'--'
p767
sg35
S'BUF'
p768
sg37
S'--'
p769
sg39
S'--'
p770
sg40
S'--'
p771
ssg303
(dp772
g5
S'--'
p773
sg7
S'--'
p774
sg9
g33
sg11
S'--'
p775
sg13
g10
sg14
S'Andrew Quarless'
p776
sg16
S'2010'
p777
sg18
g303
sg20
S'--'
p778
sg22
S'10/10'
p779
sg24
S'12.8'
p780
sg26
S'--'
p781
sg28
S'--'
p782
sg30
S'L13-16'
p783
sg32
S'51'
p784
sg34
g284
sg35
S'@WAS'
p785
sg37
S'21'
p786
sg39
g33
sg40
S'--'
p787
ssg284
(dp788
g5
S'--'
p789
sg7
S'--'
p790
sg9
g10
sg11
S'--'
p791
sg13
g10
sg14
S'Andrew Quarless'
p792
sg16
S'2010'
p793
sg18
g284
sg20
S'--'
p794
sg22
S'10/03'
p795
sg24
S'--'
p796
sg26
S'--'
p797
sg28
S'--'
p798
sg30
S'W28-26'
p799
sg32
S'--'
p800
sg34
S'--'
p801
sg35
S'DET'
p802
sg37
S'--'
p803
sg39
S'--'
p804
sg40
S'--'
p805
ssg94
(dp806
g5
S'--'
p807
sg7
S'--'
p808
sg9
g33
sg11
S'--'
p809
sg13
g10
sg14
S'Andrew Quarless'
p810
sg16
S'2010'
p811
sg18
g94
sg20
S'--'
p812
sg22
S'10/24'
p813
sg24
S'8.0'
p814
sg26
S'--'
p815
sg28
S'--'
p816
sg30
S'W28-24'
p817
sg32
S'16'
p818
sg34
g57
sg35
S'MIN'
p819
sg37
S'9T'
p820
sg39
g10
sg40
S'--'
p821
ssg150
(dp822
g5
S'--'
p823
sg7
S'--'
p824
sg9
g33
sg11
S'--'
p825
sg13
g10
sg14
S'Andrew Quarless'
p826
sg16
S'2010'
p827
sg18
g150
sg20
S'--'
p828
sg22
S'10/17'
p829
sg24
S'23.0'
p830
sg26
S'--'
p831
sg28
S'--'
p832
sg30
S'L20-23'
p833
sg32
S'23'
p834
sg34
g10
sg35
S'MIA'
p835
sg37
S'23'
p836
sg39
g33
sg40
S'--'
p837
ssg168
(dp838
g5
S'--'
p839
sg7
S'--'
p840
sg9
g33
sg11
S'--'
p841
sg13
g33
sg14
S'Andrew Quarless'
p842
sg16
S'2010'
p843
sg18
g168
sg20
S'--'
p844
sg22
S'11/07'
p845
sg24
S'--'
p846
sg26
S'--'
p847
sg28
S'--'
p848
sg30
S'W45-7'
p849
sg32
S'--'
p850
sg34
S'--'
p851
sg35
S'DAL'
p852
sg37
S'--'
p853
sg39
S'--'
p854
sg40
S'--'
p855
ssg300
(dp856
g5
S'--'
p857
sg7
S'--'
p858
sg9
g33
sg11
S'--'
p859
sg13
g10
sg14
S'Andrew Quarless'
p860
sg16
S'2010'
p861
sg18
g300
sg20
S'--'
p862
sg22
S'10/31'
p863
sg24
S'--'
p864
sg26
S'--'
p865
sg28
S'--'
p866
sg30
S'W9-0'
p867
sg32
g33
sg34
g33
sg35
S'@NYJ'
p868
sg37
S'--'
p869
sg39
g33
sg40
S'--'
p870
sssS'2013'
p871
(dp872
g116
(dp873
g5
S'--'
p874
sg7
S'--'
p875
sg9
g10
sg11
S'--'
p876
sg13
g10
sg14
S'Andrew Quarless'
p877
sg16
S'2013'
p878
sg18
S'11'
p879
sg20
S'--'
p880
sg22
S'11/17'
p881
sg24
S'9.0'
p882
sg26
S'--'
p883
sg28
S'--'
p884
sg30
S'L13-27'
p885
sg32
S'18'
p886
sg34
g57
sg35
S'@NYG'
p887
sg37
S'19'
p888
sg39
g33
sg40
S'--'
p889
ssg134
(dp890
g5
S'--'
p891
sg7
S'--'
p892
sg9
g33
sg11
S'--'
p893
sg13
g10
sg14
S'Andrew Quarless'
p894
sg16
S'2013'
p895
sg18
S'10'
p896
sg20
S'--'
p897
sg22
S'11/10'
p898
sg24
S'8.0'
p899
sg26
S'--'
p900
sg28
S'--'
p901
sg30
S'L13-27'
p902
sg32
g300
sg34
g10
sg35
S'PHI'
p903
sg37
g300
sg39
g33
sg40
S'--'
p904
ssg152
(dp905
g5
S'--'
p906
sg7
S'--'
p907
sg9
g33
sg11
S'--'
p908
sg13
g10
sg14
S'Andrew Quarless'
p909
sg16
S'2013'
p910
sg18
S'13'
p911
sg20
S'--'
p912
sg22
S'11/28'
p913
sg24
S'7.0'
p914
sg26
S'--'
p915
sg28
S'--'
p916
sg30
S'L10-40'
p917
sg32
g94
sg34
g10
sg35
S'@DET'
p918
sg37
g94
sg39
g33
sg40
S'--'
p919
ssg170
(dp920
g5
S'--'
p921
sg7
S'--'
p922
sg9
g10
sg11
S'--'
p923
sg13
g10
sg14
S'Andrew Quarless'
p924
sg16
S'2013'
p925
sg18
S'12'
p926
sg20
S'--'
p927
sg22
S'11/24'
p928
sg24
S'11.0'
p929
sg26
S'--'
p930
sg28
S'--'
p931
sg30
S'T26-26'
p932
sg32
S'22'
p933
sg34
g57
sg35
S'MIN'
p934
sg37
S'13'
p935
sg39
g33
sg40
S'--'
p936
ssg188
(dp937
g5
S'--'
p938
sg7
S'--'
p939
sg9
g10
sg11
S'--'
p940
sg13
g10
sg14
S'Andrew Quarless'
p941
sg16
S'2013'
p942
sg18
S'15'
p943
sg20
S'--'
p944
sg22
S'12/15'
p945
sg24
S'11.0'
p946
sg26
S'--'
p947
sg28
S'--'
p948
sg30
S'W37-36'
p949
sg32
S'66'
p950
sg34
g150
sg35
S'@DAL'
p951
sg37
S'22'
p952
sg39
g10
sg40
S'--'
p953
ssg204
(dp954
g5
S'--'
p955
sg7
S'--'
p956
sg9
g10
sg11
S'--'
p957
sg13
g10
sg14
S'Andrew Quarless'
p958
sg16
S'2013'
p959
sg18
S'14'
p960
sg20
S'--'
p961
sg22
S'12/08'
p962
sg24
S'11.0'
p963
sg26
S'--'
p964
sg28
S'--'
p965
sg30
S'W22-21'
p966
sg32
S'66'
p967
sg34
g150
sg35
S'ATL'
p968
sg37
S'21'
p969
sg39
g10
sg40
S'--'
p970
ssg3
(dp971
g5
S'--'
p972
sg7
S'--'
p973
sg9
g10
sg11
S'--'
p974
sg13
g10
sg14
S'Andrew Quarless'
p975
sg16
S'2013'
p976
sg18
S'17'
p977
sg20
S'--'
p978
sg22
S'12/29'
p979
sg24
S'15.5'
p980
sg26
S'--'
p981
sg28
S'--'
p982
sg30
S'W33-28'
p983
sg32
S'31'
p984
sg34
g57
sg35
S'@CHI'
p985
sg37
S'22'
p986
sg39
g33
sg40
S'--'
p987
ssg42
(dp988
g5
S'--'
p989
sg7
S'--'
p990
sg9
g10
sg11
S'--'
p991
sg13
g10
sg14
S'Andrew Quarless'
p992
sg16
S'2013'
p993
sg18
S'16'
p994
sg20
S'--'
p995
sg22
S'12/22'
p996
sg24
S'19.0'
p997
sg26
S'--'
p998
sg28
S'--'
p999
sg30
S'L31-38'
p1000
sg32
S'19'
p1001
sg34
g10
sg35
S'PIT'
p1002
sg37
S'19'
p1003
sg39
g33
sg40
S'--'
p1004
ssg10
(dp1005
g5
S'--'
p1006
sg7
S'--'
p1007
sg9
g33
sg11
S'--'
p1008
sg13
g10
sg14
S'Andrew Quarless'
p1009
sg16
S'2013'
p1010
sg18
g10
sg20
S'--'
p1011
sg22
S'09/08'
p1012
sg24
S'--'
p1013
sg26
S'--'
p1014
sg28
S'--'
p1015
sg30
S'L28-34'
p1016
sg32
S'--'
p1017
sg34
S'--'
p1018
sg35
S'@SF'
p1019
sg37
S'--'
p1020
sg39
S'--'
p1021
sg40
S'--'
p1022
ssg79
(dp1023
g5
S'--'
p1024
sg7
S'--'
p1025
sg9
g33
sg11
S'--'
p1026
sg13
g10
sg14
S'Andrew Quarless'
p1027
sg16
S'2013'
p1028
sg18
g79
sg20
S'--'
p1029
sg22
S'09/22'
p1030
sg24
S'7.0'
p1031
sg26
S'--'
p1032
sg28
S'--'
p1033
sg30
S'L30-34'
p1034
sg32
S'21'
p1035
sg34
g79
sg35
S'@CIN'
p1036
sg37
S'10'
p1037
sg39
g33
sg40
S'--'
p1038
ssg57
(dp1039
g5
S'--'
p1040
sg7
S'--'
p1041
sg9
g10
sg11
S'--'
p1042
sg13
g10
sg14
S'Andrew Quarless'
p1043
sg16
S'2013'
p1044
sg18
g57
sg20
S'--'
p1045
sg22
S'09/15'
p1046
sg24
S'7.0'
p1047
sg26
S'--'
p1048
sg28
S'--'
p1049
sg30
S'W38-20'
p1050
sg32
g94
sg34
g10
sg35
S'WAS'
p1051
sg37
g94
sg39
g33
sg40
S'--'
p1052
ssg303
(dp1053
g5
S'--'
p1054
sg7
S'--'
p1055
sg9
g33
sg11
S'--'
p1056
sg13
g10
sg14
S'Andrew Quarless'
p1057
sg16
S'2013'
p1058
sg18
g303
sg20
S'--'
p1059
sg22
S'10/06'
p1060
sg24
S'--'
p1061
sg26
S'--'
p1062
sg28
S'--'
p1063
sg30
S'W22-9'
p1064
sg32
S'--'
p1065
sg34
S'--'
p1066
sg35
S'DET'
p1067
sg37
S'--'
p1068
sg39
S'--'
p1069
sg40
S'--'
p1070
ssg284
(dp1071
g5
g368
sg7
g368
sg9
g368
sg11
g368
sg13
g368
sg14
S'Andrew Quarless'
p1072
sg16
S'2013'
p1073
sg18
g284
sg20
g368
sg22
S'Bye'
p1074
sg24
g368
sg26
g368
sg28
g368
sg30
g368
sg32
g368
sg34
g368
sg35
g368
sg37
g368
sg39
g368
sg40
g368
ssg94
(dp1075
g5
S'--'
p1076
sg7
S'--'
p1077
sg9
g10
sg11
S'--'
p1078
sg13
g10
sg14
S'Andrew Quarless'
p1079
sg16
S'2013'
p1080
sg18
g94
sg20
S'--'
p1081
sg22
S'10/20'
p1082
sg24
S'--'
p1083
sg26
S'--'
p1084
sg28
S'--'
p1085
sg30
S'W31-13'
p1086
sg32
g33
sg34
g33
sg35
S'CLE'
p1087
sg37
S'--'
p1088
sg39
g33
sg40
S'--'
p1089
ssg150
(dp1090
g5
S'--'
p1091
sg7
S'--'
p1092
sg9
g33
sg11
S'--'
p1093
sg13
g10
sg14
S'Andrew Quarless'
p1094
sg16
S'2013'
p1095
sg18
g150
sg20
S'--'
p1096
sg22
S'10/13'
p1097
sg24
S'--'
p1098
sg26
S'--'
p1099
sg28
S'--'
p1100
sg30
S'W19-17'
p1101
sg32
S'--'
p1102
sg34
S'--'
p1103
sg35
S'@BAL'
p1104
sg37
S'--'
p1105
sg39
S'--'
p1106
sg40
S'--'
p1107
ssg168
(dp1108
g5
S'--'
p1109
sg7
S'--'
p1110
sg9
g10
sg11
S'--'
p1111
sg13
g10
sg14
S'Andrew Quarless'
p1112
sg16
S'2013'
p1113
sg18
g168
sg20
S'--'
p1114
sg22
S'11/04'
p1115
sg24
S'6.8'
p1116
sg26
S'--'
p1117
sg28
S'--'
p1118
sg30
S'L20-27'
p1119
sg32
S'34'
p1120
sg34
g303
sg35
S'CHI'
p1121
sg37
S'12'
p1122
sg39
g33
sg40
S'--'
p1123
ssg300
(dp1124
g5
S'--'
p1125
sg7
S'--'
p1126
sg9
g10
sg11
S'--'
p1127
sg13
g10
sg14
S'Andrew Quarless'
p1128
sg16
S'2013'
p1129
sg18
g300
sg20
S'--'
p1130
sg22
S'10/27'
p1131
sg24
S'6.5'
p1132
sg26
S'--'
p1133
sg28
S'--'
p1134
sg30
S'W44-31'
p1135
sg32
S'13'
p1136
sg34
g57
sg35
S'@MIN'
p1137
sg37
g300
sg39
g33
sg40
S'--'
p1138
sssS'2012'
p1139
(dp1140
g116
(dp1141
g5
S'--'
p1142
sg7
S'--'
p1143
sg9
g33
sg11
S'--'
p1144
sg13
g33
sg14
S'Andrew Quarless'
p1145
sg16
S'2012'
p1146
sg18
S'11'
p1147
sg20
S'--'
p1148
sg22
S'11/18'
p1149
sg24
S'--'
p1150
sg26
S'--'
p1151
sg28
S'--'
p1152
sg30
S'W24-20'
p1153
sg32
S'--'
p1154
sg34
S'--'
p1155
sg35
S'@DET'
p1156
sg37
S'--'
p1157
sg39
S'--'
p1158
sg40
S'--'
p1159
ssg134
(dp1160
g5
g368
sg7
g368
sg9
g368
sg11
g368
sg13
g368
sg14
S'Andrew Quarless'
p1161
sg16
S'2012'
p1162
sg18
S'10'
p1163
sg20
g368
sg22
S'Bye'
p1164
sg24
g368
sg26
g368
sg28
g368
sg30
g368
sg32
g368
sg34
g368
sg35
g368
sg37
g368
sg39
g368
sg40
g368
ssg170
(dp1165
g5
S'--'
p1166
sg7
S'--'
p1167
sg9
g33
sg11
S'--'
p1168
sg13
g33
sg14
S'Andrew Quarless'
p1169
sg16
S'2012'
p1170
sg18
S'12'
p1171
sg20
S'--'
p1172
sg22
S'11/25'
p1173
sg24
S'--'
p1174
sg26
S'--'
p1175
sg28
S'--'
p1176
sg30
S'L10-38'
p1177
sg32
S'--'
p1178
sg34
S'--'
p1179
sg35
S'@NYG'
p1180
sg37
S'--'
p1181
sg39
S'--'
p1182
sg40
S'--'
p1183
sss.