(dp0
S'2015'
p1
(dp2
S'13'
p3
(dp4
S'RushTD'
p5
S'--'
p6
sS'RushYds'
p7
S'--'
p8
sS'GS'
p9
S'0'
p10
sS'Lost'
p11
S'--'
p12
sS'G'
p13
S'1'
p14
sS'Player'
p15
S'Asante Cleveland'
p16
sS'Year'
p17
S'2015'
p18
sS'WK'
p19
S'13'
p20
sS'RushAvg'
p21
S'--'
p22
sS'Game Date'
p23
S'12/06'
p24
sS'RecAvg'
p25
S'--'
p26
sS'FUM'
p27
S'--'
p28
sS'RushAtt'
p29
S'--'
p30
sS'Result'
p31
S'L28-35'
p32
sS'RecYds'
p33
S'--'
p34
sS'Rec'
p35
S'--'
p36
sS'Opp'
p37
S'PHI'
p38
sS'RecLng'
p39
S'--'
p40
sS'RecTD'
p41
S'--'
p42
sS'RushLng'
p43
S'--'
p44
ssS'12'
p45
(dp46
g5
S'--'
p47
sg7
S'--'
p48
sg9
g10
sg11
S'--'
p49
sg13
g14
sg15
S'Asante Cleveland'
p50
sg17
S'2015'
p51
sg19
S'12'
p52
sg21
S'--'
p53
sg23
S'11/29'
p54
sg25
S'1.0'
p55
sg27
S'--'
p56
sg29
S'--'
p57
sg31
S'L24-30'
p58
sg33
g14
sg35
g14
sg37
S'@DEN'
p59
sg39
g14
sg41
g10
sg43
S'--'
p60
ssS'15'
p61
(dp62
g5
S'--'
p63
sg7
S'--'
p64
sg9
g10
sg11
S'--'
p65
sg13
g14
sg15
S'Asante Cleveland'
p66
sg17
S'2015'
p67
sg19
S'15'
p68
sg21
S'--'
p69
sg23
S'12/20'
p70
sg25
S'--'
p71
sg27
S'--'
p72
sg29
S'--'
p73
sg31
S'W33-16'
p74
sg33
S'--'
p75
sg35
S'--'
p76
sg37
S'TEN'
p77
sg39
S'--'
p78
sg41
S'--'
p79
sg43
S'--'
p80
ssS'14'
p81
(dp82
g5
S'--'
p83
sg7
S'--'
p84
sg9
g14
sg11
S'--'
p85
sg13
g14
sg15
S'Asante Cleveland'
p86
sg17
S'2015'
p87
sg19
S'14'
p88
sg21
S'--'
p89
sg23
S'12/13'
p90
sg25
S'--'
p91
sg27
S'--'
p92
sg29
S'--'
p93
sg31
S'W27-6'
p94
sg33
S'--'
p95
sg35
S'--'
p96
sg37
S'@HOU'
p97
sg39
S'--'
p98
sg41
S'--'
p99
sg43
S'--'
p100
ssS'17'
p101
(dp102
g5
S'--'
p103
sg7
S'--'
p104
sg9
g10
sg11
S'--'
p105
sg13
g10
sg15
S'Asante Cleveland'
p106
sg17
S'2015'
p107
sg19
S'17'
p108
sg21
S'--'
p109
sg23
S'01/03'
p110
sg25
S'--'
p111
sg27
S'--'
p112
sg29
S'--'
p113
sg31
S'L20-27'
p114
sg33
S'--'
p115
sg35
S'--'
p116
sg37
S'@DEN'
p117
sg39
S'--'
p118
sg41
S'--'
p119
sg43
S'--'
p120
sssS'2014'
p121
(dp122
g3
(dp123
g5
S'--'
p124
sg7
S'--'
p125
sg9
g10
sg11
S'--'
p126
sg13
g14
sg15
S'Asante Cleveland'
p127
sg17
S'2014'
p128
sg19
S'13'
p129
sg21
S'--'
p130
sg23
S'11/27'
p131
sg25
S'--'
p132
sg27
S'--'
p133
sg29
S'--'
p134
sg31
S'L3-19'
p135
sg33
S'--'
p136
sg35
S'--'
p137
sg37
S'SEA'
p138
sg39
S'--'
p139
sg41
S'--'
p140
sg43
S'--'
p141
ssg61
(dp142
g5
S'--'
p143
sg7
S'--'
p144
sg9
g10
sg11
S'--'
p145
sg13
g14
sg15
S'Asante Cleveland'
p146
sg17
S'2014'
p147
sg19
S'15'
p148
sg21
S'--'
p149
sg23
S'12/14'
p150
sg25
S'--'
p151
sg27
S'--'
p152
sg29
S'--'
p153
sg31
S'L7-17'
p154
sg33
g10
sg35
g10
sg37
S'@SEA'
p155
sg39
S'--'
p156
sg41
g10
sg43
S'--'
p157
ssg81
(dp158
g5
S'--'
p159
sg7
S'--'
p160
sg9
g10
sg11
S'--'
p161
sg13
g14
sg15
S'Asante Cleveland'
p162
sg17
S'2014'
p163
sg19
S'14'
p164
sg21
S'--'
p165
sg23
S'12/07'
p166
sg25
S'--'
p167
sg27
S'--'
p168
sg29
S'--'
p169
sg31
S'L13-24'
p170
sg33
S'--'
p171
sg35
S'--'
p172
sg37
S'@OAK'
p173
sg39
S'--'
p174
sg41
S'--'
p175
sg43
S'--'
p176
ssg101
(dp177
g5
S'--'
p178
sg7
S'--'
p179
sg9
g10
sg11
S'--'
p180
sg13
g14
sg15
S'Asante Cleveland'
p181
sg17
S'2014'
p182
sg19
S'17'
p183
sg21
S'--'
p184
sg23
S'12/28'
p185
sg25
S'--'
p186
sg27
S'--'
p187
sg29
S'--'
p188
sg31
S'W20-17'
p189
sg33
S'--'
p190
sg35
S'--'
p191
sg37
S'ARI'
p192
sg39
S'--'
p193
sg41
S'--'
p194
sg43
S'--'
p195
ssS'16'
p196
(dp197
g5
S'--'
p198
sg7
S'--'
p199
sg9
g10
sg11
S'--'
p200
sg13
g14
sg15
S'Asante Cleveland'
p201
sg17
S'2014'
p202
sg19
S'16'
p203
sg21
S'--'
p204
sg23
S'12/20'
p205
sg25
S'--'
p206
sg27
S'--'
p207
sg29
S'--'
p208
sg31
S'L35-38'
p209
sg33
S'--'
p210
sg35
S'--'
p211
sg37
S'SD'
p212
sg39
S'--'
p213
sg41
S'--'
p214
sg43
S'--'
p215
ssS'3'
p216
(dp217
g5
S'--'
p218
sg7
S'--'
p219
sg9
g10
sg11
S'--'
p220
sg13
g14
sg15
S'Asante Cleveland'
p221
sg17
S'2014'
p222
sg19
g216
sg21
S'--'
p223
sg23
S'09/21'
p224
sg25
S'--'
p225
sg27
S'--'
p226
sg29
S'--'
p227
sg31
S'L14-23'
p228
sg33
S'--'
p229
sg35
S'--'
p230
sg37
S'@ARI'
p231
sg39
S'--'
p232
sg41
S'--'
p233
sg43
S'--'
p234
sss.