(dp0
S'2015'
p1
(dp2
S'11'
p3
(dp4
S'RushTD'
p5
S'--'
p6
sS'RushYds'
p7
S'--'
p8
sS'GS'
p9
S'0'
p10
sS'Lost'
p11
S'--'
p12
sS'G'
p13
g10
sS'Player'
p14
S'Austin Seferian-Jenkins'
p15
sS'Year'
p16
S'2015'
p17
sS'WK'
p18
S'11'
p19
sS'RushAvg'
p20
S'--'
p21
sS'Game Date'
p22
S'11/22'
p23
sS'RecAvg'
p24
S'--'
p25
sS'FUM'
p26
S'--'
p27
sS'RushAtt'
p28
S'--'
p29
sS'Result'
p30
S'W45-17'
p31
sS'RecYds'
p32
S'--'
p33
sS'Rec'
p34
S'--'
p35
sS'Opp'
p36
S'@PHI'
p37
sS'RecLng'
p38
S'--'
p39
sS'RecTD'
p40
S'--'
p41
sS'RushLng'
p42
S'--'
p43
ssS'10'
p44
(dp45
g5
S'--'
p46
sg7
S'--'
p47
sg9
g10
sg11
S'--'
p48
sg13
g10
sg14
S'Austin Seferian-Jenkins'
p49
sg16
S'2015'
p50
sg18
S'10'
p51
sg20
S'--'
p52
sg22
S'11/15'
p53
sg24
S'--'
p54
sg26
S'--'
p55
sg28
S'--'
p56
sg30
S'W10-6'
p57
sg32
S'--'
p58
sg34
S'--'
p59
sg36
S'DAL'
p60
sg38
S'--'
p61
sg40
S'--'
p62
sg42
S'--'
p63
ssS'13'
p64
(dp65
g5
S'--'
p66
sg7
S'--'
p67
sg9
g10
sg11
S'--'
p68
sg13
S'1'
p69
sg14
S'Austin Seferian-Jenkins'
p70
sg16
S'2015'
p71
sg18
S'13'
p72
sg20
S'--'
p73
sg22
S'12/06'
p74
sg24
S'10.3'
p75
sg26
S'--'
p76
sg28
S'--'
p77
sg30
S'W23-19'
p78
sg32
S'31'
p79
sg34
S'3'
p80
sg36
S'ATL'
p81
sg38
S'15'
p82
sg40
g10
sg42
S'--'
p83
ssS'12'
p84
(dp85
g5
S'--'
p86
sg7
S'--'
p87
sg9
g10
sg11
S'--'
p88
sg13
g10
sg14
S'Austin Seferian-Jenkins'
p89
sg16
S'2015'
p90
sg18
S'12'
p91
sg20
S'--'
p92
sg22
S'11/29'
p93
sg24
S'--'
p94
sg26
S'--'
p95
sg28
S'--'
p96
sg30
S'L12-25'
p97
sg32
S'--'
p98
sg34
S'--'
p99
sg36
S'@IND'
p100
sg38
S'--'
p101
sg40
S'--'
p102
sg42
S'--'
p103
ssS'15'
p104
(dp105
g5
S'--'
p106
sg7
S'--'
p107
sg9
g10
sg11
S'--'
p108
sg13
g69
sg14
S'Austin Seferian-Jenkins'
p109
sg16
S'2015'
p110
sg18
S'15'
p111
sg20
S'--'
p112
sg22
S'12/17'
p113
sg24
S'9.7'
p114
sg26
S'--'
p115
sg28
S'--'
p116
sg30
S'L23-31'
p117
sg32
S'29'
p118
sg34
g80
sg36
S'@STL'
p119
sg38
S'13'
p120
sg40
g69
sg42
S'--'
p121
ssS'14'
p122
(dp123
g5
S'--'
p124
sg7
S'--'
p125
sg9
g10
sg11
S'--'
p126
sg13
g69
sg14
S'Austin Seferian-Jenkins'
p127
sg16
S'2015'
p128
sg18
S'14'
p129
sg20
S'--'
p130
sg22
S'12/13'
p131
sg24
S'10.3'
p132
sg26
S'--'
p133
sg28
S'--'
p134
sg30
S'L17-24'
p135
sg32
S'31'
p136
sg34
g80
sg36
S'NO'
p137
sg38
S'13'
p138
sg40
g10
sg42
S'--'
p139
ssS'17'
p140
(dp141
g5
S'--'
p142
sg7
S'--'
p143
sg9
g10
sg11
S'--'
p144
sg13
g69
sg14
S'Austin Seferian-Jenkins'
p145
sg16
S'2015'
p146
sg18
S'17'
p147
sg20
S'--'
p148
sg22
S'01/03'
p149
sg24
S'16.0'
p150
sg26
S'--'
p151
sg28
S'--'
p152
sg30
S'L10-38'
p153
sg32
S'48'
p154
sg34
g80
sg36
S'@CAR'
p155
sg38
S'21'
p156
sg40
g10
sg42
S'--'
p157
ssS'16'
p158
(dp159
g5
S'--'
p160
sg7
S'--'
p161
sg9
g69
sg11
S'--'
p162
sg13
g69
sg14
S'Austin Seferian-Jenkins'
p163
sg16
S'2015'
p164
sg18
S'16'
p165
sg20
S'--'
p166
sg22
S'12/27'
p167
sg24
S'30.0'
p168
sg26
S'--'
p169
sg28
S'--'
p170
sg30
S'L21-26'
p171
sg32
S'60'
p172
sg34
S'2'
p173
sg36
S'CHI'
p174
sg38
S'43T'
p175
sg40
g69
sg42
S'--'
p176
ssg69
(dp177
g5
S'--'
p178
sg7
S'--'
p179
sg9
g69
sg11
S'--'
p180
sg13
g69
sg14
S'Austin Seferian-Jenkins'
p181
sg16
S'2015'
p182
sg18
g69
sg20
S'--'
p183
sg22
S'09/13'
p184
sg24
S'22.0'
p185
sg26
S'--'
p186
sg28
S'--'
p187
sg30
S'L14-42'
p188
sg32
S'110'
p189
sg34
S'5'
p190
sg36
S'TEN'
p191
sg38
S'41T'
p192
sg40
g173
sg42
S'--'
p193
ssg80
(dp194
g5
S'--'
p195
sg7
S'--'
p196
sg9
g10
sg11
S'--'
p197
sg13
g10
sg14
S'Austin Seferian-Jenkins'
p198
sg16
S'2015'
p199
sg18
g80
sg20
S'--'
p200
sg22
S'09/27'
p201
sg24
S'--'
p202
sg26
S'--'
p203
sg28
S'--'
p204
sg30
S'L9-19'
p205
sg32
S'--'
p206
sg34
S'--'
p207
sg36
S'@HOU'
p208
sg38
S'--'
p209
sg40
S'--'
p210
sg42
S'--'
p211
ssg173
(dp212
g5
S'--'
p213
sg7
S'--'
p214
sg9
g69
sg11
S'--'
p215
sg13
g69
sg14
S'Austin Seferian-Jenkins'
p216
sg16
S'2015'
p217
sg18
g173
sg20
S'--'
p218
sg22
S'09/20'
p219
sg24
S'14.5'
p220
sg26
S'--'
p221
sg28
S'--'
p222
sg30
S'W26-19'
p223
sg32
S'29'
p224
sg34
g173
sg36
S'@NO'
p225
sg38
S'21'
p226
sg40
g10
sg42
S'--'
p227
ssg190
(dp228
g5
S'--'
p229
sg7
S'--'
p230
sg9
g10
sg11
S'--'
p231
sg13
g10
sg14
S'Austin Seferian-Jenkins'
p232
sg16
S'2015'
p233
sg18
g190
sg20
S'--'
p234
sg22
S'10/11'
p235
sg24
S'--'
p236
sg26
S'--'
p237
sg28
S'--'
p238
sg30
S'W38-31'
p239
sg32
S'--'
p240
sg34
S'--'
p241
sg36
S'JAC'
p242
sg38
S'--'
p243
sg40
S'--'
p244
sg42
S'--'
p245
ssS'4'
p246
(dp247
g5
S'--'
p248
sg7
S'--'
p249
sg9
g10
sg11
S'--'
p250
sg13
g10
sg14
S'Austin Seferian-Jenkins'
p251
sg16
S'2015'
p252
sg18
g246
sg20
S'--'
p253
sg22
S'10/04'
p254
sg24
S'--'
p255
sg26
S'--'
p256
sg28
S'--'
p257
sg30
S'L23-37'
p258
sg32
S'--'
p259
sg34
S'--'
p260
sg36
S'CAR'
p261
sg38
S'--'
p262
sg40
S'--'
p263
sg42
S'--'
p264
ssS'7'
p265
(dp266
g5
S'--'
p267
sg7
S'--'
p268
sg9
g10
sg11
S'--'
p269
sg13
g10
sg14
S'Austin Seferian-Jenkins'
p270
sg16
S'2015'
p271
sg18
g265
sg20
S'--'
p272
sg22
S'10/25'
p273
sg24
S'--'
p274
sg26
S'--'
p275
sg28
S'--'
p276
sg30
S'L30-31'
p277
sg32
S'--'
p278
sg34
S'--'
p279
sg36
S'@WAS'
p280
sg38
S'--'
p281
sg40
S'--'
p282
sg42
S'--'
p283
ssS'6'
p284
(dp285
g5
S''
p286
sg7
g286
sg9
g286
sg11
g286
sg13
g286
sg14
S'Austin Seferian-Jenkins'
p287
sg16
S'2015'
p288
sg18
g284
sg20
g286
sg22
S'Bye'
p289
sg24
g286
sg26
g286
sg28
g286
sg30
g286
sg32
g286
sg34
g286
sg36
g286
sg38
g286
sg40
g286
sg42
g286
ssS'9'
p290
(dp291
g5
S'--'
p292
sg7
S'--'
p293
sg9
g10
sg11
S'--'
p294
sg13
g10
sg14
S'Austin Seferian-Jenkins'
p295
sg16
S'2015'
p296
sg18
g290
sg20
S'--'
p297
sg22
S'11/08'
p298
sg24
S'--'
p299
sg26
S'--'
p300
sg28
S'--'
p301
sg30
S'L18-32'
p302
sg32
S'--'
p303
sg34
S'--'
p304
sg36
S'NYG'
p305
sg38
S'--'
p306
sg40
S'--'
p307
sg42
S'--'
p308
ssS'8'
p309
(dp310
g5
S'--'
p311
sg7
S'--'
p312
sg9
g10
sg11
S'--'
p313
sg13
g10
sg14
S'Austin Seferian-Jenkins'
p314
sg16
S'2015'
p315
sg18
g309
sg20
S'--'
p316
sg22
S'11/01'
p317
sg24
S'--'
p318
sg26
S'--'
p319
sg28
S'--'
p320
sg30
S'W23-20'
p321
sg32
S'--'
p322
sg34
S'--'
p323
sg36
S'@ATL'
p324
sg38
S'--'
p325
sg40
S'--'
p326
sg42
S'--'
p327
sssS'2014'
p328
(dp329
g3
(dp330
g5
S'--'
p331
sg7
S'--'
p332
sg9
g69
sg11
S'--'
p333
sg13
g69
sg14
S'Austin Seferian-Jenkins'
p334
sg16
S'2014'
p335
sg18
S'11'
p336
sg20
S'--'
p337
sg22
S'11/16'
p338
sg24
S'7.0'
p339
sg26
S'--'
p340
sg28
S'--'
p341
sg30
S'W27-7'
p342
sg32
g265
sg34
g69
sg36
S'@WAS'
p343
sg38
g265
sg40
g10
sg42
S'--'
p344
ssg44
(dp345
g5
S'--'
p346
sg7
S'--'
p347
sg9
g69
sg11
S'--'
p348
sg13
g69
sg14
S'Austin Seferian-Jenkins'
p349
sg16
S'2014'
p350
sg18
S'10'
p351
sg20
S'--'
p352
sg22
S'11/09'
p353
sg24
S'6.0'
p354
sg26
S'--'
p355
sg28
S'--'
p356
sg30
S'L17-27'
p357
sg32
S'30'
p358
sg34
g190
sg36
S'ATL'
p359
sg38
S'13'
p360
sg40
g69
sg42
S'--'
p361
ssg64
(dp362
g5
S'--'
p363
sg7
S'--'
p364
sg9
g10
sg11
S'--'
p365
sg13
g10
sg14
S'Austin Seferian-Jenkins'
p366
sg16
S'2014'
p367
sg18
S'13'
p368
sg20
S'--'
p369
sg22
S'11/30'
p370
sg24
S'--'
p371
sg26
S'--'
p372
sg28
S'--'
p373
sg30
S'L13-14'
p374
sg32
S'--'
p375
sg34
S'--'
p376
sg36
S'CIN'
p377
sg38
S'--'
p378
sg40
S'--'
p379
sg42
S'--'
p380
ssg84
(dp381
g5
S'--'
p382
sg7
S'--'
p383
sg9
g69
sg11
S'--'
p384
sg13
g69
sg14
S'Austin Seferian-Jenkins'
p385
sg16
S'2014'
p386
sg18
S'12'
p387
sg20
S'--'
p388
sg22
S'11/23'
p389
sg24
S'8.0'
p390
sg26
S'--'
p391
sg28
S'--'
p392
sg30
S'L13-21'
p393
sg32
S'16'
p394
sg34
g173
sg36
S'@CHI'
p395
sg38
S'11'
p396
sg40
g10
sg42
S'--'
p397
ssg104
(dp398
g5
S'--'
p399
sg7
S'--'
p400
sg9
g10
sg11
S'--'
p401
sg13
g10
sg14
S'Austin Seferian-Jenkins'
p402
sg16
S'2014'
p403
sg18
S'15'
p404
sg20
S'--'
p405
sg22
S'12/14'
p406
sg24
S'--'
p407
sg26
S'--'
p408
sg28
S'--'
p409
sg30
S'L17-19'
p410
sg32
S'--'
p411
sg34
S'--'
p412
sg36
S'@CAR'
p413
sg38
S'--'
p414
sg40
S'--'
p415
sg42
S'--'
p416
ssg122
(dp417
g5
S'--'
p418
sg7
S'--'
p419
sg9
g10
sg11
S'--'
p420
sg13
g10
sg14
S'Austin Seferian-Jenkins'
p421
sg16
S'2014'
p422
sg18
S'14'
p423
sg20
S'--'
p424
sg22
S'12/07'
p425
sg24
S'--'
p426
sg26
S'--'
p427
sg28
S'--'
p428
sg30
S'L17-34'
p429
sg32
S'--'
p430
sg34
S'--'
p431
sg36
S'@DET'
p432
sg38
S'--'
p433
sg40
S'--'
p434
sg42
S'--'
p435
ssg69
(dp436
g5
S'--'
p437
sg7
S'--'
p438
sg9
g69
sg11
S'--'
p439
sg13
g69
sg14
S'Austin Seferian-Jenkins'
p440
sg16
S'2014'
p441
sg18
g69
sg20
S'--'
p442
sg22
S'09/07'
p443
sg24
S'26.0'
p444
sg26
S'--'
p445
sg28
S'--'
p446
sg30
S'L14-20'
p447
sg32
S'26'
p448
sg34
g69
sg36
S'CAR'
p449
sg38
S'26'
p450
sg40
g10
sg42
S'--'
p451
ssg80
(dp452
g5
S'--'
p453
sg7
S'--'
p454
sg9
g10
sg11
S'--'
p455
sg13
g10
sg14
S'Austin Seferian-Jenkins'
p456
sg16
S'2014'
p457
sg18
g80
sg20
S'--'
p458
sg22
S'09/18'
p459
sg24
S'--'
p460
sg26
S'--'
p461
sg28
S'--'
p462
sg30
S'L14-56'
p463
sg32
S'--'
p464
sg34
S'--'
p465
sg36
S'@ATL'
p466
sg38
S'--'
p467
sg40
S'--'
p468
sg42
S'--'
p469
ssg173
(dp470
g5
S'--'
p471
sg7
S'--'
p472
sg9
g10
sg11
S'--'
p473
sg13
g10
sg14
S'Austin Seferian-Jenkins'
p474
sg16
S'2014'
p475
sg18
g173
sg20
S'--'
p476
sg22
S'09/14'
p477
sg24
S'--'
p478
sg26
S'--'
p479
sg28
S'--'
p480
sg30
S'L17-19'
p481
sg32
S'--'
p482
sg34
S'--'
p483
sg36
S'STL'
p484
sg38
S'--'
p485
sg40
S'--'
p486
sg42
S'--'
p487
ssg190
(dp488
g5
S'--'
p489
sg7
S'--'
p490
sg9
g69
sg11
S'--'
p491
sg13
g69
sg14
S'Austin Seferian-Jenkins'
p492
sg16
S'2014'
p493
sg18
g190
sg20
S'--'
p494
sg22
S'10/05'
p495
sg24
S'11.0'
p496
sg26
S'--'
p497
sg28
S'--'
p498
sg30
S'L31-37'
p499
sg32
S'11'
p500
sg34
g69
sg36
S'@NO'
p501
sg38
S'11'
p502
sg40
g10
sg42
S'--'
p503
ssg246
(dp504
g5
S'--'
p505
sg7
S'--'
p506
sg9
g69
sg11
S'--'
p507
sg13
g69
sg14
S'Austin Seferian-Jenkins'
p508
sg16
S'2014'
p509
sg18
g246
sg20
S'--'
p510
sg22
S'09/28'
p511
sg24
S'14.7'
p512
sg26
S'--'
p513
sg28
S'--'
p514
sg30
S'W27-24'
p515
sg32
S'44'
p516
sg34
g80
sg36
S'@PIT'
p517
sg38
S'21'
p518
sg40
g10
sg42
S'--'
p519
ssg265
(dp520
g5
g286
sg7
g286
sg9
g286
sg11
g286
sg13
g286
sg14
S'Austin Seferian-Jenkins'
p521
sg16
S'2014'
p522
sg18
g265
sg20
g286
sg22
S'Bye'
p523
sg24
g286
sg26
g286
sg28
g286
sg30
g286
sg32
g286
sg34
g286
sg36
g286
sg38
g286
sg40
g286
sg42
g286
ssg284
(dp524
g5
S'--'
p525
sg7
S'--'
p526
sg9
g69
sg11
S'--'
p527
sg13
g69
sg14
S'Austin Seferian-Jenkins'
p528
sg16
S'2014'
p529
sg18
g284
sg20
S'--'
p530
sg22
S'10/12'
p531
sg24
S'14.5'
p532
sg26
S'--'
p533
sg28
S'--'
p534
sg30
S'L17-48'
p535
sg32
S'58'
p536
sg34
g246
sg36
S'BAL'
p537
sg38
S'30'
p538
sg40
g10
sg42
S'--'
p539
ssg290
(dp540
g5
S'--'
p541
sg7
S'--'
p542
sg9
g69
sg11
S'--'
p543
sg13
g69
sg14
S'Austin Seferian-Jenkins'
p544
sg16
S'2014'
p545
sg18
g290
sg20
S'--'
p546
sg22
S'11/02'
p547
sg24
S'3.0'
p548
sg26
S'--'
p549
sg28
S'--'
p550
sg30
S'L17-22'
p551
sg32
g80
sg34
g69
sg36
S'@CLE'
p552
sg38
g80
sg40
g10
sg42
S'--'
p553
ssg309
(dp554
g5
S'--'
p555
sg7
S'--'
p556
sg9
g69
sg11
g69
sg13
g69
sg14
S'Austin Seferian-Jenkins'
p557
sg16
S'2014'
p558
sg18
g309
sg20
S'--'
p559
sg22
S'10/26'
p560
sg24
S'8.7'
p561
sg26
g69
sg28
S'--'
p562
sg30
S'L13-19'
p563
sg32
S'26'
p564
sg34
g80
sg36
S'MIN'
p565
sg38
S'10'
p566
sg40
g69
sg42
S'--'
p567
sss.