(dp0
S'2015'
p1
(dp2
S'11'
p3
(dp4
S'RushTD'
p5
S'--'
p6
sS'RushYds'
p7
S'--'
p8
sS'GS'
p9
S'0'
p10
sS'Lost'
p11
S'--'
p12
sS'G'
p13
S'1'
p14
sS'Player'
p15
S'Blake Bell'
p16
sS'Year'
p17
S'2015'
p18
sS'WK'
p19
S'11'
p20
sS'RushAvg'
p21
S'--'
p22
sS'Game Date'
p23
S'11/22'
p24
sS'RecAvg'
p25
S'--'
p26
sS'FUM'
p27
S'--'
p28
sS'RushAtt'
p29
S'--'
p30
sS'Result'
p31
S'L13-29'
p32
sS'RecYds'
p33
S'--'
p34
sS'Rec'
p35
S'--'
p36
sS'Opp'
p37
S'@SEA'
p38
sS'RecLng'
p39
S'--'
p40
sS'RecTD'
p41
S'--'
p42
sS'RushLng'
p43
S'--'
p44
ssS'10'
p45
(dp46
g5
S''
p47
sg7
g47
sg9
g47
sg11
g47
sg13
g47
sg15
S'Blake Bell'
p48
sg17
S'2015'
p49
sg19
S'10'
p50
sg21
g47
sg23
S'Bye'
p51
sg25
g47
sg27
g47
sg29
g47
sg31
g47
sg33
g47
sg35
g47
sg37
g47
sg39
g47
sg41
g47
sg43
g47
ssS'13'
p52
(dp53
g5
S'--'
p54
sg7
S'--'
p55
sg9
g14
sg11
S'--'
p56
sg13
g14
sg15
S'Blake Bell'
p57
sg17
S'2015'
p58
sg19
S'13'
p59
sg21
S'--'
p60
sg23
S'12/06'
p61
sg25
S'5.0'
p62
sg27
S'--'
p63
sg29
S'--'
p64
sg31
S'W26-20'
p65
sg33
S'5'
p66
sg35
g14
sg37
S'@CHI'
p67
sg39
g66
sg41
g10
sg43
S'--'
p68
ssS'12'
p69
(dp70
g5
S'--'
p71
sg7
S'--'
p72
sg9
g10
sg11
S'--'
p73
sg13
g14
sg15
S'Blake Bell'
p74
sg17
S'2015'
p75
sg19
S'12'
p76
sg21
S'--'
p77
sg23
S'11/29'
p78
sg25
S'22.3'
p79
sg27
S'--'
p80
sg29
S'--'
p81
sg31
S'L13-19'
p82
sg33
S'67'
p83
sg35
S'3'
p84
sg37
S'ARI'
p85
sg39
S'48'
p86
sg41
g10
sg43
S'--'
p87
ssS'15'
p88
(dp89
g5
S'--'
p90
sg7
S'--'
p91
sg9
g10
sg11
S'--'
p92
sg13
g14
sg15
S'Blake Bell'
p93
sg17
S'2015'
p94
sg19
S'15'
p95
sg21
S'--'
p96
sg23
S'12/20'
p97
sg25
S'10.8'
p98
sg27
S'--'
p99
sg29
S'--'
p100
sg31
S'L14-24'
p101
sg33
S'43'
p102
sg35
S'4'
p103
sg37
S'CIN'
p104
sg39
S'27'
p105
sg41
g10
sg43
S'--'
p106
ssS'14'
p107
(dp108
g5
S'--'
p109
sg7
S'--'
p110
sg9
g14
sg11
S'--'
p111
sg13
g14
sg15
S'Blake Bell'
p112
sg17
S'2015'
p113
sg19
S'14'
p114
sg21
S'--'
p115
sg23
S'12/13'
p116
sg25
S'16.3'
p117
sg27
S'--'
p118
sg29
S'--'
p119
sg31
S'L10-24'
p120
sg33
S'49'
p121
sg35
g84
sg37
S'@CLE'
p122
sg39
S'24'
p123
sg41
g10
sg43
S'--'
p124
ssS'17'
p125
(dp126
g5
S'--'
p127
sg7
S'--'
p128
sg9
g14
sg11
S'--'
p129
sg13
g14
sg15
S'Blake Bell'
p130
sg17
S'2015'
p131
sg19
S'17'
p132
sg21
S'--'
p133
sg23
S'01/03'
p134
sg25
S'5.0'
p135
sg27
S'--'
p136
sg29
S'--'
p137
sg31
S'W19-16'
p138
sg33
g66
sg35
g14
sg37
S'STL'
p139
sg39
g66
sg41
g10
sg43
S'--'
p140
ssS'16'
p141
(dp142
g5
S'--'
p143
sg7
S'--'
p144
sg9
g14
sg11
S'--'
p145
sg13
g14
sg15
S'Blake Bell'
p146
sg17
S'2015'
p147
sg19
S'16'
p148
sg21
S'--'
p149
sg23
S'12/27'
p150
sg25
S'--'
p151
sg27
S'--'
p152
sg29
S'--'
p153
sg31
S'L17-32'
p154
sg33
g10
sg35
g10
sg37
S'@DET'
p155
sg39
S'--'
p156
sg41
g10
sg43
S'--'
p157
ssg14
(dp158
g5
S'--'
p159
sg7
S'--'
p160
sg9
g10
sg11
S'--'
p161
sg13
g14
sg15
S'Blake Bell'
p162
sg17
S'2015'
p163
sg19
g14
sg21
S'--'
p164
sg23
S'09/14'
p165
sg25
S'--'
p166
sg27
S'--'
p167
sg29
S'--'
p168
sg31
S'W20-3'
p169
sg33
S'--'
p170
sg35
S'--'
p171
sg37
S'MIN'
p172
sg39
S'--'
p173
sg41
S'--'
p174
sg43
S'--'
p175
ssg84
(dp176
g5
S'--'
p177
sg7
S'--'
p178
sg9
g10
sg11
S'--'
p179
sg13
g14
sg15
S'Blake Bell'
p180
sg17
S'2015'
p181
sg19
g84
sg21
S'--'
p182
sg23
S'09/27'
p183
sg25
S'0.0'
p184
sg27
S'--'
p185
sg29
S'--'
p186
sg31
S'L7-47'
p187
sg33
g10
sg35
g14
sg37
S'@ARI'
p188
sg39
g10
sg41
g10
sg43
S'--'
p189
ssS'2'
p190
(dp191
g5
S'--'
p192
sg7
S'--'
p193
sg9
g10
sg11
S'--'
p194
sg13
g14
sg15
S'Blake Bell'
p195
sg17
S'2015'
p196
sg19
g190
sg21
S'--'
p197
sg23
S'09/20'
p198
sg25
S'11.0'
p199
sg27
S'--'
p200
sg29
S'--'
p201
sg31
S'L18-43'
p202
sg33
S'11'
p203
sg35
g14
sg37
S'@PIT'
p204
sg39
S'11'
p205
sg41
g10
sg43
S'--'
p206
ssg66
(dp207
g5
S'--'
p208
sg7
S'--'
p209
sg9
g14
sg11
S'--'
p210
sg13
g14
sg15
S'Blake Bell'
p211
sg17
S'2015'
p212
sg19
g66
sg21
S'--'
p213
sg23
S'10/11'
p214
sg25
S'6.0'
p215
sg27
S'--'
p216
sg29
S'--'
p217
sg31
S'L27-30'
p218
sg33
S'6'
p219
sg35
g14
sg37
S'@NYG'
p220
sg39
g219
sg41
g10
sg43
S'--'
p221
ssg103
(dp222
g5
S'--'
p223
sg7
S'--'
p224
sg9
g10
sg11
S'--'
p225
sg13
g14
sg15
S'Blake Bell'
p226
sg17
S'2015'
p227
sg19
g103
sg21
S'--'
p228
sg23
S'10/04'
p229
sg25
S'--'
p230
sg27
S'--'
p231
sg29
S'--'
p232
sg31
S'L3-17'
p233
sg33
S'--'
p234
sg35
S'--'
p235
sg37
S'GB'
p236
sg39
S'--'
p237
sg41
S'--'
p238
sg43
S'--'
p239
ssS'7'
p240
(dp241
g5
S'--'
p242
sg7
S'--'
p243
sg9
g10
sg11
S'--'
p244
sg13
g10
sg15
S'Blake Bell'
p245
sg17
S'2015'
p246
sg19
g240
sg21
S'--'
p247
sg23
S'10/22'
p248
sg25
S'--'
p249
sg27
S'--'
p250
sg29
S'--'
p251
sg31
S'L3-20'
p252
sg33
S'--'
p253
sg35
S'--'
p254
sg37
S'SEA'
p255
sg39
S'--'
p256
sg41
S'--'
p257
sg43
S'--'
p258
ssg219
(dp259
g5
S'--'
p260
sg7
S'--'
p261
sg9
g10
sg11
S'--'
p262
sg13
g14
sg15
S'Blake Bell'
p263
sg17
S'2015'
p264
sg19
g219
sg21
S'--'
p265
sg23
S'10/18'
p266
sg25
S'--'
p267
sg27
S'--'
p268
sg29
S'--'
p269
sg31
S'W25-20'
p270
sg33
S'--'
p271
sg35
S'--'
p272
sg37
S'BAL'
p273
sg39
S'--'
p274
sg41
S'--'
p275
sg43
S'--'
p276
ssS'9'
p277
(dp278
g5
S'--'
p279
sg7
S'--'
p280
sg9
g10
sg11
S'--'
p281
sg13
g14
sg15
S'Blake Bell'
p282
sg17
S'2015'
p283
sg19
g277
sg21
S'--'
p284
sg23
S'11/08'
p285
sg25
S'--'
p286
sg27
S'--'
p287
sg29
S'--'
p288
sg31
S'W17-16'
p289
sg33
S'--'
p290
sg35
S'--'
p291
sg37
S'ATL'
p292
sg39
S'--'
p293
sg41
S'--'
p294
sg43
S'--'
p295
ssS'8'
p296
(dp297
g5
S'--'
p298
sg7
S'--'
p299
sg9
g10
sg11
S'--'
p300
sg13
g10
sg15
S'Blake Bell'
p301
sg17
S'2015'
p302
sg19
g296
sg21
S'--'
p303
sg23
S'11/01'
p304
sg25
S'--'
p305
sg27
S'--'
p306
sg29
S'--'
p307
sg31
S'L6-27'
p308
sg33
S'--'
p309
sg35
S'--'
p310
sg37
S'@STL'
p311
sg39
S'--'
p312
sg41
S'--'
p313
sg43
S'--'
p314
sss.