(dp0
S'2015'
p1
(dp2
S'11'
p3
(dp4
S'RushTD'
p5
S'--'
p6
sS'RushYds'
p7
S'--'
p8
sS'GS'
p9
S'1'
p10
sS'Lost'
p11
S'--'
p12
sS'G'
p13
g10
sS'Player'
p14
S'Brandon Pettigrew'
p15
sS'Year'
p16
S'2015'
p17
sS'WK'
p18
S'11'
p19
sS'RushAvg'
p20
S'--'
p21
sS'Game Date'
p22
S'11/22'
p23
sS'RecAvg'
p24
S'8.0'
p25
sS'FUM'
p26
S'--'
p27
sS'RushAtt'
p28
S'--'
p29
sS'Result'
p30
S'W18-13'
p31
sS'RecYds'
p32
S'8'
p33
sS'Rec'
p34
g10
sS'Opp'
p35
S'OAK'
p36
sS'RecLng'
p37
g33
sS'RecTD'
p38
S'0'
p39
sS'RushLng'
p40
S'--'
p41
ssS'10'
p42
(dp43
g5
S'--'
p44
sg7
S'--'
p45
sg9
g10
sg11
S'--'
p46
sg13
g10
sg14
S'Brandon Pettigrew'
p47
sg16
S'2015'
p48
sg18
S'10'
p49
sg20
S'--'
p50
sg22
S'11/15'
p51
sg24
S'2.0'
p52
sg26
S'--'
p53
sg28
S'--'
p54
sg30
S'W18-16'
p55
sg32
S'2'
p56
sg34
g10
sg35
S'@GB'
p57
sg37
S'2T'
p58
sg38
g10
sg40
S'--'
p59
ssS'13'
p60
(dp61
g5
S'--'
p62
sg7
S'--'
p63
sg9
g10
sg11
S'--'
p64
sg13
g10
sg14
S'Brandon Pettigrew'
p65
sg16
S'2015'
p66
sg18
S'13'
p67
sg20
S'--'
p68
sg22
S'12/03'
p69
sg24
S'--'
p70
sg26
S'--'
p71
sg28
S'--'
p72
sg30
S'L23-27'
p73
sg32
S'--'
p74
sg34
S'--'
p75
sg35
S'GB'
p76
sg37
S'--'
p77
sg38
S'--'
p78
sg40
S'--'
p79
ssS'12'
p80
(dp81
g5
S'--'
p82
sg7
S'--'
p83
sg9
g10
sg11
S'--'
p84
sg13
g10
sg14
S'Brandon Pettigrew'
p85
sg16
S'2015'
p86
sg18
S'12'
p87
sg20
S'--'
p88
sg22
S'11/26'
p89
sg24
S'21.0'
p90
sg26
S'--'
p91
sg28
S'--'
p92
sg30
S'W45-14'
p93
sg32
S'21'
p94
sg34
g10
sg35
S'PHI'
p95
sg37
S'21'
p96
sg38
g39
sg40
S'--'
p97
ssS'14'
p98
(dp99
g5
S'--'
p100
sg7
S'--'
p101
sg9
g10
sg11
S'--'
p102
sg13
g10
sg14
S'Brandon Pettigrew'
p103
sg16
S'2015'
p104
sg18
S'14'
p105
sg20
S'--'
p106
sg22
S'12/13'
p107
sg24
S'7.0'
p108
sg26
S'--'
p109
sg28
S'--'
p110
sg30
S'L14-21'
p111
sg32
S'7'
p112
sg34
g10
sg35
S'@STL'
p113
sg37
g112
sg38
g39
sg40
S'--'
p114
ssg10
(dp115
g5
S'--'
p116
sg7
S'--'
p117
sg9
g10
sg11
S'--'
p118
sg13
g10
sg14
S'Brandon Pettigrew'
p119
sg16
S'2015'
p120
sg18
g10
sg20
S'--'
p121
sg22
S'09/13'
p122
sg24
S'--'
p123
sg26
S'--'
p124
sg28
S'--'
p125
sg30
S'L28-33'
p126
sg32
g39
sg34
g39
sg35
S'@SD'
p127
sg37
S'--'
p128
sg38
g39
sg40
S'--'
p129
ssS'3'
p130
(dp131
g5
S'--'
p132
sg7
S'--'
p133
sg9
g39
sg11
S'--'
p134
sg13
g39
sg14
S'Brandon Pettigrew'
p135
sg16
S'2015'
p136
sg18
g130
sg20
S'--'
p137
sg22
S'09/27'
p138
sg24
S'--'
p139
sg26
S'--'
p140
sg28
S'--'
p141
sg30
S'L12-24'
p142
sg32
S'--'
p143
sg34
S'--'
p144
sg35
S'DEN'
p145
sg37
S'--'
p146
sg38
S'--'
p147
sg40
S'--'
p148
ssg56
(dp149
g5
S'--'
p150
sg7
S'--'
p151
sg9
g39
sg11
S'--'
p152
sg13
g39
sg14
S'Brandon Pettigrew'
p153
sg16
S'2015'
p154
sg18
g56
sg20
S'--'
p155
sg22
S'09/20'
p156
sg24
S'--'
p157
sg26
S'--'
p158
sg28
S'--'
p159
sg30
S'L16-26'
p160
sg32
S'--'
p161
sg34
S'--'
p162
sg35
S'@MIN'
p163
sg37
S'--'
p164
sg38
S'--'
p165
sg40
S'--'
p166
ssS'5'
p167
(dp168
g5
S'--'
p169
sg7
S'--'
p170
sg9
g10
sg11
S'--'
p171
sg13
g10
sg14
S'Brandon Pettigrew'
p172
sg16
S'2015'
p173
sg18
g167
sg20
S'--'
p174
sg22
S'10/11'
p175
sg24
S'9.7'
p176
sg26
S'--'
p177
sg28
S'--'
p178
sg30
S'L17-42'
p179
sg32
S'29'
p180
sg34
g130
sg35
S'ARI'
p181
sg37
S'13'
p182
sg38
g39
sg40
S'--'
p183
ssS'4'
p184
(dp185
g5
S'--'
p186
sg7
S'--'
p187
sg9
g39
sg11
S'--'
p188
sg13
g39
sg14
S'Brandon Pettigrew'
p189
sg16
S'2015'
p190
sg18
g184
sg20
S'--'
p191
sg22
S'10/05'
p192
sg24
S'--'
p193
sg26
S'--'
p194
sg28
S'--'
p195
sg30
S'L10-13'
p196
sg32
S'--'
p197
sg34
S'--'
p198
sg35
S'@SEA'
p199
sg37
S'--'
p200
sg38
S'--'
p201
sg40
S'--'
p202
ssg112
(dp203
g5
S'--'
p204
sg7
S'--'
p205
sg9
g39
sg11
S'--'
p206
sg13
g39
sg14
S'Brandon Pettigrew'
p207
sg16
S'2015'
p208
sg18
g112
sg20
S'--'
p209
sg22
S'10/25'
p210
sg24
S'--'
p211
sg26
S'--'
p212
sg28
S'--'
p213
sg30
S'L19-28'
p214
sg32
S'--'
p215
sg34
S'--'
p216
sg35
S'MIN'
p217
sg37
S'--'
p218
sg38
S'--'
p219
sg40
S'--'
p220
ssS'6'
p221
(dp222
g5
S'--'
p223
sg7
S'--'
p224
sg9
g39
sg11
S'--'
p225
sg13
g39
sg14
S'Brandon Pettigrew'
p226
sg16
S'2015'
p227
sg18
g221
sg20
S'--'
p228
sg22
S'10/18'
p229
sg24
S'--'
p230
sg26
S'--'
p231
sg28
S'--'
p232
sg30
S'W37-34'
p233
sg32
S'--'
p234
sg34
S'--'
p235
sg35
S'CHI'
p236
sg37
S'--'
p237
sg38
S'--'
p238
sg40
S'--'
p239
ssS'9'
p240
(dp241
g5
S''
p242
sg7
g242
sg9
g242
sg11
g242
sg13
g242
sg14
S'Brandon Pettigrew'
p243
sg16
S'2015'
p244
sg18
g240
sg20
g242
sg22
S'Bye'
p245
sg24
g242
sg26
g242
sg28
g242
sg30
g242
sg32
g242
sg34
g242
sg35
g242
sg37
g242
sg38
g242
sg40
g242
ssg33
(dp246
g5
S'--'
p247
sg7
S'--'
p248
sg9
g10
sg11
S'--'
p249
sg13
g10
sg14
S'Brandon Pettigrew'
p250
sg16
S'2015'
p251
sg18
g33
sg20
S'--'
p252
sg22
S'11/01'
p253
sg24
S'--'
p254
sg26
S'--'
p255
sg28
S'--'
p256
sg30
S'L10-45'
p257
sg32
g39
sg34
g39
sg35
S'@KC'
p258
sg37
S'--'
p259
sg38
g39
sg40
S'--'
p260
sssS'2014'
p261
(dp262
g3
(dp263
g5
S'--'
p264
sg7
S'--'
p265
sg9
g39
sg11
S'--'
p266
sg13
g39
sg14
S'Brandon Pettigrew'
p267
sg16
S'2014'
p268
sg18
S'11'
p269
sg20
S'--'
p270
sg22
S'11/16'
p271
sg24
S'--'
p272
sg26
S'--'
p273
sg28
S'--'
p274
sg30
S'L6-14'
p275
sg32
S'--'
p276
sg34
S'--'
p277
sg35
S'@ARI'
p278
sg37
S'--'
p279
sg38
S'--'
p280
sg40
S'--'
p281
ssg42
(dp282
g5
S'--'
p283
sg7
S'--'
p284
sg9
g39
sg11
S'--'
p285
sg13
g10
sg14
S'Brandon Pettigrew'
p286
sg16
S'2014'
p287
sg18
S'10'
p288
sg20
S'--'
p289
sg22
S'11/09'
p290
sg24
S'--'
p291
sg26
S'--'
p292
sg28
S'--'
p293
sg30
S'W20-16'
p294
sg32
S'--'
p295
sg34
S'--'
p296
sg35
S'MIA'
p297
sg37
S'--'
p298
sg38
S'--'
p299
sg40
S'--'
p300
ssg60
(dp301
g5
S'--'
p302
sg7
S'--'
p303
sg9
g10
sg11
S'--'
p304
sg13
g10
sg14
S'Brandon Pettigrew'
p305
sg16
S'2014'
p306
sg18
S'13'
p307
sg20
S'--'
p308
sg22
S'11/27'
p309
sg24
S'2.0'
p310
sg26
S'--'
p311
sg28
S'--'
p312
sg30
S'W34-17'
p313
sg32
g56
sg34
g10
sg35
S'CHI'
p314
sg37
g56
sg38
g39
sg40
S'--'
p315
ssg80
(dp316
g5
S'--'
p317
sg7
S'--'
p318
sg9
g10
sg11
S'--'
p319
sg13
g10
sg14
S'Brandon Pettigrew'
p320
sg16
S'2014'
p321
sg18
S'12'
p322
sg20
S'--'
p323
sg22
S'11/23'
p324
sg24
S'--'
p325
sg26
S'--'
p326
sg28
S'--'
p327
sg30
S'L9-34'
p328
sg32
S'--'
p329
sg34
S'--'
p330
sg35
S'@NE'
p331
sg37
S'--'
p332
sg38
S'--'
p333
sg40
S'--'
p334
ssS'15'
p335
(dp336
g5
S'--'
p337
sg7
S'--'
p338
sg9
g39
sg11
S'--'
p339
sg13
g10
sg14
S'Brandon Pettigrew'
p340
sg16
S'2014'
p341
sg18
S'15'
p342
sg20
S'--'
p343
sg22
S'12/14'
p344
sg24
S'--'
p345
sg26
S'--'
p346
sg28
S'--'
p347
sg30
S'W16-14'
p348
sg32
S'--'
p349
sg34
S'--'
p350
sg35
S'MIN'
p351
sg37
S'--'
p352
sg38
S'--'
p353
sg40
S'--'
p354
ssg98
(dp355
g5
S'--'
p356
sg7
S'--'
p357
sg9
g39
sg11
S'--'
p358
sg13
g10
sg14
S'Brandon Pettigrew'
p359
sg16
S'2014'
p360
sg18
S'14'
p361
sg20
S'--'
p362
sg22
S'12/07'
p363
sg24
S'--'
p364
sg26
S'--'
p365
sg28
S'--'
p366
sg30
S'W34-17'
p367
sg32
S'--'
p368
sg34
S'--'
p369
sg35
S'TB'
p370
sg37
S'--'
p371
sg38
S'--'
p372
sg40
S'--'
p373
ssS'17'
p374
(dp375
g5
S'--'
p376
sg7
S'--'
p377
sg9
g39
sg11
S'--'
p378
sg13
g10
sg14
S'Brandon Pettigrew'
p379
sg16
S'2014'
p380
sg18
S'17'
p381
sg20
S'--'
p382
sg22
S'12/28'
p383
sg24
S'--'
p384
sg26
S'--'
p385
sg28
S'--'
p386
sg30
S'L20-30'
p387
sg32
S'--'
p388
sg34
S'--'
p389
sg35
S'@GB'
p390
sg37
S'--'
p391
sg38
S'--'
p392
sg40
S'--'
p393
ssS'16'
p394
(dp395
g5
S'--'
p396
sg7
S'--'
p397
sg9
g39
sg11
S'--'
p398
sg13
g10
sg14
S'Brandon Pettigrew'
p399
sg16
S'2014'
p400
sg18
S'16'
p401
sg20
S'--'
p402
sg22
S'12/21'
p403
sg24
S'--'
p404
sg26
S'--'
p405
sg28
S'--'
p406
sg30
S'W20-14'
p407
sg32
S'--'
p408
sg34
S'--'
p409
sg35
S'@CHI'
p410
sg37
S'--'
p411
sg38
S'--'
p412
sg40
S'--'
p413
ssg10
(dp414
g5
S'--'
p415
sg7
S'--'
p416
sg9
g10
sg11
S'--'
p417
sg13
g10
sg14
S'Brandon Pettigrew'
p418
sg16
S'2014'
p419
sg18
g10
sg20
S'--'
p420
sg22
S'09/08'
p421
sg24
S'9.0'
p422
sg26
S'--'
p423
sg28
S'--'
p424
sg30
S'W35-14'
p425
sg32
g240
sg34
g10
sg35
S'NYG'
p426
sg37
g240
sg38
g39
sg40
S'--'
p427
ssg130
(dp428
g5
S'--'
p429
sg7
S'--'
p430
sg9
g10
sg11
S'--'
p431
sg13
g10
sg14
S'Brandon Pettigrew'
p432
sg16
S'2014'
p433
sg18
g130
sg20
S'--'
p434
sg22
S'09/21'
p435
sg24
S'--'
p436
sg26
S'--'
p437
sg28
S'--'
p438
sg30
S'W19-7'
p439
sg32
g39
sg34
g39
sg35
S'GB'
p440
sg37
S'--'
p441
sg38
g39
sg40
S'--'
p442
ssg56
(dp443
g5
S'--'
p444
sg7
S'--'
p445
sg9
g10
sg11
S'--'
p446
sg13
g10
sg14
S'Brandon Pettigrew'
p447
sg16
S'2014'
p448
sg18
g56
sg20
S'--'
p449
sg22
S'09/14'
p450
sg24
S'--'
p451
sg26
S'--'
p452
sg28
S'--'
p453
sg30
S'L7-24'
p454
sg32
g39
sg34
g39
sg35
S'@CAR'
p455
sg37
S'--'
p456
sg38
g39
sg40
S'--'
p457
ssg167
(dp458
g5
S'--'
p459
sg7
S'--'
p460
sg9
g10
sg11
S'--'
p461
sg13
g10
sg14
S'Brandon Pettigrew'
p462
sg16
S'2014'
p463
sg18
g167
sg20
S'--'
p464
sg22
S'10/05'
p465
sg24
S'6.0'
p466
sg26
S'--'
p467
sg28
S'--'
p468
sg30
S'L14-17'
p469
sg32
S'12'
p470
sg34
g56
sg35
S'BUF'
p471
sg37
g112
sg38
g39
sg40
S'--'
p472
ssg184
(dp473
g5
S'--'
p474
sg7
S'--'
p475
sg9
g10
sg11
S'--'
p476
sg13
g10
sg14
S'Brandon Pettigrew'
p477
sg16
S'2014'
p478
sg18
g184
sg20
S'--'
p479
sg22
S'09/28'
p480
sg24
S'9.5'
p481
sg26
S'--'
p482
sg28
S'--'
p483
sg30
S'W24-17'
p484
sg32
S'19'
p485
sg34
g56
sg35
S'@NYJ'
p486
sg37
S'11'
p487
sg38
g39
sg40
S'--'
p488
ssg112
(dp489
g5
S'--'
p490
sg7
S'--'
p491
sg9
g10
sg11
S'--'
p492
sg13
g10
sg14
S'Brandon Pettigrew'
p493
sg16
S'2014'
p494
sg18
g112
sg20
S'--'
p495
sg22
S'10/19'
p496
sg24
S'7.0'
p497
sg26
S'--'
p498
sg28
S'--'
p499
sg30
S'W24-23'
p500
sg32
S'28'
p501
sg34
g184
sg35
S'NO'
p502
sg37
S'13'
p503
sg38
g39
sg40
S'--'
p504
ssg221
(dp505
g5
S'--'
p506
sg7
S'--'
p507
sg9
g10
sg11
S'--'
p508
sg13
g10
sg14
S'Brandon Pettigrew'
p509
sg16
S'2014'
p510
sg18
g221
sg20
S'--'
p511
sg22
S'10/12'
p512
sg24
S'--'
p513
sg26
S'--'
p514
sg28
S'--'
p515
sg30
S'W17-3'
p516
sg32
S'--'
p517
sg34
S'--'
p518
sg35
S'@MIN'
p519
sg37
S'--'
p520
sg38
S'--'
p521
sg40
S'--'
p522
ssg240
(dp523
g5
g242
sg7
g242
sg9
g242
sg11
g242
sg13
g242
sg14
S'Brandon Pettigrew'
p524
sg16
S'2014'
p525
sg18
g240
sg20
g242
sg22
S'Bye'
p526
sg24
g242
sg26
g242
sg28
g242
sg30
g242
sg32
g242
sg34
g242
sg35
g242
sg37
g242
sg38
g242
sg40
g242
ssg33
(dp527
g5
S'--'
p528
sg7
S'--'
p529
sg9
g39
sg11
S'--'
p530
sg13
g39
sg14
S'Brandon Pettigrew'
p531
sg16
S'2014'
p532
sg18
g33
sg20
S'--'
p533
sg22
S'10/26'
p534
sg24
S'--'
p535
sg26
S'--'
p536
sg28
S'--'
p537
sg30
S'W22-21'
p538
sg32
S'--'
p539
sg34
S'--'
p540
sg35
S'@ATL'
p541
sg37
S'--'
p542
sg38
S'--'
p543
sg40
S'--'
p544
sssS'2011'
p545
(dp546
g3
(dp547
g5
S'--'
p548
sg7
S'--'
p549
sg9
g10
sg11
S'--'
p550
sg13
g10
sg14
S'Brandon Pettigrew'
p551
sg16
S'2011'
p552
sg18
S'11'
p553
sg20
S'--'
p554
sg22
S'11/20'
p555
sg24
S'9.3'
p556
sg26
S'--'
p557
sg28
S'--'
p558
sg30
S'W49-35'
p559
sg32
S'37'
p560
sg34
g184
sg35
S'CAR'
p561
sg37
S'16'
p562
sg38
g10
sg40
S'--'
p563
ssg42
(dp564
g5
S'--'
p565
sg7
S'--'
p566
sg9
g10
sg11
S'--'
p567
sg13
g10
sg14
S'Brandon Pettigrew'
p568
sg16
S'2011'
p569
sg18
S'10'
p570
sg20
S'--'
p571
sg22
S'11/13'
p572
sg24
S'7.6'
p573
sg26
S'--'
p574
sg28
S'--'
p575
sg30
S'L13-37'
p576
sg32
S'38'
p577
sg34
g167
sg35
S'@CHI'
p578
sg37
S'17'
p579
sg38
g39
sg40
S'--'
p580
ssg60
(dp581
g5
S'--'
p582
sg7
S'--'
p583
sg9
g10
sg11
S'--'
p584
sg13
g10
sg14
S'Brandon Pettigrew'
p585
sg16
S'2011'
p586
sg18
S'13'
p587
sg20
S'--'
p588
sg22
S'12/04'
p589
sg24
S'6.5'
p590
sg26
S'--'
p591
sg28
S'--'
p592
sg30
S'L17-31'
p593
sg32
S'13'
p594
sg34
g56
sg35
S'@NO'
p595
sg37
g33
sg38
g39
sg40
S'--'
p596
ssg80
(dp597
g5
S'--'
p598
sg7
S'--'
p599
sg9
g10
sg11
S'--'
p600
sg13
g10
sg14
S'Brandon Pettigrew'
p601
sg16
S'2011'
p602
sg18
S'12'
p603
sg20
S'--'
p604
sg22
S'11/24'
p605
sg24
S'6.8'
p606
sg26
S'--'
p607
sg28
S'--'
p608
sg30
S'L15-27'
p609
sg32
S'27'
p610
sg34
g184
sg35
S'GB'
p611
sg37
S'10'
p612
sg38
g39
sg40
S'--'
p613
ssg335
(dp614
g5
S'--'
p615
sg7
S'--'
p616
sg9
g10
sg11
S'--'
p617
sg13
g10
sg14
S'Brandon Pettigrew'
p618
sg16
S'2011'
p619
sg18
S'15'
p620
sg20
S'--'
p621
sg22
S'12/18'
p622
sg24
S'9.8'
p623
sg26
S'--'
p624
sg28
S'--'
p625
sg30
S'W28-27'
p626
sg32
S'49'
p627
sg34
g167
sg35
S'@OAK'
p628
sg37
S'17'
p629
sg38
g39
sg40
S'--'
p630
ssg98
(dp631
g5
S'--'
p632
sg7
S'--'
p633
sg9
g10
sg11
S'--'
p634
sg13
g10
sg14
S'Brandon Pettigrew'
p635
sg16
S'2011'
p636
sg18
S'14'
p637
sg20
S'--'
p638
sg22
S'12/11'
p639
sg24
S'9.5'
p640
sg26
S'--'
p641
sg28
S'--'
p642
sg30
S'W34-28'
p643
sg32
S'57'
p644
sg34
g221
sg35
S'MIN'
p645
sg37
S'17'
p646
sg38
g10
sg40
S'--'
p647
ssg374
(dp648
g5
S'--'
p649
sg7
S'--'
p650
sg9
g10
sg11
S'--'
p651
sg13
g10
sg14
S'Brandon Pettigrew'
p652
sg16
S'2011'
p653
sg18
S'17'
p654
sg20
S'--'
p655
sg22
S'01/01'
p656
sg24
S'16.6'
p657
sg26
S'--'
p658
sg28
S'--'
p659
sg30
S'L41-45'
p660
sg32
S'116'
p661
sg34
g112
sg35
S'@GB'
p662
sg37
S'26'
p663
sg38
g39
sg40
S'--'
p664
ssg394
(dp665
g5
S'--'
p666
sg7
S'--'
p667
sg9
g10
sg11
S'--'
p668
sg13
g10
sg14
S'Brandon Pettigrew'
p669
sg16
S'2011'
p670
sg18
S'16'
p671
sg20
S'--'
p672
sg22
S'12/24'
p673
sg24
S'8.9'
p674
sg26
S'--'
p675
sg28
S'--'
p676
sg30
S'W38-10'
p677
sg32
S'80'
p678
sg34
g240
sg35
S'SD'
p679
sg37
S'16'
p680
sg38
g10
sg40
S'--'
p681
ssg10
(dp682
g5
S'--'
p683
sg7
S'--'
p684
sg9
g10
sg11
S'--'
p685
sg13
g10
sg14
S'Brandon Pettigrew'
p686
sg16
S'2011'
p687
sg18
g10
sg20
S'--'
p688
sg22
S'09/11'
p689
sg24
S'14.3'
p690
sg26
S'--'
p691
sg28
S'--'
p692
sg30
S'W27-20'
p693
sg32
S'57'
p694
sg34
g184
sg35
S'@TB'
p695
sg37
S'25'
p696
sg38
g39
sg40
S'--'
p697
ssg130
(dp698
g5
S'--'
p699
sg7
S'--'
p700
sg9
g10
sg11
S'--'
p701
sg13
g10
sg14
S'Brandon Pettigrew'
p702
sg16
S'2011'
p703
sg18
g130
sg20
S'--'
p704
sg22
S'09/25'
p705
sg24
S'10.2'
p706
sg26
S'--'
p707
sg28
S'--'
p708
sg30
S'W26-23'
p709
sg32
S'112'
p710
sg34
S'11'
p711
sg35
S'@MIN'
p712
sg37
S'27'
p713
sg38
g39
sg40
S'--'
p714
ssg56
(dp715
g5
S'--'
p716
sg7
S'--'
p717
sg9
g10
sg11
S'--'
p718
sg13
g10
sg14
S'Brandon Pettigrew'
p719
sg16
S'2011'
p720
sg18
g56
sg20
S'--'
p721
sg22
S'09/18'
p722
sg24
S'7.0'
p723
sg26
S'--'
p724
sg28
S'--'
p725
sg30
S'W48-3'
p726
sg32
g112
sg34
g10
sg35
S'KC'
p727
sg37
g112
sg38
g39
sg40
S'--'
p728
ssg167
(dp729
g5
S'--'
p730
sg7
S'--'
p731
sg9
g10
sg11
S'--'
p732
sg13
g10
sg14
S'Brandon Pettigrew'
p733
sg16
S'2011'
p734
sg18
g167
sg20
S'--'
p735
sg22
S'10/10'
p736
sg24
S'9.8'
p737
sg26
S'--'
p738
sg28
S'--'
p739
sg30
S'W24-13'
p740
sg32
S'39'
p741
sg34
g184
sg35
S'CHI'
p742
sg37
S'18T'
p743
sg38
g10
sg40
S'--'
p744
ssg184
(dp745
g5
S'--'
p746
sg7
S'--'
p747
sg9
g10
sg11
S'--'
p748
sg13
g10
sg14
S'Brandon Pettigrew'
p749
sg16
S'2011'
p750
sg18
g184
sg20
S'--'
p751
sg22
S'10/02'
p752
sg24
S'10.7'
p753
sg26
S'--'
p754
sg28
S'--'
p755
sg30
S'W34-30'
p756
sg32
S'64'
p757
sg34
g221
sg35
S'@DAL'
p758
sg37
S'22'
p759
sg38
g39
sg40
S'--'
p760
ssg112
(dp761
g5
S'--'
p762
sg7
S'--'
p763
sg9
g10
sg11
S'--'
p764
sg13
g10
sg14
S'Brandon Pettigrew'
p765
sg16
S'2011'
p766
sg18
g112
sg20
S'--'
p767
sg22
S'10/23'
p768
sg24
S'7.8'
p769
sg26
S'--'
p770
sg28
S'--'
p771
sg30
S'L16-23'
p772
sg32
S'31'
p773
sg34
g184
sg35
S'ATL'
p774
sg37
g240
sg38
g39
sg40
S'--'
p775
ssg221
(dp776
g5
S'--'
p777
sg7
S'--'
p778
sg9
g10
sg11
S'--'
p779
sg13
g10
sg14
S'Brandon Pettigrew'
p780
sg16
S'2011'
p781
sg18
g221
sg20
S'--'
p782
sg22
S'10/16'
p783
sg24
S'5.3'
p784
sg26
S'--'
p785
sg28
S'--'
p786
sg30
S'L19-25'
p787
sg32
S'42'
p788
sg34
g33
sg35
S'SF'
p789
sg37
S'16T'
p790
sg38
g10
sg40
S'--'
p791
ssg240
(dp792
g5
g242
sg7
g242
sg9
g242
sg11
g242
sg13
g242
sg14
S'Brandon Pettigrew'
p793
sg16
S'2011'
p794
sg18
g240
sg20
g242
sg22
S'Bye'
p795
sg24
g242
sg26
g242
sg28
g242
sg30
g242
sg32
g242
sg34
g242
sg35
g242
sg37
g242
sg38
g242
sg40
g242
ssg33
(dp796
g5
S'--'
p797
sg7
S'--'
p798
sg9
g10
sg11
S'--'
p799
sg13
g10
sg14
S'Brandon Pettigrew'
p800
sg16
S'2011'
p801
sg18
g33
sg20
S'--'
p802
sg22
S'10/30'
p803
sg24
S'2.7'
p804
sg26
S'--'
p805
sg28
S'--'
p806
sg30
S'W45-10'
p807
sg32
g33
sg34
g130
sg35
S'@DEN'
p808
sg37
g112
sg38
g39
sg40
S'--'
p809
sssS'2010'
p810
(dp811
g3
(dp812
g5
S'--'
p813
sg7
S'--'
p814
sg9
g10
sg11
S'--'
p815
sg13
g10
sg14
S'Brandon Pettigrew'
p816
sg16
S'2010'
p817
sg18
S'11'
p818
sg20
S'--'
p819
sg22
S'11/21'
p820
sg24
S'9.4'
p821
sg26
S'--'
p822
sg28
S'--'
p823
sg30
S'L19-35'
p824
sg32
S'75'
p825
sg34
g33
sg35
S'@DAL'
p826
sg37
S'20'
p827
sg38
g39
sg40
S'--'
p828
ssg42
(dp829
g5
S'--'
p830
sg7
S'--'
p831
sg9
g10
sg11
S'--'
p832
sg13
g10
sg14
S'Brandon Pettigrew'
p833
sg16
S'2010'
p834
sg18
S'10'
p835
sg20
S'--'
p836
sg22
S'11/14'
p837
sg24
S'12.5'
p838
sg26
S'--'
p839
sg28
S'--'
p840
sg30
S'L12-14'
p841
sg32
S'50'
p842
sg34
g184
sg35
S'@BUF'
p843
sg37
S'22'
p844
sg38
g39
sg40
S'--'
p845
ssg60
(dp846
g5
S'--'
p847
sg7
S'--'
p848
sg9
g10
sg11
S'--'
p849
sg13
g10
sg14
S'Brandon Pettigrew'
p850
sg16
S'2010'
p851
sg18
S'13'
p852
sg20
S'--'
p853
sg22
S'12/05'
p854
sg24
S'7.2'
p855
sg26
S'--'
p856
sg28
S'--'
p857
sg30
S'L20-24'
p858
sg32
S'36'
p859
sg34
g167
sg35
S'CHI'
p860
sg37
S'14'
p861
sg38
g39
sg40
S'--'
p862
ssg80
(dp863
g5
S'--'
p864
sg7
S'--'
p865
sg9
g10
sg11
S'--'
p866
sg13
g10
sg14
S'Brandon Pettigrew'
p867
sg16
S'2010'
p868
sg18
S'12'
p869
sg20
S'--'
p870
sg22
S'11/25'
p871
sg24
S'13.4'
p872
sg26
S'--'
p873
sg28
S'--'
p874
sg30
S'L24-45'
p875
sg32
S'67'
p876
sg34
g167
sg35
S'NE'
p877
sg37
S'24'
p878
sg38
g39
sg40
S'--'
p879
ssg335
(dp880
g5
S'--'
p881
sg7
S'--'
p882
sg9
g10
sg11
S'--'
p883
sg13
g10
sg14
S'Brandon Pettigrew'
p884
sg16
S'2010'
p885
sg18
S'15'
p886
sg20
S'--'
p887
sg22
S'12/19'
p888
sg24
S'12.5'
p889
sg26
S'--'
p890
sg28
S'--'
p891
sg30
S'W23-20'
p892
sg32
S'25'
p893
sg34
g56
sg35
S'@TB'
p894
sg37
S'13'
p895
sg38
g39
sg40
S'--'
p896
ssg98
(dp897
g5
S'--'
p898
sg7
S'--'
p899
sg9
g10
sg11
S'--'
p900
sg13
g10
sg14
S'Brandon Pettigrew'
p901
sg16
S'2010'
p902
sg18
S'14'
p903
sg20
S'--'
p904
sg22
S'12/12'
p905
sg24
S'7.0'
p906
sg26
S'--'
p907
sg28
S'--'
p908
sg30
S'W7-3'
p909
sg32
S'14'
p910
sg34
g56
sg35
S'GB'
p911
sg37
S'11'
p912
sg38
g39
sg40
S'--'
p913
ssg374
(dp914
g5
S'--'
p915
sg7
S'--'
p916
sg9
g10
sg11
S'--'
p917
sg13
g10
sg14
S'Brandon Pettigrew'
p918
sg16
S'2010'
p919
sg18
S'17'
p920
sg20
S'--'
p921
sg22
S'01/02'
p922
sg24
S'6.3'
p923
sg26
S'--'
p924
sg28
S'--'
p925
sg30
S'W20-13'
p926
sg32
S'19'
p927
sg34
g130
sg35
S'MIN'
p928
sg37
S'12'
p929
sg38
g39
sg40
S'--'
p930
ssg394
(dp931
g5
S'--'
p932
sg7
S'--'
p933
sg9
g10
sg11
S'--'
p934
sg13
g10
sg14
S'Brandon Pettigrew'
p935
sg16
S'2010'
p936
sg18
S'16'
p937
sg20
S'--'
p938
sg22
S'12/26'
p939
sg24
S'18.5'
p940
sg26
S'--'
p941
sg28
S'--'
p942
sg30
S'W34-27'
p943
sg32
S'74'
p944
sg34
g184
sg35
S'@MIA'
p945
sg37
S'33'
p946
sg38
g10
sg40
S'--'
p947
ssg10
(dp948
g5
S'--'
p949
sg7
S'--'
p950
sg9
g10
sg11
S'--'
p951
sg13
g10
sg14
S'Brandon Pettigrew'
p952
sg16
S'2010'
p953
sg18
g10
sg20
S'--'
p954
sg22
S'09/12'
p955
sg24
S'6.0'
p956
sg26
S'--'
p957
sg28
S'--'
p958
sg30
S'L14-19'
p959
sg32
g221
sg34
g10
sg35
S'@CHI'
p960
sg37
g221
sg38
g39
sg40
S'--'
p961
ssg130
(dp962
g5
S'--'
p963
sg7
S'--'
p964
sg9
g10
sg11
S'--'
p965
sg13
g10
sg14
S'Brandon Pettigrew'
p966
sg16
S'2010'
p967
sg18
g130
sg20
S'--'
p968
sg22
S'09/26'
p969
sg24
S'7.3'
p970
sg26
S'--'
p971
sg28
S'--'
p972
sg30
S'L10-24'
p973
sg32
S'44'
p974
sg34
g221
sg35
S'@MIN'
p975
sg37
S'11'
p976
sg38
g39
sg40
S'--'
p977
ssg56
(dp978
g5
S'--'
p979
sg7
S'--'
p980
sg9
g10
sg11
S'--'
p981
sg13
g10
sg14
S'Brandon Pettigrew'
p982
sg16
S'2010'
p983
sg18
g56
sg20
S'--'
p984
sg22
S'09/19'
p985
sg24
S'15.4'
p986
sg26
S'--'
p987
sg28
S'--'
p988
sg30
S'L32-35'
p989
sg32
S'108'
p990
sg34
g112
sg35
S'PHI'
p991
sg37
S'35'
p992
sg38
g39
sg40
S'--'
p993
ssg167
(dp994
g5
S'--'
p995
sg7
S'--'
p996
sg9
g10
sg11
S'--'
p997
sg13
g10
sg14
S'Brandon Pettigrew'
p998
sg16
S'2010'
p999
sg18
g167
sg20
S'--'
p1000
sg22
S'10/10'
p1001
sg24
S'6.5'
p1002
sg26
S'--'
p1003
sg28
S'--'
p1004
sg30
S'W44-6'
p1005
sg32
S'26'
p1006
sg34
g184
sg35
S'STL'
p1007
sg37
S'12'
p1008
sg38
g10
sg40
S'--'
p1009
ssg184
(dp1010
g5
S'--'
p1011
sg7
S'--'
p1012
sg9
g10
sg11
S'--'
p1013
sg13
g10
sg14
S'Brandon Pettigrew'
p1014
sg16
S'2010'
p1015
sg18
g184
sg20
S'--'
p1016
sg22
S'10/03'
p1017
sg24
S'11.4'
p1018
sg26
S'--'
p1019
sg28
S'--'
p1020
sg30
S'L26-28'
p1021
sg32
S'91'
p1022
sg34
g33
sg35
S'@GB'
p1023
sg37
S'19'
p1024
sg38
g39
sg40
S'--'
p1025
ssg112
(dp1026
g5
g242
sg7
g242
sg9
g242
sg11
g242
sg13
g242
sg14
S'Brandon Pettigrew'
p1027
sg16
S'2010'
p1028
sg18
g112
sg20
g242
sg22
S'Bye'
p1029
sg24
g242
sg26
g242
sg28
g242
sg30
g242
sg32
g242
sg34
g242
sg35
g242
sg37
g242
sg38
g242
sg40
g242
ssg221
(dp1030
g5
S'--'
p1031
sg7
S'--'
p1032
sg9
g10
sg11
S'--'
p1033
sg13
g10
sg14
S'Brandon Pettigrew'
p1034
sg16
S'2010'
p1035
sg18
g221
sg20
S'--'
p1036
sg22
S'10/17'
p1037
sg24
S'8.7'
p1038
sg26
S'--'
p1039
sg28
S'--'
p1040
sg30
S'L20-28'
p1041
sg32
S'61'
p1042
sg34
g112
sg35
S'@NYG'
p1043
sg37
S'18'
p1044
sg38
g39
sg40
S'--'
p1045
ssg240
(dp1046
g5
S'--'
p1047
sg7
S'--'
p1048
sg9
g10
sg11
S'--'
p1049
sg13
g10
sg14
S'Brandon Pettigrew'
p1050
sg16
S'2010'
p1051
sg18
g240
sg20
S'--'
p1052
sg22
S'11/07'
p1053
sg24
S'6.0'
p1054
sg26
S'--'
p1055
sg28
S'--'
p1056
sg30
S'L20-23'
p1057
sg32
S'18'
p1058
sg34
g130
sg35
S'NYJ'
p1059
sg37
S'10T'
p1060
sg38
g10
sg40
S'--'
p1061
ssg33
(dp1062
g5
S'--'
p1063
sg7
S'--'
p1064
sg9
g10
sg11
S'--'
p1065
sg13
g10
sg14
S'Brandon Pettigrew'
p1066
sg16
S'2010'
p1067
sg18
g33
sg20
S'--'
p1068
sg22
S'10/31'
p1069
sg24
S'4.0'
p1070
sg26
S'--'
p1071
sg28
S'--'
p1072
sg30
S'W37-25'
p1073
sg32
g33
sg34
g56
sg35
S'WAS'
p1074
sg37
g221
sg38
g10
sg40
S'--'
p1075
sssS'2013'
p1076
(dp1077
g3
(dp1078
g5
S'--'
p1079
sg7
S'--'
p1080
sg9
g10
sg11
S'--'
p1081
sg13
g10
sg14
S'Brandon Pettigrew'
p1082
sg16
S'2013'
p1083
sg18
S'11'
p1084
sg20
S'--'
p1085
sg22
S'11/17'
p1086
sg24
S'12.3'
p1087
sg26
S'--'
p1088
sg28
S'--'
p1089
sg30
S'L27-37'
p1090
sg32
S'37'
p1091
sg34
g130
sg35
S'@PIT'
p1092
sg37
S'31'
p1093
sg38
g39
sg40
S'--'
p1094
ssg42
(dp1095
g5
S'--'
p1096
sg7
S'--'
p1097
sg9
g10
sg11
S'--'
p1098
sg13
g10
sg14
S'Brandon Pettigrew'
p1099
sg16
S'2013'
p1100
sg18
S'10'
p1101
sg20
S'--'
p1102
sg22
S'11/10'
p1103
sg24
S'14.0'
p1104
sg26
S'--'
p1105
sg28
S'--'
p1106
sg30
S'W21-19'
p1107
sg32
S'70'
p1108
sg34
g167
sg35
S'@CHI'
p1109
sg37
S'23'
p1110
sg38
g39
sg40
S'--'
p1111
ssg60
(dp1112
g5
S'--'
p1113
sg7
S'--'
p1114
sg9
g10
sg11
S'--'
p1115
sg13
g10
sg14
S'Brandon Pettigrew'
p1116
sg16
S'2013'
p1117
sg18
S'13'
p1118
sg20
S'--'
p1119
sg22
S'11/28'
p1120
sg24
S'6.0'
p1121
sg26
S'--'
p1122
sg28
S'--'
p1123
sg30
S'W40-10'
p1124
sg32
g221
sg34
g10
sg35
S'GB'
p1125
sg37
g221
sg38
g39
sg40
S'--'
p1126
ssg80
(dp1127
g5
S'--'
p1128
sg7
S'--'
p1129
sg9
g10
sg11
S'--'
p1130
sg13
g10
sg14
S'Brandon Pettigrew'
p1131
sg16
S'2013'
p1132
sg18
S'12'
p1133
sg20
S'--'
p1134
sg22
S'11/24'
p1135
sg24
S'10.7'
p1136
sg26
S'--'
p1137
sg28
S'--'
p1138
sg30
S'L21-24'
p1139
sg32
S'32'
p1140
sg34
g130
sg35
S'TB'
p1141
sg37
S'18T'
p1142
sg38
g10
sg40
S'--'
p1143
ssg335
(dp1144
g5
S'--'
p1145
sg7
S'--'
p1146
sg9
g10
sg11
S'--'
p1147
sg13
g10
sg14
S'Brandon Pettigrew'
p1148
sg16
S'2013'
p1149
sg18
S'15'
p1150
sg20
S'--'
p1151
sg22
S'12/16'
p1152
sg24
S'11.5'
p1153
sg26
S'--'
p1154
sg28
S'--'
p1155
sg30
S'L16-18'
p1156
sg32
S'23'
p1157
sg34
g56
sg35
S'BAL'
p1158
sg37
S'18'
p1159
sg38
g39
sg40
S'--'
p1160
ssg98
(dp1161
g5
S'--'
p1162
sg7
S'--'
p1163
sg9
g10
sg11
S'--'
p1164
sg13
g10
sg14
S'Brandon Pettigrew'
p1165
sg16
S'2013'
p1166
sg18
S'14'
p1167
sg20
S'--'
p1168
sg22
S'12/08'
p1169
sg24
S'23.0'
p1170
sg26
S'--'
p1171
sg28
S'--'
p1172
sg30
S'L20-34'
p1173
sg32
S'23'
p1174
sg34
g10
sg35
S'@PHI'
p1175
sg37
S'23'
p1176
sg38
g39
sg40
S'--'
p1177
ssg394
(dp1178
g5
S'--'
p1179
sg7
S'--'
p1180
sg9
g39
sg11
S'--'
p1181
sg13
g39
sg14
S'Brandon Pettigrew'
p1182
sg16
S'2013'
p1183
sg18
S'16'
p1184
sg20
S'--'
p1185
sg22
S'12/22'
p1186
sg24
S'--'
p1187
sg26
S'--'
p1188
sg28
S'--'
p1189
sg30
S'L20-23'
p1190
sg32
S'--'
p1191
sg34
S'--'
p1192
sg35
S'NYG'
p1193
sg37
S'--'
p1194
sg38
S'--'
p1195
sg40
S'--'
p1196
ssg10
(dp1197
g5
S'--'
p1198
sg7
S'--'
p1199
sg9
g10
sg11
g10
sg13
g10
sg14
S'Brandon Pettigrew'
p1200
sg16
S'2013'
p1201
sg18
g10
sg20
S'--'
p1202
sg22
S'09/08'
p1203
sg24
S'3.0'
p1204
sg26
g10
sg28
S'--'
p1205
sg30
S'W34-24'
p1206
sg32
g221
sg34
g56
sg35
S'MIN'
p1207
sg37
g167
sg38
g39
sg40
S'--'
p1208
ssg130
(dp1209
g5
S'--'
p1210
sg7
S'--'
p1211
sg9
g10
sg11
S'--'
p1212
sg13
g10
sg14
S'Brandon Pettigrew'
p1213
sg16
S'2013'
p1214
sg18
g130
sg20
S'--'
p1215
sg22
S'09/22'
p1216
sg24
S'--'
p1217
sg26
S'--'
p1218
sg28
S'--'
p1219
sg30
S'W27-20'
p1220
sg32
g39
sg34
g39
sg35
S'@WAS'
p1221
sg37
S'--'
p1222
sg38
g39
sg40
S'--'
p1223
ssg56
(dp1224
g5
S'--'
p1225
sg7
S'--'
p1226
sg9
g10
sg11
S'--'
p1227
sg13
g10
sg14
S'Brandon Pettigrew'
p1228
sg16
S'2013'
p1229
sg18
g56
sg20
S'--'
p1230
sg22
S'09/15'
p1231
sg24
S'10.7'
p1232
sg26
S'--'
p1233
sg28
S'--'
p1234
sg30
S'L21-25'
p1235
sg32
S'32'
p1236
sg34
g130
sg35
S'@ARI'
p1237
sg37
S'17'
p1238
sg38
g39
sg40
S'--'
p1239
ssg167
(dp1240
g5
S'--'
p1241
sg7
S'--'
p1242
sg9
g10
sg11
S'--'
p1243
sg13
g10
sg14
S'Brandon Pettigrew'
p1244
sg16
S'2013'
p1245
sg18
g167
sg20
S'--'
p1246
sg22
S'10/06'
p1247
sg24
S'14.8'
p1248
sg26
S'--'
p1249
sg28
S'--'
p1250
sg30
S'L9-22'
p1251
sg32
S'59'
p1252
sg34
g184
sg35
S'@GB'
p1253
sg37
S'25'
p1254
sg38
g39
sg40
S'--'
p1255
ssg184
(dp1256
g5
S'--'
p1257
sg7
S'--'
p1258
sg9
g10
sg11
S'--'
p1259
sg13
g10
sg14
S'Brandon Pettigrew'
p1260
sg16
S'2013'
p1261
sg18
g184
sg20
S'--'
p1262
sg22
S'09/29'
p1263
sg24
S'7.7'
p1264
sg26
S'--'
p1265
sg28
S'--'
p1266
sg30
S'W40-32'
p1267
sg32
S'54'
p1268
sg34
g112
sg35
S'CHI'
p1269
sg37
S'11'
p1270
sg38
g39
sg40
S'--'
p1271
ssg112
(dp1272
g5
S'--'
p1273
sg7
S'--'
p1274
sg9
g10
sg11
S'--'
p1275
sg13
g10
sg14
S'Brandon Pettigrew'
p1276
sg16
S'2013'
p1277
sg18
g112
sg20
S'--'
p1278
sg22
S'10/20'
p1279
sg24
S'2.3'
p1280
sg26
S'--'
p1281
sg28
S'--'
p1282
sg30
S'L24-27'
p1283
sg32
g112
sg34
g130
sg35
S'CIN'
p1284
sg37
g221
sg38
g10
sg40
S'--'
p1285
ssg221
(dp1286
g5
S'--'
p1287
sg7
S'--'
p1288
sg9
g10
sg11
S'--'
p1289
sg13
g10
sg14
S'Brandon Pettigrew'
p1290
sg16
S'2013'
p1291
sg18
g221
sg20
S'--'
p1292
sg22
S'10/13'
p1293
sg24
S'9.0'
p1294
sg26
S'--'
p1295
sg28
S'--'
p1296
sg30
S'W31-17'
p1297
sg32
S'36'
p1298
sg34
g184
sg35
S'@CLE'
p1299
sg37
S'12'
p1300
sg38
g39
sg40
S'--'
p1301
ssg240
(dp1302
g5
g242
sg7
g242
sg9
g242
sg11
g242
sg13
g242
sg14
S'Brandon Pettigrew'
p1303
sg16
S'2013'
p1304
sg18
g240
sg20
g242
sg22
S'Bye'
p1305
sg24
g242
sg26
g242
sg28
g242
sg30
g242
sg32
g242
sg34
g242
sg35
g242
sg37
g242
sg38
g242
sg40
g242
ssg33
(dp1306
g5
S'--'
p1307
sg7
S'--'
p1308
sg9
g10
sg11
S'--'
p1309
sg13
g10
sg14
S'Brandon Pettigrew'
p1310
sg16
S'2013'
p1311
sg18
g33
sg20
S'--'
p1312
sg22
S'10/27'
p1313
sg24
S'10.3'
p1314
sg26
S'--'
p1315
sg28
S'--'
p1316
sg30
S'W31-30'
p1317
sg32
S'31'
p1318
sg34
g130
sg35
S'DAL'
p1319
sg37
S'17'
p1320
sg38
g39
sg40
S'--'
p1321
sssS'2012'
p1322
(dp1323
g3
(dp1324
g5
S'--'
p1325
sg7
S'--'
p1326
sg9
g10
sg11
S'--'
p1327
sg13
g10
sg14
S'Brandon Pettigrew'
p1328
sg16
S'2012'
p1329
sg18
S'11'
p1330
sg20
S'--'
p1331
sg22
S'11/18'
p1332
sg24
S'5.5'
p1333
sg26
S'--'
p1334
sg28
S'--'
p1335
sg30
S'L20-24'
p1336
sg32
S'22'
p1337
sg34
g184
sg35
S'GB'
p1338
sg37
S'12'
p1339
sg38
g39
sg40
S'--'
p1340
ssg42
(dp1341
g5
S'--'
p1342
sg7
S'--'
p1343
sg9
g39
sg11
S'--'
p1344
sg13
g10
sg14
S'Brandon Pettigrew'
p1345
sg16
S'2012'
p1346
sg18
S'10'
p1347
sg20
S'--'
p1348
sg22
S'11/11'
p1349
sg24
S'10.7'
p1350
sg26
S'--'
p1351
sg28
S'--'
p1352
sg30
S'L24-34'
p1353
sg32
S'32'
p1354
sg34
g130
sg35
S'@MIN'
p1355
sg37
S'16T'
p1356
sg38
g10
sg40
S'--'
p1357
ssg60
(dp1358
g5
S'--'
p1359
sg7
S'--'
p1360
sg9
g10
sg11
S'--'
p1361
sg13
g10
sg14
S'Brandon Pettigrew'
p1362
sg16
S'2012'
p1363
sg18
S'13'
p1364
sg20
S'--'
p1365
sg22
S'12/02'
p1366
sg24
S'14.3'
p1367
sg26
S'--'
p1368
sg28
S'--'
p1369
sg30
S'L33-35'
p1370
sg32
S'43'
p1371
sg34
g130
sg35
S'IND'
p1372
sg37
S'17'
p1373
sg38
g10
sg40
S'--'
p1374
ssg80
(dp1375
g5
S'--'
p1376
sg7
S'--'
p1377
sg9
g10
sg11
g10
sg13
g10
sg14
S'Brandon Pettigrew'
p1378
sg16
S'2012'
p1379
sg18
S'12'
p1380
sg20
S'--'
p1381
sg22
S'11/22'
p1382
sg24
S'9.3'
p1383
sg26
g10
sg28
S'--'
p1384
sg30
S'L31-34'
p1385
sg32
S'74'
p1386
sg34
g33
sg35
S'HOU'
p1387
sg37
S'24'
p1388
sg38
g39
sg40
S'--'
p1389
ssg335
(dp1390
g5
S'--'
p1391
sg7
S'--'
p1392
sg9
g39
sg11
S'--'
p1393
sg13
g39
sg14
S'Brandon Pettigrew'
p1394
sg16
S'2012'
p1395
sg18
S'15'
p1396
sg20
S'--'
p1397
sg22
S'12/16'
p1398
sg24
S'--'
p1399
sg26
S'--'
p1400
sg28
S'--'
p1401
sg30
S'L10-38'
p1402
sg32
S'--'
p1403
sg34
S'--'
p1404
sg35
S'@ARI'
p1405
sg37
S'--'
p1406
sg38
S'--'
p1407
sg40
S'--'
p1408
ssg98
(dp1409
g5
S'--'
p1410
sg7
S'--'
p1411
sg9
g10
sg11
S'--'
p1412
sg13
g10
sg14
S'Brandon Pettigrew'
p1413
sg16
S'2012'
p1414
sg18
S'14'
p1415
sg20
S'--'
p1416
sg22
S'12/09'
p1417
sg24
S'--'
p1418
sg26
S'--'
p1419
sg28
S'--'
p1420
sg30
S'L20-27'
p1421
sg32
S'--'
p1422
sg34
S'--'
p1423
sg35
S'@GB'
p1424
sg37
S'--'
p1425
sg38
S'--'
p1426
sg40
S'--'
p1427
ssg374
(dp1428
g5
S'--'
p1429
sg7
S'--'
p1430
sg9
g39
sg11
S'--'
p1431
sg13
g10
sg14
S'Brandon Pettigrew'
p1432
sg16
S'2012'
p1433
sg18
S'17'
p1434
sg20
S'--'
p1435
sg22
S'12/30'
p1436
sg24
S'5.5'
p1437
sg26
S'--'
p1438
sg28
S'--'
p1439
sg30
S'L24-26'
p1440
sg32
S'11'
p1441
sg34
g56
sg35
S'CHI'
p1442
sg37
g221
sg38
g39
sg40
S'--'
p1443
ssg394
(dp1444
g5
S'--'
p1445
sg7
S'--'
p1446
sg9
g39
sg11
S'--'
p1447
sg13
g39
sg14
S'Brandon Pettigrew'
p1448
sg16
S'2012'
p1449
sg18
S'16'
p1450
sg20
S'--'
p1451
sg22
S'12/22'
p1452
sg24
S'--'
p1453
sg26
S'--'
p1454
sg28
S'--'
p1455
sg30
S'L18-31'
p1456
sg32
S'--'
p1457
sg34
S'--'
p1458
sg35
S'ATL'
p1459
sg37
S'--'
p1460
sg38
S'--'
p1461
sg40
S'--'
p1462
ssg10
(dp1463
g5
S'--'
p1464
sg7
S'--'
p1465
sg9
g10
sg11
S'--'
p1466
sg13
g10
sg14
S'Brandon Pettigrew'
p1467
sg16
S'2012'
p1468
sg18
g10
sg20
S'--'
p1469
sg22
S'09/09'
p1470
sg24
S'15.4'
p1471
sg26
S'--'
p1472
sg28
S'--'
p1473
sg30
S'W27-23'
p1474
sg32
S'77'
p1475
sg34
g167
sg35
S'STL'
p1476
sg37
S'24'
p1477
sg38
g39
sg40
S'--'
p1478
ssg130
(dp1479
g5
S'--'
p1480
sg7
S'--'
p1481
sg9
g10
sg11
g10
sg13
g10
sg14
S'Brandon Pettigrew'
p1482
sg16
S'2012'
p1483
sg18
g130
sg20
S'--'
p1484
sg22
S'09/23'
p1485
sg24
S'7.6'
p1486
sg26
g10
sg28
S'--'
p1487
sg30
S'L41-44'
p1488
sg32
S'61'
p1489
sg34
g33
sg35
S'@TEN'
p1490
sg37
S'17'
p1491
sg38
g39
sg40
S'--'
p1492
ssg56
(dp1493
g5
S'--'
p1494
sg7
S'--'
p1495
sg9
g10
sg11
S'--'
p1496
sg13
g10
sg14
S'Brandon Pettigrew'
p1497
sg16
S'2012'
p1498
sg18
g56
sg20
S'--'
p1499
sg22
S'09/16'
p1500
sg24
S'6.0'
p1501
sg26
S'--'
p1502
sg28
S'--'
p1503
sg30
S'L19-27'
p1504
sg32
S'18'
p1505
sg34
g130
sg35
S'@SF'
p1506
sg37
S'9T'
p1507
sg38
g10
sg40
S'--'
p1508
ssg167
(dp1509
g5
g242
sg7
g242
sg9
g242
sg11
g242
sg13
g242
sg14
S'Brandon Pettigrew'
p1510
sg16
S'2012'
p1511
sg18
g167
sg20
g242
sg22
S'Bye'
p1512
sg24
g242
sg26
g242
sg28
g242
sg30
g242
sg32
g242
sg34
g242
sg35
g242
sg37
g242
sg38
g242
sg40
g242
ssg184
(dp1513
g5
S'--'
p1514
sg7
S'--'
p1515
sg9
g10
sg11
S'--'
p1516
sg13
g10
sg14
S'Brandon Pettigrew'
p1517
sg16
S'2012'
p1518
sg18
g184
sg20
S'--'
p1519
sg22
S'09/30'
p1520
sg24
S'9.6'
p1521
sg26
S'--'
p1522
sg28
S'--'
p1523
sg30
S'L13-20'
p1524
sg32
S'67'
p1525
sg34
g112
sg35
S'MIN'
p1526
sg37
S'15'
p1527
sg38
g39
sg40
S'--'
p1528
ssg112
(dp1529
g5
S'--'
p1530
sg7
S'--'
p1531
sg9
g10
sg11
g39
sg13
g10
sg14
S'Brandon Pettigrew'
p1532
sg16
S'2012'
p1533
sg18
g112
sg20
S'--'
p1534
sg22
S'10/22'
p1535
sg24
S'7.8'
p1536
sg26
g56
sg28
S'--'
p1537
sg30
S'L7-13'
p1538
sg32
S'39'
p1539
sg34
g167
sg35
S'@CHI'
p1540
sg37
S'13'
p1541
sg38
g39
sg40
S'--'
p1542
ssg221
(dp1543
g5
S'--'
p1544
sg7
S'--'
p1545
sg9
g10
sg11
S'--'
p1546
sg13
g10
sg14
S'Brandon Pettigrew'
p1547
sg16
S'2012'
p1548
sg18
g221
sg20
S'--'
p1549
sg22
S'10/14'
p1550
sg24
S'12.7'
p1551
sg26
S'--'
p1552
sg28
S'--'
p1553
sg30
S'W26-23'
p1554
sg32
S'38'
p1555
sg34
g130
sg35
S'@PHI'
p1556
sg37
S'16'
p1557
sg38
g39
sg40
S'--'
p1558
ssg240
(dp1559
g5
S'--'
p1560
sg7
S'--'
p1561
sg9
g39
sg11
S'--'
p1562
sg13
g10
sg14
S'Brandon Pettigrew'
p1563
sg16
S'2012'
p1564
sg18
g240
sg20
S'--'
p1565
sg22
S'11/04'
p1566
sg24
S'11.0'
p1567
sg26
S'--'
p1568
sg28
S'--'
p1569
sg30
S'W31-14'
p1570
sg32
S'11'
p1571
sg34
g10
sg35
S'@JAC'
p1572
sg37
S'11'
p1573
sg38
g39
sg40
S'--'
p1574
ssg33
(dp1575
g5
S'--'
p1576
sg7
S'--'
p1577
sg9
g10
sg11
S'--'
p1578
sg13
g10
sg14
S'Brandon Pettigrew'
p1579
sg16
S'2012'
p1580
sg18
g33
sg20
S'--'
p1581
sg22
S'10/28'
p1582
sg24
S'10.6'
p1583
sg26
S'--'
p1584
sg28
S'--'
p1585
sg30
S'W28-24'
p1586
sg32
S'74'
p1587
sg34
g112
sg35
S'SEA'
p1588
sg37
S'18'
p1589
sg38
g39
sg40
S'--'
p1590
sss.