(dp0
S'2014'
p1
(dp2
S'11'
p3
(dp4
S'RushTD'
p5
S'--'
p6
sS'RushYds'
p7
S'--'
p8
sS'GS'
p9
S'0'
p10
sS'Lost'
p11
S'--'
p12
sS'G'
p13
g10
sS'Player'
p14
S'Brandon Bostick'
p15
sS'Year'
p16
S'2014'
p17
sS'WK'
p18
S'11'
p19
sS'RushAvg'
p20
S'--'
p21
sS'Game Date'
p22
S'11/16'
p23
sS'RecAvg'
p24
S'--'
p25
sS'FUM'
p26
S'--'
p27
sS'RushAtt'
p28
S'--'
p29
sS'Result'
p30
S'W53-20'
p31
sS'RecYds'
p32
S'--'
p33
sS'Rec'
p34
S'--'
p35
sS'Opp'
p36
S'PHI'
p37
sS'RecLng'
p38
S'--'
p39
sS'RecTD'
p40
S'--'
p41
sS'RushLng'
p42
S'--'
p43
ssS'10'
p44
(dp45
g5
S'--'
p46
sg7
S'--'
p47
sg9
g10
sg11
S'--'
p48
sg13
S'1'
p49
sg14
S'Brandon Bostick'
p50
sg16
S'2014'
p51
sg18
S'10'
p52
sg20
S'--'
p53
sg22
S'11/09'
p54
sg24
S'1.0'
p55
sg26
S'--'
p56
sg28
S'--'
p57
sg30
S'W55-14'
p58
sg32
g49
sg34
g49
sg36
S'CHI'
p59
sg38
S'1T'
p60
sg40
g49
sg42
S'--'
p61
ssS'13'
p62
(dp63
g5
S'--'
p64
sg7
S'--'
p65
sg9
g10
sg11
S'--'
p66
sg13
g49
sg14
S'Brandon Bostick'
p67
sg16
S'2014'
p68
sg18
S'13'
p69
sg20
S'--'
p70
sg22
S'11/30'
p71
sg24
S'--'
p72
sg26
S'--'
p73
sg28
S'--'
p74
sg30
S'W26-21'
p75
sg32
S'--'
p76
sg34
S'--'
p77
sg36
S'NE'
p78
sg38
S'--'
p79
sg40
S'--'
p80
sg42
S'--'
p81
ssS'12'
p82
(dp83
g5
S'--'
p84
sg7
S'--'
p85
sg9
g10
sg11
S'--'
p86
sg13
g10
sg14
S'Brandon Bostick'
p87
sg16
S'2014'
p88
sg18
S'12'
p89
sg20
S'--'
p90
sg22
S'11/23'
p91
sg24
S'--'
p92
sg26
S'--'
p93
sg28
S'--'
p94
sg30
S'W24-21'
p95
sg32
S'--'
p96
sg34
S'--'
p97
sg36
S'@MIN'
p98
sg38
S'--'
p99
sg40
S'--'
p100
sg42
S'--'
p101
ssS'15'
p102
(dp103
g5
S'--'
p104
sg7
S'--'
p105
sg9
g10
sg11
S'--'
p106
sg13
g49
sg14
S'Brandon Bostick'
p107
sg16
S'2014'
p108
sg18
S'15'
p109
sg20
S'--'
p110
sg22
S'12/14'
p111
sg24
S'--'
p112
sg26
S'--'
p113
sg28
S'--'
p114
sg30
S'L13-21'
p115
sg32
S'--'
p116
sg34
S'--'
p117
sg36
S'@BUF'
p118
sg38
S'--'
p119
sg40
S'--'
p120
sg42
S'--'
p121
ssS'14'
p122
(dp123
g5
S'--'
p124
sg7
S'--'
p125
sg9
g10
sg11
S'--'
p126
sg13
g49
sg14
S'Brandon Bostick'
p127
sg16
S'2014'
p128
sg18
S'14'
p129
sg20
S'--'
p130
sg22
S'12/08'
p131
sg24
S'--'
p132
sg26
S'--'
p133
sg28
S'--'
p134
sg30
S'W43-37'
p135
sg32
S'--'
p136
sg34
S'--'
p137
sg36
S'ATL'
p138
sg38
S'--'
p139
sg40
S'--'
p140
sg42
S'--'
p141
ssS'17'
p142
(dp143
g5
S'--'
p144
sg7
S'--'
p145
sg9
g10
sg11
S'--'
p146
sg13
g49
sg14
S'Brandon Bostick'
p147
sg16
S'2014'
p148
sg18
S'17'
p149
sg20
S'--'
p150
sg22
S'12/28'
p151
sg24
S'--'
p152
sg26
S'--'
p153
sg28
S'--'
p154
sg30
S'W30-20'
p155
sg32
S'--'
p156
sg34
S'--'
p157
sg36
S'DET'
p158
sg38
S'--'
p159
sg40
S'--'
p160
sg42
S'--'
p161
ssS'16'
p162
(dp163
g5
S'--'
p164
sg7
S'--'
p165
sg9
g10
sg11
S'--'
p166
sg13
g49
sg14
S'Brandon Bostick'
p167
sg16
S'2014'
p168
sg18
S'16'
p169
sg20
S'--'
p170
sg22
S'12/21'
p171
sg24
S'--'
p172
sg26
S'--'
p173
sg28
S'--'
p174
sg30
S'W20-3'
p175
sg32
S'--'
p176
sg34
S'--'
p177
sg36
S'@TB'
p178
sg38
S'--'
p179
sg40
S'--'
p180
sg42
S'--'
p181
ssg49
(dp182
g5
S'--'
p183
sg7
S'--'
p184
sg9
g10
sg11
S'--'
p185
sg13
g10
sg14
S'Brandon Bostick'
p186
sg16
S'2014'
p187
sg18
g49
sg20
S'--'
p188
sg22
S'09/04'
p189
sg24
S'--'
p190
sg26
S'--'
p191
sg28
S'--'
p192
sg30
S'L16-36'
p193
sg32
S'--'
p194
sg34
S'--'
p195
sg36
S'@SEA'
p196
sg38
S'--'
p197
sg40
S'--'
p198
sg42
S'--'
p199
ssS'3'
p200
(dp201
g5
S'--'
p202
sg7
S'--'
p203
sg9
g10
sg11
S'--'
p204
sg13
g49
sg14
S'Brandon Bostick'
p205
sg16
S'2014'
p206
sg18
g200
sg20
S'--'
p207
sg22
S'09/21'
p208
sg24
S'--'
p209
sg26
S'--'
p210
sg28
S'--'
p211
sg30
S'L7-19'
p212
sg32
S'--'
p213
sg34
S'--'
p214
sg36
S'@DET'
p215
sg38
S'--'
p216
sg40
S'--'
p217
sg42
S'--'
p218
ssS'2'
p219
(dp220
g5
S'--'
p221
sg7
S'--'
p222
sg9
g10
sg11
S'--'
p223
sg13
g49
sg14
S'Brandon Bostick'
p224
sg16
S'2014'
p225
sg18
g219
sg20
S'--'
p226
sg22
S'09/14'
p227
sg24
S'--'
p228
sg26
S'--'
p229
sg28
S'--'
p230
sg30
S'W31-24'
p231
sg32
S'--'
p232
sg34
S'--'
p233
sg36
S'NYJ'
p234
sg38
S'--'
p235
sg40
S'--'
p236
sg42
S'--'
p237
ssS'5'
p238
(dp239
g5
S'--'
p240
sg7
S'--'
p241
sg9
g10
sg11
S'--'
p242
sg13
g49
sg14
S'Brandon Bostick'
p243
sg16
S'2014'
p244
sg18
g238
sg20
S'--'
p245
sg22
S'10/02'
p246
sg24
S'--'
p247
sg26
S'--'
p248
sg28
S'--'
p249
sg30
S'W42-10'
p250
sg32
S'--'
p251
sg34
S'--'
p252
sg36
S'MIN'
p253
sg38
S'--'
p254
sg40
S'--'
p255
sg42
S'--'
p256
ssS'4'
p257
(dp258
g5
S'--'
p259
sg7
S'--'
p260
sg9
g10
sg11
S'--'
p261
sg13
g49
sg14
S'Brandon Bostick'
p262
sg16
S'2014'
p263
sg18
g257
sg20
S'--'
p264
sg22
S'09/28'
p265
sg24
S'--'
p266
sg26
S'--'
p267
sg28
S'--'
p268
sg30
S'W38-17'
p269
sg32
S'--'
p270
sg34
S'--'
p271
sg36
S'@CHI'
p272
sg38
S'--'
p273
sg40
S'--'
p274
sg42
S'--'
p275
ssS'7'
p276
(dp277
g5
S'--'
p278
sg7
S'--'
p279
sg9
g10
sg11
S'--'
p280
sg13
g49
sg14
S'Brandon Bostick'
p281
sg16
S'2014'
p282
sg18
g276
sg20
S'--'
p283
sg22
S'10/19'
p284
sg24
S'2.0'
p285
sg26
S'--'
p286
sg28
S'--'
p287
sg30
S'W38-17'
p288
sg32
g219
sg34
g49
sg36
S'CAR'
p289
sg38
g219
sg40
g10
sg42
S'--'
p290
ssS'6'
p291
(dp292
g5
S'--'
p293
sg7
S'--'
p294
sg9
g10
sg11
S'--'
p295
sg13
g49
sg14
S'Brandon Bostick'
p296
sg16
S'2014'
p297
sg18
g291
sg20
S'--'
p298
sg22
S'10/12'
p299
sg24
S'--'
p300
sg26
S'--'
p301
sg28
S'--'
p302
sg30
S'W27-24'
p303
sg32
S'--'
p304
sg34
S'--'
p305
sg36
S'@MIA'
p306
sg38
S'--'
p307
sg40
S'--'
p308
sg42
S'--'
p309
ssS'9'
p310
(dp311
g5
S''
p312
sg7
g312
sg9
g312
sg11
g312
sg13
g312
sg14
S'Brandon Bostick'
p313
sg16
S'2014'
p314
sg18
g310
sg20
g312
sg22
S'Bye'
p315
sg24
g312
sg26
g312
sg28
g312
sg30
g312
sg32
g312
sg34
g312
sg36
g312
sg38
g312
sg40
g312
sg42
g312
ssS'8'
p316
(dp317
g5
S'--'
p318
sg7
S'--'
p319
sg9
g10
sg11
S'--'
p320
sg13
g49
sg14
S'Brandon Bostick'
p321
sg16
S'2014'
p322
sg18
g316
sg20
S'--'
p323
sg22
S'10/26'
p324
sg24
S'--'
p325
sg26
S'--'
p326
sg28
S'--'
p327
sg30
S'L23-44'
p328
sg32
S'--'
p329
sg34
S'--'
p330
sg36
S'@NO'
p331
sg38
S'--'
p332
sg40
S'--'
p333
sg42
S'--'
p334
sssS'2013'
p335
(dp336
g3
(dp337
g5
S'--'
p338
sg7
S'--'
p339
sg9
g10
sg11
S'--'
p340
sg13
g49
sg14
S'Brandon Bostick'
p341
sg16
S'2013'
p342
sg18
S'11'
p343
sg20
S'--'
p344
sg22
S'11/17'
p345
sg24
S'26.0'
p346
sg26
S'--'
p347
sg28
S'--'
p348
sg30
S'L13-27'
p349
sg32
S'26'
p350
sg34
g49
sg36
S'@NYG'
p351
sg38
S'26'
p352
sg40
g10
sg42
S'--'
p353
ssg44
(dp354
g5
S'--'
p355
sg7
S'--'
p356
sg9
g10
sg11
S'--'
p357
sg13
g49
sg14
S'Brandon Bostick'
p358
sg16
S'2013'
p359
sg18
S'10'
p360
sg20
S'--'
p361
sg22
S'11/10'
p362
sg24
S'14.0'
p363
sg26
S'--'
p364
sg28
S'--'
p365
sg30
S'L13-27'
p366
sg32
S'42'
p367
sg34
g200
sg36
S'PHI'
p368
sg38
S'22T'
p369
sg40
g49
sg42
S'--'
p370
ssg62
(dp371
g5
S'--'
p372
sg7
S'--'
p373
sg9
g10
sg11
S'--'
p374
sg13
g10
sg14
S'Brandon Bostick'
p375
sg16
S'2013'
p376
sg18
S'13'
p377
sg20
S'--'
p378
sg22
S'11/28'
p379
sg24
S'--'
p380
sg26
S'--'
p381
sg28
S'--'
p382
sg30
S'L10-40'
p383
sg32
S'--'
p384
sg34
S'--'
p385
sg36
S'@DET'
p386
sg38
S'--'
p387
sg40
S'--'
p388
sg42
S'--'
p389
ssg82
(dp390
g5
S'--'
p391
sg7
S'--'
p392
sg9
g10
sg11
S'--'
p393
sg13
g49
sg14
S'Brandon Bostick'
p394
sg16
S'2013'
p395
sg18
S'12'
p396
sg20
S'--'
p397
sg22
S'11/24'
p398
sg24
S'24.0'
p399
sg26
S'--'
p400
sg28
S'--'
p401
sg30
S'T26-26'
p402
sg32
S'24'
p403
sg34
g49
sg36
S'MIN'
p404
sg38
S'24'
p405
sg40
g10
sg42
S'--'
p406
ssg102
(dp407
g5
S'--'
p408
sg7
S'--'
p409
sg9
g10
sg11
S'--'
p410
sg13
g49
sg14
S'Brandon Bostick'
p411
sg16
S'2013'
p412
sg18
S'15'
p413
sg20
S'--'
p414
sg22
S'12/15'
p415
sg24
S'--'
p416
sg26
S'--'
p417
sg28
S'--'
p418
sg30
S'W37-36'
p419
sg32
g10
sg34
g10
sg36
S'@DAL'
p420
sg38
S'--'
p421
sg40
g10
sg42
S'--'
p422
ssg122
(dp423
g5
S'--'
p424
sg7
S'--'
p425
sg9
g10
sg11
S'--'
p426
sg13
g49
sg14
S'Brandon Bostick'
p427
sg16
S'2013'
p428
sg18
S'14'
p429
sg20
S'--'
p430
sg22
S'12/08'
p431
sg24
S'14.0'
p432
sg26
S'--'
p433
sg28
S'--'
p434
sg30
S'W22-21'
p435
sg32
S'28'
p436
sg34
g219
sg36
S'ATL'
p437
sg38
S'19'
p438
sg40
g10
sg42
S'--'
p439
ssg49
(dp440
g5
S'--'
p441
sg7
S'--'
p442
sg9
g10
sg11
S'--'
p443
sg13
g10
sg14
S'Brandon Bostick'
p444
sg16
S'2013'
p445
sg18
g49
sg20
S'--'
p446
sg22
S'09/08'
p447
sg24
S'--'
p448
sg26
S'--'
p449
sg28
S'--'
p450
sg30
S'L28-34'
p451
sg32
S'--'
p452
sg34
S'--'
p453
sg36
S'@SF'
p454
sg38
S'--'
p455
sg40
S'--'
p456
sg42
S'--'
p457
ssg200
(dp458
g5
S'--'
p459
sg7
S'--'
p460
sg9
g10
sg11
S'--'
p461
sg13
g49
sg14
S'Brandon Bostick'
p462
sg16
S'2013'
p463
sg18
g200
sg20
S'--'
p464
sg22
S'09/22'
p465
sg24
S'--'
p466
sg26
S'--'
p467
sg28
S'--'
p468
sg30
S'L30-34'
p469
sg32
S'--'
p470
sg34
S'--'
p471
sg36
S'@CIN'
p472
sg38
S'--'
p473
sg40
S'--'
p474
sg42
S'--'
p475
ssg219
(dp476
g5
S'--'
p477
sg7
S'--'
p478
sg9
g10
sg11
S'--'
p479
sg13
g49
sg14
S'Brandon Bostick'
p480
sg16
S'2013'
p481
sg18
g219
sg20
S'--'
p482
sg22
S'09/15'
p483
sg24
S'--'
p484
sg26
S'--'
p485
sg28
S'--'
p486
sg30
S'W38-20'
p487
sg32
S'--'
p488
sg34
S'--'
p489
sg36
S'WAS'
p490
sg38
S'--'
p491
sg40
S'--'
p492
sg42
S'--'
p493
ssg238
(dp494
g5
S'--'
p495
sg7
S'--'
p496
sg9
g10
sg11
S'--'
p497
sg13
g10
sg14
S'Brandon Bostick'
p498
sg16
S'2013'
p499
sg18
g238
sg20
S'--'
p500
sg22
S'10/06'
p501
sg24
S'--'
p502
sg26
S'--'
p503
sg28
S'--'
p504
sg30
S'W22-9'
p505
sg32
S'--'
p506
sg34
S'--'
p507
sg36
S'DET'
p508
sg38
S'--'
p509
sg40
S'--'
p510
sg42
S'--'
p511
ssg257
(dp512
g5
g312
sg7
g312
sg9
g312
sg11
g312
sg13
g312
sg14
S'Brandon Bostick'
p513
sg16
S'2013'
p514
sg18
g257
sg20
g312
sg22
S'Bye'
p515
sg24
g312
sg26
g312
sg28
g312
sg30
g312
sg32
g312
sg34
g312
sg36
g312
sg38
g312
sg40
g312
sg42
g312
ssg276
(dp516
g5
S'--'
p517
sg7
S'--'
p518
sg9
g10
sg11
S'--'
p519
sg13
g49
sg14
S'Brandon Bostick'
p520
sg16
S'2013'
p521
sg18
g276
sg20
S'--'
p522
sg22
S'10/20'
p523
sg24
S'--'
p524
sg26
S'--'
p525
sg28
S'--'
p526
sg30
S'W31-13'
p527
sg32
S'--'
p528
sg34
S'--'
p529
sg36
S'CLE'
p530
sg38
S'--'
p531
sg40
S'--'
p532
sg42
S'--'
p533
ssg291
(dp534
g5
S'--'
p535
sg7
S'--'
p536
sg9
g10
sg11
S'--'
p537
sg13
g49
sg14
S'Brandon Bostick'
p538
sg16
S'2013'
p539
sg18
g291
sg20
S'--'
p540
sg22
S'10/13'
p541
sg24
S'--'
p542
sg26
S'--'
p543
sg28
S'--'
p544
sg30
S'W19-17'
p545
sg32
S'--'
p546
sg34
S'--'
p547
sg36
S'@BAL'
p548
sg38
S'--'
p549
sg40
S'--'
p550
sg42
S'--'
p551
ssg310
(dp552
g5
S'--'
p553
sg7
S'--'
p554
sg9
g10
sg11
S'--'
p555
sg13
g49
sg14
S'Brandon Bostick'
p556
sg16
S'2013'
p557
sg18
g310
sg20
S'--'
p558
sg22
S'11/04'
p559
sg24
S'--'
p560
sg26
S'--'
p561
sg28
S'--'
p562
sg30
S'L20-27'
p563
sg32
S'--'
p564
sg34
S'--'
p565
sg36
S'CHI'
p566
sg38
S'--'
p567
sg40
S'--'
p568
sg42
S'--'
p569
ssg316
(dp570
g5
S'--'
p571
sg7
S'--'
p572
sg9
g10
sg11
S'--'
p573
sg13
g49
sg14
S'Brandon Bostick'
p574
sg16
S'2013'
p575
sg18
g316
sg20
S'--'
p576
sg22
S'10/27'
p577
sg24
S'--'
p578
sg26
S'--'
p579
sg28
S'--'
p580
sg30
S'W44-31'
p581
sg32
S'--'
p582
sg34
S'--'
p583
sg36
S'@MIN'
p584
sg38
S'--'
p585
sg40
S'--'
p586
sg42
S'--'
p587
sss.