(dp0
S'2015'
p1
(dp2
S'15'
p3
(dp4
S'RushTD'
p5
S'--'
p6
sS'RushYds'
p7
S'--'
p8
sS'GS'
p9
S'0'
p10
sS'Lost'
p11
S'--'
p12
sS'G'
p13
S'1'
p14
sS'Player'
p15
S'Brian Leonhardt'
p16
sS'Year'
p17
S'2015'
p18
sS'WK'
p19
S'15'
p20
sS'RushAvg'
p21
S'--'
p22
sS'Game Date'
p23
S'12/20'
p24
sS'RecAvg'
p25
S'--'
p26
sS'FUM'
p27
S'--'
p28
sS'RushAtt'
p29
S'--'
p30
sS'Result'
p31
S'L14-24'
p32
sS'RecYds'
p33
S'--'
p34
sS'Rec'
p35
S'--'
p36
sS'Opp'
p37
S'CIN'
p38
sS'RecLng'
p39
S'--'
p40
sS'RecTD'
p41
S'--'
p42
sS'RushLng'
p43
S'--'
p44
ssS'14'
p45
(dp46
g5
S'--'
p47
sg7
S'--'
p48
sg9
g10
sg11
S'--'
p49
sg13
g14
sg15
S'Brian Leonhardt'
p50
sg17
S'2015'
p51
sg19
S'14'
p52
sg21
S'--'
p53
sg23
S'12/13'
p54
sg25
S'4.0'
p55
sg27
S'--'
p56
sg29
S'--'
p57
sg31
S'L10-24'
p58
sg33
S'4'
p59
sg35
g14
sg37
S'@CLE'
p60
sg39
g59
sg41
g10
sg43
S'--'
p61
ssS'17'
p62
(dp63
g5
S'--'
p64
sg7
S'--'
p65
sg9
g10
sg11
S'--'
p66
sg13
g14
sg15
S'Brian Leonhardt'
p67
sg17
S'2015'
p68
sg19
S'17'
p69
sg21
S'--'
p70
sg23
S'01/03'
p71
sg25
S'--'
p72
sg27
S'--'
p73
sg29
S'--'
p74
sg31
S'W19-16'
p75
sg33
S'--'
p76
sg35
S'--'
p77
sg37
S'STL'
p78
sg39
S'--'
p79
sg41
S'--'
p80
sg43
S'--'
p81
ssS'16'
p82
(dp83
g5
S'--'
p84
sg7
S'--'
p85
sg9
g10
sg11
S'--'
p86
sg13
g14
sg15
S'Brian Leonhardt'
p87
sg17
S'2015'
p88
sg19
S'16'
p89
sg21
S'--'
p90
sg23
S'12/27'
p91
sg25
S'--'
p92
sg27
S'--'
p93
sg29
S'--'
p94
sg31
S'L17-32'
p95
sg33
S'--'
p96
sg35
S'--'
p97
sg37
S'@DET'
p98
sg39
S'--'
p99
sg41
S'--'
p100
sg43
S'--'
p101
sssS'2014'
p102
(dp103
S'11'
p104
(dp105
g5
S'--'
p106
sg7
S'--'
p107
sg9
g10
sg11
S'--'
p108
sg13
g14
sg15
S'Brian Leonhardt'
p109
sg17
S'2014'
p110
sg19
S'11'
p111
sg21
S'--'
p112
sg23
S'11/16'
p113
sg25
S'4.0'
p114
sg27
S'--'
p115
sg29
S'--'
p116
sg31
S'L6-13'
p117
sg33
g59
sg35
g14
sg37
S'@SD'
p118
sg39
g59
sg41
g10
sg43
S'--'
p119
ssS'10'
p120
(dp121
g5
S'--'
p122
sg7
S'--'
p123
sg9
g14
sg11
S'--'
p124
sg13
g14
sg15
S'Brian Leonhardt'
p125
sg17
S'2014'
p126
sg19
S'10'
p127
sg21
S'--'
p128
sg23
S'11/09'
p129
sg25
S'5.0'
p130
sg27
S'--'
p131
sg29
S'--'
p132
sg31
S'L17-41'
p133
sg33
S'5'
p134
sg35
g14
sg37
S'DEN'
p135
sg39
g134
sg41
g10
sg43
S'--'
p136
ssS'13'
p137
(dp138
g5
S'--'
p139
sg7
S'--'
p140
sg9
g10
sg11
S'--'
p141
sg13
g14
sg15
S'Brian Leonhardt'
p142
sg17
S'2014'
p143
sg19
S'13'
p144
sg21
S'--'
p145
sg23
S'11/30'
p146
sg25
S'--'
p147
sg27
S'--'
p148
sg29
S'--'
p149
sg31
S'L0-52'
p150
sg33
S'--'
p151
sg35
S'--'
p152
sg37
S'@STL'
p153
sg39
S'--'
p154
sg41
S'--'
p155
sg43
S'--'
p156
ssS'12'
p157
(dp158
g5
S'--'
p159
sg7
S'--'
p160
sg9
g14
sg11
S'--'
p161
sg13
g14
sg15
S'Brian Leonhardt'
p162
sg17
S'2014'
p163
sg19
S'12'
p164
sg21
S'--'
p165
sg23
S'11/20'
p166
sg25
S'--'
p167
sg27
S'--'
p168
sg29
S'--'
p169
sg31
S'W24-20'
p170
sg33
S'--'
p171
sg35
S'--'
p172
sg37
S'KC'
p173
sg39
S'--'
p174
sg41
S'--'
p175
sg43
S'--'
p176
ssg3
(dp177
g5
S'--'
p178
sg7
S'--'
p179
sg9
g10
sg11
S'--'
p180
sg13
g10
sg15
S'Brian Leonhardt'
p181
sg17
S'2014'
p182
sg19
S'15'
p183
sg21
S'--'
p184
sg23
S'12/14'
p185
sg25
S'--'
p186
sg27
S'--'
p187
sg29
S'--'
p188
sg31
S'L13-31'
p189
sg33
S'--'
p190
sg35
S'--'
p191
sg37
S'@KC'
p192
sg39
S'--'
p193
sg41
S'--'
p194
sg43
S'--'
p195
ssg45
(dp196
g5
S'--'
p197
sg7
S'--'
p198
sg9
g10
sg11
S'--'
p199
sg13
g10
sg15
S'Brian Leonhardt'
p200
sg17
S'2014'
p201
sg19
S'14'
p202
sg21
S'--'
p203
sg23
S'12/07'
p204
sg25
S'--'
p205
sg27
S'--'
p206
sg29
S'--'
p207
sg31
S'W24-13'
p208
sg33
S'--'
p209
sg35
S'--'
p210
sg37
S'SF'
p211
sg39
S'--'
p212
sg41
S'--'
p213
sg43
S'--'
p214
ssg82
(dp215
g5
S'--'
p216
sg7
S'--'
p217
sg9
g10
sg11
S'--'
p218
sg13
g10
sg15
S'Brian Leonhardt'
p219
sg17
S'2014'
p220
sg19
S'16'
p221
sg21
S'--'
p222
sg23
S'12/21'
p223
sg25
S'--'
p224
sg27
S'--'
p225
sg29
S'--'
p226
sg31
S'W26-24'
p227
sg33
S'--'
p228
sg35
S'--'
p229
sg37
S'BUF'
p230
sg39
S'--'
p231
sg41
S'--'
p232
sg43
S'--'
p233
ssg14
(dp234
g5
S'--'
p235
sg7
S'--'
p236
sg9
g10
sg11
S'--'
p237
sg13
g14
sg15
S'Brian Leonhardt'
p238
sg17
S'2014'
p239
sg19
g14
sg21
S'--'
p240
sg23
S'09/07'
p241
sg25
S'12.0'
p242
sg27
S'--'
p243
sg29
S'--'
p244
sg31
S'L14-19'
p245
sg33
S'12'
p246
sg35
g14
sg37
S'@NYJ'
p247
sg39
S'12'
p248
sg41
g10
sg43
S'--'
p249
ssS'3'
p250
(dp251
g5
S'--'
p252
sg7
S'--'
p253
sg9
g10
sg11
S'--'
p254
sg13
g14
sg15
S'Brian Leonhardt'
p255
sg17
S'2014'
p256
sg19
g250
sg21
S'--'
p257
sg23
S'09/21'
p258
sg25
S'7.0'
p259
sg27
S'--'
p260
sg29
S'--'
p261
sg31
S'L9-16'
p262
sg33
S'7'
p263
sg35
g14
sg37
S'@NE'
p264
sg39
g263
sg41
g10
sg43
S'--'
p265
ssS'2'
p266
(dp267
g5
S'--'
p268
sg7
S'--'
p269
sg9
g10
sg11
S'--'
p270
sg13
g14
sg15
S'Brian Leonhardt'
p271
sg17
S'2014'
p272
sg19
g266
sg21
S'--'
p273
sg23
S'09/14'
p274
sg25
S'--'
p275
sg27
S'--'
p276
sg29
S'--'
p277
sg31
S'L14-30'
p278
sg33
S'--'
p279
sg35
S'--'
p280
sg37
S'HOU'
p281
sg39
S'--'
p282
sg41
S'--'
p283
sg43
S'--'
p284
ssg134
(dp285
g5
S''
p286
sg7
g286
sg9
g286
sg11
g286
sg13
g286
sg15
S'Brian Leonhardt'
p287
sg17
S'2014'
p288
sg19
g134
sg21
g286
sg23
S'Bye'
p289
sg25
g286
sg27
g286
sg29
g286
sg31
g286
sg33
g286
sg35
g286
sg37
g286
sg39
g286
sg41
g286
sg43
g286
ssg59
(dp290
g5
S'--'
p291
sg7
S'--'
p292
sg9
g10
sg11
S'--'
p293
sg13
g14
sg15
S'Brian Leonhardt'
p294
sg17
S'2014'
p295
sg19
g59
sg21
S'--'
p296
sg23
S'09/28'
p297
sg25
S'3.0'
p298
sg27
S'--'
p299
sg29
S'--'
p300
sg31
S'L14-38'
p301
sg33
g250
sg35
g14
sg37
S'MIA'
p302
sg39
S'3T'
p303
sg41
g14
sg43
S'--'
p304
ssg263
(dp305
g5
S'--'
p306
sg7
S'--'
p307
sg9
g10
sg11
S'--'
p308
sg13
g14
sg15
S'Brian Leonhardt'
p309
sg17
S'2014'
p310
sg19
g263
sg21
S'--'
p311
sg23
S'10/19'
p312
sg25
S'4.0'
p313
sg27
S'--'
p314
sg29
S'--'
p315
sg31
S'L13-24'
p316
sg33
g59
sg35
g14
sg37
S'ARI'
p317
sg39
g59
sg41
g10
sg43
S'--'
p318
ssS'6'
p319
(dp320
g5
S'--'
p321
sg7
S'--'
p322
sg9
g10
sg11
S'--'
p323
sg13
g14
sg15
S'Brian Leonhardt'
p324
sg17
S'2014'
p325
sg19
g319
sg21
S'--'
p326
sg23
S'10/12'
p327
sg25
S'--'
p328
sg27
S'--'
p329
sg29
S'--'
p330
sg31
S'L28-31'
p331
sg33
S'--'
p332
sg35
S'--'
p333
sg37
S'SD'
p334
sg39
S'--'
p335
sg41
S'--'
p336
sg43
S'--'
p337
ssS'9'
p338
(dp339
g5
S'--'
p340
sg7
S'--'
p341
sg9
g14
sg11
S'--'
p342
sg13
g14
sg15
S'Brian Leonhardt'
p343
sg17
S'2014'
p344
sg19
g338
sg21
S'--'
p345
sg23
S'11/02'
p346
sg25
S'--'
p347
sg27
S'--'
p348
sg29
S'--'
p349
sg31
S'L24-30'
p350
sg33
g10
sg35
g10
sg37
S'@SEA'
p351
sg39
S'--'
p352
sg41
g10
sg43
S'--'
p353
ssS'8'
p354
(dp355
g5
S'--'
p356
sg7
S'--'
p357
sg9
g10
sg11
S'--'
p358
sg13
g14
sg15
S'Brian Leonhardt'
p359
sg17
S'2014'
p360
sg19
g354
sg21
S'--'
p361
sg23
S'10/26'
p362
sg25
S'--'
p363
sg27
S'--'
p364
sg29
S'--'
p365
sg31
S'L13-23'
p366
sg33
S'--'
p367
sg35
S'--'
p368
sg37
S'@CLE'
p369
sg39
S'--'
p370
sg41
S'--'
p371
sg43
S'--'
p372
sss.