(dp0
S'2015'
p1
(dp2
S'11'
p3
(dp4
S'RushTD'
p5
S'--'
p6
sS'RushYds'
p7
S'--'
p8
sS'GS'
p9
S'0'
p10
sS'Lost'
p11
S'--'
p12
sS'G'
p13
S'1'
p14
sS'Player'
p15
S'Brian Parker'
p16
sS'Year'
p17
S'2015'
p18
sS'WK'
p19
S'11'
p20
sS'RushAvg'
p21
S'--'
p22
sS'Game Date'
p23
S'11/22'
p24
sS'RecAvg'
p25
S'--'
p26
sS'FUM'
p27
S'--'
p28
sS'RushAtt'
p29
S'--'
p30
sS'Result'
p31
S'W33-3'
p32
sS'RecYds'
p33
S'--'
p34
sS'Rec'
p35
S'--'
p36
sS'Opp'
p37
S'@SD'
p38
sS'RecLng'
p39
S'--'
p40
sS'RecTD'
p41
S'--'
p42
sS'RushLng'
p43
S'--'
p44
ssS'10'
p45
(dp46
g5
S'--'
p47
sg7
S'--'
p48
sg9
g10
sg11
S'--'
p49
sg13
g14
sg15
S'Brian Parker'
p50
sg17
S'2015'
p51
sg19
S'10'
p52
sg21
S'--'
p53
sg23
S'11/15'
p54
sg25
S'6.0'
p55
sg27
S'--'
p56
sg29
S'--'
p57
sg31
S'W29-13'
p58
sg33
S'6'
p59
sg35
g14
sg37
S'@DEN'
p60
sg39
g59
sg41
g10
sg43
S'--'
p61
ssS'13'
p62
(dp63
g5
S'--'
p64
sg7
S'--'
p65
sg9
g10
sg11
S'--'
p66
sg13
g14
sg15
S'Brian Parker'
p67
sg17
S'2015'
p68
sg19
S'13'
p69
sg21
S'--'
p70
sg23
S'12/06'
p71
sg25
S'--'
p72
sg27
S'--'
p73
sg29
S'--'
p74
sg31
S'W34-20'
p75
sg33
S'--'
p76
sg35
S'--'
p77
sg37
S'@OAK'
p78
sg39
S'--'
p79
sg41
S'--'
p80
sg43
S'--'
p81
ssS'12'
p82
(dp83
g5
S'--'
p84
sg7
S'--'
p85
sg9
g10
sg11
S'--'
p86
sg13
g14
sg15
S'Brian Parker'
p87
sg17
S'2015'
p88
sg19
S'12'
p89
sg21
S'--'
p90
sg23
S'11/29'
p91
sg25
S'--'
p92
sg27
S'--'
p93
sg29
S'--'
p94
sg31
S'W30-22'
p95
sg33
S'--'
p96
sg35
S'--'
p97
sg37
S'BUF'
p98
sg39
S'--'
p99
sg41
S'--'
p100
sg43
S'--'
p101
ssS'15'
p102
(dp103
g5
S'--'
p104
sg7
S'--'
p105
sg9
g10
sg11
S'--'
p106
sg13
g14
sg15
S'Brian Parker'
p107
sg17
S'2015'
p108
sg19
S'15'
p109
sg21
S'--'
p110
sg23
S'12/20'
p111
sg25
S'--'
p112
sg27
S'--'
p113
sg29
S'--'
p114
sg31
S'W34-14'
p115
sg33
S'--'
p116
sg35
S'--'
p117
sg37
S'@BAL'
p118
sg39
S'--'
p119
sg41
S'--'
p120
sg43
S'--'
p121
ssS'14'
p122
(dp123
g5
S'--'
p124
sg7
S'--'
p125
sg9
g10
sg11
S'--'
p126
sg13
g14
sg15
S'Brian Parker'
p127
sg17
S'2015'
p128
sg19
S'14'
p129
sg21
S'--'
p130
sg23
S'12/13'
p131
sg25
S'--'
p132
sg27
S'--'
p133
sg29
S'--'
p134
sg31
S'W10-3'
p135
sg33
S'--'
p136
sg35
S'--'
p137
sg37
S'SD'
p138
sg39
S'--'
p139
sg41
S'--'
p140
sg43
S'--'
p141
ssS'17'
p142
(dp143
g5
S'--'
p144
sg7
S'--'
p145
sg9
g10
sg11
S'--'
p146
sg13
g14
sg15
S'Brian Parker'
p147
sg17
S'2015'
p148
sg19
S'17'
p149
sg21
S'--'
p150
sg23
S'01/03'
p151
sg25
S'--'
p152
sg27
S'--'
p153
sg29
S'--'
p154
sg31
S'W23-17'
p155
sg33
S'--'
p156
sg35
S'--'
p157
sg37
S'OAK'
p158
sg39
S'--'
p159
sg41
S'--'
p160
sg43
S'--'
p161
ssS'16'
p162
(dp163
g5
S'--'
p164
sg7
S'--'
p165
sg9
g10
sg11
S'--'
p166
sg13
g14
sg15
S'Brian Parker'
p167
sg17
S'2015'
p168
sg19
S'16'
p169
sg21
S'--'
p170
sg23
S'12/27'
p171
sg25
S'--'
p172
sg27
S'--'
p173
sg29
S'--'
p174
sg31
S'W17-13'
p175
sg33
g10
sg35
g10
sg37
S'CLE'
p176
sg39
S'--'
p177
sg41
g10
sg43
S'--'
p178
ssg14
(dp179
g5
S'--'
p180
sg7
S'--'
p181
sg9
g10
sg11
S'--'
p182
sg13
g10
sg15
S'Brian Parker'
p183
sg17
S'2015'
p184
sg19
g14
sg21
S'--'
p185
sg23
S'09/13'
p186
sg25
S'--'
p187
sg27
S'--'
p188
sg29
S'--'
p189
sg31
S'W27-20'
p190
sg33
S'--'
p191
sg35
S'--'
p192
sg37
S'@HOU'
p193
sg39
S'--'
p194
sg41
S'--'
p195
sg43
S'--'
p196
ssS'3'
p197
(dp198
g5
S'--'
p199
sg7
S'--'
p200
sg9
g10
sg11
S'--'
p201
sg13
g10
sg15
S'Brian Parker'
p202
sg17
S'2015'
p203
sg19
g197
sg21
S'--'
p204
sg23
S'09/28'
p205
sg25
S'--'
p206
sg27
S'--'
p207
sg29
S'--'
p208
sg31
S'L28-38'
p209
sg33
S'--'
p210
sg35
S'--'
p211
sg37
S'@GB'
p212
sg39
S'--'
p213
sg41
S'--'
p214
sg43
S'--'
p215
ssS'2'
p216
(dp217
g5
S'--'
p218
sg7
S'--'
p219
sg9
g10
sg11
S'--'
p220
sg13
g10
sg15
S'Brian Parker'
p221
sg17
S'2015'
p222
sg19
g216
sg21
S'--'
p223
sg23
S'09/17'
p224
sg25
S'--'
p225
sg27
S'--'
p226
sg29
S'--'
p227
sg31
S'L24-31'
p228
sg33
S'--'
p229
sg35
S'--'
p230
sg37
S'DEN'
p231
sg39
S'--'
p232
sg41
S'--'
p233
sg43
S'--'
p234
ssS'5'
p235
(dp236
g5
S'--'
p237
sg7
S'--'
p238
sg9
g10
sg11
S'--'
p239
sg13
g10
sg15
S'Brian Parker'
p240
sg17
S'2015'
p241
sg19
g235
sg21
S'--'
p242
sg23
S'10/11'
p243
sg25
S'--'
p244
sg27
S'--'
p245
sg29
S'--'
p246
sg31
S'L17-18'
p247
sg33
S'--'
p248
sg35
S'--'
p249
sg37
S'CHI'
p250
sg39
S'--'
p251
sg41
S'--'
p252
sg43
S'--'
p253
ssS'4'
p254
(dp255
g5
S'--'
p256
sg7
S'--'
p257
sg9
g10
sg11
S'--'
p258
sg13
g10
sg15
S'Brian Parker'
p259
sg17
S'2015'
p260
sg19
g254
sg21
S'--'
p261
sg23
S'10/04'
p262
sg25
S'--'
p263
sg27
S'--'
p264
sg29
S'--'
p265
sg31
S'L21-36'
p266
sg33
S'--'
p267
sg35
S'--'
p268
sg37
S'@CIN'
p269
sg39
S'--'
p270
sg41
S'--'
p271
sg43
S'--'
p272
ssS'7'
p273
(dp274
g5
S'--'
p275
sg7
S'--'
p276
sg9
g10
sg11
S'--'
p277
sg13
g10
sg15
S'Brian Parker'
p278
sg17
S'2015'
p279
sg19
g273
sg21
S'--'
p280
sg23
S'10/25'
p281
sg25
S'--'
p282
sg27
S'--'
p283
sg29
S'--'
p284
sg31
S'W23-13'
p285
sg33
S'--'
p286
sg35
S'--'
p287
sg37
S'PIT'
p288
sg39
S'--'
p289
sg41
S'--'
p290
sg43
S'--'
p291
ssg59
(dp292
g5
S'--'
p293
sg7
S'--'
p294
sg9
g10
sg11
S'--'
p295
sg13
g10
sg15
S'Brian Parker'
p296
sg17
S'2015'
p297
sg19
g59
sg21
S'--'
p298
sg23
S'10/18'
p299
sg25
S'--'
p300
sg27
S'--'
p301
sg29
S'--'
p302
sg31
S'L10-16'
p303
sg33
S'--'
p304
sg35
S'--'
p305
sg37
S'@MIN'
p306
sg39
S'--'
p307
sg41
S'--'
p308
sg43
S'--'
p309
ssS'9'
p310
(dp311
g5
S''
p312
sg7
g312
sg9
g312
sg11
g312
sg13
g312
sg15
S'Brian Parker'
p313
sg17
S'2015'
p314
sg19
g310
sg21
g312
sg23
S'Bye'
p315
sg25
g312
sg27
g312
sg29
g312
sg31
g312
sg33
g312
sg35
g312
sg37
g312
sg39
g312
sg41
g312
sg43
g312
ssS'8'
p316
(dp317
g5
S'--'
p318
sg7
S'--'
p319
sg9
g10
sg11
S'--'
p320
sg13
g14
sg15
S'Brian Parker'
p321
sg17
S'2015'
p322
sg19
g316
sg21
S'--'
p323
sg23
S'11/01'
p324
sg25
S'--'
p325
sg27
S'--'
p326
sg29
S'--'
p327
sg31
S'W45-10'
p328
sg33
S'--'
p329
sg35
S'--'
p330
sg37
S'DET'
p331
sg39
S'--'
p332
sg41
S'--'
p333
sg43
S'--'
p334
sss.