(dp0
S'2015'
p1
(dp2
S'11'
p3
(dp4
S'RushTD'
p5
S'--'
p6
sS'RushYds'
p7
S'--'
p8
sS'GS'
p9
S'0'
p10
sS'Lost'
p11
S'--'
p12
sS'G'
p13
g10
sS'Player'
p14
S'C.J. Uzomah'
p15
sS'Year'
p16
S'2015'
p17
sS'WK'
p18
S'11'
p19
sS'RushAvg'
p20
S'--'
p21
sS'Game Date'
p22
S'11/22'
p23
sS'RecAvg'
p24
S'--'
p25
sS'FUM'
p26
S'--'
p27
sS'RushAtt'
p28
S'--'
p29
sS'Result'
p30
S'L31-34'
p31
sS'RecYds'
p32
S'--'
p33
sS'Rec'
p34
S'--'
p35
sS'Opp'
p36
S'@ARI'
p37
sS'RecLng'
p38
S'--'
p39
sS'RecTD'
p40
S'--'
p41
sS'RushLng'
p42
S'--'
p43
ssS'10'
p44
(dp45
g5
S'--'
p46
sg7
S'--'
p47
sg9
g10
sg11
S'--'
p48
sg13
g10
sg14
S'C.J. Uzomah'
p49
sg16
S'2015'
p50
sg18
S'10'
p51
sg20
S'--'
p52
sg22
S'11/16'
p53
sg24
S'--'
p54
sg26
S'--'
p55
sg28
S'--'
p56
sg30
S'L6-10'
p57
sg32
S'--'
p58
sg34
S'--'
p59
sg36
S'HOU'
p60
sg38
S'--'
p61
sg40
S'--'
p62
sg42
S'--'
p63
ssS'13'
p64
(dp65
g5
S'--'
p66
sg7
S'--'
p67
sg9
g10
sg11
S'--'
p68
sg13
S'1'
p69
sg14
S'C.J. Uzomah'
p70
sg16
S'2015'
p71
sg18
S'13'
p72
sg20
S'--'
p73
sg22
S'12/06'
p74
sg24
S'4.0'
p75
sg26
S'--'
p76
sg28
S'--'
p77
sg30
S'W37-3'
p78
sg32
S'4'
p79
sg34
g69
sg36
S'@CLE'
p80
sg38
g79
sg40
g10
sg42
S'--'
p81
ssS'12'
p82
(dp83
g5
S'--'
p84
sg7
S'--'
p85
sg9
g10
sg11
S'--'
p86
sg13
g10
sg14
S'C.J. Uzomah'
p87
sg16
S'2015'
p88
sg18
S'12'
p89
sg20
S'--'
p90
sg22
S'11/29'
p91
sg24
S'--'
p92
sg26
S'--'
p93
sg28
S'--'
p94
sg30
S'W31-7'
p95
sg32
S'--'
p96
sg34
S'--'
p97
sg36
S'STL'
p98
sg38
S'--'
p99
sg40
S'--'
p100
sg42
S'--'
p101
ssS'15'
p102
(dp103
g5
S'--'
p104
sg7
S'--'
p105
sg9
g10
sg11
S'--'
p106
sg13
g69
sg14
S'C.J. Uzomah'
p107
sg16
S'2015'
p108
sg18
S'15'
p109
sg20
S'--'
p110
sg22
S'12/20'
p111
sg24
S'--'
p112
sg26
S'--'
p113
sg28
S'--'
p114
sg30
S'W24-14'
p115
sg32
S'--'
p116
sg34
S'--'
p117
sg36
S'@SF'
p118
sg38
S'--'
p119
sg40
S'--'
p120
sg42
S'--'
p121
ssS'14'
p122
(dp123
g5
S'--'
p124
sg7
S'--'
p125
sg9
g10
sg11
S'--'
p126
sg13
g69
sg14
S'C.J. Uzomah'
p127
sg16
S'2015'
p128
sg18
S'14'
p129
sg20
S'--'
p130
sg22
S'12/13'
p131
sg24
S'--'
p132
sg26
S'--'
p133
sg28
S'--'
p134
sg30
S'L20-33'
p135
sg32
S'--'
p136
sg34
S'--'
p137
sg36
S'PIT'
p138
sg38
S'--'
p139
sg40
S'--'
p140
sg42
S'--'
p141
ssS'17'
p142
(dp143
g5
S'--'
p144
sg7
S'--'
p145
sg9
g10
sg11
S'--'
p146
sg13
g69
sg14
S'C.J. Uzomah'
p147
sg16
S'2015'
p148
sg18
S'17'
p149
sg20
S'--'
p150
sg22
S'01/03'
p151
sg24
S'--'
p152
sg26
S'--'
p153
sg28
S'--'
p154
sg30
S'W24-16'
p155
sg32
S'--'
p156
sg34
S'--'
p157
sg36
S'BAL'
p158
sg38
S'--'
p159
sg40
S'--'
p160
sg42
S'--'
p161
ssS'16'
p162
(dp163
g5
S'--'
p164
sg7
S'--'
p165
sg9
g10
sg11
S'--'
p166
sg13
g69
sg14
S'C.J. Uzomah'
p167
sg16
S'2015'
p168
sg18
S'16'
p169
sg20
S'--'
p170
sg22
S'12/28'
p171
sg24
S'--'
p172
sg26
S'--'
p173
sg28
S'--'
p174
sg30
S'L17-20'
p175
sg32
S'--'
p176
sg34
S'--'
p177
sg36
S'@DEN'
p178
sg38
S'--'
p179
sg40
S'--'
p180
sg42
S'--'
p181
ssg69
(dp182
g5
S'--'
p183
sg7
S'--'
p184
sg9
g10
sg11
S'--'
p185
sg13
g10
sg14
S'C.J. Uzomah'
p186
sg16
S'2015'
p187
sg18
g69
sg20
S'--'
p188
sg22
S'09/13'
p189
sg24
S'--'
p190
sg26
S'--'
p191
sg28
S'--'
p192
sg30
S'W33-13'
p193
sg32
S'--'
p194
sg34
S'--'
p195
sg36
S'@OAK'
p196
sg38
S'--'
p197
sg40
S'--'
p198
sg42
S'--'
p199
ssS'3'
p200
(dp201
g5
S'--'
p202
sg7
S'--'
p203
sg9
g10
sg11
S'--'
p204
sg13
g10
sg14
S'C.J. Uzomah'
p205
sg16
S'2015'
p206
sg18
g200
sg20
S'--'
p207
sg22
S'09/27'
p208
sg24
S'--'
p209
sg26
S'--'
p210
sg28
S'--'
p211
sg30
S'W28-24'
p212
sg32
S'--'
p213
sg34
S'--'
p214
sg36
S'@BAL'
p215
sg38
S'--'
p216
sg40
S'--'
p217
sg42
S'--'
p218
ssS'2'
p219
(dp220
g5
S'--'
p221
sg7
S'--'
p222
sg9
g10
sg11
S'--'
p223
sg13
g10
sg14
S'C.J. Uzomah'
p224
sg16
S'2015'
p225
sg18
g219
sg20
S'--'
p226
sg22
S'09/20'
p227
sg24
S'--'
p228
sg26
S'--'
p229
sg28
S'--'
p230
sg30
S'W24-19'
p231
sg32
S'--'
p232
sg34
S'--'
p233
sg36
S'SD'
p234
sg38
S'--'
p235
sg40
S'--'
p236
sg42
S'--'
p237
ssS'5'
p238
(dp239
g5
S'--'
p240
sg7
S'--'
p241
sg9
g10
sg11
S'--'
p242
sg13
g10
sg14
S'C.J. Uzomah'
p243
sg16
S'2015'
p244
sg18
g238
sg20
S'--'
p245
sg22
S'10/11'
p246
sg24
S'--'
p247
sg26
S'--'
p248
sg28
S'--'
p249
sg30
S'W27-24'
p250
sg32
S'--'
p251
sg34
S'--'
p252
sg36
S'SEA'
p253
sg38
S'--'
p254
sg40
S'--'
p255
sg42
S'--'
p256
ssg79
(dp257
g5
S'--'
p258
sg7
S'--'
p259
sg9
g10
sg11
S'--'
p260
sg13
g10
sg14
S'C.J. Uzomah'
p261
sg16
S'2015'
p262
sg18
g79
sg20
S'--'
p263
sg22
S'10/04'
p264
sg24
S'--'
p265
sg26
S'--'
p266
sg28
S'--'
p267
sg30
S'W36-21'
p268
sg32
S'--'
p269
sg34
S'--'
p270
sg36
S'KC'
p271
sg38
S'--'
p272
sg40
S'--'
p273
sg42
S'--'
p274
ssS'7'
p275
(dp276
g5
S''
p277
sg7
g277
sg9
g277
sg11
g277
sg13
g277
sg14
S'C.J. Uzomah'
p278
sg16
S'2015'
p279
sg18
g275
sg20
g277
sg22
S'Bye'
p280
sg24
g277
sg26
g277
sg28
g277
sg30
g277
sg32
g277
sg34
g277
sg36
g277
sg38
g277
sg40
g277
sg42
g277
ssS'6'
p281
(dp282
g5
S'--'
p283
sg7
S'--'
p284
sg9
g10
sg11
S'--'
p285
sg13
g10
sg14
S'C.J. Uzomah'
p286
sg16
S'2015'
p287
sg18
g281
sg20
S'--'
p288
sg22
S'10/18'
p289
sg24
S'--'
p290
sg26
S'--'
p291
sg28
S'--'
p292
sg30
S'W34-21'
p293
sg32
S'--'
p294
sg34
S'--'
p295
sg36
S'@BUF'
p296
sg38
S'--'
p297
sg40
S'--'
p298
sg42
S'--'
p299
ssS'9'
p300
(dp301
g5
S'--'
p302
sg7
S'--'
p303
sg9
g10
sg11
S'--'
p304
sg13
g10
sg14
S'C.J. Uzomah'
p305
sg16
S'2015'
p306
sg18
g300
sg20
S'--'
p307
sg22
S'11/05'
p308
sg24
S'--'
p309
sg26
S'--'
p310
sg28
S'--'
p311
sg30
S'W31-10'
p312
sg32
S'--'
p313
sg34
S'--'
p314
sg36
S'CLE'
p315
sg38
S'--'
p316
sg40
S'--'
p317
sg42
S'--'
p318
ssS'8'
p319
(dp320
g5
S'--'
p321
sg7
S'--'
p322
sg9
g10
sg11
S'--'
p323
sg13
g10
sg14
S'C.J. Uzomah'
p324
sg16
S'2015'
p325
sg18
g319
sg20
S'--'
p326
sg22
S'11/01'
p327
sg24
S'--'
p328
sg26
S'--'
p329
sg28
S'--'
p330
sg30
S'W16-10'
p331
sg32
S'--'
p332
sg34
S'--'
p333
sg36
S'@PIT'
p334
sg38
S'--'
p335
sg40
S'--'
p336
sg42
S'--'
p337
sss.