(dp0
S'2015'
p1
(dp2
S'11'
p3
(dp4
S'RushTD'
p5
S'--'
p6
sS'RushYds'
p7
S'--'
p8
sS'GS'
p9
S'1'
p10
sS'Lost'
p11
S'--'
p12
sS'G'
p13
g10
sS'Player'
p14
S'C.J. Fiedorowicz'
p15
sS'Year'
p16
S'2015'
p17
sS'WK'
p18
S'11'
p19
sS'RushAvg'
p20
S'--'
p21
sS'Game Date'
p22
S'11/22'
p23
sS'RecAvg'
p24
S'--'
p25
sS'FUM'
p26
S'--'
p27
sS'RushAtt'
p28
S'--'
p29
sS'Result'
p30
S'W24-17'
p31
sS'RecYds'
p32
S'--'
p33
sS'Rec'
p34
S'--'
p35
sS'Opp'
p36
S'NYJ'
p37
sS'RecLng'
p38
S'--'
p39
sS'RecTD'
p40
S'--'
p41
sS'RushLng'
p42
S'--'
p43
ssS'10'
p44
(dp45
g5
S'--'
p46
sg7
S'--'
p47
sg9
S'0'
p48
sg11
S'--'
p49
sg13
g10
sg14
S'C.J. Fiedorowicz'
p50
sg16
S'2015'
p51
sg18
S'10'
p52
sg20
S'--'
p53
sg22
S'11/16'
p54
sg24
S'15.0'
p55
sg26
S'--'
p56
sg28
S'--'
p57
sg30
S'W10-6'
p58
sg32
S'30'
p59
sg34
S'2'
p60
sg36
S'@CIN'
p61
sg38
S'25'
p62
sg40
g48
sg42
S'--'
p63
ssS'13'
p64
(dp65
g5
S'--'
p66
sg7
S'--'
p67
sg9
g10
sg11
S'--'
p68
sg13
g10
sg14
S'C.J. Fiedorowicz'
p69
sg16
S'2015'
p70
sg18
S'13'
p71
sg20
S'--'
p72
sg22
S'12/06'
p73
sg24
S'8.0'
p74
sg26
S'--'
p75
sg28
S'--'
p76
sg30
S'L21-30'
p77
sg32
S'8'
p78
sg34
g10
sg36
S'@BUF'
p79
sg38
g78
sg40
g48
sg42
S'--'
p80
ssS'12'
p81
(dp82
g5
S'--'
p83
sg7
S'--'
p84
sg9
g10
sg11
S'--'
p85
sg13
g10
sg14
S'C.J. Fiedorowicz'
p86
sg16
S'2015'
p87
sg18
S'12'
p88
sg20
S'--'
p89
sg22
S'11/29'
p90
sg24
S'10.0'
p91
sg26
S'--'
p92
sg28
S'--'
p93
sg30
S'W24-6'
p94
sg32
S'20'
p95
sg34
g60
sg36
S'NO'
p96
sg38
S'14'
p97
sg40
g48
sg42
S'--'
p98
ssS'15'
p99
(dp100
g5
S'--'
p101
sg7
S'--'
p102
sg9
g10
sg11
S'--'
p103
sg13
g10
sg14
S'C.J. Fiedorowicz'
p104
sg16
S'2015'
p105
sg18
S'15'
p106
sg20
S'--'
p107
sg22
S'12/20'
p108
sg24
S'--'
p109
sg26
S'--'
p110
sg28
S'--'
p111
sg30
S'W16-10'
p112
sg32
g48
sg34
g48
sg36
S'@IND'
p113
sg38
S'--'
p114
sg40
g48
sg42
S'--'
p115
ssS'14'
p116
(dp117
g5
S'--'
p118
sg7
S'--'
p119
sg9
g10
sg11
S'--'
p120
sg13
g10
sg14
S'C.J. Fiedorowicz'
p121
sg16
S'2015'
p122
sg18
S'14'
p123
sg20
S'--'
p124
sg22
S'12/13'
p125
sg24
S'--'
p126
sg26
S'--'
p127
sg28
S'--'
p128
sg30
S'L6-27'
p129
sg32
S'--'
p130
sg34
S'--'
p131
sg36
S'NE'
p132
sg38
S'--'
p133
sg40
S'--'
p134
sg42
S'--'
p135
ssS'17'
p136
(dp137
g5
S'--'
p138
sg7
S'--'
p139
sg9
g48
sg11
S'--'
p140
sg13
g10
sg14
S'C.J. Fiedorowicz'
p141
sg16
S'2015'
p142
sg18
S'17'
p143
sg20
S'--'
p144
sg22
S'01/03'
p145
sg24
S'7.0'
p146
sg26
S'--'
p147
sg28
S'--'
p148
sg30
S'W30-6'
p149
sg32
S'14'
p150
sg34
g60
sg36
S'JAC'
p151
sg38
S'9'
p152
sg40
g48
sg42
S'--'
p153
ssS'16'
p154
(dp155
g5
S'--'
p156
sg7
S'--'
p157
sg9
g10
sg11
S'--'
p158
sg13
g10
sg14
S'C.J. Fiedorowicz'
p159
sg16
S'2015'
p160
sg18
S'16'
p161
sg20
S'--'
p162
sg22
S'12/27'
p163
sg24
S'6.0'
p164
sg26
S'--'
p165
sg28
S'--'
p166
sg30
S'W34-6'
p167
sg32
S'6'
p168
sg34
g10
sg36
S'@TEN'
p169
sg38
g168
sg40
g48
sg42
S'--'
p170
ssg10
(dp171
g5
S'--'
p172
sg7
S'--'
p173
sg9
g10
sg11
S'--'
p174
sg13
g10
sg14
S'C.J. Fiedorowicz'
p175
sg16
S'2015'
p176
sg18
g10
sg20
S'--'
p177
sg22
S'09/13'
p178
sg24
S'15.0'
p179
sg26
S'--'
p180
sg28
S'--'
p181
sg30
S'L20-27'
p182
sg32
S'15'
p183
sg34
g10
sg36
S'KC'
p184
sg38
S'15'
p185
sg40
g48
sg42
S'--'
p186
ssS'3'
p187
(dp188
g5
S'--'
p189
sg7
S'--'
p190
sg9
g10
sg11
S'--'
p191
sg13
g10
sg14
S'C.J. Fiedorowicz'
p192
sg16
S'2015'
p193
sg18
g187
sg20
S'--'
p194
sg22
S'09/27'
p195
sg24
S'--'
p196
sg26
S'--'
p197
sg28
S'--'
p198
sg30
S'W19-9'
p199
sg32
S'--'
p200
sg34
S'--'
p201
sg36
S'TB'
p202
sg38
S'--'
p203
sg40
S'--'
p204
sg42
S'--'
p205
ssg60
(dp206
g5
S'--'
p207
sg7
S'--'
p208
sg9
g10
sg11
S'--'
p209
sg13
g10
sg14
S'C.J. Fiedorowicz'
p210
sg16
S'2015'
p211
sg18
g60
sg20
S'--'
p212
sg22
S'09/20'
p213
sg24
S'19.0'
p214
sg26
S'--'
p215
sg28
S'--'
p216
sg30
S'L17-24'
p217
sg32
S'19'
p218
sg34
g10
sg36
S'@CAR'
p219
sg38
S'19'
p220
sg40
g48
sg42
S'--'
p221
ssS'5'
p222
(dp223
g5
S'--'
p224
sg7
S'--'
p225
sg9
g10
sg11
S'--'
p226
sg13
g10
sg14
S'C.J. Fiedorowicz'
p227
sg16
S'2015'
p228
sg18
g222
sg20
S'--'
p229
sg22
S'10/08'
p230
sg24
S'4.0'
p231
sg26
S'--'
p232
sg28
S'--'
p233
sg30
S'L20-27'
p234
sg32
S'4'
p235
sg34
g10
sg36
S'IND'
p236
sg38
g235
sg40
g48
sg42
S'--'
p237
ssg235
(dp238
g5
S'--'
p239
sg7
S'--'
p240
sg9
g10
sg11
g10
sg13
g10
sg14
S'C.J. Fiedorowicz'
p241
sg16
S'2015'
p242
sg18
g235
sg20
S'--'
p243
sg22
S'10/04'
p244
sg24
S'9.3'
p245
sg26
g10
sg28
S'--'
p246
sg30
S'L21-48'
p247
sg32
S'28'
p248
sg34
g187
sg36
S'@ATL'
p249
sg38
S'19'
p250
sg40
g10
sg42
S'--'
p251
ssS'7'
p252
(dp253
g5
S'--'
p254
sg7
S'--'
p255
sg9
g10
sg11
S'--'
p256
sg13
g10
sg14
S'C.J. Fiedorowicz'
p257
sg16
S'2015'
p258
sg18
g252
sg20
S'--'
p259
sg22
S'10/25'
p260
sg24
S'--'
p261
sg26
S'--'
p262
sg28
S'--'
p263
sg30
S'L26-44'
p264
sg32
g48
sg34
g48
sg36
S'@MIA'
p265
sg38
S'--'
p266
sg40
g48
sg42
S'--'
p267
ssg168
(dp268
g5
S'--'
p269
sg7
S'--'
p270
sg9
g10
sg11
S'--'
p271
sg13
g10
sg14
S'C.J. Fiedorowicz'
p272
sg16
S'2015'
p273
sg18
g168
sg20
S'--'
p274
sg22
S'10/18'
p275
sg24
S'8.0'
p276
sg26
S'--'
p277
sg28
S'--'
p278
sg30
S'W31-20'
p279
sg32
g78
sg34
g10
sg36
S'@JAC'
p280
sg38
g78
sg40
g48
sg42
S'--'
p281
ssg152
(dp282
g5
S''
p283
sg7
g283
sg9
g283
sg11
g283
sg13
g283
sg14
S'C.J. Fiedorowicz'
p284
sg16
S'2015'
p285
sg18
g152
sg20
g283
sg22
S'Bye'
p286
sg24
g283
sg26
g283
sg28
g283
sg30
g283
sg32
g283
sg34
g283
sg36
g283
sg38
g283
sg40
g283
sg42
g283
ssg78
(dp287
g5
S'--'
p288
sg7
S'--'
p289
sg9
g10
sg11
S'--'
p290
sg13
g10
sg14
S'C.J. Fiedorowicz'
p291
sg16
S'2015'
p292
sg18
g78
sg20
S'--'
p293
sg22
S'11/01'
p294
sg24
S'7.5'
p295
sg26
S'--'
p296
sg28
S'--'
p297
sg30
S'W20-6'
p298
sg32
S'15'
p299
sg34
g60
sg36
S'TEN'
p300
sg38
S'14'
p301
sg40
g48
sg42
S'--'
p302
sssS'2014'
p303
(dp304
g3
(dp305
g5
S'--'
p306
sg7
S'--'
p307
sg9
g48
sg11
S'--'
p308
sg13
g10
sg14
S'C.J. Fiedorowicz'
p309
sg16
S'2014'
p310
sg18
S'11'
p311
sg20
S'--'
p312
sg22
S'11/16'
p313
sg24
S'--'
p314
sg26
S'--'
p315
sg28
S'--'
p316
sg30
S'W23-7'
p317
sg32
S'--'
p318
sg34
S'--'
p319
sg36
S'@CLE'
p320
sg38
S'--'
p321
sg40
S'--'
p322
sg42
S'--'
p323
ssg44
(dp324
g5
g283
sg7
g283
sg9
g283
sg11
g283
sg13
g283
sg14
S'C.J. Fiedorowicz'
p325
sg16
S'2014'
p326
sg18
S'10'
p327
sg20
g283
sg22
S'Bye'
p328
sg24
g283
sg26
g283
sg28
g283
sg30
g283
sg32
g283
sg34
g283
sg36
g283
sg38
g283
sg40
g283
sg42
g283
ssg64
(dp329
g5
S'--'
p330
sg7
S'--'
p331
sg9
g10
sg11
S'--'
p332
sg13
g10
sg14
S'C.J. Fiedorowicz'
p333
sg16
S'2014'
p334
sg18
S'13'
p335
sg20
S'--'
p336
sg22
S'11/30'
p337
sg24
S'--'
p338
sg26
S'--'
p339
sg28
S'--'
p340
sg30
S'W45-21'
p341
sg32
S'--'
p342
sg34
S'--'
p343
sg36
S'TEN'
p344
sg38
S'--'
p345
sg40
S'--'
p346
sg42
S'--'
p347
ssg81
(dp348
g5
S'--'
p349
sg7
S'--'
p350
sg9
g10
sg11
S'--'
p351
sg13
g10
sg14
S'C.J. Fiedorowicz'
p352
sg16
S'2014'
p353
sg18
S'12'
p354
sg20
S'--'
p355
sg22
S'11/23'
p356
sg24
S'--'
p357
sg26
S'--'
p358
sg28
S'--'
p359
sg30
S'L13-22'
p360
sg32
S'--'
p361
sg34
S'--'
p362
sg36
S'CIN'
p363
sg38
S'--'
p364
sg40
S'--'
p365
sg42
S'--'
p366
ssg99
(dp367
g5
S'--'
p368
sg7
S'--'
p369
sg9
g48
sg11
S'--'
p370
sg13
g10
sg14
S'C.J. Fiedorowicz'
p371
sg16
S'2014'
p372
sg18
S'15'
p373
sg20
S'--'
p374
sg22
S'12/14'
p375
sg24
S'--'
p376
sg26
S'--'
p377
sg28
S'--'
p378
sg30
S'L10-17'
p379
sg32
S'--'
p380
sg34
S'--'
p381
sg36
S'@IND'
p382
sg38
S'--'
p383
sg40
S'--'
p384
sg42
S'--'
p385
ssg116
(dp386
g5
S'--'
p387
sg7
S'--'
p388
sg9
g10
sg11
S'--'
p389
sg13
g10
sg14
S'C.J. Fiedorowicz'
p390
sg16
S'2014'
p391
sg18
S'14'
p392
sg20
S'--'
p393
sg22
S'12/07'
p394
sg24
S'--'
p395
sg26
S'--'
p396
sg28
S'--'
p397
sg30
S'W27-13'
p398
sg32
S'--'
p399
sg34
S'--'
p400
sg36
S'@JAC'
p401
sg38
S'--'
p402
sg40
S'--'
p403
sg42
S'--'
p404
ssg136
(dp405
g5
S'--'
p406
sg7
S'--'
p407
sg9
g48
sg11
S'--'
p408
sg13
g10
sg14
S'C.J. Fiedorowicz'
p409
sg16
S'2014'
p410
sg18
S'17'
p411
sg20
S'--'
p412
sg22
S'12/28'
p413
sg24
S'--'
p414
sg26
S'--'
p415
sg28
S'--'
p416
sg30
S'W23-17'
p417
sg32
S'--'
p418
sg34
S'--'
p419
sg36
S'JAC'
p420
sg38
S'--'
p421
sg40
S'--'
p422
sg42
S'--'
p423
ssg154
(dp424
g5
S'--'
p425
sg7
S'--'
p426
sg9
g10
sg11
S'--'
p427
sg13
g10
sg14
S'C.J. Fiedorowicz'
p428
sg16
S'2014'
p429
sg18
S'16'
p430
sg20
S'--'
p431
sg22
S'12/21'
p432
sg24
S'6.0'
p433
sg26
S'--'
p434
sg28
S'--'
p435
sg30
S'W25-13'
p436
sg32
S'12'
p437
sg34
g60
sg36
S'BAL'
p438
sg38
g252
sg40
g10
sg42
S'--'
p439
ssg10
(dp440
g5
S'--'
p441
sg7
S'--'
p442
sg9
g48
sg11
S'--'
p443
sg13
g10
sg14
S'C.J. Fiedorowicz'
p444
sg16
S'2014'
p445
sg18
g10
sg20
S'--'
p446
sg22
S'09/07'
p447
sg24
S'--'
p448
sg26
S'--'
p449
sg28
S'--'
p450
sg30
S'W17-6'
p451
sg32
g48
sg34
g48
sg36
S'WAS'
p452
sg38
S'--'
p453
sg40
g48
sg42
S'--'
p454
ssg187
(dp455
g5
S'--'
p456
sg7
S'--'
p457
sg9
g10
sg11
S'--'
p458
sg13
g10
sg14
S'C.J. Fiedorowicz'
p459
sg16
S'2014'
p460
sg18
g187
sg20
S'--'
p461
sg22
S'09/21'
p462
sg24
S'--'
p463
sg26
S'--'
p464
sg28
S'--'
p465
sg30
S'L17-30'
p466
sg32
S'--'
p467
sg34
S'--'
p468
sg36
S'@NYG'
p469
sg38
S'--'
p470
sg40
S'--'
p471
sg42
S'--'
p472
ssg60
(dp473
g5
S'--'
p474
sg7
S'--'
p475
sg9
g48
sg11
S'--'
p476
sg13
g48
sg14
S'C.J. Fiedorowicz'
p477
sg16
S'2014'
p478
sg18
g60
sg20
S'--'
p479
sg22
S'09/14'
p480
sg24
S'--'
p481
sg26
S'--'
p482
sg28
S'--'
p483
sg30
S'W30-14'
p484
sg32
S'--'
p485
sg34
S'--'
p486
sg36
S'@OAK'
p487
sg38
S'--'
p488
sg40
S'--'
p489
sg42
S'--'
p490
ssg222
(dp491
g5
S'--'
p492
sg7
S'--'
p493
sg9
g10
sg11
S'--'
p494
sg13
g10
sg14
S'C.J. Fiedorowicz'
p495
sg16
S'2014'
p496
sg18
g222
sg20
S'--'
p497
sg22
S'10/05'
p498
sg24
S'--'
p499
sg26
S'--'
p500
sg28
S'--'
p501
sg30
S'L17-20'
p502
sg32
S'--'
p503
sg34
S'--'
p504
sg36
S'@DAL'
p505
sg38
S'--'
p506
sg40
S'--'
p507
sg42
S'--'
p508
ssg235
(dp509
g5
S'--'
p510
sg7
S'--'
p511
sg9
g10
sg11
S'--'
p512
sg13
g10
sg14
S'C.J. Fiedorowicz'
p513
sg16
S'2014'
p514
sg18
g235
sg20
S'--'
p515
sg22
S'09/28'
p516
sg24
S'--'
p517
sg26
S'--'
p518
sg28
S'--'
p519
sg30
S'W23-17'
p520
sg32
g48
sg34
g48
sg36
S'BUF'
p521
sg38
S'--'
p522
sg40
g48
sg42
S'--'
p523
ssg252
(dp524
g5
S'--'
p525
sg7
S'--'
p526
sg9
g48
sg11
S'--'
p527
sg13
g10
sg14
S'C.J. Fiedorowicz'
p528
sg16
S'2014'
p529
sg18
g252
sg20
S'--'
p530
sg22
S'10/20'
p531
sg24
S'9.0'
p532
sg26
S'--'
p533
sg28
S'--'
p534
sg30
S'L23-30'
p535
sg32
g152
sg34
g10
sg36
S'@PIT'
p536
sg38
g152
sg40
g48
sg42
S'--'
p537
ssg168
(dp538
g5
S'--'
p539
sg7
S'--'
p540
sg9
g10
sg11
S'--'
p541
sg13
g10
sg14
S'C.J. Fiedorowicz'
p542
sg16
S'2014'
p543
sg18
g168
sg20
S'--'
p544
sg22
S'10/09'
p545
sg24
S'7.0'
p546
sg26
S'--'
p547
sg28
S'--'
p548
sg30
S'L28-33'
p549
sg32
g252
sg34
g10
sg36
S'IND'
p550
sg38
g252
sg40
g48
sg42
S'--'
p551
ssg152
(dp552
g5
S'--'
p553
sg7
S'--'
p554
sg9
g48
sg11
S'--'
p555
sg13
g10
sg14
S'C.J. Fiedorowicz'
p556
sg16
S'2014'
p557
sg18
g152
sg20
S'--'
p558
sg22
S'11/02'
p559
sg24
S'--'
p560
sg26
S'--'
p561
sg28
S'--'
p562
sg30
S'L21-31'
p563
sg32
S'--'
p564
sg34
S'--'
p565
sg36
S'PHI'
p566
sg38
S'--'
p567
sg40
S'--'
p568
sg42
S'--'
p569
ssg78
(dp570
g5
S'--'
p571
sg7
S'--'
p572
sg9
g48
sg11
S'--'
p573
sg13
g10
sg14
S'C.J. Fiedorowicz'
p574
sg16
S'2014'
p575
sg18
g78
sg20
S'--'
p576
sg22
S'10/26'
p577
sg24
S'--'
p578
sg26
S'--'
p579
sg28
S'--'
p580
sg30
S'W30-16'
p581
sg32
S'--'
p582
sg34
S'--'
p583
sg36
S'@TEN'
p584
sg38
S'--'
p585
sg40
S'--'
p586
sg42
S'--'
p587
sss.