(dp0
S'2015'
p1
(dp2
S'11'
p3
(dp4
S'RushTD'
p5
S'--'
p6
sS'RushYds'
p7
S'--'
p8
sS'GS'
p9
S'0'
p10
sS'Lost'
p11
S'--'
p12
sS'G'
p13
S'1'
p14
sS'Player'
p15
S'Cameron Brate'
p16
sS'Year'
p17
S'2015'
p18
sS'WK'
p19
S'11'
p20
sS'RushAvg'
p21
S'--'
p22
sS'Game Date'
p23
S'11/22'
p24
sS'RecAvg'
p25
S'15.7'
p26
sS'FUM'
p27
S'--'
p28
sS'RushAtt'
p29
S'--'
p30
sS'Result'
p31
S'W45-17'
p32
sS'RecYds'
p33
S'47'
p34
sS'Rec'
p35
S'3'
p36
sS'Opp'
p37
S'@PHI'
p38
sS'RecLng'
p39
S'23'
p40
sS'RecTD'
p41
g14
sS'RushLng'
p42
S'--'
p43
ssS'10'
p44
(dp45
g5
S'--'
p46
sg7
S'--'
p47
sg9
g10
sg11
S'--'
p48
sg13
g14
sg15
S'Cameron Brate'
p49
sg17
S'2015'
p50
sg19
S'10'
p51
sg21
S'--'
p52
sg23
S'11/15'
p53
sg25
S'6.0'
p54
sg27
S'--'
p55
sg29
S'--'
p56
sg31
S'W10-6'
p57
sg33
S'6'
p58
sg35
g14
sg37
S'DAL'
p59
sg39
g58
sg41
g10
sg42
S'--'
p60
ssS'13'
p61
(dp62
g5
S'--'
p63
sg7
S'--'
p64
sg9
g14
sg11
S'--'
p65
sg13
g14
sg15
S'Cameron Brate'
p66
sg17
S'2015'
p67
sg19
S'13'
p68
sg21
S'--'
p69
sg23
S'12/06'
p70
sg25
S'6.0'
p71
sg27
S'--'
p72
sg29
S'--'
p73
sg31
S'W23-19'
p74
sg33
S'12'
p75
sg35
S'2'
p76
sg37
S'ATL'
p77
sg39
S'7'
p78
sg41
g10
sg42
S'--'
p79
ssS'12'
p80
(dp81
g5
S'--'
p82
sg7
S'--'
p83
sg9
g14
sg11
S'--'
p84
sg13
g14
sg15
S'Cameron Brate'
p85
sg17
S'2015'
p86
sg19
S'12'
p87
sg21
S'--'
p88
sg23
S'11/29'
p89
sg25
S'10.6'
p90
sg27
S'--'
p91
sg29
S'--'
p92
sg31
S'L12-25'
p93
sg33
S'53'
p94
sg35
S'5'
p95
sg37
S'@IND'
p96
sg39
S'20T'
p97
sg41
g14
sg42
S'--'
p98
ssS'15'
p99
(dp100
g5
S'--'
p101
sg7
S'--'
p102
sg9
g14
sg11
S'--'
p103
sg13
g14
sg15
S'Cameron Brate'
p104
sg17
S'2015'
p105
sg19
S'15'
p106
sg21
S'--'
p107
sg23
S'12/17'
p108
sg25
S'6.7'
p109
sg27
S'--'
p110
sg29
S'--'
p111
sg31
S'L23-31'
p112
sg33
S'20'
p113
sg35
g36
sg37
S'@STL'
p114
sg39
S'8'
p115
sg41
g10
sg42
S'--'
p116
ssS'14'
p117
(dp118
g5
S'--'
p119
sg7
S'--'
p120
sg9
g10
sg11
S'--'
p121
sg13
g14
sg15
S'Cameron Brate'
p122
sg17
S'2015'
p123
sg19
S'14'
p124
sg21
S'--'
p125
sg23
S'12/13'
p126
sg25
S'8.0'
p127
sg27
S'--'
p128
sg29
S'--'
p129
sg31
S'L17-24'
p130
sg33
S'16'
p131
sg35
g76
sg37
S'NO'
p132
sg39
S'11'
p133
sg41
g10
sg42
S'--'
p134
ssS'17'
p135
(dp136
g5
S'--'
p137
sg7
S'--'
p138
sg9
g10
sg11
S'--'
p139
sg13
g14
sg15
S'Cameron Brate'
p140
sg17
S'2015'
p141
sg19
S'17'
p142
sg21
S'--'
p143
sg23
S'01/03'
p144
sg25
S'10.0'
p145
sg27
S'--'
p146
sg29
S'--'
p147
sg31
S'L10-38'
p148
sg33
S'10'
p149
sg35
g14
sg37
S'@CAR'
p150
sg39
S'10'
p151
sg41
g10
sg42
S'--'
p152
ssS'16'
p153
(dp154
g5
S'--'
p155
sg7
S'--'
p156
sg9
g10
sg11
S'--'
p157
sg13
g14
sg15
S'Cameron Brate'
p158
sg17
S'2015'
p159
sg19
S'16'
p160
sg21
S'--'
p161
sg23
S'12/27'
p162
sg25
S'46.0'
p163
sg27
S'--'
p164
sg29
S'--'
p165
sg31
S'L21-26'
p166
sg33
S'46'
p167
sg35
g14
sg37
S'CHI'
p168
sg39
S'46'
p169
sg41
g10
sg42
S'--'
p170
ssg36
(dp171
g5
S'--'
p172
sg7
S'--'
p173
sg9
g10
sg11
S'--'
p174
sg13
g14
sg15
S'Cameron Brate'
p175
sg17
S'2015'
p176
sg19
g36
sg21
S'--'
p177
sg23
S'09/27'
p178
sg25
S'--'
p179
sg27
S'--'
p180
sg29
S'--'
p181
sg31
S'L9-19'
p182
sg33
S'--'
p183
sg35
S'--'
p184
sg37
S'@HOU'
p185
sg39
S'--'
p186
sg41
S'--'
p187
sg42
S'--'
p188
ssg95
(dp189
g5
S'--'
p190
sg7
S'--'
p191
sg9
g14
sg11
S'--'
p192
sg13
g14
sg15
S'Cameron Brate'
p193
sg17
S'2015'
p194
sg19
g95
sg21
S'--'
p195
sg23
S'10/11'
p196
sg25
S'--'
p197
sg27
S'--'
p198
sg29
S'--'
p199
sg31
S'W38-31'
p200
sg33
S'--'
p201
sg35
S'--'
p202
sg37
S'JAC'
p203
sg39
S'--'
p204
sg41
S'--'
p205
sg42
S'--'
p206
ssS'4'
p207
(dp208
g5
S'--'
p209
sg7
S'--'
p210
sg9
g10
sg11
S'--'
p211
sg13
g14
sg15
S'Cameron Brate'
p212
sg17
S'2015'
p213
sg19
g207
sg21
S'--'
p214
sg23
S'10/04'
p215
sg25
S'7.0'
p216
sg27
S'--'
p217
sg29
S'--'
p218
sg31
S'L23-37'
p219
sg33
g78
sg35
g14
sg37
S'CAR'
p220
sg39
g78
sg41
g10
sg42
S'--'
p221
ssg78
(dp222
g5
S'--'
p223
sg7
S'--'
p224
sg9
g10
sg11
S'--'
p225
sg13
g14
sg15
S'Cameron Brate'
p226
sg17
S'2015'
p227
sg19
g78
sg21
S'--'
p228
sg23
S'10/25'
p229
sg25
S'6.0'
p230
sg27
S'--'
p231
sg29
S'--'
p232
sg31
S'L30-31'
p233
sg33
g58
sg35
g14
sg37
S'@WAS'
p234
sg39
g58
sg41
g10
sg42
S'--'
p235
ssg58
(dp236
g5
S''
p237
sg7
g237
sg9
g237
sg11
g237
sg13
g237
sg15
S'Cameron Brate'
p238
sg17
S'2015'
p239
sg19
g58
sg21
g237
sg23
S'Bye'
p240
sg25
g237
sg27
g237
sg29
g237
sg31
g237
sg33
g237
sg35
g237
sg37
g237
sg39
g237
sg41
g237
sg42
g237
ssS'9'
p241
(dp242
g5
S'--'
p243
sg7
S'--'
p244
sg9
g10
sg11
S'--'
p245
sg13
g14
sg15
S'Cameron Brate'
p246
sg17
S'2015'
p247
sg19
g241
sg21
S'--'
p248
sg23
S'11/08'
p249
sg25
S'17.0'
p250
sg27
S'--'
p251
sg29
S'--'
p252
sg31
S'L18-32'
p253
sg33
S'17'
p254
sg35
g14
sg37
S'NYG'
p255
sg39
S'17'
p256
sg41
g10
sg42
S'--'
p257
ssg115
(dp258
g5
S'--'
p259
sg7
S'--'
p260
sg9
g10
sg11
S'--'
p261
sg13
g14
sg15
S'Cameron Brate'
p262
sg17
S'2015'
p263
sg19
g115
sg21
S'--'
p264
sg23
S'11/01'
p265
sg25
S'24.0'
p266
sg27
S'--'
p267
sg29
S'--'
p268
sg31
S'W23-20'
p269
sg33
S'48'
p270
sg35
g76
sg37
S'@ATL'
p271
sg39
S'28'
p272
sg41
g14
sg42
S'--'
p273
sssS'2014'
p274
(dp275
g61
(dp276
g5
S'--'
p277
sg7
S'--'
p278
sg9
g14
sg11
S'--'
p279
sg13
g14
sg15
S'Cameron Brate'
p280
sg17
S'2014'
p281
sg19
S'13'
p282
sg21
S'--'
p283
sg23
S'11/30'
p284
sg25
S'17.0'
p285
sg27
S'--'
p286
sg29
S'--'
p287
sg31
S'L13-14'
p288
sg33
S'17'
p289
sg35
g14
sg37
S'CIN'
p290
sg39
S'17'
p291
sg41
g10
sg42
S'--'
p292
ssg99
(dp293
g5
S'--'
p294
sg7
S'--'
p295
sg9
g10
sg11
S'--'
p296
sg13
g14
sg15
S'Cameron Brate'
p297
sg17
S'2014'
p298
sg19
S'15'
p299
sg21
S'--'
p300
sg23
S'12/14'
p301
sg25
S'--'
p302
sg27
S'--'
p303
sg29
S'--'
p304
sg31
S'L17-19'
p305
sg33
S'--'
p306
sg35
S'--'
p307
sg37
S'@CAR'
p308
sg39
S'--'
p309
sg41
S'--'
p310
sg42
S'--'
p311
ssg117
(dp312
g5
S'--'
p313
sg7
S'--'
p314
sg9
g10
sg11
S'--'
p315
sg13
g14
sg15
S'Cameron Brate'
p316
sg17
S'2014'
p317
sg19
S'14'
p318
sg21
S'--'
p319
sg23
S'12/07'
p320
sg25
S'--'
p321
sg27
S'--'
p322
sg29
S'--'
p323
sg31
S'L17-34'
p324
sg33
S'--'
p325
sg35
S'--'
p326
sg37
S'@DET'
p327
sg39
S'--'
p328
sg41
S'--'
p329
sg42
S'--'
p330
ssg135
(dp331
g5
S'--'
p332
sg7
S'--'
p333
sg9
g10
sg11
S'--'
p334
sg13
g14
sg15
S'Cameron Brate'
p335
sg17
S'2014'
p336
sg19
S'17'
p337
sg21
S'--'
p338
sg23
S'12/28'
p339
sg25
S'--'
p340
sg27
S'--'
p341
sg29
S'--'
p342
sg31
S'L20-23'
p343
sg33
S'--'
p344
sg35
S'--'
p345
sg37
S'NO'
p346
sg39
S'--'
p347
sg41
S'--'
p348
sg42
S'--'
p349
ssg153
(dp350
g5
S'--'
p351
sg7
S'--'
p352
sg9
g10
sg11
S'--'
p353
sg13
g14
sg15
S'Cameron Brate'
p354
sg17
S'2014'
p355
sg19
S'16'
p356
sg21
S'--'
p357
sg23
S'12/21'
p358
sg25
S'--'
p359
sg27
S'--'
p360
sg29
S'--'
p361
sg31
S'L3-20'
p362
sg33
S'--'
p363
sg35
S'--'
p364
sg37
S'GB'
p365
sg39
S'--'
p366
sg41
S'--'
p367
sg42
S'--'
p368
sss.