(dp0
S'2015'
p1
(dp2
S'11'
p3
(dp4
S'RushTD'
p5
S'--'
p6
sS'RushYds'
p7
S'--'
p8
sS'GS'
p9
S'0'
p10
sS'Lost'
p11
S'--'
p12
sS'G'
p13
S'1'
p14
sS'Player'
p15
S'Chris Gragg'
p16
sS'Year'
p17
S'2015'
p18
sS'WK'
p19
S'11'
p20
sS'RushAvg'
p21
S'--'
p22
sS'Game Date'
p23
S'11/23'
p24
sS'RecAvg'
p25
S'--'
p26
sS'FUM'
p27
S'--'
p28
sS'RushAtt'
p29
S'--'
p30
sS'Result'
p31
S'L13-20'
p32
sS'RecYds'
p33
g10
sS'Rec'
p34
g10
sS'Opp'
p35
S'@NE'
p36
sS'RecLng'
p37
S'--'
p38
sS'RecTD'
p39
g10
sS'RushLng'
p40
S'--'
p41
ssS'10'
p42
(dp43
g5
S'--'
p44
sg7
S'--'
p45
sg9
g10
sg11
S'--'
p46
sg13
g14
sg15
S'Chris Gragg'
p47
sg17
S'2015'
p48
sg19
S'10'
p49
sg21
S'--'
p50
sg23
S'11/12'
p51
sg25
S'--'
p52
sg27
S'--'
p53
sg29
S'--'
p54
sg31
S'W22-17'
p55
sg33
S'--'
p56
sg34
S'--'
p57
sg35
S'@NYJ'
p58
sg37
S'--'
p59
sg39
S'--'
p60
sg40
S'--'
p61
ssS'13'
p62
(dp63
g5
S'--'
p64
sg7
S'--'
p65
sg9
g14
sg11
S'--'
p66
sg13
g14
sg15
S'Chris Gragg'
p67
sg17
S'2015'
p68
sg19
S'13'
p69
sg21
S'--'
p70
sg23
S'12/06'
p71
sg25
S'--'
p72
sg27
S'--'
p73
sg29
S'--'
p74
sg31
S'W30-21'
p75
sg33
S'--'
p76
sg34
S'--'
p77
sg35
S'HOU'
p78
sg37
S'--'
p79
sg39
S'--'
p80
sg40
S'--'
p81
ssS'12'
p82
(dp83
g5
S'--'
p84
sg7
S'--'
p85
sg9
g10
sg11
S'--'
p86
sg13
g14
sg15
S'Chris Gragg'
p87
sg17
S'2015'
p88
sg19
S'12'
p89
sg21
S'--'
p90
sg23
S'11/29'
p91
sg25
S'--'
p92
sg27
S'--'
p93
sg29
S'--'
p94
sg31
S'L22-30'
p95
sg33
S'--'
p96
sg34
S'--'
p97
sg35
S'@KC'
p98
sg37
S'--'
p99
sg39
S'--'
p100
sg40
S'--'
p101
ssS'15'
p102
(dp103
g5
S'--'
p104
sg7
S'--'
p105
sg9
g14
sg11
S'--'
p106
sg13
g14
sg15
S'Chris Gragg'
p107
sg17
S'2015'
p108
sg19
S'15'
p109
sg21
S'--'
p110
sg23
S'12/20'
p111
sg25
S'16.0'
p112
sg27
S'--'
p113
sg29
S'--'
p114
sg31
S'L25-35'
p115
sg33
S'16'
p116
sg34
g14
sg35
S'@WAS'
p117
sg37
S'16'
p118
sg39
g10
sg40
S'--'
p119
ssS'14'
p120
(dp121
g5
S'--'
p122
sg7
S'--'
p123
sg9
g14
sg11
S'--'
p124
sg13
g14
sg15
S'Chris Gragg'
p125
sg17
S'2015'
p126
sg19
S'14'
p127
sg21
S'--'
p128
sg23
S'12/13'
p129
sg25
S'11.0'
p130
sg27
S'--'
p131
sg29
S'--'
p132
sg31
S'L20-23'
p133
sg33
S'11'
p134
sg34
g14
sg35
S'@PHI'
p135
sg37
S'11'
p136
sg39
g10
sg40
S'--'
p137
ssS'17'
p138
(dp139
g5
S'--'
p140
sg7
S'--'
p141
sg9
g14
sg11
S'--'
p142
sg13
g14
sg15
S'Chris Gragg'
p143
sg17
S'2015'
p144
sg19
S'17'
p145
sg21
S'--'
p146
sg23
S'01/03'
p147
sg25
S'--'
p148
sg27
S'--'
p149
sg29
S'--'
p150
sg31
S'W22-17'
p151
sg33
S'--'
p152
sg34
S'--'
p153
sg35
S'NYJ'
p154
sg37
S'--'
p155
sg39
S'--'
p156
sg40
S'--'
p157
ssS'16'
p158
(dp159
g5
S'--'
p160
sg7
S'--'
p161
sg9
g10
sg11
S'--'
p162
sg13
g14
sg15
S'Chris Gragg'
p163
sg17
S'2015'
p164
sg19
S'16'
p165
sg21
S'--'
p166
sg23
S'12/27'
p167
sg25
S'9.5'
p168
sg27
S'--'
p169
sg29
S'--'
p170
sg31
S'W16-6'
p171
sg33
S'19'
p172
sg34
S'2'
p173
sg35
S'DAL'
p174
sg37
S'15'
p175
sg39
g10
sg40
S'--'
p176
ssg14
(dp177
g5
S'--'
p178
sg7
S'--'
p179
sg9
g10
sg11
S'--'
p180
sg13
g10
sg15
S'Chris Gragg'
p181
sg17
S'2015'
p182
sg19
g14
sg21
S'--'
p183
sg23
S'09/13'
p184
sg25
S'--'
p185
sg27
S'--'
p186
sg29
S'--'
p187
sg31
S'W27-14'
p188
sg33
S'--'
p189
sg34
S'--'
p190
sg35
S'IND'
p191
sg37
S'--'
p192
sg39
S'--'
p193
sg40
S'--'
p194
ssS'3'
p195
(dp196
g5
S'--'
p197
sg7
S'--'
p198
sg9
g10
sg11
S'--'
p199
sg13
g10
sg15
S'Chris Gragg'
p200
sg17
S'2015'
p201
sg19
g195
sg21
S'--'
p202
sg23
S'09/27'
p203
sg25
S'--'
p204
sg27
S'--'
p205
sg29
S'--'
p206
sg31
S'W41-14'
p207
sg33
S'--'
p208
sg34
S'--'
p209
sg35
S'@MIA'
p210
sg37
S'--'
p211
sg39
S'--'
p212
sg40
S'--'
p213
ssg173
(dp214
g5
S'--'
p215
sg7
S'--'
p216
sg9
g10
sg11
S'--'
p217
sg13
g10
sg15
S'Chris Gragg'
p218
sg17
S'2015'
p219
sg19
g173
sg21
S'--'
p220
sg23
S'09/20'
p221
sg25
S'--'
p222
sg27
S'--'
p223
sg29
S'--'
p224
sg31
S'L32-40'
p225
sg33
S'--'
p226
sg34
S'--'
p227
sg35
S'NE'
p228
sg37
S'--'
p229
sg39
S'--'
p230
sg40
S'--'
p231
ssS'5'
p232
(dp233
g5
S'--'
p234
sg7
S'--'
p235
sg9
g10
sg11
S'--'
p236
sg13
g14
sg15
S'Chris Gragg'
p237
sg17
S'2015'
p238
sg19
g232
sg21
S'--'
p239
sg23
S'10/11'
p240
sg25
S'--'
p241
sg27
S'--'
p242
sg29
S'--'
p243
sg31
S'W14-13'
p244
sg33
S'--'
p245
sg34
S'--'
p246
sg35
S'@TEN'
p247
sg37
S'--'
p248
sg39
S'--'
p249
sg40
S'--'
p250
ssS'4'
p251
(dp252
g5
S'--'
p253
sg7
S'--'
p254
sg9
g10
sg11
S'--'
p255
sg13
g14
sg15
S'Chris Gragg'
p256
sg17
S'2015'
p257
sg19
g251
sg21
S'--'
p258
sg23
S'10/04'
p259
sg25
S'15.0'
p260
sg27
S'--'
p261
sg29
S'--'
p262
sg31
S'L10-24'
p263
sg33
S'15'
p264
sg34
g14
sg35
S'NYG'
p265
sg37
S'15'
p266
sg39
g10
sg40
S'--'
p267
ssS'7'
p268
(dp269
g5
S'--'
p270
sg7
S'--'
p271
sg9
g10
sg11
S'--'
p272
sg13
g14
sg15
S'Chris Gragg'
p273
sg17
S'2015'
p274
sg19
g268
sg21
S'--'
p275
sg23
S'10/25'
p276
sg25
S'17.5'
p277
sg27
S'--'
p278
sg29
S'--'
p279
sg31
S'L31-34'
p280
sg33
S'35'
p281
sg34
g173
sg35
S'@JAC'
p282
sg37
S'29'
p283
sg39
g10
sg40
S'--'
p284
ssS'6'
p285
(dp286
g5
S'--'
p287
sg7
S'--'
p288
sg9
g10
sg11
S'--'
p289
sg13
g14
sg15
S'Chris Gragg'
p290
sg17
S'2015'
p291
sg19
g285
sg21
S'--'
p292
sg23
S'10/18'
p293
sg25
S'10.8'
p294
sg27
S'--'
p295
sg29
S'--'
p296
sg31
S'L21-34'
p297
sg33
S'54'
p298
sg34
g232
sg35
S'CIN'
p299
sg37
S'19'
p300
sg39
g10
sg40
S'--'
p301
ssS'9'
p302
(dp303
g5
S'--'
p304
sg7
S'--'
p305
sg9
g10
sg11
S'--'
p306
sg13
g14
sg15
S'Chris Gragg'
p307
sg17
S'2015'
p308
sg19
g302
sg21
S'--'
p309
sg23
S'11/08'
p310
sg25
S'--'
p311
sg27
S'--'
p312
sg29
S'--'
p313
sg31
S'W33-17'
p314
sg33
S'--'
p315
sg34
S'--'
p316
sg35
S'MIA'
p317
sg37
S'--'
p318
sg39
S'--'
p319
sg40
S'--'
p320
ssS'8'
p321
(dp322
g5
S''
p323
sg7
g323
sg9
g323
sg11
g323
sg13
g323
sg15
S'Chris Gragg'
p324
sg17
S'2015'
p325
sg19
g321
sg21
g323
sg23
S'Bye'
p326
sg25
g323
sg27
g323
sg29
g323
sg31
g323
sg33
g323
sg34
g323
sg35
g323
sg37
g323
sg39
g323
sg40
g323
sssS'2014'
p327
(dp328
g3
(dp329
g5
S'--'
p330
sg7
S'--'
p331
sg9
g10
sg11
S'--'
p332
sg13
g14
sg15
S'Chris Gragg'
p333
sg17
S'2014'
p334
sg19
S'11'
p335
sg21
S'--'
p336
sg23
S'11/13'
p337
sg25
S'2.0'
p338
sg27
S'--'
p339
sg29
S'--'
p340
sg31
S'L9-22'
p341
sg33
g173
sg34
g14
sg35
S'@MIA'
p342
sg37
g173
sg39
g10
sg40
S'--'
p343
ssg42
(dp344
g5
S'--'
p345
sg7
S'--'
p346
sg9
g10
sg11
S'--'
p347
sg13
g14
sg15
S'Chris Gragg'
p348
sg17
S'2014'
p349
sg19
S'10'
p350
sg21
S'--'
p351
sg23
S'11/09'
p352
sg25
S'--'
p353
sg27
S'--'
p354
sg29
S'--'
p355
sg31
S'L13-17'
p356
sg33
g10
sg34
g10
sg35
S'KC'
p357
sg37
S'--'
p358
sg39
g10
sg40
S'--'
p359
ssg62
(dp360
g5
S'--'
p361
sg7
S'--'
p362
sg9
g10
sg11
S'--'
p363
sg13
g10
sg15
S'Chris Gragg'
p364
sg17
S'2014'
p365
sg19
S'13'
p366
sg21
S'--'
p367
sg23
S'11/30'
p368
sg25
S'--'
p369
sg27
S'--'
p370
sg29
S'--'
p371
sg31
S'W26-10'
p372
sg33
S'--'
p373
sg34
S'--'
p374
sg35
S'CLE'
p375
sg37
S'--'
p376
sg39
S'--'
p377
sg40
S'--'
p378
ssg82
(dp379
g5
S'--'
p380
sg7
S'--'
p381
sg9
g14
sg11
S'--'
p382
sg13
g14
sg15
S'Chris Gragg'
p383
sg17
S'2014'
p384
sg19
S'12'
p385
sg21
S'--'
p386
sg23
S'11/24'
p387
sg25
S'5.5'
p388
sg27
S'--'
p389
sg29
S'--'
p390
sg31
S'W38-3'
p391
sg33
S'11'
p392
sg34
g173
sg35
S'NYJ'
p393
sg37
g285
sg39
g10
sg40
S'--'
p394
ssg102
(dp395
g5
S'--'
p396
sg7
S'--'
p397
sg9
g10
sg11
S'--'
p398
sg13
g10
sg15
S'Chris Gragg'
p399
sg17
S'2014'
p400
sg19
S'15'
p401
sg21
S'--'
p402
sg23
S'12/14'
p403
sg25
S'--'
p404
sg27
S'--'
p405
sg29
S'--'
p406
sg31
S'W21-13'
p407
sg33
S'--'
p408
sg34
S'--'
p409
sg35
S'GB'
p410
sg37
S'--'
p411
sg39
S'--'
p412
sg40
S'--'
p413
ssg120
(dp414
g5
S'--'
p415
sg7
S'--'
p416
sg9
g10
sg11
S'--'
p417
sg13
g10
sg15
S'Chris Gragg'
p418
sg17
S'2014'
p419
sg19
S'14'
p420
sg21
S'--'
p421
sg23
S'12/07'
p422
sg25
S'--'
p423
sg27
S'--'
p424
sg29
S'--'
p425
sg31
S'L17-24'
p426
sg33
S'--'
p427
sg34
S'--'
p428
sg35
S'@DEN'
p429
sg37
S'--'
p430
sg39
S'--'
p431
sg40
S'--'
p432
ssg138
(dp433
g5
S'--'
p434
sg7
S'--'
p435
sg9
g10
sg11
S'--'
p436
sg13
g10
sg15
S'Chris Gragg'
p437
sg17
S'2014'
p438
sg19
S'17'
p439
sg21
S'--'
p440
sg23
S'12/28'
p441
sg25
S'--'
p442
sg27
S'--'
p443
sg29
S'--'
p444
sg31
S'W17-9'
p445
sg33
S'--'
p446
sg34
S'--'
p447
sg35
S'@NE'
p448
sg37
S'--'
p449
sg39
S'--'
p450
sg40
S'--'
p451
ssg158
(dp452
g5
S'--'
p453
sg7
S'--'
p454
sg9
g10
sg11
S'--'
p455
sg13
g10
sg15
S'Chris Gragg'
p456
sg17
S'2014'
p457
sg19
S'16'
p458
sg21
S'--'
p459
sg23
S'12/21'
p460
sg25
S'--'
p461
sg27
S'--'
p462
sg29
S'--'
p463
sg31
S'L24-26'
p464
sg33
S'--'
p465
sg34
S'--'
p466
sg35
S'@OAK'
p467
sg37
S'--'
p468
sg39
S'--'
p469
sg40
S'--'
p470
ssg14
(dp471
g5
S'--'
p472
sg7
S'--'
p473
sg9
g14
sg11
S'--'
p474
sg13
g14
sg15
S'Chris Gragg'
p475
sg17
S'2014'
p476
sg19
g14
sg21
S'--'
p477
sg23
S'09/07'
p478
sg25
S'--'
p479
sg27
S'--'
p480
sg29
S'--'
p481
sg31
S'W23-20'
p482
sg33
S'--'
p483
sg34
S'--'
p484
sg35
S'@CHI'
p485
sg37
S'--'
p486
sg39
S'--'
p487
sg40
S'--'
p488
ssg195
(dp489
g5
S'--'
p490
sg7
S'--'
p491
sg9
g10
sg11
S'--'
p492
sg13
g10
sg15
S'Chris Gragg'
p493
sg17
S'2014'
p494
sg19
g195
sg21
S'--'
p495
sg23
S'09/21'
p496
sg25
S'--'
p497
sg27
S'--'
p498
sg29
S'--'
p499
sg31
S'L10-22'
p500
sg33
S'--'
p501
sg34
S'--'
p502
sg35
S'SD'
p503
sg37
S'--'
p504
sg39
S'--'
p505
sg40
S'--'
p506
ssg173
(dp507
g5
S'--'
p508
sg7
S'--'
p509
sg9
g14
sg11
S'--'
p510
sg13
g14
sg15
S'Chris Gragg'
p511
sg17
S'2014'
p512
sg19
g173
sg21
S'--'
p513
sg23
S'09/14'
p514
sg25
S'14.0'
p515
sg27
S'--'
p516
sg29
S'--'
p517
sg31
S'W29-10'
p518
sg33
S'14'
p519
sg34
g14
sg35
S'MIA'
p520
sg37
S'14'
p521
sg39
g10
sg40
S'--'
p522
ssg232
(dp523
g5
S'--'
p524
sg7
S'--'
p525
sg9
g10
sg11
S'--'
p526
sg13
g14
sg15
S'Chris Gragg'
p527
sg17
S'2014'
p528
sg19
g232
sg21
S'--'
p529
sg23
S'10/05'
p530
sg25
S'2.0'
p531
sg27
S'--'
p532
sg29
S'--'
p533
sg31
S'W17-14'
p534
sg33
g173
sg34
g14
sg35
S'@DET'
p535
sg37
S'2T'
p536
sg39
g14
sg40
S'--'
p537
ssg251
(dp538
g5
S'--'
p539
sg7
S'--'
p540
sg9
g10
sg11
S'--'
p541
sg13
g14
sg15
S'Chris Gragg'
p542
sg17
S'2014'
p543
sg19
g251
sg21
S'--'
p544
sg23
S'09/28'
p545
sg25
S'--'
p546
sg27
S'--'
p547
sg29
S'--'
p548
sg31
S'L17-23'
p549
sg33
S'--'
p550
sg34
S'--'
p551
sg35
S'@HOU'
p552
sg37
S'--'
p553
sg39
S'--'
p554
sg40
S'--'
p555
ssg268
(dp556
g5
S'--'
p557
sg7
S'--'
p558
sg9
g10
sg11
S'--'
p559
sg13
g14
sg15
S'Chris Gragg'
p560
sg17
S'2014'
p561
sg19
g268
sg21
S'--'
p562
sg23
S'10/19'
p563
sg25
S'9.5'
p564
sg27
S'--'
p565
sg29
S'--'
p566
sg31
S'W17-16'
p567
sg33
S'19'
p568
sg34
g173
sg35
S'MIN'
p569
sg37
S'14'
p570
sg39
g10
sg40
S'--'
p571
ssg285
(dp572
g5
S'--'
p573
sg7
S'--'
p574
sg9
g14
sg11
S'--'
p575
sg13
g14
sg15
S'Chris Gragg'
p576
sg17
S'2014'
p577
sg19
g285
sg21
S'--'
p578
sg23
S'10/12'
p579
sg25
S'--'
p580
sg27
S'--'
p581
sg29
S'--'
p582
sg31
S'L22-37'
p583
sg33
S'--'
p584
sg34
S'--'
p585
sg35
S'NE'
p586
sg37
S'--'
p587
sg39
S'--'
p588
sg40
S'--'
p589
ssg302
(dp590
g5
g323
sg7
g323
sg9
g323
sg11
g323
sg13
g323
sg15
S'Chris Gragg'
p591
sg17
S'2014'
p592
sg19
g302
sg21
g323
sg23
S'Bye'
p593
sg25
g323
sg27
g323
sg29
g323
sg31
g323
sg33
g323
sg34
g323
sg35
g323
sg37
g323
sg39
g323
sg40
g323
ssg321
(dp594
g5
S'--'
p595
sg7
S'--'
p596
sg9
g14
sg11
S'--'
p597
sg13
g14
sg15
S'Chris Gragg'
p598
sg17
S'2014'
p599
sg19
g321
sg21
S'--'
p600
sg23
S'10/26'
p601
sg25
S'--'
p602
sg27
S'--'
p603
sg29
S'--'
p604
sg31
S'W43-23'
p605
sg33
S'--'
p606
sg34
S'--'
p607
sg35
S'@NYJ'
p608
sg37
S'--'
p609
sg39
S'--'
p610
sg40
S'--'
p611
sssS'2013'
p612
(dp613
g3
(dp614
g5
S'--'
p615
sg7
S'--'
p616
sg9
g10
sg11
S'--'
p617
sg13
g14
sg15
S'Chris Gragg'
p618
sg17
S'2013'
p619
sg19
S'11'
p620
sg21
S'--'
p621
sg23
S'11/17'
p622
sg25
S'--'
p623
sg27
S'--'
p624
sg29
S'--'
p625
sg31
S'W37-14'
p626
sg33
S'--'
p627
sg34
S'--'
p628
sg35
S'NYJ'
p629
sg37
S'--'
p630
sg39
S'--'
p631
sg40
S'--'
p632
ssg42
(dp633
g5
S'--'
p634
sg7
S'--'
p635
sg9
g10
sg11
S'--'
p636
sg13
g14
sg15
S'Chris Gragg'
p637
sg17
S'2013'
p638
sg19
S'10'
p639
sg21
S'--'
p640
sg23
S'11/10'
p641
sg25
S'6.3'
p642
sg27
S'--'
p643
sg29
S'--'
p644
sg31
S'L10-23'
p645
sg33
S'25'
p646
sg34
g251
sg35
S'@PIT'
p647
sg37
g302
sg39
g14
sg40
S'--'
p648
ssg62
(dp649
g5
S'--'
p650
sg7
S'--'
p651
sg9
g10
sg11
S'--'
p652
sg13
g10
sg15
S'Chris Gragg'
p653
sg17
S'2013'
p654
sg19
S'13'
p655
sg21
S'--'
p656
sg23
S'12/01'
p657
sg25
S'--'
p658
sg27
S'--'
p659
sg29
S'--'
p660
sg31
S'L31-34'
p661
sg33
S'--'
p662
sg34
S'--'
p663
sg35
S'ATL'
p664
sg37
S'--'
p665
sg39
S'--'
p666
sg40
S'--'
p667
ssg82
(dp668
g5
g323
sg7
g323
sg9
g323
sg11
g323
sg13
g323
sg15
S'Chris Gragg'
p669
sg17
S'2013'
p670
sg19
S'12'
p671
sg21
g323
sg23
S'Bye'
p672
sg25
g323
sg27
g323
sg29
g323
sg31
g323
sg33
g323
sg34
g323
sg35
g323
sg37
g323
sg39
g323
sg40
g323
ssg102
(dp673
g5
S'--'
p674
sg7
S'--'
p675
sg9
g10
sg11
S'--'
p676
sg13
g14
sg15
S'Chris Gragg'
p677
sg17
S'2013'
p678
sg19
S'15'
p679
sg21
S'--'
p680
sg23
S'12/15'
p681
sg25
S'28.0'
p682
sg27
S'--'
p683
sg29
S'--'
p684
sg31
S'W27-20'
p685
sg33
S'28'
p686
sg34
g14
sg35
S'@JAC'
p687
sg37
S'28'
p688
sg39
g10
sg40
S'--'
p689
ssg120
(dp690
g5
S'--'
p691
sg7
S'--'
p692
sg9
g14
sg11
S'--'
p693
sg13
g14
sg15
S'Chris Gragg'
p694
sg17
S'2013'
p695
sg19
S'14'
p696
sg21
S'--'
p697
sg23
S'12/08'
p698
sg25
S'--'
p699
sg27
S'--'
p700
sg29
S'--'
p701
sg31
S'L6-27'
p702
sg33
S'--'
p703
sg34
S'--'
p704
sg35
S'@TB'
p705
sg37
S'--'
p706
sg39
S'--'
p707
sg40
S'--'
p708
ssg138
(dp709
g5
S'--'
p710
sg7
S'--'
p711
sg9
g10
sg11
S'--'
p712
sg13
g10
sg15
S'Chris Gragg'
p713
sg17
S'2013'
p714
sg19
S'17'
p715
sg21
S'--'
p716
sg23
S'12/29'
p717
sg25
S'--'
p718
sg27
S'--'
p719
sg29
S'--'
p720
sg31
S'L20-34'
p721
sg33
S'--'
p722
sg34
S'--'
p723
sg35
S'@NE'
p724
sg37
S'--'
p725
sg39
S'--'
p726
sg40
S'--'
p727
ssg158
(dp728
g5
S'--'
p729
sg7
S'--'
p730
sg9
g10
sg11
S'--'
p731
sg13
g14
sg15
S'Chris Gragg'
p732
sg17
S'2013'
p733
sg19
S'16'
p734
sg21
S'--'
p735
sg23
S'12/22'
p736
sg25
S'--'
p737
sg27
S'--'
p738
sg29
S'--'
p739
sg31
S'W19-0'
p740
sg33
S'--'
p741
sg34
S'--'
p742
sg35
S'MIA'
p743
sg37
S'--'
p744
sg39
S'--'
p745
sg40
S'--'
p746
ssg14
(dp747
g5
S'--'
p748
sg7
S'--'
p749
sg9
g10
sg11
S'--'
p750
sg13
g10
sg15
S'Chris Gragg'
p751
sg17
S'2013'
p752
sg19
g14
sg21
S'--'
p753
sg23
S'09/08'
p754
sg25
S'--'
p755
sg27
S'--'
p756
sg29
S'--'
p757
sg31
S'L21-23'
p758
sg33
S'--'
p759
sg34
S'--'
p760
sg35
S'NE'
p761
sg37
S'--'
p762
sg39
S'--'
p763
sg40
S'--'
p764
ssg195
(dp765
g5
S'--'
p766
sg7
S'--'
p767
sg9
g10
sg11
S'--'
p768
sg13
g10
sg15
S'Chris Gragg'
p769
sg17
S'2013'
p770
sg19
g195
sg21
S'--'
p771
sg23
S'09/22'
p772
sg25
S'--'
p773
sg27
S'--'
p774
sg29
S'--'
p775
sg31
S'L20-27'
p776
sg33
S'--'
p777
sg34
S'--'
p778
sg35
S'@NYJ'
p779
sg37
S'--'
p780
sg39
S'--'
p781
sg40
S'--'
p782
ssg173
(dp783
g5
S'--'
p784
sg7
S'--'
p785
sg9
g10
sg11
S'--'
p786
sg13
g10
sg15
S'Chris Gragg'
p787
sg17
S'2013'
p788
sg19
g173
sg21
S'--'
p789
sg23
S'09/15'
p790
sg25
S'--'
p791
sg27
S'--'
p792
sg29
S'--'
p793
sg31
S'W24-23'
p794
sg33
S'--'
p795
sg34
S'--'
p796
sg35
S'CAR'
p797
sg37
S'--'
p798
sg39
S'--'
p799
sg40
S'--'
p800
ssg232
(dp801
g5
S'--'
p802
sg7
S'--'
p803
sg9
g10
sg11
S'--'
p804
sg13
g10
sg15
S'Chris Gragg'
p805
sg17
S'2013'
p806
sg19
g232
sg21
S'--'
p807
sg23
S'10/03'
p808
sg25
S'--'
p809
sg27
S'--'
p810
sg29
S'--'
p811
sg31
S'L24-37'
p812
sg33
S'--'
p813
sg34
S'--'
p814
sg35
S'@CLE'
p815
sg37
S'--'
p816
sg39
S'--'
p817
sg40
S'--'
p818
ssg251
(dp819
g5
S'--'
p820
sg7
S'--'
p821
sg9
g10
sg11
S'--'
p822
sg13
g10
sg15
S'Chris Gragg'
p823
sg17
S'2013'
p824
sg19
g251
sg21
S'--'
p825
sg23
S'09/29'
p826
sg25
S'--'
p827
sg27
S'--'
p828
sg29
S'--'
p829
sg31
S'W23-20'
p830
sg33
S'--'
p831
sg34
S'--'
p832
sg35
S'BAL'
p833
sg37
S'--'
p834
sg39
S'--'
p835
sg40
S'--'
p836
ssg268
(dp837
g5
S'--'
p838
sg7
S'--'
p839
sg9
g10
sg11
S'--'
p840
sg13
g14
sg15
S'Chris Gragg'
p841
sg17
S'2013'
p842
sg19
g268
sg21
S'--'
p843
sg23
S'10/20'
p844
sg25
S'--'
p845
sg27
S'--'
p846
sg29
S'--'
p847
sg31
S'W23-21'
p848
sg33
S'--'
p849
sg34
S'--'
p850
sg35
S'@MIA'
p851
sg37
S'--'
p852
sg39
S'--'
p853
sg40
S'--'
p854
ssg285
(dp855
g5
S'--'
p856
sg7
S'--'
p857
sg9
g10
sg11
S'--'
p858
sg13
g14
sg15
S'Chris Gragg'
p859
sg17
S'2013'
p860
sg19
g285
sg21
S'--'
p861
sg23
S'10/13'
p862
sg25
S'--'
p863
sg27
S'--'
p864
sg29
S'--'
p865
sg31
S'L24-27'
p866
sg33
S'--'
p867
sg34
S'--'
p868
sg35
S'CIN'
p869
sg37
S'--'
p870
sg39
S'--'
p871
sg40
S'--'
p872
ssg302
(dp873
g5
S'--'
p874
sg7
S'--'
p875
sg9
g10
sg11
S'--'
p876
sg13
g14
sg15
S'Chris Gragg'
p877
sg17
S'2013'
p878
sg19
g302
sg21
S'--'
p879
sg23
S'11/03'
p880
sg25
S'--'
p881
sg27
S'--'
p882
sg29
S'--'
p883
sg31
S'L13-23'
p884
sg33
S'--'
p885
sg34
S'--'
p886
sg35
S'KC'
p887
sg37
S'--'
p888
sg39
S'--'
p889
sg40
S'--'
p890
ssg321
(dp891
g5
S'--'
p892
sg7
S'--'
p893
sg9
g10
sg11
S'--'
p894
sg13
g14
sg15
S'Chris Gragg'
p895
sg17
S'2013'
p896
sg19
g321
sg21
S'--'
p897
sg23
S'10/27'
p898
sg25
S'--'
p899
sg27
S'--'
p900
sg29
S'--'
p901
sg31
S'L17-35'
p902
sg33
S'--'
p903
sg34
S'--'
p904
sg35
S'@NO'
p905
sg37
S'--'
p906
sg39
S'--'
p907
sg40
S'--'
p908
sss.