(dp0
S'2014'
p1
(dp2
S'13'
p3
(dp4
S'RushTD'
p5
S'--'
p6
sS'RushYds'
p7
S'--'
p8
sS'GS'
p9
S'0'
p10
sS'Lost'
p11
S'--'
p12
sS'G'
p13
S'1'
p14
sS'Player'
p15
S'Chris Pantale'
p16
sS'Year'
p17
S'2014'
p18
sS'WK'
p19
S'13'
p20
sS'RushAvg'
p21
S'--'
p22
sS'Game Date'
p23
S'12/01'
p24
sS'RecAvg'
p25
S'--'
p26
sS'FUM'
p27
S'--'
p28
sS'RushAtt'
p29
S'--'
p30
sS'Result'
p31
S'L13-16'
p32
sS'RecYds'
p33
S'--'
p34
sS'Rec'
p35
S'--'
p36
sS'Opp'
p37
S'MIA'
p38
sS'RecLng'
p39
S'--'
p40
sS'RecTD'
p41
S'--'
p42
sS'RushLng'
p43
S'--'
p44
ssS'15'
p45
(dp46
g5
S'--'
p47
sg7
S'--'
p48
sg9
g10
sg11
S'--'
p49
sg13
g14
sg15
S'Chris Pantale'
p50
sg17
S'2014'
p51
sg19
S'15'
p52
sg21
S'--'
p53
sg23
S'12/14'
p54
sg25
S'--'
p55
sg27
S'--'
p56
sg29
S'--'
p57
sg31
S'W16-11'
p58
sg33
S'--'
p59
sg35
S'--'
p60
sg37
S'@TEN'
p61
sg39
S'--'
p62
sg41
S'--'
p63
sg43
S'--'
p64
ssS'14'
p65
(dp66
g5
S'--'
p67
sg7
S'--'
p68
sg9
g10
sg11
S'--'
p69
sg13
g14
sg15
S'Chris Pantale'
p70
sg17
S'2014'
p71
sg19
S'14'
p72
sg21
S'--'
p73
sg23
S'12/07'
p74
sg25
S'--'
p75
sg27
S'--'
p76
sg29
S'--'
p77
sg31
S'L24-30'
p78
sg33
S'--'
p79
sg35
S'--'
p80
sg37
S'@MIN'
p81
sg39
S'--'
p82
sg41
S'--'
p83
sg43
S'--'
p84
ssS'17'
p85
(dp86
g5
S'--'
p87
sg7
S'--'
p88
sg9
g10
sg11
S'--'
p89
sg13
g14
sg15
S'Chris Pantale'
p90
sg17
S'2014'
p91
sg19
S'17'
p92
sg21
S'--'
p93
sg23
S'12/28'
p94
sg25
S'--'
p95
sg27
S'--'
p96
sg29
S'--'
p97
sg31
S'W37-24'
p98
sg33
S'--'
p99
sg35
S'--'
p100
sg37
S'@MIA'
p101
sg39
S'--'
p102
sg41
S'--'
p103
sg43
S'--'
p104
ssS'16'
p105
(dp106
g5
S'--'
p107
sg7
S'--'
p108
sg9
g10
sg11
S'--'
p109
sg13
g14
sg15
S'Chris Pantale'
p110
sg17
S'2014'
p111
sg19
S'16'
p112
sg21
S'--'
p113
sg23
S'12/21'
p114
sg25
S'--'
p115
sg27
S'--'
p116
sg29
S'--'
p117
sg31
S'L16-17'
p118
sg33
S'--'
p119
sg35
S'--'
p120
sg37
S'NE'
p121
sg39
S'--'
p122
sg41
S'--'
p123
sg43
S'--'
p124
sssS'2013'
p125
(dp126
g3
(dp127
g5
S'--'
p128
sg7
S'--'
p129
sg9
g10
sg11
S'--'
p130
sg13
g10
sg15
S'Chris Pantale'
p131
sg17
S'2013'
p132
sg19
S'13'
p133
sg21
S'--'
p134
sg23
S'12/01'
p135
sg25
S'--'
p136
sg27
S'--'
p137
sg29
S'--'
p138
sg31
S'L3-23'
p139
sg33
S'--'
p140
sg35
S'--'
p141
sg37
S'MIA'
p142
sg39
S'--'
p143
sg41
S'--'
p144
sg43
S'--'
p145
ssg45
(dp146
g5
S'--'
p147
sg7
S'--'
p148
sg9
g10
sg11
S'--'
p149
sg13
g10
sg15
S'Chris Pantale'
p150
sg17
S'2013'
p151
sg19
S'15'
p152
sg21
S'--'
p153
sg23
S'12/15'
p154
sg25
S'--'
p155
sg27
S'--'
p156
sg29
S'--'
p157
sg31
S'L20-30'
p158
sg33
S'--'
p159
sg35
S'--'
p160
sg37
S'@CAR'
p161
sg39
S'--'
p162
sg41
S'--'
p163
sg43
S'--'
p164
ssg65
(dp165
g5
S'--'
p166
sg7
S'--'
p167
sg9
g10
sg11
S'--'
p168
sg13
g10
sg15
S'Chris Pantale'
p169
sg17
S'2013'
p170
sg19
S'14'
p171
sg21
S'--'
p172
sg23
S'12/08'
p173
sg25
S'--'
p174
sg27
S'--'
p175
sg29
S'--'
p176
sg31
S'W37-27'
p177
sg33
S'--'
p178
sg35
S'--'
p179
sg37
S'OAK'
p180
sg39
S'--'
p181
sg41
S'--'
p182
sg43
S'--'
p183
ssg85
(dp184
g5
S'--'
p185
sg7
S'--'
p186
sg9
g10
sg11
S'--'
p187
sg13
g10
sg15
S'Chris Pantale'
p188
sg17
S'2013'
p189
sg19
S'17'
p190
sg21
S'--'
p191
sg23
S'12/29'
p192
sg25
S'--'
p193
sg27
S'--'
p194
sg29
S'--'
p195
sg31
S'W20-7'
p196
sg33
S'--'
p197
sg35
S'--'
p198
sg37
S'@MIA'
p199
sg39
S'--'
p200
sg41
S'--'
p201
sg43
S'--'
p202
ssg105
(dp203
g5
S'--'
p204
sg7
S'--'
p205
sg9
g10
sg11
S'--'
p206
sg13
g10
sg15
S'Chris Pantale'
p207
sg17
S'2013'
p208
sg19
S'16'
p209
sg21
S'--'
p210
sg23
S'12/22'
p211
sg25
S'--'
p212
sg27
S'--'
p213
sg29
S'--'
p214
sg31
S'W24-13'
p215
sg33
S'--'
p216
sg35
S'--'
p217
sg37
S'CLE'
p218
sg39
S'--'
p219
sg41
S'--'
p220
sg43
S'--'
p221
sss.