(dp0
S'2015'
p1
(dp2
S'11'
p3
(dp4
S'RushTD'
p5
S'--'
p6
sS'RushYds'
p7
S'--'
p8
sS'GS'
p9
S'1'
p10
sS'Lost'
p11
S'--'
p12
sS'G'
p13
g10
sS'Player'
p14
S'Coby Fleener'
p15
sS'Year'
p16
S'2015'
p17
sS'WK'
p18
S'11'
p19
sS'RushAvg'
p20
S'--'
p21
sS'Game Date'
p22
S'11/22'
p23
sS'RecAvg'
p24
S'15.0'
p25
sS'FUM'
p26
S'--'
p27
sS'RushAtt'
p28
S'--'
p29
sS'Result'
p30
S'W24-21'
p31
sS'RecYds'
p32
S'45'
p33
sS'Rec'
p34
S'3'
p35
sS'Opp'
p36
S'@ATL'
p37
sS'RecLng'
p38
S'26'
p39
sS'RecTD'
p40
S'0'
p41
sS'RushLng'
p42
S'--'
p43
ssS'10'
p44
(dp45
g5
S''
p46
sg7
g46
sg9
g46
sg11
g46
sg13
g46
sg14
S'Coby Fleener'
p47
sg16
S'2015'
p48
sg18
S'10'
p49
sg20
g46
sg22
S'Bye'
p50
sg24
g46
sg26
g46
sg28
g46
sg30
g46
sg32
g46
sg34
g46
sg36
g46
sg38
g46
sg40
g46
sg42
g46
ssS'13'
p51
(dp52
g5
S'--'
p53
sg7
S'--'
p54
sg9
g41
sg11
S'--'
p55
sg13
g10
sg14
S'Coby Fleener'
p56
sg16
S'2015'
p57
sg18
S'13'
p58
sg20
S'--'
p59
sg22
S'12/06'
p60
sg24
S'5.0'
p61
sg26
S'--'
p62
sg28
S'--'
p63
sg30
S'L10-45'
p64
sg32
S'20'
p65
sg34
S'4'
p66
sg36
S'@PIT'
p67
sg38
S'8'
p68
sg40
g41
sg42
S'--'
p69
ssS'12'
p70
(dp71
g5
S'--'
p72
sg7
S'--'
p73
sg9
g10
sg11
S'--'
p74
sg13
g10
sg14
S'Coby Fleener'
p75
sg16
S'2015'
p76
sg18
S'12'
p77
sg20
S'--'
p78
sg22
S'11/29'
p79
sg24
S'9.0'
p80
sg26
S'--'
p81
sg28
S'--'
p82
sg30
S'W25-12'
p83
sg32
S'27'
p84
sg34
g35
sg36
S'TB'
p85
sg38
S'17'
p86
sg40
g41
sg42
S'--'
p87
ssS'15'
p88
(dp89
g5
S'--'
p90
sg7
S'--'
p91
sg9
g10
sg11
S'--'
p92
sg13
g10
sg14
S'Coby Fleener'
p93
sg16
S'2015'
p94
sg18
S'15'
p95
sg20
S'--'
p96
sg22
S'12/20'
p97
sg24
S'12.0'
p98
sg26
S'--'
p99
sg28
S'--'
p100
sg30
S'L10-16'
p101
sg32
S'12'
p102
sg34
g10
sg36
S'HOU'
p103
sg38
S'12'
p104
sg40
g41
sg42
S'--'
p105
ssS'14'
p106
(dp107
g5
S'--'
p108
sg7
S'--'
p109
sg9
g10
sg11
S'--'
p110
sg13
g10
sg14
S'Coby Fleener'
p111
sg16
S'2015'
p112
sg18
S'14'
p113
sg20
S'--'
p114
sg22
S'12/13'
p115
sg24
S'6.0'
p116
sg26
S'--'
p117
sg28
S'--'
p118
sg30
S'L16-51'
p119
sg32
S'6'
p120
sg34
g10
sg36
S'@JAC'
p121
sg38
g120
sg40
g41
sg42
S'--'
p122
ssS'17'
p123
(dp124
g5
S'--'
p125
sg7
S'--'
p126
sg9
g41
sg11
S'--'
p127
sg13
g10
sg14
S'Coby Fleener'
p128
sg16
S'2015'
p129
sg18
S'17'
p130
sg20
S'--'
p131
sg22
S'01/03'
p132
sg24
S'12.6'
p133
sg26
S'--'
p134
sg28
S'--'
p135
sg30
S'W30-24'
p136
sg32
S'88'
p137
sg34
S'7'
p138
sg36
S'TEN'
p139
sg38
S'57T'
p140
sg40
g10
sg42
S'--'
p141
ssS'16'
p142
(dp143
g5
S'--'
p144
sg7
S'--'
p145
sg9
g10
sg11
S'--'
p146
sg13
g10
sg14
S'Coby Fleener'
p147
sg16
S'2015'
p148
sg18
S'16'
p149
sg20
S'--'
p150
sg22
S'12/27'
p151
sg24
S'6.5'
p152
sg26
S'--'
p153
sg28
S'--'
p154
sg30
S'W18-12'
p155
sg32
S'13'
p156
sg34
S'2'
p157
sg36
S'@MIA'
p158
sg38
S'10'
p159
sg40
g41
sg42
S'--'
p160
ssg10
(dp161
g5
S'--'
p162
sg7
S'--'
p163
sg9
g41
sg11
S'--'
p164
sg13
g10
sg14
S'Coby Fleener'
p165
sg16
S'2015'
p166
sg18
g10
sg20
S'--'
p167
sg22
S'09/13'
p168
sg24
S'5.0'
p169
sg26
S'--'
p170
sg28
S'--'
p171
sg30
S'L14-27'
p172
sg32
S'5'
p173
sg34
g10
sg36
S'@BUF'
p174
sg38
g173
sg40
g41
sg42
S'--'
p175
ssg35
(dp176
g5
S'--'
p177
sg7
S'--'
p178
sg9
g10
sg11
S'--'
p179
sg13
g10
sg14
S'Coby Fleener'
p180
sg16
S'2015'
p181
sg18
g35
sg20
S'--'
p182
sg22
S'09/27'
p183
sg24
S'12.8'
p184
sg26
S'--'
p185
sg28
S'--'
p186
sg30
S'W35-33'
p187
sg32
S'51'
p188
sg34
g66
sg36
S'@TEN'
p189
sg38
S'19'
p190
sg40
g41
sg42
S'--'
p191
ssg157
(dp192
g5
S'--'
p193
sg7
S'--'
p194
sg9
g10
sg11
S'--'
p195
sg13
g10
sg14
S'Coby Fleener'
p196
sg16
S'2015'
p197
sg18
g157
sg20
S'--'
p198
sg22
S'09/21'
p199
sg24
S'--'
p200
sg26
S'--'
p201
sg28
S'--'
p202
sg30
S'L7-20'
p203
sg32
S'--'
p204
sg34
S'--'
p205
sg36
S'NYJ'
p206
sg38
S'--'
p207
sg40
S'--'
p208
sg42
S'--'
p209
ssg173
(dp210
g5
S'--'
p211
sg7
S'--'
p212
sg9
g41
sg11
S'--'
p213
sg13
g10
sg14
S'Coby Fleener'
p214
sg16
S'2015'
p215
sg18
g173
sg20
S'--'
p216
sg22
S'10/08'
p217
sg24
S'4.5'
p218
sg26
S'--'
p219
sg28
S'--'
p220
sg30
S'W27-20'
p221
sg32
S'9'
p222
sg34
g157
sg36
S'@HOU'
p223
sg38
g173
sg40
g41
sg42
S'--'
p224
ssg66
(dp225
g5
S'--'
p226
sg7
S'--'
p227
sg9
g10
sg11
S'--'
p228
sg13
g10
sg14
S'Coby Fleener'
p229
sg16
S'2015'
p230
sg18
g66
sg20
S'--'
p231
sg22
S'10/04'
p232
sg24
S'9.2'
p233
sg26
S'--'
p234
sg28
S'--'
p235
sg30
S'W16-13'
p236
sg32
S'83'
p237
sg34
g222
sg36
S'JAC'
p238
sg38
S'28'
p239
sg40
g10
sg42
S'--'
p240
ssg138
(dp241
g5
S'--'
p242
sg7
S'--'
p243
sg9
g41
sg11
S'--'
p244
sg13
g10
sg14
S'Coby Fleener'
p245
sg16
S'2015'
p246
sg18
g138
sg20
S'--'
p247
sg22
S'10/25'
p248
sg24
S'15.7'
p249
sg26
S'--'
p250
sg28
S'--'
p251
sg30
S'L21-27'
p252
sg32
S'47'
p253
sg34
g35
sg36
S'NO'
p254
sg38
S'27'
p255
sg40
g41
sg42
S'--'
p256
ssg120
(dp257
g5
S'--'
p258
sg7
S'--'
p259
sg9
g10
sg11
S'--'
p260
sg13
g10
sg14
S'Coby Fleener'
p261
sg16
S'2015'
p262
sg18
g120
sg20
S'--'
p263
sg22
S'10/18'
p264
sg24
S'6.7'
p265
sg26
S'--'
p266
sg28
S'--'
p267
sg30
S'L27-34'
p268
sg32
S'20'
p269
sg34
g35
sg36
S'NE'
p270
sg38
S'11'
p271
sg40
g41
sg42
S'--'
p272
ssg222
(dp273
g5
S'--'
p274
sg7
S'--'
p275
sg9
g10
sg11
S'--'
p276
sg13
g10
sg14
S'Coby Fleener'
p277
sg16
S'2015'
p278
sg18
g222
sg20
S'--'
p279
sg22
S'11/08'
p280
sg24
S'5.5'
p281
sg26
S'--'
p282
sg28
S'--'
p283
sg30
S'W27-24'
p284
sg32
S'22'
p285
sg34
g66
sg36
S'DEN'
p286
sg38
g222
sg40
g41
sg42
S'--'
p287
ssg68
(dp288
g5
S'--'
p289
sg7
S'--'
p290
sg9
g10
sg11
S'--'
p291
sg13
g10
sg14
S'Coby Fleener'
p292
sg16
S'2015'
p293
sg18
g68
sg20
S'--'
p294
sg22
S'11/02'
p295
sg24
S'6.1'
p296
sg26
S'--'
p297
sg28
S'--'
p298
sg30
S'L26-29'
p299
sg32
S'43'
p300
sg34
g138
sg36
S'@CAR'
p301
sg38
S'14'
p302
sg40
g10
sg42
S'--'
p303
sssS'2014'
p304
(dp305
g3
(dp306
g5
S'--'
p307
sg7
S'--'
p308
sg9
g10
sg11
S'--'
p309
sg13
g10
sg14
S'Coby Fleener'
p310
sg16
S'2014'
p311
sg18
S'11'
p312
sg20
S'--'
p313
sg22
S'11/16'
p314
sg24
S'20.6'
p315
sg26
S'--'
p316
sg28
S'--'
p317
sg30
S'L20-42'
p318
sg32
S'144'
p319
sg34
g138
sg36
S'NE'
p320
sg38
S'45'
p321
sg40
g41
sg42
S'--'
p322
ssg44
(dp323
g5
g46
sg7
g46
sg9
g46
sg11
g46
sg13
g46
sg14
S'Coby Fleener'
p324
sg16
S'2014'
p325
sg18
S'10'
p326
sg20
g46
sg22
S'Bye'
p327
sg24
g46
sg26
g46
sg28
g46
sg30
g46
sg32
g46
sg34
g46
sg36
g46
sg38
g46
sg40
g46
sg42
g46
ssg51
(dp328
g5
S'--'
p329
sg7
S'--'
p330
sg9
g10
sg11
S'--'
p331
sg13
g10
sg14
S'Coby Fleener'
p332
sg16
S'2014'
p333
sg18
S'13'
p334
sg20
S'--'
p335
sg22
S'11/30'
p336
sg24
S'31.8'
p337
sg26
S'--'
p338
sg28
S'--'
p339
sg30
S'W49-27'
p340
sg32
S'127'
p341
sg34
g66
sg36
S'WAS'
p342
sg38
S'73T'
p343
sg40
g157
sg42
S'--'
p344
ssg70
(dp345
g5
S'--'
p346
sg7
S'--'
p347
sg9
g10
sg11
S'--'
p348
sg13
g10
sg14
S'Coby Fleener'
p349
sg16
S'2014'
p350
sg18
S'12'
p351
sg20
S'--'
p352
sg22
S'11/23'
p353
sg24
S'14.0'
p354
sg26
S'--'
p355
sg28
S'--'
p356
sg30
S'W23-3'
p357
sg32
S'28'
p358
sg34
g157
sg36
S'JAC'
p359
sg38
S'14'
p360
sg40
g41
sg42
S'--'
p361
ssg88
(dp362
g5
S'--'
p363
sg7
S'--'
p364
sg9
g10
sg11
S'--'
p365
sg13
g10
sg14
S'Coby Fleener'
p366
sg16
S'2014'
p367
sg18
S'15'
p368
sg20
S'--'
p369
sg22
S'12/14'
p370
sg24
S'16.0'
p371
sg26
S'--'
p372
sg28
S'--'
p373
sg30
S'W17-10'
p374
sg32
S'32'
p375
sg34
g157
sg36
S'HOU'
p376
sg38
S'22'
p377
sg40
g41
sg42
S'--'
p378
ssg106
(dp379
g5
S'--'
p380
sg7
S'--'
p381
sg9
g10
sg11
S'--'
p382
sg13
g10
sg14
S'Coby Fleener'
p383
sg16
S'2014'
p384
sg18
S'14'
p385
sg20
S'--'
p386
sg22
S'12/07'
p387
sg24
S'11.2'
p388
sg26
S'--'
p389
sg28
S'--'
p390
sg30
S'W25-24'
p391
sg32
S'56'
p392
sg34
g173
sg36
S'@CLE'
p393
sg38
S'18'
p394
sg40
g41
sg42
S'--'
p395
ssg123
(dp396
g5
S'--'
p397
sg7
S'--'
p398
sg9
g10
sg11
S'--'
p399
sg13
g10
sg14
S'Coby Fleener'
p400
sg16
S'2014'
p401
sg18
S'17'
p402
sg20
S'--'
p403
sg22
S'12/28'
p404
sg24
S'11.2'
p405
sg26
S'--'
p406
sg28
S'--'
p407
sg30
S'W27-10'
p408
sg32
S'56'
p409
sg34
g173
sg36
S'@TEN'
p410
sg38
S'20'
p411
sg40
g157
sg42
S'--'
p412
ssg142
(dp413
g5
S'--'
p414
sg7
S'--'
p415
sg9
g10
sg11
S'--'
p416
sg13
g10
sg14
S'Coby Fleener'
p417
sg16
S'2014'
p418
sg18
S'16'
p419
sg20
S'--'
p420
sg22
S'12/21'
p421
sg24
S'9.0'
p422
sg26
S'--'
p423
sg28
S'--'
p424
sg30
S'L7-42'
p425
sg32
S'36'
p426
sg34
g66
sg36
S'@DAL'
p427
sg38
S'17'
p428
sg40
g41
sg42
S'--'
p429
ssg10
(dp430
g5
S'--'
p431
sg7
S'--'
p432
sg9
g10
sg11
S'--'
p433
sg13
g10
sg14
S'Coby Fleener'
p434
sg16
S'2014'
p435
sg18
g10
sg20
S'--'
p436
sg22
S'09/07'
p437
sg24
S'7.0'
p438
sg26
S'--'
p439
sg28
S'--'
p440
sg30
S'L24-31'
p441
sg32
S'21'
p442
sg34
g35
sg36
S'@DEN'
p443
sg38
S'12'
p444
sg40
g41
sg42
S'--'
p445
ssg35
(dp446
g5
S'--'
p447
sg7
S'--'
p448
sg9
g10
sg11
S'--'
p449
sg13
g10
sg14
S'Coby Fleener'
p450
sg16
S'2014'
p451
sg18
g35
sg20
S'--'
p452
sg22
S'09/21'
p453
sg24
S'12.3'
p454
sg26
S'--'
p455
sg28
S'--'
p456
sg30
S'W44-17'
p457
sg32
S'49'
p458
sg34
g66
sg36
S'@JAC'
p459
sg38
S'23'
p460
sg40
g10
sg42
S'--'
p461
ssg157
(dp462
g5
S'--'
p463
sg7
S'--'
p464
sg9
g41
sg11
S'--'
p465
sg13
g10
sg14
S'Coby Fleener'
p466
sg16
S'2014'
p467
sg18
g157
sg20
S'--'
p468
sg22
S'09/15'
p469
sg24
S'13.0'
p470
sg26
S'--'
p471
sg28
S'--'
p472
sg30
S'L27-30'
p473
sg32
S'13'
p474
sg34
g10
sg36
S'PHI'
p475
sg38
S'13'
p476
sg40
g41
sg42
S'--'
p477
ssg173
(dp478
g5
S'--'
p479
sg7
S'--'
p480
sg9
g10
sg11
S'--'
p481
sg13
g10
sg14
S'Coby Fleener'
p482
sg16
S'2014'
p483
sg18
g173
sg20
S'--'
p484
sg22
S'10/05'
p485
sg24
S'30.0'
p486
sg26
S'--'
p487
sg28
S'--'
p488
sg30
S'W20-13'
p489
sg32
S'30'
p490
sg34
g10
sg36
S'BAL'
p491
sg38
S'30'
p492
sg40
g41
sg42
S'--'
p493
ssg66
(dp494
g5
S'--'
p495
sg7
S'--'
p496
sg9
g41
sg11
S'--'
p497
sg13
g10
sg14
S'Coby Fleener'
p498
sg16
S'2014'
p499
sg18
g66
sg20
S'--'
p500
sg22
S'09/28'
p501
sg24
S'13.0'
p502
sg26
S'--'
p503
sg28
S'--'
p504
sg30
S'W41-17'
p505
sg32
S'26'
p506
sg34
g157
sg36
S'TEN'
p507
sg38
S'24'
p508
sg40
g10
sg42
S'--'
p509
ssg138
(dp510
g5
S'--'
p511
sg7
S'--'
p512
sg9
g10
sg11
S'--'
p513
sg13
g10
sg14
S'Coby Fleener'
p514
sg16
S'2014'
p515
sg18
g138
sg20
S'--'
p516
sg22
S'10/19'
p517
sg24
S'16.0'
p518
sg26
S'--'
p519
sg28
S'--'
p520
sg30
S'W27-0'
p521
sg32
S'64'
p522
sg34
g66
sg36
S'CIN'
p523
sg38
S'26'
p524
sg40
g41
sg42
S'--'
p525
ssg120
(dp526
g5
S'--'
p527
sg7
S'--'
p528
sg9
g41
sg11
S'--'
p529
sg13
g10
sg14
S'Coby Fleener'
p530
sg16
S'2014'
p531
sg18
g120
sg20
S'--'
p532
sg22
S'10/09'
p533
sg24
S'5.5'
p534
sg26
S'--'
p535
sg28
S'--'
p536
sg30
S'W33-28'
p537
sg32
S'11'
p538
sg34
g157
sg36
S'@HOU'
p539
sg38
g138
sg40
g10
sg42
S'--'
p540
ssg222
(dp541
g5
S'--'
p542
sg7
S'--'
p543
sg9
g41
sg11
S'--'
p544
sg13
g10
sg14
S'Coby Fleener'
p545
sg16
S'2014'
p546
sg18
g222
sg20
S'--'
p547
sg22
S'11/03'
p548
sg24
S'19.3'
p549
sg26
S'--'
p550
sg28
S'--'
p551
sg30
S'W40-24'
p552
sg32
S'77'
p553
sg34
g66
sg36
S'@NYG'
p554
sg38
S'32T'
p555
sg40
g10
sg42
S'--'
p556
ssg68
(dp557
g5
S'--'
p558
sg7
S'--'
p559
sg9
g10
sg11
S'--'
p560
sg13
g10
sg14
S'Coby Fleener'
p561
sg16
S'2014'
p562
sg18
g68
sg20
S'--'
p563
sg22
S'10/26'
p564
sg24
S'4.0'
p565
sg26
S'--'
p566
sg28
S'--'
p567
sg30
S'L34-51'
p568
sg32
g66
sg34
g10
sg36
S'@PIT'
p569
sg38
g66
sg40
g41
sg42
S'--'
p570
sssS'2013'
p571
(dp572
g3
(dp573
g5
S'--'
p574
sg7
S'--'
p575
sg9
g41
sg11
S'--'
p576
sg13
g10
sg14
S'Coby Fleener'
p577
sg16
S'2013'
p578
sg18
S'11'
p579
sg20
S'--'
p580
sg22
S'11/14'
p581
sg24
S'13.4'
p582
sg26
S'--'
p583
sg28
S'--'
p584
sg30
S'W30-27'
p585
sg32
S'107'
p586
sg34
g68
sg36
S'@TEN'
p587
sg38
S'39'
p588
sg40
g41
sg42
S'--'
p589
ssg44
(dp590
g5
S'--'
p591
sg7
S'--'
p592
sg9
g10
sg11
S'--'
p593
sg13
g10
sg14
S'Coby Fleener'
p594
sg16
S'2013'
p595
sg18
S'10'
p596
sg20
S'--'
p597
sg22
S'11/10'
p598
sg24
S'8.3'
p599
sg26
S'--'
p600
sg28
S'--'
p601
sg30
S'L8-38'
p602
sg32
S'33'
p603
sg34
g66
sg36
S'STL'
p604
sg38
S'12'
p605
sg40
g41
sg42
S'--'
p606
ssg51
(dp607
g5
S'--'
p608
sg7
S'--'
p609
sg9
g10
sg11
S'--'
p610
sg13
g10
sg14
S'Coby Fleener'
p611
sg16
S'2013'
p612
sg18
S'13'
p613
sg20
S'--'
p614
sg22
S'12/01'
p615
sg24
S'16.7'
p616
sg26
S'--'
p617
sg28
S'--'
p618
sg30
S'W22-14'
p619
sg32
S'50'
p620
sg34
g35
sg36
S'TEN'
p621
sg38
S'21'
p622
sg40
g41
sg42
S'--'
p623
ssg70
(dp624
g5
S'--'
p625
sg7
S'--'
p626
sg9
g10
sg11
S'--'
p627
sg13
g10
sg14
S'Coby Fleener'
p628
sg16
S'2013'
p629
sg18
S'12'
p630
sg20
S'--'
p631
sg22
S'11/24'
p632
sg24
S'13.8'
p633
sg26
S'--'
p634
sg28
S'--'
p635
sg30
S'L11-40'
p636
sg32
S'55'
p637
sg34
g66
sg36
S'@ARI'
p638
sg38
S'17T'
p639
sg40
g10
sg42
S'--'
p640
ssg88
(dp641
g5
S'--'
p642
sg7
S'--'
p643
sg9
g10
sg11
S'--'
p644
sg13
g10
sg14
S'Coby Fleener'
p645
sg16
S'2013'
p646
sg18
S'15'
p647
sg20
S'--'
p648
sg22
S'12/15'
p649
sg24
S'--'
p650
sg26
S'--'
p651
sg28
S'--'
p652
sg30
S'W25-3'
p653
sg32
g41
sg34
g41
sg36
S'HOU'
p654
sg38
S'--'
p655
sg40
g41
sg42
S'--'
p656
ssg106
(dp657
g5
S'--'
p658
sg7
S'--'
p659
sg9
g10
sg11
S'--'
p660
sg13
g10
sg14
S'Coby Fleener'
p661
sg16
S'2013'
p662
sg18
S'14'
p663
sg20
S'--'
p664
sg22
S'12/08'
p665
sg24
S'6.2'
p666
sg26
S'--'
p667
sg28
S'--'
p668
sg30
S'L28-42'
p669
sg32
S'31'
p670
sg34
g173
sg36
S'@CIN'
p671
sg38
S'13'
p672
sg40
g41
sg42
S'--'
p673
ssg123
(dp674
g5
S'--'
p675
sg7
S'--'
p676
sg9
g10
sg11
S'--'
p677
sg13
g10
sg14
S'Coby Fleener'
p678
sg16
S'2013'
p679
sg18
S'17'
p680
sg20
S'--'
p681
sg22
S'12/29'
p682
sg24
S'25.0'
p683
sg26
S'--'
p684
sg28
S'--'
p685
sg30
S'W30-10'
p686
sg32
S'25'
p687
sg34
g10
sg36
S'JAC'
p688
sg38
S'25'
p689
sg40
g41
sg42
S'--'
p690
ssg142
(dp691
g5
S'--'
p692
sg7
S'--'
p693
sg9
g10
sg11
g41
sg13
g10
sg14
S'Coby Fleener'
p694
sg16
S'2013'
p695
sg18
S'16'
p696
sg20
S'--'
p697
sg22
S'12/22'
p698
sg24
S'4.0'
p699
sg26
g10
sg28
S'--'
p700
sg30
S'W23-7'
p701
sg32
g68
sg34
g157
sg36
S'@KC'
p702
sg38
g120
sg40
g41
sg42
S'--'
p703
ssg10
(dp704
g5
S'--'
p705
sg7
S'--'
p706
sg9
g41
sg11
S'--'
p707
sg13
g10
sg14
S'Coby Fleener'
p708
sg16
S'2013'
p709
sg18
g10
sg20
S'--'
p710
sg22
S'09/08'
p711
sg24
S'7.0'
p712
sg26
S'--'
p713
sg28
S'--'
p714
sg30
S'W21-17'
p715
sg32
g138
sg34
g10
sg36
S'OAK'
p716
sg38
g138
sg40
g41
sg42
S'--'
p717
ssg35
(dp718
g5
S'--'
p719
sg7
S'--'
p720
sg9
g41
sg11
S'--'
p721
sg13
g10
sg14
S'Coby Fleener'
p722
sg16
S'2013'
p723
sg18
g35
sg20
S'--'
p724
sg22
S'09/22'
p725
sg24
S'6.5'
p726
sg26
S'--'
p727
sg28
S'--'
p728
sg30
S'W27-7'
p729
sg32
S'13'
p730
sg34
g157
sg36
S'@SF'
p731
sg38
g138
sg40
g41
sg42
S'--'
p732
ssg157
(dp733
g5
S'--'
p734
sg7
S'--'
p735
sg9
g10
sg11
S'--'
p736
sg13
g10
sg14
S'Coby Fleener'
p737
sg16
S'2013'
p738
sg18
g157
sg20
S'--'
p739
sg22
S'09/15'
p740
sg24
S'17.3'
p741
sg26
S'--'
p742
sg28
S'--'
p743
sg30
S'L20-24'
p744
sg32
S'69'
p745
sg34
g66
sg36
S'MIA'
p746
sg38
S'40'
p747
sg40
g10
sg42
S'--'
p748
ssg173
(dp749
g5
S'--'
p750
sg7
S'--'
p751
sg9
g10
sg11
S'--'
p752
sg13
g10
sg14
S'Coby Fleener'
p753
sg16
S'2013'
p754
sg18
g173
sg20
S'--'
p755
sg22
S'10/06'
p756
sg24
S'7.5'
p757
sg26
S'--'
p758
sg28
S'--'
p759
sg30
S'W34-28'
p760
sg32
S'15'
p761
sg34
g157
sg36
S'SEA'
p762
sg38
S'11'
p763
sg40
g41
sg42
S'--'
p764
ssg66
(dp765
g5
S'--'
p766
sg7
S'--'
p767
sg9
g41
sg11
S'--'
p768
sg13
g10
sg14
S'Coby Fleener'
p769
sg16
S'2013'
p770
sg18
g66
sg20
S'--'
p771
sg22
S'09/29'
p772
sg24
S'15.4'
p773
sg26
S'--'
p774
sg28
S'--'
p775
sg30
S'W37-3'
p776
sg32
S'77'
p777
sg34
g173
sg36
S'@JAC'
p778
sg38
S'31T'
p779
sg40
g10
sg42
S'--'
p780
ssg138
(dp781
g5
S'--'
p782
sg7
S'--'
p783
sg9
g10
sg11
S'--'
p784
sg13
g10
sg14
S'Coby Fleener'
p785
sg16
S'2013'
p786
sg18
g138
sg20
S'--'
p787
sg22
S'10/20'
p788
sg24
S'7.6'
p789
sg26
S'--'
p790
sg28
S'--'
p791
sg30
S'W39-33'
p792
sg32
S'38'
p793
sg34
g173
sg36
S'DEN'
p794
sg38
S'21'
p795
sg40
g10
sg42
S'--'
p796
ssg120
(dp797
g5
S'--'
p798
sg7
S'--'
p799
sg9
g10
sg11
S'--'
p800
sg13
g10
sg14
S'Coby Fleener'
p801
sg16
S'2013'
p802
sg18
g120
sg20
S'--'
p803
sg22
S'10/14'
p804
sg24
S'5.3'
p805
sg26
S'--'
p806
sg28
S'--'
p807
sg30
S'L9-19'
p808
sg32
S'16'
p809
sg34
g35
sg36
S'@SD'
p810
sg38
g222
sg40
g41
sg42
S'--'
p811
ssg222
(dp812
g5
S'--'
p813
sg7
S'--'
p814
sg9
g10
sg11
S'--'
p815
sg13
g10
sg14
S'Coby Fleener'
p816
sg16
S'2013'
p817
sg18
g222
sg20
S'--'
p818
sg22
S'11/03'
p819
sg24
S'21.3'
p820
sg26
S'--'
p821
sg28
S'--'
p822
sg30
S'W27-24'
p823
sg32
S'64'
p824
sg34
g35
sg36
S'@HOU'
p825
sg38
S'44'
p826
sg40
g41
sg42
S'--'
p827
ssg68
(dp828
g5
g46
sg7
g46
sg9
g46
sg11
g46
sg13
g46
sg14
S'Coby Fleener'
p829
sg16
S'2013'
p830
sg18
g68
sg20
g46
sg22
S'Bye'
p831
sg24
g46
sg26
g46
sg28
g46
sg30
g46
sg32
g46
sg34
g46
sg36
g46
sg38
g46
sg40
g46
sg42
g46
sssS'2012'
p832
(dp833
g3
(dp834
g5
S'--'
p835
sg7
S'--'
p836
sg9
g41
sg11
S'--'
p837
sg13
g41
sg14
S'Coby Fleener'
p838
sg16
S'2012'
p839
sg18
S'11'
p840
sg20
S'--'
p841
sg22
S'11/18'
p842
sg24
S'--'
p843
sg26
S'--'
p844
sg28
S'--'
p845
sg30
S'L24-59'
p846
sg32
S'--'
p847
sg34
S'--'
p848
sg36
S'@NE'
p849
sg38
S'--'
p850
sg40
S'--'
p851
sg42
S'--'
p852
ssg44
(dp853
g5
S'--'
p854
sg7
S'--'
p855
sg9
g41
sg11
S'--'
p856
sg13
g41
sg14
S'Coby Fleener'
p857
sg16
S'2012'
p858
sg18
S'10'
p859
sg20
S'--'
p860
sg22
S'11/08'
p861
sg24
S'--'
p862
sg26
S'--'
p863
sg28
S'--'
p864
sg30
S'W27-10'
p865
sg32
S'--'
p866
sg34
S'--'
p867
sg36
S'@JAC'
p868
sg38
S'--'
p869
sg40
S'--'
p870
sg42
S'--'
p871
ssg51
(dp872
g5
S'--'
p873
sg7
S'--'
p874
sg9
g10
sg11
S'--'
p875
sg13
g10
sg14
S'Coby Fleener'
p876
sg16
S'2012'
p877
sg18
S'13'
p878
sg20
S'--'
p879
sg22
S'12/02'
p880
sg24
S'26.0'
p881
sg26
S'--'
p882
sg28
S'--'
p883
sg30
S'W35-33'
p884
sg32
S'26'
p885
sg34
g10
sg36
S'@DET'
p886
sg38
S'26T'
p887
sg40
g10
sg42
S'--'
p888
ssg70
(dp889
g5
S'--'
p890
sg7
S'--'
p891
sg9
g41
sg11
S'--'
p892
sg13
g41
sg14
S'Coby Fleener'
p893
sg16
S'2012'
p894
sg18
S'12'
p895
sg20
S'--'
p896
sg22
S'11/25'
p897
sg24
S'--'
p898
sg26
S'--'
p899
sg28
S'--'
p900
sg30
S'W20-13'
p901
sg32
S'--'
p902
sg34
S'--'
p903
sg36
S'BUF'
p904
sg38
S'--'
p905
sg40
S'--'
p906
sg42
S'--'
p907
ssg88
(dp908
g5
S'--'
p909
sg7
S'--'
p910
sg9
g10
sg11
S'--'
p911
sg13
g10
sg14
S'Coby Fleener'
p912
sg16
S'2012'
p913
sg18
S'15'
p914
sg20
S'--'
p915
sg22
S'12/16'
p916
sg24
S'21.0'
p917
sg26
S'--'
p918
sg28
S'--'
p919
sg30
S'L17-29'
p920
sg32
S'21'
p921
sg34
g10
sg36
S'@HOU'
p922
sg38
S'21'
p923
sg40
g41
sg42
S'--'
p924
ssg106
(dp925
g5
S'--'
p926
sg7
S'--'
p927
sg9
g10
sg11
S'--'
p928
sg13
g10
sg14
S'Coby Fleener'
p929
sg16
S'2012'
p930
sg18
S'14'
p931
sg20
S'--'
p932
sg22
S'12/09'
p933
sg24
S'9.0'
p934
sg26
S'--'
p935
sg28
S'--'
p936
sg30
S'W27-23'
p937
sg32
g222
sg34
g10
sg36
S'TEN'
p938
sg38
g222
sg40
g41
sg42
S'--'
p939
ssg123
(dp940
g5
S'--'
p941
sg7
S'--'
p942
sg9
g10
sg11
S'--'
p943
sg13
g10
sg14
S'Coby Fleener'
p944
sg16
S'2012'
p945
sg18
S'17'
p946
sg20
S'--'
p947
sg22
S'12/30'
p948
sg24
S'1.0'
p949
sg26
S'--'
p950
sg28
S'--'
p951
sg30
S'W28-16'
p952
sg32
g10
sg34
g10
sg36
S'HOU'
p953
sg38
S'1T'
p954
sg40
g10
sg42
S'--'
p955
ssg142
(dp956
g5
S'--'
p957
sg7
S'--'
p958
sg9
g41
sg11
S'--'
p959
sg13
g10
sg14
S'Coby Fleener'
p960
sg16
S'2012'
p961
sg18
S'16'
p962
sg20
S'--'
p963
sg22
S'12/23'
p964
sg24
S'2.0'
p965
sg26
S'--'
p966
sg28
S'--'
p967
sg30
S'W20-13'
p968
sg32
g157
sg34
g10
sg36
S'@KC'
p969
sg38
g157
sg40
g41
sg42
S'--'
p970
ssg10
(dp971
g5
S'--'
p972
sg7
S'--'
p973
sg9
g10
sg11
S'--'
p974
sg13
g10
sg14
S'Coby Fleener'
p975
sg16
S'2012'
p976
sg18
g10
sg20
S'--'
p977
sg22
S'09/09'
p978
sg24
S'13.7'
p979
sg26
S'--'
p980
sg28
S'--'
p981
sg30
S'L21-41'
p982
sg32
S'82'
p983
sg34
g120
sg36
S'@CHI'
p984
sg38
S'24'
p985
sg40
g41
sg42
S'--'
p986
ssg35
(dp987
g5
S'--'
p988
sg7
S'--'
p989
sg9
g10
sg11
S'--'
p990
sg13
g10
sg14
S'Coby Fleener'
p991
sg16
S'2012'
p992
sg18
g35
sg20
S'--'
p993
sg22
S'09/23'
p994
sg24
S'--'
p995
sg26
S'--'
p996
sg28
S'--'
p997
sg30
S'L17-22'
p998
sg32
g41
sg34
g41
sg36
S'JAC'
p999
sg38
S'--'
p1000
sg40
g41
sg42
S'--'
p1001
ssg157
(dp1002
g5
S'--'
p1003
sg7
S'--'
p1004
sg9
g10
sg11
S'--'
p1005
sg13
g10
sg14
S'Coby Fleener'
p1006
sg16
S'2012'
p1007
sg18
g157
sg20
S'--'
p1008
sg22
S'09/16'
p1009
sg24
S'8.0'
p1010
sg26
S'--'
p1011
sg28
S'--'
p1012
sg30
S'W23-20'
p1013
sg32
S'16'
p1014
sg34
g157
sg36
S'MIN'
p1015
sg38
g222
sg40
g41
sg42
S'--'
p1016
ssg173
(dp1017
g5
S'--'
p1018
sg7
S'--'
p1019
sg9
g10
sg11
S'--'
p1020
sg13
g10
sg14
S'Coby Fleener'
p1021
sg16
S'2012'
p1022
sg18
g173
sg20
S'--'
p1023
sg22
S'10/07'
p1024
sg24
S'8.2'
p1025
sg26
S'--'
p1026
sg28
S'--'
p1027
sg30
S'W30-27'
p1028
sg32
S'41'
p1029
sg34
g173
sg36
S'GB'
p1030
sg38
S'18'
p1031
sg40
g41
sg42
S'--'
p1032
ssg66
(dp1033
g5
g46
sg7
g46
sg9
g46
sg11
g46
sg13
g46
sg14
S'Coby Fleener'
p1034
sg16
S'2012'
p1035
sg18
g66
sg20
g46
sg22
S'Bye'
p1036
sg24
g46
sg26
g46
sg28
g46
sg30
g46
sg32
g46
sg34
g46
sg36
g46
sg38
g46
sg40
g46
sg42
g46
ssg138
(dp1037
g5
S'--'
p1038
sg7
S'--'
p1039
sg9
g41
sg11
S'--'
p1040
sg13
g10
sg14
S'Coby Fleener'
p1041
sg16
S'2012'
p1042
sg18
g138
sg20
S'--'
p1043
sg22
S'10/21'
p1044
sg24
S'8.5'
p1045
sg26
S'--'
p1046
sg28
S'--'
p1047
sg30
S'W17-13'
p1048
sg32
S'17'
p1049
sg34
g157
sg36
S'CLE'
p1050
sg38
S'10'
p1051
sg40
g41
sg42
S'--'
p1052
ssg120
(dp1053
g5
S'--'
p1054
sg7
S'--'
p1055
sg9
g10
sg11
S'--'
p1056
sg13
g10
sg14
S'Coby Fleener'
p1057
sg16
S'2012'
p1058
sg18
g120
sg20
S'--'
p1059
sg22
S'10/14'
p1060
sg24
S'10.5'
p1061
sg26
S'--'
p1062
sg28
S'--'
p1063
sg30
S'L9-35'
p1064
sg32
S'42'
p1065
sg34
g66
sg36
S'@NYJ'
p1066
sg38
S'12'
p1067
sg40
g41
sg42
S'--'
p1068
ssg222
(dp1069
g5
S'--'
p1070
sg7
S'--'
p1071
sg9
g41
sg11
S'--'
p1072
sg13
g41
sg14
S'Coby Fleener'
p1073
sg16
S'2012'
p1074
sg18
g222
sg20
S'--'
p1075
sg22
S'11/04'
p1076
sg24
S'--'
p1077
sg26
S'--'
p1078
sg28
S'--'
p1079
sg30
S'W23-20'
p1080
sg32
S'--'
p1081
sg34
S'--'
p1082
sg36
S'MIA'
p1083
sg38
S'--'
p1084
sg40
S'--'
p1085
sg42
S'--'
p1086
ssg68
(dp1087
g5
S'--'
p1088
sg7
S'--'
p1089
sg9
g10
sg11
S'--'
p1090
sg13
g10
sg14
S'Coby Fleener'
p1091
sg16
S'2012'
p1092
sg18
g68
sg20
S'--'
p1093
sg22
S'10/28'
p1094
sg24
S'12.0'
p1095
sg26
S'--'
p1096
sg28
S'--'
p1097
sg30
S'W19-13'
p1098
sg32
S'24'
p1099
sg34
g157
sg36
S'@TEN'
p1100
sg38
S'15'
p1101
sg40
g41
sg42
S'--'
p1102
sss.