(dp0
S'2015'
p1
(dp2
S'11'
p3
(dp4
S'RushTD'
p5
S'--'
p6
sS'RushYds'
p7
S'--'
p8
sS'GS'
p9
S'0'
p10
sS'Lost'
p11
S'--'
p12
sS'G'
p13
S'1'
p14
sS'Player'
p15
S'Cooper Helfet'
p16
sS'Year'
p17
S'2015'
p18
sS'WK'
p19
S'11'
p20
sS'RushAvg'
p21
S'--'
p22
sS'Game Date'
p23
S'11/22'
p24
sS'RecAvg'
p25
S'7.0'
p26
sS'FUM'
p27
S'--'
p28
sS'RushAtt'
p29
S'--'
p30
sS'Result'
p31
S'W29-13'
p32
sS'RecYds'
p33
S'7'
p34
sS'Rec'
p35
g14
sS'Opp'
p36
S'SF'
p37
sS'RecLng'
p38
g34
sS'RecTD'
p39
g10
sS'RushLng'
p40
S'--'
p41
ssS'10'
p42
(dp43
g5
S'--'
p44
sg7
S'--'
p45
sg9
g10
sg11
S'--'
p46
sg13
g10
sg15
S'Cooper Helfet'
p47
sg17
S'2015'
p48
sg19
S'10'
p49
sg21
S'--'
p50
sg23
S'11/15'
p51
sg25
S'--'
p52
sg27
S'--'
p53
sg29
S'--'
p54
sg31
S'L32-39'
p55
sg33
S'--'
p56
sg35
S'--'
p57
sg36
S'ARI'
p58
sg38
S'--'
p59
sg39
S'--'
p60
sg40
S'--'
p61
ssS'13'
p62
(dp63
g5
S'--'
p64
sg7
S'--'
p65
sg9
g10
sg11
S'--'
p66
sg13
g14
sg15
S'Cooper Helfet'
p67
sg17
S'2015'
p68
sg19
S'13'
p69
sg21
S'--'
p70
sg23
S'12/06'
p71
sg25
S'13.0'
p72
sg27
S'--'
p73
sg29
S'--'
p74
sg31
S'W38-7'
p75
sg33
S'13'
p76
sg35
g14
sg36
S'@MIN'
p77
sg38
S'13'
p78
sg39
g10
sg40
S'--'
p79
ssS'12'
p80
(dp81
g5
S'--'
p82
sg7
S'--'
p83
sg9
g10
sg11
S'--'
p84
sg13
g14
sg15
S'Cooper Helfet'
p85
sg17
S'2015'
p86
sg19
S'12'
p87
sg21
S'--'
p88
sg23
S'11/29'
p89
sg25
S'--'
p90
sg27
S'--'
p91
sg29
S'--'
p92
sg31
S'W39-30'
p93
sg33
S'--'
p94
sg35
S'--'
p95
sg36
S'PIT'
p96
sg38
S'--'
p97
sg39
S'--'
p98
sg40
S'--'
p99
ssS'15'
p100
(dp101
g5
S'--'
p102
sg7
S'--'
p103
sg9
g14
sg11
S'--'
p104
sg13
g14
sg15
S'Cooper Helfet'
p105
sg17
S'2015'
p106
sg19
S'15'
p107
sg21
S'--'
p108
sg23
S'12/20'
p109
sg25
S'5.0'
p110
sg27
S'--'
p111
sg29
S'--'
p112
sg31
S'W30-13'
p113
sg33
S'5'
p114
sg35
g14
sg36
S'CLE'
p115
sg38
g114
sg39
g10
sg40
S'--'
p116
ssS'14'
p117
(dp118
g5
S'--'
p119
sg7
S'--'
p120
sg9
g10
sg11
S'--'
p121
sg13
g14
sg15
S'Cooper Helfet'
p122
sg17
S'2015'
p123
sg19
S'14'
p124
sg21
S'--'
p125
sg23
S'12/13'
p126
sg25
S'10.0'
p127
sg27
S'--'
p128
sg29
S'--'
p129
sg31
S'W35-6'
p130
sg33
S'20'
p131
sg35
S'2'
p132
sg36
S'@BAL'
p133
sg38
S'17'
p134
sg39
g10
sg40
S'--'
p135
ssS'17'
p136
(dp137
g5
S'--'
p138
sg7
S'--'
p139
sg9
g14
sg11
S'--'
p140
sg13
g14
sg15
S'Cooper Helfet'
p141
sg17
S'2015'
p142
sg19
S'17'
p143
sg21
S'--'
p144
sg23
S'01/03'
p145
sg25
S'10.5'
p146
sg27
S'--'
p147
sg29
S'--'
p148
sg31
S'W36-6'
p149
sg33
S'42'
p150
sg35
S'4'
p151
sg36
S'@ARI'
p152
sg38
S'20'
p153
sg39
g10
sg40
S'--'
p154
ssS'16'
p155
(dp156
g5
S'--'
p157
sg7
S'--'
p158
sg9
g10
sg11
S'--'
p159
sg13
g14
sg15
S'Cooper Helfet'
p160
sg17
S'2015'
p161
sg19
S'16'
p162
sg21
S'--'
p163
sg23
S'12/27'
p164
sg25
S'10.8'
p165
sg27
S'--'
p166
sg29
S'--'
p167
sg31
S'L17-23'
p168
sg33
S'43'
p169
sg35
g151
sg36
S'STL'
p170
sg38
S'16'
p171
sg39
g10
sg40
S'--'
p172
ssg14
(dp173
g5
S'--'
p174
sg7
S'--'
p175
sg9
g10
sg11
S'--'
p176
sg13
g14
sg15
S'Cooper Helfet'
p177
sg17
S'2015'
p178
sg19
g14
sg21
S'--'
p179
sg23
S'09/13'
p180
sg25
S'--'
p181
sg27
S'--'
p182
sg29
S'--'
p183
sg31
S'L31-34'
p184
sg33
S'--'
p185
sg35
S'--'
p186
sg36
S'@STL'
p187
sg38
S'--'
p188
sg39
S'--'
p189
sg40
S'--'
p190
ssS'3'
p191
(dp192
g5
S'--'
p193
sg7
S'--'
p194
sg9
g10
sg11
S'--'
p195
sg13
g14
sg15
S'Cooper Helfet'
p196
sg17
S'2015'
p197
sg19
g191
sg21
S'--'
p198
sg23
S'09/27'
p199
sg25
S'--'
p200
sg27
S'--'
p201
sg29
S'--'
p202
sg31
S'W26-0'
p203
sg33
g10
sg35
g10
sg36
S'CHI'
p204
sg38
S'--'
p205
sg39
g10
sg40
S'--'
p206
ssg132
(dp207
g5
S'--'
p208
sg7
S'--'
p209
sg9
g10
sg11
S'--'
p210
sg13
g14
sg15
S'Cooper Helfet'
p211
sg17
S'2015'
p212
sg19
g132
sg21
S'--'
p213
sg23
S'09/20'
p214
sg25
S'--'
p215
sg27
S'--'
p216
sg29
S'--'
p217
sg31
S'L17-27'
p218
sg33
S'--'
p219
sg35
S'--'
p220
sg36
S'@GB'
p221
sg38
S'--'
p222
sg39
S'--'
p223
sg40
S'--'
p224
ssg114
(dp225
g5
S'--'
p226
sg7
S'--'
p227
sg9
g10
sg11
S'--'
p228
sg13
g14
sg15
S'Cooper Helfet'
p229
sg17
S'2015'
p230
sg19
g114
sg21
S'--'
p231
sg23
S'10/11'
p232
sg25
S'--'
p233
sg27
S'--'
p234
sg29
S'--'
p235
sg31
S'L24-27'
p236
sg33
S'--'
p237
sg35
S'--'
p238
sg36
S'@CIN'
p239
sg38
S'--'
p240
sg39
S'--'
p241
sg40
S'--'
p242
ssg151
(dp243
g5
S'--'
p244
sg7
S'--'
p245
sg9
g10
sg11
S'--'
p246
sg13
g14
sg15
S'Cooper Helfet'
p247
sg17
S'2015'
p248
sg19
g151
sg21
S'--'
p249
sg23
S'10/05'
p250
sg25
S'--'
p251
sg27
S'--'
p252
sg29
S'--'
p253
sg31
S'W13-10'
p254
sg33
S'--'
p255
sg35
S'--'
p256
sg36
S'DET'
p257
sg38
S'--'
p258
sg39
S'--'
p259
sg40
S'--'
p260
ssg34
(dp261
g5
S'--'
p262
sg7
S'--'
p263
sg9
g10
sg11
S'--'
p264
sg13
g14
sg15
S'Cooper Helfet'
p265
sg17
S'2015'
p266
sg19
g34
sg21
S'--'
p267
sg23
S'10/22'
p268
sg25
S'--'
p269
sg27
S'--'
p270
sg29
S'--'
p271
sg31
S'W20-3'
p272
sg33
S'--'
p273
sg35
S'--'
p274
sg36
S'@SF'
p275
sg38
S'--'
p276
sg39
S'--'
p277
sg40
S'--'
p278
ssS'6'
p279
(dp280
g5
S'--'
p281
sg7
S'--'
p282
sg9
g10
sg11
S'--'
p283
sg13
g14
sg15
S'Cooper Helfet'
p284
sg17
S'2015'
p285
sg19
g279
sg21
S'--'
p286
sg23
S'10/18'
p287
sg25
S'--'
p288
sg27
S'--'
p289
sg29
S'--'
p290
sg31
S'L23-27'
p291
sg33
S'--'
p292
sg35
S'--'
p293
sg36
S'CAR'
p294
sg38
S'--'
p295
sg39
S'--'
p296
sg40
S'--'
p297
ssS'9'
p298
(dp299
g5
S''
p300
sg7
g300
sg9
g300
sg11
g300
sg13
g300
sg15
S'Cooper Helfet'
p301
sg17
S'2015'
p302
sg19
g298
sg21
g300
sg23
S'Bye'
p303
sg25
g300
sg27
g300
sg29
g300
sg31
g300
sg33
g300
sg35
g300
sg36
g300
sg38
g300
sg39
g300
sg40
g300
ssS'8'
p304
(dp305
g5
S'--'
p306
sg7
S'--'
p307
sg9
g10
sg11
S'--'
p308
sg13
g10
sg15
S'Cooper Helfet'
p309
sg17
S'2015'
p310
sg19
g304
sg21
S'--'
p311
sg23
S'11/01'
p312
sg25
S'--'
p313
sg27
S'--'
p314
sg29
S'--'
p315
sg31
S'W13-12'
p316
sg33
S'--'
p317
sg35
S'--'
p318
sg36
S'@DAL'
p319
sg38
S'--'
p320
sg39
S'--'
p321
sg40
S'--'
p322
sssS'2014'
p323
(dp324
g3
(dp325
g5
S'--'
p326
sg7
S'--'
p327
sg9
g14
sg11
S'--'
p328
sg13
g14
sg15
S'Cooper Helfet'
p329
sg17
S'2014'
p330
sg19
S'11'
p331
sg21
S'--'
p332
sg23
S'11/16'
p333
sg25
S'2.0'
p334
sg27
S'--'
p335
sg29
S'--'
p336
sg31
S'L20-24'
p337
sg33
g132
sg35
g14
sg36
S'@KC'
p338
sg38
g132
sg39
g10
sg40
S'--'
p339
ssg42
(dp340
g5
S'--'
p341
sg7
S'--'
p342
sg9
g10
sg11
S'--'
p343
sg13
g14
sg15
S'Cooper Helfet'
p344
sg17
S'2014'
p345
sg19
S'10'
p346
sg21
S'--'
p347
sg23
S'11/09'
p348
sg25
S'32.0'
p349
sg27
S'--'
p350
sg29
S'--'
p351
sg31
S'W38-17'
p352
sg33
S'32'
p353
sg35
g14
sg36
S'NYG'
p354
sg38
S'32'
p355
sg39
g10
sg40
S'--'
p356
ssg62
(dp357
g5
S'--'
p358
sg7
S'--'
p359
sg9
g10
sg11
S'--'
p360
sg13
g10
sg15
S'Cooper Helfet'
p361
sg17
S'2014'
p362
sg19
S'13'
p363
sg21
S'--'
p364
sg23
S'11/27'
p365
sg25
S'--'
p366
sg27
S'--'
p367
sg29
S'--'
p368
sg31
S'W19-3'
p369
sg33
S'--'
p370
sg35
S'--'
p371
sg36
S'@SF'
p372
sg38
S'--'
p373
sg39
S'--'
p374
sg40
S'--'
p375
ssg80
(dp376
g5
S'--'
p377
sg7
S'--'
p378
sg9
g10
sg11
S'--'
p379
sg13
g14
sg15
S'Cooper Helfet'
p380
sg17
S'2014'
p381
sg19
S'12'
p382
sg21
S'--'
p383
sg23
S'11/23'
p384
sg25
S'13.5'
p385
sg27
S'--'
p386
sg29
S'--'
p387
sg31
S'W19-3'
p388
sg33
S'27'
p389
sg35
g132
sg36
S'ARI'
p390
sg38
S'20T'
p391
sg39
g14
sg40
S'--'
p392
ssg100
(dp393
g5
S'--'
p394
sg7
S'--'
p395
sg9
g10
sg11
S'--'
p396
sg13
g10
sg15
S'Cooper Helfet'
p397
sg17
S'2014'
p398
sg19
S'15'
p399
sg21
S'--'
p400
sg23
S'12/14'
p401
sg25
S'--'
p402
sg27
S'--'
p403
sg29
S'--'
p404
sg31
S'W17-7'
p405
sg33
S'--'
p406
sg35
S'--'
p407
sg36
S'SF'
p408
sg38
S'--'
p409
sg39
S'--'
p410
sg40
S'--'
p411
ssg117
(dp412
g5
S'--'
p413
sg7
S'--'
p414
sg9
g10
sg11
S'--'
p415
sg13
g10
sg15
S'Cooper Helfet'
p416
sg17
S'2014'
p417
sg19
S'14'
p418
sg21
S'--'
p419
sg23
S'12/07'
p420
sg25
S'--'
p421
sg27
S'--'
p422
sg29
S'--'
p423
sg31
S'W24-14'
p424
sg33
S'--'
p425
sg35
S'--'
p426
sg36
S'@PHI'
p427
sg38
S'--'
p428
sg39
S'--'
p429
sg40
S'--'
p430
ssg136
(dp431
g5
S'--'
p432
sg7
S'--'
p433
sg9
g10
sg11
S'--'
p434
sg13
g10
sg15
S'Cooper Helfet'
p435
sg17
S'2014'
p436
sg19
S'17'
p437
sg21
S'--'
p438
sg23
S'12/28'
p439
sg25
S'--'
p440
sg27
S'--'
p441
sg29
S'--'
p442
sg31
S'W20-6'
p443
sg33
S'--'
p444
sg35
S'--'
p445
sg36
S'STL'
p446
sg38
S'--'
p447
sg39
S'--'
p448
sg40
S'--'
p449
ssg155
(dp450
g5
S'--'
p451
sg7
S'--'
p452
sg9
g10
sg11
S'--'
p453
sg13
g14
sg15
S'Cooper Helfet'
p454
sg17
S'2014'
p455
sg19
S'16'
p456
sg21
S'--'
p457
sg23
S'12/21'
p458
sg25
S'4.5'
p459
sg27
S'--'
p460
sg29
S'--'
p461
sg31
S'W35-6'
p462
sg33
g298
sg35
g132
sg36
S'@ARI'
p463
sg38
g279
sg39
g10
sg40
S'--'
p464
ssg14
(dp465
g5
S'--'
p466
sg7
S'--'
p467
sg9
g10
sg11
S'--'
p468
sg13
g10
sg15
S'Cooper Helfet'
p469
sg17
S'2014'
p470
sg19
g14
sg21
S'--'
p471
sg23
S'09/04'
p472
sg25
S'--'
p473
sg27
S'--'
p474
sg29
S'--'
p475
sg31
S'W36-16'
p476
sg33
S'--'
p477
sg35
S'--'
p478
sg36
S'GB'
p479
sg38
S'--'
p480
sg39
S'--'
p481
sg40
S'--'
p482
ssg191
(dp483
g5
S'--'
p484
sg7
S'--'
p485
sg9
g10
sg11
S'--'
p486
sg13
g14
sg15
S'Cooper Helfet'
p487
sg17
S'2014'
p488
sg19
g191
sg21
S'--'
p489
sg23
S'09/21'
p490
sg25
S'--'
p491
sg27
S'--'
p492
sg29
S'--'
p493
sg31
S'W26-20'
p494
sg33
S'--'
p495
sg35
S'--'
p496
sg36
S'DEN'
p497
sg38
S'--'
p498
sg39
S'--'
p499
sg40
S'--'
p500
ssg132
(dp501
g5
S'--'
p502
sg7
S'--'
p503
sg9
g10
sg11
S'--'
p504
sg13
g10
sg15
S'Cooper Helfet'
p505
sg17
S'2014'
p506
sg19
g132
sg21
S'--'
p507
sg23
S'09/14'
p508
sg25
S'--'
p509
sg27
S'--'
p510
sg29
S'--'
p511
sg31
S'L21-30'
p512
sg33
S'--'
p513
sg35
S'--'
p514
sg36
S'@SD'
p515
sg38
S'--'
p516
sg39
S'--'
p517
sg40
S'--'
p518
ssg114
(dp519
g5
S'--'
p520
sg7
S'--'
p521
sg9
g10
sg11
S'--'
p522
sg13
g14
sg15
S'Cooper Helfet'
p523
sg17
S'2014'
p524
sg19
g114
sg21
S'--'
p525
sg23
S'10/06'
p526
sg25
S'36.0'
p527
sg27
S'--'
p528
sg29
S'--'
p529
sg31
S'W27-17'
p530
sg33
S'36'
p531
sg35
g14
sg36
S'@WAS'
p532
sg38
S'36'
p533
sg39
g10
sg40
S'--'
p534
ssg151
(dp535
g5
g300
sg7
g300
sg9
g300
sg11
g300
sg13
g300
sg15
S'Cooper Helfet'
p536
sg17
S'2014'
p537
sg19
g151
sg21
g300
sg23
S'Bye'
p538
sg25
g300
sg27
g300
sg29
g300
sg31
g300
sg33
g300
sg35
g300
sg36
g300
sg38
g300
sg39
g300
sg40
g300
ssg34
(dp539
g5
S'--'
p540
sg7
S'--'
p541
sg9
g14
sg11
S'--'
p542
sg13
g14
sg15
S'Cooper Helfet'
p543
sg17
S'2014'
p544
sg19
g34
sg21
S'--'
p545
sg23
S'10/19'
p546
sg25
S'20.3'
p547
sg27
S'--'
p548
sg29
S'--'
p549
sg31
S'L26-28'
p550
sg33
S'61'
p551
sg35
g191
sg36
S'@STL'
p552
sg38
S'22'
p553
sg39
g14
sg40
S'--'
p554
ssg279
(dp555
g5
S'--'
p556
sg7
S'--'
p557
sg9
g10
sg11
S'--'
p558
sg13
g14
sg15
S'Cooper Helfet'
p559
sg17
S'2014'
p560
sg19
g279
sg21
S'--'
p561
sg23
S'10/12'
p562
sg25
S'7.0'
p563
sg27
S'--'
p564
sg29
S'--'
p565
sg31
S'L23-30'
p566
sg33
g34
sg35
g14
sg36
S'DAL'
p567
sg38
g34
sg39
g10
sg40
S'--'
p568
ssg298
(dp569
g5
S'--'
p570
sg7
S'--'
p571
sg9
g10
sg11
S'--'
p572
sg13
g14
sg15
S'Cooper Helfet'
p573
sg17
S'2014'
p574
sg19
g298
sg21
S'--'
p575
sg23
S'11/02'
p576
sg25
S'--'
p577
sg27
S'--'
p578
sg29
S'--'
p579
sg31
S'W30-24'
p580
sg33
S'--'
p581
sg35
S'--'
p582
sg36
S'OAK'
p583
sg38
S'--'
p584
sg39
S'--'
p585
sg40
S'--'
p586
ssg304
(dp587
g5
S'--'
p588
sg7
S'--'
p589
sg9
g10
sg11
S'--'
p590
sg13
g14
sg15
S'Cooper Helfet'
p591
sg17
S'2014'
p592
sg19
g304
sg21
S'--'
p593
sg23
S'10/26'
p594
sg25
S'11.0'
p595
sg27
S'--'
p596
sg29
S'--'
p597
sg31
S'W13-9'
p598
sg33
S'11'
p599
sg35
g14
sg36
S'@CAR'
p600
sg38
S'11'
p601
sg39
g10
sg40
S'--'
p602
sss.