(dp0
S'2015'
p1
(dp2
S'11'
p3
(dp4
S'RushTD'
p5
S'--'
p6
sS'RushYds'
p7
S'--'
p8
sS'GS'
p9
S'0'
p10
sS'Lost'
p11
S'--'
p12
sS'G'
p13
S'1'
p14
sS'Player'
p15
S'Cory Harkey'
p16
sS'Year'
p17
S'2015'
p18
sS'WK'
p19
S'11'
p20
sS'RushAvg'
p21
S'--'
p22
sS'Game Date'
p23
S'11/22'
p24
sS'RecAvg'
p25
S'--'
p26
sS'FUM'
p27
S'--'
p28
sS'RushAtt'
p29
S'--'
p30
sS'Result'
p31
S'L13-16'
p32
sS'RecYds'
p33
S'--'
p34
sS'Rec'
p35
S'--'
p36
sS'Opp'
p37
S'@BAL'
p38
sS'RecLng'
p39
S'--'
p40
sS'RecTD'
p41
S'--'
p42
sS'RushLng'
p43
S'--'
p44
ssS'10'
p45
(dp46
g5
S'--'
p47
sg7
S'--'
p48
sg9
g10
sg11
S'--'
p49
sg13
g14
sg15
S'Cory Harkey'
p50
sg17
S'2015'
p51
sg19
S'10'
p52
sg21
S'--'
p53
sg23
S'11/15'
p54
sg25
S'--'
p55
sg27
S'--'
p56
sg29
S'--'
p57
sg31
S'L13-37'
p58
sg33
S'--'
p59
sg35
S'--'
p60
sg37
S'CHI'
p61
sg39
S'--'
p62
sg41
S'--'
p63
sg43
S'--'
p64
ssS'13'
p65
(dp66
g5
S'--'
p67
sg7
S'--'
p68
sg9
g14
sg11
S'--'
p69
sg13
g14
sg15
S'Cory Harkey'
p70
sg17
S'2015'
p71
sg19
S'13'
p72
sg21
S'--'
p73
sg23
S'12/06'
p74
sg25
S'4.0'
p75
sg27
S'--'
p76
sg29
S'--'
p77
sg31
S'L3-27'
p78
sg33
S'4'
p79
sg35
g14
sg37
S'ARI'
p80
sg39
g79
sg41
g10
sg43
S'--'
p81
ssS'12'
p82
(dp83
g5
S'--'
p84
sg7
S'--'
p85
sg9
g14
sg11
S'--'
p86
sg13
g14
sg15
S'Cory Harkey'
p87
sg17
S'2015'
p88
sg19
S'12'
p89
sg21
S'--'
p90
sg23
S'11/29'
p91
sg25
S'2.0'
p92
sg27
S'--'
p93
sg29
S'--'
p94
sg31
S'L7-31'
p95
sg33
S'2'
p96
sg35
g14
sg37
S'@CIN'
p97
sg39
g96
sg41
g10
sg43
S'--'
p98
ssS'15'
p99
(dp100
g5
S'--'
p101
sg7
S'--'
p102
sg9
g14
sg11
S'--'
p103
sg13
g14
sg15
S'Cory Harkey'
p104
sg17
S'2015'
p105
sg19
S'15'
p106
sg21
S'--'
p107
sg23
S'12/17'
p108
sg25
S'--'
p109
sg27
S'--'
p110
sg29
S'--'
p111
sg31
S'W31-23'
p112
sg33
S'--'
p113
sg35
S'--'
p114
sg37
S'TB'
p115
sg39
S'--'
p116
sg41
S'--'
p117
sg43
S'--'
p118
ssS'14'
p119
(dp120
g5
S'--'
p121
sg7
S'--'
p122
sg9
g10
sg11
S'--'
p123
sg13
g14
sg15
S'Cory Harkey'
p124
sg17
S'2015'
p125
sg19
S'14'
p126
sg21
S'--'
p127
sg23
S'12/13'
p128
sg25
S'--'
p129
sg27
S'--'
p130
sg29
S'--'
p131
sg31
S'W21-14'
p132
sg33
S'--'
p133
sg35
S'--'
p134
sg37
S'DET'
p135
sg39
S'--'
p136
sg41
S'--'
p137
sg43
S'--'
p138
ssS'17'
p139
(dp140
g5
S'--'
p141
sg7
S'--'
p142
sg9
g10
sg11
S'--'
p143
sg13
g14
sg15
S'Cory Harkey'
p144
sg17
S'2015'
p145
sg19
S'17'
p146
sg21
S'--'
p147
sg23
S'01/03'
p148
sg25
S'12.0'
p149
sg27
S'--'
p150
sg29
S'--'
p151
sg31
S'L16-19'
p152
sg33
S'12'
p153
sg35
g14
sg37
S'@SF'
p154
sg39
S'12'
p155
sg41
g10
sg43
S'--'
p156
ssS'16'
p157
(dp158
g5
S'--'
p159
sg7
S'--'
p160
sg9
g14
sg11
S'--'
p161
sg13
g14
sg15
S'Cory Harkey'
p162
sg17
S'2015'
p163
sg19
S'16'
p164
sg21
S'--'
p165
sg23
S'12/27'
p166
sg25
S'--'
p167
sg27
S'--'
p168
sg29
S'--'
p169
sg31
S'W23-17'
p170
sg33
S'--'
p171
sg35
S'--'
p172
sg37
S'@SEA'
p173
sg39
S'--'
p174
sg41
S'--'
p175
sg43
S'--'
p176
ssg14
(dp177
g5
S'--'
p178
sg7
S'--'
p179
sg9
g10
sg11
S'--'
p180
sg13
g14
sg15
S'Cory Harkey'
p181
sg17
S'2015'
p182
sg19
g14
sg21
S'--'
p183
sg23
S'09/13'
p184
sg25
S'--'
p185
sg27
S'--'
p186
sg29
S'--'
p187
sg31
S'W34-31'
p188
sg33
S'--'
p189
sg35
S'--'
p190
sg37
S'SEA'
p191
sg39
S'--'
p192
sg41
S'--'
p193
sg43
S'--'
p194
ssS'3'
p195
(dp196
g5
S'--'
p197
sg7
S'--'
p198
sg9
g10
sg11
S'--'
p199
sg13
g14
sg15
S'Cory Harkey'
p200
sg17
S'2015'
p201
sg19
g195
sg21
S'--'
p202
sg23
S'09/27'
p203
sg25
S'--'
p204
sg27
S'--'
p205
sg29
S'--'
p206
sg31
S'L6-12'
p207
sg33
g10
sg35
g10
sg37
S'PIT'
p208
sg39
S'--'
p209
sg41
g10
sg43
S'--'
p210
ssg96
(dp211
g5
S'--'
p212
sg7
S'--'
p213
sg9
g10
sg11
S'--'
p214
sg13
g14
sg15
S'Cory Harkey'
p215
sg17
S'2015'
p216
sg19
g96
sg21
S'--'
p217
sg23
S'09/20'
p218
sg25
S'--'
p219
sg27
S'--'
p220
sg29
S'--'
p221
sg31
S'L10-24'
p222
sg33
S'--'
p223
sg35
S'--'
p224
sg37
S'@WAS'
p225
sg39
S'--'
p226
sg41
S'--'
p227
sg43
S'--'
p228
ssS'5'
p229
(dp230
g5
S'--'
p231
sg7
S'--'
p232
sg9
g14
sg11
S'--'
p233
sg13
g14
sg15
S'Cory Harkey'
p234
sg17
S'2015'
p235
sg19
g229
sg21
S'--'
p236
sg23
S'10/11'
p237
sg25
S'--'
p238
sg27
S'--'
p239
sg29
S'--'
p240
sg31
S'L10-24'
p241
sg33
S'--'
p242
sg35
S'--'
p243
sg37
S'@GB'
p244
sg39
S'--'
p245
sg41
S'--'
p246
sg43
S'--'
p247
ssg79
(dp248
g5
S'--'
p249
sg7
S'--'
p250
sg9
g10
sg11
S'--'
p251
sg13
g14
sg15
S'Cory Harkey'
p252
sg17
S'2015'
p253
sg19
g79
sg21
S'--'
p254
sg23
S'10/04'
p255
sg25
S'4.0'
p256
sg27
S'--'
p257
sg29
S'--'
p258
sg31
S'W24-22'
p259
sg33
g79
sg35
g14
sg37
S'@ARI'
p260
sg39
g79
sg41
g10
sg43
S'--'
p261
ssS'7'
p262
(dp263
g5
S'--'
p264
sg7
S'--'
p265
sg9
g10
sg11
S'--'
p266
sg13
g14
sg15
S'Cory Harkey'
p267
sg17
S'2015'
p268
sg19
g262
sg21
S'--'
p269
sg23
S'10/25'
p270
sg25
S'4.0'
p271
sg27
S'--'
p272
sg29
S'--'
p273
sg31
S'W24-6'
p274
sg33
g79
sg35
g14
sg37
S'CLE'
p275
sg39
g79
sg41
g10
sg43
S'--'
p276
ssS'6'
p277
(dp278
g5
S''
p279
sg7
g279
sg9
g279
sg11
g279
sg13
g279
sg15
S'Cory Harkey'
p280
sg17
S'2015'
p281
sg19
g277
sg21
g279
sg23
S'Bye'
p282
sg25
g279
sg27
g279
sg29
g279
sg31
g279
sg33
g279
sg35
g279
sg37
g279
sg39
g279
sg41
g279
sg43
g279
ssS'9'
p283
(dp284
g5
S'--'
p285
sg7
S'--'
p286
sg9
g10
sg11
S'--'
p287
sg13
g14
sg15
S'Cory Harkey'
p288
sg17
S'2015'
p289
sg19
g283
sg21
S'--'
p290
sg23
S'11/08'
p291
sg25
S'--'
p292
sg27
S'--'
p293
sg29
S'--'
p294
sg31
S'L18-21'
p295
sg33
S'--'
p296
sg35
S'--'
p297
sg37
S'@MIN'
p298
sg39
S'--'
p299
sg41
S'--'
p300
sg43
S'--'
p301
ssS'8'
p302
(dp303
g5
S'--'
p304
sg7
S'--'
p305
sg9
g10
sg11
S'--'
p306
sg13
g14
sg15
S'Cory Harkey'
p307
sg17
S'2015'
p308
sg19
g302
sg21
S'--'
p309
sg23
S'11/01'
p310
sg25
S'--'
p311
sg27
S'--'
p312
sg29
S'--'
p313
sg31
S'W27-6'
p314
sg33
S'--'
p315
sg35
S'--'
p316
sg37
S'SF'
p317
sg39
S'--'
p318
sg41
S'--'
p319
sg43
S'--'
p320
sssS'2014'
p321
(dp322
g3
(dp323
g5
S'--'
p324
sg7
S'--'
p325
sg9
g14
sg11
S'--'
p326
sg13
g14
sg15
S'Cory Harkey'
p327
sg17
S'2014'
p328
sg19
S'11'
p329
sg21
S'--'
p330
sg23
S'11/16'
p331
sg25
S'--'
p332
sg27
S'--'
p333
sg29
S'--'
p334
sg31
S'W22-7'
p335
sg33
S'--'
p336
sg35
S'--'
p337
sg37
S'DEN'
p338
sg39
S'--'
p339
sg41
S'--'
p340
sg43
S'--'
p341
ssg45
(dp342
g5
S'--'
p343
sg7
S'--'
p344
sg9
g10
sg11
S'--'
p345
sg13
g14
sg15
S'Cory Harkey'
p346
sg17
S'2014'
p347
sg19
S'10'
p348
sg21
S'--'
p349
sg23
S'11/09'
p350
sg25
S'--'
p351
sg27
S'--'
p352
sg29
S'--'
p353
sg31
S'L14-31'
p354
sg33
S'--'
p355
sg35
S'--'
p356
sg37
S'@ARI'
p357
sg39
S'--'
p358
sg41
S'--'
p359
sg43
S'--'
p360
ssg65
(dp361
g5
S'--'
p362
sg7
S'--'
p363
sg9
g14
sg11
S'--'
p364
sg13
g14
sg15
S'Cory Harkey'
p365
sg17
S'2014'
p366
sg19
S'13'
p367
sg21
S'--'
p368
sg23
S'11/30'
p369
sg25
S'6.0'
p370
sg27
S'--'
p371
sg29
S'--'
p372
sg31
S'W52-0'
p373
sg33
S'12'
p374
sg35
g96
sg37
S'OAK'
p375
sg39
g302
sg41
g14
sg43
S'--'
p376
ssg82
(dp377
g5
S'--'
p378
sg7
S'--'
p379
sg9
g10
sg11
S'--'
p380
sg13
g14
sg15
S'Cory Harkey'
p381
sg17
S'2014'
p382
sg19
S'12'
p383
sg21
S'--'
p384
sg23
S'11/23'
p385
sg25
S'--'
p386
sg27
S'--'
p387
sg29
S'--'
p388
sg31
S'L24-27'
p389
sg33
S'--'
p390
sg35
S'--'
p391
sg37
S'@SD'
p392
sg39
S'--'
p393
sg41
S'--'
p394
sg43
S'--'
p395
ssg99
(dp396
g5
S'--'
p397
sg7
S'--'
p398
sg9
g14
sg11
S'--'
p399
sg13
g14
sg15
S'Cory Harkey'
p400
sg17
S'2014'
p401
sg19
S'15'
p402
sg21
S'--'
p403
sg23
S'12/11'
p404
sg25
S'21.0'
p405
sg27
S'--'
p406
sg29
S'--'
p407
sg31
S'L6-12'
p408
sg33
S'21'
p409
sg35
g14
sg37
S'ARI'
p410
sg39
S'21'
p411
sg41
g10
sg43
S'--'
p412
ssg119
(dp413
g5
S'--'
p414
sg7
S'--'
p415
sg9
g14
sg11
S'--'
p416
sg13
g14
sg15
S'Cory Harkey'
p417
sg17
S'2014'
p418
sg19
S'14'
p419
sg21
S'--'
p420
sg23
S'12/07'
p421
sg25
S'--'
p422
sg27
S'--'
p423
sg29
S'--'
p424
sg31
S'W24-0'
p425
sg33
S'--'
p426
sg35
S'--'
p427
sg37
S'@WAS'
p428
sg39
S'--'
p429
sg41
S'--'
p430
sg43
S'--'
p431
ssg139
(dp432
g5
S'--'
p433
sg7
S'--'
p434
sg9
g14
sg11
S'--'
p435
sg13
g14
sg15
S'Cory Harkey'
p436
sg17
S'2014'
p437
sg19
S'17'
p438
sg21
S'--'
p439
sg23
S'12/28'
p440
sg25
S'--'
p441
sg27
S'--'
p442
sg29
S'--'
p443
sg31
S'L6-20'
p444
sg33
g10
sg35
g10
sg37
S'@SEA'
p445
sg39
S'--'
p446
sg41
g10
sg43
S'--'
p447
ssg157
(dp448
g5
S'--'
p449
sg7
S'--'
p450
sg9
g14
sg11
S'--'
p451
sg13
g14
sg15
S'Cory Harkey'
p452
sg17
S'2014'
p453
sg19
S'16'
p454
sg21
S'--'
p455
sg23
S'12/21'
p456
sg25
S'1.0'
p457
sg27
S'--'
p458
sg29
S'--'
p459
sg31
S'L27-37'
p460
sg33
g14
sg35
g14
sg37
S'NYG'
p461
sg39
g14
sg41
g10
sg43
S'--'
p462
ssg14
(dp463
g5
S'--'
p464
sg7
S'--'
p465
sg9
g14
sg11
S'--'
p466
sg13
g14
sg15
S'Cory Harkey'
p467
sg17
S'2014'
p468
sg19
g14
sg21
S'--'
p469
sg23
S'09/07'
p470
sg25
S'4.0'
p471
sg27
S'--'
p472
sg29
S'--'
p473
sg31
S'L6-34'
p474
sg33
g79
sg35
g14
sg37
S'MIN'
p475
sg39
g79
sg41
g10
sg43
S'--'
p476
ssg195
(dp477
g5
S'--'
p478
sg7
S'--'
p479
sg9
g14
sg11
S'--'
p480
sg13
g14
sg15
S'Cory Harkey'
p481
sg17
S'2014'
p482
sg19
g195
sg21
S'--'
p483
sg23
S'09/21'
p484
sg25
S'--'
p485
sg27
S'--'
p486
sg29
S'--'
p487
sg31
S'L31-34'
p488
sg33
S'--'
p489
sg35
S'--'
p490
sg37
S'DAL'
p491
sg39
S'--'
p492
sg41
S'--'
p493
sg43
S'--'
p494
ssg96
(dp495
g5
S'--'
p496
sg7
S'--'
p497
sg9
g14
sg11
S'--'
p498
sg13
g14
sg15
S'Cory Harkey'
p499
sg17
S'2014'
p500
sg19
g96
sg21
S'--'
p501
sg23
S'09/14'
p502
sg25
S'4.0'
p503
sg27
S'--'
p504
sg29
S'--'
p505
sg31
S'W19-17'
p506
sg33
g302
sg35
g96
sg37
S'@TB'
p507
sg39
g277
sg41
g10
sg43
S'--'
p508
ssg229
(dp509
g5
S'--'
p510
sg7
S'--'
p511
sg9
g14
sg11
S'--'
p512
sg13
g14
sg15
S'Cory Harkey'
p513
sg17
S'2014'
p514
sg19
g229
sg21
S'--'
p515
sg23
S'10/05'
p516
sg25
S'--'
p517
sg27
S'--'
p518
sg29
S'--'
p519
sg31
S'L28-34'
p520
sg33
S'--'
p521
sg35
S'--'
p522
sg37
S'@PHI'
p523
sg39
S'--'
p524
sg41
S'--'
p525
sg43
S'--'
p526
ssg79
(dp527
g5
g279
sg7
g279
sg9
g279
sg11
g279
sg13
g279
sg15
S'Cory Harkey'
p528
sg17
S'2014'
p529
sg19
g79
sg21
g279
sg23
S'Bye'
p530
sg25
g279
sg27
g279
sg29
g279
sg31
g279
sg33
g279
sg35
g279
sg37
g279
sg39
g279
sg41
g279
sg43
g279
ssg262
(dp531
g5
S'--'
p532
sg7
S'--'
p533
sg9
g14
sg11
S'--'
p534
sg13
g14
sg15
S'Cory Harkey'
p535
sg17
S'2014'
p536
sg19
g262
sg21
S'--'
p537
sg23
S'10/19'
p538
sg25
S'9.0'
p539
sg27
S'--'
p540
sg29
S'--'
p541
sg31
S'W28-26'
p542
sg33
g283
sg35
g14
sg37
S'SEA'
p543
sg39
g283
sg41
g10
sg43
S'--'
p544
ssg277
(dp545
g5
S'--'
p546
sg7
S'--'
p547
sg9
g10
sg11
S'--'
p548
sg13
g14
sg15
S'Cory Harkey'
p549
sg17
S'2014'
p550
sg19
g277
sg21
S'--'
p551
sg23
S'10/13'
p552
sg25
S'--'
p553
sg27
S'--'
p554
sg29
S'--'
p555
sg31
S'L17-31'
p556
sg33
S'--'
p557
sg35
S'--'
p558
sg37
S'SF'
p559
sg39
S'--'
p560
sg41
S'--'
p561
sg43
S'--'
p562
ssg283
(dp563
g5
S'--'
p564
sg7
S'--'
p565
sg9
g14
sg11
S'--'
p566
sg13
g14
sg15
S'Cory Harkey'
p567
sg17
S'2014'
p568
sg19
g283
sg21
S'--'
p569
sg23
S'11/02'
p570
sg25
S'--'
p571
sg27
S'--'
p572
sg29
S'--'
p573
sg31
S'W13-10'
p574
sg33
g10
sg35
g10
sg37
S'@SF'
p575
sg39
S'--'
p576
sg41
g10
sg43
S'--'
p577
ssg302
(dp578
g5
S'--'
p579
sg7
S'--'
p580
sg9
g14
sg11
S'--'
p581
sg13
g14
sg15
S'Cory Harkey'
p582
sg17
S'2014'
p583
sg19
g302
sg21
S'--'
p584
sg23
S'10/26'
p585
sg25
S'--'
p586
sg27
S'--'
p587
sg29
S'--'
p588
sg31
S'L7-34'
p589
sg33
S'--'
p590
sg35
S'--'
p591
sg37
S'@KC'
p592
sg39
S'--'
p593
sg41
S'--'
p594
sg43
S'--'
p595
sssS'2013'
p596
(dp597
g3
(dp598
g5
g279
sg7
g279
sg9
g279
sg11
g279
sg13
g279
sg15
S'Cory Harkey'
p599
sg17
S'2013'
p600
sg19
S'11'
p601
sg21
g279
sg23
S'Bye'
p602
sg25
g279
sg27
g279
sg29
g279
sg31
g279
sg33
g279
sg35
g279
sg37
g279
sg39
g279
sg41
g279
sg43
g279
ssg45
(dp603
g5
S'--'
p604
sg7
S'--'
p605
sg9
g14
sg11
S'--'
p606
sg13
g14
sg15
S'Cory Harkey'
p607
sg17
S'2013'
p608
sg19
S'10'
p609
sg21
S'--'
p610
sg23
S'11/10'
p611
sg25
S'14.0'
p612
sg27
S'--'
p613
sg29
S'--'
p614
sg31
S'W38-8'
p615
sg33
S'14'
p616
sg35
g14
sg37
S'@IND'
p617
sg39
S'14'
p618
sg41
g10
sg43
S'--'
p619
ssg65
(dp620
g5
S'--'
p621
sg7
S'--'
p622
sg9
g14
sg11
S'--'
p623
sg13
g14
sg15
S'Cory Harkey'
p624
sg17
S'2013'
p625
sg19
S'13'
p626
sg21
S'--'
p627
sg23
S'12/01'
p628
sg25
S'--'
p629
sg27
S'--'
p630
sg29
S'--'
p631
sg31
S'L13-23'
p632
sg33
S'--'
p633
sg35
S'--'
p634
sg37
S'@SF'
p635
sg39
S'--'
p636
sg41
S'--'
p637
sg43
S'--'
p638
ssg82
(dp639
g5
S'--'
p640
sg7
S'--'
p641
sg9
g14
sg11
S'--'
p642
sg13
g14
sg15
S'Cory Harkey'
p643
sg17
S'2013'
p644
sg19
S'12'
p645
sg21
S'--'
p646
sg23
S'11/24'
p647
sg25
S'--'
p648
sg27
S'--'
p649
sg29
S'--'
p650
sg31
S'W42-21'
p651
sg33
S'--'
p652
sg35
S'--'
p653
sg37
S'CHI'
p654
sg39
S'--'
p655
sg41
S'--'
p656
sg43
S'--'
p657
ssg99
(dp658
g5
S'--'
p659
sg7
S'--'
p660
sg9
g14
sg11
S'--'
p661
sg13
g14
sg15
S'Cory Harkey'
p662
sg17
S'2013'
p663
sg19
S'15'
p664
sg21
S'--'
p665
sg23
S'12/15'
p666
sg25
S'9.7'
p667
sg27
S'--'
p668
sg29
S'--'
p669
sg31
S'W27-16'
p670
sg33
S'29'
p671
sg35
g195
sg37
S'NO'
p672
sg39
S'31T'
p673
sg41
g14
sg43
S'--'
p674
ssg119
(dp675
g5
S'--'
p676
sg7
S'--'
p677
sg9
g14
sg11
S'--'
p678
sg13
g14
sg15
S'Cory Harkey'
p679
sg17
S'2013'
p680
sg19
S'14'
p681
sg21
S'--'
p682
sg23
S'12/08'
p683
sg25
S'9.0'
p684
sg27
S'--'
p685
sg29
S'--'
p686
sg31
S'L10-30'
p687
sg33
g283
sg35
g14
sg37
S'@ARI'
p688
sg39
g283
sg41
g10
sg43
S'--'
p689
ssg139
(dp690
g5
S'--'
p691
sg7
S'--'
p692
sg9
g10
sg11
S'--'
p693
sg13
g14
sg15
S'Cory Harkey'
p694
sg17
S'2013'
p695
sg19
S'17'
p696
sg21
S'--'
p697
sg23
S'12/29'
p698
sg25
S'--'
p699
sg27
S'--'
p700
sg29
S'--'
p701
sg31
S'L9-27'
p702
sg33
S'--'
p703
sg35
S'--'
p704
sg37
S'@SEA'
p705
sg39
S'--'
p706
sg41
S'--'
p707
sg43
S'--'
p708
ssg157
(dp709
g5
S'--'
p710
sg7
S'--'
p711
sg9
g10
sg11
S'--'
p712
sg13
g14
sg15
S'Cory Harkey'
p713
sg17
S'2013'
p714
sg19
S'16'
p715
sg21
S'--'
p716
sg23
S'12/22'
p717
sg25
S'7.3'
p718
sg27
S'--'
p719
sg29
S'--'
p720
sg31
S'W23-13'
p721
sg33
S'22'
p722
sg35
g195
sg37
S'TB'
p723
sg39
S'10'
p724
sg41
g10
sg43
S'--'
p725
ssg14
(dp726
g5
S'--'
p727
sg7
S'--'
p728
sg9
g10
sg11
S'--'
p729
sg13
g10
sg15
S'Cory Harkey'
p730
sg17
S'2013'
p731
sg19
g14
sg21
S'--'
p732
sg23
S'09/08'
p733
sg25
S'--'
p734
sg27
S'--'
p735
sg29
S'--'
p736
sg31
S'W27-24'
p737
sg33
S'--'
p738
sg35
S'--'
p739
sg37
S'ARI'
p740
sg39
S'--'
p741
sg41
S'--'
p742
sg43
S'--'
p743
ssg195
(dp744
g5
S'--'
p745
sg7
S'--'
p746
sg9
g10
sg11
S'--'
p747
sg13
g14
sg15
S'Cory Harkey'
p748
sg17
S'2013'
p749
sg19
g195
sg21
S'--'
p750
sg23
S'09/22'
p751
sg25
S'--'
p752
sg27
S'--'
p753
sg29
S'--'
p754
sg31
S'L7-31'
p755
sg33
g10
sg35
g10
sg37
S'@DAL'
p756
sg39
S'--'
p757
sg41
g10
sg43
S'--'
p758
ssg96
(dp759
g5
S'--'
p760
sg7
S'--'
p761
sg9
g10
sg11
S'--'
p762
sg13
g14
sg15
S'Cory Harkey'
p763
sg17
S'2013'
p764
sg19
g96
sg21
S'--'
p765
sg23
S'09/15'
p766
sg25
S'6.0'
p767
sg27
S'--'
p768
sg29
S'--'
p769
sg31
S'L24-31'
p770
sg33
g277
sg35
g14
sg37
S'@ATL'
p771
sg39
g277
sg41
g10
sg43
S'--'
p772
ssg229
(dp773
g5
S'--'
p774
sg7
S'--'
p775
sg9
g14
sg11
S'--'
p776
sg13
g14
sg15
S'Cory Harkey'
p777
sg17
S'2013'
p778
sg19
g229
sg21
S'--'
p779
sg23
S'10/06'
p780
sg25
S'17.0'
p781
sg27
S'--'
p782
sg29
S'--'
p783
sg31
S'W34-20'
p784
sg33
S'17'
p785
sg35
g14
sg37
S'JAC'
p786
sg39
S'17'
p787
sg41
g10
sg43
S'--'
p788
ssg79
(dp789
g5
S'--'
p790
sg7
S'--'
p791
sg9
g10
sg11
S'--'
p792
sg13
g14
sg15
S'Cory Harkey'
p793
sg17
S'2013'
p794
sg19
g79
sg21
S'--'
p795
sg23
S'09/26'
p796
sg25
S'--'
p797
sg27
S'--'
p798
sg29
S'--'
p799
sg31
S'L11-35'
p800
sg33
S'--'
p801
sg35
S'--'
p802
sg37
S'SF'
p803
sg39
S'--'
p804
sg41
S'--'
p805
sg43
S'--'
p806
ssg262
(dp807
g5
S'--'
p808
sg7
S'--'
p809
sg9
g14
sg11
S'--'
p810
sg13
g14
sg15
S'Cory Harkey'
p811
sg17
S'2013'
p812
sg19
g262
sg21
S'--'
p813
sg23
S'10/20'
p814
sg25
S'7.0'
p815
sg27
S'--'
p816
sg29
S'--'
p817
sg31
S'L15-30'
p818
sg33
S'14'
p819
sg35
g96
sg37
S'@CAR'
p820
sg39
g302
sg41
g10
sg43
S'--'
p821
ssg277
(dp822
g5
S'--'
p823
sg7
S'--'
p824
sg9
g14
sg11
S'--'
p825
sg13
g14
sg15
S'Cory Harkey'
p826
sg17
S'2013'
p827
sg19
g277
sg21
S'--'
p828
sg23
S'10/13'
p829
sg25
S'2.0'
p830
sg27
S'--'
p831
sg29
S'--'
p832
sg31
S'W38-13'
p833
sg33
g96
sg35
g14
sg37
S'@HOU'
p834
sg39
S'2T'
p835
sg41
g14
sg43
S'--'
p836
ssg283
(dp837
g5
S'--'
p838
sg7
S'--'
p839
sg9
g14
sg11
S'--'
p840
sg13
g14
sg15
S'Cory Harkey'
p841
sg17
S'2013'
p842
sg19
g283
sg21
S'--'
p843
sg23
S'11/03'
p844
sg25
S'--'
p845
sg27
S'--'
p846
sg29
S'--'
p847
sg31
S'L21-28'
p848
sg33
S'--'
p849
sg35
S'--'
p850
sg37
S'TEN'
p851
sg39
S'--'
p852
sg41
S'--'
p853
sg43
S'--'
p854
ssg302
(dp855
g5
S'--'
p856
sg7
S'--'
p857
sg9
g14
sg11
S'--'
p858
sg13
g14
sg15
S'Cory Harkey'
p859
sg17
S'2013'
p860
sg19
g302
sg21
S'--'
p861
sg23
S'10/28'
p862
sg25
S'--'
p863
sg27
S'--'
p864
sg29
S'--'
p865
sg31
S'L9-14'
p866
sg33
g10
sg35
g10
sg37
S'SEA'
p867
sg39
S'--'
p868
sg41
g10
sg43
S'--'
p869
sssS'2012'
p870
(dp871
g3
(dp872
g5
S'--'
p873
sg7
S'--'
p874
sg9
g10
sg11
S'--'
p875
sg13
g14
sg15
S'Cory Harkey'
p876
sg17
S'2012'
p877
sg19
S'11'
p878
sg21
S'--'
p879
sg23
S'11/18'
p880
sg25
S'--'
p881
sg27
S'--'
p882
sg29
S'--'
p883
sg31
S'L13-27'
p884
sg33
g10
sg35
g10
sg37
S'NYJ'
p885
sg39
S'--'
p886
sg41
g10
sg43
S'--'
p887
ssg65
(dp888
g5
S'--'
p889
sg7
S'--'
p890
sg9
g10
sg11
S'--'
p891
sg13
g14
sg15
S'Cory Harkey'
p892
sg17
S'2012'
p893
sg19
S'13'
p894
sg21
S'--'
p895
sg23
S'12/02'
p896
sg25
S'--'
p897
sg27
S'--'
p898
sg29
S'--'
p899
sg31
S'W16-13'
p900
sg33
S'--'
p901
sg35
S'--'
p902
sg37
S'SF'
p903
sg39
S'--'
p904
sg41
S'--'
p905
sg43
S'--'
p906
ssg82
(dp907
g5
S'--'
p908
sg7
S'--'
p909
sg9
g10
sg11
S'--'
p910
sg13
g14
sg15
S'Cory Harkey'
p911
sg17
S'2012'
p912
sg19
S'12'
p913
sg21
S'--'
p914
sg23
S'11/25'
p915
sg25
S'--'
p916
sg27
S'--'
p917
sg29
S'--'
p918
sg31
S'W31-17'
p919
sg33
S'--'
p920
sg35
S'--'
p921
sg37
S'@ARI'
p922
sg39
S'--'
p923
sg41
S'--'
p924
sg43
S'--'
p925
ssg99
(dp926
g5
S'--'
p927
sg7
S'--'
p928
sg9
g10
sg11
S'--'
p929
sg13
g14
sg15
S'Cory Harkey'
p930
sg17
S'2012'
p931
sg19
S'15'
p932
sg21
S'--'
p933
sg23
S'12/16'
p934
sg25
S'21.0'
p935
sg27
S'--'
p936
sg29
S'--'
p937
sg31
S'L22-36'
p938
sg33
S'21'
p939
sg35
g14
sg37
S'MIN'
p940
sg39
S'21'
p941
sg41
g10
sg43
S'--'
p942
ssg119
(dp943
g5
S'--'
p944
sg7
S'--'
p945
sg9
g10
sg11
S'--'
p946
sg13
g14
sg15
S'Cory Harkey'
p947
sg17
S'2012'
p948
sg19
S'14'
p949
sg21
S'--'
p950
sg23
S'12/09'
p951
sg25
S'--'
p952
sg27
S'--'
p953
sg29
S'--'
p954
sg31
S'W15-12'
p955
sg33
S'--'
p956
sg35
S'--'
p957
sg37
S'@BUF'
p958
sg39
S'--'
p959
sg41
S'--'
p960
sg43
S'--'
p961
ssg139
(dp962
g5
S'--'
p963
sg7
S'--'
p964
sg9
g10
sg11
S'--'
p965
sg13
g10
sg15
S'Cory Harkey'
p966
sg17
S'2012'
p967
sg19
S'17'
p968
sg21
S'--'
p969
sg23
S'12/30'
p970
sg25
S'--'
p971
sg27
S'--'
p972
sg29
S'--'
p973
sg31
S'L13-20'
p974
sg33
S'--'
p975
sg35
S'--'
p976
sg37
S'@SEA'
p977
sg39
S'--'
p978
sg41
S'--'
p979
sg43
S'--'
p980
ssg157
(dp981
g5
S'--'
p982
sg7
S'--'
p983
sg9
g10
sg11
S'--'
p984
sg13
g10
sg15
S'Cory Harkey'
p985
sg17
S'2012'
p986
sg19
S'16'
p987
sg21
S'--'
p988
sg23
S'12/23'
p989
sg25
S'--'
p990
sg27
S'--'
p991
sg29
S'--'
p992
sg31
S'W28-13'
p993
sg33
S'--'
p994
sg35
S'--'
p995
sg37
S'@TB'
p996
sg39
S'--'
p997
sg41
S'--'
p998
sg43
S'--'
p999
sss.