(dp0
S'2015'
p1
(dp2
S'11'
p3
(dp4
S'RushTD'
p5
S'--'
p6
sS'RushYds'
p7
S'--'
p8
sS'GS'
p9
S'1'
p10
sS'Lost'
p11
S'--'
p12
sS'G'
p13
g10
sS'Player'
p14
S'Craig Stevens'
p15
sS'Year'
p16
S'2015'
p17
sS'WK'
p18
S'11'
p19
sS'RushAvg'
p20
S'--'
p21
sS'Game Date'
p22
S'11/19'
p23
sS'RecAvg'
p24
S'--'
p25
sS'FUM'
p26
S'--'
p27
sS'RushAtt'
p28
S'--'
p29
sS'Result'
p30
S'L13-19'
p31
sS'RecYds'
p32
S'0'
p33
sS'Rec'
p34
g33
sS'Opp'
p35
S'@JAC'
p36
sS'RecLng'
p37
S'--'
p38
sS'RecTD'
p39
g33
sS'RushLng'
p40
S'--'
p41
ssS'10'
p42
(dp43
g5
S'--'
p44
sg7
S'--'
p45
sg9
g10
sg11
S'--'
p46
sg13
g10
sg14
S'Craig Stevens'
p47
sg16
S'2015'
p48
sg18
S'10'
p49
sg20
S'--'
p50
sg22
S'11/15'
p51
sg24
S'--'
p52
sg26
S'--'
p53
sg28
S'--'
p54
sg30
S'L10-27'
p55
sg32
S'--'
p56
sg34
S'--'
p57
sg35
S'CAR'
p58
sg37
S'--'
p59
sg39
S'--'
p60
sg40
S'--'
p61
ssS'13'
p62
(dp63
g5
S'--'
p64
sg7
S'--'
p65
sg9
g10
sg11
S'--'
p66
sg13
g10
sg14
S'Craig Stevens'
p67
sg16
S'2015'
p68
sg18
S'13'
p69
sg20
S'--'
p70
sg22
S'12/06'
p71
sg24
S'5.5'
p72
sg26
S'--'
p73
sg28
S'--'
p74
sg30
S'W42-39'
p75
sg32
S'11'
p76
sg34
S'2'
p77
sg35
S'JAC'
p78
sg37
S'10T'
p79
sg39
g10
sg40
S'--'
p80
ssS'12'
p81
(dp82
g5
S'--'
p83
sg7
S'--'
p84
sg9
g10
sg11
S'--'
p85
sg13
g10
sg14
S'Craig Stevens'
p86
sg16
S'2015'
p87
sg18
S'12'
p88
sg20
S'--'
p89
sg22
S'11/29'
p90
sg24
S'20.0'
p91
sg26
S'--'
p92
sg28
S'--'
p93
sg30
S'L21-24'
p94
sg32
S'20'
p95
sg34
g10
sg35
S'OAK'
p96
sg37
S'20T'
p97
sg39
g10
sg40
S'--'
p98
ssS'15'
p99
(dp100
g5
S'--'
p101
sg7
S'--'
p102
sg9
g33
sg11
S'--'
p103
sg13
g10
sg14
S'Craig Stevens'
p104
sg16
S'2015'
p105
sg18
S'15'
p106
sg20
S'--'
p107
sg22
S'12/20'
p108
sg24
S'5.0'
p109
sg26
S'--'
p110
sg28
S'--'
p111
sg30
S'L16-33'
p112
sg32
S'5'
p113
sg34
g10
sg35
S'@NE'
p114
sg37
g113
sg39
g33
sg40
S'--'
p115
ssS'14'
p116
(dp117
g5
S'--'
p118
sg7
S'--'
p119
sg9
g10
sg11
S'--'
p120
sg13
g10
sg14
S'Craig Stevens'
p121
sg16
S'2015'
p122
sg18
S'14'
p123
sg20
S'--'
p124
sg22
S'12/13'
p125
sg24
S'--'
p126
sg26
S'--'
p127
sg28
S'--'
p128
sg30
S'L8-30'
p129
sg32
S'--'
p130
sg34
S'--'
p131
sg35
S'@NYJ'
p132
sg37
S'--'
p133
sg39
S'--'
p134
sg40
S'--'
p135
ssS'17'
p136
(dp137
g5
S'--'
p138
sg7
S'--'
p139
sg9
g33
sg11
S'--'
p140
sg13
g10
sg14
S'Craig Stevens'
p141
sg16
S'2015'
p142
sg18
S'17'
p143
sg20
S'--'
p144
sg22
S'01/03'
p145
sg24
S'--'
p146
sg26
S'--'
p147
sg28
S'--'
p148
sg30
S'L24-30'
p149
sg32
S'--'
p150
sg34
S'--'
p151
sg35
S'@IND'
p152
sg37
S'--'
p153
sg39
S'--'
p154
sg40
S'--'
p155
ssS'16'
p156
(dp157
g5
S'--'
p158
sg7
S'--'
p159
sg9
g10
sg11
S'--'
p160
sg13
g10
sg14
S'Craig Stevens'
p161
sg16
S'2015'
p162
sg18
S'16'
p163
sg20
S'--'
p164
sg22
S'12/27'
p165
sg24
S'8.0'
p166
sg26
S'--'
p167
sg28
S'--'
p168
sg30
S'L6-34'
p169
sg32
S'8'
p170
sg34
g10
sg35
S'HOU'
p171
sg37
g170
sg39
g33
sg40
S'--'
p172
ssg10
(dp173
g5
S'--'
p174
sg7
S'--'
p175
sg9
g10
sg11
S'--'
p176
sg13
g10
sg14
S'Craig Stevens'
p177
sg16
S'2015'
p178
sg18
g10
sg20
S'--'
p179
sg22
S'09/13'
p180
sg24
S'--'
p181
sg26
S'--'
p182
sg28
S'--'
p183
sg30
S'W42-14'
p184
sg32
S'--'
p185
sg34
S'--'
p186
sg35
S'@TB'
p187
sg37
S'--'
p188
sg39
S'--'
p189
sg40
S'--'
p190
ssS'3'
p191
(dp192
g5
S'--'
p193
sg7
S'--'
p194
sg9
g10
sg11
S'--'
p195
sg13
g10
sg14
S'Craig Stevens'
p196
sg16
S'2015'
p197
sg18
g191
sg20
S'--'
p198
sg22
S'09/27'
p199
sg24
S'14.5'
p200
sg26
S'--'
p201
sg28
S'--'
p202
sg30
S'L33-35'
p203
sg32
S'29'
p204
sg34
g77
sg35
S'IND'
p205
sg37
S'27'
p206
sg39
g33
sg40
S'--'
p207
ssg77
(dp208
g5
S'--'
p209
sg7
S'--'
p210
sg9
g33
sg11
S'--'
p211
sg13
g10
sg14
S'Craig Stevens'
p212
sg16
S'2015'
p213
sg18
g77
sg20
S'--'
p214
sg22
S'09/20'
p215
sg24
S'13.0'
p216
sg26
S'--'
p217
sg28
S'--'
p218
sg30
S'L14-28'
p219
sg32
S'13'
p220
sg34
g10
sg35
S'@CLE'
p221
sg37
S'13'
p222
sg39
g33
sg40
S'--'
p223
ssg113
(dp224
g5
S'--'
p225
sg7
S'--'
p226
sg9
g33
sg11
S'--'
p227
sg13
g10
sg14
S'Craig Stevens'
p228
sg16
S'2015'
p229
sg18
g113
sg20
S'--'
p230
sg22
S'10/11'
p231
sg24
S'1.0'
p232
sg26
S'--'
p233
sg28
S'--'
p234
sg30
S'L13-14'
p235
sg32
g10
sg34
g10
sg35
S'BUF'
p236
sg37
g10
sg39
g33
sg40
S'--'
p237
ssS'4'
p238
(dp239
g5
S''
p240
sg7
g240
sg9
g240
sg11
g240
sg13
g240
sg14
S'Craig Stevens'
p241
sg16
S'2015'
p242
sg18
g238
sg20
g240
sg22
S'Bye'
p243
sg24
g240
sg26
g240
sg28
g240
sg30
g240
sg32
g240
sg34
g240
sg35
g240
sg37
g240
sg39
g240
sg40
g240
ssS'7'
p244
(dp245
g5
S'--'
p246
sg7
S'--'
p247
sg9
g33
sg11
S'--'
p248
sg13
g10
sg14
S'Craig Stevens'
p249
sg16
S'2015'
p250
sg18
g244
sg20
S'--'
p251
sg22
S'10/25'
p252
sg24
S'--'
p253
sg26
S'--'
p254
sg28
S'--'
p255
sg30
S'L7-10'
p256
sg32
S'--'
p257
sg34
S'--'
p258
sg35
S'ATL'
p259
sg37
S'--'
p260
sg39
S'--'
p261
sg40
S'--'
p262
ssS'6'
p263
(dp264
g5
S'--'
p265
sg7
S'--'
p266
sg9
g10
sg11
S'--'
p267
sg13
g10
sg14
S'Craig Stevens'
p268
sg16
S'2015'
p269
sg18
g263
sg20
S'--'
p270
sg22
S'10/18'
p271
sg24
S'--'
p272
sg26
S'--'
p273
sg28
S'--'
p274
sg30
S'L10-38'
p275
sg32
S'--'
p276
sg34
S'--'
p277
sg35
S'MIA'
p278
sg37
S'--'
p279
sg39
S'--'
p280
sg40
S'--'
p281
ssS'9'
p282
(dp283
g5
S'--'
p284
sg7
S'--'
p285
sg9
g10
sg11
S'--'
p286
sg13
g10
sg14
S'Craig Stevens'
p287
sg16
S'2015'
p288
sg18
g282
sg20
S'--'
p289
sg22
S'11/08'
p290
sg24
S'12.5'
p291
sg26
S'--'
p292
sg28
S'--'
p293
sg30
S'W34-28'
p294
sg32
S'25'
p295
sg34
g77
sg35
S'@NO'
p296
sg37
S'24'
p297
sg39
g33
sg40
S'--'
p298
ssg170
(dp299
g5
S'--'
p300
sg7
S'--'
p301
sg9
g10
sg11
S'--'
p302
sg13
g10
sg14
S'Craig Stevens'
p303
sg16
S'2015'
p304
sg18
g170
sg20
S'--'
p305
sg22
S'11/01'
p306
sg24
S'9.0'
p307
sg26
S'--'
p308
sg28
S'--'
p309
sg30
S'L6-20'
p310
sg32
g282
sg34
g10
sg35
S'@HOU'
p311
sg37
g282
sg39
g33
sg40
S'--'
p312
sssS'2014'
p313
(dp314
g10
(dp315
g5
S'--'
p316
sg7
S'--'
p317
sg9
g33
sg11
S'--'
p318
sg13
g10
sg14
S'Craig Stevens'
p319
sg16
S'2014'
p320
sg18
g10
sg20
S'--'
p321
sg22
S'09/07'
p322
sg24
S'--'
p323
sg26
S'--'
p324
sg28
S'--'
p325
sg30
S'W26-10'
p326
sg32
S'--'
p327
sg34
S'--'
p328
sg35
S'@KC'
p329
sg37
S'--'
p330
sg39
S'--'
p331
sg40
S'--'
p332
ssg191
(dp333
g5
S'--'
p334
sg7
S'--'
p335
sg9
g10
sg11
S'--'
p336
sg13
g10
sg14
S'Craig Stevens'
p337
sg16
S'2014'
p338
sg18
g191
sg20
S'--'
p339
sg22
S'09/21'
p340
sg24
S'13.0'
p341
sg26
S'--'
p342
sg28
S'--'
p343
sg30
S'L7-33'
p344
sg32
S'26'
p345
sg34
g77
sg35
S'@CIN'
p346
sg37
S'20'
p347
sg39
g33
sg40
S'--'
p348
ssg77
(dp349
g5
S'--'
p350
sg7
S'--'
p351
sg9
g10
sg11
S'--'
p352
sg13
g10
sg14
S'Craig Stevens'
p353
sg16
S'2014'
p354
sg18
g77
sg20
S'--'
p355
sg22
S'09/14'
p356
sg24
S'--'
p357
sg26
S'--'
p358
sg28
S'--'
p359
sg30
S'L10-26'
p360
sg32
S'--'
p361
sg34
S'--'
p362
sg35
S'DAL'
p363
sg37
S'--'
p364
sg39
S'--'
p365
sg40
S'--'
p366
ssg113
(dp367
g5
S'--'
p368
sg7
S'--'
p369
sg9
g10
sg11
S'--'
p370
sg13
g10
sg14
S'Craig Stevens'
p371
sg16
S'2014'
p372
sg18
g113
sg20
S'--'
p373
sg22
S'10/05'
p374
sg24
S'--'
p375
sg26
S'--'
p376
sg28
S'--'
p377
sg30
S'L28-29'
p378
sg32
S'--'
p379
sg34
S'--'
p380
sg35
S'CLE'
p381
sg37
S'--'
p382
sg39
S'--'
p383
sg40
S'--'
p384
ssg238
(dp385
g5
S'--'
p386
sg7
S'--'
p387
sg9
g10
sg11
S'--'
p388
sg13
g10
sg14
S'Craig Stevens'
p389
sg16
S'2014'
p390
sg18
g238
sg20
S'--'
p391
sg22
S'09/28'
p392
sg24
S'--'
p393
sg26
S'--'
p394
sg28
S'--'
p395
sg30
S'L17-41'
p396
sg32
S'--'
p397
sg34
S'--'
p398
sg35
S'@IND'
p399
sg37
S'--'
p400
sg39
S'--'
p401
sg40
S'--'
p402
ssg263
(dp403
g5
S'--'
p404
sg7
S'--'
p405
sg9
g33
sg11
S'--'
p406
sg13
g33
sg14
S'Craig Stevens'
p407
sg16
S'2014'
p408
sg18
g263
sg20
S'--'
p409
sg22
S'10/12'
p410
sg24
S'--'
p411
sg26
S'--'
p412
sg28
S'--'
p413
sg30
S'W16-14'
p414
sg32
S'--'
p415
sg34
S'--'
p416
sg35
S'JAC'
p417
sg37
S'--'
p418
sg39
S'--'
p419
sg40
S'--'
p420
sssS'2011'
p421
(dp422
g3
(dp423
g5
S'--'
p424
sg7
S'--'
p425
sg9
g10
sg11
S'--'
p426
sg13
g10
sg14
S'Craig Stevens'
p427
sg16
S'2011'
p428
sg18
S'11'
p429
sg20
S'--'
p430
sg22
S'11/20'
p431
sg24
S'--'
p432
sg26
S'--'
p433
sg28
S'--'
p434
sg30
S'L17-23'
p435
sg32
S'--'
p436
sg34
S'--'
p437
sg35
S'@ATL'
p438
sg37
S'--'
p439
sg39
S'--'
p440
sg40
S'--'
p441
ssg42
(dp442
g5
S'--'
p443
sg7
S'--'
p444
sg9
g10
sg11
S'--'
p445
sg13
g10
sg14
S'Craig Stevens'
p446
sg16
S'2011'
p447
sg18
S'10'
p448
sg20
S'--'
p449
sg22
S'11/13'
p450
sg24
S'--'
p451
sg26
S'--'
p452
sg28
S'--'
p453
sg30
S'W30-3'
p454
sg32
S'--'
p455
sg34
S'--'
p456
sg35
S'@CAR'
p457
sg37
S'--'
p458
sg39
S'--'
p459
sg40
S'--'
p460
ssg62
(dp461
g5
S'--'
p462
sg7
S'--'
p463
sg9
g10
sg11
S'--'
p464
sg13
g10
sg14
S'Craig Stevens'
p465
sg16
S'2011'
p466
sg18
S'13'
p467
sg20
S'--'
p468
sg22
S'12/04'
p469
sg24
S'--'
p470
sg26
S'--'
p471
sg28
S'--'
p472
sg30
S'W23-17'
p473
sg32
S'--'
p474
sg34
S'--'
p475
sg35
S'@BUF'
p476
sg37
S'--'
p477
sg39
S'--'
p478
sg40
S'--'
p479
ssg81
(dp480
g5
S'--'
p481
sg7
S'--'
p482
sg9
g10
sg11
S'--'
p483
sg13
g10
sg14
S'Craig Stevens'
p484
sg16
S'2011'
p485
sg18
S'12'
p486
sg20
S'--'
p487
sg22
S'11/27'
p488
sg24
S'--'
p489
sg26
S'--'
p490
sg28
S'--'
p491
sg30
S'W23-17'
p492
sg32
S'--'
p493
sg34
S'--'
p494
sg35
S'TB'
p495
sg37
S'--'
p496
sg39
S'--'
p497
sg40
S'--'
p498
ssg99
(dp499
g5
S'--'
p500
sg7
S'--'
p501
sg9
g10
sg11
S'--'
p502
sg13
g10
sg14
S'Craig Stevens'
p503
sg16
S'2011'
p504
sg18
S'15'
p505
sg20
S'--'
p506
sg22
S'12/18'
p507
sg24
S'9.0'
p508
sg26
S'--'
p509
sg28
S'--'
p510
sg30
S'L13-27'
p511
sg32
g282
sg34
g10
sg35
S'@IND'
p512
sg37
g282
sg39
g33
sg40
S'--'
p513
ssg116
(dp514
g5
S'--'
p515
sg7
S'--'
p516
sg9
g10
sg11
S'--'
p517
sg13
g10
sg14
S'Craig Stevens'
p518
sg16
S'2011'
p519
sg18
S'14'
p520
sg20
S'--'
p521
sg22
S'12/11'
p522
sg24
S'31.0'
p523
sg26
S'--'
p524
sg28
S'--'
p525
sg30
S'L17-22'
p526
sg32
S'31'
p527
sg34
g10
sg35
S'NO'
p528
sg37
S'31'
p529
sg39
g33
sg40
S'--'
p530
ssg136
(dp531
g5
S'--'
p532
sg7
S'--'
p533
sg9
g33
sg11
S'--'
p534
sg13
g10
sg14
S'Craig Stevens'
p535
sg16
S'2011'
p536
sg18
S'17'
p537
sg20
S'--'
p538
sg22
S'01/01'
p539
sg24
S'--'
p540
sg26
S'--'
p541
sg28
S'--'
p542
sg30
S'W23-22'
p543
sg32
S'--'
p544
sg34
S'--'
p545
sg35
S'@HOU'
p546
sg37
S'--'
p547
sg39
S'--'
p548
sg40
S'--'
p549
ssg156
(dp550
g5
S'--'
p551
sg7
S'--'
p552
sg9
g33
sg11
S'--'
p553
sg13
g10
sg14
S'Craig Stevens'
p554
sg16
S'2011'
p555
sg18
S'16'
p556
sg20
S'--'
p557
sg22
S'12/24'
p558
sg24
S'17.0'
p559
sg26
S'--'
p560
sg28
S'--'
p561
sg30
S'W23-17'
p562
sg32
S'17'
p563
sg34
g10
sg35
S'JAC'
p564
sg37
S'17'
p565
sg39
g33
sg40
S'--'
p566
ssg10
(dp567
g5
S'--'
p568
sg7
S'--'
p569
sg9
g10
sg11
S'--'
p570
sg13
g10
sg14
S'Craig Stevens'
p571
sg16
S'2011'
p572
sg18
g10
sg20
S'--'
p573
sg22
S'09/11'
p574
sg24
S'2.0'
p575
sg26
S'--'
p576
sg28
S'--'
p577
sg30
S'L14-16'
p578
sg32
g77
sg34
g10
sg35
S'@JAC'
p579
sg37
g77
sg39
g33
sg40
S'--'
p580
ssg191
(dp581
g5
S'--'
p582
sg7
S'--'
p583
sg9
g10
sg11
S'--'
p584
sg13
g10
sg14
S'Craig Stevens'
p585
sg16
S'2011'
p586
sg18
g191
sg20
S'--'
p587
sg22
S'09/25'
p588
sg24
S'58.0'
p589
sg26
S'--'
p590
sg28
S'--'
p591
sg30
S'W17-14'
p592
sg32
S'58'
p593
sg34
g10
sg35
S'DEN'
p594
sg37
S'58'
p595
sg39
g33
sg40
S'--'
p596
ssg77
(dp597
g5
S'--'
p598
sg7
S'--'
p599
sg9
g10
sg11
S'--'
p600
sg13
g10
sg14
S'Craig Stevens'
p601
sg16
S'2011'
p602
sg18
g77
sg20
S'--'
p603
sg22
S'09/18'
p604
sg24
S'1.0'
p605
sg26
S'--'
p606
sg28
S'--'
p607
sg30
S'W26-13'
p608
sg32
g10
sg34
g10
sg35
S'BAL'
p609
sg37
g10
sg39
g33
sg40
S'--'
p610
ssg113
(dp611
g5
S'--'
p612
sg7
S'--'
p613
sg9
g33
sg11
S'--'
p614
sg13
g10
sg14
S'Craig Stevens'
p615
sg16
S'2011'
p616
sg18
g113
sg20
S'--'
p617
sg22
S'10/09'
p618
sg24
S'--'
p619
sg26
S'--'
p620
sg28
S'--'
p621
sg30
S'L17-38'
p622
sg32
S'--'
p623
sg34
S'--'
p624
sg35
S'@PIT'
p625
sg37
S'--'
p626
sg39
S'--'
p627
sg40
S'--'
p628
ssg238
(dp629
g5
S'--'
p630
sg7
S'--'
p631
sg9
g10
sg11
S'--'
p632
sg13
g10
sg14
S'Craig Stevens'
p633
sg16
S'2011'
p634
sg18
g238
sg20
S'--'
p635
sg22
S'10/02'
p636
sg24
S'12.0'
p637
sg26
S'--'
p638
sg28
S'--'
p639
sg30
S'W31-13'
p640
sg32
S'12'
p641
sg34
g10
sg35
S'@CLE'
p642
sg37
S'12T'
p643
sg39
g10
sg40
S'--'
p644
ssg244
(dp645
g5
S'--'
p646
sg7
S'--'
p647
sg9
g33
sg11
S'--'
p648
sg13
g10
sg14
S'Craig Stevens'
p649
sg16
S'2011'
p650
sg18
g244
sg20
S'--'
p651
sg22
S'10/23'
p652
sg24
S'11.0'
p653
sg26
S'--'
p654
sg28
S'--'
p655
sg30
S'L7-41'
p656
sg32
S'11'
p657
sg34
g10
sg35
S'HOU'
p658
sg37
S'11'
p659
sg39
g33
sg40
S'--'
p660
ssg263
(dp661
g5
g240
sg7
g240
sg9
g240
sg11
g240
sg13
g240
sg14
S'Craig Stevens'
p662
sg16
S'2011'
p663
sg18
g263
sg20
g240
sg22
S'Bye'
p664
sg24
g240
sg26
g240
sg28
g240
sg30
g240
sg32
g240
sg34
g240
sg35
g240
sg37
g240
sg39
g240
sg40
g240
ssg282
(dp665
g5
S'--'
p666
sg7
S'--'
p667
sg9
g10
sg11
S'--'
p668
sg13
g10
sg14
S'Craig Stevens'
p669
sg16
S'2011'
p670
sg18
g282
sg20
S'--'
p671
sg22
S'11/06'
p672
sg24
S'25.0'
p673
sg26
S'--'
p674
sg28
S'--'
p675
sg30
S'L17-24'
p676
sg32
S'25'
p677
sg34
g10
sg35
S'CIN'
p678
sg37
S'25'
p679
sg39
g33
sg40
S'--'
p680
ssg170
(dp681
g5
S'--'
p682
sg7
S'--'
p683
sg9
g33
sg11
S'--'
p684
sg13
g33
sg14
S'Craig Stevens'
p685
sg16
S'2011'
p686
sg18
g170
sg20
S'--'
p687
sg22
S'10/30'
p688
sg24
S'--'
p689
sg26
S'--'
p690
sg28
S'--'
p691
sg30
S'W27-10'
p692
sg32
S'--'
p693
sg34
S'--'
p694
sg35
S'IND'
p695
sg37
S'--'
p696
sg39
S'--'
p697
sg40
S'--'
p698
sssS'2010'
p699
(dp700
g3
(dp701
g5
S'--'
p702
sg7
S'--'
p703
sg9
g33
sg11
S'--'
p704
sg13
g33
sg14
S'Craig Stevens'
p705
sg16
S'2010'
p706
sg18
S'11'
p707
sg20
S'--'
p708
sg22
S'11/21'
p709
sg24
S'--'
p710
sg26
S'--'
p711
sg28
S'--'
p712
sg30
S'L16-19'
p713
sg32
S'--'
p714
sg34
S'--'
p715
sg35
S'WAS'
p716
sg37
S'--'
p717
sg39
S'--'
p718
sg40
S'--'
p719
ssg42
(dp720
g5
S'--'
p721
sg7
S'--'
p722
sg9
g33
sg11
S'--'
p723
sg13
g10
sg14
S'Craig Stevens'
p724
sg16
S'2010'
p725
sg18
S'10'
p726
sg20
S'--'
p727
sg22
S'11/14'
p728
sg24
S'--'
p729
sg26
S'--'
p730
sg28
S'--'
p731
sg30
S'L17-29'
p732
sg32
g33
sg34
g33
sg35
S'@MIA'
p733
sg37
S'--'
p734
sg39
g33
sg40
S'--'
p735
ssg62
(dp736
g5
S'--'
p737
sg7
S'--'
p738
sg9
g10
sg11
S'--'
p739
sg13
g10
sg14
S'Craig Stevens'
p740
sg16
S'2010'
p741
sg18
S'13'
p742
sg20
S'--'
p743
sg22
S'12/05'
p744
sg24
S'19.0'
p745
sg26
S'--'
p746
sg28
S'--'
p747
sg30
S'L6-17'
p748
sg32
S'19'
p749
sg34
g10
sg35
S'JAC'
p750
sg37
S'19'
p751
sg39
g33
sg40
S'--'
p752
ssg81
(dp753
g5
S'--'
p754
sg7
S'--'
p755
sg9
g10
sg11
S'--'
p756
sg13
g10
sg14
S'Craig Stevens'
p757
sg16
S'2010'
p758
sg18
S'12'
p759
sg20
S'--'
p760
sg22
S'11/28'
p761
sg24
S'--'
p762
sg26
S'--'
p763
sg28
S'--'
p764
sg30
S'L0-20'
p765
sg32
S'--'
p766
sg34
S'--'
p767
sg35
S'@HOU'
p768
sg37
S'--'
p769
sg39
S'--'
p770
sg40
S'--'
p771
ssg99
(dp772
g5
S'--'
p773
sg7
S'--'
p774
sg9
g10
sg11
S'--'
p775
sg13
g10
sg14
S'Craig Stevens'
p776
sg16
S'2010'
p777
sg18
S'15'
p778
sg20
S'--'
p779
sg22
S'12/19'
p780
sg24
S'--'
p781
sg26
S'--'
p782
sg28
S'--'
p783
sg30
S'W31-17'
p784
sg32
g33
sg34
g33
sg35
S'HOU'
p785
sg37
S'--'
p786
sg39
g33
sg40
S'--'
p787
ssg116
(dp788
g5
S'--'
p789
sg7
S'--'
p790
sg9
g10
sg11
S'--'
p791
sg13
g10
sg14
S'Craig Stevens'
p792
sg16
S'2010'
p793
sg18
S'14'
p794
sg20
S'--'
p795
sg22
S'12/09'
p796
sg24
S'6.7'
p797
sg26
S'--'
p798
sg28
S'--'
p799
sg30
S'L28-30'
p800
sg32
S'20'
p801
sg34
g191
sg35
S'IND'
p802
sg37
S'7T'
p803
sg39
g10
sg40
S'--'
p804
ssg136
(dp805
g5
S'--'
p806
sg7
S'--'
p807
sg9
g10
sg11
S'--'
p808
sg13
g10
sg14
S'Craig Stevens'
p809
sg16
S'2010'
p810
sg18
S'17'
p811
sg20
S'--'
p812
sg22
S'01/02'
p813
sg24
S'--'
p814
sg26
S'--'
p815
sg28
S'--'
p816
sg30
S'L20-23'
p817
sg32
S'--'
p818
sg34
S'--'
p819
sg35
S'@IND'
p820
sg37
S'--'
p821
sg39
S'--'
p822
sg40
S'--'
p823
ssg156
(dp824
g5
S'--'
p825
sg7
S'--'
p826
sg9
g10
sg11
S'--'
p827
sg13
g10
sg14
S'Craig Stevens'
p828
sg16
S'2010'
p829
sg18
S'16'
p830
sg20
S'--'
p831
sg22
S'12/26'
p832
sg24
S'--'
p833
sg26
S'--'
p834
sg28
S'--'
p835
sg30
S'L14-34'
p836
sg32
g33
sg34
g33
sg35
S'@KC'
p837
sg37
S'--'
p838
sg39
g33
sg40
S'--'
p839
ssg10
(dp840
g5
S'--'
p841
sg7
S'--'
p842
sg9
g10
sg11
S'--'
p843
sg13
g10
sg14
S'Craig Stevens'
p844
sg16
S'2010'
p845
sg18
g10
sg20
S'--'
p846
sg22
S'09/12'
p847
sg24
S'9.0'
p848
sg26
S'--'
p849
sg28
S'--'
p850
sg30
S'W38-13'
p851
sg32
S'18'
p852
sg34
g77
sg35
S'OAK'
p853
sg37
g282
sg39
g33
sg40
S'--'
p854
ssg191
(dp855
g5
S'--'
p856
sg7
S'--'
p857
sg9
g10
sg11
S'--'
p858
sg13
g10
sg14
S'Craig Stevens'
p859
sg16
S'2010'
p860
sg18
g191
sg20
S'--'
p861
sg22
S'09/26'
p862
sg24
S'--'
p863
sg26
S'--'
p864
sg28
S'--'
p865
sg30
S'W29-10'
p866
sg32
g33
sg34
g33
sg35
S'@NYG'
p867
sg37
S'--'
p868
sg39
g33
sg40
S'--'
p869
ssg77
(dp870
g5
S'--'
p871
sg7
S'--'
p872
sg9
g10
sg11
S'--'
p873
sg13
g10
sg14
S'Craig Stevens'
p874
sg16
S'2010'
p875
sg18
g77
sg20
S'--'
p876
sg22
S'09/19'
p877
sg24
S'9.0'
p878
sg26
S'--'
p879
sg28
S'--'
p880
sg30
S'L11-19'
p881
sg32
g282
sg34
g10
sg35
S'PIT'
p882
sg37
g282
sg39
g33
sg40
S'--'
p883
ssg113
(dp884
g5
S'--'
p885
sg7
S'--'
p886
sg9
g10
sg11
S'--'
p887
sg13
g10
sg14
S'Craig Stevens'
p888
sg16
S'2010'
p889
sg18
g113
sg20
S'--'
p890
sg22
S'10/10'
p891
sg24
S'11.0'
p892
sg26
S'--'
p893
sg28
S'--'
p894
sg30
S'W34-27'
p895
sg32
S'11'
p896
sg34
g10
sg35
S'@DAL'
p897
sg37
S'11'
p898
sg39
g33
sg40
S'--'
p899
ssg238
(dp900
g5
S'--'
p901
sg7
S'--'
p902
sg9
g33
sg11
S'--'
p903
sg13
g10
sg14
S'Craig Stevens'
p904
sg16
S'2010'
p905
sg18
g238
sg20
S'--'
p906
sg22
S'10/03'
p907
sg24
S'16.0'
p908
sg26
S'--'
p909
sg28
S'--'
p910
sg30
S'L20-26'
p911
sg32
S'16'
p912
sg34
g10
sg35
S'DEN'
p913
sg37
S'16'
p914
sg39
g33
sg40
S'--'
p915
ssg244
(dp916
g5
S'--'
p917
sg7
S'--'
p918
sg9
g10
sg11
S'--'
p919
sg13
g10
sg14
S'Craig Stevens'
p920
sg16
S'2010'
p921
sg18
g244
sg20
S'--'
p922
sg22
S'10/24'
p923
sg24
S'--'
p924
sg26
S'--'
p925
sg28
S'--'
p926
sg30
S'W37-19'
p927
sg32
g33
sg34
g33
sg35
S'PHI'
p928
sg37
S'--'
p929
sg39
g33
sg40
S'--'
p930
ssg263
(dp931
g5
S'--'
p932
sg7
S'--'
p933
sg9
g10
sg11
S'--'
p934
sg13
g10
sg14
S'Craig Stevens'
p935
sg16
S'2010'
p936
sg18
g263
sg20
S'--'
p937
sg22
S'10/18'
p938
sg24
S'--'
p939
sg26
S'--'
p940
sg28
S'--'
p941
sg30
S'W30-3'
p942
sg32
g33
sg34
g33
sg35
S'@JAC'
p943
sg37
S'--'
p944
sg39
g33
sg40
S'--'
p945
ssg282
(dp946
g5
g240
sg7
g240
sg9
g240
sg11
g240
sg13
g240
sg14
S'Craig Stevens'
p947
sg16
S'2010'
p948
sg18
g282
sg20
g240
sg22
S'Bye'
p949
sg24
g240
sg26
g240
sg28
g240
sg30
g240
sg32
g240
sg34
g240
sg35
g240
sg37
g240
sg39
g240
sg40
g240
ssg170
(dp950
g5
S'--'
p951
sg7
S'--'
p952
sg9
g10
sg11
S'--'
p953
sg13
g10
sg14
S'Craig Stevens'
p954
sg16
S'2010'
p955
sg18
g170
sg20
S'--'
p956
sg22
S'10/31'
p957
sg24
S'14.5'
p958
sg26
S'--'
p959
sg28
S'--'
p960
sg30
S'L25-33'
p961
sg32
S'29'
p962
sg34
g77
sg35
S'@SD'
p963
sg37
S'28'
p964
sg39
g10
sg40
S'--'
p965
sssS'2013'
p966
(dp967
g3
(dp968
g5
S'--'
p969
sg7
S'--'
p970
sg9
g10
sg11
S'--'
p971
sg13
g10
sg14
S'Craig Stevens'
p972
sg16
S'2013'
p973
sg18
S'11'
p974
sg20
S'--'
p975
sg22
S'11/14'
p976
sg24
S'--'
p977
sg26
S'--'
p978
sg28
S'--'
p979
sg30
S'L27-30'
p980
sg32
g33
sg34
g33
sg35
S'IND'
p981
sg37
S'--'
p982
sg39
g33
sg40
S'--'
p983
ssg42
(dp984
g5
S'--'
p985
sg7
S'--'
p986
sg9
g10
sg11
S'--'
p987
sg13
g10
sg14
S'Craig Stevens'
p988
sg16
S'2013'
p989
sg18
S'10'
p990
sg20
S'--'
p991
sg22
S'11/10'
p992
sg24
S'6.0'
p993
sg26
S'--'
p994
sg28
S'--'
p995
sg30
S'L27-29'
p996
sg32
g263
sg34
g10
sg35
S'JAC'
p997
sg37
g263
sg39
g33
sg40
S'--'
p998
ssg62
(dp999
g5
S'--'
p1000
sg7
S'--'
p1001
sg9
g33
sg11
S'--'
p1002
sg13
g33
sg14
S'Craig Stevens'
p1003
sg16
S'2013'
p1004
sg18
S'13'
p1005
sg20
S'--'
p1006
sg22
S'12/01'
p1007
sg24
S'--'
p1008
sg26
S'--'
p1009
sg28
S'--'
p1010
sg30
S'L14-22'
p1011
sg32
S'--'
p1012
sg34
S'--'
p1013
sg35
S'@IND'
p1014
sg37
S'--'
p1015
sg39
S'--'
p1016
sg40
S'--'
p1017
ssg81
(dp1018
g5
S'--'
p1019
sg7
S'--'
p1020
sg9
g10
sg11
S'--'
p1021
sg13
g10
sg14
S'Craig Stevens'
p1022
sg16
S'2013'
p1023
sg18
S'12'
p1024
sg20
S'--'
p1025
sg22
S'11/24'
p1026
sg24
S'-1.0'
p1027
sg26
S'--'
p1028
sg28
S'--'
p1029
sg30
S'W23-19'
p1030
sg32
S'-1'
p1031
sg34
g10
sg35
S'@OAK'
p1032
sg37
S'-1'
p1033
sg39
g33
sg40
S'--'
p1034
ssg99
(dp1035
g5
S'--'
p1036
sg7
S'--'
p1037
sg9
g10
sg11
S'--'
p1038
sg13
g10
sg14
S'Craig Stevens'
p1039
sg16
S'2013'
p1040
sg18
S'15'
p1041
sg20
S'--'
p1042
sg22
S'12/15'
p1043
sg24
S'--'
p1044
sg26
S'--'
p1045
sg28
S'--'
p1046
sg30
S'L34-37'
p1047
sg32
S'--'
p1048
sg34
S'--'
p1049
sg35
S'ARI'
p1050
sg37
S'--'
p1051
sg39
S'--'
p1052
sg40
S'--'
p1053
ssg116
(dp1054
g5
S'--'
p1055
sg7
S'--'
p1056
sg9
g33
sg11
S'--'
p1057
sg13
g10
sg14
S'Craig Stevens'
p1058
sg16
S'2013'
p1059
sg18
S'14'
p1060
sg20
S'--'
p1061
sg22
S'12/08'
p1062
sg24
S'--'
p1063
sg26
S'--'
p1064
sg28
S'--'
p1065
sg30
S'L28-51'
p1066
sg32
S'--'
p1067
sg34
S'--'
p1068
sg35
S'@DEN'
p1069
sg37
S'--'
p1070
sg39
S'--'
p1071
sg40
S'--'
p1072
ssg136
(dp1073
g5
S'--'
p1074
sg7
S'--'
p1075
sg9
g10
sg11
S'--'
p1076
sg13
g10
sg14
S'Craig Stevens'
p1077
sg16
S'2013'
p1078
sg18
S'17'
p1079
sg20
S'--'
p1080
sg22
S'12/29'
p1081
sg24
S'--'
p1082
sg26
S'--'
p1083
sg28
S'--'
p1084
sg30
S'W16-10'
p1085
sg32
S'--'
p1086
sg34
S'--'
p1087
sg35
S'HOU'
p1088
sg37
S'--'
p1089
sg39
S'--'
p1090
sg40
S'--'
p1091
ssg156
(dp1092
g5
S'--'
p1093
sg7
S'--'
p1094
sg9
g10
sg11
S'--'
p1095
sg13
g10
sg14
S'Craig Stevens'
p1096
sg16
S'2013'
p1097
sg18
S'16'
p1098
sg20
S'--'
p1099
sg22
S'12/22'
p1100
sg24
S'--'
p1101
sg26
S'--'
p1102
sg28
S'--'
p1103
sg30
S'W20-16'
p1104
sg32
S'--'
p1105
sg34
S'--'
p1106
sg35
S'@JAC'
p1107
sg37
S'--'
p1108
sg39
S'--'
p1109
sg40
S'--'
p1110
ssg10
(dp1111
g5
S'--'
p1112
sg7
S'--'
p1113
sg9
g10
sg11
S'--'
p1114
sg13
g10
sg14
S'Craig Stevens'
p1115
sg16
S'2013'
p1116
sg18
g10
sg20
S'--'
p1117
sg22
S'09/08'
p1118
sg24
S'--'
p1119
sg26
S'--'
p1120
sg28
S'--'
p1121
sg30
S'W16-9'
p1122
sg32
g33
sg34
g33
sg35
S'@PIT'
p1123
sg37
S'--'
p1124
sg39
g33
sg40
S'--'
p1125
ssg191
(dp1126
g5
S'--'
p1127
sg7
S'--'
p1128
sg9
g10
sg11
S'--'
p1129
sg13
g10
sg14
S'Craig Stevens'
p1130
sg16
S'2013'
p1131
sg18
g191
sg20
S'--'
p1132
sg22
S'09/22'
p1133
sg24
S'--'
p1134
sg26
S'--'
p1135
sg28
S'--'
p1136
sg30
S'W20-17'
p1137
sg32
S'--'
p1138
sg34
S'--'
p1139
sg35
S'SD'
p1140
sg37
S'--'
p1141
sg39
S'--'
p1142
sg40
S'--'
p1143
ssg77
(dp1144
g5
S'--'
p1145
sg7
S'--'
p1146
sg9
g10
sg11
S'--'
p1147
sg13
g10
sg14
S'Craig Stevens'
p1148
sg16
S'2013'
p1149
sg18
g77
sg20
S'--'
p1150
sg22
S'09/15'
p1151
sg24
S'--'
p1152
sg26
S'--'
p1153
sg28
S'--'
p1154
sg30
S'L24-30'
p1155
sg32
g33
sg34
g33
sg35
S'@HOU'
p1156
sg37
S'--'
p1157
sg39
g33
sg40
S'--'
p1158
ssg113
(dp1159
g5
S'--'
p1160
sg7
S'--'
p1161
sg9
g10
sg11
S'--'
p1162
sg13
g10
sg14
S'Craig Stevens'
p1163
sg16
S'2013'
p1164
sg18
g113
sg20
S'--'
p1165
sg22
S'10/06'
p1166
sg24
S'--'
p1167
sg26
S'--'
p1168
sg28
S'--'
p1169
sg30
S'L17-26'
p1170
sg32
S'--'
p1171
sg34
S'--'
p1172
sg35
S'KC'
p1173
sg37
S'--'
p1174
sg39
S'--'
p1175
sg40
S'--'
p1176
ssg238
(dp1177
g5
S'--'
p1178
sg7
S'--'
p1179
sg9
g10
sg11
S'--'
p1180
sg13
g10
sg14
S'Craig Stevens'
p1181
sg16
S'2013'
p1182
sg18
g238
sg20
S'--'
p1183
sg22
S'09/29'
p1184
sg24
S'--'
p1185
sg26
S'--'
p1186
sg28
S'--'
p1187
sg30
S'W38-13'
p1188
sg32
S'--'
p1189
sg34
S'--'
p1190
sg35
S'NYJ'
p1191
sg37
S'--'
p1192
sg39
S'--'
p1193
sg40
S'--'
p1194
ssg244
(dp1195
g5
S'--'
p1196
sg7
S'--'
p1197
sg9
g10
sg11
S'--'
p1198
sg13
g10
sg14
S'Craig Stevens'
p1199
sg16
S'2013'
p1200
sg18
g244
sg20
S'--'
p1201
sg22
S'10/20'
p1202
sg24
S'--'
p1203
sg26
S'--'
p1204
sg28
S'--'
p1205
sg30
S'L17-31'
p1206
sg32
S'--'
p1207
sg34
S'--'
p1208
sg35
S'SF'
p1209
sg37
S'--'
p1210
sg39
S'--'
p1211
sg40
S'--'
p1212
ssg263
(dp1213
g5
S'--'
p1214
sg7
S'--'
p1215
sg9
g10
sg11
S'--'
p1216
sg13
g10
sg14
S'Craig Stevens'
p1217
sg16
S'2013'
p1218
sg18
g263
sg20
S'--'
p1219
sg22
S'10/13'
p1220
sg24
S'--'
p1221
sg26
S'--'
p1222
sg28
S'--'
p1223
sg30
S'L13-20'
p1224
sg32
S'--'
p1225
sg34
S'--'
p1226
sg35
S'@SEA'
p1227
sg37
S'--'
p1228
sg39
S'--'
p1229
sg40
S'--'
p1230
ssg282
(dp1231
g5
S'--'
p1232
sg7
S'--'
p1233
sg9
g10
sg11
S'--'
p1234
sg13
g10
sg14
S'Craig Stevens'
p1235
sg16
S'2013'
p1236
sg18
g282
sg20
S'--'
p1237
sg22
S'11/03'
p1238
sg24
S'--'
p1239
sg26
S'--'
p1240
sg28
S'--'
p1241
sg30
S'W28-21'
p1242
sg32
g33
sg34
g33
sg35
S'@STL'
p1243
sg37
S'--'
p1244
sg39
g33
sg40
S'--'
p1245
ssg170
(dp1246
g5
g240
sg7
g240
sg9
g240
sg11
g240
sg13
g240
sg14
S'Craig Stevens'
p1247
sg16
S'2013'
p1248
sg18
g170
sg20
g240
sg22
S'Bye'
p1249
sg24
g240
sg26
g240
sg28
g240
sg30
g240
sg32
g240
sg34
g240
sg35
g240
sg37
g240
sg39
g240
sg40
g240
sssS'2012'
p1250
(dp1251
g3
(dp1252
g5
g240
sg7
g240
sg9
g240
sg11
g240
sg13
g240
sg14
S'Craig Stevens'
p1253
sg16
S'2012'
p1254
sg18
S'11'
p1255
sg20
g240
sg22
S'Bye'
p1256
sg24
g240
sg26
g240
sg28
g240
sg30
g240
sg32
g240
sg34
g240
sg35
g240
sg37
g240
sg39
g240
sg40
g240
ssg42
(dp1257
g5
S'--'
p1258
sg7
S'--'
p1259
sg9
g10
sg11
S'--'
p1260
sg13
g10
sg14
S'Craig Stevens'
p1261
sg16
S'2012'
p1262
sg18
S'10'
p1263
sg20
S'--'
p1264
sg22
S'11/11'
p1265
sg24
S'7.0'
p1266
sg26
S'--'
p1267
sg28
S'--'
p1268
sg30
S'W37-3'
p1269
sg32
g244
sg34
g10
sg35
S'@MIA'
p1270
sg37
g244
sg39
g33
sg40
S'--'
p1271
ssg62
(dp1272
g5
S'--'
p1273
sg7
S'--'
p1274
sg9
g10
sg11
S'--'
p1275
sg13
g10
sg14
S'Craig Stevens'
p1276
sg16
S'2012'
p1277
sg18
S'13'
p1278
sg20
S'--'
p1279
sg22
S'12/02'
p1280
sg24
S'--'
p1281
sg26
S'--'
p1282
sg28
S'--'
p1283
sg30
S'L10-24'
p1284
sg32
S'--'
p1285
sg34
S'--'
p1286
sg35
S'HOU'
p1287
sg37
S'--'
p1288
sg39
S'--'
p1289
sg40
S'--'
p1290
ssg81
(dp1291
g5
S'--'
p1292
sg7
S'--'
p1293
sg9
g10
sg11
S'--'
p1294
sg13
g10
sg14
S'Craig Stevens'
p1295
sg16
S'2012'
p1296
sg18
S'12'
p1297
sg20
S'--'
p1298
sg22
S'11/25'
p1299
sg24
S'12.0'
p1300
sg26
S'--'
p1301
sg28
S'--'
p1302
sg30
S'L19-24'
p1303
sg32
S'12'
p1304
sg34
g10
sg35
S'@JAC'
p1305
sg37
S'12'
p1306
sg39
g33
sg40
S'--'
p1307
ssg99
(dp1308
g5
S'--'
p1309
sg7
S'--'
p1310
sg9
g10
sg11
S'--'
p1311
sg13
g10
sg14
S'Craig Stevens'
p1312
sg16
S'2012'
p1313
sg18
S'15'
p1314
sg20
S'--'
p1315
sg22
S'12/17'
p1316
sg24
S'8.0'
p1317
sg26
S'--'
p1318
sg28
S'--'
p1319
sg30
S'W14-10'
p1320
sg32
S'16'
p1321
sg34
g77
sg35
S'NYJ'
p1322
sg37
S'11'
p1323
sg39
g33
sg40
S'--'
p1324
ssg116
(dp1325
g5
S'--'
p1326
sg7
S'--'
p1327
sg9
g10
sg11
S'--'
p1328
sg13
g10
sg14
S'Craig Stevens'
p1329
sg16
S'2012'
p1330
sg18
S'14'
p1331
sg20
S'--'
p1332
sg22
S'12/09'
p1333
sg24
S'19.0'
p1334
sg26
S'--'
p1335
sg28
S'--'
p1336
sg30
S'L23-27'
p1337
sg32
S'19'
p1338
sg34
g10
sg35
S'@IND'
p1339
sg37
S'19'
p1340
sg39
g33
sg40
S'--'
p1341
ssg136
(dp1342
g5
S'--'
p1343
sg7
S'--'
p1344
sg9
g33
sg11
S'--'
p1345
sg13
g33
sg14
S'Craig Stevens'
p1346
sg16
S'2012'
p1347
sg18
S'17'
p1348
sg20
S'--'
p1349
sg22
S'12/30'
p1350
sg24
S'--'
p1351
sg26
S'--'
p1352
sg28
S'--'
p1353
sg30
S'W38-20'
p1354
sg32
S'--'
p1355
sg34
S'--'
p1356
sg35
S'JAC'
p1357
sg37
S'--'
p1358
sg39
S'--'
p1359
sg40
S'--'
p1360
ssg156
(dp1361
g5
S'--'
p1362
sg7
S'--'
p1363
sg9
g10
sg11
S'--'
p1364
sg13
g10
sg14
S'Craig Stevens'
p1365
sg16
S'2012'
p1366
sg18
S'16'
p1367
sg20
S'--'
p1368
sg22
S'12/23'
p1369
sg24
S'7.0'
p1370
sg26
S'--'
p1371
sg28
S'--'
p1372
sg30
S'L7-55'
p1373
sg32
g244
sg34
g10
sg35
S'@GB'
p1374
sg37
g244
sg39
g33
sg40
S'--'
p1375
ssg10
(dp1376
g5
S'--'
p1377
sg7
S'--'
p1378
sg9
g10
sg11
S'--'
p1379
sg13
g10
sg14
S'Craig Stevens'
p1380
sg16
S'2012'
p1381
sg18
g10
sg20
S'--'
p1382
sg22
S'09/09'
p1383
sg24
S'5.0'
p1384
sg26
S'--'
p1385
sg28
S'--'
p1386
sg30
S'L13-34'
p1387
sg32
g113
sg34
g10
sg35
S'NE'
p1388
sg37
g113
sg39
g33
sg40
S'--'
p1389
ssg191
(dp1390
g5
S'--'
p1391
sg7
S'--'
p1392
sg9
g10
sg11
S'--'
p1393
sg13
g10
sg14
S'Craig Stevens'
p1394
sg16
S'2012'
p1395
sg18
g191
sg20
S'--'
p1396
sg22
S'09/23'
p1397
sg24
S'12.6'
p1398
sg26
S'--'
p1399
sg28
S'--'
p1400
sg30
S'W44-41'
p1401
sg32
S'63'
p1402
sg34
g113
sg35
S'DET'
p1403
sg37
S'24'
p1404
sg39
g33
sg40
S'--'
p1405
ssg77
(dp1406
g5
S'--'
p1407
sg7
S'--'
p1408
sg9
g10
sg11
S'--'
p1409
sg13
g10
sg14
S'Craig Stevens'
p1410
sg16
S'2012'
p1411
sg18
g77
sg20
S'--'
p1412
sg22
S'09/16'
p1413
sg24
S'46.0'
p1414
sg26
S'--'
p1415
sg28
S'--'
p1416
sg30
S'L10-38'
p1417
sg32
S'46'
p1418
sg34
g10
sg35
S'@SD'
p1419
sg37
S'46'
p1420
sg39
g33
sg40
S'--'
p1421
ssg113
(dp1422
g5
S'--'
p1423
sg7
S'--'
p1424
sg9
g10
sg11
g33
sg13
g10
sg14
S'Craig Stevens'
p1425
sg16
S'2012'
p1426
sg18
g113
sg20
S'--'
p1427
sg22
S'10/07'
p1428
sg24
S'7.0'
p1429
sg26
g10
sg28
S'--'
p1430
sg30
S'L7-30'
p1431
sg32
S'14'
p1432
sg34
g77
sg35
S'@MIN'
p1433
sg37
S'18'
p1434
sg39
g33
sg40
S'--'
p1435
ssg238
(dp1436
g5
S'--'
p1437
sg7
S'--'
p1438
sg9
g10
sg11
S'--'
p1439
sg13
g10
sg14
S'Craig Stevens'
p1440
sg16
S'2012'
p1441
sg18
g238
sg20
S'--'
p1442
sg22
S'09/30'
p1443
sg24
S'12.0'
p1444
sg26
S'--'
p1445
sg28
S'--'
p1446
sg30
S'L14-38'
p1447
sg32
S'24'
p1448
sg34
g77
sg35
S'@HOU'
p1449
sg37
S'19T'
p1450
sg39
g10
sg40
S'--'
p1451
ssg244
(dp1452
g5
S'--'
p1453
sg7
S'--'
p1454
sg9
g10
sg11
S'--'
p1455
sg13
g10
sg14
S'Craig Stevens'
p1456
sg16
S'2012'
p1457
sg18
g244
sg20
S'--'
p1458
sg22
S'10/21'
p1459
sg24
S'17.0'
p1460
sg26
S'--'
p1461
sg28
S'--'
p1462
sg30
S'W35-34'
p1463
sg32
S'17'
p1464
sg34
g10
sg35
S'@BUF'
p1465
sg37
S'17'
p1466
sg39
g33
sg40
S'--'
p1467
ssg263
(dp1468
g5
S'--'
p1469
sg7
S'--'
p1470
sg9
g10
sg11
S'--'
p1471
sg13
g10
sg14
S'Craig Stevens'
p1472
sg16
S'2012'
p1473
sg18
g263
sg20
S'--'
p1474
sg22
S'10/11'
p1475
sg24
S'4.0'
p1476
sg26
S'--'
p1477
sg28
S'--'
p1478
sg30
S'W26-23'
p1479
sg32
g238
sg34
g10
sg35
S'PIT'
p1480
sg37
g238
sg39
g33
sg40
S'--'
p1481
ssg282
(dp1482
g5
S'--'
p1483
sg7
S'--'
p1484
sg9
g10
sg11
g33
sg13
g10
sg14
S'Craig Stevens'
p1485
sg16
S'2012'
p1486
sg18
g282
sg20
S'--'
p1487
sg22
S'11/04'
p1488
sg24
S'13.0'
p1489
sg26
g10
sg28
S'--'
p1490
sg30
S'L20-51'
p1491
sg32
S'26'
p1492
sg34
g77
sg35
S'CHI'
p1493
sg37
S'14'
p1494
sg39
g33
sg40
S'--'
p1495
ssg170
(dp1496
g5
S'--'
p1497
sg7
S'--'
p1498
sg9
g10
sg11
S'--'
p1499
sg13
g10
sg14
S'Craig Stevens'
p1500
sg16
S'2012'
p1501
sg18
g170
sg20
S'--'
p1502
sg22
S'10/28'
p1503
sg24
S'7.5'
p1504
sg26
S'--'
p1505
sg28
S'--'
p1506
sg30
S'L13-19'
p1507
sg32
S'15'
p1508
sg34
g77
sg35
S'IND'
p1509
sg37
S'12'
p1510
sg39
g33
sg40
S'--'
p1511
sss.