(dp0
S'2015'
p1
(dp2
S'11'
p3
(dp4
S'RushTD'
p5
S'--'
p6
sS'RushYds'
p7
S'--'
p8
sS'GS'
p9
S'1'
p10
sS'Lost'
p11
S'--'
p12
sS'G'
p13
g10
sS'Player'
p14
S'Crockett Gillmore'
p15
sS'Year'
p16
S'2015'
p17
sS'WK'
p18
S'11'
p19
sS'RushAvg'
p20
S'--'
p21
sS'Game Date'
p22
S'11/22'
p23
sS'RecAvg'
p24
S'20.2'
p25
sS'FUM'
p26
S'--'
p27
sS'RushAtt'
p28
S'--'
p29
sS'Result'
p30
S'W16-13'
p31
sS'RecYds'
p32
S'101'
p33
sS'Rec'
p34
S'5'
p35
sS'Opp'
p36
S'STL'
p37
sS'RecLng'
p38
S'46'
p39
sS'RecTD'
p40
S'0'
p41
sS'RushLng'
p42
S'--'
p43
ssS'10'
p44
(dp45
g5
S'--'
p46
sg7
S'--'
p47
sg9
g10
sg11
S'--'
p48
sg13
g10
sg14
S'Crockett Gillmore'
p49
sg16
S'2015'
p50
sg18
S'10'
p51
sg20
S'--'
p52
sg22
S'11/15'
p53
sg24
S'10.5'
p54
sg26
S'--'
p55
sg28
S'--'
p56
sg30
S'L20-22'
p57
sg32
S'42'
p58
sg34
S'4'
p59
sg36
S'JAC'
p60
sg38
S'25'
p61
sg40
g10
sg42
S'--'
p62
ssS'13'
p63
(dp64
g5
S'--'
p65
sg7
S'--'
p66
sg9
g10
sg11
S'--'
p67
sg13
g10
sg14
S'Crockett Gillmore'
p68
sg16
S'2015'
p69
sg18
S'13'
p70
sg20
S'--'
p71
sg22
S'12/06'
p72
sg24
S'7.0'
p73
sg26
S'--'
p74
sg28
S'--'
p75
sg30
S'L13-15'
p76
sg32
S'7'
p77
sg34
g10
sg36
S'@MIA'
p78
sg38
g77
sg40
g41
sg42
S'--'
p79
ssS'12'
p80
(dp81
g5
S'--'
p82
sg7
S'--'
p83
sg9
g10
sg11
S'--'
p84
sg13
g10
sg14
S'Crockett Gillmore'
p85
sg16
S'2015'
p86
sg18
S'12'
p87
sg20
S'--'
p88
sg22
S'11/30'
p89
sg24
S'6.7'
p90
sg26
S'--'
p91
sg28
S'--'
p92
sg30
S'W33-27'
p93
sg32
S'20'
p94
sg34
S'3'
p95
sg36
S'@CLE'
p96
sg38
S'14'
p97
sg40
g41
sg42
S'--'
p98
ssS'15'
p99
(dp100
g5
S'--'
p101
sg7
S'--'
p102
sg9
g41
sg11
S'--'
p103
sg13
g41
sg14
S'Crockett Gillmore'
p104
sg16
S'2015'
p105
sg18
S'15'
p106
sg20
S'--'
p107
sg22
S'12/20'
p108
sg24
S'--'
p109
sg26
S'--'
p110
sg28
S'--'
p111
sg30
S'L14-34'
p112
sg32
S'--'
p113
sg34
S'--'
p114
sg36
S'KC'
p115
sg38
S'--'
p116
sg40
S'--'
p117
sg42
S'--'
p118
ssS'14'
p119
(dp120
g5
S'--'
p121
sg7
S'--'
p122
sg9
g41
sg11
S'--'
p123
sg13
g41
sg14
S'Crockett Gillmore'
p124
sg16
S'2015'
p125
sg18
S'14'
p126
sg20
S'--'
p127
sg22
S'12/13'
p128
sg24
S'--'
p129
sg26
S'--'
p130
sg28
S'--'
p131
sg30
S'L6-35'
p132
sg32
S'--'
p133
sg34
S'--'
p134
sg36
S'SEA'
p135
sg38
S'--'
p136
sg40
S'--'
p137
sg42
S'--'
p138
ssg10
(dp139
g5
S'--'
p140
sg7
S'--'
p141
sg9
g10
sg11
S'--'
p142
sg13
g10
sg14
S'Crockett Gillmore'
p143
sg16
S'2015'
p144
sg18
g10
sg20
S'--'
p145
sg22
S'09/13'
p146
sg24
S'11.5'
p147
sg26
S'--'
p148
sg28
S'--'
p149
sg30
S'L13-19'
p150
sg32
S'23'
p151
sg34
S'2'
p152
sg36
S'@DEN'
p153
sg38
S'14'
p154
sg40
g41
sg42
S'--'
p155
ssg95
(dp156
g5
S'--'
p157
sg7
S'--'
p158
sg9
g10
sg11
S'--'
p159
sg13
g10
sg14
S'Crockett Gillmore'
p160
sg16
S'2015'
p161
sg18
g95
sg20
S'--'
p162
sg22
S'09/27'
p163
sg24
S'13.3'
p164
sg26
S'--'
p165
sg28
S'--'
p166
sg30
S'L24-28'
p167
sg32
S'40'
p168
sg34
g95
sg36
S'CIN'
p169
sg38
S'19'
p170
sg40
g41
sg42
S'--'
p171
ssg152
(dp172
g5
S'--'
p173
sg7
S'--'
p174
sg9
g10
sg11
S'--'
p175
sg13
g10
sg14
S'Crockett Gillmore'
p176
sg16
S'2015'
p177
sg18
g152
sg20
S'--'
p178
sg22
S'09/20'
p179
sg24
S'17.6'
p180
sg26
S'--'
p181
sg28
S'--'
p182
sg30
S'L33-37'
p183
sg32
S'88'
p184
sg34
g35
sg36
S'@OAK'
p185
sg38
S'38'
p186
sg40
g152
sg42
S'--'
p187
ssg35
(dp188
g5
S'--'
p189
sg7
S'--'
p190
sg9
g41
sg11
S'--'
p191
sg13
g41
sg14
S'Crockett Gillmore'
p192
sg16
S'2015'
p193
sg18
g35
sg20
S'--'
p194
sg22
S'10/11'
p195
sg24
S'--'
p196
sg26
S'--'
p197
sg28
S'--'
p198
sg30
S'L30-33'
p199
sg32
S'--'
p200
sg34
S'--'
p201
sg36
S'CLE'
p202
sg38
S'--'
p203
sg40
S'--'
p204
sg42
S'--'
p205
ssg59
(dp206
g5
S'--'
p207
sg7
S'--'
p208
sg9
g41
sg11
S'--'
p209
sg13
g41
sg14
S'Crockett Gillmore'
p210
sg16
S'2015'
p211
sg18
g59
sg20
S'--'
p212
sg22
S'10/01'
p213
sg24
S'--'
p214
sg26
S'--'
p215
sg28
S'--'
p216
sg30
S'W23-20'
p217
sg32
S'--'
p218
sg34
S'--'
p219
sg36
S'@PIT'
p220
sg38
S'--'
p221
sg40
S'--'
p222
sg42
S'--'
p223
ssg77
(dp224
g5
S'--'
p225
sg7
S'--'
p226
sg9
g10
sg11
S'--'
p227
sg13
g10
sg14
S'Crockett Gillmore'
p228
sg16
S'2015'
p229
sg18
g77
sg20
S'--'
p230
sg22
S'10/26'
p231
sg24
S'10.6'
p232
sg26
S'--'
p233
sg28
S'--'
p234
sg30
S'L18-26'
p235
sg32
S'53'
p236
sg34
g35
sg36
S'@ARI'
p237
sg38
S'23'
p238
sg40
g41
sg42
S'--'
p239
ssS'6'
p240
(dp241
g5
S'--'
p242
sg7
S'--'
p243
sg9
g10
sg11
S'--'
p244
sg13
g10
sg14
S'Crockett Gillmore'
p245
sg16
S'2015'
p246
sg18
g240
sg20
S'--'
p247
sg22
S'10/18'
p248
sg24
S'10.0'
p249
sg26
S'--'
p250
sg28
S'--'
p251
sg30
S'L20-25'
p252
sg32
S'30'
p253
sg34
g95
sg36
S'@SF'
p254
sg38
S'19'
p255
sg40
g41
sg42
S'--'
p256
ssS'9'
p257
(dp258
g5
S''
p259
sg7
g259
sg9
g259
sg11
g259
sg13
g259
sg14
S'Crockett Gillmore'
p260
sg16
S'2015'
p261
sg18
g257
sg20
g259
sg22
S'Bye'
p262
sg24
g259
sg26
g259
sg28
g259
sg30
g259
sg32
g259
sg34
g259
sg36
g259
sg38
g259
sg40
g259
sg42
g259
ssS'8'
p263
(dp264
g5
S'--'
p265
sg7
S'--'
p266
sg9
g10
sg11
S'--'
p267
sg13
g10
sg14
S'Crockett Gillmore'
p268
sg16
S'2015'
p269
sg18
g263
sg20
S'--'
p270
sg22
S'11/01'
p271
sg24
S'4.0'
p272
sg26
S'--'
p273
sg28
S'--'
p274
sg30
S'W29-26'
p275
sg32
g263
sg34
g152
sg36
S'SD'
p276
sg38
g35
sg40
g10
sg42
S'--'
p277
sssS'2014'
p278
(dp279
g3
(dp280
g5
g259
sg7
g259
sg9
g259
sg11
g259
sg13
g259
sg14
S'Crockett Gillmore'
p281
sg16
S'2014'
p282
sg18
S'11'
p283
sg20
g259
sg22
S'Bye'
p284
sg24
g259
sg26
g259
sg28
g259
sg30
g259
sg32
g259
sg34
g259
sg36
g259
sg38
g259
sg40
g259
sg42
g259
ssg44
(dp285
g5
S'--'
p286
sg7
S'--'
p287
sg9
g41
sg11
S'--'
p288
sg13
g10
sg14
S'Crockett Gillmore'
p289
sg16
S'2014'
p290
sg18
S'10'
p291
sg20
S'--'
p292
sg22
S'11/09'
p293
sg24
S'--'
p294
sg26
S'--'
p295
sg28
S'--'
p296
sg30
S'W21-7'
p297
sg32
g41
sg34
g41
sg36
S'TEN'
p298
sg38
S'--'
p299
sg40
g41
sg42
S'--'
p300
ssg63
(dp301
g5
S'--'
p302
sg7
S'--'
p303
sg9
g41
sg11
S'--'
p304
sg13
g10
sg14
S'Crockett Gillmore'
p305
sg16
S'2014'
p306
sg18
S'13'
p307
sg20
S'--'
p308
sg22
S'11/30'
p309
sg24
S'--'
p310
sg26
S'--'
p311
sg28
S'--'
p312
sg30
S'L33-34'
p313
sg32
g41
sg34
g41
sg36
S'SD'
p314
sg38
S'--'
p315
sg40
g41
sg42
S'--'
p316
ssg80
(dp317
g5
S'--'
p318
sg7
S'--'
p319
sg9
g41
sg11
S'--'
p320
sg13
g10
sg14
S'Crockett Gillmore'
p321
sg16
S'2014'
p322
sg18
S'12'
p323
sg20
S'--'
p324
sg22
S'11/24'
p325
sg24
S'--'
p326
sg26
S'--'
p327
sg28
S'--'
p328
sg30
S'W34-27'
p329
sg32
S'--'
p330
sg34
S'--'
p331
sg36
S'@NO'
p332
sg38
S'--'
p333
sg40
S'--'
p334
sg42
S'--'
p335
ssg99
(dp336
g5
S'--'
p337
sg7
S'--'
p338
sg9
g41
sg11
S'--'
p339
sg13
g10
sg14
S'Crockett Gillmore'
p340
sg16
S'2014'
p341
sg18
S'15'
p342
sg20
S'--'
p343
sg22
S'12/14'
p344
sg24
S'18.5'
p345
sg26
S'--'
p346
sg28
S'--'
p347
sg30
S'W20-12'
p348
sg32
S'37'
p349
sg34
g152
sg36
S'JAC'
p350
sg38
S'20'
p351
sg40
g41
sg42
S'--'
p352
ssg119
(dp353
g5
S'--'
p354
sg7
S'--'
p355
sg9
g41
sg11
S'--'
p356
sg13
g41
sg14
S'Crockett Gillmore'
p357
sg16
S'2014'
p358
sg18
S'14'
p359
sg20
S'--'
p360
sg22
S'12/07'
p361
sg24
S'--'
p362
sg26
S'--'
p363
sg28
S'--'
p364
sg30
S'W28-13'
p365
sg32
S'--'
p366
sg34
S'--'
p367
sg36
S'@MIA'
p368
sg38
S'--'
p369
sg40
S'--'
p370
sg42
S'--'
p371
ssS'17'
p372
(dp373
g5
S'--'
p374
sg7
S'--'
p375
sg9
g41
sg11
S'--'
p376
sg13
g10
sg14
S'Crockett Gillmore'
p377
sg16
S'2014'
p378
sg18
S'17'
p379
sg20
S'--'
p380
sg22
S'12/28'
p381
sg24
S'22.0'
p382
sg26
S'--'
p383
sg28
S'--'
p384
sg30
S'W20-10'
p385
sg32
S'22'
p386
sg34
g10
sg36
S'CLE'
p387
sg38
S'22'
p388
sg40
g41
sg42
S'--'
p389
ssS'16'
p390
(dp391
g5
S'--'
p392
sg7
S'--'
p393
sg9
g41
sg11
S'--'
p394
sg13
g10
sg14
S'Crockett Gillmore'
p395
sg16
S'2014'
p396
sg18
S'16'
p397
sg20
S'--'
p398
sg22
S'12/21'
p399
sg24
S'9.0'
p400
sg26
S'--'
p401
sg28
S'--'
p402
sg30
S'L13-25'
p403
sg32
g257
sg34
g10
sg36
S'@HOU'
p404
sg38
g257
sg40
g41
sg42
S'--'
p405
ssg10
(dp406
g5
S'--'
p407
sg7
S'--'
p408
sg9
g41
sg11
S'--'
p409
sg13
g10
sg14
S'Crockett Gillmore'
p410
sg16
S'2014'
p411
sg18
g10
sg20
S'--'
p412
sg22
S'09/07'
p413
sg24
S'--'
p414
sg26
S'--'
p415
sg28
S'--'
p416
sg30
S'L16-23'
p417
sg32
S'--'
p418
sg34
S'--'
p419
sg36
S'CIN'
p420
sg38
S'--'
p421
sg40
S'--'
p422
sg42
S'--'
p423
ssg95
(dp424
g5
S'--'
p425
sg7
S'--'
p426
sg9
g41
sg11
S'--'
p427
sg13
g10
sg14
S'Crockett Gillmore'
p428
sg16
S'2014'
p429
sg18
g95
sg20
S'--'
p430
sg22
S'09/21'
p431
sg24
S'--'
p432
sg26
S'--'
p433
sg28
S'--'
p434
sg30
S'W23-21'
p435
sg32
S'--'
p436
sg34
S'--'
p437
sg36
S'@CLE'
p438
sg38
S'--'
p439
sg40
S'--'
p440
sg42
S'--'
p441
ssg152
(dp442
g5
S'--'
p443
sg7
S'--'
p444
sg9
g41
sg11
S'--'
p445
sg13
g10
sg14
S'Crockett Gillmore'
p446
sg16
S'2014'
p447
sg18
g152
sg20
S'--'
p448
sg22
S'09/11'
p449
sg24
S'--'
p450
sg26
S'--'
p451
sg28
S'--'
p452
sg30
S'W26-6'
p453
sg32
S'--'
p454
sg34
S'--'
p455
sg36
S'PIT'
p456
sg38
S'--'
p457
sg40
S'--'
p458
sg42
S'--'
p459
ssg35
(dp460
g5
S'--'
p461
sg7
S'--'
p462
sg9
g41
sg11
S'--'
p463
sg13
g10
sg14
S'Crockett Gillmore'
p464
sg16
S'2014'
p465
sg18
g35
sg20
S'--'
p466
sg22
S'10/05'
p467
sg24
S'--'
p468
sg26
S'--'
p469
sg28
S'--'
p470
sg30
S'L13-20'
p471
sg32
S'--'
p472
sg34
S'--'
p473
sg36
S'@IND'
p474
sg38
S'--'
p475
sg40
S'--'
p476
sg42
S'--'
p477
ssg59
(dp478
g5
S'--'
p479
sg7
S'--'
p480
sg9
g41
sg11
S'--'
p481
sg13
g10
sg14
S'Crockett Gillmore'
p482
sg16
S'2014'
p483
sg18
g59
sg20
S'--'
p484
sg22
S'09/28'
p485
sg24
S'--'
p486
sg26
S'--'
p487
sg28
S'--'
p488
sg30
S'W38-10'
p489
sg32
S'--'
p490
sg34
S'--'
p491
sg36
S'CAR'
p492
sg38
S'--'
p493
sg40
S'--'
p494
sg42
S'--'
p495
ssg77
(dp496
g5
S'--'
p497
sg7
S'--'
p498
sg9
g41
sg11
S'--'
p499
sg13
g10
sg14
S'Crockett Gillmore'
p500
sg16
S'2014'
p501
sg18
g77
sg20
S'--'
p502
sg22
S'10/19'
p503
sg24
S'13.0'
p504
sg26
S'--'
p505
sg28
S'--'
p506
sg30
S'W29-7'
p507
sg32
S'13'
p508
sg34
g10
sg36
S'ATL'
p509
sg38
S'13'
p510
sg40
g41
sg42
S'--'
p511
ssg240
(dp512
g5
S'--'
p513
sg7
S'--'
p514
sg9
g41
sg11
S'--'
p515
sg13
g10
sg14
S'Crockett Gillmore'
p516
sg16
S'2014'
p517
sg18
g240
sg20
S'--'
p518
sg22
S'10/12'
p519
sg24
S'8.0'
p520
sg26
S'--'
p521
sg28
S'--'
p522
sg30
S'W48-17'
p523
sg32
S'16'
p524
sg34
g152
sg36
S'@TB'
p525
sg38
S'11'
p526
sg40
g41
sg42
S'--'
p527
ssg257
(dp528
g5
S'--'
p529
sg7
S'--'
p530
sg9
g41
sg11
S'--'
p531
sg13
g10
sg14
S'Crockett Gillmore'
p532
sg16
S'2014'
p533
sg18
g257
sg20
S'--'
p534
sg22
S'11/02'
p535
sg24
S'1.0'
p536
sg26
S'--'
p537
sg28
S'--'
p538
sg30
S'L23-43'
p539
sg32
g10
sg34
g10
sg36
S'@PIT'
p540
sg38
S'1T'
p541
sg40
g10
sg42
S'--'
p542
ssg263
(dp543
g5
S'--'
p544
sg7
S'--'
p545
sg9
g10
sg11
S'--'
p546
sg13
g10
sg14
S'Crockett Gillmore'
p547
sg16
S'2014'
p548
sg18
g263
sg20
S'--'
p549
sg22
S'10/26'
p550
sg24
S'11.5'
p551
sg26
S'--'
p552
sg28
S'--'
p553
sg30
S'L24-27'
p554
sg32
S'23'
p555
sg34
g152
sg36
S'@CIN'
p556
sg38
S'13'
p557
sg40
g41
sg42
S'--'
p558
sss.