(dp0
S'2015'
p1
(dp2
S'1'
p3
(dp4
S'RushTD'
p5
S'--'
p6
sS'RushYds'
p7
S'--'
p8
sS'GS'
p9
g3
sS'Lost'
p10
S'--'
p11
sS'G'
p12
g3
sS'Player'
p13
S'Daniel Fells'
p14
sS'Year'
p15
S'2015'
p16
sS'WK'
p17
g3
sS'RushAvg'
p18
S'--'
p19
sS'Game Date'
p20
S'09/13'
p21
sS'RecAvg'
p22
S'11.0'
p23
sS'FUM'
p24
S'--'
p25
sS'RushAtt'
p26
S'--'
p27
sS'Result'
p28
S'L26-27'
p29
sS'RecYds'
p30
S'33'
p31
sS'Rec'
p32
S'3'
p33
sS'Opp'
p34
S'@DAL'
p35
sS'RecLng'
p36
S'13'
p37
sS'RecTD'
p38
S'0'
p39
sS'RushLng'
p40
S'--'
p41
ssg33
(dp42
g5
S'--'
p43
sg7
S'--'
p44
sg9
g39
sg10
S'--'
p45
sg12
g3
sg13
S'Daniel Fells'
p46
sg15
S'2015'
p47
sg17
g33
sg18
S'--'
p48
sg20
S'09/24'
p49
sg22
S'9.0'
p50
sg24
S'--'
p51
sg26
S'--'
p52
sg28
S'W32-21'
p53
sg30
S'27'
p54
sg32
g33
sg34
S'WAS'
p55
sg36
S'23'
p56
sg38
g39
sg40
S'--'
p57
ssS'2'
p58
(dp59
g5
S'--'
p60
sg7
S'--'
p61
sg9
g39
sg10
S'--'
p62
sg12
g39
sg13
S'Daniel Fells'
p63
sg15
S'2015'
p64
sg17
g58
sg18
S'--'
p65
sg20
S'09/20'
p66
sg22
S'--'
p67
sg24
S'--'
p68
sg26
S'--'
p69
sg28
S'L20-24'
p70
sg30
S'--'
p71
sg32
S'--'
p72
sg34
S'ATL'
p73
sg36
S'--'
p74
sg38
S'--'
p75
sg40
S'--'
p76
ssS'4'
p77
(dp78
g5
S'--'
p79
sg7
S'--'
p80
sg9
g39
sg10
S'--'
p81
sg12
g39
sg13
S'Daniel Fells'
p82
sg15
S'2015'
p83
sg17
g77
sg18
S'--'
p84
sg20
S'10/04'
p85
sg22
S'--'
p86
sg24
S'--'
p87
sg26
S'--'
p88
sg28
S'W24-10'
p89
sg30
S'--'
p90
sg32
S'--'
p91
sg34
S'@BUF'
p92
sg36
S'--'
p93
sg38
S'--'
p94
sg40
S'--'
p95
sssS'2014'
p96
(dp97
S'11'
p98
(dp99
g5
S'--'
p100
sg7
S'--'
p101
sg9
g3
sg10
S'--'
p102
sg12
g3
sg13
S'Daniel Fells'
p103
sg15
S'2014'
p104
sg17
S'11'
p105
sg18
S'--'
p106
sg20
S'11/16'
p107
sg22
S'--'
p108
sg24
S'--'
p109
sg26
S'--'
p110
sg28
S'L10-16'
p111
sg30
S'--'
p112
sg32
S'--'
p113
sg34
S'SF'
p114
sg36
S'--'
p115
sg38
S'--'
p116
sg40
S'--'
p117
ssS'10'
p118
(dp119
g5
S'--'
p120
sg7
S'--'
p121
sg9
g3
sg10
S'--'
p122
sg12
g3
sg13
S'Daniel Fells'
p123
sg15
S'2014'
p124
sg17
S'10'
p125
sg18
S'--'
p126
sg20
S'11/09'
p127
sg22
S'12.0'
p128
sg24
S'--'
p129
sg26
S'--'
p130
sg28
S'L17-38'
p131
sg30
S'12'
p132
sg32
g3
sg34
S'@SEA'
p133
sg36
S'12'
p134
sg38
g39
sg40
S'--'
p135
ssS'13'
p136
(dp137
g5
S'--'
p138
sg7
S'--'
p139
sg9
g3
sg10
S'--'
p140
sg12
g3
sg13
S'Daniel Fells'
p141
sg15
S'2014'
p142
sg17
S'13'
p143
sg18
S'--'
p144
sg20
S'11/30'
p145
sg22
S'--'
p146
sg24
S'--'
p147
sg26
S'--'
p148
sg28
S'L24-25'
p149
sg30
g39
sg32
g39
sg34
S'@JAC'
p150
sg36
S'--'
p151
sg38
g39
sg40
S'--'
p152
ssS'12'
p153
(dp154
g5
S'--'
p155
sg7
S'--'
p156
sg9
g39
sg10
S'--'
p157
sg12
g3
sg13
S'Daniel Fells'
p158
sg15
S'2014'
p159
sg17
S'12'
p160
sg18
S'--'
p161
sg20
S'11/23'
p162
sg22
S'11.7'
p163
sg24
S'--'
p164
sg26
S'--'
p165
sg28
S'L28-31'
p166
sg30
S'35'
p167
sg32
g33
sg34
S'DAL'
p168
sg36
S'13'
p169
sg38
g39
sg40
S'--'
p170
ssS'15'
p171
(dp172
g5
S'--'
p173
sg7
S'--'
p174
sg9
g3
sg10
S'--'
p175
sg12
g3
sg13
S'Daniel Fells'
p176
sg15
S'2014'
p177
sg17
S'15'
p178
sg18
S'--'
p179
sg20
S'12/14'
p180
sg22
S'16.0'
p181
sg24
S'--'
p182
sg26
S'--'
p183
sg28
S'W24-13'
p184
sg30
S'16'
p185
sg32
g3
sg34
S'WAS'
p186
sg36
S'16'
p187
sg38
g39
sg40
S'--'
p188
ssS'14'
p189
(dp190
g5
S'--'
p191
sg7
S'--'
p192
sg9
g3
sg10
S'--'
p193
sg12
g3
sg13
S'Daniel Fells'
p194
sg15
S'2014'
p195
sg17
S'14'
p196
sg18
S'--'
p197
sg20
S'12/07'
p198
sg22
S'--'
p199
sg24
S'--'
p200
sg26
S'--'
p201
sg28
S'W36-7'
p202
sg30
g39
sg32
g39
sg34
S'@TEN'
p203
sg36
S'--'
p204
sg38
g39
sg40
S'--'
p205
ssS'17'
p206
(dp207
g5
S'--'
p208
sg7
S'--'
p209
sg9
g3
sg10
S'--'
p210
sg12
g3
sg13
S'Daniel Fells'
p211
sg15
S'2014'
p212
sg17
S'17'
p213
sg18
S'--'
p214
sg20
S'12/28'
p215
sg22
S'--'
p216
sg24
S'--'
p217
sg26
S'--'
p218
sg28
S'L26-34'
p219
sg30
S'--'
p220
sg32
S'--'
p221
sg34
S'PHI'
p222
sg36
S'--'
p223
sg38
S'--'
p224
sg40
S'--'
p225
ssS'16'
p226
(dp227
g5
S'--'
p228
sg7
S'--'
p229
sg9
g3
sg10
S'--'
p230
sg12
g3
sg13
S'Daniel Fells'
p231
sg15
S'2014'
p232
sg17
S'16'
p233
sg18
S'--'
p234
sg20
S'12/21'
p235
sg22
S'10.0'
p236
sg24
S'--'
p237
sg26
S'--'
p238
sg28
S'W37-27'
p239
sg30
S'20'
p240
sg32
g58
sg34
S'@STL'
p241
sg36
S'12'
p242
sg38
g39
sg40
S'--'
p243
ssg3
(dp244
g5
S'--'
p245
sg7
S'--'
p246
sg9
g3
sg10
S'--'
p247
sg12
g3
sg13
S'Daniel Fells'
p248
sg15
S'2014'
p249
sg17
g3
sg18
S'--'
p250
sg20
S'09/08'
p251
sg22
S'7.0'
p252
sg24
S'--'
p253
sg26
S'--'
p254
sg28
S'L14-35'
p255
sg30
S'7'
p256
sg32
g3
sg34
S'@DET'
p257
sg36
g256
sg38
g39
sg40
S'--'
p258
ssg33
(dp259
g5
S'--'
p260
sg7
S'--'
p261
sg9
g39
sg10
S'--'
p262
sg12
g3
sg13
S'Daniel Fells'
p263
sg15
S'2014'
p264
sg17
g33
sg18
S'--'
p265
sg20
S'09/21'
p266
sg22
S'11.0'
p267
sg24
S'--'
p268
sg26
S'--'
p269
sg28
S'W30-17'
p270
sg30
S'22'
p271
sg32
g58
sg34
S'HOU'
p272
sg36
S'13'
p273
sg38
g3
sg40
S'--'
p274
ssg58
(dp275
g5
S'--'
p276
sg7
S'--'
p277
sg9
g39
sg10
S'--'
p278
sg12
g3
sg13
S'Daniel Fells'
p279
sg15
S'2014'
p280
sg17
g58
sg18
S'--'
p281
sg20
S'09/14'
p282
sg22
S'1.0'
p283
sg24
S'--'
p284
sg26
S'--'
p285
sg28
S'L14-25'
p286
sg30
g3
sg32
g3
sg34
S'ARI'
p287
sg36
S'1T'
p288
sg38
g3
sg40
S'--'
p289
ssS'5'
p290
(dp291
g5
S'--'
p292
sg7
S'--'
p293
sg9
g39
sg10
S'--'
p294
sg12
g3
sg13
S'Daniel Fells'
p295
sg15
S'2014'
p296
sg17
g290
sg18
S'--'
p297
sg20
S'10/05'
p298
sg22
S'--'
p299
sg24
S'--'
p300
sg26
S'--'
p301
sg28
S'W30-20'
p302
sg30
S'--'
p303
sg32
S'--'
p304
sg34
S'ATL'
p305
sg36
S'--'
p306
sg38
S'--'
p307
sg40
S'--'
p308
ssg77
(dp309
g5
S'--'
p310
sg7
S'--'
p311
sg9
g39
sg10
S'--'
p312
sg12
g3
sg13
S'Daniel Fells'
p313
sg15
S'2014'
p314
sg17
g77
sg18
S'--'
p315
sg20
S'09/25'
p316
sg22
S'4.0'
p317
sg24
S'--'
p318
sg26
S'--'
p319
sg28
S'W45-14'
p320
sg30
S'8'
p321
sg32
g58
sg34
S'@WAS'
p322
sg36
S'6'
p323
sg38
g3
sg40
S'--'
p324
ssg256
(dp325
g5
S'--'
p326
sg7
S'--'
p327
sg9
g39
sg10
S'--'
p328
sg12
g3
sg13
S'Daniel Fells'
p329
sg15
S'2014'
p330
sg17
g256
sg18
S'--'
p331
sg20
S'10/19'
p332
sg22
S'27.0'
p333
sg24
S'--'
p334
sg26
S'--'
p335
sg28
S'L21-31'
p336
sg30
S'27'
p337
sg32
g3
sg34
S'@DAL'
p338
sg36
S'27T'
p339
sg38
g3
sg40
S'--'
p340
ssg323
(dp341
g5
S'--'
p342
sg7
S'--'
p343
sg9
g39
sg10
g3
sg12
g3
sg13
S'Daniel Fells'
p344
sg15
S'2014'
p345
sg17
g323
sg18
S'--'
p346
sg20
S'10/12'
p347
sg22
S'20.0'
p348
sg24
g3
sg26
S'--'
p349
sg28
S'L0-27'
p350
sg30
S'40'
p351
sg32
g58
sg34
S'@PHI'
p352
sg36
S'20'
p353
sg38
g39
sg40
S'--'
p354
ssS'9'
p355
(dp356
g5
S'--'
p357
sg7
S'--'
p358
sg9
g3
sg10
S'--'
p359
sg12
g3
sg13
S'Daniel Fells'
p360
sg15
S'2014'
p361
sg17
g355
sg18
S'--'
p362
sg20
S'11/03'
p363
sg22
S'--'
p364
sg24
S'--'
p365
sg26
S'--'
p366
sg28
S'L24-40'
p367
sg30
S'--'
p368
sg32
S'--'
p369
sg34
S'IND'
p370
sg36
S'--'
p371
sg38
S'--'
p372
sg40
S'--'
p373
ssg321
(dp374
g5
S''
p375
sg7
g375
sg9
g375
sg10
g375
sg12
g375
sg13
S'Daniel Fells'
p376
sg15
S'2014'
p377
sg17
g321
sg18
g375
sg20
S'Bye'
p378
sg22
g375
sg24
g375
sg26
g375
sg28
g375
sg30
g375
sg32
g375
sg34
g375
sg36
g375
sg38
g375
sg40
g375
sssS'2011'
p379
(dp380
g98
(dp381
g5
S'--'
p382
sg7
S'--'
p383
sg9
g3
sg10
S'--'
p384
sg12
g3
sg13
S'Daniel Fells'
p385
sg15
S'2011'
p386
sg17
S'11'
p387
sg18
S'--'
p388
sg20
S'11/17'
p389
sg22
S'--'
p390
sg24
S'--'
p391
sg26
S'--'
p392
sg28
S'W17-13'
p393
sg30
g39
sg32
g39
sg34
S'NYJ'
p394
sg36
S'--'
p395
sg38
g39
sg40
S'--'
p396
ssg118
(dp397
g5
S'--'
p398
sg7
S'--'
p399
sg9
g3
sg10
S'--'
p400
sg12
g3
sg13
S'Daniel Fells'
p401
sg15
S'2011'
p402
sg17
S'10'
p403
sg18
S'--'
p404
sg20
S'11/13'
p405
sg22
S'--'
p406
sg24
S'--'
p407
sg26
S'--'
p408
sg28
S'W17-10'
p409
sg30
S'--'
p410
sg32
S'--'
p411
sg34
S'@KC'
p412
sg36
S'--'
p413
sg38
S'--'
p414
sg40
S'--'
p415
ssg136
(dp416
g5
S'--'
p417
sg7
S'--'
p418
sg9
g3
sg10
S'--'
p419
sg12
g3
sg13
S'Daniel Fells'
p420
sg15
S'2011'
p421
sg17
S'13'
p422
sg18
S'--'
p423
sg20
S'12/04'
p424
sg22
S'--'
p425
sg24
S'--'
p426
sg26
S'--'
p427
sg28
S'W35-32'
p428
sg30
S'--'
p429
sg32
S'--'
p430
sg34
S'@MIN'
p431
sg36
S'--'
p432
sg38
S'--'
p433
sg40
S'--'
p434
ssg153
(dp435
g5
S'--'
p436
sg7
S'--'
p437
sg9
g3
sg10
g39
sg12
g3
sg13
S'Daniel Fells'
p438
sg15
S'2011'
p439
sg17
S'12'
p440
sg18
S'--'
p441
sg20
S'11/27'
p442
sg22
S'19.0'
p443
sg24
g3
sg26
S'--'
p444
sg28
S'W16-13'
p445
sg30
S'19'
p446
sg32
g3
sg34
S'@SD'
p447
sg36
S'19'
p448
sg38
g39
sg40
S'--'
p449
ssg171
(dp450
g5
S'--'
p451
sg7
S'--'
p452
sg9
g3
sg10
S'--'
p453
sg12
g3
sg13
S'Daniel Fells'
p454
sg15
S'2011'
p455
sg17
S'15'
p456
sg18
S'--'
p457
sg20
S'12/18'
p458
sg22
S'--'
p459
sg24
S'--'
p460
sg26
S'--'
p461
sg28
S'L23-41'
p462
sg30
S'--'
p463
sg32
S'--'
p464
sg34
S'NE'
p465
sg36
S'--'
p466
sg38
S'--'
p467
sg40
S'--'
p468
ssg189
(dp469
g5
S'--'
p470
sg7
S'--'
p471
sg9
g3
sg10
S'--'
p472
sg12
g3
sg13
S'Daniel Fells'
p473
sg15
S'2011'
p474
sg17
S'14'
p475
sg18
S'--'
p476
sg20
S'12/11'
p477
sg22
S'--'
p478
sg24
S'--'
p479
sg26
S'--'
p480
sg28
S'W13-10'
p481
sg30
g39
sg32
g39
sg34
S'CHI'
p482
sg36
S'--'
p483
sg38
g39
sg40
S'--'
p484
ssg206
(dp485
g5
S'--'
p486
sg7
S'--'
p487
sg9
g3
sg10
S'--'
p488
sg12
g3
sg13
S'Daniel Fells'
p489
sg15
S'2011'
p490
sg17
S'17'
p491
sg18
S'--'
p492
sg20
S'01/01'
p493
sg22
S'14.0'
p494
sg24
S'--'
p495
sg26
S'--'
p496
sg28
S'L3-7'
p497
sg30
S'14'
p498
sg32
g3
sg34
S'KC'
p499
sg36
S'14'
p500
sg38
g39
sg40
S'--'
p501
ssg226
(dp502
g5
S'--'
p503
sg7
S'--'
p504
sg9
g39
sg10
S'--'
p505
sg12
g3
sg13
S'Daniel Fells'
p506
sg15
S'2011'
p507
sg17
S'16'
p508
sg18
S'--'
p509
sg20
S'12/24'
p510
sg22
S'11.0'
p511
sg24
S'--'
p512
sg26
S'--'
p513
sg28
S'L14-40'
p514
sg30
S'22'
p515
sg32
g58
sg34
S'@BUF'
p516
sg36
S'17T'
p517
sg38
g3
sg40
S'--'
p518
ssg3
(dp519
g5
S'--'
p520
sg7
S'--'
p521
sg9
g3
sg10
S'--'
p522
sg12
g3
sg13
S'Daniel Fells'
p523
sg15
S'2011'
p524
sg17
g3
sg18
S'--'
p525
sg20
S'09/12'
p526
sg22
S'10.7'
p527
sg24
S'--'
p528
sg26
S'--'
p529
sg28
S'L20-23'
p530
sg30
S'32'
p531
sg32
g33
sg34
S'OAK'
p532
sg36
S'16'
p533
sg38
g39
sg40
S'--'
p534
ssg33
(dp535
g5
S'--'
p536
sg7
S'--'
p537
sg9
g3
sg10
S'--'
p538
sg12
g3
sg13
S'Daniel Fells'
p539
sg15
S'2011'
p540
sg17
g33
sg18
S'--'
p541
sg20
S'09/25'
p542
sg22
S'21.0'
p543
sg24
S'--'
p544
sg26
S'--'
p545
sg28
S'L14-17'
p546
sg30
S'42'
p547
sg32
g58
sg34
S'@TEN'
p548
sg36
S'32'
p549
sg38
g39
sg40
S'--'
p550
ssg58
(dp551
g5
S'--'
p552
sg7
S'--'
p553
sg9
g3
sg10
S'--'
p554
sg12
g3
sg13
S'Daniel Fells'
p555
sg15
S'2011'
p556
sg17
g58
sg18
S'--'
p557
sg20
S'09/18'
p558
sg22
S'9.0'
p559
sg24
S'--'
p560
sg26
S'--'
p561
sg28
S'W24-22'
p562
sg30
g355
sg32
g3
sg34
S'CIN'
p563
sg36
g355
sg38
g39
sg40
S'--'
p564
ssg290
(dp565
g5
S'--'
p566
sg7
S'--'
p567
sg9
g3
sg10
S'--'
p568
sg12
g3
sg13
S'Daniel Fells'
p569
sg15
S'2011'
p570
sg17
g290
sg18
S'--'
p571
sg20
S'10/09'
p572
sg22
S'15.7'
p573
sg24
S'--'
p574
sg26
S'--'
p575
sg28
S'L24-29'
p576
sg30
S'47'
p577
sg32
g33
sg34
S'SD'
p578
sg36
S'31'
p579
sg38
g39
sg40
S'--'
p580
ssg77
(dp581
g5
S'--'
p582
sg7
S'--'
p583
sg9
g3
sg10
g3
sg12
g3
sg13
S'Daniel Fells'
p584
sg15
S'2011'
p585
sg17
g77
sg18
S'--'
p586
sg20
S'10/02'
p587
sg22
S'14.5'
p588
sg24
g3
sg26
S'--'
p589
sg28
S'L23-49'
p590
sg30
S'29'
p591
sg32
g58
sg34
S'@GB'
p592
sg36
S'22'
p593
sg38
g3
sg40
S'--'
p594
ssg256
(dp595
g5
S'--'
p596
sg7
S'--'
p597
sg9
g3
sg10
S'--'
p598
sg12
g3
sg13
S'Daniel Fells'
p599
sg15
S'2011'
p600
sg17
g256
sg18
S'--'
p601
sg20
S'10/23'
p602
sg22
S'15.5'
p603
sg24
S'--'
p604
sg26
S'--'
p605
sg28
S'W18-15'
p606
sg30
S'31'
p607
sg32
g58
sg34
S'@MIA'
p608
sg36
S'28'
p609
sg38
g3
sg40
S'--'
p610
ssg323
(dp611
g5
g375
sg7
g375
sg9
g375
sg10
g375
sg12
g375
sg13
S'Daniel Fells'
p612
sg15
S'2011'
p613
sg17
g323
sg18
g375
sg20
S'Bye'
p614
sg22
g375
sg24
g375
sg26
g375
sg28
g375
sg30
g375
sg32
g375
sg34
g375
sg36
g375
sg38
g375
sg40
g375
ssg355
(dp615
g5
S'--'
p616
sg7
S'--'
p617
sg9
g3
sg10
S'--'
p618
sg12
g3
sg13
S'Daniel Fells'
p619
sg15
S'2011'
p620
sg17
g355
sg18
S'--'
p621
sg20
S'11/06'
p622
sg22
S'6.0'
p623
sg24
S'--'
p624
sg26
S'--'
p625
sg28
S'W38-24'
p626
sg30
g323
sg32
g3
sg34
S'@OAK'
p627
sg36
g323
sg38
g39
sg40
S'--'
p628
ssg321
(dp629
g5
S'--'
p630
sg7
S'--'
p631
sg9
g3
sg10
S'--'
p632
sg12
g3
sg13
S'Daniel Fells'
p633
sg15
S'2011'
p634
sg17
g321
sg18
S'--'
p635
sg20
S'10/30'
p636
sg22
S'5.0'
p637
sg24
S'--'
p638
sg26
S'--'
p639
sg28
S'L10-45'
p640
sg30
g290
sg32
g3
sg34
S'DET'
p641
sg36
g290
sg38
g39
sg40
S'--'
p642
sssS'2010'
p643
(dp644
g98
(dp645
g5
S'--'
p646
sg7
S'--'
p647
sg9
g3
sg10
S'--'
p648
sg12
g3
sg13
S'Daniel Fells'
p649
sg15
S'2010'
p650
sg17
S'11'
p651
sg18
S'--'
p652
sg20
S'11/21'
p653
sg22
S'11.0'
p654
sg24
S'--'
p655
sg26
S'--'
p656
sg28
S'L17-34'
p657
sg30
S'11'
p658
sg32
g3
sg34
S'ATL'
p659
sg36
S'11'
p660
sg38
g39
sg40
S'--'
p661
ssg118
(dp662
g5
S'--'
p663
sg7
S'--'
p664
sg9
g39
sg10
S'--'
p665
sg12
g3
sg13
S'Daniel Fells'
p666
sg15
S'2010'
p667
sg17
S'10'
p668
sg18
S'--'
p669
sg20
S'11/14'
p670
sg22
S'5.5'
p671
sg24
S'--'
p672
sg26
S'--'
p673
sg28
S'L20-23'
p674
sg30
S'11'
p675
sg32
g58
sg34
S'@SF'
p676
sg36
S'11'
p677
sg38
g39
sg40
S'--'
p678
ssg136
(dp679
g5
S'--'
p680
sg7
S'--'
p681
sg9
g3
sg10
S'--'
p682
sg12
g3
sg13
S'Daniel Fells'
p683
sg15
S'2010'
p684
sg17
S'13'
p685
sg18
S'--'
p686
sg20
S'12/05'
p687
sg22
S'6.0'
p688
sg24
S'--'
p689
sg26
S'--'
p690
sg28
S'W19-6'
p691
sg30
S'18'
p692
sg32
g33
sg34
S'@ARI'
p693
sg36
g355
sg38
g39
sg40
S'--'
p694
ssg153
(dp695
g5
S'--'
p696
sg7
S'--'
p697
sg9
g39
sg10
S'--'
p698
sg12
g3
sg13
S'Daniel Fells'
p699
sg15
S'2010'
p700
sg17
S'12'
p701
sg18
S'--'
p702
sg20
S'11/28'
p703
sg22
S'11.5'
p704
sg24
S'--'
p705
sg26
S'--'
p706
sg28
S'W36-33'
p707
sg30
S'23'
p708
sg32
g58
sg34
S'@DEN'
p709
sg36
S'13'
p710
sg38
g39
sg40
S'--'
p711
ssg171
(dp712
g5
S'--'
p713
sg7
S'--'
p714
sg9
g39
sg10
S'--'
p715
sg12
g3
sg13
S'Daniel Fells'
p716
sg15
S'2010'
p717
sg17
S'15'
p718
sg18
S'--'
p719
sg20
S'12/19'
p720
sg22
S'11.8'
p721
sg24
S'--'
p722
sg26
S'--'
p723
sg28
S'L13-27'
p724
sg30
S'47'
p725
sg32
g77
sg34
S'KC'
p726
sg36
S'25'
p727
sg38
g39
sg40
S'--'
p728
ssg189
(dp729
g5
S'--'
p730
sg7
S'--'
p731
sg9
g39
sg10
S'--'
p732
sg12
g3
sg13
S'Daniel Fells'
p733
sg15
S'2010'
p734
sg17
S'14'
p735
sg18
S'--'
p736
sg20
S'12/12'
p737
sg22
S'8.7'
p738
sg24
S'--'
p739
sg26
S'--'
p740
sg28
S'L13-31'
p741
sg30
S'26'
p742
sg32
g33
sg34
S'@NO'
p743
sg36
S'10'
p744
sg38
g39
sg40
S'--'
p745
ssg206
(dp746
g5
S'--'
p747
sg7
S'--'
p748
sg9
g39
sg10
S'--'
p749
sg12
g3
sg13
S'Daniel Fells'
p750
sg15
S'2010'
p751
sg17
S'17'
p752
sg18
S'--'
p753
sg20
S'01/02'
p754
sg22
S'13.0'
p755
sg24
S'--'
p756
sg26
S'--'
p757
sg28
S'L6-16'
p758
sg30
S'39'
p759
sg32
g33
sg34
S'@SEA'
p760
sg36
S'15'
p761
sg38
g39
sg40
S'--'
p762
ssg226
(dp763
g5
S'--'
p764
sg7
S'--'
p765
sg9
g3
sg10
S'--'
p766
sg12
g3
sg13
S'Daniel Fells'
p767
sg15
S'2010'
p768
sg17
S'16'
p769
sg18
S'--'
p770
sg20
S'12/26'
p771
sg22
S'9.3'
p772
sg24
S'--'
p773
sg26
S'--'
p774
sg28
S'W25-17'
p775
sg30
S'28'
p776
sg32
g33
sg34
S'SF'
p777
sg36
S'11'
p778
sg38
g39
sg40
S'--'
p779
ssg3
(dp780
g5
S'--'
p781
sg7
S'--'
p782
sg9
g39
sg10
S'--'
p783
sg12
g3
sg13
S'Daniel Fells'
p784
sg15
S'2010'
p785
sg17
g3
sg18
S'--'
p786
sg20
S'09/12'
p787
sg22
S'3.8'
p788
sg24
S'--'
p789
sg26
S'--'
p790
sg28
S'L13-17'
p791
sg30
S'15'
p792
sg32
g77
sg34
S'ARI'
p793
sg36
g290
sg38
g39
sg40
S'--'
p794
ssg33
(dp795
g5
S'--'
p796
sg7
S'--'
p797
sg9
g39
sg10
S'--'
p798
sg12
g3
sg13
S'Daniel Fells'
p799
sg15
S'2010'
p800
sg17
g33
sg18
S'--'
p801
sg20
S'09/26'
p802
sg22
S'7.3'
p803
sg24
S'--'
p804
sg26
S'--'
p805
sg28
S'W30-16'
p806
sg30
S'22'
p807
sg32
g33
sg34
S'WAS'
p808
sg36
S'12'
p809
sg38
g3
sg40
S'--'
p810
ssg58
(dp811
g5
S'--'
p812
sg7
S'--'
p813
sg9
g3
sg10
S'--'
p814
sg12
g3
sg13
S'Daniel Fells'
p815
sg15
S'2010'
p816
sg17
g58
sg18
S'--'
p817
sg20
S'09/19'
p818
sg22
S'36.0'
p819
sg24
S'--'
p820
sg26
S'--'
p821
sg28
S'L14-16'
p822
sg30
S'36'
p823
sg32
g3
sg34
S'@OAK'
p824
sg36
S'36'
p825
sg38
g39
sg40
S'--'
p826
ssg290
(dp827
g5
S'--'
p828
sg7
S'--'
p829
sg9
g3
sg10
S'--'
p830
sg12
g3
sg13
S'Daniel Fells'
p831
sg15
S'2010'
p832
sg17
g290
sg18
S'--'
p833
sg20
S'10/10'
p834
sg22
S'10.7'
p835
sg24
S'--'
p836
sg26
S'--'
p837
sg28
S'L6-44'
p838
sg30
S'32'
p839
sg32
g33
sg34
S'@DET'
p840
sg36
S'27'
p841
sg38
g39
sg40
S'--'
p842
ssg77
(dp843
g5
S'--'
p844
sg7
S'--'
p845
sg9
g39
sg10
S'--'
p846
sg12
g3
sg13
S'Daniel Fells'
p847
sg15
S'2010'
p848
sg17
g77
sg18
S'--'
p849
sg20
S'10/03'
p850
sg22
S'11.7'
p851
sg24
S'--'
p852
sg26
S'--'
p853
sg28
S'W20-3'
p854
sg30
S'35'
p855
sg32
g33
sg34
S'SEA'
p856
sg36
S'15'
p857
sg38
g39
sg40
S'--'
p858
ssg256
(dp859
g5
S'--'
p860
sg7
S'--'
p861
sg9
g39
sg10
S'--'
p862
sg12
g3
sg13
S'Daniel Fells'
p863
sg15
S'2010'
p864
sg17
g256
sg18
S'--'
p865
sg20
S'10/24'
p866
sg22
S'5.0'
p867
sg24
S'--'
p868
sg26
S'--'
p869
sg28
S'L17-18'
p870
sg30
g290
sg32
g3
sg34
S'@TB'
p871
sg36
g290
sg38
g39
sg40
S'--'
p872
ssg323
(dp873
g5
S'--'
p874
sg7
S'--'
p875
sg9
g39
sg10
S'--'
p876
sg12
g3
sg13
S'Daniel Fells'
p877
sg15
S'2010'
p878
sg17
g323
sg18
S'--'
p879
sg20
S'10/17'
p880
sg22
S'8.0'
p881
sg24
S'--'
p882
sg26
S'--'
p883
sg28
S'W20-17'
p884
sg30
g321
sg32
g3
sg34
S'SD'
p885
sg36
g321
sg38
g39
sg40
S'--'
p886
ssg355
(dp887
g5
g375
sg7
g375
sg9
g375
sg10
g375
sg12
g375
sg13
S'Daniel Fells'
p888
sg15
S'2010'
p889
sg17
g355
sg18
g375
sg20
S'Bye'
p890
sg22
g375
sg24
g375
sg26
g375
sg28
g375
sg30
g375
sg32
g375
sg34
g375
sg36
g375
sg38
g375
sg40
g375
ssg321
(dp891
g5
S'--'
p892
sg7
S'--'
p893
sg9
g3
sg10
S'--'
p894
sg12
g3
sg13
S'Daniel Fells'
p895
sg15
S'2010'
p896
sg17
g321
sg18
S'--'
p897
sg20
S'10/31'
p898
sg22
S'8.8'
p899
sg24
S'--'
p900
sg26
S'--'
p901
sg28
S'W20-10'
p902
sg30
S'35'
p903
sg32
g77
sg34
S'CAR'
p904
sg36
S'23T'
p905
sg38
g3
sg40
S'--'
p906
sssS'2012'
p907
(dp908
g98
(dp909
g5
S'--'
p910
sg7
S'--'
p911
sg9
g39
sg10
S'--'
p912
sg12
g39
sg13
S'Daniel Fells'
p913
sg15
S'2012'
p914
sg17
S'11'
p915
sg18
S'--'
p916
sg20
S'11/18'
p917
sg22
S'--'
p918
sg24
S'--'
p919
sg26
S'--'
p920
sg28
S'W59-24'
p921
sg30
S'--'
p922
sg32
S'--'
p923
sg34
S'IND'
p924
sg36
S'--'
p925
sg38
S'--'
p926
sg40
S'--'
p927
ssg118
(dp928
g5
S'--'
p929
sg7
S'--'
p930
sg9
g39
sg10
S'--'
p931
sg12
g3
sg13
S'Daniel Fells'
p932
sg15
S'2012'
p933
sg17
S'10'
p934
sg18
S'--'
p935
sg20
S'11/11'
p936
sg22
S'--'
p937
sg24
S'--'
p938
sg26
S'--'
p939
sg28
S'W37-31'
p940
sg30
S'--'
p941
sg32
S'--'
p942
sg34
S'BUF'
p943
sg36
S'--'
p944
sg38
S'--'
p945
sg40
S'--'
p946
ssg136
(dp947
g5
S'--'
p948
sg7
S'--'
p949
sg9
g39
sg10
S'--'
p950
sg12
g3
sg13
S'Daniel Fells'
p951
sg15
S'2012'
p952
sg17
S'13'
p953
sg18
S'--'
p954
sg20
S'12/02'
p955
sg22
S'--'
p956
sg24
S'--'
p957
sg26
S'--'
p958
sg28
S'W23-16'
p959
sg30
g39
sg32
g39
sg34
S'@MIA'
p960
sg36
S'--'
p961
sg38
g39
sg40
S'--'
p962
ssg153
(dp963
g5
S'--'
p964
sg7
S'--'
p965
sg9
g3
sg10
S'--'
p966
sg12
g3
sg13
S'Daniel Fells'
p967
sg15
S'2012'
p968
sg17
S'12'
p969
sg18
S'--'
p970
sg20
S'11/22'
p971
sg22
S'24.0'
p972
sg24
S'--'
p973
sg26
S'--'
p974
sg28
S'W49-19'
p975
sg30
S'24'
p976
sg32
g3
sg34
S'@NYJ'
p977
sg36
S'24'
p978
sg38
g39
sg40
S'--'
p979
ssg171
(dp980
g5
S'--'
p981
sg7
S'--'
p982
sg9
g39
sg10
S'--'
p983
sg12
g3
sg13
S'Daniel Fells'
p984
sg15
S'2012'
p985
sg17
S'15'
p986
sg18
S'--'
p987
sg20
S'12/16'
p988
sg22
S'--'
p989
sg24
S'--'
p990
sg26
S'--'
p991
sg28
S'L34-41'
p992
sg30
S'--'
p993
sg32
S'--'
p994
sg34
S'SF'
p995
sg36
S'--'
p996
sg38
S'--'
p997
sg40
S'--'
p998
ssg189
(dp999
g5
S'--'
p1000
sg7
S'--'
p1001
sg9
g39
sg10
S'--'
p1002
sg12
g3
sg13
S'Daniel Fells'
p1003
sg15
S'2012'
p1004
sg17
S'14'
p1005
sg18
S'--'
p1006
sg20
S'12/10'
p1007
sg22
S'--'
p1008
sg24
S'--'
p1009
sg26
S'--'
p1010
sg28
S'W42-14'
p1011
sg30
S'--'
p1012
sg32
S'--'
p1013
sg34
S'HOU'
p1014
sg36
S'--'
p1015
sg38
S'--'
p1016
sg40
S'--'
p1017
ssg206
(dp1018
g5
S'--'
p1019
sg7
S'--'
p1020
sg9
g39
sg10
S'--'
p1021
sg12
g3
sg13
S'Daniel Fells'
p1022
sg15
S'2012'
p1023
sg17
S'17'
p1024
sg18
S'--'
p1025
sg20
S'12/30'
p1026
sg22
S'--'
p1027
sg24
S'--'
p1028
sg26
S'--'
p1029
sg28
S'W28-0'
p1030
sg30
S'--'
p1031
sg32
S'--'
p1032
sg34
S'MIA'
p1033
sg36
S'--'
p1034
sg38
S'--'
p1035
sg40
S'--'
p1036
ssg226
(dp1037
g5
S'--'
p1038
sg7
S'--'
p1039
sg9
g3
sg10
S'--'
p1040
sg12
g3
sg13
S'Daniel Fells'
p1041
sg15
S'2012'
p1042
sg17
S'16'
p1043
sg18
S'--'
p1044
sg20
S'12/23'
p1045
sg22
S'8.0'
p1046
sg24
S'--'
p1047
sg26
S'--'
p1048
sg28
S'W23-16'
p1049
sg30
g321
sg32
g3
sg34
S'@JAC'
p1050
sg36
g321
sg38
g39
sg40
S'--'
p1051
ssg3
(dp1052
g5
S'--'
p1053
sg7
S'--'
p1054
sg9
g39
sg10
S'--'
p1055
sg12
g39
sg13
S'Daniel Fells'
p1056
sg15
S'2012'
p1057
sg17
g3
sg18
S'--'
p1058
sg20
S'09/09'
p1059
sg22
S'--'
p1060
sg24
S'--'
p1061
sg26
S'--'
p1062
sg28
S'W34-13'
p1063
sg30
S'--'
p1064
sg32
S'--'
p1065
sg34
S'@TEN'
p1066
sg36
S'--'
p1067
sg38
S'--'
p1068
sg40
S'--'
p1069
ssg33
(dp1070
g5
S'--'
p1071
sg7
S'--'
p1072
sg9
g3
sg10
S'--'
p1073
sg12
g3
sg13
S'Daniel Fells'
p1074
sg15
S'2012'
p1075
sg17
g33
sg18
S'--'
p1076
sg20
S'09/23'
p1077
sg22
S'--'
p1078
sg24
S'--'
p1079
sg26
S'--'
p1080
sg28
S'L30-31'
p1081
sg30
S'--'
p1082
sg32
S'--'
p1083
sg34
S'@BAL'
p1084
sg36
S'--'
p1085
sg38
S'--'
p1086
sg40
S'--'
p1087
ssg58
(dp1088
g5
S'--'
p1089
sg7
S'--'
p1090
sg9
g39
sg10
S'--'
p1091
sg12
g39
sg13
S'Daniel Fells'
p1092
sg15
S'2012'
p1093
sg17
g58
sg18
S'--'
p1094
sg20
S'09/16'
p1095
sg22
S'--'
p1096
sg24
S'--'
p1097
sg26
S'--'
p1098
sg28
S'L18-20'
p1099
sg30
S'--'
p1100
sg32
S'--'
p1101
sg34
S'ARI'
p1102
sg36
S'--'
p1103
sg38
S'--'
p1104
sg40
S'--'
p1105
ssg290
(dp1106
g5
S'--'
p1107
sg7
S'--'
p1108
sg9
g39
sg10
S'--'
p1109
sg12
g3
sg13
S'Daniel Fells'
p1110
sg15
S'2012'
p1111
sg17
g290
sg18
S'--'
p1112
sg20
S'10/07'
p1113
sg22
S'--'
p1114
sg24
S'--'
p1115
sg26
S'--'
p1116
sg28
S'W31-21'
p1117
sg30
g39
sg32
g39
sg34
S'DEN'
p1118
sg36
S'--'
p1119
sg38
g39
sg40
S'--'
p1120
ssg77
(dp1121
g5
S'--'
p1122
sg7
S'--'
p1123
sg9
g3
sg10
S'--'
p1124
sg12
g3
sg13
S'Daniel Fells'
p1125
sg15
S'2012'
p1126
sg17
g77
sg18
S'--'
p1127
sg20
S'09/30'
p1128
sg22
S'18.0'
p1129
sg24
S'--'
p1130
sg26
S'--'
p1131
sg28
S'W52-28'
p1132
sg30
S'18'
p1133
sg32
g3
sg34
S'@BUF'
p1134
sg36
S'18'
p1135
sg38
g39
sg40
S'--'
p1136
ssg256
(dp1137
g5
S'--'
p1138
sg7
S'--'
p1139
sg9
g39
sg10
S'--'
p1140
sg12
g3
sg13
S'Daniel Fells'
p1141
sg15
S'2012'
p1142
sg17
g256
sg18
S'--'
p1143
sg20
S'10/21'
p1144
sg22
S'--'
p1145
sg24
S'--'
p1146
sg26
S'--'
p1147
sg28
S'W29-26'
p1148
sg30
S'--'
p1149
sg32
S'--'
p1150
sg34
S'NYJ'
p1151
sg36
S'--'
p1152
sg38
S'--'
p1153
sg40
S'--'
p1154
ssg323
(dp1155
g5
S'--'
p1156
sg7
S'--'
p1157
sg9
g39
sg10
S'--'
p1158
sg12
g3
sg13
S'Daniel Fells'
p1159
sg15
S'2012'
p1160
sg17
g323
sg18
S'--'
p1161
sg20
S'10/14'
p1162
sg22
S'35.0'
p1163
sg24
S'--'
p1164
sg26
S'--'
p1165
sg28
S'L23-24'
p1166
sg30
S'35'
p1167
sg32
g3
sg34
S'@SEA'
p1168
sg36
S'35'
p1169
sg38
g39
sg40
S'--'
p1170
ssg355
(dp1171
g5
g375
sg7
g375
sg9
g375
sg10
g375
sg12
g375
sg13
S'Daniel Fells'
p1172
sg15
S'2012'
p1173
sg17
g355
sg18
g375
sg20
S'Bye'
p1174
sg22
g375
sg24
g375
sg26
g375
sg28
g375
sg30
g375
sg32
g375
sg34
g375
sg36
g375
sg38
g375
sg40
g375
ssg321
(dp1175
g5
S'--'
p1176
sg7
S'--'
p1177
sg9
g39
sg10
S'--'
p1178
sg12
g3
sg13
S'Daniel Fells'
p1179
sg15
S'2012'
p1180
sg17
g321
sg18
S'--'
p1181
sg20
S'10/28'
p1182
sg22
S'--'
p1183
sg24
S'--'
p1184
sg26
S'--'
p1185
sg28
S'W45-7'
p1186
sg30
S'--'
p1187
sg32
S'--'
p1188
sg34
S'@STL'
p1189
sg36
S'--'
p1190
sg38
S'--'
p1191
sg40
S'--'
p1192
sss.