(dp0
S'2015'
p1
(dp2
S'11'
p3
(dp4
S'RushTD'
p5
S'--'
p6
sS'RushYds'
p7
S'--'
p8
sS'GS'
p9
S'1'
p10
sS'Lost'
p11
S'--'
p12
sS'G'
p13
g10
sS'Player'
p14
S'Darren Fells'
p15
sS'Year'
p16
S'2015'
p17
sS'WK'
p18
S'11'
p19
sS'RushAvg'
p20
S'--'
p21
sS'Game Date'
p22
S'11/22'
p23
sS'RecAvg'
p24
S'18.0'
p25
sS'FUM'
p26
S'--'
p27
sS'RushAtt'
p28
S'--'
p29
sS'Result'
p30
S'W34-31'
p31
sS'RecYds'
p32
S'18'
p33
sS'Rec'
p34
g10
sS'Opp'
p35
S'CIN'
p36
sS'RecLng'
p37
S'18T'
p38
sS'RecTD'
p39
g10
sS'RushLng'
p40
S'--'
p41
ssS'10'
p42
(dp43
g5
S'--'
p44
sg7
S'--'
p45
sg9
g10
sg11
S'--'
p46
sg13
g10
sg14
S'Darren Fells'
p47
sg16
S'2015'
p48
sg18
S'10'
p49
sg20
S'--'
p50
sg22
S'11/15'
p51
sg24
S'7.0'
p52
sg26
S'--'
p53
sg28
S'--'
p54
sg30
S'W39-32'
p55
sg32
S'21'
p56
sg34
S'3'
p57
sg35
S'@SEA'
p58
sg37
S'9'
p59
sg39
S'0'
p60
sg40
S'--'
p61
ssS'13'
p62
(dp63
g5
S'--'
p64
sg7
S'--'
p65
sg9
g60
sg11
S'--'
p66
sg13
g10
sg14
S'Darren Fells'
p67
sg16
S'2015'
p68
sg18
S'13'
p69
sg20
S'--'
p70
sg22
S'12/06'
p71
sg24
S'22.0'
p72
sg26
S'--'
p73
sg28
S'--'
p74
sg30
S'W27-3'
p75
sg32
S'22'
p76
sg34
g10
sg35
S'@STL'
p77
sg37
S'22'
p78
sg39
g60
sg40
S'--'
p79
ssS'12'
p80
(dp81
g5
S'--'
p82
sg7
S'--'
p83
sg9
g60
sg11
S'--'
p84
sg13
g10
sg14
S'Darren Fells'
p85
sg16
S'2015'
p86
sg18
S'12'
p87
sg20
S'--'
p88
sg22
S'11/29'
p89
sg24
S'--'
p90
sg26
S'--'
p91
sg28
S'--'
p92
sg30
S'W19-13'
p93
sg32
S'--'
p94
sg34
S'--'
p95
sg35
S'@SF'
p96
sg37
S'--'
p97
sg39
S'--'
p98
sg40
S'--'
p99
ssS'15'
p100
(dp101
g5
S'--'
p102
sg7
S'--'
p103
sg9
g10
sg11
S'--'
p104
sg13
g10
sg14
S'Darren Fells'
p105
sg16
S'2015'
p106
sg18
S'15'
p107
sg20
S'--'
p108
sg22
S'12/20'
p109
sg24
S'18.0'
p110
sg26
S'--'
p111
sg28
S'--'
p112
sg30
S'W40-17'
p113
sg32
S'54'
p114
sg34
g57
sg35
S'@PHI'
p115
sg37
S'36'
p116
sg39
g60
sg40
S'--'
p117
ssS'14'
p118
(dp119
g5
S'--'
p120
sg7
S'--'
p121
sg9
g10
sg11
S'--'
p122
sg13
g10
sg14
S'Darren Fells'
p123
sg16
S'2015'
p124
sg18
S'14'
p125
sg20
S'--'
p126
sg22
S'12/10'
p127
sg24
S'14.3'
p128
sg26
S'--'
p129
sg28
S'--'
p130
sg30
S'W23-20'
p131
sg32
S'43'
p132
sg34
g57
sg35
S'MIN'
p133
sg37
S'26'
p134
sg39
g60
sg40
S'--'
p135
ssS'17'
p136
(dp137
g5
S'--'
p138
sg7
S'--'
p139
sg9
g10
sg11
S'--'
p140
sg13
g10
sg14
S'Darren Fells'
p141
sg16
S'2015'
p142
sg18
S'17'
p143
sg20
S'--'
p144
sg22
S'01/03'
p145
sg24
S'7.0'
p146
sg26
S'--'
p147
sg28
S'--'
p148
sg30
S'L6-36'
p149
sg32
S'7'
p150
sg34
g10
sg35
S'SEA'
p151
sg37
g150
sg39
g60
sg40
S'--'
p152
ssS'16'
p153
(dp154
g5
S'--'
p155
sg7
S'--'
p156
sg9
g10
sg11
S'--'
p157
sg13
g10
sg14
S'Darren Fells'
p158
sg16
S'2015'
p159
sg18
S'16'
p160
sg20
S'--'
p161
sg22
S'12/27'
p162
sg24
S'--'
p163
sg26
S'--'
p164
sg28
S'--'
p165
sg30
S'W38-8'
p166
sg32
S'--'
p167
sg34
S'--'
p168
sg35
S'GB'
p169
sg37
S'--'
p170
sg39
S'--'
p171
sg40
S'--'
p172
ssg10
(dp173
g5
S'--'
p174
sg7
S'--'
p175
sg9
g10
sg11
S'--'
p176
sg13
g10
sg14
S'Darren Fells'
p177
sg16
S'2015'
p178
sg18
g10
sg20
S'--'
p179
sg22
S'09/13'
p180
sg24
S'20.5'
p181
sg26
S'--'
p182
sg28
S'--'
p183
sg30
S'W31-19'
p184
sg32
S'82'
p185
sg34
S'4'
p186
sg35
S'NO'
p187
sg37
S'48'
p188
sg39
g10
sg40
S'--'
p189
ssg57
(dp190
g5
S'--'
p191
sg7
S'--'
p192
sg9
g10
sg11
S'--'
p193
sg13
g10
sg14
S'Darren Fells'
p194
sg16
S'2015'
p195
sg18
g57
sg20
S'--'
p196
sg22
S'09/27'
p197
sg24
S'13.0'
p198
sg26
S'--'
p199
sg28
S'--'
p200
sg30
S'W47-7'
p201
sg32
S'13'
p202
sg34
g10
sg35
S'SF'
p203
sg37
S'13'
p204
sg39
g60
sg40
S'--'
p205
ssS'2'
p206
(dp207
g5
S'--'
p208
sg7
S'--'
p209
sg9
g10
sg11
S'--'
p210
sg13
g10
sg14
S'Darren Fells'
p211
sg16
S'2015'
p212
sg18
g206
sg20
S'--'
p213
sg22
S'09/20'
p214
sg24
S'--'
p215
sg26
S'--'
p216
sg28
S'--'
p217
sg30
S'W48-23'
p218
sg32
S'--'
p219
sg34
S'--'
p220
sg35
S'@CHI'
p221
sg37
S'--'
p222
sg39
S'--'
p223
sg40
S'--'
p224
ssS'5'
p225
(dp226
g5
S'--'
p227
sg7
S'--'
p228
sg9
g10
sg11
S'--'
p229
sg13
g10
sg14
S'Darren Fells'
p230
sg16
S'2015'
p231
sg18
g225
sg20
S'--'
p232
sg22
S'10/11'
p233
sg24
S'12.5'
p234
sg26
S'--'
p235
sg28
S'--'
p236
sg30
S'W42-17'
p237
sg32
S'25'
p238
sg34
g206
sg35
S'@DET'
p239
sg37
S'14T'
p240
sg39
g10
sg40
S'--'
p241
ssg186
(dp242
g5
S'--'
p243
sg7
S'--'
p244
sg9
g10
sg11
S'--'
p245
sg13
g10
sg14
S'Darren Fells'
p246
sg16
S'2015'
p247
sg18
g186
sg20
S'--'
p248
sg22
S'10/04'
p249
sg24
S'17.0'
p250
sg26
S'--'
p251
sg28
S'--'
p252
sg30
S'L22-24'
p253
sg32
S'17'
p254
sg34
g10
sg35
S'STL'
p255
sg37
S'17'
p256
sg39
g60
sg40
S'--'
p257
ssg150
(dp258
g5
S'--'
p259
sg7
S'--'
p260
sg9
g60
sg11
S'--'
p261
sg13
g60
sg14
S'Darren Fells'
p262
sg16
S'2015'
p263
sg18
g150
sg20
S'--'
p264
sg22
S'10/26'
p265
sg24
S'--'
p266
sg26
S'--'
p267
sg28
S'--'
p268
sg30
S'W26-18'
p269
sg32
S'--'
p270
sg34
S'--'
p271
sg35
S'BAL'
p272
sg37
S'--'
p273
sg39
S'--'
p274
sg40
S'--'
p275
ssS'6'
p276
(dp277
g5
S'--'
p278
sg7
S'--'
p279
sg9
g10
sg11
S'--'
p280
sg13
g10
sg14
S'Darren Fells'
p281
sg16
S'2015'
p282
sg18
g276
sg20
S'--'
p283
sg22
S'10/18'
p284
sg24
S'9.0'
p285
sg26
S'--'
p286
sg28
S'--'
p287
sg30
S'L13-25'
p288
sg32
g59
sg34
g10
sg35
S'@PIT'
p289
sg37
g59
sg39
g60
sg40
S'--'
p290
ssg59
(dp291
g5
S''
p292
sg7
g292
sg9
g292
sg11
g292
sg13
g292
sg14
S'Darren Fells'
p293
sg16
S'2015'
p294
sg18
g59
sg20
g292
sg22
S'Bye'
p295
sg24
g292
sg26
g292
sg28
g292
sg30
g292
sg32
g292
sg34
g292
sg35
g292
sg37
g292
sg39
g292
sg40
g292
ssS'8'
p296
(dp297
g5
S'--'
p298
sg7
S'--'
p299
sg9
g60
sg11
S'--'
p300
sg13
g60
sg14
S'Darren Fells'
p301
sg16
S'2015'
p302
sg18
g296
sg20
S'--'
p303
sg22
S'11/01'
p304
sg24
S'--'
p305
sg26
S'--'
p306
sg28
S'--'
p307
sg30
S'W34-20'
p308
sg32
S'--'
p309
sg34
S'--'
p310
sg35
S'@CLE'
p311
sg37
S'--'
p312
sg39
S'--'
p313
sg40
S'--'
p314
sssS'2014'
p315
(dp316
g3
(dp317
g5
S'--'
p318
sg7
S'--'
p319
sg9
g60
sg11
S'--'
p320
sg13
g60
sg14
S'Darren Fells'
p321
sg16
S'2014'
p322
sg18
S'11'
p323
sg20
S'--'
p324
sg22
S'11/16'
p325
sg24
S'--'
p326
sg26
S'--'
p327
sg28
S'--'
p328
sg30
S'W14-6'
p329
sg32
S'--'
p330
sg34
S'--'
p331
sg35
S'DET'
p332
sg37
S'--'
p333
sg39
S'--'
p334
sg40
S'--'
p335
ssg42
(dp336
g5
S'--'
p337
sg7
S'--'
p338
sg9
g60
sg11
S'--'
p339
sg13
g60
sg14
S'Darren Fells'
p340
sg16
S'2014'
p341
sg18
S'10'
p342
sg20
S'--'
p343
sg22
S'11/09'
p344
sg24
S'--'
p345
sg26
S'--'
p346
sg28
S'--'
p347
sg30
S'W31-14'
p348
sg32
S'--'
p349
sg34
S'--'
p350
sg35
S'STL'
p351
sg37
S'--'
p352
sg39
S'--'
p353
sg40
S'--'
p354
ssg62
(dp355
g5
S'--'
p356
sg7
S'--'
p357
sg9
g60
sg11
S'--'
p358
sg13
g10
sg14
S'Darren Fells'
p359
sg16
S'2014'
p360
sg18
S'13'
p361
sg20
S'--'
p362
sg22
S'11/30'
p363
sg24
S'--'
p364
sg26
S'--'
p365
sg28
S'--'
p366
sg30
S'L18-29'
p367
sg32
S'--'
p368
sg34
S'--'
p369
sg35
S'@ATL'
p370
sg37
S'--'
p371
sg39
S'--'
p372
sg40
S'--'
p373
ssg80
(dp374
g5
S'--'
p375
sg7
S'--'
p376
sg9
g60
sg11
S'--'
p377
sg13
g10
sg14
S'Darren Fells'
p378
sg16
S'2014'
p379
sg18
S'12'
p380
sg20
S'--'
p381
sg22
S'11/23'
p382
sg24
S'--'
p383
sg26
S'--'
p384
sg28
S'--'
p385
sg30
S'L3-19'
p386
sg32
S'--'
p387
sg34
S'--'
p388
sg35
S'@SEA'
p389
sg37
S'--'
p390
sg39
S'--'
p391
sg40
S'--'
p392
ssg100
(dp393
g5
S'--'
p394
sg7
S'--'
p395
sg9
g10
sg11
S'--'
p396
sg13
g10
sg14
S'Darren Fells'
p397
sg16
S'2014'
p398
sg18
S'15'
p399
sg20
S'--'
p400
sg22
S'12/11'
p401
sg24
S'6.0'
p402
sg26
S'--'
p403
sg28
S'--'
p404
sg30
S'W12-6'
p405
sg32
g276
sg34
g10
sg35
S'@STL'
p406
sg37
g276
sg39
g60
sg40
S'--'
p407
ssg118
(dp408
g5
S'--'
p409
sg7
S'--'
p410
sg9
g10
sg11
S'--'
p411
sg13
g10
sg14
S'Darren Fells'
p412
sg16
S'2014'
p413
sg18
S'14'
p414
sg20
S'--'
p415
sg22
S'12/07'
p416
sg24
S'--'
p417
sg26
S'--'
p418
sg28
S'--'
p419
sg30
S'W17-14'
p420
sg32
g60
sg34
g60
sg35
S'KC'
p421
sg37
S'--'
p422
sg39
g60
sg40
S'--'
p423
ssg136
(dp424
g5
S'--'
p425
sg7
S'--'
p426
sg9
g10
sg11
S'--'
p427
sg13
g10
sg14
S'Darren Fells'
p428
sg16
S'2014'
p429
sg18
S'17'
p430
sg20
S'--'
p431
sg22
S'12/28'
p432
sg24
S'19.5'
p433
sg26
S'--'
p434
sg28
S'--'
p435
sg30
S'L17-20'
p436
sg32
S'39'
p437
sg34
g206
sg35
S'@SF'
p438
sg37
S'24'
p439
sg39
g60
sg40
S'--'
p440
ssg153
(dp441
g5
S'--'
p442
sg7
S'--'
p443
sg9
g10
sg11
S'--'
p444
sg13
g10
sg14
S'Darren Fells'
p445
sg16
S'2014'
p446
sg18
S'16'
p447
sg20
S'--'
p448
sg22
S'12/21'
p449
sg24
S'13.0'
p450
sg26
S'--'
p451
sg28
S'--'
p452
sg30
S'L6-35'
p453
sg32
S'26'
p454
sg34
g206
sg35
S'SEA'
p455
sg37
S'15'
p456
sg39
g60
sg40
S'--'
p457
ssg10
(dp458
g5
S'--'
p459
sg7
S'--'
p460
sg9
g60
sg11
S'--'
p461
sg13
g60
sg14
S'Darren Fells'
p462
sg16
S'2014'
p463
sg18
g10
sg20
S'--'
p464
sg22
S'09/08'
p465
sg24
S'--'
p466
sg26
S'--'
p467
sg28
S'--'
p468
sg30
S'W18-17'
p469
sg32
S'--'
p470
sg34
S'--'
p471
sg35
S'SD'
p472
sg37
S'--'
p473
sg39
S'--'
p474
sg40
S'--'
p475
ssg57
(dp476
g5
S'--'
p477
sg7
S'--'
p478
sg9
g10
sg11
S'--'
p479
sg13
g10
sg14
S'Darren Fells'
p480
sg16
S'2014'
p481
sg18
g57
sg20
S'--'
p482
sg22
S'09/21'
p483
sg24
S'--'
p484
sg26
S'--'
p485
sg28
S'--'
p486
sg30
S'W23-14'
p487
sg32
g60
sg34
g60
sg35
S'SF'
p488
sg37
S'--'
p489
sg39
g60
sg40
S'--'
p490
ssg206
(dp491
g5
S'--'
p492
sg7
S'--'
p493
sg9
g60
sg11
S'--'
p494
sg13
g60
sg14
S'Darren Fells'
p495
sg16
S'2014'
p496
sg18
g206
sg20
S'--'
p497
sg22
S'09/14'
p498
sg24
S'--'
p499
sg26
S'--'
p500
sg28
S'--'
p501
sg30
S'W25-14'
p502
sg32
S'--'
p503
sg34
S'--'
p504
sg35
S'@NYG'
p505
sg37
S'--'
p506
sg39
S'--'
p507
sg40
S'--'
p508
ssg225
(dp509
g5
S'--'
p510
sg7
S'--'
p511
sg9
g60
sg11
S'--'
p512
sg13
g60
sg14
S'Darren Fells'
p513
sg16
S'2014'
p514
sg18
g225
sg20
S'--'
p515
sg22
S'10/05'
p516
sg24
S'--'
p517
sg26
S'--'
p518
sg28
S'--'
p519
sg30
S'L20-41'
p520
sg32
S'--'
p521
sg34
S'--'
p522
sg35
S'@DEN'
p523
sg37
S'--'
p524
sg39
S'--'
p525
sg40
S'--'
p526
ssg186
(dp527
g5
g292
sg7
g292
sg9
g292
sg11
g292
sg13
g292
sg14
S'Darren Fells'
p528
sg16
S'2014'
p529
sg18
g186
sg20
g292
sg22
S'Bye'
p530
sg24
g292
sg26
g292
sg28
g292
sg30
g292
sg32
g292
sg34
g292
sg35
g292
sg37
g292
sg39
g292
sg40
g292
ssg150
(dp531
g5
S'--'
p532
sg7
S'--'
p533
sg9
g60
sg11
S'--'
p534
sg13
g10
sg14
S'Darren Fells'
p535
sg16
S'2014'
p536
sg18
g150
sg20
S'--'
p537
sg22
S'10/19'
p538
sg24
S'--'
p539
sg26
S'--'
p540
sg28
S'--'
p541
sg30
S'W24-13'
p542
sg32
S'--'
p543
sg34
S'--'
p544
sg35
S'@OAK'
p545
sg37
S'--'
p546
sg39
S'--'
p547
sg40
S'--'
p548
ssg276
(dp549
g5
S'--'
p550
sg7
S'--'
p551
sg9
g60
sg11
S'--'
p552
sg13
g10
sg14
S'Darren Fells'
p553
sg16
S'2014'
p554
sg18
g276
sg20
S'--'
p555
sg22
S'10/12'
p556
sg24
S'--'
p557
sg26
S'--'
p558
sg28
S'--'
p559
sg30
S'W30-20'
p560
sg32
S'--'
p561
sg34
S'--'
p562
sg35
S'WAS'
p563
sg37
S'--'
p564
sg39
S'--'
p565
sg40
S'--'
p566
ssg59
(dp567
g5
S'--'
p568
sg7
S'--'
p569
sg9
g60
sg11
S'--'
p570
sg13
g60
sg14
S'Darren Fells'
p571
sg16
S'2014'
p572
sg18
g59
sg20
S'--'
p573
sg22
S'11/02'
p574
sg24
S'--'
p575
sg26
S'--'
p576
sg28
S'--'
p577
sg30
S'W28-17'
p578
sg32
S'--'
p579
sg34
S'--'
p580
sg35
S'@DAL'
p581
sg37
S'--'
p582
sg39
S'--'
p583
sg40
S'--'
p584
ssg296
(dp585
g5
S'--'
p586
sg7
S'--'
p587
sg9
g60
sg11
S'--'
p588
sg13
g10
sg14
S'Darren Fells'
p589
sg16
S'2014'
p590
sg18
g296
sg20
S'--'
p591
sg22
S'10/26'
p592
sg24
S'--'
p593
sg26
S'--'
p594
sg28
S'--'
p595
sg30
S'W24-20'
p596
sg32
S'--'
p597
sg34
S'--'
p598
sg35
S'PHI'
p599
sg37
S'--'
p600
sg39
S'--'
p601
sg40
S'--'
p602
sss.