(dp0
S'2015'
p1
(dp2
S'11'
p3
(dp4
S'RushTD'
p5
S'--'
p6
sS'RushYds'
p7
S'--'
p8
sS'GS'
p9
S'1'
p10
sS'Lost'
p11
S'--'
p12
sS'G'
p13
g10
sS'Player'
p14
S'David Johnson'
p15
sS'Year'
p16
S'2015'
p17
sS'WK'
p18
S'11'
p19
sS'RushAvg'
p20
S'--'
p21
sS'Game Date'
p22
S'11/22'
p23
sS'RecAvg'
p24
S'--'
p25
sS'FUM'
p26
S'--'
p27
sS'RushAtt'
p28
S'--'
p29
sS'Result'
p30
S'L3-33'
p31
sS'RecYds'
p32
S'--'
p33
sS'Rec'
p34
S'--'
p35
sS'Opp'
p36
S'KC'
p37
sS'RecLng'
p38
S'--'
p39
sS'RecTD'
p40
S'--'
p41
sS'RushLng'
p42
S'--'
p43
ssS'10'
p44
(dp45
g5
S''
p46
sg7
g46
sg9
g46
sg11
g46
sg13
g46
sg14
S'David Johnson'
p47
sg16
S'2015'
p48
sg18
S'10'
p49
sg20
g46
sg22
S'Bye'
p50
sg24
g46
sg26
g46
sg28
g46
sg30
g46
sg32
g46
sg34
g46
sg36
g46
sg38
g46
sg40
g46
sg42
g46
ssS'13'
p51
(dp52
g5
S'0'
p53
sg7
S'2'
p54
sg9
g53
sg11
S'--'
p55
sg13
g10
sg14
S'David Johnson'
p56
sg16
S'2015'
p57
sg18
S'13'
p58
sg20
S'2.0'
p59
sg22
S'12/06'
p60
sg24
S'--'
p61
sg26
S'--'
p62
sg28
g10
sg30
S'L3-17'
p63
sg32
S'--'
p64
sg34
S'--'
p65
sg36
S'DEN'
p66
sg38
S'--'
p67
sg40
S'--'
p68
sg42
g54
ssS'12'
p69
(dp70
g5
S'--'
p71
sg7
S'--'
p72
sg9
g53
sg11
S'--'
p73
sg13
g10
sg14
S'David Johnson'
p74
sg16
S'2015'
p75
sg18
S'12'
p76
sg20
S'--'
p77
sg22
S'11/29'
p78
sg24
S'--'
p79
sg26
S'--'
p80
sg28
S'--'
p81
sg30
S'W31-25'
p82
sg32
S'--'
p83
sg34
S'--'
p84
sg36
S'@JAC'
p85
sg38
S'--'
p86
sg40
S'--'
p87
sg42
S'--'
p88
ssS'15'
p89
(dp90
g5
S'--'
p91
sg7
S'--'
p92
sg9
g53
sg11
S'--'
p93
sg13
g10
sg14
S'David Johnson'
p94
sg16
S'2015'
p95
sg18
S'15'
p96
sg20
S'--'
p97
sg22
S'12/20'
p98
sg24
S'--'
p99
sg26
S'--'
p100
sg28
S'--'
p101
sg30
S'W30-14'
p102
sg32
S'--'
p103
sg34
S'--'
p104
sg36
S'MIA'
p105
sg38
S'--'
p106
sg40
S'--'
p107
sg42
S'--'
p108
ssS'14'
p109
(dp110
g5
S'--'
p111
sg7
S'--'
p112
sg9
g10
sg11
S'--'
p113
sg13
g10
sg14
S'David Johnson'
p114
sg16
S'2015'
p115
sg18
S'14'
p116
sg20
S'--'
p117
sg22
S'12/13'
p118
sg24
S'--'
p119
sg26
S'--'
p120
sg28
S'--'
p121
sg30
S'L3-10'
p122
sg32
S'--'
p123
sg34
S'--'
p124
sg36
S'@KC'
p125
sg38
S'--'
p126
sg40
S'--'
p127
sg42
S'--'
p128
ssS'17'
p129
(dp130
g5
S'--'
p131
sg7
S'--'
p132
sg9
g10
sg11
S'--'
p133
sg13
g10
sg14
S'David Johnson'
p134
sg16
S'2015'
p135
sg18
S'17'
p136
sg20
S'--'
p137
sg22
S'01/03'
p138
sg24
S'--'
p139
sg26
S'--'
p140
sg28
S'--'
p141
sg30
S'L20-27'
p142
sg32
S'--'
p143
sg34
S'--'
p144
sg36
S'@DEN'
p145
sg38
S'--'
p146
sg40
S'--'
p147
sg42
S'--'
p148
ssS'16'
p149
(dp150
g5
S'--'
p151
sg7
S'--'
p152
sg9
g53
sg11
g10
sg13
g10
sg14
S'David Johnson'
p153
sg16
S'2015'
p154
sg18
S'16'
p155
sg20
S'--'
p156
sg22
S'12/24'
p157
sg24
S'4.0'
p158
sg26
g10
sg28
S'--'
p159
sg30
S'L20-23'
p160
sg32
S'4'
p161
sg34
g10
sg36
S'@OAK'
p162
sg38
g161
sg40
g53
sg42
S'--'
p163
ssg10
(dp164
g5
S'--'
p165
sg7
S'--'
p166
sg9
g53
sg11
S'--'
p167
sg13
g10
sg14
S'David Johnson'
p168
sg16
S'2015'
p169
sg18
g10
sg20
S'--'
p170
sg22
S'09/13'
p171
sg24
S'--'
p172
sg26
S'--'
p173
sg28
S'--'
p174
sg30
S'W33-28'
p175
sg32
S'--'
p176
sg34
S'--'
p177
sg36
S'DET'
p178
sg38
S'--'
p179
sg40
S'--'
p180
sg42
S'--'
p181
ssS'3'
p182
(dp183
g5
g53
sg7
g54
sg9
g10
sg11
S'--'
p184
sg13
g10
sg14
S'David Johnson'
p185
sg16
S'2015'
p186
sg18
g182
sg20
S'2.0'
p187
sg22
S'09/27'
p188
sg24
S'--'
p189
sg26
S'--'
p190
sg28
g10
sg30
S'L14-31'
p191
sg32
S'--'
p192
sg34
S'--'
p193
sg36
S'@MIN'
p194
sg38
S'--'
p195
sg40
S'--'
p196
sg42
g54
ssg54
(dp197
g5
S'--'
p198
sg7
S'--'
p199
sg9
g53
sg11
S'--'
p200
sg13
g10
sg14
S'David Johnson'
p201
sg16
S'2015'
p202
sg18
g54
sg20
S'--'
p203
sg22
S'09/20'
p204
sg24
S'--'
p205
sg26
S'--'
p206
sg28
S'--'
p207
sg30
S'L19-24'
p208
sg32
S'--'
p209
sg34
S'--'
p210
sg36
S'@CIN'
p211
sg38
S'--'
p212
sg40
S'--'
p213
sg42
S'--'
p214
ssS'5'
p215
(dp216
g5
S'--'
p217
sg7
S'--'
p218
sg9
g53
sg11
S'--'
p219
sg13
g10
sg14
S'David Johnson'
p220
sg16
S'2015'
p221
sg18
g215
sg20
S'--'
p222
sg22
S'10/12'
p223
sg24
S'--'
p224
sg26
S'--'
p225
sg28
S'--'
p226
sg30
S'L20-24'
p227
sg32
S'--'
p228
sg34
S'--'
p229
sg36
S'PIT'
p230
sg38
S'--'
p231
sg40
S'--'
p232
sg42
S'--'
p233
ssg161
(dp234
g5
S'--'
p235
sg7
S'--'
p236
sg9
g53
sg11
S'--'
p237
sg13
g10
sg14
S'David Johnson'
p238
sg16
S'2015'
p239
sg18
g161
sg20
S'--'
p240
sg22
S'10/04'
p241
sg24
S'--'
p242
sg26
S'--'
p243
sg28
S'--'
p244
sg30
S'W30-27'
p245
sg32
g53
sg34
g53
sg36
S'CLE'
p246
sg38
S'--'
p247
sg40
g53
sg42
S'--'
p248
ssS'7'
p249
(dp250
g5
S'--'
p251
sg7
S'--'
p252
sg9
g53
sg11
S'--'
p253
sg13
g10
sg14
S'David Johnson'
p254
sg16
S'2015'
p255
sg18
g249
sg20
S'--'
p256
sg22
S'10/25'
p257
sg24
S'--'
p258
sg26
S'--'
p259
sg28
S'--'
p260
sg30
S'L29-37'
p261
sg32
g53
sg34
g53
sg36
S'OAK'
p262
sg38
S'--'
p263
sg40
g53
sg42
S'--'
p264
ssS'6'
p265
(dp266
g5
S'--'
p267
sg7
S'--'
p268
sg9
g53
sg11
S'--'
p269
sg13
g10
sg14
S'David Johnson'
p270
sg16
S'2015'
p271
sg18
g265
sg20
S'--'
p272
sg22
S'10/18'
p273
sg24
S'--'
p274
sg26
S'--'
p275
sg28
S'--'
p276
sg30
S'L20-27'
p277
sg32
S'--'
p278
sg34
S'--'
p279
sg36
S'@GB'
p280
sg38
S'--'
p281
sg40
S'--'
p282
sg42
S'--'
p283
ssS'9'
p284
(dp285
g5
S'--'
p286
sg7
S'--'
p287
sg9
g53
sg11
S'--'
p288
sg13
g10
sg14
S'David Johnson'
p289
sg16
S'2015'
p290
sg18
g284
sg20
S'--'
p291
sg22
S'11/09'
p292
sg24
S'--'
p293
sg26
S'--'
p294
sg28
S'--'
p295
sg30
S'L19-22'
p296
sg32
S'--'
p297
sg34
S'--'
p298
sg36
S'CHI'
p299
sg38
S'--'
p300
sg40
S'--'
p301
sg42
S'--'
p302
ssS'8'
p303
(dp304
g5
S'--'
p305
sg7
S'--'
p306
sg9
g53
sg11
S'--'
p307
sg13
g10
sg14
S'David Johnson'
p308
sg16
S'2015'
p309
sg18
g303
sg20
S'--'
p310
sg22
S'11/01'
p311
sg24
S'--'
p312
sg26
S'--'
p313
sg28
S'--'
p314
sg30
S'L26-29'
p315
sg32
S'--'
p316
sg34
S'--'
p317
sg36
S'@BAL'
p318
sg38
S'--'
p319
sg40
S'--'
p320
sg42
S'--'
p321
sssS'2014'
p322
(dp323
g3
(dp324
g5
S'--'
p325
sg7
S'--'
p326
sg9
g53
sg11
S'--'
p327
sg13
g10
sg14
S'David Johnson'
p328
sg16
S'2014'
p329
sg18
S'11'
p330
sg20
S'--'
p331
sg22
S'11/16'
p332
sg24
S'4.0'
p333
sg26
S'--'
p334
sg28
S'--'
p335
sg30
S'W13-6'
p336
sg32
g161
sg34
g10
sg36
S'OAK'
p337
sg38
g161
sg40
g53
sg42
S'--'
p338
ssg44
(dp339
g5
g46
sg7
g46
sg9
g46
sg11
g46
sg13
g46
sg14
S'David Johnson'
p340
sg16
S'2014'
p341
sg18
S'10'
p342
sg20
g46
sg22
S'Bye'
p343
sg24
g46
sg26
g46
sg28
g46
sg30
g46
sg32
g46
sg34
g46
sg36
g46
sg38
g46
sg40
g46
sg42
g46
ssg51
(dp344
g5
S'--'
p345
sg7
S'--'
p346
sg9
g53
sg11
S'--'
p347
sg13
g10
sg14
S'David Johnson'
p348
sg16
S'2014'
p349
sg18
S'13'
p350
sg20
S'--'
p351
sg22
S'11/30'
p352
sg24
S'--'
p353
sg26
S'--'
p354
sg28
S'--'
p355
sg30
S'W34-33'
p356
sg32
S'--'
p357
sg34
S'--'
p358
sg36
S'@BAL'
p359
sg38
S'--'
p360
sg40
S'--'
p361
sg42
S'--'
p362
ssg69
(dp363
g5
S'--'
p364
sg7
S'--'
p365
sg9
g53
sg11
S'--'
p366
sg13
g10
sg14
S'David Johnson'
p367
sg16
S'2014'
p368
sg18
S'12'
p369
sg20
S'--'
p370
sg22
S'11/23'
p371
sg24
S'--'
p372
sg26
S'--'
p373
sg28
S'--'
p374
sg30
S'W27-24'
p375
sg32
S'--'
p376
sg34
S'--'
p377
sg36
S'STL'
p378
sg38
S'--'
p379
sg40
S'--'
p380
sg42
S'--'
p381
ssg89
(dp382
g5
S'--'
p383
sg7
S'--'
p384
sg9
g10
sg11
S'--'
p385
sg13
g10
sg14
S'David Johnson'
p386
sg16
S'2014'
p387
sg18
S'15'
p388
sg20
S'--'
p389
sg22
S'12/14'
p390
sg24
S'--'
p391
sg26
S'--'
p392
sg28
S'--'
p393
sg30
S'L10-22'
p394
sg32
S'--'
p395
sg34
S'--'
p396
sg36
S'DEN'
p397
sg38
S'--'
p398
sg40
S'--'
p399
sg42
S'--'
p400
ssg109
(dp401
g5
S'--'
p402
sg7
S'--'
p403
sg9
g53
sg11
S'--'
p404
sg13
g53
sg14
S'David Johnson'
p405
sg16
S'2014'
p406
sg18
S'14'
p407
sg20
S'--'
p408
sg22
S'12/07'
p409
sg24
S'--'
p410
sg26
S'--'
p411
sg28
S'--'
p412
sg30
S'L14-23'
p413
sg32
S'--'
p414
sg34
S'--'
p415
sg36
S'NE'
p416
sg38
S'--'
p417
sg40
S'--'
p418
sg42
S'--'
p419
ssg129
(dp420
g5
S'--'
p421
sg7
S'--'
p422
sg9
g10
sg11
S'--'
p423
sg13
g10
sg14
S'David Johnson'
p424
sg16
S'2014'
p425
sg18
S'17'
p426
sg20
S'--'
p427
sg22
S'12/28'
p428
sg24
S'--'
p429
sg26
S'--'
p430
sg28
S'--'
p431
sg30
S'L7-19'
p432
sg32
S'--'
p433
sg34
S'--'
p434
sg36
S'@KC'
p435
sg38
S'--'
p436
sg40
S'--'
p437
sg42
S'--'
p438
ssg149
(dp439
g5
S'--'
p440
sg7
S'--'
p441
sg9
g53
sg11
S'--'
p442
sg13
g10
sg14
S'David Johnson'
p443
sg16
S'2014'
p444
sg18
S'16'
p445
sg20
S'--'
p446
sg22
S'12/20'
p447
sg24
S'--'
p448
sg26
S'--'
p449
sg28
S'--'
p450
sg30
S'W38-35'
p451
sg32
S'--'
p452
sg34
S'--'
p453
sg36
S'@SF'
p454
sg38
S'--'
p455
sg40
S'--'
p456
sg42
S'--'
p457
ssg10
(dp458
g5
S'--'
p459
sg7
S'--'
p460
sg9
g53
sg11
S'--'
p461
sg13
g10
sg14
S'David Johnson'
p462
sg16
S'2014'
p463
sg18
g10
sg20
S'--'
p464
sg22
S'09/08'
p465
sg24
S'--'
p466
sg26
S'--'
p467
sg28
S'--'
p468
sg30
S'L17-18'
p469
sg32
S'--'
p470
sg34
S'--'
p471
sg36
S'@ARI'
p472
sg38
S'--'
p473
sg40
S'--'
p474
sg42
S'--'
p475
ssg182
(dp476
g5
S'--'
p477
sg7
S'--'
p478
sg9
g53
sg11
S'--'
p479
sg13
g10
sg14
S'David Johnson'
p480
sg16
S'2014'
p481
sg18
g182
sg20
S'--'
p482
sg22
S'09/21'
p483
sg24
S'--'
p484
sg26
S'--'
p485
sg28
S'--'
p486
sg30
S'W22-10'
p487
sg32
S'--'
p488
sg34
S'--'
p489
sg36
S'@BUF'
p490
sg38
S'--'
p491
sg40
S'--'
p492
sg42
S'--'
p493
ssg54
(dp494
g5
S'--'
p495
sg7
S'--'
p496
sg9
g53
sg11
S'--'
p497
sg13
g10
sg14
S'David Johnson'
p498
sg16
S'2014'
p499
sg18
g54
sg20
S'--'
p500
sg22
S'09/14'
p501
sg24
S'--'
p502
sg26
S'--'
p503
sg28
S'--'
p504
sg30
S'W30-21'
p505
sg32
S'--'
p506
sg34
S'--'
p507
sg36
S'SEA'
p508
sg38
S'--'
p509
sg40
S'--'
p510
sg42
S'--'
p511
ssg215
(dp512
g5
S'--'
p513
sg7
S'--'
p514
sg9
g53
sg11
S'--'
p515
sg13
g10
sg14
S'David Johnson'
p516
sg16
S'2014'
p517
sg18
g215
sg20
S'--'
p518
sg22
S'10/05'
p519
sg24
S'--'
p520
sg26
S'--'
p521
sg28
S'--'
p522
sg30
S'W31-0'
p523
sg32
S'--'
p524
sg34
S'--'
p525
sg36
S'NYJ'
p526
sg38
S'--'
p527
sg40
S'--'
p528
sg42
S'--'
p529
ssg161
(dp530
g5
S'--'
p531
sg7
S'--'
p532
sg9
g53
sg11
S'--'
p533
sg13
g53
sg14
S'David Johnson'
p534
sg16
S'2014'
p535
sg18
g161
sg20
S'--'
p536
sg22
S'09/28'
p537
sg24
S'--'
p538
sg26
S'--'
p539
sg28
S'--'
p540
sg30
S'W33-14'
p541
sg32
S'--'
p542
sg34
S'--'
p543
sg36
S'JAC'
p544
sg38
S'--'
p545
sg40
S'--'
p546
sg42
S'--'
p547
ssg249
(dp548
g5
S'--'
p549
sg7
S'--'
p550
sg9
g53
sg11
S'--'
p551
sg13
g10
sg14
S'David Johnson'
p552
sg16
S'2014'
p553
sg18
g249
sg20
S'--'
p554
sg22
S'10/19'
p555
sg24
S'--'
p556
sg26
S'--'
p557
sg28
S'--'
p558
sg30
S'L20-23'
p559
sg32
S'--'
p560
sg34
S'--'
p561
sg36
S'KC'
p562
sg38
S'--'
p563
sg40
S'--'
p564
sg42
S'--'
p565
ssg265
(dp566
g5
S'--'
p567
sg7
S'--'
p568
sg9
g53
sg11
S'--'
p569
sg13
g10
sg14
S'David Johnson'
p570
sg16
S'2014'
p571
sg18
g265
sg20
S'--'
p572
sg22
S'10/12'
p573
sg24
S'--'
p574
sg26
S'--'
p575
sg28
S'--'
p576
sg30
S'W31-28'
p577
sg32
S'--'
p578
sg34
S'--'
p579
sg36
S'@OAK'
p580
sg38
S'--'
p581
sg40
S'--'
p582
sg42
S'--'
p583
ssg284
(dp584
g5
S'--'
p585
sg7
S'--'
p586
sg9
g53
sg11
S'--'
p587
sg13
g10
sg14
S'David Johnson'
p588
sg16
S'2014'
p589
sg18
g284
sg20
S'--'
p590
sg22
S'11/02'
p591
sg24
S'--'
p592
sg26
S'--'
p593
sg28
S'--'
p594
sg30
S'L0-37'
p595
sg32
S'--'
p596
sg34
S'--'
p597
sg36
S'@MIA'
p598
sg38
S'--'
p599
sg40
S'--'
p600
sg42
S'--'
p601
ssg303
(dp602
g5
S'--'
p603
sg7
S'--'
p604
sg9
g53
sg11
S'--'
p605
sg13
g10
sg14
S'David Johnson'
p606
sg16
S'2014'
p607
sg18
g303
sg20
S'--'
p608
sg22
S'10/23'
p609
sg24
S'--'
p610
sg26
S'--'
p611
sg28
S'--'
p612
sg30
S'L21-35'
p613
sg32
S'--'
p614
sg34
S'--'
p615
sg36
S'@DEN'
p616
sg38
S'--'
p617
sg40
S'--'
p618
sg42
S'--'
p619
sssS'2011'
p620
(dp621
g3
(dp622
g5
g46
sg7
g46
sg9
g46
sg11
g46
sg13
g46
sg14
S'David Johnson'
p623
sg16
S'2011'
p624
sg18
S'11'
p625
sg20
g46
sg22
S'Bye'
p626
sg24
g46
sg26
g46
sg28
g46
sg30
g46
sg32
g46
sg34
g46
sg36
g46
sg38
g46
sg40
g46
sg42
g46
ssg44
(dp627
g5
S'--'
p628
sg7
S'--'
p629
sg9
g10
sg11
S'--'
p630
sg13
g10
sg14
S'David Johnson'
p631
sg16
S'2011'
p632
sg18
S'10'
p633
sg20
S'--'
p634
sg22
S'11/13'
p635
sg24
S'6.0'
p636
sg26
S'--'
p637
sg28
S'--'
p638
sg30
S'W24-17'
p639
sg32
g265
sg34
g10
sg36
S'@CIN'
p640
sg38
g265
sg40
g53
sg42
S'--'
p641
ssg51
(dp642
g5
S'--'
p643
sg7
S'--'
p644
sg9
g10
sg11
S'--'
p645
sg13
g10
sg14
S'David Johnson'
p646
sg16
S'2011'
p647
sg18
S'13'
p648
sg20
S'--'
p649
sg22
S'12/04'
p650
sg24
S'9.0'
p651
sg26
S'--'
p652
sg28
S'--'
p653
sg30
S'W35-7'
p654
sg32
g284
sg34
g10
sg36
S'CIN'
p655
sg38
g284
sg40
g53
sg42
S'--'
p656
ssg69
(dp657
g5
S'--'
p658
sg7
S'--'
p659
sg9
g10
sg11
S'--'
p660
sg13
g10
sg14
S'David Johnson'
p661
sg16
S'2011'
p662
sg18
S'12'
p663
sg20
S'--'
p664
sg22
S'11/27'
p665
sg24
S'--'
p666
sg26
S'--'
p667
sg28
S'--'
p668
sg30
S'W13-9'
p669
sg32
S'--'
p670
sg34
S'--'
p671
sg36
S'@KC'
p672
sg38
S'--'
p673
sg40
S'--'
p674
sg42
S'--'
p675
ssg89
(dp676
g5
S'--'
p677
sg7
S'--'
p678
sg9
g10
sg11
S'--'
p679
sg13
g10
sg14
S'David Johnson'
p680
sg16
S'2011'
p681
sg18
S'15'
p682
sg20
S'--'
p683
sg22
S'12/19'
p684
sg24
S'--'
p685
sg26
S'--'
p686
sg28
S'--'
p687
sg30
S'L3-20'
p688
sg32
S'--'
p689
sg34
S'--'
p690
sg36
S'@SF'
p691
sg38
S'--'
p692
sg40
S'--'
p693
sg42
S'--'
p694
ssg109
(dp695
g5
S'--'
p696
sg7
S'--'
p697
sg9
g10
sg11
S'--'
p698
sg13
g10
sg14
S'David Johnson'
p699
sg16
S'2011'
p700
sg18
S'14'
p701
sg20
S'--'
p702
sg22
S'12/08'
p703
sg24
S'11.0'
p704
sg26
S'--'
p705
sg28
S'--'
p706
sg30
S'W14-3'
p707
sg32
S'22'
p708
sg34
g54
sg36
S'CLE'
p709
sg38
S'16'
p710
sg40
g53
sg42
S'--'
p711
ssg129
(dp712
g5
S'--'
p713
sg7
S'--'
p714
sg9
g10
sg11
S'--'
p715
sg13
g10
sg14
S'David Johnson'
p716
sg16
S'2011'
p717
sg18
S'17'
p718
sg20
S'--'
p719
sg22
S'01/01'
p720
sg24
S'6.0'
p721
sg26
S'--'
p722
sg28
S'--'
p723
sg30
S'W13-9'
p724
sg32
g265
sg34
g10
sg36
S'@CLE'
p725
sg38
g265
sg40
g53
sg42
S'--'
p726
ssg149
(dp727
g5
S'--'
p728
sg7
S'--'
p729
sg9
g10
sg11
S'--'
p730
sg13
g10
sg14
S'David Johnson'
p731
sg16
S'2011'
p732
sg18
S'16'
p733
sg20
S'--'
p734
sg22
S'12/24'
p735
sg24
S'2.0'
p736
sg26
S'--'
p737
sg28
S'--'
p738
sg30
S'W27-0'
p739
sg32
g54
sg34
g10
sg36
S'STL'
p740
sg38
g54
sg40
g53
sg42
S'--'
p741
ssg10
(dp742
g5
S'--'
p743
sg7
S'--'
p744
sg9
g10
sg11
S'--'
p745
sg13
g10
sg14
S'David Johnson'
p746
sg16
S'2011'
p747
sg18
g10
sg20
S'--'
p748
sg22
S'09/11'
p749
sg24
S'--'
p750
sg26
S'--'
p751
sg28
S'--'
p752
sg30
S'L7-35'
p753
sg32
S'--'
p754
sg34
S'--'
p755
sg36
S'@BAL'
p756
sg38
S'--'
p757
sg40
S'--'
p758
sg42
S'--'
p759
ssg182
(dp760
g5
S'--'
p761
sg7
S'--'
p762
sg9
g10
sg11
S'--'
p763
sg13
g10
sg14
S'David Johnson'
p764
sg16
S'2011'
p765
sg18
g182
sg20
S'--'
p766
sg22
S'09/25'
p767
sg24
S'3.0'
p768
sg26
S'--'
p769
sg28
S'--'
p770
sg30
S'W23-20'
p771
sg32
g182
sg34
g10
sg36
S'@IND'
p772
sg38
g182
sg40
g53
sg42
S'--'
p773
ssg54
(dp774
g5
S'--'
p775
sg7
S'--'
p776
sg9
g10
sg11
S'--'
p777
sg13
g10
sg14
S'David Johnson'
p778
sg16
S'2011'
p779
sg18
g54
sg20
S'--'
p780
sg22
S'09/18'
p781
sg24
S'--'
p782
sg26
S'--'
p783
sg28
S'--'
p784
sg30
S'W24-0'
p785
sg32
S'--'
p786
sg34
S'--'
p787
sg36
S'SEA'
p788
sg38
S'--'
p789
sg40
S'--'
p790
sg42
S'--'
p791
ssg215
(dp792
g5
S'--'
p793
sg7
S'--'
p794
sg9
g10
sg11
S'--'
p795
sg13
g10
sg14
S'David Johnson'
p796
sg16
S'2011'
p797
sg18
g215
sg20
S'--'
p798
sg22
S'10/09'
p799
sg24
S'2.5'
p800
sg26
S'--'
p801
sg28
S'--'
p802
sg30
S'W38-17'
p803
sg32
g215
sg34
g54
sg36
S'TEN'
p804
sg38
g161
sg40
g10
sg42
S'--'
p805
ssg161
(dp806
g5
S'--'
p807
sg7
S'--'
p808
sg9
g10
sg11
S'--'
p809
sg13
g10
sg14
S'David Johnson'
p810
sg16
S'2011'
p811
sg18
g161
sg20
S'--'
p812
sg22
S'10/02'
p813
sg24
S'6.0'
p814
sg26
S'--'
p815
sg28
S'--'
p816
sg30
S'L10-17'
p817
sg32
g265
sg34
g10
sg36
S'@HOU'
p818
sg38
g265
sg40
g53
sg42
S'--'
p819
ssg249
(dp820
g5
S'--'
p821
sg7
S'--'
p822
sg9
g10
sg11
S'--'
p823
sg13
g10
sg14
S'David Johnson'
p824
sg16
S'2011'
p825
sg18
g249
sg20
S'--'
p826
sg22
S'10/23'
p827
sg24
S'--'
p828
sg26
S'--'
p829
sg28
S'--'
p830
sg30
S'W32-20'
p831
sg32
S'--'
p832
sg34
S'--'
p833
sg36
S'@ARI'
p834
sg38
S'--'
p835
sg40
S'--'
p836
sg42
S'--'
p837
ssg265
(dp838
g5
S'--'
p839
sg7
S'--'
p840
sg9
g10
sg11
S'--'
p841
sg13
g10
sg14
S'David Johnson'
p842
sg16
S'2011'
p843
sg18
g265
sg20
S'--'
p844
sg22
S'10/16'
p845
sg24
S'--'
p846
sg26
S'--'
p847
sg28
S'--'
p848
sg30
S'W17-13'
p849
sg32
S'--'
p850
sg34
S'--'
p851
sg36
S'JAC'
p852
sg38
S'--'
p853
sg40
S'--'
p854
sg42
S'--'
p855
ssg284
(dp856
g5
S'--'
p857
sg7
S'--'
p858
sg9
g10
sg11
S'--'
p859
sg13
g10
sg14
S'David Johnson'
p860
sg16
S'2011'
p861
sg18
g284
sg20
S'--'
p862
sg22
S'11/06'
p863
sg24
S'25.0'
p864
sg26
S'--'
p865
sg28
S'--'
p866
sg30
S'L20-23'
p867
sg32
S'25'
p868
sg34
g10
sg36
S'BAL'
p869
sg38
S'25'
p870
sg40
g53
sg42
S'--'
p871
ssg303
(dp872
g5
S'--'
p873
sg7
S'--'
p874
sg9
g10
sg11
S'--'
p875
sg13
g10
sg14
S'David Johnson'
p876
sg16
S'2011'
p877
sg18
g303
sg20
S'--'
p878
sg22
S'10/30'
p879
sg24
S'7.0'
p880
sg26
S'--'
p881
sg28
S'--'
p882
sg30
S'W25-17'
p883
sg32
g249
sg34
g10
sg36
S'NE'
p884
sg38
g249
sg40
g53
sg42
S'--'
p885
sssS'2010'
p886
(dp887
g3
(dp888
g5
S'--'
p889
sg7
S'--'
p890
sg9
g53
sg11
S'--'
p891
sg13
g10
sg14
S'David Johnson'
p892
sg16
S'2010'
p893
sg18
S'11'
p894
sg20
S'--'
p895
sg22
S'11/21'
p896
sg24
S'--'
p897
sg26
S'--'
p898
sg28
S'--'
p899
sg30
S'W35-3'
p900
sg32
S'--'
p901
sg34
S'--'
p902
sg36
S'OAK'
p903
sg38
S'--'
p904
sg40
S'--'
p905
sg42
S'--'
p906
ssg44
(dp907
g5
S'--'
p908
sg7
S'--'
p909
sg9
g53
sg11
S'--'
p910
sg13
g10
sg14
S'David Johnson'
p911
sg16
S'2010'
p912
sg18
S'10'
p913
sg20
S'--'
p914
sg22
S'11/14'
p915
sg24
S'--'
p916
sg26
S'--'
p917
sg28
S'--'
p918
sg30
S'L26-39'
p919
sg32
S'--'
p920
sg34
S'--'
p921
sg36
S'NE'
p922
sg38
S'--'
p923
sg40
S'--'
p924
sg42
S'--'
p925
ssg51
(dp926
g5
S'--'
p927
sg7
S'--'
p928
sg9
g10
sg11
S'--'
p929
sg13
g10
sg14
S'David Johnson'
p930
sg16
S'2010'
p931
sg18
S'13'
p932
sg20
S'--'
p933
sg22
S'12/05'
p934
sg24
S'12.3'
p935
sg26
S'--'
p936
sg28
S'--'
p937
sg30
S'W13-10'
p938
sg32
S'37'
p939
sg34
g182
sg36
S'@BAL'
p940
sg38
S'25'
p941
sg40
g53
sg42
S'--'
p942
ssg69
(dp943
g5
S'--'
p944
sg7
S'--'
p945
sg9
g10
sg11
S'--'
p946
sg13
g10
sg14
S'David Johnson'
p947
sg16
S'2010'
p948
sg18
S'12'
p949
sg20
S'--'
p950
sg22
S'11/28'
p951
sg24
S'--'
p952
sg26
S'--'
p953
sg28
S'--'
p954
sg30
S'W19-16'
p955
sg32
S'--'
p956
sg34
S'--'
p957
sg36
S'@BUF'
p958
sg38
S'--'
p959
sg40
S'--'
p960
sg42
S'--'
p961
ssg89
(dp962
g5
S'--'
p963
sg7
S'--'
p964
sg9
g10
sg11
S'--'
p965
sg13
g10
sg14
S'David Johnson'
p966
sg16
S'2010'
p967
sg18
S'15'
p968
sg20
S'--'
p969
sg22
S'12/19'
p970
sg24
S'--'
p971
sg26
S'--'
p972
sg28
S'--'
p973
sg30
S'L17-22'
p974
sg32
g53
sg34
g53
sg36
S'NYJ'
p975
sg38
S'--'
p976
sg40
g53
sg42
S'--'
p977
ssg109
(dp978
g5
S'--'
p979
sg7
S'--'
p980
sg9
g10
sg11
S'--'
p981
sg13
g10
sg14
S'David Johnson'
p982
sg16
S'2010'
p983
sg18
S'14'
p984
sg20
S'--'
p985
sg22
S'12/12'
p986
sg24
S'--'
p987
sg26
S'--'
p988
sg28
S'--'
p989
sg30
S'W23-7'
p990
sg32
S'--'
p991
sg34
S'--'
p992
sg36
S'CIN'
p993
sg38
S'--'
p994
sg40
S'--'
p995
sg42
S'--'
p996
ssg129
(dp997
g5
S'--'
p998
sg7
S'--'
p999
sg9
g53
sg11
S'--'
p1000
sg13
g10
sg14
S'David Johnson'
p1001
sg16
S'2010'
p1002
sg18
S'17'
p1003
sg20
S'--'
p1004
sg22
S'01/02'
p1005
sg24
S'--'
p1006
sg26
S'--'
p1007
sg28
S'--'
p1008
sg30
S'W41-9'
p1009
sg32
S'--'
p1010
sg34
S'--'
p1011
sg36
S'@CLE'
p1012
sg38
S'--'
p1013
sg40
S'--'
p1014
sg42
S'--'
p1015
ssg149
(dp1016
g5
S'--'
p1017
sg7
S'--'
p1018
sg9
g10
sg11
S'--'
p1019
sg13
g10
sg14
S'David Johnson'
p1020
sg16
S'2010'
p1021
sg18
S'16'
p1022
sg20
S'--'
p1023
sg22
S'12/23'
p1024
sg24
S'--'
p1025
sg26
S'--'
p1026
sg28
S'--'
p1027
sg30
S'W27-3'
p1028
sg32
S'--'
p1029
sg34
S'--'
p1030
sg36
S'CAR'
p1031
sg38
S'--'
p1032
sg40
S'--'
p1033
sg42
S'--'
p1034
ssg10
(dp1035
g5
S'--'
p1036
sg7
S'--'
p1037
sg9
g53
sg11
S'--'
p1038
sg13
g10
sg14
S'David Johnson'
p1039
sg16
S'2010'
p1040
sg18
g10
sg20
S'--'
p1041
sg22
S'09/12'
p1042
sg24
S'--'
p1043
sg26
S'--'
p1044
sg28
S'--'
p1045
sg30
S'W15-9'
p1046
sg32
S'--'
p1047
sg34
S'--'
p1048
sg36
S'ATL'
p1049
sg38
S'--'
p1050
sg40
S'--'
p1051
sg42
S'--'
p1052
ssg182
(dp1053
g5
S'--'
p1054
sg7
S'--'
p1055
sg9
g53
sg11
S'--'
p1056
sg13
g10
sg14
S'David Johnson'
p1057
sg16
S'2010'
p1058
sg18
g182
sg20
S'--'
p1059
sg22
S'09/26'
p1060
sg24
S'--'
p1061
sg26
S'--'
p1062
sg28
S'--'
p1063
sg30
S'W38-13'
p1064
sg32
g53
sg34
g53
sg36
S'@TB'
p1065
sg38
S'--'
p1066
sg40
g53
sg42
S'--'
p1067
ssg54
(dp1068
g5
S'--'
p1069
sg7
S'--'
p1070
sg9
g53
sg11
S'--'
p1071
sg13
g10
sg14
S'David Johnson'
p1072
sg16
S'2010'
p1073
sg18
g54
sg20
S'--'
p1074
sg22
S'09/19'
p1075
sg24
S'--'
p1076
sg26
S'--'
p1077
sg28
S'--'
p1078
sg30
S'W19-11'
p1079
sg32
S'--'
p1080
sg34
S'--'
p1081
sg36
S'@TEN'
p1082
sg38
S'--'
p1083
sg40
S'--'
p1084
sg42
S'--'
p1085
ssg215
(dp1086
g5
g46
sg7
g46
sg9
g46
sg11
g46
sg13
g46
sg14
S'David Johnson'
p1087
sg16
S'2010'
p1088
sg18
g215
sg20
g46
sg22
S'Bye'
p1089
sg24
g46
sg26
g46
sg28
g46
sg30
g46
sg32
g46
sg34
g46
sg36
g46
sg38
g46
sg40
g46
sg42
g46
ssg161
(dp1090
g5
S'--'
p1091
sg7
S'--'
p1092
sg9
g53
sg11
S'--'
p1093
sg13
g10
sg14
S'David Johnson'
p1094
sg16
S'2010'
p1095
sg18
g161
sg20
S'--'
p1096
sg22
S'10/03'
p1097
sg24
S'--'
p1098
sg26
S'--'
p1099
sg28
S'--'
p1100
sg30
S'L14-17'
p1101
sg32
S'--'
p1102
sg34
S'--'
p1103
sg36
S'BAL'
p1104
sg38
S'--'
p1105
sg40
S'--'
p1106
sg42
S'--'
p1107
ssg249
(dp1108
g5
S'--'
p1109
sg7
S'--'
p1110
sg9
g53
sg11
S'--'
p1111
sg13
g10
sg14
S'David Johnson'
p1112
sg16
S'2010'
p1113
sg18
g249
sg20
S'--'
p1114
sg22
S'10/24'
p1115
sg24
S'--'
p1116
sg26
S'--'
p1117
sg28
S'--'
p1118
sg30
S'W23-22'
p1119
sg32
S'--'
p1120
sg34
S'--'
p1121
sg36
S'@MIA'
p1122
sg38
S'--'
p1123
sg40
S'--'
p1124
sg42
S'--'
p1125
ssg265
(dp1126
g5
S'--'
p1127
sg7
S'--'
p1128
sg9
g53
sg11
S'--'
p1129
sg13
g10
sg14
S'David Johnson'
p1130
sg16
S'2010'
p1131
sg18
g265
sg20
S'--'
p1132
sg22
S'10/17'
p1133
sg24
S'--'
p1134
sg26
S'--'
p1135
sg28
S'--'
p1136
sg30
S'W28-10'
p1137
sg32
S'--'
p1138
sg34
S'--'
p1139
sg36
S'CLE'
p1140
sg38
S'--'
p1141
sg40
S'--'
p1142
sg42
S'--'
p1143
ssg284
(dp1144
g5
S'--'
p1145
sg7
S'--'
p1146
sg9
g53
sg11
S'--'
p1147
sg13
g10
sg14
S'David Johnson'
p1148
sg16
S'2010'
p1149
sg18
g284
sg20
S'--'
p1150
sg22
S'11/08'
p1151
sg24
S'--'
p1152
sg26
S'--'
p1153
sg28
S'--'
p1154
sg30
S'W27-21'
p1155
sg32
S'--'
p1156
sg34
S'--'
p1157
sg36
S'@CIN'
p1158
sg38
S'--'
p1159
sg40
S'--'
p1160
sg42
S'--'
p1161
ssg303
(dp1162
g5
S'--'
p1163
sg7
S'--'
p1164
sg9
g53
sg11
S'--'
p1165
sg13
g10
sg14
S'David Johnson'
p1166
sg16
S'2010'
p1167
sg18
g303
sg20
S'--'
p1168
sg22
S'10/31'
p1169
sg24
S'9.0'
p1170
sg26
S'--'
p1171
sg28
S'--'
p1172
sg30
S'L10-20'
p1173
sg32
g284
sg34
g10
sg36
S'@NO'
p1174
sg38
g284
sg40
g53
sg42
S'--'
p1175
sssS'2013'
p1176
(dp1177
g10
(dp1178
g5
S'--'
p1179
sg7
S'--'
p1180
sg9
g53
sg11
S'--'
p1181
sg13
g10
sg14
S'David Johnson'
p1182
sg16
S'2013'
p1183
sg18
g10
sg20
S'--'
p1184
sg22
S'09/08'
p1185
sg24
S'11.0'
p1186
sg26
S'--'
p1187
sg28
S'--'
p1188
sg30
S'L9-16'
p1189
sg32
S'11'
p1190
sg34
g10
sg36
S'TEN'
p1191
sg38
S'11'
p1192
sg40
g53
sg42
S'--'
p1193
ssg182
(dp1194
g5
S'--'
p1195
sg7
S'--'
p1196
sg9
g53
sg11
S'--'
p1197
sg13
g10
sg14
S'David Johnson'
p1198
sg16
S'2013'
p1199
sg18
g182
sg20
S'--'
p1200
sg22
S'09/22'
p1201
sg24
S'25.5'
p1202
sg26
S'--'
p1203
sg28
S'--'
p1204
sg30
S'L23-40'
p1205
sg32
S'51'
p1206
sg34
g54
sg36
S'CHI'
p1207
sg38
S'32'
p1208
sg40
g53
sg42
S'--'
p1209
ssg54
(dp1210
g5
S'--'
p1211
sg7
S'--'
p1212
sg9
g53
sg11
S'--'
p1213
sg13
g10
sg14
S'David Johnson'
p1214
sg16
S'2013'
p1215
sg18
g54
sg20
S'--'
p1216
sg22
S'09/16'
p1217
sg24
S'--'
p1218
sg26
S'--'
p1219
sg28
S'--'
p1220
sg30
S'L10-20'
p1221
sg32
g53
sg34
g53
sg36
S'@CIN'
p1222
sg38
S'--'
p1223
sg40
g53
sg42
S'--'
p1224
ssg215
(dp1225
g5
g46
sg7
g46
sg9
g46
sg11
g46
sg13
g46
sg14
S'David Johnson'
p1226
sg16
S'2013'
p1227
sg18
g215
sg20
g46
sg22
S'Bye'
p1228
sg24
g46
sg26
g46
sg28
g46
sg30
g46
sg32
g46
sg34
g46
sg36
g46
sg38
g46
sg40
g46
sg42
g46
ssg161
(dp1229
g5
S'--'
p1230
sg7
S'--'
p1231
sg9
g10
sg11
S'--'
p1232
sg13
g10
sg14
S'David Johnson'
p1233
sg16
S'2013'
p1234
sg18
g161
sg20
S'--'
p1235
sg22
S'09/29'
p1236
sg24
S'8.0'
p1237
sg26
S'--'
p1238
sg28
S'--'
p1239
sg30
S'L27-34'
p1240
sg32
g303
sg34
g10
sg36
S'@MIN'
p1241
sg38
g303
sg40
g53
sg42
S'--'
p1242
ssg265
(dp1243
g5
S'--'
p1244
sg7
S'--'
p1245
sg9
g10
sg11
S'--'
p1246
sg13
g10
sg14
S'David Johnson'
p1247
sg16
S'2013'
p1248
sg18
g265
sg20
S'--'
p1249
sg22
S'10/13'
p1250
sg24
S'--'
p1251
sg26
S'--'
p1252
sg28
S'--'
p1253
sg30
S'W19-6'
p1254
sg32
S'--'
p1255
sg34
S'--'
p1256
sg36
S'@NYJ'
p1257
sg38
S'--'
p1258
sg40
S'--'
p1259
sg42
S'--'
p1260
sss.