(dp0
S'2015'
p1
(dp2
S'11'
p3
(dp4
S'RushTD'
p5
S'--'
p6
sS'RushYds'
p7
S'--'
p8
sS'GS'
p9
S'1'
p10
sS'Lost'
p11
S'--'
p12
sS'G'
p13
g10
sS'Player'
p14
S'Demetrius Harris'
p15
sS'Year'
p16
S'2015'
p17
sS'WK'
p18
S'11'
p19
sS'RushAvg'
p20
S'--'
p21
sS'Game Date'
p22
S'11/22'
p23
sS'RecAvg'
p24
S'13.0'
p25
sS'FUM'
p26
S'--'
p27
sS'RushAtt'
p28
S'--'
p29
sS'Result'
p30
S'W33-3'
p31
sS'RecYds'
p32
S'26'
p33
sS'Rec'
p34
S'2'
p35
sS'Opp'
p36
S'@SD'
p37
sS'RecLng'
p38
S'25'
p39
sS'RecTD'
p40
S'0'
p41
sS'RushLng'
p42
S'--'
p43
ssS'10'
p44
(dp45
g5
S'--'
p46
sg7
S'--'
p47
sg9
g10
sg11
S'--'
p48
sg13
g10
sg14
S'Demetrius Harris'
p49
sg16
S'2015'
p50
sg18
S'10'
p51
sg20
S'--'
p52
sg22
S'11/15'
p53
sg24
S'--'
p54
sg26
S'--'
p55
sg28
S'--'
p56
sg30
S'W29-13'
p57
sg32
S'--'
p58
sg34
S'--'
p59
sg36
S'@DEN'
p60
sg38
S'--'
p61
sg40
S'--'
p62
sg42
S'--'
p63
ssS'13'
p64
(dp65
g5
S'--'
p66
sg7
S'--'
p67
sg9
g10
sg11
S'--'
p68
sg13
g10
sg14
S'Demetrius Harris'
p69
sg16
S'2015'
p70
sg18
S'13'
p71
sg20
S'--'
p72
sg22
S'12/06'
p73
sg24
S'--'
p74
sg26
S'--'
p75
sg28
S'--'
p76
sg30
S'W34-20'
p77
sg32
S'--'
p78
sg34
S'--'
p79
sg36
S'@OAK'
p80
sg38
S'--'
p81
sg40
S'--'
p82
sg42
S'--'
p83
ssS'12'
p84
(dp85
g5
S'--'
p86
sg7
S'--'
p87
sg9
g10
sg11
S'--'
p88
sg13
g10
sg14
S'Demetrius Harris'
p89
sg16
S'2015'
p90
sg18
S'12'
p91
sg20
S'--'
p92
sg22
S'11/29'
p93
sg24
S'--'
p94
sg26
S'--'
p95
sg28
S'--'
p96
sg30
S'W30-22'
p97
sg32
S'--'
p98
sg34
S'--'
p99
sg36
S'BUF'
p100
sg38
S'--'
p101
sg40
S'--'
p102
sg42
S'--'
p103
ssS'15'
p104
(dp105
g5
S'--'
p106
sg7
S'--'
p107
sg9
g41
sg11
S'--'
p108
sg13
g10
sg14
S'Demetrius Harris'
p109
sg16
S'2015'
p110
sg18
S'15'
p111
sg20
S'--'
p112
sg22
S'12/20'
p113
sg24
S'--'
p114
sg26
S'--'
p115
sg28
S'--'
p116
sg30
S'W34-14'
p117
sg32
S'--'
p118
sg34
S'--'
p119
sg36
S'@BAL'
p120
sg38
S'--'
p121
sg40
S'--'
p122
sg42
S'--'
p123
ssS'14'
p124
(dp125
g5
S'--'
p126
sg7
S'--'
p127
sg9
g41
sg11
S'--'
p128
sg13
g10
sg14
S'Demetrius Harris'
p129
sg16
S'2015'
p130
sg18
S'14'
p131
sg20
S'--'
p132
sg22
S'12/13'
p133
sg24
S'9.0'
p134
sg26
S'--'
p135
sg28
S'--'
p136
sg30
S'W10-3'
p137
sg32
S'18'
p138
sg34
g35
sg36
S'SD'
p139
sg38
S'12'
p140
sg40
g41
sg42
S'--'
p141
ssS'17'
p142
(dp143
g5
S'--'
p144
sg7
S'--'
p145
sg9
g41
sg11
S'--'
p146
sg13
g10
sg14
S'Demetrius Harris'
p147
sg16
S'2015'
p148
sg18
S'17'
p149
sg20
S'--'
p150
sg22
S'01/03'
p151
sg24
S'15.0'
p152
sg26
S'--'
p153
sg28
S'--'
p154
sg30
S'W23-17'
p155
sg32
S'15'
p156
sg34
g10
sg36
S'OAK'
p157
sg38
S'15T'
p158
sg40
g10
sg42
S'--'
p159
ssS'16'
p160
(dp161
g5
S'--'
p162
sg7
S'--'
p163
sg9
g41
sg11
S'--'
p164
sg13
g10
sg14
S'Demetrius Harris'
p165
sg16
S'2015'
p166
sg18
S'16'
p167
sg20
S'--'
p168
sg22
S'12/27'
p169
sg24
S'--'
p170
sg26
S'--'
p171
sg28
S'--'
p172
sg30
S'W17-13'
p173
sg32
g41
sg34
g41
sg36
S'CLE'
p174
sg38
S'--'
p175
sg40
g41
sg42
S'--'
p176
ssg10
(dp177
g5
S'--'
p178
sg7
S'--'
p179
sg9
g41
sg11
S'--'
p180
sg13
g10
sg14
S'Demetrius Harris'
p181
sg16
S'2015'
p182
sg18
g10
sg20
S'--'
p183
sg22
S'09/13'
p184
sg24
S'--'
p185
sg26
S'--'
p186
sg28
S'--'
p187
sg30
S'W27-20'
p188
sg32
S'--'
p189
sg34
S'--'
p190
sg36
S'@HOU'
p191
sg38
S'--'
p192
sg40
S'--'
p193
sg42
S'--'
p194
ssS'3'
p195
(dp196
g5
S'--'
p197
sg7
S'--'
p198
sg9
g10
sg11
S'--'
p199
sg13
g10
sg14
S'Demetrius Harris'
p200
sg16
S'2015'
p201
sg18
g195
sg20
S'--'
p202
sg22
S'09/28'
p203
sg24
S'--'
p204
sg26
S'--'
p205
sg28
S'--'
p206
sg30
S'L28-38'
p207
sg32
g41
sg34
g41
sg36
S'@GB'
p208
sg38
S'--'
p209
sg40
g41
sg42
S'--'
p210
ssg35
(dp211
g5
S'--'
p212
sg7
S'--'
p213
sg9
g10
sg11
S'--'
p214
sg13
g10
sg14
S'Demetrius Harris'
p215
sg16
S'2015'
p216
sg18
g35
sg20
S'--'
p217
sg22
S'09/17'
p218
sg24
S'--'
p219
sg26
S'--'
p220
sg28
S'--'
p221
sg30
S'L24-31'
p222
sg32
S'--'
p223
sg34
S'--'
p224
sg36
S'DEN'
p225
sg38
S'--'
p226
sg40
S'--'
p227
sg42
S'--'
p228
ssS'5'
p229
(dp230
g5
S'--'
p231
sg7
S'--'
p232
sg9
g41
sg11
S'--'
p233
sg13
g10
sg14
S'Demetrius Harris'
p234
sg16
S'2015'
p235
sg18
g229
sg20
S'--'
p236
sg22
S'10/11'
p237
sg24
S'--'
p238
sg26
S'--'
p239
sg28
S'--'
p240
sg30
S'L17-18'
p241
sg32
S'--'
p242
sg34
S'--'
p243
sg36
S'CHI'
p244
sg38
S'--'
p245
sg40
S'--'
p246
sg42
S'--'
p247
ssS'4'
p248
(dp249
g5
S'--'
p250
sg7
S'--'
p251
sg9
g10
sg11
S'--'
p252
sg13
g10
sg14
S'Demetrius Harris'
p253
sg16
S'2015'
p254
sg18
g248
sg20
S'--'
p255
sg22
S'10/04'
p256
sg24
S'--'
p257
sg26
S'--'
p258
sg28
S'--'
p259
sg30
S'L21-36'
p260
sg32
S'--'
p261
sg34
S'--'
p262
sg36
S'@CIN'
p263
sg38
S'--'
p264
sg40
S'--'
p265
sg42
S'--'
p266
ssS'7'
p267
(dp268
g5
S'--'
p269
sg7
S'--'
p270
sg9
g41
sg11
S'--'
p271
sg13
g10
sg14
S'Demetrius Harris'
p272
sg16
S'2015'
p273
sg18
g267
sg20
S'--'
p274
sg22
S'10/25'
p275
sg24
S'--'
p276
sg26
S'--'
p277
sg28
S'--'
p278
sg30
S'W23-13'
p279
sg32
S'--'
p280
sg34
S'--'
p281
sg36
S'PIT'
p282
sg38
S'--'
p283
sg40
S'--'
p284
sg42
S'--'
p285
ssS'6'
p286
(dp287
g5
S'--'
p288
sg7
S'--'
p289
sg9
g10
sg11
S'--'
p290
sg13
g10
sg14
S'Demetrius Harris'
p291
sg16
S'2015'
p292
sg18
g286
sg20
S'--'
p293
sg22
S'10/18'
p294
sg24
S'7.5'
p295
sg26
S'--'
p296
sg28
S'--'
p297
sg30
S'L10-16'
p298
sg32
S'15'
p299
sg34
g35
sg36
S'@MIN'
p300
sg38
S'9'
p301
sg40
g41
sg42
S'--'
p302
ssg301
(dp303
g5
S''
p304
sg7
g304
sg9
g304
sg11
g304
sg13
g304
sg14
S'Demetrius Harris'
p305
sg16
S'2015'
p306
sg18
g301
sg20
g304
sg22
S'Bye'
p307
sg24
g304
sg26
g304
sg28
g304
sg30
g304
sg32
g304
sg34
g304
sg36
g304
sg38
g304
sg40
g304
sg42
g304
ssS'8'
p308
(dp309
g5
S'--'
p310
sg7
S'--'
p311
sg9
g10
sg11
S'--'
p312
sg13
g10
sg14
S'Demetrius Harris'
p313
sg16
S'2015'
p314
sg18
g308
sg20
S'--'
p315
sg22
S'11/01'
p316
sg24
S'--'
p317
sg26
S'--'
p318
sg28
S'--'
p319
sg30
S'W45-10'
p320
sg32
g41
sg34
g41
sg36
S'DET'
p321
sg38
S'--'
p322
sg40
g41
sg42
S'--'
p323
sssS'2014'
p324
(dp325
g44
(dp326
g5
S'--'
p327
sg7
S'--'
p328
sg9
g41
sg11
S'--'
p329
sg13
g41
sg14
S'Demetrius Harris'
p330
sg16
S'2014'
p331
sg18
S'10'
p332
sg20
S'--'
p333
sg22
S'11/09'
p334
sg24
S'--'
p335
sg26
S'--'
p336
sg28
S'--'
p337
sg30
S'W17-13'
p338
sg32
S'--'
p339
sg34
S'--'
p340
sg36
S'@BUF'
p341
sg38
S'--'
p342
sg40
S'--'
p343
sg42
S'--'
p344
ssg10
(dp345
g5
S'--'
p346
sg7
S'--'
p347
sg9
g41
sg11
S'--'
p348
sg13
g10
sg14
S'Demetrius Harris'
p349
sg16
S'2014'
p350
sg18
g10
sg20
S'--'
p351
sg22
S'09/07'
p352
sg24
S'--'
p353
sg26
S'--'
p354
sg28
S'--'
p355
sg30
S'L10-26'
p356
sg32
S'--'
p357
sg34
S'--'
p358
sg36
S'TEN'
p359
sg38
S'--'
p360
sg40
S'--'
p361
sg42
S'--'
p362
ssg195
(dp363
g5
S'--'
p364
sg7
S'--'
p365
sg9
g10
sg11
S'--'
p366
sg13
g10
sg14
S'Demetrius Harris'
p367
sg16
S'2014'
p368
sg18
g195
sg20
S'--'
p369
sg22
S'09/21'
p370
sg24
S'--'
p371
sg26
S'--'
p372
sg28
S'--'
p373
sg30
S'W34-15'
p374
sg32
S'--'
p375
sg34
S'--'
p376
sg36
S'@MIA'
p377
sg38
S'--'
p378
sg40
S'--'
p379
sg42
S'--'
p380
ssg35
(dp381
g5
S'--'
p382
sg7
S'--'
p383
sg9
g41
sg11
S'--'
p384
sg13
g10
sg14
S'Demetrius Harris'
p385
sg16
S'2014'
p386
sg18
g35
sg20
S'--'
p387
sg22
S'09/14'
p388
sg24
S'10.0'
p389
sg26
S'--'
p390
sg28
S'--'
p391
sg30
S'L17-24'
p392
sg32
S'10'
p393
sg34
g10
sg36
S'@DEN'
p394
sg38
S'10'
p395
sg40
g41
sg42
S'--'
p396
ssg229
(dp397
g5
S'--'
p398
sg7
S'--'
p399
sg9
g41
sg11
S'--'
p400
sg13
g10
sg14
S'Demetrius Harris'
p401
sg16
S'2014'
p402
sg18
g229
sg20
S'--'
p403
sg22
S'10/05'
p404
sg24
S'--'
p405
sg26
S'--'
p406
sg28
S'--'
p407
sg30
S'L17-22'
p408
sg32
g41
sg34
g41
sg36
S'@SF'
p409
sg38
S'--'
p410
sg40
g41
sg42
S'--'
p411
ssg248
(dp412
g5
S'--'
p413
sg7
S'--'
p414
sg9
g10
sg11
S'--'
p415
sg13
g10
sg14
S'Demetrius Harris'
p416
sg16
S'2014'
p417
sg18
g248
sg20
S'--'
p418
sg22
S'09/29'
p419
sg24
S'--'
p420
sg26
S'--'
p421
sg28
S'--'
p422
sg30
S'W41-14'
p423
sg32
S'--'
p424
sg34
S'--'
p425
sg36
S'NE'
p426
sg38
S'--'
p427
sg40
S'--'
p428
sg42
S'--'
p429
ssg267
(dp430
g5
S'--'
p431
sg7
S'--'
p432
sg9
g41
sg11
S'--'
p433
sg13
g10
sg14
S'Demetrius Harris'
p434
sg16
S'2014'
p435
sg18
g267
sg20
S'--'
p436
sg22
S'10/19'
p437
sg24
S'--'
p438
sg26
S'--'
p439
sg28
S'--'
p440
sg30
S'W23-20'
p441
sg32
g41
sg34
g41
sg36
S'@SD'
p442
sg38
S'--'
p443
sg40
g41
sg42
S'--'
p444
ssg286
(dp445
g5
g304
sg7
g304
sg9
g304
sg11
g304
sg13
g304
sg14
S'Demetrius Harris'
p446
sg16
S'2014'
p447
sg18
g286
sg20
g304
sg22
S'Bye'
p448
sg24
g304
sg26
g304
sg28
g304
sg30
g304
sg32
g304
sg34
g304
sg36
g304
sg38
g304
sg40
g304
sg42
g304
ssg301
(dp449
g5
S'--'
p450
sg7
S'--'
p451
sg9
g41
sg11
S'--'
p452
sg13
g10
sg14
S'Demetrius Harris'
p453
sg16
S'2014'
p454
sg18
g301
sg20
S'--'
p455
sg22
S'11/02'
p456
sg24
S'6.0'
p457
sg26
S'--'
p458
sg28
S'--'
p459
sg30
S'W24-10'
p460
sg32
g286
sg34
g10
sg36
S'NYJ'
p461
sg38
g286
sg40
g41
sg42
S'--'
p462
ssg308
(dp463
g5
S'--'
p464
sg7
S'--'
p465
sg9
g10
sg11
S'--'
p466
sg13
g10
sg14
S'Demetrius Harris'
p467
sg16
S'2014'
p468
sg18
g308
sg20
S'--'
p469
sg22
S'10/26'
p470
sg24
S'4.0'
p471
sg26
S'--'
p472
sg28
S'--'
p473
sg30
S'W34-7'
p474
sg32
g248
sg34
g10
sg36
S'STL'
p475
sg38
g248
sg40
g41
sg42
S'--'
p476
sss.