(dp0
S'2014'
p1
(dp2
S'1'
p3
(dp4
S'RushTD'
p5
S'--'
p6
sS'RushYds'
p7
S'--'
p8
sS'GS'
p9
g3
sS'Lost'
p10
S'--'
p11
sS'G'
p12
g3
sS'Player'
p13
S'Dennis Pitta'
p14
sS'Year'
p15
S'2014'
p16
sS'WK'
p17
g3
sS'RushAvg'
p18
S'--'
p19
sS'Game Date'
p20
S'09/07'
p21
sS'RecAvg'
p22
S'8.3'
p23
sS'FUM'
p24
S'--'
p25
sS'RushAtt'
p26
S'--'
p27
sS'Result'
p28
S'L16-23'
p29
sS'RecYds'
p30
S'83'
p31
sS'Rec'
p32
S'10'
p33
sS'Opp'
p34
S'CIN'
p35
sS'RecLng'
p36
S'23'
p37
sS'RecTD'
p38
S'0'
p39
sS'RushLng'
p40
S'--'
p41
ssS'3'
p42
(dp43
g5
S'--'
p44
sg7
S'--'
p45
sg9
g3
sg10
S'--'
p46
sg12
g3
sg13
S'Dennis Pitta'
p47
sg15
S'2014'
p48
sg17
g42
sg18
S'--'
p49
sg20
S'09/21'
p50
sg22
S'4.0'
p51
sg24
S'--'
p52
sg26
S'--'
p53
sg28
S'W23-21'
p54
sg30
S'12'
p55
sg32
g42
sg34
S'@CLE'
p56
sg36
S'9'
p57
sg38
g39
sg40
S'--'
p58
ssS'2'
p59
(dp60
g5
S'--'
p61
sg7
S'--'
p62
sg9
g3
sg10
S'--'
p63
sg12
g3
sg13
S'Dennis Pitta'
p64
sg15
S'2014'
p65
sg17
g59
sg18
S'--'
p66
sg20
S'09/11'
p67
sg22
S'10.0'
p68
sg24
S'--'
p69
sg26
S'--'
p70
sg28
S'W26-6'
p71
sg30
S'30'
p72
sg32
g42
sg34
S'PIT'
p73
sg36
S'24'
p74
sg38
g39
sg40
S'--'
p75
sssS'2011'
p76
(dp77
S'11'
p78
(dp79
g5
S'--'
p80
sg7
S'--'
p81
sg9
g39
sg10
S'--'
p82
sg12
g3
sg13
S'Dennis Pitta'
p83
sg15
S'2011'
p84
sg17
S'11'
p85
sg18
S'--'
p86
sg20
S'11/20'
p87
sg22
S'--'
p88
sg24
S'--'
p89
sg26
S'--'
p90
sg28
S'W31-24'
p91
sg30
S'--'
p92
sg32
S'--'
p93
sg34
S'CIN'
p94
sg36
S'--'
p95
sg38
S'--'
p96
sg40
S'--'
p97
ssS'10'
p98
(dp99
g5
S'--'
p100
sg7
S'--'
p101
sg9
g39
sg10
S'--'
p102
sg12
g3
sg13
S'Dennis Pitta'
p103
sg15
S'2011'
p104
sg17
S'10'
p105
sg18
S'--'
p106
sg20
S'11/13'
p107
sg22
S'12.3'
p108
sg24
S'--'
p109
sg26
S'--'
p110
sg28
S'L17-22'
p111
sg30
S'49'
p112
sg32
S'4'
p113
sg34
S'@SEA'
p114
sg36
S'17'
p115
sg38
g39
sg40
S'--'
p116
ssS'13'
p117
(dp118
g5
S'--'
p119
sg7
S'--'
p120
sg9
g39
sg10
S'--'
p121
sg12
g3
sg13
S'Dennis Pitta'
p122
sg15
S'2011'
p123
sg17
S'13'
p124
sg18
S'--'
p125
sg20
S'12/04'
p126
sg22
S'26.0'
p127
sg24
S'--'
p128
sg26
S'--'
p129
sg28
S'W24-10'
p130
sg30
S'26'
p131
sg32
g3
sg34
S'@CLE'
p132
sg36
S'26'
p133
sg38
g39
sg40
S'--'
p134
ssS'12'
p135
(dp136
g5
S'--'
p137
sg7
S'--'
p138
sg9
g39
sg10
S'--'
p139
sg12
g3
sg13
S'Dennis Pitta'
p140
sg15
S'2011'
p141
sg17
S'12'
p142
sg18
S'--'
p143
sg20
S'11/24'
p144
sg22
S'9.5'
p145
sg24
S'--'
p146
sg26
S'--'
p147
sg28
S'W16-6'
p148
sg30
S'19'
p149
sg32
g59
sg34
S'SF'
p150
sg36
S'11'
p151
sg38
g3
sg40
S'--'
p152
ssS'15'
p153
(dp154
g5
S'--'
p155
sg7
S'--'
p156
sg9
g39
sg10
S'--'
p157
sg12
g3
sg13
S'Dennis Pitta'
p158
sg15
S'2011'
p159
sg17
S'15'
p160
sg18
S'--'
p161
sg20
S'12/18'
p162
sg22
S'8.3'
p163
sg24
S'--'
p164
sg26
S'--'
p165
sg28
S'L14-34'
p166
sg30
S'25'
p167
sg32
g42
sg34
S'@SD'
p168
sg36
S'11'
p169
sg38
g39
sg40
S'--'
p170
ssS'14'
p171
(dp172
g5
S'--'
p173
sg7
S'--'
p174
sg9
g39
sg10
S'--'
p175
sg12
g3
sg13
S'Dennis Pitta'
p176
sg15
S'2011'
p177
sg17
S'14'
p178
sg18
S'--'
p179
sg20
S'12/11'
p180
sg22
S'9.7'
p181
sg24
S'--'
p182
sg26
S'--'
p183
sg28
S'W24-10'
p184
sg30
S'29'
p185
sg32
g42
sg34
S'IND'
p186
sg36
S'16'
p187
sg38
g3
sg40
S'--'
p188
ssS'17'
p189
(dp190
g5
S'--'
p191
sg7
S'--'
p192
sg9
g3
sg10
S'--'
p193
sg12
g3
sg13
S'Dennis Pitta'
p194
sg15
S'2011'
p195
sg17
S'17'
p196
sg18
S'--'
p197
sg20
S'01/01'
p198
sg22
S'10.3'
p199
sg24
S'--'
p200
sg26
S'--'
p201
sg28
S'W24-16'
p202
sg30
S'62'
p203
sg32
S'6'
p204
sg34
S'@CIN'
p205
sg36
S'39'
p206
sg38
g3
sg40
S'--'
p207
ssS'16'
p208
(dp209
g5
S'--'
p210
sg7
S'--'
p211
sg9
g39
sg10
S'--'
p212
sg12
g3
sg13
S'Dennis Pitta'
p213
sg15
S'2011'
p214
sg17
S'16'
p215
sg18
S'--'
p216
sg20
S'12/24'
p217
sg22
S'--'
p218
sg24
S'--'
p219
sg26
S'--'
p220
sg28
S'W20-14'
p221
sg30
S'--'
p222
sg32
S'--'
p223
sg34
S'CLE'
p224
sg36
S'--'
p225
sg38
S'--'
p226
sg40
S'--'
p227
ssg3
(dp228
g5
S'--'
p229
sg7
S'--'
p230
sg9
g39
sg10
S'--'
p231
sg12
g3
sg13
S'Dennis Pitta'
p232
sg15
S'2011'
p233
sg17
g3
sg18
S'--'
p234
sg20
S'09/11'
p235
sg22
S'22.5'
p236
sg24
S'--'
p237
sg26
S'--'
p238
sg28
S'W35-7'
p239
sg30
S'45'
p240
sg32
g59
sg34
S'PIT'
p241
sg36
S'29'
p242
sg38
g39
sg40
S'--'
p243
ssg42
(dp244
g5
S'--'
p245
sg7
S'--'
p246
sg9
g39
sg10
S'--'
p247
sg12
g3
sg13
S'Dennis Pitta'
p248
sg15
S'2011'
p249
sg17
g42
sg18
S'--'
p250
sg20
S'09/25'
p251
sg22
S'--'
p252
sg24
S'--'
p253
sg26
S'--'
p254
sg28
S'W37-7'
p255
sg30
g39
sg32
g39
sg34
S'@STL'
p256
sg36
S'--'
p257
sg38
g39
sg40
S'--'
p258
ssg59
(dp259
g5
S'--'
p260
sg7
S'--'
p261
sg9
g3
sg10
S'--'
p262
sg12
g3
sg13
S'Dennis Pitta'
p263
sg15
S'2011'
p264
sg17
g59
sg18
S'--'
p265
sg20
S'09/18'
p266
sg22
S'12.0'
p267
sg24
S'--'
p268
sg26
S'--'
p269
sg28
S'L13-26'
p270
sg30
S'24'
p271
sg32
g59
sg34
S'@TEN'
p272
sg36
S'16'
p273
sg38
g39
sg40
S'--'
p274
ssS'5'
p275
(dp276
g5
S''
p277
sg7
g277
sg9
g277
sg10
g277
sg12
g277
sg13
S'Dennis Pitta'
p278
sg15
S'2011'
p279
sg17
g275
sg18
g277
sg20
S'Bye'
p280
sg22
g277
sg24
g277
sg26
g277
sg28
g277
sg30
g277
sg32
g277
sg34
g277
sg36
g277
sg38
g277
sg40
g277
ssg113
(dp281
g5
S'--'
p282
sg7
S'--'
p283
sg9
g39
sg10
S'--'
p284
sg12
g3
sg13
S'Dennis Pitta'
p285
sg15
S'2011'
p286
sg17
g113
sg18
S'--'
p287
sg20
S'10/02'
p288
sg22
S'14.0'
p289
sg24
S'--'
p290
sg26
S'--'
p291
sg28
S'W34-17'
p292
sg30
S'14'
p293
sg32
g3
sg34
S'NYJ'
p294
sg36
S'14'
p295
sg38
g39
sg40
S'--'
p296
ssS'7'
p297
(dp298
g5
S'--'
p299
sg7
S'--'
p300
sg9
g39
sg10
S'--'
p301
sg12
g3
sg13
S'Dennis Pitta'
p302
sg15
S'2011'
p303
sg17
g297
sg18
S'--'
p304
sg20
S'10/24'
p305
sg22
S'4.3'
p306
sg24
S'--'
p307
sg26
S'--'
p308
sg28
S'L7-12'
p309
sg30
S'13'
p310
sg32
g42
sg34
S'@JAC'
p311
sg36
S'15'
p312
sg38
g39
sg40
S'--'
p313
ssg204
(dp314
g5
S'--'
p315
sg7
S'--'
p316
sg9
g39
sg10
S'--'
p317
sg12
g3
sg13
S'Dennis Pitta'
p318
sg15
S'2011'
p319
sg17
g204
sg18
S'--'
p320
sg20
S'10/16'
p321
sg22
S'4.5'
p322
sg24
S'--'
p323
sg26
S'--'
p324
sg28
S'W29-14'
p325
sg30
g57
sg32
g59
sg34
S'HOU'
p326
sg36
g204
sg38
g39
sg40
S'--'
p327
ssg57
(dp328
g5
S'--'
p329
sg7
S'--'
p330
sg9
g39
sg10
S'--'
p331
sg12
g3
sg13
S'Dennis Pitta'
p332
sg15
S'2011'
p333
sg17
g57
sg18
S'--'
p334
sg20
S'11/06'
p335
sg22
S'9.2'
p336
sg24
S'--'
p337
sg26
S'--'
p338
sg28
S'W23-20'
p339
sg30
S'46'
p340
sg32
g275
sg34
S'@PIT'
p341
sg36
S'23'
p342
sg38
g39
sg40
S'--'
p343
ssS'8'
p344
(dp345
g5
S'--'
p346
sg7
S'--'
p347
sg9
g39
sg10
S'--'
p348
sg12
g3
sg13
S'Dennis Pitta'
p349
sg15
S'2011'
p350
sg17
g344
sg18
S'--'
p351
sg20
S'10/30'
p352
sg22
S'7.3'
p353
sg24
S'--'
p354
sg26
S'--'
p355
sg28
S'W30-27'
p356
sg30
S'44'
p357
sg32
g204
sg34
S'ARI'
p358
sg36
S'12'
p359
sg38
g39
sg40
S'--'
p360
sssS'2010'
p361
(dp362
g78
(dp363
g5
S'--'
p364
sg7
S'--'
p365
sg9
g39
sg10
S'--'
p366
sg12
g39
sg13
S'Dennis Pitta'
p367
sg15
S'2010'
p368
sg17
S'11'
p369
sg18
S'--'
p370
sg20
S'11/21'
p371
sg22
S'--'
p372
sg24
S'--'
p373
sg26
S'--'
p374
sg28
S'W37-13'
p375
sg30
S'--'
p376
sg32
S'--'
p377
sg34
S'@CAR'
p378
sg36
S'--'
p379
sg38
S'--'
p380
sg40
S'--'
p381
ssg98
(dp382
g5
S'--'
p383
sg7
S'--'
p384
sg9
g39
sg10
S'--'
p385
sg12
g39
sg13
S'Dennis Pitta'
p386
sg15
S'2010'
p387
sg17
S'10'
p388
sg18
S'--'
p389
sg20
S'11/11'
p390
sg22
S'--'
p391
sg24
S'--'
p392
sg26
S'--'
p393
sg28
S'L21-26'
p394
sg30
S'--'
p395
sg32
S'--'
p396
sg34
S'@ATL'
p397
sg36
S'--'
p398
sg38
S'--'
p399
sg40
S'--'
p400
ssg117
(dp401
g5
S'--'
p402
sg7
S'--'
p403
sg9
g39
sg10
S'--'
p404
sg12
g3
sg13
S'Dennis Pitta'
p405
sg15
S'2010'
p406
sg17
S'13'
p407
sg18
S'--'
p408
sg20
S'12/05'
p409
sg22
S'--'
p410
sg24
S'--'
p411
sg26
S'--'
p412
sg28
S'L10-13'
p413
sg30
g39
sg32
g39
sg34
S'PIT'
p414
sg36
S'--'
p415
sg38
g39
sg40
S'--'
p416
ssg135
(dp417
g5
S'--'
p418
sg7
S'--'
p419
sg9
g39
sg10
S'--'
p420
sg12
g3
sg13
S'Dennis Pitta'
p421
sg15
S'2010'
p422
sg17
S'12'
p423
sg18
S'--'
p424
sg20
S'11/28'
p425
sg22
S'--'
p426
sg24
S'--'
p427
sg26
S'--'
p428
sg28
S'W17-10'
p429
sg30
S'--'
p430
sg32
S'--'
p431
sg34
S'TB'
p432
sg36
S'--'
p433
sg38
S'--'
p434
sg40
S'--'
p435
ssg153
(dp436
g5
S'--'
p437
sg7
S'--'
p438
sg9
g39
sg10
S'--'
p439
sg12
g3
sg13
S'Dennis Pitta'
p440
sg15
S'2010'
p441
sg17
S'15'
p442
sg18
S'--'
p443
sg20
S'12/19'
p444
sg22
S'--'
p445
sg24
S'--'
p446
sg26
S'--'
p447
sg28
S'W30-24'
p448
sg30
g39
sg32
g39
sg34
S'NO'
p449
sg36
S'--'
p450
sg38
g39
sg40
S'--'
p451
ssg171
(dp452
g5
S'--'
p453
sg7
S'--'
p454
sg9
g39
sg10
S'--'
p455
sg12
g3
sg13
S'Dennis Pitta'
p456
sg15
S'2010'
p457
sg17
S'14'
p458
sg18
S'--'
p459
sg20
S'12/13'
p460
sg22
S'--'
p461
sg24
S'--'
p462
sg26
S'--'
p463
sg28
S'W34-28'
p464
sg30
S'--'
p465
sg32
S'--'
p466
sg34
S'@HOU'
p467
sg36
S'--'
p468
sg38
S'--'
p469
sg40
S'--'
p470
ssg189
(dp471
g5
S'--'
p472
sg7
S'--'
p473
sg9
g39
sg10
S'--'
p474
sg12
g39
sg13
S'Dennis Pitta'
p475
sg15
S'2010'
p476
sg17
S'17'
p477
sg18
S'--'
p478
sg20
S'01/02'
p479
sg22
S'--'
p480
sg24
S'--'
p481
sg26
S'--'
p482
sg28
S'W13-7'
p483
sg30
S'--'
p484
sg32
S'--'
p485
sg34
S'CIN'
p486
sg36
S'--'
p487
sg38
S'--'
p488
sg40
S'--'
p489
ssg208
(dp490
g5
S'--'
p491
sg7
S'--'
p492
sg9
g39
sg10
S'--'
p493
sg12
g3
sg13
S'Dennis Pitta'
p494
sg15
S'2010'
p495
sg17
S'16'
p496
sg18
S'--'
p497
sg20
S'12/26'
p498
sg22
S'--'
p499
sg24
S'--'
p500
sg26
S'--'
p501
sg28
S'W20-10'
p502
sg30
S'--'
p503
sg32
S'--'
p504
sg34
S'@CLE'
p505
sg36
S'--'
p506
sg38
S'--'
p507
sg40
S'--'
p508
ssg3
(dp509
g5
S'--'
p510
sg7
S'--'
p511
sg9
g39
sg10
S'--'
p512
sg12
g3
sg13
S'Dennis Pitta'
p513
sg15
S'2010'
p514
sg17
g3
sg18
S'--'
p515
sg20
S'09/13'
p516
sg22
S'--'
p517
sg24
S'--'
p518
sg26
S'--'
p519
sg28
S'W10-9'
p520
sg30
S'--'
p521
sg32
S'--'
p522
sg34
S'@NYJ'
p523
sg36
S'--'
p524
sg38
S'--'
p525
sg40
S'--'
p526
ssg42
(dp527
g5
S'--'
p528
sg7
S'--'
p529
sg9
g39
sg10
S'--'
p530
sg12
g3
sg13
S'Dennis Pitta'
p531
sg15
S'2010'
p532
sg17
g42
sg18
S'--'
p533
sg20
S'09/26'
p534
sg22
S'--'
p535
sg24
S'--'
p536
sg26
S'--'
p537
sg28
S'W24-17'
p538
sg30
S'--'
p539
sg32
S'--'
p540
sg34
S'CLE'
p541
sg36
S'--'
p542
sg38
S'--'
p543
sg40
S'--'
p544
ssg59
(dp545
g5
S'--'
p546
sg7
S'--'
p547
sg9
g39
sg10
S'--'
p548
sg12
g3
sg13
S'Dennis Pitta'
p549
sg15
S'2010'
p550
sg17
g59
sg18
S'--'
p551
sg20
S'09/19'
p552
sg22
S'1.0'
p553
sg24
S'--'
p554
sg26
S'--'
p555
sg28
S'L10-15'
p556
sg30
g3
sg32
g3
sg34
S'@CIN'
p557
sg36
g3
sg38
g39
sg40
S'--'
p558
ssg275
(dp559
g5
S'--'
p560
sg7
S'--'
p561
sg9
g39
sg10
S'--'
p562
sg12
g39
sg13
S'Dennis Pitta'
p563
sg15
S'2010'
p564
sg17
g275
sg18
S'--'
p565
sg20
S'10/10'
p566
sg22
S'--'
p567
sg24
S'--'
p568
sg26
S'--'
p569
sg28
S'W31-17'
p570
sg30
S'--'
p571
sg32
S'--'
p572
sg34
S'DEN'
p573
sg36
S'--'
p574
sg38
S'--'
p575
sg40
S'--'
p576
ssg113
(dp577
g5
S'--'
p578
sg7
S'--'
p579
sg9
g39
sg10
S'--'
p580
sg12
g3
sg13
S'Dennis Pitta'
p581
sg15
S'2010'
p582
sg17
g113
sg18
S'--'
p583
sg20
S'10/03'
p584
sg22
S'--'
p585
sg24
S'--'
p586
sg26
S'--'
p587
sg28
S'W17-14'
p588
sg30
S'--'
p589
sg32
S'--'
p590
sg34
S'@PIT'
p591
sg36
S'--'
p592
sg38
S'--'
p593
sg40
S'--'
p594
ssg297
(dp595
g5
S'--'
p596
sg7
S'--'
p597
sg9
g39
sg10
S'--'
p598
sg12
g3
sg13
S'Dennis Pitta'
p599
sg15
S'2010'
p600
sg17
g297
sg18
S'--'
p601
sg20
S'10/24'
p602
sg22
S'--'
p603
sg24
S'--'
p604
sg26
S'--'
p605
sg28
S'W37-34'
p606
sg30
S'--'
p607
sg32
S'--'
p608
sg34
S'BUF'
p609
sg36
S'--'
p610
sg38
S'--'
p611
sg40
S'--'
p612
ssg204
(dp613
g5
S'--'
p614
sg7
S'--'
p615
sg9
g39
sg10
S'--'
p616
sg12
g3
sg13
S'Dennis Pitta'
p617
sg15
S'2010'
p618
sg17
g204
sg18
S'--'
p619
sg20
S'10/17'
p620
sg22
S'--'
p621
sg24
S'--'
p622
sg26
S'--'
p623
sg28
S'L20-23'
p624
sg30
S'--'
p625
sg32
S'--'
p626
sg34
S'@NE'
p627
sg36
S'--'
p628
sg38
S'--'
p629
sg40
S'--'
p630
ssg57
(dp631
g5
S'--'
p632
sg7
S'--'
p633
sg9
g39
sg10
S'--'
p634
sg12
g39
sg13
S'Dennis Pitta'
p635
sg15
S'2010'
p636
sg17
g57
sg18
S'--'
p637
sg20
S'11/07'
p638
sg22
S'--'
p639
sg24
S'--'
p640
sg26
S'--'
p641
sg28
S'W26-10'
p642
sg30
S'--'
p643
sg32
S'--'
p644
sg34
S'MIA'
p645
sg36
S'--'
p646
sg38
S'--'
p647
sg40
S'--'
p648
ssg344
(dp649
g5
g277
sg7
g277
sg9
g277
sg10
g277
sg12
g277
sg13
S'Dennis Pitta'
p650
sg15
S'2010'
p651
sg17
g344
sg18
g277
sg20
S'Bye'
p652
sg22
g277
sg24
g277
sg26
g277
sg28
g277
sg30
g277
sg32
g277
sg34
g277
sg36
g277
sg38
g277
sg40
g277
sssS'2013'
p653
(dp654
g153
(dp655
g5
S'--'
p656
sg7
S'--'
p657
sg9
g39
sg10
S'--'
p658
sg12
g3
sg13
S'Dennis Pitta'
p659
sg15
S'2013'
p660
sg17
S'15'
p661
sg18
S'--'
p662
sg20
S'12/16'
p663
sg22
S'12.0'
p664
sg24
S'--'
p665
sg26
S'--'
p666
sg28
S'W18-16'
p667
sg30
S'24'
p668
sg32
g59
sg34
S'@DET'
p669
sg36
S'15'
p670
sg38
g39
sg40
S'--'
p671
ssg171
(dp672
g5
S'--'
p673
sg7
S'--'
p674
sg9
g39
sg10
S'--'
p675
sg12
g3
sg13
S'Dennis Pitta'
p676
sg15
S'2013'
p677
sg17
S'14'
p678
sg18
S'--'
p679
sg20
S'12/08'
p680
sg22
S'8.0'
p681
sg24
S'--'
p682
sg26
S'--'
p683
sg28
S'W29-26'
p684
sg30
S'48'
p685
sg32
g204
sg34
S'MIN'
p686
sg36
S'18'
p687
sg38
g3
sg40
S'--'
p688
ssg189
(dp689
g5
S'--'
p690
sg7
S'--'
p691
sg9
g3
sg10
S'--'
p692
sg12
g3
sg13
S'Dennis Pitta'
p693
sg15
S'2013'
p694
sg17
S'17'
p695
sg18
S'--'
p696
sg20
S'12/29'
p697
sg22
S'7.9'
p698
sg24
S'--'
p699
sg26
S'--'
p700
sg28
S'L17-34'
p701
sg30
S'63'
p702
sg32
g344
sg34
S'@CIN'
p703
sg36
S'11'
p704
sg38
g39
sg40
S'--'
p705
ssg208
(dp706
g5
S'--'
p707
sg7
S'--'
p708
sg9
g39
sg10
S'--'
p709
sg12
g3
sg13
S'Dennis Pitta'
p710
sg15
S'2013'
p711
sg17
S'16'
p712
sg18
S'--'
p713
sg20
S'12/22'
p714
sg22
S'8.5'
p715
sg24
S'--'
p716
sg26
S'--'
p717
sg28
S'L7-41'
p718
sg30
S'34'
p719
sg32
g113
sg34
S'NE'
p720
sg36
S'15'
p721
sg38
g39
sg40
S'--'
p722
sssS'2012'
p723
(dp724
g78
(dp725
g5
S'--'
p726
sg7
S'--'
p727
sg9
g39
sg10
S'--'
p728
sg12
g3
sg13
S'Dennis Pitta'
p729
sg15
S'2012'
p730
sg17
S'11'
p731
sg18
S'--'
p732
sg20
S'11/18'
p733
sg22
S'5.0'
p734
sg24
S'--'
p735
sg26
S'--'
p736
sg28
S'W13-10'
p737
sg30
g275
sg32
g3
sg34
S'@PIT'
p738
sg36
g275
sg38
g39
sg40
S'--'
p739
ssg98
(dp740
g5
S'--'
p741
sg7
S'--'
p742
sg9
g39
sg10
S'--'
p743
sg12
g3
sg13
S'Dennis Pitta'
p744
sg15
S'2012'
p745
sg17
S'10'
p746
sg18
S'--'
p747
sg20
S'11/11'
p748
sg22
S'13.4'
p749
sg24
S'--'
p750
sg26
S'--'
p751
sg28
S'W55-20'
p752
sg30
S'67'
p753
sg32
g275
sg34
S'OAK'
p754
sg36
S'26'
p755
sg38
g3
sg40
S'--'
p756
ssg117
(dp757
g5
S'--'
p758
sg7
S'--'
p759
sg9
g39
sg10
S'--'
p760
sg12
g3
sg13
S'Dennis Pitta'
p761
sg15
S'2012'
p762
sg17
S'13'
p763
sg18
S'--'
p764
sg20
S'12/02'
p765
sg22
S'19.0'
p766
sg24
S'--'
p767
sg26
S'--'
p768
sg28
S'L20-23'
p769
sg30
S'19'
p770
sg32
g3
sg34
S'PIT'
p771
sg36
S'19'
p772
sg38
g39
sg40
S'--'
p773
ssg135
(dp774
g5
S'--'
p775
sg7
S'--'
p776
sg9
g39
sg10
S'--'
p777
sg12
g3
sg13
S'Dennis Pitta'
p778
sg15
S'2012'
p779
sg17
S'12'
p780
sg18
S'--'
p781
sg20
S'11/25'
p782
sg22
S'7.0'
p783
sg24
S'--'
p784
sg26
S'--'
p785
sg28
S'W16-13'
p786
sg30
S'42'
p787
sg32
g204
sg34
S'@SD'
p788
sg36
S'16'
p789
sg38
g3
sg40
S'--'
p790
ssg153
(dp791
g5
S'--'
p792
sg7
S'--'
p793
sg9
g3
sg10
S'--'
p794
sg12
g3
sg13
S'Dennis Pitta'
p795
sg15
S'2012'
p796
sg17
S'15'
p797
sg18
S'--'
p798
sg20
S'12/16'
p799
sg22
S'17.9'
p800
sg24
S'--'
p801
sg26
S'--'
p802
sg28
S'L17-34'
p803
sg30
S'125'
p804
sg32
g297
sg34
S'DEN'
p805
sg36
S'61T'
p806
sg38
g59
sg40
S'--'
p807
ssg171
(dp808
g5
S'--'
p809
sg7
S'--'
p810
sg9
g3
sg10
S'--'
p811
sg12
g3
sg13
S'Dennis Pitta'
p812
sg15
S'2012'
p813
sg17
S'14'
p814
sg18
S'--'
p815
sg20
S'12/09'
p816
sg22
S'9.2'
p817
sg24
S'--'
p818
sg26
S'--'
p819
sg28
S'L28-31'
p820
sg30
S'46'
p821
sg32
g275
sg34
S'@WAS'
p822
sg36
S'14T'
p823
sg38
g3
sg40
S'--'
p824
ssg189
(dp825
g5
S'--'
p826
sg7
S'--'
p827
sg9
g39
sg10
S'--'
p828
sg12
g3
sg13
S'Dennis Pitta'
p829
sg15
S'2012'
p830
sg17
S'17'
p831
sg18
S'--'
p832
sg20
S'12/30'
p833
sg22
S'--'
p834
sg24
S'--'
p835
sg26
S'--'
p836
sg28
S'L17-23'
p837
sg30
g39
sg32
g39
sg34
S'@CIN'
p838
sg36
S'--'
p839
sg38
g39
sg40
S'--'
p840
ssg208
(dp841
g5
S'--'
p842
sg7
S'--'
p843
sg9
g39
sg10
S'--'
p844
sg12
g3
sg13
S'Dennis Pitta'
p845
sg15
S'2012'
p846
sg17
S'16'
p847
sg18
S'--'
p848
sg20
S'12/23'
p849
sg22
S'14.0'
p850
sg24
S'--'
p851
sg26
S'--'
p852
sg28
S'W33-14'
p853
sg30
S'56'
p854
sg32
g113
sg34
S'NYG'
p855
sg36
S'36'
p856
sg38
g39
sg40
S'--'
p857
ssg3
(dp858
g5
S'--'
p859
sg7
S'--'
p860
sg9
g3
sg10
S'--'
p861
sg12
g3
sg13
S'Dennis Pitta'
p862
sg15
S'2012'
p863
sg17
g3
sg18
S'--'
p864
sg20
S'09/10'
p865
sg22
S'14.6'
p866
sg24
S'--'
p867
sg26
S'--'
p868
sg28
S'W44-13'
p869
sg30
S'73'
p870
sg32
g275
sg34
S'CIN'
p871
sg36
S'25'
p872
sg38
g3
sg40
S'--'
p873
ssg42
(dp874
g5
S'--'
p875
sg7
S'--'
p876
sg9
g39
sg10
S'--'
p877
sg12
g3
sg13
S'Dennis Pitta'
p878
sg15
S'2012'
p879
sg17
g42
sg18
S'--'
p880
sg20
S'09/23'
p881
sg22
S'10.0'
p882
sg24
S'--'
p883
sg26
S'--'
p884
sg28
S'W31-30'
p885
sg30
S'50'
p886
sg32
g275
sg34
S'NE'
p887
sg36
S'20T'
p888
sg38
g3
sg40
S'--'
p889
ssg59
(dp890
g5
S'--'
p891
sg7
S'--'
p892
sg9
g3
sg10
S'--'
p893
sg12
g3
sg13
S'Dennis Pitta'
p894
sg15
S'2012'
p895
sg17
g59
sg18
S'--'
p896
sg20
S'09/16'
p897
sg22
S'8.1'
p898
sg24
S'--'
p899
sg26
S'--'
p900
sg28
S'L23-24'
p901
sg30
S'65'
p902
sg32
g344
sg34
S'@PHI'
p903
sg36
S'16'
p904
sg38
g39
sg40
S'--'
p905
ssg275
(dp906
g5
S'--'
p907
sg7
S'--'
p908
sg9
g39
sg10
S'--'
p909
sg12
g3
sg13
S'Dennis Pitta'
p910
sg15
S'2012'
p911
sg17
g275
sg18
S'--'
p912
sg20
S'10/07'
p913
sg22
S'7.3'
p914
sg24
S'--'
p915
sg26
S'--'
p916
sg28
S'W9-6'
p917
sg30
S'22'
p918
sg32
g42
sg34
S'@KC'
p919
sg36
S'11'
p920
sg38
g39
sg40
S'--'
p921
ssg113
(dp922
g5
S'--'
p923
sg7
S'--'
p924
sg9
g3
sg10
S'--'
p925
sg12
g3
sg13
S'Dennis Pitta'
p926
sg15
S'2012'
p927
sg17
g113
sg18
S'--'
p928
sg20
S'09/27'
p929
sg22
S'--'
p930
sg24
S'--'
p931
sg26
S'--'
p932
sg28
S'W23-16'
p933
sg30
g39
sg32
g39
sg34
S'CLE'
p934
sg36
S'--'
p935
sg38
g39
sg40
S'--'
p936
ssg297
(dp937
g5
S'--'
p938
sg7
S'--'
p939
sg9
g39
sg10
S'--'
p940
sg12
g3
sg13
S'Dennis Pitta'
p941
sg15
S'2012'
p942
sg17
g297
sg18
S'--'
p943
sg20
S'10/21'
p944
sg22
S'6.6'
p945
sg24
S'--'
p946
sg26
S'--'
p947
sg28
S'L13-43'
p948
sg30
S'33'
p949
sg32
g275
sg34
S'@HOU'
p950
sg36
g57
sg38
g39
sg40
S'--'
p951
ssg204
(dp952
g5
S'--'
p953
sg7
S'--'
p954
sg9
g39
sg10
S'--'
p955
sg12
g3
sg13
S'Dennis Pitta'
p956
sg15
S'2012'
p957
sg17
g204
sg18
S'--'
p958
sg20
S'10/14'
p959
sg22
S'8.3'
p960
sg24
S'--'
p961
sg26
S'--'
p962
sg28
S'W31-29'
p963
sg30
S'33'
p964
sg32
g113
sg34
S'DAL'
p965
sg36
g57
sg38
g39
sg40
S'--'
p966
ssg57
(dp967
g5
S'--'
p968
sg7
S'--'
p969
sg9
g39
sg10
S'--'
p970
sg12
g3
sg13
S'Dennis Pitta'
p971
sg15
S'2012'
p972
sg17
g57
sg18
S'--'
p973
sg20
S'11/04'
p974
sg22
S'16.5'
p975
sg24
S'--'
p976
sg26
S'--'
p977
sg28
S'W25-15'
p978
sg30
S'33'
p979
sg32
g59
sg34
S'@CLE'
p980
sg36
S'27'
p981
sg38
g39
sg40
S'--'
p982
ssg344
(dp983
g5
g277
sg7
g277
sg9
g277
sg10
g277
sg12
g277
sg13
S'Dennis Pitta'
p984
sg15
S'2012'
p985
sg17
g344
sg18
g277
sg20
S'Bye'
p986
sg22
g277
sg24
g277
sg26
g277
sg28
g277
sg30
g277
sg32
g277
sg34
g277
sg36
g277
sg38
g277
sg40
g277
sss.