(dp0
S'2015'
p1
(dp2
S'11'
p3
(dp4
S'RushTD'
p5
S'--'
p6
sS'RushYds'
p7
S'--'
p8
sS'GS'
p9
S'1'
p10
sS'Lost'
p11
S'--'
p12
sS'G'
p13
g10
sS'Player'
p14
S'Derek Carrier'
p15
sS'Year'
p16
S'2015'
p17
sS'WK'
p18
S'11'
p19
sS'RushAvg'
p20
S'--'
p21
sS'Game Date'
p22
S'11/22'
p23
sS'RecAvg'
p24
S'3.5'
p25
sS'FUM'
p26
S'--'
p27
sS'RushAtt'
p28
S'--'
p29
sS'Result'
p30
S'L16-44'
p31
sS'RecYds'
p32
S'7'
p33
sS'Rec'
p34
S'2'
p35
sS'Opp'
p36
S'@CAR'
p37
sS'RecLng'
p38
S'5'
p39
sS'RecTD'
p40
S'0'
p41
sS'RushLng'
p42
S'--'
p43
ssS'10'
p44
(dp45
g5
S'--'
p46
sg7
S'--'
p47
sg9
g10
sg11
S'--'
p48
sg13
g10
sg14
S'Derek Carrier'
p49
sg16
S'2015'
p50
sg18
S'10'
p51
sg20
S'--'
p52
sg22
S'11/15'
p53
sg24
S'14.0'
p54
sg26
S'--'
p55
sg28
S'--'
p56
sg30
S'W47-14'
p57
sg32
S'14'
p58
sg34
g10
sg36
S'NO'
p59
sg38
S'14'
p60
sg40
g41
sg42
S'--'
p61
ssS'13'
p62
(dp63
g5
S'--'
p64
sg7
S'--'
p65
sg9
g41
sg11
S'--'
p66
sg13
g41
sg14
S'Derek Carrier'
p67
sg16
S'2015'
p68
sg18
S'13'
p69
sg20
S'--'
p70
sg22
S'12/07'
p71
sg24
S'--'
p72
sg26
S'--'
p73
sg28
S'--'
p74
sg30
S'L16-19'
p75
sg32
S'--'
p76
sg34
S'--'
p77
sg36
S'DAL'
p78
sg38
S'--'
p79
sg40
S'--'
p80
sg42
S'--'
p81
ssS'12'
p82
(dp83
g5
S'--'
p84
sg7
S'--'
p85
sg9
g10
sg11
S'--'
p86
sg13
g10
sg14
S'Derek Carrier'
p87
sg16
S'2015'
p88
sg18
S'12'
p89
sg20
S'--'
p90
sg22
S'11/29'
p91
sg24
S'6.0'
p92
sg26
S'--'
p93
sg28
S'--'
p94
sg30
S'W20-14'
p95
sg32
S'6'
p96
sg34
g10
sg36
S'NYG'
p97
sg38
g96
sg40
g41
sg42
S'--'
p98
ssS'14'
p99
(dp100
g5
S'--'
p101
sg7
S'--'
p102
sg9
g10
sg11
S'--'
p103
sg13
g10
sg14
S'Derek Carrier'
p104
sg16
S'2015'
p105
sg18
S'14'
p106
sg20
S'--'
p107
sg22
S'12/13'
p108
sg24
S'7.0'
p109
sg26
S'--'
p110
sg28
S'--'
p111
sg30
S'W24-21'
p112
sg32
g33
sg34
g10
sg36
S'@CHI'
p113
sg38
g33
sg40
g41
sg42
S'--'
p114
ssg10
(dp115
g5
S'--'
p116
sg7
S'--'
p117
sg9
g10
sg11
S'--'
p118
sg13
g10
sg14
S'Derek Carrier'
p119
sg16
S'2015'
p120
sg18
g10
sg20
S'--'
p121
sg22
S'09/13'
p122
sg24
S'4.0'
p123
sg26
S'--'
p124
sg28
S'--'
p125
sg30
S'L10-17'
p126
sg32
S'8'
p127
sg34
g35
sg36
S'MIA'
p128
sg38
S'9'
p129
sg40
g41
sg42
S'--'
p130
ssS'3'
p131
(dp132
g5
S'--'
p133
sg7
S'--'
p134
sg9
g10
sg11
S'--'
p135
sg13
g10
sg14
S'Derek Carrier'
p136
sg16
S'2015'
p137
sg18
g131
sg20
S'--'
p138
sg22
S'09/24'
p139
sg24
S'--'
p140
sg26
S'--'
p141
sg28
S'--'
p142
sg30
S'L21-32'
p143
sg32
g41
sg34
g41
sg36
S'@NYG'
p144
sg38
S'--'
p145
sg40
g41
sg42
S'--'
p146
ssg35
(dp147
g5
S'--'
p148
sg7
S'--'
p149
sg9
g10
sg11
S'--'
p150
sg13
g10
sg14
S'Derek Carrier'
p151
sg16
S'2015'
p152
sg18
g35
sg20
S'--'
p153
sg22
S'09/20'
p154
sg24
S'--'
p155
sg26
S'--'
p156
sg28
S'--'
p157
sg30
S'W24-10'
p158
sg32
S'--'
p159
sg34
S'--'
p160
sg36
S'STL'
p161
sg38
S'--'
p162
sg40
S'--'
p163
sg42
S'--'
p164
ssg39
(dp165
g5
S'--'
p166
sg7
S'--'
p167
sg9
g10
sg11
S'--'
p168
sg13
g10
sg14
S'Derek Carrier'
p169
sg16
S'2015'
p170
sg18
g39
sg20
S'--'
p171
sg22
S'10/11'
p172
sg24
S'13.5'
p173
sg26
S'--'
p174
sg28
S'--'
p175
sg30
S'L19-25'
p176
sg32
S'27'
p177
sg34
g35
sg36
S'@ATL'
p178
sg38
S'20'
p179
sg40
g10
sg42
S'--'
p180
ssS'4'
p181
(dp182
g5
S'--'
p183
sg7
S'--'
p184
sg9
g10
sg11
S'--'
p185
sg13
g10
sg14
S'Derek Carrier'
p186
sg16
S'2015'
p187
sg18
g181
sg20
S'--'
p188
sg22
S'10/04'
p189
sg24
S'9.0'
p190
sg26
S'--'
p191
sg28
S'--'
p192
sg30
S'W23-20'
p193
sg32
S'18'
p194
sg34
g35
sg36
S'PHI'
p195
sg38
S'15'
p196
sg40
g41
sg42
S'--'
p197
ssg33
(dp198
g5
S'--'
p199
sg7
S'--'
p200
sg9
g10
sg11
S'--'
p201
sg13
g10
sg14
S'Derek Carrier'
p202
sg16
S'2015'
p203
sg18
g33
sg20
S'--'
p204
sg22
S'10/25'
p205
sg24
S'7.5'
p206
sg26
S'--'
p207
sg28
S'--'
p208
sg30
S'W31-30'
p209
sg32
S'15'
p210
sg34
g35
sg36
S'TB'
p211
sg38
g129
sg40
g41
sg42
S'--'
p212
ssg96
(dp213
g5
S'--'
p214
sg7
S'--'
p215
sg9
g10
sg11
S'--'
p216
sg13
g10
sg14
S'Derek Carrier'
p217
sg16
S'2015'
p218
sg18
g96
sg20
S'--'
p219
sg22
S'10/18'
p220
sg24
S'9.8'
p221
sg26
S'--'
p222
sg28
S'--'
p223
sg30
S'L20-34'
p224
sg32
S'39'
p225
sg34
g181
sg36
S'@NYJ'
p226
sg38
S'20'
p227
sg40
g41
sg42
S'--'
p228
ssg129
(dp229
g5
S'--'
p230
sg7
S'--'
p231
sg9
g10
sg11
S'--'
p232
sg13
g10
sg14
S'Derek Carrier'
p233
sg16
S'2015'
p234
sg18
g129
sg20
S'--'
p235
sg22
S'11/08'
p236
sg24
S'--'
p237
sg26
S'--'
p238
sg28
S'--'
p239
sg30
S'L10-27'
p240
sg32
g41
sg34
g41
sg36
S'@NE'
p241
sg38
S'--'
p242
sg40
g41
sg42
S'--'
p243
ssg127
(dp244
g5
S''
p245
sg7
g245
sg9
g245
sg11
g245
sg13
g245
sg14
S'Derek Carrier'
p246
sg16
S'2015'
p247
sg18
g127
sg20
g245
sg22
S'Bye'
p248
sg24
g245
sg26
g245
sg28
g245
sg30
g245
sg32
g245
sg34
g245
sg36
g245
sg38
g245
sg40
g245
sg42
g245
sssS'2014'
p249
(dp250
g3
(dp251
g5
S'--'
p252
sg7
S'--'
p253
sg9
g41
sg11
S'--'
p254
sg13
g10
sg14
S'Derek Carrier'
p255
sg16
S'2014'
p256
sg18
S'11'
p257
sg20
S'--'
p258
sg22
S'11/16'
p259
sg24
S'--'
p260
sg26
S'--'
p261
sg28
S'--'
p262
sg30
S'W16-10'
p263
sg32
S'--'
p264
sg34
S'--'
p265
sg36
S'@NYG'
p266
sg38
S'--'
p267
sg40
S'--'
p268
sg42
S'--'
p269
ssg44
(dp270
g5
S'--'
p271
sg7
S'--'
p272
sg9
g41
sg11
S'--'
p273
sg13
g10
sg14
S'Derek Carrier'
p274
sg16
S'2014'
p275
sg18
S'10'
p276
sg20
S'--'
p277
sg22
S'11/09'
p278
sg24
S'--'
p279
sg26
S'--'
p280
sg28
S'--'
p281
sg30
S'W27-24'
p282
sg32
S'--'
p283
sg34
S'--'
p284
sg36
S'@NO'
p285
sg38
S'--'
p286
sg40
S'--'
p287
sg42
S'--'
p288
ssg82
(dp289
g5
S'--'
p290
sg7
S'--'
p291
sg9
g41
sg11
S'--'
p292
sg13
g10
sg14
S'Derek Carrier'
p293
sg16
S'2014'
p294
sg18
S'12'
p295
sg20
S'--'
p296
sg22
S'11/23'
p297
sg24
S'--'
p298
sg26
S'--'
p299
sg28
S'--'
p300
sg30
S'W17-13'
p301
sg32
S'--'
p302
sg34
S'--'
p303
sg36
S'WAS'
p304
sg38
S'--'
p305
sg40
S'--'
p306
sg42
S'--'
p307
ssg10
(dp308
g5
S'--'
p309
sg7
S'--'
p310
sg9
g41
sg11
S'--'
p311
sg13
g10
sg14
S'Derek Carrier'
p312
sg16
S'2014'
p313
sg18
g10
sg20
S'--'
p314
sg22
S'09/07'
p315
sg24
S'--'
p316
sg26
S'--'
p317
sg28
S'--'
p318
sg30
S'W28-17'
p319
sg32
S'--'
p320
sg34
S'--'
p321
sg36
S'@DAL'
p322
sg38
S'--'
p323
sg40
S'--'
p324
sg42
S'--'
p325
ssg131
(dp326
g5
S'--'
p327
sg7
S'--'
p328
sg9
g10
sg11
S'--'
p329
sg13
g10
sg14
S'Derek Carrier'
p330
sg16
S'2014'
p331
sg18
g131
sg20
S'--'
p332
sg22
S'09/21'
p333
sg24
S'23.0'
p334
sg26
S'--'
p335
sg28
S'--'
p336
sg30
S'L14-23'
p337
sg32
S'23'
p338
sg34
g10
sg36
S'@ARI'
p339
sg38
S'23'
p340
sg40
g41
sg42
S'--'
p341
ssg35
(dp342
g5
S'--'
p343
sg7
S'--'
p344
sg9
g41
sg11
S'--'
p345
sg13
g10
sg14
S'Derek Carrier'
p346
sg16
S'2014'
p347
sg18
g35
sg20
S'--'
p348
sg22
S'09/14'
p349
sg24
S'13.7'
p350
sg26
S'--'
p351
sg28
S'--'
p352
sg30
S'L20-28'
p353
sg32
S'41'
p354
sg34
g131
sg36
S'CHI'
p355
sg38
S'22'
p356
sg40
g41
sg42
S'--'
p357
ssg39
(dp358
g5
S'--'
p359
sg7
S'--'
p360
sg9
g41
sg11
g41
sg13
g10
sg14
S'Derek Carrier'
p361
sg16
S'2014'
p362
sg18
g39
sg20
S'--'
p363
sg22
S'10/05'
p364
sg24
S'8.0'
p365
sg26
g10
sg28
S'--'
p366
sg30
S'W22-17'
p367
sg32
S'16'
p368
sg34
g35
sg36
S'KC'
p369
sg38
S'10'
p370
sg40
g41
sg42
S'--'
p371
ssg181
(dp372
g5
S'--'
p373
sg7
S'--'
p374
sg9
g41
sg11
S'--'
p375
sg13
g10
sg14
S'Derek Carrier'
p376
sg16
S'2014'
p377
sg18
g181
sg20
S'--'
p378
sg22
S'09/28'
p379
sg24
S'10.0'
p380
sg26
S'--'
p381
sg28
S'--'
p382
sg30
S'W26-21'
p383
sg32
S'10'
p384
sg34
g10
sg36
S'PHI'
p385
sg38
S'10'
p386
sg40
g41
sg42
S'--'
p387
ssg33
(dp388
g5
g41
sg7
g35
sg9
g41
sg11
S'--'
p389
sg13
g10
sg14
S'Derek Carrier'
p390
sg16
S'2014'
p391
sg18
g33
sg20
S'2.0'
p392
sg22
S'10/19'
p393
sg24
S'9.0'
p394
sg26
S'--'
p395
sg28
g10
sg30
S'L17-42'
p396
sg32
g129
sg34
g10
sg36
S'@DEN'
p397
sg38
g129
sg40
g41
sg42
g35
ssg96
(dp398
g5
S'--'
p399
sg7
S'--'
p400
sg9
g41
sg11
S'--'
p401
sg13
g10
sg14
S'Derek Carrier'
p402
sg16
S'2014'
p403
sg18
g96
sg20
S'--'
p404
sg22
S'10/13'
p405
sg24
S'--'
p406
sg26
S'--'
p407
sg28
S'--'
p408
sg30
S'W31-17'
p409
sg32
S'--'
p410
sg34
S'--'
p411
sg36
S'@STL'
p412
sg38
S'--'
p413
sg40
S'--'
p414
sg42
S'--'
p415
ssg129
(dp416
g5
S'--'
p417
sg7
S'--'
p418
sg9
g41
sg11
S'--'
p419
sg13
g10
sg14
S'Derek Carrier'
p420
sg16
S'2014'
p421
sg18
g129
sg20
S'--'
p422
sg22
S'11/02'
p423
sg24
S'6.0'
p424
sg26
S'--'
p425
sg28
S'--'
p426
sg30
S'L10-13'
p427
sg32
g96
sg34
g10
sg36
S'STL'
p428
sg38
g96
sg40
g41
sg42
S'--'
p429
ssg127
(dp430
g5
g245
sg7
g245
sg9
g245
sg11
g245
sg13
g245
sg14
S'Derek Carrier'
p431
sg16
S'2014'
p432
sg18
g127
sg20
g245
sg22
S'Bye'
p433
sg24
g245
sg26
g245
sg28
g245
sg30
g245
sg32
g245
sg34
g245
sg36
g245
sg38
g245
sg40
g245
sg42
g245
sssS'2013'
p434
(dp435
g3
(dp436
g5
S'--'
p437
sg7
S'--'
p438
sg9
g41
sg11
S'--'
p439
sg13
g10
sg14
S'Derek Carrier'
p440
sg16
S'2013'
p441
sg18
S'11'
p442
sg20
S'--'
p443
sg22
S'11/17'
p444
sg24
S'--'
p445
sg26
S'--'
p446
sg28
S'--'
p447
sg30
S'L20-23'
p448
sg32
S'--'
p449
sg34
S'--'
p450
sg36
S'@NO'
p451
sg38
S'--'
p452
sg40
S'--'
p453
sg42
S'--'
p454
ssg62
(dp455
g5
S'--'
p456
sg7
S'--'
p457
sg9
g41
sg11
S'--'
p458
sg13
g10
sg14
S'Derek Carrier'
p459
sg16
S'2013'
p460
sg18
S'13'
p461
sg20
S'--'
p462
sg22
S'12/01'
p463
sg24
S'--'
p464
sg26
S'--'
p465
sg28
S'--'
p466
sg30
S'W23-13'
p467
sg32
S'--'
p468
sg34
S'--'
p469
sg36
S'STL'
p470
sg38
S'--'
p471
sg40
S'--'
p472
sg42
S'--'
p473
ssg82
(dp474
g5
S'--'
p475
sg7
S'--'
p476
sg9
g41
sg11
S'--'
p477
sg13
g10
sg14
S'Derek Carrier'
p478
sg16
S'2013'
p479
sg18
S'12'
p480
sg20
S'--'
p481
sg22
S'11/25'
p482
sg24
S'--'
p483
sg26
S'--'
p484
sg28
S'--'
p485
sg30
S'W27-6'
p486
sg32
S'--'
p487
sg34
S'--'
p488
sg36
S'@WAS'
p489
sg38
S'--'
p490
sg40
S'--'
p491
sg42
S'--'
p492
ssS'15'
p493
(dp494
g5
S'--'
p495
sg7
S'--'
p496
sg9
g41
sg11
S'--'
p497
sg13
g10
sg14
S'Derek Carrier'
p498
sg16
S'2013'
p499
sg18
S'15'
p500
sg20
S'--'
p501
sg22
S'12/15'
p502
sg24
S'--'
p503
sg26
S'--'
p504
sg28
S'--'
p505
sg30
S'W33-14'
p506
sg32
S'--'
p507
sg34
S'--'
p508
sg36
S'@TB'
p509
sg38
S'--'
p510
sg40
S'--'
p511
sg42
S'--'
p512
ssg99
(dp513
g5
S'--'
p514
sg7
S'--'
p515
sg9
g41
sg11
S'--'
p516
sg13
g10
sg14
S'Derek Carrier'
p517
sg16
S'2013'
p518
sg18
S'14'
p519
sg20
S'--'
p520
sg22
S'12/08'
p521
sg24
S'--'
p522
sg26
S'--'
p523
sg28
S'--'
p524
sg30
S'W19-17'
p525
sg32
S'--'
p526
sg34
S'--'
p527
sg36
S'SEA'
p528
sg38
S'--'
p529
sg40
S'--'
p530
sg42
S'--'
p531
ssS'17'
p532
(dp533
g5
S'--'
p534
sg7
S'--'
p535
sg9
g41
sg11
S'--'
p536
sg13
g41
sg14
S'Derek Carrier'
p537
sg16
S'2013'
p538
sg18
S'17'
p539
sg20
S'--'
p540
sg22
S'12/29'
p541
sg24
S'--'
p542
sg26
S'--'
p543
sg28
S'--'
p544
sg30
S'W23-20'
p545
sg32
S'--'
p546
sg34
S'--'
p547
sg36
S'@ARI'
p548
sg38
S'--'
p549
sg40
S'--'
p550
sg42
S'--'
p551
ssS'16'
p552
(dp553
g5
S'--'
p554
sg7
S'--'
p555
sg9
g41
sg11
S'--'
p556
sg13
g41
sg14
S'Derek Carrier'
p557
sg16
S'2013'
p558
sg18
S'16'
p559
sg20
S'--'
p560
sg22
S'12/23'
p561
sg24
S'--'
p562
sg26
S'--'
p563
sg28
S'--'
p564
sg30
S'W34-24'
p565
sg32
S'--'
p566
sg34
S'--'
p567
sg36
S'ATL'
p568
sg38
S'--'
p569
sg40
S'--'
p570
sg42
S'--'
p571
sss.