(dp0
S'2014'
p1
(dp2
S'15'
p3
(dp4
S'RushTD'
p5
S'--'
p6
sS'RushYds'
p7
S'--'
p8
sS'GS'
p9
S'0'
p10
sS'Lost'
p11
S'--'
p12
sS'G'
p13
S'1'
p14
sS'Player'
p15
S'Dominique Jones'
p16
sS'Year'
p17
S'2014'
p18
sS'WK'
p19
S'15'
p20
sS'RushAvg'
p21
S'--'
p22
sS'Game Date'
p23
S'12/14'
p24
sS'RecAvg'
p25
S'--'
p26
sS'FUM'
p27
S'--'
p28
sS'RushAtt'
p29
S'--'
p30
sS'Result'
p31
S'W22-10'
p32
sS'RecYds'
p33
S'--'
p34
sS'Rec'
p35
S'--'
p36
sS'Opp'
p37
S'@SD'
p38
sS'RecLng'
p39
S'--'
p40
sS'RecTD'
p41
S'--'
p42
sS'RushLng'
p43
S'--'
p44
ssS'17'
p45
(dp46
g5
S'--'
p47
sg7
S'--'
p48
sg9
g10
sg11
S'--'
p49
sg13
g10
sg15
S'Dominique Jones'
p50
sg17
S'2014'
p51
sg19
S'17'
p52
sg21
S'--'
p53
sg23
S'12/28'
p54
sg25
S'--'
p55
sg27
S'--'
p56
sg29
S'--'
p57
sg31
S'W47-14'
p58
sg33
S'--'
p59
sg35
S'--'
p60
sg37
S'OAK'
p61
sg39
S'--'
p62
sg41
S'--'
p63
sg43
S'--'
p64
ssS'16'
p65
(dp66
g5
S'--'
p67
sg7
S'--'
p68
sg9
g10
sg11
S'--'
p69
sg13
g10
sg15
S'Dominique Jones'
p70
sg17
S'2014'
p71
sg19
S'16'
p72
sg21
S'--'
p73
sg23
S'12/22'
p74
sg25
S'--'
p75
sg27
S'--'
p76
sg29
S'--'
p77
sg31
S'L28-37'
p78
sg33
S'--'
p79
sg35
S'--'
p80
sg37
S'@CIN'
p81
sg39
S'--'
p82
sg41
S'--'
p83
sg43
S'--'
p84
sssS'2013'
p85
(dp86
g3
(dp87
g5
S'--'
p88
sg7
S'--'
p89
sg9
g10
sg11
S'--'
p90
sg13
g14
sg15
S'Dominique Jones'
p91
sg17
S'2013'
p92
sg19
S'15'
p93
sg21
S'--'
p94
sg23
S'12/15'
p95
sg25
S'--'
p96
sg27
S'--'
p97
sg29
S'--'
p98
sg31
S'W56-31'
p99
sg33
S'--'
p100
sg35
S'--'
p101
sg37
S'@OAK'
p102
sg39
S'--'
p103
sg41
S'--'
p104
sg43
S'--'
p105
ssS'14'
p106
(dp107
g5
S'--'
p108
sg7
S'--'
p109
sg9
g10
sg11
S'--'
p110
sg13
g14
sg15
S'Dominique Jones'
p111
sg17
S'2013'
p112
sg19
S'14'
p113
sg21
S'--'
p114
sg23
S'12/08'
p115
sg25
S'--'
p116
sg27
S'--'
p117
sg29
S'--'
p118
sg31
S'W45-10'
p119
sg33
S'--'
p120
sg35
S'--'
p121
sg37
S'@WAS'
p122
sg39
S'--'
p123
sg41
S'--'
p124
sg43
S'--'
p125
ssg14
(dp126
g5
S'--'
p127
sg7
S'--'
p128
sg9
g10
sg11
S'--'
p129
sg13
g14
sg15
S'Dominique Jones'
p130
sg17
S'2013'
p131
sg19
g14
sg21
S'--'
p132
sg23
S'09/08'
p133
sg25
S'--'
p134
sg27
S'--'
p135
sg29
S'--'
p136
sg31
S'W21-17'
p137
sg33
S'--'
p138
sg35
S'--'
p139
sg37
S'OAK'
p140
sg39
S'--'
p141
sg41
S'--'
p142
sg43
S'--'
p143
ssS'3'
p144
(dp145
g5
S'--'
p146
sg7
S'--'
p147
sg9
g10
sg11
S'--'
p148
sg13
g14
sg15
S'Dominique Jones'
p149
sg17
S'2013'
p150
sg19
g144
sg21
S'--'
p151
sg23
S'09/22'
p152
sg25
S'--'
p153
sg27
S'--'
p154
sg29
S'--'
p155
sg31
S'W27-7'
p156
sg33
S'--'
p157
sg35
S'--'
p158
sg37
S'@SF'
p159
sg39
S'--'
p160
sg41
S'--'
p161
sg43
S'--'
p162
ssS'2'
p163
(dp164
g5
S'--'
p165
sg7
S'--'
p166
sg9
g14
sg11
S'--'
p167
sg13
g14
sg15
S'Dominique Jones'
p168
sg17
S'2013'
p169
sg19
g163
sg21
S'--'
p170
sg23
S'09/15'
p171
sg25
S'13.0'
p172
sg27
S'--'
p173
sg29
S'--'
p174
sg31
S'L20-24'
p175
sg33
S'13'
p176
sg35
g14
sg37
S'MIA'
p177
sg39
S'13'
p178
sg41
g10
sg43
S'--'
p179
ssS'5'
p180
(dp181
g5
S'--'
p182
sg7
S'--'
p183
sg9
g14
sg11
S'--'
p184
sg13
g14
sg15
S'Dominique Jones'
p185
sg17
S'2013'
p186
sg19
g180
sg21
S'--'
p187
sg23
S'10/06'
p188
sg25
S'--'
p189
sg27
S'--'
p190
sg29
S'--'
p191
sg31
S'W34-28'
p192
sg33
S'--'
p193
sg35
S'--'
p194
sg37
S'SEA'
p195
sg39
S'--'
p196
sg41
S'--'
p197
sg43
S'--'
p198
ssS'4'
p199
(dp200
g5
S'--'
p201
sg7
S'--'
p202
sg9
g10
sg11
S'--'
p203
sg13
g14
sg15
S'Dominique Jones'
p204
sg17
S'2013'
p205
sg19
g199
sg21
S'--'
p206
sg23
S'09/29'
p207
sg25
S'21.0'
p208
sg27
S'--'
p209
sg29
S'--'
p210
sg31
S'W37-3'
p211
sg33
S'21'
p212
sg35
g14
sg37
S'@JAC'
p213
sg39
S'21'
p214
sg41
g10
sg43
S'--'
p215
ssS'7'
p216
(dp217
g5
S'--'
p218
sg7
S'--'
p219
sg9
g10
sg11
S'--'
p220
sg13
g10
sg15
S'Dominique Jones'
p221
sg17
S'2013'
p222
sg19
g216
sg21
S'--'
p223
sg23
S'10/20'
p224
sg25
S'--'
p225
sg27
S'--'
p226
sg29
S'--'
p227
sg31
S'W39-33'
p228
sg33
S'--'
p229
sg35
S'--'
p230
sg37
S'DEN'
p231
sg39
S'--'
p232
sg41
S'--'
p233
sg43
S'--'
p234
ssS'6'
p235
(dp236
g5
S'--'
p237
sg7
S'--'
p238
sg9
g10
sg11
S'--'
p239
sg13
g14
sg15
S'Dominique Jones'
p240
sg17
S'2013'
p241
sg19
g235
sg21
S'--'
p242
sg23
S'10/14'
p243
sg25
S'--'
p244
sg27
S'--'
p245
sg29
S'--'
p246
sg31
S'L9-19'
p247
sg33
S'--'
p248
sg35
S'--'
p249
sg37
S'@SD'
p250
sg39
S'--'
p251
sg41
S'--'
p252
sg43
S'--'
p253
sssS'2012'
p254
(dp255
S'13'
p256
(dp257
g5
S'--'
p258
sg7
S'--'
p259
sg9
g10
sg11
S'--'
p260
sg13
g10
sg15
S'Dominique Jones'
p261
sg17
S'2012'
p262
sg19
S'13'
p263
sg21
S'--'
p264
sg23
S'12/02'
p265
sg25
S'--'
p266
sg27
S'--'
p267
sg29
S'--'
p268
sg31
S'W35-33'
p269
sg33
S'--'
p270
sg35
S'--'
p271
sg37
S'@DET'
p272
sg39
S'--'
p273
sg41
S'--'
p274
sg43
S'--'
p275
ssS'12'
p276
(dp277
g5
S'--'
p278
sg7
S'--'
p279
sg9
g10
sg11
S'--'
p280
sg13
g10
sg15
S'Dominique Jones'
p281
sg17
S'2012'
p282
sg19
S'12'
p283
sg21
S'--'
p284
sg23
S'11/25'
p285
sg25
S'--'
p286
sg27
S'--'
p287
sg29
S'--'
p288
sg31
S'W20-13'
p289
sg33
S'--'
p290
sg35
S'--'
p291
sg37
S'BUF'
p292
sg39
S'--'
p293
sg41
S'--'
p294
sg43
S'--'
p295
ssg14
(dp296
g5
S'--'
p297
sg7
S'--'
p298
sg9
g14
sg11
S'--'
p299
sg13
g14
sg15
S'Dominique Jones'
p300
sg17
S'2012'
p301
sg19
g14
sg21
S'--'
p302
sg23
S'09/09'
p303
sg25
S'8.0'
p304
sg27
S'--'
p305
sg29
S'--'
p306
sg31
S'L21-41'
p307
sg33
S'8'
p308
sg35
g14
sg37
S'@CHI'
p309
sg39
g308
sg41
g10
sg43
S'--'
p310
ssg144
(dp311
g5
S'--'
p312
sg7
S'--'
p313
sg9
g10
sg11
S'--'
p314
sg13
g14
sg15
S'Dominique Jones'
p315
sg17
S'2012'
p316
sg19
g144
sg21
S'--'
p317
sg23
S'09/23'
p318
sg25
S'--'
p319
sg27
S'--'
p320
sg29
S'--'
p321
sg31
S'L17-22'
p322
sg33
S'--'
p323
sg35
S'--'
p324
sg37
S'JAC'
p325
sg39
S'--'
p326
sg41
S'--'
p327
sg43
S'--'
p328
ssg163
(dp329
g5
S'--'
p330
sg7
S'--'
p331
sg9
g10
sg11
S'--'
p332
sg13
g14
sg15
S'Dominique Jones'
p333
sg17
S'2012'
p334
sg19
g163
sg21
S'--'
p335
sg23
S'09/16'
p336
sg25
S'--'
p337
sg27
S'--'
p338
sg29
S'--'
p339
sg31
S'W23-20'
p340
sg33
S'--'
p341
sg35
S'--'
p342
sg37
S'MIN'
p343
sg39
S'--'
p344
sg41
S'--'
p345
sg43
S'--'
p346
ssg180
(dp347
g5
S'--'
p348
sg7
S'--'
p349
sg9
g10
sg11
S'--'
p350
sg13
g14
sg15
S'Dominique Jones'
p351
sg17
S'2012'
p352
sg19
g180
sg21
S'--'
p353
sg23
S'10/07'
p354
sg25
S'--'
p355
sg27
S'--'
p356
sg29
S'--'
p357
sg31
S'W30-27'
p358
sg33
S'--'
p359
sg35
S'--'
p360
sg37
S'GB'
p361
sg39
S'--'
p362
sg41
S'--'
p363
sg43
S'--'
p364
ssg199
(dp365
g5
S''
p366
sg7
g366
sg9
g366
sg11
g366
sg13
g366
sg15
S'Dominique Jones'
p367
sg17
S'2012'
p368
sg19
g199
sg21
g366
sg23
S'Bye'
p369
sg25
g366
sg27
g366
sg29
g366
sg31
g366
sg33
g366
sg35
g366
sg37
g366
sg39
g366
sg41
g366
sg43
g366
sss.