(dp0
S'2015'
p1
(dp2
S'11'
p3
(dp4
S'RushTD'
p5
S'--'
p6
sS'RushYds'
p7
S'--'
p8
sS'GS'
p9
S'1'
p10
sS'Lost'
p11
S'--'
p12
sS'G'
p13
g10
sS'Player'
p14
S'Dwayne Allen'
p15
sS'Year'
p16
S'2015'
p17
sS'WK'
p18
S'11'
p19
sS'RushAvg'
p20
S'--'
p21
sS'Game Date'
p22
S'11/22'
p23
sS'RecAvg'
p24
S'7.0'
p25
sS'FUM'
p26
S'--'
p27
sS'RushAtt'
p28
S'--'
p29
sS'Result'
p30
S'W24-21'
p31
sS'RecYds'
p32
S'7'
p33
sS'Rec'
p34
g10
sS'Opp'
p35
S'@ATL'
p36
sS'RecLng'
p37
g33
sS'RecTD'
p38
S'0'
p39
sS'RushLng'
p40
S'--'
p41
ssS'10'
p42
(dp43
g5
S''
p44
sg7
g44
sg9
g44
sg11
g44
sg13
g44
sg14
S'Dwayne Allen'
p45
sg16
S'2015'
p46
sg18
S'10'
p47
sg20
g44
sg22
S'Bye'
p48
sg24
g44
sg26
g44
sg28
g44
sg30
g44
sg32
g44
sg34
g44
sg35
g44
sg37
g44
sg38
g44
sg40
g44
ssS'13'
p49
(dp50
g5
S'--'
p51
sg7
S'--'
p52
sg9
g10
sg11
S'--'
p53
sg13
g10
sg14
S'Dwayne Allen'
p54
sg16
S'2015'
p55
sg18
S'13'
p56
sg20
S'--'
p57
sg22
S'12/06'
p58
sg24
S'6.0'
p59
sg26
S'--'
p60
sg28
S'--'
p61
sg30
S'L10-45'
p62
sg32
S'6'
p63
sg34
g10
sg35
S'@PIT'
p64
sg37
g63
sg38
g39
sg40
S'--'
p65
ssS'12'
p66
(dp67
g5
S'--'
p68
sg7
S'--'
p69
sg9
g10
sg11
S'--'
p70
sg13
g10
sg14
S'Dwayne Allen'
p71
sg16
S'2015'
p72
sg18
S'12'
p73
sg20
S'--'
p74
sg22
S'11/29'
p75
sg24
S'9.5'
p76
sg26
S'--'
p77
sg28
S'--'
p78
sg30
S'W25-12'
p79
sg32
S'19'
p80
sg34
S'2'
p81
sg35
S'TB'
p82
sg37
S'11'
p83
sg38
g39
sg40
S'--'
p84
ssS'15'
p85
(dp86
g5
g39
sg7
g10
sg9
g39
sg11
S'--'
p87
sg13
g10
sg14
S'Dwayne Allen'
p88
sg16
S'2015'
p89
sg18
S'15'
p90
sg20
S'1.0'
p91
sg22
S'12/20'
p92
sg24
S'5.0'
p93
sg26
S'--'
p94
sg28
g10
sg30
S'L10-16'
p95
sg32
S'5'
p96
sg34
g10
sg35
S'HOU'
p97
sg37
g96
sg38
g39
sg40
g10
ssS'14'
p98
(dp99
g5
S'--'
p100
sg7
S'--'
p101
sg9
g10
sg11
S'--'
p102
sg13
g10
sg14
S'Dwayne Allen'
p103
sg16
S'2015'
p104
sg18
S'14'
p105
sg20
S'--'
p106
sg22
S'12/13'
p107
sg24
S'-1.5'
p108
sg26
S'--'
p109
sg28
S'--'
p110
sg30
S'L16-51'
p111
sg32
S'-3'
p112
sg34
g81
sg35
S'@JAC'
p113
sg37
g63
sg38
g39
sg40
S'--'
p114
ssS'16'
p115
(dp116
g5
S'--'
p117
sg7
S'--'
p118
sg9
g10
sg11
S'--'
p119
sg13
g10
sg14
S'Dwayne Allen'
p120
sg16
S'2015'
p121
sg18
S'16'
p122
sg20
S'--'
p123
sg22
S'12/27'
p124
sg24
S'--'
p125
sg26
S'--'
p126
sg28
S'--'
p127
sg30
S'W18-12'
p128
sg32
g39
sg34
g39
sg35
S'@MIA'
p129
sg37
S'--'
p130
sg38
g39
sg40
S'--'
p131
ssg10
(dp132
g5
S'--'
p133
sg7
S'--'
p134
sg9
g10
sg11
S'--'
p135
sg13
g10
sg14
S'Dwayne Allen'
p136
sg16
S'2015'
p137
sg18
g10
sg20
S'--'
p138
sg22
S'09/13'
p139
sg24
S'5.7'
p140
sg26
S'--'
p141
sg28
S'--'
p142
sg30
S'L14-27'
p143
sg32
S'17'
p144
sg34
S'3'
p145
sg35
S'@BUF'
p146
sg37
S'8'
p147
sg38
g10
sg40
S'--'
p148
ssg145
(dp149
g5
S'--'
p150
sg7
S'--'
p151
sg9
g39
sg11
S'--'
p152
sg13
g39
sg14
S'Dwayne Allen'
p153
sg16
S'2015'
p154
sg18
g145
sg20
S'--'
p155
sg22
S'09/27'
p156
sg24
S'--'
p157
sg26
S'--'
p158
sg28
S'--'
p159
sg30
S'W35-33'
p160
sg32
S'--'
p161
sg34
S'--'
p162
sg35
S'@TEN'
p163
sg37
S'--'
p164
sg38
S'--'
p165
sg40
S'--'
p166
ssg81
(dp167
g5
S'--'
p168
sg7
S'--'
p169
sg9
g10
sg11
S'--'
p170
sg13
g10
sg14
S'Dwayne Allen'
p171
sg16
S'2015'
p172
sg18
g81
sg20
S'--'
p173
sg22
S'09/21'
p174
sg24
S'--'
p175
sg26
S'--'
p176
sg28
S'--'
p177
sg30
S'L7-20'
p178
sg32
S'--'
p179
sg34
S'--'
p180
sg35
S'NYJ'
p181
sg37
S'--'
p182
sg38
S'--'
p183
sg40
S'--'
p184
ssg96
(dp185
g5
S'--'
p186
sg7
S'--'
p187
sg9
g10
sg11
S'--'
p188
sg13
g10
sg14
S'Dwayne Allen'
p189
sg16
S'2015'
p190
sg18
g96
sg20
S'--'
p191
sg22
S'10/08'
p192
sg24
S'21.0'
p193
sg26
S'--'
p194
sg28
S'--'
p195
sg30
S'W27-20'
p196
sg32
S'21'
p197
sg34
g10
sg35
S'@HOU'
p198
sg37
S'21'
p199
sg38
g39
sg40
S'--'
p200
ssS'4'
p201
(dp202
g5
S'--'
p203
sg7
S'--'
p204
sg9
g39
sg11
S'--'
p205
sg13
g39
sg14
S'Dwayne Allen'
p206
sg16
S'2015'
p207
sg18
g201
sg20
S'--'
p208
sg22
S'10/04'
p209
sg24
S'--'
p210
sg26
S'--'
p211
sg28
S'--'
p212
sg30
S'W16-13'
p213
sg32
S'--'
p214
sg34
S'--'
p215
sg35
S'JAC'
p216
sg37
S'--'
p217
sg38
S'--'
p218
sg40
S'--'
p219
ssg33
(dp220
g5
S'--'
p221
sg7
S'--'
p222
sg9
g10
sg11
S'--'
p223
sg13
g10
sg14
S'Dwayne Allen'
p224
sg16
S'2015'
p225
sg18
g33
sg20
S'--'
p226
sg22
S'10/25'
p227
sg24
S'10.0'
p228
sg26
S'--'
p229
sg28
S'--'
p230
sg30
S'L21-27'
p231
sg32
S'10'
p232
sg34
g10
sg35
S'NO'
p233
sg37
S'10'
p234
sg38
g39
sg40
S'--'
p235
ssg63
(dp236
g5
S'--'
p237
sg7
S'--'
p238
sg9
g10
sg11
S'--'
p239
sg13
g10
sg14
S'Dwayne Allen'
p240
sg16
S'2015'
p241
sg18
g63
sg20
S'--'
p242
sg22
S'10/18'
p243
sg24
S'7.7'
p244
sg26
S'--'
p245
sg28
S'--'
p246
sg30
S'L27-34'
p247
sg32
S'23'
p248
sg34
g145
sg35
S'NE'
p249
sg37
S'10'
p250
sg38
g39
sg40
S'--'
p251
ssS'9'
p252
(dp253
g5
S'--'
p254
sg7
S'--'
p255
sg9
g10
sg11
S'--'
p256
sg13
g10
sg14
S'Dwayne Allen'
p257
sg16
S'2015'
p258
sg18
g252
sg20
S'--'
p259
sg22
S'11/08'
p260
sg24
S'--'
p261
sg26
S'--'
p262
sg28
S'--'
p263
sg30
S'W27-24'
p264
sg32
g39
sg34
g39
sg35
S'DEN'
p265
sg37
S'--'
p266
sg38
g39
sg40
S'--'
p267
ssg147
(dp268
g5
S'--'
p269
sg7
S'--'
p270
sg9
g10
sg11
S'--'
p271
sg13
g10
sg14
S'Dwayne Allen'
p272
sg16
S'2015'
p273
sg18
g147
sg20
S'--'
p274
sg22
S'11/02'
p275
sg24
S'4.0'
p276
sg26
S'--'
p277
sg28
S'--'
p278
sg30
S'L26-29'
p279
sg32
g201
sg34
g10
sg35
S'@CAR'
p280
sg37
g201
sg38
g39
sg40
S'--'
p281
sssS'2014'
p282
(dp283
g3
(dp284
g5
S'--'
p285
sg7
S'--'
p286
sg9
g10
sg11
S'--'
p287
sg13
g10
sg14
S'Dwayne Allen'
p288
sg16
S'2014'
p289
sg18
S'11'
p290
sg20
S'--'
p291
sg22
S'11/16'
p292
sg24
S'--'
p293
sg26
S'--'
p294
sg28
S'--'
p295
sg30
S'L20-42'
p296
sg32
S'--'
p297
sg34
S'--'
p298
sg35
S'NE'
p299
sg37
S'--'
p300
sg38
S'--'
p301
sg40
S'--'
p302
ssg42
(dp303
g5
g44
sg7
g44
sg9
g44
sg11
g44
sg13
g44
sg14
S'Dwayne Allen'
p304
sg16
S'2014'
p305
sg18
S'10'
p306
sg20
g44
sg22
S'Bye'
p307
sg24
g44
sg26
g44
sg28
g44
sg30
g44
sg32
g44
sg34
g44
sg35
g44
sg37
g44
sg38
g44
sg40
g44
ssg49
(dp308
g5
S'--'
p309
sg7
S'--'
p310
sg9
g39
sg11
S'--'
p311
sg13
g39
sg14
S'Dwayne Allen'
p312
sg16
S'2014'
p313
sg18
S'13'
p314
sg20
S'--'
p315
sg22
S'11/30'
p316
sg24
S'--'
p317
sg26
S'--'
p318
sg28
S'--'
p319
sg30
S'W49-27'
p320
sg32
S'--'
p321
sg34
S'--'
p322
sg35
S'WAS'
p323
sg37
S'--'
p324
sg38
S'--'
p325
sg40
S'--'
p326
ssg66
(dp327
g5
S'--'
p328
sg7
S'--'
p329
sg9
g39
sg11
S'--'
p330
sg13
g39
sg14
S'Dwayne Allen'
p331
sg16
S'2014'
p332
sg18
S'12'
p333
sg20
S'--'
p334
sg22
S'11/23'
p335
sg24
S'--'
p336
sg26
S'--'
p337
sg28
S'--'
p338
sg30
S'W23-3'
p339
sg32
S'--'
p340
sg34
S'--'
p341
sg35
S'JAC'
p342
sg37
S'--'
p343
sg38
S'--'
p344
sg40
S'--'
p345
ssg85
(dp346
g5
S'--'
p347
sg7
S'--'
p348
sg9
g10
sg11
S'--'
p349
sg13
g10
sg14
S'Dwayne Allen'
p350
sg16
S'2014'
p351
sg18
S'15'
p352
sg20
S'--'
p353
sg22
S'12/14'
p354
sg24
S'8.0'
p355
sg26
S'--'
p356
sg28
S'--'
p357
sg30
S'W17-10'
p358
sg32
S'16'
p359
sg34
g81
sg35
S'HOU'
p360
sg37
S'13'
p361
sg38
g10
sg40
S'--'
p362
ssg98
(dp363
g5
S'--'
p364
sg7
S'--'
p365
sg9
g10
sg11
S'--'
p366
sg13
g10
sg14
S'Dwayne Allen'
p367
sg16
S'2014'
p368
sg18
S'14'
p369
sg20
S'--'
p370
sg22
S'12/07'
p371
sg24
S'5.0'
p372
sg26
S'--'
p373
sg28
S'--'
p374
sg30
S'W25-24'
p375
sg32
g96
sg34
g10
sg35
S'@CLE'
p376
sg37
g96
sg38
g39
sg40
S'--'
p377
ssS'17'
p378
(dp379
g5
S'--'
p380
sg7
S'--'
p381
sg9
g39
sg11
S'--'
p382
sg13
g39
sg14
S'Dwayne Allen'
p383
sg16
S'2014'
p384
sg18
S'17'
p385
sg20
S'--'
p386
sg22
S'12/28'
p387
sg24
S'--'
p388
sg26
S'--'
p389
sg28
S'--'
p390
sg30
S'W27-10'
p391
sg32
S'--'
p392
sg34
S'--'
p393
sg35
S'@TEN'
p394
sg37
S'--'
p395
sg38
S'--'
p396
sg40
S'--'
p397
ssg115
(dp398
g5
S'--'
p399
sg7
S'--'
p400
sg9
g10
sg11
S'--'
p401
sg13
g10
sg14
S'Dwayne Allen'
p402
sg16
S'2014'
p403
sg18
S'16'
p404
sg20
S'--'
p405
sg22
S'12/21'
p406
sg24
S'--'
p407
sg26
S'--'
p408
sg28
S'--'
p409
sg30
S'L7-42'
p410
sg32
g39
sg34
g39
sg35
S'@DAL'
p411
sg37
S'--'
p412
sg38
g39
sg40
S'--'
p413
ssg10
(dp414
g5
S'--'
p415
sg7
S'--'
p416
sg9
g10
sg11
g39
sg13
g10
sg14
S'Dwayne Allen'
p417
sg16
S'2014'
p418
sg18
g10
sg20
S'--'
p419
sg22
S'09/07'
p420
sg24
S'16.0'
p421
sg26
g10
sg28
S'--'
p422
sg30
S'L24-31'
p423
sg32
S'64'
p424
sg34
g201
sg35
S'@DEN'
p425
sg37
S'41T'
p426
sg38
g10
sg40
S'--'
p427
ssg145
(dp428
g5
S'--'
p429
sg7
S'--'
p430
sg9
g10
sg11
S'--'
p431
sg13
g10
sg14
S'Dwayne Allen'
p432
sg16
S'2014'
p433
sg18
g145
sg20
S'--'
p434
sg22
S'09/21'
p435
sg24
S'10.8'
p436
sg26
S'--'
p437
sg28
S'--'
p438
sg30
S'W44-17'
p439
sg32
S'43'
p440
sg34
g201
sg35
S'@JAC'
p441
sg37
S'22'
p442
sg38
g10
sg40
S'--'
p443
ssg81
(dp444
g5
S'--'
p445
sg7
S'--'
p446
sg9
g10
sg11
S'--'
p447
sg13
g10
sg14
S'Dwayne Allen'
p448
sg16
S'2014'
p449
sg18
g81
sg20
S'--'
p450
sg22
S'09/15'
p451
sg24
S'--'
p452
sg26
S'--'
p453
sg28
S'--'
p454
sg30
S'L27-30'
p455
sg32
g39
sg34
g39
sg35
S'PHI'
p456
sg37
S'--'
p457
sg38
g39
sg40
S'--'
p458
ssg96
(dp459
g5
S'--'
p460
sg7
S'--'
p461
sg9
g10
sg11
S'--'
p462
sg13
g10
sg14
S'Dwayne Allen'
p463
sg16
S'2014'
p464
sg18
g96
sg20
S'--'
p465
sg22
S'10/05'
p466
sg24
S'14.8'
p467
sg26
S'--'
p468
sg28
S'--'
p469
sg30
S'W20-13'
p470
sg32
S'59'
p471
sg34
g201
sg35
S'BAL'
p472
sg37
S'28'
p473
sg38
g10
sg40
S'--'
p474
ssg201
(dp475
g5
S'--'
p476
sg7
S'--'
p477
sg9
g10
sg11
S'--'
p478
sg13
g10
sg14
S'Dwayne Allen'
p479
sg16
S'2014'
p480
sg18
g201
sg20
S'--'
p481
sg22
S'09/28'
p482
sg24
S'12.7'
p483
sg26
S'--'
p484
sg28
S'--'
p485
sg30
S'W41-17'
p486
sg32
S'38'
p487
sg34
g145
sg35
S'TEN'
p488
sg37
S'17'
p489
sg38
g10
sg40
S'--'
p490
ssg33
(dp491
g5
S'--'
p492
sg7
S'--'
p493
sg9
g10
sg11
S'--'
p494
sg13
g10
sg14
S'Dwayne Allen'
p495
sg16
S'2014'
p496
sg18
g33
sg20
S'--'
p497
sg22
S'10/19'
p498
sg24
S'17.3'
p499
sg26
S'--'
p500
sg28
S'--'
p501
sg30
S'W27-0'
p502
sg32
S'52'
p503
sg34
g145
sg35
S'CIN'
p504
sg37
S'32T'
p505
sg38
g10
sg40
S'--'
p506
ssg63
(dp507
g5
S'--'
p508
sg7
S'--'
p509
sg9
g10
sg11
S'--'
p510
sg13
g10
sg14
S'Dwayne Allen'
p511
sg16
S'2014'
p512
sg18
g63
sg20
S'--'
p513
sg22
S'10/09'
p514
sg24
S'16.3'
p515
sg26
S'--'
p516
sg28
S'--'
p517
sg30
S'W33-28'
p518
sg32
S'49'
p519
sg34
g145
sg35
S'@HOU'
p520
sg37
S'18'
p521
sg38
g39
sg40
S'--'
p522
ssg252
(dp523
g5
S'--'
p524
sg7
S'--'
p525
sg9
g10
sg11
S'--'
p526
sg13
g10
sg14
S'Dwayne Allen'
p527
sg16
S'2014'
p528
sg18
g252
sg20
S'--'
p529
sg22
S'11/03'
p530
sg24
S'12.0'
p531
sg26
S'--'
p532
sg28
S'--'
p533
sg30
S'W40-24'
p534
sg32
S'48'
p535
sg34
g201
sg35
S'@NYG'
p536
sg37
S'35'
p537
sg38
g10
sg40
S'--'
p538
ssg147
(dp539
g5
S'--'
p540
sg7
S'--'
p541
sg9
g10
sg11
S'--'
p542
sg13
g10
sg14
S'Dwayne Allen'
p543
sg16
S'2014'
p544
sg18
g147
sg20
S'--'
p545
sg22
S'10/26'
p546
sg24
S'21.0'
p547
sg26
S'--'
p548
sg28
S'--'
p549
sg30
S'L34-51'
p550
sg32
S'21'
p551
sg34
g10
sg35
S'@PIT'
p552
sg37
S'21T'
p553
sg38
g10
sg40
S'--'
p554
sssS'2013'
p555
(dp556
g10
(dp557
g5
S'--'
p558
sg7
S'--'
p559
sg9
g10
sg11
S'--'
p560
sg13
g10
sg14
S'Dwayne Allen'
p561
sg16
S'2013'
p562
sg18
g10
sg20
S'--'
p563
sg22
S'09/08'
p564
sg24
S'20.0'
p565
sg26
S'--'
p566
sg28
S'--'
p567
sg30
S'W21-17'
p568
sg32
S'20'
p569
sg34
g10
sg35
S'OAK'
p570
sg37
S'20T'
p571
sg38
g10
sg40
S'--'
p572
ssg81
(dp573
g5
S'--'
p574
sg7
S'--'
p575
sg9
g39
sg11
S'--'
p576
sg13
g39
sg14
S'Dwayne Allen'
p577
sg16
S'2013'
p578
sg18
g81
sg20
S'--'
p579
sg22
S'09/15'
p580
sg24
S'--'
p581
sg26
S'--'
p582
sg28
S'--'
p583
sg30
S'L20-24'
p584
sg32
S'--'
p585
sg34
S'--'
p586
sg35
S'MIA'
p587
sg37
S'--'
p588
sg38
S'--'
p589
sg40
S'--'
p590
sssS'2012'
p591
(dp592
g3
(dp593
g5
S'--'
p594
sg7
S'--'
p595
sg9
g10
sg11
S'--'
p596
sg13
g10
sg14
S'Dwayne Allen'
p597
sg16
S'2012'
p598
sg18
S'11'
p599
sg20
S'--'
p600
sg22
S'11/18'
p601
sg24
S'11.5'
p602
sg26
S'--'
p603
sg28
S'--'
p604
sg30
S'L24-59'
p605
sg32
S'69'
p606
sg34
g63
sg35
S'@NE'
p607
sg37
S'19'
p608
sg38
g39
sg40
S'--'
p609
ssg42
(dp610
g5
S'--'
p611
sg7
S'--'
p612
sg9
g10
sg11
S'--'
p613
sg13
g10
sg14
S'Dwayne Allen'
p614
sg16
S'2012'
p615
sg18
S'10'
p616
sg20
S'--'
p617
sg22
S'11/08'
p618
sg24
S'15.5'
p619
sg26
S'--'
p620
sg28
S'--'
p621
sg30
S'W27-10'
p622
sg32
S'31'
p623
sg34
g81
sg35
S'@JAC'
p624
sg37
S'27'
p625
sg38
g39
sg40
S'--'
p626
ssg49
(dp627
g5
S'--'
p628
sg7
S'--'
p629
sg9
g10
sg11
S'--'
p630
sg13
g10
sg14
S'Dwayne Allen'
p631
sg16
S'2012'
p632
sg18
S'13'
p633
sg20
S'--'
p634
sg22
S'12/02'
p635
sg24
S'25.0'
p636
sg26
S'--'
p637
sg28
S'--'
p638
sg30
S'W35-33'
p639
sg32
S'50'
p640
sg34
g81
sg35
S'@DET'
p641
sg37
S'40'
p642
sg38
g39
sg40
S'--'
p643
ssg66
(dp644
g5
S'--'
p645
sg7
S'--'
p646
sg9
g10
sg11
S'--'
p647
sg13
g10
sg14
S'Dwayne Allen'
p648
sg16
S'2012'
p649
sg18
S'12'
p650
sg20
S'--'
p651
sg22
S'11/25'
p652
sg24
S'12.0'
p653
sg26
S'--'
p654
sg28
S'--'
p655
sg30
S'W20-13'
p656
sg32
S'36'
p657
sg34
g145
sg35
S'BUF'
p658
sg37
S'24'
p659
sg38
g39
sg40
S'--'
p660
ssg85
(dp661
g5
g39
sg7
g145
sg9
g10
sg11
S'--'
p662
sg13
g10
sg14
S'Dwayne Allen'
p663
sg16
S'2012'
p664
sg18
S'15'
p665
sg20
S'3.0'
p666
sg22
S'12/16'
p667
sg24
S'12.0'
p668
sg26
S'--'
p669
sg28
g10
sg30
S'L17-29'
p670
sg32
S'36'
p671
sg34
g145
sg35
S'@HOU'
p672
sg37
S'16'
p673
sg38
g10
sg40
g145
ssg98
(dp674
g5
S'--'
p675
sg7
S'--'
p676
sg9
g10
sg11
S'--'
p677
sg13
g10
sg14
S'Dwayne Allen'
p678
sg16
S'2012'
p679
sg18
S'14'
p680
sg20
S'--'
p681
sg22
S'12/09'
p682
sg24
S'11.0'
p683
sg26
S'--'
p684
sg28
S'--'
p685
sg30
S'W27-23'
p686
sg32
S'11'
p687
sg34
g10
sg35
S'TEN'
p688
sg37
S'11'
p689
sg38
g39
sg40
S'--'
p690
ssg378
(dp691
g5
g39
sg7
g81
sg9
g10
sg11
S'--'
p692
sg13
g10
sg14
S'Dwayne Allen'
p693
sg16
S'2012'
p694
sg18
S'17'
p695
sg20
S'2.0'
p696
sg22
S'12/30'
p697
sg24
S'10.5'
p698
sg26
S'--'
p699
sg28
g10
sg30
S'W28-16'
p700
sg32
S'21'
p701
sg34
g81
sg35
S'HOU'
p702
sg37
S'20'
p703
sg38
g39
sg40
g81
ssg115
(dp704
g5
S'--'
p705
sg7
S'--'
p706
sg9
g10
sg11
S'--'
p707
sg13
g10
sg14
S'Dwayne Allen'
p708
sg16
S'2012'
p709
sg18
S'16'
p710
sg20
S'--'
p711
sg22
S'12/23'
p712
sg24
S'6.0'
p713
sg26
S'--'
p714
sg28
S'--'
p715
sg30
S'W20-13'
p716
sg32
S'18'
p717
sg34
g145
sg35
S'@KC'
p718
sg37
g33
sg38
g39
sg40
S'--'
p719
ssg10
(dp720
g5
S'--'
p721
sg7
S'--'
p722
sg9
g10
sg11
S'--'
p723
sg13
g10
sg14
S'Dwayne Allen'
p724
sg16
S'2012'
p725
sg18
g10
sg20
S'--'
p726
sg22
S'09/09'
p727
sg24
S'--'
p728
sg26
S'--'
p729
sg28
S'--'
p730
sg30
S'L21-41'
p731
sg32
S'--'
p732
sg34
S'--'
p733
sg35
S'@CHI'
p734
sg37
S'--'
p735
sg38
S'--'
p736
sg40
S'--'
p737
ssg145
(dp738
g5
S'--'
p739
sg7
S'--'
p740
sg9
g10
sg11
S'--'
p741
sg13
g10
sg14
S'Dwayne Allen'
p742
sg16
S'2012'
p743
sg18
g145
sg20
S'--'
p744
sg22
S'09/23'
p745
sg24
S'7.0'
p746
sg26
S'--'
p747
sg28
S'--'
p748
sg30
S'L17-22'
p749
sg32
S'35'
p750
sg34
g96
sg35
S'JAC'
p751
sg37
S'17'
p752
sg38
g39
sg40
S'--'
p753
ssg81
(dp754
g5
g39
sg7
g39
sg9
g10
sg11
S'--'
p755
sg13
g10
sg14
S'Dwayne Allen'
p756
sg16
S'2012'
p757
sg18
g81
sg20
S'0.0'
p758
sg22
S'09/16'
p759
sg24
S'3.0'
p760
sg26
S'--'
p761
sg28
g10
sg30
S'W23-20'
p762
sg32
g145
sg34
g10
sg35
S'MIN'
p763
sg37
S'3T'
p764
sg38
g10
sg40
g39
ssg96
(dp765
g5
S'--'
p766
sg7
S'--'
p767
sg9
g10
sg11
S'--'
p768
sg13
g10
sg14
S'Dwayne Allen'
p769
sg16
S'2012'
p770
sg18
g96
sg20
S'--'
p771
sg22
S'10/07'
p772
sg24
S'9.5'
p773
sg26
S'--'
p774
sg28
S'--'
p775
sg30
S'W30-27'
p776
sg32
S'38'
p777
sg34
g201
sg35
S'GB'
p778
sg37
S'11'
p779
sg38
g10
sg40
S'--'
p780
ssg201
(dp781
g5
g44
sg7
g44
sg9
g44
sg11
g44
sg13
g44
sg14
S'Dwayne Allen'
p782
sg16
S'2012'
p783
sg18
g201
sg20
g44
sg22
S'Bye'
p784
sg24
g44
sg26
g44
sg28
g44
sg30
g44
sg32
g44
sg34
g44
sg35
g44
sg37
g44
sg38
g44
sg40
g44
ssg33
(dp785
g5
S'--'
p786
sg7
S'--'
p787
sg9
g10
sg11
S'--'
p788
sg13
g10
sg14
S'Dwayne Allen'
p789
sg16
S'2012'
p790
sg18
g33
sg20
S'--'
p791
sg22
S'10/21'
p792
sg24
S'9.0'
p793
sg26
S'--'
p794
sg28
S'--'
p795
sg30
S'W17-13'
p796
sg32
g252
sg34
g10
sg35
S'CLE'
p797
sg37
g252
sg38
g39
sg40
S'--'
p798
ssg63
(dp799
g5
S'--'
p800
sg7
S'--'
p801
sg9
g10
sg11
S'--'
p802
sg13
g10
sg14
S'Dwayne Allen'
p803
sg16
S'2012'
p804
sg18
g63
sg20
S'--'
p805
sg22
S'10/14'
p806
sg24
S'16.5'
p807
sg26
S'--'
p808
sg28
S'--'
p809
sg30
S'L9-35'
p810
sg32
S'33'
p811
sg34
g81
sg35
S'@NYJ'
p812
sg37
S'21'
p813
sg38
g39
sg40
S'--'
p814
ssg252
(dp815
g5
S'--'
p816
sg7
S'--'
p817
sg9
g10
sg11
S'--'
p818
sg13
g10
sg14
S'Dwayne Allen'
p819
sg16
S'2012'
p820
sg18
g252
sg20
S'--'
p821
sg22
S'11/04'
p822
sg24
S'12.5'
p823
sg26
S'--'
p824
sg28
S'--'
p825
sg30
S'W23-20'
p826
sg32
S'75'
p827
sg34
g63
sg35
S'MIA'
p828
sg37
S'22'
p829
sg38
g39
sg40
S'--'
p830
ssg147
(dp831
g5
S'--'
p832
sg7
S'--'
p833
sg9
g10
sg11
g39
sg13
g10
sg14
S'Dwayne Allen'
p834
sg16
S'2012'
p835
sg18
g147
sg20
S'--'
p836
sg22
S'10/28'
p837
sg24
S'14.0'
p838
sg26
g10
sg28
S'--'
p839
sg30
S'W19-13'
p840
sg32
S'56'
p841
sg34
g201
sg35
S'@TEN'
p842
sg37
S'20'
p843
sg38
g39
sg40
S'--'
p844
sss.