(dp0
S'2015'
p1
(dp2
S'11'
p3
(dp4
S'RushTD'
p5
S'--'
p6
sS'RushYds'
p7
S'--'
p8
sS'GS'
p9
S'0'
p10
sS'Lost'
p11
S'--'
p12
sS'G'
p13
S'1'
p14
sS'Player'
p15
S'Eric Ebron'
p16
sS'Year'
p17
S'2015'
p18
sS'WK'
p19
S'11'
p20
sS'RushAvg'
p21
S'--'
p22
sS'Game Date'
p23
S'11/22'
p24
sS'RecAvg'
p25
S'--'
p26
sS'FUM'
p27
S'--'
p28
sS'RushAtt'
p29
S'--'
p30
sS'Result'
p31
S'W18-13'
p32
sS'RecYds'
p33
g10
sS'Rec'
p34
g10
sS'Opp'
p35
S'OAK'
p36
sS'RecLng'
p37
S'--'
p38
sS'RecTD'
p39
g10
sS'RushLng'
p40
S'--'
p41
ssS'10'
p42
(dp43
g5
S'--'
p44
sg7
S'--'
p45
sg9
g10
sg11
S'--'
p46
sg13
g14
sg15
S'Eric Ebron'
p47
sg17
S'2015'
p48
sg19
S'10'
p49
sg21
S'--'
p50
sg23
S'11/15'
p51
sg25
S'7.0'
p52
sg27
S'--'
p53
sg29
S'--'
p54
sg31
S'W18-16'
p55
sg33
S'28'
p56
sg34
S'4'
p57
sg35
S'@GB'
p58
sg37
S'13'
p59
sg39
g10
sg40
S'--'
p60
ssS'13'
p61
(dp62
g5
S'--'
p63
sg7
S'--'
p64
sg9
g14
sg11
S'--'
p65
sg13
g14
sg15
S'Eric Ebron'
p66
sg17
S'2015'
p67
sg19
S'13'
p68
sg21
S'--'
p69
sg23
S'12/03'
p70
sg25
S'4.5'
p71
sg27
S'--'
p72
sg29
S'--'
p73
sg31
S'L23-27'
p74
sg33
S'9'
p75
sg34
S'2'
p76
sg35
S'GB'
p77
sg37
S'6'
p78
sg39
g14
sg40
S'--'
p79
ssS'12'
p80
(dp81
g5
S'--'
p82
sg7
S'--'
p83
sg9
g10
sg11
S'--'
p84
sg13
g14
sg15
S'Eric Ebron'
p85
sg17
S'2015'
p86
sg19
S'12'
p87
sg21
S'--'
p88
sg23
S'11/26'
p89
sg25
S'14.0'
p90
sg27
S'--'
p91
sg29
S'--'
p92
sg31
S'W45-14'
p93
sg33
S'28'
p94
sg34
g76
sg35
S'PHI'
p95
sg37
S'19'
p96
sg39
g10
sg40
S'--'
p97
ssS'15'
p98
(dp99
g5
S'--'
p100
sg7
S'--'
p101
sg9
g14
sg11
S'--'
p102
sg13
g14
sg15
S'Eric Ebron'
p103
sg17
S'2015'
p104
sg19
S'15'
p105
sg21
S'--'
p106
sg23
S'12/21'
p107
sg25
S'19.8'
p108
sg27
S'--'
p109
sg29
S'--'
p110
sg31
S'W35-27'
p111
sg33
S'79'
p112
sg34
g57
sg35
S'@NO'
p113
sg37
S'45'
p114
sg39
g10
sg40
S'--'
p115
ssS'14'
p116
(dp117
g5
S'--'
p118
sg7
S'--'
p119
sg9
g10
sg11
S'--'
p120
sg13
g14
sg15
S'Eric Ebron'
p121
sg17
S'2015'
p122
sg19
S'14'
p123
sg21
S'--'
p124
sg23
S'12/13'
p125
sg25
S'9.0'
p126
sg27
S'--'
p127
sg29
S'--'
p128
sg31
S'L14-21'
p129
sg33
S'27'
p130
sg34
S'3'
p131
sg35
S'@STL'
p132
sg37
S'11'
p133
sg39
g10
sg40
S'--'
p134
ssS'17'
p135
(dp136
g5
S'--'
p137
sg7
S'--'
p138
sg9
g14
sg11
S'--'
p139
sg13
g14
sg15
S'Eric Ebron'
p140
sg17
S'2015'
p141
sg19
S'17'
p142
sg21
S'--'
p143
sg23
S'01/03'
p144
sg25
S'5.0'
p145
sg27
S'--'
p146
sg29
S'--'
p147
sg31
S'W24-20'
p148
sg33
S'25'
p149
sg34
S'5'
p150
sg35
S'@CHI'
p151
sg37
S'8'
p152
sg39
g14
sg40
S'--'
p153
ssS'16'
p154
(dp155
g5
S'--'
p156
sg7
S'--'
p157
sg9
g14
sg11
S'--'
p158
sg13
g14
sg15
S'Eric Ebron'
p159
sg17
S'2015'
p160
sg19
S'16'
p161
sg21
S'--'
p162
sg23
S'12/27'
p163
sg25
S'12.3'
p164
sg27
S'--'
p165
sg29
S'--'
p166
sg31
S'W32-17'
p167
sg33
S'49'
p168
sg34
g57
sg35
S'SF'
p169
sg37
S'20'
p170
sg39
g10
sg40
S'--'
p171
ssg14
(dp172
g5
S'--'
p173
sg7
S'--'
p174
sg9
g10
sg11
S'--'
p175
sg13
g14
sg15
S'Eric Ebron'
p176
sg17
S'2015'
p177
sg19
g14
sg21
S'--'
p178
sg23
S'09/13'
p179
sg25
S'13.3'
p180
sg27
S'--'
p181
sg29
S'--'
p182
sg31
S'L28-33'
p183
sg33
S'53'
p184
sg34
g57
sg35
S'@SD'
p185
sg37
S'18T'
p186
sg39
g14
sg40
S'--'
p187
ssg131
(dp188
g5
S'--'
p189
sg7
S'--'
p190
sg9
g14
sg11
S'--'
p191
sg13
g14
sg15
S'Eric Ebron'
p192
sg17
S'2015'
p193
sg19
g131
sg21
S'--'
p194
sg23
S'09/27'
p195
sg25
S'15.3'
p196
sg27
S'--'
p197
sg29
S'--'
p198
sg31
S'L12-24'
p199
sg33
S'61'
p200
sg34
g57
sg35
S'DEN'
p201
sg37
S'29'
p202
sg39
g10
sg40
S'--'
p203
ssg76
(dp204
g5
S'--'
p205
sg7
S'--'
p206
sg9
g14
sg11
S'--'
p207
sg13
g14
sg15
S'Eric Ebron'
p208
sg17
S'2015'
p209
sg19
g76
sg21
S'--'
p210
sg23
S'09/20'
p211
sg25
S'8.6'
p212
sg27
S'--'
p213
sg29
S'--'
p214
sg31
S'L16-26'
p215
sg33
S'43'
p216
sg34
g150
sg35
S'@MIN'
p217
sg37
S'16'
p218
sg39
g14
sg40
S'--'
p219
ssg150
(dp220
g5
S'--'
p221
sg7
S'--'
p222
sg9
g10
sg11
S'--'
p223
sg13
g10
sg15
S'Eric Ebron'
p224
sg17
S'2015'
p225
sg19
g150
sg21
S'--'
p226
sg23
S'10/11'
p227
sg25
S'--'
p228
sg27
S'--'
p229
sg29
S'--'
p230
sg31
S'L17-42'
p231
sg33
S'--'
p232
sg34
S'--'
p233
sg35
S'ARI'
p234
sg37
S'--'
p235
sg39
S'--'
p236
sg40
S'--'
p237
ssg57
(dp238
g5
S'--'
p239
sg7
S'--'
p240
sg9
g10
sg11
S'--'
p241
sg13
g14
sg15
S'Eric Ebron'
p242
sg17
S'2015'
p243
sg19
g57
sg21
S'--'
p244
sg23
S'10/05'
p245
sg25
S'11.0'
p246
sg27
S'--'
p247
sg29
S'--'
p248
sg31
S'L10-13'
p249
sg33
S'22'
p250
sg34
g76
sg35
S'@SEA'
p251
sg37
S'19'
p252
sg39
g10
sg40
S'--'
p253
ssS'7'
p254
(dp255
g5
S'--'
p256
sg7
S'--'
p257
sg9
g14
sg11
S'--'
p258
sg13
g14
sg15
S'Eric Ebron'
p259
sg17
S'2015'
p260
sg19
g254
sg21
S'--'
p261
sg23
S'10/25'
p262
sg25
S'17.8'
p263
sg27
S'--'
p264
sg29
S'--'
p265
sg31
S'L19-28'
p266
sg33
S'89'
p267
sg34
g150
sg35
S'MIN'
p268
sg37
S'55'
p269
sg39
g14
sg40
S'--'
p270
ssg78
(dp271
g5
S'--'
p272
sg7
S'--'
p273
sg9
g10
sg11
S'--'
p274
sg13
g10
sg15
S'Eric Ebron'
p275
sg17
S'2015'
p276
sg19
g78
sg21
S'--'
p277
sg23
S'10/18'
p278
sg25
S'--'
p279
sg27
S'--'
p280
sg29
S'--'
p281
sg31
S'W37-34'
p282
sg33
S'--'
p283
sg34
S'--'
p284
sg35
S'CHI'
p285
sg37
S'--'
p286
sg39
S'--'
p287
sg40
S'--'
p288
ssg75
(dp289
g5
S''
p290
sg7
g290
sg9
g290
sg11
g290
sg13
g290
sg15
S'Eric Ebron'
p291
sg17
S'2015'
p292
sg19
g75
sg21
g290
sg23
S'Bye'
p293
sg25
g290
sg27
g290
sg29
g290
sg31
g290
sg33
g290
sg34
g290
sg35
g290
sg37
g290
sg39
g290
sg40
g290
ssg152
(dp294
g5
S'--'
p295
sg7
S'--'
p296
sg9
g14
sg11
S'--'
p297
sg13
g14
sg15
S'Eric Ebron'
p298
sg17
S'2015'
p299
sg19
g152
sg21
S'--'
p300
sg23
S'11/01'
p301
sg25
S'8.0'
p302
sg27
S'--'
p303
sg29
S'--'
p304
sg31
S'L10-45'
p305
sg33
S'24'
p306
sg34
g131
sg35
S'@KC'
p307
sg37
S'14'
p308
sg39
g10
sg40
S'--'
p309
sssS'2014'
p310
(dp311
g3
(dp312
g5
S'--'
p313
sg7
S'--'
p314
sg9
g14
sg11
S'--'
p315
sg13
g14
sg15
S'Eric Ebron'
p316
sg17
S'2014'
p317
sg19
S'11'
p318
sg21
S'--'
p319
sg23
S'11/16'
p320
sg25
S'5.5'
p321
sg27
S'--'
p322
sg29
S'--'
p323
sg31
S'L6-14'
p324
sg33
S'22'
p325
sg34
g57
sg35
S'@ARI'
p326
sg37
g152
sg39
g10
sg40
S'--'
p327
ssg42
(dp328
g5
S'--'
p329
sg7
S'--'
p330
sg9
g10
sg11
S'--'
p331
sg13
g10
sg15
S'Eric Ebron'
p332
sg17
S'2014'
p333
sg19
S'10'
p334
sg21
S'--'
p335
sg23
S'11/09'
p336
sg25
S'--'
p337
sg27
S'--'
p338
sg29
S'--'
p339
sg31
S'W20-16'
p340
sg33
S'--'
p341
sg34
S'--'
p342
sg35
S'MIA'
p343
sg37
S'--'
p344
sg39
S'--'
p345
sg40
S'--'
p346
ssg61
(dp347
g5
S'--'
p348
sg7
S'--'
p349
sg9
g14
sg11
S'--'
p350
sg13
g14
sg15
S'Eric Ebron'
p351
sg17
S'2014'
p352
sg19
S'13'
p353
sg21
S'--'
p354
sg23
S'11/27'
p355
sg25
S'7.7'
p356
sg27
S'--'
p357
sg29
S'--'
p358
sg31
S'W34-17'
p359
sg33
S'23'
p360
sg34
g131
sg35
S'CHI'
p361
sg37
S'13'
p362
sg39
g10
sg40
S'--'
p363
ssg80
(dp364
g5
S'--'
p365
sg7
S'--'
p366
sg9
g10
sg11
S'--'
p367
sg13
g14
sg15
S'Eric Ebron'
p368
sg17
S'2014'
p369
sg19
S'12'
p370
sg21
S'--'
p371
sg23
S'11/23'
p372
sg25
S'11.5'
p373
sg27
S'--'
p374
sg29
S'--'
p375
sg31
S'L9-34'
p376
sg33
S'23'
p377
sg34
g76
sg35
S'@NE'
p378
sg37
S'17'
p379
sg39
g10
sg40
S'--'
p380
ssg98
(dp381
g5
S'--'
p382
sg7
S'--'
p383
sg9
g14
sg11
S'--'
p384
sg13
g14
sg15
S'Eric Ebron'
p385
sg17
S'2014'
p386
sg19
S'15'
p387
sg21
S'--'
p388
sg23
S'12/14'
p389
sg25
S'11.0'
p390
sg27
S'--'
p391
sg29
S'--'
p392
sg31
S'W16-14'
p393
sg33
S'11'
p394
sg34
g14
sg35
S'MIN'
p395
sg37
S'11'
p396
sg39
g10
sg40
S'--'
p397
ssg116
(dp398
g5
S'--'
p399
sg7
S'--'
p400
sg9
g14
sg11
S'--'
p401
sg13
g14
sg15
S'Eric Ebron'
p402
sg17
S'2014'
p403
sg19
S'14'
p404
sg21
S'--'
p405
sg23
S'12/07'
p406
sg25
S'9.3'
p407
sg27
S'--'
p408
sg29
S'--'
p409
sg31
S'W34-17'
p410
sg33
S'28'
p411
sg34
g131
sg35
S'TB'
p412
sg37
S'12'
p413
sg39
g10
sg40
S'--'
p414
ssg135
(dp415
g5
S'--'
p416
sg7
S'--'
p417
sg9
g14
sg11
S'--'
p418
sg13
g14
sg15
S'Eric Ebron'
p419
sg17
S'2014'
p420
sg19
S'17'
p421
sg21
S'--'
p422
sg23
S'12/28'
p423
sg25
S'19.0'
p424
sg27
S'--'
p425
sg29
S'--'
p426
sg31
S'L20-30'
p427
sg33
S'38'
p428
sg34
g76
sg35
S'@GB'
p429
sg37
S'22'
p430
sg39
g10
sg40
S'--'
p431
ssg154
(dp432
g5
S'--'
p433
sg7
S'--'
p434
sg9
g14
sg11
S'--'
p435
sg13
g14
sg15
S'Eric Ebron'
p436
sg17
S'2014'
p437
sg19
S'16'
p438
sg21
S'--'
p439
sg23
S'12/21'
p440
sg25
S'--'
p441
sg27
S'--'
p442
sg29
S'--'
p443
sg31
S'W20-14'
p444
sg33
S'--'
p445
sg34
S'--'
p446
sg35
S'@CHI'
p447
sg37
S'--'
p448
sg39
S'--'
p449
sg40
S'--'
p450
ssg14
(dp451
g5
S'--'
p452
sg7
S'--'
p453
sg9
g10
sg11
S'--'
p454
sg13
g14
sg15
S'Eric Ebron'
p455
sg17
S'2014'
p456
sg19
g14
sg21
S'--'
p457
sg23
S'09/08'
p458
sg25
S'--'
p459
sg27
S'--'
p460
sg29
S'--'
p461
sg31
S'W35-14'
p462
sg33
g10
sg34
g10
sg35
S'NYG'
p463
sg37
S'--'
p464
sg39
g10
sg40
S'--'
p465
ssg131
(dp466
g5
S'--'
p467
sg7
S'--'
p468
sg9
g10
sg11
S'--'
p469
sg13
g14
sg15
S'Eric Ebron'
p470
sg17
S'2014'
p471
sg19
g131
sg21
S'--'
p472
sg23
S'09/21'
p473
sg25
S'--'
p474
sg27
S'--'
p475
sg29
S'--'
p476
sg31
S'W19-7'
p477
sg33
g10
sg34
g10
sg35
S'GB'
p478
sg37
S'--'
p479
sg39
g10
sg40
S'--'
p480
ssg76
(dp481
g5
S'--'
p482
sg7
S'--'
p483
sg9
g10
sg11
S'--'
p484
sg13
g14
sg15
S'Eric Ebron'
p485
sg17
S'2014'
p486
sg19
g76
sg21
S'--'
p487
sg23
S'09/14'
p488
sg25
S'12.7'
p489
sg27
S'--'
p490
sg29
S'--'
p491
sg31
S'L7-24'
p492
sg33
S'38'
p493
sg34
g131
sg35
S'@CAR'
p494
sg37
S'17'
p495
sg39
g10
sg40
S'--'
p496
ssg150
(dp497
g5
S'--'
p498
sg7
S'--'
p499
sg9
g10
sg11
S'--'
p500
sg13
g14
sg15
S'Eric Ebron'
p501
sg17
S'2014'
p502
sg19
g150
sg21
S'--'
p503
sg23
S'10/05'
p504
sg25
S'4.0'
p505
sg27
S'--'
p506
sg29
S'--'
p507
sg31
S'L14-17'
p508
sg33
g152
sg34
g76
sg35
S'BUF'
p509
sg37
g150
sg39
g10
sg40
S'--'
p510
ssg57
(dp511
g5
S'--'
p512
sg7
S'--'
p513
sg9
g10
sg11
S'--'
p514
sg13
g14
sg15
S'Eric Ebron'
p515
sg17
S'2014'
p516
sg19
g57
sg21
S'--'
p517
sg23
S'09/28'
p518
sg25
S'11.3'
p519
sg27
S'--'
p520
sg29
S'--'
p521
sg31
S'W24-17'
p522
sg33
S'34'
p523
sg34
g131
sg35
S'@NYJ'
p524
sg37
S'16T'
p525
sg39
g14
sg40
S'--'
p526
ssg254
(dp527
g5
S'--'
p528
sg7
S'--'
p529
sg9
g10
sg11
S'--'
p530
sg13
g10
sg15
S'Eric Ebron'
p531
sg17
S'2014'
p532
sg19
g254
sg21
S'--'
p533
sg23
S'10/19'
p534
sg25
S'--'
p535
sg27
S'--'
p536
sg29
S'--'
p537
sg31
S'W24-23'
p538
sg33
S'--'
p539
sg34
S'--'
p540
sg35
S'NO'
p541
sg37
S'--'
p542
sg39
S'--'
p543
sg40
S'--'
p544
ssg78
(dp545
g5
S'--'
p546
sg7
S'--'
p547
sg9
g14
sg11
S'--'
p548
sg13
g14
sg15
S'Eric Ebron'
p549
sg17
S'2014'
p550
sg19
g78
sg21
S'--'
p551
sg23
S'10/12'
p552
sg25
S'11.5'
p553
sg27
S'--'
p554
sg29
S'--'
p555
sg31
S'W17-3'
p556
sg33
S'23'
p557
sg34
g76
sg35
S'@MIN'
p558
sg37
S'12'
p559
sg39
g10
sg40
S'--'
p560
ssg75
(dp561
g5
g290
sg7
g290
sg9
g290
sg11
g290
sg13
g290
sg15
S'Eric Ebron'
p562
sg17
S'2014'
p563
sg19
g75
sg21
g290
sg23
S'Bye'
p564
sg25
g290
sg27
g290
sg29
g290
sg31
g290
sg33
g290
sg34
g290
sg35
g290
sg37
g290
sg39
g290
sg40
g290
ssg152
(dp565
g5
S'--'
p566
sg7
S'--'
p567
sg9
g10
sg11
S'--'
p568
sg13
g10
sg15
S'Eric Ebron'
p569
sg17
S'2014'
p570
sg19
g152
sg21
S'--'
p571
sg23
S'10/26'
p572
sg25
S'--'
p573
sg27
S'--'
p574
sg29
S'--'
p575
sg31
S'W22-21'
p576
sg33
S'--'
p577
sg34
S'--'
p578
sg35
S'@ATL'
p579
sg37
S'--'
p580
sg39
S'--'
p581
sg40
S'--'
p582
sss.