(dp0
S'2015'
p1
(dp2
S'11'
p3
(dp4
S'RushTD'
p5
S'--'
p6
sS'RushYds'
p7
S'--'
p8
sS'GS'
p9
S'0'
p10
sS'Lost'
p11
S'--'
p12
sS'G'
p13
g10
sS'Player'
p14
S'Gabe Holmes'
p15
sS'Year'
p16
S'2015'
p17
sS'WK'
p18
S'11'
p19
sS'RushAvg'
p20
S'--'
p21
sS'Game Date'
p22
S'11/22'
p23
sS'RecAvg'
p24
S'--'
p25
sS'FUM'
p26
S'--'
p27
sS'RushAtt'
p28
S'--'
p29
sS'Result'
p30
S'L13-18'
p31
sS'RecYds'
p32
S'--'
p33
sS'Rec'
p34
S'--'
p35
sS'Opp'
p36
S'@DET'
p37
sS'RecLng'
p38
S'--'
p39
sS'RecTD'
p40
S'--'
p41
sS'RushLng'
p42
S'--'
p43
ssS'10'
p44
(dp45
g5
S'--'
p46
sg7
S'--'
p47
sg9
g10
sg11
S'--'
p48
sg13
g10
sg14
S'Gabe Holmes'
p49
sg16
S'2015'
p50
sg18
S'10'
p51
sg20
S'--'
p52
sg22
S'11/15'
p53
sg24
S'--'
p54
sg26
S'--'
p55
sg28
S'--'
p56
sg30
S'L14-30'
p57
sg32
S'--'
p58
sg34
S'--'
p59
sg36
S'MIN'
p60
sg38
S'--'
p61
sg40
S'--'
p62
sg42
S'--'
p63
ssS'13'
p64
(dp65
g5
S'--'
p66
sg7
S'--'
p67
sg9
g10
sg11
S'--'
p68
sg13
g10
sg14
S'Gabe Holmes'
p69
sg16
S'2015'
p70
sg18
S'13'
p71
sg20
S'--'
p72
sg22
S'12/06'
p73
sg24
S'--'
p74
sg26
S'--'
p75
sg28
S'--'
p76
sg30
S'L20-34'
p77
sg32
S'--'
p78
sg34
S'--'
p79
sg36
S'KC'
p80
sg38
S'--'
p81
sg40
S'--'
p82
sg42
S'--'
p83
ssS'12'
p84
(dp85
g5
S'--'
p86
sg7
S'--'
p87
sg9
g10
sg11
S'--'
p88
sg13
g10
sg14
S'Gabe Holmes'
p89
sg16
S'2015'
p90
sg18
S'12'
p91
sg20
S'--'
p92
sg22
S'11/29'
p93
sg24
S'--'
p94
sg26
S'--'
p95
sg28
S'--'
p96
sg30
S'W24-21'
p97
sg32
S'--'
p98
sg34
S'--'
p99
sg36
S'@TEN'
p100
sg38
S'--'
p101
sg40
S'--'
p102
sg42
S'--'
p103
ssS'15'
p104
(dp105
g5
S'--'
p106
sg7
S'--'
p107
sg9
g10
sg11
S'--'
p108
sg13
g10
sg14
S'Gabe Holmes'
p109
sg16
S'2015'
p110
sg18
S'15'
p111
sg20
S'--'
p112
sg22
S'12/20'
p113
sg24
S'--'
p114
sg26
S'--'
p115
sg28
S'--'
p116
sg30
S'L20-30'
p117
sg32
S'--'
p118
sg34
S'--'
p119
sg36
S'GB'
p120
sg38
S'--'
p121
sg40
S'--'
p122
sg42
S'--'
p123
ssS'14'
p124
(dp125
g5
S'--'
p126
sg7
S'--'
p127
sg9
g10
sg11
S'--'
p128
sg13
g10
sg14
S'Gabe Holmes'
p129
sg16
S'2015'
p130
sg18
S'14'
p131
sg20
S'--'
p132
sg22
S'12/13'
p133
sg24
S'--'
p134
sg26
S'--'
p135
sg28
S'--'
p136
sg30
S'W15-12'
p137
sg32
S'--'
p138
sg34
S'--'
p139
sg36
S'@DEN'
p140
sg38
S'--'
p141
sg40
S'--'
p142
sg42
S'--'
p143
ssS'17'
p144
(dp145
g5
S'--'
p146
sg7
S'--'
p147
sg9
g10
sg11
S'--'
p148
sg13
g10
sg14
S'Gabe Holmes'
p149
sg16
S'2015'
p150
sg18
S'17'
p151
sg20
S'--'
p152
sg22
S'01/03'
p153
sg24
S'--'
p154
sg26
S'--'
p155
sg28
S'--'
p156
sg30
S'L17-23'
p157
sg32
S'--'
p158
sg34
S'--'
p159
sg36
S'@KC'
p160
sg38
S'--'
p161
sg40
S'--'
p162
sg42
S'--'
p163
ssS'16'
p164
(dp165
g5
S'--'
p166
sg7
S'--'
p167
sg9
g10
sg11
S'--'
p168
sg13
g10
sg14
S'Gabe Holmes'
p169
sg16
S'2015'
p170
sg18
S'16'
p171
sg20
S'--'
p172
sg22
S'12/24'
p173
sg24
S'--'
p174
sg26
S'--'
p175
sg28
S'--'
p176
sg30
S'W23-20'
p177
sg32
S'--'
p178
sg34
S'--'
p179
sg36
S'SD'
p180
sg38
S'--'
p181
sg40
S'--'
p182
sg42
S'--'
p183
ssS'1'
p184
(dp185
g5
S'--'
p186
sg7
S'--'
p187
sg9
g10
sg11
S'--'
p188
sg13
g10
sg14
S'Gabe Holmes'
p189
sg16
S'2015'
p190
sg18
g184
sg20
S'--'
p191
sg22
S'09/13'
p192
sg24
S'--'
p193
sg26
S'--'
p194
sg28
S'--'
p195
sg30
S'L13-33'
p196
sg32
S'--'
p197
sg34
S'--'
p198
sg36
S'CIN'
p199
sg38
S'--'
p200
sg40
S'--'
p201
sg42
S'--'
p202
sss.