(dp0
S'2015'
p1
(dp2
S'11'
p3
(dp4
S'RushTD'
p5
S'--'
p6
sS'RushYds'
p7
S'--'
p8
sS'GS'
p9
S'1'
p10
sS'Lost'
p11
S'--'
p12
sS'G'
p13
g10
sS'Player'
p14
S'Garrett Celek'
p15
sS'Year'
p16
S'2015'
p17
sS'WK'
p18
S'11'
p19
sS'RushAvg'
p20
S'--'
p21
sS'Game Date'
p22
S'11/22'
p23
sS'RecAvg'
p24
S'17.5'
p25
sS'FUM'
p26
S'--'
p27
sS'RushAtt'
p28
S'--'
p29
sS'Result'
p30
S'L13-29'
p31
sS'RecYds'
p32
S'35'
p33
sS'Rec'
p34
S'2'
p35
sS'Opp'
p36
S'@SEA'
p37
sS'RecLng'
p38
S'33'
p39
sS'RecTD'
p40
S'0'
p41
sS'RushLng'
p42
S'--'
p43
ssS'10'
p44
(dp45
g5
S''
p46
sg7
g46
sg9
g46
sg11
g46
sg13
g46
sg14
S'Garrett Celek'
p47
sg16
S'2015'
p48
sg18
S'10'
p49
sg20
g46
sg22
S'Bye'
p50
sg24
g46
sg26
g46
sg28
g46
sg30
g46
sg32
g46
sg34
g46
sg36
g46
sg38
g46
sg40
g46
sg42
g46
ssS'13'
p51
(dp52
g5
S'--'
p53
sg7
S'--'
p54
sg9
g41
sg11
S'--'
p55
sg13
g41
sg14
S'Garrett Celek'
p56
sg16
S'2015'
p57
sg18
S'13'
p58
sg20
S'--'
p59
sg22
S'12/06'
p60
sg24
S'--'
p61
sg26
S'--'
p62
sg28
S'--'
p63
sg30
S'W26-20'
p64
sg32
S'--'
p65
sg34
S'--'
p66
sg36
S'@CHI'
p67
sg38
S'--'
p68
sg40
S'--'
p69
sg42
S'--'
p70
ssS'12'
p71
(dp72
g5
S'--'
p73
sg7
S'--'
p74
sg9
g41
sg11
S'--'
p75
sg13
g10
sg14
S'Garrett Celek'
p76
sg16
S'2015'
p77
sg18
S'12'
p78
sg20
S'--'
p79
sg22
S'11/29'
p80
sg24
S'--'
p81
sg26
S'--'
p82
sg28
S'--'
p83
sg30
S'L13-19'
p84
sg32
S'--'
p85
sg34
S'--'
p86
sg36
S'ARI'
p87
sg38
S'--'
p88
sg40
S'--'
p89
sg42
S'--'
p90
ssg10
(dp91
g5
S'--'
p92
sg7
S'--'
p93
sg9
g10
sg11
S'--'
p94
sg13
g10
sg14
S'Garrett Celek'
p95
sg16
S'2015'
p96
sg18
g10
sg20
S'--'
p97
sg22
S'09/14'
p98
sg24
S'13.3'
p99
sg26
S'--'
p100
sg28
S'--'
p101
sg30
S'W20-3'
p102
sg32
S'40'
p103
sg34
S'3'
p104
sg36
S'MIN'
p105
sg38
S'20'
p106
sg40
g41
sg42
S'--'
p107
ssg104
(dp108
g5
S'--'
p109
sg7
S'--'
p110
sg9
g41
sg11
S'--'
p111
sg13
g10
sg14
S'Garrett Celek'
p112
sg16
S'2015'
p113
sg18
g104
sg20
S'--'
p114
sg22
S'09/27'
p115
sg24
S'9.7'
p116
sg26
S'--'
p117
sg28
S'--'
p118
sg30
S'L7-47'
p119
sg32
S'29'
p120
sg34
g104
sg36
S'@ARI'
p121
sg38
S'12'
p122
sg40
g41
sg42
S'--'
p123
ssg35
(dp124
g5
S'--'
p125
sg7
S'--'
p126
sg9
g10
sg11
S'--'
p127
sg13
g10
sg14
S'Garrett Celek'
p128
sg16
S'2015'
p129
sg18
g35
sg20
S'--'
p130
sg22
S'09/20'
p131
sg24
S'5.0'
p132
sg26
S'--'
p133
sg28
S'--'
p134
sg30
S'L18-43'
p135
sg32
S'10'
p136
sg34
g35
sg36
S'@PIT'
p137
sg38
S'7'
p138
sg40
g41
sg42
S'--'
p139
ssS'5'
p140
(dp141
g5
S'--'
p142
sg7
S'--'
p143
sg9
g10
sg11
S'--'
p144
sg13
g10
sg14
S'Garrett Celek'
p145
sg16
S'2015'
p146
sg18
g140
sg20
S'--'
p147
sg22
S'10/11'
p148
sg24
S'8.7'
p149
sg26
S'--'
p150
sg28
S'--'
p151
sg30
S'L27-30'
p152
sg32
S'26'
p153
sg34
g104
sg36
S'@NYG'
p154
sg38
S'15'
p155
sg40
g10
sg42
S'--'
p156
ssS'4'
p157
(dp158
g5
S'--'
p159
sg7
S'--'
p160
sg9
g10
sg11
S'--'
p161
sg13
g10
sg14
S'Garrett Celek'
p162
sg16
S'2015'
p163
sg18
g157
sg20
S'--'
p164
sg22
S'10/04'
p165
sg24
S'8.7'
p166
sg26
S'--'
p167
sg28
S'--'
p168
sg30
S'L3-17'
p169
sg32
S'26'
p170
sg34
g104
sg36
S'GB'
p171
sg38
S'13'
p172
sg40
g41
sg42
S'--'
p173
ssg138
(dp174
g5
S'--'
p175
sg7
S'--'
p176
sg9
g10
sg11
S'--'
p177
sg13
g10
sg14
S'Garrett Celek'
p178
sg16
S'2015'
p179
sg18
g138
sg20
S'--'
p180
sg22
S'10/22'
p181
sg24
S'8.0'
p182
sg26
S'--'
p183
sg28
S'--'
p184
sg30
S'L3-20'
p185
sg32
S'8'
p186
sg34
g10
sg36
S'SEA'
p187
sg38
g186
sg40
g41
sg42
S'--'
p188
ssS'6'
p189
(dp190
g5
S'--'
p191
sg7
S'--'
p192
sg9
g10
sg11
S'--'
p193
sg13
g10
sg14
S'Garrett Celek'
p194
sg16
S'2015'
p195
sg18
g189
sg20
S'--'
p196
sg22
S'10/18'
p197
sg24
S'--'
p198
sg26
S'--'
p199
sg28
S'--'
p200
sg30
S'W25-20'
p201
sg32
g41
sg34
g41
sg36
S'BAL'
p202
sg38
S'--'
p203
sg40
g41
sg42
S'--'
p204
ssS'9'
p205
(dp206
g5
S'--'
p207
sg7
S'--'
p208
sg9
g41
sg11
S'--'
p209
sg13
g10
sg14
S'Garrett Celek'
p210
sg16
S'2015'
p211
sg18
g205
sg20
S'--'
p212
sg22
S'11/08'
p213
sg24
S'6.0'
p214
sg26
S'--'
p215
sg28
S'--'
p216
sg30
S'W17-16'
p217
sg32
S'12'
p218
sg34
g35
sg36
S'ATL'
p219
sg38
S'11T'
p220
sg40
g35
sg42
S'--'
p221
ssg186
(dp222
g5
S'--'
p223
sg7
S'--'
p224
sg9
g10
sg11
S'--'
p225
sg13
g10
sg14
S'Garrett Celek'
p226
sg16
S'2015'
p227
sg18
g186
sg20
S'--'
p228
sg22
S'11/01'
p229
sg24
S'--'
p230
sg26
S'--'
p231
sg28
S'--'
p232
sg30
S'L6-27'
p233
sg32
g41
sg34
g41
sg36
S'@STL'
p234
sg38
S'--'
p235
sg40
g41
sg42
S'--'
p236
sssS'2014'
p237
(dp238
g51
(dp239
g5
S'--'
p240
sg7
S'--'
p241
sg9
g10
sg11
S'--'
p242
sg13
g10
sg14
S'Garrett Celek'
p243
sg16
S'2014'
p244
sg18
S'13'
p245
sg20
S'--'
p246
sg22
S'11/27'
p247
sg24
S'--'
p248
sg26
S'--'
p249
sg28
S'--'
p250
sg30
S'L3-19'
p251
sg32
S'--'
p252
sg34
S'--'
p253
sg36
S'SEA'
p254
sg38
S'--'
p255
sg40
S'--'
p256
sg42
S'--'
p257
ssS'15'
p258
(dp259
g5
S'--'
p260
sg7
S'--'
p261
sg9
g41
sg11
S'--'
p262
sg13
g10
sg14
S'Garrett Celek'
p263
sg16
S'2014'
p264
sg18
S'15'
p265
sg20
S'--'
p266
sg22
S'12/14'
p267
sg24
S'31.0'
p268
sg26
S'--'
p269
sg28
S'--'
p270
sg30
S'L7-17'
p271
sg32
S'31'
p272
sg34
g10
sg36
S'@SEA'
p273
sg38
S'31'
p274
sg40
g41
sg42
S'--'
p275
ssS'14'
p276
(dp277
g5
S'--'
p278
sg7
S'--'
p279
sg9
g41
sg11
S'--'
p280
sg13
g10
sg14
S'Garrett Celek'
p281
sg16
S'2014'
p282
sg18
S'14'
p283
sg20
S'--'
p284
sg22
S'12/07'
p285
sg24
S'22.0'
p286
sg26
S'--'
p287
sg28
S'--'
p288
sg30
S'L13-24'
p289
sg32
S'22'
p290
sg34
g10
sg36
S'@OAK'
p291
sg38
S'22'
p292
sg40
g41
sg42
S'--'
p293
sssS'2013'
p294
(dp295
g3
(dp296
g5
S'--'
p297
sg7
S'--'
p298
sg9
g41
sg11
S'--'
p299
sg13
g41
sg14
S'Garrett Celek'
p300
sg16
S'2013'
p301
sg18
S'11'
p302
sg20
S'--'
p303
sg22
S'11/17'
p304
sg24
S'--'
p305
sg26
S'--'
p306
sg28
S'--'
p307
sg30
S'L20-23'
p308
sg32
S'--'
p309
sg34
S'--'
p310
sg36
S'@NO'
p311
sg38
S'--'
p312
sg40
S'--'
p313
sg42
S'--'
p314
ssg44
(dp315
g5
S'--'
p316
sg7
S'--'
p317
sg9
g41
sg11
S'--'
p318
sg13
g10
sg14
S'Garrett Celek'
p319
sg16
S'2013'
p320
sg18
S'10'
p321
sg20
S'--'
p322
sg22
S'11/10'
p323
sg24
S'--'
p324
sg26
S'--'
p325
sg28
S'--'
p326
sg30
S'L9-10'
p327
sg32
S'--'
p328
sg34
S'--'
p329
sg36
S'CAR'
p330
sg38
S'--'
p331
sg40
S'--'
p332
sg42
S'--'
p333
ssg51
(dp334
g5
S'--'
p335
sg7
S'--'
p336
sg9
g41
sg11
S'--'
p337
sg13
g41
sg14
S'Garrett Celek'
p338
sg16
S'2013'
p339
sg18
S'13'
p340
sg20
S'--'
p341
sg22
S'12/01'
p342
sg24
S'--'
p343
sg26
S'--'
p344
sg28
S'--'
p345
sg30
S'W23-13'
p346
sg32
S'--'
p347
sg34
S'--'
p348
sg36
S'STL'
p349
sg38
S'--'
p350
sg40
S'--'
p351
sg42
S'--'
p352
ssg71
(dp353
g5
S'--'
p354
sg7
S'--'
p355
sg9
g41
sg11
S'--'
p356
sg13
g41
sg14
S'Garrett Celek'
p357
sg16
S'2013'
p358
sg18
S'12'
p359
sg20
S'--'
p360
sg22
S'11/25'
p361
sg24
S'--'
p362
sg26
S'--'
p363
sg28
S'--'
p364
sg30
S'W27-6'
p365
sg32
S'--'
p366
sg34
S'--'
p367
sg36
S'@WAS'
p368
sg38
S'--'
p369
sg40
S'--'
p370
sg42
S'--'
p371
ssg258
(dp372
g5
S'--'
p373
sg7
S'--'
p374
sg9
g41
sg11
g41
sg13
g10
sg14
S'Garrett Celek'
p375
sg16
S'2013'
p376
sg18
S'15'
p377
sg20
S'--'
p378
sg22
S'12/15'
p379
sg24
S'8.0'
p380
sg26
g10
sg28
S'--'
p381
sg30
S'W33-14'
p382
sg32
g186
sg34
g10
sg36
S'@TB'
p383
sg38
g186
sg40
g41
sg42
S'--'
p384
ssg276
(dp385
g5
S'--'
p386
sg7
S'--'
p387
sg9
g41
sg11
S'--'
p388
sg13
g41
sg14
S'Garrett Celek'
p389
sg16
S'2013'
p390
sg18
S'14'
p391
sg20
S'--'
p392
sg22
S'12/08'
p393
sg24
S'--'
p394
sg26
S'--'
p395
sg28
S'--'
p396
sg30
S'W19-17'
p397
sg32
S'--'
p398
sg34
S'--'
p399
sg36
S'SEA'
p400
sg38
S'--'
p401
sg40
S'--'
p402
sg42
S'--'
p403
ssS'17'
p404
(dp405
g5
S'--'
p406
sg7
S'--'
p407
sg9
g41
sg11
S'--'
p408
sg13
g10
sg14
S'Garrett Celek'
p409
sg16
S'2013'
p410
sg18
S'17'
p411
sg20
S'--'
p412
sg22
S'12/29'
p413
sg24
S'--'
p414
sg26
S'--'
p415
sg28
S'--'
p416
sg30
S'W23-20'
p417
sg32
g41
sg34
g41
sg36
S'@ARI'
p418
sg38
S'--'
p419
sg40
g41
sg42
S'--'
p420
ssS'16'
p421
(dp422
g5
S'--'
p423
sg7
S'--'
p424
sg9
g41
sg11
S'--'
p425
sg13
g10
sg14
S'Garrett Celek'
p426
sg16
S'2013'
p427
sg18
S'16'
p428
sg20
S'--'
p429
sg22
S'12/23'
p430
sg24
S'--'
p431
sg26
S'--'
p432
sg28
S'--'
p433
sg30
S'W34-24'
p434
sg32
S'--'
p435
sg34
S'--'
p436
sg36
S'ATL'
p437
sg38
S'--'
p438
sg40
S'--'
p439
sg42
S'--'
p440
ssg10
(dp441
g5
S'--'
p442
sg7
S'--'
p443
sg9
g41
sg11
S'--'
p444
sg13
g10
sg14
S'Garrett Celek'
p445
sg16
S'2013'
p446
sg18
g10
sg20
S'--'
p447
sg22
S'09/08'
p448
sg24
S'--'
p449
sg26
S'--'
p450
sg28
S'--'
p451
sg30
S'W34-28'
p452
sg32
S'--'
p453
sg34
S'--'
p454
sg36
S'GB'
p455
sg38
S'--'
p456
sg40
S'--'
p457
sg42
S'--'
p458
ssg104
(dp459
g5
S'--'
p460
sg7
S'--'
p461
sg9
g41
sg11
S'--'
p462
sg13
g10
sg14
S'Garrett Celek'
p463
sg16
S'2013'
p464
sg18
g104
sg20
S'--'
p465
sg22
S'09/22'
p466
sg24
S'30.0'
p467
sg26
S'--'
p468
sg28
S'--'
p469
sg30
S'L7-27'
p470
sg32
S'30'
p471
sg34
g10
sg36
S'IND'
p472
sg38
S'30'
p473
sg40
g41
sg42
S'--'
p474
ssg35
(dp475
g5
S'--'
p476
sg7
S'--'
p477
sg9
g10
sg11
S'--'
p478
sg13
g10
sg14
S'Garrett Celek'
p479
sg16
S'2013'
p480
sg18
g35
sg20
S'--'
p481
sg22
S'09/15'
p482
sg24
S'--'
p483
sg26
S'--'
p484
sg28
S'--'
p485
sg30
S'L3-29'
p486
sg32
S'--'
p487
sg34
S'--'
p488
sg36
S'@SEA'
p489
sg38
S'--'
p490
sg40
S'--'
p491
sg42
S'--'
p492
ssg140
(dp493
g5
S'--'
p494
sg7
S'--'
p495
sg9
g41
sg11
S'--'
p496
sg13
g10
sg14
S'Garrett Celek'
p497
sg16
S'2013'
p498
sg18
g140
sg20
S'--'
p499
sg22
S'10/06'
p500
sg24
S'--'
p501
sg26
S'--'
p502
sg28
S'--'
p503
sg30
S'W34-3'
p504
sg32
S'--'
p505
sg34
S'--'
p506
sg36
S'HOU'
p507
sg38
S'--'
p508
sg40
S'--'
p509
sg42
S'--'
p510
ssg157
(dp511
g5
S'--'
p512
sg7
S'--'
p513
sg9
g41
sg11
S'--'
p514
sg13
g10
sg14
S'Garrett Celek'
p515
sg16
S'2013'
p516
sg18
g157
sg20
S'--'
p517
sg22
S'09/26'
p518
sg24
S'--'
p519
sg26
S'--'
p520
sg28
S'--'
p521
sg30
S'W35-11'
p522
sg32
S'--'
p523
sg34
S'--'
p524
sg36
S'@STL'
p525
sg38
S'--'
p526
sg40
S'--'
p527
sg42
S'--'
p528
ssg138
(dp529
g5
S'--'
p530
sg7
S'--'
p531
sg9
g41
sg11
S'--'
p532
sg13
g10
sg14
S'Garrett Celek'
p533
sg16
S'2013'
p534
sg18
g138
sg20
S'--'
p535
sg22
S'10/20'
p536
sg24
S'--'
p537
sg26
S'--'
p538
sg28
S'--'
p539
sg30
S'W31-17'
p540
sg32
S'--'
p541
sg34
S'--'
p542
sg36
S'@TEN'
p543
sg38
S'--'
p544
sg40
S'--'
p545
sg42
S'--'
p546
ssg189
(dp547
g5
S'--'
p548
sg7
S'--'
p549
sg9
g41
sg11
S'--'
p550
sg13
g10
sg14
S'Garrett Celek'
p551
sg16
S'2013'
p552
sg18
g189
sg20
S'--'
p553
sg22
S'10/13'
p554
sg24
S'--'
p555
sg26
S'--'
p556
sg28
S'--'
p557
sg30
S'W32-20'
p558
sg32
S'--'
p559
sg34
S'--'
p560
sg36
S'ARI'
p561
sg38
S'--'
p562
sg40
S'--'
p563
sg42
S'--'
p564
ssg205
(dp565
g5
g46
sg7
g46
sg9
g46
sg11
g46
sg13
g46
sg14
S'Garrett Celek'
p566
sg16
S'2013'
p567
sg18
g205
sg20
g46
sg22
S'Bye'
p568
sg24
g46
sg26
g46
sg28
g46
sg30
g46
sg32
g46
sg34
g46
sg36
g46
sg38
g46
sg40
g46
sg42
g46
ssg186
(dp569
g5
S'--'
p570
sg7
S'--'
p571
sg9
g41
sg11
S'--'
p572
sg13
g10
sg14
S'Garrett Celek'
p573
sg16
S'2013'
p574
sg18
g186
sg20
S'--'
p575
sg22
S'10/27'
p576
sg24
S'--'
p577
sg26
S'--'
p578
sg28
S'--'
p579
sg30
S'W42-10'
p580
sg32
S'--'
p581
sg34
S'--'
p582
sg36
S'@JAC'
p583
sg38
S'--'
p584
sg40
S'--'
p585
sg42
S'--'
p586
sssS'2012'
p587
(dp588
g3
(dp589
g5
S'--'
p590
sg7
S'--'
p591
sg9
g41
sg11
S'--'
p592
sg13
g10
sg14
S'Garrett Celek'
p593
sg16
S'2012'
p594
sg18
S'11'
p595
sg20
S'--'
p596
sg22
S'11/19'
p597
sg24
S'--'
p598
sg26
S'--'
p599
sg28
S'--'
p600
sg30
S'W32-7'
p601
sg32
S'--'
p602
sg34
S'--'
p603
sg36
S'CHI'
p604
sg38
S'--'
p605
sg40
S'--'
p606
sg42
S'--'
p607
ssg44
(dp608
g5
S'--'
p609
sg7
S'--'
p610
sg9
g41
sg11
S'--'
p611
sg13
g10
sg14
S'Garrett Celek'
p612
sg16
S'2012'
p613
sg18
S'10'
p614
sg20
S'--'
p615
sg22
S'11/11'
p616
sg24
S'--'
p617
sg26
S'--'
p618
sg28
S'--'
p619
sg30
S'T24-24'
p620
sg32
S'--'
p621
sg34
S'--'
p622
sg36
S'STL'
p623
sg38
S'--'
p624
sg40
S'--'
p625
sg42
S'--'
p626
ssg51
(dp627
g5
S'--'
p628
sg7
S'--'
p629
sg9
g41
sg11
S'--'
p630
sg13
g10
sg14
S'Garrett Celek'
p631
sg16
S'2012'
p632
sg18
S'13'
p633
sg20
S'--'
p634
sg22
S'12/02'
p635
sg24
S'--'
p636
sg26
S'--'
p637
sg28
S'--'
p638
sg30
S'L13-16'
p639
sg32
S'--'
p640
sg34
S'--'
p641
sg36
S'@STL'
p642
sg38
S'--'
p643
sg40
S'--'
p644
sg42
S'--'
p645
ssg71
(dp646
g5
S'--'
p647
sg7
S'--'
p648
sg9
g41
sg11
S'--'
p649
sg13
g10
sg14
S'Garrett Celek'
p650
sg16
S'2012'
p651
sg18
S'12'
p652
sg20
S'--'
p653
sg22
S'11/25'
p654
sg24
S'--'
p655
sg26
S'--'
p656
sg28
S'--'
p657
sg30
S'W31-21'
p658
sg32
S'--'
p659
sg34
S'--'
p660
sg36
S'@NO'
p661
sg38
S'--'
p662
sg40
S'--'
p663
sg42
S'--'
p664
ssg258
(dp665
g5
S'--'
p666
sg7
S'--'
p667
sg9
g41
sg11
S'--'
p668
sg13
g10
sg14
S'Garrett Celek'
p669
sg16
S'2012'
p670
sg18
S'15'
p671
sg20
S'--'
p672
sg22
S'12/16'
p673
sg24
S'--'
p674
sg26
S'--'
p675
sg28
S'--'
p676
sg30
S'W41-34'
p677
sg32
S'--'
p678
sg34
S'--'
p679
sg36
S'@NE'
p680
sg38
S'--'
p681
sg40
S'--'
p682
sg42
S'--'
p683
ssg276
(dp684
g5
S'--'
p685
sg7
S'--'
p686
sg9
g41
sg11
S'--'
p687
sg13
g10
sg14
S'Garrett Celek'
p688
sg16
S'2012'
p689
sg18
S'14'
p690
sg20
S'--'
p691
sg22
S'12/09'
p692
sg24
S'--'
p693
sg26
S'--'
p694
sg28
S'--'
p695
sg30
S'W27-13'
p696
sg32
S'--'
p697
sg34
S'--'
p698
sg36
S'MIA'
p699
sg38
S'--'
p700
sg40
S'--'
p701
sg42
S'--'
p702
ssg404
(dp703
g5
S'--'
p704
sg7
S'--'
p705
sg9
g41
sg11
S'--'
p706
sg13
g10
sg14
S'Garrett Celek'
p707
sg16
S'2012'
p708
sg18
S'17'
p709
sg20
S'--'
p710
sg22
S'12/30'
p711
sg24
S'--'
p712
sg26
S'--'
p713
sg28
S'--'
p714
sg30
S'W27-13'
p715
sg32
g41
sg34
g41
sg36
S'ARI'
p716
sg38
S'--'
p717
sg40
g41
sg42
S'--'
p718
ssg421
(dp719
g5
S'--'
p720
sg7
S'--'
p721
sg9
g41
sg11
S'--'
p722
sg13
g10
sg14
S'Garrett Celek'
p723
sg16
S'2012'
p724
sg18
S'16'
p725
sg20
S'--'
p726
sg22
S'12/23'
p727
sg24
S'20.5'
p728
sg26
S'--'
p729
sg28
S'--'
p730
sg30
S'L13-42'
p731
sg32
S'41'
p732
sg34
g35
sg36
S'@SEA'
p733
sg38
S'35'
p734
sg40
g41
sg42
S'--'
p735
ssg10
(dp736
g5
S'--'
p737
sg7
S'--'
p738
sg9
g41
sg11
S'--'
p739
sg13
g41
sg14
S'Garrett Celek'
p740
sg16
S'2012'
p741
sg18
g10
sg20
S'--'
p742
sg22
S'09/09'
p743
sg24
S'--'
p744
sg26
S'--'
p745
sg28
S'--'
p746
sg30
S'W30-22'
p747
sg32
S'--'
p748
sg34
S'--'
p749
sg36
S'@GB'
p750
sg38
S'--'
p751
sg40
S'--'
p752
sg42
S'--'
p753
ssg104
(dp754
g5
S'--'
p755
sg7
S'--'
p756
sg9
g41
sg11
S'--'
p757
sg13
g41
sg14
S'Garrett Celek'
p758
sg16
S'2012'
p759
sg18
g104
sg20
S'--'
p760
sg22
S'09/23'
p761
sg24
S'--'
p762
sg26
S'--'
p763
sg28
S'--'
p764
sg30
S'L13-24'
p765
sg32
S'--'
p766
sg34
S'--'
p767
sg36
S'@MIN'
p768
sg38
S'--'
p769
sg40
S'--'
p770
sg42
S'--'
p771
ssg35
(dp772
g5
S'--'
p773
sg7
S'--'
p774
sg9
g41
sg11
S'--'
p775
sg13
g41
sg14
S'Garrett Celek'
p776
sg16
S'2012'
p777
sg18
g35
sg20
S'--'
p778
sg22
S'09/16'
p779
sg24
S'--'
p780
sg26
S'--'
p781
sg28
S'--'
p782
sg30
S'W27-19'
p783
sg32
S'--'
p784
sg34
S'--'
p785
sg36
S'DET'
p786
sg38
S'--'
p787
sg40
S'--'
p788
sg42
S'--'
p789
ssg140
(dp790
g5
S'--'
p791
sg7
S'--'
p792
sg9
g41
sg11
S'--'
p793
sg13
g10
sg14
S'Garrett Celek'
p794
sg16
S'2012'
p795
sg18
g140
sg20
S'--'
p796
sg22
S'10/07'
p797
sg24
S'4.0'
p798
sg26
S'--'
p799
sg28
S'--'
p800
sg30
S'W45-3'
p801
sg32
g157
sg34
g10
sg36
S'BUF'
p802
sg38
g157
sg40
g41
sg42
S'--'
p803
ssg157
(dp804
g5
S'--'
p805
sg7
S'--'
p806
sg9
g41
sg11
S'--'
p807
sg13
g10
sg14
S'Garrett Celek'
p808
sg16
S'2012'
p809
sg18
g157
sg20
S'--'
p810
sg22
S'09/30'
p811
sg24
S'--'
p812
sg26
S'--'
p813
sg28
S'--'
p814
sg30
S'W34-0'
p815
sg32
S'--'
p816
sg34
S'--'
p817
sg36
S'@NYJ'
p818
sg38
S'--'
p819
sg40
S'--'
p820
sg42
S'--'
p821
ssg138
(dp822
g5
S'--'
p823
sg7
S'--'
p824
sg9
g41
sg11
S'--'
p825
sg13
g10
sg14
S'Garrett Celek'
p826
sg16
S'2012'
p827
sg18
g138
sg20
S'--'
p828
sg22
S'10/18'
p829
sg24
S'--'
p830
sg26
S'--'
p831
sg28
S'--'
p832
sg30
S'W13-6'
p833
sg32
S'--'
p834
sg34
S'--'
p835
sg36
S'SEA'
p836
sg38
S'--'
p837
sg40
S'--'
p838
sg42
S'--'
p839
ssg189
(dp840
g5
S'--'
p841
sg7
S'--'
p842
sg9
g41
sg11
S'--'
p843
sg13
g10
sg14
S'Garrett Celek'
p844
sg16
S'2012'
p845
sg18
g189
sg20
S'--'
p846
sg22
S'10/14'
p847
sg24
S'6.0'
p848
sg26
S'--'
p849
sg28
S'--'
p850
sg30
S'L3-26'
p851
sg32
g189
sg34
g10
sg36
S'NYG'
p852
sg38
g189
sg40
g41
sg42
S'--'
p853
ssg205
(dp854
g5
g46
sg7
g46
sg9
g46
sg11
g46
sg13
g46
sg14
S'Garrett Celek'
p855
sg16
S'2012'
p856
sg18
g205
sg20
g46
sg22
S'Bye'
p857
sg24
g46
sg26
g46
sg28
g46
sg30
g46
sg32
g46
sg34
g46
sg36
g46
sg38
g46
sg40
g46
sg42
g46
ssg186
(dp858
g5
S'--'
p859
sg7
S'--'
p860
sg9
g41
sg11
S'--'
p861
sg13
g10
sg14
S'Garrett Celek'
p862
sg16
S'2012'
p863
sg18
g186
sg20
S'--'
p864
sg22
S'10/29'
p865
sg24
S'--'
p866
sg26
S'--'
p867
sg28
S'--'
p868
sg30
S'W24-3'
p869
sg32
S'--'
p870
sg34
S'--'
p871
sg36
S'@ARI'
p872
sg38
S'--'
p873
sg40
S'--'
p874
sg42
S'--'
p875
sss.