(dp0
S'2015'
p1
(dp2
S'11'
p3
(dp4
S'RushTD'
p5
S'--'
p6
sS'RushYds'
p7
S'--'
p8
sS'GS'
p9
S'0'
p10
sS'Lost'
p11
S'--'
p12
sS'G'
p13
g10
sS'Player'
p14
S'Garrett Graham'
p15
sS'Year'
p16
S'2015'
p17
sS'WK'
p18
S'11'
p19
sS'RushAvg'
p20
S'--'
p21
sS'Game Date'
p22
S'11/22'
p23
sS'RecAvg'
p24
S'--'
p25
sS'FUM'
p26
S'--'
p27
sS'RushAtt'
p28
S'--'
p29
sS'Result'
p30
S'W24-17'
p31
sS'RecYds'
p32
S'--'
p33
sS'Rec'
p34
S'--'
p35
sS'Opp'
p36
S'NYJ'
p37
sS'RecLng'
p38
S'--'
p39
sS'RecTD'
p40
S'--'
p41
sS'RushLng'
p42
S'--'
p43
ssS'10'
p44
(dp45
g5
S'--'
p46
sg7
S'--'
p47
sg9
g10
sg11
S'--'
p48
sg13
g10
sg14
S'Garrett Graham'
p49
sg16
S'2015'
p50
sg18
S'10'
p51
sg20
S'--'
p52
sg22
S'11/16'
p53
sg24
S'--'
p54
sg26
S'--'
p55
sg28
S'--'
p56
sg30
S'W10-6'
p57
sg32
S'--'
p58
sg34
S'--'
p59
sg36
S'@CIN'
p60
sg38
S'--'
p61
sg40
S'--'
p62
sg42
S'--'
p63
ssS'13'
p64
(dp65
g5
S'--'
p66
sg7
S'--'
p67
sg9
g10
sg11
S'--'
p68
sg13
g10
sg14
S'Garrett Graham'
p69
sg16
S'2015'
p70
sg18
S'13'
p71
sg20
S'--'
p72
sg22
S'12/06'
p73
sg24
S'--'
p74
sg26
S'--'
p75
sg28
S'--'
p76
sg30
S'L21-30'
p77
sg32
S'--'
p78
sg34
S'--'
p79
sg36
S'@BUF'
p80
sg38
S'--'
p81
sg40
S'--'
p82
sg42
S'--'
p83
ssS'12'
p84
(dp85
g5
S'--'
p86
sg7
S'--'
p87
sg9
g10
sg11
S'--'
p88
sg13
g10
sg14
S'Garrett Graham'
p89
sg16
S'2015'
p90
sg18
S'12'
p91
sg20
S'--'
p92
sg22
S'11/29'
p93
sg24
S'--'
p94
sg26
S'--'
p95
sg28
S'--'
p96
sg30
S'W24-6'
p97
sg32
S'--'
p98
sg34
S'--'
p99
sg36
S'NO'
p100
sg38
S'--'
p101
sg40
S'--'
p102
sg42
S'--'
p103
ssS'15'
p104
(dp105
g5
S'--'
p106
sg7
S'--'
p107
sg9
g10
sg11
S'--'
p108
sg13
g10
sg14
S'Garrett Graham'
p109
sg16
S'2015'
p110
sg18
S'15'
p111
sg20
S'--'
p112
sg22
S'12/20'
p113
sg24
S'--'
p114
sg26
S'--'
p115
sg28
S'--'
p116
sg30
S'W16-10'
p117
sg32
S'--'
p118
sg34
S'--'
p119
sg36
S'@IND'
p120
sg38
S'--'
p121
sg40
S'--'
p122
sg42
S'--'
p123
ssS'14'
p124
(dp125
g5
S'--'
p126
sg7
S'--'
p127
sg9
g10
sg11
S'--'
p128
sg13
g10
sg14
S'Garrett Graham'
p129
sg16
S'2015'
p130
sg18
S'14'
p131
sg20
S'--'
p132
sg22
S'12/13'
p133
sg24
S'--'
p134
sg26
S'--'
p135
sg28
S'--'
p136
sg30
S'L6-27'
p137
sg32
S'--'
p138
sg34
S'--'
p139
sg36
S'NE'
p140
sg38
S'--'
p141
sg40
S'--'
p142
sg42
S'--'
p143
ssS'17'
p144
(dp145
g5
S'--'
p146
sg7
S'--'
p147
sg9
g10
sg11
S'--'
p148
sg13
g10
sg14
S'Garrett Graham'
p149
sg16
S'2015'
p150
sg18
S'17'
p151
sg20
S'--'
p152
sg22
S'01/03'
p153
sg24
S'--'
p154
sg26
S'--'
p155
sg28
S'--'
p156
sg30
S'W30-6'
p157
sg32
S'--'
p158
sg34
S'--'
p159
sg36
S'JAC'
p160
sg38
S'--'
p161
sg40
S'--'
p162
sg42
S'--'
p163
ssS'16'
p164
(dp165
g5
S'--'
p166
sg7
S'--'
p167
sg9
g10
sg11
S'--'
p168
sg13
g10
sg14
S'Garrett Graham'
p169
sg16
S'2015'
p170
sg18
S'16'
p171
sg20
S'--'
p172
sg22
S'12/27'
p173
sg24
S'--'
p174
sg26
S'--'
p175
sg28
S'--'
p176
sg30
S'W34-6'
p177
sg32
S'--'
p178
sg34
S'--'
p179
sg36
S'@TEN'
p180
sg38
S'--'
p181
sg40
S'--'
p182
sg42
S'--'
p183
ssS'1'
p184
(dp185
g5
S'--'
p186
sg7
S'--'
p187
sg9
g10
sg11
S'--'
p188
sg13
g184
sg14
S'Garrett Graham'
p189
sg16
S'2015'
p190
sg18
g184
sg20
S'--'
p191
sg22
S'09/13'
p192
sg24
S'--'
p193
sg26
S'--'
p194
sg28
S'--'
p195
sg30
S'L20-27'
p196
sg32
g10
sg34
g10
sg36
S'KC'
p197
sg38
S'--'
p198
sg40
g10
sg42
S'--'
p199
ssS'3'
p200
(dp201
g5
S'--'
p202
sg7
S'--'
p203
sg9
g10
sg11
S'--'
p204
sg13
g184
sg14
S'Garrett Graham'
p205
sg16
S'2015'
p206
sg18
g200
sg20
S'--'
p207
sg22
S'09/27'
p208
sg24
S'9.0'
p209
sg26
S'--'
p210
sg28
S'--'
p211
sg30
S'W19-9'
p212
sg32
S'9'
p213
sg34
g184
sg36
S'TB'
p214
sg38
g213
sg40
g10
sg42
S'--'
p215
ssS'2'
p216
(dp217
g5
S'--'
p218
sg7
S'--'
p219
sg9
g184
sg11
S'--'
p220
sg13
g184
sg14
S'Garrett Graham'
p221
sg16
S'2015'
p222
sg18
g216
sg20
S'--'
p223
sg22
S'09/20'
p224
sg24
S'7.0'
p225
sg26
S'--'
p226
sg28
S'--'
p227
sg30
S'L17-24'
p228
sg32
S'7'
p229
sg34
g184
sg36
S'@CAR'
p230
sg38
S'7T'
p231
sg40
g184
sg42
S'--'
p232
ssS'5'
p233
(dp234
g5
S'--'
p235
sg7
S'--'
p236
sg9
g10
sg11
S'--'
p237
sg13
g184
sg14
S'Garrett Graham'
p238
sg16
S'2015'
p239
sg18
g233
sg20
S'--'
p240
sg22
S'10/08'
p241
sg24
S'8.0'
p242
sg26
S'--'
p243
sg28
S'--'
p244
sg30
S'L20-27'
p245
sg32
S'8'
p246
sg34
g184
sg36
S'IND'
p247
sg38
g246
sg40
g10
sg42
S'--'
p248
ssS'4'
p249
(dp250
g5
S'--'
p251
sg7
S'--'
p252
sg9
g10
sg11
S'--'
p253
sg13
g184
sg14
S'Garrett Graham'
p254
sg16
S'2015'
p255
sg18
g249
sg20
S'--'
p256
sg22
S'10/04'
p257
sg24
S'6.0'
p258
sg26
S'--'
p259
sg28
S'--'
p260
sg30
S'L21-48'
p261
sg32
S'6'
p262
sg34
g184
sg36
S'@ATL'
p263
sg38
g262
sg40
g10
sg42
S'--'
p264
ssg229
(dp265
g5
S'--'
p266
sg7
S'--'
p267
sg9
g184
sg11
S'--'
p268
sg13
g184
sg14
S'Garrett Graham'
p269
sg16
S'2015'
p270
sg18
g229
sg20
S'--'
p271
sg22
S'10/25'
p272
sg24
S'--'
p273
sg26
S'--'
p274
sg28
S'--'
p275
sg30
S'L26-44'
p276
sg32
g10
sg34
g10
sg36
S'@MIA'
p277
sg38
S'--'
p278
sg40
g10
sg42
S'--'
p279
ssg262
(dp280
g5
S'--'
p281
sg7
S'--'
p282
sg9
g10
sg11
S'--'
p283
sg13
g184
sg14
S'Garrett Graham'
p284
sg16
S'2015'
p285
sg18
g262
sg20
S'--'
p286
sg22
S'10/18'
p287
sg24
S'--'
p288
sg26
S'--'
p289
sg28
S'--'
p290
sg30
S'W31-20'
p291
sg32
S'--'
p292
sg34
S'--'
p293
sg36
S'@JAC'
p294
sg38
S'--'
p295
sg40
S'--'
p296
sg42
S'--'
p297
ssg213
(dp298
g5
S''
p299
sg7
g299
sg9
g299
sg11
g299
sg13
g299
sg14
S'Garrett Graham'
p300
sg16
S'2015'
p301
sg18
g213
sg20
g299
sg22
S'Bye'
p302
sg24
g299
sg26
g299
sg28
g299
sg30
g299
sg32
g299
sg34
g299
sg36
g299
sg38
g299
sg40
g299
sg42
g299
ssg246
(dp303
g5
S'--'
p304
sg7
S'--'
p305
sg9
g10
sg11
S'--'
p306
sg13
g184
sg14
S'Garrett Graham'
p307
sg16
S'2015'
p308
sg18
g246
sg20
S'--'
p309
sg22
S'11/01'
p310
sg24
S'--'
p311
sg26
S'--'
p312
sg28
S'--'
p313
sg30
S'W20-6'
p314
sg32
g10
sg34
g10
sg36
S'TEN'
p315
sg38
S'--'
p316
sg40
g10
sg42
S'--'
p317
sssS'2014'
p318
(dp319
g3
(dp320
g5
S'--'
p321
sg7
S'--'
p322
sg9
g184
sg11
S'--'
p323
sg13
g184
sg14
S'Garrett Graham'
p324
sg16
S'2014'
p325
sg18
S'11'
p326
sg20
S'--'
p327
sg22
S'11/16'
p328
sg24
S'17.0'
p329
sg26
S'--'
p330
sg28
S'--'
p331
sg30
S'W23-7'
p332
sg32
S'34'
p333
sg34
g216
sg36
S'@CLE'
p334
sg38
S'20T'
p335
sg40
g184
sg42
S'--'
p336
ssg44
(dp337
g5
g299
sg7
g299
sg9
g299
sg11
g299
sg13
g299
sg14
S'Garrett Graham'
p338
sg16
S'2014'
p339
sg18
S'10'
p340
sg20
g299
sg22
S'Bye'
p341
sg24
g299
sg26
g299
sg28
g299
sg30
g299
sg32
g299
sg34
g299
sg36
g299
sg38
g299
sg40
g299
sg42
g299
ssg64
(dp342
g5
S'--'
p343
sg7
S'--'
p344
sg9
g184
sg11
S'--'
p345
sg13
g184
sg14
S'Garrett Graham'
p346
sg16
S'2014'
p347
sg18
S'13'
p348
sg20
S'--'
p349
sg22
S'11/30'
p350
sg24
S'--'
p351
sg26
S'--'
p352
sg28
S'--'
p353
sg30
S'W45-21'
p354
sg32
S'--'
p355
sg34
S'--'
p356
sg36
S'TEN'
p357
sg38
S'--'
p358
sg40
S'--'
p359
sg42
S'--'
p360
ssg84
(dp361
g5
S'--'
p362
sg7
S'--'
p363
sg9
g184
sg11
S'--'
p364
sg13
g184
sg14
S'Garrett Graham'
p365
sg16
S'2014'
p366
sg18
S'12'
p367
sg20
S'--'
p368
sg22
S'11/23'
p369
sg24
S'10.3'
p370
sg26
S'--'
p371
sg28
S'--'
p372
sg30
S'L13-22'
p373
sg32
S'41'
p374
sg34
g249
sg36
S'CIN'
p375
sg38
S'16'
p376
sg40
g10
sg42
S'--'
p377
ssg104
(dp378
g5
S'--'
p379
sg7
S'--'
p380
sg9
g10
sg11
S'--'
p381
sg13
g10
sg14
S'Garrett Graham'
p382
sg16
S'2014'
p383
sg18
S'15'
p384
sg20
S'--'
p385
sg22
S'12/14'
p386
sg24
S'--'
p387
sg26
S'--'
p388
sg28
S'--'
p389
sg30
S'L10-17'
p390
sg32
S'--'
p391
sg34
S'--'
p392
sg36
S'@IND'
p393
sg38
S'--'
p394
sg40
S'--'
p395
sg42
S'--'
p396
ssg124
(dp397
g5
S'--'
p398
sg7
S'--'
p399
sg9
g10
sg11
S'--'
p400
sg13
g10
sg14
S'Garrett Graham'
p401
sg16
S'2014'
p402
sg18
S'14'
p403
sg20
S'--'
p404
sg22
S'12/07'
p405
sg24
S'--'
p406
sg26
S'--'
p407
sg28
S'--'
p408
sg30
S'W27-13'
p409
sg32
S'--'
p410
sg34
S'--'
p411
sg36
S'@JAC'
p412
sg38
S'--'
p413
sg40
S'--'
p414
sg42
S'--'
p415
ssg144
(dp416
g5
S'--'
p417
sg7
S'--'
p418
sg9
g10
sg11
S'--'
p419
sg13
g10
sg14
S'Garrett Graham'
p420
sg16
S'2014'
p421
sg18
S'17'
p422
sg20
S'--'
p423
sg22
S'12/28'
p424
sg24
S'--'
p425
sg26
S'--'
p426
sg28
S'--'
p427
sg30
S'W23-17'
p428
sg32
S'--'
p429
sg34
S'--'
p430
sg36
S'JAC'
p431
sg38
S'--'
p432
sg40
S'--'
p433
sg42
S'--'
p434
ssg164
(dp435
g5
S'--'
p436
sg7
S'--'
p437
sg9
g10
sg11
S'--'
p438
sg13
g10
sg14
S'Garrett Graham'
p439
sg16
S'2014'
p440
sg18
S'16'
p441
sg20
S'--'
p442
sg22
S'12/21'
p443
sg24
S'--'
p444
sg26
S'--'
p445
sg28
S'--'
p446
sg30
S'W25-13'
p447
sg32
S'--'
p448
sg34
S'--'
p449
sg36
S'BAL'
p450
sg38
S'--'
p451
sg40
S'--'
p452
sg42
S'--'
p453
ssg184
(dp454
g5
S'--'
p455
sg7
S'--'
p456
sg9
g10
sg11
S'--'
p457
sg13
g10
sg14
S'Garrett Graham'
p458
sg16
S'2014'
p459
sg18
g184
sg20
S'--'
p460
sg22
S'09/07'
p461
sg24
S'--'
p462
sg26
S'--'
p463
sg28
S'--'
p464
sg30
S'W17-6'
p465
sg32
S'--'
p466
sg34
S'--'
p467
sg36
S'WAS'
p468
sg38
S'--'
p469
sg40
S'--'
p470
sg42
S'--'
p471
ssg200
(dp472
g5
S'--'
p473
sg7
S'--'
p474
sg9
g10
sg11
S'--'
p475
sg13
g184
sg14
S'Garrett Graham'
p476
sg16
S'2014'
p477
sg18
g200
sg20
S'--'
p478
sg22
S'09/21'
p479
sg24
S'8.2'
p480
sg26
S'--'
p481
sg28
S'--'
p482
sg30
S'L17-30'
p483
sg32
S'41'
p484
sg34
g233
sg36
S'@NYG'
p485
sg38
S'11'
p486
sg40
g10
sg42
S'--'
p487
ssg216
(dp488
g5
S'--'
p489
sg7
S'--'
p490
sg9
g184
sg11
S'--'
p491
sg13
g184
sg14
S'Garrett Graham'
p492
sg16
S'2014'
p493
sg18
g216
sg20
S'--'
p494
sg22
S'09/14'
p495
sg24
S'26.0'
p496
sg26
S'--'
p497
sg28
S'--'
p498
sg30
S'W30-14'
p499
sg32
S'26'
p500
sg34
g184
sg36
S'@OAK'
p501
sg38
S'26'
p502
sg40
g10
sg42
S'--'
p503
ssg233
(dp504
g5
S'--'
p505
sg7
S'--'
p506
sg9
g184
sg11
S'--'
p507
sg13
g184
sg14
S'Garrett Graham'
p508
sg16
S'2014'
p509
sg18
g233
sg20
S'--'
p510
sg22
S'10/05'
p511
sg24
S'3.0'
p512
sg26
S'--'
p513
sg28
S'--'
p514
sg30
S'L17-20'
p515
sg32
g200
sg34
g184
sg36
S'@DAL'
p516
sg38
g200
sg40
g10
sg42
S'--'
p517
ssg249
(dp518
g5
S'--'
p519
sg7
S'--'
p520
sg9
g10
sg11
S'--'
p521
sg13
g184
sg14
S'Garrett Graham'
p522
sg16
S'2014'
p523
sg18
g249
sg20
S'--'
p524
sg22
S'09/28'
p525
sg24
S'9.3'
p526
sg26
S'--'
p527
sg28
S'--'
p528
sg30
S'W23-17'
p529
sg32
S'28'
p530
sg34
g200
sg36
S'BUF'
p531
sg38
S'12'
p532
sg40
g10
sg42
S'--'
p533
ssg229
(dp534
g5
S'--'
p535
sg7
S'--'
p536
sg9
g184
sg11
S'--'
p537
sg13
g184
sg14
S'Garrett Graham'
p538
sg16
S'2014'
p539
sg18
g229
sg20
S'--'
p540
sg22
S'10/20'
p541
sg24
S'12.0'
p542
sg26
S'--'
p543
sg28
S'--'
p544
sg30
S'L23-30'
p545
sg32
S'24'
p546
sg34
g216
sg36
S'@PIT'
p547
sg38
S'18'
p548
sg40
g10
sg42
S'--'
p549
ssg262
(dp550
g5
S'--'
p551
sg7
S'--'
p552
sg9
g184
sg11
S'--'
p553
sg13
g184
sg14
S'Garrett Graham'
p554
sg16
S'2014'
p555
sg18
g262
sg20
S'--'
p556
sg22
S'10/09'
p557
sg24
S'--'
p558
sg26
S'--'
p559
sg28
S'--'
p560
sg30
S'L28-33'
p561
sg32
g10
sg34
g10
sg36
S'IND'
p562
sg38
S'--'
p563
sg40
g10
sg42
S'--'
p564
ssg213
(dp565
g5
S'--'
p566
sg7
S'--'
p567
sg9
g184
sg11
S'--'
p568
sg13
g184
sg14
S'Garrett Graham'
p569
sg16
S'2014'
p570
sg18
g213
sg20
S'--'
p571
sg22
S'11/02'
p572
sg24
S'--'
p573
sg26
S'--'
p574
sg28
S'--'
p575
sg30
S'L21-31'
p576
sg32
g10
sg34
g10
sg36
S'PHI'
p577
sg38
S'--'
p578
sg40
g10
sg42
S'--'
p579
ssg246
(dp580
g5
S'--'
p581
sg7
S'--'
p582
sg9
g184
sg11
S'--'
p583
sg13
g184
sg14
S'Garrett Graham'
p584
sg16
S'2014'
p585
sg18
g246
sg20
S'--'
p586
sg22
S'10/26'
p587
sg24
S'--'
p588
sg26
S'--'
p589
sg28
S'--'
p590
sg30
S'W30-16'
p591
sg32
g10
sg34
g10
sg36
S'@TEN'
p592
sg38
S'--'
p593
sg40
g10
sg42
S'--'
p594
sssS'2011'
p595
(dp596
g3
(dp597
g5
g299
sg7
g299
sg9
g299
sg11
g299
sg13
g299
sg14
S'Garrett Graham'
p598
sg16
S'2011'
p599
sg18
S'11'
p600
sg20
g299
sg22
S'Bye'
p601
sg24
g299
sg26
g299
sg28
g299
sg30
g299
sg32
g299
sg34
g299
sg36
g299
sg38
g299
sg40
g299
sg42
g299
ssg44
(dp602
g5
S'--'
p603
sg7
S'--'
p604
sg9
g10
sg11
S'--'
p605
sg13
g10
sg14
S'Garrett Graham'
p606
sg16
S'2011'
p607
sg18
S'10'
p608
sg20
S'--'
p609
sg22
S'11/13'
p610
sg24
S'--'
p611
sg26
S'--'
p612
sg28
S'--'
p613
sg30
S'W37-9'
p614
sg32
S'--'
p615
sg34
S'--'
p616
sg36
S'@TB'
p617
sg38
S'--'
p618
sg40
S'--'
p619
sg42
S'--'
p620
ssg64
(dp621
g5
S'--'
p622
sg7
S'--'
p623
sg9
g10
sg11
S'--'
p624
sg13
g10
sg14
S'Garrett Graham'
p625
sg16
S'2011'
p626
sg18
S'13'
p627
sg20
S'--'
p628
sg22
S'12/04'
p629
sg24
S'--'
p630
sg26
S'--'
p631
sg28
S'--'
p632
sg30
S'W17-10'
p633
sg32
S'--'
p634
sg34
S'--'
p635
sg36
S'ATL'
p636
sg38
S'--'
p637
sg40
S'--'
p638
sg42
S'--'
p639
ssg84
(dp640
g5
S'--'
p641
sg7
S'--'
p642
sg9
g10
sg11
S'--'
p643
sg13
g10
sg14
S'Garrett Graham'
p644
sg16
S'2011'
p645
sg18
S'12'
p646
sg20
S'--'
p647
sg22
S'11/27'
p648
sg24
S'--'
p649
sg26
S'--'
p650
sg28
S'--'
p651
sg30
S'W20-13'
p652
sg32
S'--'
p653
sg34
S'--'
p654
sg36
S'@JAC'
p655
sg38
S'--'
p656
sg40
S'--'
p657
sg42
S'--'
p658
ssg104
(dp659
g5
S'--'
p660
sg7
S'--'
p661
sg9
g10
sg11
S'--'
p662
sg13
g10
sg14
S'Garrett Graham'
p663
sg16
S'2011'
p664
sg18
S'15'
p665
sg20
S'--'
p666
sg22
S'12/18'
p667
sg24
S'--'
p668
sg26
S'--'
p669
sg28
S'--'
p670
sg30
S'L13-28'
p671
sg32
S'--'
p672
sg34
S'--'
p673
sg36
S'CAR'
p674
sg38
S'--'
p675
sg40
S'--'
p676
sg42
S'--'
p677
ssg124
(dp678
g5
S'--'
p679
sg7
S'--'
p680
sg9
g10
sg11
S'--'
p681
sg13
g10
sg14
S'Garrett Graham'
p682
sg16
S'2011'
p683
sg18
S'14'
p684
sg20
S'--'
p685
sg22
S'12/11'
p686
sg24
S'--'
p687
sg26
S'--'
p688
sg28
S'--'
p689
sg30
S'W20-19'
p690
sg32
S'--'
p691
sg34
S'--'
p692
sg36
S'@CIN'
p693
sg38
S'--'
p694
sg40
S'--'
p695
sg42
S'--'
p696
ssg144
(dp697
g5
S'--'
p698
sg7
S'--'
p699
sg9
g10
sg11
S'--'
p700
sg13
g184
sg14
S'Garrett Graham'
p701
sg16
S'2011'
p702
sg18
S'17'
p703
sg20
S'--'
p704
sg22
S'01/01'
p705
sg24
S'24.0'
p706
sg26
S'--'
p707
sg28
S'--'
p708
sg30
S'L22-23'
p709
sg32
S'24'
p710
sg34
g184
sg36
S'TEN'
p711
sg38
S'24'
p712
sg40
g10
sg42
S'--'
p713
ssg164
(dp714
g5
S'--'
p715
sg7
S'--'
p716
sg9
g10
sg11
S'--'
p717
sg13
g10
sg14
S'Garrett Graham'
p718
sg16
S'2011'
p719
sg18
S'16'
p720
sg20
S'--'
p721
sg22
S'12/22'
p722
sg24
S'--'
p723
sg26
S'--'
p724
sg28
S'--'
p725
sg30
S'L16-19'
p726
sg32
S'--'
p727
sg34
S'--'
p728
sg36
S'@IND'
p729
sg38
S'--'
p730
sg40
S'--'
p731
sg42
S'--'
p732
ssg184
(dp733
g5
S'--'
p734
sg7
S'--'
p735
sg9
g10
sg11
S'--'
p736
sg13
g184
sg14
S'Garrett Graham'
p737
sg16
S'2011'
p738
sg18
g184
sg20
S'--'
p739
sg22
S'09/11'
p740
sg24
S'--'
p741
sg26
S'--'
p742
sg28
S'--'
p743
sg30
S'W34-7'
p744
sg32
S'--'
p745
sg34
S'--'
p746
sg36
S'IND'
p747
sg38
S'--'
p748
sg40
S'--'
p749
sg42
S'--'
p750
ssg200
(dp751
g5
S'--'
p752
sg7
S'--'
p753
sg9
g10
sg11
S'--'
p754
sg13
g184
sg14
S'Garrett Graham'
p755
sg16
S'2011'
p756
sg18
g200
sg20
S'--'
p757
sg22
S'09/25'
p758
sg24
S'--'
p759
sg26
S'--'
p760
sg28
S'--'
p761
sg30
S'L33-40'
p762
sg32
S'--'
p763
sg34
S'--'
p764
sg36
S'@NO'
p765
sg38
S'--'
p766
sg40
S'--'
p767
sg42
S'--'
p768
ssg216
(dp769
g5
S'--'
p770
sg7
S'--'
p771
sg9
g10
sg11
S'--'
p772
sg13
g10
sg14
S'Garrett Graham'
p773
sg16
S'2011'
p774
sg18
g216
sg20
S'--'
p775
sg22
S'09/18'
p776
sg24
S'--'
p777
sg26
S'--'
p778
sg28
S'--'
p779
sg30
S'W23-13'
p780
sg32
S'--'
p781
sg34
S'--'
p782
sg36
S'@MIA'
p783
sg38
S'--'
p784
sg40
S'--'
p785
sg42
S'--'
p786
ssg233
(dp787
g5
S'--'
p788
sg7
S'--'
p789
sg9
g10
sg11
S'--'
p790
sg13
g184
sg14
S'Garrett Graham'
p791
sg16
S'2011'
p792
sg18
g233
sg20
S'--'
p793
sg22
S'10/09'
p794
sg24
S'--'
p795
sg26
S'--'
p796
sg28
S'--'
p797
sg30
S'L20-25'
p798
sg32
g10
sg34
g10
sg36
S'OAK'
p799
sg38
S'--'
p800
sg40
g10
sg42
S'--'
p801
ssg249
(dp802
g5
S'--'
p803
sg7
S'--'
p804
sg9
g10
sg11
S'--'
p805
sg13
g184
sg14
S'Garrett Graham'
p806
sg16
S'2011'
p807
sg18
g249
sg20
S'--'
p808
sg22
S'10/02'
p809
sg24
S'--'
p810
sg26
S'--'
p811
sg28
S'--'
p812
sg30
S'W17-10'
p813
sg32
S'--'
p814
sg34
S'--'
p815
sg36
S'PIT'
p816
sg38
S'--'
p817
sg40
S'--'
p818
sg42
S'--'
p819
ssg229
(dp820
g5
S'--'
p821
sg7
S'--'
p822
sg9
g10
sg11
S'--'
p823
sg13
g184
sg14
S'Garrett Graham'
p824
sg16
S'2011'
p825
sg18
g229
sg20
S'--'
p826
sg22
S'10/23'
p827
sg24
S'--'
p828
sg26
S'--'
p829
sg28
S'--'
p830
sg30
S'W41-7'
p831
sg32
S'--'
p832
sg34
S'--'
p833
sg36
S'@TEN'
p834
sg38
S'--'
p835
sg40
S'--'
p836
sg42
S'--'
p837
ssg262
(dp838
g5
S'--'
p839
sg7
S'--'
p840
sg9
g10
sg11
S'--'
p841
sg13
g184
sg14
S'Garrett Graham'
p842
sg16
S'2011'
p843
sg18
g262
sg20
S'--'
p844
sg22
S'10/16'
p845
sg24
S'--'
p846
sg26
S'--'
p847
sg28
S'--'
p848
sg30
S'L14-29'
p849
sg32
S'--'
p850
sg34
S'--'
p851
sg36
S'@BAL'
p852
sg38
S'--'
p853
sg40
S'--'
p854
sg42
S'--'
p855
ssg213
(dp856
g5
S'--'
p857
sg7
S'--'
p858
sg9
g10
sg11
S'--'
p859
sg13
g10
sg14
S'Garrett Graham'
p860
sg16
S'2011'
p861
sg18
g213
sg20
S'--'
p862
sg22
S'11/06'
p863
sg24
S'--'
p864
sg26
S'--'
p865
sg28
S'--'
p866
sg30
S'W30-12'
p867
sg32
S'--'
p868
sg34
S'--'
p869
sg36
S'CLE'
p870
sg38
S'--'
p871
sg40
S'--'
p872
sg42
S'--'
p873
ssg246
(dp874
g5
S'--'
p875
sg7
S'--'
p876
sg9
g10
sg11
S'--'
p877
sg13
g10
sg14
S'Garrett Graham'
p878
sg16
S'2011'
p879
sg18
g246
sg20
S'--'
p880
sg22
S'10/30'
p881
sg24
S'--'
p882
sg26
S'--'
p883
sg28
S'--'
p884
sg30
S'W24-14'
p885
sg32
S'--'
p886
sg34
S'--'
p887
sg36
S'JAC'
p888
sg38
S'--'
p889
sg40
S'--'
p890
sg42
S'--'
p891
sssS'2010'
p892
(dp893
g3
(dp894
g5
S'--'
p895
sg7
S'--'
p896
sg9
g10
sg11
S'--'
p897
sg13
g184
sg14
S'Garrett Graham'
p898
sg16
S'2010'
p899
sg18
S'11'
p900
sg20
S'--'
p901
sg22
S'11/21'
p902
sg24
S'--'
p903
sg26
S'--'
p904
sg28
S'--'
p905
sg30
S'L27-30'
p906
sg32
S'--'
p907
sg34
S'--'
p908
sg36
S'@NYJ'
p909
sg38
S'--'
p910
sg40
S'--'
p911
sg42
S'--'
p912
ssg44
(dp913
g5
S'--'
p914
sg7
S'--'
p915
sg9
g10
sg11
S'--'
p916
sg13
g184
sg14
S'Garrett Graham'
p917
sg16
S'2010'
p918
sg18
S'10'
p919
sg20
S'--'
p920
sg22
S'11/14'
p921
sg24
S'--'
p922
sg26
S'--'
p923
sg28
S'--'
p924
sg30
S'L24-31'
p925
sg32
S'--'
p926
sg34
S'--'
p927
sg36
S'@JAC'
p928
sg38
S'--'
p929
sg40
S'--'
p930
sg42
S'--'
p931
ssg64
(dp932
g5
S'--'
p933
sg7
S'--'
p934
sg9
g10
sg11
S'--'
p935
sg13
g184
sg14
S'Garrett Graham'
p936
sg16
S'2010'
p937
sg18
S'13'
p938
sg20
S'--'
p939
sg22
S'12/02'
p940
sg24
S'--'
p941
sg26
S'--'
p942
sg28
S'--'
p943
sg30
S'L24-34'
p944
sg32
S'--'
p945
sg34
S'--'
p946
sg36
S'@PHI'
p947
sg38
S'--'
p948
sg40
S'--'
p949
sg42
S'--'
p950
ssg84
(dp951
g5
S'--'
p952
sg7
S'--'
p953
sg9
g10
sg11
S'--'
p954
sg13
g184
sg14
S'Garrett Graham'
p955
sg16
S'2010'
p956
sg18
S'12'
p957
sg20
S'--'
p958
sg22
S'11/28'
p959
sg24
S'--'
p960
sg26
S'--'
p961
sg28
S'--'
p962
sg30
S'W20-0'
p963
sg32
S'--'
p964
sg34
S'--'
p965
sg36
S'TEN'
p966
sg38
S'--'
p967
sg40
S'--'
p968
sg42
S'--'
p969
ssg104
(dp970
g5
S'--'
p971
sg7
S'--'
p972
sg9
g10
sg11
S'--'
p973
sg13
g10
sg14
S'Garrett Graham'
p974
sg16
S'2010'
p975
sg18
S'15'
p976
sg20
S'--'
p977
sg22
S'12/19'
p978
sg24
S'--'
p979
sg26
S'--'
p980
sg28
S'--'
p981
sg30
S'L17-31'
p982
sg32
S'--'
p983
sg34
S'--'
p984
sg36
S'@TEN'
p985
sg38
S'--'
p986
sg40
S'--'
p987
sg42
S'--'
p988
ssg124
(dp989
g5
S'--'
p990
sg7
S'--'
p991
sg9
g10
sg11
S'--'
p992
sg13
g10
sg14
S'Garrett Graham'
p993
sg16
S'2010'
p994
sg18
S'14'
p995
sg20
S'--'
p996
sg22
S'12/13'
p997
sg24
S'--'
p998
sg26
S'--'
p999
sg28
S'--'
p1000
sg30
S'L28-34'
p1001
sg32
S'--'
p1002
sg34
S'--'
p1003
sg36
S'BAL'
p1004
sg38
S'--'
p1005
sg40
S'--'
p1006
sg42
S'--'
p1007
ssg144
(dp1008
g5
S'--'
p1009
sg7
S'--'
p1010
sg9
g10
sg11
S'--'
p1011
sg13
g10
sg14
S'Garrett Graham'
p1012
sg16
S'2010'
p1013
sg18
S'17'
p1014
sg20
S'--'
p1015
sg22
S'01/02'
p1016
sg24
S'--'
p1017
sg26
S'--'
p1018
sg28
S'--'
p1019
sg30
S'W34-17'
p1020
sg32
S'--'
p1021
sg34
S'--'
p1022
sg36
S'JAC'
p1023
sg38
S'--'
p1024
sg40
S'--'
p1025
sg42
S'--'
p1026
ssg164
(dp1027
g5
S'--'
p1028
sg7
S'--'
p1029
sg9
g10
sg11
S'--'
p1030
sg13
g10
sg14
S'Garrett Graham'
p1031
sg16
S'2010'
p1032
sg18
S'16'
p1033
sg20
S'--'
p1034
sg22
S'12/26'
p1035
sg24
S'--'
p1036
sg26
S'--'
p1037
sg28
S'--'
p1038
sg30
S'L23-24'
p1039
sg32
S'--'
p1040
sg34
S'--'
p1041
sg36
S'@DEN'
p1042
sg38
S'--'
p1043
sg40
S'--'
p1044
sg42
S'--'
p1045
ssg184
(dp1046
g5
S'--'
p1047
sg7
S'--'
p1048
sg9
g10
sg11
S'--'
p1049
sg13
g10
sg14
S'Garrett Graham'
p1050
sg16
S'2010'
p1051
sg18
g184
sg20
S'--'
p1052
sg22
S'09/12'
p1053
sg24
S'--'
p1054
sg26
S'--'
p1055
sg28
S'--'
p1056
sg30
S'W34-24'
p1057
sg32
S'--'
p1058
sg34
S'--'
p1059
sg36
S'IND'
p1060
sg38
S'--'
p1061
sg40
S'--'
p1062
sg42
S'--'
p1063
ssg200
(dp1064
g5
S'--'
p1065
sg7
S'--'
p1066
sg9
g10
sg11
S'--'
p1067
sg13
g10
sg14
S'Garrett Graham'
p1068
sg16
S'2010'
p1069
sg18
g200
sg20
S'--'
p1070
sg22
S'09/26'
p1071
sg24
S'--'
p1072
sg26
S'--'
p1073
sg28
S'--'
p1074
sg30
S'L13-27'
p1075
sg32
S'--'
p1076
sg34
S'--'
p1077
sg36
S'DAL'
p1078
sg38
S'--'
p1079
sg40
S'--'
p1080
sg42
S'--'
p1081
ssg216
(dp1082
g5
S'--'
p1083
sg7
S'--'
p1084
sg9
g10
sg11
S'--'
p1085
sg13
g10
sg14
S'Garrett Graham'
p1086
sg16
S'2010'
p1087
sg18
g216
sg20
S'--'
p1088
sg22
S'09/19'
p1089
sg24
S'--'
p1090
sg26
S'--'
p1091
sg28
S'--'
p1092
sg30
S'W30-27'
p1093
sg32
S'--'
p1094
sg34
S'--'
p1095
sg36
S'@WAS'
p1096
sg38
S'--'
p1097
sg40
S'--'
p1098
sg42
S'--'
p1099
ssg233
(dp1100
g5
S'--'
p1101
sg7
S'--'
p1102
sg9
g10
sg11
S'--'
p1103
sg13
g10
sg14
S'Garrett Graham'
p1104
sg16
S'2010'
p1105
sg18
g233
sg20
S'--'
p1106
sg22
S'10/10'
p1107
sg24
S'--'
p1108
sg26
S'--'
p1109
sg28
S'--'
p1110
sg30
S'L10-34'
p1111
sg32
S'--'
p1112
sg34
S'--'
p1113
sg36
S'NYG'
p1114
sg38
S'--'
p1115
sg40
S'--'
p1116
sg42
S'--'
p1117
ssg249
(dp1118
g5
S'--'
p1119
sg7
S'--'
p1120
sg9
g10
sg11
S'--'
p1121
sg13
g10
sg14
S'Garrett Graham'
p1122
sg16
S'2010'
p1123
sg18
g249
sg20
S'--'
p1124
sg22
S'10/03'
p1125
sg24
S'--'
p1126
sg26
S'--'
p1127
sg28
S'--'
p1128
sg30
S'W31-24'
p1129
sg32
S'--'
p1130
sg34
S'--'
p1131
sg36
S'@OAK'
p1132
sg38
S'--'
p1133
sg40
S'--'
p1134
sg42
S'--'
p1135
ssg229
(dp1136
g5
g299
sg7
g299
sg9
g299
sg11
g299
sg13
g299
sg14
S'Garrett Graham'
p1137
sg16
S'2010'
p1138
sg18
g229
sg20
g299
sg22
S'Bye'
p1139
sg24
g299
sg26
g299
sg28
g299
sg30
g299
sg32
g299
sg34
g299
sg36
g299
sg38
g299
sg40
g299
sg42
g299
ssg262
(dp1140
g5
S'--'
p1141
sg7
S'--'
p1142
sg9
g10
sg11
S'--'
p1143
sg13
g184
sg14
S'Garrett Graham'
p1144
sg16
S'2010'
p1145
sg18
g262
sg20
S'--'
p1146
sg22
S'10/17'
p1147
sg24
S'--'
p1148
sg26
S'--'
p1149
sg28
S'--'
p1150
sg30
S'W35-31'
p1151
sg32
S'--'
p1152
sg34
S'--'
p1153
sg36
S'KC'
p1154
sg38
S'--'
p1155
sg40
S'--'
p1156
sg42
S'--'
p1157
ssg213
(dp1158
g5
S'--'
p1159
sg7
S'--'
p1160
sg9
g10
sg11
S'--'
p1161
sg13
g184
sg14
S'Garrett Graham'
p1162
sg16
S'2010'
p1163
sg18
g213
sg20
S'--'
p1164
sg22
S'11/07'
p1165
sg24
S'--'
p1166
sg26
S'--'
p1167
sg28
S'--'
p1168
sg30
S'L23-29'
p1169
sg32
S'--'
p1170
sg34
S'--'
p1171
sg36
S'SD'
p1172
sg38
S'--'
p1173
sg40
S'--'
p1174
sg42
S'--'
p1175
ssg246
(dp1176
g5
S'--'
p1177
sg7
S'--'
p1178
sg9
g10
sg11
S'--'
p1179
sg13
g10
sg14
S'Garrett Graham'
p1180
sg16
S'2010'
p1181
sg18
g246
sg20
S'--'
p1182
sg22
S'11/01'
p1183
sg24
S'--'
p1184
sg26
S'--'
p1185
sg28
S'--'
p1186
sg30
S'L17-30'
p1187
sg32
S'--'
p1188
sg34
S'--'
p1189
sg36
S'@IND'
p1190
sg38
S'--'
p1191
sg40
S'--'
p1192
sg42
S'--'
p1193
sssS'2013'
p1194
(dp1195
g3
(dp1196
g5
S'--'
p1197
sg7
S'--'
p1198
sg9
g184
sg11
g184
sg13
g184
sg14
S'Garrett Graham'
p1199
sg16
S'2013'
p1200
sg18
S'11'
p1201
sg20
S'--'
p1202
sg22
S'11/17'
p1203
sg24
S'19.4'
p1204
sg26
g184
sg28
S'--'
p1205
sg30
S'L23-28'
p1206
sg32
S'136'
p1207
sg34
g229
sg36
S'OAK'
p1208
sg38
S'42T'
p1209
sg40
g184
sg42
S'--'
p1210
ssg44
(dp1211
g5
S'--'
p1212
sg7
S'--'
p1213
sg9
g184
sg11
S'--'
p1214
sg13
g184
sg14
S'Garrett Graham'
p1215
sg16
S'2013'
p1216
sg18
S'10'
p1217
sg20
S'--'
p1218
sg22
S'11/10'
p1219
sg24
S'9.0'
p1220
sg26
S'--'
p1221
sg28
S'--'
p1222
sg30
S'L24-27'
p1223
sg32
S'18'
p1224
sg34
g216
sg36
S'@ARI'
p1225
sg38
S'12'
p1226
sg40
g10
sg42
S'--'
p1227
ssg64
(dp1228
g5
S'--'
p1229
sg7
S'--'
p1230
sg9
g184
sg11
S'--'
p1231
sg13
g184
sg14
S'Garrett Graham'
p1232
sg16
S'2013'
p1233
sg18
S'13'
p1234
sg20
S'--'
p1235
sg22
S'12/01'
p1236
sg24
S'12.0'
p1237
sg26
S'--'
p1238
sg28
S'--'
p1239
sg30
S'L31-34'
p1240
sg32
S'36'
p1241
sg34
g200
sg36
S'NE'
p1242
sg38
S'17'
p1243
sg40
g10
sg42
S'--'
p1244
ssg84
(dp1245
g5
S'--'
p1246
sg7
S'--'
p1247
sg9
g184
sg11
S'--'
p1248
sg13
g184
sg14
S'Garrett Graham'
p1249
sg16
S'2013'
p1250
sg18
S'12'
p1251
sg20
S'--'
p1252
sg22
S'11/24'
p1253
sg24
S'6.4'
p1254
sg26
S'--'
p1255
sg28
S'--'
p1256
sg30
S'L6-13'
p1257
sg32
S'32'
p1258
sg34
g233
sg36
S'JAC'
p1259
sg38
g246
sg40
g10
sg42
S'--'
p1260
ssg104
(dp1261
g5
S'--'
p1262
sg7
S'--'
p1263
sg9
g10
sg11
S'--'
p1264
sg13
g10
sg14
S'Garrett Graham'
p1265
sg16
S'2013'
p1266
sg18
S'15'
p1267
sg20
S'--'
p1268
sg22
S'12/15'
p1269
sg24
S'--'
p1270
sg26
S'--'
p1271
sg28
S'--'
p1272
sg30
S'L3-25'
p1273
sg32
S'--'
p1274
sg34
S'--'
p1275
sg36
S'@IND'
p1276
sg38
S'--'
p1277
sg40
S'--'
p1278
sg42
S'--'
p1279
ssg124
(dp1280
g5
S'--'
p1281
sg7
S'--'
p1282
sg9
g184
sg11
S'--'
p1283
sg13
g184
sg14
S'Garrett Graham'
p1284
sg16
S'2013'
p1285
sg18
S'14'
p1286
sg20
S'--'
p1287
sg22
S'12/05'
p1288
sg24
S'9.1'
p1289
sg26
S'--'
p1290
sg28
S'--'
p1291
sg30
S'L20-27'
p1292
sg32
S'73'
p1293
sg34
g246
sg36
S'@JAC'
p1294
sg38
S'22'
p1295
sg40
g184
sg42
S'--'
p1296
ssg164
(dp1297
g5
S'--'
p1298
sg7
S'--'
p1299
sg9
g10
sg11
S'--'
p1300
sg13
g10
sg14
S'Garrett Graham'
p1301
sg16
S'2013'
p1302
sg18
S'16'
p1303
sg20
S'--'
p1304
sg22
S'12/22'
p1305
sg24
S'--'
p1306
sg26
S'--'
p1307
sg28
S'--'
p1308
sg30
S'L13-37'
p1309
sg32
S'--'
p1310
sg34
S'--'
p1311
sg36
S'DEN'
p1312
sg38
S'--'
p1313
sg40
S'--'
p1314
sg42
S'--'
p1315
ssg184
(dp1316
g5
S'--'
p1317
sg7
S'--'
p1318
sg9
g184
sg11
S'--'
p1319
sg13
g184
sg14
S'Garrett Graham'
p1320
sg16
S'2013'
p1321
sg18
g184
sg20
S'--'
p1322
sg22
S'09/09'
p1323
sg24
S'6.8'
p1324
sg26
S'--'
p1325
sg28
S'--'
p1326
sg30
S'W31-28'
p1327
sg32
S'27'
p1328
sg34
g249
sg36
S'@SD'
p1329
sg38
S'12'
p1330
sg40
g184
sg42
S'--'
p1331
ssg200
(dp1332
g5
S'--'
p1333
sg7
S'--'
p1334
sg9
g10
sg11
S'--'
p1335
sg13
g184
sg14
S'Garrett Graham'
p1336
sg16
S'2013'
p1337
sg18
g200
sg20
S'--'
p1338
sg22
S'09/22'
p1339
sg24
S'--'
p1340
sg26
S'--'
p1341
sg28
S'--'
p1342
sg30
S'L9-30'
p1343
sg32
S'--'
p1344
sg34
S'--'
p1345
sg36
S'@BAL'
p1346
sg38
S'--'
p1347
sg40
S'--'
p1348
sg42
S'--'
p1349
ssg216
(dp1350
g5
S'--'
p1351
sg7
S'--'
p1352
sg9
g184
sg11
S'--'
p1353
sg13
g184
sg14
S'Garrett Graham'
p1354
sg16
S'2013'
p1355
sg18
g216
sg20
S'--'
p1356
sg22
S'09/15'
p1357
sg24
S'10.0'
p1358
sg26
S'--'
p1359
sg28
S'--'
p1360
sg30
S'W30-24'
p1361
sg32
S'30'
p1362
sg34
g200
sg36
S'TEN'
p1363
sg38
S'18'
p1364
sg40
g184
sg42
S'--'
p1365
ssg233
(dp1366
g5
S'--'
p1367
sg7
S'--'
p1368
sg9
g10
sg11
S'--'
p1369
sg13
g184
sg14
S'Garrett Graham'
p1370
sg16
S'2013'
p1371
sg18
g233
sg20
S'--'
p1372
sg22
S'10/06'
p1373
sg24
S'5.0'
p1374
sg26
S'--'
p1375
sg28
S'--'
p1376
sg30
S'L3-34'
p1377
sg32
S'15'
p1378
sg34
g200
sg36
S'@SF'
p1379
sg38
g213
sg40
g10
sg42
S'--'
p1380
ssg249
(dp1381
g5
S'--'
p1382
sg7
S'--'
p1383
sg9
g184
sg11
g10
sg13
g184
sg14
S'Garrett Graham'
p1384
sg16
S'2013'
p1385
sg18
g249
sg20
S'--'
p1386
sg22
S'09/29'
p1387
sg24
S'13.8'
p1388
sg26
g184
sg28
S'--'
p1389
sg30
S'L20-23'
p1390
sg32
S'69'
p1391
sg34
g233
sg36
S'SEA'
p1392
sg38
S'31T'
p1393
sg40
g184
sg42
S'--'
p1394
ssg229
(dp1395
g5
S'--'
p1396
sg7
S'--'
p1397
sg9
g184
sg11
S'--'
p1398
sg13
g184
sg14
S'Garrett Graham'
p1399
sg16
S'2013'
p1400
sg18
g229
sg20
S'--'
p1401
sg22
S'10/20'
p1402
sg24
S'12.7'
p1403
sg26
S'--'
p1404
sg28
S'--'
p1405
sg30
S'L16-17'
p1406
sg32
S'38'
p1407
sg34
g200
sg36
S'@KC'
p1408
sg38
S'27'
p1409
sg40
g10
sg42
S'--'
p1410
ssg262
(dp1411
g5
S'--'
p1412
sg7
S'--'
p1413
sg9
g184
sg11
S'--'
p1414
sg13
g184
sg14
S'Garrett Graham'
p1415
sg16
S'2013'
p1416
sg18
g262
sg20
S'--'
p1417
sg22
S'10/13'
p1418
sg24
S'12.5'
p1419
sg26
S'--'
p1420
sg28
S'--'
p1421
sg30
S'L13-38'
p1422
sg32
S'25'
p1423
sg34
g216
sg36
S'STL'
p1424
sg38
S'20'
p1425
sg40
g10
sg42
S'--'
p1426
ssg213
(dp1427
g5
S'--'
p1428
sg7
S'--'
p1429
sg9
g184
sg11
S'--'
p1430
sg13
g184
sg14
S'Garrett Graham'
p1431
sg16
S'2013'
p1432
sg18
g213
sg20
S'--'
p1433
sg22
S'11/03'
p1434
sg24
S'11.5'
p1435
sg26
S'--'
p1436
sg28
S'--'
p1437
sg30
S'L24-27'
p1438
sg32
S'46'
p1439
sg34
g249
sg36
S'IND'
p1440
sg38
S'20'
p1441
sg40
g10
sg42
S'--'
p1442
ssg246
(dp1443
g5
g299
sg7
g299
sg9
g299
sg11
g299
sg13
g299
sg14
S'Garrett Graham'
p1444
sg16
S'2013'
p1445
sg18
g246
sg20
g299
sg22
S'Bye'
p1446
sg24
g299
sg26
g299
sg28
g299
sg30
g299
sg32
g299
sg34
g299
sg36
g299
sg38
g299
sg40
g299
sg42
g299
sssS'2012'
p1447
(dp1448
g3
(dp1449
g5
S'--'
p1450
sg7
S'--'
p1451
sg9
g10
sg11
S'--'
p1452
sg13
g184
sg14
S'Garrett Graham'
p1453
sg16
S'2012'
p1454
sg18
S'11'
p1455
sg20
S'--'
p1456
sg22
S'11/18'
p1457
sg24
S'10.3'
p1458
sg26
S'--'
p1459
sg28
S'--'
p1460
sg30
S'W43-37'
p1461
sg32
S'82'
p1462
sg34
g246
sg36
S'JAC'
p1463
sg38
S'30'
p1464
sg40
g216
sg42
S'--'
p1465
ssg44
(dp1466
g5
S'--'
p1467
sg7
S'--'
p1468
sg9
g184
sg11
S'--'
p1469
sg13
g184
sg14
S'Garrett Graham'
p1470
sg16
S'2012'
p1471
sg18
S'10'
p1472
sg20
S'--'
p1473
sg22
S'11/11'
p1474
sg24
S'5.0'
p1475
sg26
S'--'
p1476
sg28
S'--'
p1477
sg30
S'W13-6'
p1478
sg32
S'15'
p1479
sg34
g200
sg36
S'@CHI'
p1480
sg38
S'11'
p1481
sg40
g10
sg42
S'--'
p1482
ssg64
(dp1483
g5
S'--'
p1484
sg7
S'--'
p1485
sg9
g10
sg11
S'--'
p1486
sg13
g184
sg14
S'Garrett Graham'
p1487
sg16
S'2012'
p1488
sg18
S'13'
p1489
sg20
S'--'
p1490
sg22
S'12/02'
p1491
sg24
S'7.0'
p1492
sg26
S'--'
p1493
sg28
S'--'
p1494
sg30
S'W24-10'
p1495
sg32
g229
sg34
g184
sg36
S'@TEN'
p1496
sg38
g229
sg40
g10
sg42
S'--'
p1497
ssg84
(dp1498
g5
S'--'
p1499
sg7
S'--'
p1500
sg9
g184
sg11
S'--'
p1501
sg13
g184
sg14
S'Garrett Graham'
p1502
sg16
S'2012'
p1503
sg18
S'12'
p1504
sg20
S'--'
p1505
sg22
S'11/22'
p1506
sg24
S'5.7'
p1507
sg26
S'--'
p1508
sg28
S'--'
p1509
sg30
S'W34-31'
p1510
sg32
S'17'
p1511
sg34
g200
sg36
S'@DET'
p1512
sg38
S'11'
p1513
sg40
g10
sg42
S'--'
p1514
ssg104
(dp1515
g5
S'--'
p1516
sg7
S'--'
p1517
sg9
g184
sg11
S'--'
p1518
sg13
g184
sg14
S'Garrett Graham'
p1519
sg16
S'2012'
p1520
sg18
S'15'
p1521
sg20
S'--'
p1522
sg22
S'12/16'
p1523
sg24
S'--'
p1524
sg26
S'--'
p1525
sg28
S'--'
p1526
sg30
S'W29-17'
p1527
sg32
g10
sg34
g10
sg36
S'IND'
p1528
sg38
S'--'
p1529
sg40
g10
sg42
S'--'
p1530
ssg124
(dp1531
g5
S'--'
p1532
sg7
S'--'
p1533
sg9
g10
sg11
S'--'
p1534
sg13
g10
sg14
S'Garrett Graham'
p1535
sg16
S'2012'
p1536
sg18
S'14'
p1537
sg20
S'--'
p1538
sg22
S'12/10'
p1539
sg24
S'--'
p1540
sg26
S'--'
p1541
sg28
S'--'
p1542
sg30
S'L14-42'
p1543
sg32
S'--'
p1544
sg34
S'--'
p1545
sg36
S'@NE'
p1546
sg38
S'--'
p1547
sg40
S'--'
p1548
sg42
S'--'
p1549
ssg144
(dp1550
g5
S'--'
p1551
sg7
S'--'
p1552
sg9
g184
sg11
S'--'
p1553
sg13
g184
sg14
S'Garrett Graham'
p1554
sg16
S'2012'
p1555
sg18
S'17'
p1556
sg20
S'--'
p1557
sg22
S'12/30'
p1558
sg24
S'6.0'
p1559
sg26
S'--'
p1560
sg28
S'--'
p1561
sg30
S'L16-28'
p1562
sg32
g262
sg34
g184
sg36
S'@IND'
p1563
sg38
g262
sg40
g10
sg42
S'--'
p1564
ssg164
(dp1565
g5
S'--'
p1566
sg7
S'--'
p1567
sg9
g184
sg11
S'--'
p1568
sg13
g184
sg14
S'Garrett Graham'
p1569
sg16
S'2012'
p1570
sg18
S'16'
p1571
sg20
S'--'
p1572
sg22
S'12/23'
p1573
sg24
S'7.0'
p1574
sg26
S'--'
p1575
sg28
S'--'
p1576
sg30
S'L6-23'
p1577
sg32
S'14'
p1578
sg34
g216
sg36
S'MIN'
p1579
sg38
S'12'
p1580
sg40
g10
sg42
S'--'
p1581
ssg184
(dp1582
g5
S'--'
p1583
sg7
S'--'
p1584
sg9
g10
sg11
S'--'
p1585
sg13
g184
sg14
S'Garrett Graham'
p1586
sg16
S'2012'
p1587
sg18
g184
sg20
S'--'
p1588
sg22
S'09/09'
p1589
sg24
S'--'
p1590
sg26
S'--'
p1591
sg28
S'--'
p1592
sg30
S'W30-10'
p1593
sg32
S'--'
p1594
sg34
S'--'
p1595
sg36
S'MIA'
p1596
sg38
S'--'
p1597
sg40
S'--'
p1598
sg42
S'--'
p1599
ssg200
(dp1600
g5
S'--'
p1601
sg7
S'--'
p1602
sg9
g184
sg11
S'--'
p1603
sg13
g184
sg14
S'Garrett Graham'
p1604
sg16
S'2012'
p1605
sg18
g200
sg20
S'--'
p1606
sg22
S'09/23'
p1607
sg24
S'19.5'
p1608
sg26
S'--'
p1609
sg28
S'--'
p1610
sg30
S'W31-25'
p1611
sg32
S'39'
p1612
sg34
g216
sg36
S'@DEN'
p1613
sg38
S'27'
p1614
sg40
g10
sg42
S'--'
p1615
ssg216
(dp1616
g5
S'--'
p1617
sg7
S'--'
p1618
sg9
g10
sg11
S'--'
p1619
sg13
g184
sg14
S'Garrett Graham'
p1620
sg16
S'2012'
p1621
sg18
g216
sg20
S'--'
p1622
sg22
S'09/16'
p1623
sg24
S'15.0'
p1624
sg26
S'--'
p1625
sg28
S'--'
p1626
sg30
S'W27-7'
p1627
sg32
S'15'
p1628
sg34
g184
sg36
S'@JAC'
p1629
sg38
S'15'
p1630
sg40
g10
sg42
S'--'
p1631
ssg233
(dp1632
g5
S'--'
p1633
sg7
S'--'
p1634
sg9
g184
sg11
S'--'
p1635
sg13
g184
sg14
S'Garrett Graham'
p1636
sg16
S'2012'
p1637
sg18
g233
sg20
S'--'
p1638
sg22
S'10/08'
p1639
sg24
S'--'
p1640
sg26
S'--'
p1641
sg28
S'--'
p1642
sg30
S'W23-17'
p1643
sg32
S'--'
p1644
sg34
S'--'
p1645
sg36
S'@NYJ'
p1646
sg38
S'--'
p1647
sg40
S'--'
p1648
sg42
S'--'
p1649
ssg249
(dp1650
g5
S'--'
p1651
sg7
S'--'
p1652
sg9
g10
sg11
S'--'
p1653
sg13
g184
sg14
S'Garrett Graham'
p1654
sg16
S'2012'
p1655
sg18
g249
sg20
S'--'
p1656
sg22
S'09/30'
p1657
sg24
S'--'
p1658
sg26
S'--'
p1659
sg28
S'--'
p1660
sg30
S'W38-14'
p1661
sg32
g10
sg34
g10
sg36
S'TEN'
p1662
sg38
S'--'
p1663
sg40
g10
sg42
S'--'
p1664
ssg229
(dp1665
g5
S'--'
p1666
sg7
S'--'
p1667
sg9
g184
sg11
S'--'
p1668
sg13
g184
sg14
S'Garrett Graham'
p1669
sg16
S'2012'
p1670
sg18
g229
sg20
S'--'
p1671
sg22
S'10/21'
p1672
sg24
S'16.0'
p1673
sg26
S'--'
p1674
sg28
S'--'
p1675
sg30
S'W43-13'
p1676
sg32
S'32'
p1677
sg34
g216
sg36
S'BAL'
p1678
sg38
S'20'
p1679
sg40
g10
sg42
S'--'
p1680
ssg262
(dp1681
g5
S'--'
p1682
sg7
S'--'
p1683
sg9
g184
sg11
S'--'
p1684
sg13
g184
sg14
S'Garrett Graham'
p1685
sg16
S'2012'
p1686
sg18
g262
sg20
S'--'
p1687
sg22
S'10/14'
p1688
sg24
S'8.3'
p1689
sg26
S'--'
p1690
sg28
S'--'
p1691
sg30
S'L24-42'
p1692
sg32
S'25'
p1693
sg34
g200
sg36
S'GB'
p1694
sg38
S'11'
p1695
sg40
g10
sg42
S'--'
p1696
ssg213
(dp1697
g5
S'--'
p1698
sg7
S'--'
p1699
sg9
g10
sg11
S'--'
p1700
sg13
g184
sg14
S'Garrett Graham'
p1701
sg16
S'2012'
p1702
sg18
g213
sg20
S'--'
p1703
sg22
S'11/04'
p1704
sg24
S'5.5'
p1705
sg26
S'--'
p1706
sg28
S'--'
p1707
sg30
S'W21-9'
p1708
sg32
S'11'
p1709
sg34
g216
sg36
S'BUF'
p1710
sg38
g262
sg40
g184
sg42
S'--'
p1711
ssg246
(dp1712
g5
g299
sg7
g299
sg9
g299
sg11
g299
sg13
g299
sg14
S'Garrett Graham'
p1713
sg16
S'2012'
p1714
sg18
g246
sg20
g299
sg22
S'Bye'
p1715
sg24
g299
sg26
g299
sg28
g299
sg30
g299
sg32
g299
sg34
g299
sg36
g299
sg38
g299
sg40
g299
sg42
g299
sss.