(dp0
S'2015'
p1
(dp2
S'11'
p3
(dp4
S'RushTD'
p5
S'--'
p6
sS'RushYds'
p7
S'--'
p8
sS'GS'
p9
S'0'
p10
sS'Lost'
p11
S'--'
p12
sS'G'
p13
g10
sS'Player'
p14
S'Geoff Swaim'
p15
sS'Year'
p16
S'2015'
p17
sS'WK'
p18
S'11'
p19
sS'RushAvg'
p20
S'--'
p21
sS'Game Date'
p22
S'11/22'
p23
sS'RecAvg'
p24
S'--'
p25
sS'FUM'
p26
S'--'
p27
sS'RushAtt'
p28
S'--'
p29
sS'Result'
p30
S'W24-14'
p31
sS'RecYds'
p32
S'--'
p33
sS'Rec'
p34
S'--'
p35
sS'Opp'
p36
S'@MIA'
p37
sS'RecLng'
p38
S'--'
p39
sS'RecTD'
p40
S'--'
p41
sS'RushLng'
p42
S'--'
p43
ssS'10'
p44
(dp45
g5
S'--'
p46
sg7
S'--'
p47
sg9
g10
sg11
S'--'
p48
sg13
g10
sg14
S'Geoff Swaim'
p49
sg16
S'2015'
p50
sg18
S'10'
p51
sg20
S'--'
p52
sg22
S'11/15'
p53
sg24
S'--'
p54
sg26
S'--'
p55
sg28
S'--'
p56
sg30
S'L6-10'
p57
sg32
S'--'
p58
sg34
S'--'
p59
sg36
S'@TB'
p60
sg38
S'--'
p61
sg40
S'--'
p62
sg42
S'--'
p63
ssS'13'
p64
(dp65
g5
S'--'
p66
sg7
S'--'
p67
sg9
g10
sg11
S'--'
p68
sg13
g10
sg14
S'Geoff Swaim'
p69
sg16
S'2015'
p70
sg18
S'13'
p71
sg20
S'--'
p72
sg22
S'12/07'
p73
sg24
S'--'
p74
sg26
S'--'
p75
sg28
S'--'
p76
sg30
S'W19-16'
p77
sg32
S'--'
p78
sg34
S'--'
p79
sg36
S'@WAS'
p80
sg38
S'--'
p81
sg40
S'--'
p82
sg42
S'--'
p83
ssS'12'
p84
(dp85
g5
S'--'
p86
sg7
S'--'
p87
sg9
g10
sg11
S'--'
p88
sg13
g10
sg14
S'Geoff Swaim'
p89
sg16
S'2015'
p90
sg18
S'12'
p91
sg20
S'--'
p92
sg22
S'11/26'
p93
sg24
S'--'
p94
sg26
S'--'
p95
sg28
S'--'
p96
sg30
S'L14-33'
p97
sg32
S'--'
p98
sg34
S'--'
p99
sg36
S'CAR'
p100
sg38
S'--'
p101
sg40
S'--'
p102
sg42
S'--'
p103
ssS'15'
p104
(dp105
g5
S'--'
p106
sg7
S'--'
p107
sg9
g10
sg11
S'--'
p108
sg13
g10
sg14
S'Geoff Swaim'
p109
sg16
S'2015'
p110
sg18
S'15'
p111
sg20
S'--'
p112
sg22
S'12/19'
p113
sg24
S'--'
p114
sg26
S'--'
p115
sg28
S'--'
p116
sg30
S'L16-19'
p117
sg32
S'--'
p118
sg34
S'--'
p119
sg36
S'NYJ'
p120
sg38
S'--'
p121
sg40
S'--'
p122
sg42
S'--'
p123
ssS'14'
p124
(dp125
g5
S'--'
p126
sg7
S'--'
p127
sg9
g10
sg11
S'--'
p128
sg13
g10
sg14
S'Geoff Swaim'
p129
sg16
S'2015'
p130
sg18
S'14'
p131
sg20
S'--'
p132
sg22
S'12/13'
p133
sg24
S'--'
p134
sg26
S'--'
p135
sg28
S'--'
p136
sg30
S'L7-28'
p137
sg32
S'--'
p138
sg34
S'--'
p139
sg36
S'@GB'
p140
sg38
S'--'
p141
sg40
S'--'
p142
sg42
S'--'
p143
ssS'17'
p144
(dp145
g5
S'--'
p146
sg7
S'--'
p147
sg9
g10
sg11
S'--'
p148
sg13
S'1'
p149
sg14
S'Geoff Swaim'
p150
sg16
S'2015'
p151
sg18
S'17'
p152
sg20
S'--'
p153
sg22
S'01/03'
p154
sg24
S'--'
p155
sg26
S'--'
p156
sg28
S'--'
p157
sg30
S'L23-34'
p158
sg32
S'--'
p159
sg34
S'--'
p160
sg36
S'WAS'
p161
sg38
S'--'
p162
sg40
S'--'
p163
sg42
S'--'
p164
ssS'16'
p165
(dp166
g5
S'--'
p167
sg7
S'--'
p168
sg9
g10
sg11
S'--'
p169
sg13
g149
sg14
S'Geoff Swaim'
p170
sg16
S'2015'
p171
sg18
S'16'
p172
sg20
S'--'
p173
sg22
S'12/27'
p174
sg24
S'--'
p175
sg26
S'--'
p176
sg28
S'--'
p177
sg30
S'L6-16'
p178
sg32
S'--'
p179
sg34
S'--'
p180
sg36
S'@BUF'
p181
sg38
S'--'
p182
sg40
S'--'
p183
sg42
S'--'
p184
ssg149
(dp185
g5
S'--'
p186
sg7
S'--'
p187
sg9
g10
sg11
S'--'
p188
sg13
g10
sg14
S'Geoff Swaim'
p189
sg16
S'2015'
p190
sg18
g149
sg20
S'--'
p191
sg22
S'09/13'
p192
sg24
S'--'
p193
sg26
S'--'
p194
sg28
S'--'
p195
sg30
S'W27-26'
p196
sg32
S'--'
p197
sg34
S'--'
p198
sg36
S'NYG'
p199
sg38
S'--'
p200
sg40
S'--'
p201
sg42
S'--'
p202
ssS'3'
p203
(dp204
g5
S'--'
p205
sg7
S'--'
p206
sg9
g10
sg11
S'--'
p207
sg13
g10
sg14
S'Geoff Swaim'
p208
sg16
S'2015'
p209
sg18
g203
sg20
S'--'
p210
sg22
S'09/27'
p211
sg24
S'--'
p212
sg26
S'--'
p213
sg28
S'--'
p214
sg30
S'L28-39'
p215
sg32
S'--'
p216
sg34
S'--'
p217
sg36
S'ATL'
p218
sg38
S'--'
p219
sg40
S'--'
p220
sg42
S'--'
p221
ssS'2'
p222
(dp223
g5
S'--'
p224
sg7
S'--'
p225
sg9
g10
sg11
S'--'
p226
sg13
g149
sg14
S'Geoff Swaim'
p227
sg16
S'2015'
p228
sg18
g222
sg20
S'--'
p229
sg22
S'09/20'
p230
sg24
S'0.0'
p231
sg26
S'--'
p232
sg28
S'--'
p233
sg30
S'W20-10'
p234
sg32
g10
sg34
g149
sg36
S'@PHI'
p235
sg38
g10
sg40
g10
sg42
S'--'
p236
ssS'5'
p237
(dp238
g5
S'--'
p239
sg7
S'--'
p240
sg9
g149
sg11
S'--'
p241
sg13
g149
sg14
S'Geoff Swaim'
p242
sg16
S'2015'
p243
sg18
g237
sg20
S'--'
p244
sg22
S'10/11'
p245
sg24
S'--'
p246
sg26
S'--'
p247
sg28
S'--'
p248
sg30
S'L6-30'
p249
sg32
S'--'
p250
sg34
S'--'
p251
sg36
S'NE'
p252
sg38
S'--'
p253
sg40
S'--'
p254
sg42
S'--'
p255
ssS'4'
p256
(dp257
g5
S'--'
p258
sg7
S'--'
p259
sg9
g10
sg11
S'--'
p260
sg13
g10
sg14
S'Geoff Swaim'
p261
sg16
S'2015'
p262
sg18
g256
sg20
S'--'
p263
sg22
S'10/04'
p264
sg24
S'--'
p265
sg26
S'--'
p266
sg28
S'--'
p267
sg30
S'L20-26'
p268
sg32
S'--'
p269
sg34
S'--'
p270
sg36
S'@NO'
p271
sg38
S'--'
p272
sg40
S'--'
p273
sg42
S'--'
p274
ssS'7'
p275
(dp276
g5
S'--'
p277
sg7
S'--'
p278
sg9
g10
sg11
S'--'
p279
sg13
g10
sg14
S'Geoff Swaim'
p280
sg16
S'2015'
p281
sg18
g275
sg20
S'--'
p282
sg22
S'10/25'
p283
sg24
S'--'
p284
sg26
S'--'
p285
sg28
S'--'
p286
sg30
S'L20-27'
p287
sg32
S'--'
p288
sg34
S'--'
p289
sg36
S'@NYG'
p290
sg38
S'--'
p291
sg40
S'--'
p292
sg42
S'--'
p293
ssS'6'
p294
(dp295
g5
S''
p296
sg7
g296
sg9
g296
sg11
g296
sg13
g296
sg14
S'Geoff Swaim'
p297
sg16
S'2015'
p298
sg18
g294
sg20
g296
sg22
S'Bye'
p299
sg24
g296
sg26
g296
sg28
g296
sg30
g296
sg32
g296
sg34
g296
sg36
g296
sg38
g296
sg40
g296
sg42
g296
ssS'9'
p300
(dp301
g5
S'--'
p302
sg7
S'--'
p303
sg9
g10
sg11
S'--'
p304
sg13
g10
sg14
S'Geoff Swaim'
p305
sg16
S'2015'
p306
sg18
g300
sg20
S'--'
p307
sg22
S'11/08'
p308
sg24
S'--'
p309
sg26
S'--'
p310
sg28
S'--'
p311
sg30
S'L27-33'
p312
sg32
S'--'
p313
sg34
S'--'
p314
sg36
S'PHI'
p315
sg38
S'--'
p316
sg40
S'--'
p317
sg42
S'--'
p318
ssS'8'
p319
(dp320
g5
S'--'
p321
sg7
S'--'
p322
sg9
g10
sg11
S'--'
p323
sg13
g10
sg14
S'Geoff Swaim'
p324
sg16
S'2015'
p325
sg18
g319
sg20
S'--'
p326
sg22
S'11/01'
p327
sg24
S'--'
p328
sg26
S'--'
p329
sg28
S'--'
p330
sg30
S'L12-13'
p331
sg32
S'--'
p332
sg34
S'--'
p333
sg36
S'SEA'
p334
sg38
S'--'
p335
sg40
S'--'
p336
sg42
S'--'
p337
sss.