(dp0
S'2014'
p1
(dp2
S'11'
p3
(dp4
S'RushTD'
p5
S''
p6
sS'RushYds'
p7
g6
sS'GS'
p8
g6
sS'Lost'
p9
g6
sS'G'
p10
g6
sS'Player'
p11
S'Jace Amaro'
p12
sS'Year'
p13
S'2014'
p14
sS'WK'
p15
S'11'
p16
sS'RushAvg'
p17
g6
sS'Game Date'
p18
S'Bye'
p19
sS'RecAvg'
p20
g6
sS'FUM'
p21
g6
sS'RushAtt'
p22
g6
sS'Result'
p23
g6
sS'RecYds'
p24
g6
sS'Rec'
p25
g6
sS'Opp'
p26
g6
sS'RecLng'
p27
g6
sS'RecTD'
p28
g6
sS'RushLng'
p29
g6
ssS'10'
p30
(dp31
g5
S'--'
p32
sg7
S'--'
p33
sg8
S'0'
p34
sg9
S'--'
p35
sg10
S'1'
p36
sg11
S'Jace Amaro'
p37
sg13
S'2014'
p38
sg15
S'10'
p39
sg17
S'--'
p40
sg18
S'11/09'
p41
sg20
S'3.0'
p42
sg21
S'--'
p43
sg22
S'--'
p44
sg23
S'W20-13'
p45
sg24
S'6'
p46
sg25
S'2'
p47
sg26
S'PIT'
p48
sg27
S'5T'
p49
sg28
g36
sg29
S'--'
p50
ssS'13'
p51
(dp52
g5
S'--'
p53
sg7
S'--'
p54
sg8
g34
sg9
S'--'
p55
sg10
g34
sg11
S'Jace Amaro'
p56
sg13
S'2014'
p57
sg15
S'13'
p58
sg17
S'--'
p59
sg18
S'12/01'
p60
sg20
S'--'
p61
sg21
S'--'
p62
sg22
S'--'
p63
sg23
S'L13-16'
p64
sg24
S'--'
p65
sg25
S'--'
p66
sg26
S'MIA'
p67
sg27
S'--'
p68
sg28
S'--'
p69
sg29
S'--'
p70
ssS'12'
p71
(dp72
g5
S'--'
p73
sg7
S'--'
p74
sg8
g36
sg9
S'--'
p75
sg10
g36
sg11
S'Jace Amaro'
p76
sg13
S'2014'
p77
sg15
S'12'
p78
sg17
S'--'
p79
sg18
S'11/24'
p80
sg20
S'--'
p81
sg21
S'--'
p82
sg22
S'--'
p83
sg23
S'L3-38'
p84
sg24
g34
sg25
g34
sg26
S'@BUF'
p85
sg27
S'--'
p86
sg28
g34
sg29
S'--'
p87
ssS'15'
p88
(dp89
g5
S'--'
p90
sg7
S'--'
p91
sg8
g34
sg9
S'--'
p92
sg10
g36
sg11
S'Jace Amaro'
p93
sg13
S'2014'
p94
sg15
S'15'
p95
sg17
S'--'
p96
sg18
S'12/14'
p97
sg20
S'20.0'
p98
sg21
S'--'
p99
sg22
S'--'
p100
sg23
S'W16-11'
p101
sg24
S'20'
p102
sg25
g36
sg26
S'@TEN'
p103
sg27
S'20'
p104
sg28
g34
sg29
S'--'
p105
ssS'14'
p106
(dp107
g5
S'--'
p108
sg7
S'--'
p109
sg8
g34
sg9
S'--'
p110
sg10
g34
sg11
S'Jace Amaro'
p111
sg13
S'2014'
p112
sg15
S'14'
p113
sg17
S'--'
p114
sg18
S'12/07'
p115
sg20
S'--'
p116
sg21
S'--'
p117
sg22
S'--'
p118
sg23
S'L24-30'
p119
sg24
S'--'
p120
sg25
S'--'
p121
sg26
S'@MIN'
p122
sg27
S'--'
p123
sg28
S'--'
p124
sg29
S'--'
p125
ssS'17'
p126
(dp127
g5
S'--'
p128
sg7
S'--'
p129
sg8
g34
sg9
S'--'
p130
sg10
g36
sg11
S'Jace Amaro'
p131
sg13
S'2014'
p132
sg15
S'17'
p133
sg17
S'--'
p134
sg18
S'12/28'
p135
sg20
S'11.3'
p136
sg21
S'--'
p137
sg22
S'--'
p138
sg23
S'W37-24'
p139
sg24
S'34'
p140
sg25
S'3'
p141
sg26
S'@MIA'
p142
sg27
S'17'
p143
sg28
g34
sg29
S'--'
p144
ssS'16'
p145
(dp146
g5
S'--'
p147
sg7
S'--'
p148
sg8
g34
sg9
S'--'
p149
sg10
g36
sg11
S'Jace Amaro'
p150
sg13
S'2014'
p151
sg15
S'16'
p152
sg17
S'--'
p153
sg18
S'12/21'
p154
sg20
S'--'
p155
sg21
S'--'
p156
sg22
S'--'
p157
sg23
S'L16-17'
p158
sg24
g34
sg25
g34
sg26
S'NE'
p159
sg27
S'--'
p160
sg28
g34
sg29
S'--'
p161
ssg36
(dp162
g5
S'--'
p163
sg7
S'--'
p164
sg8
g36
sg9
S'--'
p165
sg10
g36
sg11
S'Jace Amaro'
p166
sg13
S'2014'
p167
sg15
g36
sg17
S'--'
p168
sg18
S'09/07'
p169
sg20
S'3.5'
p170
sg21
S'--'
p171
sg22
S'--'
p172
sg23
S'W19-14'
p173
sg24
S'7'
p174
sg25
g47
sg26
S'OAK'
p175
sg27
S'4'
p176
sg28
g34
sg29
S'--'
p177
ssg141
(dp178
g5
S'--'
p179
sg7
S'--'
p180
sg8
g34
sg9
g34
sg10
g36
sg11
S'Jace Amaro'
p181
sg13
S'2014'
p182
sg15
g141
sg17
S'--'
p183
sg18
S'09/22'
p184
sg20
S'18.0'
p185
sg21
g36
sg22
S'--'
p186
sg23
S'L19-27'
p187
sg24
S'54'
p188
sg25
g141
sg26
S'CHI'
p189
sg27
S'43'
p190
sg28
g34
sg29
S'--'
p191
ssg47
(dp192
g5
S'--'
p193
sg7
S'--'
p194
sg8
g34
sg9
S'--'
p195
sg10
g36
sg11
S'Jace Amaro'
p196
sg13
S'2014'
p197
sg15
g47
sg17
S'--'
p198
sg18
S'09/14'
p199
sg20
S'6.0'
p200
sg21
S'--'
p201
sg22
S'--'
p202
sg23
S'L24-31'
p203
sg24
g46
sg25
g36
sg26
S'@GB'
p204
sg27
g46
sg28
g34
sg29
S'--'
p205
ssS'5'
p206
(dp207
g5
S'--'
p208
sg7
S'--'
p209
sg8
g36
sg9
S'--'
p210
sg10
g36
sg11
S'Jace Amaro'
p211
sg13
S'2014'
p212
sg15
g206
sg17
S'--'
p213
sg18
S'10/05'
p214
sg20
S'6.3'
p215
sg21
S'--'
p216
sg22
S'--'
p217
sg23
S'L0-31'
p218
sg24
S'19'
p219
sg25
g141
sg26
S'@SD'
p220
sg27
S'9'
p221
sg28
g34
sg29
S'--'
p222
ssg176
(dp223
g5
S'--'
p224
sg7
S'--'
p225
sg8
g34
sg9
S'--'
p226
sg10
g36
sg11
S'Jace Amaro'
p227
sg13
S'2014'
p228
sg15
g176
sg17
S'--'
p229
sg18
S'09/28'
p230
sg20
S'11.6'
p231
sg21
S'--'
p232
sg22
S'--'
p233
sg23
S'L17-24'
p234
sg24
S'58'
p235
sg25
g206
sg26
S'DET'
p236
sg27
S'21'
p237
sg28
g34
sg29
S'--'
p238
ssg174
(dp239
g5
S'--'
p240
sg7
S'--'
p241
sg8
g34
sg9
S'--'
p242
sg10
g36
sg11
S'Jace Amaro'
p243
sg13
S'2014'
p244
sg15
g174
sg17
S'--'
p245
sg18
S'10/16'
p246
sg20
S'7.3'
p247
sg21
S'--'
p248
sg22
S'--'
p249
sg23
S'L25-27'
p250
sg24
S'22'
p251
sg25
g141
sg26
S'@NE'
p252
sg27
S'12'
p253
sg28
g34
sg29
S'--'
p254
ssg46
(dp255
g5
S'--'
p256
sg7
S'--'
p257
sg8
g34
sg9
S'--'
p258
sg10
g36
sg11
S'Jace Amaro'
p259
sg13
S'2014'
p260
sg15
g46
sg17
S'--'
p261
sg18
S'10/12'
p262
sg20
S'6.8'
p263
sg21
S'--'
p264
sg22
S'--'
p265
sg23
S'L17-31'
p266
sg24
S'68'
p267
sg25
S'10'
p268
sg26
S'DEN'
p269
sg27
S'15'
p270
sg28
g36
sg29
S'--'
p271
ssg221
(dp272
g5
S'--'
p273
sg7
S'--'
p274
sg8
g34
sg9
S'--'
p275
sg10
g36
sg11
S'Jace Amaro'
p276
sg13
S'2014'
p277
sg15
g221
sg17
S'--'
p278
sg18
S'11/02'
p279
sg20
S'--'
p280
sg21
S'--'
p281
sg22
S'--'
p282
sg23
S'L10-24'
p283
sg24
S'--'
p284
sg25
S'--'
p285
sg26
S'@KC'
p286
sg27
S'--'
p287
sg28
S'--'
p288
sg29
S'--'
p289
ssS'8'
p290
(dp291
g5
S'--'
p292
sg7
S'--'
p293
sg8
g36
sg9
S'--'
p294
sg10
g36
sg11
S'Jace Amaro'
p295
sg13
S'2014'
p296
sg15
g290
sg17
S'--'
p297
sg18
S'10/26'
p298
sg20
S'10.2'
p299
sg21
S'--'
p300
sg22
S'--'
p301
sg23
S'L23-43'
p302
sg24
S'51'
p303
sg25
g206
sg26
S'BUF'
p304
sg27
S'20'
p305
sg28
g34
sg29
S'--'
p306
sss.