(dp0
S'2015'
p1
(dp2
S'11'
p3
(dp4
S'RushTD'
p5
S'--'
p6
sS'RushYds'
p7
S'--'
p8
sS'GS'
p9
S'1'
p10
sS'Lost'
p11
S'--'
p12
sS'G'
p13
g10
sS'Player'
p14
S'Jack Doyle'
p15
sS'Year'
p16
S'2015'
p17
sS'WK'
p18
S'11'
p19
sS'RushAvg'
p20
S'--'
p21
sS'Game Date'
p22
S'11/22'
p23
sS'RecAvg'
p24
S'--'
p25
sS'FUM'
p26
S'--'
p27
sS'RushAtt'
p28
S'--'
p29
sS'Result'
p30
S'W24-21'
p31
sS'RecYds'
p32
S'--'
p33
sS'Rec'
p34
S'--'
p35
sS'Opp'
p36
S'@ATL'
p37
sS'RecLng'
p38
S'--'
p39
sS'RecTD'
p40
S'--'
p41
sS'RushLng'
p42
S'--'
p43
ssS'10'
p44
(dp45
g5
S''
p46
sg7
g46
sg9
g46
sg11
g46
sg13
g46
sg14
S'Jack Doyle'
p47
sg16
S'2015'
p48
sg18
S'10'
p49
sg20
g46
sg22
S'Bye'
p50
sg24
g46
sg26
g46
sg28
g46
sg30
g46
sg32
g46
sg34
g46
sg36
g46
sg38
g46
sg40
g46
sg42
g46
ssS'13'
p51
(dp52
g5
S'--'
p53
sg7
S'--'
p54
sg9
S'0'
p55
sg11
S'--'
p56
sg13
g10
sg14
S'Jack Doyle'
p57
sg16
S'2015'
p58
sg18
S'13'
p59
sg20
S'--'
p60
sg22
S'12/06'
p61
sg24
S'--'
p62
sg26
S'--'
p63
sg28
S'--'
p64
sg30
S'L10-45'
p65
sg32
S'--'
p66
sg34
S'--'
p67
sg36
S'@PIT'
p68
sg38
S'--'
p69
sg40
S'--'
p70
sg42
S'--'
p71
ssS'12'
p72
(dp73
g5
S'--'
p74
sg7
S'--'
p75
sg9
g55
sg11
S'--'
p76
sg13
g10
sg14
S'Jack Doyle'
p77
sg16
S'2015'
p78
sg18
S'12'
p79
sg20
S'--'
p80
sg22
S'11/29'
p81
sg24
S'5.0'
p82
sg26
S'--'
p83
sg28
S'--'
p84
sg30
S'W25-12'
p85
sg32
S'5'
p86
sg34
g10
sg36
S'TB'
p87
sg38
g86
sg40
g55
sg42
S'--'
p88
ssS'15'
p89
(dp90
g5
S'--'
p91
sg7
S'--'
p92
sg9
g55
sg11
S'--'
p93
sg13
g10
sg14
S'Jack Doyle'
p94
sg16
S'2015'
p95
sg18
S'15'
p96
sg20
S'--'
p97
sg22
S'12/20'
p98
sg24
S'--'
p99
sg26
S'--'
p100
sg28
S'--'
p101
sg30
S'L10-16'
p102
sg32
S'--'
p103
sg34
S'--'
p104
sg36
S'HOU'
p105
sg38
S'--'
p106
sg40
S'--'
p107
sg42
S'--'
p108
ssS'14'
p109
(dp110
g5
S'--'
p111
sg7
S'--'
p112
sg9
g55
sg11
S'--'
p113
sg13
g10
sg14
S'Jack Doyle'
p114
sg16
S'2015'
p115
sg18
S'14'
p116
sg20
S'--'
p117
sg22
S'12/13'
p118
sg24
S'--'
p119
sg26
S'--'
p120
sg28
S'--'
p121
sg30
S'L16-51'
p122
sg32
S'--'
p123
sg34
S'--'
p124
sg36
S'@JAC'
p125
sg38
S'--'
p126
sg40
S'--'
p127
sg42
S'--'
p128
ssS'17'
p129
(dp130
g5
S'--'
p131
sg7
S'--'
p132
sg9
g10
sg11
S'--'
p133
sg13
g10
sg14
S'Jack Doyle'
p134
sg16
S'2015'
p135
sg18
S'17'
p136
sg20
S'--'
p137
sg22
S'01/03'
p138
sg24
S'3.0'
p139
sg26
S'--'
p140
sg28
S'--'
p141
sg30
S'W30-24'
p142
sg32
S'3'
p143
sg34
g10
sg36
S'TEN'
p144
sg38
g143
sg40
g55
sg42
S'--'
p145
ssS'16'
p146
(dp147
g5
S'--'
p148
sg7
S'--'
p149
sg9
g55
sg11
S'--'
p150
sg13
g10
sg14
S'Jack Doyle'
p151
sg16
S'2015'
p152
sg18
S'16'
p153
sg20
S'--'
p154
sg22
S'12/27'
p155
sg24
S'3.5'
p156
sg26
S'--'
p157
sg28
S'--'
p158
sg30
S'W18-12'
p159
sg32
S'7'
p160
sg34
S'2'
p161
sg36
S'@MIA'
p162
sg38
g86
sg40
g55
sg42
S'--'
p163
ssg10
(dp164
g5
S'--'
p165
sg7
S'--'
p166
sg9
g55
sg11
S'--'
p167
sg13
g10
sg14
S'Jack Doyle'
p168
sg16
S'2015'
p169
sg18
g10
sg20
S'--'
p170
sg22
S'09/13'
p171
sg24
S'--'
p172
sg26
S'--'
p173
sg28
S'--'
p174
sg30
S'L14-27'
p175
sg32
S'--'
p176
sg34
S'--'
p177
sg36
S'@BUF'
p178
sg38
S'--'
p179
sg40
S'--'
p180
sg42
S'--'
p181
ssg143
(dp182
g5
S'--'
p183
sg7
S'--'
p184
sg9
g55
sg11
S'--'
p185
sg13
g10
sg14
S'Jack Doyle'
p186
sg16
S'2015'
p187
sg18
g143
sg20
S'--'
p188
sg22
S'09/27'
p189
sg24
S'10.7'
p190
sg26
S'--'
p191
sg28
S'--'
p192
sg30
S'W35-33'
p193
sg32
S'32'
p194
sg34
g143
sg36
S'@TEN'
p195
sg38
S'19'
p196
sg40
g55
sg42
S'--'
p197
ssg161
(dp198
g5
S'--'
p199
sg7
S'--'
p200
sg9
g55
sg11
S'--'
p201
sg13
g10
sg14
S'Jack Doyle'
p202
sg16
S'2015'
p203
sg18
g161
sg20
S'--'
p204
sg22
S'09/21'
p205
sg24
S'--'
p206
sg26
S'--'
p207
sg28
S'--'
p208
sg30
S'L7-20'
p209
sg32
S'--'
p210
sg34
S'--'
p211
sg36
S'NYJ'
p212
sg38
S'--'
p213
sg40
S'--'
p214
sg42
S'--'
p215
ssg86
(dp216
g5
S'--'
p217
sg7
S'--'
p218
sg9
g55
sg11
S'--'
p219
sg13
g10
sg14
S'Jack Doyle'
p220
sg16
S'2015'
p221
sg18
g86
sg20
S'--'
p222
sg22
S'10/08'
p223
sg24
S'0.0'
p224
sg26
S'--'
p225
sg28
S'--'
p226
sg30
S'W27-20'
p227
sg32
g55
sg34
g10
sg36
S'@HOU'
p228
sg38
g55
sg40
g55
sg42
S'--'
p229
ssS'4'
p230
(dp231
g5
S'--'
p232
sg7
S'--'
p233
sg9
g55
sg11
S'--'
p234
sg13
g10
sg14
S'Jack Doyle'
p235
sg16
S'2015'
p236
sg18
g230
sg20
S'--'
p237
sg22
S'10/04'
p238
sg24
S'--'
p239
sg26
S'--'
p240
sg28
S'--'
p241
sg30
S'W16-13'
p242
sg32
S'--'
p243
sg34
S'--'
p244
sg36
S'JAC'
p245
sg38
S'--'
p246
sg40
S'--'
p247
sg42
S'--'
p248
ssg160
(dp249
g5
S'--'
p250
sg7
S'--'
p251
sg9
g55
sg11
S'--'
p252
sg13
g10
sg14
S'Jack Doyle'
p253
sg16
S'2015'
p254
sg18
g160
sg20
S'--'
p255
sg22
S'10/25'
p256
sg24
S'--'
p257
sg26
S'--'
p258
sg28
S'--'
p259
sg30
S'L21-27'
p260
sg32
S'--'
p261
sg34
S'--'
p262
sg36
S'NO'
p263
sg38
S'--'
p264
sg40
S'--'
p265
sg42
S'--'
p266
ssS'6'
p267
(dp268
g5
S'--'
p269
sg7
S'--'
p270
sg9
g55
sg11
S'--'
p271
sg13
g10
sg14
S'Jack Doyle'
p272
sg16
S'2015'
p273
sg18
g267
sg20
S'--'
p274
sg22
S'10/18'
p275
sg24
S'3.5'
p276
sg26
S'--'
p277
sg28
S'--'
p278
sg30
S'L27-34'
p279
sg32
g160
sg34
g161
sg36
S'NE'
p280
sg38
g86
sg40
g55
sg42
S'--'
p281
ssS'9'
p282
(dp283
g5
S'--'
p284
sg7
S'--'
p285
sg9
g55
sg11
S'--'
p286
sg13
g10
sg14
S'Jack Doyle'
p287
sg16
S'2015'
p288
sg18
g282
sg20
S'--'
p289
sg22
S'11/08'
p290
sg24
S'9.0'
p291
sg26
S'--'
p292
sg28
S'--'
p293
sg30
S'W27-24'
p294
sg32
S'18'
p295
sg34
g161
sg36
S'DEN'
p296
sg38
S'15'
p297
sg40
g10
sg42
S'--'
p298
ssS'8'
p299
(dp300
g5
S'--'
p301
sg7
S'--'
p302
sg9
g55
sg11
S'--'
p303
sg13
g10
sg14
S'Jack Doyle'
p304
sg16
S'2015'
p305
sg18
g299
sg20
S'--'
p306
sg22
S'11/02'
p307
sg24
S'--'
p308
sg26
S'--'
p309
sg28
S'--'
p310
sg30
S'L26-29'
p311
sg32
S'--'
p312
sg34
S'--'
p313
sg36
S'@CAR'
p314
sg38
S'--'
p315
sg40
S'--'
p316
sg42
S'--'
p317
sssS'2014'
p318
(dp319
g3
(dp320
g5
S'--'
p321
sg7
S'--'
p322
sg9
g55
sg11
S'--'
p323
sg13
g10
sg14
S'Jack Doyle'
p324
sg16
S'2014'
p325
sg18
S'11'
p326
sg20
S'--'
p327
sg22
S'11/16'
p328
sg24
S'--'
p329
sg26
S'--'
p330
sg28
S'--'
p331
sg30
S'L20-42'
p332
sg32
g55
sg34
g55
sg36
S'NE'
p333
sg38
S'--'
p334
sg40
g55
sg42
S'--'
p335
ssg44
(dp336
g5
g46
sg7
g46
sg9
g46
sg11
g46
sg13
g46
sg14
S'Jack Doyle'
p337
sg16
S'2014'
p338
sg18
S'10'
p339
sg20
g46
sg22
S'Bye'
p340
sg24
g46
sg26
g46
sg28
g46
sg30
g46
sg32
g46
sg34
g46
sg36
g46
sg38
g46
sg40
g46
sg42
g46
ssg51
(dp341
g5
S'--'
p342
sg7
S'--'
p343
sg9
g55
sg11
S'--'
p344
sg13
g10
sg14
S'Jack Doyle'
p345
sg16
S'2014'
p346
sg18
S'13'
p347
sg20
S'--'
p348
sg22
S'11/30'
p349
sg24
S'8.0'
p350
sg26
S'--'
p351
sg28
S'--'
p352
sg30
S'W49-27'
p353
sg32
g299
sg34
g10
sg36
S'WAS'
p354
sg38
g299
sg40
g55
sg42
S'--'
p355
ssg72
(dp356
g5
S'--'
p357
sg7
S'--'
p358
sg9
g55
sg11
S'--'
p359
sg13
g10
sg14
S'Jack Doyle'
p360
sg16
S'2014'
p361
sg18
S'12'
p362
sg20
S'--'
p363
sg22
S'11/23'
p364
sg24
S'4.0'
p365
sg26
S'--'
p366
sg28
S'--'
p367
sg30
S'W23-3'
p368
sg32
g299
sg34
g161
sg36
S'JAC'
p369
sg38
g160
sg40
g55
sg42
S'--'
p370
ssg89
(dp371
g5
S'--'
p372
sg7
S'--'
p373
sg9
g55
sg11
S'--'
p374
sg13
g10
sg14
S'Jack Doyle'
p375
sg16
S'2014'
p376
sg18
S'15'
p377
sg20
S'--'
p378
sg22
S'12/14'
p379
sg24
S'--'
p380
sg26
S'--'
p381
sg28
S'--'
p382
sg30
S'W17-10'
p383
sg32
S'--'
p384
sg34
S'--'
p385
sg36
S'HOU'
p386
sg38
S'--'
p387
sg40
S'--'
p388
sg42
S'--'
p389
ssg109
(dp390
g5
S'--'
p391
sg7
S'--'
p392
sg9
g55
sg11
S'--'
p393
sg13
g10
sg14
S'Jack Doyle'
p394
sg16
S'2014'
p395
sg18
S'14'
p396
sg20
S'--'
p397
sg22
S'12/07'
p398
sg24
S'--'
p399
sg26
S'--'
p400
sg28
S'--'
p401
sg30
S'W25-24'
p402
sg32
S'--'
p403
sg34
S'--'
p404
sg36
S'@CLE'
p405
sg38
S'--'
p406
sg40
S'--'
p407
sg42
S'--'
p408
ssg129
(dp409
g5
S'--'
p410
sg7
S'--'
p411
sg9
g10
sg11
S'--'
p412
sg13
g10
sg14
S'Jack Doyle'
p413
sg16
S'2014'
p414
sg18
S'17'
p415
sg20
S'--'
p416
sg22
S'12/28'
p417
sg24
S'5.3'
p418
sg26
S'--'
p419
sg28
S'--'
p420
sg30
S'W27-10'
p421
sg32
S'21'
p422
sg34
g230
sg36
S'@TEN'
p423
sg38
g160
sg40
g10
sg42
S'--'
p424
ssg146
(dp425
g5
S'--'
p426
sg7
S'--'
p427
sg9
g55
sg11
S'--'
p428
sg13
g10
sg14
S'Jack Doyle'
p429
sg16
S'2014'
p430
sg18
S'16'
p431
sg20
S'--'
p432
sg22
S'12/21'
p433
sg24
S'11.5'
p434
sg26
S'--'
p435
sg28
S'--'
p436
sg30
S'L7-42'
p437
sg32
S'23'
p438
sg34
g161
sg36
S'@DAL'
p439
sg38
S'13'
p440
sg40
g55
sg42
S'--'
p441
ssg10
(dp442
g5
S'--'
p443
sg7
S'--'
p444
sg9
g55
sg11
S'--'
p445
sg13
g10
sg14
S'Jack Doyle'
p446
sg16
S'2014'
p447
sg18
g10
sg20
S'--'
p448
sg22
S'09/07'
p449
sg24
S'--'
p450
sg26
S'--'
p451
sg28
S'--'
p452
sg30
S'L24-31'
p453
sg32
S'--'
p454
sg34
S'--'
p455
sg36
S'@DEN'
p456
sg38
S'--'
p457
sg40
S'--'
p458
sg42
S'--'
p459
ssg143
(dp460
g5
S'--'
p461
sg7
S'--'
p462
sg9
g55
sg11
S'--'
p463
sg13
g10
sg14
S'Jack Doyle'
p464
sg16
S'2014'
p465
sg18
g143
sg20
S'--'
p466
sg22
S'09/21'
p467
sg24
S'3.3'
p468
sg26
S'--'
p469
sg28
S'--'
p470
sg30
S'W44-17'
p471
sg32
S'10'
p472
sg34
g143
sg36
S'@JAC'
p473
sg38
g267
sg40
g55
sg42
S'--'
p474
ssg161
(dp475
g5
S'--'
p476
sg7
S'--'
p477
sg9
g55
sg11
S'--'
p478
sg13
g10
sg14
S'Jack Doyle'
p479
sg16
S'2014'
p480
sg18
g161
sg20
S'--'
p481
sg22
S'09/15'
p482
sg24
S'6.0'
p483
sg26
S'--'
p484
sg28
S'--'
p485
sg30
S'L27-30'
p486
sg32
S'12'
p487
sg34
g161
sg36
S'PHI'
p488
sg38
S'10'
p489
sg40
g10
sg42
S'--'
p490
ssg86
(dp491
g5
S'--'
p492
sg7
S'--'
p493
sg9
g55
sg11
S'--'
p494
sg13
g10
sg14
S'Jack Doyle'
p495
sg16
S'2014'
p496
sg18
g86
sg20
S'--'
p497
sg22
S'10/05'
p498
sg24
S'--'
p499
sg26
S'--'
p500
sg28
S'--'
p501
sg30
S'W20-13'
p502
sg32
S'--'
p503
sg34
S'--'
p504
sg36
S'BAL'
p505
sg38
S'--'
p506
sg40
S'--'
p507
sg42
S'--'
p508
ssg230
(dp509
g5
S'--'
p510
sg7
S'--'
p511
sg9
g55
sg11
S'--'
p512
sg13
g10
sg14
S'Jack Doyle'
p513
sg16
S'2014'
p514
sg18
g230
sg20
S'--'
p515
sg22
S'09/28'
p516
sg24
S'7.0'
p517
sg26
S'--'
p518
sg28
S'--'
p519
sg30
S'W41-17'
p520
sg32
g160
sg34
g10
sg36
S'TEN'
p521
sg38
g160
sg40
g55
sg42
S'--'
p522
ssg160
(dp523
g5
S'--'
p524
sg7
S'--'
p525
sg9
g55
sg11
S'--'
p526
sg13
g10
sg14
S'Jack Doyle'
p527
sg16
S'2014'
p528
sg18
g160
sg20
S'--'
p529
sg22
S'10/19'
p530
sg24
S'20.0'
p531
sg26
S'--'
p532
sg28
S'--'
p533
sg30
S'W27-0'
p534
sg32
S'20'
p535
sg34
g10
sg36
S'CIN'
p536
sg38
S'20'
p537
sg40
g55
sg42
S'--'
p538
ssg267
(dp539
g5
S'--'
p540
sg7
S'--'
p541
sg9
g55
sg11
S'--'
p542
sg13
g10
sg14
S'Jack Doyle'
p543
sg16
S'2014'
p544
sg18
g267
sg20
S'--'
p545
sg22
S'10/09'
p546
sg24
S'4.5'
p547
sg26
S'--'
p548
sg28
S'--'
p549
sg30
S'W33-28'
p550
sg32
g282
sg34
g161
sg36
S'@HOU'
p551
sg38
g267
sg40
g55
sg42
S'--'
p552
ssg282
(dp553
g5
S'--'
p554
sg7
S'--'
p555
sg9
g55
sg11
S'--'
p556
sg13
g10
sg14
S'Jack Doyle'
p557
sg16
S'2014'
p558
sg18
g282
sg20
S'--'
p559
sg22
S'11/03'
p560
sg24
S'--'
p561
sg26
S'--'
p562
sg28
S'--'
p563
sg30
S'W40-24'
p564
sg32
S'--'
p565
sg34
S'--'
p566
sg36
S'@NYG'
p567
sg38
S'--'
p568
sg40
S'--'
p569
sg42
S'--'
p570
ssg299
(dp571
g5
S'--'
p572
sg7
S'--'
p573
sg9
g55
sg11
S'--'
p574
sg13
g10
sg14
S'Jack Doyle'
p575
sg16
S'2014'
p576
sg18
g299
sg20
S'--'
p577
sg22
S'10/26'
p578
sg24
S'--'
p579
sg26
S'--'
p580
sg28
S'--'
p581
sg30
S'L34-51'
p582
sg32
S'--'
p583
sg34
S'--'
p584
sg36
S'@PIT'
p585
sg38
S'--'
p586
sg40
S'--'
p587
sg42
S'--'
p588
sssS'2013'
p589
(dp590
g3
(dp591
g5
S'--'
p592
sg7
S'--'
p593
sg9
g55
sg11
S'--'
p594
sg13
g10
sg14
S'Jack Doyle'
p595
sg16
S'2013'
p596
sg18
S'11'
p597
sg20
S'--'
p598
sg22
S'11/14'
p599
sg24
S'--'
p600
sg26
S'--'
p601
sg28
S'--'
p602
sg30
S'W30-27'
p603
sg32
S'--'
p604
sg34
S'--'
p605
sg36
S'@TEN'
p606
sg38
S'--'
p607
sg40
S'--'
p608
sg42
S'--'
p609
ssg44
(dp610
g5
S'--'
p611
sg7
S'--'
p612
sg9
g10
sg11
S'--'
p613
sg13
g10
sg14
S'Jack Doyle'
p614
sg16
S'2013'
p615
sg18
S'10'
p616
sg20
S'--'
p617
sg22
S'11/10'
p618
sg24
S'--'
p619
sg26
S'--'
p620
sg28
S'--'
p621
sg30
S'L8-38'
p622
sg32
S'--'
p623
sg34
S'--'
p624
sg36
S'STL'
p625
sg38
S'--'
p626
sg40
S'--'
p627
sg42
S'--'
p628
ssg51
(dp629
g5
S'--'
p630
sg7
S'--'
p631
sg9
g55
sg11
S'--'
p632
sg13
g10
sg14
S'Jack Doyle'
p633
sg16
S'2013'
p634
sg18
S'13'
p635
sg20
S'--'
p636
sg22
S'12/01'
p637
sg24
S'--'
p638
sg26
S'--'
p639
sg28
S'--'
p640
sg30
S'W22-14'
p641
sg32
S'--'
p642
sg34
S'--'
p643
sg36
S'TEN'
p644
sg38
S'--'
p645
sg40
S'--'
p646
sg42
S'--'
p647
ssg72
(dp648
g5
S'--'
p649
sg7
S'--'
p650
sg9
g10
sg11
S'--'
p651
sg13
g10
sg14
S'Jack Doyle'
p652
sg16
S'2013'
p653
sg18
S'12'
p654
sg20
S'--'
p655
sg22
S'11/24'
p656
sg24
S'--'
p657
sg26
S'--'
p658
sg28
S'--'
p659
sg30
S'L11-40'
p660
sg32
S'--'
p661
sg34
S'--'
p662
sg36
S'@ARI'
p663
sg38
S'--'
p664
sg40
S'--'
p665
sg42
S'--'
p666
ssg89
(dp667
g5
S'--'
p668
sg7
S'--'
p669
sg9
g55
sg11
S'--'
p670
sg13
g10
sg14
S'Jack Doyle'
p671
sg16
S'2013'
p672
sg18
S'15'
p673
sg20
S'--'
p674
sg22
S'12/15'
p675
sg24
S'-4.0'
p676
sg26
S'--'
p677
sg28
S'--'
p678
sg30
S'W25-3'
p679
sg32
S'-4'
p680
sg34
g10
sg36
S'HOU'
p681
sg38
S'-4'
p682
sg40
g55
sg42
S'--'
p683
ssg109
(dp684
g5
S'--'
p685
sg7
S'--'
p686
sg9
g10
sg11
S'--'
p687
sg13
g10
sg14
S'Jack Doyle'
p688
sg16
S'2013'
p689
sg18
S'14'
p690
sg20
S'--'
p691
sg22
S'12/08'
p692
sg24
S'8.0'
p693
sg26
S'--'
p694
sg28
S'--'
p695
sg30
S'L28-42'
p696
sg32
g299
sg34
g10
sg36
S'@CIN'
p697
sg38
g299
sg40
g55
sg42
S'--'
p698
ssg129
(dp699
g5
S'--'
p700
sg7
S'--'
p701
sg9
g55
sg11
S'--'
p702
sg13
g10
sg14
S'Jack Doyle'
p703
sg16
S'2013'
p704
sg18
S'17'
p705
sg20
S'--'
p706
sg22
S'12/29'
p707
sg24
S'2.0'
p708
sg26
S'--'
p709
sg28
S'--'
p710
sg30
S'W30-10'
p711
sg32
g161
sg34
g10
sg36
S'JAC'
p712
sg38
g161
sg40
g55
sg42
S'--'
p713
ssg146
(dp714
g5
S'--'
p715
sg7
S'--'
p716
sg9
g55
sg11
S'--'
p717
sg13
g10
sg14
S'Jack Doyle'
p718
sg16
S'2013'
p719
sg18
S'16'
p720
sg20
S'--'
p721
sg22
S'12/22'
p722
sg24
S'6.0'
p723
sg26
S'--'
p724
sg28
S'--'
p725
sg30
S'W23-7'
p726
sg32
g267
sg34
g10
sg36
S'@KC'
p727
sg38
g267
sg40
g55
sg42
S'--'
p728
ssg10
(dp729
g5
S'--'
p730
sg7
S'--'
p731
sg9
g55
sg11
S'--'
p732
sg13
g55
sg14
S'Jack Doyle'
p733
sg16
S'2013'
p734
sg18
g10
sg20
S'--'
p735
sg22
S'09/08'
p736
sg24
S'--'
p737
sg26
S'--'
p738
sg28
S'--'
p739
sg30
S'W21-17'
p740
sg32
S'--'
p741
sg34
S'--'
p742
sg36
S'OAK'
p743
sg38
S'--'
p744
sg40
S'--'
p745
sg42
S'--'
p746
ssg143
(dp747
g5
S'--'
p748
sg7
S'--'
p749
sg9
g55
sg11
S'--'
p750
sg13
g10
sg14
S'Jack Doyle'
p751
sg16
S'2013'
p752
sg18
g143
sg20
S'--'
p753
sg22
S'09/22'
p754
sg24
S'--'
p755
sg26
S'--'
p756
sg28
S'--'
p757
sg30
S'W27-7'
p758
sg32
S'--'
p759
sg34
S'--'
p760
sg36
S'@SF'
p761
sg38
S'--'
p762
sg40
S'--'
p763
sg42
S'--'
p764
ssg161
(dp765
g5
S'--'
p766
sg7
S'--'
p767
sg9
g55
sg11
S'--'
p768
sg13
g10
sg14
S'Jack Doyle'
p769
sg16
S'2013'
p770
sg18
g161
sg20
S'--'
p771
sg22
S'09/15'
p772
sg24
S'--'
p773
sg26
S'--'
p774
sg28
S'--'
p775
sg30
S'L20-24'
p776
sg32
S'--'
p777
sg34
S'--'
p778
sg36
S'MIA'
p779
sg38
S'--'
p780
sg40
S'--'
p781
sg42
S'--'
p782
ssg86
(dp783
g5
S'--'
p784
sg7
S'--'
p785
sg9
g55
sg11
S'--'
p786
sg13
g10
sg14
S'Jack Doyle'
p787
sg16
S'2013'
p788
sg18
g86
sg20
S'--'
p789
sg22
S'10/06'
p790
sg24
S'--'
p791
sg26
S'--'
p792
sg28
S'--'
p793
sg30
S'W34-28'
p794
sg32
S'--'
p795
sg34
S'--'
p796
sg36
S'SEA'
p797
sg38
S'--'
p798
sg40
S'--'
p799
sg42
S'--'
p800
ssg230
(dp801
g5
S'--'
p802
sg7
S'--'
p803
sg9
g55
sg11
S'--'
p804
sg13
g10
sg14
S'Jack Doyle'
p805
sg16
S'2013'
p806
sg18
g230
sg20
S'--'
p807
sg22
S'09/29'
p808
sg24
S'--'
p809
sg26
S'--'
p810
sg28
S'--'
p811
sg30
S'W37-3'
p812
sg32
S'--'
p813
sg34
S'--'
p814
sg36
S'@JAC'
p815
sg38
S'--'
p816
sg40
S'--'
p817
sg42
S'--'
p818
ssg160
(dp819
g5
S'--'
p820
sg7
S'--'
p821
sg9
g55
sg11
S'--'
p822
sg13
g10
sg14
S'Jack Doyle'
p823
sg16
S'2013'
p824
sg18
g160
sg20
S'--'
p825
sg22
S'10/20'
p826
sg24
S'7.0'
p827
sg26
S'--'
p828
sg28
S'--'
p829
sg30
S'W39-33'
p830
sg32
g160
sg34
g10
sg36
S'DEN'
p831
sg38
g160
sg40
g55
sg42
S'--'
p832
ssg267
(dp833
g5
S'--'
p834
sg7
S'--'
p835
sg9
g55
sg11
S'--'
p836
sg13
g10
sg14
S'Jack Doyle'
p837
sg16
S'2013'
p838
sg18
g267
sg20
S'--'
p839
sg22
S'10/14'
p840
sg24
S'--'
p841
sg26
S'--'
p842
sg28
S'--'
p843
sg30
S'L9-19'
p844
sg32
S'--'
p845
sg34
S'--'
p846
sg36
S'@SD'
p847
sg38
S'--'
p848
sg40
S'--'
p849
sg42
S'--'
p850
ssg282
(dp851
g5
S'--'
p852
sg7
S'--'
p853
sg9
g10
sg11
S'--'
p854
sg13
g10
sg14
S'Jack Doyle'
p855
sg16
S'2013'
p856
sg18
g282
sg20
S'--'
p857
sg22
S'11/03'
p858
sg24
S'--'
p859
sg26
S'--'
p860
sg28
S'--'
p861
sg30
S'W27-24'
p862
sg32
S'--'
p863
sg34
S'--'
p864
sg36
S'@HOU'
p865
sg38
S'--'
p866
sg40
S'--'
p867
sg42
S'--'
p868
ssg299
(dp869
g5
g46
sg7
g46
sg9
g46
sg11
g46
sg13
g46
sg14
S'Jack Doyle'
p870
sg16
S'2013'
p871
sg18
g299
sg20
g46
sg22
S'Bye'
p872
sg24
g46
sg26
g46
sg28
g46
sg30
g46
sg32
g46
sg34
g46
sg36
g46
sg38
g46
sg40
g46
sg42
g46
sss.