(dp0
S'2015'
p1
(dp2
S'11'
p3
(dp4
S'RushTD'
p5
S'--'
p6
sS'RushYds'
p7
S'--'
p8
sS'GS'
p9
S'0'
p10
sS'Lost'
p11
S'--'
p12
sS'G'
p13
S'1'
p14
sS'Player'
p15
S'James Hanna'
p16
sS'Year'
p17
S'2015'
p18
sS'WK'
p19
S'11'
p20
sS'RushAvg'
p21
S'--'
p22
sS'Game Date'
p23
S'11/22'
p24
sS'RecAvg'
p25
S'--'
p26
sS'FUM'
p27
S'--'
p28
sS'RushAtt'
p29
S'--'
p30
sS'Result'
p31
S'W24-14'
p32
sS'RecYds'
p33
S'--'
p34
sS'Rec'
p35
S'--'
p36
sS'Opp'
p37
S'@MIA'
p38
sS'RecLng'
p39
S'--'
p40
sS'RecTD'
p41
S'--'
p42
sS'RushLng'
p43
S'--'
p44
ssS'10'
p45
(dp46
g5
S'--'
p47
sg7
S'--'
p48
sg9
g10
sg11
S'--'
p49
sg13
g14
sg15
S'James Hanna'
p50
sg17
S'2015'
p51
sg19
S'10'
p52
sg21
S'--'
p53
sg23
S'11/15'
p54
sg25
S'--'
p55
sg27
S'--'
p56
sg29
S'--'
p57
sg31
S'L6-10'
p58
sg33
S'--'
p59
sg35
S'--'
p60
sg37
S'@TB'
p61
sg39
S'--'
p62
sg41
S'--'
p63
sg43
S'--'
p64
ssS'13'
p65
(dp66
g5
S'--'
p67
sg7
S'--'
p68
sg9
g14
sg11
S'--'
p69
sg13
g14
sg15
S'James Hanna'
p70
sg17
S'2015'
p71
sg19
S'13'
p72
sg21
S'--'
p73
sg23
S'12/07'
p74
sg25
S'11.0'
p75
sg27
S'--'
p76
sg29
S'--'
p77
sg31
S'W19-16'
p78
sg33
S'11'
p79
sg35
g14
sg37
S'@WAS'
p80
sg39
S'11'
p81
sg41
g10
sg43
S'--'
p82
ssS'12'
p83
(dp84
g5
S'--'
p85
sg7
S'--'
p86
sg9
g10
sg11
S'--'
p87
sg13
g14
sg15
S'James Hanna'
p88
sg17
S'2015'
p89
sg19
S'12'
p90
sg21
S'--'
p91
sg23
S'11/26'
p92
sg25
S'--'
p93
sg27
S'--'
p94
sg29
S'--'
p95
sg31
S'L14-33'
p96
sg33
S'--'
p97
sg35
S'--'
p98
sg37
S'CAR'
p99
sg39
S'--'
p100
sg41
S'--'
p101
sg43
S'--'
p102
ssS'15'
p103
(dp104
g5
S'--'
p105
sg7
S'--'
p106
sg9
g10
sg11
S'--'
p107
sg13
g14
sg15
S'James Hanna'
p108
sg17
S'2015'
p109
sg19
S'15'
p110
sg21
S'--'
p111
sg23
S'12/19'
p112
sg25
S'17.0'
p113
sg27
S'--'
p114
sg29
S'--'
p115
sg31
S'L16-19'
p116
sg33
S'17'
p117
sg35
g14
sg37
S'NYJ'
p118
sg39
S'17'
p119
sg41
g10
sg43
S'--'
p120
ssS'14'
p121
(dp122
g5
S'--'
p123
sg7
S'--'
p124
sg9
g10
sg11
S'--'
p125
sg13
g14
sg15
S'James Hanna'
p126
sg17
S'2015'
p127
sg19
S'14'
p128
sg21
S'--'
p129
sg23
S'12/13'
p130
sg25
S'--'
p131
sg27
S'--'
p132
sg29
S'--'
p133
sg31
S'L7-28'
p134
sg33
S'--'
p135
sg35
S'--'
p136
sg37
S'@GB'
p137
sg39
S'--'
p138
sg41
S'--'
p139
sg43
S'--'
p140
ssS'17'
p141
(dp142
g5
S'--'
p143
sg7
S'--'
p144
sg9
g14
sg11
S'--'
p145
sg13
g14
sg15
S'James Hanna'
p146
sg17
S'2015'
p147
sg19
S'17'
p148
sg21
S'--'
p149
sg23
S'01/03'
p150
sg25
S'9.3'
p151
sg27
S'--'
p152
sg29
S'--'
p153
sg31
S'L23-34'
p154
sg33
S'28'
p155
sg35
S'3'
p156
sg37
S'WAS'
p157
sg39
S'13'
p158
sg41
g10
sg43
S'--'
p159
ssS'16'
p160
(dp161
g5
S'--'
p162
sg7
S'--'
p163
sg9
g14
sg11
S'--'
p164
sg13
g14
sg15
S'James Hanna'
p165
sg17
S'2015'
p166
sg19
S'16'
p167
sg21
S'--'
p168
sg23
S'12/27'
p169
sg25
S'10.0'
p170
sg27
S'--'
p171
sg29
S'--'
p172
sg31
S'L6-16'
p173
sg33
S'10'
p174
sg35
g14
sg37
S'@BUF'
p175
sg39
S'10'
p176
sg41
g10
sg43
S'--'
p177
ssg14
(dp178
g5
S'--'
p179
sg7
S'--'
p180
sg9
g10
sg11
S'--'
p181
sg13
g14
sg15
S'James Hanna'
p182
sg17
S'2015'
p183
sg19
g14
sg21
S'--'
p184
sg23
S'09/13'
p185
sg25
S'--'
p186
sg27
S'--'
p187
sg29
S'--'
p188
sg31
S'W27-26'
p189
sg33
S'--'
p190
sg35
S'--'
p191
sg37
S'NYG'
p192
sg39
S'--'
p193
sg41
S'--'
p194
sg43
S'--'
p195
ssg156
(dp196
g5
S'--'
p197
sg7
S'--'
p198
sg9
g14
sg11
S'--'
p199
sg13
g14
sg15
S'James Hanna'
p200
sg17
S'2015'
p201
sg19
g156
sg21
S'--'
p202
sg23
S'09/27'
p203
sg25
S'--'
p204
sg27
S'--'
p205
sg29
S'--'
p206
sg31
S'L28-39'
p207
sg33
S'--'
p208
sg35
S'--'
p209
sg37
S'ATL'
p210
sg39
S'--'
p211
sg41
S'--'
p212
sg43
S'--'
p213
ssS'2'
p214
(dp215
g5
S'--'
p216
sg7
S'--'
p217
sg9
g10
sg11
S'--'
p218
sg13
g10
sg15
S'James Hanna'
p219
sg17
S'2015'
p220
sg19
g214
sg21
S'--'
p221
sg23
S'09/20'
p222
sg25
S'--'
p223
sg27
S'--'
p224
sg29
S'--'
p225
sg31
S'W20-10'
p226
sg33
S'--'
p227
sg35
S'--'
p228
sg37
S'@PHI'
p229
sg39
S'--'
p230
sg41
S'--'
p231
sg43
S'--'
p232
ssS'5'
p233
(dp234
g5
S'--'
p235
sg7
S'--'
p236
sg9
g10
sg11
S'--'
p237
sg13
g10
sg15
S'James Hanna'
p238
sg17
S'2015'
p239
sg19
g233
sg21
S'--'
p240
sg23
S'10/11'
p241
sg25
S'--'
p242
sg27
S'--'
p243
sg29
S'--'
p244
sg31
S'L6-30'
p245
sg33
S'--'
p246
sg35
S'--'
p247
sg37
S'NE'
p248
sg39
S'--'
p249
sg41
S'--'
p250
sg43
S'--'
p251
ssS'4'
p252
(dp253
g5
S'--'
p254
sg7
S'--'
p255
sg9
g14
sg11
S'--'
p256
sg13
g14
sg15
S'James Hanna'
p257
sg17
S'2015'
p258
sg19
g252
sg21
S'--'
p259
sg23
S'10/04'
p260
sg25
S'7.0'
p261
sg27
S'--'
p262
sg29
S'--'
p263
sg31
S'L20-26'
p264
sg33
S'7'
p265
sg35
g14
sg37
S'@NO'
p266
sg39
g265
sg41
g10
sg43
S'--'
p267
ssg265
(dp268
g5
S'--'
p269
sg7
S'--'
p270
sg9
g14
sg11
S'--'
p271
sg13
g14
sg15
S'James Hanna'
p272
sg17
S'2015'
p273
sg19
g265
sg21
S'--'
p274
sg23
S'10/25'
p275
sg25
S'6.0'
p276
sg27
S'--'
p277
sg29
S'--'
p278
sg31
S'L20-27'
p279
sg33
S'6'
p280
sg35
g14
sg37
S'@NYG'
p281
sg39
g280
sg41
g10
sg43
S'--'
p282
ssg280
(dp283
g5
S''
p284
sg7
g284
sg9
g284
sg11
g284
sg13
g284
sg15
S'James Hanna'
p285
sg17
S'2015'
p286
sg19
g280
sg21
g284
sg23
S'Bye'
p287
sg25
g284
sg27
g284
sg29
g284
sg31
g284
sg33
g284
sg35
g284
sg37
g284
sg39
g284
sg41
g284
sg43
g284
ssS'9'
p288
(dp289
g5
S'--'
p290
sg7
S'--'
p291
sg9
g10
sg11
S'--'
p292
sg13
g14
sg15
S'James Hanna'
p293
sg17
S'2015'
p294
sg19
g288
sg21
S'--'
p295
sg23
S'11/08'
p296
sg25
S'--'
p297
sg27
S'--'
p298
sg29
S'--'
p299
sg31
S'L27-33'
p300
sg33
g10
sg35
g10
sg37
S'PHI'
p301
sg39
S'--'
p302
sg41
g10
sg43
S'--'
p303
ssS'8'
p304
(dp305
g5
S'--'
p306
sg7
S'--'
p307
sg9
g14
sg11
S'--'
p308
sg13
g14
sg15
S'James Hanna'
p309
sg17
S'2015'
p310
sg19
g304
sg21
S'--'
p311
sg23
S'11/01'
p312
sg25
S'0.0'
p313
sg27
S'--'
p314
sg29
S'--'
p315
sg31
S'L12-13'
p316
sg33
g10
sg35
g14
sg37
S'SEA'
p317
sg39
g10
sg41
g10
sg43
S'--'
p318
sssS'2014'
p319
(dp320
g3
(dp321
g5
g284
sg7
g284
sg9
g284
sg11
g284
sg13
g284
sg15
S'James Hanna'
p322
sg17
S'2014'
p323
sg19
S'11'
p324
sg21
g284
sg23
S'Bye'
p325
sg25
g284
sg27
g284
sg29
g284
sg31
g284
sg33
g284
sg35
g284
sg37
g284
sg39
g284
sg41
g284
sg43
g284
ssg45
(dp326
g5
S'--'
p327
sg7
S'--'
p328
sg9
g14
sg11
S'--'
p329
sg13
g14
sg15
S'James Hanna'
p330
sg17
S'2014'
p331
sg19
S'10'
p332
sg21
S'--'
p333
sg23
S'11/09'
p334
sg25
S'--'
p335
sg27
S'--'
p336
sg29
S'--'
p337
sg31
S'W31-17'
p338
sg33
S'--'
p339
sg35
S'--'
p340
sg37
S'@JAC'
p341
sg39
S'--'
p342
sg41
S'--'
p343
sg43
S'--'
p344
ssg65
(dp345
g5
S'--'
p346
sg7
S'--'
p347
sg9
g14
sg11
S'--'
p348
sg13
g14
sg15
S'James Hanna'
p349
sg17
S'2014'
p350
sg19
S'13'
p351
sg21
S'--'
p352
sg23
S'11/27'
p353
sg25
S'--'
p354
sg27
S'--'
p355
sg29
S'--'
p356
sg31
S'L10-33'
p357
sg33
S'--'
p358
sg35
S'--'
p359
sg37
S'PHI'
p360
sg39
S'--'
p361
sg41
S'--'
p362
sg43
S'--'
p363
ssg83
(dp364
g5
S'--'
p365
sg7
S'--'
p366
sg9
g10
sg11
S'--'
p367
sg13
g14
sg15
S'James Hanna'
p368
sg17
S'2014'
p369
sg19
S'12'
p370
sg21
S'--'
p371
sg23
S'11/23'
p372
sg25
S'27.0'
p373
sg27
S'--'
p374
sg29
S'--'
p375
sg31
S'W31-28'
p376
sg33
S'27'
p377
sg35
g14
sg37
S'@NYG'
p378
sg39
S'27'
p379
sg41
g10
sg43
S'--'
p380
ssg103
(dp381
g5
S'--'
p382
sg7
S'--'
p383
sg9
g10
sg11
S'--'
p384
sg13
g14
sg15
S'James Hanna'
p385
sg17
S'2014'
p386
sg19
S'15'
p387
sg21
S'--'
p388
sg23
S'12/14'
p389
sg25
S'12.0'
p390
sg27
S'--'
p391
sg29
S'--'
p392
sg31
S'W38-27'
p393
sg33
S'12'
p394
sg35
g14
sg37
S'@PHI'
p395
sg39
S'12'
p396
sg41
g10
sg43
S'--'
p397
ssg121
(dp398
g5
S'--'
p399
sg7
S'--'
p400
sg9
g14
sg11
S'--'
p401
sg13
g14
sg15
S'James Hanna'
p402
sg17
S'2014'
p403
sg19
S'14'
p404
sg21
S'--'
p405
sg23
S'12/04'
p406
sg25
S'--'
p407
sg27
S'--'
p408
sg29
S'--'
p409
sg31
S'W41-28'
p410
sg33
S'--'
p411
sg35
S'--'
p412
sg37
S'@CHI'
p413
sg39
S'--'
p414
sg41
S'--'
p415
sg43
S'--'
p416
ssg141
(dp417
g5
S'--'
p418
sg7
S'--'
p419
sg9
g14
sg11
S'--'
p420
sg13
g14
sg15
S'James Hanna'
p421
sg17
S'2014'
p422
sg19
S'17'
p423
sg21
S'--'
p424
sg23
S'12/28'
p425
sg25
S'2.0'
p426
sg27
S'--'
p427
sg29
S'--'
p428
sg31
S'W44-17'
p429
sg33
g214
sg35
g14
sg37
S'@WAS'
p430
sg39
g214
sg41
g10
sg43
S'--'
p431
ssg160
(dp432
g5
S'--'
p433
sg7
S'--'
p434
sg9
g14
sg11
S'--'
p435
sg13
g14
sg15
S'James Hanna'
p436
sg17
S'2014'
p437
sg19
S'16'
p438
sg21
S'--'
p439
sg23
S'12/21'
p440
sg25
S'--'
p441
sg27
S'--'
p442
sg29
S'--'
p443
sg31
S'W42-7'
p444
sg33
S'--'
p445
sg35
S'--'
p446
sg37
S'IND'
p447
sg39
S'--'
p448
sg41
S'--'
p449
sg43
S'--'
p450
ssg14
(dp451
g5
S'--'
p452
sg7
S'--'
p453
sg9
g14
sg11
S'--'
p454
sg13
g14
sg15
S'James Hanna'
p455
sg17
S'2014'
p456
sg19
g14
sg21
S'--'
p457
sg23
S'09/07'
p458
sg25
S'--'
p459
sg27
S'--'
p460
sg29
S'--'
p461
sg31
S'L17-28'
p462
sg33
S'--'
p463
sg35
S'--'
p464
sg37
S'SF'
p465
sg39
S'--'
p466
sg41
S'--'
p467
sg43
S'--'
p468
ssg156
(dp469
g5
S'--'
p470
sg7
S'--'
p471
sg9
g14
sg11
S'--'
p472
sg13
g14
sg15
S'James Hanna'
p473
sg17
S'2014'
p474
sg19
g156
sg21
S'--'
p475
sg23
S'09/21'
p476
sg25
S'--'
p477
sg27
S'--'
p478
sg29
S'--'
p479
sg31
S'W34-31'
p480
sg33
S'--'
p481
sg35
S'--'
p482
sg37
S'@STL'
p483
sg39
S'--'
p484
sg41
S'--'
p485
sg43
S'--'
p486
ssg214
(dp487
g5
S'--'
p488
sg7
S'--'
p489
sg9
g14
sg11
S'--'
p490
sg13
g14
sg15
S'James Hanna'
p491
sg17
S'2014'
p492
sg19
g214
sg21
S'--'
p493
sg23
S'09/14'
p494
sg25
S'--'
p495
sg27
S'--'
p496
sg29
S'--'
p497
sg31
S'W26-10'
p498
sg33
S'--'
p499
sg35
S'--'
p500
sg37
S'@TEN'
p501
sg39
S'--'
p502
sg41
S'--'
p503
sg43
S'--'
p504
ssg233
(dp505
g5
S'--'
p506
sg7
S'--'
p507
sg9
g14
sg11
S'--'
p508
sg13
g14
sg15
S'James Hanna'
p509
sg17
S'2014'
p510
sg19
g233
sg21
S'--'
p511
sg23
S'10/05'
p512
sg25
S'--'
p513
sg27
S'--'
p514
sg29
S'--'
p515
sg31
S'W20-17'
p516
sg33
S'--'
p517
sg35
S'--'
p518
sg37
S'HOU'
p519
sg39
S'--'
p520
sg41
S'--'
p521
sg43
S'--'
p522
ssg252
(dp523
g5
S'--'
p524
sg7
S'--'
p525
sg9
g10
sg11
S'--'
p526
sg13
g14
sg15
S'James Hanna'
p527
sg17
S'2014'
p528
sg19
g252
sg21
S'--'
p529
sg23
S'09/28'
p530
sg25
S'--'
p531
sg27
S'--'
p532
sg29
S'--'
p533
sg31
S'W38-17'
p534
sg33
g10
sg35
g10
sg37
S'NO'
p535
sg39
S'--'
p536
sg41
g10
sg43
S'--'
p537
ssg265
(dp538
g5
S'--'
p539
sg7
S'--'
p540
sg9
g14
sg11
S'--'
p541
sg13
g14
sg15
S'James Hanna'
p542
sg17
S'2014'
p543
sg19
g265
sg21
S'--'
p544
sg23
S'10/19'
p545
sg25
S'--'
p546
sg27
S'--'
p547
sg29
S'--'
p548
sg31
S'W31-21'
p549
sg33
S'--'
p550
sg35
S'--'
p551
sg37
S'NYG'
p552
sg39
S'--'
p553
sg41
S'--'
p554
sg43
S'--'
p555
ssg280
(dp556
g5
S'--'
p557
sg7
S'--'
p558
sg9
g14
sg11
S'--'
p559
sg13
g14
sg15
S'James Hanna'
p560
sg17
S'2014'
p561
sg19
g280
sg21
S'--'
p562
sg23
S'10/12'
p563
sg25
S'--'
p564
sg27
S'--'
p565
sg29
S'--'
p566
sg31
S'W30-23'
p567
sg33
S'--'
p568
sg35
S'--'
p569
sg37
S'@SEA'
p570
sg39
S'--'
p571
sg41
S'--'
p572
sg43
S'--'
p573
ssg288
(dp574
g5
S'--'
p575
sg7
S'--'
p576
sg9
g10
sg11
S'--'
p577
sg13
g14
sg15
S'James Hanna'
p578
sg17
S'2014'
p579
sg19
g288
sg21
S'--'
p580
sg23
S'11/02'
p581
sg25
S'--'
p582
sg27
S'--'
p583
sg29
S'--'
p584
sg31
S'L17-28'
p585
sg33
S'--'
p586
sg35
S'--'
p587
sg37
S'ARI'
p588
sg39
S'--'
p589
sg41
S'--'
p590
sg43
S'--'
p591
ssg304
(dp592
g5
S'--'
p593
sg7
S'--'
p594
sg9
g14
sg11
S'--'
p595
sg13
g14
sg15
S'James Hanna'
p596
sg17
S'2014'
p597
sg19
g304
sg21
S'--'
p598
sg23
S'10/27'
p599
sg25
S'7.0'
p600
sg27
S'--'
p601
sg29
S'--'
p602
sg31
S'L17-20'
p603
sg33
g265
sg35
g14
sg37
S'WAS'
p604
sg39
g265
sg41
g10
sg43
S'--'
p605
sssS'2013'
p606
(dp607
g3
(dp608
g5
g284
sg7
g284
sg9
g284
sg11
g284
sg13
g284
sg15
S'James Hanna'
p609
sg17
S'2013'
p610
sg19
S'11'
p611
sg21
g284
sg23
S'Bye'
p612
sg25
g284
sg27
g284
sg29
g284
sg31
g284
sg33
g284
sg35
g284
sg37
g284
sg39
g284
sg41
g284
sg43
g284
ssg45
(dp613
g5
S'--'
p614
sg7
S'--'
p615
sg9
g14
sg11
S'--'
p616
sg13
g14
sg15
S'James Hanna'
p617
sg17
S'2013'
p618
sg19
S'10'
p619
sg21
S'--'
p620
sg23
S'11/10'
p621
sg25
S'3.7'
p622
sg27
S'--'
p623
sg29
S'--'
p624
sg31
S'L17-49'
p625
sg33
S'11'
p626
sg35
g156
sg37
S'@NO'
p627
sg39
g265
sg41
g10
sg43
S'--'
p628
ssg65
(dp629
g5
S'--'
p630
sg7
S'--'
p631
sg9
g14
sg11
S'--'
p632
sg13
g14
sg15
S'James Hanna'
p633
sg17
S'2013'
p634
sg19
S'13'
p635
sg21
S'--'
p636
sg23
S'11/28'
p637
sg25
S'--'
p638
sg27
S'--'
p639
sg29
S'--'
p640
sg31
S'W31-24'
p641
sg33
S'--'
p642
sg35
S'--'
p643
sg37
S'OAK'
p644
sg39
S'--'
p645
sg41
S'--'
p646
sg43
S'--'
p647
ssg83
(dp648
g5
S'--'
p649
sg7
S'--'
p650
sg9
g14
sg11
S'--'
p651
sg13
g14
sg15
S'James Hanna'
p652
sg17
S'2013'
p653
sg19
S'12'
p654
sg21
S'--'
p655
sg23
S'11/24'
p656
sg25
S'--'
p657
sg27
S'--'
p658
sg29
S'--'
p659
sg31
S'W24-21'
p660
sg33
S'--'
p661
sg35
S'--'
p662
sg37
S'@NYG'
p663
sg39
S'--'
p664
sg41
S'--'
p665
sg43
S'--'
p666
ssg103
(dp667
g5
S'--'
p668
sg7
S'--'
p669
sg9
g10
sg11
S'--'
p670
sg13
g14
sg15
S'James Hanna'
p671
sg17
S'2013'
p672
sg19
S'15'
p673
sg21
S'--'
p674
sg23
S'12/15'
p675
sg25
S'--'
p676
sg27
S'--'
p677
sg29
S'--'
p678
sg31
S'L36-37'
p679
sg33
g10
sg35
g10
sg37
S'GB'
p680
sg39
S'--'
p681
sg41
g10
sg43
S'--'
p682
ssg121
(dp683
g5
S'--'
p684
sg7
S'--'
p685
sg9
g14
sg11
S'--'
p686
sg13
g14
sg15
S'James Hanna'
p687
sg17
S'2013'
p688
sg19
S'14'
p689
sg21
S'--'
p690
sg23
S'12/09'
p691
sg25
S'6.0'
p692
sg27
S'--'
p693
sg29
S'--'
p694
sg31
S'L28-45'
p695
sg33
g280
sg35
g14
sg37
S'@CHI'
p696
sg39
g280
sg41
g10
sg43
S'--'
p697
ssg141
(dp698
g5
S'--'
p699
sg7
S'--'
p700
sg9
g10
sg11
S'--'
p701
sg13
g14
sg15
S'James Hanna'
p702
sg17
S'2013'
p703
sg19
S'17'
p704
sg21
S'--'
p705
sg23
S'12/29'
p706
sg25
S'--'
p707
sg27
S'--'
p708
sg29
S'--'
p709
sg31
S'L22-24'
p710
sg33
S'--'
p711
sg35
S'--'
p712
sg37
S'PHI'
p713
sg39
S'--'
p714
sg41
S'--'
p715
sg43
S'--'
p716
ssg160
(dp717
g5
S'--'
p718
sg7
S'--'
p719
sg9
g10
sg11
S'--'
p720
sg13
g14
sg15
S'James Hanna'
p721
sg17
S'2013'
p722
sg19
S'16'
p723
sg21
S'--'
p724
sg23
S'12/22'
p725
sg25
S'--'
p726
sg27
S'--'
p727
sg29
S'--'
p728
sg31
S'W24-23'
p729
sg33
S'--'
p730
sg35
S'--'
p731
sg37
S'@WAS'
p732
sg39
S'--'
p733
sg41
S'--'
p734
sg43
S'--'
p735
ssg14
(dp736
g5
S'--'
p737
sg7
S'--'
p738
sg9
g10
sg11
S'--'
p739
sg13
g14
sg15
S'James Hanna'
p740
sg17
S'2013'
p741
sg19
g14
sg21
S'--'
p742
sg23
S'09/08'
p743
sg25
S'--'
p744
sg27
S'--'
p745
sg29
S'--'
p746
sg31
S'W36-31'
p747
sg33
S'--'
p748
sg35
S'--'
p749
sg37
S'NYG'
p750
sg39
S'--'
p751
sg41
S'--'
p752
sg43
S'--'
p753
ssg156
(dp754
g5
S'--'
p755
sg7
S'--'
p756
sg9
g10
sg11
S'--'
p757
sg13
g14
sg15
S'James Hanna'
p758
sg17
S'2013'
p759
sg19
g156
sg21
S'--'
p760
sg23
S'09/22'
p761
sg25
S'--'
p762
sg27
S'--'
p763
sg29
S'--'
p764
sg31
S'W31-7'
p765
sg33
S'--'
p766
sg35
S'--'
p767
sg37
S'STL'
p768
sg39
S'--'
p769
sg41
S'--'
p770
sg43
S'--'
p771
ssg214
(dp772
g5
S'--'
p773
sg7
S'--'
p774
sg9
g14
sg11
S'--'
p775
sg13
g14
sg15
S'James Hanna'
p776
sg17
S'2013'
p777
sg19
g214
sg21
S'--'
p778
sg23
S'09/15'
p779
sg25
S'5.0'
p780
sg27
S'--'
p781
sg29
S'--'
p782
sg31
S'L16-17'
p783
sg33
S'20'
p784
sg35
g252
sg37
S'@KC'
p785
sg39
g304
sg41
g10
sg43
S'--'
p786
ssg233
(dp787
g5
S'--'
p788
sg7
S'--'
p789
sg9
g10
sg11
S'--'
p790
sg13
g14
sg15
S'James Hanna'
p791
sg17
S'2013'
p792
sg19
g233
sg21
S'--'
p793
sg23
S'10/06'
p794
sg25
S'3.0'
p795
sg27
S'--'
p796
sg29
S'--'
p797
sg31
S'L48-51'
p798
sg33
g156
sg35
g14
sg37
S'DEN'
p799
sg39
g156
sg41
g10
sg43
S'--'
p800
ssg252
(dp801
g5
S'--'
p802
sg7
S'--'
p803
sg9
g14
sg11
S'--'
p804
sg13
g14
sg15
S'James Hanna'
p805
sg17
S'2013'
p806
sg19
g252
sg21
S'--'
p807
sg23
S'09/29'
p808
sg25
S'--'
p809
sg27
S'--'
p810
sg29
S'--'
p811
sg31
S'L21-30'
p812
sg33
S'--'
p813
sg35
S'--'
p814
sg37
S'@SD'
p815
sg39
S'--'
p816
sg41
S'--'
p817
sg43
S'--'
p818
ssg265
(dp819
g5
S'--'
p820
sg7
S'--'
p821
sg9
g10
sg11
S'--'
p822
sg13
g14
sg15
S'James Hanna'
p823
sg17
S'2013'
p824
sg19
g265
sg21
S'--'
p825
sg23
S'10/20'
p826
sg25
S'--'
p827
sg27
S'--'
p828
sg29
S'--'
p829
sg31
S'W17-3'
p830
sg33
S'--'
p831
sg35
S'--'
p832
sg37
S'@PHI'
p833
sg39
S'--'
p834
sg41
S'--'
p835
sg43
S'--'
p836
ssg280
(dp837
g5
S'--'
p838
sg7
S'--'
p839
sg9
g14
sg11
S'--'
p840
sg13
g14
sg15
S'James Hanna'
p841
sg17
S'2013'
p842
sg19
g280
sg21
S'--'
p843
sg23
S'10/13'
p844
sg25
S'--'
p845
sg27
S'--'
p846
sg29
S'--'
p847
sg31
S'W31-16'
p848
sg33
g10
sg35
g10
sg37
S'WAS'
p849
sg39
S'--'
p850
sg41
g10
sg43
S'--'
p851
ssg288
(dp852
g5
S'--'
p853
sg7
S'--'
p854
sg9
g14
sg11
S'--'
p855
sg13
g14
sg15
S'James Hanna'
p856
sg17
S'2013'
p857
sg19
g288
sg21
S'--'
p858
sg23
S'11/03'
p859
sg25
S'21.0'
p860
sg27
S'--'
p861
sg29
S'--'
p862
sg31
S'W27-23'
p863
sg33
S'21'
p864
sg35
g14
sg37
S'MIN'
p865
sg39
S'21'
p866
sg41
g10
sg43
S'--'
p867
ssg304
(dp868
g5
S'--'
p869
sg7
S'--'
p870
sg9
g10
sg11
S'--'
p871
sg13
g14
sg15
S'James Hanna'
p872
sg17
S'2013'
p873
sg19
g304
sg21
S'--'
p874
sg23
S'10/27'
p875
sg25
S'6.0'
p876
sg27
S'--'
p877
sg29
S'--'
p878
sg31
S'L30-31'
p879
sg33
S'12'
p880
sg35
g214
sg37
S'@DET'
p881
sg39
S'11'
p882
sg41
g10
sg43
S'--'
p883
sssS'2012'
p884
(dp885
g3
(dp886
g5
S'--'
p887
sg7
S'--'
p888
sg9
g10
sg11
S'--'
p889
sg13
g14
sg15
S'James Hanna'
p890
sg17
S'2012'
p891
sg19
S'11'
p892
sg21
S'--'
p893
sg23
S'11/18'
p894
sg25
S'--'
p895
sg27
S'--'
p896
sg29
S'--'
p897
sg31
S'W23-20'
p898
sg33
S'--'
p899
sg35
S'--'
p900
sg37
S'CLE'
p901
sg39
S'--'
p902
sg41
S'--'
p903
sg43
S'--'
p904
ssg45
(dp905
g5
S'--'
p906
sg7
S'--'
p907
sg9
g10
sg11
S'--'
p908
sg13
g14
sg15
S'James Hanna'
p909
sg17
S'2012'
p910
sg19
S'10'
p911
sg21
S'--'
p912
sg23
S'11/11'
p913
sg25
S'--'
p914
sg27
S'--'
p915
sg29
S'--'
p916
sg31
S'W38-23'
p917
sg33
S'--'
p918
sg35
S'--'
p919
sg37
S'@PHI'
p920
sg39
S'--'
p921
sg41
S'--'
p922
sg43
S'--'
p923
ssg65
(dp924
g5
S'--'
p925
sg7
S'--'
p926
sg9
g10
sg11
S'--'
p927
sg13
g14
sg15
S'James Hanna'
p928
sg17
S'2012'
p929
sg19
S'13'
p930
sg21
S'--'
p931
sg23
S'12/02'
p932
sg25
S'--'
p933
sg27
S'--'
p934
sg29
S'--'
p935
sg31
S'W38-33'
p936
sg33
S'--'
p937
sg35
S'--'
p938
sg37
S'PHI'
p939
sg39
S'--'
p940
sg41
S'--'
p941
sg43
S'--'
p942
ssg83
(dp943
g5
S'--'
p944
sg7
S'--'
p945
sg9
g10
sg11
S'--'
p946
sg13
g14
sg15
S'James Hanna'
p947
sg17
S'2012'
p948
sg19
S'12'
p949
sg21
S'--'
p950
sg23
S'11/22'
p951
sg25
S'--'
p952
sg27
S'--'
p953
sg29
S'--'
p954
sg31
S'L31-38'
p955
sg33
S'--'
p956
sg35
S'--'
p957
sg37
S'WAS'
p958
sg39
S'--'
p959
sg41
S'--'
p960
sg43
S'--'
p961
ssg103
(dp962
g5
S'--'
p963
sg7
S'--'
p964
sg9
g10
sg11
S'--'
p965
sg13
g14
sg15
S'James Hanna'
p966
sg17
S'2012'
p967
sg19
S'15'
p968
sg21
S'--'
p969
sg23
S'12/16'
p970
sg25
S'22.5'
p971
sg27
S'--'
p972
sg29
S'--'
p973
sg31
S'W27-24'
p974
sg33
S'45'
p975
sg35
g214
sg37
S'PIT'
p976
sg39
S'29'
p977
sg41
g10
sg43
S'--'
p978
ssg121
(dp979
g5
S'--'
p980
sg7
S'--'
p981
sg9
g14
sg11
S'--'
p982
sg13
g14
sg15
S'James Hanna'
p983
sg17
S'2012'
p984
sg19
S'14'
p985
sg21
S'--'
p986
sg23
S'12/09'
p987
sg25
S'3.0'
p988
sg27
S'--'
p989
sg29
S'--'
p990
sg31
S'W20-19'
p991
sg33
g156
sg35
g14
sg37
S'@CIN'
p992
sg39
g156
sg41
g10
sg43
S'--'
p993
ssg141
(dp994
g5
S'--'
p995
sg7
S'--'
p996
sg9
g10
sg11
S'--'
p997
sg13
g14
sg15
S'James Hanna'
p998
sg17
S'2012'
p999
sg19
S'17'
p1000
sg21
S'--'
p1001
sg23
S'12/30'
p1002
sg25
S'6.7'
p1003
sg27
S'--'
p1004
sg29
S'--'
p1005
sg31
S'L18-28'
p1006
sg33
S'20'
p1007
sg35
g156
sg37
S'@WAS'
p1008
sg39
g304
sg41
g10
sg43
S'--'
p1009
ssg160
(dp1010
g5
S'--'
p1011
sg7
S'--'
p1012
sg9
g10
sg11
S'--'
p1013
sg13
g14
sg15
S'James Hanna'
p1014
sg17
S'2012'
p1015
sg19
S'16'
p1016
sg21
S'--'
p1017
sg23
S'12/23'
p1018
sg25
S'8.0'
p1019
sg27
S'--'
p1020
sg29
S'--'
p1021
sg31
S'L31-34'
p1022
sg33
g304
sg35
g14
sg37
S'NO'
p1023
sg39
g304
sg41
g10
sg43
S'--'
p1024
ssg14
(dp1025
g5
S'--'
p1026
sg7
S'--'
p1027
sg9
g10
sg11
S'--'
p1028
sg13
g14
sg15
S'James Hanna'
p1029
sg17
S'2012'
p1030
sg19
g14
sg21
S'--'
p1031
sg23
S'09/05'
p1032
sg25
S'10.0'
p1033
sg27
S'--'
p1034
sg29
S'--'
p1035
sg31
S'W24-17'
p1036
sg33
S'10'
p1037
sg35
g14
sg37
S'@NYG'
p1038
sg39
S'10'
p1039
sg41
g10
sg43
S'--'
p1040
ssg156
(dp1041
g5
S'--'
p1042
sg7
S'--'
p1043
sg9
g10
sg11
S'--'
p1044
sg13
g14
sg15
S'James Hanna'
p1045
sg17
S'2012'
p1046
sg19
g156
sg21
S'--'
p1047
sg23
S'09/23'
p1048
sg25
S'--'
p1049
sg27
S'--'
p1050
sg29
S'--'
p1051
sg31
S'W16-10'
p1052
sg33
S'--'
p1053
sg35
S'--'
p1054
sg37
S'TB'
p1055
sg39
S'--'
p1056
sg41
S'--'
p1057
sg43
S'--'
p1058
ssg214
(dp1059
g5
S'--'
p1060
sg7
S'--'
p1061
sg9
g10
sg11
S'--'
p1062
sg13
g14
sg15
S'James Hanna'
p1063
sg17
S'2012'
p1064
sg19
g214
sg21
S'--'
p1065
sg23
S'09/16'
p1066
sg25
S'--'
p1067
sg27
S'--'
p1068
sg29
S'--'
p1069
sg31
S'L7-27'
p1070
sg33
S'--'
p1071
sg35
S'--'
p1072
sg37
S'@SEA'
p1073
sg39
S'--'
p1074
sg41
S'--'
p1075
sg43
S'--'
p1076
ssg233
(dp1077
g5
g284
sg7
g284
sg9
g284
sg11
g284
sg13
g284
sg15
S'James Hanna'
p1078
sg17
S'2012'
p1079
sg19
g233
sg21
g284
sg23
S'Bye'
p1080
sg25
g284
sg27
g284
sg29
g284
sg31
g284
sg33
g284
sg35
g284
sg37
g284
sg39
g284
sg41
g284
sg43
g284
ssg252
(dp1081
g5
S'--'
p1082
sg7
S'--'
p1083
sg9
g10
sg11
S'--'
p1084
sg13
g14
sg15
S'James Hanna'
p1085
sg17
S'2012'
p1086
sg19
g252
sg21
S'--'
p1087
sg23
S'10/01'
p1088
sg25
S'--'
p1089
sg27
S'--'
p1090
sg29
S'--'
p1091
sg31
S'L18-34'
p1092
sg33
S'--'
p1093
sg35
S'--'
p1094
sg37
S'CHI'
p1095
sg39
S'--'
p1096
sg41
S'--'
p1097
sg43
S'--'
p1098
ssg265
(dp1099
g5
S'--'
p1100
sg7
S'--'
p1101
sg9
g14
sg11
S'--'
p1102
sg13
g14
sg15
S'James Hanna'
p1103
sg17
S'2012'
p1104
sg19
g265
sg21
S'--'
p1105
sg23
S'10/21'
p1106
sg25
S'--'
p1107
sg27
S'--'
p1108
sg29
S'--'
p1109
sg31
S'W19-14'
p1110
sg33
S'--'
p1111
sg35
S'--'
p1112
sg37
S'@CAR'
p1113
sg39
S'--'
p1114
sg41
S'--'
p1115
sg43
S'--'
p1116
ssg280
(dp1117
g5
S'--'
p1118
sg7
S'--'
p1119
sg9
g10
sg11
S'--'
p1120
sg13
g14
sg15
S'James Hanna'
p1121
sg17
S'2012'
p1122
sg19
g280
sg21
S'--'
p1123
sg23
S'10/14'
p1124
sg25
S'--'
p1125
sg27
S'--'
p1126
sg29
S'--'
p1127
sg31
S'L29-31'
p1128
sg33
S'--'
p1129
sg35
S'--'
p1130
sg37
S'@BAL'
p1131
sg39
S'--'
p1132
sg41
S'--'
p1133
sg43
S'--'
p1134
ssg288
(dp1135
g5
S'--'
p1136
sg7
S'--'
p1137
sg9
g10
sg11
S'--'
p1138
sg13
g14
sg15
S'James Hanna'
p1139
sg17
S'2012'
p1140
sg19
g288
sg21
S'--'
p1141
sg23
S'11/04'
p1142
sg25
S'--'
p1143
sg27
S'--'
p1144
sg29
S'--'
p1145
sg31
S'L13-19'
p1146
sg33
S'--'
p1147
sg35
S'--'
p1148
sg37
S'@ATL'
p1149
sg39
S'--'
p1150
sg41
S'--'
p1151
sg43
S'--'
p1152
ssg304
(dp1153
g5
S'--'
p1154
sg7
S'--'
p1155
sg9
g10
sg11
S'--'
p1156
sg13
g14
sg15
S'James Hanna'
p1157
sg17
S'2012'
p1158
sg19
g304
sg21
S'--'
p1159
sg23
S'10/28'
p1160
sg25
S'--'
p1161
sg27
S'--'
p1162
sg29
S'--'
p1163
sg31
S'L24-29'
p1164
sg33
g10
sg35
g10
sg37
S'NYG'
p1165
sg39
S'--'
p1166
sg41
g10
sg43
S'--'
p1167
sss.