(dp0
S'2015'
p1
(dp2
S'10'
p3
(dp4
S'RushTD'
p5
S'--'
p6
sS'RushYds'
p7
S'--'
p8
sS'GS'
p9
S'0'
p10
sS'Lost'
p11
S'--'
p12
sS'G'
p13
g10
sS'Player'
p14
S"James O'Shaughnessy"
p15
sS'Year'
p16
S'2015'
p17
sS'WK'
p18
S'10'
p19
sS'RushAvg'
p20
S'--'
p21
sS'Game Date'
p22
S'11/15'
p23
sS'RecAvg'
p24
S'--'
p25
sS'FUM'
p26
S'--'
p27
sS'RushAtt'
p28
S'--'
p29
sS'Result'
p30
S'W29-13'
p31
sS'RecYds'
p32
S'--'
p33
sS'Rec'
p34
S'--'
p35
sS'Opp'
p36
S'@DEN'
p37
sS'RecLng'
p38
S'--'
p39
sS'RecTD'
p40
S'--'
p41
sS'RushLng'
p42
S'--'
p43
ssS'1'
p44
(dp45
g5
S'--'
p46
sg7
S'--'
p47
sg9
g10
sg11
S'--'
p48
sg13
g44
sg14
S"James O'Shaughnessy"
p49
sg16
S'2015'
p50
sg18
g44
sg20
S'--'
p51
sg22
S'09/13'
p52
sg24
S'--'
p53
sg26
S'--'
p54
sg28
S'--'
p55
sg30
S'W27-20'
p56
sg32
g10
sg34
g10
sg36
S'@HOU'
p57
sg38
S'--'
p58
sg40
g10
sg42
S'--'
p59
ssS'3'
p60
(dp61
g5
S'--'
p62
sg7
S'--'
p63
sg9
g44
sg11
S'--'
p64
sg13
g44
sg14
S"James O'Shaughnessy"
p65
sg16
S'2015'
p66
sg18
g60
sg20
S'--'
p67
sg22
S'09/28'
p68
sg24
S'--'
p69
sg26
S'--'
p70
sg28
S'--'
p71
sg30
S'L28-38'
p72
sg32
S'--'
p73
sg34
S'--'
p74
sg36
S'@GB'
p75
sg38
S'--'
p76
sg40
S'--'
p77
sg42
S'--'
p78
ssS'2'
p79
(dp80
g5
S'--'
p81
sg7
S'--'
p82
sg9
g10
sg11
S'--'
p83
sg13
g44
sg14
S"James O'Shaughnessy"
p84
sg16
S'2015'
p85
sg18
g79
sg20
S'--'
p86
sg22
S'09/17'
p87
sg24
S'27.0'
p88
sg26
S'--'
p89
sg28
S'--'
p90
sg30
S'L24-31'
p91
sg32
S'54'
p92
sg34
g79
sg36
S'DEN'
p93
sg38
S'30'
p94
sg40
g10
sg42
S'--'
p95
ssS'5'
p96
(dp97
g5
S'--'
p98
sg7
S'--'
p99
sg9
g10
sg11
S'--'
p100
sg13
g44
sg14
S"James O'Shaughnessy"
p101
sg16
S'2015'
p102
sg18
g96
sg20
S'--'
p103
sg22
S'10/11'
p104
sg24
S'--'
p105
sg26
S'--'
p106
sg28
S'--'
p107
sg30
S'L17-18'
p108
sg32
S'--'
p109
sg34
S'--'
p110
sg36
S'CHI'
p111
sg38
S'--'
p112
sg40
S'--'
p113
sg42
S'--'
p114
ssS'4'
p115
(dp116
g5
S'--'
p117
sg7
S'--'
p118
sg9
g10
sg11
S'--'
p119
sg13
g44
sg14
S"James O'Shaughnessy"
p120
sg16
S'2015'
p121
sg18
g115
sg20
S'--'
p122
sg22
S'10/04'
p123
sg24
S'8.0'
p124
sg26
S'--'
p125
sg28
S'--'
p126
sg30
S'L21-36'
p127
sg32
S'8'
p128
sg34
g44
sg36
S'@CIN'
p129
sg38
g128
sg40
g10
sg42
S'--'
p130
ssS'7'
p131
(dp132
g5
S'--'
p133
sg7
S'--'
p134
sg9
g44
sg11
S'--'
p135
sg13
g44
sg14
S"James O'Shaughnessy"
p136
sg16
S'2015'
p137
sg18
g131
sg20
S'--'
p138
sg22
S'10/25'
p139
sg24
S'2.0'
p140
sg26
S'--'
p141
sg28
S'--'
p142
sg30
S'W23-13'
p143
sg32
g79
sg34
g44
sg36
S'PIT'
p144
sg38
g79
sg40
g10
sg42
S'--'
p145
ssS'6'
p146
(dp147
g5
S'--'
p148
sg7
S'--'
p149
sg9
g44
sg11
S'--'
p150
sg13
g44
sg14
S"James O'Shaughnessy"
p151
sg16
S'2015'
p152
sg18
g146
sg20
S'--'
p153
sg22
S'10/18'
p154
sg24
S'11.5'
p155
sg26
S'--'
p156
sg28
S'--'
p157
sg30
S'L10-16'
p158
sg32
S'23'
p159
sg34
g79
sg36
S'@MIN'
p160
sg38
S'13'
p161
sg40
g10
sg42
S'--'
p162
ssS'9'
p163
(dp164
g5
S''
p165
sg7
g165
sg9
g165
sg11
g165
sg13
g165
sg14
S"James O'Shaughnessy"
p166
sg16
S'2015'
p167
sg18
g163
sg20
g165
sg22
S'Bye'
p168
sg24
g165
sg26
g165
sg28
g165
sg30
g165
sg32
g165
sg34
g165
sg36
g165
sg38
g165
sg40
g165
sg42
g165
ssg128
(dp169
g5
S'--'
p170
sg7
S'--'
p171
sg9
g10
sg11
S'--'
p172
sg13
g10
sg14
S"James O'Shaughnessy"
p173
sg16
S'2015'
p174
sg18
g128
sg20
S'--'
p175
sg22
S'11/01'
p176
sg24
S'--'
p177
sg26
S'--'
p178
sg28
S'--'
p179
sg30
S'W45-10'
p180
sg32
S'--'
p181
sg34
S'--'
p182
sg36
S'DET'
p183
sg38
S'--'
p184
sg40
S'--'
p185
sg42
S'--'
p186
sss.