(dp0
S'2015'
p1
(dp2
S'11'
p3
(dp4
S'RushTD'
p5
S'--'
p6
sS'RushYds'
p7
S'--'
p8
sS'GS'
p9
S'1'
p10
sS'Lost'
p11
S'--'
p12
sS'G'
p13
g10
sS'Player'
p14
S'Jason Witten'
p15
sS'Year'
p16
S'2015'
p17
sS'WK'
p18
S'11'
p19
sS'RushAvg'
p20
S'--'
p21
sS'Game Date'
p22
S'11/22'
p23
sS'RecAvg'
p24
S'13.5'
p25
sS'FUM'
p26
S'--'
p27
sS'RushAtt'
p28
S'--'
p29
sS'Result'
p30
S'W24-14'
p31
sS'RecYds'
p32
S'27'
p33
sS'Rec'
p34
S'2'
p35
sS'Opp'
p36
S'@MIA'
p37
sS'RecLng'
p38
S'15'
p39
sS'RecTD'
p40
S'0'
p41
sS'RushLng'
p42
S'--'
p43
ssS'10'
p44
(dp45
g5
S'--'
p46
sg7
S'--'
p47
sg9
g10
sg11
S'--'
p48
sg13
g10
sg14
S'Jason Witten'
p49
sg16
S'2015'
p50
sg18
S'10'
p51
sg20
S'--'
p52
sg22
S'11/15'
p53
sg24
S'8.4'
p54
sg26
S'--'
p55
sg28
S'--'
p56
sg30
S'L6-10'
p57
sg32
S'42'
p58
sg34
S'5'
p59
sg36
S'@TB'
p60
sg38
S'24'
p61
sg40
g41
sg42
S'--'
p62
ssS'13'
p63
(dp64
g5
S'--'
p65
sg7
S'--'
p66
sg9
g10
sg11
S'--'
p67
sg13
g10
sg14
S'Jason Witten'
p68
sg16
S'2015'
p69
sg18
S'13'
p70
sg20
S'--'
p71
sg22
S'12/07'
p72
sg24
S'9.2'
p73
sg26
S'--'
p74
sg28
S'--'
p75
sg30
S'W19-16'
p76
sg32
S'46'
p77
sg34
g59
sg36
S'@WAS'
p78
sg38
S'12'
p79
sg40
g41
sg42
S'--'
p80
ssS'12'
p81
(dp82
g5
S'--'
p83
sg7
S'--'
p84
sg9
g10
sg11
S'--'
p85
sg13
g10
sg14
S'Jason Witten'
p86
sg16
S'2015'
p87
sg18
S'12'
p88
sg20
S'--'
p89
sg22
S'11/26'
p90
sg24
S'9.0'
p91
sg26
S'--'
p92
sg28
S'--'
p93
sg30
S'L14-33'
p94
sg32
S'36'
p95
sg34
S'4'
p96
sg36
S'CAR'
p97
sg38
S'14'
p98
sg40
g41
sg42
S'--'
p99
ssS'15'
p100
(dp101
g5
S'--'
p102
sg7
S'--'
p103
sg9
g10
sg11
S'--'
p104
sg13
g10
sg14
S'Jason Witten'
p105
sg16
S'2015'
p106
sg18
S'15'
p107
sg20
S'--'
p108
sg22
S'12/19'
p109
sg24
S'9.8'
p110
sg26
S'--'
p111
sg28
S'--'
p112
sg30
S'L16-19'
p113
sg32
S'49'
p114
sg34
g59
sg36
S'NYJ'
p115
sg38
S'15'
p116
sg40
g41
sg42
S'--'
p117
ssS'14'
p118
(dp119
g5
S'--'
p120
sg7
S'--'
p121
sg9
g10
sg11
S'--'
p122
sg13
g10
sg14
S'Jason Witten'
p123
sg16
S'2015'
p124
sg18
S'14'
p125
sg20
S'--'
p126
sg22
S'12/13'
p127
sg24
S'8.0'
p128
sg26
S'--'
p129
sg28
S'--'
p130
sg30
S'L7-28'
p131
sg32
S'40'
p132
sg34
g59
sg36
S'@GB'
p133
sg38
S'10'
p134
sg40
g41
sg42
S'--'
p135
ssS'17'
p136
(dp137
g5
S'--'
p138
sg7
S'--'
p139
sg9
g10
sg11
S'--'
p140
sg13
g10
sg14
S'Jason Witten'
p141
sg16
S'2015'
p142
sg18
S'17'
p143
sg20
S'--'
p144
sg22
S'01/03'
p145
sg24
S'9.7'
p146
sg26
S'--'
p147
sg28
S'--'
p148
sg30
S'L23-34'
p149
sg32
S'58'
p150
sg34
S'6'
p151
sg36
S'WAS'
p152
sg38
S'22'
p153
sg40
g10
sg42
S'--'
p154
ssS'16'
p155
(dp156
g5
S'--'
p157
sg7
S'--'
p158
sg9
g10
sg11
S'--'
p159
sg13
g10
sg14
S'Jason Witten'
p160
sg16
S'2015'
p161
sg18
S'16'
p162
sg20
S'--'
p163
sg22
S'12/27'
p164
sg24
S'12.0'
p165
sg26
S'--'
p166
sg28
S'--'
p167
sg30
S'L6-16'
p168
sg32
S'12'
p169
sg34
g10
sg36
S'@BUF'
p170
sg38
S'12'
p171
sg40
g41
sg42
S'--'
p172
ssg10
(dp173
g5
S'--'
p174
sg7
S'--'
p175
sg9
g10
sg11
S'--'
p176
sg13
g10
sg14
S'Jason Witten'
p177
sg16
S'2015'
p178
sg18
g10
sg20
S'--'
p179
sg22
S'09/13'
p180
sg24
S'7.5'
p181
sg26
S'--'
p182
sg28
S'--'
p183
sg30
S'W27-26'
p184
sg32
S'60'
p185
sg34
S'8'
p186
sg36
S'NYG'
p187
sg38
S'15'
p188
sg40
g35
sg42
S'--'
p189
ssS'3'
p190
(dp191
g5
S'--'
p192
sg7
S'--'
p193
sg9
g10
sg11
S'--'
p194
sg13
g10
sg14
S'Jason Witten'
p195
sg16
S'2015'
p196
sg18
g190
sg20
S'--'
p197
sg22
S'09/27'
p198
sg24
S'10.8'
p199
sg26
S'--'
p200
sg28
S'--'
p201
sg30
S'L28-39'
p202
sg32
S'65'
p203
sg34
g151
sg36
S'ATL'
p204
sg38
S'19'
p205
sg40
g41
sg42
S'--'
p206
ssg35
(dp207
g5
S'--'
p208
sg7
S'--'
p209
sg9
g10
sg11
S'--'
p210
sg13
g10
sg14
S'Jason Witten'
p211
sg16
S'2015'
p212
sg18
g35
sg20
S'--'
p213
sg22
S'09/20'
p214
sg24
S'8.0'
p215
sg26
S'--'
p216
sg28
S'--'
p217
sg30
S'W20-10'
p218
sg32
S'56'
p219
sg34
S'7'
p220
sg36
S'@PHI'
p221
sg38
S'11'
p222
sg40
g41
sg42
S'--'
p223
ssg59
(dp224
g5
S'--'
p225
sg7
S'--'
p226
sg9
g10
sg11
g10
sg13
g10
sg14
S'Jason Witten'
p227
sg16
S'2015'
p228
sg18
g59
sg20
S'--'
p229
sg22
S'10/11'
p230
sg24
S'6.6'
p231
sg26
g10
sg28
S'--'
p232
sg30
S'L6-30'
p233
sg32
S'33'
p234
sg34
g59
sg36
S'NE'
p235
sg38
S'16'
p236
sg40
g41
sg42
S'--'
p237
ssg96
(dp238
g5
S'--'
p239
sg7
S'--'
p240
sg9
g10
sg11
S'--'
p241
sg13
g10
sg14
S'Jason Witten'
p242
sg16
S'2015'
p243
sg18
g96
sg20
S'--'
p244
sg22
S'10/04'
p245
sg24
S'14.3'
p246
sg26
S'--'
p247
sg28
S'--'
p248
sg30
S'L20-26'
p249
sg32
S'57'
p250
sg34
g96
sg36
S'@NO'
p251
sg38
S'28'
p252
sg40
g41
sg42
S'--'
p253
ssg220
(dp254
g5
S'--'
p255
sg7
S'--'
p256
sg9
g10
sg11
S'--'
p257
sg13
g10
sg14
S'Jason Witten'
p258
sg16
S'2015'
p259
sg18
g220
sg20
S'--'
p260
sg22
S'10/25'
p261
sg24
S'12.2'
p262
sg26
S'--'
p263
sg28
S'--'
p264
sg30
S'L20-27'
p265
sg32
S'73'
p266
sg34
g151
sg36
S'@NYG'
p267
sg38
S'35'
p268
sg40
g41
sg42
S'--'
p269
ssg151
(dp270
g5
S''
p271
sg7
g271
sg9
g271
sg11
g271
sg13
g271
sg14
S'Jason Witten'
p272
sg16
S'2015'
p273
sg18
g151
sg20
g271
sg22
S'Bye'
p274
sg24
g271
sg26
g271
sg28
g271
sg30
g271
sg32
g271
sg34
g271
sg36
g271
sg38
g271
sg40
g271
sg42
g271
ssS'9'
p275
(dp276
g5
S'--'
p277
sg7
S'--'
p278
sg9
g10
sg11
S'--'
p279
sg13
g10
sg14
S'Jason Witten'
p280
sg16
S'2015'
p281
sg18
g275
sg20
S'--'
p282
sg22
S'11/08'
p283
sg24
S'7.2'
p284
sg26
S'--'
p285
sg28
S'--'
p286
sg30
S'L27-33'
p287
sg32
S'43'
p288
sg34
g151
sg36
S'PHI'
p289
sg38
S'14'
p290
sg40
g41
sg42
S'--'
p291
ssg186
(dp292
g5
S'--'
p293
sg7
S'--'
p294
sg9
g10
sg11
S'--'
p295
sg13
g10
sg14
S'Jason Witten'
p296
sg16
S'2015'
p297
sg18
g186
sg20
S'--'
p298
sg22
S'11/01'
p299
sg24
S'8.0'
p300
sg26
S'--'
p301
sg28
S'--'
p302
sg30
S'L12-13'
p303
sg32
S'16'
p304
sg34
g35
sg36
S'SEA'
p305
sg38
g275
sg40
g41
sg42
S'--'
p306
sssS'2014'
p307
(dp308
g3
(dp309
g5
g271
sg7
g271
sg9
g271
sg11
g271
sg13
g271
sg14
S'Jason Witten'
p310
sg16
S'2014'
p311
sg18
S'11'
p312
sg20
g271
sg22
S'Bye'
p313
sg24
g271
sg26
g271
sg28
g271
sg30
g271
sg32
g271
sg34
g271
sg36
g271
sg38
g271
sg40
g271
sg42
g271
ssg44
(dp314
g5
S'--'
p315
sg7
S'--'
p316
sg9
g10
sg11
S'--'
p317
sg13
g10
sg14
S'Jason Witten'
p318
sg16
S'2014'
p319
sg18
S'10'
p320
sg20
S'--'
p321
sg22
S'11/09'
p322
sg24
S'6.6'
p323
sg26
S'--'
p324
sg28
S'--'
p325
sg30
S'W31-17'
p326
sg32
S'33'
p327
sg34
g59
sg36
S'@JAC'
p328
sg38
S'15'
p329
sg40
g10
sg42
S'--'
p330
ssg63
(dp331
g5
S'--'
p332
sg7
S'--'
p333
sg9
g10
sg11
S'--'
p334
sg13
g10
sg14
S'Jason Witten'
p335
sg16
S'2014'
p336
sg18
S'13'
p337
sg20
S'--'
p338
sg22
S'11/27'
p339
sg24
S'8.0'
p340
sg26
S'--'
p341
sg28
S'--'
p342
sg30
S'L10-33'
p343
sg32
g186
sg34
g10
sg36
S'PHI'
p344
sg38
g186
sg40
g41
sg42
S'--'
p345
ssg81
(dp346
g5
S'--'
p347
sg7
S'--'
p348
sg9
g10
sg11
S'--'
p349
sg13
g10
sg14
S'Jason Witten'
p350
sg16
S'2014'
p351
sg18
S'12'
p352
sg20
S'--'
p353
sg22
S'11/23'
p354
sg24
S'7.5'
p355
sg26
S'--'
p356
sg28
S'--'
p357
sg30
S'W31-28'
p358
sg32
S'30'
p359
sg34
g96
sg36
S'@NYG'
p360
sg38
S'15'
p361
sg40
g10
sg42
S'--'
p362
ssg100
(dp363
g5
S'--'
p364
sg7
S'--'
p365
sg9
g10
sg11
S'--'
p366
sg13
g10
sg14
S'Jason Witten'
p367
sg16
S'2014'
p368
sg18
S'15'
p369
sg20
S'--'
p370
sg22
S'12/14'
p371
sg24
S'9.9'
p372
sg26
S'--'
p373
sg28
S'--'
p374
sg30
S'W38-27'
p375
sg32
S'69'
p376
sg34
g220
sg36
S'@PHI'
p377
sg38
S'21'
p378
sg40
g41
sg42
S'--'
p379
ssg118
(dp380
g5
S'--'
p381
sg7
S'--'
p382
sg9
g10
sg11
S'--'
p383
sg13
g10
sg14
S'Jason Witten'
p384
sg16
S'2014'
p385
sg18
S'14'
p386
sg20
S'--'
p387
sg22
S'12/04'
p388
sg24
S'13.0'
p389
sg26
S'--'
p390
sg28
S'--'
p391
sg30
S'W41-28'
p392
sg32
S'26'
p393
sg34
g35
sg36
S'@CHI'
p394
sg38
S'19'
p395
sg40
g41
sg42
S'--'
p396
ssg136
(dp397
g5
S'--'
p398
sg7
S'--'
p399
sg9
g10
sg11
S'--'
p400
sg13
g10
sg14
S'Jason Witten'
p401
sg16
S'2014'
p402
sg18
S'17'
p403
sg20
S'--'
p404
sg22
S'12/28'
p405
sg24
S'12.3'
p406
sg26
S'--'
p407
sg28
S'--'
p408
sg30
S'W44-17'
p409
sg32
S'49'
p410
sg34
g96
sg36
S'@WAS'
p411
sg38
S'18'
p412
sg40
g41
sg42
S'--'
p413
ssg155
(dp414
g5
S'--'
p415
sg7
S'--'
p416
sg9
g10
sg11
S'--'
p417
sg13
g10
sg14
S'Jason Witten'
p418
sg16
S'2014'
p419
sg18
S'16'
p420
sg20
S'--'
p421
sg22
S'12/21'
p422
sg24
S'12.9'
p423
sg26
S'--'
p424
sg28
S'--'
p425
sg30
S'W42-7'
p426
sg32
S'90'
p427
sg34
g220
sg36
S'IND'
p428
sg38
S'25T'
p429
sg40
g10
sg42
S'--'
p430
ssg10
(dp431
g5
S'--'
p432
sg7
S'--'
p433
sg9
g10
sg11
S'--'
p434
sg13
g10
sg14
S'Jason Witten'
p435
sg16
S'2014'
p436
sg18
g10
sg20
S'--'
p437
sg22
S'09/07'
p438
sg24
S'7.0'
p439
sg26
S'--'
p440
sg28
S'--'
p441
sg30
S'L17-28'
p442
sg32
S'14'
p443
sg34
g35
sg36
S'SF'
p444
sg38
g220
sg40
g41
sg42
S'--'
p445
ssg190
(dp446
g5
S'--'
p447
sg7
S'--'
p448
sg9
g10
sg11
S'--'
p449
sg13
g10
sg14
S'Jason Witten'
p450
sg16
S'2014'
p451
sg18
g190
sg20
S'--'
p452
sg22
S'09/21'
p453
sg24
S'12.3'
p454
sg26
S'--'
p455
sg28
S'--'
p456
sg30
S'W34-31'
p457
sg32
S'49'
p458
sg34
g96
sg36
S'@STL'
p459
sg38
S'15'
p460
sg40
g41
sg42
S'--'
p461
ssg35
(dp462
g5
S'--'
p463
sg7
S'--'
p464
sg9
g10
sg11
S'--'
p465
sg13
g10
sg14
S'Jason Witten'
p466
sg16
S'2014'
p467
sg18
g35
sg20
S'--'
p468
sg22
S'09/14'
p469
sg24
S'8.0'
p470
sg26
S'--'
p471
sg28
S'--'
p472
sg30
S'W26-10'
p473
sg32
S'32'
p474
sg34
g96
sg36
S'@TEN'
p475
sg38
S'15'
p476
sg40
g41
sg42
S'--'
p477
ssg59
(dp478
g5
S'--'
p479
sg7
S'--'
p480
sg9
g10
sg11
S'--'
p481
sg13
g10
sg14
S'Jason Witten'
p482
sg16
S'2014'
p483
sg18
g59
sg20
S'--'
p484
sg22
S'10/05'
p485
sg24
S'14.8'
p486
sg26
S'--'
p487
sg28
S'--'
p488
sg30
S'W20-17'
p489
sg32
S'59'
p490
sg34
g96
sg36
S'HOU'
p491
sg38
S'34'
p492
sg40
g41
sg42
S'--'
p493
ssg96
(dp494
g5
S'--'
p495
sg7
S'--'
p496
sg9
g10
sg11
S'--'
p497
sg13
g10
sg14
S'Jason Witten'
p498
sg16
S'2014'
p499
sg18
g96
sg20
S'--'
p500
sg22
S'09/28'
p501
sg24
S'12.2'
p502
sg26
S'--'
p503
sg28
S'--'
p504
sg30
S'W38-17'
p505
sg32
S'61'
p506
sg34
g59
sg36
S'NO'
p507
sg38
S'16'
p508
sg40
g41
sg42
S'--'
p509
ssg220
(dp510
g5
S'--'
p511
sg7
S'--'
p512
sg9
g10
sg11
S'--'
p513
sg13
g10
sg14
S'Jason Witten'
p514
sg16
S'2014'
p515
sg18
g220
sg20
S'--'
p516
sg22
S'10/19'
p517
sg24
S'13.5'
p518
sg26
S'--'
p519
sg28
S'--'
p520
sg30
S'W31-21'
p521
sg32
S'27'
p522
sg34
g35
sg36
S'NYG'
p523
sg38
S'15'
p524
sg40
g41
sg42
S'--'
p525
ssg151
(dp526
g5
S'--'
p527
sg7
S'--'
p528
sg9
g10
sg11
S'--'
p529
sg13
g10
sg14
S'Jason Witten'
p530
sg16
S'2014'
p531
sg18
g151
sg20
S'--'
p532
sg22
S'10/12'
p533
sg24
S'12.0'
p534
sg26
S'--'
p535
sg28
S'--'
p536
sg30
S'W30-23'
p537
sg32
S'24'
p538
sg34
g35
sg36
S'@SEA'
p539
sg38
S'21'
p540
sg40
g10
sg42
S'--'
p541
ssg275
(dp542
g5
S'--'
p543
sg7
S'--'
p544
sg9
g10
sg11
S'--'
p545
sg13
g10
sg14
S'Jason Witten'
p546
sg16
S'2014'
p547
sg18
g275
sg20
S'--'
p548
sg22
S'11/02'
p549
sg24
S'10.3'
p550
sg26
S'--'
p551
sg28
S'--'
p552
sg30
S'L17-28'
p553
sg32
S'62'
p554
sg34
g151
sg36
S'ARI'
p555
sg38
S'24'
p556
sg40
g41
sg42
S'--'
p557
ssg186
(dp558
g5
S'--'
p559
sg7
S'--'
p560
sg9
g10
sg11
S'--'
p561
sg13
g10
sg14
S'Jason Witten'
p562
sg16
S'2014'
p563
sg18
g186
sg20
S'--'
p564
sg22
S'10/27'
p565
sg24
S'14.0'
p566
sg26
S'--'
p567
sg28
S'--'
p568
sg30
S'L17-20'
p569
sg32
S'70'
p570
sg34
g59
sg36
S'WAS'
p571
sg38
S'25T'
p572
sg40
g10
sg42
S'--'
p573
sssS'2011'
p574
(dp575
g3
(dp576
g5
S'--'
p577
sg7
S'--'
p578
sg9
g10
sg11
g41
sg13
g10
sg14
S'Jason Witten'
p579
sg16
S'2011'
p580
sg18
S'11'
p581
sg20
S'--'
p582
sg22
S'11/20'
p583
sg24
S'28.3'
p584
sg26
g10
sg28
S'--'
p585
sg30
S'W27-24'
p586
sg32
S'85'
p587
sg34
g190
sg36
S'@WAS'
p588
sg38
S'59T'
p589
sg40
g10
sg42
S'--'
p590
ssg44
(dp591
g5
S'--'
p592
sg7
S'--'
p593
sg9
g10
sg11
S'--'
p594
sg13
g10
sg14
S'Jason Witten'
p595
sg16
S'2011'
p596
sg18
S'10'
p597
sg20
S'--'
p598
sg22
S'11/13'
p599
sg24
S'7.4'
p600
sg26
S'--'
p601
sg28
S'--'
p602
sg30
S'W44-7'
p603
sg32
S'37'
p604
sg34
g59
sg36
S'BUF'
p605
sg38
S'17'
p606
sg40
g41
sg42
S'--'
p607
ssg63
(dp608
g5
S'--'
p609
sg7
S'--'
p610
sg9
g10
sg11
S'--'
p611
sg13
g10
sg14
S'Jason Witten'
p612
sg16
S'2011'
p613
sg18
S'13'
p614
sg20
S'--'
p615
sg22
S'12/04'
p616
sg24
S'9.4'
p617
sg26
S'--'
p618
sg28
S'--'
p619
sg30
S'L13-19'
p620
sg32
S'47'
p621
sg34
g59
sg36
S'@ARI'
p622
sg38
S'28'
p623
sg40
g41
sg42
S'--'
p624
ssg81
(dp625
g5
S'--'
p626
sg7
S'--'
p627
sg9
g10
sg11
S'--'
p628
sg13
g10
sg14
S'Jason Witten'
p629
sg16
S'2011'
p630
sg18
S'12'
p631
sg20
S'--'
p632
sg22
S'11/24'
p633
sg24
S'10.8'
p634
sg26
S'--'
p635
sg28
S'--'
p636
sg30
S'W20-19'
p637
sg32
S'43'
p638
sg34
g96
sg36
S'MIA'
p639
sg38
S'23'
p640
sg40
g41
sg42
S'--'
p641
ssg100
(dp642
g5
S'--'
p643
sg7
S'--'
p644
sg9
g10
sg11
S'--'
p645
sg13
g10
sg14
S'Jason Witten'
p646
sg16
S'2011'
p647
sg18
S'15'
p648
sg20
S'--'
p649
sg22
S'12/17'
p650
sg24
S'19.3'
p651
sg26
S'--'
p652
sg28
S'--'
p653
sg30
S'W31-15'
p654
sg32
S'77'
p655
sg34
g96
sg36
S'@TB'
p656
sg38
S'28'
p657
sg40
g41
sg42
S'--'
p658
ssg118
(dp659
g5
S'--'
p660
sg7
S'--'
p661
sg9
g10
sg11
S'--'
p662
sg13
g10
sg14
S'Jason Witten'
p663
sg16
S'2011'
p664
sg18
S'14'
p665
sg20
S'--'
p666
sg22
S'12/11'
p667
sg24
S'4.0'
p668
sg26
S'--'
p669
sg28
S'--'
p670
sg30
S'L34-37'
p671
sg32
S'12'
p672
sg34
g190
sg36
S'NYG'
p673
sg38
g151
sg40
g41
sg42
S'--'
p674
ssg136
(dp675
g5
S'--'
p676
sg7
S'--'
p677
sg9
g10
sg11
S'--'
p678
sg13
g10
sg14
S'Jason Witten'
p679
sg16
S'2011'
p680
sg18
S'17'
p681
sg20
S'--'
p682
sg22
S'01/01'
p683
sg24
S'9.9'
p684
sg26
S'--'
p685
sg28
S'--'
p686
sg30
S'L14-31'
p687
sg32
S'69'
p688
sg34
g220
sg36
S'@NYG'
p689
sg38
S'20'
p690
sg40
g41
sg42
S'--'
p691
ssg155
(dp692
g5
S'--'
p693
sg7
S'--'
p694
sg9
g10
sg11
S'--'
p695
sg13
g10
sg14
S'Jason Witten'
p696
sg16
S'2011'
p697
sg18
S'16'
p698
sg20
S'--'
p699
sg22
S'12/24'
p700
sg24
S'6.0'
p701
sg26
S'--'
p702
sg28
S'--'
p703
sg30
S'L7-20'
p704
sg32
S'24'
p705
sg34
g96
sg36
S'PHI'
p706
sg38
S'10'
p707
sg40
g41
sg42
S'--'
p708
ssg10
(dp709
g5
S'--'
p710
sg7
S'--'
p711
sg9
g10
sg11
S'--'
p712
sg13
g10
sg14
S'Jason Witten'
p713
sg16
S'2011'
p714
sg18
g10
sg20
S'--'
p715
sg22
S'09/11'
p716
sg24
S'18.3'
p717
sg26
S'--'
p718
sg28
S'--'
p719
sg30
S'L24-27'
p720
sg32
S'110'
p721
sg34
g151
sg36
S'@NYJ'
p722
sg38
S'64'
p723
sg40
g41
sg42
S'--'
p724
ssg190
(dp725
g5
S'--'
p726
sg7
S'--'
p727
sg9
g10
sg11
S'--'
p728
sg13
g10
sg14
S'Jason Witten'
p729
sg16
S'2011'
p730
sg18
g190
sg20
S'--'
p731
sg22
S'09/26'
p732
sg24
S'10.0'
p733
sg26
S'--'
p734
sg28
S'--'
p735
sg30
S'W18-16'
p736
sg32
S'60'
p737
sg34
g151
sg36
S'WAS'
p738
sg38
S'23'
p739
sg40
g41
sg42
S'--'
p740
ssg35
(dp741
g5
S'--'
p742
sg7
S'--'
p743
sg9
g10
sg11
S'--'
p744
sg13
g10
sg14
S'Jason Witten'
p745
sg16
S'2011'
p746
sg18
g35
sg20
S'--'
p747
sg22
S'09/18'
p748
sg24
S'14.6'
p749
sg26
S'--'
p750
sg28
S'--'
p751
sg30
S'W27-24'
p752
sg32
S'102'
p753
sg34
g220
sg36
S'@SF'
p754
sg38
S'25'
p755
sg40
g41
sg42
S'--'
p756
ssg59
(dp757
g5
g271
sg7
g271
sg9
g271
sg11
g271
sg13
g271
sg14
S'Jason Witten'
p758
sg16
S'2011'
p759
sg18
g59
sg20
g271
sg22
S'Bye'
p760
sg24
g271
sg26
g271
sg28
g271
sg30
g271
sg32
g271
sg34
g271
sg36
g271
sg38
g271
sg40
g271
sg42
g271
ssg96
(dp761
g5
S'--'
p762
sg7
S'--'
p763
sg9
g10
sg11
S'--'
p764
sg13
g10
sg14
S'Jason Witten'
p765
sg16
S'2011'
p766
sg18
g96
sg20
S'--'
p767
sg22
S'10/02'
p768
sg24
S'11.8'
p769
sg26
S'--'
p770
sg28
S'--'
p771
sg30
S'L30-34'
p772
sg32
S'94'
p773
sg34
g186
sg36
S'DET'
p774
sg38
S'37'
p775
sg40
g10
sg42
S'--'
p776
ssg220
(dp777
g5
S'--'
p778
sg7
S'--'
p779
sg9
g10
sg11
S'--'
p780
sg13
g10
sg14
S'Jason Witten'
p781
sg16
S'2011'
p782
sg18
g220
sg20
S'--'
p783
sg22
S'10/23'
p784
sg24
S'7.0'
p785
sg26
S'--'
p786
sg28
S'--'
p787
sg30
S'W34-7'
p788
sg32
S'35'
p789
sg34
g59
sg36
S'STL'
p790
sg38
S'18'
p791
sg40
g10
sg42
S'--'
p792
ssg151
(dp793
g5
S'--'
p794
sg7
S'--'
p795
sg9
g10
sg11
S'--'
p796
sg13
g10
sg14
S'Jason Witten'
p797
sg16
S'2011'
p798
sg18
g151
sg20
S'--'
p799
sg22
S'10/16'
p800
sg24
S'12.0'
p801
sg26
S'--'
p802
sg28
S'--'
p803
sg30
S'L16-20'
p804
sg32
S'48'
p805
sg34
g96
sg36
S'@NE'
p806
sg38
S'20'
p807
sg40
g10
sg42
S'--'
p808
ssg275
(dp809
g5
S'--'
p810
sg7
S'--'
p811
sg9
g10
sg11
S'--'
p812
sg13
g10
sg14
S'Jason Witten'
p813
sg16
S'2011'
p814
sg18
g275
sg20
S'--'
p815
sg22
S'11/06'
p816
sg24
S'17.8'
p817
sg26
S'--'
p818
sg28
S'--'
p819
sg30
S'W23-13'
p820
sg32
S'71'
p821
sg34
g96
sg36
S'SEA'
p822
sg38
S'33T'
p823
sg40
g10
sg42
S'--'
p824
ssg186
(dp825
g5
S'--'
p826
sg7
S'--'
p827
sg9
g10
sg11
S'--'
p828
sg13
g10
sg14
S'Jason Witten'
p829
sg16
S'2011'
p830
sg18
g186
sg20
S'--'
p831
sg22
S'10/30'
p832
sg24
S'7.0'
p833
sg26
S'--'
p834
sg28
S'--'
p835
sg30
S'L7-34'
p836
sg32
S'28'
p837
sg34
g96
sg36
S'@PHI'
p838
sg38
S'12'
p839
sg40
g41
sg42
S'--'
p840
sssS'2010'
p841
(dp842
g3
(dp843
g5
S'--'
p844
sg7
S'--'
p845
sg9
g10
sg11
S'--'
p846
sg13
g10
sg14
S'Jason Witten'
p847
sg16
S'2010'
p848
sg18
S'11'
p849
sg20
S'--'
p850
sg22
S'11/21'
p851
sg24
S'12.0'
p852
sg26
S'--'
p853
sg28
S'--'
p854
sg30
S'W35-19'
p855
sg32
S'48'
p856
sg34
g96
sg36
S'DET'
p857
sg38
S'16'
p858
sg40
g41
sg42
S'--'
p859
ssg44
(dp860
g5
S'--'
p861
sg7
S'--'
p862
sg9
g10
sg11
S'--'
p863
sg13
g10
sg14
S'Jason Witten'
p864
sg16
S'2010'
p865
sg18
S'10'
p866
sg20
S'--'
p867
sg22
S'11/14'
p868
sg24
S'7.0'
p869
sg26
S'--'
p870
sg28
S'--'
p871
sg30
S'W33-20'
p872
sg32
g220
sg34
g10
sg36
S'@NYG'
p873
sg38
g220
sg40
g41
sg42
S'--'
p874
ssg63
(dp875
g5
S'--'
p876
sg7
S'--'
p877
sg9
g10
sg11
S'--'
p878
sg13
g10
sg14
S'Jason Witten'
p879
sg16
S'2010'
p880
sg18
S'13'
p881
sg20
S'--'
p882
sg22
S'12/05'
p883
sg24
S'8.4'
p884
sg26
S'--'
p885
sg28
S'--'
p886
sg30
S'W38-35'
p887
sg32
S'42'
p888
sg34
g59
sg36
S'@IND'
p889
sg38
S'19'
p890
sg40
g10
sg42
S'--'
p891
ssg81
(dp892
g5
S'--'
p893
sg7
S'--'
p894
sg9
g10
sg11
S'--'
p895
sg13
g10
sg14
S'Jason Witten'
p896
sg16
S'2010'
p897
sg18
S'12'
p898
sg20
S'--'
p899
sg22
S'11/25'
p900
sg24
S'9.9'
p901
sg26
S'--'
p902
sg28
S'--'
p903
sg30
S'L27-30'
p904
sg32
S'99'
p905
sg34
S'10'
p906
sg36
S'NO'
p907
sg38
S'20'
p908
sg40
g41
sg42
S'--'
p909
ssg100
(dp910
g5
S'--'
p911
sg7
S'--'
p912
sg9
g10
sg11
S'--'
p913
sg13
g10
sg14
S'Jason Witten'
p914
sg16
S'2010'
p915
sg18
S'15'
p916
sg20
S'--'
p917
sg22
S'12/19'
p918
sg24
S'14.0'
p919
sg26
S'--'
p920
sg28
S'--'
p921
sg30
S'W33-30'
p922
sg32
S'140'
p923
sg34
S'10'
p924
sg36
S'WAS'
p925
sg38
S'33'
p926
sg40
g10
sg42
S'--'
p927
ssg118
(dp928
g5
S'--'
p929
sg7
S'--'
p930
sg9
g10
sg11
S'--'
p931
sg13
g10
sg14
S'Jason Witten'
p932
sg16
S'2010'
p933
sg18
S'14'
p934
sg20
S'--'
p935
sg22
S'12/12'
p936
sg24
S'9.9'
p937
sg26
S'--'
p938
sg28
S'--'
p939
sg30
S'L27-30'
p940
sg32
S'69'
p941
sg34
g220
sg36
S'PHI'
p942
sg38
S'22T'
p943
sg40
g35
sg42
S'--'
p944
ssg136
(dp945
g5
S'--'
p946
sg7
S'--'
p947
sg9
g10
sg11
S'--'
p948
sg13
g10
sg14
S'Jason Witten'
p949
sg16
S'2010'
p950
sg18
S'17'
p951
sg20
S'--'
p952
sg22
S'01/02'
p953
sg24
S'11.5'
p954
sg26
S'--'
p955
sg28
S'--'
p956
sg30
S'W14-13'
p957
sg32
S'46'
p958
sg34
g96
sg36
S'@PHI'
p959
sg38
S'33'
p960
sg40
g10
sg42
S'--'
p961
ssg155
(dp962
g5
S'--'
p963
sg7
S'--'
p964
sg9
g10
sg11
S'--'
p965
sg13
g10
sg14
S'Jason Witten'
p966
sg16
S'2010'
p967
sg18
S'16'
p968
sg20
S'--'
p969
sg22
S'12/25'
p970
sg24
S'5.6'
p971
sg26
S'--'
p972
sg28
S'--'
p973
sg30
S'L26-27'
p974
sg32
S'45'
p975
sg34
g186
sg36
S'@ARI'
p976
sg38
S'14'
p977
sg40
g10
sg42
S'--'
p978
ssg10
(dp979
g5
S'--'
p980
sg7
S'--'
p981
sg9
g10
sg11
S'--'
p982
sg13
g10
sg14
S'Jason Witten'
p983
sg16
S'2010'
p984
sg18
g10
sg20
S'--'
p985
sg22
S'09/12'
p986
sg24
S'9.0'
p987
sg26
S'--'
p988
sg28
S'--'
p989
sg30
S'L7-13'
p990
sg32
S'27'
p991
sg34
g190
sg36
S'@WAS'
p992
sg38
S'14'
p993
sg40
g41
sg42
S'--'
p994
ssg190
(dp995
g5
S'--'
p996
sg7
S'--'
p997
sg9
g10
sg11
S'--'
p998
sg13
g10
sg14
S'Jason Witten'
p999
sg16
S'2010'
p1000
sg18
g190
sg20
S'--'
p1001
sg22
S'09/26'
p1002
sg24
S'8.0'
p1003
sg26
S'--'
p1004
sg28
S'--'
p1005
sg30
S'W27-13'
p1006
sg32
S'56'
p1007
sg34
g220
sg36
S'@HOU'
p1008
sg38
S'14'
p1009
sg40
g41
sg42
S'--'
p1010
ssg35
(dp1011
g5
S'--'
p1012
sg7
S'--'
p1013
sg9
g10
sg11
S'--'
p1014
sg13
g10
sg14
S'Jason Witten'
p1015
sg16
S'2010'
p1016
sg18
g35
sg20
S'--'
p1017
sg22
S'09/19'
p1018
sg24
S'10.2'
p1019
sg26
S'--'
p1020
sg28
S'--'
p1021
sg30
S'L20-27'
p1022
sg32
S'51'
p1023
sg34
g59
sg36
S'CHI'
p1024
sg38
S'23'
p1025
sg40
g41
sg42
S'--'
p1026
ssg59
(dp1027
g5
S'--'
p1028
sg7
S'--'
p1029
sg9
g10
sg11
S'--'
p1030
sg13
g10
sg14
S'Jason Witten'
p1031
sg16
S'2010'
p1032
sg18
g59
sg20
S'--'
p1033
sg22
S'10/10'
p1034
sg24
S'16.8'
p1035
sg26
S'--'
p1036
sg28
S'--'
p1037
sg30
S'L27-34'
p1038
sg32
S'84'
p1039
sg34
g59
sg36
S'TEN'
p1040
sg38
S'31'
p1041
sg40
g10
sg42
S'--'
p1042
ssg96
(dp1043
g5
g271
sg7
g271
sg9
g271
sg11
g271
sg13
g271
sg14
S'Jason Witten'
p1044
sg16
S'2010'
p1045
sg18
g96
sg20
g271
sg22
S'Bye'
p1046
sg24
g271
sg26
g271
sg28
g271
sg30
g271
sg32
g271
sg34
g271
sg36
g271
sg38
g271
sg40
g271
sg42
g271
ssg220
(dp1047
g5
S'--'
p1048
sg7
S'--'
p1049
sg9
g10
sg11
g10
sg13
g10
sg14
S'Jason Witten'
p1050
sg16
S'2010'
p1051
sg18
g220
sg20
S'--'
p1052
sg22
S'10/25'
p1053
sg24
S'10.6'
p1054
sg26
g10
sg28
S'--'
p1055
sg30
S'L35-41'
p1056
sg32
S'95'
p1057
sg34
g275
sg36
S'NYG'
p1058
sg38
S'24'
p1059
sg40
g10
sg42
S'--'
p1060
ssg151
(dp1061
g5
S'--'
p1062
sg7
S'--'
p1063
sg9
g10
sg11
S'--'
p1064
sg13
g10
sg14
S'Jason Witten'
p1065
sg16
S'2010'
p1066
sg18
g151
sg20
S'--'
p1067
sg22
S'10/17'
p1068
sg24
S'17.3'
p1069
sg26
S'--'
p1070
sg28
S'--'
p1071
sg30
S'L21-24'
p1072
sg32
S'52'
p1073
sg34
g190
sg36
S'@MIN'
p1074
sg38
S'30'
p1075
sg40
g41
sg42
S'--'
p1076
ssg275
(dp1077
g5
S'--'
p1078
sg7
S'--'
p1079
sg9
g10
sg11
S'--'
p1080
sg13
g10
sg14
S'Jason Witten'
p1081
sg16
S'2010'
p1082
sg18
g275
sg20
S'--'
p1083
sg22
S'11/07'
p1084
sg24
S'14.7'
p1085
sg26
S'--'
p1086
sg28
S'--'
p1087
sg30
S'L7-45'
p1088
sg32
S'44'
p1089
sg34
g190
sg36
S'@GB'
p1090
sg38
S'30'
p1091
sg40
g41
sg42
S'--'
p1092
ssg186
(dp1093
g5
S'--'
p1094
sg7
S'--'
p1095
sg9
g10
sg11
S'--'
p1096
sg13
g10
sg14
S'Jason Witten'
p1097
sg16
S'2010'
p1098
sg18
g186
sg20
S'--'
p1099
sg22
S'10/31'
p1100
sg24
S'9.7'
p1101
sg26
S'--'
p1102
sg28
S'--'
p1103
sg30
S'L17-35'
p1104
sg32
S'97'
p1105
sg34
S'10'
p1106
sg36
S'JAC'
p1107
sg38
S'27'
p1108
sg40
g10
sg42
S'--'
p1109
sssS'2013'
p1110
(dp1111
g3
(dp1112
g5
g271
sg7
g271
sg9
g271
sg11
g271
sg13
g271
sg14
S'Jason Witten'
p1113
sg16
S'2013'
p1114
sg18
S'11'
p1115
sg20
g271
sg22
S'Bye'
p1116
sg24
g271
sg26
g271
sg28
g271
sg30
g271
sg32
g271
sg34
g271
sg36
g271
sg38
g271
sg40
g271
sg42
g271
ssg44
(dp1117
g5
S'--'
p1118
sg7
S'--'
p1119
sg9
g10
sg11
S'--'
p1120
sg13
g10
sg14
S'Jason Witten'
p1121
sg16
S'2013'
p1122
sg18
S'10'
p1123
sg20
S'--'
p1124
sg22
S'11/10'
p1125
sg24
S'13.5'
p1126
sg26
S'--'
p1127
sg28
S'--'
p1128
sg30
S'L17-49'
p1129
sg32
S'27'
p1130
sg34
g35
sg36
S'@NO'
p1131
sg38
S'19'
p1132
sg40
g41
sg42
S'--'
p1133
ssg63
(dp1134
g5
S'--'
p1135
sg7
S'--'
p1136
sg9
g10
sg11
S'--'
p1137
sg13
g10
sg14
S'Jason Witten'
p1138
sg16
S'2013'
p1139
sg18
S'13'
p1140
sg20
S'--'
p1141
sg22
S'11/28'
p1142
sg24
S'17.7'
p1143
sg26
S'--'
p1144
sg28
S'--'
p1145
sg30
S'W31-24'
p1146
sg32
S'53'
p1147
sg34
g190
sg36
S'OAK'
p1148
sg38
S'22'
p1149
sg40
g41
sg42
S'--'
p1150
ssg81
(dp1151
g5
S'--'
p1152
sg7
S'--'
p1153
sg9
g10
sg11
S'--'
p1154
sg13
g10
sg14
S'Jason Witten'
p1155
sg16
S'2013'
p1156
sg18
S'12'
p1157
sg20
S'--'
p1158
sg22
S'11/24'
p1159
sg24
S'9.3'
p1160
sg26
S'--'
p1161
sg28
S'--'
p1162
sg30
S'W24-21'
p1163
sg32
S'37'
p1164
sg34
g96
sg36
S'@NYG'
p1165
sg38
S'20T'
p1166
sg40
g35
sg42
S'--'
p1167
ssg100
(dp1168
g5
S'--'
p1169
sg7
S'--'
p1170
sg9
g10
sg11
S'--'
p1171
sg13
g10
sg14
S'Jason Witten'
p1172
sg16
S'2013'
p1173
sg18
S'15'
p1174
sg20
S'--'
p1175
sg22
S'12/15'
p1176
sg24
S'17.8'
p1177
sg26
S'--'
p1178
sg28
S'--'
p1179
sg30
S'L36-37'
p1180
sg32
S'71'
p1181
sg34
g96
sg36
S'GB'
p1182
sg38
S'27'
p1183
sg40
g10
sg42
S'--'
p1184
ssg118
(dp1185
g5
S'--'
p1186
sg7
S'--'
p1187
sg9
g10
sg11
S'--'
p1188
sg13
g10
sg14
S'Jason Witten'
p1189
sg16
S'2013'
p1190
sg18
S'14'
p1191
sg20
S'--'
p1192
sg22
S'12/09'
p1193
sg24
S'10.0'
p1194
sg26
S'--'
p1195
sg28
S'--'
p1196
sg30
S'L28-45'
p1197
sg32
S'10'
p1198
sg34
g10
sg36
S'@CHI'
p1199
sg38
S'10T'
p1200
sg40
g10
sg42
S'--'
p1201
ssg136
(dp1202
g5
S'--'
p1203
sg7
S'--'
p1204
sg9
g10
sg11
S'--'
p1205
sg13
g10
sg14
S'Jason Witten'
p1206
sg16
S'2013'
p1207
sg18
S'17'
p1208
sg20
S'--'
p1209
sg22
S'12/29'
p1210
sg24
S'11.3'
p1211
sg26
S'--'
p1212
sg28
S'--'
p1213
sg30
S'L22-24'
p1214
sg32
S'135'
p1215
sg34
S'12'
p1216
sg36
S'PHI'
p1217
sg38
S'34'
p1218
sg40
g41
sg42
S'--'
p1219
ssg155
(dp1220
g5
S'--'
p1221
sg7
S'--'
p1222
sg9
g10
sg11
S'--'
p1223
sg13
g10
sg14
S'Jason Witten'
p1224
sg16
S'2013'
p1225
sg18
S'16'
p1226
sg20
S'--'
p1227
sg22
S'12/22'
p1228
sg24
S'6.5'
p1229
sg26
S'--'
p1230
sg28
S'--'
p1231
sg30
S'W24-23'
p1232
sg32
S'13'
p1233
sg34
g35
sg36
S'@WAS'
p1234
sg38
g186
sg40
g41
sg42
S'--'
p1235
ssg10
(dp1236
g5
S'--'
p1237
sg7
S'--'
p1238
sg9
g10
sg11
S'--'
p1239
sg13
g10
sg14
S'Jason Witten'
p1240
sg16
S'2013'
p1241
sg18
g10
sg20
S'--'
p1242
sg22
S'09/08'
p1243
sg24
S'8.8'
p1244
sg26
S'--'
p1245
sg28
S'--'
p1246
sg30
S'W36-31'
p1247
sg32
S'70'
p1248
sg34
g186
sg36
S'NYG'
p1249
sg38
S'21'
p1250
sg40
g35
sg42
S'--'
p1251
ssg190
(dp1252
g5
S'--'
p1253
sg7
S'--'
p1254
sg9
g10
sg11
S'--'
p1255
sg13
g10
sg14
S'Jason Witten'
p1256
sg16
S'2013'
p1257
sg18
g190
sg20
S'--'
p1258
sg22
S'09/22'
p1259
sg24
S'13.4'
p1260
sg26
S'--'
p1261
sg28
S'--'
p1262
sg30
S'W31-7'
p1263
sg32
S'67'
p1264
sg34
g59
sg36
S'STL'
p1265
sg38
S'23'
p1266
sg40
g41
sg42
S'--'
p1267
ssg35
(dp1268
g5
S'--'
p1269
sg7
S'--'
p1270
sg9
g10
sg11
S'--'
p1271
sg13
g10
sg14
S'Jason Witten'
p1272
sg16
S'2013'
p1273
sg18
g35
sg20
S'--'
p1274
sg22
S'09/15'
p1275
sg24
S'4.0'
p1276
sg26
S'--'
p1277
sg28
S'--'
p1278
sg30
S'L16-17'
p1279
sg32
S'12'
p1280
sg34
g190
sg36
S'@KC'
p1281
sg38
S'10'
p1282
sg40
g41
sg42
S'--'
p1283
ssg59
(dp1284
g5
S'--'
p1285
sg7
S'--'
p1286
sg9
g10
sg11
S'--'
p1287
sg13
g10
sg14
S'Jason Witten'
p1288
sg16
S'2013'
p1289
sg18
g59
sg20
S'--'
p1290
sg22
S'10/06'
p1291
sg24
S'17.3'
p1292
sg26
S'--'
p1293
sg28
S'--'
p1294
sg30
S'L48-51'
p1295
sg32
S'121'
p1296
sg34
g220
sg36
S'DEN'
p1297
sg38
S'27'
p1298
sg40
g10
sg42
S'--'
p1299
ssg96
(dp1300
g5
S'--'
p1301
sg7
S'--'
p1302
sg9
g10
sg11
S'--'
p1303
sg13
g10
sg14
S'Jason Witten'
p1304
sg16
S'2013'
p1305
sg18
g96
sg20
S'--'
p1306
sg22
S'09/29'
p1307
sg24
S'8.6'
p1308
sg26
S'--'
p1309
sg28
S'--'
p1310
sg30
S'L21-30'
p1311
sg32
S'43'
p1312
sg34
g59
sg36
S'@SD'
p1313
sg38
S'11'
p1314
sg40
g41
sg42
S'--'
p1315
ssg220
(dp1316
g5
S'--'
p1317
sg7
S'--'
p1318
sg9
g10
sg11
S'--'
p1319
sg13
g10
sg14
S'Jason Witten'
p1320
sg16
S'2013'
p1321
sg18
g220
sg20
S'--'
p1322
sg22
S'10/20'
p1323
sg24
S'12.0'
p1324
sg26
S'--'
p1325
sg28
S'--'
p1326
sg30
S'W17-3'
p1327
sg32
S'48'
p1328
sg34
g96
sg36
S'@PHI'
p1329
sg38
S'26'
p1330
sg40
g41
sg42
S'--'
p1331
ssg151
(dp1332
g5
S'--'
p1333
sg7
S'--'
p1334
sg9
g10
sg11
S'--'
p1335
sg13
g10
sg14
S'Jason Witten'
p1336
sg16
S'2013'
p1337
sg18
g151
sg20
S'--'
p1338
sg22
S'10/13'
p1339
sg24
S'9.0'
p1340
sg26
S'--'
p1341
sg28
S'--'
p1342
sg30
S'W31-16'
p1343
sg32
S'27'
p1344
sg34
g190
sg36
S'WAS'
p1345
sg38
S'14'
p1346
sg40
g41
sg42
S'--'
p1347
ssg275
(dp1348
g5
S'--'
p1349
sg7
S'--'
p1350
sg9
g10
sg11
S'--'
p1351
sg13
g10
sg14
S'Jason Witten'
p1352
sg16
S'2013'
p1353
sg18
g275
sg20
S'--'
p1354
sg22
S'11/03'
p1355
sg24
S'12.8'
p1356
sg26
S'--'
p1357
sg28
S'--'
p1358
sg30
S'W27-23'
p1359
sg32
S'102'
p1360
sg34
g186
sg36
S'MIN'
p1361
sg38
S'26T'
p1362
sg40
g10
sg42
S'--'
p1363
ssg186
(dp1364
g5
S'--'
p1365
sg7
S'--'
p1366
sg9
g10
sg11
S'--'
p1367
sg13
g10
sg14
S'Jason Witten'
p1368
sg16
S'2013'
p1369
sg18
g186
sg20
S'--'
p1370
sg22
S'10/27'
p1371
sg24
S'7.5'
p1372
sg26
S'--'
p1373
sg28
S'--'
p1374
sg30
S'L30-31'
p1375
sg32
S'15'
p1376
sg34
g35
sg36
S'@DET'
p1377
sg38
S'13'
p1378
sg40
g41
sg42
S'--'
p1379
sssS'2012'
p1380
(dp1381
g3
(dp1382
g5
S'--'
p1383
sg7
S'--'
p1384
sg9
g10
sg11
S'--'
p1385
sg13
g10
sg14
S'Jason Witten'
p1386
sg16
S'2012'
p1387
sg18
S'11'
p1388
sg20
S'--'
p1389
sg22
S'11/18'
p1390
sg24
S'7.3'
p1391
sg26
S'--'
p1392
sg28
S'--'
p1393
sg30
S'W23-20'
p1394
sg32
S'51'
p1395
sg34
g220
sg36
S'CLE'
p1396
sg38
S'10'
p1397
sg40
g41
sg42
S'--'
p1398
ssg44
(dp1399
g5
S'--'
p1400
sg7
S'--'
p1401
sg9
g10
sg11
S'--'
p1402
sg13
g10
sg14
S'Jason Witten'
p1403
sg16
S'2012'
p1404
sg18
S'10'
p1405
sg20
S'--'
p1406
sg22
S'11/11'
p1407
sg24
S'5.9'
p1408
sg26
S'--'
p1409
sg28
S'--'
p1410
sg30
S'W38-23'
p1411
sg32
S'47'
p1412
sg34
g186
sg36
S'@PHI'
p1413
sg38
S'15'
p1414
sg40
g41
sg42
S'--'
p1415
ssg63
(dp1416
g5
S'--'
p1417
sg7
S'--'
p1418
sg9
g10
sg11
S'--'
p1419
sg13
g10
sg14
S'Jason Witten'
p1420
sg16
S'2012'
p1421
sg18
S'13'
p1422
sg20
S'--'
p1423
sg22
S'12/02'
p1424
sg24
S'18.0'
p1425
sg26
S'--'
p1426
sg28
S'--'
p1427
sg30
S'W38-33'
p1428
sg32
S'108'
p1429
sg34
g151
sg36
S'PHI'
p1430
sg38
S'36'
p1431
sg40
g41
sg42
S'--'
p1432
ssg81
(dp1433
g5
S'--'
p1434
sg7
S'--'
p1435
sg9
g10
sg11
S'--'
p1436
sg13
g10
sg14
S'Jason Witten'
p1437
sg16
S'2012'
p1438
sg18
S'12'
p1439
sg20
S'--'
p1440
sg22
S'11/22'
p1441
sg24
S'8.2'
p1442
sg26
S'--'
p1443
sg28
S'--'
p1444
sg30
S'L31-38'
p1445
sg32
S'74'
p1446
sg34
g275
sg36
S'WAS'
p1447
sg38
S'15'
p1448
sg40
g41
sg42
S'--'
p1449
ssg100
(dp1450
g5
S'--'
p1451
sg7
S'--'
p1452
sg9
g10
sg11
S'--'
p1453
sg13
g10
sg14
S'Jason Witten'
p1454
sg16
S'2012'
p1455
sg18
S'15'
p1456
sg20
S'--'
p1457
sg22
S'12/16'
p1458
sg24
S'8.6'
p1459
sg26
S'--'
p1460
sg28
S'--'
p1461
sg30
S'W27-24'
p1462
sg32
S'43'
p1463
sg34
g59
sg36
S'PIT'
p1464
sg38
S'17T'
p1465
sg40
g10
sg42
S'--'
p1466
ssg118
(dp1467
g5
S'--'
p1468
sg7
S'--'
p1469
sg9
g10
sg11
S'--'
p1470
sg13
g10
sg14
S'Jason Witten'
p1471
sg16
S'2012'
p1472
sg18
S'14'
p1473
sg20
S'--'
p1474
sg22
S'12/09'
p1475
sg24
S'15.5'
p1476
sg26
S'--'
p1477
sg28
S'--'
p1478
sg30
S'W20-19'
p1479
sg32
S'62'
p1480
sg34
g96
sg36
S'@CIN'
p1481
sg38
S'25'
p1482
sg40
g41
sg42
S'--'
p1483
ssg136
(dp1484
g5
S'--'
p1485
sg7
S'--'
p1486
sg9
g10
sg11
S'--'
p1487
sg13
g10
sg14
S'Jason Witten'
p1488
sg16
S'2012'
p1489
sg18
S'17'
p1490
sg20
S'--'
p1491
sg22
S'12/30'
p1492
sg24
S'8.0'
p1493
sg26
S'--'
p1494
sg28
S'--'
p1495
sg30
S'L18-28'
p1496
sg32
S'56'
p1497
sg34
g220
sg36
S'@WAS'
p1498
sg38
S'14'
p1499
sg40
g10
sg42
S'--'
p1500
ssg155
(dp1501
g5
S'--'
p1502
sg7
S'--'
p1503
sg9
g10
sg11
S'--'
p1504
sg13
g10
sg14
S'Jason Witten'
p1505
sg16
S'2012'
p1506
sg18
S'16'
p1507
sg20
S'--'
p1508
sg22
S'12/23'
p1509
sg24
S'10.0'
p1510
sg26
S'--'
p1511
sg28
S'--'
p1512
sg30
S'L31-34'
p1513
sg32
S'60'
p1514
sg34
g151
sg36
S'NO'
p1515
sg38
S'19'
p1516
sg40
g41
sg42
S'--'
p1517
ssg10
(dp1518
g5
S'--'
p1519
sg7
S'--'
p1520
sg9
g10
sg11
S'--'
p1521
sg13
g10
sg14
S'Jason Witten'
p1522
sg16
S'2012'
p1523
sg18
g10
sg20
S'--'
p1524
sg22
S'09/05'
p1525
sg24
S'5.0'
p1526
sg26
S'--'
p1527
sg28
S'--'
p1528
sg30
S'W24-17'
p1529
sg32
S'10'
p1530
sg34
g35
sg36
S'@NYG'
p1531
sg38
g220
sg40
g41
sg42
S'--'
p1532
ssg190
(dp1533
g5
S'--'
p1534
sg7
S'--'
p1535
sg9
g10
sg11
S'--'
p1536
sg13
g10
sg14
S'Jason Witten'
p1537
sg16
S'2012'
p1538
sg18
g190
sg20
S'--'
p1539
sg22
S'09/23'
p1540
sg24
S'4.0'
p1541
sg26
S'--'
p1542
sg28
S'--'
p1543
sg30
S'W16-10'
p1544
sg32
g186
sg34
g35
sg36
S'TB'
p1545
sg38
g59
sg40
g41
sg42
S'--'
p1546
ssg35
(dp1547
g5
S'--'
p1548
sg7
S'--'
p1549
sg9
g10
sg11
S'--'
p1550
sg13
g10
sg14
S'Jason Witten'
p1551
sg16
S'2012'
p1552
sg18
g35
sg20
S'--'
p1553
sg22
S'09/16'
p1554
sg24
S'14.5'
p1555
sg26
S'--'
p1556
sg28
S'--'
p1557
sg30
S'L7-27'
p1558
sg32
S'58'
p1559
sg34
g96
sg36
S'@SEA'
p1560
sg38
S'23'
p1561
sg40
g41
sg42
S'--'
p1562
ssg59
(dp1563
g5
g271
sg7
g271
sg9
g271
sg11
g271
sg13
g271
sg14
S'Jason Witten'
p1564
sg16
S'2012'
p1565
sg18
g59
sg20
g271
sg22
S'Bye'
p1566
sg24
g271
sg26
g271
sg28
g271
sg30
g271
sg32
g271
sg34
g271
sg36
g271
sg38
g271
sg40
g271
sg42
g271
ssg96
(dp1567
g5
S'--'
p1568
sg7
S'--'
p1569
sg9
g10
sg11
S'--'
p1570
sg13
g10
sg14
S'Jason Witten'
p1571
sg16
S'2012'
p1572
sg18
g96
sg20
S'--'
p1573
sg22
S'10/01'
p1574
sg24
S'8.6'
p1575
sg26
S'--'
p1576
sg28
S'--'
p1577
sg30
S'L18-34'
p1578
sg32
S'112'
p1579
sg34
S'13'
p1580
sg36
S'CHI'
p1581
sg38
S'21'
p1582
sg40
g10
sg42
S'--'
p1583
ssg220
(dp1584
g5
S'--'
p1585
sg7
S'--'
p1586
sg9
g10
sg11
S'--'
p1587
sg13
g10
sg14
S'Jason Witten'
p1588
sg16
S'2012'
p1589
sg18
g220
sg20
S'--'
p1590
sg22
S'10/21'
p1591
sg24
S'7.3'
p1592
sg26
S'--'
p1593
sg28
S'--'
p1594
sg30
S'W19-14'
p1595
sg32
S'44'
p1596
sg34
g151
sg36
S'@CAR'
p1597
sg38
S'11'
p1598
sg40
g41
sg42
S'--'
p1599
ssg151
(dp1600
g5
S'--'
p1601
sg7
S'--'
p1602
sg9
g10
sg11
S'--'
p1603
sg13
g10
sg14
S'Jason Witten'
p1604
sg16
S'2012'
p1605
sg18
g151
sg20
S'--'
p1606
sg22
S'10/14'
p1607
sg24
S'14.7'
p1608
sg26
S'--'
p1609
sg28
S'--'
p1610
sg30
S'L29-31'
p1611
sg32
S'88'
p1612
sg34
g151
sg36
S'@BAL'
p1613
sg38
S'35'
p1614
sg40
g41
sg42
S'--'
p1615
ssg275
(dp1616
g5
S'--'
p1617
sg7
S'--'
p1618
sg9
g10
sg11
S'--'
p1619
sg13
g10
sg14
S'Jason Witten'
p1620
sg16
S'2012'
p1621
sg18
g275
sg20
S'--'
p1622
sg22
S'11/04'
p1623
sg24
S'7.3'
p1624
sg26
S'--'
p1625
sg28
S'--'
p1626
sg30
S'L13-19'
p1627
sg32
S'51'
p1628
sg34
g220
sg36
S'@ATL'
p1629
sg38
S'11'
p1630
sg40
g41
sg42
S'--'
p1631
ssg186
(dp1632
g5
S'--'
p1633
sg7
S'--'
p1634
sg9
g10
sg11
S'--'
p1635
sg13
g10
sg14
S'Jason Witten'
p1636
sg16
S'2012'
p1637
sg18
g186
sg20
S'--'
p1638
sg22
S'10/28'
p1639
sg24
S'9.3'
p1640
sg26
S'--'
p1641
sg28
S'--'
p1642
sg30
S'L24-29'
p1643
sg32
S'167'
p1644
sg34
S'18'
p1645
sg36
S'NYG'
p1646
sg38
S'20'
p1647
sg40
g41
sg42
S'--'
p1648
sss.