(dp0
S'2015'
p1
(dp2
S'13'
p3
(dp4
S'RushTD'
p5
S'--'
p6
sS'RushYds'
p7
S'--'
p8
sS'GS'
p9
S'0'
p10
sS'Lost'
p11
S'--'
p12
sS'G'
p13
S'1'
p14
sS'Player'
p15
S"Je'Ron Hamm"
p16
sS'Year'
p17
S'2015'
p18
sS'WK'
p19
S'13'
p20
sS'RushAvg'
p21
S'--'
p22
sS'Game Date'
p23
S'12/07'
p24
sS'RecAvg'
p25
S'--'
p26
sS'FUM'
p27
S'--'
p28
sS'RushAtt'
p29
S'--'
p30
sS'Result'
p31
S'L16-19'
p32
sS'RecYds'
p33
S'--'
p34
sS'Rec'
p35
S'--'
p36
sS'Opp'
p37
S'DAL'
p38
sS'RecLng'
p39
S'--'
p40
sS'RecTD'
p41
S'--'
p42
sS'RushLng'
p43
S'--'
p44
ssS'12'
p45
(dp46
g5
S'--'
p47
sg7
S'--'
p48
sg9
g10
sg11
S'--'
p49
sg13
g10
sg15
S"Je'Ron Hamm"
p50
sg17
S'2015'
p51
sg19
S'12'
p52
sg21
S'--'
p53
sg23
S'11/29'
p54
sg25
S'--'
p55
sg27
S'--'
p56
sg29
S'--'
p57
sg31
S'W20-14'
p58
sg33
S'--'
p59
sg35
S'--'
p60
sg37
S'NYG'
p61
sg39
S'--'
p62
sg41
S'--'
p63
sg43
S'--'
p64
ssS'15'
p65
(dp66
g5
S'--'
p67
sg7
S'--'
p68
sg9
g10
sg11
S'--'
p69
sg13
g10
sg15
S"Je'Ron Hamm"
p70
sg17
S'2015'
p71
sg19
S'15'
p72
sg21
S'--'
p73
sg23
S'12/20'
p74
sg25
S'--'
p75
sg27
S'--'
p76
sg29
S'--'
p77
sg31
S'W35-25'
p78
sg33
S'--'
p79
sg35
S'--'
p80
sg37
S'BUF'
p81
sg39
S'--'
p82
sg41
S'--'
p83
sg43
S'--'
p84
ssS'14'
p85
(dp86
g5
S'--'
p87
sg7
S'--'
p88
sg9
g10
sg11
S'--'
p89
sg13
g10
sg15
S"Je'Ron Hamm"
p90
sg17
S'2015'
p91
sg19
S'14'
p92
sg21
S'--'
p93
sg23
S'12/13'
p94
sg25
S'--'
p95
sg27
S'--'
p96
sg29
S'--'
p97
sg31
S'W24-21'
p98
sg33
S'--'
p99
sg35
S'--'
p100
sg37
S'@CHI'
p101
sg39
S'--'
p102
sg41
S'--'
p103
sg43
S'--'
p104
ssS'17'
p105
(dp106
g5
S'--'
p107
sg7
S'--'
p108
sg9
g10
sg11
S'--'
p109
sg13
g10
sg15
S"Je'Ron Hamm"
p110
sg17
S'2015'
p111
sg19
S'17'
p112
sg21
S'--'
p113
sg23
S'01/03'
p114
sg25
S'--'
p115
sg27
S'--'
p116
sg29
S'--'
p117
sg31
S'W19-16'
p118
sg33
S'--'
p119
sg35
S'--'
p120
sg37
S'STL'
p121
sg39
S'--'
p122
sg41
S'--'
p123
sg43
S'--'
p124
ssS'16'
p125
(dp126
g5
S'--'
p127
sg7
S'--'
p128
sg9
g10
sg11
S'--'
p129
sg13
g10
sg15
S"Je'Ron Hamm"
p130
sg17
S'2015'
p131
sg19
S'16'
p132
sg21
S'--'
p133
sg23
S'12/26'
p134
sg25
S'--'
p135
sg27
S'--'
p136
sg29
S'--'
p137
sg31
S'W38-24'
p138
sg33
S'--'
p139
sg35
S'--'
p140
sg37
S'@PHI'
p141
sg39
S'--'
p142
sg41
S'--'
p143
sg43
S'--'
p144
sss.