(dp0
S'2015'
p1
(dp2
S'11'
p3
(dp4
S'RushTD'
p5
S'--'
p6
sS'RushYds'
p7
S'--'
p8
sS'GS'
p9
S'0'
p10
sS'Lost'
p11
S'--'
p12
sS'G'
p13
S'1'
p14
sS'Player'
p15
S'Jeff Cumberland'
p16
sS'Year'
p17
S'2015'
p18
sS'WK'
p19
S'11'
p20
sS'RushAvg'
p21
S'--'
p22
sS'Game Date'
p23
S'11/22'
p24
sS'RecAvg'
p25
S'--'
p26
sS'FUM'
p27
S'--'
p28
sS'RushAtt'
p29
S'--'
p30
sS'Result'
p31
S'L17-24'
p32
sS'RecYds'
p33
S'--'
p34
sS'Rec'
p35
S'--'
p36
sS'Opp'
p37
S'@HOU'
p38
sS'RecLng'
p39
S'--'
p40
sS'RecTD'
p41
S'--'
p42
sS'RushLng'
p43
S'--'
p44
ssS'10'
p45
(dp46
g5
S'--'
p47
sg7
S'--'
p48
sg9
g14
sg11
S'--'
p49
sg13
g14
sg15
S'Jeff Cumberland'
p50
sg17
S'2015'
p51
sg19
S'10'
p52
sg21
S'--'
p53
sg23
S'11/12'
p54
sg25
S'--'
p55
sg27
S'--'
p56
sg29
S'--'
p57
sg31
S'L17-22'
p58
sg33
S'--'
p59
sg35
S'--'
p60
sg37
S'BUF'
p61
sg39
S'--'
p62
sg41
S'--'
p63
sg43
S'--'
p64
ssS'13'
p65
(dp66
g5
S'--'
p67
sg7
S'--'
p68
sg9
g10
sg11
S'--'
p69
sg13
g14
sg15
S'Jeff Cumberland'
p70
sg17
S'2015'
p71
sg19
S'13'
p72
sg21
S'--'
p73
sg23
S'12/06'
p74
sg25
S'--'
p75
sg27
S'--'
p76
sg29
S'--'
p77
sg31
S'W23-20'
p78
sg33
S'--'
p79
sg35
S'--'
p80
sg37
S'@NYG'
p81
sg39
S'--'
p82
sg41
S'--'
p83
sg43
S'--'
p84
ssS'12'
p85
(dp86
g5
S'--'
p87
sg7
S'--'
p88
sg9
g10
sg11
S'--'
p89
sg13
g14
sg15
S'Jeff Cumberland'
p90
sg17
S'2015'
p91
sg19
S'12'
p92
sg21
S'--'
p93
sg23
S'11/29'
p94
sg25
S'--'
p95
sg27
S'--'
p96
sg29
S'--'
p97
sg31
S'W38-20'
p98
sg33
S'--'
p99
sg35
S'--'
p100
sg37
S'MIA'
p101
sg39
S'--'
p102
sg41
S'--'
p103
sg43
S'--'
p104
ssS'15'
p105
(dp106
g5
S'--'
p107
sg7
S'--'
p108
sg9
g10
sg11
S'--'
p109
sg13
g14
sg15
S'Jeff Cumberland'
p110
sg17
S'2015'
p111
sg19
S'15'
p112
sg21
S'--'
p113
sg23
S'12/19'
p114
sg25
S'--'
p115
sg27
S'--'
p116
sg29
S'--'
p117
sg31
S'W19-16'
p118
sg33
S'--'
p119
sg35
S'--'
p120
sg37
S'@DAL'
p121
sg39
S'--'
p122
sg41
S'--'
p123
sg43
S'--'
p124
ssS'14'
p125
(dp126
g5
S'--'
p127
sg7
S'--'
p128
sg9
g10
sg11
S'--'
p129
sg13
g14
sg15
S'Jeff Cumberland'
p130
sg17
S'2015'
p131
sg19
S'14'
p132
sg21
S'--'
p133
sg23
S'12/13'
p134
sg25
S'--'
p135
sg27
S'--'
p136
sg29
S'--'
p137
sg31
S'W30-8'
p138
sg33
g10
sg35
g10
sg37
S'TEN'
p139
sg39
S'--'
p140
sg41
g10
sg43
S'--'
p141
ssS'17'
p142
(dp143
g5
S'--'
p144
sg7
S'--'
p145
sg9
g10
sg11
S'--'
p146
sg13
g14
sg15
S'Jeff Cumberland'
p147
sg17
S'2015'
p148
sg19
S'17'
p149
sg21
S'--'
p150
sg23
S'01/03'
p151
sg25
S'--'
p152
sg27
S'--'
p153
sg29
S'--'
p154
sg31
S'L17-22'
p155
sg33
S'--'
p156
sg35
S'--'
p157
sg37
S'@BUF'
p158
sg39
S'--'
p159
sg41
S'--'
p160
sg43
S'--'
p161
ssS'16'
p162
(dp163
g5
S'--'
p164
sg7
S'--'
p165
sg9
g10
sg11
S'--'
p166
sg13
g14
sg15
S'Jeff Cumberland'
p167
sg17
S'2015'
p168
sg19
S'16'
p169
sg21
S'--'
p170
sg23
S'12/27'
p171
sg25
S'--'
p172
sg27
S'--'
p173
sg29
S'--'
p174
sg31
S'W26-20'
p175
sg33
S'--'
p176
sg35
S'--'
p177
sg37
S'NE'
p178
sg39
S'--'
p179
sg41
S'--'
p180
sg43
S'--'
p181
ssg14
(dp182
g5
S'--'
p183
sg7
S'--'
p184
sg9
g14
sg11
S'--'
p185
sg13
g14
sg15
S'Jeff Cumberland'
p186
sg17
S'2015'
p187
sg19
g14
sg21
S'--'
p188
sg23
S'09/13'
p189
sg25
S'--'
p190
sg27
S'--'
p191
sg29
S'--'
p192
sg31
S'W31-10'
p193
sg33
S'--'
p194
sg35
S'--'
p195
sg37
S'CLE'
p196
sg39
S'--'
p197
sg41
S'--'
p198
sg43
S'--'
p199
ssS'3'
p200
(dp201
g5
S'--'
p202
sg7
S'--'
p203
sg9
g14
sg11
S'--'
p204
sg13
g14
sg15
S'Jeff Cumberland'
p205
sg17
S'2015'
p206
sg19
g200
sg21
S'--'
p207
sg23
S'09/27'
p208
sg25
S'5.0'
p209
sg27
S'--'
p210
sg29
S'--'
p211
sg31
S'L17-24'
p212
sg33
S'10'
p213
sg35
S'2'
p214
sg37
S'PHI'
p215
sg39
S'5'
p216
sg41
g10
sg43
S'--'
p217
ssg214
(dp218
g5
S'--'
p219
sg7
S'--'
p220
sg9
g10
sg11
S'--'
p221
sg13
g14
sg15
S'Jeff Cumberland'
p222
sg17
S'2015'
p223
sg19
g214
sg21
S'--'
p224
sg23
S'09/21'
p225
sg25
S'--'
p226
sg27
S'--'
p227
sg29
S'--'
p228
sg31
S'W20-7'
p229
sg33
S'--'
p230
sg35
S'--'
p231
sg37
S'@IND'
p232
sg39
S'--'
p233
sg41
S'--'
p234
sg43
S'--'
p235
ssg216
(dp236
g5
S''
p237
sg7
g237
sg9
g237
sg11
g237
sg13
g237
sg15
S'Jeff Cumberland'
p238
sg17
S'2015'
p239
sg19
g216
sg21
g237
sg23
S'Bye'
p240
sg25
g237
sg27
g237
sg29
g237
sg31
g237
sg33
g237
sg35
g237
sg37
g237
sg39
g237
sg41
g237
sg43
g237
ssS'4'
p241
(dp242
g5
S'--'
p243
sg7
S'--'
p244
sg9
g10
sg11
S'--'
p245
sg13
g10
sg15
S'Jeff Cumberland'
p246
sg17
S'2015'
p247
sg19
g241
sg21
S'--'
p248
sg23
S'10/04'
p249
sg25
S'--'
p250
sg27
S'--'
p251
sg29
S'--'
p252
sg31
S'W27-14'
p253
sg33
S'--'
p254
sg35
S'--'
p255
sg37
S'@MIA'
p256
sg39
S'--'
p257
sg41
S'--'
p258
sg43
S'--'
p259
ssS'7'
p260
(dp261
g5
S'--'
p262
sg7
S'--'
p263
sg9
g14
sg11
S'--'
p264
sg13
g14
sg15
S'Jeff Cumberland'
p265
sg17
S'2015'
p266
sg19
g260
sg21
S'--'
p267
sg23
S'10/25'
p268
sg25
S'16.0'
p269
sg27
S'--'
p270
sg29
S'--'
p271
sg31
S'L23-30'
p272
sg33
S'16'
p273
sg35
g14
sg37
S'@NE'
p274
sg39
S'16'
p275
sg41
g10
sg43
S'--'
p276
ssS'6'
p277
(dp278
g5
S'--'
p279
sg7
S'--'
p280
sg9
g14
sg11
S'--'
p281
sg13
g14
sg15
S'Jeff Cumberland'
p282
sg17
S'2015'
p283
sg19
g277
sg21
S'--'
p284
sg23
S'10/18'
p285
sg25
S'--'
p286
sg27
S'--'
p287
sg29
S'--'
p288
sg31
S'W34-20'
p289
sg33
S'--'
p290
sg35
S'--'
p291
sg37
S'WAS'
p292
sg39
S'--'
p293
sg41
S'--'
p294
sg43
S'--'
p295
ssS'9'
p296
(dp297
g5
S'--'
p298
sg7
S'--'
p299
sg9
g10
sg11
S'--'
p300
sg13
g14
sg15
S'Jeff Cumberland'
p301
sg17
S'2015'
p302
sg19
g296
sg21
S'--'
p303
sg23
S'11/08'
p304
sg25
S'44.0'
p305
sg27
S'--'
p306
sg29
S'--'
p307
sg31
S'W28-23'
p308
sg33
S'44'
p309
sg35
g14
sg37
S'JAC'
p310
sg39
S'44'
p311
sg41
g10
sg43
S'--'
p312
ssS'8'
p313
(dp314
g5
S'--'
p315
sg7
S'--'
p316
sg9
g14
sg11
S'--'
p317
sg13
g14
sg15
S'Jeff Cumberland'
p318
sg17
S'2015'
p319
sg19
g313
sg21
S'--'
p320
sg23
S'11/01'
p321
sg25
S'7.0'
p322
sg27
S'--'
p323
sg29
S'--'
p324
sg31
S'L20-34'
p325
sg33
g260
sg35
g14
sg37
S'@OAK'
p326
sg39
g260
sg41
g10
sg43
S'--'
p327
sssS'2014'
p328
(dp329
g3
(dp330
g5
g237
sg7
g237
sg9
g237
sg11
g237
sg13
g237
sg15
S'Jeff Cumberland'
p331
sg17
S'2014'
p332
sg19
S'11'
p333
sg21
g237
sg23
S'Bye'
p334
sg25
g237
sg27
g237
sg29
g237
sg31
g237
sg33
g237
sg35
g237
sg37
g237
sg39
g237
sg41
g237
sg43
g237
ssg45
(dp335
g5
S'--'
p336
sg7
S'--'
p337
sg9
g14
sg11
S'--'
p338
sg13
g14
sg15
S'Jeff Cumberland'
p339
sg17
S'2014'
p340
sg19
S'10'
p341
sg21
S'--'
p342
sg23
S'11/09'
p343
sg25
S'--'
p344
sg27
S'--'
p345
sg29
S'--'
p346
sg31
S'W20-13'
p347
sg33
S'--'
p348
sg35
S'--'
p349
sg37
S'PIT'
p350
sg39
S'--'
p351
sg41
S'--'
p352
sg43
S'--'
p353
ssg65
(dp354
g5
S'--'
p355
sg7
S'--'
p356
sg9
g14
sg11
S'--'
p357
sg13
g14
sg15
S'Jeff Cumberland'
p358
sg17
S'2014'
p359
sg19
S'13'
p360
sg21
S'--'
p361
sg23
S'12/01'
p362
sg25
S'--'
p363
sg27
S'--'
p364
sg29
S'--'
p365
sg31
S'L13-16'
p366
sg33
g10
sg35
g10
sg37
S'MIA'
p367
sg39
S'--'
p368
sg41
g10
sg43
S'--'
p369
ssg85
(dp370
g5
S'--'
p371
sg7
S'--'
p372
sg9
g14
sg11
S'--'
p373
sg13
g14
sg15
S'Jeff Cumberland'
p374
sg17
S'2014'
p375
sg19
S'12'
p376
sg21
S'--'
p377
sg23
S'11/24'
p378
sg25
S'5.0'
p379
sg27
S'--'
p380
sg29
S'--'
p381
sg31
S'L3-38'
p382
sg33
g216
sg35
g14
sg37
S'@BUF'
p383
sg39
g216
sg41
g10
sg43
S'--'
p384
ssg105
(dp385
g5
S'--'
p386
sg7
S'--'
p387
sg9
g14
sg11
S'--'
p388
sg13
g14
sg15
S'Jeff Cumberland'
p389
sg17
S'2014'
p390
sg19
S'15'
p391
sg21
S'--'
p392
sg23
S'12/14'
p393
sg25
S'11.0'
p394
sg27
S'--'
p395
sg29
S'--'
p396
sg31
S'W16-11'
p397
sg33
S'22'
p398
sg35
g214
sg37
S'@TEN'
p399
sg39
S'13'
p400
sg41
g10
sg43
S'--'
p401
ssg125
(dp402
g5
S'--'
p403
sg7
S'--'
p404
sg9
g14
sg11
S'--'
p405
sg13
g14
sg15
S'Jeff Cumberland'
p406
sg17
S'2014'
p407
sg19
S'14'
p408
sg21
S'--'
p409
sg23
S'12/07'
p410
sg25
S'--'
p411
sg27
S'--'
p412
sg29
S'--'
p413
sg31
S'L24-30'
p414
sg33
g10
sg35
g10
sg37
S'@MIN'
p415
sg39
S'--'
p416
sg41
g10
sg43
S'--'
p417
ssg142
(dp418
g5
S'--'
p419
sg7
S'--'
p420
sg9
g14
sg11
S'--'
p421
sg13
g14
sg15
S'Jeff Cumberland'
p422
sg17
S'2014'
p423
sg19
S'17'
p424
sg21
S'--'
p425
sg23
S'12/28'
p426
sg25
S'11.5'
p427
sg27
S'--'
p428
sg29
S'--'
p429
sg31
S'W37-24'
p430
sg33
S'23'
p431
sg35
g214
sg37
S'@MIA'
p432
sg39
S'23T'
p433
sg41
g14
sg43
S'--'
p434
ssg162
(dp435
g5
S'--'
p436
sg7
S'--'
p437
sg9
g14
sg11
S'--'
p438
sg13
g14
sg15
S'Jeff Cumberland'
p439
sg17
S'2014'
p440
sg19
S'16'
p441
sg21
S'--'
p442
sg23
S'12/21'
p443
sg25
S'14.3'
p444
sg27
S'--'
p445
sg29
S'--'
p446
sg31
S'L16-17'
p447
sg33
S'43'
p448
sg35
g200
sg37
S'NE'
p449
sg39
S'20T'
p450
sg41
g14
sg43
S'--'
p451
ssg14
(dp452
g5
S'--'
p453
sg7
S'--'
p454
sg9
g14
sg11
S'--'
p455
sg13
g14
sg15
S'Jeff Cumberland'
p456
sg17
S'2014'
p457
sg19
g14
sg21
S'--'
p458
sg23
S'09/07'
p459
sg25
S'12.5'
p460
sg27
S'--'
p461
sg29
S'--'
p462
sg31
S'W19-14'
p463
sg33
S'50'
p464
sg35
g241
sg37
S'OAK'
p465
sg39
S'26'
p466
sg41
g10
sg43
S'--'
p467
ssg200
(dp468
g5
S'--'
p469
sg7
S'--'
p470
sg9
g10
sg11
S'--'
p471
sg13
g14
sg15
S'Jeff Cumberland'
p472
sg17
S'2014'
p473
sg19
g200
sg21
S'--'
p474
sg23
S'09/22'
p475
sg25
S'6.0'
p476
sg27
S'--'
p477
sg29
S'--'
p478
sg31
S'L19-27'
p479
sg33
S'18'
p480
sg35
g200
sg37
S'CHI'
p481
sg39
S'11'
p482
sg41
g10
sg43
S'--'
p483
ssg214
(dp484
g5
S'--'
p485
sg7
S'--'
p486
sg9
g14
sg11
S'--'
p487
sg13
g14
sg15
S'Jeff Cumberland'
p488
sg17
S'2014'
p489
sg19
g214
sg21
S'--'
p490
sg23
S'09/14'
p491
sg25
S'14.0'
p492
sg27
S'--'
p493
sg29
S'--'
p494
sg31
S'L24-31'
p495
sg33
S'14'
p496
sg35
g14
sg37
S'@GB'
p497
sg39
S'14'
p498
sg41
g10
sg43
S'--'
p499
ssg216
(dp500
g5
S'--'
p501
sg7
S'--'
p502
sg9
g14
sg11
S'--'
p503
sg13
g14
sg15
S'Jeff Cumberland'
p504
sg17
S'2014'
p505
sg19
g216
sg21
S'--'
p506
sg23
S'10/05'
p507
sg25
S'6.0'
p508
sg27
S'--'
p509
sg29
S'--'
p510
sg31
S'L0-31'
p511
sg33
S'12'
p512
sg35
g214
sg37
S'@SD'
p513
sg39
g277
sg41
g10
sg43
S'--'
p514
ssg241
(dp515
g5
S'--'
p516
sg7
S'--'
p517
sg9
g14
sg11
S'--'
p518
sg13
g14
sg15
S'Jeff Cumberland'
p519
sg17
S'2014'
p520
sg19
g241
sg21
S'--'
p521
sg23
S'09/28'
p522
sg25
S'--'
p523
sg27
S'--'
p524
sg29
S'--'
p525
sg31
S'L17-24'
p526
sg33
S'--'
p527
sg35
S'--'
p528
sg37
S'DET'
p529
sg39
S'--'
p530
sg41
S'--'
p531
sg43
S'--'
p532
ssg260
(dp533
g5
S'--'
p534
sg7
S'--'
p535
sg9
g10
sg11
S'--'
p536
sg13
g14
sg15
S'Jeff Cumberland'
p537
sg17
S'2014'
p538
sg19
g260
sg21
S'--'
p539
sg23
S'10/16'
p540
sg25
S'16.7'
p541
sg27
S'--'
p542
sg29
S'--'
p543
sg31
S'L25-27'
p544
sg33
S'50'
p545
sg35
g200
sg37
S'@NE'
p546
sg39
S'28'
p547
sg41
g14
sg43
S'--'
p548
ssg277
(dp549
g5
S'--'
p550
sg7
S'--'
p551
sg9
g14
sg11
S'--'
p552
sg13
g14
sg15
S'Jeff Cumberland'
p553
sg17
S'2014'
p554
sg19
g277
sg21
S'--'
p555
sg23
S'10/12'
p556
sg25
S'5.0'
p557
sg27
S'--'
p558
sg29
S'--'
p559
sg31
S'L17-31'
p560
sg33
S'10'
p561
sg35
g214
sg37
S'DEN'
p562
sg39
g216
sg41
g10
sg43
S'--'
p563
ssg296
(dp564
g5
S'--'
p565
sg7
S'--'
p566
sg9
g14
sg11
S'--'
p567
sg13
g14
sg15
S'Jeff Cumberland'
p568
sg17
S'2014'
p569
sg19
g296
sg21
S'--'
p570
sg23
S'11/02'
p571
sg25
S'--'
p572
sg27
S'--'
p573
sg29
S'--'
p574
sg31
S'L10-24'
p575
sg33
g10
sg35
g10
sg37
S'@KC'
p576
sg39
S'--'
p577
sg41
g10
sg43
S'--'
p578
ssg313
(dp579
g5
S'--'
p580
sg7
S'--'
p581
sg9
g14
sg11
S'--'
p582
sg13
g14
sg15
S'Jeff Cumberland'
p583
sg17
S'2014'
p584
sg19
g313
sg21
S'--'
p585
sg23
S'10/26'
p586
sg25
S'--'
p587
sg27
S'--'
p588
sg29
S'--'
p589
sg31
S'L23-43'
p590
sg33
g10
sg35
g10
sg37
S'BUF'
p591
sg39
S'--'
p592
sg41
g10
sg43
S'--'
p593
sssS'2011'
p594
(dp595
g14
(dp596
g5
S'--'
p597
sg7
S'--'
p598
sg9
g10
sg11
S'--'
p599
sg13
g14
sg15
S'Jeff Cumberland'
p600
sg17
S'2011'
p601
sg19
g14
sg21
S'--'
p602
sg23
S'09/11'
p603
sg25
S'33.0'
p604
sg27
S'--'
p605
sg29
S'--'
p606
sg31
S'W27-24'
p607
sg33
S'33'
p608
sg35
g14
sg37
S'DAL'
p609
sg39
S'33'
p610
sg41
g10
sg43
S'--'
p611
ssg200
(dp612
g5
S'--'
p613
sg7
S'--'
p614
sg9
g10
sg11
S'--'
p615
sg13
g14
sg15
S'Jeff Cumberland'
p616
sg17
S'2011'
p617
sg19
g200
sg21
S'--'
p618
sg23
S'09/25'
p619
sg25
S'--'
p620
sg27
S'--'
p621
sg29
S'--'
p622
sg31
S'L24-34'
p623
sg33
g10
sg35
g10
sg37
S'@OAK'
p624
sg39
S'--'
p625
sg41
g10
sg43
S'--'
p626
ssg214
(dp627
g5
S'--'
p628
sg7
S'--'
p629
sg9
g10
sg11
S'--'
p630
sg13
g14
sg15
S'Jeff Cumberland'
p631
sg17
S'2011'
p632
sg19
g214
sg21
S'--'
p633
sg23
S'09/18'
p634
sg25
S'2.0'
p635
sg27
S'--'
p636
sg29
S'--'
p637
sg31
S'W32-3'
p638
sg33
g214
sg35
g14
sg37
S'JAC'
p639
sg39
g214
sg41
g10
sg43
S'--'
p640
sssS'2010'
p641
(dp642
g3
(dp643
g5
S'--'
p644
sg7
S'--'
p645
sg9
g10
sg11
S'--'
p646
sg13
g10
sg15
S'Jeff Cumberland'
p647
sg17
S'2010'
p648
sg19
S'11'
p649
sg21
S'--'
p650
sg23
S'11/21'
p651
sg25
S'--'
p652
sg27
S'--'
p653
sg29
S'--'
p654
sg31
S'W30-27'
p655
sg33
S'--'
p656
sg35
S'--'
p657
sg37
S'HOU'
p658
sg39
S'--'
p659
sg41
S'--'
p660
sg43
S'--'
p661
ssg45
(dp662
g5
S'--'
p663
sg7
S'--'
p664
sg9
g10
sg11
S'--'
p665
sg13
g10
sg15
S'Jeff Cumberland'
p666
sg17
S'2010'
p667
sg19
S'10'
p668
sg21
S'--'
p669
sg23
S'11/14'
p670
sg25
S'--'
p671
sg27
S'--'
p672
sg29
S'--'
p673
sg31
S'W26-20'
p674
sg33
S'--'
p675
sg35
S'--'
p676
sg37
S'@CLE'
p677
sg39
S'--'
p678
sg41
S'--'
p679
sg43
S'--'
p680
ssg65
(dp681
g5
S'--'
p682
sg7
S'--'
p683
sg9
g10
sg11
S'--'
p684
sg13
g10
sg15
S'Jeff Cumberland'
p685
sg17
S'2010'
p686
sg19
S'13'
p687
sg21
S'--'
p688
sg23
S'12/06'
p689
sg25
S'--'
p690
sg27
S'--'
p691
sg29
S'--'
p692
sg31
S'L3-45'
p693
sg33
S'--'
p694
sg35
S'--'
p695
sg37
S'@NE'
p696
sg39
S'--'
p697
sg41
S'--'
p698
sg43
S'--'
p699
ssg85
(dp700
g5
S'--'
p701
sg7
S'--'
p702
sg9
g10
sg11
S'--'
p703
sg13
g10
sg15
S'Jeff Cumberland'
p704
sg17
S'2010'
p705
sg19
S'12'
p706
sg21
S'--'
p707
sg23
S'11/25'
p708
sg25
S'--'
p709
sg27
S'--'
p710
sg29
S'--'
p711
sg31
S'W26-10'
p712
sg33
S'--'
p713
sg35
S'--'
p714
sg37
S'CIN'
p715
sg39
S'--'
p716
sg41
S'--'
p717
sg43
S'--'
p718
ssg105
(dp719
g5
S'--'
p720
sg7
S'--'
p721
sg9
g10
sg11
S'--'
p722
sg13
g10
sg15
S'Jeff Cumberland'
p723
sg17
S'2010'
p724
sg19
S'15'
p725
sg21
S'--'
p726
sg23
S'12/19'
p727
sg25
S'--'
p728
sg27
S'--'
p729
sg29
S'--'
p730
sg31
S'W22-17'
p731
sg33
S'--'
p732
sg35
S'--'
p733
sg37
S'@PIT'
p734
sg39
S'--'
p735
sg41
S'--'
p736
sg43
S'--'
p737
ssg125
(dp738
g5
S'--'
p739
sg7
S'--'
p740
sg9
g10
sg11
S'--'
p741
sg13
g10
sg15
S'Jeff Cumberland'
p742
sg17
S'2010'
p743
sg19
S'14'
p744
sg21
S'--'
p745
sg23
S'12/12'
p746
sg25
S'--'
p747
sg27
S'--'
p748
sg29
S'--'
p749
sg31
S'L6-10'
p750
sg33
S'--'
p751
sg35
S'--'
p752
sg37
S'MIA'
p753
sg39
S'--'
p754
sg41
S'--'
p755
sg43
S'--'
p756
ssg142
(dp757
g5
S'--'
p758
sg7
S'--'
p759
sg9
g10
sg11
S'--'
p760
sg13
g14
sg15
S'Jeff Cumberland'
p761
sg17
S'2010'
p762
sg19
S'17'
p763
sg21
S'--'
p764
sg23
S'01/02'
p765
sg25
S'3.0'
p766
sg27
S'--'
p767
sg29
S'--'
p768
sg31
S'W38-7'
p769
sg33
g200
sg35
g14
sg37
S'BUF'
p770
sg39
g200
sg41
g10
sg43
S'--'
p771
ssg162
(dp772
g5
S'--'
p773
sg7
S'--'
p774
sg9
g10
sg11
S'--'
p775
sg13
g10
sg15
S'Jeff Cumberland'
p776
sg17
S'2010'
p777
sg19
S'16'
p778
sg21
S'--'
p779
sg23
S'12/26'
p780
sg25
S'--'
p781
sg27
S'--'
p782
sg29
S'--'
p783
sg31
S'L34-38'
p784
sg33
S'--'
p785
sg35
S'--'
p786
sg37
S'@CHI'
p787
sg39
S'--'
p788
sg41
S'--'
p789
sg43
S'--'
p790
ssg14
(dp791
g5
S'--'
p792
sg7
S'--'
p793
sg9
g10
sg11
S'--'
p794
sg13
g10
sg15
S'Jeff Cumberland'
p795
sg17
S'2010'
p796
sg19
g14
sg21
S'--'
p797
sg23
S'09/13'
p798
sg25
S'--'
p799
sg27
S'--'
p800
sg29
S'--'
p801
sg31
S'L9-10'
p802
sg33
S'--'
p803
sg35
S'--'
p804
sg37
S'BAL'
p805
sg39
S'--'
p806
sg41
S'--'
p807
sg43
S'--'
p808
ssg200
(dp809
g5
S'--'
p810
sg7
S'--'
p811
sg9
g10
sg11
S'--'
p812
sg13
g10
sg15
S'Jeff Cumberland'
p813
sg17
S'2010'
p814
sg19
g200
sg21
S'--'
p815
sg23
S'09/26'
p816
sg25
S'--'
p817
sg27
S'--'
p818
sg29
S'--'
p819
sg31
S'W31-23'
p820
sg33
S'--'
p821
sg35
S'--'
p822
sg37
S'@MIA'
p823
sg39
S'--'
p824
sg41
S'--'
p825
sg43
S'--'
p826
ssg214
(dp827
g5
S'--'
p828
sg7
S'--'
p829
sg9
g10
sg11
S'--'
p830
sg13
g10
sg15
S'Jeff Cumberland'
p831
sg17
S'2010'
p832
sg19
g214
sg21
S'--'
p833
sg23
S'09/19'
p834
sg25
S'--'
p835
sg27
S'--'
p836
sg29
S'--'
p837
sg31
S'W28-14'
p838
sg33
S'--'
p839
sg35
S'--'
p840
sg37
S'NE'
p841
sg39
S'--'
p842
sg41
S'--'
p843
sg43
S'--'
p844
ssg216
(dp845
g5
S'--'
p846
sg7
S'--'
p847
sg9
g10
sg11
S'--'
p848
sg13
g10
sg15
S'Jeff Cumberland'
p849
sg17
S'2010'
p850
sg19
g216
sg21
S'--'
p851
sg23
S'10/11'
p852
sg25
S'--'
p853
sg27
S'--'
p854
sg29
S'--'
p855
sg31
S'W29-20'
p856
sg33
S'--'
p857
sg35
S'--'
p858
sg37
S'MIN'
p859
sg39
S'--'
p860
sg41
S'--'
p861
sg43
S'--'
p862
ssg241
(dp863
g5
S'--'
p864
sg7
S'--'
p865
sg9
g10
sg11
S'--'
p866
sg13
g10
sg15
S'Jeff Cumberland'
p867
sg17
S'2010'
p868
sg19
g241
sg21
S'--'
p869
sg23
S'10/03'
p870
sg25
S'--'
p871
sg27
S'--'
p872
sg29
S'--'
p873
sg31
S'W38-14'
p874
sg33
S'--'
p875
sg35
S'--'
p876
sg37
S'@BUF'
p877
sg39
S'--'
p878
sg41
S'--'
p879
sg43
S'--'
p880
ssg260
(dp881
g5
g237
sg7
g237
sg9
g237
sg11
g237
sg13
g237
sg15
S'Jeff Cumberland'
p882
sg17
S'2010'
p883
sg19
g260
sg21
g237
sg23
S'Bye'
p884
sg25
g237
sg27
g237
sg29
g237
sg31
g237
sg33
g237
sg35
g237
sg37
g237
sg39
g237
sg41
g237
sg43
g237
ssg277
(dp885
g5
S'--'
p886
sg7
S'--'
p887
sg9
g10
sg11
S'--'
p888
sg13
g10
sg15
S'Jeff Cumberland'
p889
sg17
S'2010'
p890
sg19
g277
sg21
S'--'
p891
sg23
S'10/17'
p892
sg25
S'--'
p893
sg27
S'--'
p894
sg29
S'--'
p895
sg31
S'W24-20'
p896
sg33
S'--'
p897
sg35
S'--'
p898
sg37
S'@DEN'
p899
sg39
S'--'
p900
sg41
S'--'
p901
sg43
S'--'
p902
ssg296
(dp903
g5
S'--'
p904
sg7
S'--'
p905
sg9
g10
sg11
S'--'
p906
sg13
g10
sg15
S'Jeff Cumberland'
p907
sg17
S'2010'
p908
sg19
g296
sg21
S'--'
p909
sg23
S'11/07'
p910
sg25
S'--'
p911
sg27
S'--'
p912
sg29
S'--'
p913
sg31
S'W23-20'
p914
sg33
S'--'
p915
sg35
S'--'
p916
sg37
S'@DET'
p917
sg39
S'--'
p918
sg41
S'--'
p919
sg43
S'--'
p920
ssg313
(dp921
g5
S'--'
p922
sg7
S'--'
p923
sg9
g10
sg11
S'--'
p924
sg13
g10
sg15
S'Jeff Cumberland'
p925
sg17
S'2010'
p926
sg19
g313
sg21
S'--'
p927
sg23
S'10/31'
p928
sg25
S'--'
p929
sg27
S'--'
p930
sg29
S'--'
p931
sg31
S'L0-9'
p932
sg33
S'--'
p933
sg35
S'--'
p934
sg37
S'GB'
p935
sg39
S'--'
p936
sg41
S'--'
p937
sg43
S'--'
p938
sssS'2013'
p939
(dp940
g3
(dp941
g5
S'--'
p942
sg7
S'--'
p943
sg9
g14
sg11
S'--'
p944
sg13
g14
sg15
S'Jeff Cumberland'
p945
sg17
S'2013'
p946
sg19
S'11'
p947
sg21
S'--'
p948
sg23
S'11/17'
p949
sg25
S'8.3'
p950
sg27
S'--'
p951
sg29
S'--'
p952
sg31
S'L14-37'
p953
sg33
S'25'
p954
sg35
g200
sg37
S'@BUF'
p955
sg39
S'13T'
p956
sg41
g14
sg43
S'--'
p957
ssg45
(dp958
g5
g237
sg7
g237
sg9
g237
sg11
g237
sg13
g237
sg15
S'Jeff Cumberland'
p959
sg17
S'2013'
p960
sg19
S'10'
p961
sg21
g237
sg23
S'Bye'
p962
sg25
g237
sg27
g237
sg29
g237
sg31
g237
sg33
g237
sg35
g237
sg37
g237
sg39
g237
sg41
g237
sg43
g237
ssg65
(dp963
g5
S'--'
p964
sg7
S'--'
p965
sg9
g14
sg11
S'--'
p966
sg13
g14
sg15
S'Jeff Cumberland'
p967
sg17
S'2013'
p968
sg19
S'13'
p969
sg21
S'--'
p970
sg23
S'12/01'
p971
sg25
S'6.0'
p972
sg27
S'--'
p973
sg29
S'--'
p974
sg31
S'L3-23'
p975
sg33
g277
sg35
g14
sg37
S'MIA'
p976
sg39
g277
sg41
g10
sg43
S'--'
p977
ssg85
(dp978
g5
S'--'
p979
sg7
S'--'
p980
sg9
g14
sg11
S'--'
p981
sg13
g14
sg15
S'Jeff Cumberland'
p982
sg17
S'2013'
p983
sg19
S'12'
p984
sg21
S'--'
p985
sg23
S'11/24'
p986
sg25
S'9.0'
p987
sg27
S'--'
p988
sg29
S'--'
p989
sg31
S'L3-19'
p990
sg33
g296
sg35
g14
sg37
S'@BAL'
p991
sg39
g296
sg41
g10
sg43
S'--'
p992
ssg105
(dp993
g5
S'--'
p994
sg7
S'--'
p995
sg9
g14
sg11
S'--'
p996
sg13
g14
sg15
S'Jeff Cumberland'
p997
sg17
S'2013'
p998
sg19
S'15'
p999
sg21
S'--'
p1000
sg23
S'12/15'
p1001
sg25
S'16.7'
p1002
sg27
S'--'
p1003
sg29
S'--'
p1004
sg31
S'L20-30'
p1005
sg33
S'50'
p1006
sg35
g200
sg37
S'@CAR'
p1007
sg39
S'35'
p1008
sg41
g14
sg43
S'--'
p1009
ssg125
(dp1010
g5
S'--'
p1011
sg7
S'--'
p1012
sg9
g10
sg11
S'--'
p1013
sg13
g14
sg15
S'Jeff Cumberland'
p1014
sg17
S'2013'
p1015
sg19
S'14'
p1016
sg21
S'--'
p1017
sg23
S'12/08'
p1018
sg25
S'--'
p1019
sg27
S'--'
p1020
sg29
S'--'
p1021
sg31
S'W37-27'
p1022
sg33
S'--'
p1023
sg35
S'--'
p1024
sg37
S'OAK'
p1025
sg39
S'--'
p1026
sg41
S'--'
p1027
sg43
S'--'
p1028
ssg142
(dp1029
g5
S'--'
p1030
sg7
S'--'
p1031
sg9
g14
sg11
S'--'
p1032
sg13
g14
sg15
S'Jeff Cumberland'
p1033
sg17
S'2013'
p1034
sg19
S'17'
p1035
sg21
S'--'
p1036
sg23
S'12/29'
p1037
sg25
S'30.0'
p1038
sg27
S'--'
p1039
sg29
S'--'
p1040
sg31
S'W20-7'
p1041
sg33
S'30'
p1042
sg35
g14
sg37
S'@MIA'
p1043
sg39
S'30'
p1044
sg41
g10
sg43
S'--'
p1045
ssg162
(dp1046
g5
S'--'
p1047
sg7
S'--'
p1048
sg9
g10
sg11
S'--'
p1049
sg13
g14
sg15
S'Jeff Cumberland'
p1050
sg17
S'2013'
p1051
sg19
S'16'
p1052
sg21
S'--'
p1053
sg23
S'12/22'
p1054
sg25
S'15.0'
p1055
sg27
S'--'
p1056
sg29
S'--'
p1057
sg31
S'W24-13'
p1058
sg33
S'30'
p1059
sg35
g214
sg37
S'CLE'
p1060
sg39
S'18'
p1061
sg41
g10
sg43
S'--'
p1062
ssg14
(dp1063
g5
S'--'
p1064
sg7
S'--'
p1065
sg9
g14
sg11
S'--'
p1066
sg13
g14
sg15
S'Jeff Cumberland'
p1067
sg17
S'2013'
p1068
sg19
g14
sg21
S'--'
p1069
sg23
S'09/08'
p1070
sg25
S'--'
p1071
sg27
S'--'
p1072
sg29
S'--'
p1073
sg31
S'W18-17'
p1074
sg33
S'--'
p1075
sg35
S'--'
p1076
sg37
S'TB'
p1077
sg39
S'--'
p1078
sg41
S'--'
p1079
sg43
S'--'
p1080
ssg200
(dp1081
g5
S'--'
p1082
sg7
S'--'
p1083
sg9
g14
sg11
S'--'
p1084
sg13
g14
sg15
S'Jeff Cumberland'
p1085
sg17
S'2013'
p1086
sg19
g200
sg21
S'--'
p1087
sg23
S'09/22'
p1088
sg25
S'8.7'
p1089
sg27
S'--'
p1090
sg29
S'--'
p1091
sg31
S'W27-20'
p1092
sg33
S'26'
p1093
sg35
g200
sg37
S'BUF'
p1094
sg39
S'18'
p1095
sg41
g10
sg43
S'--'
p1096
ssg214
(dp1097
g5
S'--'
p1098
sg7
S'--'
p1099
sg9
g10
sg11
S'--'
p1100
sg13
g14
sg15
S'Jeff Cumberland'
p1101
sg17
S'2013'
p1102
sg19
g214
sg21
S'--'
p1103
sg23
S'09/12'
p1104
sg25
S'--'
p1105
sg27
S'--'
p1106
sg29
S'--'
p1107
sg31
S'L10-13'
p1108
sg33
S'--'
p1109
sg35
S'--'
p1110
sg37
S'@NE'
p1111
sg39
S'--'
p1112
sg41
S'--'
p1113
sg43
S'--'
p1114
ssg216
(dp1115
g5
S'--'
p1116
sg7
S'--'
p1117
sg9
g14
sg11
S'--'
p1118
sg13
g14
sg15
S'Jeff Cumberland'
p1119
sg17
S'2013'
p1120
sg19
g216
sg21
S'--'
p1121
sg23
S'10/07'
p1122
sg25
S'26.3'
p1123
sg27
S'--'
p1124
sg29
S'--'
p1125
sg31
S'W30-28'
p1126
sg33
S'79'
p1127
sg35
g200
sg37
S'@ATL'
p1128
sg39
S'47'
p1129
sg41
g14
sg43
S'--'
p1130
ssg241
(dp1131
g5
S'--'
p1132
sg7
S'--'
p1133
sg9
g14
sg11
S'--'
p1134
sg13
g14
sg15
S'Jeff Cumberland'
p1135
sg17
S'2013'
p1136
sg19
g241
sg21
S'--'
p1137
sg23
S'09/29'
p1138
sg25
S'34.0'
p1139
sg27
S'--'
p1140
sg29
S'--'
p1141
sg31
S'L13-38'
p1142
sg33
S'34'
p1143
sg35
g14
sg37
S'@TEN'
p1144
sg39
S'34T'
p1145
sg41
g14
sg43
S'--'
p1146
ssg260
(dp1147
g5
S'--'
p1148
sg7
S'--'
p1149
sg9
g14
sg11
S'--'
p1150
sg13
g14
sg15
S'Jeff Cumberland'
p1151
sg17
S'2013'
p1152
sg19
g260
sg21
S'--'
p1153
sg23
S'10/20'
p1154
sg25
S'13.7'
p1155
sg27
S'--'
p1156
sg29
S'--'
p1157
sg31
S'W30-27'
p1158
sg33
S'41'
p1159
sg35
g200
sg37
S'NE'
p1160
sg39
S'25'
p1161
sg41
g10
sg43
S'--'
p1162
ssg277
(dp1163
g5
S'--'
p1164
sg7
S'--'
p1165
sg9
g14
sg11
S'--'
p1166
sg13
g14
sg15
S'Jeff Cumberland'
p1167
sg17
S'2013'
p1168
sg19
g277
sg21
S'--'
p1169
sg23
S'10/13'
p1170
sg25
S'14.8'
p1171
sg27
S'--'
p1172
sg29
S'--'
p1173
sg31
S'L6-19'
p1174
sg33
S'59'
p1175
sg35
g241
sg37
S'PIT'
p1176
sg39
S'29'
p1177
sg41
g10
sg43
S'--'
p1178
ssg296
(dp1179
g5
S'--'
p1180
sg7
S'--'
p1181
sg9
g10
sg11
S'--'
p1182
sg13
g10
sg15
S'Jeff Cumberland'
p1183
sg17
S'2013'
p1184
sg19
g296
sg21
S'--'
p1185
sg23
S'11/03'
p1186
sg25
S'--'
p1187
sg27
S'--'
p1188
sg29
S'--'
p1189
sg31
S'W26-20'
p1190
sg33
S'--'
p1191
sg35
S'--'
p1192
sg37
S'NO'
p1193
sg39
S'--'
p1194
sg41
S'--'
p1195
sg43
S'--'
p1196
ssg313
(dp1197
g5
S'--'
p1198
sg7
S'--'
p1199
sg9
g14
sg11
S'--'
p1200
sg13
g14
sg15
S'Jeff Cumberland'
p1201
sg17
S'2013'
p1202
sg19
g313
sg21
S'--'
p1203
sg23
S'10/27'
p1204
sg25
S'9.0'
p1205
sg27
S'--'
p1206
sg29
S'--'
p1207
sg31
S'L9-49'
p1208
sg33
g296
sg35
g14
sg37
S'@CIN'
p1209
sg39
g296
sg41
g10
sg43
S'--'
p1210
sssS'2012'
p1211
(dp1212
g3
(dp1213
g5
S'--'
p1214
sg7
S'--'
p1215
sg9
g14
sg11
S'--'
p1216
sg13
g14
sg15
S'Jeff Cumberland'
p1217
sg17
S'2012'
p1218
sg19
S'11'
p1219
sg21
S'--'
p1220
sg23
S'11/18'
p1221
sg25
S'7.0'
p1222
sg27
S'--'
p1223
sg29
S'--'
p1224
sg31
S'W27-13'
p1225
sg33
g260
sg35
g14
sg37
S'@STL'
p1226
sg39
g260
sg41
g10
sg43
S'--'
p1227
ssg45
(dp1228
g5
S'--'
p1229
sg7
S'--'
p1230
sg9
g14
sg11
S'--'
p1231
sg13
g14
sg15
S'Jeff Cumberland'
p1232
sg17
S'2012'
p1233
sg19
S'10'
p1234
sg21
S'--'
p1235
sg23
S'11/11'
p1236
sg25
S'--'
p1237
sg27
S'--'
p1238
sg29
S'--'
p1239
sg31
S'L7-28'
p1240
sg33
S'--'
p1241
sg35
S'--'
p1242
sg37
S'@SEA'
p1243
sg39
S'--'
p1244
sg41
S'--'
p1245
sg43
S'--'
p1246
ssg65
(dp1247
g5
S'--'
p1248
sg7
S'--'
p1249
sg9
g10
sg11
S'--'
p1250
sg13
g14
sg15
S'Jeff Cumberland'
p1251
sg17
S'2012'
p1252
sg19
S'13'
p1253
sg21
S'--'
p1254
sg23
S'12/02'
p1255
sg25
S'12.5'
p1256
sg27
S'--'
p1257
sg29
S'--'
p1258
sg31
S'W7-6'
p1259
sg33
S'25'
p1260
sg35
g214
sg37
S'ARI'
p1261
sg39
S'24'
p1262
sg41
g14
sg43
S'--'
p1263
ssg85
(dp1264
g5
S'--'
p1265
sg7
S'--'
p1266
sg9
g14
sg11
S'--'
p1267
sg13
g14
sg15
S'Jeff Cumberland'
p1268
sg17
S'2012'
p1269
sg19
S'12'
p1270
sg21
S'--'
p1271
sg23
S'11/22'
p1272
sg25
S'14.5'
p1273
sg27
S'--'
p1274
sg29
S'--'
p1275
sg31
S'L19-49'
p1276
sg33
S'58'
p1277
sg35
g241
sg37
S'NE'
p1278
sg39
S'39'
p1279
sg41
g10
sg43
S'--'
p1280
ssg105
(dp1281
g5
S'--'
p1282
sg7
S'--'
p1283
sg9
g14
sg11
S'--'
p1284
sg13
g14
sg15
S'Jeff Cumberland'
p1285
sg17
S'2012'
p1286
sg19
S'15'
p1287
sg21
S'--'
p1288
sg23
S'12/17'
p1289
sg25
S'13.3'
p1290
sg27
S'--'
p1291
sg29
S'--'
p1292
sg31
S'L10-14'
p1293
sg33
S'53'
p1294
sg35
g241
sg37
S'@TEN'
p1295
sg39
S'22'
p1296
sg41
g14
sg43
S'--'
p1297
ssg125
(dp1298
g5
S'--'
p1299
sg7
S'--'
p1300
sg9
g14
sg11
S'--'
p1301
sg13
g14
sg15
S'Jeff Cumberland'
p1302
sg17
S'2012'
p1303
sg19
S'14'
p1304
sg21
S'--'
p1305
sg23
S'12/09'
p1306
sg25
S'37.0'
p1307
sg27
S'--'
p1308
sg29
S'--'
p1309
sg31
S'W17-10'
p1310
sg33
S'37'
p1311
sg35
g14
sg37
S'@JAC'
p1312
sg39
S'37'
p1313
sg41
g10
sg43
S'--'
p1314
ssg142
(dp1315
g5
S'--'
p1316
sg7
S'--'
p1317
sg9
g14
sg11
S'--'
p1318
sg13
g14
sg15
S'Jeff Cumberland'
p1319
sg17
S'2012'
p1320
sg19
S'17'
p1321
sg21
S'--'
p1322
sg23
S'12/30'
p1323
sg25
S'12.0'
p1324
sg27
S'--'
p1325
sg29
S'--'
p1326
sg31
S'L9-28'
p1327
sg33
S'36'
p1328
sg35
g200
sg37
S'@BUF'
p1329
sg39
S'18'
p1330
sg41
g10
sg43
S'--'
p1331
ssg162
(dp1332
g5
S'--'
p1333
sg7
S'--'
p1334
sg9
g14
sg11
S'--'
p1335
sg13
g14
sg15
S'Jeff Cumberland'
p1336
sg17
S'2012'
p1337
sg19
S'16'
p1338
sg21
S'--'
p1339
sg23
S'12/23'
p1340
sg25
S'--'
p1341
sg27
S'--'
p1342
sg29
S'--'
p1343
sg31
S'L17-27'
p1344
sg33
g10
sg35
g10
sg37
S'SD'
p1345
sg39
S'--'
p1346
sg41
g10
sg43
S'--'
p1347
ssg14
(dp1348
g5
S'--'
p1349
sg7
S'--'
p1350
sg9
g10
sg11
S'--'
p1351
sg13
g14
sg15
S'Jeff Cumberland'
p1352
sg17
S'2012'
p1353
sg19
g14
sg21
S'--'
p1354
sg23
S'09/09'
p1355
sg25
S'11.0'
p1356
sg27
S'--'
p1357
sg29
S'--'
p1358
sg31
S'W48-28'
p1359
sg33
S'33'
p1360
sg35
g200
sg37
S'BUF'
p1361
sg39
S'13'
p1362
sg41
g10
sg43
S'--'
p1363
ssg200
(dp1364
g5
S'--'
p1365
sg7
S'--'
p1366
sg9
g14
sg11
S'--'
p1367
sg13
g14
sg15
S'Jeff Cumberland'
p1368
sg17
S'2012'
p1369
sg19
g200
sg21
S'--'
p1370
sg23
S'09/23'
p1371
sg25
S'12.5'
p1372
sg27
S'--'
p1373
sg29
S'--'
p1374
sg31
S'W23-20'
p1375
sg33
S'25'
p1376
sg35
g214
sg37
S'@MIA'
p1377
sg39
S'19'
p1378
sg41
g10
sg43
S'--'
p1379
ssg214
(dp1380
g5
S'--'
p1381
sg7
S'--'
p1382
sg9
g14
sg11
S'--'
p1383
sg13
g14
sg15
S'Jeff Cumberland'
p1384
sg17
S'2012'
p1385
sg19
g214
sg21
S'--'
p1386
sg23
S'09/16'
p1387
sg25
S'6.5'
p1388
sg27
S'--'
p1389
sg29
S'--'
p1390
sg31
S'L10-27'
p1391
sg33
S'13'
p1392
sg35
g214
sg37
S'@PIT'
p1393
sg39
S'11'
p1394
sg41
g10
sg43
S'--'
p1395
ssg216
(dp1396
g5
S'--'
p1397
sg7
S'--'
p1398
sg9
g14
sg11
S'--'
p1399
sg13
g14
sg15
S'Jeff Cumberland'
p1400
sg17
S'2012'
p1401
sg19
g216
sg21
S'--'
p1402
sg23
S'10/08'
p1403
sg25
S'25.5'
p1404
sg27
S'--'
p1405
sg29
S'--'
p1406
sg31
S'L17-23'
p1407
sg33
S'51'
p1408
sg35
g214
sg37
S'HOU'
p1409
sg39
S'27T'
p1410
sg41
g14
sg43
S'--'
p1411
ssg241
(dp1412
g5
S'--'
p1413
sg7
S'--'
p1414
sg9
g14
sg11
S'--'
p1415
sg13
g14
sg15
S'Jeff Cumberland'
p1416
sg17
S'2012'
p1417
sg19
g241
sg21
S'--'
p1418
sg23
S'09/30'
p1419
sg25
S'4.3'
p1420
sg27
S'--'
p1421
sg29
S'--'
p1422
sg31
S'L0-34'
p1423
sg33
S'17'
p1424
sg35
g241
sg37
S'SF'
p1425
sg39
g296
sg41
g10
sg43
S'--'
p1426
ssg260
(dp1427
g5
S'--'
p1428
sg7
S'--'
p1429
sg9
g10
sg11
S'--'
p1430
sg13
g14
sg15
S'Jeff Cumberland'
p1431
sg17
S'2012'
p1432
sg19
g260
sg21
S'--'
p1433
sg23
S'10/21'
p1434
sg25
S'4.0'
p1435
sg27
S'--'
p1436
sg29
S'--'
p1437
sg31
S'L26-29'
p1438
sg33
g241
sg35
g14
sg37
S'@NE'
p1439
sg39
g241
sg41
g10
sg43
S'--'
p1440
ssg277
(dp1441
g5
S'--'
p1442
sg7
S'--'
p1443
sg9
g14
sg11
S'--'
p1444
sg13
g14
sg15
S'Jeff Cumberland'
p1445
sg17
S'2012'
p1446
sg19
g277
sg21
S'--'
p1447
sg23
S'10/14'
p1448
sg25
S'--'
p1449
sg27
S'--'
p1450
sg29
S'--'
p1451
sg31
S'W35-9'
p1452
sg33
g10
sg35
g10
sg37
S'IND'
p1453
sg39
S'--'
p1454
sg41
g10
sg43
S'--'
p1455
ssg296
(dp1456
g5
g237
sg7
g237
sg9
g237
sg11
g237
sg13
g237
sg15
S'Jeff Cumberland'
p1457
sg17
S'2012'
p1458
sg19
g296
sg21
g237
sg23
S'Bye'
p1459
sg25
g237
sg27
g237
sg29
g237
sg31
g237
sg33
g237
sg35
g237
sg37
g237
sg39
g237
sg41
g237
sg43
g237
ssg313
(dp1460
g5
S'--'
p1461
sg7
S'--'
p1462
sg9
g10
sg11
S'--'
p1463
sg13
g10
sg15
S'Jeff Cumberland'
p1464
sg17
S'2012'
p1465
sg19
g313
sg21
S'--'
p1466
sg23
S'10/28'
p1467
sg25
S'--'
p1468
sg27
S'--'
p1469
sg29
S'--'
p1470
sg31
S'L9-30'
p1471
sg33
S'--'
p1472
sg35
S'--'
p1473
sg37
S'MIA'
p1474
sg39
S'--'
p1475
sg41
S'--'
p1476
sg43
S'--'
p1477
sss.