(dp0
S'2015'
p1
(dp2
S'11'
p3
(dp4
S'RushTD'
p5
S''
p6
sS'RushYds'
p7
g6
sS'GS'
p8
g6
sS'Lost'
p9
g6
sS'G'
p10
g6
sS'Player'
p11
S'Jerome Cunningham'
p12
sS'Year'
p13
S'2015'
p14
sS'WK'
p15
S'11'
p16
sS'RushAvg'
p17
g6
sS'Game Date'
p18
S'Bye'
p19
sS'RecAvg'
p20
g6
sS'FUM'
p21
g6
sS'RushAtt'
p22
g6
sS'Result'
p23
g6
sS'RecYds'
p24
g6
sS'Rec'
p25
g6
sS'Opp'
p26
g6
sS'RecLng'
p27
g6
sS'RecTD'
p28
g6
sS'RushLng'
p29
g6
ssS'10'
p30
(dp31
g5
S'--'
p32
sg7
S'--'
p33
sg8
S'1'
p34
sg9
S'--'
p35
sg10
g34
sg11
S'Jerome Cunningham'
p36
sg13
S'2015'
p37
sg15
S'10'
p38
sg17
S'--'
p39
sg18
S'11/15'
p40
sg20
S'16.0'
p41
sg21
S'--'
p42
sg22
S'--'
p43
sg23
S'L26-27'
p44
sg24
S'16'
p45
sg25
g34
sg26
S'NE'
p46
sg27
S'16'
p47
sg28
S'0'
p48
sg29
S'--'
p49
ssS'13'
p50
(dp51
g5
S'--'
p52
sg7
S'--'
p53
sg8
g48
sg9
S'--'
p54
sg10
g34
sg11
S'Jerome Cunningham'
p55
sg13
S'2015'
p56
sg15
S'13'
p57
sg17
S'--'
p58
sg18
S'12/06'
p59
sg20
S'--'
p60
sg21
S'--'
p61
sg22
S'--'
p62
sg23
S'L20-23'
p63
sg24
S'--'
p64
sg25
S'--'
p65
sg26
S'NYJ'
p66
sg27
S'--'
p67
sg28
S'--'
p68
sg29
S'--'
p69
ssS'12'
p70
(dp71
g5
S'--'
p72
sg7
S'--'
p73
sg8
g34
sg9
S'--'
p74
sg10
g34
sg11
S'Jerome Cunningham'
p75
sg13
S'2015'
p76
sg15
S'12'
p77
sg17
S'--'
p78
sg18
S'11/29'
p79
sg20
S'2.0'
p80
sg21
S'--'
p81
sg22
S'--'
p82
sg23
S'L14-20'
p83
sg24
S'2'
p84
sg25
g34
sg26
S'@WAS'
p85
sg27
g84
sg28
g48
sg29
S'--'
p86
ssS'15'
p87
(dp88
g5
S'--'
p89
sg7
S'--'
p90
sg8
g48
sg9
S'--'
p91
sg10
g34
sg11
S'Jerome Cunningham'
p92
sg13
S'2015'
p93
sg15
S'15'
p94
sg17
S'--'
p95
sg18
S'12/20'
p96
sg20
S'7.0'
p97
sg21
S'--'
p98
sg22
S'--'
p99
sg23
S'L35-38'
p100
sg24
S'7'
p101
sg25
g34
sg26
S'CAR'
p102
sg27
g101
sg28
g48
sg29
S'--'
p103
ssS'14'
p104
(dp105
g5
S'--'
p106
sg7
S'--'
p107
sg8
g48
sg9
S'--'
p108
sg10
g34
sg11
S'Jerome Cunningham'
p109
sg13
S'2015'
p110
sg15
S'14'
p111
sg17
S'--'
p112
sg18
S'12/14'
p113
sg20
S'--'
p114
sg21
S'--'
p115
sg22
S'--'
p116
sg23
S'W31-24'
p117
sg24
S'--'
p118
sg25
S'--'
p119
sg26
S'@MIA'
p120
sg27
S'--'
p121
sg28
S'--'
p122
sg29
S'--'
p123
ssS'17'
p124
(dp125
g5
S'--'
p126
sg7
S'--'
p127
sg8
g34
sg9
S'--'
p128
sg10
g34
sg11
S'Jerome Cunningham'
p129
sg13
S'2015'
p130
sg15
S'17'
p131
sg17
S'--'
p132
sg18
S'01/03'
p133
sg20
S'--'
p134
sg21
S'--'
p135
sg22
S'--'
p136
sg23
S'L30-35'
p137
sg24
S'--'
p138
sg25
S'--'
p139
sg26
S'PHI'
p140
sg27
S'--'
p141
sg28
S'--'
p142
sg29
S'--'
p143
ssS'16'
p144
(dp145
g5
S'--'
p146
sg7
S'--'
p147
sg8
g48
sg9
S'--'
p148
sg10
g34
sg11
S'Jerome Cunningham'
p149
sg13
S'2015'
p150
sg15
S'16'
p151
sg17
S'--'
p152
sg18
S'12/27'
p153
sg20
S'10.5'
p154
sg21
S'--'
p155
sg22
S'--'
p156
sg23
S'L17-49'
p157
sg24
S'21'
p158
sg25
g84
sg26
S'@MIN'
p159
sg27
S'12'
p160
sg28
g48
sg29
S'--'
p161
ssg34
(dp162
g5
S'--'
p163
sg7
S'--'
p164
sg8
g48
sg9
S'--'
p165
sg10
g48
sg11
S'Jerome Cunningham'
p166
sg13
S'2015'
p167
sg15
g34
sg17
S'--'
p168
sg18
S'09/13'
p169
sg20
S'--'
p170
sg21
S'--'
p171
sg22
S'--'
p172
sg23
S'L26-27'
p173
sg24
S'--'
p174
sg25
S'--'
p175
sg26
S'@DAL'
p176
sg27
S'--'
p177
sg28
S'--'
p178
sg29
S'--'
p179
ssS'3'
p180
(dp181
g5
S'--'
p182
sg7
S'--'
p183
sg8
g48
sg9
S'--'
p184
sg10
g48
sg11
S'Jerome Cunningham'
p185
sg13
S'2015'
p186
sg15
g180
sg17
S'--'
p187
sg18
S'09/24'
p188
sg20
S'--'
p189
sg21
S'--'
p190
sg22
S'--'
p191
sg23
S'W32-21'
p192
sg24
S'--'
p193
sg25
S'--'
p194
sg26
S'WAS'
p195
sg27
S'--'
p196
sg28
S'--'
p197
sg29
S'--'
p198
ssg84
(dp199
g5
S'--'
p200
sg7
S'--'
p201
sg8
g48
sg9
S'--'
p202
sg10
g34
sg11
S'Jerome Cunningham'
p203
sg13
S'2015'
p204
sg15
g84
sg17
S'--'
p205
sg18
S'09/20'
p206
sg20
S'3.0'
p207
sg21
S'--'
p208
sg22
S'--'
p209
sg23
S'L20-24'
p210
sg24
g180
sg25
g34
sg26
S'ATL'
p211
sg27
g180
sg28
g48
sg29
S'--'
p212
ssS'5'
p213
(dp214
g5
S'--'
p215
sg7
S'--'
p216
sg8
g48
sg9
S'--'
p217
sg10
g48
sg11
S'Jerome Cunningham'
p218
sg13
S'2015'
p219
sg15
g213
sg17
S'--'
p220
sg18
S'10/11'
p221
sg20
S'--'
p222
sg21
S'--'
p223
sg22
S'--'
p224
sg23
S'W30-27'
p225
sg24
S'--'
p226
sg25
S'--'
p227
sg26
S'SF'
p228
sg27
S'--'
p229
sg28
S'--'
p230
sg29
S'--'
p231
ssS'4'
p232
(dp233
g5
S'--'
p234
sg7
S'--'
p235
sg8
g48
sg9
S'--'
p236
sg10
g48
sg11
S'Jerome Cunningham'
p237
sg13
S'2015'
p238
sg15
g232
sg17
S'--'
p239
sg18
S'10/04'
p240
sg20
S'--'
p241
sg21
S'--'
p242
sg22
S'--'
p243
sg23
S'W24-10'
p244
sg24
S'--'
p245
sg25
S'--'
p246
sg26
S'@BUF'
p247
sg27
S'--'
p248
sg28
S'--'
p249
sg29
S'--'
p250
ssS'9'
p251
(dp252
g5
S'--'
p253
sg7
S'--'
p254
sg8
g48
sg9
S'--'
p255
sg10
g34
sg11
S'Jerome Cunningham'
p256
sg13
S'2015'
p257
sg15
g251
sg17
S'--'
p258
sg18
S'11/08'
p259
sg20
S'5.0'
p260
sg21
S'--'
p261
sg22
S'--'
p262
sg23
S'W32-18'
p263
sg24
S'10'
p264
sg25
g84
sg26
S'@TB'
p265
sg27
S'6'
p266
sg28
g48
sg29
S'--'
p267
sssS'2014'
p268
(dp269
g124
(dp270
g5
S'--'
p271
sg7
S'--'
p272
sg8
g48
sg9
S'--'
p273
sg10
g48
sg11
S'Jerome Cunningham'
p274
sg13
S'2014'
p275
sg15
S'17'
p276
sg17
S'--'
p277
sg18
S'12/28'
p278
sg20
S'--'
p279
sg21
S'--'
p280
sg22
S'--'
p281
sg23
S'L26-34'
p282
sg24
S'--'
p283
sg25
S'--'
p284
sg26
S'PHI'
p285
sg27
S'--'
p286
sg28
S'--'
p287
sg29
S'--'
p288
ssg144
(dp289
g5
S'--'
p290
sg7
S'--'
p291
sg8
g48
sg9
S'--'
p292
sg10
g48
sg11
S'Jerome Cunningham'
p293
sg13
S'2014'
p294
sg15
S'16'
p295
sg17
S'--'
p296
sg18
S'12/21'
p297
sg20
S'--'
p298
sg21
S'--'
p299
sg22
S'--'
p300
sg23
S'W37-27'
p301
sg24
S'--'
p302
sg25
S'--'
p303
sg26
S'@STL'
p304
sg27
S'--'
p305
sg28
S'--'
p306
sg29
S'--'
p307
sss.