(dp0
S'2015'
p1
(dp2
S'11'
p3
(dp4
S'RushTD'
p5
S''
p6
sS'RushYds'
p7
g6
sS'GS'
p8
g6
sS'Lost'
p9
g6
sS'G'
p10
g6
sS'Player'
p11
S'Jesse James'
p12
sS'Year'
p13
S'2015'
p14
sS'WK'
p15
S'11'
p16
sS'RushAvg'
p17
g6
sS'Game Date'
p18
S'Bye'
p19
sS'RecAvg'
p20
g6
sS'FUM'
p21
g6
sS'RushAtt'
p22
g6
sS'Result'
p23
g6
sS'RecYds'
p24
g6
sS'Rec'
p25
g6
sS'Opp'
p26
g6
sS'RecLng'
p27
g6
sS'RecTD'
p28
g6
sS'RushLng'
p29
g6
ssS'10'
p30
(dp31
g5
S'--'
p32
sg7
S'--'
p33
sg8
S'1'
p34
sg9
S'--'
p35
sg10
g34
sg11
S'Jesse James'
p36
sg13
S'2015'
p37
sg15
S'10'
p38
sg17
S'--'
p39
sg18
S'11/15'
p40
sg20
S'2.0'
p41
sg21
S'--'
p42
sg22
S'--'
p43
sg23
S'W30-9'
p44
sg24
S'2'
p45
sg25
g34
sg26
S'CLE'
p46
sg27
g45
sg28
S'0'
p47
sg29
S'--'
p48
ssS'13'
p49
(dp50
g5
S'--'
p51
sg7
S'--'
p52
sg8
g34
sg9
S'--'
p53
sg10
g34
sg11
S'Jesse James'
p54
sg13
S'2015'
p55
sg15
S'13'
p56
sg17
S'--'
p57
sg18
S'12/06'
p58
sg20
S'10.0'
p59
sg21
S'--'
p60
sg22
S'--'
p61
sg23
S'W45-10'
p62
sg24
S'30'
p63
sg25
S'3'
p64
sg26
S'IND'
p65
sg27
S'20'
p66
sg28
g47
sg29
S'--'
p67
ssS'12'
p68
(dp69
g5
S'--'
p70
sg7
S'--'
p71
sg8
g47
sg9
S'--'
p72
sg10
g34
sg11
S'Jesse James'
p73
sg13
S'2015'
p74
sg15
S'12'
p75
sg17
S'--'
p76
sg18
S'11/29'
p77
sg20
S'8.0'
p78
sg21
S'--'
p79
sg22
S'--'
p80
sg23
S'L30-39'
p81
sg24
S'8'
p82
sg25
g34
sg26
S'@SEA'
p83
sg27
g82
sg28
g47
sg29
S'--'
p84
ssS'15'
p85
(dp86
g5
S'--'
p87
sg7
S'--'
p88
sg8
g47
sg9
S'--'
p89
sg10
g34
sg11
S'Jesse James'
p90
sg13
S'2015'
p91
sg15
S'15'
p92
sg17
S'--'
p93
sg18
S'12/20'
p94
sg20
S'--'
p95
sg21
S'--'
p96
sg22
S'--'
p97
sg23
S'W34-27'
p98
sg24
S'--'
p99
sg25
S'--'
p100
sg26
S'DEN'
p101
sg27
S'--'
p102
sg28
S'--'
p103
sg29
S'--'
p104
ssS'14'
p105
(dp106
g5
S'--'
p107
sg7
S'--'
p108
sg8
g47
sg9
S'--'
p109
sg10
g34
sg11
S'Jesse James'
p110
sg13
S'2015'
p111
sg15
S'14'
p112
sg17
S'--'
p113
sg18
S'12/13'
p114
sg20
S'--'
p115
sg21
S'--'
p116
sg22
S'--'
p117
sg23
S'W33-20'
p118
sg24
S'--'
p119
sg25
S'--'
p120
sg26
S'@CIN'
p121
sg27
S'--'
p122
sg28
S'--'
p123
sg29
S'--'
p124
ssS'17'
p125
(dp126
g5
S'--'
p127
sg7
S'--'
p128
sg8
g47
sg9
S'--'
p129
sg10
g34
sg11
S'Jesse James'
p130
sg13
S'2015'
p131
sg15
S'17'
p132
sg17
S'--'
p133
sg18
S'01/03'
p134
sg20
S'--'
p135
sg21
S'--'
p136
sg22
S'--'
p137
sg23
S'W28-12'
p138
sg24
S'--'
p139
sg25
S'--'
p140
sg26
S'@CLE'
p141
sg27
S'--'
p142
sg28
S'--'
p143
sg29
S'--'
p144
ssS'16'
p145
(dp146
g5
S'--'
p147
sg7
S'--'
p148
sg8
g47
sg9
S'--'
p149
sg10
g34
sg11
S'Jesse James'
p150
sg13
S'2015'
p151
sg15
S'16'
p152
sg17
S'--'
p153
sg18
S'12/27'
p154
sg20
S'3.0'
p155
sg21
S'--'
p156
sg22
S'--'
p157
sg23
S'L17-20'
p158
sg24
g64
sg25
g34
sg26
S'@BAL'
p159
sg27
g64
sg28
g47
sg29
S'--'
p160
ssg34
(dp161
g5
S'--'
p162
sg7
S'--'
p163
sg8
g47
sg9
S'--'
p164
sg10
g47
sg11
S'Jesse James'
p165
sg13
S'2015'
p166
sg15
g34
sg17
S'--'
p167
sg18
S'09/10'
p168
sg20
S'--'
p169
sg21
S'--'
p170
sg22
S'--'
p171
sg23
S'L21-28'
p172
sg24
S'--'
p173
sg25
S'--'
p174
sg26
S'@NE'
p175
sg27
S'--'
p176
sg28
S'--'
p177
sg29
S'--'
p178
ssg64
(dp179
g5
S'--'
p180
sg7
S'--'
p181
sg8
g47
sg9
S'--'
p182
sg10
g47
sg11
S'Jesse James'
p183
sg13
S'2015'
p184
sg15
g64
sg17
S'--'
p185
sg18
S'09/27'
p186
sg20
S'--'
p187
sg21
S'--'
p188
sg22
S'--'
p189
sg23
S'W12-6'
p190
sg24
S'--'
p191
sg25
S'--'
p192
sg26
S'@STL'
p193
sg27
S'--'
p194
sg28
S'--'
p195
sg29
S'--'
p196
ssg45
(dp197
g5
S'--'
p198
sg7
S'--'
p199
sg8
g47
sg9
S'--'
p200
sg10
g47
sg11
S'Jesse James'
p201
sg13
S'2015'
p202
sg15
g45
sg17
S'--'
p203
sg18
S'09/20'
p204
sg20
S'--'
p205
sg21
S'--'
p206
sg22
S'--'
p207
sg23
S'W43-18'
p208
sg24
S'--'
p209
sg25
S'--'
p210
sg26
S'SF'
p211
sg27
S'--'
p212
sg28
S'--'
p213
sg29
S'--'
p214
ssS'5'
p215
(dp216
g5
S'--'
p217
sg7
S'--'
p218
sg8
g47
sg9
S'--'
p219
sg10
g47
sg11
S'Jesse James'
p220
sg13
S'2015'
p221
sg15
g215
sg17
S'--'
p222
sg18
S'10/12'
p223
sg20
S'--'
p224
sg21
S'--'
p225
sg22
S'--'
p226
sg23
S'W24-20'
p227
sg24
S'--'
p228
sg25
S'--'
p229
sg26
S'@SD'
p230
sg27
S'--'
p231
sg28
S'--'
p232
sg29
S'--'
p233
ssS'4'
p234
(dp235
g5
S'--'
p236
sg7
S'--'
p237
sg8
g47
sg9
S'--'
p238
sg10
g47
sg11
S'Jesse James'
p239
sg13
S'2015'
p240
sg15
g234
sg17
S'--'
p241
sg18
S'10/01'
p242
sg20
S'--'
p243
sg21
S'--'
p244
sg22
S'--'
p245
sg23
S'L20-23'
p246
sg24
S'--'
p247
sg25
S'--'
p248
sg26
S'BAL'
p249
sg27
S'--'
p250
sg28
S'--'
p251
sg29
S'--'
p252
ssS'7'
p253
(dp254
g5
S'--'
p255
sg7
S'--'
p256
sg8
g47
sg9
S'--'
p257
sg10
g47
sg11
S'Jesse James'
p258
sg13
S'2015'
p259
sg15
g253
sg17
S'--'
p260
sg18
S'10/25'
p261
sg20
S'--'
p262
sg21
S'--'
p263
sg22
S'--'
p264
sg23
S'L13-23'
p265
sg24
S'--'
p266
sg25
S'--'
p267
sg26
S'@KC'
p268
sg27
S'--'
p269
sg28
S'--'
p270
sg29
S'--'
p271
ssS'6'
p272
(dp273
g5
S'--'
p274
sg7
S'--'
p275
sg8
g47
sg9
S'--'
p276
sg10
g47
sg11
S'Jesse James'
p277
sg13
S'2015'
p278
sg15
g272
sg17
S'--'
p279
sg18
S'10/18'
p280
sg20
S'--'
p281
sg21
S'--'
p282
sg22
S'--'
p283
sg23
S'W25-13'
p284
sg24
S'--'
p285
sg25
S'--'
p286
sg26
S'ARI'
p287
sg27
S'--'
p288
sg28
S'--'
p289
sg29
S'--'
p290
ssS'9'
p291
(dp292
g5
S'--'
p293
sg7
S'--'
p294
sg8
g47
sg9
S'--'
p295
sg10
g34
sg11
S'Jesse James'
p296
sg13
S'2015'
p297
sg15
g291
sg17
S'--'
p298
sg18
S'11/08'
p299
sg20
S'6.5'
p300
sg21
S'--'
p301
sg22
S'--'
p302
sg23
S'W38-35'
p303
sg24
S'13'
p304
sg25
g45
sg26
S'OAK'
p305
sg27
g291
sg28
g34
sg29
S'--'
p306
ssg82
(dp307
g5
S'--'
p308
sg7
S'--'
p309
sg8
g47
sg9
S'--'
p310
sg10
g47
sg11
S'Jesse James'
p311
sg13
S'2015'
p312
sg15
g82
sg17
S'--'
p313
sg18
S'11/01'
p314
sg20
S'--'
p315
sg21
S'--'
p316
sg22
S'--'
p317
sg23
S'L10-16'
p318
sg24
S'--'
p319
sg25
S'--'
p320
sg26
S'CIN'
p321
sg27
S'--'
p322
sg28
S'--'
p323
sg29
S'--'
p324
sss.