(dp0
S'2015'
p1
(dp2
S'11'
p3
(dp4
S'RushTD'
p5
S'--'
p6
sS'RushYds'
p7
S'--'
p8
sS'GS'
p9
S'1'
p10
sS'Lost'
p11
S'--'
p12
sS'G'
p13
g10
sS'Player'
p14
S'Jimmy Graham'
p15
sS'Year'
p16
S'2015'
p17
sS'WK'
p18
S'11'
p19
sS'RushAvg'
p20
S'--'
p21
sS'Game Date'
p22
S'11/22'
p23
sS'RecAvg'
p24
S'13.0'
p25
sS'FUM'
p26
S'--'
p27
sS'RushAtt'
p28
S'--'
p29
sS'Result'
p30
S'W29-13'
p31
sS'RecYds'
p32
S'39'
p33
sS'Rec'
p34
S'3'
p35
sS'Opp'
p36
S'SF'
p37
sS'RecLng'
p38
S'20'
p39
sS'RecTD'
p40
S'0'
p41
sS'RushLng'
p42
S'--'
p43
ssS'10'
p44
(dp45
g5
S'--'
p46
sg7
S'--'
p47
sg9
g10
sg11
S'--'
p48
sg13
g10
sg14
S'Jimmy Graham'
p49
sg16
S'2015'
p50
sg18
S'10'
p51
sg20
S'--'
p52
sg22
S'11/15'
p53
sg24
S'13.7'
p54
sg26
S'--'
p55
sg28
S'--'
p56
sg30
S'L32-39'
p57
sg32
S'41'
p58
sg34
g35
sg36
S'ARI'
p59
sg38
S'30'
p60
sg40
g41
sg42
S'--'
p61
ssS'12'
p62
(dp63
g5
S'--'
p64
sg7
S'--'
p65
sg9
g10
sg11
S'--'
p66
sg13
g10
sg14
S'Jimmy Graham'
p67
sg16
S'2015'
p68
sg18
S'12'
p69
sg20
S'--'
p70
sg22
S'11/29'
p71
sg24
S'18.8'
p72
sg26
S'--'
p73
sg28
S'--'
p74
sg30
S'W39-30'
p75
sg32
S'75'
p76
sg34
S'4'
p77
sg36
S'PIT'
p78
sg38
S'36'
p79
sg40
g41
sg42
S'--'
p80
ssg10
(dp81
g5
S'--'
p82
sg7
S'--'
p83
sg9
g10
sg11
S'--'
p84
sg13
g10
sg14
S'Jimmy Graham'
p85
sg16
S'2015'
p86
sg18
g10
sg20
S'--'
p87
sg22
S'09/13'
p88
sg24
S'8.5'
p89
sg26
S'--'
p90
sg28
S'--'
p91
sg30
S'L31-34'
p92
sg32
S'51'
p93
sg34
S'6'
p94
sg36
S'@STL'
p95
sg38
S'19'
p96
sg40
g10
sg42
S'--'
p97
ssg35
(dp98
g5
S'--'
p99
sg7
S'--'
p100
sg9
g10
sg11
S'--'
p101
sg13
g10
sg14
S'Jimmy Graham'
p102
sg16
S'2015'
p103
sg18
g35
sg20
S'--'
p104
sg22
S'09/27'
p105
sg24
S'11.9'
p106
sg26
S'--'
p107
sg28
S'--'
p108
sg30
S'W26-0'
p109
sg32
S'83'
p110
sg34
S'7'
p111
sg36
S'CHI'
p112
sg38
S'30T'
p113
sg40
g10
sg42
S'--'
p114
ssS'2'
p115
(dp116
g5
S'--'
p117
sg7
S'--'
p118
sg9
g10
sg11
S'--'
p119
sg13
g10
sg14
S'Jimmy Graham'
p120
sg16
S'2015'
p121
sg18
g115
sg20
S'--'
p122
sg22
S'09/20'
p123
sg24
S'11.0'
p124
sg26
S'--'
p125
sg28
S'--'
p126
sg30
S'L17-27'
p127
sg32
S'11'
p128
sg34
g10
sg36
S'@GB'
p129
sg38
S'11'
p130
sg40
g41
sg42
S'--'
p131
ssS'5'
p132
(dp133
g5
S'--'
p134
sg7
S'--'
p135
sg9
g10
sg11
S'--'
p136
sg13
g10
sg14
S'Jimmy Graham'
p137
sg16
S'2015'
p138
sg18
g132
sg20
S'--'
p139
sg22
S'10/11'
p140
sg24
S'10.0'
p141
sg26
S'--'
p142
sg28
S'--'
p143
sg30
S'L24-27'
p144
sg32
S'30'
p145
sg34
g35
sg36
S'@CIN'
p146
sg38
S'22'
p147
sg40
g41
sg42
S'--'
p148
ssg77
(dp149
g5
S'--'
p150
sg7
S'--'
p151
sg9
g10
sg11
S'--'
p152
sg13
g10
sg14
S'Jimmy Graham'
p153
sg16
S'2015'
p154
sg18
g77
sg20
S'--'
p155
sg22
S'10/05'
p156
sg24
S'7.3'
p157
sg26
S'--'
p158
sg28
S'--'
p159
sg30
S'W13-10'
p160
sg32
S'29'
p161
sg34
g77
sg36
S'DET'
p162
sg38
S'13'
p163
sg40
g41
sg42
S'--'
p164
ssg111
(dp165
g5
S'--'
p166
sg7
S'--'
p167
sg9
g10
sg11
S'--'
p168
sg13
g10
sg14
S'Jimmy Graham'
p169
sg16
S'2015'
p170
sg18
g111
sg20
S'--'
p171
sg22
S'10/22'
p172
sg24
S'15.5'
p173
sg26
S'--'
p174
sg28
S'--'
p175
sg30
S'W20-3'
p176
sg32
S'31'
p177
sg34
g115
sg36
S'@SF'
p178
sg38
S'23'
p179
sg40
g41
sg42
S'--'
p180
ssg94
(dp181
g5
S'--'
p182
sg7
S'--'
p183
sg9
g10
sg11
S'--'
p184
sg13
g10
sg14
S'Jimmy Graham'
p185
sg16
S'2015'
p186
sg18
g94
sg20
S'--'
p187
sg22
S'10/18'
p188
sg24
S'17.5'
p189
sg26
S'--'
p190
sg28
S'--'
p191
sg30
S'L23-27'
p192
sg32
S'140'
p193
sg34
S'8'
p194
sg36
S'CAR'
p195
sg38
S'45'
p196
sg40
g41
sg42
S'--'
p197
ssS'9'
p198
(dp199
g5
S''
p200
sg7
g200
sg9
g200
sg11
g200
sg13
g200
sg14
S'Jimmy Graham'
p201
sg16
S'2015'
p202
sg18
g198
sg20
g200
sg22
S'Bye'
p203
sg24
g200
sg26
g200
sg28
g200
sg30
g200
sg32
g200
sg34
g200
sg36
g200
sg38
g200
sg40
g200
sg42
g200
ssg194
(dp204
g5
S'--'
p205
sg7
S'--'
p206
sg9
g10
sg11
S'--'
p207
sg13
g10
sg14
S'Jimmy Graham'
p208
sg16
S'2015'
p209
sg18
g194
sg20
S'--'
p210
sg22
S'11/01'
p211
sg24
S'10.7'
p212
sg26
S'--'
p213
sg28
S'--'
p214
sg30
S'W13-12'
p215
sg32
S'75'
p216
sg34
g111
sg36
S'@DAL'
p217
sg38
S'19'
p218
sg40
g41
sg42
S'--'
p219
sssS'2014'
p220
(dp221
g3
(dp222
g5
S'--'
p223
sg7
S'--'
p224
sg9
g10
sg11
S'--'
p225
sg13
g10
sg14
S'Jimmy Graham'
p226
sg16
S'2014'
p227
sg18
S'11'
p228
sg20
S'--'
p229
sg22
S'11/16'
p230
sg24
S'9.7'
p231
sg26
S'--'
p232
sg28
S'--'
p233
sg30
S'L10-27'
p234
sg32
S'29'
p235
sg34
g35
sg36
S'CIN'
p236
sg38
S'13'
p237
sg40
g41
sg42
S'--'
p238
ssg44
(dp239
g5
S'--'
p240
sg7
S'--'
p241
sg9
g10
sg11
S'--'
p242
sg13
g10
sg14
S'Jimmy Graham'
p243
sg16
S'2014'
p244
sg18
S'10'
p245
sg20
S'--'
p246
sg22
S'11/09'
p247
sg24
S'7.6'
p248
sg26
S'--'
p249
sg28
S'--'
p250
sg30
S'L24-27'
p251
sg32
S'76'
p252
sg34
S'10'
p253
sg36
S'SF'
p254
sg38
S'15'
p255
sg40
g115
sg42
S'--'
p256
ssS'13'
p257
(dp258
g5
S'--'
p259
sg7
S'--'
p260
sg9
g10
sg11
S'--'
p261
sg13
g10
sg14
S'Jimmy Graham'
p262
sg16
S'2014'
p263
sg18
S'13'
p264
sg20
S'--'
p265
sg22
S'11/30'
p266
sg24
S'--'
p267
sg26
S'--'
p268
sg28
S'--'
p269
sg30
S'W35-32'
p270
sg32
S'--'
p271
sg34
S'--'
p272
sg36
S'@PIT'
p273
sg38
S'--'
p274
sg40
S'--'
p275
sg42
S'--'
p276
ssg62
(dp277
g5
S'--'
p278
sg7
S'--'
p279
sg9
g10
sg11
S'--'
p280
sg13
g10
sg14
S'Jimmy Graham'
p281
sg16
S'2014'
p282
sg18
S'12'
p283
sg20
S'--'
p284
sg22
S'11/24'
p285
sg24
S'7.8'
p286
sg26
S'--'
p287
sg28
S'--'
p288
sg30
S'L27-34'
p289
sg32
S'47'
p290
sg34
g94
sg36
S'BAL'
p291
sg38
S'11'
p292
sg40
g115
sg42
S'--'
p293
ssS'15'
p294
(dp295
g5
S'--'
p296
sg7
S'--'
p297
sg9
g41
sg11
S'--'
p298
sg13
g10
sg14
S'Jimmy Graham'
p299
sg16
S'2014'
p300
sg18
S'15'
p301
sg20
S'--'
p302
sg22
S'12/15'
p303
sg24
S'17.4'
p304
sg26
S'--'
p305
sg28
S'--'
p306
sg30
S'W31-15'
p307
sg32
S'87'
p308
sg34
g132
sg36
S'@CHI'
p309
sg38
S'29'
p310
sg40
g41
sg42
S'--'
p311
ssS'14'
p312
(dp313
g5
S'--'
p314
sg7
S'--'
p315
sg9
g10
sg11
S'--'
p316
sg13
g10
sg14
S'Jimmy Graham'
p317
sg16
S'2014'
p318
sg18
S'14'
p319
sg20
S'--'
p320
sg22
S'12/07'
p321
sg24
S'8.3'
p322
sg26
S'--'
p323
sg28
S'--'
p324
sg30
S'L10-41'
p325
sg32
S'25'
p326
sg34
g35
sg36
S'CAR'
p327
sg38
S'10'
p328
sg40
g41
sg42
S'--'
p329
ssS'17'
p330
(dp331
g5
S'--'
p332
sg7
S'--'
p333
sg9
g10
sg11
S'--'
p334
sg13
g10
sg14
S'Jimmy Graham'
p335
sg16
S'2014'
p336
sg18
S'17'
p337
sg20
S'--'
p338
sg22
S'12/28'
p339
sg24
S'9.0'
p340
sg26
S'--'
p341
sg28
S'--'
p342
sg30
S'W23-20'
p343
sg32
S'54'
p344
sg34
g94
sg36
S'@TB'
p345
sg38
S'14'
p346
sg40
g41
sg42
S'--'
p347
ssS'16'
p348
(dp349
g5
S'--'
p350
sg7
S'--'
p351
sg9
g10
sg11
g10
sg13
g10
sg14
S'Jimmy Graham'
p352
sg16
S'2014'
p353
sg18
S'16'
p354
sg20
S'--'
p355
sg22
S'12/21'
p356
sg24
S'8.8'
p357
sg26
g10
sg28
S'--'
p358
sg30
S'L14-30'
p359
sg32
S'53'
p360
sg34
g94
sg36
S'ATL'
p361
sg38
S'15'
p362
sg40
g10
sg42
S'--'
p363
ssg10
(dp364
g5
S'--'
p365
sg7
S'--'
p366
sg9
g10
sg11
S'--'
p367
sg13
g10
sg14
S'Jimmy Graham'
p368
sg16
S'2014'
p369
sg18
g10
sg20
S'--'
p370
sg22
S'09/07'
p371
sg24
S'10.3'
p372
sg26
S'--'
p373
sg28
S'--'
p374
sg30
S'L34-37'
p375
sg32
S'82'
p376
sg34
g194
sg36
S'@ATL'
p377
sg38
S'17'
p378
sg40
g41
sg42
S'--'
p379
ssg35
(dp380
g5
S'--'
p381
sg7
S'--'
p382
sg9
g41
sg11
S'--'
p383
sg13
g10
sg14
S'Jimmy Graham'
p384
sg16
S'2014'
p385
sg18
g35
sg20
S'--'
p386
sg22
S'09/21'
p387
sg24
S'9.0'
p388
sg26
S'--'
p389
sg28
S'--'
p390
sg30
S'W20-9'
p391
sg32
S'54'
p392
sg34
g94
sg36
S'MIN'
p393
sg38
S'15'
p394
sg40
g41
sg42
S'--'
p395
ssg115
(dp396
g5
S'--'
p397
sg7
S'--'
p398
sg9
g10
sg11
S'--'
p399
sg13
g10
sg14
S'Jimmy Graham'
p400
sg16
S'2014'
p401
sg18
g115
sg20
S'--'
p402
sg22
S'09/14'
p403
sg24
S'11.8'
p404
sg26
S'--'
p405
sg28
S'--'
p406
sg30
S'L24-26'
p407
sg32
S'118'
p408
sg34
S'10'
p409
sg36
S'@CLE'
p410
sg38
S'23'
p411
sg40
g115
sg42
S'--'
p412
ssg132
(dp413
g5
S'--'
p414
sg7
S'--'
p415
sg9
g10
sg11
S'--'
p416
sg13
g10
sg14
S'Jimmy Graham'
p417
sg16
S'2014'
p418
sg18
g132
sg20
S'--'
p419
sg22
S'10/05'
p420
sg24
S'18.0'
p421
sg26
S'--'
p422
sg28
S'--'
p423
sg30
S'W37-31'
p424
sg32
S'36'
p425
sg34
g115
sg36
S'TB'
p426
sg38
S'23'
p427
sg40
g41
sg42
S'--'
p428
ssg77
(dp429
g5
S'--'
p430
sg7
S'--'
p431
sg9
g10
sg11
g10
sg13
g10
sg14
S'Jimmy Graham'
p432
sg16
S'2014'
p433
sg18
g77
sg20
S'--'
p434
sg22
S'09/28'
p435
sg24
S'10.8'
p436
sg26
g10
sg28
S'--'
p437
sg30
S'L17-38'
p438
sg32
S'86'
p439
sg34
g194
sg36
S'@DAL'
p440
sg38
S'17'
p441
sg40
g10
sg42
S'--'
p442
ssg111
(dp443
g5
S'--'
p444
sg7
S'--'
p445
sg9
g41
sg11
S'--'
p446
sg13
g10
sg14
S'Jimmy Graham'
p447
sg16
S'2014'
p448
sg18
g111
sg20
S'--'
p449
sg22
S'10/19'
p450
sg24
S'--'
p451
sg26
S'--'
p452
sg28
S'--'
p453
sg30
S'L23-24'
p454
sg32
g41
sg34
g41
sg36
S'@DET'
p455
sg38
S'--'
p456
sg40
g41
sg42
S'--'
p457
ssg94
(dp458
g5
g200
sg7
g200
sg9
g200
sg11
g200
sg13
g200
sg14
S'Jimmy Graham'
p459
sg16
S'2014'
p460
sg18
g94
sg20
g200
sg22
S'Bye'
p461
sg24
g200
sg26
g200
sg28
g200
sg30
g200
sg32
g200
sg34
g200
sg36
g200
sg38
g200
sg40
g200
sg42
g200
ssg198
(dp462
g5
S'--'
p463
sg7
S'--'
p464
sg9
g10
sg11
S'--'
p465
sg13
g10
sg14
S'Jimmy Graham'
p466
sg16
S'2014'
p467
sg18
g198
sg20
S'--'
p468
sg22
S'10/30'
p469
sg24
S'11.9'
p470
sg26
S'--'
p471
sg28
S'--'
p472
sg30
S'W28-10'
p473
sg32
S'83'
p474
sg34
g111
sg36
S'@CAR'
p475
sg38
S'27'
p476
sg40
g10
sg42
S'--'
p477
ssg194
(dp478
g5
S'--'
p479
sg7
S'--'
p480
sg9
g10
sg11
S'--'
p481
sg13
g10
sg14
S'Jimmy Graham'
p482
sg16
S'2014'
p483
sg18
g194
sg20
S'--'
p484
sg22
S'10/26'
p485
sg24
S'11.8'
p486
sg26
S'--'
p487
sg28
S'--'
p488
sg30
S'W44-23'
p489
sg32
S'59'
p490
sg34
g132
sg36
S'GB'
p491
sg38
S'22T'
p492
sg40
g10
sg42
S'--'
p493
sssS'2011'
p494
(dp495
g3
(dp496
g5
g200
sg7
g200
sg9
g200
sg11
g200
sg13
g200
sg14
S'Jimmy Graham'
p497
sg16
S'2011'
p498
sg18
S'11'
p499
sg20
g200
sg22
S'Bye'
p500
sg24
g200
sg26
g200
sg28
g200
sg30
g200
sg32
g200
sg34
g200
sg36
g200
sg38
g200
sg40
g200
sg42
g200
ssg44
(dp501
g5
S'--'
p502
sg7
S'--'
p503
sg9
g41
sg11
S'--'
p504
sg13
g10
sg14
S'Jimmy Graham'
p505
sg16
S'2011'
p506
sg18
S'10'
p507
sg20
S'--'
p508
sg22
S'11/13'
p509
sg24
S'11.7'
p510
sg26
S'--'
p511
sg28
S'--'
p512
sg30
S'W26-23'
p513
sg32
S'82'
p514
sg34
g111
sg36
S'@ATL'
p515
sg38
S'29'
p516
sg40
g10
sg42
S'--'
p517
ssg257
(dp518
g5
S'--'
p519
sg7
S'--'
p520
sg9
g10
sg11
S'--'
p521
sg13
g10
sg14
S'Jimmy Graham'
p522
sg16
S'2011'
p523
sg18
S'13'
p524
sg20
S'--'
p525
sg22
S'12/04'
p526
sg24
S'11.1'
p527
sg26
S'--'
p528
sg28
S'--'
p529
sg30
S'W31-17'
p530
sg32
S'89'
p531
sg34
g194
sg36
S'DET'
p532
sg38
S'16'
p533
sg40
g41
sg42
S'--'
p534
ssg62
(dp535
g5
S'--'
p536
sg7
S'--'
p537
sg9
g10
sg11
S'--'
p538
sg13
g10
sg14
S'Jimmy Graham'
p539
sg16
S'2011'
p540
sg18
S'12'
p541
sg20
S'--'
p542
sg22
S'11/28'
p543
sg24
S'16.8'
p544
sg26
S'--'
p545
sg28
S'--'
p546
sg30
S'W49-24'
p547
sg32
S'84'
p548
sg34
g132
sg36
S'NYG'
p549
sg38
S'29T'
p550
sg40
g115
sg42
S'--'
p551
ssg294
(dp552
g5
S'--'
p553
sg7
S'--'
p554
sg9
g10
sg11
g10
sg13
g10
sg14
S'Jimmy Graham'
p555
sg16
S'2011'
p556
sg18
S'15'
p557
sg20
S'--'
p558
sg22
S'12/18'
p559
sg24
S'10.0'
p560
sg26
g10
sg28
S'--'
p561
sg30
S'W42-20'
p562
sg32
S'70'
p563
sg34
g111
sg36
S'@MIN'
p564
sg38
S'18'
p565
sg40
g10
sg42
S'--'
p566
ssg312
(dp567
g5
S'--'
p568
sg7
S'--'
p569
sg9
g41
sg11
S'--'
p570
sg13
g10
sg14
S'Jimmy Graham'
p571
sg16
S'2011'
p572
sg18
S'14'
p573
sg20
S'--'
p574
sg22
S'12/11'
p575
sg24
S'11.0'
p576
sg26
S'--'
p577
sg28
S'--'
p578
sg30
S'W22-17'
p579
sg32
S'55'
p580
sg34
g132
sg36
S'@TEN'
p581
sg38
S'33'
p582
sg40
g41
sg42
S'--'
p583
ssg330
(dp584
g5
S'--'
p585
sg7
S'--'
p586
sg9
g10
sg11
S'--'
p587
sg13
g10
sg14
S'Jimmy Graham'
p588
sg16
S'2011'
p589
sg18
S'17'
p590
sg20
S'--'
p591
sg22
S'01/01'
p592
sg24
S'12.1'
p593
sg26
S'--'
p594
sg28
S'--'
p595
sg30
S'W45-17'
p596
sg32
S'97'
p597
sg34
g194
sg36
S'CAR'
p598
sg38
S'29'
p599
sg40
g10
sg42
S'--'
p600
ssg348
(dp601
g5
S'--'
p602
sg7
S'--'
p603
sg9
g41
sg11
S'--'
p604
sg13
g10
sg14
S'Jimmy Graham'
p605
sg16
S'2011'
p606
sg18
S'16'
p607
sg20
S'--'
p608
sg22
S'12/26'
p609
sg24
S'10.5'
p610
sg26
S'--'
p611
sg28
S'--'
p612
sg30
S'W45-16'
p613
sg32
S'42'
p614
sg34
g77
sg36
S'ATL'
p615
sg38
S'17'
p616
sg40
g10
sg42
S'--'
p617
ssg10
(dp618
g5
S'--'
p619
sg7
S'--'
p620
sg9
g10
sg11
S'--'
p621
sg13
g10
sg14
S'Jimmy Graham'
p622
sg16
S'2011'
p623
sg18
g10
sg20
S'--'
p624
sg22
S'09/08'
p625
sg24
S'14.0'
p626
sg26
S'--'
p627
sg28
S'--'
p628
sg30
S'L34-42'
p629
sg32
S'56'
p630
sg34
g77
sg36
S'@GB'
p631
sg38
S'21'
p632
sg40
g10
sg42
S'--'
p633
ssg35
(dp634
g5
S'--'
p635
sg7
S'--'
p636
sg9
g10
sg11
S'--'
p637
sg13
g10
sg14
S'Jimmy Graham'
p638
sg16
S'2011'
p639
sg18
g35
sg20
S'--'
p640
sg22
S'09/25'
p641
sg24
S'25.0'
p642
sg26
S'--'
p643
sg28
S'--'
p644
sg30
S'W40-33'
p645
sg32
S'100'
p646
sg34
g77
sg36
S'HOU'
p647
sg38
S'32'
p648
sg40
g10
sg42
S'--'
p649
ssg115
(dp650
g5
S'--'
p651
sg7
S'--'
p652
sg9
g10
sg11
S'--'
p653
sg13
g10
sg14
S'Jimmy Graham'
p654
sg16
S'2011'
p655
sg18
g115
sg20
S'--'
p656
sg22
S'09/18'
p657
sg24
S'13.2'
p658
sg26
S'--'
p659
sg28
S'--'
p660
sg30
S'W30-13'
p661
sg32
S'79'
p662
sg34
g94
sg36
S'CHI'
p663
sg38
S'31'
p664
sg40
g41
sg42
S'--'
p665
ssg132
(dp666
g5
S'--'
p667
sg7
S'--'
p668
sg9
g10
sg11
S'--'
p669
sg13
g10
sg14
S'Jimmy Graham'
p670
sg16
S'2011'
p671
sg18
g132
sg20
S'--'
p672
sg22
S'10/09'
p673
sg24
S'16.1'
p674
sg26
S'--'
p675
sg28
S'--'
p676
sg30
S'W30-27'
p677
sg32
S'129'
p678
sg34
g194
sg36
S'@CAR'
p679
sg38
S'30'
p680
sg40
g41
sg42
S'--'
p681
ssg77
(dp682
g5
S'--'
p683
sg7
S'--'
p684
sg9
g10
sg11
S'--'
p685
sg13
g10
sg14
S'Jimmy Graham'
p686
sg16
S'2011'
p687
sg18
g77
sg20
S'--'
p688
sg22
S'10/02'
p689
sg24
S'13.2'
p690
sg26
S'--'
p691
sg28
S'--'
p692
sg30
S'W23-10'
p693
sg32
S'132'
p694
sg34
S'10'
p695
sg36
S'@JAC'
p696
sg38
S'59'
p697
sg40
g10
sg42
S'--'
p698
ssg111
(dp699
g5
S'--'
p700
sg7
S'--'
p701
sg9
g10
sg11
S'--'
p702
sg13
g10
sg14
S'Jimmy Graham'
p703
sg16
S'2011'
p704
sg18
g111
sg20
S'--'
p705
sg22
S'10/23'
p706
sg24
S'9.0'
p707
sg26
S'--'
p708
sg28
S'--'
p709
sg30
S'W62-7'
p710
sg32
S'54'
p711
sg34
g94
sg36
S'IND'
p712
sg38
S'16'
p713
sg40
g115
sg42
S'--'
p714
ssg94
(dp715
g5
S'--'
p716
sg7
S'--'
p717
sg9
g41
sg11
S'--'
p718
sg13
g10
sg14
S'Jimmy Graham'
p719
sg16
S'2011'
p720
sg18
g94
sg20
S'--'
p721
sg22
S'10/16'
p722
sg24
S'17.7'
p723
sg26
S'--'
p724
sg28
S'--'
p725
sg30
S'L20-26'
p726
sg32
S'124'
p727
sg34
g111
sg36
S'@TB'
p728
sg38
S'43'
p729
sg40
g41
sg42
S'--'
p730
ssg198
(dp731
g5
S'--'
p732
sg7
S'--'
p733
sg9
g41
sg11
S'--'
p734
sg13
g10
sg14
S'Jimmy Graham'
p735
sg16
S'2011'
p736
sg18
g198
sg20
S'--'
p737
sg22
S'11/06'
p738
sg24
S'13.0'
p739
sg26
S'--'
p740
sg28
S'--'
p741
sg30
S'W27-16'
p742
sg32
S'78'
p743
sg34
g94
sg36
S'TB'
p744
sg38
S'23'
p745
sg40
g41
sg42
S'--'
p746
ssg194
(dp747
g5
S'--'
p748
sg7
S'--'
p749
sg9
g10
sg11
S'--'
p750
sg13
g10
sg14
S'Jimmy Graham'
p751
sg16
S'2011'
p752
sg18
g194
sg20
S'--'
p753
sg22
S'10/30'
p754
sg24
S'9.8'
p755
sg26
S'--'
p756
sg28
S'--'
p757
sg30
S'L21-31'
p758
sg32
S'39'
p759
sg34
g77
sg36
S'@STL'
p760
sg38
S'13'
p761
sg40
g41
sg42
S'--'
p762
sssS'2010'
p763
(dp764
g3
(dp765
g5
S'--'
p766
sg7
S'--'
p767
sg9
g41
sg11
S'--'
p768
sg13
g10
sg14
S'Jimmy Graham'
p769
sg16
S'2010'
p770
sg18
S'11'
p771
sg20
S'--'
p772
sg22
S'11/21'
p773
sg24
S'14.4'
p774
sg26
S'--'
p775
sg28
S'--'
p776
sg30
S'W34-19'
p777
sg32
S'72'
p778
sg34
g132
sg36
S'SEA'
p779
sg38
S'27'
p780
sg40
g41
sg42
S'--'
p781
ssg44
(dp782
g5
g200
sg7
g200
sg9
g200
sg11
g200
sg13
g200
sg14
S'Jimmy Graham'
p783
sg16
S'2010'
p784
sg18
S'10'
p785
sg20
g200
sg22
S'Bye'
p786
sg24
g200
sg26
g200
sg28
g200
sg30
g200
sg32
g200
sg34
g200
sg36
g200
sg38
g200
sg40
g200
sg42
g200
ssg257
(dp787
g5
S'--'
p788
sg7
S'--'
p789
sg9
g41
sg11
S'--'
p790
sg13
g10
sg14
S'Jimmy Graham'
p791
sg16
S'2010'
p792
sg18
S'13'
p793
sg20
S'--'
p794
sg22
S'12/05'
p795
sg24
S'24.0'
p796
sg26
S'--'
p797
sg28
S'--'
p798
sg30
S'W34-30'
p799
sg32
S'72'
p800
sg34
g35
sg36
S'@CIN'
p801
sg38
S'52'
p802
sg40
g41
sg42
S'--'
p803
ssg62
(dp804
g5
S'--'
p805
sg7
S'--'
p806
sg9
g10
sg11
S'--'
p807
sg13
g10
sg14
S'Jimmy Graham'
p808
sg16
S'2010'
p809
sg18
S'12'
p810
sg20
S'--'
p811
sg22
S'11/25'
p812
sg24
S'7.7'
p813
sg26
S'--'
p814
sg28
S'--'
p815
sg30
S'W30-27'
p816
sg32
S'23'
p817
sg34
g35
sg36
S'@DAL'
p818
sg38
S'14'
p819
sg40
g41
sg42
S'--'
p820
ssg294
(dp821
g5
S'--'
p822
sg7
S'--'
p823
sg9
g41
sg11
S'--'
p824
sg13
g10
sg14
S'Jimmy Graham'
p825
sg16
S'2010'
p826
sg18
S'15'
p827
sg20
S'--'
p828
sg22
S'12/19'
p829
sg24
S'5.8'
p830
sg26
S'--'
p831
sg28
S'--'
p832
sg30
S'L24-30'
p833
sg32
S'29'
p834
sg34
g132
sg36
S'@BAL'
p835
sg38
S'18T'
p836
sg40
g115
sg42
S'--'
p837
ssg312
(dp838
g5
S'--'
p839
sg7
S'--'
p840
sg9
g41
sg11
S'--'
p841
sg13
g10
sg14
S'Jimmy Graham'
p842
sg16
S'2010'
p843
sg18
S'14'
p844
sg20
S'--'
p845
sg22
S'12/12'
p846
sg24
S'21.0'
p847
sg26
S'--'
p848
sg28
S'--'
p849
sg30
S'W31-13'
p850
sg32
S'21'
p851
sg34
g10
sg36
S'STL'
p852
sg38
S'21'
p853
sg40
g41
sg42
S'--'
p854
ssg330
(dp855
g5
S'--'
p856
sg7
S'--'
p857
sg9
g10
sg11
S'--'
p858
sg13
g10
sg14
S'Jimmy Graham'
p859
sg16
S'2010'
p860
sg18
S'17'
p861
sg20
S'--'
p862
sg22
S'01/02'
p863
sg24
S'7.5'
p864
sg26
S'--'
p865
sg28
S'--'
p866
sg30
S'L13-23'
p867
sg32
S'15'
p868
sg34
g115
sg36
S'TB'
p869
sg38
S'11'
p870
sg40
g10
sg42
S'--'
p871
ssg348
(dp872
g5
S'--'
p873
sg7
S'--'
p874
sg9
g10
sg11
S'--'
p875
sg13
g10
sg14
S'Jimmy Graham'
p876
sg16
S'2010'
p877
sg18
S'16'
p878
sg20
S'--'
p879
sg22
S'12/27'
p880
sg24
S'6.5'
p881
sg26
S'--'
p882
sg28
S'--'
p883
sg30
S'W17-14'
p884
sg32
S'26'
p885
sg34
g77
sg36
S'@ATL'
p886
sg38
S'10'
p887
sg40
g10
sg42
S'--'
p888
ssg10
(dp889
g5
S'--'
p890
sg7
S'--'
p891
sg9
g41
sg11
S'--'
p892
sg13
g41
sg14
S'Jimmy Graham'
p893
sg16
S'2010'
p894
sg18
g10
sg20
S'--'
p895
sg22
S'09/09'
p896
sg24
S'--'
p897
sg26
S'--'
p898
sg28
S'--'
p899
sg30
S'W14-9'
p900
sg32
S'--'
p901
sg34
S'--'
p902
sg36
S'MIN'
p903
sg38
S'--'
p904
sg40
S'--'
p905
sg42
S'--'
p906
ssg35
(dp907
g5
S'--'
p908
sg7
S'--'
p909
sg9
g41
sg11
S'--'
p910
sg13
g10
sg14
S'Jimmy Graham'
p911
sg16
S'2010'
p912
sg18
g35
sg20
S'--'
p913
sg22
S'09/26'
p914
sg24
S'--'
p915
sg26
S'--'
p916
sg28
S'--'
p917
sg30
S'L24-27'
p918
sg32
g41
sg34
g41
sg36
S'ATL'
p919
sg38
S'--'
p920
sg40
g41
sg42
S'--'
p921
ssg115
(dp922
g5
S'--'
p923
sg7
S'--'
p924
sg9
g41
sg11
S'--'
p925
sg13
g10
sg14
S'Jimmy Graham'
p926
sg16
S'2010'
p927
sg18
g115
sg20
S'--'
p928
sg22
S'09/20'
p929
sg24
S'--'
p930
sg26
S'--'
p931
sg28
S'--'
p932
sg30
S'W25-22'
p933
sg32
S'--'
p934
sg34
S'--'
p935
sg36
S'@SF'
p936
sg38
S'--'
p937
sg40
S'--'
p938
sg42
S'--'
p939
ssg132
(dp940
g5
S'--'
p941
sg7
S'--'
p942
sg9
g10
sg11
S'--'
p943
sg13
g10
sg14
S'Jimmy Graham'
p944
sg16
S'2010'
p945
sg18
g132
sg20
S'--'
p946
sg22
S'10/10'
p947
sg24
S'--'
p948
sg26
S'--'
p949
sg28
S'--'
p950
sg30
S'L20-30'
p951
sg32
S'--'
p952
sg34
S'--'
p953
sg36
S'@ARI'
p954
sg38
S'--'
p955
sg40
S'--'
p956
sg42
S'--'
p957
ssg77
(dp958
g5
g41
sg7
g35
sg9
g41
sg11
S'--'
p959
sg13
g10
sg14
S'Jimmy Graham'
p960
sg16
S'2010'
p961
sg18
g77
sg20
S'3.0'
p962
sg22
S'10/03'
p963
sg24
S'--'
p964
sg26
S'--'
p965
sg28
g10
sg30
S'W16-14'
p966
sg32
S'--'
p967
sg34
S'--'
p968
sg36
S'CAR'
p969
sg38
S'--'
p970
sg40
S'--'
p971
sg42
g35
ssg111
(dp972
g5
S'--'
p973
sg7
S'--'
p974
sg9
g41
sg11
S'--'
p975
sg13
g10
sg14
S'Jimmy Graham'
p976
sg16
S'2010'
p977
sg18
g111
sg20
S'--'
p978
sg22
S'10/24'
p979
sg24
S'9.5'
p980
sg26
S'--'
p981
sg28
S'--'
p982
sg30
S'L17-30'
p983
sg32
S'38'
p984
sg34
g77
sg36
S'CLE'
p985
sg38
S'14'
p986
sg40
g41
sg42
S'--'
p987
ssg94
(dp988
g5
S'--'
p989
sg7
S'--'
p990
sg9
g41
sg11
g41
sg13
g10
sg14
S'Jimmy Graham'
p991
sg16
S'2010'
p992
sg18
g94
sg20
S'--'
p993
sg22
S'10/17'
p994
sg24
S'11.0'
p995
sg26
g10
sg28
S'--'
p996
sg30
S'W31-6'
p997
sg32
S'11'
p998
sg34
g10
sg36
S'@TB'
p999
sg38
S'11'
p1000
sg40
g41
sg42
S'--'
p1001
ssg198
(dp1002
g5
S'--'
p1003
sg7
S'--'
p1004
sg9
g10
sg11
S'--'
p1005
sg13
g10
sg14
S'Jimmy Graham'
p1006
sg16
S'2010'
p1007
sg18
g198
sg20
S'--'
p1008
sg22
S'11/07'
p1009
sg24
S'16.3'
p1010
sg26
S'--'
p1011
sg28
S'--'
p1012
sg30
S'W34-3'
p1013
sg32
S'49'
p1014
sg34
g35
sg36
S'@CAR'
p1015
sg38
S'19T'
p1016
sg40
g10
sg42
S'--'
p1017
ssg194
(dp1018
g5
S'--'
p1019
sg7
S'--'
p1020
sg9
g41
sg11
S'--'
p1021
sg13
g10
sg14
S'Jimmy Graham'
p1022
sg16
S'2010'
p1023
sg18
g194
sg20
S'--'
p1024
sg22
S'10/31'
p1025
sg24
S'--'
p1026
sg26
S'--'
p1027
sg28
S'--'
p1028
sg30
S'W20-10'
p1029
sg32
S'--'
p1030
sg34
S'--'
p1031
sg36
S'PIT'
p1032
sg38
S'--'
p1033
sg40
S'--'
p1034
sg42
S'--'
p1035
sssS'2013'
p1036
(dp1037
g3
(dp1038
g5
S'--'
p1039
sg7
S'--'
p1040
sg9
g10
sg11
S'--'
p1041
sg13
g10
sg14
S'Jimmy Graham'
p1042
sg16
S'2013'
p1043
sg18
S'11'
p1044
sg20
S'--'
p1045
sg22
S'11/17'
p1046
sg24
S'6.8'
p1047
sg26
S'--'
p1048
sg28
S'--'
p1049
sg30
S'W23-20'
p1050
sg32
S'41'
p1051
sg34
g94
sg36
S'SF'
p1052
sg38
S'13'
p1053
sg40
g41
sg42
S'--'
p1054
ssg44
(dp1055
g5
S'--'
p1056
sg7
S'--'
p1057
sg9
g41
sg11
S'--'
p1058
sg13
g10
sg14
S'Jimmy Graham'
p1059
sg16
S'2013'
p1060
sg18
S'10'
p1061
sg20
S'--'
p1062
sg22
S'11/10'
p1063
sg24
S'11.8'
p1064
sg26
S'--'
p1065
sg28
S'--'
p1066
sg30
S'W49-17'
p1067
sg32
S'59'
p1068
sg34
g132
sg36
S'DAL'
p1069
sg38
S'26'
p1070
sg40
g41
sg42
S'--'
p1071
ssg257
(dp1072
g5
S'--'
p1073
sg7
S'--'
p1074
sg9
g41
sg11
S'--'
p1075
sg13
g10
sg14
S'Jimmy Graham'
p1076
sg16
S'2013'
p1077
sg18
S'13'
p1078
sg20
S'--'
p1079
sg22
S'12/02'
p1080
sg24
S'14.0'
p1081
sg26
S'--'
p1082
sg28
S'--'
p1083
sg30
S'L7-34'
p1084
sg32
S'42'
p1085
sg34
g35
sg36
S'@SEA'
p1086
sg38
S'20'
p1087
sg40
g10
sg42
S'--'
p1088
ssg62
(dp1089
g5
S'--'
p1090
sg7
S'--'
p1091
sg9
g10
sg11
S'--'
p1092
sg13
g10
sg14
S'Jimmy Graham'
p1093
sg16
S'2013'
p1094
sg18
S'12'
p1095
sg20
S'--'
p1096
sg22
S'11/21'
p1097
sg24
S'20.0'
p1098
sg26
S'--'
p1099
sg28
S'--'
p1100
sg30
S'W17-13'
p1101
sg32
S'100'
p1102
sg34
g132
sg36
S'@ATL'
p1103
sg38
S'44T'
p1104
sg40
g10
sg42
S'--'
p1105
ssg294
(dp1106
g5
S'--'
p1107
sg7
S'--'
p1108
sg9
g10
sg11
S'--'
p1109
sg13
g10
sg14
S'Jimmy Graham'
p1110
sg16
S'2013'
p1111
sg18
S'15'
p1112
sg20
S'--'
p1113
sg22
S'12/15'
p1114
sg24
S'12.5'
p1115
sg26
S'--'
p1116
sg28
S'--'
p1117
sg30
S'L16-27'
p1118
sg32
S'25'
p1119
sg34
g115
sg36
S'@STL'
p1120
sg38
S'13'
p1121
sg40
g41
sg42
S'--'
p1122
ssg312
(dp1123
g5
S'--'
p1124
sg7
S'--'
p1125
sg9
g41
sg11
S'--'
p1126
sg13
g10
sg14
S'Jimmy Graham'
p1127
sg16
S'2013'
p1128
sg18
S'14'
p1129
sg20
S'--'
p1130
sg22
S'12/08'
p1131
sg24
S'9.7'
p1132
sg26
S'--'
p1133
sg28
S'--'
p1134
sg30
S'W31-13'
p1135
sg32
S'58'
p1136
sg34
g94
sg36
S'CAR'
p1137
sg38
S'22'
p1138
sg40
g115
sg42
S'--'
p1139
ssg330
(dp1140
g5
S'--'
p1141
sg7
S'--'
p1142
sg9
g10
sg11
S'--'
p1143
sg13
g10
sg14
S'Jimmy Graham'
p1144
sg16
S'2013'
p1145
sg18
S'17'
p1146
sg20
S'--'
p1147
sg22
S'12/29'
p1148
sg24
S'14.2'
p1149
sg26
S'--'
p1150
sg28
S'--'
p1151
sg30
S'W42-17'
p1152
sg32
S'71'
p1153
sg34
g132
sg36
S'TB'
p1154
sg38
S'33'
p1155
sg40
g10
sg42
S'--'
p1156
ssg348
(dp1157
g5
S'--'
p1158
sg7
S'--'
p1159
sg9
g10
sg11
S'--'
p1160
sg13
g10
sg14
S'Jimmy Graham'
p1161
sg16
S'2013'
p1162
sg18
S'16'
p1163
sg20
S'--'
p1164
sg22
S'12/22'
p1165
sg24
S'14.6'
p1166
sg26
S'--'
p1167
sg28
S'--'
p1168
sg30
S'L13-17'
p1169
sg32
S'73'
p1170
sg34
g132
sg36
S'@CAR'
p1171
sg38
S'46'
p1172
sg40
g10
sg42
S'--'
p1173
ssg10
(dp1174
g5
S'--'
p1175
sg7
S'--'
p1176
sg9
g10
sg11
S'--'
p1177
sg13
g10
sg14
S'Jimmy Graham'
p1178
sg16
S'2013'
p1179
sg18
g10
sg20
S'--'
p1180
sg22
S'09/08'
p1181
sg24
S'11.3'
p1182
sg26
S'--'
p1183
sg28
S'--'
p1184
sg30
S'W23-17'
p1185
sg32
S'45'
p1186
sg34
g77
sg36
S'ATL'
p1187
sg38
S'21'
p1188
sg40
g10
sg42
S'--'
p1189
ssg35
(dp1190
g5
S'--'
p1191
sg7
S'--'
p1192
sg9
g10
sg11
S'--'
p1193
sg13
g10
sg14
S'Jimmy Graham'
p1194
sg16
S'2013'
p1195
sg18
g35
sg20
S'--'
p1196
sg22
S'09/22'
p1197
sg24
S'14.9'
p1198
sg26
S'--'
p1199
sg28
S'--'
p1200
sg30
S'W31-7'
p1201
sg32
S'134'
p1202
sg34
g198
sg36
S'ARI'
p1203
sg38
S'29'
p1204
sg40
g115
sg42
S'--'
p1205
ssg115
(dp1206
g5
S'--'
p1207
sg7
S'--'
p1208
sg9
g10
sg11
S'--'
p1209
sg13
g10
sg14
S'Jimmy Graham'
p1210
sg16
S'2013'
p1211
sg18
g115
sg20
S'--'
p1212
sg22
S'09/15'
p1213
sg24
S'17.9'
p1214
sg26
S'--'
p1215
sg28
S'--'
p1216
sg30
S'W16-14'
p1217
sg32
S'179'
p1218
sg34
S'10'
p1219
sg36
S'@TB'
p1220
sg38
S'56T'
p1221
sg40
g10
sg42
S'--'
p1222
ssg132
(dp1223
g5
S'--'
p1224
sg7
S'--'
p1225
sg9
g10
sg11
S'--'
p1226
sg13
g10
sg14
S'Jimmy Graham'
p1227
sg16
S'2013'
p1228
sg18
g132
sg20
S'--'
p1229
sg22
S'10/06'
p1230
sg24
S'13.5'
p1231
sg26
S'--'
p1232
sg28
S'--'
p1233
sg30
S'W26-18'
p1234
sg32
S'135'
p1235
sg34
S'10'
p1236
sg36
S'@CHI'
p1237
sg38
S'38'
p1238
sg40
g41
sg42
S'--'
p1239
ssg77
(dp1240
g5
S'--'
p1241
sg7
S'--'
p1242
sg9
g10
sg11
S'--'
p1243
sg13
g10
sg14
S'Jimmy Graham'
p1244
sg16
S'2013'
p1245
sg18
g77
sg20
S'--'
p1246
sg22
S'09/30'
p1247
sg24
S'25.0'
p1248
sg26
S'--'
p1249
sg28
S'--'
p1250
sg30
S'W38-17'
p1251
sg32
S'100'
p1252
sg34
g77
sg36
S'MIA'
p1253
sg38
S'43T'
p1254
sg40
g115
sg42
S'--'
p1255
ssg111
(dp1256
g5
g200
sg7
g200
sg9
g200
sg11
g200
sg13
g200
sg14
S'Jimmy Graham'
p1257
sg16
S'2013'
p1258
sg18
g111
sg20
g200
sg22
S'Bye'
p1259
sg24
g200
sg26
g200
sg28
g200
sg30
g200
sg32
g200
sg34
g200
sg36
g200
sg38
g200
sg40
g200
sg42
g200
ssg94
(dp1260
g5
S'--'
p1261
sg7
S'--'
p1262
sg9
g10
sg11
S'--'
p1263
sg13
g10
sg14
S'Jimmy Graham'
p1264
sg16
S'2013'
p1265
sg18
g94
sg20
S'--'
p1266
sg22
S'10/13'
p1267
sg24
S'--'
p1268
sg26
S'--'
p1269
sg28
S'--'
p1270
sg30
S'L27-30'
p1271
sg32
g41
sg34
g41
sg36
S'@NE'
p1272
sg38
S'--'
p1273
sg40
g41
sg42
S'--'
p1274
ssg198
(dp1275
g5
S'--'
p1276
sg7
S'--'
p1277
sg9
g10
sg11
S'--'
p1278
sg13
g10
sg14
S'Jimmy Graham'
p1279
sg16
S'2013'
p1280
sg18
g198
sg20
S'--'
p1281
sg22
S'11/03'
p1282
sg24
S'12.9'
p1283
sg26
S'--'
p1284
sg28
S'--'
p1285
sg30
S'L20-26'
p1286
sg32
S'116'
p1287
sg34
g198
sg36
S'@NYJ'
p1288
sg38
S'51T'
p1289
sg40
g115
sg42
S'--'
p1290
ssg194
(dp1291
g5
S'--'
p1292
sg7
S'--'
p1293
sg9
g41
sg11
S'--'
p1294
sg13
g10
sg14
S'Jimmy Graham'
p1295
sg16
S'2013'
p1296
sg18
g194
sg20
S'--'
p1297
sg22
S'10/27'
p1298
sg24
S'12.3'
p1299
sg26
S'--'
p1300
sg28
S'--'
p1301
sg30
S'W35-17'
p1302
sg32
S'37'
p1303
sg34
g35
sg36
S'BUF'
p1304
sg38
S'15T'
p1305
sg40
g115
sg42
S'--'
p1306
sssS'2012'
p1307
(dp1308
g3
(dp1309
g5
S'--'
p1310
sg7
S'--'
p1311
sg9
g10
sg11
g41
sg13
g10
sg14
S'Jimmy Graham'
p1312
sg16
S'2012'
p1313
sg18
S'11'
p1314
sg20
S'--'
p1315
sg22
S'11/18'
p1316
sg24
S'4.8'
p1317
sg26
g10
sg28
S'--'
p1318
sg30
S'W38-17'
p1319
sg32
S'29'
p1320
sg34
g94
sg36
S'@OAK'
p1321
sg38
S'10'
p1322
sg40
g10
sg42
S'--'
p1323
ssg44
(dp1324
g5
S'--'
p1325
sg7
S'--'
p1326
sg9
g41
sg11
S'--'
p1327
sg13
g10
sg14
S'Jimmy Graham'
p1328
sg16
S'2012'
p1329
sg18
S'10'
p1330
sg20
S'--'
p1331
sg22
S'11/11'
p1332
sg24
S'20.9'
p1333
sg26
S'--'
p1334
sg28
S'--'
p1335
sg30
S'W31-27'
p1336
sg32
S'146'
p1337
sg34
g111
sg36
S'ATL'
p1338
sg38
S'46'
p1339
sg40
g115
sg42
S'--'
p1340
ssg257
(dp1341
g5
S'--'
p1342
sg7
S'--'
p1343
sg9
g41
sg11
S'--'
p1344
sg13
g10
sg14
S'Jimmy Graham'
p1345
sg16
S'2012'
p1346
sg18
S'13'
p1347
sg20
S'--'
p1348
sg22
S'11/29'
p1349
sg24
S'14.8'
p1350
sg26
S'--'
p1351
sg28
S'--'
p1352
sg30
S'L13-23'
p1353
sg32
S'59'
p1354
sg34
g77
sg36
S'@ATL'
p1355
sg38
S'25'
p1356
sg40
g41
sg42
S'--'
p1357
ssg62
(dp1358
g5
S'--'
p1359
sg7
S'--'
p1360
sg9
g10
sg11
S'--'
p1361
sg13
g10
sg14
S'Jimmy Graham'
p1362
sg16
S'2012'
p1363
sg18
S'12'
p1364
sg20
S'--'
p1365
sg22
S'11/25'
p1366
sg24
S'8.3'
p1367
sg26
S'--'
p1368
sg28
S'--'
p1369
sg30
S'L21-31'
p1370
sg32
S'33'
p1371
sg34
g77
sg36
S'SF'
p1372
sg38
S'12'
p1373
sg40
g41
sg42
S'--'
p1374
ssg294
(dp1375
g5
S'--'
p1376
sg7
S'--'
p1377
sg9
g10
sg11
S'--'
p1378
sg13
g10
sg14
S'Jimmy Graham'
p1379
sg16
S'2012'
p1380
sg18
S'15'
p1381
sg20
S'--'
p1382
sg22
S'12/16'
p1383
sg24
S'13.8'
p1384
sg26
S'--'
p1385
sg28
S'--'
p1386
sg30
S'W41-0'
p1387
sg32
S'69'
p1388
sg34
g132
sg36
S'TB'
p1389
sg38
S'24'
p1390
sg40
g41
sg42
S'--'
p1391
ssg312
(dp1392
g5
S'--'
p1393
sg7
S'--'
p1394
sg9
g41
sg11
S'--'
p1395
sg13
g10
sg14
S'Jimmy Graham'
p1396
sg16
S'2012'
p1397
sg18
S'14'
p1398
sg20
S'--'
p1399
sg22
S'12/09'
p1400
sg24
S'11.2'
p1401
sg26
S'--'
p1402
sg28
S'--'
p1403
sg30
S'L27-52'
p1404
sg32
S'56'
p1405
sg34
g132
sg36
S'@NYG'
p1406
sg38
S'27'
p1407
sg40
g41
sg42
S'--'
p1408
ssg330
(dp1409
g5
S'--'
p1410
sg7
S'--'
p1411
sg9
g41
sg11
S'--'
p1412
sg13
g10
sg14
S'Jimmy Graham'
p1413
sg16
S'2012'
p1414
sg18
S'17'
p1415
sg20
S'--'
p1416
sg22
S'12/30'
p1417
sg24
S'12.8'
p1418
sg26
S'--'
p1419
sg28
S'--'
p1420
sg30
S'L38-44'
p1421
sg32
S'115'
p1422
sg34
g198
sg36
S'CAR'
p1423
sg38
S'27'
p1424
sg40
g10
sg42
S'--'
p1425
ssg348
(dp1426
g5
S'--'
p1427
sg7
S'--'
p1428
sg9
g41
sg11
S'--'
p1429
sg13
g10
sg14
S'Jimmy Graham'
p1430
sg16
S'2012'
p1431
sg18
S'16'
p1432
sg20
S'--'
p1433
sg22
S'12/23'
p1434
sg24
S'12.6'
p1435
sg26
S'--'
p1436
sg28
S'--'
p1437
sg30
S'W34-31'
p1438
sg32
S'88'
p1439
sg34
g111
sg36
S'@DAL'
p1440
sg38
S'26'
p1441
sg40
g41
sg42
S'--'
p1442
ssg10
(dp1443
g5
S'--'
p1444
sg7
S'--'
p1445
sg9
g10
sg11
S'--'
p1446
sg13
g10
sg14
S'Jimmy Graham'
p1447
sg16
S'2012'
p1448
sg18
g10
sg20
S'--'
p1449
sg22
S'09/09'
p1450
sg24
S'14.2'
p1451
sg26
S'--'
p1452
sg28
S'--'
p1453
sg30
S'L32-40'
p1454
sg32
S'85'
p1455
sg34
g94
sg36
S'WAS'
p1456
sg38
S'23'
p1457
sg40
g10
sg42
S'--'
p1458
ssg35
(dp1459
g5
S'--'
p1460
sg7
S'--'
p1461
sg9
g10
sg11
S'--'
p1462
sg13
g10
sg14
S'Jimmy Graham'
p1463
sg16
S'2012'
p1464
sg18
g35
sg20
S'--'
p1465
sg22
S'09/23'
p1466
sg24
S'4.0'
p1467
sg26
S'--'
p1468
sg28
S'--'
p1469
sg30
S'L24-27'
p1470
sg32
S'16'
p1471
sg34
g77
sg36
S'KC'
p1472
sg38
g111
sg40
g10
sg42
S'--'
p1473
ssg115
(dp1474
g5
S'--'
p1475
sg7
S'--'
p1476
sg9
g10
sg11
S'--'
p1477
sg13
g10
sg14
S'Jimmy Graham'
p1478
sg16
S'2012'
p1479
sg18
g115
sg20
S'--'
p1480
sg22
S'09/16'
p1481
sg24
S'10.1'
p1482
sg26
S'--'
p1483
sg28
S'--'
p1484
sg30
S'L27-35'
p1485
sg32
S'71'
p1486
sg34
g111
sg36
S'@CAR'
p1487
sg38
S'17'
p1488
sg40
g10
sg42
S'--'
p1489
ssg132
(dp1490
g5
S'--'
p1491
sg7
S'--'
p1492
sg9
g10
sg11
S'--'
p1493
sg13
g10
sg14
S'Jimmy Graham'
p1494
sg16
S'2012'
p1495
sg18
g132
sg20
S'--'
p1496
sg22
S'10/07'
p1497
sg24
S'4.0'
p1498
sg26
S'--'
p1499
sg28
S'--'
p1500
sg30
S'W31-24'
p1501
sg32
g77
sg34
g10
sg36
S'SD'
p1502
sg38
g77
sg40
g41
sg42
S'--'
p1503
ssg77
(dp1504
g5
S'--'
p1505
sg7
S'--'
p1506
sg9
g10
sg11
S'--'
p1507
sg13
g10
sg14
S'Jimmy Graham'
p1508
sg16
S'2012'
p1509
sg18
g77
sg20
S'--'
p1510
sg22
S'09/30'
p1511
sg24
S'10.9'
p1512
sg26
S'--'
p1513
sg28
S'--'
p1514
sg30
S'L27-28'
p1515
sg32
S'76'
p1516
sg34
g111
sg36
S'@GB'
p1517
sg38
S'24'
p1518
sg40
g41
sg42
S'--'
p1519
ssg111
(dp1520
g5
S'--'
p1521
sg7
S'--'
p1522
sg9
g41
sg11
S'--'
p1523
sg13
g41
sg14
S'Jimmy Graham'
p1524
sg16
S'2012'
p1525
sg18
g111
sg20
S'--'
p1526
sg22
S'10/21'
p1527
sg24
S'--'
p1528
sg26
S'--'
p1529
sg28
S'--'
p1530
sg30
S'W35-28'
p1531
sg32
S'--'
p1532
sg34
S'--'
p1533
sg36
S'@TB'
p1534
sg38
S'--'
p1535
sg40
S'--'
p1536
sg42
S'--'
p1537
ssg94
(dp1538
g5
g200
sg7
g200
sg9
g200
sg11
g200
sg13
g200
sg14
S'Jimmy Graham'
p1539
sg16
S'2012'
p1540
sg18
g94
sg20
g200
sg22
S'Bye'
p1541
sg24
g200
sg26
g200
sg28
g200
sg30
g200
sg32
g200
sg34
g200
sg36
g200
sg38
g200
sg40
g200
sg42
g200
ssg198
(dp1542
g5
S'--'
p1543
sg7
S'--'
p1544
sg9
g41
sg11
S'--'
p1545
sg13
g10
sg14
S'Jimmy Graham'
p1546
sg16
S'2012'
p1547
sg18
g198
sg20
S'--'
p1548
sg22
S'11/05'
p1549
sg24
S'9.0'
p1550
sg26
S'--'
p1551
sg28
S'--'
p1552
sg30
S'W28-13'
p1553
sg32
S'72'
p1554
sg34
g194
sg36
S'PHI'
p1555
sg38
S'17'
p1556
sg40
g10
sg42
S'--'
p1557
ssg194
(dp1558
g5
S'--'
p1559
sg7
S'--'
p1560
sg9
g10
sg11
S'--'
p1561
sg13
g10
sg14
S'Jimmy Graham'
p1562
sg16
S'2012'
p1563
sg18
g194
sg20
S'--'
p1564
sg22
S'10/28'
p1565
sg24
S'12.6'
p1566
sg26
S'--'
p1567
sg28
S'--'
p1568
sg30
S'L14-34'
p1569
sg32
S'63'
p1570
sg34
g132
sg36
S'@DEN'
p1571
sg38
S'20'
p1572
sg40
g10
sg42
S'--'
p1573
sss.