(dp0
S'2015'
p1
(dp2
S'11'
p3
(dp4
S'RushTD'
p5
S'--'
p6
sS'RushYds'
p7
S'--'
p8
sS'GS'
p9
S'1'
p10
sS'Lost'
p11
S'--'
p12
sS'G'
p13
g10
sS'Player'
p14
S'John Phillips'
p15
sS'Year'
p16
S'2015'
p17
sS'WK'
p18
S'11'
p19
sS'RushAvg'
p20
S'--'
p21
sS'Game Date'
p22
S'11/22'
p23
sS'RecAvg'
p24
S'--'
p25
sS'FUM'
p26
S'--'
p27
sS'RushAtt'
p28
S'--'
p29
sS'Result'
p30
S'L3-33'
p31
sS'RecYds'
p32
S'--'
p33
sS'Rec'
p34
S'--'
p35
sS'Opp'
p36
S'KC'
p37
sS'RecLng'
p38
S'--'
p39
sS'RecTD'
p40
S'--'
p41
sS'RushLng'
p42
S'--'
p43
ssS'10'
p44
(dp45
g5
S''
p46
sg7
g46
sg9
g46
sg11
g46
sg13
g46
sg14
S'John Phillips'
p47
sg16
S'2015'
p48
sg18
S'10'
p49
sg20
g46
sg22
S'Bye'
p50
sg24
g46
sg26
g46
sg28
g46
sg30
g46
sg32
g46
sg34
g46
sg36
g46
sg38
g46
sg40
g46
sg42
g46
ssS'13'
p51
(dp52
g5
S'--'
p53
sg7
S'--'
p54
sg9
S'0'
p55
sg11
S'--'
p56
sg13
g10
sg14
S'John Phillips'
p57
sg16
S'2015'
p58
sg18
S'13'
p59
sg20
S'--'
p60
sg22
S'12/06'
p61
sg24
S'8.0'
p62
sg26
S'--'
p63
sg28
S'--'
p64
sg30
S'L3-17'
p65
sg32
S'8'
p66
sg34
g10
sg36
S'DEN'
p67
sg38
g66
sg40
g55
sg42
S'--'
p68
ssS'12'
p69
(dp70
g5
S'--'
p71
sg7
S'--'
p72
sg9
g55
sg11
S'--'
p73
sg13
g10
sg14
S'John Phillips'
p74
sg16
S'2015'
p75
sg18
S'12'
p76
sg20
S'--'
p77
sg22
S'11/29'
p78
sg24
S'--'
p79
sg26
S'--'
p80
sg28
S'--'
p81
sg30
S'W31-25'
p82
sg32
S'--'
p83
sg34
S'--'
p84
sg36
S'@JAC'
p85
sg38
S'--'
p86
sg40
S'--'
p87
sg42
S'--'
p88
ssS'15'
p89
(dp90
g5
S'--'
p91
sg7
S'--'
p92
sg9
g55
sg11
S'--'
p93
sg13
g10
sg14
S'John Phillips'
p94
sg16
S'2015'
p95
sg18
S'15'
p96
sg20
S'--'
p97
sg22
S'12/20'
p98
sg24
S'--'
p99
sg26
S'--'
p100
sg28
S'--'
p101
sg30
S'W30-14'
p102
sg32
S'--'
p103
sg34
S'--'
p104
sg36
S'MIA'
p105
sg38
S'--'
p106
sg40
S'--'
p107
sg42
S'--'
p108
ssS'14'
p109
(dp110
g5
S'--'
p111
sg7
S'--'
p112
sg9
g55
sg11
S'--'
p113
sg13
g10
sg14
S'John Phillips'
p114
sg16
S'2015'
p115
sg18
S'14'
p116
sg20
S'--'
p117
sg22
S'12/13'
p118
sg24
S'--'
p119
sg26
S'--'
p120
sg28
S'--'
p121
sg30
S'L3-10'
p122
sg32
S'--'
p123
sg34
S'--'
p124
sg36
S'@KC'
p125
sg38
S'--'
p126
sg40
S'--'
p127
sg42
S'--'
p128
ssS'17'
p129
(dp130
g5
S'--'
p131
sg7
S'--'
p132
sg9
g10
sg11
S'--'
p133
sg13
g10
sg14
S'John Phillips'
p134
sg16
S'2015'
p135
sg18
S'17'
p136
sg20
S'--'
p137
sg22
S'01/03'
p138
sg24
S'--'
p139
sg26
S'--'
p140
sg28
S'--'
p141
sg30
S'L20-27'
p142
sg32
S'--'
p143
sg34
S'--'
p144
sg36
S'@DEN'
p145
sg38
S'--'
p146
sg40
S'--'
p147
sg42
S'--'
p148
ssS'16'
p149
(dp150
g5
S'--'
p151
sg7
S'--'
p152
sg9
g10
sg11
S'--'
p153
sg13
g10
sg14
S'John Phillips'
p154
sg16
S'2015'
p155
sg18
S'16'
p156
sg20
S'--'
p157
sg22
S'12/24'
p158
sg24
S'9.0'
p159
sg26
S'--'
p160
sg28
S'--'
p161
sg30
S'L20-23'
p162
sg32
S'9'
p163
sg34
g10
sg36
S'@OAK'
p164
sg38
g163
sg40
g55
sg42
S'--'
p165
ssg10
(dp166
g5
S'--'
p167
sg7
S'--'
p168
sg9
g55
sg11
S'--'
p169
sg13
g10
sg14
S'John Phillips'
p170
sg16
S'2015'
p171
sg18
g10
sg20
S'--'
p172
sg22
S'09/13'
p173
sg24
S'--'
p174
sg26
S'--'
p175
sg28
S'--'
p176
sg30
S'W33-28'
p177
sg32
S'--'
p178
sg34
S'--'
p179
sg36
S'DET'
p180
sg38
S'--'
p181
sg40
S'--'
p182
sg42
S'--'
p183
ssS'3'
p184
(dp185
g5
S'--'
p186
sg7
S'--'
p187
sg9
g10
sg11
S'--'
p188
sg13
g10
sg14
S'John Phillips'
p189
sg16
S'2015'
p190
sg18
g184
sg20
S'--'
p191
sg22
S'09/27'
p192
sg24
S'8.8'
p193
sg26
S'--'
p194
sg28
S'--'
p195
sg30
S'L14-31'
p196
sg32
S'35'
p197
sg34
S'4'
p198
sg36
S'@MIN'
p199
sg38
S'15'
p200
sg40
g55
sg42
S'--'
p201
ssS'2'
p202
(dp203
g5
S'--'
p204
sg7
S'--'
p205
sg9
g55
sg11
S'--'
p206
sg13
g10
sg14
S'John Phillips'
p207
sg16
S'2015'
p208
sg18
g202
sg20
S'--'
p209
sg22
S'09/20'
p210
sg24
S'--'
p211
sg26
S'--'
p212
sg28
S'--'
p213
sg30
S'L19-24'
p214
sg32
S'--'
p215
sg34
S'--'
p216
sg36
S'@CIN'
p217
sg38
S'--'
p218
sg40
S'--'
p219
sg42
S'--'
p220
ssS'5'
p221
(dp222
g5
S'--'
p223
sg7
S'--'
p224
sg9
g55
sg11
S'--'
p225
sg13
g10
sg14
S'John Phillips'
p226
sg16
S'2015'
p227
sg18
g221
sg20
S'--'
p228
sg22
S'10/12'
p229
sg24
S'--'
p230
sg26
S'--'
p231
sg28
S'--'
p232
sg30
S'L20-24'
p233
sg32
S'--'
p234
sg34
S'--'
p235
sg36
S'PIT'
p236
sg38
S'--'
p237
sg40
S'--'
p238
sg42
S'--'
p239
ssg198
(dp240
g5
S'--'
p241
sg7
S'--'
p242
sg9
g10
sg11
S'--'
p243
sg13
g10
sg14
S'John Phillips'
p244
sg16
S'2015'
p245
sg18
g198
sg20
S'--'
p246
sg22
S'10/04'
p247
sg24
S'1.0'
p248
sg26
S'--'
p249
sg28
S'--'
p250
sg30
S'W30-27'
p251
sg32
g10
sg34
g10
sg36
S'CLE'
p252
sg38
S'1T'
p253
sg40
g10
sg42
S'--'
p254
ssS'7'
p255
(dp256
g5
S'--'
p257
sg7
S'--'
p258
sg9
g55
sg11
S'--'
p259
sg13
g10
sg14
S'John Phillips'
p260
sg16
S'2015'
p261
sg18
g255
sg20
S'--'
p262
sg22
S'10/25'
p263
sg24
S'5.0'
p264
sg26
S'--'
p265
sg28
S'--'
p266
sg30
S'L29-37'
p267
sg32
g221
sg34
g10
sg36
S'OAK'
p268
sg38
g221
sg40
g55
sg42
S'--'
p269
ssS'6'
p270
(dp271
g5
S'--'
p272
sg7
S'--'
p273
sg9
g55
sg11
S'--'
p274
sg13
g10
sg14
S'John Phillips'
p275
sg16
S'2015'
p276
sg18
g270
sg20
S'--'
p277
sg22
S'10/18'
p278
sg24
S'--'
p279
sg26
S'--'
p280
sg28
S'--'
p281
sg30
S'L20-27'
p282
sg32
S'--'
p283
sg34
S'--'
p284
sg36
S'@GB'
p285
sg38
S'--'
p286
sg40
S'--'
p287
sg42
S'--'
p288
ssg163
(dp289
g5
S'--'
p290
sg7
S'--'
p291
sg9
g55
sg11
S'--'
p292
sg13
g10
sg14
S'John Phillips'
p293
sg16
S'2015'
p294
sg18
g163
sg20
S'--'
p295
sg22
S'11/09'
p296
sg24
S'--'
p297
sg26
S'--'
p298
sg28
S'--'
p299
sg30
S'L19-22'
p300
sg32
S'--'
p301
sg34
S'--'
p302
sg36
S'CHI'
p303
sg38
S'--'
p304
sg40
S'--'
p305
sg42
S'--'
p306
ssg66
(dp307
g5
S'--'
p308
sg7
S'--'
p309
sg9
g55
sg11
S'--'
p310
sg13
g10
sg14
S'John Phillips'
p311
sg16
S'2015'
p312
sg18
g66
sg20
S'--'
p313
sg22
S'11/01'
p314
sg24
S'5.5'
p315
sg26
S'--'
p316
sg28
S'--'
p317
sg30
S'L26-29'
p318
sg32
S'11'
p319
sg34
g202
sg36
S'@BAL'
p320
sg38
g255
sg40
g55
sg42
S'--'
p321
sssS'2014'
p322
(dp323
g3
(dp324
g5
S'--'
p325
sg7
S'--'
p326
sg9
g55
sg11
S'--'
p327
sg13
g10
sg14
S'John Phillips'
p328
sg16
S'2014'
p329
sg18
S'11'
p330
sg20
S'--'
p331
sg22
S'11/16'
p332
sg24
S'--'
p333
sg26
S'--'
p334
sg28
S'--'
p335
sg30
S'W13-6'
p336
sg32
S'--'
p337
sg34
S'--'
p338
sg36
S'OAK'
p339
sg38
S'--'
p340
sg40
S'--'
p341
sg42
S'--'
p342
ssg44
(dp343
g5
g46
sg7
g46
sg9
g46
sg11
g46
sg13
g46
sg14
S'John Phillips'
p344
sg16
S'2014'
p345
sg18
S'10'
p346
sg20
g46
sg22
S'Bye'
p347
sg24
g46
sg26
g46
sg28
g46
sg30
g46
sg32
g46
sg34
g46
sg36
g46
sg38
g46
sg40
g46
sg42
g46
ssg51
(dp348
g5
S'--'
p349
sg7
S'--'
p350
sg9
g55
sg11
S'--'
p351
sg13
g10
sg14
S'John Phillips'
p352
sg16
S'2014'
p353
sg18
S'13'
p354
sg20
S'--'
p355
sg22
S'11/30'
p356
sg24
S'--'
p357
sg26
S'--'
p358
sg28
S'--'
p359
sg30
S'W34-33'
p360
sg32
S'--'
p361
sg34
S'--'
p362
sg36
S'@BAL'
p363
sg38
S'--'
p364
sg40
S'--'
p365
sg42
S'--'
p366
ssg69
(dp367
g5
S'--'
p368
sg7
S'--'
p369
sg9
g55
sg11
S'--'
p370
sg13
g10
sg14
S'John Phillips'
p371
sg16
S'2014'
p372
sg18
S'12'
p373
sg20
S'--'
p374
sg22
S'11/23'
p375
sg24
S'--'
p376
sg26
S'--'
p377
sg28
S'--'
p378
sg30
S'W27-24'
p379
sg32
S'--'
p380
sg34
S'--'
p381
sg36
S'STL'
p382
sg38
S'--'
p383
sg40
S'--'
p384
sg42
S'--'
p385
ssg89
(dp386
g5
S'--'
p387
sg7
S'--'
p388
sg9
g55
sg11
S'--'
p389
sg13
g10
sg14
S'John Phillips'
p390
sg16
S'2014'
p391
sg18
S'15'
p392
sg20
S'--'
p393
sg22
S'12/14'
p394
sg24
S'--'
p395
sg26
S'--'
p396
sg28
S'--'
p397
sg30
S'L10-22'
p398
sg32
S'--'
p399
sg34
S'--'
p400
sg36
S'DEN'
p401
sg38
S'--'
p402
sg40
S'--'
p403
sg42
S'--'
p404
ssg109
(dp405
g5
S'--'
p406
sg7
S'--'
p407
sg9
g55
sg11
S'--'
p408
sg13
g10
sg14
S'John Phillips'
p409
sg16
S'2014'
p410
sg18
S'14'
p411
sg20
S'--'
p412
sg22
S'12/07'
p413
sg24
S'--'
p414
sg26
S'--'
p415
sg28
S'--'
p416
sg30
S'L14-23'
p417
sg32
S'--'
p418
sg34
S'--'
p419
sg36
S'NE'
p420
sg38
S'--'
p421
sg40
S'--'
p422
sg42
S'--'
p423
ssg129
(dp424
g5
S'--'
p425
sg7
S'--'
p426
sg9
g10
sg11
S'--'
p427
sg13
g10
sg14
S'John Phillips'
p428
sg16
S'2014'
p429
sg18
S'17'
p430
sg20
S'--'
p431
sg22
S'12/28'
p432
sg24
S'--'
p433
sg26
S'--'
p434
sg28
S'--'
p435
sg30
S'L7-19'
p436
sg32
S'--'
p437
sg34
S'--'
p438
sg36
S'@KC'
p439
sg38
S'--'
p440
sg40
S'--'
p441
sg42
S'--'
p442
ssg149
(dp443
g5
S'--'
p444
sg7
S'--'
p445
sg9
g55
sg11
S'--'
p446
sg13
g10
sg14
S'John Phillips'
p447
sg16
S'2014'
p448
sg18
S'16'
p449
sg20
S'--'
p450
sg22
S'12/20'
p451
sg24
S'--'
p452
sg26
S'--'
p453
sg28
S'--'
p454
sg30
S'W38-35'
p455
sg32
S'--'
p456
sg34
S'--'
p457
sg36
S'@SF'
p458
sg38
S'--'
p459
sg40
S'--'
p460
sg42
S'--'
p461
ssg10
(dp462
g5
S'--'
p463
sg7
S'--'
p464
sg9
g55
sg11
S'--'
p465
sg13
g10
sg14
S'John Phillips'
p466
sg16
S'2014'
p467
sg18
g10
sg20
S'--'
p468
sg22
S'09/08'
p469
sg24
S'--'
p470
sg26
S'--'
p471
sg28
S'--'
p472
sg30
S'L17-18'
p473
sg32
S'--'
p474
sg34
S'--'
p475
sg36
S'@ARI'
p476
sg38
S'--'
p477
sg40
S'--'
p478
sg42
S'--'
p479
ssg184
(dp480
g5
S'--'
p481
sg7
S'--'
p482
sg9
g55
sg11
S'--'
p483
sg13
g10
sg14
S'John Phillips'
p484
sg16
S'2014'
p485
sg18
g184
sg20
S'--'
p486
sg22
S'09/21'
p487
sg24
S'--'
p488
sg26
S'--'
p489
sg28
S'--'
p490
sg30
S'W22-10'
p491
sg32
S'--'
p492
sg34
S'--'
p493
sg36
S'@BUF'
p494
sg38
S'--'
p495
sg40
S'--'
p496
sg42
S'--'
p497
ssg202
(dp498
g5
S'--'
p499
sg7
S'--'
p500
sg9
g55
sg11
S'--'
p501
sg13
g10
sg14
S'John Phillips'
p502
sg16
S'2014'
p503
sg18
g202
sg20
S'--'
p504
sg22
S'09/14'
p505
sg24
S'--'
p506
sg26
S'--'
p507
sg28
S'--'
p508
sg30
S'W30-21'
p509
sg32
S'--'
p510
sg34
S'--'
p511
sg36
S'SEA'
p512
sg38
S'--'
p513
sg40
S'--'
p514
sg42
S'--'
p515
ssg221
(dp516
g5
S'--'
p517
sg7
S'--'
p518
sg9
g55
sg11
S'--'
p519
sg13
g10
sg14
S'John Phillips'
p520
sg16
S'2014'
p521
sg18
g221
sg20
S'--'
p522
sg22
S'10/05'
p523
sg24
S'--'
p524
sg26
S'--'
p525
sg28
S'--'
p526
sg30
S'W31-0'
p527
sg32
S'--'
p528
sg34
S'--'
p529
sg36
S'NYJ'
p530
sg38
S'--'
p531
sg40
S'--'
p532
sg42
S'--'
p533
ssg198
(dp534
g5
S'--'
p535
sg7
S'--'
p536
sg9
g55
sg11
S'--'
p537
sg13
g10
sg14
S'John Phillips'
p538
sg16
S'2014'
p539
sg18
g198
sg20
S'--'
p540
sg22
S'09/28'
p541
sg24
S'--'
p542
sg26
S'--'
p543
sg28
S'--'
p544
sg30
S'W33-14'
p545
sg32
S'--'
p546
sg34
S'--'
p547
sg36
S'JAC'
p548
sg38
S'--'
p549
sg40
S'--'
p550
sg42
S'--'
p551
ssg255
(dp552
g5
S'--'
p553
sg7
S'--'
p554
sg9
g55
sg11
S'--'
p555
sg13
g10
sg14
S'John Phillips'
p556
sg16
S'2014'
p557
sg18
g255
sg20
S'--'
p558
sg22
S'10/19'
p559
sg24
S'1.0'
p560
sg26
S'--'
p561
sg28
S'--'
p562
sg30
S'L20-23'
p563
sg32
g10
sg34
g10
sg36
S'KC'
p564
sg38
S'1T'
p565
sg40
g10
sg42
S'--'
p566
ssg270
(dp567
g5
S'--'
p568
sg7
S'--'
p569
sg9
g55
sg11
S'--'
p570
sg13
g10
sg14
S'John Phillips'
p571
sg16
S'2014'
p572
sg18
g270
sg20
S'--'
p573
sg22
S'10/12'
p574
sg24
S'--'
p575
sg26
S'--'
p576
sg28
S'--'
p577
sg30
S'W31-28'
p578
sg32
S'--'
p579
sg34
S'--'
p580
sg36
S'@OAK'
p581
sg38
S'--'
p582
sg40
S'--'
p583
sg42
S'--'
p584
ssg163
(dp585
g5
S'--'
p586
sg7
S'--'
p587
sg9
g55
sg11
S'--'
p588
sg13
g10
sg14
S'John Phillips'
p589
sg16
S'2014'
p590
sg18
g163
sg20
S'--'
p591
sg22
S'11/02'
p592
sg24
S'--'
p593
sg26
S'--'
p594
sg28
S'--'
p595
sg30
S'L0-37'
p596
sg32
S'--'
p597
sg34
S'--'
p598
sg36
S'@MIA'
p599
sg38
S'--'
p600
sg40
S'--'
p601
sg42
S'--'
p602
ssg66
(dp603
g5
S'--'
p604
sg7
S'--'
p605
sg9
g55
sg11
S'--'
p606
sg13
g10
sg14
S'John Phillips'
p607
sg16
S'2014'
p608
sg18
g66
sg20
S'--'
p609
sg22
S'10/23'
p610
sg24
S'--'
p611
sg26
S'--'
p612
sg28
S'--'
p613
sg30
S'L21-35'
p614
sg32
S'--'
p615
sg34
S'--'
p616
sg36
S'@DEN'
p617
sg38
S'--'
p618
sg40
S'--'
p619
sg42
S'--'
p620
sssS'2011'
p621
(dp622
g3
(dp623
g5
S'--'
p624
sg7
S'--'
p625
sg9
g55
sg11
S'--'
p626
sg13
g10
sg14
S'John Phillips'
p627
sg16
S'2011'
p628
sg18
S'11'
p629
sg20
S'--'
p630
sg22
S'11/20'
p631
sg24
S'9.0'
p632
sg26
S'--'
p633
sg28
S'--'
p634
sg30
S'W27-24'
p635
sg32
g163
sg34
g10
sg36
S'@WAS'
p636
sg38
g163
sg40
g55
sg42
S'--'
p637
ssg44
(dp638
g5
S'--'
p639
sg7
S'--'
p640
sg9
g55
sg11
S'--'
p641
sg13
g10
sg14
S'John Phillips'
p642
sg16
S'2011'
p643
sg18
S'10'
p644
sg20
S'--'
p645
sg22
S'11/13'
p646
sg24
S'--'
p647
sg26
S'--'
p648
sg28
S'--'
p649
sg30
S'W44-7'
p650
sg32
S'--'
p651
sg34
S'--'
p652
sg36
S'BUF'
p653
sg38
S'--'
p654
sg40
S'--'
p655
sg42
S'--'
p656
ssg51
(dp657
g5
S'--'
p658
sg7
S'--'
p659
sg9
g10
sg11
S'--'
p660
sg13
g10
sg14
S'John Phillips'
p661
sg16
S'2011'
p662
sg18
S'13'
p663
sg20
S'--'
p664
sg22
S'12/04'
p665
sg24
S'5.5'
p666
sg26
S'--'
p667
sg28
S'--'
p668
sg30
S'L13-19'
p669
sg32
S'22'
p670
sg34
g198
sg36
S'@ARI'
p671
sg38
g163
sg40
g55
sg42
S'--'
p672
ssg69
(dp673
g5
S'--'
p674
sg7
S'--'
p675
sg9
g10
sg11
S'--'
p676
sg13
g10
sg14
S'John Phillips'
p677
sg16
S'2011'
p678
sg18
S'12'
p679
sg20
S'--'
p680
sg22
S'11/24'
p681
sg24
S'8.0'
p682
sg26
S'--'
p683
sg28
S'--'
p684
sg30
S'W20-19'
p685
sg32
S'16'
p686
sg34
g202
sg36
S'MIA'
p687
sg38
S'12'
p688
sg40
g55
sg42
S'--'
p689
ssg89
(dp690
g5
S'--'
p691
sg7
S'--'
p692
sg9
g55
sg11
S'--'
p693
sg13
g10
sg14
S'John Phillips'
p694
sg16
S'2011'
p695
sg18
S'15'
p696
sg20
S'--'
p697
sg22
S'12/17'
p698
sg24
S'--'
p699
sg26
S'--'
p700
sg28
S'--'
p701
sg30
S'W31-15'
p702
sg32
S'--'
p703
sg34
S'--'
p704
sg36
S'@TB'
p705
sg38
S'--'
p706
sg40
S'--'
p707
sg42
S'--'
p708
ssg109
(dp709
g5
S'--'
p710
sg7
S'--'
p711
sg9
g55
sg11
S'--'
p712
sg13
g10
sg14
S'John Phillips'
p713
sg16
S'2011'
p714
sg18
S'14'
p715
sg20
S'--'
p716
sg22
S'12/11'
p717
sg24
S'12.0'
p718
sg26
S'--'
p719
sg28
S'--'
p720
sg30
S'L34-37'
p721
sg32
S'12'
p722
sg34
g10
sg36
S'NYG'
p723
sg38
S'12T'
p724
sg40
g10
sg42
S'--'
p725
ssg129
(dp726
g5
S'--'
p727
sg7
S'--'
p728
sg9
g55
sg11
S'--'
p729
sg13
g10
sg14
S'John Phillips'
p730
sg16
S'2011'
p731
sg18
S'17'
p732
sg20
S'--'
p733
sg22
S'01/01'
p734
sg24
S'--'
p735
sg26
S'--'
p736
sg28
S'--'
p737
sg30
S'L14-31'
p738
sg32
S'--'
p739
sg34
S'--'
p740
sg36
S'@NYG'
p741
sg38
S'--'
p742
sg40
S'--'
p743
sg42
S'--'
p744
ssg149
(dp745
g5
S'--'
p746
sg7
S'--'
p747
sg9
g55
sg11
S'--'
p748
sg13
g10
sg14
S'John Phillips'
p749
sg16
S'2011'
p750
sg18
S'16'
p751
sg20
S'--'
p752
sg22
S'12/24'
p753
sg24
S'--'
p754
sg26
S'--'
p755
sg28
S'--'
p756
sg30
S'L7-20'
p757
sg32
S'--'
p758
sg34
S'--'
p759
sg36
S'PHI'
p760
sg38
S'--'
p761
sg40
S'--'
p762
sg42
S'--'
p763
ssg10
(dp764
g5
S'--'
p765
sg7
S'--'
p766
sg9
g10
sg11
S'--'
p767
sg13
g10
sg14
S'John Phillips'
p768
sg16
S'2011'
p769
sg18
g10
sg20
S'--'
p770
sg22
S'09/11'
p771
sg24
S'9.5'
p772
sg26
S'--'
p773
sg28
S'--'
p774
sg30
S'L24-27'
p775
sg32
S'19'
p776
sg34
g202
sg36
S'@NYJ'
p777
sg38
S'12'
p778
sg40
g55
sg42
S'--'
p779
ssg184
(dp780
g5
S'--'
p781
sg7
S'--'
p782
sg9
g55
sg11
S'--'
p783
sg13
g10
sg14
S'John Phillips'
p784
sg16
S'2011'
p785
sg18
g184
sg20
S'--'
p786
sg22
S'09/26'
p787
sg24
S'--'
p788
sg26
S'--'
p789
sg28
S'--'
p790
sg30
S'W18-16'
p791
sg32
S'--'
p792
sg34
S'--'
p793
sg36
S'WAS'
p794
sg38
S'--'
p795
sg40
S'--'
p796
sg42
S'--'
p797
ssg202
(dp798
g5
S'--'
p799
sg7
S'--'
p800
sg9
g10
sg11
S'--'
p801
sg13
g10
sg14
S'John Phillips'
p802
sg16
S'2011'
p803
sg18
g202
sg20
S'--'
p804
sg22
S'09/18'
p805
sg24
S'8.0'
p806
sg26
S'--'
p807
sg28
S'--'
p808
sg30
S'W27-24'
p809
sg32
g66
sg34
g10
sg36
S'@SF'
p810
sg38
g66
sg40
g55
sg42
S'--'
p811
ssg221
(dp812
g5
g46
sg7
g46
sg9
g46
sg11
g46
sg13
g46
sg14
S'John Phillips'
p813
sg16
S'2011'
p814
sg18
g221
sg20
g46
sg22
S'Bye'
p815
sg24
g46
sg26
g46
sg28
g46
sg30
g46
sg32
g46
sg34
g46
sg36
g46
sg38
g46
sg40
g46
sg42
g46
ssg198
(dp816
g5
S'--'
p817
sg7
S'--'
p818
sg9
g10
sg11
S'--'
p819
sg13
g10
sg14
S'John Phillips'
p820
sg16
S'2011'
p821
sg18
g198
sg20
S'--'
p822
sg22
S'10/02'
p823
sg24
S'2.7'
p824
sg26
S'--'
p825
sg28
S'--'
p826
sg30
S'L30-34'
p827
sg32
g66
sg34
g184
sg36
S'DET'
p828
sg38
g198
sg40
g55
sg42
S'--'
p829
ssg255
(dp830
g5
S'--'
p831
sg7
S'--'
p832
sg9
g55
sg11
S'--'
p833
sg13
g10
sg14
S'John Phillips'
p834
sg16
S'2011'
p835
sg18
g255
sg20
S'--'
p836
sg22
S'10/23'
p837
sg24
S'--'
p838
sg26
S'--'
p839
sg28
S'--'
p840
sg30
S'W34-7'
p841
sg32
S'--'
p842
sg34
S'--'
p843
sg36
S'STL'
p844
sg38
S'--'
p845
sg40
S'--'
p846
sg42
S'--'
p847
ssg270
(dp848
g5
S'--'
p849
sg7
S'--'
p850
sg9
g10
sg11
S'--'
p851
sg13
g10
sg14
S'John Phillips'
p852
sg16
S'2011'
p853
sg18
g270
sg20
S'--'
p854
sg22
S'10/16'
p855
sg24
S'7.0'
p856
sg26
S'--'
p857
sg28
S'--'
p858
sg30
S'L16-20'
p859
sg32
g255
sg34
g10
sg36
S'@NE'
p860
sg38
g255
sg40
g55
sg42
S'--'
p861
ssg163
(dp862
g5
S'--'
p863
sg7
S'--'
p864
sg9
g10
sg11
S'--'
p865
sg13
g10
sg14
S'John Phillips'
p866
sg16
S'2011'
p867
sg18
g163
sg20
S'--'
p868
sg22
S'11/06'
p869
sg24
S'--'
p870
sg26
S'--'
p871
sg28
S'--'
p872
sg30
S'W23-13'
p873
sg32
g55
sg34
g55
sg36
S'SEA'
p874
sg38
S'--'
p875
sg40
g55
sg42
S'--'
p876
ssg66
(dp877
g5
S'--'
p878
sg7
S'--'
p879
sg9
g55
sg11
S'--'
p880
sg13
g10
sg14
S'John Phillips'
p881
sg16
S'2011'
p882
sg18
g66
sg20
S'--'
p883
sg22
S'10/30'
p884
sg24
S'--'
p885
sg26
S'--'
p886
sg28
S'--'
p887
sg30
S'L7-34'
p888
sg32
S'--'
p889
sg34
S'--'
p890
sg36
S'@PHI'
p891
sg38
S'--'
p892
sg40
S'--'
p893
sg42
S'--'
p894
sssS'2013'
p895
(dp896
g3
(dp897
g5
S'--'
p898
sg7
S'--'
p899
sg9
g10
sg11
S'--'
p900
sg13
g10
sg14
S'John Phillips'
p901
sg16
S'2013'
p902
sg18
S'11'
p903
sg20
S'--'
p904
sg22
S'11/17'
p905
sg24
S'13.0'
p906
sg26
S'--'
p907
sg28
S'--'
p908
sg30
S'L16-20'
p909
sg32
S'13'
p910
sg34
g10
sg36
S'@MIA'
p911
sg38
S'13'
p912
sg40
g55
sg42
S'--'
p913
ssg44
(dp914
g5
S'--'
p915
sg7
S'--'
p916
sg9
g55
sg11
S'--'
p917
sg13
g10
sg14
S'John Phillips'
p918
sg16
S'2013'
p919
sg18
S'10'
p920
sg20
S'--'
p921
sg22
S'11/10'
p922
sg24
S'--'
p923
sg26
S'--'
p924
sg28
S'--'
p925
sg30
S'L20-28'
p926
sg32
S'--'
p927
sg34
S'--'
p928
sg36
S'DEN'
p929
sg38
S'--'
p930
sg40
S'--'
p931
sg42
S'--'
p932
ssg51
(dp933
g5
S'--'
p934
sg7
S'--'
p935
sg9
g55
sg11
S'--'
p936
sg13
g10
sg14
S'John Phillips'
p937
sg16
S'2013'
p938
sg18
S'13'
p939
sg20
S'--'
p940
sg22
S'12/01'
p941
sg24
S'--'
p942
sg26
S'--'
p943
sg28
S'--'
p944
sg30
S'L10-17'
p945
sg32
S'--'
p946
sg34
S'--'
p947
sg36
S'CIN'
p948
sg38
S'--'
p949
sg40
S'--'
p950
sg42
S'--'
p951
ssg69
(dp952
g5
S'--'
p953
sg7
S'--'
p954
sg9
g10
sg11
S'--'
p955
sg13
g10
sg14
S'John Phillips'
p956
sg16
S'2013'
p957
sg18
S'12'
p958
sg20
S'--'
p959
sg22
S'11/24'
p960
sg24
S'--'
p961
sg26
S'--'
p962
sg28
S'--'
p963
sg30
S'W41-38'
p964
sg32
S'--'
p965
sg34
S'--'
p966
sg36
S'@KC'
p967
sg38
S'--'
p968
sg40
S'--'
p969
sg42
S'--'
p970
ssg89
(dp971
g5
S'--'
p972
sg7
S'--'
p973
sg9
g55
sg11
S'--'
p974
sg13
g10
sg14
S'John Phillips'
p975
sg16
S'2013'
p976
sg18
S'15'
p977
sg20
S'--'
p978
sg22
S'12/12'
p979
sg24
S'--'
p980
sg26
S'--'
p981
sg28
S'--'
p982
sg30
S'W27-20'
p983
sg32
S'--'
p984
sg34
S'--'
p985
sg36
S'@DEN'
p986
sg38
S'--'
p987
sg40
S'--'
p988
sg42
S'--'
p989
ssg109
(dp990
g5
S'--'
p991
sg7
S'--'
p992
sg9
g55
sg11
S'--'
p993
sg13
g10
sg14
S'John Phillips'
p994
sg16
S'2013'
p995
sg18
S'14'
p996
sg20
S'--'
p997
sg22
S'12/08'
p998
sg24
S'--'
p999
sg26
S'--'
p1000
sg28
S'--'
p1001
sg30
S'W37-14'
p1002
sg32
S'--'
p1003
sg34
S'--'
p1004
sg36
S'NYG'
p1005
sg38
S'--'
p1006
sg40
S'--'
p1007
sg42
S'--'
p1008
ssg149
(dp1009
g5
S'--'
p1010
sg7
S'--'
p1011
sg9
g10
sg11
S'--'
p1012
sg13
g10
sg14
S'John Phillips'
p1013
sg16
S'2013'
p1014
sg18
S'16'
p1015
sg20
S'--'
p1016
sg22
S'12/22'
p1017
sg24
S'5.0'
p1018
sg26
S'--'
p1019
sg28
S'--'
p1020
sg30
S'W26-13'
p1021
sg32
g221
sg34
g10
sg36
S'OAK'
p1022
sg38
g221
sg40
g55
sg42
S'--'
p1023
ssg10
(dp1024
g5
S'--'
p1025
sg7
S'--'
p1026
sg9
g10
sg11
S'--'
p1027
sg13
g10
sg14
S'John Phillips'
p1028
sg16
S'2013'
p1029
sg18
g10
sg20
S'--'
p1030
sg22
S'09/09'
p1031
sg24
S'--'
p1032
sg26
S'--'
p1033
sg28
S'--'
p1034
sg30
S'L28-31'
p1035
sg32
g55
sg34
g55
sg36
S'HOU'
p1036
sg38
S'--'
p1037
sg40
g55
sg42
S'--'
p1038
ssg184
(dp1039
g5
S'--'
p1040
sg7
S'--'
p1041
sg9
g55
sg11
S'--'
p1042
sg13
g10
sg14
S'John Phillips'
p1043
sg16
S'2013'
p1044
sg18
g184
sg20
S'--'
p1045
sg22
S'09/22'
p1046
sg24
S'--'
p1047
sg26
S'--'
p1048
sg28
S'--'
p1049
sg30
S'L17-20'
p1050
sg32
S'--'
p1051
sg34
S'--'
p1052
sg36
S'@TEN'
p1053
sg38
S'--'
p1054
sg40
S'--'
p1055
sg42
S'--'
p1056
ssg202
(dp1057
g5
S'--'
p1058
sg7
S'--'
p1059
sg9
g55
sg11
S'--'
p1060
sg13
g10
sg14
S'John Phillips'
p1061
sg16
S'2013'
p1062
sg18
g202
sg20
S'--'
p1063
sg22
S'09/15'
p1064
sg24
S'--'
p1065
sg26
S'--'
p1066
sg28
S'--'
p1067
sg30
S'W33-30'
p1068
sg32
S'--'
p1069
sg34
S'--'
p1070
sg36
S'@PHI'
p1071
sg38
S'--'
p1072
sg40
S'--'
p1073
sg42
S'--'
p1074
ssg221
(dp1075
g5
S'--'
p1076
sg7
S'--'
p1077
sg9
g55
sg11
S'--'
p1078
sg13
g10
sg14
S'John Phillips'
p1079
sg16
S'2013'
p1080
sg18
g221
sg20
S'--'
p1081
sg22
S'10/06'
p1082
sg24
S'--'
p1083
sg26
S'--'
p1084
sg28
S'--'
p1085
sg30
S'L17-27'
p1086
sg32
S'--'
p1087
sg34
S'--'
p1088
sg36
S'@OAK'
p1089
sg38
S'--'
p1090
sg40
S'--'
p1091
sg42
S'--'
p1092
ssg198
(dp1093
g5
S'--'
p1094
sg7
S'--'
p1095
sg9
g55
sg11
S'--'
p1096
sg13
g10
sg14
S'John Phillips'
p1097
sg16
S'2013'
p1098
sg18
g198
sg20
S'--'
p1099
sg22
S'09/29'
p1100
sg24
S'7.0'
p1101
sg26
S'--'
p1102
sg28
S'--'
p1103
sg30
S'W30-21'
p1104
sg32
g255
sg34
g10
sg36
S'DAL'
p1105
sg38
g255
sg40
g55
sg42
S'--'
p1106
ssg255
(dp1107
g5
S'--'
p1108
sg7
S'--'
p1109
sg9
g10
sg11
S'--'
p1110
sg13
g10
sg14
S'John Phillips'
p1111
sg16
S'2013'
p1112
sg18
g255
sg20
S'--'
p1113
sg22
S'10/20'
p1114
sg24
S'5.0'
p1115
sg26
S'--'
p1116
sg28
S'--'
p1117
sg30
S'W24-6'
p1118
sg32
g221
sg34
g10
sg36
S'@JAC'
p1119
sg38
g221
sg40
g55
sg42
S'--'
p1120
ssg270
(dp1121
g5
S'--'
p1122
sg7
S'--'
p1123
sg9
g10
sg11
S'--'
p1124
sg13
g10
sg14
S'John Phillips'
p1125
sg16
S'2013'
p1126
sg18
g270
sg20
S'--'
p1127
sg22
S'10/14'
p1128
sg24
S'--'
p1129
sg26
S'--'
p1130
sg28
S'--'
p1131
sg30
S'W19-9'
p1132
sg32
S'--'
p1133
sg34
S'--'
p1134
sg36
S'IND'
p1135
sg38
S'--'
p1136
sg40
S'--'
p1137
sg42
S'--'
p1138
ssg163
(dp1139
g5
S'--'
p1140
sg7
S'--'
p1141
sg9
g55
sg11
S'--'
p1142
sg13
g10
sg14
S'John Phillips'
p1143
sg16
S'2013'
p1144
sg18
g163
sg20
S'--'
p1145
sg22
S'11/03'
p1146
sg24
S'--'
p1147
sg26
S'--'
p1148
sg28
S'--'
p1149
sg30
S'L24-30'
p1150
sg32
S'--'
p1151
sg34
S'--'
p1152
sg36
S'@WAS'
p1153
sg38
S'--'
p1154
sg40
S'--'
p1155
sg42
S'--'
p1156
ssg66
(dp1157
g5
g46
sg7
g46
sg9
g46
sg11
g46
sg13
g46
sg14
S'John Phillips'
p1158
sg16
S'2013'
p1159
sg18
g66
sg20
g46
sg22
S'Bye'
p1160
sg24
g46
sg26
g46
sg28
g46
sg30
g46
sg32
g46
sg34
g46
sg36
g46
sg38
g46
sg40
g46
sg42
g46
sssS'2012'
p1161
(dp1162
g3
(dp1163
g5
S'--'
p1164
sg7
S'--'
p1165
sg9
g10
sg11
S'--'
p1166
sg13
g10
sg14
S'John Phillips'
p1167
sg16
S'2012'
p1168
sg18
S'11'
p1169
sg20
S'--'
p1170
sg22
S'11/18'
p1171
sg24
S'--'
p1172
sg26
S'--'
p1173
sg28
S'--'
p1174
sg30
S'W23-20'
p1175
sg32
S'--'
p1176
sg34
S'--'
p1177
sg36
S'CLE'
p1178
sg38
S'--'
p1179
sg40
S'--'
p1180
sg42
S'--'
p1181
ssg44
(dp1182
g5
S'--'
p1183
sg7
S'--'
p1184
sg9
g55
sg11
S'--'
p1185
sg13
g10
sg14
S'John Phillips'
p1186
sg16
S'2012'
p1187
sg18
S'10'
p1188
sg20
S'--'
p1189
sg22
S'11/11'
p1190
sg24
S'--'
p1191
sg26
S'--'
p1192
sg28
S'--'
p1193
sg30
S'W38-23'
p1194
sg32
S'--'
p1195
sg34
S'--'
p1196
sg36
S'@PHI'
p1197
sg38
S'--'
p1198
sg40
S'--'
p1199
sg42
S'--'
p1200
ssg51
(dp1201
g5
S'--'
p1202
sg7
S'--'
p1203
sg9
g55
sg11
S'--'
p1204
sg13
g10
sg14
S'John Phillips'
p1205
sg16
S'2012'
p1206
sg18
S'13'
p1207
sg20
S'--'
p1208
sg22
S'12/02'
p1209
sg24
S'0.0'
p1210
sg26
S'--'
p1211
sg28
S'--'
p1212
sg30
S'W38-33'
p1213
sg32
g55
sg34
g10
sg36
S'PHI'
p1214
sg38
g55
sg40
g55
sg42
S'--'
p1215
ssg69
(dp1216
g5
S'--'
p1217
sg7
S'--'
p1218
sg9
g10
sg11
S'--'
p1219
sg13
g10
sg14
S'John Phillips'
p1220
sg16
S'2012'
p1221
sg18
S'12'
p1222
sg20
S'--'
p1223
sg22
S'11/22'
p1224
sg24
S'--'
p1225
sg26
S'--'
p1226
sg28
S'--'
p1227
sg30
S'L31-38'
p1228
sg32
S'--'
p1229
sg34
S'--'
p1230
sg36
S'WAS'
p1231
sg38
S'--'
p1232
sg40
S'--'
p1233
sg42
S'--'
p1234
ssg89
(dp1235
g5
S'--'
p1236
sg7
S'--'
p1237
sg9
g10
sg11
S'--'
p1238
sg13
g10
sg14
S'John Phillips'
p1239
sg16
S'2012'
p1240
sg18
S'15'
p1241
sg20
S'--'
p1242
sg22
S'12/16'
p1243
sg24
S'--'
p1244
sg26
S'--'
p1245
sg28
S'--'
p1246
sg30
S'W27-24'
p1247
sg32
S'--'
p1248
sg34
S'--'
p1249
sg36
S'PIT'
p1250
sg38
S'--'
p1251
sg40
S'--'
p1252
sg42
S'--'
p1253
ssg109
(dp1254
g5
S'--'
p1255
sg7
S'--'
p1256
sg9
g55
sg11
S'--'
p1257
sg13
g10
sg14
S'John Phillips'
p1258
sg16
S'2012'
p1259
sg18
S'14'
p1260
sg20
S'--'
p1261
sg22
S'12/09'
p1262
sg24
S'--'
p1263
sg26
S'--'
p1264
sg28
S'--'
p1265
sg30
S'W20-19'
p1266
sg32
S'--'
p1267
sg34
S'--'
p1268
sg36
S'@CIN'
p1269
sg38
S'--'
p1270
sg40
S'--'
p1271
sg42
S'--'
p1272
ssg129
(dp1273
g5
S'--'
p1274
sg7
S'--'
p1275
sg9
g10
sg11
S'--'
p1276
sg13
g10
sg14
S'John Phillips'
p1277
sg16
S'2012'
p1278
sg18
S'17'
p1279
sg20
S'--'
p1280
sg22
S'12/30'
p1281
sg24
S'--'
p1282
sg26
S'--'
p1283
sg28
S'--'
p1284
sg30
S'L18-28'
p1285
sg32
S'--'
p1286
sg34
S'--'
p1287
sg36
S'@WAS'
p1288
sg38
S'--'
p1289
sg40
S'--'
p1290
sg42
S'--'
p1291
ssg149
(dp1292
g5
S'--'
p1293
sg7
S'--'
p1294
sg9
g10
sg11
S'--'
p1295
sg13
g10
sg14
S'John Phillips'
p1296
sg16
S'2012'
p1297
sg18
S'16'
p1298
sg20
S'--'
p1299
sg22
S'12/23'
p1300
sg24
S'--'
p1301
sg26
S'--'
p1302
sg28
S'--'
p1303
sg30
S'L31-34'
p1304
sg32
g55
sg34
g55
sg36
S'NO'
p1305
sg38
S'--'
p1306
sg40
g55
sg42
S'--'
p1307
ssg10
(dp1308
g5
S'--'
p1309
sg7
S'--'
p1310
sg9
g55
sg11
S'--'
p1311
sg13
g10
sg14
S'John Phillips'
p1312
sg16
S'2012'
p1313
sg18
g10
sg20
S'--'
p1314
sg22
S'09/05'
p1315
sg24
S'6.0'
p1316
sg26
S'--'
p1317
sg28
S'--'
p1318
sg30
S'W24-17'
p1319
sg32
g270
sg34
g10
sg36
S'@NYG'
p1320
sg38
g270
sg40
g55
sg42
S'--'
p1321
ssg184
(dp1322
g5
S'--'
p1323
sg7
S'--'
p1324
sg9
g55
sg11
S'--'
p1325
sg13
g10
sg14
S'John Phillips'
p1326
sg16
S'2012'
p1327
sg18
g184
sg20
S'--'
p1328
sg22
S'09/23'
p1329
sg24
S'--'
p1330
sg26
S'--'
p1331
sg28
S'--'
p1332
sg30
S'W16-10'
p1333
sg32
S'--'
p1334
sg34
S'--'
p1335
sg36
S'TB'
p1336
sg38
S'--'
p1337
sg40
S'--'
p1338
sg42
S'--'
p1339
ssg202
(dp1340
g5
S'--'
p1341
sg7
S'--'
p1342
sg9
g10
sg11
S'--'
p1343
sg13
g10
sg14
S'John Phillips'
p1344
sg16
S'2012'
p1345
sg18
g202
sg20
S'--'
p1346
sg22
S'09/16'
p1347
sg24
S'8.0'
p1348
sg26
S'--'
p1349
sg28
S'--'
p1350
sg30
S'L7-27'
p1351
sg32
S'16'
p1352
sg34
g202
sg36
S'@SEA'
p1353
sg38
g163
sg40
g55
sg42
S'--'
p1354
ssg221
(dp1355
g5
g46
sg7
g46
sg9
g46
sg11
g46
sg13
g46
sg14
S'John Phillips'
p1356
sg16
S'2012'
p1357
sg18
g221
sg20
g46
sg22
S'Bye'
p1358
sg24
g46
sg26
g46
sg28
g46
sg30
g46
sg32
g46
sg34
g46
sg36
g46
sg38
g46
sg40
g46
sg42
g46
ssg198
(dp1359
g5
S'--'
p1360
sg7
S'--'
p1361
sg9
g55
sg11
S'--'
p1362
sg13
g10
sg14
S'John Phillips'
p1363
sg16
S'2012'
p1364
sg18
g198
sg20
S'--'
p1365
sg22
S'10/01'
p1366
sg24
S'--'
p1367
sg26
S'--'
p1368
sg28
S'--'
p1369
sg30
S'L18-34'
p1370
sg32
S'--'
p1371
sg34
S'--'
p1372
sg36
S'CHI'
p1373
sg38
S'--'
p1374
sg40
S'--'
p1375
sg42
S'--'
p1376
ssg255
(dp1377
g5
S'--'
p1378
sg7
S'--'
p1379
sg9
g10
sg11
S'--'
p1380
sg13
g10
sg14
S'John Phillips'
p1381
sg16
S'2012'
p1382
sg18
g255
sg20
S'--'
p1383
sg22
S'10/21'
p1384
sg24
S'--'
p1385
sg26
S'--'
p1386
sg28
S'--'
p1387
sg30
S'W19-14'
p1388
sg32
S'--'
p1389
sg34
S'--'
p1390
sg36
S'@CAR'
p1391
sg38
S'--'
p1392
sg40
S'--'
p1393
sg42
S'--'
p1394
ssg270
(dp1395
g5
S'--'
p1396
sg7
S'--'
p1397
sg9
g55
sg11
S'--'
p1398
sg13
g10
sg14
S'John Phillips'
p1399
sg16
S'2012'
p1400
sg18
g270
sg20
S'--'
p1401
sg22
S'10/14'
p1402
sg24
S'19.0'
p1403
sg26
S'--'
p1404
sg28
S'--'
p1405
sg30
S'L29-31'
p1406
sg32
S'19'
p1407
sg34
g10
sg36
S'@BAL'
p1408
sg38
S'19'
p1409
sg40
g55
sg42
S'--'
p1410
ssg163
(dp1411
g5
S'--'
p1412
sg7
S'--'
p1413
sg9
g10
sg11
S'--'
p1414
sg13
g10
sg14
S'John Phillips'
p1415
sg16
S'2012'
p1416
sg18
g163
sg20
S'--'
p1417
sg22
S'11/04'
p1418
sg24
S'--'
p1419
sg26
S'--'
p1420
sg28
S'--'
p1421
sg30
S'L13-19'
p1422
sg32
S'--'
p1423
sg34
S'--'
p1424
sg36
S'@ATL'
p1425
sg38
S'--'
p1426
sg40
S'--'
p1427
sg42
S'--'
p1428
ssg66
(dp1429
g5
S'--'
p1430
sg7
S'--'
p1431
sg9
g10
sg11
S'--'
p1432
sg13
g10
sg14
S'John Phillips'
p1433
sg16
S'2012'
p1434
sg18
g66
sg20
S'--'
p1435
sg22
S'10/28'
p1436
sg24
S'4.7'
p1437
sg26
S'--'
p1438
sg28
S'--'
p1439
sg30
S'L24-29'
p1440
sg32
S'14'
p1441
sg34
g184
sg36
S'NYG'
p1442
sg38
g66
sg40
g10
sg42
S'--'
p1443
sss.