(dp0
S'2015'
p1
(dp2
S'11'
p3
(dp4
S'RushTD'
p5
S'--'
p6
sS'RushYds'
p7
S'--'
p8
sS'GS'
p9
S'0'
p10
sS'Lost'
p11
S'1'
p12
sS'G'
p13
g12
sS'Player'
p14
S'Jordan Reed'
p15
sS'Year'
p16
S'2015'
p17
sS'WK'
p18
S'11'
p19
sS'RushAvg'
p20
S'--'
p21
sS'Game Date'
p22
S'11/22'
p23
sS'RecAvg'
p24
S'7.7'
p25
sS'FUM'
p26
g12
sS'RushAtt'
p27
S'--'
p28
sS'Result'
p29
S'L16-44'
p30
sS'RecYds'
p31
S'46'
p32
sS'Rec'
p33
S'6'
p34
sS'Opp'
p35
S'@CAR'
p36
sS'RecLng'
p37
S'13'
p38
sS'RecTD'
p39
g10
sS'RushLng'
p40
S'--'
p41
ssS'10'
p42
(dp43
g5
S'--'
p44
sg7
S'--'
p45
sg9
g10
sg11
S'--'
p46
sg13
g12
sg14
S'Jordan Reed'
p47
sg16
S'2015'
p48
sg18
S'10'
p49
sg20
S'--'
p50
sg22
S'11/15'
p51
sg24
S'9.7'
p52
sg26
S'--'
p53
sg27
S'--'
p54
sg29
S'W47-14'
p55
sg31
S'29'
p56
sg33
S'3'
p57
sg35
S'NO'
p58
sg37
S'16T'
p59
sg39
S'2'
p60
sg40
S'--'
p61
ssS'13'
p62
(dp63
g5
S'--'
p64
sg7
S'--'
p65
sg9
g12
sg11
S'--'
p66
sg13
g12
sg14
S'Jordan Reed'
p67
sg16
S'2015'
p68
sg18
S'13'
p69
sg20
S'--'
p70
sg22
S'12/07'
p71
sg24
S'11.0'
p72
sg26
S'--'
p73
sg27
S'--'
p74
sg29
S'L16-19'
p75
sg31
S'33'
p76
sg33
g57
sg35
S'DAL'
p77
sg37
S'16'
p78
sg39
g10
sg40
S'--'
p79
ssS'12'
p80
(dp81
g5
S'--'
p82
sg7
S'--'
p83
sg9
g12
sg11
S'--'
p84
sg13
g12
sg14
S'Jordan Reed'
p85
sg16
S'2015'
p86
sg18
S'12'
p87
sg20
S'--'
p88
sg22
S'11/29'
p89
sg24
S'12.3'
p90
sg26
S'--'
p91
sg27
S'--'
p92
sg29
S'W20-14'
p93
sg31
S'98'
p94
sg33
S'8'
p95
sg35
S'NYG'
p96
sg37
S'26'
p97
sg39
g10
sg40
S'--'
p98
ssS'15'
p99
(dp100
g5
S'--'
p101
sg7
S'--'
p102
sg9
g12
sg11
S'--'
p103
sg13
g12
sg14
S'Jordan Reed'
p104
sg16
S'2015'
p105
sg18
S'15'
p106
sg20
S'--'
p107
sg22
S'12/20'
p108
sg24
S'12.0'
p109
sg26
S'--'
p110
sg27
S'--'
p111
sg29
S'W35-25'
p112
sg31
S'84'
p113
sg33
S'7'
p114
sg35
S'BUF'
p115
sg37
S'24'
p116
sg39
g60
sg40
S'--'
p117
ssS'14'
p118
(dp119
g5
S'--'
p120
sg7
S'--'
p121
sg9
g10
sg11
S'--'
p122
sg13
g12
sg14
S'Jordan Reed'
p123
sg16
S'2015'
p124
sg18
S'14'
p125
sg20
S'--'
p126
sg22
S'12/13'
p127
sg24
S'13.3'
p128
sg26
S'--'
p129
sg27
S'--'
p130
sg29
S'W24-21'
p131
sg31
S'120'
p132
sg33
S'9'
p133
sg35
S'@CHI'
p134
sg37
S'32'
p135
sg39
g12
sg40
S'--'
p136
ssS'17'
p137
(dp138
g5
S'--'
p139
sg7
S'--'
p140
sg9
g12
sg11
g10
sg13
g12
sg14
S'Jordan Reed'
p141
sg16
S'2015'
p142
sg18
S'17'
p143
sg20
S'--'
p144
sg22
S'01/03'
p145
sg24
S'11.3'
p146
sg26
g12
sg27
S'--'
p147
sg29
S'W34-23'
p148
sg31
S'45'
p149
sg33
S'4'
p150
sg35
S'@DAL'
p151
sg37
S'26'
p152
sg39
g10
sg40
S'--'
p153
ssS'16'
p154
(dp155
g5
S'--'
p156
sg7
S'--'
p157
sg9
g12
sg11
S'--'
p158
sg13
g12
sg14
S'Jordan Reed'
p159
sg16
S'2015'
p160
sg18
S'16'
p161
sg20
S'--'
p162
sg22
S'12/26'
p163
sg24
S'14.3'
p164
sg26
S'--'
p165
sg27
S'--'
p166
sg29
S'W38-24'
p167
sg31
S'129'
p168
sg33
g133
sg35
S'@PHI'
p169
sg37
S'28'
p170
sg39
g60
sg40
S'--'
p171
ssg12
(dp172
g5
S'--'
p173
sg7
S'--'
p174
sg9
g10
sg11
S'--'
p175
sg13
g12
sg14
S'Jordan Reed'
p176
sg16
S'2015'
p177
sg18
g12
sg20
S'--'
p178
sg22
S'09/13'
p179
sg24
S'9.0'
p180
sg26
S'--'
p181
sg27
S'--'
p182
sg29
S'L10-17'
p183
sg31
S'63'
p184
sg33
g114
sg35
S'MIA'
p185
sg37
S'25'
p186
sg39
g12
sg40
S'--'
p187
ssg57
(dp188
g5
S'--'
p189
sg7
S'--'
p190
sg9
g12
sg11
S'--'
p191
sg13
g12
sg14
S'Jordan Reed'
p192
sg16
S'2015'
p193
sg18
g57
sg20
S'--'
p194
sg22
S'09/24'
p195
sg24
S'16.0'
p196
sg26
S'--'
p197
sg27
S'--'
p198
sg29
S'L21-32'
p199
sg31
S'96'
p200
sg33
g34
sg35
S'@NYG'
p201
sg37
S'26'
p202
sg39
g10
sg40
S'--'
p203
ssg60
(dp204
g5
S'--'
p205
sg7
S'--'
p206
sg9
g12
sg11
S'--'
p207
sg13
g12
sg14
S'Jordan Reed'
p208
sg16
S'2015'
p209
sg18
g60
sg20
S'--'
p210
sg22
S'09/20'
p211
sg24
S'13.7'
p212
sg26
S'--'
p213
sg27
S'--'
p214
sg29
S'W24-10'
p215
sg31
S'82'
p216
sg33
g34
sg35
S'STL'
p217
sg37
S'29'
p218
sg39
g10
sg40
S'--'
p219
ssS'5'
p220
(dp221
g5
S'--'
p222
sg7
S'--'
p223
sg9
g10
sg11
S'--'
p224
sg13
g10
sg14
S'Jordan Reed'
p225
sg16
S'2015'
p226
sg18
g220
sg20
S'--'
p227
sg22
S'10/11'
p228
sg24
S'--'
p229
sg26
S'--'
p230
sg27
S'--'
p231
sg29
S'L19-25'
p232
sg31
S'--'
p233
sg33
S'--'
p234
sg35
S'@ATL'
p235
sg37
S'--'
p236
sg39
S'--'
p237
sg40
S'--'
p238
ssg150
(dp239
g5
S'--'
p240
sg7
S'--'
p241
sg9
g12
sg11
g12
sg13
g12
sg14
S'Jordan Reed'
p242
sg16
S'2015'
p243
sg18
g150
sg20
S'--'
p244
sg22
S'10/04'
p245
sg24
S'7.4'
p246
sg26
g12
sg27
S'--'
p247
sg29
S'W23-20'
p248
sg31
S'37'
p249
sg33
g220
sg35
S'PHI'
p250
sg37
S'15'
p251
sg39
g10
sg40
S'--'
p252
ssg114
(dp253
g5
S'--'
p254
sg7
S'--'
p255
sg9
g10
sg11
S'--'
p256
sg13
g12
sg14
S'Jordan Reed'
p257
sg16
S'2015'
p258
sg18
g114
sg20
S'--'
p259
sg22
S'10/25'
p260
sg24
S'6.5'
p261
sg26
S'--'
p262
sg27
S'--'
p263
sg29
S'W31-30'
p264
sg31
S'72'
p265
sg33
S'11'
p266
sg35
S'TB'
p267
sg37
S'13'
p268
sg39
g60
sg40
S'--'
p269
ssg34
(dp270
g5
S'--'
p271
sg7
S'--'
p272
sg9
g10
sg11
S'--'
p273
sg13
g10
sg14
S'Jordan Reed'
p274
sg16
S'2015'
p275
sg18
g34
sg20
S'--'
p276
sg22
S'10/18'
p277
sg24
S'--'
p278
sg26
S'--'
p279
sg27
S'--'
p280
sg29
S'L20-34'
p281
sg31
S'--'
p282
sg33
S'--'
p283
sg35
S'@NYJ'
p284
sg37
S'--'
p285
sg39
S'--'
p286
sg40
S'--'
p287
ssg133
(dp288
g5
S'--'
p289
sg7
S'--'
p290
sg9
g10
sg11
S'--'
p291
sg13
g12
sg14
S'Jordan Reed'
p292
sg16
S'2015'
p293
sg18
g133
sg20
S'--'
p294
sg22
S'11/08'
p295
sg24
S'6.0'
p296
sg26
S'--'
p297
sg27
S'--'
p298
sg29
S'L10-27'
p299
sg31
S'18'
p300
sg33
g57
sg35
S'@NE'
p301
sg37
g133
sg39
g12
sg40
S'--'
p302
ssg95
(dp303
g5
S''
p304
sg7
g304
sg9
g304
sg11
g304
sg13
g304
sg14
S'Jordan Reed'
p305
sg16
S'2015'
p306
sg18
g95
sg20
g304
sg22
S'Bye'
p307
sg24
g304
sg26
g304
sg27
g304
sg29
g304
sg31
g304
sg33
g304
sg35
g304
sg37
g304
sg39
g304
sg40
g304
sssS'2014'
p308
(dp309
g3
(dp310
g5
S'--'
p311
sg7
S'--'
p312
sg9
g12
sg11
S'--'
p313
sg13
g12
sg14
S'Jordan Reed'
p314
sg16
S'2014'
p315
sg18
S'11'
p316
sg20
S'--'
p317
sg22
S'11/16'
p318
sg24
S'11.0'
p319
sg26
S'--'
p320
sg27
S'--'
p321
sg29
S'L7-27'
p322
sg31
S'22'
p323
sg33
g60
sg35
S'TB'
p324
sg37
S'12'
p325
sg39
g10
sg40
S'--'
p326
ssg42
(dp327
g5
g304
sg7
g304
sg9
g304
sg11
g304
sg13
g304
sg14
S'Jordan Reed'
p328
sg16
S'2014'
p329
sg18
S'10'
p330
sg20
g304
sg22
S'Bye'
p331
sg24
g304
sg26
g304
sg27
g304
sg29
g304
sg31
g304
sg33
g304
sg35
g304
sg37
g304
sg39
g304
sg40
g304
ssg62
(dp332
g5
S'--'
p333
sg7
S'--'
p334
sg9
g10
sg11
S'--'
p335
sg13
g12
sg14
S'Jordan Reed'
p336
sg16
S'2014'
p337
sg18
S'13'
p338
sg20
S'--'
p339
sg22
S'11/30'
p340
sg24
S'13.7'
p341
sg26
S'--'
p342
sg27
S'--'
p343
sg29
S'L27-49'
p344
sg31
S'123'
p345
sg33
g133
sg35
S'@IND'
p346
sg37
S'30'
p347
sg39
g10
sg40
S'--'
p348
ssg80
(dp349
g5
S'--'
p350
sg7
S'--'
p351
sg9
g10
sg11
S'--'
p352
sg13
g10
sg14
S'Jordan Reed'
p353
sg16
S'2014'
p354
sg18
S'12'
p355
sg20
S'--'
p356
sg22
S'11/23'
p357
sg24
S'--'
p358
sg26
S'--'
p359
sg27
S'--'
p360
sg29
S'L13-17'
p361
sg31
S'--'
p362
sg33
S'--'
p363
sg35
S'@SF'
p364
sg37
S'--'
p365
sg39
S'--'
p366
sg40
S'--'
p367
ssg99
(dp368
g5
S'--'
p369
sg7
S'--'
p370
sg9
g10
sg11
S'--'
p371
sg13
g12
sg14
S'Jordan Reed'
p372
sg16
S'2014'
p373
sg18
S'15'
p374
sg20
S'--'
p375
sg22
S'12/14'
p376
sg24
S'4.3'
p377
sg26
S'--'
p378
sg27
S'--'
p379
sg29
S'L13-24'
p380
sg31
S'13'
p381
sg33
g57
sg35
S'@NYG'
p382
sg37
g114
sg39
g10
sg40
S'--'
p383
ssg118
(dp384
g5
S'--'
p385
sg7
S'--'
p386
sg9
g12
sg11
S'--'
p387
sg13
g12
sg14
S'Jordan Reed'
p388
sg16
S'2014'
p389
sg18
S'14'
p390
sg20
S'--'
p391
sg22
S'12/07'
p392
sg24
S'8.3'
p393
sg26
S'--'
p394
sg27
S'--'
p395
sg29
S'L0-24'
p396
sg31
S'25'
p397
sg33
g57
sg35
S'STL'
p398
sg37
S'11'
p399
sg39
g10
sg40
S'--'
p400
ssg137
(dp401
g5
S'--'
p402
sg7
S'--'
p403
sg9
g10
sg11
g12
sg13
g12
sg14
S'Jordan Reed'
p404
sg16
S'2014'
p405
sg18
S'17'
p406
sg20
S'--'
p407
sg22
S'12/28'
p408
sg24
S'7.8'
p409
sg26
g12
sg27
S'--'
p410
sg29
S'L17-44'
p411
sg31
S'70'
p412
sg33
g133
sg35
S'DAL'
p413
sg37
S'16'
p414
sg39
g10
sg40
S'--'
p415
ssg154
(dp416
g5
S'--'
p417
sg7
S'--'
p418
sg9
g10
sg11
S'--'
p419
sg13
g12
sg14
S'Jordan Reed'
p420
sg16
S'2014'
p421
sg18
S'16'
p422
sg20
S'--'
p423
sg22
S'12/20'
p424
sg24
S'2.5'
p425
sg26
S'--'
p426
sg27
S'--'
p427
sg29
S'W27-24'
p428
sg31
g220
sg33
g60
sg35
S'PHI'
p429
sg37
g150
sg39
g10
sg40
S'--'
p430
ssg12
(dp431
g5
S'--'
p432
sg7
S'--'
p433
sg9
g10
sg11
S'--'
p434
sg13
g12
sg14
S'Jordan Reed'
p435
sg16
S'2014'
p436
sg18
g12
sg20
S'--'
p437
sg22
S'09/07'
p438
sg24
S'4.0'
p439
sg26
S'--'
p440
sg27
S'--'
p441
sg29
S'L6-17'
p442
sg31
g150
sg33
g12
sg35
S'@HOU'
p443
sg37
g150
sg39
g10
sg40
S'--'
p444
ssg57
(dp445
g5
S'--'
p446
sg7
S'--'
p447
sg9
g10
sg11
S'--'
p448
sg13
g10
sg14
S'Jordan Reed'
p449
sg16
S'2014'
p450
sg18
g57
sg20
S'--'
p451
sg22
S'09/21'
p452
sg24
S'--'
p453
sg26
S'--'
p454
sg27
S'--'
p455
sg29
S'L34-37'
p456
sg31
S'--'
p457
sg33
S'--'
p458
sg35
S'@PHI'
p459
sg37
S'--'
p460
sg39
S'--'
p461
sg40
S'--'
p462
ssg60
(dp463
g5
S'--'
p464
sg7
S'--'
p465
sg9
g10
sg11
S'--'
p466
sg13
g10
sg14
S'Jordan Reed'
p467
sg16
S'2014'
p468
sg18
g60
sg20
S'--'
p469
sg22
S'09/14'
p470
sg24
S'--'
p471
sg26
S'--'
p472
sg27
S'--'
p473
sg29
S'W41-10'
p474
sg31
S'--'
p475
sg33
S'--'
p476
sg35
S'JAC'
p477
sg37
S'--'
p478
sg39
S'--'
p479
sg40
S'--'
p480
ssg220
(dp481
g5
S'--'
p482
sg7
S'--'
p483
sg9
g10
sg11
S'--'
p484
sg13
g10
sg14
S'Jordan Reed'
p485
sg16
S'2014'
p486
sg18
g220
sg20
S'--'
p487
sg22
S'10/06'
p488
sg24
S'--'
p489
sg26
S'--'
p490
sg27
S'--'
p491
sg29
S'L17-27'
p492
sg31
S'--'
p493
sg33
S'--'
p494
sg35
S'SEA'
p495
sg37
S'--'
p496
sg39
S'--'
p497
sg40
S'--'
p498
ssg150
(dp499
g5
S'--'
p500
sg7
S'--'
p501
sg9
g10
sg11
S'--'
p502
sg13
g10
sg14
S'Jordan Reed'
p503
sg16
S'2014'
p504
sg18
g150
sg20
S'--'
p505
sg22
S'09/25'
p506
sg24
S'--'
p507
sg26
S'--'
p508
sg27
S'--'
p509
sg29
S'L14-45'
p510
sg31
S'--'
p511
sg33
S'--'
p512
sg35
S'NYG'
p513
sg37
S'--'
p514
sg39
S'--'
p515
sg40
S'--'
p516
ssg114
(dp517
g5
S'--'
p518
sg7
S'--'
p519
sg9
g10
sg11
S'--'
p520
sg13
g12
sg14
S'Jordan Reed'
p521
sg16
S'2014'
p522
sg18
g114
sg20
S'--'
p523
sg22
S'10/19'
p524
sg24
S'10.8'
p525
sg26
S'--'
p526
sg27
S'--'
p527
sg29
S'W19-17'
p528
sg31
S'54'
p529
sg33
g220
sg35
S'TEN'
p530
sg37
S'22'
p531
sg39
g10
sg40
S'--'
p532
ssg34
(dp533
g5
S'--'
p534
sg7
S'--'
p535
sg9
g10
sg11
S'--'
p536
sg13
g12
sg14
S'Jordan Reed'
p537
sg16
S'2014'
p538
sg18
g34
sg20
S'--'
p539
sg22
S'10/12'
p540
sg24
S'11.5'
p541
sg26
S'--'
p542
sg27
S'--'
p543
sg29
S'L20-30'
p544
sg31
S'92'
p545
sg33
g95
sg35
S'@ARI'
p546
sg37
S'20'
p547
sg39
g10
sg40
S'--'
p548
ssg133
(dp549
g5
S'--'
p550
sg7
S'--'
p551
sg9
g10
sg11
S'--'
p552
sg13
g12
sg14
S'Jordan Reed'
p553
sg16
S'2014'
p554
sg18
g133
sg20
S'--'
p555
sg22
S'11/02'
p556
sg24
S'17.0'
p557
sg26
S'--'
p558
sg27
S'--'
p559
sg29
S'L26-29'
p560
sg31
S'17'
p561
sg33
g12
sg35
S'@MIN'
p562
sg37
S'17'
p563
sg39
g10
sg40
S'--'
p564
ssg95
(dp565
g5
S'--'
p566
sg7
S'--'
p567
sg9
g10
sg11
S'--'
p568
sg13
g12
sg14
S'Jordan Reed'
p569
sg16
S'2014'
p570
sg18
g95
sg20
S'--'
p571
sg22
S'10/27'
p572
sg24
S'5.7'
p573
sg26
S'--'
p574
sg27
S'--'
p575
sg29
S'W20-17'
p576
sg31
S'40'
p577
sg33
g114
sg35
S'@DAL'
p578
sg37
S'16'
p579
sg39
g10
sg40
S'--'
p580
sssS'2013'
p581
(dp582
g3
(dp583
g5
S'--'
p584
sg7
S'--'
p585
sg9
g12
sg11
S'--'
p586
sg13
g12
sg14
S'Jordan Reed'
p587
sg16
S'2013'
p588
sg18
S'11'
p589
sg20
S'--'
p590
sg22
S'11/17'
p591
sg24
S'12.0'
p592
sg26
S'--'
p593
sg27
S'--'
p594
sg29
S'L16-24'
p595
sg31
S'12'
p596
sg33
g12
sg35
S'@PHI'
p597
sg37
S'12'
p598
sg39
g10
sg40
S'--'
p599
ssg42
(dp600
g5
S'--'
p601
sg7
S'--'
p602
sg9
g12
sg11
S'--'
p603
sg13
g12
sg14
S'Jordan Reed'
p604
sg16
S'2013'
p605
sg18
S'10'
p606
sg20
S'--'
p607
sg22
S'11/07'
p608
sg24
S'10.3'
p609
sg26
S'--'
p610
sg27
S'--'
p611
sg29
S'L27-34'
p612
sg31
S'62'
p613
sg33
g34
sg35
S'@MIN'
p614
sg37
S'17'
p615
sg39
g12
sg40
S'--'
p616
ssg62
(dp617
g5
S'--'
p618
sg7
S'--'
p619
sg9
g10
sg11
S'--'
p620
sg13
g10
sg14
S'Jordan Reed'
p621
sg16
S'2013'
p622
sg18
S'13'
p623
sg20
S'--'
p624
sg22
S'12/01'
p625
sg24
S'--'
p626
sg26
S'--'
p627
sg27
S'--'
p628
sg29
S'L17-24'
p629
sg31
S'--'
p630
sg33
S'--'
p631
sg35
S'NYG'
p632
sg37
S'--'
p633
sg39
S'--'
p634
sg40
S'--'
p635
ssg80
(dp636
g5
S'--'
p637
sg7
S'--'
p638
sg9
g10
sg11
S'--'
p639
sg13
g10
sg14
S'Jordan Reed'
p640
sg16
S'2013'
p641
sg18
S'12'
p642
sg20
S'--'
p643
sg22
S'11/25'
p644
sg24
S'--'
p645
sg26
S'--'
p646
sg27
S'--'
p647
sg29
S'L6-27'
p648
sg31
S'--'
p649
sg33
S'--'
p650
sg35
S'SF'
p651
sg37
S'--'
p652
sg39
S'--'
p653
sg40
S'--'
p654
ssg99
(dp655
g5
S'--'
p656
sg7
S'--'
p657
sg9
g10
sg11
S'--'
p658
sg13
g10
sg14
S'Jordan Reed'
p659
sg16
S'2013'
p660
sg18
S'15'
p661
sg20
S'--'
p662
sg22
S'12/15'
p663
sg24
S'--'
p664
sg26
S'--'
p665
sg27
S'--'
p666
sg29
S'L26-27'
p667
sg31
S'--'
p668
sg33
S'--'
p669
sg35
S'@ATL'
p670
sg37
S'--'
p671
sg39
S'--'
p672
sg40
S'--'
p673
ssg118
(dp674
g5
S'--'
p675
sg7
S'--'
p676
sg9
g10
sg11
S'--'
p677
sg13
g10
sg14
S'Jordan Reed'
p678
sg16
S'2013'
p679
sg18
S'14'
p680
sg20
S'--'
p681
sg22
S'12/08'
p682
sg24
S'--'
p683
sg26
S'--'
p684
sg27
S'--'
p685
sg29
S'L10-45'
p686
sg31
S'--'
p687
sg33
S'--'
p688
sg35
S'KC'
p689
sg37
S'--'
p690
sg39
S'--'
p691
sg40
S'--'
p692
ssg12
(dp693
g5
S'--'
p694
sg7
S'--'
p695
sg9
g10
sg11
S'--'
p696
sg13
g12
sg14
S'Jordan Reed'
p697
sg16
S'2013'
p698
sg18
g12
sg20
S'--'
p699
sg22
S'09/09'
p700
sg24
S'7.6'
p701
sg26
S'--'
p702
sg27
S'--'
p703
sg29
S'L27-33'
p704
sg31
S'38'
p705
sg33
g220
sg35
S'PHI'
p706
sg37
S'11'
p707
sg39
g10
sg40
S'--'
p708
ssg57
(dp709
g5
S'--'
p710
sg7
S'--'
p711
sg9
g10
sg11
S'--'
p712
sg13
g12
sg14
S'Jordan Reed'
p713
sg16
S'2013'
p714
sg18
g57
sg20
S'--'
p715
sg22
S'09/22'
p716
sg24
S'10.0'
p717
sg26
S'--'
p718
sg27
S'--'
p719
sg29
S'L20-27'
p720
sg31
S'50'
p721
sg33
g220
sg35
S'DET'
p722
sg37
S'12'
p723
sg39
g10
sg40
S'--'
p724
ssg60
(dp725
g5
S'--'
p726
sg7
S'--'
p727
sg9
g10
sg11
S'--'
p728
sg13
g12
sg14
S'Jordan Reed'
p729
sg16
S'2013'
p730
sg18
g60
sg20
S'--'
p731
sg22
S'09/15'
p732
sg24
S'6.0'
p733
sg26
S'--'
p734
sg27
S'--'
p735
sg29
S'L20-38'
p736
sg31
S'18'
p737
sg33
g57
sg35
S'@GB'
p738
sg37
S'11'
p739
sg39
g12
sg40
S'--'
p740
ssg220
(dp741
g5
g304
sg7
g304
sg9
g304
sg11
g304
sg13
g304
sg14
S'Jordan Reed'
p742
sg16
S'2013'
p743
sg18
g220
sg20
g304
sg22
S'Bye'
p744
sg24
g304
sg26
g304
sg27
g304
sg29
g304
sg31
g304
sg33
g304
sg35
g304
sg37
g304
sg39
g304
sg40
g304
ssg150
(dp745
g5
S'--'
p746
sg7
S'--'
p747
sg9
g10
sg11
S'--'
p748
sg13
g10
sg14
S'Jordan Reed'
p749
sg16
S'2013'
p750
sg18
g150
sg20
S'--'
p751
sg22
S'09/29'
p752
sg24
S'--'
p753
sg26
S'--'
p754
sg27
S'--'
p755
sg29
S'W24-14'
p756
sg31
S'--'
p757
sg33
S'--'
p758
sg35
S'@OAK'
p759
sg37
S'--'
p760
sg39
S'--'
p761
sg40
S'--'
p762
ssg114
(dp763
g5
S'--'
p764
sg7
S'--'
p765
sg9
g10
sg11
S'--'
p766
sg13
g12
sg14
S'Jordan Reed'
p767
sg16
S'2013'
p768
sg18
g114
sg20
S'--'
p769
sg22
S'10/20'
p770
sg24
S'14.9'
p771
sg26
S'--'
p772
sg27
S'--'
p773
sg29
S'W45-41'
p774
sg31
S'134'
p775
sg33
g133
sg35
S'CHI'
p776
sg37
S'38'
p777
sg39
g12
sg40
S'--'
p778
ssg34
(dp779
g5
S'--'
p780
sg7
S'--'
p781
sg9
g10
sg11
S'--'
p782
sg13
g12
sg14
S'Jordan Reed'
p783
sg16
S'2013'
p784
sg18
g34
sg20
S'--'
p785
sg22
S'10/13'
p786
sg24
S'14.5'
p787
sg26
S'--'
p788
sg27
S'--'
p789
sg29
S'L16-31'
p790
sg31
S'58'
p791
sg33
g150
sg35
S'@DAL'
p792
sg37
S'29'
p793
sg39
g10
sg40
S'--'
p794
ssg133
(dp795
g5
g10
sg7
S'18'
p796
sg9
g12
sg11
S'--'
p797
sg13
g12
sg14
S'Jordan Reed'
p798
sg16
S'2013'
p799
sg18
g133
sg20
S'18.0'
p800
sg22
S'11/03'
p801
sg24
S'9.3'
p802
sg26
S'--'
p803
sg27
g12
sg29
S'W30-24'
p804
sg31
S'37'
p805
sg33
g150
sg35
S'SD'
p806
sg37
S'14'
p807
sg39
g10
sg40
S'18'
p808
ssg95
(dp809
g5
S'--'
p810
sg7
S'--'
p811
sg9
g12
sg11
S'--'
p812
sg13
g12
sg14
S'Jordan Reed'
p813
sg16
S'2013'
p814
sg18
g95
sg20
S'--'
p815
sg22
S'10/27'
p816
sg24
S'11.3'
p817
sg26
S'--'
p818
sg27
S'--'
p819
sg29
S'L21-45'
p820
sg31
S'90'
p821
sg33
g95
sg35
S'@DEN'
p822
sg37
S'17'
p823
sg39
g10
sg40
S'--'
p824
sss.