(dp0
S'2015'
p1
(dp2
S'11'
p3
(dp4
S'RushTD'
p5
S''
p6
sS'RushYds'
p7
g6
sS'GS'
p8
g6
sS'Lost'
p9
g6
sS'G'
p10
g6
sS'Player'
p11
S'Josh Hill'
p12
sS'Year'
p13
S'2015'
p14
sS'WK'
p15
S'11'
p16
sS'RushAvg'
p17
g6
sS'Game Date'
p18
S'Bye'
p19
sS'RecAvg'
p20
g6
sS'FUM'
p21
g6
sS'RushAtt'
p22
g6
sS'Result'
p23
g6
sS'RecYds'
p24
g6
sS'Rec'
p25
g6
sS'Opp'
p26
g6
sS'RecLng'
p27
g6
sS'RecTD'
p28
g6
sS'RushLng'
p29
g6
ssS'10'
p30
(dp31
g5
S'--'
p32
sg7
S'--'
p33
sg8
S'0'
p34
sg9
S'--'
p35
sg10
S'1'
p36
sg11
S'Josh Hill'
p37
sg13
S'2015'
p38
sg15
S'10'
p39
sg17
S'--'
p40
sg18
S'11/15'
p41
sg20
S'--'
p42
sg21
S'--'
p43
sg22
S'--'
p44
sg23
S'L14-47'
p45
sg24
S'--'
p46
sg25
S'--'
p47
sg26
S'@WAS'
p48
sg27
S'--'
p49
sg28
S'--'
p50
sg29
S'--'
p51
ssS'13'
p52
(dp53
g5
S'--'
p54
sg7
S'--'
p55
sg8
g34
sg9
S'--'
p56
sg10
g36
sg11
S'Josh Hill'
p57
sg13
S'2015'
p58
sg15
S'13'
p59
sg17
S'--'
p60
sg18
S'12/06'
p61
sg20
S'5.5'
p62
sg21
S'--'
p63
sg22
S'--'
p64
sg23
S'L38-41'
p65
sg24
S'11'
p66
sg25
S'2'
p67
sg26
S'CAR'
p68
sg27
S'7'
p69
sg28
g34
sg29
S'--'
p70
ssS'12'
p71
(dp72
g5
S'--'
p73
sg7
S'--'
p74
sg8
g34
sg9
S'--'
p75
sg10
g36
sg11
S'Josh Hill'
p76
sg13
S'2015'
p77
sg15
S'12'
p78
sg17
S'--'
p79
sg18
S'11/29'
p80
sg20
S'--'
p81
sg21
S'--'
p82
sg22
S'--'
p83
sg23
S'L6-24'
p84
sg24
g34
sg25
g34
sg26
S'@HOU'
p85
sg27
S'--'
p86
sg28
g34
sg29
S'--'
p87
ssS'15'
p88
(dp89
g5
S'--'
p90
sg7
S'--'
p91
sg8
g34
sg9
S'--'
p92
sg10
g36
sg11
S'Josh Hill'
p93
sg13
S'2015'
p94
sg15
S'15'
p95
sg17
S'--'
p96
sg18
S'12/21'
p97
sg20
S'--'
p98
sg21
S'--'
p99
sg22
S'--'
p100
sg23
S'L27-35'
p101
sg24
S'--'
p102
sg25
S'--'
p103
sg26
S'DET'
p104
sg27
S'--'
p105
sg28
S'--'
p106
sg29
S'--'
p107
ssS'14'
p108
(dp109
g5
S'--'
p110
sg7
S'--'
p111
sg8
g36
sg9
S'--'
p112
sg10
g36
sg11
S'Josh Hill'
p113
sg13
S'2015'
p114
sg15
S'14'
p115
sg17
S'--'
p116
sg18
S'12/13'
p117
sg20
S'6.0'
p118
sg21
S'--'
p119
sg22
S'--'
p120
sg23
S'W24-17'
p121
sg24
S'6'
p122
sg25
g36
sg26
S'@TB'
p123
sg27
g122
sg28
g34
sg29
S'--'
p124
ssS'17'
p125
(dp126
g5
S'--'
p127
sg7
S'--'
p128
sg8
g34
sg9
S'--'
p129
sg10
g36
sg11
S'Josh Hill'
p130
sg13
S'2015'
p131
sg15
S'17'
p132
sg17
S'--'
p133
sg18
S'01/03'
p134
sg20
S'4.0'
p135
sg21
S'--'
p136
sg22
S'--'
p137
sg23
S'W20-17'
p138
sg24
S'4'
p139
sg25
g36
sg26
S'@ATL'
p140
sg27
g139
sg28
g34
sg29
S'--'
p141
ssS'16'
p142
(dp143
g5
S'--'
p144
sg7
S'--'
p145
sg8
g36
sg9
S'--'
p146
sg10
g36
sg11
S'Josh Hill'
p147
sg13
S'2015'
p148
sg15
S'16'
p149
sg17
S'--'
p150
sg18
S'12/27'
p151
sg20
S'6.0'
p152
sg21
S'--'
p153
sg22
S'--'
p154
sg23
S'W38-27'
p155
sg24
S'12'
p156
sg25
g67
sg26
S'JAC'
p157
sg27
g122
sg28
g34
sg29
S'--'
p158
ssg36
(dp159
g5
S'--'
p160
sg7
S'--'
p161
sg8
g34
sg9
S'--'
p162
sg10
g36
sg11
S'Josh Hill'
p163
sg13
S'2015'
p164
sg15
g36
sg17
S'--'
p165
sg18
S'09/13'
p166
sg20
S'--'
p167
sg21
S'--'
p168
sg22
S'--'
p169
sg23
S'L19-31'
p170
sg24
S'--'
p171
sg25
S'--'
p172
sg26
S'@ARI'
p173
sg27
S'--'
p174
sg28
S'--'
p175
sg29
S'--'
p176
ssS'3'
p177
(dp178
g5
S'--'
p179
sg7
S'--'
p180
sg8
g34
sg9
S'--'
p181
sg10
g36
sg11
S'Josh Hill'
p182
sg13
S'2015'
p183
sg15
g177
sg17
S'--'
p184
sg18
S'09/27'
p185
sg20
S'10.0'
p186
sg21
S'--'
p187
sg22
S'--'
p188
sg23
S'L22-27'
p189
sg24
S'10'
p190
sg25
g36
sg26
S'@CAR'
p191
sg27
S'10'
p192
sg28
g34
sg29
S'--'
p193
ssg67
(dp194
g5
S'--'
p195
sg7
S'--'
p196
sg8
g36
sg9
S'--'
p197
sg10
g36
sg11
S'Josh Hill'
p198
sg13
S'2015'
p199
sg15
g67
sg17
S'--'
p200
sg18
S'09/20'
p201
sg20
S'2.0'
p202
sg21
S'--'
p203
sg22
S'--'
p204
sg23
S'L19-26'
p205
sg24
g67
sg25
g36
sg26
S'TB'
p206
sg27
g67
sg28
g34
sg29
S'--'
p207
ssS'5'
p208
(dp209
g5
S'--'
p210
sg7
S'--'
p211
sg8
g34
sg9
S'--'
p212
sg10
g36
sg11
S'Josh Hill'
p213
sg13
S'2015'
p214
sg15
g208
sg17
S'--'
p215
sg18
S'10/11'
p216
sg20
S'--'
p217
sg21
S'--'
p218
sg22
S'--'
p219
sg23
S'L17-39'
p220
sg24
g34
sg25
g34
sg26
S'@PHI'
p221
sg27
S'--'
p222
sg28
g34
sg29
S'--'
p223
ssg139
(dp224
g5
S'--'
p225
sg7
S'--'
p226
sg8
g36
sg9
S'--'
p227
sg10
g36
sg11
S'Josh Hill'
p228
sg13
S'2015'
p229
sg15
g139
sg17
S'--'
p230
sg18
S'10/04'
p231
sg20
S'5.5'
p232
sg21
S'--'
p233
sg22
S'--'
p234
sg23
S'W26-20'
p235
sg24
S'11'
p236
sg25
g67
sg26
S'DAL'
p237
sg27
S'8'
p238
sg28
g36
sg29
S'--'
p239
ssg69
(dp240
g5
S'--'
p241
sg7
S'--'
p242
sg8
g36
sg9
S'--'
p243
sg10
g36
sg11
S'Josh Hill'
p244
sg13
S'2015'
p245
sg15
g69
sg17
S'--'
p246
sg18
S'10/25'
p247
sg20
S'--'
p248
sg21
S'--'
p249
sg22
S'--'
p250
sg23
S'W27-21'
p251
sg24
g34
sg25
g34
sg26
S'@IND'
p252
sg27
S'--'
p253
sg28
g34
sg29
S'--'
p254
ssg122
(dp255
g5
S'--'
p256
sg7
S'--'
p257
sg8
g36
sg9
S'--'
p258
sg10
g36
sg11
S'Josh Hill'
p259
sg13
S'2015'
p260
sg15
g122
sg17
S'--'
p261
sg18
S'10/15'
p262
sg20
S'12.7'
p263
sg21
S'--'
p264
sg22
S'--'
p265
sg23
S'W31-21'
p266
sg24
S'38'
p267
sg25
g177
sg26
S'ATL'
p268
sg27
S'19'
p269
sg28
g34
sg29
S'--'
p270
ssS'9'
p271
(dp272
g5
S'--'
p273
sg7
S'--'
p274
sg8
g34
sg9
S'--'
p275
sg10
g36
sg11
S'Josh Hill'
p276
sg13
S'2015'
p277
sg15
g271
sg17
S'--'
p278
sg18
S'11/08'
p279
sg20
S'10.5'
p280
sg21
S'--'
p281
sg22
S'--'
p282
sg23
S'L28-34'
p283
sg24
S'21'
p284
sg25
g67
sg26
S'TEN'
p285
sg27
S'11'
p286
sg28
g36
sg29
S'--'
p287
ssg238
(dp288
g5
S'--'
p289
sg7
S'--'
p290
sg8
g36
sg9
S'--'
p291
sg10
g36
sg11
S'Josh Hill'
p292
sg13
S'2015'
p293
sg15
g238
sg17
S'--'
p294
sg18
S'11/01'
p295
sg20
S'5.0'
p296
sg21
S'--'
p297
sg22
S'--'
p298
sg23
S'W52-49'
p299
sg24
g208
sg25
g36
sg26
S'NYG'
p300
sg27
g208
sg28
g34
sg29
S'--'
p301
sssS'2014'
p302
(dp303
g3
(dp304
g5
S'--'
p305
sg7
S'--'
p306
sg8
g34
sg9
S'--'
p307
sg10
g36
sg11
S'Josh Hill'
p308
sg13
S'2014'
p309
sg15
S'11'
p310
sg17
S'--'
p311
sg18
S'11/16'
p312
sg20
S'--'
p313
sg21
S'--'
p314
sg22
S'--'
p315
sg23
S'L10-27'
p316
sg24
g34
sg25
g34
sg26
S'CIN'
p317
sg27
S'--'
p318
sg28
g34
sg29
S'--'
p319
ssg30
(dp320
g5
S'--'
p321
sg7
S'--'
p322
sg8
g34
sg9
S'--'
p323
sg10
g36
sg11
S'Josh Hill'
p324
sg13
S'2014'
p325
sg15
S'10'
p326
sg17
S'--'
p327
sg18
S'11/09'
p328
sg20
S'--'
p329
sg21
S'--'
p330
sg22
S'--'
p331
sg23
S'L24-27'
p332
sg24
S'--'
p333
sg25
S'--'
p334
sg26
S'SF'
p335
sg27
S'--'
p336
sg28
S'--'
p337
sg29
S'--'
p338
ssg52
(dp339
g5
S'--'
p340
sg7
S'--'
p341
sg8
g34
sg9
S'--'
p342
sg10
g36
sg11
S'Josh Hill'
p343
sg13
S'2014'
p344
sg15
S'13'
p345
sg17
S'--'
p346
sg18
S'11/30'
p347
sg20
S'17.0'
p348
sg21
S'--'
p349
sg22
S'--'
p350
sg23
S'W35-32'
p351
sg24
S'17'
p352
sg25
g36
sg26
S'@PIT'
p353
sg27
S'17'
p354
sg28
g34
sg29
S'--'
p355
ssg71
(dp356
g5
S'--'
p357
sg7
S'--'
p358
sg8
g34
sg9
S'--'
p359
sg10
g36
sg11
S'Josh Hill'
p360
sg13
S'2014'
p361
sg15
S'12'
p362
sg17
S'--'
p363
sg18
S'11/24'
p364
sg20
S'11.0'
p365
sg21
S'--'
p366
sg22
S'--'
p367
sg23
S'L27-34'
p368
sg24
S'22'
p369
sg25
g67
sg26
S'BAL'
p370
sg27
S'17'
p371
sg28
g34
sg29
S'--'
p372
ssg88
(dp373
g5
S'--'
p374
sg7
S'--'
p375
sg8
g34
sg9
S'--'
p376
sg10
g36
sg11
S'Josh Hill'
p377
sg13
S'2014'
p378
sg15
S'15'
p379
sg17
S'--'
p380
sg18
S'12/15'
p381
sg20
S'7.5'
p382
sg21
S'--'
p383
sg22
S'--'
p384
sg23
S'W31-15'
p385
sg24
S'15'
p386
sg25
g67
sg26
S'@CHI'
p387
sg27
S'8T'
p388
sg28
g67
sg29
S'--'
p389
ssg108
(dp390
g5
S'--'
p391
sg7
S'--'
p392
sg8
g36
sg9
S'--'
p393
sg10
g36
sg11
S'Josh Hill'
p394
sg13
S'2014'
p395
sg15
S'14'
p396
sg17
S'--'
p397
sg18
S'12/07'
p398
sg20
S'--'
p399
sg21
S'--'
p400
sg22
S'--'
p401
sg23
S'L10-41'
p402
sg24
g34
sg25
g34
sg26
S'CAR'
p403
sg27
S'--'
p404
sg28
g34
sg29
S'--'
p405
ssg125
(dp406
g5
S'--'
p407
sg7
S'--'
p408
sg8
g34
sg9
S'--'
p409
sg10
g36
sg11
S'Josh Hill'
p410
sg13
S'2014'
p411
sg15
S'17'
p412
sg17
S'--'
p413
sg18
S'12/28'
p414
sg20
S'--'
p415
sg21
S'--'
p416
sg22
S'--'
p417
sg23
S'W23-20'
p418
sg24
S'--'
p419
sg25
S'--'
p420
sg26
S'@TB'
p421
sg27
S'--'
p422
sg28
S'--'
p423
sg29
S'--'
p424
ssg142
(dp425
g5
S'--'
p426
sg7
S'--'
p427
sg8
g36
sg9
S'--'
p428
sg10
g36
sg11
S'Josh Hill'
p429
sg13
S'2014'
p430
sg15
S'16'
p431
sg17
S'--'
p432
sg18
S'12/21'
p433
sg20
S'--'
p434
sg21
S'--'
p435
sg22
S'--'
p436
sg23
S'L14-30'
p437
sg24
S'--'
p438
sg25
S'--'
p439
sg26
S'ATL'
p440
sg27
S'--'
p441
sg28
S'--'
p442
sg29
S'--'
p443
ssg36
(dp444
g5
S'--'
p445
sg7
S'--'
p446
sg8
g34
sg9
S'--'
p447
sg10
g36
sg11
S'Josh Hill'
p448
sg13
S'2014'
p449
sg15
g36
sg17
S'--'
p450
sg18
S'09/07'
p451
sg20
S'--'
p452
sg21
S'--'
p453
sg22
S'--'
p454
sg23
S'L34-37'
p455
sg24
S'--'
p456
sg25
S'--'
p457
sg26
S'@ATL'
p458
sg27
S'--'
p459
sg28
S'--'
p460
sg29
S'--'
p461
ssg177
(dp462
g5
S'--'
p463
sg7
S'--'
p464
sg8
g34
sg9
S'--'
p465
sg10
g36
sg11
S'Josh Hill'
p466
sg13
S'2014'
p467
sg15
g177
sg17
S'--'
p468
sg18
S'09/21'
p469
sg20
S'24.0'
p470
sg21
S'--'
p471
sg22
S'--'
p472
sg23
S'W20-9'
p473
sg24
S'48'
p474
sg25
g67
sg26
S'MIN'
p475
sg27
S'34T'
p476
sg28
g36
sg29
S'--'
p477
ssg67
(dp478
g5
S'--'
p479
sg7
S'--'
p480
sg8
g34
sg9
S'--'
p481
sg10
g36
sg11
S'Josh Hill'
p482
sg13
S'2014'
p483
sg15
g67
sg17
S'--'
p484
sg18
S'09/14'
p485
sg20
S'-1.0'
p486
sg21
S'--'
p487
sg22
S'--'
p488
sg23
S'L24-26'
p489
sg24
S'-1'
p490
sg25
g36
sg26
S'@CLE'
p491
sg27
S'-1'
p492
sg28
g34
sg29
S'--'
p493
ssg208
(dp494
g5
S'--'
p495
sg7
S'--'
p496
sg8
g34
sg9
S'--'
p497
sg10
g36
sg11
S'Josh Hill'
p498
sg13
S'2014'
p499
sg15
g208
sg17
S'--'
p500
sg18
S'10/05'
p501
sg20
S'17.7'
p502
sg21
S'--'
p503
sg22
S'--'
p504
sg23
S'W37-31'
p505
sg24
S'53'
p506
sg25
g177
sg26
S'TB'
p507
sg27
S'37'
p508
sg28
g34
sg29
S'--'
p509
ssg139
(dp510
g5
S'--'
p511
sg7
S'--'
p512
sg8
g34
sg9
S'--'
p513
sg10
g36
sg11
S'Josh Hill'
p514
sg13
S'2014'
p515
sg15
g139
sg17
S'--'
p516
sg18
S'09/28'
p517
sg20
S'12.0'
p518
sg21
S'--'
p519
sg22
S'--'
p520
sg23
S'L17-38'
p521
sg24
S'12'
p522
sg25
g36
sg26
S'@DAL'
p523
sg27
S'12T'
p524
sg28
g36
sg29
S'--'
p525
ssg69
(dp526
g5
S'--'
p527
sg7
S'--'
p528
sg8
g36
sg9
S'--'
p529
sg10
g36
sg11
S'Josh Hill'
p530
sg13
S'2014'
p531
sg15
g69
sg17
S'--'
p532
sg18
S'10/19'
p533
sg20
S'8.0'
p534
sg21
S'--'
p535
sg22
S'--'
p536
sg23
S'L23-24'
p537
sg24
g238
sg25
g36
sg26
S'@DET'
p538
sg27
g238
sg28
g34
sg29
S'--'
p539
ssg122
(dp540
g5
g6
sg7
g6
sg8
g6
sg9
g6
sg10
g6
sg11
S'Josh Hill'
p541
sg13
S'2014'
p542
sg15
g122
sg17
g6
sg18
S'Bye'
p543
sg20
g6
sg21
g6
sg22
g6
sg23
g6
sg24
g6
sg25
g6
sg26
g6
sg27
g6
sg28
g6
sg29
g6
ssg271
(dp544
g5
S'--'
p545
sg7
S'--'
p546
sg8
g34
sg9
S'--'
p547
sg10
g36
sg11
S'Josh Hill'
p548
sg13
S'2014'
p549
sg15
g271
sg17
S'--'
p550
sg18
S'10/30'
p551
sg20
S'--'
p552
sg21
S'--'
p553
sg22
S'--'
p554
sg23
S'W28-10'
p555
sg24
g34
sg25
g34
sg26
S'@CAR'
p556
sg27
S'--'
p557
sg28
g34
sg29
S'--'
p558
ssg238
(dp559
g5
S'--'
p560
sg7
S'--'
p561
sg8
g34
sg9
S'--'
p562
sg10
g36
sg11
S'Josh Hill'
p563
sg13
S'2014'
p564
sg15
g238
sg17
S'--'
p565
sg18
S'10/26'
p566
sg20
S'2.0'
p567
sg21
S'--'
p568
sg22
S'--'
p569
sg23
S'W44-23'
p570
sg24
g67
sg25
g36
sg26
S'GB'
p571
sg27
S'2T'
p572
sg28
g36
sg29
S'--'
p573
sssS'2013'
p574
(dp575
g3
(dp576
g5
S'--'
p577
sg7
S'--'
p578
sg8
g36
sg9
S'--'
p579
sg10
g36
sg11
S'Josh Hill'
p580
sg13
S'2013'
p581
sg15
S'11'
p582
sg17
S'--'
p583
sg18
S'11/17'
p584
sg20
S'3.0'
p585
sg21
S'--'
p586
sg22
S'--'
p587
sg23
S'W23-20'
p588
sg24
g177
sg25
g36
sg26
S'SF'
p589
sg27
S'3T'
p590
sg28
g36
sg29
S'--'
p591
ssg30
(dp592
g5
S'--'
p593
sg7
S'--'
p594
sg8
g36
sg9
S'--'
p595
sg10
g36
sg11
S'Josh Hill'
p596
sg13
S'2013'
p597
sg15
S'10'
p598
sg17
S'--'
p599
sg18
S'11/10'
p600
sg20
S'--'
p601
sg21
S'--'
p602
sg22
S'--'
p603
sg23
S'W49-17'
p604
sg24
S'--'
p605
sg25
S'--'
p606
sg26
S'DAL'
p607
sg27
S'--'
p608
sg28
S'--'
p609
sg29
S'--'
p610
ssg52
(dp611
g5
S'--'
p612
sg7
S'--'
p613
sg8
g34
sg9
S'--'
p614
sg10
g36
sg11
S'Josh Hill'
p615
sg13
S'2013'
p616
sg15
S'13'
p617
sg17
S'--'
p618
sg18
S'12/02'
p619
sg20
S'--'
p620
sg21
S'--'
p621
sg22
S'--'
p622
sg23
S'L7-34'
p623
sg24
g34
sg25
g34
sg26
S'@SEA'
p624
sg27
S'--'
p625
sg28
g34
sg29
S'--'
p626
ssg71
(dp627
g5
S'--'
p628
sg7
S'--'
p629
sg8
g34
sg9
S'--'
p630
sg10
g36
sg11
S'Josh Hill'
p631
sg13
S'2013'
p632
sg15
S'12'
p633
sg17
S'--'
p634
sg18
S'11/21'
p635
sg20
S'8.0'
p636
sg21
S'--'
p637
sg22
S'--'
p638
sg23
S'W17-13'
p639
sg24
S'16'
p640
sg25
g67
sg26
S'@ATL'
p641
sg27
g271
sg28
g34
sg29
S'--'
p642
ssg88
(dp643
g5
S'--'
p644
sg7
S'--'
p645
sg8
g34
sg9
S'--'
p646
sg10
g34
sg11
S'Josh Hill'
p647
sg13
S'2013'
p648
sg15
S'15'
p649
sg17
S'--'
p650
sg18
S'12/15'
p651
sg20
S'--'
p652
sg21
S'--'
p653
sg22
S'--'
p654
sg23
S'L16-27'
p655
sg24
S'--'
p656
sg25
S'--'
p657
sg26
S'@STL'
p658
sg27
S'--'
p659
sg28
S'--'
p660
sg29
S'--'
p661
ssg108
(dp662
g5
S'--'
p663
sg7
S'--'
p664
sg8
g34
sg9
S'--'
p665
sg10
g36
sg11
S'Josh Hill'
p666
sg13
S'2013'
p667
sg15
S'14'
p668
sg17
S'--'
p669
sg18
S'12/08'
p670
sg20
S'--'
p671
sg21
S'--'
p672
sg22
S'--'
p673
sg23
S'W31-13'
p674
sg24
S'--'
p675
sg25
S'--'
p676
sg26
S'CAR'
p677
sg27
S'--'
p678
sg28
S'--'
p679
sg29
S'--'
p680
ssg125
(dp681
g5
S'--'
p682
sg7
S'--'
p683
sg8
g34
sg9
S'--'
p684
sg10
g36
sg11
S'Josh Hill'
p685
sg13
S'2013'
p686
sg15
S'17'
p687
sg17
S'--'
p688
sg18
S'12/29'
p689
sg20
S'8.0'
p690
sg21
S'--'
p691
sg22
S'--'
p692
sg23
S'W42-17'
p693
sg24
g238
sg25
g36
sg26
S'TB'
p694
sg27
g238
sg28
g34
sg29
S'--'
p695
ssg142
(dp696
g5
S'--'
p697
sg7
S'--'
p698
sg8
g34
sg9
S'--'
p699
sg10
g34
sg11
S'Josh Hill'
p700
sg13
S'2013'
p701
sg15
S'16'
p702
sg17
S'--'
p703
sg18
S'12/22'
p704
sg20
S'--'
p705
sg21
S'--'
p706
sg22
S'--'
p707
sg23
S'L13-17'
p708
sg24
S'--'
p709
sg25
S'--'
p710
sg26
S'@CAR'
p711
sg27
S'--'
p712
sg28
S'--'
p713
sg29
S'--'
p714
ssg36
(dp715
g5
S'--'
p716
sg7
S'--'
p717
sg8
g34
sg9
S'--'
p718
sg10
g36
sg11
S'Josh Hill'
p719
sg13
S'2013'
p720
sg15
g36
sg17
S'--'
p721
sg18
S'09/08'
p722
sg20
S'--'
p723
sg21
S'--'
p724
sg22
S'--'
p725
sg23
S'W23-17'
p726
sg24
S'--'
p727
sg25
S'--'
p728
sg26
S'ATL'
p729
sg27
S'--'
p730
sg28
S'--'
p731
sg29
S'--'
p732
ssg177
(dp733
g5
S'--'
p734
sg7
S'--'
p735
sg8
g34
sg9
S'--'
p736
sg10
g36
sg11
S'Josh Hill'
p737
sg13
S'2013'
p738
sg15
g177
sg17
S'--'
p739
sg18
S'09/22'
p740
sg20
S'--'
p741
sg21
S'--'
p742
sg22
S'--'
p743
sg23
S'W31-7'
p744
sg24
S'--'
p745
sg25
S'--'
p746
sg26
S'ARI'
p747
sg27
S'--'
p748
sg28
S'--'
p749
sg29
S'--'
p750
ssg67
(dp751
g5
S'--'
p752
sg7
S'--'
p753
sg8
g34
sg9
S'--'
p754
sg10
g36
sg11
S'Josh Hill'
p755
sg13
S'2013'
p756
sg15
g67
sg17
S'--'
p757
sg18
S'09/15'
p758
sg20
S'--'
p759
sg21
S'--'
p760
sg22
S'--'
p761
sg23
S'W16-14'
p762
sg24
S'--'
p763
sg25
S'--'
p764
sg26
S'@TB'
p765
sg27
S'--'
p766
sg28
S'--'
p767
sg29
S'--'
p768
ssg208
(dp769
g5
S'--'
p770
sg7
S'--'
p771
sg8
g34
sg9
S'--'
p772
sg10
g36
sg11
S'Josh Hill'
p773
sg13
S'2013'
p774
sg15
g208
sg17
S'--'
p775
sg18
S'10/06'
p776
sg20
S'--'
p777
sg21
S'--'
p778
sg22
S'--'
p779
sg23
S'W26-18'
p780
sg24
S'--'
p781
sg25
S'--'
p782
sg26
S'@CHI'
p783
sg27
S'--'
p784
sg28
S'--'
p785
sg29
S'--'
p786
ssg139
(dp787
g5
S'--'
p788
sg7
S'--'
p789
sg8
g34
sg9
S'--'
p790
sg10
g36
sg11
S'Josh Hill'
p791
sg13
S'2013'
p792
sg15
g139
sg17
S'--'
p793
sg18
S'09/30'
p794
sg20
S'--'
p795
sg21
S'--'
p796
sg22
S'--'
p797
sg23
S'W38-17'
p798
sg24
S'--'
p799
sg25
S'--'
p800
sg26
S'MIA'
p801
sg27
S'--'
p802
sg28
S'--'
p803
sg29
S'--'
p804
ssg69
(dp805
g5
g6
sg7
g6
sg8
g6
sg9
g6
sg10
g6
sg11
S'Josh Hill'
p806
sg13
S'2013'
p807
sg15
g69
sg17
g6
sg18
S'Bye'
p808
sg20
g6
sg21
g6
sg22
g6
sg23
g6
sg24
g6
sg25
g6
sg26
g6
sg27
g6
sg28
g6
sg29
g6
ssg122
(dp809
g5
S'--'
p810
sg7
S'--'
p811
sg8
g34
sg9
S'--'
p812
sg10
g36
sg11
S'Josh Hill'
p813
sg13
S'2013'
p814
sg15
g122
sg17
S'--'
p815
sg18
S'10/13'
p816
sg20
S'--'
p817
sg21
S'--'
p818
sg22
S'--'
p819
sg23
S'L27-30'
p820
sg24
S'--'
p821
sg25
S'--'
p822
sg26
S'@NE'
p823
sg27
S'--'
p824
sg28
S'--'
p825
sg29
S'--'
p826
ssg271
(dp827
g5
g34
sg7
S'-8'
p828
sg8
g36
sg9
S'--'
p829
sg10
g36
sg11
S'Josh Hill'
p830
sg13
S'2013'
p831
sg15
g271
sg17
S'-8.0'
p832
sg18
S'11/03'
p833
sg20
S'--'
p834
sg21
S'--'
p835
sg22
g36
sg23
S'L20-26'
p836
sg24
g34
sg25
g34
sg26
S'@NYJ'
p837
sg27
S'--'
p838
sg28
g34
sg29
S'-8'
p839
ssg238
(dp840
g5
S'--'
p841
sg7
S'--'
p842
sg8
g34
sg9
S'--'
p843
sg10
g36
sg11
S'Josh Hill'
p844
sg13
S'2013'
p845
sg15
g238
sg17
S'--'
p846
sg18
S'10/27'
p847
sg20
S'8.5'
p848
sg21
S'--'
p849
sg22
S'--'
p850
sg23
S'W35-17'
p851
sg24
S'17'
p852
sg25
g67
sg26
S'BUF'
p853
sg27
g271
sg28
g34
sg29
S'--'
p854
sss.