(dp0
S'2015'
p1
(dp2
S'11'
p3
(dp4
S'RushTD'
p5
S'--'
p6
sS'RushYds'
p7
S'--'
p8
sS'GS'
p9
S'0'
p10
sS'Lost'
p11
S'--'
p12
sS'G'
p13
S'1'
p14
sS'Player'
p15
S'Justin Perillo'
p16
sS'Year'
p17
S'2015'
p18
sS'WK'
p19
S'11'
p20
sS'RushAvg'
p21
S'--'
p22
sS'Game Date'
p23
S'11/22'
p24
sS'RecAvg'
p25
S'--'
p26
sS'FUM'
p27
S'--'
p28
sS'RushAtt'
p29
S'--'
p30
sS'Result'
p31
S'W30-13'
p32
sS'RecYds'
p33
S'--'
p34
sS'Rec'
p35
S'--'
p36
sS'Opp'
p37
S'@MIN'
p38
sS'RecLng'
p39
S'--'
p40
sS'RecTD'
p41
S'--'
p42
sS'RushLng'
p43
S'--'
p44
ssS'10'
p45
(dp46
g5
S'--'
p47
sg7
S'--'
p48
sg9
g10
sg11
S'--'
p49
sg13
g14
sg15
S'Justin Perillo'
p50
sg17
S'2015'
p51
sg19
S'10'
p52
sg21
S'--'
p53
sg23
S'11/15'
p54
sg25
S'11.6'
p55
sg27
S'--'
p56
sg29
S'--'
p57
sg31
S'L16-18'
p58
sg33
S'58'
p59
sg35
S'5'
p60
sg37
S'DET'
p61
sg39
S'24'
p62
sg41
g14
sg43
S'--'
p63
ssS'13'
p64
(dp65
g5
S'--'
p66
sg7
S'--'
p67
sg9
g10
sg11
S'--'
p68
sg13
g14
sg15
S'Justin Perillo'
p69
sg17
S'2015'
p70
sg19
S'13'
p71
sg21
S'--'
p72
sg23
S'12/03'
p73
sg25
S'--'
p74
sg27
S'--'
p75
sg29
S'--'
p76
sg31
S'W27-23'
p77
sg33
S'--'
p78
sg35
S'--'
p79
sg37
S'@DET'
p80
sg39
S'--'
p81
sg41
S'--'
p82
sg43
S'--'
p83
ssS'12'
p84
(dp85
g5
S'--'
p86
sg7
S'--'
p87
sg9
g10
sg11
S'--'
p88
sg13
g14
sg15
S'Justin Perillo'
p89
sg17
S'2015'
p90
sg19
S'12'
p91
sg21
S'--'
p92
sg23
S'11/26'
p93
sg25
S'4.5'
p94
sg27
S'--'
p95
sg29
S'--'
p96
sg31
S'L13-17'
p97
sg33
S'9'
p98
sg35
S'2'
p99
sg37
S'CHI'
p100
sg39
g60
sg41
g10
sg43
S'--'
p101
ssS'15'
p102
(dp103
g5
S'--'
p104
sg7
S'--'
p105
sg9
g10
sg11
S'--'
p106
sg13
g14
sg15
S'Justin Perillo'
p107
sg17
S'2015'
p108
sg19
S'15'
p109
sg21
S'--'
p110
sg23
S'12/20'
p111
sg25
S'5.0'
p112
sg27
S'--'
p113
sg29
S'--'
p114
sg31
S'W30-20'
p115
sg33
g60
sg35
g14
sg37
S'@OAK'
p116
sg39
g60
sg41
g10
sg43
S'--'
p117
ssS'14'
p118
(dp119
g5
S'--'
p120
sg7
S'--'
p121
sg9
g10
sg11
S'--'
p122
sg13
g14
sg15
S'Justin Perillo'
p123
sg17
S'2015'
p124
sg19
S'14'
p125
sg21
S'--'
p126
sg23
S'12/13'
p127
sg25
S'3.0'
p128
sg27
S'--'
p129
sg29
S'--'
p130
sg31
S'W28-7'
p131
sg33
S'3'
p132
sg35
g14
sg37
S'DAL'
p133
sg39
g132
sg41
g10
sg43
S'--'
p134
ssS'17'
p135
(dp136
g5
S'--'
p137
sg7
S'--'
p138
sg9
g10
sg11
S'--'
p139
sg13
g10
sg15
S'Justin Perillo'
p140
sg17
S'2015'
p141
sg19
S'17'
p142
sg21
S'--'
p143
sg23
S'01/03'
p144
sg25
S'--'
p145
sg27
S'--'
p146
sg29
S'--'
p147
sg31
S'L13-20'
p148
sg33
S'--'
p149
sg35
S'--'
p150
sg37
S'MIN'
p151
sg39
S'--'
p152
sg41
S'--'
p153
sg43
S'--'
p154
ssS'16'
p155
(dp156
g5
S'--'
p157
sg7
S'--'
p158
sg9
g10
sg11
S'--'
p159
sg13
g10
sg15
S'Justin Perillo'
p160
sg17
S'2015'
p161
sg19
S'16'
p162
sg21
S'--'
p163
sg23
S'12/27'
p164
sg25
S'--'
p165
sg27
S'--'
p166
sg29
S'--'
p167
sg31
S'L8-38'
p168
sg33
S'--'
p169
sg35
S'--'
p170
sg37
S'@ARI'
p171
sg39
S'--'
p172
sg41
S'--'
p173
sg43
S'--'
p174
ssS'7'
p175
(dp176
g5
S''
p177
sg7
g177
sg9
g177
sg11
g177
sg13
g177
sg15
S'Justin Perillo'
p178
sg17
S'2015'
p179
sg19
g175
sg21
g177
sg23
S'Bye'
p180
sg25
g177
sg27
g177
sg29
g177
sg31
g177
sg33
g177
sg35
g177
sg37
g177
sg39
g177
sg41
g177
sg43
g177
ssS'6'
p181
(dp182
g5
S'--'
p183
sg7
S'--'
p184
sg9
g10
sg11
S'--'
p185
sg13
g14
sg15
S'Justin Perillo'
p186
sg17
S'2015'
p187
sg19
g181
sg21
S'--'
p188
sg23
S'10/18'
p189
sg25
S'21.0'
p190
sg27
S'--'
p191
sg29
S'--'
p192
sg31
S'W27-20'
p193
sg33
S'21'
p194
sg35
g14
sg37
S'SD'
p195
sg39
S'21'
p196
sg41
g10
sg43
S'--'
p197
ssg98
(dp198
g5
S'--'
p199
sg7
S'--'
p200
sg9
g10
sg11
S'--'
p201
sg13
g14
sg15
S'Justin Perillo'
p202
sg17
S'2015'
p203
sg19
g98
sg21
S'--'
p204
sg23
S'11/08'
p205
sg25
S'--'
p206
sg27
S'--'
p207
sg29
S'--'
p208
sg31
S'L29-37'
p209
sg33
S'--'
p210
sg35
S'--'
p211
sg37
S'@CAR'
p212
sg39
S'--'
p213
sg41
S'--'
p214
sg43
S'--'
p215
ssS'8'
p216
(dp217
g5
S'--'
p218
sg7
S'--'
p219
sg9
g10
sg11
S'--'
p220
sg13
g14
sg15
S'Justin Perillo'
p221
sg17
S'2015'
p222
sg19
g216
sg21
S'--'
p223
sg23
S'11/01'
p224
sg25
S'6.0'
p225
sg27
S'--'
p226
sg29
S'--'
p227
sg31
S'L10-29'
p228
sg33
g181
sg35
g14
sg37
S'@DEN'
p229
sg39
g181
sg41
g10
sg43
S'--'
p230
sssS'2014'
p231
(dp232
g3
(dp233
g5
S'--'
p234
sg7
S'--'
p235
sg9
g10
sg11
S'--'
p236
sg13
g14
sg15
S'Justin Perillo'
p237
sg17
S'2014'
p238
sg19
S'11'
p239
sg21
S'--'
p240
sg23
S'11/16'
p241
sg25
S'--'
p242
sg27
S'--'
p243
sg29
S'--'
p244
sg31
S'W53-20'
p245
sg33
S'--'
p246
sg35
S'--'
p247
sg37
S'PHI'
p248
sg39
S'--'
p249
sg41
S'--'
p250
sg43
S'--'
p251
ssg64
(dp252
g5
S'--'
p253
sg7
S'--'
p254
sg9
g10
sg11
S'--'
p255
sg13
g10
sg15
S'Justin Perillo'
p256
sg17
S'2014'
p257
sg19
S'13'
p258
sg21
S'--'
p259
sg23
S'11/30'
p260
sg25
S'--'
p261
sg27
S'--'
p262
sg29
S'--'
p263
sg31
S'W26-21'
p264
sg33
S'--'
p265
sg35
S'--'
p266
sg37
S'NE'
p267
sg39
S'--'
p268
sg41
S'--'
p269
sg43
S'--'
p270
ssg84
(dp271
g5
S'--'
p272
sg7
S'--'
p273
sg9
g10
sg11
S'--'
p274
sg13
g14
sg15
S'Justin Perillo'
p275
sg17
S'2014'
p276
sg19
S'12'
p277
sg21
S'--'
p278
sg23
S'11/23'
p279
sg25
S'--'
p280
sg27
S'--'
p281
sg29
S'--'
p282
sg31
S'W24-21'
p283
sg33
S'--'
p284
sg35
S'--'
p285
sg37
S'@MIN'
p286
sg39
S'--'
p287
sg41
S'--'
p288
sg43
S'--'
p289
ssg102
(dp290
g5
S'--'
p291
sg7
S'--'
p292
sg9
g10
sg11
S'--'
p293
sg13
g10
sg15
S'Justin Perillo'
p294
sg17
S'2014'
p295
sg19
S'15'
p296
sg21
S'--'
p297
sg23
S'12/14'
p298
sg25
S'--'
p299
sg27
S'--'
p300
sg29
S'--'
p301
sg31
S'L13-21'
p302
sg33
S'--'
p303
sg35
S'--'
p304
sg37
S'@BUF'
p305
sg39
S'--'
p306
sg41
S'--'
p307
sg43
S'--'
p308
ssg118
(dp309
g5
S'--'
p310
sg7
S'--'
p311
sg9
g10
sg11
S'--'
p312
sg13
g10
sg15
S'Justin Perillo'
p313
sg17
S'2014'
p314
sg19
S'14'
p315
sg21
S'--'
p316
sg23
S'12/08'
p317
sg25
S'--'
p318
sg27
S'--'
p319
sg29
S'--'
p320
sg31
S'W43-37'
p321
sg33
S'--'
p322
sg35
S'--'
p323
sg37
S'ATL'
p324
sg39
S'--'
p325
sg41
S'--'
p326
sg43
S'--'
p327
ssg135
(dp328
g5
S'--'
p329
sg7
S'--'
p330
sg9
g10
sg11
S'--'
p331
sg13
g10
sg15
S'Justin Perillo'
p332
sg17
S'2014'
p333
sg19
S'17'
p334
sg21
S'--'
p335
sg23
S'12/28'
p336
sg25
S'--'
p337
sg27
S'--'
p338
sg29
S'--'
p339
sg31
S'W30-20'
p340
sg33
S'--'
p341
sg35
S'--'
p342
sg37
S'DET'
p343
sg39
S'--'
p344
sg41
S'--'
p345
sg43
S'--'
p346
ssg155
(dp347
g5
S'--'
p348
sg7
S'--'
p349
sg9
g10
sg11
S'--'
p350
sg13
g10
sg15
S'Justin Perillo'
p351
sg17
S'2014'
p352
sg19
S'16'
p353
sg21
S'--'
p354
sg23
S'12/21'
p355
sg25
S'--'
p356
sg27
S'--'
p357
sg29
S'--'
p358
sg31
S'W20-3'
p359
sg33
S'--'
p360
sg35
S'--'
p361
sg37
S'@TB'
p362
sg39
S'--'
p363
sg41
S'--'
p364
sg43
S'--'
p365
sss.