(dp0
S'2015'
p1
(dp2
S'11'
p3
(dp4
S'RushTD'
p5
S'--'
p6
sS'RushYds'
p7
S'--'
p8
sS'GS'
p9
S'0'
p10
sS'Lost'
p11
S'--'
p12
sS'G'
p13
g10
sS'Player'
p14
S'Justice Cunningham'
p15
sS'Year'
p16
S'2015'
p17
sS'WK'
p18
S'11'
p19
sS'RushAvg'
p20
S'--'
p21
sS'Game Date'
p22
S'11/22'
p23
sS'RecAvg'
p24
S'--'
p25
sS'FUM'
p26
S'--'
p27
sS'RushAtt'
p28
S'--'
p29
sS'Result'
p30
S'L13-16'
p31
sS'RecYds'
p32
S'--'
p33
sS'Rec'
p34
S'--'
p35
sS'Opp'
p36
S'@BAL'
p37
sS'RecLng'
p38
S'--'
p39
sS'RecTD'
p40
S'--'
p41
sS'RushLng'
p42
S'--'
p43
ssS'10'
p44
(dp45
g5
S'--'
p46
sg7
S'--'
p47
sg9
g10
sg11
S'--'
p48
sg13
g10
sg14
S'Justice Cunningham'
p49
sg16
S'2015'
p50
sg18
S'10'
p51
sg20
S'--'
p52
sg22
S'11/15'
p53
sg24
S'--'
p54
sg26
S'--'
p55
sg28
S'--'
p56
sg30
S'L13-37'
p57
sg32
S'--'
p58
sg34
S'--'
p59
sg36
S'CHI'
p60
sg38
S'--'
p61
sg40
S'--'
p62
sg42
S'--'
p63
ssS'7'
p64
(dp65
g5
S'--'
p66
sg7
S'--'
p67
sg9
g10
sg11
S'--'
p68
sg13
S'1'
p69
sg14
S'Justice Cunningham'
p70
sg16
S'2015'
p71
sg18
g64
sg20
S'--'
p72
sg22
S'10/25'
p73
sg24
S'--'
p74
sg26
S'--'
p75
sg28
S'--'
p76
sg30
S'W24-6'
p77
sg32
S'--'
p78
sg34
S'--'
p79
sg36
S'CLE'
p80
sg38
S'--'
p81
sg40
S'--'
p82
sg42
S'--'
p83
ssS'6'
p84
(dp85
g5
S''
p86
sg7
g86
sg9
g86
sg11
g86
sg13
g86
sg14
S'Justice Cunningham'
p87
sg16
S'2015'
p88
sg18
g84
sg20
g86
sg22
S'Bye'
p89
sg24
g86
sg26
g86
sg28
g86
sg30
g86
sg32
g86
sg34
g86
sg36
g86
sg38
g86
sg40
g86
sg42
g86
ssS'9'
p90
(dp91
g5
S'--'
p92
sg7
S'--'
p93
sg9
g10
sg11
S'--'
p94
sg13
g69
sg14
S'Justice Cunningham'
p95
sg16
S'2015'
p96
sg18
g90
sg20
S'--'
p97
sg22
S'11/08'
p98
sg24
S'--'
p99
sg26
S'--'
p100
sg28
S'--'
p101
sg30
S'L18-21'
p102
sg32
S'--'
p103
sg34
S'--'
p104
sg36
S'@MIN'
p105
sg38
S'--'
p106
sg40
S'--'
p107
sg42
S'--'
p108
ssS'8'
p109
(dp110
g5
S'--'
p111
sg7
S'--'
p112
sg9
g10
sg11
S'--'
p113
sg13
g10
sg14
S'Justice Cunningham'
p114
sg16
S'2015'
p115
sg18
g109
sg20
S'--'
p116
sg22
S'11/01'
p117
sg24
S'--'
p118
sg26
S'--'
p119
sg28
S'--'
p120
sg30
S'W27-6'
p121
sg32
S'--'
p122
sg34
S'--'
p123
sg36
S'SF'
p124
sg38
S'--'
p125
sg40
S'--'
p126
sg42
S'--'
p127
sssS'2014'
p128
(dp129
S'13'
p130
(dp131
g5
S'--'
p132
sg7
S'--'
p133
sg9
g10
sg11
S'--'
p134
sg13
g10
sg14
S'Justice Cunningham'
p135
sg16
S'2014'
p136
sg18
S'13'
p137
sg20
S'--'
p138
sg22
S'11/30'
p139
sg24
S'--'
p140
sg26
S'--'
p141
sg28
S'--'
p142
sg30
S'W52-0'
p143
sg32
S'--'
p144
sg34
S'--'
p145
sg36
S'OAK'
p146
sg38
S'--'
p147
sg40
S'--'
p148
sg42
S'--'
p149
ssS'15'
p150
(dp151
g5
S'--'
p152
sg7
S'--'
p153
sg9
g10
sg11
S'--'
p154
sg13
g10
sg14
S'Justice Cunningham'
p155
sg16
S'2014'
p156
sg18
S'15'
p157
sg20
S'--'
p158
sg22
S'12/11'
p159
sg24
S'--'
p160
sg26
S'--'
p161
sg28
S'--'
p162
sg30
S'L6-12'
p163
sg32
S'--'
p164
sg34
S'--'
p165
sg36
S'ARI'
p166
sg38
S'--'
p167
sg40
S'--'
p168
sg42
S'--'
p169
ssS'14'
p170
(dp171
g5
S'--'
p172
sg7
S'--'
p173
sg9
g10
sg11
S'--'
p174
sg13
g10
sg14
S'Justice Cunningham'
p175
sg16
S'2014'
p176
sg18
S'14'
p177
sg20
S'--'
p178
sg22
S'12/07'
p179
sg24
S'--'
p180
sg26
S'--'
p181
sg28
S'--'
p182
sg30
S'W24-0'
p183
sg32
S'--'
p184
sg34
S'--'
p185
sg36
S'@WAS'
p186
sg38
S'--'
p187
sg40
S'--'
p188
sg42
S'--'
p189
ssS'17'
p190
(dp191
g5
S'--'
p192
sg7
S'--'
p193
sg9
g10
sg11
S'--'
p194
sg13
g10
sg14
S'Justice Cunningham'
p195
sg16
S'2014'
p196
sg18
S'17'
p197
sg20
S'--'
p198
sg22
S'12/28'
p199
sg24
S'--'
p200
sg26
S'--'
p201
sg28
S'--'
p202
sg30
S'L6-20'
p203
sg32
S'--'
p204
sg34
S'--'
p205
sg36
S'@SEA'
p206
sg38
S'--'
p207
sg40
S'--'
p208
sg42
S'--'
p209
ssS'16'
p210
(dp211
g5
S'--'
p212
sg7
S'--'
p213
sg9
g10
sg11
S'--'
p214
sg13
g10
sg14
S'Justice Cunningham'
p215
sg16
S'2014'
p216
sg18
S'16'
p217
sg20
S'--'
p218
sg22
S'12/21'
p219
sg24
S'--'
p220
sg26
S'--'
p221
sg28
S'--'
p222
sg30
S'L27-37'
p223
sg32
S'--'
p224
sg34
S'--'
p225
sg36
S'NYG'
p226
sg38
S'--'
p227
sg40
S'--'
p228
sg42
S'--'
p229
sssS'2013'
p230
(dp231
S'12'
p232
(dp233
g5
S'--'
p234
sg7
S'--'
p235
sg9
g10
sg11
S'--'
p236
sg13
g69
sg14
S'Justice Cunningham'
p237
sg16
S'2013'
p238
sg18
S'12'
p239
sg20
S'--'
p240
sg22
S'11/24'
p241
sg24
S'4.0'
p242
sg26
S'--'
p243
sg28
S'--'
p244
sg30
S'L11-40'
p245
sg32
S'4'
p246
sg34
g69
sg36
S'@ARI'
p247
sg38
g246
sg40
g10
sg42
S'--'
p248
sss.