(dp0
S'2015'
p1
(dp2
S'11'
p3
(dp4
S'RushTD'
p5
S'--'
p6
sS'RushYds'
p7
S'--'
p8
sS'GS'
p9
S'1'
p10
sS'Lost'
p11
S'--'
p12
sS'G'
p13
g10
sS'Player'
p14
S'Kellen Davis'
p15
sS'Year'
p16
S'2015'
p17
sS'WK'
p18
S'11'
p19
sS'RushAvg'
p20
S'--'
p21
sS'Game Date'
p22
S'11/22'
p23
sS'RecAvg'
p24
S'--'
p25
sS'FUM'
p26
S'--'
p27
sS'RushAtt'
p28
S'--'
p29
sS'Result'
p30
S'L17-24'
p31
sS'RecYds'
p32
S'--'
p33
sS'Rec'
p34
S'--'
p35
sS'Opp'
p36
S'@HOU'
p37
sS'RecLng'
p38
S'--'
p39
sS'RecTD'
p40
S'--'
p41
sS'RushLng'
p42
S'--'
p43
ssS'10'
p44
(dp45
g5
S'--'
p46
sg7
S'--'
p47
sg9
S'0'
p48
sg11
S'--'
p49
sg13
g10
sg14
S'Kellen Davis'
p50
sg16
S'2015'
p51
sg18
S'10'
p52
sg20
S'--'
p53
sg22
S'11/12'
p54
sg24
S'--'
p55
sg26
S'--'
p56
sg28
S'--'
p57
sg30
S'L17-22'
p58
sg32
g48
sg34
g48
sg36
S'BUF'
p59
sg38
S'--'
p60
sg40
g48
sg42
S'--'
p61
ssS'13'
p62
(dp63
g5
S'--'
p64
sg7
S'--'
p65
sg9
g10
sg11
S'--'
p66
sg13
g10
sg14
S'Kellen Davis'
p67
sg16
S'2015'
p68
sg18
S'13'
p69
sg20
S'--'
p70
sg22
S'12/06'
p71
sg24
S'8.0'
p72
sg26
S'--'
p73
sg28
S'--'
p74
sg30
S'W23-20'
p75
sg32
S'8'
p76
sg34
g10
sg36
S'@NYG'
p77
sg38
g76
sg40
g48
sg42
S'--'
p78
ssS'12'
p79
(dp80
g5
S'--'
p81
sg7
S'--'
p82
sg9
g10
sg11
S'--'
p83
sg13
g10
sg14
S'Kellen Davis'
p84
sg16
S'2015'
p85
sg18
S'12'
p86
sg20
S'--'
p87
sg22
S'11/29'
p88
sg24
S'--'
p89
sg26
S'--'
p90
sg28
S'--'
p91
sg30
S'W38-20'
p92
sg32
S'--'
p93
sg34
S'--'
p94
sg36
S'MIA'
p95
sg38
S'--'
p96
sg40
S'--'
p97
sg42
S'--'
p98
ssS'15'
p99
(dp100
g5
S'--'
p101
sg7
S'--'
p102
sg9
g10
sg11
S'--'
p103
sg13
g10
sg14
S'Kellen Davis'
p104
sg16
S'2015'
p105
sg18
S'15'
p106
sg20
S'--'
p107
sg22
S'12/19'
p108
sg24
S'9.0'
p109
sg26
S'--'
p110
sg28
S'--'
p111
sg30
S'W19-16'
p112
sg32
S'9'
p113
sg34
g10
sg36
S'@DAL'
p114
sg38
g113
sg40
g48
sg42
S'--'
p115
ssS'14'
p116
(dp117
g5
S'--'
p118
sg7
S'--'
p119
sg9
g10
sg11
S'--'
p120
sg13
g10
sg14
S'Kellen Davis'
p121
sg16
S'2015'
p122
sg18
S'14'
p123
sg20
S'--'
p124
sg22
S'12/13'
p125
sg24
S'--'
p126
sg26
S'--'
p127
sg28
S'--'
p128
sg30
S'W30-8'
p129
sg32
S'--'
p130
sg34
S'--'
p131
sg36
S'TEN'
p132
sg38
S'--'
p133
sg40
S'--'
p134
sg42
S'--'
p135
ssS'17'
p136
(dp137
g5
S'--'
p138
sg7
S'--'
p139
sg9
g10
sg11
S'--'
p140
sg13
g10
sg14
S'Kellen Davis'
p141
sg16
S'2015'
p142
sg18
S'17'
p143
sg20
S'--'
p144
sg22
S'01/03'
p145
sg24
S'--'
p146
sg26
S'--'
p147
sg28
S'--'
p148
sg30
S'L17-22'
p149
sg32
g48
sg34
g48
sg36
S'@BUF'
p150
sg38
S'--'
p151
sg40
g48
sg42
S'--'
p152
ssS'16'
p153
(dp154
g5
S'--'
p155
sg7
S'--'
p156
sg9
g48
sg11
S'--'
p157
sg13
g10
sg14
S'Kellen Davis'
p158
sg16
S'2015'
p159
sg18
S'16'
p160
sg20
S'--'
p161
sg22
S'12/27'
p162
sg24
S'--'
p163
sg26
S'--'
p164
sg28
S'--'
p165
sg30
S'W26-20'
p166
sg32
S'--'
p167
sg34
S'--'
p168
sg36
S'NE'
p169
sg38
S'--'
p170
sg40
S'--'
p171
sg42
S'--'
p172
ssg10
(dp173
g5
S'--'
p174
sg7
S'--'
p175
sg9
g48
sg11
S'--'
p176
sg13
g10
sg14
S'Kellen Davis'
p177
sg16
S'2015'
p178
sg18
g10
sg20
S'--'
p179
sg22
S'09/13'
p180
sg24
S'--'
p181
sg26
S'--'
p182
sg28
S'--'
p183
sg30
S'W31-10'
p184
sg32
g48
sg34
g48
sg36
S'CLE'
p185
sg38
S'--'
p186
sg40
g48
sg42
S'--'
p187
ssS'3'
p188
(dp189
g5
S'--'
p190
sg7
S'--'
p191
sg9
g48
sg11
S'--'
p192
sg13
g10
sg14
S'Kellen Davis'
p193
sg16
S'2015'
p194
sg18
g188
sg20
S'--'
p195
sg22
S'09/27'
p196
sg24
S'--'
p197
sg26
S'--'
p198
sg28
S'--'
p199
sg30
S'L17-24'
p200
sg32
S'--'
p201
sg34
S'--'
p202
sg36
S'PHI'
p203
sg38
S'--'
p204
sg40
S'--'
p205
sg42
S'--'
p206
ssS'2'
p207
(dp208
g5
S'--'
p209
sg7
S'--'
p210
sg9
g48
sg11
S'--'
p211
sg13
g10
sg14
S'Kellen Davis'
p212
sg16
S'2015'
p213
sg18
g207
sg20
S'--'
p214
sg22
S'09/21'
p215
sg24
S'--'
p216
sg26
S'--'
p217
sg28
S'--'
p218
sg30
S'W20-7'
p219
sg32
S'--'
p220
sg34
S'--'
p221
sg36
S'@IND'
p222
sg38
S'--'
p223
sg40
S'--'
p224
sg42
S'--'
p225
ssS'5'
p226
(dp227
g5
S''
p228
sg7
g228
sg9
g228
sg11
g228
sg13
g228
sg14
S'Kellen Davis'
p229
sg16
S'2015'
p230
sg18
g226
sg20
g228
sg22
S'Bye'
p231
sg24
g228
sg26
g228
sg28
g228
sg30
g228
sg32
g228
sg34
g228
sg36
g228
sg38
g228
sg40
g228
sg42
g228
ssS'4'
p232
(dp233
g5
S'--'
p234
sg7
S'--'
p235
sg9
g10
sg11
S'--'
p236
sg13
g10
sg14
S'Kellen Davis'
p237
sg16
S'2015'
p238
sg18
g232
sg20
S'--'
p239
sg22
S'10/04'
p240
sg24
S'--'
p241
sg26
S'--'
p242
sg28
S'--'
p243
sg30
S'W27-14'
p244
sg32
S'--'
p245
sg34
S'--'
p246
sg36
S'@MIA'
p247
sg38
S'--'
p248
sg40
S'--'
p249
sg42
S'--'
p250
ssS'7'
p251
(dp252
g5
S'--'
p253
sg7
S'--'
p254
sg9
g48
sg11
S'--'
p255
sg13
g10
sg14
S'Kellen Davis'
p256
sg16
S'2015'
p257
sg18
g251
sg20
S'--'
p258
sg22
S'10/25'
p259
sg24
S'--'
p260
sg26
S'--'
p261
sg28
S'--'
p262
sg30
S'L23-30'
p263
sg32
S'--'
p264
sg34
S'--'
p265
sg36
S'@NE'
p266
sg38
S'--'
p267
sg40
S'--'
p268
sg42
S'--'
p269
ssS'6'
p270
(dp271
g5
S'--'
p272
sg7
S'--'
p273
sg9
g48
sg11
S'--'
p274
sg13
g10
sg14
S'Kellen Davis'
p275
sg16
S'2015'
p276
sg18
g270
sg20
S'--'
p277
sg22
S'10/18'
p278
sg24
S'--'
p279
sg26
S'--'
p280
sg28
S'--'
p281
sg30
S'W34-20'
p282
sg32
g48
sg34
g48
sg36
S'WAS'
p283
sg38
S'--'
p284
sg40
g48
sg42
S'--'
p285
ssg113
(dp286
g5
S'--'
p287
sg7
S'--'
p288
sg9
g10
sg11
S'--'
p289
sg13
g10
sg14
S'Kellen Davis'
p290
sg16
S'2015'
p291
sg18
g113
sg20
S'--'
p292
sg22
S'11/08'
p293
sg24
S'--'
p294
sg26
S'--'
p295
sg28
S'--'
p296
sg30
S'W28-23'
p297
sg32
g48
sg34
g48
sg36
S'JAC'
p298
sg38
S'--'
p299
sg40
g48
sg42
S'--'
p300
ssg76
(dp301
g5
S'--'
p302
sg7
S'--'
p303
sg9
g10
sg11
S'--'
p304
sg13
g10
sg14
S'Kellen Davis'
p305
sg16
S'2015'
p306
sg18
g76
sg20
S'--'
p307
sg22
S'11/01'
p308
sg24
S'1.0'
p309
sg26
S'--'
p310
sg28
S'--'
p311
sg30
S'L20-34'
p312
sg32
g10
sg34
g10
sg36
S'@OAK'
p313
sg38
S'1T'
p314
sg40
g10
sg42
S'--'
p315
sssS'2014'
p316
(dp317
g3
(dp318
g5
S'--'
p319
sg7
S'--'
p320
sg9
g48
sg11
S'--'
p321
sg13
g10
sg14
S'Kellen Davis'
p322
sg16
S'2014'
p323
sg18
S'11'
p324
sg20
S'--'
p325
sg22
S'11/16'
p326
sg24
S'--'
p327
sg26
S'--'
p328
sg28
S'--'
p329
sg30
S'L6-14'
p330
sg32
S'--'
p331
sg34
S'--'
p332
sg36
S'@ARI'
p333
sg38
S'--'
p334
sg40
S'--'
p335
sg42
S'--'
p336
ssg44
(dp337
g5
S'--'
p338
sg7
S'--'
p339
sg9
g48
sg11
S'--'
p340
sg13
g10
sg14
S'Kellen Davis'
p341
sg16
S'2014'
p342
sg18
S'10'
p343
sg20
S'--'
p344
sg22
S'11/09'
p345
sg24
S'--'
p346
sg26
S'--'
p347
sg28
S'--'
p348
sg30
S'W20-16'
p349
sg32
g48
sg34
g48
sg36
S'MIA'
p350
sg38
S'--'
p351
sg40
g48
sg42
S'--'
p352
ssg79
(dp353
g5
S'--'
p354
sg7
S'--'
p355
sg9
g48
sg11
S'--'
p356
sg13
g48
sg14
S'Kellen Davis'
p357
sg16
S'2014'
p358
sg18
S'12'
p359
sg20
S'--'
p360
sg22
S'11/23'
p361
sg24
S'--'
p362
sg26
S'--'
p363
sg28
S'--'
p364
sg30
S'L9-34'
p365
sg32
S'--'
p366
sg34
S'--'
p367
sg36
S'@NE'
p368
sg38
S'--'
p369
sg40
S'--'
p370
sg42
S'--'
p371
ssg99
(dp372
g5
S'--'
p373
sg7
S'--'
p374
sg9
g48
sg11
S'--'
p375
sg13
g10
sg14
S'Kellen Davis'
p376
sg16
S'2014'
p377
sg18
S'15'
p378
sg20
S'--'
p379
sg22
S'12/14'
p380
sg24
S'--'
p381
sg26
S'--'
p382
sg28
S'--'
p383
sg30
S'W16-14'
p384
sg32
S'--'
p385
sg34
S'--'
p386
sg36
S'MIN'
p387
sg38
S'--'
p388
sg40
S'--'
p389
sg42
S'--'
p390
ssg136
(dp391
g5
S'--'
p392
sg7
S'--'
p393
sg9
g48
sg11
S'--'
p394
sg13
g10
sg14
S'Kellen Davis'
p395
sg16
S'2014'
p396
sg18
S'17'
p397
sg20
S'--'
p398
sg22
S'12/28'
p399
sg24
S'--'
p400
sg26
S'--'
p401
sg28
S'--'
p402
sg30
S'L20-30'
p403
sg32
S'--'
p404
sg34
S'--'
p405
sg36
S'@GB'
p406
sg38
S'--'
p407
sg40
S'--'
p408
sg42
S'--'
p409
ssg153
(dp410
g5
S'--'
p411
sg7
S'--'
p412
sg9
g48
sg11
S'--'
p413
sg13
g10
sg14
S'Kellen Davis'
p414
sg16
S'2014'
p415
sg18
S'16'
p416
sg20
S'--'
p417
sg22
S'12/21'
p418
sg24
S'--'
p419
sg26
S'--'
p420
sg28
S'--'
p421
sg30
S'W20-14'
p422
sg32
S'--'
p423
sg34
S'--'
p424
sg36
S'@CHI'
p425
sg38
S'--'
p426
sg40
S'--'
p427
sg42
S'--'
p428
ssg113
(dp429
g5
g228
sg7
g228
sg9
g228
sg11
g228
sg13
g228
sg14
S'Kellen Davis'
p430
sg16
S'2014'
p431
sg18
g113
sg20
g228
sg22
S'Bye'
p432
sg24
g228
sg26
g228
sg28
g228
sg30
g228
sg32
g228
sg34
g228
sg36
g228
sg38
g228
sg40
g228
sg42
g228
ssg76
(dp433
g5
S'--'
p434
sg7
S'--'
p435
sg9
g48
sg11
S'--'
p436
sg13
g10
sg14
S'Kellen Davis'
p437
sg16
S'2014'
p438
sg18
g76
sg20
S'--'
p439
sg22
S'10/26'
p440
sg24
S'--'
p441
sg26
S'--'
p442
sg28
S'--'
p443
sg30
S'W22-21'
p444
sg32
g48
sg34
g48
sg36
S'@ATL'
p445
sg38
S'--'
p446
sg40
g48
sg42
S'--'
p447
sssS'2011'
p448
(dp449
g3
(dp450
g5
S'--'
p451
sg7
S'--'
p452
sg9
g10
sg11
S'--'
p453
sg13
g10
sg14
S'Kellen Davis'
p454
sg16
S'2011'
p455
sg18
S'11'
p456
sg20
S'--'
p457
sg22
S'11/20'
p458
sg24
S'4.0'
p459
sg26
S'--'
p460
sg28
S'--'
p461
sg30
S'W31-20'
p462
sg32
g232
sg34
g10
sg36
S'SD'
p463
sg38
S'4T'
p464
sg40
g10
sg42
S'--'
p465
ssg44
(dp466
g5
S'--'
p467
sg7
S'--'
p468
sg9
g10
sg11
S'--'
p469
sg13
g10
sg14
S'Kellen Davis'
p470
sg16
S'2011'
p471
sg18
S'10'
p472
sg20
S'--'
p473
sg22
S'11/13'
p474
sg24
S'--'
p475
sg26
S'--'
p476
sg28
S'--'
p477
sg30
S'W37-13'
p478
sg32
g48
sg34
g48
sg36
S'DET'
p479
sg38
S'--'
p480
sg40
g48
sg42
S'--'
p481
ssg62
(dp482
g5
S'--'
p483
sg7
S'--'
p484
sg9
g10
sg11
S'--'
p485
sg13
g10
sg14
S'Kellen Davis'
p486
sg16
S'2011'
p487
sg18
S'13'
p488
sg20
S'--'
p489
sg22
S'12/04'
p490
sg24
S'20.0'
p491
sg26
S'--'
p492
sg28
S'--'
p493
sg30
S'L3-10'
p494
sg32
S'40'
p495
sg34
g207
sg36
S'KC'
p496
sg38
S'28'
p497
sg40
g48
sg42
S'--'
p498
ssg79
(dp499
g5
S'--'
p500
sg7
S'--'
p501
sg9
g10
sg11
S'--'
p502
sg13
g10
sg14
S'Kellen Davis'
p503
sg16
S'2011'
p504
sg18
S'12'
p505
sg20
S'--'
p506
sg22
S'11/27'
p507
sg24
S'12.5'
p508
sg26
S'--'
p509
sg28
S'--'
p510
sg30
S'L20-25'
p511
sg32
S'25'
p512
sg34
g207
sg36
S'@OAK'
p513
sg38
S'16'
p514
sg40
g10
sg42
S'--'
p515
ssg99
(dp516
g5
S'--'
p517
sg7
S'--'
p518
sg9
g10
sg11
S'--'
p519
sg13
g10
sg14
S'Kellen Davis'
p520
sg16
S'2011'
p521
sg18
S'15'
p522
sg20
S'--'
p523
sg22
S'12/18'
p524
sg24
S'10.0'
p525
sg26
S'--'
p526
sg28
S'--'
p527
sg30
S'L14-38'
p528
sg32
S'10'
p529
sg34
g10
sg36
S'SEA'
p530
sg38
S'10'
p531
sg40
g48
sg42
S'--'
p532
ssg116
(dp533
g5
S'--'
p534
sg7
S'--'
p535
sg9
g48
sg11
S'--'
p536
sg13
g10
sg14
S'Kellen Davis'
p537
sg16
S'2011'
p538
sg18
S'14'
p539
sg20
S'--'
p540
sg22
S'12/11'
p541
sg24
S'--'
p542
sg26
S'--'
p543
sg28
S'--'
p544
sg30
S'L10-13'
p545
sg32
g48
sg34
g48
sg36
S'@DEN'
p546
sg38
S'--'
p547
sg40
g48
sg42
S'--'
p548
ssg136
(dp549
g5
S'--'
p550
sg7
S'--'
p551
sg9
g10
sg11
S'--'
p552
sg13
g10
sg14
S'Kellen Davis'
p553
sg16
S'2011'
p554
sg18
S'17'
p555
sg20
S'--'
p556
sg22
S'01/01'
p557
sg24
S'--'
p558
sg26
S'--'
p559
sg28
S'--'
p560
sg30
S'W17-13'
p561
sg32
S'--'
p562
sg34
S'--'
p563
sg36
S'@MIN'
p564
sg38
S'--'
p565
sg40
S'--'
p566
sg42
S'--'
p567
ssg153
(dp568
g5
S'--'
p569
sg7
S'--'
p570
sg9
g10
sg11
S'--'
p571
sg13
g10
sg14
S'Kellen Davis'
p572
sg16
S'2011'
p573
sg18
S'16'
p574
sg20
S'--'
p575
sg22
S'12/25'
p576
sg24
S'7.0'
p577
sg26
S'--'
p578
sg28
S'--'
p579
sg30
S'L21-35'
p580
sg32
S'21'
p581
sg34
g188
sg36
S'@GB'
p582
sg38
S'11'
p583
sg40
g10
sg42
S'--'
p584
ssg10
(dp585
g5
S'--'
p586
sg7
S'--'
p587
sg9
g10
sg11
S'--'
p588
sg13
g10
sg14
S'Kellen Davis'
p589
sg16
S'2011'
p590
sg18
g10
sg20
S'--'
p591
sg22
S'09/11'
p592
sg24
S'11.5'
p593
sg26
S'--'
p594
sg28
S'--'
p595
sg30
S'W30-12'
p596
sg32
S'23'
p597
sg34
g207
sg36
S'ATL'
p598
sg38
S'12'
p599
sg40
g48
sg42
S'--'
p600
ssg188
(dp601
g5
S'--'
p602
sg7
S'--'
p603
sg9
g10
sg11
S'--'
p604
sg13
g10
sg14
S'Kellen Davis'
p605
sg16
S'2011'
p606
sg18
g188
sg20
S'--'
p607
sg22
S'09/25'
p608
sg24
S'32.0'
p609
sg26
S'--'
p610
sg28
S'--'
p611
sg30
S'L17-27'
p612
sg32
S'32'
p613
sg34
g10
sg36
S'GB'
p614
sg38
S'32T'
p615
sg40
g10
sg42
S'--'
p616
ssg207
(dp617
g5
S'--'
p618
sg7
S'--'
p619
sg9
g10
sg11
S'--'
p620
sg13
g10
sg14
S'Kellen Davis'
p621
sg16
S'2011'
p622
sg18
g207
sg20
S'--'
p623
sg22
S'09/18'
p624
sg24
S'--'
p625
sg26
S'--'
p626
sg28
S'--'
p627
sg30
S'L13-30'
p628
sg32
g48
sg34
g48
sg36
S'@NO'
p629
sg38
S'--'
p630
sg40
g48
sg42
S'--'
p631
ssg226
(dp632
g5
S'--'
p633
sg7
S'--'
p634
sg9
g10
sg11
S'--'
p635
sg13
g10
sg14
S'Kellen Davis'
p636
sg16
S'2011'
p637
sg18
g226
sg20
S'--'
p638
sg22
S'10/10'
p639
sg24
S'8.3'
p640
sg26
S'--'
p641
sg28
S'--'
p642
sg30
S'L13-24'
p643
sg32
S'25'
p644
sg34
g188
sg36
S'@DET'
p645
sg38
S'17'
p646
sg40
g10
sg42
S'--'
p647
ssg232
(dp648
g5
S'--'
p649
sg7
S'--'
p650
sg9
g10
sg11
S'--'
p651
sg13
g10
sg14
S'Kellen Davis'
p652
sg16
S'2011'
p653
sg18
g232
sg20
S'--'
p654
sg22
S'10/02'
p655
sg24
S'--'
p656
sg26
S'--'
p657
sg28
S'--'
p658
sg30
S'W34-29'
p659
sg32
g48
sg34
g48
sg36
S'CAR'
p660
sg38
S'--'
p661
sg40
g48
sg42
S'--'
p662
ssg251
(dp663
g5
S'--'
p664
sg7
S'--'
p665
sg9
g10
sg11
S'--'
p666
sg13
g10
sg14
S'Kellen Davis'
p667
sg16
S'2011'
p668
sg18
g251
sg20
S'--'
p669
sg22
S'10/23'
p670
sg24
S'--'
p671
sg26
S'--'
p672
sg28
S'--'
p673
sg30
S'W24-18'
p674
sg32
g48
sg34
g48
sg36
S'@TB'
p675
sg38
S'--'
p676
sg40
g48
sg42
S'--'
p677
ssg270
(dp678
g5
S'--'
p679
sg7
S'--'
p680
sg9
g10
sg11
S'--'
p681
sg13
g10
sg14
S'Kellen Davis'
p682
sg16
S'2011'
p683
sg18
g270
sg20
S'--'
p684
sg22
S'10/16'
p685
sg24
S'13.5'
p686
sg26
S'--'
p687
sg28
S'--'
p688
sg30
S'W39-10'
p689
sg32
S'27'
p690
sg34
g207
sg36
S'MIN'
p691
sg38
S'24'
p692
sg40
g48
sg42
S'--'
p693
ssg113
(dp694
g5
S'--'
p695
sg7
S'--'
p696
sg9
g10
sg11
S'--'
p697
sg13
g10
sg14
S'Kellen Davis'
p698
sg16
S'2011'
p699
sg18
g113
sg20
S'--'
p700
sg22
S'11/07'
p701
sg24
S'-1.0'
p702
sg26
S'--'
p703
sg28
S'--'
p704
sg30
S'W30-24'
p705
sg32
S'-1'
p706
sg34
g10
sg36
S'@PHI'
p707
sg38
S'-1'
p708
sg40
g48
sg42
S'--'
p709
ssg76
(dp710
g5
g228
sg7
g228
sg9
g228
sg11
g228
sg13
g228
sg14
S'Kellen Davis'
p711
sg16
S'2011'
p712
sg18
g76
sg20
g228
sg22
S'Bye'
p713
sg24
g228
sg26
g228
sg28
g228
sg30
g228
sg32
g228
sg34
g228
sg36
g228
sg38
g228
sg40
g228
sg42
g228
sssS'2010'
p714
(dp715
g3
(dp716
g5
S'--'
p717
sg7
S'--'
p718
sg9
g48
sg11
S'--'
p719
sg13
g10
sg14
S'Kellen Davis'
p720
sg16
S'2010'
p721
sg18
S'11'
p722
sg20
S'--'
p723
sg22
S'11/18'
p724
sg24
S'--'
p725
sg26
S'--'
p726
sg28
S'--'
p727
sg30
S'W16-0'
p728
sg32
g48
sg34
g48
sg36
S'@MIA'
p729
sg38
S'--'
p730
sg40
g48
sg42
S'--'
p731
ssg44
(dp732
g5
S'--'
p733
sg7
S'--'
p734
sg9
g48
sg11
S'--'
p735
sg13
g10
sg14
S'Kellen Davis'
p736
sg16
S'2010'
p737
sg18
S'10'
p738
sg20
S'--'
p739
sg22
S'11/14'
p740
sg24
S'19.0'
p741
sg26
S'--'
p742
sg28
S'--'
p743
sg30
S'W27-13'
p744
sg32
S'19'
p745
sg34
g10
sg36
S'MIN'
p746
sg38
S'19T'
p747
sg40
g10
sg42
S'--'
p748
ssg62
(dp749
g5
S'--'
p750
sg7
S'--'
p751
sg9
g48
sg11
S'--'
p752
sg13
g10
sg14
S'Kellen Davis'
p753
sg16
S'2010'
p754
sg18
S'13'
p755
sg20
S'--'
p756
sg22
S'12/05'
p757
sg24
S'--'
p758
sg26
S'--'
p759
sg28
S'--'
p760
sg30
S'W24-20'
p761
sg32
S'--'
p762
sg34
S'--'
p763
sg36
S'@DET'
p764
sg38
S'--'
p765
sg40
S'--'
p766
sg42
S'--'
p767
ssg79
(dp768
g5
S'--'
p769
sg7
S'--'
p770
sg9
g10
sg11
S'--'
p771
sg13
g10
sg14
S'Kellen Davis'
p772
sg16
S'2010'
p773
sg18
S'12'
p774
sg20
S'--'
p775
sg22
S'11/28'
p776
sg24
S'--'
p777
sg26
S'--'
p778
sg28
S'--'
p779
sg30
S'W31-26'
p780
sg32
S'--'
p781
sg34
S'--'
p782
sg36
S'PHI'
p783
sg38
S'--'
p784
sg40
S'--'
p785
sg42
S'--'
p786
ssg99
(dp787
g5
S'--'
p788
sg7
S'--'
p789
sg9
g48
sg11
S'--'
p790
sg13
g10
sg14
S'Kellen Davis'
p791
sg16
S'2010'
p792
sg18
S'15'
p793
sg20
S'--'
p794
sg22
S'12/20'
p795
sg24
S'--'
p796
sg26
S'--'
p797
sg28
S'--'
p798
sg30
S'W40-14'
p799
sg32
g48
sg34
g48
sg36
S'@MIN'
p800
sg38
S'--'
p801
sg40
g48
sg42
S'--'
p802
ssg116
(dp803
g5
S'--'
p804
sg7
S'--'
p805
sg9
g48
sg11
S'--'
p806
sg13
g10
sg14
S'Kellen Davis'
p807
sg16
S'2010'
p808
sg18
S'14'
p809
sg20
S'--'
p810
sg22
S'12/12'
p811
sg24
S'--'
p812
sg26
S'--'
p813
sg28
S'--'
p814
sg30
S'L7-36'
p815
sg32
S'--'
p816
sg34
S'--'
p817
sg36
S'NE'
p818
sg38
S'--'
p819
sg40
S'--'
p820
sg42
S'--'
p821
ssg136
(dp822
g5
S'--'
p823
sg7
S'--'
p824
sg9
g48
sg11
S'--'
p825
sg13
g10
sg14
S'Kellen Davis'
p826
sg16
S'2010'
p827
sg18
S'17'
p828
sg20
S'--'
p829
sg22
S'01/02'
p830
sg24
S'--'
p831
sg26
S'--'
p832
sg28
S'--'
p833
sg30
S'L3-10'
p834
sg32
S'--'
p835
sg34
S'--'
p836
sg36
S'@GB'
p837
sg38
S'--'
p838
sg40
S'--'
p839
sg42
S'--'
p840
ssg153
(dp841
g5
S'--'
p842
sg7
S'--'
p843
sg9
g48
sg11
S'--'
p844
sg13
g10
sg14
S'Kellen Davis'
p845
sg16
S'2010'
p846
sg18
S'16'
p847
sg20
S'--'
p848
sg22
S'12/26'
p849
sg24
S'--'
p850
sg26
S'--'
p851
sg28
S'--'
p852
sg30
S'W38-34'
p853
sg32
S'--'
p854
sg34
S'--'
p855
sg36
S'NYJ'
p856
sg38
S'--'
p857
sg40
S'--'
p858
sg42
S'--'
p859
ssg10
(dp860
g5
S'--'
p861
sg7
S'--'
p862
sg9
g48
sg11
S'--'
p863
sg13
g10
sg14
S'Kellen Davis'
p864
sg16
S'2010'
p865
sg18
g10
sg20
S'--'
p866
sg22
S'09/12'
p867
sg24
S'--'
p868
sg26
S'--'
p869
sg28
S'--'
p870
sg30
S'W19-14'
p871
sg32
S'--'
p872
sg34
S'--'
p873
sg36
S'DET'
p874
sg38
S'--'
p875
sg40
S'--'
p876
sg42
S'--'
p877
ssg188
(dp878
g5
S'--'
p879
sg7
S'--'
p880
sg9
g48
sg11
S'--'
p881
sg13
g10
sg14
S'Kellen Davis'
p882
sg16
S'2010'
p883
sg18
g188
sg20
S'--'
p884
sg22
S'09/27'
p885
sg24
S'--'
p886
sg26
S'--'
p887
sg28
S'--'
p888
sg30
S'W20-17'
p889
sg32
S'--'
p890
sg34
S'--'
p891
sg36
S'GB'
p892
sg38
S'--'
p893
sg40
S'--'
p894
sg42
S'--'
p895
ssg207
(dp896
g5
S'--'
p897
sg7
S'--'
p898
sg9
g48
sg11
S'--'
p899
sg13
g10
sg14
S'Kellen Davis'
p900
sg16
S'2010'
p901
sg18
g207
sg20
S'--'
p902
sg22
S'09/19'
p903
sg24
S'--'
p904
sg26
S'--'
p905
sg28
S'--'
p906
sg30
S'W27-20'
p907
sg32
S'--'
p908
sg34
S'--'
p909
sg36
S'@DAL'
p910
sg38
S'--'
p911
sg40
S'--'
p912
sg42
S'--'
p913
ssg226
(dp914
g5
S'--'
p915
sg7
S'--'
p916
sg9
g10
sg11
S'--'
p917
sg13
g10
sg14
S'Kellen Davis'
p918
sg16
S'2010'
p919
sg18
g226
sg20
S'--'
p920
sg22
S'10/10'
p921
sg24
S'--'
p922
sg26
S'--'
p923
sg28
S'--'
p924
sg30
S'W23-6'
p925
sg32
S'--'
p926
sg34
S'--'
p927
sg36
S'@CAR'
p928
sg38
S'--'
p929
sg40
S'--'
p930
sg42
S'--'
p931
ssg232
(dp932
g5
S'--'
p933
sg7
S'--'
p934
sg9
g48
sg11
S'--'
p935
sg13
g10
sg14
S'Kellen Davis'
p936
sg16
S'2010'
p937
sg18
g232
sg20
S'--'
p938
sg22
S'10/03'
p939
sg24
S'--'
p940
sg26
S'--'
p941
sg28
S'--'
p942
sg30
S'L3-17'
p943
sg32
S'--'
p944
sg34
S'--'
p945
sg36
S'@NYG'
p946
sg38
S'--'
p947
sg40
S'--'
p948
sg42
S'--'
p949
ssg251
(dp950
g5
S'--'
p951
sg7
S'--'
p952
sg9
g48
sg11
S'--'
p953
sg13
g10
sg14
S'Kellen Davis'
p954
sg16
S'2010'
p955
sg18
g251
sg20
S'--'
p956
sg22
S'10/24'
p957
sg24
S'--'
p958
sg26
S'--'
p959
sg28
S'--'
p960
sg30
S'L14-17'
p961
sg32
S'--'
p962
sg34
S'--'
p963
sg36
S'WAS'
p964
sg38
S'--'
p965
sg40
S'--'
p966
sg42
S'--'
p967
ssg270
(dp968
g5
S'--'
p969
sg7
S'--'
p970
sg9
g48
sg11
S'--'
p971
sg13
g10
sg14
S'Kellen Davis'
p972
sg16
S'2010'
p973
sg18
g270
sg20
S'--'
p974
sg22
S'10/17'
p975
sg24
S'--'
p976
sg26
S'--'
p977
sg28
S'--'
p978
sg30
S'L20-23'
p979
sg32
S'--'
p980
sg34
S'--'
p981
sg36
S'SEA'
p982
sg38
S'--'
p983
sg40
S'--'
p984
sg42
S'--'
p985
ssg113
(dp986
g5
S'--'
p987
sg7
S'--'
p988
sg9
g10
sg11
S'--'
p989
sg13
g10
sg14
S'Kellen Davis'
p990
sg16
S'2010'
p991
sg18
g113
sg20
S'--'
p992
sg22
S'11/07'
p993
sg24
S'--'
p994
sg26
S'--'
p995
sg28
S'--'
p996
sg30
S'W22-19'
p997
sg32
S'--'
p998
sg34
S'--'
p999
sg36
S'@BUF'
p1000
sg38
S'--'
p1001
sg40
S'--'
p1002
sg42
S'--'
p1003
ssg76
(dp1004
g5
g228
sg7
g228
sg9
g228
sg11
g228
sg13
g228
sg14
S'Kellen Davis'
p1005
sg16
S'2010'
p1006
sg18
g76
sg20
g228
sg22
S'Bye'
p1007
sg24
g228
sg26
g228
sg28
g228
sg30
g228
sg32
g228
sg34
g228
sg36
g228
sg38
g228
sg40
g228
sg42
g228
sssS'2013'
p1008
(dp1009
g3
(dp1010
g5
S'--'
p1011
sg7
S'--'
p1012
sg9
g48
sg11
S'--'
p1013
sg13
g10
sg14
S'Kellen Davis'
p1014
sg16
S'2013'
p1015
sg18
S'11'
p1016
sg20
S'--'
p1017
sg22
S'11/17'
p1018
sg24
S'--'
p1019
sg26
S'--'
p1020
sg28
S'--'
p1021
sg30
S'W41-20'
p1022
sg32
S'--'
p1023
sg34
S'--'
p1024
sg36
S'MIN'
p1025
sg38
S'--'
p1026
sg40
S'--'
p1027
sg42
S'--'
p1028
ssg44
(dp1029
g5
S'--'
p1030
sg7
S'--'
p1031
sg9
g48
sg11
S'--'
p1032
sg13
g10
sg14
S'Kellen Davis'
p1033
sg16
S'2013'
p1034
sg18
S'10'
p1035
sg20
S'--'
p1036
sg22
S'11/10'
p1037
sg24
S'--'
p1038
sg26
S'--'
p1039
sg28
S'--'
p1040
sg30
S'W33-10'
p1041
sg32
S'--'
p1042
sg34
S'--'
p1043
sg36
S'@ATL'
p1044
sg38
S'--'
p1045
sg40
S'--'
p1046
sg42
S'--'
p1047
ssg62
(dp1048
g5
S'--'
p1049
sg7
S'--'
p1050
sg9
g48
sg11
S'--'
p1051
sg13
g10
sg14
S'Kellen Davis'
p1052
sg16
S'2013'
p1053
sg18
S'13'
p1054
sg20
S'--'
p1055
sg22
S'12/02'
p1056
sg24
S'--'
p1057
sg26
S'--'
p1058
sg28
S'--'
p1059
sg30
S'W34-7'
p1060
sg32
S'--'
p1061
sg34
S'--'
p1062
sg36
S'NO'
p1063
sg38
S'--'
p1064
sg40
S'--'
p1065
sg42
S'--'
p1066
ssg79
(dp1067
g5
g228
sg7
g228
sg9
g228
sg11
g228
sg13
g228
sg14
S'Kellen Davis'
p1068
sg16
S'2013'
p1069
sg18
S'12'
p1070
sg20
g228
sg22
S'Bye'
p1071
sg24
g228
sg26
g228
sg28
g228
sg30
g228
sg32
g228
sg34
g228
sg36
g228
sg38
g228
sg40
g228
sg42
g228
ssg99
(dp1072
g5
S'--'
p1073
sg7
S'--'
p1074
sg9
g48
sg11
S'--'
p1075
sg13
g10
sg14
S'Kellen Davis'
p1076
sg16
S'2013'
p1077
sg18
S'15'
p1078
sg20
S'--'
p1079
sg22
S'12/15'
p1080
sg24
S'--'
p1081
sg26
S'--'
p1082
sg28
S'--'
p1083
sg30
S'W23-0'
p1084
sg32
S'--'
p1085
sg34
S'--'
p1086
sg36
S'@NYG'
p1087
sg38
S'--'
p1088
sg40
S'--'
p1089
sg42
S'--'
p1090
ssg116
(dp1091
g5
S'--'
p1092
sg7
S'--'
p1093
sg9
g48
sg11
S'--'
p1094
sg13
g10
sg14
S'Kellen Davis'
p1095
sg16
S'2013'
p1096
sg18
S'14'
p1097
sg20
S'--'
p1098
sg22
S'12/08'
p1099
sg24
S'--'
p1100
sg26
S'--'
p1101
sg28
S'--'
p1102
sg30
S'L17-19'
p1103
sg32
S'--'
p1104
sg34
S'--'
p1105
sg36
S'@SF'
p1106
sg38
S'--'
p1107
sg40
S'--'
p1108
sg42
S'--'
p1109
ssg136
(dp1110
g5
S'--'
p1111
sg7
S'--'
p1112
sg9
g10
sg11
S'--'
p1113
sg13
g10
sg14
S'Kellen Davis'
p1114
sg16
S'2013'
p1115
sg18
S'17'
p1116
sg20
S'--'
p1117
sg22
S'12/29'
p1118
sg24
S'--'
p1119
sg26
S'--'
p1120
sg28
S'--'
p1121
sg30
S'W27-9'
p1122
sg32
S'--'
p1123
sg34
S'--'
p1124
sg36
S'STL'
p1125
sg38
S'--'
p1126
sg40
S'--'
p1127
sg42
S'--'
p1128
ssg153
(dp1129
g5
S'--'
p1130
sg7
S'--'
p1131
sg9
g48
sg11
S'--'
p1132
sg13
g10
sg14
S'Kellen Davis'
p1133
sg16
S'2013'
p1134
sg18
S'16'
p1135
sg20
S'--'
p1136
sg22
S'12/22'
p1137
sg24
S'--'
p1138
sg26
S'--'
p1139
sg28
S'--'
p1140
sg30
S'L10-17'
p1141
sg32
S'--'
p1142
sg34
S'--'
p1143
sg36
S'ARI'
p1144
sg38
S'--'
p1145
sg40
S'--'
p1146
sg42
S'--'
p1147
ssg188
(dp1148
g5
S'--'
p1149
sg7
S'--'
p1150
sg9
g10
sg11
S'--'
p1151
sg13
g10
sg14
S'Kellen Davis'
p1152
sg16
S'2013'
p1153
sg18
g188
sg20
S'--'
p1154
sg22
S'09/22'
p1155
sg24
S'15.5'
p1156
sg26
S'--'
p1157
sg28
S'--'
p1158
sg30
S'W45-17'
p1159
sg32
S'31'
p1160
sg34
g207
sg36
S'JAC'
p1161
sg38
S'23'
p1162
sg40
g48
sg42
S'--'
p1163
ssg207
(dp1164
g5
S'--'
p1165
sg7
S'--'
p1166
sg9
g10
sg11
S'--'
p1167
sg13
g10
sg14
S'Kellen Davis'
p1168
sg16
S'2013'
p1169
sg18
g207
sg20
S'--'
p1170
sg22
S'09/15'
p1171
sg24
S'--'
p1172
sg26
S'--'
p1173
sg28
S'--'
p1174
sg30
S'W29-3'
p1175
sg32
S'--'
p1176
sg34
S'--'
p1177
sg36
S'SF'
p1178
sg38
S'--'
p1179
sg40
S'--'
p1180
sg42
S'--'
p1181
ssg226
(dp1182
g5
S'--'
p1183
sg7
S'--'
p1184
sg9
g48
sg11
S'--'
p1185
sg13
g10
sg14
S'Kellen Davis'
p1186
sg16
S'2013'
p1187
sg18
g226
sg20
S'--'
p1188
sg22
S'10/06'
p1189
sg24
S'--'
p1190
sg26
S'--'
p1191
sg28
S'--'
p1192
sg30
S'L28-34'
p1193
sg32
S'--'
p1194
sg34
S'--'
p1195
sg36
S'@IND'
p1196
sg38
S'--'
p1197
sg40
S'--'
p1198
sg42
S'--'
p1199
ssg232
(dp1200
g5
S'--'
p1201
sg7
S'--'
p1202
sg9
g48
sg11
S'--'
p1203
sg13
g10
sg14
S'Kellen Davis'
p1204
sg16
S'2013'
p1205
sg18
g232
sg20
S'--'
p1206
sg22
S'09/29'
p1207
sg24
S'--'
p1208
sg26
S'--'
p1209
sg28
S'--'
p1210
sg30
S'W23-20'
p1211
sg32
S'--'
p1212
sg34
S'--'
p1213
sg36
S'@HOU'
p1214
sg38
S'--'
p1215
sg40
S'--'
p1216
sg42
S'--'
p1217
ssg251
(dp1218
g5
S'--'
p1219
sg7
S'--'
p1220
sg9
g48
sg11
S'--'
p1221
sg13
g10
sg14
S'Kellen Davis'
p1222
sg16
S'2013'
p1223
sg18
g251
sg20
S'--'
p1224
sg22
S'10/17'
p1225
sg24
S'1.0'
p1226
sg26
S'--'
p1227
sg28
S'--'
p1228
sg30
S'W34-22'
p1229
sg32
g10
sg34
g10
sg36
S'@ARI'
p1230
sg38
S'1T'
p1231
sg40
g10
sg42
S'--'
p1232
ssg270
(dp1233
g5
S'--'
p1234
sg7
S'--'
p1235
sg9
g10
sg11
S'--'
p1236
sg13
g10
sg14
S'Kellen Davis'
p1237
sg16
S'2013'
p1238
sg18
g270
sg20
S'--'
p1239
sg22
S'10/13'
p1240
sg24
S'--'
p1241
sg26
S'--'
p1242
sg28
S'--'
p1243
sg30
S'W20-13'
p1244
sg32
g48
sg34
g48
sg36
S'TEN'
p1245
sg38
S'--'
p1246
sg40
g48
sg42
S'--'
p1247
ssg113
(dp1248
g5
S'--'
p1249
sg7
S'--'
p1250
sg9
g48
sg11
S'--'
p1251
sg13
g10
sg14
S'Kellen Davis'
p1252
sg16
S'2013'
p1253
sg18
g113
sg20
S'--'
p1254
sg22
S'11/03'
p1255
sg24
S'--'
p1256
sg26
S'--'
p1257
sg28
S'--'
p1258
sg30
S'W27-24'
p1259
sg32
S'--'
p1260
sg34
S'--'
p1261
sg36
S'TB'
p1262
sg38
S'--'
p1263
sg40
S'--'
p1264
sg42
S'--'
p1265
ssg76
(dp1266
g5
S'--'
p1267
sg7
S'--'
p1268
sg9
g48
sg11
S'--'
p1269
sg13
g10
sg14
S'Kellen Davis'
p1270
sg16
S'2013'
p1271
sg18
g76
sg20
S'--'
p1272
sg22
S'10/28'
p1273
sg24
S'--'
p1274
sg26
S'--'
p1275
sg28
S'--'
p1276
sg30
S'W14-9'
p1277
sg32
S'--'
p1278
sg34
S'--'
p1279
sg36
S'@STL'
p1280
sg38
S'--'
p1281
sg40
S'--'
p1282
sg42
S'--'
p1283
sssS'2012'
p1284
(dp1285
g3
(dp1286
g5
S'--'
p1287
sg7
S'--'
p1288
sg9
g48
sg11
S'--'
p1289
sg13
g10
sg14
S'Kellen Davis'
p1290
sg16
S'2012'
p1291
sg18
S'11'
p1292
sg20
S'--'
p1293
sg22
S'11/19'
p1294
sg24
S'10.0'
p1295
sg26
S'--'
p1296
sg28
S'--'
p1297
sg30
S'L7-32'
p1298
sg32
S'20'
p1299
sg34
g207
sg36
S'@SF'
p1300
sg38
S'11'
p1301
sg40
g48
sg42
S'--'
p1302
ssg44
(dp1303
g5
S'--'
p1304
sg7
S'--'
p1305
sg9
g10
sg11
g10
sg13
g10
sg14
S'Kellen Davis'
p1306
sg16
S'2012'
p1307
sg18
S'10'
p1308
sg20
S'--'
p1309
sg22
S'11/11'
p1310
sg24
S'6.0'
p1311
sg26
g10
sg28
S'--'
p1312
sg30
S'L6-13'
p1313
sg32
g270
sg34
g10
sg36
S'HOU'
p1314
sg38
g270
sg40
g48
sg42
S'--'
p1315
ssg62
(dp1316
g5
S'--'
p1317
sg7
S'--'
p1318
sg9
g10
sg11
S'--'
p1319
sg13
g10
sg14
S'Kellen Davis'
p1320
sg16
S'2012'
p1321
sg18
S'13'
p1322
sg20
S'--'
p1323
sg22
S'12/02'
p1324
sg24
S'--'
p1325
sg26
S'--'
p1326
sg28
S'--'
p1327
sg30
S'L17-23'
p1328
sg32
g48
sg34
g48
sg36
S'SEA'
p1329
sg38
S'--'
p1330
sg40
g48
sg42
S'--'
p1331
ssg79
(dp1332
g5
S'--'
p1333
sg7
S'--'
p1334
sg9
g10
sg11
S'--'
p1335
sg13
g10
sg14
S'Kellen Davis'
p1336
sg16
S'2012'
p1337
sg18
S'12'
p1338
sg20
S'--'
p1339
sg22
S'11/25'
p1340
sg24
S'15.0'
p1341
sg26
S'--'
p1342
sg28
S'--'
p1343
sg30
S'W28-10'
p1344
sg32
S'15'
p1345
sg34
g10
sg36
S'MIN'
p1346
sg38
S'15'
p1347
sg40
g48
sg42
S'--'
p1348
ssg99
(dp1349
g5
S'--'
p1350
sg7
S'--'
p1351
sg9
g10
sg11
S'--'
p1352
sg13
g10
sg14
S'Kellen Davis'
p1353
sg16
S'2012'
p1354
sg18
S'15'
p1355
sg20
S'--'
p1356
sg22
S'12/16'
p1357
sg24
S'--'
p1358
sg26
S'--'
p1359
sg28
S'--'
p1360
sg30
S'L13-21'
p1361
sg32
S'--'
p1362
sg34
S'--'
p1363
sg36
S'GB'
p1364
sg38
S'--'
p1365
sg40
S'--'
p1366
sg42
S'--'
p1367
ssg116
(dp1368
g5
S'--'
p1369
sg7
S'--'
p1370
sg9
g10
sg11
S'--'
p1371
sg13
g10
sg14
S'Kellen Davis'
p1372
sg16
S'2012'
p1373
sg18
S'14'
p1374
sg20
S'--'
p1375
sg22
S'12/09'
p1376
sg24
S'8.3'
p1377
sg26
S'--'
p1378
sg28
S'--'
p1379
sg30
S'L14-21'
p1380
sg32
S'25'
p1381
sg34
g188
sg36
S'@MIN'
p1382
sg38
S'11'
p1383
sg40
g48
sg42
S'--'
p1384
ssg136
(dp1385
g5
S'--'
p1386
sg7
S'--'
p1387
sg9
g10
sg11
S'--'
p1388
sg13
g10
sg14
S'Kellen Davis'
p1389
sg16
S'2012'
p1390
sg18
S'17'
p1391
sg20
S'--'
p1392
sg22
S'12/30'
p1393
sg24
S'--'
p1394
sg26
S'--'
p1395
sg28
S'--'
p1396
sg30
S'W26-24'
p1397
sg32
g48
sg34
g48
sg36
S'@DET'
p1398
sg38
S'--'
p1399
sg40
g48
sg42
S'--'
p1400
ssg153
(dp1401
g5
S'--'
p1402
sg7
S'--'
p1403
sg9
g10
sg11
S'--'
p1404
sg13
g10
sg14
S'Kellen Davis'
p1405
sg16
S'2012'
p1406
sg18
S'16'
p1407
sg20
S'--'
p1408
sg22
S'12/23'
p1409
sg24
S'9.5'
p1410
sg26
S'--'
p1411
sg28
S'--'
p1412
sg30
S'W28-13'
p1413
sg32
S'19'
p1414
sg34
g207
sg36
S'@ARI'
p1415
sg38
S'12'
p1416
sg40
g48
sg42
S'--'
p1417
ssg10
(dp1418
g5
S'--'
p1419
sg7
S'--'
p1420
sg9
g10
sg11
S'--'
p1421
sg13
g10
sg14
S'Kellen Davis'
p1422
sg16
S'2012'
p1423
sg18
g10
sg20
S'--'
p1424
sg22
S'09/09'
p1425
sg24
S'--'
p1426
sg26
S'--'
p1427
sg28
S'--'
p1428
sg30
S'W41-21'
p1429
sg32
g48
sg34
g48
sg36
S'IND'
p1430
sg38
S'--'
p1431
sg40
g48
sg42
S'--'
p1432
ssg188
(dp1433
g5
S'--'
p1434
sg7
S'--'
p1435
sg9
g10
sg11
S'--'
p1436
sg13
g10
sg14
S'Kellen Davis'
p1437
sg16
S'2012'
p1438
sg18
g188
sg20
S'--'
p1439
sg22
S'09/23'
p1440
sg24
S'10.0'
p1441
sg26
S'--'
p1442
sg28
S'--'
p1443
sg30
S'W23-6'
p1444
sg32
S'20'
p1445
sg34
g207
sg36
S'STL'
p1446
sg38
S'12'
p1447
sg40
g48
sg42
S'--'
p1448
ssg207
(dp1449
g5
S'--'
p1450
sg7
S'--'
p1451
sg9
g10
sg11
S'--'
p1452
sg13
g10
sg14
S'Kellen Davis'
p1453
sg16
S'2012'
p1454
sg18
g207
sg20
S'--'
p1455
sg22
S'09/13'
p1456
sg24
S'21.0'
p1457
sg26
S'--'
p1458
sg28
S'--'
p1459
sg30
S'L10-23'
p1460
sg32
S'21'
p1461
sg34
g10
sg36
S'@GB'
p1462
sg38
S'21T'
p1463
sg40
g10
sg42
S'--'
p1464
ssg226
(dp1465
g5
S'--'
p1466
sg7
S'--'
p1467
sg9
g10
sg11
S'--'
p1468
sg13
g10
sg14
S'Kellen Davis'
p1469
sg16
S'2012'
p1470
sg18
g226
sg20
S'--'
p1471
sg22
S'10/07'
p1472
sg24
S'13.0'
p1473
sg26
S'--'
p1474
sg28
S'--'
p1475
sg30
S'W41-3'
p1476
sg32
S'26'
p1477
sg34
g207
sg36
S'@JAC'
p1478
sg38
S'15'
p1479
sg40
g48
sg42
S'--'
p1480
ssg232
(dp1481
g5
S'--'
p1482
sg7
S'--'
p1483
sg9
g10
sg11
S'--'
p1484
sg13
g10
sg14
S'Kellen Davis'
p1485
sg16
S'2012'
p1486
sg18
g232
sg20
S'--'
p1487
sg22
S'10/01'
p1488
sg24
S'20.7'
p1489
sg26
S'--'
p1490
sg28
S'--'
p1491
sg30
S'W34-18'
p1492
sg32
S'62'
p1493
sg34
g188
sg36
S'@DAL'
p1494
sg38
S'25'
p1495
sg40
g48
sg42
S'--'
p1496
ssg251
(dp1497
g5
S'--'
p1498
sg7
S'--'
p1499
sg9
g10
sg11
S'--'
p1500
sg13
g10
sg14
S'Kellen Davis'
p1501
sg16
S'2012'
p1502
sg18
g251
sg20
S'--'
p1503
sg22
S'10/22'
p1504
sg24
S'3.0'
p1505
sg26
S'--'
p1506
sg28
S'--'
p1507
sg30
S'W13-7'
p1508
sg32
g188
sg34
g10
sg36
S'DET'
p1509
sg38
g188
sg40
g48
sg42
S'--'
p1510
ssg270
(dp1511
g5
g228
sg7
g228
sg9
g228
sg11
g228
sg13
g228
sg14
S'Kellen Davis'
p1512
sg16
S'2012'
p1513
sg18
g270
sg20
g228
sg22
S'Bye'
p1514
sg24
g228
sg26
g228
sg28
g228
sg30
g228
sg32
g228
sg34
g228
sg36
g228
sg38
g228
sg40
g228
sg42
g228
ssg113
(dp1515
g5
S'--'
p1516
sg7
S'--'
p1517
sg9
g10
sg11
S'--'
p1518
sg13
g10
sg14
S'Kellen Davis'
p1519
sg16
S'2012'
p1520
sg18
g113
sg20
S'--'
p1521
sg22
S'11/04'
p1522
sg24
S'--'
p1523
sg26
S'--'
p1524
sg28
S'--'
p1525
sg30
S'W51-20'
p1526
sg32
S'--'
p1527
sg34
S'--'
p1528
sg36
S'@TEN'
p1529
sg38
S'--'
p1530
sg40
S'--'
p1531
sg42
S'--'
p1532
ssg76
(dp1533
g5
S'--'
p1534
sg7
S'--'
p1535
sg9
g10
sg11
S'--'
p1536
sg13
g10
sg14
S'Kellen Davis'
p1537
sg16
S'2012'
p1538
sg18
g76
sg20
S'--'
p1539
sg22
S'10/28'
p1540
sg24
S'12.0'
p1541
sg26
S'--'
p1542
sg28
S'--'
p1543
sg30
S'W23-22'
p1544
sg32
S'12'
p1545
sg34
g10
sg36
S'CAR'
p1546
sg38
S'12T'
p1547
sg40
g10
sg42
S'--'
p1548
sss.