(dp0
S'2015'
p1
(dp2
S'11'
p3
(dp4
S'RushTD'
p5
S'--'
p6
sS'RushYds'
p7
S'--'
p8
sS'GS'
p9
S'0'
p10
sS'Lost'
p11
S'--'
p12
sS'G'
p13
S'1'
p14
sS'Player'
p15
S'Kennard Backman'
p16
sS'Year'
p17
S'2015'
p18
sS'WK'
p19
S'11'
p20
sS'RushAvg'
p21
S'--'
p22
sS'Game Date'
p23
S'11/22'
p24
sS'RecAvg'
p25
S'--'
p26
sS'FUM'
p27
S'--'
p28
sS'RushAtt'
p29
S'--'
p30
sS'Result'
p31
S'W30-13'
p32
sS'RecYds'
p33
S'--'
p34
sS'Rec'
p35
S'--'
p36
sS'Opp'
p37
S'@MIN'
p38
sS'RecLng'
p39
S'--'
p40
sS'RecTD'
p41
S'--'
p42
sS'RushLng'
p43
S'--'
p44
ssS'10'
p45
(dp46
g5
S'--'
p47
sg7
S'--'
p48
sg9
g10
sg11
S'--'
p49
sg13
g10
sg15
S'Kennard Backman'
p50
sg17
S'2015'
p51
sg19
S'10'
p52
sg21
S'--'
p53
sg23
S'11/15'
p54
sg25
S'--'
p55
sg27
S'--'
p56
sg29
S'--'
p57
sg31
S'L16-18'
p58
sg33
S'--'
p59
sg35
S'--'
p60
sg37
S'DET'
p61
sg39
S'--'
p62
sg41
S'--'
p63
sg43
S'--'
p64
ssS'13'
p65
(dp66
g5
S'--'
p67
sg7
S'--'
p68
sg9
g10
sg11
S'--'
p69
sg13
g14
sg15
S'Kennard Backman'
p70
sg17
S'2015'
p71
sg19
S'13'
p72
sg21
S'--'
p73
sg23
S'12/03'
p74
sg25
S'--'
p75
sg27
S'--'
p76
sg29
S'--'
p77
sg31
S'W27-23'
p78
sg33
S'--'
p79
sg35
S'--'
p80
sg37
S'@DET'
p81
sg39
S'--'
p82
sg41
S'--'
p83
sg43
S'--'
p84
ssS'12'
p85
(dp86
g5
S'--'
p87
sg7
S'--'
p88
sg9
g10
sg11
S'--'
p89
sg13
g14
sg15
S'Kennard Backman'
p90
sg17
S'2015'
p91
sg19
S'12'
p92
sg21
S'--'
p93
sg23
S'11/26'
p94
sg25
S'--'
p95
sg27
S'--'
p96
sg29
S'--'
p97
sg31
S'L13-17'
p98
sg33
S'--'
p99
sg35
S'--'
p100
sg37
S'CHI'
p101
sg39
S'--'
p102
sg41
S'--'
p103
sg43
S'--'
p104
ssS'15'
p105
(dp106
g5
S'--'
p107
sg7
S'--'
p108
sg9
g10
sg11
S'--'
p109
sg13
g10
sg15
S'Kennard Backman'
p110
sg17
S'2015'
p111
sg19
S'15'
p112
sg21
S'--'
p113
sg23
S'12/20'
p114
sg25
S'--'
p115
sg27
S'--'
p116
sg29
S'--'
p117
sg31
S'W30-20'
p118
sg33
S'--'
p119
sg35
S'--'
p120
sg37
S'@OAK'
p121
sg39
S'--'
p122
sg41
S'--'
p123
sg43
S'--'
p124
ssS'14'
p125
(dp126
g5
S'--'
p127
sg7
S'--'
p128
sg9
g10
sg11
S'--'
p129
sg13
g14
sg15
S'Kennard Backman'
p130
sg17
S'2015'
p131
sg19
S'14'
p132
sg21
S'--'
p133
sg23
S'12/13'
p134
sg25
S'--'
p135
sg27
S'--'
p136
sg29
S'--'
p137
sg31
S'W28-7'
p138
sg33
S'--'
p139
sg35
S'--'
p140
sg37
S'DAL'
p141
sg39
S'--'
p142
sg41
S'--'
p143
sg43
S'--'
p144
ssS'17'
p145
(dp146
g5
S'--'
p147
sg7
S'--'
p148
sg9
g10
sg11
S'--'
p149
sg13
g14
sg15
S'Kennard Backman'
p150
sg17
S'2015'
p151
sg19
S'17'
p152
sg21
S'--'
p153
sg23
S'01/03'
p154
sg25
S'--'
p155
sg27
S'--'
p156
sg29
S'--'
p157
sg31
S'L13-20'
p158
sg33
S'--'
p159
sg35
S'--'
p160
sg37
S'MIN'
p161
sg39
S'--'
p162
sg41
S'--'
p163
sg43
S'--'
p164
ssS'16'
p165
(dp166
g5
S'--'
p167
sg7
S'--'
p168
sg9
g10
sg11
S'--'
p169
sg13
g10
sg15
S'Kennard Backman'
p170
sg17
S'2015'
p171
sg19
S'16'
p172
sg21
S'--'
p173
sg23
S'12/27'
p174
sg25
S'--'
p175
sg27
S'--'
p176
sg29
S'--'
p177
sg31
S'L8-38'
p178
sg33
S'--'
p179
sg35
S'--'
p180
sg37
S'@ARI'
p181
sg39
S'--'
p182
sg41
S'--'
p183
sg43
S'--'
p184
ssg14
(dp185
g5
S'--'
p186
sg7
S'--'
p187
sg9
g10
sg11
S'--'
p188
sg13
g10
sg15
S'Kennard Backman'
p189
sg17
S'2015'
p190
sg19
g14
sg21
S'--'
p191
sg23
S'09/13'
p192
sg25
S'--'
p193
sg27
S'--'
p194
sg29
S'--'
p195
sg31
S'W31-23'
p196
sg33
S'--'
p197
sg35
S'--'
p198
sg37
S'@CHI'
p199
sg39
S'--'
p200
sg41
S'--'
p201
sg43
S'--'
p202
ssS'3'
p203
(dp204
g5
S'--'
p205
sg7
S'--'
p206
sg9
g10
sg11
S'--'
p207
sg13
g10
sg15
S'Kennard Backman'
p208
sg17
S'2015'
p209
sg19
g203
sg21
S'--'
p210
sg23
S'09/28'
p211
sg25
S'--'
p212
sg27
S'--'
p213
sg29
S'--'
p214
sg31
S'W38-28'
p215
sg33
S'--'
p216
sg35
S'--'
p217
sg37
S'KC'
p218
sg39
S'--'
p219
sg41
S'--'
p220
sg43
S'--'
p221
ssS'2'
p222
(dp223
g5
S'--'
p224
sg7
S'--'
p225
sg9
g10
sg11
S'--'
p226
sg13
g10
sg15
S'Kennard Backman'
p227
sg17
S'2015'
p228
sg19
g222
sg21
S'--'
p229
sg23
S'09/20'
p230
sg25
S'--'
p231
sg27
S'--'
p232
sg29
S'--'
p233
sg31
S'W27-17'
p234
sg33
S'--'
p235
sg35
S'--'
p236
sg37
S'SEA'
p237
sg39
S'--'
p238
sg41
S'--'
p239
sg43
S'--'
p240
ssS'5'
p241
(dp242
g5
S'--'
p243
sg7
S'--'
p244
sg9
g10
sg11
S'--'
p245
sg13
g14
sg15
S'Kennard Backman'
p246
sg17
S'2015'
p247
sg19
g241
sg21
S'--'
p248
sg23
S'10/11'
p249
sg25
S'--'
p250
sg27
S'--'
p251
sg29
S'--'
p252
sg31
S'W24-10'
p253
sg33
S'--'
p254
sg35
S'--'
p255
sg37
S'STL'
p256
sg39
S'--'
p257
sg41
S'--'
p258
sg43
S'--'
p259
ssS'4'
p260
(dp261
g5
S'--'
p262
sg7
S'--'
p263
sg9
g10
sg11
S'--'
p264
sg13
g14
sg15
S'Kennard Backman'
p265
sg17
S'2015'
p266
sg19
g260
sg21
S'--'
p267
sg23
S'10/04'
p268
sg25
S'--'
p269
sg27
S'--'
p270
sg29
S'--'
p271
sg31
S'W17-3'
p272
sg33
S'--'
p273
sg35
S'--'
p274
sg37
S'@SF'
p275
sg39
S'--'
p276
sg41
S'--'
p277
sg43
S'--'
p278
ssS'7'
p279
(dp280
g5
S''
p281
sg7
g281
sg9
g281
sg11
g281
sg13
g281
sg15
S'Kennard Backman'
p282
sg17
S'2015'
p283
sg19
g279
sg21
g281
sg23
S'Bye'
p284
sg25
g281
sg27
g281
sg29
g281
sg31
g281
sg33
g281
sg35
g281
sg37
g281
sg39
g281
sg41
g281
sg43
g281
ssS'6'
p285
(dp286
g5
S'--'
p287
sg7
S'--'
p288
sg9
g10
sg11
S'--'
p289
sg13
g10
sg15
S'Kennard Backman'
p290
sg17
S'2015'
p291
sg19
g285
sg21
S'--'
p292
sg23
S'10/18'
p293
sg25
S'--'
p294
sg27
S'--'
p295
sg29
S'--'
p296
sg31
S'W27-20'
p297
sg33
S'--'
p298
sg35
S'--'
p299
sg37
S'SD'
p300
sg39
S'--'
p301
sg41
S'--'
p302
sg43
S'--'
p303
ssS'9'
p304
(dp305
g5
S'--'
p306
sg7
S'--'
p307
sg9
g10
sg11
S'--'
p308
sg13
g10
sg15
S'Kennard Backman'
p309
sg17
S'2015'
p310
sg19
g304
sg21
S'--'
p311
sg23
S'11/08'
p312
sg25
S'--'
p313
sg27
S'--'
p314
sg29
S'--'
p315
sg31
S'L29-37'
p316
sg33
S'--'
p317
sg35
S'--'
p318
sg37
S'@CAR'
p319
sg39
S'--'
p320
sg41
S'--'
p321
sg43
S'--'
p322
ssS'8'
p323
(dp324
g5
S'--'
p325
sg7
S'--'
p326
sg9
g10
sg11
S'--'
p327
sg13
g10
sg15
S'Kennard Backman'
p328
sg17
S'2015'
p329
sg19
g323
sg21
S'--'
p330
sg23
S'11/01'
p331
sg25
S'--'
p332
sg27
S'--'
p333
sg29
S'--'
p334
sg31
S'L10-29'
p335
sg33
S'--'
p336
sg35
S'--'
p337
sg37
S'@DEN'
p338
sg39
S'--'
p339
sg41
S'--'
p340
sg43
S'--'
p341
sss.