(dp0
S'2015'
p1
(dp2
S'11'
p3
(dp4
S'RushTD'
p5
S'--'
p6
sS'RushYds'
p7
S'--'
p8
sS'GS'
p9
S'1'
p10
sS'Lost'
p11
S'--'
p12
sS'G'
p13
g10
sS'Player'
p14
S'Khari Lee'
p15
sS'Year'
p16
S'2015'
p17
sS'WK'
p18
S'11'
p19
sS'RushAvg'
p20
S'--'
p21
sS'Game Date'
p22
S'11/22'
p23
sS'RecAvg'
p24
S'--'
p25
sS'FUM'
p26
S'--'
p27
sS'RushAtt'
p28
S'--'
p29
sS'Result'
p30
S'L15-17'
p31
sS'RecYds'
p32
S'--'
p33
sS'Rec'
p34
S'--'
p35
sS'Opp'
p36
S'DEN'
p37
sS'RecLng'
p38
S'--'
p39
sS'RecTD'
p40
S'--'
p41
sS'RushLng'
p42
S'--'
p43
ssS'10'
p44
(dp45
g5
S'--'
p46
sg7
S'--'
p47
sg9
S'0'
p48
sg11
S'--'
p49
sg13
g10
sg14
S'Khari Lee'
p50
sg16
S'2015'
p51
sg18
S'10'
p52
sg20
S'--'
p53
sg22
S'11/15'
p54
sg24
S'--'
p55
sg26
S'--'
p56
sg28
S'--'
p57
sg30
S'W37-13'
p58
sg32
S'--'
p59
sg34
S'--'
p60
sg36
S'@STL'
p61
sg38
S'--'
p62
sg40
S'--'
p63
sg42
S'--'
p64
ssS'13'
p65
(dp66
g5
S'--'
p67
sg7
S'--'
p68
sg9
g48
sg11
S'--'
p69
sg13
g10
sg14
S'Khari Lee'
p70
sg16
S'2015'
p71
sg18
S'13'
p72
sg20
S'--'
p73
sg22
S'12/06'
p74
sg24
S'--'
p75
sg26
S'--'
p76
sg28
S'--'
p77
sg30
S'L20-26'
p78
sg32
S'--'
p79
sg34
S'--'
p80
sg36
S'SF'
p81
sg38
S'--'
p82
sg40
S'--'
p83
sg42
S'--'
p84
ssS'12'
p85
(dp86
g5
S'--'
p87
sg7
S'--'
p88
sg9
g10
sg11
S'--'
p89
sg13
g10
sg14
S'Khari Lee'
p90
sg16
S'2015'
p91
sg18
S'12'
p92
sg20
S'--'
p93
sg22
S'11/26'
p94
sg24
S'7.0'
p95
sg26
S'--'
p96
sg28
S'--'
p97
sg30
S'W17-13'
p98
sg32
S'7'
p99
sg34
g10
sg36
S'@GB'
p100
sg38
g99
sg40
g48
sg42
S'--'
p101
ssS'15'
p102
(dp103
g5
S'--'
p104
sg7
S'--'
p105
sg9
g10
sg11
S'--'
p106
sg13
g10
sg14
S'Khari Lee'
p107
sg16
S'2015'
p108
sg18
S'15'
p109
sg20
S'--'
p110
sg22
S'12/20'
p111
sg24
S'--'
p112
sg26
S'--'
p113
sg28
S'--'
p114
sg30
S'L17-38'
p115
sg32
S'--'
p116
sg34
S'--'
p117
sg36
S'@MIN'
p118
sg38
S'--'
p119
sg40
S'--'
p120
sg42
S'--'
p121
ssS'14'
p122
(dp123
g5
S'--'
p124
sg7
S'--'
p125
sg9
g48
sg11
S'--'
p126
sg13
g10
sg14
S'Khari Lee'
p127
sg16
S'2015'
p128
sg18
S'14'
p129
sg20
S'--'
p130
sg22
S'12/13'
p131
sg24
S'--'
p132
sg26
S'--'
p133
sg28
S'--'
p134
sg30
S'L21-24'
p135
sg32
g48
sg34
g48
sg36
S'WAS'
p136
sg38
S'--'
p137
sg40
g48
sg42
S'--'
p138
ssS'17'
p139
(dp140
g5
S'--'
p141
sg7
S'--'
p142
sg9
g10
sg11
S'--'
p143
sg13
g10
sg14
S'Khari Lee'
p144
sg16
S'2015'
p145
sg18
S'17'
p146
sg20
S'--'
p147
sg22
S'01/03'
p148
sg24
S'--'
p149
sg26
S'--'
p150
sg28
S'--'
p151
sg30
S'L20-24'
p152
sg32
S'--'
p153
sg34
S'--'
p154
sg36
S'DET'
p155
sg38
S'--'
p156
sg40
S'--'
p157
sg42
S'--'
p158
ssS'16'
p159
(dp160
g5
S'--'
p161
sg7
S'--'
p162
sg9
g48
sg11
S'--'
p163
sg13
g10
sg14
S'Khari Lee'
p164
sg16
S'2015'
p165
sg18
S'16'
p166
sg20
S'--'
p167
sg22
S'12/27'
p168
sg24
S'--'
p169
sg26
S'--'
p170
sg28
S'--'
p171
sg30
S'W26-21'
p172
sg32
S'--'
p173
sg34
S'--'
p174
sg36
S'@TB'
p175
sg38
S'--'
p176
sg40
S'--'
p177
sg42
S'--'
p178
ssg10
(dp179
g5
S'--'
p180
sg7
S'--'
p181
sg9
g10
sg11
S'--'
p182
sg13
g10
sg14
S'Khari Lee'
p183
sg16
S'2015'
p184
sg18
g10
sg20
S'--'
p185
sg22
S'09/13'
p186
sg24
S'--'
p187
sg26
S'--'
p188
sg28
S'--'
p189
sg30
S'L23-31'
p190
sg32
S'--'
p191
sg34
S'--'
p192
sg36
S'GB'
p193
sg38
S'--'
p194
sg40
S'--'
p195
sg42
S'--'
p196
ssS'3'
p197
(dp198
g5
S'--'
p199
sg7
S'--'
p200
sg9
g10
sg11
S'--'
p201
sg13
g10
sg14
S'Khari Lee'
p202
sg16
S'2015'
p203
sg18
g197
sg20
S'--'
p204
sg22
S'09/27'
p205
sg24
S'--'
p206
sg26
S'--'
p207
sg28
S'--'
p208
sg30
S'L0-26'
p209
sg32
S'--'
p210
sg34
S'--'
p211
sg36
S'@SEA'
p212
sg38
S'--'
p213
sg40
S'--'
p214
sg42
S'--'
p215
ssS'2'
p216
(dp217
g5
S'--'
p218
sg7
S'--'
p219
sg9
g48
sg11
S'--'
p220
sg13
g10
sg14
S'Khari Lee'
p221
sg16
S'2015'
p222
sg18
g216
sg20
S'--'
p223
sg22
S'09/20'
p224
sg24
S'--'
p225
sg26
S'--'
p226
sg28
S'--'
p227
sg30
S'L23-48'
p228
sg32
S'--'
p229
sg34
S'--'
p230
sg36
S'ARI'
p231
sg38
S'--'
p232
sg40
S'--'
p233
sg42
S'--'
p234
ssS'5'
p235
(dp236
g5
S'--'
p237
sg7
S'--'
p238
sg9
g48
sg11
S'--'
p239
sg13
g10
sg14
S'Khari Lee'
p240
sg16
S'2015'
p241
sg18
g235
sg20
S'--'
p242
sg22
S'10/11'
p243
sg24
S'--'
p244
sg26
S'--'
p245
sg28
S'--'
p246
sg30
S'W18-17'
p247
sg32
g48
sg34
g48
sg36
S'@KC'
p248
sg38
S'--'
p249
sg40
g48
sg42
S'--'
p250
ssS'4'
p251
(dp252
g5
S'--'
p253
sg7
S'--'
p254
sg9
g10
sg11
S'--'
p255
sg13
g10
sg14
S'Khari Lee'
p256
sg16
S'2015'
p257
sg18
g251
sg20
S'--'
p258
sg22
S'10/04'
p259
sg24
S'--'
p260
sg26
S'--'
p261
sg28
S'--'
p262
sg30
S'W22-20'
p263
sg32
S'--'
p264
sg34
S'--'
p265
sg36
S'OAK'
p266
sg38
S'--'
p267
sg40
S'--'
p268
sg42
S'--'
p269
ssg99
(dp270
g5
S''
p271
sg7
g271
sg9
g271
sg11
g271
sg13
g271
sg14
S'Khari Lee'
p272
sg16
S'2015'
p273
sg18
g99
sg20
g271
sg22
S'Bye'
p274
sg24
g271
sg26
g271
sg28
g271
sg30
g271
sg32
g271
sg34
g271
sg36
g271
sg38
g271
sg40
g271
sg42
g271
ssS'6'
p275
(dp276
g5
S'--'
p277
sg7
S'--'
p278
sg9
g48
sg11
S'--'
p279
sg13
g10
sg14
S'Khari Lee'
p280
sg16
S'2015'
p281
sg18
g275
sg20
S'--'
p282
sg22
S'10/18'
p283
sg24
S'--'
p284
sg26
S'--'
p285
sg28
S'--'
p286
sg30
S'L34-37'
p287
sg32
S'--'
p288
sg34
S'--'
p289
sg36
S'@DET'
p290
sg38
S'--'
p291
sg40
S'--'
p292
sg42
S'--'
p293
ssS'9'
p294
(dp295
g5
S'--'
p296
sg7
S'--'
p297
sg9
g48
sg11
S'--'
p298
sg13
g10
sg14
S'Khari Lee'
p299
sg16
S'2015'
p300
sg18
g294
sg20
S'--'
p301
sg22
S'11/09'
p302
sg24
S'--'
p303
sg26
S'--'
p304
sg28
S'--'
p305
sg30
S'W22-19'
p306
sg32
S'--'
p307
sg34
S'--'
p308
sg36
S'@SD'
p309
sg38
S'--'
p310
sg40
S'--'
p311
sg42
S'--'
p312
ssS'8'
p313
(dp314
g5
S'--'
p315
sg7
S'--'
p316
sg9
g48
sg11
S'--'
p317
sg13
g10
sg14
S'Khari Lee'
p318
sg16
S'2015'
p319
sg18
g313
sg20
S'--'
p320
sg22
S'11/01'
p321
sg24
S'--'
p322
sg26
S'--'
p323
sg28
S'--'
p324
sg30
S'L20-23'
p325
sg32
S'--'
p326
sg34
S'--'
p327
sg36
S'MIN'
p328
sg38
S'--'
p329
sg40
S'--'
p330
sg42
S'--'
p331
sss.