(dp0
S'2015'
p1
(dp2
S'15'
p3
(dp4
S'RushTD'
p5
S'--'
p6
sS'RushYds'
p7
S'--'
p8
sS'GS'
p9
S'0'
p10
sS'Lost'
p11
S'--'
p12
sS'G'
p13
S'1'
p14
sS'Player'
p15
S'Konrad Reuland'
p16
sS'Year'
p17
S'2015'
p18
sS'WK'
p19
S'15'
p20
sS'RushAvg'
p21
S'--'
p22
sS'Game Date'
p23
S'12/20'
p24
sS'RecAvg'
p25
S'--'
p26
sS'FUM'
p27
S'--'
p28
sS'RushAtt'
p29
S'--'
p30
sS'Result'
p31
S'L14-34'
p32
sS'RecYds'
p33
S'--'
p34
sS'Rec'
p35
S'--'
p36
sS'Opp'
p37
S'KC'
p38
sS'RecLng'
p39
S'--'
p40
sS'RecTD'
p41
S'--'
p42
sS'RushLng'
p43
S'--'
p44
ssS'14'
p45
(dp46
g5
S'--'
p47
sg7
S'--'
p48
sg9
g10
sg11
S'--'
p49
sg13
g14
sg15
S'Konrad Reuland'
p50
sg17
S'2015'
p51
sg19
S'14'
p52
sg21
S'--'
p53
sg23
S'12/13'
p54
sg25
S'--'
p55
sg27
S'--'
p56
sg29
S'--'
p57
sg31
S'L6-35'
p58
sg33
S'--'
p59
sg35
S'--'
p60
sg37
S'SEA'
p61
sg39
S'--'
p62
sg41
S'--'
p63
sg43
S'--'
p64
ssS'17'
p65
(dp66
g5
S'--'
p67
sg7
S'--'
p68
sg9
g10
sg11
S'--'
p69
sg13
g14
sg15
S'Konrad Reuland'
p70
sg17
S'2015'
p71
sg19
S'17'
p72
sg21
S'--'
p73
sg23
S'01/03'
p74
sg25
S'--'
p75
sg27
S'--'
p76
sg29
S'--'
p77
sg31
S'L16-24'
p78
sg33
S'--'
p79
sg35
S'--'
p80
sg37
S'@CIN'
p81
sg39
S'--'
p82
sg41
S'--'
p83
sg43
S'--'
p84
ssS'16'
p85
(dp86
g5
S'--'
p87
sg7
S'--'
p88
sg9
g14
sg11
S'--'
p89
sg13
g14
sg15
S'Konrad Reuland'
p90
sg17
S'2015'
p91
sg19
S'16'
p92
sg21
S'--'
p93
sg23
S'12/27'
p94
sg25
S'--'
p95
sg27
S'--'
p96
sg29
S'--'
p97
sg31
S'W20-17'
p98
sg33
S'--'
p99
sg35
S'--'
p100
sg37
S'PIT'
p101
sg39
S'--'
p102
sg41
S'--'
p103
sg43
S'--'
p104
sssS'2013'
p105
(dp106
S'11'
p107
(dp108
g5
S'--'
p109
sg7
S'--'
p110
sg9
g10
sg11
S'--'
p111
sg13
g14
sg15
S'Konrad Reuland'
p112
sg17
S'2013'
p113
sg19
S'11'
p114
sg21
S'--'
p115
sg23
S'11/17'
p116
sg25
S'--'
p117
sg27
S'--'
p118
sg29
S'--'
p119
sg31
S'L14-37'
p120
sg33
S'--'
p121
sg35
S'--'
p122
sg37
S'@BUF'
p123
sg39
S'--'
p124
sg41
S'--'
p125
sg43
S'--'
p126
ssS'10'
p127
(dp128
g5
S''
p129
sg7
g129
sg9
g129
sg11
g129
sg13
g129
sg15
S'Konrad Reuland'
p130
sg17
S'2013'
p131
sg19
S'10'
p132
sg21
g129
sg23
S'Bye'
p133
sg25
g129
sg27
g129
sg29
g129
sg31
g129
sg33
g129
sg35
g129
sg37
g129
sg39
g129
sg41
g129
sg43
g129
ssg14
(dp134
g5
S'--'
p135
sg7
S'--'
p136
sg9
g10
sg11
S'--'
p137
sg13
g14
sg15
S'Konrad Reuland'
p138
sg17
S'2013'
p139
sg19
g14
sg21
S'--'
p140
sg23
S'09/08'
p141
sg25
S'7.0'
p142
sg27
S'--'
p143
sg29
S'--'
p144
sg31
S'W18-17'
p145
sg33
S'7'
p146
sg35
g14
sg37
S'TB'
p147
sg39
g146
sg41
g10
sg43
S'--'
p148
ssS'3'
p149
(dp150
g5
S'--'
p151
sg7
S'--'
p152
sg9
g10
sg11
S'--'
p153
sg13
g14
sg15
S'Konrad Reuland'
p154
sg17
S'2013'
p155
sg19
g149
sg21
S'--'
p156
sg23
S'09/22'
p157
sg25
S'--'
p158
sg27
S'--'
p159
sg29
S'--'
p160
sg31
S'W27-20'
p161
sg33
S'--'
p162
sg35
S'--'
p163
sg37
S'BUF'
p164
sg39
S'--'
p165
sg41
S'--'
p166
sg43
S'--'
p167
ssS'2'
p168
(dp169
g5
S'--'
p170
sg7
S'--'
p171
sg9
g10
sg11
S'--'
p172
sg13
g14
sg15
S'Konrad Reuland'
p173
sg17
S'2013'
p174
sg19
g168
sg21
S'--'
p175
sg23
S'09/12'
p176
sg25
S'--'
p177
sg27
S'--'
p178
sg29
S'--'
p179
sg31
S'L10-13'
p180
sg33
S'--'
p181
sg35
S'--'
p182
sg37
S'@NE'
p183
sg39
S'--'
p184
sg41
S'--'
p185
sg43
S'--'
p186
ssS'5'
p187
(dp188
g5
S'--'
p189
sg7
S'--'
p190
sg9
g10
sg11
S'--'
p191
sg13
g14
sg15
S'Konrad Reuland'
p192
sg17
S'2013'
p193
sg19
g187
sg21
S'--'
p194
sg23
S'10/07'
p195
sg25
S'--'
p196
sg27
S'--'
p197
sg29
S'--'
p198
sg31
S'W30-28'
p199
sg33
S'--'
p200
sg35
S'--'
p201
sg37
S'@ATL'
p202
sg39
S'--'
p203
sg41
S'--'
p204
sg43
S'--'
p205
ssS'4'
p206
(dp207
g5
S'--'
p208
sg7
S'--'
p209
sg9
g10
sg11
S'--'
p210
sg13
g14
sg15
S'Konrad Reuland'
p211
sg17
S'2013'
p212
sg19
g206
sg21
S'--'
p213
sg23
S'09/29'
p214
sg25
S'--'
p215
sg27
S'--'
p216
sg29
S'--'
p217
sg31
S'L13-38'
p218
sg33
S'--'
p219
sg35
S'--'
p220
sg37
S'@TEN'
p221
sg39
S'--'
p222
sg41
S'--'
p223
sg43
S'--'
p224
ssg146
(dp225
g5
S'--'
p226
sg7
S'--'
p227
sg9
g10
sg11
S'--'
p228
sg13
g14
sg15
S'Konrad Reuland'
p229
sg17
S'2013'
p230
sg19
g146
sg21
S'--'
p231
sg23
S'10/20'
p232
sg25
S'--'
p233
sg27
S'--'
p234
sg29
S'--'
p235
sg31
S'W30-27'
p236
sg33
S'--'
p237
sg35
S'--'
p238
sg37
S'NE'
p239
sg39
S'--'
p240
sg41
S'--'
p241
sg43
S'--'
p242
ssS'6'
p243
(dp244
g5
S'--'
p245
sg7
S'--'
p246
sg9
g10
sg11
S'--'
p247
sg13
g14
sg15
S'Konrad Reuland'
p248
sg17
S'2013'
p249
sg19
g243
sg21
S'--'
p250
sg23
S'10/13'
p251
sg25
S'--'
p252
sg27
S'--'
p253
sg29
S'--'
p254
sg31
S'L6-19'
p255
sg33
g10
sg35
g10
sg37
S'PIT'
p256
sg39
S'--'
p257
sg41
g10
sg43
S'--'
p258
ssS'9'
p259
(dp260
g5
S'--'
p261
sg7
S'--'
p262
sg9
g10
sg11
S'--'
p263
sg13
g14
sg15
S'Konrad Reuland'
p264
sg17
S'2013'
p265
sg19
g259
sg21
S'--'
p266
sg23
S'11/03'
p267
sg25
S'--'
p268
sg27
S'--'
p269
sg29
S'--'
p270
sg31
S'W26-20'
p271
sg33
S'--'
p272
sg35
S'--'
p273
sg37
S'NO'
p274
sg39
S'--'
p275
sg41
S'--'
p276
sg43
S'--'
p277
ssS'8'
p278
(dp279
g5
S'--'
p280
sg7
S'--'
p281
sg9
g10
sg11
S'--'
p282
sg13
g14
sg15
S'Konrad Reuland'
p283
sg17
S'2013'
p284
sg19
g278
sg21
S'--'
p285
sg23
S'10/27'
p286
sg25
S'--'
p287
sg27
S'--'
p288
sg29
S'--'
p289
sg31
S'L9-49'
p290
sg33
S'--'
p291
sg35
S'--'
p292
sg37
S'@CIN'
p293
sg39
S'--'
p294
sg41
S'--'
p295
sg43
S'--'
p296
sssS'2012'
p297
(dp298
g107
(dp299
g5
S'--'
p300
sg7
S'--'
p301
sg9
g10
sg11
S'--'
p302
sg13
g14
sg15
S'Konrad Reuland'
p303
sg17
S'2012'
p304
sg19
S'11'
p305
sg21
S'--'
p306
sg23
S'11/18'
p307
sg25
S'18.0'
p308
sg27
S'--'
p309
sg29
S'--'
p310
sg31
S'W27-13'
p311
sg33
S'18'
p312
sg35
g14
sg37
S'@STL'
p313
sg39
S'18'
p314
sg41
g10
sg43
S'--'
p315
ssg127
(dp316
g5
S'--'
p317
sg7
S'--'
p318
sg9
g10
sg11
S'--'
p319
sg13
g14
sg15
S'Konrad Reuland'
p320
sg17
S'2012'
p321
sg19
S'10'
p322
sg21
S'--'
p323
sg23
S'11/11'
p324
sg25
S'--'
p325
sg27
S'--'
p326
sg29
S'--'
p327
sg31
S'L7-28'
p328
sg33
S'--'
p329
sg35
S'--'
p330
sg37
S'@SEA'
p331
sg39
S'--'
p332
sg41
S'--'
p333
sg43
S'--'
p334
ssS'13'
p335
(dp336
g5
S'--'
p337
sg7
S'--'
p338
sg9
g14
sg11
S'--'
p339
sg13
g14
sg15
S'Konrad Reuland'
p340
sg17
S'2012'
p341
sg19
S'13'
p342
sg21
S'--'
p343
sg23
S'12/02'
p344
sg25
S'--'
p345
sg27
S'--'
p346
sg29
S'--'
p347
sg31
S'W7-6'
p348
sg33
S'--'
p349
sg35
S'--'
p350
sg37
S'ARI'
p351
sg39
S'--'
p352
sg41
S'--'
p353
sg43
S'--'
p354
ssS'12'
p355
(dp356
g5
S'--'
p357
sg7
S'--'
p358
sg9
g10
sg11
S'--'
p359
sg13
g14
sg15
S'Konrad Reuland'
p360
sg17
S'2012'
p361
sg19
S'12'
p362
sg21
S'--'
p363
sg23
S'11/22'
p364
sg25
S'7.0'
p365
sg27
S'--'
p366
sg29
S'--'
p367
sg31
S'L19-49'
p368
sg33
g146
sg35
g14
sg37
S'NE'
p369
sg39
g146
sg41
g10
sg43
S'--'
p370
ssg3
(dp371
g5
S'--'
p372
sg7
S'--'
p373
sg9
g10
sg11
S'--'
p374
sg13
g14
sg15
S'Konrad Reuland'
p375
sg17
S'2012'
p376
sg19
S'15'
p377
sg21
S'--'
p378
sg23
S'12/17'
p379
sg25
S'4.0'
p380
sg27
S'--'
p381
sg29
S'--'
p382
sg31
S'L10-14'
p383
sg33
g206
sg35
g14
sg37
S'@TEN'
p384
sg39
g206
sg41
g10
sg43
S'--'
p385
ssg45
(dp386
g5
S'--'
p387
sg7
S'--'
p388
sg9
g14
sg11
S'--'
p389
sg13
g14
sg15
S'Konrad Reuland'
p390
sg17
S'2012'
p391
sg19
S'14'
p392
sg21
S'--'
p393
sg23
S'12/09'
p394
sg25
S'3.5'
p395
sg27
S'--'
p396
sg29
S'--'
p397
sg31
S'W17-10'
p398
sg33
g146
sg35
g168
sg37
S'@JAC'
p399
sg39
g187
sg41
g10
sg43
S'--'
p400
ssg65
(dp401
g5
S'--'
p402
sg7
S'--'
p403
sg9
g14
sg11
S'--'
p404
sg13
g14
sg15
S'Konrad Reuland'
p405
sg17
S'2012'
p406
sg19
S'17'
p407
sg21
S'--'
p408
sg23
S'12/30'
p409
sg25
S'4.0'
p410
sg27
S'--'
p411
sg29
S'--'
p412
sg31
S'L9-28'
p413
sg33
g206
sg35
g14
sg37
S'@BUF'
p414
sg39
g206
sg41
g10
sg43
S'--'
p415
ssg85
(dp416
g5
S'--'
p417
sg7
S'--'
p418
sg9
g10
sg11
S'--'
p419
sg13
g14
sg15
S'Konrad Reuland'
p420
sg17
S'2012'
p421
sg19
S'16'
p422
sg21
S'--'
p423
sg23
S'12/23'
p424
sg25
S'--'
p425
sg27
S'--'
p426
sg29
S'--'
p427
sg31
S'L17-27'
p428
sg33
g10
sg35
g10
sg37
S'SD'
p429
sg39
S'--'
p430
sg41
g10
sg43
S'--'
p431
ssg14
(dp432
g5
S'--'
p433
sg7
S'--'
p434
sg9
g10
sg11
S'--'
p435
sg13
g14
sg15
S'Konrad Reuland'
p436
sg17
S'2012'
p437
sg19
g14
sg21
S'--'
p438
sg23
S'09/09'
p439
sg25
S'--'
p440
sg27
S'--'
p441
sg29
S'--'
p442
sg31
S'W48-28'
p443
sg33
S'--'
p444
sg35
S'--'
p445
sg37
S'BUF'
p446
sg39
S'--'
p447
sg41
S'--'
p448
sg43
S'--'
p449
ssg149
(dp450
g5
S'--'
p451
sg7
S'--'
p452
sg9
g10
sg11
S'--'
p453
sg13
g14
sg15
S'Konrad Reuland'
p454
sg17
S'2012'
p455
sg19
g149
sg21
S'--'
p456
sg23
S'09/23'
p457
sg25
S'6.0'
p458
sg27
S'--'
p459
sg29
S'--'
p460
sg31
S'W23-20'
p461
sg33
S'12'
p462
sg35
g168
sg37
S'@MIA'
p463
sg39
S'10'
p464
sg41
g10
sg43
S'--'
p465
ssg168
(dp466
g5
S'--'
p467
sg7
S'--'
p468
sg9
g10
sg11
S'--'
p469
sg13
g14
sg15
S'Konrad Reuland'
p470
sg17
S'2012'
p471
sg19
g168
sg21
S'--'
p472
sg23
S'09/16'
p473
sg25
S'10.0'
p474
sg27
S'--'
p475
sg29
S'--'
p476
sg31
S'L10-27'
p477
sg33
S'20'
p478
sg35
g168
sg37
S'@PIT'
p479
sg39
S'13'
p480
sg41
g10
sg43
S'--'
p481
ssg187
(dp482
g5
S'--'
p483
sg7
S'--'
p484
sg9
g10
sg11
S'--'
p485
sg13
g14
sg15
S'Konrad Reuland'
p486
sg17
S'2012'
p487
sg19
g187
sg21
S'--'
p488
sg23
S'10/08'
p489
sg25
S'--'
p490
sg27
S'--'
p491
sg29
S'--'
p492
sg31
S'L17-23'
p493
sg33
g10
sg35
g10
sg37
S'HOU'
p494
sg39
S'--'
p495
sg41
g10
sg43
S'--'
p496
ssg206
(dp497
g5
S'--'
p498
sg7
S'--'
p499
sg9
g10
sg11
S'--'
p500
sg13
g14
sg15
S'Konrad Reuland'
p501
sg17
S'2012'
p502
sg19
g206
sg21
S'--'
p503
sg23
S'09/30'
p504
sg25
S'--'
p505
sg27
S'--'
p506
sg29
S'--'
p507
sg31
S'L0-34'
p508
sg33
S'--'
p509
sg35
S'--'
p510
sg37
S'SF'
p511
sg39
S'--'
p512
sg41
S'--'
p513
sg43
S'--'
p514
ssg146
(dp515
g5
S'--'
p516
sg7
S'--'
p517
sg9
g10
sg11
S'--'
p518
sg13
g14
sg15
S'Konrad Reuland'
p519
sg17
S'2012'
p520
sg19
g146
sg21
S'--'
p521
sg23
S'10/21'
p522
sg25
S'11.0'
p523
sg27
S'--'
p524
sg29
S'--'
p525
sg31
S'L26-29'
p526
sg33
S'11'
p527
sg35
g14
sg37
S'@NE'
p528
sg39
S'11'
p529
sg41
g10
sg43
S'--'
p530
ssg243
(dp531
g5
S'--'
p532
sg7
S'--'
p533
sg9
g10
sg11
S'--'
p534
sg13
g14
sg15
S'Konrad Reuland'
p535
sg17
S'2012'
p536
sg19
g243
sg21
S'--'
p537
sg23
S'10/14'
p538
sg25
S'--'
p539
sg27
S'--'
p540
sg29
S'--'
p541
sg31
S'W35-9'
p542
sg33
S'--'
p543
sg35
S'--'
p544
sg37
S'IND'
p545
sg39
S'--'
p546
sg41
S'--'
p547
sg43
S'--'
p548
ssg259
(dp549
g5
g129
sg7
g129
sg9
g129
sg11
g129
sg13
g129
sg15
S'Konrad Reuland'
p550
sg17
S'2012'
p551
sg19
g259
sg21
g129
sg23
S'Bye'
p552
sg25
g129
sg27
g129
sg29
g129
sg31
g129
sg33
g129
sg35
g129
sg37
g129
sg39
g129
sg41
g129
sg43
g129
ssg278
(dp553
g5
S'--'
p554
sg7
S'--'
p555
sg9
g10
sg11
S'--'
p556
sg13
g14
sg15
S'Konrad Reuland'
p557
sg17
S'2012'
p558
sg19
g278
sg21
S'--'
p559
sg23
S'10/28'
p560
sg25
S'--'
p561
sg27
S'--'
p562
sg29
S'--'
p563
sg31
S'L9-30'
p564
sg33
g10
sg35
g10
sg37
S'MIA'
p565
sg39
S'--'
p566
sg41
g10
sg43
S'--'
p567
sss.