(dp0
S'2015'
p1
(dp2
S'11'
p3
(dp4
S'RushTD'
p5
S''
p6
sS'RushYds'
p7
g6
sS'GS'
p8
g6
sS'Lost'
p9
g6
sS'G'
p10
g6
sS'Player'
p11
S'Larry Donnell'
p12
sS'Year'
p13
S'2015'
p14
sS'WK'
p15
S'11'
p16
sS'RushAvg'
p17
g6
sS'Game Date'
p18
S'Bye'
p19
sS'RecAvg'
p20
g6
sS'FUM'
p21
g6
sS'RushAtt'
p22
g6
sS'Result'
p23
g6
sS'RecYds'
p24
g6
sS'Rec'
p25
g6
sS'Opp'
p26
g6
sS'RecLng'
p27
g6
sS'RecTD'
p28
g6
sS'RushLng'
p29
g6
ssS'10'
p30
(dp31
g5
S'--'
p32
sg7
S'--'
p33
sg8
S'0'
p34
sg9
S'--'
p35
sg10
g34
sg11
S'Larry Donnell'
p36
sg13
S'2015'
p37
sg15
S'10'
p38
sg17
S'--'
p39
sg18
S'11/15'
p40
sg20
S'--'
p41
sg21
S'--'
p42
sg22
S'--'
p43
sg23
S'L26-27'
p44
sg24
S'--'
p45
sg25
S'--'
p46
sg26
S'NE'
p47
sg27
S'--'
p48
sg28
S'--'
p49
sg29
S'--'
p50
ssS'13'
p51
(dp52
g5
S'--'
p53
sg7
S'--'
p54
sg8
g34
sg9
S'--'
p55
sg10
g34
sg11
S'Larry Donnell'
p56
sg13
S'2015'
p57
sg15
S'13'
p58
sg17
S'--'
p59
sg18
S'12/06'
p60
sg20
S'--'
p61
sg21
S'--'
p62
sg22
S'--'
p63
sg23
S'L20-23'
p64
sg24
S'--'
p65
sg25
S'--'
p66
sg26
S'NYJ'
p67
sg27
S'--'
p68
sg28
S'--'
p69
sg29
S'--'
p70
ssS'12'
p71
(dp72
g5
S'--'
p73
sg7
S'--'
p74
sg8
g34
sg9
S'--'
p75
sg10
g34
sg11
S'Larry Donnell'
p76
sg13
S'2015'
p77
sg15
S'12'
p78
sg17
S'--'
p79
sg18
S'11/29'
p80
sg20
S'--'
p81
sg21
S'--'
p82
sg22
S'--'
p83
sg23
S'L14-20'
p84
sg24
S'--'
p85
sg25
S'--'
p86
sg26
S'@WAS'
p87
sg27
S'--'
p88
sg28
S'--'
p89
sg29
S'--'
p90
ssS'1'
p91
(dp92
g5
S'--'
p93
sg7
S'--'
p94
sg8
g91
sg9
S'--'
p95
sg10
g91
sg11
S'Larry Donnell'
p96
sg13
S'2015'
p97
sg15
g91
sg17
S'--'
p98
sg18
S'09/13'
p99
sg20
S'7.0'
p100
sg21
S'--'
p101
sg22
S'--'
p102
sg23
S'L26-27'
p103
sg24
S'21'
p104
sg25
S'3'
p105
sg26
S'@DAL'
p106
sg27
S'8'
p107
sg28
g34
sg29
S'--'
p108
ssg105
(dp109
g5
S'--'
p110
sg7
S'--'
p111
sg8
g91
sg9
S'--'
p112
sg10
g91
sg11
S'Larry Donnell'
p113
sg13
S'2015'
p114
sg15
g105
sg17
S'--'
p115
sg18
S'09/24'
p116
sg20
S'10.7'
p117
sg21
S'--'
p118
sg22
S'--'
p119
sg23
S'W32-21'
p120
sg24
S'32'
p121
sg25
g105
sg26
S'WAS'
p122
sg27
S'22'
p123
sg28
g34
sg29
S'--'
p124
ssS'2'
p125
(dp126
g5
S'--'
p127
sg7
S'--'
p128
sg8
g91
sg9
S'--'
p129
sg10
g91
sg11
S'Larry Donnell'
p130
sg13
S'2015'
p131
sg15
g125
sg17
S'--'
p132
sg18
S'09/20'
p133
sg20
S'7.0'
p134
sg21
S'--'
p135
sg22
S'--'
p136
sg23
S'L20-24'
p137
sg24
S'28'
p138
sg25
S'4'
p139
sg26
S'ATL'
p140
sg27
S'10T'
p141
sg28
g91
sg29
S'--'
p142
ssS'5'
p143
(dp144
g5
S'--'
p145
sg7
S'--'
p146
sg8
g91
sg9
S'--'
p147
sg10
g91
sg11
S'Larry Donnell'
p148
sg13
S'2015'
p149
sg15
g143
sg17
S'--'
p150
sg18
S'10/11'
p151
sg20
S'5.8'
p152
sg21
S'--'
p153
sg22
S'--'
p154
sg23
S'W30-27'
p155
sg24
S'35'
p156
sg25
S'6'
p157
sg26
S'SF'
p158
sg27
S'12T'
p159
sg28
g91
sg29
S'--'
p160
ssg139
(dp161
g5
S'--'
p162
sg7
S'--'
p163
sg8
g91
sg9
S'--'
p164
sg10
g91
sg11
S'Larry Donnell'
p165
sg13
S'2015'
p166
sg15
g139
sg17
S'--'
p167
sg18
S'10/04'
p168
sg20
S'7.6'
p169
sg21
S'--'
p170
sg22
S'--'
p171
sg23
S'W24-10'
p172
sg24
S'38'
p173
sg25
g143
sg26
S'@BUF'
p174
sg27
S'16'
p175
sg28
g34
sg29
S'--'
p176
ssS'7'
p177
(dp178
g5
S'--'
p179
sg7
S'--'
p180
sg8
g91
sg9
S'--'
p181
sg10
g91
sg11
S'Larry Donnell'
p182
sg13
S'2015'
p183
sg15
g177
sg17
S'--'
p184
sg18
S'10/25'
p185
sg20
S'4.5'
p186
sg21
S'--'
p187
sg22
S'--'
p188
sg23
S'W27-20'
p189
sg24
S'18'
p190
sg25
g139
sg26
S'DAL'
p191
sg27
S'10'
p192
sg28
g34
sg29
S'--'
p193
ssg157
(dp194
g5
S'--'
p195
sg7
S'--'
p196
sg8
g91
sg9
S'--'
p197
sg10
g91
sg11
S'Larry Donnell'
p198
sg13
S'2015'
p199
sg15
g157
sg17
S'--'
p200
sg18
S'10/19'
p201
sg20
S'9.7'
p202
sg21
S'--'
p203
sg22
S'--'
p204
sg23
S'L7-27'
p205
sg24
S'29'
p206
sg25
g105
sg26
S'@PHI'
p207
sg27
S'16'
p208
sg28
g34
sg29
S'--'
p209
ssS'9'
p210
(dp211
g5
S'--'
p212
sg7
S'--'
p213
sg8
g34
sg9
S'--'
p214
sg10
g34
sg11
S'Larry Donnell'
p215
sg13
S'2015'
p216
sg15
g210
sg17
S'--'
p217
sg18
S'11/08'
p218
sg20
S'--'
p219
sg21
S'--'
p220
sg22
S'--'
p221
sg23
S'W32-18'
p222
sg24
S'--'
p223
sg25
S'--'
p224
sg26
S'@TB'
p225
sg27
S'--'
p226
sg28
S'--'
p227
sg29
S'--'
p228
ssg107
(dp229
g5
S'--'
p230
sg7
S'--'
p231
sg8
g91
sg9
S'--'
p232
sg10
g91
sg11
S'Larry Donnell'
p233
sg13
S'2015'
p234
sg15
g107
sg17
S'--'
p235
sg18
S'11/01'
p236
sg20
S'22.0'
p237
sg21
S'--'
p238
sg22
S'--'
p239
sg23
S'L49-52'
p240
sg24
S'22'
p241
sg25
g91
sg26
S'@NO'
p242
sg27
S'22'
p243
sg28
g34
sg29
S'--'
p244
sssS'2014'
p245
(dp246
g3
(dp247
g5
S'--'
p248
sg7
S'--'
p249
sg8
g91
sg9
S'--'
p250
sg10
g91
sg11
S'Larry Donnell'
p251
sg13
S'2014'
p252
sg15
S'11'
p253
sg17
S'--'
p254
sg18
S'11/16'
p255
sg20
S'18.0'
p256
sg21
S'--'
p257
sg22
S'--'
p258
sg23
S'L10-16'
p259
sg24
S'54'
p260
sg25
g105
sg26
S'SF'
p261
sg27
S'30'
p262
sg28
g91
sg29
S'--'
p263
ssg30
(dp264
g5
S'--'
p265
sg7
S'--'
p266
sg8
g91
sg9
S'--'
p267
sg10
g91
sg11
S'Larry Donnell'
p268
sg13
S'2014'
p269
sg15
S'10'
p270
sg17
S'--'
p271
sg18
S'11/09'
p272
sg20
S'6.5'
p273
sg21
S'--'
p274
sg22
S'--'
p275
sg23
S'L17-38'
p276
sg24
S'26'
p277
sg25
g139
sg26
S'@SEA'
p278
sg27
g177
sg28
g34
sg29
S'--'
p279
ssg51
(dp280
g5
S'--'
p281
sg7
S'--'
p282
sg8
g34
sg9
g91
sg10
g91
sg11
S'Larry Donnell'
p283
sg13
S'2014'
p284
sg15
S'13'
p285
sg17
S'--'
p286
sg18
S'11/30'
p287
sg20
S'11.0'
p288
sg21
g91
sg22
S'--'
p289
sg23
S'L24-25'
p290
sg24
S'55'
p291
sg25
g143
sg26
S'@JAC'
p292
sg27
S'32'
p293
sg28
g34
sg29
S'--'
p294
ssg71
(dp295
g5
S'--'
p296
sg7
S'--'
p297
sg8
g91
sg9
S'--'
p298
sg10
g91
sg11
S'Larry Donnell'
p299
sg13
S'2014'
p300
sg15
S'12'
p301
sg17
S'--'
p302
sg18
S'11/23'
p303
sg20
S'12.0'
p304
sg21
S'--'
p305
sg22
S'--'
p306
sg23
S'L28-31'
p307
sg24
S'24'
p308
sg25
g125
sg26
S'DAL'
p309
sg27
S'16'
p310
sg28
g34
sg29
S'--'
p311
ssS'15'
p312
(dp313
g5
S'--'
p314
sg7
S'--'
p315
sg8
g34
sg9
S'--'
p316
sg10
g91
sg11
S'Larry Donnell'
p317
sg13
S'2014'
p318
sg15
S'15'
p319
sg17
S'--'
p320
sg18
S'12/14'
p321
sg20
S'5.5'
p322
sg21
S'--'
p323
sg22
S'--'
p324
sg23
S'W24-13'
p325
sg24
S'11'
p326
sg25
g125
sg26
S'WAS'
p327
sg27
g157
sg28
g34
sg29
S'--'
p328
ssS'14'
p329
(dp330
g5
S'--'
p331
sg7
S'--'
p332
sg8
g34
sg9
S'--'
p333
sg10
g91
sg11
S'Larry Donnell'
p334
sg13
S'2014'
p335
sg15
S'14'
p336
sg17
S'--'
p337
sg18
S'12/07'
p338
sg20
S'7.0'
p339
sg21
S'--'
p340
sg22
S'--'
p341
sg23
S'W36-7'
p342
sg24
S'28'
p343
sg25
g139
sg26
S'@TEN'
p344
sg27
S'11'
p345
sg28
g34
sg29
S'--'
p346
ssS'17'
p347
(dp348
g5
S'--'
p349
sg7
S'--'
p350
sg8
g91
sg9
S'--'
p351
sg10
g91
sg11
S'Larry Donnell'
p352
sg13
S'2014'
p353
sg15
S'17'
p354
sg17
S'--'
p355
sg18
S'12/28'
p356
sg20
S'13.0'
p357
sg21
S'--'
p358
sg22
S'--'
p359
sg23
S'L26-34'
p360
sg24
S'26'
p361
sg25
g125
sg26
S'PHI'
p362
sg27
S'16'
p363
sg28
g34
sg29
S'--'
p364
ssS'16'
p365
(dp366
g5
S'--'
p367
sg7
S'--'
p368
sg8
g91
sg9
S'--'
p369
sg10
g91
sg11
S'Larry Donnell'
p370
sg13
S'2014'
p371
sg15
S'16'
p372
sg17
S'--'
p373
sg18
S'12/21'
p374
sg20
S'10.5'
p375
sg21
S'--'
p376
sg22
S'--'
p377
sg23
S'W37-27'
p378
sg24
S'42'
p379
sg25
g139
sg26
S'@STL'
p380
sg27
S'23'
p381
sg28
g34
sg29
S'--'
p382
ssg91
(dp383
g5
S'--'
p384
sg7
S'--'
p385
sg8
g34
sg9
S'--'
p386
sg10
g91
sg11
S'Larry Donnell'
p387
sg13
S'2014'
p388
sg15
g91
sg17
S'--'
p389
sg18
S'09/08'
p390
sg20
S'11.2'
p391
sg21
S'--'
p392
sg22
S'--'
p393
sg23
S'L14-35'
p394
sg24
S'56'
p395
sg25
g143
sg26
S'@DET'
p396
sg27
S'19'
p397
sg28
g91
sg29
S'--'
p398
ssg105
(dp399
g5
S'--'
p400
sg7
S'--'
p401
sg8
g91
sg9
g91
sg10
g91
sg11
S'Larry Donnell'
p402
sg13
S'2014'
p403
sg15
g105
sg17
S'--'
p404
sg18
S'09/21'
p405
sg20
S'7.5'
p406
sg21
g91
sg22
S'--'
p407
sg23
S'W30-17'
p408
sg24
S'45'
p409
sg25
g157
sg26
S'HOU'
p410
sg27
S'18'
p411
sg28
g34
sg29
S'--'
p412
ssg125
(dp413
g5
S'--'
p414
sg7
S'--'
p415
sg8
g91
sg9
S'--'
p416
sg10
g91
sg11
S'Larry Donnell'
p417
sg13
S'2014'
p418
sg15
g125
sg17
S'--'
p419
sg18
S'09/14'
p420
sg20
S'11.6'
p421
sg21
S'--'
p422
sg22
S'--'
p423
sg23
S'L14-25'
p424
sg24
S'81'
p425
sg25
g177
sg26
S'ARI'
p426
sg27
S'23'
p427
sg28
g34
sg29
S'--'
p428
ssg143
(dp429
g5
S'--'
p430
sg7
S'--'
p431
sg8
g91
sg9
S'--'
p432
sg10
g91
sg11
S'Larry Donnell'
p433
sg13
S'2014'
p434
sg15
g143
sg17
S'--'
p435
sg18
S'10/05'
p436
sg20
S'--'
p437
sg21
S'--'
p438
sg22
S'--'
p439
sg23
S'W30-20'
p440
sg24
g34
sg25
g34
sg26
S'ATL'
p441
sg27
S'--'
p442
sg28
g34
sg29
S'--'
p443
ssg139
(dp444
g5
S'--'
p445
sg7
S'--'
p446
sg8
g91
sg9
S'--'
p447
sg10
g91
sg11
S'Larry Donnell'
p448
sg13
S'2014'
p449
sg15
g139
sg17
S'--'
p450
sg18
S'09/25'
p451
sg20
S'7.7'
p452
sg21
S'--'
p453
sg22
S'--'
p454
sg23
S'W45-14'
p455
sg24
S'54'
p456
sg25
g177
sg26
S'@WAS'
p457
sg27
S'14'
p458
sg28
g105
sg29
S'--'
p459
ssg177
(dp460
g5
S'--'
p461
sg7
S'--'
p462
sg8
g91
sg9
g125
sg10
g91
sg11
S'Larry Donnell'
p463
sg13
S'2014'
p464
sg15
g177
sg17
S'--'
p465
sg18
S'10/19'
p466
sg20
S'12.9'
p467
sg21
g125
sg22
S'--'
p468
sg23
S'L21-31'
p469
sg24
S'90'
p470
sg25
g177
sg26
S'@DAL'
p471
sg27
S'21'
p472
sg28
g34
sg29
S'--'
p473
ssg157
(dp474
g5
S'--'
p475
sg7
S'--'
p476
sg8
g91
sg9
S'--'
p477
sg10
g91
sg11
S'Larry Donnell'
p478
sg13
S'2014'
p479
sg15
g157
sg17
S'--'
p480
sg18
S'10/12'
p481
sg20
S'6.0'
p482
sg21
S'--'
p483
sg22
S'--'
p484
sg23
S'L0-27'
p485
sg24
g157
sg25
g91
sg26
S'@PHI'
p486
sg27
g157
sg28
g34
sg29
S'--'
p487
ssg210
(dp488
g5
S'--'
p489
sg7
S'--'
p490
sg8
g91
sg9
S'--'
p491
sg10
g91
sg11
S'Larry Donnell'
p492
sg13
S'2014'
p493
sg15
g210
sg17
S'--'
p494
sg18
S'11/03'
p495
sg20
S'6.3'
p496
sg21
S'--'
p497
sg22
S'--'
p498
sg23
S'L24-40'
p499
sg24
S'25'
p500
sg25
g139
sg26
S'IND'
p501
sg27
S'14'
p502
sg28
g91
sg29
S'--'
p503
ssg107
(dp504
g5
g6
sg7
g6
sg8
g6
sg9
g6
sg10
g6
sg11
S'Larry Donnell'
p505
sg13
S'2014'
p506
sg15
g107
sg17
g6
sg18
S'Bye'
p507
sg20
g6
sg21
g6
sg22
g6
sg23
g6
sg24
g6
sg25
g6
sg26
g6
sg27
g6
sg28
g6
sg29
g6
sssS'2013'
p508
(dp509
g3
(dp510
g5
S'--'
p511
sg7
S'--'
p512
sg8
g34
sg9
S'--'
p513
sg10
g91
sg11
S'Larry Donnell'
p514
sg13
S'2013'
p515
sg15
S'11'
p516
sg17
S'--'
p517
sg18
S'11/17'
p518
sg20
S'--'
p519
sg21
S'--'
p520
sg22
S'--'
p521
sg23
S'W27-13'
p522
sg24
S'--'
p523
sg25
S'--'
p524
sg26
S'GB'
p525
sg27
S'--'
p526
sg28
S'--'
p527
sg29
S'--'
p528
ssg30
(dp529
g5
S'--'
p530
sg7
S'--'
p531
sg8
g34
sg9
S'--'
p532
sg10
g91
sg11
S'Larry Donnell'
p533
sg13
S'2013'
p534
sg15
S'10'
p535
sg17
S'--'
p536
sg18
S'11/10'
p537
sg20
S'--'
p538
sg21
S'--'
p539
sg22
S'--'
p540
sg23
S'W24-20'
p541
sg24
S'--'
p542
sg25
S'--'
p543
sg26
S'OAK'
p544
sg27
S'--'
p545
sg28
S'--'
p546
sg29
S'--'
p547
ssg51
(dp548
g5
S'--'
p549
sg7
S'--'
p550
sg8
g34
sg9
S'--'
p551
sg10
g91
sg11
S'Larry Donnell'
p552
sg13
S'2013'
p553
sg15
S'13'
p554
sg17
S'--'
p555
sg18
S'12/01'
p556
sg20
S'--'
p557
sg21
S'--'
p558
sg22
S'--'
p559
sg23
S'W24-17'
p560
sg24
S'--'
p561
sg25
S'--'
p562
sg26
S'@WAS'
p563
sg27
S'--'
p564
sg28
S'--'
p565
sg29
S'--'
p566
ssg71
(dp567
g5
S'--'
p568
sg7
S'--'
p569
sg8
g34
sg9
S'--'
p570
sg10
g91
sg11
S'Larry Donnell'
p571
sg13
S'2013'
p572
sg15
S'12'
p573
sg17
S'--'
p574
sg18
S'11/24'
p575
sg20
S'--'
p576
sg21
S'--'
p577
sg22
S'--'
p578
sg23
S'L21-24'
p579
sg24
S'--'
p580
sg25
S'--'
p581
sg26
S'DAL'
p582
sg27
S'--'
p583
sg28
S'--'
p584
sg29
S'--'
p585
ssg312
(dp586
g5
S'--'
p587
sg7
S'--'
p588
sg8
g34
sg9
S'--'
p589
sg10
g91
sg11
S'Larry Donnell'
p590
sg13
S'2013'
p591
sg15
S'15'
p592
sg17
S'--'
p593
sg18
S'12/15'
p594
sg20
S'--'
p595
sg21
S'--'
p596
sg22
S'--'
p597
sg23
S'L0-23'
p598
sg24
S'--'
p599
sg25
S'--'
p600
sg26
S'SEA'
p601
sg27
S'--'
p602
sg28
S'--'
p603
sg29
S'--'
p604
ssg329
(dp605
g5
S'--'
p606
sg7
S'--'
p607
sg8
g34
sg9
S'--'
p608
sg10
g91
sg11
S'Larry Donnell'
p609
sg13
S'2013'
p610
sg15
S'14'
p611
sg17
S'--'
p612
sg18
S'12/08'
p613
sg20
S'--'
p614
sg21
S'--'
p615
sg22
S'--'
p616
sg23
S'L14-37'
p617
sg24
S'--'
p618
sg25
S'--'
p619
sg26
S'@SD'
p620
sg27
S'--'
p621
sg28
S'--'
p622
sg29
S'--'
p623
ssg347
(dp624
g5
S'--'
p625
sg7
S'--'
p626
sg8
g34
sg9
S'--'
p627
sg10
g91
sg11
S'Larry Donnell'
p628
sg13
S'2013'
p629
sg15
S'17'
p630
sg17
S'--'
p631
sg18
S'12/29'
p632
sg20
S'--'
p633
sg21
S'--'
p634
sg22
S'--'
p635
sg23
S'W20-6'
p636
sg24
S'--'
p637
sg25
S'--'
p638
sg26
S'WAS'
p639
sg27
S'--'
p640
sg28
S'--'
p641
sg29
S'--'
p642
ssg365
(dp643
g5
S'--'
p644
sg7
S'--'
p645
sg8
g34
sg9
S'--'
p646
sg10
g91
sg11
S'Larry Donnell'
p647
sg13
S'2013'
p648
sg15
S'16'
p649
sg17
S'--'
p650
sg18
S'12/22'
p651
sg20
S'--'
p652
sg21
S'--'
p653
sg22
S'--'
p654
sg23
S'W23-20'
p655
sg24
S'--'
p656
sg25
S'--'
p657
sg26
S'@DET'
p658
sg27
S'--'
p659
sg28
S'--'
p660
sg29
S'--'
p661
ssg91
(dp662
g5
S'--'
p663
sg7
S'--'
p664
sg8
g91
sg9
S'--'
p665
sg10
g91
sg11
S'Larry Donnell'
p666
sg13
S'2013'
p667
sg15
g91
sg17
S'--'
p668
sg18
S'09/08'
p669
sg20
S'--'
p670
sg21
S'--'
p671
sg22
S'--'
p672
sg23
S'L31-36'
p673
sg24
S'--'
p674
sg25
S'--'
p675
sg26
S'@DAL'
p676
sg27
S'--'
p677
sg28
S'--'
p678
sg29
S'--'
p679
ssg105
(dp680
g5
S'--'
p681
sg7
S'--'
p682
sg8
g34
sg9
S'--'
p683
sg10
g91
sg11
S'Larry Donnell'
p684
sg13
S'2013'
p685
sg15
g105
sg17
S'--'
p686
sg18
S'09/22'
p687
sg20
S'--'
p688
sg21
S'--'
p689
sg22
S'--'
p690
sg23
S'L0-38'
p691
sg24
S'--'
p692
sg25
S'--'
p693
sg26
S'@CAR'
p694
sg27
S'--'
p695
sg28
S'--'
p696
sg29
S'--'
p697
ssg125
(dp698
g5
S'--'
p699
sg7
S'--'
p700
sg8
g34
sg9
S'--'
p701
sg10
g91
sg11
S'Larry Donnell'
p702
sg13
S'2013'
p703
sg15
g125
sg17
S'--'
p704
sg18
S'09/15'
p705
sg20
S'10.3'
p706
sg21
S'--'
p707
sg22
S'--'
p708
sg23
S'L23-41'
p709
sg24
S'31'
p710
sg25
g105
sg26
S'DEN'
p711
sg27
S'11'
p712
sg28
g34
sg29
S'--'
p713
ssg143
(dp714
g5
S'--'
p715
sg7
S'--'
p716
sg8
g34
sg9
S'--'
p717
sg10
g91
sg11
S'Larry Donnell'
p718
sg13
S'2013'
p719
sg15
g143
sg17
S'--'
p720
sg18
S'10/06'
p721
sg20
S'--'
p722
sg21
S'--'
p723
sg22
S'--'
p724
sg23
S'L21-36'
p725
sg24
S'--'
p726
sg25
S'--'
p727
sg26
S'PHI'
p728
sg27
S'--'
p729
sg28
S'--'
p730
sg29
S'--'
p731
ssg139
(dp732
g5
S'--'
p733
sg7
S'--'
p734
sg8
g34
sg9
S'--'
p735
sg10
g91
sg11
S'Larry Donnell'
p736
sg13
S'2013'
p737
sg15
g139
sg17
S'--'
p738
sg18
S'09/29'
p739
sg20
S'--'
p740
sg21
S'--'
p741
sg22
S'--'
p742
sg23
S'L7-31'
p743
sg24
S'--'
p744
sg25
S'--'
p745
sg26
S'@KC'
p746
sg27
S'--'
p747
sg28
S'--'
p748
sg29
S'--'
p749
ssg177
(dp750
g5
S'--'
p751
sg7
S'--'
p752
sg8
g34
sg9
S'--'
p753
sg10
g91
sg11
S'Larry Donnell'
p754
sg13
S'2013'
p755
sg15
g177
sg17
S'--'
p756
sg18
S'10/21'
p757
sg20
S'--'
p758
sg21
S'--'
p759
sg22
S'--'
p760
sg23
S'W23-7'
p761
sg24
g34
sg25
g34
sg26
S'MIN'
p762
sg27
S'--'
p763
sg28
g34
sg29
S'--'
p764
ssg157
(dp765
g5
S'--'
p766
sg7
S'--'
p767
sg8
g34
sg9
S'--'
p768
sg10
g91
sg11
S'Larry Donnell'
p769
sg13
S'2013'
p770
sg15
g157
sg17
S'--'
p771
sg18
S'10/10'
p772
sg20
S'--'
p773
sg21
S'--'
p774
sg22
S'--'
p775
sg23
S'L21-27'
p776
sg24
g34
sg25
g34
sg26
S'@CHI'
p777
sg27
S'--'
p778
sg28
g34
sg29
S'--'
p779
ssg210
(dp780
g5
g6
sg7
g6
sg8
g6
sg9
g6
sg10
g6
sg11
S'Larry Donnell'
p781
sg13
S'2013'
p782
sg15
g210
sg17
g6
sg18
S'Bye'
p783
sg20
g6
sg21
g6
sg22
g6
sg23
g6
sg24
g6
sg25
g6
sg26
g6
sg27
g6
sg28
g6
sg29
g6
ssg107
(dp784
g5
S'--'
p785
sg7
S'--'
p786
sg8
g34
sg9
S'--'
p787
sg10
g91
sg11
S'Larry Donnell'
p788
sg13
S'2013'
p789
sg15
g107
sg17
S'--'
p790
sg18
S'10/27'
p791
sg20
S'--'
p792
sg21
S'--'
p793
sg22
S'--'
p794
sg23
S'W15-7'
p795
sg24
g34
sg25
g34
sg26
S'@PHI'
p796
sg27
S'--'
p797
sg28
g34
sg29
S'--'
p798
sss.