(dp0
S'2015'
p1
(dp2
S'11'
p3
(dp4
S'RushTD'
p5
S'--'
p6
sS'RushYds'
p7
S'--'
p8
sS'GS'
p9
S'0'
p10
sS'Lost'
p11
S'--'
p12
sS'G'
p13
g10
sS'Player'
p14
S'Lee Smith'
p15
sS'Year'
p16
S'2015'
p17
sS'WK'
p18
S'11'
p19
sS'RushAvg'
p20
S'--'
p21
sS'Game Date'
p22
S'11/22'
p23
sS'RecAvg'
p24
S'--'
p25
sS'FUM'
p26
S'--'
p27
sS'RushAtt'
p28
S'--'
p29
sS'Result'
p30
S'L13-18'
p31
sS'RecYds'
p32
S'--'
p33
sS'Rec'
p34
S'--'
p35
sS'Opp'
p36
S'@DET'
p37
sS'RecLng'
p38
S'--'
p39
sS'RecTD'
p40
S'--'
p41
sS'RushLng'
p42
S'--'
p43
ssS'10'
p44
(dp45
g5
S'--'
p46
sg7
S'--'
p47
sg9
S'1'
p48
sg11
S'--'
p49
sg13
g48
sg14
S'Lee Smith'
p50
sg16
S'2015'
p51
sg18
S'10'
p52
sg20
S'--'
p53
sg22
S'11/15'
p54
sg24
S'1.0'
p55
sg26
S'--'
p56
sg28
S'--'
p57
sg30
S'L14-30'
p58
sg32
g48
sg34
g48
sg36
S'MIN'
p59
sg38
g48
sg40
g10
sg42
S'--'
p60
ssS'13'
p61
(dp62
g5
S'--'
p63
sg7
S'--'
p64
sg9
g48
sg11
S'--'
p65
sg13
g48
sg14
S'Lee Smith'
p66
sg16
S'2015'
p67
sg18
S'13'
p68
sg20
S'--'
p69
sg22
S'12/06'
p70
sg24
S'5.0'
p71
sg26
S'--'
p72
sg28
S'--'
p73
sg30
S'L20-34'
p74
sg32
S'5'
p75
sg34
g48
sg36
S'KC'
p76
sg38
S'5T'
p77
sg40
g48
sg42
S'--'
p78
ssS'12'
p79
(dp80
g5
S'--'
p81
sg7
S'--'
p82
sg9
g48
sg11
S'--'
p83
sg13
g48
sg14
S'Lee Smith'
p84
sg16
S'2015'
p85
sg18
S'12'
p86
sg20
S'--'
p87
sg22
S'11/29'
p88
sg24
S'2.0'
p89
sg26
S'--'
p90
sg28
S'--'
p91
sg30
S'W24-21'
p92
sg32
S'2'
p93
sg34
g48
sg36
S'@TEN'
p94
sg38
g93
sg40
g10
sg42
S'--'
p95
ssS'15'
p96
(dp97
g5
S'--'
p98
sg7
S'--'
p99
sg9
g48
sg11
S'--'
p100
sg13
g48
sg14
S'Lee Smith'
p101
sg16
S'2015'
p102
sg18
S'15'
p103
sg20
S'--'
p104
sg22
S'12/20'
p105
sg24
S'--'
p106
sg26
S'--'
p107
sg28
S'--'
p108
sg30
S'L20-30'
p109
sg32
S'--'
p110
sg34
S'--'
p111
sg36
S'GB'
p112
sg38
S'--'
p113
sg40
S'--'
p114
sg42
S'--'
p115
ssS'14'
p116
(dp117
g5
S'--'
p118
sg7
S'--'
p119
sg9
g48
sg11
S'--'
p120
sg13
g48
sg14
S'Lee Smith'
p121
sg16
S'2015'
p122
sg18
S'14'
p123
sg20
S'--'
p124
sg22
S'12/13'
p125
sg24
S'--'
p126
sg26
S'--'
p127
sg28
S'--'
p128
sg30
S'W15-12'
p129
sg32
S'--'
p130
sg34
S'--'
p131
sg36
S'@DEN'
p132
sg38
S'--'
p133
sg40
S'--'
p134
sg42
S'--'
p135
ssS'17'
p136
(dp137
g5
S'--'
p138
sg7
S'--'
p139
sg9
g48
sg11
S'--'
p140
sg13
g48
sg14
S'Lee Smith'
p141
sg16
S'2015'
p142
sg18
S'17'
p143
sg20
S'--'
p144
sg22
S'01/03'
p145
sg24
S'--'
p146
sg26
S'--'
p147
sg28
S'--'
p148
sg30
S'L17-23'
p149
sg32
S'--'
p150
sg34
S'--'
p151
sg36
S'@KC'
p152
sg38
S'--'
p153
sg40
S'--'
p154
sg42
S'--'
p155
ssS'16'
p156
(dp157
g5
S'--'
p158
sg7
S'--'
p159
sg9
g48
sg11
S'--'
p160
sg13
g48
sg14
S'Lee Smith'
p161
sg16
S'2015'
p162
sg18
S'16'
p163
sg20
S'--'
p164
sg22
S'12/24'
p165
sg24
S'17.0'
p166
sg26
S'--'
p167
sg28
S'--'
p168
sg30
S'W23-20'
p169
sg32
S'17'
p170
sg34
g48
sg36
S'SD'
p171
sg38
S'17'
p172
sg40
g10
sg42
S'--'
p173
ssg48
(dp174
g5
S'--'
p175
sg7
S'--'
p176
sg9
g48
sg11
S'--'
p177
sg13
g48
sg14
S'Lee Smith'
p178
sg16
S'2015'
p179
sg18
g48
sg20
S'--'
p180
sg22
S'09/13'
p181
sg24
S'--'
p182
sg26
S'--'
p183
sg28
S'--'
p184
sg30
S'L13-33'
p185
sg32
S'--'
p186
sg34
S'--'
p187
sg36
S'CIN'
p188
sg38
S'--'
p189
sg40
S'--'
p190
sg42
S'--'
p191
ssS'3'
p192
(dp193
g5
S'--'
p194
sg7
S'--'
p195
sg9
g48
sg11
S'--'
p196
sg13
g48
sg14
S'Lee Smith'
p197
sg16
S'2015'
p198
sg18
g192
sg20
S'--'
p199
sg22
S'09/27'
p200
sg24
S'8.0'
p201
sg26
S'--'
p202
sg28
S'--'
p203
sg30
S'W27-20'
p204
sg32
S'8'
p205
sg34
g48
sg36
S'@CLE'
p206
sg38
g205
sg40
g10
sg42
S'--'
p207
ssg93
(dp208
g5
S'--'
p209
sg7
S'--'
p210
sg9
g48
sg11
S'--'
p211
sg13
g48
sg14
S'Lee Smith'
p212
sg16
S'2015'
p213
sg18
g93
sg20
S'--'
p214
sg22
S'09/20'
p215
sg24
S'6.0'
p216
sg26
S'--'
p217
sg28
S'--'
p218
sg30
S'W37-33'
p219
sg32
S'6'
p220
sg34
g48
sg36
S'BAL'
p221
sg38
g220
sg40
g10
sg42
S'--'
p222
ssg75
(dp223
g5
S'--'
p224
sg7
S'--'
p225
sg9
g48
sg11
S'--'
p226
sg13
g48
sg14
S'Lee Smith'
p227
sg16
S'2015'
p228
sg18
g75
sg20
S'--'
p229
sg22
S'10/11'
p230
sg24
S'--'
p231
sg26
S'--'
p232
sg28
S'--'
p233
sg30
S'L10-16'
p234
sg32
S'--'
p235
sg34
S'--'
p236
sg36
S'DEN'
p237
sg38
S'--'
p238
sg40
S'--'
p239
sg42
S'--'
p240
ssS'4'
p241
(dp242
g5
S'--'
p243
sg7
S'--'
p244
sg9
g48
sg11
S'--'
p245
sg13
g48
sg14
S'Lee Smith'
p246
sg16
S'2015'
p247
sg18
g241
sg20
S'--'
p248
sg22
S'10/04'
p249
sg24
S'7.0'
p250
sg26
S'--'
p251
sg28
S'--'
p252
sg30
S'L20-22'
p253
sg32
S'14'
p254
sg34
g93
sg36
S'@CHI'
p255
sg38
S'9'
p256
sg40
g10
sg42
S'--'
p257
ssS'7'
p258
(dp259
g5
S'--'
p260
sg7
S'--'
p261
sg9
g48
sg11
S'--'
p262
sg13
g48
sg14
S'Lee Smith'
p263
sg16
S'2015'
p264
sg18
g258
sg20
S'--'
p265
sg22
S'10/25'
p266
sg24
S'0.5'
p267
sg26
S'--'
p268
sg28
S'--'
p269
sg30
S'W37-29'
p270
sg32
g48
sg34
g93
sg36
S'@SD'
p271
sg38
g205
sg40
g10
sg42
S'--'
p272
ssg220
(dp273
g5
S''
p274
sg7
g274
sg9
g274
sg11
g274
sg13
g274
sg14
S'Lee Smith'
p275
sg16
S'2015'
p276
sg18
g220
sg20
g274
sg22
S'Bye'
p277
sg24
g274
sg26
g274
sg28
g274
sg30
g274
sg32
g274
sg34
g274
sg36
g274
sg38
g274
sg40
g274
sg42
g274
ssg256
(dp278
g5
S'--'
p279
sg7
S'--'
p280
sg9
g48
sg11
S'--'
p281
sg13
g48
sg14
S'Lee Smith'
p282
sg16
S'2015'
p283
sg18
g256
sg20
S'--'
p284
sg22
S'11/08'
p285
sg24
S'10.0'
p286
sg26
S'--'
p287
sg28
S'--'
p288
sg30
S'L35-38'
p289
sg32
S'10'
p290
sg34
g48
sg36
S'@PIT'
p291
sg38
S'10'
p292
sg40
g10
sg42
S'--'
p293
ssg205
(dp294
g5
S'--'
p295
sg7
S'--'
p296
sg9
g48
sg11
S'--'
p297
sg13
g48
sg14
S'Lee Smith'
p298
sg16
S'2015'
p299
sg18
g205
sg20
S'--'
p300
sg22
S'11/01'
p301
sg24
S'6.0'
p302
sg26
S'--'
p303
sg28
S'--'
p304
sg30
S'W34-20'
p305
sg32
g220
sg34
g48
sg36
S'NYJ'
p306
sg38
g220
sg40
g10
sg42
S'--'
p307
sssS'2014'
p308
(dp309
g3
(dp310
g5
S'--'
p311
sg7
S'--'
p312
sg9
g10
sg11
S'--'
p313
sg13
g48
sg14
S'Lee Smith'
p314
sg16
S'2014'
p315
sg18
S'11'
p316
sg20
S'--'
p317
sg22
S'11/13'
p318
sg24
S'--'
p319
sg26
S'--'
p320
sg28
S'--'
p321
sg30
S'L9-22'
p322
sg32
S'--'
p323
sg34
S'--'
p324
sg36
S'@MIA'
p325
sg38
S'--'
p326
sg40
S'--'
p327
sg42
S'--'
p328
ssg44
(dp329
g5
S'--'
p330
sg7
S'--'
p331
sg9
g10
sg11
S'--'
p332
sg13
g48
sg14
S'Lee Smith'
p333
sg16
S'2014'
p334
sg18
S'10'
p335
sg20
S'--'
p336
sg22
S'11/09'
p337
sg24
S'--'
p338
sg26
S'--'
p339
sg28
S'--'
p340
sg30
S'L13-17'
p341
sg32
g10
sg34
g10
sg36
S'KC'
p342
sg38
S'--'
p343
sg40
g10
sg42
S'--'
p344
ssg61
(dp345
g5
S'--'
p346
sg7
S'--'
p347
sg9
g48
sg11
S'--'
p348
sg13
g48
sg14
S'Lee Smith'
p349
sg16
S'2014'
p350
sg18
S'13'
p351
sg20
S'--'
p352
sg22
S'11/30'
p353
sg24
S'--'
p354
sg26
S'--'
p355
sg28
S'--'
p356
sg30
S'W26-10'
p357
sg32
S'--'
p358
sg34
S'--'
p359
sg36
S'CLE'
p360
sg38
S'--'
p361
sg40
S'--'
p362
sg42
S'--'
p363
ssg79
(dp364
g5
S'--'
p365
sg7
S'--'
p366
sg9
g48
sg11
S'--'
p367
sg13
g48
sg14
S'Lee Smith'
p368
sg16
S'2014'
p369
sg18
S'12'
p370
sg20
S'--'
p371
sg22
S'11/24'
p372
sg24
S'12.0'
p373
sg26
S'--'
p374
sg28
S'--'
p375
sg30
S'W38-3'
p376
sg32
S'12'
p377
sg34
g48
sg36
S'NYJ'
p378
sg38
S'12'
p379
sg40
g10
sg42
S'--'
p380
ssg96
(dp381
g5
S'--'
p382
sg7
S'--'
p383
sg9
g48
sg11
S'--'
p384
sg13
g48
sg14
S'Lee Smith'
p385
sg16
S'2014'
p386
sg18
S'15'
p387
sg20
S'--'
p388
sg22
S'12/14'
p389
sg24
S'0.5'
p390
sg26
S'--'
p391
sg28
S'--'
p392
sg30
S'W21-13'
p393
sg32
g48
sg34
g93
sg36
S'GB'
p394
sg38
g48
sg40
g10
sg42
S'--'
p395
ssg116
(dp396
g5
S'--'
p397
sg7
S'--'
p398
sg9
g48
sg11
S'--'
p399
sg13
g48
sg14
S'Lee Smith'
p400
sg16
S'2014'
p401
sg18
S'14'
p402
sg20
S'--'
p403
sg22
S'12/07'
p404
sg24
S'6.0'
p405
sg26
S'--'
p406
sg28
S'--'
p407
sg30
S'L17-24'
p408
sg32
g220
sg34
g48
sg36
S'@DEN'
p409
sg38
g220
sg40
g10
sg42
S'--'
p410
ssg136
(dp411
g5
S'--'
p412
sg7
S'--'
p413
sg9
g48
sg11
S'--'
p414
sg13
g48
sg14
S'Lee Smith'
p415
sg16
S'2014'
p416
sg18
S'17'
p417
sg20
S'--'
p418
sg22
S'12/28'
p419
sg24
S'18.0'
p420
sg26
S'--'
p421
sg28
S'--'
p422
sg30
S'W17-9'
p423
sg32
S'18'
p424
sg34
g48
sg36
S'@NE'
p425
sg38
S'18'
p426
sg40
g10
sg42
S'--'
p427
ssg156
(dp428
g5
S'--'
p429
sg7
S'--'
p430
sg9
g48
sg11
S'--'
p431
sg13
g48
sg14
S'Lee Smith'
p432
sg16
S'2014'
p433
sg18
S'16'
p434
sg20
S'--'
p435
sg22
S'12/21'
p436
sg24
S'--'
p437
sg26
S'--'
p438
sg28
S'--'
p439
sg30
S'L24-26'
p440
sg32
S'--'
p441
sg34
S'--'
p442
sg36
S'@OAK'
p443
sg38
S'--'
p444
sg40
S'--'
p445
sg42
S'--'
p446
ssg48
(dp447
g5
S'--'
p448
sg7
S'--'
p449
sg9
g10
sg11
S'--'
p450
sg13
g10
sg14
S'Lee Smith'
p451
sg16
S'2014'
p452
sg18
g48
sg20
S'--'
p453
sg22
S'09/07'
p454
sg24
S'--'
p455
sg26
S'--'
p456
sg28
S'--'
p457
sg30
S'W23-20'
p458
sg32
S'--'
p459
sg34
S'--'
p460
sg36
S'@CHI'
p461
sg38
S'--'
p462
sg40
S'--'
p463
sg42
S'--'
p464
ssg192
(dp465
g5
S'--'
p466
sg7
S'--'
p467
sg9
g10
sg11
S'--'
p468
sg13
g48
sg14
S'Lee Smith'
p469
sg16
S'2014'
p470
sg18
g192
sg20
S'--'
p471
sg22
S'09/21'
p472
sg24
S'--'
p473
sg26
S'--'
p474
sg28
S'--'
p475
sg30
S'L10-22'
p476
sg32
S'--'
p477
sg34
S'--'
p478
sg36
S'SD'
p479
sg38
S'--'
p480
sg40
S'--'
p481
sg42
S'--'
p482
ssg93
(dp483
g5
S'--'
p484
sg7
S'--'
p485
sg9
g10
sg11
S'--'
p486
sg13
g10
sg14
S'Lee Smith'
p487
sg16
S'2014'
p488
sg18
g93
sg20
S'--'
p489
sg22
S'09/14'
p490
sg24
S'--'
p491
sg26
S'--'
p492
sg28
S'--'
p493
sg30
S'W29-10'
p494
sg32
S'--'
p495
sg34
S'--'
p496
sg36
S'MIA'
p497
sg38
S'--'
p498
sg40
S'--'
p499
sg42
S'--'
p500
ssg75
(dp501
g5
S'--'
p502
sg7
S'--'
p503
sg9
g48
sg11
S'--'
p504
sg13
g48
sg14
S'Lee Smith'
p505
sg16
S'2014'
p506
sg18
g75
sg20
S'--'
p507
sg22
S'10/05'
p508
sg24
S'--'
p509
sg26
S'--'
p510
sg28
S'--'
p511
sg30
S'W17-14'
p512
sg32
S'--'
p513
sg34
S'--'
p514
sg36
S'@DET'
p515
sg38
S'--'
p516
sg40
S'--'
p517
sg42
S'--'
p518
ssg241
(dp519
g5
S'--'
p520
sg7
S'--'
p521
sg9
g48
sg11
S'--'
p522
sg13
g48
sg14
S'Lee Smith'
p523
sg16
S'2014'
p524
sg18
g241
sg20
S'--'
p525
sg22
S'09/28'
p526
sg24
S'--'
p527
sg26
S'--'
p528
sg28
S'--'
p529
sg30
S'L17-23'
p530
sg32
S'--'
p531
sg34
S'--'
p532
sg36
S'@HOU'
p533
sg38
S'--'
p534
sg40
S'--'
p535
sg42
S'--'
p536
ssg258
(dp537
g5
S'--'
p538
sg7
S'--'
p539
sg9
g48
sg11
S'--'
p540
sg13
g48
sg14
S'Lee Smith'
p541
sg16
S'2014'
p542
sg18
g258
sg20
S'--'
p543
sg22
S'10/19'
p544
sg24
S'--'
p545
sg26
S'--'
p546
sg28
S'--'
p547
sg30
S'W17-16'
p548
sg32
S'--'
p549
sg34
S'--'
p550
sg36
S'MIN'
p551
sg38
S'--'
p552
sg40
S'--'
p553
sg42
S'--'
p554
ssg220
(dp555
g5
S'--'
p556
sg7
S'--'
p557
sg9
g10
sg11
S'--'
p558
sg13
g48
sg14
S'Lee Smith'
p559
sg16
S'2014'
p560
sg18
g220
sg20
S'--'
p561
sg22
S'10/12'
p562
sg24
S'--'
p563
sg26
S'--'
p564
sg28
S'--'
p565
sg30
S'L22-37'
p566
sg32
S'--'
p567
sg34
S'--'
p568
sg36
S'NE'
p569
sg38
S'--'
p570
sg40
S'--'
p571
sg42
S'--'
p572
ssg256
(dp573
g5
g274
sg7
g274
sg9
g274
sg11
g274
sg13
g274
sg14
S'Lee Smith'
p574
sg16
S'2014'
p575
sg18
g256
sg20
g274
sg22
S'Bye'
p576
sg24
g274
sg26
g274
sg28
g274
sg30
g274
sg32
g274
sg34
g274
sg36
g274
sg38
g274
sg40
g274
sg42
g274
ssg205
(dp577
g5
S'--'
p578
sg7
S'--'
p579
sg9
g48
sg11
S'--'
p580
sg13
g48
sg14
S'Lee Smith'
p581
sg16
S'2014'
p582
sg18
g205
sg20
S'--'
p583
sg22
S'10/26'
p584
sg24
S'2.5'
p585
sg26
S'--'
p586
sg28
S'--'
p587
sg30
S'W43-23'
p588
sg32
g75
sg34
g93
sg36
S'@NYJ'
p589
sg38
g241
sg40
g48
sg42
S'--'
p590
sssS'2011'
p591
(dp592
g3
(dp593
g5
S'--'
p594
sg7
S'--'
p595
sg9
g10
sg11
S'--'
p596
sg13
g10
sg14
S'Lee Smith'
p597
sg16
S'2011'
p598
sg18
S'11'
p599
sg20
S'--'
p600
sg22
S'11/20'
p601
sg24
S'--'
p602
sg26
S'--'
p603
sg28
S'--'
p604
sg30
S'L8-35'
p605
sg32
S'--'
p606
sg34
S'--'
p607
sg36
S'@MIA'
p608
sg38
S'--'
p609
sg40
S'--'
p610
sg42
S'--'
p611
ssg44
(dp612
g5
S'--'
p613
sg7
S'--'
p614
sg9
g10
sg11
S'--'
p615
sg13
g48
sg14
S'Lee Smith'
p616
sg16
S'2011'
p617
sg18
S'10'
p618
sg20
S'--'
p619
sg22
S'11/13'
p620
sg24
S'--'
p621
sg26
S'--'
p622
sg28
S'--'
p623
sg30
S'L7-44'
p624
sg32
S'--'
p625
sg34
S'--'
p626
sg36
S'@DAL'
p627
sg38
S'--'
p628
sg40
S'--'
p629
sg42
S'--'
p630
ssg61
(dp631
g5
S'--'
p632
sg7
S'--'
p633
sg9
g10
sg11
S'--'
p634
sg13
g48
sg14
S'Lee Smith'
p635
sg16
S'2011'
p636
sg18
S'13'
p637
sg20
S'--'
p638
sg22
S'12/04'
p639
sg24
S'3.7'
p640
sg26
S'--'
p641
sg28
S'--'
p642
sg30
S'L17-23'
p643
sg32
S'11'
p644
sg34
g192
sg36
S'TEN'
p645
sg38
g220
sg40
g10
sg42
S'--'
p646
ssg79
(dp647
g5
S'--'
p648
sg7
S'--'
p649
sg9
g48
sg11
S'--'
p650
sg13
g48
sg14
S'Lee Smith'
p651
sg16
S'2011'
p652
sg18
S'12'
p653
sg20
S'--'
p654
sg22
S'11/27'
p655
sg24
S'--'
p656
sg26
S'--'
p657
sg28
S'--'
p658
sg30
S'L24-28'
p659
sg32
S'--'
p660
sg34
S'--'
p661
sg36
S'@NYJ'
p662
sg38
S'--'
p663
sg40
S'--'
p664
sg42
S'--'
p665
ssg96
(dp666
g5
S'--'
p667
sg7
S'--'
p668
sg9
g48
sg11
S'--'
p669
sg13
g48
sg14
S'Lee Smith'
p670
sg16
S'2011'
p671
sg18
S'15'
p672
sg20
S'--'
p673
sg22
S'12/18'
p674
sg24
S'--'
p675
sg26
S'--'
p676
sg28
S'--'
p677
sg30
S'L23-30'
p678
sg32
S'--'
p679
sg34
S'--'
p680
sg36
S'MIA'
p681
sg38
S'--'
p682
sg40
S'--'
p683
sg42
S'--'
p684
ssg116
(dp685
g5
S'--'
p686
sg7
S'--'
p687
sg9
g48
sg11
S'--'
p688
sg13
g48
sg14
S'Lee Smith'
p689
sg16
S'2011'
p690
sg18
S'14'
p691
sg20
S'--'
p692
sg22
S'12/11'
p693
sg24
S'0.0'
p694
sg26
S'--'
p695
sg28
S'--'
p696
sg30
S'L10-37'
p697
sg32
g10
sg34
g48
sg36
S'@SD'
p698
sg38
g10
sg40
g10
sg42
S'--'
p699
ssg48
(dp700
g5
S'--'
p701
sg7
S'--'
p702
sg9
g10
sg11
S'--'
p703
sg13
g10
sg14
S'Lee Smith'
p704
sg16
S'2011'
p705
sg18
g48
sg20
S'--'
p706
sg22
S'09/11'
p707
sg24
S'--'
p708
sg26
S'--'
p709
sg28
S'--'
p710
sg30
S'W41-7'
p711
sg32
S'--'
p712
sg34
S'--'
p713
sg36
S'@KC'
p714
sg38
S'--'
p715
sg40
S'--'
p716
sg42
S'--'
p717
ssg192
(dp718
g5
S'--'
p719
sg7
S'--'
p720
sg9
g10
sg11
S'--'
p721
sg13
g10
sg14
S'Lee Smith'
p722
sg16
S'2011'
p723
sg18
g192
sg20
S'--'
p724
sg22
S'09/25'
p725
sg24
S'--'
p726
sg26
S'--'
p727
sg28
S'--'
p728
sg30
S'W34-31'
p729
sg32
S'--'
p730
sg34
S'--'
p731
sg36
S'NE'
p732
sg38
S'--'
p733
sg40
S'--'
p734
sg42
S'--'
p735
ssg93
(dp736
g5
S'--'
p737
sg7
S'--'
p738
sg9
g10
sg11
S'--'
p739
sg13
g10
sg14
S'Lee Smith'
p740
sg16
S'2011'
p741
sg18
g93
sg20
S'--'
p742
sg22
S'09/18'
p743
sg24
S'--'
p744
sg26
S'--'
p745
sg28
S'--'
p746
sg30
S'W38-35'
p747
sg32
S'--'
p748
sg34
S'--'
p749
sg36
S'OAK'
p750
sg38
S'--'
p751
sg40
S'--'
p752
sg42
S'--'
p753
ssg75
(dp754
g5
S'--'
p755
sg7
S'--'
p756
sg9
g10
sg11
S'--'
p757
sg13
g48
sg14
S'Lee Smith'
p758
sg16
S'2011'
p759
sg18
g75
sg20
S'--'
p760
sg22
S'10/09'
p761
sg24
S'--'
p762
sg26
S'--'
p763
sg28
S'--'
p764
sg30
S'W31-24'
p765
sg32
S'--'
p766
sg34
S'--'
p767
sg36
S'PHI'
p768
sg38
S'--'
p769
sg40
S'--'
p770
sg42
S'--'
p771
ssg241
(dp772
g5
S'--'
p773
sg7
S'--'
p774
sg9
g10
sg11
S'--'
p775
sg13
g48
sg14
S'Lee Smith'
p776
sg16
S'2011'
p777
sg18
g241
sg20
S'--'
p778
sg22
S'10/02'
p779
sg24
S'--'
p780
sg26
S'--'
p781
sg28
S'--'
p782
sg30
S'L20-23'
p783
sg32
S'--'
p784
sg34
S'--'
p785
sg36
S'@CIN'
p786
sg38
S'--'
p787
sg40
S'--'
p788
sg42
S'--'
p789
ssg258
(dp790
g5
g274
sg7
g274
sg9
g274
sg11
g274
sg13
g274
sg14
S'Lee Smith'
p791
sg16
S'2011'
p792
sg18
g258
sg20
g274
sg22
S'Bye'
p793
sg24
g274
sg26
g274
sg28
g274
sg30
g274
sg32
g274
sg34
g274
sg36
g274
sg38
g274
sg40
g274
sg42
g274
ssg220
(dp794
g5
S'--'
p795
sg7
S'--'
p796
sg9
g10
sg11
S'--'
p797
sg13
g48
sg14
S'Lee Smith'
p798
sg16
S'2011'
p799
sg18
g220
sg20
S'--'
p800
sg22
S'10/16'
p801
sg24
S'--'
p802
sg26
S'--'
p803
sg28
S'--'
p804
sg30
S'L24-27'
p805
sg32
S'--'
p806
sg34
S'--'
p807
sg36
S'@NYG'
p808
sg38
S'--'
p809
sg40
S'--'
p810
sg42
S'--'
p811
ssg256
(dp812
g5
S'--'
p813
sg7
S'--'
p814
sg9
g10
sg11
S'--'
p815
sg13
g48
sg14
S'Lee Smith'
p816
sg16
S'2011'
p817
sg18
g256
sg20
S'--'
p818
sg22
S'11/06'
p819
sg24
S'--'
p820
sg26
S'--'
p821
sg28
S'--'
p822
sg30
S'L11-27'
p823
sg32
S'--'
p824
sg34
S'--'
p825
sg36
S'NYJ'
p826
sg38
S'--'
p827
sg40
S'--'
p828
sg42
S'--'
p829
ssg205
(dp830
g5
S'--'
p831
sg7
S'--'
p832
sg9
g10
sg11
S'--'
p833
sg13
g48
sg14
S'Lee Smith'
p834
sg16
S'2011'
p835
sg18
g205
sg20
S'--'
p836
sg22
S'10/30'
p837
sg24
S'--'
p838
sg26
S'--'
p839
sg28
S'--'
p840
sg30
S'W23-0'
p841
sg32
S'--'
p842
sg34
S'--'
p843
sg36
S'WAS'
p844
sg38
S'--'
p845
sg40
S'--'
p846
sg42
S'--'
p847
sssS'2013'
p848
(dp849
g3
(dp850
g5
S'--'
p851
sg7
S'--'
p852
sg9
g48
sg11
S'--'
p853
sg13
g48
sg14
S'Lee Smith'
p854
sg16
S'2013'
p855
sg18
S'11'
p856
sg20
S'--'
p857
sg22
S'11/17'
p858
sg24
S'1.0'
p859
sg26
S'--'
p860
sg28
S'--'
p861
sg30
S'W37-14'
p862
sg32
g48
sg34
g48
sg36
S'NYJ'
p863
sg38
g48
sg40
g10
sg42
S'--'
p864
ssg44
(dp865
g5
S'--'
p866
sg7
S'--'
p867
sg9
g48
sg11
S'--'
p868
sg13
g48
sg14
S'Lee Smith'
p869
sg16
S'2013'
p870
sg18
S'10'
p871
sg20
S'--'
p872
sg22
S'11/10'
p873
sg24
S'--'
p874
sg26
S'--'
p875
sg28
S'--'
p876
sg30
S'L10-23'
p877
sg32
g10
sg34
g10
sg36
S'@PIT'
p878
sg38
S'--'
p879
sg40
g10
sg42
S'--'
p880
ssg61
(dp881
g5
S'--'
p882
sg7
S'--'
p883
sg9
g48
sg11
S'--'
p884
sg13
g48
sg14
S'Lee Smith'
p885
sg16
S'2013'
p886
sg18
S'13'
p887
sg20
S'--'
p888
sg22
S'12/01'
p889
sg24
S'--'
p890
sg26
S'--'
p891
sg28
S'--'
p892
sg30
S'L31-34'
p893
sg32
S'--'
p894
sg34
S'--'
p895
sg36
S'ATL'
p896
sg38
S'--'
p897
sg40
S'--'
p898
sg42
S'--'
p899
ssg79
(dp900
g5
g274
sg7
g274
sg9
g274
sg11
g274
sg13
g274
sg14
S'Lee Smith'
p901
sg16
S'2013'
p902
sg18
S'12'
p903
sg20
g274
sg22
S'Bye'
p904
sg24
g274
sg26
g274
sg28
g274
sg30
g274
sg32
g274
sg34
g274
sg36
g274
sg38
g274
sg40
g274
sg42
g274
ssg96
(dp905
g5
S'--'
p906
sg7
S'--'
p907
sg9
g48
sg11
S'--'
p908
sg13
g48
sg14
S'Lee Smith'
p909
sg16
S'2013'
p910
sg18
S'15'
p911
sg20
S'--'
p912
sg22
S'12/15'
p913
sg24
S'--'
p914
sg26
S'--'
p915
sg28
S'--'
p916
sg30
S'W27-20'
p917
sg32
S'--'
p918
sg34
S'--'
p919
sg36
S'@JAC'
p920
sg38
S'--'
p921
sg40
S'--'
p922
sg42
S'--'
p923
ssg116
(dp924
g5
S'--'
p925
sg7
S'--'
p926
sg9
g48
sg11
S'--'
p927
sg13
g48
sg14
S'Lee Smith'
p928
sg16
S'2013'
p929
sg18
S'14'
p930
sg20
S'--'
p931
sg22
S'12/08'
p932
sg24
S'7.0'
p933
sg26
S'--'
p934
sg28
S'--'
p935
sg30
S'L6-27'
p936
sg32
g258
sg34
g48
sg36
S'@TB'
p937
sg38
g258
sg40
g10
sg42
S'--'
p938
ssg136
(dp939
g5
S'--'
p940
sg7
S'--'
p941
sg9
g48
sg11
S'--'
p942
sg13
g48
sg14
S'Lee Smith'
p943
sg16
S'2013'
p944
sg18
S'17'
p945
sg20
S'--'
p946
sg22
S'12/29'
p947
sg24
S'--'
p948
sg26
S'--'
p949
sg28
S'--'
p950
sg30
S'L20-34'
p951
sg32
S'--'
p952
sg34
S'--'
p953
sg36
S'@NE'
p954
sg38
S'--'
p955
sg40
S'--'
p956
sg42
S'--'
p957
ssg156
(dp958
g5
S'--'
p959
sg7
S'--'
p960
sg9
g48
sg11
S'--'
p961
sg13
g48
sg14
S'Lee Smith'
p962
sg16
S'2013'
p963
sg18
S'16'
p964
sg20
S'--'
p965
sg22
S'12/22'
p966
sg24
S'24.0'
p967
sg26
S'--'
p968
sg28
S'--'
p969
sg30
S'W19-0'
p970
sg32
S'24'
p971
sg34
g48
sg36
S'MIA'
p972
sg38
S'24'
p973
sg40
g10
sg42
S'--'
p974
ssg48
(dp975
g5
S'--'
p976
sg7
S'--'
p977
sg9
g10
sg11
S'--'
p978
sg13
g48
sg14
S'Lee Smith'
p979
sg16
S'2013'
p980
sg18
g48
sg20
S'--'
p981
sg22
S'09/08'
p982
sg24
S'--'
p983
sg26
S'--'
p984
sg28
S'--'
p985
sg30
S'L21-23'
p986
sg32
S'--'
p987
sg34
S'--'
p988
sg36
S'NE'
p989
sg38
S'--'
p990
sg40
S'--'
p991
sg42
S'--'
p992
ssg192
(dp993
g5
S'--'
p994
sg7
S'--'
p995
sg9
g48
sg11
S'--'
p996
sg13
g48
sg14
S'Lee Smith'
p997
sg16
S'2013'
p998
sg18
g192
sg20
S'--'
p999
sg22
S'09/22'
p1000
sg24
S'--'
p1001
sg26
S'--'
p1002
sg28
S'--'
p1003
sg30
S'L20-27'
p1004
sg32
S'--'
p1005
sg34
S'--'
p1006
sg36
S'@NYJ'
p1007
sg38
S'--'
p1008
sg40
S'--'
p1009
sg42
S'--'
p1010
ssg93
(dp1011
g5
S'--'
p1012
sg7
S'--'
p1013
sg9
g10
sg11
S'--'
p1014
sg13
g48
sg14
S'Lee Smith'
p1015
sg16
S'2013'
p1016
sg18
g93
sg20
S'--'
p1017
sg22
S'09/15'
p1018
sg24
S'--'
p1019
sg26
S'--'
p1020
sg28
S'--'
p1021
sg30
S'W24-23'
p1022
sg32
S'--'
p1023
sg34
S'--'
p1024
sg36
S'CAR'
p1025
sg38
S'--'
p1026
sg40
S'--'
p1027
sg42
S'--'
p1028
ssg75
(dp1029
g5
S'--'
p1030
sg7
S'--'
p1031
sg9
g48
sg11
S'--'
p1032
sg13
g48
sg14
S'Lee Smith'
p1033
sg16
S'2013'
p1034
sg18
g75
sg20
S'--'
p1035
sg22
S'10/03'
p1036
sg24
S'--'
p1037
sg26
S'--'
p1038
sg28
S'--'
p1039
sg30
S'L24-37'
p1040
sg32
g10
sg34
g10
sg36
S'@CLE'
p1041
sg38
S'--'
p1042
sg40
g10
sg42
S'--'
p1043
ssg241
(dp1044
g5
S'--'
p1045
sg7
S'--'
p1046
sg9
g48
sg11
S'--'
p1047
sg13
g48
sg14
S'Lee Smith'
p1048
sg16
S'2013'
p1049
sg18
g241
sg20
S'--'
p1050
sg22
S'09/29'
p1051
sg24
S'28.0'
p1052
sg26
S'--'
p1053
sg28
S'--'
p1054
sg30
S'W23-20'
p1055
sg32
S'28'
p1056
sg34
g48
sg36
S'BAL'
p1057
sg38
S'28'
p1058
sg40
g10
sg42
S'--'
p1059
ssg258
(dp1060
g5
S'--'
p1061
sg7
S'--'
p1062
sg9
g48
sg11
S'--'
p1063
sg13
g48
sg14
S'Lee Smith'
p1064
sg16
S'2013'
p1065
sg18
g258
sg20
S'--'
p1066
sg22
S'10/20'
p1067
sg24
S'18.0'
p1068
sg26
S'--'
p1069
sg28
S'--'
p1070
sg30
S'W23-21'
p1071
sg32
S'18'
p1072
sg34
g48
sg36
S'@MIA'
p1073
sg38
S'18'
p1074
sg40
g10
sg42
S'--'
p1075
ssg220
(dp1076
g5
S'--'
p1077
sg7
S'--'
p1078
sg9
g48
sg11
S'--'
p1079
sg13
g48
sg14
S'Lee Smith'
p1080
sg16
S'2013'
p1081
sg18
g220
sg20
S'--'
p1082
sg22
S'10/13'
p1083
sg24
S'--'
p1084
sg26
S'--'
p1085
sg28
S'--'
p1086
sg30
S'L24-27'
p1087
sg32
S'--'
p1088
sg34
S'--'
p1089
sg36
S'CIN'
p1090
sg38
S'--'
p1091
sg40
S'--'
p1092
sg42
S'--'
p1093
ssg256
(dp1094
g5
S'--'
p1095
sg7
S'--'
p1096
sg9
g48
sg11
S'--'
p1097
sg13
g48
sg14
S'Lee Smith'
p1098
sg16
S'2013'
p1099
sg18
g256
sg20
S'--'
p1100
sg22
S'11/03'
p1101
sg24
S'--'
p1102
sg26
S'--'
p1103
sg28
S'--'
p1104
sg30
S'L13-23'
p1105
sg32
S'--'
p1106
sg34
S'--'
p1107
sg36
S'KC'
p1108
sg38
S'--'
p1109
sg40
S'--'
p1110
sg42
S'--'
p1111
ssg205
(dp1112
g5
S'--'
p1113
sg7
S'--'
p1114
sg9
g48
sg11
S'--'
p1115
sg13
g48
sg14
S'Lee Smith'
p1116
sg16
S'2013'
p1117
sg18
g205
sg20
S'--'
p1118
sg22
S'10/27'
p1119
sg24
S'--'
p1120
sg26
S'--'
p1121
sg28
S'--'
p1122
sg30
S'L17-35'
p1123
sg32
S'--'
p1124
sg34
S'--'
p1125
sg36
S'@NO'
p1126
sg38
S'--'
p1127
sg40
S'--'
p1128
sg42
S'--'
p1129
sssS'2012'
p1130
(dp1131
g3
(dp1132
g5
S'--'
p1133
sg7
S'--'
p1134
sg9
g48
sg11
S'--'
p1135
sg13
g48
sg14
S'Lee Smith'
p1136
sg16
S'2012'
p1137
sg18
S'11'
p1138
sg20
S'--'
p1139
sg22
S'11/15'
p1140
sg24
S'--'
p1141
sg26
S'--'
p1142
sg28
S'--'
p1143
sg30
S'W19-14'
p1144
sg32
S'--'
p1145
sg34
S'--'
p1146
sg36
S'MIA'
p1147
sg38
S'--'
p1148
sg40
S'--'
p1149
sg42
S'--'
p1150
ssg44
(dp1151
g5
S'--'
p1152
sg7
S'--'
p1153
sg9
g10
sg11
S'--'
p1154
sg13
g48
sg14
S'Lee Smith'
p1155
sg16
S'2012'
p1156
sg18
S'10'
p1157
sg20
S'--'
p1158
sg22
S'11/11'
p1159
sg24
S'5.0'
p1160
sg26
S'--'
p1161
sg28
S'--'
p1162
sg30
S'L31-37'
p1163
sg32
g75
sg34
g48
sg36
S'@NE'
p1164
sg38
g75
sg40
g10
sg42
S'--'
p1165
ssg61
(dp1166
g5
S'--'
p1167
sg7
S'--'
p1168
sg9
g10
sg11
S'--'
p1169
sg13
g48
sg14
S'Lee Smith'
p1170
sg16
S'2012'
p1171
sg18
S'13'
p1172
sg20
S'--'
p1173
sg22
S'12/02'
p1174
sg24
S'--'
p1175
sg26
S'--'
p1176
sg28
S'--'
p1177
sg30
S'W34-18'
p1178
sg32
S'--'
p1179
sg34
S'--'
p1180
sg36
S'JAC'
p1181
sg38
S'--'
p1182
sg40
S'--'
p1183
sg42
S'--'
p1184
ssg79
(dp1185
g5
S'--'
p1186
sg7
S'--'
p1187
sg9
g48
sg11
S'--'
p1188
sg13
g48
sg14
S'Lee Smith'
p1189
sg16
S'2012'
p1190
sg18
S'12'
p1191
sg20
S'--'
p1192
sg22
S'11/25'
p1193
sg24
S'1.0'
p1194
sg26
S'--'
p1195
sg28
S'--'
p1196
sg30
S'L13-20'
p1197
sg32
g48
sg34
g48
sg36
S'@IND'
p1198
sg38
S'1T'
p1199
sg40
g48
sg42
S'--'
p1200
ssg96
(dp1201
g5
S'--'
p1202
sg7
S'--'
p1203
sg9
g48
sg11
S'--'
p1204
sg13
g48
sg14
S'Lee Smith'
p1205
sg16
S'2012'
p1206
sg18
S'15'
p1207
sg20
S'--'
p1208
sg22
S'12/16'
p1209
sg24
S'--'
p1210
sg26
S'--'
p1211
sg28
S'--'
p1212
sg30
S'L17-50'
p1213
sg32
S'--'
p1214
sg34
S'--'
p1215
sg36
S'SEA'
p1216
sg38
S'--'
p1217
sg40
S'--'
p1218
sg42
S'--'
p1219
ssg116
(dp1220
g5
S'--'
p1221
sg7
S'--'
p1222
sg9
g48
sg11
S'--'
p1223
sg13
g48
sg14
S'Lee Smith'
p1224
sg16
S'2012'
p1225
sg18
S'14'
p1226
sg20
S'--'
p1227
sg22
S'12/09'
p1228
sg24
S'2.0'
p1229
sg26
S'--'
p1230
sg28
S'--'
p1231
sg30
S'L12-15'
p1232
sg32
g93
sg34
g48
sg36
S'STL'
p1233
sg38
S'2T'
p1234
sg40
g48
sg42
S'--'
p1235
ssg136
(dp1236
g5
S'--'
p1237
sg7
S'--'
p1238
sg9
g48
sg11
S'--'
p1239
sg13
g48
sg14
S'Lee Smith'
p1240
sg16
S'2012'
p1241
sg18
S'17'
p1242
sg20
S'--'
p1243
sg22
S'12/30'
p1244
sg24
S'--'
p1245
sg26
S'--'
p1246
sg28
S'--'
p1247
sg30
S'W28-9'
p1248
sg32
S'--'
p1249
sg34
S'--'
p1250
sg36
S'NYJ'
p1251
sg38
S'--'
p1252
sg40
S'--'
p1253
sg42
S'--'
p1254
ssg156
(dp1255
g5
S'--'
p1256
sg7
S'--'
p1257
sg9
g48
sg11
S'--'
p1258
sg13
g48
sg14
S'Lee Smith'
p1259
sg16
S'2012'
p1260
sg18
S'16'
p1261
sg20
S'--'
p1262
sg22
S'12/23'
p1263
sg24
S'--'
p1264
sg26
S'--'
p1265
sg28
S'--'
p1266
sg30
S'L10-24'
p1267
sg32
S'--'
p1268
sg34
S'--'
p1269
sg36
S'@MIA'
p1270
sg38
S'--'
p1271
sg40
S'--'
p1272
sg42
S'--'
p1273
ssg48
(dp1274
g5
S'--'
p1275
sg7
S'--'
p1276
sg9
g10
sg11
S'--'
p1277
sg13
g48
sg14
S'Lee Smith'
p1278
sg16
S'2012'
p1279
sg18
g48
sg20
S'--'
p1280
sg22
S'09/09'
p1281
sg24
S'5.0'
p1282
sg26
S'--'
p1283
sg28
S'--'
p1284
sg30
S'L28-48'
p1285
sg32
g75
sg34
g48
sg36
S'@NYJ'
p1286
sg38
g75
sg40
g10
sg42
S'--'
p1287
ssg192
(dp1288
g5
S'--'
p1289
sg7
S'--'
p1290
sg9
g10
sg11
S'--'
p1291
sg13
g48
sg14
S'Lee Smith'
p1292
sg16
S'2012'
p1293
sg18
g192
sg20
S'--'
p1294
sg22
S'09/23'
p1295
sg24
S'--'
p1296
sg26
S'--'
p1297
sg28
S'--'
p1298
sg30
S'W24-14'
p1299
sg32
S'--'
p1300
sg34
S'--'
p1301
sg36
S'@CLE'
p1302
sg38
S'--'
p1303
sg40
S'--'
p1304
sg42
S'--'
p1305
ssg93
(dp1306
g5
S'--'
p1307
sg7
S'--'
p1308
sg9
g48
sg11
S'--'
p1309
sg13
g48
sg14
S'Lee Smith'
p1310
sg16
S'2012'
p1311
sg18
g93
sg20
S'--'
p1312
sg22
S'09/16'
p1313
sg24
S'--'
p1314
sg26
S'--'
p1315
sg28
S'--'
p1316
sg30
S'W35-17'
p1317
sg32
S'--'
p1318
sg34
S'--'
p1319
sg36
S'KC'
p1320
sg38
S'--'
p1321
sg40
S'--'
p1322
sg42
S'--'
p1323
ssg75
(dp1324
g5
S'--'
p1325
sg7
S'--'
p1326
sg9
g10
sg11
S'--'
p1327
sg13
g48
sg14
S'Lee Smith'
p1328
sg16
S'2012'
p1329
sg18
g75
sg20
S'--'
p1330
sg22
S'10/07'
p1331
sg24
S'--'
p1332
sg26
S'--'
p1333
sg28
S'--'
p1334
sg30
S'L3-45'
p1335
sg32
S'--'
p1336
sg34
S'--'
p1337
sg36
S'@SF'
p1338
sg38
S'--'
p1339
sg40
S'--'
p1340
sg42
S'--'
p1341
ssg241
(dp1342
g5
S'--'
p1343
sg7
S'--'
p1344
sg9
g10
sg11
S'--'
p1345
sg13
g48
sg14
S'Lee Smith'
p1346
sg16
S'2012'
p1347
sg18
g241
sg20
S'--'
p1348
sg22
S'09/30'
p1349
sg24
S'--'
p1350
sg26
S'--'
p1351
sg28
S'--'
p1352
sg30
S'L28-52'
p1353
sg32
S'--'
p1354
sg34
S'--'
p1355
sg36
S'NE'
p1356
sg38
S'--'
p1357
sg40
S'--'
p1358
sg42
S'--'
p1359
ssg258
(dp1360
g5
S'--'
p1361
sg7
S'--'
p1362
sg9
g10
sg11
S'--'
p1363
sg13
g48
sg14
S'Lee Smith'
p1364
sg16
S'2012'
p1365
sg18
g258
sg20
S'--'
p1366
sg22
S'10/21'
p1367
sg24
S'--'
p1368
sg26
S'--'
p1369
sg28
S'--'
p1370
sg30
S'L34-35'
p1371
sg32
S'--'
p1372
sg34
S'--'
p1373
sg36
S'TEN'
p1374
sg38
S'--'
p1375
sg40
S'--'
p1376
sg42
S'--'
p1377
ssg220
(dp1378
g5
S'--'
p1379
sg7
S'--'
p1380
sg9
g10
sg11
S'--'
p1381
sg13
g48
sg14
S'Lee Smith'
p1382
sg16
S'2012'
p1383
sg18
g220
sg20
S'--'
p1384
sg22
S'10/14'
p1385
sg24
S'--'
p1386
sg26
S'--'
p1387
sg28
S'--'
p1388
sg30
S'W19-16'
p1389
sg32
S'--'
p1390
sg34
S'--'
p1391
sg36
S'@ARI'
p1392
sg38
S'--'
p1393
sg40
S'--'
p1394
sg42
S'--'
p1395
ssg256
(dp1396
g5
S'--'
p1397
sg7
S'--'
p1398
sg9
g10
sg11
S'--'
p1399
sg13
g48
sg14
S'Lee Smith'
p1400
sg16
S'2012'
p1401
sg18
g256
sg20
S'--'
p1402
sg22
S'11/04'
p1403
sg24
S'--'
p1404
sg26
S'--'
p1405
sg28
S'--'
p1406
sg30
S'L9-21'
p1407
sg32
S'--'
p1408
sg34
S'--'
p1409
sg36
S'@HOU'
p1410
sg38
S'--'
p1411
sg40
S'--'
p1412
sg42
S'--'
p1413
ssg205
(dp1414
g5
g274
sg7
g274
sg9
g274
sg11
g274
sg13
g274
sg14
S'Lee Smith'
p1415
sg16
S'2012'
p1416
sg18
g205
sg20
g274
sg22
S'Bye'
p1417
sg24
g274
sg26
g274
sg28
g274
sg30
g274
sg32
g274
sg34
g274
sg36
g274
sg38
g274
sg40
g274
sg42
g274
sss.