(dp0
S'2015'
p1
(dp2
S'11'
p3
(dp4
S'RushTD'
p5
S'--'
p6
sS'RushYds'
p7
S'--'
p8
sS'GS'
p9
S'1'
p10
sS'Lost'
p11
S'--'
p12
sS'G'
p13
g10
sS'Player'
p14
S'Levine Toilolo'
p15
sS'Year'
p16
S'2015'
p17
sS'WK'
p18
S'11'
p19
sS'RushAvg'
p20
S'--'
p21
sS'Game Date'
p22
S'11/22'
p23
sS'RecAvg'
p24
S'--'
p25
sS'FUM'
p26
S'--'
p27
sS'RushAtt'
p28
S'--'
p29
sS'Result'
p30
S'L21-24'
p31
sS'RecYds'
p32
S'--'
p33
sS'Rec'
p34
S'--'
p35
sS'Opp'
p36
S'IND'
p37
sS'RecLng'
p38
S'--'
p39
sS'RecTD'
p40
S'--'
p41
sS'RushLng'
p42
S'--'
p43
ssS'10'
p44
(dp45
g5
S''
p46
sg7
g46
sg9
g46
sg11
g46
sg13
g46
sg14
S'Levine Toilolo'
p47
sg16
S'2015'
p48
sg18
S'10'
p49
sg20
g46
sg22
S'Bye'
p50
sg24
g46
sg26
g46
sg28
g46
sg30
g46
sg32
g46
sg34
g46
sg36
g46
sg38
g46
sg40
g46
sg42
g46
ssS'13'
p51
(dp52
g5
S'--'
p53
sg7
S'--'
p54
sg9
g10
sg11
S'--'
p55
sg13
g10
sg14
S'Levine Toilolo'
p56
sg16
S'2015'
p57
sg18
S'13'
p58
sg20
S'--'
p59
sg22
S'12/06'
p60
sg24
S'--'
p61
sg26
S'--'
p62
sg28
S'--'
p63
sg30
S'L19-23'
p64
sg32
S'--'
p65
sg34
S'--'
p66
sg36
S'@TB'
p67
sg38
S'--'
p68
sg40
S'--'
p69
sg42
S'--'
p70
ssS'12'
p71
(dp72
g5
S'--'
p73
sg7
S'--'
p74
sg9
g10
sg11
S'--'
p75
sg13
g10
sg14
S'Levine Toilolo'
p76
sg16
S'2015'
p77
sg18
S'12'
p78
sg20
S'--'
p79
sg22
S'11/29'
p80
sg24
S'--'
p81
sg26
S'--'
p82
sg28
S'--'
p83
sg30
S'L10-20'
p84
sg32
S'--'
p85
sg34
S'--'
p86
sg36
S'MIN'
p87
sg38
S'--'
p88
sg40
S'--'
p89
sg42
S'--'
p90
ssS'15'
p91
(dp92
g5
S'--'
p93
sg7
S'--'
p94
sg9
g10
sg11
S'--'
p95
sg13
g10
sg14
S'Levine Toilolo'
p96
sg16
S'2015'
p97
sg18
S'15'
p98
sg20
S'--'
p99
sg22
S'12/20'
p100
sg24
S'--'
p101
sg26
S'--'
p102
sg28
S'--'
p103
sg30
S'W23-17'
p104
sg32
S'0'
p105
sg34
g105
sg36
S'@JAC'
p106
sg38
S'--'
p107
sg40
g105
sg42
S'--'
p108
ssS'14'
p109
(dp110
g5
S'--'
p111
sg7
S'--'
p112
sg9
g10
sg11
S'--'
p113
sg13
g10
sg14
S'Levine Toilolo'
p114
sg16
S'2015'
p115
sg18
S'14'
p116
sg20
S'--'
p117
sg22
S'12/13'
p118
sg24
S'--'
p119
sg26
S'--'
p120
sg28
S'--'
p121
sg30
S'L0-38'
p122
sg32
g105
sg34
g105
sg36
S'@CAR'
p123
sg38
S'--'
p124
sg40
g105
sg42
S'--'
p125
ssS'17'
p126
(dp127
g5
S'--'
p128
sg7
S'--'
p129
sg9
g10
sg11
S'--'
p130
sg13
g10
sg14
S'Levine Toilolo'
p131
sg16
S'2015'
p132
sg18
S'17'
p133
sg20
S'--'
p134
sg22
S'01/03'
p135
sg24
S'8.0'
p136
sg26
S'--'
p137
sg28
S'--'
p138
sg30
S'L17-20'
p139
sg32
S'8'
p140
sg34
g10
sg36
S'NO'
p141
sg38
g140
sg40
g105
sg42
S'--'
p142
ssS'16'
p143
(dp144
g5
S'--'
p145
sg7
S'--'
p146
sg9
g10
sg11
S'--'
p147
sg13
g10
sg14
S'Levine Toilolo'
p148
sg16
S'2015'
p149
sg18
S'16'
p150
sg20
S'--'
p151
sg22
S'12/27'
p152
sg24
S'--'
p153
sg26
S'--'
p154
sg28
S'--'
p155
sg30
S'W20-13'
p156
sg32
S'--'
p157
sg34
S'--'
p158
sg36
S'CAR'
p159
sg38
S'--'
p160
sg40
S'--'
p161
sg42
S'--'
p162
ssg10
(dp163
g5
S'--'
p164
sg7
S'--'
p165
sg9
g10
sg11
S'--'
p166
sg13
g10
sg14
S'Levine Toilolo'
p167
sg16
S'2015'
p168
sg18
g10
sg20
S'--'
p169
sg22
S'09/14'
p170
sg24
S'4.0'
p171
sg26
S'--'
p172
sg28
S'--'
p173
sg30
S'W26-24'
p174
sg32
S'4'
p175
sg34
g10
sg36
S'PHI'
p176
sg38
g175
sg40
g105
sg42
S'--'
p177
ssS'3'
p178
(dp179
g5
S'--'
p180
sg7
S'--'
p181
sg9
g10
sg11
S'--'
p182
sg13
g10
sg14
S'Levine Toilolo'
p183
sg16
S'2015'
p184
sg18
g178
sg20
S'--'
p185
sg22
S'09/27'
p186
sg24
S'6.0'
p187
sg26
S'--'
p188
sg28
S'--'
p189
sg30
S'W39-28'
p190
sg32
S'6'
p191
sg34
g10
sg36
S'@DAL'
p192
sg38
g191
sg40
g105
sg42
S'--'
p193
ssS'2'
p194
(dp195
g5
S'--'
p196
sg7
S'--'
p197
sg9
g10
sg11
S'--'
p198
sg13
g10
sg14
S'Levine Toilolo'
p199
sg16
S'2015'
p200
sg18
g194
sg20
S'--'
p201
sg22
S'09/20'
p202
sg24
S'--'
p203
sg26
S'--'
p204
sg28
S'--'
p205
sg30
S'W24-20'
p206
sg32
g105
sg34
g105
sg36
S'@NYG'
p207
sg38
S'--'
p208
sg40
g105
sg42
S'--'
p209
ssS'5'
p210
(dp211
g5
S'--'
p212
sg7
S'--'
p213
sg9
g10
sg11
S'--'
p214
sg13
g10
sg14
S'Levine Toilolo'
p215
sg16
S'2015'
p216
sg18
g210
sg20
S'--'
p217
sg22
S'10/11'
p218
sg24
S'--'
p219
sg26
S'--'
p220
sg28
S'--'
p221
sg30
S'W25-19'
p222
sg32
S'--'
p223
sg34
S'--'
p224
sg36
S'WAS'
p225
sg38
S'--'
p226
sg40
S'--'
p227
sg42
S'--'
p228
ssg175
(dp229
g5
S'--'
p230
sg7
S'--'
p231
sg9
g10
sg11
S'--'
p232
sg13
g10
sg14
S'Levine Toilolo'
p233
sg16
S'2015'
p234
sg18
g175
sg20
S'--'
p235
sg22
S'10/04'
p236
sg24
S'--'
p237
sg26
S'--'
p238
sg28
S'--'
p239
sg30
S'W48-21'
p240
sg32
S'--'
p241
sg34
S'--'
p242
sg36
S'HOU'
p243
sg38
S'--'
p244
sg40
S'--'
p245
sg42
S'--'
p246
ssS'7'
p247
(dp248
g5
S'--'
p249
sg7
S'--'
p250
sg9
g10
sg11
S'--'
p251
sg13
g10
sg14
S'Levine Toilolo'
p252
sg16
S'2015'
p253
sg18
g247
sg20
S'--'
p254
sg22
S'10/25'
p255
sg24
S'--'
p256
sg26
S'--'
p257
sg28
S'--'
p258
sg30
S'W10-7'
p259
sg32
S'--'
p260
sg34
S'--'
p261
sg36
S'@TEN'
p262
sg38
S'--'
p263
sg40
S'--'
p264
sg42
S'--'
p265
ssg191
(dp266
g5
S'--'
p267
sg7
S'--'
p268
sg9
g10
sg11
S'--'
p269
sg13
g10
sg14
S'Levine Toilolo'
p270
sg16
S'2015'
p271
sg18
g191
sg20
S'--'
p272
sg22
S'10/15'
p273
sg24
S'9.0'
p274
sg26
S'--'
p275
sg28
S'--'
p276
sg30
S'L21-31'
p277
sg32
S'18'
p278
sg34
g194
sg36
S'@NO'
p279
sg38
S'11'
p280
sg40
g105
sg42
S'--'
p281
ssS'9'
p282
(dp283
g5
S'--'
p284
sg7
S'--'
p285
sg9
g105
sg11
S'--'
p286
sg13
g10
sg14
S'Levine Toilolo'
p287
sg16
S'2015'
p288
sg18
g282
sg20
S'--'
p289
sg22
S'11/08'
p290
sg24
S'1.0'
p291
sg26
S'--'
p292
sg28
S'--'
p293
sg30
S'L16-17'
p294
sg32
g10
sg34
g10
sg36
S'@SF'
p295
sg38
g10
sg40
g105
sg42
S'--'
p296
ssg140
(dp297
g5
S'--'
p298
sg7
S'--'
p299
sg9
g10
sg11
S'--'
p300
sg13
g10
sg14
S'Levine Toilolo'
p301
sg16
S'2015'
p302
sg18
g140
sg20
S'--'
p303
sg22
S'11/01'
p304
sg24
S'7.0'
p305
sg26
S'--'
p306
sg28
S'--'
p307
sg30
S'L20-23'
p308
sg32
g247
sg34
g10
sg36
S'TB'
p309
sg38
g247
sg40
g105
sg42
S'--'
p310
sssS'2014'
p311
(dp312
g3
(dp313
g5
S'--'
p314
sg7
S'--'
p315
sg9
g10
sg11
S'--'
p316
sg13
g10
sg14
S'Levine Toilolo'
p317
sg16
S'2014'
p318
sg18
S'11'
p319
sg20
S'--'
p320
sg22
S'11/16'
p321
sg24
S'11.5'
p322
sg26
S'--'
p323
sg28
S'--'
p324
sg30
S'W19-17'
p325
sg32
S'23'
p326
sg34
g194
sg36
S'@CAR'
p327
sg38
S'20'
p328
sg40
g105
sg42
S'--'
p329
ssg44
(dp330
g5
S'--'
p331
sg7
S'--'
p332
sg9
g10
sg11
S'--'
p333
sg13
g10
sg14
S'Levine Toilolo'
p334
sg16
S'2014'
p335
sg18
S'10'
p336
sg20
S'--'
p337
sg22
S'11/09'
p338
sg24
S'--'
p339
sg26
S'--'
p340
sg28
S'--'
p341
sg30
S'W27-17'
p342
sg32
S'--'
p343
sg34
S'--'
p344
sg36
S'@TB'
p345
sg38
S'--'
p346
sg40
S'--'
p347
sg42
S'--'
p348
ssg51
(dp349
g5
S'--'
p350
sg7
S'--'
p351
sg9
g10
sg11
S'--'
p352
sg13
g10
sg14
S'Levine Toilolo'
p353
sg16
S'2014'
p354
sg18
S'13'
p355
sg20
S'--'
p356
sg22
S'11/30'
p357
sg24
S'3.8'
p358
sg26
S'--'
p359
sg28
S'--'
p360
sg30
S'W29-18'
p361
sg32
S'15'
p362
sg34
g175
sg36
S'ARI'
p363
sg38
g140
sg40
g10
sg42
S'--'
p364
ssg71
(dp365
g5
S'--'
p366
sg7
S'--'
p367
sg9
g10
sg11
S'--'
p368
sg13
g10
sg14
S'Levine Toilolo'
p369
sg16
S'2014'
p370
sg18
S'12'
p371
sg20
S'--'
p372
sg22
S'11/23'
p373
sg24
S'8.5'
p374
sg26
S'--'
p375
sg28
S'--'
p376
sg30
S'L24-26'
p377
sg32
S'17'
p378
sg34
g194
sg36
S'CLE'
p379
sg38
g282
sg40
g105
sg42
S'--'
p380
ssg91
(dp381
g5
S'--'
p382
sg7
S'--'
p383
sg9
g10
sg11
S'--'
p384
sg13
g10
sg14
S'Levine Toilolo'
p385
sg16
S'2014'
p386
sg18
S'15'
p387
sg20
S'--'
p388
sg22
S'12/14'
p389
sg24
S'4.0'
p390
sg26
S'--'
p391
sg28
S'--'
p392
sg30
S'L20-27'
p393
sg32
g175
sg34
g10
sg36
S'PIT'
p394
sg38
g175
sg40
g105
sg42
S'--'
p395
ssg109
(dp396
g5
S'--'
p397
sg7
S'--'
p398
sg9
g10
sg11
S'--'
p399
sg13
g10
sg14
S'Levine Toilolo'
p400
sg16
S'2014'
p401
sg18
S'14'
p402
sg20
S'--'
p403
sg22
S'12/08'
p404
sg24
S'-1.0'
p405
sg26
S'--'
p406
sg28
S'--'
p407
sg30
S'L37-43'
p408
sg32
S'-1'
p409
sg34
g10
sg36
S'@GB'
p410
sg38
S'-1'
p411
sg40
g105
sg42
S'--'
p412
ssg126
(dp413
g5
S'--'
p414
sg7
S'--'
p415
sg9
g10
sg11
S'--'
p416
sg13
g10
sg14
S'Levine Toilolo'
p417
sg16
S'2014'
p418
sg18
S'17'
p419
sg20
S'--'
p420
sg22
S'12/28'
p421
sg24
S'7.0'
p422
sg26
S'--'
p423
sg28
S'--'
p424
sg30
S'L3-34'
p425
sg32
S'14'
p426
sg34
g194
sg36
S'CAR'
p427
sg38
S'11'
p428
sg40
g105
sg42
S'--'
p429
ssg143
(dp430
g5
S'--'
p431
sg7
S'--'
p432
sg9
g10
sg11
S'--'
p433
sg13
g10
sg14
S'Levine Toilolo'
p434
sg16
S'2014'
p435
sg18
S'16'
p436
sg20
S'--'
p437
sg22
S'12/21'
p438
sg24
S'4.3'
p439
sg26
S'--'
p440
sg28
S'--'
p441
sg30
S'W30-14'
p442
sg32
S'17'
p443
sg34
g175
sg36
S'@NO'
p444
sg38
g140
sg40
g105
sg42
S'--'
p445
ssg10
(dp446
g5
S'--'
p447
sg7
S'--'
p448
sg9
g10
sg11
S'--'
p449
sg13
g10
sg14
S'Levine Toilolo'
p450
sg16
S'2014'
p451
sg18
g10
sg20
S'--'
p452
sg22
S'09/07'
p453
sg24
S'6.3'
p454
sg26
S'--'
p455
sg28
S'--'
p456
sg30
S'W37-34'
p457
sg32
S'19'
p458
sg34
g178
sg36
S'NO'
p459
sg38
S'12'
p460
sg40
g10
sg42
S'--'
p461
ssg178
(dp462
g5
S'--'
p463
sg7
S'--'
p464
sg9
g10
sg11
g10
sg13
g10
sg14
S'Levine Toilolo'
p465
sg16
S'2014'
p466
sg18
g178
sg20
S'--'
p467
sg22
S'09/18'
p468
sg24
S'12.5'
p469
sg26
g10
sg28
S'--'
p470
sg30
S'W56-14'
p471
sg32
S'25'
p472
sg34
g194
sg36
S'TB'
p473
sg38
S'13'
p474
sg40
g105
sg42
S'--'
p475
ssg194
(dp476
g5
S'--'
p477
sg7
S'--'
p478
sg9
g10
sg11
S'--'
p479
sg13
g10
sg14
S'Levine Toilolo'
p480
sg16
S'2014'
p481
sg18
g194
sg20
S'--'
p482
sg22
S'09/14'
p483
sg24
S'6.5'
p484
sg26
S'--'
p485
sg28
S'--'
p486
sg30
S'L10-24'
p487
sg32
S'13'
p488
sg34
g194
sg36
S'@CIN'
p489
sg38
S'10'
p490
sg40
g105
sg42
S'--'
p491
ssg210
(dp492
g5
S'--'
p493
sg7
S'--'
p494
sg9
g10
sg11
S'--'
p495
sg13
g10
sg14
S'Levine Toilolo'
p496
sg16
S'2014'
p497
sg18
g210
sg20
S'--'
p498
sg22
S'10/05'
p499
sg24
S'--'
p500
sg26
S'--'
p501
sg28
S'--'
p502
sg30
S'L20-30'
p503
sg32
g105
sg34
g105
sg36
S'@NYG'
p504
sg38
S'--'
p505
sg40
g105
sg42
S'--'
p506
ssg175
(dp507
g5
S'--'
p508
sg7
S'--'
p509
sg9
g10
sg11
S'--'
p510
sg13
g10
sg14
S'Levine Toilolo'
p511
sg16
S'2014'
p512
sg18
g175
sg20
S'--'
p513
sg22
S'09/28'
p514
sg24
S'12.0'
p515
sg26
S'--'
p516
sg28
S'--'
p517
sg30
S'L28-41'
p518
sg32
S'12'
p519
sg34
g10
sg36
S'@MIN'
p520
sg38
S'12'
p521
sg40
g105
sg42
S'--'
p522
ssg247
(dp523
g5
S'--'
p524
sg7
S'--'
p525
sg9
g10
sg11
S'--'
p526
sg13
g10
sg14
S'Levine Toilolo'
p527
sg16
S'2014'
p528
sg18
g247
sg20
S'--'
p529
sg22
S'10/19'
p530
sg24
S'10.0'
p531
sg26
S'--'
p532
sg28
S'--'
p533
sg30
S'L7-29'
p534
sg32
S'20'
p535
sg34
g194
sg36
S'@BAL'
p536
sg38
S'17'
p537
sg40
g105
sg42
S'--'
p538
ssg191
(dp539
g5
S'--'
p540
sg7
S'--'
p541
sg9
g10
sg11
S'--'
p542
sg13
g10
sg14
S'Levine Toilolo'
p543
sg16
S'2014'
p544
sg18
g191
sg20
S'--'
p545
sg22
S'10/12'
p546
sg24
S'11.3'
p547
sg26
S'--'
p548
sg28
S'--'
p549
sg30
S'L13-27'
p550
sg32
S'34'
p551
sg34
g178
sg36
S'CHI'
p552
sg38
S'15'
p553
sg40
g105
sg42
S'--'
p554
ssg282
(dp555
g5
g46
sg7
g46
sg9
g46
sg11
g46
sg13
g46
sg14
S'Levine Toilolo'
p556
sg16
S'2014'
p557
sg18
g282
sg20
g46
sg22
S'Bye'
p558
sg24
g46
sg26
g46
sg28
g46
sg30
g46
sg32
g46
sg34
g46
sg36
g46
sg38
g46
sg40
g46
sg42
g46
ssg140
(dp559
g5
S'--'
p560
sg7
S'--'
p561
sg9
g10
sg11
S'--'
p562
sg13
g10
sg14
S'Levine Toilolo'
p563
sg16
S'2014'
p564
sg18
g140
sg20
S'--'
p565
sg22
S'10/26'
p566
sg24
S'13.0'
p567
sg26
S'--'
p568
sg28
S'--'
p569
sg30
S'L21-22'
p570
sg32
S'26'
p571
sg34
g194
sg36
S'DET'
p572
sg38
S'15'
p573
sg40
g105
sg42
S'--'
p574
sssS'2013'
p575
(dp576
g3
(dp577
g5
S'--'
p578
sg7
S'--'
p579
sg9
g105
sg11
S'--'
p580
sg13
g10
sg14
S'Levine Toilolo'
p581
sg16
S'2013'
p582
sg18
S'11'
p583
sg20
S'--'
p584
sg22
S'11/17'
p585
sg24
S'6.0'
p586
sg26
S'--'
p587
sg28
S'--'
p588
sg30
S'L28-41'
p589
sg32
g191
sg34
g10
sg36
S'@TB'
p590
sg38
g191
sg40
g105
sg42
S'--'
p591
ssg44
(dp592
g5
S'--'
p593
sg7
S'--'
p594
sg9
g105
sg11
S'--'
p595
sg13
g10
sg14
S'Levine Toilolo'
p596
sg16
S'2013'
p597
sg18
S'10'
p598
sg20
S'--'
p599
sg22
S'11/10'
p600
sg24
S'--'
p601
sg26
S'--'
p602
sg28
S'--'
p603
sg30
S'L10-33'
p604
sg32
S'--'
p605
sg34
S'--'
p606
sg36
S'SEA'
p607
sg38
S'--'
p608
sg40
S'--'
p609
sg42
S'--'
p610
ssg51
(dp611
g5
S'--'
p612
sg7
S'--'
p613
sg9
g105
sg11
S'--'
p614
sg13
g10
sg14
S'Levine Toilolo'
p615
sg16
S'2013'
p616
sg18
S'13'
p617
sg20
S'--'
p618
sg22
S'12/01'
p619
sg24
S'12.0'
p620
sg26
S'--'
p621
sg28
S'--'
p622
sg30
S'W34-31'
p623
sg32
S'12'
p624
sg34
g10
sg36
S'@BUF'
p625
sg38
S'12'
p626
sg40
g105
sg42
S'--'
p627
ssg71
(dp628
g5
S'--'
p629
sg7
S'--'
p630
sg9
g105
sg11
S'--'
p631
sg13
g10
sg14
S'Levine Toilolo'
p632
sg16
S'2013'
p633
sg18
S'12'
p634
sg20
S'--'
p635
sg22
S'11/21'
p636
sg24
S'6.0'
p637
sg26
S'--'
p638
sg28
S'--'
p639
sg30
S'L13-17'
p640
sg32
g191
sg34
g10
sg36
S'NO'
p641
sg38
g191
sg40
g105
sg42
S'--'
p642
ssg91
(dp643
g5
S'--'
p644
sg7
S'--'
p645
sg9
g105
sg11
S'--'
p646
sg13
g10
sg14
S'Levine Toilolo'
p647
sg16
S'2013'
p648
sg18
S'15'
p649
sg20
S'--'
p650
sg22
S'12/15'
p651
sg24
S'--'
p652
sg26
S'--'
p653
sg28
S'--'
p654
sg30
S'W27-26'
p655
sg32
g105
sg34
g105
sg36
S'WAS'
p656
sg38
S'--'
p657
sg40
g105
sg42
S'--'
p658
ssg109
(dp659
g5
S'--'
p660
sg7
S'--'
p661
sg9
g105
sg11
S'--'
p662
sg13
g10
sg14
S'Levine Toilolo'
p663
sg16
S'2013'
p664
sg18
S'14'
p665
sg20
S'--'
p666
sg22
S'12/08'
p667
sg24
S'--'
p668
sg26
S'--'
p669
sg28
S'--'
p670
sg30
S'L21-22'
p671
sg32
S'--'
p672
sg34
S'--'
p673
sg36
S'@GB'
p674
sg38
S'--'
p675
sg40
S'--'
p676
sg42
S'--'
p677
ssg126
(dp678
g5
S'--'
p679
sg7
S'--'
p680
sg9
g10
sg11
S'--'
p681
sg13
g10
sg14
S'Levine Toilolo'
p682
sg16
S'2013'
p683
sg18
S'17'
p684
sg20
S'--'
p685
sg22
S'12/29'
p686
sg24
S'--'
p687
sg26
S'--'
p688
sg28
S'--'
p689
sg30
S'L20-21'
p690
sg32
S'--'
p691
sg34
S'--'
p692
sg36
S'CAR'
p693
sg38
S'--'
p694
sg40
S'--'
p695
sg42
S'--'
p696
ssg143
(dp697
g5
S'--'
p698
sg7
S'--'
p699
sg9
g10
sg11
S'--'
p700
sg13
g10
sg14
S'Levine Toilolo'
p701
sg16
S'2013'
p702
sg18
S'16'
p703
sg20
S'--'
p704
sg22
S'12/23'
p705
sg24
S'--'
p706
sg26
S'--'
p707
sg28
S'--'
p708
sg30
S'L24-34'
p709
sg32
S'--'
p710
sg34
S'--'
p711
sg36
S'@SF'
p712
sg38
S'--'
p713
sg40
S'--'
p714
sg42
S'--'
p715
ssg10
(dp716
g5
S'--'
p717
sg7
S'--'
p718
sg9
g105
sg11
S'--'
p719
sg13
g10
sg14
S'Levine Toilolo'
p720
sg16
S'2013'
p721
sg18
g10
sg20
S'--'
p722
sg22
S'09/08'
p723
sg24
S'--'
p724
sg26
S'--'
p725
sg28
S'--'
p726
sg30
S'L17-23'
p727
sg32
S'--'
p728
sg34
S'--'
p729
sg36
S'@NO'
p730
sg38
S'--'
p731
sg40
S'--'
p732
sg42
S'--'
p733
ssg178
(dp734
g5
S'--'
p735
sg7
S'--'
p736
sg9
g10
sg11
S'--'
p737
sg13
g10
sg14
S'Levine Toilolo'
p738
sg16
S'2013'
p739
sg18
g178
sg20
S'--'
p740
sg22
S'09/22'
p741
sg24
S'2.0'
p742
sg26
S'--'
p743
sg28
S'--'
p744
sg30
S'L23-27'
p745
sg32
g194
sg34
g10
sg36
S'@MIA'
p746
sg38
S'2T'
p747
sg40
g10
sg42
S'--'
p748
ssg194
(dp749
g5
S'--'
p750
sg7
S'--'
p751
sg9
g105
sg11
S'--'
p752
sg13
g10
sg14
S'Levine Toilolo'
p753
sg16
S'2013'
p754
sg18
g194
sg20
S'--'
p755
sg22
S'09/15'
p756
sg24
S'4.0'
p757
sg26
S'--'
p758
sg28
S'--'
p759
sg30
S'W31-24'
p760
sg32
g175
sg34
g10
sg36
S'STL'
p761
sg38
g175
sg40
g105
sg42
S'--'
p762
ssg210
(dp763
g5
S'--'
p764
sg7
S'--'
p765
sg9
g105
sg11
S'--'
p766
sg13
g10
sg14
S'Levine Toilolo'
p767
sg16
S'2013'
p768
sg18
g210
sg20
S'--'
p769
sg22
S'10/07'
p770
sg24
S'7.5'
p771
sg26
S'--'
p772
sg28
S'--'
p773
sg30
S'L28-30'
p774
sg32
S'15'
p775
sg34
g194
sg36
S'NYJ'
p776
sg38
S'12'
p777
sg40
g10
sg42
S'--'
p778
ssg175
(dp779
g5
S'--'
p780
sg7
S'--'
p781
sg9
g105
sg11
S'--'
p782
sg13
g10
sg14
S'Levine Toilolo'
p783
sg16
S'2013'
p784
sg18
g175
sg20
S'--'
p785
sg22
S'09/29'
p786
sg24
S'4.0'
p787
sg26
S'--'
p788
sg28
S'--'
p789
sg30
S'L23-30'
p790
sg32
g175
sg34
g10
sg36
S'NE'
p791
sg38
g175
sg40
g105
sg42
S'--'
p792
ssg247
(dp793
g5
S'--'
p794
sg7
S'--'
p795
sg9
g105
sg11
S'--'
p796
sg13
g10
sg14
S'Levine Toilolo'
p797
sg16
S'2013'
p798
sg18
g247
sg20
S'--'
p799
sg22
S'10/20'
p800
sg24
S'--'
p801
sg26
S'--'
p802
sg28
S'--'
p803
sg30
S'W31-23'
p804
sg32
S'--'
p805
sg34
S'--'
p806
sg36
S'TB'
p807
sg38
S'--'
p808
sg40
S'--'
p809
sg42
S'--'
p810
ssg191
(dp811
g5
g46
sg7
g46
sg9
g46
sg11
g46
sg13
g46
sg14
S'Levine Toilolo'
p812
sg16
S'2013'
p813
sg18
g191
sg20
g46
sg22
S'Bye'
p814
sg24
g46
sg26
g46
sg28
g46
sg30
g46
sg32
g46
sg34
g46
sg36
g46
sg38
g46
sg40
g46
sg42
g46
ssg282
(dp815
g5
S'--'
p816
sg7
S'--'
p817
sg9
g105
sg11
S'--'
p818
sg13
g10
sg14
S'Levine Toilolo'
p819
sg16
S'2013'
p820
sg18
g282
sg20
S'--'
p821
sg22
S'11/03'
p822
sg24
S'--'
p823
sg26
S'--'
p824
sg28
S'--'
p825
sg30
S'L10-34'
p826
sg32
S'--'
p827
sg34
S'--'
p828
sg36
S'@CAR'
p829
sg38
S'--'
p830
sg40
S'--'
p831
sg42
S'--'
p832
ssg140
(dp833
g5
S'--'
p834
sg7
S'--'
p835
sg9
g105
sg11
S'--'
p836
sg13
g10
sg14
S'Levine Toilolo'
p837
sg16
S'2013'
p838
sg18
g140
sg20
S'--'
p839
sg22
S'10/27'
p840
sg24
S'2.0'
p841
sg26
S'--'
p842
sg28
S'--'
p843
sg30
S'L13-27'
p844
sg32
g191
sg34
g178
sg36
S'@ARI'
p845
sg38
g247
sg40
g105
sg42
S'--'
p846
sss.