(dp0
S'2014'
p1
(dp2
S'11'
p3
(dp4
S'RushTD'
p5
S'--'
p6
sS'RushYds'
p7
S'--'
p8
sS'GS'
p9
S'0'
p10
sS'Lost'
p11
S'--'
p12
sS'G'
p13
S'1'
p14
sS'Player'
p15
S'Logan Paulsen'
p16
sS'Year'
p17
S'2014'
p18
sS'WK'
p19
S'11'
p20
sS'RushAvg'
p21
S'--'
p22
sS'Game Date'
p23
S'11/16'
p24
sS'RecAvg'
p25
S'--'
p26
sS'FUM'
p27
S'--'
p28
sS'RushAtt'
p29
S'--'
p30
sS'Result'
p31
S'L7-27'
p32
sS'RecYds'
p33
S'--'
p34
sS'Rec'
p35
S'--'
p36
sS'Opp'
p37
S'TB'
p38
sS'RecLng'
p39
S'--'
p40
sS'RecTD'
p41
S'--'
p42
sS'RushLng'
p43
S'--'
p44
ssS'10'
p45
(dp46
g5
S''
p47
sg7
g47
sg9
g47
sg11
g47
sg13
g47
sg15
S'Logan Paulsen'
p48
sg17
S'2014'
p49
sg19
S'10'
p50
sg21
g47
sg23
S'Bye'
p51
sg25
g47
sg27
g47
sg29
g47
sg31
g47
sg33
g47
sg35
g47
sg37
g47
sg39
g47
sg41
g47
sg43
g47
ssS'13'
p52
(dp53
g5
S'--'
p54
sg7
S'--'
p55
sg9
g14
sg11
S'--'
p56
sg13
g14
sg15
S'Logan Paulsen'
p57
sg17
S'2014'
p58
sg19
S'13'
p59
sg21
S'--'
p60
sg23
S'11/30'
p61
sg25
S'16.0'
p62
sg27
S'--'
p63
sg29
S'--'
p64
sg31
S'L27-49'
p65
sg33
S'16'
p66
sg35
g14
sg37
S'@IND'
p67
sg39
S'16T'
p68
sg41
g14
sg43
S'--'
p69
ssS'12'
p70
(dp71
g5
S'--'
p72
sg7
S'--'
p73
sg9
g10
sg11
S'--'
p74
sg13
g14
sg15
S'Logan Paulsen'
p75
sg17
S'2014'
p76
sg19
S'12'
p77
sg21
S'--'
p78
sg23
S'11/23'
p79
sg25
S'1.0'
p80
sg27
S'--'
p81
sg29
S'--'
p82
sg31
S'L13-17'
p83
sg33
g14
sg35
g14
sg37
S'@SF'
p84
sg39
g14
sg41
g10
sg43
S'--'
p85
ssS'15'
p86
(dp87
g5
S'--'
p88
sg7
S'--'
p89
sg9
g14
sg11
S'--'
p90
sg13
g14
sg15
S'Logan Paulsen'
p91
sg17
S'2014'
p92
sg19
S'15'
p93
sg21
S'--'
p94
sg23
S'12/14'
p95
sg25
S'9.0'
p96
sg27
S'--'
p97
sg29
S'--'
p98
sg31
S'L13-24'
p99
sg33
S'9'
p100
sg35
g14
sg37
S'@NYG'
p101
sg39
g100
sg41
g10
sg43
S'--'
p102
ssS'14'
p103
(dp104
g5
S'--'
p105
sg7
S'--'
p106
sg9
g10
sg11
S'--'
p107
sg13
g14
sg15
S'Logan Paulsen'
p108
sg17
S'2014'
p109
sg19
S'14'
p110
sg21
S'--'
p111
sg23
S'12/07'
p112
sg25
S'--'
p113
sg27
S'--'
p114
sg29
S'--'
p115
sg31
S'L0-24'
p116
sg33
S'--'
p117
sg35
S'--'
p118
sg37
S'STL'
p119
sg39
S'--'
p120
sg41
S'--'
p121
sg43
S'--'
p122
ssS'17'
p123
(dp124
g5
S'--'
p125
sg7
S'--'
p126
sg9
g14
sg11
S'--'
p127
sg13
g14
sg15
S'Logan Paulsen'
p128
sg17
S'2014'
p129
sg19
S'17'
p130
sg21
S'--'
p131
sg23
S'12/28'
p132
sg25
S'--'
p133
sg27
S'--'
p134
sg29
S'--'
p135
sg31
S'L17-44'
p136
sg33
g10
sg35
g10
sg37
S'DAL'
p137
sg39
S'--'
p138
sg41
g10
sg43
S'--'
p139
ssS'16'
p140
(dp141
g5
S'--'
p142
sg7
S'--'
p143
sg9
g14
sg11
S'--'
p144
sg13
g14
sg15
S'Logan Paulsen'
p145
sg17
S'2014'
p146
sg19
S'16'
p147
sg21
S'--'
p148
sg23
S'12/20'
p149
sg25
S'6.0'
p150
sg27
S'--'
p151
sg29
S'--'
p152
sg31
S'W27-24'
p153
sg33
S'6'
p154
sg35
g14
sg37
S'PHI'
p155
sg39
g154
sg41
g10
sg43
S'--'
p156
ssg14
(dp157
g5
S'--'
p158
sg7
S'--'
p159
sg9
g14
sg11
S'--'
p160
sg13
g14
sg15
S'Logan Paulsen'
p161
sg17
S'2014'
p162
sg19
g14
sg21
S'--'
p163
sg23
S'09/07'
p164
sg25
S'0.0'
p165
sg27
S'--'
p166
sg29
S'--'
p167
sg31
S'L6-17'
p168
sg33
g10
sg35
S'2'
p169
sg37
S'@HOU'
p170
sg39
S'3'
p171
sg41
g10
sg43
S'--'
p172
ssg171
(dp173
g5
S'--'
p174
sg7
S'--'
p175
sg9
g14
sg11
S'--'
p176
sg13
g14
sg15
S'Logan Paulsen'
p177
sg17
S'2014'
p178
sg19
g171
sg21
S'--'
p179
sg23
S'09/21'
p180
sg25
S'3.5'
p181
sg27
S'--'
p182
sg29
S'--'
p183
sg31
S'L34-37'
p184
sg33
S'7'
p185
sg35
g169
sg37
S'@PHI'
p186
sg39
S'4'
p187
sg41
g10
sg43
S'--'
p188
ssg169
(dp189
g5
S'--'
p190
sg7
S'--'
p191
sg9
g14
sg11
S'--'
p192
sg13
g14
sg15
S'Logan Paulsen'
p193
sg17
S'2014'
p194
sg19
g169
sg21
S'--'
p195
sg23
S'09/14'
p196
sg25
S'--'
p197
sg27
S'--'
p198
sg29
S'--'
p199
sg31
S'W41-10'
p200
sg33
S'--'
p201
sg35
S'--'
p202
sg37
S'JAC'
p203
sg39
S'--'
p204
sg41
S'--'
p205
sg43
S'--'
p206
ssS'5'
p207
(dp208
g5
S'--'
p209
sg7
S'--'
p210
sg9
g14
sg11
S'--'
p211
sg13
g14
sg15
S'Logan Paulsen'
p212
sg17
S'2014'
p213
sg19
g207
sg21
S'--'
p214
sg23
S'10/06'
p215
sg25
S'5.5'
p216
sg27
S'--'
p217
sg29
S'--'
p218
sg31
S'L17-27'
p219
sg33
S'11'
p220
sg35
g169
sg37
S'SEA'
p221
sg39
g185
sg41
g10
sg43
S'--'
p222
ssg187
(dp223
g5
S'--'
p224
sg7
S'--'
p225
sg9
g14
sg11
g14
sg13
g14
sg15
S'Logan Paulsen'
p226
sg17
S'2014'
p227
sg19
g187
sg21
S'--'
p228
sg23
S'09/25'
p229
sg25
S'9.3'
p230
sg27
g14
sg29
S'--'
p231
sg31
S'L14-45'
p232
sg33
S'28'
p233
sg35
g171
sg37
S'NYG'
p234
sg39
S'13'
p235
sg41
g10
sg43
S'--'
p236
ssg185
(dp237
g5
S'--'
p238
sg7
S'--'
p239
sg9
g14
sg11
S'--'
p240
sg13
g14
sg15
S'Logan Paulsen'
p241
sg17
S'2014'
p242
sg19
g185
sg21
S'--'
p243
sg23
S'10/19'
p244
sg25
S'--'
p245
sg27
S'--'
p246
sg29
S'--'
p247
sg31
S'W19-17'
p248
sg33
g10
sg35
g10
sg37
S'TEN'
p249
sg39
S'--'
p250
sg41
g10
sg43
S'--'
p251
ssg154
(dp252
g5
S'--'
p253
sg7
S'--'
p254
sg9
g10
sg11
S'--'
p255
sg13
g14
sg15
S'Logan Paulsen'
p256
sg17
S'2014'
p257
sg19
g154
sg21
S'--'
p258
sg23
S'10/12'
p259
sg25
S'--'
p260
sg27
S'--'
p261
sg29
S'--'
p262
sg31
S'L20-30'
p263
sg33
S'--'
p264
sg35
S'--'
p265
sg37
S'@ARI'
p266
sg39
S'--'
p267
sg41
S'--'
p268
sg43
S'--'
p269
ssg100
(dp270
g5
S'--'
p271
sg7
S'--'
p272
sg9
g14
sg11
S'--'
p273
sg13
g14
sg15
S'Logan Paulsen'
p274
sg17
S'2014'
p275
sg19
g100
sg21
S'--'
p276
sg23
S'11/02'
p277
sg25
S'--'
p278
sg27
S'--'
p279
sg29
S'--'
p280
sg31
S'L26-29'
p281
sg33
S'--'
p282
sg35
S'--'
p283
sg37
S'@MIN'
p284
sg39
S'--'
p285
sg41
S'--'
p286
sg43
S'--'
p287
ssS'8'
p288
(dp289
g5
S'--'
p290
sg7
S'--'
p291
sg9
g14
sg11
S'--'
p292
sg13
g14
sg15
S'Logan Paulsen'
p293
sg17
S'2014'
p294
sg19
g288
sg21
S'--'
p295
sg23
S'10/27'
p296
sg25
S'--'
p297
sg27
S'--'
p298
sg29
S'--'
p299
sg31
S'W20-17'
p300
sg33
S'--'
p301
sg35
S'--'
p302
sg37
S'@DAL'
p303
sg39
S'--'
p304
sg41
S'--'
p305
sg43
S'--'
p306
sssS'2011'
p307
(dp308
g3
(dp309
g5
S'--'
p310
sg7
S'--'
p311
sg9
g10
sg11
S'--'
p312
sg13
g14
sg15
S'Logan Paulsen'
p313
sg17
S'2011'
p314
sg19
S'11'
p315
sg21
S'--'
p316
sg23
S'11/20'
p317
sg25
S'8.5'
p318
sg27
S'--'
p319
sg29
S'--'
p320
sg31
S'L24-27'
p321
sg33
S'17'
p322
sg35
g169
sg37
S'DAL'
p323
sg39
S'13'
p324
sg41
g10
sg43
S'--'
p325
ssg45
(dp326
g5
S'--'
p327
sg7
S'--'
p328
sg9
g14
sg11
S'--'
p329
sg13
g14
sg15
S'Logan Paulsen'
p330
sg17
S'2011'
p331
sg19
S'10'
p332
sg21
S'--'
p333
sg23
S'11/13'
p334
sg25
S'16.0'
p335
sg27
S'--'
p336
sg29
S'--'
p337
sg31
S'L9-20'
p338
sg33
S'16'
p339
sg35
g14
sg37
S'@MIA'
p340
sg39
S'16'
p341
sg41
g10
sg43
S'--'
p342
ssg52
(dp343
g5
S'--'
p344
sg7
S'--'
p345
sg9
g14
sg11
S'--'
p346
sg13
g14
sg15
S'Logan Paulsen'
p347
sg17
S'2011'
p348
sg19
S'13'
p349
sg21
S'--'
p350
sg23
S'12/04'
p351
sg25
S'--'
p352
sg27
S'--'
p353
sg29
S'--'
p354
sg31
S'L19-34'
p355
sg33
g10
sg35
g10
sg37
S'NYJ'
p356
sg39
S'--'
p357
sg41
g10
sg43
S'--'
p358
ssg70
(dp359
g5
S'--'
p360
sg7
S'--'
p361
sg9
g10
sg11
S'--'
p362
sg13
g14
sg15
S'Logan Paulsen'
p363
sg17
S'2011'
p364
sg19
S'12'
p365
sg21
S'--'
p366
sg23
S'11/27'
p367
sg25
S'7.0'
p368
sg27
S'--'
p369
sg29
S'--'
p370
sg31
S'W23-17'
p371
sg33
S'14'
p372
sg35
g169
sg37
S'@SEA'
p373
sg39
S'11'
p374
sg41
g10
sg43
S'--'
p375
ssg86
(dp376
g5
S'--'
p377
sg7
S'--'
p378
sg9
g14
sg11
S'--'
p379
sg13
g14
sg15
S'Logan Paulsen'
p380
sg17
S'2011'
p381
sg19
S'15'
p382
sg21
S'--'
p383
sg23
S'12/18'
p384
sg25
S'9.0'
p385
sg27
S'--'
p386
sg29
S'--'
p387
sg31
S'W23-10'
p388
sg33
g100
sg35
g14
sg37
S'@NYG'
p389
sg39
g100
sg41
g10
sg43
S'--'
p390
ssg103
(dp391
g5
S'--'
p392
sg7
S'--'
p393
sg9
g14
sg11
S'--'
p394
sg13
g14
sg15
S'Logan Paulsen'
p395
sg17
S'2011'
p396
sg19
S'14'
p397
sg21
S'--'
p398
sg23
S'12/11'
p399
sg25
S'--'
p400
sg27
S'--'
p401
sg29
S'--'
p402
sg31
S'L27-34'
p403
sg33
S'--'
p404
sg35
S'--'
p405
sg37
S'NE'
p406
sg39
S'--'
p407
sg41
S'--'
p408
sg43
S'--'
p409
ssg123
(dp410
g5
S'--'
p411
sg7
S'--'
p412
sg9
g14
sg11
S'--'
p413
sg13
g14
sg15
S'Logan Paulsen'
p414
sg17
S'2011'
p415
sg19
S'17'
p416
sg21
S'--'
p417
sg23
S'01/01'
p418
sg25
S'14.5'
p419
sg27
S'--'
p420
sg29
S'--'
p421
sg31
S'L10-34'
p422
sg33
S'29'
p423
sg35
g169
sg37
S'@PHI'
p424
sg39
S'22'
p425
sg41
g10
sg43
S'--'
p426
ssg140
(dp427
g5
S'--'
p428
sg7
S'--'
p429
sg9
g10
sg11
S'--'
p430
sg13
g14
sg15
S'Logan Paulsen'
p431
sg17
S'2011'
p432
sg19
S'16'
p433
sg21
S'--'
p434
sg23
S'12/24'
p435
sg25
S'5.0'
p436
sg27
S'--'
p437
sg29
S'--'
p438
sg31
S'L26-33'
p439
sg33
g207
sg35
g14
sg37
S'MIN'
p440
sg39
g207
sg41
g10
sg43
S'--'
p441
ssg14
(dp442
g5
S'--'
p443
sg7
S'--'
p444
sg9
g10
sg11
S'--'
p445
sg13
g14
sg15
S'Logan Paulsen'
p446
sg17
S'2011'
p447
sg19
g14
sg21
S'--'
p448
sg23
S'09/11'
p449
sg25
S'--'
p450
sg27
S'--'
p451
sg29
S'--'
p452
sg31
S'W28-14'
p453
sg33
g10
sg35
g10
sg37
S'NYG'
p454
sg39
S'--'
p455
sg41
g10
sg43
S'--'
p456
ssg171
(dp457
g5
S'--'
p458
sg7
S'--'
p459
sg9
g14
sg11
S'--'
p460
sg13
g14
sg15
S'Logan Paulsen'
p461
sg17
S'2011'
p462
sg19
g171
sg21
S'--'
p463
sg23
S'09/26'
p464
sg25
S'--'
p465
sg27
S'--'
p466
sg29
S'--'
p467
sg31
S'L16-18'
p468
sg33
S'--'
p469
sg35
S'--'
p470
sg37
S'@DAL'
p471
sg39
S'--'
p472
sg41
S'--'
p473
sg43
S'--'
p474
ssg169
(dp475
g5
S'--'
p476
sg7
S'--'
p477
sg9
g10
sg11
S'--'
p478
sg13
g14
sg15
S'Logan Paulsen'
p479
sg17
S'2011'
p480
sg19
g169
sg21
S'--'
p481
sg23
S'09/18'
p482
sg25
S'--'
p483
sg27
S'--'
p484
sg29
S'--'
p485
sg31
S'W22-21'
p486
sg33
S'--'
p487
sg35
S'--'
p488
sg37
S'ARI'
p489
sg39
S'--'
p490
sg41
S'--'
p491
sg43
S'--'
p492
ssg207
(dp493
g5
g47
sg7
g47
sg9
g47
sg11
g47
sg13
g47
sg15
S'Logan Paulsen'
p494
sg17
S'2011'
p495
sg19
g207
sg21
g47
sg23
S'Bye'
p496
sg25
g47
sg27
g47
sg29
g47
sg31
g47
sg33
g47
sg35
g47
sg37
g47
sg39
g47
sg41
g47
sg43
g47
ssg187
(dp497
g5
S'--'
p498
sg7
S'--'
p499
sg9
g10
sg11
S'--'
p500
sg13
g14
sg15
S'Logan Paulsen'
p501
sg17
S'2011'
p502
sg19
g187
sg21
S'--'
p503
sg23
S'10/02'
p504
sg25
S'--'
p505
sg27
S'--'
p506
sg29
S'--'
p507
sg31
S'W17-10'
p508
sg33
S'--'
p509
sg35
S'--'
p510
sg37
S'@STL'
p511
sg39
S'--'
p512
sg41
S'--'
p513
sg43
S'--'
p514
ssg185
(dp515
g5
S'--'
p516
sg7
S'--'
p517
sg9
g10
sg11
S'--'
p518
sg13
g14
sg15
S'Logan Paulsen'
p519
sg17
S'2011'
p520
sg19
g185
sg21
S'--'
p521
sg23
S'10/23'
p522
sg25
S'24.0'
p523
sg27
S'--'
p524
sg29
S'--'
p525
sg31
S'L20-33'
p526
sg33
S'48'
p527
sg35
g169
sg37
S'@CAR'
p528
sg39
S'24'
p529
sg41
g10
sg43
S'--'
p530
ssg154
(dp531
g5
S'--'
p532
sg7
S'--'
p533
sg9
g10
sg11
S'--'
p534
sg13
g14
sg15
S'Logan Paulsen'
p535
sg17
S'2011'
p536
sg19
g154
sg21
S'--'
p537
sg23
S'10/16'
p538
sg25
S'--'
p539
sg27
S'--'
p540
sg29
S'--'
p541
sg31
S'L13-20'
p542
sg33
S'--'
p543
sg35
S'--'
p544
sg37
S'PHI'
p545
sg39
S'--'
p546
sg41
S'--'
p547
sg43
S'--'
p548
ssg100
(dp549
g5
S'--'
p550
sg7
S'--'
p551
sg9
g10
sg11
S'--'
p552
sg13
g14
sg15
S'Logan Paulsen'
p553
sg17
S'2011'
p554
sg19
g100
sg21
S'--'
p555
sg23
S'11/06'
p556
sg25
S'--'
p557
sg27
S'--'
p558
sg29
S'--'
p559
sg31
S'L11-19'
p560
sg33
g10
sg35
g10
sg37
S'SF'
p561
sg39
S'--'
p562
sg41
g10
sg43
S'--'
p563
ssg288
(dp564
g5
S'--'
p565
sg7
S'--'
p566
sg9
g10
sg11
S'--'
p567
sg13
g14
sg15
S'Logan Paulsen'
p568
sg17
S'2011'
p569
sg19
g288
sg21
S'--'
p570
sg23
S'10/30'
p571
sg25
S'--'
p572
sg27
S'--'
p573
sg29
S'--'
p574
sg31
S'L0-23'
p575
sg33
S'--'
p576
sg35
S'--'
p577
sg37
S'@BUF'
p578
sg39
S'--'
p579
sg41
S'--'
p580
sg43
S'--'
p581
sssS'2010'
p582
(dp583
g3
(dp584
g5
S'--'
p585
sg7
S'--'
p586
sg9
g10
sg11
S'--'
p587
sg13
g14
sg15
S'Logan Paulsen'
p588
sg17
S'2010'
p589
sg19
S'11'
p590
sg21
S'--'
p591
sg23
S'11/21'
p592
sg25
S'--'
p593
sg27
S'--'
p594
sg29
S'--'
p595
sg31
S'W19-16'
p596
sg33
S'--'
p597
sg35
S'--'
p598
sg37
S'@TEN'
p599
sg39
S'--'
p600
sg41
S'--'
p601
sg43
S'--'
p602
ssg45
(dp603
g5
S'--'
p604
sg7
S'--'
p605
sg9
g10
sg11
S'--'
p606
sg13
g14
sg15
S'Logan Paulsen'
p607
sg17
S'2010'
p608
sg19
S'10'
p609
sg21
S'--'
p610
sg23
S'11/15'
p611
sg25
S'--'
p612
sg27
S'--'
p613
sg29
S'--'
p614
sg31
S'L28-59'
p615
sg33
S'--'
p616
sg35
S'--'
p617
sg37
S'PHI'
p618
sg39
S'--'
p619
sg41
S'--'
p620
sg43
S'--'
p621
ssg52
(dp622
g5
S'--'
p623
sg7
S'--'
p624
sg9
g10
sg11
S'--'
p625
sg13
g14
sg15
S'Logan Paulsen'
p626
sg17
S'2010'
p627
sg19
S'13'
p628
sg21
S'--'
p629
sg23
S'12/05'
p630
sg25
S'9.0'
p631
sg27
S'--'
p632
sg29
S'--'
p633
sg31
S'L7-31'
p634
sg33
g100
sg35
g14
sg37
S'@NYG'
p635
sg39
g100
sg41
g10
sg43
S'--'
p636
ssg70
(dp637
g5
S'--'
p638
sg7
S'--'
p639
sg9
g10
sg11
S'--'
p640
sg13
g14
sg15
S'Logan Paulsen'
p641
sg17
S'2010'
p642
sg19
S'12'
p643
sg21
S'--'
p644
sg23
S'11/28'
p645
sg25
S'--'
p646
sg27
S'--'
p647
sg29
S'--'
p648
sg31
S'L13-17'
p649
sg33
S'--'
p650
sg35
S'--'
p651
sg37
S'MIN'
p652
sg39
S'--'
p653
sg41
S'--'
p654
sg43
S'--'
p655
ssg86
(dp656
g5
S'--'
p657
sg7
S'--'
p658
sg9
g10
sg11
S'--'
p659
sg13
g14
sg15
S'Logan Paulsen'
p660
sg17
S'2010'
p661
sg19
S'15'
p662
sg21
S'--'
p663
sg23
S'12/19'
p664
sg25
S'--'
p665
sg27
S'--'
p666
sg29
S'--'
p667
sg31
S'L30-33'
p668
sg33
S'--'
p669
sg35
S'--'
p670
sg37
S'@DAL'
p671
sg39
S'--'
p672
sg41
S'--'
p673
sg43
S'--'
p674
ssg103
(dp675
g5
S'--'
p676
sg7
S'--'
p677
sg9
g10
sg11
S'--'
p678
sg13
g14
sg15
S'Logan Paulsen'
p679
sg17
S'2010'
p680
sg19
S'14'
p681
sg21
S'--'
p682
sg23
S'12/12'
p683
sg25
S'1.0'
p684
sg27
S'--'
p685
sg29
S'--'
p686
sg31
S'L16-17'
p687
sg33
g14
sg35
g14
sg37
S'TB'
p688
sg39
S'1T'
p689
sg41
g14
sg43
S'--'
p690
ssg123
(dp691
g5
S'--'
p692
sg7
S'--'
p693
sg9
g10
sg11
S'--'
p694
sg13
g14
sg15
S'Logan Paulsen'
p695
sg17
S'2010'
p696
sg19
S'17'
p697
sg21
S'--'
p698
sg23
S'01/02'
p699
sg25
S'--'
p700
sg27
S'--'
p701
sg29
S'--'
p702
sg31
S'L14-17'
p703
sg33
S'--'
p704
sg35
S'--'
p705
sg37
S'NYG'
p706
sg39
S'--'
p707
sg41
S'--'
p708
sg43
S'--'
p709
ssg140
(dp710
g5
S'--'
p711
sg7
S'--'
p712
sg9
g10
sg11
S'--'
p713
sg13
g14
sg15
S'Logan Paulsen'
p714
sg17
S'2010'
p715
sg19
S'16'
p716
sg21
S'--'
p717
sg23
S'12/26'
p718
sg25
S'--'
p719
sg27
S'--'
p720
sg29
S'--'
p721
sg31
S'W20-17'
p722
sg33
S'--'
p723
sg35
S'--'
p724
sg37
S'@JAC'
p725
sg39
S'--'
p726
sg41
S'--'
p727
sg43
S'--'
p728
ssg14
(dp729
g5
S'--'
p730
sg7
S'--'
p731
sg9
g10
sg11
S'--'
p732
sg13
g10
sg15
S'Logan Paulsen'
p733
sg17
S'2010'
p734
sg19
g14
sg21
S'--'
p735
sg23
S'09/12'
p736
sg25
S'--'
p737
sg27
S'--'
p738
sg29
S'--'
p739
sg31
S'W13-7'
p740
sg33
S'--'
p741
sg35
S'--'
p742
sg37
S'DAL'
p743
sg39
S'--'
p744
sg41
S'--'
p745
sg43
S'--'
p746
ssg171
(dp747
g5
S'--'
p748
sg7
S'--'
p749
sg9
g10
sg11
S'--'
p750
sg13
g14
sg15
S'Logan Paulsen'
p751
sg17
S'2010'
p752
sg19
g171
sg21
S'--'
p753
sg23
S'09/26'
p754
sg25
S'--'
p755
sg27
S'--'
p756
sg29
S'--'
p757
sg31
S'L16-30'
p758
sg33
S'--'
p759
sg35
S'--'
p760
sg37
S'@STL'
p761
sg39
S'--'
p762
sg41
S'--'
p763
sg43
S'--'
p764
ssg169
(dp765
g5
S'--'
p766
sg7
S'--'
p767
sg9
g10
sg11
S'--'
p768
sg13
g10
sg15
S'Logan Paulsen'
p769
sg17
S'2010'
p770
sg19
g169
sg21
S'--'
p771
sg23
S'09/19'
p772
sg25
S'--'
p773
sg27
S'--'
p774
sg29
S'--'
p775
sg31
S'L27-30'
p776
sg33
S'--'
p777
sg35
S'--'
p778
sg37
S'HOU'
p779
sg39
S'--'
p780
sg41
S'--'
p781
sg43
S'--'
p782
ssg207
(dp783
g5
S'--'
p784
sg7
S'--'
p785
sg9
g10
sg11
S'--'
p786
sg13
g10
sg15
S'Logan Paulsen'
p787
sg17
S'2010'
p788
sg19
g207
sg21
S'--'
p789
sg23
S'10/10'
p790
sg25
S'--'
p791
sg27
S'--'
p792
sg29
S'--'
p793
sg31
S'W16-13'
p794
sg33
S'--'
p795
sg35
S'--'
p796
sg37
S'GB'
p797
sg39
S'--'
p798
sg41
S'--'
p799
sg43
S'--'
p800
ssg187
(dp801
g5
S'--'
p802
sg7
S'--'
p803
sg9
g10
sg11
S'--'
p804
sg13
g10
sg15
S'Logan Paulsen'
p805
sg17
S'2010'
p806
sg19
g187
sg21
S'--'
p807
sg23
S'10/03'
p808
sg25
S'--'
p809
sg27
S'--'
p810
sg29
S'--'
p811
sg31
S'W17-12'
p812
sg33
S'--'
p813
sg35
S'--'
p814
sg37
S'@PHI'
p815
sg39
S'--'
p816
sg41
S'--'
p817
sg43
S'--'
p818
ssg185
(dp819
g5
S'--'
p820
sg7
S'--'
p821
sg9
g10
sg11
S'--'
p822
sg13
g14
sg15
S'Logan Paulsen'
p823
sg17
S'2010'
p824
sg19
g185
sg21
S'--'
p825
sg23
S'10/24'
p826
sg25
S'--'
p827
sg27
S'--'
p828
sg29
S'--'
p829
sg31
S'W17-14'
p830
sg33
S'--'
p831
sg35
S'--'
p832
sg37
S'@CHI'
p833
sg39
S'--'
p834
sg41
S'--'
p835
sg43
S'--'
p836
ssg154
(dp837
g5
S'--'
p838
sg7
S'--'
p839
sg9
g10
sg11
S'--'
p840
sg13
g10
sg15
S'Logan Paulsen'
p841
sg17
S'2010'
p842
sg19
g154
sg21
S'--'
p843
sg23
S'10/17'
p844
sg25
S'--'
p845
sg27
S'--'
p846
sg29
S'--'
p847
sg31
S'L24-27'
p848
sg33
S'--'
p849
sg35
S'--'
p850
sg37
S'IND'
p851
sg39
S'--'
p852
sg41
S'--'
p853
sg43
S'--'
p854
ssg100
(dp855
g5
g47
sg7
g47
sg9
g47
sg11
g47
sg13
g47
sg15
S'Logan Paulsen'
p856
sg17
S'2010'
p857
sg19
g100
sg21
g47
sg23
S'Bye'
p858
sg25
g47
sg27
g47
sg29
g47
sg31
g47
sg33
g47
sg35
g47
sg37
g47
sg39
g47
sg41
g47
sg43
g47
ssg288
(dp859
g5
S'--'
p860
sg7
S'--'
p861
sg9
g10
sg11
S'--'
p862
sg13
g14
sg15
S'Logan Paulsen'
p863
sg17
S'2010'
p864
sg19
g288
sg21
S'--'
p865
sg23
S'10/31'
p866
sg25
S'--'
p867
sg27
S'--'
p868
sg29
S'--'
p869
sg31
S'L25-37'
p870
sg33
S'--'
p871
sg35
S'--'
p872
sg37
S'@DET'
p873
sg39
S'--'
p874
sg41
S'--'
p875
sg43
S'--'
p876
sssS'2013'
p877
(dp878
g3
(dp879
g5
S'--'
p880
sg7
S'--'
p881
sg9
g10
sg11
S'--'
p882
sg13
g14
sg15
S'Logan Paulsen'
p883
sg17
S'2013'
p884
sg19
S'11'
p885
sg21
S'--'
p886
sg23
S'11/17'
p887
sg25
S'--'
p888
sg27
S'--'
p889
sg29
S'--'
p890
sg31
S'L16-24'
p891
sg33
g10
sg35
g10
sg37
S'@PHI'
p892
sg39
S'--'
p893
sg41
g10
sg43
S'--'
p894
ssg45
(dp895
g5
S'--'
p896
sg7
S'--'
p897
sg9
g14
sg11
S'--'
p898
sg13
g14
sg15
S'Logan Paulsen'
p899
sg17
S'2013'
p900
sg19
S'10'
p901
sg21
S'--'
p902
sg23
S'11/07'
p903
sg25
S'1.5'
p904
sg27
S'--'
p905
sg29
S'--'
p906
sg31
S'L27-34'
p907
sg33
g171
sg35
g169
sg37
S'@MIN'
p908
sg39
g169
sg41
g14
sg43
S'--'
p909
ssg52
(dp910
g5
S'--'
p911
sg7
S'--'
p912
sg9
g14
sg11
S'--'
p913
sg13
g14
sg15
S'Logan Paulsen'
p914
sg17
S'2013'
p915
sg19
S'13'
p916
sg21
S'--'
p917
sg23
S'12/01'
p918
sg25
S'13.7'
p919
sg27
S'--'
p920
sg29
S'--'
p921
sg31
S'L17-24'
p922
sg33
S'41'
p923
sg35
g171
sg37
S'NYG'
p924
sg39
S'19T'
p925
sg41
g14
sg43
S'--'
p926
ssg70
(dp927
g5
S'--'
p928
sg7
S'--'
p929
sg9
g14
sg11
S'--'
p930
sg13
g14
sg15
S'Logan Paulsen'
p931
sg17
S'2013'
p932
sg19
S'12'
p933
sg21
S'--'
p934
sg23
S'11/25'
p935
sg25
S'--'
p936
sg27
S'--'
p937
sg29
S'--'
p938
sg31
S'L6-27'
p939
sg33
g10
sg35
g10
sg37
S'SF'
p940
sg39
S'--'
p941
sg41
g10
sg43
S'--'
p942
ssg86
(dp943
g5
S'--'
p944
sg7
S'--'
p945
sg9
g14
sg11
S'--'
p946
sg13
g14
sg15
S'Logan Paulsen'
p947
sg17
S'2013'
p948
sg19
S'15'
p949
sg21
S'--'
p950
sg23
S'12/15'
p951
sg25
S'7.0'
p952
sg27
S'--'
p953
sg29
S'--'
p954
sg31
S'L26-27'
p955
sg33
S'21'
p956
sg35
g171
sg37
S'@ATL'
p957
sg39
S'11'
p958
sg41
g10
sg43
S'--'
p959
ssg103
(dp960
g5
S'--'
p961
sg7
S'--'
p962
sg9
g14
sg11
g14
sg13
g14
sg15
S'Logan Paulsen'
p963
sg17
S'2013'
p964
sg19
S'14'
p965
sg21
S'--'
p966
sg23
S'12/08'
p967
sg25
S'14.7'
p968
sg27
g14
sg29
S'--'
p969
sg31
S'L10-45'
p970
sg33
S'44'
p971
sg35
g171
sg37
S'KC'
p972
sg39
S'27'
p973
sg41
g14
sg43
S'--'
p974
ssg123
(dp975
g5
S'--'
p976
sg7
S'--'
p977
sg9
g14
sg11
S'--'
p978
sg13
g14
sg15
S'Logan Paulsen'
p979
sg17
S'2013'
p980
sg19
S'17'
p981
sg21
S'--'
p982
sg23
S'12/29'
p983
sg25
S'8.0'
p984
sg27
S'--'
p985
sg29
S'--'
p986
sg31
S'L6-20'
p987
sg33
S'32'
p988
sg35
g187
sg37
S'@NYG'
p989
sg39
S'13'
p990
sg41
g10
sg43
S'--'
p991
ssg140
(dp992
g5
S'--'
p993
sg7
S'--'
p994
sg9
g14
sg11
S'--'
p995
sg13
g14
sg15
S'Logan Paulsen'
p996
sg17
S'2013'
p997
sg19
S'16'
p998
sg21
S'--'
p999
sg23
S'12/22'
p1000
sg25
S'3.5'
p1001
sg27
S'--'
p1002
sg29
S'--'
p1003
sg31
S'L23-24'
p1004
sg33
g185
sg35
g169
sg37
S'DAL'
p1005
sg39
g207
sg41
g10
sg43
S'--'
p1006
ssg14
(dp1007
g5
S'--'
p1008
sg7
S'--'
p1009
sg9
g14
sg11
S'--'
p1010
sg13
g14
sg15
S'Logan Paulsen'
p1011
sg17
S'2013'
p1012
sg19
g14
sg21
S'--'
p1013
sg23
S'09/09'
p1014
sg25
S'--'
p1015
sg27
S'--'
p1016
sg29
S'--'
p1017
sg31
S'L27-33'
p1018
sg33
S'--'
p1019
sg35
S'--'
p1020
sg37
S'PHI'
p1021
sg39
S'--'
p1022
sg41
S'--'
p1023
sg43
S'--'
p1024
ssg171
(dp1025
g5
S'--'
p1026
sg7
S'--'
p1027
sg9
g14
sg11
S'--'
p1028
sg13
g14
sg15
S'Logan Paulsen'
p1029
sg17
S'2013'
p1030
sg19
g171
sg21
S'--'
p1031
sg23
S'09/22'
p1032
sg25
S'12.8'
p1033
sg27
S'--'
p1034
sg29
S'--'
p1035
sg31
S'L20-27'
p1036
sg33
S'51'
p1037
sg35
g187
sg37
S'DET'
p1038
sg39
S'19'
p1039
sg41
g10
sg43
S'--'
p1040
ssg169
(dp1041
g5
S'--'
p1042
sg7
S'--'
p1043
sg9
g10
sg11
S'--'
p1044
sg13
g14
sg15
S'Logan Paulsen'
p1045
sg17
S'2013'
p1046
sg19
g169
sg21
S'--'
p1047
sg23
S'09/15'
p1048
sg25
S'6.5'
p1049
sg27
S'--'
p1050
sg29
S'--'
p1051
sg31
S'L20-38'
p1052
sg33
S'13'
p1053
sg35
g169
sg37
S'@GB'
p1054
sg39
g185
sg41
g10
sg43
S'--'
p1055
ssg207
(dp1056
g5
g47
sg7
g47
sg9
g47
sg11
g47
sg13
g47
sg15
S'Logan Paulsen'
p1057
sg17
S'2013'
p1058
sg19
g207
sg21
g47
sg23
S'Bye'
p1059
sg25
g47
sg27
g47
sg29
g47
sg31
g47
sg33
g47
sg35
g47
sg37
g47
sg39
g47
sg41
g47
sg43
g47
ssg187
(dp1060
g5
S'--'
p1061
sg7
S'--'
p1062
sg9
g14
sg11
g14
sg13
g14
sg15
S'Logan Paulsen'
p1063
sg17
S'2013'
p1064
sg19
g187
sg21
S'--'
p1065
sg23
S'09/29'
p1066
sg25
S'23.0'
p1067
sg27
g14
sg29
S'--'
p1068
sg31
S'W24-14'
p1069
sg33
S'46'
p1070
sg35
g169
sg37
S'@OAK'
p1071
sg39
S'33'
p1072
sg41
g10
sg43
S'--'
p1073
ssg185
(dp1074
g5
S'--'
p1075
sg7
S'--'
p1076
sg9
g14
sg11
S'--'
p1077
sg13
g14
sg15
S'Logan Paulsen'
p1078
sg17
S'2013'
p1079
sg19
g185
sg21
S'--'
p1080
sg23
S'10/20'
p1081
sg25
S'--'
p1082
sg27
S'--'
p1083
sg29
S'--'
p1084
sg31
S'W45-41'
p1085
sg33
g10
sg35
g10
sg37
S'CHI'
p1086
sg39
S'--'
p1087
sg41
g10
sg43
S'--'
p1088
ssg154
(dp1089
g5
S'--'
p1090
sg7
S'--'
p1091
sg9
g14
sg11
S'--'
p1092
sg13
g14
sg15
S'Logan Paulsen'
p1093
sg17
S'2013'
p1094
sg19
g154
sg21
S'--'
p1095
sg23
S'10/13'
p1096
sg25
S'--'
p1097
sg27
S'--'
p1098
sg29
S'--'
p1099
sg31
S'L16-31'
p1100
sg33
S'--'
p1101
sg35
S'--'
p1102
sg37
S'@DAL'
p1103
sg39
S'--'
p1104
sg41
S'--'
p1105
sg43
S'--'
p1106
ssg100
(dp1107
g5
S'--'
p1108
sg7
S'--'
p1109
sg9
g14
sg11
S'--'
p1110
sg13
g14
sg15
S'Logan Paulsen'
p1111
sg17
S'2013'
p1112
sg19
g100
sg21
S'--'
p1113
sg23
S'11/03'
p1114
sg25
S'3.0'
p1115
sg27
S'--'
p1116
sg29
S'--'
p1117
sg31
S'W30-24'
p1118
sg33
g100
sg35
g171
sg37
S'SD'
p1119
sg39
g185
sg41
g10
sg43
S'--'
p1120
ssg288
(dp1121
g5
S'--'
p1122
sg7
S'--'
p1123
sg9
g14
sg11
S'--'
p1124
sg13
g14
sg15
S'Logan Paulsen'
p1125
sg17
S'2013'
p1126
sg19
g288
sg21
S'--'
p1127
sg23
S'10/27'
p1128
sg25
S'--'
p1129
sg27
S'--'
p1130
sg29
S'--'
p1131
sg31
S'L21-45'
p1132
sg33
g10
sg35
g10
sg37
S'@DEN'
p1133
sg39
S'--'
p1134
sg41
g10
sg43
S'--'
p1135
sssS'2012'
p1136
(dp1137
g3
(dp1138
g5
S'--'
p1139
sg7
S'--'
p1140
sg9
g14
sg11
S'--'
p1141
sg13
g14
sg15
S'Logan Paulsen'
p1142
sg17
S'2012'
p1143
sg19
S'11'
p1144
sg21
S'--'
p1145
sg23
S'11/18'
p1146
sg25
S'17.0'
p1147
sg27
S'--'
p1148
sg29
S'--'
p1149
sg31
S'W31-6'
p1150
sg33
S'17'
p1151
sg35
g14
sg37
S'PHI'
p1152
sg39
S'17T'
p1153
sg41
g14
sg43
S'--'
p1154
ssg45
(dp1155
g5
g47
sg7
g47
sg9
g47
sg11
g47
sg13
g47
sg15
S'Logan Paulsen'
p1156
sg17
S'2012'
p1157
sg19
S'10'
p1158
sg21
g47
sg23
S'Bye'
p1159
sg25
g47
sg27
g47
sg29
g47
sg31
g47
sg33
g47
sg35
g47
sg37
g47
sg39
g47
sg41
g47
sg43
g47
ssg52
(dp1160
g5
S'--'
p1161
sg7
S'--'
p1162
sg9
g14
sg11
S'--'
p1163
sg13
g14
sg15
S'Logan Paulsen'
p1164
sg17
S'2012'
p1165
sg19
S'13'
p1166
sg21
S'--'
p1167
sg23
S'12/03'
p1168
sg25
S'11.0'
p1169
sg27
S'--'
p1170
sg29
S'--'
p1171
sg31
S'W17-16'
p1172
sg33
S'11'
p1173
sg35
g14
sg37
S'NYG'
p1174
sg39
S'11'
p1175
sg41
g10
sg43
S'--'
p1176
ssg70
(dp1177
g5
S'--'
p1178
sg7
S'--'
p1179
sg9
g14
sg11
S'--'
p1180
sg13
g14
sg15
S'Logan Paulsen'
p1181
sg17
S'2012'
p1182
sg19
S'12'
p1183
sg21
S'--'
p1184
sg23
S'11/22'
p1185
sg25
S'5.5'
p1186
sg27
S'--'
p1187
sg29
S'--'
p1188
sg31
S'W38-31'
p1189
sg33
S'11'
p1190
sg35
g169
sg37
S'@DAL'
p1191
sg39
g288
sg41
g10
sg43
S'--'
p1192
ssg86
(dp1193
g5
S'--'
p1194
sg7
S'--'
p1195
sg9
g14
sg11
S'--'
p1196
sg13
g14
sg15
S'Logan Paulsen'
p1197
sg17
S'2012'
p1198
sg19
S'15'
p1199
sg21
S'--'
p1200
sg23
S'12/16'
p1201
sg25
S'11.8'
p1202
sg27
S'--'
p1203
sg29
S'--'
p1204
sg31
S'W38-21'
p1205
sg33
S'47'
p1206
sg35
g187
sg37
S'@CLE'
p1207
sg39
S'19'
p1208
sg41
g10
sg43
S'--'
p1209
ssg103
(dp1210
g5
S'--'
p1211
sg7
S'--'
p1212
sg9
g14
sg11
S'--'
p1213
sg13
g14
sg15
S'Logan Paulsen'
p1214
sg17
S'2012'
p1215
sg19
S'14'
p1216
sg21
S'--'
p1217
sg23
S'12/09'
p1218
sg25
S'8.0'
p1219
sg27
S'--'
p1220
sg29
S'--'
p1221
sg31
S'W31-28'
p1222
sg33
g288
sg35
g14
sg37
S'BAL'
p1223
sg39
g288
sg41
g10
sg43
S'--'
p1224
ssg123
(dp1225
g5
S'--'
p1226
sg7
S'--'
p1227
sg9
g14
sg11
S'--'
p1228
sg13
g14
sg15
S'Logan Paulsen'
p1229
sg17
S'2012'
p1230
sg19
S'17'
p1231
sg21
S'--'
p1232
sg23
S'12/30'
p1233
sg25
S'8.0'
p1234
sg27
S'--'
p1235
sg29
S'--'
p1236
sg31
S'W28-18'
p1237
sg33
g288
sg35
g14
sg37
S'DAL'
p1238
sg39
g288
sg41
g10
sg43
S'--'
p1239
ssg140
(dp1240
g5
S'--'
p1241
sg7
S'--'
p1242
sg9
g14
sg11
S'--'
p1243
sg13
g14
sg15
S'Logan Paulsen'
p1244
sg17
S'2012'
p1245
sg19
S'16'
p1246
sg21
S'--'
p1247
sg23
S'12/23'
p1248
sg25
S'6.0'
p1249
sg27
S'--'
p1250
sg29
S'--'
p1251
sg31
S'W27-20'
p1252
sg33
g154
sg35
g14
sg37
S'@PHI'
p1253
sg39
g154
sg41
g10
sg43
S'--'
p1254
ssg14
(dp1255
g5
S'--'
p1256
sg7
S'--'
p1257
sg9
g10
sg11
S'--'
p1258
sg13
g14
sg15
S'Logan Paulsen'
p1259
sg17
S'2012'
p1260
sg19
g14
sg21
S'--'
p1261
sg23
S'09/09'
p1262
sg25
S'22.0'
p1263
sg27
S'--'
p1264
sg29
S'--'
p1265
sg31
S'W40-32'
p1266
sg33
S'22'
p1267
sg35
g14
sg37
S'@NO'
p1268
sg39
S'22'
p1269
sg41
g10
sg43
S'--'
p1270
ssg171
(dp1271
g5
S'--'
p1272
sg7
S'--'
p1273
sg9
g10
sg11
S'--'
p1274
sg13
g14
sg15
S'Logan Paulsen'
p1275
sg17
S'2012'
p1276
sg19
g171
sg21
S'--'
p1277
sg23
S'09/23'
p1278
sg25
S'--'
p1279
sg27
S'--'
p1280
sg29
S'--'
p1281
sg31
S'L31-38'
p1282
sg33
g10
sg35
g10
sg37
S'CIN'
p1283
sg39
S'--'
p1284
sg41
g10
sg43
S'--'
p1285
ssg169
(dp1286
g5
S'--'
p1287
sg7
S'--'
p1288
sg9
g10
sg11
S'--'
p1289
sg13
g14
sg15
S'Logan Paulsen'
p1290
sg17
S'2012'
p1291
sg19
g169
sg21
S'--'
p1292
sg23
S'09/16'
p1293
sg25
S'--'
p1294
sg27
S'--'
p1295
sg29
S'--'
p1296
sg31
S'L28-31'
p1297
sg33
S'--'
p1298
sg35
S'--'
p1299
sg37
S'@STL'
p1300
sg39
S'--'
p1301
sg41
S'--'
p1302
sg43
S'--'
p1303
ssg207
(dp1304
g5
S'--'
p1305
sg7
S'--'
p1306
sg9
g10
sg11
S'--'
p1307
sg13
g14
sg15
S'Logan Paulsen'
p1308
sg17
S'2012'
p1309
sg19
g207
sg21
S'--'
p1310
sg23
S'10/07'
p1311
sg25
S'--'
p1312
sg27
S'--'
p1313
sg29
S'--'
p1314
sg31
S'L17-24'
p1315
sg33
g10
sg35
g10
sg37
S'ATL'
p1316
sg39
S'--'
p1317
sg41
g10
sg43
S'--'
p1318
ssg187
(dp1319
g5
S'--'
p1320
sg7
S'--'
p1321
sg9
g10
sg11
S'--'
p1322
sg13
g14
sg15
S'Logan Paulsen'
p1323
sg17
S'2012'
p1324
sg19
g187
sg21
S'--'
p1325
sg23
S'09/30'
p1326
sg25
S'--'
p1327
sg27
S'--'
p1328
sg29
S'--'
p1329
sg31
S'W24-22'
p1330
sg33
S'--'
p1331
sg35
S'--'
p1332
sg37
S'@TB'
p1333
sg39
S'--'
p1334
sg41
S'--'
p1335
sg43
S'--'
p1336
ssg185
(dp1337
g5
S'--'
p1338
sg7
S'--'
p1339
sg9
g14
sg11
S'--'
p1340
sg13
g14
sg15
S'Logan Paulsen'
p1341
sg17
S'2012'
p1342
sg19
g185
sg21
S'--'
p1343
sg23
S'10/21'
p1344
sg25
S'19.0'
p1345
sg27
S'--'
p1346
sg29
S'--'
p1347
sg31
S'L23-27'
p1348
sg33
S'76'
p1349
sg35
g187
sg37
S'@NYG'
p1350
sg39
S'23'
p1351
sg41
g10
sg43
S'--'
p1352
ssg154
(dp1353
g5
S'--'
p1354
sg7
S'--'
p1355
sg9
g10
sg11
S'--'
p1356
sg13
g14
sg15
S'Logan Paulsen'
p1357
sg17
S'2012'
p1358
sg19
g154
sg21
S'--'
p1359
sg23
S'10/14'
p1360
sg25
S'--'
p1361
sg27
S'--'
p1362
sg29
S'--'
p1363
sg31
S'W38-26'
p1364
sg33
S'--'
p1365
sg35
S'--'
p1366
sg37
S'MIN'
p1367
sg39
S'--'
p1368
sg41
S'--'
p1369
sg43
S'--'
p1370
ssg100
(dp1371
g5
S'--'
p1372
sg7
S'--'
p1373
sg9
g14
sg11
S'--'
p1374
sg13
g14
sg15
S'Logan Paulsen'
p1375
sg17
S'2012'
p1376
sg19
g100
sg21
S'--'
p1377
sg23
S'11/04'
p1378
sg25
S'11.8'
p1379
sg27
S'--'
p1380
sg29
S'--'
p1381
sg31
S'L13-21'
p1382
sg33
S'59'
p1383
sg35
g207
sg37
S'CAR'
p1384
sg39
S'19'
p1385
sg41
g10
sg43
S'--'
p1386
ssg288
(dp1387
g5
S'--'
p1388
sg7
S'--'
p1389
sg9
g14
sg11
S'--'
p1390
sg13
g14
sg15
S'Logan Paulsen'
p1391
sg17
S'2012'
p1392
sg19
g288
sg21
S'--'
p1393
sg23
S'10/28'
p1394
sg25
S'10.8'
p1395
sg27
S'--'
p1396
sg29
S'--'
p1397
sg31
S'L12-27'
p1398
sg33
S'43'
p1399
sg35
g187
sg37
S'@PIT'
p1400
sg39
S'31'
p1401
sg41
g10
sg43
S'--'
p1402
sss.