(dp0
S'2015'
p1
(dp2
S'11'
p3
(dp4
S'RushTD'
p5
S'--'
p6
sS'RushYds'
p7
S'--'
p8
sS'GS'
p9
S'1'
p10
sS'Lost'
p11
S'--'
p12
sS'G'
p13
g10
sS'Player'
p14
S'Luke Stocker'
p15
sS'Year'
p16
S'2015'
p17
sS'WK'
p18
S'11'
p19
sS'RushAvg'
p20
S'--'
p21
sS'Game Date'
p22
S'11/22'
p23
sS'RecAvg'
p24
S'--'
p25
sS'FUM'
p26
S'--'
p27
sS'RushAtt'
p28
S'--'
p29
sS'Result'
p30
S'W45-17'
p31
sS'RecYds'
p32
S'--'
p33
sS'Rec'
p34
S'--'
p35
sS'Opp'
p36
S'@PHI'
p37
sS'RecLng'
p38
S'--'
p39
sS'RecTD'
p40
S'--'
p41
sS'RushLng'
p42
S'--'
p43
ssS'10'
p44
(dp45
g5
S'--'
p46
sg7
S'--'
p47
sg9
g10
sg11
S'--'
p48
sg13
g10
sg14
S'Luke Stocker'
p49
sg16
S'2015'
p50
sg18
S'10'
p51
sg20
S'--'
p52
sg22
S'11/15'
p53
sg24
S'--'
p54
sg26
S'--'
p55
sg28
S'--'
p56
sg30
S'W10-6'
p57
sg32
S'0'
p58
sg34
g58
sg36
S'DAL'
p59
sg38
S'--'
p60
sg40
g58
sg42
S'--'
p61
ssS'13'
p62
(dp63
g5
S'--'
p64
sg7
S'--'
p65
sg9
g10
sg11
S'--'
p66
sg13
g10
sg14
S'Luke Stocker'
p67
sg16
S'2015'
p68
sg18
S'13'
p69
sg20
S'--'
p70
sg22
S'12/06'
p71
sg24
S'4.0'
p72
sg26
S'--'
p73
sg28
S'--'
p74
sg30
S'W23-19'
p75
sg32
S'4'
p76
sg34
g10
sg36
S'ATL'
p77
sg38
g76
sg40
g58
sg42
S'--'
p78
ssS'12'
p79
(dp80
g5
S'--'
p81
sg7
S'--'
p82
sg9
g10
sg11
S'--'
p83
sg13
g10
sg14
S'Luke Stocker'
p84
sg16
S'2015'
p85
sg18
S'12'
p86
sg20
S'--'
p87
sg22
S'11/29'
p88
sg24
S'--'
p89
sg26
S'--'
p90
sg28
S'--'
p91
sg30
S'L12-25'
p92
sg32
g58
sg34
g58
sg36
S'@IND'
p93
sg38
S'--'
p94
sg40
g58
sg42
S'--'
p95
ssS'15'
p96
(dp97
g5
S'--'
p98
sg7
S'--'
p99
sg9
g10
sg11
S'--'
p100
sg13
g10
sg14
S'Luke Stocker'
p101
sg16
S'2015'
p102
sg18
S'15'
p103
sg20
S'--'
p104
sg22
S'12/17'
p105
sg24
S'8.3'
p106
sg26
S'--'
p107
sg28
S'--'
p108
sg30
S'L23-31'
p109
sg32
S'25'
p110
sg34
S'3'
p111
sg36
S'@STL'
p112
sg38
S'14'
p113
sg40
g10
sg42
S'--'
p114
ssS'14'
p115
(dp116
g5
S'--'
p117
sg7
S'--'
p118
sg9
g10
sg11
S'--'
p119
sg13
g10
sg14
S'Luke Stocker'
p120
sg16
S'2015'
p121
sg18
S'14'
p122
sg20
S'--'
p123
sg22
S'12/13'
p124
sg24
S'--'
p125
sg26
S'--'
p126
sg28
S'--'
p127
sg30
S'L17-24'
p128
sg32
S'--'
p129
sg34
S'--'
p130
sg36
S'NO'
p131
sg38
S'--'
p132
sg40
S'--'
p133
sg42
S'--'
p134
ssS'17'
p135
(dp136
g5
S'--'
p137
sg7
S'--'
p138
sg9
g10
sg11
S'--'
p139
sg13
g10
sg14
S'Luke Stocker'
p140
sg16
S'2015'
p141
sg18
S'17'
p142
sg20
S'--'
p143
sg22
S'01/03'
p144
sg24
S'3.0'
p145
sg26
S'--'
p146
sg28
S'--'
p147
sg30
S'L10-38'
p148
sg32
g111
sg34
g10
sg36
S'@CAR'
p149
sg38
g111
sg40
g58
sg42
S'--'
p150
ssS'16'
p151
(dp152
g5
S'--'
p153
sg7
S'--'
p154
sg9
g10
sg11
S'--'
p155
sg13
g10
sg14
S'Luke Stocker'
p156
sg16
S'2015'
p157
sg18
S'16'
p158
sg20
S'--'
p159
sg22
S'12/27'
p160
sg24
S'7.0'
p161
sg26
S'--'
p162
sg28
S'--'
p163
sg30
S'L21-26'
p164
sg32
S'7'
p165
sg34
g10
sg36
S'CHI'
p166
sg38
g165
sg40
g58
sg42
S'--'
p167
ssg10
(dp168
g5
S'--'
p169
sg7
S'--'
p170
sg9
g10
sg11
S'--'
p171
sg13
g10
sg14
S'Luke Stocker'
p172
sg16
S'2015'
p173
sg18
g10
sg20
S'--'
p174
sg22
S'09/13'
p175
sg24
S'--'
p176
sg26
S'--'
p177
sg28
S'--'
p178
sg30
S'L14-42'
p179
sg32
S'--'
p180
sg34
S'--'
p181
sg36
S'TEN'
p182
sg38
S'--'
p183
sg40
S'--'
p184
sg42
S'--'
p185
ssg111
(dp186
g5
S'--'
p187
sg7
S'--'
p188
sg9
g58
sg11
S'--'
p189
sg13
g10
sg14
S'Luke Stocker'
p190
sg16
S'2015'
p191
sg18
g111
sg20
S'--'
p192
sg22
S'09/27'
p193
sg24
S'--'
p194
sg26
S'--'
p195
sg28
S'--'
p196
sg30
S'L9-19'
p197
sg32
S'--'
p198
sg34
S'--'
p199
sg36
S'@HOU'
p200
sg38
S'--'
p201
sg40
S'--'
p202
sg42
S'--'
p203
ssS'2'
p204
(dp205
g5
S'--'
p206
sg7
S'--'
p207
sg9
g10
sg11
S'--'
p208
sg13
g10
sg14
S'Luke Stocker'
p209
sg16
S'2015'
p210
sg18
g204
sg20
S'--'
p211
sg22
S'09/20'
p212
sg24
S'--'
p213
sg26
S'--'
p214
sg28
S'--'
p215
sg30
S'W26-19'
p216
sg32
S'--'
p217
sg34
S'--'
p218
sg36
S'@NO'
p219
sg38
S'--'
p220
sg40
S'--'
p221
sg42
S'--'
p222
ssS'5'
p223
(dp224
g5
S'--'
p225
sg7
S'--'
p226
sg9
g58
sg11
S'--'
p227
sg13
g58
sg14
S'Luke Stocker'
p228
sg16
S'2015'
p229
sg18
g223
sg20
S'--'
p230
sg22
S'10/11'
p231
sg24
S'--'
p232
sg26
S'--'
p233
sg28
S'--'
p234
sg30
S'W38-31'
p235
sg32
S'--'
p236
sg34
S'--'
p237
sg36
S'JAC'
p238
sg38
S'--'
p239
sg40
S'--'
p240
sg42
S'--'
p241
ssg76
(dp242
g5
S'--'
p243
sg7
S'--'
p244
sg9
g58
sg11
S'--'
p245
sg13
g58
sg14
S'Luke Stocker'
p246
sg16
S'2015'
p247
sg18
g76
sg20
S'--'
p248
sg22
S'10/04'
p249
sg24
S'--'
p250
sg26
S'--'
p251
sg28
S'--'
p252
sg30
S'L23-37'
p253
sg32
S'--'
p254
sg34
S'--'
p255
sg36
S'CAR'
p256
sg38
S'--'
p257
sg40
S'--'
p258
sg42
S'--'
p259
ssg165
(dp260
g5
S'--'
p261
sg7
S'--'
p262
sg9
g10
sg11
S'--'
p263
sg13
g10
sg14
S'Luke Stocker'
p264
sg16
S'2015'
p265
sg18
g165
sg20
S'--'
p266
sg22
S'10/25'
p267
sg24
S'7.3'
p268
sg26
S'--'
p269
sg28
S'--'
p270
sg30
S'L30-31'
p271
sg32
S'22'
p272
sg34
g111
sg36
S'@WAS'
p273
sg38
S'11'
p274
sg40
g58
sg42
S'--'
p275
ssS'6'
p276
(dp277
g5
S''
p278
sg7
g278
sg9
g278
sg11
g278
sg13
g278
sg14
S'Luke Stocker'
p279
sg16
S'2015'
p280
sg18
g276
sg20
g278
sg22
S'Bye'
p281
sg24
g278
sg26
g278
sg28
g278
sg30
g278
sg32
g278
sg34
g278
sg36
g278
sg38
g278
sg40
g278
sg42
g278
ssS'9'
p282
(dp283
g5
S'--'
p284
sg7
S'--'
p285
sg9
g10
sg11
S'--'
p286
sg13
g10
sg14
S'Luke Stocker'
p287
sg16
S'2015'
p288
sg18
g282
sg20
S'--'
p289
sg22
S'11/08'
p290
sg24
S'--'
p291
sg26
S'--'
p292
sg28
S'--'
p293
sg30
S'L18-32'
p294
sg32
S'--'
p295
sg34
S'--'
p296
sg36
S'NYG'
p297
sg38
S'--'
p298
sg40
S'--'
p299
sg42
S'--'
p300
ssS'8'
p301
(dp302
g5
S'--'
p303
sg7
S'--'
p304
sg9
g10
sg11
S'--'
p305
sg13
g10
sg14
S'Luke Stocker'
p306
sg16
S'2015'
p307
sg18
g301
sg20
S'--'
p308
sg22
S'11/01'
p309
sg24
S'--'
p310
sg26
S'--'
p311
sg28
S'--'
p312
sg30
S'W23-20'
p313
sg32
g58
sg34
g58
sg36
S'@ATL'
p314
sg38
S'--'
p315
sg40
g58
sg42
S'--'
p316
sssS'2014'
p317
(dp318
g3
(dp319
g5
S'--'
p320
sg7
S'--'
p321
sg9
g58
sg11
S'--'
p322
sg13
g58
sg14
S'Luke Stocker'
p323
sg16
S'2014'
p324
sg18
S'11'
p325
sg20
S'--'
p326
sg22
S'11/16'
p327
sg24
S'--'
p328
sg26
S'--'
p329
sg28
S'--'
p330
sg30
S'W27-7'
p331
sg32
S'--'
p332
sg34
S'--'
p333
sg36
S'@WAS'
p334
sg38
S'--'
p335
sg40
S'--'
p336
sg42
S'--'
p337
ssg44
(dp338
g5
S'--'
p339
sg7
S'--'
p340
sg9
g58
sg11
S'--'
p341
sg13
g58
sg14
S'Luke Stocker'
p342
sg16
S'2014'
p343
sg18
S'10'
p344
sg20
S'--'
p345
sg22
S'11/09'
p346
sg24
S'--'
p347
sg26
S'--'
p348
sg28
S'--'
p349
sg30
S'L17-27'
p350
sg32
S'--'
p351
sg34
S'--'
p352
sg36
S'ATL'
p353
sg38
S'--'
p354
sg40
S'--'
p355
sg42
S'--'
p356
ssg62
(dp357
g5
S'--'
p358
sg7
S'--'
p359
sg9
g58
sg11
S'--'
p360
sg13
g58
sg14
S'Luke Stocker'
p361
sg16
S'2014'
p362
sg18
S'13'
p363
sg20
S'--'
p364
sg22
S'11/30'
p365
sg24
S'--'
p366
sg26
S'--'
p367
sg28
S'--'
p368
sg30
S'L13-14'
p369
sg32
S'--'
p370
sg34
S'--'
p371
sg36
S'CIN'
p372
sg38
S'--'
p373
sg40
S'--'
p374
sg42
S'--'
p375
ssg79
(dp376
g5
S'--'
p377
sg7
S'--'
p378
sg9
g58
sg11
S'--'
p379
sg13
g10
sg14
S'Luke Stocker'
p380
sg16
S'2014'
p381
sg18
S'12'
p382
sg20
S'--'
p383
sg22
S'11/23'
p384
sg24
S'6.0'
p385
sg26
S'--'
p386
sg28
S'--'
p387
sg30
S'L13-21'
p388
sg32
g276
sg34
g10
sg36
S'@CHI'
p389
sg38
g276
sg40
g58
sg42
S'--'
p390
ssg96
(dp391
g5
S'--'
p392
sg7
S'--'
p393
sg9
g10
sg11
S'--'
p394
sg13
g10
sg14
S'Luke Stocker'
p395
sg16
S'2014'
p396
sg18
S'15'
p397
sg20
S'--'
p398
sg22
S'12/14'
p399
sg24
S'--'
p400
sg26
S'--'
p401
sg28
S'--'
p402
sg30
S'L17-19'
p403
sg32
S'--'
p404
sg34
S'--'
p405
sg36
S'@CAR'
p406
sg38
S'--'
p407
sg40
S'--'
p408
sg42
S'--'
p409
ssg115
(dp410
g5
S'--'
p411
sg7
S'--'
p412
sg9
g10
sg11
S'--'
p413
sg13
g10
sg14
S'Luke Stocker'
p414
sg16
S'2014'
p415
sg18
S'14'
p416
sg20
S'--'
p417
sg22
S'12/07'
p418
sg24
S'4.0'
p419
sg26
S'--'
p420
sg28
S'--'
p421
sg30
S'L17-34'
p422
sg32
g76
sg34
g10
sg36
S'@DET'
p423
sg38
g76
sg40
g58
sg42
S'--'
p424
ssg135
(dp425
g5
S'--'
p426
sg7
S'--'
p427
sg9
g10
sg11
S'--'
p428
sg13
g10
sg14
S'Luke Stocker'
p429
sg16
S'2014'
p430
sg18
S'17'
p431
sg20
S'--'
p432
sg22
S'12/28'
p433
sg24
S'--'
p434
sg26
S'--'
p435
sg28
S'--'
p436
sg30
S'L20-23'
p437
sg32
S'--'
p438
sg34
S'--'
p439
sg36
S'NO'
p440
sg38
S'--'
p441
sg40
S'--'
p442
sg42
S'--'
p443
ssg151
(dp444
g5
S'--'
p445
sg7
S'--'
p446
sg9
g10
sg11
S'--'
p447
sg13
g10
sg14
S'Luke Stocker'
p448
sg16
S'2014'
p449
sg18
S'16'
p450
sg20
S'--'
p451
sg22
S'12/21'
p452
sg24
S'4.0'
p453
sg26
S'--'
p454
sg28
S'--'
p455
sg30
S'L3-20'
p456
sg32
g301
sg34
g204
sg36
S'GB'
p457
sg38
g76
sg40
g58
sg42
S'--'
p458
ssg10
(dp459
g5
S'--'
p460
sg7
S'--'
p461
sg9
g58
sg11
S'--'
p462
sg13
g10
sg14
S'Luke Stocker'
p463
sg16
S'2014'
p464
sg18
g10
sg20
S'--'
p465
sg22
S'09/07'
p466
sg24
S'8.0'
p467
sg26
S'--'
p468
sg28
S'--'
p469
sg30
S'L14-20'
p470
sg32
g301
sg34
g10
sg36
S'CAR'
p471
sg38
g301
sg40
g58
sg42
S'--'
p472
ssg111
(dp473
g5
S'--'
p474
sg7
S'--'
p475
sg9
g10
sg11
S'--'
p476
sg13
g10
sg14
S'Luke Stocker'
p477
sg16
S'2014'
p478
sg18
g111
sg20
S'--'
p479
sg22
S'09/18'
p480
sg24
S'7.5'
p481
sg26
S'--'
p482
sg28
S'--'
p483
sg30
S'L14-56'
p484
sg32
S'15'
p485
sg34
g204
sg36
S'@ATL'
p486
sg38
S'11'
p487
sg40
g58
sg42
S'--'
p488
ssg204
(dp489
g5
S'--'
p490
sg7
S'--'
p491
sg9
g10
sg11
S'--'
p492
sg13
g10
sg14
S'Luke Stocker'
p493
sg16
S'2014'
p494
sg18
g204
sg20
S'--'
p495
sg22
S'09/14'
p496
sg24
S'--'
p497
sg26
S'--'
p498
sg28
S'--'
p499
sg30
S'L17-19'
p500
sg32
S'--'
p501
sg34
S'--'
p502
sg36
S'STL'
p503
sg38
S'--'
p504
sg40
S'--'
p505
sg42
S'--'
p506
ssg223
(dp507
g5
S'--'
p508
sg7
S'--'
p509
sg9
g58
sg11
S'--'
p510
sg13
g10
sg14
S'Luke Stocker'
p511
sg16
S'2014'
p512
sg18
g223
sg20
S'--'
p513
sg22
S'10/05'
p514
sg24
S'--'
p515
sg26
S'--'
p516
sg28
S'--'
p517
sg30
S'L31-37'
p518
sg32
S'--'
p519
sg34
S'--'
p520
sg36
S'@NO'
p521
sg38
S'--'
p522
sg40
S'--'
p523
sg42
S'--'
p524
ssg76
(dp525
g5
S'--'
p526
sg7
S'--'
p527
sg9
g58
sg11
S'--'
p528
sg13
g10
sg14
S'Luke Stocker'
p529
sg16
S'2014'
p530
sg18
g76
sg20
S'--'
p531
sg22
S'09/28'
p532
sg24
S'--'
p533
sg26
S'--'
p534
sg28
S'--'
p535
sg30
S'W27-24'
p536
sg32
S'--'
p537
sg34
S'--'
p538
sg36
S'@PIT'
p539
sg38
S'--'
p540
sg40
S'--'
p541
sg42
S'--'
p542
ssg165
(dp543
g5
g278
sg7
g278
sg9
g278
sg11
g278
sg13
g278
sg14
S'Luke Stocker'
p544
sg16
S'2014'
p545
sg18
g165
sg20
g278
sg22
S'Bye'
p546
sg24
g278
sg26
g278
sg28
g278
sg30
g278
sg32
g278
sg34
g278
sg36
g278
sg38
g278
sg40
g278
sg42
g278
ssg276
(dp547
g5
S'--'
p548
sg7
S'--'
p549
sg9
g58
sg11
S'--'
p550
sg13
g10
sg14
S'Luke Stocker'
p551
sg16
S'2014'
p552
sg18
g276
sg20
S'--'
p553
sg22
S'10/12'
p554
sg24
S'--'
p555
sg26
S'--'
p556
sg28
S'--'
p557
sg30
S'L17-48'
p558
sg32
S'--'
p559
sg34
S'--'
p560
sg36
S'BAL'
p561
sg38
S'--'
p562
sg40
S'--'
p563
sg42
S'--'
p564
ssg282
(dp565
g5
S'--'
p566
sg7
S'--'
p567
sg9
g58
sg11
S'--'
p568
sg13
g10
sg14
S'Luke Stocker'
p569
sg16
S'2014'
p570
sg18
g282
sg20
S'--'
p571
sg22
S'11/02'
p572
sg24
S'--'
p573
sg26
S'--'
p574
sg28
S'--'
p575
sg30
S'L17-22'
p576
sg32
S'--'
p577
sg34
S'--'
p578
sg36
S'@CLE'
p579
sg38
S'--'
p580
sg40
S'--'
p581
sg42
S'--'
p582
ssg301
(dp583
g5
S'--'
p584
sg7
S'--'
p585
sg9
g10
sg11
S'--'
p586
sg13
g10
sg14
S'Luke Stocker'
p587
sg16
S'2014'
p588
sg18
g301
sg20
S'--'
p589
sg22
S'10/26'
p590
sg24
S'--'
p591
sg26
S'--'
p592
sg28
S'--'
p593
sg30
S'L13-19'
p594
sg32
S'--'
p595
sg34
S'--'
p596
sg36
S'MIN'
p597
sg38
S'--'
p598
sg40
S'--'
p599
sg42
S'--'
p600
sssS'2011'
p601
(dp602
g3
(dp603
g5
S'--'
p604
sg7
S'--'
p605
sg9
g58
sg11
S'--'
p606
sg13
g10
sg14
S'Luke Stocker'
p607
sg16
S'2011'
p608
sg18
S'11'
p609
sg20
S'--'
p610
sg22
S'11/20'
p611
sg24
S'1.0'
p612
sg26
S'--'
p613
sg28
S'--'
p614
sg30
S'L26-35'
p615
sg32
g10
sg34
g10
sg36
S'@GB'
p616
sg38
g10
sg40
g58
sg42
S'--'
p617
ssg44
(dp618
g5
S'--'
p619
sg7
S'--'
p620
sg9
g10
sg11
S'--'
p621
sg13
g10
sg14
S'Luke Stocker'
p622
sg16
S'2011'
p623
sg18
S'10'
p624
sg20
S'--'
p625
sg22
S'11/13'
p626
sg24
S'--'
p627
sg26
S'--'
p628
sg28
S'--'
p629
sg30
S'L9-37'
p630
sg32
S'--'
p631
sg34
S'--'
p632
sg36
S'HOU'
p633
sg38
S'--'
p634
sg40
S'--'
p635
sg42
S'--'
p636
ssg62
(dp637
g5
S'--'
p638
sg7
S'--'
p639
sg9
g58
sg11
S'--'
p640
sg13
g10
sg14
S'Luke Stocker'
p641
sg16
S'2011'
p642
sg18
S'13'
p643
sg20
S'--'
p644
sg22
S'12/04'
p645
sg24
S'--'
p646
sg26
S'--'
p647
sg28
S'--'
p648
sg30
S'L19-38'
p649
sg32
S'--'
p650
sg34
S'--'
p651
sg36
S'CAR'
p652
sg38
S'--'
p653
sg40
S'--'
p654
sg42
S'--'
p655
ssg79
(dp656
g5
S'--'
p657
sg7
S'--'
p658
sg9
g58
sg11
S'--'
p659
sg13
g10
sg14
S'Luke Stocker'
p660
sg16
S'2011'
p661
sg18
S'12'
p662
sg20
S'--'
p663
sg22
S'11/27'
p664
sg24
S'--'
p665
sg26
S'--'
p666
sg28
S'--'
p667
sg30
S'L17-23'
p668
sg32
S'--'
p669
sg34
S'--'
p670
sg36
S'@TEN'
p671
sg38
S'--'
p672
sg40
S'--'
p673
sg42
S'--'
p674
ssg96
(dp675
g5
S'--'
p676
sg7
S'--'
p677
sg9
g10
sg11
S'--'
p678
sg13
g10
sg14
S'Luke Stocker'
p679
sg16
S'2011'
p680
sg18
S'15'
p681
sg20
S'--'
p682
sg22
S'12/17'
p683
sg24
S'4.0'
p684
sg26
S'--'
p685
sg28
S'--'
p686
sg30
S'L15-31'
p687
sg32
g76
sg34
g10
sg36
S'DAL'
p688
sg38
g76
sg40
g58
sg42
S'--'
p689
ssg115
(dp690
g5
S'--'
p691
sg7
S'--'
p692
sg9
g10
sg11
S'--'
p693
sg13
g10
sg14
S'Luke Stocker'
p694
sg16
S'2011'
p695
sg18
S'14'
p696
sg20
S'--'
p697
sg22
S'12/11'
p698
sg24
S'--'
p699
sg26
S'--'
p700
sg28
S'--'
p701
sg30
S'L14-41'
p702
sg32
g58
sg34
g58
sg36
S'@JAC'
p703
sg38
S'--'
p704
sg40
g58
sg42
S'--'
p705
ssg135
(dp706
g5
S'--'
p707
sg7
S'--'
p708
sg9
g58
sg11
S'--'
p709
sg13
g10
sg14
S'Luke Stocker'
p710
sg16
S'2011'
p711
sg18
S'17'
p712
sg20
S'--'
p713
sg22
S'01/01'
p714
sg24
S'--'
p715
sg26
S'--'
p716
sg28
S'--'
p717
sg30
S'L24-45'
p718
sg32
S'--'
p719
sg34
S'--'
p720
sg36
S'@ATL'
p721
sg38
S'--'
p722
sg40
S'--'
p723
sg42
S'--'
p724
ssg151
(dp725
g5
S'--'
p726
sg7
S'--'
p727
sg9
g10
sg11
S'--'
p728
sg13
g10
sg14
S'Luke Stocker'
p729
sg16
S'2011'
p730
sg18
S'16'
p731
sg20
S'--'
p732
sg22
S'12/24'
p733
sg24
S'4.7'
p734
sg26
S'--'
p735
sg28
S'--'
p736
sg30
S'L16-48'
p737
sg32
S'14'
p738
sg34
g111
sg36
S'@CAR'
p739
sg38
g282
sg40
g58
sg42
S'--'
p740
ssg10
(dp741
g5
S'--'
p742
sg7
S'--'
p743
sg9
g10
sg11
S'--'
p744
sg13
g10
sg14
S'Luke Stocker'
p745
sg16
S'2011'
p746
sg18
g10
sg20
S'--'
p747
sg22
S'09/11'
p748
sg24
S'--'
p749
sg26
S'--'
p750
sg28
S'--'
p751
sg30
S'L20-27'
p752
sg32
g58
sg34
g58
sg36
S'DET'
p753
sg38
S'--'
p754
sg40
g58
sg42
S'--'
p755
ssg111
(dp756
g5
S'--'
p757
sg7
S'--'
p758
sg9
g10
sg11
S'--'
p759
sg13
g10
sg14
S'Luke Stocker'
p760
sg16
S'2011'
p761
sg18
g111
sg20
S'--'
p762
sg22
S'09/25'
p763
sg24
S'16.5'
p764
sg26
S'--'
p765
sg28
S'--'
p766
sg30
S'W16-13'
p767
sg32
S'33'
p768
sg34
g204
sg36
S'ATL'
p769
sg38
S'24'
p770
sg40
g58
sg42
S'--'
p771
ssg204
(dp772
g5
S'--'
p773
sg7
S'--'
p774
sg9
g10
sg11
S'--'
p775
sg13
g10
sg14
S'Luke Stocker'
p776
sg16
S'2011'
p777
sg18
g204
sg20
S'--'
p778
sg22
S'09/18'
p779
sg24
S'17.0'
p780
sg26
S'--'
p781
sg28
S'--'
p782
sg30
S'W24-20'
p783
sg32
S'17'
p784
sg34
g10
sg36
S'@MIN'
p785
sg38
S'17'
p786
sg40
g58
sg42
S'--'
p787
ssg223
(dp788
g5
S'--'
p789
sg7
S'--'
p790
sg9
g58
sg11
S'--'
p791
sg13
g58
sg14
S'Luke Stocker'
p792
sg16
S'2011'
p793
sg18
g223
sg20
S'--'
p794
sg22
S'10/09'
p795
sg24
S'--'
p796
sg26
S'--'
p797
sg28
S'--'
p798
sg30
S'L3-48'
p799
sg32
S'--'
p800
sg34
S'--'
p801
sg36
S'@SF'
p802
sg38
S'--'
p803
sg40
S'--'
p804
sg42
S'--'
p805
ssg76
(dp806
g5
S'--'
p807
sg7
S'--'
p808
sg9
g10
sg11
S'--'
p809
sg13
g10
sg14
S'Luke Stocker'
p810
sg16
S'2011'
p811
sg18
g76
sg20
S'--'
p812
sg22
S'10/03'
p813
sg24
S'4.5'
p814
sg26
S'--'
p815
sg28
S'--'
p816
sg30
S'W24-17'
p817
sg32
g282
sg34
g204
sg36
S'IND'
p818
sg38
g223
sg40
g58
sg42
S'--'
p819
ssg165
(dp820
g5
S'--'
p821
sg7
S'--'
p822
sg9
g58
sg11
S'--'
p823
sg13
g10
sg14
S'Luke Stocker'
p824
sg16
S'2011'
p825
sg18
g165
sg20
S'--'
p826
sg22
S'10/23'
p827
sg24
S'7.0'
p828
sg26
S'--'
p829
sg28
S'--'
p830
sg30
S'L18-24'
p831
sg32
S'14'
p832
sg34
g204
sg36
S'CHI'
p833
sg38
S'10'
p834
sg40
g58
sg42
S'--'
p835
ssg276
(dp836
g5
S'--'
p837
sg7
S'--'
p838
sg9
g58
sg11
S'--'
p839
sg13
g58
sg14
S'Luke Stocker'
p840
sg16
S'2011'
p841
sg18
g276
sg20
S'--'
p842
sg22
S'10/16'
p843
sg24
S'--'
p844
sg26
S'--'
p845
sg28
S'--'
p846
sg30
S'W26-20'
p847
sg32
S'--'
p848
sg34
S'--'
p849
sg36
S'NO'
p850
sg38
S'--'
p851
sg40
S'--'
p852
sg42
S'--'
p853
ssg282
(dp854
g5
S'--'
p855
sg7
S'--'
p856
sg9
g10
sg11
S'--'
p857
sg13
g10
sg14
S'Luke Stocker'
p858
sg16
S'2011'
p859
sg18
g282
sg20
S'--'
p860
sg22
S'11/06'
p861
sg24
S'--'
p862
sg26
S'--'
p863
sg28
S'--'
p864
sg30
S'L16-27'
p865
sg32
S'--'
p866
sg34
S'--'
p867
sg36
S'@NO'
p868
sg38
S'--'
p869
sg40
S'--'
p870
sg42
S'--'
p871
ssg301
(dp872
g5
g278
sg7
g278
sg9
g278
sg11
g278
sg13
g278
sg14
S'Luke Stocker'
p873
sg16
S'2011'
p874
sg18
g301
sg20
g278
sg22
S'Bye'
p875
sg24
g278
sg26
g278
sg28
g278
sg30
g278
sg32
g278
sg34
g278
sg36
g278
sg38
g278
sg40
g278
sg42
g278
sssS'2013'
p876
(dp877
g10
(dp878
g5
S'--'
p879
sg7
S'--'
p880
sg9
g10
sg11
S'--'
p881
sg13
g10
sg14
S'Luke Stocker'
p882
sg16
S'2013'
p883
sg18
g10
sg20
S'--'
p884
sg22
S'09/08'
p885
sg24
S'--'
p886
sg26
S'--'
p887
sg28
S'--'
p888
sg30
S'L17-18'
p889
sg32
S'--'
p890
sg34
S'--'
p891
sg36
S'@NYJ'
p892
sg38
S'--'
p893
sg40
S'--'
p894
sg42
S'--'
p895
ssg111
(dp896
g5
S'--'
p897
sg7
S'--'
p898
sg9
g58
sg11
S'--'
p899
sg13
g58
sg14
S'Luke Stocker'
p900
sg16
S'2013'
p901
sg18
g111
sg20
S'--'
p902
sg22
S'09/22'
p903
sg24
S'--'
p904
sg26
S'--'
p905
sg28
S'--'
p906
sg30
S'L3-23'
p907
sg32
S'--'
p908
sg34
S'--'
p909
sg36
S'@NE'
p910
sg38
S'--'
p911
sg40
S'--'
p912
sg42
S'--'
p913
ssg204
(dp914
g5
S'--'
p915
sg7
S'--'
p916
sg9
g10
sg11
S'--'
p917
sg13
g10
sg14
S'Luke Stocker'
p918
sg16
S'2013'
p919
sg18
g204
sg20
S'--'
p920
sg22
S'09/15'
p921
sg24
S'--'
p922
sg26
S'--'
p923
sg28
S'--'
p924
sg30
S'L14-16'
p925
sg32
S'--'
p926
sg34
S'--'
p927
sg36
S'NO'
p928
sg38
S'--'
p929
sg40
S'--'
p930
sg42
S'--'
p931
sssS'2012'
p932
(dp933
g3
(dp934
g5
S'--'
p935
sg7
S'--'
p936
sg9
g10
sg11
S'--'
p937
sg13
g10
sg14
S'Luke Stocker'
p938
sg16
S'2012'
p939
sg18
S'11'
p940
sg20
S'--'
p941
sg22
S'11/18'
p942
sg24
S'--'
p943
sg26
S'--'
p944
sg28
S'--'
p945
sg30
S'W27-21'
p946
sg32
g58
sg34
g58
sg36
S'@CAR'
p947
sg38
S'--'
p948
sg40
g58
sg42
S'--'
p949
ssg44
(dp950
g5
S'--'
p951
sg7
S'--'
p952
sg9
g58
sg11
S'--'
p953
sg13
g10
sg14
S'Luke Stocker'
p954
sg16
S'2012'
p955
sg18
S'10'
p956
sg20
S'--'
p957
sg22
S'11/11'
p958
sg24
S'11.0'
p959
sg26
S'--'
p960
sg28
S'--'
p961
sg30
S'W34-24'
p962
sg32
S'11'
p963
sg34
g10
sg36
S'SD'
p964
sg38
S'11'
p965
sg40
g58
sg42
S'--'
p966
ssg62
(dp967
g5
S'--'
p968
sg7
S'--'
p969
sg9
g10
sg11
S'--'
p970
sg13
g10
sg14
S'Luke Stocker'
p971
sg16
S'2012'
p972
sg18
S'13'
p973
sg20
S'--'
p974
sg22
S'12/02'
p975
sg24
S'9.5'
p976
sg26
S'--'
p977
sg28
S'--'
p978
sg30
S'L23-31'
p979
sg32
S'19'
p980
sg34
g204
sg36
S'@DEN'
p981
sg38
S'11'
p982
sg40
g58
sg42
S'--'
p983
ssg79
(dp984
g5
S'--'
p985
sg7
S'--'
p986
sg9
g10
sg11
S'--'
p987
sg13
g10
sg14
S'Luke Stocker'
p988
sg16
S'2012'
p989
sg18
S'12'
p990
sg20
S'--'
p991
sg22
S'11/25'
p992
sg24
S'5.0'
p993
sg26
S'--'
p994
sg28
S'--'
p995
sg30
S'L23-24'
p996
sg32
g223
sg34
g10
sg36
S'ATL'
p997
sg38
g223
sg40
g58
sg42
S'--'
p998
ssg96
(dp999
g5
S'--'
p1000
sg7
S'--'
p1001
sg9
g10
sg11
S'--'
p1002
sg13
g10
sg14
S'Luke Stocker'
p1003
sg16
S'2012'
p1004
sg18
S'15'
p1005
sg20
S'--'
p1006
sg22
S'12/16'
p1007
sg24
S'7.7'
p1008
sg26
S'--'
p1009
sg28
S'--'
p1010
sg30
S'L0-41'
p1011
sg32
S'23'
p1012
sg34
g111
sg36
S'@NO'
p1013
sg38
S'15'
p1014
sg40
g58
sg42
S'--'
p1015
ssg115
(dp1016
g5
S'--'
p1017
sg7
S'--'
p1018
sg9
g10
sg11
S'--'
p1019
sg13
g10
sg14
S'Luke Stocker'
p1020
sg16
S'2012'
p1021
sg18
S'14'
p1022
sg20
S'--'
p1023
sg22
S'12/09'
p1024
sg24
S'--'
p1025
sg26
S'--'
p1026
sg28
S'--'
p1027
sg30
S'L21-23'
p1028
sg32
g58
sg34
g58
sg36
S'PHI'
p1029
sg38
S'--'
p1030
sg40
g58
sg42
S'--'
p1031
ssg135
(dp1032
g5
S'--'
p1033
sg7
S'--'
p1034
sg9
g10
sg11
S'--'
p1035
sg13
g10
sg14
S'Luke Stocker'
p1036
sg16
S'2012'
p1037
sg18
S'17'
p1038
sg20
S'--'
p1039
sg22
S'12/30'
p1040
sg24
S'16.7'
p1041
sg26
S'--'
p1042
sg28
S'--'
p1043
sg30
S'W22-17'
p1044
sg32
S'50'
p1045
sg34
g111
sg36
S'@ATL'
p1046
sg38
S'26'
p1047
sg40
g58
sg42
S'--'
p1048
ssg151
(dp1049
g5
S'--'
p1050
sg7
S'--'
p1051
sg9
g10
sg11
S'--'
p1052
sg13
g10
sg14
S'Luke Stocker'
p1053
sg16
S'2012'
p1054
sg18
S'16'
p1055
sg20
S'--'
p1056
sg22
S'12/23'
p1057
sg24
S'8.0'
p1058
sg26
S'--'
p1059
sg28
S'--'
p1060
sg30
S'L13-28'
p1061
sg32
S'16'
p1062
sg34
g204
sg36
S'STL'
p1063
sg38
S'10'
p1064
sg40
g58
sg42
S'--'
p1065
ssg10
(dp1066
g5
S'--'
p1067
sg7
S'--'
p1068
sg9
g10
sg11
S'--'
p1069
sg13
g10
sg14
S'Luke Stocker'
p1070
sg16
S'2012'
p1071
sg18
g10
sg20
S'--'
p1072
sg22
S'09/09'
p1073
sg24
S'--'
p1074
sg26
S'--'
p1075
sg28
S'--'
p1076
sg30
S'W16-10'
p1077
sg32
S'--'
p1078
sg34
S'--'
p1079
sg36
S'CAR'
p1080
sg38
S'--'
p1081
sg40
S'--'
p1082
sg42
S'--'
p1083
ssg111
(dp1084
g5
S'--'
p1085
sg7
S'--'
p1086
sg9
g58
sg11
S'--'
p1087
sg13
g10
sg14
S'Luke Stocker'
p1088
sg16
S'2012'
p1089
sg18
g111
sg20
S'--'
p1090
sg22
S'09/23'
p1091
sg24
S'1.0'
p1092
sg26
S'--'
p1093
sg28
S'--'
p1094
sg30
S'L10-16'
p1095
sg32
g10
sg34
g10
sg36
S'@DAL'
p1096
sg38
S'1T'
p1097
sg40
g10
sg42
S'--'
p1098
ssg204
(dp1099
g5
S'--'
p1100
sg7
S'--'
p1101
sg9
g10
sg11
S'--'
p1102
sg13
g10
sg14
S'Luke Stocker'
p1103
sg16
S'2012'
p1104
sg18
g204
sg20
S'--'
p1105
sg22
S'09/16'
p1106
sg24
S'--'
p1107
sg26
S'--'
p1108
sg28
S'--'
p1109
sg30
S'L34-41'
p1110
sg32
S'--'
p1111
sg34
S'--'
p1112
sg36
S'@NYG'
p1113
sg38
S'--'
p1114
sg40
S'--'
p1115
sg42
S'--'
p1116
ssg223
(dp1117
g5
g278
sg7
g278
sg9
g278
sg11
g278
sg13
g278
sg14
S'Luke Stocker'
p1118
sg16
S'2012'
p1119
sg18
g223
sg20
g278
sg22
S'Bye'
p1120
sg24
g278
sg26
g278
sg28
g278
sg30
g278
sg32
g278
sg34
g278
sg36
g278
sg38
g278
sg40
g278
sg42
g278
ssg76
(dp1121
g5
S'--'
p1122
sg7
S'--'
p1123
sg9
g10
sg11
S'--'
p1124
sg13
g10
sg14
S'Luke Stocker'
p1125
sg16
S'2012'
p1126
sg18
g76
sg20
S'--'
p1127
sg22
S'09/30'
p1128
sg24
S'5.0'
p1129
sg26
S'--'
p1130
sg28
S'--'
p1131
sg30
S'L22-24'
p1132
sg32
g223
sg34
g10
sg36
S'WAS'
p1133
sg38
g223
sg40
g58
sg42
S'--'
p1134
ssg165
(dp1135
g5
S'--'
p1136
sg7
S'--'
p1137
sg9
g58
sg11
S'--'
p1138
sg13
g10
sg14
S'Luke Stocker'
p1139
sg16
S'2012'
p1140
sg18
g165
sg20
S'--'
p1141
sg22
S'10/21'
p1142
sg24
S'33.0'
p1143
sg26
S'--'
p1144
sg28
S'--'
p1145
sg30
S'L28-35'
p1146
sg32
S'33'
p1147
sg34
g10
sg36
S'NO'
p1148
sg38
S'33'
p1149
sg40
g58
sg42
S'--'
p1150
ssg276
(dp1151
g5
S'--'
p1152
sg7
S'--'
p1153
sg9
g58
sg11
S'--'
p1154
sg13
g10
sg14
S'Luke Stocker'
p1155
sg16
S'2012'
p1156
sg18
g276
sg20
S'--'
p1157
sg22
S'10/14'
p1158
sg24
S'--'
p1159
sg26
S'--'
p1160
sg28
S'--'
p1161
sg30
S'W38-10'
p1162
sg32
S'--'
p1163
sg34
S'--'
p1164
sg36
S'KC'
p1165
sg38
S'--'
p1166
sg40
S'--'
p1167
sg42
S'--'
p1168
ssg282
(dp1169
g5
S'--'
p1170
sg7
S'--'
p1171
sg9
g58
sg11
S'--'
p1172
sg13
g10
sg14
S'Luke Stocker'
p1173
sg16
S'2012'
p1174
sg18
g282
sg20
S'--'
p1175
sg22
S'11/04'
p1176
sg24
S'2.0'
p1177
sg26
S'--'
p1178
sg28
S'--'
p1179
sg30
S'W42-32'
p1180
sg32
g204
sg34
g10
sg36
S'@OAK'
p1181
sg38
g204
sg40
g58
sg42
S'--'
p1182
ssg301
(dp1183
g5
S'--'
p1184
sg7
S'--'
p1185
sg9
g10
sg11
S'--'
p1186
sg13
g10
sg14
S'Luke Stocker'
p1187
sg16
S'2012'
p1188
sg18
g301
sg20
S'--'
p1189
sg22
S'10/25'
p1190
sg24
S'--'
p1191
sg26
S'--'
p1192
sg28
S'--'
p1193
sg30
S'W36-17'
p1194
sg32
S'--'
p1195
sg34
S'--'
p1196
sg36
S'@MIN'
p1197
sg38
S'--'
p1198
sg40
S'--'
p1199
sg42
S'--'
p1200
sss.