(dp0
S'2015'
p1
(dp2
S'11'
p3
(dp4
S'RushTD'
p5
S''
p6
sS'RushYds'
p7
g6
sS'GS'
p8
g6
sS'Lost'
p9
g6
sS'G'
p10
g6
sS'Player'
p11
S'Matt Spaeth'
p12
sS'Year'
p13
S'2015'
p14
sS'WK'
p15
S'11'
p16
sS'RushAvg'
p17
g6
sS'Game Date'
p18
S'Bye'
p19
sS'RecAvg'
p20
g6
sS'FUM'
p21
g6
sS'RushAtt'
p22
g6
sS'Result'
p23
g6
sS'RecYds'
p24
g6
sS'Rec'
p25
g6
sS'Opp'
p26
g6
sS'RecLng'
p27
g6
sS'RecTD'
p28
g6
sS'RushLng'
p29
g6
ssS'10'
p30
(dp31
g5
S'--'
p32
sg7
S'--'
p33
sg8
S'0'
p34
sg9
S'--'
p35
sg10
g34
sg11
S'Matt Spaeth'
p36
sg13
S'2015'
p37
sg15
S'10'
p38
sg17
S'--'
p39
sg18
S'11/15'
p40
sg20
S'--'
p41
sg21
S'--'
p42
sg22
S'--'
p43
sg23
S'W30-9'
p44
sg24
S'--'
p45
sg25
S'--'
p46
sg26
S'CLE'
p47
sg27
S'--'
p48
sg28
S'--'
p49
sg29
S'--'
p50
ssS'13'
p51
(dp52
g5
S'--'
p53
sg7
S'--'
p54
sg8
S'1'
p55
sg9
S'--'
p56
sg10
g55
sg11
S'Matt Spaeth'
p57
sg13
S'2015'
p58
sg15
S'13'
p59
sg17
S'--'
p60
sg18
S'12/06'
p61
sg20
S'--'
p62
sg21
S'--'
p63
sg22
S'--'
p64
sg23
S'W45-10'
p65
sg24
S'--'
p66
sg25
S'--'
p67
sg26
S'IND'
p68
sg27
S'--'
p69
sg28
S'--'
p70
sg29
S'--'
p71
ssS'12'
p72
(dp73
g5
S'--'
p74
sg7
S'--'
p75
sg8
g55
sg9
S'--'
p76
sg10
g55
sg11
S'Matt Spaeth'
p77
sg13
S'2015'
p78
sg15
S'12'
p79
sg17
S'--'
p80
sg18
S'11/29'
p81
sg20
S'6.0'
p82
sg21
S'--'
p83
sg22
S'--'
p84
sg23
S'L30-39'
p85
sg24
S'6'
p86
sg25
g55
sg26
S'@SEA'
p87
sg27
g86
sg28
g34
sg29
S'--'
p88
ssS'15'
p89
(dp90
g5
S'--'
p91
sg7
S'--'
p92
sg8
g55
sg9
S'--'
p93
sg10
g55
sg11
S'Matt Spaeth'
p94
sg13
S'2015'
p95
sg15
S'15'
p96
sg17
S'--'
p97
sg18
S'12/20'
p98
sg20
S'--'
p99
sg21
S'--'
p100
sg22
S'--'
p101
sg23
S'W34-27'
p102
sg24
S'--'
p103
sg25
S'--'
p104
sg26
S'DEN'
p105
sg27
S'--'
p106
sg28
S'--'
p107
sg29
S'--'
p108
ssS'14'
p109
(dp110
g5
S'--'
p111
sg7
S'--'
p112
sg8
g34
sg9
S'--'
p113
sg10
g55
sg11
S'Matt Spaeth'
p114
sg13
S'2015'
p115
sg15
S'14'
p116
sg17
S'--'
p117
sg18
S'12/13'
p118
sg20
S'--'
p119
sg21
S'--'
p120
sg22
S'--'
p121
sg23
S'W33-20'
p122
sg24
S'--'
p123
sg25
S'--'
p124
sg26
S'@CIN'
p125
sg27
S'--'
p126
sg28
S'--'
p127
sg29
S'--'
p128
ssS'17'
p129
(dp130
g5
S'--'
p131
sg7
S'--'
p132
sg8
g34
sg9
S'--'
p133
sg10
g55
sg11
S'Matt Spaeth'
p134
sg13
S'2015'
p135
sg15
S'17'
p136
sg17
S'--'
p137
sg18
S'01/03'
p138
sg20
S'--'
p139
sg21
S'--'
p140
sg22
S'--'
p141
sg23
S'W28-12'
p142
sg24
S'--'
p143
sg25
S'--'
p144
sg26
S'@CLE'
p145
sg27
S'--'
p146
sg28
S'--'
p147
sg29
S'--'
p148
ssS'16'
p149
(dp150
g5
S'--'
p151
sg7
S'--'
p152
sg8
g34
sg9
S'--'
p153
sg10
g55
sg11
S'Matt Spaeth'
p154
sg13
S'2015'
p155
sg15
S'16'
p156
sg17
S'--'
p157
sg18
S'12/27'
p158
sg20
S'--'
p159
sg21
S'--'
p160
sg22
S'--'
p161
sg23
S'L17-20'
p162
sg24
S'--'
p163
sg25
S'--'
p164
sg26
S'@BAL'
p165
sg27
S'--'
p166
sg28
S'--'
p167
sg29
S'--'
p168
ssg55
(dp169
g5
S'--'
p170
sg7
S'--'
p171
sg8
g55
sg9
S'--'
p172
sg10
g55
sg11
S'Matt Spaeth'
p173
sg13
S'2015'
p174
sg15
g55
sg17
S'--'
p175
sg18
S'09/10'
p176
sg20
S'--'
p177
sg21
S'--'
p178
sg22
S'--'
p179
sg23
S'L21-28'
p180
sg24
S'--'
p181
sg25
S'--'
p182
sg26
S'@NE'
p183
sg27
S'--'
p184
sg28
S'--'
p185
sg29
S'--'
p186
ssS'3'
p187
(dp188
g5
S'--'
p189
sg7
S'--'
p190
sg8
g34
sg9
S'--'
p191
sg10
g55
sg11
S'Matt Spaeth'
p192
sg13
S'2015'
p193
sg15
g187
sg17
S'--'
p194
sg18
S'09/27'
p195
sg20
S'--'
p196
sg21
S'--'
p197
sg22
S'--'
p198
sg23
S'W12-6'
p199
sg24
S'--'
p200
sg25
S'--'
p201
sg26
S'@STL'
p202
sg27
S'--'
p203
sg28
S'--'
p204
sg29
S'--'
p205
ssS'2'
p206
(dp207
g5
S'--'
p208
sg7
S'--'
p209
sg8
g55
sg9
S'--'
p210
sg10
g55
sg11
S'Matt Spaeth'
p211
sg13
S'2015'
p212
sg15
g206
sg17
S'--'
p213
sg18
S'09/20'
p214
sg20
S'--'
p215
sg21
S'--'
p216
sg22
S'--'
p217
sg23
S'W43-18'
p218
sg24
S'--'
p219
sg25
S'--'
p220
sg26
S'SF'
p221
sg27
S'--'
p222
sg28
S'--'
p223
sg29
S'--'
p224
ssS'5'
p225
(dp226
g5
S'--'
p227
sg7
S'--'
p228
sg8
g55
sg9
S'--'
p229
sg10
g55
sg11
S'Matt Spaeth'
p230
sg13
S'2015'
p231
sg15
g225
sg17
S'--'
p232
sg18
S'10/12'
p233
sg20
S'--'
p234
sg21
S'--'
p235
sg22
S'--'
p236
sg23
S'W24-20'
p237
sg24
g34
sg25
g34
sg26
S'@SD'
p238
sg27
S'--'
p239
sg28
g34
sg29
S'--'
p240
ssS'4'
p241
(dp242
g5
S'--'
p243
sg7
S'--'
p244
sg8
g34
sg9
S'--'
p245
sg10
g34
sg11
S'Matt Spaeth'
p246
sg13
S'2015'
p247
sg15
g241
sg17
S'--'
p248
sg18
S'10/01'
p249
sg20
S'--'
p250
sg21
S'--'
p251
sg22
S'--'
p252
sg23
S'L20-23'
p253
sg24
S'--'
p254
sg25
S'--'
p255
sg26
S'BAL'
p256
sg27
S'--'
p257
sg28
S'--'
p258
sg29
S'--'
p259
ssS'7'
p260
(dp261
g5
S'--'
p262
sg7
S'--'
p263
sg8
g34
sg9
S'--'
p264
sg10
g55
sg11
S'Matt Spaeth'
p265
sg13
S'2015'
p266
sg15
g260
sg17
S'--'
p267
sg18
S'10/25'
p268
sg20
S'--'
p269
sg21
S'--'
p270
sg22
S'--'
p271
sg23
S'L13-23'
p272
sg24
S'--'
p273
sg25
S'--'
p274
sg26
S'@KC'
p275
sg27
S'--'
p276
sg28
S'--'
p277
sg29
S'--'
p278
ssg86
(dp279
g5
S'--'
p280
sg7
S'--'
p281
sg8
g34
sg9
S'--'
p282
sg10
g55
sg11
S'Matt Spaeth'
p283
sg13
S'2015'
p284
sg15
g86
sg17
S'--'
p285
sg18
S'10/18'
p286
sg20
S'--'
p287
sg21
S'--'
p288
sg22
S'--'
p289
sg23
S'W25-13'
p290
sg24
S'--'
p291
sg25
S'--'
p292
sg26
S'ARI'
p293
sg27
S'--'
p294
sg28
S'--'
p295
sg29
S'--'
p296
ssS'9'
p297
(dp298
g5
S'--'
p299
sg7
S'--'
p300
sg8
g34
sg9
S'--'
p301
sg10
g34
sg11
S'Matt Spaeth'
p302
sg13
S'2015'
p303
sg15
g297
sg17
S'--'
p304
sg18
S'11/08'
p305
sg20
S'--'
p306
sg21
S'--'
p307
sg22
S'--'
p308
sg23
S'W38-35'
p309
sg24
S'--'
p310
sg25
S'--'
p311
sg26
S'OAK'
p312
sg27
S'--'
p313
sg28
S'--'
p314
sg29
S'--'
p315
ssS'8'
p316
(dp317
g5
S'--'
p318
sg7
S'--'
p319
sg8
g55
sg9
S'--'
p320
sg10
g55
sg11
S'Matt Spaeth'
p321
sg13
S'2015'
p322
sg15
g316
sg17
S'--'
p323
sg18
S'11/01'
p324
sg20
S'4.0'
p325
sg21
S'--'
p326
sg22
S'--'
p327
sg23
S'L10-16'
p328
sg24
g241
sg25
g55
sg26
S'CIN'
p329
sg27
g241
sg28
g34
sg29
S'--'
p330
sssS'2014'
p331
(dp332
g3
(dp333
g5
S'--'
p334
sg7
S'--'
p335
sg8
g55
sg9
S'--'
p336
sg10
g55
sg11
S'Matt Spaeth'
p337
sg13
S'2014'
p338
sg15
S'11'
p339
sg17
S'--'
p340
sg18
S'11/17'
p341
sg20
S'--'
p342
sg21
S'--'
p343
sg22
S'--'
p344
sg23
S'W27-24'
p345
sg24
S'--'
p346
sg25
S'--'
p347
sg26
S'@TEN'
p348
sg27
S'--'
p349
sg28
S'--'
p350
sg29
S'--'
p351
ssg30
(dp352
g5
S'--'
p353
sg7
S'--'
p354
sg8
g34
sg9
S'--'
p355
sg10
g55
sg11
S'Matt Spaeth'
p356
sg13
S'2014'
p357
sg15
S'10'
p358
sg17
S'--'
p359
sg18
S'11/09'
p360
sg20
S'--'
p361
sg21
S'--'
p362
sg22
S'--'
p363
sg23
S'L13-20'
p364
sg24
S'--'
p365
sg25
S'--'
p366
sg26
S'@NYJ'
p367
sg27
S'--'
p368
sg28
S'--'
p369
sg29
S'--'
p370
ssg51
(dp371
g5
S'--'
p372
sg7
S'--'
p373
sg8
g55
sg9
S'--'
p374
sg10
g55
sg11
S'Matt Spaeth'
p375
sg13
S'2014'
p376
sg15
S'13'
p377
sg17
S'--'
p378
sg18
S'11/30'
p379
sg20
S'--'
p380
sg21
S'--'
p381
sg22
S'--'
p382
sg23
S'L32-35'
p383
sg24
S'--'
p384
sg25
S'--'
p385
sg26
S'NO'
p386
sg27
S'--'
p387
sg28
S'--'
p388
sg29
S'--'
p389
ssg72
(dp390
g5
g6
sg7
g6
sg8
g6
sg9
g6
sg10
g6
sg11
S'Matt Spaeth'
p391
sg13
S'2014'
p392
sg15
S'12'
p393
sg17
g6
sg18
S'Bye'
p394
sg20
g6
sg21
g6
sg22
g6
sg23
g6
sg24
g6
sg25
g6
sg26
g6
sg27
g6
sg28
g6
sg29
g6
ssg89
(dp395
g5
S'--'
p396
sg7
S'--'
p397
sg8
g55
sg9
S'--'
p398
sg10
g55
sg11
S'Matt Spaeth'
p399
sg13
S'2014'
p400
sg15
S'15'
p401
sg17
S'--'
p402
sg18
S'12/14'
p403
sg20
S'--'
p404
sg21
S'--'
p405
sg22
S'--'
p406
sg23
S'W27-20'
p407
sg24
S'--'
p408
sg25
S'--'
p409
sg26
S'@ATL'
p410
sg27
S'--'
p411
sg28
S'--'
p412
sg29
S'--'
p413
ssg109
(dp414
g5
S'--'
p415
sg7
S'--'
p416
sg8
g55
sg9
S'--'
p417
sg10
g55
sg11
S'Matt Spaeth'
p418
sg13
S'2014'
p419
sg15
S'14'
p420
sg17
S'--'
p421
sg18
S'12/07'
p422
sg20
S'6.5'
p423
sg21
S'--'
p424
sg22
S'--'
p425
sg23
S'W42-21'
p426
sg24
S'13'
p427
sg25
g206
sg26
S'@CIN'
p428
sg27
S'11'
p429
sg28
g34
sg29
S'--'
p430
ssg129
(dp431
g5
S'--'
p432
sg7
S'--'
p433
sg8
g34
sg9
S'--'
p434
sg10
g55
sg11
S'Matt Spaeth'
p435
sg13
S'2014'
p436
sg15
S'17'
p437
sg17
S'--'
p438
sg18
S'12/28'
p439
sg20
S'--'
p440
sg21
S'--'
p441
sg22
S'--'
p442
sg23
S'W27-17'
p443
sg24
g34
sg25
g34
sg26
S'CIN'
p444
sg27
S'--'
p445
sg28
g34
sg29
S'--'
p446
ssg149
(dp447
g5
S'--'
p448
sg7
S'--'
p449
sg8
g34
sg9
S'--'
p450
sg10
g34
sg11
S'Matt Spaeth'
p451
sg13
S'2014'
p452
sg15
S'16'
p453
sg17
S'--'
p454
sg18
S'12/21'
p455
sg20
S'--'
p456
sg21
S'--'
p457
sg22
S'--'
p458
sg23
S'W20-12'
p459
sg24
S'--'
p460
sg25
S'--'
p461
sg26
S'KC'
p462
sg27
S'--'
p463
sg28
S'--'
p464
sg29
S'--'
p465
ssg55
(dp466
g5
S'--'
p467
sg7
S'--'
p468
sg8
g55
sg9
S'--'
p469
sg10
g55
sg11
S'Matt Spaeth'
p470
sg13
S'2014'
p471
sg15
g55
sg17
S'--'
p472
sg18
S'09/07'
p473
sg20
S'--'
p474
sg21
S'--'
p475
sg22
S'--'
p476
sg23
S'W30-27'
p477
sg24
S'--'
p478
sg25
S'--'
p479
sg26
S'CLE'
p480
sg27
S'--'
p481
sg28
S'--'
p482
sg29
S'--'
p483
ssg187
(dp484
g5
S'--'
p485
sg7
S'--'
p486
sg8
g55
sg9
S'--'
p487
sg10
g55
sg11
S'Matt Spaeth'
p488
sg13
S'2014'
p489
sg15
g187
sg17
S'--'
p490
sg18
S'09/21'
p491
sg20
S'--'
p492
sg21
S'--'
p493
sg22
S'--'
p494
sg23
S'W37-19'
p495
sg24
S'--'
p496
sg25
S'--'
p497
sg26
S'@CAR'
p498
sg27
S'--'
p499
sg28
S'--'
p500
sg29
S'--'
p501
ssg206
(dp502
g5
S'--'
p503
sg7
S'--'
p504
sg8
g34
sg9
S'--'
p505
sg10
g55
sg11
S'Matt Spaeth'
p506
sg13
S'2014'
p507
sg15
g206
sg17
S'--'
p508
sg18
S'09/11'
p509
sg20
S'--'
p510
sg21
S'--'
p511
sg22
S'--'
p512
sg23
S'L6-26'
p513
sg24
S'--'
p514
sg25
S'--'
p515
sg26
S'@BAL'
p516
sg27
S'--'
p517
sg28
S'--'
p518
sg29
S'--'
p519
ssg225
(dp520
g5
S'--'
p521
sg7
S'--'
p522
sg8
g34
sg9
S'--'
p523
sg10
g55
sg11
S'Matt Spaeth'
p524
sg13
S'2014'
p525
sg15
g225
sg17
S'--'
p526
sg18
S'10/05'
p527
sg20
S'--'
p528
sg21
S'--'
p529
sg22
S'--'
p530
sg23
S'W17-9'
p531
sg24
S'--'
p532
sg25
S'--'
p533
sg26
S'@JAC'
p534
sg27
S'--'
p535
sg28
S'--'
p536
sg29
S'--'
p537
ssg241
(dp538
g5
S'--'
p539
sg7
S'--'
p540
sg8
g55
sg9
S'--'
p541
sg10
g55
sg11
S'Matt Spaeth'
p542
sg13
S'2014'
p543
sg15
g241
sg17
S'--'
p544
sg18
S'09/28'
p545
sg20
S'--'
p546
sg21
S'--'
p547
sg22
S'--'
p548
sg23
S'L24-27'
p549
sg24
S'--'
p550
sg25
S'--'
p551
sg26
S'TB'
p552
sg27
S'--'
p553
sg28
S'--'
p554
sg29
S'--'
p555
ssg260
(dp556
g5
S'--'
p557
sg7
S'--'
p558
sg8
g34
sg9
S'--'
p559
sg10
g55
sg11
S'Matt Spaeth'
p560
sg13
S'2014'
p561
sg15
g260
sg17
S'--'
p562
sg18
S'10/20'
p563
sg20
S'--'
p564
sg21
S'--'
p565
sg22
S'--'
p566
sg23
S'W30-23'
p567
sg24
S'--'
p568
sg25
S'--'
p569
sg26
S'HOU'
p570
sg27
S'--'
p571
sg28
S'--'
p572
sg29
S'--'
p573
ssg86
(dp574
g5
S'--'
p575
sg7
S'--'
p576
sg8
g34
sg9
S'--'
p577
sg10
g55
sg11
S'Matt Spaeth'
p578
sg13
S'2014'
p579
sg15
g86
sg17
S'--'
p580
sg18
S'10/12'
p581
sg20
S'--'
p582
sg21
S'--'
p583
sg22
S'--'
p584
sg23
S'L10-31'
p585
sg24
S'--'
p586
sg25
S'--'
p587
sg26
S'@CLE'
p588
sg27
S'--'
p589
sg28
S'--'
p590
sg29
S'--'
p591
ssg297
(dp592
g5
S'--'
p593
sg7
S'--'
p594
sg8
g34
sg9
S'--'
p595
sg10
g55
sg11
S'Matt Spaeth'
p596
sg13
S'2014'
p597
sg15
g297
sg17
S'--'
p598
sg18
S'11/02'
p599
sg20
S'33.0'
p600
sg21
S'--'
p601
sg22
S'--'
p602
sg23
S'W43-23'
p603
sg24
S'33'
p604
sg25
g55
sg26
S'BAL'
p605
sg27
S'33T'
p606
sg28
g55
sg29
S'--'
p607
ssg316
(dp608
g5
S'--'
p609
sg7
S'--'
p610
sg8
g55
sg9
S'--'
p611
sg10
g55
sg11
S'Matt Spaeth'
p612
sg13
S'2014'
p613
sg15
g316
sg17
S'--'
p614
sg18
S'10/26'
p615
sg20
S'--'
p616
sg21
S'--'
p617
sg22
S'--'
p618
sg23
S'W51-34'
p619
sg24
S'--'
p620
sg25
S'--'
p621
sg26
S'IND'
p622
sg27
S'--'
p623
sg28
S'--'
p624
sg29
S'--'
p625
sssS'2011'
p626
(dp627
g3
(dp628
g5
S'--'
p629
sg7
S'--'
p630
sg8
g55
sg9
S'--'
p631
sg10
g55
sg11
S'Matt Spaeth'
p632
sg13
S'2011'
p633
sg15
S'11'
p634
sg17
S'--'
p635
sg18
S'11/20'
p636
sg20
S'13.0'
p637
sg21
S'--'
p638
sg22
S'--'
p639
sg23
S'W31-20'
p640
sg24
S'13'
p641
sg25
g55
sg26
S'SD'
p642
sg27
S'13'
p643
sg28
g34
sg29
S'--'
p644
ssg30
(dp645
g5
S'--'
p646
sg7
S'--'
p647
sg8
g55
sg9
S'--'
p648
sg10
g55
sg11
S'Matt Spaeth'
p649
sg13
S'2011'
p650
sg15
S'10'
p651
sg17
S'--'
p652
sg18
S'11/13'
p653
sg20
S'--'
p654
sg21
S'--'
p655
sg22
S'--'
p656
sg23
S'W37-13'
p657
sg24
g34
sg25
g34
sg26
S'DET'
p658
sg27
S'--'
p659
sg28
g34
sg29
S'--'
p660
ssg51
(dp661
g5
S'--'
p662
sg7
S'--'
p663
sg8
g34
sg9
S'--'
p664
sg10
g55
sg11
S'Matt Spaeth'
p665
sg13
S'2011'
p666
sg15
S'13'
p667
sg17
S'--'
p668
sg18
S'12/04'
p669
sg20
S'--'
p670
sg21
S'--'
p671
sg22
S'--'
p672
sg23
S'L3-10'
p673
sg24
S'--'
p674
sg25
S'--'
p675
sg26
S'KC'
p676
sg27
S'--'
p677
sg28
S'--'
p678
sg29
S'--'
p679
ssg72
(dp680
g5
S'--'
p681
sg7
S'--'
p682
sg8
g55
sg9
S'--'
p683
sg10
g55
sg11
S'Matt Spaeth'
p684
sg13
S'2011'
p685
sg15
S'12'
p686
sg17
S'--'
p687
sg18
S'11/27'
p688
sg20
S'9.0'
p689
sg21
S'--'
p690
sg22
S'--'
p691
sg23
S'L20-25'
p692
sg24
g297
sg25
g55
sg26
S'@OAK'
p693
sg27
g297
sg28
g34
sg29
S'--'
p694
ssg89
(dp695
g5
S'--'
p696
sg7
S'--'
p697
sg8
g55
sg9
S'--'
p698
sg10
g55
sg11
S'Matt Spaeth'
p699
sg13
S'2011'
p700
sg15
S'15'
p701
sg17
S'--'
p702
sg18
S'12/18'
p703
sg20
S'--'
p704
sg21
S'--'
p705
sg22
S'--'
p706
sg23
S'L14-38'
p707
sg24
S'--'
p708
sg25
S'--'
p709
sg26
S'SEA'
p710
sg27
S'--'
p711
sg28
S'--'
p712
sg29
S'--'
p713
ssg109
(dp714
g5
S'--'
p715
sg7
S'--'
p716
sg8
g34
sg9
S'--'
p717
sg10
g55
sg11
S'Matt Spaeth'
p718
sg13
S'2011'
p719
sg15
S'14'
p720
sg17
S'--'
p721
sg18
S'12/11'
p722
sg20
S'--'
p723
sg21
S'--'
p724
sg22
S'--'
p725
sg23
S'L10-13'
p726
sg24
S'--'
p727
sg25
S'--'
p728
sg26
S'@DEN'
p729
sg27
S'--'
p730
sg28
S'--'
p731
sg29
S'--'
p732
ssg129
(dp733
g5
S'--'
p734
sg7
S'--'
p735
sg8
g55
sg9
S'--'
p736
sg10
g55
sg11
S'Matt Spaeth'
p737
sg13
S'2011'
p738
sg15
S'17'
p739
sg17
S'--'
p740
sg18
S'01/01'
p741
sg20
S'--'
p742
sg21
S'--'
p743
sg22
S'--'
p744
sg23
S'W17-13'
p745
sg24
g34
sg25
g34
sg26
S'@MIN'
p746
sg27
S'--'
p747
sg28
g34
sg29
S'--'
p748
ssg149
(dp749
g5
S'--'
p750
sg7
S'--'
p751
sg8
g34
sg9
S'--'
p752
sg10
g55
sg11
S'Matt Spaeth'
p753
sg13
S'2011'
p754
sg15
S'16'
p755
sg17
S'--'
p756
sg18
S'12/25'
p757
sg20
S'--'
p758
sg21
S'--'
p759
sg22
S'--'
p760
sg23
S'L21-35'
p761
sg24
S'--'
p762
sg25
S'--'
p763
sg26
S'@GB'
p764
sg27
S'--'
p765
sg28
S'--'
p766
sg29
S'--'
p767
ssg55
(dp768
g5
S'--'
p769
sg7
S'--'
p770
sg8
g55
sg9
S'--'
p771
sg10
g55
sg11
S'Matt Spaeth'
p772
sg13
S'2011'
p773
sg15
g55
sg17
S'--'
p774
sg18
S'09/11'
p775
sg20
S'3.5'
p776
sg21
S'--'
p777
sg22
S'--'
p778
sg23
S'W30-12'
p779
sg24
g260
sg25
g206
sg26
S'ATL'
p780
sg27
g86
sg28
g55
sg29
S'--'
p781
ssg187
(dp782
g5
S'--'
p783
sg7
S'--'
p784
sg8
g34
sg9
S'--'
p785
sg10
g55
sg11
S'Matt Spaeth'
p786
sg13
S'2011'
p787
sg15
g187
sg17
S'--'
p788
sg18
S'09/25'
p789
sg20
S'--'
p790
sg21
S'--'
p791
sg22
S'--'
p792
sg23
S'L17-27'
p793
sg24
S'--'
p794
sg25
S'--'
p795
sg26
S'GB'
p796
sg27
S'--'
p797
sg28
S'--'
p798
sg29
S'--'
p799
ssg206
(dp800
g5
S'--'
p801
sg7
S'--'
p802
sg8
g55
sg9
S'--'
p803
sg10
g55
sg11
S'Matt Spaeth'
p804
sg13
S'2011'
p805
sg15
g206
sg17
S'--'
p806
sg18
S'09/18'
p807
sg20
S'--'
p808
sg21
S'--'
p809
sg22
S'--'
p810
sg23
S'L13-30'
p811
sg24
g34
sg25
g34
sg26
S'@NO'
p812
sg27
S'--'
p813
sg28
g34
sg29
S'--'
p814
ssg225
(dp815
g5
S'--'
p816
sg7
S'--'
p817
sg8
g34
sg9
S'--'
p818
sg10
g55
sg11
S'Matt Spaeth'
p819
sg13
S'2011'
p820
sg15
g225
sg17
S'--'
p821
sg18
S'10/10'
p822
sg20
S'8.0'
p823
sg21
S'--'
p824
sg22
S'--'
p825
sg23
S'L13-24'
p826
sg24
g316
sg25
g55
sg26
S'@DET'
p827
sg27
g316
sg28
g34
sg29
S'--'
p828
ssg241
(dp829
g5
S'--'
p830
sg7
S'--'
p831
sg8
g34
sg9
S'--'
p832
sg10
g34
sg11
S'Matt Spaeth'
p833
sg13
S'2011'
p834
sg15
g241
sg17
S'--'
p835
sg18
S'10/02'
p836
sg20
S'--'
p837
sg21
S'--'
p838
sg22
S'--'
p839
sg23
S'W34-29'
p840
sg24
S'--'
p841
sg25
S'--'
p842
sg26
S'CAR'
p843
sg27
S'--'
p844
sg28
S'--'
p845
sg29
S'--'
p846
ssg260
(dp847
g5
S'--'
p848
sg7
S'--'
p849
sg8
g34
sg9
S'--'
p850
sg10
g55
sg11
S'Matt Spaeth'
p851
sg13
S'2011'
p852
sg15
g260
sg17
S'--'
p853
sg18
S'10/23'
p854
sg20
S'--'
p855
sg21
S'--'
p856
sg22
S'--'
p857
sg23
S'W24-18'
p858
sg24
S'--'
p859
sg25
S'--'
p860
sg26
S'@TB'
p861
sg27
S'--'
p862
sg28
S'--'
p863
sg29
S'--'
p864
ssg86
(dp865
g5
S'--'
p866
sg7
S'--'
p867
sg8
g55
sg9
S'--'
p868
sg10
g55
sg11
S'Matt Spaeth'
p869
sg13
S'2011'
p870
sg15
g86
sg17
S'--'
p871
sg18
S'10/16'
p872
sg20
S'--'
p873
sg21
S'--'
p874
sg22
S'--'
p875
sg23
S'W39-10'
p876
sg24
g34
sg25
g34
sg26
S'MIN'
p877
sg27
S'--'
p878
sg28
g34
sg29
S'--'
p879
ssg297
(dp880
g5
S'--'
p881
sg7
S'--'
p882
sg8
g34
sg9
S'--'
p883
sg10
g55
sg11
S'Matt Spaeth'
p884
sg13
S'2011'
p885
sg15
g297
sg17
S'--'
p886
sg18
S'11/07'
p887
sg20
S'6.5'
p888
sg21
S'--'
p889
sg22
S'--'
p890
sg23
S'W30-24'
p891
sg24
S'13'
p892
sg25
g206
sg26
S'@PHI'
p893
sg27
g316
sg28
g55
sg29
S'--'
p894
ssg316
(dp895
g5
g6
sg7
g6
sg8
g6
sg9
g6
sg10
g6
sg11
S'Matt Spaeth'
p896
sg13
S'2011'
p897
sg15
g316
sg17
g6
sg18
S'Bye'
p898
sg20
g6
sg21
g6
sg22
g6
sg23
g6
sg24
g6
sg25
g6
sg26
g6
sg27
g6
sg28
g6
sg29
g6
sssS'2010'
p899
(dp900
g3
(dp901
g5
S'--'
p902
sg7
S'--'
p903
sg8
g55
sg9
S'--'
p904
sg10
g55
sg11
S'Matt Spaeth'
p905
sg13
S'2010'
p906
sg15
S'11'
p907
sg17
S'--'
p908
sg18
S'11/21'
p909
sg20
S'8.0'
p910
sg21
S'--'
p911
sg22
S'--'
p912
sg23
S'W35-3'
p913
sg24
S'16'
p914
sg25
g206
sg26
S'OAK'
p915
sg27
g316
sg28
g34
sg29
S'--'
p916
ssg30
(dp917
g5
S'--'
p918
sg7
S'--'
p919
sg8
g55
sg9
S'--'
p920
sg10
g55
sg11
S'Matt Spaeth'
p921
sg13
S'2010'
p922
sg15
S'10'
p923
sg17
S'--'
p924
sg18
S'11/14'
p925
sg20
S'--'
p926
sg21
S'--'
p927
sg22
S'--'
p928
sg23
S'L26-39'
p929
sg24
S'--'
p930
sg25
S'--'
p931
sg26
S'NE'
p932
sg27
S'--'
p933
sg28
S'--'
p934
sg29
S'--'
p935
ssg51
(dp936
g5
S'--'
p937
sg7
S'--'
p938
sg8
g34
sg9
S'--'
p939
sg10
g34
sg11
S'Matt Spaeth'
p940
sg13
S'2010'
p941
sg15
S'13'
p942
sg17
S'--'
p943
sg18
S'12/05'
p944
sg20
S'--'
p945
sg21
S'--'
p946
sg22
S'--'
p947
sg23
S'W13-10'
p948
sg24
S'--'
p949
sg25
S'--'
p950
sg26
S'@BAL'
p951
sg27
S'--'
p952
sg28
S'--'
p953
sg29
S'--'
p954
ssg72
(dp955
g5
S'--'
p956
sg7
S'--'
p957
sg8
g34
sg9
S'--'
p958
sg10
g34
sg11
S'Matt Spaeth'
p959
sg13
S'2010'
p960
sg15
S'12'
p961
sg17
S'--'
p962
sg18
S'11/28'
p963
sg20
S'--'
p964
sg21
S'--'
p965
sg22
S'--'
p966
sg23
S'W19-16'
p967
sg24
S'--'
p968
sg25
S'--'
p969
sg26
S'@BUF'
p970
sg27
S'--'
p971
sg28
S'--'
p972
sg29
S'--'
p973
ssg89
(dp974
g5
S'--'
p975
sg7
S'--'
p976
sg8
g55
sg9
S'--'
p977
sg10
g55
sg11
S'Matt Spaeth'
p978
sg13
S'2010'
p979
sg15
S'15'
p980
sg17
S'--'
p981
sg18
S'12/19'
p982
sg20
S'9.0'
p983
sg21
S'--'
p984
sg22
S'--'
p985
sg23
S'L17-22'
p986
sg24
S'27'
p987
sg25
g187
sg26
S'NYJ'
p988
sg27
S'13'
p989
sg28
g55
sg29
S'--'
p990
ssg109
(dp991
g5
S'--'
p992
sg7
S'--'
p993
sg8
g55
sg9
S'--'
p994
sg10
g55
sg11
S'Matt Spaeth'
p995
sg13
S'2010'
p996
sg15
S'14'
p997
sg17
S'--'
p998
sg18
S'12/12'
p999
sg20
S'4.0'
p1000
sg21
S'--'
p1001
sg22
S'--'
p1002
sg23
S'W23-7'
p1003
sg24
g241
sg25
g55
sg26
S'CIN'
p1004
sg27
g241
sg28
g34
sg29
S'--'
p1005
ssg129
(dp1006
g5
S'--'
p1007
sg7
S'--'
p1008
sg8
g34
sg9
S'--'
p1009
sg10
g55
sg11
S'Matt Spaeth'
p1010
sg13
S'2010'
p1011
sg15
S'17'
p1012
sg17
S'--'
p1013
sg18
S'01/02'
p1014
sg20
S'--'
p1015
sg21
S'--'
p1016
sg22
S'--'
p1017
sg23
S'W41-9'
p1018
sg24
S'--'
p1019
sg25
S'--'
p1020
sg26
S'@CLE'
p1021
sg27
S'--'
p1022
sg28
S'--'
p1023
sg29
S'--'
p1024
ssg149
(dp1025
g5
S'--'
p1026
sg7
S'--'
p1027
sg8
g55
sg9
S'--'
p1028
sg10
g55
sg11
S'Matt Spaeth'
p1029
sg13
S'2010'
p1030
sg15
S'16'
p1031
sg17
S'--'
p1032
sg18
S'12/23'
p1033
sg20
S'--'
p1034
sg21
S'--'
p1035
sg22
S'--'
p1036
sg23
S'W27-3'
p1037
sg24
S'--'
p1038
sg25
S'--'
p1039
sg26
S'CAR'
p1040
sg27
S'--'
p1041
sg28
S'--'
p1042
sg29
S'--'
p1043
ssg55
(dp1044
g5
S'--'
p1045
sg7
S'--'
p1046
sg8
g55
sg9
S'--'
p1047
sg10
g55
sg11
S'Matt Spaeth'
p1048
sg13
S'2010'
p1049
sg15
g55
sg17
S'--'
p1050
sg18
S'09/12'
p1051
sg20
S'--'
p1052
sg21
S'--'
p1053
sg22
S'--'
p1054
sg23
S'W15-9'
p1055
sg24
S'--'
p1056
sg25
S'--'
p1057
sg26
S'ATL'
p1058
sg27
S'--'
p1059
sg28
S'--'
p1060
sg29
S'--'
p1061
ssg187
(dp1062
g5
S'--'
p1063
sg7
S'--'
p1064
sg8
g55
sg9
S'--'
p1065
sg10
g55
sg11
S'Matt Spaeth'
p1066
sg13
S'2010'
p1067
sg15
g187
sg17
S'--'
p1068
sg18
S'09/26'
p1069
sg20
S'--'
p1070
sg21
S'--'
p1071
sg22
S'--'
p1072
sg23
S'W38-13'
p1073
sg24
S'--'
p1074
sg25
S'--'
p1075
sg26
S'@TB'
p1076
sg27
S'--'
p1077
sg28
S'--'
p1078
sg29
S'--'
p1079
ssg206
(dp1080
g5
S'--'
p1081
sg7
S'--'
p1082
sg8
g55
sg9
S'--'
p1083
sg10
g55
sg11
S'Matt Spaeth'
p1084
sg13
S'2010'
p1085
sg15
g206
sg17
S'--'
p1086
sg18
S'09/19'
p1087
sg20
S'--'
p1088
sg21
S'--'
p1089
sg22
S'--'
p1090
sg23
S'W19-11'
p1091
sg24
S'--'
p1092
sg25
S'--'
p1093
sg26
S'@TEN'
p1094
sg27
S'--'
p1095
sg28
S'--'
p1096
sg29
S'--'
p1097
ssg225
(dp1098
g5
g6
sg7
g6
sg8
g6
sg9
g6
sg10
g6
sg11
S'Matt Spaeth'
p1099
sg13
S'2010'
p1100
sg15
g225
sg17
g6
sg18
S'Bye'
p1101
sg20
g6
sg21
g6
sg22
g6
sg23
g6
sg24
g6
sg25
g6
sg26
g6
sg27
g6
sg28
g6
sg29
g6
ssg241
(dp1102
g5
S'--'
p1103
sg7
S'--'
p1104
sg8
g55
sg9
S'--'
p1105
sg10
g55
sg11
S'Matt Spaeth'
p1106
sg13
S'2010'
p1107
sg15
g241
sg17
S'--'
p1108
sg18
S'10/03'
p1109
sg20
S'--'
p1110
sg21
S'--'
p1111
sg22
S'--'
p1112
sg23
S'L14-17'
p1113
sg24
S'--'
p1114
sg25
S'--'
p1115
sg26
S'BAL'
p1116
sg27
S'--'
p1117
sg28
S'--'
p1118
sg29
S'--'
p1119
ssg260
(dp1120
g5
S'--'
p1121
sg7
S'--'
p1122
sg8
g55
sg9
S'--'
p1123
sg10
g55
sg11
S'Matt Spaeth'
p1124
sg13
S'2010'
p1125
sg15
g260
sg17
S'--'
p1126
sg18
S'10/24'
p1127
sg20
S'--'
p1128
sg21
S'--'
p1129
sg22
S'--'
p1130
sg23
S'W23-22'
p1131
sg24
g34
sg25
g34
sg26
S'@MIA'
p1132
sg27
S'--'
p1133
sg28
g34
sg29
S'--'
p1134
ssg86
(dp1135
g5
S'--'
p1136
sg7
S'--'
p1137
sg8
g55
sg9
S'--'
p1138
sg10
g55
sg11
S'Matt Spaeth'
p1139
sg13
S'2010'
p1140
sg15
g86
sg17
S'--'
p1141
sg18
S'10/17'
p1142
sg20
S'--'
p1143
sg21
S'--'
p1144
sg22
S'--'
p1145
sg23
S'W28-10'
p1146
sg24
g34
sg25
g34
sg26
S'CLE'
p1147
sg27
S'--'
p1148
sg28
g34
sg29
S'--'
p1149
ssg297
(dp1150
g5
S'--'
p1151
sg7
S'--'
p1152
sg8
g55
sg9
S'--'
p1153
sg10
g55
sg11
S'Matt Spaeth'
p1154
sg13
S'2010'
p1155
sg15
g297
sg17
S'--'
p1156
sg18
S'11/08'
p1157
sg20
S'12.0'
p1158
sg21
S'--'
p1159
sg22
S'--'
p1160
sg23
S'W27-21'
p1161
sg24
S'12'
p1162
sg25
g55
sg26
S'@CIN'
p1163
sg27
S'12'
p1164
sg28
g34
sg29
S'--'
p1165
ssg316
(dp1166
g5
S'--'
p1167
sg7
S'--'
p1168
sg8
g55
sg9
S'--'
p1169
sg10
g55
sg11
S'Matt Spaeth'
p1170
sg13
S'2010'
p1171
sg15
g316
sg17
S'--'
p1172
sg18
S'10/31'
p1173
sg20
S'10.5'
p1174
sg21
S'--'
p1175
sg22
S'--'
p1176
sg23
S'L10-20'
p1177
sg24
S'21'
p1178
sg25
g206
sg26
S'@NO'
p1179
sg27
S'12'
p1180
sg28
g34
sg29
S'--'
p1181
sssS'2013'
p1182
(dp1183
g89
(dp1184
g5
S'--'
p1185
sg7
S'--'
p1186
sg8
g55
sg9
S'--'
p1187
sg10
g55
sg11
S'Matt Spaeth'
p1188
sg13
S'2013'
p1189
sg15
S'15'
p1190
sg17
S'--'
p1191
sg18
S'12/15'
p1192
sg20
S'--'
p1193
sg21
S'--'
p1194
sg22
S'--'
p1195
sg23
S'W30-20'
p1196
sg24
g34
sg25
g34
sg26
S'CIN'
p1197
sg27
S'--'
p1198
sg28
g34
sg29
S'--'
p1199
ssg109
(dp1200
g5
S'--'
p1201
sg7
S'--'
p1202
sg8
g34
sg9
S'--'
p1203
sg10
g55
sg11
S'Matt Spaeth'
p1204
sg13
S'2013'
p1205
sg15
S'14'
p1206
sg17
S'--'
p1207
sg18
S'12/08'
p1208
sg20
S'--'
p1209
sg21
S'--'
p1210
sg22
S'--'
p1211
sg23
S'L28-34'
p1212
sg24
S'--'
p1213
sg25
S'--'
p1214
sg26
S'MIA'
p1215
sg27
S'--'
p1216
sg28
S'--'
p1217
sg29
S'--'
p1218
ssg129
(dp1219
g5
S'--'
p1220
sg7
S'--'
p1221
sg8
g34
sg9
S'--'
p1222
sg10
g55
sg11
S'Matt Spaeth'
p1223
sg13
S'2013'
p1224
sg15
S'17'
p1225
sg17
S'--'
p1226
sg18
S'12/29'
p1227
sg20
S'--'
p1228
sg21
S'--'
p1229
sg22
S'--'
p1230
sg23
S'W20-7'
p1231
sg24
S'--'
p1232
sg25
S'--'
p1233
sg26
S'CLE'
p1234
sg27
S'--'
p1235
sg28
S'--'
p1236
sg29
S'--'
p1237
ssg149
(dp1238
g5
S'--'
p1239
sg7
S'--'
p1240
sg8
g55
sg9
S'--'
p1241
sg10
g55
sg11
S'Matt Spaeth'
p1242
sg13
S'2013'
p1243
sg15
S'16'
p1244
sg17
S'--'
p1245
sg18
S'12/22'
p1246
sg20
S'11.0'
p1247
sg21
S'--'
p1248
sg22
S'--'
p1249
sg23
S'W38-31'
p1250
sg24
S'11'
p1251
sg25
g55
sg26
S'@GB'
p1252
sg27
S'11T'
p1253
sg28
g55
sg29
S'--'
p1254
sssS'2012'
p1255
(dp1256
g3
(dp1257
g5
S'--'
p1258
sg7
S'--'
p1259
sg8
g34
sg9
S'--'
p1260
sg10
g55
sg11
S'Matt Spaeth'
p1261
sg13
S'2012'
p1262
sg15
S'11'
p1263
sg17
S'--'
p1264
sg18
S'11/19'
p1265
sg20
S'--'
p1266
sg21
S'--'
p1267
sg22
S'--'
p1268
sg23
S'L7-32'
p1269
sg24
S'--'
p1270
sg25
S'--'
p1271
sg26
S'@SF'
p1272
sg27
S'--'
p1273
sg28
S'--'
p1274
sg29
S'--'
p1275
ssg30
(dp1276
g5
S'--'
p1277
sg7
S'--'
p1278
sg8
g34
sg9
S'--'
p1279
sg10
g55
sg11
S'Matt Spaeth'
p1280
sg13
S'2012'
p1281
sg15
S'10'
p1282
sg17
S'--'
p1283
sg18
S'11/11'
p1284
sg20
S'1.3'
p1285
sg21
S'--'
p1286
sg22
S'--'
p1287
sg23
S'L6-13'
p1288
sg24
g241
sg25
g187
sg26
S'HOU'
p1289
sg27
g225
sg28
g34
sg29
S'--'
p1290
ssg51
(dp1291
g5
S'--'
p1292
sg7
S'--'
p1293
sg8
g55
sg9
S'--'
p1294
sg10
g55
sg11
S'Matt Spaeth'
p1295
sg13
S'2012'
p1296
sg15
S'13'
p1297
sg17
S'--'
p1298
sg18
S'12/02'
p1299
sg20
S'--'
p1300
sg21
S'--'
p1301
sg22
S'--'
p1302
sg23
S'L17-23'
p1303
sg24
S'--'
p1304
sg25
S'--'
p1305
sg26
S'SEA'
p1306
sg27
S'--'
p1307
sg28
S'--'
p1308
sg29
S'--'
p1309
ssg72
(dp1310
g5
S'--'
p1311
sg7
S'--'
p1312
sg8
g34
sg9
S'--'
p1313
sg10
g55
sg11
S'Matt Spaeth'
p1314
sg13
S'2012'
p1315
sg15
S'12'
p1316
sg17
S'--'
p1317
sg18
S'11/25'
p1318
sg20
S'13.0'
p1319
sg21
S'--'
p1320
sg22
S'--'
p1321
sg23
S'W28-10'
p1322
sg24
S'13'
p1323
sg25
g55
sg26
S'MIN'
p1324
sg27
S'13T'
p1325
sg28
g55
sg29
S'--'
p1326
ssg89
(dp1327
g5
S'--'
p1328
sg7
S'--'
p1329
sg8
g34
sg9
S'--'
p1330
sg10
g55
sg11
S'Matt Spaeth'
p1331
sg13
S'2012'
p1332
sg15
S'15'
p1333
sg17
S'--'
p1334
sg18
S'12/16'
p1335
sg20
S'--'
p1336
sg21
S'--'
p1337
sg22
S'--'
p1338
sg23
S'L13-21'
p1339
sg24
S'--'
p1340
sg25
S'--'
p1341
sg26
S'GB'
p1342
sg27
S'--'
p1343
sg28
S'--'
p1344
sg29
S'--'
p1345
ssg109
(dp1346
g5
S'--'
p1347
sg7
S'--'
p1348
sg8
g34
sg9
S'--'
p1349
sg10
g55
sg11
S'Matt Spaeth'
p1350
sg13
S'2012'
p1351
sg15
S'14'
p1352
sg17
S'--'
p1353
sg18
S'12/09'
p1354
sg20
S'--'
p1355
sg21
S'--'
p1356
sg22
S'--'
p1357
sg23
S'L14-21'
p1358
sg24
S'--'
p1359
sg25
S'--'
p1360
sg26
S'@MIN'
p1361
sg27
S'--'
p1362
sg28
S'--'
p1363
sg29
S'--'
p1364
ssg129
(dp1365
g5
S'--'
p1366
sg7
S'--'
p1367
sg8
g55
sg9
S'--'
p1368
sg10
g55
sg11
S'Matt Spaeth'
p1369
sg13
S'2012'
p1370
sg15
S'17'
p1371
sg17
S'--'
p1372
sg18
S'12/30'
p1373
sg20
S'7.0'
p1374
sg21
S'--'
p1375
sg22
S'--'
p1376
sg23
S'W26-24'
p1377
sg24
g260
sg25
g55
sg26
S'@DET'
p1378
sg27
g260
sg28
g34
sg29
S'--'
p1379
ssg149
(dp1380
g5
S'--'
p1381
sg7
S'--'
p1382
sg8
g34
sg9
S'--'
p1383
sg10
g55
sg11
S'Matt Spaeth'
p1384
sg13
S'2012'
p1385
sg15
S'16'
p1386
sg17
S'--'
p1387
sg18
S'12/23'
p1388
sg20
S'--'
p1389
sg21
S'--'
p1390
sg22
S'--'
p1391
sg23
S'W28-13'
p1392
sg24
S'--'
p1393
sg25
S'--'
p1394
sg26
S'@ARI'
p1395
sg27
S'--'
p1396
sg28
S'--'
p1397
sg29
S'--'
p1398
ssg55
(dp1399
g5
S'--'
p1400
sg7
S'--'
p1401
sg8
g34
sg9
S'--'
p1402
sg10
g55
sg11
S'Matt Spaeth'
p1403
sg13
S'2012'
p1404
sg15
g55
sg17
S'--'
p1405
sg18
S'09/09'
p1406
sg20
S'--'
p1407
sg21
S'--'
p1408
sg22
S'--'
p1409
sg23
S'W41-21'
p1410
sg24
S'--'
p1411
sg25
S'--'
p1412
sg26
S'IND'
p1413
sg27
S'--'
p1414
sg28
S'--'
p1415
sg29
S'--'
p1416
ssg187
(dp1417
g5
S'--'
p1418
sg7
S'--'
p1419
sg8
g55
sg9
S'--'
p1420
sg10
g55
sg11
S'Matt Spaeth'
p1421
sg13
S'2012'
p1422
sg15
g187
sg17
S'--'
p1423
sg18
S'09/23'
p1424
sg20
S'--'
p1425
sg21
S'--'
p1426
sg22
S'--'
p1427
sg23
S'W23-6'
p1428
sg24
S'--'
p1429
sg25
S'--'
p1430
sg26
S'STL'
p1431
sg27
S'--'
p1432
sg28
S'--'
p1433
sg29
S'--'
p1434
ssg206
(dp1435
g5
S'--'
p1436
sg7
S'--'
p1437
sg8
g55
sg9
S'--'
p1438
sg10
g55
sg11
S'Matt Spaeth'
p1439
sg13
S'2012'
p1440
sg15
g206
sg17
S'--'
p1441
sg18
S'09/13'
p1442
sg20
S'4.0'
p1443
sg21
S'--'
p1444
sg22
S'--'
p1445
sg23
S'L10-23'
p1446
sg24
g241
sg25
g55
sg26
S'@GB'
p1447
sg27
g241
sg28
g34
sg29
S'--'
p1448
ssg225
(dp1449
g5
S'--'
p1450
sg7
S'--'
p1451
sg8
g55
sg9
S'--'
p1452
sg10
g55
sg11
S'Matt Spaeth'
p1453
sg13
S'2012'
p1454
sg15
g225
sg17
S'--'
p1455
sg18
S'10/07'
p1456
sg20
S'--'
p1457
sg21
S'--'
p1458
sg22
S'--'
p1459
sg23
S'W41-3'
p1460
sg24
S'--'
p1461
sg25
S'--'
p1462
sg26
S'@JAC'
p1463
sg27
S'--'
p1464
sg28
S'--'
p1465
sg29
S'--'
p1466
ssg241
(dp1467
g5
S'--'
p1468
sg7
S'--'
p1469
sg8
g55
sg9
S'--'
p1470
sg10
g55
sg11
S'Matt Spaeth'
p1471
sg13
S'2012'
p1472
sg15
g241
sg17
S'--'
p1473
sg18
S'10/01'
p1474
sg20
S'--'
p1475
sg21
S'--'
p1476
sg22
S'--'
p1477
sg23
S'W34-18'
p1478
sg24
S'--'
p1479
sg25
S'--'
p1480
sg26
S'@DAL'
p1481
sg27
S'--'
p1482
sg28
S'--'
p1483
sg29
S'--'
p1484
ssg260
(dp1485
g5
S'--'
p1486
sg7
S'--'
p1487
sg8
g55
sg9
S'--'
p1488
sg10
g55
sg11
S'Matt Spaeth'
p1489
sg13
S'2012'
p1490
sg15
g260
sg17
S'--'
p1491
sg18
S'10/22'
p1492
sg20
S'--'
p1493
sg21
S'--'
p1494
sg22
S'--'
p1495
sg23
S'W13-7'
p1496
sg24
g34
sg25
g34
sg26
S'DET'
p1497
sg27
S'--'
p1498
sg28
g34
sg29
S'--'
p1499
ssg86
(dp1500
g5
g6
sg7
g6
sg8
g6
sg9
g6
sg10
g6
sg11
S'Matt Spaeth'
p1501
sg13
S'2012'
p1502
sg15
g86
sg17
g6
sg18
S'Bye'
p1503
sg20
g6
sg21
g6
sg22
g6
sg23
g6
sg24
g6
sg25
g6
sg26
g6
sg27
g6
sg28
g6
sg29
g6
ssg297
(dp1504
g5
S'--'
p1505
sg7
S'--'
p1506
sg8
g34
sg9
S'--'
p1507
sg10
g55
sg11
S'Matt Spaeth'
p1508
sg13
S'2012'
p1509
sg15
g297
sg17
S'--'
p1510
sg18
S'11/04'
p1511
sg20
S'--'
p1512
sg21
S'--'
p1513
sg22
S'--'
p1514
sg23
S'W51-20'
p1515
sg24
S'--'
p1516
sg25
S'--'
p1517
sg26
S'@TEN'
p1518
sg27
S'--'
p1519
sg28
S'--'
p1520
sg29
S'--'
p1521
ssg316
(dp1522
g5
S'--'
p1523
sg7
S'--'
p1524
sg8
g55
sg9
S'--'
p1525
sg10
g55
sg11
S'Matt Spaeth'
p1526
sg13
S'2012'
p1527
sg15
g316
sg17
S'--'
p1528
sg18
S'10/28'
p1529
sg20
S'--'
p1530
sg21
S'--'
p1531
sg22
S'--'
p1532
sg23
S'W23-22'
p1533
sg24
g34
sg25
g34
sg26
S'CAR'
p1534
sg27
S'--'
p1535
sg28
g34
sg29
S'--'
p1536
sss.