(dp0
S'2015'
p1
(dp2
S'11'
p3
(dp4
S'RushTD'
p5
S'--'
p6
sS'RushYds'
p7
S'--'
p8
sS'GS'
p9
S'1'
p10
sS'Lost'
p11
S'0'
p12
sS'G'
p13
g10
sS'Player'
p14
S'Maxx Williams'
p15
sS'Year'
p16
S'2015'
p17
sS'WK'
p18
S'11'
p19
sS'RushAvg'
p20
S'--'
p21
sS'Game Date'
p22
S'11/22'
p23
sS'RecAvg'
p24
S'6.7'
p25
sS'FUM'
p26
g10
sS'RushAtt'
p27
S'--'
p28
sS'Result'
p29
S'W16-13'
p30
sS'RecYds'
p31
S'20'
p32
sS'Rec'
p33
S'3'
p34
sS'Opp'
p35
S'STL'
p36
sS'RecLng'
p37
S'12'
p38
sS'RecTD'
p39
g12
sS'RushLng'
p40
S'--'
p41
ssS'10'
p42
(dp43
g5
S'--'
p44
sg7
S'--'
p45
sg9
g10
sg11
S'--'
p46
sg13
g10
sg14
S'Maxx Williams'
p47
sg16
S'2015'
p48
sg18
S'10'
p49
sg20
S'--'
p50
sg22
S'11/15'
p51
sg24
S'10.0'
p52
sg26
S'--'
p53
sg27
S'--'
p54
sg29
S'L20-22'
p55
sg31
S'40'
p56
sg33
S'4'
p57
sg35
S'JAC'
p58
sg37
S'21T'
p59
sg39
g10
sg40
S'--'
p60
ssS'13'
p61
(dp62
g5
S'--'
p63
sg7
S'--'
p64
sg9
g12
sg11
S'--'
p65
sg13
g12
sg14
S'Maxx Williams'
p66
sg16
S'2015'
p67
sg18
S'13'
p68
sg20
S'--'
p69
sg22
S'12/06'
p70
sg24
S'--'
p71
sg26
S'--'
p72
sg27
S'--'
p73
sg29
S'L13-15'
p74
sg31
S'--'
p75
sg33
S'--'
p76
sg35
S'@MIA'
p77
sg37
S'--'
p78
sg39
S'--'
p79
sg40
S'--'
p80
ssS'12'
p81
(dp82
g5
S'--'
p83
sg7
S'--'
p84
sg9
g12
sg11
S'--'
p85
sg13
g10
sg14
S'Maxx Williams'
p86
sg16
S'2015'
p87
sg18
S'12'
p88
sg20
S'--'
p89
sg22
S'11/30'
p90
sg24
S'--'
p91
sg26
S'--'
p92
sg27
S'--'
p93
sg29
S'W33-27'
p94
sg31
S'--'
p95
sg33
S'--'
p96
sg35
S'@CLE'
p97
sg37
S'--'
p98
sg39
S'--'
p99
sg40
S'--'
p100
ssS'15'
p101
(dp102
g5
S'--'
p103
sg7
S'--'
p104
sg9
g12
sg11
S'--'
p105
sg13
g10
sg14
S'Maxx Williams'
p106
sg16
S'2015'
p107
sg18
S'15'
p108
sg20
S'--'
p109
sg22
S'12/20'
p110
sg24
S'6.2'
p111
sg26
S'--'
p112
sg27
S'--'
p113
sg29
S'L14-34'
p114
sg31
S'31'
p115
sg33
S'5'
p116
sg35
S'KC'
p117
sg37
S'13'
p118
sg39
g12
sg40
S'--'
p119
ssS'14'
p120
(dp121
g5
S'--'
p122
sg7
S'--'
p123
sg9
g12
sg11
S'--'
p124
sg13
g10
sg14
S'Maxx Williams'
p125
sg16
S'2015'
p126
sg18
S'14'
p127
sg20
S'--'
p128
sg22
S'12/13'
p129
sg24
S'--'
p130
sg26
S'--'
p131
sg27
S'--'
p132
sg29
S'L6-35'
p133
sg31
S'--'
p134
sg33
S'--'
p135
sg35
S'SEA'
p136
sg37
S'--'
p137
sg39
S'--'
p138
sg40
S'--'
p139
ssS'17'
p140
(dp141
g5
S'--'
p142
sg7
S'--'
p143
sg9
g10
sg11
S'--'
p144
sg13
g10
sg14
S'Maxx Williams'
p145
sg16
S'2015'
p146
sg18
S'17'
p147
sg20
S'--'
p148
sg22
S'01/03'
p149
sg24
S'8.8'
p150
sg26
S'--'
p151
sg27
S'--'
p152
sg29
S'L16-24'
p153
sg31
S'53'
p154
sg33
S'6'
p155
sg35
S'@CIN'
p156
sg37
S'15'
p157
sg39
g12
sg40
S'--'
p158
ssS'16'
p159
(dp160
g5
S'--'
p161
sg7
S'--'
p162
sg9
g10
sg11
S'--'
p163
sg13
g10
sg14
S'Maxx Williams'
p164
sg16
S'2015'
p165
sg18
S'16'
p166
sg20
S'--'
p167
sg22
S'12/27'
p168
sg24
S'8.0'
p169
sg26
S'--'
p170
sg27
S'--'
p171
sg29
S'W20-17'
p172
sg31
S'16'
p173
sg33
S'2'
p174
sg35
S'PIT'
p175
sg37
S'9'
p176
sg39
g12
sg40
S'--'
p177
ssg10
(dp178
g5
S'--'
p179
sg7
S'--'
p180
sg9
g12
sg11
S'--'
p181
sg13
g10
sg14
S'Maxx Williams'
p182
sg16
S'2015'
p183
sg18
g10
sg20
S'--'
p184
sg22
S'09/13'
p185
sg24
S'15.0'
p186
sg26
S'--'
p187
sg27
S'--'
p188
sg29
S'L13-19'
p189
sg31
S'15'
p190
sg33
g10
sg35
S'@DEN'
p191
sg37
S'15'
p192
sg39
g12
sg40
S'--'
p193
ssg34
(dp194
g5
S'--'
p195
sg7
S'--'
p196
sg9
g12
sg11
S'--'
p197
sg13
g10
sg14
S'Maxx Williams'
p198
sg16
S'2015'
p199
sg18
g34
sg20
S'--'
p200
sg22
S'09/27'
p201
sg24
S'14.7'
p202
sg26
S'--'
p203
sg27
S'--'
p204
sg29
S'L24-28'
p205
sg31
S'44'
p206
sg33
g34
sg35
S'CIN'
p207
sg37
S'28'
p208
sg39
g12
sg40
S'--'
p209
ssg174
(dp210
g5
S'--'
p211
sg7
S'--'
p212
sg9
g10
sg11
S'--'
p213
sg13
g10
sg14
S'Maxx Williams'
p214
sg16
S'2015'
p215
sg18
g174
sg20
S'--'
p216
sg22
S'09/20'
p217
sg24
S'8.0'
p218
sg26
S'--'
p219
sg27
S'--'
p220
sg29
S'L33-37'
p221
sg31
S'8'
p222
sg33
g10
sg35
S'@OAK'
p223
sg37
g222
sg39
g12
sg40
S'--'
p224
ssg116
(dp225
g5
S'--'
p226
sg7
S'--'
p227
sg9
g10
sg11
S'--'
p228
sg13
g10
sg14
S'Maxx Williams'
p229
sg16
S'2015'
p230
sg18
g116
sg20
S'--'
p231
sg22
S'10/11'
p232
sg24
S'0.0'
p233
sg26
S'--'
p234
sg27
S'--'
p235
sg29
S'L30-33'
p236
sg31
g12
sg33
g10
sg35
S'CLE'
p237
sg37
g12
sg39
g12
sg40
S'--'
p238
ssg57
(dp239
g5
S'--'
p240
sg7
S'--'
p241
sg9
g10
sg11
S'--'
p242
sg13
g10
sg14
S'Maxx Williams'
p243
sg16
S'2015'
p244
sg18
g57
sg20
S'--'
p245
sg22
S'10/01'
p246
sg24
S'8.5'
p247
sg26
S'--'
p248
sg27
S'--'
p249
sg29
S'W23-20'
p250
sg31
S'17'
p251
sg33
g174
sg35
S'@PIT'
p252
sg37
S'10'
p253
sg39
g12
sg40
S'--'
p254
ssS'7'
p255
(dp256
g5
S'--'
p257
sg7
S'--'
p258
sg9
g12
sg11
S'--'
p259
sg13
g12
sg14
S'Maxx Williams'
p260
sg16
S'2015'
p261
sg18
g255
sg20
S'--'
p262
sg22
S'10/26'
p263
sg24
S'--'
p264
sg26
S'--'
p265
sg27
S'--'
p266
sg29
S'L18-26'
p267
sg31
S'--'
p268
sg33
S'--'
p269
sg35
S'@ARI'
p270
sg37
S'--'
p271
sg39
S'--'
p272
sg40
S'--'
p273
ssg155
(dp274
g5
S'--'
p275
sg7
S'--'
p276
sg9
g12
sg11
S'--'
p277
sg13
g10
sg14
S'Maxx Williams'
p278
sg16
S'2015'
p279
sg18
g155
sg20
S'--'
p280
sg22
S'10/18'
p281
sg24
S'6.0'
p282
sg26
S'--'
p283
sg27
S'--'
p284
sg29
S'L20-25'
p285
sg31
S'24'
p286
sg33
g57
sg35
S'@SF'
p287
sg37
S'11'
p288
sg39
g12
sg40
S'--'
p289
ssg176
(dp290
g5
S''
p291
sg7
g291
sg9
g291
sg11
g291
sg13
g291
sg14
S'Maxx Williams'
p292
sg16
S'2015'
p293
sg18
g176
sg20
g291
sg22
S'Bye'
p294
sg24
g291
sg26
g291
sg27
g291
sg29
g291
sg31
g291
sg33
g291
sg35
g291
sg37
g291
sg39
g291
sg40
g291
ssg222
(dp295
g5
S'--'
p296
sg7
S'--'
p297
sg9
g12
sg11
S'--'
p298
sg13
g10
sg14
S'Maxx Williams'
p299
sg16
S'2015'
p300
sg18
g222
sg20
S'--'
p301
sg22
S'11/01'
p302
sg24
S'--'
p303
sg26
S'--'
p304
sg27
S'--'
p305
sg29
S'W29-26'
p306
sg31
S'--'
p307
sg33
S'--'
p308
sg35
S'SD'
p309
sg37
S'--'
p310
sg39
S'--'
p311
sg40
S'--'
p312
sss.