(dp0
S'2015'
p1
(dp2
S'1'
p3
(dp4
S'RushTD'
p5
S'--'
p6
sS'RushYds'
p7
S'--'
p8
sS'GS'
p9
S'0'
p10
sS'Lost'
p11
S'--'
p12
sS'G'
p13
g10
sS'Player'
p14
S'Mitchell Henry'
p15
sS'Year'
p16
S'2015'
p17
sS'WK'
p18
g3
sS'RushAvg'
p19
S'--'
p20
sS'Game Date'
p21
S'09/13'
p22
sS'RecAvg'
p23
S'--'
p24
sS'FUM'
p25
S'--'
p26
sS'RushAtt'
p27
S'--'
p28
sS'Result'
p29
S'W19-13'
p30
sS'RecYds'
p31
S'--'
p32
sS'Rec'
p33
S'--'
p34
sS'Opp'
p35
S'BAL'
p36
sS'RecLng'
p37
S'--'
p38
sS'RecTD'
p39
S'--'
p40
sS'RushLng'
p41
S'--'
p42
ssS'3'
p43
(dp44
g5
S'--'
p45
sg7
S'--'
p46
sg9
g10
sg11
S'--'
p47
sg13
g3
sg14
S'Mitchell Henry'
p48
sg16
S'2015'
p49
sg18
g43
sg19
S'--'
p50
sg21
S'09/27'
p51
sg23
S'--'
p52
sg25
S'--'
p53
sg27
S'--'
p54
sg29
S'W24-12'
p55
sg31
S'--'
p56
sg33
S'--'
p57
sg35
S'@DET'
p58
sg37
S'--'
p59
sg39
S'--'
p60
sg41
S'--'
p61
ssS'2'
p62
(dp63
g5
S'--'
p64
sg7
S'--'
p65
sg9
g10
sg11
S'--'
p66
sg13
g10
sg14
S'Mitchell Henry'
p67
sg16
S'2015'
p68
sg18
g62
sg19
S'--'
p69
sg21
S'09/17'
p70
sg23
S'--'
p71
sg25
S'--'
p72
sg27
S'--'
p73
sg29
S'W31-24'
p74
sg31
S'--'
p75
sg33
S'--'
p76
sg35
S'@KC'
p77
sg37
S'--'
p78
sg39
S'--'
p79
sg41
S'--'
p80
ssS'5'
p81
(dp82
g5
S'--'
p83
sg7
S'--'
p84
sg9
g10
sg11
S'--'
p85
sg13
g3
sg14
S'Mitchell Henry'
p86
sg16
S'2015'
p87
sg18
g81
sg19
S'--'
p88
sg21
S'10/11'
p89
sg23
S'--'
p90
sg25
S'--'
p91
sg27
S'--'
p92
sg29
S'W16-10'
p93
sg31
S'--'
p94
sg33
S'--'
p95
sg35
S'@OAK'
p96
sg37
S'--'
p97
sg39
S'--'
p98
sg41
S'--'
p99
ssS'4'
p100
(dp101
g5
S'--'
p102
sg7
S'--'
p103
sg9
g10
sg11
S'--'
p104
sg13
g10
sg14
S'Mitchell Henry'
p105
sg16
S'2015'
p106
sg18
g100
sg19
S'--'
p107
sg21
S'10/04'
p108
sg23
S'--'
p109
sg25
S'--'
p110
sg27
S'--'
p111
sg29
S'W23-20'
p112
sg31
S'--'
p113
sg33
S'--'
p114
sg35
S'MIN'
p115
sg37
S'--'
p116
sg39
S'--'
p117
sg41
S'--'
p118
sss.