(dp0
S'2015'
p1
(dp2
S'11'
p3
(dp4
S'RushTD'
p5
S'--'
p6
sS'RushYds'
p7
S'--'
p8
sS'GS'
p9
S'0'
p10
sS'Lost'
p11
S'--'
p12
sS'G'
p13
S'1'
p14
sS'Player'
p15
S'Mychal Rivera'
p16
sS'Year'
p17
S'2015'
p18
sS'WK'
p19
S'11'
p20
sS'RushAvg'
p21
S'--'
p22
sS'Game Date'
p23
S'11/22'
p24
sS'RecAvg'
p25
S'21.0'
p26
sS'FUM'
p27
S'--'
p28
sS'RushAtt'
p29
S'--'
p30
sS'Result'
p31
S'L13-18'
p32
sS'RecYds'
p33
S'21'
p34
sS'Rec'
p35
g14
sS'Opp'
p36
S'@DET'
p37
sS'RecLng'
p38
S'21'
p39
sS'RecTD'
p40
g10
sS'RushLng'
p41
S'--'
p42
ssS'10'
p43
(dp44
g5
S'--'
p45
sg7
S'--'
p46
sg9
g10
sg11
g10
sg13
g14
sg15
S'Mychal Rivera'
p47
sg17
S'2015'
p48
sg19
S'10'
p49
sg21
S'--'
p50
sg23
S'11/15'
p51
sg25
S'7.7'
p52
sg27
g14
sg29
S'--'
p53
sg31
S'L14-30'
p54
sg33
S'46'
p55
sg35
S'6'
p56
sg36
S'MIN'
p57
sg38
S'17'
p58
sg40
g10
sg41
S'--'
p59
ssS'13'
p60
(dp61
g5
S'--'
p62
sg7
S'--'
p63
sg9
g10
sg11
S'--'
p64
sg13
g14
sg15
S'Mychal Rivera'
p65
sg17
S'2015'
p66
sg19
S'13'
p67
sg21
S'--'
p68
sg23
S'12/06'
p69
sg25
S'6.5'
p70
sg27
S'--'
p71
sg29
S'--'
p72
sg31
S'L20-34'
p73
sg33
S'13'
p74
sg35
S'2'
p75
sg36
S'KC'
p76
sg38
S'7'
p77
sg40
g10
sg41
S'--'
p78
ssS'12'
p79
(dp80
g5
S'--'
p81
sg7
S'--'
p82
sg9
g10
sg11
S'--'
p83
sg13
g14
sg15
S'Mychal Rivera'
p84
sg17
S'2015'
p85
sg19
S'12'
p86
sg21
S'--'
p87
sg23
S'11/29'
p88
sg25
S'14.0'
p89
sg27
S'--'
p90
sg29
S'--'
p91
sg31
S'W24-21'
p92
sg33
S'28'
p93
sg35
g75
sg36
S'@TEN'
p94
sg38
S'19'
p95
sg40
g10
sg41
S'--'
p96
ssS'15'
p97
(dp98
g5
S'--'
p99
sg7
S'--'
p100
sg9
g10
sg11
S'--'
p101
sg13
g14
sg15
S'Mychal Rivera'
p102
sg17
S'2015'
p103
sg19
S'15'
p104
sg21
S'--'
p105
sg23
S'12/20'
p106
sg25
S'6.7'
p107
sg27
S'--'
p108
sg29
S'--'
p109
sg31
S'L20-30'
p110
sg33
S'20'
p111
sg35
S'3'
p112
sg36
S'GB'
p113
sg38
S'14'
p114
sg40
g10
sg41
S'--'
p115
ssS'14'
p116
(dp117
g5
S'--'
p118
sg7
S'--'
p119
sg9
g10
sg11
S'--'
p120
sg13
g14
sg15
S'Mychal Rivera'
p121
sg17
S'2015'
p122
sg19
S'14'
p123
sg21
S'--'
p124
sg23
S'12/13'
p125
sg25
S'16.3'
p126
sg27
S'--'
p127
sg29
S'--'
p128
sg31
S'W15-12'
p129
sg33
S'49'
p130
sg35
g112
sg36
S'@DEN'
p131
sg38
S'29'
p132
sg40
g14
sg41
S'--'
p133
ssS'17'
p134
(dp135
g5
S'--'
p136
sg7
S'--'
p137
sg9
g10
sg11
S'--'
p138
sg13
g14
sg15
S'Mychal Rivera'
p139
sg17
S'2015'
p140
sg19
S'17'
p141
sg21
S'--'
p142
sg23
S'01/03'
p143
sg25
S'6.0'
p144
sg27
S'--'
p145
sg29
S'--'
p146
sg31
S'L17-23'
p147
sg33
S'12'
p148
sg35
g75
sg36
S'@KC'
p149
sg38
S'8'
p150
sg40
g10
sg41
S'--'
p151
ssS'16'
p152
(dp153
g5
S'--'
p154
sg7
S'--'
p155
sg9
g10
sg11
S'--'
p156
sg13
g14
sg15
S'Mychal Rivera'
p157
sg17
S'2015'
p158
sg19
S'16'
p159
sg21
S'--'
p160
sg23
S'12/24'
p161
sg25
S'--'
p162
sg27
S'--'
p163
sg29
S'--'
p164
sg31
S'W23-20'
p165
sg33
S'--'
p166
sg35
S'--'
p167
sg36
S'SD'
p168
sg38
S'--'
p169
sg40
S'--'
p170
sg41
S'--'
p171
ssg14
(dp172
g5
S'--'
p173
sg7
S'--'
p174
sg9
g10
sg11
S'--'
p175
sg13
g14
sg15
S'Mychal Rivera'
p176
sg17
S'2015'
p177
sg19
g14
sg21
S'--'
p178
sg23
S'09/13'
p179
sg25
S'4.0'
p180
sg27
S'--'
p181
sg29
S'--'
p182
sg31
S'L13-33'
p183
sg33
S'4'
p184
sg35
g14
sg36
S'CIN'
p185
sg38
g184
sg40
g10
sg41
S'--'
p186
ssg112
(dp187
g5
S'--'
p188
sg7
S'--'
p189
sg9
g10
sg11
S'--'
p190
sg13
g14
sg15
S'Mychal Rivera'
p191
sg17
S'2015'
p192
sg19
g112
sg21
S'--'
p193
sg23
S'09/27'
p194
sg25
S'--'
p195
sg27
S'--'
p196
sg29
S'--'
p197
sg31
S'W27-20'
p198
sg33
g10
sg35
g10
sg36
S'@CLE'
p199
sg38
S'--'
p200
sg40
g10
sg41
S'--'
p201
ssg75
(dp202
g5
S'--'
p203
sg7
S'--'
p204
sg9
g10
sg11
S'--'
p205
sg13
g14
sg15
S'Mychal Rivera'
p206
sg17
S'2015'
p207
sg19
g75
sg21
S'--'
p208
sg23
S'09/20'
p209
sg25
S'5.0'
p210
sg27
S'--'
p211
sg29
S'--'
p212
sg31
S'W37-33'
p213
sg33
S'15'
p214
sg35
g112
sg36
S'BAL'
p215
sg38
g77
sg40
g10
sg41
S'--'
p216
ssS'5'
p217
(dp218
g5
S'--'
p219
sg7
S'--'
p220
sg9
g10
sg11
g10
sg13
g14
sg15
S'Mychal Rivera'
p221
sg17
S'2015'
p222
sg19
g217
sg21
S'--'
p223
sg23
S'10/11'
p224
sg25
S'11.0'
p225
sg27
g14
sg29
S'--'
p226
sg31
S'L10-16'
p227
sg33
S'33'
p228
sg35
g112
sg36
S'DEN'
p229
sg38
S'19'
p230
sg40
g10
sg41
S'--'
p231
ssg184
(dp232
g5
S'--'
p233
sg7
S'--'
p234
sg9
g10
sg11
S'--'
p235
sg13
g14
sg15
S'Mychal Rivera'
p236
sg17
S'2015'
p237
sg19
g184
sg21
S'--'
p238
sg23
S'10/04'
p239
sg25
S'6.0'
p240
sg27
S'--'
p241
sg29
S'--'
p242
sg31
S'L20-22'
p243
sg33
S'12'
p244
sg35
g75
sg36
S'@CHI'
p245
sg38
g150
sg40
g10
sg41
S'--'
p246
ssg77
(dp247
g5
S'--'
p248
sg7
S'--'
p249
sg9
g10
sg11
S'--'
p250
sg13
g14
sg15
S'Mychal Rivera'
p251
sg17
S'2015'
p252
sg19
g77
sg21
S'--'
p253
sg23
S'10/25'
p254
sg25
S'5.5'
p255
sg27
S'--'
p256
sg29
S'--'
p257
sg31
S'W37-29'
p258
sg33
S'11'
p259
sg35
g75
sg36
S'@SD'
p260
sg38
g77
sg40
g10
sg41
S'--'
p261
ssg56
(dp262
g5
S''
p263
sg7
g263
sg9
g263
sg11
g263
sg13
g263
sg15
S'Mychal Rivera'
p264
sg17
S'2015'
p265
sg19
g56
sg21
g263
sg23
S'Bye'
p266
sg25
g263
sg27
g263
sg29
g263
sg31
g263
sg33
g263
sg35
g263
sg36
g263
sg38
g263
sg40
g263
sg41
g263
ssS'9'
p267
(dp268
g5
S'--'
p269
sg7
S'--'
p270
sg9
g10
sg11
S'--'
p271
sg13
g14
sg15
S'Mychal Rivera'
p272
sg17
S'2015'
p273
sg19
g267
sg21
S'--'
p274
sg23
S'11/08'
p275
sg25
S'8.0'
p276
sg27
S'--'
p277
sg29
S'--'
p278
sg31
S'L35-38'
p279
sg33
S'16'
p280
sg35
g75
sg36
S'@PIT'
p281
sg38
g150
sg40
g10
sg41
S'--'
p282
ssg150
(dp283
g5
S'--'
p284
sg7
S'--'
p285
sg9
g10
sg11
S'--'
p286
sg13
g14
sg15
S'Mychal Rivera'
p287
sg17
S'2015'
p288
sg19
g150
sg21
S'--'
p289
sg23
S'11/01'
p290
sg25
S'--'
p291
sg27
S'--'
p292
sg29
S'--'
p293
sg31
S'W34-20'
p294
sg33
S'--'
p295
sg35
S'--'
p296
sg36
S'NYJ'
p297
sg38
S'--'
p298
sg40
S'--'
p299
sg41
S'--'
p300
sssS'2014'
p301
(dp302
g3
(dp303
g5
S'--'
p304
sg7
S'--'
p305
sg9
g10
sg11
S'--'
p306
sg13
g14
sg15
S'Mychal Rivera'
p307
sg17
S'2014'
p308
sg19
S'11'
p309
sg21
S'--'
p310
sg23
S'11/16'
p311
sg25
S'13.3'
p312
sg27
S'--'
p313
sg29
S'--'
p314
sg31
S'L6-13'
p315
sg33
S'40'
p316
sg35
g112
sg36
S'@SD'
p317
sg38
S'33'
p318
sg40
g10
sg41
S'--'
p319
ssg43
(dp320
g5
S'--'
p321
sg7
S'--'
p322
sg9
g10
sg11
S'--'
p323
sg13
g14
sg15
S'Mychal Rivera'
p324
sg17
S'2014'
p325
sg19
S'10'
p326
sg21
S'--'
p327
sg23
S'11/09'
p328
sg25
S'10.7'
p329
sg27
S'--'
p330
sg29
S'--'
p331
sg31
S'L17-41'
p332
sg33
S'64'
p333
sg35
g56
sg36
S'DEN'
p334
sg38
S'25'
p335
sg40
g14
sg41
S'--'
p336
ssg60
(dp337
g5
S'--'
p338
sg7
S'--'
p339
sg9
g14
sg11
S'--'
p340
sg13
g14
sg15
S'Mychal Rivera'
p341
sg17
S'2014'
p342
sg19
S'13'
p343
sg21
S'--'
p344
sg23
S'11/30'
p345
sg25
S'7.0'
p346
sg27
S'--'
p347
sg29
S'--'
p348
sg31
S'L0-52'
p349
sg33
S'21'
p350
sg35
g112
sg36
S'@STL'
p351
sg38
S'10'
p352
sg40
g10
sg41
S'--'
p353
ssg79
(dp354
g5
S'--'
p355
sg7
S'--'
p356
sg9
g10
sg11
S'--'
p357
sg13
g14
sg15
S'Mychal Rivera'
p358
sg17
S'2014'
p359
sg19
S'12'
p360
sg21
S'--'
p361
sg23
S'11/20'
p362
sg25
S'8.0'
p363
sg27
S'--'
p364
sg29
S'--'
p365
sg31
S'W24-20'
p366
sg33
g150
sg35
g14
sg36
S'KC'
p367
sg38
g150
sg40
g10
sg41
S'--'
p368
ssg97
(dp369
g5
S'--'
p370
sg7
S'--'
p371
sg9
g14
sg11
S'--'
p372
sg13
g14
sg15
S'Mychal Rivera'
p373
sg17
S'2014'
p374
sg19
S'15'
p375
sg21
S'--'
p376
sg23
S'12/14'
p377
sg25
S'5.6'
p378
sg27
S'--'
p379
sg29
S'--'
p380
sg31
S'L13-31'
p381
sg33
S'39'
p382
sg35
g77
sg36
S'@KC'
p383
sg38
g267
sg40
g10
sg41
S'--'
p384
ssg116
(dp385
g5
S'--'
p386
sg7
S'--'
p387
sg9
g14
sg11
S'--'
p388
sg13
g14
sg15
S'Mychal Rivera'
p389
sg17
S'2014'
p390
sg19
S'14'
p391
sg21
S'--'
p392
sg23
S'12/07'
p393
sg25
S'15.6'
p394
sg27
S'--'
p395
sg29
S'--'
p396
sg31
S'W24-13'
p397
sg33
S'109'
p398
sg35
g77
sg36
S'SF'
p399
sg38
S'27'
p400
sg40
g14
sg41
S'--'
p401
ssg134
(dp402
g5
S'--'
p403
sg7
S'--'
p404
sg9
g14
sg11
S'--'
p405
sg13
g14
sg15
S'Mychal Rivera'
p406
sg17
S'2014'
p407
sg19
S'17'
p408
sg21
S'--'
p409
sg23
S'12/28'
p410
sg25
S'13.0'
p411
sg27
S'--'
p412
sg29
S'--'
p413
sg31
S'L14-47'
p414
sg33
S'26'
p415
sg35
g75
sg36
S'@DEN'
p416
sg38
S'14'
p417
sg40
g10
sg41
S'--'
p418
ssg152
(dp419
g5
S'--'
p420
sg7
S'--'
p421
sg9
g10
sg11
S'--'
p422
sg13
g14
sg15
S'Mychal Rivera'
p423
sg17
S'2014'
p424
sg19
S'16'
p425
sg21
S'--'
p426
sg23
S'12/21'
p427
sg25
S'5.0'
p428
sg27
S'--'
p429
sg29
S'--'
p430
sg31
S'W26-24'
p431
sg33
g217
sg35
g14
sg36
S'BUF'
p432
sg38
g217
sg40
g10
sg41
S'--'
p433
ssg14
(dp434
g5
S'--'
p435
sg7
S'--'
p436
sg9
g14
sg11
S'--'
p437
sg13
g14
sg15
S'Mychal Rivera'
p438
sg17
S'2014'
p439
sg19
g14
sg21
S'--'
p440
sg23
S'09/07'
p441
sg25
S'10.3'
p442
sg27
S'--'
p443
sg29
S'--'
p444
sg31
S'L14-19'
p445
sg33
S'31'
p446
sg35
g112
sg36
S'@NYJ'
p447
sg38
S'13'
p448
sg40
g10
sg41
S'--'
p449
ssg112
(dp450
g5
S'--'
p451
sg7
S'--'
p452
sg9
g14
sg11
S'--'
p453
sg13
g14
sg15
S'Mychal Rivera'
p454
sg17
S'2014'
p455
sg19
g112
sg21
S'--'
p456
sg23
S'09/21'
p457
sg25
S'5.5'
p458
sg27
S'--'
p459
sg29
S'--'
p460
sg31
S'L9-16'
p461
sg33
S'11'
p462
sg35
g75
sg36
S'@NE'
p463
sg38
g150
sg40
g10
sg41
S'--'
p464
ssg75
(dp465
g5
S'--'
p466
sg7
S'--'
p467
sg9
g14
sg11
g14
sg13
g14
sg15
S'Mychal Rivera'
p468
sg17
S'2014'
p469
sg19
g75
sg21
S'--'
p470
sg23
S'09/14'
p471
sg25
S'6.2'
p472
sg27
g14
sg29
S'--'
p473
sg31
S'L14-30'
p474
sg33
S'31'
p475
sg35
g217
sg36
S'HOU'
p476
sg38
S'10'
p477
sg40
g10
sg41
S'--'
p478
ssg217
(dp479
g5
g263
sg7
g263
sg9
g263
sg11
g263
sg13
g263
sg15
S'Mychal Rivera'
p480
sg17
S'2014'
p481
sg19
g217
sg21
g263
sg23
S'Bye'
p482
sg25
g263
sg27
g263
sg29
g263
sg31
g263
sg33
g263
sg35
g263
sg36
g263
sg38
g263
sg40
g263
sg41
g263
ssg184
(dp483
g5
S'--'
p484
sg7
S'--'
p485
sg9
g14
sg11
S'--'
p486
sg13
g14
sg15
S'Mychal Rivera'
p487
sg17
S'2014'
p488
sg19
g184
sg21
S'--'
p489
sg23
S'09/28'
p490
sg25
S'5.0'
p491
sg27
S'--'
p492
sg29
S'--'
p493
sg31
S'L14-38'
p494
sg33
S'10'
p495
sg35
g75
sg36
S'MIA'
p496
sg38
g56
sg40
g10
sg41
S'--'
p497
ssg77
(dp498
g5
S'--'
p499
sg7
S'--'
p500
sg9
g14
sg11
S'--'
p501
sg13
g14
sg15
S'Mychal Rivera'
p502
sg17
S'2014'
p503
sg19
g77
sg21
S'--'
p504
sg23
S'10/19'
p505
sg25
S'18.0'
p506
sg27
S'--'
p507
sg29
S'--'
p508
sg31
S'L13-24'
p509
sg33
S'18'
p510
sg35
g14
sg36
S'ARI'
p511
sg38
S'18'
p512
sg40
g10
sg41
S'--'
p513
ssg56
(dp514
g5
S'--'
p515
sg7
S'--'
p516
sg9
g14
sg11
S'--'
p517
sg13
g14
sg15
S'Mychal Rivera'
p518
sg17
S'2014'
p519
sg19
g56
sg21
S'--'
p520
sg23
S'10/12'
p521
sg25
S'--'
p522
sg27
S'--'
p523
sg29
S'--'
p524
sg31
S'L28-31'
p525
sg33
g10
sg35
g10
sg36
S'SD'
p526
sg38
S'--'
p527
sg40
g10
sg41
S'--'
p528
ssg267
(dp529
g5
S'--'
p530
sg7
S'--'
p531
sg9
g10
sg11
g10
sg13
g14
sg15
S'Mychal Rivera'
p532
sg17
S'2014'
p533
sg19
g267
sg21
S'--'
p534
sg23
S'11/02'
p535
sg25
S'4.8'
p536
sg27
g75
sg29
S'--'
p537
sg31
S'L24-30'
p538
sg33
S'38'
p539
sg35
g150
sg36
S'@SEA'
p540
sg38
S'16'
p541
sg40
g75
sg41
S'--'
p542
ssg150
(dp543
g5
S'--'
p544
sg7
S'--'
p545
sg9
g10
sg11
S'--'
p546
sg13
g14
sg15
S'Mychal Rivera'
p547
sg17
S'2014'
p548
sg19
g150
sg21
S'--'
p549
sg23
S'10/26'
p550
sg25
S'11.9'
p551
sg27
S'--'
p552
sg29
S'--'
p553
sg31
S'L13-23'
p554
sg33
S'83'
p555
sg35
g77
sg36
S'@CLE'
p556
sg38
S'22'
p557
sg40
g10
sg41
S'--'
p558
sssS'2013'
p559
(dp560
g3
(dp561
g5
S'--'
p562
sg7
S'--'
p563
sg9
g10
sg11
S'--'
p564
sg13
g14
sg15
S'Mychal Rivera'
p565
sg17
S'2013'
p566
sg19
S'11'
p567
sg21
S'--'
p568
sg23
S'11/17'
p569
sg25
S'10.8'
p570
sg27
S'--'
p571
sg29
S'--'
p572
sg31
S'W28-23'
p573
sg33
S'54'
p574
sg35
g217
sg36
S'@HOU'
p575
sg38
S'26T'
p576
sg40
g14
sg41
S'--'
p577
ssg43
(dp578
g5
S'--'
p579
sg7
S'--'
p580
sg9
g14
sg11
S'--'
p581
sg13
g14
sg15
S'Mychal Rivera'
p582
sg17
S'2013'
p583
sg19
S'10'
p584
sg21
S'--'
p585
sg23
S'11/10'
p586
sg25
S'11.0'
p587
sg27
S'--'
p588
sg29
S'--'
p589
sg31
S'L20-24'
p590
sg33
S'22'
p591
sg35
g75
sg36
S'@NYG'
p592
sg38
S'16'
p593
sg40
g10
sg41
S'--'
p594
ssg60
(dp595
g5
S'--'
p596
sg7
S'--'
p597
sg9
g14
sg11
S'--'
p598
sg13
g14
sg15
S'Mychal Rivera'
p599
sg17
S'2013'
p600
sg19
S'13'
p601
sg21
S'--'
p602
sg23
S'11/28'
p603
sg25
S'15.0'
p604
sg27
S'--'
p605
sg29
S'--'
p606
sg31
S'L24-31'
p607
sg33
S'30'
p608
sg35
g75
sg36
S'@DAL'
p609
sg38
S'22'
p610
sg40
g10
sg41
S'--'
p611
ssg79
(dp612
g5
S'--'
p613
sg7
S'--'
p614
sg9
g10
sg11
S'--'
p615
sg13
g14
sg15
S'Mychal Rivera'
p616
sg17
S'2013'
p617
sg19
S'12'
p618
sg21
S'--'
p619
sg23
S'11/24'
p620
sg25
S'10.0'
p621
sg27
S'--'
p622
sg29
S'--'
p623
sg31
S'L19-23'
p624
sg33
S'10'
p625
sg35
g14
sg36
S'TEN'
p626
sg38
S'10'
p627
sg40
g10
sg41
S'--'
p628
ssg97
(dp629
g5
S'--'
p630
sg7
S'--'
p631
sg9
g10
sg11
S'--'
p632
sg13
g14
sg15
S'Mychal Rivera'
p633
sg17
S'2013'
p634
sg19
S'15'
p635
sg21
S'--'
p636
sg23
S'12/15'
p637
sg25
S'10.0'
p638
sg27
S'--'
p639
sg29
S'--'
p640
sg31
S'L31-56'
p641
sg33
S'30'
p642
sg35
g112
sg36
S'KC'
p643
sg38
S'14T'
p644
sg40
g14
sg41
S'--'
p645
ssg116
(dp646
g5
S'--'
p647
sg7
S'--'
p648
sg9
g10
sg11
S'--'
p649
sg13
g14
sg15
S'Mychal Rivera'
p650
sg17
S'2013'
p651
sg19
S'14'
p652
sg21
S'--'
p653
sg23
S'12/08'
p654
sg25
S'4.2'
p655
sg27
S'--'
p656
sg29
S'--'
p657
sg31
S'L27-37'
p658
sg33
S'21'
p659
sg35
g217
sg36
S'@NYJ'
p660
sg38
S'11'
p661
sg40
g14
sg41
S'--'
p662
ssg134
(dp663
g5
S'--'
p664
sg7
S'--'
p665
sg9
g10
sg11
S'--'
p666
sg13
g14
sg15
S'Mychal Rivera'
p667
sg17
S'2013'
p668
sg19
S'17'
p669
sg21
S'--'
p670
sg23
S'12/29'
p671
sg25
S'11.5'
p672
sg27
S'--'
p673
sg29
S'--'
p674
sg31
S'L14-34'
p675
sg33
S'23'
p676
sg35
g75
sg36
S'DEN'
p677
sg38
S'17'
p678
sg40
g10
sg41
S'--'
p679
ssg152
(dp680
g5
S'--'
p681
sg7
S'--'
p682
sg9
g10
sg11
S'--'
p683
sg13
g14
sg15
S'Mychal Rivera'
p684
sg17
S'2013'
p685
sg19
S'16'
p686
sg21
S'--'
p687
sg23
S'12/22'
p688
sg25
S'21.5'
p689
sg27
S'--'
p690
sg29
S'--'
p691
sg31
S'L13-26'
p692
sg33
S'43'
p693
sg35
g75
sg36
S'@SD'
p694
sg38
S'37'
p695
sg40
g10
sg41
S'--'
p696
ssg14
(dp697
g5
S'--'
p698
sg7
S'--'
p699
sg9
g10
sg11
S'--'
p700
sg13
g14
sg15
S'Mychal Rivera'
p701
sg17
S'2013'
p702
sg19
g14
sg21
S'--'
p703
sg23
S'09/08'
p704
sg25
S'13.0'
p705
sg27
S'--'
p706
sg29
S'--'
p707
sg31
S'L17-21'
p708
sg33
S'26'
p709
sg35
g75
sg36
S'@IND'
p710
sg38
S'19'
p711
sg40
g10
sg41
S'--'
p712
ssg112
(dp713
g5
S'--'
p714
sg7
S'--'
p715
sg9
g10
sg11
S'--'
p716
sg13
g14
sg15
S'Mychal Rivera'
p717
sg17
S'2013'
p718
sg19
g112
sg21
S'--'
p719
sg23
S'09/23'
p720
sg25
S'10.5'
p721
sg27
S'--'
p722
sg29
S'--'
p723
sg31
S'L21-37'
p724
sg33
S'21'
p725
sg35
g75
sg36
S'@DEN'
p726
sg38
S'20'
p727
sg40
g10
sg41
S'--'
p728
ssg75
(dp729
g5
S'--'
p730
sg7
S'--'
p731
sg9
g10
sg11
S'--'
p732
sg13
g14
sg15
S'Mychal Rivera'
p733
sg17
S'2013'
p734
sg19
g75
sg21
S'--'
p735
sg23
S'09/15'
p736
sg25
S'10.7'
p737
sg27
S'--'
p738
sg29
S'--'
p739
sg31
S'W19-9'
p740
sg33
S'32'
p741
sg35
g112
sg36
S'JAC'
p742
sg38
S'11'
p743
sg40
g10
sg41
S'--'
p744
ssg217
(dp745
g5
S'--'
p746
sg7
S'--'
p747
sg9
g14
sg11
S'--'
p748
sg13
g14
sg15
S'Mychal Rivera'
p749
sg17
S'2013'
p750
sg19
g217
sg21
S'--'
p751
sg23
S'10/06'
p752
sg25
S'5.0'
p753
sg27
S'--'
p754
sg29
S'--'
p755
sg31
S'W27-17'
p756
sg33
g217
sg35
g14
sg36
S'SD'
p757
sg38
g217
sg40
g10
sg41
S'--'
p758
ssg184
(dp759
g5
S'--'
p760
sg7
S'--'
p761
sg9
g10
sg11
S'--'
p762
sg13
g14
sg15
S'Mychal Rivera'
p763
sg17
S'2013'
p764
sg19
g184
sg21
S'--'
p765
sg23
S'09/29'
p766
sg25
S'22.0'
p767
sg27
S'--'
p768
sg29
S'--'
p769
sg31
S'L14-24'
p770
sg33
S'44'
p771
sg35
g75
sg36
S'WAS'
p772
sg38
S'26'
p773
sg40
g14
sg41
S'--'
p774
ssg77
(dp775
g5
g263
sg7
g263
sg9
g263
sg11
g263
sg13
g263
sg15
S'Mychal Rivera'
p776
sg17
S'2013'
p777
sg19
g77
sg21
g263
sg23
S'Bye'
p778
sg25
g263
sg27
g263
sg29
g263
sg31
g263
sg33
g263
sg35
g263
sg36
g263
sg38
g263
sg40
g263
sg41
g263
ssg56
(dp779
g5
S'--'
p780
sg7
S'--'
p781
sg9
g10
sg11
S'--'
p782
sg13
g14
sg15
S'Mychal Rivera'
p783
sg17
S'2013'
p784
sg19
g56
sg21
S'--'
p785
sg23
S'10/13'
p786
sg25
S'5.0'
p787
sg27
S'--'
p788
sg29
S'--'
p789
sg31
S'L7-24'
p790
sg33
S'10'
p791
sg35
g75
sg36
S'@KC'
p792
sg38
g56
sg40
g10
sg41
S'--'
p793
ssg267
(dp794
g5
S'--'
p795
sg7
S'--'
p796
sg9
g10
sg11
S'--'
p797
sg13
g14
sg15
S'Mychal Rivera'
p798
sg17
S'2013'
p799
sg19
g267
sg21
S'--'
p800
sg23
S'11/03'
p801
sg25
S'9.0'
p802
sg27
S'--'
p803
sg29
S'--'
p804
sg31
S'L20-49'
p805
sg33
S'36'
p806
sg35
g184
sg36
S'PHI'
p807
sg38
S'12'
p808
sg40
g10
sg41
S'--'
p809
ssg150
(dp810
g5
S'--'
p811
sg7
S'--'
p812
sg9
g10
sg11
S'--'
p813
sg13
g14
sg15
S'Mychal Rivera'
p814
sg17
S'2013'
p815
sg19
g150
sg21
S'--'
p816
sg23
S'10/27'
p817
sg25
S'--'
p818
sg27
S'--'
p819
sg29
S'--'
p820
sg31
S'W21-18'
p821
sg33
g10
sg35
g10
sg36
S'PIT'
p822
sg38
S'--'
p823
sg40
g10
sg41
S'--'
p824
sss.