(dp0
S'2015'
p1
(dp2
S'11'
p3
(dp4
S'RushTD'
p5
S'--'
p6
sS'RushYds'
p7
S'--'
p8
sS'GS'
p9
S'0'
p10
sS'Lost'
p11
S'--'
p12
sS'G'
p13
S'1'
p14
sS'Player'
p15
S'MyCole Pruitt'
p16
sS'Year'
p17
S'2015'
p18
sS'WK'
p19
S'11'
p20
sS'RushAvg'
p21
S'--'
p22
sS'Game Date'
p23
S'11/22'
p24
sS'RecAvg'
p25
S'8.0'
p26
sS'FUM'
p27
S'--'
p28
sS'RushAtt'
p29
S'--'
p30
sS'Result'
p31
S'L13-30'
p32
sS'RecYds'
p33
S'8'
p34
sS'Rec'
p35
g14
sS'Opp'
p36
S'GB'
p37
sS'RecLng'
p38
g34
sS'RecTD'
p39
g10
sS'RushLng'
p40
S'--'
p41
ssS'10'
p42
(dp43
g5
S'--'
p44
sg7
S'--'
p45
sg9
g14
sg11
S'--'
p46
sg13
g14
sg15
S'MyCole Pruitt'
p47
sg17
S'2015'
p48
sg19
S'10'
p49
sg21
S'--'
p50
sg23
S'11/15'
p51
sg25
S'3.5'
p52
sg27
S'--'
p53
sg29
S'--'
p54
sg31
S'W30-14'
p55
sg33
S'7'
p56
sg35
S'2'
p57
sg36
S'@OAK'
p58
sg38
S'4'
p59
sg39
g10
sg40
S'--'
p60
ssS'13'
p61
(dp62
g5
S'--'
p63
sg7
S'--'
p64
sg9
g10
sg11
S'--'
p65
sg13
g14
sg15
S'MyCole Pruitt'
p66
sg17
S'2015'
p67
sg19
S'13'
p68
sg21
S'--'
p69
sg23
S'12/06'
p70
sg25
S'4.0'
p71
sg27
S'--'
p72
sg29
S'--'
p73
sg31
S'L7-38'
p74
sg33
g59
sg35
g14
sg36
S'SEA'
p75
sg38
g59
sg39
g10
sg40
S'--'
p76
ssS'12'
p77
(dp78
g5
S'--'
p79
sg7
S'--'
p80
sg9
g10
sg11
S'--'
p81
sg13
g14
sg15
S'MyCole Pruitt'
p82
sg17
S'2015'
p83
sg19
S'12'
p84
sg21
S'--'
p85
sg23
S'11/29'
p86
sg25
S'--'
p87
sg27
S'--'
p88
sg29
S'--'
p89
sg31
S'W20-10'
p90
sg33
S'--'
p91
sg35
S'--'
p92
sg36
S'@ATL'
p93
sg38
S'--'
p94
sg39
S'--'
p95
sg40
S'--'
p96
ssS'15'
p97
(dp98
g5
S'--'
p99
sg7
S'--'
p100
sg9
g14
sg11
S'--'
p101
sg13
g14
sg15
S'MyCole Pruitt'
p102
sg17
S'2015'
p103
sg19
S'15'
p104
sg21
S'--'
p105
sg23
S'12/20'
p106
sg25
S'--'
p107
sg27
S'--'
p108
sg29
S'--'
p109
sg31
S'W38-17'
p110
sg33
S'--'
p111
sg35
S'--'
p112
sg36
S'CHI'
p113
sg38
S'--'
p114
sg39
S'--'
p115
sg40
S'--'
p116
ssS'14'
p117
(dp118
g5
S'--'
p119
sg7
S'--'
p120
sg9
g10
sg11
S'--'
p121
sg13
g14
sg15
S'MyCole Pruitt'
p122
sg17
S'2015'
p123
sg19
S'14'
p124
sg21
S'--'
p125
sg23
S'12/10'
p126
sg25
S'18.0'
p127
sg27
S'--'
p128
sg29
S'--'
p129
sg31
S'L20-23'
p130
sg33
S'36'
p131
sg35
g57
sg36
S'@ARI'
p132
sg38
S'32'
p133
sg39
g10
sg40
S'--'
p134
ssS'17'
p135
(dp136
g5
S'--'
p137
sg7
S'--'
p138
sg9
g10
sg11
S'--'
p139
sg13
g14
sg15
S'MyCole Pruitt'
p140
sg17
S'2015'
p141
sg19
S'17'
p142
sg21
S'--'
p143
sg23
S'01/03'
p144
sg25
S'--'
p145
sg27
S'--'
p146
sg29
S'--'
p147
sg31
S'W20-13'
p148
sg33
g10
sg35
g10
sg36
S'@GB'
p149
sg38
S'--'
p150
sg39
g10
sg40
S'--'
p151
ssS'16'
p152
(dp153
g5
S'--'
p154
sg7
S'--'
p155
sg9
g14
sg11
S'--'
p156
sg13
g14
sg15
S'MyCole Pruitt'
p157
sg17
S'2015'
p158
sg19
S'16'
p159
sg21
S'--'
p160
sg23
S'12/27'
p161
sg25
S'--'
p162
sg27
S'--'
p163
sg29
S'--'
p164
sg31
S'W49-17'
p165
sg33
S'--'
p166
sg35
S'--'
p167
sg36
S'NYG'
p168
sg38
S'--'
p169
sg39
S'--'
p170
sg40
S'--'
p171
ssg14
(dp172
g5
S'--'
p173
sg7
S'--'
p174
sg9
g10
sg11
S'--'
p175
sg13
g14
sg15
S'MyCole Pruitt'
p176
sg17
S'2015'
p177
sg19
g14
sg21
S'--'
p178
sg23
S'09/14'
p179
sg25
S'--'
p180
sg27
S'--'
p181
sg29
S'--'
p182
sg31
S'L3-20'
p183
sg33
S'--'
p184
sg35
S'--'
p185
sg36
S'@SF'
p186
sg38
S'--'
p187
sg39
S'--'
p188
sg40
S'--'
p189
ssS'3'
p190
(dp191
g5
S'--'
p192
sg7
S'--'
p193
sg9
g10
sg11
S'--'
p194
sg13
g14
sg15
S'MyCole Pruitt'
p195
sg17
S'2015'
p196
sg19
g190
sg21
S'--'
p197
sg23
S'09/27'
p198
sg25
S'--'
p199
sg27
S'--'
p200
sg29
S'--'
p201
sg31
S'W31-14'
p202
sg33
g10
sg35
g10
sg36
S'SD'
p203
sg38
S'--'
p204
sg39
g10
sg40
S'--'
p205
ssg57
(dp206
g5
S'--'
p207
sg7
S'--'
p208
sg9
g10
sg11
S'--'
p209
sg13
g14
sg15
S'MyCole Pruitt'
p210
sg17
S'2015'
p211
sg19
g57
sg21
S'--'
p212
sg23
S'09/20'
p213
sg25
S'--'
p214
sg27
S'--'
p215
sg29
S'--'
p216
sg31
S'W26-16'
p217
sg33
S'--'
p218
sg35
S'--'
p219
sg36
S'DET'
p220
sg38
S'--'
p221
sg39
S'--'
p222
sg40
S'--'
p223
ssS'5'
p224
(dp225
g5
S''
p226
sg7
g226
sg9
g226
sg11
g226
sg13
g226
sg15
S'MyCole Pruitt'
p227
sg17
S'2015'
p228
sg19
g224
sg21
g226
sg23
S'Bye'
p229
sg25
g226
sg27
g226
sg29
g226
sg31
g226
sg33
g226
sg35
g226
sg36
g226
sg38
g226
sg39
g226
sg40
g226
ssg59
(dp230
g5
S'--'
p231
sg7
S'--'
p232
sg9
g10
sg11
S'--'
p233
sg13
g14
sg15
S'MyCole Pruitt'
p234
sg17
S'2015'
p235
sg19
g59
sg21
S'--'
p236
sg23
S'10/04'
p237
sg25
S'--'
p238
sg27
S'--'
p239
sg29
S'--'
p240
sg31
S'L20-23'
p241
sg33
g10
sg35
g10
sg36
S'@DEN'
p242
sg38
S'--'
p243
sg39
g10
sg40
S'--'
p244
ssg56
(dp245
g5
S'--'
p246
sg7
S'--'
p247
sg9
g10
sg11
S'--'
p248
sg13
g14
sg15
S'MyCole Pruitt'
p249
sg17
S'2015'
p250
sg19
g56
sg21
S'--'
p251
sg23
S'10/25'
p252
sg25
S'13.0'
p253
sg27
S'--'
p254
sg29
S'--'
p255
sg31
S'W28-19'
p256
sg33
S'13'
p257
sg35
g14
sg36
S'@DET'
p258
sg38
S'13'
p259
sg39
g10
sg40
S'--'
p260
ssS'6'
p261
(dp262
g5
S'--'
p263
sg7
S'--'
p264
sg9
g10
sg11
S'--'
p265
sg13
g14
sg15
S'MyCole Pruitt'
p266
sg17
S'2015'
p267
sg19
g261
sg21
S'--'
p268
sg23
S'10/18'
p269
sg25
S'--'
p270
sg27
S'--'
p271
sg29
S'--'
p272
sg31
S'W16-10'
p273
sg33
S'--'
p274
sg35
S'--'
p275
sg36
S'KC'
p276
sg38
S'--'
p277
sg39
S'--'
p278
sg40
S'--'
p279
ssS'9'
p280
(dp281
g5
S'--'
p282
sg7
S'--'
p283
sg9
g10
sg11
S'--'
p284
sg13
g14
sg15
S'MyCole Pruitt'
p285
sg17
S'2015'
p286
sg19
g280
sg21
S'--'
p287
sg23
S'11/08'
p288
sg25
S'6.0'
p289
sg27
S'--'
p290
sg29
S'--'
p291
sg31
S'W21-18'
p292
sg33
g261
sg35
g14
sg36
S'STL'
p293
sg38
g261
sg39
g10
sg40
S'--'
p294
ssg34
(dp295
g5
S'--'
p296
sg7
S'--'
p297
sg9
g10
sg11
S'--'
p298
sg13
g14
sg15
S'MyCole Pruitt'
p299
sg17
S'2015'
p300
sg19
g34
sg21
S'--'
p301
sg23
S'11/01'
p302
sg25
S'7.5'
p303
sg27
S'--'
p304
sg29
S'--'
p305
sg31
S'W23-20'
p306
sg33
S'15'
p307
sg35
g57
sg36
S'@CHI'
p308
sg38
g280
sg39
g10
sg40
S'--'
p309
sss.