(dp0
S'2015'
p1
(dp2
S'11'
p3
(dp4
S'RushTD'
p5
S'--'
p6
sS'RushYds'
p7
S'--'
p8
sS'GS'
p9
S'0'
p10
sS'Lost'
p11
S'--'
p12
sS'G'
p13
g10
sS'Player'
p14
S'Nic Jacobs'
p15
sS'Year'
p16
S'2015'
p17
sS'WK'
p18
S'11'
p19
sS'RushAvg'
p20
S'--'
p21
sS'Game Date'
p22
S'11/19'
p23
sS'RecAvg'
p24
S'--'
p25
sS'FUM'
p26
S'--'
p27
sS'RushAtt'
p28
S'--'
p29
sS'Result'
p30
S'W19-13'
p31
sS'RecYds'
p32
S'--'
p33
sS'Rec'
p34
S'--'
p35
sS'Opp'
p36
S'TEN'
p37
sS'RecLng'
p38
S'--'
p39
sS'RecTD'
p40
S'--'
p41
sS'RushLng'
p42
S'--'
p43
ssS'10'
p44
(dp45
g5
S'--'
p46
sg7
S'--'
p47
sg9
g10
sg11
S'--'
p48
sg13
S'1'
p49
sg14
S'Nic Jacobs'
p50
sg16
S'2015'
p51
sg18
S'10'
p52
sg20
S'--'
p53
sg22
S'11/15'
p54
sg24
S'--'
p55
sg26
S'--'
p56
sg28
S'--'
p57
sg30
S'W22-20'
p58
sg32
S'--'
p59
sg34
S'--'
p60
sg36
S'@BAL'
p61
sg38
S'--'
p62
sg40
S'--'
p63
sg42
S'--'
p64
ssS'13'
p65
(dp66
g5
S'--'
p67
sg7
S'--'
p68
sg9
g10
sg11
S'--'
p69
sg13
g49
sg14
S'Nic Jacobs'
p70
sg16
S'2015'
p71
sg18
S'13'
p72
sg20
S'--'
p73
sg22
S'12/06'
p74
sg24
S'--'
p75
sg26
S'--'
p76
sg28
S'--'
p77
sg30
S'L39-42'
p78
sg32
S'--'
p79
sg34
S'--'
p80
sg36
S'@TEN'
p81
sg38
S'--'
p82
sg40
S'--'
p83
sg42
S'--'
p84
ssS'12'
p85
(dp86
g5
S'--'
p87
sg7
S'--'
p88
sg9
g10
sg11
S'--'
p89
sg13
g49
sg14
S'Nic Jacobs'
p90
sg16
S'2015'
p91
sg18
S'12'
p92
sg20
S'--'
p93
sg22
S'11/29'
p94
sg24
S'--'
p95
sg26
S'--'
p96
sg28
S'--'
p97
sg30
S'L25-31'
p98
sg32
S'--'
p99
sg34
S'--'
p100
sg36
S'SD'
p101
sg38
S'--'
p102
sg40
S'--'
p103
sg42
S'--'
p104
ssS'15'
p105
(dp106
g5
S'--'
p107
sg7
S'--'
p108
sg9
g10
sg11
S'--'
p109
sg13
g10
sg14
S'Nic Jacobs'
p110
sg16
S'2015'
p111
sg18
S'15'
p112
sg20
S'--'
p113
sg22
S'12/20'
p114
sg24
S'--'
p115
sg26
S'--'
p116
sg28
S'--'
p117
sg30
S'L17-23'
p118
sg32
S'--'
p119
sg34
S'--'
p120
sg36
S'ATL'
p121
sg38
S'--'
p122
sg40
S'--'
p123
sg42
S'--'
p124
ssS'14'
p125
(dp126
g5
S'--'
p127
sg7
S'--'
p128
sg9
g10
sg11
S'--'
p129
sg13
g10
sg14
S'Nic Jacobs'
p130
sg16
S'2015'
p131
sg18
S'14'
p132
sg20
S'--'
p133
sg22
S'12/13'
p134
sg24
S'--'
p135
sg26
S'--'
p136
sg28
S'--'
p137
sg30
S'W51-16'
p138
sg32
S'--'
p139
sg34
S'--'
p140
sg36
S'IND'
p141
sg38
S'--'
p142
sg40
S'--'
p143
sg42
S'--'
p144
ssS'17'
p145
(dp146
g5
S'--'
p147
sg7
S'--'
p148
sg9
g10
sg11
S'--'
p149
sg13
g10
sg14
S'Nic Jacobs'
p150
sg16
S'2015'
p151
sg18
S'17'
p152
sg20
S'--'
p153
sg22
S'01/03'
p154
sg24
S'--'
p155
sg26
S'--'
p156
sg28
S'--'
p157
sg30
S'L6-30'
p158
sg32
S'--'
p159
sg34
S'--'
p160
sg36
S'@HOU'
p161
sg38
S'--'
p162
sg40
S'--'
p163
sg42
S'--'
p164
ssS'16'
p165
(dp166
g5
S'--'
p167
sg7
S'--'
p168
sg9
g10
sg11
S'--'
p169
sg13
g10
sg14
S'Nic Jacobs'
p170
sg16
S'2015'
p171
sg18
S'16'
p172
sg20
S'--'
p173
sg22
S'12/27'
p174
sg24
S'--'
p175
sg26
S'--'
p176
sg28
S'--'
p177
sg30
S'L27-38'
p178
sg32
S'--'
p179
sg34
S'--'
p180
sg36
S'@NO'
p181
sg38
S'--'
p182
sg40
S'--'
p183
sg42
S'--'
p184
ssg49
(dp185
g5
S'--'
p186
sg7
S'--'
p187
sg9
g49
sg11
S'--'
p188
sg13
g49
sg14
S'Nic Jacobs'
p189
sg16
S'2015'
p190
sg18
g49
sg20
S'--'
p191
sg22
S'09/13'
p192
sg24
S'--'
p193
sg26
S'--'
p194
sg28
S'--'
p195
sg30
S'L9-20'
p196
sg32
S'--'
p197
sg34
S'--'
p198
sg36
S'CAR'
p199
sg38
S'--'
p200
sg40
S'--'
p201
sg42
S'--'
p202
ssS'3'
p203
(dp204
g5
S'--'
p205
sg7
S'--'
p206
sg9
g10
sg11
S'--'
p207
sg13
g49
sg14
S'Nic Jacobs'
p208
sg16
S'2015'
p209
sg18
g203
sg20
S'--'
p210
sg22
S'09/27'
p211
sg24
S'--'
p212
sg26
S'--'
p213
sg28
S'--'
p214
sg30
S'L17-51'
p215
sg32
S'--'
p216
sg34
S'--'
p217
sg36
S'@NE'
p218
sg38
S'--'
p219
sg40
S'--'
p220
sg42
S'--'
p221
ssS'2'
p222
(dp223
g5
S'--'
p224
sg7
S'--'
p225
sg9
g49
sg11
S'--'
p226
sg13
g49
sg14
S'Nic Jacobs'
p227
sg16
S'2015'
p228
sg18
g222
sg20
S'--'
p229
sg22
S'09/20'
p230
sg24
S'--'
p231
sg26
S'--'
p232
sg28
S'--'
p233
sg30
S'W23-20'
p234
sg32
S'--'
p235
sg34
S'--'
p236
sg36
S'MIA'
p237
sg38
S'--'
p238
sg40
S'--'
p239
sg42
S'--'
p240
ssS'5'
p241
(dp242
g5
S'--'
p243
sg7
S'--'
p244
sg9
g10
sg11
S'--'
p245
sg13
g49
sg14
S'Nic Jacobs'
p246
sg16
S'2015'
p247
sg18
g241
sg20
S'--'
p248
sg22
S'10/11'
p249
sg24
S'--'
p250
sg26
S'--'
p251
sg28
S'--'
p252
sg30
S'L31-38'
p253
sg32
S'--'
p254
sg34
S'--'
p255
sg36
S'@TB'
p256
sg38
S'--'
p257
sg40
S'--'
p258
sg42
S'--'
p259
ssS'4'
p260
(dp261
g5
S'--'
p262
sg7
S'--'
p263
sg9
g10
sg11
S'--'
p264
sg13
g49
sg14
S'Nic Jacobs'
p265
sg16
S'2015'
p266
sg18
g260
sg20
S'--'
p267
sg22
S'10/04'
p268
sg24
S'--'
p269
sg26
S'--'
p270
sg28
S'--'
p271
sg30
S'L13-16'
p272
sg32
S'--'
p273
sg34
S'--'
p274
sg36
S'@IND'
p275
sg38
S'--'
p276
sg40
S'--'
p277
sg42
S'--'
p278
ssS'7'
p279
(dp280
g5
S'--'
p281
sg7
S'--'
p282
sg9
g10
sg11
S'--'
p283
sg13
g49
sg14
S'Nic Jacobs'
p284
sg16
S'2015'
p285
sg18
g279
sg20
S'--'
p286
sg22
S'10/25'
p287
sg24
S'--'
p288
sg26
S'--'
p289
sg28
S'--'
p290
sg30
S'W34-31'
p291
sg32
g10
sg34
g10
sg36
S'BUF'
p292
sg38
S'--'
p293
sg40
g10
sg42
S'--'
p294
ssS'6'
p295
(dp296
g5
S'--'
p297
sg7
S'--'
p298
sg9
g10
sg11
S'--'
p299
sg13
g49
sg14
S'Nic Jacobs'
p300
sg16
S'2015'
p301
sg18
g295
sg20
S'--'
p302
sg22
S'10/18'
p303
sg24
S'--'
p304
sg26
S'--'
p305
sg28
S'--'
p306
sg30
S'L20-31'
p307
sg32
S'--'
p308
sg34
S'--'
p309
sg36
S'HOU'
p310
sg38
S'--'
p311
sg40
S'--'
p312
sg42
S'--'
p313
ssS'9'
p314
(dp315
g5
S'--'
p316
sg7
S'--'
p317
sg9
g10
sg11
S'--'
p318
sg13
g49
sg14
S'Nic Jacobs'
p319
sg16
S'2015'
p320
sg18
g314
sg20
S'--'
p321
sg22
S'11/08'
p322
sg24
S'6.0'
p323
sg26
S'--'
p324
sg28
S'--'
p325
sg30
S'L23-28'
p326
sg32
g295
sg34
g49
sg36
S'@NYJ'
p327
sg38
g295
sg40
g10
sg42
S'--'
p328
ssS'8'
p329
(dp330
g5
S''
p331
sg7
g331
sg9
g331
sg11
g331
sg13
g331
sg14
S'Nic Jacobs'
p332
sg16
S'2015'
p333
sg18
g329
sg20
g331
sg22
S'Bye'
p334
sg24
g331
sg26
g331
sg28
g331
sg30
g331
sg32
g331
sg34
g331
sg36
g331
sg38
g331
sg40
g331
sg42
g331
sssS'2014'
p335
(dp336
g3
(dp337
g5
g331
sg7
g331
sg9
g331
sg11
g331
sg13
g331
sg14
S'Nic Jacobs'
p338
sg16
S'2014'
p339
sg18
S'11'
p340
sg20
g331
sg22
S'Bye'
p341
sg24
g331
sg26
g331
sg28
g331
sg30
g331
sg32
g331
sg34
g331
sg36
g331
sg38
g331
sg40
g331
sg42
g331
ssg44
(dp342
g5
S'--'
p343
sg7
S'--'
p344
sg9
g49
sg11
S'--'
p345
sg13
g49
sg14
S'Nic Jacobs'
p346
sg16
S'2014'
p347
sg18
S'10'
p348
sg20
S'--'
p349
sg22
S'11/09'
p350
sg24
S'14.0'
p351
sg26
S'--'
p352
sg28
S'--'
p353
sg30
S'L17-31'
p354
sg32
S'14'
p355
sg34
g49
sg36
S'DAL'
p356
sg38
S'14'
p357
sg40
g10
sg42
S'--'
p358
ssg65
(dp359
g5
S'--'
p360
sg7
S'--'
p361
sg9
g10
sg11
S'--'
p362
sg13
g49
sg14
S'Nic Jacobs'
p363
sg16
S'2014'
p364
sg18
S'13'
p365
sg20
S'--'
p366
sg22
S'11/30'
p367
sg24
S'--'
p368
sg26
S'--'
p369
sg28
S'--'
p370
sg30
S'W25-24'
p371
sg32
S'--'
p372
sg34
S'--'
p373
sg36
S'NYG'
p374
sg38
S'--'
p375
sg40
S'--'
p376
sg42
S'--'
p377
ssg85
(dp378
g5
S'--'
p379
sg7
S'--'
p380
sg9
g49
sg11
S'--'
p381
sg13
g49
sg14
S'Nic Jacobs'
p382
sg16
S'2014'
p383
sg18
S'12'
p384
sg20
S'--'
p385
sg22
S'11/23'
p386
sg24
S'--'
p387
sg26
S'--'
p388
sg28
S'--'
p389
sg30
S'L3-23'
p390
sg32
S'--'
p391
sg34
S'--'
p392
sg36
S'@IND'
p393
sg38
S'--'
p394
sg40
S'--'
p395
sg42
S'--'
p396
ssg105
(dp397
g5
S'--'
p398
sg7
S'--'
p399
sg9
g10
sg11
S'--'
p400
sg13
g49
sg14
S'Nic Jacobs'
p401
sg16
S'2014'
p402
sg18
S'15'
p403
sg20
S'--'
p404
sg22
S'12/14'
p405
sg24
S'--'
p406
sg26
S'--'
p407
sg28
S'--'
p408
sg30
S'L12-20'
p409
sg32
S'--'
p410
sg34
S'--'
p411
sg36
S'@BAL'
p412
sg38
S'--'
p413
sg40
S'--'
p414
sg42
S'--'
p415
ssg125
(dp416
g5
S'--'
p417
sg7
S'--'
p418
sg9
g10
sg11
S'--'
p419
sg13
g49
sg14
S'Nic Jacobs'
p420
sg16
S'2014'
p421
sg18
S'14'
p422
sg20
S'--'
p423
sg22
S'12/07'
p424
sg24
S'--'
p425
sg26
S'--'
p426
sg28
S'--'
p427
sg30
S'L13-27'
p428
sg32
S'--'
p429
sg34
S'--'
p430
sg36
S'HOU'
p431
sg38
S'--'
p432
sg40
S'--'
p433
sg42
S'--'
p434
ssg145
(dp435
g5
S'--'
p436
sg7
S'--'
p437
sg9
g10
sg11
S'--'
p438
sg13
g49
sg14
S'Nic Jacobs'
p439
sg16
S'2014'
p440
sg18
S'17'
p441
sg20
S'--'
p442
sg22
S'12/28'
p443
sg24
S'--'
p444
sg26
S'--'
p445
sg28
S'--'
p446
sg30
S'L17-23'
p447
sg32
S'--'
p448
sg34
S'--'
p449
sg36
S'@HOU'
p450
sg38
S'--'
p451
sg40
S'--'
p452
sg42
S'--'
p453
ssg165
(dp454
g5
S'--'
p455
sg7
S'--'
p456
sg9
g10
sg11
S'--'
p457
sg13
g49
sg14
S'Nic Jacobs'
p458
sg16
S'2014'
p459
sg18
S'16'
p460
sg20
S'--'
p461
sg22
S'12/18'
p462
sg24
S'--'
p463
sg26
S'--'
p464
sg28
S'--'
p465
sg30
S'W21-13'
p466
sg32
S'--'
p467
sg34
S'--'
p468
sg36
S'TEN'
p469
sg38
S'--'
p470
sg40
S'--'
p471
sg42
S'--'
p472
ssg241
(dp473
g5
S'--'
p474
sg7
S'--'
p475
sg9
g49
sg11
S'--'
p476
sg13
g49
sg14
S'Nic Jacobs'
p477
sg16
S'2014'
p478
sg18
g241
sg20
S'--'
p479
sg22
S'10/05'
p480
sg24
S'--'
p481
sg26
S'--'
p482
sg28
S'--'
p483
sg30
S'L9-17'
p484
sg32
S'--'
p485
sg34
S'--'
p486
sg36
S'PIT'
p487
sg38
S'--'
p488
sg40
S'--'
p489
sg42
S'--'
p490
ssg260
(dp491
g5
S'--'
p492
sg7
S'--'
p493
sg9
g10
sg11
S'--'
p494
sg13
g49
sg14
S'Nic Jacobs'
p495
sg16
S'2014'
p496
sg18
g260
sg20
S'--'
p497
sg22
S'09/28'
p498
sg24
S'2.0'
p499
sg26
S'--'
p500
sg28
S'--'
p501
sg30
S'L14-33'
p502
sg32
g222
sg34
g49
sg36
S'@SD'
p503
sg38
S'2T'
p504
sg40
g49
sg42
S'--'
p505
ssg279
(dp506
g5
S'--'
p507
sg7
S'--'
p508
sg9
g10
sg11
S'--'
p509
sg13
g49
sg14
S'Nic Jacobs'
p510
sg16
S'2014'
p511
sg18
g279
sg20
S'--'
p512
sg22
S'10/19'
p513
sg24
S'--'
p514
sg26
S'--'
p515
sg28
S'--'
p516
sg30
S'W24-6'
p517
sg32
S'--'
p518
sg34
S'--'
p519
sg36
S'CLE'
p520
sg38
S'--'
p521
sg40
S'--'
p522
sg42
S'--'
p523
ssg295
(dp524
g5
S'--'
p525
sg7
S'--'
p526
sg9
g10
sg11
S'--'
p527
sg13
g49
sg14
S'Nic Jacobs'
p528
sg16
S'2014'
p529
sg18
g295
sg20
S'--'
p530
sg22
S'10/12'
p531
sg24
S'--'
p532
sg26
S'--'
p533
sg28
S'--'
p534
sg30
S'L14-16'
p535
sg32
S'--'
p536
sg34
S'--'
p537
sg36
S'@TEN'
p538
sg38
S'--'
p539
sg40
S'--'
p540
sg42
S'--'
p541
ssg314
(dp542
g5
S'--'
p543
sg7
S'--'
p544
sg9
g49
sg11
S'--'
p545
sg13
g49
sg14
S'Nic Jacobs'
p546
sg16
S'2014'
p547
sg18
g314
sg20
S'--'
p548
sg22
S'11/02'
p549
sg24
S'--'
p550
sg26
S'--'
p551
sg28
S'--'
p552
sg30
S'L23-33'
p553
sg32
S'--'
p554
sg34
S'--'
p555
sg36
S'@CIN'
p556
sg38
S'--'
p557
sg40
S'--'
p558
sg42
S'--'
p559
ssg329
(dp560
g5
S'--'
p561
sg7
S'--'
p562
sg9
g10
sg11
S'--'
p563
sg13
g49
sg14
S'Nic Jacobs'
p564
sg16
S'2014'
p565
sg18
g329
sg20
S'--'
p566
sg22
S'10/26'
p567
sg24
S'--'
p568
sg26
S'--'
p569
sg28
S'--'
p570
sg30
S'L13-27'
p571
sg32
g10
sg34
g10
sg36
S'MIA'
p572
sg38
S'--'
p573
sg40
g10
sg42
S'--'
p574
sss.