(dp0
S'2015'
p1
(dp2
S'15'
p3
(dp4
S'RushTD'
p5
S'--'
p6
sS'RushYds'
p7
S'--'
p8
sS'GS'
p9
S'0'
p10
sS'Lost'
p11
S'--'
p12
sS'G'
p13
S'1'
p14
sS'Player'
p15
S"Nick O'Leary"
p16
sS'Year'
p17
S'2015'
p18
sS'WK'
p19
S'15'
p20
sS'RushAvg'
p21
S'--'
p22
sS'Game Date'
p23
S'12/20'
p24
sS'RecAvg'
p25
S'37.0'
p26
sS'FUM'
p27
S'--'
p28
sS'RushAtt'
p29
S'--'
p30
sS'Result'
p31
S'L25-35'
p32
sS'RecYds'
p33
S'37'
p34
sS'Rec'
p35
g14
sS'Opp'
p36
S'@WAS'
p37
sS'RecLng'
p38
S'37'
p39
sS'RecTD'
p40
g10
sS'RushLng'
p41
S'--'
p42
ssS'14'
p43
(dp44
g5
S'--'
p45
sg7
S'--'
p46
sg9
g10
sg11
S'--'
p47
sg13
g14
sg15
S"Nick O'Leary"
p48
sg17
S'2015'
p49
sg19
S'14'
p50
sg21
S'--'
p51
sg23
S'12/13'
p52
sg25
S'--'
p53
sg27
S'--'
p54
sg29
S'--'
p55
sg31
S'L20-23'
p56
sg33
S'--'
p57
sg35
S'--'
p58
sg36
S'@PHI'
p59
sg38
S'--'
p60
sg40
S'--'
p61
sg41
S'--'
p62
ssS'17'
p63
(dp64
g5
S'--'
p65
sg7
S'--'
p66
sg9
g10
sg11
S'--'
p67
sg13
g14
sg15
S"Nick O'Leary"
p68
sg17
S'2015'
p69
sg19
S'17'
p70
sg21
S'--'
p71
sg23
S'01/03'
p72
sg25
S'--'
p73
sg27
S'--'
p74
sg29
S'--'
p75
sg31
S'W22-17'
p76
sg33
g10
sg35
g10
sg36
S'NYJ'
p77
sg38
S'--'
p78
sg40
g10
sg41
S'--'
p79
ssS'16'
p80
(dp81
g5
S'--'
p82
sg7
S'--'
p83
sg9
g10
sg11
S'--'
p84
sg13
g14
sg15
S"Nick O'Leary"
p85
sg17
S'2015'
p86
sg19
S'16'
p87
sg21
S'--'
p88
sg23
S'12/27'
p89
sg25
S'--'
p90
sg27
S'--'
p91
sg29
S'--'
p92
sg31
S'W16-6'
p93
sg33
g10
sg35
g10
sg36
S'DAL'
p94
sg38
S'--'
p95
sg40
g10
sg41
S'--'
p96
sss.