(dp0
S'2015'
p1
(dp2
S'11'
p3
(dp4
S'RushTD'
p5
S'--'
p6
sS'RushYds'
p7
S'--'
p8
sS'GS'
p9
S'0'
p10
sS'Lost'
p11
S'--'
p12
sS'G'
p13
g10
sS'Player'
p14
S'Nick Boyle'
p15
sS'Year'
p16
S'2015'
p17
sS'WK'
p18
S'11'
p19
sS'RushAvg'
p20
S'--'
p21
sS'Game Date'
p22
S'11/22'
p23
sS'RecAvg'
p24
S'--'
p25
sS'FUM'
p26
S'--'
p27
sS'RushAtt'
p28
S'--'
p29
sS'Result'
p30
S'W16-13'
p31
sS'RecYds'
p32
S'--'
p33
sS'Rec'
p34
S'--'
p35
sS'Opp'
p36
S'STL'
p37
sS'RecLng'
p38
S'--'
p39
sS'RecTD'
p40
S'--'
p41
sS'RushLng'
p42
S'--'
p43
ssS'10'
p44
(dp45
g5
S'--'
p46
sg7
S'--'
p47
sg9
S'1'
p48
sg11
S'--'
p49
sg13
g48
sg14
S'Nick Boyle'
p50
sg16
S'2015'
p51
sg18
S'10'
p52
sg20
S'--'
p53
sg22
S'11/15'
p54
sg24
S'11.7'
p55
sg26
S'--'
p56
sg28
S'--'
p57
sg30
S'L20-22'
p58
sg32
S'35'
p59
sg34
S'3'
p60
sg36
S'JAC'
p61
sg38
S'25'
p62
sg40
g10
sg42
S'--'
p63
ssS'13'
p64
(dp65
g5
S'--'
p66
sg7
S'--'
p67
sg9
g10
sg11
S'--'
p68
sg13
g48
sg14
S'Nick Boyle'
p69
sg16
S'2015'
p70
sg18
S'13'
p71
sg20
S'--'
p72
sg22
S'12/06'
p73
sg24
S'5.0'
p74
sg26
S'--'
p75
sg28
S'--'
p76
sg30
S'L13-15'
p77
sg32
S'15'
p78
sg34
g60
sg36
S'@MIA'
p79
sg38
S'7'
p80
sg40
g10
sg42
S'--'
p81
ssS'12'
p82
(dp83
g5
S'--'
p84
sg7
S'--'
p85
sg9
g10
sg11
S'--'
p86
sg13
g48
sg14
S'Nick Boyle'
p87
sg16
S'2015'
p88
sg18
S'12'
p89
sg20
S'--'
p90
sg22
S'11/30'
p91
sg24
S'10.0'
p92
sg26
S'--'
p93
sg28
S'--'
p94
sg30
S'W33-27'
p95
sg32
S'10'
p96
sg34
g48
sg36
S'@CLE'
p97
sg38
S'10'
p98
sg40
g10
sg42
S'--'
p99
ssg48
(dp100
g5
S'--'
p101
sg7
S'--'
p102
sg9
g10
sg11
S'--'
p103
sg13
g48
sg14
S'Nick Boyle'
p104
sg16
S'2015'
p105
sg18
g48
sg20
S'--'
p106
sg22
S'09/13'
p107
sg24
S'--'
p108
sg26
S'--'
p109
sg28
S'--'
p110
sg30
S'L13-19'
p111
sg32
S'--'
p112
sg34
S'--'
p113
sg36
S'@DEN'
p114
sg38
S'--'
p115
sg40
S'--'
p116
sg42
S'--'
p117
ssg60
(dp118
g5
S'--'
p119
sg7
S'--'
p120
sg9
g10
sg11
S'--'
p121
sg13
g48
sg14
S'Nick Boyle'
p122
sg16
S'2015'
p123
sg18
g60
sg20
S'--'
p124
sg22
S'09/27'
p125
sg24
S'9.5'
p126
sg26
S'--'
p127
sg28
S'--'
p128
sg30
S'L24-28'
p129
sg32
S'19'
p130
sg34
S'2'
p131
sg36
S'CIN'
p132
sg38
S'13'
p133
sg40
g10
sg42
S'--'
p134
ssg131
(dp135
g5
S'--'
p136
sg7
S'--'
p137
sg9
g10
sg11
S'--'
p138
sg13
g48
sg14
S'Nick Boyle'
p139
sg16
S'2015'
p140
sg18
g131
sg20
S'--'
p141
sg22
S'09/20'
p142
sg24
S'--'
p143
sg26
S'--'
p144
sg28
S'--'
p145
sg30
S'L33-37'
p146
sg32
S'--'
p147
sg34
S'--'
p148
sg36
S'@OAK'
p149
sg38
S'--'
p150
sg40
S'--'
p151
sg42
S'--'
p152
ssS'5'
p153
(dp154
g5
S'--'
p155
sg7
S'--'
p156
sg9
g10
sg11
S'--'
p157
sg13
g48
sg14
S'Nick Boyle'
p158
sg16
S'2015'
p159
sg18
g153
sg20
S'--'
p160
sg22
S'10/11'
p161
sg24
S'9.0'
p162
sg26
S'--'
p163
sg28
S'--'
p164
sg30
S'L30-33'
p165
sg32
S'27'
p166
sg34
g60
sg36
S'CLE'
p167
sg38
S'11'
p168
sg40
g10
sg42
S'--'
p169
ssS'4'
p170
(dp171
g5
S'--'
p172
sg7
S'--'
p173
sg9
g48
sg11
S'--'
p174
sg13
g48
sg14
S'Nick Boyle'
p175
sg16
S'2015'
p176
sg18
g170
sg20
S'--'
p177
sg22
S'10/01'
p178
sg24
S'4.0'
p179
sg26
S'--'
p180
sg28
S'--'
p181
sg30
S'W23-20'
p182
sg32
S'12'
p183
sg34
g60
sg36
S'@PIT'
p184
sg38
S'8'
p185
sg40
g10
sg42
S'--'
p186
ssg80
(dp187
g5
S'--'
p188
sg7
S'--'
p189
sg9
g10
sg11
S'--'
p190
sg13
g48
sg14
S'Nick Boyle'
p191
sg16
S'2015'
p192
sg18
g80
sg20
S'--'
p193
sg22
S'10/26'
p194
sg24
S'10.0'
p195
sg26
S'--'
p196
sg28
S'--'
p197
sg30
S'L18-26'
p198
sg32
S'20'
p199
sg34
g131
sg36
S'@ARI'
p200
sg38
S'11'
p201
sg40
g10
sg42
S'--'
p202
ssS'6'
p203
(dp204
g5
S'--'
p205
sg7
S'--'
p206
sg9
g10
sg11
S'--'
p207
sg13
g48
sg14
S'Nick Boyle'
p208
sg16
S'2015'
p209
sg18
g203
sg20
S'--'
p210
sg22
S'10/18'
p211
sg24
S'--'
p212
sg26
S'--'
p213
sg28
S'--'
p214
sg30
S'L20-25'
p215
sg32
S'--'
p216
sg34
S'--'
p217
sg36
S'@SF'
p218
sg38
S'--'
p219
sg40
S'--'
p220
sg42
S'--'
p221
ssS'9'
p222
(dp223
g5
S''
p224
sg7
g224
sg9
g224
sg11
g224
sg13
g224
sg14
S'Nick Boyle'
p225
sg16
S'2015'
p226
sg18
g222
sg20
g224
sg22
S'Bye'
p227
sg24
g224
sg26
g224
sg28
g224
sg30
g224
sg32
g224
sg34
g224
sg36
g224
sg38
g224
sg40
g224
sg42
g224
ssg185
(dp228
g5
S'--'
p229
sg7
S'--'
p230
sg9
g10
sg11
S'--'
p231
sg13
g48
sg14
S'Nick Boyle'
p232
sg16
S'2015'
p233
sg18
g185
sg20
S'--'
p234
sg22
S'11/01'
p235
sg24
S'15.0'
p236
sg26
S'--'
p237
sg28
S'--'
p238
sg30
S'W29-26'
p239
sg32
S'15'
p240
sg34
g48
sg36
S'SD'
p241
sg38
S'15'
p242
sg40
g10
sg42
S'--'
p243
sss.