(dp0
S'2014'
p1
(dp2
S'11'
p3
(dp4
S'RushTD'
p5
S'--'
p6
sS'RushYds'
p7
S'--'
p8
sS'GS'
p9
S'1'
p10
sS'Lost'
p11
S'--'
p12
sS'G'
p13
g10
sS'Player'
p14
S'Niles Paul'
p15
sS'Year'
p16
S'2014'
p17
sS'WK'
p18
S'11'
p19
sS'RushAvg'
p20
S'--'
p21
sS'Game Date'
p22
S'11/16'
p23
sS'RecAvg'
p24
S'5.7'
p25
sS'FUM'
p26
S'--'
p27
sS'RushAtt'
p28
S'--'
p29
sS'Result'
p30
S'L7-27'
p31
sS'RecYds'
p32
S'17'
p33
sS'Rec'
p34
S'3'
p35
sS'Opp'
p36
S'TB'
p37
sS'RecLng'
p38
S'8'
p39
sS'RecTD'
p40
S'0'
p41
sS'RushLng'
p42
S'--'
p43
ssS'10'
p44
(dp45
g5
S''
p46
sg7
g46
sg9
g46
sg11
g46
sg13
g46
sg14
S'Niles Paul'
p47
sg16
S'2014'
p48
sg18
S'10'
p49
sg20
g46
sg22
S'Bye'
p50
sg24
g46
sg26
g46
sg28
g46
sg30
g46
sg32
g46
sg34
g46
sg36
g46
sg38
g46
sg40
g46
sg42
g46
ssS'13'
p51
(dp52
g5
S'--'
p53
sg7
S'--'
p54
sg9
g41
sg11
S'--'
p55
sg13
g10
sg14
S'Niles Paul'
p56
sg16
S'2014'
p57
sg18
S'13'
p58
sg20
S'--'
p59
sg22
S'11/30'
p60
sg24
S'7.0'
p61
sg26
S'--'
p62
sg28
S'--'
p63
sg30
S'L27-49'
p64
sg32
S'7'
p65
sg34
g10
sg36
S'@IND'
p66
sg38
g65
sg40
g41
sg42
S'--'
p67
ssS'12'
p68
(dp69
g5
S'--'
p70
sg7
S'--'
p71
sg9
g41
sg11
S'--'
p72
sg13
g10
sg14
S'Niles Paul'
p73
sg16
S'2014'
p74
sg18
S'12'
p75
sg20
S'--'
p76
sg22
S'11/23'
p77
sg24
S'11.0'
p78
sg26
S'--'
p79
sg28
S'--'
p80
sg30
S'L13-17'
p81
sg32
S'11'
p82
sg34
g10
sg36
S'@SF'
p83
sg38
S'11'
p84
sg40
g41
sg42
S'--'
p85
ssS'15'
p86
(dp87
g5
S'--'
p88
sg7
S'--'
p89
sg9
g10
sg11
S'--'
p90
sg13
g10
sg14
S'Niles Paul'
p91
sg16
S'2014'
p92
sg18
S'15'
p93
sg20
S'--'
p94
sg22
S'12/14'
p95
sg24
S'17.0'
p96
sg26
S'--'
p97
sg28
S'--'
p98
sg30
S'L13-24'
p99
sg32
S'17'
p100
sg34
g10
sg36
S'@NYG'
p101
sg38
S'17'
p102
sg40
g41
sg42
S'--'
p103
ssS'14'
p104
(dp105
g5
S'--'
p106
sg7
S'--'
p107
sg9
g10
sg11
S'--'
p108
sg13
g10
sg14
S'Niles Paul'
p109
sg16
S'2014'
p110
sg18
S'14'
p111
sg20
S'--'
p112
sg22
S'12/07'
p113
sg24
S'7.0'
p114
sg26
S'--'
p115
sg28
S'--'
p116
sg30
S'L0-24'
p117
sg32
g65
sg34
g10
sg36
S'STL'
p118
sg38
g65
sg40
g41
sg42
S'--'
p119
ssS'17'
p120
(dp121
g5
S'--'
p122
sg7
S'--'
p123
sg9
g41
sg11
S'--'
p124
sg13
g10
sg14
S'Niles Paul'
p125
sg16
S'2014'
p126
sg18
S'17'
p127
sg20
S'--'
p128
sg22
S'12/28'
p129
sg24
S'9.5'
p130
sg26
S'--'
p131
sg28
S'--'
p132
sg30
S'L17-44'
p133
sg32
S'19'
p134
sg34
S'2'
p135
sg36
S'DAL'
p136
sg38
S'14'
p137
sg40
g41
sg42
S'--'
p138
ssS'16'
p139
(dp140
g5
S'--'
p141
sg7
S'--'
p142
sg9
g41
sg11
S'--'
p143
sg13
g10
sg14
S'Niles Paul'
p144
sg16
S'2014'
p145
sg18
S'16'
p146
sg20
S'--'
p147
sg22
S'12/20'
p148
sg24
S'--'
p149
sg26
S'--'
p150
sg28
S'--'
p151
sg30
S'W27-24'
p152
sg32
S'--'
p153
sg34
S'--'
p154
sg36
S'PHI'
p155
sg38
S'--'
p156
sg40
S'--'
p157
sg42
S'--'
p158
ssg10
(dp159
g5
S'--'
p160
sg7
S'--'
p161
sg9
g41
sg11
g10
sg13
g10
sg14
S'Niles Paul'
p162
sg16
S'2014'
p163
sg18
g10
sg20
S'--'
p164
sg22
S'09/07'
p165
sg24
S'21.5'
p166
sg26
g10
sg28
S'--'
p167
sg30
S'L6-17'
p168
sg32
S'86'
p169
sg34
S'4'
p170
sg36
S'@HOU'
p171
sg38
S'48'
p172
sg40
g41
sg42
S'--'
p173
ssg35
(dp174
g5
S'--'
p175
sg7
S'--'
p176
sg9
g41
sg11
S'--'
p177
sg13
g10
sg14
S'Niles Paul'
p178
sg16
S'2014'
p179
sg18
g35
sg20
S'--'
p180
sg22
S'09/21'
p181
sg24
S'11.3'
p182
sg26
S'--'
p183
sg28
S'--'
p184
sg30
S'L34-37'
p185
sg32
S'68'
p186
sg34
S'6'
p187
sg36
S'@PHI'
p188
sg38
S'37'
p189
sg40
g41
sg42
S'--'
p190
ssg135
(dp191
g5
S'--'
p192
sg7
S'--'
p193
sg9
g41
sg11
S'--'
p194
sg13
g10
sg14
S'Niles Paul'
p195
sg16
S'2014'
p196
sg18
g135
sg20
S'--'
p197
sg22
S'09/14'
p198
sg24
S'12.4'
p199
sg26
S'--'
p200
sg28
S'--'
p201
sg30
S'W41-10'
p202
sg32
S'99'
p203
sg34
g39
sg36
S'JAC'
p204
sg38
S'26'
p205
sg40
g10
sg42
S'--'
p206
ssS'5'
p207
(dp208
g5
S'--'
p209
sg7
S'--'
p210
sg9
g10
sg11
S'--'
p211
sg13
g10
sg14
S'Niles Paul'
p212
sg16
S'2014'
p213
sg18
g207
sg20
S'--'
p214
sg22
S'10/06'
p215
sg24
S'6.0'
p216
sg26
S'--'
p217
sg28
S'--'
p218
sg30
S'L17-27'
p219
sg32
g187
sg34
g10
sg36
S'SEA'
p220
sg38
g187
sg40
g41
sg42
S'--'
p221
ssg170
(dp222
g5
S'--'
p223
sg7
S'--'
p224
sg9
g10
sg11
S'--'
p225
sg13
g10
sg14
S'Niles Paul'
p226
sg16
S'2014'
p227
sg18
g170
sg20
S'--'
p228
sg22
S'09/25'
p229
sg24
S'20.0'
p230
sg26
S'--'
p231
sg28
S'--'
p232
sg30
S'L14-45'
p233
sg32
S'60'
p234
sg34
g35
sg36
S'NYG'
p235
sg38
S'28'
p236
sg40
g41
sg42
S'--'
p237
ssg65
(dp238
g5
S'--'
p239
sg7
S'--'
p240
sg9
g41
sg11
S'--'
p241
sg13
g10
sg14
S'Niles Paul'
p242
sg16
S'2014'
p243
sg18
g65
sg20
S'--'
p244
sg22
S'10/19'
p245
sg24
S'29.0'
p246
sg26
S'--'
p247
sg28
S'--'
p248
sg30
S'W19-17'
p249
sg32
S'58'
p250
sg34
g135
sg36
S'TEN'
p251
sg38
S'50'
p252
sg40
g41
sg42
S'--'
p253
ssg187
(dp254
g5
S'--'
p255
sg7
S'--'
p256
sg9
g10
sg11
S'--'
p257
sg13
g10
sg14
S'Niles Paul'
p258
sg16
S'2014'
p259
sg18
g187
sg20
S'--'
p260
sg22
S'10/12'
p261
sg24
S'7.0'
p262
sg26
S'--'
p263
sg28
S'--'
p264
sg30
S'L20-30'
p265
sg32
g65
sg34
g10
sg36
S'@ARI'
p266
sg38
g65
sg40
g41
sg42
S'--'
p267
ssS'9'
p268
(dp269
g5
S'--'
p270
sg7
S'--'
p271
sg9
g41
sg11
S'--'
p272
sg13
g10
sg14
S'Niles Paul'
p273
sg16
S'2014'
p274
sg18
g268
sg20
S'--'
p275
sg22
S'11/02'
p276
sg24
S'9.0'
p277
sg26
S'--'
p278
sg28
S'--'
p279
sg30
S'L26-29'
p280
sg32
S'18'
p281
sg34
g135
sg36
S'@MIN'
p282
sg38
S'14'
p283
sg40
g41
sg42
S'--'
p284
ssg39
(dp285
g5
S'--'
p286
sg7
S'--'
p287
sg9
g10
sg11
S'--'
p288
sg13
g10
sg14
S'Niles Paul'
p289
sg16
S'2014'
p290
sg18
g39
sg20
S'--'
p291
sg22
S'10/27'
p292
sg24
S'9.0'
p293
sg26
S'--'
p294
sg28
S'--'
p295
sg30
S'W20-17'
p296
sg32
S'27'
p297
sg34
g35
sg36
S'@DAL'
p298
sg38
S'20'
p299
sg40
g41
sg42
S'--'
p300
sssS'2011'
p301
(dp302
g3
(dp303
g5
S'--'
p304
sg7
S'--'
p305
sg9
g41
sg11
S'--'
p306
sg13
g41
sg14
S'Niles Paul'
p307
sg16
S'2011'
p308
sg18
S'11'
p309
sg20
S'--'
p310
sg22
S'11/20'
p311
sg24
S'--'
p312
sg26
S'--'
p313
sg28
S'--'
p314
sg30
S'L24-27'
p315
sg32
S'--'
p316
sg34
S'--'
p317
sg36
S'DAL'
p318
sg38
S'--'
p319
sg40
S'--'
p320
sg42
S'--'
p321
ssg44
(dp322
g5
S'--'
p323
sg7
S'--'
p324
sg9
g41
sg11
S'--'
p325
sg13
g41
sg14
S'Niles Paul'
p326
sg16
S'2011'
p327
sg18
S'10'
p328
sg20
S'--'
p329
sg22
S'11/13'
p330
sg24
S'--'
p331
sg26
S'--'
p332
sg28
S'--'
p333
sg30
S'L9-20'
p334
sg32
S'--'
p335
sg34
S'--'
p336
sg36
S'@MIA'
p337
sg38
S'--'
p338
sg40
S'--'
p339
sg42
S'--'
p340
ssg51
(dp341
g5
S'--'
p342
sg7
S'--'
p343
sg9
g41
sg11
S'--'
p344
sg13
g10
sg14
S'Niles Paul'
p345
sg16
S'2011'
p346
sg18
S'13'
p347
sg20
S'--'
p348
sg22
S'12/04'
p349
sg24
S'--'
p350
sg26
S'--'
p351
sg28
S'--'
p352
sg30
S'L19-34'
p353
sg32
g41
sg34
g41
sg36
S'NYJ'
p354
sg38
S'--'
p355
sg40
g41
sg42
S'--'
p356
ssg68
(dp357
g5
S'--'
p358
sg7
S'--'
p359
sg9
g41
sg11
S'--'
p360
sg13
g41
sg14
S'Niles Paul'
p361
sg16
S'2011'
p362
sg18
S'12'
p363
sg20
S'--'
p364
sg22
S'11/27'
p365
sg24
S'--'
p366
sg26
S'--'
p367
sg28
S'--'
p368
sg30
S'W23-17'
p369
sg32
S'--'
p370
sg34
S'--'
p371
sg36
S'@SEA'
p372
sg38
S'--'
p373
sg40
S'--'
p374
sg42
S'--'
p375
ssg86
(dp376
g5
g41
sg7
g65
sg9
g41
sg11
S'--'
p377
sg13
g10
sg14
S'Niles Paul'
p378
sg16
S'2011'
p379
sg18
S'15'
p380
sg20
S'7.0'
p381
sg22
S'12/18'
p382
sg24
S'--'
p383
sg26
S'--'
p384
sg28
g10
sg30
S'W23-10'
p385
sg32
S'--'
p386
sg34
S'--'
p387
sg36
S'@NYG'
p388
sg38
S'--'
p389
sg40
S'--'
p390
sg42
g65
ssg104
(dp391
g5
S'--'
p392
sg7
S'--'
p393
sg9
g41
sg11
S'--'
p394
sg13
g10
sg14
S'Niles Paul'
p395
sg16
S'2011'
p396
sg18
S'14'
p397
sg20
S'--'
p398
sg22
S'12/11'
p399
sg24
S'--'
p400
sg26
S'--'
p401
sg28
S'--'
p402
sg30
S'L27-34'
p403
sg32
S'--'
p404
sg34
S'--'
p405
sg36
S'NE'
p406
sg38
S'--'
p407
sg40
S'--'
p408
sg42
S'--'
p409
ssg120
(dp410
g5
S'--'
p411
sg7
S'--'
p412
sg9
g41
sg11
S'--'
p413
sg13
g10
sg14
S'Niles Paul'
p414
sg16
S'2011'
p415
sg18
S'17'
p416
sg20
S'--'
p417
sg22
S'01/01'
p418
sg24
S'--'
p419
sg26
S'--'
p420
sg28
S'--'
p421
sg30
S'L10-34'
p422
sg32
g41
sg34
g41
sg36
S'@PHI'
p423
sg38
S'--'
p424
sg40
g41
sg42
S'--'
p425
ssg139
(dp426
g5
S'--'
p427
sg7
S'--'
p428
sg9
g10
sg11
S'--'
p429
sg13
g10
sg14
S'Niles Paul'
p430
sg16
S'2011'
p431
sg18
S'16'
p432
sg20
S'--'
p433
sg22
S'12/24'
p434
sg24
S'--'
p435
sg26
S'--'
p436
sg28
S'--'
p437
sg30
S'L26-33'
p438
sg32
S'--'
p439
sg34
S'--'
p440
sg36
S'MIN'
p441
sg38
S'--'
p442
sg40
S'--'
p443
sg42
S'--'
p444
ssg10
(dp445
g5
S'--'
p446
sg7
S'--'
p447
sg9
g41
sg11
S'--'
p448
sg13
g10
sg14
S'Niles Paul'
p449
sg16
S'2011'
p450
sg18
g10
sg20
S'--'
p451
sg22
S'09/11'
p452
sg24
S'--'
p453
sg26
S'--'
p454
sg28
S'--'
p455
sg30
S'W28-14'
p456
sg32
S'--'
p457
sg34
S'--'
p458
sg36
S'NYG'
p459
sg38
S'--'
p460
sg40
S'--'
p461
sg42
S'--'
p462
ssg35
(dp463
g5
S'--'
p464
sg7
S'--'
p465
sg9
g41
sg11
S'--'
p466
sg13
g10
sg14
S'Niles Paul'
p467
sg16
S'2011'
p468
sg18
g35
sg20
S'--'
p469
sg22
S'09/26'
p470
sg24
S'--'
p471
sg26
S'--'
p472
sg28
S'--'
p473
sg30
S'L16-18'
p474
sg32
S'--'
p475
sg34
S'--'
p476
sg36
S'@DAL'
p477
sg38
S'--'
p478
sg40
S'--'
p479
sg42
S'--'
p480
ssg135
(dp481
g5
S'--'
p482
sg7
S'--'
p483
sg9
g41
sg11
S'--'
p484
sg13
g10
sg14
S'Niles Paul'
p485
sg16
S'2011'
p486
sg18
g135
sg20
S'--'
p487
sg22
S'09/18'
p488
sg24
S'--'
p489
sg26
S'--'
p490
sg28
S'--'
p491
sg30
S'W22-21'
p492
sg32
S'--'
p493
sg34
S'--'
p494
sg36
S'ARI'
p495
sg38
S'--'
p496
sg40
S'--'
p497
sg42
S'--'
p498
ssg207
(dp499
g5
g46
sg7
g46
sg9
g46
sg11
g46
sg13
g46
sg14
S'Niles Paul'
p500
sg16
S'2011'
p501
sg18
g207
sg20
g46
sg22
S'Bye'
p502
sg24
g46
sg26
g46
sg28
g46
sg30
g46
sg32
g46
sg34
g46
sg36
g46
sg38
g46
sg40
g46
sg42
g46
ssg170
(dp503
g5
S'--'
p504
sg7
S'--'
p505
sg9
g41
sg11
S'--'
p506
sg13
g10
sg14
S'Niles Paul'
p507
sg16
S'2011'
p508
sg18
g170
sg20
S'--'
p509
sg22
S'10/02'
p510
sg24
S'--'
p511
sg26
S'--'
p512
sg28
S'--'
p513
sg30
S'W17-10'
p514
sg32
S'--'
p515
sg34
S'--'
p516
sg36
S'@STL'
p517
sg38
S'--'
p518
sg40
S'--'
p519
sg42
S'--'
p520
ssg65
(dp521
g5
S'--'
p522
sg7
S'--'
p523
sg9
g10
sg11
S'--'
p524
sg13
g10
sg14
S'Niles Paul'
p525
sg16
S'2011'
p526
sg18
g65
sg20
S'--'
p527
sg22
S'10/23'
p528
sg24
S'12.5'
p529
sg26
S'--'
p530
sg28
S'--'
p531
sg30
S'L20-33'
p532
sg32
S'25'
p533
sg34
g135
sg36
S'@CAR'
p534
sg38
S'14'
p535
sg40
g41
sg42
S'--'
p536
ssg187
(dp537
g5
S'--'
p538
sg7
S'--'
p539
sg9
g41
sg11
S'--'
p540
sg13
g10
sg14
S'Niles Paul'
p541
sg16
S'2011'
p542
sg18
g187
sg20
S'--'
p543
sg22
S'10/16'
p544
sg24
S'--'
p545
sg26
S'--'
p546
sg28
S'--'
p547
sg30
S'L13-20'
p548
sg32
S'--'
p549
sg34
S'--'
p550
sg36
S'PHI'
p551
sg38
S'--'
p552
sg40
S'--'
p553
sg42
S'--'
p554
ssg268
(dp555
g5
S'--'
p556
sg7
S'--'
p557
sg9
g41
sg11
S'--'
p558
sg13
g10
sg14
S'Niles Paul'
p559
sg16
S'2011'
p560
sg18
g268
sg20
S'--'
p561
sg22
S'11/06'
p562
sg24
S'--'
p563
sg26
S'--'
p564
sg28
S'--'
p565
sg30
S'L11-19'
p566
sg32
g41
sg34
g41
sg36
S'SF'
p567
sg38
S'--'
p568
sg40
g41
sg42
S'--'
p569
ssg39
(dp570
g5
S'--'
p571
sg7
S'--'
p572
sg9
g41
sg11
S'--'
p573
sg13
g10
sg14
S'Niles Paul'
p574
sg16
S'2011'
p575
sg18
g39
sg20
S'--'
p576
sg22
S'10/30'
p577
sg24
S'--'
p578
sg26
S'--'
p579
sg28
S'--'
p580
sg30
S'L0-23'
p581
sg32
S'--'
p582
sg34
S'--'
p583
sg36
S'@BUF'
p584
sg38
S'--'
p585
sg40
S'--'
p586
sg42
S'--'
p587
sssS'2013'
p588
(dp589
g3
(dp590
g5
S'--'
p591
sg7
S'--'
p592
sg9
g41
sg11
S'--'
p593
sg13
g10
sg14
S'Niles Paul'
p594
sg16
S'2013'
p595
sg18
S'11'
p596
sg20
S'--'
p597
sg22
S'11/17'
p598
sg24
S'--'
p599
sg26
S'--'
p600
sg28
S'--'
p601
sg30
S'L16-24'
p602
sg32
S'--'
p603
sg34
S'--'
p604
sg36
S'@PHI'
p605
sg38
S'--'
p606
sg40
S'--'
p607
sg42
S'--'
p608
ssg44
(dp609
g5
S'--'
p610
sg7
S'--'
p611
sg9
g41
sg11
S'--'
p612
sg13
g10
sg14
S'Niles Paul'
p613
sg16
S'2013'
p614
sg18
S'10'
p615
sg20
S'--'
p616
sg22
S'11/07'
p617
sg24
S'--'
p618
sg26
S'--'
p619
sg28
S'--'
p620
sg30
S'L27-34'
p621
sg32
S'--'
p622
sg34
S'--'
p623
sg36
S'@MIN'
p624
sg38
S'--'
p625
sg40
S'--'
p626
sg42
S'--'
p627
ssg51
(dp628
g5
S'--'
p629
sg7
S'--'
p630
sg9
g41
sg11
S'--'
p631
sg13
g41
sg14
S'Niles Paul'
p632
sg16
S'2013'
p633
sg18
S'13'
p634
sg20
S'--'
p635
sg22
S'12/01'
p636
sg24
S'--'
p637
sg26
S'--'
p638
sg28
S'--'
p639
sg30
S'L17-24'
p640
sg32
S'--'
p641
sg34
S'--'
p642
sg36
S'NYG'
p643
sg38
S'--'
p644
sg40
S'--'
p645
sg42
S'--'
p646
ssg68
(dp647
g5
S'--'
p648
sg7
S'--'
p649
sg9
g10
sg11
S'--'
p650
sg13
g10
sg14
S'Niles Paul'
p651
sg16
S'2013'
p652
sg18
S'12'
p653
sg20
S'--'
p654
sg22
S'11/25'
p655
sg24
S'--'
p656
sg26
S'--'
p657
sg28
S'--'
p658
sg30
S'L6-27'
p659
sg32
S'--'
p660
sg34
S'--'
p661
sg36
S'SF'
p662
sg38
S'--'
p663
sg40
S'--'
p664
sg42
S'--'
p665
ssg86
(dp666
g5
S'--'
p667
sg7
S'--'
p668
sg9
g41
sg11
S'--'
p669
sg13
g10
sg14
S'Niles Paul'
p670
sg16
S'2013'
p671
sg18
S'15'
p672
sg20
S'--'
p673
sg22
S'12/15'
p674
sg24
S'--'
p675
sg26
S'--'
p676
sg28
S'--'
p677
sg30
S'L26-27'
p678
sg32
S'--'
p679
sg34
S'--'
p680
sg36
S'@ATL'
p681
sg38
S'--'
p682
sg40
S'--'
p683
sg42
S'--'
p684
ssg104
(dp685
g5
S'--'
p686
sg7
S'--'
p687
sg9
g10
sg11
S'--'
p688
sg13
g10
sg14
S'Niles Paul'
p689
sg16
S'2013'
p690
sg18
S'14'
p691
sg20
S'--'
p692
sg22
S'12/08'
p693
sg24
S'25.0'
p694
sg26
S'--'
p695
sg28
S'--'
p696
sg30
S'L10-45'
p697
sg32
S'25'
p698
sg34
g10
sg36
S'KC'
p699
sg38
S'25'
p700
sg40
g41
sg42
S'--'
p701
ssg120
(dp702
g5
S'--'
p703
sg7
S'--'
p704
sg9
g41
sg11
S'--'
p705
sg13
g10
sg14
S'Niles Paul'
p706
sg16
S'2013'
p707
sg18
S'17'
p708
sg20
S'--'
p709
sg22
S'12/29'
p710
sg24
S'--'
p711
sg26
S'--'
p712
sg28
S'--'
p713
sg30
S'L6-20'
p714
sg32
g41
sg34
g41
sg36
S'@NYG'
p715
sg38
S'--'
p716
sg40
g41
sg42
S'--'
p717
ssg139
(dp718
g5
S'--'
p719
sg7
S'--'
p720
sg9
g10
sg11
S'--'
p721
sg13
g10
sg14
S'Niles Paul'
p722
sg16
S'2013'
p723
sg18
S'16'
p724
sg20
S'--'
p725
sg22
S'12/22'
p726
sg24
S'--'
p727
sg26
S'--'
p728
sg28
S'--'
p729
sg30
S'L23-24'
p730
sg32
S'--'
p731
sg34
S'--'
p732
sg36
S'DAL'
p733
sg38
S'--'
p734
sg40
S'--'
p735
sg42
S'--'
p736
ssg10
(dp737
g5
S'--'
p738
sg7
S'--'
p739
sg9
g41
sg11
S'--'
p740
sg13
g10
sg14
S'Niles Paul'
p741
sg16
S'2013'
p742
sg18
g10
sg20
S'--'
p743
sg22
S'09/09'
p744
sg24
S'--'
p745
sg26
S'--'
p746
sg28
S'--'
p747
sg30
S'L27-33'
p748
sg32
S'--'
p749
sg34
S'--'
p750
sg36
S'PHI'
p751
sg38
S'--'
p752
sg40
S'--'
p753
sg42
S'--'
p754
ssg35
(dp755
g5
S'--'
p756
sg7
S'--'
p757
sg9
g41
sg11
S'--'
p758
sg13
g10
sg14
S'Niles Paul'
p759
sg16
S'2013'
p760
sg18
g35
sg20
S'--'
p761
sg22
S'09/22'
p762
sg24
S'--'
p763
sg26
S'--'
p764
sg28
S'--'
p765
sg30
S'L20-27'
p766
sg32
g41
sg34
g41
sg36
S'DET'
p767
sg38
S'--'
p768
sg40
g41
sg42
S'--'
p769
ssg135
(dp770
g5
S'--'
p771
sg7
S'--'
p772
sg9
g41
sg11
S'--'
p773
sg13
g10
sg14
S'Niles Paul'
p774
sg16
S'2013'
p775
sg18
g135
sg20
S'--'
p776
sg22
S'09/15'
p777
sg24
S'--'
p778
sg26
S'--'
p779
sg28
S'--'
p780
sg30
S'L20-38'
p781
sg32
S'--'
p782
sg34
S'--'
p783
sg36
S'@GB'
p784
sg38
S'--'
p785
sg40
S'--'
p786
sg42
S'--'
p787
ssg207
(dp788
g5
g46
sg7
g46
sg9
g46
sg11
g46
sg13
g46
sg14
S'Niles Paul'
p789
sg16
S'2013'
p790
sg18
g207
sg20
g46
sg22
S'Bye'
p791
sg24
g46
sg26
g46
sg28
g46
sg30
g46
sg32
g46
sg34
g46
sg36
g46
sg38
g46
sg40
g46
sg42
g46
ssg170
(dp792
g5
S'--'
p793
sg7
S'--'
p794
sg9
g41
sg11
S'--'
p795
sg13
g10
sg14
S'Niles Paul'
p796
sg16
S'2013'
p797
sg18
g170
sg20
S'--'
p798
sg22
S'09/29'
p799
sg24
S'10.0'
p800
sg26
S'--'
p801
sg28
S'--'
p802
sg30
S'W24-14'
p803
sg32
S'20'
p804
sg34
g135
sg36
S'@OAK'
p805
sg38
S'16'
p806
sg40
g41
sg42
S'--'
p807
ssg65
(dp808
g5
S'--'
p809
sg7
S'--'
p810
sg9
g41
sg11
S'--'
p811
sg13
g10
sg14
S'Niles Paul'
p812
sg16
S'2013'
p813
sg18
g65
sg20
S'--'
p814
sg22
S'10/20'
p815
sg24
S'--'
p816
sg26
S'--'
p817
sg28
S'--'
p818
sg30
S'W45-41'
p819
sg32
S'--'
p820
sg34
S'--'
p821
sg36
S'CHI'
p822
sg38
S'--'
p823
sg40
S'--'
p824
sg42
S'--'
p825
ssg187
(dp826
g5
S'--'
p827
sg7
S'--'
p828
sg9
g41
sg11
S'--'
p829
sg13
g10
sg14
S'Niles Paul'
p830
sg16
S'2013'
p831
sg18
g187
sg20
S'--'
p832
sg22
S'10/13'
p833
sg24
S'--'
p834
sg26
S'--'
p835
sg28
S'--'
p836
sg30
S'L16-31'
p837
sg32
S'--'
p838
sg34
S'--'
p839
sg36
S'@DAL'
p840
sg38
S'--'
p841
sg40
S'--'
p842
sg42
S'--'
p843
ssg268
(dp844
g5
S'--'
p845
sg7
S'--'
p846
sg9
g10
sg11
S'--'
p847
sg13
g10
sg14
S'Niles Paul'
p848
sg16
S'2013'
p849
sg18
g268
sg20
S'--'
p850
sg22
S'11/03'
p851
sg24
S'6.0'
p852
sg26
S'--'
p853
sg28
S'--'
p854
sg30
S'W30-24'
p855
sg32
g187
sg34
g10
sg36
S'SD'
p856
sg38
g187
sg40
g41
sg42
S'--'
p857
ssg39
(dp858
g5
S'--'
p859
sg7
S'--'
p860
sg9
g41
sg11
S'--'
p861
sg13
g10
sg14
S'Niles Paul'
p862
sg16
S'2013'
p863
sg18
g39
sg20
S'--'
p864
sg22
S'10/27'
p865
sg24
S'--'
p866
sg26
S'--'
p867
sg28
S'--'
p868
sg30
S'L21-45'
p869
sg32
S'--'
p870
sg34
S'--'
p871
sg36
S'@DEN'
p872
sg38
S'--'
p873
sg40
S'--'
p874
sg42
S'--'
p875
sssS'2012'
p876
(dp877
g3
(dp878
g5
S'--'
p879
sg7
S'--'
p880
sg9
g10
sg11
S'--'
p881
sg13
g10
sg14
S'Niles Paul'
p882
sg16
S'2012'
p883
sg18
S'11'
p884
sg20
S'--'
p885
sg22
S'11/18'
p886
sg24
S'--'
p887
sg26
S'--'
p888
sg28
S'--'
p889
sg30
S'W31-6'
p890
sg32
S'--'
p891
sg34
S'--'
p892
sg36
S'PHI'
p893
sg38
S'--'
p894
sg40
S'--'
p895
sg42
S'--'
p896
ssg44
(dp897
g5
g46
sg7
g46
sg9
g46
sg11
g46
sg13
g46
sg14
S'Niles Paul'
p898
sg16
S'2012'
p899
sg18
S'10'
p900
sg20
g46
sg22
S'Bye'
p901
sg24
g46
sg26
g46
sg28
g46
sg30
g46
sg32
g46
sg34
g46
sg36
g46
sg38
g46
sg40
g46
sg42
g46
ssg51
(dp902
g5
S'--'
p903
sg7
S'--'
p904
sg9
g10
sg11
S'--'
p905
sg13
g10
sg14
S'Niles Paul'
p906
sg16
S'2012'
p907
sg18
S'13'
p908
sg20
S'--'
p909
sg22
S'12/03'
p910
sg24
S'--'
p911
sg26
S'--'
p912
sg28
S'--'
p913
sg30
S'W17-16'
p914
sg32
g41
sg34
g41
sg36
S'NYG'
p915
sg38
S'--'
p916
sg40
g41
sg42
S'--'
p917
ssg68
(dp918
g5
S'--'
p919
sg7
S'--'
p920
sg9
g41
sg11
S'--'
p921
sg13
g10
sg14
S'Niles Paul'
p922
sg16
S'2012'
p923
sg18
S'12'
p924
sg20
S'--'
p925
sg22
S'11/22'
p926
sg24
S'29.0'
p927
sg26
S'--'
p928
sg28
S'--'
p929
sg30
S'W38-31'
p930
sg32
S'29'
p931
sg34
g10
sg36
S'@DAL'
p932
sg38
S'29T'
p933
sg40
g10
sg42
S'--'
p934
ssg86
(dp935
g5
S'--'
p936
sg7
S'--'
p937
sg9
g41
sg11
S'--'
p938
sg13
g10
sg14
S'Niles Paul'
p939
sg16
S'2012'
p940
sg18
S'15'
p941
sg20
S'--'
p942
sg22
S'12/16'
p943
sg24
S'--'
p944
sg26
S'--'
p945
sg28
S'--'
p946
sg30
S'W38-21'
p947
sg32
S'--'
p948
sg34
S'--'
p949
sg36
S'@CLE'
p950
sg38
S'--'
p951
sg40
S'--'
p952
sg42
S'--'
p953
ssg104
(dp954
g5
S'--'
p955
sg7
S'--'
p956
sg9
g41
sg11
g41
sg13
g10
sg14
S'Niles Paul'
p957
sg16
S'2012'
p958
sg18
S'14'
p959
sg20
S'--'
p960
sg22
S'12/09'
p961
sg24
S'--'
p962
sg26
g10
sg28
S'--'
p963
sg30
S'W31-28'
p964
sg32
g41
sg34
g41
sg36
S'BAL'
p965
sg38
S'--'
p966
sg40
g41
sg42
S'--'
p967
ssg120
(dp968
g5
S'--'
p969
sg7
S'--'
p970
sg9
g41
sg11
S'--'
p971
sg13
g10
sg14
S'Niles Paul'
p972
sg16
S'2012'
p973
sg18
S'17'
p974
sg20
S'--'
p975
sg22
S'12/30'
p976
sg24
S'--'
p977
sg26
S'--'
p978
sg28
S'--'
p979
sg30
S'W28-18'
p980
sg32
g41
sg34
g41
sg36
S'DAL'
p981
sg38
S'--'
p982
sg40
g41
sg42
S'--'
p983
ssg139
(dp984
g5
S'--'
p985
sg7
S'--'
p986
sg9
g41
sg11
S'--'
p987
sg13
g10
sg14
S'Niles Paul'
p988
sg16
S'2012'
p989
sg18
S'16'
p990
sg20
S'--'
p991
sg22
S'12/23'
p992
sg24
S'21.0'
p993
sg26
S'--'
p994
sg28
S'--'
p995
sg30
S'W27-20'
p996
sg32
S'21'
p997
sg34
g10
sg36
S'@PHI'
p998
sg38
S'21'
p999
sg40
g41
sg42
S'--'
p1000
ssg10
(dp1001
g5
S'--'
p1002
sg7
S'--'
p1003
sg9
g41
sg11
S'--'
p1004
sg13
g10
sg14
S'Niles Paul'
p1005
sg16
S'2012'
p1006
sg18
g10
sg20
S'--'
p1007
sg22
S'09/09'
p1008
sg24
S'--'
p1009
sg26
S'--'
p1010
sg28
S'--'
p1011
sg30
S'W40-32'
p1012
sg32
S'--'
p1013
sg34
S'--'
p1014
sg36
S'@NO'
p1015
sg38
S'--'
p1016
sg40
S'--'
p1017
sg42
S'--'
p1018
ssg35
(dp1019
g5
S'--'
p1020
sg7
S'--'
p1021
sg9
g41
sg11
S'--'
p1022
sg13
g10
sg14
S'Niles Paul'
p1023
sg16
S'2012'
p1024
sg18
g35
sg20
S'--'
p1025
sg22
S'09/23'
p1026
sg24
S'--'
p1027
sg26
S'--'
p1028
sg28
S'--'
p1029
sg30
S'L31-38'
p1030
sg32
S'--'
p1031
sg34
S'--'
p1032
sg36
S'CIN'
p1033
sg38
S'--'
p1034
sg40
S'--'
p1035
sg42
S'--'
p1036
ssg135
(dp1037
g5
S'--'
p1038
sg7
S'--'
p1039
sg9
g10
sg11
S'--'
p1040
sg13
g10
sg14
S'Niles Paul'
p1041
sg16
S'2012'
p1042
sg18
g135
sg20
S'--'
p1043
sg22
S'09/16'
p1044
sg24
S'4.3'
p1045
sg26
S'--'
p1046
sg28
S'--'
p1047
sg30
S'L28-31'
p1048
sg32
S'13'
p1049
sg34
g35
sg36
S'@STL'
p1050
sg38
g39
sg40
g41
sg42
S'--'
p1051
ssg207
(dp1052
g5
S'--'
p1053
sg7
S'--'
p1054
sg9
g10
sg11
S'--'
p1055
sg13
g10
sg14
S'Niles Paul'
p1056
sg16
S'2012'
p1057
sg18
g207
sg20
S'--'
p1058
sg22
S'10/07'
p1059
sg24
S'--'
p1060
sg26
S'--'
p1061
sg28
S'--'
p1062
sg30
S'L17-24'
p1063
sg32
S'--'
p1064
sg34
S'--'
p1065
sg36
S'ATL'
p1066
sg38
S'--'
p1067
sg40
S'--'
p1068
sg42
S'--'
p1069
ssg170
(dp1070
g5
S'--'
p1071
sg7
S'--'
p1072
sg9
g41
sg11
S'--'
p1073
sg13
g10
sg14
S'Niles Paul'
p1074
sg16
S'2012'
p1075
sg18
g170
sg20
S'--'
p1076
sg22
S'09/30'
p1077
sg24
S'30.0'
p1078
sg26
S'--'
p1079
sg28
S'--'
p1080
sg30
S'W24-22'
p1081
sg32
S'30'
p1082
sg34
g10
sg36
S'@TB'
p1083
sg38
S'30'
p1084
sg40
g41
sg42
S'--'
p1085
ssg65
(dp1086
g5
g41
sg7
S'-1'
p1087
sg9
g41
sg11
S'--'
p1088
sg13
g10
sg14
S'Niles Paul'
p1089
sg16
S'2012'
p1090
sg18
g65
sg20
S'-1.0'
p1091
sg22
S'10/21'
p1092
sg24
S'--'
p1093
sg26
S'--'
p1094
sg28
g10
sg30
S'L23-27'
p1095
sg32
g41
sg34
g41
sg36
S'@NYG'
p1096
sg38
S'--'
p1097
sg40
g41
sg42
S'-1'
p1098
ssg187
(dp1099
g5
S'--'
p1100
sg7
S'--'
p1101
sg9
g41
sg11
S'--'
p1102
sg13
g10
sg14
S'Niles Paul'
p1103
sg16
S'2012'
p1104
sg18
g187
sg20
S'--'
p1105
sg22
S'10/14'
p1106
sg24
S'--'
p1107
sg26
S'--'
p1108
sg28
S'--'
p1109
sg30
S'W38-26'
p1110
sg32
S'--'
p1111
sg34
S'--'
p1112
sg36
S'MIN'
p1113
sg38
S'--'
p1114
sg40
S'--'
p1115
sg42
S'--'
p1116
ssg268
(dp1117
g5
S'--'
p1118
sg7
S'--'
p1119
sg9
g41
sg11
S'--'
p1120
sg13
g10
sg14
S'Niles Paul'
p1121
sg16
S'2012'
p1122
sg18
g268
sg20
S'--'
p1123
sg22
S'11/04'
p1124
sg24
S'22.0'
p1125
sg26
S'--'
p1126
sg28
S'--'
p1127
sg30
S'L13-21'
p1128
sg32
S'22'
p1129
sg34
g10
sg36
S'CAR'
p1130
sg38
S'22'
p1131
sg40
g41
sg42
S'--'
p1132
ssg39
(dp1133
g5
S'--'
p1134
sg7
S'--'
p1135
sg9
g41
sg11
S'--'
p1136
sg13
g10
sg14
S'Niles Paul'
p1137
sg16
S'2012'
p1138
sg18
g39
sg20
S'--'
p1139
sg22
S'10/28'
p1140
sg24
S'37.0'
p1141
sg26
S'--'
p1142
sg28
S'--'
p1143
sg30
S'L12-27'
p1144
sg32
S'37'
p1145
sg34
g10
sg36
S'@PIT'
p1146
sg38
S'37'
p1147
sg40
g41
sg42
S'--'
p1148
sss.