(dp0
S'2015'
p1
(dp2
S'11'
p3
(dp4
S'RushTD'
p5
S'--'
p6
sS'RushYds'
p7
S'--'
p8
sS'GS'
p9
S'1'
p10
sS'Lost'
p11
S'--'
p12
sS'G'
p13
g10
sS'Player'
p14
S'Owen Daniels'
p15
sS'Year'
p16
S'2015'
p17
sS'WK'
p18
S'11'
p19
sS'RushAvg'
p20
S'--'
p21
sS'Game Date'
p22
S'11/22'
p23
sS'RecAvg'
p24
S'17.3'
p25
sS'FUM'
p26
S'--'
p27
sS'RushAtt'
p28
S'--'
p29
sS'Result'
p30
S'W17-15'
p31
sS'RecYds'
p32
S'69'
p33
sS'Rec'
p34
S'4'
p35
sS'Opp'
p36
S'@CHI'
p37
sS'RecLng'
p38
S'31'
p39
sS'RecTD'
p40
S'0'
p41
sS'RushLng'
p42
S'--'
p43
ssS'10'
p44
(dp45
g5
S'--'
p46
sg7
S'--'
p47
sg9
g10
sg11
S'--'
p48
sg13
g10
sg14
S'Owen Daniels'
p49
sg16
S'2015'
p50
sg18
S'10'
p51
sg20
S'--'
p52
sg22
S'11/15'
p53
sg24
S'14.0'
p54
sg26
S'--'
p55
sg28
S'--'
p56
sg30
S'L13-29'
p57
sg32
S'14'
p58
sg34
g10
sg36
S'KC'
p59
sg38
S'14'
p60
sg40
g41
sg42
S'--'
p61
ssS'13'
p62
(dp63
g5
S'--'
p64
sg7
S'--'
p65
sg9
g10
sg11
S'--'
p66
sg13
g10
sg14
S'Owen Daniels'
p67
sg16
S'2015'
p68
sg18
S'13'
p69
sg20
S'--'
p70
sg22
S'12/06'
p71
sg24
S'6.5'
p72
sg26
S'--'
p73
sg28
S'--'
p74
sg30
S'W17-3'
p75
sg32
S'13'
p76
sg34
S'2'
p77
sg36
S'@SD'
p78
sg38
S'7'
p79
sg40
g41
sg42
S'--'
p80
ssS'12'
p81
(dp82
g5
S'--'
p83
sg7
S'--'
p84
sg9
g10
sg11
S'--'
p85
sg13
g10
sg14
S'Owen Daniels'
p86
sg16
S'2015'
p87
sg18
S'12'
p88
sg20
S'--'
p89
sg22
S'11/29'
p90
sg24
S'9.6'
p91
sg26
S'--'
p92
sg28
S'--'
p93
sg30
S'W30-24'
p94
sg32
S'48'
p95
sg34
S'5'
p96
sg36
S'NE'
p97
sg38
S'12'
p98
sg40
g41
sg42
S'--'
p99
ssS'15'
p100
(dp101
g5
S'--'
p102
sg7
S'--'
p103
sg9
g10
sg11
S'--'
p104
sg13
g10
sg14
S'Owen Daniels'
p105
sg16
S'2015'
p106
sg18
S'15'
p107
sg20
S'--'
p108
sg22
S'12/20'
p109
sg24
S'7.0'
p110
sg26
S'--'
p111
sg28
S'--'
p112
sg30
S'L27-34'
p113
sg32
S'14'
p114
sg34
g77
sg36
S'@PIT'
p115
sg38
g79
sg40
g41
sg42
S'--'
p116
ssS'14'
p117
(dp118
g5
S'--'
p119
sg7
S'--'
p120
sg9
g10
sg11
S'--'
p121
sg13
g10
sg14
S'Owen Daniels'
p122
sg16
S'2015'
p123
sg18
S'14'
p124
sg20
S'--'
p125
sg22
S'12/13'
p126
sg24
S'14.3'
p127
sg26
S'--'
p128
sg28
S'--'
p129
sg30
S'L12-15'
p130
sg32
S'43'
p131
sg34
S'3'
p132
sg36
S'OAK'
p133
sg38
S'32'
p134
sg40
g41
sg42
S'--'
p135
ssS'17'
p136
(dp137
g5
S'--'
p138
sg7
S'--'
p139
sg9
g10
sg11
S'--'
p140
sg13
g10
sg14
S'Owen Daniels'
p141
sg16
S'2015'
p142
sg18
S'17'
p143
sg20
S'--'
p144
sg22
S'01/03'
p145
sg24
S'15.0'
p146
sg26
S'--'
p147
sg28
S'--'
p148
sg30
S'W27-20'
p149
sg32
S'15'
p150
sg34
g10
sg36
S'SD'
p151
sg38
S'15'
p152
sg40
g41
sg42
S'--'
p153
ssS'16'
p154
(dp155
g5
S'--'
p156
sg7
S'--'
p157
sg9
g10
sg11
S'--'
p158
sg13
g10
sg14
S'Owen Daniels'
p159
sg16
S'2015'
p160
sg18
S'16'
p161
sg20
S'--'
p162
sg22
S'12/28'
p163
sg24
S'14.0'
p164
sg26
S'--'
p165
sg28
S'--'
p166
sg30
S'W20-17'
p167
sg32
S'70'
p168
sg34
g96
sg36
S'CIN'
p169
sg38
S'26'
p170
sg40
g41
sg42
S'--'
p171
ssg10
(dp172
g5
S'--'
p173
sg7
S'--'
p174
sg9
g10
sg11
S'--'
p175
sg13
g10
sg14
S'Owen Daniels'
p176
sg16
S'2015'
p177
sg18
g10
sg20
S'--'
p178
sg22
S'09/13'
p179
sg24
S'2.5'
p180
sg26
S'--'
p181
sg28
S'--'
p182
sg30
S'W19-13'
p183
sg32
g96
sg34
g77
sg36
S'BAL'
p184
sg38
S'9'
p185
sg40
g41
sg42
S'--'
p186
ssg132
(dp187
g5
S'--'
p188
sg7
S'--'
p189
sg9
g10
sg11
S'--'
p190
sg13
g10
sg14
S'Owen Daniels'
p191
sg16
S'2015'
p192
sg18
g132
sg20
S'--'
p193
sg22
S'09/27'
p194
sg24
S'5.6'
p195
sg26
S'--'
p196
sg28
S'--'
p197
sg30
S'W24-12'
p198
sg32
S'28'
p199
sg34
g96
sg36
S'@DET'
p200
sg38
S'11T'
p201
sg40
g10
sg42
S'--'
p202
ssg77
(dp203
g5
S'--'
p204
sg7
S'--'
p205
sg9
g10
sg11
S'--'
p206
sg13
g10
sg14
S'Owen Daniels'
p207
sg16
S'2015'
p208
sg18
g77
sg20
S'--'
p209
sg22
S'09/17'
p210
sg24
S'6.3'
p211
sg26
S'--'
p212
sg28
S'--'
p213
sg30
S'W31-24'
p214
sg32
S'19'
p215
sg34
g132
sg36
S'@KC'
p216
sg38
S'8'
p217
sg40
g41
sg42
S'--'
p218
ssg96
(dp219
g5
S'--'
p220
sg7
S'--'
p221
sg9
g10
sg11
S'--'
p222
sg13
g10
sg14
S'Owen Daniels'
p223
sg16
S'2015'
p224
sg18
g96
sg20
S'--'
p225
sg22
S'10/11'
p226
sg24
S'--'
p227
sg26
S'--'
p228
sg28
S'--'
p229
sg30
S'W16-10'
p230
sg32
g41
sg34
g41
sg36
S'@OAK'
p231
sg38
S'--'
p232
sg40
g41
sg42
S'--'
p233
ssg35
(dp234
g5
S'--'
p235
sg7
S'--'
p236
sg9
g10
sg11
S'--'
p237
sg13
g10
sg14
S'Owen Daniels'
p238
sg16
S'2015'
p239
sg18
g35
sg20
S'--'
p240
sg22
S'10/04'
p241
sg24
S'4.5'
p242
sg26
S'--'
p243
sg28
S'--'
p244
sg30
S'W23-20'
p245
sg32
g185
sg34
g77
sg36
S'MIN'
p246
sg38
g217
sg40
g10
sg42
S'--'
p247
ssg79
(dp248
g5
S''
p249
sg7
g249
sg9
g249
sg11
g249
sg13
g249
sg14
S'Owen Daniels'
p250
sg16
S'2015'
p251
sg18
g79
sg20
g249
sg22
S'Bye'
p252
sg24
g249
sg26
g249
sg28
g249
sg30
g249
sg32
g249
sg34
g249
sg36
g249
sg38
g249
sg40
g249
sg42
g249
ssS'6'
p253
(dp254
g5
S'--'
p255
sg7
S'--'
p256
sg9
g10
sg11
S'--'
p257
sg13
g10
sg14
S'Owen Daniels'
p258
sg16
S'2015'
p259
sg18
g253
sg20
S'--'
p260
sg22
S'10/18'
p261
sg24
S'12.0'
p262
sg26
S'--'
p263
sg28
S'--'
p264
sg30
S'W26-23'
p265
sg32
S'24'
p266
sg34
g77
sg36
S'@CLE'
p267
sg38
S'18'
p268
sg40
g41
sg42
S'--'
p269
ssg185
(dp270
g5
S'--'
p271
sg7
S'--'
p272
sg9
g10
sg11
S'--'
p273
sg13
g10
sg14
S'Owen Daniels'
p274
sg16
S'2015'
p275
sg18
g185
sg20
S'--'
p276
sg22
S'11/08'
p277
sg24
S'17.0'
p278
sg26
S'--'
p279
sg28
S'--'
p280
sg30
S'L24-27'
p281
sg32
S'102'
p282
sg34
g253
sg36
S'@IND'
p283
sg38
S'37'
p284
sg40
g10
sg42
S'--'
p285
ssg217
(dp286
g5
S'--'
p287
sg7
S'--'
p288
sg9
g10
sg11
S'--'
p289
sg13
g10
sg14
S'Owen Daniels'
p290
sg16
S'2015'
p291
sg18
g217
sg20
S'--'
p292
sg22
S'11/01'
p293
sg24
S'14.7'
p294
sg26
S'--'
p295
sg28
S'--'
p296
sg30
S'W29-10'
p297
sg32
S'44'
p298
sg34
g132
sg36
S'GB'
p299
sg38
S'18'
p300
sg40
g41
sg42
S'--'
p301
sssS'2014'
p302
(dp303
g3
(dp304
g5
g249
sg7
g249
sg9
g249
sg11
g249
sg13
g249
sg14
S'Owen Daniels'
p305
sg16
S'2014'
p306
sg18
S'11'
p307
sg20
g249
sg22
S'Bye'
p308
sg24
g249
sg26
g249
sg28
g249
sg30
g249
sg32
g249
sg34
g249
sg36
g249
sg38
g249
sg40
g249
sg42
g249
ssg44
(dp309
g5
S'--'
p310
sg7
S'--'
p311
sg9
g10
sg11
S'--'
p312
sg13
g10
sg14
S'Owen Daniels'
p313
sg16
S'2014'
p314
sg18
S'10'
p315
sg20
S'--'
p316
sg22
S'11/09'
p317
sg24
S'10.0'
p318
sg26
S'--'
p319
sg28
S'--'
p320
sg30
S'W21-7'
p321
sg32
S'20'
p322
sg34
g77
sg36
S'TEN'
p323
sg38
S'13'
p324
sg40
g41
sg42
S'--'
p325
ssg62
(dp326
g5
S'--'
p327
sg7
S'--'
p328
sg9
g10
sg11
S'--'
p329
sg13
g10
sg14
S'Owen Daniels'
p330
sg16
S'2014'
p331
sg18
S'13'
p332
sg20
S'--'
p333
sg22
S'11/30'
p334
sg24
S'15.0'
p335
sg26
S'--'
p336
sg28
S'--'
p337
sg30
S'L33-34'
p338
sg32
S'30'
p339
sg34
g77
sg36
S'SD'
p340
sg38
S'21'
p341
sg40
g41
sg42
S'--'
p342
ssg81
(dp343
g5
S'--'
p344
sg7
S'--'
p345
sg9
g10
sg11
S'--'
p346
sg13
g10
sg14
S'Owen Daniels'
p347
sg16
S'2014'
p348
sg18
S'12'
p349
sg20
S'--'
p350
sg22
S'11/24'
p351
sg24
S'3.5'
p352
sg26
S'--'
p353
sg28
S'--'
p354
sg30
S'W34-27'
p355
sg32
g79
sg34
g77
sg36
S'@NO'
p356
sg38
g217
sg40
g41
sg42
S'--'
p357
ssg100
(dp358
g5
S'--'
p359
sg7
S'--'
p360
sg9
g10
sg11
S'--'
p361
sg13
g10
sg14
S'Owen Daniels'
p362
sg16
S'2014'
p363
sg18
S'15'
p364
sg20
S'--'
p365
sg22
S'12/14'
p366
sg24
S'15.5'
p367
sg26
S'--'
p368
sg28
S'--'
p369
sg30
S'W20-12'
p370
sg32
S'62'
p371
sg34
g35
sg36
S'JAC'
p372
sg38
S'29'
p373
sg40
g10
sg42
S'--'
p374
ssg117
(dp375
g5
S'--'
p376
sg7
S'--'
p377
sg9
g10
sg11
S'--'
p378
sg13
g10
sg14
S'Owen Daniels'
p379
sg16
S'2014'
p380
sg18
S'14'
p381
sg20
S'--'
p382
sg22
S'12/07'
p383
sg24
S'13.5'
p384
sg26
S'--'
p385
sg28
S'--'
p386
sg30
S'W28-13'
p387
sg32
S'27'
p388
sg34
g77
sg36
S'@MIA'
p389
sg38
S'16'
p390
sg40
g41
sg42
S'--'
p391
ssg136
(dp392
g5
S'--'
p393
sg7
S'--'
p394
sg9
g10
sg11
S'--'
p395
sg13
g10
sg14
S'Owen Daniels'
p396
sg16
S'2014'
p397
sg18
S'17'
p398
sg20
S'--'
p399
sg22
S'12/28'
p400
sg24
S'23.0'
p401
sg26
S'--'
p402
sg28
S'--'
p403
sg30
S'W20-10'
p404
sg32
S'46'
p405
sg34
g77
sg36
S'CLE'
p406
sg38
S'39'
p407
sg40
g41
sg42
S'--'
p408
ssg154
(dp409
g5
S'--'
p410
sg7
S'--'
p411
sg9
g10
sg11
S'--'
p412
sg13
g10
sg14
S'Owen Daniels'
p413
sg16
S'2014'
p414
sg18
S'16'
p415
sg20
S'--'
p416
sg22
S'12/21'
p417
sg24
S'7.0'
p418
sg26
S'--'
p419
sg28
S'--'
p420
sg30
S'L13-25'
p421
sg32
g79
sg34
g10
sg36
S'@HOU'
p422
sg38
g79
sg40
g41
sg42
S'--'
p423
ssg10
(dp424
g5
S'--'
p425
sg7
S'--'
p426
sg9
g41
sg11
S'--'
p427
sg13
g10
sg14
S'Owen Daniels'
p428
sg16
S'2014'
p429
sg18
g10
sg20
S'--'
p430
sg22
S'09/07'
p431
sg24
S'8.5'
p432
sg26
S'--'
p433
sg28
S'--'
p434
sg30
S'L16-23'
p435
sg32
S'34'
p436
sg34
g35
sg36
S'CIN'
p437
sg38
S'12'
p438
sg40
g41
sg42
S'--'
p439
ssg132
(dp440
g5
S'--'
p441
sg7
S'--'
p442
sg9
g41
sg11
S'--'
p443
sg13
g10
sg14
S'Owen Daniels'
p444
sg16
S'2014'
p445
sg18
g132
sg20
S'--'
p446
sg22
S'09/21'
p447
sg24
S'8.0'
p448
sg26
S'--'
p449
sg28
S'--'
p450
sg30
S'W23-21'
p451
sg32
g217
sg34
g10
sg36
S'@CLE'
p452
sg38
g217
sg40
g41
sg42
S'--'
p453
ssg77
(dp454
g5
S'--'
p455
sg7
S'--'
p456
sg9
g10
sg11
S'--'
p457
sg13
g10
sg14
S'Owen Daniels'
p458
sg16
S'2014'
p459
sg18
g77
sg20
S'--'
p460
sg22
S'09/11'
p461
sg24
S'5.6'
p462
sg26
S'--'
p463
sg28
S'--'
p464
sg30
S'W26-6'
p465
sg32
S'28'
p466
sg34
g96
sg36
S'PIT'
p467
sg38
S'11'
p468
sg40
g77
sg42
S'--'
p469
ssg96
(dp470
g5
S'--'
p471
sg7
S'--'
p472
sg9
g10
sg11
S'--'
p473
sg13
g10
sg14
S'Owen Daniels'
p474
sg16
S'2014'
p475
sg18
g96
sg20
S'--'
p476
sg22
S'10/05'
p477
sg24
S'14.0'
p478
sg26
S'--'
p479
sg28
S'--'
p480
sg30
S'L13-20'
p481
sg32
S'70'
p482
sg34
g96
sg36
S'@IND'
p483
sg38
S'18'
p484
sg40
g41
sg42
S'--'
p485
ssg35
(dp486
g5
S'--'
p487
sg7
S'--'
p488
sg9
g10
sg11
S'--'
p489
sg13
g10
sg14
S'Owen Daniels'
p490
sg16
S'2014'
p491
sg18
g35
sg20
S'--'
p492
sg22
S'09/28'
p493
sg24
S'10.8'
p494
sg26
S'--'
p495
sg28
S'--'
p496
sg30
S'W38-10'
p497
sg32
S'43'
p498
sg34
g35
sg36
S'CAR'
p499
sg38
S'14'
p500
sg40
g41
sg42
S'--'
p501
ssg79
(dp502
g5
S'--'
p503
sg7
S'--'
p504
sg9
g10
sg11
S'--'
p505
sg13
g10
sg14
S'Owen Daniels'
p506
sg16
S'2014'
p507
sg18
g79
sg20
S'--'
p508
sg22
S'10/19'
p509
sg24
S'9.7'
p510
sg26
S'--'
p511
sg28
S'--'
p512
sg30
S'W29-7'
p513
sg32
S'58'
p514
sg34
g253
sg36
S'ATL'
p515
sg38
S'19'
p516
sg40
g10
sg42
S'--'
p517
ssg253
(dp518
g5
S'--'
p519
sg7
S'--'
p520
sg9
g10
sg11
S'--'
p521
sg13
g10
sg14
S'Owen Daniels'
p522
sg16
S'2014'
p523
sg18
g253
sg20
S'--'
p524
sg22
S'10/12'
p525
sg24
S'17.0'
p526
sg26
S'--'
p527
sg28
S'--'
p528
sg30
S'W48-17'
p529
sg32
S'34'
p530
sg34
g77
sg36
S'@TB'
p531
sg38
S'30'
p532
sg40
g41
sg42
S'--'
p533
ssg185
(dp534
g5
S'--'
p535
sg7
S'--'
p536
sg9
g10
sg11
S'--'
p537
sg13
g10
sg14
S'Owen Daniels'
p538
sg16
S'2014'
p539
sg18
g185
sg20
S'--'
p540
sg22
S'11/02'
p541
sg24
S'8.8'
p542
sg26
S'--'
p543
sg28
S'--'
p544
sg30
S'L23-43'
p545
sg32
S'53'
p546
sg34
g253
sg36
S'@PIT'
p547
sg38
S'12'
p548
sg40
g41
sg42
S'--'
p549
ssg217
(dp550
g5
S'--'
p551
sg7
S'--'
p552
sg9
g41
sg11
S'--'
p553
sg13
g41
sg14
S'Owen Daniels'
p554
sg16
S'2014'
p555
sg18
g217
sg20
S'--'
p556
sg22
S'10/26'
p557
sg24
S'--'
p558
sg26
S'--'
p559
sg28
S'--'
p560
sg30
S'L24-27'
p561
sg32
S'--'
p562
sg34
S'--'
p563
sg36
S'@CIN'
p564
sg38
S'--'
p565
sg40
S'--'
p566
sg42
S'--'
p567
sssS'2011'
p568
(dp569
g3
(dp570
g5
g249
sg7
g249
sg9
g249
sg11
g249
sg13
g249
sg14
S'Owen Daniels'
p571
sg16
S'2011'
p572
sg18
S'11'
p573
sg20
g249
sg22
S'Bye'
p574
sg24
g249
sg26
g249
sg28
g249
sg30
g249
sg32
g249
sg34
g249
sg36
g249
sg38
g249
sg40
g249
sg42
g249
ssg44
(dp575
g5
S'--'
p576
sg7
S'--'
p577
sg9
g10
sg11
S'--'
p578
sg13
g10
sg14
S'Owen Daniels'
p579
sg16
S'2011'
p580
sg18
S'10'
p581
sg20
S'--'
p582
sg22
S'11/13'
p583
sg24
S'10.3'
p584
sg26
S'--'
p585
sg28
S'--'
p586
sg30
S'W37-9'
p587
sg32
S'31'
p588
sg34
g132
sg36
S'@TB'
p589
sg38
S'13'
p590
sg40
g41
sg42
S'--'
p591
ssg62
(dp592
g5
S'--'
p593
sg7
S'--'
p594
sg9
g10
sg11
S'--'
p595
sg13
g10
sg14
S'Owen Daniels'
p596
sg16
S'2011'
p597
sg18
S'13'
p598
sg20
S'--'
p599
sg22
S'12/04'
p600
sg24
S'11.7'
p601
sg26
S'--'
p602
sg28
S'--'
p603
sg30
S'W17-10'
p604
sg32
S'35'
p605
sg34
g132
sg36
S'ATL'
p606
sg38
S'17'
p607
sg40
g41
sg42
S'--'
p608
ssg81
(dp609
g5
S'--'
p610
sg7
S'--'
p611
sg9
g10
sg11
S'--'
p612
sg13
g10
sg14
S'Owen Daniels'
p613
sg16
S'2011'
p614
sg18
S'12'
p615
sg20
S'--'
p616
sg22
S'11/27'
p617
sg24
S'7.8'
p618
sg26
S'--'
p619
sg28
S'--'
p620
sg30
S'W20-13'
p621
sg32
S'31'
p622
sg34
g35
sg36
S'@JAC'
p623
sg38
S'24'
p624
sg40
g41
sg42
S'--'
p625
ssg100
(dp626
g5
S'--'
p627
sg7
S'--'
p628
sg9
g10
sg11
S'--'
p629
sg13
g10
sg14
S'Owen Daniels'
p630
sg16
S'2011'
p631
sg18
S'15'
p632
sg20
S'--'
p633
sg22
S'12/18'
p634
sg24
S'14.5'
p635
sg26
S'--'
p636
sg28
S'--'
p637
sg30
S'L13-28'
p638
sg32
S'29'
p639
sg34
g77
sg36
S'CAR'
p640
sg38
S'17'
p641
sg40
g41
sg42
S'--'
p642
ssg117
(dp643
g5
S'--'
p644
sg7
S'--'
p645
sg9
g10
sg11
S'--'
p646
sg13
g10
sg14
S'Owen Daniels'
p647
sg16
S'2011'
p648
sg18
S'14'
p649
sg20
S'--'
p650
sg22
S'12/11'
p651
sg24
S'14.3'
p652
sg26
S'--'
p653
sg28
S'--'
p654
sg30
S'W20-19'
p655
sg32
S'100'
p656
sg34
g79
sg36
S'@CIN'
p657
sg38
S'27'
p658
sg40
g41
sg42
S'--'
p659
ssg136
(dp660
g5
S'--'
p661
sg7
S'--'
p662
sg9
g41
sg11
S'--'
p663
sg13
g41
sg14
S'Owen Daniels'
p664
sg16
S'2011'
p665
sg18
S'17'
p666
sg20
S'--'
p667
sg22
S'01/01'
p668
sg24
S'--'
p669
sg26
S'--'
p670
sg28
S'--'
p671
sg30
S'L22-23'
p672
sg32
S'--'
p673
sg34
S'--'
p674
sg36
S'TEN'
p675
sg38
S'--'
p676
sg40
S'--'
p677
sg42
S'--'
p678
ssg154
(dp679
g5
S'--'
p680
sg7
S'--'
p681
sg9
g10
sg11
S'--'
p682
sg13
g10
sg14
S'Owen Daniels'
p683
sg16
S'2011'
p684
sg18
S'16'
p685
sg20
S'--'
p686
sg22
S'12/22'
p687
sg24
S'4.0'
p688
sg26
S'--'
p689
sg28
S'--'
p690
sg30
S'L16-19'
p691
sg32
g35
sg34
g10
sg36
S'@IND'
p692
sg38
g35
sg40
g41
sg42
S'--'
p693
ssg10
(dp694
g5
S'--'
p695
sg7
S'--'
p696
sg9
g10
sg11
S'--'
p697
sg13
g10
sg14
S'Owen Daniels'
p698
sg16
S'2011'
p699
sg18
g10
sg20
S'--'
p700
sg22
S'09/11'
p701
sg24
S'12.0'
p702
sg26
S'--'
p703
sg28
S'--'
p704
sg30
S'W34-7'
p705
sg32
S'12'
p706
sg34
g10
sg36
S'IND'
p707
sg38
S'12'
p708
sg40
g41
sg42
S'--'
p709
ssg132
(dp710
g5
S'--'
p711
sg7
S'--'
p712
sg9
g10
sg11
S'--'
p713
sg13
g10
sg14
S'Owen Daniels'
p714
sg16
S'2011'
p715
sg18
g132
sg20
S'--'
p716
sg22
S'09/25'
p717
sg24
S'15.2'
p718
sg26
S'--'
p719
sg28
S'--'
p720
sg30
S'L33-40'
p721
sg32
S'76'
p722
sg34
g96
sg36
S'@NO'
p723
sg38
S'23'
p724
sg40
g10
sg42
S'--'
p725
ssg77
(dp726
g5
S'--'
p727
sg7
S'--'
p728
sg9
g10
sg11
S'--'
p729
sg13
g10
sg14
S'Owen Daniels'
p730
sg16
S'2011'
p731
sg18
g77
sg20
S'--'
p732
sg22
S'09/18'
p733
sg24
S'8.3'
p734
sg26
S'--'
p735
sg28
S'--'
p736
sg30
S'W23-13'
p737
sg32
S'25'
p738
sg34
g132
sg36
S'@MIA'
p739
sg38
S'11'
p740
sg40
g10
sg42
S'--'
p741
ssg96
(dp742
g5
S'--'
p743
sg7
S'--'
p744
sg9
g10
sg11
S'--'
p745
sg13
g10
sg14
S'Owen Daniels'
p746
sg16
S'2011'
p747
sg18
g96
sg20
S'--'
p748
sg22
S'10/09'
p749
sg24
S'12.7'
p750
sg26
S'--'
p751
sg28
S'--'
p752
sg30
S'L20-25'
p753
sg32
S'89'
p754
sg34
g79
sg36
S'OAK'
p755
sg38
S'28'
p756
sg40
g41
sg42
S'--'
p757
ssg35
(dp758
g5
S'--'
p759
sg7
S'--'
p760
sg9
g10
sg11
S'--'
p761
sg13
g10
sg14
S'Owen Daniels'
p762
sg16
S'2011'
p763
sg18
g35
sg20
S'--'
p764
sg22
S'10/02'
p765
sg24
S'13.8'
p766
sg26
S'--'
p767
sg28
S'--'
p768
sg30
S'W17-10'
p769
sg32
S'69'
p770
sg34
g96
sg36
S'PIT'
p771
sg38
S'30'
p772
sg40
g10
sg42
S'--'
p773
ssg79
(dp774
g5
S'--'
p775
sg7
S'--'
p776
sg9
g10
sg11
S'--'
p777
sg13
g10
sg14
S'Owen Daniels'
p778
sg16
S'2011'
p779
sg18
g79
sg20
S'--'
p780
sg22
S'10/23'
p781
sg24
S'17.8'
p782
sg26
S'--'
p783
sg28
S'--'
p784
sg30
S'W41-7'
p785
sg32
S'71'
p786
sg34
g35
sg36
S'@TEN'
p787
sg38
S'34'
p788
sg40
g41
sg42
S'--'
p789
ssg253
(dp790
g5
S'--'
p791
sg7
S'--'
p792
sg9
g10
sg11
S'--'
p793
sg13
g10
sg14
S'Owen Daniels'
p794
sg16
S'2011'
p795
sg18
g253
sg20
S'--'
p796
sg22
S'10/16'
p797
sg24
S'6.5'
p798
sg26
S'--'
p799
sg28
S'--'
p800
sg30
S'L14-29'
p801
sg32
S'13'
p802
sg34
g77
sg36
S'@BAL'
p803
sg38
g217
sg40
g41
sg42
S'--'
p804
ssg185
(dp805
g5
S'--'
p806
sg7
S'--'
p807
sg9
g10
sg11
S'--'
p808
sg13
g10
sg14
S'Owen Daniels'
p809
sg16
S'2011'
p810
sg18
g185
sg20
S'--'
p811
sg22
S'11/06'
p812
sg24
S'10.7'
p813
sg26
S'--'
p814
sg28
S'--'
p815
sg30
S'W30-12'
p816
sg32
S'32'
p817
sg34
g132
sg36
S'CLE'
p818
sg38
S'12'
p819
sg40
g41
sg42
S'--'
p820
ssg217
(dp821
g5
S'--'
p822
sg7
S'--'
p823
sg9
g10
sg11
S'--'
p824
sg13
g10
sg14
S'Owen Daniels'
p825
sg16
S'2011'
p826
sg18
g217
sg20
S'--'
p827
sg22
S'10/30'
p828
sg24
S'15.0'
p829
sg26
S'--'
p830
sg28
S'--'
p831
sg30
S'W24-14'
p832
sg32
S'60'
p833
sg34
g35
sg36
S'JAC'
p834
sg38
S'30'
p835
sg40
g41
sg42
S'--'
p836
sssS'2010'
p837
(dp838
g3
(dp839
g5
S'--'
p840
sg7
S'--'
p841
sg9
g41
sg11
S'--'
p842
sg13
g41
sg14
S'Owen Daniels'
p843
sg16
S'2010'
p844
sg18
S'11'
p845
sg20
S'--'
p846
sg22
S'11/21'
p847
sg24
S'--'
p848
sg26
S'--'
p849
sg28
S'--'
p850
sg30
S'L27-30'
p851
sg32
S'--'
p852
sg34
S'--'
p853
sg36
S'@NYJ'
p854
sg38
S'--'
p855
sg40
S'--'
p856
sg42
S'--'
p857
ssg44
(dp858
g5
S'--'
p859
sg7
S'--'
p860
sg9
g41
sg11
S'--'
p861
sg13
g41
sg14
S'Owen Daniels'
p862
sg16
S'2010'
p863
sg18
S'10'
p864
sg20
S'--'
p865
sg22
S'11/14'
p866
sg24
S'--'
p867
sg26
S'--'
p868
sg28
S'--'
p869
sg30
S'L24-31'
p870
sg32
S'--'
p871
sg34
S'--'
p872
sg36
S'@JAC'
p873
sg38
S'--'
p874
sg40
S'--'
p875
sg42
S'--'
p876
ssg62
(dp877
g5
S'--'
p878
sg7
S'--'
p879
sg9
g41
sg11
S'--'
p880
sg13
g41
sg14
S'Owen Daniels'
p881
sg16
S'2010'
p882
sg18
S'13'
p883
sg20
S'--'
p884
sg22
S'12/02'
p885
sg24
S'--'
p886
sg26
S'--'
p887
sg28
S'--'
p888
sg30
S'L24-34'
p889
sg32
S'--'
p890
sg34
S'--'
p891
sg36
S'@PHI'
p892
sg38
S'--'
p893
sg40
S'--'
p894
sg42
S'--'
p895
ssg81
(dp896
g5
S'--'
p897
sg7
S'--'
p898
sg9
g41
sg11
S'--'
p899
sg13
g41
sg14
S'Owen Daniels'
p900
sg16
S'2010'
p901
sg18
S'12'
p902
sg20
S'--'
p903
sg22
S'11/28'
p904
sg24
S'--'
p905
sg26
S'--'
p906
sg28
S'--'
p907
sg30
S'W20-0'
p908
sg32
S'--'
p909
sg34
S'--'
p910
sg36
S'TEN'
p911
sg38
S'--'
p912
sg40
S'--'
p913
sg42
S'--'
p914
ssg100
(dp915
g5
S'--'
p916
sg7
S'--'
p917
sg9
g10
sg11
S'--'
p918
sg13
g10
sg14
S'Owen Daniels'
p919
sg16
S'2010'
p920
sg18
S'15'
p921
sg20
S'--'
p922
sg22
S'12/19'
p923
sg24
S'11.3'
p924
sg26
S'--'
p925
sg28
S'--'
p926
sg30
S'L17-31'
p927
sg32
S'45'
p928
sg34
g35
sg36
S'@TEN'
p929
sg38
S'23'
p930
sg40
g41
sg42
S'--'
p931
ssg117
(dp932
g5
S'--'
p933
sg7
S'--'
p934
sg9
g10
sg11
S'--'
p935
sg13
g10
sg14
S'Owen Daniels'
p936
sg16
S'2010'
p937
sg18
S'14'
p938
sg20
S'--'
p939
sg22
S'12/13'
p940
sg24
S'18.2'
p941
sg26
S'--'
p942
sg28
S'--'
p943
sg30
S'L28-34'
p944
sg32
S'91'
p945
sg34
g96
sg36
S'BAL'
p946
sg38
S'30'
p947
sg40
g41
sg42
S'--'
p948
ssg136
(dp949
g5
S'--'
p950
sg7
S'--'
p951
sg9
g10
sg11
S'--'
p952
sg13
g10
sg14
S'Owen Daniels'
p953
sg16
S'2010'
p954
sg18
S'17'
p955
sg20
S'--'
p956
sg22
S'01/02'
p957
sg24
S'12.4'
p958
sg26
S'--'
p959
sg28
S'--'
p960
sg30
S'W34-17'
p961
sg32
S'62'
p962
sg34
g96
sg36
S'JAC'
p963
sg38
S'27'
p964
sg40
g10
sg42
S'--'
p965
ssg154
(dp966
g5
S'--'
p967
sg7
S'--'
p968
sg9
g10
sg11
S'--'
p969
sg13
g10
sg14
S'Owen Daniels'
p970
sg16
S'2010'
p971
sg18
S'16'
p972
sg20
S'--'
p973
sg22
S'12/26'
p974
sg24
S'9.1'
p975
sg26
S'--'
p976
sg28
S'--'
p977
sg30
S'L23-24'
p978
sg32
S'73'
p979
sg34
g217
sg36
S'@DEN'
p980
sg38
S'31'
p981
sg40
g10
sg42
S'--'
p982
ssg10
(dp983
g5
S'--'
p984
sg7
S'--'
p985
sg9
g10
sg11
S'--'
p986
sg13
g10
sg14
S'Owen Daniels'
p987
sg16
S'2010'
p988
sg18
g10
sg20
S'--'
p989
sg22
S'09/12'
p990
sg24
S'9.0'
p991
sg26
S'--'
p992
sg28
S'--'
p993
sg30
S'W34-24'
p994
sg32
g185
sg34
g10
sg36
S'IND'
p995
sg38
g185
sg40
g41
sg42
S'--'
p996
ssg132
(dp997
g5
S'--'
p998
sg7
S'--'
p999
sg9
g10
sg11
S'--'
p1000
sg13
g10
sg14
S'Owen Daniels'
p1001
sg16
S'2010'
p1002
sg18
g132
sg20
S'--'
p1003
sg22
S'09/26'
p1004
sg24
S'9.0'
p1005
sg26
S'--'
p1006
sg28
S'--'
p1007
sg30
S'L13-27'
p1008
sg32
S'27'
p1009
sg34
g132
sg36
S'DAL'
p1010
sg38
S'11'
p1011
sg40
g41
sg42
S'--'
p1012
ssg77
(dp1013
g5
S'--'
p1014
sg7
S'--'
p1015
sg9
g10
sg11
S'--'
p1016
sg13
g10
sg14
S'Owen Daniels'
p1017
sg16
S'2010'
p1018
sg18
g77
sg20
S'--'
p1019
sg22
S'09/19'
p1020
sg24
S'12.0'
p1021
sg26
S'--'
p1022
sg28
S'--'
p1023
sg30
S'W30-27'
p1024
sg32
S'24'
p1025
sg34
g77
sg36
S'@WAS'
p1026
sg38
S'15'
p1027
sg40
g41
sg42
S'--'
p1028
ssg96
(dp1029
g5
S'--'
p1030
sg7
S'--'
p1031
sg9
g10
sg11
S'--'
p1032
sg13
g10
sg14
S'Owen Daniels'
p1033
sg16
S'2010'
p1034
sg18
g96
sg20
S'--'
p1035
sg22
S'10/10'
p1036
sg24
S'15.0'
p1037
sg26
S'--'
p1038
sg28
S'--'
p1039
sg30
S'L10-34'
p1040
sg32
S'45'
p1041
sg34
g132
sg36
S'NYG'
p1042
sg38
S'19'
p1043
sg40
g41
sg42
S'--'
p1044
ssg35
(dp1045
g5
S'--'
p1046
sg7
S'--'
p1047
sg9
g41
sg11
S'--'
p1048
sg13
g10
sg14
S'Owen Daniels'
p1049
sg16
S'2010'
p1050
sg18
g35
sg20
S'--'
p1051
sg22
S'10/03'
p1052
sg24
S'8.0'
p1053
sg26
S'--'
p1054
sg28
S'--'
p1055
sg30
S'W31-24'
p1056
sg32
g217
sg34
g10
sg36
S'@OAK'
p1057
sg38
g217
sg40
g41
sg42
S'--'
p1058
ssg79
(dp1059
g5
g249
sg7
g249
sg9
g249
sg11
g249
sg13
g249
sg14
S'Owen Daniels'
p1060
sg16
S'2010'
p1061
sg18
g79
sg20
g249
sg22
S'Bye'
p1062
sg24
g249
sg26
g249
sg28
g249
sg30
g249
sg32
g249
sg34
g249
sg36
g249
sg38
g249
sg40
g249
sg42
g249
ssg253
(dp1063
g5
S'--'
p1064
sg7
S'--'
p1065
sg9
g10
sg11
S'--'
p1066
sg13
g10
sg14
S'Owen Daniels'
p1067
sg16
S'2010'
p1068
sg18
g253
sg20
S'--'
p1069
sg22
S'10/17'
p1070
sg24
S'15.8'
p1071
sg26
S'--'
p1072
sg28
S'--'
p1073
sg30
S'W35-31'
p1074
sg32
S'79'
p1075
sg34
g96
sg36
S'KC'
p1076
sg38
S'27'
p1077
sg40
g41
sg42
S'--'
p1078
ssg185
(dp1079
g5
S'--'
p1080
sg7
S'--'
p1081
sg9
g41
sg11
S'--'
p1082
sg13
g41
sg14
S'Owen Daniels'
p1083
sg16
S'2010'
p1084
sg18
g185
sg20
S'--'
p1085
sg22
S'11/07'
p1086
sg24
S'--'
p1087
sg26
S'--'
p1088
sg28
S'--'
p1089
sg30
S'L23-29'
p1090
sg32
S'--'
p1091
sg34
S'--'
p1092
sg36
S'SD'
p1093
sg38
S'--'
p1094
sg40
S'--'
p1095
sg42
S'--'
p1096
ssg217
(dp1097
g5
S'--'
p1098
sg7
S'--'
p1099
sg9
g10
sg11
S'--'
p1100
sg13
g10
sg14
S'Owen Daniels'
p1101
sg16
S'2010'
p1102
sg18
g217
sg20
S'--'
p1103
sg22
S'11/01'
p1104
sg24
S'8.0'
p1105
sg26
S'--'
p1106
sg28
S'--'
p1107
sg30
S'L17-30'
p1108
sg32
g217
sg34
g10
sg36
S'@IND'
p1109
sg38
g217
sg40
g41
sg42
S'--'
p1110
sssS'2013'
p1111
(dp1112
g10
(dp1113
g5
S'--'
p1114
sg7
S'--'
p1115
sg9
g10
sg11
S'--'
p1116
sg13
g10
sg14
S'Owen Daniels'
p1117
sg16
S'2013'
p1118
sg18
g10
sg20
S'--'
p1119
sg22
S'09/09'
p1120
sg24
S'13.4'
p1121
sg26
S'--'
p1122
sg28
S'--'
p1123
sg30
S'W31-28'
p1124
sg32
S'67'
p1125
sg34
g96
sg36
S'@SD'
p1126
sg38
S'28'
p1127
sg40
g77
sg42
S'--'
p1128
ssg132
(dp1129
g5
S'--'
p1130
sg7
S'--'
p1131
sg9
g10
sg11
S'--'
p1132
sg13
g10
sg14
S'Owen Daniels'
p1133
sg16
S'2013'
p1134
sg18
g132
sg20
S'--'
p1135
sg22
S'09/22'
p1136
sg24
S'5.8'
p1137
sg26
S'--'
p1138
sg28
S'--'
p1139
sg30
S'L9-30'
p1140
sg32
S'29'
p1141
sg34
g96
sg36
S'@BAL'
p1142
sg38
S'13'
p1143
sg40
g41
sg42
S'--'
p1144
ssg77
(dp1145
g5
S'--'
p1146
sg7
S'--'
p1147
sg9
g10
sg11
S'--'
p1148
sg13
g10
sg14
S'Owen Daniels'
p1149
sg16
S'2013'
p1150
sg18
g77
sg20
S'--'
p1151
sg22
S'09/15'
p1152
sg24
S'12.0'
p1153
sg26
S'--'
p1154
sg28
S'--'
p1155
sg30
S'W30-24'
p1156
sg32
S'24'
p1157
sg34
g77
sg36
S'TEN'
p1158
sg38
S'12T'
p1159
sg40
g10
sg42
S'--'
p1160
ssg96
(dp1161
g5
S'--'
p1162
sg7
S'--'
p1163
sg9
g10
sg11
S'--'
p1164
sg13
g10
sg14
S'Owen Daniels'
p1165
sg16
S'2013'
p1166
sg18
g96
sg20
S'--'
p1167
sg22
S'10/06'
p1168
sg24
S'10.0'
p1169
sg26
S'--'
p1170
sg28
S'--'
p1171
sg30
S'L3-34'
p1172
sg32
S'60'
p1173
sg34
g253
sg36
S'@SF'
p1174
sg38
S'19'
p1175
sg40
g41
sg42
S'--'
p1176
ssg35
(dp1177
g5
S'--'
p1178
sg7
S'--'
p1179
sg9
g10
sg11
S'--'
p1180
sg13
g10
sg14
S'Owen Daniels'
p1181
sg16
S'2013'
p1182
sg18
g35
sg20
S'--'
p1183
sg22
S'09/29'
p1184
sg24
S'12.0'
p1185
sg26
S'--'
p1186
sg28
S'--'
p1187
sg30
S'L20-23'
p1188
sg32
S'72'
p1189
sg34
g253
sg36
S'SEA'
p1190
sg38
S'21'
p1191
sg40
g41
sg42
S'--'
p1192
sssS'2012'
p1193
(dp1194
g3
(dp1195
g5
S'--'
p1196
sg7
S'--'
p1197
sg9
g41
sg11
S'--'
p1198
sg13
g10
sg14
S'Owen Daniels'
p1199
sg16
S'2012'
p1200
sg18
S'11'
p1201
sg20
S'--'
p1202
sg22
S'11/18'
p1203
sg24
S'9.5'
p1204
sg26
S'--'
p1205
sg28
S'--'
p1206
sg30
S'W43-37'
p1207
sg32
S'57'
p1208
sg34
g253
sg36
S'JAC'
p1209
sg38
S'18'
p1210
sg40
g41
sg42
S'--'
p1211
ssg44
(dp1212
g5
S'--'
p1213
sg7
S'--'
p1214
sg9
g41
sg11
S'--'
p1215
sg13
g41
sg14
S'Owen Daniels'
p1216
sg16
S'2012'
p1217
sg18
S'10'
p1218
sg20
S'--'
p1219
sg22
S'11/11'
p1220
sg24
S'--'
p1221
sg26
S'--'
p1222
sg28
S'--'
p1223
sg30
S'W13-6'
p1224
sg32
S'--'
p1225
sg34
S'--'
p1226
sg36
S'@CHI'
p1227
sg38
S'--'
p1228
sg40
S'--'
p1229
sg42
S'--'
p1230
ssg62
(dp1231
g5
S'--'
p1232
sg7
S'--'
p1233
sg9
g10
sg11
S'--'
p1234
sg13
g10
sg14
S'Owen Daniels'
p1235
sg16
S'2012'
p1236
sg18
S'13'
p1237
sg20
S'--'
p1238
sg22
S'12/02'
p1239
sg24
S'14.3'
p1240
sg26
S'--'
p1241
sg28
S'--'
p1242
sg30
S'W24-10'
p1243
sg32
S'43'
p1244
sg34
g132
sg36
S'@TEN'
p1245
sg38
S'19'
p1246
sg40
g41
sg42
S'--'
p1247
ssg81
(dp1248
g5
S'--'
p1249
sg7
S'--'
p1250
sg9
g10
sg11
S'--'
p1251
sg13
g10
sg14
S'Owen Daniels'
p1252
sg16
S'2012'
p1253
sg18
S'12'
p1254
sg20
S'--'
p1255
sg22
S'11/22'
p1256
sg24
S'5.0'
p1257
sg26
S'--'
p1258
sg28
S'--'
p1259
sg30
S'W34-31'
p1260
sg32
S'20'
p1261
sg34
g35
sg36
S'@DET'
p1262
sg38
S'9T'
p1263
sg40
g10
sg42
S'--'
p1264
ssg100
(dp1265
g5
S'--'
p1266
sg7
S'--'
p1267
sg9
g10
sg11
S'--'
p1268
sg13
g10
sg14
S'Owen Daniels'
p1269
sg16
S'2012'
p1270
sg18
S'15'
p1271
sg20
S'--'
p1272
sg22
S'12/16'
p1273
sg24
S'10.0'
p1274
sg26
S'--'
p1275
sg28
S'--'
p1276
sg30
S'W29-17'
p1277
sg32
S'40'
p1278
sg34
g35
sg36
S'IND'
p1279
sg38
S'17'
p1280
sg40
g41
sg42
S'--'
p1281
ssg117
(dp1282
g5
S'--'
p1283
sg7
S'--'
p1284
sg9
g10
sg11
S'--'
p1285
sg13
g10
sg14
S'Owen Daniels'
p1286
sg16
S'2012'
p1287
sg18
S'14'
p1288
sg20
S'--'
p1289
sg22
S'12/10'
p1290
sg24
S'12.0'
p1291
sg26
S'--'
p1292
sg28
S'--'
p1293
sg30
S'L14-42'
p1294
sg32
S'24'
p1295
sg34
g77
sg36
S'@NE'
p1296
sg38
S'13'
p1297
sg40
g41
sg42
S'--'
p1298
ssg136
(dp1299
g5
S'--'
p1300
sg7
S'--'
p1301
sg9
g10
sg11
S'--'
p1302
sg13
g10
sg14
S'Owen Daniels'
p1303
sg16
S'2012'
p1304
sg18
S'17'
p1305
sg20
S'--'
p1306
sg22
S'12/30'
p1307
sg24
S'9.0'
p1308
sg26
S'--'
p1309
sg28
S'--'
p1310
sg30
S'L16-28'
p1311
sg32
S'27'
p1312
sg34
g132
sg36
S'@IND'
p1313
sg38
S'15'
p1314
sg40
g41
sg42
S'--'
p1315
ssg154
(dp1316
g5
S'--'
p1317
sg7
S'--'
p1318
sg9
g10
sg11
S'--'
p1319
sg13
g10
sg14
S'Owen Daniels'
p1320
sg16
S'2012'
p1321
sg18
S'16'
p1322
sg20
S'--'
p1323
sg22
S'12/23'
p1324
sg24
S'9.0'
p1325
sg26
S'--'
p1326
sg28
S'--'
p1327
sg30
S'L6-23'
p1328
sg32
S'27'
p1329
sg34
g132
sg36
S'MIN'
p1330
sg38
S'14'
p1331
sg40
g41
sg42
S'--'
p1332
ssg10
(dp1333
g5
S'--'
p1334
sg7
S'--'
p1335
sg9
g10
sg11
S'--'
p1336
sg13
g10
sg14
S'Owen Daniels'
p1337
sg16
S'2012'
p1338
sg18
g10
sg20
S'--'
p1339
sg22
S'09/09'
p1340
sg24
S'21.8'
p1341
sg26
S'--'
p1342
sg28
S'--'
p1343
sg30
S'W30-10'
p1344
sg32
S'87'
p1345
sg34
g35
sg36
S'MIA'
p1346
sg38
S'29'
p1347
sg40
g41
sg42
S'--'
p1348
ssg132
(dp1349
g5
S'--'
p1350
sg7
S'--'
p1351
sg9
g10
sg11
S'--'
p1352
sg13
g10
sg14
S'Owen Daniels'
p1353
sg16
S'2012'
p1354
sg18
g132
sg20
S'--'
p1355
sg22
S'09/23'
p1356
sg24
S'8.7'
p1357
sg26
S'--'
p1358
sg28
S'--'
p1359
sg30
S'W31-25'
p1360
sg32
S'26'
p1361
sg34
g132
sg36
S'@DEN'
p1362
sg38
S'14T'
p1363
sg40
g10
sg42
S'--'
p1364
ssg77
(dp1365
g5
S'--'
p1366
sg7
S'--'
p1367
sg9
g10
sg11
S'--'
p1368
sg13
g10
sg14
S'Owen Daniels'
p1369
sg16
S'2012'
p1370
sg18
g77
sg20
S'--'
p1371
sg22
S'09/16'
p1372
sg24
S'7.8'
p1373
sg26
S'--'
p1374
sg28
S'--'
p1375
sg30
S'W27-7'
p1376
sg32
S'47'
p1377
sg34
g253
sg36
S'@JAC'
p1378
sg38
S'12'
p1379
sg40
g41
sg42
S'--'
p1380
ssg96
(dp1381
g5
S'--'
p1382
sg7
S'--'
p1383
sg9
g10
sg11
S'--'
p1384
sg13
g10
sg14
S'Owen Daniels'
p1385
sg16
S'2012'
p1386
sg18
g96
sg20
S'--'
p1387
sg22
S'10/08'
p1388
sg24
S'19.8'
p1389
sg26
S'--'
p1390
sg28
S'--'
p1391
sg30
S'W23-17'
p1392
sg32
S'79'
p1393
sg34
g35
sg36
S'@NYJ'
p1394
sg38
S'34T'
p1395
sg40
g10
sg42
S'--'
p1396
ssg35
(dp1397
g5
S'--'
p1398
sg7
S'--'
p1399
sg9
g10
sg11
S'--'
p1400
sg13
g10
sg14
S'Owen Daniels'
p1401
sg16
S'2012'
p1402
sg18
g35
sg20
S'--'
p1403
sg22
S'09/30'
p1404
sg24
S'12.0'
p1405
sg26
S'--'
p1406
sg28
S'--'
p1407
sg30
S'W38-14'
p1408
sg32
S'72'
p1409
sg34
g253
sg36
S'TEN'
p1410
sg38
S'28T'
p1411
sg40
g10
sg42
S'--'
p1412
ssg79
(dp1413
g5
S'--'
p1414
sg7
S'--'
p1415
sg9
g10
sg11
S'--'
p1416
sg13
g10
sg14
S'Owen Daniels'
p1417
sg16
S'2012'
p1418
sg18
g79
sg20
S'--'
p1419
sg22
S'10/21'
p1420
sg24
S'8.4'
p1421
sg26
S'--'
p1422
sg28
S'--'
p1423
sg30
S'W43-13'
p1424
sg32
S'59'
p1425
sg34
g79
sg36
S'BAL'
p1426
sg38
S'19'
p1427
sg40
g10
sg42
S'--'
p1428
ssg253
(dp1429
g5
S'--'
p1430
sg7
S'--'
p1431
sg9
g10
sg11
S'--'
p1432
sg13
g10
sg14
S'Owen Daniels'
p1433
sg16
S'2012'
p1434
sg18
g253
sg20
S'--'
p1435
sg22
S'10/14'
p1436
sg24
S'15.3'
p1437
sg26
S'--'
p1438
sg28
S'--'
p1439
sg30
S'L24-42'
p1440
sg32
S'46'
p1441
sg34
g132
sg36
S'GB'
p1442
sg38
S'27'
p1443
sg40
g41
sg42
S'--'
p1444
ssg185
(dp1445
g5
S'--'
p1446
sg7
S'--'
p1447
sg9
g10
sg11
S'--'
p1448
sg13
g10
sg14
S'Owen Daniels'
p1449
sg16
S'2012'
p1450
sg18
g185
sg20
S'--'
p1451
sg22
S'11/04'
p1452
sg24
S'15.5'
p1453
sg26
S'--'
p1454
sg28
S'--'
p1455
sg30
S'W21-9'
p1456
sg32
S'62'
p1457
sg34
g35
sg36
S'BUF'
p1458
sg38
S'39T'
p1459
sg40
g10
sg42
S'--'
p1460
ssg217
(dp1461
g5
g249
sg7
g249
sg9
g249
sg11
g249
sg13
g249
sg14
S'Owen Daniels'
p1462
sg16
S'2012'
p1463
sg18
g217
sg20
g249
sg22
S'Bye'
p1464
sg24
g249
sg26
g249
sg28
g249
sg30
g249
sg32
g249
sg34
g249
sg36
g249
sg38
g249
sg40
g249
sg42
g249
sss.