(dp0
S'2015'
p1
(dp2
S'11'
p3
(dp4
S'RushTD'
p5
S'--'
p6
sS'RushYds'
p7
S'--'
p8
sS'GS'
p9
S'0'
p10
sS'Lost'
p11
S'1'
p12
sS'G'
p13
g12
sS'Player'
p14
S'Phillip Supernaw'
p15
sS'Year'
p16
S'2015'
p17
sS'WK'
p18
S'11'
p19
sS'RushAvg'
p20
S'--'
p21
sS'Game Date'
p22
S'11/19'
p23
sS'RecAvg'
p24
S'8.0'
p25
sS'FUM'
p26
g12
sS'RushAtt'
p27
S'--'
p28
sS'Result'
p29
S'L13-19'
p30
sS'RecYds'
p31
S'16'
p32
sS'Rec'
p33
S'2'
p34
sS'Opp'
p35
S'@JAC'
p36
sS'RecLng'
p37
S'8'
p38
sS'RecTD'
p39
g10
sS'RushLng'
p40
S'--'
p41
ssS'10'
p42
(dp43
g5
S'--'
p44
sg7
S'--'
p45
sg9
g10
sg11
S'--'
p46
sg13
g12
sg14
S'Phillip Supernaw'
p47
sg16
S'2015'
p48
sg18
S'10'
p49
sg20
S'--'
p50
sg22
S'11/15'
p51
sg24
S'--'
p52
sg26
S'--'
p53
sg27
S'--'
p54
sg29
S'L10-27'
p55
sg31
S'--'
p56
sg33
S'--'
p57
sg35
S'CAR'
p58
sg37
S'--'
p59
sg39
S'--'
p60
sg40
S'--'
p61
ssS'13'
p62
(dp63
g5
S'--'
p64
sg7
S'--'
p65
sg9
g10
sg11
S'--'
p66
sg13
g12
sg14
S'Phillip Supernaw'
p67
sg16
S'2015'
p68
sg18
S'13'
p69
sg20
S'--'
p70
sg22
S'12/06'
p71
sg24
S'--'
p72
sg26
S'--'
p73
sg27
S'--'
p74
sg29
S'W42-39'
p75
sg31
S'--'
p76
sg33
S'--'
p77
sg35
S'JAC'
p78
sg37
S'--'
p79
sg39
S'--'
p80
sg40
S'--'
p81
ssS'12'
p82
(dp83
g5
S'--'
p84
sg7
S'--'
p85
sg9
g10
sg11
S'--'
p86
sg13
g12
sg14
S'Phillip Supernaw'
p87
sg16
S'2015'
p88
sg18
S'12'
p89
sg20
S'--'
p90
sg22
S'11/29'
p91
sg24
S'--'
p92
sg26
S'--'
p93
sg27
S'--'
p94
sg29
S'L21-24'
p95
sg31
S'--'
p96
sg33
S'--'
p97
sg35
S'OAK'
p98
sg37
S'--'
p99
sg39
S'--'
p100
sg40
S'--'
p101
ssS'15'
p102
(dp103
g5
S'--'
p104
sg7
S'--'
p105
sg9
g12
sg11
S'--'
p106
sg13
g12
sg14
S'Phillip Supernaw'
p107
sg16
S'2015'
p108
sg18
S'15'
p109
sg20
S'--'
p110
sg22
S'12/20'
p111
sg24
S'--'
p112
sg26
S'--'
p113
sg27
S'--'
p114
sg29
S'L16-33'
p115
sg31
S'--'
p116
sg33
S'--'
p117
sg35
S'@NE'
p118
sg37
S'--'
p119
sg39
S'--'
p120
sg40
S'--'
p121
ssS'14'
p122
(dp123
g5
S'--'
p124
sg7
S'--'
p125
sg9
g10
sg11
S'--'
p126
sg13
g12
sg14
S'Phillip Supernaw'
p127
sg16
S'2015'
p128
sg18
S'14'
p129
sg20
S'--'
p130
sg22
S'12/13'
p131
sg24
S'16.0'
p132
sg26
S'--'
p133
sg27
S'--'
p134
sg29
S'L8-30'
p135
sg31
S'16'
p136
sg33
g12
sg35
S'@NYJ'
p137
sg37
S'16'
p138
sg39
g10
sg40
S'--'
p139
ssS'17'
p140
(dp141
g5
S'--'
p142
sg7
S'--'
p143
sg9
g10
sg11
S'--'
p144
sg13
g12
sg14
S'Phillip Supernaw'
p145
sg16
S'2015'
p146
sg18
S'17'
p147
sg20
S'--'
p148
sg22
S'01/03'
p149
sg24
S'--'
p150
sg26
S'--'
p151
sg27
S'--'
p152
sg29
S'L24-30'
p153
sg31
S'--'
p154
sg33
S'--'
p155
sg35
S'@IND'
p156
sg37
S'--'
p157
sg39
S'--'
p158
sg40
S'--'
p159
ssS'16'
p160
(dp161
g5
S'--'
p162
sg7
S'--'
p163
sg9
g10
sg11
S'--'
p164
sg13
g12
sg14
S'Phillip Supernaw'
p165
sg16
S'2015'
p166
sg18
S'16'
p167
sg20
S'--'
p168
sg22
S'12/27'
p169
sg24
S'--'
p170
sg26
S'--'
p171
sg27
S'--'
p172
sg29
S'L6-34'
p173
sg31
S'--'
p174
sg33
S'--'
p175
sg35
S'HOU'
p176
sg37
S'--'
p177
sg39
S'--'
p178
sg40
S'--'
p179
ssg12
(dp180
g5
S'--'
p181
sg7
S'--'
p182
sg9
g10
sg11
S'--'
p183
sg13
g12
sg14
S'Phillip Supernaw'
p184
sg16
S'2015'
p185
sg18
g12
sg20
S'--'
p186
sg22
S'09/13'
p187
sg24
S'--'
p188
sg26
S'--'
p189
sg27
S'--'
p190
sg29
S'W42-14'
p191
sg31
S'--'
p192
sg33
S'--'
p193
sg35
S'@TB'
p194
sg37
S'--'
p195
sg39
S'--'
p196
sg40
S'--'
p197
ssS'3'
p198
(dp199
g5
S'--'
p200
sg7
S'--'
p201
sg9
g10
sg11
S'--'
p202
sg13
g12
sg14
S'Phillip Supernaw'
p203
sg16
S'2015'
p204
sg18
g198
sg20
S'--'
p205
sg22
S'09/27'
p206
sg24
S'--'
p207
sg26
S'--'
p208
sg27
S'--'
p209
sg29
S'L33-35'
p210
sg31
S'--'
p211
sg33
S'--'
p212
sg35
S'IND'
p213
sg37
S'--'
p214
sg39
S'--'
p215
sg40
S'--'
p216
ssg34
(dp217
g5
S'--'
p218
sg7
S'--'
p219
sg9
g10
sg11
S'--'
p220
sg13
g12
sg14
S'Phillip Supernaw'
p221
sg16
S'2015'
p222
sg18
g34
sg20
S'--'
p223
sg22
S'09/20'
p224
sg24
S'--'
p225
sg26
S'--'
p226
sg27
S'--'
p227
sg29
S'L14-28'
p228
sg31
S'--'
p229
sg33
S'--'
p230
sg35
S'@CLE'
p231
sg37
S'--'
p232
sg39
S'--'
p233
sg40
S'--'
p234
ssS'5'
p235
(dp236
g5
S'--'
p237
sg7
S'--'
p238
sg9
g10
sg11
S'--'
p239
sg13
g12
sg14
S'Phillip Supernaw'
p240
sg16
S'2015'
p241
sg18
g235
sg20
S'--'
p242
sg22
S'10/11'
p243
sg24
S'--'
p244
sg26
S'--'
p245
sg27
S'--'
p246
sg29
S'L13-14'
p247
sg31
S'--'
p248
sg33
S'--'
p249
sg35
S'BUF'
p250
sg37
S'--'
p251
sg39
S'--'
p252
sg40
S'--'
p253
ssS'4'
p254
(dp255
g5
S''
p256
sg7
g256
sg9
g256
sg11
g256
sg13
g256
sg14
S'Phillip Supernaw'
p257
sg16
S'2015'
p258
sg18
g254
sg20
g256
sg22
S'Bye'
p259
sg24
g256
sg26
g256
sg27
g256
sg29
g256
sg31
g256
sg33
g256
sg35
g256
sg37
g256
sg39
g256
sg40
g256
ssS'7'
p260
(dp261
g5
S'--'
p262
sg7
S'--'
p263
sg9
g10
sg11
S'--'
p264
sg13
g12
sg14
S'Phillip Supernaw'
p265
sg16
S'2015'
p266
sg18
g260
sg20
S'--'
p267
sg22
S'10/25'
p268
sg24
S'--'
p269
sg26
S'--'
p270
sg27
S'--'
p271
sg29
S'L7-10'
p272
sg31
S'--'
p273
sg33
S'--'
p274
sg35
S'ATL'
p275
sg37
S'--'
p276
sg39
S'--'
p277
sg40
S'--'
p278
ssS'6'
p279
(dp280
g5
S'--'
p281
sg7
S'--'
p282
sg9
g10
sg11
S'--'
p283
sg13
g12
sg14
S'Phillip Supernaw'
p284
sg16
S'2015'
p285
sg18
g279
sg20
S'--'
p286
sg22
S'10/18'
p287
sg24
S'--'
p288
sg26
S'--'
p289
sg27
S'--'
p290
sg29
S'L10-38'
p291
sg31
S'--'
p292
sg33
S'--'
p293
sg35
S'MIA'
p294
sg37
S'--'
p295
sg39
S'--'
p296
sg40
S'--'
p297
ssS'9'
p298
(dp299
g5
S'--'
p300
sg7
S'--'
p301
sg9
g10
sg11
S'--'
p302
sg13
g12
sg14
S'Phillip Supernaw'
p303
sg16
S'2015'
p304
sg18
g298
sg20
S'--'
p305
sg22
S'11/08'
p306
sg24
S'--'
p307
sg26
S'--'
p308
sg27
S'--'
p309
sg29
S'W34-28'
p310
sg31
S'--'
p311
sg33
S'--'
p312
sg35
S'@NO'
p313
sg37
S'--'
p314
sg39
S'--'
p315
sg40
S'--'
p316
ssg38
(dp317
g5
S'--'
p318
sg7
S'--'
p319
sg9
g10
sg11
S'--'
p320
sg13
g12
sg14
S'Phillip Supernaw'
p321
sg16
S'2015'
p322
sg18
g38
sg20
S'--'
p323
sg22
S'11/01'
p324
sg24
S'--'
p325
sg26
S'--'
p326
sg27
S'--'
p327
sg29
S'L6-20'
p328
sg31
S'--'
p329
sg33
S'--'
p330
sg35
S'@HOU'
p331
sg37
S'--'
p332
sg39
S'--'
p333
sg40
S'--'
p334
sssS'2014'
p335
(dp336
g3
(dp337
g5
S'--'
p338
sg7
S'--'
p339
sg9
g12
sg11
S'--'
p340
sg13
g12
sg14
S'Phillip Supernaw'
p341
sg16
S'2014'
p342
sg18
S'11'
p343
sg20
S'--'
p344
sg22
S'11/16'
p345
sg24
S'3.0'
p346
sg26
S'--'
p347
sg27
S'--'
p348
sg29
S'W24-20'
p349
sg31
g198
sg33
g12
sg35
S'SEA'
p350
sg37
g198
sg39
g10
sg40
S'--'
p351
ssg62
(dp352
g5
S'--'
p353
sg7
S'--'
p354
sg9
g10
sg11
S'--'
p355
sg13
g10
sg14
S'Phillip Supernaw'
p356
sg16
S'2014'
p357
sg18
S'13'
p358
sg20
S'--'
p359
sg22
S'11/30'
p360
sg24
S'--'
p361
sg26
S'--'
p362
sg27
S'--'
p363
sg29
S'L16-29'
p364
sg31
S'--'
p365
sg33
S'--'
p366
sg35
S'DEN'
p367
sg37
S'--'
p368
sg39
S'--'
p369
sg40
S'--'
p370
ssg82
(dp371
g5
S'--'
p372
sg7
S'--'
p373
sg9
g10
sg11
S'--'
p374
sg13
g12
sg14
S'Phillip Supernaw'
p375
sg16
S'2014'
p376
sg18
S'12'
p377
sg20
S'--'
p378
sg22
S'11/20'
p379
sg24
S'--'
p380
sg26
S'--'
p381
sg27
S'--'
p382
sg29
S'L20-24'
p383
sg31
S'--'
p384
sg33
S'--'
p385
sg35
S'@OAK'
p386
sg37
S'--'
p387
sg39
S'--'
p388
sg40
S'--'
p389
ssg102
(dp390
g5
S'--'
p391
sg7
S'--'
p392
sg9
g10
sg11
S'--'
p393
sg13
g12
sg14
S'Phillip Supernaw'
p394
sg16
S'2014'
p395
sg18
S'15'
p396
sg20
S'--'
p397
sg22
S'12/14'
p398
sg24
S'--'
p399
sg26
S'--'
p400
sg27
S'--'
p401
sg29
S'W20-12'
p402
sg31
S'--'
p403
sg33
S'--'
p404
sg35
S'JAC'
p405
sg37
S'--'
p406
sg39
S'--'
p407
sg40
S'--'
p408
ssg122
(dp409
g5
S'--'
p410
sg7
S'--'
p411
sg9
g10
sg11
S'--'
p412
sg13
g12
sg14
S'Phillip Supernaw'
p413
sg16
S'2014'
p414
sg18
S'14'
p415
sg20
S'--'
p416
sg22
S'12/07'
p417
sg24
S'29.0'
p418
sg26
S'--'
p419
sg27
S'--'
p420
sg29
S'W28-13'
p421
sg31
S'29'
p422
sg33
g12
sg35
S'@MIA'
p423
sg37
S'29'
p424
sg39
g10
sg40
S'--'
p425
ssg140
(dp426
g5
S'--'
p427
sg7
S'--'
p428
sg9
g10
sg11
S'--'
p429
sg13
g10
sg14
S'Phillip Supernaw'
p430
sg16
S'2014'
p431
sg18
S'17'
p432
sg20
S'--'
p433
sg22
S'12/28'
p434
sg24
S'--'
p435
sg26
S'--'
p436
sg27
S'--'
p437
sg29
S'W20-10'
p438
sg31
S'--'
p439
sg33
S'--'
p440
sg35
S'CLE'
p441
sg37
S'--'
p442
sg39
S'--'
p443
sg40
S'--'
p444
ssg160
(dp445
g5
S'--'
p446
sg7
S'--'
p447
sg9
g10
sg11
S'--'
p448
sg13
g12
sg14
S'Phillip Supernaw'
p449
sg16
S'2014'
p450
sg18
S'16'
p451
sg20
S'--'
p452
sg22
S'12/21'
p453
sg24
S'--'
p454
sg26
S'--'
p455
sg27
S'--'
p456
sg29
S'L13-25'
p457
sg31
S'--'
p458
sg33
S'--'
p459
sg35
S'@HOU'
p460
sg37
S'--'
p461
sg39
S'--'
p462
sg40
S'--'
p463
ssg235
(dp464
g5
S'--'
p465
sg7
S'--'
p466
sg9
g10
sg11
S'--'
p467
sg13
g10
sg14
S'Phillip Supernaw'
p468
sg16
S'2014'
p469
sg18
g235
sg20
S'--'
p470
sg22
S'10/05'
p471
sg24
S'--'
p472
sg26
S'--'
p473
sg27
S'--'
p474
sg29
S'L13-20'
p475
sg31
S'--'
p476
sg33
S'--'
p477
sg35
S'@IND'
p478
sg37
S'--'
p479
sg39
S'--'
p480
sg40
S'--'
p481
ssg254
(dp482
g5
S'--'
p483
sg7
S'--'
p484
sg9
g10
sg11
S'--'
p485
sg13
g12
sg14
S'Phillip Supernaw'
p486
sg16
S'2014'
p487
sg18
g254
sg20
S'--'
p488
sg22
S'09/28'
p489
sg24
S'--'
p490
sg26
S'--'
p491
sg27
S'--'
p492
sg29
S'W38-10'
p493
sg31
S'--'
p494
sg33
S'--'
p495
sg35
S'CAR'
p496
sg37
S'--'
p497
sg39
S'--'
p498
sg40
S'--'
p499
ssg298
(dp500
g5
S'--'
p501
sg7
S'--'
p502
sg9
g10
sg11
S'--'
p503
sg13
g12
sg14
S'Phillip Supernaw'
p504
sg16
S'2014'
p505
sg18
g298
sg20
S'--'
p506
sg22
S'11/02'
p507
sg24
S'-2.0'
p508
sg26
S'--'
p509
sg27
S'--'
p510
sg29
S'L23-43'
p511
sg31
S'-2'
p512
sg33
g12
sg35
S'@PIT'
p513
sg37
S'-2'
p514
sg39
g10
sg40
S'--'
p515
ssg38
(dp516
g5
S'--'
p517
sg7
S'--'
p518
sg9
g10
sg11
S'--'
p519
sg13
g12
sg14
S'Phillip Supernaw'
p520
sg16
S'2014'
p521
sg18
g38
sg20
S'--'
p522
sg22
S'10/26'
p523
sg24
S'--'
p524
sg26
S'--'
p525
sg27
S'--'
p526
sg29
S'L24-27'
p527
sg31
S'--'
p528
sg33
S'--'
p529
sg35
S'@CIN'
p530
sg37
S'--'
p531
sg39
S'--'
p532
sg40
S'--'
p533
sss.