(dp0
S'2015'
p1
(dp2
S'17'
p3
(dp4
S'RushTD'
p5
S'--'
p6
sS'RushYds'
p7
S'--'
p8
sS'GS'
p9
S'0'
p10
sS'Lost'
p11
S'--'
p12
sS'G'
p13
g10
sS'Player'
p14
S'RaShaun Allen'
p15
sS'Year'
p16
S'2015'
p17
sS'WK'
p18
S'17'
p19
sS'RushAvg'
p20
S'--'
p21
sS'Game Date'
p22
S'01/03'
p23
sS'RecAvg'
p24
S'--'
p25
sS'FUM'
p26
S'--'
p27
sS'RushAtt'
p28
S'--'
p29
sS'Result'
p30
S'W20-17'
p31
sS'RecYds'
p32
S'--'
p33
sS'Rec'
p34
S'--'
p35
sS'Opp'
p36
S'@ATL'
p37
sS'RecLng'
p38
S'--'
p39
sS'RecTD'
p40
S'--'
p41
sS'RushLng'
p42
S'--'
p43
sssS'2014'
p44
(dp45
S'11'
p46
(dp47
g5
S'--'
p48
sg7
S'--'
p49
sg9
g10
sg11
S'--'
p50
sg13
g10
sg14
S'RaShaun Allen'
p51
sg16
S'2014'
p52
sg18
S'11'
p53
sg20
S'--'
p54
sg22
S'11/16'
p55
sg24
S'--'
p56
sg26
S'--'
p57
sg28
S'--'
p58
sg30
S'L20-24'
p59
sg32
S'--'
p60
sg34
S'--'
p61
sg36
S'@KC'
p62
sg38
S'--'
p63
sg40
S'--'
p64
sg42
S'--'
p65
ssS'13'
p66
(dp67
g5
S'--'
p68
sg7
S'--'
p69
sg9
g10
sg11
S'--'
p70
sg13
g10
sg14
S'RaShaun Allen'
p71
sg16
S'2014'
p72
sg18
S'13'
p73
sg20
S'--'
p74
sg22
S'11/27'
p75
sg24
S'--'
p76
sg26
S'--'
p77
sg28
S'--'
p78
sg30
S'W19-3'
p79
sg32
S'--'
p80
sg34
S'--'
p81
sg36
S'@SF'
p82
sg38
S'--'
p83
sg40
S'--'
p84
sg42
S'--'
p85
ssS'12'
p86
(dp87
g5
S'--'
p88
sg7
S'--'
p89
sg9
g10
sg11
S'--'
p90
sg13
g10
sg14
S'RaShaun Allen'
p91
sg16
S'2014'
p92
sg18
S'12'
p93
sg20
S'--'
p94
sg22
S'11/23'
p95
sg24
S'--'
p96
sg26
S'--'
p97
sg28
S'--'
p98
sg30
S'W19-3'
p99
sg32
S'--'
p100
sg34
S'--'
p101
sg36
S'ARI'
p102
sg38
S'--'
p103
sg40
S'--'
p104
sg42
S'--'
p105
ssS'15'
p106
(dp107
g5
S'--'
p108
sg7
S'--'
p109
sg9
g10
sg11
S'--'
p110
sg13
g10
sg14
S'RaShaun Allen'
p111
sg16
S'2014'
p112
sg18
S'15'
p113
sg20
S'--'
p114
sg22
S'12/14'
p115
sg24
S'--'
p116
sg26
S'--'
p117
sg28
S'--'
p118
sg30
S'W17-7'
p119
sg32
S'--'
p120
sg34
S'--'
p121
sg36
S'SF'
p122
sg38
S'--'
p123
sg40
S'--'
p124
sg42
S'--'
p125
ssS'14'
p126
(dp127
g5
S'--'
p128
sg7
S'--'
p129
sg9
g10
sg11
S'--'
p130
sg13
g10
sg14
S'RaShaun Allen'
p131
sg16
S'2014'
p132
sg18
S'14'
p133
sg20
S'--'
p134
sg22
S'12/07'
p135
sg24
S'--'
p136
sg26
S'--'
p137
sg28
S'--'
p138
sg30
S'W24-14'
p139
sg32
S'--'
p140
sg34
S'--'
p141
sg36
S'@PHI'
p142
sg38
S'--'
p143
sg40
S'--'
p144
sg42
S'--'
p145
ssS'7'
p146
(dp147
g5
S'--'
p148
sg7
S'--'
p149
sg9
g10
sg11
S'--'
p150
sg13
S'1'
p151
sg14
S'RaShaun Allen'
p152
sg16
S'2014'
p153
sg18
g146
sg20
S'--'
p154
sg22
S'10/19'
p155
sg24
S'--'
p156
sg26
S'--'
p157
sg28
S'--'
p158
sg30
S'L26-28'
p159
sg32
S'--'
p160
sg34
S'--'
p161
sg36
S'@STL'
p162
sg38
S'--'
p163
sg40
S'--'
p164
sg42
S'--'
p165
sss.