(dp0
S'2015'
p1
(dp2
S'11'
p3
(dp4
S'RushTD'
p5
S'--'
p6
sS'RushYds'
p7
S'--'
p8
sS'GS'
p9
S'0'
p10
sS'Lost'
p11
S'--'
p12
sS'G'
p13
g10
sS'Player'
p14
S'Richard Gordon'
p15
sS'Year'
p16
S'2015'
p17
sS'WK'
p18
S'11'
p19
sS'RushAvg'
p20
S'--'
p21
sS'Game Date'
p22
S'11/22'
p23
sS'RecAvg'
p24
S'--'
p25
sS'FUM'
p26
S'--'
p27
sS'RushAtt'
p28
S'--'
p29
sS'Result'
p30
S'W17-15'
p31
sS'RecYds'
p32
S'--'
p33
sS'Rec'
p34
S'--'
p35
sS'Opp'
p36
S'@CHI'
p37
sS'RecLng'
p38
S'--'
p39
sS'RecTD'
p40
S'--'
p41
sS'RushLng'
p42
S'--'
p43
ssS'10'
p44
(dp45
g5
S'--'
p46
sg7
S'--'
p47
sg9
g10
sg11
S'--'
p48
sg13
g10
sg14
S'Richard Gordon'
p49
sg16
S'2015'
p50
sg18
S'10'
p51
sg20
S'--'
p52
sg22
S'11/15'
p53
sg24
S'--'
p54
sg26
S'--'
p55
sg28
S'--'
p56
sg30
S'L13-29'
p57
sg32
S'--'
p58
sg34
S'--'
p59
sg36
S'KC'
p60
sg38
S'--'
p61
sg40
S'--'
p62
sg42
S'--'
p63
ssS'12'
p64
(dp65
g5
S'--'
p66
sg7
S'--'
p67
sg9
g10
sg11
S'--'
p68
sg13
g10
sg14
S'Richard Gordon'
p69
sg16
S'2015'
p70
sg18
S'12'
p71
sg20
S'--'
p72
sg22
S'11/29'
p73
sg24
S'--'
p74
sg26
S'--'
p75
sg28
S'--'
p76
sg30
S'W30-24'
p77
sg32
S'--'
p78
sg34
S'--'
p79
sg36
S'NE'
p80
sg38
S'--'
p81
sg40
S'--'
p82
sg42
S'--'
p83
ssS'15'
p84
(dp85
g5
S'--'
p86
sg7
S'--'
p87
sg9
g10
sg11
S'--'
p88
sg13
g10
sg14
S'Richard Gordon'
p89
sg16
S'2015'
p90
sg18
S'15'
p91
sg20
S'--'
p92
sg22
S'12/20'
p93
sg24
S'--'
p94
sg26
S'--'
p95
sg28
S'--'
p96
sg30
S'L14-34'
p97
sg32
S'--'
p98
sg34
S'--'
p99
sg36
S'KC'
p100
sg38
S'--'
p101
sg40
S'--'
p102
sg42
S'--'
p103
ssS'14'
p104
(dp105
g5
S'--'
p106
sg7
S'--'
p107
sg9
g10
sg11
S'--'
p108
sg13
g10
sg14
S'Richard Gordon'
p109
sg16
S'2015'
p110
sg18
S'14'
p111
sg20
S'--'
p112
sg22
S'12/13'
p113
sg24
S'--'
p114
sg26
S'--'
p115
sg28
S'--'
p116
sg30
S'L6-35'
p117
sg32
S'--'
p118
sg34
S'--'
p119
sg36
S'SEA'
p120
sg38
S'--'
p121
sg40
S'--'
p122
sg42
S'--'
p123
ssS'7'
p124
(dp125
g5
S''
p126
sg7
g126
sg9
g126
sg11
g126
sg13
g126
sg14
S'Richard Gordon'
p127
sg16
S'2015'
p128
sg18
g124
sg20
g126
sg22
S'Bye'
p129
sg24
g126
sg26
g126
sg28
g126
sg30
g126
sg32
g126
sg34
g126
sg36
g126
sg38
g126
sg40
g126
sg42
g126
ssS'9'
p130
(dp131
g5
S'--'
p132
sg7
S'--'
p133
sg9
g10
sg11
S'--'
p134
sg13
g10
sg14
S'Richard Gordon'
p135
sg16
S'2015'
p136
sg18
g130
sg20
S'--'
p137
sg22
S'11/08'
p138
sg24
S'--'
p139
sg26
S'--'
p140
sg28
S'--'
p141
sg30
S'L24-27'
p142
sg32
S'--'
p143
sg34
S'--'
p144
sg36
S'@IND'
p145
sg38
S'--'
p146
sg40
S'--'
p147
sg42
S'--'
p148
ssS'8'
p149
(dp150
g5
S'--'
p151
sg7
S'--'
p152
sg9
g10
sg11
S'--'
p153
sg13
S'1'
p154
sg14
S'Richard Gordon'
p155
sg16
S'2015'
p156
sg18
g149
sg20
S'--'
p157
sg22
S'11/01'
p158
sg24
S'--'
p159
sg26
S'--'
p160
sg28
S'--'
p161
sg30
S'W29-10'
p162
sg32
S'--'
p163
sg34
S'--'
p164
sg36
S'GB'
p165
sg38
S'--'
p166
sg40
S'--'
p167
sg42
S'--'
p168
sssS'2014'
p169
(dp170
g3
(dp171
g5
S'--'
p172
sg7
S'--'
p173
sg9
g154
sg11
S'--'
p174
sg13
g154
sg14
S'Richard Gordon'
p175
sg16
S'2014'
p176
sg18
S'11'
p177
sg20
S'--'
p178
sg22
S'11/17'
p179
sg24
S'--'
p180
sg26
S'--'
p181
sg28
S'--'
p182
sg30
S'L24-27'
p183
sg32
S'--'
p184
sg34
S'--'
p185
sg36
S'PIT'
p186
sg38
S'--'
p187
sg40
S'--'
p188
sg42
S'--'
p189
ssg44
(dp190
g5
S'--'
p191
sg7
S'--'
p192
sg9
g10
sg11
S'--'
p193
sg13
g154
sg14
S'Richard Gordon'
p194
sg16
S'2014'
p195
sg18
S'10'
p196
sg20
S'--'
p197
sg22
S'11/09'
p198
sg24
S'--'
p199
sg26
S'--'
p200
sg28
S'--'
p201
sg30
S'L7-21'
p202
sg32
S'--'
p203
sg34
S'--'
p204
sg36
S'@BAL'
p205
sg38
S'--'
p206
sg40
S'--'
p207
sg42
S'--'
p208
ssg64
(dp209
g5
S'--'
p210
sg7
S'--'
p211
sg9
g10
sg11
S'--'
p212
sg13
g10
sg14
S'Richard Gordon'
p213
sg16
S'2014'
p214
sg18
S'12'
p215
sg20
S'--'
p216
sg22
S'11/23'
p217
sg24
S'--'
p218
sg26
S'--'
p219
sg28
S'--'
p220
sg30
S'L24-43'
p221
sg32
S'--'
p222
sg34
S'--'
p223
sg36
S'@PHI'
p224
sg38
S'--'
p225
sg40
S'--'
p226
sg42
S'--'
p227
ssg84
(dp228
g5
S'--'
p229
sg7
S'--'
p230
sg9
g10
sg11
S'--'
p231
sg13
g10
sg14
S'Richard Gordon'
p232
sg16
S'2014'
p233
sg18
S'15'
p234
sg20
S'--'
p235
sg22
S'12/14'
p236
sg24
S'--'
p237
sg26
S'--'
p238
sg28
S'--'
p239
sg30
S'W31-13'
p240
sg32
S'--'
p241
sg34
S'--'
p242
sg36
S'OAK'
p243
sg38
S'--'
p244
sg40
S'--'
p245
sg42
S'--'
p246
ssg104
(dp247
g5
S'--'
p248
sg7
S'--'
p249
sg9
g10
sg11
S'--'
p250
sg13
g10
sg14
S'Richard Gordon'
p251
sg16
S'2014'
p252
sg18
S'14'
p253
sg20
S'--'
p254
sg22
S'12/07'
p255
sg24
S'--'
p256
sg26
S'--'
p257
sg28
S'--'
p258
sg30
S'L14-17'
p259
sg32
S'--'
p260
sg34
S'--'
p261
sg36
S'@ARI'
p262
sg38
S'--'
p263
sg40
S'--'
p264
sg42
S'--'
p265
ssS'17'
p266
(dp267
g5
S'--'
p268
sg7
S'--'
p269
sg9
g154
sg11
S'--'
p270
sg13
g154
sg14
S'Richard Gordon'
p271
sg16
S'2014'
p272
sg18
S'17'
p273
sg20
S'--'
p274
sg22
S'12/28'
p275
sg24
S'--'
p276
sg26
S'--'
p277
sg28
S'--'
p278
sg30
S'W19-7'
p279
sg32
g10
sg34
g10
sg36
S'SD'
p280
sg38
S'--'
p281
sg40
g10
sg42
S'--'
p282
ssS'16'
p283
(dp284
g5
S'--'
p285
sg7
S'--'
p286
sg9
g10
sg11
S'--'
p287
sg13
g154
sg14
S'Richard Gordon'
p288
sg16
S'2014'
p289
sg18
S'16'
p290
sg20
S'--'
p291
sg22
S'12/21'
p292
sg24
S'--'
p293
sg26
S'--'
p294
sg28
S'--'
p295
sg30
S'L12-20'
p296
sg32
S'--'
p297
sg34
S'--'
p298
sg36
S'@PIT'
p299
sg38
S'--'
p300
sg40
S'--'
p301
sg42
S'--'
p302
ssg130
(dp303
g5
g126
sg7
g126
sg9
g126
sg11
g126
sg13
g126
sg14
S'Richard Gordon'
p304
sg16
S'2014'
p305
sg18
g130
sg20
g126
sg22
S'Bye'
p306
sg24
g126
sg26
g126
sg28
g126
sg30
g126
sg32
g126
sg34
g126
sg36
g126
sg38
g126
sg40
g126
sg42
g126
ssg149
(dp307
g5
S'--'
p308
sg7
S'--'
p309
sg9
g154
sg11
S'--'
p310
sg13
g154
sg14
S'Richard Gordon'
p311
sg16
S'2014'
p312
sg18
g149
sg20
S'--'
p313
sg22
S'10/26'
p314
sg24
S'--'
p315
sg26
S'--'
p316
sg28
S'--'
p317
sg30
S'L16-30'
p318
sg32
S'--'
p319
sg34
S'--'
p320
sg36
S'HOU'
p321
sg38
S'--'
p322
sg40
S'--'
p323
sg42
S'--'
p324
sssS'2011'
p325
(dp326
g3
(dp327
g5
S'--'
p328
sg7
S'--'
p329
sg9
g10
sg11
S'--'
p330
sg13
g154
sg14
S'Richard Gordon'
p331
sg16
S'2011'
p332
sg18
S'11'
p333
sg20
S'--'
p334
sg22
S'11/20'
p335
sg24
S'--'
p336
sg26
S'--'
p337
sg28
S'--'
p338
sg30
S'W27-21'
p339
sg32
S'--'
p340
sg34
S'--'
p341
sg36
S'@MIN'
p342
sg38
S'--'
p343
sg40
S'--'
p344
sg42
S'--'
p345
ssg44
(dp346
g5
S'--'
p347
sg7
S'--'
p348
sg9
g10
sg11
S'--'
p349
sg13
g154
sg14
S'Richard Gordon'
p350
sg16
S'2011'
p351
sg18
S'10'
p352
sg20
S'--'
p353
sg22
S'11/10'
p354
sg24
S'--'
p355
sg26
S'--'
p356
sg28
S'--'
p357
sg30
S'W24-17'
p358
sg32
S'--'
p359
sg34
S'--'
p360
sg36
S'@SD'
p361
sg38
S'--'
p362
sg40
S'--'
p363
sg42
S'--'
p364
ssS'13'
p365
(dp366
g5
S'--'
p367
sg7
S'--'
p368
sg9
g10
sg11
S'--'
p369
sg13
g154
sg14
S'Richard Gordon'
p370
sg16
S'2011'
p371
sg18
S'13'
p372
sg20
S'--'
p373
sg22
S'12/04'
p374
sg24
S'--'
p375
sg26
S'--'
p376
sg28
S'--'
p377
sg30
S'L14-34'
p378
sg32
S'--'
p379
sg34
S'--'
p380
sg36
S'@MIA'
p381
sg38
S'--'
p382
sg40
S'--'
p383
sg42
S'--'
p384
ssg64
(dp385
g5
S'--'
p386
sg7
S'--'
p387
sg9
g10
sg11
S'--'
p388
sg13
g154
sg14
S'Richard Gordon'
p389
sg16
S'2011'
p390
sg18
S'12'
p391
sg20
S'--'
p392
sg22
S'11/27'
p393
sg24
S'--'
p394
sg26
S'--'
p395
sg28
S'--'
p396
sg30
S'W25-20'
p397
sg32
S'--'
p398
sg34
S'--'
p399
sg36
S'CHI'
p400
sg38
S'--'
p401
sg40
S'--'
p402
sg42
S'--'
p403
ssg84
(dp404
g5
S'--'
p405
sg7
S'--'
p406
sg9
g10
sg11
S'--'
p407
sg13
g154
sg14
S'Richard Gordon'
p408
sg16
S'2011'
p409
sg18
S'15'
p410
sg20
S'--'
p411
sg22
S'12/18'
p412
sg24
S'--'
p413
sg26
S'--'
p414
sg28
S'--'
p415
sg30
S'L27-28'
p416
sg32
S'--'
p417
sg34
S'--'
p418
sg36
S'DET'
p419
sg38
S'--'
p420
sg40
S'--'
p421
sg42
S'--'
p422
ssg104
(dp423
g5
S'--'
p424
sg7
S'--'
p425
sg9
g10
sg11
S'--'
p426
sg13
g154
sg14
S'Richard Gordon'
p427
sg16
S'2011'
p428
sg18
S'14'
p429
sg20
S'--'
p430
sg22
S'12/11'
p431
sg24
S'--'
p432
sg26
S'--'
p433
sg28
S'--'
p434
sg30
S'L16-46'
p435
sg32
S'--'
p436
sg34
S'--'
p437
sg36
S'@GB'
p438
sg38
S'--'
p439
sg40
S'--'
p440
sg42
S'--'
p441
ssg266
(dp442
g5
S'--'
p443
sg7
S'--'
p444
sg9
g10
sg11
S'--'
p445
sg13
g154
sg14
S'Richard Gordon'
p446
sg16
S'2011'
p447
sg18
S'17'
p448
sg20
S'--'
p449
sg22
S'01/01'
p450
sg24
S'--'
p451
sg26
S'--'
p452
sg28
S'--'
p453
sg30
S'L26-38'
p454
sg32
S'--'
p455
sg34
S'--'
p456
sg36
S'SD'
p457
sg38
S'--'
p458
sg40
S'--'
p459
sg42
S'--'
p460
ssg283
(dp461
g5
S'--'
p462
sg7
S'--'
p463
sg9
g10
sg11
S'--'
p464
sg13
g154
sg14
S'Richard Gordon'
p465
sg16
S'2011'
p466
sg18
S'16'
p467
sg20
S'--'
p468
sg22
S'12/24'
p469
sg24
S'--'
p470
sg26
S'--'
p471
sg28
S'--'
p472
sg30
S'W16-13'
p473
sg32
S'--'
p474
sg34
S'--'
p475
sg36
S'@KC'
p476
sg38
S'--'
p477
sg40
S'--'
p478
sg42
S'--'
p479
ssg154
(dp480
g5
S'--'
p481
sg7
S'--'
p482
sg9
g10
sg11
S'--'
p483
sg13
g154
sg14
S'Richard Gordon'
p484
sg16
S'2011'
p485
sg18
g154
sg20
S'--'
p486
sg22
S'09/12'
p487
sg24
S'--'
p488
sg26
S'--'
p489
sg28
S'--'
p490
sg30
S'W23-20'
p491
sg32
S'--'
p492
sg34
S'--'
p493
sg36
S'@DEN'
p494
sg38
S'--'
p495
sg40
S'--'
p496
sg42
S'--'
p497
ssS'3'
p498
(dp499
g5
S'--'
p500
sg7
S'--'
p501
sg9
g10
sg11
S'--'
p502
sg13
g154
sg14
S'Richard Gordon'
p503
sg16
S'2011'
p504
sg18
g498
sg20
S'--'
p505
sg22
S'09/25'
p506
sg24
S'--'
p507
sg26
S'--'
p508
sg28
S'--'
p509
sg30
S'W34-24'
p510
sg32
S'--'
p511
sg34
S'--'
p512
sg36
S'NYJ'
p513
sg38
S'--'
p514
sg40
S'--'
p515
sg42
S'--'
p516
ssS'2'
p517
(dp518
g5
S'--'
p519
sg7
S'--'
p520
sg9
g10
sg11
S'--'
p521
sg13
g154
sg14
S'Richard Gordon'
p522
sg16
S'2011'
p523
sg18
g517
sg20
S'--'
p524
sg22
S'09/18'
p525
sg24
S'--'
p526
sg26
S'--'
p527
sg28
S'--'
p528
sg30
S'L35-38'
p529
sg32
S'--'
p530
sg34
S'--'
p531
sg36
S'@BUF'
p532
sg38
S'--'
p533
sg40
S'--'
p534
sg42
S'--'
p535
ssS'5'
p536
(dp537
g5
S'--'
p538
sg7
S'--'
p539
sg9
g10
sg11
S'--'
p540
sg13
g10
sg14
S'Richard Gordon'
p541
sg16
S'2011'
p542
sg18
g536
sg20
S'--'
p543
sg22
S'10/09'
p544
sg24
S'--'
p545
sg26
S'--'
p546
sg28
S'--'
p547
sg30
S'W25-20'
p548
sg32
S'--'
p549
sg34
S'--'
p550
sg36
S'@HOU'
p551
sg38
S'--'
p552
sg40
S'--'
p553
sg42
S'--'
p554
ssS'4'
p555
(dp556
g5
S'--'
p557
sg7
S'--'
p558
sg9
g154
sg11
S'--'
p559
sg13
g154
sg14
S'Richard Gordon'
p560
sg16
S'2011'
p561
sg18
g555
sg20
S'--'
p562
sg22
S'10/02'
p563
sg24
S'2.0'
p564
sg26
S'--'
p565
sg28
S'--'
p566
sg30
S'L19-31'
p567
sg32
g517
sg34
g154
sg36
S'NE'
p568
sg38
g517
sg40
g10
sg42
S'--'
p569
ssg124
(dp570
g5
S'--'
p571
sg7
S'--'
p572
sg9
g10
sg11
S'--'
p573
sg13
g154
sg14
S'Richard Gordon'
p574
sg16
S'2011'
p575
sg18
g124
sg20
S'--'
p576
sg22
S'10/23'
p577
sg24
S'--'
p578
sg26
S'--'
p579
sg28
S'--'
p580
sg30
S'L0-28'
p581
sg32
S'--'
p582
sg34
S'--'
p583
sg36
S'KC'
p584
sg38
S'--'
p585
sg40
S'--'
p586
sg42
S'--'
p587
ssS'6'
p588
(dp589
g5
S'--'
p590
sg7
S'--'
p591
sg9
g10
sg11
S'--'
p592
sg13
g10
sg14
S'Richard Gordon'
p593
sg16
S'2011'
p594
sg18
g588
sg20
S'--'
p595
sg22
S'10/16'
p596
sg24
S'--'
p597
sg26
S'--'
p598
sg28
S'--'
p599
sg30
S'W24-17'
p600
sg32
S'--'
p601
sg34
S'--'
p602
sg36
S'CLE'
p603
sg38
S'--'
p604
sg40
S'--'
p605
sg42
S'--'
p606
ssg130
(dp607
g5
S'--'
p608
sg7
S'--'
p609
sg9
g10
sg11
S'--'
p610
sg13
g154
sg14
S'Richard Gordon'
p611
sg16
S'2011'
p612
sg18
g130
sg20
S'--'
p613
sg22
S'11/06'
p614
sg24
S'--'
p615
sg26
S'--'
p616
sg28
S'--'
p617
sg30
S'L24-38'
p618
sg32
S'--'
p619
sg34
S'--'
p620
sg36
S'DEN'
p621
sg38
S'--'
p622
sg40
S'--'
p623
sg42
S'--'
p624
ssg149
(dp625
g5
g126
sg7
g126
sg9
g126
sg11
g126
sg13
g126
sg14
S'Richard Gordon'
p626
sg16
S'2011'
p627
sg18
g149
sg20
g126
sg22
S'Bye'
p628
sg24
g126
sg26
g126
sg28
g126
sg30
g126
sg32
g126
sg34
g126
sg36
g126
sg38
g126
sg40
g126
sg42
g126
sssS'2013'
p629
(dp630
g3
(dp631
g5
S'--'
p632
sg7
S'--'
p633
sg9
g10
sg11
S'--'
p634
sg13
g10
sg14
S'Richard Gordon'
p635
sg16
S'2013'
p636
sg18
S'11'
p637
sg20
S'--'
p638
sg22
S'11/17'
p639
sg24
S'--'
p640
sg26
S'--'
p641
sg28
S'--'
p642
sg30
S'W37-27'
p643
sg32
S'--'
p644
sg34
S'--'
p645
sg36
S'DET'
p646
sg38
S'--'
p647
sg40
S'--'
p648
sg42
S'--'
p649
ssg44
(dp650
g5
S'--'
p651
sg7
S'--'
p652
sg9
g10
sg11
S'--'
p653
sg13
g10
sg14
S'Richard Gordon'
p654
sg16
S'2013'
p655
sg18
S'10'
p656
sg20
S'--'
p657
sg22
S'11/10'
p658
sg24
S'--'
p659
sg26
S'--'
p660
sg28
S'--'
p661
sg30
S'W23-10'
p662
sg32
S'--'
p663
sg34
S'--'
p664
sg36
S'BUF'
p665
sg38
S'--'
p666
sg40
S'--'
p667
sg42
S'--'
p668
ssg365
(dp669
g5
S'--'
p670
sg7
S'--'
p671
sg9
g10
sg11
S'--'
p672
sg13
g10
sg14
S'Richard Gordon'
p673
sg16
S'2013'
p674
sg18
S'13'
p675
sg20
S'--'
p676
sg22
S'11/28'
p677
sg24
S'--'
p678
sg26
S'--'
p679
sg28
S'--'
p680
sg30
S'L20-22'
p681
sg32
S'--'
p682
sg34
S'--'
p683
sg36
S'@BAL'
p684
sg38
S'--'
p685
sg40
S'--'
p686
sg42
S'--'
p687
ssg64
(dp688
g5
S'--'
p689
sg7
S'--'
p690
sg9
g10
sg11
S'--'
p691
sg13
g10
sg14
S'Richard Gordon'
p692
sg16
S'2013'
p693
sg18
S'12'
p694
sg20
S'--'
p695
sg22
S'11/24'
p696
sg24
S'--'
p697
sg26
S'--'
p698
sg28
S'--'
p699
sg30
S'W27-11'
p700
sg32
S'--'
p701
sg34
S'--'
p702
sg36
S'@CLE'
p703
sg38
S'--'
p704
sg40
S'--'
p705
sg42
S'--'
p706
ssg266
(dp707
g5
S'--'
p708
sg7
S'--'
p709
sg9
g10
sg11
S'--'
p710
sg13
g154
sg14
S'Richard Gordon'
p711
sg16
S'2013'
p712
sg18
S'17'
p713
sg20
S'--'
p714
sg22
S'12/29'
p715
sg24
S'3.0'
p716
sg26
S'--'
p717
sg28
S'--'
p718
sg30
S'L24-27'
p719
sg32
g498
sg34
g154
sg36
S'@SD'
p720
sg38
g498
sg40
g10
sg42
S'--'
p721
ssg283
(dp722
g5
S'--'
p723
sg7
S'--'
p724
sg9
g10
sg11
S'--'
p725
sg13
g154
sg14
S'Richard Gordon'
p726
sg16
S'2013'
p727
sg18
S'16'
p728
sg20
S'--'
p729
sg22
S'12/22'
p730
sg24
S'--'
p731
sg26
S'--'
p732
sg28
S'--'
p733
sg30
S'L7-23'
p734
sg32
S'--'
p735
sg34
S'--'
p736
sg36
S'IND'
p737
sg38
S'--'
p738
sg40
S'--'
p739
sg42
S'--'
p740
ssg124
(dp741
g5
S'--'
p742
sg7
S'--'
p743
sg9
g10
sg11
S'--'
p744
sg13
g10
sg14
S'Richard Gordon'
p745
sg16
S'2013'
p746
sg18
g124
sg20
S'--'
p747
sg22
S'10/20'
p748
sg24
S'--'
p749
sg26
S'--'
p750
sg28
S'--'
p751
sg30
S'W19-16'
p752
sg32
S'--'
p753
sg34
S'--'
p754
sg36
S'BAL'
p755
sg38
S'--'
p756
sg40
S'--'
p757
sg42
S'--'
p758
ssg130
(dp759
g5
S'--'
p760
sg7
S'--'
p761
sg9
g10
sg11
S'--'
p762
sg13
g10
sg14
S'Richard Gordon'
p763
sg16
S'2013'
p764
sg18
g130
sg20
S'--'
p765
sg22
S'11/03'
p766
sg24
S'--'
p767
sg26
S'--'
p768
sg28
S'--'
p769
sg30
S'L31-55'
p770
sg32
S'--'
p771
sg34
S'--'
p772
sg36
S'@NE'
p773
sg38
S'--'
p774
sg40
S'--'
p775
sg42
S'--'
p776
ssg149
(dp777
g5
S'--'
p778
sg7
S'--'
p779
sg9
g10
sg11
S'--'
p780
sg13
g10
sg14
S'Richard Gordon'
p781
sg16
S'2013'
p782
sg18
g149
sg20
S'--'
p783
sg22
S'10/27'
p784
sg24
S'--'
p785
sg26
S'--'
p786
sg28
S'--'
p787
sg30
S'L18-21'
p788
sg32
S'--'
p789
sg34
S'--'
p790
sg36
S'@OAK'
p791
sg38
S'--'
p792
sg40
S'--'
p793
sg42
S'--'
p794
sssS'2012'
p795
(dp796
g3
(dp797
g5
S'--'
p798
sg7
S'--'
p799
sg9
g10
sg11
S'--'
p800
sg13
g154
sg14
S'Richard Gordon'
p801
sg16
S'2012'
p802
sg18
S'11'
p803
sg20
S'--'
p804
sg22
S'11/18'
p805
sg24
S'--'
p806
sg26
S'--'
p807
sg28
S'--'
p808
sg30
S'L17-38'
p809
sg32
S'--'
p810
sg34
S'--'
p811
sg36
S'NO'
p812
sg38
S'--'
p813
sg40
S'--'
p814
sg42
S'--'
p815
ssg44
(dp816
g5
S'--'
p817
sg7
S'--'
p818
sg9
g10
sg11
S'--'
p819
sg13
g154
sg14
S'Richard Gordon'
p820
sg16
S'2012'
p821
sg18
S'10'
p822
sg20
S'--'
p823
sg22
S'11/11'
p824
sg24
S'--'
p825
sg26
S'--'
p826
sg28
S'--'
p827
sg30
S'L20-55'
p828
sg32
S'--'
p829
sg34
S'--'
p830
sg36
S'@BAL'
p831
sg38
S'--'
p832
sg40
S'--'
p833
sg42
S'--'
p834
ssg365
(dp835
g5
S'--'
p836
sg7
S'--'
p837
sg9
g10
sg11
S'--'
p838
sg13
g154
sg14
S'Richard Gordon'
p839
sg16
S'2012'
p840
sg18
S'13'
p841
sg20
S'--'
p842
sg22
S'12/02'
p843
sg24
S'--'
p844
sg26
S'--'
p845
sg28
S'--'
p846
sg30
S'L17-20'
p847
sg32
S'--'
p848
sg34
S'--'
p849
sg36
S'CLE'
p850
sg38
S'--'
p851
sg40
S'--'
p852
sg42
S'--'
p853
ssg64
(dp854
g5
S'--'
p855
sg7
S'--'
p856
sg9
g10
sg11
S'--'
p857
sg13
g154
sg14
S'Richard Gordon'
p858
sg16
S'2012'
p859
sg18
S'12'
p860
sg20
S'--'
p861
sg22
S'11/25'
p862
sg24
S'--'
p863
sg26
S'--'
p864
sg28
S'--'
p865
sg30
S'L10-34'
p866
sg32
S'--'
p867
sg34
S'--'
p868
sg36
S'@CIN'
p869
sg38
S'--'
p870
sg40
S'--'
p871
sg42
S'--'
p872
ssg84
(dp873
g5
S'--'
p874
sg7
S'--'
p875
sg9
g10
sg11
S'--'
p876
sg13
g154
sg14
S'Richard Gordon'
p877
sg16
S'2012'
p878
sg18
S'15'
p879
sg20
S'--'
p880
sg22
S'12/16'
p881
sg24
S'--'
p882
sg26
S'--'
p883
sg28
S'--'
p884
sg30
S'W15-0'
p885
sg32
S'--'
p886
sg34
S'--'
p887
sg36
S'KC'
p888
sg38
S'--'
p889
sg40
S'--'
p890
sg42
S'--'
p891
ssg104
(dp892
g5
S'--'
p893
sg7
S'--'
p894
sg9
g10
sg11
S'--'
p895
sg13
g154
sg14
S'Richard Gordon'
p896
sg16
S'2012'
p897
sg18
S'14'
p898
sg20
S'--'
p899
sg22
S'12/06'
p900
sg24
S'--'
p901
sg26
S'--'
p902
sg28
S'--'
p903
sg30
S'L13-26'
p904
sg32
S'--'
p905
sg34
S'--'
p906
sg36
S'DEN'
p907
sg38
S'--'
p908
sg40
S'--'
p909
sg42
S'--'
p910
ssg266
(dp911
g5
S'--'
p912
sg7
S'--'
p913
sg9
g10
sg11
S'--'
p914
sg13
g154
sg14
S'Richard Gordon'
p915
sg16
S'2012'
p916
sg18
S'17'
p917
sg20
S'--'
p918
sg22
S'12/30'
p919
sg24
S'--'
p920
sg26
S'--'
p921
sg28
S'--'
p922
sg30
S'L21-24'
p923
sg32
S'--'
p924
sg34
S'--'
p925
sg36
S'@SD'
p926
sg38
S'--'
p927
sg40
S'--'
p928
sg42
S'--'
p929
ssg283
(dp930
g5
S'--'
p931
sg7
S'--'
p932
sg9
g10
sg11
S'--'
p933
sg13
g154
sg14
S'Richard Gordon'
p934
sg16
S'2012'
p935
sg18
S'16'
p936
sg20
S'--'
p937
sg22
S'12/23'
p938
sg24
S'--'
p939
sg26
S'--'
p940
sg28
S'--'
p941
sg30
S'L6-17'
p942
sg32
S'--'
p943
sg34
S'--'
p944
sg36
S'@CAR'
p945
sg38
S'--'
p946
sg40
S'--'
p947
sg42
S'--'
p948
ssg154
(dp949
g5
S'--'
p950
sg7
S'--'
p951
sg9
g10
sg11
S'--'
p952
sg13
g154
sg14
S'Richard Gordon'
p953
sg16
S'2012'
p954
sg18
g154
sg20
S'--'
p955
sg22
S'09/10'
p956
sg24
S'--'
p957
sg26
S'--'
p958
sg28
S'--'
p959
sg30
S'L14-22'
p960
sg32
S'--'
p961
sg34
S'--'
p962
sg36
S'SD'
p963
sg38
S'--'
p964
sg40
S'--'
p965
sg42
S'--'
p966
ssg498
(dp967
g5
S'--'
p968
sg7
S'--'
p969
sg9
g10
sg11
S'--'
p970
sg13
g154
sg14
S'Richard Gordon'
p971
sg16
S'2012'
p972
sg18
g498
sg20
S'--'
p973
sg22
S'09/23'
p974
sg24
S'1.0'
p975
sg26
S'--'
p976
sg28
S'--'
p977
sg30
S'W34-31'
p978
sg32
g154
sg34
g154
sg36
S'PIT'
p979
sg38
S'1T'
p980
sg40
g154
sg42
S'--'
p981
ssg517
(dp982
g5
S'--'
p983
sg7
S'--'
p984
sg9
g154
sg11
S'--'
p985
sg13
g154
sg14
S'Richard Gordon'
p986
sg16
S'2012'
p987
sg18
g517
sg20
S'--'
p988
sg22
S'09/16'
p989
sg24
S'--'
p990
sg26
S'--'
p991
sg28
S'--'
p992
sg30
S'L13-35'
p993
sg32
g10
sg34
g10
sg36
S'@MIA'
p994
sg38
S'--'
p995
sg40
g10
sg42
S'--'
p996
ssg536
(dp997
g5
g126
sg7
g126
sg9
g126
sg11
g126
sg13
g126
sg14
S'Richard Gordon'
p998
sg16
S'2012'
p999
sg18
g536
sg20
g126
sg22
S'Bye'
p1000
sg24
g126
sg26
g126
sg28
g126
sg30
g126
sg32
g126
sg34
g126
sg36
g126
sg38
g126
sg40
g126
sg42
g126
ssg555
(dp1001
g5
S'--'
p1002
sg7
S'--'
p1003
sg9
g10
sg11
S'--'
p1004
sg13
g10
sg14
S'Richard Gordon'
p1005
sg16
S'2012'
p1006
sg18
g555
sg20
S'--'
p1007
sg22
S'09/30'
p1008
sg24
S'--'
p1009
sg26
S'--'
p1010
sg28
S'--'
p1011
sg30
S'L6-37'
p1012
sg32
S'--'
p1013
sg34
S'--'
p1014
sg36
S'@DEN'
p1015
sg38
S'--'
p1016
sg40
S'--'
p1017
sg42
S'--'
p1018
ssg124
(dp1019
g5
S'--'
p1020
sg7
S'--'
p1021
sg9
g10
sg11
S'--'
p1022
sg13
g10
sg14
S'Richard Gordon'
p1023
sg16
S'2012'
p1024
sg18
g124
sg20
S'--'
p1025
sg22
S'10/21'
p1026
sg24
S'--'
p1027
sg26
S'--'
p1028
sg28
S'--'
p1029
sg30
S'W26-23'
p1030
sg32
S'--'
p1031
sg34
S'--'
p1032
sg36
S'JAC'
p1033
sg38
S'--'
p1034
sg40
S'--'
p1035
sg42
S'--'
p1036
ssg588
(dp1037
g5
S'--'
p1038
sg7
S'--'
p1039
sg9
g10
sg11
S'--'
p1040
sg13
g10
sg14
S'Richard Gordon'
p1041
sg16
S'2012'
p1042
sg18
g588
sg20
S'--'
p1043
sg22
S'10/14'
p1044
sg24
S'--'
p1045
sg26
S'--'
p1046
sg28
S'--'
p1047
sg30
S'L20-23'
p1048
sg32
S'--'
p1049
sg34
S'--'
p1050
sg36
S'@ATL'
p1051
sg38
S'--'
p1052
sg40
S'--'
p1053
sg42
S'--'
p1054
ssg130
(dp1055
g5
S'--'
p1056
sg7
S'--'
p1057
sg9
g10
sg11
S'--'
p1058
sg13
g154
sg14
S'Richard Gordon'
p1059
sg16
S'2012'
p1060
sg18
g130
sg20
S'--'
p1061
sg22
S'11/04'
p1062
sg24
S'8.0'
p1063
sg26
S'--'
p1064
sg28
S'--'
p1065
sg30
S'L32-42'
p1066
sg32
g149
sg34
g154
sg36
S'TB'
p1067
sg38
g149
sg40
g10
sg42
S'--'
p1068
ssg149
(dp1069
g5
S'--'
p1070
sg7
S'--'
p1071
sg9
g10
sg11
S'--'
p1072
sg13
g154
sg14
S'Richard Gordon'
p1073
sg16
S'2012'
p1074
sg18
g149
sg20
S'--'
p1075
sg22
S'10/28'
p1076
sg24
S'--'
p1077
sg26
S'--'
p1078
sg28
S'--'
p1079
sg30
S'W26-16'
p1080
sg32
S'--'
p1081
sg34
S'--'
p1082
sg36
S'@KC'
p1083
sg38
S'--'
p1084
sg40
S'--'
p1085
sg42
S'--'
p1086
sss.