(dp0
S'2015'
p1
(dp2
S'11'
p3
(dp4
S'RushTD'
p5
S'--'
p6
sS'RushYds'
p7
S'--'
p8
sS'GS'
p9
S'1'
p10
sS'Lost'
p11
S'--'
p12
sS'G'
p13
g10
sS'Player'
p14
S'Richard Rodgers'
p15
sS'Year'
p16
S'2015'
p17
sS'WK'
p18
S'11'
p19
sS'RushAvg'
p20
S'--'
p21
sS'Game Date'
p22
S'11/22'
p23
sS'RecAvg'
p24
S'2.3'
p25
sS'FUM'
p26
S'--'
p27
sS'RushAtt'
p28
S'--'
p29
sS'Result'
p30
S'W30-13'
p31
sS'RecYds'
p32
S'7'
p33
sS'Rec'
p34
S'3'
p35
sS'Opp'
p36
S'@MIN'
p37
sS'RecLng'
p38
S'5'
p39
sS'RecTD'
p40
S'0'
p41
sS'RushLng'
p42
S'--'
p43
ssS'10'
p44
(dp45
g5
S'--'
p46
sg7
S'--'
p47
sg9
g10
sg11
S'--'
p48
sg13
g10
sg14
S'Richard Rodgers'
p49
sg16
S'2015'
p50
sg18
S'10'
p51
sg20
S'--'
p52
sg22
S'11/15'
p53
sg24
S'6.4'
p54
sg26
S'--'
p55
sg28
S'--'
p56
sg30
S'L16-18'
p57
sg32
S'32'
p58
sg34
g39
sg36
S'DET'
p59
sg38
S'21'
p60
sg40
g10
sg42
S'--'
p61
ssS'13'
p62
(dp63
g5
S'--'
p64
sg7
S'--'
p65
sg9
g41
sg11
S'--'
p66
sg13
g10
sg14
S'Richard Rodgers'
p67
sg16
S'2015'
p68
sg18
S'13'
p69
sg20
S'--'
p70
sg22
S'12/03'
p71
sg24
S'18.3'
p72
sg26
S'--'
p73
sg28
S'--'
p74
sg30
S'W27-23'
p75
sg32
S'146'
p76
sg34
S'8'
p77
sg36
S'@DET'
p78
sg38
S'61T'
p79
sg40
g10
sg42
S'--'
p80
ssS'12'
p81
(dp82
g5
S'--'
p83
sg7
S'--'
p84
sg9
g10
sg11
S'--'
p85
sg13
g10
sg14
S'Richard Rodgers'
p86
sg16
S'2015'
p87
sg18
S'12'
p88
sg20
S'--'
p89
sg22
S'11/26'
p90
sg24
S'7.5'
p91
sg26
S'--'
p92
sg28
S'--'
p93
sg30
S'L13-17'
p94
sg32
S'30'
p95
sg34
S'4'
p96
sg36
S'CHI'
p97
sg38
S'13'
p98
sg40
g41
sg42
S'--'
p99
ssS'15'
p100
(dp101
g5
S'--'
p102
sg7
S'--'
p103
sg9
g41
sg11
S'--'
p104
sg13
g10
sg14
S'Richard Rodgers'
p105
sg16
S'2015'
p106
sg18
S'15'
p107
sg20
S'--'
p108
sg22
S'12/20'
p109
sg24
S'7.0'
p110
sg26
S'--'
p111
sg28
S'--'
p112
sg30
S'W30-20'
p113
sg32
g33
sg34
g10
sg36
S'@OAK'
p114
sg38
g33
sg40
g41
sg42
S'--'
p115
ssS'14'
p116
(dp117
g5
S'--'
p118
sg7
S'--'
p119
sg9
g41
sg11
S'--'
p120
sg13
g10
sg14
S'Richard Rodgers'
p121
sg16
S'2015'
p122
sg18
S'14'
p123
sg20
S'--'
p124
sg22
S'12/13'
p125
sg24
S'3.0'
p126
sg26
S'--'
p127
sg28
S'--'
p128
sg30
S'W28-7'
p129
sg32
g35
sg34
g10
sg36
S'DAL'
p130
sg38
S'3T'
p131
sg40
g10
sg42
S'--'
p132
ssS'17'
p133
(dp134
g5
S'--'
p135
sg7
S'--'
p136
sg9
g10
sg11
S'--'
p137
sg13
g10
sg14
S'Richard Rodgers'
p138
sg16
S'2015'
p139
sg18
S'17'
p140
sg20
S'--'
p141
sg22
S'01/03'
p142
sg24
S'8.4'
p143
sg26
S'--'
p144
sg28
S'--'
p145
sg30
S'L13-20'
p146
sg32
S'59'
p147
sg34
g33
sg36
S'MIN'
p148
sg38
S'18'
p149
sg40
g10
sg42
S'--'
p150
ssS'16'
p151
(dp152
g5
S'--'
p153
sg7
S'--'
p154
sg9
g41
sg11
S'--'
p155
sg13
g10
sg14
S'Richard Rodgers'
p156
sg16
S'2015'
p157
sg18
S'16'
p158
sg20
S'--'
p159
sg22
S'12/27'
p160
sg24
S'2.0'
p161
sg26
S'--'
p162
sg28
S'--'
p163
sg30
S'L8-38'
p164
sg32
S'2'
p165
sg34
g10
sg36
S'@ARI'
p166
sg38
g165
sg40
g41
sg42
S'--'
p167
ssg10
(dp168
g5
g41
sg7
S'11'
p169
sg9
g10
sg11
S'--'
p170
sg13
g10
sg14
S'Richard Rodgers'
p171
sg16
S'2015'
p172
sg18
g10
sg20
S'11.0'
p173
sg22
S'09/13'
p174
sg24
S'9.0'
p175
sg26
S'--'
p176
sg28
g10
sg30
S'W31-23'
p177
sg32
S'27'
p178
sg34
g35
sg36
S'@CHI'
p179
sg38
S'20'
p180
sg40
g41
sg42
S'11'
p181
ssg35
(dp182
g5
S'--'
p183
sg7
S'--'
p184
sg9
g10
sg11
S'--'
p185
sg13
g10
sg14
S'Richard Rodgers'
p186
sg16
S'2015'
p187
sg18
g35
sg20
S'--'
p188
sg22
S'09/28'
p189
sg24
S'7.5'
p190
sg26
S'--'
p191
sg28
S'--'
p192
sg30
S'W38-28'
p193
sg32
S'15'
p194
sg34
g165
sg36
S'KC'
p195
sg38
g77
sg40
g41
sg42
S'--'
p196
ssg165
(dp197
g5
S'--'
p198
sg7
S'--'
p199
sg9
g10
sg11
S'--'
p200
sg13
g10
sg14
S'Richard Rodgers'
p201
sg16
S'2015'
p202
sg18
g165
sg20
S'--'
p203
sg22
S'09/20'
p204
sg24
S'7.7'
p205
sg26
S'--'
p206
sg28
S'--'
p207
sg30
S'W27-17'
p208
sg32
S'23'
p209
sg34
g35
sg36
S'SEA'
p210
sg38
S'9'
p211
sg40
g10
sg42
S'--'
p212
ssg39
(dp213
g5
S'--'
p214
sg7
S'--'
p215
sg9
g10
sg11
S'--'
p216
sg13
g10
sg14
S'Richard Rodgers'
p217
sg16
S'2015'
p218
sg18
g39
sg20
S'--'
p219
sg22
S'10/11'
p220
sg24
S'7.5'
p221
sg26
S'--'
p222
sg28
S'--'
p223
sg30
S'W24-10'
p224
sg32
S'45'
p225
sg34
S'6'
p226
sg36
S'STL'
p227
sg38
S'18'
p228
sg40
g41
sg42
S'--'
p229
ssg96
(dp230
g5
S'--'
p231
sg7
S'--'
p232
sg9
g10
sg11
S'--'
p233
sg13
g10
sg14
S'Richard Rodgers'
p234
sg16
S'2015'
p235
sg18
g96
sg20
S'--'
p236
sg22
S'10/04'
p237
sg24
S'9.0'
p238
sg26
S'--'
p239
sg28
S'--'
p240
sg30
S'W17-3'
p241
sg32
S'45'
p242
sg34
g39
sg36
S'@SF'
p243
sg38
S'12'
p244
sg40
g10
sg42
S'--'
p245
ssg33
(dp246
g5
S''
p247
sg7
g247
sg9
g247
sg11
g247
sg13
g247
sg14
S'Richard Rodgers'
p248
sg16
S'2015'
p249
sg18
g33
sg20
g247
sg22
S'Bye'
p250
sg24
g247
sg26
g247
sg28
g247
sg30
g247
sg32
g247
sg34
g247
sg36
g247
sg38
g247
sg40
g247
sg42
g247
ssg226
(dp251
g5
S'--'
p252
sg7
S'--'
p253
sg9
g10
sg11
S'--'
p254
sg13
g10
sg14
S'Richard Rodgers'
p255
sg16
S'2015'
p256
sg18
g226
sg20
S'--'
p257
sg22
S'10/18'
p258
sg24
S'17.0'
p259
sg26
S'--'
p260
sg28
S'--'
p261
sg30
S'W27-20'
p262
sg32
S'34'
p263
sg34
g165
sg36
S'SD'
p264
sg38
S'25'
p265
sg40
g41
sg42
S'--'
p266
ssg211
(dp267
g5
S'--'
p268
sg7
S'--'
p269
sg9
g10
sg11
S'--'
p270
sg13
g10
sg14
S'Richard Rodgers'
p271
sg16
S'2015'
p272
sg18
g211
sg20
S'--'
p273
sg22
S'11/08'
p274
sg24
S'3.8'
p275
sg26
S'--'
p276
sg28
S'--'
p277
sg30
S'L29-37'
p278
sg32
S'19'
p279
sg34
g39
sg36
S'@CAR'
p280
sg38
g33
sg40
g165
sg42
S'--'
p281
ssg77
(dp282
g5
S'--'
p283
sg7
S'--'
p284
sg9
g10
sg11
S'--'
p285
sg13
g10
sg14
S'Richard Rodgers'
p286
sg16
S'2015'
p287
sg18
g77
sg20
S'--'
p288
sg22
S'11/01'
p289
sg24
S'8.0'
p290
sg26
S'--'
p291
sg28
S'--'
p292
sg30
S'L10-29'
p293
sg32
S'16'
p294
sg34
g165
sg36
S'@DEN'
p295
sg38
S'11'
p296
sg40
g41
sg42
S'--'
p297
sssS'2014'
p298
(dp299
g3
(dp300
g5
S'--'
p301
sg7
S'--'
p302
sg9
g41
sg11
S'--'
p303
sg13
g10
sg14
S'Richard Rodgers'
p304
sg16
S'2014'
p305
sg18
S'11'
p306
sg20
S'--'
p307
sg22
S'11/16'
p308
sg24
S'19.0'
p309
sg26
S'--'
p310
sg28
S'--'
p311
sg30
S'W53-20'
p312
sg32
S'19'
p313
sg34
g10
sg36
S'PHI'
p314
sg38
S'19'
p315
sg40
g41
sg42
S'--'
p316
ssg44
(dp317
g5
S'--'
p318
sg7
S'--'
p319
sg9
g10
sg11
S'--'
p320
sg13
g10
sg14
S'Richard Rodgers'
p321
sg16
S'2014'
p322
sg18
S'10'
p323
sg20
S'--'
p324
sg22
S'11/09'
p325
sg24
S'3.0'
p326
sg26
S'--'
p327
sg28
S'--'
p328
sg30
S'W55-14'
p329
sg32
g226
sg34
g165
sg36
S'CHI'
p330
sg38
g96
sg40
g41
sg42
S'--'
p331
ssg62
(dp332
g5
S'--'
p333
sg7
S'--'
p334
sg9
g41
sg11
S'--'
p335
sg13
g10
sg14
S'Richard Rodgers'
p336
sg16
S'2014'
p337
sg18
S'13'
p338
sg20
S'--'
p339
sg22
S'11/30'
p340
sg24
S'17.5'
p341
sg26
S'--'
p342
sg28
S'--'
p343
sg30
S'W26-21'
p344
sg32
S'35'
p345
sg34
g165
sg36
S'NE'
p346
sg38
S'32T'
p347
sg40
g10
sg42
S'--'
p348
ssg81
(dp349
g5
S'--'
p350
sg7
S'--'
p351
sg9
g41
sg11
S'--'
p352
sg13
g10
sg14
S'Richard Rodgers'
p353
sg16
S'2014'
p354
sg18
S'12'
p355
sg20
S'--'
p356
sg22
S'11/23'
p357
sg24
S'1.0'
p358
sg26
S'--'
p359
sg28
S'--'
p360
sg30
S'W24-21'
p361
sg32
g10
sg34
g10
sg36
S'@MIN'
p362
sg38
S'1T'
p363
sg40
g10
sg42
S'--'
p364
ssg100
(dp365
g5
S'--'
p366
sg7
S'--'
p367
sg9
g41
sg11
S'--'
p368
sg13
g10
sg14
S'Richard Rodgers'
p369
sg16
S'2014'
p370
sg18
S'15'
p371
sg20
S'--'
p372
sg22
S'12/14'
p373
sg24
S'--'
p374
sg26
S'--'
p375
sg28
S'--'
p376
sg30
S'L13-21'
p377
sg32
g41
sg34
g41
sg36
S'@BUF'
p378
sg38
S'--'
p379
sg40
g41
sg42
S'--'
p380
ssg116
(dp381
g5
S'--'
p382
sg7
S'--'
p383
sg9
g41
sg11
S'--'
p384
sg13
g10
sg14
S'Richard Rodgers'
p385
sg16
S'2014'
p386
sg18
S'14'
p387
sg20
S'--'
p388
sg22
S'12/08'
p389
sg24
S'--'
p390
sg26
S'--'
p391
sg28
S'--'
p392
sg30
S'W43-37'
p393
sg32
g41
sg34
g41
sg36
S'ATL'
p394
sg38
S'--'
p395
sg40
g41
sg42
S'--'
p396
ssg133
(dp397
g5
S'--'
p398
sg7
S'--'
p399
sg9
g41
sg11
S'--'
p400
sg13
g10
sg14
S'Richard Rodgers'
p401
sg16
S'2014'
p402
sg18
S'17'
p403
sg20
S'--'
p404
sg22
S'12/28'
p405
sg24
S'8.0'
p406
sg26
S'--'
p407
sg28
S'--'
p408
sg30
S'W30-20'
p409
sg32
S'40'
p410
sg34
g39
sg36
S'DET'
p411
sg38
S'18'
p412
sg40
g41
sg42
S'--'
p413
ssg151
(dp414
g5
S'--'
p415
sg7
S'--'
p416
sg9
g41
sg11
S'--'
p417
sg13
g10
sg14
S'Richard Rodgers'
p418
sg16
S'2014'
p419
sg18
S'16'
p420
sg20
S'--'
p421
sg22
S'12/21'
p422
sg24
S'6.5'
p423
sg26
S'--'
p424
sg28
S'--'
p425
sg30
S'W20-3'
p426
sg32
S'13'
p427
sg34
g165
sg36
S'@TB'
p428
sg38
g77
sg40
g41
sg42
S'--'
p429
ssg10
(dp430
g5
S'--'
p431
sg7
S'--'
p432
sg9
g10
sg11
S'--'
p433
sg13
g10
sg14
S'Richard Rodgers'
p434
sg16
S'2014'
p435
sg18
g10
sg20
S'--'
p436
sg22
S'09/04'
p437
sg24
S'--'
p438
sg26
S'--'
p439
sg28
S'--'
p440
sg30
S'L16-36'
p441
sg32
S'--'
p442
sg34
S'--'
p443
sg36
S'@SEA'
p444
sg38
S'--'
p445
sg40
S'--'
p446
sg42
S'--'
p447
ssg35
(dp448
g5
S'--'
p449
sg7
S'--'
p450
sg9
g10
sg11
S'--'
p451
sg13
g10
sg14
S'Richard Rodgers'
p452
sg16
S'2014'
p453
sg18
g35
sg20
S'--'
p454
sg22
S'09/21'
p455
sg24
S'--'
p456
sg26
S'--'
p457
sg28
S'--'
p458
sg30
S'L7-19'
p459
sg32
S'--'
p460
sg34
S'--'
p461
sg36
S'@DET'
p462
sg38
S'--'
p463
sg40
S'--'
p464
sg42
S'--'
p465
ssg165
(dp466
g5
S'--'
p467
sg7
S'--'
p468
sg9
g10
sg11
S'--'
p469
sg13
g10
sg14
S'Richard Rodgers'
p470
sg16
S'2014'
p471
sg18
g165
sg20
S'--'
p472
sg22
S'09/14'
p473
sg24
S'--'
p474
sg26
S'--'
p475
sg28
S'--'
p476
sg30
S'W31-24'
p477
sg32
g41
sg34
g41
sg36
S'NYJ'
p478
sg38
S'--'
p479
sg40
g41
sg42
S'--'
p480
ssg39
(dp481
g5
S'--'
p482
sg7
S'--'
p483
sg9
g41
sg11
S'--'
p484
sg13
g10
sg14
S'Richard Rodgers'
p485
sg16
S'2014'
p486
sg18
g39
sg20
S'--'
p487
sg22
S'10/02'
p488
sg24
S'--'
p489
sg26
S'--'
p490
sg28
S'--'
p491
sg30
S'W42-10'
p492
sg32
g41
sg34
g41
sg36
S'MIN'
p493
sg38
S'--'
p494
sg40
g41
sg42
S'--'
p495
ssg96
(dp496
g5
S'--'
p497
sg7
S'--'
p498
sg9
g10
sg11
S'--'
p499
sg13
g10
sg14
S'Richard Rodgers'
p500
sg16
S'2014'
p501
sg18
g96
sg20
S'--'
p502
sg22
S'09/28'
p503
sg24
S'26.0'
p504
sg26
S'--'
p505
sg28
S'--'
p506
sg30
S'W38-17'
p507
sg32
S'52'
p508
sg34
g165
sg36
S'@CHI'
p509
sg38
S'43'
p510
sg40
g41
sg42
S'--'
p511
ssg33
(dp512
g5
S'--'
p513
sg7
S'--'
p514
sg9
g41
sg11
S'--'
p515
sg13
g10
sg14
S'Richard Rodgers'
p516
sg16
S'2014'
p517
sg18
g33
sg20
S'--'
p518
sg22
S'10/19'
p519
sg24
S'1.0'
p520
sg26
S'--'
p521
sg28
S'--'
p522
sg30
S'W38-17'
p523
sg32
g10
sg34
g10
sg36
S'CAR'
p524
sg38
g10
sg40
g41
sg42
S'--'
p525
ssg226
(dp526
g5
S'--'
p527
sg7
S'--'
p528
sg9
g41
sg11
S'--'
p529
sg13
g10
sg14
S'Richard Rodgers'
p530
sg16
S'2014'
p531
sg18
g226
sg20
S'--'
p532
sg22
S'10/12'
p533
sg24
S'--'
p534
sg26
S'--'
p535
sg28
S'--'
p536
sg30
S'W27-24'
p537
sg32
S'--'
p538
sg34
S'--'
p539
sg36
S'@MIA'
p540
sg38
S'--'
p541
sg40
S'--'
p542
sg42
S'--'
p543
ssg211
(dp544
g5
g247
sg7
g247
sg9
g247
sg11
g247
sg13
g247
sg14
S'Richard Rodgers'
p545
sg16
S'2014'
p546
sg18
g211
sg20
g247
sg22
S'Bye'
p547
sg24
g247
sg26
g247
sg28
g247
sg30
g247
sg32
g247
sg34
g247
sg36
g247
sg38
g247
sg40
g247
sg42
g247
ssg77
(dp548
g5
S'--'
p549
sg7
S'--'
p550
sg9
g41
sg11
S'--'
p551
sg13
g10
sg14
S'Richard Rodgers'
p552
sg16
S'2014'
p553
sg18
g77
sg20
S'--'
p554
sg22
S'10/26'
p555
sg24
S'14.5'
p556
sg26
S'--'
p557
sg28
S'--'
p558
sg30
S'L23-44'
p559
sg32
S'58'
p560
sg34
g96
sg36
S'@NO'
p561
sg38
S'22'
p562
sg40
g41
sg42
S'--'
p563
sss.