(dp0
S'2015'
p1
(dp2
S'15'
p3
(dp4
S'RushTD'
p5
S'--'
p6
sS'RushYds'
p7
S'--'
p8
sS'GS'
p9
S'0'
p10
sS'Lost'
p11
S'--'
p12
sS'G'
p13
S'1'
p14
sS'Player'
p15
S'Rob Housler'
p16
sS'Year'
p17
S'2015'
p18
sS'WK'
p19
S'15'
p20
sS'RushAvg'
p21
S'--'
p22
sS'Game Date'
p23
S'12/20'
p24
sS'RecAvg'
p25
S'9.0'
p26
sS'FUM'
p27
S'--'
p28
sS'RushAtt'
p29
S'--'
p30
sS'Result'
p31
S'L17-38'
p32
sS'RecYds'
p33
S'9'
p34
sS'Rec'
p35
g14
sS'Opp'
p36
S'@MIN'
p37
sS'RecLng'
p38
g34
sS'RecTD'
p39
g10
sS'RushLng'
p40
S'--'
p41
ssS'14'
p42
(dp43
g5
S'--'
p44
sg7
S'--'
p45
sg9
g10
sg11
S'--'
p46
sg13
g14
sg15
S'Rob Housler'
p47
sg17
S'2015'
p48
sg19
S'14'
p49
sg21
S'--'
p50
sg23
S'12/13'
p51
sg25
S'--'
p52
sg27
S'--'
p53
sg29
S'--'
p54
sg31
S'L21-24'
p55
sg33
S'--'
p56
sg35
S'--'
p57
sg36
S'WAS'
p58
sg38
S'--'
p59
sg39
S'--'
p60
sg40
S'--'
p61
ssS'17'
p62
(dp63
g5
S'--'
p64
sg7
S'--'
p65
sg9
g10
sg11
S'--'
p66
sg13
g14
sg15
S'Rob Housler'
p67
sg17
S'2015'
p68
sg19
S'17'
p69
sg21
S'--'
p70
sg23
S'01/03'
p71
sg25
S'9.0'
p72
sg27
S'--'
p73
sg29
S'--'
p74
sg31
S'L20-24'
p75
sg33
S'18'
p76
sg35
S'2'
p77
sg36
S'DET'
p78
sg38
S'12'
p79
sg39
g10
sg40
S'--'
p80
ssS'16'
p81
(dp82
g5
S'--'
p83
sg7
S'--'
p84
sg9
g10
sg11
S'--'
p85
sg13
g14
sg15
S'Rob Housler'
p86
sg17
S'2015'
p87
sg19
S'16'
p88
sg21
S'--'
p89
sg23
S'12/27'
p90
sg25
S'--'
p91
sg27
S'--'
p92
sg29
S'--'
p93
sg31
S'W26-21'
p94
sg33
S'--'
p95
sg35
S'--'
p96
sg36
S'@TB'
p97
sg38
S'--'
p98
sg39
S'--'
p99
sg40
S'--'
p100
ssg14
(dp101
g5
S'--'
p102
sg7
S'--'
p103
sg9
g10
sg11
S'--'
p104
sg13
g14
sg15
S'Rob Housler'
p105
sg17
S'2015'
p106
sg19
g14
sg21
S'--'
p107
sg23
S'09/13'
p108
sg25
S'--'
p109
sg27
S'--'
p110
sg29
S'--'
p111
sg31
S'L10-31'
p112
sg33
g10
sg35
g10
sg36
S'@NYJ'
p113
sg38
S'--'
p114
sg39
g10
sg40
S'--'
p115
ssS'3'
p116
(dp117
g5
S'--'
p118
sg7
S'--'
p119
sg9
g10
sg11
S'--'
p120
sg13
g14
sg15
S'Rob Housler'
p121
sg17
S'2015'
p122
sg19
g116
sg21
S'--'
p123
sg23
S'09/27'
p124
sg25
S'--'
p125
sg27
S'--'
p126
sg29
S'--'
p127
sg31
S'L20-27'
p128
sg33
g10
sg35
g10
sg36
S'OAK'
p129
sg38
S'--'
p130
sg39
g10
sg40
S'--'
p131
ssg77
(dp132
g5
S'--'
p133
sg7
S'--'
p134
sg9
g10
sg11
S'--'
p135
sg13
g14
sg15
S'Rob Housler'
p136
sg17
S'2015'
p137
sg19
g77
sg21
S'--'
p138
sg23
S'09/20'
p139
sg25
S'--'
p140
sg27
S'--'
p141
sg29
S'--'
p142
sg31
S'W28-14'
p143
sg33
S'--'
p144
sg35
S'--'
p145
sg36
S'TEN'
p146
sg38
S'--'
p147
sg39
S'--'
p148
sg40
S'--'
p149
ssS'5'
p150
(dp151
g5
S'--'
p152
sg7
S'--'
p153
sg9
g10
sg11
S'--'
p154
sg13
g14
sg15
S'Rob Housler'
p155
sg17
S'2015'
p156
sg19
g150
sg21
S'--'
p157
sg23
S'10/11'
p158
sg25
S'6.0'
p159
sg27
S'--'
p160
sg29
S'--'
p161
sg31
S'W33-30'
p162
sg33
S'6'
p163
sg35
g14
sg36
S'@BAL'
p164
sg38
g163
sg39
g10
sg40
S'--'
p165
ssS'4'
p166
(dp167
g5
S'--'
p168
sg7
S'--'
p169
sg9
g10
sg11
S'--'
p170
sg13
g14
sg15
S'Rob Housler'
p171
sg17
S'2015'
p172
sg19
g166
sg21
S'--'
p173
sg23
S'10/04'
p174
sg25
S'--'
p175
sg27
S'--'
p176
sg29
S'--'
p177
sg31
S'L27-30'
p178
sg33
S'--'
p179
sg35
S'--'
p180
sg36
S'@SD'
p181
sg38
S'--'
p182
sg39
S'--'
p183
sg40
S'--'
p184
ssS'7'
p185
(dp186
g5
S'--'
p187
sg7
S'--'
p188
sg9
g10
sg11
S'--'
p189
sg13
g10
sg15
S'Rob Housler'
p190
sg17
S'2015'
p191
sg19
g185
sg21
S'--'
p192
sg23
S'10/25'
p193
sg25
S'--'
p194
sg27
S'--'
p195
sg29
S'--'
p196
sg31
S'L6-24'
p197
sg33
S'--'
p198
sg35
S'--'
p199
sg36
S'@STL'
p200
sg38
S'--'
p201
sg39
S'--'
p202
sg40
S'--'
p203
ssg163
(dp204
g5
S'--'
p205
sg7
S'--'
p206
sg9
g10
sg11
S'--'
p207
sg13
g14
sg15
S'Rob Housler'
p208
sg17
S'2015'
p209
sg19
g163
sg21
S'--'
p210
sg23
S'10/18'
p211
sg25
S'--'
p212
sg27
S'--'
p213
sg29
S'--'
p214
sg31
S'L23-26'
p215
sg33
S'--'
p216
sg35
S'--'
p217
sg36
S'DEN'
p218
sg38
S'--'
p219
sg39
S'--'
p220
sg40
S'--'
p221
ssS'8'
p222
(dp223
g5
S'--'
p224
sg7
S'--'
p225
sg9
g10
sg11
S'--'
p226
sg13
g10
sg15
S'Rob Housler'
p227
sg17
S'2015'
p228
sg19
g222
sg21
S'--'
p229
sg23
S'11/01'
p230
sg25
S'--'
p231
sg27
S'--'
p232
sg29
S'--'
p233
sg31
S'L20-34'
p234
sg33
S'--'
p235
sg35
S'--'
p236
sg36
S'ARI'
p237
sg38
S'--'
p238
sg39
S'--'
p239
sg40
S'--'
p240
sssS'2014'
p241
(dp242
S'11'
p243
(dp244
g5
S'--'
p245
sg7
S'--'
p246
sg9
g10
sg11
S'--'
p247
sg13
g14
sg15
S'Rob Housler'
p248
sg17
S'2014'
p249
sg19
S'11'
p250
sg21
S'--'
p251
sg23
S'11/16'
p252
sg25
S'27.0'
p253
sg27
S'--'
p254
sg29
S'--'
p255
sg31
S'W14-6'
p256
sg33
S'27'
p257
sg35
g14
sg36
S'DET'
p258
sg38
S'27'
p259
sg39
g10
sg40
S'--'
p260
ssS'10'
p261
(dp262
g5
S'--'
p263
sg7
S'--'
p264
sg9
g14
sg11
S'--'
p265
sg13
g14
sg15
S'Rob Housler'
p266
sg17
S'2014'
p267
sg19
S'10'
p268
sg21
S'--'
p269
sg23
S'11/09'
p270
sg25
S'11.0'
p271
sg27
S'--'
p272
sg29
S'--'
p273
sg31
S'W31-14'
p274
sg33
S'11'
p275
sg35
g14
sg36
S'STL'
p276
sg38
S'11'
p277
sg39
g10
sg40
S'--'
p278
ssS'13'
p279
(dp280
g5
S'--'
p281
sg7
S'--'
p282
sg9
g14
sg11
S'--'
p283
sg13
g14
sg15
S'Rob Housler'
p284
sg17
S'2014'
p285
sg19
S'13'
p286
sg21
S'--'
p287
sg23
S'11/30'
p288
sg25
S'--'
p289
sg27
S'--'
p290
sg29
S'--'
p291
sg31
S'L18-29'
p292
sg33
S'--'
p293
sg35
S'--'
p294
sg36
S'@ATL'
p295
sg38
S'--'
p296
sg39
S'--'
p297
sg40
S'--'
p298
ssS'12'
p299
(dp300
g5
S'--'
p301
sg7
S'--'
p302
sg9
g10
sg11
g10
sg13
g14
sg15
S'Rob Housler'
p303
sg17
S'2014'
p304
sg19
S'12'
p305
sg21
S'--'
p306
sg23
S'11/23'
p307
sg25
S'--'
p308
sg27
g14
sg29
S'--'
p309
sg31
S'L3-19'
p310
sg33
g10
sg35
g10
sg36
S'@SEA'
p311
sg38
S'--'
p312
sg39
g10
sg40
S'--'
p313
ssg3
(dp314
g5
g10
sg7
g14
sg9
g10
sg11
S'--'
p315
sg13
g14
sg15
S'Rob Housler'
p316
sg17
S'2014'
p317
sg19
S'15'
p318
sg21
S'1.0'
p319
sg23
S'12/11'
p320
sg25
S'--'
p321
sg27
S'--'
p322
sg29
g14
sg31
S'W12-6'
p323
sg33
S'--'
p324
sg35
S'--'
p325
sg36
S'@STL'
p326
sg38
S'--'
p327
sg39
S'--'
p328
sg40
g14
ssg42
(dp329
g5
S'--'
p330
sg7
S'--'
p331
sg9
g10
sg11
S'--'
p332
sg13
g14
sg15
S'Rob Housler'
p333
sg17
S'2014'
p334
sg19
S'14'
p335
sg21
S'--'
p336
sg23
S'12/07'
p337
sg25
S'20.0'
p338
sg27
S'--'
p339
sg29
S'--'
p340
sg31
S'W17-14'
p341
sg33
S'20'
p342
sg35
g14
sg36
S'KC'
p343
sg38
S'20'
p344
sg39
g10
sg40
S'--'
p345
ssg62
(dp346
g5
S'--'
p347
sg7
S'--'
p348
sg9
g14
sg11
S'--'
p349
sg13
g14
sg15
S'Rob Housler'
p350
sg17
S'2014'
p351
sg19
S'17'
p352
sg21
S'--'
p353
sg23
S'12/28'
p354
sg25
S'20.0'
p355
sg27
S'--'
p356
sg29
S'--'
p357
sg31
S'L17-20'
p358
sg33
S'20'
p359
sg35
g14
sg36
S'@SF'
p360
sg38
S'20'
p361
sg39
g10
sg40
S'--'
p362
ssg81
(dp363
g5
S'--'
p364
sg7
S'--'
p365
sg9
g14
sg11
S'--'
p366
sg13
g14
sg15
S'Rob Housler'
p367
sg17
S'2014'
p368
sg19
S'16'
p369
sg21
S'--'
p370
sg23
S'12/21'
p371
sg25
S'13.0'
p372
sg27
S'--'
p373
sg29
S'--'
p374
sg31
S'L6-35'
p375
sg33
S'13'
p376
sg35
g14
sg36
S'SEA'
p377
sg38
S'13'
p378
sg39
g10
sg40
S'--'
p379
ssg14
(dp380
g5
S'--'
p381
sg7
S'--'
p382
sg9
g14
sg11
S'--'
p383
sg13
g14
sg15
S'Rob Housler'
p384
sg17
S'2014'
p385
sg19
g14
sg21
S'--'
p386
sg23
S'09/08'
p387
sg25
S'16.0'
p388
sg27
S'--'
p389
sg29
S'--'
p390
sg31
S'W18-17'
p391
sg33
S'16'
p392
sg35
g14
sg36
S'SD'
p393
sg38
S'16'
p394
sg39
g10
sg40
S'--'
p395
ssg116
(dp396
g5
S'--'
p397
sg7
S'--'
p398
sg9
g10
sg11
S'--'
p399
sg13
g10
sg15
S'Rob Housler'
p400
sg17
S'2014'
p401
sg19
g116
sg21
S'--'
p402
sg23
S'09/21'
p403
sg25
S'--'
p404
sg27
S'--'
p405
sg29
S'--'
p406
sg31
S'W23-14'
p407
sg33
S'--'
p408
sg35
S'--'
p409
sg36
S'SF'
p410
sg38
S'--'
p411
sg39
S'--'
p412
sg40
S'--'
p413
ssg77
(dp414
g5
S'--'
p415
sg7
S'--'
p416
sg9
g14
sg11
S'--'
p417
sg13
g14
sg15
S'Rob Housler'
p418
sg17
S'2014'
p419
sg19
g77
sg21
S'--'
p420
sg23
S'09/14'
p421
sg25
S'--'
p422
sg27
S'--'
p423
sg29
S'--'
p424
sg31
S'W25-14'
p425
sg33
S'--'
p426
sg35
S'--'
p427
sg36
S'@NYG'
p428
sg38
S'--'
p429
sg39
S'--'
p430
sg40
S'--'
p431
ssg150
(dp432
g5
S'--'
p433
sg7
S'--'
p434
sg9
g10
sg11
S'--'
p435
sg13
g14
sg15
S'Rob Housler'
p436
sg17
S'2014'
p437
sg19
g150
sg21
S'--'
p438
sg23
S'10/05'
p439
sg25
S'--'
p440
sg27
S'--'
p441
sg29
S'--'
p442
sg31
S'L20-41'
p443
sg33
g10
sg35
g10
sg36
S'@DEN'
p444
sg38
S'--'
p445
sg39
g10
sg40
S'--'
p446
ssg166
(dp447
g5
S''
p448
sg7
g448
sg9
g448
sg11
g448
sg13
g448
sg15
S'Rob Housler'
p449
sg17
S'2014'
p450
sg19
g166
sg21
g448
sg23
S'Bye'
p451
sg25
g448
sg27
g448
sg29
g448
sg31
g448
sg33
g448
sg35
g448
sg36
g448
sg38
g448
sg39
g448
sg40
g448
ssg185
(dp452
g5
S'--'
p453
sg7
S'--'
p454
sg9
g14
sg11
S'--'
p455
sg13
g14
sg15
S'Rob Housler'
p456
sg17
S'2014'
p457
sg19
g185
sg21
S'--'
p458
sg23
S'10/19'
p459
sg25
S'7.0'
p460
sg27
S'--'
p461
sg29
S'--'
p462
sg31
S'W24-13'
p463
sg33
g185
sg35
g14
sg36
S'@OAK'
p464
sg38
g185
sg39
g10
sg40
S'--'
p465
ssg163
(dp466
g5
S'--'
p467
sg7
S'--'
p468
sg9
g10
sg11
S'--'
p469
sg13
g14
sg15
S'Rob Housler'
p470
sg17
S'2014'
p471
sg19
g163
sg21
S'--'
p472
sg23
S'10/12'
p473
sg25
S'7.5'
p474
sg27
S'--'
p475
sg29
S'--'
p476
sg31
S'W30-20'
p477
sg33
S'15'
p478
sg35
g77
sg36
S'WAS'
p479
sg38
S'15'
p480
sg39
g10
sg40
S'--'
p481
ssg34
(dp482
g5
S'--'
p483
sg7
S'--'
p484
sg9
g10
sg11
S'--'
p485
sg13
g14
sg15
S'Rob Housler'
p486
sg17
S'2014'
p487
sg19
g34
sg21
S'--'
p488
sg23
S'11/02'
p489
sg25
S'--'
p490
sg27
S'--'
p491
sg29
S'--'
p492
sg31
S'W28-17'
p493
sg33
S'--'
p494
sg35
S'--'
p495
sg36
S'@DAL'
p496
sg38
S'--'
p497
sg39
S'--'
p498
sg40
S'--'
p499
ssg222
(dp500
g5
S'--'
p501
sg7
S'--'
p502
sg9
g10
sg11
S'--'
p503
sg13
g14
sg15
S'Rob Housler'
p504
sg17
S'2014'
p505
sg19
g222
sg21
S'--'
p506
sg23
S'10/26'
p507
sg25
S'--'
p508
sg27
S'--'
p509
sg29
S'--'
p510
sg31
S'W24-20'
p511
sg33
g10
sg35
g10
sg36
S'PHI'
p512
sg38
S'--'
p513
sg39
g10
sg40
S'--'
p514
sssS'2011'
p515
(dp516
g243
(dp517
g5
S'--'
p518
sg7
S'--'
p519
sg9
g10
sg11
S'--'
p520
sg13
g10
sg15
S'Rob Housler'
p521
sg17
S'2011'
p522
sg19
S'11'
p523
sg21
S'--'
p524
sg23
S'11/20'
p525
sg25
S'--'
p526
sg27
S'--'
p527
sg29
S'--'
p528
sg31
S'L7-23'
p529
sg33
S'--'
p530
sg35
S'--'
p531
sg36
S'@SF'
p532
sg38
S'--'
p533
sg39
S'--'
p534
sg40
S'--'
p535
ssg261
(dp536
g5
S'--'
p537
sg7
S'--'
p538
sg9
g10
sg11
S'--'
p539
sg13
g10
sg15
S'Rob Housler'
p540
sg17
S'2011'
p541
sg19
S'10'
p542
sg21
S'--'
p543
sg23
S'11/13'
p544
sg25
S'--'
p545
sg27
S'--'
p546
sg29
S'--'
p547
sg31
S'W21-17'
p548
sg33
S'--'
p549
sg35
S'--'
p550
sg36
S'@PHI'
p551
sg38
S'--'
p552
sg39
S'--'
p553
sg40
S'--'
p554
ssg279
(dp555
g5
S'--'
p556
sg7
S'--'
p557
sg9
g10
sg11
S'--'
p558
sg13
g14
sg15
S'Rob Housler'
p559
sg17
S'2011'
p560
sg19
S'13'
p561
sg21
S'--'
p562
sg23
S'12/04'
p563
sg25
S'11.5'
p564
sg27
S'--'
p565
sg29
S'--'
p566
sg31
S'W19-13'
p567
sg33
S'23'
p568
sg35
g77
sg36
S'DAL'
p569
sg38
S'13'
p570
sg39
g10
sg40
S'--'
p571
ssg299
(dp572
g5
S'--'
p573
sg7
S'--'
p574
sg9
g10
sg11
S'--'
p575
sg13
g10
sg15
S'Rob Housler'
p576
sg17
S'2011'
p577
sg19
S'12'
p578
sg21
S'--'
p579
sg23
S'11/27'
p580
sg25
S'--'
p581
sg27
S'--'
p582
sg29
S'--'
p583
sg31
S'W23-20'
p584
sg33
S'--'
p585
sg35
S'--'
p586
sg36
S'@STL'
p587
sg38
S'--'
p588
sg39
S'--'
p589
sg40
S'--'
p590
ssg3
(dp591
g5
S'--'
p592
sg7
S'--'
p593
sg9
g10
sg11
S'--'
p594
sg13
g14
sg15
S'Rob Housler'
p595
sg17
S'2011'
p596
sg19
S'15'
p597
sg21
S'--'
p598
sg23
S'12/18'
p599
sg25
S'--'
p600
sg27
S'--'
p601
sg29
S'--'
p602
sg31
S'W20-17'
p603
sg33
S'--'
p604
sg35
S'--'
p605
sg36
S'CLE'
p606
sg38
S'--'
p607
sg39
S'--'
p608
sg40
S'--'
p609
ssg42
(dp610
g5
S'--'
p611
sg7
S'--'
p612
sg9
g10
sg11
S'--'
p613
sg13
g14
sg15
S'Rob Housler'
p614
sg17
S'2011'
p615
sg19
S'14'
p616
sg21
S'--'
p617
sg23
S'12/11'
p618
sg25
S'--'
p619
sg27
S'--'
p620
sg29
S'--'
p621
sg31
S'W21-19'
p622
sg33
g10
sg35
g10
sg36
S'SF'
p623
sg38
S'--'
p624
sg39
g10
sg40
S'--'
p625
ssg62
(dp626
g5
S'--'
p627
sg7
S'--'
p628
sg9
g10
sg11
g14
sg13
g14
sg15
S'Rob Housler'
p629
sg17
S'2011'
p630
sg19
S'17'
p631
sg21
S'--'
p632
sg23
S'01/01'
p633
sg25
S'13.5'
p634
sg27
g14
sg29
S'--'
p635
sg31
S'W23-20'
p636
sg33
S'27'
p637
sg35
g77
sg36
S'SEA'
p638
sg38
S'21'
p639
sg39
g10
sg40
S'--'
p640
ssg81
(dp641
g5
S'--'
p642
sg7
S'--'
p643
sg9
g10
sg11
S'--'
p644
sg13
g14
sg15
S'Rob Housler'
p645
sg17
S'2011'
p646
sg19
S'16'
p647
sg21
S'--'
p648
sg23
S'12/24'
p649
sg25
S'11.0'
p650
sg27
S'--'
p651
sg29
S'--'
p652
sg31
S'L16-23'
p653
sg33
S'11'
p654
sg35
g14
sg36
S'@CIN'
p655
sg38
S'11'
p656
sg39
g10
sg40
S'--'
p657
ssg14
(dp658
g5
S'--'
p659
sg7
S'--'
p660
sg9
g10
sg11
S'--'
p661
sg13
g14
sg15
S'Rob Housler'
p662
sg17
S'2011'
p663
sg19
g14
sg21
S'--'
p664
sg23
S'09/11'
p665
sg25
S'--'
p666
sg27
S'--'
p667
sg29
S'--'
p668
sg31
S'W28-21'
p669
sg33
S'--'
p670
sg35
S'--'
p671
sg36
S'CAR'
p672
sg38
S'--'
p673
sg39
S'--'
p674
sg40
S'--'
p675
ssg116
(dp676
g5
S'--'
p677
sg7
S'--'
p678
sg9
g10
sg11
S'--'
p679
sg13
g14
sg15
S'Rob Housler'
p680
sg17
S'2011'
p681
sg19
g116
sg21
S'--'
p682
sg23
S'09/25'
p683
sg25
S'--'
p684
sg27
S'--'
p685
sg29
S'--'
p686
sg31
S'L10-13'
p687
sg33
S'--'
p688
sg35
S'--'
p689
sg36
S'@SEA'
p690
sg38
S'--'
p691
sg39
S'--'
p692
sg40
S'--'
p693
ssg77
(dp694
g5
S'--'
p695
sg7
S'--'
p696
sg9
g10
sg11
S'--'
p697
sg13
g14
sg15
S'Rob Housler'
p698
sg17
S'2011'
p699
sg19
g77
sg21
S'--'
p700
sg23
S'09/18'
p701
sg25
S'--'
p702
sg27
S'--'
p703
sg29
S'--'
p704
sg31
S'L21-22'
p705
sg33
S'--'
p706
sg35
S'--'
p707
sg36
S'@WAS'
p708
sg38
S'--'
p709
sg39
S'--'
p710
sg40
S'--'
p711
ssg150
(dp712
g5
S'--'
p713
sg7
S'--'
p714
sg9
g14
sg11
S'--'
p715
sg13
g14
sg15
S'Rob Housler'
p716
sg17
S'2011'
p717
sg19
g150
sg21
S'--'
p718
sg23
S'10/09'
p719
sg25
S'8.3'
p720
sg27
S'--'
p721
sg29
S'--'
p722
sg31
S'L10-34'
p723
sg33
S'25'
p724
sg35
g116
sg36
S'@MIN'
p725
sg38
S'13'
p726
sg39
g10
sg40
S'--'
p727
ssg166
(dp728
g5
S'--'
p729
sg7
S'--'
p730
sg9
g10
sg11
S'--'
p731
sg13
g14
sg15
S'Rob Housler'
p732
sg17
S'2011'
p733
sg19
g166
sg21
S'--'
p734
sg23
S'10/02'
p735
sg25
S'16.0'
p736
sg27
S'--'
p737
sg29
S'--'
p738
sg31
S'L27-31'
p739
sg33
S'16'
p740
sg35
g14
sg36
S'NYG'
p741
sg38
S'16'
p742
sg39
g10
sg40
S'--'
p743
ssg185
(dp744
g5
S'--'
p745
sg7
S'--'
p746
sg9
g10
sg11
S'--'
p747
sg13
g14
sg15
S'Rob Housler'
p748
sg17
S'2011'
p749
sg19
g185
sg21
S'--'
p750
sg23
S'10/23'
p751
sg25
S'14.0'
p752
sg27
S'--'
p753
sg29
S'--'
p754
sg31
S'L20-32'
p755
sg33
S'28'
p756
sg35
g77
sg36
S'PIT'
p757
sg38
S'20'
p758
sg39
g10
sg40
S'--'
p759
ssg163
(dp760
g5
g448
sg7
g448
sg9
g448
sg11
g448
sg13
g448
sg15
S'Rob Housler'
p761
sg17
S'2011'
p762
sg19
g163
sg21
g448
sg23
S'Bye'
p763
sg25
g448
sg27
g448
sg29
g448
sg31
g448
sg33
g448
sg35
g448
sg36
g448
sg38
g448
sg39
g448
sg40
g448
ssg34
(dp764
g5
S'--'
p765
sg7
S'--'
p766
sg9
g10
sg11
S'--'
p767
sg13
g10
sg15
S'Rob Housler'
p768
sg17
S'2011'
p769
sg19
g34
sg21
S'--'
p770
sg23
S'11/06'
p771
sg25
S'--'
p772
sg27
S'--'
p773
sg29
S'--'
p774
sg31
S'W19-13'
p775
sg33
S'--'
p776
sg35
S'--'
p777
sg36
S'STL'
p778
sg38
S'--'
p779
sg39
S'--'
p780
sg40
S'--'
p781
ssg222
(dp782
g5
S'--'
p783
sg7
S'--'
p784
sg9
g14
sg11
S'--'
p785
sg13
g14
sg15
S'Rob Housler'
p786
sg17
S'2011'
p787
sg19
g222
sg21
S'--'
p788
sg23
S'10/30'
p789
sg25
S'3.0'
p790
sg27
S'--'
p791
sg29
S'--'
p792
sg31
S'L27-30'
p793
sg33
g116
sg35
g14
sg36
S'@BAL'
p794
sg38
g116
sg39
g10
sg40
S'--'
p795
sssS'2013'
p796
(dp797
g243
(dp798
g5
S'--'
p799
sg7
S'--'
p800
sg9
g14
sg11
S'--'
p801
sg13
g14
sg15
S'Rob Housler'
p802
sg17
S'2013'
p803
sg19
S'11'
p804
sg21
S'--'
p805
sg23
S'11/17'
p806
sg25
S'11.7'
p807
sg27
S'--'
p808
sg29
S'--'
p809
sg31
S'W27-14'
p810
sg33
S'70'
p811
sg35
g163
sg36
S'@JAC'
p812
sg38
S'21'
p813
sg39
g10
sg40
S'--'
p814
ssg261
(dp815
g5
S'--'
p816
sg7
S'--'
p817
sg9
g10
sg11
S'--'
p818
sg13
g14
sg15
S'Rob Housler'
p819
sg17
S'2013'
p820
sg19
S'10'
p821
sg21
S'--'
p822
sg23
S'11/10'
p823
sg25
S'14.3'
p824
sg27
S'--'
p825
sg29
S'--'
p826
sg31
S'W27-24'
p827
sg33
S'57'
p828
sg35
g166
sg36
S'HOU'
p829
sg38
S'26'
p830
sg39
g14
sg40
S'--'
p831
ssg279
(dp832
g5
S'--'
p833
sg7
S'--'
p834
sg9
g14
sg11
S'--'
p835
sg13
g14
sg15
S'Rob Housler'
p836
sg17
S'2013'
p837
sg19
S'13'
p838
sg21
S'--'
p839
sg23
S'12/01'
p840
sg25
S'7.0'
p841
sg27
S'--'
p842
sg29
S'--'
p843
sg31
S'L21-24'
p844
sg33
S'21'
p845
sg35
g116
sg36
S'@PHI'
p846
sg38
S'10'
p847
sg39
g10
sg40
S'--'
p848
ssg299
(dp849
g5
S'--'
p850
sg7
S'--'
p851
sg9
g14
sg11
S'--'
p852
sg13
g14
sg15
S'Rob Housler'
p853
sg17
S'2013'
p854
sg19
S'12'
p855
sg21
S'--'
p856
sg23
S'11/24'
p857
sg25
S'12.8'
p858
sg27
S'--'
p859
sg29
S'--'
p860
sg31
S'W40-11'
p861
sg33
S'51'
p862
sg35
g166
sg36
S'IND'
p863
sg38
S'20'
p864
sg39
g10
sg40
S'--'
p865
ssg3
(dp866
g5
S'--'
p867
sg7
S'--'
p868
sg9
g10
sg11
S'--'
p869
sg13
g10
sg15
S'Rob Housler'
p870
sg17
S'2013'
p871
sg19
S'15'
p872
sg21
S'--'
p873
sg23
S'12/15'
p874
sg25
S'--'
p875
sg27
S'--'
p876
sg29
S'--'
p877
sg31
S'W37-34'
p878
sg33
S'--'
p879
sg35
S'--'
p880
sg36
S'@TEN'
p881
sg38
S'--'
p882
sg39
S'--'
p883
sg40
S'--'
p884
ssg42
(dp885
g5
S'--'
p886
sg7
S'--'
p887
sg9
g14
sg11
S'--'
p888
sg13
g14
sg15
S'Rob Housler'
p889
sg17
S'2013'
p890
sg19
S'14'
p891
sg21
S'--'
p892
sg23
S'12/08'
p893
sg25
S'14.0'
p894
sg27
S'--'
p895
sg29
S'--'
p896
sg31
S'W30-10'
p897
sg33
S'42'
p898
sg35
g116
sg36
S'STL'
p899
sg38
S'31'
p900
sg39
g10
sg40
S'--'
p901
ssg62
(dp902
g5
S'--'
p903
sg7
S'--'
p904
sg9
g14
sg11
S'--'
p905
sg13
g14
sg15
S'Rob Housler'
p906
sg17
S'2013'
p907
sg19
S'17'
p908
sg21
S'--'
p909
sg23
S'12/29'
p910
sg25
S'15.6'
p911
sg27
S'--'
p912
sg29
S'--'
p913
sg31
S'L20-23'
p914
sg33
S'78'
p915
sg35
g150
sg36
S'SF'
p916
sg38
S'30'
p917
sg39
g10
sg40
S'--'
p918
ssg81
(dp919
g5
S'--'
p920
sg7
S'--'
p921
sg9
g10
sg11
S'--'
p922
sg13
g14
sg15
S'Rob Housler'
p923
sg17
S'2013'
p924
sg19
S'16'
p925
sg21
S'--'
p926
sg23
S'12/22'
p927
sg25
S'--'
p928
sg27
S'--'
p929
sg29
S'--'
p930
sg31
S'W17-10'
p931
sg33
g10
sg35
g10
sg36
S'@SEA'
p932
sg38
S'--'
p933
sg39
g10
sg40
S'--'
p934
ssg14
(dp935
g5
S'--'
p936
sg7
S'--'
p937
sg9
g10
sg11
S'--'
p938
sg13
g10
sg15
S'Rob Housler'
p939
sg17
S'2013'
p940
sg19
g14
sg21
S'--'
p941
sg23
S'09/08'
p942
sg25
S'--'
p943
sg27
S'--'
p944
sg29
S'--'
p945
sg31
S'L24-27'
p946
sg33
S'--'
p947
sg35
S'--'
p948
sg36
S'@STL'
p949
sg38
S'--'
p950
sg39
S'--'
p951
sg40
S'--'
p952
ssg116
(dp953
g5
S'--'
p954
sg7
S'--'
p955
sg9
g14
sg11
S'--'
p956
sg13
g14
sg15
S'Rob Housler'
p957
sg17
S'2013'
p958
sg19
g116
sg21
S'--'
p959
sg23
S'09/22'
p960
sg25
S'13.0'
p961
sg27
S'--'
p962
sg29
S'--'
p963
sg31
S'L7-31'
p964
sg33
S'13'
p965
sg35
g14
sg36
S'@NO'
p966
sg38
S'13'
p967
sg39
g10
sg40
S'--'
p968
ssg77
(dp969
g5
S'--'
p970
sg7
S'--'
p971
sg9
g10
sg11
S'--'
p972
sg13
g10
sg15
S'Rob Housler'
p973
sg17
S'2013'
p974
sg19
g77
sg21
S'--'
p975
sg23
S'09/15'
p976
sg25
S'--'
p977
sg27
S'--'
p978
sg29
S'--'
p979
sg31
S'W25-21'
p980
sg33
S'--'
p981
sg35
S'--'
p982
sg36
S'DET'
p983
sg38
S'--'
p984
sg39
S'--'
p985
sg40
S'--'
p986
ssg150
(dp987
g5
S'--'
p988
sg7
S'--'
p989
sg9
g14
sg11
S'--'
p990
sg13
g14
sg15
S'Rob Housler'
p991
sg17
S'2013'
p992
sg19
g150
sg21
S'--'
p993
sg23
S'10/06'
p994
sg25
S'--'
p995
sg27
S'--'
p996
sg29
S'--'
p997
sg31
S'W22-6'
p998
sg33
g10
sg35
g10
sg36
S'CAR'
p999
sg38
S'--'
p1000
sg39
g10
sg40
S'--'
p1001
ssg166
(dp1002
g5
S'--'
p1003
sg7
S'--'
p1004
sg9
g14
sg11
S'--'
p1005
sg13
g14
sg15
S'Rob Housler'
p1006
sg17
S'2013'
p1007
sg19
g166
sg21
S'--'
p1008
sg23
S'09/29'
p1009
sg25
S'23.0'
p1010
sg27
S'--'
p1011
sg29
S'--'
p1012
sg31
S'W13-10'
p1013
sg33
S'23'
p1014
sg35
g14
sg36
S'@TB'
p1015
sg38
S'23'
p1016
sg39
g10
sg40
S'--'
p1017
ssg185
(dp1018
g5
S'--'
p1019
sg7
S'--'
p1020
sg9
g10
sg11
g10
sg13
g14
sg15
S'Rob Housler'
p1021
sg17
S'2013'
p1022
sg19
g185
sg21
S'--'
p1023
sg23
S'10/17'
p1024
sg25
S'7.6'
p1025
sg27
g14
sg29
S'--'
p1026
sg31
S'L22-34'
p1027
sg33
S'53'
p1028
sg35
g185
sg36
S'SEA'
p1029
sg38
S'18'
p1030
sg39
g10
sg40
S'--'
p1031
ssg163
(dp1032
g5
S'--'
p1033
sg7
S'--'
p1034
sg9
g14
sg11
S'--'
p1035
sg13
g14
sg15
S'Rob Housler'
p1036
sg17
S'2013'
p1037
sg19
g163
sg21
S'--'
p1038
sg23
S'10/13'
p1039
sg25
S'8.0'
p1040
sg27
S'--'
p1041
sg29
S'--'
p1042
sg31
S'L20-32'
p1043
sg33
S'32'
p1044
sg35
g166
sg36
S'@SF'
p1045
sg38
S'12'
p1046
sg39
g10
sg40
S'--'
p1047
ssg34
(dp1048
g5
g448
sg7
g448
sg9
g448
sg11
g448
sg13
g448
sg15
S'Rob Housler'
p1049
sg17
S'2013'
p1050
sg19
g34
sg21
g448
sg23
S'Bye'
p1051
sg25
g448
sg27
g448
sg29
g448
sg31
g448
sg33
g448
sg35
g448
sg36
g448
sg38
g448
sg39
g448
sg40
g448
ssg222
(dp1052
g5
S'--'
p1053
sg7
S'--'
p1054
sg9
g14
sg11
S'--'
p1055
sg13
g14
sg15
S'Rob Housler'
p1056
sg17
S'2013'
p1057
sg19
g222
sg21
S'--'
p1058
sg23
S'10/27'
p1059
sg25
S'14.0'
p1060
sg27
S'--'
p1061
sg29
S'--'
p1062
sg31
S'W27-13'
p1063
sg33
S'14'
p1064
sg35
g14
sg36
S'ATL'
p1065
sg38
S'14'
p1066
sg39
g10
sg40
S'--'
p1067
sssS'2012'
p1068
(dp1069
g243
(dp1070
g5
S'--'
p1071
sg7
S'--'
p1072
sg9
g14
sg11
S'--'
p1073
sg13
g14
sg15
S'Rob Housler'
p1074
sg17
S'2012'
p1075
sg19
S'11'
p1076
sg21
S'--'
p1077
sg23
S'11/18'
p1078
sg25
S'--'
p1079
sg27
S'--'
p1080
sg29
S'--'
p1081
sg31
S'L19-23'
p1082
sg33
S'--'
p1083
sg35
S'--'
p1084
sg36
S'@ATL'
p1085
sg38
S'--'
p1086
sg39
S'--'
p1087
sg40
S'--'
p1088
ssg261
(dp1089
g5
g448
sg7
g448
sg9
g448
sg11
g448
sg13
g448
sg15
S'Rob Housler'
p1090
sg17
S'2012'
p1091
sg19
S'10'
p1092
sg21
g448
sg23
S'Bye'
p1093
sg25
g448
sg27
g448
sg29
g448
sg31
g448
sg33
g448
sg35
g448
sg36
g448
sg38
g448
sg39
g448
sg40
g448
ssg279
(dp1094
g5
S'--'
p1095
sg7
S'--'
p1096
sg9
g14
sg11
S'--'
p1097
sg13
g14
sg15
S'Rob Housler'
p1098
sg17
S'2012'
p1099
sg19
S'13'
p1100
sg21
S'--'
p1101
sg23
S'12/02'
p1102
sg25
S'3.8'
p1103
sg27
S'--'
p1104
sg29
S'--'
p1105
sg31
S'L6-7'
p1106
sg33
S'15'
p1107
sg35
g166
sg36
S'@NYJ'
p1108
sg38
g150
sg39
g10
sg40
S'--'
p1109
ssg299
(dp1110
g5
S'--'
p1111
sg7
S'--'
p1112
sg9
g14
sg11
S'--'
p1113
sg13
g14
sg15
S'Rob Housler'
p1114
sg17
S'2012'
p1115
sg19
S'12'
p1116
sg21
S'--'
p1117
sg23
S'11/25'
p1118
sg25
S'10.3'
p1119
sg27
S'--'
p1120
sg29
S'--'
p1121
sg31
S'L17-31'
p1122
sg33
S'82'
p1123
sg35
g222
sg36
S'STL'
p1124
sg38
S'28'
p1125
sg39
g10
sg40
S'--'
p1126
ssg3
(dp1127
g5
S'--'
p1128
sg7
S'--'
p1129
sg9
g14
sg11
S'--'
p1130
sg13
g14
sg15
S'Rob Housler'
p1131
sg17
S'2012'
p1132
sg19
S'15'
p1133
sg21
S'--'
p1134
sg23
S'12/16'
p1135
sg25
S'6.5'
p1136
sg27
S'--'
p1137
sg29
S'--'
p1138
sg31
S'W38-10'
p1139
sg33
S'13'
p1140
sg35
g77
sg36
S'DET'
p1141
sg38
g185
sg39
g10
sg40
S'--'
p1142
ssg42
(dp1143
g5
S'--'
p1144
sg7
S'--'
p1145
sg9
g10
sg11
S'--'
p1146
sg13
g14
sg15
S'Rob Housler'
p1147
sg17
S'2012'
p1148
sg19
S'14'
p1149
sg21
S'--'
p1150
sg23
S'12/09'
p1151
sg25
S'5.1'
p1152
sg27
S'--'
p1153
sg29
S'--'
p1154
sg31
S'L0-58'
p1155
sg33
S'36'
p1156
sg35
g185
sg36
S'@SEA'
p1157
sg38
S'12'
p1158
sg39
g10
sg40
S'--'
p1159
ssg81
(dp1160
g5
S'--'
p1161
sg7
S'--'
p1162
sg9
g10
sg11
S'--'
p1163
sg13
g14
sg15
S'Rob Housler'
p1164
sg17
S'2012'
p1165
sg19
S'16'
p1166
sg21
S'--'
p1167
sg23
S'12/23'
p1168
sg25
S'--'
p1169
sg27
S'--'
p1170
sg29
S'--'
p1171
sg31
S'L13-28'
p1172
sg33
g10
sg35
g10
sg36
S'CHI'
p1173
sg38
S'--'
p1174
sg39
g10
sg40
S'--'
p1175
ssg14
(dp1176
g5
S'--'
p1177
sg7
S'--'
p1178
sg9
g10
sg11
S'--'
p1179
sg13
g14
sg15
S'Rob Housler'
p1180
sg17
S'2012'
p1181
sg19
g14
sg21
S'--'
p1182
sg23
S'09/09'
p1183
sg25
S'--'
p1184
sg27
S'--'
p1185
sg29
S'--'
p1186
sg31
S'W20-16'
p1187
sg33
S'--'
p1188
sg35
S'--'
p1189
sg36
S'SEA'
p1190
sg38
S'--'
p1191
sg39
S'--'
p1192
sg40
S'--'
p1193
ssg116
(dp1194
g5
S'--'
p1195
sg7
S'--'
p1196
sg9
g10
sg11
S'--'
p1197
sg13
g14
sg15
S'Rob Housler'
p1198
sg17
S'2012'
p1199
sg19
g116
sg21
S'--'
p1200
sg23
S'09/23'
p1201
sg25
S'9.0'
p1202
sg27
S'--'
p1203
sg29
S'--'
p1204
sg31
S'W27-6'
p1205
sg33
S'18'
p1206
sg35
g77
sg36
S'PHI'
p1207
sg38
S'11'
p1208
sg39
g10
sg40
S'--'
p1209
ssg77
(dp1210
g5
S'--'
p1211
sg7
S'--'
p1212
sg9
g10
sg11
S'--'
p1213
sg13
g14
sg15
S'Rob Housler'
p1214
sg17
S'2012'
p1215
sg19
g77
sg21
S'--'
p1216
sg23
S'09/16'
p1217
sg25
S'7.0'
p1218
sg27
S'--'
p1219
sg29
S'--'
p1220
sg31
S'W20-18'
p1221
sg33
g185
sg35
g14
sg36
S'@NE'
p1222
sg38
g185
sg39
g10
sg40
S'--'
p1223
ssg150
(dp1224
g5
S'--'
p1225
sg7
S'--'
p1226
sg9
g14
sg11
S'--'
p1227
sg13
g14
sg15
S'Rob Housler'
p1228
sg17
S'2012'
p1229
sg19
g150
sg21
S'--'
p1230
sg23
S'10/04'
p1231
sg25
S'15.0'
p1232
sg27
S'--'
p1233
sg29
S'--'
p1234
sg31
S'L3-17'
p1235
sg33
S'45'
p1236
sg35
g116
sg36
S'@STL'
p1237
sg38
S'25'
p1238
sg39
g10
sg40
S'--'
p1239
ssg166
(dp1240
g5
S'--'
p1241
sg7
S'--'
p1242
sg9
g14
sg11
S'--'
p1243
sg13
g14
sg15
S'Rob Housler'
p1244
sg17
S'2012'
p1245
sg19
g166
sg21
S'--'
p1246
sg23
S'09/30'
p1247
sg25
S'24.0'
p1248
sg27
S'--'
p1249
sg29
S'--'
p1250
sg31
S'W24-21'
p1251
sg33
S'48'
p1252
sg35
g77
sg36
S'MIA'
p1253
sg38
S'33'
p1254
sg39
g10
sg40
S'--'
p1255
ssg185
(dp1256
g5
S'--'
p1257
sg7
S'--'
p1258
sg9
g14
sg11
S'--'
p1259
sg13
g14
sg15
S'Rob Housler'
p1260
sg17
S'2012'
p1261
sg19
g185
sg21
S'--'
p1262
sg23
S'10/21'
p1263
sg25
S'10.8'
p1264
sg27
S'--'
p1265
sg29
S'--'
p1266
sg31
S'L14-21'
p1267
sg33
S'54'
p1268
sg35
g150
sg36
S'@MIN'
p1269
sg38
S'22'
p1270
sg39
g10
sg40
S'--'
p1271
ssg163
(dp1272
g5
S'--'
p1273
sg7
S'--'
p1274
sg9
g10
sg11
S'--'
p1275
sg13
g14
sg15
S'Rob Housler'
p1276
sg17
S'2012'
p1277
sg19
g163
sg21
S'--'
p1278
sg23
S'10/14'
p1279
sg25
S'6.0'
p1280
sg27
S'--'
p1281
sg29
S'--'
p1282
sg31
S'L16-19'
p1283
sg33
S'12'
p1284
sg35
g77
sg36
S'BUF'
p1285
sg38
g163
sg39
g10
sg40
S'--'
p1286
ssg34
(dp1287
g5
S'--'
p1288
sg7
S'--'
p1289
sg9
g14
sg11
S'--'
p1290
sg13
g14
sg15
S'Rob Housler'
p1291
sg17
S'2012'
p1292
sg19
g34
sg21
S'--'
p1293
sg23
S'11/04'
p1294
sg25
S'11.0'
p1295
sg27
S'--'
p1296
sg29
S'--'
p1297
sg31
S'L17-31'
p1298
sg33
S'55'
p1299
sg35
g150
sg36
S'@GB'
p1300
sg38
S'22'
p1301
sg39
g10
sg40
S'--'
p1302
ssg222
(dp1303
g5
S'--'
p1304
sg7
S'--'
p1305
sg9
g14
sg11
S'--'
p1306
sg13
g14
sg15
S'Rob Housler'
p1307
sg17
S'2012'
p1308
sg19
g222
sg21
S'--'
p1309
sg23
S'10/29'
p1310
sg25
S'8.0'
p1311
sg27
S'--'
p1312
sg29
S'--'
p1313
sg31
S'L3-24'
p1314
sg33
S'32'
p1315
sg35
g166
sg36
S'SF'
p1316
sg38
S'16'
p1317
sg39
g10
sg40
S'--'
p1318
sss.