(dp0
S'2015'
p1
(dp2
S'11'
p3
(dp4
S'RushTD'
p5
S'--'
p6
sS'RushYds'
p7
S'--'
p8
sS'GS'
p9
S'1'
p10
sS'Lost'
p11
S'--'
p12
sS'G'
p13
g10
sS'Player'
p14
S'Rob Gronkowski'
p15
sS'Year'
p16
S'2015'
p17
sS'WK'
p18
S'11'
p19
sS'RushAvg'
p20
S'--'
p21
sS'Game Date'
p22
S'11/23'
p23
sS'RecAvg'
p24
S'18.5'
p25
sS'FUM'
p26
S'--'
p27
sS'RushAtt'
p28
S'--'
p29
sS'Result'
p30
S'W20-13'
p31
sS'RecYds'
p32
S'37'
p33
sS'Rec'
p34
S'2'
p35
sS'Opp'
p36
S'BUF'
p37
sS'RecLng'
p38
S'27'
p39
sS'RecTD'
p40
S'0'
p41
sS'RushLng'
p42
S'--'
p43
ssS'10'
p44
(dp45
g5
S'--'
p46
sg7
S'--'
p47
sg9
g10
sg11
S'--'
p48
sg13
g10
sg14
S'Rob Gronkowski'
p49
sg16
S'2015'
p50
sg18
S'10'
p51
sg20
S'--'
p52
sg22
S'11/15'
p53
sg24
S'22.6'
p54
sg26
S'--'
p55
sg28
S'--'
p56
sg30
S'W27-26'
p57
sg32
S'113'
p58
sg34
S'5'
p59
sg36
S'@NYG'
p60
sg38
S'76T'
p61
sg40
g10
sg42
S'--'
p62
ssS'13'
p63
(dp64
g5
S'--'
p65
sg7
S'--'
p66
sg9
g41
sg11
S'--'
p67
sg13
g41
sg14
S'Rob Gronkowski'
p68
sg16
S'2015'
p69
sg18
S'13'
p70
sg20
S'--'
p71
sg22
S'12/06'
p72
sg24
S'--'
p73
sg26
S'--'
p74
sg28
S'--'
p75
sg30
S'L28-35'
p76
sg32
S'--'
p77
sg34
S'--'
p78
sg36
S'PHI'
p79
sg38
S'--'
p80
sg40
S'--'
p81
sg42
S'--'
p82
ssS'12'
p83
(dp84
g5
S'--'
p85
sg7
S'--'
p86
sg9
g10
sg11
S'--'
p87
sg13
g10
sg14
S'Rob Gronkowski'
p88
sg16
S'2015'
p89
sg18
S'12'
p90
sg20
S'--'
p91
sg22
S'11/29'
p92
sg24
S'14.7'
p93
sg26
S'--'
p94
sg28
S'--'
p95
sg30
S'L24-30'
p96
sg32
S'88'
p97
sg34
S'6'
p98
sg36
S'@DEN'
p99
sg38
S'23T'
p100
sg40
g10
sg42
S'--'
p101
ssS'15'
p102
(dp103
g5
S'--'
p104
sg7
S'--'
p105
sg9
g10
sg11
S'--'
p106
sg13
g10
sg14
S'Rob Gronkowski'
p107
sg16
S'2015'
p108
sg18
S'15'
p109
sg20
S'--'
p110
sg22
S'12/20'
p111
sg24
S'10.8'
p112
sg26
S'--'
p113
sg28
S'--'
p114
sg30
S'W33-16'
p115
sg32
S'54'
p116
sg34
g59
sg36
S'TEN'
p117
sg38
S'15'
p118
sg40
g10
sg42
S'--'
p119
ssS'14'
p120
(dp121
g5
S'--'
p122
sg7
S'--'
p123
sg9
g10
sg11
S'--'
p124
sg13
g10
sg14
S'Rob Gronkowski'
p125
sg16
S'2015'
p126
sg18
S'14'
p127
sg20
S'--'
p128
sg22
S'12/13'
p129
sg24
S'21.8'
p130
sg26
S'--'
p131
sg28
S'--'
p132
sg30
S'W27-6'
p133
sg32
S'87'
p134
sg34
S'4'
p135
sg36
S'@HOU'
p136
sg38
S'45'
p137
sg40
g10
sg42
S'--'
p138
ssS'17'
p139
(dp140
g5
S'--'
p141
sg7
S'--'
p142
sg9
g10
sg11
S'--'
p143
sg13
g10
sg14
S'Rob Gronkowski'
p144
sg16
S'2015'
p145
sg18
S'17'
p146
sg20
S'--'
p147
sg22
S'01/03'
p148
sg24
S'9.0'
p149
sg26
S'--'
p150
sg28
S'--'
p151
sg30
S'L10-20'
p152
sg32
S'18'
p153
sg34
g35
sg36
S'@MIA'
p154
sg38
S'12'
p155
sg40
g41
sg42
S'--'
p156
ssS'16'
p157
(dp158
g5
S'--'
p159
sg7
S'--'
p160
sg9
g10
sg11
S'--'
p161
sg13
g10
sg14
S'Rob Gronkowski'
p162
sg16
S'2015'
p163
sg18
S'16'
p164
sg20
S'--'
p165
sg22
S'12/27'
p166
sg24
S'21.5'
p167
sg26
S'--'
p168
sg28
S'--'
p169
sg30
S'L20-26'
p170
sg32
S'86'
p171
sg34
g135
sg36
S'@NYJ'
p172
sg38
S'30'
p173
sg40
g41
sg42
S'--'
p174
ssg10
(dp175
g5
S'--'
p176
sg7
S'--'
p177
sg9
g10
sg11
S'--'
p178
sg13
g10
sg14
S'Rob Gronkowski'
p179
sg16
S'2015'
p180
sg18
g10
sg20
S'--'
p181
sg22
S'09/10'
p182
sg24
S'18.8'
p183
sg26
S'--'
p184
sg28
S'--'
p185
sg30
S'W28-21'
p186
sg32
S'94'
p187
sg34
g59
sg36
S'PIT'
p188
sg38
S'52'
p189
sg40
S'3'
p190
sg42
S'--'
p191
ssg190
(dp192
g5
S'--'
p193
sg7
S'--'
p194
sg9
g10
sg11
S'--'
p195
sg13
g10
sg14
S'Rob Gronkowski'
p196
sg16
S'2015'
p197
sg18
g190
sg20
S'--'
p198
sg22
S'09/27'
p199
sg24
S'25.3'
p200
sg26
S'--'
p201
sg28
S'--'
p202
sg30
S'W51-17'
p203
sg32
S'101'
p204
sg34
g135
sg36
S'JAC'
p205
sg38
S'43'
p206
sg40
g41
sg42
S'--'
p207
ssg35
(dp208
g5
S'--'
p209
sg7
S'--'
p210
sg9
g10
sg11
S'--'
p211
sg13
g10
sg14
S'Rob Gronkowski'
p212
sg16
S'2015'
p213
sg18
g35
sg20
S'--'
p214
sg22
S'09/20'
p215
sg24
S'16.1'
p216
sg26
S'--'
p217
sg28
S'--'
p218
sg30
S'W40-32'
p219
sg32
S'113'
p220
sg34
S'7'
p221
sg36
S'@BUF'
p222
sg38
S'36'
p223
sg40
g10
sg42
S'--'
p224
ssg59
(dp225
g5
S'--'
p226
sg7
S'--'
p227
sg9
g10
sg11
S'--'
p228
sg13
g10
sg14
S'Rob Gronkowski'
p229
sg16
S'2015'
p230
sg18
g59
sg20
S'--'
p231
sg22
S'10/11'
p232
sg24
S'16.8'
p233
sg26
S'--'
p234
sg28
S'--'
p235
sg30
S'W30-6'
p236
sg32
S'67'
p237
sg34
g135
sg36
S'@DAL'
p238
sg38
S'33'
p239
sg40
g41
sg42
S'--'
p240
ssg135
(dp241
g5
S''
p242
sg7
g242
sg9
g242
sg11
g242
sg13
g242
sg14
S'Rob Gronkowski'
p243
sg16
S'2015'
p244
sg18
g135
sg20
g242
sg22
S'Bye'
p245
sg24
g242
sg26
g242
sg28
g242
sg30
g242
sg32
g242
sg34
g242
sg36
g242
sg38
g242
sg40
g242
sg42
g242
ssg221
(dp246
g5
S'--'
p247
sg7
S'--'
p248
sg9
g10
sg11
S'--'
p249
sg13
g10
sg14
S'Rob Gronkowski'
p250
sg16
S'2015'
p251
sg18
g221
sg20
S'--'
p252
sg22
S'10/25'
p253
sg24
S'9.8'
p254
sg26
S'--'
p255
sg28
S'--'
p256
sg30
S'W30-23'
p257
sg32
S'108'
p258
sg34
S'11'
p259
sg36
S'NYJ'
p260
sg38
S'26'
p261
sg40
g10
sg42
S'--'
p262
ssg98
(dp263
g5
S'--'
p264
sg7
S'--'
p265
sg9
g10
sg11
S'--'
p266
sg13
g10
sg14
S'Rob Gronkowski'
p267
sg16
S'2015'
p268
sg18
g98
sg20
S'--'
p269
sg22
S'10/18'
p270
sg24
S'16.7'
p271
sg26
S'--'
p272
sg28
S'--'
p273
sg30
S'W34-27'
p274
sg32
S'50'
p275
sg34
g190
sg36
S'@IND'
p276
sg38
S'25T'
p277
sg40
g10
sg42
S'--'
p278
ssS'9'
p279
(dp280
g5
S'--'
p281
sg7
S'--'
p282
sg9
g10
sg11
S'--'
p283
sg13
g10
sg14
S'Rob Gronkowski'
p284
sg16
S'2015'
p285
sg18
g279
sg20
S'--'
p286
sg22
S'11/08'
p287
sg24
S'11.8'
p288
sg26
S'--'
p289
sg28
S'--'
p290
sg30
S'W27-10'
p291
sg32
S'47'
p292
sg34
g135
sg36
S'WAS'
p293
sg38
S'15'
p294
sg40
g41
sg42
S'--'
p295
ssS'8'
p296
(dp297
g5
S'--'
p298
sg7
S'--'
p299
sg9
g10
sg11
S'--'
p300
sg13
g10
sg14
S'Rob Gronkowski'
p301
sg16
S'2015'
p302
sg18
g296
sg20
S'--'
p303
sg22
S'10/29'
p304
sg24
S'18.8'
p305
sg26
S'--'
p306
sg28
S'--'
p307
sg30
S'W36-7'
p308
sg32
S'113'
p309
sg34
g98
sg36
S'MIA'
p310
sg38
S'47T'
p311
sg40
g10
sg42
S'--'
p312
sssS'2014'
p313
(dp314
g3
(dp315
g5
S'--'
p316
sg7
S'--'
p317
sg9
g10
sg11
S'--'
p318
sg13
g10
sg14
S'Rob Gronkowski'
p319
sg16
S'2014'
p320
sg18
S'11'
p321
sg20
S'--'
p322
sg22
S'11/16'
p323
sg24
S'17.8'
p324
sg26
S'--'
p325
sg28
S'--'
p326
sg30
S'W42-20'
p327
sg32
S'71'
p328
sg34
g135
sg36
S'@IND'
p329
sg38
S'26T'
p330
sg40
g10
sg42
S'--'
p331
ssg44
(dp332
g5
g242
sg7
g242
sg9
g242
sg11
g242
sg13
g242
sg14
S'Rob Gronkowski'
p333
sg16
S'2014'
p334
sg18
S'10'
p335
sg20
g242
sg22
S'Bye'
p336
sg24
g242
sg26
g242
sg28
g242
sg30
g242
sg32
g242
sg34
g242
sg36
g242
sg38
g242
sg40
g242
sg42
g242
ssg63
(dp337
g5
S'--'
p338
sg7
S'--'
p339
sg9
g10
sg11
S'--'
p340
sg13
g10
sg14
S'Rob Gronkowski'
p341
sg16
S'2014'
p342
sg18
S'13'
p343
sg20
S'--'
p344
sg22
S'11/30'
p345
sg24
S'14.0'
p346
sg26
S'--'
p347
sg28
S'--'
p348
sg30
S'L21-26'
p349
sg32
S'98'
p350
sg34
g221
sg36
S'@GB'
p351
sg38
S'29'
p352
sg40
g41
sg42
S'--'
p353
ssg83
(dp354
g5
S'--'
p355
sg7
S'--'
p356
sg9
g10
sg11
S'--'
p357
sg13
g10
sg14
S'Rob Gronkowski'
p358
sg16
S'2014'
p359
sg18
S'12'
p360
sg20
S'--'
p361
sg22
S'11/23'
p362
sg24
S'15.6'
p363
sg26
S'--'
p364
sg28
S'--'
p365
sg30
S'W34-9'
p366
sg32
S'78'
p367
sg34
g59
sg36
S'DET'
p368
sg38
S'24'
p369
sg40
g41
sg42
S'--'
p370
ssg102
(dp371
g5
S'--'
p372
sg7
S'--'
p373
sg9
g10
sg11
S'--'
p374
sg13
g10
sg14
S'Rob Gronkowski'
p375
sg16
S'2014'
p376
sg18
S'15'
p377
sg20
S'--'
p378
sg22
S'12/14'
p379
sg24
S'32.0'
p380
sg26
S'--'
p381
sg28
S'--'
p382
sg30
S'W41-13'
p383
sg32
S'96'
p384
sg34
g190
sg36
S'MIA'
p385
sg38
S'35'
p386
sg40
g10
sg42
S'--'
p387
ssg120
(dp388
g5
S'--'
p389
sg7
S'--'
p390
sg9
g10
sg11
S'--'
p391
sg13
g10
sg14
S'Rob Gronkowski'
p392
sg16
S'2014'
p393
sg18
S'14'
p394
sg20
S'--'
p395
sg22
S'12/07'
p396
sg24
S'10.9'
p397
sg26
S'--'
p398
sg28
S'--'
p399
sg30
S'W23-14'
p400
sg32
S'87'
p401
sg34
g296
sg36
S'@SD'
p402
sg38
S'35'
p403
sg40
g10
sg42
S'--'
p404
ssg139
(dp405
g5
S'--'
p406
sg7
S'--'
p407
sg9
g41
sg11
S'--'
p408
sg13
g41
sg14
S'Rob Gronkowski'
p409
sg16
S'2014'
p410
sg18
S'17'
p411
sg20
S'--'
p412
sg22
S'12/28'
p413
sg24
S'--'
p414
sg26
S'--'
p415
sg28
S'--'
p416
sg30
S'L9-17'
p417
sg32
S'--'
p418
sg34
S'--'
p419
sg36
S'BUF'
p420
sg38
S'--'
p421
sg40
S'--'
p422
sg42
S'--'
p423
ssg157
(dp424
g5
S'--'
p425
sg7
S'--'
p426
sg9
g10
sg11
S'--'
p427
sg13
g10
sg14
S'Rob Gronkowski'
p428
sg16
S'2014'
p429
sg18
S'16'
p430
sg20
S'--'
p431
sg22
S'12/21'
p432
sg24
S'5.2'
p433
sg26
S'--'
p434
sg28
S'--'
p435
sg30
S'W17-16'
p436
sg32
S'31'
p437
sg34
g98
sg36
S'@NYJ'
p438
sg38
S'10'
p439
sg40
g10
sg42
S'--'
p440
ssg10
(dp441
g5
S'--'
p442
sg7
S'--'
p443
sg9
g41
sg11
S'--'
p444
sg13
g10
sg14
S'Rob Gronkowski'
p445
sg16
S'2014'
p446
sg18
g10
sg20
S'--'
p447
sg22
S'09/07'
p448
sg24
S'10.0'
p449
sg26
S'--'
p450
sg28
S'--'
p451
sg30
S'L20-33'
p452
sg32
S'40'
p453
sg34
g135
sg36
S'@MIA'
p454
sg38
S'18'
p455
sg40
g10
sg42
S'--'
p456
ssg190
(dp457
g5
S'--'
p458
sg7
S'--'
p459
sg9
g10
sg11
S'--'
p460
sg13
g10
sg14
S'Rob Gronkowski'
p461
sg16
S'2014'
p462
sg18
g190
sg20
S'--'
p463
sg22
S'09/21'
p464
sg24
S'14.7'
p465
sg26
S'--'
p466
sg28
S'--'
p467
sg30
S'W16-9'
p468
sg32
S'44'
p469
sg34
g190
sg36
S'OAK'
p470
sg38
S'22'
p471
sg40
g10
sg42
S'--'
p472
ssg35
(dp473
g5
S'--'
p474
sg7
S'--'
p475
sg9
g41
sg11
S'--'
p476
sg13
g10
sg14
S'Rob Gronkowski'
p477
sg16
S'2014'
p478
sg18
g35
sg20
S'--'
p479
sg22
S'09/14'
p480
sg24
S'8.0'
p481
sg26
S'--'
p482
sg28
S'--'
p483
sg30
S'W30-7'
p484
sg32
S'32'
p485
sg34
g135
sg36
S'@MIN'
p486
sg38
S'11'
p487
sg40
g41
sg42
S'--'
p488
ssg59
(dp489
g5
S'--'
p490
sg7
S'--'
p491
sg9
g41
sg11
S'--'
p492
sg13
g10
sg14
S'Rob Gronkowski'
p493
sg16
S'2014'
p494
sg18
g59
sg20
S'--'
p495
sg22
S'10/05'
p496
sg24
S'16.7'
p497
sg26
S'--'
p498
sg28
S'--'
p499
sg30
S'W43-17'
p500
sg32
S'100'
p501
sg34
g98
sg36
S'CIN'
p502
sg38
S'27'
p503
sg40
g10
sg42
S'--'
p504
ssg135
(dp505
g5
S'--'
p506
sg7
S'--'
p507
sg9
g10
sg11
S'--'
p508
sg13
g10
sg14
S'Rob Gronkowski'
p509
sg16
S'2014'
p510
sg18
g135
sg20
S'--'
p511
sg22
S'09/29'
p512
sg24
S'15.5'
p513
sg26
S'--'
p514
sg28
S'--'
p515
sg30
S'L14-41'
p516
sg32
S'31'
p517
sg34
g35
sg36
S'@KC'
p518
sg38
S'18'
p519
sg40
g10
sg42
S'--'
p520
ssg221
(dp521
g5
S'--'
p522
sg7
S'--'
p523
sg9
g41
sg11
S'--'
p524
sg13
g10
sg14
S'Rob Gronkowski'
p525
sg16
S'2014'
p526
sg18
g221
sg20
S'--'
p527
sg22
S'10/16'
p528
sg24
S'13.6'
p529
sg26
S'--'
p530
sg28
S'--'
p531
sg30
S'W27-25'
p532
sg32
S'68'
p533
sg34
g59
sg36
S'NYJ'
p534
sg38
S'24'
p535
sg40
g41
sg42
S'--'
p536
ssg98
(dp537
g5
S'--'
p538
sg7
S'--'
p539
sg9
g10
sg11
S'--'
p540
sg13
g10
sg14
S'Rob Gronkowski'
p541
sg16
S'2014'
p542
sg18
g98
sg20
S'--'
p543
sg22
S'10/12'
p544
sg24
S'13.4'
p545
sg26
S'--'
p546
sg28
S'--'
p547
sg30
S'W37-22'
p548
sg32
S'94'
p549
sg34
g221
sg36
S'@BUF'
p550
sg38
S'33'
p551
sg40
g41
sg42
S'--'
p552
ssg279
(dp553
g5
S'--'
p554
sg7
S'--'
p555
sg9
g10
sg11
S'--'
p556
sg13
g10
sg14
S'Rob Gronkowski'
p557
sg16
S'2014'
p558
sg18
g279
sg20
S'--'
p559
sg22
S'11/02'
p560
sg24
S'11.7'
p561
sg26
S'--'
p562
sg28
S'--'
p563
sg30
S'W43-21'
p564
sg32
S'105'
p565
sg34
g279
sg36
S'DEN'
p566
sg38
S'20'
p567
sg40
g10
sg42
S'--'
p568
ssg296
(dp569
g5
S'--'
p570
sg7
S'--'
p571
sg9
g41
sg11
S'--'
p572
sg13
g10
sg14
S'Rob Gronkowski'
p573
sg16
S'2014'
p574
sg18
g296
sg20
S'--'
p575
sg22
S'10/26'
p576
sg24
S'16.6'
p577
sg26
S'--'
p578
sg28
S'--'
p579
sg30
S'W51-23'
p580
sg32
S'149'
p581
sg34
g279
sg36
S'CHI'
p582
sg38
S'46T'
p583
sg40
g190
sg42
S'--'
p584
sssS'2011'
p585
(dp586
g3
(dp587
g5
S'--'
p588
sg7
S'--'
p589
sg9
g10
sg11
S'--'
p590
sg13
g10
sg14
S'Rob Gronkowski'
p591
sg16
S'2011'
p592
sg18
S'11'
p593
sg20
S'--'
p594
sg22
S'11/21'
p595
sg24
S'24.0'
p596
sg26
S'--'
p597
sg28
S'--'
p598
sg30
S'W34-3'
p599
sg32
S'96'
p600
sg34
g135
sg36
S'KC'
p601
sg38
S'52T'
p602
sg40
g35
sg42
S'--'
p603
ssg44
(dp604
g5
S'--'
p605
sg7
S'--'
p606
sg9
g10
sg11
S'--'
p607
sg13
g10
sg14
S'Rob Gronkowski'
p608
sg16
S'2011'
p609
sg18
S'10'
p610
sg20
S'--'
p611
sg22
S'11/13'
p612
sg24
S'14.1'
p613
sg26
S'--'
p614
sg28
S'--'
p615
sg30
S'W37-16'
p616
sg32
S'113'
p617
sg34
g296
sg36
S'@NYJ'
p618
sg38
S'23'
p619
sg40
g35
sg42
S'--'
p620
ssg63
(dp621
g5
g10
sg7
g35
sg9
g10
sg11
S'--'
p622
sg13
g10
sg14
S'Rob Gronkowski'
p623
sg16
S'2011'
p624
sg18
S'13'
p625
sg20
S'2.0'
p626
sg22
S'12/04'
p627
sg24
S'12.8'
p628
sg26
S'--'
p629
sg28
g10
sg30
S'W31-24'
p630
sg32
S'64'
p631
sg34
g59
sg36
S'IND'
p632
sg38
S'21T'
p633
sg40
g35
sg42
S'2T'
p634
ssg83
(dp635
g5
S'--'
p636
sg7
S'--'
p637
sg9
g10
sg11
S'--'
p638
sg13
g10
sg14
S'Rob Gronkowski'
p639
sg16
S'2011'
p640
sg18
S'12'
p641
sg20
S'--'
p642
sg22
S'11/27'
p643
sg24
S'14.8'
p644
sg26
S'--'
p645
sg28
S'--'
p646
sg30
S'W38-20'
p647
sg32
S'59'
p648
sg34
g135
sg36
S'@PHI'
p649
sg38
S'24T'
p650
sg40
g10
sg42
S'--'
p651
ssg102
(dp652
g5
S'--'
p653
sg7
S'--'
p654
sg9
g10
sg11
S'--'
p655
sg13
g10
sg14
S'Rob Gronkowski'
p656
sg16
S'2011'
p657
sg18
S'15'
p658
sg20
S'--'
p659
sg22
S'12/18'
p660
sg24
S'13.3'
p661
sg26
S'--'
p662
sg28
S'--'
p663
sg30
S'W41-23'
p664
sg32
S'53'
p665
sg34
g135
sg36
S'@DEN'
p666
sg38
S'38'
p667
sg40
g41
sg42
S'--'
p668
ssg120
(dp669
g5
S'--'
p670
sg7
S'--'
p671
sg9
g10
sg11
S'--'
p672
sg13
g10
sg14
S'Rob Gronkowski'
p673
sg16
S'2011'
p674
sg18
S'14'
p675
sg20
S'--'
p676
sg22
S'12/11'
p677
sg24
S'26.7'
p678
sg26
S'--'
p679
sg28
S'--'
p680
sg30
S'W34-27'
p681
sg32
S'160'
p682
sg34
g98
sg36
S'@WAS'
p683
sg38
S'50'
p684
sg40
g35
sg42
S'--'
p685
ssg139
(dp686
g5
S'--'
p687
sg7
S'--'
p688
sg9
g10
sg11
S'--'
p689
sg13
g10
sg14
S'Rob Gronkowski'
p690
sg16
S'2011'
p691
sg18
S'17'
p692
sg20
S'--'
p693
sg22
S'01/01'
p694
sg24
S'13.5'
p695
sg26
S'--'
p696
sg28
S'--'
p697
sg30
S'W49-21'
p698
sg32
S'108'
p699
sg34
g296
sg36
S'BUF'
p700
sg38
S'22'
p701
sg40
g35
sg42
S'--'
p702
ssg157
(dp703
g5
S'--'
p704
sg7
S'--'
p705
sg9
g10
sg11
S'--'
p706
sg13
g10
sg14
S'Rob Gronkowski'
p707
sg16
S'2011'
p708
sg18
S'16'
p709
sg20
S'--'
p710
sg22
S'12/24'
p711
sg24
S'11.1'
p712
sg26
S'--'
p713
sg28
S'--'
p714
sg30
S'W27-24'
p715
sg32
S'78'
p716
sg34
g221
sg36
S'MIA'
p717
sg38
S'22'
p718
sg40
g41
sg42
S'--'
p719
ssg10
(dp720
g5
S'--'
p721
sg7
S'--'
p722
sg9
g10
sg11
S'--'
p723
sg13
g10
sg14
S'Rob Gronkowski'
p724
sg16
S'2011'
p725
sg18
g10
sg20
S'--'
p726
sg22
S'09/12'
p727
sg24
S'14.3'
p728
sg26
S'--'
p729
sg28
S'--'
p730
sg30
S'W38-24'
p731
sg32
S'86'
p732
sg34
g98
sg36
S'@MIA'
p733
sg38
S'23'
p734
sg40
g10
sg42
S'--'
p735
ssg190
(dp736
g5
S'--'
p737
sg7
S'--'
p738
sg9
g10
sg11
S'--'
p739
sg13
g10
sg14
S'Rob Gronkowski'
p740
sg16
S'2011'
p741
sg18
g190
sg20
S'--'
p742
sg22
S'09/25'
p743
sg24
S'15.6'
p744
sg26
S'--'
p745
sg28
S'--'
p746
sg30
S'L31-34'
p747
sg32
S'109'
p748
sg34
g221
sg36
S'@BUF'
p749
sg38
S'29'
p750
sg40
g35
sg42
S'--'
p751
ssg35
(dp752
g5
S'--'
p753
sg7
S'--'
p754
sg9
g10
sg11
S'--'
p755
sg13
g10
sg14
S'Rob Gronkowski'
p756
sg16
S'2011'
p757
sg18
g35
sg20
S'--'
p758
sg22
S'09/18'
p759
sg24
S'21.5'
p760
sg26
S'--'
p761
sg28
S'--'
p762
sg30
S'W35-21'
p763
sg32
S'86'
p764
sg34
g135
sg36
S'SD'
p765
sg38
S'30'
p766
sg40
g35
sg42
S'--'
p767
ssg59
(dp768
g5
S'--'
p769
sg7
S'--'
p770
sg9
g10
sg11
S'--'
p771
sg13
g10
sg14
S'Rob Gronkowski'
p772
sg16
S'2011'
p773
sg18
g59
sg20
S'--'
p774
sg22
S'10/09'
p775
sg24
S'7.8'
p776
sg26
S'--'
p777
sg28
S'--'
p778
sg30
S'W30-21'
p779
sg32
S'31'
p780
sg34
g135
sg36
S'NYJ'
p781
sg38
S'17'
p782
sg40
g41
sg42
S'--'
p783
ssg135
(dp784
g5
S'--'
p785
sg7
S'--'
p786
sg9
g10
sg11
S'--'
p787
sg13
g10
sg14
S'Rob Gronkowski'
p788
sg16
S'2011'
p789
sg18
g135
sg20
S'--'
p790
sg22
S'10/02'
p791
sg24
S'15.0'
p792
sg26
S'--'
p793
sg28
S'--'
p794
sg30
S'W31-19'
p795
sg32
S'15'
p796
sg34
g10
sg36
S'@OAK'
p797
sg38
S'15'
p798
sg40
g41
sg42
S'--'
p799
ssg221
(dp800
g5
g242
sg7
g242
sg9
g242
sg11
g242
sg13
g242
sg14
S'Rob Gronkowski'
p801
sg16
S'2011'
p802
sg18
g221
sg20
g242
sg22
S'Bye'
p803
sg24
g242
sg26
g242
sg28
g242
sg30
g242
sg32
g242
sg34
g242
sg36
g242
sg38
g242
sg40
g242
sg42
g242
ssg98
(dp804
g5
S'--'
p805
sg7
S'--'
p806
sg9
g10
sg11
S'--'
p807
sg13
g10
sg14
S'Rob Gronkowski'
p808
sg16
S'2011'
p809
sg18
g98
sg20
S'--'
p810
sg22
S'10/16'
p811
sg24
S'10.6'
p812
sg26
S'--'
p813
sg28
S'--'
p814
sg30
S'W20-16'
p815
sg32
S'74'
p816
sg34
g221
sg36
S'DAL'
p817
sg38
S'20'
p818
sg40
g41
sg42
S'--'
p819
ssg279
(dp820
g5
S'--'
p821
sg7
S'--'
p822
sg9
g10
sg11
S'--'
p823
sg13
g10
sg14
S'Rob Gronkowski'
p824
sg16
S'2011'
p825
sg18
g279
sg20
S'--'
p826
sg22
S'11/06'
p827
sg24
S'12.6'
p828
sg26
S'--'
p829
sg28
S'--'
p830
sg30
S'L20-24'
p831
sg32
S'101'
p832
sg34
g296
sg36
S'NYG'
p833
sg38
S'27'
p834
sg40
g10
sg42
S'--'
p835
ssg296
(dp836
g5
S'--'
p837
sg7
S'--'
p838
sg9
g10
sg11
S'--'
p839
sg13
g10
sg14
S'Rob Gronkowski'
p840
sg16
S'2011'
p841
sg18
g296
sg20
S'--'
p842
sg22
S'10/30'
p843
sg24
S'13.4'
p844
sg26
S'--'
p845
sg28
S'--'
p846
sg30
S'L17-25'
p847
sg32
S'94'
p848
sg34
g221
sg36
S'@PIT'
p849
sg38
S'23'
p850
sg40
g41
sg42
S'--'
p851
sssS'2010'
p852
(dp853
g3
(dp854
g5
S'--'
p855
sg7
S'--'
p856
sg9
g10
sg11
S'--'
p857
sg13
g10
sg14
S'Rob Gronkowski'
p858
sg16
S'2010'
p859
sg18
S'11'
p860
sg20
S'--'
p861
sg22
S'11/21'
p862
sg24
S'25.0'
p863
sg26
S'--'
p864
sg28
S'--'
p865
sg30
S'W31-28'
p866
sg32
S'25'
p867
sg34
g10
sg36
S'IND'
p868
sg38
S'25'
p869
sg40
g41
sg42
S'--'
p870
ssg44
(dp871
g5
S'--'
p872
sg7
S'--'
p873
sg9
g10
sg11
S'--'
p874
sg13
g10
sg14
S'Rob Gronkowski'
p875
sg16
S'2010'
p876
sg18
S'10'
p877
sg20
S'--'
p878
sg22
S'11/14'
p879
sg24
S'14.4'
p880
sg26
S'--'
p881
sg28
S'--'
p882
sg30
S'W39-26'
p883
sg32
S'72'
p884
sg34
g59
sg36
S'@PIT'
p885
sg38
S'25T'
p886
sg40
g190
sg42
S'--'
p887
ssg63
(dp888
g5
S'--'
p889
sg7
S'--'
p890
sg9
g41
sg11
S'--'
p891
sg13
g10
sg14
S'Rob Gronkowski'
p892
sg16
S'2010'
p893
sg18
S'13'
p894
sg20
S'--'
p895
sg22
S'12/06'
p896
sg24
S'12.0'
p897
sg26
S'--'
p898
sg28
S'--'
p899
sg30
S'W45-3'
p900
sg32
S'12'
p901
sg34
g10
sg36
S'NYJ'
p902
sg38
S'12'
p903
sg40
g41
sg42
S'--'
p904
ssg83
(dp905
g5
S'--'
p906
sg7
S'--'
p907
sg9
g10
sg11
S'--'
p908
sg13
g10
sg14
S'Rob Gronkowski'
p909
sg16
S'2010'
p910
sg18
S'12'
p911
sg20
S'--'
p912
sg22
S'11/25'
p913
sg24
S'13.0'
p914
sg26
S'--'
p915
sg28
S'--'
p916
sg30
S'W45-24'
p917
sg32
S'65'
p918
sg34
g59
sg36
S'@DET'
p919
sg38
S'26'
p920
sg40
g41
sg42
S'--'
p921
ssg102
(dp922
g5
S'--'
p923
sg7
S'--'
p924
sg9
g10
sg11
S'--'
p925
sg13
g10
sg14
S'Rob Gronkowski'
p926
sg16
S'2010'
p927
sg18
S'15'
p928
sg20
S'--'
p929
sg22
S'12/19'
p930
sg24
S'25.0'
p931
sg26
S'--'
p932
sg28
S'--'
p933
sg30
S'W31-27'
p934
sg32
S'25'
p935
sg34
g10
sg36
S'GB'
p936
sg38
S'25'
p937
sg40
g41
sg42
S'--'
p938
ssg120
(dp939
g5
S'--'
p940
sg7
S'--'
p941
sg9
g41
sg11
S'--'
p942
sg13
g10
sg14
S'Rob Gronkowski'
p943
sg16
S'2010'
p944
sg18
S'14'
p945
sg20
S'--'
p946
sg22
S'12/12'
p947
sg24
S'8.6'
p948
sg26
S'--'
p949
sg28
S'--'
p950
sg30
S'W36-7'
p951
sg32
S'43'
p952
sg34
g59
sg36
S'@CHI'
p953
sg38
S'15'
p954
sg40
g10
sg42
S'--'
p955
ssg139
(dp956
g5
S'--'
p957
sg7
S'--'
p958
sg9
g10
sg11
S'--'
p959
sg13
g10
sg14
S'Rob Gronkowski'
p960
sg16
S'2010'
p961
sg18
S'17'
p962
sg20
S'--'
p963
sg22
S'01/02'
p964
sg24
S'17.0'
p965
sg26
S'--'
p966
sg28
S'--'
p967
sg30
S'W38-7'
p968
sg32
S'102'
p969
sg34
g98
sg36
S'MIA'
p970
sg38
S'28'
p971
sg40
g10
sg42
S'--'
p972
ssg157
(dp973
g5
S'--'
p974
sg7
S'--'
p975
sg9
g10
sg11
S'--'
p976
sg13
g10
sg14
S'Rob Gronkowski'
p977
sg16
S'2010'
p978
sg18
S'16'
p979
sg20
S'--'
p980
sg22
S'12/26'
p981
sg24
S'13.5'
p982
sg26
S'--'
p983
sg28
S'--'
p984
sg30
S'W34-3'
p985
sg32
S'54'
p986
sg34
g135
sg36
S'@BUF'
p987
sg38
S'23'
p988
sg40
g35
sg42
S'--'
p989
ssg10
(dp990
g5
S'--'
p991
sg7
S'--'
p992
sg9
g10
sg11
S'--'
p993
sg13
g10
sg14
S'Rob Gronkowski'
p994
sg16
S'2010'
p995
sg18
g10
sg20
S'--'
p996
sg22
S'09/12'
p997
sg24
S'1.0'
p998
sg26
S'--'
p999
sg28
S'--'
p1000
sg30
S'W38-24'
p1001
sg32
g10
sg34
g10
sg36
S'CIN'
p1002
sg38
S'1T'
p1003
sg40
g10
sg42
S'--'
p1004
ssg190
(dp1005
g5
S'--'
p1006
sg7
S'--'
p1007
sg9
g41
sg11
S'--'
p1008
sg13
g10
sg14
S'Rob Gronkowski'
p1009
sg16
S'2010'
p1010
sg18
g190
sg20
S'--'
p1011
sg22
S'09/26'
p1012
sg24
S'14.3'
p1013
sg26
S'--'
p1014
sg28
S'--'
p1015
sg30
S'W38-30'
p1016
sg32
S'43'
p1017
sg34
g190
sg36
S'BUF'
p1018
sg38
S'21'
p1019
sg40
g10
sg42
S'--'
p1020
ssg35
(dp1021
g5
S'--'
p1022
sg7
S'--'
p1023
sg9
g41
sg11
S'--'
p1024
sg13
g10
sg14
S'Rob Gronkowski'
p1025
sg16
S'2010'
p1026
sg18
g35
sg20
S'--'
p1027
sg22
S'09/19'
p1028
sg24
S'14.0'
p1029
sg26
S'--'
p1030
sg28
S'--'
p1031
sg30
S'L14-28'
p1032
sg32
S'14'
p1033
sg34
g10
sg36
S'@NYJ'
p1034
sg38
S'14'
p1035
sg40
g41
sg42
S'--'
p1036
ssg59
(dp1037
g5
g242
sg7
g242
sg9
g242
sg11
g242
sg13
g242
sg14
S'Rob Gronkowski'
p1038
sg16
S'2010'
p1039
sg18
g59
sg20
g242
sg22
S'Bye'
p1040
sg24
g242
sg26
g242
sg28
g242
sg30
g242
sg32
g242
sg34
g242
sg36
g242
sg38
g242
sg40
g242
sg42
g242
ssg135
(dp1041
g5
S'--'
p1042
sg7
S'--'
p1043
sg9
g10
sg11
S'--'
p1044
sg13
g10
sg14
S'Rob Gronkowski'
p1045
sg16
S'2010'
p1046
sg18
g135
sg20
S'--'
p1047
sg22
S'10/04'
p1048
sg24
S'4.0'
p1049
sg26
S'--'
p1050
sg28
S'--'
p1051
sg30
S'W41-14'
p1052
sg32
g135
sg34
g10
sg36
S'@MIA'
p1053
sg38
g135
sg40
g41
sg42
S'--'
p1054
ssg221
(dp1055
g5
S'--'
p1056
sg7
S'--'
p1057
sg9
g10
sg11
S'--'
p1058
sg13
g10
sg14
S'Rob Gronkowski'
p1059
sg16
S'2010'
p1060
sg18
g221
sg20
S'--'
p1061
sg22
S'10/24'
p1062
sg24
S'5.0'
p1063
sg26
S'--'
p1064
sg28
S'--'
p1065
sg30
S'W23-20'
p1066
sg32
S'10'
p1067
sg34
g35
sg36
S'@SD'
p1068
sg38
g279
sg40
g10
sg42
S'--'
p1069
ssg98
(dp1070
g5
S'--'
p1071
sg7
S'--'
p1072
sg9
g10
sg11
S'--'
p1073
sg13
g10
sg14
S'Rob Gronkowski'
p1074
sg16
S'2010'
p1075
sg18
g98
sg20
S'--'
p1076
sg22
S'10/17'
p1077
sg24
S'24.0'
p1078
sg26
S'--'
p1079
sg28
S'--'
p1080
sg30
S'W23-20'
p1081
sg32
S'24'
p1082
sg34
g10
sg36
S'BAL'
p1083
sg38
S'24'
p1084
sg40
g41
sg42
S'--'
p1085
ssg279
(dp1086
g5
S'--'
p1087
sg7
S'--'
p1088
sg9
g10
sg11
g10
sg13
g10
sg14
S'Rob Gronkowski'
p1089
sg16
S'2010'
p1090
sg18
g279
sg20
S'--'
p1091
sg22
S'11/07'
p1092
sg24
S'11.8'
p1093
sg26
g10
sg28
S'--'
p1094
sg30
S'L14-34'
p1095
sg32
S'47'
p1096
sg34
g135
sg36
S'@CLE'
p1097
sg38
S'22'
p1098
sg40
g41
sg42
S'--'
p1099
ssg296
(dp1100
g5
S'--'
p1101
sg7
S'--'
p1102
sg9
g41
sg11
S'--'
p1103
sg13
g10
sg14
S'Rob Gronkowski'
p1104
sg16
S'2010'
p1105
sg18
g296
sg20
S'--'
p1106
sg22
S'10/31'
p1107
sg24
S'5.0'
p1108
sg26
S'--'
p1109
sg28
S'--'
p1110
sg30
S'W28-18'
p1111
sg32
g59
sg34
g10
sg36
S'MIN'
p1112
sg38
g59
sg40
g41
sg42
S'--'
p1113
sssS'2013'
p1114
(dp1115
g3
(dp1116
g5
S'--'
p1117
sg7
S'--'
p1118
sg9
g10
sg11
S'--'
p1119
sg13
g10
sg14
S'Rob Gronkowski'
p1120
sg16
S'2013'
p1121
sg18
S'11'
p1122
sg20
S'--'
p1123
sg22
S'11/18'
p1124
sg24
S'11.8'
p1125
sg26
S'--'
p1126
sg28
S'--'
p1127
sg30
S'L20-24'
p1128
sg32
S'59'
p1129
sg34
g59
sg36
S'@CAR'
p1130
sg38
S'23'
p1131
sg40
g10
sg42
S'--'
p1132
ssg44
(dp1133
g5
g242
sg7
g242
sg9
g242
sg11
g242
sg13
g242
sg14
S'Rob Gronkowski'
p1134
sg16
S'2013'
p1135
sg18
S'10'
p1136
sg20
g242
sg22
S'Bye'
p1137
sg24
g242
sg26
g242
sg28
g242
sg30
g242
sg32
g242
sg34
g242
sg36
g242
sg38
g242
sg40
g242
sg42
g242
ssg63
(dp1138
g5
S'--'
p1139
sg7
S'--'
p1140
sg9
g10
sg11
S'--'
p1141
sg13
g10
sg14
S'Rob Gronkowski'
p1142
sg16
S'2013'
p1143
sg18
S'13'
p1144
sg20
S'--'
p1145
sg22
S'12/01'
p1146
sg24
S'21.2'
p1147
sg26
S'--'
p1148
sg28
S'--'
p1149
sg30
S'W34-31'
p1150
sg32
S'127'
p1151
sg34
g98
sg36
S'@HOU'
p1152
sg38
S'50'
p1153
sg40
g10
sg42
S'--'
p1154
ssg83
(dp1155
g5
S'--'
p1156
sg7
S'--'
p1157
sg9
g10
sg11
S'--'
p1158
sg13
g10
sg14
S'Rob Gronkowski'
p1159
sg16
S'2013'
p1160
sg18
S'12'
p1161
sg20
S'--'
p1162
sg22
S'11/24'
p1163
sg24
S'12.9'
p1164
sg26
S'--'
p1165
sg28
S'--'
p1166
sg30
S'W34-31'
p1167
sg32
S'90'
p1168
sg34
g221
sg36
S'DEN'
p1169
sg38
S'33'
p1170
sg40
g10
sg42
S'--'
p1171
ssg120
(dp1172
g5
S'--'
p1173
sg7
S'--'
p1174
sg9
g10
sg11
S'--'
p1175
sg13
g10
sg14
S'Rob Gronkowski'
p1176
sg16
S'2013'
p1177
sg18
S'14'
p1178
sg20
S'--'
p1179
sg22
S'12/08'
p1180
sg24
S'16.0'
p1181
sg26
S'--'
p1182
sg28
S'--'
p1183
sg30
S'W27-26'
p1184
sg32
S'32'
p1185
sg34
g35
sg36
S'CLE'
p1186
sg38
S'21'
p1187
sg40
g41
sg42
S'--'
p1188
ssg10
(dp1189
g5
S'--'
p1190
sg7
S'--'
p1191
sg9
g41
sg11
S'--'
p1192
sg13
g41
sg14
S'Rob Gronkowski'
p1193
sg16
S'2013'
p1194
sg18
g10
sg20
S'--'
p1195
sg22
S'09/08'
p1196
sg24
S'--'
p1197
sg26
S'--'
p1198
sg28
S'--'
p1199
sg30
S'W23-21'
p1200
sg32
S'--'
p1201
sg34
S'--'
p1202
sg36
S'@BUF'
p1203
sg38
S'--'
p1204
sg40
S'--'
p1205
sg42
S'--'
p1206
ssg190
(dp1207
g5
S'--'
p1208
sg7
S'--'
p1209
sg9
g41
sg11
S'--'
p1210
sg13
g41
sg14
S'Rob Gronkowski'
p1211
sg16
S'2013'
p1212
sg18
g190
sg20
S'--'
p1213
sg22
S'09/22'
p1214
sg24
S'--'
p1215
sg26
S'--'
p1216
sg28
S'--'
p1217
sg30
S'W23-3'
p1218
sg32
S'--'
p1219
sg34
S'--'
p1220
sg36
S'TB'
p1221
sg38
S'--'
p1222
sg40
S'--'
p1223
sg42
S'--'
p1224
ssg35
(dp1225
g5
S'--'
p1226
sg7
S'--'
p1227
sg9
g41
sg11
S'--'
p1228
sg13
g41
sg14
S'Rob Gronkowski'
p1229
sg16
S'2013'
p1230
sg18
g35
sg20
S'--'
p1231
sg22
S'09/12'
p1232
sg24
S'--'
p1233
sg26
S'--'
p1234
sg28
S'--'
p1235
sg30
S'W13-10'
p1236
sg32
S'--'
p1237
sg34
S'--'
p1238
sg36
S'NYJ'
p1239
sg38
S'--'
p1240
sg40
S'--'
p1241
sg42
S'--'
p1242
ssg59
(dp1243
g5
S'--'
p1244
sg7
S'--'
p1245
sg9
g41
sg11
S'--'
p1246
sg13
g41
sg14
S'Rob Gronkowski'
p1247
sg16
S'2013'
p1248
sg18
g59
sg20
S'--'
p1249
sg22
S'10/06'
p1250
sg24
S'--'
p1251
sg26
S'--'
p1252
sg28
S'--'
p1253
sg30
S'L6-13'
p1254
sg32
S'--'
p1255
sg34
S'--'
p1256
sg36
S'@CIN'
p1257
sg38
S'--'
p1258
sg40
S'--'
p1259
sg42
S'--'
p1260
ssg135
(dp1261
g5
S'--'
p1262
sg7
S'--'
p1263
sg9
g41
sg11
S'--'
p1264
sg13
g41
sg14
S'Rob Gronkowski'
p1265
sg16
S'2013'
p1266
sg18
g135
sg20
S'--'
p1267
sg22
S'09/29'
p1268
sg24
S'--'
p1269
sg26
S'--'
p1270
sg28
S'--'
p1271
sg30
S'W30-23'
p1272
sg32
S'--'
p1273
sg34
S'--'
p1274
sg36
S'@ATL'
p1275
sg38
S'--'
p1276
sg40
S'--'
p1277
sg42
S'--'
p1278
ssg221
(dp1279
g5
S'--'
p1280
sg7
S'--'
p1281
sg9
g10
sg11
S'--'
p1282
sg13
g10
sg14
S'Rob Gronkowski'
p1283
sg16
S'2013'
p1284
sg18
g221
sg20
S'--'
p1285
sg22
S'10/20'
p1286
sg24
S'14.3'
p1287
sg26
S'--'
p1288
sg28
S'--'
p1289
sg30
S'L27-30'
p1290
sg32
S'114'
p1291
sg34
g296
sg36
S'@NYJ'
p1292
sg38
S'30'
p1293
sg40
g41
sg42
S'--'
p1294
ssg98
(dp1295
g5
S'--'
p1296
sg7
S'--'
p1297
sg9
g41
sg11
S'--'
p1298
sg13
g41
sg14
S'Rob Gronkowski'
p1299
sg16
S'2013'
p1300
sg18
g98
sg20
S'--'
p1301
sg22
S'10/13'
p1302
sg24
S'--'
p1303
sg26
S'--'
p1304
sg28
S'--'
p1305
sg30
S'W30-27'
p1306
sg32
S'--'
p1307
sg34
S'--'
p1308
sg36
S'NO'
p1309
sg38
S'--'
p1310
sg40
S'--'
p1311
sg42
S'--'
p1312
ssg279
(dp1313
g5
S'--'
p1314
sg7
S'--'
p1315
sg9
g10
sg11
S'--'
p1316
sg13
g10
sg14
S'Rob Gronkowski'
p1317
sg16
S'2013'
p1318
sg18
g279
sg20
S'--'
p1319
sg22
S'11/03'
p1320
sg24
S'15.9'
p1321
sg26
S'--'
p1322
sg28
S'--'
p1323
sg30
S'W55-31'
p1324
sg32
S'143'
p1325
sg34
g279
sg36
S'PIT'
p1326
sg38
S'34'
p1327
sg40
g10
sg42
S'--'
p1328
ssg296
(dp1329
g5
S'--'
p1330
sg7
S'--'
p1331
sg9
g41
sg11
S'--'
p1332
sg13
g10
sg14
S'Rob Gronkowski'
p1333
sg16
S'2013'
p1334
sg18
g296
sg20
S'--'
p1335
sg22
S'10/27'
p1336
sg24
S'13.5'
p1337
sg26
S'--'
p1338
sg28
S'--'
p1339
sg30
S'W27-17'
p1340
sg32
S'27'
p1341
sg34
g35
sg36
S'MIA'
p1342
sg38
S'23'
p1343
sg40
g41
sg42
S'--'
p1344
sssS'2012'
p1345
(dp1346
g3
(dp1347
g5
S'--'
p1348
sg7
S'--'
p1349
sg9
g10
sg11
S'--'
p1350
sg13
g10
sg14
S'Rob Gronkowski'
p1351
sg16
S'2012'
p1352
sg18
S'11'
p1353
sg20
S'--'
p1354
sg22
S'11/18'
p1355
sg24
S'19.6'
p1356
sg26
S'--'
p1357
sg28
S'--'
p1358
sg30
S'W59-24'
p1359
sg32
S'137'
p1360
sg34
g221
sg36
S'IND'
p1361
sg38
S'36'
p1362
sg40
g35
sg42
S'--'
p1363
ssg44
(dp1364
g5
S'--'
p1365
sg7
S'--'
p1366
sg9
g10
sg11
S'--'
p1367
sg13
g10
sg14
S'Rob Gronkowski'
p1368
sg16
S'2012'
p1369
sg18
S'10'
p1370
sg20
S'--'
p1371
sg22
S'11/11'
p1372
sg24
S'10.3'
p1373
sg26
S'--'
p1374
sg28
S'--'
p1375
sg30
S'W37-31'
p1376
sg32
S'31'
p1377
sg34
g190
sg36
S'BUF'
p1378
sg38
S'24'
p1379
sg40
g10
sg42
S'--'
p1380
ssg63
(dp1381
g5
S'--'
p1382
sg7
S'--'
p1383
sg9
g41
sg11
S'--'
p1384
sg13
g41
sg14
S'Rob Gronkowski'
p1385
sg16
S'2012'
p1386
sg18
S'13'
p1387
sg20
S'--'
p1388
sg22
S'12/02'
p1389
sg24
S'--'
p1390
sg26
S'--'
p1391
sg28
S'--'
p1392
sg30
S'W23-16'
p1393
sg32
S'--'
p1394
sg34
S'--'
p1395
sg36
S'@MIA'
p1396
sg38
S'--'
p1397
sg40
S'--'
p1398
sg42
S'--'
p1399
ssg83
(dp1400
g5
S'--'
p1401
sg7
S'--'
p1402
sg9
g41
sg11
S'--'
p1403
sg13
g41
sg14
S'Rob Gronkowski'
p1404
sg16
S'2012'
p1405
sg18
S'12'
p1406
sg20
S'--'
p1407
sg22
S'11/22'
p1408
sg24
S'--'
p1409
sg26
S'--'
p1410
sg28
S'--'
p1411
sg30
S'W49-19'
p1412
sg32
S'--'
p1413
sg34
S'--'
p1414
sg36
S'@NYJ'
p1415
sg38
S'--'
p1416
sg40
S'--'
p1417
sg42
S'--'
p1418
ssg102
(dp1419
g5
S'--'
p1420
sg7
S'--'
p1421
sg9
g41
sg11
S'--'
p1422
sg13
g41
sg14
S'Rob Gronkowski'
p1423
sg16
S'2012'
p1424
sg18
S'15'
p1425
sg20
S'--'
p1426
sg22
S'12/16'
p1427
sg24
S'--'
p1428
sg26
S'--'
p1429
sg28
S'--'
p1430
sg30
S'L34-41'
p1431
sg32
S'--'
p1432
sg34
S'--'
p1433
sg36
S'SF'
p1434
sg38
S'--'
p1435
sg40
S'--'
p1436
sg42
S'--'
p1437
ssg120
(dp1438
g5
S'--'
p1439
sg7
S'--'
p1440
sg9
g41
sg11
S'--'
p1441
sg13
g41
sg14
S'Rob Gronkowski'
p1442
sg16
S'2012'
p1443
sg18
S'14'
p1444
sg20
S'--'
p1445
sg22
S'12/10'
p1446
sg24
S'--'
p1447
sg26
S'--'
p1448
sg28
S'--'
p1449
sg30
S'W42-14'
p1450
sg32
S'--'
p1451
sg34
S'--'
p1452
sg36
S'HOU'
p1453
sg38
S'--'
p1454
sg40
S'--'
p1455
sg42
S'--'
p1456
ssg139
(dp1457
g5
S'--'
p1458
sg7
S'--'
p1459
sg9
g10
sg11
S'--'
p1460
sg13
g10
sg14
S'Rob Gronkowski'
p1461
sg16
S'2012'
p1462
sg18
S'17'
p1463
sg20
S'--'
p1464
sg22
S'12/30'
p1465
sg24
S'21.0'
p1466
sg26
S'--'
p1467
sg28
S'--'
p1468
sg30
S'W28-0'
p1469
sg32
S'42'
p1470
sg34
g35
sg36
S'MIA'
p1471
sg38
S'23T'
p1472
sg40
g10
sg42
S'--'
p1473
ssg157
(dp1474
g5
S'--'
p1475
sg7
S'--'
p1476
sg9
g41
sg11
S'--'
p1477
sg13
g41
sg14
S'Rob Gronkowski'
p1478
sg16
S'2012'
p1479
sg18
S'16'
p1480
sg20
S'--'
p1481
sg22
S'12/23'
p1482
sg24
S'--'
p1483
sg26
S'--'
p1484
sg28
S'--'
p1485
sg30
S'W23-16'
p1486
sg32
S'--'
p1487
sg34
S'--'
p1488
sg36
S'@JAC'
p1489
sg38
S'--'
p1490
sg40
S'--'
p1491
sg42
S'--'
p1492
ssg10
(dp1493
g5
S'--'
p1494
sg7
S'--'
p1495
sg9
g10
sg11
S'--'
p1496
sg13
g10
sg14
S'Rob Gronkowski'
p1497
sg16
S'2012'
p1498
sg18
g10
sg20
S'--'
p1499
sg22
S'09/09'
p1500
sg24
S'10.0'
p1501
sg26
S'--'
p1502
sg28
S'--'
p1503
sg30
S'W34-13'
p1504
sg32
S'60'
p1505
sg34
g98
sg36
S'@TEN'
p1506
sg38
S'28'
p1507
sg40
g10
sg42
S'--'
p1508
ssg190
(dp1509
g5
S'--'
p1510
sg7
S'--'
p1511
sg9
g10
sg11
S'--'
p1512
sg13
g10
sg14
S'Rob Gronkowski'
p1513
sg16
S'2012'
p1514
sg18
g190
sg20
S'--'
p1515
sg22
S'09/23'
p1516
sg24
S'10.5'
p1517
sg26
S'--'
p1518
sg28
S'--'
p1519
sg30
S'L30-31'
p1520
sg32
S'21'
p1521
sg34
g35
sg36
S'@BAL'
p1522
sg38
S'12'
p1523
sg40
g41
sg42
S'--'
p1524
ssg35
(dp1525
g5
S'--'
p1526
sg7
S'--'
p1527
sg9
g10
sg11
S'--'
p1528
sg13
g10
sg14
S'Rob Gronkowski'
p1529
sg16
S'2012'
p1530
sg18
g35
sg20
S'--'
p1531
sg22
S'09/16'
p1532
sg24
S'12.5'
p1533
sg26
S'--'
p1534
sg28
S'--'
p1535
sg30
S'L18-20'
p1536
sg32
S'75'
p1537
sg34
g98
sg36
S'ARI'
p1538
sg38
S'22'
p1539
sg40
g10
sg42
S'--'
p1540
ssg59
(dp1541
g5
S'--'
p1542
sg7
S'--'
p1543
sg9
g10
sg11
S'--'
p1544
sg13
g10
sg14
S'Rob Gronkowski'
p1545
sg16
S'2012'
p1546
sg18
g59
sg20
S'--'
p1547
sg22
S'10/07'
p1548
sg24
S'8.8'
p1549
sg26
S'--'
p1550
sg28
S'--'
p1551
sg30
S'W31-21'
p1552
sg32
S'35'
p1553
sg34
g135
sg36
S'DEN'
p1554
sg38
S'13'
p1555
sg40
g41
sg42
S'--'
p1556
ssg135
(dp1557
g5
S'--'
p1558
sg7
S'--'
p1559
sg9
g10
sg11
g10
sg13
g10
sg14
S'Rob Gronkowski'
p1560
sg16
S'2012'
p1561
sg18
g135
sg20
S'--'
p1562
sg22
S'09/30'
p1563
sg24
S'20.8'
p1564
sg26
g10
sg28
S'--'
p1565
sg30
S'W52-28'
p1566
sg32
S'104'
p1567
sg34
g59
sg36
S'@BUF'
p1568
sg38
S'41'
p1569
sg40
g10
sg42
S'--'
p1570
ssg221
(dp1571
g5
S'--'
p1572
sg7
S'--'
p1573
sg9
g10
sg11
S'--'
p1574
sg13
g10
sg14
S'Rob Gronkowski'
p1575
sg16
S'2012'
p1576
sg18
g221
sg20
S'--'
p1577
sg22
S'10/21'
p1578
sg24
S'13.0'
p1579
sg26
S'--'
p1580
sg28
S'--'
p1581
sg30
S'W29-26'
p1582
sg32
S'78'
p1583
sg34
g98
sg36
S'NYJ'
p1584
sg38
S'19'
p1585
sg40
g35
sg42
S'--'
p1586
ssg98
(dp1587
g5
S'--'
p1588
sg7
S'--'
p1589
sg9
g10
sg11
S'--'
p1590
sg13
g10
sg14
S'Rob Gronkowski'
p1591
sg16
S'2012'
p1592
sg18
g98
sg20
S'--'
p1593
sg22
S'10/14'
p1594
sg24
S'10.2'
p1595
sg26
S'--'
p1596
sg28
S'--'
p1597
sg30
S'L23-24'
p1598
sg32
S'61'
p1599
sg34
g98
sg36
S'@SEA'
p1600
sg38
S'20'
p1601
sg40
g41
sg42
S'--'
p1602
ssg279
(dp1603
g5
g242
sg7
g242
sg9
g242
sg11
g242
sg13
g242
sg14
S'Rob Gronkowski'
p1604
sg16
S'2012'
p1605
sg18
g279
sg20
g242
sg22
S'Bye'
p1606
sg24
g242
sg26
g242
sg28
g242
sg30
g242
sg32
g242
sg34
g242
sg36
g242
sg38
g242
sg40
g242
sg42
g242
ssg296
(dp1607
g5
S'--'
p1608
sg7
S'--'
p1609
sg9
g10
sg11
S'--'
p1610
sg13
g10
sg14
S'Rob Gronkowski'
p1611
sg16
S'2012'
p1612
sg18
g296
sg20
S'--'
p1613
sg22
S'10/28'
p1614
sg24
S'18.3'
p1615
sg26
S'--'
p1616
sg28
S'--'
p1617
sg30
S'W45-7'
p1618
sg32
S'146'
p1619
sg34
g296
sg36
S'@STL'
p1620
sg38
S'32'
p1621
sg40
g35
sg42
S'--'
p1622
sss.