(dp0
S'2015'
p1
(dp2
S'11'
p3
(dp4
S'RushTD'
p5
S'--'
p6
sS'RushYds'
p7
S'--'
p8
sS'GS'
p9
S'1'
p10
sS'Lost'
p11
S'--'
p12
sS'G'
p13
g10
sS'Player'
p14
S'Ryan Hewitt'
p15
sS'Year'
p16
S'2015'
p17
sS'WK'
p18
S'11'
p19
sS'RushAvg'
p20
S'--'
p21
sS'Game Date'
p22
S'11/22'
p23
sS'RecAvg'
p24
S'--'
p25
sS'FUM'
p26
S'--'
p27
sS'RushAtt'
p28
S'--'
p29
sS'Result'
p30
S'L31-34'
p31
sS'RecYds'
p32
S'--'
p33
sS'Rec'
p34
S'--'
p35
sS'Opp'
p36
S'@ARI'
p37
sS'RecLng'
p38
S'--'
p39
sS'RecTD'
p40
S'--'
p41
sS'RushLng'
p42
S'--'
p43
ssS'10'
p44
(dp45
g5
S'--'
p46
sg7
S'--'
p47
sg9
g10
sg11
S'--'
p48
sg13
g10
sg14
S'Ryan Hewitt'
p49
sg16
S'2015'
p50
sg18
S'10'
p51
sg20
S'--'
p52
sg22
S'11/16'
p53
sg24
S'7.0'
p54
sg26
S'--'
p55
sg28
S'--'
p56
sg30
S'L6-10'
p57
sg32
S'7'
p58
sg34
g10
sg36
S'HOU'
p59
sg38
g58
sg40
S'0'
p60
sg42
S'--'
p61
ssS'13'
p62
(dp63
g5
S'--'
p64
sg7
S'--'
p65
sg9
g10
sg11
S'--'
p66
sg13
g10
sg14
S'Ryan Hewitt'
p67
sg16
S'2015'
p68
sg18
S'13'
p69
sg20
S'--'
p70
sg22
S'12/06'
p71
sg24
S'7.0'
p72
sg26
S'--'
p73
sg28
S'--'
p74
sg30
S'W37-3'
p75
sg32
g58
sg34
g10
sg36
S'@CLE'
p76
sg38
g58
sg40
g60
sg42
S'--'
p77
ssS'12'
p78
(dp79
g5
S'--'
p80
sg7
S'--'
p81
sg9
g10
sg11
S'--'
p82
sg13
g10
sg14
S'Ryan Hewitt'
p83
sg16
S'2015'
p84
sg18
S'12'
p85
sg20
S'--'
p86
sg22
S'11/29'
p87
sg24
S'14.5'
p88
sg26
S'--'
p89
sg28
S'--'
p90
sg30
S'W31-7'
p91
sg32
S'29'
p92
sg34
S'2'
p93
sg36
S'STL'
p94
sg38
S'21'
p95
sg40
g60
sg42
S'--'
p96
ssS'15'
p97
(dp98
g5
S'--'
p99
sg7
S'--'
p100
sg9
g60
sg11
S'--'
p101
sg13
g10
sg14
S'Ryan Hewitt'
p102
sg16
S'2015'
p103
sg18
S'15'
p104
sg20
S'--'
p105
sg22
S'12/20'
p106
sg24
S'9.0'
p107
sg26
S'--'
p108
sg28
S'--'
p109
sg30
S'W24-14'
p110
sg32
S'9'
p111
sg34
g10
sg36
S'@SF'
p112
sg38
g111
sg40
g60
sg42
S'--'
p113
ssS'14'
p114
(dp115
g5
S'--'
p116
sg7
S'--'
p117
sg9
g10
sg11
S'--'
p118
sg13
g10
sg14
S'Ryan Hewitt'
p119
sg16
S'2015'
p120
sg18
S'14'
p121
sg20
S'--'
p122
sg22
S'12/13'
p123
sg24
S'9.0'
p124
sg26
S'--'
p125
sg28
S'--'
p126
sg30
S'L20-33'
p127
sg32
g111
sg34
g10
sg36
S'PIT'
p128
sg38
g111
sg40
g60
sg42
S'--'
p129
ssS'17'
p130
(dp131
g5
S'--'
p132
sg7
S'--'
p133
sg9
g60
sg11
S'--'
p134
sg13
g60
sg14
S'Ryan Hewitt'
p135
sg16
S'2015'
p136
sg18
S'17'
p137
sg20
S'--'
p138
sg22
S'01/03'
p139
sg24
S'--'
p140
sg26
S'--'
p141
sg28
S'--'
p142
sg30
S'W24-16'
p143
sg32
S'--'
p144
sg34
S'--'
p145
sg36
S'BAL'
p146
sg38
S'--'
p147
sg40
S'--'
p148
sg42
S'--'
p149
ssS'16'
p150
(dp151
g5
S'--'
p152
sg7
S'--'
p153
sg9
g10
sg11
S'--'
p154
sg13
g10
sg14
S'Ryan Hewitt'
p155
sg16
S'2015'
p156
sg18
S'16'
p157
sg20
S'--'
p158
sg22
S'12/28'
p159
sg24
S'--'
p160
sg26
S'--'
p161
sg28
S'--'
p162
sg30
S'L17-20'
p163
sg32
S'--'
p164
sg34
S'--'
p165
sg36
S'@DEN'
p166
sg38
S'--'
p167
sg40
S'--'
p168
sg42
S'--'
p169
ssg10
(dp170
g5
S'--'
p171
sg7
S'--'
p172
sg9
g10
sg11
S'--'
p173
sg13
g10
sg14
S'Ryan Hewitt'
p174
sg16
S'2015'
p175
sg18
g10
sg20
S'--'
p176
sg22
S'09/13'
p177
sg24
S'--'
p178
sg26
S'--'
p179
sg28
S'--'
p180
sg30
S'W33-13'
p181
sg32
g60
sg34
g60
sg36
S'@OAK'
p182
sg38
S'--'
p183
sg40
g60
sg42
S'--'
p184
ssS'3'
p185
(dp186
g5
S'--'
p187
sg7
S'--'
p188
sg9
g10
sg11
S'--'
p189
sg13
g10
sg14
S'Ryan Hewitt'
p190
sg16
S'2015'
p191
sg18
g185
sg20
S'--'
p192
sg22
S'09/27'
p193
sg24
S'--'
p194
sg26
S'--'
p195
sg28
S'--'
p196
sg30
S'W28-24'
p197
sg32
S'--'
p198
sg34
S'--'
p199
sg36
S'@BAL'
p200
sg38
S'--'
p201
sg40
S'--'
p202
sg42
S'--'
p203
ssg93
(dp204
g5
S'--'
p205
sg7
S'--'
p206
sg9
g10
sg11
S'--'
p207
sg13
g10
sg14
S'Ryan Hewitt'
p208
sg16
S'2015'
p209
sg18
g93
sg20
S'--'
p210
sg22
S'09/20'
p211
sg24
S'--'
p212
sg26
S'--'
p213
sg28
S'--'
p214
sg30
S'W24-19'
p215
sg32
g60
sg34
g60
sg36
S'SD'
p216
sg38
S'--'
p217
sg40
g60
sg42
S'--'
p218
ssS'5'
p219
(dp220
g5
S'--'
p221
sg7
S'--'
p222
sg9
g10
sg11
S'--'
p223
sg13
g10
sg14
S'Ryan Hewitt'
p224
sg16
S'2015'
p225
sg18
g219
sg20
S'--'
p226
sg22
S'10/11'
p227
sg24
S'--'
p228
sg26
S'--'
p229
sg28
S'--'
p230
sg30
S'W27-24'
p231
sg32
S'--'
p232
sg34
S'--'
p233
sg36
S'SEA'
p234
sg38
S'--'
p235
sg40
S'--'
p236
sg42
S'--'
p237
ssS'4'
p238
(dp239
g5
S'--'
p240
sg7
S'--'
p241
sg9
g60
sg11
S'--'
p242
sg13
g10
sg14
S'Ryan Hewitt'
p243
sg16
S'2015'
p244
sg18
g238
sg20
S'--'
p245
sg22
S'10/04'
p246
sg24
S'--'
p247
sg26
S'--'
p248
sg28
S'--'
p249
sg30
S'W36-21'
p250
sg32
S'--'
p251
sg34
S'--'
p252
sg36
S'KC'
p253
sg38
S'--'
p254
sg40
S'--'
p255
sg42
S'--'
p256
ssg58
(dp257
g5
S''
p258
sg7
g258
sg9
g258
sg11
g258
sg13
g258
sg14
S'Ryan Hewitt'
p259
sg16
S'2015'
p260
sg18
g58
sg20
g258
sg22
S'Bye'
p261
sg24
g258
sg26
g258
sg28
g258
sg30
g258
sg32
g258
sg34
g258
sg36
g258
sg38
g258
sg40
g258
sg42
g258
ssS'6'
p262
(dp263
g5
S'--'
p264
sg7
S'--'
p265
sg9
g10
sg11
S'--'
p266
sg13
g10
sg14
S'Ryan Hewitt'
p267
sg16
S'2015'
p268
sg18
g262
sg20
S'--'
p269
sg22
S'10/18'
p270
sg24
S'16.0'
p271
sg26
S'--'
p272
sg28
S'--'
p273
sg30
S'W34-21'
p274
sg32
S'16'
p275
sg34
g10
sg36
S'@BUF'
p276
sg38
S'16'
p277
sg40
g60
sg42
S'--'
p278
ssg111
(dp279
g5
S'--'
p280
sg7
S'--'
p281
sg9
g10
sg11
S'--'
p282
sg13
g10
sg14
S'Ryan Hewitt'
p283
sg16
S'2015'
p284
sg18
g111
sg20
S'--'
p285
sg22
S'11/05'
p286
sg24
S'--'
p287
sg26
S'--'
p288
sg28
S'--'
p289
sg30
S'W31-10'
p290
sg32
S'--'
p291
sg34
S'--'
p292
sg36
S'CLE'
p293
sg38
S'--'
p294
sg40
S'--'
p295
sg42
S'--'
p296
ssS'8'
p297
(dp298
g5
S'--'
p299
sg7
S'--'
p300
sg9
g60
sg11
S'--'
p301
sg13
g10
sg14
S'Ryan Hewitt'
p302
sg16
S'2015'
p303
sg18
g297
sg20
S'--'
p304
sg22
S'11/01'
p305
sg24
S'22.0'
p306
sg26
S'--'
p307
sg28
S'--'
p308
sg30
S'W16-10'
p309
sg32
S'22'
p310
sg34
g10
sg36
S'@PIT'
p311
sg38
S'22'
p312
sg40
g60
sg42
S'--'
p313
sssS'2014'
p314
(dp315
g3
(dp316
g5
S'--'
p317
sg7
S'--'
p318
sg9
g10
sg11
S'--'
p319
sg13
g10
sg14
S'Ryan Hewitt'
p320
sg16
S'2014'
p321
sg18
S'11'
p322
sg20
S'--'
p323
sg22
S'11/16'
p324
sg24
S'--'
p325
sg26
S'--'
p326
sg28
S'--'
p327
sg30
S'W27-10'
p328
sg32
S'--'
p329
sg34
S'--'
p330
sg36
S'@NO'
p331
sg38
S'--'
p332
sg40
S'--'
p333
sg42
S'--'
p334
ssg44
(dp335
g5
S'--'
p336
sg7
S'--'
p337
sg9
g10
sg11
S'--'
p338
sg13
g10
sg14
S'Ryan Hewitt'
p339
sg16
S'2014'
p340
sg18
S'10'
p341
sg20
S'--'
p342
sg22
S'11/06'
p343
sg24
S'--'
p344
sg26
S'--'
p345
sg28
S'--'
p346
sg30
S'L3-24'
p347
sg32
S'--'
p348
sg34
S'--'
p349
sg36
S'CLE'
p350
sg38
S'--'
p351
sg40
S'--'
p352
sg42
S'--'
p353
ssg62
(dp354
g5
S'--'
p355
sg7
S'--'
p356
sg9
g10
sg11
S'--'
p357
sg13
g10
sg14
S'Ryan Hewitt'
p358
sg16
S'2014'
p359
sg18
S'13'
p360
sg20
S'--'
p361
sg22
S'11/30'
p362
sg24
S'3.0'
p363
sg26
S'--'
p364
sg28
S'--'
p365
sg30
S'W14-13'
p366
sg32
g185
sg34
g10
sg36
S'@TB'
p367
sg38
g185
sg40
g60
sg42
S'--'
p368
ssg78
(dp369
g5
S'--'
p370
sg7
S'--'
p371
sg9
g10
sg11
S'--'
p372
sg13
g10
sg14
S'Ryan Hewitt'
p373
sg16
S'2014'
p374
sg18
S'12'
p375
sg20
S'--'
p376
sg22
S'11/23'
p377
sg24
S'--'
p378
sg26
S'--'
p379
sg28
S'--'
p380
sg30
S'W22-13'
p381
sg32
S'--'
p382
sg34
S'--'
p383
sg36
S'@HOU'
p384
sg38
S'--'
p385
sg40
S'--'
p386
sg42
S'--'
p387
ssg97
(dp388
g5
S'--'
p389
sg7
S'--'
p390
sg9
g10
sg11
S'--'
p391
sg13
g10
sg14
S'Ryan Hewitt'
p392
sg16
S'2014'
p393
sg18
S'15'
p394
sg20
S'--'
p395
sg22
S'12/14'
p396
sg24
S'11.3'
p397
sg26
S'--'
p398
sg28
S'--'
p399
sg30
S'W30-0'
p400
sg32
S'34'
p401
sg34
g185
sg36
S'@CLE'
p402
sg38
S'15'
p403
sg40
g60
sg42
S'--'
p404
ssg114
(dp405
g5
S'--'
p406
sg7
S'--'
p407
sg9
g10
sg11
S'--'
p408
sg13
g10
sg14
S'Ryan Hewitt'
p409
sg16
S'2014'
p410
sg18
S'14'
p411
sg20
S'--'
p412
sg22
S'12/07'
p413
sg24
S'--'
p414
sg26
S'--'
p415
sg28
S'--'
p416
sg30
S'L21-42'
p417
sg32
S'--'
p418
sg34
S'--'
p419
sg36
S'PIT'
p420
sg38
S'--'
p421
sg40
S'--'
p422
sg42
S'--'
p423
ssg130
(dp424
g5
S'--'
p425
sg7
S'--'
p426
sg9
g60
sg11
S'--'
p427
sg13
g10
sg14
S'Ryan Hewitt'
p428
sg16
S'2014'
p429
sg18
S'17'
p430
sg20
S'--'
p431
sg22
S'12/28'
p432
sg24
S'10.3'
p433
sg26
S'--'
p434
sg28
S'--'
p435
sg30
S'L17-27'
p436
sg32
S'31'
p437
sg34
g185
sg36
S'@PIT'
p438
sg38
S'19'
p439
sg40
g60
sg42
S'--'
p440
ssg150
(dp441
g5
S'--'
p442
sg7
S'--'
p443
sg9
g10
sg11
S'--'
p444
sg13
g10
sg14
S'Ryan Hewitt'
p445
sg16
S'2014'
p446
sg18
S'16'
p447
sg20
S'--'
p448
sg22
S'12/22'
p449
sg24
S'--'
p450
sg26
S'--'
p451
sg28
S'--'
p452
sg30
S'W37-28'
p453
sg32
S'--'
p454
sg34
S'--'
p455
sg36
S'DEN'
p456
sg38
S'--'
p457
sg40
S'--'
p458
sg42
S'--'
p459
ssg10
(dp460
g5
S'--'
p461
sg7
S'--'
p462
sg9
g10
sg11
S'--'
p463
sg13
g10
sg14
S'Ryan Hewitt'
p464
sg16
S'2014'
p465
sg18
g10
sg20
S'--'
p466
sg22
S'09/07'
p467
sg24
S'--'
p468
sg26
S'--'
p469
sg28
S'--'
p470
sg30
S'W23-16'
p471
sg32
S'--'
p472
sg34
S'--'
p473
sg36
S'@BAL'
p474
sg38
S'--'
p475
sg40
S'--'
p476
sg42
S'--'
p477
ssg185
(dp478
g5
g60
sg7
g60
sg9
g60
sg11
S'--'
p479
sg13
g10
sg14
S'Ryan Hewitt'
p480
sg16
S'2014'
p481
sg18
g185
sg20
S'0.0'
p482
sg22
S'09/21'
p483
sg24
S'6.0'
p484
sg26
S'--'
p485
sg28
g10
sg30
S'W33-7'
p486
sg32
g262
sg34
g10
sg36
S'TEN'
p487
sg38
g262
sg40
g60
sg42
g60
ssg93
(dp488
g5
S'--'
p489
sg7
S'--'
p490
sg9
g10
sg11
S'--'
p491
sg13
g10
sg14
S'Ryan Hewitt'
p492
sg16
S'2014'
p493
sg18
g93
sg20
S'--'
p494
sg22
S'09/14'
p495
sg24
S'--'
p496
sg26
S'--'
p497
sg28
S'--'
p498
sg30
S'W24-10'
p499
sg32
S'--'
p500
sg34
S'--'
p501
sg36
S'ATL'
p502
sg38
S'--'
p503
sg40
S'--'
p504
sg42
S'--'
p505
ssg219
(dp506
g5
S'--'
p507
sg7
S'--'
p508
sg9
g10
sg11
S'--'
p509
sg13
g10
sg14
S'Ryan Hewitt'
p510
sg16
S'2014'
p511
sg18
g219
sg20
S'--'
p512
sg22
S'10/05'
p513
sg24
S'--'
p514
sg26
S'--'
p515
sg28
S'--'
p516
sg30
S'L17-43'
p517
sg32
S'--'
p518
sg34
S'--'
p519
sg36
S'@NE'
p520
sg38
S'--'
p521
sg40
S'--'
p522
sg42
S'--'
p523
ssg238
(dp524
g5
g258
sg7
g258
sg9
g258
sg11
g258
sg13
g258
sg14
S'Ryan Hewitt'
p525
sg16
S'2014'
p526
sg18
g238
sg20
g258
sg22
S'Bye'
p527
sg24
g258
sg26
g258
sg28
g258
sg30
g258
sg32
g258
sg34
g258
sg36
g258
sg38
g258
sg40
g258
sg42
g258
ssg58
(dp528
g5
S'--'
p529
sg7
S'--'
p530
sg9
g60
sg11
S'--'
p531
sg13
g10
sg14
S'Ryan Hewitt'
p532
sg16
S'2014'
p533
sg18
g58
sg20
S'--'
p534
sg22
S'10/19'
p535
sg24
S'--'
p536
sg26
S'--'
p537
sg28
S'--'
p538
sg30
S'L0-27'
p539
sg32
S'--'
p540
sg34
S'--'
p541
sg36
S'@IND'
p542
sg38
S'--'
p543
sg40
S'--'
p544
sg42
S'--'
p545
ssg262
(dp546
g5
S'--'
p547
sg7
S'--'
p548
sg9
g60
sg11
S'--'
p549
sg13
g10
sg14
S'Ryan Hewitt'
p550
sg16
S'2014'
p551
sg18
g262
sg20
S'--'
p552
sg22
S'10/12'
p553
sg24
S'--'
p554
sg26
S'--'
p555
sg28
S'--'
p556
sg30
S'T37-37'
p557
sg32
S'--'
p558
sg34
S'--'
p559
sg36
S'CAR'
p560
sg38
S'--'
p561
sg40
S'--'
p562
sg42
S'--'
p563
ssg111
(dp564
g5
S'--'
p565
sg7
S'--'
p566
sg9
g60
sg11
S'--'
p567
sg13
g10
sg14
S'Ryan Hewitt'
p568
sg16
S'2014'
p569
sg18
g111
sg20
S'--'
p570
sg22
S'11/02'
p571
sg24
S'7.0'
p572
sg26
S'--'
p573
sg28
S'--'
p574
sg30
S'W33-23'
p575
sg32
g58
sg34
g10
sg36
S'JAC'
p576
sg38
g58
sg40
g60
sg42
S'--'
p577
ssg297
(dp578
g5
S'--'
p579
sg7
S'--'
p580
sg9
g10
sg11
S'--'
p581
sg13
g10
sg14
S'Ryan Hewitt'
p582
sg16
S'2014'
p583
sg18
g297
sg20
S'--'
p584
sg22
S'10/26'
p585
sg24
S'5.0'
p586
sg26
S'--'
p587
sg28
S'--'
p588
sg30
S'W27-24'
p589
sg32
g219
sg34
g10
sg36
S'BAL'
p590
sg38
g219
sg40
g60
sg42
S'--'
p591
sss.