(dp0
S'2015'
p1
(dp2
S'11'
p3
(dp4
S'RushTD'
p5
S'--'
p6
sS'RushYds'
p7
S'--'
p8
sS'GS'
p9
S'0'
p10
sS'Lost'
p11
S'--'
p12
sS'G'
p13
S'1'
p14
sS'Player'
p15
S'Ryan Griffin'
p16
sS'Year'
p17
S'2015'
p18
sS'WK'
p19
S'11'
p20
sS'RushAvg'
p21
S'--'
p22
sS'Game Date'
p23
S'11/22'
p24
sS'RecAvg'
p25
S'3.0'
p26
sS'FUM'
p27
S'--'
p28
sS'RushAtt'
p29
S'--'
p30
sS'Result'
p31
S'W24-17'
p32
sS'RecYds'
p33
S'6'
p34
sS'Rec'
p35
S'2'
p36
sS'Opp'
p37
S'NYJ'
p38
sS'RecLng'
p39
S'7'
p40
sS'RecTD'
p41
g10
sS'RushLng'
p42
S'--'
p43
ssS'10'
p44
(dp45
g5
S'--'
p46
sg7
S'--'
p47
sg9
g14
sg11
S'--'
p48
sg13
g14
sg15
S'Ryan Griffin'
p49
sg17
S'2015'
p50
sg19
S'10'
p51
sg21
S'--'
p52
sg23
S'11/16'
p53
sg25
S'12.0'
p54
sg27
S'--'
p55
sg29
S'--'
p56
sg31
S'W10-6'
p57
sg33
S'36'
p58
sg35
S'3'
p59
sg37
S'@CIN'
p60
sg39
S'15'
p61
sg41
g10
sg42
S'--'
p62
ssS'13'
p63
(dp64
g5
S'--'
p65
sg7
S'--'
p66
sg9
g10
sg11
S'--'
p67
sg13
g14
sg15
S'Ryan Griffin'
p68
sg17
S'2015'
p69
sg19
S'13'
p70
sg21
S'--'
p71
sg23
S'12/06'
p72
sg25
S'9.7'
p73
sg27
S'--'
p74
sg29
S'--'
p75
sg31
S'L21-30'
p76
sg33
S'29'
p77
sg35
g59
sg37
S'@BUF'
p78
sg39
S'14'
p79
sg41
g14
sg42
S'--'
p80
ssS'12'
p81
(dp82
g5
S'--'
p83
sg7
S'--'
p84
sg9
g10
sg11
S'--'
p85
sg13
g14
sg15
S'Ryan Griffin'
p86
sg17
S'2015'
p87
sg19
S'12'
p88
sg21
S'--'
p89
sg23
S'11/29'
p90
sg25
S'18.0'
p91
sg27
S'--'
p92
sg29
S'--'
p93
sg31
S'W24-6'
p94
sg33
S'72'
p95
sg35
S'4'
p96
sg37
S'NO'
p97
sg39
S'37'
p98
sg41
g14
sg42
S'--'
p99
ssS'15'
p100
(dp101
g5
S'--'
p102
sg7
S'--'
p103
sg9
g10
sg11
S'--'
p104
sg13
g14
sg15
S'Ryan Griffin'
p105
sg17
S'2015'
p106
sg19
S'15'
p107
sg21
S'--'
p108
sg23
S'12/20'
p109
sg25
S'15.0'
p110
sg27
S'--'
p111
sg29
S'--'
p112
sg31
S'W16-10'
p113
sg33
S'30'
p114
sg35
g36
sg37
S'@IND'
p115
sg39
S'22'
p116
sg41
g10
sg42
S'--'
p117
ssS'14'
p118
(dp119
g5
S'--'
p120
sg7
S'--'
p121
sg9
g10
sg11
S'--'
p122
sg13
g14
sg15
S'Ryan Griffin'
p123
sg17
S'2015'
p124
sg19
S'14'
p125
sg21
S'--'
p126
sg23
S'12/13'
p127
sg25
S'20.0'
p128
sg27
S'--'
p129
sg29
S'--'
p130
sg31
S'L6-27'
p131
sg33
S'20'
p132
sg35
g14
sg37
S'NE'
p133
sg39
S'20'
p134
sg41
g10
sg42
S'--'
p135
ssS'17'
p136
(dp137
g5
S'--'
p138
sg7
S'--'
p139
sg9
g14
sg11
S'--'
p140
sg13
g14
sg15
S'Ryan Griffin'
p141
sg17
S'2015'
p142
sg19
S'17'
p143
sg21
S'--'
p144
sg23
S'01/03'
p145
sg25
S'9.0'
p146
sg27
S'--'
p147
sg29
S'--'
p148
sg31
S'W30-6'
p149
sg33
S'27'
p150
sg35
g59
sg37
S'JAC'
p151
sg39
S'12'
p152
sg41
g10
sg42
S'--'
p153
ssS'16'
p154
(dp155
g5
S'--'
p156
sg7
S'--'
p157
sg9
g14
sg11
S'--'
p158
sg13
g14
sg15
S'Ryan Griffin'
p159
sg17
S'2015'
p160
sg19
S'16'
p161
sg21
S'--'
p162
sg23
S'12/27'
p163
sg25
S'13.0'
p164
sg27
S'--'
p165
sg29
S'--'
p166
sg31
S'W34-6'
p167
sg33
S'13'
p168
sg35
g14
sg37
S'@TEN'
p169
sg39
S'13'
p170
sg41
g10
sg42
S'--'
p171
ssg14
(dp172
g5
S'--'
p173
sg7
S'--'
p174
sg9
g14
sg11
S'--'
p175
sg13
g14
sg15
S'Ryan Griffin'
p176
sg17
S'2015'
p177
sg19
g14
sg21
S'--'
p178
sg23
S'09/13'
p179
sg25
S'18.0'
p180
sg27
S'--'
p181
sg29
S'--'
p182
sg31
S'L20-27'
p183
sg33
S'18'
p184
sg35
g14
sg37
S'KC'
p185
sg39
S'18'
p186
sg41
g10
sg42
S'--'
p187
ssS'9'
p188
(dp189
g5
S''
p190
sg7
g190
sg9
g190
sg11
g190
sg13
g190
sg15
S'Ryan Griffin'
p191
sg17
S'2015'
p192
sg19
g188
sg21
g190
sg23
S'Bye'
p193
sg25
g190
sg27
g190
sg29
g190
sg31
g190
sg33
g190
sg35
g190
sg37
g190
sg39
g190
sg41
g190
sg42
g190
sssS'2014'
p194
(dp195
g3
(dp196
g5
S'--'
p197
sg7
S'--'
p198
sg9
g10
sg11
S'--'
p199
sg13
g14
sg15
S'Ryan Griffin'
p200
sg17
S'2014'
p201
sg19
S'11'
p202
sg21
S'--'
p203
sg23
S'11/16'
p204
sg25
S'--'
p205
sg27
S'--'
p206
sg29
S'--'
p207
sg31
S'W23-7'
p208
sg33
S'--'
p209
sg35
S'--'
p210
sg37
S'@CLE'
p211
sg39
S'--'
p212
sg41
S'--'
p213
sg42
S'--'
p214
ssg44
(dp215
g5
g190
sg7
g190
sg9
g190
sg11
g190
sg13
g190
sg15
S'Ryan Griffin'
p216
sg17
S'2014'
p217
sg19
S'10'
p218
sg21
g190
sg23
S'Bye'
p219
sg25
g190
sg27
g190
sg29
g190
sg31
g190
sg33
g190
sg35
g190
sg37
g190
sg39
g190
sg41
g190
sg42
g190
ssg63
(dp220
g5
S'--'
p221
sg7
S'--'
p222
sg9
g10
sg11
S'--'
p223
sg13
g14
sg15
S'Ryan Griffin'
p224
sg17
S'2014'
p225
sg19
S'13'
p226
sg21
S'--'
p227
sg23
S'11/30'
p228
sg25
S'8.0'
p229
sg27
S'--'
p230
sg29
S'--'
p231
sg31
S'W45-21'
p232
sg33
S'8'
p233
sg35
g14
sg37
S'TEN'
p234
sg39
S'8T'
p235
sg41
g14
sg42
S'--'
p236
ssg81
(dp237
g5
S'--'
p238
sg7
S'--'
p239
sg9
g10
sg11
S'--'
p240
sg13
g14
sg15
S'Ryan Griffin'
p241
sg17
S'2014'
p242
sg19
S'12'
p243
sg21
S'--'
p244
sg23
S'11/23'
p245
sg25
S'--'
p246
sg27
S'--'
p247
sg29
S'--'
p248
sg31
S'L13-22'
p249
sg33
g10
sg35
g10
sg37
S'CIN'
p250
sg39
S'--'
p251
sg41
g10
sg42
S'--'
p252
ssg100
(dp253
g5
S'--'
p254
sg7
S'--'
p255
sg9
g14
sg11
S'--'
p256
sg13
g14
sg15
S'Ryan Griffin'
p257
sg17
S'2014'
p258
sg19
S'15'
p259
sg21
S'--'
p260
sg23
S'12/14'
p261
sg25
S'5.5'
p262
sg27
S'--'
p263
sg29
S'--'
p264
sg31
S'L10-17'
p265
sg33
S'11'
p266
sg35
g36
sg37
S'@IND'
p267
sg39
g233
sg41
g10
sg42
S'--'
p268
ssg118
(dp269
g5
S'--'
p270
sg7
S'--'
p271
sg9
g10
sg11
S'--'
p272
sg13
g14
sg15
S'Ryan Griffin'
p273
sg17
S'2014'
p274
sg19
S'14'
p275
sg21
S'--'
p276
sg23
S'12/07'
p277
sg25
S'25.0'
p278
sg27
S'--'
p279
sg29
S'--'
p280
sg31
S'W27-13'
p281
sg33
S'25'
p282
sg35
g14
sg37
S'@JAC'
p283
sg39
S'25'
p284
sg41
g10
sg42
S'--'
p285
ssg136
(dp286
g5
S'--'
p287
sg7
S'--'
p288
sg9
g14
sg11
S'--'
p289
sg13
g14
sg15
S'Ryan Griffin'
p290
sg17
S'2014'
p291
sg19
S'17'
p292
sg21
S'--'
p293
sg23
S'12/28'
p294
sg25
S'8.0'
p295
sg27
S'--'
p296
sg29
S'--'
p297
sg31
S'W23-17'
p298
sg33
g233
sg35
g14
sg37
S'JAC'
p299
sg39
g233
sg41
g10
sg42
S'--'
p300
ssg154
(dp301
g5
S'--'
p302
sg7
S'--'
p303
sg9
g10
sg11
S'--'
p304
sg13
g14
sg15
S'Ryan Griffin'
p305
sg17
S'2014'
p306
sg19
S'16'
p307
sg21
S'--'
p308
sg23
S'12/21'
p309
sg25
S'8.3'
p310
sg27
S'--'
p311
sg29
S'--'
p312
sg31
S'W25-13'
p313
sg33
S'25'
p314
sg35
g59
sg37
S'BAL'
p315
sg39
S'11'
p316
sg41
g10
sg42
S'--'
p317
ssg14
(dp318
g5
S'--'
p319
sg7
S'--'
p320
sg9
g10
sg11
S'--'
p321
sg13
g14
sg15
S'Ryan Griffin'
p322
sg17
S'2014'
p323
sg19
g14
sg21
S'--'
p324
sg23
S'09/07'
p325
sg25
S'6.0'
p326
sg27
S'--'
p327
sg29
S'--'
p328
sg31
S'W17-6'
p329
sg33
g34
sg35
g14
sg37
S'WAS'
p330
sg39
g34
sg41
g10
sg42
S'--'
p331
ssg59
(dp332
g5
S'--'
p333
sg7
S'--'
p334
sg9
g10
sg11
S'--'
p335
sg13
g14
sg15
S'Ryan Griffin'
p336
sg17
S'2014'
p337
sg19
g59
sg21
S'--'
p338
sg23
S'09/21'
p339
sg25
S'--'
p340
sg27
S'--'
p341
sg29
S'--'
p342
sg31
S'L17-30'
p343
sg33
S'--'
p344
sg35
S'--'
p345
sg37
S'@NYG'
p346
sg39
S'--'
p347
sg41
S'--'
p348
sg42
S'--'
p349
ssg36
(dp350
g5
S'--'
p351
sg7
S'--'
p352
sg9
g10
sg11
S'--'
p353
sg13
g14
sg15
S'Ryan Griffin'
p354
sg17
S'2014'
p355
sg19
g36
sg21
S'--'
p356
sg23
S'09/14'
p357
sg25
S'--'
p358
sg27
S'--'
p359
sg29
S'--'
p360
sg31
S'W30-14'
p361
sg33
S'--'
p362
sg35
S'--'
p363
sg37
S'@OAK'
p364
sg39
S'--'
p365
sg41
S'--'
p366
sg42
S'--'
p367
ssS'5'
p368
(dp369
g5
S'--'
p370
sg7
S'--'
p371
sg9
g10
sg11
S'--'
p372
sg13
g14
sg15
S'Ryan Griffin'
p373
sg17
S'2014'
p374
sg19
g368
sg21
S'--'
p375
sg23
S'10/05'
p376
sg25
S'8.0'
p377
sg27
S'--'
p378
sg29
S'--'
p379
sg31
S'L17-20'
p380
sg33
g233
sg35
g14
sg37
S'@DAL'
p381
sg39
g233
sg41
g10
sg42
S'--'
p382
ssg96
(dp383
g5
S'--'
p384
sg7
S'--'
p385
sg9
g10
sg11
S'--'
p386
sg13
g14
sg15
S'Ryan Griffin'
p387
sg17
S'2014'
p388
sg19
g96
sg21
S'--'
p389
sg23
S'09/28'
p390
sg25
S'--'
p391
sg27
S'--'
p392
sg29
S'--'
p393
sg31
S'W23-17'
p394
sg33
S'--'
p395
sg35
S'--'
p396
sg37
S'BUF'
p397
sg39
S'--'
p398
sg41
S'--'
p399
sg42
S'--'
p400
ssg40
(dp401
g5
S'--'
p402
sg7
S'--'
p403
sg9
g10
sg11
S'--'
p404
sg13
g14
sg15
S'Ryan Griffin'
p405
sg17
S'2014'
p406
sg19
g40
sg21
S'--'
p407
sg23
S'10/20'
p408
sg25
S'--'
p409
sg27
S'--'
p410
sg29
S'--'
p411
sg31
S'L23-30'
p412
sg33
S'--'
p413
sg35
S'--'
p414
sg37
S'@PIT'
p415
sg39
S'--'
p416
sg41
S'--'
p417
sg42
S'--'
p418
ssg34
(dp419
g5
S'--'
p420
sg7
S'--'
p421
sg9
g10
sg11
S'--'
p422
sg13
g14
sg15
S'Ryan Griffin'
p423
sg17
S'2014'
p424
sg19
g34
sg21
S'--'
p425
sg23
S'10/09'
p426
sg25
S'--'
p427
sg27
S'--'
p428
sg29
S'--'
p429
sg31
S'L28-33'
p430
sg33
S'--'
p431
sg35
S'--'
p432
sg37
S'IND'
p433
sg39
S'--'
p434
sg41
S'--'
p435
sg42
S'--'
p436
ssg188
(dp437
g5
S'--'
p438
sg7
S'--'
p439
sg9
g10
sg11
S'--'
p440
sg13
g14
sg15
S'Ryan Griffin'
p441
sg17
S'2014'
p442
sg19
g188
sg21
S'--'
p443
sg23
S'11/02'
p444
sg25
S'--'
p445
sg27
S'--'
p446
sg29
S'--'
p447
sg31
S'L21-31'
p448
sg33
S'--'
p449
sg35
S'--'
p450
sg37
S'PHI'
p451
sg39
S'--'
p452
sg41
S'--'
p453
sg42
S'--'
p454
ssg233
(dp455
g5
S'--'
p456
sg7
S'--'
p457
sg9
g10
sg11
S'--'
p458
sg13
g14
sg15
S'Ryan Griffin'
p459
sg17
S'2014'
p460
sg19
g233
sg21
S'--'
p461
sg23
S'10/26'
p462
sg25
S'--'
p463
sg27
S'--'
p464
sg29
S'--'
p465
sg31
S'W30-16'
p466
sg33
S'--'
p467
sg35
S'--'
p468
sg37
S'@TEN'
p469
sg39
S'--'
p470
sg41
S'--'
p471
sg42
S'--'
p472
sssS'2013'
p473
(dp474
g3
(dp475
g5
S'--'
p476
sg7
S'--'
p477
sg9
g10
sg11
S'--'
p478
sg13
g10
sg15
S'Ryan Griffin'
p479
sg17
S'2013'
p480
sg19
S'11'
p481
sg21
S'--'
p482
sg23
S'11/17'
p483
sg25
S'--'
p484
sg27
S'--'
p485
sg29
S'--'
p486
sg31
S'L23-28'
p487
sg33
S'--'
p488
sg35
S'--'
p489
sg37
S'OAK'
p490
sg39
S'--'
p491
sg41
S'--'
p492
sg42
S'--'
p493
ssg44
(dp494
g5
S'--'
p495
sg7
S'--'
p496
sg9
g14
sg11
S'--'
p497
sg13
g14
sg15
S'Ryan Griffin'
p498
sg17
S'2013'
p499
sg19
S'10'
p500
sg21
S'--'
p501
sg23
S'11/10'
p502
sg25
S'2.0'
p503
sg27
S'--'
p504
sg29
S'--'
p505
sg31
S'L24-27'
p506
sg33
g36
sg35
g14
sg37
S'@ARI'
p507
sg39
S'2T'
p508
sg41
g14
sg42
S'--'
p509
ssg63
(dp510
g5
S'--'
p511
sg7
S'--'
p512
sg9
g10
sg11
S'--'
p513
sg13
g14
sg15
S'Ryan Griffin'
p514
sg17
S'2013'
p515
sg19
S'13'
p516
sg21
S'--'
p517
sg23
S'12/01'
p518
sg25
S'--'
p519
sg27
S'--'
p520
sg29
S'--'
p521
sg31
S'L31-34'
p522
sg33
S'--'
p523
sg35
S'--'
p524
sg37
S'NE'
p525
sg39
S'--'
p526
sg41
S'--'
p527
sg42
S'--'
p528
ssg81
(dp529
g5
S'--'
p530
sg7
S'--'
p531
sg9
g14
sg11
S'--'
p532
sg13
g14
sg15
S'Ryan Griffin'
p533
sg17
S'2013'
p534
sg19
S'12'
p535
sg21
S'--'
p536
sg23
S'11/24'
p537
sg25
S'37.0'
p538
sg27
S'--'
p539
sg29
S'--'
p540
sg31
S'L6-13'
p541
sg33
S'37'
p542
sg35
g14
sg37
S'JAC'
p543
sg39
S'37'
p544
sg41
g10
sg42
S'--'
p545
ssg100
(dp546
g5
S'--'
p547
sg7
S'--'
p548
sg9
g14
sg11
S'--'
p549
sg13
g14
sg15
S'Ryan Griffin'
p550
sg17
S'2013'
p551
sg19
S'15'
p552
sg21
S'--'
p553
sg23
S'12/15'
p554
sg25
S'10.3'
p555
sg27
S'--'
p556
sg29
S'--'
p557
sg31
S'L3-25'
p558
sg33
S'62'
p559
sg35
g34
sg37
S'@IND'
p560
sg39
S'22'
p561
sg41
g10
sg42
S'--'
p562
ssg118
(dp563
g5
S'--'
p564
sg7
S'--'
p565
sg9
g14
sg11
S'--'
p566
sg13
g14
sg15
S'Ryan Griffin'
p567
sg17
S'2013'
p568
sg19
S'14'
p569
sg21
S'--'
p570
sg23
S'12/05'
p571
sg25
S'10.0'
p572
sg27
S'--'
p573
sg29
S'--'
p574
sg31
S'L20-27'
p575
sg33
S'10'
p576
sg35
g14
sg37
S'@JAC'
p577
sg39
S'10'
p578
sg41
g10
sg42
S'--'
p579
ssg136
(dp580
g5
S'--'
p581
sg7
S'--'
p582
sg9
g14
sg11
S'--'
p583
sg13
g14
sg15
S'Ryan Griffin'
p584
sg17
S'2013'
p585
sg19
S'17'
p586
sg21
S'--'
p587
sg23
S'12/29'
p588
sg25
S'16.3'
p589
sg27
S'--'
p590
sg29
S'--'
p591
sg31
S'L10-16'
p592
sg33
S'49'
p593
sg35
g59
sg37
S'@TEN'
p594
sg39
S'18'
p595
sg41
g10
sg42
S'--'
p596
ssg154
(dp597
g5
S'--'
p598
sg7
S'--'
p599
sg9
g14
sg11
S'--'
p600
sg13
g14
sg15
S'Ryan Griffin'
p601
sg17
S'2013'
p602
sg19
S'16'
p603
sg21
S'--'
p604
sg23
S'12/22'
p605
sg25
S'13.2'
p606
sg27
S'--'
p607
sg29
S'--'
p608
sg31
S'L13-37'
p609
sg33
S'66'
p610
sg35
g368
sg37
S'DEN'
p611
sg39
S'40'
p612
sg41
g10
sg42
S'--'
p613
ssg14
(dp614
g5
S'--'
p615
sg7
S'--'
p616
sg9
g10
sg11
S'--'
p617
sg13
g14
sg15
S'Ryan Griffin'
p618
sg17
S'2013'
p619
sg19
g14
sg21
S'--'
p620
sg23
S'09/09'
p621
sg25
S'--'
p622
sg27
S'--'
p623
sg29
S'--'
p624
sg31
S'W31-28'
p625
sg33
S'--'
p626
sg35
S'--'
p627
sg37
S'@SD'
p628
sg39
S'--'
p629
sg41
S'--'
p630
sg42
S'--'
p631
ssg59
(dp632
g5
S'--'
p633
sg7
S'--'
p634
sg9
g10
sg11
S'--'
p635
sg13
g14
sg15
S'Ryan Griffin'
p636
sg17
S'2013'
p637
sg19
g59
sg21
S'--'
p638
sg23
S'09/22'
p639
sg25
S'--'
p640
sg27
S'--'
p641
sg29
S'--'
p642
sg31
S'L9-30'
p643
sg33
S'--'
p644
sg35
S'--'
p645
sg37
S'@BAL'
p646
sg39
S'--'
p647
sg41
S'--'
p648
sg42
S'--'
p649
ssg36
(dp650
g5
S'--'
p651
sg7
S'--'
p652
sg9
g10
sg11
S'--'
p653
sg13
g14
sg15
S'Ryan Griffin'
p654
sg17
S'2013'
p655
sg19
g36
sg21
S'--'
p656
sg23
S'09/15'
p657
sg25
S'--'
p658
sg27
S'--'
p659
sg29
S'--'
p660
sg31
S'W30-24'
p661
sg33
S'--'
p662
sg35
S'--'
p663
sg37
S'TEN'
p664
sg39
S'--'
p665
sg41
S'--'
p666
sg42
S'--'
p667
ssg368
(dp668
g5
S'--'
p669
sg7
S'--'
p670
sg9
g10
sg11
S'--'
p671
sg13
g14
sg15
S'Ryan Griffin'
p672
sg17
S'2013'
p673
sg19
g368
sg21
S'--'
p674
sg23
S'10/06'
p675
sg25
S'--'
p676
sg27
S'--'
p677
sg29
S'--'
p678
sg31
S'L3-34'
p679
sg33
S'--'
p680
sg35
S'--'
p681
sg37
S'@SF'
p682
sg39
S'--'
p683
sg41
S'--'
p684
sg42
S'--'
p685
ssg96
(dp686
g5
S'--'
p687
sg7
S'--'
p688
sg9
g10
sg11
S'--'
p689
sg13
g14
sg15
S'Ryan Griffin'
p690
sg17
S'2013'
p691
sg19
g96
sg21
S'--'
p692
sg23
S'09/29'
p693
sg25
S'--'
p694
sg27
S'--'
p695
sg29
S'--'
p696
sg31
S'L20-23'
p697
sg33
g10
sg35
g10
sg37
S'SEA'
p698
sg39
S'--'
p699
sg41
g10
sg42
S'--'
p700
ssg40
(dp701
g5
S'--'
p702
sg7
S'--'
p703
sg9
g14
sg11
S'--'
p704
sg13
g14
sg15
S'Ryan Griffin'
p705
sg17
S'2013'
p706
sg19
g40
sg21
S'--'
p707
sg23
S'10/20'
p708
sg25
S'--'
p709
sg27
S'--'
p710
sg29
S'--'
p711
sg31
S'L16-17'
p712
sg33
S'--'
p713
sg35
S'--'
p714
sg37
S'@KC'
p715
sg39
S'--'
p716
sg41
S'--'
p717
sg42
S'--'
p718
ssg34
(dp719
g5
S'--'
p720
sg7
S'--'
p721
sg9
g10
sg11
S'--'
p722
sg13
g14
sg15
S'Ryan Griffin'
p723
sg17
S'2013'
p724
sg19
g34
sg21
S'--'
p725
sg23
S'10/13'
p726
sg25
S'9.0'
p727
sg27
S'--'
p728
sg29
S'--'
p729
sg31
S'L13-38'
p730
sg33
S'18'
p731
sg35
g36
sg37
S'STL'
p732
sg39
S'10'
p733
sg41
g10
sg42
S'--'
p734
ssg188
(dp735
g5
S'--'
p736
sg7
S'--'
p737
sg9
g14
sg11
S'--'
p738
sg13
g14
sg15
S'Ryan Griffin'
p739
sg17
S'2013'
p740
sg19
g188
sg21
S'--'
p741
sg23
S'11/03'
p742
sg25
S'--'
p743
sg27
S'--'
p744
sg29
S'--'
p745
sg31
S'L24-27'
p746
sg33
S'--'
p747
sg35
S'--'
p748
sg37
S'IND'
p749
sg39
S'--'
p750
sg41
S'--'
p751
sg42
S'--'
p752
ssg233
(dp753
g5
g190
sg7
g190
sg9
g190
sg11
g190
sg13
g190
sg15
S'Ryan Griffin'
p754
sg17
S'2013'
p755
sg19
g233
sg21
g190
sg23
S'Bye'
p756
sg25
g190
sg27
g190
sg29
g190
sg31
g190
sg33
g190
sg35
g190
sg37
g190
sg39
g190
sg41
g190
sg42
g190
sss.