(dp0
S'2015'
p1
(dp2
S'11'
p3
(dp4
S'RushTD'
p5
S'--'
p6
sS'RushYds'
p7
S'--'
p8
sS'GS'
p9
S'0'
p10
sS'Lost'
p11
S'--'
p12
sS'G'
p13
S'1'
p14
sS'Player'
p15
S'Scott Simonson'
p16
sS'Year'
p17
S'2015'
p18
sS'WK'
p19
S'11'
p20
sS'RushAvg'
p21
S'--'
p22
sS'Game Date'
p23
S'11/22'
p24
sS'RecAvg'
p25
S'--'
p26
sS'FUM'
p27
S'--'
p28
sS'RushAtt'
p29
S'--'
p30
sS'Result'
p31
S'W44-16'
p32
sS'RecYds'
p33
S'--'
p34
sS'Rec'
p35
S'--'
p36
sS'Opp'
p37
S'WAS'
p38
sS'RecLng'
p39
S'--'
p40
sS'RecTD'
p41
S'--'
p42
sS'RushLng'
p43
S'--'
p44
ssS'10'
p45
(dp46
g5
S'--'
p47
sg7
S'--'
p48
sg9
g10
sg11
S'--'
p49
sg13
g14
sg15
S'Scott Simonson'
p50
sg17
S'2015'
p51
sg19
S'10'
p52
sg21
S'--'
p53
sg23
S'11/15'
p54
sg25
S'--'
p55
sg27
S'--'
p56
sg29
S'--'
p57
sg31
S'W27-10'
p58
sg33
S'--'
p59
sg35
S'--'
p60
sg37
S'@TEN'
p61
sg39
S'--'
p62
sg41
S'--'
p63
sg43
S'--'
p64
ssS'13'
p65
(dp66
g5
S'--'
p67
sg7
S'--'
p68
sg9
g10
sg11
S'--'
p69
sg13
g14
sg15
S'Scott Simonson'
p70
sg17
S'2015'
p71
sg19
S'13'
p72
sg21
S'--'
p73
sg23
S'12/06'
p74
sg25
S'--'
p75
sg27
S'--'
p76
sg29
S'--'
p77
sg31
S'W41-38'
p78
sg33
S'--'
p79
sg35
S'--'
p80
sg37
S'@NO'
p81
sg39
S'--'
p82
sg41
S'--'
p83
sg43
S'--'
p84
ssS'12'
p85
(dp86
g5
S'--'
p87
sg7
S'--'
p88
sg9
g10
sg11
S'--'
p89
sg13
g14
sg15
S'Scott Simonson'
p90
sg17
S'2015'
p91
sg19
S'12'
p92
sg21
S'--'
p93
sg23
S'11/26'
p94
sg25
S'--'
p95
sg27
S'--'
p96
sg29
S'--'
p97
sg31
S'W33-14'
p98
sg33
S'--'
p99
sg35
S'--'
p100
sg37
S'@DAL'
p101
sg39
S'--'
p102
sg41
S'--'
p103
sg43
S'--'
p104
ssS'15'
p105
(dp106
g5
S'--'
p107
sg7
S'--'
p108
sg9
g10
sg11
S'--'
p109
sg13
g14
sg15
S'Scott Simonson'
p110
sg17
S'2015'
p111
sg19
S'15'
p112
sg21
S'--'
p113
sg23
S'12/20'
p114
sg25
S'--'
p115
sg27
S'--'
p116
sg29
S'--'
p117
sg31
S'W38-35'
p118
sg33
S'--'
p119
sg35
S'--'
p120
sg37
S'@NYG'
p121
sg39
S'--'
p122
sg41
S'--'
p123
sg43
S'--'
p124
ssS'14'
p125
(dp126
g5
S'--'
p127
sg7
S'--'
p128
sg9
g10
sg11
S'--'
p129
sg13
g14
sg15
S'Scott Simonson'
p130
sg17
S'2015'
p131
sg19
S'14'
p132
sg21
S'--'
p133
sg23
S'12/13'
p134
sg25
S'10.0'
p135
sg27
S'--'
p136
sg29
S'--'
p137
sg31
S'W38-0'
p138
sg33
S'10'
p139
sg35
g14
sg37
S'ATL'
p140
sg39
S'10'
p141
sg41
g10
sg43
S'--'
p142
ssS'17'
p143
(dp144
g5
S'--'
p145
sg7
S'--'
p146
sg9
g10
sg11
S'--'
p147
sg13
g14
sg15
S'Scott Simonson'
p148
sg17
S'2015'
p149
sg19
S'17'
p150
sg21
S'--'
p151
sg23
S'01/03'
p152
sg25
S'--'
p153
sg27
S'--'
p154
sg29
S'--'
p155
sg31
S'W38-10'
p156
sg33
S'--'
p157
sg35
S'--'
p158
sg37
S'TB'
p159
sg39
S'--'
p160
sg41
S'--'
p161
sg43
S'--'
p162
ssS'16'
p163
(dp164
g5
S'--'
p165
sg7
S'--'
p166
sg9
g10
sg11
S'--'
p167
sg13
g14
sg15
S'Scott Simonson'
p168
sg17
S'2015'
p169
sg19
S'16'
p170
sg21
S'--'
p171
sg23
S'12/27'
p172
sg25
S'--'
p173
sg27
S'--'
p174
sg29
S'--'
p175
sg31
S'L13-20'
p176
sg33
S'--'
p177
sg35
S'--'
p178
sg37
S'@ATL'
p179
sg39
S'--'
p180
sg41
S'--'
p181
sg43
S'--'
p182
ssS'7'
p183
(dp184
g5
S'--'
p185
sg7
S'--'
p186
sg9
g10
sg11
S'--'
p187
sg13
g10
sg15
S'Scott Simonson'
p188
sg17
S'2015'
p189
sg19
g183
sg21
S'--'
p190
sg23
S'10/25'
p191
sg25
S'--'
p192
sg27
S'--'
p193
sg29
S'--'
p194
sg31
S'W27-16'
p195
sg33
S'--'
p196
sg35
S'--'
p197
sg37
S'PHI'
p198
sg39
S'--'
p199
sg41
S'--'
p200
sg43
S'--'
p201
ssS'9'
p202
(dp203
g5
S'--'
p204
sg7
S'--'
p205
sg9
g10
sg11
S'--'
p206
sg13
g10
sg15
S'Scott Simonson'
p207
sg17
S'2015'
p208
sg19
g202
sg21
S'--'
p209
sg23
S'11/08'
p210
sg25
S'--'
p211
sg27
S'--'
p212
sg29
S'--'
p213
sg31
S'W37-29'
p214
sg33
S'--'
p215
sg35
S'--'
p216
sg37
S'GB'
p217
sg39
S'--'
p218
sg41
S'--'
p219
sg43
S'--'
p220
ssS'8'
p221
(dp222
g5
S'--'
p223
sg7
S'--'
p224
sg9
g10
sg11
S'--'
p225
sg13
g14
sg15
S'Scott Simonson'
p226
sg17
S'2015'
p227
sg19
g221
sg21
S'--'
p228
sg23
S'11/02'
p229
sg25
S'--'
p230
sg27
S'--'
p231
sg29
S'--'
p232
sg31
S'W29-26'
p233
sg33
S'--'
p234
sg35
S'--'
p235
sg37
S'IND'
p236
sg39
S'--'
p237
sg41
S'--'
p238
sg43
S'--'
p239
sssS'2014'
p240
(dp241
g105
(dp242
g5
S'--'
p243
sg7
S'--'
p244
sg9
g10
sg11
S'--'
p245
sg13
g14
sg15
S'Scott Simonson'
p246
sg17
S'2014'
p247
sg19
S'15'
p248
sg21
S'--'
p249
sg23
S'12/14'
p250
sg25
S'--'
p251
sg27
S'--'
p252
sg29
S'--'
p253
sg31
S'L13-31'
p254
sg33
S'--'
p255
sg35
S'--'
p256
sg37
S'@KC'
p257
sg39
S'--'
p258
sg41
S'--'
p259
sg43
S'--'
p260
ssg125
(dp261
g5
S'--'
p262
sg7
S'--'
p263
sg9
g10
sg11
S'--'
p264
sg13
g14
sg15
S'Scott Simonson'
p265
sg17
S'2014'
p266
sg19
S'14'
p267
sg21
S'--'
p268
sg23
S'12/07'
p269
sg25
S'--'
p270
sg27
S'--'
p271
sg29
S'--'
p272
sg31
S'W24-13'
p273
sg33
S'--'
p274
sg35
S'--'
p275
sg37
S'SF'
p276
sg39
S'--'
p277
sg41
S'--'
p278
sg43
S'--'
p279
ssg143
(dp280
g5
S'--'
p281
sg7
S'--'
p282
sg9
g10
sg11
S'--'
p283
sg13
g14
sg15
S'Scott Simonson'
p284
sg17
S'2014'
p285
sg19
S'17'
p286
sg21
S'--'
p287
sg23
S'12/28'
p288
sg25
S'--'
p289
sg27
S'--'
p290
sg29
S'--'
p291
sg31
S'L14-47'
p292
sg33
S'--'
p293
sg35
S'--'
p294
sg37
S'@DEN'
p295
sg39
S'--'
p296
sg41
S'--'
p297
sg43
S'--'
p298
ssg163
(dp299
g5
S'--'
p300
sg7
S'--'
p301
sg9
g10
sg11
S'--'
p302
sg13
g14
sg15
S'Scott Simonson'
p303
sg17
S'2014'
p304
sg19
S'16'
p305
sg21
S'--'
p306
sg23
S'12/21'
p307
sg25
S'--'
p308
sg27
S'--'
p309
sg29
S'--'
p310
sg31
S'W26-24'
p311
sg33
S'--'
p312
sg35
S'--'
p313
sg37
S'BUF'
p314
sg39
S'--'
p315
sg41
S'--'
p316
sg43
S'--'
p317
sss.