(dp0
S'2015'
p1
(dp2
S'17'
p3
(dp4
S'RushTD'
p5
S'--'
p6
sS'RushYds'
p7
S'--'
p8
sS'GS'
p9
S'0'
p10
sS'Lost'
p11
S'--'
p12
sS'G'
p13
g10
sS'Player'
p14
S'Sean McGrath'
p15
sS'Year'
p16
S'2015'
p17
sS'WK'
p18
S'17'
p19
sS'RushAvg'
p20
S'--'
p21
sS'Game Date'
p22
S'01/03'
p23
sS'RecAvg'
p24
S'--'
p25
sS'FUM'
p26
S'--'
p27
sS'RushAtt'
p28
S'--'
p29
sS'Result'
p30
S'L20-27'
p31
sS'RecYds'
p32
S'--'
p33
sS'Rec'
p34
S'--'
p35
sS'Opp'
p36
S'@DEN'
p37
sS'RecLng'
p38
S'--'
p39
sS'RecTD'
p40
S'--'
p41
sS'RushLng'
p42
S'--'
p43
sssS'2013'
p44
(dp45
S'11'
p46
(dp47
g5
S'--'
p48
sg7
S'--'
p49
sg9
g10
sg11
S'--'
p50
sg13
S'1'
p51
sg14
S'Sean McGrath'
p52
sg16
S'2013'
p53
sg18
S'11'
p54
sg20
S'--'
p55
sg22
S'11/17'
p56
sg24
S'20.0'
p57
sg26
S'--'
p58
sg28
S'--'
p59
sg30
S'L17-27'
p60
sg32
S'40'
p61
sg34
S'2'
p62
sg36
S'@DEN'
p63
sg38
S'21'
p64
sg40
g10
sg42
S'--'
p65
ssS'10'
p66
(dp67
g5
S''
p68
sg7
g68
sg9
g68
sg11
g68
sg13
g68
sg14
S'Sean McGrath'
p69
sg16
S'2013'
p70
sg18
S'10'
p71
sg20
g68
sg22
S'Bye'
p72
sg24
g68
sg26
g68
sg28
g68
sg30
g68
sg32
g68
sg34
g68
sg36
g68
sg38
g68
sg40
g68
sg42
g68
ssS'13'
p73
(dp74
g5
S'--'
p75
sg7
S'--'
p76
sg9
g51
sg11
S'--'
p77
sg13
g51
sg14
S'Sean McGrath'
p78
sg16
S'2013'
p79
sg18
S'13'
p80
sg20
S'--'
p81
sg22
S'12/01'
p82
sg24
S'11.0'
p83
sg26
S'--'
p84
sg28
S'--'
p85
sg30
S'L28-35'
p86
sg32
S'11'
p87
sg34
g51
sg36
S'DEN'
p88
sg38
S'11'
p89
sg40
g10
sg42
S'--'
p90
ssS'12'
p91
(dp92
g5
S'--'
p93
sg7
S'--'
p94
sg9
g51
sg11
S'--'
p95
sg13
g51
sg14
S'Sean McGrath'
p96
sg16
S'2013'
p97
sg18
S'12'
p98
sg20
S'--'
p99
sg22
S'11/24'
p100
sg24
S'--'
p101
sg26
S'--'
p102
sg28
S'--'
p103
sg30
S'L38-41'
p104
sg32
g10
sg34
g10
sg36
S'SD'
p105
sg38
S'--'
p106
sg40
g10
sg42
S'--'
p107
ssS'15'
p108
(dp109
g5
S'--'
p110
sg7
S'--'
p111
sg9
g51
sg11
S'--'
p112
sg13
g51
sg14
S'Sean McGrath'
p113
sg16
S'2013'
p114
sg18
S'15'
p115
sg20
S'--'
p116
sg22
S'12/15'
p117
sg24
S'7.0'
p118
sg26
S'--'
p119
sg28
S'--'
p120
sg30
S'W56-31'
p121
sg32
S'14'
p122
sg34
g62
sg36
S'@OAK'
p123
sg38
S'8'
p124
sg40
g51
sg42
S'--'
p125
ssS'14'
p126
(dp127
g5
S'--'
p128
sg7
S'--'
p129
sg9
g10
sg11
S'--'
p130
sg13
g51
sg14
S'Sean McGrath'
p131
sg16
S'2013'
p132
sg18
S'14'
p133
sg20
S'--'
p134
sg22
S'12/08'
p135
sg24
S'10.0'
p136
sg26
S'--'
p137
sg28
S'--'
p138
sg30
S'W45-10'
p139
sg32
S'20'
p140
sg34
g62
sg36
S'@WAS'
p141
sg38
S'11'
p142
sg40
g10
sg42
S'--'
p143
ssg3
(dp144
g5
S'--'
p145
sg7
S'--'
p146
sg9
g10
sg11
S'--'
p147
sg13
g51
sg14
S'Sean McGrath'
p148
sg16
S'2013'
p149
sg18
S'17'
p150
sg20
S'--'
p151
sg22
S'12/29'
p152
sg24
S'11.0'
p153
sg26
S'--'
p154
sg28
S'--'
p155
sg30
S'L24-27'
p156
sg32
S'11'
p157
sg34
g51
sg36
S'@SD'
p158
sg38
S'11'
p159
sg40
g10
sg42
S'--'
p160
ssS'16'
p161
(dp162
g5
S'--'
p163
sg7
S'--'
p164
sg9
g51
sg11
S'--'
p165
sg13
g51
sg14
S'Sean McGrath'
p166
sg16
S'2013'
p167
sg18
S'16'
p168
sg20
S'--'
p169
sg22
S'12/22'
p170
sg24
S'--'
p171
sg26
S'--'
p172
sg28
S'--'
p173
sg30
S'L7-23'
p174
sg32
S'--'
p175
sg34
S'--'
p176
sg36
S'IND'
p177
sg38
S'--'
p178
sg40
S'--'
p179
sg42
S'--'
p180
ssg51
(dp181
g5
S'--'
p182
sg7
S'--'
p183
sg9
g51
sg11
S'--'
p184
sg13
g51
sg14
S'Sean McGrath'
p185
sg16
S'2013'
p186
sg18
g51
sg20
S'--'
p187
sg22
S'09/08'
p188
sg24
S'--'
p189
sg26
S'--'
p190
sg28
S'--'
p191
sg30
S'W28-2'
p192
sg32
S'--'
p193
sg34
S'--'
p194
sg36
S'@JAC'
p195
sg38
S'--'
p196
sg40
S'--'
p197
sg42
S'--'
p198
ssS'3'
p199
(dp200
g5
S'--'
p201
sg7
S'--'
p202
sg9
g10
sg11
S'--'
p203
sg13
g51
sg14
S'Sean McGrath'
p204
sg16
S'2013'
p205
sg18
g199
sg20
S'--'
p206
sg22
S'09/19'
p207
sg24
S'7.8'
p208
sg26
S'--'
p209
sg28
S'--'
p210
sg30
S'W26-16'
p211
sg32
S'31'
p212
sg34
S'4'
p213
sg36
S'@PHI'
p214
sg38
S'9'
p215
sg40
g10
sg42
S'--'
p216
ssg62
(dp217
g5
S'--'
p218
sg7
S'--'
p219
sg9
g51
sg11
S'--'
p220
sg13
g51
sg14
S'Sean McGrath'
p221
sg16
S'2013'
p222
sg18
g62
sg20
S'--'
p223
sg22
S'09/15'
p224
sg24
S'15.5'
p225
sg26
S'--'
p226
sg28
S'--'
p227
sg30
S'W17-16'
p228
sg32
S'31'
p229
sg34
g62
sg36
S'DAL'
p230
sg38
S'22'
p231
sg40
g10
sg42
S'--'
p232
ssS'5'
p233
(dp234
g5
S'--'
p235
sg7
S'--'
p236
sg9
g51
sg11
S'--'
p237
sg13
g51
sg14
S'Sean McGrath'
p238
sg16
S'2013'
p239
sg18
g233
sg20
S'--'
p240
sg22
S'10/06'
p241
sg24
S'13.5'
p242
sg26
S'--'
p243
sg28
S'--'
p244
sg30
S'W26-17'
p245
sg32
S'54'
p246
sg34
g213
sg36
S'@TEN'
p247
sg38
S'25'
p248
sg40
g10
sg42
S'--'
p249
ssg213
(dp250
g5
S'--'
p251
sg7
S'--'
p252
sg9
g51
sg11
S'--'
p253
sg13
g51
sg14
S'Sean McGrath'
p254
sg16
S'2013'
p255
sg18
g213
sg20
S'--'
p256
sg22
S'09/29'
p257
sg24
S'12.8'
p258
sg26
S'--'
p259
sg28
S'--'
p260
sg30
S'W31-7'
p261
sg32
S'64'
p262
sg34
g233
sg36
S'NYG'
p263
sg38
S'23'
p264
sg40
g51
sg42
S'--'
p265
ssS'7'
p266
(dp267
g5
S'--'
p268
sg7
S'--'
p269
sg9
g10
sg11
S'--'
p270
sg13
g51
sg14
S'Sean McGrath'
p271
sg16
S'2013'
p272
sg18
g266
sg20
S'--'
p273
sg22
S'10/20'
p274
sg24
S'1.0'
p275
sg26
S'--'
p276
sg28
S'--'
p277
sg30
S'W17-16'
p278
sg32
g51
sg34
g51
sg36
S'HOU'
p279
sg38
g51
sg40
g10
sg42
S'--'
p280
ssS'6'
p281
(dp282
g5
S'--'
p283
sg7
S'--'
p284
sg9
g51
sg11
S'--'
p285
sg13
g51
sg14
S'Sean McGrath'
p286
sg16
S'2013'
p287
sg18
g281
sg20
S'--'
p288
sg22
S'10/13'
p289
sg24
S'--'
p290
sg26
S'--'
p291
sg28
S'--'
p292
sg30
S'W24-7'
p293
sg32
g10
sg34
g10
sg36
S'OAK'
p294
sg38
S'--'
p295
sg40
g10
sg42
S'--'
p296
ssg215
(dp297
g5
S'--'
p298
sg7
S'--'
p299
sg9
g10
sg11
S'--'
p300
sg13
g51
sg14
S'Sean McGrath'
p301
sg16
S'2013'
p302
sg18
g215
sg20
S'--'
p303
sg22
S'11/03'
p304
sg24
S'--'
p305
sg26
S'--'
p306
sg28
S'--'
p307
sg30
S'W23-13'
p308
sg32
S'--'
p309
sg34
S'--'
p310
sg36
S'@BUF'
p311
sg38
S'--'
p312
sg40
S'--'
p313
sg42
S'--'
p314
ssg124
(dp315
g5
S'--'
p316
sg7
S'--'
p317
sg9
g10
sg11
S'--'
p318
sg13
g51
sg14
S'Sean McGrath'
p319
sg16
S'2013'
p320
sg18
g124
sg20
S'--'
p321
sg22
S'10/27'
p322
sg24
S'12.5'
p323
sg26
S'--'
p324
sg28
S'--'
p325
sg30
S'W23-17'
p326
sg32
S'25'
p327
sg34
g62
sg36
S'CLE'
p328
sg38
S'22'
p329
sg40
g10
sg42
S'--'
p330
sssS'2012'
p331
(dp332
g3
(dp333
g5
S'--'
p334
sg7
S'--'
p335
sg9
g10
sg11
S'--'
p336
sg13
g51
sg14
S'Sean McGrath'
p337
sg16
S'2012'
p338
sg18
S'17'
p339
sg20
S'--'
p340
sg22
S'12/30'
p341
sg24
S'--'
p342
sg26
S'--'
p343
sg28
S'--'
p344
sg30
S'W20-13'
p345
sg32
S'--'
p346
sg34
S'--'
p347
sg36
S'STL'
p348
sg38
S'--'
p349
sg40
S'--'
p350
sg42
S'--'
p351
ssg161
(dp352
g5
S'--'
p353
sg7
S'--'
p354
sg9
g10
sg11
S'--'
p355
sg13
g51
sg14
S'Sean McGrath'
p356
sg16
S'2012'
p357
sg18
S'16'
p358
sg20
S'--'
p359
sg22
S'12/23'
p360
sg24
S'--'
p361
sg26
S'--'
p362
sg28
S'--'
p363
sg30
S'W42-13'
p364
sg32
S'--'
p365
sg34
S'--'
p366
sg36
S'SF'
p367
sg38
S'--'
p368
sg40
S'--'
p369
sg42
S'--'
p370
sss.