(dp0
S'2015'
p1
(dp2
S'11'
p3
(dp4
S'RushTD'
p5
S'--'
p6
sS'RushYds'
p7
S'--'
p8
sS'GS'
p9
S'0'
p10
sS'Lost'
p11
S'--'
p12
sS'G'
p13
g10
sS'Player'
p14
S'Timothy Wright'
p15
sS'Year'
p16
S'2015'
p17
sS'WK'
p18
S'11'
p19
sS'RushAvg'
p20
S'--'
p21
sS'Game Date'
p22
S'11/22'
p23
sS'RecAvg'
p24
S'--'
p25
sS'FUM'
p26
S'--'
p27
sS'RushAtt'
p28
S'--'
p29
sS'Result'
p30
S'W18-13'
p31
sS'RecYds'
p32
S'--'
p33
sS'Rec'
p34
S'--'
p35
sS'Opp'
p36
S'OAK'
p37
sS'RecLng'
p38
S'--'
p39
sS'RecTD'
p40
S'--'
p41
sS'RushLng'
p42
S'--'
p43
ssS'10'
p44
(dp45
g5
S'--'
p46
sg7
S'--'
p47
sg9
g10
sg11
S'--'
p48
sg13
g10
sg14
S'Timothy Wright'
p49
sg16
S'2015'
p50
sg18
S'10'
p51
sg20
S'--'
p52
sg22
S'11/15'
p53
sg24
S'--'
p54
sg26
S'--'
p55
sg28
S'--'
p56
sg30
S'W18-16'
p57
sg32
S'--'
p58
sg34
S'--'
p59
sg36
S'@GB'
p60
sg38
S'--'
p61
sg40
S'--'
p62
sg42
S'--'
p63
ssS'13'
p64
(dp65
g5
S'--'
p66
sg7
S'--'
p67
sg9
g10
sg11
S'--'
p68
sg13
g10
sg14
S'Timothy Wright'
p69
sg16
S'2015'
p70
sg18
S'13'
p71
sg20
S'--'
p72
sg22
S'12/03'
p73
sg24
S'--'
p74
sg26
S'--'
p75
sg28
S'--'
p76
sg30
S'L23-27'
p77
sg32
S'--'
p78
sg34
S'--'
p79
sg36
S'GB'
p80
sg38
S'--'
p81
sg40
S'--'
p82
sg42
S'--'
p83
ssS'12'
p84
(dp85
g5
S'--'
p86
sg7
S'--'
p87
sg9
g10
sg11
S'--'
p88
sg13
g10
sg14
S'Timothy Wright'
p89
sg16
S'2015'
p90
sg18
S'12'
p91
sg20
S'--'
p92
sg22
S'11/26'
p93
sg24
S'--'
p94
sg26
S'--'
p95
sg28
S'--'
p96
sg30
S'W45-14'
p97
sg32
S'--'
p98
sg34
S'--'
p99
sg36
S'PHI'
p100
sg38
S'--'
p101
sg40
S'--'
p102
sg42
S'--'
p103
ssS'15'
p104
(dp105
g5
S'--'
p106
sg7
S'--'
p107
sg9
g10
sg11
S'--'
p108
sg13
S'1'
p109
sg14
S'Timothy Wright'
p110
sg16
S'2015'
p111
sg18
S'15'
p112
sg20
S'--'
p113
sg22
S'12/21'
p114
sg24
S'--'
p115
sg26
S'--'
p116
sg28
S'--'
p117
sg30
S'W35-27'
p118
sg32
g10
sg34
g10
sg36
S'@NO'
p119
sg38
S'--'
p120
sg40
g10
sg42
S'--'
p121
ssS'14'
p122
(dp123
g5
S'--'
p124
sg7
S'--'
p125
sg9
g10
sg11
S'--'
p126
sg13
g10
sg14
S'Timothy Wright'
p127
sg16
S'2015'
p128
sg18
S'14'
p129
sg20
S'--'
p130
sg22
S'12/13'
p131
sg24
S'--'
p132
sg26
S'--'
p133
sg28
S'--'
p134
sg30
S'L14-21'
p135
sg32
S'--'
p136
sg34
S'--'
p137
sg36
S'@STL'
p138
sg38
S'--'
p139
sg40
S'--'
p140
sg42
S'--'
p141
ssS'17'
p142
(dp143
g5
S'--'
p144
sg7
S'--'
p145
sg9
g10
sg11
S'--'
p146
sg13
g109
sg14
S'Timothy Wright'
p147
sg16
S'2015'
p148
sg18
S'17'
p149
sg20
S'--'
p150
sg22
S'01/03'
p151
sg24
S'9.0'
p152
sg26
S'--'
p153
sg28
S'--'
p154
sg30
S'W24-20'
p155
sg32
S'9'
p156
sg34
g109
sg36
S'@CHI'
p157
sg38
S'9T'
p158
sg40
g109
sg42
S'--'
p159
ssS'16'
p160
(dp161
g5
S'--'
p162
sg7
S'--'
p163
sg9
g10
sg11
S'--'
p164
sg13
g109
sg14
S'Timothy Wright'
p165
sg16
S'2015'
p166
sg18
S'16'
p167
sg20
S'--'
p168
sg22
S'12/27'
p169
sg24
S'--'
p170
sg26
S'--'
p171
sg28
S'--'
p172
sg30
S'W32-17'
p173
sg32
S'--'
p174
sg34
S'--'
p175
sg36
S'SF'
p176
sg38
S'--'
p177
sg40
S'--'
p178
sg42
S'--'
p179
ssg109
(dp180
g5
S'--'
p181
sg7
S'--'
p182
sg9
g10
sg11
S'--'
p183
sg13
g10
sg14
S'Timothy Wright'
p184
sg16
S'2015'
p185
sg18
g109
sg20
S'--'
p186
sg22
S'09/13'
p187
sg24
S'--'
p188
sg26
S'--'
p189
sg28
S'--'
p190
sg30
S'L28-33'
p191
sg32
S'--'
p192
sg34
S'--'
p193
sg36
S'@SD'
p194
sg38
S'--'
p195
sg40
S'--'
p196
sg42
S'--'
p197
ssS'3'
p198
(dp199
g5
S'--'
p200
sg7
S'--'
p201
sg9
g10
sg11
S'--'
p202
sg13
g109
sg14
S'Timothy Wright'
p203
sg16
S'2015'
p204
sg18
g198
sg20
S'--'
p205
sg22
S'09/27'
p206
sg24
S'--'
p207
sg26
S'--'
p208
sg28
S'--'
p209
sg30
S'L12-24'
p210
sg32
S'--'
p211
sg34
S'--'
p212
sg36
S'DEN'
p213
sg38
S'--'
p214
sg40
S'--'
p215
sg42
S'--'
p216
ssS'2'
p217
(dp218
g5
S'--'
p219
sg7
S'--'
p220
sg9
g10
sg11
S'--'
p221
sg13
g109
sg14
S'Timothy Wright'
p222
sg16
S'2015'
p223
sg18
g217
sg20
S'--'
p224
sg22
S'09/20'
p225
sg24
S'--'
p226
sg26
S'--'
p227
sg28
S'--'
p228
sg30
S'L16-26'
p229
sg32
S'--'
p230
sg34
S'--'
p231
sg36
S'@MIN'
p232
sg38
S'--'
p233
sg40
S'--'
p234
sg42
S'--'
p235
ssS'5'
p236
(dp237
g5
S'--'
p238
sg7
S'--'
p239
sg9
g10
sg11
S'--'
p240
sg13
g109
sg14
S'Timothy Wright'
p241
sg16
S'2015'
p242
sg18
g236
sg20
S'--'
p243
sg22
S'10/11'
p244
sg24
S'4.0'
p245
sg26
S'--'
p246
sg28
S'--'
p247
sg30
S'L17-42'
p248
sg32
S'12'
p249
sg34
g198
sg36
S'ARI'
p250
sg38
S'8'
p251
sg40
g10
sg42
S'--'
p252
ssS'4'
p253
(dp254
g5
S'--'
p255
sg7
S'--'
p256
sg9
g10
sg11
S'--'
p257
sg13
g109
sg14
S'Timothy Wright'
p258
sg16
S'2015'
p259
sg18
g253
sg20
S'--'
p260
sg22
S'10/05'
p261
sg24
S'26.0'
p262
sg26
S'--'
p263
sg28
S'--'
p264
sg30
S'L10-13'
p265
sg32
S'26'
p266
sg34
g109
sg36
S'@SEA'
p267
sg38
S'26'
p268
sg40
g10
sg42
S'--'
p269
ssS'7'
p270
(dp271
g5
S'--'
p272
sg7
S'--'
p273
sg9
g10
sg11
S'--'
p274
sg13
g109
sg14
S'Timothy Wright'
p275
sg16
S'2015'
p276
sg18
g270
sg20
S'--'
p277
sg22
S'10/25'
p278
sg24
S'13.0'
p279
sg26
S'--'
p280
sg28
S'--'
p281
sg30
S'L19-28'
p282
sg32
S'13'
p283
sg34
g109
sg36
S'MIN'
p284
sg38
S'13'
p285
sg40
g10
sg42
S'--'
p286
ssS'6'
p287
(dp288
g5
S'--'
p289
sg7
S'--'
p290
sg9
g109
sg11
S'--'
p291
sg13
g109
sg14
S'Timothy Wright'
p292
sg16
S'2015'
p293
sg18
g287
sg20
S'--'
p294
sg22
S'10/18'
p295
sg24
S'5.7'
p296
sg26
S'--'
p297
sg28
S'--'
p298
sg30
S'W37-34'
p299
sg32
S'17'
p300
sg34
g198
sg36
S'CHI'
p301
sg38
S'8T'
p302
sg40
g109
sg42
S'--'
p303
ssg156
(dp304
g5
S''
p305
sg7
g305
sg9
g305
sg11
g305
sg13
g305
sg14
S'Timothy Wright'
p306
sg16
S'2015'
p307
sg18
g156
sg20
g305
sg22
S'Bye'
p308
sg24
g305
sg26
g305
sg28
g305
sg30
g305
sg32
g305
sg34
g305
sg36
g305
sg38
g305
sg40
g305
sg42
g305
ssg251
(dp309
g5
S'--'
p310
sg7
S'--'
p311
sg9
g10
sg11
S'--'
p312
sg13
g10
sg14
S'Timothy Wright'
p313
sg16
S'2015'
p314
sg18
g251
sg20
S'--'
p315
sg22
S'11/01'
p316
sg24
S'--'
p317
sg26
S'--'
p318
sg28
S'--'
p319
sg30
S'L10-45'
p320
sg32
S'--'
p321
sg34
S'--'
p322
sg36
S'@KC'
p323
sg38
S'--'
p324
sg40
S'--'
p325
sg42
S'--'
p326
sssS'2014'
p327
(dp328
g3
(dp329
g5
S'--'
p330
sg7
S'--'
p331
sg9
g10
sg11
S'--'
p332
sg13
g109
sg14
S'Timothy Wright'
p333
sg16
S'2014'
p334
sg18
S'11'
p335
sg20
S'--'
p336
sg22
S'11/16'
p337
sg24
S'2.0'
p338
sg26
S'--'
p339
sg28
S'--'
p340
sg30
S'W42-20'
p341
sg32
g217
sg34
g109
sg36
S'@IND'
p342
sg38
S'2T'
p343
sg40
g109
sg42
S'--'
p344
ssg44
(dp345
g5
g305
sg7
g305
sg9
g305
sg11
g305
sg13
g305
sg14
S'Timothy Wright'
p346
sg16
S'2014'
p347
sg18
S'10'
p348
sg20
g305
sg22
S'Bye'
p349
sg24
g305
sg26
g305
sg28
g305
sg30
g305
sg32
g305
sg34
g305
sg36
g305
sg38
g305
sg40
g305
sg42
g305
ssg64
(dp350
g5
S'--'
p351
sg7
S'--'
p352
sg9
g10
sg11
S'--'
p353
sg13
g109
sg14
S'Timothy Wright'
p354
sg16
S'2014'
p355
sg18
S'13'
p356
sg20
S'--'
p357
sg22
S'11/30'
p358
sg24
S'12.0'
p359
sg26
S'--'
p360
sg28
S'--'
p361
sg30
S'L21-26'
p362
sg32
S'12'
p363
sg34
g109
sg36
S'@GB'
p364
sg38
S'12'
p365
sg40
g10
sg42
S'--'
p366
ssg84
(dp367
g5
S'--'
p368
sg7
S'--'
p369
sg9
g109
sg11
S'--'
p370
sg13
g109
sg14
S'Timothy Wright'
p371
sg16
S'2014'
p372
sg18
S'12'
p373
sg20
S'--'
p374
sg22
S'11/23'
p375
sg24
S'7.2'
p376
sg26
S'--'
p377
sg28
S'--'
p378
sg30
S'W34-9'
p379
sg32
S'36'
p380
sg34
g236
sg36
S'DET'
p381
sg38
S'16'
p382
sg40
g217
sg42
S'--'
p383
ssg104
(dp384
g5
S'--'
p385
sg7
S'--'
p386
sg9
g10
sg11
S'--'
p387
sg13
g109
sg14
S'Timothy Wright'
p388
sg16
S'2014'
p389
sg18
S'15'
p390
sg20
S'--'
p391
sg22
S'12/14'
p392
sg24
S'--'
p393
sg26
S'--'
p394
sg28
S'--'
p395
sg30
S'W41-13'
p396
sg32
S'--'
p397
sg34
S'--'
p398
sg36
S'MIA'
p399
sg38
S'--'
p400
sg40
S'--'
p401
sg42
S'--'
p402
ssg122
(dp403
g5
S'--'
p404
sg7
S'--'
p405
sg9
g109
sg11
S'--'
p406
sg13
g109
sg14
S'Timothy Wright'
p407
sg16
S'2014'
p408
sg18
S'14'
p409
sg20
S'--'
p410
sg22
S'12/07'
p411
sg24
S'--'
p412
sg26
S'--'
p413
sg28
S'--'
p414
sg30
S'W23-14'
p415
sg32
g10
sg34
g10
sg36
S'@SD'
p416
sg38
S'--'
p417
sg40
g10
sg42
S'--'
p418
ssg142
(dp419
g5
S'--'
p420
sg7
S'--'
p421
sg9
g10
sg11
S'--'
p422
sg13
g109
sg14
S'Timothy Wright'
p423
sg16
S'2014'
p424
sg18
S'17'
p425
sg20
S'--'
p426
sg22
S'12/28'
p427
sg24
S'15.0'
p428
sg26
S'--'
p429
sg28
S'--'
p430
sg30
S'L9-17'
p431
sg32
S'15'
p432
sg34
g109
sg36
S'BUF'
p433
sg38
S'15'
p434
sg40
g10
sg42
S'--'
p435
ssg160
(dp436
g5
S'--'
p437
sg7
S'--'
p438
sg9
g10
sg11
S'--'
p439
sg13
g109
sg14
S'Timothy Wright'
p440
sg16
S'2014'
p441
sg18
S'16'
p442
sg20
S'--'
p443
sg22
S'12/21'
p444
sg24
S'12.0'
p445
sg26
S'--'
p446
sg28
S'--'
p447
sg30
S'W17-16'
p448
sg32
S'12'
p449
sg34
g109
sg36
S'@NYJ'
p450
sg38
S'12'
p451
sg40
g10
sg42
S'--'
p452
ssg109
(dp453
g5
S'--'
p454
sg7
S'--'
p455
sg9
g10
sg11
S'--'
p456
sg13
g109
sg14
S'Timothy Wright'
p457
sg16
S'2014'
p458
sg18
g109
sg20
S'--'
p459
sg22
S'09/07'
p460
sg24
S'5.0'
p461
sg26
S'--'
p462
sg28
S'--'
p463
sg30
S'L20-33'
p464
sg32
S'15'
p465
sg34
g198
sg36
S'@MIA'
p466
sg38
g251
sg40
g10
sg42
S'--'
p467
ssg198
(dp468
g5
S'--'
p469
sg7
S'--'
p470
sg9
g10
sg11
S'--'
p471
sg13
g109
sg14
S'Timothy Wright'
p472
sg16
S'2014'
p473
sg18
g198
sg20
S'--'
p474
sg22
S'09/21'
p475
sg24
S'20.0'
p476
sg26
S'--'
p477
sg28
S'--'
p478
sg30
S'W16-9'
p479
sg32
S'20'
p480
sg34
g109
sg36
S'OAK'
p481
sg38
S'20'
p482
sg40
g10
sg42
S'--'
p483
ssg217
(dp484
g5
S'--'
p485
sg7
S'--'
p486
sg9
g10
sg11
S'--'
p487
sg13
g109
sg14
S'Timothy Wright'
p488
sg16
S'2014'
p489
sg18
g217
sg20
S'--'
p490
sg22
S'09/14'
p491
sg24
S'--'
p492
sg26
S'--'
p493
sg28
S'--'
p494
sg30
S'W30-7'
p495
sg32
g10
sg34
g10
sg36
S'@MIN'
p496
sg38
S'--'
p497
sg40
g10
sg42
S'--'
p498
ssg236
(dp499
g5
S'--'
p500
sg7
S'--'
p501
sg9
g10
sg11
S'--'
p502
sg13
g109
sg14
S'Timothy Wright'
p503
sg16
S'2014'
p504
sg18
g236
sg20
S'--'
p505
sg22
S'10/05'
p506
sg24
S'17.0'
p507
sg26
S'--'
p508
sg28
S'--'
p509
sg30
S'W43-17'
p510
sg32
S'85'
p511
sg34
g236
sg36
S'CIN'
p512
sg38
S'30'
p513
sg40
g109
sg42
S'--'
p514
ssg253
(dp515
g5
S'--'
p516
sg7
S'--'
p517
sg9
g10
sg11
S'--'
p518
sg13
g109
sg14
S'Timothy Wright'
p519
sg16
S'2014'
p520
sg18
g253
sg20
S'--'
p521
sg22
S'09/29'
p522
sg24
S'--'
p523
sg26
S'--'
p524
sg28
S'--'
p525
sg30
S'L14-41'
p526
sg32
S'--'
p527
sg34
S'--'
p528
sg36
S'@KC'
p529
sg38
S'--'
p530
sg40
S'--'
p531
sg42
S'--'
p532
ssg270
(dp533
g5
S'--'
p534
sg7
S'--'
p535
sg9
g10
sg11
S'--'
p536
sg13
g109
sg14
S'Timothy Wright'
p537
sg16
S'2014'
p538
sg18
g270
sg20
S'--'
p539
sg22
S'10/16'
p540
sg24
S'--'
p541
sg26
S'--'
p542
sg28
S'--'
p543
sg30
S'W27-25'
p544
sg32
S'--'
p545
sg34
S'--'
p546
sg36
S'NYJ'
p547
sg38
S'--'
p548
sg40
S'--'
p549
sg42
S'--'
p550
ssg287
(dp551
g5
S'--'
p552
sg7
S'--'
p553
sg9
g10
sg11
S'--'
p554
sg13
g109
sg14
S'Timothy Wright'
p555
sg16
S'2014'
p556
sg18
g287
sg20
S'--'
p557
sg22
S'10/12'
p558
sg24
S'1.0'
p559
sg26
S'--'
p560
sg28
S'--'
p561
sg30
S'W37-22'
p562
sg32
g109
sg34
g109
sg36
S'@BUF'
p563
sg38
S'1T'
p564
sg40
g109
sg42
S'--'
p565
ssg156
(dp566
g5
S'--'
p567
sg7
S'--'
p568
sg9
g10
sg11
S'--'
p569
sg13
g109
sg14
S'Timothy Wright'
p570
sg16
S'2014'
p571
sg18
g156
sg20
S'--'
p572
sg22
S'11/02'
p573
sg24
S'--'
p574
sg26
S'--'
p575
sg28
S'--'
p576
sg30
S'W43-21'
p577
sg32
S'--'
p578
sg34
S'--'
p579
sg36
S'DEN'
p580
sg38
S'--'
p581
sg40
S'--'
p582
sg42
S'--'
p583
ssg251
(dp584
g5
g10
sg7
S'-2'
p585
sg9
g10
sg11
S'--'
p586
sg13
g109
sg14
S'Timothy Wright'
p587
sg16
S'2014'
p588
sg18
g251
sg20
S'-2.0'
p589
sg22
S'10/26'
p590
sg24
S'8.7'
p591
sg26
S'--'
p592
sg28
g109
sg30
S'W51-23'
p593
sg32
S'61'
p594
sg34
g270
sg36
S'CHI'
p595
sg38
S'17'
p596
sg40
g109
sg42
S'-2'
p597
sssS'2013'
p598
(dp599
g3
(dp600
g5
S'--'
p601
sg7
S'--'
p602
sg9
g10
sg11
S'--'
p603
sg13
g109
sg14
S'Timothy Wright'
p604
sg16
S'2013'
p605
sg18
S'11'
p606
sg20
S'--'
p607
sg22
S'11/17'
p608
sg24
S'13.0'
p609
sg26
S'--'
p610
sg28
S'--'
p611
sg30
S'W41-28'
p612
sg32
S'13'
p613
sg34
g109
sg36
S'ATL'
p614
sg38
S'13'
p615
sg40
g10
sg42
S'--'
p616
ssg44
(dp617
g5
S'--'
p618
sg7
S'--'
p619
sg9
g10
sg11
S'--'
p620
sg13
g109
sg14
S'Timothy Wright'
p621
sg16
S'2013'
p622
sg18
S'10'
p623
sg20
S'--'
p624
sg22
S'11/11'
p625
sg24
S'19.0'
p626
sg26
S'--'
p627
sg28
S'--'
p628
sg30
S'W22-19'
p629
sg32
S'19'
p630
sg34
g109
sg36
S'MIA'
p631
sg38
S'19'
p632
sg40
g10
sg42
S'--'
p633
ssg64
(dp634
g5
S'--'
p635
sg7
S'--'
p636
sg9
g109
sg11
S'--'
p637
sg13
g109
sg14
S'Timothy Wright'
p638
sg16
S'2013'
p639
sg18
S'13'
p640
sg20
S'--'
p641
sg22
S'12/01'
p642
sg24
S'8.5'
p643
sg26
S'--'
p644
sg28
S'--'
p645
sg30
S'L6-27'
p646
sg32
S'17'
p647
sg34
g217
sg36
S'@CAR'
p648
sg38
S'10'
p649
sg40
g10
sg42
S'--'
p650
ssg84
(dp651
g5
S'--'
p652
sg7
S'--'
p653
sg9
g109
sg11
S'--'
p654
sg13
g109
sg14
S'Timothy Wright'
p655
sg16
S'2013'
p656
sg18
S'12'
p657
sg20
S'--'
p658
sg22
S'11/24'
p659
sg24
S'9.4'
p660
sg26
S'--'
p661
sg28
S'--'
p662
sg30
S'W24-21'
p663
sg32
S'75'
p664
sg34
g251
sg36
S'@DET'
p665
sg38
S'16'
p666
sg40
g10
sg42
S'--'
p667
ssg104
(dp668
g5
S'--'
p669
sg7
S'--'
p670
sg9
g10
sg11
S'--'
p671
sg13
g109
sg14
S'Timothy Wright'
p672
sg16
S'2013'
p673
sg18
S'15'
p674
sg20
S'--'
p675
sg22
S'12/15'
p676
sg24
S'11.7'
p677
sg26
S'--'
p678
sg28
S'--'
p679
sg30
S'L14-33'
p680
sg32
S'82'
p681
sg34
g270
sg36
S'SF'
p682
sg38
S'26'
p683
sg40
g109
sg42
S'--'
p684
ssg122
(dp685
g5
S'--'
p686
sg7
S'--'
p687
sg9
g109
sg11
S'--'
p688
sg13
g109
sg14
S'Timothy Wright'
p689
sg16
S'2013'
p690
sg18
S'14'
p691
sg20
S'--'
p692
sg22
S'12/08'
p693
sg24
S'10.5'
p694
sg26
S'--'
p695
sg28
S'--'
p696
sg30
S'W27-6'
p697
sg32
S'21'
p698
sg34
g217
sg36
S'BUF'
p699
sg38
S'16'
p700
sg40
g109
sg42
S'--'
p701
ssg142
(dp702
g5
g10
sg7
g217
sg9
g109
sg11
S'--'
p703
sg13
g109
sg14
S'Timothy Wright'
p704
sg16
S'2013'
p705
sg18
S'17'
p706
sg20
S'2.0'
p707
sg22
S'12/29'
p708
sg24
S'11.6'
p709
sg26
S'--'
p710
sg28
g109
sg30
S'L17-42'
p711
sg32
S'58'
p712
sg34
g236
sg36
S'@NO'
p713
sg38
S'24'
p714
sg40
g109
sg42
g217
ssg160
(dp715
g5
S'--'
p716
sg7
S'--'
p717
sg9
g109
sg11
S'--'
p718
sg13
g109
sg14
S'Timothy Wright'
p719
sg16
S'2013'
p720
sg18
S'16'
p721
sg20
S'--'
p722
sg22
S'12/22'
p723
sg24
S'6.8'
p724
sg26
S'--'
p725
sg28
S'--'
p726
sg30
S'L13-23'
p727
sg32
S'27'
p728
sg34
g253
sg36
S'@STL'
p729
sg38
g251
sg40
g10
sg42
S'--'
p730
ssg109
(dp731
g5
S'--'
p732
sg7
S'--'
p733
sg9
g10
sg11
S'--'
p734
sg13
g109
sg14
S'Timothy Wright'
p735
sg16
S'2013'
p736
sg18
g109
sg20
S'--'
p737
sg22
S'09/08'
p738
sg24
S'--'
p739
sg26
S'--'
p740
sg28
S'--'
p741
sg30
S'L17-18'
p742
sg32
S'--'
p743
sg34
S'--'
p744
sg36
S'@NYJ'
p745
sg38
S'--'
p746
sg40
S'--'
p747
sg42
S'--'
p748
ssg198
(dp749
g5
S'--'
p750
sg7
S'--'
p751
sg9
g10
sg11
S'--'
p752
sg13
g109
sg14
S'Timothy Wright'
p753
sg16
S'2013'
p754
sg18
g198
sg20
S'--'
p755
sg22
S'09/22'
p756
sg24
S'6.0'
p757
sg26
S'--'
p758
sg28
S'--'
p759
sg30
S'L3-23'
p760
sg32
g287
sg34
g109
sg36
S'@NE'
p761
sg38
g287
sg40
g10
sg42
S'--'
p762
ssg217
(dp763
g5
S'--'
p764
sg7
S'--'
p765
sg9
g10
sg11
S'--'
p766
sg13
g109
sg14
S'Timothy Wright'
p767
sg16
S'2013'
p768
sg18
g217
sg20
S'--'
p769
sg22
S'09/15'
p770
sg24
S'--'
p771
sg26
S'--'
p772
sg28
S'--'
p773
sg30
S'L14-16'
p774
sg32
S'--'
p775
sg34
S'--'
p776
sg36
S'NO'
p777
sg38
S'--'
p778
sg40
S'--'
p779
sg42
S'--'
p780
ssg236
(dp781
g5
g305
sg7
g305
sg9
g305
sg11
g305
sg13
g305
sg14
S'Timothy Wright'
p782
sg16
S'2013'
p783
sg18
g236
sg20
g305
sg22
S'Bye'
p784
sg24
g305
sg26
g305
sg28
g305
sg30
g305
sg32
g305
sg34
g305
sg36
g305
sg38
g305
sg40
g305
sg42
g305
ssg253
(dp785
g5
S'--'
p786
sg7
S'--'
p787
sg9
g10
sg11
S'--'
p788
sg13
g109
sg14
S'Timothy Wright'
p789
sg16
S'2013'
p790
sg18
g253
sg20
S'--'
p791
sg22
S'09/29'
p792
sg24
S'8.2'
p793
sg26
S'--'
p794
sg28
S'--'
p795
sg30
S'L10-13'
p796
sg32
S'41'
p797
sg34
g236
sg36
S'ARI'
p798
sg38
S'15'
p799
sg40
g10
sg42
S'--'
p800
ssg270
(dp801
g5
S'--'
p802
sg7
S'--'
p803
sg9
g109
sg11
S'--'
p804
sg13
g109
sg14
S'Timothy Wright'
p805
sg16
S'2013'
p806
sg18
g270
sg20
S'--'
p807
sg22
S'10/20'
p808
sg24
S'7.5'
p809
sg26
S'--'
p810
sg28
S'--'
p811
sg30
S'L23-31'
p812
sg32
S'15'
p813
sg34
g217
sg36
S'@ATL'
p814
sg38
g156
sg40
g10
sg42
S'--'
p815
ssg287
(dp816
g5
S'--'
p817
sg7
S'--'
p818
sg9
g109
sg11
S'--'
p819
sg13
g109
sg14
S'Timothy Wright'
p820
sg16
S'2013'
p821
sg18
g287
sg20
S'--'
p822
sg22
S'10/13'
p823
sg24
S'13.0'
p824
sg26
S'--'
p825
sg28
S'--'
p826
sg30
S'L20-31'
p827
sg32
S'91'
p828
sg34
g270
sg36
S'PHI'
p829
sg38
S'36'
p830
sg40
g10
sg42
S'--'
p831
ssg156
(dp832
g5
S'--'
p833
sg7
S'--'
p834
sg9
g109
sg11
S'--'
p835
sg13
g109
sg14
S'Timothy Wright'
p836
sg16
S'2013'
p837
sg18
g156
sg20
S'--'
p838
sg22
S'11/03'
p839
sg24
S'14.5'
p840
sg26
S'--'
p841
sg28
S'--'
p842
sg30
S'L24-27'
p843
sg32
S'58'
p844
sg34
g253
sg36
S'@SEA'
p845
sg38
S'27'
p846
sg40
g109
sg42
S'--'
p847
ssg251
(dp848
g5
S'--'
p849
sg7
S'--'
p850
sg9
g10
sg11
S'--'
p851
sg13
g109
sg14
S'Timothy Wright'
p852
sg16
S'2013'
p853
sg18
g251
sg20
S'--'
p854
sg22
S'10/24'
p855
sg24
S'9.6'
p856
sg26
S'--'
p857
sg28
S'--'
p858
sg30
S'L13-31'
p859
sg32
S'48'
p860
sg34
g236
sg36
S'CAR'
p861
sg38
S'15'
p862
sg40
g109
sg42
S'--'
p863
sss.