(dp0
S'2015'
p1
(dp2
S'11'
p3
(dp4
S'RushTD'
p5
S'--'
p6
sS'RushYds'
p7
S'--'
p8
sS'GS'
p9
S'0'
p10
sS'Lost'
p11
S'--'
p12
sS'G'
p13
S'1'
p14
sS'Player'
p15
S'Tony Moeaki'
p16
sS'Year'
p17
S'2015'
p18
sS'WK'
p19
S'11'
p20
sS'RushAvg'
p21
S'--'
p22
sS'Game Date'
p23
S'11/22'
p24
sS'RecAvg'
p25
S'--'
p26
sS'FUM'
p27
S'--'
p28
sS'RushAtt'
p29
S'--'
p30
sS'Result'
p31
S'L21-24'
p32
sS'RecYds'
p33
S'--'
p34
sS'Rec'
p35
S'--'
p36
sS'Opp'
p37
S'IND'
p38
sS'RecLng'
p39
S'--'
p40
sS'RecTD'
p41
S'--'
p42
sS'RushLng'
p43
S'--'
p44
ssS'10'
p45
(dp46
g5
S''
p47
sg7
g47
sg9
g47
sg11
g47
sg13
g47
sg15
S'Tony Moeaki'
p48
sg17
S'2015'
p49
sg19
S'10'
p50
sg21
g47
sg23
S'Bye'
p51
sg25
g47
sg27
g47
sg29
g47
sg31
g47
sg33
g47
sg35
g47
sg37
g47
sg39
g47
sg41
g47
sg43
g47
ssS'13'
p52
(dp53
g5
S'--'
p54
sg7
S'--'
p55
sg9
g10
sg11
S'--'
p56
sg13
g10
sg15
S'Tony Moeaki'
p57
sg17
S'2015'
p58
sg19
S'13'
p59
sg21
S'--'
p60
sg23
S'12/06'
p61
sg25
S'--'
p62
sg27
S'--'
p63
sg29
S'--'
p64
sg31
S'L19-23'
p65
sg33
S'--'
p66
sg35
S'--'
p67
sg37
S'@TB'
p68
sg39
S'--'
p69
sg41
S'--'
p70
sg43
S'--'
p71
ssS'12'
p72
(dp73
g5
S'--'
p74
sg7
S'--'
p75
sg9
g10
sg11
S'--'
p76
sg13
g14
sg15
S'Tony Moeaki'
p77
sg17
S'2015'
p78
sg19
S'12'
p79
sg21
S'--'
p80
sg23
S'11/29'
p81
sg25
S'--'
p82
sg27
S'--'
p83
sg29
S'--'
p84
sg31
S'L10-20'
p85
sg33
S'--'
p86
sg35
S'--'
p87
sg37
S'MIN'
p88
sg39
S'--'
p89
sg41
S'--'
p90
sg43
S'--'
p91
ssS'15'
p92
(dp93
g5
S'--'
p94
sg7
S'--'
p95
sg9
g10
sg11
S'--'
p96
sg13
g14
sg15
S'Tony Moeaki'
p97
sg17
S'2015'
p98
sg19
S'15'
p99
sg21
S'--'
p100
sg23
S'12/20'
p101
sg25
S'--'
p102
sg27
S'--'
p103
sg29
S'--'
p104
sg31
S'W23-17'
p105
sg33
g10
sg35
g10
sg37
S'@JAC'
p106
sg39
S'--'
p107
sg41
g10
sg43
S'--'
p108
ssS'14'
p109
(dp110
g5
S'--'
p111
sg7
S'--'
p112
sg9
g10
sg11
S'--'
p113
sg13
g14
sg15
S'Tony Moeaki'
p114
sg17
S'2015'
p115
sg19
S'14'
p116
sg21
S'--'
p117
sg23
S'12/13'
p118
sg25
S'--'
p119
sg27
S'--'
p120
sg29
S'--'
p121
sg31
S'L0-38'
p122
sg33
S'--'
p123
sg35
S'--'
p124
sg37
S'@CAR'
p125
sg39
S'--'
p126
sg41
S'--'
p127
sg43
S'--'
p128
ssS'17'
p129
(dp130
g5
S'--'
p131
sg7
S'--'
p132
sg9
g10
sg11
S'--'
p133
sg13
g14
sg15
S'Tony Moeaki'
p134
sg17
S'2015'
p135
sg19
S'17'
p136
sg21
S'--'
p137
sg23
S'01/03'
p138
sg25
S'23.5'
p139
sg27
S'--'
p140
sg29
S'--'
p141
sg31
S'L17-20'
p142
sg33
S'47'
p143
sg35
S'2'
p144
sg37
S'NO'
p145
sg39
S'42T'
p146
sg41
g14
sg43
S'--'
p147
ssS'16'
p148
(dp149
g5
S'--'
p150
sg7
S'--'
p151
sg9
g10
sg11
S'--'
p152
sg13
g14
sg15
S'Tony Moeaki'
p153
sg17
S'2015'
p154
sg19
S'16'
p155
sg21
S'--'
p156
sg23
S'12/27'
p157
sg25
S'--'
p158
sg27
S'--'
p159
sg29
S'--'
p160
sg31
S'W20-13'
p161
sg33
S'--'
p162
sg35
S'--'
p163
sg37
S'CAR'
p164
sg39
S'--'
p165
sg41
S'--'
p166
sg43
S'--'
p167
ssS'5'
p168
(dp169
g5
S'--'
p170
sg7
S'--'
p171
sg9
g10
sg11
S'--'
p172
sg13
g14
sg15
S'Tony Moeaki'
p173
sg17
S'2015'
p174
sg19
g168
sg21
S'--'
p175
sg23
S'10/11'
p176
sg25
S'--'
p177
sg27
S'--'
p178
sg29
S'--'
p179
sg31
S'W25-19'
p180
sg33
S'--'
p181
sg35
S'--'
p182
sg37
S'WAS'
p183
sg39
S'--'
p184
sg41
S'--'
p185
sg43
S'--'
p186
ssS'7'
p187
(dp188
g5
S'--'
p189
sg7
S'--'
p190
sg9
g10
sg11
S'--'
p191
sg13
g14
sg15
S'Tony Moeaki'
p192
sg17
S'2015'
p193
sg19
g187
sg21
S'--'
p194
sg23
S'10/25'
p195
sg25
S'11.0'
p196
sg27
S'--'
p197
sg29
S'--'
p198
sg31
S'W10-7'
p199
sg33
S'11'
p200
sg35
g14
sg37
S'@TEN'
p201
sg39
S'11'
p202
sg41
g10
sg43
S'--'
p203
ssS'6'
p204
(dp205
g5
S'--'
p206
sg7
S'--'
p207
sg9
g10
sg11
S'--'
p208
sg13
g14
sg15
S'Tony Moeaki'
p209
sg17
S'2015'
p210
sg19
g204
sg21
S'--'
p211
sg23
S'10/15'
p212
sg25
S'--'
p213
sg27
S'--'
p214
sg29
S'--'
p215
sg31
S'L21-31'
p216
sg33
S'--'
p217
sg35
S'--'
p218
sg37
S'@NO'
p219
sg39
S'--'
p220
sg41
S'--'
p221
sg43
S'--'
p222
ssS'9'
p223
(dp224
g5
S'--'
p225
sg7
S'--'
p226
sg9
g10
sg11
S'--'
p227
sg13
g14
sg15
S'Tony Moeaki'
p228
sg17
S'2015'
p229
sg19
g223
sg21
S'--'
p230
sg23
S'11/08'
p231
sg25
S'--'
p232
sg27
S'--'
p233
sg29
S'--'
p234
sg31
S'L16-17'
p235
sg33
S'--'
p236
sg35
S'--'
p237
sg37
S'@SF'
p238
sg39
S'--'
p239
sg41
S'--'
p240
sg43
S'--'
p241
ssS'8'
p242
(dp243
g5
S'--'
p244
sg7
S'--'
p245
sg9
g10
sg11
S'--'
p246
sg13
g14
sg15
S'Tony Moeaki'
p247
sg17
S'2015'
p248
sg19
g242
sg21
S'--'
p249
sg23
S'11/01'
p250
sg25
S'--'
p251
sg27
S'--'
p252
sg29
S'--'
p253
sg31
S'L20-23'
p254
sg33
S'--'
p255
sg35
S'--'
p256
sg37
S'TB'
p257
sg39
S'--'
p258
sg41
S'--'
p259
sg43
S'--'
p260
sssS'2014'
p261
(dp262
g3
(dp263
g5
S'--'
p264
sg7
S'--'
p265
sg9
g10
sg11
S'--'
p266
sg13
g14
sg15
S'Tony Moeaki'
p267
sg17
S'2014'
p268
sg19
S'11'
p269
sg21
S'--'
p270
sg23
S'11/16'
p271
sg25
S'1.0'
p272
sg27
S'--'
p273
sg29
S'--'
p274
sg31
S'L20-24'
p275
sg33
g14
sg35
g14
sg37
S'@KC'
p276
sg39
S'1T'
p277
sg41
g14
sg43
S'--'
p278
ssg45
(dp279
g5
S'--'
p280
sg7
S'--'
p281
sg9
g10
sg11
S'--'
p282
sg13
g10
sg15
S'Tony Moeaki'
p283
sg17
S'2014'
p284
sg19
S'10'
p285
sg21
S'--'
p286
sg23
S'11/09'
p287
sg25
S'--'
p288
sg27
S'--'
p289
sg29
S'--'
p290
sg31
S'W38-17'
p291
sg33
S'--'
p292
sg35
S'--'
p293
sg37
S'NYG'
p294
sg39
S'--'
p295
sg41
S'--'
p296
sg43
S'--'
p297
ssg52
(dp298
g5
S'--'
p299
sg7
S'--'
p300
sg9
g10
sg11
S'--'
p301
sg13
g14
sg15
S'Tony Moeaki'
p302
sg17
S'2014'
p303
sg19
S'13'
p304
sg21
S'--'
p305
sg23
S'11/27'
p306
sg25
S'63.0'
p307
sg27
S'--'
p308
sg29
S'--'
p309
sg31
S'W19-3'
p310
sg33
S'63'
p311
sg35
g14
sg37
S'@SF'
p312
sg39
S'63'
p313
sg41
g10
sg43
S'--'
p314
ssg72
(dp315
g5
S'--'
p316
sg7
S'--'
p317
sg9
g10
sg11
S'--'
p318
sg13
g14
sg15
S'Tony Moeaki'
p319
sg17
S'2014'
p320
sg19
S'12'
p321
sg21
S'--'
p322
sg23
S'11/23'
p323
sg25
S'8.5'
p324
sg27
S'--'
p325
sg29
S'--'
p326
sg31
S'W19-3'
p327
sg33
S'34'
p328
sg35
S'4'
p329
sg37
S'ARI'
p330
sg39
S'17'
p331
sg41
g10
sg43
S'--'
p332
ssg92
(dp333
g5
S'--'
p334
sg7
S'--'
p335
sg9
g14
sg11
S'--'
p336
sg13
g14
sg15
S'Tony Moeaki'
p337
sg17
S'2014'
p338
sg19
S'15'
p339
sg21
S'--'
p340
sg23
S'12/14'
p341
sg25
S'--'
p342
sg27
S'--'
p343
sg29
S'--'
p344
sg31
S'W17-7'
p345
sg33
g10
sg35
g10
sg37
S'SF'
p346
sg39
S'--'
p347
sg41
g10
sg43
S'--'
p348
ssg109
(dp349
g5
S'--'
p350
sg7
S'--'
p351
sg9
g14
sg11
S'--'
p352
sg13
g14
sg15
S'Tony Moeaki'
p353
sg17
S'2014'
p354
sg19
S'14'
p355
sg21
S'--'
p356
sg23
S'12/07'
p357
sg25
S'15.0'
p358
sg27
S'--'
p359
sg29
S'--'
p360
sg31
S'W24-14'
p361
sg33
S'15'
p362
sg35
g14
sg37
S'@PHI'
p363
sg39
S'15'
p364
sg41
g10
sg43
S'--'
p365
ssg129
(dp366
g5
S'--'
p367
sg7
S'--'
p368
sg9
g10
sg11
S'--'
p369
sg13
g14
sg15
S'Tony Moeaki'
p370
sg17
S'2014'
p371
sg19
S'17'
p372
sg21
S'--'
p373
sg23
S'12/28'
p374
sg25
S'21.0'
p375
sg27
S'--'
p376
sg29
S'--'
p377
sg31
S'W20-6'
p378
sg33
S'21'
p379
sg35
g14
sg37
S'STL'
p380
sg39
S'21'
p381
sg41
g10
sg43
S'--'
p382
ssg148
(dp383
g5
S'--'
p384
sg7
S'--'
p385
sg9
g10
sg11
S'--'
p386
sg13
g10
sg15
S'Tony Moeaki'
p387
sg17
S'2014'
p388
sg19
S'16'
p389
sg21
S'--'
p390
sg23
S'12/21'
p391
sg25
S'--'
p392
sg27
S'--'
p393
sg29
S'--'
p394
sg31
S'W35-6'
p395
sg33
S'--'
p396
sg35
S'--'
p397
sg37
S'@ARI'
p398
sg39
S'--'
p399
sg41
S'--'
p400
sg43
S'--'
p401
sssS'2010'
p402
(dp403
g3
(dp404
g5
S'--'
p405
sg7
S'--'
p406
sg9
g10
sg11
S'--'
p407
sg13
g10
sg15
S'Tony Moeaki'
p408
sg17
S'2010'
p409
sg19
S'11'
p410
sg21
S'--'
p411
sg23
S'11/21'
p412
sg25
S'--'
p413
sg27
S'--'
p414
sg29
S'--'
p415
sg31
S'W31-13'
p416
sg33
S'--'
p417
sg35
S'--'
p418
sg37
S'ARI'
p419
sg39
S'--'
p420
sg41
S'--'
p421
sg43
S'--'
p422
ssg45
(dp423
g5
S'--'
p424
sg7
S'--'
p425
sg9
g14
sg11
S'--'
p426
sg13
g14
sg15
S'Tony Moeaki'
p427
sg17
S'2010'
p428
sg19
S'10'
p429
sg21
S'--'
p430
sg23
S'11/14'
p431
sg25
S'34.0'
p432
sg27
S'--'
p433
sg29
S'--'
p434
sg31
S'L29-49'
p435
sg33
S'34'
p436
sg35
g14
sg37
S'@DEN'
p437
sg39
S'34'
p438
sg41
g10
sg43
S'--'
p439
ssg52
(dp440
g5
S'--'
p441
sg7
S'--'
p442
sg9
g14
sg11
S'--'
p443
sg13
g14
sg15
S'Tony Moeaki'
p444
sg17
S'2010'
p445
sg19
S'13'
p446
sg21
S'--'
p447
sg23
S'12/05'
p448
sg25
S'13.5'
p449
sg27
S'--'
p450
sg29
S'--'
p451
sg31
S'W10-6'
p452
sg33
S'54'
p453
sg35
g329
sg37
S'DEN'
p454
sg39
S'21'
p455
sg41
g10
sg43
S'--'
p456
ssg72
(dp457
g5
S'--'
p458
sg7
S'--'
p459
sg9
g14
sg11
S'--'
p460
sg13
g14
sg15
S'Tony Moeaki'
p461
sg17
S'2010'
p462
sg19
S'12'
p463
sg21
S'--'
p464
sg23
S'11/28'
p465
sg25
S'6.0'
p466
sg27
S'--'
p467
sg29
S'--'
p468
sg31
S'W42-24'
p469
sg33
g204
sg35
g14
sg37
S'@SEA'
p470
sg39
S'6T'
p471
sg41
g14
sg43
S'--'
p472
ssg92
(dp473
g5
S'--'
p474
sg7
S'--'
p475
sg9
g14
sg11
S'--'
p476
sg13
g14
sg15
S'Tony Moeaki'
p477
sg17
S'2010'
p478
sg19
S'15'
p479
sg21
S'--'
p480
sg23
S'12/19'
p481
sg25
S'8.3'
p482
sg27
S'--'
p483
sg29
S'--'
p484
sg31
S'W27-13'
p485
sg33
S'25'
p486
sg35
S'3'
p487
sg37
S'@STL'
p488
sg39
S'12'
p489
sg41
g10
sg43
S'--'
p490
ssg109
(dp491
g5
S'--'
p492
sg7
S'--'
p493
sg9
g14
sg11
S'--'
p494
sg13
g14
sg15
S'Tony Moeaki'
p495
sg17
S'2010'
p496
sg19
S'14'
p497
sg21
S'--'
p498
sg23
S'12/12'
p499
sg25
S'6.5'
p500
sg27
S'--'
p501
sg29
S'--'
p502
sg31
S'L0-31'
p503
sg33
S'13'
p504
sg35
g144
sg37
S'@SD'
p505
sg39
g242
sg41
g10
sg43
S'--'
p506
ssg129
(dp507
g5
S'--'
p508
sg7
S'--'
p509
sg9
g14
sg11
S'--'
p510
sg13
g14
sg15
S'Tony Moeaki'
p511
sg17
S'2010'
p512
sg19
S'17'
p513
sg21
S'--'
p514
sg23
S'01/02'
p515
sg25
S'17.0'
p516
sg27
S'--'
p517
sg29
S'--'
p518
sg31
S'L10-31'
p519
sg33
S'17'
p520
sg35
g14
sg37
S'OAK'
p521
sg39
S'17'
p522
sg41
g10
sg43
S'--'
p523
ssg148
(dp524
g5
S'--'
p525
sg7
S'--'
p526
sg9
g14
sg11
S'--'
p527
sg13
g14
sg15
S'Tony Moeaki'
p528
sg17
S'2010'
p529
sg19
S'16'
p530
sg21
S'--'
p531
sg23
S'12/26'
p532
sg25
S'12.6'
p533
sg27
S'--'
p534
sg29
S'--'
p535
sg31
S'W34-14'
p536
sg33
S'63'
p537
sg35
g168
sg37
S'TEN'
p538
sg39
S'19'
p539
sg41
g10
sg43
S'--'
p540
ssg14
(dp541
g5
S'--'
p542
sg7
S'--'
p543
sg9
g14
sg11
S'--'
p544
sg13
g14
sg15
S'Tony Moeaki'
p545
sg17
S'2010'
p546
sg19
g14
sg21
S'--'
p547
sg23
S'09/13'
p548
sg25
S'7.0'
p549
sg27
S'--'
p550
sg29
S'--'
p551
sg31
S'W21-14'
p552
sg33
S'21'
p553
sg35
g487
sg37
S'SD'
p554
sg39
S'16'
p555
sg41
g14
sg43
S'--'
p556
ssg487
(dp557
g5
S'--'
p558
sg7
S'--'
p559
sg9
g14
sg11
S'--'
p560
sg13
g14
sg15
S'Tony Moeaki'
p561
sg17
S'2010'
p562
sg19
g487
sg21
S'--'
p563
sg23
S'09/26'
p564
sg25
S'11.0'
p565
sg27
S'--'
p566
sg29
S'--'
p567
sg31
S'W31-10'
p568
sg33
S'44'
p569
sg35
g329
sg37
S'SF'
p570
sg39
S'18T'
p571
sg41
g14
sg43
S'--'
p572
ssg144
(dp573
g5
S'--'
p574
sg7
S'--'
p575
sg9
g14
sg11
S'--'
p576
sg13
g14
sg15
S'Tony Moeaki'
p577
sg17
S'2010'
p578
sg19
g144
sg21
S'--'
p579
sg23
S'09/19'
p580
sg25
S'11.6'
p581
sg27
S'--'
p582
sg29
S'--'
p583
sg31
S'W16-14'
p584
sg33
S'58'
p585
sg35
g168
sg37
S'@CLE'
p586
sg39
S'20'
p587
sg41
g10
sg43
S'--'
p588
ssg168
(dp589
g5
S'--'
p590
sg7
S'--'
p591
sg9
g14
sg11
S'--'
p592
sg13
g14
sg15
S'Tony Moeaki'
p593
sg17
S'2010'
p594
sg19
g168
sg21
S'--'
p595
sg23
S'10/10'
p596
sg25
S'12.5'
p597
sg27
S'--'
p598
sg29
S'--'
p599
sg31
S'L9-19'
p600
sg33
S'50'
p601
sg35
g329
sg37
S'@IND'
p602
sg39
S'27'
p603
sg41
g10
sg43
S'--'
p604
ssg329
(dp605
g5
g47
sg7
g47
sg9
g47
sg11
g47
sg13
g47
sg15
S'Tony Moeaki'
p606
sg17
S'2010'
p607
sg19
g329
sg21
g47
sg23
S'Bye'
p608
sg25
g47
sg27
g47
sg29
g47
sg31
g47
sg33
g47
sg35
g47
sg37
g47
sg39
g47
sg41
g47
sg43
g47
ssg187
(dp609
g5
S'--'
p610
sg7
S'--'
p611
sg9
g14
sg11
S'--'
p612
sg13
g14
sg15
S'Tony Moeaki'
p613
sg17
S'2010'
p614
sg19
g187
sg21
S'--'
p615
sg23
S'10/24'
p616
sg25
S'14.0'
p617
sg27
S'--'
p618
sg29
S'--'
p619
sg31
S'W42-20'
p620
sg33
S'42'
p621
sg35
g487
sg37
S'JAC'
p622
sg39
S'20'
p623
sg41
g10
sg43
S'--'
p624
ssg204
(dp625
g5
S'--'
p626
sg7
S'--'
p627
sg9
g14
sg11
S'--'
p628
sg13
g14
sg15
S'Tony Moeaki'
p629
sg17
S'2010'
p630
sg19
g204
sg21
S'--'
p631
sg23
S'10/17'
p632
sg25
S'10.5'
p633
sg27
S'--'
p634
sg29
S'--'
p635
sg31
S'L31-35'
p636
sg33
S'21'
p637
sg35
g144
sg37
S'@HOU'
p638
sg39
S'11'
p639
sg41
g10
sg43
S'--'
p640
ssg223
(dp641
g5
S'--'
p642
sg7
S'--'
p643
sg9
g14
sg11
S'--'
p644
sg13
g14
sg15
S'Tony Moeaki'
p645
sg17
S'2010'
p646
sg19
g223
sg21
S'--'
p647
sg23
S'11/07'
p648
sg25
S'10.5'
p649
sg27
S'--'
p650
sg29
S'--'
p651
sg31
S'L20-23'
p652
sg33
S'63'
p653
sg35
g204
sg37
S'@OAK'
p654
sg39
S'23'
p655
sg41
g10
sg43
S'--'
p656
ssg242
(dp657
g5
S'--'
p658
sg7
S'--'
p659
sg9
g14
sg11
S'--'
p660
sg13
g14
sg15
S'Tony Moeaki'
p661
sg17
S'2010'
p662
sg19
g242
sg21
S'--'
p663
sg23
S'10/31'
p664
sg25
S'15.0'
p665
sg27
S'--'
p666
sg29
S'--'
p667
sg31
S'W13-10'
p668
sg33
S'45'
p669
sg35
g487
sg37
S'BUF'
p670
sg39
S'18'
p671
sg41
g10
sg43
S'--'
p672
sssS'2013'
p673
(dp674
g92
(dp675
g5
S'--'
p676
sg7
S'--'
p677
sg9
g10
sg11
S'--'
p678
sg13
g10
sg15
S'Tony Moeaki'
p679
sg17
S'2013'
p680
sg19
S'15'
p681
sg21
S'--'
p682
sg23
S'12/15'
p683
sg25
S'--'
p684
sg27
S'--'
p685
sg29
S'--'
p686
sg31
S'W27-20'
p687
sg33
S'--'
p688
sg35
S'--'
p689
sg37
S'@JAC'
p690
sg39
S'--'
p691
sg41
S'--'
p692
sg43
S'--'
p693
ssg109
(dp694
g5
S'--'
p695
sg7
S'--'
p696
sg9
g10
sg11
S'--'
p697
sg13
g10
sg15
S'Tony Moeaki'
p698
sg17
S'2013'
p699
sg19
S'14'
p700
sg21
S'--'
p701
sg23
S'12/08'
p702
sg25
S'--'
p703
sg27
S'--'
p704
sg29
S'--'
p705
sg31
S'L6-27'
p706
sg33
S'--'
p707
sg35
S'--'
p708
sg37
S'@TB'
p709
sg39
S'--'
p710
sg41
S'--'
p711
sg43
S'--'
p712
ssg129
(dp713
g5
S'--'
p714
sg7
S'--'
p715
sg9
g10
sg11
S'--'
p716
sg13
g14
sg15
S'Tony Moeaki'
p717
sg17
S'2013'
p718
sg19
S'17'
p719
sg21
S'--'
p720
sg23
S'12/29'
p721
sg25
S'--'
p722
sg27
S'--'
p723
sg29
S'--'
p724
sg31
S'L20-34'
p725
sg33
S'--'
p726
sg35
S'--'
p727
sg37
S'@NE'
p728
sg39
S'--'
p729
sg41
S'--'
p730
sg43
S'--'
p731
ssg148
(dp732
g5
S'--'
p733
sg7
S'--'
p734
sg9
g10
sg11
S'--'
p735
sg13
g14
sg15
S'Tony Moeaki'
p736
sg17
S'2013'
p737
sg19
S'16'
p738
sg21
S'--'
p739
sg23
S'12/22'
p740
sg25
S'--'
p741
sg27
S'--'
p742
sg29
S'--'
p743
sg31
S'W19-0'
p744
sg33
S'--'
p745
sg35
S'--'
p746
sg37
S'MIA'
p747
sg39
S'--'
p748
sg41
S'--'
p749
sg43
S'--'
p750
sssS'2012'
p751
(dp752
g3
(dp753
g5
S'--'
p754
sg7
S'--'
p755
sg9
g14
sg11
S'--'
p756
sg13
g14
sg15
S'Tony Moeaki'
p757
sg17
S'2012'
p758
sg19
S'11'
p759
sg21
S'--'
p760
sg23
S'11/18'
p761
sg25
S'18.3'
p762
sg27
S'--'
p763
sg29
S'--'
p764
sg31
S'L6-28'
p765
sg33
S'73'
p766
sg35
g329
sg37
S'CIN'
p767
sg39
S'22'
p768
sg41
g10
sg43
S'--'
p769
ssg45
(dp770
g5
S'--'
p771
sg7
S'--'
p772
sg9
g14
sg11
S'--'
p773
sg13
g14
sg15
S'Tony Moeaki'
p774
sg17
S'2012'
p775
sg19
S'10'
p776
sg21
S'--'
p777
sg23
S'11/12'
p778
sg25
S'22.7'
p779
sg27
S'--'
p780
sg29
S'--'
p781
sg31
S'L13-16'
p782
sg33
S'68'
p783
sg35
g487
sg37
S'@PIT'
p784
sg39
S'38'
p785
sg41
g10
sg43
S'--'
p786
ssg52
(dp787
g5
S'--'
p788
sg7
S'--'
p789
sg9
g14
sg11
S'--'
p790
sg13
g14
sg15
S'Tony Moeaki'
p791
sg17
S'2012'
p792
sg19
S'13'
p793
sg21
S'--'
p794
sg23
S'12/02'
p795
sg25
S'13.5'
p796
sg27
S'--'
p797
sg29
S'--'
p798
sg31
S'W27-21'
p799
sg33
S'54'
p800
sg35
g329
sg37
S'CAR'
p801
sg39
S'25'
p802
sg41
g14
sg43
S'--'
p803
ssg72
(dp804
g5
S'--'
p805
sg7
S'--'
p806
sg9
g14
sg11
S'--'
p807
sg13
g14
sg15
S'Tony Moeaki'
p808
sg17
S'2012'
p809
sg19
S'12'
p810
sg21
S'--'
p811
sg23
S'11/25'
p812
sg25
S'20.0'
p813
sg27
S'--'
p814
sg29
S'--'
p815
sg31
S'L9-17'
p816
sg33
S'40'
p817
sg35
g144
sg37
S'DEN'
p818
sg39
S'21'
p819
sg41
g10
sg43
S'--'
p820
ssg92
(dp821
g5
S'--'
p822
sg7
S'--'
p823
sg9
g14
sg11
S'--'
p824
sg13
g14
sg15
S'Tony Moeaki'
p825
sg17
S'2012'
p826
sg19
S'15'
p827
sg21
S'--'
p828
sg23
S'12/16'
p829
sg25
S'12.0'
p830
sg27
S'--'
p831
sg29
S'--'
p832
sg31
S'L0-15'
p833
sg33
S'36'
p834
sg35
g487
sg37
S'@OAK'
p835
sg39
S'17'
p836
sg41
g10
sg43
S'--'
p837
ssg109
(dp838
g5
S'--'
p839
sg7
S'--'
p840
sg9
g14
sg11
S'--'
p841
sg13
g14
sg15
S'Tony Moeaki'
p842
sg17
S'2012'
p843
sg19
S'14'
p844
sg21
S'--'
p845
sg23
S'12/09'
p846
sg25
S'10.0'
p847
sg27
S'--'
p848
sg29
S'--'
p849
sg31
S'L7-30'
p850
sg33
S'10'
p851
sg35
g14
sg37
S'@CLE'
p852
sg39
S'10'
p853
sg41
g10
sg43
S'--'
p854
ssg129
(dp855
g5
S'--'
p856
sg7
S'--'
p857
sg9
g14
sg11
S'--'
p858
sg13
g14
sg15
S'Tony Moeaki'
p859
sg17
S'2012'
p860
sg19
S'17'
p861
sg21
S'--'
p862
sg23
S'12/30'
p863
sg25
S'10.5'
p864
sg27
S'--'
p865
sg29
S'--'
p866
sg31
S'L3-38'
p867
sg33
S'21'
p868
sg35
g144
sg37
S'@DEN'
p869
sg39
S'16'
p870
sg41
g10
sg43
S'--'
p871
ssg148
(dp872
g5
S'--'
p873
sg7
S'--'
p874
sg9
g10
sg11
S'--'
p875
sg13
g10
sg15
S'Tony Moeaki'
p876
sg17
S'2012'
p877
sg19
S'16'
p878
sg21
S'--'
p879
sg23
S'12/23'
p880
sg25
S'--'
p881
sg27
S'--'
p882
sg29
S'--'
p883
sg31
S'L13-20'
p884
sg33
S'--'
p885
sg35
S'--'
p886
sg37
S'IND'
p887
sg39
S'--'
p888
sg41
S'--'
p889
sg43
S'--'
p890
ssg14
(dp891
g5
S'--'
p892
sg7
S'--'
p893
sg9
g14
sg11
S'--'
p894
sg13
g14
sg15
S'Tony Moeaki'
p895
sg17
S'2012'
p896
sg19
g14
sg21
S'--'
p897
sg23
S'09/09'
p898
sg25
S'12.3'
p899
sg27
S'--'
p900
sg29
S'--'
p901
sg31
S'L24-40'
p902
sg33
S'37'
p903
sg35
g487
sg37
S'ATL'
p904
sg39
S'18'
p905
sg41
g10
sg43
S'--'
p906
ssg487
(dp907
g5
S'--'
p908
sg7
S'--'
p909
sg9
g14
sg11
S'--'
p910
sg13
g14
sg15
S'Tony Moeaki'
p911
sg17
S'2012'
p912
sg19
g487
sg21
S'--'
p913
sg23
S'09/23'
p914
sg25
S'6.0'
p915
sg27
S'--'
p916
sg29
S'--'
p917
sg31
S'W27-24'
p918
sg33
S'12'
p919
sg35
g144
sg37
S'@NO'
p920
sg39
g187
sg41
g10
sg43
S'--'
p921
ssg144
(dp922
g5
S'--'
p923
sg7
S'--'
p924
sg9
g10
sg11
S'--'
p925
sg13
g14
sg15
S'Tony Moeaki'
p926
sg17
S'2012'
p927
sg19
g144
sg21
S'--'
p928
sg23
S'09/16'
p929
sg25
S'9.0'
p930
sg27
S'--'
p931
sg29
S'--'
p932
sg31
S'L17-35'
p933
sg33
g223
sg35
g14
sg37
S'@BUF'
p934
sg39
g223
sg41
g10
sg43
S'--'
p935
ssg168
(dp936
g5
S'--'
p937
sg7
S'--'
p938
sg9
g14
sg11
S'--'
p939
sg13
g14
sg15
S'Tony Moeaki'
p940
sg17
S'2012'
p941
sg19
g168
sg21
S'--'
p942
sg23
S'10/07'
p943
sg25
S'--'
p944
sg27
S'--'
p945
sg29
S'--'
p946
sg31
S'L6-9'
p947
sg33
g10
sg35
g10
sg37
S'BAL'
p948
sg39
S'--'
p949
sg41
g10
sg43
S'--'
p950
ssg329
(dp951
g5
S'--'
p952
sg7
S'--'
p953
sg9
g14
sg11
S'--'
p954
sg13
g14
sg15
S'Tony Moeaki'
p955
sg17
S'2012'
p956
sg19
g329
sg21
S'--'
p957
sg23
S'09/30'
p958
sg25
S'6.0'
p959
sg27
S'--'
p960
sg29
S'--'
p961
sg31
S'L20-37'
p962
sg33
S'18'
p963
sg35
g487
sg37
S'SD'
p964
sg39
S'12'
p965
sg41
g10
sg43
S'--'
p966
ssg187
(dp967
g5
g47
sg7
g47
sg9
g47
sg11
g47
sg13
g47
sg15
S'Tony Moeaki'
p968
sg17
S'2012'
p969
sg19
g187
sg21
g47
sg23
S'Bye'
p970
sg25
g47
sg27
g47
sg29
g47
sg31
g47
sg33
g47
sg35
g47
sg37
g47
sg39
g47
sg41
g47
sg43
g47
ssg204
(dp971
g5
S'--'
p972
sg7
S'--'
p973
sg9
g14
sg11
S'--'
p974
sg13
g14
sg15
S'Tony Moeaki'
p975
sg17
S'2012'
p976
sg19
g204
sg21
S'--'
p977
sg23
S'10/14'
p978
sg25
S'18.0'
p979
sg27
S'--'
p980
sg29
S'--'
p981
sg31
S'L10-38'
p982
sg33
S'18'
p983
sg35
g14
sg37
S'@TB'
p984
sg39
S'18'
p985
sg41
g10
sg43
S'--'
p986
ssg223
(dp987
g5
S'--'
p988
sg7
S'--'
p989
sg9
g14
sg11
S'--'
p990
sg13
g14
sg15
S'Tony Moeaki'
p991
sg17
S'2012'
p992
sg19
g223
sg21
S'--'
p993
sg23
S'11/01'
p994
sg25
S'--'
p995
sg27
S'--'
p996
sg29
S'--'
p997
sg31
S'L13-31'
p998
sg33
S'--'
p999
sg35
S'--'
p1000
sg37
S'@SD'
p1001
sg39
S'--'
p1002
sg41
S'--'
p1003
sg43
S'--'
p1004
ssg242
(dp1005
g5
S'--'
p1006
sg7
S'--'
p1007
sg9
g14
sg11
S'--'
p1008
sg13
g14
sg15
S'Tony Moeaki'
p1009
sg17
S'2012'
p1010
sg19
g242
sg21
S'--'
p1011
sg23
S'10/28'
p1012
sg25
S'14.3'
p1013
sg27
S'--'
p1014
sg29
S'--'
p1015
sg31
S'L16-26'
p1016
sg33
S'57'
p1017
sg35
g329
sg37
S'OAK'
p1018
sg39
S'20'
p1019
sg41
g10
sg43
S'--'
p1020
sss.