(dp0
S'2015'
p1
(dp2
S'11'
p3
(dp4
S'RushTD'
p5
S'--'
p6
sS'RushYds'
p7
S'--'
p8
sS'GS'
p9
S'0'
p10
sS'Lost'
p11
S'--'
p12
sS'G'
p13
S'1'
p14
sS'Player'
p15
S'Trey Burton'
p16
sS'Year'
p17
S'2015'
p18
sS'WK'
p19
S'11'
p20
sS'RushAvg'
p21
S'--'
p22
sS'Game Date'
p23
S'11/22'
p24
sS'RecAvg'
p25
S'--'
p26
sS'FUM'
p27
S'--'
p28
sS'RushAtt'
p29
S'--'
p30
sS'Result'
p31
S'L17-45'
p32
sS'RecYds'
p33
g10
sS'Rec'
p34
g10
sS'Opp'
p35
S'TB'
p36
sS'RecLng'
p37
S'--'
p38
sS'RecTD'
p39
g10
sS'RushLng'
p40
S'--'
p41
ssS'10'
p42
(dp43
g5
S'--'
p44
sg7
S'--'
p45
sg9
g10
sg11
S'--'
p46
sg13
g14
sg15
S'Trey Burton'
p47
sg17
S'2015'
p48
sg19
S'10'
p49
sg21
S'--'
p50
sg23
S'11/15'
p51
sg25
S'--'
p52
sg27
S'--'
p53
sg29
S'--'
p54
sg31
S'L19-20'
p55
sg33
S'--'
p56
sg34
S'--'
p57
sg35
S'MIA'
p58
sg37
S'--'
p59
sg39
S'--'
p60
sg40
S'--'
p61
ssS'13'
p62
(dp63
g5
S'--'
p64
sg7
S'--'
p65
sg9
g10
sg11
S'--'
p66
sg13
g14
sg15
S'Trey Burton'
p67
sg17
S'2015'
p68
sg19
S'13'
p69
sg21
S'--'
p70
sg23
S'12/06'
p71
sg25
S'--'
p72
sg27
S'--'
p73
sg29
S'--'
p74
sg31
S'W35-28'
p75
sg33
S'--'
p76
sg34
S'--'
p77
sg35
S'@NE'
p78
sg37
S'--'
p79
sg39
S'--'
p80
sg40
S'--'
p81
ssS'12'
p82
(dp83
g5
S'--'
p84
sg7
S'--'
p85
sg9
g10
sg11
S'--'
p86
sg13
g14
sg15
S'Trey Burton'
p87
sg17
S'2015'
p88
sg19
S'12'
p89
sg21
S'--'
p90
sg23
S'11/26'
p91
sg25
S'24.5'
p92
sg27
S'--'
p93
sg29
S'--'
p94
sg31
S'L14-45'
p95
sg33
S'49'
p96
sg34
S'2'
p97
sg35
S'@DET'
p98
sg37
S'43'
p99
sg39
g10
sg40
S'--'
p100
ssS'15'
p101
(dp102
g5
S'--'
p103
sg7
S'--'
p104
sg9
g10
sg11
S'--'
p105
sg13
g14
sg15
S'Trey Burton'
p106
sg17
S'2015'
p107
sg19
S'15'
p108
sg21
S'--'
p109
sg23
S'12/20'
p110
sg25
S'--'
p111
sg27
S'--'
p112
sg29
S'--'
p113
sg31
S'L17-40'
p114
sg33
S'--'
p115
sg34
S'--'
p116
sg35
S'ARI'
p117
sg37
S'--'
p118
sg39
S'--'
p119
sg40
S'--'
p120
ssS'14'
p121
(dp122
g5
S'--'
p123
sg7
S'--'
p124
sg9
g10
sg11
S'--'
p125
sg13
g14
sg15
S'Trey Burton'
p126
sg17
S'2015'
p127
sg19
S'14'
p128
sg21
S'--'
p129
sg23
S'12/13'
p130
sg25
S'--'
p131
sg27
S'--'
p132
sg29
S'--'
p133
sg31
S'W23-20'
p134
sg33
S'--'
p135
sg34
S'--'
p136
sg35
S'BUF'
p137
sg37
S'--'
p138
sg39
S'--'
p139
sg40
S'--'
p140
ssS'17'
p141
(dp142
g5
S'--'
p143
sg7
S'--'
p144
sg9
g10
sg11
S'--'
p145
sg13
g14
sg15
S'Trey Burton'
p146
sg17
S'2015'
p147
sg19
S'17'
p148
sg21
S'--'
p149
sg23
S'01/03'
p150
sg25
S'5.0'
p151
sg27
S'--'
p152
sg29
S'--'
p153
sg31
S'W35-30'
p154
sg33
S'5'
p155
sg34
g14
sg35
S'@NYG'
p156
sg37
g155
sg39
g10
sg40
S'--'
p157
ssS'16'
p158
(dp159
g5
S'--'
p160
sg7
S'--'
p161
sg9
g10
sg11
S'--'
p162
sg13
g14
sg15
S'Trey Burton'
p163
sg17
S'2015'
p164
sg19
S'16'
p165
sg21
S'--'
p166
sg23
S'12/26'
p167
sg25
S'--'
p168
sg27
S'--'
p169
sg29
S'--'
p170
sg31
S'L24-38'
p171
sg33
S'--'
p172
sg34
S'--'
p173
sg35
S'WAS'
p174
sg37
S'--'
p175
sg39
S'--'
p176
sg40
S'--'
p177
ssg14
(dp178
g5
S'--'
p179
sg7
S'--'
p180
sg9
g10
sg11
S'--'
p181
sg13
g14
sg15
S'Trey Burton'
p182
sg17
S'2015'
p183
sg19
g14
sg21
S'--'
p184
sg23
S'09/14'
p185
sg25
S'--'
p186
sg27
S'--'
p187
sg29
S'--'
p188
sg31
S'L24-26'
p189
sg33
S'--'
p190
sg34
S'--'
p191
sg35
S'@ATL'
p192
sg37
S'--'
p193
sg39
S'--'
p194
sg40
S'--'
p195
ssS'3'
p196
(dp197
g5
S'--'
p198
sg7
S'--'
p199
sg9
g10
sg11
S'--'
p200
sg13
g14
sg15
S'Trey Burton'
p201
sg17
S'2015'
p202
sg19
g196
sg21
S'--'
p203
sg23
S'09/27'
p204
sg25
S'--'
p205
sg27
S'--'
p206
sg29
S'--'
p207
sg31
S'W24-17'
p208
sg33
S'--'
p209
sg34
S'--'
p210
sg35
S'@NYJ'
p211
sg37
S'--'
p212
sg39
S'--'
p213
sg40
S'--'
p214
ssg97
(dp215
g5
S'--'
p216
sg7
S'--'
p217
sg9
g10
sg11
S'--'
p218
sg13
g14
sg15
S'Trey Burton'
p219
sg17
S'2015'
p220
sg19
g97
sg21
S'--'
p221
sg23
S'09/20'
p222
sg25
S'--'
p223
sg27
S'--'
p224
sg29
S'--'
p225
sg31
S'L10-20'
p226
sg33
S'--'
p227
sg34
S'--'
p228
sg35
S'DAL'
p229
sg37
S'--'
p230
sg39
S'--'
p231
sg40
S'--'
p232
ssg155
(dp233
g5
S'--'
p234
sg7
S'--'
p235
sg9
g10
sg11
S'--'
p236
sg13
g14
sg15
S'Trey Burton'
p237
sg17
S'2015'
p238
sg19
g155
sg21
S'--'
p239
sg23
S'10/11'
p240
sg25
S'--'
p241
sg27
S'--'
p242
sg29
S'--'
p243
sg31
S'W39-17'
p244
sg33
S'--'
p245
sg34
S'--'
p246
sg35
S'NO'
p247
sg37
S'--'
p248
sg39
S'--'
p249
sg40
S'--'
p250
ssS'4'
p251
(dp252
g5
S'--'
p253
sg7
S'--'
p254
sg9
g10
sg11
S'--'
p255
sg13
g14
sg15
S'Trey Burton'
p256
sg17
S'2015'
p257
sg19
g251
sg21
S'--'
p258
sg23
S'10/04'
p259
sg25
S'--'
p260
sg27
S'--'
p261
sg29
S'--'
p262
sg31
S'L20-23'
p263
sg33
S'--'
p264
sg34
S'--'
p265
sg35
S'@WAS'
p266
sg37
S'--'
p267
sg39
S'--'
p268
sg40
S'--'
p269
ssS'7'
p270
(dp271
g5
S'--'
p272
sg7
S'--'
p273
sg9
g10
sg11
S'--'
p274
sg13
g14
sg15
S'Trey Burton'
p275
sg17
S'2015'
p276
sg19
g270
sg21
S'--'
p277
sg23
S'10/25'
p278
sg25
S'--'
p279
sg27
S'--'
p280
sg29
S'--'
p281
sg31
S'L16-27'
p282
sg33
S'--'
p283
sg34
S'--'
p284
sg35
S'@CAR'
p285
sg37
S'--'
p286
sg39
S'--'
p287
sg40
S'--'
p288
ssS'6'
p289
(dp290
g5
S'--'
p291
sg7
S'--'
p292
sg9
g10
sg11
S'--'
p293
sg13
g14
sg15
S'Trey Burton'
p294
sg17
S'2015'
p295
sg19
g289
sg21
S'--'
p296
sg23
S'10/19'
p297
sg25
S'--'
p298
sg27
S'--'
p299
sg29
S'--'
p300
sg31
S'W27-7'
p301
sg33
S'--'
p302
sg34
S'--'
p303
sg35
S'NYG'
p304
sg37
S'--'
p305
sg39
S'--'
p306
sg40
S'--'
p307
ssS'9'
p308
(dp309
g5
S'--'
p310
sg7
S'--'
p311
sg9
g10
sg11
S'--'
p312
sg13
g14
sg15
S'Trey Burton'
p313
sg17
S'2015'
p314
sg19
g308
sg21
S'--'
p315
sg23
S'11/08'
p316
sg25
S'--'
p317
sg27
S'--'
p318
sg29
S'--'
p319
sg31
S'W33-27'
p320
sg33
S'--'
p321
sg34
S'--'
p322
sg35
S'@DAL'
p323
sg37
S'--'
p324
sg39
S'--'
p325
sg40
S'--'
p326
ssS'8'
p327
(dp328
g5
S''
p329
sg7
g329
sg9
g329
sg11
g329
sg13
g329
sg15
S'Trey Burton'
p330
sg17
S'2015'
p331
sg19
g327
sg21
g329
sg23
S'Bye'
p332
sg25
g329
sg27
g329
sg29
g329
sg31
g329
sg33
g329
sg34
g329
sg35
g329
sg37
g329
sg39
g329
sg40
g329
sssS'2014'
p333
(dp334
g3
(dp335
g5
S'--'
p336
sg7
S'--'
p337
sg9
g10
sg11
S'--'
p338
sg13
g14
sg15
S'Trey Burton'
p339
sg17
S'2014'
p340
sg19
S'11'
p341
sg21
S'--'
p342
sg23
S'11/16'
p343
sg25
S'--'
p344
sg27
S'--'
p345
sg29
S'--'
p346
sg31
S'L20-53'
p347
sg33
S'--'
p348
sg34
S'--'
p349
sg35
S'@GB'
p350
sg37
S'--'
p351
sg39
S'--'
p352
sg40
S'--'
p353
ssg42
(dp354
g5
S'--'
p355
sg7
S'--'
p356
sg9
g10
sg11
S'--'
p357
sg13
g14
sg15
S'Trey Burton'
p358
sg17
S'2014'
p359
sg19
S'10'
p360
sg21
S'--'
p361
sg23
S'11/10'
p362
sg25
S'--'
p363
sg27
S'--'
p364
sg29
S'--'
p365
sg31
S'W45-21'
p366
sg33
S'--'
p367
sg34
S'--'
p368
sg35
S'CAR'
p369
sg37
S'--'
p370
sg39
S'--'
p371
sg40
S'--'
p372
ssg62
(dp373
g5
S'--'
p374
sg7
S'--'
p375
sg9
g10
sg11
S'--'
p376
sg13
g14
sg15
S'Trey Burton'
p377
sg17
S'2014'
p378
sg19
S'13'
p379
sg21
S'--'
p380
sg23
S'11/27'
p381
sg25
S'--'
p382
sg27
S'--'
p383
sg29
S'--'
p384
sg31
S'W33-10'
p385
sg33
S'--'
p386
sg34
S'--'
p387
sg35
S'@DAL'
p388
sg37
S'--'
p389
sg39
S'--'
p390
sg40
S'--'
p391
ssg82
(dp392
g5
S'--'
p393
sg7
S'--'
p394
sg9
g10
sg11
S'--'
p395
sg13
g14
sg15
S'Trey Burton'
p396
sg17
S'2014'
p397
sg19
S'12'
p398
sg21
S'--'
p399
sg23
S'11/23'
p400
sg25
S'--'
p401
sg27
S'--'
p402
sg29
S'--'
p403
sg31
S'W43-24'
p404
sg33
S'--'
p405
sg34
S'--'
p406
sg35
S'TEN'
p407
sg37
S'--'
p408
sg39
S'--'
p409
sg40
S'--'
p410
ssg101
(dp411
g5
S'--'
p412
sg7
S'--'
p413
sg9
g10
sg11
S'--'
p414
sg13
g14
sg15
S'Trey Burton'
p415
sg17
S'2014'
p416
sg19
S'15'
p417
sg21
S'--'
p418
sg23
S'12/14'
p419
sg25
S'--'
p420
sg27
S'--'
p421
sg29
S'--'
p422
sg31
S'L27-38'
p423
sg33
S'--'
p424
sg34
S'--'
p425
sg35
S'DAL'
p426
sg37
S'--'
p427
sg39
S'--'
p428
sg40
S'--'
p429
ssg121
(dp430
g5
S'--'
p431
sg7
S'--'
p432
sg9
g10
sg11
S'--'
p433
sg13
g10
sg15
S'Trey Burton'
p434
sg17
S'2014'
p435
sg19
S'14'
p436
sg21
S'--'
p437
sg23
S'12/07'
p438
sg25
S'--'
p439
sg27
S'--'
p440
sg29
S'--'
p441
sg31
S'L14-24'
p442
sg33
S'--'
p443
sg34
S'--'
p444
sg35
S'SEA'
p445
sg37
S'--'
p446
sg39
S'--'
p447
sg40
S'--'
p448
ssg141
(dp449
g5
S'--'
p450
sg7
S'--'
p451
sg9
g10
sg11
S'--'
p452
sg13
g14
sg15
S'Trey Burton'
p453
sg17
S'2014'
p454
sg19
S'17'
p455
sg21
S'--'
p456
sg23
S'12/28'
p457
sg25
S'--'
p458
sg27
S'--'
p459
sg29
S'--'
p460
sg31
S'W34-26'
p461
sg33
S'--'
p462
sg34
S'--'
p463
sg35
S'@NYG'
p464
sg37
S'--'
p465
sg39
S'--'
p466
sg40
S'--'
p467
ssg158
(dp468
g5
S'--'
p469
sg7
S'--'
p470
sg9
g10
sg11
S'--'
p471
sg13
g14
sg15
S'Trey Burton'
p472
sg17
S'2014'
p473
sg19
S'16'
p474
sg21
S'--'
p475
sg23
S'12/20'
p476
sg25
S'--'
p477
sg27
S'--'
p478
sg29
S'--'
p479
sg31
S'L24-27'
p480
sg33
S'--'
p481
sg34
S'--'
p482
sg35
S'@WAS'
p483
sg37
S'--'
p484
sg39
S'--'
p485
sg40
S'--'
p486
ssg14
(dp487
g5
S'--'
p488
sg7
S'--'
p489
sg9
g10
sg11
S'--'
p490
sg13
g14
sg15
S'Trey Burton'
p491
sg17
S'2014'
p492
sg19
g14
sg21
S'--'
p493
sg23
S'09/07'
p494
sg25
S'--'
p495
sg27
S'--'
p496
sg29
S'--'
p497
sg31
S'W34-17'
p498
sg33
S'--'
p499
sg34
S'--'
p500
sg35
S'JAC'
p501
sg37
S'--'
p502
sg39
S'--'
p503
sg40
S'--'
p504
ssg196
(dp505
g5
S'--'
p506
sg7
S'--'
p507
sg9
g10
sg11
S'--'
p508
sg13
g14
sg15
S'Trey Burton'
p509
sg17
S'2014'
p510
sg19
g196
sg21
S'--'
p511
sg23
S'09/21'
p512
sg25
S'--'
p513
sg27
S'--'
p514
sg29
S'--'
p515
sg31
S'W37-34'
p516
sg33
S'--'
p517
sg34
S'--'
p518
sg35
S'WAS'
p519
sg37
S'--'
p520
sg39
S'--'
p521
sg40
S'--'
p522
ssg97
(dp523
g5
S'--'
p524
sg7
S'--'
p525
sg9
g10
sg11
S'--'
p526
sg13
g14
sg15
S'Trey Burton'
p527
sg17
S'2014'
p528
sg19
g97
sg21
S'--'
p529
sg23
S'09/15'
p530
sg25
S'--'
p531
sg27
S'--'
p532
sg29
S'--'
p533
sg31
S'W30-27'
p534
sg33
S'--'
p535
sg34
S'--'
p536
sg35
S'@IND'
p537
sg37
S'--'
p538
sg39
S'--'
p539
sg40
S'--'
p540
ssg155
(dp541
g5
S'--'
p542
sg7
S'--'
p543
sg9
g10
sg11
S'--'
p544
sg13
g14
sg15
S'Trey Burton'
p545
sg17
S'2014'
p546
sg19
g155
sg21
S'--'
p547
sg23
S'10/05'
p548
sg25
S'--'
p549
sg27
S'--'
p550
sg29
S'--'
p551
sg31
S'W34-28'
p552
sg33
S'--'
p553
sg34
S'--'
p554
sg35
S'STL'
p555
sg37
S'--'
p556
sg39
S'--'
p557
sg40
S'--'
p558
ssg251
(dp559
g5
S'--'
p560
sg7
S'--'
p561
sg9
g10
sg11
S'--'
p562
sg13
g14
sg15
S'Trey Burton'
p563
sg17
S'2014'
p564
sg19
g251
sg21
S'--'
p565
sg23
S'09/28'
p566
sg25
S'--'
p567
sg27
S'--'
p568
sg29
S'--'
p569
sg31
S'L21-26'
p570
sg33
S'--'
p571
sg34
S'--'
p572
sg35
S'@SF'
p573
sg37
S'--'
p574
sg39
S'--'
p575
sg40
S'--'
p576
ssg270
(dp577
g5
g329
sg7
g329
sg9
g329
sg11
g329
sg13
g329
sg15
S'Trey Burton'
p578
sg17
S'2014'
p579
sg19
g270
sg21
g329
sg23
S'Bye'
p580
sg25
g329
sg27
g329
sg29
g329
sg31
g329
sg33
g329
sg34
g329
sg35
g329
sg37
g329
sg39
g329
sg40
g329
ssg289
(dp581
g5
g10
sg7
S'10'
p582
sg9
g10
sg11
S'--'
p583
sg13
g14
sg15
S'Trey Burton'
p584
sg17
S'2014'
p585
sg19
g289
sg21
S'2.0'
p586
sg23
S'10/12'
p587
sg25
S'--'
p588
sg27
S'--'
p589
sg29
g155
sg31
S'W27-0'
p590
sg33
S'--'
p591
sg34
S'--'
p592
sg35
S'NYG'
p593
sg37
S'--'
p594
sg39
S'--'
p595
sg40
g251
ssg308
(dp596
g5
S'--'
p597
sg7
S'--'
p598
sg9
g10
sg11
S'--'
p599
sg13
g14
sg15
S'Trey Burton'
p600
sg17
S'2014'
p601
sg19
g308
sg21
S'--'
p602
sg23
S'11/02'
p603
sg25
S'--'
p604
sg27
S'--'
p605
sg29
S'--'
p606
sg31
S'W31-21'
p607
sg33
S'--'
p608
sg34
S'--'
p609
sg35
S'@HOU'
p610
sg37
S'--'
p611
sg39
S'--'
p612
sg40
S'--'
p613
ssg327
(dp614
g5
S'--'
p615
sg7
S'--'
p616
sg9
g10
sg11
S'--'
p617
sg13
g14
sg15
S'Trey Burton'
p618
sg17
S'2014'
p619
sg19
g327
sg21
S'--'
p620
sg23
S'10/26'
p621
sg25
S'--'
p622
sg27
S'--'
p623
sg29
S'--'
p624
sg31
S'L20-24'
p625
sg33
S'--'
p626
sg34
S'--'
p627
sg35
S'@ARI'
p628
sg37
S'--'
p629
sg39
S'--'
p630
sg40
S'--'
p631
sss.