(dp0
S'2015'
p1
(dp2
S'11'
p3
(dp4
S'RushTD'
p5
S'--'
p6
sS'RushYds'
p7
S'--'
p8
sS'GS'
p9
S'0'
p10
sS'Lost'
p11
S'--'
p12
sS'G'
p13
S'1'
p14
sS'Player'
p15
S'Tyler Kroft'
p16
sS'Year'
p17
S'2015'
p18
sS'WK'
p19
S'11'
p20
sS'RushAvg'
p21
S'--'
p22
sS'Game Date'
p23
S'11/22'
p24
sS'RecAvg'
p25
S'--'
p26
sS'FUM'
p27
S'--'
p28
sS'RushAtt'
p29
S'--'
p30
sS'Result'
p31
S'L31-34'
p32
sS'RecYds'
p33
g10
sS'Rec'
p34
g10
sS'Opp'
p35
S'@ARI'
p36
sS'RecLng'
p37
S'--'
p38
sS'RecTD'
p39
g10
sS'RushLng'
p40
S'--'
p41
ssS'10'
p42
(dp43
g5
S'--'
p44
sg7
S'--'
p45
sg9
g10
sg11
S'--'
p46
sg13
g14
sg15
S'Tyler Kroft'
p47
sg17
S'2015'
p48
sg19
S'10'
p49
sg21
S'--'
p50
sg23
S'11/16'
p51
sg25
S'--'
p52
sg27
S'--'
p53
sg29
S'--'
p54
sg31
S'L6-10'
p55
sg33
S'--'
p56
sg34
S'--'
p57
sg35
S'HOU'
p58
sg37
S'--'
p59
sg39
S'--'
p60
sg40
S'--'
p61
ssS'13'
p62
(dp63
g5
S'--'
p64
sg7
S'--'
p65
sg9
g14
sg11
S'--'
p66
sg13
g14
sg15
S'Tyler Kroft'
p67
sg17
S'2015'
p68
sg19
S'13'
p69
sg21
S'--'
p70
sg23
S'12/06'
p71
sg25
S'17.0'
p72
sg27
S'--'
p73
sg29
S'--'
p74
sg31
S'W37-3'
p75
sg33
S'17'
p76
sg34
g14
sg35
S'@CLE'
p77
sg37
S'17'
p78
sg39
g10
sg40
S'--'
p79
ssS'12'
p80
(dp81
g5
S'--'
p82
sg7
S'--'
p83
sg9
g14
sg11
S'--'
p84
sg13
g14
sg15
S'Tyler Kroft'
p85
sg17
S'2015'
p86
sg19
S'12'
p87
sg21
S'--'
p88
sg23
S'11/29'
p89
sg25
S'4.0'
p90
sg27
S'--'
p91
sg29
S'--'
p92
sg31
S'W31-7'
p93
sg33
S'4'
p94
sg34
g14
sg35
S'STL'
p95
sg37
g94
sg39
g10
sg40
S'--'
p96
ssS'15'
p97
(dp98
g5
S'--'
p99
sg7
S'--'
p100
sg9
g14
sg11
S'--'
p101
sg13
g14
sg15
S'Tyler Kroft'
p102
sg17
S'2015'
p103
sg19
S'15'
p104
sg21
S'--'
p105
sg23
S'12/20'
p106
sg25
S'10.3'
p107
sg27
S'--'
p108
sg29
S'--'
p109
sg31
S'W24-14'
p110
sg33
S'31'
p111
sg34
S'3'
p112
sg35
S'@SF'
p113
sg37
S'20T'
p114
sg39
g14
sg40
S'--'
p115
ssS'14'
p116
(dp117
g5
S'--'
p118
sg7
S'--'
p119
sg9
g10
sg11
S'--'
p120
sg13
g14
sg15
S'Tyler Kroft'
p121
sg17
S'2015'
p122
sg19
S'14'
p123
sg21
S'--'
p124
sg23
S'12/13'
p125
sg25
S'15.5'
p126
sg27
S'--'
p127
sg29
S'--'
p128
sg31
S'L20-33'
p129
sg33
S'31'
p130
sg34
S'2'
p131
sg35
S'PIT'
p132
sg37
S'22'
p133
sg39
g10
sg40
S'--'
p134
ssS'17'
p135
(dp136
g5
S'--'
p137
sg7
S'--'
p138
sg9
g14
sg11
S'--'
p139
sg13
g14
sg15
S'Tyler Kroft'
p140
sg17
S'2015'
p141
sg19
S'17'
p142
sg21
S'--'
p143
sg23
S'01/03'
p144
sg25
S'--'
p145
sg27
S'--'
p146
sg29
S'--'
p147
sg31
S'W24-16'
p148
sg33
S'--'
p149
sg34
S'--'
p150
sg35
S'BAL'
p151
sg37
S'--'
p152
sg39
S'--'
p153
sg40
S'--'
p154
ssS'16'
p155
(dp156
g5
S'--'
p157
sg7
S'--'
p158
sg9
g14
sg11
S'--'
p159
sg13
g14
sg15
S'Tyler Kroft'
p160
sg17
S'2015'
p161
sg19
S'16'
p162
sg21
S'--'
p163
sg23
S'12/28'
p164
sg25
S'11.5'
p165
sg27
S'--'
p166
sg29
S'--'
p167
sg31
S'L17-20'
p168
sg33
S'46'
p169
sg34
g94
sg35
S'@DEN'
p170
sg37
S'15'
p171
sg39
g10
sg40
S'--'
p172
ssg14
(dp173
g5
S'--'
p174
sg7
S'--'
p175
sg9
g10
sg11
S'--'
p176
sg13
g14
sg15
S'Tyler Kroft'
p177
sg17
S'2015'
p178
sg19
g14
sg21
S'--'
p179
sg23
S'09/13'
p180
sg25
S'--'
p181
sg27
S'--'
p182
sg29
S'--'
p183
sg31
S'W33-13'
p184
sg33
S'--'
p185
sg34
S'--'
p186
sg35
S'@OAK'
p187
sg37
S'--'
p188
sg39
S'--'
p189
sg40
S'--'
p190
ssg112
(dp191
g5
S'--'
p192
sg7
S'--'
p193
sg9
g10
sg11
S'--'
p194
sg13
g14
sg15
S'Tyler Kroft'
p195
sg17
S'2015'
p196
sg19
g112
sg21
S'--'
p197
sg23
S'09/27'
p198
sg25
S'--'
p199
sg27
S'--'
p200
sg29
S'--'
p201
sg31
S'W28-24'
p202
sg33
S'--'
p203
sg34
S'--'
p204
sg35
S'@BAL'
p205
sg37
S'--'
p206
sg39
S'--'
p207
sg40
S'--'
p208
ssg131
(dp209
g5
S'--'
p210
sg7
S'--'
p211
sg9
g10
sg11
S'--'
p212
sg13
g14
sg15
S'Tyler Kroft'
p213
sg17
S'2015'
p214
sg19
g131
sg21
S'--'
p215
sg23
S'09/20'
p216
sg25
S'--'
p217
sg27
S'--'
p218
sg29
S'--'
p219
sg31
S'W24-19'
p220
sg33
S'--'
p221
sg34
S'--'
p222
sg35
S'SD'
p223
sg37
S'--'
p224
sg39
S'--'
p225
sg40
S'--'
p226
ssS'5'
p227
(dp228
g5
S'--'
p229
sg7
S'--'
p230
sg9
g14
sg11
S'--'
p231
sg13
g14
sg15
S'Tyler Kroft'
p232
sg17
S'2015'
p233
sg19
g227
sg21
S'--'
p234
sg23
S'10/11'
p235
sg25
S'--'
p236
sg27
S'--'
p237
sg29
S'--'
p238
sg31
S'W27-24'
p239
sg33
S'--'
p240
sg34
S'--'
p241
sg35
S'SEA'
p242
sg37
S'--'
p243
sg39
S'--'
p244
sg40
S'--'
p245
ssg94
(dp246
g5
S'--'
p247
sg7
S'--'
p248
sg9
g10
sg11
S'--'
p249
sg13
g14
sg15
S'Tyler Kroft'
p250
sg17
S'2015'
p251
sg19
g94
sg21
S'--'
p252
sg23
S'10/04'
p253
sg25
S'--'
p254
sg27
S'--'
p255
sg29
S'--'
p256
sg31
S'W36-21'
p257
sg33
S'--'
p258
sg34
S'--'
p259
sg35
S'KC'
p260
sg37
S'--'
p261
sg39
S'--'
p262
sg40
S'--'
p263
ssS'7'
p264
(dp265
g5
S''
p266
sg7
g266
sg9
g266
sg11
g266
sg13
g266
sg15
S'Tyler Kroft'
p267
sg17
S'2015'
p268
sg19
g264
sg21
g266
sg23
S'Bye'
p269
sg25
g266
sg27
g266
sg29
g266
sg31
g266
sg33
g266
sg34
g266
sg35
g266
sg37
g266
sg39
g266
sg40
g266
ssS'6'
p270
(dp271
g5
S'--'
p272
sg7
S'--'
p273
sg9
g10
sg11
S'--'
p274
sg13
g14
sg15
S'Tyler Kroft'
p275
sg17
S'2015'
p276
sg19
g270
sg21
S'--'
p277
sg23
S'10/18'
p278
sg25
S'--'
p279
sg27
S'--'
p280
sg29
S'--'
p281
sg31
S'W34-21'
p282
sg33
S'--'
p283
sg34
S'--'
p284
sg35
S'@BUF'
p285
sg37
S'--'
p286
sg39
S'--'
p287
sg40
S'--'
p288
ssS'9'
p289
(dp290
g5
S'--'
p291
sg7
S'--'
p292
sg9
g10
sg11
S'--'
p293
sg13
g14
sg15
S'Tyler Kroft'
p294
sg17
S'2015'
p295
sg19
g289
sg21
S'--'
p296
sg23
S'11/05'
p297
sg25
S'--'
p298
sg27
S'--'
p299
sg29
S'--'
p300
sg31
S'W31-10'
p301
sg33
S'--'
p302
sg34
S'--'
p303
sg35
S'CLE'
p304
sg37
S'--'
p305
sg39
S'--'
p306
sg40
S'--'
p307
ssS'8'
p308
(dp309
g5
S'--'
p310
sg7
S'--'
p311
sg9
g10
sg11
S'--'
p312
sg13
g14
sg15
S'Tyler Kroft'
p313
sg17
S'2015'
p314
sg19
g308
sg21
S'--'
p315
sg23
S'11/01'
p316
sg25
S'--'
p317
sg27
S'--'
p318
sg29
S'--'
p319
sg31
S'W16-10'
p320
sg33
S'--'
p321
sg34
S'--'
p322
sg35
S'@PIT'
p323
sg37
S'--'
p324
sg39
S'--'
p325
sg40
S'--'
p326
sss.