(dp0
S'2015'
p1
(dp2
S'11'
p3
(dp4
S'RushTD'
p5
S'--'
p6
sS'RushYds'
p7
S'--'
p8
sS'GS'
p9
S'1'
p10
sS'Lost'
p11
S'--'
p12
sS'G'
p13
g10
sS'Player'
p14
S'Tyler Eifert'
p15
sS'Year'
p16
S'2015'
p17
sS'WK'
p18
S'11'
p19
sS'RushAvg'
p20
S'--'
p21
sS'Game Date'
p22
S'11/22'
p23
sS'RecAvg'
p24
S'7.3'
p25
sS'FUM'
p26
S'--'
p27
sS'RushAtt'
p28
S'--'
p29
sS'Result'
p30
S'L31-34'
p31
sS'RecYds'
p32
S'22'
p33
sS'Rec'
p34
S'3'
p35
sS'Opp'
p36
S'@ARI'
p37
sS'RecLng'
p38
S'10T'
p39
sS'RecTD'
p40
S'2'
p41
sS'RushLng'
p42
S'--'
p43
ssS'10'
p44
(dp45
g5
S'--'
p46
sg7
S'--'
p47
sg9
S'0'
p48
sg11
S'--'
p49
sg13
g10
sg14
S'Tyler Eifert'
p50
sg16
S'2015'
p51
sg18
S'10'
p52
sg20
S'--'
p53
sg22
S'11/16'
p54
sg24
S'8.7'
p55
sg26
S'--'
p56
sg28
S'--'
p57
sg30
S'L6-10'
p58
sg32
S'26'
p59
sg34
g35
sg36
S'HOU'
p60
sg38
S'14'
p61
sg40
g48
sg42
S'--'
p62
ssS'13'
p63
(dp64
g5
S'--'
p65
sg7
S'--'
p66
sg9
g48
sg11
S'--'
p67
sg13
g48
sg14
S'Tyler Eifert'
p68
sg16
S'2015'
p69
sg18
S'13'
p70
sg20
S'--'
p71
sg22
S'12/06'
p72
sg24
S'--'
p73
sg26
S'--'
p74
sg28
S'--'
p75
sg30
S'W37-3'
p76
sg32
S'--'
p77
sg34
S'--'
p78
sg36
S'@CLE'
p79
sg38
S'--'
p80
sg40
S'--'
p81
sg42
S'--'
p82
ssS'12'
p83
(dp84
g5
S'--'
p85
sg7
S'--'
p86
sg9
g10
sg11
S'--'
p87
sg13
g10
sg14
S'Tyler Eifert'
p88
sg16
S'2015'
p89
sg18
S'12'
p90
sg20
S'--'
p91
sg22
S'11/29'
p92
sg24
S'13.3'
p93
sg26
S'--'
p94
sg28
S'--'
p95
sg30
S'W31-7'
p96
sg32
S'40'
p97
sg34
g35
sg36
S'STL'
p98
sg38
S'22T'
p99
sg40
g10
sg42
S'--'
p100
ssS'15'
p101
(dp102
g5
S'--'
p103
sg7
S'--'
p104
sg9
g48
sg11
S'--'
p105
sg13
g48
sg14
S'Tyler Eifert'
p106
sg16
S'2015'
p107
sg18
S'15'
p108
sg20
S'--'
p109
sg22
S'12/20'
p110
sg24
S'--'
p111
sg26
S'--'
p112
sg28
S'--'
p113
sg30
S'W24-14'
p114
sg32
S'--'
p115
sg34
S'--'
p116
sg36
S'@SF'
p117
sg38
S'--'
p118
sg40
S'--'
p119
sg42
S'--'
p120
ssS'14'
p121
(dp122
g5
S'--'
p123
sg7
S'--'
p124
sg9
g10
sg11
S'--'
p125
sg13
g10
sg14
S'Tyler Eifert'
p126
sg16
S'2015'
p127
sg18
S'14'
p128
sg20
S'--'
p129
sg22
S'12/13'
p130
sg24
S'21.0'
p131
sg26
S'--'
p132
sg28
S'--'
p133
sg30
S'L20-33'
p134
sg32
S'42'
p135
sg34
g41
sg36
S'PIT'
p136
sg38
S'24'
p137
sg40
g48
sg42
S'--'
p138
ssS'17'
p139
(dp140
g5
S'--'
p141
sg7
S'--'
p142
sg9
g10
sg11
S'--'
p143
sg13
g10
sg14
S'Tyler Eifert'
p144
sg16
S'2015'
p145
sg18
S'17'
p146
sg20
S'--'
p147
sg22
S'01/03'
p148
sg24
S'12.8'
p149
sg26
S'--'
p150
sg28
S'--'
p151
sg30
S'W24-16'
p152
sg32
S'51'
p153
sg34
S'4'
p154
sg36
S'BAL'
p155
sg38
S'22T'
p156
sg40
g10
sg42
S'--'
p157
ssS'16'
p158
(dp159
g5
S'--'
p160
sg7
S'--'
p161
sg9
g48
sg11
S'--'
p162
sg13
g48
sg14
S'Tyler Eifert'
p163
sg16
S'2015'
p164
sg18
S'16'
p165
sg20
S'--'
p166
sg22
S'12/28'
p167
sg24
S'--'
p168
sg26
S'--'
p169
sg28
S'--'
p170
sg30
S'L17-20'
p171
sg32
S'--'
p172
sg34
S'--'
p173
sg36
S'@DEN'
p174
sg38
S'--'
p175
sg40
S'--'
p176
sg42
S'--'
p177
ssg10
(dp178
g5
S'--'
p179
sg7
S'--'
p180
sg9
g10
sg11
S'--'
p181
sg13
g10
sg14
S'Tyler Eifert'
p182
sg16
S'2015'
p183
sg18
g10
sg20
S'--'
p184
sg22
S'09/13'
p185
sg24
S'11.6'
p186
sg26
S'--'
p187
sg28
S'--'
p188
sg30
S'W33-13'
p189
sg32
S'104'
p190
sg34
S'9'
p191
sg36
S'@OAK'
p192
sg38
S'31'
p193
sg40
g41
sg42
S'--'
p194
ssg35
(dp195
g5
S'--'
p196
sg7
S'--'
p197
sg9
g10
sg11
S'--'
p198
sg13
g10
sg14
S'Tyler Eifert'
p199
sg16
S'2015'
p200
sg18
g35
sg20
S'--'
p201
sg22
S'09/27'
p202
sg24
S'--'
p203
sg26
S'--'
p204
sg28
S'--'
p205
sg30
S'W28-24'
p206
sg32
g48
sg34
g48
sg36
S'@BAL'
p207
sg38
S'--'
p208
sg40
g48
sg42
S'--'
p209
ssg41
(dp210
g5
S'--'
p211
sg7
S'--'
p212
sg9
g10
sg11
S'--'
p213
sg13
g10
sg14
S'Tyler Eifert'
p214
sg16
S'2015'
p215
sg18
g41
sg20
S'--'
p216
sg22
S'09/20'
p217
sg24
S'12.3'
p218
sg26
S'--'
p219
sg28
S'--'
p220
sg30
S'W24-19'
p221
sg32
S'49'
p222
sg34
g154
sg36
S'SD'
p223
sg38
S'15'
p224
sg40
g10
sg42
S'--'
p225
ssS'5'
p226
(dp227
g5
S'--'
p228
sg7
S'--'
p229
sg9
g10
sg11
S'--'
p230
sg13
g10
sg14
S'Tyler Eifert'
p231
sg16
S'2015'
p232
sg18
g226
sg20
S'--'
p233
sg22
S'10/11'
p234
sg24
S'11.3'
p235
sg26
S'--'
p236
sg28
S'--'
p237
sg30
S'W27-24'
p238
sg32
S'90'
p239
sg34
S'8'
p240
sg36
S'SEA'
p241
sg38
S'25'
p242
sg40
g41
sg42
S'--'
p243
ssg154
(dp244
g5
S'--'
p245
sg7
S'--'
p246
sg9
g10
sg11
S'--'
p247
sg13
g10
sg14
S'Tyler Eifert'
p248
sg16
S'2015'
p249
sg18
g154
sg20
S'--'
p250
sg22
S'10/04'
p251
sg24
S'23.0'
p252
sg26
S'--'
p253
sg28
S'--'
p254
sg30
S'W36-21'
p255
sg32
S'69'
p256
sg34
g35
sg36
S'KC'
p257
sg38
S'30'
p258
sg40
g48
sg42
S'--'
p259
ssS'7'
p260
(dp261
g5
S''
p262
sg7
g262
sg9
g262
sg11
g262
sg13
g262
sg14
S'Tyler Eifert'
p263
sg16
S'2015'
p264
sg18
g260
sg20
g262
sg22
S'Bye'
p265
sg24
g262
sg26
g262
sg28
g262
sg30
g262
sg32
g262
sg34
g262
sg36
g262
sg38
g262
sg40
g262
sg42
g262
ssS'6'
p266
(dp267
g5
S'--'
p268
sg7
S'--'
p269
sg9
g10
sg11
S'--'
p270
sg13
g10
sg14
S'Tyler Eifert'
p271
sg16
S'2015'
p272
sg18
g266
sg20
S'--'
p273
sg22
S'10/18'
p274
sg24
S'7.5'
p275
sg26
S'--'
p276
sg28
S'--'
p277
sg30
S'W34-21'
p278
sg32
S'30'
p279
sg34
g154
sg36
S'@BUF'
p280
sg38
S'15'
p281
sg40
g10
sg42
S'--'
p282
ssg191
(dp283
g5
S'--'
p284
sg7
S'--'
p285
sg9
g10
sg11
S'--'
p286
sg13
g10
sg14
S'Tyler Eifert'
p287
sg16
S'2015'
p288
sg18
g191
sg20
S'--'
p289
sg22
S'11/05'
p290
sg24
S'10.6'
p291
sg26
S'--'
p292
sg28
S'--'
p293
sg30
S'W31-10'
p294
sg32
S'53'
p295
sg34
g226
sg36
S'CLE'
p296
sg38
S'19T'
p297
sg40
g35
sg42
S'--'
p298
ssg240
(dp299
g5
S'--'
p300
sg7
S'--'
p301
sg9
g10
sg11
S'--'
p302
sg13
g10
sg14
S'Tyler Eifert'
p303
sg16
S'2015'
p304
sg18
g240
sg20
S'--'
p305
sg22
S'11/01'
p306
sg24
S'9.8'
p307
sg26
S'--'
p308
sg28
S'--'
p309
sg30
S'W16-10'
p310
sg32
S'39'
p311
sg34
g154
sg36
S'@PIT'
p312
sg38
S'23'
p313
sg40
g48
sg42
S'--'
p314
sssS'2014'
p315
(dp316
g10
(dp317
g5
S'--'
p318
sg7
S'--'
p319
sg9
g10
sg11
S'--'
p320
sg13
g10
sg14
S'Tyler Eifert'
p321
sg16
S'2014'
p322
sg18
g10
sg20
S'--'
p323
sg22
S'09/07'
p324
sg24
S'12.3'
p325
sg26
S'--'
p326
sg28
S'--'
p327
sg30
S'W23-16'
p328
sg32
S'37'
p329
sg34
g35
sg36
S'@BAL'
p330
sg38
S'20'
p331
sg40
g48
sg42
S'--'
p332
sssS'2013'
p333
(dp334
g3
(dp335
g5
S'--'
p336
sg7
S'--'
p337
sg9
g10
sg11
S'--'
p338
sg13
g10
sg14
S'Tyler Eifert'
p339
sg16
S'2013'
p340
sg18
S'11'
p341
sg20
S'--'
p342
sg22
S'11/17'
p343
sg24
S'15.0'
p344
sg26
S'--'
p345
sg28
S'--'
p346
sg30
S'W41-20'
p347
sg32
S'15'
p348
sg34
g10
sg36
S'CLE'
p349
sg38
S'15'
p350
sg40
g48
sg42
S'--'
p351
ssg44
(dp352
g5
S'--'
p353
sg7
S'--'
p354
sg9
g10
sg11
S'--'
p355
sg13
g10
sg14
S'Tyler Eifert'
p356
sg16
S'2013'
p357
sg18
S'10'
p358
sg20
S'--'
p359
sg22
S'11/10'
p360
sg24
S'18.3'
p361
sg26
S'--'
p362
sg28
S'--'
p363
sg30
S'L17-20'
p364
sg32
S'55'
p365
sg34
g35
sg36
S'@BAL'
p366
sg38
S'40'
p367
sg40
g48
sg42
S'--'
p368
ssg63
(dp369
g5
S'--'
p370
sg7
S'--'
p371
sg9
g10
sg11
S'--'
p372
sg13
g10
sg14
S'Tyler Eifert'
p373
sg16
S'2013'
p374
sg18
S'13'
p375
sg20
S'--'
p376
sg22
S'12/01'
p377
sg24
S'9.0'
p378
sg26
S'--'
p379
sg28
S'--'
p380
sg30
S'W17-10'
p381
sg32
g191
sg34
g10
sg36
S'@SD'
p382
sg38
g191
sg40
g48
sg42
S'--'
p383
ssg83
(dp384
g5
g262
sg7
g262
sg9
g262
sg11
g262
sg13
g262
sg14
S'Tyler Eifert'
p385
sg16
S'2013'
p386
sg18
S'12'
p387
sg20
g262
sg22
S'Bye'
p388
sg24
g262
sg26
g262
sg28
g262
sg30
g262
sg32
g262
sg34
g262
sg36
g262
sg38
g262
sg40
g262
sg42
g262
ssg101
(dp389
g5
S'--'
p390
sg7
S'--'
p391
sg9
g10
sg11
S'--'
p392
sg13
g10
sg14
S'Tyler Eifert'
p393
sg16
S'2013'
p394
sg18
S'15'
p395
sg20
S'--'
p396
sg22
S'12/15'
p397
sg24
S'11.0'
p398
sg26
S'--'
p399
sg28
S'--'
p400
sg30
S'L20-30'
p401
sg32
S'33'
p402
sg34
g35
sg36
S'@PIT'
p403
sg38
S'19'
p404
sg40
g10
sg42
S'--'
p405
ssg121
(dp406
g5
S'--'
p407
sg7
S'--'
p408
sg9
g10
sg11
S'--'
p409
sg13
g10
sg14
S'Tyler Eifert'
p410
sg16
S'2013'
p411
sg18
S'14'
p412
sg20
S'--'
p413
sg22
S'12/08'
p414
sg24
S'6.7'
p415
sg26
S'--'
p416
sg28
S'--'
p417
sg30
S'W42-28'
p418
sg32
S'20'
p419
sg34
g35
sg36
S'IND'
p420
sg38
S'11'
p421
sg40
g48
sg42
S'--'
p422
ssg139
(dp423
g5
S'--'
p424
sg7
S'--'
p425
sg9
g48
sg11
S'--'
p426
sg13
g48
sg14
S'Tyler Eifert'
p427
sg16
S'2013'
p428
sg18
S'17'
p429
sg20
S'--'
p430
sg22
S'12/29'
p431
sg24
S'--'
p432
sg26
S'--'
p433
sg28
S'--'
p434
sg30
S'W34-17'
p435
sg32
S'--'
p436
sg34
S'--'
p437
sg36
S'BAL'
p438
sg38
S'--'
p439
sg40
S'--'
p440
sg42
S'--'
p441
ssg158
(dp442
g5
S'--'
p443
sg7
S'--'
p444
sg9
g10
sg11
S'--'
p445
sg13
g10
sg14
S'Tyler Eifert'
p446
sg16
S'2013'
p447
sg18
S'16'
p448
sg20
S'--'
p449
sg22
S'12/22'
p450
sg24
S'6.0'
p451
sg26
S'--'
p452
sg28
S'--'
p453
sg30
S'W42-14'
p454
sg32
g266
sg34
g10
sg36
S'MIN'
p455
sg38
g266
sg40
g48
sg42
S'--'
p456
ssg10
(dp457
g5
S'--'
p458
sg7
S'--'
p459
sg9
g10
sg11
S'--'
p460
sg13
g10
sg14
S'Tyler Eifert'
p461
sg16
S'2013'
p462
sg18
g10
sg20
S'--'
p463
sg22
S'09/08'
p464
sg24
S'9.4'
p465
sg26
S'--'
p466
sg28
S'--'
p467
sg30
S'L21-24'
p468
sg32
S'47'
p469
sg34
g226
sg36
S'@CHI'
p470
sg38
S'17'
p471
sg40
g48
sg42
S'--'
p472
ssg35
(dp473
g5
S'--'
p474
sg7
S'--'
p475
sg9
g10
sg11
S'--'
p476
sg13
g10
sg14
S'Tyler Eifert'
p477
sg16
S'2013'
p478
sg18
g35
sg20
S'--'
p479
sg22
S'09/22'
p480
sg24
S'7.0'
p481
sg26
S'--'
p482
sg28
S'--'
p483
sg30
S'W34-30'
p484
sg32
g260
sg34
g10
sg36
S'GB'
p485
sg38
g260
sg40
g48
sg42
S'--'
p486
ssg41
(dp487
g5
S'--'
p488
sg7
S'--'
p489
sg9
g10
sg11
S'--'
p490
sg13
g10
sg14
S'Tyler Eifert'
p491
sg16
S'2013'
p492
sg18
g41
sg20
S'--'
p493
sg22
S'09/16'
p494
sg24
S'22.0'
p495
sg26
S'--'
p496
sg28
S'--'
p497
sg30
S'W20-10'
p498
sg32
S'66'
p499
sg34
g35
sg36
S'PIT'
p500
sg38
S'61'
p501
sg40
g48
sg42
S'--'
p502
ssg226
(dp503
g5
S'--'
p504
sg7
S'--'
p505
sg9
g10
sg11
S'--'
p506
sg13
g10
sg14
S'Tyler Eifert'
p507
sg16
S'2013'
p508
sg18
g226
sg20
S'--'
p509
sg22
S'10/06'
p510
sg24
S'10.6'
p511
sg26
S'--'
p512
sg28
S'--'
p513
sg30
S'W13-6'
p514
sg32
S'53'
p515
sg34
g226
sg36
S'NE'
p516
sg38
S'22'
p517
sg40
g48
sg42
S'--'
p518
ssg154
(dp519
g5
S'--'
p520
sg7
S'--'
p521
sg9
g10
sg11
S'--'
p522
sg13
g10
sg14
S'Tyler Eifert'
p523
sg16
S'2013'
p524
sg18
g154
sg20
S'--'
p525
sg22
S'09/29'
p526
sg24
S'13.0'
p527
sg26
S'--'
p528
sg28
S'--'
p529
sg30
S'L6-17'
p530
sg32
S'39'
p531
sg34
g35
sg36
S'@CLE'
p532
sg38
S'29'
p533
sg40
g48
sg42
S'--'
p534
ssg260
(dp535
g5
S'--'
p536
sg7
S'--'
p537
sg9
g10
sg11
S'--'
p538
sg13
g10
sg14
S'Tyler Eifert'
p539
sg16
S'2013'
p540
sg18
g260
sg20
S'--'
p541
sg22
S'10/20'
p542
sg24
S'15.0'
p543
sg26
S'--'
p544
sg28
S'--'
p545
sg30
S'W27-24'
p546
sg32
S'45'
p547
sg34
g35
sg36
S'@DET'
p548
sg38
S'32T'
p549
sg40
g10
sg42
S'--'
p550
ssg266
(dp551
g5
S'--'
p552
sg7
S'--'
p553
sg9
g10
sg11
S'--'
p554
sg13
g10
sg14
S'Tyler Eifert'
p555
sg16
S'2013'
p556
sg18
g266
sg20
S'--'
p557
sg22
S'10/13'
p558
sg24
S'6.5'
p559
sg26
S'--'
p560
sg28
S'--'
p561
sg30
S'W27-24'
p562
sg32
S'13'
p563
sg34
g41
sg36
S'@BUF'
p564
sg38
S'10'
p565
sg40
g48
sg42
S'--'
p566
ssg191
(dp567
g5
S'--'
p568
sg7
S'--'
p569
sg9
g10
sg11
S'--'
p570
sg13
g10
sg14
S'Tyler Eifert'
p571
sg16
S'2013'
p572
sg18
g191
sg20
S'--'
p573
sg22
S'10/31'
p574
sg24
S'4.7'
p575
sg26
S'--'
p576
sg28
S'--'
p577
sg30
S'L20-22'
p578
sg32
S'14'
p579
sg34
g35
sg36
S'@MIA'
p580
sg38
g226
sg40
g48
sg42
S'--'
p581
ssg240
(dp582
g5
S'--'
p583
sg7
S'--'
p584
sg9
g10
sg11
S'--'
p585
sg13
g10
sg14
S'Tyler Eifert'
p586
sg16
S'2013'
p587
sg18
g240
sg20
S'--'
p588
sg22
S'10/27'
p589
sg24
S'11.5'
p590
sg26
S'--'
p591
sg28
S'--'
p592
sg30
S'W49-9'
p593
sg32
S'23'
p594
sg34
g41
sg36
S'NYJ'
p595
sg38
S'16'
p596
sg40
g48
sg42
S'--'
p597
sss.