(dp0
S'2015'
p1
(dp2
S'11'
p3
(dp4
S'RushTD'
p5
S'--'
p6
sS'RushYds'
p7
S'--'
p8
sS'GS'
p9
S'1'
p10
sS'Lost'
p11
S'--'
p12
sS'G'
p13
g10
sS'Player'
p14
S'Vance McDonald'
p15
sS'Year'
p16
S'2015'
p17
sS'WK'
p18
S'11'
p19
sS'RushAvg'
p20
S'--'
p21
sS'Game Date'
p22
S'11/22'
p23
sS'RecAvg'
p24
S'16.3'
p25
sS'FUM'
p26
S'--'
p27
sS'RushAtt'
p28
S'--'
p29
sS'Result'
p30
S'L13-29'
p31
sS'RecYds'
p32
S'65'
p33
sS'Rec'
p34
S'4'
p35
sS'Opp'
p36
S'@SEA'
p37
sS'RecLng'
p38
S'36'
p39
sS'RecTD'
p40
g10
sS'RushLng'
p41
S'--'
p42
ssS'10'
p43
(dp44
g5
S''
p45
sg7
g45
sg9
g45
sg11
g45
sg13
g45
sg14
S'Vance McDonald'
p46
sg16
S'2015'
p47
sg18
S'10'
p48
sg20
g45
sg22
S'Bye'
p49
sg24
g45
sg26
g45
sg28
g45
sg30
g45
sg32
g45
sg34
g45
sg36
g45
sg38
g45
sg40
g45
sg41
g45
ssS'13'
p50
(dp51
g5
S'--'
p52
sg7
S'--'
p53
sg9
g10
sg11
S'--'
p54
sg13
g10
sg14
S'Vance McDonald'
p55
sg16
S'2015'
p56
sg18
S'13'
p57
sg20
S'--'
p58
sg22
S'12/06'
p59
sg24
S'9.0'
p60
sg26
S'--'
p61
sg28
S'--'
p62
sg30
S'W26-20'
p63
sg32
S'18'
p64
sg34
S'2'
p65
sg36
S'@CHI'
p66
sg38
S'12'
p67
sg40
S'0'
p68
sg41
S'--'
p69
ssS'12'
p70
(dp71
g5
S'--'
p72
sg7
S'--'
p73
sg9
g10
sg11
g68
sg13
g10
sg14
S'Vance McDonald'
p74
sg16
S'2015'
p75
sg18
S'12'
p76
sg20
S'--'
p77
sg22
S'11/29'
p78
sg24
S'11.8'
p79
sg26
g10
sg28
S'--'
p80
sg30
S'L13-19'
p81
sg32
S'71'
p82
sg34
S'6'
p83
sg36
S'ARI'
p84
sg38
S'20'
p85
sg40
g10
sg41
S'--'
p86
ssS'15'
p87
(dp88
g5
S'--'
p89
sg7
S'--'
p90
sg9
g10
sg11
S'--'
p91
sg13
g10
sg14
S'Vance McDonald'
p92
sg16
S'2015'
p93
sg18
S'15'
p94
sg20
S'--'
p95
sg22
S'12/20'
p96
sg24
S'10.0'
p97
sg26
S'--'
p98
sg28
S'--'
p99
sg30
S'L14-24'
p100
sg32
S'10'
p101
sg34
g10
sg36
S'CIN'
p102
sg38
S'10'
p103
sg40
g68
sg41
S'--'
p104
ssS'14'
p105
(dp106
g5
S'--'
p107
sg7
S'--'
p108
sg9
g68
sg11
S'--'
p109
sg13
g68
sg14
S'Vance McDonald'
p110
sg16
S'2015'
p111
sg18
S'14'
p112
sg20
S'--'
p113
sg22
S'12/13'
p114
sg24
S'--'
p115
sg26
S'--'
p116
sg28
S'--'
p117
sg30
S'L10-24'
p118
sg32
S'--'
p119
sg34
S'--'
p120
sg36
S'@CLE'
p121
sg38
S'--'
p122
sg40
S'--'
p123
sg41
S'--'
p124
ssS'17'
p125
(dp126
g5
S'--'
p127
sg7
S'--'
p128
sg9
g10
sg11
S'--'
p129
sg13
g10
sg14
S'Vance McDonald'
p130
sg16
S'2015'
p131
sg18
S'17'
p132
sg20
S'--'
p133
sg22
S'01/03'
p134
sg24
S'12.3'
p135
sg26
S'--'
p136
sg28
S'--'
p137
sg30
S'W19-16'
p138
sg32
S'37'
p139
sg34
S'3'
p140
sg36
S'STL'
p141
sg38
S'24'
p142
sg40
g68
sg41
S'--'
p143
ssS'16'
p144
(dp145
g5
S'--'
p146
sg7
S'--'
p147
sg9
g10
sg11
S'--'
p148
sg13
g10
sg14
S'Vance McDonald'
p149
sg16
S'2015'
p150
sg18
S'16'
p151
sg20
S'--'
p152
sg22
S'12/27'
p153
sg24
S'12.2'
p154
sg26
S'--'
p155
sg28
S'--'
p156
sg30
S'L17-32'
p157
sg32
S'61'
p158
sg34
S'5'
p159
sg36
S'@DET'
p160
sg38
S'26'
p161
sg40
g10
sg41
S'--'
p162
ssg10
(dp163
g5
S'--'
p164
sg7
S'--'
p165
sg9
g10
sg11
S'--'
p166
sg13
g10
sg14
S'Vance McDonald'
p167
sg16
S'2015'
p168
sg18
g10
sg20
S'--'
p169
sg22
S'09/14'
p170
sg24
S'5.0'
p171
sg26
S'--'
p172
sg28
S'--'
p173
sg30
S'W20-3'
p174
sg32
g159
sg34
g10
sg36
S'MIN'
p175
sg38
g159
sg40
g68
sg41
S'--'
p176
ssg140
(dp177
g5
S'--'
p178
sg7
S'--'
p179
sg9
g68
sg11
S'--'
p180
sg13
g68
sg14
S'Vance McDonald'
p181
sg16
S'2015'
p182
sg18
g140
sg20
S'--'
p183
sg22
S'09/27'
p184
sg24
S'--'
p185
sg26
S'--'
p186
sg28
S'--'
p187
sg30
S'L7-47'
p188
sg32
S'--'
p189
sg34
S'--'
p190
sg36
S'@ARI'
p191
sg38
S'--'
p192
sg40
S'--'
p193
sg41
S'--'
p194
ssg65
(dp195
g5
S'--'
p196
sg7
S'--'
p197
sg9
g10
sg11
S'--'
p198
sg13
g10
sg14
S'Vance McDonald'
p199
sg16
S'2015'
p200
sg18
g65
sg20
S'--'
p201
sg22
S'09/20'
p202
sg24
S'--'
p203
sg26
S'--'
p204
sg28
S'--'
p205
sg30
S'L18-43'
p206
sg32
g68
sg34
g68
sg36
S'@PIT'
p207
sg38
S'--'
p208
sg40
g68
sg41
S'--'
p209
ssg159
(dp210
g5
S'--'
p211
sg7
S'--'
p212
sg9
g10
sg11
S'--'
p213
sg13
g10
sg14
S'Vance McDonald'
p214
sg16
S'2015'
p215
sg18
g159
sg20
S'--'
p216
sg22
S'10/11'
p217
sg24
S'4.5'
p218
sg26
S'--'
p219
sg28
S'--'
p220
sg30
S'L27-30'
p221
sg32
S'9'
p222
sg34
g65
sg36
S'@NYG'
p223
sg38
g83
sg40
g68
sg41
S'--'
p224
ssg35
(dp225
g5
S'--'
p226
sg7
S'--'
p227
sg9
g68
sg11
g68
sg13
g10
sg14
S'Vance McDonald'
p228
sg16
S'2015'
p229
sg18
g35
sg20
S'--'
p230
sg22
S'10/04'
p231
sg24
S'7.0'
p232
sg26
g10
sg28
S'--'
p233
sg30
S'L3-17'
p234
sg32
S'7'
p235
sg34
g10
sg36
S'GB'
p236
sg38
g235
sg40
g68
sg41
S'--'
p237
ssg235
(dp238
g5
S'--'
p239
sg7
S'--'
p240
sg9
g68
sg11
S'--'
p241
sg13
g10
sg14
S'Vance McDonald'
p242
sg16
S'2015'
p243
sg18
g235
sg20
S'--'
p244
sg22
S'10/22'
p245
sg24
S'1.0'
p246
sg26
S'--'
p247
sg28
S'--'
p248
sg30
S'L3-20'
p249
sg32
g10
sg34
g10
sg36
S'SEA'
p250
sg38
g10
sg40
g68
sg41
S'--'
p251
ssg83
(dp252
g5
S'--'
p253
sg7
S'--'
p254
sg9
g68
sg11
S'--'
p255
sg13
g10
sg14
S'Vance McDonald'
p256
sg16
S'2015'
p257
sg18
g83
sg20
S'--'
p258
sg22
S'10/18'
p259
sg24
S'10.0'
p260
sg26
S'--'
p261
sg28
S'--'
p262
sg30
S'W25-20'
p263
sg32
S'10'
p264
sg34
g10
sg36
S'BAL'
p265
sg38
S'10'
p266
sg40
g68
sg41
S'--'
p267
ssg222
(dp268
g5
S'--'
p269
sg7
S'--'
p270
sg9
g10
sg11
S'--'
p271
sg13
g10
sg14
S'Vance McDonald'
p272
sg16
S'2015'
p273
sg18
g222
sg20
S'--'
p274
sg22
S'11/08'
p275
sg24
S'9.5'
p276
sg26
S'--'
p277
sg28
S'--'
p278
sg30
S'W17-16'
p279
sg32
S'19'
p280
sg34
g65
sg36
S'ATL'
p281
sg38
S'13'
p282
sg40
g68
sg41
S'--'
p283
ssS'8'
p284
(dp285
g5
S'--'
p286
sg7
S'--'
p287
sg9
g10
sg11
S'--'
p288
sg13
g10
sg14
S'Vance McDonald'
p289
sg16
S'2015'
p290
sg18
g284
sg20
S'--'
p291
sg22
S'11/01'
p292
sg24
S'13.0'
p293
sg26
S'--'
p294
sg28
S'--'
p295
sg30
S'L6-27'
p296
sg32
S'13'
p297
sg34
g10
sg36
S'@STL'
p298
sg38
S'13'
p299
sg40
g68
sg41
S'--'
p300
sssS'2014'
p301
(dp302
g3
(dp303
g5
S'--'
p304
sg7
S'--'
p305
sg9
g10
sg11
S'--'
p306
sg13
g10
sg14
S'Vance McDonald'
p307
sg16
S'2014'
p308
sg18
S'11'
p309
sg20
S'--'
p310
sg22
S'11/16'
p311
sg24
S'--'
p312
sg26
S'--'
p313
sg28
S'--'
p314
sg30
S'W16-10'
p315
sg32
g68
sg34
g68
sg36
S'@NYG'
p316
sg38
S'--'
p317
sg40
g68
sg41
S'--'
p318
ssg43
(dp319
g5
S'--'
p320
sg7
S'--'
p321
sg9
g68
sg11
S'--'
p322
sg13
g10
sg14
S'Vance McDonald'
p323
sg16
S'2014'
p324
sg18
S'10'
p325
sg20
S'--'
p326
sg22
S'11/09'
p327
sg24
S'--'
p328
sg26
S'--'
p329
sg28
S'--'
p330
sg30
S'W27-24'
p331
sg32
S'--'
p332
sg34
S'--'
p333
sg36
S'@NO'
p334
sg38
S'--'
p335
sg40
S'--'
p336
sg41
S'--'
p337
ssg50
(dp338
g5
S'--'
p339
sg7
S'--'
p340
sg9
g68
sg11
S'--'
p341
sg13
g68
sg14
S'Vance McDonald'
p342
sg16
S'2014'
p343
sg18
S'13'
p344
sg20
S'--'
p345
sg22
S'11/27'
p346
sg24
S'--'
p347
sg26
S'--'
p348
sg28
S'--'
p349
sg30
S'L3-19'
p350
sg32
S'--'
p351
sg34
S'--'
p352
sg36
S'SEA'
p353
sg38
S'--'
p354
sg40
S'--'
p355
sg41
S'--'
p356
ssg70
(dp357
g5
S'--'
p358
sg7
S'--'
p359
sg9
g68
sg11
S'--'
p360
sg13
g68
sg14
S'Vance McDonald'
p361
sg16
S'2014'
p362
sg18
S'12'
p363
sg20
S'--'
p364
sg22
S'11/23'
p365
sg24
S'--'
p366
sg26
S'--'
p367
sg28
S'--'
p368
sg30
S'W17-13'
p369
sg32
S'--'
p370
sg34
S'--'
p371
sg36
S'WAS'
p372
sg38
S'--'
p373
sg40
S'--'
p374
sg41
S'--'
p375
ssg105
(dp376
g5
S'--'
p377
sg7
S'--'
p378
sg9
g68
sg11
S'--'
p379
sg13
g68
sg14
S'Vance McDonald'
p380
sg16
S'2014'
p381
sg18
S'14'
p382
sg20
S'--'
p383
sg22
S'12/07'
p384
sg24
S'--'
p385
sg26
S'--'
p386
sg28
S'--'
p387
sg30
S'L13-24'
p388
sg32
S'--'
p389
sg34
S'--'
p390
sg36
S'@OAK'
p391
sg38
S'--'
p392
sg40
S'--'
p393
sg41
S'--'
p394
ssg10
(dp395
g5
S'--'
p396
sg7
S'--'
p397
sg9
g68
sg11
S'--'
p398
sg13
g10
sg14
S'Vance McDonald'
p399
sg16
S'2014'
p400
sg18
g10
sg20
S'--'
p401
sg22
S'09/07'
p402
sg24
S'--'
p403
sg26
S'--'
p404
sg28
S'--'
p405
sg30
S'W28-17'
p406
sg32
S'--'
p407
sg34
S'--'
p408
sg36
S'@DAL'
p409
sg38
S'--'
p410
sg40
S'--'
p411
sg41
S'--'
p412
ssg140
(dp413
g5
S'--'
p414
sg7
S'--'
p415
sg9
g68
sg11
S'--'
p416
sg13
g68
sg14
S'Vance McDonald'
p417
sg16
S'2014'
p418
sg18
g140
sg20
S'--'
p419
sg22
S'09/21'
p420
sg24
S'--'
p421
sg26
S'--'
p422
sg28
S'--'
p423
sg30
S'L14-23'
p424
sg32
S'--'
p425
sg34
S'--'
p426
sg36
S'@ARI'
p427
sg38
S'--'
p428
sg40
S'--'
p429
sg41
S'--'
p430
ssg65
(dp431
g5
S'--'
p432
sg7
S'--'
p433
sg9
g10
sg11
S'--'
p434
sg13
g10
sg14
S'Vance McDonald'
p435
sg16
S'2014'
p436
sg18
g65
sg20
S'--'
p437
sg22
S'09/14'
p438
sg24
S'9.0'
p439
sg26
S'--'
p440
sg28
S'--'
p441
sg30
S'L20-28'
p442
sg32
g222
sg34
g10
sg36
S'CHI'
p443
sg38
g222
sg40
g68
sg41
S'--'
p444
ssg159
(dp445
g5
S'--'
p446
sg7
S'--'
p447
sg9
g10
sg11
S'--'
p448
sg13
g10
sg14
S'Vance McDonald'
p449
sg16
S'2014'
p450
sg18
g159
sg20
S'--'
p451
sg22
S'10/05'
p452
sg24
S'--'
p453
sg26
S'--'
p454
sg28
S'--'
p455
sg30
S'W22-17'
p456
sg32
S'--'
p457
sg34
S'--'
p458
sg36
S'KC'
p459
sg38
S'--'
p460
sg40
S'--'
p461
sg41
S'--'
p462
ssg35
(dp463
g5
S'--'
p464
sg7
S'--'
p465
sg9
g68
sg11
S'--'
p466
sg13
g68
sg14
S'Vance McDonald'
p467
sg16
S'2014'
p468
sg18
g35
sg20
S'--'
p469
sg22
S'09/28'
p470
sg24
S'--'
p471
sg26
S'--'
p472
sg28
S'--'
p473
sg30
S'W26-21'
p474
sg32
S'--'
p475
sg34
S'--'
p476
sg36
S'PHI'
p477
sg38
S'--'
p478
sg40
S'--'
p479
sg41
S'--'
p480
ssg235
(dp481
g5
S'--'
p482
sg7
S'--'
p483
sg9
g68
sg11
S'--'
p484
sg13
g10
sg14
S'Vance McDonald'
p485
sg16
S'2014'
p486
sg18
g235
sg20
S'--'
p487
sg22
S'10/19'
p488
sg24
S'--'
p489
sg26
S'--'
p490
sg28
S'--'
p491
sg30
S'L17-42'
p492
sg32
S'--'
p493
sg34
S'--'
p494
sg36
S'@DEN'
p495
sg38
S'--'
p496
sg40
S'--'
p497
sg41
S'--'
p498
ssg83
(dp499
g5
S'--'
p500
sg7
S'--'
p501
sg9
g10
sg11
g10
sg13
g10
sg14
S'Vance McDonald'
p502
sg16
S'2014'
p503
sg18
g83
sg20
S'--'
p504
sg22
S'10/13'
p505
sg24
S'21.0'
p506
sg26
g10
sg28
S'--'
p507
sg30
S'W31-17'
p508
sg32
S'21'
p509
sg34
g10
sg36
S'@STL'
p510
sg38
S'21'
p511
sg40
g68
sg41
S'--'
p512
ssg222
(dp513
g5
S'--'
p514
sg7
S'--'
p515
sg9
g68
sg11
S'--'
p516
sg13
g10
sg14
S'Vance McDonald'
p517
sg16
S'2014'
p518
sg18
g222
sg20
S'--'
p519
sg22
S'11/02'
p520
sg24
S'--'
p521
sg26
S'--'
p522
sg28
S'--'
p523
sg30
S'L10-13'
p524
sg32
S'--'
p525
sg34
S'--'
p526
sg36
S'STL'
p527
sg38
S'--'
p528
sg40
S'--'
p529
sg41
S'--'
p530
ssg284
(dp531
g5
g45
sg7
g45
sg9
g45
sg11
g45
sg13
g45
sg14
S'Vance McDonald'
p532
sg16
S'2014'
p533
sg18
g284
sg20
g45
sg22
S'Bye'
p534
sg24
g45
sg26
g45
sg28
g45
sg30
g45
sg32
g45
sg34
g45
sg36
g45
sg38
g45
sg40
g45
sg41
g45
sssS'2013'
p535
(dp536
g3
(dp537
g5
S'--'
p538
sg7
S'--'
p539
sg9
g68
sg11
S'--'
p540
sg13
g10
sg14
S'Vance McDonald'
p541
sg16
S'2013'
p542
sg18
S'11'
p543
sg20
S'--'
p544
sg22
S'11/17'
p545
sg24
S'10.0'
p546
sg26
S'--'
p547
sg28
S'--'
p548
sg30
S'L20-23'
p549
sg32
S'10'
p550
sg34
g10
sg36
S'@NO'
p551
sg38
S'10'
p552
sg40
g68
sg41
S'--'
p553
ssg43
(dp554
g5
S'--'
p555
sg7
S'--'
p556
sg9
g68
sg11
S'--'
p557
sg13
g10
sg14
S'Vance McDonald'
p558
sg16
S'2013'
p559
sg18
S'10'
p560
sg20
S'--'
p561
sg22
S'11/10'
p562
sg24
S'--'
p563
sg26
S'--'
p564
sg28
S'--'
p565
sg30
S'L9-10'
p566
sg32
g68
sg34
g68
sg36
S'CAR'
p567
sg38
S'--'
p568
sg40
g68
sg41
S'--'
p569
ssg50
(dp570
g5
S'--'
p571
sg7
S'--'
p572
sg9
g68
sg11
S'--'
p573
sg13
g10
sg14
S'Vance McDonald'
p574
sg16
S'2013'
p575
sg18
S'13'
p576
sg20
S'--'
p577
sg22
S'12/01'
p578
sg24
S'--'
p579
sg26
S'--'
p580
sg28
S'--'
p581
sg30
S'W23-13'
p582
sg32
S'--'
p583
sg34
S'--'
p584
sg36
S'STL'
p585
sg38
S'--'
p586
sg40
S'--'
p587
sg41
S'--'
p588
ssg70
(dp589
g5
S'--'
p590
sg7
S'--'
p591
sg9
g68
sg11
S'--'
p592
sg13
g10
sg14
S'Vance McDonald'
p593
sg16
S'2013'
p594
sg18
S'12'
p595
sg20
S'--'
p596
sg22
S'11/25'
p597
sg24
S'23.0'
p598
sg26
S'--'
p599
sg28
S'--'
p600
sg30
S'W27-6'
p601
sg32
S'23'
p602
sg34
g10
sg36
S'@WAS'
p603
sg38
S'23'
p604
sg40
g68
sg41
S'--'
p605
ssg87
(dp606
g5
S'--'
p607
sg7
S'--'
p608
sg9
g68
sg11
S'--'
p609
sg13
g68
sg14
S'Vance McDonald'
p610
sg16
S'2013'
p611
sg18
S'15'
p612
sg20
S'--'
p613
sg22
S'12/15'
p614
sg24
S'--'
p615
sg26
S'--'
p616
sg28
S'--'
p617
sg30
S'W33-14'
p618
sg32
S'--'
p619
sg34
S'--'
p620
sg36
S'@TB'
p621
sg38
S'--'
p622
sg40
S'--'
p623
sg41
S'--'
p624
ssg105
(dp625
g5
S'--'
p626
sg7
S'--'
p627
sg9
g10
sg11
S'--'
p628
sg13
g10
sg14
S'Vance McDonald'
p629
sg16
S'2013'
p630
sg18
S'14'
p631
sg20
S'--'
p632
sg22
S'12/08'
p633
sg24
S'--'
p634
sg26
S'--'
p635
sg28
S'--'
p636
sg30
S'W19-17'
p637
sg32
S'--'
p638
sg34
S'--'
p639
sg36
S'SEA'
p640
sg38
S'--'
p641
sg40
S'--'
p642
sg41
S'--'
p643
ssg125
(dp644
g5
S'--'
p645
sg7
S'--'
p646
sg9
g68
sg11
S'--'
p647
sg13
g10
sg14
S'Vance McDonald'
p648
sg16
S'2013'
p649
sg18
S'17'
p650
sg20
S'--'
p651
sg22
S'12/29'
p652
sg24
S'--'
p653
sg26
S'--'
p654
sg28
S'--'
p655
sg30
S'W23-20'
p656
sg32
S'--'
p657
sg34
S'--'
p658
sg36
S'@ARI'
p659
sg38
S'--'
p660
sg40
S'--'
p661
sg41
S'--'
p662
ssg144
(dp663
g5
S'--'
p664
sg7
S'--'
p665
sg9
g10
sg11
S'--'
p666
sg13
g10
sg14
S'Vance McDonald'
p667
sg16
S'2013'
p668
sg18
S'16'
p669
sg20
S'--'
p670
sg22
S'12/23'
p671
sg24
S'--'
p672
sg26
S'--'
p673
sg28
S'--'
p674
sg30
S'W34-24'
p675
sg32
g68
sg34
g68
sg36
S'ATL'
p676
sg38
S'--'
p677
sg40
g68
sg41
S'--'
p678
ssg10
(dp679
g5
S'--'
p680
sg7
S'--'
p681
sg9
g68
sg11
S'--'
p682
sg13
g10
sg14
S'Vance McDonald'
p683
sg16
S'2013'
p684
sg18
g10
sg20
S'--'
p685
sg22
S'09/08'
p686
sg24
S'25.0'
p687
sg26
S'--'
p688
sg28
S'--'
p689
sg30
S'W34-28'
p690
sg32
S'25'
p691
sg34
g10
sg36
S'GB'
p692
sg38
S'25'
p693
sg40
g68
sg41
S'--'
p694
ssg140
(dp695
g5
S'--'
p696
sg7
S'--'
p697
sg9
g10
sg11
S'--'
p698
sg13
g10
sg14
S'Vance McDonald'
p699
sg16
S'2013'
p700
sg18
g140
sg20
S'--'
p701
sg22
S'09/22'
p702
sg24
S'6.0'
p703
sg26
S'--'
p704
sg28
S'--'
p705
sg30
S'L7-27'
p706
sg32
g83
sg34
g10
sg36
S'IND'
p707
sg38
g83
sg40
g68
sg41
S'--'
p708
ssg65
(dp709
g5
S'--'
p710
sg7
S'--'
p711
sg9
g68
sg11
S'--'
p712
sg13
g10
sg14
S'Vance McDonald'
p713
sg16
S'2013'
p714
sg18
g65
sg20
S'--'
p715
sg22
S'09/15'
p716
sg24
S'19.0'
p717
sg26
S'--'
p718
sg28
S'--'
p719
sg30
S'L3-29'
p720
sg32
S'19'
p721
sg34
g10
sg36
S'@SEA'
p722
sg38
S'19'
p723
sg40
g68
sg41
S'--'
p724
ssg159
(dp725
g5
S'--'
p726
sg7
S'--'
p727
sg9
g68
sg11
S'--'
p728
sg13
g10
sg14
S'Vance McDonald'
p729
sg16
S'2013'
p730
sg18
g159
sg20
S'--'
p731
sg22
S'10/06'
p732
sg24
S'--'
p733
sg26
S'--'
p734
sg28
S'--'
p735
sg30
S'W34-3'
p736
sg32
S'--'
p737
sg34
S'--'
p738
sg36
S'HOU'
p739
sg38
S'--'
p740
sg40
S'--'
p741
sg41
S'--'
p742
ssg35
(dp743
g5
S'--'
p744
sg7
S'--'
p745
sg9
g10
sg11
S'--'
p746
sg13
g10
sg14
S'Vance McDonald'
p747
sg16
S'2013'
p748
sg18
g35
sg20
S'--'
p749
sg22
S'09/26'
p750
sg24
S'9.0'
p751
sg26
S'--'
p752
sg28
S'--'
p753
sg30
S'W35-11'
p754
sg32
g222
sg34
g10
sg36
S'@STL'
p755
sg38
g222
sg40
g68
sg41
S'--'
p756
ssg235
(dp757
g5
S'--'
p758
sg7
S'--'
p759
sg9
g68
sg11
S'--'
p760
sg13
g10
sg14
S'Vance McDonald'
p761
sg16
S'2013'
p762
sg18
g235
sg20
S'--'
p763
sg22
S'10/20'
p764
sg24
S'20.0'
p765
sg26
S'--'
p766
sg28
S'--'
p767
sg30
S'W31-17'
p768
sg32
S'20'
p769
sg34
g10
sg36
S'@TEN'
p770
sg38
S'20'
p771
sg40
g68
sg41
S'--'
p772
ssg83
(dp773
g5
S'--'
p774
sg7
S'--'
p775
sg9
g68
sg11
S'--'
p776
sg13
g10
sg14
S'Vance McDonald'
p777
sg16
S'2013'
p778
sg18
g83
sg20
S'--'
p779
sg22
S'10/13'
p780
sg24
S'7.0'
p781
sg26
S'--'
p782
sg28
S'--'
p783
sg30
S'W32-20'
p784
sg32
g235
sg34
g10
sg36
S'ARI'
p785
sg38
g235
sg40
g68
sg41
S'--'
p786
ssg222
(dp787
g5
g45
sg7
g45
sg9
g45
sg11
g45
sg13
g45
sg14
S'Vance McDonald'
p788
sg16
S'2013'
p789
sg18
g222
sg20
g45
sg22
S'Bye'
p790
sg24
g45
sg26
g45
sg28
g45
sg30
g45
sg32
g45
sg34
g45
sg36
g45
sg38
g45
sg40
g45
sg41
g45
ssg284
(dp791
g5
S'--'
p792
sg7
S'--'
p793
sg9
g68
sg11
S'--'
p794
sg13
g10
sg14
S'Vance McDonald'
p795
sg16
S'2013'
p796
sg18
g284
sg20
S'--'
p797
sg22
S'10/27'
p798
sg24
S'--'
p799
sg26
S'--'
p800
sg28
S'--'
p801
sg30
S'W42-10'
p802
sg32
S'--'
p803
sg34
S'--'
p804
sg36
S'@JAC'
p805
sg38
S'--'
p806
sg40
S'--'
p807
sg41
S'--'
p808
sss.