(dp0
S'2015'
p1
(dp2
S'11'
p3
(dp4
S'RushTD'
p5
S'--'
p6
sS'RushYds'
p7
S'--'
p8
sS'GS'
p9
S'1'
p10
sS'Lost'
p11
S'--'
p12
sS'G'
p13
g10
sS'Player'
p14
S'Vernon Davis'
p15
sS'Year'
p16
S'2015'
p17
sS'WK'
p18
S'11'
p19
sS'RushAvg'
p20
S'--'
p21
sS'Game Date'
p22
S'11/22'
p23
sS'RecAvg'
p24
S'11.3'
p25
sS'FUM'
p26
S'--'
p27
sS'RushAtt'
p28
S'--'
p29
sS'Result'
p30
S'W17-15'
p31
sS'RecYds'
p32
S'68'
p33
sS'Rec'
p34
S'6'
p35
sS'Opp'
p36
S'@CHI'
p37
sS'RecLng'
p38
S'18'
p39
sS'RecTD'
p40
S'0'
p41
sS'RushLng'
p42
S'--'
p43
ssS'10'
p44
(dp45
g5
S'--'
p46
sg7
S'--'
p47
sg9
g41
sg11
S'--'
p48
sg13
g10
sg14
S'Vernon Davis'
p49
sg16
S'2015'
p50
sg18
S'10'
p51
sg20
S'--'
p52
sg22
S'11/15'
p53
sg24
S'9.5'
p54
sg26
S'--'
p55
sg28
S'--'
p56
sg30
S'L13-29'
p57
sg32
S'19'
p58
sg34
S'2'
p59
sg36
S'KC'
p60
sg38
S'11'
p61
sg40
g41
sg42
S'--'
p62
ssS'13'
p63
(dp64
g5
S'--'
p65
sg7
S'--'
p66
sg9
g10
sg11
S'--'
p67
sg13
g10
sg14
S'Vernon Davis'
p68
sg16
S'2015'
p69
sg18
S'13'
p70
sg20
S'--'
p71
sg22
S'12/06'
p72
sg24
S'12.5'
p73
sg26
S'--'
p74
sg28
S'--'
p75
sg30
S'W17-3'
p76
sg32
S'25'
p77
sg34
g59
sg36
S'@SD'
p78
sg38
S'16'
p79
sg40
g41
sg42
S'--'
p80
ssS'12'
p81
(dp82
g5
S'--'
p83
sg7
S'--'
p84
sg9
g10
sg11
S'--'
p85
sg13
g10
sg14
S'Vernon Davis'
p86
sg16
S'2015'
p87
sg18
S'12'
p88
sg20
S'--'
p89
sg22
S'11/29'
p90
sg24
S'5.0'
p91
sg26
S'--'
p92
sg28
S'--'
p93
sg30
S'W30-24'
p94
sg32
S'10'
p95
sg34
g59
sg36
S'NE'
p96
sg38
g35
sg40
g41
sg42
S'--'
p97
ssS'15'
p98
(dp99
g5
S'--'
p100
sg7
S'--'
p101
sg9
g41
sg11
S'--'
p102
sg13
g10
sg14
S'Vernon Davis'
p103
sg16
S'2015'
p104
sg18
S'15'
p105
sg20
S'--'
p106
sg22
S'12/20'
p107
sg24
S'5.0'
p108
sg26
S'--'
p109
sg28
S'--'
p110
sg30
S'L27-34'
p111
sg32
S'5'
p112
sg34
g10
sg36
S'@PIT'
p113
sg38
g112
sg40
g41
sg42
S'--'
p114
ssS'14'
p115
(dp116
g5
S'--'
p117
sg7
S'--'
p118
sg9
g10
sg11
S'--'
p119
sg13
g10
sg14
S'Vernon Davis'
p120
sg16
S'2015'
p121
sg18
S'14'
p122
sg20
S'--'
p123
sg22
S'12/13'
p124
sg24
S'10.6'
p125
sg26
S'--'
p126
sg28
S'--'
p127
sg30
S'L12-15'
p128
sg32
S'74'
p129
sg34
S'7'
p130
sg36
S'OAK'
p131
sg38
S'23'
p132
sg40
g41
sg42
S'--'
p133
ssS'17'
p134
(dp135
g5
S'--'
p136
sg7
S'--'
p137
sg9
g41
sg11
S'--'
p138
sg13
g10
sg14
S'Vernon Davis'
p139
sg16
S'2015'
p140
sg18
S'17'
p141
sg20
S'--'
p142
sg22
S'01/03'
p143
sg24
S'--'
p144
sg26
S'--'
p145
sg28
S'--'
p146
sg30
S'W27-20'
p147
sg32
S'--'
p148
sg34
S'--'
p149
sg36
S'SD'
p150
sg38
S'--'
p151
sg40
S'--'
p152
sg42
S'--'
p153
ssS'16'
p154
(dp155
g5
S'--'
p156
sg7
S'--'
p157
sg9
g41
sg11
S'--'
p158
sg13
g10
sg14
S'Vernon Davis'
p159
sg16
S'2015'
p160
sg18
S'16'
p161
sg20
S'--'
p162
sg22
S'12/28'
p163
sg24
S'--'
p164
sg26
S'--'
p165
sg28
S'--'
p166
sg30
S'W20-17'
p167
sg32
S'--'
p168
sg34
S'--'
p169
sg36
S'CIN'
p170
sg38
S'--'
p171
sg40
S'--'
p172
sg42
S'--'
p173
ssg10
(dp174
g5
S'--'
p175
sg7
S'--'
p176
sg9
g10
sg11
S'--'
p177
sg13
g10
sg14
S'Vernon Davis'
p178
sg16
S'2015'
p179
sg18
g10
sg20
S'--'
p180
sg22
S'09/14'
p181
sg24
S'15.7'
p182
sg26
S'--'
p183
sg28
S'--'
p184
sg30
S'W20-3'
p185
sg32
S'47'
p186
sg34
S'3'
p187
sg36
S'MIN'
p188
sg38
S'20'
p189
sg40
g41
sg42
S'--'
p190
ssg187
(dp191
g5
S'--'
p192
sg7
S'--'
p193
sg9
g10
sg11
S'--'
p194
sg13
g10
sg14
S'Vernon Davis'
p195
sg16
S'2015'
p196
sg18
g187
sg20
S'--'
p197
sg22
S'09/27'
p198
sg24
S'--'
p199
sg26
S'--'
p200
sg28
S'--'
p201
sg30
S'L7-47'
p202
sg32
g41
sg34
g41
sg36
S'@ARI'
p203
sg38
S'--'
p204
sg40
g41
sg42
S'--'
p205
ssg59
(dp206
g5
S'--'
p207
sg7
S'--'
p208
sg9
g10
sg11
S'--'
p209
sg13
g10
sg14
S'Vernon Davis'
p210
sg16
S'2015'
p211
sg18
g59
sg20
S'--'
p212
sg22
S'09/20'
p213
sg24
S'12.4'
p214
sg26
S'--'
p215
sg28
S'--'
p216
sg30
S'L18-43'
p217
sg32
S'62'
p218
sg34
g112
sg36
S'@PIT'
p219
sg38
S'43'
p220
sg40
g41
sg42
S'--'
p221
ssg112
(dp222
g5
S'--'
p223
sg7
S'--'
p224
sg9
g41
sg11
S'--'
p225
sg13
g41
sg14
S'Vernon Davis'
p226
sg16
S'2015'
p227
sg18
g112
sg20
S'--'
p228
sg22
S'10/11'
p229
sg24
S'--'
p230
sg26
S'--'
p231
sg28
S'--'
p232
sg30
S'L27-30'
p233
sg32
S'--'
p234
sg34
S'--'
p235
sg36
S'@NYG'
p236
sg38
S'--'
p237
sg40
S'--'
p238
sg42
S'--'
p239
ssS'4'
p240
(dp241
g5
S'--'
p242
sg7
S'--'
p243
sg9
g41
sg11
S'--'
p244
sg13
g41
sg14
S'Vernon Davis'
p245
sg16
S'2015'
p246
sg18
g240
sg20
S'--'
p247
sg22
S'10/04'
p248
sg24
S'--'
p249
sg26
S'--'
p250
sg28
S'--'
p251
sg30
S'L3-17'
p252
sg32
S'--'
p253
sg34
S'--'
p254
sg36
S'GB'
p255
sg38
S'--'
p256
sg40
S'--'
p257
sg42
S'--'
p258
ssg130
(dp259
g5
S'--'
p260
sg7
S'--'
p261
sg9
g10
sg11
S'--'
p262
sg13
g10
sg14
S'Vernon Davis'
p263
sg16
S'2015'
p264
sg18
g130
sg20
S'--'
p265
sg22
S'10/22'
p266
sg24
S'15.3'
p267
sg26
S'--'
p268
sg28
S'--'
p269
sg30
S'L3-20'
p270
sg32
S'61'
p271
sg34
g240
sg36
S'SEA'
p272
sg38
S'27'
p273
sg40
g41
sg42
S'--'
p274
ssg35
(dp275
g5
S'--'
p276
sg7
S'--'
p277
sg9
g41
sg11
S'--'
p278
sg13
g10
sg14
S'Vernon Davis'
p279
sg16
S'2015'
p280
sg18
g35
sg20
S'--'
p281
sg22
S'10/18'
p282
sg24
S'--'
p283
sg26
S'--'
p284
sg28
S'--'
p285
sg30
S'W25-20'
p286
sg32
g41
sg34
g41
sg36
S'BAL'
p287
sg38
S'--'
p288
sg40
g41
sg42
S'--'
p289
ssS'9'
p290
(dp291
g5
S'--'
p292
sg7
S'--'
p293
sg9
g41
sg11
S'--'
p294
sg13
g10
sg14
S'Vernon Davis'
p295
sg16
S'2015'
p296
sg18
g290
sg20
S'--'
p297
sg22
S'11/08'
p298
sg24
S'--'
p299
sg26
S'--'
p300
sg28
S'--'
p301
sg30
S'L24-27'
p302
sg32
g41
sg34
g41
sg36
S'@IND'
p303
sg38
S'--'
p304
sg40
g41
sg42
S'--'
p305
ssS'8'
p306
(dp307
g5
S'--'
p308
sg7
S'--'
p309
sg9
g10
sg11
S'--'
p310
sg13
g10
sg14
S'Vernon Davis'
p311
sg16
S'2015'
p312
sg18
g306
sg20
S'--'
p313
sg22
S'11/01'
p314
sg24
S'4.0'
p315
sg26
S'--'
p316
sg28
S'--'
p317
sg30
S'L6-27'
p318
sg32
S'24'
p319
sg34
g35
sg36
S'@STL'
p320
sg38
S'11'
p321
sg40
g41
sg42
S'--'
p322
sssS'2014'
p323
(dp324
g3
(dp325
g5
g41
sg7
g240
sg9
g10
sg11
S'--'
p326
sg13
g10
sg14
S'Vernon Davis'
p327
sg16
S'2014'
p328
sg18
S'11'
p329
sg20
S'4.0'
p330
sg22
S'11/16'
p331
sg24
S'7.0'
p332
sg26
S'--'
p333
sg28
g10
sg30
S'W16-10'
p334
sg32
g130
sg34
g10
sg36
S'@NYG'
p335
sg38
g130
sg40
g41
sg42
g240
ssg44
(dp336
g5
S'--'
p337
sg7
S'--'
p338
sg9
g10
sg11
S'--'
p339
sg13
g10
sg14
S'Vernon Davis'
p340
sg16
S'2014'
p341
sg18
S'10'
p342
sg20
S'--'
p343
sg22
S'11/09'
p344
sg24
S'8.0'
p345
sg26
S'--'
p346
sg28
S'--'
p347
sg30
S'W27-24'
p348
sg32
g306
sg34
g10
sg36
S'@NO'
p349
sg38
g306
sg40
g41
sg42
S'--'
p350
ssg63
(dp351
g5
S'--'
p352
sg7
S'--'
p353
sg9
g10
sg11
S'--'
p354
sg13
g10
sg14
S'Vernon Davis'
p355
sg16
S'2014'
p356
sg18
S'13'
p357
sg20
S'--'
p358
sg22
S'11/27'
p359
sg24
S'6.5'
p360
sg26
S'--'
p361
sg28
S'--'
p362
sg30
S'L3-19'
p363
sg32
S'13'
p364
sg34
g59
sg36
S'SEA'
p365
sg38
S'10'
p366
sg40
g41
sg42
S'--'
p367
ssg81
(dp368
g5
S'--'
p369
sg7
S'--'
p370
sg9
g10
sg11
S'--'
p371
sg13
g10
sg14
S'Vernon Davis'
p372
sg16
S'2014'
p373
sg18
S'12'
p374
sg20
S'--'
p375
sg22
S'11/23'
p376
sg24
S'7.0'
p377
sg26
S'--'
p378
sg28
S'--'
p379
sg30
S'W17-13'
p380
sg32
S'21'
p381
sg34
g187
sg36
S'WAS'
p382
sg38
S'12'
p383
sg40
g41
sg42
S'--'
p384
ssg98
(dp385
g5
S'--'
p386
sg7
S'--'
p387
sg9
g10
sg11
S'--'
p388
sg13
g10
sg14
S'Vernon Davis'
p389
sg16
S'2014'
p390
sg18
S'15'
p391
sg20
S'--'
p392
sg22
S'12/14'
p393
sg24
S'--'
p394
sg26
S'--'
p395
sg28
S'--'
p396
sg30
S'L7-17'
p397
sg32
g41
sg34
g41
sg36
S'@SEA'
p398
sg38
S'--'
p399
sg40
g41
sg42
S'--'
p400
ssg115
(dp401
g5
S'--'
p402
sg7
S'--'
p403
sg9
g10
sg11
S'--'
p404
sg13
g10
sg14
S'Vernon Davis'
p405
sg16
S'2014'
p406
sg18
S'14'
p407
sg20
S'--'
p408
sg22
S'12/07'
p409
sg24
S'13.0'
p410
sg26
S'--'
p411
sg28
S'--'
p412
sg30
S'L13-24'
p413
sg32
S'26'
p414
sg34
g59
sg36
S'@OAK'
p415
sg38
S'23'
p416
sg40
g41
sg42
S'--'
p417
ssg134
(dp418
g5
S'--'
p419
sg7
S'--'
p420
sg9
g10
sg11
S'--'
p421
sg13
g10
sg14
S'Vernon Davis'
p422
sg16
S'2014'
p423
sg18
S'17'
p424
sg20
S'--'
p425
sg22
S'12/28'
p426
sg24
S'9.0'
p427
sg26
S'--'
p428
sg28
S'--'
p429
sg30
S'W20-17'
p430
sg32
g290
sg34
g10
sg36
S'ARI'
p431
sg38
g290
sg40
g41
sg42
S'--'
p432
ssg154
(dp433
g5
S'--'
p434
sg7
S'--'
p435
sg9
g10
sg11
S'--'
p436
sg13
g10
sg14
S'Vernon Davis'
p437
sg16
S'2014'
p438
sg18
S'16'
p439
sg20
S'--'
p440
sg22
S'12/20'
p441
sg24
S'--'
p442
sg26
S'--'
p443
sg28
S'--'
p444
sg30
S'L35-38'
p445
sg32
S'--'
p446
sg34
S'--'
p447
sg36
S'SD'
p448
sg38
S'--'
p449
sg40
S'--'
p450
sg42
S'--'
p451
ssg10
(dp452
g5
S'--'
p453
sg7
S'--'
p454
sg9
g10
sg11
S'--'
p455
sg13
g10
sg14
S'Vernon Davis'
p456
sg16
S'2014'
p457
sg18
g10
sg20
S'--'
p458
sg22
S'09/07'
p459
sg24
S'11.0'
p460
sg26
S'--'
p461
sg28
S'--'
p462
sg30
S'W28-17'
p463
sg32
S'44'
p464
sg34
g240
sg36
S'@DAL'
p465
sg38
S'29T'
p466
sg40
g59
sg42
S'--'
p467
ssg187
(dp468
g5
S'--'
p469
sg7
S'--'
p470
sg9
g41
sg11
S'--'
p471
sg13
g41
sg14
S'Vernon Davis'
p472
sg16
S'2014'
p473
sg18
g187
sg20
S'--'
p474
sg22
S'09/21'
p475
sg24
S'--'
p476
sg26
S'--'
p477
sg28
S'--'
p478
sg30
S'L14-23'
p479
sg32
S'--'
p480
sg34
S'--'
p481
sg36
S'@ARI'
p482
sg38
S'--'
p483
sg40
S'--'
p484
sg42
S'--'
p485
ssg59
(dp486
g5
S'--'
p487
sg7
S'--'
p488
sg9
g10
sg11
S'--'
p489
sg13
g10
sg14
S'Vernon Davis'
p490
sg16
S'2014'
p491
sg18
g59
sg20
S'--'
p492
sg22
S'09/14'
p493
sg24
S'13.0'
p494
sg26
S'--'
p495
sg28
S'--'
p496
sg30
S'L20-28'
p497
sg32
S'39'
p498
sg34
g187
sg36
S'CHI'
p499
sg38
S'17'
p500
sg40
g41
sg42
S'--'
p501
ssg112
(dp502
g5
S'--'
p503
sg7
S'--'
p504
sg9
g41
sg11
S'--'
p505
sg13
g41
sg14
S'Vernon Davis'
p506
sg16
S'2014'
p507
sg18
g112
sg20
S'--'
p508
sg22
S'10/05'
p509
sg24
S'--'
p510
sg26
S'--'
p511
sg28
S'--'
p512
sg30
S'W22-17'
p513
sg32
S'--'
p514
sg34
S'--'
p515
sg36
S'KC'
p516
sg38
S'--'
p517
sg40
S'--'
p518
sg42
S'--'
p519
ssg240
(dp520
g5
S'--'
p521
sg7
S'--'
p522
sg9
g10
sg11
S'--'
p523
sg13
g10
sg14
S'Vernon Davis'
p524
sg16
S'2014'
p525
sg18
g240
sg20
S'--'
p526
sg22
S'09/28'
p527
sg24
S'4.0'
p528
sg26
S'--'
p529
sg28
S'--'
p530
sg30
S'W26-21'
p531
sg32
g306
sg34
g59
sg36
S'PHI'
p532
sg38
g112
sg40
g41
sg42
S'--'
p533
ssg130
(dp534
g5
S'--'
p535
sg7
S'--'
p536
sg9
g10
sg11
S'--'
p537
sg13
g10
sg14
S'Vernon Davis'
p538
sg16
S'2014'
p539
sg18
g130
sg20
S'--'
p540
sg22
S'10/19'
p541
sg24
S'10.5'
p542
sg26
S'--'
p543
sg28
S'--'
p544
sg30
S'L17-42'
p545
sg32
S'21'
p546
sg34
g59
sg36
S'@DEN'
p547
sg38
S'14'
p548
sg40
g41
sg42
S'--'
p549
ssg35
(dp550
g5
S'--'
p551
sg7
S'--'
p552
sg9
g10
sg11
S'--'
p553
sg13
g10
sg14
S'Vernon Davis'
p554
sg16
S'2014'
p555
sg18
g35
sg20
S'--'
p556
sg22
S'10/13'
p557
sg24
S'10.0'
p558
sg26
S'--'
p559
sg28
S'--'
p560
sg30
S'W31-17'
p561
sg32
S'30'
p562
sg34
g187
sg36
S'@STL'
p563
sg38
S'17'
p564
sg40
g41
sg42
S'--'
p565
ssg290
(dp566
g5
S'--'
p567
sg7
S'--'
p568
sg9
g10
sg11
S'--'
p569
sg13
g10
sg14
S'Vernon Davis'
p570
sg16
S'2014'
p571
sg18
g290
sg20
S'--'
p572
sg22
S'11/02'
p573
sg24
S'9.5'
p574
sg26
S'--'
p575
sg28
S'--'
p576
sg30
S'L10-13'
p577
sg32
S'19'
p578
sg34
g59
sg36
S'STL'
p579
sg38
S'13'
p580
sg40
g41
sg42
S'--'
p581
ssg306
(dp582
g5
S''
p583
sg7
g583
sg9
g583
sg11
g583
sg13
g583
sg14
S'Vernon Davis'
p584
sg16
S'2014'
p585
sg18
g306
sg20
g583
sg22
S'Bye'
p586
sg24
g583
sg26
g583
sg28
g583
sg30
g583
sg32
g583
sg34
g583
sg36
g583
sg38
g583
sg40
g583
sg42
g583
sssS'2011'
p587
(dp588
g3
(dp589
g5
S'--'
p590
sg7
S'--'
p591
sg9
g10
sg11
S'--'
p592
sg13
g10
sg14
S'Vernon Davis'
p593
sg16
S'2011'
p594
sg18
S'11'
p595
sg20
S'--'
p596
sg22
S'11/20'
p597
sg24
S'13.4'
p598
sg26
S'--'
p599
sg28
S'--'
p600
sg30
S'W23-7'
p601
sg32
S'67'
p602
sg34
g112
sg36
S'ARI'
p603
sg38
S'27'
p604
sg40
g10
sg42
S'--'
p605
ssg44
(dp606
g5
S'--'
p607
sg7
S'--'
p608
sg9
g10
sg11
S'--'
p609
sg13
g10
sg14
S'Vernon Davis'
p610
sg16
S'2011'
p611
sg18
S'10'
p612
sg20
S'--'
p613
sg22
S'11/13'
p614
sg24
S'13.3'
p615
sg26
S'--'
p616
sg28
S'--'
p617
sg30
S'W27-20'
p618
sg32
S'40'
p619
sg34
g187
sg36
S'NYG'
p620
sg38
S'31T'
p621
sg40
g10
sg42
S'--'
p622
ssg63
(dp623
g5
S'--'
p624
sg7
S'--'
p625
sg9
g10
sg11
g41
sg13
g10
sg14
S'Vernon Davis'
p626
sg16
S'2011'
p627
sg18
S'13'
p628
sg20
S'--'
p629
sg22
S'12/04'
p630
sg24
S'6.4'
p631
sg26
g10
sg28
S'--'
p632
sg30
S'W26-0'
p633
sg32
S'32'
p634
sg34
g112
sg36
S'STL'
p635
sg38
S'13'
p636
sg40
g41
sg42
S'--'
p637
ssg81
(dp638
g5
S'--'
p639
sg7
S'--'
p640
sg9
g10
sg11
S'--'
p641
sg13
g10
sg14
S'Vernon Davis'
p642
sg16
S'2011'
p643
sg18
S'12'
p644
sg20
S'--'
p645
sg22
S'11/24'
p646
sg24
S'9.5'
p647
sg26
S'--'
p648
sg28
S'--'
p649
sg30
S'L6-16'
p650
sg32
S'38'
p651
sg34
g240
sg36
S'@BAL'
p652
sg38
S'20'
p653
sg40
g41
sg42
S'--'
p654
ssg98
(dp655
g5
S'--'
p656
sg7
S'--'
p657
sg9
g10
sg11
S'--'
p658
sg13
g10
sg14
S'Vernon Davis'
p659
sg16
S'2011'
p660
sg18
S'15'
p661
sg20
S'--'
p662
sg22
S'12/19'
p663
sg24
S'12.0'
p664
sg26
S'--'
p665
sg28
S'--'
p666
sg30
S'W20-3'
p667
sg32
S'72'
p668
sg34
g35
sg36
S'PIT'
p669
sg38
S'31'
p670
sg40
g10
sg42
S'--'
p671
ssg115
(dp672
g5
S'--'
p673
sg7
S'--'
p674
sg9
g10
sg11
S'--'
p675
sg13
g10
sg14
S'Vernon Davis'
p676
sg16
S'2011'
p677
sg18
S'14'
p678
sg20
S'--'
p679
sg22
S'12/11'
p680
sg24
S'32.0'
p681
sg26
S'--'
p682
sg28
S'--'
p683
sg30
S'L19-21'
p684
sg32
S'32'
p685
sg34
g10
sg36
S'@ARI'
p686
sg38
S'32'
p687
sg40
g41
sg42
S'--'
p688
ssg134
(dp689
g5
S'--'
p690
sg7
S'--'
p691
sg9
g10
sg11
S'--'
p692
sg13
g10
sg14
S'Vernon Davis'
p693
sg16
S'2011'
p694
sg18
S'17'
p695
sg20
S'--'
p696
sg22
S'01/01'
p697
sg24
S'14.8'
p698
sg26
S'--'
p699
sg28
S'--'
p700
sg30
S'W34-27'
p701
sg32
S'118'
p702
sg34
g306
sg36
S'@STL'
p703
sg38
S'44'
p704
sg40
g41
sg42
S'--'
p705
ssg154
(dp706
g5
S'--'
p707
sg7
S'--'
p708
sg9
g10
sg11
S'--'
p709
sg13
g10
sg14
S'Vernon Davis'
p710
sg16
S'2011'
p711
sg18
S'16'
p712
sg20
S'--'
p713
sg22
S'12/24'
p714
sg24
S'13.5'
p715
sg26
S'--'
p716
sg28
S'--'
p717
sg30
S'W19-17'
p718
sg32
S'54'
p719
sg34
g240
sg36
S'@SEA'
p720
sg38
S'17'
p721
sg40
g41
sg42
S'--'
p722
ssg10
(dp723
g5
S'--'
p724
sg7
S'--'
p725
sg9
g10
sg11
S'--'
p726
sg13
g10
sg14
S'Vernon Davis'
p727
sg16
S'2011'
p728
sg18
g10
sg20
S'--'
p729
sg22
S'09/11'
p730
sg24
S'9.4'
p731
sg26
S'--'
p732
sg28
S'--'
p733
sg30
S'W33-17'
p734
sg32
S'47'
p735
sg34
g112
sg36
S'SEA'
p736
sg38
S'27'
p737
sg40
g41
sg42
S'--'
p738
ssg187
(dp739
g5
g41
sg7
S'-2'
p740
sg9
g10
sg11
g41
sg13
g10
sg14
S'Vernon Davis'
p741
sg16
S'2011'
p742
sg18
g187
sg20
S'-2.0'
p743
sg22
S'09/25'
p744
sg24
S'14.3'
p745
sg26
g10
sg28
g10
sg30
S'W13-8'
p746
sg32
S'114'
p747
sg34
g306
sg36
S'@CIN'
p748
sg38
S'39'
p749
sg40
g41
sg42
S'-2'
p750
ssg59
(dp751
g5
S'--'
p752
sg7
S'--'
p753
sg9
g10
sg11
S'--'
p754
sg13
g10
sg14
S'Vernon Davis'
p755
sg16
S'2011'
p756
sg18
g59
sg20
S'--'
p757
sg22
S'09/18'
p758
sg24
S'9.0'
p759
sg26
S'--'
p760
sg28
S'--'
p761
sg30
S'L24-27'
p762
sg32
S'18'
p763
sg34
g59
sg36
S'DAL'
p764
sg38
S'12'
p765
sg40
g41
sg42
S'--'
p766
ssg112
(dp767
g5
g41
sg7
S'-3'
p768
sg9
g10
sg11
S'--'
p769
sg13
g10
sg14
S'Vernon Davis'
p770
sg16
S'2011'
p771
sg18
g112
sg20
S'-3.0'
p772
sg22
S'10/09'
p773
sg24
S'13.0'
p774
sg26
S'--'
p775
sg28
g10
sg30
S'W48-3'
p776
sg32
S'39'
p777
sg34
g187
sg36
S'TB'
p778
sg38
S'23T'
p779
sg40
g59
sg42
S'-3'
p780
ssg240
(dp781
g5
S'--'
p782
sg7
S'--'
p783
sg9
g10
sg11
S'--'
p784
sg13
g10
sg14
S'Vernon Davis'
p785
sg16
S'2011'
p786
sg18
g240
sg20
S'--'
p787
sg22
S'10/02'
p788
sg24
S'11.3'
p789
sg26
S'--'
p790
sg28
S'--'
p791
sg30
S'W24-23'
p792
sg32
S'45'
p793
sg34
g240
sg36
S'@PHI'
p794
sg38
S'26'
p795
sg40
g10
sg42
S'--'
p796
ssg130
(dp797
g5
g583
sg7
g583
sg9
g583
sg11
g583
sg13
g583
sg14
S'Vernon Davis'
p798
sg16
S'2011'
p799
sg18
g130
sg20
g583
sg22
S'Bye'
p800
sg24
g583
sg26
g583
sg28
g583
sg30
g583
sg32
g583
sg34
g583
sg36
g583
sg38
g583
sg40
g583
sg42
g583
ssg35
(dp801
g5
S'--'
p802
sg7
S'--'
p803
sg9
g10
sg11
S'--'
p804
sg13
g10
sg14
S'Vernon Davis'
p805
sg16
S'2011'
p806
sg18
g35
sg20
S'--'
p807
sg22
S'10/16'
p808
sg24
S'4.0'
p809
sg26
S'--'
p810
sg28
S'--'
p811
sg30
S'W25-19'
p812
sg32
g306
sg34
g59
sg36
S'@DET'
p813
sg38
g35
sg40
g41
sg42
S'--'
p814
ssg290
(dp815
g5
S'--'
p816
sg7
S'--'
p817
sg9
g10
sg11
g10
sg13
g10
sg14
S'Vernon Davis'
p818
sg16
S'2011'
p819
sg18
g290
sg20
S'--'
p820
sg22
S'11/06'
p821
sg24
S'10.3'
p822
sg26
g10
sg28
S'--'
p823
sg30
S'W19-11'
p824
sg32
S'41'
p825
sg34
g240
sg36
S'@WAS'
p826
sg38
S'21'
p827
sg40
g41
sg42
S'--'
p828
ssg306
(dp829
g5
S'--'
p830
sg7
S'--'
p831
sg9
g10
sg11
S'--'
p832
sg13
g10
sg14
S'Vernon Davis'
p833
sg16
S'2011'
p834
sg18
g306
sg20
S'--'
p835
sg22
S'10/30'
p836
sg24
S'9.0'
p837
sg26
S'--'
p838
sg28
S'--'
p839
sg30
S'W20-10'
p840
sg32
S'27'
p841
sg34
g187
sg36
S'CLE'
p842
sg38
S'19'
p843
sg40
g41
sg42
S'--'
p844
sssS'2010'
p845
(dp846
g3
(dp847
g5
S'--'
p848
sg7
S'--'
p849
sg9
g10
sg11
S'--'
p850
sg13
g10
sg14
S'Vernon Davis'
p851
sg16
S'2010'
p852
sg18
S'11'
p853
sg20
S'--'
p854
sg22
S'11/21'
p855
sg24
S'3.0'
p856
sg26
S'--'
p857
sg28
S'--'
p858
sg30
S'L0-21'
p859
sg32
g187
sg34
g10
sg36
S'TB'
p860
sg38
g187
sg40
g41
sg42
S'--'
p861
ssg44
(dp862
g5
S'--'
p863
sg7
S'--'
p864
sg9
g10
sg11
S'--'
p865
sg13
g10
sg14
S'Vernon Davis'
p866
sg16
S'2010'
p867
sg18
S'10'
p868
sg20
S'--'
p869
sg22
S'11/14'
p870
sg24
S'19.8'
p871
sg26
S'--'
p872
sg28
S'--'
p873
sg30
S'W23-20'
p874
sg32
S'79'
p875
sg34
g240
sg36
S'STL'
p876
sg38
S'38'
p877
sg40
g41
sg42
S'--'
p878
ssg63
(dp879
g5
S'--'
p880
sg7
S'--'
p881
sg9
g10
sg11
S'--'
p882
sg13
g10
sg14
S'Vernon Davis'
p883
sg16
S'2010'
p884
sg18
S'13'
p885
sg20
S'--'
p886
sg22
S'12/05'
p887
sg24
S'31.5'
p888
sg26
S'--'
p889
sg28
S'--'
p890
sg30
S'L16-34'
p891
sg32
S'126'
p892
sg34
g240
sg36
S'@GB'
p893
sg38
S'66T'
p894
sg40
g10
sg42
S'--'
p895
ssg81
(dp896
g5
S'--'
p897
sg7
S'--'
p898
sg9
g10
sg11
S'--'
p899
sg13
g10
sg14
S'Vernon Davis'
p900
sg16
S'2010'
p901
sg18
S'12'
p902
sg20
S'--'
p903
sg22
S'11/29'
p904
sg24
S'16.0'
p905
sg26
S'--'
p906
sg28
S'--'
p907
sg30
S'W27-6'
p908
sg32
S'32'
p909
sg34
g59
sg36
S'@ARI'
p910
sg38
S'16'
p911
sg40
g41
sg42
S'--'
p912
ssg98
(dp913
g5
S'--'
p914
sg7
S'--'
p915
sg9
g10
sg11
S'--'
p916
sg13
g10
sg14
S'Vernon Davis'
p917
sg16
S'2010'
p918
sg18
S'15'
p919
sg20
S'--'
p920
sg22
S'12/16'
p921
sg24
S'4.0'
p922
sg26
S'--'
p923
sg28
S'--'
p924
sg30
S'L7-34'
p925
sg32
g240
sg34
g10
sg36
S'@SD'
p926
sg38
g240
sg40
g41
sg42
S'--'
p927
ssg115
(dp928
g5
S'--'
p929
sg7
S'--'
p930
sg9
g10
sg11
S'--'
p931
sg13
g10
sg14
S'Vernon Davis'
p932
sg16
S'2010'
p933
sg18
S'14'
p934
sg20
S'--'
p935
sg22
S'12/12'
p936
sg24
S'14.0'
p937
sg26
S'--'
p938
sg28
S'--'
p939
sg30
S'W40-21'
p940
sg32
S'70'
p941
sg34
g112
sg36
S'SEA'
p942
sg38
S'42T'
p943
sg40
g10
sg42
S'--'
p944
ssg134
(dp945
g5
S'--'
p946
sg7
S'--'
p947
sg9
g10
sg11
S'--'
p948
sg13
g10
sg14
S'Vernon Davis'
p949
sg16
S'2010'
p950
sg18
S'17'
p951
sg20
S'--'
p952
sg22
S'01/02'
p953
sg24
S'32.0'
p954
sg26
S'--'
p955
sg28
S'--'
p956
sg30
S'W38-7'
p957
sg32
S'96'
p958
sg34
g187
sg36
S'ARI'
p959
sg38
S'59T'
p960
sg40
g10
sg42
S'--'
p961
ssg154
(dp962
g5
S'--'
p963
sg7
S'--'
p964
sg9
g10
sg11
S'--'
p965
sg13
g10
sg14
S'Vernon Davis'
p966
sg16
S'2010'
p967
sg18
S'16'
p968
sg20
S'--'
p969
sg22
S'12/26'
p970
sg24
S'23.3'
p971
sg26
S'--'
p972
sg28
S'--'
p973
sg30
S'L17-25'
p974
sg32
S'70'
p975
sg34
g187
sg36
S'@STL'
p976
sg38
S'29'
p977
sg40
g41
sg42
S'--'
p978
ssg10
(dp979
g5
S'--'
p980
sg7
S'--'
p981
sg9
g10
sg11
S'--'
p982
sg13
g10
sg14
S'Vernon Davis'
p983
sg16
S'2010'
p984
sg18
g10
sg20
S'--'
p985
sg22
S'09/12'
p986
sg24
S'9.1'
p987
sg26
S'--'
p988
sg28
S'--'
p989
sg30
S'L6-31'
p990
sg32
S'73'
p991
sg34
g306
sg36
S'@SEA'
p992
sg38
S'16'
p993
sg40
g41
sg42
S'--'
p994
ssg187
(dp995
g5
S'--'
p996
sg7
S'--'
p997
sg9
g10
sg11
S'--'
p998
sg13
g10
sg14
S'Vernon Davis'
p999
sg16
S'2010'
p1000
sg18
g187
sg20
S'--'
p1001
sg22
S'09/26'
p1002
sg24
S'7.3'
p1003
sg26
S'--'
p1004
sg28
S'--'
p1005
sg30
S'L10-31'
p1006
sg32
S'22'
p1007
sg34
g187
sg36
S'@KC'
p1008
sg38
S'10'
p1009
sg40
g41
sg42
S'--'
p1010
ssg59
(dp1011
g5
S'--'
p1012
sg7
S'--'
p1013
sg9
g10
sg11
S'--'
p1014
sg13
g10
sg14
S'Vernon Davis'
p1015
sg16
S'2010'
p1016
sg18
g59
sg20
S'--'
p1017
sg22
S'09/20'
p1018
sg24
S'19.5'
p1019
sg26
S'--'
p1020
sg28
S'--'
p1021
sg30
S'L22-25'
p1022
sg32
S'78'
p1023
sg34
g240
sg36
S'NO'
p1024
sg38
S'41'
p1025
sg40
g41
sg42
S'--'
p1026
ssg112
(dp1027
g5
S'--'
p1028
sg7
S'--'
p1029
sg9
g10
sg11
S'--'
p1030
sg13
g10
sg14
S'Vernon Davis'
p1031
sg16
S'2010'
p1032
sg18
g112
sg20
S'--'
p1033
sg22
S'10/10'
p1034
sg24
S'20.8'
p1035
sg26
S'--'
p1036
sg28
S'--'
p1037
sg30
S'L24-27'
p1038
sg32
S'104'
p1039
sg34
g112
sg36
S'PHI'
p1040
sg38
S'36'
p1041
sg40
g10
sg42
S'--'
p1042
ssg240
(dp1043
g5
S'--'
p1044
sg7
S'--'
p1045
sg9
g10
sg11
S'--'
p1046
sg13
g10
sg14
S'Vernon Davis'
p1047
sg16
S'2010'
p1048
sg18
g240
sg20
S'--'
p1049
sg22
S'10/03'
p1050
sg24
S'9.0'
p1051
sg26
S'--'
p1052
sg28
S'--'
p1053
sg30
S'L14-16'
p1054
sg32
S'36'
p1055
sg34
g240
sg36
S'@ATL'
p1056
sg38
S'15'
p1057
sg40
g10
sg42
S'--'
p1058
ssg130
(dp1059
g5
S'--'
p1060
sg7
S'--'
p1061
sg9
g10
sg11
S'--'
p1062
sg13
g10
sg14
S'Vernon Davis'
p1063
sg16
S'2010'
p1064
sg18
g130
sg20
S'--'
p1065
sg22
S'10/24'
p1066
sg24
S'18.5'
p1067
sg26
S'--'
p1068
sg28
S'--'
p1069
sg30
S'L20-23'
p1070
sg32
S'74'
p1071
sg34
g240
sg36
S'@CAR'
p1072
sg38
S'53'
p1073
sg40
g10
sg42
S'--'
p1074
ssg35
(dp1075
g5
S'--'
p1076
sg7
S'--'
p1077
sg9
g10
sg11
S'--'
p1078
sg13
g10
sg14
S'Vernon Davis'
p1079
sg16
S'2010'
p1080
sg18
g35
sg20
S'--'
p1081
sg22
S'10/17'
p1082
sg24
S'8.8'
p1083
sg26
S'--'
p1084
sg28
S'--'
p1085
sg30
S'W17-9'
p1086
sg32
S'35'
p1087
sg34
g240
sg36
S'OAK'
p1088
sg38
S'17T'
p1089
sg40
g10
sg42
S'--'
p1090
ssg290
(dp1091
g5
g583
sg7
g583
sg9
g583
sg11
g583
sg13
g583
sg14
S'Vernon Davis'
p1092
sg16
S'2010'
p1093
sg18
g290
sg20
g583
sg22
S'Bye'
p1094
sg24
g583
sg26
g583
sg28
g583
sg30
g583
sg32
g583
sg34
g583
sg36
g583
sg38
g583
sg40
g583
sg42
g583
ssg306
(dp1095
g5
S'--'
p1096
sg7
S'--'
p1097
sg9
g10
sg11
S'--'
p1098
sg13
g10
sg14
S'Vernon Davis'
p1099
sg16
S'2010'
p1100
sg18
g306
sg20
S'--'
p1101
sg22
S'10/31'
p1102
sg24
S'12.0'
p1103
sg26
S'--'
p1104
sg28
S'--'
p1105
sg30
S'W24-16'
p1106
sg32
S'12'
p1107
sg34
g10
sg36
S'DEN'
p1108
sg38
S'12'
p1109
sg40
g41
sg42
S'--'
p1110
sssS'2013'
p1111
(dp1112
g3
(dp1113
g5
S'--'
p1114
sg7
S'--'
p1115
sg9
g10
sg11
S'--'
p1116
sg13
g10
sg14
S'Vernon Davis'
p1117
sg16
S'2013'
p1118
sg18
S'11'
p1119
sg20
S'--'
p1120
sg22
S'11/17'
p1121
sg24
S'8.3'
p1122
sg26
S'--'
p1123
sg28
S'--'
p1124
sg30
S'L20-23'
p1125
sg32
S'33'
p1126
sg34
g240
sg36
S'@NO'
p1127
sg38
S'17T'
p1128
sg40
g10
sg42
S'--'
p1129
ssg44
(dp1130
g5
S'--'
p1131
sg7
S'--'
p1132
sg9
g10
sg11
S'--'
p1133
sg13
g10
sg14
S'Vernon Davis'
p1134
sg16
S'2013'
p1135
sg18
S'10'
p1136
sg20
S'--'
p1137
sg22
S'11/10'
p1138
sg24
S'2.0'
p1139
sg26
S'--'
p1140
sg28
S'--'
p1141
sg30
S'L9-10'
p1142
sg32
g59
sg34
g10
sg36
S'CAR'
p1143
sg38
g59
sg40
g41
sg42
S'--'
p1144
ssg63
(dp1145
g5
S'--'
p1146
sg7
S'--'
p1147
sg9
g10
sg11
S'--'
p1148
sg13
g10
sg14
S'Vernon Davis'
p1149
sg16
S'2013'
p1150
sg18
S'13'
p1151
sg20
S'--'
p1152
sg22
S'12/01'
p1153
sg24
S'20.5'
p1154
sg26
S'--'
p1155
sg28
S'--'
p1156
sg30
S'W23-13'
p1157
sg32
S'82'
p1158
sg34
g240
sg36
S'STL'
p1159
sg38
S'23'
p1160
sg40
g10
sg42
S'--'
p1161
ssg81
(dp1162
g5
S'--'
p1163
sg7
S'--'
p1164
sg9
g10
sg11
g10
sg13
g10
sg14
S'Vernon Davis'
p1165
sg16
S'2013'
p1166
sg18
S'12'
p1167
sg20
S'--'
p1168
sg22
S'11/25'
p1169
sg24
S'17.5'
p1170
sg26
g10
sg28
S'--'
p1171
sg30
S'W27-6'
p1172
sg32
S'70'
p1173
sg34
g240
sg36
S'@WAS'
p1174
sg38
S'40'
p1175
sg40
g10
sg42
S'--'
p1176
ssg98
(dp1177
g5
S'--'
p1178
sg7
S'--'
p1179
sg9
g10
sg11
S'--'
p1180
sg13
g10
sg14
S'Vernon Davis'
p1181
sg16
S'2013'
p1182
sg18
S'15'
p1183
sg20
S'--'
p1184
sg22
S'12/15'
p1185
sg24
S'15.8'
p1186
sg26
S'--'
p1187
sg28
S'--'
p1188
sg30
S'W33-14'
p1189
sg32
S'79'
p1190
sg34
g112
sg36
S'@TB'
p1191
sg38
S'52T'
p1192
sg40
g10
sg42
S'--'
p1193
ssg115
(dp1194
g5
S'--'
p1195
sg7
S'--'
p1196
sg9
g10
sg11
S'--'
p1197
sg13
g10
sg14
S'Vernon Davis'
p1198
sg16
S'2013'
p1199
sg18
S'14'
p1200
sg20
S'--'
p1201
sg22
S'12/08'
p1202
sg24
S'10.5'
p1203
sg26
S'--'
p1204
sg28
S'--'
p1205
sg30
S'W19-17'
p1206
sg32
S'21'
p1207
sg34
g59
sg36
S'SEA'
p1208
sg38
S'13'
p1209
sg40
g10
sg42
S'--'
p1210
ssg134
(dp1211
g5
S'--'
p1212
sg7
S'--'
p1213
sg9
g10
sg11
S'--'
p1214
sg13
g10
sg14
S'Vernon Davis'
p1215
sg16
S'2013'
p1216
sg18
S'17'
p1217
sg20
S'--'
p1218
sg22
S'12/29'
p1219
sg24
S'15.0'
p1220
sg26
S'--'
p1221
sg28
S'--'
p1222
sg30
S'W23-20'
p1223
sg32
S'45'
p1224
sg34
g187
sg36
S'@ARI'
p1225
sg38
S'26'
p1226
sg40
g10
sg42
S'--'
p1227
ssg154
(dp1228
g5
S'--'
p1229
sg7
S'--'
p1230
sg9
g10
sg11
S'--'
p1231
sg13
g10
sg14
S'Vernon Davis'
p1232
sg16
S'2013'
p1233
sg18
S'16'
p1234
sg20
S'--'
p1235
sg22
S'12/23'
p1236
sg24
S'--'
p1237
sg26
S'--'
p1238
sg28
S'--'
p1239
sg30
S'W34-24'
p1240
sg32
g41
sg34
g41
sg36
S'ATL'
p1241
sg38
S'--'
p1242
sg40
g41
sg42
S'--'
p1243
ssg10
(dp1244
g5
S'--'
p1245
sg7
S'--'
p1246
sg9
g10
sg11
S'--'
p1247
sg13
g10
sg14
S'Vernon Davis'
p1248
sg16
S'2013'
p1249
sg18
g10
sg20
S'--'
p1250
sg22
S'09/08'
p1251
sg24
S'16.3'
p1252
sg26
S'--'
p1253
sg28
S'--'
p1254
sg30
S'W34-28'
p1255
sg32
S'98'
p1256
sg34
g35
sg36
S'GB'
p1257
sg38
S'37'
p1258
sg40
g59
sg42
S'--'
p1259
ssg187
(dp1260
g5
S'--'
p1261
sg7
S'--'
p1262
sg9
g41
sg11
S'--'
p1263
sg13
g41
sg14
S'Vernon Davis'
p1264
sg16
S'2013'
p1265
sg18
g187
sg20
S'--'
p1266
sg22
S'09/22'
p1267
sg24
S'--'
p1268
sg26
S'--'
p1269
sg28
S'--'
p1270
sg30
S'L7-27'
p1271
sg32
S'--'
p1272
sg34
S'--'
p1273
sg36
S'IND'
p1274
sg38
S'--'
p1275
sg40
S'--'
p1276
sg42
S'--'
p1277
ssg59
(dp1278
g5
S'--'
p1279
sg7
S'--'
p1280
sg9
g10
sg11
S'--'
p1281
sg13
g10
sg14
S'Vernon Davis'
p1282
sg16
S'2013'
p1283
sg18
g59
sg20
S'--'
p1284
sg22
S'09/15'
p1285
sg24
S'6.7'
p1286
sg26
S'--'
p1287
sg28
S'--'
p1288
sg30
S'L3-29'
p1289
sg32
S'20'
p1290
sg34
g187
sg36
S'@SEA'
p1291
sg38
g306
sg40
g41
sg42
S'--'
p1292
ssg112
(dp1293
g5
S'--'
p1294
sg7
S'--'
p1295
sg9
g10
sg11
S'--'
p1296
sg13
g10
sg14
S'Vernon Davis'
p1297
sg16
S'2013'
p1298
sg18
g112
sg20
S'--'
p1299
sg22
S'10/06'
p1300
sg24
S'29.3'
p1301
sg26
S'--'
p1302
sg28
S'--'
p1303
sg30
S'W34-3'
p1304
sg32
S'88'
p1305
sg34
g187
sg36
S'HOU'
p1306
sg38
S'64T'
p1307
sg40
g10
sg42
S'--'
p1308
ssg240
(dp1309
g5
S'--'
p1310
sg7
S'--'
p1311
sg9
g10
sg11
S'--'
p1312
sg13
g10
sg14
S'Vernon Davis'
p1313
sg16
S'2013'
p1314
sg18
g240
sg20
S'--'
p1315
sg22
S'09/26'
p1316
sg24
S'9.0'
p1317
sg26
S'--'
p1318
sg28
S'--'
p1319
sg30
S'W35-11'
p1320
sg32
S'18'
p1321
sg34
g59
sg36
S'@STL'
p1322
sg38
S'12T'
p1323
sg40
g10
sg42
S'--'
p1324
ssg130
(dp1325
g5
S'--'
p1326
sg7
S'--'
p1327
sg9
g10
sg11
S'--'
p1328
sg13
g10
sg14
S'Vernon Davis'
p1329
sg16
S'2013'
p1330
sg18
g130
sg20
S'--'
p1331
sg22
S'10/20'
p1332
sg24
S'15.5'
p1333
sg26
S'--'
p1334
sg28
S'--'
p1335
sg30
S'W31-17'
p1336
sg32
S'62'
p1337
sg34
g240
sg36
S'@TEN'
p1338
sg38
S'24'
p1339
sg40
g41
sg42
S'--'
p1340
ssg35
(dp1341
g5
S'--'
p1342
sg7
S'--'
p1343
sg9
g10
sg11
S'--'
p1344
sg13
g10
sg14
S'Vernon Davis'
p1345
sg16
S'2013'
p1346
sg18
g35
sg20
S'--'
p1347
sg22
S'10/13'
p1348
sg24
S'22.5'
p1349
sg26
S'--'
p1350
sg28
S'--'
p1351
sg30
S'W32-20'
p1352
sg32
S'180'
p1353
sg34
g306
sg36
S'ARI'
p1354
sg38
S'61T'
p1355
sg40
g59
sg42
S'--'
p1356
ssg290
(dp1357
g5
g583
sg7
g583
sg9
g583
sg11
g583
sg13
g583
sg14
S'Vernon Davis'
p1358
sg16
S'2013'
p1359
sg18
g290
sg20
g583
sg22
S'Bye'
p1360
sg24
g583
sg26
g583
sg28
g583
sg30
g583
sg32
g583
sg34
g583
sg36
g583
sg38
g583
sg40
g583
sg42
g583
ssg306
(dp1361
g5
S'--'
p1362
sg7
S'--'
p1363
sg9
g10
sg11
S'--'
p1364
sg13
g10
sg14
S'Vernon Davis'
p1365
sg16
S'2013'
p1366
sg18
g306
sg20
S'--'
p1367
sg22
S'10/27'
p1368
sg24
S'17.3'
p1369
sg26
S'--'
p1370
sg28
S'--'
p1371
sg30
S'W42-10'
p1372
sg32
S'52'
p1373
sg34
g187
sg36
S'@JAC'
p1374
sg38
S'31'
p1375
sg40
g10
sg42
S'--'
p1376
sssS'2012'
p1377
(dp1378
g3
(dp1379
g5
S'--'
p1380
sg7
S'--'
p1381
sg9
g10
sg11
S'--'
p1382
sg13
g10
sg14
S'Vernon Davis'
p1383
sg16
S'2012'
p1384
sg18
S'11'
p1385
sg20
S'--'
p1386
sg22
S'11/19'
p1387
sg24
S'13.8'
p1388
sg26
S'--'
p1389
sg28
S'--'
p1390
sg30
S'W32-7'
p1391
sg32
S'83'
p1392
sg34
g35
sg36
S'CHI'
p1393
sg38
S'32'
p1394
sg40
g10
sg42
S'--'
p1395
ssg44
(dp1396
g5
S'--'
p1397
sg7
S'--'
p1398
sg9
g10
sg11
S'--'
p1399
sg13
g10
sg14
S'Vernon Davis'
p1400
sg16
S'2012'
p1401
sg18
S'10'
p1402
sg20
S'--'
p1403
sg22
S'11/11'
p1404
sg24
S'7.5'
p1405
sg26
S'--'
p1406
sg28
S'--'
p1407
sg30
S'T24-24'
p1408
sg32
S'30'
p1409
sg34
g240
sg36
S'STL'
p1410
sg38
S'17'
p1411
sg40
g41
sg42
S'--'
p1412
ssg63
(dp1413
g5
S'--'
p1414
sg7
S'--'
p1415
sg9
g10
sg11
S'--'
p1416
sg13
g10
sg14
S'Vernon Davis'
p1417
sg16
S'2012'
p1418
sg18
S'13'
p1419
sg20
S'--'
p1420
sg22
S'12/02'
p1421
sg24
S'7.5'
p1422
sg26
S'--'
p1423
sg28
S'--'
p1424
sg30
S'L13-16'
p1425
sg32
S'15'
p1426
sg34
g59
sg36
S'@STL'
p1427
sg38
g290
sg40
g41
sg42
S'--'
p1428
ssg81
(dp1429
g5
S'--'
p1430
sg7
S'--'
p1431
sg9
g10
sg11
S'--'
p1432
sg13
g10
sg14
S'Vernon Davis'
p1433
sg16
S'2012'
p1434
sg18
S'12'
p1435
sg20
S'--'
p1436
sg22
S'11/25'
p1437
sg24
S'--'
p1438
sg26
S'--'
p1439
sg28
S'--'
p1440
sg30
S'W31-21'
p1441
sg32
g41
sg34
g41
sg36
S'@NO'
p1442
sg38
S'--'
p1443
sg40
g41
sg42
S'--'
p1444
ssg98
(dp1445
g5
S'--'
p1446
sg7
S'--'
p1447
sg9
g10
sg11
S'--'
p1448
sg13
g10
sg14
S'Vernon Davis'
p1449
sg16
S'2012'
p1450
sg18
S'15'
p1451
sg20
S'--'
p1452
sg22
S'12/16'
p1453
sg24
S'10.0'
p1454
sg26
S'--'
p1455
sg28
S'--'
p1456
sg30
S'W41-34'
p1457
sg32
S'10'
p1458
sg34
g10
sg36
S'@NE'
p1459
sg38
S'10'
p1460
sg40
g41
sg42
S'--'
p1461
ssg115
(dp1462
g5
S'--'
p1463
sg7
S'--'
p1464
sg9
g10
sg11
S'--'
p1465
sg13
g10
sg14
S'Vernon Davis'
p1466
sg16
S'2012'
p1467
sg18
S'14'
p1468
sg20
S'--'
p1469
sg22
S'12/09'
p1470
sg24
S'4.0'
p1471
sg26
S'--'
p1472
sg28
S'--'
p1473
sg30
S'W27-13'
p1474
sg32
g240
sg34
g10
sg36
S'MIA'
p1475
sg38
g240
sg40
g41
sg42
S'--'
p1476
ssg134
(dp1477
g5
S'--'
p1478
sg7
S'--'
p1479
sg9
g10
sg11
S'--'
p1480
sg13
g10
sg14
S'Vernon Davis'
p1481
sg16
S'2012'
p1482
sg18
S'17'
p1483
sg20
S'--'
p1484
sg22
S'12/30'
p1485
sg24
S'5.0'
p1486
sg26
S'--'
p1487
sg28
S'--'
p1488
sg30
S'W27-13'
p1489
sg32
g112
sg34
g10
sg36
S'ARI'
p1490
sg38
g112
sg40
g41
sg42
S'--'
p1491
ssg154
(dp1492
g5
S'--'
p1493
sg7
S'--'
p1494
sg9
g10
sg11
S'--'
p1495
sg13
g10
sg14
S'Vernon Davis'
p1496
sg16
S'2012'
p1497
sg18
S'16'
p1498
sg20
S'--'
p1499
sg22
S'12/23'
p1500
sg24
S'27.0'
p1501
sg26
S'--'
p1502
sg28
S'--'
p1503
sg30
S'L13-42'
p1504
sg32
S'27'
p1505
sg34
g10
sg36
S'@SEA'
p1506
sg38
S'27'
p1507
sg40
g41
sg42
S'--'
p1508
ssg10
(dp1509
g5
S'--'
p1510
sg7
S'--'
p1511
sg9
g10
sg11
S'--'
p1512
sg13
g10
sg14
S'Vernon Davis'
p1513
sg16
S'2012'
p1514
sg18
g10
sg20
S'--'
p1515
sg22
S'09/09'
p1516
sg24
S'14.3'
p1517
sg26
S'--'
p1518
sg28
S'--'
p1519
sg30
S'W30-22'
p1520
sg32
S'43'
p1521
sg34
g187
sg36
S'@GB'
p1522
sg38
S'29'
p1523
sg40
g10
sg42
S'--'
p1524
ssg187
(dp1525
g5
S'--'
p1526
sg7
S'--'
p1527
sg9
g10
sg11
S'--'
p1528
sg13
g10
sg14
S'Vernon Davis'
p1529
sg16
S'2012'
p1530
sg18
g187
sg20
S'--'
p1531
sg22
S'09/23'
p1532
sg24
S'10.6'
p1533
sg26
S'--'
p1534
sg28
S'--'
p1535
sg30
S'L13-24'
p1536
sg32
S'53'
p1537
sg34
g112
sg36
S'@MIN'
p1538
sg38
S'20'
p1539
sg40
g10
sg42
S'--'
p1540
ssg59
(dp1541
g5
S'--'
p1542
sg7
S'--'
p1543
sg9
g10
sg11
S'--'
p1544
sg13
g10
sg14
S'Vernon Davis'
p1545
sg16
S'2012'
p1546
sg18
g59
sg20
S'--'
p1547
sg22
S'09/16'
p1548
sg24
S'14.6'
p1549
sg26
S'--'
p1550
sg28
S'--'
p1551
sg30
S'W27-19'
p1552
sg32
S'73'
p1553
sg34
g112
sg36
S'DET'
p1554
sg38
S'23T'
p1555
sg40
g59
sg42
S'--'
p1556
ssg112
(dp1557
g5
S'--'
p1558
sg7
S'--'
p1559
sg9
g10
sg11
S'--'
p1560
sg13
g10
sg14
S'Vernon Davis'
p1561
sg16
S'2012'
p1562
sg18
g112
sg20
S'--'
p1563
sg22
S'10/07'
p1564
sg24
S'21.2'
p1565
sg26
S'--'
p1566
sg28
S'--'
p1567
sg30
S'W45-3'
p1568
sg32
S'106'
p1569
sg34
g112
sg36
S'BUF'
p1570
sg38
S'53'
p1571
sg40
g41
sg42
S'--'
p1572
ssg240
(dp1573
g5
S'--'
p1574
sg7
S'--'
p1575
sg9
g10
sg11
S'--'
p1576
sg13
g10
sg14
S'Vernon Davis'
p1577
sg16
S'2012'
p1578
sg18
g240
sg20
S'--'
p1579
sg22
S'09/30'
p1580
sg24
S'14.0'
p1581
sg26
S'--'
p1582
sg28
S'--'
p1583
sg30
S'W34-0'
p1584
sg32
S'28'
p1585
sg34
g59
sg36
S'@NYJ'
p1586
sg38
S'23'
p1587
sg40
g41
sg42
S'--'
p1588
ssg130
(dp1589
g5
S'--'
p1590
sg7
S'--'
p1591
sg9
g10
sg11
S'--'
p1592
sg13
g10
sg14
S'Vernon Davis'
p1593
sg16
S'2012'
p1594
sg18
g130
sg20
S'--'
p1595
sg22
S'10/18'
p1596
sg24
S'--'
p1597
sg26
S'--'
p1598
sg28
S'--'
p1599
sg30
S'W13-6'
p1600
sg32
S'--'
p1601
sg34
S'--'
p1602
sg36
S'SEA'
p1603
sg38
S'--'
p1604
sg40
S'--'
p1605
sg42
S'--'
p1606
ssg35
(dp1607
g5
S'--'
p1608
sg7
S'--'
p1609
sg9
g10
sg11
S'--'
p1610
sg13
g10
sg14
S'Vernon Davis'
p1611
sg16
S'2012'
p1612
sg18
g35
sg20
S'--'
p1613
sg22
S'10/14'
p1614
sg24
S'12.3'
p1615
sg26
S'--'
p1616
sg28
S'--'
p1617
sg30
S'L3-26'
p1618
sg32
S'37'
p1619
sg34
g187
sg36
S'NYG'
p1620
sg38
S'24'
p1621
sg40
g41
sg42
S'--'
p1622
ssg290
(dp1623
g5
g583
sg7
g583
sg9
g583
sg11
g583
sg13
g583
sg14
S'Vernon Davis'
p1624
sg16
S'2012'
p1625
sg18
g290
sg20
g583
sg22
S'Bye'
p1626
sg24
g583
sg26
g583
sg28
g583
sg30
g583
sg32
g583
sg34
g583
sg36
g583
sg38
g583
sg40
g583
sg42
g583
ssg306
(dp1627
g5
S'--'
p1628
sg7
S'--'
p1629
sg9
g10
sg11
S'--'
p1630
sg13
g10
sg14
S'Vernon Davis'
p1631
sg16
S'2012'
p1632
sg18
g306
sg20
S'--'
p1633
sg22
S'10/29'
p1634
sg24
S'17.0'
p1635
sg26
S'--'
p1636
sg28
S'--'
p1637
sg30
S'W24-3'
p1638
sg32
S'34'
p1639
sg34
g59
sg36
S'@ARI'
p1640
sg38
S'25'
p1641
sg40
g41
sg42
S'--'
p1642
sss.