(dp0
S'2015'
p1
(dp2
S'11'
p3
(dp4
S'RushTD'
p5
S''
p6
sS'RushYds'
p7
g6
sS'GS'
p8
g6
sS'Lost'
p9
g6
sS'G'
p10
g6
sS'Player'
p11
S'Will Tye'
p12
sS'Year'
p13
S'2015'
p14
sS'WK'
p15
S'11'
p16
sS'RushAvg'
p17
g6
sS'Game Date'
p18
S'Bye'
p19
sS'RecAvg'
p20
g6
sS'FUM'
p21
g6
sS'RushAtt'
p22
g6
sS'Result'
p23
g6
sS'RecYds'
p24
g6
sS'Rec'
p25
g6
sS'Opp'
p26
g6
sS'RecLng'
p27
g6
sS'RecTD'
p28
g6
sS'RushLng'
p29
g6
ssS'10'
p30
(dp31
g5
S'--'
p32
sg7
S'--'
p33
sg8
S'1'
p34
sg9
S'--'
p35
sg10
g34
sg11
S'Will Tye'
p36
sg13
S'2015'
p37
sg15
S'10'
p38
sg17
S'--'
p39
sg18
S'11/15'
p40
sg20
S'11.2'
p41
sg21
S'--'
p42
sg22
S'--'
p43
sg23
S'L26-27'
p44
sg24
S'56'
p45
sg25
S'5'
p46
sg26
S'NE'
p47
sg27
S'31'
p48
sg28
S'0'
p49
sg29
S'--'
p50
ssS'13'
p51
(dp52
g5
S'--'
p53
sg7
S'--'
p54
sg8
g34
sg9
S'--'
p55
sg10
g34
sg11
S'Will Tye'
p56
sg13
S'2015'
p57
sg15
S'13'
p58
sg17
S'--'
p59
sg18
S'12/06'
p60
sg20
S'23.3'
p61
sg21
S'--'
p62
sg22
S'--'
p63
sg23
S'L20-23'
p64
sg24
S'70'
p65
sg25
S'3'
p66
sg26
S'NYJ'
p67
sg27
S'45'
p68
sg28
g49
sg29
S'--'
p69
ssS'12'
p70
(dp71
g5
S'--'
p72
sg7
S'--'
p73
sg8
g34
sg9
S'--'
p74
sg10
g34
sg11
S'Will Tye'
p75
sg13
S'2015'
p76
sg15
S'12'
p77
sg17
S'--'
p78
sg18
S'11/29'
p79
sg20
S'12.3'
p80
sg21
S'--'
p81
sg22
S'--'
p82
sg23
S'L14-20'
p83
sg24
S'74'
p84
sg25
S'6'
p85
sg26
S'@WAS'
p86
sg27
S'28'
p87
sg28
g49
sg29
S'--'
p88
ssS'15'
p89
(dp90
g5
S'--'
p91
sg7
S'--'
p92
sg8
g34
sg9
S'--'
p93
sg10
g34
sg11
S'Will Tye'
p94
sg13
S'2015'
p95
sg15
S'15'
p96
sg17
S'--'
p97
sg18
S'12/20'
p98
sg20
S'8.6'
p99
sg21
S'--'
p100
sg22
S'--'
p101
sg23
S'L35-38'
p102
sg24
S'43'
p103
sg25
g46
sg26
S'CAR'
p104
sg27
S'20'
p105
sg28
g34
sg29
S'--'
p106
ssS'14'
p107
(dp108
g5
S'--'
p109
sg7
S'--'
p110
sg8
g34
sg9
S'--'
p111
sg10
g34
sg11
S'Will Tye'
p112
sg13
S'2015'
p113
sg15
S'14'
p114
sg17
S'--'
p115
sg18
S'12/14'
p116
sg20
S'6.0'
p117
sg21
S'--'
p118
sg22
S'--'
p119
sg23
S'W31-24'
p120
sg24
S'30'
p121
sg25
g46
sg26
S'@MIA'
p122
sg27
S'9'
p123
sg28
g34
sg29
S'--'
p124
ssS'17'
p125
(dp126
g5
S'--'
p127
sg7
S'--'
p128
sg8
g49
sg9
S'--'
p129
sg10
g34
sg11
S'Will Tye'
p130
sg13
S'2015'
p131
sg15
S'17'
p132
sg17
S'--'
p133
sg18
S'01/03'
p134
sg20
S'13.4'
p135
sg21
S'--'
p136
sg22
S'--'
p137
sg23
S'L30-35'
p138
sg24
S'67'
p139
sg25
g46
sg26
S'PHI'
p140
sg27
S'18'
p141
sg28
g34
sg29
S'--'
p142
ssS'16'
p143
(dp144
g5
S'--'
p145
sg7
S'--'
p146
sg8
g34
sg9
S'--'
p147
sg10
g34
sg11
S'Will Tye'
p148
sg13
S'2015'
p149
sg15
S'16'
p150
sg17
S'--'
p151
sg18
S'12/27'
p152
sg20
S'9.3'
p153
sg21
S'--'
p154
sg22
S'--'
p155
sg23
S'L17-49'
p156
sg24
S'28'
p157
sg25
g66
sg26
S'@MIN'
p158
sg27
S'14'
p159
sg28
g49
sg29
S'--'
p160
ssg46
(dp161
g5
S'--'
p162
sg7
S'--'
p163
sg8
g49
sg9
S'--'
p164
sg10
g34
sg11
S'Will Tye'
p165
sg13
S'2015'
p166
sg15
g46
sg17
S'--'
p167
sg18
S'10/11'
p168
sg20
S'12.0'
p169
sg21
S'--'
p170
sg22
S'--'
p171
sg23
S'W30-27'
p172
sg24
S'48'
p173
sg25
S'4'
p174
sg26
S'SF'
p175
sg27
S'18'
p176
sg28
g49
sg29
S'--'
p177
ssg174
(dp178
g5
S'--'
p179
sg7
S'--'
p180
sg8
g49
sg9
S'--'
p181
sg10
g34
sg11
S'Will Tye'
p182
sg13
S'2015'
p183
sg15
g174
sg17
S'--'
p184
sg18
S'10/04'
p185
sg20
S'--'
p186
sg21
S'--'
p187
sg22
S'--'
p188
sg23
S'W24-10'
p189
sg24
g49
sg25
g49
sg26
S'@BUF'
p190
sg27
S'--'
p191
sg28
g49
sg29
S'--'
p192
ssS'7'
p193
(dp194
g5
S'--'
p195
sg7
S'--'
p196
sg8
g49
sg9
S'--'
p197
sg10
g34
sg11
S'Will Tye'
p198
sg13
S'2015'
p199
sg15
g193
sg17
S'--'
p200
sg18
S'10/25'
p201
sg20
S'--'
p202
sg21
S'--'
p203
sg22
S'--'
p204
sg23
S'W27-20'
p205
sg24
g49
sg25
g49
sg26
S'DAL'
p206
sg27
S'--'
p207
sg28
g49
sg29
S'--'
p208
ssg85
(dp209
g5
S'--'
p210
sg7
S'--'
p211
sg8
g34
sg9
S'--'
p212
sg10
g34
sg11
S'Will Tye'
p213
sg13
S'2015'
p214
sg15
g85
sg17
S'--'
p215
sg18
S'10/19'
p216
sg20
S'11.0'
p217
sg21
S'--'
p218
sg22
S'--'
p219
sg23
S'L7-27'
p220
sg24
S'22'
p221
sg25
S'2'
p222
sg26
S'@PHI'
p223
sg27
S'17'
p224
sg28
g49
sg29
S'--'
p225
ssg123
(dp226
g5
S'--'
p227
sg7
S'--'
p228
sg8
g49
sg9
S'--'
p229
sg10
g34
sg11
S'Will Tye'
p230
sg13
S'2015'
p231
sg15
g123
sg17
S'--'
p232
sg18
S'11/08'
p233
sg20
S'9.5'
p234
sg21
S'--'
p235
sg22
S'--'
p236
sg23
S'W32-18'
p237
sg24
S'19'
p238
sg25
g222
sg26
S'@TB'
p239
sg27
S'15'
p240
sg28
g49
sg29
S'--'
p241
ssS'8'
p242
(dp243
g5
S'--'
p244
sg7
S'--'
p245
sg8
g49
sg9
g34
sg10
g34
sg11
S'Will Tye'
p246
sg13
S'2015'
p247
sg15
g242
sg17
S'--'
p248
sg18
S'11/01'
p249
sg20
S'3.5'
p250
sg21
g34
sg22
S'--'
p251
sg23
S'L49-52'
p252
sg24
g193
sg25
g222
sg26
S'@NO'
p253
sg27
g193
sg28
g49
sg29
S'--'
p254
sss.