(dp0
S'2015'
p1
(dp2
S'11'
p3
(dp4
S'RushTD'
p5
S''
p6
sS'RushYds'
p7
g6
sS'GS'
p8
g6
sS'Lost'
p9
g6
sS'G'
p10
g6
sS'Player'
p11
S'Zach Sudfeld'
p12
sS'Year'
p13
S'2015'
p14
sS'WK'
p15
S'11'
p16
sS'RushAvg'
p17
g6
sS'Game Date'
p18
S'Bye'
p19
sS'RecAvg'
p20
g6
sS'FUM'
p21
g6
sS'RushAtt'
p22
g6
sS'Result'
p23
g6
sS'RecYds'
p24
g6
sS'Rec'
p25
g6
sS'Opp'
p26
g6
sS'RecLng'
p27
g6
sS'RecTD'
p28
g6
sS'RushLng'
p29
g6
ssS'10'
p30
(dp31
g5
S'--'
p32
sg7
S'--'
p33
sg8
S'0'
p34
sg9
S'--'
p35
sg10
S'1'
p36
sg11
S'Zach Sudfeld'
p37
sg13
S'2015'
p38
sg15
S'10'
p39
sg17
S'--'
p40
sg18
S'11/09'
p41
sg20
S'--'
p42
sg21
S'--'
p43
sg22
S'--'
p44
sg23
S'W20-13'
p45
sg24
S'--'
p46
sg25
S'--'
p47
sg26
S'PIT'
p48
sg27
S'--'
p49
sg28
S'--'
p50
sg29
S'--'
p51
ssS'13'
p52
(dp53
g5
S'--'
p54
sg7
S'--'
p55
sg8
g34
sg9
S'--'
p56
sg10
g36
sg11
S'Zach Sudfeld'
p57
sg13
S'2015'
p58
sg15
S'13'
p59
sg17
S'--'
p60
sg18
S'12/01'
p61
sg20
S'20.0'
p62
sg21
S'--'
p63
sg22
S'--'
p64
sg23
S'L13-16'
p65
sg24
S'20'
p66
sg25
g36
sg26
S'MIA'
p67
sg27
S'20'
p68
sg28
g34
sg29
S'--'
p69
ssS'12'
p70
(dp71
g5
S'--'
p72
sg7
S'--'
p73
sg8
g34
sg9
S'--'
p74
sg10
g36
sg11
S'Zach Sudfeld'
p75
sg13
S'2015'
p76
sg15
S'12'
p77
sg17
S'--'
p78
sg18
S'11/24'
p79
sg20
S'--'
p80
sg21
S'--'
p81
sg22
S'--'
p82
sg23
S'L3-38'
p83
sg24
S'--'
p84
sg25
S'--'
p85
sg26
S'@BUF'
p86
sg27
S'--'
p87
sg28
S'--'
p88
sg29
S'--'
p89
ssS'15'
p90
(dp91
g5
S'--'
p92
sg7
S'--'
p93
sg8
g36
sg9
S'--'
p94
sg10
g36
sg11
S'Zach Sudfeld'
p95
sg13
S'2015'
p96
sg15
S'15'
p97
sg17
S'--'
p98
sg18
S'12/14'
p99
sg20
S'--'
p100
sg21
S'--'
p101
sg22
S'--'
p102
sg23
S'W16-11'
p103
sg24
S'--'
p104
sg25
S'--'
p105
sg26
S'@TEN'
p106
sg27
S'--'
p107
sg28
S'--'
p108
sg29
S'--'
p109
ssS'14'
p110
(dp111
g5
S'--'
p112
sg7
S'--'
p113
sg8
g36
sg9
S'--'
p114
sg10
g36
sg11
S'Zach Sudfeld'
p115
sg13
S'2015'
p116
sg15
S'14'
p117
sg17
S'--'
p118
sg18
S'12/07'
p119
sg20
S'--'
p120
sg21
S'--'
p121
sg22
S'--'
p122
sg23
S'L24-30'
p123
sg24
S'--'
p124
sg25
S'--'
p125
sg26
S'@MIN'
p126
sg27
S'--'
p127
sg28
S'--'
p128
sg29
S'--'
p129
ssS'17'
p130
(dp131
g5
S'--'
p132
sg7
S'--'
p133
sg8
g34
sg9
S'--'
p134
sg10
g36
sg11
S'Zach Sudfeld'
p135
sg13
S'2015'
p136
sg15
S'17'
p137
sg17
S'--'
p138
sg18
S'12/28'
p139
sg20
S'22.0'
p140
sg21
S'--'
p141
sg22
S'--'
p142
sg23
S'W37-24'
p143
sg24
S'44'
p144
sg25
S'2'
p145
sg26
S'@MIA'
p146
sg27
S'38'
p147
sg28
g34
sg29
S'--'
p148
ssS'16'
p149
(dp150
g5
S'--'
p151
sg7
S'--'
p152
sg8
g34
sg9
S'--'
p153
sg10
g36
sg11
S'Zach Sudfeld'
p154
sg13
S'2015'
p155
sg15
S'16'
p156
sg17
S'--'
p157
sg18
S'12/21'
p158
sg20
S'6.0'
p159
sg21
S'--'
p160
sg22
S'--'
p161
sg23
S'L16-17'
p162
sg24
S'6'
p163
sg25
g36
sg26
S'NE'
p164
sg27
g163
sg28
g34
sg29
S'--'
p165
ssg36
(dp166
g5
S'--'
p167
sg7
S'--'
p168
sg8
g34
sg9
S'--'
p169
sg10
g36
sg11
S'Zach Sudfeld'
p170
sg13
S'2015'
p171
sg15
g36
sg17
S'--'
p172
sg18
S'09/07'
p173
sg20
S'--'
p174
sg21
S'--'
p175
sg22
S'--'
p176
sg23
S'W19-14'
p177
sg24
S'--'
p178
sg25
S'--'
p179
sg26
S'OAK'
p180
sg27
S'--'
p181
sg28
S'--'
p182
sg29
S'--'
p183
ssS'3'
p184
(dp185
g5
S'--'
p186
sg7
S'--'
p187
sg8
g34
sg9
S'--'
p188
sg10
g36
sg11
S'Zach Sudfeld'
p189
sg13
S'2015'
p190
sg15
g184
sg17
S'--'
p191
sg18
S'09/22'
p192
sg20
S'15.0'
p193
sg21
S'--'
p194
sg22
S'--'
p195
sg23
S'L19-27'
p196
sg24
S'15'
p197
sg25
g36
sg26
S'CHI'
p198
sg27
S'15'
p199
sg28
g34
sg29
S'--'
p200
ssg145
(dp201
g5
S'--'
p202
sg7
S'--'
p203
sg8
g34
sg9
S'--'
p204
sg10
g36
sg11
S'Zach Sudfeld'
p205
sg13
S'2015'
p206
sg15
g145
sg17
S'--'
p207
sg18
S'09/14'
p208
sg20
S'--'
p209
sg21
S'--'
p210
sg22
S'--'
p211
sg23
S'L24-31'
p212
sg24
g34
sg25
g34
sg26
S'@GB'
p213
sg27
S'--'
p214
sg28
g34
sg29
S'--'
p215
ssS'5'
p216
(dp217
g5
S'--'
p218
sg7
S'--'
p219
sg8
g36
sg9
S'--'
p220
sg10
g36
sg11
S'Zach Sudfeld'
p221
sg13
S'2015'
p222
sg15
g216
sg17
S'--'
p223
sg18
S'10/05'
p224
sg20
S'--'
p225
sg21
S'--'
p226
sg22
S'--'
p227
sg23
S'L0-31'
p228
sg24
S'--'
p229
sg25
S'--'
p230
sg26
S'@SD'
p231
sg27
S'--'
p232
sg28
S'--'
p233
sg29
S'--'
p234
ssS'4'
p235
(dp236
g5
S'--'
p237
sg7
S'--'
p238
sg8
g34
sg9
S'--'
p239
sg10
g36
sg11
S'Zach Sudfeld'
p240
sg13
S'2015'
p241
sg15
g235
sg17
S'--'
p242
sg18
S'09/28'
p243
sg20
S'--'
p244
sg21
S'--'
p245
sg22
S'--'
p246
sg23
S'L17-24'
p247
sg24
g34
sg25
g34
sg26
S'DET'
p248
sg27
S'--'
p249
sg28
g34
sg29
S'--'
p250
ssS'7'
p251
(dp252
g5
S'--'
p253
sg7
S'--'
p254
sg8
g34
sg9
S'--'
p255
sg10
g36
sg11
S'Zach Sudfeld'
p256
sg13
S'2015'
p257
sg15
g251
sg17
S'--'
p258
sg18
S'10/16'
p259
sg20
S'--'
p260
sg21
S'--'
p261
sg22
S'--'
p262
sg23
S'L25-27'
p263
sg24
S'--'
p264
sg25
S'--'
p265
sg26
S'@NE'
p266
sg27
S'--'
p267
sg28
S'--'
p268
sg29
S'--'
p269
ssg163
(dp270
g5
S'--'
p271
sg7
S'--'
p272
sg8
g34
sg9
S'--'
p273
sg10
g36
sg11
S'Zach Sudfeld'
p274
sg13
S'2015'
p275
sg15
g163
sg17
S'--'
p276
sg18
S'10/12'
p277
sg20
S'--'
p278
sg21
S'--'
p279
sg22
S'--'
p280
sg23
S'L17-31'
p281
sg24
S'--'
p282
sg25
S'--'
p283
sg26
S'DEN'
p284
sg27
S'--'
p285
sg28
S'--'
p286
sg29
S'--'
p287
ssS'9'
p288
(dp289
g5
S'--'
p290
sg7
S'--'
p291
sg8
g34
sg9
S'--'
p292
sg10
g36
sg11
S'Zach Sudfeld'
p293
sg13
S'2015'
p294
sg15
g288
sg17
S'--'
p295
sg18
S'11/02'
p296
sg20
S'--'
p297
sg21
S'--'
p298
sg22
S'--'
p299
sg23
S'L10-24'
p300
sg24
S'--'
p301
sg25
S'--'
p302
sg26
S'@KC'
p303
sg27
S'--'
p304
sg28
S'--'
p305
sg29
S'--'
p306
ssS'8'
p307
(dp308
g5
S'--'
p309
sg7
S'--'
p310
sg8
g34
sg9
S'--'
p311
sg10
g36
sg11
S'Zach Sudfeld'
p312
sg13
S'2015'
p313
sg15
g307
sg17
S'--'
p314
sg18
S'10/26'
p315
sg20
S'--'
p316
sg21
S'--'
p317
sg22
S'--'
p318
sg23
S'L23-43'
p319
sg24
S'--'
p320
sg25
S'--'
p321
sg26
S'BUF'
p322
sg27
S'--'
p323
sg28
S'--'
p324
sg29
S'--'
p325
sssS'2014'
p326
(dp327
g3
(dp328
g5
g6
sg7
g6
sg8
g6
sg9
g6
sg10
g6
sg11
S'Zach Sudfeld'
p329
sg13
S'2014'
p330
sg15
S'11'
p331
sg17
g6
sg18
S'Bye'
p332
sg20
g6
sg21
g6
sg22
g6
sg23
g6
sg24
g6
sg25
g6
sg26
g6
sg27
g6
sg28
g6
sg29
g6
ssg30
(dp333
g5
S'--'
p334
sg7
S'--'
p335
sg8
g34
sg9
S'--'
p336
sg10
g36
sg11
S'Zach Sudfeld'
p337
sg13
S'2014'
p338
sg15
S'10'
p339
sg17
S'--'
p340
sg18
S'11/09'
p341
sg20
S'--'
p342
sg21
S'--'
p343
sg22
S'--'
p344
sg23
S'W20-13'
p345
sg24
S'--'
p346
sg25
S'--'
p347
sg26
S'PIT'
p348
sg27
S'--'
p349
sg28
S'--'
p350
sg29
S'--'
p351
ssg52
(dp352
g5
S'--'
p353
sg7
S'--'
p354
sg8
g34
sg9
S'--'
p355
sg10
g36
sg11
S'Zach Sudfeld'
p356
sg13
S'2014'
p357
sg15
S'13'
p358
sg17
S'--'
p359
sg18
S'12/01'
p360
sg20
S'20.0'
p361
sg21
S'--'
p362
sg22
S'--'
p363
sg23
S'L13-16'
p364
sg24
S'20'
p365
sg25
g36
sg26
S'MIA'
p366
sg27
S'20'
p367
sg28
g34
sg29
S'--'
p368
ssg70
(dp369
g5
S'--'
p370
sg7
S'--'
p371
sg8
g34
sg9
S'--'
p372
sg10
g36
sg11
S'Zach Sudfeld'
p373
sg13
S'2014'
p374
sg15
S'12'
p375
sg17
S'--'
p376
sg18
S'11/24'
p377
sg20
S'--'
p378
sg21
S'--'
p379
sg22
S'--'
p380
sg23
S'L3-38'
p381
sg24
S'--'
p382
sg25
S'--'
p383
sg26
S'@BUF'
p384
sg27
S'--'
p385
sg28
S'--'
p386
sg29
S'--'
p387
ssg90
(dp388
g5
S'--'
p389
sg7
S'--'
p390
sg8
g36
sg9
S'--'
p391
sg10
g36
sg11
S'Zach Sudfeld'
p392
sg13
S'2014'
p393
sg15
S'15'
p394
sg17
S'--'
p395
sg18
S'12/14'
p396
sg20
S'--'
p397
sg21
S'--'
p398
sg22
S'--'
p399
sg23
S'W16-11'
p400
sg24
S'--'
p401
sg25
S'--'
p402
sg26
S'@TEN'
p403
sg27
S'--'
p404
sg28
S'--'
p405
sg29
S'--'
p406
ssg110
(dp407
g5
S'--'
p408
sg7
S'--'
p409
sg8
g36
sg9
S'--'
p410
sg10
g36
sg11
S'Zach Sudfeld'
p411
sg13
S'2014'
p412
sg15
S'14'
p413
sg17
S'--'
p414
sg18
S'12/07'
p415
sg20
S'--'
p416
sg21
S'--'
p417
sg22
S'--'
p418
sg23
S'L24-30'
p419
sg24
S'--'
p420
sg25
S'--'
p421
sg26
S'@MIN'
p422
sg27
S'--'
p423
sg28
S'--'
p424
sg29
S'--'
p425
ssg130
(dp426
g5
S'--'
p427
sg7
S'--'
p428
sg8
g34
sg9
S'--'
p429
sg10
g36
sg11
S'Zach Sudfeld'
p430
sg13
S'2014'
p431
sg15
S'17'
p432
sg17
S'--'
p433
sg18
S'12/28'
p434
sg20
S'22.0'
p435
sg21
S'--'
p436
sg22
S'--'
p437
sg23
S'W37-24'
p438
sg24
S'44'
p439
sg25
g145
sg26
S'@MIA'
p440
sg27
S'38'
p441
sg28
g34
sg29
S'--'
p442
ssg149
(dp443
g5
S'--'
p444
sg7
S'--'
p445
sg8
g34
sg9
S'--'
p446
sg10
g36
sg11
S'Zach Sudfeld'
p447
sg13
S'2014'
p448
sg15
S'16'
p449
sg17
S'--'
p450
sg18
S'12/21'
p451
sg20
S'6.0'
p452
sg21
S'--'
p453
sg22
S'--'
p454
sg23
S'L16-17'
p455
sg24
g163
sg25
g36
sg26
S'NE'
p456
sg27
g163
sg28
g34
sg29
S'--'
p457
ssg36
(dp458
g5
S'--'
p459
sg7
S'--'
p460
sg8
g34
sg9
S'--'
p461
sg10
g36
sg11
S'Zach Sudfeld'
p462
sg13
S'2014'
p463
sg15
g36
sg17
S'--'
p464
sg18
S'09/07'
p465
sg20
S'--'
p466
sg21
S'--'
p467
sg22
S'--'
p468
sg23
S'W19-14'
p469
sg24
S'--'
p470
sg25
S'--'
p471
sg26
S'OAK'
p472
sg27
S'--'
p473
sg28
S'--'
p474
sg29
S'--'
p475
ssg184
(dp476
g5
S'--'
p477
sg7
S'--'
p478
sg8
g34
sg9
S'--'
p479
sg10
g36
sg11
S'Zach Sudfeld'
p480
sg13
S'2014'
p481
sg15
g184
sg17
S'--'
p482
sg18
S'09/22'
p483
sg20
S'15.0'
p484
sg21
S'--'
p485
sg22
S'--'
p486
sg23
S'L19-27'
p487
sg24
S'15'
p488
sg25
g36
sg26
S'CHI'
p489
sg27
S'15'
p490
sg28
g34
sg29
S'--'
p491
ssg145
(dp492
g5
S'--'
p493
sg7
S'--'
p494
sg8
g34
sg9
S'--'
p495
sg10
g36
sg11
S'Zach Sudfeld'
p496
sg13
S'2014'
p497
sg15
g145
sg17
S'--'
p498
sg18
S'09/14'
p499
sg20
S'--'
p500
sg21
S'--'
p501
sg22
S'--'
p502
sg23
S'L24-31'
p503
sg24
g34
sg25
g34
sg26
S'@GB'
p504
sg27
S'--'
p505
sg28
g34
sg29
S'--'
p506
ssg216
(dp507
g5
S'--'
p508
sg7
S'--'
p509
sg8
g36
sg9
S'--'
p510
sg10
g36
sg11
S'Zach Sudfeld'
p511
sg13
S'2014'
p512
sg15
g216
sg17
S'--'
p513
sg18
S'10/05'
p514
sg20
S'--'
p515
sg21
S'--'
p516
sg22
S'--'
p517
sg23
S'L0-31'
p518
sg24
S'--'
p519
sg25
S'--'
p520
sg26
S'@SD'
p521
sg27
S'--'
p522
sg28
S'--'
p523
sg29
S'--'
p524
ssg235
(dp525
g5
S'--'
p526
sg7
S'--'
p527
sg8
g34
sg9
S'--'
p528
sg10
g36
sg11
S'Zach Sudfeld'
p529
sg13
S'2014'
p530
sg15
g235
sg17
S'--'
p531
sg18
S'09/28'
p532
sg20
S'--'
p533
sg21
S'--'
p534
sg22
S'--'
p535
sg23
S'L17-24'
p536
sg24
g34
sg25
g34
sg26
S'DET'
p537
sg27
S'--'
p538
sg28
g34
sg29
S'--'
p539
ssg251
(dp540
g5
S'--'
p541
sg7
S'--'
p542
sg8
g34
sg9
S'--'
p543
sg10
g36
sg11
S'Zach Sudfeld'
p544
sg13
S'2014'
p545
sg15
g251
sg17
S'--'
p546
sg18
S'10/16'
p547
sg20
S'--'
p548
sg21
S'--'
p549
sg22
S'--'
p550
sg23
S'L25-27'
p551
sg24
S'--'
p552
sg25
S'--'
p553
sg26
S'@NE'
p554
sg27
S'--'
p555
sg28
S'--'
p556
sg29
S'--'
p557
ssg163
(dp558
g5
S'--'
p559
sg7
S'--'
p560
sg8
g34
sg9
S'--'
p561
sg10
g36
sg11
S'Zach Sudfeld'
p562
sg13
S'2014'
p563
sg15
g163
sg17
S'--'
p564
sg18
S'10/12'
p565
sg20
S'--'
p566
sg21
S'--'
p567
sg22
S'--'
p568
sg23
S'L17-31'
p569
sg24
S'--'
p570
sg25
S'--'
p571
sg26
S'DEN'
p572
sg27
S'--'
p573
sg28
S'--'
p574
sg29
S'--'
p575
ssg288
(dp576
g5
S'--'
p577
sg7
S'--'
p578
sg8
g34
sg9
S'--'
p579
sg10
g36
sg11
S'Zach Sudfeld'
p580
sg13
S'2014'
p581
sg15
g288
sg17
S'--'
p582
sg18
S'11/02'
p583
sg20
S'--'
p584
sg21
S'--'
p585
sg22
S'--'
p586
sg23
S'L10-24'
p587
sg24
S'--'
p588
sg25
S'--'
p589
sg26
S'@KC'
p590
sg27
S'--'
p591
sg28
S'--'
p592
sg29
S'--'
p593
ssg307
(dp594
g5
S'--'
p595
sg7
S'--'
p596
sg8
g34
sg9
S'--'
p597
sg10
g36
sg11
S'Zach Sudfeld'
p598
sg13
S'2014'
p599
sg15
g307
sg17
S'--'
p600
sg18
S'10/26'
p601
sg20
S'--'
p602
sg21
S'--'
p603
sg22
S'--'
p604
sg23
S'L23-43'
p605
sg24
S'--'
p606
sg25
S'--'
p607
sg26
S'BUF'
p608
sg27
S'--'
p609
sg28
S'--'
p610
sg29
S'--'
p611
sssS'2013'
p612
(dp613
g3
(dp614
g5
S'--'
p615
sg7
S'--'
p616
sg8
g34
sg9
S'--'
p617
sg10
g36
sg11
S'Zach Sudfeld'
p618
sg13
S'2013'
p619
sg15
S'11'
p620
sg17
S'--'
p621
sg18
S'11/17'
p622
sg20
S'--'
p623
sg21
S'--'
p624
sg22
S'--'
p625
sg23
S'L14-37'
p626
sg24
S'--'
p627
sg25
S'--'
p628
sg26
S'@BUF'
p629
sg27
S'--'
p630
sg28
S'--'
p631
sg29
S'--'
p632
ssg30
(dp633
g5
g6
sg7
g6
sg8
g6
sg9
g6
sg10
g6
sg11
S'Zach Sudfeld'
p634
sg13
S'2013'
p635
sg15
S'10'
p636
sg17
g6
sg18
S'Bye'
p637
sg20
g6
sg21
g6
sg22
g6
sg23
g6
sg24
g6
sg25
g6
sg26
g6
sg27
g6
sg28
g6
sg29
g6
ssg52
(dp638
g5
S'--'
p639
sg7
S'--'
p640
sg8
g34
sg9
S'--'
p641
sg10
g36
sg11
S'Zach Sudfeld'
p642
sg13
S'2013'
p643
sg15
S'13'
p644
sg17
S'--'
p645
sg18
S'12/01'
p646
sg20
S'--'
p647
sg21
S'--'
p648
sg22
S'--'
p649
sg23
S'L3-23'
p650
sg24
S'--'
p651
sg25
S'--'
p652
sg26
S'MIA'
p653
sg27
S'--'
p654
sg28
S'--'
p655
sg29
S'--'
p656
ssg70
(dp657
g5
S'--'
p658
sg7
S'--'
p659
sg8
g34
sg9
S'--'
p660
sg10
g36
sg11
S'Zach Sudfeld'
p661
sg13
S'2013'
p662
sg15
S'12'
p663
sg17
S'--'
p664
sg18
S'11/24'
p665
sg20
S'--'
p666
sg21
S'--'
p667
sg22
S'--'
p668
sg23
S'L3-19'
p669
sg24
S'--'
p670
sg25
S'--'
p671
sg26
S'@BAL'
p672
sg27
S'--'
p673
sg28
S'--'
p674
sg29
S'--'
p675
ssg90
(dp676
g5
S'--'
p677
sg7
S'--'
p678
sg8
g34
sg9
S'--'
p679
sg10
g36
sg11
S'Zach Sudfeld'
p680
sg13
S'2013'
p681
sg15
S'15'
p682
sg17
S'--'
p683
sg18
S'12/15'
p684
sg20
S'--'
p685
sg21
S'--'
p686
sg22
S'--'
p687
sg23
S'L20-30'
p688
sg24
S'--'
p689
sg25
S'--'
p690
sg26
S'@CAR'
p691
sg27
S'--'
p692
sg28
S'--'
p693
sg29
S'--'
p694
ssg110
(dp695
g5
S'--'
p696
sg7
S'--'
p697
sg8
g34
sg9
S'--'
p698
sg10
g36
sg11
S'Zach Sudfeld'
p699
sg13
S'2013'
p700
sg15
S'14'
p701
sg17
S'--'
p702
sg18
S'12/08'
p703
sg20
S'--'
p704
sg21
S'--'
p705
sg22
S'--'
p706
sg23
S'W37-27'
p707
sg24
S'--'
p708
sg25
S'--'
p709
sg26
S'OAK'
p710
sg27
S'--'
p711
sg28
S'--'
p712
sg29
S'--'
p713
ssg130
(dp714
g5
S'--'
p715
sg7
S'--'
p716
sg8
g34
sg9
S'--'
p717
sg10
g36
sg11
S'Zach Sudfeld'
p718
sg13
S'2013'
p719
sg15
S'17'
p720
sg17
S'--'
p721
sg18
S'12/29'
p722
sg20
S'7.0'
p723
sg21
S'--'
p724
sg22
S'--'
p725
sg23
S'W20-7'
p726
sg24
g251
sg25
g36
sg26
S'@MIA'
p727
sg27
g251
sg28
g34
sg29
S'--'
p728
ssg149
(dp729
g5
S'--'
p730
sg7
S'--'
p731
sg8
g34
sg9
S'--'
p732
sg10
g36
sg11
S'Zach Sudfeld'
p733
sg13
S'2013'
p734
sg15
S'16'
p735
sg17
S'--'
p736
sg18
S'12/22'
p737
sg20
S'--'
p738
sg21
S'--'
p739
sg22
S'--'
p740
sg23
S'W24-13'
p741
sg24
S'--'
p742
sg25
S'--'
p743
sg26
S'CLE'
p744
sg27
S'--'
p745
sg28
S'--'
p746
sg29
S'--'
p747
ssg36
(dp748
g5
S'--'
p749
sg7
S'--'
p750
sg8
g34
sg9
S'--'
p751
sg10
g36
sg11
S'Zach Sudfeld'
p752
sg13
S'2013'
p753
sg15
g36
sg17
S'--'
p754
sg18
S'09/08'
p755
sg20
S'--'
p756
sg21
S'--'
p757
sg22
S'--'
p758
sg23
S'W23-21'
p759
sg24
g34
sg25
g34
sg26
S'@BUF'
p760
sg27
S'--'
p761
sg28
g34
sg29
S'--'
p762
ssg184
(dp763
g5
S'--'
p764
sg7
S'--'
p765
sg8
g34
sg9
S'--'
p766
sg10
g36
sg11
S'Zach Sudfeld'
p767
sg13
S'2013'
p768
sg15
g184
sg17
S'--'
p769
sg18
S'09/22'
p770
sg20
S'--'
p771
sg21
S'--'
p772
sg22
S'--'
p773
sg23
S'W23-3'
p774
sg24
g34
sg25
g34
sg26
S'TB'
p775
sg27
S'--'
p776
sg28
g34
sg29
S'--'
p777
ssg145
(dp778
g5
S'--'
p779
sg7
S'--'
p780
sg8
g34
sg9
S'--'
p781
sg10
g34
sg11
S'Zach Sudfeld'
p782
sg13
S'2013'
p783
sg15
g145
sg17
S'--'
p784
sg18
S'09/12'
p785
sg20
S'--'
p786
sg21
S'--'
p787
sg22
S'--'
p788
sg23
S'W13-10'
p789
sg24
S'--'
p790
sg25
S'--'
p791
sg26
S'NYJ'
p792
sg27
S'--'
p793
sg28
S'--'
p794
sg29
S'--'
p795
ssg216
(dp796
g5
S'--'
p797
sg7
S'--'
p798
sg8
g34
sg9
S'--'
p799
sg10
g34
sg11
S'Zach Sudfeld'
p800
sg13
S'2013'
p801
sg15
g216
sg17
S'--'
p802
sg18
S'10/07'
p803
sg20
S'--'
p804
sg21
S'--'
p805
sg22
S'--'
p806
sg23
S'W30-28'
p807
sg24
S'--'
p808
sg25
S'--'
p809
sg26
S'@ATL'
p810
sg27
S'--'
p811
sg28
S'--'
p812
sg29
S'--'
p813
ssg235
(dp814
g5
S'--'
p815
sg7
S'--'
p816
sg8
g34
sg9
S'--'
p817
sg10
g36
sg11
S'Zach Sudfeld'
p818
sg13
S'2013'
p819
sg15
g235
sg17
S'--'
p820
sg18
S'09/29'
p821
sg20
S'--'
p822
sg21
S'--'
p823
sg22
S'--'
p824
sg23
S'W30-23'
p825
sg24
S'--'
p826
sg25
S'--'
p827
sg26
S'@ATL'
p828
sg27
S'--'
p829
sg28
S'--'
p830
sg29
S'--'
p831
ssg251
(dp832
g5
S'--'
p833
sg7
S'--'
p834
sg8
g34
sg9
S'--'
p835
sg10
g36
sg11
S'Zach Sudfeld'
p836
sg13
S'2013'
p837
sg15
g251
sg17
S'--'
p838
sg18
S'10/20'
p839
sg20
S'--'
p840
sg21
S'--'
p841
sg22
S'--'
p842
sg23
S'W30-27'
p843
sg24
S'--'
p844
sg25
S'--'
p845
sg26
S'NE'
p846
sg27
S'--'
p847
sg28
S'--'
p848
sg29
S'--'
p849
ssg163
(dp850
g5
S'--'
p851
sg7
S'--'
p852
sg8
g34
sg9
S'--'
p853
sg10
g36
sg11
S'Zach Sudfeld'
p854
sg13
S'2013'
p855
sg15
g163
sg17
S'--'
p856
sg18
S'10/13'
p857
sg20
S'--'
p858
sg21
S'--'
p859
sg22
S'--'
p860
sg23
S'L6-19'
p861
sg24
S'--'
p862
sg25
S'--'
p863
sg26
S'PIT'
p864
sg27
S'--'
p865
sg28
S'--'
p866
sg29
S'--'
p867
ssg288
(dp868
g5
S'--'
p869
sg7
S'--'
p870
sg8
g36
sg9
S'--'
p871
sg10
g36
sg11
S'Zach Sudfeld'
p872
sg13
S'2013'
p873
sg15
g288
sg17
S'--'
p874
sg18
S'11/03'
p875
sg20
S'23.0'
p876
sg21
S'--'
p877
sg22
S'--'
p878
sg23
S'W26-20'
p879
sg24
S'46'
p880
sg25
g145
sg26
S'NO'
p881
sg27
S'25'
p882
sg28
g34
sg29
S'--'
p883
ssg307
(dp884
g5
S'--'
p885
sg7
S'--'
p886
sg8
g36
sg9
S'--'
p887
sg10
g36
sg11
S'Zach Sudfeld'
p888
sg13
S'2013'
p889
sg15
g307
sg17
S'--'
p890
sg18
S'10/27'
p891
sg20
S'5.0'
p892
sg21
S'--'
p893
sg22
S'--'
p894
sg23
S'L9-49'
p895
sg24
S'10'
p896
sg25
g145
sg26
S'@CIN'
p897
sg27
g216
sg28
g34
sg29
S'--'
p898
sss.