(dp0
S'2015'
p1
(dp2
S'11'
p3
(dp4
S'RushTD'
p5
S'--'
p6
sS'RushYds'
p7
S'--'
p8
sS'GS'
p9
S'1'
p10
sS'Lost'
p11
S'--'
p12
sS'G'
p13
g10
sS'Player'
p14
S'Zach Miller'
p15
sS'Year'
p16
S'2015'
p17
sS'WK'
p18
S'11'
p19
sS'RushAvg'
p20
S'--'
p21
sS'Game Date'
p22
S'11/22'
p23
sS'RecAvg'
p24
S'15.7'
p25
sS'FUM'
p26
S'--'
p27
sS'RushAtt'
p28
S'--'
p29
sS'Result'
p30
S'L15-17'
p31
sS'RecYds'
p32
S'47'
p33
sS'Rec'
p34
S'3'
p35
sS'Opp'
p36
S'DEN'
p37
sS'RecLng'
p38
S'21'
p39
sS'RecTD'
p40
S'0'
p41
sS'RushLng'
p42
S'--'
p43
ssS'10'
p44
(dp45
g5
S'--'
p46
sg7
S'--'
p47
sg9
g10
sg11
S'--'
p48
sg13
g10
sg14
S'Zach Miller'
p49
sg16
S'2015'
p50
sg18
S'10'
p51
sg20
S'--'
p52
sg22
S'11/15'
p53
sg24
S'21.4'
p54
sg26
S'--'
p55
sg28
S'--'
p56
sg30
S'W37-13'
p57
sg32
S'107'
p58
sg34
S'5'
p59
sg36
S'@STL'
p60
sg38
S'87T'
p61
sg40
S'2'
p62
sg42
S'--'
p63
ssS'13'
p64
(dp65
g5
S'--'
p66
sg7
S'--'
p67
sg9
g10
sg11
S'--'
p68
sg13
g10
sg14
S'Zach Miller'
p69
sg16
S'2015'
p70
sg18
S'13'
p71
sg20
S'--'
p72
sg22
S'12/06'
p73
sg24
S'6.0'
p74
sg26
S'--'
p75
sg28
S'--'
p76
sg30
S'L20-26'
p77
sg32
S'6'
p78
sg34
g10
sg36
S'SF'
p79
sg38
g78
sg40
g41
sg42
S'--'
p80
ssS'12'
p81
(dp82
g5
S'--'
p83
sg7
S'--'
p84
sg9
g10
sg11
S'--'
p85
sg13
g10
sg14
S'Zach Miller'
p86
sg16
S'2015'
p87
sg18
S'12'
p88
sg20
S'--'
p89
sg22
S'11/26'
p90
sg24
S'5.0'
p91
sg26
S'--'
p92
sg28
S'--'
p93
sg30
S'W17-13'
p94
sg32
S'10'
p95
sg34
g62
sg36
S'@GB'
p96
sg38
S'7'
p97
sg40
g10
sg42
S'--'
p98
ssS'15'
p99
(dp100
g5
S'--'
p101
sg7
S'--'
p102
sg9
g10
sg11
S'--'
p103
sg13
g10
sg14
S'Zach Miller'
p104
sg16
S'2015'
p105
sg18
S'15'
p106
sg20
S'--'
p107
sg22
S'12/20'
p108
sg24
S'9.5'
p109
sg26
S'--'
p110
sg28
S'--'
p111
sg30
S'L17-38'
p112
sg32
S'57'
p113
sg34
g78
sg36
S'@MIN'
p114
sg38
S'17'
p115
sg40
g41
sg42
S'--'
p116
ssS'14'
p117
(dp118
g5
S'--'
p119
sg7
S'--'
p120
sg9
g10
sg11
S'--'
p121
sg13
g10
sg14
S'Zach Miller'
p122
sg16
S'2015'
p123
sg18
S'14'
p124
sg20
S'--'
p125
sg22
S'12/13'
p126
sg24
S'17.0'
p127
sg26
S'--'
p128
sg28
S'--'
p129
sg30
S'L21-24'
p130
sg32
S'85'
p131
sg34
g59
sg36
S'WAS'
p132
sg38
S'30'
p133
sg40
g10
sg42
S'--'
p134
ssS'17'
p135
(dp136
g5
S'--'
p137
sg7
S'--'
p138
sg9
g41
sg11
S'--'
p139
sg13
g41
sg14
S'Zach Miller'
p140
sg16
S'2015'
p141
sg18
S'17'
p142
sg20
S'--'
p143
sg22
S'01/03'
p144
sg24
S'--'
p145
sg26
S'--'
p146
sg28
S'--'
p147
sg30
S'L20-24'
p148
sg32
S'--'
p149
sg34
S'--'
p150
sg36
S'DET'
p151
sg38
S'--'
p152
sg40
S'--'
p153
sg42
S'--'
p154
ssS'16'
p155
(dp156
g5
S'--'
p157
sg7
S'--'
p158
sg9
g10
sg11
S'--'
p159
sg13
g10
sg14
S'Zach Miller'
p160
sg16
S'2015'
p161
sg18
S'16'
p162
sg20
S'--'
p163
sg22
S'12/27'
p164
sg24
S'9.9'
p165
sg26
S'--'
p166
sg28
S'--'
p167
sg30
S'W26-21'
p168
sg32
S'69'
p169
sg34
g97
sg36
S'@TB'
p170
sg38
S'18'
p171
sg40
g41
sg42
S'--'
p172
ssg10
(dp173
g5
S'--'
p174
sg7
S'--'
p175
sg9
g10
sg11
S'--'
p176
sg13
g10
sg14
S'Zach Miller'
p177
sg16
S'2015'
p178
sg18
g10
sg20
S'--'
p179
sg22
S'09/13'
p180
sg24
S'--'
p181
sg26
S'--'
p182
sg28
S'--'
p183
sg30
S'L23-31'
p184
sg32
g41
sg34
g41
sg36
S'GB'
p185
sg38
S'--'
p186
sg40
g41
sg42
S'--'
p187
ssg35
(dp188
g5
S'--'
p189
sg7
S'--'
p190
sg9
g10
sg11
S'--'
p191
sg13
g10
sg14
S'Zach Miller'
p192
sg16
S'2015'
p193
sg18
g35
sg20
S'--'
p194
sg22
S'09/27'
p195
sg24
S'21.0'
p196
sg26
S'--'
p197
sg28
S'--'
p198
sg30
S'L0-26'
p199
sg32
S'21'
p200
sg34
g10
sg36
S'@SEA'
p201
sg38
S'21'
p202
sg40
g41
sg42
S'--'
p203
ssg62
(dp204
g5
S'--'
p205
sg7
S'--'
p206
sg9
g10
sg11
S'--'
p207
sg13
g10
sg14
S'Zach Miller'
p208
sg16
S'2015'
p209
sg18
g62
sg20
S'--'
p210
sg22
S'09/20'
p211
sg24
S'7.0'
p212
sg26
S'--'
p213
sg28
S'--'
p214
sg30
S'L23-48'
p215
sg32
S'14'
p216
sg34
g62
sg36
S'ARI'
p217
sg38
S'9'
p218
sg40
g41
sg42
S'--'
p219
ssg59
(dp220
g5
S'--'
p221
sg7
S'--'
p222
sg9
g10
sg11
S'--'
p223
sg13
g10
sg14
S'Zach Miller'
p224
sg16
S'2015'
p225
sg18
g59
sg20
S'--'
p226
sg22
S'10/11'
p227
sg24
S'--'
p228
sg26
S'--'
p229
sg28
S'--'
p230
sg30
S'W18-17'
p231
sg32
g41
sg34
g41
sg36
S'@KC'
p232
sg38
S'--'
p233
sg40
g41
sg42
S'--'
p234
ssS'4'
p235
(dp236
g5
S'--'
p237
sg7
S'--'
p238
sg9
g10
sg11
S'--'
p239
sg13
g10
sg14
S'Zach Miller'
p240
sg16
S'2015'
p241
sg18
g235
sg20
S'--'
p242
sg22
S'10/04'
p243
sg24
S'--'
p244
sg26
S'--'
p245
sg28
S'--'
p246
sg30
S'W22-20'
p247
sg32
S'--'
p248
sg34
S'--'
p249
sg36
S'OAK'
p250
sg38
S'--'
p251
sg40
S'--'
p252
sg42
S'--'
p253
ssg97
(dp254
g5
S''
p255
sg7
g255
sg9
g255
sg11
g255
sg13
g255
sg14
S'Zach Miller'
p256
sg16
S'2015'
p257
sg18
g97
sg20
g255
sg22
S'Bye'
p258
sg24
g255
sg26
g255
sg28
g255
sg30
g255
sg32
g255
sg34
g255
sg36
g255
sg38
g255
sg40
g255
sg42
g255
ssg78
(dp259
g5
S'--'
p260
sg7
S'--'
p261
sg9
g10
sg11
S'--'
p262
sg13
g10
sg14
S'Zach Miller'
p263
sg16
S'2015'
p264
sg18
g78
sg20
S'--'
p265
sg22
S'10/18'
p266
sg24
S'--'
p267
sg26
S'--'
p268
sg28
S'--'
p269
sg30
S'L34-37'
p270
sg32
S'--'
p271
sg34
S'--'
p272
sg36
S'@DET'
p273
sg38
S'--'
p274
sg40
S'--'
p275
sg42
S'--'
p276
ssg218
(dp277
g5
S'--'
p278
sg7
S'--'
p279
sg9
g41
sg11
S'--'
p280
sg13
g10
sg14
S'Zach Miller'
p281
sg16
S'2015'
p282
sg18
g218
sg20
S'--'
p283
sg22
S'11/09'
p284
sg24
S'11.5'
p285
sg26
S'--'
p286
sg28
S'--'
p287
sg30
S'W22-19'
p288
sg32
S'23'
p289
sg34
g62
sg36
S'@SD'
p290
sg38
S'25T'
p291
sg40
g10
sg42
S'--'
p292
ssS'8'
p293
(dp294
g5
S'--'
p295
sg7
S'--'
p296
sg9
g10
sg11
S'--'
p297
sg13
g10
sg14
S'Zach Miller'
p298
sg16
S'2015'
p299
sg18
g293
sg20
S'--'
p300
sg22
S'11/01'
p301
sg24
S'--'
p302
sg26
S'--'
p303
sg28
S'--'
p304
sg30
S'L20-23'
p305
sg32
S'--'
p306
sg34
S'--'
p307
sg36
S'MIN'
p308
sg38
S'--'
p309
sg40
S'--'
p310
sg42
S'--'
p311
sssS'2011'
p312
(dp313
g10
(dp314
g5
S'--'
p315
sg7
S'--'
p316
sg9
g41
sg11
S'--'
p317
sg13
g41
sg14
S'Zach Miller'
p318
sg16
S'2011'
p319
sg18
g10
sg20
S'--'
p320
sg22
S'09/11'
p321
sg24
S'--'
p322
sg26
S'--'
p323
sg28
S'--'
p324
sg30
S'W16-14'
p325
sg32
S'--'
p326
sg34
S'--'
p327
sg36
S'TEN'
p328
sg38
S'--'
p329
sg40
S'--'
p330
sg42
S'--'
p331
ssg35
(dp332
g5
S'--'
p333
sg7
S'--'
p334
sg9
g41
sg11
S'--'
p335
sg13
g10
sg14
S'Zach Miller'
p336
sg16
S'2011'
p337
sg18
g35
sg20
S'--'
p338
sg22
S'09/25'
p339
sg24
S'--'
p340
sg26
S'--'
p341
sg28
S'--'
p342
sg30
S'L10-16'
p343
sg32
S'--'
p344
sg34
S'--'
p345
sg36
S'@CAR'
p346
sg38
S'--'
p347
sg40
S'--'
p348
sg42
S'--'
p349
ssg62
(dp350
g5
S'--'
p351
sg7
S'--'
p352
sg9
g41
sg11
S'--'
p353
sg13
g10
sg14
S'Zach Miller'
p354
sg16
S'2011'
p355
sg18
g62
sg20
S'--'
p356
sg22
S'09/18'
p357
sg24
S'9.3'
p358
sg26
S'--'
p359
sg28
S'--'
p360
sg30
S'L3-32'
p361
sg32
S'28'
p362
sg34
g35
sg36
S'@NYJ'
p363
sg38
S'14'
p364
sg40
g41
sg42
S'--'
p365
ssg59
(dp366
g5
S'--'
p367
sg7
S'--'
p368
sg9
g41
sg11
S'--'
p369
sg13
g41
sg14
S'Zach Miller'
p370
sg16
S'2011'
p371
sg18
g59
sg20
S'--'
p372
sg22
S'10/09'
p373
sg24
S'--'
p374
sg26
S'--'
p375
sg28
S'--'
p376
sg30
S'L20-30'
p377
sg32
S'--'
p378
sg34
S'--'
p379
sg36
S'CIN'
p380
sg38
S'--'
p381
sg40
S'--'
p382
sg42
S'--'
p383
ssg235
(dp384
g5
S'--'
p385
sg7
S'--'
p386
sg9
g41
sg11
S'--'
p387
sg13
g10
sg14
S'Zach Miller'
p388
sg16
S'2011'
p389
sg18
g235
sg20
S'--'
p390
sg22
S'10/02'
p391
sg24
S'14.0'
p392
sg26
S'--'
p393
sg28
S'--'
p394
sg30
S'L10-23'
p395
sg32
S'14'
p396
sg34
g10
sg36
S'NO'
p397
sg38
S'14T'
p398
sg40
g10
sg42
S'--'
p399
ssg78
(dp400
g5
S'--'
p401
sg7
S'--'
p402
sg9
g41
sg11
S'--'
p403
sg13
g10
sg14
S'Zach Miller'
p404
sg16
S'2011'
p405
sg18
g78
sg20
S'--'
p406
sg22
S'10/16'
p407
sg24
S'--'
p408
sg26
S'--'
p409
sg28
S'--'
p410
sg30
S'L13-17'
p411
sg32
S'--'
p412
sg34
S'--'
p413
sg36
S'@PIT'
p414
sg38
S'--'
p415
sg40
S'--'
p416
sg42
S'--'
p417
sssS'2010'
p418
(dp419
g3
(dp420
g5
S'--'
p421
sg7
S'--'
p422
sg9
g10
sg11
S'--'
p423
sg13
g10
sg14
S'Zach Miller'
p424
sg16
S'2010'
p425
sg18
S'11'
p426
sg20
S'--'
p427
sg22
S'11/21'
p428
sg24
S'9.0'
p429
sg26
S'--'
p430
sg28
S'--'
p431
sg30
S'W24-20'
p432
sg32
S'27'
p433
sg34
g35
sg36
S'CLE'
p434
sg38
S'13'
p435
sg40
g41
sg42
S'--'
p436
ssg44
(dp437
g5
S'--'
p438
sg7
S'--'
p439
sg9
g10
sg11
S'--'
p440
sg13
g10
sg14
S'Zach Miller'
p441
sg16
S'2010'
p442
sg18
S'10'
p443
sg20
S'--'
p444
sg22
S'11/14'
p445
sg24
S'19.8'
p446
sg26
S'--'
p447
sg28
S'--'
p448
sg30
S'W31-24'
p449
sg32
S'79'
p450
sg34
g235
sg36
S'HOU'
p451
sg38
S'52T'
p452
sg40
g10
sg42
S'--'
p453
ssg64
(dp454
g5
g41
sg7
g218
sg9
g10
sg11
S'--'
p455
sg13
g10
sg14
S'Zach Miller'
p456
sg16
S'2010'
p457
sg18
S'13'
p458
sg20
S'4.5'
p459
sg22
S'12/05'
p460
sg24
S'11.3'
p461
sg26
S'--'
p462
sg28
g62
sg30
S'W17-6'
p463
sg32
S'34'
p464
sg34
g35
sg36
S'@TEN'
p465
sg38
S'18'
p466
sg40
g41
sg42
g293
ssg81
(dp467
g5
S'--'
p468
sg7
S'--'
p469
sg9
g41
sg11
S'--'
p470
sg13
g10
sg14
S'Zach Miller'
p471
sg16
S'2010'
p472
sg18
S'12'
p473
sg20
S'--'
p474
sg22
S'11/28'
p475
sg24
S'--'
p476
sg26
S'--'
p477
sg28
S'--'
p478
sg30
S'L20-24'
p479
sg32
S'--'
p480
sg34
S'--'
p481
sg36
S'@NYG'
p482
sg38
S'--'
p483
sg40
S'--'
p484
sg42
S'--'
p485
ssg99
(dp486
g5
S'--'
p487
sg7
S'--'
p488
sg9
g10
sg11
S'--'
p489
sg13
g10
sg14
S'Zach Miller'
p490
sg16
S'2010'
p491
sg18
S'15'
p492
sg20
S'--'
p493
sg22
S'12/19'
p494
sg24
S'--'
p495
sg26
S'--'
p496
sg28
S'--'
p497
sg30
S'L24-34'
p498
sg32
S'--'
p499
sg34
S'--'
p500
sg36
S'@IND'
p501
sg38
S'--'
p502
sg40
S'--'
p503
sg42
S'--'
p504
ssg117
(dp505
g5
S'--'
p506
sg7
S'--'
p507
sg9
g41
sg11
S'--'
p508
sg13
g10
sg14
S'Zach Miller'
p509
sg16
S'2010'
p510
sg18
S'14'
p511
sg20
S'--'
p512
sg22
S'12/12'
p513
sg24
S'--'
p514
sg26
S'--'
p515
sg28
S'--'
p516
sg30
S'W38-31'
p517
sg32
g41
sg34
g41
sg36
S'OAK'
p518
sg38
S'--'
p519
sg40
g41
sg42
S'--'
p520
ssg135
(dp521
g5
S'--'
p522
sg7
S'--'
p523
sg9
g41
sg11
S'--'
p524
sg13
g41
sg14
S'Zach Miller'
p525
sg16
S'2010'
p526
sg18
S'17'
p527
sg20
S'--'
p528
sg22
S'01/02'
p529
sg24
S'--'
p530
sg26
S'--'
p531
sg28
S'--'
p532
sg30
S'L17-34'
p533
sg32
S'--'
p534
sg34
S'--'
p535
sg36
S'@HOU'
p536
sg38
S'--'
p537
sg40
S'--'
p538
sg42
S'--'
p539
ssg155
(dp540
g5
S'--'
p541
sg7
S'--'
p542
sg9
g10
sg11
S'--'
p543
sg13
g10
sg14
S'Zach Miller'
p544
sg16
S'2010'
p545
sg18
S'16'
p546
sg20
S'--'
p547
sg22
S'12/26'
p548
sg24
S'--'
p549
sg26
S'--'
p550
sg28
S'--'
p551
sg30
S'L17-20'
p552
sg32
g41
sg34
g41
sg36
S'WAS'
p553
sg38
S'--'
p554
sg40
g41
sg42
S'--'
p555
ssg10
(dp556
g5
S'--'
p557
sg7
S'--'
p558
sg9
g41
sg11
S'--'
p559
sg13
g10
sg14
S'Zach Miller'
p560
sg16
S'2010'
p561
sg18
g10
sg20
S'--'
p562
sg22
S'09/12'
p563
sg24
S'4.0'
p564
sg26
S'--'
p565
sg28
S'--'
p566
sg30
S'W24-17'
p567
sg32
g293
sg34
g62
sg36
S'DEN'
p568
sg38
g78
sg40
g41
sg42
S'--'
p569
ssg35
(dp570
g5
S'--'
p571
sg7
S'--'
p572
sg9
g41
sg11
S'--'
p573
sg13
g10
sg14
S'Zach Miller'
p574
sg16
S'2010'
p575
sg18
g35
sg20
S'--'
p576
sg22
S'09/26'
p577
sg24
S'7.0'
p578
sg26
S'--'
p579
sg28
S'--'
p580
sg30
S'L3-28'
p581
sg32
g97
sg34
g10
sg36
S'PHI'
p582
sg38
g97
sg40
g41
sg42
S'--'
p583
ssg62
(dp584
g5
S'--'
p585
sg7
S'--'
p586
sg9
g41
sg11
S'--'
p587
sg13
g10
sg14
S'Zach Miller'
p588
sg16
S'2010'
p589
sg18
g62
sg20
S'--'
p590
sg22
S'09/19'
p591
sg24
S'--'
p592
sg26
S'--'
p593
sg28
S'--'
p594
sg30
S'L13-38'
p595
sg32
S'--'
p596
sg34
S'--'
p597
sg36
S'@SD'
p598
sg38
S'--'
p599
sg40
S'--'
p600
sg42
S'--'
p601
ssg59
(dp602
g5
S'--'
p603
sg7
S'--'
p604
sg9
g41
sg11
S'--'
p605
sg13
g10
sg14
S'Zach Miller'
p606
sg16
S'2010'
p607
sg18
g59
sg20
S'--'
p608
sg22
S'10/10'
p609
sg24
S'9.0'
p610
sg26
S'--'
p611
sg28
S'--'
p612
sg30
S'W36-26'
p613
sg32
S'18'
p614
sg34
g62
sg36
S'@BUF'
p615
sg38
S'11'
p616
sg40
g41
sg42
S'--'
p617
ssg235
(dp618
g5
S'--'
p619
sg7
S'--'
p620
sg9
g41
sg11
S'--'
p621
sg13
g10
sg14
S'Zach Miller'
p622
sg16
S'2010'
p623
sg18
g235
sg20
S'--'
p624
sg22
S'10/03'
p625
sg24
S'--'
p626
sg26
S'--'
p627
sg28
S'--'
p628
sg30
S'W31-28'
p629
sg32
S'--'
p630
sg34
S'--'
p631
sg36
S'IND'
p632
sg38
S'--'
p633
sg40
S'--'
p634
sg42
S'--'
p635
ssg97
(dp636
g5
S'--'
p637
sg7
S'--'
p638
sg9
g41
sg11
S'--'
p639
sg13
g10
sg14
S'Zach Miller'
p640
sg16
S'2010'
p641
sg18
g97
sg20
S'--'
p642
sg22
S'10/24'
p643
sg24
S'8.3'
p644
sg26
S'--'
p645
sg28
S'--'
p646
sg30
S'L20-42'
p647
sg32
S'25'
p648
sg34
g35
sg36
S'@KC'
p649
sg38
g218
sg40
g41
sg42
S'--'
p650
ssg78
(dp651
g5
S'--'
p652
sg7
S'--'
p653
sg9
g41
sg11
S'--'
p654
sg13
g10
sg14
S'Zach Miller'
p655
sg16
S'2010'
p656
sg18
g78
sg20
S'--'
p657
sg22
S'10/18'
p658
sg24
S'9.0'
p659
sg26
S'--'
p660
sg28
S'--'
p661
sg30
S'L3-30'
p662
sg32
S'18'
p663
sg34
g62
sg36
S'TEN'
p664
sg38
S'10'
p665
sg40
g41
sg42
S'--'
p666
ssg218
(dp667
g5
g255
sg7
g255
sg9
g255
sg11
g255
sg13
g255
sg14
S'Zach Miller'
p668
sg16
S'2010'
p669
sg18
g218
sg20
g255
sg22
S'Bye'
p670
sg24
g255
sg26
g255
sg28
g255
sg30
g255
sg32
g255
sg34
g255
sg36
g255
sg38
g255
sg40
g255
sg42
g255
ssg293
(dp671
g5
S'--'
p672
sg7
S'--'
p673
sg9
g41
sg11
S'--'
p674
sg13
g10
sg14
S'Zach Miller'
p675
sg16
S'2010'
p676
sg18
g293
sg20
S'--'
p677
sg22
S'10/31'
p678
sg24
S'--'
p679
sg26
S'--'
p680
sg28
S'--'
p681
sg30
S'W35-17'
p682
sg32
S'--'
p683
sg34
S'--'
p684
sg36
S'@DAL'
p685
sg38
S'--'
p686
sg40
S'--'
p687
sg42
S'--'
p688
sss.