(dp0
S'2015'
p1
(dp2
S'11'
p3
(dp4
S'RecAvg'
p5
S'--'
p6
sS'FUM'
p7
S'--'
p8
sS'GS'
p9
S'0'
p10
sS'Lost'
p11
S'--'
p12
sS'G'
p13
S'1'
p14
sS'RecTD'
p15
g10
sS'Year'
p16
S'2015'
p17
sS'WK'
p18
S'11'
p19
sS'RushAvg'
p20
S'2.0'
p21
sS'Game Date'
p22
S'11/22'
p23
sS'RushTD'
p24
g10
sS'Player'
p25
S'Akeem Hunt'
p26
sS'RushAtt'
p27
S'2'
p28
sS'Result'
p29
S'W24-17'
p30
sS'RecYds'
p31
g10
sS'Rec'
p32
g10
sS'Opp'
p33
S'NYJ'
p34
sS'RecLng'
p35
S'--'
p36
sS'RushYds'
p37
S'4'
p38
sS'RushLng'
p39
g28
ssS'13'
p40
(dp41
g5
S'0.0'
p42
sg7
S'--'
p43
sg9
g10
sg11
S'--'
p44
sg13
g14
sg15
g10
sg16
S'2015'
p45
sg18
S'13'
p46
sg20
S'7.0'
p47
sg22
S'12/06'
p48
sg24
g10
sg25
S'Akeem Hunt'
p49
sg27
g14
sg29
S'L21-30'
p50
sg31
g10
sg32
g14
sg33
S'@BUF'
p51
sg35
g10
sg37
S'7'
p52
sg39
g52
ssS'12'
p53
(dp54
g5
S'-2.0'
p55
sg7
S'--'
p56
sg9
g10
sg11
S'--'
p57
sg13
g14
sg15
g10
sg16
S'2015'
p58
sg18
S'12'
p59
sg20
S'9.0'
p60
sg22
S'11/29'
p61
sg24
g10
sg25
S'Akeem Hunt'
p62
sg27
S'3'
p63
sg29
S'W24-6'
p64
sg31
S'-2'
p65
sg32
g14
sg33
S'NO'
p66
sg35
S'-2'
p67
sg37
S'27'
p68
sg39
S'17'
p69
ssS'15'
p70
(dp71
g5
S'4.0'
p72
sg7
S'--'
p73
sg9
g10
sg11
S'--'
p74
sg13
g14
sg15
g10
sg16
S'2015'
p75
sg18
S'15'
p76
sg20
S'5.2'
p77
sg22
S'12/20'
p78
sg24
g10
sg25
S'Akeem Hunt'
p79
sg27
S'5'
p80
sg29
S'W16-10'
p81
sg31
S'8'
p82
sg32
g28
sg33
S'@IND'
p83
sg35
g80
sg37
S'26'
p84
sg39
S'21'
p85
ssS'14'
p86
(dp87
g5
S'--'
p88
sg7
S'--'
p89
sg9
g10
sg11
S'--'
p90
sg13
g14
sg15
S'--'
p91
sg16
S'2015'
p92
sg18
S'14'
p93
sg20
S'1.0'
p94
sg22
S'12/13'
p95
sg24
g10
sg25
S'Akeem Hunt'
p96
sg27
g14
sg29
S'L6-27'
p97
sg31
S'--'
p98
sg32
S'--'
p99
sg33
S'NE'
p100
sg35
S'--'
p101
sg37
g14
sg39
g14
ssS'17'
p102
(dp103
g5
S'27.0'
p104
sg7
S'--'
p105
sg9
g14
sg11
S'--'
p106
sg13
g14
sg15
g10
sg16
S'2015'
p107
sg18
S'17'
p108
sg20
S'9.3'
p109
sg22
S'01/03'
p110
sg24
g10
sg25
S'Akeem Hunt'
p111
sg27
g63
sg29
S'W30-6'
p112
sg31
S'27'
p113
sg32
g14
sg33
S'JAC'
p114
sg35
S'27'
p115
sg37
S'28'
p116
sg39
S'25'
p117
ssS'16'
p118
(dp119
g5
S'6.0'
p120
sg7
S'--'
p121
sg9
g10
sg11
S'--'
p122
sg13
g14
sg15
g10
sg16
S'2015'
p123
sg18
S'16'
p124
sg20
S'1.5'
p125
sg22
S'12/27'
p126
sg24
g10
sg25
S'Akeem Hunt'
p127
sg27
g28
sg29
S'W34-6'
p128
sg31
S'6'
p129
sg32
g14
sg33
S'@TEN'
p130
sg35
g129
sg37
g63
sg39
g63
sss.