(dp0
S'2015'
p1
(dp2
S'11'
p3
(dp4
S'RecAvg'
p5
S'11.3'
p6
sS'FUM'
p7
S'--'
p8
sS'GS'
p9
S'1'
p10
sS'Lost'
p11
S'--'
p12
sS'G'
p13
g10
sS'RecTD'
p14
g10
sS'Year'
p15
S'2015'
p16
sS'WK'
p17
S'11'
p18
sS'RushAvg'
p19
S'2.8'
p20
sS'Game Date'
p21
S'11/22'
p22
sS'RushTD'
p23
S'0'
p24
sS'Player'
p25
S'Alfred Blue'
p26
sS'RushAtt'
p27
S'21'
p28
sS'Result'
p29
S'W24-17'
p30
sS'RecYds'
p31
S'34'
p32
sS'Rec'
p33
S'3'
p34
sS'Opp'
p35
S'NYJ'
p36
sS'RecLng'
p37
S'21T'
p38
sS'RushYds'
p39
S'58'
p40
sS'RushLng'
p41
S'14'
p42
ssS'10'
p43
(dp44
g5
S'9.0'
p45
sg7
S'--'
p46
sg9
g10
sg11
S'--'
p47
sg13
g10
sg14
g24
sg15
S'2015'
p48
sg17
S'10'
p49
sg19
S'1.8'
p50
sg21
S'11/16'
p51
sg23
g24
sg25
S'Alfred Blue'
p52
sg27
S'12'
p53
sg29
S'W10-6'
p54
sg31
S'9'
p55
sg33
g10
sg35
S'@CIN'
p56
sg37
g55
sg39
S'22'
p57
sg41
S'5'
p58
ssS'13'
p59
(dp60
g5
S'--'
p61
sg7
S'--'
p62
sg9
g10
sg11
S'--'
p63
sg13
g10
sg14
S'--'
p64
sg15
S'2015'
p65
sg17
S'13'
p66
sg19
S'3.5'
p67
sg21
S'12/06'
p68
sg23
g24
sg25
S'Alfred Blue'
p69
sg27
S'4'
p70
sg29
S'L21-30'
p71
sg31
S'--'
p72
sg33
S'--'
p73
sg35
S'@BUF'
p74
sg37
S'--'
p75
sg39
S'14'
p76
sg41
g70
ssS'12'
p77
(dp78
g5
S'4.0'
p79
sg7
S'--'
p80
sg9
g10
sg11
S'--'
p81
sg13
g10
sg14
g24
sg15
S'2015'
p82
sg17
S'12'
p83
sg19
S'4.8'
p84
sg21
S'11/29'
p85
sg23
g10
sg25
S'Alfred Blue'
p86
sg27
S'16'
p87
sg29
S'W24-6'
p88
sg31
g70
sg33
g10
sg35
S'NO'
p89
sg37
g70
sg39
S'77'
p90
sg41
S'12'
p91
ssS'15'
p92
(dp93
g5
S'--'
p94
sg7
g10
sg9
g24
sg11
g10
sg13
g10
sg14
S'--'
p95
sg15
S'2015'
p96
sg17
S'15'
p97
sg19
S'5.4'
p98
sg21
S'12/20'
p99
sg23
g24
sg25
S'Alfred Blue'
p100
sg27
S'20'
p101
sg29
S'W16-10'
p102
sg31
S'--'
p103
sg33
S'--'
p104
sg35
S'@IND'
p105
sg37
S'--'
p106
sg39
S'107'
p107
sg41
S'41'
p108
ssS'14'
p109
(dp110
g5
S'--'
p111
sg7
S'--'
p112
sg9
g24
sg11
S'--'
p113
sg13
g10
sg14
S'--'
p114
sg15
S'2015'
p115
sg17
S'14'
p116
sg19
S'--'
p117
sg21
S'12/13'
p118
sg23
S'--'
p119
sg25
S'Alfred Blue'
p120
sg27
S'--'
p121
sg29
S'L6-27'
p122
sg31
S'--'
p123
sg33
S'--'
p124
sg35
S'NE'
p125
sg37
S'--'
p126
sg39
S'--'
p127
sg41
S'--'
p128
ssS'17'
p129
(dp130
g5
S'2.0'
p131
sg7
S'--'
p132
sg9
g24
sg11
S'--'
p133
sg13
g10
sg14
g24
sg15
S'2015'
p134
sg17
S'17'
p135
sg19
S'4.9'
p136
sg21
S'01/03'
p137
sg23
g24
sg25
S'Alfred Blue'
p138
sg27
S'21'
p139
sg29
S'W30-6'
p140
sg31
S'2'
p141
sg33
g10
sg35
S'JAC'
p142
sg37
g141
sg39
S'102'
p143
sg41
S'12'
p144
ssS'16'
p145
(dp146
g5
S'5.0'
p147
sg7
S'--'
p148
sg9
g10
sg11
S'--'
p149
sg13
g10
sg14
g24
sg15
S'2015'
p150
sg17
S'16'
p151
sg19
S'3.0'
p152
sg21
S'12/27'
p153
sg23
g24
sg25
S'Alfred Blue'
p154
sg27
S'15'
p155
sg29
S'W34-6'
p156
sg31
g58
sg33
g10
sg35
S'@TEN'
p157
sg37
g58
sg39
S'45'
p158
sg41
S'7'
p159
ssg10
(dp160
g5
S'7.0'
p161
sg7
S'--'
p162
sg9
g10
sg11
S'--'
p163
sg13
g10
sg14
g24
sg15
S'2015'
p164
sg17
g10
sg19
S'4.7'
p165
sg21
S'09/13'
p166
sg23
g24
sg25
S'Alfred Blue'
p167
sg27
g55
sg29
S'L20-27'
p168
sg31
g159
sg33
g10
sg35
S'KC'
p169
sg37
g159
sg39
S'42'
p170
sg41
S'11'
p171
ssg34
(dp172
g5
S'--'
p173
sg7
g10
sg9
g10
sg11
g24
sg13
g10
sg14
S'--'
p174
sg15
S'2015'
p175
sg17
g34
sg19
S'4.5'
p176
sg21
S'09/27'
p177
sg23
g10
sg25
S'Alfred Blue'
p178
sg27
S'31'
p179
sg29
S'W19-9'
p180
sg31
S'--'
p181
sg33
S'--'
p182
sg35
S'TB'
p183
sg37
S'--'
p184
sg39
S'139'
p185
sg41
S'20T'
p186
ssg141
(dp187
g5
S'4.0'
p188
sg7
S'--'
p189
sg9
g10
sg11
S'--'
p190
sg13
g10
sg14
g24
sg15
S'2015'
p191
sg17
g141
sg19
S'1.2'
p192
sg21
S'09/20'
p193
sg23
g24
sg25
S'Alfred Blue'
p194
sg27
g58
sg29
S'L17-24'
p195
sg31
g70
sg33
g10
sg35
S'@CAR'
p196
sg37
g70
sg39
S'6'
p197
sg41
g70
ssg58
(dp198
g5
S'11.0'
p199
sg7
S'--'
p200
sg9
g24
sg11
S'--'
p201
sg13
g10
sg14
g24
sg15
S'2015'
p202
sg17
g58
sg19
S'3.7'
p203
sg21
S'10/08'
p204
sg23
g24
sg25
S'Alfred Blue'
p205
sg27
g197
sg29
S'L20-27'
p206
sg31
S'11'
p207
sg33
g10
sg35
S'IND'
p208
sg37
S'11'
p209
sg39
S'22'
p210
sg41
g197
ssg70
(dp211
g5
S'--'
p212
sg7
S'--'
p213
sg9
g24
sg11
S'--'
p214
sg13
g10
sg14
S'--'
p215
sg15
S'2015'
p216
sg17
g70
sg19
S'2.8'
p217
sg21
S'10/04'
p218
sg23
g24
sg25
S'Alfred Blue'
p219
sg27
g197
sg29
S'L21-48'
p220
sg31
S'--'
p221
sg33
S'--'
p222
sg35
S'@ATL'
p223
sg37
S'--'
p224
sg39
S'17'
p225
sg41
g55
ssg159
(dp226
g5
S'--'
p227
sg7
S'--'
p228
sg9
g24
sg11
S'--'
p229
sg13
g10
sg14
S'--'
p230
sg15
S'2015'
p231
sg17
g159
sg19
S'2.7'
p232
sg21
S'10/25'
p233
sg23
g24
sg25
S'Alfred Blue'
p234
sg27
g34
sg29
S'L26-44'
p235
sg31
S'--'
p236
sg33
S'--'
p237
sg35
S'@MIA'
p238
sg37
S'--'
p239
sg39
S'8'
p240
sg41
g34
ssg197
(dp241
g5
S'--'
p242
sg7
S'--'
p243
sg9
g24
sg11
S'--'
p244
sg13
g10
sg14
S'--'
p245
sg15
S'2015'
p246
sg17
g197
sg19
S'--'
p247
sg21
S'10/18'
p248
sg23
S'--'
p249
sg25
S'Alfred Blue'
p250
sg27
S'--'
p251
sg29
S'W31-20'
p252
sg31
S'--'
p253
sg33
S'--'
p254
sg35
S'@JAC'
p255
sg37
S'--'
p256
sg39
S'--'
p257
sg41
S'--'
p258
ssg55
(dp259
g5
S''
p260
sg7
g260
sg9
g260
sg11
g260
sg13
g260
sg14
g260
sg15
S'2015'
p261
sg17
g55
sg19
g260
sg21
S'Bye'
p262
sg23
g260
sg25
S'Alfred Blue'
p263
sg27
g260
sg29
g260
sg31
g260
sg33
g260
sg35
g260
sg37
g260
sg39
g260
sg41
g260
ssg240
(dp264
g5
S'6.6'
p265
sg7
S'--'
p266
sg9
g10
sg11
S'--'
p267
sg13
g10
sg14
g24
sg15
S'2015'
p268
sg17
g240
sg19
S'2.8'
p269
sg21
S'11/01'
p270
sg23
g24
sg25
S'Alfred Blue'
p271
sg27
S'14'
p272
sg29
S'W20-6'
p273
sg31
S'33'
p274
sg33
g58
sg35
S'TEN'
p275
sg37
g55
sg39
S'39'
p276
sg41
g240
sssS'2014'
p277
(dp278
g3
(dp279
g5
S'--'
p280
sg7
S'--'
p281
sg9
g10
sg11
S'--'
p282
sg13
g10
sg14
S'--'
p283
sg15
S'2014'
p284
sg17
S'11'
p285
sg19
S'4.3'
p286
sg21
S'11/16'
p287
sg23
g24
sg25
S'Alfred Blue'
p288
sg27
S'36'
p289
sg29
S'W23-7'
p290
sg31
S'--'
p291
sg33
S'--'
p292
sg35
S'@CLE'
p293
sg37
S'--'
p294
sg39
S'156'
p295
sg41
S'21'
p296
ssg43
(dp297
g5
g260
sg7
g260
sg9
g260
sg11
g260
sg13
g260
sg14
g260
sg15
S'2014'
p298
sg17
S'10'
p299
sg19
g260
sg21
S'Bye'
p300
sg23
g260
sg25
S'Alfred Blue'
p301
sg27
g260
sg29
g260
sg31
g260
sg33
g260
sg35
g260
sg37
g260
sg39
g260
sg41
g260
ssg59
(dp302
g5
S'--'
p303
sg7
S'--'
p304
sg9
g24
sg11
S'--'
p305
sg13
g10
sg14
S'--'
p306
sg15
S'2014'
p307
sg17
S'13'
p308
sg19
S'0.9'
p309
sg21
S'11/30'
p310
sg23
g24
sg25
S'Alfred Blue'
p311
sg27
g159
sg29
S'W45-21'
p312
sg31
S'--'
p313
sg33
S'--'
p314
sg35
S'TEN'
p315
sg37
S'--'
p316
sg39
g197
sg41
g58
ssg77
(dp317
g5
S'6.7'
p318
sg7
S'--'
p319
sg9
g10
sg11
S'--'
p320
sg13
g10
sg14
g24
sg15
S'2014'
p321
sg17
S'12'
p322
sg19
S'2.9'
p323
sg21
S'11/23'
p324
sg23
g24
sg25
S'Alfred Blue'
p325
sg27
S'16'
p326
sg29
S'L13-22'
p327
sg31
S'20'
p328
sg33
g34
sg35
S'CIN'
p329
sg37
S'11'
p330
sg39
S'46'
p331
sg41
g55
ssg92
(dp332
g5
S'--'
p333
sg7
S'--'
p334
sg9
g24
sg11
S'--'
p335
sg13
g10
sg14
S'--'
p336
sg15
S'2014'
p337
sg17
S'15'
p338
sg19
S'3.3'
p339
sg21
S'12/14'
p340
sg23
g24
sg25
S'Alfred Blue'
p341
sg27
g240
sg29
S'L10-17'
p342
sg31
S'--'
p343
sg33
S'--'
p344
sg35
S'@IND'
p345
sg37
S'--'
p346
sg39
S'26'
p347
sg41
g197
ssg109
(dp348
g5
S'--'
p349
sg7
S'--'
p350
sg9
g24
sg11
S'--'
p351
sg13
g10
sg14
S'--'
p352
sg15
S'2014'
p353
sg17
S'14'
p354
sg19
S'1.7'
p355
sg21
S'12/07'
p356
sg23
g10
sg25
S'Alfred Blue'
p357
sg27
g55
sg29
S'W27-13'
p358
sg31
S'--'
p359
sg33
S'--'
p360
sg35
S'@JAC'
p361
sg37
S'--'
p362
sg39
S'15'
p363
sg41
g58
ssg129
(dp364
g5
S'6.2'
p365
sg7
S'--'
p366
sg9
g24
sg11
S'--'
p367
sg13
g10
sg14
g24
sg15
S'2014'
p368
sg17
S'17'
p369
sg19
S'2.3'
p370
sg21
S'12/28'
p371
sg23
g10
sg25
S'Alfred Blue'
p372
sg27
S'17'
p373
sg29
S'W23-17'
p374
sg31
S'37'
p375
sg33
g197
sg35
S'JAC'
p376
sg37
S'10'
p377
sg39
S'39'
p378
sg41
g58
ssg145
(dp379
g5
S'--'
p380
sg7
S'--'
p381
sg9
g24
sg11
S'--'
p382
sg13
g10
sg14
S'--'
p383
sg15
S'2014'
p384
sg17
S'16'
p385
sg19
S'0.8'
p386
sg21
S'12/21'
p387
sg23
g24
sg25
S'Alfred Blue'
p388
sg27
g240
sg29
S'W25-13'
p389
sg31
S'--'
p390
sg33
S'--'
p391
sg35
S'BAL'
p392
sg37
S'--'
p393
sg39
g197
sg41
g58
ssg10
(dp394
g5
S'--'
p395
sg7
S'--'
p396
sg9
g24
sg11
S'--'
p397
sg13
g10
sg14
S'--'
p398
sg15
S'2014'
p399
sg17
g10
sg19
S'0.0'
p400
sg21
S'09/07'
p401
sg23
g24
sg25
S'Alfred Blue'
p402
sg27
g10
sg29
S'W17-6'
p403
sg31
S'--'
p404
sg33
S'--'
p405
sg35
S'WAS'
p406
sg37
S'--'
p407
sg39
g24
sg41
g24
ssg34
(dp408
g5
S'10.0'
p409
sg7
S'--'
p410
sg9
g10
sg11
S'--'
p411
sg13
g10
sg14
g24
sg15
S'2014'
p412
sg17
g34
sg19
S'6.0'
p413
sg21
S'09/21'
p414
sg23
g24
sg25
S'Alfred Blue'
p415
sg27
S'13'
p416
sg29
S'L17-30'
p417
sg31
S'10'
p418
sg33
g10
sg35
S'@NYG'
p419
sg37
S'10'
p420
sg39
S'78'
p421
sg41
S'46'
p422
ssg141
(dp423
g5
S'--'
p424
sg7
S'--'
p425
sg9
g24
sg11
S'--'
p426
sg13
g10
sg14
S'--'
p427
sg15
S'2014'
p428
sg17
g141
sg19
S'3.6'
p429
sg21
S'09/14'
p430
sg23
g24
sg25
S'Alfred Blue'
p431
sg27
S'11'
p432
sg29
S'W30-14'
p433
sg31
S'--'
p434
sg33
S'--'
p435
sg35
S'@OAK'
p436
sg37
S'--'
p437
sg39
S'40'
p438
sg41
S'11'
p439
ssg58
(dp440
g5
S'--'
p441
sg7
S'--'
p442
sg9
g24
sg11
S'--'
p443
sg13
g10
sg14
S'--'
p444
sg15
S'2014'
p445
sg17
g58
sg19
S'3.2'
p446
sg21
S'10/05'
p447
sg23
g24
sg25
S'Alfred Blue'
p448
sg27
g58
sg29
S'L17-20'
p449
sg31
S'--'
p450
sg33
S'--'
p451
sg35
S'@DAL'
p452
sg37
S'--'
p453
sg39
S'16'
p454
sg41
g58
ssg70
(dp455
g5
S'8.0'
p456
sg7
S'--'
p457
sg9
g24
sg11
S'--'
p458
sg13
g10
sg14
g24
sg15
S'2014'
p459
sg17
g70
sg19
S'1.0'
p460
sg21
S'09/28'
p461
sg23
g24
sg25
S'Alfred Blue'
p462
sg27
g55
sg29
S'W23-17'
p463
sg31
S'16'
p464
sg33
g141
sg35
S'BUF'
p465
sg37
S'13'
p466
sg39
g55
sg41
g197
ssg159
(dp467
g5
S'11.0'
p468
sg7
S'--'
p469
sg9
g24
sg11
S'--'
p470
sg13
g10
sg14
g10
sg15
S'2014'
p471
sg17
g159
sg19
S'2.8'
p472
sg21
S'10/20'
p473
sg23
g24
sg25
S'Alfred Blue'
p474
sg27
g58
sg29
S'L23-30'
p475
sg31
S'11'
p476
sg33
g10
sg35
S'@PIT'
p477
sg37
S'11T'
p478
sg39
S'14'
p479
sg41
g159
ssg197
(dp480
g5
S'--'
p481
sg7
S'--'
p482
sg9
g24
sg11
S'--'
p483
sg13
g10
sg14
S'--'
p484
sg15
S'2014'
p485
sg17
g197
sg19
S'7.3'
p486
sg21
S'10/09'
p487
sg23
g24
sg25
S'Alfred Blue'
p488
sg27
g34
sg29
S'L28-33'
p489
sg31
S'--'
p490
sg33
S'--'
p491
sg35
S'IND'
p492
sg37
S'--'
p493
sg39
S'22'
p494
sg41
S'17'
p495
ssg55
(dp496
g5
S'-3.0'
p497
sg7
S'--'
p498
sg9
g24
sg11
S'--'
p499
sg13
g10
sg14
g24
sg15
S'2014'
p500
sg17
g55
sg19
S'1.9'
p501
sg21
S'11/02'
p502
sg23
g24
sg25
S'Alfred Blue'
p503
sg27
g159
sg29
S'L21-31'
p504
sg31
S'-3'
p505
sg33
g10
sg35
S'PHI'
p506
sg37
S'-3'
p507
sg39
S'13'
p508
sg41
g159
ssg240
(dp509
g5
S'22.0'
p510
sg7
S'--'
p511
sg9
g24
sg11
S'--'
p512
sg13
g10
sg14
g24
sg15
S'2014'
p513
sg17
g240
sg19
S'3.0'
p514
sg21
S'10/26'
p515
sg23
g24
sg25
S'Alfred Blue'
p516
sg27
S'14'
p517
sg29
S'W30-16'
p518
sg31
S'22'
p519
sg33
g10
sg35
S'@TEN'
p520
sg37
S'22'
p521
sg39
S'42'
p522
sg41
g55
sss.