(dp0
S'2015'
p1
(dp2
S'11'
p3
(dp4
S'RecAvg'
p5
S'2.0'
p6
sS'FUM'
p7
S'--'
p8
sS'GS'
p9
S'0'
p10
sS'Lost'
p11
S'--'
p12
sS'G'
p13
S'1'
p14
sS'RecTD'
p15
g10
sS'Year'
p16
S'2015'
p17
sS'WK'
p18
S'11'
p19
sS'RushAvg'
p20
S'3.7'
p21
sS'Game Date'
p22
S'11/22'
p23
sS'RushTD'
p24
g10
sS'Player'
p25
S'Ameer Abdullah'
p26
sS'RushAtt'
p27
S'12'
p28
sS'Result'
p29
S'W18-13'
p30
sS'RecYds'
p31
S'2'
p32
sS'Rec'
p33
g14
sS'Opp'
p34
S'OAK'
p35
sS'RecLng'
p36
g32
sS'RushYds'
p37
S'44'
p38
sS'RushLng'
p39
S'9'
p40
ssS'10'
p41
(dp42
g5
S'7.0'
p43
sg7
S'--'
p44
sg9
g10
sg11
S'--'
p45
sg13
g14
sg15
g10
sg16
S'2015'
p46
sg18
S'10'
p47
sg20
S'3.0'
p48
sg22
S'11/15'
p49
sg24
g10
sg25
S'Ameer Abdullah'
p50
sg27
S'5'
p51
sg29
S'W18-16'
p52
sg31
S'7'
p53
sg33
g14
sg34
S'@GB'
p54
sg36
g53
sg37
S'15'
p55
sg39
g40
ssS'13'
p56
(dp57
g5
S'--'
p58
sg7
S'--'
p59
sg9
g14
sg11
S'--'
p60
sg13
g14
sg15
g10
sg16
S'2015'
p61
sg18
S'13'
p62
sg20
S'5.2'
p63
sg22
S'12/03'
p64
sg24
g10
sg25
S'Ameer Abdullah'
p65
sg27
S'13'
p66
sg29
S'L23-27'
p67
sg31
g10
sg33
g10
sg34
S'GB'
p68
sg36
S'--'
p69
sg37
S'67'
p70
sg39
S'36'
p71
ssS'12'
p72
(dp73
g5
S'12.0'
p74
sg7
S'--'
p75
sg9
g14
sg11
S'--'
p76
sg13
g14
sg15
g10
sg16
S'2015'
p77
sg18
S'12'
p78
sg20
S'3.9'
p79
sg22
S'11/26'
p80
sg24
g10
sg25
S'Ameer Abdullah'
p81
sg27
S'16'
p82
sg29
S'W45-14'
p83
sg31
S'12'
p84
sg33
g14
sg34
S'PHI'
p85
sg36
S'12'
p86
sg37
S'63'
p87
sg39
S'23'
p88
ssS'15'
p89
(dp90
g5
S'6.0'
p91
sg7
g14
sg9
g14
sg11
g14
sg13
g14
sg15
g10
sg16
S'2015'
p92
sg18
S'15'
p93
sg20
S'8.6'
p94
sg22
S'12/21'
p95
sg24
g14
sg25
S'Ameer Abdullah'
p96
sg27
g40
sg29
S'W35-27'
p97
sg31
S'12'
p98
sg33
g32
sg34
S'@NO'
p99
sg36
g53
sg37
S'77'
p100
sg39
S'27'
p101
ssS'14'
p102
(dp103
g5
S'10.5'
p104
sg7
S'--'
p105
sg9
g14
sg11
S'--'
p106
sg13
g14
sg15
g10
sg16
S'2015'
p107
sg18
S'14'
p108
sg20
S'3.3'
p109
sg22
S'12/13'
p110
sg24
g10
sg25
S'Ameer Abdullah'
p111
sg27
g53
sg29
S'L14-21'
p112
sg31
S'21'
p113
sg33
g32
sg34
S'@STL'
p114
sg36
S'14'
p115
sg37
S'23'
p116
sg39
g53
ssS'17'
p117
(dp118
g5
S'7.0'
p119
sg7
S'--'
p120
sg9
g14
sg11
S'--'
p121
sg13
g14
sg15
g10
sg16
S'2015'
p122
sg18
S'17'
p123
sg20
S'4.4'
p124
sg22
S'01/03'
p125
sg24
g10
sg25
S'Ameer Abdullah'
p126
sg27
S'10'
p127
sg29
S'W24-20'
p128
sg31
g53
sg33
g14
sg34
S'@CHI'
p129
sg36
g53
sg37
S'44'
p130
sg39
S'11'
p131
ssS'16'
p132
(dp133
g5
S'2.3'
p134
sg7
S'--'
p135
sg9
g14
sg11
S'--'
p136
sg13
g14
sg15
g10
sg16
S'2015'
p137
sg18
S'16'
p138
sg20
S'4.9'
p139
sg22
S'12/27'
p140
sg24
g10
sg25
S'Ameer Abdullah'
p141
sg27
S'8'
p142
sg29
S'W32-17'
p143
sg31
g40
sg33
S'4'
p144
sg34
S'SF'
p145
sg36
g144
sg37
S'39'
p146
sg39
S'10'
p147
ssg14
(dp148
g5
S'11.0'
p149
sg7
g14
sg9
g10
sg11
g10
sg13
g14
sg15
g10
sg16
S'2015'
p150
sg18
g14
sg20
S'7.1'
p151
sg22
S'09/13'
p152
sg24
g14
sg25
S'Ameer Abdullah'
p153
sg27
g53
sg29
S'L28-33'
p154
sg31
S'44'
p155
sg33
g144
sg34
S'@SD'
p156
sg36
S'36'
p157
sg37
S'50'
p158
sg39
S'24T'
p159
ssS'3'
p160
(dp161
g5
S'9.5'
p162
sg7
S'--'
p163
sg9
g10
sg11
S'--'
p164
sg13
g14
sg15
g14
sg16
S'2015'
p165
sg18
g160
sg20
S'2.9'
p166
sg22
S'09/27'
p167
sg24
g10
sg25
S'Ameer Abdullah'
p168
sg27
g142
sg29
S'L12-24'
p169
sg31
S'19'
p170
sg33
g32
sg34
S'DEN'
p171
sg36
S'16T'
p172
sg37
S'23'
p173
sg39
g40
ssg32
(dp174
g5
S'9.0'
p175
sg7
S'--'
p176
sg9
g14
sg11
S'--'
p177
sg13
g14
sg15
g10
sg16
S'2015'
p178
sg18
g32
sg20
S'1.5'
p179
sg22
S'09/20'
p180
sg24
g10
sg25
S'Ameer Abdullah'
p181
sg27
S'6'
p182
sg29
S'L16-26'
p183
sg31
g40
sg33
g14
sg34
S'@MIN'
p184
sg36
g40
sg37
g40
sg39
g53
ssg51
(dp185
g5
S'9.0'
p186
sg7
g32
sg9
g10
sg11
g14
sg13
g14
sg15
g10
sg16
S'2015'
p187
sg18
g51
sg20
S'2.7'
p188
sg22
S'10/11'
p189
sg24
g10
sg25
S'Ameer Abdullah'
p190
sg27
g182
sg29
S'L17-42'
p191
sg31
g40
sg33
g14
sg34
S'ARI'
p192
sg36
g40
sg37
S'16'
p193
sg39
g51
ssg144
(dp194
g5
S'5.5'
p195
sg7
S'--'
p196
sg9
g14
sg11
S'--'
p197
sg13
g14
sg15
g10
sg16
S'2015'
p198
sg18
g144
sg20
S'2.5'
p199
sg22
S'10/05'
p200
sg24
g10
sg25
S'Ameer Abdullah'
p201
sg27
S'13'
p202
sg29
S'L10-13'
p203
sg31
S'11'
p204
sg33
g32
sg34
S'@SEA'
p205
sg36
S'12'
p206
sg37
S'33'
p207
sg39
g40
ssg53
(dp208
g5
S'--'
p209
sg7
S'--'
p210
sg9
g10
sg11
S'--'
p211
sg13
g14
sg15
S'--'
p212
sg16
S'2015'
p213
sg18
g53
sg20
S'5.4'
p214
sg22
S'10/25'
p215
sg24
g10
sg25
S'Ameer Abdullah'
p216
sg27
g142
sg29
S'L19-28'
p217
sg31
S'--'
p218
sg33
S'--'
p219
sg34
S'MIN'
p220
sg36
S'--'
p221
sg37
S'43'
p222
sg39
S'13'
p223
ssg182
(dp224
g5
S'7.0'
p225
sg7
g14
sg9
g14
sg11
g10
sg13
g14
sg15
g10
sg16
S'2015'
p226
sg18
g182
sg20
S'3.4'
p227
sg22
S'10/18'
p228
sg24
g10
sg25
S'Ameer Abdullah'
p229
sg27
S'14'
p230
sg29
S'W37-34'
p231
sg31
S'21'
p232
sg33
g160
sg34
S'CHI'
p233
sg36
S'13'
p234
sg37
S'48'
p235
sg39
S'12'
p236
ssg40
(dp237
g5
S''
p238
sg7
g238
sg9
g238
sg11
g238
sg13
g238
sg15
g238
sg16
S'2015'
p239
sg18
g40
sg20
g238
sg22
S'Bye'
p240
sg24
g238
sg25
S'Ameer Abdullah'
p241
sg27
g238
sg29
g238
sg31
g238
sg33
g238
sg34
g238
sg36
g238
sg37
g238
sg39
g238
ssg142
(dp242
g5
S'--'
p243
sg7
S'--'
p244
sg9
g10
sg11
S'--'
p245
sg13
g14
sg15
g10
sg16
S'2015'
p246
sg18
g142
sg20
S'3.0'
p247
sg22
S'11/01'
p248
sg24
g10
sg25
S'Ameer Abdullah'
p249
sg27
g14
sg29
S'L10-45'
p250
sg31
g10
sg33
g10
sg34
S'@KC'
p251
sg36
S'--'
p252
sg37
g160
sg39
g160
sss.