(dp0
S'2015'
p1
(dp2
S'11'
p3
(dp4
S'RecAvg'
p5
S'5.0'
p6
sS'FUM'
p7
S'--'
p8
sS'GS'
p9
S'0'
p10
sS'Lost'
p11
S'--'
p12
sS'G'
p13
S'1'
p14
sS'RecTD'
p15
g10
sS'Year'
p16
S'2015'
p17
sS'WK'
p18
S'11'
p19
sS'RushAvg'
p20
S'1.0'
p21
sS'Game Date'
p22
S'11/22'
p23
sS'RushTD'
p24
g10
sS'Player'
p25
S'Andre Ellington'
p26
sS'RushAtt'
p27
S'2'
p28
sS'Result'
p29
S'W34-31'
p30
sS'RecYds'
p31
S'5'
p32
sS'Rec'
p33
g14
sS'Opp'
p34
S'CIN'
p35
sS'RecLng'
p36
g32
sS'RushYds'
p37
g28
sS'RushLng'
p38
g28
ssS'10'
p39
(dp40
g5
S'9.0'
p41
sg7
S'--'
p42
sg9
g10
sg11
S'--'
p43
sg13
g14
sg15
g10
sg16
S'2015'
p44
sg18
S'10'
p45
sg20
S'12.2'
p46
sg22
S'11/15'
p47
sg24
g14
sg25
S'Andre Ellington'
p48
sg27
g32
sg29
S'W39-32'
p49
sg31
S'27'
p50
sg33
S'3'
p51
sg34
S'@SEA'
p52
sg36
S'13'
p53
sg37
S'61'
p54
sg38
S'48T'
p55
ssS'13'
p56
(dp57
g5
S'--'
p58
sg7
S'--'
p59
sg9
g10
sg11
S'--'
p60
sg13
g10
sg15
S'--'
p61
sg16
S'2015'
p62
sg18
S'13'
p63
sg20
S'--'
p64
sg22
S'12/06'
p65
sg24
S'--'
p66
sg25
S'Andre Ellington'
p67
sg27
S'--'
p68
sg29
S'W27-3'
p69
sg31
S'--'
p70
sg33
S'--'
p71
sg34
S'@STL'
p72
sg36
S'--'
p73
sg37
S'--'
p74
sg38
S'--'
p75
ssS'12'
p76
(dp77
g5
S'7.3'
p78
sg7
S'--'
p79
sg9
g10
sg11
S'--'
p80
sg13
g14
sg15
g10
sg16
S'2015'
p81
sg18
S'12'
p82
sg20
S'4.8'
p83
sg22
S'11/29'
p84
sg24
g10
sg25
S'Andre Ellington'
p85
sg27
g32
sg29
S'W19-13'
p86
sg31
S'22'
p87
sg33
g51
sg34
S'@SF'
p88
sg36
S'9'
p89
sg37
S'24'
p90
sg38
S'13'
p91
ssS'15'
p92
(dp93
g5
S'--'
p94
sg7
S'--'
p95
sg9
g10
sg11
S'--'
p96
sg13
g10
sg15
S'--'
p97
sg16
S'2015'
p98
sg18
S'15'
p99
sg20
S'--'
p100
sg22
S'12/20'
p101
sg24
S'--'
p102
sg25
S'Andre Ellington'
p103
sg27
S'--'
p104
sg29
S'W40-17'
p105
sg31
S'--'
p106
sg33
S'--'
p107
sg34
S'@PHI'
p108
sg36
S'--'
p109
sg37
S'--'
p110
sg38
S'--'
p111
ssS'14'
p112
(dp113
g5
S'--'
p114
sg7
S'--'
p115
sg9
g10
sg11
S'--'
p116
sg13
g10
sg15
S'--'
p117
sg16
S'2015'
p118
sg18
S'14'
p119
sg20
S'--'
p120
sg22
S'12/10'
p121
sg24
S'--'
p122
sg25
S'Andre Ellington'
p123
sg27
S'--'
p124
sg29
S'W23-20'
p125
sg31
S'--'
p126
sg33
S'--'
p127
sg34
S'MIN'
p128
sg36
S'--'
p129
sg37
S'--'
p130
sg38
S'--'
p131
ssS'17'
p132
(dp133
g5
S'7.0'
p134
sg7
S'--'
p135
sg9
g10
sg11
S'--'
p136
sg13
g14
sg15
g10
sg16
S'2015'
p137
sg18
S'17'
p138
sg20
S'1.0'
p139
sg22
S'01/03'
p140
sg24
g10
sg25
S'Andre Ellington'
p141
sg27
g28
sg29
S'L6-36'
p142
sg31
S'7'
p143
sg33
g14
sg34
S'SEA'
p144
sg36
g143
sg37
g28
sg38
g51
ssS'16'
p145
(dp146
g5
S'5.0'
p147
sg7
S'--'
p148
sg9
g10
sg11
S'--'
p149
sg13
g14
sg15
g10
sg16
S'2015'
p150
sg18
S'16'
p151
sg20
S'5.7'
p152
sg22
S'12/27'
p153
sg24
g10
sg25
S'Andre Ellington'
p154
sg27
g143
sg29
S'W38-8'
p155
sg31
g32
sg33
g14
sg34
S'GB'
p156
sg36
g32
sg37
S'40'
p157
sg38
S'16'
p158
ssg14
(dp159
g5
S'7.0'
p160
sg7
g14
sg9
g14
sg11
g14
sg13
g14
sg15
g10
sg16
S'2015'
p161
sg18
g14
sg20
S'5.8'
p162
sg22
S'09/13'
p163
sg24
g14
sg25
S'Andre Ellington'
p164
sg27
S'12'
p165
sg29
S'W31-19'
p166
sg31
g143
sg33
g14
sg34
S'NO'
p167
sg36
g143
sg37
S'69'
p168
sg38
S'18'
p169
ssg51
(dp170
g5
S'--'
p171
sg7
S'--'
p172
sg9
g10
sg11
S'--'
p173
sg13
g10
sg15
S'--'
p174
sg16
S'2015'
p175
sg18
g51
sg20
S'--'
p176
sg22
S'09/27'
p177
sg24
S'--'
p178
sg25
S'Andre Ellington'
p179
sg27
S'--'
p180
sg29
S'W47-7'
p181
sg31
S'--'
p182
sg33
S'--'
p183
sg34
S'SF'
p184
sg36
S'--'
p185
sg37
S'--'
p186
sg38
S'--'
p187
ssg28
(dp188
g5
S'--'
p189
sg7
S'--'
p190
sg9
g10
sg11
S'--'
p191
sg13
g10
sg15
S'--'
p192
sg16
S'2015'
p193
sg18
g28
sg20
S'--'
p194
sg22
S'09/20'
p195
sg24
S'--'
p196
sg25
S'Andre Ellington'
p197
sg27
S'--'
p198
sg29
S'W48-23'
p199
sg31
S'--'
p200
sg33
S'--'
p201
sg34
S'@CHI'
p202
sg36
S'--'
p203
sg37
S'--'
p204
sg38
S'--'
p205
ssg32
(dp206
g5
S'--'
p207
sg7
S'--'
p208
sg9
g10
sg11
S'--'
p209
sg13
g14
sg15
S'--'
p210
sg16
S'2015'
p211
sg18
g32
sg20
S'21.0'
p212
sg22
S'10/11'
p213
sg24
g14
sg25
S'Andre Ellington'
p214
sg27
g51
sg29
S'W42-17'
p215
sg31
S'--'
p216
sg33
S'--'
p217
sg34
S'@DET'
p218
sg36
S'--'
p219
sg37
S'63'
p220
sg38
S'63T'
p221
ssS'4'
p222
(dp223
g5
S'--'
p224
sg7
S'--'
p225
sg9
g10
sg11
S'--'
p226
sg13
g10
sg15
S'--'
p227
sg16
S'2015'
p228
sg18
g222
sg20
S'--'
p229
sg22
S'10/04'
p230
sg24
S'--'
p231
sg25
S'Andre Ellington'
p232
sg27
S'--'
p233
sg29
S'L22-24'
p234
sg31
S'--'
p235
sg33
S'--'
p236
sg34
S'STL'
p237
sg36
S'--'
p238
sg37
S'--'
p239
sg38
S'--'
p240
ssg143
(dp241
g5
S'9.3'
p242
sg7
S'--'
p243
sg9
g10
sg11
S'--'
p244
sg13
g14
sg15
g10
sg16
S'2015'
p245
sg18
g143
sg20
S'4.2'
p246
sg22
S'10/26'
p247
sg24
g10
sg25
S'Andre Ellington'
p248
sg27
g32
sg29
S'W26-18'
p249
sg31
S'28'
p250
sg33
g51
sg34
S'BAL'
p251
sg36
S'11'
p252
sg37
S'21'
p253
sg38
S'6'
p254
ssg254
(dp255
g5
S'23.5'
p256
sg7
S'--'
p257
sg9
g14
sg11
S'--'
p258
sg13
g14
sg15
g10
sg16
S'2015'
p259
sg18
g254
sg20
S'7.0'
p260
sg22
S'10/18'
p261
sg24
g10
sg25
S'Andre Ellington'
p262
sg27
g14
sg29
S'L13-25'
p263
sg31
S'47'
p264
sg33
g28
sg34
S'@PIT'
p265
sg36
S'32'
p266
sg37
g143
sg38
g143
ssg89
(dp267
g5
S''
p268
sg7
g268
sg9
g268
sg11
g268
sg13
g268
sg15
g268
sg16
S'2015'
p269
sg18
g89
sg20
g268
sg22
S'Bye'
p270
sg24
g268
sg25
S'Andre Ellington'
p271
sg27
g268
sg29
g268
sg31
g268
sg33
g268
sg34
g268
sg36
g268
sg37
g268
sg38
g268
ssS'8'
p272
(dp273
g5
S'--'
p274
sg7
S'--'
p275
sg9
g10
sg11
S'--'
p276
sg13
g14
sg15
g10
sg16
S'2015'
p277
sg18
g272
sg20
S'0.0'
p278
sg22
S'11/01'
p279
sg24
g10
sg25
S'Andre Ellington'
p280
sg27
g51
sg29
S'W34-20'
p281
sg31
g10
sg33
g10
sg34
S'@CLE'
p282
sg36
S'--'
p283
sg37
g10
sg38
g51
sssS'2014'
p284
(dp285
g3
(dp286
g5
S'6.0'
p287
sg7
S'--'
p288
sg9
g14
sg11
S'--'
p289
sg13
g14
sg15
g10
sg16
S'2014'
p290
sg18
S'11'
p291
sg20
S'2.2'
p292
sg22
S'11/16'
p293
sg24
g10
sg25
S'Andre Ellington'
p294
sg27
S'19'
p295
sg29
S'W14-6'
p296
sg31
S'24'
p297
sg33
g222
sg34
S'DET'
p298
sg36
S'24'
p299
sg37
S'42'
p300
sg38
S'17'
p301
ssg39
(dp302
g5
S'3.8'
p303
sg7
S'--'
p304
sg9
g14
sg11
S'--'
p305
sg13
g14
sg15
g10
sg16
S'2014'
p306
sg18
S'10'
p307
sg20
S'1.3'
p308
sg22
S'11/09'
p309
sg24
g14
sg25
S'Andre Ellington'
p310
sg27
S'18'
p311
sg29
S'W31-14'
p312
sg31
S'19'
p313
sg33
g32
sg34
S'STL'
p314
sg36
S'11'
p315
sg37
S'23'
p316
sg38
g32
ssg56
(dp317
g5
S'--'
p318
sg7
S'--'
p319
sg9
g14
sg11
S'--'
p320
sg13
g14
sg15
S'--'
p321
sg16
S'2014'
p322
sg18
S'13'
p323
sg20
S'2.4'
p324
sg22
S'11/30'
p325
sg24
g10
sg25
S'Andre Ellington'
p326
sg27
g32
sg29
S'L18-29'
p327
sg31
S'--'
p328
sg33
S'--'
p329
sg34
S'@ATL'
p330
sg36
S'--'
p331
sg37
S'12'
p332
sg38
g143
ssg76
(dp333
g5
S'7.8'
p334
sg7
S'--'
p335
sg9
g14
sg11
S'--'
p336
sg13
g14
sg15
g10
sg16
S'2014'
p337
sg18
S'12'
p338
sg20
S'2.4'
p339
sg22
S'11/23'
p340
sg24
g10
sg25
S'Andre Ellington'
p341
sg27
S'10'
p342
sg29
S'L3-19'
p343
sg31
S'39'
p344
sg33
g32
sg34
S'@SEA'
p345
sg36
S'15'
p346
sg37
S'24'
p347
sg38
g143
ssg112
(dp348
g5
S'--'
p349
sg7
S'--'
p350
sg9
g10
sg11
S'--'
p351
sg13
g10
sg15
S'--'
p352
sg16
S'2014'
p353
sg18
S'14'
p354
sg20
S'--'
p355
sg22
S'12/07'
p356
sg24
S'--'
p357
sg25
S'Andre Ellington'
p358
sg27
S'--'
p359
sg29
S'W17-14'
p360
sg31
S'--'
p361
sg33
S'--'
p362
sg34
S'KC'
p363
sg36
S'--'
p364
sg37
S'--'
p365
sg38
S'--'
p366
ssg14
(dp367
g5
S'5.4'
p368
sg7
g14
sg9
g14
sg11
g14
sg13
g14
sg15
g10
sg16
S'2014'
p369
sg18
g14
sg20
S'4.1'
p370
sg22
S'09/08'
p371
sg24
g10
sg25
S'Andre Ellington'
p372
sg27
S'13'
p373
sg29
S'W18-17'
p374
sg31
S'27'
p375
sg33
g32
sg34
S'SD'
p376
sg36
S'11'
p377
sg37
S'53'
p378
sg38
S'18'
p379
ssg51
(dp380
g5
S'4.3'
p381
sg7
S'--'
p382
sg9
g14
sg11
S'--'
p383
sg13
g14
sg15
g10
sg16
S'2014'
p384
sg18
g51
sg20
S'3.4'
p385
sg22
S'09/21'
p386
sg24
g10
sg25
S'Andre Ellington'
p387
sg27
S'18'
p388
sg29
S'W23-14'
p389
sg31
S'13'
p390
sg33
g51
sg34
S'SF'
p391
sg36
g143
sg37
S'62'
p392
sg38
S'20'
p393
ssg28
(dp394
g5
S'10.0'
p395
sg7
S'--'
p396
sg9
g14
sg11
S'--'
p397
sg13
g14
sg15
g10
sg16
S'2014'
p398
sg18
g28
sg20
S'6.1'
p399
sg22
S'09/14'
p400
sg24
g10
sg25
S'Andre Ellington'
p401
sg27
S'15'
p402
sg29
S'W25-14'
p403
sg31
S'10'
p404
sg33
g14
sg34
S'@NYG'
p405
sg36
S'10'
p406
sg37
S'91'
p407
sg38
S'22'
p408
ssg32
(dp409
g5
S'28.0'
p410
sg7
S'--'
p411
sg9
g14
sg11
S'--'
p412
sg13
g14
sg15
g14
sg16
S'2014'
p413
sg18
g32
sg20
S'2.0'
p414
sg22
S'10/05'
p415
sg24
g14
sg25
S'Andre Ellington'
p416
sg27
S'16'
p417
sg29
S'L20-41'
p418
sg31
S'112'
p419
sg33
g222
sg34
S'@DEN'
p420
sg36
S'81T'
p421
sg37
S'32'
p422
sg38
g254
ssg222
(dp423
g5
g268
sg7
g268
sg9
g268
sg11
g268
sg13
g268
sg15
g268
sg16
S'2014'
p424
sg18
g222
sg20
g268
sg22
S'Bye'
p425
sg24
g268
sg25
S'Andre Ellington'
p426
sg27
g268
sg29
g268
sg31
g268
sg33
g268
sg34
g268
sg36
g268
sg37
g268
sg38
g268
ssg143
(dp427
g5
S'12.0'
p428
sg7
S'--'
p429
sg9
g14
sg11
S'--'
p430
sg13
g14
sg15
g10
sg16
S'2014'
p431
sg18
g143
sg20
S'3.7'
p432
sg22
S'10/19'
p433
sg24
g10
sg25
S'Andre Ellington'
p434
sg27
S'24'
p435
sg29
S'W24-13'
p436
sg31
S'72'
p437
sg33
g254
sg34
S'@OAK'
p438
sg36
S'37'
p439
sg37
S'88'
p440
sg38
S'13'
p441
ssg254
(dp442
g5
S'4.3'
p443
sg7
S'--'
p444
sg9
g14
sg11
S'--'
p445
sg13
g14
sg15
g10
sg16
S'2014'
p446
sg18
g254
sg20
S'3.5'
p447
sg22
S'10/12'
p448
sg24
g10
sg25
S'Andre Ellington'
p449
sg27
S'19'
p450
sg29
S'W30-20'
p451
sg31
S'26'
p452
sg33
g254
sg34
S'WAS'
p453
sg36
S'10'
p454
sg37
S'67'
p455
sg38
S'18'
p456
ssg89
(dp457
g5
S'9.8'
p458
sg7
S'--'
p459
sg9
g14
sg11
S'--'
p460
sg13
g14
sg15
g14
sg16
S'2014'
p461
sg18
g89
sg20
S'4.5'
p462
sg22
S'11/02'
p463
sg24
g10
sg25
S'Andre Ellington'
p464
sg27
S'21'
p465
sg29
S'W28-17'
p466
sg31
S'39'
p467
sg33
g222
sg34
S'@DAL'
p468
sg36
S'20'
p469
sg37
S'95'
p470
sg38
S'20'
p471
ssg272
(dp472
g5
S'4.7'
p473
sg7
g14
sg9
g14
sg11
g14
sg13
g14
sg15
g10
sg16
S'2014'
p474
sg18
g272
sg20
S'3.1'
p475
sg22
S'10/26'
p476
sg24
g14
sg25
S'Andre Ellington'
p477
sg27
S'23'
p478
sg29
S'W24-20'
p479
sg31
S'14'
p480
sg33
g51
sg34
S'PHI'
p481
sg36
g143
sg37
S'71'
p482
sg38
S'21'
p483
sssS'2013'
p484
(dp485
g3
(dp486
g5
S'5.0'
p487
sg7
S'--'
p488
sg9
g10
sg11
S'--'
p489
sg13
g14
sg15
g10
sg16
S'2013'
p490
sg18
S'11'
p491
sg20
S'0.3'
p492
sg22
S'11/17'
p493
sg24
g10
sg25
S'Andre Ellington'
p494
sg27
g89
sg29
S'W27-14'
p495
sg31
S'10'
p496
sg33
g28
sg34
S'@JAC'
p497
sg36
S'11'
p498
sg37
g51
sg38
g32
ssg39
(dp499
g5
S'9.0'
p500
sg7
S'--'
p501
sg9
g10
sg11
S'--'
p502
sg13
g14
sg15
g10
sg16
S'2013'
p503
sg18
S'10'
p504
sg20
S'5.0'
p505
sg22
S'11/10'
p506
sg24
g10
sg25
S'Andre Ellington'
p507
sg27
S'11'
p508
sg29
S'W27-24'
p509
sg31
S'18'
p510
sg33
g28
sg34
S'HOU'
p511
sg36
S'12'
p512
sg37
S'55'
p513
sg38
S'23'
p514
ssg56
(dp515
g5
S'--'
p516
sg7
S'--'
p517
sg9
g10
sg11
S'--'
p518
sg13
g10
sg15
S'--'
p519
sg16
S'2013'
p520
sg18
S'13'
p521
sg20
S'--'
p522
sg22
S'12/01'
p523
sg24
S'--'
p524
sg25
S'Andre Ellington'
p525
sg27
S'--'
p526
sg29
S'L21-24'
p527
sg31
S'--'
p528
sg33
S'--'
p529
sg34
S'@PHI'
p530
sg36
S'--'
p531
sg37
S'--'
p532
sg38
S'--'
p533
ssg76
(dp534
g5
S'10.5'
p535
sg7
S'--'
p536
sg9
g10
sg11
S'--'
p537
sg13
g14
sg15
g10
sg16
S'2013'
p538
sg18
S'12'
p539
sg20
S'5.0'
p540
sg22
S'11/24'
p541
sg24
g10
sg25
S'Andre Ellington'
p542
sg27
S'10'
p543
sg29
S'W40-11'
p544
sg31
S'21'
p545
sg33
g28
sg34
S'IND'
p546
sg36
S'13'
p547
sg37
S'50'
p548
sg38
S'17'
p549
ssg92
(dp550
g5
S'21.8'
p551
sg7
S'--'
p552
sg9
g10
sg11
S'--'
p553
sg13
g14
sg15
g10
sg16
S'2013'
p554
sg18
S'15'
p555
sg20
S'7.1'
p556
sg22
S'12/15'
p557
sg24
g10
sg25
S'Andre Ellington'
p558
sg27
S'10'
p559
sg29
S'W37-34'
p560
sg31
S'87'
p561
sg33
g222
sg34
S'@TEN'
p562
sg36
S'38'
p563
sg37
S'71'
p564
sg38
S'22'
p565
ssg112
(dp566
g5
S'8.5'
p567
sg7
S'--'
p568
sg9
g10
sg11
S'--'
p569
sg13
g14
sg15
g10
sg16
S'2013'
p570
sg18
S'14'
p571
sg20
S'4.2'
p572
sg22
S'12/08'
p573
sg24
g14
sg25
S'Andre Ellington'
p574
sg27
S'11'
p575
sg29
S'W30-10'
p576
sg31
S'17'
p577
sg33
g28
sg34
S'STL'
p578
sg36
g89
sg37
S'46'
p579
sg38
S'21'
p580
ssg132
(dp581
g5
S'4.0'
p582
sg7
S'--'
p583
sg9
g10
sg11
S'--'
p584
sg13
g14
sg15
g10
sg16
S'2013'
p585
sg18
S'17'
p586
sg20
S'3.3'
p587
sg22
S'12/29'
p588
sg24
g10
sg25
S'Andre Ellington'
p589
sg27
g89
sg29
S'L20-23'
p590
sg31
S'12'
p591
sg33
g51
sg34
S'SF'
p592
sg36
g272
sg37
S'30'
p593
sg38
g32
ssg145
(dp594
g5
S'4.0'
p595
sg7
S'--'
p596
sg9
g10
sg11
S'--'
p597
sg13
g14
sg15
g10
sg16
S'2013'
p598
sg18
S'16'
p599
sg20
S'4.3'
p600
sg22
S'12/22'
p601
sg24
g10
sg25
S'Andre Ellington'
p602
sg27
S'15'
p603
sg29
S'W17-10'
p604
sg31
g272
sg33
g28
sg34
S'@SEA'
p605
sg36
g222
sg37
S'64'
p606
sg38
S'26'
p607
ssg14
(dp608
g5
S'13.0'
p609
sg7
S'--'
p610
sg9
g10
sg11
S'--'
p611
sg13
g14
sg15
g10
sg16
S'2013'
p612
sg18
g14
sg20
S'--'
p613
sg22
S'09/08'
p614
sg24
S'--'
p615
sg25
S'Andre Ellington'
p616
sg27
S'--'
p617
sg29
S'L24-27'
p618
sg31
S'13'
p619
sg33
g14
sg34
S'@STL'
p620
sg36
S'13'
p621
sg37
S'--'
p622
sg38
S'--'
p623
ssg51
(dp624
g5
S'12.0'
p625
sg7
S'--'
p626
sg9
g10
sg11
S'--'
p627
sg13
g14
sg15
g10
sg16
S'2013'
p628
sg18
g51
sg20
S'6.3'
p629
sg22
S'09/22'
p630
sg24
g10
sg25
S'Andre Ellington'
p631
sg27
g51
sg29
S'L7-31'
p632
sg31
S'36'
p633
sg33
g51
sg34
S'@NO'
p634
sg36
S'17'
p635
sg37
S'19'
p636
sg38
S'14'
p637
ssg28
(dp638
g5
S'21.0'
p639
sg7
S'--'
p640
sg9
g10
sg11
S'--'
p641
sg13
g14
sg15
g14
sg16
S'2013'
p642
sg18
g28
sg20
S'5.0'
p643
sg22
S'09/15'
p644
sg24
g10
sg25
S'Andre Ellington'
p645
sg27
g222
sg29
S'W25-21'
p646
sg31
S'42'
p647
sg33
g28
sg34
S'DET'
p648
sg36
S'36T'
p649
sg37
S'20'
p650
sg38
S'16'
p651
ssg32
(dp652
g5
S'7.8'
p653
sg7
S'--'
p654
sg9
g10
sg11
S'--'
p655
sg13
g14
sg15
g10
sg16
S'2013'
p656
sg18
g32
sg20
S'7.4'
p657
sg22
S'10/06'
p658
sg24
g10
sg25
S'Andre Ellington'
p659
sg27
g143
sg29
S'W22-6'
p660
sg31
S'31'
p661
sg33
g222
sg34
S'CAR'
p662
sg36
S'15'
p663
sg37
S'52'
p664
sg38
S'26'
p665
ssg222
(dp666
g5
S'7.3'
p667
sg7
S'--'
p668
sg9
g10
sg11
S'--'
p669
sg13
g14
sg15
g10
sg16
S'2013'
p670
sg18
g222
sg20
S'7.3'
p671
sg22
S'09/29'
p672
sg24
g10
sg25
S'Andre Ellington'
p673
sg27
g222
sg29
S'W13-10'
p674
sg31
S'22'
p675
sg33
g51
sg34
S'@TB'
p676
sg36
S'11'
p677
sg37
S'29'
p678
sg38
S'25'
p679
ssg143
(dp680
g5
S'5.0'
p681
sg7
S'--'
p682
sg9
g10
sg11
S'--'
p683
sg13
g14
sg15
g10
sg16
S'2013'
p684
sg18
g143
sg20
S'1.0'
p685
sg22
S'10/17'
p686
sg24
g10
sg25
S'Andre Ellington'
p687
sg27
g51
sg29
S'L22-34'
p688
sg31
S'10'
p689
sg33
g28
sg34
S'SEA'
p690
sg36
g32
sg37
g51
sg38
g51
ssg254
(dp691
g5
S'7.2'
p692
sg7
S'--'
p693
sg9
g10
sg11
S'--'
p694
sg13
g14
sg15
g10
sg16
S'2013'
p695
sg18
g254
sg20
S'8.0'
p696
sg22
S'10/13'
p697
sg24
g14
sg25
S'Andre Ellington'
p698
sg27
g143
sg29
S'L20-32'
p699
sg31
S'36'
p700
sg33
g32
sg34
S'@SF'
p701
sg36
S'12'
p702
sg37
S'56'
p703
sg38
S'15T'
p704
ssg89
(dp705
g5
g268
sg7
g268
sg9
g268
sg11
g268
sg13
g268
sg15
g268
sg16
S'2013'
p706
sg18
g89
sg20
g268
sg22
S'Bye'
p707
sg24
g268
sg25
S'Andre Ellington'
p708
sg27
g268
sg29
g268
sg31
g268
sg33
g268
sg34
g268
sg36
g268
sg37
g268
sg38
g268
ssg272
(dp709
g5
S'4.0'
p710
sg7
g14
sg9
g14
sg11
g10
sg13
g14
sg15
g10
sg16
S'2013'
p711
sg18
g272
sg20
S'10.3'
p712
sg22
S'10/27'
p713
sg24
g14
sg25
S'Andre Ellington'
p714
sg27
S'15'
p715
sg29
S'W27-13'
p716
sg31
g272
sg33
g28
sg34
S'ATL'
p717
sg36
g254
sg37
S'154'
p718
sg38
S'80T'
p719
sss.