(dp0
S'2015'
p1
(dp2
S'11'
p3
(dp4
S'RecAvg'
p5
S''
p6
sS'FUM'
p7
g6
sS'GS'
p8
g6
sS'Lost'
p9
g6
sS'G'
p10
g6
sS'RecTD'
p11
g6
sS'Year'
p12
S'2015'
p13
sS'WK'
p14
S'11'
p15
sS'RushAvg'
p16
g6
sS'Game Date'
p17
S'Bye'
p18
sS'RushTD'
p19
g6
sS'Player'
p20
S'Andre Williams'
p21
sS'RushAtt'
p22
g6
sS'Result'
p23
g6
sS'RecYds'
p24
g6
sS'Rec'
p25
g6
sS'Opp'
p26
g6
sS'RecLng'
p27
g6
sS'RushYds'
p28
g6
sS'RushLng'
p29
g6
ssS'10'
p30
(dp31
g5
S'--'
p32
sg7
S'--'
p33
sg8
S'0'
p34
sg9
S'--'
p35
sg10
S'1'
p36
sg11
S'--'
p37
sg12
S'2015'
p38
sg14
S'10'
p39
sg16
S'1.0'
p40
sg17
S'11/15'
p41
sg19
g34
sg20
S'Andre Williams'
p42
sg22
S'2'
p43
sg23
S'L26-27'
p44
sg24
S'--'
p45
sg25
S'--'
p46
sg26
S'NE'
p47
sg27
S'--'
p48
sg28
g43
sg29
S'3'
p49
ssS'13'
p50
(dp51
g5
S'--'
p52
sg7
S'--'
p53
sg8
g34
sg9
S'--'
p54
sg10
g36
sg11
g34
sg12
S'2015'
p55
sg14
S'13'
p56
sg16
S'3.7'
p57
sg17
S'12/06'
p58
sg19
g34
sg20
S'Andre Williams'
p59
sg22
S'6'
p60
sg23
S'L20-23'
p61
sg24
g34
sg25
g34
sg26
S'NYJ'
p62
sg27
S'--'
p63
sg28
S'22'
p64
sg29
S'13'
p65
ssS'12'
p66
(dp67
g5
S'--'
p68
sg7
S'--'
p69
sg8
g34
sg9
S'--'
p70
sg10
g36
sg11
S'--'
p71
sg12
S'2015'
p72
sg14
S'12'
p73
sg16
S'0.5'
p74
sg17
S'11/29'
p75
sg19
g34
sg20
S'Andre Williams'
p76
sg22
g43
sg23
S'L14-20'
p77
sg24
S'--'
p78
sg25
S'--'
p79
sg26
S'@WAS'
p80
sg27
S'--'
p81
sg28
g36
sg29
g43
ssS'15'
p82
(dp83
g5
S'--'
p84
sg7
S'--'
p85
sg8
g34
sg9
S'--'
p86
sg10
g36
sg11
S'--'
p87
sg12
S'2015'
p88
sg14
S'15'
p89
sg16
S'3.5'
p90
sg17
S'12/20'
p91
sg19
g34
sg20
S'Andre Williams'
p92
sg22
g60
sg23
S'L35-38'
p93
sg24
S'--'
p94
sg25
S'--'
p95
sg26
S'CAR'
p96
sg27
S'--'
p97
sg28
S'21'
p98
sg29
S'10'
p99
ssS'14'
p100
(dp101
g5
S'--'
p102
sg7
S'--'
p103
sg8
g34
sg9
S'--'
p104
sg10
g36
sg11
S'--'
p105
sg12
S'2015'
p106
sg14
S'14'
p107
sg16
S'1.0'
p108
sg17
S'12/14'
p109
sg19
g34
sg20
S'Andre Williams'
p110
sg22
g49
sg23
S'W31-24'
p111
sg24
S'--'
p112
sg25
S'--'
p113
sg26
S'@MIA'
p114
sg27
S'--'
p115
sg28
g49
sg29
S'5'
p116
ssS'17'
p117
(dp118
g5
S'--'
p119
sg7
S'--'
p120
sg8
g34
sg9
S'--'
p121
sg10
g36
sg11
S'--'
p122
sg12
S'2015'
p123
sg14
S'17'
p124
sg16
S'5.2'
p125
sg17
S'01/03'
p126
sg19
g34
sg20
S'Andre Williams'
p127
sg22
g116
sg23
S'L30-35'
p128
sg24
S'--'
p129
sg25
S'--'
p130
sg26
S'PHI'
p131
sg27
S'--'
p132
sg28
S'26'
p133
sg29
S'9'
p134
ssS'16'
p135
(dp136
g5
S'--'
p137
sg7
S'--'
p138
sg8
g34
sg9
S'--'
p139
sg10
g36
sg11
S'--'
p140
sg12
S'2015'
p141
sg14
S'16'
p142
sg16
S'1.7'
p143
sg17
S'12/27'
p144
sg19
g34
sg20
S'Andre Williams'
p145
sg22
g49
sg23
S'L17-49'
p146
sg24
S'--'
p147
sg25
S'--'
p148
sg26
S'@MIN'
p149
sg27
S'--'
p150
sg28
g116
sg29
g49
ssg36
(dp151
g5
S'--'
p152
sg7
S'--'
p153
sg8
g34
sg9
S'--'
p154
sg10
g36
sg11
S'--'
p155
sg12
S'2015'
p156
sg14
g36
sg16
S'2.3'
p157
sg17
S'09/13'
p158
sg19
g34
sg20
S'Andre Williams'
p159
sg22
g60
sg23
S'L26-27'
p160
sg24
S'--'
p161
sg25
S'--'
p162
sg26
S'@DAL'
p163
sg27
S'--'
p164
sg28
S'14'
p165
sg29
g116
ssg49
(dp166
g5
S'--'
p167
sg7
S'--'
p168
sg8
g34
sg9
S'--'
p169
sg10
g36
sg11
S'--'
p170
sg12
S'2015'
p171
sg14
g49
sg16
S'2.1'
p172
sg17
S'09/24'
p173
sg19
g36
sg20
S'Andre Williams'
p174
sg22
S'14'
p175
sg23
S'W32-21'
p176
sg24
S'--'
p177
sg25
S'--'
p178
sg26
S'WAS'
p179
sg27
S'--'
p180
sg28
S'29'
p181
sg29
S'11'
p182
ssg43
(dp183
g5
S'--'
p184
sg7
S'--'
p185
sg8
g34
sg9
S'--'
p186
sg10
g36
sg11
S'--'
p187
sg12
S'2015'
p188
sg14
g43
sg16
S'7.2'
p189
sg17
S'09/20'
p190
sg19
g34
sg20
S'Andre Williams'
p191
sg22
g60
sg23
S'L20-24'
p192
sg24
S'--'
p193
sg25
S'--'
p194
sg26
S'ATL'
p195
sg27
S'--'
p196
sg28
S'43'
p197
sg29
S'35'
p198
ssg116
(dp199
g5
S'--'
p200
sg7
S'--'
p201
sg8
g34
sg9
S'--'
p202
sg10
g36
sg11
S'--'
p203
sg12
S'2015'
p204
sg14
g116
sg16
S'0.0'
p205
sg17
S'10/11'
p206
sg19
g34
sg20
S'Andre Williams'
p207
sg22
g49
sg23
S'W30-27'
p208
sg24
S'--'
p209
sg25
S'--'
p210
sg26
S'SF'
p211
sg27
S'--'
p212
sg28
g34
sg29
g43
ssS'4'
p213
(dp214
g5
S'--'
p215
sg7
S'--'
p216
sg8
g34
sg9
S'--'
p217
sg10
g36
sg11
g34
sg12
S'2015'
p218
sg14
g213
sg16
S'3.2'
p219
sg17
S'10/04'
p220
sg19
g34
sg20
S'Andre Williams'
p221
sg22
S'11'
p222
sg23
S'W24-10'
p223
sg24
g34
sg25
g34
sg26
S'@BUF'
p224
sg27
S'--'
p225
sg28
S'35'
p226
sg29
g134
ssS'7'
p227
(dp228
g5
S'--'
p229
sg7
S'--'
p230
sg8
g34
sg9
S'--'
p231
sg10
g36
sg11
S'--'
p232
sg12
S'2015'
p233
sg14
g227
sg16
S'3.3'
p234
sg17
S'10/25'
p235
sg19
g34
sg20
S'Andre Williams'
p236
sg22
g213
sg23
S'W27-20'
p237
sg24
S'--'
p238
sg25
S'--'
p239
sg26
S'DAL'
p240
sg27
S'--'
p241
sg28
S'13'
p242
sg29
g116
ssg60
(dp243
g5
S'--'
p244
sg7
S'--'
p245
sg8
g34
sg9
S'--'
p246
sg10
g36
sg11
S'--'
p247
sg12
S'2015'
p248
sg14
g60
sg16
S'1.2'
p249
sg17
S'10/19'
p250
sg19
g34
sg20
S'Andre Williams'
p251
sg22
g116
sg23
S'L7-27'
p252
sg24
S'--'
p253
sg25
S'--'
p254
sg26
S'@PHI'
p255
sg27
S'--'
p256
sg28
g60
sg29
g49
ssg134
(dp257
g5
S'7.0'
p258
sg7
S'--'
p259
sg8
g34
sg9
S'--'
p260
sg10
g36
sg11
g34
sg12
S'2015'
p261
sg14
g134
sg16
S'4.3'
p262
sg17
S'11/08'
p263
sg19
g34
sg20
S'Andre Williams'
p264
sg22
g227
sg23
S'W32-18'
p265
sg24
g227
sg25
g36
sg26
S'@TB'
p266
sg27
g227
sg28
S'30'
p267
sg29
S'11'
p268
ssS'8'
p269
(dp270
g5
S'--'
p271
sg7
S'--'
p272
sg8
g34
sg9
S'--'
p273
sg10
g36
sg11
S'--'
p274
sg12
S'2015'
p275
sg14
g269
sg16
S'1.4'
p276
sg17
S'11/01'
p277
sg19
g34
sg20
S'Andre Williams'
p278
sg22
g116
sg23
S'L49-52'
p279
sg24
S'--'
p280
sg25
S'--'
p281
sg26
S'@NO'
p282
sg27
S'--'
p283
sg28
g227
sg29
g213
sssS'2014'
p284
(dp285
g3
(dp286
g5
S'4.0'
p287
sg7
S'--'
p288
sg8
g34
sg9
S'--'
p289
sg10
g36
sg11
g34
sg12
S'2014'
p290
sg14
S'11'
p291
sg16
S'1.0'
p292
sg17
S'11/16'
p293
sg19
g34
sg20
S'Andre Williams'
p294
sg22
g43
sg23
S'L10-16'
p295
sg24
g213
sg25
g36
sg26
S'SF'
p296
sg27
g213
sg28
g43
sg29
g116
ssg30
(dp297
g5
S'2.5'
p298
sg7
S'--'
p299
sg8
g36
sg9
S'--'
p300
sg10
g36
sg11
g34
sg12
S'2014'
p301
sg14
S'10'
p302
sg16
S'2.5'
p303
sg17
S'11/09'
p304
sg19
g36
sg20
S'Andre Williams'
p305
sg22
S'13'
p306
sg23
S'L17-38'
p307
sg24
g116
sg25
g43
sg26
S'@SEA'
p308
sg27
g116
sg28
S'33'
p309
sg29
g227
ssg50
(dp310
g5
S'8.0'
p311
sg7
S'--'
p312
sg8
g34
sg9
S'--'
p313
sg10
g36
sg11
g34
sg12
S'2014'
p314
sg14
S'13'
p315
sg16
S'2.6'
p316
sg17
S'11/30'
p317
sg19
g34
sg20
S'Andre Williams'
p318
sg22
g269
sg23
S'L24-25'
p319
sg24
S'16'
p320
sg25
g43
sg26
S'@JAC'
p321
sg27
S'18'
p322
sg28
S'21'
p323
sg29
S'11'
p324
ssg66
(dp325
g5
S'12.0'
p326
sg7
S'--'
p327
sg8
g34
sg9
S'--'
p328
sg10
g36
sg11
g34
sg12
S'2014'
p329
sg14
S'12'
p330
sg16
S'3.5'
p331
sg17
S'11/23'
p332
sg19
g36
sg20
S'Andre Williams'
p333
sg22
S'10'
p334
sg23
S'L28-31'
p335
sg24
S'12'
p336
sg25
g36
sg26
S'DAL'
p337
sg27
S'12'
p338
sg28
S'35'
p339
sg29
S'18'
p340
ssg82
(dp341
g5
S'9.0'
p342
sg7
S'--'
p343
sg8
g34
sg9
S'--'
p344
sg10
g36
sg11
g34
sg12
S'2014'
p345
sg14
S'15'
p346
sg16
S'2.4'
p347
sg17
S'12/14'
p348
sg19
g34
sg20
S'Andre Williams'
p349
sg22
S'18'
p350
sg23
S'W24-13'
p351
sg24
g134
sg25
g36
sg26
S'WAS'
p352
sg27
g134
sg28
S'44'
p353
sg29
g60
ssg100
(dp354
g5
S'5.3'
p355
sg7
S'--'
p356
sg8
g36
sg9
S'--'
p357
sg10
g36
sg11
g34
sg12
S'2014'
p358
sg14
S'14'
p359
sg16
S'5.5'
p360
sg17
S'12/07'
p361
sg19
g36
sg20
S'Andre Williams'
p362
sg22
S'24'
p363
sg23
S'W36-7'
p364
sg24
S'16'
p365
sg25
g49
sg26
S'@TEN'
p366
sg27
g269
sg28
S'131'
p367
sg29
S'50T'
p368
ssg117
(dp369
g5
S'6.3'
p370
sg7
S'--'
p371
sg8
g36
sg9
S'--'
p372
sg10
g36
sg11
g34
sg12
S'2014'
p373
sg14
S'17'
p374
sg16
S'2.9'
p375
sg17
S'12/28'
p376
sg19
g36
sg20
S'Andre Williams'
p377
sg22
S'15'
p378
sg23
S'L26-34'
p379
sg24
S'19'
p380
sg25
g49
sg26
S'PHI'
p381
sg27
S'14'
p382
sg28
S'43'
p383
sg29
g134
ssg135
(dp384
g5
S'--'
p385
sg7
S'--'
p386
sg8
g36
sg9
S'--'
p387
sg10
g36
sg11
g34
sg12
S'2014'
p388
sg14
S'16'
p389
sg16
S'4.2'
p390
sg17
S'12/21'
p391
sg19
g34
sg20
S'Andre Williams'
p392
sg22
S'26'
p393
sg23
S'W37-27'
p394
sg24
g34
sg25
g34
sg26
S'@STL'
p395
sg27
S'--'
p396
sg28
S'110'
p397
sg29
S'45'
p398
ssg36
(dp399
g5
S'--'
p400
sg7
S'--'
p401
sg8
g34
sg9
S'--'
p402
sg10
g36
sg11
g34
sg12
S'2014'
p403
sg14
g36
sg16
S'1.8'
p404
sg17
S'09/08'
p405
sg19
g34
sg20
S'Andre Williams'
p406
sg22
g116
sg23
S'L14-35'
p407
sg24
g34
sg25
g34
sg26
S'@DET'
p408
sg27
S'--'
p409
sg28
g134
sg29
g116
ssg49
(dp410
g5
S'--'
p411
sg7
S'--'
p412
sg8
g34
sg9
S'--'
p413
sg10
g36
sg11
S'--'
p414
sg12
S'2014'
p415
sg14
g49
sg16
S'3.0'
p416
sg17
S'09/21'
p417
sg19
g34
sg20
S'Andre Williams'
p418
sg22
g60
sg23
S'W30-17'
p419
sg24
S'--'
p420
sg25
S'--'
p421
sg26
S'HOU'
p422
sg27
S'--'
p423
sg28
S'18'
p424
sg29
g116
ssg43
(dp425
g5
S'3.5'
p426
sg7
S'--'
p427
sg8
g34
sg9
S'--'
p428
sg10
g36
sg11
g34
sg12
S'2014'
p429
sg14
g43
sg16
S'1.5'
p430
sg17
S'09/14'
p431
sg19
g34
sg20
S'Andre Williams'
p432
sg22
g269
sg23
S'L14-25'
p433
sg24
g227
sg25
g43
sg26
S'ARI'
p434
sg27
g213
sg28
S'12'
p435
sg29
g116
ssg116
(dp436
g5
S'9.0'
p437
sg7
S'--'
p438
sg8
g34
sg9
S'--'
p439
sg10
g36
sg11
g34
sg12
S'2014'
p440
sg14
g116
sg16
S'3.3'
p441
sg17
S'10/05'
p442
sg19
g36
sg20
S'Andre Williams'
p443
sg22
S'20'
p444
sg23
S'W30-20'
p445
sg24
S'18'
p446
sg25
g43
sg26
S'ATL'
p447
sg27
S'14'
p448
sg28
S'65'
p449
sg29
S'11'
p450
ssg213
(dp451
g5
S'--'
p452
sg7
S'--'
p453
sg8
g34
sg9
S'--'
p454
sg10
g36
sg11
g34
sg12
S'2014'
p455
sg14
g213
sg16
S'4.4'
p456
sg17
S'09/25'
p457
sg19
g36
sg20
S'Andre Williams'
p458
sg22
S'15'
p459
sg23
S'W45-14'
p460
sg24
g34
sg25
g34
sg26
S'@WAS'
p461
sg27
S'--'
p462
sg28
S'66'
p463
sg29
S'23'
p464
ssg227
(dp465
g5
S'--'
p466
sg7
S'--'
p467
sg8
g36
sg9
S'--'
p468
sg10
g36
sg11
g34
sg12
S'2014'
p469
sg14
g227
sg16
S'2.8'
p470
sg17
S'10/19'
p471
sg19
g34
sg20
S'Andre Williams'
p472
sg22
S'18'
p473
sg23
S'L21-31'
p474
sg24
g34
sg25
g34
sg26
S'@DAL'
p475
sg27
S'--'
p476
sg28
S'51'
p477
sg29
S'22'
p478
ssg60
(dp479
g5
S'--'
p480
sg7
S'--'
p481
sg8
g36
sg9
S'--'
p482
sg10
g36
sg11
S'--'
p483
sg12
S'2014'
p484
sg14
g60
sg16
S'3.5'
p485
sg17
S'10/12'
p486
sg19
g34
sg20
S'Andre Williams'
p487
sg22
S'17'
p488
sg23
S'L0-27'
p489
sg24
S'--'
p490
sg25
S'--'
p491
sg26
S'@PHI'
p492
sg27
S'--'
p493
sg28
S'59'
p494
sg29
S'17'
p495
ssg134
(dp496
g5
S'24.0'
p497
sg7
g36
sg8
g36
sg9
g34
sg10
g36
sg11
g34
sg12
S'2014'
p498
sg14
g134
sg16
S'1.8'
p499
sg17
S'11/03'
p500
sg19
g36
sg20
S'Andre Williams'
p501
sg22
S'12'
p502
sg23
S'L24-40'
p503
sg24
S'24'
p504
sg25
g36
sg26
S'IND'
p505
sg27
S'24'
p506
sg28
S'22'
p507
sg29
g134
ssg269
(dp508
g5
g6
sg7
g6
sg8
g6
sg9
g6
sg10
g6
sg11
g6
sg12
S'2014'
p509
sg14
g269
sg16
g6
sg17
S'Bye'
p510
sg19
g6
sg20
S'Andre Williams'
p511
sg22
g6
sg23
g6
sg24
g6
sg25
g6
sg26
g6
sg27
g6
sg28
g6
sg29
g6
sss.