(dp0
S'2015'
p1
(dp2
S'11'
p3
(dp4
S'RecAvg'
p5
S'8.0'
p6
sS'FUM'
p7
S'--'
p8
sS'GS'
p9
S'1'
p10
sS'Lost'
p11
S'--'
p12
sS'G'
p13
g10
sS'RecTD'
p14
S'0'
p15
sS'Year'
p16
S'2015'
p17
sS'WK'
p18
S'11'
p19
sS'RushAvg'
p20
S'5.2'
p21
sS'Game Date'
p22
S'11/19'
p23
sS'RushTD'
p24
g15
sS'Player'
p25
S'Antonio Andrews'
p26
sS'RushAtt'
p27
S'15'
p28
sS'Result'
p29
S'L13-19'
p30
sS'RecYds'
p31
S'16'
p32
sS'Rec'
p33
S'2'
p34
sS'Opp'
p35
S'@JAC'
p36
sS'RecLng'
p37
S'13'
p38
sS'RushYds'
p39
S'78'
p40
sS'RushLng'
p41
S'26'
p42
ssS'10'
p43
(dp44
g5
S'--'
p45
sg7
S'--'
p46
sg9
g10
sg11
S'--'
p47
sg13
g10
sg14
S'--'
p48
sg16
S'2015'
p49
sg18
S'10'
p50
sg20
S'0.7'
p51
sg22
S'11/15'
p52
sg24
g15
sg25
S'Antonio Andrews'
p53
sg27
S'11'
p54
sg29
S'L10-27'
p55
sg31
S'--'
p56
sg33
S'--'
p57
sg35
S'CAR'
p58
sg37
S'--'
p59
sg39
S'8'
p60
sg41
S'6'
p61
ssS'13'
p62
(dp63
g5
S'10.0'
p64
sg7
S'--'
p65
sg9
g10
sg11
S'--'
p66
sg13
g10
sg14
g15
sg16
S'2015'
p67
sg18
S'13'
p68
sg20
S'4.5'
p69
sg22
S'12/06'
p70
sg24
g10
sg25
S'Antonio Andrews'
p71
sg27
S'13'
p72
sg29
S'W42-39'
p73
sg31
S'10'
p74
sg33
g10
sg35
S'JAC'
p75
sg37
S'10'
p76
sg39
S'58'
p77
sg41
S'22'
p78
ssS'12'
p79
(dp80
g5
S'14.0'
p81
sg7
S'--'
p82
sg9
g10
sg11
S'--'
p83
sg13
g10
sg14
g15
sg16
S'2015'
p84
sg18
S'12'
p85
sg20
S'2.9'
p86
sg22
S'11/29'
p87
sg24
g15
sg25
S'Antonio Andrews'
p88
sg27
S'11'
p89
sg29
S'L21-24'
p90
sg31
S'14'
p91
sg33
g10
sg35
S'OAK'
p92
sg37
S'14'
p93
sg39
S'32'
p94
sg41
S'11'
p95
ssS'15'
p96
(dp97
g5
S'5.0'
p98
sg7
S'--'
p99
sg9
g10
sg11
S'--'
p100
sg13
g10
sg14
g15
sg16
S'2015'
p101
sg18
S'15'
p102
sg20
S'3.2'
p103
sg22
S'12/20'
p104
sg24
g15
sg25
S'Antonio Andrews'
p105
sg27
S'14'
p106
sg29
S'L16-33'
p107
sg31
S'25'
p108
sg33
S'5'
p109
sg35
S'@NE'
p110
sg37
S'9'
p111
sg39
S'45'
p112
sg41
g60
ssS'14'
p113
(dp114
g5
S'6.0'
p115
sg7
S'--'
p116
sg9
g10
sg11
S'--'
p117
sg13
g10
sg14
g15
sg16
S'2015'
p118
sg18
S'14'
p119
sg20
S'2.0'
p120
sg22
S'12/13'
p121
sg24
g15
sg25
S'Antonio Andrews'
p122
sg27
S'4'
p123
sg29
S'L8-30'
p124
sg31
g61
sg33
g10
sg35
S'@NYJ'
p125
sg37
g61
sg39
g60
sg41
g123
ssS'17'
p126
(dp127
g5
S'1.5'
p128
sg7
S'--'
p129
sg9
g15
sg11
S'--'
p130
sg13
g10
sg14
g15
sg16
S'2015'
p131
sg18
S'17'
p132
sg20
S'--'
p133
sg22
S'01/03'
p134
sg24
S'--'
p135
sg25
S'Antonio Andrews'
p136
sg27
S'--'
p137
sg29
S'L24-30'
p138
sg31
S'3'
p139
sg33
g34
sg35
S'@IND'
p140
sg37
g61
sg39
S'--'
p141
sg41
S'--'
p142
ssS'16'
p143
(dp144
g5
S'--'
p145
sg7
g10
sg9
g10
sg11
g10
sg13
g10
sg14
g15
sg16
S'2015'
p146
sg18
S'16'
p147
sg20
S'0.5'
p148
sg22
S'12/27'
p149
sg24
g15
sg25
S'Antonio Andrews'
p150
sg27
g34
sg29
S'L6-34'
p151
sg31
g15
sg33
g15
sg35
S'HOU'
p152
sg37
S'--'
p153
sg39
g10
sg41
g10
ssg10
(dp154
g5
S'--'
p155
sg7
S'--'
p156
sg9
g15
sg11
S'--'
p157
sg13
g15
sg14
S'--'
p158
sg16
S'2015'
p159
sg18
g10
sg20
S'--'
p160
sg22
S'09/13'
p161
sg24
S'--'
p162
sg25
S'Antonio Andrews'
p163
sg27
S'--'
p164
sg29
S'W42-14'
p165
sg31
S'--'
p166
sg33
S'--'
p167
sg35
S'@TB'
p168
sg37
S'--'
p169
sg39
S'--'
p170
sg41
S'--'
p171
ssg139
(dp172
g5
S'12.0'
p173
sg7
S'--'
p174
sg9
g15
sg11
S'--'
p175
sg13
g10
sg14
g15
sg16
S'2015'
p176
sg18
g139
sg20
S'4.1'
p177
sg22
S'09/27'
p178
sg24
g10
sg25
S'Antonio Andrews'
p179
sg27
S'12'
p180
sg29
S'L33-35'
p181
sg31
S'12'
p182
sg33
g10
sg35
S'IND'
p183
sg37
S'12'
p184
sg39
S'49'
p185
sg41
S'13'
p186
ssg34
(dp187
g5
S'--'
p188
sg7
S'--'
p189
sg9
g15
sg11
S'--'
p190
sg13
g15
sg14
S'--'
p191
sg16
S'2015'
p192
sg18
g34
sg20
S'--'
p193
sg22
S'09/20'
p194
sg24
S'--'
p195
sg25
S'Antonio Andrews'
p196
sg27
S'--'
p197
sg29
S'L14-28'
p198
sg31
S'--'
p199
sg33
S'--'
p200
sg35
S'@CLE'
p201
sg37
S'--'
p202
sg39
S'--'
p203
sg41
S'--'
p204
ssg109
(dp205
g5
S'15.0'
p206
sg7
S'--'
p207
sg9
g15
sg11
S'--'
p208
sg13
g10
sg14
g15
sg16
S'2015'
p209
sg18
g109
sg20
S'1.3'
p210
sg22
S'10/11'
p211
sg24
g10
sg25
S'Antonio Andrews'
p212
sg27
S'7'
p213
sg29
S'L13-14'
p214
sg31
S'45'
p215
sg33
g139
sg35
S'BUF'
p216
sg37
S'23'
p217
sg39
g111
sg41
g109
ssg123
(dp218
g5
S''
p219
sg7
g219
sg9
g219
sg11
g219
sg13
g219
sg14
g219
sg16
S'2015'
p220
sg18
g123
sg20
g219
sg22
S'Bye'
p221
sg24
g219
sg25
S'Antonio Andrews'
p222
sg27
g219
sg29
g219
sg31
g219
sg33
g219
sg35
g219
sg37
g219
sg39
g219
sg41
g219
ssg213
(dp223
g5
S'--'
p224
sg7
S'--'
p225
sg9
g15
sg11
S'--'
p226
sg13
g10
sg14
S'--'
p227
sg16
S'2015'
p228
sg18
g213
sg20
S'5.7'
p229
sg22
S'10/25'
p230
sg24
g15
sg25
S'Antonio Andrews'
p231
sg27
S'10'
p232
sg29
S'L7-10'
p233
sg31
S'--'
p234
sg33
S'--'
p235
sg35
S'ATL'
p236
sg37
S'--'
p237
sg39
S'57'
p238
sg41
S'17'
p239
ssg61
(dp240
g5
S'2.0'
p241
sg7
S'--'
p242
sg9
g10
sg11
S'--'
p243
sg13
g10
sg14
g15
sg16
S'2015'
p244
sg18
g61
sg20
S'2.6'
p245
sg22
S'10/18'
p246
sg24
g15
sg25
S'Antonio Andrews'
p247
sg27
g111
sg29
S'L10-38'
p248
sg31
g34
sg33
g10
sg35
S'MIA'
p249
sg37
g34
sg39
S'23'
p250
sg41
g60
ssg111
(dp251
g5
S'23.0'
p252
sg7
S'--'
p253
sg9
g10
sg11
S'--'
p254
sg13
g10
sg14
g15
sg16
S'2015'
p255
sg18
g111
sg20
S'4.6'
p256
sg22
S'11/08'
p257
sg24
g15
sg25
S'Antonio Andrews'
p258
sg27
S'19'
p259
sg29
S'W34-28'
p260
sg31
S'23'
p261
sg33
g10
sg35
S'@NO'
p262
sg37
S'23'
p263
sg39
S'88'
p264
sg41
S'38'
p265
ssg60
(dp266
g5
S'6.0'
p267
sg7
S'--'
p268
sg9
g10
sg11
S'--'
p269
sg13
g10
sg14
g15
sg16
S'2015'
p270
sg18
g60
sg20
S'4.0'
p271
sg22
S'11/01'
p272
sg24
g15
sg25
S'Antonio Andrews'
p273
sg27
S'16'
p274
sg29
S'L6-20'
p275
sg31
S'18'
p276
sg33
g139
sg35
S'@HOU'
p277
sg37
S'10'
p278
sg39
S'64'
p279
sg41
S'28'
p280
sssS'2014'
p281
(dp282
g3
(dp283
g5
S'--'
p284
sg7
S'--'
p285
sg9
g15
sg11
S'--'
p286
sg13
g15
sg14
S'--'
p287
sg16
S'2014'
p288
sg18
S'11'
p289
sg20
S'--'
p290
sg22
S'11/17'
p291
sg24
S'--'
p292
sg25
S'Antonio Andrews'
p293
sg27
S'--'
p294
sg29
S'L24-27'
p295
sg31
S'--'
p296
sg33
S'--'
p297
sg35
S'PIT'
p298
sg37
S'--'
p299
sg39
S'--'
p300
sg41
S'--'
p301
ssg43
(dp302
g5
S'--'
p303
sg7
S'--'
p304
sg9
g15
sg11
S'--'
p305
sg13
g15
sg14
S'--'
p306
sg16
S'2014'
p307
sg18
S'10'
p308
sg20
S'--'
p309
sg22
S'11/09'
p310
sg24
S'--'
p311
sg25
S'Antonio Andrews'
p312
sg27
S'--'
p313
sg29
S'L7-21'
p314
sg31
S'--'
p315
sg33
S'--'
p316
sg35
S'@BAL'
p317
sg37
S'--'
p318
sg39
S'--'
p319
sg41
S'--'
p320
ssg62
(dp321
g5
S'--'
p322
sg7
S'--'
p323
sg9
g15
sg11
S'--'
p324
sg13
g15
sg14
S'--'
p325
sg16
S'2014'
p326
sg18
S'13'
p327
sg20
S'--'
p328
sg22
S'11/30'
p329
sg24
S'--'
p330
sg25
S'Antonio Andrews'
p331
sg27
S'--'
p332
sg29
S'L21-45'
p333
sg31
S'--'
p334
sg33
S'--'
p335
sg35
S'@HOU'
p336
sg37
S'--'
p337
sg39
S'--'
p338
sg41
S'--'
p339
ssg79
(dp340
g5
S'--'
p341
sg7
S'--'
p342
sg9
g15
sg11
S'--'
p343
sg13
g10
sg14
S'--'
p344
sg16
S'2014'
p345
sg18
S'12'
p346
sg20
S'--'
p347
sg22
S'11/23'
p348
sg24
S'--'
p349
sg25
S'Antonio Andrews'
p350
sg27
S'--'
p351
sg29
S'L24-43'
p352
sg31
S'--'
p353
sg33
S'--'
p354
sg35
S'@PHI'
p355
sg37
S'--'
p356
sg39
S'--'
p357
sg41
S'--'
p358
ssg96
(dp359
g5
S'--'
p360
sg7
S'--'
p361
sg9
g15
sg11
S'--'
p362
sg13
g15
sg14
S'--'
p363
sg16
S'2014'
p364
sg18
S'15'
p365
sg20
S'--'
p366
sg22
S'12/14'
p367
sg24
S'--'
p368
sg25
S'Antonio Andrews'
p369
sg27
S'--'
p370
sg29
S'L11-16'
p371
sg31
S'--'
p372
sg33
S'--'
p373
sg35
S'NYJ'
p374
sg37
S'--'
p375
sg39
S'--'
p376
sg41
S'--'
p377
ssg113
(dp378
g5
S'--'
p379
sg7
S'--'
p380
sg9
g15
sg11
S'--'
p381
sg13
g10
sg14
S'--'
p382
sg16
S'2014'
p383
sg18
S'14'
p384
sg20
S'--'
p385
sg22
S'12/07'
p386
sg24
S'--'
p387
sg25
S'Antonio Andrews'
p388
sg27
S'--'
p389
sg29
S'L7-36'
p390
sg31
S'--'
p391
sg33
S'--'
p392
sg35
S'NYG'
p393
sg37
S'--'
p394
sg39
S'--'
p395
sg41
S'--'
p396
ssg126
(dp397
g5
S'5.5'
p398
sg7
S'--'
p399
sg9
g15
sg11
S'--'
p400
sg13
g10
sg14
g15
sg16
S'2014'
p401
sg18
S'17'
p402
sg20
S'--'
p403
sg22
S'12/28'
p404
sg24
S'--'
p405
sg25
S'Antonio Andrews'
p406
sg27
S'--'
p407
sg29
S'L10-27'
p408
sg31
S'11'
p409
sg33
g34
sg35
S'IND'
p410
sg37
g61
sg39
S'--'
p411
sg41
S'--'
p412
ssg143
(dp413
g5
S'--'
p414
sg7
S'--'
p415
sg9
g15
sg11
S'--'
p416
sg13
g10
sg14
S'--'
p417
sg16
S'2014'
p418
sg18
S'16'
p419
sg20
S'--'
p420
sg22
S'12/18'
p421
sg24
S'--'
p422
sg25
S'Antonio Andrews'
p423
sg27
S'--'
p424
sg29
S'L13-21'
p425
sg31
S'--'
p426
sg33
S'--'
p427
sg35
S'@JAC'
p428
sg37
S'--'
p429
sg39
S'--'
p430
sg41
S'--'
p431
ssg111
(dp432
g5
g219
sg7
g219
sg9
g219
sg11
g219
sg13
g219
sg14
g219
sg16
S'2014'
p433
sg18
g111
sg20
g219
sg22
S'Bye'
p434
sg24
g219
sg25
S'Antonio Andrews'
p435
sg27
g219
sg29
g219
sg31
g219
sg33
g219
sg35
g219
sg37
g219
sg39
g219
sg41
g219
ssg60
(dp436
g5
S'--'
p437
sg7
S'--'
p438
sg9
g15
sg11
S'--'
p439
sg13
g15
sg14
S'--'
p440
sg16
S'2014'
p441
sg18
g60
sg20
S'--'
p442
sg22
S'10/26'
p443
sg24
S'--'
p444
sg25
S'Antonio Andrews'
p445
sg27
S'--'
p446
sg29
S'L16-30'
p447
sg31
S'--'
p448
sg33
S'--'
p449
sg35
S'HOU'
p450
sg37
S'--'
p451
sg39
S'--'
p452
sg41
S'--'
p453
sss.