(dp0
S'2015'
p1
(dp2
S'1'
p3
(dp4
S'RecAvg'
p5
S'--'
p6
sS'FUM'
p7
S'--'
p8
sS'GS'
p9
S'0'
p10
sS'Lost'
p11
S'--'
p12
sS'G'
p13
g10
sS'RecTD'
p14
S'--'
p15
sS'Year'
p16
S'2015'
p17
sS'WK'
p18
g3
sS'RushAvg'
p19
S'--'
p20
sS'Game Date'
p21
S'09/13'
p22
sS'RushTD'
p23
S'--'
p24
sS'Player'
p25
S'Arian Foster'
p26
sS'RushAtt'
p27
S'--'
p28
sS'Result'
p29
S'L20-27'
p30
sS'RecYds'
p31
S'--'
p32
sS'Rec'
p33
S'--'
p34
sS'Opp'
p35
S'KC'
p36
sS'RecLng'
p37
S'--'
p38
sS'RushYds'
p39
S'--'
p40
sS'RushLng'
p41
S'--'
p42
ssS'3'
p43
(dp44
g5
S'--'
p45
sg7
S'--'
p46
sg9
g10
sg11
S'--'
p47
sg13
g10
sg14
S'--'
p48
sg16
S'2015'
p49
sg18
g43
sg19
S'--'
p50
sg21
S'09/27'
p51
sg23
S'--'
p52
sg25
S'Arian Foster'
p53
sg27
S'--'
p54
sg29
S'W19-9'
p55
sg31
S'--'
p56
sg33
S'--'
p57
sg35
S'TB'
p58
sg37
S'--'
p59
sg39
S'--'
p60
sg41
S'--'
p61
ssS'2'
p62
(dp63
g5
S'--'
p64
sg7
S'--'
p65
sg9
g10
sg11
S'--'
p66
sg13
g10
sg14
S'--'
p67
sg16
S'2015'
p68
sg18
g62
sg19
S'--'
p69
sg21
S'09/20'
p70
sg23
S'--'
p71
sg25
S'Arian Foster'
p72
sg27
S'--'
p73
sg29
S'L17-24'
p74
sg31
S'--'
p75
sg33
S'--'
p76
sg35
S'@CAR'
p77
sg37
S'--'
p78
sg39
S'--'
p79
sg41
S'--'
p80
ssS'5'
p81
(dp82
g5
S'8.6'
p83
sg7
S'--'
p84
sg9
g3
sg11
S'--'
p85
sg13
g3
sg14
g10
sg16
S'2015'
p86
sg18
g81
sg19
S'2.2'
p87
sg21
S'10/08'
p88
sg23
g10
sg25
S'Arian Foster'
p89
sg27
S'19'
p90
sg29
S'L20-27'
p91
sg31
S'77'
p92
sg33
S'9'
p93
sg35
S'IND'
p94
sg37
S'32'
p95
sg39
S'41'
p96
sg41
S'7'
p97
ssS'4'
p98
(dp99
g5
S'8.3'
p100
sg7
g3
sg9
g3
sg11
g3
sg13
g3
sg14
g10
sg16
S'2015'
p101
sg18
g98
sg19
S'1.3'
p102
sg21
S'10/04'
p103
sg23
g10
sg25
S'Arian Foster'
p104
sg27
S'8'
p105
sg29
S'L21-48'
p106
sg31
S'25'
p107
sg33
g43
sg35
S'@ATL'
p108
sg37
S'15'
p109
sg39
S'10'
p110
sg41
g81
ssg97
(dp111
g5
S'13.2'
p112
sg7
S'--'
p113
sg9
g3
sg11
S'--'
p114
sg13
g3
sg14
g3
sg16
S'2015'
p115
sg18
g97
sg19
S'3.3'
p116
sg21
S'10/25'
p117
sg23
g3
sg25
S'Arian Foster'
p118
sg27
S'18'
p119
sg29
S'L26-44'
p120
sg31
S'66'
p121
sg33
g81
sg35
S'@MIA'
p122
sg37
S'26'
p123
sg39
S'59'
p124
sg41
S'11'
p125
ssS'6'
p126
(dp127
g5
S'11.8'
p128
sg7
g3
sg9
g3
sg11
g10
sg13
g3
sg14
g3
sg16
S'2015'
p129
sg18
g126
sg19
S'2.9'
p130
sg21
S'10/18'
p131
sg23
g10
sg25
S'Arian Foster'
p132
sg27
S'18'
p133
sg29
S'W31-20'
p134
sg31
S'59'
p135
sg33
g81
sg35
S'@JAC'
p136
sg37
S'15'
p137
sg39
S'53'
p138
sg41
S'16'
p139
sssS'2014'
p140
(dp141
S'11'
p142
(dp143
g5
S'--'
p144
sg7
S'--'
p145
sg9
g10
sg11
S'--'
p146
sg13
g10
sg14
S'--'
p147
sg16
S'2014'
p148
sg18
S'11'
p149
sg19
S'--'
p150
sg21
S'11/16'
p151
sg23
S'--'
p152
sg25
S'Arian Foster'
p153
sg27
S'--'
p154
sg29
S'W23-7'
p155
sg31
S'--'
p156
sg33
S'--'
p157
sg35
S'@CLE'
p158
sg37
S'--'
p159
sg39
S'--'
p160
sg41
S'--'
p161
ssS'10'
p162
(dp163
g5
S''
p164
sg7
g164
sg9
g164
sg11
g164
sg13
g164
sg14
g164
sg16
S'2014'
p165
sg18
S'10'
p166
sg19
g164
sg21
S'Bye'
p167
sg23
g164
sg25
S'Arian Foster'
p168
sg27
g164
sg29
g164
sg31
g164
sg33
g164
sg35
g164
sg37
g164
sg39
g164
sg41
g164
ssS'13'
p169
(dp170
g5
S'5.2'
p171
sg7
S'--'
p172
sg9
g3
sg11
S'--'
p173
sg13
g3
sg14
g3
sg16
S'2014'
p174
sg18
S'13'
p175
sg19
S'4.2'
p176
sg21
S'11/30'
p177
sg23
g10
sg25
S'Arian Foster'
p178
sg27
S'19'
p179
sg29
S'W45-21'
p180
sg31
S'26'
p181
sg33
g81
sg35
S'TEN'
p182
sg37
S'7T'
p183
sg39
S'79'
p184
sg41
S'18'
p185
ssS'12'
p186
(dp187
g5
S'--'
p188
sg7
S'--'
p189
sg9
g10
sg11
S'--'
p190
sg13
g10
sg14
S'--'
p191
sg16
S'2014'
p192
sg18
S'12'
p193
sg19
S'--'
p194
sg21
S'11/23'
p195
sg23
S'--'
p196
sg25
S'Arian Foster'
p197
sg27
S'--'
p198
sg29
S'L13-22'
p199
sg31
S'--'
p200
sg33
S'--'
p201
sg35
S'CIN'
p202
sg37
S'--'
p203
sg39
S'--'
p204
sg41
S'--'
p205
ssS'15'
p206
(dp207
g5
S'6.0'
p208
sg7
S'--'
p209
sg9
g3
sg11
S'--'
p210
sg13
g3
sg14
g10
sg16
S'2014'
p211
sg18
S'15'
p212
sg19
S'3.8'
p213
sg21
S'12/14'
p214
sg23
g10
sg25
S'Arian Foster'
p215
sg27
S'26'
p216
sg29
S'L10-17'
p217
sg31
S'18'
p218
sg33
g43
sg35
S'@IND'
p219
sg37
g105
sg39
S'99'
p220
sg41
S'18'
p221
ssS'14'
p222
(dp223
g5
S'10.5'
p224
sg7
S'--'
p225
sg9
g3
sg11
S'--'
p226
sg13
g3
sg14
g10
sg16
S'2014'
p227
sg18
S'14'
p228
sg19
S'5.3'
p229
sg21
S'12/07'
p230
sg23
g3
sg25
S'Arian Foster'
p231
sg27
S'24'
p232
sg29
S'W27-13'
p233
sg31
S'21'
p234
sg33
g62
sg35
S'@JAC'
p235
sg37
S'11'
p236
sg39
S'127'
p237
sg41
S'51'
p238
ssS'17'
p239
(dp240
g5
S'10.0'
p241
sg7
S'--'
p242
sg9
g3
sg11
S'--'
p243
sg13
g3
sg14
g3
sg16
S'2014'
p244
sg18
S'17'
p245
sg19
S'4.6'
p246
sg21
S'12/28'
p247
sg23
g10
sg25
S'Arian Foster'
p248
sg27
g81
sg29
S'W23-17'
p249
sg31
S'10'
p250
sg33
g3
sg35
S'JAC'
p251
sg37
S'10T'
p252
sg39
S'23'
p253
sg41
S'13'
p254
ssS'16'
p255
(dp256
g5
S'23.0'
p257
sg7
S'--'
p258
sg9
g3
sg11
S'--'
p259
sg13
g3
sg14
g10
sg16
S'2014'
p260
sg18
S'16'
p261
sg19
S'3.8'
p262
sg21
S'12/21'
p263
sg23
g10
sg25
S'Arian Foster'
p264
sg27
S'25'
p265
sg29
S'W25-13'
p266
sg31
S'23'
p267
sg33
g3
sg35
S'BAL'
p268
sg37
S'23'
p269
sg39
S'96'
p270
sg41
S'34'
p271
ssg3
(dp272
g5
S'8.5'
p273
sg7
g3
sg9
g3
sg11
g3
sg13
g3
sg14
g10
sg16
S'2014'
p274
sg18
g3
sg19
S'3.8'
p275
sg21
S'09/07'
p276
sg23
g10
sg25
S'Arian Foster'
p277
sg27
S'27'
p278
sg29
S'W17-6'
p279
sg31
S'17'
p280
sg33
g62
sg35
S'WAS'
p281
sg37
S'11'
p282
sg39
S'103'
p283
sg41
S'10'
p284
ssg43
(dp285
g5
S'--'
p286
sg7
S'--'
p287
sg9
g10
sg11
S'--'
p288
sg13
g10
sg14
S'--'
p289
sg16
S'2014'
p290
sg18
g43
sg19
S'--'
p291
sg21
S'09/21'
p292
sg23
S'--'
p293
sg25
S'Arian Foster'
p294
sg27
S'--'
p295
sg29
S'L17-30'
p296
sg31
S'--'
p297
sg33
S'--'
p298
sg35
S'@NYG'
p299
sg37
S'--'
p300
sg39
S'--'
p301
sg41
S'--'
p302
ssg62
(dp303
g5
S'6.0'
p304
sg7
S'--'
p305
sg9
g3
sg11
S'--'
p306
sg13
g3
sg14
g10
sg16
S'2014'
p307
sg18
g62
sg19
S'4.9'
p308
sg21
S'09/14'
p309
sg23
g3
sg25
S'Arian Foster'
p310
sg27
S'28'
p311
sg29
S'W30-14'
p312
sg31
S'12'
p313
sg33
g62
sg35
S'@OAK'
p314
sg37
g93
sg39
S'138'
p315
sg41
S'40'
p316
ssg81
(dp317
g5
S'7.5'
p318
sg7
S'--'
p319
sg9
g3
sg11
S'--'
p320
sg13
g3
sg14
g10
sg16
S'2014'
p321
sg18
g81
sg19
S'6.8'
p322
sg21
S'10/05'
p323
sg23
g62
sg25
S'Arian Foster'
p324
sg27
S'23'
p325
sg29
S'L17-20'
p326
sg31
S'15'
p327
sg33
g62
sg35
S'@DAL'
p328
sg37
S'14'
p329
sg39
S'157'
p330
sg41
S'33'
p331
ssg98
(dp332
g5
S'7.9'
p333
sg7
S'--'
p334
sg9
g3
sg11
S'--'
p335
sg13
g3
sg14
g10
sg16
S'2014'
p336
sg18
g98
sg19
S'0.8'
p337
sg21
S'09/28'
p338
sg23
g10
sg25
S'Arian Foster'
p339
sg27
g105
sg29
S'W23-17'
p340
sg31
S'55'
p341
sg33
g97
sg35
S'BUF'
p342
sg37
S'17'
p343
sg39
g126
sg41
g98
ssg97
(dp344
g5
S'3.3'
p345
sg7
g3
sg9
g3
sg11
g3
sg13
g3
sg14
g3
sg16
S'2014'
p346
sg18
g97
sg19
S'5.1'
p347
sg21
S'10/20'
p348
sg23
g10
sg25
S'Arian Foster'
p349
sg27
S'20'
p350
sg29
S'L23-30'
p351
sg31
S'13'
p352
sg33
g98
sg35
S'@PIT'
p353
sg37
g105
sg39
S'102'
p354
sg41
S'33'
p355
ssg126
(dp356
g5
S'10.7'
p357
sg7
S'--'
p358
sg9
g3
sg11
S'--'
p359
sg13
g3
sg14
g10
sg16
S'2014'
p360
sg18
g126
sg19
S'5.5'
p361
sg21
S'10/09'
p362
sg23
g62
sg25
S'Arian Foster'
p363
sg27
S'20'
p364
sg29
S'L28-33'
p365
sg31
S'32'
p366
sg33
g43
sg35
S'IND'
p367
sg37
S'28'
p368
sg39
S'109'
p369
sg41
S'34'
p370
ssg93
(dp371
g5
S'31.5'
p372
sg7
S'--'
p373
sg9
g3
sg11
S'--'
p374
sg13
g3
sg14
g3
sg16
S'2014'
p375
sg18
g93
sg19
S'3.7'
p376
sg21
S'11/02'
p377
sg23
g10
sg25
S'Arian Foster'
p378
sg27
S'15'
p379
sg29
S'L21-31'
p380
sg31
S'63'
p381
sg33
g62
sg35
S'PHI'
p382
sg37
S'56T'
p383
sg39
S'56'
p384
sg41
S'18'
p385
ssg105
(dp386
g5
S'5.5'
p387
sg7
S'--'
p388
sg9
g3
sg11
S'--'
p389
sg13
g3
sg14
g3
sg16
S'2014'
p390
sg18
g105
sg19
S'7.6'
p391
sg21
S'10/26'
p392
sg23
g62
sg25
S'Arian Foster'
p393
sg27
S'20'
p394
sg29
S'W30-16'
p395
sg31
S'22'
p396
sg33
g98
sg35
S'@TEN'
p397
sg37
S'13'
p398
sg39
S'151'
p399
sg41
S'43'
p400
sssS'2011'
p401
(dp402
g142
(dp403
g5
g164
sg7
g164
sg9
g164
sg11
g164
sg13
g164
sg14
g164
sg16
S'2011'
p404
sg18
S'11'
p405
sg19
g164
sg21
S'Bye'
p406
sg23
g164
sg25
S'Arian Foster'
p407
sg27
g164
sg29
g164
sg31
g164
sg33
g164
sg35
g164
sg37
g164
sg39
g164
sg41
g164
ssg162
(dp408
g5
S'25.5'
p409
sg7
S'--'
p410
sg9
g3
sg11
S'--'
p411
sg13
g3
sg14
g3
sg16
S'2011'
p412
sg18
S'10'
p413
sg19
S'4.9'
p414
sg21
S'11/13'
p415
sg23
g3
sg25
S'Arian Foster'
p416
sg27
S'17'
p417
sg29
S'W37-9'
p418
sg31
S'102'
p419
sg33
g98
sg35
S'@TB'
p420
sg37
S'78T'
p421
sg39
S'84'
p422
sg41
S'17'
p423
ssg169
(dp424
g5
S'13.7'
p425
sg7
S'--'
p426
sg9
g3
sg11
S'--'
p427
sg13
g3
sg14
g10
sg16
S'2011'
p428
sg18
S'13'
p429
sg19
S'3.6'
p430
sg21
S'12/04'
p431
sg23
g3
sg25
S'Arian Foster'
p432
sg27
S'31'
p433
sg29
S'W17-10'
p434
sg31
S'41'
p435
sg33
g43
sg35
S'ATL'
p436
sg37
S'28'
p437
sg39
S'111'
p438
sg41
S'18'
p439
ssg186
(dp440
g5
S'3.4'
p441
sg7
g62
sg9
g3
sg11
g3
sg13
g3
sg14
g10
sg16
S'2011'
p442
sg18
S'12'
p443
sg19
S'3.0'
p444
sg21
S'11/27'
p445
sg23
g3
sg25
S'Arian Foster'
p446
sg27
S'22'
p447
sg29
S'W20-13'
p448
sg31
S'24'
p449
sg33
g97
sg35
S'@JAC'
p450
sg37
g105
sg39
S'65'
p451
sg41
S'43'
p452
ssg206
(dp453
g5
S'11.6'
p454
sg7
g3
sg9
g3
sg11
g3
sg13
g3
sg14
g10
sg16
S'2011'
p455
sg18
S'15'
p456
sg19
S'6.8'
p457
sg21
S'12/18'
p458
sg23
g3
sg25
S'Arian Foster'
p459
sg27
S'16'
p460
sg29
S'L13-28'
p461
sg31
S'58'
p462
sg33
g81
sg35
S'CAR'
p463
sg37
S'25'
p464
sg39
S'109'
p465
sg41
S'22'
p466
ssg222
(dp467
g5
S'8.3'
p468
sg7
g3
sg9
g3
sg11
g3
sg13
g3
sg14
g10
sg16
S'2011'
p469
sg18
S'14'
p470
sg19
S'2.7'
p471
sg21
S'12/11'
p472
sg23
g10
sg25
S'Arian Foster'
p473
sg27
S'15'
p474
sg29
S'W20-19'
p475
sg31
S'33'
p476
sg33
g98
sg35
S'@CIN'
p477
sg37
S'21'
p478
sg39
S'41'
p479
sg41
g93
ssg239
(dp480
g5
S'--'
p481
sg7
S'--'
p482
sg9
g10
sg11
S'--'
p483
sg13
g10
sg14
S'--'
p484
sg16
S'2011'
p485
sg18
S'17'
p486
sg19
S'--'
p487
sg21
S'01/01'
p488
sg23
S'--'
p489
sg25
S'Arian Foster'
p490
sg27
S'--'
p491
sg29
S'L22-23'
p492
sg31
S'--'
p493
sg33
S'--'
p494
sg35
S'TEN'
p495
sg37
S'--'
p496
sg39
S'--'
p497
sg41
S'--'
p498
ssg255
(dp499
g5
S'5.3'
p500
sg7
g3
sg9
g3
sg11
g10
sg13
g3
sg14
g10
sg16
S'2011'
p501
sg18
S'16'
p502
sg19
S'6.9'
p503
sg21
S'12/22'
p504
sg23
g3
sg25
S'Arian Foster'
p505
sg27
S'23'
p506
sg29
S'L16-19'
p507
sg31
S'16'
p508
sg33
g43
sg35
S'@IND'
p509
sg37
g93
sg39
S'158'
p510
sg41
S'30'
p511
ssg3
(dp512
g5
S'--'
p513
sg7
S'--'
p514
sg9
g10
sg11
S'--'
p515
sg13
g10
sg14
S'--'
p516
sg16
S'2011'
p517
sg18
g3
sg19
S'--'
p518
sg21
S'09/11'
p519
sg23
S'--'
p520
sg25
S'Arian Foster'
p521
sg27
S'--'
p522
sg29
S'W34-7'
p523
sg31
S'--'
p524
sg33
S'--'
p525
sg35
S'IND'
p526
sg37
S'--'
p527
sg39
S'--'
p528
sg41
S'--'
p529
ssg43
(dp530
g5
S'--'
p531
sg7
S'--'
p532
sg9
g10
sg11
S'--'
p533
sg13
g10
sg14
S'--'
p534
sg16
S'2011'
p535
sg18
g43
sg19
S'--'
p536
sg21
S'09/25'
p537
sg23
S'--'
p538
sg25
S'Arian Foster'
p539
sg27
S'--'
p540
sg29
S'L33-40'
p541
sg31
S'--'
p542
sg33
S'--'
p543
sg35
S'@NO'
p544
sg37
S'--'
p545
sg39
S'--'
p546
sg41
S'--'
p547
ssg62
(dp548
g5
S'3.5'
p549
sg7
S'--'
p550
sg9
g3
sg11
S'--'
p551
sg13
g3
sg14
g10
sg16
S'2011'
p552
sg18
g62
sg19
S'3.3'
p553
sg21
S'09/18'
p554
sg23
g10
sg25
S'Arian Foster'
p555
sg27
S'10'
p556
sg29
S'W23-13'
p557
sg31
g97
sg33
g62
sg35
S'@MIA'
p558
sg37
g98
sg39
S'33'
p559
sg41
S'14'
p560
ssg81
(dp561
g5
S'23.2'
p562
sg7
S'--'
p563
sg9
g3
sg11
S'--'
p564
sg13
g3
sg14
g10
sg16
S'2011'
p565
sg18
g81
sg19
S'3.1'
p566
sg21
S'10/09'
p567
sg23
g10
sg25
S'Arian Foster'
p568
sg27
S'22'
p569
sg29
S'L20-25'
p570
sg31
S'116'
p571
sg33
g81
sg35
S'OAK'
p572
sg37
S'60'
p573
sg39
S'68'
p574
sg41
S'20'
p575
ssg98
(dp576
g5
S'3.7'
p577
sg7
S'--'
p578
sg9
g3
sg11
S'--'
p579
sg13
g3
sg14
g10
sg16
S'2011'
p580
sg18
g98
sg19
S'5.2'
p581
sg21
S'10/02'
p582
sg23
g3
sg25
S'Arian Foster'
p583
sg27
S'30'
p584
sg29
S'W17-10'
p585
sg31
S'11'
p586
sg33
g43
sg35
S'PIT'
p587
sg37
g105
sg39
S'155'
p588
sg41
S'42T'
p589
ssg97
(dp590
g5
S'23.8'
p591
sg7
S'--'
p592
sg9
g3
sg11
S'--'
p593
sg13
g3
sg14
g3
sg16
S'2011'
p594
sg18
g97
sg19
S'4.6'
p595
sg21
S'10/23'
p596
sg23
g62
sg25
S'Arian Foster'
p597
sg27
S'25'
p598
sg29
S'W41-7'
p599
sg31
S'119'
p600
sg33
g81
sg35
S'@TEN'
p601
sg37
S'78T'
p602
sg39
S'115'
p603
sg41
S'17'
p604
ssg126
(dp605
g5
S'8.7'
p606
sg7
S'--'
p607
sg9
g3
sg11
S'--'
p608
sg13
g3
sg14
g10
sg16
S'2011'
p609
sg18
g126
sg19
S'3.3'
p610
sg21
S'10/16'
p611
sg23
g10
sg25
S'Arian Foster'
p612
sg27
S'15'
p613
sg29
S'L14-29'
p614
sg31
S'52'
p615
sg33
g126
sg35
S'@BAL'
p616
sg37
S'16'
p617
sg39
S'49'
p618
sg41
S'16'
p619
ssg93
(dp620
g5
S'5.2'
p621
sg7
S'--'
p622
sg9
g3
sg11
S'--'
p623
sg13
g3
sg14
g10
sg16
S'2011'
p624
sg18
g93
sg19
S'6.5'
p625
sg21
S'11/06'
p626
sg23
g3
sg25
S'Arian Foster'
p627
sg27
S'19'
p628
sg29
S'W30-12'
p629
sg31
S'26'
p630
sg33
g81
sg35
S'CLE'
p631
sg37
g105
sg39
S'124'
p632
sg41
S'27'
p633
ssg105
(dp634
g5
S'12.0'
p635
sg7
S'--'
p636
sg9
g3
sg11
S'--'
p637
sg13
g3
sg14
g10
sg16
S'2011'
p638
sg18
g105
sg19
S'3.4'
p639
sg21
S'10/30'
p640
sg23
g3
sg25
S'Arian Foster'
p641
sg27
S'33'
p642
sg29
S'W24-14'
p643
sg31
S'12'
p644
sg33
g3
sg35
S'JAC'
p645
sg37
S'12'
p646
sg39
S'112'
p647
sg41
S'14'
p648
sssS'2010'
p649
(dp650
g142
(dp651
g5
S'9.8'
p652
sg7
g3
sg9
g10
sg11
g3
sg13
g3
sg14
g10
sg16
S'2010'
p653
sg18
S'11'
p654
sg19
S'3.8'
p655
sg21
S'11/21'
p656
sg23
g62
sg25
S'Arian Foster'
p657
sg27
S'22'
p658
sg29
S'L27-30'
p659
sg31
S'59'
p660
sg33
g126
sg35
S'@NYJ'
p661
sg37
S'20'
p662
sg39
S'84'
p663
sg41
S'19'
p664
ssg162
(dp665
g5
S'4.0'
p666
sg7
S'--'
p667
sg9
g3
sg11
S'--'
p668
sg13
g3
sg14
g10
sg16
S'2010'
p669
sg18
S'10'
p670
sg19
S'3.7'
p671
sg21
S'11/14'
p672
sg23
g3
sg25
S'Arian Foster'
p673
sg27
S'15'
p674
sg29
S'L24-31'
p675
sg31
g98
sg33
g3
sg35
S'@JAC'
p676
sg37
g98
sg39
S'56'
p677
sg41
S'14'
p678
ssg169
(dp679
g5
S'13.0'
p680
sg7
S'--'
p681
sg9
g3
sg11
S'--'
p682
sg13
g3
sg14
g3
sg16
S'2010'
p683
sg18
S'13'
p684
sg19
S'3.8'
p685
sg21
S'12/02'
p686
sg23
g3
sg25
S'Arian Foster'
p687
sg27
S'22'
p688
sg29
S'L24-34'
p689
sg31
S'26'
p690
sg33
g62
sg35
S'@PHI'
p691
sg37
S'13T'
p692
sg39
S'83'
p693
sg41
S'29'
p694
ssg186
(dp695
g5
S'8.3'
p696
sg7
S'--'
p697
sg9
g3
sg11
S'--'
p698
sg13
g3
sg14
g10
sg16
S'2010'
p699
sg18
S'12'
p700
sg19
S'4.8'
p701
sg21
S'11/28'
p702
sg23
g10
sg25
S'Arian Foster'
p703
sg27
S'30'
p704
sg29
S'W20-0'
p705
sg31
S'75'
p706
sg33
g93
sg35
S'TEN'
p707
sg37
S'19'
p708
sg39
S'143'
p709
sg41
S'37'
p710
ssg206
(dp711
g5
S'7.7'
p712
sg7
S'--'
p713
sg9
g10
sg11
S'--'
p714
sg13
g3
sg14
g10
sg16
S'2010'
p715
sg18
S'15'
p716
sg19
S'1.4'
p717
sg21
S'12/19'
p718
sg23
g10
sg25
S'Arian Foster'
p719
sg27
S'11'
p720
sg29
S'L17-31'
p721
sg31
S'46'
p722
sg33
g126
sg35
S'@TEN'
p723
sg37
S'18'
p724
sg39
S'15'
p725
sg41
g97
ssg222
(dp726
g5
S'6.3'
p727
sg7
g3
sg9
g3
sg11
g10
sg13
g3
sg14
g10
sg16
S'2010'
p728
sg18
S'14'
p729
sg19
S'5.0'
p730
sg21
S'12/13'
p731
sg23
g10
sg25
S'Arian Foster'
p732
sg27
S'20'
p733
sg29
S'L28-34'
p734
sg31
S'25'
p735
sg33
g98
sg35
S'BAL'
p736
sg37
S'10'
p737
sg39
S'100'
p738
sg41
S'16'
p739
ssg239
(dp740
g5
S'5.0'
p741
sg7
S'--'
p742
sg9
g3
sg11
S'--'
p743
sg13
g3
sg14
g10
sg16
S'2010'
p744
sg18
S'17'
p745
sg19
S'5.8'
p746
sg21
S'01/02'
p747
sg23
g62
sg25
S'Arian Foster'
p748
sg27
S'31'
p749
sg29
S'W34-17'
p750
sg31
S'10'
p751
sg33
g62
sg35
S'JAC'
p752
sg37
g126
sg39
S'180'
p753
sg41
S'56'
p754
ssg255
(dp755
g5
S'11.0'
p756
sg7
S'--'
p757
sg9
g3
sg11
S'--'
p758
sg13
g3
sg14
g10
sg16
S'2010'
p759
sg18
S'16'
p760
sg19
S'4.8'
p761
sg21
S'12/26'
p762
sg23
g3
sg25
S'Arian Foster'
p763
sg27
S'19'
p764
sg29
S'L23-24'
p765
sg31
S'44'
p766
sg33
g98
sg35
S'@DEN'
p767
sg37
S'28'
p768
sg39
S'91'
p769
sg41
S'34'
p770
ssg3
(dp771
g5
S'7.0'
p772
sg7
S'--'
p773
sg9
g3
sg11
S'--'
p774
sg13
g3
sg14
g10
sg16
S'2010'
p775
sg18
g3
sg19
S'7.0'
p776
sg21
S'09/12'
p777
sg23
g43
sg25
S'Arian Foster'
p778
sg27
S'33'
p779
sg29
S'W34-24'
p780
sg31
g97
sg33
g3
sg35
S'IND'
p781
sg37
g97
sg39
S'231'
p782
sg41
S'42'
p783
ssg43
(dp784
g5
S'5.0'
p785
sg7
g3
sg9
g3
sg11
g3
sg13
g3
sg14
g10
sg16
S'2010'
p786
sg18
g43
sg19
S'6.2'
p787
sg21
S'09/26'
p788
sg23
g10
sg25
S'Arian Foster'
p789
sg27
S'17'
p790
sg29
S'L13-27'
p791
sg31
S'20'
p792
sg33
g98
sg35
S'DAL'
p793
sg37
S'14'
p794
sg39
S'106'
p795
sg41
S'26'
p796
ssg62
(dp797
g5
S'23.0'
p798
sg7
S'--'
p799
sg9
g3
sg11
S'--'
p800
sg13
g3
sg14
g10
sg16
S'2010'
p801
sg18
g62
sg19
S'3.6'
p802
sg21
S'09/19'
p803
sg23
g10
sg25
S'Arian Foster'
p804
sg27
S'19'
p805
sg29
S'W30-27'
p806
sg31
S'69'
p807
sg33
g43
sg35
S'@WAS'
p808
sg37
S'50'
p809
sg39
S'69'
p810
sg41
S'11'
p811
ssg81
(dp812
g5
S'1.0'
p813
sg7
S'--'
p814
sg9
g3
sg11
S'--'
p815
sg13
g3
sg14
g10
sg16
S'2010'
p816
sg18
g81
sg19
S'2.3'
p817
sg21
S'10/10'
p818
sg23
g10
sg25
S'Arian Foster'
p819
sg27
S'11'
p820
sg29
S'L10-34'
p821
sg31
g62
sg33
g62
sg35
S'NYG'
p822
sg37
g126
sg39
S'25'
p823
sg41
g93
ssg98
(dp824
g5
S'18.7'
p825
sg7
S'--'
p826
sg9
g10
sg11
S'--'
p827
sg13
g3
sg14
g3
sg16
S'2010'
p828
sg18
g98
sg19
S'7.8'
p829
sg21
S'10/03'
p830
sg23
g3
sg25
S'Arian Foster'
p831
sg27
S'17'
p832
sg29
S'W31-24'
p833
sg31
S'56'
p834
sg33
g43
sg35
S'@OAK'
p835
sg37
S'31'
p836
sg39
S'133'
p837
sg41
S'74T'
p838
ssg97
(dp839
g5
g164
sg7
g164
sg9
g164
sg11
g164
sg13
g164
sg14
g164
sg16
S'2010'
p840
sg18
g97
sg19
g164
sg21
S'Bye'
p841
sg23
g164
sg25
S'Arian Foster'
p842
sg27
g164
sg29
g164
sg31
g164
sg33
g164
sg35
g164
sg37
g164
sg39
g164
sg41
g164
ssg126
(dp843
g5
S'4.3'
p844
sg7
S'--'
p845
sg9
g3
sg11
S'--'
p846
sg13
g3
sg14
g10
sg16
S'2010'
p847
sg18
g126
sg19
S'3.9'
p848
sg21
S'10/17'
p849
sg23
g62
sg25
S'Arian Foster'
p850
sg27
S'18'
p851
sg29
S'W35-31'
p852
sg31
S'26'
p853
sg33
g126
sg35
S'KC'
p854
sg37
S'10'
p855
sg39
S'71'
p856
sg41
S'21'
p857
ssg93
(dp858
g5
S'17.5'
p859
sg7
S'--'
p860
sg9
g3
sg11
S'--'
p861
sg13
g3
sg14
g10
sg16
S'2010'
p862
sg18
g93
sg19
S'4.7'
p863
sg21
S'11/07'
p864
sg23
g62
sg25
S'Arian Foster'
p865
sg27
S'27'
p866
sg29
S'L23-29'
p867
sg31
S'70'
p868
sg33
g98
sg35
S'SD'
p869
sg37
S'33'
p870
sg39
S'127'
p871
sg41
S'15'
p872
ssg105
(dp873
g5
S'7.2'
p874
sg7
S'--'
p875
sg9
g3
sg11
S'--'
p876
sg13
g3
sg14
g10
sg16
S'2010'
p877
sg18
g105
sg19
S'6.8'
p878
sg21
S'11/01'
p879
sg23
g3
sg25
S'Arian Foster'
p880
sg27
S'15'
p881
sg29
S'L17-30'
p882
sg31
S'65'
p883
sg33
g93
sg35
S'@IND'
p884
sg37
S'14'
p885
sg39
S'102'
p886
sg41
S'33'
p887
sssS'2013'
p888
(dp889
g162
(dp890
g5
S'--'
p891
sg7
S'--'
p892
sg9
g10
sg11
S'--'
p893
sg13
g10
sg14
S'--'
p894
sg16
S'2013'
p895
sg18
S'10'
p896
sg19
S'--'
p897
sg21
S'11/10'
p898
sg23
S'--'
p899
sg25
S'Arian Foster'
p900
sg27
S'--'
p901
sg29
S'L24-27'
p902
sg31
S'--'
p903
sg33
S'--'
p904
sg35
S'@ARI'
p905
sg37
S'--'
p906
sg39
S'--'
p907
sg41
S'--'
p908
ssg3
(dp909
g5
S'5.5'
p910
sg7
S'--'
p911
sg9
g3
sg11
S'--'
p912
sg13
g3
sg14
g10
sg16
S'2013'
p913
sg18
g3
sg19
S'3.2'
p914
sg21
S'09/09'
p915
sg23
g10
sg25
S'Arian Foster'
p916
sg27
S'18'
p917
sg29
S'W31-28'
p918
sg31
S'33'
p919
sg33
g126
sg35
S'@SD'
p920
sg37
g105
sg39
S'57'
p921
sg41
g93
ssg43
(dp922
g5
S'-2.0'
p923
sg7
S'--'
p924
sg9
g3
sg11
S'--'
p925
sg13
g3
sg14
g10
sg16
S'2013'
p926
sg18
g43
sg19
S'4.5'
p927
sg21
S'09/22'
p928
sg23
g10
sg25
S'Arian Foster'
p929
sg27
S'12'
p930
sg29
S'L9-30'
p931
sg31
S'-2'
p932
sg33
g3
sg35
S'@BAL'
p933
sg37
S'-2'
p934
sg39
S'54'
p935
sg41
S'10'
p936
ssg62
(dp937
g5
S'6.0'
p938
sg7
S'--'
p939
sg9
g3
sg11
S'--'
p940
sg13
g3
sg14
g10
sg16
S'2013'
p941
sg18
g62
sg19
S'4.2'
p942
sg21
S'09/15'
p943
sg23
g3
sg25
S'Arian Foster'
p944
sg27
S'19'
p945
sg29
S'W30-24'
p946
sg31
g126
sg33
g3
sg35
S'TEN'
p947
sg37
g126
sg39
S'79'
p948
sg41
S'16'
p949
ssg81
(dp950
g5
S'5.0'
p951
sg7
S'--'
p952
sg9
g3
sg11
S'--'
p953
sg13
g3
sg14
g10
sg16
S'2013'
p954
sg18
g81
sg19
S'4.7'
p955
sg21
S'10/06'
p956
sg23
g10
sg25
S'Arian Foster'
p957
sg27
S'21'
p958
sg29
S'L3-34'
p959
sg31
S'20'
p960
sg33
g98
sg35
S'@SF'
p961
sg37
g93
sg39
S'98'
p962
sg41
S'17'
p963
ssg98
(dp964
g5
S'11.5'
p965
sg7
S'--'
p966
sg9
g3
sg11
S'--'
p967
sg13
g3
sg14
g3
sg16
S'2013'
p968
sg18
g98
sg19
S'3.8'
p969
sg21
S'09/29'
p970
sg23
g10
sg25
S'Arian Foster'
p971
sg27
S'27'
p972
sg29
S'L20-23'
p973
sg31
S'69'
p974
sg33
g126
sg35
S'SEA'
p975
sg37
S'31'
p976
sg39
S'102'
p977
sg41
S'16'
p978
ssg97
(dp979
g5
S'--'
p980
sg7
S'--'
p981
sg9
g3
sg11
S'--'
p982
sg13
g3
sg14
S'--'
p983
sg16
S'2013'
p984
sg18
g97
sg19
S'2.8'
p985
sg21
S'10/20'
p986
sg23
g10
sg25
S'Arian Foster'
p987
sg27
g98
sg29
S'L16-17'
p988
sg31
S'--'
p989
sg33
S'--'
p990
sg35
S'@KC'
p991
sg37
S'--'
p992
sg39
S'11'
p993
sg41
S'11'
p994
ssg126
(dp995
g5
S'14.3'
p996
sg7
S'--'
p997
sg9
g3
sg11
S'--'
p998
sg13
g3
sg14
g10
sg16
S'2013'
p999
sg18
g126
sg19
S'7.1'
p1000
sg21
S'10/13'
p1001
sg23
g10
sg25
S'Arian Foster'
p1002
sg27
S'20'
p1003
sg29
S'L13-38'
p1004
sg31
S'57'
p1005
sg33
g98
sg35
S'STL'
p1006
sg37
S'41'
p1007
sg39
S'141'
p1008
sg41
S'23'
p1009
ssg93
(dp1010
g5
S'--'
p1011
sg7
S'--'
p1012
sg9
g3
sg11
S'--'
p1013
sg13
g3
sg14
g10
sg16
S'2013'
p1014
sg18
g93
sg19
S'--'
p1015
sg21
S'11/03'
p1016
sg23
S'--'
p1017
sg25
S'Arian Foster'
p1018
sg27
S'--'
p1019
sg29
S'L24-27'
p1020
sg31
g10
sg33
g10
sg35
S'IND'
p1021
sg37
S'--'
p1022
sg39
S'--'
p1023
sg41
S'--'
p1024
ssg105
(dp1025
g5
g164
sg7
g164
sg9
g164
sg11
g164
sg13
g164
sg14
g164
sg16
S'2013'
p1026
sg18
g105
sg19
g164
sg21
S'Bye'
p1027
sg23
g164
sg25
S'Arian Foster'
p1028
sg27
g164
sg29
g164
sg31
g164
sg33
g164
sg35
g164
sg37
g164
sg39
g164
sg41
g164
sssS'2012'
p1029
(dp1030
g142
(dp1031
g5
S'5.0'
p1032
sg7
g3
sg9
g3
sg11
g3
sg13
g3
sg14
g10
sg16
S'2012'
p1033
sg18
S'11'
p1034
sg19
S'3.2'
p1035
sg21
S'11/18'
p1036
sg23
g10
sg25
S'Arian Foster'
p1037
sg27
S'28'
p1038
sg29
S'W43-37'
p1039
sg31
S'15'
p1040
sg33
g43
sg35
S'JAC'
p1041
sg37
g93
sg39
S'90'
p1042
sg41
S'13'
p1043
ssg162
(dp1044
g5
S'3.0'
p1045
sg7
S'--'
p1046
sg9
g3
sg11
S'--'
p1047
sg13
g3
sg14
g3
sg16
S'2012'
p1048
sg18
S'10'
p1049
sg19
S'3.5'
p1050
sg21
S'11/11'
p1051
sg23
g10
sg25
S'Arian Foster'
p1052
sg27
S'29'
p1053
sg29
S'W13-6'
p1054
sg31
S'15'
p1055
sg33
g81
sg35
S'@CHI'
p1056
sg37
g105
sg39
S'102'
p1057
sg41
S'21'
p1058
ssg169
(dp1059
g5
S'3.0'
p1060
sg7
g3
sg9
g3
sg11
g10
sg13
g3
sg14
g10
sg16
S'2012'
p1061
sg18
S'13'
p1062
sg19
S'2.7'
p1063
sg21
S'12/02'
p1064
sg23
g3
sg25
S'Arian Foster'
p1065
sg27
S'14'
p1066
sg29
S'W24-10'
p1067
sg31
S'15'
p1068
sg33
g81
sg35
S'@TEN'
p1069
sg37
g105
sg39
S'38'
p1070
sg41
g97
ssg186
(dp1071
g5
S'3.0'
p1072
sg7
S'--'
p1073
sg9
g3
sg11
S'--'
p1074
sg13
g3
sg14
g10
sg16
S'2012'
p1075
sg18
S'12'
p1076
sg19
S'5.1'
p1077
sg21
S'11/22'
p1078
sg23
g62
sg25
S'Arian Foster'
p1079
sg27
S'20'
p1080
sg29
S'W34-31'
p1081
sg31
S'15'
p1082
sg33
g81
sg35
S'@DET'
p1083
sg37
g81
sg39
S'102'
p1084
sg41
S'15'
p1085
ssg206
(dp1086
g5
S'2.0'
p1087
sg7
S'--'
p1088
sg9
g3
sg11
S'--'
p1089
sg13
g3
sg14
g10
sg16
S'2012'
p1090
sg18
S'15'
p1091
sg19
S'6.1'
p1092
sg21
S'12/16'
p1093
sg23
g10
sg25
S'Arian Foster'
p1094
sg27
S'27'
p1095
sg29
S'W29-17'
p1096
sg31
g98
sg33
g62
sg35
S'IND'
p1097
sg37
g62
sg39
S'165'
p1098
sg41
S'31'
p1099
ssg222
(dp1100
g5
S'9.8'
p1101
sg7
S'--'
p1102
sg9
g3
sg11
S'--'
p1103
sg13
g3
sg14
g10
sg16
S'2012'
p1104
sg18
S'14'
p1105
sg19
S'3.1'
p1106
sg21
S'12/10'
p1107
sg23
g3
sg25
S'Arian Foster'
p1108
sg27
S'15'
p1109
sg29
S'L14-42'
p1110
sg31
S'39'
p1111
sg33
g98
sg35
S'@NE'
p1112
sg37
S'23'
p1113
sg39
S'46'
p1114
sg41
S'15'
p1115
ssg239
(dp1116
g5
S'11.5'
p1117
sg7
S'--'
p1118
sg9
g3
sg11
S'--'
p1119
sg13
g3
sg14
g10
sg16
S'2012'
p1120
sg18
S'17'
p1121
sg19
S'6.0'
p1122
sg21
S'12/30'
p1123
sg23
g3
sg25
S'Arian Foster'
p1124
sg27
S'16'
p1125
sg29
S'L16-28'
p1126
sg31
S'23'
p1127
sg33
g62
sg35
S'@IND'
p1128
sg37
S'18'
p1129
sg39
S'96'
p1130
sg41
S'39'
p1131
ssg255
(dp1132
g5
S'7.0'
p1133
sg7
g3
sg9
g3
sg11
g3
sg13
g3
sg14
g10
sg16
S'2012'
p1134
sg18
S'16'
p1135
sg19
S'1.5'
p1136
sg21
S'12/23'
p1137
sg23
g10
sg25
S'Arian Foster'
p1138
sg27
S'10'
p1139
sg29
S'L6-23'
p1140
sg31
S'14'
p1141
sg33
g62
sg35
S'MIN'
p1142
sg37
S'11'
p1143
sg39
S'15'
p1144
sg41
g105
ssg3
(dp1145
g5
S'-4.0'
p1146
sg7
S'--'
p1147
sg9
g3
sg11
S'--'
p1148
sg13
g3
sg14
g10
sg16
S'2012'
p1149
sg18
g3
sg19
S'3.0'
p1150
sg21
S'09/09'
p1151
sg23
g62
sg25
S'Arian Foster'
p1152
sg27
S'26'
p1153
sg29
S'W30-10'
p1154
sg31
S'-4'
p1155
sg33
g3
sg35
S'MIA'
p1156
sg37
S'-4'
p1157
sg39
S'79'
p1158
sg41
S'14T'
p1159
ssg43
(dp1160
g5
S'3.0'
p1161
sg7
S'--'
p1162
sg9
g3
sg11
S'--'
p1163
sg13
g3
sg14
g3
sg16
S'2012'
p1164
sg18
g43
sg19
S'4.2'
p1165
sg21
S'09/23'
p1166
sg23
g10
sg25
S'Arian Foster'
p1167
sg27
S'25'
p1168
sg29
S'W31-25'
p1169
sg31
g43
sg33
g3
sg35
S'@DEN'
p1170
sg37
S'3T'
p1171
sg39
S'105'
p1172
sg41
S'22'
p1173
ssg62
(dp1174
g5
S'6.2'
p1175
sg7
S'--'
p1176
sg9
g3
sg11
S'--'
p1177
sg13
g3
sg14
g10
sg16
S'2012'
p1178
sg18
g62
sg19
S'3.9'
p1179
sg21
S'09/16'
p1180
sg23
g3
sg25
S'Arian Foster'
p1181
sg27
S'28'
p1182
sg29
S'W27-7'
p1183
sg31
S'37'
p1184
sg33
g126
sg35
S'@JAC'
p1185
sg37
S'18'
p1186
sg39
S'110'
p1187
sg41
S'18'
p1188
ssg81
(dp1189
g5
S'16.0'
p1190
sg7
S'--'
p1191
sg9
g3
sg11
S'--'
p1192
sg13
g3
sg14
g10
sg16
S'2012'
p1193
sg18
g81
sg19
S'5.2'
p1194
sg21
S'10/08'
p1195
sg23
g3
sg25
S'Arian Foster'
p1196
sg27
S'29'
p1197
sg29
S'W23-17'
p1198
sg31
S'16'
p1199
sg33
g3
sg35
S'@NYJ'
p1200
sg37
S'16'
p1201
sg39
S'152'
p1202
sg41
S'46'
p1203
ssg98
(dp1204
g5
S'8.0'
p1205
sg7
S'--'
p1206
sg9
g3
sg11
S'--'
p1207
sg13
g3
sg14
g10
sg16
S'2012'
p1208
sg18
g98
sg19
S'3.6'
p1209
sg21
S'09/30'
p1210
sg23
g3
sg25
S'Arian Foster'
p1211
sg27
S'24'
p1212
sg29
S'W38-14'
p1213
sg31
g105
sg33
g3
sg35
S'TEN'
p1214
sg37
g105
sg39
S'86'
p1215
sg41
S'16'
p1216
ssg97
(dp1217
g5
S'5.0'
p1218
sg7
S'--'
p1219
sg9
g3
sg11
S'--'
p1220
sg13
g3
sg14
g10
sg16
S'2012'
p1221
sg18
g97
sg19
S'5.2'
p1222
sg21
S'10/21'
p1223
sg23
g62
sg25
S'Arian Foster'
p1224
sg27
S'19'
p1225
sg29
S'W43-13'
p1226
sg31
g81
sg33
g3
sg35
S'BAL'
p1227
sg37
g81
sg39
S'98'
p1228
sg41
S'16'
p1229
ssg126
(dp1230
g5
S'12.0'
p1231
sg7
S'--'
p1232
sg9
g3
sg11
S'--'
p1233
sg13
g3
sg14
g10
sg16
S'2012'
p1234
sg18
g126
sg19
S'1.7'
p1235
sg21
S'10/14'
p1236
sg23
g62
sg25
S'Arian Foster'
p1237
sg27
S'17'
p1238
sg29
S'L24-42'
p1239
sg31
S'12'
p1240
sg33
g3
sg35
S'GB'
p1241
sg37
S'12'
p1242
sg39
S'29'
p1243
sg41
g81
ssg93
(dp1244
g5
S'--'
p1245
sg7
S'--'
p1246
sg9
g3
sg11
S'--'
p1247
sg13
g3
sg14
g10
sg16
S'2012'
p1248
sg18
g93
sg19
S'4.6'
p1249
sg21
S'11/04'
p1250
sg23
g3
sg25
S'Arian Foster'
p1251
sg27
S'24'
p1252
sg29
S'W21-9'
p1253
sg31
g10
sg33
g10
sg35
S'BUF'
p1254
sg37
S'--'
p1255
sg39
S'111'
p1256
sg41
S'21'
p1257
ssg105
(dp1258
g5
g164
sg7
g164
sg9
g164
sg11
g164
sg13
g164
sg14
g164
sg16
S'2012'
p1259
sg18
g105
sg19
g164
sg21
S'Bye'
p1260
sg23
g164
sg25
S'Arian Foster'
p1261
sg27
g164
sg29
g164
sg31
g164
sg33
g164
sg35
g164
sg37
g164
sg39
g164
sg41
g164
sss.