(dp0
S'2015'
p1
(dp2
S'15'
p3
(dp4
S'RecAvg'
p5
S'6.0'
p6
sS'FUM'
p7
S'--'
p8
sS'GS'
p9
S'0'
p10
sS'Lost'
p11
S'--'
p12
sS'G'
p13
S'1'
p14
sS'RecTD'
p15
g10
sS'Year'
p16
S'2015'
p17
sS'WK'
p18
S'15'
p19
sS'RushAvg'
p20
S'--'
p21
sS'Game Date'
p22
S'12/21'
p23
sS'RushTD'
p24
S'--'
p25
sS'Player'
p26
S'Austin Johnson'
p27
sS'RushAtt'
p28
S'--'
p29
sS'Result'
p30
S'L27-35'
p31
sS'RecYds'
p32
S'6'
p33
sS'Rec'
p34
g14
sS'Opp'
p35
S'DET'
p36
sS'RecLng'
p37
g33
sS'RushYds'
p38
S'--'
p39
sS'RushLng'
p40
S'--'
p41
ssS'14'
p42
(dp43
g5
S'--'
p44
sg7
S'--'
p45
sg9
g10
sg11
S'--'
p46
sg13
g14
sg15
S'--'
p47
sg16
S'2015'
p48
sg18
S'14'
p49
sg20
S'--'
p50
sg22
S'12/13'
p51
sg24
S'--'
p52
sg26
S'Austin Johnson'
p53
sg28
S'--'
p54
sg30
S'W24-17'
p55
sg32
S'--'
p56
sg34
S'--'
p57
sg35
S'@TB'
p58
sg37
S'--'
p59
sg38
S'--'
p60
sg40
S'--'
p61
ssS'17'
p62
(dp63
g5
S'--'
p64
sg7
S'--'
p65
sg9
g10
sg11
S'--'
p66
sg13
g14
sg15
S'--'
p67
sg16
S'2015'
p68
sg18
S'17'
p69
sg20
S'--'
p70
sg22
S'01/03'
p71
sg24
S'--'
p72
sg26
S'Austin Johnson'
p73
sg28
S'--'
p74
sg30
S'W20-17'
p75
sg32
S'--'
p76
sg34
S'--'
p77
sg35
S'@ATL'
p78
sg37
S'--'
p79
sg38
S'--'
p80
sg40
S'--'
p81
ssS'16'
p82
(dp83
g5
S'9.5'
p84
sg7
S'--'
p85
sg9
g10
sg11
S'--'
p86
sg13
g14
sg15
g10
sg16
S'2015'
p87
sg18
S'16'
p88
sg20
S'--'
p89
sg22
S'12/27'
p90
sg24
S'--'
p91
sg26
S'Austin Johnson'
p92
sg28
S'--'
p93
sg30
S'W38-27'
p94
sg32
S'19'
p95
sg34
S'2'
p96
sg35
S'JAC'
p97
sg37
S'12'
p98
sg38
S'--'
p99
sg40
S'--'
p100
ssg14
(dp101
g5
S'2.5'
p102
sg7
S'--'
p103
sg9
g10
sg11
S'--'
p104
sg13
g14
sg15
g10
sg16
S'2015'
p105
sg18
g14
sg20
S'4.0'
p106
sg22
S'09/13'
p107
sg24
g10
sg26
S'Austin Johnson'
p108
sg28
g14
sg30
S'L19-31'
p109
sg32
S'5'
p110
sg34
g96
sg35
S'@ARI'
p111
sg37
S'3'
p112
sg38
S'4'
p113
sg40
g113
ssg112
(dp114
g5
S'--'
p115
sg7
S'--'
p116
sg9
g14
sg11
S'--'
p117
sg13
g14
sg15
S'--'
p118
sg16
S'2015'
p119
sg18
g112
sg20
S'2.0'
p120
sg22
S'09/27'
p121
sg24
g10
sg26
S'Austin Johnson'
p122
sg28
g96
sg30
S'L22-27'
p123
sg32
S'--'
p124
sg34
S'--'
p125
sg35
S'@CAR'
p126
sg37
S'--'
p127
sg38
g113
sg40
g112
ssg96
(dp128
g5
S'--'
p129
sg7
S'--'
p130
sg9
g10
sg11
S'--'
p131
sg13
g14
sg15
g10
sg16
S'2015'
p132
sg18
g96
sg20
S'1.0'
p133
sg22
S'09/20'
p134
sg24
g14
sg26
S'Austin Johnson'
p135
sg28
g14
sg30
S'L19-26'
p136
sg32
g10
sg34
g10
sg35
S'TB'
p137
sg37
S'--'
p138
sg38
g14
sg40
S'1T'
p139
ssg110
(dp140
g5
S'--'
p141
sg7
S'--'
p142
sg9
g10
sg11
S'--'
p143
sg13
g10
sg15
S'--'
p144
sg16
S'2015'
p145
sg18
g110
sg20
S'--'
p146
sg22
S'10/11'
p147
sg24
S'--'
p148
sg26
S'Austin Johnson'
p149
sg28
S'--'
p150
sg30
S'L17-39'
p151
sg32
S'--'
p152
sg34
S'--'
p153
sg35
S'@PHI'
p154
sg37
S'--'
p155
sg38
S'--'
p156
sg40
S'--'
p157
ssg113
(dp158
g5
S'--'
p159
sg7
S'--'
p160
sg9
g10
sg11
S'--'
p161
sg13
g14
sg15
S'--'
p162
sg16
S'2015'
p163
sg18
g113
sg20
S'--'
p164
sg22
S'10/04'
p165
sg24
S'--'
p166
sg26
S'Austin Johnson'
p167
sg28
S'--'
p168
sg30
S'W26-20'
p169
sg32
S'--'
p170
sg34
S'--'
p171
sg35
S'DAL'
p172
sg37
S'--'
p173
sg38
S'--'
p174
sg40
S'--'
p175
ssS'7'
p176
(dp177
g5
S'--'
p178
sg7
S'--'
p179
sg9
g10
sg11
S'--'
p180
sg13
g10
sg15
S'--'
p181
sg16
S'2015'
p182
sg18
g176
sg20
S'--'
p183
sg22
S'10/25'
p184
sg24
S'--'
p185
sg26
S'Austin Johnson'
p186
sg28
S'--'
p187
sg30
S'W27-21'
p188
sg32
S'--'
p189
sg34
S'--'
p190
sg35
S'@IND'
p191
sg37
S'--'
p192
sg38
S'--'
p193
sg40
S'--'
p194
ssg33
(dp195
g5
S'--'
p196
sg7
S'--'
p197
sg9
g10
sg11
S'--'
p198
sg13
g14
sg15
S'--'
p199
sg16
S'2015'
p200
sg18
g33
sg20
S'--'
p201
sg22
S'10/15'
p202
sg24
S'--'
p203
sg26
S'Austin Johnson'
p204
sg28
S'--'
p205
sg30
S'W31-21'
p206
sg32
S'--'
p207
sg34
S'--'
p208
sg35
S'ATL'
p209
sg37
S'--'
p210
sg38
S'--'
p211
sg40
S'--'
p212
ssS'8'
p213
(dp214
g5
S'--'
p215
sg7
S'--'
p216
sg9
g10
sg11
S'--'
p217
sg13
g14
sg15
S'--'
p218
sg16
S'2015'
p219
sg18
g213
sg20
S'--'
p220
sg22
S'11/01'
p221
sg24
S'--'
p222
sg26
S'Austin Johnson'
p223
sg28
S'--'
p224
sg30
S'W52-49'
p225
sg32
S'--'
p226
sg34
S'--'
p227
sg35
S'NYG'
p228
sg37
S'--'
p229
sg38
S'--'
p230
sg40
S'--'
p231
sssS'2014'
p232
(dp233
g14
(dp234
g5
S'--'
p235
sg7
S'--'
p236
sg9
g10
sg11
S'--'
p237
sg13
g14
sg15
S'--'
p238
sg16
S'2014'
p239
sg18
g14
sg20
S'--'
p240
sg22
S'09/07'
p241
sg24
S'--'
p242
sg26
S'Austin Johnson'
p243
sg28
S'--'
p244
sg30
S'L34-37'
p245
sg32
S'--'
p246
sg34
S'--'
p247
sg35
S'@ATL'
p248
sg37
S'--'
p249
sg38
S'--'
p250
sg40
S'--'
p251
ssg112
(dp252
g5
S'--'
p253
sg7
S'--'
p254
sg9
g10
sg11
S'--'
p255
sg13
g14
sg15
S'--'
p256
sg16
S'2014'
p257
sg18
g112
sg20
S'2.0'
p258
sg22
S'09/21'
p259
sg24
g10
sg26
S'Austin Johnson'
p260
sg28
g14
sg30
S'W20-9'
p261
sg32
S'--'
p262
sg34
S'--'
p263
sg35
S'MIN'
p264
sg37
S'--'
p265
sg38
g96
sg40
g96
ssg96
(dp266
g5
S'--'
p267
sg7
S'--'
p268
sg9
g10
sg11
S'--'
p269
sg13
g14
sg15
S'--'
p270
sg16
S'2014'
p271
sg18
g96
sg20
S'5.0'
p272
sg22
S'09/14'
p273
sg24
g10
sg26
S'Austin Johnson'
p274
sg28
g96
sg30
S'L24-26'
p275
sg32
S'--'
p276
sg34
S'--'
p277
sg35
S'@CLE'
p278
sg37
S'--'
p279
sg38
S'10'
p280
sg40
g213
ssg110
(dp281
g5
S'--'
p282
sg7
S'--'
p283
sg9
g14
sg11
S'--'
p284
sg13
g14
sg15
S'--'
p285
sg16
S'2014'
p286
sg18
g110
sg20
S'2.0'
p287
sg22
S'10/05'
p288
sg24
g10
sg26
S'Austin Johnson'
p289
sg28
g14
sg30
S'W37-31'
p290
sg32
S'--'
p291
sg34
S'--'
p292
sg35
S'TB'
p293
sg37
S'--'
p294
sg38
g96
sg40
g96
ssg113
(dp295
g5
S'--'
p296
sg7
S'--'
p297
sg9
g10
sg11
S'--'
p298
sg13
g14
sg15
S'--'
p299
sg16
S'2014'
p300
sg18
g113
sg20
S'2.0'
p301
sg22
S'09/28'
p302
sg24
g10
sg26
S'Austin Johnson'
p303
sg28
g14
sg30
S'L17-38'
p304
sg32
S'--'
p305
sg34
S'--'
p306
sg35
S'@DAL'
p307
sg37
S'--'
p308
sg38
g96
sg40
g96
ssg176
(dp309
g5
S'13.0'
p310
sg7
S'--'
p311
sg9
g10
sg11
S'--'
p312
sg13
g14
sg15
g14
sg16
S'2014'
p313
sg18
g176
sg20
S'5.0'
p314
sg22
S'10/19'
p315
sg24
g10
sg26
S'Austin Johnson'
p316
sg28
g14
sg30
S'L23-24'
p317
sg32
S'13'
p318
sg34
g14
sg35
S'@DET'
p319
sg37
S'13T'
p320
sg38
g110
sg40
g110
ssg33
(dp321
g5
S''
p322
sg7
g322
sg9
g322
sg11
g322
sg13
g322
sg15
g322
sg16
S'2014'
p323
sg18
g33
sg20
g322
sg22
S'Bye'
p324
sg24
g322
sg26
S'Austin Johnson'
p325
sg28
g322
sg30
g322
sg32
g322
sg34
g322
sg35
g322
sg37
g322
sg38
g322
sg40
g322
ssS'9'
p326
(dp327
g5
S'--'
p328
sg7
S'--'
p329
sg9
g10
sg11
S'--'
p330
sg13
g10
sg15
S'--'
p331
sg16
S'2014'
p332
sg18
g326
sg20
S'--'
p333
sg22
S'10/30'
p334
sg24
S'--'
p335
sg26
S'Austin Johnson'
p336
sg28
S'--'
p337
sg30
S'W28-10'
p338
sg32
S'--'
p339
sg34
S'--'
p340
sg35
S'@CAR'
p341
sg37
S'--'
p342
sg38
S'--'
p343
sg40
S'--'
p344
ssg213
(dp345
g5
S'2.0'
p346
sg7
S'--'
p347
sg9
g10
sg11
S'--'
p348
sg13
g14
sg15
g10
sg16
S'2014'
p349
sg18
g213
sg20
S'0.5'
p350
sg22
S'10/26'
p351
sg24
g10
sg26
S'Austin Johnson'
p352
sg28
g96
sg30
S'W44-23'
p353
sg32
g96
sg34
g14
sg35
S'GB'
p354
sg37
g96
sg38
g14
sg40
g96
sss.