(dp0
S'2015'
p1
(dp2
S'11'
p3
(dp4
S'RecAvg'
p5
S'--'
p6
sS'FUM'
p7
S'--'
p8
sS'GS'
p9
S'0'
p10
sS'Lost'
p11
S'--'
p12
sS'G'
p13
g10
sS'RecTD'
p14
S'--'
p15
sS'Year'
p16
S'2015'
p17
sS'WK'
p18
S'11'
p19
sS'RushAvg'
p20
S'--'
p21
sS'Game Date'
p22
S'11/19'
p23
sS'RushTD'
p24
S'--'
p25
sS'Player'
p26
S'Bernard Pierce'
p27
sS'RushAtt'
p28
S'--'
p29
sS'Result'
p30
S'W19-13'
p31
sS'RecYds'
p32
S'--'
p33
sS'Rec'
p34
S'--'
p35
sS'Opp'
p36
S'TEN'
p37
sS'RecLng'
p38
S'--'
p39
sS'RushYds'
p40
S'--'
p41
sS'RushLng'
p42
S'--'
p43
ssS'10'
p44
(dp45
g5
S'--'
p46
sg7
S'--'
p47
sg9
g10
sg11
S'--'
p48
sg13
g10
sg14
S'--'
p49
sg16
S'2015'
p50
sg18
S'10'
p51
sg20
S'--'
p52
sg22
S'11/15'
p53
sg24
S'--'
p54
sg26
S'Bernard Pierce'
p55
sg28
S'--'
p56
sg30
S'W22-20'
p57
sg32
S'--'
p58
sg34
S'--'
p59
sg36
S'@BAL'
p60
sg38
S'--'
p61
sg40
S'--'
p62
sg42
S'--'
p63
ssS'13'
p64
(dp65
g5
S'--'
p66
sg7
S'--'
p67
sg9
g10
sg11
S'--'
p68
sg13
g10
sg14
S'--'
p69
sg16
S'2015'
p70
sg18
S'13'
p71
sg20
S'--'
p72
sg22
S'12/06'
p73
sg24
S'--'
p74
sg26
S'Bernard Pierce'
p75
sg28
S'--'
p76
sg30
S'L39-42'
p77
sg32
S'--'
p78
sg34
S'--'
p79
sg36
S'@TEN'
p80
sg38
S'--'
p81
sg40
S'--'
p82
sg42
S'--'
p83
ssS'12'
p84
(dp85
g5
S'--'
p86
sg7
S'--'
p87
sg9
g10
sg11
S'--'
p88
sg13
g10
sg14
S'--'
p89
sg16
S'2015'
p90
sg18
S'12'
p91
sg20
S'--'
p92
sg22
S'11/29'
p93
sg24
S'--'
p94
sg26
S'Bernard Pierce'
p95
sg28
S'--'
p96
sg30
S'L25-31'
p97
sg32
S'--'
p98
sg34
S'--'
p99
sg36
S'SD'
p100
sg38
S'--'
p101
sg40
S'--'
p102
sg42
S'--'
p103
ssS'1'
p104
(dp105
g5
S'4.0'
p106
sg7
S'--'
p107
sg9
g10
sg11
S'--'
p108
sg13
g104
sg14
g10
sg16
S'2015'
p109
sg18
g104
sg20
S'--'
p110
sg22
S'09/13'
p111
sg24
S'--'
p112
sg26
S'Bernard Pierce'
p113
sg28
S'--'
p114
sg30
S'L9-20'
p115
sg32
S'4'
p116
sg34
g104
sg36
S'CAR'
p117
sg38
g116
sg40
S'--'
p118
sg42
S'--'
p119
ssS'3'
p120
(dp121
g5
S'1.5'
p122
sg7
S'--'
p123
sg9
g10
sg11
S'--'
p124
sg13
g104
sg14
g10
sg16
S'2015'
p125
sg18
g120
sg20
S'1.0'
p126
sg22
S'09/27'
p127
sg24
g10
sg26
S'Bernard Pierce'
p128
sg28
g104
sg30
S'L17-51'
p129
sg32
g120
sg34
S'2'
p130
sg36
S'@NE'
p131
sg38
S'6'
p132
sg40
g104
sg42
g104
ssg130
(dp133
g5
S'--'
p134
sg7
S'--'
p135
sg9
g10
sg11
S'--'
p136
sg13
g104
sg14
S'--'
p137
sg16
S'2015'
p138
sg18
g130
sg20
S'1.3'
p139
sg22
S'09/20'
p140
sg24
g10
sg26
S'Bernard Pierce'
p141
sg28
g120
sg30
S'W23-20'
p142
sg32
S'--'
p143
sg34
S'--'
p144
sg36
S'MIA'
p145
sg38
S'--'
p146
sg40
g116
sg42
g120
ssS'5'
p147
(dp148
g5
S'--'
p149
sg7
S'--'
p150
sg9
g10
sg11
S'--'
p151
sg13
g104
sg14
S'--'
p152
sg16
S'2015'
p153
sg18
g147
sg20
S'3.0'
p154
sg22
S'10/11'
p155
sg24
g10
sg26
S'Bernard Pierce'
p156
sg28
g130
sg30
S'L31-38'
p157
sg32
S'--'
p158
sg34
S'--'
p159
sg36
S'@TB'
p160
sg38
S'--'
p161
sg40
g132
sg42
g116
ssg116
(dp162
g5
S'--'
p163
sg7
S'--'
p164
sg9
g10
sg11
S'--'
p165
sg13
g104
sg14
S'--'
p166
sg16
S'2015'
p167
sg18
g116
sg20
S'--'
p168
sg22
S'10/04'
p169
sg24
S'--'
p170
sg26
S'Bernard Pierce'
p171
sg28
S'--'
p172
sg30
S'L13-16'
p173
sg32
S'--'
p174
sg34
S'--'
p175
sg36
S'@IND'
p176
sg38
S'--'
p177
sg40
S'--'
p178
sg42
S'--'
p179
ssS'7'
p180
(dp181
g5
S'--'
p182
sg7
S'--'
p183
sg9
g10
sg11
S'--'
p184
sg13
g104
sg14
S'--'
p185
sg16
S'2015'
p186
sg18
g180
sg20
S'--'
p187
sg22
S'10/25'
p188
sg24
S'--'
p189
sg26
S'Bernard Pierce'
p190
sg28
S'--'
p191
sg30
S'W34-31'
p192
sg32
S'--'
p193
sg34
S'--'
p194
sg36
S'BUF'
p195
sg38
S'--'
p196
sg40
S'--'
p197
sg42
S'--'
p198
ssg132
(dp199
g5
S'--'
p200
sg7
S'--'
p201
sg9
g10
sg11
S'--'
p202
sg13
g10
sg14
S'--'
p203
sg16
S'2015'
p204
sg18
g132
sg20
S'--'
p205
sg22
S'10/18'
p206
sg24
S'--'
p207
sg26
S'Bernard Pierce'
p208
sg28
S'--'
p209
sg30
S'L20-31'
p210
sg32
S'--'
p211
sg34
S'--'
p212
sg36
S'HOU'
p213
sg38
S'--'
p214
sg40
S'--'
p215
sg42
S'--'
p216
ssS'9'
p217
(dp218
g5
S'--'
p219
sg7
S'--'
p220
sg9
g10
sg11
S'--'
p221
sg13
g104
sg14
S'--'
p222
sg16
S'2015'
p223
sg18
g217
sg20
S'--'
p224
sg22
S'11/08'
p225
sg24
S'--'
p226
sg26
S'Bernard Pierce'
p227
sg28
S'--'
p228
sg30
S'L23-28'
p229
sg32
S'--'
p230
sg34
S'--'
p231
sg36
S'@NYJ'
p232
sg38
S'--'
p233
sg40
S'--'
p234
sg42
S'--'
p235
ssS'8'
p236
(dp237
g5
S''
p238
sg7
g238
sg9
g238
sg11
g238
sg13
g238
sg14
g238
sg16
S'2015'
p239
sg18
g236
sg20
g238
sg22
S'Bye'
p240
sg24
g238
sg26
S'Bernard Pierce'
p241
sg28
g238
sg30
g238
sg32
g238
sg34
g238
sg36
g238
sg38
g238
sg40
g238
sg42
g238
sssS'2014'
p242
(dp243
g3
(dp244
g5
g238
sg7
g238
sg9
g238
sg11
g238
sg13
g238
sg14
g238
sg16
S'2014'
p245
sg18
S'11'
p246
sg20
g238
sg22
S'Bye'
p247
sg24
g238
sg26
S'Bernard Pierce'
p248
sg28
g238
sg30
g238
sg32
g238
sg34
g238
sg36
g238
sg38
g238
sg40
g238
sg42
g238
ssg44
(dp249
g5
S'--'
p250
sg7
S'--'
p251
sg9
g10
sg11
S'--'
p252
sg13
g104
sg14
S'--'
p253
sg16
S'2014'
p254
sg18
S'10'
p255
sg20
S'3.9'
p256
sg22
S'11/09'
p257
sg24
g10
sg26
S'Bernard Pierce'
p258
sg28
g236
sg30
S'W21-7'
p259
sg32
S'--'
p260
sg34
S'--'
p261
sg36
S'TEN'
p262
sg38
S'--'
p263
sg40
S'31'
p264
sg42
S'10'
p265
ssg64
(dp266
g5
S'--'
p267
sg7
S'--'
p268
sg9
g10
sg11
S'--'
p269
sg13
g104
sg14
g10
sg16
S'2014'
p270
sg18
S'13'
p271
sg20
S'2.7'
p272
sg22
S'11/30'
p273
sg24
g10
sg26
S'Bernard Pierce'
p274
sg28
g132
sg30
S'L33-34'
p275
sg32
g10
sg34
g10
sg36
S'SD'
p276
sg38
S'--'
p277
sg40
S'16'
p278
sg42
g132
ssg84
(dp279
g5
S'6.0'
p280
sg7
S'--'
p281
sg9
g10
sg11
S'--'
p282
sg13
g104
sg14
g10
sg16
S'2014'
p283
sg18
S'12'
p284
sg20
S'4.0'
p285
sg22
S'11/24'
p286
sg24
g10
sg26
S'Bernard Pierce'
p287
sg28
g180
sg30
S'W34-27'
p288
sg32
g132
sg34
g104
sg36
S'@NO'
p289
sg38
g132
sg40
S'28'
p290
sg42
S'26'
p291
ssS'15'
p292
(dp293
g5
S'--'
p294
sg7
S'--'
p295
sg9
g10
sg11
S'--'
p296
sg13
g104
sg14
g10
sg16
S'2014'
p297
sg18
S'15'
p298
sg20
S'6.2'
p299
sg22
S'12/14'
p300
sg24
g10
sg26
S'Bernard Pierce'
p301
sg28
g132
sg30
S'W20-12'
p302
sg32
g10
sg34
g10
sg36
S'JAC'
p303
sg38
S'--'
p304
sg40
S'37'
p305
sg42
S'28'
p306
ssS'14'
p307
(dp308
g5
S'--'
p309
sg7
S'--'
p310
sg9
g10
sg11
S'--'
p311
sg13
g104
sg14
S'--'
p312
sg16
S'2014'
p313
sg18
S'14'
p314
sg20
S'16.7'
p315
sg22
S'12/07'
p316
sg24
g10
sg26
S'Bernard Pierce'
p317
sg28
g120
sg30
S'W28-13'
p318
sg32
S'--'
p319
sg34
S'--'
p320
sg36
S'@MIA'
p321
sg38
S'--'
p322
sg40
S'50'
p323
sg42
S'27'
p324
ssS'17'
p325
(dp326
g5
S'--'
p327
sg7
S'--'
p328
sg9
g10
sg11
S'--'
p329
sg13
g104
sg14
S'--'
p330
sg16
S'2014'
p331
sg18
S'17'
p332
sg20
S'1.3'
p333
sg22
S'12/28'
p334
sg24
g10
sg26
S'Bernard Pierce'
p335
sg28
g132
sg30
S'W20-10'
p336
sg32
S'--'
p337
sg34
S'--'
p338
sg36
S'CLE'
p339
sg38
S'--'
p340
sg40
g236
sg42
g116
ssS'16'
p341
(dp342
g5
S'--'
p343
sg7
S'--'
p344
sg9
g10
sg11
S'--'
p345
sg13
g104
sg14
S'--'
p346
sg16
S'2014'
p347
sg18
S'16'
p348
sg20
S'-2.0'
p349
sg22
S'12/21'
p350
sg24
g10
sg26
S'Bernard Pierce'
p351
sg28
g104
sg30
S'L13-25'
p352
sg32
S'--'
p353
sg34
S'--'
p354
sg36
S'@HOU'
p355
sg38
S'--'
p356
sg40
S'-2'
p357
sg42
S'-2'
p358
ssg104
(dp359
g5
S'--'
p360
sg7
g104
sg9
g104
sg11
g104
sg13
g104
sg14
S'--'
p361
sg16
S'2014'
p362
sg18
g104
sg20
S'2.8'
p363
sg22
S'09/07'
p364
sg24
g10
sg26
S'Bernard Pierce'
p365
sg28
g132
sg30
S'L16-23'
p366
sg32
S'--'
p367
sg34
S'--'
p368
sg36
S'CIN'
p369
sg38
S'--'
p370
sg40
S'17'
p371
sg42
g132
ssg120
(dp372
g5
S'--'
p373
sg7
S'--'
p374
sg9
g10
sg11
S'--'
p375
sg13
g10
sg14
S'--'
p376
sg16
S'2014'
p377
sg18
g120
sg20
S'--'
p378
sg22
S'09/21'
p379
sg24
S'--'
p380
sg26
S'Bernard Pierce'
p381
sg28
S'--'
p382
sg30
S'W23-21'
p383
sg32
S'--'
p384
sg34
S'--'
p385
sg36
S'@CLE'
p386
sg38
S'--'
p387
sg40
S'--'
p388
sg42
S'--'
p389
ssg130
(dp390
g5
S'7.0'
p391
sg7
S'--'
p392
sg9
g104
sg11
S'--'
p393
sg13
g104
sg14
g10
sg16
S'2014'
p394
sg18
g130
sg20
S'4.4'
p395
sg22
S'09/11'
p396
sg24
g10
sg26
S'Bernard Pierce'
p397
sg28
S'22'
p398
sg30
S'W26-6'
p399
sg32
g180
sg34
g104
sg36
S'PIT'
p400
sg38
g180
sg40
S'96'
p401
sg42
S'17'
p402
ssg147
(dp403
g5
S'--'
p404
sg7
S'--'
p405
sg9
g10
sg11
S'--'
p406
sg13
g104
sg14
S'--'
p407
sg16
S'2014'
p408
sg18
g147
sg20
S'7.5'
p409
sg22
S'10/05'
p410
sg24
g10
sg26
S'Bernard Pierce'
p411
sg28
g116
sg30
S'L13-20'
p412
sg32
S'--'
p413
sg34
S'--'
p414
sg36
S'@IND'
p415
sg38
S'--'
p416
sg40
S'30'
p417
sg42
S'13'
p418
ssg116
(dp419
g5
S'--'
p420
sg7
S'--'
p421
sg9
g10
sg11
S'--'
p422
sg13
g10
sg14
S'--'
p423
sg16
S'2014'
p424
sg18
g116
sg20
S'--'
p425
sg22
S'09/28'
p426
sg24
S'--'
p427
sg26
S'Bernard Pierce'
p428
sg28
S'--'
p429
sg30
S'W38-10'
p430
sg32
S'--'
p431
sg34
S'--'
p432
sg36
S'CAR'
p433
sg38
S'--'
p434
sg40
S'--'
p435
sg42
S'--'
p436
ssg180
(dp437
g5
S'--'
p438
sg7
S'--'
p439
sg9
g10
sg11
S'--'
p440
sg13
g104
sg14
g10
sg16
S'2014'
p441
sg18
g180
sg20
S'2.6'
p442
sg22
S'10/19'
p443
sg24
g104
sg26
S'Bernard Pierce'
p444
sg28
g236
sg30
S'W29-7'
p445
sg32
g10
sg34
g10
sg36
S'ATL'
p446
sg38
S'--'
p447
sg40
S'21'
p448
sg42
S'11'
p449
ssg132
(dp450
g5
S'--'
p451
sg7
S'--'
p452
sg9
g10
sg11
S'--'
p453
sg13
g104
sg14
S'--'
p454
sg16
S'2014'
p455
sg18
g132
sg20
S'2.1'
p456
sg22
S'10/12'
p457
sg24
g104
sg26
S'Bernard Pierce'
p458
sg28
S'15'
p459
sg30
S'W48-17'
p460
sg32
S'--'
p461
sg34
S'--'
p462
sg36
S'@TB'
p463
sg38
S'--'
p464
sg40
S'32'
p465
sg42
g132
ssg217
(dp466
g5
S'--'
p467
sg7
S'--'
p468
sg9
g10
sg11
S'--'
p469
sg13
g104
sg14
S'--'
p470
sg16
S'2014'
p471
sg18
g217
sg20
S'2.0'
p472
sg22
S'11/02'
p473
sg24
g10
sg26
S'Bernard Pierce'
p474
sg28
g104
sg30
S'L23-43'
p475
sg32
S'--'
p476
sg34
S'--'
p477
sg36
S'@PIT'
p478
sg38
S'--'
p479
sg40
g130
sg42
g130
ssg236
(dp480
g5
S'--'
p481
sg7
S'--'
p482
sg9
g10
sg11
S'--'
p483
sg13
g10
sg14
S'--'
p484
sg16
S'2014'
p485
sg18
g236
sg20
S'--'
p486
sg22
S'10/26'
p487
sg24
S'--'
p488
sg26
S'Bernard Pierce'
p489
sg28
S'--'
p490
sg30
S'L24-27'
p491
sg32
S'--'
p492
sg34
S'--'
p493
sg36
S'@CIN'
p494
sg38
S'--'
p495
sg40
S'--'
p496
sg42
S'--'
p497
sssS'2013'
p498
(dp499
g3
(dp500
g5
S'--'
p501
sg7
S'--'
p502
sg9
g10
sg11
S'--'
p503
sg13
g104
sg14
S'--'
p504
sg16
S'2013'
p505
sg18
S'11'
p506
sg20
S'1.8'
p507
sg22
S'11/17'
p508
sg24
g10
sg26
S'Bernard Pierce'
p509
sg28
S'10'
p510
sg30
S'L20-23'
p511
sg32
S'--'
p512
sg34
S'--'
p513
sg36
S'@CHI'
p514
sg38
S'--'
p515
sg40
S'18'
p516
sg42
g236
ssg44
(dp517
g5
S'6.0'
p518
sg7
S'--'
p519
sg9
g10
sg11
S'--'
p520
sg13
g104
sg14
g10
sg16
S'2013'
p521
sg18
S'10'
p522
sg20
S'3.9'
p523
sg22
S'11/10'
p524
sg24
g10
sg26
S'Bernard Pierce'
p525
sg28
g236
sg30
S'W20-17'
p526
sg32
S'12'
p527
sg34
g130
sg36
S'CIN'
p528
sg38
S'12'
p529
sg40
S'31'
p530
sg42
g217
ssg64
(dp531
g5
S'1.3'
p532
sg7
S'--'
p533
sg9
g10
sg11
S'--'
p534
sg13
g104
sg14
g10
sg16
S'2013'
p535
sg18
S'13'
p536
sg20
S'3.9'
p537
sg22
S'11/28'
p538
sg24
g10
sg26
S'Bernard Pierce'
p539
sg28
g217
sg30
S'W22-20'
p540
sg32
g116
sg34
g120
sg36
S'PIT'
p541
sg38
g130
sg40
S'35'
p542
sg42
S'12'
p543
ssg84
(dp544
g5
S'--'
p545
sg7
S'--'
p546
sg9
g10
sg11
S'--'
p547
sg13
g104
sg14
S'--'
p548
sg16
S'2013'
p549
sg18
S'12'
p550
sg20
S'2.7'
p551
sg22
S'11/24'
p552
sg24
g10
sg26
S'Bernard Pierce'
p553
sg28
S'11'
p554
sg30
S'W19-3'
p555
sg32
S'--'
p556
sg34
S'--'
p557
sg36
S'NYJ'
p558
sg38
S'--'
p559
sg40
S'30'
p560
sg42
S'10'
p561
ssg292
(dp562
g5
S'--'
p563
sg7
S'--'
p564
sg9
g10
sg11
S'--'
p565
sg13
g104
sg14
S'--'
p566
sg16
S'2013'
p567
sg18
S'15'
p568
sg20
S'3.0'
p569
sg22
S'12/16'
p570
sg24
g10
sg26
S'Bernard Pierce'
p571
sg28
g180
sg30
S'W18-16'
p572
sg32
S'--'
p573
sg34
S'--'
p574
sg36
S'@DET'
p575
sg38
S'--'
p576
sg40
S'21'
p577
sg42
S'11'
p578
ssg307
(dp579
g5
S'5.0'
p580
sg7
S'--'
p581
sg9
g10
sg11
S'--'
p582
sg13
g104
sg14
g10
sg16
S'2013'
p583
sg18
S'14'
p584
sg20
S'1.7'
p585
sg22
S'12/08'
p586
sg24
g10
sg26
S'Bernard Pierce'
p587
sg28
g180
sg30
S'W29-26'
p588
sg32
g147
sg34
g104
sg36
S'MIN'
p589
sg38
g147
sg40
S'12'
p590
sg42
g132
ssg325
(dp591
g5
S'4.5'
p592
sg7
S'--'
p593
sg9
g10
sg11
S'--'
p594
sg13
g104
sg14
g10
sg16
S'2013'
p595
sg18
S'17'
p596
sg20
S'5.6'
p597
sg22
S'12/29'
p598
sg24
g10
sg26
S'Bernard Pierce'
p599
sg28
g147
sg30
S'L17-34'
p600
sg32
S'18'
p601
sg34
g116
sg36
S'@CIN'
p602
sg38
g236
sg40
S'28'
p603
sg42
S'14'
p604
ssg341
(dp605
g5
S'9.0'
p606
sg7
S'--'
p607
sg9
g10
sg11
S'--'
p608
sg13
g104
sg14
g10
sg16
S'2013'
p609
sg18
S'16'
p610
sg20
S'3.1'
p611
sg22
S'12/22'
p612
sg24
g10
sg26
S'Bernard Pierce'
p613
sg28
S'10'
p614
sg30
S'L7-41'
p615
sg32
S'27'
p616
sg34
g120
sg36
S'NE'
p617
sg38
S'15'
p618
sg40
S'31'
p619
sg42
g132
ssg104
(dp620
g5
S'--'
p621
sg7
S'--'
p622
sg9
g10
sg11
S'--'
p623
sg13
g104
sg14
g10
sg16
S'2013'
p624
sg18
g104
sg20
S'2.4'
p625
sg22
S'09/05'
p626
sg24
g10
sg26
S'Bernard Pierce'
p627
sg28
g217
sg30
S'L27-49'
p628
sg32
g10
sg34
g10
sg36
S'@DEN'
p629
sg38
S'--'
p630
sg40
S'22'
p631
sg42
S'14'
p632
ssg120
(dp633
g5
S'3.5'
p634
sg7
S'--'
p635
sg9
g104
sg11
S'--'
p636
sg13
g104
sg14
g10
sg16
S'2013'
p637
sg18
g120
sg20
S'2.7'
p638
sg22
S'09/22'
p639
sg24
g104
sg26
S'Bernard Pierce'
p640
sg28
S'24'
p641
sg30
S'W30-9'
p642
sg32
g180
sg34
g130
sg36
S'HOU'
p643
sg38
g147
sg40
S'65'
p644
sg42
S'25'
p645
ssg130
(dp646
g5
S'-2.0'
p647
sg7
S'--'
p648
sg9
g10
sg11
S'--'
p649
sg13
g104
sg14
g10
sg16
S'2013'
p650
sg18
g130
sg20
S'3.0'
p651
sg22
S'09/15'
p652
sg24
g104
sg26
S'Bernard Pierce'
p653
sg28
S'19'
p654
sg30
S'W14-6'
p655
sg32
S'-2'
p656
sg34
g104
sg36
S'CLE'
p657
sg38
S'-2'
p658
sg40
S'57'
p659
sg42
g236
ssg147
(dp660
g5
S'--'
p661
sg7
S'--'
p662
sg9
g10
sg11
S'--'
p663
sg13
g104
sg14
S'--'
p664
sg16
S'2013'
p665
sg18
g147
sg20
S'4.2'
p666
sg22
S'10/06'
p667
sg24
g10
sg26
S'Bernard Pierce'
p668
sg28
S'11'
p669
sg30
S'W26-23'
p670
sg32
S'--'
p671
sg34
S'--'
p672
sg36
S'@MIA'
p673
sg38
S'--'
p674
sg40
S'46'
p675
sg42
S'28'
p676
ssg116
(dp677
g5
S'2.0'
p678
sg7
S'--'
p679
sg9
g10
sg11
S'--'
p680
sg13
g104
sg14
g10
sg16
S'2013'
p681
sg18
g116
sg20
S'1.8'
p682
sg22
S'09/29'
p683
sg24
g10
sg26
S'Bernard Pierce'
p684
sg28
g116
sg30
S'L20-23'
p685
sg32
g130
sg34
g104
sg36
S'@BUF'
p686
sg38
g130
sg40
g180
sg42
g120
ssg180
(dp687
g5
S'9.0'
p688
sg7
S'--'
p689
sg9
g10
sg11
S'--'
p690
sg13
g104
sg14
g10
sg16
S'2013'
p691
sg18
g180
sg20
S'2.2'
p692
sg22
S'10/20'
p693
sg24
g10
sg26
S'Bernard Pierce'
p694
sg28
g132
sg30
S'L16-19'
p695
sg32
g217
sg34
g104
sg36
S'@PIT'
p696
sg38
g217
sg40
S'13'
p697
sg42
g132
ssg132
(dp698
g5
S'11.0'
p699
sg7
S'--'
p700
sg9
g10
sg11
S'--'
p701
sg13
g104
sg14
g10
sg16
S'2013'
p702
sg18
g132
sg20
S'1.5'
p703
sg22
S'10/13'
p704
sg24
g10
sg26
S'Bernard Pierce'
p705
sg28
g132
sg30
S'L17-19'
p706
sg32
S'22'
p707
sg34
g130
sg36
S'GB'
p708
sg38
S'14'
p709
sg40
g217
sg42
S'10'
p710
ssg217
(dp711
g5
S'--'
p712
sg7
S'--'
p713
sg9
g10
sg11
S'--'
p714
sg13
g104
sg14
S'--'
p715
sg16
S'2013'
p716
sg18
g217
sg20
S'1.8'
p717
sg22
S'11/03'
p718
sg24
g10
sg26
S'Bernard Pierce'
p719
sg28
g132
sg30
S'L18-24'
p720
sg32
S'--'
p721
sg34
S'--'
p722
sg36
S'@CLE'
p723
sg38
S'--'
p724
sg40
S'11'
p725
sg42
g180
ssg236
(dp726
g5
g238
sg7
g238
sg9
g238
sg11
g238
sg13
g238
sg14
g238
sg16
S'2013'
p727
sg18
g236
sg20
g238
sg22
S'Bye'
p728
sg24
g238
sg26
S'Bernard Pierce'
p729
sg28
g238
sg30
g238
sg32
g238
sg34
g238
sg36
g238
sg38
g238
sg40
g238
sg42
g238
sssS'2012'
p730
(dp731
g3
(dp732
g5
S'11.0'
p733
sg7
S'--'
p734
sg9
g10
sg11
S'--'
p735
sg13
g104
sg14
g10
sg16
S'2012'
p736
sg18
S'11'
p737
sg20
S'4.0'
p738
sg22
S'11/18'
p739
sg24
g10
sg26
S'Bernard Pierce'
p740
sg28
g130
sg30
S'W13-10'
p741
sg32
S'11'
p742
sg34
g104
sg36
S'@PIT'
p743
sg38
S'11'
p744
sg40
g236
sg42
g116
ssg44
(dp745
g5
S'--'
p746
sg7
S'--'
p747
sg9
g10
sg11
S'--'
p748
sg13
g104
sg14
S'--'
p749
sg16
S'2012'
p750
sg18
S'10'
p751
sg20
S'2.3'
p752
sg22
S'11/11'
p753
sg24
g10
sg26
S'Bernard Pierce'
p754
sg28
S'10'
p755
sg30
S'W55-20'
p756
sg32
S'--'
p757
sg34
S'--'
p758
sg36
S'OAK'
p759
sg38
S'--'
p760
sg40
S'23'
p761
sg42
S'12'
p762
ssg64
(dp763
g5
S'5.0'
p764
sg7
S'--'
p765
sg9
g10
sg11
S'--'
p766
sg13
g104
sg14
g10
sg16
S'2012'
p767
sg18
S'13'
p768
sg20
S'4.3'
p769
sg22
S'12/02'
p770
sg24
g10
sg26
S'Bernard Pierce'
p771
sg28
g236
sg30
S'L20-23'
p772
sg32
g147
sg34
g104
sg36
S'PIT'
p773
sg38
g147
sg40
S'34'
p774
sg42
S'11'
p775
ssg84
(dp776
g5
S'--'
p777
sg7
S'--'
p778
sg9
g10
sg11
S'--'
p779
sg13
g104
sg14
S'--'
p780
sg16
S'2012'
p781
sg18
S'12'
p782
sg20
S'3.8'
p783
sg22
S'11/25'
p784
sg24
g10
sg26
S'Bernard Pierce'
p785
sg28
g217
sg30
S'W16-13'
p786
sg32
S'--'
p787
sg34
S'--'
p788
sg36
S'@SD'
p789
sg38
S'--'
p790
sg40
S'34'
p791
sg42
S'18'
p792
ssg292
(dp793
g5
S'--'
p794
sg7
S'--'
p795
sg9
g10
sg11
S'--'
p796
sg13
g104
sg14
S'--'
p797
sg16
S'2012'
p798
sg18
S'15'
p799
sg20
S'4.0'
p800
sg22
S'12/16'
p801
sg24
g10
sg26
S'Bernard Pierce'
p802
sg28
g147
sg30
S'L17-34'
p803
sg32
S'--'
p804
sg34
S'--'
p805
sg36
S'DEN'
p806
sg38
S'--'
p807
sg40
S'20'
p808
sg42
S'14'
p809
ssg307
(dp810
g5
S'5.5'
p811
sg7
S'--'
p812
sg9
g10
sg11
S'--'
p813
sg13
g104
sg14
g10
sg16
S'2012'
p814
sg18
S'14'
p815
sg20
S'6.6'
p816
sg22
S'12/09'
p817
sg24
g10
sg26
S'Bernard Pierce'
p818
sg28
g236
sg30
S'L28-31'
p819
sg32
S'11'
p820
sg34
g130
sg36
S'@WAS'
p821
sg38
S'11'
p822
sg40
S'53'
p823
sg42
S'21'
p824
ssg325
(dp825
g5
S'4.0'
p826
sg7
S'--'
p827
sg9
g10
sg11
S'--'
p828
sg13
g104
sg14
g10
sg16
S'2012'
p829
sg18
S'17'
p830
sg20
S'4.0'
p831
sg22
S'12/30'
p832
sg24
g10
sg26
S'Bernard Pierce'
p833
sg28
S'22'
p834
sg30
S'L17-23'
p835
sg32
g116
sg34
g104
sg36
S'@CIN'
p836
sg38
g116
sg40
S'89'
p837
sg42
S'14'
p838
ssg341
(dp839
g5
S'--'
p840
sg7
S'--'
p841
sg9
g10
sg11
S'--'
p842
sg13
g104
sg14
g10
sg16
S'2012'
p843
sg18
S'16'
p844
sg20
S'8.8'
p845
sg22
S'12/23'
p846
sg24
g10
sg26
S'Bernard Pierce'
p847
sg28
S'14'
p848
sg30
S'W33-14'
p849
sg32
g10
sg34
g10
sg36
S'NYG'
p850
sg38
S'--'
p851
sg40
S'123'
p852
sg42
S'78'
p853
ssg104
(dp854
g5
S'--'
p855
sg7
S'--'
p856
sg9
g10
sg11
S'--'
p857
sg13
g104
sg14
S'--'
p858
sg16
S'2012'
p859
sg18
g104
sg20
S'4.8'
p860
sg22
S'09/10'
p861
sg24
g10
sg26
S'Bernard Pierce'
p862
sg28
g116
sg30
S'W44-13'
p863
sg32
S'--'
p864
sg34
S'--'
p865
sg36
S'CIN'
p866
sg38
S'--'
p867
sg40
S'19'
p868
sg42
S'11'
p869
ssg120
(dp870
g5
S'10.0'
p871
sg7
S'--'
p872
sg9
g10
sg11
S'--'
p873
sg13
g104
sg14
g10
sg16
S'2012'
p874
sg18
g120
sg20
S'4.3'
p875
sg22
S'09/23'
p876
sg24
g10
sg26
S'Bernard Pierce'
p877
sg28
g116
sg30
S'W31-30'
p878
sg32
S'10'
p879
sg34
g104
sg36
S'NE'
p880
sg38
S'10'
p881
sg40
S'17'
p882
sg42
g236
ssg130
(dp883
g5
S'--'
p884
sg7
S'--'
p885
sg9
g10
sg11
S'--'
p886
sg13
g104
sg14
S'--'
p887
sg16
S'2012'
p888
sg18
g130
sg20
S'1.3'
p889
sg22
S'09/16'
p890
sg24
g10
sg26
S'Bernard Pierce'
p891
sg28
g120
sg30
S'L23-24'
p892
sg32
S'--'
p893
sg34
S'--'
p894
sg36
S'@PHI'
p895
sg38
S'--'
p896
sg40
g116
sg42
g132
ssg147
(dp897
g5
S'--'
p898
sg7
S'--'
p899
sg9
g10
sg11
S'--'
p900
sg13
g104
sg14
S'--'
p901
sg16
S'2012'
p902
sg18
g147
sg20
S'6.5'
p903
sg22
S'10/07'
p904
sg24
g10
sg26
S'Bernard Pierce'
p905
sg28
g130
sg30
S'W9-6'
p906
sg32
S'--'
p907
sg34
S'--'
p908
sg36
S'@KC'
p909
sg38
S'--'
p910
sg40
S'13'
p911
sg42
S'12'
p912
ssg116
(dp913
g5
S'--'
p914
sg7
S'--'
p915
sg9
g10
sg11
S'--'
p916
sg13
g104
sg14
S'--'
p917
sg16
S'2012'
p918
sg18
g116
sg20
S'8.0'
p919
sg22
S'09/27'
p920
sg24
g10
sg26
S'Bernard Pierce'
p921
sg28
g132
sg30
S'W23-16'
p922
sg32
S'--'
p923
sg34
S'--'
p924
sg36
S'CLE'
p925
sg38
S'--'
p926
sg40
S'48'
p927
sg42
S'21'
p928
ssg180
(dp929
g5
S'--'
p930
sg7
S'--'
p931
sg9
g10
sg11
S'--'
p932
sg13
g104
sg14
S'--'
p933
sg16
S'2012'
p934
sg18
g180
sg20
S'--'
p935
sg22
S'10/21'
p936
sg24
S'--'
p937
sg26
S'Bernard Pierce'
p938
sg28
S'--'
p939
sg30
S'L13-43'
p940
sg32
S'--'
p941
sg34
S'--'
p942
sg36
S'@HOU'
p943
sg38
S'--'
p944
sg40
S'--'
p945
sg42
S'--'
p946
ssg132
(dp947
g5
S'6.0'
p948
sg7
S'--'
p949
sg9
g10
sg11
S'--'
p950
sg13
g104
sg14
g10
sg16
S'2012'
p951
sg18
g132
sg20
S'5.3'
p952
sg22
S'10/14'
p953
sg24
g10
sg26
S'Bernard Pierce'
p954
sg28
g116
sg30
S'W31-29'
p955
sg32
g132
sg34
g104
sg36
S'DAL'
p956
sg38
g132
sg40
S'21'
p957
sg42
S'16'
p958
ssg217
(dp959
g5
S'--'
p960
sg7
S'--'
p961
sg9
g10
sg11
S'--'
p962
sg13
g104
sg14
S'--'
p963
sg16
S'2012'
p964
sg18
g217
sg20
S'3.7'
p965
sg22
S'11/04'
p966
sg24
g104
sg26
S'Bernard Pierce'
p967
sg28
g180
sg30
S'W25-15'
p968
sg32
S'--'
p969
sg34
S'--'
p970
sg36
S'@CLE'
p971
sg38
S'--'
p972
sg40
S'26'
p973
sg42
S'12T'
p974
ssg236
(dp975
g5
g238
sg7
g238
sg9
g238
sg11
g238
sg13
g238
sg14
g238
sg16
S'2012'
p976
sg18
g236
sg20
g238
sg22
S'Bye'
p977
sg24
g238
sg26
S'Bernard Pierce'
p978
sg28
g238
sg30
g238
sg32
g238
sg34
g238
sg36
g238
sg38
g238
sg40
g238
sg42
g238
sss.