(dp0
S'2015'
p1
(dp2
S'11'
p3
(dp4
S'RecAvg'
p5
S'--'
p6
sS'FUM'
p7
S'--'
p8
sS'GS'
p9
S'0'
p10
sS'Lost'
p11
S'--'
p12
sS'G'
p13
g10
sS'RecTD'
p14
S'--'
p15
sS'Year'
p16
S'2015'
p17
sS'WK'
p18
S'11'
p19
sS'RushAvg'
p20
S'--'
p21
sS'Game Date'
p22
S'11/19'
p23
sS'RushTD'
p24
S'--'
p25
sS'Player'
p26
S'Bishop Sankey'
p27
sS'RushAtt'
p28
S'--'
p29
sS'Result'
p30
S'L13-19'
p31
sS'RecYds'
p32
S'--'
p33
sS'Rec'
p34
S'--'
p35
sS'Opp'
p36
S'@JAC'
p37
sS'RecLng'
p38
S'--'
p39
sS'RushYds'
p40
S'--'
p41
sS'RushLng'
p42
S'--'
p43
ssS'10'
p44
(dp45
g5
S'--'
p46
sg7
S'--'
p47
sg9
g10
sg11
S'--'
p48
sg13
S'1'
p49
sg14
S'--'
p50
sg16
S'2015'
p51
sg18
S'10'
p52
sg20
S'3.5'
p53
sg22
S'11/15'
p54
sg24
g10
sg26
S'Bishop Sankey'
p55
sg28
S'2'
p56
sg30
S'L10-27'
p57
sg32
S'--'
p58
sg34
S'--'
p59
sg36
S'CAR'
p60
sg38
S'--'
p61
sg40
S'7'
p62
sg42
S'5'
p63
ssS'13'
p64
(dp65
g5
S'--'
p66
sg7
S'--'
p67
sg9
g10
sg11
S'--'
p68
sg13
g49
sg14
g10
sg16
S'2015'
p69
sg18
S'13'
p70
sg20
S'--'
p71
sg22
S'12/06'
p72
sg24
S'--'
p73
sg26
S'Bishop Sankey'
p74
sg28
S'--'
p75
sg30
S'W42-39'
p76
sg32
g10
sg34
g10
sg36
S'JAC'
p77
sg38
S'--'
p78
sg40
S'--'
p79
sg42
S'--'
p80
ssS'12'
p81
(dp82
g5
S'--'
p83
sg7
S'--'
p84
sg9
g10
sg11
S'--'
p85
sg13
g49
sg14
S'--'
p86
sg16
S'2015'
p87
sg18
S'12'
p88
sg20
S'--'
p89
sg22
S'11/29'
p90
sg24
S'--'
p91
sg26
S'Bishop Sankey'
p92
sg28
S'--'
p93
sg30
S'L21-24'
p94
sg32
S'--'
p95
sg34
S'--'
p96
sg36
S'OAK'
p97
sg38
S'--'
p98
sg40
S'--'
p99
sg42
S'--'
p100
ssS'15'
p101
(dp102
g5
S'7.7'
p103
sg7
S'--'
p104
sg9
g10
sg11
S'--'
p105
sg13
g49
sg14
g10
sg16
S'2015'
p106
sg18
S'15'
p107
sg20
S'--'
p108
sg22
S'12/20'
p109
sg24
S'--'
p110
sg26
S'Bishop Sankey'
p111
sg28
S'--'
p112
sg30
S'L16-33'
p113
sg32
S'23'
p114
sg34
S'3'
p115
sg36
S'@NE'
p116
sg38
S'15'
p117
sg40
S'--'
p118
sg42
S'--'
p119
ssS'14'
p120
(dp121
g5
S'--'
p122
sg7
S'--'
p123
sg9
g10
sg11
S'--'
p124
sg13
g10
sg14
S'--'
p125
sg16
S'2015'
p126
sg18
S'14'
p127
sg20
S'--'
p128
sg22
S'12/13'
p129
sg24
S'--'
p130
sg26
S'Bishop Sankey'
p131
sg28
S'--'
p132
sg30
S'L8-30'
p133
sg32
S'--'
p134
sg34
S'--'
p135
sg36
S'@NYJ'
p136
sg38
S'--'
p137
sg40
S'--'
p138
sg42
S'--'
p139
ssS'17'
p140
(dp141
g5
S'--'
p142
sg7
S'--'
p143
sg9
g10
sg11
S'--'
p144
sg13
g49
sg14
S'--'
p145
sg16
S'2015'
p146
sg18
S'17'
p147
sg20
S'4.0'
p148
sg22
S'01/03'
p149
sg24
g10
sg26
S'Bishop Sankey'
p150
sg28
S'4'
p151
sg30
S'L24-30'
p152
sg32
S'--'
p153
sg34
S'--'
p154
sg36
S'@IND'
p155
sg38
S'--'
p156
sg40
S'16'
p157
sg42
g63
ssS'16'
p158
(dp159
g5
S'14.3'
p160
sg7
S'--'
p161
sg9
g10
sg11
S'--'
p162
sg13
g49
sg14
g10
sg16
S'2015'
p163
sg18
S'16'
p164
sg20
S'5.5'
p165
sg22
S'12/27'
p166
sg24
g10
sg26
S'Bishop Sankey'
p167
sg28
g56
sg30
S'L6-34'
p168
sg32
S'43'
p169
sg34
g115
sg36
S'HOU'
p170
sg38
S'30'
p171
sg40
S'11'
p172
sg42
g62
ssg49
(dp173
g5
S'6.0'
p174
sg7
g49
sg9
g49
sg11
g10
sg13
g49
sg14
g49
sg16
S'2015'
p175
sg18
g49
sg20
S'6.2'
p176
sg22
S'09/13'
p177
sg24
g49
sg26
S'Bishop Sankey'
p178
sg28
S'12'
p179
sg30
S'W42-14'
p180
sg32
S'12'
p181
sg34
g56
sg36
S'@TB'
p182
sg38
S'12T'
p183
sg40
S'74'
p184
sg42
S'16'
p185
ssg115
(dp186
g5
S'15.5'
p187
sg7
S'--'
p188
sg9
g10
sg11
S'--'
p189
sg13
g49
sg14
g10
sg16
S'2015'
p190
sg18
g115
sg20
S'2.0'
p191
sg22
S'09/27'
p192
sg24
g10
sg26
S'Bishop Sankey'
p193
sg28
g63
sg30
S'L33-35'
p194
sg32
S'31'
p195
sg34
g56
sg36
S'IND'
p196
sg38
S'20'
p197
sg40
S'10'
p198
sg42
S'8'
p199
ssg56
(dp200
g5
S'--'
p201
sg7
S'--'
p202
sg9
g49
sg11
S'--'
p203
sg13
g49
sg14
g10
sg16
S'2015'
p204
sg18
g56
sg20
S'3.5'
p205
sg22
S'09/20'
p206
sg24
g10
sg26
S'Bishop Sankey'
p207
sg28
S'12'
p208
sg30
S'L14-28'
p209
sg32
g10
sg34
g10
sg36
S'@CLE'
p210
sg38
S'--'
p211
sg40
S'42'
p212
sg42
g199
ssg63
(dp213
g5
S'7.7'
p214
sg7
S'--'
p215
sg9
g49
sg11
S'--'
p216
sg13
g49
sg14
g10
sg16
S'2015'
p217
sg18
g63
sg20
S'2.9'
p218
sg22
S'10/11'
p219
sg24
g10
sg26
S'Bishop Sankey'
p220
sg28
g62
sg30
S'L13-14'
p221
sg32
S'23'
p222
sg34
g115
sg36
S'BUF'
p223
sg38
S'12'
p224
sg40
S'20'
p225
sg42
S'9'
p226
ssg151
(dp227
g5
S''
p228
sg7
g228
sg9
g228
sg11
g228
sg13
g228
sg14
g228
sg16
S'2015'
p229
sg18
g151
sg20
g228
sg22
S'Bye'
p230
sg24
g228
sg26
S'Bishop Sankey'
p231
sg28
g228
sg30
g228
sg32
g228
sg34
g228
sg36
g228
sg38
g228
sg40
g228
sg42
g228
ssg62
(dp232
g5
S'--'
p233
sg7
S'--'
p234
sg9
g10
sg11
S'--'
p235
sg13
g49
sg14
g10
sg16
S'2015'
p236
sg18
g62
sg20
S'--'
p237
sg22
S'10/25'
p238
sg24
S'--'
p239
sg26
S'Bishop Sankey'
p240
sg28
S'--'
p241
sg30
S'L7-10'
p242
sg32
g10
sg34
g10
sg36
S'ATL'
p243
sg38
S'--'
p244
sg40
S'--'
p245
sg42
S'--'
p246
ssS'6'
p247
(dp248
g5
S'7.0'
p249
sg7
S'--'
p250
sg9
g10
sg11
S'--'
p251
sg13
g49
sg14
g10
sg16
S'2015'
p252
sg18
g247
sg20
S'4.3'
p253
sg22
S'10/18'
p254
sg24
g10
sg26
S'Bishop Sankey'
p255
sg28
g115
sg30
S'L10-38'
p256
sg32
g62
sg34
g49
sg36
S'MIA'
p257
sg38
g62
sg40
S'13'
p258
sg42
g226
ssg226
(dp259
g5
S'--'
p260
sg7
S'--'
p261
sg9
g10
sg11
S'--'
p262
sg13
g10
sg14
S'--'
p263
sg16
S'2015'
p264
sg18
g226
sg20
S'--'
p265
sg22
S'11/08'
p266
sg24
S'--'
p267
sg26
S'Bishop Sankey'
p268
sg28
S'--'
p269
sg30
S'W34-28'
p270
sg32
S'--'
p271
sg34
S'--'
p272
sg36
S'@NO'
p273
sg38
S'--'
p274
sg40
S'--'
p275
sg42
S'--'
p276
ssg199
(dp277
g5
S'--'
p278
sg7
g49
sg9
g10
sg11
g49
sg13
g49
sg14
S'--'
p279
sg16
S'2015'
p280
sg18
g199
sg20
S'--'
p281
sg22
S'11/01'
p282
sg24
S'--'
p283
sg26
S'Bishop Sankey'
p284
sg28
S'--'
p285
sg30
S'L6-20'
p286
sg32
S'--'
p287
sg34
S'--'
p288
sg36
S'@HOU'
p289
sg38
S'--'
p290
sg40
S'--'
p291
sg42
S'--'
p292
sssS'2014'
p293
(dp294
g3
(dp295
g5
S'7.0'
p296
sg7
S'--'
p297
sg9
g49
sg11
S'--'
p298
sg13
g49
sg14
g10
sg16
S'2014'
p299
sg18
S'11'
p300
sg20
S'3.5'
p301
sg22
S'11/17'
p302
sg24
g49
sg26
S'Bishop Sankey'
p303
sg28
S'11'
p304
sg30
S'L24-27'
p305
sg32
g62
sg34
g49
sg36
S'PIT'
p306
sg38
g62
sg40
S'38'
p307
sg42
S'9T'
p308
ssg44
(dp309
g5
S'6.3'
p310
sg7
S'--'
p311
sg9
g49
sg11
S'--'
p312
sg13
g49
sg14
g10
sg16
S'2014'
p313
sg18
S'10'
p314
sg20
S'3.4'
p315
sg22
S'11/09'
p316
sg24
g10
sg26
S'Bishop Sankey'
p317
sg28
S'16'
p318
sg30
S'L7-21'
p319
sg32
S'19'
p320
sg34
g115
sg36
S'@BAL'
p321
sg38
g226
sg40
S'55'
p322
sg42
S'11'
p323
ssg64
(dp324
g5
S'--'
p325
sg7
S'--'
p326
sg9
g49
sg11
S'--'
p327
sg13
g49
sg14
S'--'
p328
sg16
S'2014'
p329
sg18
S'13'
p330
sg20
S'4.2'
p331
sg22
S'11/30'
p332
sg24
g10
sg26
S'Bishop Sankey'
p333
sg28
S'10'
p334
sg30
S'L21-45'
p335
sg32
S'--'
p336
sg34
S'--'
p337
sg36
S'@HOU'
p338
sg38
S'--'
p339
sg40
S'42'
p340
sg42
S'12'
p341
ssg81
(dp342
g5
S'7.0'
p343
sg7
g49
sg9
g49
sg11
g49
sg13
g49
sg14
g10
sg16
S'2014'
p344
sg18
S'12'
p345
sg20
S'3.7'
p346
sg22
S'11/23'
p347
sg24
g10
sg26
S'Bishop Sankey'
p348
sg28
S'10'
p349
sg30
S'L24-43'
p350
sg32
S'14'
p351
sg34
g56
sg36
S'@PHI'
p352
sg38
g226
sg40
S'37'
p353
sg42
S'13'
p354
ssg101
(dp355
g5
S'18.0'
p356
sg7
S'--'
p357
sg9
g49
sg11
S'--'
p358
sg13
g49
sg14
g10
sg16
S'2014'
p359
sg18
S'15'
p360
sg20
S'2.7'
p361
sg22
S'12/14'
p362
sg24
g10
sg26
S'Bishop Sankey'
p363
sg28
g115
sg30
S'L11-16'
p364
sg32
S'18'
p365
sg34
g49
sg36
S'NYJ'
p366
sg38
S'18'
p367
sg40
g199
sg42
g63
ssg120
(dp368
g5
S'1.0'
p369
sg7
S'--'
p370
sg9
g49
sg11
S'--'
p371
sg13
g49
sg14
g10
sg16
S'2014'
p372
sg18
S'14'
p373
sg20
S'2.8'
p374
sg22
S'12/07'
p375
sg24
g10
sg26
S'Bishop Sankey'
p376
sg28
g226
sg30
S'L7-36'
p377
sg32
g56
sg34
g56
sg36
S'NYG'
p378
sg38
g115
sg40
S'25'
p379
sg42
g62
ssg140
(dp380
g5
S'--'
p381
sg7
g49
sg9
g49
sg11
g49
sg13
g49
sg14
g10
sg16
S'2014'
p382
sg18
S'17'
p383
sg20
S'4.5'
p384
sg22
S'12/28'
p385
sg24
g10
sg26
S'Bishop Sankey'
p386
sg28
g151
sg30
S'L10-27'
p387
sg32
g10
sg34
g10
sg36
S'IND'
p388
sg38
S'--'
p389
sg40
S'18'
p390
sg42
S'11'
p391
ssg158
(dp392
g5
S'9.0'
p393
sg7
S'--'
p394
sg9
g49
sg11
S'--'
p395
sg13
g49
sg14
g10
sg16
S'2014'
p396
sg18
S'16'
p397
sg20
S'3.1'
p398
sg22
S'12/18'
p399
sg24
g10
sg26
S'Bishop Sankey'
p400
sg28
S'14'
p401
sg30
S'L13-21'
p402
sg32
g226
sg34
g49
sg36
S'@JAC'
p403
sg38
g226
sg40
S'44'
p404
sg42
g199
ssg49
(dp405
g5
S'--'
p406
sg7
S'--'
p407
sg9
g10
sg11
S'--'
p408
sg13
g49
sg14
S'--'
p409
sg16
S'2014'
p410
sg18
g49
sg20
S'4.2'
p411
sg22
S'09/07'
p412
sg24
g10
sg26
S'Bishop Sankey'
p413
sg28
g247
sg30
S'W26-10'
p414
sg32
S'--'
p415
sg34
S'--'
p416
sg36
S'@KC'
p417
sg38
S'--'
p418
sg40
S'25'
p419
sg42
S'12'
p420
ssg115
(dp421
g5
S'9.0'
p422
sg7
S'--'
p423
sg9
g10
sg11
S'--'
p424
sg13
g49
sg14
g10
sg16
S'2014'
p425
sg18
g115
sg20
S'6.1'
p426
sg22
S'09/21'
p427
sg24
g10
sg26
S'Bishop Sankey'
p428
sg28
S'10'
p429
sg30
S'L7-33'
p430
sg32
g226
sg34
g49
sg36
S'@CIN'
p431
sg38
g226
sg40
S'61'
p432
sg42
S'18'
p433
ssg56
(dp434
g5
S'--'
p435
sg7
S'--'
p436
sg9
g10
sg11
S'--'
p437
sg13
g49
sg14
S'--'
p438
sg16
S'2014'
p439
sg18
g56
sg20
S'1.5'
p440
sg22
S'09/14'
p441
sg24
g10
sg26
S'Bishop Sankey'
p442
sg28
g56
sg30
S'L10-26'
p443
sg32
S'--'
p444
sg34
S'--'
p445
sg36
S'DAL'
p446
sg38
S'--'
p447
sg40
g115
sg42
g151
ssg63
(dp448
g5
S'--'
p449
sg7
S'--'
p450
sg9
g10
sg11
S'--'
p451
sg13
g49
sg14
g10
sg16
S'2014'
p452
sg18
g63
sg20
S'3.4'
p453
sg22
S'10/05'
p454
sg24
g10
sg26
S'Bishop Sankey'
p455
sg28
g199
sg30
S'L28-29'
p456
sg32
g10
sg34
g10
sg36
S'CLE'
p457
sg38
S'--'
p458
sg40
S'27'
p459
sg42
S'11'
p460
ssg151
(dp461
g5
S'11.5'
p462
sg7
S'--'
p463
sg9
g10
sg11
S'--'
p464
sg13
g49
sg14
g10
sg16
S'2014'
p465
sg18
g151
sg20
S'5.7'
p466
sg22
S'09/28'
p467
sg24
g49
sg26
S'Bishop Sankey'
p468
sg28
g247
sg30
S'L17-41'
p469
sg32
S'23'
p470
sg34
g56
sg36
S'@IND'
p471
sg38
S'13'
p472
sg40
S'34'
p473
sg42
S'10'
p474
ssg62
(dp475
g5
S'--'
p476
sg7
S'--'
p477
sg9
g10
sg11
S'--'
p478
sg13
g49
sg14
g10
sg16
S'2014'
p479
sg18
g62
sg20
S'3.5'
p480
sg22
S'10/19'
p481
sg24
g10
sg26
S'Bishop Sankey'
p482
sg28
S'16'
p483
sg30
S'L17-19'
p484
sg32
g10
sg34
g10
sg36
S'@WAS'
p485
sg38
S'--'
p486
sg40
S'56'
p487
sg42
S'11'
p488
ssg247
(dp489
g5
S'7.0'
p490
sg7
S'--'
p491
sg9
g49
sg11
S'--'
p492
sg13
g49
sg14
g10
sg16
S'2014'
p493
sg18
g247
sg20
S'3.4'
p494
sg22
S'10/12'
p495
sg24
g10
sg26
S'Bishop Sankey'
p496
sg28
S'18'
p497
sg30
S'W16-14'
p498
sg32
g62
sg34
g49
sg36
S'JAC'
p499
sg38
g62
sg40
S'61'
p500
sg42
S'22'
p501
ssg226
(dp502
g5
g228
sg7
g228
sg9
g228
sg11
g228
sg13
g228
sg14
g228
sg16
S'2014'
p503
sg18
g226
sg20
g228
sg22
S'Bye'
p504
sg24
g228
sg26
S'Bishop Sankey'
p505
sg28
g228
sg30
g228
sg32
g228
sg34
g228
sg36
g228
sg38
g228
sg40
g228
sg42
g228
ssg199
(dp506
g5
S'6.3'
p507
sg7
S'--'
p508
sg9
g10
sg11
S'--'
p509
sg13
g49
sg14
g10
sg16
S'2014'
p510
sg18
g199
sg20
S'3.9'
p511
sg22
S'10/26'
p512
sg24
g10
sg26
S'Bishop Sankey'
p513
sg28
g226
sg30
S'L16-30'
p514
sg32
S'25'
p515
sg34
g151
sg36
S'HOU'
p516
sg38
S'12'
p517
sg40
S'35'
p518
sg42
g226
sss.