(dp0
S'2015'
p1
(dp2
S'11'
p3
(dp4
S'RecAvg'
p5
S'--'
p6
sS'FUM'
p7
S'1'
p8
sS'GS'
p9
S'0'
p10
sS'Lost'
p11
g10
sS'G'
p12
g8
sS'RecTD'
p13
S'--'
p14
sS'Year'
p15
S'2015'
p16
sS'WK'
p17
S'11'
p18
sS'RushAvg'
p19
S'5.0'
p20
sS'Game Date'
p21
S'11/22'
p22
sS'RushTD'
p23
g10
sS'Player'
p24
S'Bobby Rainey'
p25
sS'RushAtt'
p26
g8
sS'Result'
p27
S'W45-17'
p28
sS'RecYds'
p29
S'--'
p30
sS'Rec'
p31
S'--'
p32
sS'Opp'
p33
S'@PHI'
p34
sS'RecLng'
p35
S'--'
p36
sS'RushYds'
p37
S'5'
p38
sS'RushLng'
p39
g38
ssS'10'
p40
(dp41
g5
S'--'
p42
sg7
g8
sg9
g10
sg11
g10
sg12
g8
sg13
S'--'
p43
sg15
S'2015'
p44
sg17
S'10'
p45
sg19
S'--'
p46
sg21
S'11/15'
p47
sg23
S'--'
p48
sg24
S'Bobby Rainey'
p49
sg26
S'--'
p50
sg27
S'W10-6'
p51
sg29
S'--'
p52
sg31
S'--'
p53
sg33
S'DAL'
p54
sg35
S'--'
p55
sg37
S'--'
p56
sg39
S'--'
p57
ssS'13'
p58
(dp59
g5
S'--'
p60
sg7
S'--'
p61
sg9
g10
sg11
S'--'
p62
sg12
g8
sg13
S'--'
p63
sg15
S'2015'
p64
sg17
S'13'
p65
sg19
S'--'
p66
sg21
S'12/06'
p67
sg23
S'--'
p68
sg24
S'Bobby Rainey'
p69
sg26
S'--'
p70
sg27
S'W23-19'
p71
sg29
S'--'
p72
sg31
S'--'
p73
sg33
S'ATL'
p74
sg35
S'--'
p75
sg37
S'--'
p76
sg39
S'--'
p77
ssS'12'
p78
(dp79
g5
S'--'
p80
sg7
S'--'
p81
sg9
g10
sg11
S'--'
p82
sg12
g8
sg13
S'--'
p83
sg15
S'2015'
p84
sg17
S'12'
p85
sg19
S'--'
p86
sg21
S'11/29'
p87
sg23
S'--'
p88
sg24
S'Bobby Rainey'
p89
sg26
S'--'
p90
sg27
S'L12-25'
p91
sg29
S'--'
p92
sg31
S'--'
p93
sg33
S'@IND'
p94
sg35
S'--'
p95
sg37
S'--'
p96
sg39
S'--'
p97
ssS'15'
p98
(dp99
g5
S'--'
p100
sg7
S'--'
p101
sg9
g10
sg11
S'--'
p102
sg12
g8
sg13
S'--'
p103
sg15
S'2015'
p104
sg17
S'15'
p105
sg19
S'--'
p106
sg21
S'12/17'
p107
sg23
S'--'
p108
sg24
S'Bobby Rainey'
p109
sg26
S'--'
p110
sg27
S'L23-31'
p111
sg29
S'--'
p112
sg31
S'--'
p113
sg33
S'@STL'
p114
sg35
S'--'
p115
sg37
S'--'
p116
sg39
S'--'
p117
ssS'14'
p118
(dp119
g5
S'--'
p120
sg7
S'--'
p121
sg9
g10
sg11
S'--'
p122
sg12
g8
sg13
S'--'
p123
sg15
S'2015'
p124
sg17
S'14'
p125
sg19
S'--'
p126
sg21
S'12/13'
p127
sg23
S'--'
p128
sg24
S'Bobby Rainey'
p129
sg26
S'--'
p130
sg27
S'L17-24'
p131
sg29
S'--'
p132
sg31
S'--'
p133
sg33
S'NO'
p134
sg35
S'--'
p135
sg37
S'--'
p136
sg39
S'--'
p137
ssS'17'
p138
(dp139
g5
S'--'
p140
sg7
g8
sg9
g10
sg11
g8
sg12
g8
sg13
S'--'
p141
sg15
S'2015'
p142
sg17
S'17'
p143
sg19
S'--'
p144
sg21
S'01/03'
p145
sg23
S'--'
p146
sg24
S'Bobby Rainey'
p147
sg26
S'--'
p148
sg27
S'L10-38'
p149
sg29
S'--'
p150
sg31
S'--'
p151
sg33
S'@CAR'
p152
sg35
S'--'
p153
sg37
S'--'
p154
sg39
S'--'
p155
ssS'16'
p156
(dp157
g5
S'--'
p158
sg7
S'2'
p159
sg9
g10
sg11
g10
sg12
g8
sg13
S'--'
p160
sg15
S'2015'
p161
sg17
S'16'
p162
sg19
S'--'
p163
sg21
S'12/27'
p164
sg23
S'--'
p165
sg24
S'Bobby Rainey'
p166
sg26
S'--'
p167
sg27
S'L21-26'
p168
sg29
S'--'
p169
sg31
S'--'
p170
sg33
S'CHI'
p171
sg35
S'--'
p172
sg37
S'--'
p173
sg39
S'--'
p174
ssg8
(dp175
g5
S'4.0'
p176
sg7
S'--'
p177
sg9
g10
sg11
S'--'
p178
sg12
g8
sg13
g10
sg15
S'2015'
p179
sg17
g8
sg19
S'3.3'
p180
sg21
S'09/13'
p181
sg23
g10
sg24
S'Bobby Rainey'
p182
sg26
S'3'
p183
sg27
S'L14-42'
p184
sg29
S'4'
p185
sg31
g8
sg33
S'TEN'
p186
sg35
g185
sg37
S'10'
p187
sg39
S'7'
p188
ssg183
(dp189
g5
S'--'
p190
sg7
g159
sg9
g10
sg11
g10
sg12
g8
sg13
S'--'
p191
sg15
S'2015'
p192
sg17
g183
sg19
S'--'
p193
sg21
S'09/27'
p194
sg23
S'--'
p195
sg24
S'Bobby Rainey'
p196
sg26
S'--'
p197
sg27
S'L9-19'
p198
sg29
S'--'
p199
sg31
S'--'
p200
sg33
S'@HOU'
p201
sg35
S'--'
p202
sg37
S'--'
p203
sg39
S'--'
p204
ssg159
(dp205
g5
S'8.0'
p206
sg7
S'--'
p207
sg9
g10
sg11
S'--'
p208
sg12
g8
sg13
g10
sg15
S'2015'
p209
sg17
g159
sg19
S'--'
p210
sg21
S'09/20'
p211
sg23
S'--'
p212
sg24
S'Bobby Rainey'
p213
sg26
S'--'
p214
sg27
S'W26-19'
p215
sg29
S'8'
p216
sg31
g8
sg33
S'@NO'
p217
sg35
g216
sg37
S'--'
p218
sg39
S'--'
p219
ssg38
(dp220
g5
S'--'
p221
sg7
S'--'
p222
sg9
g10
sg11
S'--'
p223
sg12
g8
sg13
S'--'
p224
sg15
S'2015'
p225
sg17
g38
sg19
S'--'
p226
sg21
S'10/11'
p227
sg23
S'--'
p228
sg24
S'Bobby Rainey'
p229
sg26
S'--'
p230
sg27
S'W38-31'
p231
sg29
S'--'
p232
sg31
S'--'
p233
sg33
S'JAC'
p234
sg35
S'--'
p235
sg37
S'--'
p236
sg39
S'--'
p237
ssg185
(dp238
g5
S'--'
p239
sg7
S'--'
p240
sg9
g10
sg11
S'--'
p241
sg12
g8
sg13
S'--'
p242
sg15
S'2015'
p243
sg17
g185
sg19
S'--'
p244
sg21
S'10/04'
p245
sg23
S'--'
p246
sg24
S'Bobby Rainey'
p247
sg26
S'--'
p248
sg27
S'L23-37'
p249
sg29
S'--'
p250
sg31
S'--'
p251
sg33
S'CAR'
p252
sg35
S'--'
p253
sg37
S'--'
p254
sg39
S'--'
p255
ssg188
(dp256
g5
S'4.0'
p257
sg7
S'--'
p258
sg9
g10
sg11
S'--'
p259
sg12
g8
sg13
g10
sg15
S'2015'
p260
sg17
g188
sg19
S'--'
p261
sg21
S'10/25'
p262
sg23
S'--'
p263
sg24
S'Bobby Rainey'
p264
sg26
S'--'
p265
sg27
S'L30-31'
p266
sg29
g185
sg31
g8
sg33
S'@WAS'
p267
sg35
g185
sg37
S'--'
p268
sg39
S'--'
p269
ssS'6'
p270
(dp271
g5
S''
p272
sg7
g272
sg9
g272
sg11
g272
sg12
g272
sg13
g272
sg15
S'2015'
p273
sg17
g270
sg19
g272
sg21
S'Bye'
p274
sg23
g272
sg24
S'Bobby Rainey'
p275
sg26
g272
sg27
g272
sg29
g272
sg31
g272
sg33
g272
sg35
g272
sg37
g272
sg39
g272
ssS'9'
p276
(dp277
g5
S'--'
p278
sg7
g8
sg9
g10
sg11
g10
sg12
g8
sg13
S'--'
p279
sg15
S'2015'
p280
sg17
g276
sg19
S'3.0'
p281
sg21
S'11/08'
p282
sg23
g10
sg24
S'Bobby Rainey'
p283
sg26
g8
sg27
S'L18-32'
p284
sg29
S'--'
p285
sg31
S'--'
p286
sg33
S'NYG'
p287
sg35
S'--'
p288
sg37
g183
sg39
g183
ssg216
(dp289
g5
S'--'
p290
sg7
S'--'
p291
sg9
g10
sg11
S'--'
p292
sg12
g8
sg13
S'--'
p293
sg15
S'2015'
p294
sg17
g216
sg19
S'--'
p295
sg21
S'11/01'
p296
sg23
S'--'
p297
sg24
S'Bobby Rainey'
p298
sg26
S'--'
p299
sg27
S'W23-20'
p300
sg29
S'--'
p301
sg31
S'--'
p302
sg33
S'@ATL'
p303
sg35
S'--'
p304
sg37
S'--'
p305
sg39
S'--'
p306
sssS'2014'
p307
(dp308
g3
(dp309
g5
S'--'
p310
sg7
S'--'
p311
sg9
g8
sg11
S'--'
p312
sg12
g8
sg13
g10
sg15
S'2014'
p313
sg17
S'11'
p314
sg19
S'0.8'
p315
sg21
S'11/16'
p316
sg23
g10
sg24
S'Bobby Rainey'
p317
sg26
g38
sg27
S'W27-7'
p318
sg29
g10
sg31
g10
sg33
S'@WAS'
p319
sg35
S'--'
p320
sg37
g185
sg39
g159
ssg40
(dp321
g5
S'10.5'
p322
sg7
S'--'
p323
sg9
g8
sg11
S'--'
p324
sg12
g8
sg13
g10
sg15
S'2014'
p325
sg17
S'10'
p326
sg19
S'2.3'
p327
sg21
S'11/09'
p328
sg23
g10
sg24
S'Bobby Rainey'
p329
sg26
g270
sg27
S'L17-27'
p330
sg29
S'42'
p331
sg31
g185
sg33
S'ATL'
p332
sg35
S'17'
p333
sg37
S'14'
p334
sg39
g216
ssg58
(dp335
g5
S'20.5'
p336
sg7
S'--'
p337
sg9
g10
sg11
S'--'
p338
sg12
g8
sg13
g10
sg15
S'2014'
p339
sg17
S'13'
p340
sg19
S'11.0'
p341
sg21
S'11/30'
p342
sg23
g10
sg24
S'Bobby Rainey'
p343
sg26
g8
sg27
S'L13-14'
p344
sg29
S'41'
p345
sg31
g159
sg33
S'CIN'
p346
sg35
S'29'
p347
sg37
S'11'
p348
sg39
S'11'
p349
ssg78
(dp350
g5
S'4.5'
p351
sg7
S'--'
p352
sg9
g10
sg11
S'--'
p353
sg12
g8
sg13
g10
sg15
S'2014'
p354
sg17
S'12'
p355
sg19
S'3.0'
p356
sg21
S'11/23'
p357
sg23
g10
sg24
S'Bobby Rainey'
p358
sg26
g8
sg27
S'L13-21'
p359
sg29
S'18'
p360
sg31
g185
sg33
S'@CHI'
p361
sg35
g270
sg37
g183
sg39
g183
ssg98
(dp362
g5
S'--'
p363
sg7
S'--'
p364
sg9
g10
sg11
S'--'
p365
sg12
g8
sg13
S'--'
p366
sg15
S'2014'
p367
sg17
S'15'
p368
sg19
S'--'
p369
sg21
S'12/14'
p370
sg23
S'--'
p371
sg24
S'Bobby Rainey'
p372
sg26
S'--'
p373
sg27
S'L17-19'
p374
sg29
S'--'
p375
sg31
S'--'
p376
sg33
S'@CAR'
p377
sg35
S'--'
p378
sg37
S'--'
p379
sg39
S'--'
p380
ssg118
(dp381
g5
S'--'
p382
sg7
S'--'
p383
sg9
g10
sg11
S'--'
p384
sg12
g10
sg13
S'--'
p385
sg15
S'2014'
p386
sg17
S'14'
p387
sg19
S'--'
p388
sg21
S'12/07'
p389
sg23
S'--'
p390
sg24
S'Bobby Rainey'
p391
sg26
S'--'
p392
sg27
S'L17-34'
p393
sg29
S'--'
p394
sg31
S'--'
p395
sg33
S'@DET'
p396
sg35
S'--'
p397
sg37
S'--'
p398
sg39
S'--'
p399
ssg138
(dp400
g5
S'--'
p401
sg7
S'--'
p402
sg9
g10
sg11
S'--'
p403
sg12
g8
sg13
S'--'
p404
sg15
S'2014'
p405
sg17
S'17'
p406
sg19
S'--'
p407
sg21
S'12/28'
p408
sg23
S'--'
p409
sg24
S'Bobby Rainey'
p410
sg26
S'--'
p411
sg27
S'L20-23'
p412
sg29
S'--'
p413
sg31
S'--'
p414
sg33
S'NO'
p415
sg35
S'--'
p416
sg37
S'--'
p417
sg39
S'--'
p418
ssg156
(dp419
g5
S'--'
p420
sg7
S'--'
p421
sg9
g10
sg11
S'--'
p422
sg12
g8
sg13
S'--'
p423
sg15
S'2014'
p424
sg17
S'16'
p425
sg19
S'--'
p426
sg21
S'12/21'
p427
sg23
S'--'
p428
sg24
S'Bobby Rainey'
p429
sg26
S'--'
p430
sg27
S'L3-20'
p431
sg29
S'--'
p432
sg31
S'--'
p433
sg33
S'GB'
p434
sg35
S'--'
p435
sg37
S'--'
p436
sg39
S'--'
p437
ssg8
(dp438
g5
S'4.0'
p439
sg7
g8
sg9
g10
sg11
g8
sg12
g8
sg13
g8
sg15
S'2014'
p440
sg17
g8
sg19
S'3.0'
p441
sg21
S'09/07'
p442
sg23
g10
sg24
S'Bobby Rainey'
p443
sg26
g185
sg27
S'L14-20'
p444
sg29
g216
sg31
g159
sg33
S'CAR'
p445
sg35
S'6T'
p446
sg37
S'12'
p447
sg39
g270
ssg183
(dp448
g5
S'9.1'
p449
sg7
g159
sg9
g8
sg11
g159
sg12
g8
sg13
g10
sg15
S'2014'
p450
sg17
g183
sg19
S'3.7'
p451
sg21
S'09/18'
p452
sg23
g10
sg24
S'Bobby Rainey'
p453
sg26
S'11'
p454
sg27
S'L14-56'
p455
sg29
S'64'
p456
sg31
g188
sg33
S'@ATL'
p457
sg35
S'14'
p458
sg37
S'41'
p459
sg39
g216
ssg159
(dp460
g5
S'10.0'
p461
sg7
S'--'
p462
sg9
g8
sg11
S'--'
p463
sg12
g8
sg13
g10
sg15
S'2014'
p464
sg17
g159
sg19
S'6.5'
p465
sg21
S'09/14'
p466
sg23
g10
sg24
S'Bobby Rainey'
p467
sg26
S'22'
p468
sg27
S'L17-19'
p469
sg29
S'30'
p470
sg31
g183
sg33
S'STL'
p471
sg35
S'19'
p472
sg37
S'144'
p473
sg39
S'31'
p474
ssg38
(dp475
g5
S'7.0'
p476
sg7
S'--'
p477
sg9
g10
sg11
S'--'
p478
sg12
g8
sg13
g10
sg15
S'2014'
p479
sg17
g38
sg19
S'3.5'
p480
sg21
S'10/05'
p481
sg23
g8
sg24
S'Bobby Rainey'
p482
sg26
g270
sg27
S'L31-37'
p483
sg29
S'21'
p484
sg31
g183
sg33
S'@NO'
p485
sg35
S'10'
p486
sg37
S'21'
p487
sg39
S'9T'
p488
ssg185
(dp489
g5
S'16.0'
p490
sg7
S'--'
p491
sg9
g10
sg11
S'--'
p492
sg12
g8
sg13
g10
sg15
S'2014'
p493
sg17
g185
sg19
S'0.5'
p494
sg21
S'09/28'
p495
sg23
g10
sg24
S'Bobby Rainey'
p496
sg26
g185
sg27
S'W27-24'
p497
sg29
S'16'
p498
sg31
g8
sg33
S'@PIT'
p499
sg35
S'16'
p500
sg37
g159
sg39
g183
ssg188
(dp501
g5
g272
sg7
g272
sg9
g272
sg11
g272
sg12
g272
sg13
g272
sg15
S'2014'
p502
sg17
g188
sg19
g272
sg21
S'Bye'
p503
sg23
g272
sg24
S'Bobby Rainey'
p504
sg26
g272
sg27
g272
sg29
g272
sg31
g272
sg33
g272
sg35
g272
sg37
g272
sg39
g272
ssg270
(dp505
g5
S'--'
p506
sg7
S'--'
p507
sg9
g10
sg11
S'--'
p508
sg12
g8
sg13
g10
sg15
S'2014'
p509
sg17
g270
sg19
S'6.0'
p510
sg21
S'10/12'
p511
sg23
g10
sg24
S'Bobby Rainey'
p512
sg26
g188
sg27
S'L17-48'
p513
sg29
g10
sg31
g10
sg33
S'BAL'
p514
sg35
S'--'
p515
sg37
S'42'
p516
sg39
S'21'
p517
ssg276
(dp518
g5
S'34.0'
p519
sg7
S'--'
p520
sg9
g8
sg11
S'--'
p521
sg12
g8
sg13
g10
sg15
S'2014'
p522
sg17
g276
sg19
S'4.6'
p523
sg21
S'11/02'
p524
sg23
g10
sg24
S'Bobby Rainey'
p525
sg26
S'19'
p526
sg27
S'L17-22'
p527
sg29
S'34'
p528
sg31
g8
sg33
S'@CLE'
p529
sg35
S'34'
p530
sg37
S'87'
p531
sg39
S'21'
p532
ssg216
(dp533
g5
S'6.8'
p534
sg7
S'--'
p535
sg9
g10
sg11
S'--'
p536
sg12
g8
sg13
g10
sg15
S'2014'
p537
sg17
g216
sg19
S'3.1'
p538
sg21
S'10/26'
p539
sg23
g10
sg24
S'Bobby Rainey'
p540
sg26
g216
sg27
S'L13-19'
p541
sg29
S'41'
p542
sg31
g270
sg33
S'MIN'
p543
sg35
S'11'
p544
sg37
S'25'
p545
sg39
S'13'
p546
sssS'2013'
p547
(dp548
g3
(dp549
g5
S'2.0'
p550
sg7
S'--'
p551
sg9
g10
sg11
S'--'
p552
sg12
g8
sg13
g8
sg15
S'2013'
p553
sg17
S'11'
p554
sg19
S'5.4'
p555
sg21
S'11/17'
p556
sg23
g159
sg24
S'Bobby Rainey'
p557
sg26
S'30'
p558
sg27
S'W41-28'
p559
sg29
g185
sg31
g159
sg33
S'ATL'
p560
sg35
S'4T'
p561
sg37
S'163'
p562
sg39
S'43T'
p563
ssg40
(dp564
g5
S'11.0'
p565
sg7
S'--'
p566
sg9
g10
sg11
S'--'
p567
sg12
g8
sg13
g10
sg15
S'2013'
p568
sg17
S'10'
p569
sg19
S'5.6'
p570
sg21
S'11/11'
p571
sg23
g8
sg24
S'Bobby Rainey'
p572
sg26
g216
sg27
S'W22-19'
p573
sg29
S'11'
p574
sg31
g8
sg33
S'MIA'
p575
sg35
S'11'
p576
sg37
S'45'
p577
sg39
S'31'
p578
ssg58
(dp579
g5
S'4.0'
p580
sg7
S'--'
p581
sg9
g8
sg11
S'--'
p582
sg12
g8
sg13
g10
sg15
S'2013'
p583
sg17
S'13'
p584
sg19
S'3.7'
p585
sg21
S'12/01'
p586
sg23
g10
sg24
S'Bobby Rainey'
p587
sg26
S'17'
p588
sg27
S'L6-27'
p589
sg29
g216
sg31
g159
sg33
S'@CAR'
p590
sg35
g38
sg37
S'63'
p591
sg39
S'16'
p592
ssg78
(dp593
g5
S'--'
p594
sg7
S'--'
p595
sg9
g8
sg11
S'--'
p596
sg12
g8
sg13
g10
sg15
S'2013'
p597
sg17
S'12'
p598
sg19
S'1.9'
p599
sg21
S'11/24'
p600
sg23
g10
sg24
S'Bobby Rainey'
p601
sg26
S'18'
p602
sg27
S'W24-21'
p603
sg29
g10
sg31
g10
sg33
S'@DET'
p604
sg35
S'--'
p605
sg37
S'35'
p606
sg39
S'11'
p607
ssg98
(dp608
g5
S'3.0'
p609
sg7
S'--'
p610
sg9
g8
sg11
S'--'
p611
sg12
g8
sg13
g10
sg15
S'2013'
p612
sg17
S'15'
p613
sg19
S'2.5'
p614
sg21
S'12/15'
p615
sg23
g10
sg24
S'Bobby Rainey'
p616
sg26
S'11'
p617
sg27
S'L14-33'
p618
sg29
g183
sg31
g8
sg33
S'SF'
p619
sg35
g183
sg37
S'27'
p620
sg39
g216
ssg118
(dp621
g5
S'-1.3'
p622
sg7
S'--'
p623
sg9
g8
sg11
S'--'
p624
sg12
g8
sg13
g10
sg15
S'2013'
p625
sg17
S'14'
p626
sg19
S'5.8'
p627
sg21
S'12/08'
p628
sg23
g8
sg24
S'Bobby Rainey'
p629
sg26
S'22'
p630
sg27
S'W27-6'
p631
sg29
S'-4'
p632
sg31
g183
sg33
S'BUF'
p633
sg35
g185
sg37
S'127'
p634
sg39
S'80T'
p635
ssg138
(dp636
g5
S'1.0'
p637
sg7
S'--'
p638
sg9
g8
sg11
S'--'
p639
sg12
g8
sg13
g10
sg15
S'2013'
p640
sg17
S'17'
p641
sg19
S'3.2'
p642
sg21
S'12/29'
p643
sg23
g10
sg24
S'Bobby Rainey'
p644
sg26
S'11'
p645
sg27
S'L17-42'
p646
sg29
g8
sg31
g8
sg33
S'@NO'
p647
sg35
g8
sg37
S'35'
p648
sg39
S'16'
p649
ssg156
(dp650
g5
S'4.0'
p651
sg7
g8
sg9
g8
sg11
g8
sg12
g8
sg13
g10
sg15
S'2013'
p652
sg17
S'16'
p653
sg19
S'1.9'
p654
sg21
S'12/22'
p655
sg23
g8
sg24
S'Bobby Rainey'
p656
sg26
S'20'
p657
sg27
S'L13-23'
p658
sg29
g185
sg31
g8
sg33
S'@STL'
p659
sg35
g185
sg37
S'37'
p660
sg39
S'11'
p661
ssg8
(dp662
g5
S'--'
p663
sg7
S'--'
p664
sg9
g10
sg11
S'--'
p665
sg12
g8
sg13
S'--'
p666
sg15
S'2013'
p667
sg17
g8
sg19
S'--'
p668
sg21
S'09/08'
p669
sg23
S'--'
p670
sg24
S'Bobby Rainey'
p671
sg26
S'--'
p672
sg27
S'L10-23'
p673
sg29
S'--'
p674
sg31
S'--'
p675
sg33
S'MIA'
p676
sg35
S'--'
p677
sg37
S'--'
p678
sg39
S'--'
p679
ssg183
(dp680
g5
S'4.0'
p681
sg7
S'--'
p682
sg9
g10
sg11
S'--'
p683
sg12
g8
sg13
g10
sg15
S'2013'
p684
sg17
g183
sg19
S'4.3'
p685
sg21
S'09/22'
p686
sg23
g10
sg24
S'Bobby Rainey'
p687
sg26
g185
sg27
S'W31-27'
p688
sg29
g185
sg31
g8
sg33
S'@MIN'
p689
sg35
g185
sg37
S'17'
p690
sg39
g270
ssg159
(dp691
g5
S'--'
p692
sg7
S'--'
p693
sg9
g10
sg11
S'--'
p694
sg12
g8
sg13
S'--'
p695
sg15
S'2013'
p696
sg17
g159
sg19
S'--'
p697
sg21
S'09/15'
p698
sg23
S'--'
p699
sg24
S'Bobby Rainey'
p700
sg26
S'--'
p701
sg27
S'L6-14'
p702
sg29
S'--'
p703
sg31
S'--'
p704
sg33
S'@BAL'
p705
sg35
S'--'
p706
sg37
S'--'
p707
sg39
S'--'
p708
ssg38
(dp709
g5
S'-5.0'
p710
sg7
S'--'
p711
sg9
g10
sg11
S'--'
p712
sg12
g8
sg13
g10
sg15
S'2013'
p713
sg17
g38
sg19
S'4.0'
p714
sg21
S'10/03'
p715
sg23
g10
sg24
S'Bobby Rainey'
p716
sg26
g159
sg27
S'W37-24'
p717
sg29
S'-5'
p718
sg31
g8
sg33
S'BUF'
p719
sg35
S'-5'
p720
sg37
g216
sg39
g188
ssg185
(dp721
g5
S'10.0'
p722
sg7
S'--'
p723
sg9
g10
sg11
S'--'
p724
sg12
g8
sg13
g10
sg15
S'2013'
p725
sg17
g185
sg19
S'1.5'
p726
sg21
S'09/29'
p727
sg23
g10
sg24
S'Bobby Rainey'
p728
sg26
g270
sg27
S'W17-6'
p729
sg29
S'20'
p730
sg31
g159
sg33
S'CIN'
p731
sg35
S'15'
p732
sg37
g276
sg39
g185
ssg270
(dp733
g5
S'--'
p734
sg7
S'--'
p735
sg9
g10
sg11
S'--'
p736
sg12
g8
sg13
S'--'
p737
sg15
S'2013'
p738
sg17
g270
sg19
S'0.0'
p739
sg21
S'10/13'
p740
sg23
g10
sg24
S'Bobby Rainey'
p741
sg26
g8
sg27
S'L17-31'
p742
sg29
S'--'
p743
sg31
S'--'
p744
sg33
S'DET'
p745
sg35
S'--'
p746
sg37
g10
sg39
g10
ssg276
(dp747
g5
S'--'
p748
sg7
S'--'
p749
sg9
g10
sg11
S'--'
p750
sg12
g8
sg13
S'--'
p751
sg15
S'2013'
p752
sg17
g276
sg19
S'--'
p753
sg21
S'11/03'
p754
sg23
S'--'
p755
sg24
S'Bobby Rainey'
p756
sg26
S'--'
p757
sg27
S'L24-27'
p758
sg29
S'--'
p759
sg31
S'--'
p760
sg33
S'@SEA'
p761
sg35
S'--'
p762
sg37
S'--'
p763
sg39
S'--'
p764
ssg216
(dp765
g5
S'--'
p766
sg7
S'--'
p767
sg9
g10
sg11
S'--'
p768
sg12
g10
sg13
S'--'
p769
sg15
S'2013'
p770
sg17
g216
sg19
S'--'
p771
sg21
S'10/24'
p772
sg23
S'--'
p773
sg24
S'Bobby Rainey'
p774
sg26
S'--'
p775
sg27
S'L13-31'
p776
sg29
S'--'
p777
sg31
S'--'
p778
sg33
S'CAR'
p779
sg35
S'--'
p780
sg37
S'--'
p781
sg39
S'--'
p782
sssS'2012'
p783
(dp784
g40
(dp785
g5
S'--'
p786
sg7
S'--'
p787
sg9
g10
sg11
S'--'
p788
sg12
g10
sg13
S'--'
p789
sg15
S'2012'
p790
sg17
S'10'
p791
sg19
S'--'
p792
sg21
S'11/11'
p793
sg23
S'--'
p794
sg24
S'Bobby Rainey'
p795
sg26
S'--'
p796
sg27
S'W55-20'
p797
sg29
S'--'
p798
sg31
S'--'
p799
sg33
S'OAK'
p800
sg35
S'--'
p801
sg37
S'--'
p802
sg39
S'--'
p803
ssg188
(dp804
g5
S'--'
p805
sg7
S'--'
p806
sg9
g10
sg11
S'--'
p807
sg12
g10
sg13
S'--'
p808
sg15
S'2012'
p809
sg17
g188
sg19
S'--'
p810
sg21
S'10/21'
p811
sg23
S'--'
p812
sg24
S'Bobby Rainey'
p813
sg26
S'--'
p814
sg27
S'L13-43'
p815
sg29
S'--'
p816
sg31
S'--'
p817
sg33
S'@HOU'
p818
sg35
S'--'
p819
sg37
S'--'
p820
sg39
S'--'
p821
ssg276
(dp822
g5
S'--'
p823
sg7
S'--'
p824
sg9
g10
sg11
S'--'
p825
sg12
g10
sg13
S'--'
p826
sg15
S'2012'
p827
sg17
g276
sg19
S'--'
p828
sg21
S'11/04'
p829
sg23
S'--'
p830
sg24
S'Bobby Rainey'
p831
sg26
S'--'
p832
sg27
S'W25-15'
p833
sg29
S'--'
p834
sg31
S'--'
p835
sg33
S'@CLE'
p836
sg35
S'--'
p837
sg37
S'--'
p838
sg39
S'--'
p839
ssg216
(dp840
g5
g272
sg7
g272
sg9
g272
sg11
g272
sg12
g272
sg13
g272
sg15
S'2012'
p841
sg17
g216
sg19
g272
sg21
S'Bye'
p842
sg23
g272
sg24
S'Bobby Rainey'
p843
sg26
g272
sg27
g272
sg29
g272
sg31
g272
sg33
g272
sg35
g272
sg37
g272
sg39
g272
sss.