(dp0
S'2015'
p1
(dp2
S'1'
p3
(dp4
S'RecAvg'
p5
S'17.0'
p6
sS'FUM'
p7
S'--'
p8
sS'GS'
p9
S'0'
p10
sS'Lost'
p11
S'--'
p12
sS'G'
p13
g3
sS'RecTD'
p14
g10
sS'Year'
p15
S'2015'
p16
sS'WK'
p17
g3
sS'RushAvg'
p18
S'2.0'
p19
sS'Game Date'
p20
S'09/13'
p21
sS'RushTD'
p22
g10
sS'Player'
p23
S'Branden Oliver'
p24
sS'RushAtt'
p25
S'2'
p26
sS'Result'
p27
S'W33-28'
p28
sS'RecYds'
p29
S'17'
p30
sS'Rec'
p31
g3
sS'Opp'
p32
S'DET'
p33
sS'RecLng'
p34
S'17'
p35
sS'RushYds'
p36
S'4'
p37
sS'RushLng'
p38
S'3'
p39
ssg39
(dp40
g5
S'--'
p41
sg7
S'--'
p42
sg9
g10
sg11
S'--'
p43
sg13
g3
sg14
g10
sg15
S'2015'
p44
sg17
g39
sg18
S'3.3'
p45
sg20
S'09/27'
p46
sg22
g10
sg23
S'Branden Oliver'
p47
sg25
S'8'
p48
sg27
S'L14-31'
p49
sg29
g10
sg31
g10
sg32
S'@MIN'
p50
sg34
S'--'
p51
sg36
S'26'
p52
sg38
S'6'
p53
ssg26
(dp54
g5
S'--'
p55
sg7
S'--'
p56
sg9
g10
sg11
S'--'
p57
sg13
g3
sg14
S'--'
p58
sg15
S'2015'
p59
sg17
g26
sg18
S'2.0'
p60
sg20
S'09/20'
p61
sg22
g10
sg23
S'Branden Oliver'
p62
sg25
g3
sg27
S'L19-24'
p63
sg29
S'--'
p64
sg31
S'--'
p65
sg32
S'@CIN'
p66
sg34
S'--'
p67
sg36
g26
sg38
g26
ssS'5'
p68
(dp69
g5
S'--'
p70
sg7
S'--'
p71
sg9
g10
sg11
S'--'
p72
sg13
g3
sg14
S'--'
p73
sg15
S'2015'
p74
sg17
g68
sg18
S'--'
p75
sg20
S'10/12'
p76
sg22
S'--'
p77
sg23
S'Branden Oliver'
p78
sg25
S'--'
p79
sg27
S'L20-24'
p80
sg29
S'--'
p81
sg31
S'--'
p82
sg32
S'PIT'
p83
sg34
S'--'
p84
sg36
S'--'
p85
sg38
S'--'
p86
ssg37
(dp87
g5
S'--'
p88
sg7
S'--'
p89
sg9
g10
sg11
S'--'
p90
sg13
g3
sg14
S'--'
p91
sg15
S'2015'
p92
sg17
g37
sg18
S'--'
p93
sg20
S'10/04'
p94
sg22
S'--'
p95
sg23
S'Branden Oliver'
p96
sg25
S'--'
p97
sg27
S'W30-27'
p98
sg29
S'--'
p99
sg31
S'--'
p100
sg32
S'CLE'
p101
sg34
S'--'
p102
sg36
S'--'
p103
sg38
S'--'
p104
ssS'7'
p105
(dp106
g5
S'6.5'
p107
sg7
S'--'
p108
sg9
g3
sg11
S'--'
p109
sg13
g3
sg14
g10
sg15
S'2015'
p110
sg17
g105
sg18
S'3.9'
p111
sg20
S'10/25'
p112
sg22
g10
sg23
S'Branden Oliver'
p113
sg25
S'9'
p114
sg27
S'L29-37'
p115
sg29
S'39'
p116
sg31
g53
sg32
S'OAK'
p117
sg34
S'14'
p118
sg36
S'35'
p119
sg38
S'15'
p120
ssg53
(dp121
g5
S'10.0'
p122
sg7
S'--'
p123
sg9
g10
sg11
S'--'
p124
sg13
g3
sg14
g10
sg15
S'2015'
p125
sg17
g53
sg18
S'3.3'
p126
sg20
S'10/18'
p127
sg22
g10
sg23
S'Branden Oliver'
p128
sg25
g105
sg27
S'L20-27'
p129
sg29
S'40'
p130
sg31
g37
sg32
S'@GB'
p131
sg34
S'14'
p132
sg36
S'23'
p133
sg38
g53
ssg48
(dp134
g5
S'8.0'
p135
sg7
S'--'
p136
sg9
g10
sg11
S'--'
p137
sg13
g3
sg14
g10
sg15
S'2015'
p138
sg17
g48
sg18
S'4.5'
p139
sg20
S'11/01'
p140
sg22
g10
sg23
S'Branden Oliver'
p141
sg25
g37
sg27
S'L26-29'
p142
sg29
S'16'
p143
sg31
g26
sg32
S'@BAL'
p144
sg34
S'10'
p145
sg36
S'18'
p146
sg38
g53
sssS'2014'
p147
(dp148
S'11'
p149
(dp150
g5
S'3.0'
p151
sg7
S'--'
p152
sg9
g10
sg11
S'--'
p153
sg13
g3
sg14
g10
sg15
S'2014'
p154
sg17
S'11'
p155
sg18
S'2.8'
p156
sg20
S'11/16'
p157
sg22
g10
sg23
S'Branden Oliver'
p158
sg25
S'13'
p159
sg27
S'W13-6'
p160
sg29
g39
sg31
g3
sg32
S'OAK'
p161
sg34
g39
sg36
S'36'
p162
sg38
g48
ssS'10'
p163
(dp164
g5
S''
p165
sg7
g165
sg9
g165
sg11
g165
sg13
g165
sg14
g165
sg15
S'2014'
p166
sg17
S'10'
p167
sg18
g165
sg20
S'Bye'
p168
sg22
g165
sg23
S'Branden Oliver'
p169
sg25
g165
sg27
g165
sg29
g165
sg31
g165
sg32
g165
sg34
g165
sg36
g165
sg38
g165
ssS'13'
p170
(dp171
g5
S'--'
p172
sg7
S'--'
p173
sg9
g10
sg11
S'--'
p174
sg13
g3
sg14
S'--'
p175
sg15
S'2014'
p176
sg17
S'13'
p177
sg18
S'7.0'
p178
sg20
S'11/30'
p179
sg22
g10
sg23
S'Branden Oliver'
p180
sg25
g3
sg27
S'W34-33'
p181
sg29
S'--'
p182
sg31
S'--'
p183
sg32
S'@BAL'
p184
sg34
S'--'
p185
sg36
g105
sg38
g105
ssS'12'
p186
(dp187
g5
S'5.8'
p188
sg7
S'--'
p189
sg9
g10
sg11
S'--'
p190
sg13
g3
sg14
g10
sg15
S'2014'
p191
sg17
S'12'
p192
sg18
S'2.8'
p193
sg20
S'11/23'
p194
sg22
g10
sg23
S'Branden Oliver'
p195
sg25
g53
sg27
S'W27-24'
p196
sg29
S'23'
p197
sg31
g37
sg32
S'STL'
p198
sg34
S'13'
p199
sg36
S'17'
p200
sg38
g105
ssS'15'
p201
(dp202
g5
S'11.0'
p203
sg7
S'--'
p204
sg9
g3
sg11
S'--'
p205
sg13
g3
sg14
g10
sg15
S'2014'
p206
sg17
S'15'
p207
sg18
S'2.2'
p208
sg20
S'12/14'
p209
sg22
g10
sg23
S'Branden Oliver'
p210
sg25
S'12'
p211
sg27
S'L10-22'
p212
sg29
S'44'
p213
sg31
g37
sg32
S'DEN'
p214
sg34
S'17'
p215
sg36
S'26'
p216
sg38
S'11'
p217
ssS'14'
p218
(dp219
g5
S'--'
p220
sg7
S'--'
p221
sg9
g10
sg11
S'--'
p222
sg13
g3
sg14
g10
sg15
S'2014'
p223
sg17
S'14'
p224
sg18
S'0.3'
p225
sg20
S'12/07'
p226
sg22
g10
sg23
S'Branden Oliver'
p227
sg25
g39
sg27
S'L14-23'
p228
sg29
g10
sg31
g10
sg32
S'NE'
p229
sg34
S'--'
p230
sg36
g3
sg38
g37
ssS'17'
p231
(dp232
g5
S'2.0'
p233
sg7
S'--'
p234
sg9
g3
sg11
S'--'
p235
sg13
g3
sg14
g10
sg15
S'2014'
p236
sg17
S'17'
p237
sg18
S'5.1'
p238
sg20
S'12/28'
p239
sg22
g3
sg23
S'Branden Oliver'
p240
sg25
S'14'
p241
sg27
S'L7-19'
p242
sg29
g37
sg31
g26
sg32
S'@KC'
p243
sg34
g53
sg36
S'71'
p244
sg38
S'18'
p245
ssS'16'
p246
(dp247
g5
S'9.3'
p248
sg7
S'--'
p249
sg9
g3
sg11
S'--'
p250
sg13
g3
sg14
g10
sg15
S'2014'
p251
sg17
S'16'
p252
sg18
S'4.1'
p253
sg20
S'12/20'
p254
sg22
g10
sg23
S'Branden Oliver'
p255
sg25
S'13'
p256
sg27
S'W38-35'
p257
sg29
S'28'
p258
sg31
g39
sg32
S'@SF'
p259
sg34
S'12'
p260
sg36
S'53'
p261
sg38
S'22'
p262
ssg3
(dp263
g5
S'--'
p264
sg7
S'--'
p265
sg9
g10
sg11
S'--'
p266
sg13
g10
sg14
S'--'
p267
sg15
S'2014'
p268
sg17
g3
sg18
S'--'
p269
sg20
S'09/08'
p270
sg22
S'--'
p271
sg23
S'Branden Oliver'
p272
sg25
S'--'
p273
sg27
S'L17-18'
p274
sg29
S'--'
p275
sg31
S'--'
p276
sg32
S'@ARI'
p277
sg34
S'--'
p278
sg36
S'--'
p279
sg38
S'--'
p280
ssg39
(dp281
g5
S'--'
p282
sg7
S'--'
p283
sg9
g10
sg11
S'--'
p284
sg13
g3
sg14
S'--'
p285
sg15
S'2014'
p286
sg17
g39
sg18
S'3.7'
p287
sg20
S'09/21'
p288
sg22
g10
sg23
S'Branden Oliver'
p289
sg25
g39
sg27
S'W22-10'
p290
sg29
S'--'
p291
sg31
S'--'
p292
sg32
S'@BUF'
p293
sg34
S'--'
p294
sg36
S'11'
p295
sg38
g53
ssg26
(dp296
g5
S'--'
p297
sg7
S'--'
p298
sg9
g10
sg11
S'--'
p299
sg13
g10
sg14
S'--'
p300
sg15
S'2014'
p301
sg17
g26
sg18
S'--'
p302
sg20
S'09/14'
p303
sg22
S'--'
p304
sg23
S'Branden Oliver'
p305
sg25
S'--'
p306
sg27
S'W30-21'
p307
sg29
S'--'
p308
sg31
S'--'
p309
sg32
S'SEA'
p310
sg34
S'--'
p311
sg36
S'--'
p312
sg38
S'--'
p313
ssg68
(dp314
g5
S'17.0'
p315
sg7
S'--'
p316
sg9
g10
sg11
S'--'
p317
sg13
g3
sg14
g3
sg15
S'2014'
p318
sg17
g68
sg18
S'6.0'
p319
sg20
S'10/05'
p320
sg22
g3
sg23
S'Branden Oliver'
p321
sg25
S'19'
p322
sg27
S'W31-0'
p323
sg29
S'68'
p324
sg31
g37
sg32
S'NYJ'
p325
sg34
S'50'
p326
sg36
S'114'
p327
sg38
S'52'
p328
ssg37
(dp329
g5
S'8.3'
p330
sg7
S'--'
p331
sg9
g10
sg11
S'--'
p332
sg13
g3
sg14
g10
sg15
S'2014'
p333
sg17
g37
sg18
S'2.6'
p334
sg20
S'09/28'
p335
sg22
g10
sg23
S'Branden Oliver'
p336
sg25
g114
sg27
S'W33-14'
p337
sg29
S'33'
p338
sg31
g37
sg32
S'JAC'
p339
sg34
S'11'
p340
sg36
S'23'
p341
sg38
g105
ssg105
(dp342
g5
S'5.5'
p343
sg7
S'--'
p344
sg9
g3
sg11
S'--'
p345
sg13
g3
sg14
g10
sg15
S'2014'
p346
sg17
g105
sg18
S'4.5'
p347
sg20
S'10/19'
p348
sg22
g10
sg23
S'Branden Oliver'
p349
sg25
S'15'
p350
sg27
S'L20-23'
p351
sg29
S'11'
p352
sg31
g26
sg32
S'KC'
p353
sg34
g114
sg36
S'67'
p354
sg38
S'13'
p355
ssg53
(dp356
g5
S'5.8'
p357
sg7
S'--'
p358
sg9
g3
sg11
S'--'
p359
sg13
g3
sg14
g10
sg15
S'2014'
p360
sg17
g53
sg18
S'3.9'
p361
sg20
S'10/12'
p362
sg22
g3
sg23
S'Branden Oliver'
p363
sg25
S'26'
p364
sg27
S'W31-28'
p365
sg29
S'23'
p366
sg31
g37
sg32
S'@OAK'
p367
sg34
S'20'
p368
sg36
S'101'
p369
sg38
S'12'
p370
ssg114
(dp371
g5
S'7.0'
p372
sg7
S'--'
p373
sg9
g3
sg11
S'--'
p374
sg13
g3
sg14
g10
sg15
S'2014'
p375
sg17
g114
sg18
S'1.5'
p376
sg20
S'11/02'
p377
sg22
g10
sg23
S'Branden Oliver'
p378
sg25
S'13'
p379
sg27
S'L0-37'
p380
sg29
g105
sg31
g3
sg32
S'@MIA'
p381
sg34
g105
sg36
S'19'
p382
sg38
S'11'
p383
ssg48
(dp384
g5
S'3.9'
p385
sg7
S'--'
p386
sg9
g3
sg11
S'--'
p387
sg13
g3
sg14
g10
sg15
S'2014'
p388
sg17
g48
sg18
S'2.8'
p389
sg20
S'10/23'
p390
sg22
g10
sg23
S'Branden Oliver'
p391
sg25
S'13'
p392
sg27
S'L21-35'
p393
sg29
S'27'
p394
sg31
g105
sg32
S'@DEN'
p395
sg34
S'22'
p396
sg36
S'36'
p397
sg38
S'23'
p398
sss.