(dp0
S'2015'
p1
(dp2
S'11'
p3
(dp4
S'RecAvg'
p5
S'--'
p6
sS'FUM'
p7
S'--'
p8
sS'GS'
p9
S'0'
p10
sS'Lost'
p11
S'--'
p12
sS'G'
p13
S'1'
p14
sS'RecTD'
p15
g10
sS'Year'
p16
S'2015'
p17
sS'WK'
p18
S'11'
p19
sS'RushAvg'
p20
S'3.8'
p21
sS'Game Date'
p22
S'11/23'
p23
sS'RushTD'
p24
g10
sS'Player'
p25
S'Brandon Bolden'
p26
sS'RushAtt'
p27
S'4'
p28
sS'Result'
p29
S'W20-13'
p30
sS'RecYds'
p31
g10
sS'Rec'
p32
g10
sS'Opp'
p33
S'BUF'
p34
sS'RecLng'
p35
S'--'
p36
sS'RushYds'
p37
S'15'
p38
sS'RushLng'
p39
S'7'
p40
ssS'10'
p41
(dp42
g5
S'--'
p43
sg7
S'--'
p44
sg9
g10
sg11
S'--'
p45
sg13
g14
sg15
g10
sg16
S'2015'
p46
sg18
S'10'
p47
sg20
S'-3.0'
p48
sg22
S'11/15'
p49
sg24
g10
sg25
S'Brandon Bolden'
p50
sg27
g14
sg29
S'W27-26'
p51
sg31
g10
sg32
g10
sg33
S'@NYG'
p52
sg35
S'--'
p53
sg37
S'-3'
p54
sg39
S'-3'
p55
ssS'13'
p56
(dp57
g5
S'2.0'
p58
sg7
S'--'
p59
sg9
g10
sg11
S'--'
p60
sg13
g14
sg15
g10
sg16
S'2015'
p61
sg18
S'13'
p62
sg20
S'7.3'
p63
sg22
S'12/06'
p64
sg24
g10
sg25
S'Brandon Bolden'
p65
sg27
S'3'
p66
sg29
S'L28-35'
p67
sg31
S'2'
p68
sg32
g14
sg33
S'PHI'
p69
sg35
g68
sg37
S'22'
p70
sg39
S'14'
p71
ssS'12'
p72
(dp73
g5
S'21.0'
p74
sg7
S'--'
p75
sg9
g10
sg11
S'--'
p76
sg13
g14
sg15
g14
sg16
S'2015'
p77
sg18
S'12'
p78
sg20
S'2.8'
p79
sg22
S'11/29'
p80
sg24
g10
sg25
S'Brandon Bolden'
p81
sg27
g28
sg29
S'L24-30'
p82
sg31
S'84'
p83
sg32
g28
sg33
S'@DEN'
p84
sg35
S'63T'
p85
sg37
S'11'
p86
sg39
S'9'
p87
ssS'15'
p88
(dp89
g5
S'9.0'
p90
sg7
S'--'
p91
sg9
g14
sg11
S'--'
p92
sg13
g14
sg15
g10
sg16
S'2015'
p93
sg18
S'15'
p94
sg20
S'3.6'
p95
sg22
S'12/20'
p96
sg24
g10
sg25
S'Brandon Bolden'
p97
sg27
S'10'
p98
sg29
S'W33-16'
p99
sg31
S'18'
p100
sg32
g68
sg33
S'TEN'
p101
sg35
S'12'
p102
sg37
S'36'
p103
sg39
S'10'
p104
ssS'14'
p105
(dp106
g5
S'--'
p107
sg7
S'--'
p108
sg9
g10
sg11
S'--'
p109
sg13
g14
sg15
S'--'
p110
sg16
S'2015'
p111
sg18
S'14'
p112
sg20
S'3.2'
p113
sg22
S'12/13'
p114
sg24
g10
sg25
S'Brandon Bolden'
p115
sg27
S'16'
p116
sg29
S'W27-6'
p117
sg31
S'--'
p118
sg32
S'--'
p119
sg33
S'@HOU'
p120
sg35
S'--'
p121
sg37
S'51'
p122
sg39
S'12'
p123
ssS'17'
p124
(dp125
g5
S'2.5'
p126
sg7
S'--'
p127
sg9
g10
sg11
S'--'
p128
sg13
g14
sg15
g10
sg16
S'2015'
p129
sg18
S'17'
p130
sg20
S'3.4'
p131
sg22
S'01/03'
p132
sg24
g10
sg25
S'Brandon Bolden'
p133
sg27
g87
sg29
S'L10-20'
p134
sg31
S'5'
p135
sg32
g68
sg33
S'@MIA'
p136
sg35
S'6'
p137
sg37
S'31'
p138
sg39
S'10'
p139
ssS'16'
p140
(dp141
g5
S'6.0'
p142
sg7
S'--'
p143
sg9
g14
sg11
S'--'
p144
sg13
g14
sg15
g10
sg16
S'2015'
p145
sg18
S'16'
p146
sg20
S'3.3'
p147
sg22
S'12/27'
p148
sg24
g10
sg25
S'Brandon Bolden'
p149
sg27
g87
sg29
S'L20-26'
p150
sg31
S'30'
p151
sg32
g135
sg33
S'@NYJ'
p152
sg35
S'14'
p153
sg37
S'30'
p154
sg39
S'13'
p155
ssg14
(dp156
g5
S'12.0'
p157
sg7
S'--'
p158
sg9
g10
sg11
S'--'
p159
sg13
g14
sg15
g10
sg16
S'2015'
p160
sg18
g14
sg20
S'0.2'
p161
sg22
S'09/10'
p162
sg24
g10
sg25
S'Brandon Bolden'
p163
sg27
g135
sg29
S'W28-21'
p164
sg31
S'12'
p165
sg32
g14
sg33
S'PIT'
p166
sg35
S'12'
p167
sg37
g14
sg39
g66
ssg66
(dp168
g5
S'--'
p169
sg7
S'--'
p170
sg9
g10
sg11
S'--'
p171
sg13
g14
sg15
S'--'
p172
sg16
S'2015'
p173
sg18
g66
sg20
S'--'
p174
sg22
S'09/27'
p175
sg24
S'--'
p176
sg25
S'Brandon Bolden'
p177
sg27
S'--'
p178
sg29
S'W51-17'
p179
sg31
S'--'
p180
sg32
S'--'
p181
sg33
S'JAC'
p182
sg35
S'--'
p183
sg37
S'--'
p184
sg39
S'--'
p185
ssg68
(dp186
g5
S'2.0'
p187
sg7
S'--'
p188
sg9
g10
sg11
S'--'
p189
sg13
g14
sg15
g10
sg16
S'2015'
p190
sg18
g68
sg20
S'1.0'
p191
sg22
S'09/20'
p192
sg24
g10
sg25
S'Brandon Bolden'
p193
sg27
g14
sg29
S'W40-32'
p194
sg31
g68
sg32
g14
sg33
S'@BUF'
p195
sg35
g68
sg37
g14
sg39
g14
ssg135
(dp196
g5
S'--'
p197
sg7
S'--'
p198
sg9
g10
sg11
S'--'
p199
sg13
g14
sg15
S'--'
p200
sg16
S'2015'
p201
sg18
g135
sg20
S'--'
p202
sg22
S'10/11'
p203
sg24
S'--'
p204
sg25
S'Brandon Bolden'
p205
sg27
S'--'
p206
sg29
S'W30-6'
p207
sg31
S'--'
p208
sg32
S'--'
p209
sg33
S'@DAL'
p210
sg35
S'--'
p211
sg37
S'--'
p212
sg39
S'--'
p213
ssg28
(dp214
g5
S''
p215
sg7
g215
sg9
g215
sg11
g215
sg13
g215
sg15
g215
sg16
S'2015'
p216
sg18
g28
sg20
g215
sg22
S'Bye'
p217
sg24
g215
sg25
S'Brandon Bolden'
p218
sg27
g215
sg29
g215
sg31
g215
sg32
g215
sg33
g215
sg35
g215
sg37
g215
sg39
g215
ssg40
(dp219
g5
S'--'
p220
sg7
S'--'
p221
sg9
g10
sg11
S'--'
p222
sg13
g10
sg15
S'--'
p223
sg16
S'2015'
p224
sg18
g40
sg20
S'--'
p225
sg22
S'10/25'
p226
sg24
S'--'
p227
sg25
S'Brandon Bolden'
p228
sg27
S'--'
p229
sg29
S'W30-23'
p230
sg31
S'--'
p231
sg32
S'--'
p232
sg33
S'NYJ'
p233
sg35
S'--'
p234
sg37
S'--'
p235
sg39
S'--'
p236
ssg137
(dp237
g5
S'--'
p238
sg7
S'--'
p239
sg9
g10
sg11
S'--'
p240
sg13
g14
sg15
S'--'
p241
sg16
S'2015'
p242
sg18
g137
sg20
S'--'
p243
sg22
S'10/18'
p244
sg24
S'--'
p245
sg25
S'Brandon Bolden'
p246
sg27
S'--'
p247
sg29
S'W34-27'
p248
sg31
S'--'
p249
sg32
S'--'
p250
sg33
S'@IND'
p251
sg35
S'--'
p252
sg37
S'--'
p253
sg39
S'--'
p254
ssg87
(dp255
g5
S'9.0'
p256
sg7
S'--'
p257
sg9
g10
sg11
S'--'
p258
sg13
g14
sg15
g14
sg16
S'2015'
p259
sg18
g87
sg20
S'12.0'
p260
sg22
S'11/08'
p261
sg24
g10
sg25
S'Brandon Bolden'
p262
sg27
g14
sg29
S'W27-10'
p263
sg31
S'27'
p264
sg32
g66
sg33
S'WAS'
p265
sg35
S'18T'
p266
sg37
S'12'
p267
sg39
S'12'
p268
ssS'8'
p269
(dp270
g5
S'--'
p271
sg7
S'--'
p272
sg9
g10
sg11
S'--'
p273
sg13
g14
sg15
S'--'
p274
sg16
S'2015'
p275
sg18
g269
sg20
S'--'
p276
sg22
S'10/29'
p277
sg24
S'--'
p278
sg25
S'Brandon Bolden'
p279
sg27
S'--'
p280
sg29
S'W36-7'
p281
sg31
S'--'
p282
sg32
S'--'
p283
sg33
S'MIA'
p284
sg35
S'--'
p285
sg37
S'--'
p286
sg39
S'--'
p287
sssS'2014'
p288
(dp289
g3
(dp290
g5
S'--'
p291
sg7
S'--'
p292
sg9
g10
sg11
S'--'
p293
sg13
g14
sg15
S'--'
p294
sg16
S'2014'
p295
sg18
S'11'
p296
sg20
S'--'
p297
sg22
S'11/16'
p298
sg24
S'--'
p299
sg25
S'Brandon Bolden'
p300
sg27
S'--'
p301
sg29
S'W42-20'
p302
sg31
S'--'
p303
sg32
S'--'
p304
sg33
S'@IND'
p305
sg35
S'--'
p306
sg37
S'--'
p307
sg39
S'--'
p308
ssg41
(dp309
g5
g215
sg7
g215
sg9
g215
sg11
g215
sg13
g215
sg15
g215
sg16
S'2014'
p310
sg18
S'10'
p311
sg20
g215
sg22
S'Bye'
p312
sg24
g215
sg25
S'Brandon Bolden'
p313
sg27
g215
sg29
g215
sg31
g215
sg32
g215
sg33
g215
sg35
g215
sg37
g215
sg39
g215
ssg56
(dp314
g5
S'--'
p315
sg7
S'--'
p316
sg9
g14
sg11
S'--'
p317
sg13
g14
sg15
S'--'
p318
sg16
S'2014'
p319
sg18
S'13'
p320
sg20
S'5.7'
p321
sg22
S'11/30'
p322
sg24
g14
sg25
S'Brandon Bolden'
p323
sg27
g66
sg29
S'L21-26'
p324
sg31
S'--'
p325
sg32
S'--'
p326
sg33
S'@GB'
p327
sg35
S'--'
p328
sg37
S'17'
p329
sg39
S'12'
p330
ssg72
(dp331
g5
S'--'
p332
sg7
S'--'
p333
sg9
g10
sg11
S'--'
p334
sg13
g14
sg15
S'--'
p335
sg16
S'2014'
p336
sg18
S'12'
p337
sg20
S'--'
p338
sg22
S'11/23'
p339
sg24
S'--'
p340
sg25
S'Brandon Bolden'
p341
sg27
S'--'
p342
sg29
S'W34-9'
p343
sg31
S'--'
p344
sg32
S'--'
p345
sg33
S'DET'
p346
sg35
S'--'
p347
sg37
S'--'
p348
sg39
S'--'
p349
ssg88
(dp350
g5
S'--'
p351
sg7
S'--'
p352
sg9
g10
sg11
S'--'
p353
sg13
g14
sg15
S'--'
p354
sg16
S'2014'
p355
sg18
S'15'
p356
sg20
S'--'
p357
sg22
S'12/14'
p358
sg24
S'--'
p359
sg25
S'Brandon Bolden'
p360
sg27
S'--'
p361
sg29
S'W41-13'
p362
sg31
S'--'
p363
sg32
S'--'
p364
sg33
S'MIA'
p365
sg35
S'--'
p366
sg37
S'--'
p367
sg39
S'--'
p368
ssg105
(dp369
g5
S'--'
p370
sg7
S'--'
p371
sg9
g10
sg11
S'--'
p372
sg13
g14
sg15
S'--'
p373
sg16
S'2014'
p374
sg18
S'14'
p375
sg20
S'--'
p376
sg22
S'12/07'
p377
sg24
S'--'
p378
sg25
S'Brandon Bolden'
p379
sg27
S'--'
p380
sg29
S'W23-14'
p381
sg31
S'--'
p382
sg32
S'--'
p383
sg33
S'@SD'
p384
sg35
S'--'
p385
sg37
S'--'
p386
sg39
S'--'
p387
ssg124
(dp388
g5
S'--'
p389
sg7
S'--'
p390
sg9
g14
sg11
S'--'
p391
sg13
g14
sg15
g10
sg16
S'2014'
p392
sg18
S'17'
p393
sg20
S'3.0'
p394
sg22
S'12/28'
p395
sg24
g10
sg25
S'Brandon Bolden'
p396
sg27
g135
sg29
S'L9-17'
p397
sg31
g10
sg32
g10
sg33
S'BUF'
p398
sg35
S'--'
p399
sg37
S'15'
p400
sg39
g40
ssg140
(dp401
g5
S'--'
p402
sg7
S'--'
p403
sg9
g10
sg11
S'--'
p404
sg13
g14
sg15
S'--'
p405
sg16
S'2014'
p406
sg18
S'16'
p407
sg20
S'6.4'
p408
sg22
S'12/21'
p409
sg24
g10
sg25
S'Brandon Bolden'
p410
sg27
g135
sg29
S'W17-16'
p411
sg31
S'--'
p412
sg32
S'--'
p413
sg33
S'@NYJ'
p414
sg35
S'--'
p415
sg37
S'32'
p416
sg39
S'17'
p417
ssg14
(dp418
g5
S'4.0'
p419
sg7
S'--'
p420
sg9
g10
sg11
S'--'
p421
sg13
g14
sg15
g10
sg16
S'2014'
p422
sg18
g14
sg20
S'4.0'
p423
sg22
S'09/07'
p424
sg24
g10
sg25
S'Brandon Bolden'
p425
sg27
g68
sg29
S'L20-33'
p426
sg31
g28
sg32
g14
sg33
S'@MIA'
p427
sg35
g28
sg37
g269
sg39
g40
ssg66
(dp428
g5
S'--'
p429
sg7
S'--'
p430
sg9
g10
sg11
S'--'
p431
sg13
g14
sg15
S'--'
p432
sg16
S'2014'
p433
sg18
g66
sg20
S'2.0'
p434
sg22
S'09/21'
p435
sg24
g10
sg25
S'Brandon Bolden'
p436
sg27
g68
sg29
S'W16-9'
p437
sg31
S'--'
p438
sg32
S'--'
p439
sg33
S'OAK'
p440
sg35
S'--'
p441
sg37
g28
sg39
g66
ssg68
(dp442
g5
S'--'
p443
sg7
S'--'
p444
sg9
g10
sg11
S'--'
p445
sg13
g14
sg15
S'--'
p446
sg16
S'2014'
p447
sg18
g68
sg20
S'0.0'
p448
sg22
S'09/14'
p449
sg24
g10
sg25
S'Brandon Bolden'
p450
sg27
g28
sg29
S'W30-7'
p451
sg31
S'--'
p452
sg32
S'--'
p453
sg33
S'@MIN'
p454
sg35
S'--'
p455
sg37
g10
sg39
g68
ssg135
(dp456
g5
S'--'
p457
sg7
S'--'
p458
sg9
g10
sg11
S'--'
p459
sg13
g14
sg15
S'--'
p460
sg16
S'2014'
p461
sg18
g135
sg20
S'3.0'
p462
sg22
S'10/05'
p463
sg24
g10
sg25
S'Brandon Bolden'
p464
sg27
g14
sg29
S'W43-17'
p465
sg31
S'--'
p466
sg32
S'--'
p467
sg33
S'CIN'
p468
sg35
S'--'
p469
sg37
g66
sg39
g66
ssg28
(dp470
g5
S'--'
p471
sg7
S'--'
p472
sg9
g10
sg11
S'--'
p473
sg13
g14
sg15
S'--'
p474
sg16
S'2014'
p475
sg18
g28
sg20
S'--'
p476
sg22
S'09/29'
p477
sg24
S'--'
p478
sg25
S'Brandon Bolden'
p479
sg27
S'--'
p480
sg29
S'L14-41'
p481
sg31
S'--'
p482
sg32
S'--'
p483
sg33
S'@KC'
p484
sg35
S'--'
p485
sg37
S'--'
p486
sg39
S'--'
p487
ssg40
(dp488
g5
S'4.0'
p489
sg7
S'--'
p490
sg9
g10
sg11
S'--'
p491
sg13
g14
sg15
g10
sg16
S'2014'
p492
sg18
g40
sg20
S'--'
p493
sg22
S'10/16'
p494
sg24
S'--'
p495
sg25
S'Brandon Bolden'
p496
sg27
S'--'
p497
sg29
S'W27-25'
p498
sg31
g28
sg32
g14
sg33
S'NYJ'
p499
sg35
g28
sg37
S'--'
p500
sg39
S'--'
p501
ssg137
(dp502
g5
S'--'
p503
sg7
S'--'
p504
sg9
g10
sg11
S'--'
p505
sg13
g14
sg15
S'--'
p506
sg16
S'2014'
p507
sg18
g137
sg20
S'1.7'
p508
sg22
S'10/12'
p509
sg24
g10
sg25
S'Brandon Bolden'
p510
sg27
g137
sg29
S'W37-22'
p511
sg31
S'--'
p512
sg32
S'--'
p513
sg33
S'@BUF'
p514
sg35
S'--'
p515
sg37
S'10'
p516
sg39
g269
ssg87
(dp517
g5
S'--'
p518
sg7
S'--'
p519
sg9
g10
sg11
S'--'
p520
sg13
g14
sg15
S'--'
p521
sg16
S'2014'
p522
sg18
g87
sg20
S'--'
p523
sg22
S'11/02'
p524
sg24
S'--'
p525
sg25
S'Brandon Bolden'
p526
sg27
S'--'
p527
sg29
S'W43-21'
p528
sg31
S'--'
p529
sg32
S'--'
p530
sg33
S'DEN'
p531
sg35
S'--'
p532
sg37
S'--'
p533
sg39
S'--'
p534
ssg269
(dp535
g5
S'--'
p536
sg7
S'--'
p537
sg9
g10
sg11
S'--'
p538
sg13
g14
sg15
S'--'
p539
sg16
S'2014'
p540
sg18
g269
sg20
S'--'
p541
sg22
S'10/26'
p542
sg24
S'--'
p543
sg25
S'Brandon Bolden'
p544
sg27
S'--'
p545
sg29
S'W51-23'
p546
sg31
S'--'
p547
sg32
S'--'
p548
sg33
S'CHI'
p549
sg35
S'--'
p550
sg37
S'--'
p551
sg39
S'--'
p552
sssS'2013'
p553
(dp554
g3
(dp555
g5
S'--'
p556
sg7
S'--'
p557
sg9
g10
sg11
S'--'
p558
sg13
g10
sg15
S'--'
p559
sg16
S'2013'
p560
sg18
S'11'
p561
sg20
S'--'
p562
sg22
S'11/18'
p563
sg24
S'--'
p564
sg25
S'Brandon Bolden'
p565
sg27
S'--'
p566
sg29
S'L20-24'
p567
sg31
S'--'
p568
sg32
S'--'
p569
sg33
S'@CAR'
p570
sg35
S'--'
p571
sg37
S'--'
p572
sg39
S'--'
p573
ssg41
(dp574
g5
g215
sg7
g215
sg9
g215
sg11
g215
sg13
g215
sg15
g215
sg16
S'2013'
p575
sg18
S'10'
p576
sg20
g215
sg22
S'Bye'
p577
sg24
g215
sg25
S'Brandon Bolden'
p578
sg27
g215
sg29
g215
sg31
g215
sg32
g215
sg33
g215
sg35
g215
sg37
g215
sg39
g215
ssg56
(dp579
g5
S'18.0'
p580
sg7
S'--'
p581
sg9
g10
sg11
S'--'
p582
sg13
g14
sg15
g10
sg16
S'2013'
p583
sg18
S'13'
p584
sg20
S'0.7'
p585
sg22
S'12/01'
p586
sg24
g10
sg25
S'Brandon Bolden'
p587
sg27
g66
sg29
S'W34-31'
p588
sg31
S'18'
p589
sg32
g14
sg33
S'@HOU'
p590
sg35
S'18'
p591
sg37
g68
sg39
g14
ssg72
(dp592
g5
S'11.0'
p593
sg7
S'--'
p594
sg9
g10
sg11
S'--'
p595
sg13
g14
sg15
g10
sg16
S'2013'
p596
sg18
S'12'
p597
sg20
S'4.5'
p598
sg22
S'11/24'
p599
sg24
g14
sg25
S'Brandon Bolden'
p600
sg27
S'13'
p601
sg29
S'W34-31'
p602
sg31
S'11'
p603
sg32
g14
sg33
S'DEN'
p604
sg35
S'11'
p605
sg37
S'58'
p606
sg39
S'33'
p607
ssg88
(dp608
g5
S'--'
p609
sg7
S'--'
p610
sg9
g10
sg11
S'--'
p611
sg13
g14
sg15
S'--'
p612
sg16
S'2013'
p613
sg18
S'15'
p614
sg20
S'--'
p615
sg22
S'12/15'
p616
sg24
S'--'
p617
sg25
S'Brandon Bolden'
p618
sg27
S'--'
p619
sg29
S'L20-24'
p620
sg31
S'--'
p621
sg32
S'--'
p622
sg33
S'@MIA'
p623
sg35
S'--'
p624
sg37
S'--'
p625
sg39
S'--'
p626
ssg105
(dp627
g5
S'--'
p628
sg7
S'--'
p629
sg9
g10
sg11
S'--'
p630
sg13
g10
sg15
S'--'
p631
sg16
S'2013'
p632
sg18
S'14'
p633
sg20
S'--'
p634
sg22
S'12/08'
p635
sg24
S'--'
p636
sg25
S'Brandon Bolden'
p637
sg27
S'--'
p638
sg29
S'W27-26'
p639
sg31
S'--'
p640
sg32
S'--'
p641
sg33
S'CLE'
p642
sg35
S'--'
p643
sg37
S'--'
p644
sg39
S'--'
p645
ssg124
(dp646
g5
S'--'
p647
sg7
S'--'
p648
sg9
g10
sg11
S'--'
p649
sg13
g14
sg15
S'--'
p650
sg16
S'2013'
p651
sg18
S'17'
p652
sg20
S'--'
p653
sg22
S'12/29'
p654
sg24
S'--'
p655
sg25
S'Brandon Bolden'
p656
sg27
S'--'
p657
sg29
S'W34-20'
p658
sg31
S'--'
p659
sg32
S'--'
p660
sg33
S'BUF'
p661
sg35
S'--'
p662
sg37
S'--'
p663
sg39
S'--'
p664
ssg140
(dp665
g5
S'8.0'
p666
sg7
S'--'
p667
sg9
g10
sg11
S'--'
p668
sg13
g14
sg15
g10
sg16
S'2013'
p669
sg18
S'16'
p670
sg20
S'6.0'
p671
sg22
S'12/22'
p672
sg24
g10
sg25
S'Brandon Bolden'
p673
sg27
g14
sg29
S'W41-7'
p674
sg31
S'16'
p675
sg32
g68
sg33
S'@BAL'
p676
sg35
S'12'
p677
sg37
g137
sg39
g137
ssg14
(dp678
g5
S'--'
p679
sg7
S'--'
p680
sg9
g10
sg11
S'--'
p681
sg13
g10
sg15
S'--'
p682
sg16
S'2013'
p683
sg18
g14
sg20
S'--'
p684
sg22
S'09/08'
p685
sg24
S'--'
p686
sg25
S'Brandon Bolden'
p687
sg27
S'--'
p688
sg29
S'W23-21'
p689
sg31
S'--'
p690
sg32
S'--'
p691
sg33
S'@BUF'
p692
sg35
S'--'
p693
sg37
S'--'
p694
sg39
S'--'
p695
ssg66
(dp696
g5
S'9.8'
p697
sg7
S'--'
p698
sg9
g14
sg11
S'--'
p699
sg13
g14
sg15
g10
sg16
S'2013'
p700
sg18
g66
sg20
S'17.0'
p701
sg22
S'09/22'
p702
sg24
g10
sg25
S'Brandon Bolden'
p703
sg27
g66
sg29
S'W23-3'
p704
sg31
S'49'
p705
sg32
g135
sg33
S'TB'
p706
sg35
S'17'
p707
sg37
S'51'
p708
sg39
S'46'
p709
ssg68
(dp710
g5
S'--'
p711
sg7
S'--'
p712
sg9
g10
sg11
S'--'
p713
sg13
g10
sg15
S'--'
p714
sg16
S'2013'
p715
sg18
g68
sg20
S'--'
p716
sg22
S'09/12'
p717
sg24
S'--'
p718
sg25
S'Brandon Bolden'
p719
sg27
S'--'
p720
sg29
S'W13-10'
p721
sg31
S'--'
p722
sg32
S'--'
p723
sg33
S'NYJ'
p724
sg35
S'--'
p725
sg37
S'--'
p726
sg39
S'--'
p727
ssg135
(dp728
g5
S'6.7'
p729
sg7
S'--'
p730
sg9
g10
sg11
S'--'
p731
sg13
g14
sg15
g10
sg16
S'2013'
p732
sg18
g135
sg20
S'4.8'
p733
sg22
S'10/06'
p734
sg24
g10
sg25
S'Brandon Bolden'
p735
sg27
g135
sg29
S'L6-13'
p736
sg31
S'40'
p737
sg32
g137
sg33
S'@CIN'
p738
sg35
S'14'
p739
sg37
S'24'
p740
sg39
S'12'
p741
ssg28
(dp742
g5
S'-5.0'
p743
sg7
S'--'
p744
sg9
g10
sg11
S'--'
p745
sg13
g14
sg15
g10
sg16
S'2013'
p746
sg18
g28
sg20
S'2.8'
p747
sg22
S'09/29'
p748
sg24
g10
sg25
S'Brandon Bolden'
p749
sg27
g137
sg29
S'W30-23'
p750
sg31
S'-5'
p751
sg32
g14
sg33
S'@ATL'
p752
sg35
S'-5'
p753
sg37
S'17'
p754
sg39
g269
ssg40
(dp755
g5
S'7.0'
p756
sg7
S'--'
p757
sg9
g14
sg11
S'--'
p758
sg13
g14
sg15
g10
sg16
S'2013'
p759
sg18
g40
sg20
S'4.5'
p760
sg22
S'10/20'
p761
sg24
g14
sg25
S'Brandon Bolden'
p762
sg27
g269
sg29
S'L27-30'
p763
sg31
g40
sg32
g14
sg33
S'@NYJ'
p764
sg35
g40
sg37
S'36'
p765
sg39
g87
ssg137
(dp766
g5
S'4.5'
p767
sg7
S'--'
p768
sg9
g10
sg11
S'--'
p769
sg13
g14
sg15
g10
sg16
S'2013'
p770
sg18
g137
sg20
S'3.8'
p771
sg22
S'10/13'
p772
sg24
g10
sg25
S'Brandon Bolden'
p773
sg27
g135
sg29
S'W30-27'
p774
sg31
g87
sg32
g68
sg33
S'NO'
p775
sg35
g135
sg37
S'19'
p776
sg39
S'12'
p777
ssg87
(dp778
g5
S'--'
p779
sg7
S'--'
p780
sg9
g10
sg11
S'--'
p781
sg13
g14
sg15
S'--'
p782
sg16
S'2013'
p783
sg18
g87
sg20
S'12.0'
p784
sg22
S'11/03'
p785
sg24
g10
sg25
S'Brandon Bolden'
p786
sg27
g66
sg29
S'W55-31'
p787
sg31
S'--'
p788
sg32
S'--'
p789
sg33
S'PIT'
p790
sg35
S'--'
p791
sg37
S'36'
p792
sg39
S'14'
p793
ssg269
(dp794
g5
S'3.5'
p795
sg7
S'--'
p796
sg9
g10
sg11
S'--'
p797
sg13
g14
sg15
g10
sg16
S'2013'
p798
sg18
g269
sg20
S'2.8'
p799
sg22
S'10/27'
p800
sg24
g14
sg25
S'Brandon Bolden'
p801
sg27
g269
sg29
S'W27-17'
p802
sg31
g40
sg32
g68
sg33
S'MIA'
p803
sg35
g135
sg37
S'22'
p804
sg39
g269
sssS'2012'
p805
(dp806
g88
(dp807
g5
S'--'
p808
sg7
S'--'
p809
sg9
g10
sg11
S'--'
p810
sg13
g14
sg15
S'--'
p811
sg16
S'2012'
p812
sg18
S'15'
p813
sg20
S'--'
p814
sg22
S'12/16'
p815
sg24
S'--'
p816
sg25
S'Brandon Bolden'
p817
sg27
S'--'
p818
sg29
S'L34-41'
p819
sg31
S'--'
p820
sg32
S'--'
p821
sg33
S'SF'
p822
sg35
S'--'
p823
sg37
S'--'
p824
sg39
S'--'
p825
ssg105
(dp826
g5
S'--'
p827
sg7
S'--'
p828
sg9
g10
sg11
S'--'
p829
sg13
g14
sg15
S'--'
p830
sg16
S'2012'
p831
sg18
S'14'
p832
sg20
S'5.5'
p833
sg22
S'12/10'
p834
sg24
g10
sg25
S'Brandon Bolden'
p835
sg27
g68
sg29
S'W42-14'
p836
sg31
S'--'
p837
sg32
S'--'
p838
sg33
S'HOU'
p839
sg35
S'--'
p840
sg37
S'11'
p841
sg39
g137
ssg124
(dp842
g5
S'--'
p843
sg7
S'--'
p844
sg9
g10
sg11
S'--'
p845
sg13
g14
sg15
S'--'
p846
sg16
S'2012'
p847
sg18
S'17'
p848
sg20
S'4.3'
p849
sg22
S'12/30'
p850
sg24
g10
sg25
S'Brandon Bolden'
p851
sg27
g137
sg29
S'W28-0'
p852
sg31
S'--'
p853
sg32
S'--'
p854
sg33
S'MIA'
p855
sg35
S'--'
p856
sg37
S'26'
p857
sg39
S'24'
p858
ssg140
(dp859
g5
S'--'
p860
sg7
S'--'
p861
sg9
g10
sg11
S'--'
p862
sg13
g14
sg15
S'--'
p863
sg16
S'2012'
p864
sg18
S'16'
p865
sg20
S'0.6'
p866
sg22
S'12/23'
p867
sg24
g10
sg25
S'Brandon Bolden'
p868
sg27
g135
sg29
S'W23-16'
p869
sg31
S'--'
p870
sg32
S'--'
p871
sg33
S'@JAC'
p872
sg35
S'--'
p873
sg37
g66
sg39
g28
ssg14
(dp874
g5
S'--'
p875
sg7
S'--'
p876
sg9
g10
sg11
S'--'
p877
sg13
g14
sg15
S'--'
p878
sg16
S'2012'
p879
sg18
g14
sg20
S'2.2'
p880
sg22
S'09/09'
p881
sg24
g10
sg25
S'Brandon Bolden'
p882
sg27
g135
sg29
S'W34-13'
p883
sg31
S'--'
p884
sg32
S'--'
p885
sg33
S'@TEN'
p886
sg35
S'--'
p887
sg37
S'11'
p888
sg39
g87
ssg66
(dp889
g5
S'--'
p890
sg7
S'--'
p891
sg9
g10
sg11
S'--'
p892
sg13
g14
sg15
S'--'
p893
sg16
S'2012'
p894
sg18
g66
sg20
S'2.0'
p895
sg22
S'09/23'
p896
sg24
g14
sg25
S'Brandon Bolden'
p897
sg27
g68
sg29
S'L30-31'
p898
sg31
S'--'
p899
sg32
S'--'
p900
sg33
S'@BAL'
p901
sg35
S'--'
p902
sg37
g28
sg39
S'2T'
p903
ssg68
(dp904
g5
S'--'
p905
sg7
S'--'
p906
sg9
g10
sg11
S'--'
p907
sg13
g14
sg15
S'--'
p908
sg16
S'2012'
p909
sg18
g68
sg20
S'--'
p910
sg22
S'09/16'
p911
sg24
S'--'
p912
sg25
S'Brandon Bolden'
p913
sg27
S'--'
p914
sg29
S'L18-20'
p915
sg31
S'--'
p916
sg32
S'--'
p917
sg33
S'ARI'
p918
sg35
S'--'
p919
sg37
S'--'
p920
sg39
S'--'
p921
ssg135
(dp922
g5
S'0.0'
p923
sg7
S'--'
p924
sg9
g10
sg11
S'--'
p925
sg13
g14
sg15
g10
sg16
S'2012'
p926
sg18
g135
sg20
S'3.9'
p927
sg22
S'10/07'
p928
sg24
g10
sg25
S'Brandon Bolden'
p929
sg27
S'14'
p930
sg29
S'W31-21'
p931
sg31
g10
sg32
g14
sg33
S'DEN'
p932
sg35
g10
sg37
S'54'
p933
sg39
S'24'
p934
ssg28
(dp935
g5
S'11.0'
p936
sg7
S'--'
p937
sg9
g10
sg11
S'--'
p938
sg13
g14
sg15
g10
sg16
S'2012'
p939
sg18
g28
sg20
S'8.6'
p940
sg22
S'09/30'
p941
sg24
g14
sg25
S'Brandon Bolden'
p942
sg27
S'16'
p943
sg29
S'W52-28'
p944
sg31
S'11'
p945
sg32
g14
sg33
S'@BUF'
p946
sg35
S'11'
p947
sg37
S'137'
p948
sg39
S'27'
p949
ssg40
(dp950
g5
S'--'
p951
sg7
S'--'
p952
sg9
g10
sg11
S'--'
p953
sg13
g10
sg15
S'--'
p954
sg16
S'2012'
p955
sg18
g40
sg20
S'--'
p956
sg22
S'10/21'
p957
sg24
S'--'
p958
sg25
S'Brandon Bolden'
p959
sg27
S'--'
p960
sg29
S'W29-26'
p961
sg31
S'--'
p962
sg32
S'--'
p963
sg33
S'NYJ'
p964
sg35
S'--'
p965
sg37
S'--'
p966
sg39
S'--'
p967
ssg137
(dp968
g5
S'--'
p969
sg7
S'--'
p970
sg9
g10
sg11
S'--'
p971
sg13
g14
sg15
S'--'
p972
sg16
S'2012'
p973
sg18
g137
sg20
S'4.7'
p974
sg22
S'10/14'
p975
sg24
g10
sg25
S'Brandon Bolden'
p976
sg27
g137
sg29
S'L23-24'
p977
sg31
S'--'
p978
sg32
S'--'
p979
sg33
S'@SEA'
p980
sg35
S'--'
p981
sg37
S'28'
p982
sg39
S'13'
p983
ssg269
(dp984
g5
S'--'
p985
sg7
S'--'
p986
sg9
g10
sg11
S'--'
p987
sg13
g10
sg15
S'--'
p988
sg16
S'2012'
p989
sg18
g269
sg20
S'--'
p990
sg22
S'10/28'
p991
sg24
S'--'
p992
sg25
S'Brandon Bolden'
p993
sg27
S'--'
p994
sg29
S'W45-7'
p995
sg31
S'--'
p996
sg32
S'--'
p997
sg33
S'@STL'
p998
sg35
S'--'
p999
sg37
S'--'
p1000
sg39
S'--'
p1001
sss.