(dp0
S'2015'
p1
(dp2
S'11'
p3
(dp4
S'RecAvg'
p5
S'--'
p6
sS'FUM'
p7
S'--'
p8
sS'GS'
p9
S'0'
p10
sS'Lost'
p11
S'--'
p12
sS'G'
p13
g10
sS'RecTD'
p14
S'--'
p15
sS'Year'
p16
S'2015'
p17
sS'WK'
p18
S'11'
p19
sS'RushAvg'
p20
S'--'
p21
sS'Game Date'
p22
S'11/22'
p23
sS'RushTD'
p24
S'--'
p25
sS'Player'
p26
S'Brandon Wegher'
p27
sS'RushAtt'
p28
S'--'
p29
sS'Result'
p30
S'W44-16'
p31
sS'RecYds'
p32
S'--'
p33
sS'Rec'
p34
S'--'
p35
sS'Opp'
p36
S'WAS'
p37
sS'RecLng'
p38
S'--'
p39
sS'RushYds'
p40
S'--'
p41
sS'RushLng'
p42
S'--'
p43
ssS'10'
p44
(dp45
g5
S'--'
p46
sg7
S'--'
p47
sg9
g10
sg11
S'--'
p48
sg13
g10
sg14
S'--'
p49
sg16
S'2015'
p50
sg18
S'10'
p51
sg20
S'--'
p52
sg22
S'11/15'
p53
sg24
S'--'
p54
sg26
S'Brandon Wegher'
p55
sg28
S'--'
p56
sg30
S'W27-10'
p57
sg32
S'--'
p58
sg34
S'--'
p59
sg36
S'@TEN'
p60
sg38
S'--'
p61
sg40
S'--'
p62
sg42
S'--'
p63
ssS'13'
p64
(dp65
g5
S'--'
p66
sg7
S'--'
p67
sg9
g10
sg11
S'--'
p68
sg13
g10
sg14
S'--'
p69
sg16
S'2015'
p70
sg18
S'13'
p71
sg20
S'--'
p72
sg22
S'12/06'
p73
sg24
S'--'
p74
sg26
S'Brandon Wegher'
p75
sg28
S'--'
p76
sg30
S'W41-38'
p77
sg32
S'--'
p78
sg34
S'--'
p79
sg36
S'@NO'
p80
sg38
S'--'
p81
sg40
S'--'
p82
sg42
S'--'
p83
ssS'12'
p84
(dp85
g5
S'--'
p86
sg7
S'--'
p87
sg9
g10
sg11
S'--'
p88
sg13
g10
sg14
S'--'
p89
sg16
S'2015'
p90
sg18
S'12'
p91
sg20
S'--'
p92
sg22
S'11/26'
p93
sg24
S'--'
p94
sg26
S'Brandon Wegher'
p95
sg28
S'--'
p96
sg30
S'W33-14'
p97
sg32
S'--'
p98
sg34
S'--'
p99
sg36
S'@DAL'
p100
sg38
S'--'
p101
sg40
S'--'
p102
sg42
S'--'
p103
ssS'15'
p104
(dp105
g5
S'--'
p106
sg7
S'--'
p107
sg9
g10
sg11
S'--'
p108
sg13
g10
sg14
S'--'
p109
sg16
S'2015'
p110
sg18
S'15'
p111
sg20
S'--'
p112
sg22
S'12/20'
p113
sg24
S'--'
p114
sg26
S'Brandon Wegher'
p115
sg28
S'--'
p116
sg30
S'W38-35'
p117
sg32
S'--'
p118
sg34
S'--'
p119
sg36
S'@NYG'
p120
sg38
S'--'
p121
sg40
S'--'
p122
sg42
S'--'
p123
ssS'14'
p124
(dp125
g5
S'--'
p126
sg7
S'--'
p127
sg9
g10
sg11
S'--'
p128
sg13
g10
sg14
S'--'
p129
sg16
S'2015'
p130
sg18
S'14'
p131
sg20
S'--'
p132
sg22
S'12/13'
p133
sg24
S'--'
p134
sg26
S'Brandon Wegher'
p135
sg28
S'--'
p136
sg30
S'W38-0'
p137
sg32
S'--'
p138
sg34
S'--'
p139
sg36
S'ATL'
p140
sg38
S'--'
p141
sg40
S'--'
p142
sg42
S'--'
p143
ssS'17'
p144
(dp145
g5
S'--'
p146
sg7
S'--'
p147
sg9
g10
sg11
S'--'
p148
sg13
S'1'
p149
sg14
S'--'
p150
sg16
S'2015'
p151
sg18
S'17'
p152
sg20
S'--'
p153
sg22
S'01/03'
p154
sg24
S'--'
p155
sg26
S'Brandon Wegher'
p156
sg28
S'--'
p157
sg30
S'W38-10'
p158
sg32
S'--'
p159
sg34
S'--'
p160
sg36
S'TB'
p161
sg38
S'--'
p162
sg40
S'--'
p163
sg42
S'--'
p164
ssS'16'
p165
(dp166
g5
S'--'
p167
sg7
S'--'
p168
sg9
g10
sg11
S'--'
p169
sg13
g10
sg14
S'--'
p170
sg16
S'2015'
p171
sg18
S'16'
p172
sg20
S'--'
p173
sg22
S'12/27'
p174
sg24
S'--'
p175
sg26
S'Brandon Wegher'
p176
sg28
S'--'
p177
sg30
S'L13-20'
p178
sg32
S'--'
p179
sg34
S'--'
p180
sg36
S'@ATL'
p181
sg38
S'--'
p182
sg40
S'--'
p183
sg42
S'--'
p184
ssg149
(dp185
g5
S'--'
p186
sg7
S'--'
p187
sg9
g10
sg11
S'--'
p188
sg13
g10
sg14
S'--'
p189
sg16
S'2015'
p190
sg18
g149
sg20
S'--'
p191
sg22
S'09/13'
p192
sg24
S'--'
p193
sg26
S'Brandon Wegher'
p194
sg28
S'--'
p195
sg30
S'W20-9'
p196
sg32
S'--'
p197
sg34
S'--'
p198
sg36
S'@JAC'
p199
sg38
S'--'
p200
sg40
S'--'
p201
sg42
S'--'
p202
ssS'3'
p203
(dp204
g5
S'--'
p205
sg7
S'--'
p206
sg9
g10
sg11
S'--'
p207
sg13
g10
sg14
S'--'
p208
sg16
S'2015'
p209
sg18
g203
sg20
S'--'
p210
sg22
S'09/27'
p211
sg24
S'--'
p212
sg26
S'Brandon Wegher'
p213
sg28
S'--'
p214
sg30
S'W27-22'
p215
sg32
S'--'
p216
sg34
S'--'
p217
sg36
S'NO'
p218
sg38
S'--'
p219
sg40
S'--'
p220
sg42
S'--'
p221
ssS'2'
p222
(dp223
g5
S'--'
p224
sg7
S'--'
p225
sg9
g10
sg11
S'--'
p226
sg13
g10
sg14
S'--'
p227
sg16
S'2015'
p228
sg18
g222
sg20
S'--'
p229
sg22
S'09/20'
p230
sg24
S'--'
p231
sg26
S'Brandon Wegher'
p232
sg28
S'--'
p233
sg30
S'W24-17'
p234
sg32
S'--'
p235
sg34
S'--'
p236
sg36
S'HOU'
p237
sg38
S'--'
p238
sg40
S'--'
p239
sg42
S'--'
p240
ssS'5'
p241
(dp242
g5
S''
p243
sg7
g243
sg9
g243
sg11
g243
sg13
g243
sg14
g243
sg16
S'2015'
p244
sg18
g241
sg20
g243
sg22
S'Bye'
p245
sg24
g243
sg26
S'Brandon Wegher'
p246
sg28
g243
sg30
g243
sg32
g243
sg34
g243
sg36
g243
sg38
g243
sg40
g243
sg42
g243
ssS'4'
p247
(dp248
g5
S'--'
p249
sg7
S'--'
p250
sg9
g10
sg11
S'--'
p251
sg13
g10
sg14
S'--'
p252
sg16
S'2015'
p253
sg18
g247
sg20
S'--'
p254
sg22
S'10/04'
p255
sg24
S'--'
p256
sg26
S'Brandon Wegher'
p257
sg28
S'--'
p258
sg30
S'W37-23'
p259
sg32
S'--'
p260
sg34
S'--'
p261
sg36
S'@TB'
p262
sg38
S'--'
p263
sg40
S'--'
p264
sg42
S'--'
p265
ssS'7'
p266
(dp267
g5
S'--'
p268
sg7
S'--'
p269
sg9
g10
sg11
S'--'
p270
sg13
g10
sg14
S'--'
p271
sg16
S'2015'
p272
sg18
g266
sg20
S'--'
p273
sg22
S'10/25'
p274
sg24
S'--'
p275
sg26
S'Brandon Wegher'
p276
sg28
S'--'
p277
sg30
S'W27-16'
p278
sg32
S'--'
p279
sg34
S'--'
p280
sg36
S'PHI'
p281
sg38
S'--'
p282
sg40
S'--'
p283
sg42
S'--'
p284
ssS'6'
p285
(dp286
g5
S'--'
p287
sg7
S'--'
p288
sg9
g10
sg11
S'--'
p289
sg13
g10
sg14
S'--'
p290
sg16
S'2015'
p291
sg18
g285
sg20
S'--'
p292
sg22
S'10/18'
p293
sg24
S'--'
p294
sg26
S'Brandon Wegher'
p295
sg28
S'--'
p296
sg30
S'W27-23'
p297
sg32
S'--'
p298
sg34
S'--'
p299
sg36
S'@SEA'
p300
sg38
S'--'
p301
sg40
S'--'
p302
sg42
S'--'
p303
ssS'9'
p304
(dp305
g5
S'--'
p306
sg7
S'--'
p307
sg9
g10
sg11
S'--'
p308
sg13
g10
sg14
S'--'
p309
sg16
S'2015'
p310
sg18
g304
sg20
S'--'
p311
sg22
S'11/08'
p312
sg24
S'--'
p313
sg26
S'Brandon Wegher'
p314
sg28
S'--'
p315
sg30
S'W37-29'
p316
sg32
S'--'
p317
sg34
S'--'
p318
sg36
S'GB'
p319
sg38
S'--'
p320
sg40
S'--'
p321
sg42
S'--'
p322
ssS'8'
p323
(dp324
g5
S'--'
p325
sg7
S'--'
p326
sg9
g10
sg11
S'--'
p327
sg13
g10
sg14
S'--'
p328
sg16
S'2015'
p329
sg18
g323
sg20
S'--'
p330
sg22
S'11/02'
p331
sg24
S'--'
p332
sg26
S'Brandon Wegher'
p333
sg28
S'--'
p334
sg30
S'W29-26'
p335
sg32
S'--'
p336
sg34
S'--'
p337
sg36
S'IND'
p338
sg38
S'--'
p339
sg40
S'--'
p340
sg42
S'--'
p341
sss.