(dp0
S'2015'
p1
(dp2
S'10'
p3
(dp4
S'RecAvg'
p5
S'--'
p6
sS'FUM'
p7
S'--'
p8
sS'GS'
p9
S'0'
p10
sS'Lost'
p11
S'--'
p12
sS'G'
p13
g10
sS'RecTD'
p14
S'--'
p15
sS'Year'
p16
S'2015'
p17
sS'WK'
p18
S'10'
p19
sS'RushAvg'
p20
S'--'
p21
sS'Game Date'
p22
S'11/15'
p23
sS'RushTD'
p24
S'--'
p25
sS'Player'
p26
S'Bryce Brown'
p27
sS'RushAtt'
p28
S'--'
p29
sS'Result'
p30
S'L32-39'
p31
sS'RecYds'
p32
S'--'
p33
sS'Rec'
p34
S'--'
p35
sS'Opp'
p36
S'ARI'
p37
sS'RecLng'
p38
S'--'
p39
sS'RushYds'
p40
S'--'
p41
sS'RushLng'
p42
S'--'
p43
ssS'15'
p44
(dp45
g5
S'--'
p46
sg7
S'--'
p47
sg9
g10
sg11
S'--'
p48
sg13
S'1'
p49
sg14
g10
sg16
S'2015'
p50
sg18
S'15'
p51
sg20
S'4.8'
p52
sg22
S'12/20'
p53
sg24
g10
sg26
S'Bryce Brown'
p54
sg28
S'9'
p55
sg30
S'W30-13'
p56
sg32
g10
sg34
g10
sg36
S'CLE'
p57
sg38
S'--'
p58
sg40
S'43'
p59
sg42
S'18'
p60
ssS'17'
p61
(dp62
g5
S'--'
p63
sg7
S'--'
p64
sg9
g10
sg11
S'--'
p65
sg13
g49
sg14
S'--'
p66
sg16
S'2015'
p67
sg18
S'17'
p68
sg20
S'2.2'
p69
sg22
S'01/03'
p70
sg24
g49
sg26
S'Bryce Brown'
p71
sg28
g55
sg30
S'W36-6'
p72
sg32
S'--'
p73
sg34
S'--'
p74
sg36
S'@ARI'
p75
sg38
S'--'
p76
sg40
S'20'
p77
sg42
S'5'
p78
ssS'16'
p79
(dp80
g5
S'--'
p81
sg7
S'--'
p82
sg9
g10
sg11
S'--'
p83
sg13
g49
sg14
g10
sg16
S'2015'
p84
sg18
S'16'
p85
sg20
S'1.3'
p86
sg22
S'12/27'
p87
sg24
g10
sg26
S'Bryce Brown'
p88
sg28
S'7'
p89
sg30
S'L17-23'
p90
sg32
g10
sg34
g10
sg36
S'STL'
p91
sg38
S'--'
p92
sg40
g55
sg42
S'4'
p93
ssg49
(dp94
g5
S'--'
p95
sg7
S'--'
p96
sg9
g10
sg11
S'--'
p97
sg13
g10
sg14
S'--'
p98
sg16
S'2015'
p99
sg18
g49
sg20
S'--'
p100
sg22
S'09/13'
p101
sg24
S'--'
p102
sg26
S'Bryce Brown'
p103
sg28
S'--'
p104
sg30
S'W27-14'
p105
sg32
S'--'
p106
sg34
S'--'
p107
sg36
S'IND'
p108
sg38
S'--'
p109
sg40
S'--'
p110
sg42
S'--'
p111
ssg55
(dp112
g5
S''
p113
sg7
g113
sg9
g113
sg11
g113
sg13
g113
sg14
g113
sg16
S'2015'
p114
sg18
g55
sg20
g113
sg22
S'Bye'
p115
sg24
g113
sg26
S'Bryce Brown'
p116
sg28
g113
sg30
g113
sg32
g113
sg34
g113
sg36
g113
sg38
g113
sg40
g113
sg42
g113
ssS'8'
p117
(dp118
g5
S'--'
p119
sg7
S'--'
p120
sg9
g10
sg11
S'--'
p121
sg13
g10
sg14
S'--'
p122
sg16
S'2015'
p123
sg18
g117
sg20
S'--'
p124
sg22
S'11/01'
p125
sg24
S'--'
p126
sg26
S'Bryce Brown'
p127
sg28
S'--'
p128
sg30
S'W13-12'
p129
sg32
S'--'
p130
sg34
S'--'
p131
sg36
S'@DAL'
p132
sg38
S'--'
p133
sg40
S'--'
p134
sg42
S'--'
p135
sssS'2014'
p136
(dp137
S'11'
p138
(dp139
g5
S'8.1'
p140
sg7
S'--'
p141
sg9
g49
sg11
S'--'
p142
sg13
g49
sg14
g10
sg16
S'2014'
p143
sg18
S'11'
p144
sg20
S'2.3'
p145
sg22
S'11/13'
p146
sg24
g10
sg26
S'Bryce Brown'
p147
sg28
S'6'
p148
sg30
S'L9-22'
p149
sg32
S'57'
p150
sg34
g89
sg36
S'@MIA'
p151
sg38
S'19'
p152
sg40
S'14'
p153
sg42
g117
ssg3
(dp154
g5
S'10.8'
p155
sg7
g49
sg9
g10
sg11
g49
sg13
g49
sg14
g10
sg16
S'2014'
p156
sg18
S'10'
p157
sg20
S'5.0'
p158
sg22
S'11/09'
p159
sg24
g10
sg26
S'Bryce Brown'
p160
sg28
g89
sg30
S'L13-17'
p161
sg32
S'65'
p162
sg34
g148
sg36
S'KC'
p163
sg38
S'15'
p164
sg40
S'35'
p165
sg42
S'14'
p166
ssS'13'
p167
(dp168
g5
S'--'
p169
sg7
S'--'
p170
sg9
g10
sg11
S'--'
p171
sg13
g49
sg14
S'--'
p172
sg16
S'2014'
p173
sg18
S'13'
p174
sg20
S'3.7'
p175
sg22
S'11/30'
p176
sg24
g10
sg26
S'Bryce Brown'
p177
sg28
S'3'
p178
sg30
S'W26-10'
p179
sg32
S'--'
p180
sg34
S'--'
p181
sg36
S'CLE'
p182
sg38
S'--'
p183
sg40
S'11'
p184
sg42
g93
ssS'12'
p185
(dp186
g5
S'--'
p187
sg7
S'--'
p188
sg9
g10
sg11
S'--'
p189
sg13
g49
sg14
S'--'
p190
sg16
S'2014'
p191
sg18
S'12'
p192
sg20
S'3.3'
p193
sg22
S'11/24'
p194
sg24
g10
sg26
S'Bryce Brown'
p195
sg28
g148
sg30
S'W38-3'
p196
sg32
S'--'
p197
sg34
S'--'
p198
sg36
S'NYJ'
p199
sg38
S'--'
p200
sg40
S'20'
p201
sg42
g148
ssg44
(dp202
g5
S'40.0'
p203
sg7
S'--'
p204
sg9
g10
sg11
S'--'
p205
sg13
g49
sg14
g10
sg16
S'2014'
p206
sg18
S'15'
p207
sg20
S'5.0'
p208
sg22
S'12/14'
p209
sg24
g10
sg26
S'Bryce Brown'
p210
sg28
g93
sg30
S'W21-13'
p211
sg32
S'40'
p212
sg34
g49
sg36
S'GB'
p213
sg38
S'40'
p214
sg40
S'20'
p215
sg42
S'12'
p216
ssS'14'
p217
(dp218
g5
S'7.0'
p219
sg7
S'--'
p220
sg9
g10
sg11
S'--'
p221
sg13
g49
sg14
g10
sg16
S'2014'
p222
sg18
S'14'
p223
sg20
S'3.7'
p224
sg22
S'12/07'
p225
sg24
g10
sg26
S'Bryce Brown'
p226
sg28
g178
sg30
S'L17-24'
p227
sg32
S'14'
p228
sg34
S'2'
p229
sg36
S'@DEN'
p230
sg38
g55
sg40
S'11'
p231
sg42
g89
ssg61
(dp232
g5
S'--'
p233
sg7
S'--'
p234
sg9
g10
sg11
S'--'
p235
sg13
g10
sg14
S'--'
p236
sg16
S'2014'
p237
sg18
S'17'
p238
sg20
S'--'
p239
sg22
S'12/28'
p240
sg24
S'--'
p241
sg26
S'Bryce Brown'
p242
sg28
S'--'
p243
sg30
S'W17-9'
p244
sg32
S'--'
p245
sg34
S'--'
p246
sg36
S'@NE'
p247
sg38
S'--'
p248
sg40
S'--'
p249
sg42
S'--'
p250
ssg79
(dp251
g5
S'--'
p252
sg7
S'--'
p253
sg9
g10
sg11
S'--'
p254
sg13
g10
sg14
S'--'
p255
sg16
S'2014'
p256
sg18
S'16'
p257
sg20
S'--'
p258
sg22
S'12/21'
p259
sg24
S'--'
p260
sg26
S'Bryce Brown'
p261
sg28
S'--'
p262
sg30
S'L24-26'
p263
sg32
S'--'
p264
sg34
S'--'
p265
sg36
S'@OAK'
p266
sg38
S'--'
p267
sg40
S'--'
p268
sg42
S'--'
p269
ssg49
(dp270
g5
S'--'
p271
sg7
S'--'
p272
sg9
g10
sg11
S'--'
p273
sg13
g10
sg14
S'--'
p274
sg16
S'2014'
p275
sg18
g49
sg20
S'--'
p276
sg22
S'09/07'
p277
sg24
S'--'
p278
sg26
S'Bryce Brown'
p279
sg28
S'--'
p280
sg30
S'W23-20'
p281
sg32
S'--'
p282
sg34
S'--'
p283
sg36
S'@CHI'
p284
sg38
S'--'
p285
sg40
S'--'
p286
sg42
S'--'
p287
ssg178
(dp288
g5
S'--'
p289
sg7
S'--'
p290
sg9
g10
sg11
S'--'
p291
sg13
g10
sg14
S'--'
p292
sg16
S'2014'
p293
sg18
g178
sg20
S'--'
p294
sg22
S'09/21'
p295
sg24
S'--'
p296
sg26
S'Bryce Brown'
p297
sg28
S'--'
p298
sg30
S'L10-22'
p299
sg32
S'--'
p300
sg34
S'--'
p301
sg36
S'SD'
p302
sg38
S'--'
p303
sg40
S'--'
p304
sg42
S'--'
p305
ssg229
(dp306
g5
S'--'
p307
sg7
S'--'
p308
sg9
g10
sg11
S'--'
p309
sg13
g10
sg14
S'--'
p310
sg16
S'2014'
p311
sg18
g229
sg20
S'--'
p312
sg22
S'09/14'
p313
sg24
S'--'
p314
sg26
S'Bryce Brown'
p315
sg28
S'--'
p316
sg30
S'W29-10'
p317
sg32
S'--'
p318
sg34
S'--'
p319
sg36
S'MIA'
p320
sg38
S'--'
p321
sg40
S'--'
p322
sg42
S'--'
p323
ssg78
(dp324
g5
S'--'
p325
sg7
S'--'
p326
sg9
g10
sg11
S'--'
p327
sg13
g10
sg14
S'--'
p328
sg16
S'2014'
p329
sg18
g78
sg20
S'--'
p330
sg22
S'10/05'
p331
sg24
S'--'
p332
sg26
S'Bryce Brown'
p333
sg28
S'--'
p334
sg30
S'W17-14'
p335
sg32
S'--'
p336
sg34
S'--'
p337
sg36
S'@DET'
p338
sg38
S'--'
p339
sg40
S'--'
p340
sg42
S'--'
p341
ssg93
(dp342
g5
S'--'
p343
sg7
S'--'
p344
sg9
g10
sg11
S'--'
p345
sg13
g10
sg14
S'--'
p346
sg16
S'2014'
p347
sg18
g93
sg20
S'--'
p348
sg22
S'09/28'
p349
sg24
S'--'
p350
sg26
S'Bryce Brown'
p351
sg28
S'--'
p352
sg30
S'L17-23'
p353
sg32
S'--'
p354
sg34
S'--'
p355
sg36
S'@HOU'
p356
sg38
S'--'
p357
sg40
S'--'
p358
sg42
S'--'
p359
ssg89
(dp360
g5
S'--'
p361
sg7
S'--'
p362
sg9
g10
sg11
S'--'
p363
sg13
g10
sg14
S'--'
p364
sg16
S'2014'
p365
sg18
g89
sg20
S'--'
p366
sg22
S'10/19'
p367
sg24
S'--'
p368
sg26
S'Bryce Brown'
p369
sg28
S'--'
p370
sg30
S'W17-16'
p371
sg32
S'--'
p372
sg34
S'--'
p373
sg36
S'MIN'
p374
sg38
S'--'
p375
sg40
S'--'
p376
sg42
S'--'
p377
ssg148
(dp378
g5
S'--'
p379
sg7
S'--'
p380
sg9
g10
sg11
S'--'
p381
sg13
g10
sg14
S'--'
p382
sg16
S'2014'
p383
sg18
g148
sg20
S'--'
p384
sg22
S'10/12'
p385
sg24
S'--'
p386
sg26
S'Bryce Brown'
p387
sg28
S'--'
p388
sg30
S'L22-37'
p389
sg32
S'--'
p390
sg34
S'--'
p391
sg36
S'NE'
p392
sg38
S'--'
p393
sg40
S'--'
p394
sg42
S'--'
p395
ssg55
(dp396
g5
g113
sg7
g113
sg9
g113
sg11
g113
sg13
g113
sg14
g113
sg16
S'2014'
p397
sg18
g55
sg20
g113
sg22
S'Bye'
p398
sg24
g113
sg26
S'Bryce Brown'
p399
sg28
g113
sg30
g113
sg32
g113
sg34
g113
sg36
g113
sg38
g113
sg40
g113
sg42
g113
ssg117
(dp400
g5
S'--'
p401
sg7
S'--'
p402
sg9
g49
sg11
S'--'
p403
sg13
g49
sg14
g10
sg16
S'2014'
p404
sg18
g117
sg20
S'2.1'
p405
sg22
S'10/26'
p406
sg24
g10
sg26
S'Bryce Brown'
p407
sg28
g89
sg30
S'W43-23'
p408
sg32
g10
sg34
g10
sg36
S'@NYJ'
p409
sg38
S'--'
p410
sg40
S'15'
p411
sg42
g89
sssS'2013'
p412
(dp413
g138
(dp414
g5
S'14.0'
p415
sg7
S'--'
p416
sg9
g10
sg11
S'--'
p417
sg13
g49
sg14
g10
sg16
S'2013'
p418
sg18
S'11'
p419
sg20
S'0.5'
p420
sg22
S'11/17'
p421
sg24
g10
sg26
S'Bryce Brown'
p422
sg28
g93
sg30
S'W24-16'
p423
sg32
S'28'
p424
sg34
g229
sg36
S'WAS'
p425
sg38
S'24'
p426
sg40
g229
sg42
g229
ssg3
(dp427
g5
S'--'
p428
sg7
S'--'
p429
sg9
g10
sg11
S'--'
p430
sg13
g49
sg14
S'--'
p431
sg16
S'2013'
p432
sg18
S'10'
p433
sg20
S'2.8'
p434
sg22
S'11/10'
p435
sg24
g10
sg26
S'Bryce Brown'
p436
sg28
g93
sg30
S'W27-13'
p437
sg32
S'--'
p438
sg34
S'--'
p439
sg36
S'@GB'
p440
sg38
S'--'
p441
sg40
S'11'
p442
sg42
g117
ssg167
(dp443
g5
S'--'
p444
sg7
S'--'
p445
sg9
g10
sg11
S'--'
p446
sg13
g49
sg14
S'--'
p447
sg16
S'2013'
p448
sg18
S'13'
p449
sg20
S'0.8'
p450
sg22
S'12/01'
p451
sg24
g10
sg26
S'Bryce Brown'
p452
sg28
g78
sg30
S'W24-21'
p453
sg32
S'--'
p454
sg34
S'--'
p455
sg36
S'ARI'
p456
sg38
S'--'
p457
sg40
g93
sg42
g148
ssg185
(dp458
g5
g113
sg7
g113
sg9
g113
sg11
g113
sg13
g113
sg14
g113
sg16
S'2013'
p459
sg18
S'12'
p460
sg20
g113
sg22
S'Bye'
p461
sg24
g113
sg26
S'Bryce Brown'
p462
sg28
g113
sg30
g113
sg32
g113
sg34
g113
sg36
g113
sg38
g113
sg40
g113
sg42
g113
ssg44
(dp463
g5
S'--'
p464
sg7
S'--'
p465
sg9
g10
sg11
S'--'
p466
sg13
g49
sg14
S'--'
p467
sg16
S'2013'
p468
sg18
S'15'
p469
sg20
S'--'
p470
sg22
S'12/15'
p471
sg24
S'--'
p472
sg26
S'Bryce Brown'
p473
sg28
S'--'
p474
sg30
S'L30-48'
p475
sg32
S'--'
p476
sg34
S'--'
p477
sg36
S'@MIN'
p478
sg38
S'--'
p479
sg40
S'--'
p480
sg42
S'--'
p481
ssg217
(dp482
g5
S'--'
p483
sg7
S'--'
p484
sg9
g10
sg11
S'--'
p485
sg13
g49
sg14
S'--'
p486
sg16
S'2013'
p487
sg18
S'14'
p488
sg20
S'3.2'
p489
sg22
S'12/08'
p490
sg24
g10
sg26
S'Bryce Brown'
p491
sg28
g148
sg30
S'W34-20'
p492
sg32
S'--'
p493
sg34
S'--'
p494
sg36
S'DET'
p495
sg38
S'--'
p496
sg40
S'19'
p497
sg42
S'17'
p498
ssg61
(dp499
g5
S'--'
p500
sg7
S'--'
p501
sg9
g10
sg11
S'--'
p502
sg13
g49
sg14
S'--'
p503
sg16
S'2013'
p504
sg18
S'17'
p505
sg20
S'5.5'
p506
sg22
S'12/29'
p507
sg24
g49
sg26
S'Bryce Brown'
p508
sg28
g229
sg30
S'W24-22'
p509
sg32
S'--'
p510
sg34
S'--'
p511
sg36
S'@DAL'
p512
sg38
S'--'
p513
sg40
S'11'
p514
sg42
S'6T'
p515
ssg79
(dp516
g5
S'--'
p517
sg7
S'--'
p518
sg9
g10
sg11
S'--'
p519
sg13
g49
sg14
S'--'
p520
sg16
S'2013'
p521
sg18
S'16'
p522
sg20
S'12.8'
p523
sg22
S'12/22'
p524
sg24
g49
sg26
S'Bryce Brown'
p525
sg28
g55
sg30
S'W54-11'
p526
sg32
S'--'
p527
sg34
S'--'
p528
sg36
S'CHI'
p529
sg38
S'--'
p530
sg40
S'115'
p531
sg42
S'65T'
p532
ssg49
(dp533
g5
S'--'
p534
sg7
S'--'
p535
sg9
g10
sg11
S'--'
p536
sg13
g49
sg14
S'--'
p537
sg16
S'2013'
p538
sg18
g49
sg20
S'2.8'
p539
sg22
S'09/09'
p540
sg24
g10
sg26
S'Bryce Brown'
p541
sg28
g55
sg30
S'W33-27'
p542
sg32
S'--'
p543
sg34
S'--'
p544
sg36
S'@WAS'
p545
sg38
S'--'
p546
sg40
S'25'
p547
sg42
g89
ssg178
(dp548
g5
S'--'
p549
sg7
S'--'
p550
sg9
g10
sg11
S'--'
p551
sg13
g49
sg14
S'--'
p552
sg16
S'2013'
p553
sg18
g178
sg20
S'2.3'
p554
sg22
S'09/19'
p555
sg24
g10
sg26
S'Bryce Brown'
p556
sg28
g178
sg30
S'L16-26'
p557
sg32
S'--'
p558
sg34
S'--'
p559
sg36
S'KC'
p560
sg38
S'--'
p561
sg40
g89
sg42
g178
ssg229
(dp562
g5
S'1.0'
p563
sg7
S'--'
p564
sg9
g10
sg11
S'--'
p565
sg13
g49
sg14
g10
sg16
S'2013'
p566
sg18
g229
sg20
S'4.3'
p567
sg22
S'09/15'
p568
sg24
g10
sg26
S'Bryce Brown'
p569
sg28
g178
sg30
S'L30-33'
p570
sg32
g49
sg34
g49
sg36
S'SD'
p571
sg38
g49
sg40
S'13'
p572
sg42
g117
ssg78
(dp573
g5
S'6.0'
p574
sg7
S'--'
p575
sg9
g10
sg11
S'--'
p576
sg13
g49
sg14
g10
sg16
S'2013'
p577
sg18
g78
sg20
S'2.2'
p578
sg22
S'10/06'
p579
sg24
g10
sg26
S'Bryce Brown'
p580
sg28
g78
sg30
S'W36-21'
p581
sg32
g148
sg34
g49
sg36
S'@NYG'
p582
sg38
g148
sg40
S'11'
p583
sg42
g89
ssg93
(dp584
g5
S'20.5'
p585
sg7
S'--'
p586
sg9
g10
sg11
S'--'
p587
sg13
g49
sg14
g10
sg16
S'2013'
p588
sg18
g93
sg20
S'2.4'
p589
sg22
S'09/29'
p590
sg24
g10
sg26
S'Bryce Brown'
p591
sg28
g117
sg30
S'L20-52'
p592
sg32
S'41'
p593
sg34
g229
sg36
S'@DEN'
p594
sg38
S'35'
p595
sg40
S'19'
p596
sg42
g55
ssg89
(dp597
g5
S'--'
p598
sg7
S'--'
p599
sg9
g49
sg11
S'--'
p600
sg13
g49
sg14
g10
sg16
S'2013'
p601
sg18
g89
sg20
S'2.0'
p602
sg22
S'10/20'
p603
sg24
g10
sg26
S'Bryce Brown'
p604
sg28
g229
sg30
S'L3-17'
p605
sg32
g10
sg34
g10
sg36
S'DAL'
p606
sg38
S'--'
p607
sg40
g93
sg42
g229
ssg148
(dp608
g5
S'--'
p609
sg7
S'--'
p610
sg9
g10
sg11
S'--'
p611
sg13
g49
sg14
g10
sg16
S'2013'
p612
sg18
g148
sg20
S'4.0'
p613
sg22
S'10/13'
p614
sg24
g10
sg26
S'Bryce Brown'
p615
sg28
g78
sg30
S'W31-20'
p616
sg32
g10
sg34
g10
sg36
S'@TB'
p617
sg38
S'--'
p618
sg40
S'20'
p619
sg42
g55
ssg55
(dp620
g5
S'6.0'
p621
sg7
S'--'
p622
sg9
g10
sg11
S'--'
p623
sg13
g49
sg14
g10
sg16
S'2013'
p624
sg18
g55
sg20
S'7.7'
p625
sg22
S'11/03'
p626
sg24
g10
sg26
S'Bryce Brown'
p627
sg28
g89
sg30
S'W49-20'
p628
sg32
g148
sg34
g49
sg36
S'@OAK'
p629
sg38
g148
sg40
S'54'
p630
sg42
S'32'
p631
ssg117
(dp632
g5
S'2.0'
p633
sg7
S'--'
p634
sg9
g10
sg11
S'--'
p635
sg13
g49
sg14
g10
sg16
S'2013'
p636
sg18
g117
sg20
S'-0.3'
p637
sg22
S'10/27'
p638
sg24
g10
sg26
S'Bryce Brown'
p639
sg28
g178
sg30
S'L7-15'
p640
sg32
g229
sg34
g49
sg36
S'NYG'
p641
sg38
g229
sg40
S'-1'
p642
sg42
g178
sssS'2012'
p643
(dp644
g138
(dp645
g5
S'--'
p646
sg7
S'--'
p647
sg9
g10
sg11
S'--'
p648
sg13
g49
sg14
S'--'
p649
sg16
S'2012'
p650
sg18
S'11'
p651
sg20
S'7.0'
p652
sg22
S'11/18'
p653
sg24
g10
sg26
S'Bryce Brown'
p654
sg28
g78
sg30
S'L6-31'
p655
sg32
S'--'
p656
sg34
S'--'
p657
sg36
S'@WAS'
p658
sg38
S'--'
p659
sg40
S'35'
p660
sg42
S'14'
p661
ssg3
(dp662
g5
S'--'
p663
sg7
S'--'
p664
sg9
g10
sg11
S'--'
p665
sg13
g49
sg14
S'--'
p666
sg16
S'2012'
p667
sg18
S'10'
p668
sg20
S'0.3'
p669
sg22
S'11/11'
p670
sg24
g10
sg26
S'Bryce Brown'
p671
sg28
g178
sg30
S'L23-38'
p672
sg32
S'--'
p673
sg34
S'--'
p674
sg36
S'DAL'
p675
sg38
S'--'
p676
sg40
g49
sg42
g229
ssg167
(dp677
g5
S'3.5'
p678
sg7
g49
sg9
g49
sg11
g49
sg13
g49
sg14
g10
sg16
S'2012'
p679
sg18
S'13'
p680
sg20
S'7.0'
p681
sg22
S'12/02'
p682
sg24
g229
sg26
S'Bryce Brown'
p683
sg28
S'24'
p684
sg30
S'L33-38'
p685
sg32
S'14'
p686
sg34
g93
sg36
S'@DAL'
p687
sg38
g117
sg40
S'169'
p688
sg42
S'39'
p689
ssg185
(dp690
g5
S'2.8'
p691
sg7
g229
sg9
g49
sg11
g229
sg13
g49
sg14
g10
sg16
S'2012'
p692
sg18
S'12'
p693
sg20
S'9.4'
p694
sg22
S'11/26'
p695
sg24
g229
sg26
S'Bryce Brown'
p696
sg28
S'19'
p697
sg30
S'L22-30'
p698
sg32
S'11'
p699
sg34
g93
sg36
S'CAR'
p700
sg38
g78
sg40
S'178'
p701
sg42
S'65T'
p702
ssg44
(dp703
g5
S'11.0'
p704
sg7
S'--'
p705
sg9
g49
sg11
S'--'
p706
sg13
g49
sg14
g10
sg16
S'2012'
p707
sg18
S'15'
p708
sg20
S'2.1'
p709
sg22
S'12/13'
p710
sg24
g10
sg26
S'Bryce Brown'
p711
sg28
S'16'
p712
sg30
S'L13-34'
p713
sg32
S'11'
p714
sg34
g49
sg36
S'CIN'
p715
sg38
S'11'
p716
sg40
S'34'
p717
sg42
g117
ssg217
(dp718
g5
S'3.0'
p719
sg7
S'--'
p720
sg9
g49
sg11
S'--'
p721
sg13
g49
sg14
g10
sg16
S'2012'
p722
sg18
S'14'
p723
sg20
S'0.5'
p724
sg22
S'12/09'
p725
sg24
g10
sg26
S'Bryce Brown'
p726
sg28
S'12'
p727
sg30
S'W23-21'
p728
sg32
g148
sg34
g229
sg36
S'@TB'
p729
sg38
g93
sg40
g148
sg42
S'11'
p730
ssg61
(dp731
g5
S'6.0'
p732
sg7
S'--'
p733
sg9
g10
sg11
S'--'
p734
sg13
g49
sg14
g10
sg16
S'2012'
p735
sg18
S'17'
p736
sg20
S'2.3'
p737
sg22
S'12/30'
p738
sg24
g10
sg26
S'Bryce Brown'
p739
sg28
g117
sg30
S'L7-42'
p740
sg32
g148
sg34
g49
sg36
S'@NYG'
p741
sg38
g148
sg40
S'18'
p742
sg42
S'13'
p743
ssg79
(dp744
g5
S'--'
p745
sg7
S'--'
p746
sg9
g10
sg11
S'--'
p747
sg13
g49
sg14
S'--'
p748
sg16
S'2012'
p749
sg18
S'16'
p750
sg20
S'4.5'
p751
sg22
S'12/23'
p752
sg24
g10
sg26
S'Bryce Brown'
p753
sg28
g93
sg30
S'L20-27'
p754
sg32
S'--'
p755
sg34
S'--'
p756
sg36
S'WAS'
p757
sg38
S'--'
p758
sg40
S'18'
p759
sg42
g55
ssg49
(dp760
g5
S'--'
p761
sg7
S'--'
p762
sg9
g10
sg11
S'--'
p763
sg13
g49
sg14
S'--'
p764
sg16
S'2012'
p765
sg18
g49
sg20
S'1.5'
p766
sg22
S'09/09'
p767
sg24
g10
sg26
S'Bryce Brown'
p768
sg28
g229
sg30
S'W17-16'
p769
sg32
S'--'
p770
sg34
S'--'
p771
sg36
S'@CLE'
p772
sg38
S'--'
p773
sg40
g178
sg42
g93
ssg178
(dp774
g5
S'8.0'
p775
sg7
S'--'
p776
sg9
g10
sg11
S'--'
p777
sg13
g49
sg14
g10
sg16
S'2012'
p778
sg18
g178
sg20
S'7.0'
p779
sg22
S'09/23'
p780
sg24
g10
sg26
S'Bryce Brown'
p781
sg28
g93
sg30
S'L6-27'
p782
sg32
g117
sg34
g49
sg36
S'@ARI'
p783
sg38
g117
sg40
S'28'
p784
sg42
S'17'
p785
ssg229
(dp786
g5
S'--'
p787
sg7
S'--'
p788
sg9
g10
sg11
S'--'
p789
sg13
g49
sg14
S'--'
p790
sg16
S'2012'
p791
sg18
g229
sg20
S'2.3'
p792
sg22
S'09/16'
p793
sg24
g10
sg26
S'Bryce Brown'
p794
sg28
g178
sg30
S'W24-23'
p795
sg32
S'--'
p796
sg34
S'--'
p797
sg36
S'BAL'
p798
sg38
S'--'
p799
sg40
g89
sg42
g178
ssg78
(dp800
g5
S'--'
p801
sg7
S'--'
p802
sg9
g10
sg11
S'--'
p803
sg13
g49
sg14
S'--'
p804
sg16
S'2012'
p805
sg18
g78
sg20
S'4.0'
p806
sg22
S'10/07'
p807
sg24
g10
sg26
S'Bryce Brown'
p808
sg28
g49
sg30
S'L14-16'
p809
sg32
S'--'
p810
sg34
S'--'
p811
sg36
S'@PIT'
p812
sg38
S'--'
p813
sg40
g93
sg42
g93
ssg93
(dp814
g5
S'--'
p815
sg7
S'--'
p816
sg9
g10
sg11
S'--'
p817
sg13
g49
sg14
S'--'
p818
sg16
S'2012'
p819
sg18
g93
sg20
S'1.3'
p820
sg22
S'09/30'
p821
sg24
g10
sg26
S'Bryce Brown'
p822
sg28
g93
sg30
S'W19-17'
p823
sg32
S'--'
p824
sg34
S'--'
p825
sg36
S'NYG'
p826
sg38
S'--'
p827
sg40
g78
sg42
g93
ssg89
(dp828
g5
g113
sg7
g113
sg9
g113
sg11
g113
sg13
g113
sg14
g113
sg16
S'2012'
p829
sg18
g89
sg20
g113
sg22
S'Bye'
p830
sg24
g113
sg26
S'Bryce Brown'
p831
sg28
g113
sg30
g113
sg32
g113
sg34
g113
sg36
g113
sg38
g113
sg40
g113
sg42
g113
ssg148
(dp832
g5
S'--'
p833
sg7
S'--'
p834
sg9
g10
sg11
S'--'
p835
sg13
g49
sg14
S'--'
p836
sg16
S'2012'
p837
sg18
g148
sg20
S'0.8'
p838
sg22
S'10/14'
p839
sg24
g10
sg26
S'Bryce Brown'
p840
sg28
g78
sg30
S'L23-26'
p841
sg32
S'--'
p842
sg34
S'--'
p843
sg36
S'DET'
p844
sg38
S'--'
p845
sg40
g93
sg42
g78
ssg55
(dp846
g5
S'--'
p847
sg7
S'--'
p848
sg9
g10
sg11
S'--'
p849
sg13
g49
sg14
S'--'
p850
sg16
S'2012'
p851
sg18
g55
sg20
S'12.3'
p852
sg22
S'11/05'
p853
sg24
g10
sg26
S'Bryce Brown'
p854
sg28
g93
sg30
S'L13-28'
p855
sg32
S'--'
p856
sg34
S'--'
p857
sg36
S'@NO'
p858
sg38
S'--'
p859
sg40
S'49'
p860
sg42
S'40'
p861
ssg117
(dp862
g5
S'--'
p863
sg7
g49
sg9
g10
sg11
g10
sg13
g49
sg14
S'--'
p864
sg16
S'2012'
p865
sg18
g117
sg20
S'5.0'
p866
sg22
S'10/28'
p867
sg24
g10
sg26
S'Bryce Brown'
p868
sg28
g49
sg30
S'L17-30'
p869
sg32
S'--'
p870
sg34
S'--'
p871
sg36
S'ATL'
p872
sg38
S'--'
p873
sg40
g78
sg42
g78
sss.