(dp0
S'2015'
p1
(dp2
S'11'
p3
(dp4
S'RecAvg'
p5
S'6.5'
p6
sS'FUM'
p7
S'--'
p8
sS'GS'
p9
S'0'
p10
sS'Lost'
p11
S'--'
p12
sS'G'
p13
S'1'
p14
sS'RecTD'
p15
g10
sS'Year'
p16
S'2015'
p17
sS'WK'
p18
S'11'
p19
sS'RushAvg'
p20
S'4.9'
p21
sS'Game Date'
p22
S'11/22'
p23
sS'RushTD'
p24
g10
sS'Player'
p25
S'C.J. Anderson'
p26
sS'RushAtt'
p27
S'12'
p28
sS'Result'
p29
S'W17-15'
p30
sS'RecYds'
p31
S'13'
p32
sS'Rec'
p33
S'2'
p34
sS'Opp'
p35
S'@CHI'
p36
sS'RecLng'
p37
S'12'
p38
sS'RushYds'
p39
S'59'
p40
sS'RushLng'
p41
S'15'
p42
ssS'10'
p43
(dp44
g5
S'--'
p45
sg7
S'--'
p46
sg9
g10
sg11
S'--'
p47
sg13
g14
sg15
g10
sg16
S'2015'
p48
sg18
S'10'
p49
sg20
S'4.5'
p50
sg22
S'11/15'
p51
sg24
g10
sg25
S'C.J. Anderson'
p52
sg27
g34
sg29
S'L13-29'
p53
sg31
g10
sg33
g10
sg35
S'KC'
p54
sg37
S'--'
p55
sg39
S'9'
p56
sg41
S'5'
p57
ssS'13'
p58
(dp59
g5
S'12.0'
p60
sg7
S'--'
p61
sg9
g10
sg11
S'--'
p62
sg13
g14
sg15
g10
sg16
S'2015'
p63
sg18
S'13'
p64
sg20
S'6.0'
p65
sg22
S'12/06'
p66
sg24
g10
sg25
S'C.J. Anderson'
p67
sg27
S'7'
p68
sg29
S'W17-3'
p69
sg31
S'12'
p70
sg33
g14
sg35
S'@SD'
p71
sg37
S'12'
p72
sg39
S'42'
p73
sg41
S'22'
p74
ssS'12'
p75
(dp76
g5
S'10.0'
p77
sg7
S'--'
p78
sg9
g10
sg11
S'--'
p79
sg13
g14
sg15
g10
sg16
S'2015'
p80
sg18
S'12'
p81
sg20
S'7.5'
p82
sg22
S'11/29'
p83
sg24
g34
sg25
S'C.J. Anderson'
p84
sg27
S'15'
p85
sg29
S'W30-24'
p86
sg31
S'40'
p87
sg33
S'4'
p88
sg35
S'NE'
p89
sg37
S'20'
p90
sg39
S'113'
p91
sg41
S'48T'
p92
ssS'15'
p93
(dp94
g5
S'6.0'
p95
sg7
S'--'
p96
sg9
g10
sg11
S'--'
p97
sg13
g14
sg15
g10
sg16
S'2015'
p98
sg18
S'15'
p99
sg20
S'3.5'
p100
sg22
S'12/20'
p101
sg24
g10
sg25
S'C.J. Anderson'
p102
sg27
g88
sg29
S'L27-34'
p103
sg31
S'6'
p104
sg33
g14
sg35
S'@PIT'
p105
sg37
g104
sg39
S'14'
p106
sg41
g57
ssS'14'
p107
(dp108
g5
S'--'
p109
sg7
S'--'
p110
sg9
g10
sg11
S'--'
p111
sg13
g10
sg15
S'--'
p112
sg16
S'2015'
p113
sg18
S'14'
p114
sg20
S'--'
p115
sg22
S'12/13'
p116
sg24
S'--'
p117
sg25
S'C.J. Anderson'
p118
sg27
S'--'
p119
sg29
S'L12-15'
p120
sg31
S'--'
p121
sg33
S'--'
p122
sg35
S'OAK'
p123
sg37
S'--'
p124
sg39
S'--'
p125
sg41
S'--'
p126
ssS'17'
p127
(dp128
g5
S'-5.0'
p129
sg7
g14
sg9
g10
sg11
g14
sg13
g14
sg15
g10
sg16
S'2015'
p130
sg18
S'17'
p131
sg20
S'6.3'
p132
sg22
S'01/03'
p133
sg24
g14
sg25
S'C.J. Anderson'
p134
sg27
S'15'
p135
sg29
S'W27-20'
p136
sg31
S'-5'
p137
sg33
g14
sg35
S'SD'
p138
sg37
S'-5'
p139
sg39
S'95'
p140
sg41
S'27'
p141
ssS'16'
p142
(dp143
g5
S'8.0'
p144
sg7
g14
sg9
g10
sg11
g14
sg13
g14
sg15
g10
sg16
S'2015'
p145
sg18
S'16'
p146
sg20
S'8.1'
p147
sg22
S'12/28'
p148
sg24
g14
sg25
S'C.J. Anderson'
p149
sg27
g56
sg29
S'W20-17'
p150
sg31
S'8'
p151
sg33
g14
sg35
S'CIN'
p152
sg37
g151
sg39
S'73'
p153
sg41
S'39T'
p154
ssg14
(dp155
g5
S'4.8'
p156
sg7
S'--'
p157
sg9
g14
sg11
S'--'
p158
sg13
g14
sg15
g10
sg16
S'2015'
p159
sg18
g14
sg20
S'2.4'
p160
sg22
S'09/13'
p161
sg24
g10
sg25
S'C.J. Anderson'
p162
sg27
S'12'
p163
sg29
S'W19-13'
p164
sg31
S'19'
p165
sg33
g88
sg35
S'BAL'
p166
sg37
g151
sg39
S'29'
p167
sg41
g104
ssS'3'
p168
(dp169
g5
S'9.0'
p170
sg7
S'--'
p171
sg9
g14
sg11
S'--'
p172
sg13
g14
sg15
g10
sg16
S'2015'
p173
sg18
g168
sg20
S'2.3'
p174
sg22
S'09/27'
p175
sg24
g10
sg25
S'C.J. Anderson'
p176
sg27
g151
sg29
S'W24-12'
p177
sg31
g56
sg33
g14
sg35
S'@DET'
p178
sg37
g56
sg39
S'18'
p179
sg41
g57
ssg34
(dp180
g5
S'2.0'
p181
sg7
S'--'
p182
sg9
g14
sg11
S'--'
p183
sg13
g14
sg15
g10
sg16
S'2015'
p184
sg18
g34
sg20
S'2.3'
p185
sg22
S'09/17'
p186
sg24
g10
sg25
S'C.J. Anderson'
p187
sg27
S'12'
p188
sg29
S'W31-24'
p189
sg31
g34
sg33
g14
sg35
S'@KC'
p190
sg37
g34
sg39
S'27'
p191
sg41
S'14'
p192
ssg57
(dp193
g5
S'9.0'
p194
sg7
S'--'
p195
sg9
g14
sg11
S'--'
p196
sg13
g14
sg15
g10
sg16
S'2015'
p197
sg18
g57
sg20
S'2.0'
p198
sg22
S'10/11'
p199
sg24
g10
sg25
S'C.J. Anderson'
p200
sg27
S'11'
p201
sg29
S'W16-10'
p202
sg31
S'18'
p203
sg33
g34
sg35
S'@OAK'
p204
sg37
S'10'
p205
sg39
S'22'
p206
sg41
S'10'
p207
ssg88
(dp208
g5
S'27.0'
p209
sg7
S'--'
p210
sg9
g14
sg11
S'--'
p211
sg13
g14
sg15
g10
sg16
S'2015'
p212
sg18
g88
sg20
S'3.9'
p213
sg22
S'10/04'
p214
sg24
g10
sg25
S'C.J. Anderson'
p215
sg27
S'11'
p216
sg29
S'W23-20'
p217
sg31
S'27'
p218
sg33
g14
sg35
S'MIN'
p219
sg37
S'27'
p220
sg39
S'43'
p221
sg41
S'13'
p222
ssg68
(dp223
g5
S''
p224
sg7
g224
sg9
g224
sg11
g224
sg13
g224
sg15
g224
sg16
S'2015'
p225
sg18
g68
sg20
g224
sg22
S'Bye'
p226
sg24
g224
sg25
S'C.J. Anderson'
p227
sg27
g224
sg29
g224
sg31
g224
sg33
g224
sg35
g224
sg37
g224
sg39
g224
sg41
g224
ssg104
(dp228
g5
S'6.3'
p229
sg7
S'--'
p230
sg9
g14
sg11
S'--'
p231
sg13
g14
sg15
g10
sg16
S'2015'
p232
sg18
g104
sg20
S'3.2'
p233
sg22
S'10/18'
p234
sg24
g10
sg25
S'C.J. Anderson'
p235
sg27
S'13'
p236
sg29
S'W26-23'
p237
sg31
S'25'
p238
sg33
g88
sg35
S'@CLE'
p239
sg37
S'11'
p240
sg39
S'41'
p241
sg41
S'11'
p242
ssg56
(dp243
g5
S'4.0'
p244
sg7
S'--'
p245
sg9
g10
sg11
S'--'
p246
sg13
g14
sg15
g10
sg16
S'2015'
p247
sg18
g56
sg20
S'4.9'
p248
sg22
S'11/08'
p249
sg24
g10
sg25
S'C.J. Anderson'
p250
sg27
g68
sg29
S'L24-27'
p251
sg31
g88
sg33
g14
sg35
S'@IND'
p252
sg37
g88
sg39
S'34'
p253
sg41
S'12'
p254
ssg151
(dp255
g5
S'5.0'
p256
sg7
S'--'
p257
sg9
g10
sg11
S'--'
p258
sg13
g14
sg15
g10
sg16
S'2015'
p259
sg18
g151
sg20
S'7.2'
p260
sg22
S'11/01'
p261
sg24
g14
sg25
S'C.J. Anderson'
p262
sg27
S'14'
p263
sg29
S'W29-10'
p264
sg31
g57
sg33
g14
sg35
S'GB'
p265
sg37
g57
sg39
S'101'
p266
sg41
S'28T'
p267
sssS'2014'
p268
(dp269
g3
(dp270
g5
S'10.8'
p271
sg7
S'--'
p272
sg9
g14
sg11
S'--'
p273
sg13
g14
sg15
g10
sg16
S'2014'
p274
sg18
S'11'
p275
sg20
S'3.2'
p276
sg22
S'11/16'
p277
sg24
g10
sg25
S'C.J. Anderson'
p278
sg27
g56
sg29
S'L7-22'
p279
sg31
S'86'
p280
sg33
g151
sg35
S'@STL'
p281
sg37
S'21'
p282
sg39
S'29'
p283
sg41
g56
ssg43
(dp284
g5
S'18.3'
p285
sg7
S'--'
p286
sg9
g10
sg11
S'--'
p287
sg13
g14
sg15
g14
sg16
S'2014'
p288
sg18
S'10'
p289
sg20
S'6.9'
p290
sg22
S'11/09'
p291
sg24
g10
sg25
S'C.J. Anderson'
p292
sg27
S'13'
p293
sg29
S'W41-17'
p294
sg31
S'73'
p295
sg33
g88
sg35
S'@OAK'
p296
sg37
S'51T'
p297
sg39
S'90'
p298
sg41
S'17'
p299
ssg58
(dp300
g5
S'8.5'
p301
sg7
S'--'
p302
sg9
g14
sg11
S'--'
p303
sg13
g14
sg15
g14
sg16
S'2014'
p304
sg18
S'13'
p305
sg20
S'5.3'
p306
sg22
S'11/30'
p307
sg24
g10
sg25
S'C.J. Anderson'
p308
sg27
S'32'
p309
sg29
S'W29-16'
p310
sg31
S'17'
p311
sg33
g34
sg35
S'@KC'
p312
sg37
S'15T'
p313
sg39
S'168'
p314
sg41
S'20'
p315
ssg75
(dp316
g5
S'7.0'
p317
sg7
S'--'
p318
sg9
g14
sg11
S'--'
p319
sg13
g14
sg15
g10
sg16
S'2014'
p320
sg18
S'12'
p321
sg20
S'6.2'
p322
sg22
S'11/23'
p323
sg24
g14
sg25
S'C.J. Anderson'
p324
sg27
S'27'
p325
sg29
S'W39-36'
p326
sg31
S'28'
p327
sg33
g88
sg35
S'MIA'
p328
sg37
g56
sg39
S'167'
p329
sg41
S'26'
p330
ssg93
(dp331
g5
S'5.5'
p332
sg7
S'--'
p333
sg9
g14
sg11
S'--'
p334
sg13
g14
sg15
g10
sg16
S'2014'
p335
sg18
S'15'
p336
sg20
S'2.9'
p337
sg22
S'12/14'
p338
sg24
g10
sg25
S'C.J. Anderson'
p339
sg27
S'29'
p340
sg29
S'W22-10'
p341
sg31
S'11'
p342
sg33
g34
sg35
S'@SD'
p343
sg37
g151
sg39
S'85'
p344
sg41
g56
ssg107
(dp345
g5
S'--'
p346
sg7
S'--'
p347
sg9
g14
sg11
S'--'
p348
sg13
g14
sg15
S'--'
p349
sg16
S'2014'
p350
sg18
S'14'
p351
sg20
S'2.8'
p352
sg22
S'12/07'
p353
sg24
g168
sg25
S'C.J. Anderson'
p354
sg27
S'21'
p355
sg29
S'W24-17'
p356
sg31
S'--'
p357
sg33
S'--'
p358
sg35
S'BUF'
p359
sg37
S'--'
p360
sg39
S'58'
p361
sg41
S'10'
p362
ssg127
(dp363
g5
S'10.0'
p364
sg7
g14
sg9
g14
sg11
g10
sg13
g14
sg15
g10
sg16
S'2014'
p365
sg18
S'17'
p366
sg20
S'6.7'
p367
sg22
S'12/28'
p368
sg24
g168
sg25
S'C.J. Anderson'
p369
sg27
S'13'
p370
sg29
S'W47-14'
p371
sg31
S'20'
p372
sg33
g34
sg35
S'OAK'
p373
sg37
S'15'
p374
sg39
S'87'
p375
sg41
S'25T'
p376
ssg142
(dp377
g5
S'6.9'
p378
sg7
S'--'
p379
sg9
g14
sg11
S'--'
p380
sg13
g14
sg15
g10
sg16
S'2014'
p381
sg18
S'16'
p382
sg20
S'4.6'
p383
sg22
S'12/22'
p384
sg24
g14
sg25
S'C.J. Anderson'
p385
sg27
S'18'
p386
sg29
S'L28-37'
p387
sg31
S'55'
p388
sg33
g151
sg35
S'@CIN'
p389
sg37
S'20'
p390
sg39
S'83'
p391
sg41
S'27'
p392
ssg14
(dp393
g5
S'--'
p394
sg7
S'--'
p395
sg9
g10
sg11
S'--'
p396
sg13
g14
sg15
S'--'
p397
sg16
S'2014'
p398
sg18
g14
sg20
S'6.8'
p399
sg22
S'09/07'
p400
sg24
g10
sg25
S'C.J. Anderson'
p401
sg27
g88
sg29
S'W31-24'
p402
sg31
S'--'
p403
sg33
S'--'
p404
sg35
S'IND'
p405
sg37
S'--'
p406
sg39
S'27'
p407
sg41
S'13'
p408
ssg168
(dp409
g5
S'1.0'
p410
sg7
S'--'
p411
sg9
g10
sg11
S'--'
p412
sg13
g14
sg15
g10
sg16
S'2014'
p413
sg18
g168
sg20
S'-1.5'
p414
sg22
S'09/21'
p415
sg24
g10
sg25
S'C.J. Anderson'
p416
sg27
g34
sg29
S'L20-26'
p417
sg31
g14
sg33
g14
sg35
S'@SEA'
p418
sg37
g14
sg39
S'-3'
p419
sg41
S'-1'
p420
ssg34
(dp421
g5
S'--'
p422
sg7
S'--'
p423
sg9
g10
sg11
S'--'
p424
sg13
g14
sg15
S'--'
p425
sg16
S'2014'
p426
sg18
g34
sg20
S'6.2'
p427
sg22
S'09/14'
p428
sg24
g10
sg25
S'C.J. Anderson'
p429
sg27
g57
sg29
S'W24-17'
p430
sg31
S'--'
p431
sg33
S'--'
p432
sg35
S'KC'
p433
sg37
S'--'
p434
sg39
S'31'
p435
sg41
S'13'
p436
ssg57
(dp437
g5
S'--'
p438
sg7
S'--'
p439
sg9
g10
sg11
S'--'
p440
sg13
g10
sg15
S'--'
p441
sg16
S'2014'
p442
sg18
g57
sg20
S'--'
p443
sg22
S'10/05'
p444
sg24
S'--'
p445
sg25
S'C.J. Anderson'
p446
sg27
S'--'
p447
sg29
S'W41-20'
p448
sg31
S'--'
p449
sg33
S'--'
p450
sg35
S'ARI'
p451
sg37
S'--'
p452
sg39
S'--'
p453
sg41
S'--'
p454
ssg88
(dp455
g5
g224
sg7
g224
sg9
g224
sg11
g224
sg13
g224
sg15
g224
sg16
S'2014'
p456
sg18
g88
sg20
g224
sg22
S'Bye'
p457
sg24
g224
sg25
S'C.J. Anderson'
p458
sg27
g224
sg29
g224
sg31
g224
sg33
g224
sg35
g224
sg37
g224
sg39
g224
sg41
g224
ssg68
(dp459
g5
S'--'
p460
sg7
S'--'
p461
sg9
g10
sg11
S'--'
p462
sg13
g14
sg15
S'--'
p463
sg16
S'2014'
p464
sg18
g68
sg20
S'4.5'
p465
sg22
S'10/19'
p466
sg24
g10
sg25
S'C.J. Anderson'
p467
sg27
g34
sg29
S'W42-17'
p468
sg31
S'--'
p469
sg33
S'--'
p470
sg35
S'SF'
p471
sg37
S'--'
p472
sg39
g56
sg41
g57
ssg104
(dp473
g5
S'--'
p474
sg7
S'--'
p475
sg9
g10
sg11
S'--'
p476
sg13
g14
sg15
S'--'
p477
sg16
S'2014'
p478
sg18
g104
sg20
S'--'
p479
sg22
S'10/12'
p480
sg24
S'--'
p481
sg25
S'C.J. Anderson'
p482
sg27
S'--'
p483
sg29
S'W31-17'
p484
sg31
S'--'
p485
sg33
S'--'
p486
sg35
S'@NYJ'
p487
sg37
S'--'
p488
sg39
S'--'
p489
sg41
S'--'
p490
ssg56
(dp491
g5
S'11.0'
p492
sg7
S'--'
p493
sg9
g10
sg11
S'--'
p494
sg13
g14
sg15
g10
sg16
S'2014'
p495
sg18
g56
sg20
S'6.0'
p496
sg22
S'11/02'
p497
sg24
g10
sg25
S'C.J. Anderson'
p498
sg27
g168
sg29
S'L21-43'
p499
sg31
S'33'
p500
sg33
g168
sg35
S'@NE'
p501
sg37
S'24'
p502
sg39
S'18'
p503
sg41
g151
ssg151
(dp504
g5
S'--'
p505
sg7
S'--'
p506
sg9
g10
sg11
S'--'
p507
sg13
g14
sg15
S'--'
p508
sg16
S'2014'
p509
sg18
g151
sg20
S'0.0'
p510
sg22
S'10/23'
p511
sg24
g10
sg25
S'C.J. Anderson'
p512
sg27
g14
sg29
S'W35-21'
p513
sg31
S'--'
p514
sg33
S'--'
p515
sg35
S'SD'
p516
sg37
S'--'
p517
sg39
g10
sg41
g10
sssS'2013'
p518
(dp519
g3
(dp520
g5
S'--'
p521
sg7
S'--'
p522
sg9
g10
sg11
S'--'
p523
sg13
g14
sg15
S'--'
p524
sg16
S'2013'
p525
sg18
S'11'
p526
sg20
S'--'
p527
sg22
S'11/17'
p528
sg24
S'--'
p529
sg25
S'C.J. Anderson'
p530
sg27
S'--'
p531
sg29
S'W27-17'
p532
sg31
S'--'
p533
sg33
S'--'
p534
sg35
S'KC'
p535
sg37
S'--'
p536
sg39
S'--'
p537
sg41
S'--'
p538
ssg43
(dp539
g5
S'--'
p540
sg7
S'--'
p541
sg9
g10
sg11
S'--'
p542
sg13
g14
sg15
S'--'
p543
sg16
S'2013'
p544
sg18
S'10'
p545
sg20
S'--'
p546
sg22
S'11/10'
p547
sg24
S'--'
p548
sg25
S'C.J. Anderson'
p549
sg27
S'--'
p550
sg29
S'W28-20'
p551
sg31
S'--'
p552
sg33
S'--'
p553
sg35
S'@SD'
p554
sg37
S'--'
p555
sg39
S'--'
p556
sg41
S'--'
p557
ssg58
(dp558
g5
S'--'
p559
sg7
S'--'
p560
sg9
g10
sg11
S'--'
p561
sg13
g10
sg15
S'--'
p562
sg16
S'2013'
p563
sg18
S'13'
p564
sg20
S'--'
p565
sg22
S'12/01'
p566
sg24
S'--'
p567
sg25
S'C.J. Anderson'
p568
sg27
S'--'
p569
sg29
S'W35-28'
p570
sg31
S'--'
p571
sg33
S'--'
p572
sg35
S'@KC'
p573
sg37
S'--'
p574
sg39
S'--'
p575
sg41
S'--'
p576
ssg75
(dp577
g5
S'--'
p578
sg7
S'--'
p579
sg9
g10
sg11
S'--'
p580
sg13
g14
sg15
g10
sg16
S'2013'
p581
sg18
S'12'
p582
sg20
S'5.3'
p583
sg22
S'11/24'
p584
sg24
g10
sg25
S'C.J. Anderson'
p585
sg27
g168
sg29
S'L31-34'
p586
sg31
g10
sg33
g10
sg35
S'@NE'
p587
sg37
S'--'
p588
sg39
S'16'
p589
sg41
g104
ssg93
(dp590
g5
S'--'
p591
sg7
S'--'
p592
sg9
g10
sg11
S'--'
p593
sg13
g10
sg15
S'--'
p594
sg16
S'2013'
p595
sg18
S'15'
p596
sg20
S'--'
p597
sg22
S'12/12'
p598
sg24
S'--'
p599
sg25
S'C.J. Anderson'
p600
sg27
S'--'
p601
sg29
S'L20-27'
p602
sg31
S'--'
p603
sg33
S'--'
p604
sg35
S'SD'
p605
sg37
S'--'
p606
sg39
S'--'
p607
sg41
S'--'
p608
ssg107
(dp609
g5
S'--'
p610
sg7
S'--'
p611
sg9
g10
sg11
S'--'
p612
sg13
g14
sg15
S'--'
p613
sg16
S'2013'
p614
sg18
S'14'
p615
sg20
S'--'
p616
sg22
S'12/08'
p617
sg24
S'--'
p618
sg25
S'C.J. Anderson'
p619
sg27
S'--'
p620
sg29
S'W51-28'
p621
sg31
S'--'
p622
sg33
S'--'
p623
sg35
S'TEN'
p624
sg37
S'--'
p625
sg39
S'--'
p626
sg41
S'--'
p627
ssg127
(dp628
g5
S'--'
p629
sg7
S'--'
p630
sg9
g10
sg11
S'--'
p631
sg13
g10
sg15
S'--'
p632
sg16
S'2013'
p633
sg18
S'17'
p634
sg20
S'--'
p635
sg22
S'12/29'
p636
sg24
S'--'
p637
sg25
S'C.J. Anderson'
p638
sg27
S'--'
p639
sg29
S'W34-14'
p640
sg31
S'--'
p641
sg33
S'--'
p642
sg35
S'@OAK'
p643
sg37
S'--'
p644
sg39
S'--'
p645
sg41
S'--'
p646
ssg142
(dp647
g5
S'--'
p648
sg7
S'--'
p649
sg9
g10
sg11
S'--'
p650
sg13
g10
sg15
S'--'
p651
sg16
S'2013'
p652
sg18
S'16'
p653
sg20
S'--'
p654
sg22
S'12/22'
p655
sg24
S'--'
p656
sg25
S'C.J. Anderson'
p657
sg27
S'--'
p658
sg29
S'W37-13'
p659
sg31
S'--'
p660
sg33
S'--'
p661
sg35
S'@HOU'
p662
sg37
S'--'
p663
sg39
S'--'
p664
sg41
S'--'
p665
ssg14
(dp666
g5
S'--'
p667
sg7
S'--'
p668
sg9
g10
sg11
S'--'
p669
sg13
g10
sg15
S'--'
p670
sg16
S'2013'
p671
sg18
g14
sg20
S'--'
p672
sg22
S'09/05'
p673
sg24
S'--'
p674
sg25
S'C.J. Anderson'
p675
sg27
S'--'
p676
sg29
S'W49-27'
p677
sg31
S'--'
p678
sg33
S'--'
p679
sg35
S'BAL'
p680
sg37
S'--'
p681
sg39
S'--'
p682
sg41
S'--'
p683
ssg168
(dp684
g5
S'--'
p685
sg7
S'--'
p686
sg9
g10
sg11
S'--'
p687
sg13
g10
sg15
S'--'
p688
sg16
S'2013'
p689
sg18
g168
sg20
S'--'
p690
sg22
S'09/23'
p691
sg24
S'--'
p692
sg25
S'C.J. Anderson'
p693
sg27
S'--'
p694
sg29
S'W37-21'
p695
sg31
S'--'
p696
sg33
S'--'
p697
sg35
S'OAK'
p698
sg37
S'--'
p699
sg39
S'--'
p700
sg41
S'--'
p701
ssg34
(dp702
g5
S'--'
p703
sg7
S'--'
p704
sg9
g10
sg11
S'--'
p705
sg13
g10
sg15
S'--'
p706
sg16
S'2013'
p707
sg18
g34
sg20
S'--'
p708
sg22
S'09/15'
p709
sg24
S'--'
p710
sg25
S'C.J. Anderson'
p711
sg27
S'--'
p712
sg29
S'W41-23'
p713
sg31
S'--'
p714
sg33
S'--'
p715
sg35
S'@NYG'
p716
sg37
S'--'
p717
sg39
S'--'
p718
sg41
S'--'
p719
ssg57
(dp720
g5
S'--'
p721
sg7
S'--'
p722
sg9
g10
sg11
S'--'
p723
sg13
g10
sg15
S'--'
p724
sg16
S'2013'
p725
sg18
g57
sg20
S'--'
p726
sg22
S'10/06'
p727
sg24
S'--'
p728
sg25
S'C.J. Anderson'
p729
sg27
S'--'
p730
sg29
S'W51-48'
p731
sg31
S'--'
p732
sg33
S'--'
p733
sg35
S'@DAL'
p734
sg37
S'--'
p735
sg39
S'--'
p736
sg41
S'--'
p737
ssg88
(dp738
g5
S'--'
p739
sg7
S'--'
p740
sg9
g10
sg11
S'--'
p741
sg13
g10
sg15
S'--'
p742
sg16
S'2013'
p743
sg18
g88
sg20
S'--'
p744
sg22
S'09/29'
p745
sg24
S'--'
p746
sg25
S'C.J. Anderson'
p747
sg27
S'--'
p748
sg29
S'W52-20'
p749
sg31
S'--'
p750
sg33
S'--'
p751
sg35
S'PHI'
p752
sg37
S'--'
p753
sg39
S'--'
p754
sg41
S'--'
p755
ssg68
(dp756
g5
S'--'
p757
sg7
S'--'
p758
sg9
g10
sg11
S'--'
p759
sg13
g10
sg15
S'--'
p760
sg16
S'2013'
p761
sg18
g68
sg20
S'--'
p762
sg22
S'10/20'
p763
sg24
S'--'
p764
sg25
S'C.J. Anderson'
p765
sg27
S'--'
p766
sg29
S'L33-39'
p767
sg31
S'--'
p768
sg33
S'--'
p769
sg35
S'@IND'
p770
sg37
S'--'
p771
sg39
S'--'
p772
sg41
S'--'
p773
ssg104
(dp774
g5
S'--'
p775
sg7
S'--'
p776
sg9
g10
sg11
S'--'
p777
sg13
g10
sg15
S'--'
p778
sg16
S'2013'
p779
sg18
g104
sg20
S'--'
p780
sg22
S'10/13'
p781
sg24
S'--'
p782
sg25
S'C.J. Anderson'
p783
sg27
S'--'
p784
sg29
S'W35-19'
p785
sg31
S'--'
p786
sg33
S'--'
p787
sg35
S'JAC'
p788
sg37
S'--'
p789
sg39
S'--'
p790
sg41
S'--'
p791
ssg56
(dp792
g5
g224
sg7
g224
sg9
g224
sg11
g224
sg13
g224
sg15
g224
sg16
S'2013'
p793
sg18
g56
sg20
g224
sg22
S'Bye'
p794
sg24
g224
sg25
S'C.J. Anderson'
p795
sg27
g224
sg29
g224
sg31
g224
sg33
g224
sg35
g224
sg37
g224
sg39
g224
sg41
g224
ssg151
(dp796
g5
S'--'
p797
sg7
S'--'
p798
sg9
g10
sg11
S'--'
p799
sg13
g14
sg15
S'--'
p800
sg16
S'2013'
p801
sg18
g151
sg20
S'5.5'
p802
sg22
S'10/27'
p803
sg24
g10
sg25
S'C.J. Anderson'
p804
sg27
g88
sg29
S'W45-21'
p805
sg31
S'--'
p806
sg33
S'--'
p807
sg35
S'WAS'
p808
sg37
S'--'
p809
sg39
S'22'
p810
sg41
S'11'
p811
sss.