(dp0
S'2015'
p1
(dp2
S'11'
p3
(dp4
S'RecAvg'
p5
S''
p6
sS'FUM'
p7
g6
sS'GS'
p8
g6
sS'Lost'
p9
g6
sS'G'
p10
g6
sS'RecTD'
p11
g6
sS'Year'
p12
S'2015'
p13
sS'WK'
p14
S'11'
p15
sS'RushAvg'
p16
g6
sS'Game Date'
p17
S'Bye'
p18
sS'RushTD'
p19
g6
sS'Player'
p20
S'C.J. Spiller'
p21
sS'RushAtt'
p22
g6
sS'Result'
p23
g6
sS'RecYds'
p24
g6
sS'Rec'
p25
g6
sS'Opp'
p26
g6
sS'RecLng'
p27
g6
sS'RushYds'
p28
g6
sS'RushLng'
p29
g6
ssS'10'
p30
(dp31
g5
S'5.0'
p32
sg7
S'1'
p33
sg8
S'0'
p34
sg9
g34
sg10
g33
sg11
g34
sg12
S'2015'
p35
sg14
S'10'
p36
sg16
S'3.0'
p37
sg17
S'11/15'
p38
sg19
g34
sg20
S'C.J. Spiller'
p39
sg22
S'8'
p40
sg23
S'L14-47'
p41
sg24
S'10'
p42
sg25
S'2'
p43
sg26
S'@WAS'
p44
sg27
S'7'
p45
sg28
S'24'
p46
sg29
g45
ssS'13'
p47
(dp48
g5
S'0.0'
p49
sg7
S'--'
p50
sg8
g34
sg9
S'--'
p51
sg10
g33
sg11
g34
sg12
S'2015'
p52
sg14
S'13'
p53
sg16
S'--'
p54
sg17
S'12/06'
p55
sg19
S'--'
p56
sg20
S'C.J. Spiller'
p57
sg22
S'--'
p58
sg23
S'L38-41'
p59
sg24
g34
sg25
g33
sg26
S'CAR'
p60
sg27
g34
sg28
S'--'
p61
sg29
S'--'
p62
ssS'12'
p63
(dp64
g5
S'4.0'
p65
sg7
S'--'
p66
sg8
g34
sg9
S'--'
p67
sg10
g33
sg11
g34
sg12
S'2015'
p68
sg14
S'12'
p69
sg16
S'-2.0'
p70
sg17
S'11/29'
p71
sg19
g34
sg20
S'C.J. Spiller'
p72
sg22
g33
sg23
S'L6-24'
p73
sg24
g40
sg25
g43
sg26
S'@HOU'
p74
sg27
g45
sg28
S'-2'
p75
sg29
S'-2'
p76
ssS'15'
p77
(dp78
g5
S'8.0'
p79
sg7
S'--'
p80
sg8
g34
sg9
S'--'
p81
sg10
g33
sg11
g34
sg12
S'2015'
p82
sg14
S'15'
p83
sg16
S'1.0'
p84
sg17
S'12/21'
p85
sg19
g34
sg20
S'C.J. Spiller'
p86
sg22
g43
sg23
S'L27-35'
p87
sg24
S'16'
p88
sg25
g43
sg26
S'DET'
p89
sg27
S'14'
p90
sg28
g43
sg29
g43
ssS'14'
p91
(dp92
g5
S'2.3'
p93
sg7
S'--'
p94
sg8
g34
sg9
S'--'
p95
sg10
g33
sg11
g34
sg12
S'2015'
p96
sg14
S'14'
p97
sg16
S'0.7'
p98
sg17
S'12/13'
p99
sg19
g34
sg20
S'C.J. Spiller'
p100
sg22
S'3'
p101
sg23
S'W24-17'
p102
sg24
g45
sg25
g101
sg26
S'@TB'
p103
sg27
g40
sg28
g43
sg29
g43
ssS'16'
p104
(dp105
g5
S'--'
p106
sg7
S'--'
p107
sg8
g34
sg9
S'--'
p108
sg10
g34
sg11
S'--'
p109
sg12
S'2015'
p110
sg14
S'16'
p111
sg16
S'--'
p112
sg17
S'12/27'
p113
sg19
S'--'
p114
sg20
S'C.J. Spiller'
p115
sg22
S'--'
p116
sg23
S'W38-27'
p117
sg24
S'--'
p118
sg25
S'--'
p119
sg26
S'JAC'
p120
sg27
S'--'
p121
sg28
S'--'
p122
sg29
S'--'
p123
ssg33
(dp124
g5
S'--'
p125
sg7
S'--'
p126
sg8
g34
sg9
S'--'
p127
sg10
g34
sg11
S'--'
p128
sg12
S'2015'
p129
sg14
g33
sg16
S'--'
p130
sg17
S'09/13'
p131
sg19
S'--'
p132
sg20
S'C.J. Spiller'
p133
sg22
S'--'
p134
sg23
S'L19-31'
p135
sg24
S'--'
p136
sg25
S'--'
p137
sg26
S'@ARI'
p138
sg27
S'--'
p139
sg28
S'--'
p140
sg29
S'--'
p141
ssg101
(dp142
g5
S'11.0'
p143
sg7
S'--'
p144
sg8
g33
sg9
S'--'
p145
sg10
g33
sg11
g34
sg12
S'2015'
p146
sg14
g101
sg16
S'4.0'
p147
sg17
S'09/27'
p148
sg19
g34
sg20
S'C.J. Spiller'
p149
sg22
g33
sg23
S'L22-27'
p150
sg24
S'22'
p151
sg25
g43
sg26
S'@CAR'
p152
sg27
S'19'
p153
sg28
S'4'
p154
sg29
g154
ssg43
(dp155
g5
S'19.0'
p156
sg7
S'--'
p157
sg8
g34
sg9
S'--'
p158
sg10
g33
sg11
g34
sg12
S'2015'
p159
sg14
g43
sg16
S'2.3'
p160
sg17
S'09/20'
p161
sg19
g34
sg20
S'C.J. Spiller'
p162
sg22
g101
sg23
S'L19-26'
p163
sg24
S'19'
p164
sg25
g33
sg26
S'TB'
p165
sg27
S'19'
p166
sg28
g45
sg29
g45
ssS'5'
p167
(dp168
g5
S'-2.7'
p169
sg7
S'--'
p170
sg8
g33
sg9
S'--'
p171
sg10
g33
sg11
g34
sg12
S'2015'
p172
sg14
g167
sg16
S'3.3'
p173
sg17
S'10/11'
p174
sg19
g34
sg20
S'C.J. Spiller'
p175
sg22
g101
sg23
S'L17-39'
p176
sg24
S'-8'
p177
sg25
g101
sg26
S'@PHI'
p178
sg27
g34
sg28
S'10'
p179
sg29
g40
ssg154
(dp180
g5
S'19.8'
p181
sg7
S'--'
p182
sg8
g34
sg9
S'--'
p183
sg10
g33
sg11
g33
sg12
S'2015'
p184
sg14
g154
sg16
S'5.0'
p185
sg17
S'10/04'
p186
sg19
g34
sg20
S'C.J. Spiller'
p187
sg22
g43
sg23
S'W26-20'
p188
sg24
S'99'
p189
sg25
g167
sg26
S'DAL'
p190
sg27
S'80T'
p191
sg28
S'10'
p192
sg29
S'10'
p193
ssg45
(dp194
g5
S'5.3'
p195
sg7
S'--'
p196
sg8
g34
sg9
S'--'
p197
sg10
g33
sg11
g34
sg12
S'2015'
p198
sg14
g45
sg16
S'4.0'
p199
sg17
S'10/25'
p200
sg19
g34
sg20
S'C.J. Spiller'
p201
sg22
g154
sg23
S'W27-21'
p202
sg24
S'32'
p203
sg25
S'6'
p204
sg26
S'@IND'
p205
sg27
S'17'
p206
sg28
S'16'
p207
sg29
S'9'
p208
ssg204
(dp209
g5
S'4.3'
p210
sg7
S'--'
p211
sg8
g34
sg9
S'--'
p212
sg10
g33
sg11
g34
sg12
S'2015'
p213
sg14
g204
sg16
S'3.3'
p214
sg17
S'10/15'
p215
sg19
g34
sg20
S'C.J. Spiller'
p216
sg22
g101
sg23
S'W31-21'
p217
sg24
S'17'
p218
sg25
g154
sg26
S'ATL'
p219
sg27
g40
sg28
S'10'
p220
sg29
g45
ssg208
(dp221
g5
S'2.0'
p222
sg7
S'--'
p223
sg8
g34
sg9
S'--'
p224
sg10
g33
sg11
g34
sg12
S'2015'
p225
sg14
g208
sg16
S'4.0'
p226
sg17
S'11/08'
p227
sg19
g34
sg20
S'C.J. Spiller'
p228
sg22
g43
sg23
S'L28-34'
p229
sg24
g43
sg25
g33
sg26
S'TEN'
p230
sg27
g43
sg28
g40
sg29
g167
ssg40
(dp231
g5
S'7.5'
p232
sg7
S'--'
p233
sg8
g34
sg9
S'--'
p234
sg10
g33
sg11
g33
sg12
S'2015'
p235
sg14
g40
sg16
S'5.3'
p236
sg17
S'11/01'
p237
sg19
g34
sg20
S'C.J. Spiller'
p238
sg22
g154
sg23
S'W52-49'
p239
sg24
S'15'
p240
sg25
g43
sg26
S'NYG'
p241
sg27
S'9T'
p242
sg28
S'21'
p243
sg29
S'11'
p244
sssS'2014'
p245
(dp246
S'17'
p247
(dp248
g5
S'2.0'
p249
sg7
S'--'
p250
sg8
g34
sg9
S'--'
p251
sg10
g33
sg11
g34
sg12
S'2014'
p252
sg14
S'17'
p253
sg16
S'3.4'
p254
sg17
S'12/28'
p255
sg19
g34
sg20
S'C.J. Spiller'
p256
sg22
g167
sg23
S'W17-9'
p257
sg24
g43
sg25
g33
sg26
S'@NE'
p258
sg27
g43
sg28
S'17'
p259
sg29
g45
ssg104
(dp260
g5
S'3.5'
p261
sg7
g33
sg8
g34
sg9
g34
sg10
g33
sg11
g34
sg12
S'2014'
p262
sg14
S'16'
p263
sg16
S'-1.0'
p264
sg17
S'12/21'
p265
sg19
g34
sg20
S'C.J. Spiller'
p266
sg22
g154
sg23
S'L24-26'
p267
sg24
S'14'
p268
sg25
g154
sg26
S'@OAK'
p269
sg27
g167
sg28
S'-4'
p270
sg29
g154
ssg33
(dp271
g5
S'3.7'
p272
sg7
S'--'
p273
sg8
g33
sg9
S'--'
p274
sg10
g33
sg11
g33
sg12
S'2014'
p275
sg14
g33
sg16
S'3.5'
p276
sg17
S'09/07'
p277
sg19
g34
sg20
S'C.J. Spiller'
p278
sg22
S'15'
p279
sg23
S'W23-20'
p280
sg24
S'11'
p281
sg25
g101
sg26
S'@CHI'
p282
sg27
S'7T'
p283
sg28
S'53'
p284
sg29
S'13'
p285
ssg101
(dp286
g5
S'12.3'
p287
sg7
S'--'
p288
sg8
g33
sg9
S'--'
p289
sg10
g33
sg11
g34
sg12
S'2014'
p290
sg14
g101
sg16
S'2.5'
p291
sg17
S'09/21'
p292
sg19
g34
sg20
S'C.J. Spiller'
p293
sg22
S'10'
p294
sg23
S'L10-22'
p295
sg24
S'37'
p296
sg25
g101
sg26
S'SD'
p297
sg27
S'25'
p298
sg28
S'25'
p299
sg29
g204
ssg43
(dp300
g5
S'9.0'
p301
sg7
S'--'
p302
sg8
g34
sg9
S'--'
p303
sg10
g33
sg11
g34
sg12
S'2014'
p304
sg14
g43
sg16
S'5.8'
p305
sg17
S'09/14'
p306
sg19
g34
sg20
S'C.J. Spiller'
p307
sg22
S'12'
p308
sg23
S'W29-10'
p309
sg24
g208
sg25
g33
sg26
S'MIA'
p310
sg27
g208
sg28
S'69'
p311
sg29
S'47'
p312
ssg167
(dp313
g5
S'8.3'
p314
sg7
S'--'
p315
sg8
g34
sg9
S'--'
p316
sg10
g33
sg11
g34
sg12
S'2014'
p317
sg14
g167
sg16
S'0.8'
p318
sg17
S'10/05'
p319
sg19
g34
sg20
S'C.J. Spiller'
p320
sg22
S'10'
p321
sg23
S'W17-14'
p322
sg24
S'25'
p323
sg25
g101
sg26
S'@DET'
p324
sg27
S'15'
p325
sg28
g40
sg29
g43
ssg154
(dp326
g5
S'8.0'
p327
sg7
g33
sg8
g33
sg9
g34
sg10
g33
sg11
g34
sg12
S'2014'
p328
sg14
g154
sg16
S'4.0'
p329
sg17
S'09/28'
p330
sg19
g34
sg20
S'C.J. Spiller'
p331
sg22
S'15'
p332
sg23
S'L17-23'
p333
sg24
S'24'
p334
sg25
g101
sg26
S'@HOU'
p335
sg27
S'12'
p336
sg28
S'60'
p337
sg29
S'22'
p338
ssg45
(dp339
g5
S'3.0'
p340
sg7
S'--'
p341
sg8
g33
sg9
S'--'
p342
sg10
g33
sg11
g34
sg12
S'2014'
p343
sg14
g45
sg16
S'53.0'
p344
sg17
S'10/19'
p345
sg19
g34
sg20
S'C.J. Spiller'
p346
sg22
g33
sg23
S'W17-16'
p347
sg24
g101
sg25
g33
sg26
S'MIN'
p348
sg27
g101
sg28
S'53'
p349
sg29
S'53'
p350
ssg204
(dp351
g5
S'--'
p352
sg7
g33
sg8
g33
sg9
g33
sg10
g33
sg11
g34
sg12
S'2014'
p353
sg14
g204
sg16
S'3.2'
p354
sg17
S'10/12'
p355
sg19
g34
sg20
S'C.J. Spiller'
p356
sg22
g204
sg23
S'L22-37'
p357
sg24
g34
sg25
g34
sg26
S'NE'
p358
sg27
S'--'
p359
sg28
S'19'
p360
sg29
S'12'
p361
sssS'2011'
p362
(dp363
g3
(dp364
g5
S'9.0'
p365
sg7
S'--'
p366
sg8
g33
sg9
S'--'
p367
sg10
g33
sg11
g34
sg12
S'2011'
p368
sg14
S'11'
p369
sg16
S'0.7'
p370
sg17
S'11/20'
p371
sg19
g34
sg20
S'C.J. Spiller'
p372
sg22
g101
sg23
S'L8-35'
p373
sg24
S'18'
p374
sg25
g43
sg26
S'@MIA'
p375
sg27
S'18'
p376
sg28
g43
sg29
g33
ssg30
(dp377
g5
S'--'
p378
sg7
S'--'
p379
sg8
g34
sg9
S'--'
p380
sg10
g33
sg11
S'--'
p381
sg12
S'2011'
p382
sg14
S'10'
p383
sg16
S'1.0'
p384
sg17
S'11/13'
p385
sg19
g34
sg20
S'C.J. Spiller'
p386
sg22
g33
sg23
S'L7-44'
p387
sg24
S'--'
p388
sg25
S'--'
p389
sg26
S'@DAL'
p390
sg27
S'--'
p391
sg28
g33
sg29
g33
ssg47
(dp392
g5
S'6.3'
p393
sg7
g33
sg8
g33
sg9
g34
sg10
g33
sg11
g34
sg12
S'2011'
p394
sg14
S'13'
p395
sg16
S'5.9'
p396
sg17
S'12/04'
p397
sg19
g33
sg20
S'C.J. Spiller'
p398
sg22
S'14'
p399
sg23
S'L17-23'
p400
sg24
S'19'
p401
sg25
g101
sg26
S'TEN'
p402
sg27
S'12'
p403
sg28
S'83'
p404
sg29
S'35T'
p405
ssg63
(dp406
g5
S'5.0'
p407
sg7
S'--'
p408
sg8
g33
sg9
S'--'
p409
sg10
g33
sg11
g34
sg12
S'2011'
p410
sg14
S'12'
p411
sg16
S'2.9'
p412
sg17
S'11/27'
p413
sg19
g34
sg20
S'C.J. Spiller'
p414
sg22
S'19'
p415
sg23
S'L24-28'
p416
sg24
S'15'
p417
sg25
g101
sg26
S'@NYJ'
p418
sg27
S'13'
p419
sg28
S'55'
p420
sg29
g208
ssg77
(dp421
g5
S'8.4'
p422
sg7
S'--'
p423
sg8
g33
sg9
S'--'
p424
sg10
g33
sg11
g33
sg12
S'2011'
p425
sg14
S'15'
p426
sg16
S'7.6'
p427
sg17
S'12/18'
p428
sg19
g33
sg20
S'C.J. Spiller'
p429
sg22
S'12'
p430
sg23
S'L23-30'
p431
sg24
S'76'
p432
sg25
g208
sg26
S'MIA'
p433
sg27
S'19'
p434
sg28
S'91'
p435
sg29
S'24T'
p436
ssg91
(dp437
g5
S'3.3'
p438
sg7
S'--'
p439
sg8
g33
sg9
S'--'
p440
sg10
g33
sg11
g34
sg12
S'2011'
p441
sg14
S'14'
p442
sg16
S'3.8'
p443
sg17
S'12/11'
p444
sg19
g34
sg20
S'C.J. Spiller'
p445
sg22
S'12'
p446
sg23
S'L10-37'
p447
sg24
S'10'
p448
sg25
g101
sg26
S'@SD'
p449
sg27
g204
sg28
S'46'
p450
sg29
S'16'
p451
ssg247
(dp452
g5
S'10.0'
p453
sg7
S'--'
p454
sg8
g33
sg9
S'--'
p455
sg10
g33
sg11
g33
sg12
S'2011'
p456
sg14
S'17'
p457
sg16
S'4.6'
p458
sg17
S'01/01'
p459
sg19
g34
sg20
S'C.J. Spiller'
p460
sg22
S'13'
p461
sg23
S'L21-49'
p462
sg24
S'40'
p463
sg25
g154
sg26
S'@NE'
p464
sg27
S'15T'
p465
sg28
S'60'
p466
sg29
S'12'
p467
ssg104
(dp468
g5
S'13.5'
p469
sg7
S'--'
p470
sg8
g33
sg9
S'--'
p471
sg10
g33
sg11
g34
sg12
S'2011'
p472
sg14
S'16'
p473
sg16
S'6.9'
p474
sg17
S'12/24'
p475
sg19
g33
sg20
S'C.J. Spiller'
p476
sg22
S'16'
p477
sg23
S'W40-14'
p478
sg24
S'27'
p479
sg25
g43
sg26
S'DEN'
p480
sg27
S'16'
p481
sg28
S'111'
p482
sg29
S'38'
p483
ssg33
(dp484
g5
S'5.0'
p485
sg7
S'--'
p486
sg8
g34
sg9
S'--'
p487
sg10
g33
sg11
g34
sg12
S'2011'
p488
sg14
g33
sg16
S'3.2'
p489
sg17
S'09/11'
p490
sg19
g33
sg20
S'C.J. Spiller'
p491
sg22
g167
sg23
S'W41-7'
p492
sg24
g167
sg25
g33
sg26
S'@KC'
p493
sg27
g167
sg28
S'16'
p494
sg29
S'9T'
p495
ssg101
(dp496
g5
S'-7.0'
p497
sg7
S'--'
p498
sg8
g33
sg9
S'--'
p499
sg10
g33
sg11
g34
sg12
S'2011'
p500
sg14
g101
sg16
S'3.0'
p501
sg17
S'09/25'
p502
sg19
g34
sg20
S'C.J. Spiller'
p503
sg22
g33
sg23
S'W34-31'
p504
sg24
S'-7'
p505
sg25
g33
sg26
S'NE'
p506
sg27
S'-7'
p507
sg28
g101
sg29
g101
ssg43
(dp508
g5
S'6.0'
p509
sg7
S'--'
p510
sg8
g34
sg9
S'--'
p511
sg10
g33
sg11
g34
sg12
S'2011'
p512
sg14
g43
sg16
S'15.8'
p513
sg17
S'09/18'
p514
sg19
g34
sg20
S'C.J. Spiller'
p515
sg22
g154
sg23
S'W38-35'
p516
sg24
g204
sg25
g33
sg26
S'OAK'
p517
sg27
g204
sg28
S'63'
p518
sg29
S'26'
p519
ssg167
(dp520
g5
S'1.5'
p521
sg7
S'--'
p522
sg8
g34
sg9
S'--'
p523
sg10
g33
sg11
g34
sg12
S'2011'
p524
sg14
g167
sg16
S'6.5'
p525
sg17
S'10/09'
p526
sg19
g34
sg20
S'C.J. Spiller'
p527
sg22
g43
sg23
S'W31-24'
p528
sg24
g101
sg25
g43
sg26
S'PHI'
p529
sg27
g167
sg28
S'13'
p530
sg29
g40
ssg154
(dp531
g5
S'9.0'
p532
sg7
S'--'
p533
sg8
g33
sg9
S'--'
p534
sg10
g33
sg11
g34
sg12
S'2011'
p535
sg14
g154
sg16
S'4.0'
p536
sg17
S'10/02'
p537
sg19
g34
sg20
S'C.J. Spiller'
p538
sg22
g101
sg23
S'L20-23'
p539
sg24
g208
sg25
g33
sg26
S'@CIN'
p540
sg27
g208
sg28
S'12'
p541
sg29
g208
ssg45
(dp542
g5
g6
sg7
g6
sg8
g6
sg9
g6
sg10
g6
sg11
g6
sg12
S'2011'
p543
sg14
g45
sg16
g6
sg17
S'Bye'
p544
sg19
g6
sg20
S'C.J. Spiller'
p545
sg22
g6
sg23
g6
sg24
g6
sg25
g6
sg26
g6
sg27
g6
sg28
g6
sg29
g6
ssg204
(dp546
g5
S'7.8'
p547
sg7
S'--'
p548
sg8
g33
sg9
S'--'
p549
sg10
g33
sg11
g34
sg12
S'2011'
p550
sg14
g204
sg16
S'--'
p551
sg17
S'10/16'
p552
sg19
S'--'
p553
sg20
S'C.J. Spiller'
p554
sg22
S'--'
p555
sg23
S'L24-27'
p556
sg24
S'39'
p557
sg25
g167
sg26
S'@NYG'
p558
sg27
S'15'
p559
sg28
S'--'
p560
sg29
S'--'
p561
ssg208
(dp562
g5
S'--'
p563
sg7
g33
sg8
g34
sg9
g34
sg10
g33
sg11
S'--'
p564
sg12
S'2011'
p565
sg14
g208
sg16
S'2.5'
p566
sg17
S'11/06'
p567
sg19
g34
sg20
S'C.J. Spiller'
p568
sg22
g43
sg23
S'L11-27'
p569
sg24
S'--'
p570
sg25
S'--'
p571
sg26
S'NYJ'
p572
sg27
S'--'
p573
sg28
g167
sg29
g101
ssg40
(dp574
g5
S'4.5'
p575
sg7
S'--'
p576
sg8
g33
sg9
S'--'
p577
sg10
g33
sg11
g34
sg12
S'2011'
p578
sg14
g40
sg16
S'--'
p579
sg17
S'10/30'
p580
sg19
S'--'
p581
sg20
S'C.J. Spiller'
p582
sg22
S'--'
p583
sg23
S'W23-0'
p584
sg24
g208
sg25
g43
sg26
S'WAS'
p585
sg27
S'11'
p586
sg28
S'--'
p587
sg29
S'--'
p588
sssS'2010'
p589
(dp590
g3
(dp591
g5
S'--'
p592
sg7
S'--'
p593
sg8
g34
sg9
S'--'
p594
sg10
g34
sg11
S'--'
p595
sg12
S'2010'
p596
sg14
S'11'
p597
sg16
S'--'
p598
sg17
S'11/21'
p599
sg19
S'--'
p600
sg20
S'C.J. Spiller'
p601
sg22
S'--'
p602
sg23
S'W49-31'
p603
sg24
S'--'
p604
sg25
S'--'
p605
sg26
S'@CIN'
p606
sg27
S'--'
p607
sg28
S'--'
p608
sg29
S'--'
p609
ssg30
(dp610
g5
S'--'
p611
sg7
S'--'
p612
sg8
g34
sg9
S'--'
p613
sg10
g33
sg11
S'--'
p614
sg12
S'2010'
p615
sg14
S'10'
p616
sg16
S'7.0'
p617
sg17
S'11/14'
p618
sg19
g34
sg20
S'C.J. Spiller'
p619
sg22
g43
sg23
S'W14-12'
p620
sg24
S'--'
p621
sg25
S'--'
p622
sg26
S'DET'
p623
sg27
S'--'
p624
sg28
S'14'
p625
sg29
S'16'
p626
ssg47
(dp627
g5
S'0.5'
p628
sg7
S'--'
p629
sg8
g34
sg9
S'--'
p630
sg10
g33
sg11
g34
sg12
S'2010'
p631
sg14
S'13'
p632
sg16
S'5.0'
p633
sg17
S'12/05'
p634
sg19
g34
sg20
S'C.J. Spiller'
p635
sg22
g45
sg23
S'L14-38'
p636
sg24
g33
sg25
g43
sg26
S'@MIN'
p637
sg27
g154
sg28
S'35'
p638
sg29
S'20'
p639
ssg63
(dp640
g5
S'--'
p641
sg7
S'--'
p642
sg8
g34
sg9
S'--'
p643
sg10
g34
sg11
S'--'
p644
sg12
S'2010'
p645
sg14
S'12'
p646
sg16
S'--'
p647
sg17
S'11/28'
p648
sg19
S'--'
p649
sg20
S'C.J. Spiller'
p650
sg22
S'--'
p651
sg23
S'L16-19'
p652
sg24
S'--'
p653
sg25
S'--'
p654
sg26
S'PIT'
p655
sg27
S'--'
p656
sg28
S'--'
p657
sg29
S'--'
p658
ssg77
(dp659
g5
S'10.5'
p660
sg7
S'--'
p661
sg8
g34
sg9
S'--'
p662
sg10
g33
sg11
g34
sg12
S'2010'
p663
sg14
S'15'
p664
sg16
S'1.8'
p665
sg17
S'12/19'
p666
sg19
g34
sg20
S'C.J. Spiller'
p667
sg22
g208
sg23
S'W17-14'
p668
sg24
S'21'
p669
sg25
g43
sg26
S'@MIA'
p670
sg27
S'14'
p671
sg28
S'16'
p672
sg29
S'12'
p673
ssg91
(dp674
g5
S'--'
p675
sg7
g33
sg8
g34
sg9
g34
sg10
g33
sg11
S'--'
p676
sg12
S'2010'
p677
sg14
S'14'
p678
sg16
S'4.1'
p679
sg17
S'12/12'
p680
sg19
g34
sg20
S'C.J. Spiller'
p681
sg22
g40
sg23
S'W13-6'
p682
sg24
S'--'
p683
sg25
S'--'
p684
sg26
S'CLE'
p685
sg27
S'--'
p686
sg28
S'33'
p687
sg29
g40
ssg247
(dp688
g5
S'--'
p689
sg7
S'--'
p690
sg8
g34
sg9
S'--'
p691
sg10
g33
sg11
S'--'
p692
sg12
S'2010'
p693
sg14
S'17'
p694
sg16
S'1.7'
p695
sg17
S'01/02'
p696
sg19
g34
sg20
S'C.J. Spiller'
p697
sg22
g101
sg23
S'L7-38'
p698
sg24
S'--'
p699
sg25
S'--'
p700
sg26
S'@NYJ'
p701
sg27
S'--'
p702
sg28
g167
sg29
g43
ssg104
(dp703
g5
S'27.0'
p704
sg7
g43
sg8
g34
sg9
g43
sg10
g33
sg11
g34
sg12
S'2010'
p705
sg14
S'16'
p706
sg16
S'5.0'
p707
sg17
S'12/26'
p708
sg19
g34
sg20
S'C.J. Spiller'
p709
sg22
g204
sg23
S'L3-34'
p710
sg24
S'54'
p711
sg25
g43
sg26
S'NE'
p712
sg27
S'41'
p713
sg28
S'30'
p714
sg29
g45
ssg33
(dp715
g5
S'2.0'
p716
sg7
S'--'
p717
sg8
g33
sg9
S'--'
p718
sg10
g33
sg11
g34
sg12
S'2010'
p719
sg14
g33
sg16
S'0.9'
p720
sg17
S'09/12'
p721
sg19
g34
sg20
S'C.J. Spiller'
p722
sg22
g45
sg23
S'L10-15'
p723
sg24
g40
sg25
g154
sg26
S'MIA'
p724
sg27
g208
sg28
g204
sg29
g204
ssg101
(dp725
g5
S'3.3'
p726
sg7
S'--'
p727
sg8
g34
sg9
S'--'
p728
sg10
g33
sg11
g33
sg12
S'2010'
p729
sg14
g101
sg16
S'7.3'
p730
sg17
S'09/26'
p731
sg19
g34
sg20
S'C.J. Spiller'
p732
sg22
g154
sg23
S'L30-38'
p733
sg24
S'10'
p734
sg25
g101
sg26
S'@NE'
p735
sg27
S'5T'
p736
sg28
S'29'
p737
sg29
S'19'
p738
ssg43
(dp739
g5
S'5.8'
p740
sg7
S'--'
p741
sg8
g34
sg9
S'--'
p742
sg10
g33
sg11
g34
sg12
S'2010'
p743
sg14
g43
sg16
S'3.0'
p744
sg17
S'09/19'
p745
sg19
g34
sg20
S'C.J. Spiller'
p746
sg22
g33
sg23
S'L7-34'
p747
sg24
S'23'
p748
sg25
g154
sg26
S'@GB'
p749
sg27
g45
sg28
g101
sg29
g101
ssg167
(dp750
g5
S'3.0'
p751
sg7
S'--'
p752
sg8
g34
sg9
S'--'
p753
sg10
g33
sg11
g34
sg12
S'2010'
p754
sg14
g167
sg16
S'6.2'
p755
sg17
S'10/10'
p756
sg19
g34
sg20
S'C.J. Spiller'
p757
sg22
g167
sg23
S'L26-36'
p758
sg24
g101
sg25
g33
sg26
S'JAC'
p759
sg27
g101
sg28
S'31'
p760
sg29
S'19'
p761
ssg154
(dp762
g5
S'4.0'
p763
sg7
S'--'
p764
sg8
g34
sg9
S'--'
p765
sg10
g33
sg11
g34
sg12
S'2010'
p766
sg14
g154
sg16
S'5.5'
p767
sg17
S'10/03'
p768
sg19
g34
sg20
S'C.J. Spiller'
p769
sg22
g43
sg23
S'L14-38'
p770
sg24
g154
sg25
g33
sg26
S'NYJ'
p771
sg27
g154
sg28
S'11'
p772
sg29
g204
ssg45
(dp773
g5
S'--'
p774
sg7
g33
sg8
g34
sg9
g33
sg10
g33
sg11
S'--'
p775
sg12
S'2010'
p776
sg14
g45
sg16
S'4.7'
p777
sg17
S'10/24'
p778
sg19
g34
sg20
S'C.J. Spiller'
p779
sg22
g45
sg23
S'L34-37'
p780
sg24
S'--'
p781
sg25
S'--'
p782
sg26
S'@BAL'
p783
sg27
S'--'
p784
sg28
S'33'
p785
sg29
S'13'
p786
ssg204
(dp787
g5
g6
sg7
g6
sg8
g6
sg9
g6
sg10
g6
sg11
g6
sg12
S'2010'
p788
sg14
g204
sg16
g6
sg17
S'Bye'
p789
sg19
g6
sg20
S'C.J. Spiller'
p790
sg22
g6
sg23
g6
sg24
g6
sg25
g6
sg26
g6
sg27
g6
sg28
g6
sg29
g6
ssg208
(dp791
g5
S'5.0'
p792
sg7
S'--'
p793
sg8
g34
sg9
S'--'
p794
sg10
g33
sg11
g34
sg12
S'2010'
p795
sg14
g208
sg16
S'2.9'
p796
sg17
S'11/07'
p797
sg19
g34
sg20
S'C.J. Spiller'
p798
sg22
g45
sg23
S'L19-22'
p799
sg24
g167
sg25
g33
sg26
S'CHI'
p800
sg27
g167
sg28
S'20'
p801
sg29
S'15'
p802
ssg40
(dp803
g5
S'7.0'
p804
sg7
g33
sg8
g34
sg9
g34
sg10
g33
sg11
g34
sg12
S'2010'
p805
sg14
g40
sg16
S'2.8'
p806
sg17
S'10/31'
p807
sg19
g34
sg20
S'C.J. Spiller'
p808
sg22
g204
sg23
S'L10-13'
p809
sg24
S'28'
p810
sg25
g154
sg26
S'@KC'
p811
sg27
S'14'
p812
sg28
S'17'
p813
sg29
g204
sssS'2013'
p814
(dp815
g3
(dp816
g5
S'5.0'
p817
sg7
S'--'
p818
sg8
g34
sg9
S'--'
p819
sg10
g33
sg11
g34
sg12
S'2013'
p820
sg14
S'11'
p821
sg16
S'0.5'
p822
sg17
S'11/17'
p823
sg19
g34
sg20
S'C.J. Spiller'
p824
sg22
S'13'
p825
sg23
S'W37-14'
p826
sg24
S'10'
p827
sg25
g43
sg26
S'NYJ'
p828
sg27
g40
sg28
g204
sg29
g101
ssg30
(dp829
g5
S'3.7'
p830
sg7
S'--'
p831
sg8
g33
sg9
S'--'
p832
sg10
g33
sg11
g34
sg12
S'2013'
p833
sg14
S'10'
p834
sg16
S'2.9'
p835
sg17
S'11/10'
p836
sg19
g34
sg20
S'C.J. Spiller'
p837
sg22
g40
sg23
S'L10-23'
p838
sg24
S'11'
p839
sg25
g101
sg26
S'@PIT'
p840
sg27
g45
sg28
S'23'
p841
sg29
g45
ssg47
(dp842
g5
S'4.0'
p843
sg7
S'--'
p844
sg8
g33
sg9
S'--'
p845
sg10
g33
sg11
g34
sg12
S'2013'
p846
sg14
S'13'
p847
sg16
S'9.9'
p848
sg17
S'12/01'
p849
sg19
g33
sg20
S'C.J. Spiller'
p850
sg22
S'15'
p851
sg23
S'L31-34'
p852
sg24
g40
sg25
g43
sg26
S'ATL'
p853
sg27
g40
sg28
S'149'
p854
sg29
S'77'
p855
ssg63
(dp856
g5
g6
sg7
g6
sg8
g6
sg9
g6
sg10
g6
sg11
g6
sg12
S'2013'
p857
sg14
S'12'
p858
sg16
g6
sg17
S'Bye'
p859
sg19
g6
sg20
S'C.J. Spiller'
p860
sg22
g6
sg23
g6
sg24
g6
sg25
g6
sg26
g6
sg27
g6
sg28
g6
sg29
g6
ssg77
(dp861
g5
S'1.0'
p862
sg7
S'--'
p863
sg8
g33
sg9
S'--'
p864
sg10
g33
sg11
g34
sg12
S'2013'
p865
sg14
S'15'
p866
sg16
S'5.2'
p867
sg17
S'12/15'
p868
sg19
g34
sg20
S'C.J. Spiller'
p869
sg22
S'13'
p870
sg23
S'W27-20'
p871
sg24
g33
sg25
g33
sg26
S'@JAC'
p872
sg27
g33
sg28
S'67'
p873
sg29
S'18'
p874
ssg91
(dp875
g5
S'26.0'
p876
sg7
S'--'
p877
sg8
g33
sg9
S'--'
p878
sg10
g33
sg11
g34
sg12
S'2013'
p879
sg14
S'14'
p880
sg16
S'2.0'
p881
sg17
S'12/08'
p882
sg19
g34
sg20
S'C.J. Spiller'
p883
sg22
S'11'
p884
sg23
S'L6-27'
p885
sg24
S'26'
p886
sg25
g33
sg26
S'@TB'
p887
sg27
S'26'
p888
sg28
S'22'
p889
sg29
g45
ssg247
(dp890
g5
S'5.6'
p891
sg7
S'--'
p892
sg8
g33
sg9
S'--'
p893
sg10
g33
sg11
g34
sg12
S'2013'
p894
sg14
S'17'
p895
sg16
S'5.5'
p896
sg17
S'12/29'
p897
sg19
g34
sg20
S'C.J. Spiller'
p898
sg22
S'19'
p899
sg23
S'L20-34'
p900
sg24
S'28'
p901
sg25
g167
sg26
S'@NE'
p902
sg27
S'16'
p903
sg28
S'105'
p904
sg29
S'24'
p905
ssg104
(dp906
g5
S'8.7'
p907
sg7
g33
sg8
g33
sg9
g34
sg10
g33
sg11
g34
sg12
S'2013'
p908
sg14
S'16'
p909
sg16
S'4.0'
p910
sg17
S'12/22'
p911
sg19
g34
sg20
S'C.J. Spiller'
p912
sg22
S'21'
p913
sg23
S'W19-0'
p914
sg24
S'26'
p915
sg25
g101
sg26
S'MIA'
p916
sg27
S'12'
p917
sg28
S'83'
p918
sg29
S'23'
p919
ssg33
(dp920
g5
S'2.8'
p921
sg7
g33
sg8
g33
sg9
g33
sg10
g33
sg11
g34
sg12
S'2013'
p922
sg14
g33
sg16
S'2.4'
p923
sg17
S'09/08'
p924
sg19
g34
sg20
S'C.J. Spiller'
p925
sg22
S'17'
p926
sg23
S'L21-23'
p927
sg24
S'14'
p928
sg25
g167
sg26
S'NE'
p929
sg27
g45
sg28
S'41'
p930
sg29
g208
ssg101
(dp931
g5
S'1.0'
p932
sg7
g43
sg8
g33
sg9
g34
sg10
g33
sg11
g34
sg12
S'2013'
p933
sg14
g101
sg16
S'0.9'
p934
sg17
S'09/22'
p935
sg19
g34
sg20
S'C.J. Spiller'
p936
sg22
S'10'
p937
sg23
S'L20-27'
p938
sg24
g33
sg25
g33
sg26
S'@NYJ'
p939
sg27
g33
sg28
g208
sg29
g204
ssg43
(dp940
g5
S'4.7'
p941
sg7
S'--'
p942
sg8
g33
sg9
S'--'
p943
sg10
g33
sg11
g34
sg12
S'2013'
p944
sg14
g43
sg16
S'6.4'
p945
sg17
S'09/15'
p946
sg19
g34
sg20
S'C.J. Spiller'
p947
sg22
S'16'
p948
sg23
S'W24-23'
p949
sg24
S'14'
p950
sg25
g101
sg26
S'CAR'
p951
sg27
g45
sg28
S'103'
p952
sg29
S'46'
p953
ssg167
(dp954
g5
S'--'
p955
sg7
S'--'
p956
sg8
g34
sg9
S'--'
p957
sg10
g33
sg11
S'--'
p958
sg12
S'2013'
p959
sg14
g167
sg16
S'8.3'
p960
sg17
S'10/03'
p961
sg19
g33
sg20
S'C.J. Spiller'
p962
sg22
g40
sg23
S'L24-37'
p963
sg24
S'--'
p964
sg25
S'--'
p965
sg26
S'@CLE'
p966
sg27
S'--'
p967
sg28
S'66'
p968
sg29
S'54T'
p969
ssg154
(dp970
g5
S'--'
p971
sg7
S'--'
p972
sg8
g33
sg9
S'--'
p973
sg10
g33
sg11
S'--'
p974
sg12
S'2013'
p975
sg14
g154
sg16
S'3.3'
p976
sg17
S'09/29'
p977
sg19
g34
sg20
S'C.J. Spiller'
p978
sg22
S'23'
p979
sg23
S'W23-20'
p980
sg24
S'--'
p981
sg25
S'--'
p982
sg26
S'BAL'
p983
sg27
S'--'
p984
sg28
S'77'
p985
sg29
S'10'
p986
ssg45
(dp987
g5
S'-1.3'
p988
sg7
S'--'
p989
sg8
g34
sg9
S'--'
p990
sg10
g33
sg11
g34
sg12
S'2013'
p991
sg14
g45
sg16
S'1.8'
p992
sg17
S'10/20'
p993
sg19
g34
sg20
S'C.J. Spiller'
p994
sg22
g204
sg23
S'W23-21'
p995
sg24
S'-4'
p996
sg25
g101
sg26
S'@MIA'
p997
sg27
g33
sg28
S'11'
p998
sg29
S'11'
p999
ssg204
(dp1000
g5
S'5.5'
p1001
sg7
S'--'
p1002
sg8
g34
sg9
S'--'
p1003
sg10
g33
sg11
g34
sg12
S'2013'
p1004
sg14
g204
sg16
S'5.5'
p1005
sg17
S'10/13'
p1006
sg19
g34
sg20
S'C.J. Spiller'
p1007
sg22
S'10'
p1008
sg23
S'L24-27'
p1009
sg24
S'11'
p1010
sg25
g43
sg26
S'CIN'
p1011
sg27
g40
sg28
S'55'
p1012
sg29
S'19'
p1013
ssg208
(dp1014
g5
S'19.5'
p1015
sg7
S'--'
p1016
sg8
g34
sg9
S'--'
p1017
sg10
g33
sg11
g34
sg12
S'2013'
p1018
sg14
g208
sg16
S'9.7'
p1019
sg17
S'11/03'
p1020
sg19
g34
sg20
S'C.J. Spiller'
p1021
sg22
S'12'
p1022
sg23
S'L13-23'
p1023
sg24
S'39'
p1024
sg25
g43
sg26
S'KC'
p1025
sg27
S'27'
p1026
sg28
S'116'
p1027
sg29
S'61'
p1028
ssg40
(dp1029
g5
S'--'
p1030
sg7
S'--'
p1031
sg8
g34
sg9
S'--'
p1032
sg10
g34
sg11
S'--'
p1033
sg12
S'2013'
p1034
sg14
g40
sg16
S'--'
p1035
sg17
S'10/27'
p1036
sg19
S'--'
p1037
sg20
S'C.J. Spiller'
p1038
sg22
S'--'
p1039
sg23
S'L17-35'
p1040
sg24
S'--'
p1041
sg25
S'--'
p1042
sg26
S'@NO'
p1043
sg27
S'--'
p1044
sg28
S'--'
p1045
sg29
S'--'
p1046
sssS'2012'
p1047
(dp1048
g3
(dp1049
g5
S'13.0'
p1050
sg7
S'--'
p1051
sg8
g33
sg9
S'--'
p1052
sg10
g33
sg11
g34
sg12
S'2012'
p1053
sg14
S'11'
p1054
sg16
S'4.1'
p1055
sg17
S'11/15'
p1056
sg19
g34
sg20
S'C.J. Spiller'
p1057
sg22
S'22'
p1058
sg23
S'W19-14'
p1059
sg24
S'39'
p1060
sg25
g101
sg26
S'MIA'
p1061
sg27
S'24'
p1062
sg28
S'91'
p1063
sg29
S'20'
p1064
ssg30
(dp1065
g5
S'15.3'
p1066
sg7
S'--'
p1067
sg8
g34
sg9
S'--'
p1068
sg10
g33
sg11
g34
sg12
S'2012'
p1069
sg14
S'10'
p1070
sg16
S'7.8'
p1071
sg17
S'11/11'
p1072
sg19
g34
sg20
S'C.J. Spiller'
p1073
sg22
g208
sg23
S'L31-37'
p1074
sg24
S'61'
p1075
sg25
g154
sg26
S'@NE'
p1076
sg27
S'25'
p1077
sg28
S'70'
p1078
sg29
S'14'
p1079
ssg47
(dp1080
g5
S'7.0'
p1081
sg7
S'--'
p1082
sg8
g33
sg9
S'--'
p1083
sg10
g33
sg11
g34
sg12
S'2012'
p1084
sg14
S'13'
p1085
sg16
S'5.5'
p1086
sg17
S'12/02'
p1087
sg19
g33
sg20
S'C.J. Spiller'
p1088
sg22
S'14'
p1089
sg23
S'W34-18'
p1090
sg24
g45
sg25
g33
sg26
S'JAC'
p1091
sg27
g45
sg28
S'77'
p1092
sg29
S'44T'
p1093
ssg63
(dp1094
g5
S'-4.0'
p1095
sg7
S'--'
p1096
sg8
g33
sg9
S'--'
p1097
sg10
g33
sg11
g34
sg12
S'2012'
p1098
sg14
S'12'
p1099
sg16
S'7.6'
p1100
sg17
S'11/25'
p1101
sg19
g34
sg20
S'C.J. Spiller'
p1102
sg22
S'14'
p1103
sg23
S'L13-20'
p1104
sg24
S'-4'
p1105
sg25
g33
sg26
S'@IND'
p1106
sg27
S'-4'
p1107
sg28
S'107'
p1108
sg29
S'41'
p1109
ssg77
(dp1110
g5
S'-0.7'
p1111
sg7
S'--'
p1112
sg8
g33
sg9
S'--'
p1113
sg10
g33
sg11
g34
sg12
S'2012'
p1114
sg14
S'15'
p1115
sg16
S'6.1'
p1116
sg17
S'12/16'
p1117
sg19
g33
sg20
S'C.J. Spiller'
p1118
sg22
S'17'
p1119
sg23
S'L17-50'
p1120
sg24
S'-2'
p1121
sg25
g101
sg26
S'SEA'
p1122
sg27
g204
sg28
S'103'
p1123
sg29
S'18'
p1124
ssg91
(dp1125
g5
S'15.0'
p1126
sg7
S'--'
p1127
sg8
g33
sg9
S'--'
p1128
sg10
g33
sg11
g34
sg12
S'2012'
p1129
sg14
S'14'
p1130
sg16
S'5.3'
p1131
sg17
S'12/09'
p1132
sg19
g34
sg20
S'C.J. Spiller'
p1133
sg22
g45
sg23
S'L12-15'
p1134
sg24
S'15'
p1135
sg25
g33
sg26
S'STL'
p1136
sg27
S'15'
p1137
sg28
S'37'
p1138
sg29
S'13'
p1139
ssg247
(dp1140
g5
S'36.0'
p1141
sg7
g33
sg8
g33
sg9
g33
sg10
g33
sg11
g33
sg12
S'2012'
p1142
sg14
S'17'
p1143
sg16
S'2.5'
p1144
sg17
S'12/30'
p1145
sg19
g34
sg20
S'C.J. Spiller'
p1146
sg22
S'24'
p1147
sg23
S'W28-9'
p1148
sg24
S'72'
p1149
sg25
g43
sg26
S'NYJ'
p1150
sg27
S'66T'
p1151
sg28
S'59'
p1152
sg29
S'12'
p1153
ssg104
(dp1154
g5
S'8.8'
p1155
sg7
S'--'
p1156
sg8
g33
sg9
S'--'
p1157
sg10
g33
sg11
g34
sg12
S'2012'
p1158
sg14
S'16'
p1159
sg16
S'6.3'
p1160
sg17
S'12/23'
p1161
sg19
g34
sg20
S'C.J. Spiller'
p1162
sg22
S'22'
p1163
sg23
S'L10-24'
p1164
sg24
S'35'
p1165
sg25
g154
sg26
S'@MIA'
p1166
sg27
S'14'
p1167
sg28
S'138'
p1168
sg29
S'62'
p1169
ssg33
(dp1170
g5
S'12.5'
p1171
sg7
g33
sg8
g34
sg9
g33
sg10
g33
sg11
g34
sg12
S'2012'
p1172
sg14
g33
sg16
S'12.1'
p1173
sg17
S'09/09'
p1174
sg19
g33
sg20
S'C.J. Spiller'
p1175
sg22
S'14'
p1176
sg23
S'L28-48'
p1177
sg24
S'25'
p1178
sg25
g43
sg26
S'@NYJ'
p1179
sg27
S'30'
p1180
sg28
S'169'
p1181
sg29
S'56T'
p1182
ssg101
(dp1183
g5
S'21.0'
p1184
sg7
S'--'
p1185
sg8
g33
sg9
S'--'
p1186
sg10
g33
sg11
g33
sg12
S'2012'
p1187
sg14
g101
sg16
S'4.0'
p1188
sg17
S'09/23'
p1189
sg19
g34
sg20
S'C.J. Spiller'
p1190
sg22
g154
sg23
S'W24-14'
p1191
sg24
S'42'
p1192
sg25
g43
sg26
S'@CLE'
p1193
sg27
S'32T'
p1194
sg28
S'16'
p1195
sg29
g40
ssg43
(dp1196
g5
S'15.7'
p1197
sg7
S'--'
p1198
sg8
g33
sg9
S'--'
p1199
sg10
g33
sg11
g34
sg12
S'2012'
p1200
sg14
g43
sg16
S'8.2'
p1201
sg17
S'09/16'
p1202
sg19
g43
sg20
S'C.J. Spiller'
p1203
sg22
S'15'
p1204
sg23
S'W35-17'
p1205
sg24
S'47'
p1206
sg25
g101
sg26
S'KC'
p1207
sg27
S'27'
p1208
sg28
S'123'
p1209
sg29
S'38'
p1210
ssg167
(dp1211
g5
S'--'
p1212
sg7
S'--'
p1213
sg8
g34
sg9
S'--'
p1214
sg10
g33
sg11
g34
sg12
S'2012'
p1215
sg14
g167
sg16
S'3.4'
p1216
sg17
S'10/07'
p1217
sg19
g34
sg20
S'C.J. Spiller'
p1218
sg22
g45
sg23
S'L3-45'
p1219
sg24
g34
sg25
g34
sg26
S'@SF'
p1220
sg27
S'--'
p1221
sg28
S'24'
p1222
sg29
S'12'
p1223
ssg154
(dp1224
g5
S'2.5'
p1225
sg7
g33
sg8
g34
sg9
g33
sg10
g33
sg11
g34
sg12
S'2012'
p1226
sg14
g154
sg16
S'4.1'
p1227
sg17
S'09/30'
p1228
sg19
g34
sg20
S'C.J. Spiller'
p1229
sg22
g40
sg23
S'L28-52'
p1230
sg24
g167
sg25
g43
sg26
S'NE'
p1231
sg27
g101
sg28
S'33'
p1232
sg29
S'14'
p1233
ssg45
(dp1234
g5
S'5.3'
p1235
sg7
S'--'
p1236
sg8
g34
sg9
S'--'
p1237
sg10
g33
sg11
g34
sg12
S'2012'
p1238
sg14
g45
sg16
S'5.8'
p1239
sg17
S'10/21'
p1240
sg19
g34
sg20
S'C.J. Spiller'
p1241
sg22
S'12'
p1242
sg23
S'L34-35'
p1243
sg24
S'32'
p1244
sg25
g204
sg26
S'TEN'
p1245
sg27
S'20'
p1246
sg28
S'70'
p1247
sg29
S'20'
p1248
ssg204
(dp1249
g5
S'5.5'
p1250
sg7
S'--'
p1251
sg8
g34
sg9
S'--'
p1252
sg10
g33
sg11
g34
sg12
S'2012'
p1253
sg14
g204
sg16
S'7.3'
p1254
sg17
S'10/14'
p1255
sg19
g33
sg20
S'C.J. Spiller'
p1256
sg22
S'12'
p1257
sg23
S'W19-16'
p1258
sg24
S'22'
p1259
sg25
g154
sg26
S'@ARI'
p1260
sg27
S'11'
p1261
sg28
S'88'
p1262
sg29
S'33'
p1263
ssg208
(dp1264
g5
S'12.6'
p1265
sg7
S'--'
p1266
sg8
g34
sg9
S'--'
p1267
sg10
g33
sg11
g34
sg12
S'2012'
p1268
sg14
g208
sg16
S'6.5'
p1269
sg17
S'11/04'
p1270
sg19
g34
sg20
S'C.J. Spiller'
p1271
sg22
g204
sg23
S'L9-21'
p1272
sg24
S'63'
p1273
sg25
g167
sg26
S'@HOU'
p1274
sg27
S'28'
p1275
sg28
S'39'
p1276
sg29
S'22'
p1277
ssg40
(dp1278
g5
g6
sg7
g6
sg8
g6
sg9
g6
sg10
g6
sg11
g6
sg12
S'2012'
p1279
sg14
g40
sg16
g6
sg17
S'Bye'
p1280
sg19
g6
sg20
S'C.J. Spiller'
p1281
sg22
g6
sg23
g6
sg24
g6
sg25
g6
sg26
g6
sg27
g6
sg28
g6
sg29
g6
sss.