(dp0
S'2015'
p1
(dp2
S'11'
p3
(dp4
S'RecAvg'
p5
S'--'
p6
sS'FUM'
p7
S'--'
p8
sS'GS'
p9
S'0'
p10
sS'Lost'
p11
S'--'
p12
sS'G'
p13
g10
sS'RecTD'
p14
S'--'
p15
sS'Year'
p16
S'2015'
p17
sS'WK'
p18
S'11'
p19
sS'RushAvg'
p20
S'--'
p21
sS'Game Date'
p22
S'11/22'
p23
sS'RushTD'
p24
S'--'
p25
sS'Player'
p26
S'Cameron Artis-Payne'
p27
sS'RushAtt'
p28
S'--'
p29
sS'Result'
p30
S'W44-16'
p31
sS'RecYds'
p32
S'--'
p33
sS'Rec'
p34
S'--'
p35
sS'Opp'
p36
S'WAS'
p37
sS'RecLng'
p38
S'--'
p39
sS'RushYds'
p40
S'--'
p41
sS'RushLng'
p42
S'--'
p43
ssS'10'
p44
(dp45
g5
S'--'
p46
sg7
S'--'
p47
sg9
g10
sg11
S'--'
p48
sg13
g10
sg14
S'--'
p49
sg16
S'2015'
p50
sg18
S'10'
p51
sg20
S'--'
p52
sg22
S'11/15'
p53
sg24
S'--'
p54
sg26
S'Cameron Artis-Payne'
p55
sg28
S'--'
p56
sg30
S'W27-10'
p57
sg32
S'--'
p58
sg34
S'--'
p59
sg36
S'@TEN'
p60
sg38
S'--'
p61
sg40
S'--'
p62
sg42
S'--'
p63
ssS'13'
p64
(dp65
g5
S'--'
p66
sg7
S'--'
p67
sg9
g10
sg11
S'--'
p68
sg13
g10
sg14
S'--'
p69
sg16
S'2015'
p70
sg18
S'13'
p71
sg20
S'--'
p72
sg22
S'12/06'
p73
sg24
S'--'
p74
sg26
S'Cameron Artis-Payne'
p75
sg28
S'--'
p76
sg30
S'W41-38'
p77
sg32
S'--'
p78
sg34
S'--'
p79
sg36
S'@NO'
p80
sg38
S'--'
p81
sg40
S'--'
p82
sg42
S'--'
p83
ssS'12'
p84
(dp85
g5
S'--'
p86
sg7
S'--'
p87
sg9
g10
sg11
S'--'
p88
sg13
g10
sg14
S'--'
p89
sg16
S'2015'
p90
sg18
S'12'
p91
sg20
S'--'
p92
sg22
S'11/26'
p93
sg24
S'--'
p94
sg26
S'Cameron Artis-Payne'
p95
sg28
S'--'
p96
sg30
S'W33-14'
p97
sg32
S'--'
p98
sg34
S'--'
p99
sg36
S'@DAL'
p100
sg38
S'--'
p101
sg40
S'--'
p102
sg42
S'--'
p103
ssS'15'
p104
(dp105
g5
S'17.0'
p106
sg7
S'--'
p107
sg9
g10
sg11
S'--'
p108
sg13
S'1'
p109
sg14
g10
sg16
S'2015'
p110
sg18
S'15'
p111
sg20
S'4.2'
p112
sg22
S'12/20'
p113
sg24
g10
sg26
S'Cameron Artis-Payne'
p114
sg28
S'14'
p115
sg30
S'W38-35'
p116
sg32
S'34'
p117
sg34
S'2'
p118
sg36
S'@NYG'
p119
sg38
S'20'
p120
sg40
S'59'
p121
sg42
S'26'
p122
ssS'14'
p123
(dp124
g5
S'--'
p125
sg7
S'--'
p126
sg9
g10
sg11
S'--'
p127
sg13
g10
sg14
S'--'
p128
sg16
S'2015'
p129
sg18
S'14'
p130
sg20
S'--'
p131
sg22
S'12/13'
p132
sg24
S'--'
p133
sg26
S'Cameron Artis-Payne'
p134
sg28
S'--'
p135
sg30
S'W38-0'
p136
sg32
S'--'
p137
sg34
S'--'
p138
sg36
S'ATL'
p139
sg38
S'--'
p140
sg40
S'--'
p141
sg42
S'--'
p142
ssS'17'
p143
(dp144
g5
S'8.5'
p145
sg7
S'--'
p146
sg9
g10
sg11
S'--'
p147
sg13
g109
sg14
g10
sg16
S'2015'
p148
sg18
S'17'
p149
sg20
S'3.1'
p150
sg22
S'01/03'
p151
sg24
g109
sg26
S'Cameron Artis-Payne'
p152
sg28
S'14'
p153
sg30
S'W38-10'
p154
sg32
S'17'
p155
sg34
g118
sg36
S'TB'
p156
sg38
S'12'
p157
sg40
S'44'
p158
sg42
S'11T'
p159
ssS'16'
p160
(dp161
g5
S'7.0'
p162
sg7
S'--'
p163
sg9
g10
sg11
S'--'
p164
sg13
g109
sg14
g10
sg16
S'2015'
p165
sg18
S'16'
p166
sg20
S'9.8'
p167
sg22
S'12/27'
p168
sg24
g10
sg26
S'Cameron Artis-Payne'
p169
sg28
S'5'
p170
sg30
S'L13-20'
p171
sg32
S'7'
p172
sg34
g109
sg36
S'@ATL'
p173
sg38
g172
sg40
S'49'
p174
sg42
S'31'
p175
ssg109
(dp176
g5
S'--'
p177
sg7
S'--'
p178
sg9
g10
sg11
S'--'
p179
sg13
g109
sg14
S'--'
p180
sg16
S'2015'
p181
sg18
g109
sg20
S'--'
p182
sg22
S'09/13'
p183
sg24
S'--'
p184
sg26
S'Cameron Artis-Payne'
p185
sg28
S'--'
p186
sg30
S'W20-9'
p187
sg32
S'--'
p188
sg34
S'--'
p189
sg36
S'@JAC'
p190
sg38
S'--'
p191
sg40
S'--'
p192
sg42
S'--'
p193
ssS'3'
p194
(dp195
g5
S'--'
p196
sg7
S'--'
p197
sg9
g10
sg11
S'--'
p198
sg13
g109
sg14
S'--'
p199
sg16
S'2015'
p200
sg18
g194
sg20
S'2.0'
p201
sg22
S'09/27'
p202
sg24
g10
sg26
S'Cameron Artis-Payne'
p203
sg28
g194
sg30
S'W27-22'
p204
sg32
S'--'
p205
sg34
S'--'
p206
sg36
S'NO'
p207
sg38
S'--'
p208
sg40
S'6'
p209
sg42
S'4'
p210
ssg118
(dp211
g5
S'--'
p212
sg7
S'--'
p213
sg9
g10
sg11
S'--'
p214
sg13
g10
sg14
S'--'
p215
sg16
S'2015'
p216
sg18
g118
sg20
S'--'
p217
sg22
S'09/20'
p218
sg24
S'--'
p219
sg26
S'Cameron Artis-Payne'
p220
sg28
S'--'
p221
sg30
S'W24-17'
p222
sg32
S'--'
p223
sg34
S'--'
p224
sg36
S'HOU'
p225
sg38
S'--'
p226
sg40
S'--'
p227
sg42
S'--'
p228
ssg170
(dp229
g5
S''
p230
sg7
g230
sg9
g230
sg11
g230
sg13
g230
sg14
g230
sg16
S'2015'
p231
sg18
g170
sg20
g230
sg22
S'Bye'
p232
sg24
g230
sg26
S'Cameron Artis-Payne'
p233
sg28
g230
sg30
g230
sg32
g230
sg34
g230
sg36
g230
sg38
g230
sg40
g230
sg42
g230
ssg210
(dp234
g5
S'--'
p235
sg7
S'--'
p236
sg9
g10
sg11
S'--'
p237
sg13
g109
sg14
S'--'
p238
sg16
S'2015'
p239
sg18
g210
sg20
S'3.1'
p240
sg22
S'10/04'
p241
sg24
g10
sg26
S'Cameron Artis-Payne'
p242
sg28
S'8'
p243
sg30
S'W37-23'
p244
sg32
S'--'
p245
sg34
S'--'
p246
sg36
S'@TB'
p247
sg38
S'--'
p248
sg40
S'25'
p249
sg42
S'15'
p250
ssg172
(dp251
g5
S'--'
p252
sg7
S'--'
p253
sg9
g10
sg11
S'--'
p254
sg13
g109
sg14
S'--'
p255
sg16
S'2015'
p256
sg18
g172
sg20
S'0.0'
p257
sg22
S'10/25'
p258
sg24
g10
sg26
S'Cameron Artis-Payne'
p259
sg28
g109
sg30
S'W27-16'
p260
sg32
S'--'
p261
sg34
S'--'
p262
sg36
S'PHI'
p263
sg38
S'--'
p264
sg40
g10
sg42
g10
ssg209
(dp265
g5
S'--'
p266
sg7
S'--'
p267
sg9
g10
sg11
S'--'
p268
sg13
g10
sg14
S'--'
p269
sg16
S'2015'
p270
sg18
g209
sg20
S'--'
p271
sg22
S'10/18'
p272
sg24
S'--'
p273
sg26
S'Cameron Artis-Payne'
p274
sg28
S'--'
p275
sg30
S'W27-23'
p276
sg32
S'--'
p277
sg34
S'--'
p278
sg36
S'@SEA'
p279
sg38
S'--'
p280
sg40
S'--'
p281
sg42
S'--'
p282
ssS'9'
p283
(dp284
g5
S'--'
p285
sg7
S'--'
p286
sg9
g10
sg11
S'--'
p287
sg13
g10
sg14
S'--'
p288
sg16
S'2015'
p289
sg18
g283
sg20
S'--'
p290
sg22
S'11/08'
p291
sg24
S'--'
p292
sg26
S'Cameron Artis-Payne'
p293
sg28
S'--'
p294
sg30
S'W37-29'
p295
sg32
S'--'
p296
sg34
S'--'
p297
sg36
S'GB'
p298
sg38
S'--'
p299
sg40
S'--'
p300
sg42
S'--'
p301
ssg243
(dp302
g5
S'--'
p303
sg7
S'--'
p304
sg9
g10
sg11
S'--'
p305
sg13
g10
sg14
S'--'
p306
sg16
S'2015'
p307
sg18
g243
sg20
S'--'
p308
sg22
S'11/02'
p309
sg24
S'--'
p310
sg26
S'Cameron Artis-Payne'
p311
sg28
S'--'
p312
sg30
S'W29-26'
p313
sg32
S'--'
p314
sg34
S'--'
p315
sg36
S'IND'
p316
sg38
S'--'
p317
sg40
S'--'
p318
sg42
S'--'
p319
sss.