(dp0
S'2015'
p1
(dp2
S'11'
p3
(dp4
S'RecAvg'
p5
S'8.7'
p6
sS'FUM'
p7
S'--'
p8
sS'GS'
p9
S'0'
p10
sS'Lost'
p11
S'--'
p12
sS'G'
p13
S'1'
p14
sS'RecTD'
p15
g14
sS'Year'
p16
S'2015'
p17
sS'WK'
p18
S'11'
p19
sS'RushAvg'
p20
S'4.3'
p21
sS'Game Date'
p22
S'11/22'
p23
sS'RushTD'
p24
g10
sS'Player'
p25
S'Charles Sims'
p26
sS'RushAtt'
p27
S'10'
p28
sS'Result'
p29
S'W45-17'
p30
sS'RecYds'
p31
S'26'
p32
sS'Rec'
p33
S'3'
p34
sS'Opp'
p35
S'@PHI'
p36
sS'RecLng'
p37
S'14T'
p38
sS'RushYds'
p39
S'43'
p40
sS'RushLng'
p41
S'17'
p42
ssS'10'
p43
(dp44
g5
S'6.5'
p45
sg7
S'--'
p46
sg9
g10
sg11
S'--'
p47
sg13
g14
sg15
g10
sg16
S'2015'
p48
sg18
S'10'
p49
sg20
S'3.6'
p50
sg22
S'11/15'
p51
sg24
g10
sg25
S'Charles Sims'
p52
sg27
S'5'
p53
sg29
S'W10-6'
p54
sg31
S'13'
p55
sg33
S'2'
p56
sg35
S'DAL'
p57
sg37
S'7'
p58
sg39
S'18'
p59
sg41
S'9'
p60
ssS'13'
p61
(dp62
g5
S'10.5'
p63
sg7
S'--'
p64
sg9
g10
sg11
S'--'
p65
sg13
g14
sg15
g10
sg16
S'2015'
p66
sg18
S'13'
p67
sg20
S'8.0'
p68
sg22
S'12/06'
p69
sg24
g10
sg25
S'Charles Sims'
p70
sg27
g58
sg29
S'W23-19'
p71
sg31
S'21'
p72
sg33
g56
sg35
S'ATL'
p73
sg37
S'18'
p74
sg39
S'56'
p75
sg41
S'25'
p76
ssS'12'
p77
(dp78
g5
S'10.3'
p79
sg7
S'--'
p80
sg9
g10
sg11
S'--'
p81
sg13
g14
sg15
g10
sg16
S'2015'
p82
sg18
S'12'
p83
sg20
S'2.0'
p84
sg22
S'11/29'
p85
sg24
g10
sg25
S'Charles Sims'
p86
sg27
S'4'
p87
sg29
S'L12-25'
p88
sg31
S'31'
p89
sg33
g34
sg35
S'@IND'
p90
sg37
S'16'
p91
sg39
S'8'
p92
sg41
S'6'
p93
ssS'15'
p94
(dp95
g5
S'7.3'
p96
sg7
S'--'
p97
sg9
g10
sg11
S'--'
p98
sg13
g14
sg15
g10
sg16
S'2015'
p99
sg18
S'15'
p100
sg20
S'7.1'
p101
sg22
S'12/17'
p102
sg24
g10
sg25
S'Charles Sims'
p103
sg27
g58
sg29
S'L23-31'
p104
sg31
S'22'
p105
sg33
g34
sg35
S'@STL'
p106
sg37
S'19'
p107
sg39
S'50'
p108
sg41
S'35'
p109
ssS'14'
p110
(dp111
g5
S'10.7'
p112
sg7
S'--'
p113
sg9
g10
sg11
S'--'
p114
sg13
g14
sg15
g10
sg16
S'2015'
p115
sg18
S'14'
p116
sg20
S'2.0'
p117
sg22
S'12/13'
p118
sg24
g10
sg25
S'Charles Sims'
p119
sg27
g53
sg29
S'L17-24'
p120
sg31
S'64'
p121
sg33
g93
sg35
S'NO'
p122
sg37
S'14'
p123
sg39
S'10'
p124
sg41
g93
ssS'17'
p125
(dp126
g5
S'8.2'
p127
sg7
S'--'
p128
sg9
g10
sg11
S'--'
p129
sg13
g14
sg15
g10
sg16
S'2015'
p130
sg18
S'17'
p131
sg20
S'3.8'
p132
sg22
S'01/03'
p133
sg24
g10
sg25
S'Charles Sims'
p134
sg27
g87
sg29
S'L10-38'
p135
sg31
S'74'
p136
sg33
g60
sg35
S'@CAR'
p137
sg37
S'14'
p138
sg39
S'15'
p139
sg41
S'12'
p140
ssS'16'
p141
(dp142
g5
S'24.0'
p143
sg7
S'--'
p144
sg9
g10
sg11
S'--'
p145
sg13
g14
sg15
g14
sg16
S'2015'
p146
sg18
S'16'
p147
sg20
S'11.3'
p148
sg22
S'12/27'
p149
sg24
g10
sg25
S'Charles Sims'
p150
sg27
g87
sg29
S'L21-26'
p151
sg31
S'72'
p152
sg33
g34
sg35
S'CHI'
p153
sg37
S'50T'
p154
sg39
S'45'
p155
sg41
S'29'
p156
ssg14
(dp157
g5
S'11.5'
p158
sg7
S'--'
p159
sg9
g10
sg11
S'--'
p160
sg13
g14
sg15
g10
sg16
S'2015'
p161
sg18
g14
sg20
S'2.4'
p162
sg22
S'09/13'
p163
sg24
g10
sg25
S'Charles Sims'
p164
sg27
g53
sg29
S'L14-42'
p165
sg31
S'23'
p166
sg33
g56
sg35
S'TEN'
p167
sg37
S'18'
p168
sg39
S'12'
p169
sg41
g58
ssg34
(dp170
g5
S'20.5'
p171
sg7
S'--'
p172
sg9
g10
sg11
S'--'
p173
sg13
g14
sg15
g14
sg16
S'2015'
p174
sg18
g34
sg20
S'1.8'
p175
sg22
S'09/27'
p176
sg24
g10
sg25
S'Charles Sims'
p177
sg27
g93
sg29
S'L9-19'
p178
sg31
S'41'
p179
sg33
g56
sg35
S'@HOU'
p180
sg37
S'32T'
p181
sg39
S'11'
p182
sg41
g60
ssg56
(dp183
g5
S'4.7'
p184
sg7
S'--'
p185
sg9
g10
sg11
S'--'
p186
sg13
g14
sg15
g10
sg16
S'2015'
p187
sg18
g56
sg20
S'4.8'
p188
sg22
S'09/20'
p189
sg24
g10
sg25
S'Charles Sims'
p190
sg27
g92
sg29
S'W26-19'
p191
sg31
S'14'
p192
sg33
g34
sg35
S'@NO'
p193
sg37
S'12'
p194
sg39
S'38'
p195
sg41
S'12'
p196
ssg53
(dp197
g5
S'21.3'
p198
sg7
S'--'
p199
sg9
g10
sg11
S'--'
p200
sg13
g14
sg15
g10
sg16
S'2015'
p201
sg18
g53
sg20
S'4.3'
p202
sg22
S'10/11'
p203
sg24
g10
sg25
S'Charles Sims'
p204
sg27
S'12'
p205
sg29
S'W38-31'
p206
sg31
S'85'
p207
sg33
g87
sg35
S'JAC'
p208
sg37
S'56'
p209
sg39
S'51'
p210
sg41
S'15'
p211
ssg87
(dp212
g5
S'10.0'
p213
sg7
S'--'
p214
sg9
g10
sg11
S'--'
p215
sg13
g14
sg15
g14
sg16
S'2015'
p216
sg18
g87
sg20
S'3.8'
p217
sg22
S'10/04'
p218
sg24
g10
sg25
S'Charles Sims'
p219
sg27
g93
sg29
S'L23-37'
p220
sg31
S'30'
p221
sg33
g34
sg35
S'CAR'
p222
sg37
S'13'
p223
sg39
S'23'
p224
sg41
g58
ssg58
(dp225
g5
S'8.5'
p226
sg7
g14
sg9
g10
sg11
g14
sg13
g14
sg15
g10
sg16
S'2015'
p227
sg18
g58
sg20
S'4.9'
p228
sg22
S'10/25'
p229
sg24
g10
sg25
S'Charles Sims'
p230
sg27
S'10'
p231
sg29
S'L30-31'
p232
sg31
S'17'
p233
sg33
g56
sg35
S'@WAS'
p234
sg37
g60
sg39
S'49'
p235
sg41
S'13'
p236
ssg93
(dp237
g5
S''
p238
sg7
g238
sg9
g238
sg11
g238
sg13
g238
sg15
g238
sg16
S'2015'
p239
sg18
g93
sg20
g238
sg22
S'Bye'
p240
sg24
g238
sg25
S'Charles Sims'
p241
sg27
g238
sg29
g238
sg31
g238
sg33
g238
sg35
g238
sg37
g238
sg39
g238
sg41
g238
ssg60
(dp242
g5
S'4.0'
p243
sg7
g14
sg9
g10
sg11
g14
sg13
g14
sg15
g10
sg16
S'2015'
p244
sg18
g60
sg20
S'9.8'
p245
sg22
S'11/08'
p246
sg24
g10
sg25
S'Charles Sims'
p247
sg27
g92
sg29
S'L18-32'
p248
sg31
g87
sg33
g14
sg35
S'NYG'
p249
sg37
g87
sg39
S'78'
p250
sg41
S'59'
p251
ssg92
(dp252
g5
S'8.0'
p253
sg7
S'--'
p254
sg9
g10
sg11
S'--'
p255
sg13
g14
sg15
g10
sg16
S'2015'
p256
sg18
g92
sg20
S'3.7'
p257
sg22
S'11/01'
p258
sg24
g10
sg25
S'Charles Sims'
p259
sg27
g93
sg29
S'W23-20'
p260
sg31
S'24'
p261
sg33
g34
sg35
S'@ATL'
p262
sg37
S'13'
p263
sg39
S'22'
p264
sg41
g58
sssS'2014'
p265
(dp266
g3
(dp267
g5
S'2.7'
p268
sg7
S'--'
p269
sg9
g10
sg11
S'--'
p270
sg13
g14
sg15
g10
sg16
S'2014'
p271
sg18
S'11'
p272
sg20
S'2.8'
p273
sg22
S'11/16'
p274
sg24
g10
sg25
S'Charles Sims'
p275
sg27
S'13'
p276
sg29
S'W27-7'
p277
sg31
g92
sg33
g34
sg35
S'@WAS'
p278
sg37
g87
sg39
S'36'
p279
sg41
S'12'
p280
ssg43
(dp281
g5
S'8.5'
p282
sg7
g14
sg9
g10
sg11
g14
sg13
g14
sg15
g10
sg16
S'2014'
p283
sg18
S'10'
p284
sg20
S'2.9'
p285
sg22
S'11/09'
p286
sg24
g10
sg25
S'Charles Sims'
p287
sg27
g92
sg29
S'L17-27'
p288
sg31
S'17'
p289
sg33
g56
sg35
S'ATL'
p290
sg37
S'13'
p291
sg39
S'23'
p292
sg41
g93
ssg61
(dp293
g5
S'12.3'
p294
sg7
S'--'
p295
sg9
g10
sg11
S'--'
p296
sg13
g14
sg15
g10
sg16
S'2014'
p297
sg18
S'13'
p298
sg20
S'1.2'
p299
sg22
S'11/30'
p300
sg24
g10
sg25
S'Charles Sims'
p301
sg27
g53
sg29
S'L13-14'
p302
sg31
S'49'
p303
sg33
g87
sg35
S'CIN'
p304
sg37
S'21'
p305
sg39
g93
sg41
g53
ssg77
(dp306
g5
S'5.5'
p307
sg7
S'--'
p308
sg9
g10
sg11
S'--'
p309
sg13
g14
sg15
g10
sg16
S'2014'
p310
sg18
S'12'
p311
sg20
S'3.7'
p312
sg22
S'11/23'
p313
sg24
g10
sg25
S'Charles Sims'
p314
sg27
g93
sg29
S'L13-21'
p315
sg31
S'11'
p316
sg33
g56
sg35
S'@CHI'
p317
sg37
g60
sg39
S'22'
p318
sg41
S'10'
p319
ssg94
(dp320
g5
S'15.0'
p321
sg7
g14
sg9
g10
sg11
g10
sg13
g14
sg15
g10
sg16
S'2014'
p322
sg18
S'15'
p323
sg20
S'4.9'
p324
sg22
S'12/14'
p325
sg24
g10
sg25
S'Charles Sims'
p326
sg27
g58
sg29
S'L17-19'
p327
sg31
S'45'
p328
sg33
g34
sg35
S'@CAR'
p329
sg37
S'19'
p330
sg39
S'34'
p331
sg41
S'18'
p332
ssg110
(dp333
g5
S'24.0'
p334
sg7
S'--'
p335
sg9
g10
sg11
S'--'
p336
sg13
g14
sg15
g10
sg16
S'2014'
p337
sg18
S'14'
p338
sg20
S'-0.8'
p339
sg22
S'12/07'
p340
sg24
g10
sg25
S'Charles Sims'
p341
sg27
g53
sg29
S'L17-34'
p342
sg31
S'24'
p343
sg33
g14
sg35
S'@DET'
p344
sg37
S'24'
p345
sg39
S'-4'
p346
sg41
g34
ssg125
(dp347
g5
S'6.0'
p348
sg7
S'--'
p349
sg9
g10
sg11
S'--'
p350
sg13
g14
sg15
g10
sg16
S'2014'
p351
sg18
S'17'
p352
sg20
S'3.8'
p353
sg22
S'12/28'
p354
sg24
g14
sg25
S'Charles Sims'
p355
sg27
S'18'
p356
sg29
S'L20-23'
p357
sg31
g93
sg33
g14
sg35
S'NO'
p358
sg37
g93
sg39
S'69'
p359
sg41
S'20'
p360
ssg141
(dp361
g5
S'10.0'
p362
sg7
S'--'
p363
sg9
g10
sg11
S'--'
p364
sg13
g14
sg15
g10
sg16
S'2014'
p365
sg18
S'16'
p366
sg20
S'-0.3'
p367
sg22
S'12/21'
p368
sg24
g10
sg25
S'Charles Sims'
p369
sg27
g87
sg29
S'L3-20'
p370
sg31
S'30'
p371
sg33
g34
sg35
S'GB'
p372
sg37
S'18'
p373
sg39
S'-1'
p374
sg41
g14
ssg60
(dp375
g5
S'--'
p376
sg7
S'--'
p377
sg9
g10
sg11
S'--'
p378
sg13
g10
sg15
S'--'
p379
sg16
S'2014'
p380
sg18
g60
sg20
S'--'
p381
sg22
S'11/02'
p382
sg24
S'--'
p383
sg25
S'Charles Sims'
p384
sg27
S'--'
p385
sg29
S'L17-22'
p386
sg31
S'--'
p387
sg33
S'--'
p388
sg35
S'@CLE'
p389
sg37
S'--'
p390
sg39
S'--'
p391
sg41
S'--'
p392
sss.