(dp0
S'2015'
p1
(dp2
S'11'
p3
(dp4
S'RecAvg'
p5
S'24.0'
p6
sS'FUM'
p7
S'--'
p8
sS'GS'
p9
S'1'
p10
sS'Lost'
p11
S'--'
p12
sS'G'
p13
g10
sS'RecTD'
p14
S'0'
p15
sS'Year'
p16
S'2015'
p17
sS'WK'
p18
S'11'
p19
sS'RushAvg'
p20
S'1.5'
p21
sS'Game Date'
p22
S'11/22'
p23
sS'RushTD'
p24
g15
sS'Player'
p25
S'Charcandrick West'
p26
sS'RushAtt'
p27
S'11'
p28
sS'Result'
p29
S'W33-3'
p30
sS'RecYds'
p31
S'48'
p32
sS'Rec'
p33
S'2'
p34
sS'Opp'
p35
S'@SD'
p36
sS'RecLng'
p37
S'47'
p38
sS'RushYds'
p39
S'16'
p40
sS'RushLng'
p41
S'6'
p42
ssS'10'
p43
(dp44
g5
S'30.7'
p45
sg7
S'--'
p46
sg9
g10
sg11
S'--'
p47
sg13
g10
sg14
g10
sg16
S'2015'
p48
sg18
S'10'
p49
sg20
S'2.9'
p50
sg22
S'11/15'
p51
sg24
g10
sg25
S'Charcandrick West'
p52
sg27
S'24'
p53
sg29
S'W29-13'
p54
sg31
S'92'
p55
sg33
S'3'
p56
sg35
S'@DEN'
p57
sg37
S'80T'
p58
sg39
S'69'
p59
sg41
S'15'
p60
ssS'13'
p61
(dp62
g5
S'4.5'
p63
sg7
S'--'
p64
sg9
g10
sg11
S'--'
p65
sg13
g10
sg14
g15
sg16
S'2015'
p66
sg18
S'13'
p67
sg20
S'3.9'
p68
sg22
S'12/06'
p69
sg24
g15
sg25
S'Charcandrick West'
p70
sg27
S'9'
p71
sg29
S'W34-20'
p72
sg31
g71
sg33
g34
sg35
S'@OAK'
p73
sg37
S'7'
p74
sg39
S'35'
p75
sg41
S'18'
p76
ssS'12'
p77
(dp78
g5
S'--'
p79
sg7
S'--'
p80
sg9
g15
sg11
S'--'
p81
sg13
g15
sg14
S'--'
p82
sg16
S'2015'
p83
sg18
S'12'
p84
sg20
S'--'
p85
sg22
S'11/29'
p86
sg24
S'--'
p87
sg25
S'Charcandrick West'
p88
sg27
S'--'
p89
sg29
S'W30-22'
p90
sg31
S'--'
p91
sg33
S'--'
p92
sg35
S'BUF'
p93
sg37
S'--'
p94
sg39
S'--'
p95
sg41
S'--'
p96
ssS'15'
p97
(dp98
g5
S'4.5'
p99
sg7
S'--'
p100
sg9
g10
sg11
S'--'
p101
sg13
g10
sg14
g15
sg16
S'2015'
p102
sg18
S'15'
p103
sg20
S'4.8'
p104
sg22
S'12/20'
p105
sg24
g10
sg25
S'Charcandrick West'
p106
sg27
S'16'
p107
sg29
S'W34-14'
p108
sg31
g71
sg33
g34
sg35
S'@BAL'
p109
sg37
S'12'
p110
sg39
S'76'
p111
sg41
S'38T'
p112
ssS'14'
p113
(dp114
g5
S'--'
p115
sg7
S'--'
p116
sg9
g15
sg11
S'--'
p117
sg13
g10
sg14
S'--'
p118
sg16
S'2015'
p119
sg18
S'14'
p120
sg20
S'5.4'
p121
sg22
S'12/13'
p122
sg24
g15
sg25
S'Charcandrick West'
p123
sg27
S'10'
p124
sg29
S'W10-3'
p125
sg31
S'--'
p126
sg33
S'--'
p127
sg35
S'SD'
p128
sg37
S'--'
p129
sg39
S'54'
p130
sg41
S'15'
p131
ssS'17'
p132
(dp133
g5
S'-2.0'
p134
sg7
S'--'
p135
sg9
g10
sg11
S'--'
p136
sg13
g10
sg14
g15
sg16
S'2015'
p137
sg18
S'17'
p138
sg20
S'2.6'
p139
sg22
S'01/03'
p140
sg24
g15
sg25
S'Charcandrick West'
p141
sg27
S'13'
p142
sg29
S'W23-17'
p143
sg31
S'-2'
p144
sg33
g10
sg35
S'OAK'
p145
sg37
S'-2'
p146
sg39
S'34'
p147
sg41
S'13'
p148
ssS'16'
p149
(dp150
g5
S'-1.0'
p151
sg7
S'--'
p152
sg9
g10
sg11
S'--'
p153
sg13
g10
sg14
g15
sg16
S'2015'
p154
sg18
S'16'
p155
sg20
S'4.4'
p156
sg22
S'12/27'
p157
sg24
g15
sg25
S'Charcandrick West'
p158
sg27
S'14'
p159
sg29
S'W17-13'
p160
sg31
S'-1'
p161
sg33
g10
sg35
S'CLE'
p162
sg37
S'-1'
p163
sg39
S'62'
p164
sg41
S'22'
p165
ssg10
(dp166
g5
S'--'
p167
sg7
S'--'
p168
sg9
g15
sg11
S'--'
p169
sg13
g10
sg14
S'--'
p170
sg16
S'2015'
p171
sg18
g10
sg20
S'--'
p172
sg22
S'09/13'
p173
sg24
S'--'
p174
sg25
S'Charcandrick West'
p175
sg27
S'--'
p176
sg29
S'W27-20'
p177
sg31
S'--'
p178
sg33
S'--'
p179
sg35
S'@HOU'
p180
sg37
S'--'
p181
sg39
S'--'
p182
sg41
S'--'
p183
ssg56
(dp184
g5
S'--'
p185
sg7
S'--'
p186
sg9
g15
sg11
S'--'
p187
sg13
g10
sg14
g15
sg16
S'2015'
p188
sg18
g56
sg20
S'--'
p189
sg22
S'09/28'
p190
sg24
S'--'
p191
sg25
S'Charcandrick West'
p192
sg27
S'--'
p193
sg29
S'L28-38'
p194
sg31
g15
sg33
g15
sg35
S'@GB'
p195
sg37
S'--'
p196
sg39
S'--'
p197
sg41
S'--'
p198
ssg34
(dp199
g5
S'--'
p200
sg7
S'--'
p201
sg9
g15
sg11
S'--'
p202
sg13
g10
sg14
S'--'
p203
sg16
S'2015'
p204
sg18
g34
sg20
S'--'
p205
sg22
S'09/17'
p206
sg24
S'--'
p207
sg25
S'Charcandrick West'
p208
sg27
S'--'
p209
sg29
S'L24-31'
p210
sg31
S'--'
p211
sg33
S'--'
p212
sg35
S'DEN'
p213
sg37
S'--'
p214
sg39
S'--'
p215
sg41
S'--'
p216
ssS'5'
p217
(dp218
g5
S'5.0'
p219
sg7
S'--'
p220
sg9
g15
sg11
S'--'
p221
sg13
g10
sg14
g15
sg16
S'2015'
p222
sg18
g217
sg20
S'4.4'
p223
sg22
S'10/11'
p224
sg24
g15
sg25
S'Charcandrick West'
p225
sg27
g74
sg29
S'L17-18'
p226
sg31
g217
sg33
g10
sg35
S'CHI'
p227
sg37
g217
sg39
S'31'
p228
sg41
g71
ssS'4'
p229
(dp230
g5
S'4.0'
p231
sg7
S'--'
p232
sg9
g15
sg11
S'--'
p233
sg13
g10
sg14
g15
sg16
S'2015'
p234
sg18
g229
sg20
S'3.4'
p235
sg22
S'10/04'
p236
sg24
g15
sg25
S'Charcandrick West'
p237
sg27
g217
sg29
S'L21-36'
p238
sg31
g229
sg33
g10
sg35
S'@CIN'
p239
sg37
g229
sg39
S'17'
p240
sg41
g71
ssg74
(dp241
g5
S'9.5'
p242
sg7
S'--'
p243
sg9
g10
sg11
S'--'
p244
sg13
g10
sg14
g15
sg16
S'2015'
p245
sg18
g74
sg20
S'5.0'
p246
sg22
S'10/25'
p247
sg24
g10
sg25
S'Charcandrick West'
p248
sg27
S'22'
p249
sg29
S'W23-13'
p250
sg31
S'19'
p251
sg33
g34
sg35
S'PIT'
p252
sg37
S'12'
p253
sg39
S'110'
p254
sg41
S'36'
p255
ssg42
(dp256
g5
S'6.0'
p257
sg7
g10
sg9
g10
sg11
g10
sg13
g10
sg14
g15
sg16
S'2015'
p258
sg18
g42
sg20
S'3.7'
p259
sg22
S'10/18'
p260
sg24
g15
sg25
S'Charcandrick West'
p261
sg27
g71
sg29
S'L10-16'
p262
sg31
g42
sg33
g10
sg35
S'@MIN'
p263
sg37
g42
sg39
S'33'
p264
sg41
g71
ssg71
(dp265
g5
S''
p266
sg7
g266
sg9
g266
sg11
g266
sg13
g266
sg14
g266
sg16
S'2015'
p267
sg18
g71
sg20
g266
sg22
S'Bye'
p268
sg24
g266
sg25
S'Charcandrick West'
p269
sg27
g266
sg29
g266
sg31
g266
sg33
g266
sg35
g266
sg37
g266
sg39
g266
sg41
g266
ssS'8'
p270
(dp271
g5
S'6.3'
p272
sg7
S'--'
p273
sg9
g10
sg11
S'--'
p274
sg13
g10
sg14
g15
sg16
S'2015'
p275
sg18
g270
sg20
S'4.9'
p276
sg22
S'11/01'
p277
sg24
g10
sg25
S'Charcandrick West'
p278
sg27
S'20'
p279
sg29
S'W45-10'
p280
sg31
S'25'
p281
sg33
g229
sg35
S'DET'
p282
sg37
S'13'
p283
sg39
S'97'
p284
sg41
S'32'
p285
sssS'2014'
p286
(dp287
g3
(dp288
g5
S'--'
p289
sg7
S'--'
p290
sg9
g15
sg11
S'--'
p291
sg13
g10
sg14
S'--'
p292
sg16
S'2014'
p293
sg18
S'11'
p294
sg20
S'--'
p295
sg22
S'11/16'
p296
sg24
S'--'
p297
sg25
S'Charcandrick West'
p298
sg27
S'--'
p299
sg29
S'W24-20'
p300
sg31
S'--'
p301
sg33
S'--'
p302
sg35
S'SEA'
p303
sg37
S'--'
p304
sg39
S'--'
p305
sg41
S'--'
p306
ssg61
(dp307
g5
S'--'
p308
sg7
S'--'
p309
sg9
g15
sg11
S'--'
p310
sg13
g10
sg14
S'--'
p311
sg16
S'2014'
p312
sg18
S'13'
p313
sg20
S'--'
p314
sg22
S'11/30'
p315
sg24
S'--'
p316
sg25
S'Charcandrick West'
p317
sg27
S'--'
p318
sg29
S'L16-29'
p319
sg31
S'--'
p320
sg33
S'--'
p321
sg35
S'DEN'
p322
sg37
S'--'
p323
sg39
S'--'
p324
sg41
S'--'
p325
ssg77
(dp326
g5
S'--'
p327
sg7
S'--'
p328
sg9
g15
sg11
S'--'
p329
sg13
g10
sg14
S'--'
p330
sg16
S'2014'
p331
sg18
S'12'
p332
sg20
S'--'
p333
sg22
S'11/20'
p334
sg24
S'--'
p335
sg25
S'Charcandrick West'
p336
sg27
S'--'
p337
sg29
S'L20-24'
p338
sg31
S'--'
p339
sg33
S'--'
p340
sg35
S'@OAK'
p341
sg37
S'--'
p342
sg39
S'--'
p343
sg41
S'--'
p344
ssg97
(dp345
g5
S'--'
p346
sg7
S'--'
p347
sg9
g15
sg11
S'--'
p348
sg13
g10
sg14
g15
sg16
S'2014'
p349
sg18
S'15'
p350
sg20
S'--'
p351
sg22
S'12/14'
p352
sg24
S'--'
p353
sg25
S'Charcandrick West'
p354
sg27
S'--'
p355
sg29
S'W31-13'
p356
sg31
g15
sg33
g15
sg35
S'OAK'
p357
sg37
S'--'
p358
sg39
S'--'
p359
sg41
S'--'
p360
ssg113
(dp361
g5
S'--'
p362
sg7
S'--'
p363
sg9
g15
sg11
S'--'
p364
sg13
g10
sg14
S'--'
p365
sg16
S'2014'
p366
sg18
S'14'
p367
sg20
S'--'
p368
sg22
S'12/07'
p369
sg24
S'--'
p370
sg25
S'Charcandrick West'
p371
sg27
S'--'
p372
sg29
S'L14-17'
p373
sg31
S'--'
p374
sg33
S'--'
p375
sg35
S'@ARI'
p376
sg37
S'--'
p377
sg39
S'--'
p378
sg41
S'--'
p379
ssg132
(dp380
g5
S'--'
p381
sg7
S'--'
p382
sg9
g15
sg11
S'--'
p383
sg13
g10
sg14
S'--'
p384
sg16
S'2014'
p385
sg18
S'17'
p386
sg20
S'--'
p387
sg22
S'12/28'
p388
sg24
S'--'
p389
sg25
S'Charcandrick West'
p390
sg27
S'--'
p391
sg29
S'W19-7'
p392
sg31
S'--'
p393
sg33
S'--'
p394
sg35
S'SD'
p395
sg37
S'--'
p396
sg39
S'--'
p397
sg41
S'--'
p398
ssg149
(dp399
g5
S'--'
p400
sg7
S'--'
p401
sg9
g15
sg11
S'--'
p402
sg13
g15
sg14
S'--'
p403
sg16
S'2014'
p404
sg18
S'16'
p405
sg20
S'--'
p406
sg22
S'12/21'
p407
sg24
S'--'
p408
sg25
S'Charcandrick West'
p409
sg27
S'--'
p410
sg29
S'L12-20'
p411
sg31
S'--'
p412
sg33
S'--'
p413
sg35
S'@PIT'
p414
sg37
S'--'
p415
sg39
S'--'
p416
sg41
S'--'
p417
sss.