(dp0
S'2015'
p1
(dp2
S'11'
p3
(dp4
S'RecAvg'
p5
S'--'
p6
sS'FUM'
p7
S'--'
p8
sS'GS'
p9
S'0'
p10
sS'Lost'
p11
S'--'
p12
sS'G'
p13
S'1'
p14
sS'RecTD'
p15
S'--'
p16
sS'Year'
p17
S'2015'
p18
sS'WK'
p19
S'11'
p20
sS'RushAvg'
p21
S'--'
p22
sS'Game Date'
p23
S'11/22'
p24
sS'RushTD'
p25
S'--'
p26
sS'Player'
p27
S'Chase Reynolds'
p28
sS'RushAtt'
p29
S'--'
p30
sS'Result'
p31
S'L13-16'
p32
sS'RecYds'
p33
S'--'
p34
sS'Rec'
p35
S'--'
p36
sS'Opp'
p37
S'@BAL'
p38
sS'RecLng'
p39
S'--'
p40
sS'RushYds'
p41
S'--'
p42
sS'RushLng'
p43
S'--'
p44
ssS'10'
p45
(dp46
g5
S'--'
p47
sg7
S'--'
p48
sg9
g10
sg11
S'--'
p49
sg13
g14
sg15
S'--'
p50
sg17
S'2015'
p51
sg19
S'10'
p52
sg21
S'--'
p53
sg23
S'11/15'
p54
sg25
S'--'
p55
sg27
S'Chase Reynolds'
p56
sg29
S'--'
p57
sg31
S'L13-37'
p58
sg33
S'--'
p59
sg35
S'--'
p60
sg37
S'CHI'
p61
sg39
S'--'
p62
sg41
S'--'
p63
sg43
S'--'
p64
ssS'13'
p65
(dp66
g5
S'--'
p67
sg7
S'--'
p68
sg9
g10
sg11
S'--'
p69
sg13
g14
sg15
S'--'
p70
sg17
S'2015'
p71
sg19
S'13'
p72
sg21
S'--'
p73
sg23
S'12/06'
p74
sg25
S'--'
p75
sg27
S'Chase Reynolds'
p76
sg29
S'--'
p77
sg31
S'L3-27'
p78
sg33
S'--'
p79
sg35
S'--'
p80
sg37
S'ARI'
p81
sg39
S'--'
p82
sg41
S'--'
p83
sg43
S'--'
p84
ssS'12'
p85
(dp86
g5
S'--'
p87
sg7
S'--'
p88
sg9
g10
sg11
S'--'
p89
sg13
g14
sg15
S'--'
p90
sg17
S'2015'
p91
sg19
S'12'
p92
sg21
S'--'
p93
sg23
S'11/29'
p94
sg25
S'--'
p95
sg27
S'Chase Reynolds'
p96
sg29
S'--'
p97
sg31
S'L7-31'
p98
sg33
S'--'
p99
sg35
S'--'
p100
sg37
S'@CIN'
p101
sg39
S'--'
p102
sg41
S'--'
p103
sg43
S'--'
p104
ssS'15'
p105
(dp106
g5
S'--'
p107
sg7
S'--'
p108
sg9
g10
sg11
S'--'
p109
sg13
g14
sg15
S'--'
p110
sg17
S'2015'
p111
sg19
S'15'
p112
sg21
S'--'
p113
sg23
S'12/17'
p114
sg25
S'--'
p115
sg27
S'Chase Reynolds'
p116
sg29
S'--'
p117
sg31
S'W31-23'
p118
sg33
S'--'
p119
sg35
S'--'
p120
sg37
S'TB'
p121
sg39
S'--'
p122
sg41
S'--'
p123
sg43
S'--'
p124
ssS'14'
p125
(dp126
g5
S'--'
p127
sg7
S'--'
p128
sg9
g10
sg11
S'--'
p129
sg13
g14
sg15
S'--'
p130
sg17
S'2015'
p131
sg19
S'14'
p132
sg21
S'--'
p133
sg23
S'12/13'
p134
sg25
S'--'
p135
sg27
S'Chase Reynolds'
p136
sg29
S'--'
p137
sg31
S'W21-14'
p138
sg33
S'--'
p139
sg35
S'--'
p140
sg37
S'DET'
p141
sg39
S'--'
p142
sg41
S'--'
p143
sg43
S'--'
p144
ssS'17'
p145
(dp146
g5
S'--'
p147
sg7
S'--'
p148
sg9
g10
sg11
S'--'
p149
sg13
g14
sg15
S'--'
p150
sg17
S'2015'
p151
sg19
S'17'
p152
sg21
S'--'
p153
sg23
S'01/03'
p154
sg25
S'--'
p155
sg27
S'Chase Reynolds'
p156
sg29
S'--'
p157
sg31
S'L16-19'
p158
sg33
S'--'
p159
sg35
S'--'
p160
sg37
S'@SF'
p161
sg39
S'--'
p162
sg41
S'--'
p163
sg43
S'--'
p164
ssS'16'
p165
(dp166
g5
S'--'
p167
sg7
S'--'
p168
sg9
g10
sg11
S'--'
p169
sg13
g14
sg15
S'--'
p170
sg17
S'2015'
p171
sg19
S'16'
p172
sg21
S'--'
p173
sg23
S'12/27'
p174
sg25
S'--'
p175
sg27
S'Chase Reynolds'
p176
sg29
S'--'
p177
sg31
S'W23-17'
p178
sg33
S'--'
p179
sg35
S'--'
p180
sg37
S'@SEA'
p181
sg39
S'--'
p182
sg41
S'--'
p183
sg43
S'--'
p184
ssg14
(dp185
g5
S'--'
p186
sg7
S'--'
p187
sg9
g10
sg11
S'--'
p188
sg13
g14
sg15
S'--'
p189
sg17
S'2015'
p190
sg19
g14
sg21
S'--'
p191
sg23
S'09/13'
p192
sg25
S'--'
p193
sg27
S'Chase Reynolds'
p194
sg29
S'--'
p195
sg31
S'W34-31'
p196
sg33
S'--'
p197
sg35
S'--'
p198
sg37
S'SEA'
p199
sg39
S'--'
p200
sg41
S'--'
p201
sg43
S'--'
p202
ssS'3'
p203
(dp204
g5
S'--'
p205
sg7
S'--'
p206
sg9
g10
sg11
S'--'
p207
sg13
g10
sg15
S'--'
p208
sg17
S'2015'
p209
sg19
g203
sg21
S'--'
p210
sg23
S'09/27'
p211
sg25
S'--'
p212
sg27
S'Chase Reynolds'
p213
sg29
S'--'
p214
sg31
S'L6-12'
p215
sg33
S'--'
p216
sg35
S'--'
p217
sg37
S'PIT'
p218
sg39
S'--'
p219
sg41
S'--'
p220
sg43
S'--'
p221
ssS'2'
p222
(dp223
g5
S'--'
p224
sg7
S'--'
p225
sg9
g10
sg11
S'--'
p226
sg13
g10
sg15
S'--'
p227
sg17
S'2015'
p228
sg19
g222
sg21
S'--'
p229
sg23
S'09/20'
p230
sg25
S'--'
p231
sg27
S'Chase Reynolds'
p232
sg29
S'--'
p233
sg31
S'L10-24'
p234
sg33
S'--'
p235
sg35
S'--'
p236
sg37
S'@WAS'
p237
sg39
S'--'
p238
sg41
S'--'
p239
sg43
S'--'
p240
ssS'5'
p241
(dp242
g5
S'--'
p243
sg7
S'--'
p244
sg9
g10
sg11
S'--'
p245
sg13
g14
sg15
S'--'
p246
sg17
S'2015'
p247
sg19
g241
sg21
S'--'
p248
sg23
S'10/11'
p249
sg25
S'--'
p250
sg27
S'Chase Reynolds'
p251
sg29
S'--'
p252
sg31
S'L10-24'
p253
sg33
S'--'
p254
sg35
S'--'
p255
sg37
S'@GB'
p256
sg39
S'--'
p257
sg41
S'--'
p258
sg43
S'--'
p259
ssS'4'
p260
(dp261
g5
S'--'
p262
sg7
S'--'
p263
sg9
g10
sg11
S'--'
p264
sg13
g10
sg15
S'--'
p265
sg17
S'2015'
p266
sg19
g260
sg21
S'--'
p267
sg23
S'10/04'
p268
sg25
S'--'
p269
sg27
S'Chase Reynolds'
p270
sg29
S'--'
p271
sg31
S'W24-22'
p272
sg33
S'--'
p273
sg35
S'--'
p274
sg37
S'@ARI'
p275
sg39
S'--'
p276
sg41
S'--'
p277
sg43
S'--'
p278
ssS'7'
p279
(dp280
g5
S'--'
p281
sg7
S'--'
p282
sg9
g10
sg11
S'--'
p283
sg13
g14
sg15
S'--'
p284
sg17
S'2015'
p285
sg19
g279
sg21
S'--'
p286
sg23
S'10/25'
p287
sg25
S'--'
p288
sg27
S'Chase Reynolds'
p289
sg29
S'--'
p290
sg31
S'W24-6'
p291
sg33
S'--'
p292
sg35
S'--'
p293
sg37
S'CLE'
p294
sg39
S'--'
p295
sg41
S'--'
p296
sg43
S'--'
p297
ssS'6'
p298
(dp299
g5
S''
p300
sg7
g300
sg9
g300
sg11
g300
sg13
g300
sg15
g300
sg17
S'2015'
p301
sg19
g298
sg21
g300
sg23
S'Bye'
p302
sg25
g300
sg27
S'Chase Reynolds'
p303
sg29
g300
sg31
g300
sg33
g300
sg35
g300
sg37
g300
sg39
g300
sg41
g300
sg43
g300
ssS'9'
p304
(dp305
g5
S'--'
p306
sg7
S'--'
p307
sg9
g10
sg11
S'--'
p308
sg13
g10
sg15
S'--'
p309
sg17
S'2015'
p310
sg19
g304
sg21
S'--'
p311
sg23
S'11/08'
p312
sg25
S'--'
p313
sg27
S'Chase Reynolds'
p314
sg29
S'--'
p315
sg31
S'L18-21'
p316
sg33
S'--'
p317
sg35
S'--'
p318
sg37
S'@MIN'
p319
sg39
S'--'
p320
sg41
S'--'
p321
sg43
S'--'
p322
ssS'8'
p323
(dp324
g5
S'--'
p325
sg7
S'--'
p326
sg9
g10
sg11
S'--'
p327
sg13
g14
sg15
S'--'
p328
sg17
S'2015'
p329
sg19
g323
sg21
S'--'
p330
sg23
S'11/01'
p331
sg25
S'--'
p332
sg27
S'Chase Reynolds'
p333
sg29
S'--'
p334
sg31
S'W27-6'
p335
sg33
S'--'
p336
sg35
S'--'
p337
sg37
S'SF'
p338
sg39
S'--'
p339
sg41
S'--'
p340
sg43
S'--'
p341
sssS'2014'
p342
(dp343
g3
(dp344
g5
S'--'
p345
sg7
S'--'
p346
sg9
g10
sg11
S'--'
p347
sg13
g14
sg15
S'--'
p348
sg17
S'2014'
p349
sg19
S'11'
p350
sg21
S'--'
p351
sg23
S'11/16'
p352
sg25
S'--'
p353
sg27
S'Chase Reynolds'
p354
sg29
S'--'
p355
sg31
S'W22-7'
p356
sg33
S'--'
p357
sg35
S'--'
p358
sg37
S'DEN'
p359
sg39
S'--'
p360
sg41
S'--'
p361
sg43
S'--'
p362
ssg45
(dp363
g5
S'--'
p364
sg7
S'--'
p365
sg9
g10
sg11
S'--'
p366
sg13
g14
sg15
S'--'
p367
sg17
S'2014'
p368
sg19
S'10'
p369
sg21
S'--'
p370
sg23
S'11/09'
p371
sg25
S'--'
p372
sg27
S'Chase Reynolds'
p373
sg29
S'--'
p374
sg31
S'L14-31'
p375
sg33
S'--'
p376
sg35
S'--'
p377
sg37
S'@ARI'
p378
sg39
S'--'
p379
sg41
S'--'
p380
sg43
S'--'
p381
ssg65
(dp382
g5
S'--'
p383
sg7
S'--'
p384
sg9
g10
sg11
S'--'
p385
sg13
g14
sg15
S'--'
p386
sg17
S'2014'
p387
sg19
S'13'
p388
sg21
S'--'
p389
sg23
S'11/30'
p390
sg25
S'--'
p391
sg27
S'Chase Reynolds'
p392
sg29
S'--'
p393
sg31
S'W52-0'
p394
sg33
S'--'
p395
sg35
S'--'
p396
sg37
S'OAK'
p397
sg39
S'--'
p398
sg41
S'--'
p399
sg43
S'--'
p400
ssg85
(dp401
g5
S'--'
p402
sg7
S'--'
p403
sg9
g10
sg11
S'--'
p404
sg13
g14
sg15
S'--'
p405
sg17
S'2014'
p406
sg19
S'12'
p407
sg21
S'--'
p408
sg23
S'11/23'
p409
sg25
S'--'
p410
sg27
S'Chase Reynolds'
p411
sg29
S'--'
p412
sg31
S'L24-27'
p413
sg33
S'--'
p414
sg35
S'--'
p415
sg37
S'@SD'
p416
sg39
S'--'
p417
sg41
S'--'
p418
sg43
S'--'
p419
ssg105
(dp420
g5
S'--'
p421
sg7
S'--'
p422
sg9
g10
sg11
S'--'
p423
sg13
g14
sg15
S'--'
p424
sg17
S'2014'
p425
sg19
S'15'
p426
sg21
S'--'
p427
sg23
S'12/11'
p428
sg25
S'--'
p429
sg27
S'Chase Reynolds'
p430
sg29
S'--'
p431
sg31
S'L6-12'
p432
sg33
S'--'
p433
sg35
S'--'
p434
sg37
S'ARI'
p435
sg39
S'--'
p436
sg41
S'--'
p437
sg43
S'--'
p438
ssg125
(dp439
g5
S'--'
p440
sg7
S'--'
p441
sg9
g10
sg11
S'--'
p442
sg13
g14
sg15
S'--'
p443
sg17
S'2014'
p444
sg19
S'14'
p445
sg21
S'--'
p446
sg23
S'12/07'
p447
sg25
S'--'
p448
sg27
S'Chase Reynolds'
p449
sg29
S'--'
p450
sg31
S'W24-0'
p451
sg33
S'--'
p452
sg35
S'--'
p453
sg37
S'@WAS'
p454
sg39
S'--'
p455
sg41
S'--'
p456
sg43
S'--'
p457
ssg145
(dp458
g5
S'--'
p459
sg7
S'--'
p460
sg9
g10
sg11
S'--'
p461
sg13
g14
sg15
S'--'
p462
sg17
S'2014'
p463
sg19
S'17'
p464
sg21
S'--'
p465
sg23
S'12/28'
p466
sg25
S'--'
p467
sg27
S'Chase Reynolds'
p468
sg29
S'--'
p469
sg31
S'L6-20'
p470
sg33
S'--'
p471
sg35
S'--'
p472
sg37
S'@SEA'
p473
sg39
S'--'
p474
sg41
S'--'
p475
sg43
S'--'
p476
ssg165
(dp477
g5
S'--'
p478
sg7
S'--'
p479
sg9
g10
sg11
S'--'
p480
sg13
g14
sg15
S'--'
p481
sg17
S'2014'
p482
sg19
S'16'
p483
sg21
S'--'
p484
sg23
S'12/21'
p485
sg25
S'--'
p486
sg27
S'Chase Reynolds'
p487
sg29
S'--'
p488
sg31
S'L27-37'
p489
sg33
S'--'
p490
sg35
S'--'
p491
sg37
S'NYG'
p492
sg39
S'--'
p493
sg41
S'--'
p494
sg43
S'--'
p495
ssg14
(dp496
g5
S'--'
p497
sg7
S'--'
p498
sg9
g10
sg11
S'--'
p499
sg13
g14
sg15
S'--'
p500
sg17
S'2014'
p501
sg19
g14
sg21
S'--'
p502
sg23
S'09/07'
p503
sg25
S'--'
p504
sg27
S'Chase Reynolds'
p505
sg29
S'--'
p506
sg31
S'L6-34'
p507
sg33
S'--'
p508
sg35
S'--'
p509
sg37
S'MIN'
p510
sg39
S'--'
p511
sg41
S'--'
p512
sg43
S'--'
p513
ssg203
(dp514
g5
S'--'
p515
sg7
S'--'
p516
sg9
g10
sg11
S'--'
p517
sg13
g14
sg15
S'--'
p518
sg17
S'2014'
p519
sg19
g203
sg21
S'--'
p520
sg23
S'09/21'
p521
sg25
S'--'
p522
sg27
S'Chase Reynolds'
p523
sg29
S'--'
p524
sg31
S'L31-34'
p525
sg33
S'--'
p526
sg35
S'--'
p527
sg37
S'DAL'
p528
sg39
S'--'
p529
sg41
S'--'
p530
sg43
S'--'
p531
ssg222
(dp532
g5
S'--'
p533
sg7
S'--'
p534
sg9
g10
sg11
S'--'
p535
sg13
g14
sg15
S'--'
p536
sg17
S'2014'
p537
sg19
g222
sg21
S'--'
p538
sg23
S'09/14'
p539
sg25
S'--'
p540
sg27
S'Chase Reynolds'
p541
sg29
S'--'
p542
sg31
S'W19-17'
p543
sg33
S'--'
p544
sg35
S'--'
p545
sg37
S'@TB'
p546
sg39
S'--'
p547
sg41
S'--'
p548
sg43
S'--'
p549
ssg241
(dp550
g5
S'--'
p551
sg7
S'--'
p552
sg9
g10
sg11
S'--'
p553
sg13
g14
sg15
S'--'
p554
sg17
S'2014'
p555
sg19
g241
sg21
S'--'
p556
sg23
S'10/05'
p557
sg25
S'--'
p558
sg27
S'Chase Reynolds'
p559
sg29
S'--'
p560
sg31
S'L28-34'
p561
sg33
S'--'
p562
sg35
S'--'
p563
sg37
S'@PHI'
p564
sg39
S'--'
p565
sg41
S'--'
p566
sg43
S'--'
p567
ssg260
(dp568
g5
g300
sg7
g300
sg9
g300
sg11
g300
sg13
g300
sg15
g300
sg17
S'2014'
p569
sg19
g260
sg21
g300
sg23
S'Bye'
p570
sg25
g300
sg27
S'Chase Reynolds'
p571
sg29
g300
sg31
g300
sg33
g300
sg35
g300
sg37
g300
sg39
g300
sg41
g300
sg43
g300
ssg279
(dp572
g5
S'--'
p573
sg7
S'--'
p574
sg9
g10
sg11
S'--'
p575
sg13
g14
sg15
S'--'
p576
sg17
S'2014'
p577
sg19
g279
sg21
S'--'
p578
sg23
S'10/19'
p579
sg25
S'--'
p580
sg27
S'Chase Reynolds'
p581
sg29
S'--'
p582
sg31
S'W28-26'
p583
sg33
S'--'
p584
sg35
S'--'
p585
sg37
S'SEA'
p586
sg39
S'--'
p587
sg41
S'--'
p588
sg43
S'--'
p589
ssg298
(dp590
g5
S'--'
p591
sg7
S'--'
p592
sg9
g10
sg11
S'--'
p593
sg13
g10
sg15
S'--'
p594
sg17
S'2014'
p595
sg19
g298
sg21
S'--'
p596
sg23
S'10/13'
p597
sg25
S'--'
p598
sg27
S'Chase Reynolds'
p599
sg29
S'--'
p600
sg31
S'L17-31'
p601
sg33
S'--'
p602
sg35
S'--'
p603
sg37
S'SF'
p604
sg39
S'--'
p605
sg41
S'--'
p606
sg43
S'--'
p607
ssg304
(dp608
g5
S'--'
p609
sg7
S'--'
p610
sg9
g10
sg11
S'--'
p611
sg13
g14
sg15
S'--'
p612
sg17
S'2014'
p613
sg19
g304
sg21
S'--'
p614
sg23
S'11/02'
p615
sg25
S'--'
p616
sg27
S'Chase Reynolds'
p617
sg29
S'--'
p618
sg31
S'W13-10'
p619
sg33
S'--'
p620
sg35
S'--'
p621
sg37
S'@SF'
p622
sg39
S'--'
p623
sg41
S'--'
p624
sg43
S'--'
p625
ssg323
(dp626
g5
S'--'
p627
sg7
S'--'
p628
sg9
g10
sg11
S'--'
p629
sg13
g14
sg15
S'--'
p630
sg17
S'2014'
p631
sg19
g323
sg21
S'--'
p632
sg23
S'10/26'
p633
sg25
S'--'
p634
sg27
S'Chase Reynolds'
p635
sg29
S'--'
p636
sg31
S'L7-34'
p637
sg33
S'--'
p638
sg35
S'--'
p639
sg37
S'@KC'
p640
sg39
S'--'
p641
sg41
S'--'
p642
sg43
S'--'
p643
sssS'2013'
p644
(dp645
g3
(dp646
g5
g300
sg7
g300
sg9
g300
sg11
g300
sg13
g300
sg15
g300
sg17
S'2013'
p647
sg19
S'11'
p648
sg21
g300
sg23
S'Bye'
p649
sg25
g300
sg27
S'Chase Reynolds'
p650
sg29
g300
sg31
g300
sg33
g300
sg35
g300
sg37
g300
sg39
g300
sg41
g300
sg43
g300
ssg45
(dp651
g5
S'--'
p652
sg7
S'--'
p653
sg9
g10
sg11
S'--'
p654
sg13
g14
sg15
S'--'
p655
sg17
S'2013'
p656
sg19
S'10'
p657
sg21
S'--'
p658
sg23
S'11/10'
p659
sg25
S'--'
p660
sg27
S'Chase Reynolds'
p661
sg29
S'--'
p662
sg31
S'W38-8'
p663
sg33
S'--'
p664
sg35
S'--'
p665
sg37
S'@IND'
p666
sg39
S'--'
p667
sg41
S'--'
p668
sg43
S'--'
p669
ssg65
(dp670
g5
S'--'
p671
sg7
S'--'
p672
sg9
g10
sg11
S'--'
p673
sg13
g14
sg15
S'--'
p674
sg17
S'2013'
p675
sg19
S'13'
p676
sg21
S'--'
p677
sg23
S'12/01'
p678
sg25
S'--'
p679
sg27
S'Chase Reynolds'
p680
sg29
S'--'
p681
sg31
S'L13-23'
p682
sg33
S'--'
p683
sg35
S'--'
p684
sg37
S'@SF'
p685
sg39
S'--'
p686
sg41
S'--'
p687
sg43
S'--'
p688
ssg85
(dp689
g5
S'--'
p690
sg7
S'--'
p691
sg9
g10
sg11
S'--'
p692
sg13
g14
sg15
S'--'
p693
sg17
S'2013'
p694
sg19
S'12'
p695
sg21
S'--'
p696
sg23
S'11/24'
p697
sg25
S'--'
p698
sg27
S'Chase Reynolds'
p699
sg29
S'--'
p700
sg31
S'W42-21'
p701
sg33
S'--'
p702
sg35
S'--'
p703
sg37
S'CHI'
p704
sg39
S'--'
p705
sg41
S'--'
p706
sg43
S'--'
p707
ssg105
(dp708
g5
S'--'
p709
sg7
S'--'
p710
sg9
g10
sg11
S'--'
p711
sg13
g14
sg15
S'--'
p712
sg17
S'2013'
p713
sg19
S'15'
p714
sg21
S'--'
p715
sg23
S'12/15'
p716
sg25
S'--'
p717
sg27
S'Chase Reynolds'
p718
sg29
S'--'
p719
sg31
S'W27-16'
p720
sg33
S'--'
p721
sg35
S'--'
p722
sg37
S'NO'
p723
sg39
S'--'
p724
sg41
S'--'
p725
sg43
S'--'
p726
ssg125
(dp727
g5
S'--'
p728
sg7
S'--'
p729
sg9
g10
sg11
S'--'
p730
sg13
g14
sg15
S'--'
p731
sg17
S'2013'
p732
sg19
S'14'
p733
sg21
S'--'
p734
sg23
S'12/08'
p735
sg25
S'--'
p736
sg27
S'Chase Reynolds'
p737
sg29
S'--'
p738
sg31
S'L10-30'
p739
sg33
S'--'
p740
sg35
S'--'
p741
sg37
S'@ARI'
p742
sg39
S'--'
p743
sg41
S'--'
p744
sg43
S'--'
p745
ssg145
(dp746
g5
S'--'
p747
sg7
S'--'
p748
sg9
g10
sg11
S'--'
p749
sg13
g14
sg15
S'--'
p750
sg17
S'2013'
p751
sg19
S'17'
p752
sg21
S'--'
p753
sg23
S'12/29'
p754
sg25
S'--'
p755
sg27
S'Chase Reynolds'
p756
sg29
S'--'
p757
sg31
S'L9-27'
p758
sg33
S'--'
p759
sg35
S'--'
p760
sg37
S'@SEA'
p761
sg39
S'--'
p762
sg41
S'--'
p763
sg43
S'--'
p764
ssg165
(dp765
g5
S'--'
p766
sg7
S'--'
p767
sg9
g10
sg11
S'--'
p768
sg13
g14
sg15
S'--'
p769
sg17
S'2013'
p770
sg19
S'16'
p771
sg21
S'--'
p772
sg23
S'12/22'
p773
sg25
S'--'
p774
sg27
S'Chase Reynolds'
p775
sg29
S'--'
p776
sg31
S'W23-13'
p777
sg33
S'--'
p778
sg35
S'--'
p779
sg37
S'TB'
p780
sg39
S'--'
p781
sg41
S'--'
p782
sg43
S'--'
p783
ssg14
(dp784
g5
S'--'
p785
sg7
S'--'
p786
sg9
g10
sg11
S'--'
p787
sg13
g14
sg15
S'--'
p788
sg17
S'2013'
p789
sg19
g14
sg21
S'--'
p790
sg23
S'09/08'
p791
sg25
S'--'
p792
sg27
S'Chase Reynolds'
p793
sg29
S'--'
p794
sg31
S'W27-24'
p795
sg33
S'--'
p796
sg35
S'--'
p797
sg37
S'ARI'
p798
sg39
S'--'
p799
sg41
S'--'
p800
sg43
S'--'
p801
ssg203
(dp802
g5
S'--'
p803
sg7
S'--'
p804
sg9
g10
sg11
S'--'
p805
sg13
g14
sg15
S'--'
p806
sg17
S'2013'
p807
sg19
g203
sg21
S'--'
p808
sg23
S'09/22'
p809
sg25
S'--'
p810
sg27
S'Chase Reynolds'
p811
sg29
S'--'
p812
sg31
S'L7-31'
p813
sg33
S'--'
p814
sg35
S'--'
p815
sg37
S'@DAL'
p816
sg39
S'--'
p817
sg41
S'--'
p818
sg43
S'--'
p819
ssg222
(dp820
g5
S'--'
p821
sg7
S'--'
p822
sg9
g10
sg11
S'--'
p823
sg13
g14
sg15
S'--'
p824
sg17
S'2013'
p825
sg19
g222
sg21
S'--'
p826
sg23
S'09/15'
p827
sg25
S'--'
p828
sg27
S'Chase Reynolds'
p829
sg29
S'--'
p830
sg31
S'L24-31'
p831
sg33
S'--'
p832
sg35
S'--'
p833
sg37
S'@ATL'
p834
sg39
S'--'
p835
sg41
S'--'
p836
sg43
S'--'
p837
ssg241
(dp838
g5
S'--'
p839
sg7
S'--'
p840
sg9
g10
sg11
S'--'
p841
sg13
g14
sg15
S'--'
p842
sg17
S'2013'
p843
sg19
g241
sg21
S'--'
p844
sg23
S'10/06'
p845
sg25
S'--'
p846
sg27
S'Chase Reynolds'
p847
sg29
S'--'
p848
sg31
S'W34-20'
p849
sg33
S'--'
p850
sg35
S'--'
p851
sg37
S'JAC'
p852
sg39
S'--'
p853
sg41
S'--'
p854
sg43
S'--'
p855
ssg260
(dp856
g5
S'--'
p857
sg7
S'--'
p858
sg9
g10
sg11
S'--'
p859
sg13
g14
sg15
S'--'
p860
sg17
S'2013'
p861
sg19
g260
sg21
S'--'
p862
sg23
S'09/26'
p863
sg25
S'--'
p864
sg27
S'Chase Reynolds'
p865
sg29
S'--'
p866
sg31
S'L11-35'
p867
sg33
S'--'
p868
sg35
S'--'
p869
sg37
S'SF'
p870
sg39
S'--'
p871
sg41
S'--'
p872
sg43
S'--'
p873
ssg279
(dp874
g5
S'--'
p875
sg7
S'--'
p876
sg9
g10
sg11
S'--'
p877
sg13
g14
sg15
S'--'
p878
sg17
S'2013'
p879
sg19
g279
sg21
S'--'
p880
sg23
S'10/20'
p881
sg25
S'--'
p882
sg27
S'Chase Reynolds'
p883
sg29
S'--'
p884
sg31
S'L15-30'
p885
sg33
S'--'
p886
sg35
S'--'
p887
sg37
S'@CAR'
p888
sg39
S'--'
p889
sg41
S'--'
p890
sg43
S'--'
p891
ssg298
(dp892
g5
S'--'
p893
sg7
S'--'
p894
sg9
g10
sg11
S'--'
p895
sg13
g14
sg15
S'--'
p896
sg17
S'2013'
p897
sg19
g298
sg21
S'--'
p898
sg23
S'10/13'
p899
sg25
S'--'
p900
sg27
S'Chase Reynolds'
p901
sg29
S'--'
p902
sg31
S'W38-13'
p903
sg33
S'--'
p904
sg35
S'--'
p905
sg37
S'@HOU'
p906
sg39
S'--'
p907
sg41
S'--'
p908
sg43
S'--'
p909
ssg304
(dp910
g5
S'--'
p911
sg7
S'--'
p912
sg9
g10
sg11
S'--'
p913
sg13
g14
sg15
S'--'
p914
sg17
S'2013'
p915
sg19
g304
sg21
S'--'
p916
sg23
S'11/03'
p917
sg25
S'--'
p918
sg27
S'Chase Reynolds'
p919
sg29
S'--'
p920
sg31
S'L21-28'
p921
sg33
S'--'
p922
sg35
S'--'
p923
sg37
S'TEN'
p924
sg39
S'--'
p925
sg41
S'--'
p926
sg43
S'--'
p927
ssg323
(dp928
g5
S'--'
p929
sg7
S'--'
p930
sg9
g10
sg11
S'--'
p931
sg13
g14
sg15
S'--'
p932
sg17
S'2013'
p933
sg19
g323
sg21
S'--'
p934
sg23
S'10/28'
p935
sg25
S'--'
p936
sg27
S'Chase Reynolds'
p937
sg29
S'--'
p938
sg31
S'L9-14'
p939
sg33
S'--'
p940
sg35
S'--'
p941
sg37
S'SEA'
p942
sg39
S'--'
p943
sg41
S'--'
p944
sg43
S'--'
p945
sss.