(dp0
S'2015'
p1
(dp2
S'11'
p3
(dp4
S'RecAvg'
p5
S'2.3'
p6
sS'FUM'
p7
S'1'
p8
sS'GS'
p9
S'0'
p10
sS'Lost'
p11
g10
sS'G'
p12
g8
sS'RecTD'
p13
g10
sS'Year'
p14
S'2015'
p15
sS'WK'
p16
S'11'
p17
sS'RushAvg'
p18
S'2.5'
p19
sS'Game Date'
p20
S'11/22'
p21
sS'RushTD'
p22
g10
sS'Player'
p23
S'Chris Thompson'
p24
sS'RushAtt'
p25
S'4'
p26
sS'Result'
p27
S'L16-44'
p28
sS'RecYds'
p29
S'7'
p30
sS'Rec'
p31
S'3'
p32
sS'Opp'
p33
S'@CAR'
p34
sS'RecLng'
p35
S'6'
p36
sS'RushYds'
p37
S'10'
p38
sS'RushLng'
p39
g36
ssS'10'
p40
(dp41
g5
S'23.0'
p42
sg7
S'--'
p43
sg9
g10
sg11
S'--'
p44
sg12
g8
sg13
g10
sg14
S'2015'
p45
sg16
S'10'
p46
sg18
S'27.0'
p47
sg20
S'11/15'
p48
sg22
g10
sg23
S'Chris Thompson'
p49
sg25
S'2'
p50
sg27
S'W47-14'
p51
sg29
S'23'
p52
sg31
g8
sg33
S'NO'
p53
sg35
S'23'
p54
sg37
S'54'
p55
sg39
S'38'
p56
ssS'13'
p57
(dp58
g5
S'4.5'
p59
sg7
S'--'
p60
sg9
g10
sg11
S'--'
p61
sg12
g8
sg13
g10
sg14
S'2015'
p62
sg16
S'13'
p63
sg18
S'6.0'
p64
sg20
S'12/07'
p65
sg22
g10
sg23
S'Chris Thompson'
p66
sg25
g8
sg27
S'L16-19'
p67
sg29
S'18'
p68
sg31
g26
sg33
S'DAL'
p69
sg35
S'9'
p70
sg37
g36
sg39
g36
ssS'12'
p71
(dp72
g5
S'9.0'
p73
sg7
S'--'
p74
sg9
g10
sg11
S'--'
p75
sg12
g8
sg13
g10
sg14
S'2015'
p76
sg16
S'12'
p77
sg18
S'3.5'
p78
sg20
S'11/29'
p79
sg22
g10
sg23
S'Chris Thompson'
p80
sg25
g50
sg27
S'W20-14'
p81
sg29
g70
sg31
g8
sg33
S'NYG'
p82
sg35
g70
sg37
g30
sg39
S'8'
p83
ssS'15'
p84
(dp85
g5
S'--'
p86
sg7
S'--'
p87
sg9
g10
sg11
S'--'
p88
sg12
g10
sg13
S'--'
p89
sg14
S'2015'
p90
sg16
S'15'
p91
sg18
S'--'
p92
sg20
S'12/20'
p93
sg22
S'--'
p94
sg23
S'Chris Thompson'
p95
sg25
S'--'
p96
sg27
S'W35-25'
p97
sg29
S'--'
p98
sg31
S'--'
p99
sg33
S'BUF'
p100
sg35
S'--'
p101
sg37
S'--'
p102
sg39
S'--'
p103
ssS'14'
p104
(dp105
g5
S'--'
p106
sg7
S'--'
p107
sg9
g10
sg11
S'--'
p108
sg12
g10
sg13
S'--'
p109
sg14
S'2015'
p110
sg16
S'14'
p111
sg18
S'--'
p112
sg20
S'12/13'
p113
sg22
S'--'
p114
sg23
S'Chris Thompson'
p115
sg25
S'--'
p116
sg27
S'W24-21'
p117
sg29
S'--'
p118
sg31
S'--'
p119
sg33
S'@CHI'
p120
sg35
S'--'
p121
sg37
S'--'
p122
sg39
S'--'
p123
ssS'17'
p124
(dp125
g5
S'--'
p126
sg7
S'--'
p127
sg9
g10
sg11
S'--'
p128
sg12
g8
sg13
S'--'
p129
sg14
S'2015'
p130
sg16
S'17'
p131
sg18
S'2.7'
p132
sg20
S'01/03'
p133
sg22
g10
sg23
S'Chris Thompson'
p134
sg25
g30
sg27
S'W34-23'
p135
sg29
S'--'
p136
sg31
S'--'
p137
sg33
S'@DAL'
p138
sg35
S'--'
p139
sg37
S'19'
p140
sg39
g83
ssS'16'
p141
(dp142
g5
S'12.0'
p143
sg7
S'--'
p144
sg9
g10
sg11
S'--'
p145
sg12
g8
sg13
g8
sg14
S'2015'
p146
sg16
S'16'
p147
sg18
S'--'
p148
sg20
S'12/26'
p149
sg22
S'--'
p150
sg23
S'Chris Thompson'
p151
sg25
S'--'
p152
sg27
S'W38-24'
p153
sg29
S'12'
p154
sg31
g8
sg33
S'@PHI'
p155
sg35
S'12T'
p156
sg37
S'--'
p157
sg39
S'--'
p158
ssg8
(dp159
g5
S'--'
p160
sg7
S'--'
p161
sg9
g10
sg11
S'--'
p162
sg12
g8
sg13
g10
sg14
S'2015'
p163
sg16
g8
sg18
S'3.7'
p164
sg20
S'09/13'
p165
sg22
g10
sg23
S'Chris Thompson'
p166
sg25
g32
sg27
S'L10-17'
p167
sg29
g10
sg31
g10
sg33
S'MIA'
p168
sg35
S'--'
p169
sg37
S'11'
p170
sg39
g30
ssg32
(dp171
g5
S'7.1'
p172
sg7
g8
sg9
g10
sg11
g10
sg12
g8
sg13
g8
sg14
S'2015'
p173
sg16
g32
sg18
S'14.5'
p174
sg20
S'09/24'
p175
sg22
g10
sg23
S'Chris Thompson'
p176
sg25
g50
sg27
S'L21-32'
p177
sg29
S'57'
p178
sg31
g83
sg33
S'@NYG'
p179
sg35
S'14'
p180
sg37
S'29'
p181
sg39
S'26'
p182
ssg50
(dp183
g5
S'10.0'
p184
sg7
S'--'
p185
sg9
g10
sg11
S'--'
p186
sg12
g8
sg13
g10
sg14
S'2015'
p187
sg16
g50
sg18
S'--'
p188
sg20
S'09/20'
p189
sg22
S'--'
p190
sg23
S'Chris Thompson'
p191
sg25
S'--'
p192
sg27
S'W24-10'
p193
sg29
S'10'
p194
sg31
g8
sg33
S'STL'
p195
sg35
S'10'
p196
sg37
S'--'
p197
sg39
S'--'
p198
ssS'5'
p199
(dp200
g5
S'5.5'
p201
sg7
S'--'
p202
sg9
g10
sg11
S'--'
p203
sg12
g8
sg13
g10
sg14
S'2015'
p204
sg16
g199
sg18
S'5.0'
p205
sg20
S'10/11'
p206
sg22
g10
sg23
S'Chris Thompson'
p207
sg25
g32
sg27
S'L19-25'
p208
sg29
S'33'
p209
sg31
g36
sg33
S'@ATL'
p210
sg35
S'14'
p211
sg37
S'15'
p212
sg39
g70
ssg26
(dp213
g5
S'12.0'
p214
sg7
S'--'
p215
sg9
g10
sg11
S'--'
p216
sg12
g8
sg13
g10
sg14
S'2015'
p217
sg16
g26
sg18
S'8.8'
p218
sg20
S'10/04'
p219
sg22
g10
sg23
S'Chris Thompson'
p220
sg25
g36
sg27
S'W23-20'
p221
sg29
S'24'
p222
sg31
g50
sg33
S'PHI'
p223
sg35
S'19'
p224
sg37
S'53'
p225
sg39
S'42'
p226
ssg30
(dp227
g5
S'--'
p228
sg7
S'--'
p229
sg9
g10
sg11
S'--'
p230
sg12
g10
sg13
S'--'
p231
sg14
S'2015'
p232
sg16
g30
sg18
S'--'
p233
sg20
S'10/25'
p234
sg22
S'--'
p235
sg23
S'Chris Thompson'
p236
sg25
S'--'
p237
sg27
S'W31-30'
p238
sg29
S'--'
p239
sg31
S'--'
p240
sg33
S'TB'
p241
sg35
S'--'
p242
sg37
S'--'
p243
sg39
S'--'
p244
ssg36
(dp245
g5
S'4.3'
p246
sg7
S'--'
p247
sg9
g10
sg11
S'--'
p248
sg12
g8
sg13
g10
sg14
S'2015'
p249
sg16
g36
sg18
S'2.4'
p250
sg20
S'10/18'
p251
sg22
g10
sg23
S'Chris Thompson'
p252
sg25
g199
sg27
S'L20-34'
p253
sg29
S'26'
p254
sg31
g36
sg33
S'@NYJ'
p255
sg35
S'13'
p256
sg37
S'12'
p257
sg39
g83
ssg70
(dp258
g5
S'10.5'
p259
sg7
S'--'
p260
sg9
g10
sg11
S'--'
p261
sg12
g8
sg13
g10
sg14
S'2015'
p262
sg16
g70
sg18
S'--'
p263
sg20
S'11/08'
p264
sg22
S'--'
p265
sg23
S'Chris Thompson'
p266
sg25
S'--'
p267
sg27
S'L10-27'
p268
sg29
S'21'
p269
sg31
g50
sg33
S'@NE'
p270
sg35
S'13'
p271
sg37
S'--'
p272
sg39
S'--'
p273
ssg83
(dp274
g5
S''
p275
sg7
g275
sg9
g275
sg11
g275
sg12
g275
sg13
g275
sg14
S'2015'
p276
sg16
g83
sg18
g275
sg20
S'Bye'
p277
sg22
g275
sg23
S'Chris Thompson'
p278
sg25
g275
sg27
g275
sg29
g275
sg31
g275
sg33
g275
sg35
g275
sg37
g275
sg39
g275
sssS'2014'
p279
(dp280
g84
(dp281
g5
S'7.3'
p282
sg7
S'--'
p283
sg9
g10
sg11
S'--'
p284
sg12
g8
sg13
g8
sg14
S'2014'
p285
sg16
S'15'
p286
sg18
S'4.0'
p287
sg20
S'12/14'
p288
sg22
g10
sg23
S'Chris Thompson'
p289
sg25
g32
sg27
S'L13-24'
p290
sg29
S'22'
p291
sg31
g32
sg33
S'@NYG'
p292
sg35
S'9T'
p293
sg37
S'12'
p294
sg39
g30
ssg124
(dp295
g5
S'--'
p296
sg7
S'--'
p297
sg9
g10
sg11
S'--'
p298
sg12
g10
sg13
S'--'
p299
sg14
S'2014'
p300
sg16
S'17'
p301
sg18
S'--'
p302
sg20
S'12/28'
p303
sg22
S'--'
p304
sg23
S'Chris Thompson'
p305
sg25
S'--'
p306
sg27
S'L17-44'
p307
sg29
S'--'
p308
sg31
S'--'
p309
sg33
S'DAL'
p310
sg35
S'--'
p311
sg37
S'--'
p312
sg39
S'--'
p313
ssg141
(dp314
g5
S'1.7'
p315
sg7
S'--'
p316
sg9
g10
sg11
S'--'
p317
sg12
g8
sg13
g10
sg14
S'2014'
p318
sg16
S'16'
p319
sg18
S'--'
p320
sg20
S'12/20'
p321
sg22
S'--'
p322
sg23
S'Chris Thompson'
p323
sg25
S'--'
p324
sg27
S'W27-24'
p325
sg29
g199
sg31
g32
sg33
S'PHI'
p326
sg35
g199
sg37
S'--'
p327
sg39
S'--'
p328
sssS'2013'
p329
(dp330
g40
(dp331
g5
S'--'
p332
sg7
S'--'
p333
sg9
g10
sg11
S'--'
p334
sg12
g10
sg13
S'--'
p335
sg14
S'2013'
p336
sg16
S'10'
p337
sg18
S'--'
p338
sg20
S'11/07'
p339
sg22
S'--'
p340
sg23
S'Chris Thompson'
p341
sg25
S'--'
p342
sg27
S'L27-34'
p343
sg29
S'--'
p344
sg31
S'--'
p345
sg33
S'@MIN'
p346
sg35
S'--'
p347
sg37
S'--'
p348
sg39
S'--'
p349
ssg8
(dp350
g5
S'--'
p351
sg7
S'--'
p352
sg9
g10
sg11
S'--'
p353
sg12
g8
sg13
S'--'
p354
sg14
S'2013'
p355
sg16
g8
sg18
S'--'
p356
sg20
S'09/09'
p357
sg22
S'--'
p358
sg23
S'Chris Thompson'
p359
sg25
S'--'
p360
sg27
S'L27-33'
p361
sg29
S'--'
p362
sg31
S'--'
p363
sg33
S'PHI'
p364
sg35
S'--'
p365
sg37
S'--'
p366
sg39
S'--'
p367
ssg32
(dp368
g5
S'--'
p369
sg7
S'--'
p370
sg9
g10
sg11
S'--'
p371
sg12
g8
sg13
S'--'
p372
sg14
S'2013'
p373
sg16
g32
sg18
S'--'
p374
sg20
S'09/22'
p375
sg22
S'--'
p376
sg23
S'Chris Thompson'
p377
sg25
S'--'
p378
sg27
S'L20-27'
p379
sg29
S'--'
p380
sg31
S'--'
p381
sg33
S'DET'
p382
sg35
S'--'
p383
sg37
S'--'
p384
sg39
S'--'
p385
ssg50
(dp386
g5
S'--'
p387
sg7
S'--'
p388
sg9
g10
sg11
S'--'
p389
sg12
g8
sg13
S'--'
p390
sg14
S'2013'
p391
sg16
g50
sg18
S'--'
p392
sg20
S'09/15'
p393
sg22
S'--'
p394
sg23
S'Chris Thompson'
p395
sg25
S'--'
p396
sg27
S'L20-38'
p397
sg29
S'--'
p398
sg31
S'--'
p399
sg33
S'@GB'
p400
sg35
S'--'
p401
sg37
S'--'
p402
sg39
S'--'
p403
ssg199
(dp404
g5
g275
sg7
g275
sg9
g275
sg11
g275
sg12
g275
sg13
g275
sg14
S'2013'
p405
sg16
g199
sg18
g275
sg20
S'Bye'
p406
sg22
g275
sg23
S'Chris Thompson'
p407
sg25
g275
sg27
g275
sg29
g275
sg31
g275
sg33
g275
sg35
g275
sg37
g275
sg39
g275
ssg26
(dp408
g5
S'--'
p409
sg7
S'--'
p410
sg9
g10
sg11
S'--'
p411
sg12
g8
sg13
S'--'
p412
sg14
S'2013'
p413
sg16
g26
sg18
S'--'
p414
sg20
S'09/29'
p415
sg22
S'--'
p416
sg23
S'Chris Thompson'
p417
sg25
S'--'
p418
sg27
S'W24-14'
p419
sg29
S'--'
p420
sg31
S'--'
p421
sg33
S'@OAK'
p422
sg35
S'--'
p423
sg37
S'--'
p424
sg39
S'--'
p425
ssg30
(dp426
g5
S'--'
p427
sg7
S'--'
p428
sg9
g10
sg11
S'--'
p429
sg12
g10
sg13
S'--'
p430
sg14
S'2013'
p431
sg16
g30
sg18
S'--'
p432
sg20
S'10/20'
p433
sg22
S'--'
p434
sg23
S'Chris Thompson'
p435
sg25
S'--'
p436
sg27
S'W45-41'
p437
sg29
S'--'
p438
sg31
S'--'
p439
sg33
S'CHI'
p440
sg35
S'--'
p441
sg37
S'--'
p442
sg39
S'--'
p443
ssg36
(dp444
g5
S'--'
p445
sg7
S'--'
p446
sg9
g10
sg11
S'--'
p447
sg12
g10
sg13
S'--'
p448
sg14
S'2013'
p449
sg16
g36
sg18
S'--'
p450
sg20
S'10/13'
p451
sg22
S'--'
p452
sg23
S'Chris Thompson'
p453
sg25
S'--'
p454
sg27
S'L16-31'
p455
sg29
S'--'
p456
sg31
S'--'
p457
sg33
S'@DAL'
p458
sg35
S'--'
p459
sg37
S'--'
p460
sg39
S'--'
p461
ssg70
(dp462
g5
S'--'
p463
sg7
S'--'
p464
sg9
g10
sg11
S'--'
p465
sg12
g10
sg13
S'--'
p466
sg14
S'2013'
p467
sg16
g70
sg18
S'--'
p468
sg20
S'11/03'
p469
sg22
S'--'
p470
sg23
S'Chris Thompson'
p471
sg25
S'--'
p472
sg27
S'W30-24'
p473
sg29
S'--'
p474
sg31
S'--'
p475
sg33
S'SD'
p476
sg35
S'--'
p477
sg37
S'--'
p478
sg39
S'--'
p479
ssg83
(dp480
g5
S'--'
p481
sg7
S'--'
p482
sg9
g10
sg11
S'--'
p483
sg12
g10
sg13
S'--'
p484
sg14
S'2013'
p485
sg16
g83
sg18
S'--'
p486
sg20
S'10/27'
p487
sg22
S'--'
p488
sg23
S'Chris Thompson'
p489
sg25
S'--'
p490
sg27
S'L21-45'
p491
sg29
S'--'
p492
sg31
S'--'
p493
sg33
S'@DEN'
p494
sg35
S'--'
p495
sg37
S'--'
p496
sg39
S'--'
p497
sss.