(dp0
S'2015'
p1
(dp2
S'10'
p3
(dp4
S'RecAvg'
p5
S'--'
p6
sS'FUM'
p7
S'--'
p8
sS'GS'
p9
S'0'
p10
sS'Lost'
p11
S'--'
p12
sS'G'
p13
S'1'
p14
sS'RecTD'
p15
S'--'
p16
sS'Year'
p17
S'2015'
p18
sS'WK'
p19
S'10'
p20
sS'RushAvg'
p21
S'2.7'
p22
sS'Game Date'
p23
S'11/15'
p24
sS'RushTD'
p25
g10
sS'Player'
p26
S'Christine Michael'
p27
sS'RushAtt'
p28
S'3'
p29
sS'Result'
p30
S'L6-10'
p31
sS'RecYds'
p32
S'--'
p33
sS'Rec'
p34
S'--'
p35
sS'Opp'
p36
S'@TB'
p37
sS'RecLng'
p38
S'--'
p39
sS'RushYds'
p40
S'8'
p41
sS'RushLng'
p42
S'4'
p43
ssS'15'
p44
(dp45
g5
S'--'
p46
sg7
S'--'
p47
sg9
g10
sg11
S'--'
p48
sg13
g14
sg15
S'--'
p49
sg17
S'2015'
p50
sg19
S'15'
p51
sg21
S'5.3'
p52
sg23
S'12/20'
p53
sg25
g10
sg26
S'Christine Michael'
p54
sg28
S'16'
p55
sg30
S'W30-13'
p56
sg32
S'--'
p57
sg34
S'--'
p58
sg36
S'CLE'
p59
sg38
S'--'
p60
sg40
S'84'
p61
sg42
S'10'
p62
ssS'17'
p63
(dp64
g5
S'--'
p65
sg7
S'--'
p66
sg9
g14
sg11
S'--'
p67
sg13
g14
sg15
g10
sg17
S'2015'
p68
sg19
S'17'
p69
sg21
S'6.0'
p70
sg23
S'01/03'
p71
sg25
g10
sg26
S'Christine Michael'
p72
sg28
S'17'
p73
sg30
S'W36-6'
p74
sg32
g10
sg34
g10
sg36
S'@ARI'
p75
sg38
S'--'
p76
sg40
S'102'
p77
sg42
S'45'
p78
ssS'16'
p79
(dp80
g5
S'7.0'
p81
sg7
S'--'
p82
sg9
g14
sg11
S'--'
p83
sg13
g14
sg15
g10
sg17
S'2015'
p84
sg19
S'16'
p85
sg21
S'1.0'
p86
sg23
S'12/27'
p87
sg25
g10
sg26
S'Christine Michael'
p88
sg28
S'6'
p89
sg30
S'L17-23'
p90
sg32
S'14'
p91
sg34
S'2'
p92
sg36
S'STL'
p93
sg38
S'11'
p94
sg40
g89
sg42
S'5'
p95
ssg14
(dp96
g5
S'--'
p97
sg7
S'--'
p98
sg9
g10
sg11
S'--'
p99
sg13
g10
sg15
S'--'
p100
sg17
S'2015'
p101
sg19
g14
sg21
S'--'
p102
sg23
S'09/13'
p103
sg25
S'--'
p104
sg26
S'Christine Michael'
p105
sg28
S'--'
p106
sg30
S'W27-26'
p107
sg32
S'--'
p108
sg34
S'--'
p109
sg36
S'NYG'
p110
sg38
S'--'
p111
sg40
S'--'
p112
sg42
S'--'
p113
ssg29
(dp114
g5
S'--'
p115
sg7
S'--'
p116
sg9
g10
sg11
S'--'
p117
sg13
g10
sg15
S'--'
p118
sg17
S'2015'
p119
sg19
g29
sg21
S'--'
p120
sg23
S'09/27'
p121
sg25
S'--'
p122
sg26
S'Christine Michael'
p123
sg28
S'--'
p124
sg30
S'L28-39'
p125
sg32
S'--'
p126
sg34
S'--'
p127
sg36
S'ATL'
p128
sg38
S'--'
p129
sg40
S'--'
p130
sg42
S'--'
p131
ssg92
(dp132
g5
S'--'
p133
sg7
S'--'
p134
sg9
g10
sg11
S'--'
p135
sg13
g10
sg15
S'--'
p136
sg17
S'2015'
p137
sg19
g92
sg21
S'--'
p138
sg23
S'09/20'
p139
sg25
S'--'
p140
sg26
S'Christine Michael'
p141
sg28
S'--'
p142
sg30
S'W20-10'
p143
sg32
S'--'
p144
sg34
S'--'
p145
sg36
S'@PHI'
p146
sg38
S'--'
p147
sg40
S'--'
p148
sg42
S'--'
p149
ssg95
(dp150
g5
S'--'
p151
sg7
S'--'
p152
sg9
g10
sg11
S'--'
p153
sg13
g14
sg15
S'--'
p154
sg17
S'2015'
p155
sg19
g95
sg21
S'6.0'
p156
sg23
S'10/11'
p157
sg25
g10
sg26
S'Christine Michael'
p158
sg28
g14
sg30
S'L6-30'
p159
sg32
S'--'
p160
sg34
S'--'
p161
sg36
S'NE'
p162
sg38
S'--'
p163
sg40
g89
sg42
g89
ssg43
(dp164
g5
S'--'
p165
sg7
S'--'
p166
sg9
g10
sg11
S'--'
p167
sg13
g14
sg15
S'--'
p168
sg17
S'2015'
p169
sg19
g43
sg21
S'-1.0'
p170
sg23
S'10/04'
p171
sg25
g10
sg26
S'Christine Michael'
p172
sg28
g14
sg30
S'L20-26'
p173
sg32
S'--'
p174
sg34
S'--'
p175
sg36
S'@NO'
p176
sg38
S'--'
p177
sg40
S'-1'
p178
sg42
S'-1'
p179
ssS'7'
p180
(dp181
g5
S'2.0'
p182
sg7
S'--'
p183
sg9
g10
sg11
S'--'
p184
sg13
g14
sg15
g10
sg17
S'2015'
p185
sg19
g180
sg21
S'3.6'
p186
sg23
S'10/25'
p187
sg25
g10
sg26
S'Christine Michael'
p188
sg28
g95
sg30
S'L20-27'
p189
sg32
g92
sg34
g14
sg36
S'@NYG'
p190
sg38
g92
sg40
S'18'
p191
sg42
S'13'
p192
ssg89
(dp193
g5
S''
p194
sg7
g194
sg9
g194
sg11
g194
sg13
g194
sg15
g194
sg17
S'2015'
p195
sg19
g89
sg21
g194
sg23
S'Bye'
p196
sg25
g194
sg26
S'Christine Michael'
p197
sg28
g194
sg30
g194
sg32
g194
sg34
g194
sg36
g194
sg38
g194
sg40
g194
sg42
g194
ssS'9'
p198
(dp199
g5
S'--'
p200
sg7
S'--'
p201
sg9
g10
sg11
S'--'
p202
sg13
g10
sg15
S'--'
p203
sg17
S'2015'
p204
sg19
g198
sg21
S'--'
p205
sg23
S'11/08'
p206
sg25
S'--'
p207
sg26
S'Christine Michael'
p208
sg28
S'--'
p209
sg30
S'L27-33'
p210
sg32
S'--'
p211
sg34
S'--'
p212
sg36
S'PHI'
p213
sg38
S'--'
p214
sg40
S'--'
p215
sg42
S'--'
p216
ssg41
(dp217
g5
S'--'
p218
sg7
S'--'
p219
sg9
g10
sg11
S'--'
p220
sg13
g14
sg15
g10
sg17
S'2015'
p221
sg19
g41
sg21
S'4.0'
p222
sg23
S'11/01'
p223
sg25
g10
sg26
S'Christine Michael'
p224
sg28
g95
sg30
S'L12-13'
p225
sg32
g10
sg34
g10
sg36
S'SEA'
p226
sg38
S'--'
p227
sg40
S'20'
p228
sg42
g198
sssS'2014'
p229
(dp230
S'11'
p231
(dp232
g5
S'--'
p233
sg7
S'--'
p234
sg9
g10
sg11
S'--'
p235
sg13
g14
sg15
S'--'
p236
sg17
S'2014'
p237
sg19
S'11'
p238
sg21
S'-2.0'
p239
sg23
S'11/16'
p240
sg25
g10
sg26
S'Christine Michael'
p241
sg28
g14
sg30
S'L20-24'
p242
sg32
S'--'
p243
sg34
S'--'
p244
sg36
S'@KC'
p245
sg38
S'--'
p246
sg40
S'-2'
p247
sg42
S'-2'
p248
ssg3
(dp249
g5
S'--'
p250
sg7
S'--'
p251
sg9
g10
sg11
S'--'
p252
sg13
g14
sg15
S'--'
p253
sg17
S'2014'
p254
sg19
S'10'
p255
sg21
S'17.8'
p256
sg23
S'11/09'
p257
sg25
g10
sg26
S'Christine Michael'
p258
sg28
g43
sg30
S'W38-17'
p259
sg32
S'--'
p260
sg34
S'--'
p261
sg36
S'NYG'
p262
sg38
S'--'
p263
sg40
S'71'
p264
sg42
S'45'
p265
ssS'13'
p266
(dp267
g5
S'12.0'
p268
sg7
S'--'
p269
sg9
g10
sg11
S'--'
p270
sg13
g14
sg15
g10
sg17
S'2014'
p271
sg19
S'13'
p272
sg21
S'3.3'
p273
sg23
S'11/27'
p274
sg25
g10
sg26
S'Christine Michael'
p275
sg28
g29
sg30
S'W19-3'
p276
sg32
S'12'
p277
sg34
g14
sg36
S'@SF'
p278
sg38
S'12'
p279
sg40
S'10'
p280
sg42
g41
ssS'12'
p281
(dp282
g5
S'--'
p283
sg7
S'--'
p284
sg9
g10
sg11
S'--'
p285
sg13
g10
sg15
S'--'
p286
sg17
S'2014'
p287
sg19
S'12'
p288
sg21
S'--'
p289
sg23
S'11/23'
p290
sg25
S'--'
p291
sg26
S'Christine Michael'
p292
sg28
S'--'
p293
sg30
S'W19-3'
p294
sg32
S'--'
p295
sg34
S'--'
p296
sg36
S'ARI'
p297
sg38
S'--'
p298
sg40
S'--'
p299
sg42
S'--'
p300
ssg44
(dp301
g5
S'--'
p302
sg7
S'--'
p303
sg9
g10
sg11
S'--'
p304
sg13
g14
sg15
g10
sg17
S'2014'
p305
sg19
S'15'
p306
sg21
S'1.0'
p307
sg23
S'12/14'
p308
sg25
g10
sg26
S'Christine Michael'
p309
sg28
g14
sg30
S'W17-7'
p310
sg32
g10
sg34
g10
sg36
S'SF'
p311
sg38
S'--'
p312
sg40
g14
sg42
g14
ssS'14'
p313
(dp314
g5
S'--'
p315
sg7
S'--'
p316
sg9
g10
sg11
S'--'
p317
sg13
g14
sg15
S'--'
p318
sg17
S'2014'
p319
sg19
S'14'
p320
sg21
S'5.3'
p321
sg23
S'12/07'
p322
sg25
g10
sg26
S'Christine Michael'
p323
sg28
g89
sg30
S'W24-14'
p324
sg32
S'--'
p325
sg34
S'--'
p326
sg36
S'@PHI'
p327
sg38
S'--'
p328
sg40
S'32'
p329
sg42
S'11'
p330
ssg63
(dp331
g5
S'--'
p332
sg7
S'--'
p333
sg9
g10
sg11
S'--'
p334
sg13
g14
sg15
S'--'
p335
sg17
S'2014'
p336
sg19
S'17'
p337
sg21
S'2.0'
p338
sg23
S'12/28'
p339
sg25
g10
sg26
S'Christine Michael'
p340
sg28
g14
sg30
S'W20-6'
p341
sg32
S'--'
p342
sg34
S'--'
p343
sg36
S'STL'
p344
sg38
S'--'
p345
sg40
g92
sg42
g92
ssg79
(dp346
g5
S'--'
p347
sg7
g14
sg9
g10
sg11
g10
sg13
g14
sg15
S'--'
p348
sg17
S'2014'
p349
sg19
S'16'
p350
sg21
S'3.5'
p351
sg23
S'12/21'
p352
sg25
g10
sg26
S'Christine Michael'
p353
sg28
g41
sg30
S'W35-6'
p354
sg32
S'--'
p355
sg34
S'--'
p356
sg36
S'@ARI'
p357
sg38
S'--'
p358
sg40
S'28'
p359
sg42
S'15'
p360
ssg14
(dp361
g5
S'--'
p362
sg7
S'--'
p363
sg9
g10
sg11
S'--'
p364
sg13
g10
sg15
S'--'
p365
sg17
S'2014'
p366
sg19
g14
sg21
S'--'
p367
sg23
S'09/04'
p368
sg25
S'--'
p369
sg26
S'Christine Michael'
p370
sg28
S'--'
p371
sg30
S'W36-16'
p372
sg32
S'--'
p373
sg34
S'--'
p374
sg36
S'GB'
p375
sg38
S'--'
p376
sg40
S'--'
p377
sg42
S'--'
p378
ssg29
(dp379
g5
S'--'
p380
sg7
S'--'
p381
sg9
g10
sg11
S'--'
p382
sg13
g10
sg15
S'--'
p383
sg17
S'2014'
p384
sg19
g29
sg21
S'--'
p385
sg23
S'09/21'
p386
sg25
S'--'
p387
sg26
S'Christine Michael'
p388
sg28
S'--'
p389
sg30
S'W26-20'
p390
sg32
S'--'
p391
sg34
S'--'
p392
sg36
S'DEN'
p393
sg38
S'--'
p394
sg40
S'--'
p395
sg42
S'--'
p396
ssg92
(dp397
g5
S'--'
p398
sg7
S'--'
p399
sg9
g10
sg11
S'--'
p400
sg13
g10
sg15
S'--'
p401
sg17
S'2014'
p402
sg19
g92
sg21
S'--'
p403
sg23
S'09/14'
p404
sg25
S'--'
p405
sg26
S'Christine Michael'
p406
sg28
S'--'
p407
sg30
S'L21-30'
p408
sg32
S'--'
p409
sg34
S'--'
p410
sg36
S'@SD'
p411
sg38
S'--'
p412
sg40
S'--'
p413
sg42
S'--'
p414
ssg95
(dp415
g5
S'--'
p416
sg7
S'--'
p417
sg9
g10
sg11
S'--'
p418
sg13
g10
sg15
S'--'
p419
sg17
S'2014'
p420
sg19
g95
sg21
S'--'
p421
sg23
S'10/06'
p422
sg25
S'--'
p423
sg26
S'Christine Michael'
p424
sg28
S'--'
p425
sg30
S'W27-17'
p426
sg32
S'--'
p427
sg34
S'--'
p428
sg36
S'@WAS'
p429
sg38
S'--'
p430
sg40
S'--'
p431
sg42
S'--'
p432
ssg43
(dp433
g5
g194
sg7
g194
sg9
g194
sg11
g194
sg13
g194
sg15
g194
sg17
S'2014'
p434
sg19
g43
sg21
g194
sg23
S'Bye'
p435
sg25
g194
sg26
S'Christine Michael'
p436
sg28
g194
sg30
g194
sg32
g194
sg34
g194
sg36
g194
sg38
g194
sg40
g194
sg42
g194
ssg180
(dp437
g5
S'--'
p438
sg7
S'--'
p439
sg9
g10
sg11
S'--'
p440
sg13
g14
sg15
S'--'
p441
sg17
S'2014'
p442
sg19
g180
sg21
S'2.5'
p443
sg23
S'10/19'
p444
sg25
g10
sg26
S'Christine Michael'
p445
sg28
g92
sg30
S'L26-28'
p446
sg32
S'--'
p447
sg34
S'--'
p448
sg36
S'@STL'
p449
sg38
S'--'
p450
sg40
g95
sg42
g29
ssg89
(dp451
g5
S'--'
p452
sg7
S'--'
p453
sg9
g10
sg11
S'--'
p454
sg13
g10
sg15
S'--'
p455
sg17
S'2014'
p456
sg19
g89
sg21
S'--'
p457
sg23
S'10/12'
p458
sg25
S'--'
p459
sg26
S'Christine Michael'
p460
sg28
S'--'
p461
sg30
S'L23-30'
p462
sg32
S'--'
p463
sg34
S'--'
p464
sg36
S'DAL'
p465
sg38
S'--'
p466
sg40
S'--'
p467
sg42
S'--'
p468
ssg198
(dp469
g5
S'--'
p470
sg7
S'--'
p471
sg9
g10
sg11
S'--'
p472
sg13
g14
sg15
S'--'
p473
sg17
S'2014'
p474
sg19
g198
sg21
S'4.0'
p475
sg23
S'11/02'
p476
sg25
g10
sg26
S'Christine Michael'
p477
sg28
g43
sg30
S'W30-24'
p478
sg32
S'--'
p479
sg34
S'--'
p480
sg36
S'OAK'
p481
sg38
S'--'
p482
sg40
S'16'
p483
sg42
g41
ssg41
(dp484
g5
S'--'
p485
sg7
S'--'
p486
sg9
g10
sg11
S'--'
p487
sg13
g14
sg15
S'--'
p488
sg17
S'2014'
p489
sg19
g41
sg21
S'3.0'
p490
sg23
S'10/26'
p491
sg25
g10
sg26
S'Christine Michael'
p492
sg28
g43
sg30
S'W13-9'
p493
sg32
S'--'
p494
sg34
S'--'
p495
sg36
S'@CAR'
p496
sg38
S'--'
p497
sg40
S'12'
p498
sg42
g89
sssS'2013'
p499
(dp500
g231
(dp501
g5
S'--'
p502
sg7
S'--'
p503
sg9
g10
sg11
S'--'
p504
sg13
g14
sg15
S'--'
p505
sg17
S'2013'
p506
sg19
S'11'
p507
sg21
S'9.0'
p508
sg23
S'11/17'
p509
sg25
g10
sg26
S'Christine Michael'
p510
sg28
g14
sg30
S'W41-20'
p511
sg32
S'--'
p512
sg34
S'--'
p513
sg36
S'MIN'
p514
sg38
S'--'
p515
sg40
g198
sg42
g198
ssg3
(dp516
g5
S'--'
p517
sg7
S'--'
p518
sg9
g10
sg11
S'--'
p519
sg13
g14
sg15
S'--'
p520
sg17
S'2013'
p521
sg19
S'10'
p522
sg21
S'4.1'
p523
sg23
S'11/10'
p524
sg25
g10
sg26
S'Christine Michael'
p525
sg28
g41
sg30
S'W33-10'
p526
sg32
S'--'
p527
sg34
S'--'
p528
sg36
S'@ATL'
p529
sg38
S'--'
p530
sg40
S'33'
p531
sg42
S'13'
p532
ssg266
(dp533
g5
S'--'
p534
sg7
S'--'
p535
sg9
g10
sg11
S'--'
p536
sg13
g10
sg15
S'--'
p537
sg17
S'2013'
p538
sg19
S'13'
p539
sg21
S'--'
p540
sg23
S'12/02'
p541
sg25
S'--'
p542
sg26
S'Christine Michael'
p543
sg28
S'--'
p544
sg30
S'W34-7'
p545
sg32
S'--'
p546
sg34
S'--'
p547
sg36
S'NO'
p548
sg38
S'--'
p549
sg40
S'--'
p550
sg42
S'--'
p551
ssg281
(dp552
g5
g194
sg7
g194
sg9
g194
sg11
g194
sg13
g194
sg15
g194
sg17
S'2013'
p553
sg19
S'12'
p554
sg21
g194
sg23
S'Bye'
p555
sg25
g194
sg26
S'Christine Michael'
p556
sg28
g194
sg30
g194
sg32
g194
sg34
g194
sg36
g194
sg38
g194
sg40
g194
sg42
g194
ssg44
(dp557
g5
S'--'
p558
sg7
S'--'
p559
sg9
g10
sg11
S'--'
p560
sg13
g10
sg15
S'--'
p561
sg17
S'2013'
p562
sg19
S'15'
p563
sg21
S'--'
p564
sg23
S'12/15'
p565
sg25
S'--'
p566
sg26
S'Christine Michael'
p567
sg28
S'--'
p568
sg30
S'W23-0'
p569
sg32
S'--'
p570
sg34
S'--'
p571
sg36
S'@NYG'
p572
sg38
S'--'
p573
sg40
S'--'
p574
sg42
S'--'
p575
ssg313
(dp576
g5
S'--'
p577
sg7
S'--'
p578
sg9
g10
sg11
S'--'
p579
sg13
g10
sg15
S'--'
p580
sg17
S'2013'
p581
sg19
S'14'
p582
sg21
S'--'
p583
sg23
S'12/08'
p584
sg25
S'--'
p585
sg26
S'Christine Michael'
p586
sg28
S'--'
p587
sg30
S'L17-19'
p588
sg32
S'--'
p589
sg34
S'--'
p590
sg36
S'@SF'
p591
sg38
S'--'
p592
sg40
S'--'
p593
sg42
S'--'
p594
ssg63
(dp595
g5
S'--'
p596
sg7
S'--'
p597
sg9
g10
sg11
S'--'
p598
sg13
g10
sg15
S'--'
p599
sg17
S'2013'
p600
sg19
S'17'
p601
sg21
S'--'
p602
sg23
S'12/29'
p603
sg25
S'--'
p604
sg26
S'Christine Michael'
p605
sg28
S'--'
p606
sg30
S'W27-9'
p607
sg32
S'--'
p608
sg34
S'--'
p609
sg36
S'STL'
p610
sg38
S'--'
p611
sg40
S'--'
p612
sg42
S'--'
p613
ssg79
(dp614
g5
S'--'
p615
sg7
S'--'
p616
sg9
g10
sg11
S'--'
p617
sg13
g10
sg15
S'--'
p618
sg17
S'2013'
p619
sg19
S'16'
p620
sg21
S'--'
p621
sg23
S'12/22'
p622
sg25
S'--'
p623
sg26
S'Christine Michael'
p624
sg28
S'--'
p625
sg30
S'L10-17'
p626
sg32
S'--'
p627
sg34
S'--'
p628
sg36
S'ARI'
p629
sg38
S'--'
p630
sg40
S'--'
p631
sg42
S'--'
p632
ssg14
(dp633
g5
S'--'
p634
sg7
S'--'
p635
sg9
g10
sg11
S'--'
p636
sg13
g10
sg15
S'--'
p637
sg17
S'2013'
p638
sg19
g14
sg21
S'--'
p639
sg23
S'09/08'
p640
sg25
S'--'
p641
sg26
S'Christine Michael'
p642
sg28
S'--'
p643
sg30
S'W12-7'
p644
sg32
S'--'
p645
sg34
S'--'
p646
sg36
S'@CAR'
p647
sg38
S'--'
p648
sg40
S'--'
p649
sg42
S'--'
p650
ssg29
(dp651
g5
S'--'
p652
sg7
S'--'
p653
sg9
g10
sg11
S'--'
p654
sg13
g14
sg15
S'--'
p655
sg17
S'2013'
p656
sg19
g29
sg21
S'4.1'
p657
sg23
S'09/22'
p658
sg25
g10
sg26
S'Christine Michael'
p659
sg28
g198
sg30
S'W45-17'
p660
sg32
S'--'
p661
sg34
S'--'
p662
sg36
S'JAC'
p663
sg38
S'--'
p664
sg40
S'37'
p665
sg42
S'11'
p666
ssg92
(dp667
g5
S'--'
p668
sg7
S'--'
p669
sg9
g10
sg11
S'--'
p670
sg13
g10
sg15
S'--'
p671
sg17
S'2013'
p672
sg19
g92
sg21
S'--'
p673
sg23
S'09/15'
p674
sg25
S'--'
p675
sg26
S'Christine Michael'
p676
sg28
S'--'
p677
sg30
S'W29-3'
p678
sg32
S'--'
p679
sg34
S'--'
p680
sg36
S'SF'
p681
sg38
S'--'
p682
sg40
S'--'
p683
sg42
S'--'
p684
ssg95
(dp685
g5
S'--'
p686
sg7
S'--'
p687
sg9
g10
sg11
S'--'
p688
sg13
g14
sg15
S'--'
p689
sg17
S'2013'
p690
sg19
g95
sg21
S'--'
p691
sg23
S'10/06'
p692
sg25
S'--'
p693
sg26
S'Christine Michael'
p694
sg28
S'--'
p695
sg30
S'L28-34'
p696
sg32
S'--'
p697
sg34
S'--'
p698
sg36
S'@IND'
p699
sg38
S'--'
p700
sg40
S'--'
p701
sg42
S'--'
p702
ssg43
(dp703
g5
S'--'
p704
sg7
S'--'
p705
sg9
g10
sg11
S'--'
p706
sg13
g10
sg15
S'--'
p707
sg17
S'2013'
p708
sg19
g43
sg21
S'--'
p709
sg23
S'09/29'
p710
sg25
S'--'
p711
sg26
S'Christine Michael'
p712
sg28
S'--'
p713
sg30
S'W23-20'
p714
sg32
S'--'
p715
sg34
S'--'
p716
sg36
S'@HOU'
p717
sg38
S'--'
p718
sg40
S'--'
p719
sg42
S'--'
p720
ssg180
(dp721
g5
S'--'
p722
sg7
S'--'
p723
sg9
g10
sg11
S'--'
p724
sg13
g10
sg15
S'--'
p725
sg17
S'2013'
p726
sg19
g180
sg21
S'--'
p727
sg23
S'10/17'
p728
sg25
S'--'
p729
sg26
S'Christine Michael'
p730
sg28
S'--'
p731
sg30
S'W34-22'
p732
sg32
S'--'
p733
sg34
S'--'
p734
sg36
S'@ARI'
p735
sg38
S'--'
p736
sg40
S'--'
p737
sg42
S'--'
p738
ssg89
(dp739
g5
S'--'
p740
sg7
S'--'
p741
sg9
g10
sg11
S'--'
p742
sg13
g10
sg15
S'--'
p743
sg17
S'2013'
p744
sg19
g89
sg21
S'--'
p745
sg23
S'10/13'
p746
sg25
S'--'
p747
sg26
S'Christine Michael'
p748
sg28
S'--'
p749
sg30
S'W20-13'
p750
sg32
S'--'
p751
sg34
S'--'
p752
sg36
S'TEN'
p753
sg38
S'--'
p754
sg40
S'--'
p755
sg42
S'--'
p756
ssg198
(dp757
g5
S'--'
p758
sg7
S'--'
p759
sg9
g10
sg11
S'--'
p760
sg13
g10
sg15
S'--'
p761
sg17
S'2013'
p762
sg19
g198
sg21
S'--'
p763
sg23
S'11/03'
p764
sg25
S'--'
p765
sg26
S'Christine Michael'
p766
sg28
S'--'
p767
sg30
S'W27-24'
p768
sg32
S'--'
p769
sg34
S'--'
p770
sg36
S'TB'
p771
sg38
S'--'
p772
sg40
S'--'
p773
sg42
S'--'
p774
ssg41
(dp775
g5
S'--'
p776
sg7
S'--'
p777
sg9
g10
sg11
S'--'
p778
sg13
g10
sg15
S'--'
p779
sg17
S'2013'
p780
sg19
g41
sg21
S'--'
p781
sg23
S'10/28'
p782
sg25
S'--'
p783
sg26
S'Christine Michael'
p784
sg28
S'--'
p785
sg30
S'W14-9'
p786
sg32
S'--'
p787
sg34
S'--'
p788
sg36
S'@STL'
p789
sg38
S'--'
p790
sg40
S'--'
p791
sg42
S'--'
p792
sss.