(dp0
S'2015'
p1
(dp2
S'11'
p3
(dp4
S'RecAvg'
p5
S'9.0'
p6
sS'FUM'
p7
S'--'
p8
sS'GS'
p9
S'1'
p10
sS'Lost'
p11
S'--'
p12
sS'G'
p13
g10
sS'RecTD'
p14
S'0'
p15
sS'Year'
p16
S'2015'
p17
sS'WK'
p18
S'11'
p19
sS'RushAvg'
p20
S'4.5'
p21
sS'Game Date'
p22
S'11/22'
p23
sS'RushTD'
p24
g15
sS'Player'
p25
S'Chris Ivory'
p26
sS'RushAtt'
p27
S'8'
p28
sS'Result'
p29
S'L17-24'
p30
sS'RecYds'
p31
S'9'
p32
sS'Rec'
p33
g10
sS'Opp'
p34
S'@HOU'
p35
sS'RecLng'
p36
g32
sS'RushYds'
p37
S'36'
p38
sS'RushLng'
p39
S'23'
p40
ssS'10'
p41
(dp42
g5
S'18.0'
p43
sg7
g10
sg9
g10
sg11
g10
sg13
g10
sg14
g15
sg16
S'2015'
p44
sg18
S'10'
p45
sg20
S'5.5'
p46
sg22
S'11/12'
p47
sg24
g15
sg25
S'Chris Ivory'
p48
sg27
S'18'
p49
sg29
S'L17-22'
p50
sg31
S'36'
p51
sg33
S'2'
p52
sg34
S'BUF'
p53
sg36
S'36'
p54
sg37
S'99'
p55
sg39
S'21'
p56
ssS'13'
p57
(dp58
g5
S'4.4'
p59
sg7
g10
sg9
g10
sg11
g10
sg13
g10
sg14
g15
sg16
S'2015'
p60
sg18
S'13'
p61
sg20
S'4.7'
p62
sg22
S'12/06'
p63
sg24
g15
sg25
S'Chris Ivory'
p64
sg27
S'10'
p65
sg29
S'W23-20'
p66
sg31
S'22'
p67
sg33
S'5'
p68
sg34
S'@NYG'
p69
sg36
S'11'
p70
sg37
S'47'
p71
sg39
S'20'
p72
ssS'12'
p73
(dp74
g5
S'7.5'
p75
sg7
S'--'
p76
sg9
g10
sg11
S'--'
p77
sg13
g10
sg14
g15
sg16
S'2015'
p78
sg18
S'12'
p79
sg20
S'4.1'
p80
sg22
S'11/29'
p81
sg24
g10
sg25
S'Chris Ivory'
p82
sg27
S'21'
p83
sg29
S'W38-20'
p84
sg31
S'15'
p85
sg33
g52
sg34
S'MIA'
p86
sg36
g32
sg37
S'87'
p87
sg39
S'31T'
p88
ssS'15'
p89
(dp90
g5
S'5.0'
p91
sg7
S'--'
p92
sg9
g10
sg11
S'--'
p93
sg13
g10
sg14
g15
sg16
S'2015'
p94
sg18
S'15'
p95
sg20
S'2.8'
p96
sg22
S'12/19'
p97
sg24
g15
sg25
S'Chris Ivory'
p98
sg27
S'13'
p99
sg29
S'W19-16'
p100
sg31
g68
sg33
g10
sg34
S'@DAL'
p101
sg36
g68
sg37
S'37'
p102
sg39
g28
ssS'14'
p103
(dp104
g5
S'6.0'
p105
sg7
S'--'
p106
sg9
g10
sg11
S'--'
p107
sg13
g10
sg14
g15
sg16
S'2015'
p108
sg18
S'14'
p109
sg20
S'4.6'
p110
sg22
S'12/13'
p111
sg24
g15
sg25
S'Chris Ivory'
p112
sg27
S'22'
p113
sg29
S'W30-8'
p114
sg31
S'6'
p115
sg33
g10
sg34
S'TEN'
p116
sg36
g115
sg37
S'101'
p117
sg39
S'32'
p118
ssS'17'
p119
(dp120
g5
S'--'
p121
sg7
S'--'
p122
sg9
g15
sg11
S'--'
p123
sg13
g10
sg14
S'--'
p124
sg16
S'2015'
p125
sg18
S'17'
p126
sg20
S'13.5'
p127
sg22
S'01/03'
p128
sg24
g15
sg25
S'Chris Ivory'
p129
sg27
g115
sg29
S'L17-22'
p130
sg31
S'--'
p131
sg33
S'--'
p132
sg34
S'@BUF'
p133
sg36
S'--'
p134
sg37
S'81'
p135
sg39
S'58'
p136
ssS'16'
p137
(dp138
g5
S'1.0'
p139
sg7
g10
sg9
g10
sg11
g15
sg13
g10
sg14
g15
sg16
S'2015'
p140
sg18
S'16'
p141
sg20
S'3.5'
p142
sg22
S'12/27'
p143
sg24
g15
sg25
S'Chris Ivory'
p144
sg27
S'11'
p145
sg29
S'W26-20'
p146
sg31
S'4'
p147
sg33
g147
sg34
S'NE'
p148
sg36
g115
sg37
S'38'
p149
sg39
S'17'
p150
ssg10
(dp151
g5
S'9.0'
p152
sg7
S'--'
p153
sg9
g10
sg11
S'--'
p154
sg13
g10
sg14
g15
sg16
S'2015'
p155
sg18
g10
sg20
S'4.6'
p156
sg22
S'09/13'
p157
sg24
g52
sg25
S'Chris Ivory'
p158
sg27
S'20'
p159
sg29
S'W31-10'
p160
sg31
g32
sg33
g10
sg34
S'CLE'
p161
sg36
g32
sg37
S'91'
p162
sg39
S'19'
p163
ssS'3'
p164
(dp165
g5
S'--'
p166
sg7
S'--'
p167
sg9
g15
sg11
S'--'
p168
sg13
g15
sg14
S'--'
p169
sg16
S'2015'
p170
sg18
g164
sg20
S'--'
p171
sg22
S'09/27'
p172
sg24
S'--'
p173
sg25
S'Chris Ivory'
p174
sg27
S'--'
p175
sg29
S'L17-24'
p176
sg31
S'--'
p177
sg33
S'--'
p178
sg34
S'PHI'
p179
sg36
S'--'
p180
sg37
S'--'
p181
sg39
S'--'
p182
ssg52
(dp183
g5
S'1.5'
p184
sg7
S'--'
p185
sg9
g10
sg11
S'--'
p186
sg13
g10
sg14
g15
sg16
S'2015'
p187
sg18
g52
sg20
S'4.1'
p188
sg22
S'09/21'
p189
sg24
g15
sg25
S'Chris Ivory'
p190
sg27
S'14'
p191
sg29
S'W20-7'
p192
sg31
g164
sg33
g52
sg34
S'@IND'
p193
sg36
g52
sg37
S'57'
p194
sg39
S'19'
p195
ssg68
(dp196
g5
S''
p197
sg7
g197
sg9
g197
sg11
g197
sg13
g197
sg14
g197
sg16
S'2015'
p198
sg18
g68
sg20
g197
sg22
S'Bye'
p199
sg24
g197
sg25
S'Chris Ivory'
p200
sg27
g197
sg29
g197
sg31
g197
sg33
g197
sg34
g197
sg36
g197
sg37
g197
sg39
g197
ssg147
(dp201
g5
S'--'
p202
sg7
S'--'
p203
sg9
g10
sg11
S'--'
p204
sg13
g10
sg14
g15
sg16
S'2015'
p205
sg18
g147
sg20
S'5.7'
p206
sg22
S'10/04'
p207
sg24
g10
sg25
S'Chris Ivory'
p208
sg27
S'29'
p209
sg29
S'W27-14'
p210
sg31
g15
sg33
g15
sg34
S'@MIA'
p211
sg36
S'--'
p212
sg37
S'166'
p213
sg39
S'24'
p214
ssS'7'
p215
(dp216
g5
S'6.0'
p217
sg7
S'--'
p218
sg9
g10
sg11
S'--'
p219
sg13
g10
sg14
g10
sg16
S'2015'
p220
sg18
g215
sg20
S'2.4'
p221
sg22
S'10/25'
p222
sg24
g15
sg25
S'Chris Ivory'
p223
sg27
S'17'
p224
sg29
S'L23-30'
p225
sg31
S'12'
p226
sg33
g52
sg34
S'@NE'
p227
sg36
S'9T'
p228
sg37
S'41'
p229
sg39
g215
ssg115
(dp230
g5
S'16.7'
p231
sg7
S'--'
p232
sg9
g10
sg11
S'--'
p233
sg13
g10
sg14
g15
sg16
S'2015'
p234
sg18
g115
sg20
S'7.3'
p235
sg22
S'10/18'
p236
sg24
g10
sg25
S'Chris Ivory'
p237
sg27
S'20'
p238
sg29
S'W34-20'
p239
sg31
S'50'
p240
sg33
g164
sg34
S'WAS'
p241
sg36
S'24'
p242
sg37
S'146'
p243
sg39
S'54'
p244
ssg32
(dp245
g5
S'7.3'
p246
sg7
g10
sg9
g10
sg11
g15
sg13
g10
sg14
g15
sg16
S'2015'
p247
sg18
g32
sg20
S'1.1'
p248
sg22
S'11/08'
p249
sg24
g52
sg25
S'Chris Ivory'
p250
sg27
S'23'
p251
sg29
S'W28-23'
p252
sg31
S'22'
p253
sg33
g164
sg34
S'JAC'
p254
sg36
S'16'
p255
sg37
S'26'
p256
sg39
g32
ssg28
(dp257
g5
S'8.0'
p258
sg7
S'--'
p259
sg9
g10
sg11
S'--'
p260
sg13
g10
sg14
g15
sg16
S'2015'
p261
sg18
g28
sg20
S'1.1'
p262
sg22
S'11/01'
p263
sg24
g15
sg25
S'Chris Ivory'
p264
sg27
S'15'
p265
sg29
S'L20-34'
p266
sg31
S'24'
p267
sg33
g164
sg34
S'@OAK'
p268
sg36
g32
sg37
S'17'
p269
sg39
g215
sssS'2014'
p270
(dp271
g3
(dp272
g5
g197
sg7
g197
sg9
g197
sg11
g197
sg13
g197
sg14
g197
sg16
S'2014'
p273
sg18
S'11'
p274
sg20
g197
sg22
S'Bye'
p275
sg24
g197
sg25
S'Chris Ivory'
p276
sg27
g197
sg29
g197
sg31
g197
sg33
g197
sg34
g197
sg36
g197
sg37
g197
sg39
g197
ssg41
(dp277
g5
S'--'
p278
sg7
S'--'
p279
sg9
g15
sg11
S'--'
p280
sg13
g10
sg14
S'--'
p281
sg16
S'2014'
p282
sg18
S'10'
p283
sg20
S'3.6'
p284
sg22
S'11/09'
p285
sg24
g15
sg25
S'Chris Ivory'
p286
sg27
S'14'
p287
sg29
S'W20-13'
p288
sg31
S'--'
p289
sg33
S'--'
p290
sg34
S'PIT'
p291
sg36
S'--'
p292
sg37
S'51'
p293
sg39
S'12'
p294
ssg57
(dp295
g5
S'--'
p296
sg7
S'--'
p297
sg9
g10
sg11
S'--'
p298
sg13
g10
sg14
S'--'
p299
sg16
S'2014'
p300
sg18
S'13'
p301
sg20
S'3.9'
p302
sg22
S'12/01'
p303
sg24
g15
sg25
S'Chris Ivory'
p304
sg27
S'16'
p305
sg29
S'L13-16'
p306
sg31
S'--'
p307
sg33
S'--'
p308
sg34
S'MIA'
p309
sg36
S'--'
p310
sg37
S'62'
p311
sg39
S'11'
p312
ssg73
(dp313
g5
S'2.3'
p314
sg7
S'--'
p315
sg9
g10
sg11
S'--'
p316
sg13
g10
sg14
g15
sg16
S'2014'
p317
sg18
S'12'
p318
sg20
S'4.4'
p319
sg22
S'11/24'
p320
sg24
g15
sg25
S'Chris Ivory'
p321
sg27
g215
sg29
S'L3-38'
p322
sg31
g215
sg33
g164
sg34
S'@BUF'
p323
sg36
g115
sg37
S'31'
p324
sg39
S'17'
p325
ssg89
(dp326
g5
S'1.0'
p327
sg7
S'--'
p328
sg9
g15
sg11
S'--'
p329
sg13
g10
sg14
g15
sg16
S'2014'
p330
sg18
S'15'
p331
sg20
S'2.1'
p332
sg22
S'12/14'
p333
sg24
g10
sg25
S'Chris Ivory'
p334
sg27
S'12'
p335
sg29
S'W16-11'
p336
sg31
g10
sg33
g10
sg34
S'@TEN'
p337
sg36
g10
sg37
S'25'
p338
sg39
S'12'
p339
ssg103
(dp340
g5
S'4.0'
p341
sg7
g10
sg9
g10
sg11
g10
sg13
g10
sg14
g15
sg16
S'2014'
p342
sg18
S'14'
p343
sg20
S'4.6'
p344
sg22
S'12/07'
p345
sg24
g15
sg25
S'Chris Ivory'
p346
sg27
S'16'
p347
sg29
S'L24-30'
p348
sg31
g147
sg33
g10
sg34
S'@MIN'
p349
sg36
g147
sg37
S'73'
p350
sg39
S'15'
p351
ssg119
(dp352
g5
S'8.0'
p353
sg7
S'--'
p354
sg9
g10
sg11
S'--'
p355
sg13
g10
sg14
g10
sg16
S'2014'
p356
sg18
S'17'
p357
sg20
S'2.2'
p358
sg22
S'12/28'
p359
sg24
g15
sg25
S'Chris Ivory'
p360
sg27
S'13'
p361
sg29
S'W37-24'
p362
sg31
g28
sg33
g10
sg34
S'@MIA'
p363
sg36
S'8T'
p364
sg37
S'29'
p365
sg39
g32
ssg137
(dp366
g5
S'--'
p367
sg7
S'--'
p368
sg9
g15
sg11
S'--'
p369
sg13
g10
sg14
S'--'
p370
sg16
S'2014'
p371
sg18
S'16'
p372
sg20
S'4.8'
p373
sg22
S'12/21'
p374
sg24
g15
sg25
S'Chris Ivory'
p375
sg27
S'11'
p376
sg29
S'L16-17'
p377
sg31
S'--'
p378
sg33
S'--'
p379
sg34
S'NE'
p380
sg36
S'--'
p381
sg37
S'53'
p382
sg39
S'16'
p383
ssg10
(dp384
g5
S'--'
p385
sg7
S'--'
p386
sg9
g15
sg11
S'--'
p387
sg13
g10
sg14
S'--'
p388
sg16
S'2014'
p389
sg18
g10
sg20
S'10.2'
p390
sg22
S'09/07'
p391
sg24
g10
sg25
S'Chris Ivory'
p392
sg27
S'10'
p393
sg29
S'W19-14'
p394
sg31
S'--'
p395
sg33
S'--'
p396
sg34
S'OAK'
p397
sg36
S'--'
p398
sg37
S'102'
p399
sg39
S'71T'
p400
ssg164
(dp401
g5
S'13.0'
p402
sg7
g10
sg9
g15
sg11
g15
sg13
g10
sg14
g15
sg16
S'2014'
p403
sg18
g164
sg20
S'4.4'
p404
sg22
S'09/22'
p405
sg24
g15
sg25
S'Chris Ivory'
p406
sg27
S'10'
p407
sg29
S'L19-27'
p408
sg31
S'52'
p409
sg33
g147
sg34
S'CHI'
p410
sg36
S'23'
p411
sg37
S'44'
p412
sg39
S'17'
p413
ssg52
(dp414
g5
S'3.0'
p415
sg7
S'--'
p416
sg9
g15
sg11
S'--'
p417
sg13
g10
sg14
g15
sg16
S'2014'
p418
sg18
g52
sg20
S'3.4'
p419
sg22
S'09/14'
p420
sg24
g10
sg25
S'Chris Ivory'
p421
sg27
S'13'
p422
sg29
S'L24-31'
p423
sg31
g164
sg33
g10
sg34
S'@GB'
p424
sg36
g164
sg37
S'44'
p425
sg39
g32
ssg68
(dp426
g5
S'--'
p427
sg7
S'--'
p428
sg9
g10
sg11
S'--'
p429
sg13
g10
sg14
g15
sg16
S'2014'
p430
sg18
g68
sg20
S'4.9'
p431
sg22
S'10/05'
p432
sg24
g15
sg25
S'Chris Ivory'
p433
sg27
g32
sg29
S'L0-31'
p434
sg31
g15
sg33
g15
sg34
S'@SD'
p435
sg36
S'--'
p436
sg37
S'44'
p437
sg39
S'11'
p438
ssg147
(dp439
g5
S'8.0'
p440
sg7
S'--'
p441
sg9
g10
sg11
S'--'
p442
sg13
g10
sg14
g15
sg16
S'2014'
p443
sg18
g147
sg20
S'4.9'
p444
sg22
S'09/28'
p445
sg24
g15
sg25
S'Chris Ivory'
p446
sg27
S'17'
p447
sg29
S'L17-24'
p448
sg31
S'16'
p449
sg33
g52
sg34
S'DET'
p450
sg36
g28
sg37
S'84'
p451
sg39
S'17'
p452
ssg215
(dp453
g5
S'4.5'
p454
sg7
S'--'
p455
sg9
g10
sg11
S'--'
p456
sg13
g10
sg14
g15
sg16
S'2014'
p457
sg18
g215
sg20
S'5.1'
p458
sg22
S'10/16'
p459
sg24
g10
sg25
S'Chris Ivory'
p460
sg27
S'21'
p461
sg29
S'L25-27'
p462
sg31
S'18'
p463
sg33
g147
sg34
S'@NE'
p464
sg36
g215
sg37
S'107'
p465
sg39
S'16'
p466
ssg115
(dp467
g5
S'14.0'
p468
sg7
S'--'
p469
sg9
g10
sg11
S'--'
p470
sg13
g10
sg14
g15
sg16
S'2014'
p471
sg18
g115
sg20
S'0.9'
p472
sg22
S'10/12'
p473
sg24
g15
sg25
S'Chris Ivory'
p474
sg27
g28
sg29
S'L17-31'
p475
sg31
S'14'
p476
sg33
g10
sg34
S'DEN'
p477
sg36
S'14'
p478
sg37
g215
sg39
g68
ssg32
(dp479
g5
S'--'
p480
sg7
S'--'
p481
sg9
g10
sg11
S'--'
p482
sg13
g10
sg14
S'--'
p483
sg16
S'2014'
p484
sg18
g32
sg20
S'2.8'
p485
sg22
S'11/02'
p486
sg24
g15
sg25
S'Chris Ivory'
p487
sg27
g28
sg29
S'L10-24'
p488
sg31
S'--'
p489
sg33
S'--'
p490
sg34
S'@KC'
p491
sg36
S'--'
p492
sg37
S'22'
p493
sg39
g115
ssg28
(dp494
g5
S'--'
p495
sg7
S'--'
p496
sg9
g10
sg11
S'--'
p497
sg13
g10
sg14
g15
sg16
S'2014'
p498
sg18
g28
sg20
S'3.3'
p499
sg22
S'10/26'
p500
sg24
g52
sg25
S'Chris Ivory'
p501
sg27
S'13'
p502
sg29
S'L23-43'
p503
sg31
g15
sg33
g15
sg34
S'BUF'
p504
sg36
S'--'
p505
sg37
S'43'
p506
sg39
g32
sssS'2011'
p507
(dp508
g3
(dp509
g5
g197
sg7
g197
sg9
g197
sg11
g197
sg13
g197
sg14
g197
sg16
S'2011'
p510
sg18
S'11'
p511
sg20
g197
sg22
S'Bye'
p512
sg24
g197
sg25
S'Chris Ivory'
p513
sg27
g197
sg29
g197
sg31
g197
sg33
g197
sg34
g197
sg36
g197
sg37
g197
sg39
g197
ssg41
(dp514
g5
S'--'
p515
sg7
S'--'
p516
sg9
g15
sg11
S'--'
p517
sg13
g15
sg14
S'--'
p518
sg16
S'2011'
p519
sg18
S'10'
p520
sg20
S'--'
p521
sg22
S'11/13'
p522
sg24
S'--'
p523
sg25
S'Chris Ivory'
p524
sg27
S'--'
p525
sg29
S'W26-23'
p526
sg31
S'--'
p527
sg33
S'--'
p528
sg34
S'@ATL'
p529
sg36
S'--'
p530
sg37
S'--'
p531
sg39
S'--'
p532
ssg57
(dp533
g5
S'--'
p534
sg7
S'--'
p535
sg9
g15
sg11
S'--'
p536
sg13
g15
sg14
S'--'
p537
sg16
S'2011'
p538
sg18
S'13'
p539
sg20
S'--'
p540
sg22
S'12/04'
p541
sg24
S'--'
p542
sg25
S'Chris Ivory'
p543
sg27
S'--'
p544
sg29
S'W31-17'
p545
sg31
S'--'
p546
sg33
S'--'
p547
sg34
S'DET'
p548
sg36
S'--'
p549
sg37
S'--'
p550
sg39
S'--'
p551
ssg73
(dp552
g5
S'--'
p553
sg7
S'--'
p554
sg9
g15
sg11
S'--'
p555
sg13
g15
sg14
S'--'
p556
sg16
S'2011'
p557
sg18
S'12'
p558
sg20
S'--'
p559
sg22
S'11/28'
p560
sg24
S'--'
p561
sg25
S'Chris Ivory'
p562
sg27
S'--'
p563
sg29
S'W49-24'
p564
sg31
S'--'
p565
sg33
S'--'
p566
sg34
S'NYG'
p567
sg36
S'--'
p568
sg37
S'--'
p569
sg39
S'--'
p570
ssg89
(dp571
g5
S'--'
p572
sg7
S'--'
p573
sg9
g15
sg11
S'--'
p574
sg13
g10
sg14
S'--'
p575
sg16
S'2011'
p576
sg18
S'15'
p577
sg20
S'4.1'
p578
sg22
S'12/18'
p579
sg24
g15
sg25
S'Chris Ivory'
p580
sg27
S'18'
p581
sg29
S'W42-20'
p582
sg31
S'--'
p583
sg33
S'--'
p584
sg34
S'@MIN'
p585
sg36
S'--'
p586
sg37
S'74'
p587
sg39
S'12'
p588
ssg103
(dp589
g5
S'--'
p590
sg7
S'--'
p591
sg9
g15
sg11
S'--'
p592
sg13
g10
sg14
g15
sg16
S'2011'
p593
sg18
S'14'
p594
sg20
S'4.1'
p595
sg22
S'12/11'
p596
sg24
g15
sg25
S'Chris Ivory'
p597
sg27
S'13'
p598
sg29
S'W22-17'
p599
sg31
g15
sg33
g15
sg34
S'@TEN'
p600
sg36
S'--'
p601
sg37
S'53'
p602
sg39
S'25'
p603
ssg119
(dp604
g5
S'--'
p605
sg7
S'--'
p606
sg9
g15
sg11
S'--'
p607
sg13
g10
sg14
S'--'
p608
sg16
S'2011'
p609
sg18
S'17'
p610
sg20
S'6.7'
p611
sg22
S'01/01'
p612
sg24
g10
sg25
S'Chris Ivory'
p613
sg27
S'19'
p614
sg29
S'W45-17'
p615
sg31
S'--'
p616
sg33
S'--'
p617
sg34
S'CAR'
p618
sg36
S'--'
p619
sg37
S'127'
p620
sg39
S'35T'
p621
ssg137
(dp622
g5
S'--'
p623
sg7
S'--'
p624
sg9
g10
sg11
S'--'
p625
sg13
g10
sg14
S'--'
p626
sg16
S'2011'
p627
sg18
S'16'
p628
sg20
S'4.4'
p629
sg22
S'12/26'
p630
sg24
g15
sg25
S'Chris Ivory'
p631
sg27
g28
sg29
S'W45-16'
p632
sg31
S'--'
p633
sg33
S'--'
p634
sg34
S'ATL'
p635
sg36
S'--'
p636
sg37
S'35'
p637
sg39
S'11'
p638
ssg32
(dp639
g5
S'--'
p640
sg7
S'--'
p641
sg9
g10
sg11
S'--'
p642
sg13
g10
sg14
S'--'
p643
sg16
S'2011'
p644
sg18
g32
sg20
S'4.5'
p645
sg22
S'11/06'
p646
sg24
g15
sg25
S'Chris Ivory'
p647
sg27
S'15'
p648
sg29
S'W27-16'
p649
sg31
S'--'
p650
sg33
S'--'
p651
sg34
S'TB'
p652
sg36
S'--'
p653
sg37
S'67'
p654
sg39
S'12'
p655
ssg28
(dp656
g5
S'--'
p657
sg7
S'--'
p658
sg9
g15
sg11
S'--'
p659
sg13
g10
sg14
S'--'
p660
sg16
S'2011'
p661
sg18
g28
sg20
S'3.0'
p662
sg22
S'10/30'
p663
sg24
g15
sg25
S'Chris Ivory'
p664
sg27
g115
sg29
S'L21-31'
p665
sg31
S'--'
p666
sg33
S'--'
p667
sg34
S'@STL'
p668
sg36
S'--'
p669
sg37
S'18'
p670
sg39
g115
sssS'2010'
p671
(dp672
g3
(dp673
g5
S'--'
p674
sg7
S'--'
p675
sg9
g15
sg11
S'--'
p676
sg13
g10
sg14
S'--'
p677
sg16
S'2010'
p678
sg18
S'11'
p679
sg20
S'4.3'
p680
sg22
S'11/21'
p681
sg24
g10
sg25
S'Chris Ivory'
p682
sg27
S'23'
p683
sg29
S'W34-19'
p684
sg31
S'--'
p685
sg33
S'--'
p686
sg34
S'SEA'
p687
sg36
S'--'
p688
sg37
S'99'
p689
sg39
S'24'
p690
ssg41
(dp691
g5
g197
sg7
g197
sg9
g197
sg11
g197
sg13
g197
sg14
g197
sg16
S'2010'
p692
sg18
S'10'
p693
sg20
g197
sg22
S'Bye'
p694
sg24
g197
sg25
S'Chris Ivory'
p695
sg27
g197
sg29
g197
sg31
g197
sg33
g197
sg34
g197
sg36
g197
sg37
g197
sg39
g197
ssg57
(dp696
g5
S'--'
p697
sg7
g10
sg9
g15
sg11
g15
sg13
g10
sg14
S'--'
p698
sg16
S'2010'
p699
sg18
S'13'
p700
sg20
S'7.8'
p701
sg22
S'12/05'
p702
sg24
g52
sg25
S'Chris Ivory'
p703
sg27
S'15'
p704
sg29
S'W34-30'
p705
sg31
S'--'
p706
sg33
S'--'
p707
sg34
S'@CIN'
p708
sg36
S'--'
p709
sg37
S'117'
p710
sg39
S'55T'
p711
ssg73
(dp712
g5
S'--'
p713
sg7
S'--'
p714
sg9
g15
sg11
S'--'
p715
sg13
g10
sg14
S'--'
p716
sg16
S'2010'
p717
sg18
S'12'
p718
sg20
S'5.4'
p719
sg22
S'11/25'
p720
sg24
g52
sg25
S'Chris Ivory'
p721
sg27
g215
sg29
S'W30-27'
p722
sg31
S'--'
p723
sg33
S'--'
p724
sg34
S'@DAL'
p725
sg36
S'--'
p726
sg37
S'38'
p727
sg39
S'17'
p728
ssg89
(dp729
g5
S'--'
p730
sg7
S'--'
p731
sg9
g15
sg11
S'--'
p732
sg13
g15
sg14
S'--'
p733
sg16
S'2010'
p734
sg18
S'15'
p735
sg20
S'--'
p736
sg22
S'12/19'
p737
sg24
S'--'
p738
sg25
S'Chris Ivory'
p739
sg27
S'--'
p740
sg29
S'L24-30'
p741
sg31
S'--'
p742
sg33
S'--'
p743
sg34
S'@BAL'
p744
sg36
S'--'
p745
sg37
S'--'
p746
sg39
S'--'
p747
ssg103
(dp748
g5
S'--'
p749
sg7
S'--'
p750
sg9
g15
sg11
S'--'
p751
sg13
g10
sg14
S'--'
p752
sg16
S'2010'
p753
sg18
S'14'
p754
sg20
S'6.7'
p755
sg22
S'12/12'
p756
sg24
g15
sg25
S'Chris Ivory'
p757
sg27
g215
sg29
S'W31-13'
p758
sg31
S'--'
p759
sg33
S'--'
p760
sg34
S'STL'
p761
sg36
S'--'
p762
sg37
S'47'
p763
sg39
S'18'
p764
ssg119
(dp765
g5
S'--'
p766
sg7
S'--'
p767
sg9
g15
sg11
S'--'
p768
sg13
g10
sg14
S'--'
p769
sg16
S'2010'
p770
sg18
S'17'
p771
sg20
S'4.7'
p772
sg22
S'01/02'
p773
sg24
g15
sg25
S'Chris Ivory'
p774
sg27
g215
sg29
S'L13-23'
p775
sg31
S'--'
p776
sg33
S'--'
p777
sg34
S'TB'
p778
sg36
S'--'
p779
sg37
S'33'
p780
sg39
S'11'
p781
ssg137
(dp782
g5
S'--'
p783
sg7
S'--'
p784
sg9
g15
sg11
S'--'
p785
sg13
g15
sg14
S'--'
p786
sg16
S'2010'
p787
sg18
S'16'
p788
sg20
S'--'
p789
sg22
S'12/27'
p790
sg24
S'--'
p791
sg25
S'Chris Ivory'
p792
sg27
S'--'
p793
sg29
S'W17-14'
p794
sg31
S'--'
p795
sg33
S'--'
p796
sg34
S'@ATL'
p797
sg36
S'--'
p798
sg37
S'--'
p799
sg39
S'--'
p800
ssg10
(dp801
g5
S'--'
p802
sg7
S'--'
p803
sg9
g15
sg11
S'--'
p804
sg13
g15
sg14
S'--'
p805
sg16
S'2010'
p806
sg18
g10
sg20
S'--'
p807
sg22
S'09/09'
p808
sg24
S'--'
p809
sg25
S'Chris Ivory'
p810
sg27
S'--'
p811
sg29
S'W14-9'
p812
sg31
S'--'
p813
sg33
S'--'
p814
sg34
S'MIN'
p815
sg36
S'--'
p816
sg37
S'--'
p817
sg39
S'--'
p818
ssg164
(dp819
g5
S'--'
p820
sg7
g10
sg9
g15
sg11
g10
sg13
g10
sg14
S'--'
p821
sg16
S'2010'
p822
sg18
g164
sg20
S'1.9'
p823
sg22
S'09/26'
p824
sg24
g15
sg25
S'Chris Ivory'
p825
sg27
g215
sg29
S'L24-27'
p826
sg31
S'--'
p827
sg33
S'--'
p828
sg34
S'ATL'
p829
sg36
S'--'
p830
sg37
S'13'
p831
sg39
g32
ssg52
(dp832
g5
S'--'
p833
sg7
S'--'
p834
sg9
g15
sg11
S'--'
p835
sg13
g15
sg14
S'--'
p836
sg16
S'2010'
p837
sg18
g52
sg20
S'--'
p838
sg22
S'09/20'
p839
sg24
S'--'
p840
sg25
S'Chris Ivory'
p841
sg27
S'--'
p842
sg29
S'W25-22'
p843
sg31
S'--'
p844
sg33
S'--'
p845
sg34
S'@SF'
p846
sg36
S'--'
p847
sg37
S'--'
p848
sg39
S'--'
p849
ssg68
(dp850
g5
S'--'
p851
sg7
S'--'
p852
sg9
g15
sg11
S'--'
p853
sg13
g10
sg14
S'--'
p854
sg16
S'2010'
p855
sg18
g68
sg20
S'3.9'
p856
sg22
S'10/10'
p857
sg24
g15
sg25
S'Chris Ivory'
p858
sg27
S'10'
p859
sg29
S'L20-30'
p860
sg31
S'--'
p861
sg33
S'--'
p862
sg34
S'@ARI'
p863
sg36
S'--'
p864
sg37
S'39'
p865
sg39
S'13'
p866
ssg147
(dp867
g5
S'--'
p868
sg7
g10
sg9
g10
sg11
g10
sg13
g10
sg14
S'--'
p869
sg16
S'2010'
p870
sg18
g147
sg20
S'5.6'
p871
sg22
S'10/03'
p872
sg24
g15
sg25
S'Chris Ivory'
p873
sg27
S'12'
p874
sg29
S'W16-14'
p875
sg31
S'--'
p876
sg33
S'--'
p877
sg34
S'CAR'
p878
sg36
S'--'
p879
sg37
S'67'
p880
sg39
S'14'
p881
ssg215
(dp882
g5
S'--'
p883
sg7
S'--'
p884
sg9
g10
sg11
S'--'
p885
sg13
g10
sg14
S'--'
p886
sg16
S'2010'
p887
sg18
g215
sg20
S'3.2'
p888
sg22
S'10/24'
p889
sg24
g15
sg25
S'Chris Ivory'
p890
sg27
S'15'
p891
sg29
S'L17-30'
p892
sg31
S'--'
p893
sg33
S'--'
p894
sg34
S'CLE'
p895
sg36
S'--'
p896
sg37
S'48'
p897
sg39
g28
ssg115
(dp898
g5
S'17.0'
p899
sg7
g10
sg9
g10
sg11
g15
sg13
g10
sg14
g15
sg16
S'2010'
p900
sg18
g115
sg20
S'10.5'
p901
sg22
S'10/17'
p902
sg24
g15
sg25
S'Chris Ivory'
p903
sg27
S'15'
p904
sg29
S'W31-6'
p905
sg31
S'17'
p906
sg33
g10
sg34
S'@TB'
p907
sg36
S'17'
p908
sg37
S'158'
p909
sg39
S'33'
p910
ssg32
(dp911
g5
S'--'
p912
sg7
S'--'
p913
sg9
g15
sg11
S'--'
p914
sg13
g10
sg14
S'--'
p915
sg16
S'2010'
p916
sg18
g32
sg20
S'4.2'
p917
sg22
S'11/07'
p918
sg24
g15
sg25
S'Chris Ivory'
p919
sg27
S'12'
p920
sg29
S'W34-3'
p921
sg31
S'--'
p922
sg33
S'--'
p923
sg34
S'@CAR'
p924
sg36
S'--'
p925
sg37
S'50'
p926
sg39
S'11'
p927
ssg28
(dp928
g5
S'--'
p929
sg7
S'--'
p930
sg9
g10
sg11
S'--'
p931
sg13
g10
sg14
S'--'
p932
sg16
S'2010'
p933
sg18
g28
sg20
S'1.0'
p934
sg22
S'10/31'
p935
sg24
g15
sg25
S'Chris Ivory'
p936
sg27
g215
sg29
S'W20-10'
p937
sg31
S'--'
p938
sg33
S'--'
p939
sg34
S'PIT'
p940
sg36
S'--'
p941
sg37
g215
sg39
g115
sssS'2013'
p942
(dp943
g3
(dp944
g5
S'--'
p945
sg7
S'--'
p946
sg9
g15
sg11
S'--'
p947
sg13
g10
sg14
g15
sg16
S'2013'
p948
sg18
S'11'
p949
sg20
S'6.5'
p950
sg22
S'11/17'
p951
sg24
g10
sg25
S'Chris Ivory'
p952
sg27
S'15'
p953
sg29
S'L14-37'
p954
sg31
g15
sg33
g15
sg34
S'@BUF'
p955
sg36
S'--'
p956
sg37
S'98'
p957
sg39
S'69'
p958
ssg41
(dp959
g5
g197
sg7
g197
sg9
g197
sg11
g197
sg13
g197
sg14
g197
sg16
S'2013'
p960
sg18
S'10'
p961
sg20
g197
sg22
S'Bye'
p962
sg24
g197
sg25
S'Chris Ivory'
p963
sg27
g197
sg29
g197
sg31
g197
sg33
g197
sg34
g197
sg36
g197
sg37
g197
sg39
g197
ssg57
(dp964
g5
S'12.0'
p965
sg7
S'--'
p966
sg9
g15
sg11
S'--'
p967
sg13
g10
sg14
g15
sg16
S'2013'
p968
sg18
S'13'
p969
sg20
S'5.1'
p970
sg22
S'12/01'
p971
sg24
g15
sg25
S'Chris Ivory'
p972
sg27
S'12'
p973
sg29
S'L3-23'
p974
sg31
S'12'
p975
sg33
g10
sg34
S'MIA'
p976
sg36
S'12'
p977
sg37
S'61'
p978
sg39
S'32'
p979
ssg73
(dp980
g5
S'--'
p981
sg7
S'--'
p982
sg9
g15
sg11
S'--'
p983
sg13
g10
sg14
S'--'
p984
sg16
S'2013'
p985
sg18
S'12'
p986
sg20
S'3.9'
p987
sg22
S'11/24'
p988
sg24
g15
sg25
S'Chris Ivory'
p989
sg27
g32
sg29
S'L3-19'
p990
sg31
S'--'
p991
sg33
S'--'
p992
sg34
S'@BAL'
p993
sg36
S'--'
p994
sg37
S'35'
p995
sg39
S'17'
p996
ssg89
(dp997
g5
S'--'
p998
sg7
S'--'
p999
sg9
g10
sg11
S'--'
p1000
sg13
g10
sg14
g15
sg16
S'2013'
p1001
sg18
S'15'
p1002
sg20
S'6.0'
p1003
sg22
S'12/15'
p1004
sg24
g15
sg25
S'Chris Ivory'
p1005
sg27
S'11'
p1006
sg29
S'L20-30'
p1007
sg31
g15
sg33
g15
sg34
S'@CAR'
p1008
sg36
S'--'
p1009
sg37
S'66'
p1010
sg39
S'35'
p1011
ssg103
(dp1012
g5
S'--'
p1013
sg7
g10
sg9
g10
sg11
g15
sg13
g10
sg14
S'--'
p1014
sg16
S'2013'
p1015
sg18
S'14'
p1016
sg20
S'4.2'
p1017
sg22
S'12/08'
p1018
sg24
g10
sg25
S'Chris Ivory'
p1019
sg27
S'18'
p1020
sg29
S'W37-27'
p1021
sg31
S'--'
p1022
sg33
S'--'
p1023
sg34
S'OAK'
p1024
sg36
S'--'
p1025
sg37
S'76'
p1026
sg39
S'15T'
p1027
ssg119
(dp1028
g5
S'--'
p1029
sg7
S'--'
p1030
sg9
g10
sg11
S'--'
p1031
sg13
g10
sg14
S'--'
p1032
sg16
S'2013'
p1033
sg18
S'17'
p1034
sg20
S'3.8'
p1035
sg22
S'12/29'
p1036
sg24
g15
sg25
S'Chris Ivory'
p1037
sg27
g68
sg29
S'W20-7'
p1038
sg31
S'--'
p1039
sg33
S'--'
p1040
sg34
S'@MIA'
p1041
sg36
S'--'
p1042
sg37
S'19'
p1043
sg39
g68
ssg137
(dp1044
g5
S'--'
p1045
sg7
S'--'
p1046
sg9
g15
sg11
S'--'
p1047
sg13
g10
sg14
S'--'
p1048
sg16
S'2013'
p1049
sg18
S'16'
p1050
sg20
S'5.5'
p1051
sg22
S'12/22'
p1052
sg24
g15
sg25
S'Chris Ivory'
p1053
sg27
S'20'
p1054
sg29
S'W24-13'
p1055
sg31
S'--'
p1056
sg33
S'--'
p1057
sg34
S'CLE'
p1058
sg36
S'--'
p1059
sg37
S'109'
p1060
sg39
S'28'
p1061
ssg10
(dp1062
g5
S'--'
p1063
sg7
S'--'
p1064
sg9
g15
sg11
S'--'
p1065
sg13
g10
sg14
g15
sg16
S'2013'
p1066
sg18
g10
sg20
S'1.5'
p1067
sg22
S'09/08'
p1068
sg24
g15
sg25
S'Chris Ivory'
p1069
sg27
S'10'
p1070
sg29
S'W18-17'
p1071
sg31
g15
sg33
g15
sg34
S'TB'
p1072
sg36
S'--'
p1073
sg37
S'15'
p1074
sg39
g215
ssg164
(dp1075
g5
S'--'
p1076
sg7
S'--'
p1077
sg9
g10
sg11
S'--'
p1078
sg13
g10
sg14
S'--'
p1079
sg16
S'2013'
p1080
sg18
g164
sg20
S'1.3'
p1081
sg22
S'09/22'
p1082
sg24
g15
sg25
S'Chris Ivory'
p1083
sg27
g147
sg29
S'W27-20'
p1084
sg31
S'--'
p1085
sg33
S'--'
p1086
sg34
S'BUF'
p1087
sg36
S'--'
p1088
sg37
g68
sg39
g68
ssg52
(dp1089
g5
S'--'
p1090
sg7
g10
sg9
g15
sg11
g15
sg13
g10
sg14
S'--'
p1091
sg16
S'2013'
p1092
sg18
g52
sg20
S'4.3'
p1093
sg22
S'09/12'
p1094
sg24
g15
sg25
S'Chris Ivory'
p1095
sg27
S'12'
p1096
sg29
S'L10-13'
p1097
sg31
S'--'
p1098
sg33
S'--'
p1099
sg34
S'@NE'
p1100
sg36
S'--'
p1101
sg37
S'52'
p1102
sg39
S'11'
p1103
ssg68
(dp1104
g5
S'--'
p1105
sg7
S'--'
p1106
sg9
g10
sg11
S'--'
p1107
sg13
g10
sg14
S'--'
p1108
sg16
S'2013'
p1109
sg18
g68
sg20
S'6.8'
p1110
sg22
S'10/07'
p1111
sg24
g15
sg25
S'Chris Ivory'
p1112
sg27
g147
sg29
S'W30-28'
p1113
sg31
S'--'
p1114
sg33
S'--'
p1115
sg34
S'@ATL'
p1116
sg36
S'--'
p1117
sg37
S'27'
p1118
sg39
S'19'
p1119
ssg147
(dp1120
g5
S'--'
p1121
sg7
S'--'
p1122
sg9
g15
sg11
S'--'
p1123
sg13
g15
sg14
S'--'
p1124
sg16
S'2013'
p1125
sg18
g147
sg20
S'--'
p1126
sg22
S'09/29'
p1127
sg24
S'--'
p1128
sg25
S'Chris Ivory'
p1129
sg27
S'--'
p1130
sg29
S'L13-38'
p1131
sg31
S'--'
p1132
sg33
S'--'
p1133
sg34
S'@TEN'
p1134
sg36
S'--'
p1135
sg37
S'--'
p1136
sg39
S'--'
p1137
ssg215
(dp1138
g5
S'-2.0'
p1139
sg7
S'--'
p1140
sg9
g15
sg11
S'--'
p1141
sg13
g10
sg14
g15
sg16
S'2013'
p1142
sg18
g215
sg20
S'3.1'
p1143
sg22
S'10/20'
p1144
sg24
g15
sg25
S'Chris Ivory'
p1145
sg27
S'34'
p1146
sg29
S'W30-27'
p1147
sg31
S'-2'
p1148
sg33
g10
sg34
S'NE'
p1149
sg36
S'-2'
p1150
sg37
S'104'
p1151
sg39
S'17'
p1152
ssg115
(dp1153
g5
S'--'
p1154
sg7
S'--'
p1155
sg9
g15
sg11
S'--'
p1156
sg13
g10
sg14
S'--'
p1157
sg16
S'2013'
p1158
sg18
g115
sg20
S'4.0'
p1159
sg22
S'10/13'
p1160
sg24
g15
sg25
S'Chris Ivory'
p1161
sg27
g147
sg29
S'L6-19'
p1162
sg31
S'--'
p1163
sg33
S'--'
p1164
sg34
S'PIT'
p1165
sg36
S'--'
p1166
sg37
S'16'
p1167
sg39
g115
ssg32
(dp1168
g5
S'--'
p1169
sg7
S'--'
p1170
sg9
g10
sg11
S'--'
p1171
sg13
g10
sg14
S'--'
p1172
sg16
S'2013'
p1173
sg18
g32
sg20
S'7.7'
p1174
sg22
S'11/03'
p1175
sg24
g10
sg25
S'Chris Ivory'
p1176
sg27
S'18'
p1177
sg29
S'W26-20'
p1178
sg31
S'--'
p1179
sg33
S'--'
p1180
sg34
S'NO'
p1181
sg36
S'--'
p1182
sg37
S'139'
p1183
sg39
S'52'
p1184
ssg28
(dp1185
g5
S'--'
p1186
sg7
S'--'
p1187
sg9
g15
sg11
S'--'
p1188
sg13
g10
sg14
S'--'
p1189
sg16
S'2013'
p1190
sg18
g28
sg20
S'1.8'
p1191
sg22
S'10/27'
p1192
sg24
g15
sg25
S'Chris Ivory'
p1193
sg27
g115
sg29
S'L9-49'
p1194
sg31
S'--'
p1195
sg33
S'--'
p1196
sg34
S'@CIN'
p1197
sg36
S'--'
p1198
sg37
S'11'
p1199
sg39
g68
sssS'2012'
p1200
(dp1201
g3
(dp1202
g5
S'--'
p1203
sg7
S'--'
p1204
sg9
g15
sg11
S'--'
p1205
sg13
g10
sg14
S'--'
p1206
sg16
S'2012'
p1207
sg18
S'11'
p1208
sg20
S'4.6'
p1209
sg22
S'11/18'
p1210
sg24
g15
sg25
S'Chris Ivory'
p1211
sg27
g28
sg29
S'W38-17'
p1212
sg31
S'--'
p1213
sg33
S'--'
p1214
sg34
S'@OAK'
p1215
sg36
S'--'
p1216
sg37
S'37'
p1217
sg39
S'25'
p1218
ssg41
(dp1219
g5
S'13.0'
p1220
sg7
S'--'
p1221
sg9
g15
sg11
S'--'
p1222
sg13
g10
sg14
g15
sg16
S'2012'
p1223
sg18
S'10'
p1224
sg20
S'10.3'
p1225
sg22
S'11/11'
p1226
sg24
g10
sg25
S'Chris Ivory'
p1227
sg27
g215
sg29
S'W31-27'
p1228
sg31
S'13'
p1229
sg33
g10
sg34
S'ATL'
p1230
sg36
S'13'
p1231
sg37
S'72'
p1232
sg39
S'56T'
p1233
ssg57
(dp1234
g5
S'--'
p1235
sg7
S'--'
p1236
sg9
g15
sg11
S'--'
p1237
sg13
g10
sg14
g15
sg16
S'2012'
p1238
sg18
S'13'
p1239
sg20
S'1.3'
p1240
sg22
S'11/29'
p1241
sg24
g15
sg25
S'Chris Ivory'
p1242
sg27
g164
sg29
S'L13-23'
p1243
sg31
g15
sg33
g15
sg34
S'@ATL'
p1244
sg36
S'--'
p1245
sg37
g147
sg39
g115
ssg73
(dp1246
g5
S'--'
p1247
sg7
S'--'
p1248
sg9
g10
sg11
S'--'
p1249
sg13
g10
sg14
S'--'
p1250
sg16
S'2012'
p1251
sg18
S'12'
p1252
sg20
S'4.3'
p1253
sg22
S'11/25'
p1254
sg24
g15
sg25
S'Chris Ivory'
p1255
sg27
g28
sg29
S'L21-31'
p1256
sg31
S'--'
p1257
sg33
S'--'
p1258
sg34
S'SF'
p1259
sg36
S'--'
p1260
sg37
S'34'
p1261
sg39
g215
ssg89
(dp1262
g5
S'--'
p1263
sg7
S'--'
p1264
sg9
g15
sg11
S'--'
p1265
sg13
g15
sg14
S'--'
p1266
sg16
S'2012'
p1267
sg18
S'15'
p1268
sg20
S'--'
p1269
sg22
S'12/16'
p1270
sg24
S'--'
p1271
sg25
S'Chris Ivory'
p1272
sg27
S'--'
p1273
sg29
S'W41-0'
p1274
sg31
S'--'
p1275
sg33
S'--'
p1276
sg34
S'TB'
p1277
sg36
S'--'
p1278
sg37
S'--'
p1279
sg39
S'--'
p1280
ssg103
(dp1281
g5
S'--'
p1282
sg7
S'--'
p1283
sg9
g15
sg11
S'--'
p1284
sg13
g15
sg14
S'--'
p1285
sg16
S'2012'
p1286
sg18
S'14'
p1287
sg20
S'--'
p1288
sg22
S'12/09'
p1289
sg24
S'--'
p1290
sg25
S'Chris Ivory'
p1291
sg27
S'--'
p1292
sg29
S'L27-52'
p1293
sg31
S'--'
p1294
sg33
S'--'
p1295
sg34
S'@NYG'
p1296
sg36
S'--'
p1297
sg37
S'--'
p1298
sg39
S'--'
p1299
ssg119
(dp1300
g5
S'--'
p1301
sg7
S'--'
p1302
sg9
g10
sg11
S'--'
p1303
sg13
g10
sg14
S'--'
p1304
sg16
S'2012'
p1305
sg18
S'17'
p1306
sg20
S'5.5'
p1307
sg22
S'12/30'
p1308
sg24
g15
sg25
S'Chris Ivory'
p1309
sg27
g147
sg29
S'L38-44'
p1310
sg31
S'--'
p1311
sg33
S'--'
p1312
sg34
S'CAR'
p1313
sg36
S'--'
p1314
sg37
S'22'
p1315
sg39
S'11'
p1316
ssg137
(dp1317
g5
S'--'
p1318
sg7
S'--'
p1319
sg9
g15
sg11
S'--'
p1320
sg13
g15
sg14
S'--'
p1321
sg16
S'2012'
p1322
sg18
S'16'
p1323
sg20
S'--'
p1324
sg22
S'12/23'
p1325
sg24
S'--'
p1326
sg25
S'Chris Ivory'
p1327
sg27
S'--'
p1328
sg29
S'W34-31'
p1329
sg31
S'--'
p1330
sg33
S'--'
p1331
sg34
S'@DAL'
p1332
sg36
S'--'
p1333
sg37
S'--'
p1334
sg39
S'--'
p1335
ssg10
(dp1336
g5
S'--'
p1337
sg7
S'--'
p1338
sg9
g15
sg11
S'--'
p1339
sg13
g15
sg14
S'--'
p1340
sg16
S'2012'
p1341
sg18
g10
sg20
S'--'
p1342
sg22
S'09/09'
p1343
sg24
S'--'
p1344
sg25
S'Chris Ivory'
p1345
sg27
S'--'
p1346
sg29
S'L32-40'
p1347
sg31
S'--'
p1348
sg33
S'--'
p1349
sg34
S'WAS'
p1350
sg36
S'--'
p1351
sg37
S'--'
p1352
sg39
S'--'
p1353
ssg164
(dp1354
g5
S'--'
p1355
sg7
S'--'
p1356
sg9
g15
sg11
S'--'
p1357
sg13
g15
sg14
S'--'
p1358
sg16
S'2012'
p1359
sg18
g164
sg20
S'--'
p1360
sg22
S'09/23'
p1361
sg24
S'--'
p1362
sg25
S'Chris Ivory'
p1363
sg27
S'--'
p1364
sg29
S'L24-27'
p1365
sg31
S'--'
p1366
sg33
S'--'
p1367
sg34
S'KC'
p1368
sg36
S'--'
p1369
sg37
S'--'
p1370
sg39
S'--'
p1371
ssg52
(dp1372
g5
S'--'
p1373
sg7
S'--'
p1374
sg9
g15
sg11
S'--'
p1375
sg13
g15
sg14
S'--'
p1376
sg16
S'2012'
p1377
sg18
g52
sg20
S'--'
p1378
sg22
S'09/16'
p1379
sg24
S'--'
p1380
sg25
S'Chris Ivory'
p1381
sg27
S'--'
p1382
sg29
S'L27-35'
p1383
sg31
S'--'
p1384
sg33
S'--'
p1385
sg34
S'@CAR'
p1386
sg36
S'--'
p1387
sg37
S'--'
p1388
sg39
S'--'
p1389
ssg68
(dp1390
g5
S'--'
p1391
sg7
S'--'
p1392
sg9
g15
sg11
S'--'
p1393
sg13
g15
sg14
S'--'
p1394
sg16
S'2012'
p1395
sg18
g68
sg20
S'--'
p1396
sg22
S'10/07'
p1397
sg24
S'--'
p1398
sg25
S'Chris Ivory'
p1399
sg27
S'--'
p1400
sg29
S'W31-24'
p1401
sg31
S'--'
p1402
sg33
S'--'
p1403
sg34
S'SD'
p1404
sg36
S'--'
p1405
sg37
S'--'
p1406
sg39
S'--'
p1407
ssg147
(dp1408
g5
S'--'
p1409
sg7
S'--'
p1410
sg9
g15
sg11
S'--'
p1411
sg13
g15
sg14
S'--'
p1412
sg16
S'2012'
p1413
sg18
g147
sg20
S'--'
p1414
sg22
S'09/30'
p1415
sg24
S'--'
p1416
sg25
S'Chris Ivory'
p1417
sg27
S'--'
p1418
sg29
S'L27-28'
p1419
sg31
S'--'
p1420
sg33
S'--'
p1421
sg34
S'@GB'
p1422
sg36
S'--'
p1423
sg37
S'--'
p1424
sg39
S'--'
p1425
ssg215
(dp1426
g5
S'--'
p1427
sg7
S'--'
p1428
sg9
g15
sg11
S'--'
p1429
sg13
g15
sg14
S'--'
p1430
sg16
S'2012'
p1431
sg18
g215
sg20
S'--'
p1432
sg22
S'10/21'
p1433
sg24
S'--'
p1434
sg25
S'Chris Ivory'
p1435
sg27
S'--'
p1436
sg29
S'W35-28'
p1437
sg31
S'--'
p1438
sg33
S'--'
p1439
sg34
S'@TB'
p1440
sg36
S'--'
p1441
sg37
S'--'
p1442
sg39
S'--'
p1443
ssg115
(dp1444
g5
g197
sg7
g197
sg9
g197
sg11
g197
sg13
g197
sg14
g197
sg16
S'2012'
p1445
sg18
g115
sg20
g197
sg22
S'Bye'
p1446
sg24
g197
sg25
S'Chris Ivory'
p1447
sg27
g197
sg29
g197
sg31
g197
sg33
g197
sg34
g197
sg36
g197
sg37
g197
sg39
g197
ssg32
(dp1448
g5
S'2.0'
p1449
sg7
S'--'
p1450
sg9
g15
sg11
S'--'
p1451
sg13
g10
sg14
g15
sg16
S'2012'
p1452
sg18
g32
sg20
S'4.8'
p1453
sg22
S'11/05'
p1454
sg24
g10
sg25
S'Chris Ivory'
p1455
sg27
S'10'
p1456
sg29
S'W28-13'
p1457
sg31
g52
sg33
g10
sg34
S'PHI'
p1458
sg36
g52
sg37
S'48'
p1459
sg39
S'22T'
p1460
ssg28
(dp1461
g5
S'--'
p1462
sg7
S'--'
p1463
sg9
g15
sg11
S'--'
p1464
sg13
g15
sg14
S'--'
p1465
sg16
S'2012'
p1466
sg18
g28
sg20
S'--'
p1467
sg22
S'10/28'
p1468
sg24
S'--'
p1469
sg25
S'Chris Ivory'
p1470
sg27
S'--'
p1471
sg29
S'L14-34'
p1472
sg31
S'--'
p1473
sg33
S'--'
p1474
sg34
S'@DEN'
p1475
sg36
S'--'
p1476
sg37
S'--'
p1477
sg39
S'--'
p1478
sss.