(dp0
S'2015'
p1
(dp2
S'1'
p3
(dp4
S'RecAvg'
p5
S'5.0'
p6
sS'FUM'
p7
S'--'
p8
sS'GS'
p9
S'0'
p10
sS'Lost'
p11
S'--'
p12
sS'G'
p13
g3
sS'RecTD'
p14
g10
sS'Year'
p15
S'2015'
p16
sS'WK'
p17
g3
sS'RushAvg'
p18
S'--'
p19
sS'Game Date'
p20
S'09/13'
p21
sS'RushTD'
p22
S'--'
p23
sS'Player'
p24
S'Corey Grant'
p25
sS'RushAtt'
p26
S'--'
p27
sS'Result'
p28
S'L9-20'
p29
sS'RecYds'
p30
S'5'
p31
sS'Rec'
p32
g3
sS'Opp'
p33
S'CAR'
p34
sS'RecLng'
p35
g31
sS'RushYds'
p36
S'--'
p37
sS'RushLng'
p38
S'--'
p39
ssS'3'
p40
(dp41
g5
S'8.0'
p42
sg7
S'--'
p43
sg9
g10
sg11
S'--'
p44
sg13
g3
sg14
g10
sg15
S'2015'
p45
sg17
g40
sg18
S'3.0'
p46
sg20
S'09/27'
p47
sg22
g10
sg24
S'Corey Grant'
p48
sg26
S'2'
p49
sg28
S'L17-51'
p50
sg30
S'8'
p51
sg32
g3
sg33
S'@NE'
p52
sg35
g51
sg36
S'6'
p53
sg38
S'4'
p54
ssg49
(dp55
g5
S'--'
p56
sg7
S'--'
p57
sg9
g10
sg11
S'--'
p58
sg13
g3
sg14
S'--'
p59
sg15
S'2015'
p60
sg17
g49
sg18
S'1.0'
p61
sg20
S'09/20'
p62
sg22
g10
sg24
S'Corey Grant'
p63
sg26
g3
sg28
S'W23-20'
p64
sg30
S'--'
p65
sg32
S'--'
p66
sg33
S'MIA'
p67
sg35
S'--'
p68
sg36
g3
sg38
g3
ssg31
(dp69
g5
S'--'
p70
sg7
g3
sg9
g10
sg11
g3
sg13
g3
sg14
S'--'
p71
sg15
S'2015'
p72
sg17
g31
sg18
S'-3.0'
p73
sg20
S'10/11'
p74
sg22
g10
sg24
S'Corey Grant'
p75
sg26
g49
sg28
S'L31-38'
p76
sg30
S'--'
p77
sg32
S'--'
p78
sg33
S'@TB'
p79
sg35
S'--'
p80
sg36
S'-6'
p81
sg38
S'11'
p82
ssg54
(dp83
g5
S'--'
p84
sg7
S'--'
p85
sg9
g10
sg11
S'--'
p86
sg13
g3
sg14
S'--'
p87
sg15
S'2015'
p88
sg17
g54
sg18
S'--'
p89
sg20
S'10/04'
p90
sg22
S'--'
p91
sg24
S'Corey Grant'
p92
sg26
S'--'
p93
sg28
S'L13-16'
p94
sg30
S'--'
p95
sg32
S'--'
p96
sg33
S'@IND'
p97
sg35
S'--'
p98
sg36
S'--'
p99
sg38
S'--'
p100
ssg53
(dp101
g5
S'--'
p102
sg7
S'--'
p103
sg9
g10
sg11
S'--'
p104
sg13
g3
sg14
S'--'
p105
sg15
S'2015'
p106
sg17
g53
sg18
S'1.0'
p107
sg20
S'10/18'
p108
sg22
g10
sg24
S'Corey Grant'
p109
sg26
g3
sg28
S'L20-31'
p110
sg30
S'--'
p111
sg32
S'--'
p112
sg33
S'HOU'
p113
sg35
S'--'
p114
sg36
g3
sg38
g3
sss.