(dp0
S'2015'
p1
(dp2
S'10'
p3
(dp4
S'RecAvg'
p5
S'--'
p6
sS'FUM'
p7
S'--'
p8
sS'GS'
p9
S'0'
p10
sS'Lost'
p11
S'--'
p12
sS'G'
p13
S'1'
p14
sS'RecTD'
p15
S'--'
p16
sS'Year'
p17
S'2015'
p18
sS'WK'
p19
S'10'
p20
sS'RushAvg'
p21
S'--'
p22
sS'Game Date'
p23
S'11/09'
p24
sS'RushTD'
p25
S'--'
p26
sS'Player'
p27
S'Cyrus Gray'
p28
sS'RushAtt'
p29
S'--'
p30
sS'Result'
p31
S'W17-13'
p32
sS'RecYds'
p33
S'--'
p34
sS'Rec'
p35
S'--'
p36
sS'Opp'
p37
S'@BUF'
p38
sS'RecLng'
p39
S'--'
p40
sS'RushYds'
p41
S'--'
p42
sS'RushLng'
p43
S'--'
p44
ssg14
(dp45
g5
S'--'
p46
sg7
S'--'
p47
sg9
g10
sg11
S'--'
p48
sg13
g14
sg15
S'--'
p49
sg17
S'2015'
p50
sg19
g14
sg21
S'2.5'
p51
sg23
S'09/07'
p52
sg25
g10
sg27
S'Cyrus Gray'
p53
sg29
S'2'
p54
sg31
S'L10-26'
p55
sg33
S'--'
p56
sg35
S'--'
p57
sg37
S'TEN'
p58
sg39
S'--'
p59
sg41
S'5'
p60
sg43
S'4'
p61
ssS'3'
p62
(dp63
g5
S'--'
p64
sg7
S'--'
p65
sg9
g10
sg11
S'--'
p66
sg13
g14
sg15
S'--'
p67
sg17
S'2015'
p68
sg19
g62
sg21
S'4.5'
p69
sg23
S'09/21'
p70
sg25
g14
sg27
S'Cyrus Gray'
p71
sg29
g61
sg31
S'W34-15'
p72
sg33
S'--'
p73
sg35
S'--'
p74
sg37
S'@MIA'
p75
sg39
S'--'
p76
sg41
S'18'
p77
sg43
S'6T'
p78
ssg54
(dp79
g5
S'--'
p80
sg7
S'--'
p81
sg9
g10
sg11
S'--'
p82
sg13
g14
sg15
S'--'
p83
sg17
S'2015'
p84
sg19
g54
sg21
S'4.0'
p85
sg23
S'09/14'
p86
sg25
g10
sg27
S'Cyrus Gray'
p87
sg29
g54
sg31
S'L17-24'
p88
sg33
S'--'
p89
sg35
S'--'
p90
sg37
S'@DEN'
p91
sg39
S'--'
p92
sg41
S'8'
p93
sg43
S'6'
p94
ssg60
(dp95
g5
S'--'
p96
sg7
S'--'
p97
sg9
g10
sg11
S'--'
p98
sg13
g14
sg15
S'--'
p99
sg17
S'2015'
p100
sg19
g60
sg21
S'--'
p101
sg23
S'10/05'
p102
sg25
S'--'
p103
sg27
S'Cyrus Gray'
p104
sg29
S'--'
p105
sg31
S'L17-22'
p106
sg33
S'--'
p107
sg35
S'--'
p108
sg37
S'@SF'
p109
sg39
S'--'
p110
sg41
S'--'
p111
sg43
S'--'
p112
ssg61
(dp113
g5
S'--'
p114
sg7
S'--'
p115
sg9
g10
sg11
S'--'
p116
sg13
g14
sg15
S'--'
p117
sg17
S'2015'
p118
sg19
g61
sg21
S'--'
p119
sg23
S'09/29'
p120
sg25
S'--'
p121
sg27
S'Cyrus Gray'
p122
sg29
S'--'
p123
sg31
S'W41-14'
p124
sg33
S'--'
p125
sg35
S'--'
p126
sg37
S'NE'
p127
sg39
S'--'
p128
sg41
S'--'
p129
sg43
S'--'
p130
ssS'7'
p131
(dp132
g5
S'--'
p133
sg7
S'--'
p134
sg9
g10
sg11
S'--'
p135
sg13
g14
sg15
S'--'
p136
sg17
S'2015'
p137
sg19
g131
sg21
S'--'
p138
sg23
S'10/19'
p139
sg25
S'--'
p140
sg27
S'Cyrus Gray'
p141
sg29
S'--'
p142
sg31
S'W23-20'
p143
sg33
S'--'
p144
sg35
S'--'
p145
sg37
S'@SD'
p146
sg39
S'--'
p147
sg41
S'--'
p148
sg43
S'--'
p149
ssg94
(dp150
g5
S''
p151
sg7
g151
sg9
g151
sg11
g151
sg13
g151
sg15
g151
sg17
S'2015'
p152
sg19
g94
sg21
g151
sg23
S'Bye'
p153
sg25
g151
sg27
S'Cyrus Gray'
p154
sg29
g151
sg31
g151
sg33
g151
sg35
g151
sg37
g151
sg39
g151
sg41
g151
sg43
g151
ssS'9'
p155
(dp156
g5
S'--'
p157
sg7
S'--'
p158
sg9
g10
sg11
S'--'
p159
sg13
g14
sg15
S'--'
p160
sg17
S'2015'
p161
sg19
g155
sg21
S'--'
p162
sg23
S'11/02'
p163
sg25
S'--'
p164
sg27
S'Cyrus Gray'
p165
sg29
S'--'
p166
sg31
S'W24-10'
p167
sg33
S'--'
p168
sg35
S'--'
p169
sg37
S'NYJ'
p170
sg39
S'--'
p171
sg41
S'--'
p172
sg43
S'--'
p173
ssg93
(dp174
g5
S'--'
p175
sg7
S'--'
p176
sg9
g10
sg11
S'--'
p177
sg13
g14
sg15
S'--'
p178
sg17
S'2015'
p179
sg19
g93
sg21
S'--'
p180
sg23
S'10/26'
p181
sg25
S'--'
p182
sg27
S'Cyrus Gray'
p183
sg29
S'--'
p184
sg31
S'W34-7'
p185
sg33
S'--'
p186
sg35
S'--'
p187
sg37
S'STL'
p188
sg39
S'--'
p189
sg41
S'--'
p190
sg43
S'--'
p191
sssS'2014'
p192
(dp193
g3
(dp194
g5
S'--'
p195
sg7
S'--'
p196
sg9
g10
sg11
S'--'
p197
sg13
g14
sg15
S'--'
p198
sg17
S'2014'
p199
sg19
S'10'
p200
sg21
S'--'
p201
sg23
S'11/09'
p202
sg25
S'--'
p203
sg27
S'Cyrus Gray'
p204
sg29
S'--'
p205
sg31
S'W17-13'
p206
sg33
S'--'
p207
sg35
S'--'
p208
sg37
S'@BUF'
p209
sg39
S'--'
p210
sg41
S'--'
p211
sg43
S'--'
p212
ssg14
(dp213
g5
S'--'
p214
sg7
S'--'
p215
sg9
g10
sg11
S'--'
p216
sg13
g14
sg15
S'--'
p217
sg17
S'2014'
p218
sg19
g14
sg21
S'2.5'
p219
sg23
S'09/07'
p220
sg25
g10
sg27
S'Cyrus Gray'
p221
sg29
g54
sg31
S'L10-26'
p222
sg33
S'--'
p223
sg35
S'--'
p224
sg37
S'TEN'
p225
sg39
S'--'
p226
sg41
g60
sg43
g61
ssg62
(dp227
g5
S'--'
p228
sg7
S'--'
p229
sg9
g10
sg11
S'--'
p230
sg13
g14
sg15
S'--'
p231
sg17
S'2014'
p232
sg19
g62
sg21
S'4.5'
p233
sg23
S'09/21'
p234
sg25
g14
sg27
S'Cyrus Gray'
p235
sg29
g61
sg31
S'W34-15'
p236
sg33
S'--'
p237
sg35
S'--'
p238
sg37
S'@MIA'
p239
sg39
S'--'
p240
sg41
S'18'
p241
sg43
S'6T'
p242
ssg54
(dp243
g5
S'--'
p244
sg7
S'--'
p245
sg9
g10
sg11
S'--'
p246
sg13
g14
sg15
S'--'
p247
sg17
S'2014'
p248
sg19
g54
sg21
S'4.0'
p249
sg23
S'09/14'
p250
sg25
g10
sg27
S'Cyrus Gray'
p251
sg29
g54
sg31
S'L17-24'
p252
sg33
S'--'
p253
sg35
S'--'
p254
sg37
S'@DEN'
p255
sg39
S'--'
p256
sg41
g93
sg43
g94
ssg60
(dp257
g5
S'--'
p258
sg7
S'--'
p259
sg9
g10
sg11
S'--'
p260
sg13
g14
sg15
S'--'
p261
sg17
S'2014'
p262
sg19
g60
sg21
S'--'
p263
sg23
S'10/05'
p264
sg25
S'--'
p265
sg27
S'Cyrus Gray'
p266
sg29
S'--'
p267
sg31
S'L17-22'
p268
sg33
S'--'
p269
sg35
S'--'
p270
sg37
S'@SF'
p271
sg39
S'--'
p272
sg41
S'--'
p273
sg43
S'--'
p274
ssg61
(dp275
g5
S'--'
p276
sg7
S'--'
p277
sg9
g10
sg11
S'--'
p278
sg13
g14
sg15
S'--'
p279
sg17
S'2014'
p280
sg19
g61
sg21
S'--'
p281
sg23
S'09/29'
p282
sg25
S'--'
p283
sg27
S'Cyrus Gray'
p284
sg29
S'--'
p285
sg31
S'W41-14'
p286
sg33
S'--'
p287
sg35
S'--'
p288
sg37
S'NE'
p289
sg39
S'--'
p290
sg41
S'--'
p291
sg43
S'--'
p292
ssg131
(dp293
g5
S'--'
p294
sg7
S'--'
p295
sg9
g10
sg11
S'--'
p296
sg13
g14
sg15
S'--'
p297
sg17
S'2014'
p298
sg19
g131
sg21
S'--'
p299
sg23
S'10/19'
p300
sg25
S'--'
p301
sg27
S'Cyrus Gray'
p302
sg29
S'--'
p303
sg31
S'W23-20'
p304
sg33
S'--'
p305
sg35
S'--'
p306
sg37
S'@SD'
p307
sg39
S'--'
p308
sg41
S'--'
p309
sg43
S'--'
p310
ssg94
(dp311
g5
g151
sg7
g151
sg9
g151
sg11
g151
sg13
g151
sg15
g151
sg17
S'2014'
p312
sg19
g94
sg21
g151
sg23
S'Bye'
p313
sg25
g151
sg27
S'Cyrus Gray'
p314
sg29
g151
sg31
g151
sg33
g151
sg35
g151
sg37
g151
sg39
g151
sg41
g151
sg43
g151
ssg155
(dp315
g5
S'--'
p316
sg7
S'--'
p317
sg9
g10
sg11
S'--'
p318
sg13
g14
sg15
S'--'
p319
sg17
S'2014'
p320
sg19
g155
sg21
S'--'
p321
sg23
S'11/02'
p322
sg25
S'--'
p323
sg27
S'Cyrus Gray'
p324
sg29
S'--'
p325
sg31
S'W24-10'
p326
sg33
S'--'
p327
sg35
S'--'
p328
sg37
S'NYJ'
p329
sg39
S'--'
p330
sg41
S'--'
p331
sg43
S'--'
p332
ssg93
(dp333
g5
S'--'
p334
sg7
S'--'
p335
sg9
g10
sg11
S'--'
p336
sg13
g14
sg15
S'--'
p337
sg17
S'2014'
p338
sg19
g93
sg21
S'--'
p339
sg23
S'10/26'
p340
sg25
S'--'
p341
sg27
S'Cyrus Gray'
p342
sg29
S'--'
p343
sg31
S'W34-7'
p344
sg33
S'--'
p345
sg35
S'--'
p346
sg37
S'STL'
p347
sg39
S'--'
p348
sg41
S'--'
p349
sg43
S'--'
p350
sssS'2013'
p351
(dp352
S'11'
p353
(dp354
g5
S'--'
p355
sg7
S'--'
p356
sg9
g10
sg11
S'--'
p357
sg13
g14
sg15
S'--'
p358
sg17
S'2013'
p359
sg19
S'11'
p360
sg21
S'--'
p361
sg23
S'11/17'
p362
sg25
S'--'
p363
sg27
S'Cyrus Gray'
p364
sg29
S'--'
p365
sg31
S'L17-27'
p366
sg33
S'--'
p367
sg35
S'--'
p368
sg37
S'@DEN'
p369
sg39
S'--'
p370
sg41
S'--'
p371
sg43
S'--'
p372
ssg3
(dp373
g5
g151
sg7
g151
sg9
g151
sg11
g151
sg13
g151
sg15
g151
sg17
S'2013'
p374
sg19
S'10'
p375
sg21
g151
sg23
S'Bye'
p376
sg25
g151
sg27
S'Cyrus Gray'
p377
sg29
g151
sg31
g151
sg33
g151
sg35
g151
sg37
g151
sg39
g151
sg41
g151
sg43
g151
ssS'13'
p378
(dp379
g5
S'8.0'
p380
sg7
S'--'
p381
sg9
g10
sg11
S'--'
p382
sg13
g14
sg15
g10
sg17
S'2013'
p383
sg19
S'13'
p384
sg21
S'--'
p385
sg23
S'12/01'
p386
sg25
S'--'
p387
sg27
S'Cyrus Gray'
p388
sg29
S'--'
p389
sg31
S'L28-35'
p390
sg33
g93
sg35
g14
sg37
S'DEN'
p391
sg39
g93
sg41
S'--'
p392
sg43
S'--'
p393
ssS'12'
p394
(dp395
g5
S'--'
p396
sg7
S'--'
p397
sg9
g10
sg11
S'--'
p398
sg13
g14
sg15
S'--'
p399
sg17
S'2013'
p400
sg19
S'12'
p401
sg21
S'--'
p402
sg23
S'11/24'
p403
sg25
S'--'
p404
sg27
S'Cyrus Gray'
p405
sg29
S'--'
p406
sg31
S'L38-41'
p407
sg33
S'--'
p408
sg35
S'--'
p409
sg37
S'SD'
p410
sg39
S'--'
p411
sg41
S'--'
p412
sg43
S'--'
p413
ssS'15'
p414
(dp415
g5
S'18.0'
p416
sg7
S'--'
p417
sg9
g10
sg11
S'--'
p418
sg13
g14
sg15
g10
sg17
S'2013'
p419
sg19
S'15'
p420
sg21
S'3.0'
p421
sg23
S'12/15'
p422
sg25
g10
sg27
S'Cyrus Gray'
p423
sg29
g14
sg31
S'W56-31'
p424
sg33
S'18'
p425
sg35
g14
sg37
S'@OAK'
p426
sg39
S'18'
p427
sg41
g62
sg43
g62
ssS'14'
p428
(dp429
g5
S'--'
p430
sg7
S'--'
p431
sg9
g10
sg11
S'--'
p432
sg13
g14
sg15
g10
sg17
S'2013'
p433
sg19
S'14'
p434
sg21
S'2.7'
p435
sg23
S'12/08'
p436
sg25
g10
sg27
S'Cyrus Gray'
p437
sg29
g62
sg31
S'W45-10'
p438
sg33
g10
sg35
g10
sg37
S'@WAS'
p439
sg39
S'--'
p440
sg41
g93
sg43
g62
ssS'17'
p441
(dp442
g5
S'2.3'
p443
sg7
S'--'
p444
sg9
g10
sg11
S'--'
p445
sg13
g14
sg15
g10
sg17
S'2013'
p446
sg19
S'17'
p447
sg21
S'1.0'
p448
sg23
S'12/29'
p449
sg25
g10
sg27
S'Cyrus Gray'
p450
sg29
g54
sg31
S'L24-27'
p451
sg33
g131
sg35
g62
sg37
S'@SD'
p452
sg39
g94
sg41
g54
sg43
g62
ssS'16'
p453
(dp454
g5
S'7.0'
p455
sg7
S'--'
p456
sg9
g10
sg11
S'--'
p457
sg13
g14
sg15
g10
sg17
S'2013'
p458
sg19
S'16'
p459
sg21
S'--'
p460
sg23
S'12/22'
p461
sg25
S'--'
p462
sg27
S'Cyrus Gray'
p463
sg29
S'--'
p464
sg31
S'L7-23'
p465
sg33
g131
sg35
g14
sg37
S'IND'
p466
sg39
g131
sg41
S'--'
p467
sg43
S'--'
p468
ssg14
(dp469
g5
S'6.0'
p470
sg7
S'--'
p471
sg9
g10
sg11
S'--'
p472
sg13
g14
sg15
g10
sg17
S'2013'
p473
sg19
g14
sg21
S'4.0'
p474
sg23
S'09/08'
p475
sg25
g10
sg27
S'Cyrus Gray'
p476
sg29
g54
sg31
S'W28-2'
p477
sg33
g94
sg35
g14
sg37
S'@JAC'
p478
sg39
g94
sg41
g93
sg43
g155
ssg62
(dp479
g5
S'--'
p480
sg7
S'--'
p481
sg9
g10
sg11
S'--'
p482
sg13
g14
sg15
S'--'
p483
sg17
S'2013'
p484
sg19
g62
sg21
S'--'
p485
sg23
S'09/19'
p486
sg25
S'--'
p487
sg27
S'Cyrus Gray'
p488
sg29
S'--'
p489
sg31
S'W26-16'
p490
sg33
S'--'
p491
sg35
S'--'
p492
sg37
S'@PHI'
p493
sg39
S'--'
p494
sg41
S'--'
p495
sg43
S'--'
p496
ssg54
(dp497
g5
S'--'
p498
sg7
S'--'
p499
sg9
g10
sg11
S'--'
p500
sg13
g14
sg15
g10
sg17
S'2013'
p501
sg19
g54
sg21
S'--'
p502
sg23
S'09/15'
p503
sg25
S'--'
p504
sg27
S'Cyrus Gray'
p505
sg29
S'--'
p506
sg31
S'W17-16'
p507
sg33
g10
sg35
g10
sg37
S'DAL'
p508
sg39
S'--'
p509
sg41
S'--'
p510
sg43
S'--'
p511
ssg60
(dp512
g5
S'--'
p513
sg7
S'--'
p514
sg9
g10
sg11
S'--'
p515
sg13
g14
sg15
S'--'
p516
sg17
S'2013'
p517
sg19
g60
sg21
S'--'
p518
sg23
S'10/06'
p519
sg25
S'--'
p520
sg27
S'Cyrus Gray'
p521
sg29
S'--'
p522
sg31
S'W26-17'
p523
sg33
S'--'
p524
sg35
S'--'
p525
sg37
S'@TEN'
p526
sg39
S'--'
p527
sg41
S'--'
p528
sg43
S'--'
p529
ssg61
(dp530
g5
S'--'
p531
sg7
S'--'
p532
sg9
g10
sg11
S'--'
p533
sg13
g14
sg15
S'--'
p534
sg17
S'2013'
p535
sg19
g61
sg21
S'--'
p536
sg23
S'09/29'
p537
sg25
S'--'
p538
sg27
S'Cyrus Gray'
p539
sg29
S'--'
p540
sg31
S'W31-7'
p541
sg33
S'--'
p542
sg35
S'--'
p543
sg37
S'NYG'
p544
sg39
S'--'
p545
sg41
S'--'
p546
sg43
S'--'
p547
ssg131
(dp548
g5
S'--'
p549
sg7
S'--'
p550
sg9
g10
sg11
S'--'
p551
sg13
g14
sg15
S'--'
p552
sg17
S'2013'
p553
sg19
g131
sg21
S'3.0'
p554
sg23
S'10/20'
p555
sg25
g10
sg27
S'Cyrus Gray'
p556
sg29
g14
sg31
S'W17-16'
p557
sg33
S'--'
p558
sg35
S'--'
p559
sg37
S'HOU'
p560
sg39
S'--'
p561
sg41
g62
sg43
g62
ssg94
(dp562
g5
S'--'
p563
sg7
S'--'
p564
sg9
g10
sg11
S'--'
p565
sg13
g14
sg15
S'--'
p566
sg17
S'2013'
p567
sg19
g94
sg21
S'--'
p568
sg23
S'10/13'
p569
sg25
S'--'
p570
sg27
S'Cyrus Gray'
p571
sg29
S'--'
p572
sg31
S'W24-7'
p573
sg33
S'--'
p574
sg35
S'--'
p575
sg37
S'OAK'
p576
sg39
S'--'
p577
sg41
S'--'
p578
sg43
S'--'
p579
ssg155
(dp580
g5
S'--'
p581
sg7
S'--'
p582
sg9
g10
sg11
S'--'
p583
sg13
g14
sg15
S'--'
p584
sg17
S'2013'
p585
sg19
g155
sg21
S'--'
p586
sg23
S'11/03'
p587
sg25
S'--'
p588
sg27
S'Cyrus Gray'
p589
sg29
S'--'
p590
sg31
S'W23-13'
p591
sg33
S'--'
p592
sg35
S'--'
p593
sg37
S'@BUF'
p594
sg39
S'--'
p595
sg41
S'--'
p596
sg43
S'--'
p597
ssg93
(dp598
g5
S'--'
p599
sg7
S'--'
p600
sg9
g10
sg11
S'--'
p601
sg13
g14
sg15
S'--'
p602
sg17
S'2013'
p603
sg19
g93
sg21
S'--'
p604
sg23
S'10/27'
p605
sg25
S'--'
p606
sg27
S'Cyrus Gray'
p607
sg29
S'--'
p608
sg31
S'W23-17'
p609
sg33
S'--'
p610
sg35
S'--'
p611
sg37
S'CLE'
p612
sg39
S'--'
p613
sg41
S'--'
p614
sg43
S'--'
p615
sssS'2012'
p616
(dp617
g353
(dp618
g5
S'--'
p619
sg7
S'--'
p620
sg9
g10
sg11
S'--'
p621
sg13
g10
sg15
S'--'
p622
sg17
S'2012'
p623
sg19
S'11'
p624
sg21
S'--'
p625
sg23
S'11/18'
p626
sg25
S'--'
p627
sg27
S'Cyrus Gray'
p628
sg29
S'--'
p629
sg31
S'L6-28'
p630
sg33
S'--'
p631
sg35
S'--'
p632
sg37
S'CIN'
p633
sg39
S'--'
p634
sg41
S'--'
p635
sg43
S'--'
p636
ssg3
(dp637
g5
S'--'
p638
sg7
S'--'
p639
sg9
g10
sg11
S'--'
p640
sg13
g10
sg15
S'--'
p641
sg17
S'2012'
p642
sg19
S'10'
p643
sg21
S'--'
p644
sg23
S'11/12'
p645
sg25
S'--'
p646
sg27
S'Cyrus Gray'
p647
sg29
S'--'
p648
sg31
S'L13-16'
p649
sg33
S'--'
p650
sg35
S'--'
p651
sg37
S'@PIT'
p652
sg39
S'--'
p653
sg41
S'--'
p654
sg43
S'--'
p655
ssg378
(dp656
g5
S'6.0'
p657
sg7
S'--'
p658
sg9
g10
sg11
S'--'
p659
sg13
g14
sg15
g10
sg17
S'2012'
p660
sg19
S'13'
p661
sg21
S'--'
p662
sg23
S'12/02'
p663
sg25
S'--'
p664
sg27
S'Cyrus Gray'
p665
sg29
S'--'
p666
sg31
S'W27-21'
p667
sg33
g94
sg35
g14
sg37
S'CAR'
p668
sg39
g94
sg41
S'--'
p669
sg43
S'--'
p670
ssg394
(dp671
g5
S'--'
p672
sg7
S'--'
p673
sg9
g10
sg11
S'--'
p674
sg13
g10
sg15
S'--'
p675
sg17
S'2012'
p676
sg19
S'12'
p677
sg21
S'--'
p678
sg23
S'11/25'
p679
sg25
S'--'
p680
sg27
S'Cyrus Gray'
p681
sg29
S'--'
p682
sg31
S'L9-17'
p683
sg33
S'--'
p684
sg35
S'--'
p685
sg37
S'DEN'
p686
sg39
S'--'
p687
sg41
S'--'
p688
sg43
S'--'
p689
ssg414
(dp690
g5
S'--'
p691
sg7
S'--'
p692
sg9
g10
sg11
S'--'
p693
sg13
g10
sg15
S'--'
p694
sg17
S'2012'
p695
sg19
S'15'
p696
sg21
S'--'
p697
sg23
S'12/16'
p698
sg25
S'--'
p699
sg27
S'Cyrus Gray'
p700
sg29
S'--'
p701
sg31
S'L0-15'
p702
sg33
S'--'
p703
sg35
S'--'
p704
sg37
S'@OAK'
p705
sg39
S'--'
p706
sg41
S'--'
p707
sg43
S'--'
p708
ssg428
(dp709
g5
S'--'
p710
sg7
S'--'
p711
sg9
g10
sg11
S'--'
p712
sg13
g14
sg15
S'--'
p713
sg17
S'2012'
p714
sg19
S'14'
p715
sg21
S'--'
p716
sg23
S'12/09'
p717
sg25
S'--'
p718
sg27
S'Cyrus Gray'
p719
sg29
S'--'
p720
sg31
S'L7-30'
p721
sg33
S'--'
p722
sg35
S'--'
p723
sg37
S'@CLE'
p724
sg39
S'--'
p725
sg41
S'--'
p726
sg43
S'--'
p727
ssg441
(dp728
g5
S'--'
p729
sg7
S'--'
p730
sg9
g10
sg11
S'--'
p731
sg13
g14
sg15
S'--'
p732
sg17
S'2012'
p733
sg19
S'17'
p734
sg21
S'4.5'
p735
sg23
S'12/30'
p736
sg25
g10
sg27
S'Cyrus Gray'
p737
sg29
g54
sg31
S'L3-38'
p738
sg33
S'--'
p739
sg35
S'--'
p740
sg37
S'@DEN'
p741
sg39
S'--'
p742
sg41
g155
sg43
g94
ssg453
(dp743
g5
S'--'
p744
sg7
S'--'
p745
sg9
g10
sg11
S'--'
p746
sg13
g14
sg15
S'--'
p747
sg17
S'2012'
p748
sg19
S'16'
p749
sg21
S'--'
p750
sg23
S'12/23'
p751
sg25
S'--'
p752
sg27
S'Cyrus Gray'
p753
sg29
S'--'
p754
sg31
S'L13-20'
p755
sg33
S'--'
p756
sg35
S'--'
p757
sg37
S'IND'
p758
sg39
S'--'
p759
sg41
S'--'
p760
sg43
S'--'
p761
ssg14
(dp762
g5
S'--'
p763
sg7
S'--'
p764
sg9
g10
sg11
S'--'
p765
sg13
g10
sg15
S'--'
p766
sg17
S'2012'
p767
sg19
g14
sg21
S'--'
p768
sg23
S'09/09'
p769
sg25
S'--'
p770
sg27
S'Cyrus Gray'
p771
sg29
S'--'
p772
sg31
S'L24-40'
p773
sg33
S'--'
p774
sg35
S'--'
p775
sg37
S'ATL'
p776
sg39
S'--'
p777
sg41
S'--'
p778
sg43
S'--'
p779
ssg62
(dp780
g5
S'--'
p781
sg7
S'--'
p782
sg9
g10
sg11
S'--'
p783
sg13
g14
sg15
S'--'
p784
sg17
S'2012'
p785
sg19
g62
sg21
S'--'
p786
sg23
S'09/23'
p787
sg25
S'--'
p788
sg27
S'Cyrus Gray'
p789
sg29
S'--'
p790
sg31
S'W27-24'
p791
sg33
S'--'
p792
sg35
S'--'
p793
sg37
S'@NO'
p794
sg39
S'--'
p795
sg41
S'--'
p796
sg43
S'--'
p797
ssg54
(dp798
g5
S'--'
p799
sg7
S'--'
p800
sg9
g10
sg11
S'--'
p801
sg13
g10
sg15
S'--'
p802
sg17
S'2012'
p803
sg19
g54
sg21
S'--'
p804
sg23
S'09/16'
p805
sg25
S'--'
p806
sg27
S'Cyrus Gray'
p807
sg29
S'--'
p808
sg31
S'L17-35'
p809
sg33
S'--'
p810
sg35
S'--'
p811
sg37
S'@BUF'
p812
sg39
S'--'
p813
sg41
S'--'
p814
sg43
S'--'
p815
ssg60
(dp816
g5
S'12.0'
p817
sg7
S'--'
p818
sg9
g10
sg11
S'--'
p819
sg13
g14
sg15
g10
sg17
S'2012'
p820
sg19
g60
sg21
S'5.0'
p821
sg23
S'10/07'
p822
sg25
g10
sg27
S'Cyrus Gray'
p823
sg29
g61
sg31
S'L6-9'
p824
sg33
S'12'
p825
sg35
g14
sg37
S'BAL'
p826
sg39
S'12'
p827
sg41
S'20'
p828
sg43
S'11'
p829
ssg61
(dp830
g5
S'--'
p831
sg7
S'--'
p832
sg9
g10
sg11
S'--'
p833
sg13
g14
sg15
g10
sg17
S'2012'
p834
sg19
g61
sg21
S'15.0'
p835
sg23
S'09/30'
p836
sg25
g10
sg27
S'Cyrus Gray'
p837
sg29
g14
sg31
S'L20-37'
p838
sg33
g10
sg35
g10
sg37
S'SD'
p839
sg39
S'--'
p840
sg41
S'15'
p841
sg43
S'15'
p842
ssg131
(dp843
g5
g151
sg7
g151
sg9
g151
sg11
g151
sg13
g151
sg15
g151
sg17
S'2012'
p844
sg19
g131
sg21
g151
sg23
S'Bye'
p845
sg25
g151
sg27
S'Cyrus Gray'
p846
sg29
g151
sg31
g151
sg33
g151
sg35
g151
sg37
g151
sg39
g151
sg41
g151
sg43
g151
ssg94
(dp847
g5
S'--'
p848
sg7
S'--'
p849
sg9
g10
sg11
S'--'
p850
sg13
g14
sg15
S'--'
p851
sg17
S'2012'
p852
sg19
g94
sg21
S'--'
p853
sg23
S'10/14'
p854
sg25
S'--'
p855
sg27
S'Cyrus Gray'
p856
sg29
S'--'
p857
sg31
S'L10-38'
p858
sg33
S'--'
p859
sg35
S'--'
p860
sg37
S'@TB'
p861
sg39
S'--'
p862
sg41
S'--'
p863
sg43
S'--'
p864
ssg155
(dp865
g5
S'--'
p866
sg7
S'--'
p867
sg9
g10
sg11
S'--'
p868
sg13
g14
sg15
S'--'
p869
sg17
S'2012'
p870
sg19
g155
sg21
S'--'
p871
sg23
S'11/01'
p872
sg25
S'--'
p873
sg27
S'Cyrus Gray'
p874
sg29
S'--'
p875
sg31
S'L13-31'
p876
sg33
S'--'
p877
sg35
S'--'
p878
sg37
S'@SD'
p879
sg39
S'--'
p880
sg41
S'--'
p881
sg43
S'--'
p882
ssg93
(dp883
g5
S'--'
p884
sg7
S'--'
p885
sg9
g10
sg11
S'--'
p886
sg13
g14
sg15
S'--'
p887
sg17
S'2012'
p888
sg19
g93
sg21
S'--'
p889
sg23
S'10/28'
p890
sg25
S'--'
p891
sg27
S'Cyrus Gray'
p892
sg29
S'--'
p893
sg31
S'L16-26'
p894
sg33
S'--'
p895
sg35
S'--'
p896
sg37
S'OAK'
p897
sg39
S'--'
p898
sg41
S'--'
p899
sg43
S'--'
p900
sss.