(dp0
S'2015'
p1
(dp2
S'11'
p3
(dp4
S'RecAvg'
p5
S'--'
p6
sS'FUM'
p7
S'--'
p8
sS'GS'
p9
S'0'
p10
sS'Lost'
p11
S'--'
p12
sS'G'
p13
S'1'
p14
sS'RecTD'
p15
S'--'
p16
sS'Year'
p17
S'2015'
p18
sS'WK'
p19
S'11'
p20
sS'RushAvg'
p21
S'--'
p22
sS'Game Date'
p23
S'11/22'
p24
sS'RushTD'
p25
S'--'
p26
sS'Player'
p27
S'Damien Williams'
p28
sS'RushAtt'
p29
S'--'
p30
sS'Result'
p31
S'L14-24'
p32
sS'RecYds'
p33
S'--'
p34
sS'Rec'
p35
S'--'
p36
sS'Opp'
p37
S'DAL'
p38
sS'RecLng'
p39
S'--'
p40
sS'RushYds'
p41
S'--'
p42
sS'RushLng'
p43
S'--'
p44
ssS'10'
p45
(dp46
g5
S'--'
p47
sg7
S'--'
p48
sg9
g10
sg11
S'--'
p49
sg13
g14
sg15
g10
sg17
S'2015'
p50
sg19
S'10'
p51
sg21
S'--'
p52
sg23
S'11/15'
p53
sg25
S'--'
p54
sg27
S'Damien Williams'
p55
sg29
S'--'
p56
sg31
S'W20-19'
p57
sg33
g10
sg35
g10
sg37
S'@PHI'
p58
sg39
S'--'
p59
sg41
S'--'
p60
sg43
S'--'
p61
ssS'13'
p62
(dp63
g5
S'5.0'
p64
sg7
S'--'
p65
sg9
g10
sg11
S'--'
p66
sg13
g14
sg15
g10
sg17
S'2015'
p67
sg19
S'13'
p68
sg21
S'1.0'
p69
sg23
S'12/06'
p70
sg25
g10
sg27
S'Damien Williams'
p71
sg29
g14
sg31
S'W15-13'
p72
sg33
S'5'
p73
sg35
g14
sg37
S'BAL'
p74
sg39
g73
sg41
g14
sg43
g14
ssS'12'
p75
(dp76
g5
S'5.0'
p77
sg7
S'--'
p78
sg9
g10
sg11
S'--'
p79
sg13
g14
sg15
g10
sg17
S'2015'
p80
sg19
S'12'
p81
sg21
S'--'
p82
sg23
S'11/29'
p83
sg25
S'--'
p84
sg27
S'Damien Williams'
p85
sg29
S'--'
p86
sg31
S'L20-38'
p87
sg33
S'10'
p88
sg35
S'2'
p89
sg37
S'@NYJ'
p90
sg39
S'7'
p91
sg41
S'--'
p92
sg43
S'--'
p93
ssS'15'
p94
(dp95
g5
S'5.5'
p96
sg7
S'--'
p97
sg9
g10
sg11
S'--'
p98
sg13
g14
sg15
g10
sg17
S'2015'
p99
sg19
S'15'
p100
sg21
S'1.0'
p101
sg23
S'12/20'
p102
sg25
g10
sg27
S'Damien Williams'
p103
sg29
g14
sg31
S'L14-30'
p104
sg33
S'11'
p105
sg35
g89
sg37
S'@SD'
p106
sg39
S'6'
p107
sg41
g14
sg43
g14
ssS'14'
p108
(dp109
g5
S'5.5'
p110
sg7
S'--'
p111
sg9
g10
sg11
S'--'
p112
sg13
g14
sg15
g10
sg17
S'2015'
p113
sg19
S'14'
p114
sg21
S'--'
p115
sg23
S'12/14'
p116
sg25
S'--'
p117
sg27
S'Damien Williams'
p118
sg29
S'--'
p119
sg31
S'L24-31'
p120
sg33
S'11'
p121
sg35
g89
sg37
S'NYG'
p122
sg39
g91
sg41
S'--'
p123
sg43
S'--'
p124
ssS'17'
p125
(dp126
g5
S'12.7'
p127
sg7
S'--'
p128
sg9
g10
sg11
S'--'
p129
sg13
g14
sg15
g10
sg17
S'2015'
p130
sg19
S'17'
p131
sg21
S'3.7'
p132
sg23
S'01/03'
p133
sg25
g10
sg27
S'Damien Williams'
p134
sg29
S'3'
p135
sg31
S'W20-10'
p136
sg33
S'38'
p137
sg35
g135
sg37
S'NE'
p138
sg39
S'22'
p139
sg41
S'11'
p140
sg43
S'8'
p141
ssS'16'
p142
(dp143
g5
S'11.0'
p144
sg7
S'--'
p145
sg9
g10
sg11
S'--'
p146
sg13
g14
sg15
g10
sg17
S'2015'
p147
sg19
S'16'
p148
sg21
S'--'
p149
sg23
S'12/27'
p150
sg25
S'--'
p151
sg27
S'Damien Williams'
p152
sg29
S'--'
p153
sg31
S'L12-18'
p154
sg33
S'33'
p155
sg35
g135
sg37
S'IND'
p156
sg39
S'23'
p157
sg41
S'--'
p158
sg43
S'--'
p159
ssg14
(dp160
g5
S'3.0'
p161
sg7
S'--'
p162
sg9
g10
sg11
S'--'
p163
sg13
g14
sg15
g10
sg17
S'2015'
p164
sg19
g14
sg21
S'0.0'
p165
sg23
S'09/13'
p166
sg25
g10
sg27
S'Damien Williams'
p167
sg29
g14
sg31
S'W17-10'
p168
sg33
g135
sg35
g14
sg37
S'@WAS'
p169
sg39
g135
sg41
g10
sg43
g10
ssg135
(dp170
g5
S'5.0'
p171
sg7
S'--'
p172
sg9
g10
sg11
S'--'
p173
sg13
g14
sg15
g10
sg17
S'2015'
p174
sg19
g135
sg21
S'8.5'
p175
sg23
S'09/27'
p176
sg25
g10
sg27
S'Damien Williams'
p177
sg29
g89
sg31
S'L14-41'
p178
sg33
g73
sg35
g14
sg37
S'BUF'
p179
sg39
g73
sg41
S'17'
p180
sg43
S'14'
p181
ssg89
(dp182
g5
S'5.0'
p183
sg7
S'--'
p184
sg9
g10
sg11
S'--'
p185
sg13
g14
sg15
g14
sg17
S'2015'
p186
sg19
g89
sg21
S'2.5'
p187
sg23
S'09/20'
p188
sg25
g10
sg27
S'Damien Williams'
p189
sg29
g89
sg31
S'L20-23'
p190
sg33
S'15'
p191
sg35
g135
sg37
S'@JAC'
p192
sg39
S'10T'
p193
sg41
g73
sg43
g135
ssg73
(dp194
g5
S''
p195
sg7
g195
sg9
g195
sg11
g195
sg13
g195
sg15
g195
sg17
S'2015'
p196
sg19
g73
sg21
g195
sg23
S'Bye'
p197
sg25
g195
sg27
S'Damien Williams'
p198
sg29
g195
sg31
g195
sg33
g195
sg35
g195
sg37
g195
sg39
g195
sg41
g195
sg43
g195
ssS'4'
p199
(dp200
g5
S'1.0'
p201
sg7
S'--'
p202
sg9
g10
sg11
S'--'
p203
sg13
g14
sg15
g10
sg17
S'2015'
p204
sg19
g199
sg21
S'--'
p205
sg23
S'10/04'
p206
sg25
S'--'
p207
sg27
S'Damien Williams'
p208
sg29
S'--'
p209
sg31
S'L14-27'
p210
sg33
g14
sg35
g14
sg37
S'NYJ'
p211
sg39
g14
sg41
S'--'
p212
sg43
S'--'
p213
ssg91
(dp214
g5
S'5.0'
p215
sg7
g14
sg9
g10
sg11
g14
sg13
g14
sg15
g10
sg17
S'2015'
p216
sg19
g91
sg21
S'4.8'
p217
sg23
S'10/25'
p218
sg25
g10
sg27
S'Damien Williams'
p219
sg29
g199
sg31
S'W44-26'
p220
sg33
S'10'
p221
sg35
g89
sg37
S'HOU'
p222
sg39
g141
sg41
S'19'
p223
sg43
S'19'
p224
ssg107
(dp225
g5
S'--'
p226
sg7
S'--'
p227
sg9
g10
sg11
S'--'
p228
sg13
g14
sg15
S'--'
p229
sg17
S'2015'
p230
sg19
g107
sg21
S'2.5'
p231
sg23
S'10/18'
p232
sg25
g10
sg27
S'Damien Williams'
p233
sg29
g89
sg31
S'W38-10'
p234
sg33
S'--'
p235
sg35
S'--'
p236
sg37
S'@TEN'
p237
sg39
S'--'
p238
sg41
g73
sg43
g199
ssS'9'
p239
(dp240
g5
S'--'
p241
sg7
g14
sg9
g10
sg11
g10
sg13
g14
sg15
S'--'
p242
sg17
S'2015'
p243
sg19
g239
sg21
S'--'
p244
sg23
S'11/08'
p245
sg25
S'--'
p246
sg27
S'Damien Williams'
p247
sg29
S'--'
p248
sg31
S'L17-33'
p249
sg33
S'--'
p250
sg35
S'--'
p251
sg37
S'@BUF'
p252
sg39
S'--'
p253
sg41
S'--'
p254
sg43
S'--'
p255
ssg141
(dp256
g5
S'--'
p257
sg7
S'--'
p258
sg9
g10
sg11
S'--'
p259
sg13
g14
sg15
S'--'
p260
sg17
S'2015'
p261
sg19
g141
sg21
S'--'
p262
sg23
S'10/29'
p263
sg25
S'--'
p264
sg27
S'Damien Williams'
p265
sg29
S'--'
p266
sg31
S'L7-36'
p267
sg33
S'--'
p268
sg35
S'--'
p269
sg37
S'@NE'
p270
sg39
S'--'
p271
sg41
S'--'
p272
sg43
S'--'
p273
sssS'2014'
p274
(dp275
g3
(dp276
g5
S'19.0'
p277
sg7
S'--'
p278
sg9
g10
sg11
S'--'
p279
sg13
g14
sg15
g10
sg17
S'2014'
p280
sg19
S'11'
p281
sg21
S'--'
p282
sg23
S'11/13'
p283
sg25
S'--'
p284
sg27
S'Damien Williams'
p285
sg29
S'--'
p286
sg31
S'W22-9'
p287
sg33
S'38'
p288
sg35
g89
sg37
S'BUF'
p289
sg39
S'32'
p290
sg41
S'--'
p291
sg43
S'--'
p292
ssg45
(dp293
g5
S'9.0'
p294
sg7
S'--'
p295
sg9
g10
sg11
S'--'
p296
sg13
g14
sg15
g10
sg17
S'2014'
p297
sg19
S'10'
p298
sg21
S'4.9'
p299
sg23
S'11/09'
p300
sg25
g10
sg27
S'Damien Williams'
p301
sg29
g91
sg31
S'L16-20'
p302
sg33
S'27'
p303
sg35
g135
sg37
S'@DET'
p304
sg39
S'11'
p305
sg41
S'34'
p306
sg43
S'19'
p307
ssg62
(dp308
g5
S'--'
p309
sg7
S'--'
p310
sg9
g10
sg11
S'--'
p311
sg13
g14
sg15
S'--'
p312
sg17
S'2014'
p313
sg19
S'13'
p314
sg21
S'--'
p315
sg23
S'12/01'
p316
sg25
S'--'
p317
sg27
S'Damien Williams'
p318
sg29
S'--'
p319
sg31
S'W16-13'
p320
sg33
S'--'
p321
sg35
S'--'
p322
sg37
S'@NYJ'
p323
sg39
S'--'
p324
sg41
S'--'
p325
sg43
S'--'
p326
ssg75
(dp327
g5
S'-1.0'
p328
sg7
S'--'
p329
sg9
g10
sg11
S'--'
p330
sg13
g14
sg15
g10
sg17
S'2014'
p331
sg19
S'12'
p332
sg21
S'--'
p333
sg23
S'11/23'
p334
sg25
S'--'
p335
sg27
S'Damien Williams'
p336
sg29
S'--'
p337
sg31
S'L36-39'
p338
sg33
S'-1'
p339
sg35
g14
sg37
S'@DEN'
p340
sg39
S'-1'
p341
sg41
S'--'
p342
sg43
S'--'
p343
ssg94
(dp344
g5
S'4.5'
p345
sg7
S'--'
p346
sg9
g10
sg11
S'--'
p347
sg13
g14
sg15
g10
sg17
S'2014'
p348
sg19
S'15'
p349
sg21
S'--'
p350
sg23
S'12/14'
p351
sg25
S'--'
p352
sg27
S'Damien Williams'
p353
sg29
S'--'
p354
sg31
S'L13-41'
p355
sg33
g239
sg35
g89
sg37
S'@NE'
p356
sg39
g73
sg41
S'--'
p357
sg43
S'--'
p358
ssg108
(dp359
g5
S'7.0'
p360
sg7
S'--'
p361
sg9
g10
sg11
S'--'
p362
sg13
g14
sg15
g10
sg17
S'2014'
p363
sg19
S'14'
p364
sg21
S'2.0'
p365
sg23
S'12/07'
p366
sg25
g10
sg27
S'Damien Williams'
p367
sg29
g89
sg31
S'L13-28'
p368
sg33
g91
sg35
g14
sg37
S'BAL'
p369
sg39
g91
sg41
g199
sg43
g199
ssg125
(dp370
g5
S'11.0'
p371
sg7
S'--'
p372
sg9
g10
sg11
S'--'
p373
sg13
g14
sg15
g10
sg17
S'2014'
p374
sg19
S'17'
p375
sg21
S'--'
p376
sg23
S'12/28'
p377
sg25
S'--'
p378
sg27
S'Damien Williams'
p379
sg29
S'--'
p380
sg31
S'L24-37'
p381
sg33
S'22'
p382
sg35
g89
sg37
S'NYJ'
p383
sg39
S'11'
p384
sg41
S'--'
p385
sg43
S'--'
p386
ssg142
(dp387
g5
S'8.3'
p388
sg7
S'--'
p389
sg9
g10
sg11
S'--'
p390
sg13
g14
sg15
g14
sg17
S'2014'
p391
sg19
S'16'
p392
sg21
S'6.0'
p393
sg23
S'12/21'
p394
sg25
g10
sg27
S'Damien Williams'
p395
sg29
g135
sg31
S'W37-35'
p396
sg33
S'50'
p397
sg35
g107
sg37
S'MIN'
p398
sg39
S'20'
p399
sg41
S'18'
p400
sg43
S'12'
p401
ssg14
(dp402
g5
S'--'
p403
sg7
S'--'
p404
sg9
g10
sg11
S'--'
p405
sg13
g14
sg15
S'--'
p406
sg17
S'2014'
p407
sg19
g14
sg21
S'--'
p408
sg23
S'09/07'
p409
sg25
S'--'
p410
sg27
S'Damien Williams'
p411
sg29
S'--'
p412
sg31
S'W33-20'
p413
sg33
S'--'
p414
sg35
S'--'
p415
sg37
S'NE'
p416
sg39
S'--'
p417
sg41
S'--'
p418
sg43
S'--'
p419
ssg135
(dp420
g5
S'--'
p421
sg7
S'--'
p422
sg9
g10
sg11
S'--'
p423
sg13
g14
sg15
S'--'
p424
sg17
S'2014'
p425
sg19
g135
sg21
S'-3.0'
p426
sg23
S'09/21'
p427
sg25
g10
sg27
S'Damien Williams'
p428
sg29
g14
sg31
S'L15-34'
p429
sg33
S'--'
p430
sg35
S'--'
p431
sg37
S'KC'
p432
sg39
S'--'
p433
sg41
S'-3'
p434
sg43
S'-3'
p435
ssg89
(dp436
g5
S'--'
p437
sg7
S'--'
p438
sg9
g10
sg11
S'--'
p439
sg13
g14
sg15
S'--'
p440
sg17
S'2014'
p441
sg19
g89
sg21
S'3.8'
p442
sg23
S'09/14'
p443
sg25
g10
sg27
S'Damien Williams'
p444
sg29
g73
sg31
S'L10-29'
p445
sg33
S'--'
p446
sg35
S'--'
p447
sg37
S'@BUF'
p448
sg39
S'--'
p449
sg41
S'19'
p450
sg43
g91
ssg73
(dp451
g5
g195
sg7
g195
sg9
g195
sg11
g195
sg13
g195
sg15
g195
sg17
S'2014'
p452
sg19
g73
sg21
g195
sg23
S'Bye'
p453
sg25
g195
sg27
S'Damien Williams'
p454
sg29
g195
sg31
g195
sg33
g195
sg35
g195
sg37
g195
sg39
g195
sg41
g195
sg43
g195
ssg199
(dp455
g5
S'--'
p456
sg7
S'--'
p457
sg9
g10
sg11
S'--'
p458
sg13
g14
sg15
S'--'
p459
sg17
S'2014'
p460
sg19
g199
sg21
S'3.8'
p461
sg23
S'09/28'
p462
sg25
g10
sg27
S'Damien Williams'
p463
sg29
g107
sg31
S'W38-14'
p464
sg33
S'--'
p465
sg35
S'--'
p466
sg37
S'@OAK'
p467
sg39
S'--'
p468
sg41
S'23'
p469
sg43
S'12'
p470
ssg91
(dp471
g5
S'6.0'
p472
sg7
S'--'
p473
sg9
g10
sg11
S'--'
p474
sg13
g14
sg15
g10
sg17
S'2014'
p475
sg19
g91
sg21
S'-1.0'
p476
sg23
S'10/19'
p477
sg25
g10
sg27
S'Damien Williams'
p478
sg29
g14
sg31
S'W27-14'
p479
sg33
S'12'
p480
sg35
g89
sg37
S'@CHI'
p481
sg39
g91
sg41
S'-1'
p482
sg43
S'-1'
p483
ssg107
(dp484
g5
S'--'
p485
sg7
S'--'
p486
sg9
g10
sg11
S'--'
p487
sg13
g14
sg15
S'--'
p488
sg17
S'2014'
p489
sg19
g107
sg21
S'--'
p490
sg23
S'10/12'
p491
sg25
S'--'
p492
sg27
S'Damien Williams'
p493
sg29
S'--'
p494
sg31
S'L24-27'
p495
sg33
S'--'
p496
sg35
S'--'
p497
sg37
S'GB'
p498
sg39
S'--'
p499
sg41
S'--'
p500
sg43
S'--'
p501
ssg239
(dp502
g5
S'11.5'
p503
sg7
S'--'
p504
sg9
g10
sg11
S'--'
p505
sg13
g14
sg15
g10
sg17
S'2014'
p506
sg19
g239
sg21
S'2.5'
p507
sg23
S'11/02'
p508
sg25
g10
sg27
S'Damien Williams'
p509
sg29
S'11'
p510
sg31
S'W37-0'
p511
sg33
S'23'
p512
sg35
g89
sg37
S'SD'
p513
sg39
S'21'
p514
sg41
S'28'
p515
sg43
g239
ssg141
(dp516
g5
S'--'
p517
sg7
S'--'
p518
sg9
g10
sg11
S'--'
p519
sg13
g14
sg15
S'--'
p520
sg17
S'2014'
p521
sg19
g141
sg21
S'--'
p522
sg23
S'10/26'
p523
sg25
S'--'
p524
sg27
S'Damien Williams'
p525
sg29
S'--'
p526
sg31
S'W27-13'
p527
sg33
S'--'
p528
sg35
S'--'
p529
sg37
S'@JAC'
p530
sg39
S'--'
p531
sg41
S'--'
p532
sg43
S'--'
p533
sss.