(dp0
S'2014'
p1
(dp2
S'11'
p3
(dp4
S'RecAvg'
p5
S'--'
p6
sS'FUM'
p7
S'--'
p8
sS'GS'
p9
S'0'
p10
sS'Lost'
p11
S'--'
p12
sS'G'
p13
S'1'
p14
sS'RecTD'
p15
S'--'
p16
sS'Year'
p17
S'2014'
p18
sS'WK'
p19
S'11'
p20
sS'RushAvg'
p21
S'4.6'
p22
sS'Game Date'
p23
S'11/13'
p24
sS'RushTD'
p25
g10
sS'Player'
p26
S'Daniel Thomas'
p27
sS'RushAtt'
p28
S'5'
p29
sS'Result'
p30
S'W22-9'
p31
sS'RecYds'
p32
S'--'
p33
sS'Rec'
p34
S'--'
p35
sS'Opp'
p36
S'BUF'
p37
sS'RecLng'
p38
S'--'
p39
sS'RushYds'
p40
S'23'
p41
sS'RushLng'
p42
S'7'
p43
ssS'10'
p44
(dp45
g5
S'--'
p46
sg7
g14
sg9
g10
sg11
g14
sg13
g14
sg15
S'--'
p47
sg17
S'2014'
p48
sg19
S'10'
p49
sg21
S'2.8'
p50
sg23
S'11/09'
p51
sg25
g10
sg26
S'Daniel Thomas'
p52
sg28
g29
sg30
S'L16-20'
p53
sg32
S'--'
p54
sg34
S'--'
p55
sg36
S'@DET'
p56
sg38
S'--'
p57
sg40
S'14'
p58
sg42
g43
ssS'13'
p59
(dp60
g5
S'3.0'
p61
sg7
S'--'
p62
sg9
g10
sg11
S'--'
p63
sg13
g14
sg15
g10
sg17
S'2014'
p64
sg19
S'13'
p65
sg21
S'5.0'
p66
sg23
S'12/01'
p67
sg25
g10
sg26
S'Daniel Thomas'
p68
sg28
g14
sg30
S'W16-13'
p69
sg32
S'3'
p70
sg34
g14
sg36
S'@NYJ'
p71
sg38
g70
sg40
g29
sg42
g29
ssS'12'
p72
(dp73
g5
S'--'
p74
sg7
S'--'
p75
sg9
g10
sg11
S'--'
p76
sg13
g14
sg15
S'--'
p77
sg17
S'2014'
p78
sg19
S'12'
p79
sg21
S'6.3'
p80
sg23
S'11/23'
p81
sg25
g14
sg26
S'Daniel Thomas'
p82
sg28
g70
sg30
S'L36-39'
p83
sg32
S'--'
p84
sg34
S'--'
p85
sg36
S'@DEN'
p86
sg38
S'--'
p87
sg40
S'19'
p88
sg42
S'10'
p89
ssS'15'
p90
(dp91
g5
S'10.0'
p92
sg7
S'--'
p93
sg9
g10
sg11
S'--'
p94
sg13
g14
sg15
g10
sg17
S'2014'
p95
sg19
S'15'
p96
sg21
S'2.5'
p97
sg23
S'12/14'
p98
sg25
g10
sg26
S'Daniel Thomas'
p99
sg28
S'2'
p100
sg30
S'L13-41'
p101
sg32
S'20'
p102
sg34
g100
sg36
S'@NE'
p103
sg38
S'10'
p104
sg40
g29
sg42
g29
ssS'14'
p105
(dp106
g5
S'--'
p107
sg7
S'--'
p108
sg9
g10
sg11
S'--'
p109
sg13
g14
sg15
g10
sg17
S'2014'
p110
sg19
S'14'
p111
sg21
S'--'
p112
sg23
S'12/07'
p113
sg25
S'--'
p114
sg26
S'Daniel Thomas'
p115
sg28
S'--'
p116
sg30
S'L13-28'
p117
sg32
g10
sg34
g10
sg36
S'BAL'
p118
sg38
S'--'
p119
sg40
S'--'
p120
sg42
S'--'
p121
ssS'17'
p122
(dp123
g5
S'1.0'
p124
sg7
S'--'
p125
sg9
g10
sg11
S'--'
p126
sg13
g14
sg15
g10
sg17
S'2014'
p127
sg19
S'17'
p128
sg21
S'1.0'
p129
sg23
S'12/28'
p130
sg25
g14
sg26
S'Daniel Thomas'
p131
sg28
g14
sg30
S'L24-37'
p132
sg32
g14
sg34
g14
sg36
S'NYJ'
p133
sg38
g14
sg40
g14
sg42
S'1T'
p134
ssS'16'
p135
(dp136
g5
S'--'
p137
sg7
S'--'
p138
sg9
g10
sg11
S'--'
p139
sg13
g10
sg15
S'--'
p140
sg17
S'2014'
p141
sg19
S'16'
p142
sg21
S'--'
p143
sg23
S'12/21'
p144
sg25
S'--'
p145
sg26
S'Daniel Thomas'
p146
sg28
S'--'
p147
sg30
S'W37-35'
p148
sg32
S'--'
p149
sg34
S'--'
p150
sg36
S'MIN'
p151
sg38
S'--'
p152
sg40
S'--'
p153
sg42
S'--'
p154
ssg70
(dp155
g5
S'21.0'
p156
sg7
S'--'
p157
sg9
g10
sg11
S'--'
p158
sg13
g14
sg15
g10
sg17
S'2014'
p159
sg19
g70
sg21
S'7.5'
p160
sg23
S'09/21'
p161
sg25
g10
sg26
S'Daniel Thomas'
p162
sg28
g100
sg30
S'L15-34'
p163
sg32
S'21'
p164
sg34
g14
sg36
S'KC'
p165
sg38
S'21'
p166
sg40
S'15'
p167
sg42
S'10'
p168
ssg29
(dp169
g5
S''
p170
sg7
g170
sg9
g170
sg11
g170
sg13
g170
sg15
g170
sg17
S'2014'
p171
sg19
g29
sg21
g170
sg23
S'Bye'
p172
sg25
g170
sg26
S'Daniel Thomas'
p173
sg28
g170
sg30
g170
sg32
g170
sg34
g170
sg36
g170
sg38
g170
sg40
g170
sg42
g170
ssS'4'
p174
(dp175
g5
S'25.0'
p176
sg7
S'--'
p177
sg9
g10
sg11
S'--'
p178
sg13
g14
sg15
g10
sg17
S'2014'
p179
sg19
g174
sg21
S'7.0'
p180
sg23
S'09/28'
p181
sg25
g10
sg26
S'Daniel Thomas'
p182
sg28
g29
sg30
S'W38-14'
p183
sg32
S'25'
p184
sg34
g14
sg36
S'@OAK'
p185
sg38
S'25'
p186
sg40
S'35'
p187
sg42
S'15'
p188
ssg43
(dp189
g5
S'8.3'
p190
sg7
S'--'
p191
sg9
g10
sg11
S'--'
p192
sg13
g14
sg15
g10
sg17
S'2014'
p193
sg19
g43
sg21
S'3.6'
p194
sg23
S'10/19'
p195
sg25
g10
sg26
S'Daniel Thomas'
p196
sg28
g43
sg30
S'W27-14'
p197
sg32
S'25'
p198
sg34
g70
sg36
S'@CHI'
p199
sg38
S'15'
p200
sg40
S'25'
p201
sg42
S'11'
p202
ssS'6'
p203
(dp204
g5
S'--'
p205
sg7
S'--'
p206
sg9
g10
sg11
S'--'
p207
sg13
g10
sg15
S'--'
p208
sg17
S'2014'
p209
sg19
g203
sg21
S'--'
p210
sg23
S'10/12'
p211
sg25
S'--'
p212
sg26
S'Daniel Thomas'
p213
sg28
S'--'
p214
sg30
S'L24-27'
p215
sg32
S'--'
p216
sg34
S'--'
p217
sg36
S'GB'
p218
sg38
S'--'
p219
sg40
S'--'
p220
sg42
S'--'
p221
ssS'9'
p222
(dp223
g5
S'7.0'
p224
sg7
S'--'
p225
sg9
g10
sg11
S'--'
p226
sg13
g14
sg15
g10
sg17
S'2014'
p227
sg19
g222
sg21
S'0.9'
p228
sg23
S'11/02'
p229
sg25
g10
sg26
S'Daniel Thomas'
p230
sg28
g222
sg30
S'W37-0'
p231
sg32
S'14'
p232
sg34
g100
sg36
S'SD'
p233
sg38
S'12'
p234
sg40
S'8'
p235
sg42
g29
ssg235
(dp236
g5
S'6.0'
p237
sg7
S'--'
p238
sg9
g10
sg11
S'--'
p239
sg13
g14
sg15
g10
sg17
S'2014'
p240
sg19
g235
sg21
S'4.5'
p241
sg23
S'10/26'
p242
sg25
g10
sg26
S'Daniel Thomas'
p243
sg28
g174
sg30
S'W27-13'
p244
sg32
S'12'
p245
sg34
g100
sg36
S'@JAC'
p246
sg38
S'13'
p247
sg40
S'18'
p248
sg42
g222
sssS'2011'
p249
(dp250
g3
(dp251
g5
S'--'
p252
sg7
S'--'
p253
sg9
g10
sg11
S'--'
p254
sg13
g14
sg15
g10
sg17
S'2011'
p255
sg19
S'11'
p256
sg21
S'3.3'
p257
sg23
S'11/20'
p258
sg25
g10
sg26
S'Daniel Thomas'
p259
sg28
S'15'
p260
sg30
S'W35-8'
p261
sg32
g10
sg34
g10
sg36
S'BUF'
p262
sg38
S'--'
p263
sg40
S'50'
p264
sg42
S'12'
p265
ssg44
(dp266
g5
S'--'
p267
sg7
S'--'
p268
sg9
g14
sg11
S'--'
p269
sg13
g14
sg15
S'--'
p270
sg17
S'2011'
p271
sg19
S'10'
p272
sg21
S'2.5'
p273
sg23
S'11/13'
p274
sg25
g10
sg26
S'Daniel Thomas'
p275
sg28
S'17'
p276
sg30
S'W20-9'
p277
sg32
S'--'
p278
sg34
S'--'
p279
sg36
S'WAS'
p280
sg38
S'--'
p281
sg40
S'42'
p282
sg42
g43
ssg59
(dp283
g5
S'--'
p284
sg7
S'--'
p285
sg9
g10
sg11
S'--'
p286
sg13
g14
sg15
S'--'
p287
sg17
S'2011'
p288
sg19
S'13'
p289
sg21
S'5.6'
p290
sg23
S'12/04'
p291
sg25
g10
sg26
S'Daniel Thomas'
p292
sg28
S'13'
p293
sg30
S'W34-14'
p294
sg32
S'--'
p295
sg34
S'--'
p296
sg36
S'OAK'
p297
sg38
S'--'
p298
sg40
S'73'
p299
sg42
S'21'
p300
ssg72
(dp301
g5
S'2.0'
p302
sg7
S'--'
p303
sg9
g10
sg11
S'--'
p304
sg13
g14
sg15
g10
sg17
S'2011'
p305
sg19
S'12'
p306
sg21
S'4.2'
p307
sg23
S'11/24'
p308
sg25
g10
sg26
S'Daniel Thomas'
p309
sg28
g203
sg30
S'L19-20'
p310
sg32
g100
sg34
g14
sg36
S'@DAL'
p311
sg38
g100
sg40
S'25'
p312
sg42
S'11'
p313
ssg90
(dp314
g5
S'--'
p315
sg7
S'--'
p316
sg9
g10
sg11
S'--'
p317
sg13
g14
sg15
S'--'
p318
sg17
S'2011'
p319
sg19
S'15'
p320
sg21
S'3.8'
p321
sg23
S'12/18'
p322
sg25
g10
sg26
S'Daniel Thomas'
p323
sg28
S'11'
p324
sg30
S'W30-23'
p325
sg32
S'--'
p326
sg34
S'--'
p327
sg36
S'@BUF'
p328
sg38
S'--'
p329
sg40
S'42'
p330
sg42
S'28'
p331
ssg105
(dp332
g5
S'4.5'
p333
sg7
S'--'
p334
sg9
g10
sg11
S'--'
p335
sg13
g14
sg15
g10
sg17
S'2011'
p336
sg19
S'14'
p337
sg21
S'0.6'
p338
sg23
S'12/11'
p339
sg25
g10
sg26
S'Daniel Thomas'
p340
sg28
g43
sg30
S'L10-26'
p341
sg32
g222
sg34
g100
sg36
S'PHI'
p342
sg38
g43
sg40
g174
sg42
g174
ssg122
(dp343
g5
S'6.0'
p344
sg7
S'--'
p345
sg9
g14
sg11
S'--'
p346
sg13
g14
sg15
g10
sg17
S'2011'
p347
sg19
S'17'
p348
sg21
S'2.3'
p349
sg23
S'01/01'
p350
sg25
g10
sg26
S'Daniel Thomas'
p351
sg28
S'12'
p352
sg30
S'W19-17'
p353
sg32
S'12'
p354
sg34
g100
sg36
S'NYJ'
p355
sg38
g235
sg40
S'28'
p356
sg42
S'13'
p357
ssg135
(dp358
g5
S'--'
p359
sg7
S'--'
p360
sg9
g10
sg11
S'--'
p361
sg13
g14
sg15
S'--'
p362
sg17
S'2011'
p363
sg19
S'16'
p364
sg21
S'1.5'
p365
sg23
S'12/24'
p366
sg25
g10
sg26
S'Daniel Thomas'
p367
sg28
g100
sg30
S'L24-27'
p368
sg32
S'--'
p369
sg34
S'--'
p370
sg36
S'@NE'
p371
sg38
S'--'
p372
sg40
g70
sg42
g100
ssg14
(dp373
g5
S'--'
p374
sg7
S'--'
p375
sg9
g10
sg11
S'--'
p376
sg13
g10
sg15
S'--'
p377
sg17
S'2011'
p378
sg19
g14
sg21
S'--'
p379
sg23
S'09/12'
p380
sg25
S'--'
p381
sg26
S'Daniel Thomas'
p382
sg28
S'--'
p383
sg30
S'L24-38'
p384
sg32
S'--'
p385
sg34
S'--'
p386
sg36
S'NE'
p387
sg38
S'--'
p388
sg40
S'--'
p389
sg42
S'--'
p390
ssg70
(dp391
g5
S'9.0'
p392
sg7
S'--'
p393
sg9
g10
sg11
S'--'
p394
sg13
g14
sg15
g14
sg17
S'2011'
p395
sg19
g70
sg21
S'4.1'
p396
sg23
S'09/25'
p397
sg25
g10
sg26
S'Daniel Thomas'
p398
sg28
S'23'
p399
sg30
S'L16-17'
p400
sg32
S'27'
p401
sg34
g70
sg36
S'@CLE'
p402
sg38
S'10T'
p403
sg40
S'95'
p404
sg42
g222
ssg100
(dp405
g5
S'10.0'
p406
sg7
g14
sg9
g10
sg11
g14
sg13
g14
sg15
g10
sg17
S'2011'
p407
sg19
g100
sg21
S'5.9'
p408
sg23
S'09/18'
p409
sg25
g10
sg26
S'Daniel Thomas'
p410
sg28
S'18'
p411
sg30
S'L13-23'
p412
sg32
S'10'
p413
sg34
g14
sg36
S'HOU'
p414
sg38
S'10'
p415
sg40
S'107'
p416
sg42
S'14'
p417
ssg29
(dp418
g5
g170
sg7
g170
sg9
g170
sg11
g170
sg13
g170
sg15
g170
sg17
S'2011'
p419
sg19
g29
sg21
g170
sg23
S'Bye'
p420
sg25
g170
sg26
S'Daniel Thomas'
p421
sg28
g170
sg30
g170
sg32
g170
sg34
g170
sg36
g170
sg38
g170
sg40
g170
sg42
g170
ssg174
(dp422
g5
S'--'
p423
sg7
S'--'
p424
sg9
g10
sg11
S'--'
p425
sg13
g10
sg15
S'--'
p426
sg17
S'2011'
p427
sg19
g174
sg21
S'--'
p428
sg23
S'10/02'
p429
sg25
S'--'
p430
sg26
S'Daniel Thomas'
p431
sg28
S'--'
p432
sg30
S'L16-26'
p433
sg32
S'--'
p434
sg34
S'--'
p435
sg36
S'@SD'
p436
sg38
S'--'
p437
sg40
S'--'
p438
sg42
S'--'
p439
ssg43
(dp440
g5
S'0.0'
p441
sg7
S'--'
p442
sg9
g10
sg11
S'--'
p443
sg13
g14
sg15
g10
sg17
S'2011'
p444
sg19
g43
sg21
S'2.8'
p445
sg23
S'10/23'
p446
sg25
g10
sg26
S'Daniel Thomas'
p447
sg28
S'19'
p448
sg30
S'L15-18'
p449
sg32
g10
sg34
g100
sg36
S'DEN'
p450
sg38
g29
sg40
S'53'
p451
sg42
S'14'
p452
ssg203
(dp453
g5
S'12.0'
p454
sg7
g14
sg9
g10
sg11
g10
sg13
g14
sg15
g10
sg17
S'2011'
p455
sg19
g203
sg21
S'3.1'
p456
sg23
S'10/17'
p457
sg25
g10
sg26
S'Daniel Thomas'
p458
sg28
S'15'
p459
sg30
S'L6-24'
p460
sg32
S'12'
p461
sg34
g14
sg36
S'@NYJ'
p462
sg38
S'12'
p463
sg40
S'47'
p464
sg42
S'15'
p465
ssg222
(dp466
g5
S'--'
p467
sg7
S'--'
p468
sg9
g10
sg11
S'--'
p469
sg13
g14
sg15
S'--'
p470
sg17
S'2011'
p471
sg19
g222
sg21
S'1.7'
p472
sg23
S'11/06'
p473
sg25
g10
sg26
S'Daniel Thomas'
p474
sg28
g43
sg30
S'W31-3'
p475
sg32
S'--'
p476
sg34
S'--'
p477
sg36
S'@KC'
p478
sg38
S'--'
p479
sg40
S'12'
p480
sg42
g174
ssg235
(dp481
g5
S'--'
p482
sg7
S'--'
p483
sg9
g10
sg11
S'--'
p484
sg13
g10
sg15
S'--'
p485
sg17
S'2011'
p486
sg19
g235
sg21
S'--'
p487
sg23
S'10/30'
p488
sg25
S'--'
p489
sg26
S'Daniel Thomas'
p490
sg28
S'--'
p491
sg30
S'L17-20'
p492
sg32
S'--'
p493
sg34
S'--'
p494
sg36
S'@NYG'
p495
sg38
S'--'
p496
sg40
S'--'
p497
sg42
S'--'
p498
sssS'2013'
p499
(dp500
g3
(dp501
g5
S'2.0'
p502
sg7
S'--'
p503
sg9
g10
sg11
S'--'
p504
sg13
g14
sg15
g10
sg17
S'2013'
p505
sg19
S'11'
p506
sg21
S'5.7'
p507
sg23
S'11/17'
p508
sg25
g14
sg26
S'Daniel Thomas'
p509
sg28
S'10'
p510
sg30
S'W20-16'
p511
sg32
g100
sg34
g14
sg36
S'SD'
p512
sg38
g100
sg40
S'57'
p513
sg42
S'11'
p514
ssg44
(dp515
g5
S'--'
p516
sg7
S'--'
p517
sg9
g10
sg11
S'--'
p518
sg13
g14
sg15
S'--'
p519
sg17
S'2013'
p520
sg19
S'10'
p521
sg21
S'-0.5'
p522
sg23
S'11/11'
p523
sg25
g10
sg26
S'Daniel Thomas'
p524
sg28
g174
sg30
S'L19-22'
p525
sg32
S'--'
p526
sg34
S'--'
p527
sg36
S'@TB'
p528
sg38
S'--'
p529
sg40
S'-2'
p530
sg42
g14
ssg59
(dp531
g5
S'--'
p532
sg7
S'--'
p533
sg9
g10
sg11
S'--'
p534
sg13
g10
sg15
S'--'
p535
sg17
S'2013'
p536
sg19
S'13'
p537
sg21
S'--'
p538
sg23
S'12/01'
p539
sg25
S'--'
p540
sg26
S'Daniel Thomas'
p541
sg28
S'--'
p542
sg30
S'W23-3'
p543
sg32
S'--'
p544
sg34
S'--'
p545
sg36
S'@NYJ'
p546
sg38
S'--'
p547
sg40
S'--'
p548
sg42
S'--'
p549
ssg72
(dp550
g5
S'1.0'
p551
sg7
S'--'
p552
sg9
g10
sg11
S'--'
p553
sg13
g14
sg15
g10
sg17
S'2013'
p554
sg19
S'12'
p555
sg21
S'2.7'
p556
sg23
S'11/24'
p557
sg25
g10
sg26
S'Daniel Thomas'
p558
sg28
g70
sg30
S'L16-20'
p559
sg32
g100
sg34
g100
sg36
S'CAR'
p560
sg38
g100
sg40
g235
sg42
g174
ssg90
(dp561
g5
S'2.0'
p562
sg7
S'--'
p563
sg9
g10
sg11
S'--'
p564
sg13
g14
sg15
g14
sg17
S'2013'
p565
sg19
S'15'
p566
sg21
S'3.2'
p567
sg23
S'12/15'
p568
sg25
g10
sg26
S'Daniel Thomas'
p569
sg28
g29
sg30
S'W24-20'
p570
sg32
g100
sg34
g14
sg36
S'NE'
p571
sg38
S'2T'
p572
sg40
S'16'
p573
sg42
g174
ssg105
(dp574
g5
S'4.0'
p575
sg7
S'--'
p576
sg9
g10
sg11
S'--'
p577
sg13
g14
sg15
g10
sg17
S'2013'
p578
sg19
S'14'
p579
sg21
S'6.6'
p580
sg23
S'12/08'
p581
sg25
g14
sg26
S'Daniel Thomas'
p582
sg28
S'16'
p583
sg30
S'W34-28'
p584
sg32
g174
sg34
g14
sg36
S'@PIT'
p585
sg38
g174
sg40
S'105'
p586
sg42
S'55'
p587
ssg122
(dp588
g5
S'--'
p589
sg7
S'--'
p590
sg9
g10
sg11
S'--'
p591
sg13
g14
sg15
S'--'
p592
sg17
S'2013'
p593
sg19
S'17'
p594
sg21
S'0.0'
p595
sg23
S'12/29'
p596
sg25
g10
sg26
S'Daniel Thomas'
p597
sg28
g100
sg30
S'L7-20'
p598
sg32
S'--'
p599
sg34
S'--'
p600
sg36
S'NYJ'
p601
sg38
S'--'
p602
sg40
g10
sg42
g14
ssg135
(dp603
g5
S'3.0'
p604
sg7
S'--'
p605
sg9
g10
sg11
S'--'
p606
sg13
g14
sg15
g10
sg17
S'2013'
p607
sg19
S'16'
p608
sg21
S'0.7'
p609
sg23
S'12/22'
p610
sg25
g10
sg26
S'Daniel Thomas'
p611
sg28
g222
sg30
S'L0-19'
p612
sg32
g70
sg34
g14
sg36
S'@BUF'
p613
sg38
g70
sg40
g203
sg42
g100
ssg14
(dp614
g5
S'5.0'
p615
sg7
S'--'
p616
sg9
g10
sg11
S'--'
p617
sg13
g14
sg15
g10
sg17
S'2013'
p618
sg19
g14
sg21
S'1.8'
p619
sg23
S'09/08'
p620
sg25
g14
sg26
S'Daniel Thomas'
p621
sg28
g235
sg30
S'W23-10'
p622
sg32
g29
sg34
g14
sg36
S'@CLE'
p623
sg38
g29
sg40
S'14'
p624
sg42
g174
ssg70
(dp625
g5
S'16.0'
p626
sg7
S'--'
p627
sg9
g10
sg11
S'--'
p628
sg13
g14
sg15
g10
sg17
S'2013'
p629
sg19
g70
sg21
S'4.2'
p630
sg23
S'09/22'
p631
sg25
g14
sg26
S'Daniel Thomas'
p632
sg28
g29
sg30
S'W27-23'
p633
sg32
S'16'
p634
sg34
g14
sg36
S'ATL'
p635
sg38
S'16'
p636
sg40
S'21'
p637
sg42
g203
ssg100
(dp638
g5
S'10.0'
p639
sg7
S'--'
p640
sg9
g10
sg11
S'--'
p641
sg13
g14
sg15
g10
sg17
S'2013'
p642
sg19
g100
sg21
S'3.8'
p643
sg23
S'09/15'
p644
sg25
g10
sg26
S'Daniel Thomas'
p645
sg28
g235
sg30
S'W24-20'
p646
sg32
S'10'
p647
sg34
g14
sg36
S'@IND'
p648
sg38
S'10'
p649
sg40
S'30'
p650
sg42
S'12'
p651
ssg29
(dp652
g5
S'5.5'
p653
sg7
S'--'
p654
sg9
g10
sg11
S'--'
p655
sg13
g14
sg15
g10
sg17
S'2013'
p656
sg19
g29
sg21
S'0.5'
p657
sg23
S'10/06'
p658
sg25
g10
sg26
S'Daniel Thomas'
p659
sg28
g100
sg30
S'L23-26'
p660
sg32
S'11'
p661
sg34
g100
sg36
S'BAL'
p662
sg38
g235
sg40
g14
sg42
g14
ssg174
(dp663
g5
S'1.0'
p664
sg7
S'--'
p665
sg9
g10
sg11
S'--'
p666
sg13
g14
sg15
g10
sg17
S'2013'
p667
sg19
g174
sg21
S'1.3'
p668
sg23
S'09/30'
p669
sg25
g10
sg26
S'Daniel Thomas'
p670
sg28
g174
sg30
S'L17-38'
p671
sg32
g14
sg34
g14
sg36
S'@NO'
p672
sg38
g14
sg40
g29
sg42
g174
ssg43
(dp673
g5
S'-2.0'
p674
sg7
S'--'
p675
sg9
g14
sg11
S'--'
p676
sg13
g14
sg15
g10
sg17
S'2013'
p677
sg19
g43
sg21
S'5.0'
p678
sg23
S'10/20'
p679
sg25
g10
sg26
S'Daniel Thomas'
p680
sg28
S'12'
p681
sg30
S'L21-23'
p682
sg32
S'-2'
p683
sg34
g14
sg36
S'BUF'
p684
sg38
S'-2'
p685
sg40
S'60'
p686
sg42
S'16'
p687
ssg203
(dp688
g5
g170
sg7
g170
sg9
g170
sg11
g170
sg13
g170
sg15
g170
sg17
S'2013'
p689
sg19
g203
sg21
g170
sg23
S'Bye'
p690
sg25
g170
sg26
S'Daniel Thomas'
p691
sg28
g170
sg30
g170
sg32
g170
sg34
g170
sg36
g170
sg38
g170
sg40
g170
sg42
g170
ssg222
(dp692
g5
S'4.0'
p693
sg7
S'--'
p694
sg9
g10
sg11
S'--'
p695
sg13
g14
sg15
g10
sg17
S'2013'
p696
sg19
g222
sg21
S'3.2'
p697
sg23
S'10/31'
p698
sg25
g10
sg26
S'Daniel Thomas'
p699
sg28
S'12'
p700
sg30
S'W22-20'
p701
sg32
g174
sg34
g14
sg36
S'CIN'
p702
sg38
g174
sg40
S'38'
p703
sg42
g222
ssg235
(dp704
g5
S'5.0'
p705
sg7
S'--'
p706
sg9
g10
sg11
S'--'
p707
sg13
g14
sg15
g14
sg17
S'2013'
p708
sg19
g235
sg21
S'5.2'
p709
sg23
S'10/27'
p710
sg25
g10
sg26
S'Daniel Thomas'
p711
sg28
g222
sg30
S'L17-27'
p712
sg32
g29
sg34
g14
sg36
S'@NE'
p713
sg38
S'5T'
p714
sg40
S'47'
p715
sg42
S'15'
p716
sssS'2012'
p717
(dp718
g3
(dp719
g5
S'--'
p720
sg7
S'--'
p721
sg9
g10
sg11
S'--'
p722
sg13
g14
sg15
S'--'
p723
sg17
S'2012'
p724
sg19
S'11'
p725
sg21
S'2.8'
p726
sg23
S'11/15'
p727
sg25
g10
sg26
S'Daniel Thomas'
p728
sg28
S'12'
p729
sg30
S'L14-19'
p730
sg32
S'--'
p731
sg34
S'--'
p732
sg36
S'@BUF'
p733
sg38
S'--'
p734
sg40
S'33'
p735
sg42
g235
ssg44
(dp736
g5
S'6.8'
p737
sg7
S'--'
p738
sg9
g10
sg11
S'--'
p739
sg13
g14
sg15
g10
sg17
S'2012'
p740
sg19
S'10'
p741
sg21
S'4.2'
p742
sg23
S'11/11'
p743
sg25
g10
sg26
S'Daniel Thomas'
p744
sg28
g29
sg30
S'L3-37'
p745
sg32
S'34'
p746
sg34
g29
sg36
S'TEN'
p747
sg38
S'11'
p748
sg40
S'21'
p749
sg42
g235
ssg59
(dp750
g5
S'9.5'
p751
sg7
g14
sg9
g10
sg11
g10
sg13
g14
sg15
g10
sg17
S'2012'
p752
sg19
S'13'
p753
sg21
S'2.0'
p754
sg23
S'12/02'
p755
sg25
g10
sg26
S'Daniel Thomas'
p756
sg28
g29
sg30
S'L16-23'
p757
sg32
S'19'
p758
sg34
g100
sg36
S'NE'
p759
sg38
S'12'
p760
sg40
S'10'
p761
sg42
g222
ssg72
(dp762
g5
S'18.0'
p763
sg7
S'--'
p764
sg9
g10
sg11
S'--'
p765
sg13
g14
sg15
g10
sg17
S'2012'
p766
sg19
S'12'
p767
sg21
S'6.7'
p768
sg23
S'11/25'
p769
sg25
g14
sg26
S'Daniel Thomas'
p770
sg28
g222
sg30
S'W24-21'
p771
sg32
S'18'
p772
sg34
g14
sg36
S'SEA'
p773
sg38
S'18'
p774
sg40
S'60'
p775
sg42
S'20'
p776
ssg90
(dp777
g5
S'--'
p778
sg7
S'--'
p779
sg9
g10
sg11
S'--'
p780
sg13
g14
sg15
S'--'
p781
sg17
S'2012'
p782
sg19
S'15'
p783
sg21
S'6.0'
p784
sg23
S'12/16'
p785
sg25
g10
sg26
S'Daniel Thomas'
p786
sg28
g14
sg30
S'W24-3'
p787
sg32
S'--'
p788
sg34
S'--'
p789
sg36
S'JAC'
p790
sg38
S'--'
p791
sg40
g203
sg42
g203
ssg105
(dp792
g5
S'--'
p793
sg7
S'--'
p794
sg9
g10
sg11
S'--'
p795
sg13
g14
sg15
S'--'
p796
sg17
S'2012'
p797
sg19
S'14'
p798
sg21
S'1.5'
p799
sg23
S'12/09'
p800
sg25
g10
sg26
S'Daniel Thomas'
p801
sg28
g100
sg30
S'L13-27'
p802
sg32
S'--'
p803
sg34
S'--'
p804
sg36
S'@SF'
p805
sg38
S'--'
p806
sg40
g70
sg42
g100
ssg14
(dp807
g5
S'32.0'
p808
sg7
g14
sg9
g10
sg11
g14
sg13
g14
sg15
g10
sg17
S'2012'
p809
sg19
g14
sg21
S'3.7'
p810
sg23
S'09/09'
p811
sg25
g10
sg26
S'Daniel Thomas'
p812
sg28
g70
sg30
S'L10-30'
p813
sg32
S'32'
p814
sg34
g14
sg36
S'@HOU'
p815
sg38
S'32'
p816
sg40
S'11'
p817
sg42
g235
ssg70
(dp818
g5
S'11.0'
p819
sg7
g14
sg9
g10
sg11
g14
sg13
g14
sg15
g10
sg17
S'2012'
p820
sg19
g70
sg21
S'3.6'
p821
sg23
S'09/23'
p822
sg25
g14
sg26
S'Daniel Thomas'
p823
sg28
S'19'
p824
sg30
S'L20-23'
p825
sg32
S'11'
p826
sg34
g14
sg36
S'NYJ'
p827
sg38
S'11'
p828
sg40
S'69'
p829
sg42
g222
ssg100
(dp830
g5
S'--'
p831
sg7
S'--'
p832
sg9
g10
sg11
S'--'
p833
sg13
g10
sg15
S'--'
p834
sg17
S'2012'
p835
sg19
g100
sg21
S'--'
p836
sg23
S'09/16'
p837
sg25
S'--'
p838
sg26
S'Daniel Thomas'
p839
sg28
S'--'
p840
sg30
S'W35-13'
p841
sg32
S'--'
p842
sg34
S'--'
p843
sg36
S'OAK'
p844
sg38
S'--'
p845
sg40
S'--'
p846
sg42
S'--'
p847
ssg29
(dp848
g5
S'8.0'
p849
sg7
S'--'
p850
sg9
g10
sg11
S'--'
p851
sg13
g14
sg15
g10
sg17
S'2012'
p852
sg19
g29
sg21
S'2.9'
p853
sg23
S'10/07'
p854
sg25
g14
sg26
S'Daniel Thomas'
p855
sg28
S'10'
p856
sg30
S'W17-13'
p857
sg32
g235
sg34
g14
sg36
S'@CIN'
p858
sg38
g235
sg40
S'29'
p859
sg42
g29
ssg174
(dp860
g5
S'6.0'
p861
sg7
S'--'
p862
sg9
g10
sg11
S'--'
p863
sg13
g14
sg15
g10
sg17
S'2012'
p864
sg19
g174
sg21
S'1.0'
p865
sg23
S'09/30'
p866
sg25
g10
sg26
S'Daniel Thomas'
p867
sg28
g174
sg30
S'L21-24'
p868
sg32
g203
sg34
g14
sg36
S'@ARI'
p869
sg38
g203
sg40
g174
sg42
g70
ssg43
(dp870
g5
g170
sg7
g170
sg9
g170
sg11
g170
sg13
g170
sg15
g170
sg17
S'2012'
p871
sg19
g43
sg21
g170
sg23
S'Bye'
p872
sg25
g170
sg26
S'Daniel Thomas'
p873
sg28
g170
sg30
g170
sg32
g170
sg34
g170
sg36
g170
sg38
g170
sg40
g170
sg42
g170
ssg203
(dp874
g5
S'--'
p875
sg7
S'--'
p876
sg9
g10
sg11
S'--'
p877
sg13
g10
sg15
S'--'
p878
sg17
S'2012'
p879
sg19
g203
sg21
S'--'
p880
sg23
S'10/14'
p881
sg25
S'--'
p882
sg26
S'Daniel Thomas'
p883
sg28
S'--'
p884
sg30
S'W17-14'
p885
sg32
S'--'
p886
sg34
S'--'
p887
sg36
S'STL'
p888
sg38
S'--'
p889
sg40
S'--'
p890
sg42
S'--'
p891
ssg222
(dp892
g5
S'12.5'
p893
sg7
S'--'
p894
sg9
g10
sg11
S'--'
p895
sg13
g14
sg15
g10
sg17
S'2012'
p896
sg19
g222
sg21
S'6.2'
p897
sg23
S'11/04'
p898
sg25
g10
sg26
S'Daniel Thomas'
p899
sg28
g203
sg30
S'L20-23'
p900
sg32
S'25'
p901
sg34
g100
sg36
S'@IND'
p902
sg38
S'14'
p903
sg40
S'37'
p904
sg42
S'20'
p905
ssg235
(dp906
g5
S'3.0'
p907
sg7
S'--'
p908
sg9
g10
sg11
S'--'
p909
sg13
g14
sg15
g10
sg17
S'2012'
p910
sg19
g235
sg21
S'2.8'
p911
sg23
S'10/28'
p912
sg25
g14
sg26
S'Daniel Thomas'
p913
sg28
S'15'
p914
sg30
S'W30-9'
p915
sg32
g70
sg34
g14
sg36
S'@NYJ'
p916
sg38
g70
sg40
S'42'
p917
sg42
g235
sss.