(dp0
S'2015'
p1
(dp2
S'11'
p3
(dp4
S'RecAvg'
p5
S'9.0'
p6
sS'FUM'
p7
S'--'
p8
sS'GS'
p9
S'0'
p10
sS'Lost'
p11
S'--'
p12
sS'G'
p13
S'1'
p14
sS'RecTD'
p15
g10
sS'Year'
p16
S'2015'
p17
sS'WK'
p18
S'11'
p19
sS'RushAvg'
p20
S'1.2'
p21
sS'Game Date'
p22
S'11/22'
p23
sS'RushTD'
p24
g10
sS'Player'
p25
S'Danny Woodhead'
p26
sS'RushAtt'
p27
S'6'
p28
sS'Result'
p29
S'L3-33'
p30
sS'RecYds'
p31
S'9'
p32
sS'Rec'
p33
g14
sS'Opp'
p34
S'KC'
p35
sS'RecLng'
p36
g32
sS'RushYds'
p37
S'7'
p38
sS'RushLng'
p39
S'5'
p40
ssS'10'
p41
(dp42
g5
S''
p43
sg7
g43
sg9
g43
sg11
g43
sg13
g43
sg15
g43
sg16
S'2015'
p44
sg18
S'10'
p45
sg20
g43
sg22
S'Bye'
p46
sg24
g43
sg25
S'Danny Woodhead'
p47
sg27
g43
sg29
g43
sg31
g43
sg33
g43
sg34
g43
sg36
g43
sg37
g43
sg39
g43
ssS'13'
p48
(dp49
g5
S'8.0'
p50
sg7
S'--'
p51
sg9
g14
sg11
S'--'
p52
sg13
g14
sg15
g10
sg16
S'2015'
p53
sg18
S'13'
p54
sg20
S'3.3'
p55
sg22
S'12/06'
p56
sg24
g10
sg25
S'Danny Woodhead'
p57
sg27
S'3'
p58
sg29
S'L3-17'
p59
sg31
S'24'
p60
sg33
g58
sg34
S'DEN'
p61
sg36
S'10'
p62
sg37
S'10'
p63
sg39
g38
ssS'12'
p64
(dp65
g5
S'6.5'
p66
sg7
S'--'
p67
sg9
g14
sg11
S'--'
p68
sg13
g14
sg15
g10
sg16
S'2015'
p69
sg18
S'12'
p70
sg20
S'2.0'
p71
sg22
S'11/29'
p72
sg24
g10
sg25
S'Danny Woodhead'
p73
sg27
S'4'
p74
sg29
S'W31-25'
p75
sg31
S'39'
p76
sg33
g28
sg34
S'@JAC'
p77
sg36
S'11'
p78
sg37
S'8'
p79
sg39
g28
ssS'15'
p80
(dp81
g5
S'8.3'
p82
sg7
S'--'
p83
sg9
g10
sg11
S'--'
p84
sg13
g14
sg15
g58
sg16
S'2015'
p85
sg18
S'15'
p86
sg20
S'1.3'
p87
sg22
S'12/20'
p88
sg24
g14
sg25
S'Danny Woodhead'
p89
sg27
g79
sg29
S'W30-14'
p90
sg31
S'50'
p91
sg33
g28
sg34
S'MIA'
p92
sg36
S'20T'
p93
sg37
S'10'
p94
sg39
g79
ssS'14'
p95
(dp96
g5
S'2.7'
p97
sg7
S'--'
p98
sg9
g10
sg11
S'--'
p99
sg13
g14
sg15
g10
sg16
S'2015'
p100
sg18
S'14'
p101
sg20
S'1.7'
p102
sg22
S'12/13'
p103
sg24
g10
sg25
S'Danny Woodhead'
p104
sg27
g58
sg29
S'L3-10'
p105
sg31
g79
sg33
g58
sg34
S'@KC'
p106
sg36
g40
sg37
g40
sg39
g58
ssS'17'
p107
(dp108
g5
S'6.4'
p109
sg7
S'--'
p110
sg9
g10
sg11
S'--'
p111
sg13
g14
sg15
g10
sg16
S'2015'
p112
sg18
S'17'
p113
sg20
S'2.2'
p114
sg22
S'01/03'
p115
sg24
g10
sg25
S'Danny Woodhead'
p116
sg27
g40
sg29
S'L20-27'
p117
sg31
S'51'
p118
sg33
g79
sg34
S'@DEN'
p119
sg36
S'16'
p120
sg37
S'11'
p121
sg39
g74
ssS'16'
p122
(dp123
g5
S'6.6'
p124
sg7
S'--'
p125
sg9
g10
sg11
S'--'
p126
sg13
g14
sg15
g10
sg16
S'2015'
p127
sg18
S'16'
p128
sg20
S'5.0'
p129
sg22
S'12/24'
p130
sg24
g10
sg25
S'Danny Woodhead'
p131
sg27
S'11'
p132
sg29
S'L20-23'
p133
sg31
S'53'
p134
sg33
g79
sg34
S'@OAK'
p135
sg36
S'21'
p136
sg37
S'55'
p137
sg39
S'27'
p138
ssg14
(dp139
g5
S'6.3'
p140
sg7
S'--'
p141
sg9
g10
sg11
S'--'
p142
sg13
g14
sg15
g10
sg16
S'2015'
p143
sg18
g14
sg20
S'3.3'
p144
sg22
S'09/13'
p145
sg24
S'2'
p146
sg25
S'Danny Woodhead'
p147
sg27
S'13'
p148
sg29
S'W33-28'
p149
sg31
S'19'
p150
sg33
g58
sg34
S'DET'
p151
sg36
S'15'
p152
sg37
S'43'
p153
sg39
S'10'
p154
ssg58
(dp155
g5
S'10.7'
p156
sg7
S'--'
p157
sg9
g10
sg11
S'--'
p158
sg13
g14
sg15
g10
sg16
S'2015'
p159
sg18
g58
sg20
S'2.2'
p160
sg22
S'09/27'
p161
sg24
g10
sg25
S'Danny Woodhead'
p162
sg27
g40
sg29
S'L14-31'
p163
sg31
S'32'
p164
sg33
g58
sg34
S'@MIN'
p165
sg36
S'22'
p166
sg37
S'11'
p167
sg39
g38
ssg146
(dp168
g5
S'11.3'
p169
sg7
S'--'
p170
sg9
g10
sg11
S'--'
p171
sg13
g14
sg15
g10
sg16
S'2015'
p172
sg18
g146
sg20
S'5.1'
p173
sg22
S'09/20'
p174
sg24
g10
sg25
S'Danny Woodhead'
p175
sg27
g38
sg29
S'L19-24'
p176
sg31
S'68'
p177
sg33
g28
sg34
S'@CIN'
p178
sg36
S'19'
p179
sg37
S'36'
p180
sg39
g32
ssg40
(dp181
g5
S'13.2'
p182
sg7
S'--'
p183
sg9
g10
sg11
S'--'
p184
sg13
g14
sg15
g10
sg16
S'2015'
p185
sg18
g40
sg20
S'2.5'
p186
sg22
S'10/12'
p187
sg24
g10
sg25
S'Danny Woodhead'
p188
sg27
g74
sg29
S'L20-24'
p189
sg31
S'66'
p190
sg33
g40
sg34
S'PIT'
p191
sg36
S'31'
p192
sg37
S'10'
p193
sg39
g32
ssg74
(dp194
g5
S'21.0'
p195
sg7
S'--'
p196
sg9
g10
sg11
S'--'
p197
sg13
g14
sg15
g10
sg16
S'2015'
p198
sg18
g74
sg20
S'6.8'
p199
sg22
S'10/04'
p200
sg24
g10
sg25
S'Danny Woodhead'
p201
sg27
g79
sg29
S'W30-27'
p202
sg31
S'84'
p203
sg33
g74
sg34
S'CLE'
p204
sg36
S'61'
p205
sg37
S'54'
p206
sg39
S'19'
p207
ssg38
(dp208
g5
S'6.8'
p209
sg7
S'--'
p210
sg9
g10
sg11
S'--'
p211
sg13
g14
sg15
g146
sg16
S'2015'
p212
sg18
g38
sg20
S'5.2'
p213
sg22
S'10/25'
p214
sg24
g10
sg25
S'Danny Woodhead'
p215
sg27
g40
sg29
S'L29-37'
p216
sg31
S'75'
p217
sg33
S'11'
p218
sg34
S'OAK'
p219
sg36
S'11'
p220
sg37
S'26'
p221
sg39
g28
ssg28
(dp222
g5
S'12.6'
p223
sg7
S'--'
p224
sg9
g10
sg11
S'--'
p225
sg13
g14
sg15
g10
sg16
S'2015'
p226
sg18
g28
sg20
S'1.1'
p227
sg22
S'10/18'
p228
sg24
g10
sg25
S'Danny Woodhead'
p229
sg27
g38
sg29
S'L20-27'
p230
sg31
S'63'
p231
sg33
g40
sg34
S'@GB'
p232
sg36
S'25'
p233
sg37
g79
sg39
g74
ssg32
(dp234
g5
S'13.0'
p235
sg7
S'--'
p236
sg9
g10
sg11
S'--'
p237
sg13
g14
sg15
g14
sg16
S'2015'
p238
sg18
g32
sg20
S'5.5'
p239
sg22
S'11/09'
p240
sg24
g10
sg25
S'Danny Woodhead'
p241
sg27
g28
sg29
S'L19-22'
p242
sg31
S'78'
p243
sg33
g28
sg34
S'CHI'
p244
sg36
S'16'
p245
sg37
S'33'
p246
sg39
S'15'
p247
ssg79
(dp248
g5
S'18.0'
p249
sg7
S'--'
p250
sg9
g10
sg11
S'--'
p251
sg13
g14
sg15
g10
sg16
S'2015'
p252
sg18
g79
sg20
S'3.0'
p253
sg22
S'11/01'
p254
sg24
g10
sg25
S'Danny Woodhead'
p255
sg27
g58
sg29
S'L26-29'
p256
sg31
S'36'
p257
sg33
g146
sg34
S'@BAL'
p258
sg36
S'26'
p259
sg37
g32
sg39
g40
sssS'2014'
p260
(dp261
g14
(dp262
g5
S'6.0'
p263
sg7
S'--'
p264
sg9
g10
sg11
S'--'
p265
sg13
g14
sg15
g10
sg16
S'2014'
p266
sg18
g14
sg20
S'0.8'
p267
sg22
S'09/08'
p268
sg24
g10
sg25
S'Danny Woodhead'
p269
sg27
g28
sg29
S'L17-18'
p270
sg31
g28
sg33
g14
sg34
S'@ARI'
p271
sg36
g28
sg37
g40
sg39
g40
ssg58
(dp272
g5
S'--'
p273
sg7
S'--'
p274
sg9
g10
sg11
S'--'
p275
sg13
g14
sg15
S'--'
p276
sg16
S'2014'
p277
sg18
g58
sg20
S'1.0'
p278
sg22
S'09/21'
p279
sg24
g10
sg25
S'Danny Woodhead'
p280
sg27
g14
sg29
S'W22-10'
p281
sg31
S'--'
p282
sg33
S'--'
p283
sg34
S'@BUF'
p284
sg36
S'--'
p285
sg37
g14
sg39
g14
ssg146
(dp286
g5
S'7.0'
p287
sg7
S'--'
p288
sg9
g10
sg11
S'--'
p289
sg13
g14
sg15
g10
sg16
S'2014'
p290
sg18
g146
sg20
S'4.0'
p291
sg22
S'09/14'
p292
sg24
g10
sg25
S'Danny Woodhead'
p293
sg27
g79
sg29
S'W30-21'
p294
sg31
S'28'
p295
sg33
g74
sg34
S'SEA'
p296
sg36
S'14'
p297
sg37
S'32'
p298
sg39
S'13'
p299
sssS'2011'
p300
(dp301
g3
(dp302
g5
S'14.0'
p303
sg7
S'--'
p304
sg9
g10
sg11
S'--'
p305
sg13
g14
sg15
g10
sg16
S'2011'
p306
sg18
S'11'
p307
sg20
S'5.4'
p308
sg22
S'11/21'
p309
sg24
g10
sg25
S'Danny Woodhead'
p310
sg27
g40
sg29
S'W34-3'
p311
sg31
S'28'
p312
sg33
g146
sg34
S'KC'
p313
sg36
S'16'
p314
sg37
S'27'
p315
sg39
S'12'
p316
ssg41
(dp317
g5
S'6.0'
p318
sg7
S'--'
p319
sg9
g10
sg11
S'--'
p320
sg13
g14
sg15
g10
sg16
S'2011'
p321
sg18
S'10'
p322
sg20
S'5.4'
p323
sg22
S'11/13'
p324
sg24
g10
sg25
S'Danny Woodhead'
p325
sg27
g38
sg29
S'W37-16'
p326
sg31
g28
sg33
g14
sg34
S'@NYJ'
p327
sg36
g28
sg37
S'38'
p328
sg39
g32
ssg48
(dp329
g5
S'--'
p330
sg7
S'--'
p331
sg9
g10
sg11
S'--'
p332
sg13
g14
sg15
g10
sg16
S'2011'
p333
sg18
S'13'
p334
sg20
S'3.0'
p335
sg22
S'12/04'
p336
sg24
g10
sg25
S'Danny Woodhead'
p337
sg27
g74
sg29
S'W31-24'
p338
sg31
g10
sg33
g10
sg34
S'IND'
p339
sg36
S'--'
p340
sg37
S'12'
p341
sg39
g40
ssg64
(dp342
g5
S'--'
p343
sg7
S'--'
p344
sg9
g10
sg11
S'--'
p345
sg13
g14
sg15
S'--'
p346
sg16
S'2011'
p347
sg18
S'12'
p348
sg20
S'5.0'
p349
sg22
S'11/27'
p350
sg24
g10
sg25
S'Danny Woodhead'
p351
sg27
g74
sg29
S'W38-20'
p352
sg31
S'--'
p353
sg33
S'--'
p354
sg34
S'@PHI'
p355
sg36
S'--'
p356
sg37
S'20'
p357
sg39
S'10'
p358
ssg80
(dp359
g5
S'12.0'
p360
sg7
S'--'
p361
sg9
g10
sg11
S'--'
p362
sg13
g14
sg15
g10
sg16
S'2011'
p363
sg18
S'15'
p364
sg20
S'5.7'
p365
sg22
S'12/18'
p366
sg24
g14
sg25
S'Danny Woodhead'
p367
sg27
g38
sg29
S'W41-23'
p368
sg31
S'12'
p369
sg33
g14
sg34
S'@DEN'
p370
sg36
S'12'
p371
sg37
S'40'
p372
sg39
S'10T'
p373
ssg95
(dp374
g5
S'4.0'
p375
sg7
S'--'
p376
sg9
g14
sg11
S'--'
p377
sg13
g14
sg15
g10
sg16
S'2011'
p378
sg18
S'14'
p379
sg20
S'5.1'
p380
sg22
S'12/11'
p381
sg24
g10
sg25
S'Danny Woodhead'
p382
sg27
g79
sg29
S'W34-27'
p383
sg31
g74
sg33
g14
sg34
S'@WAS'
p384
sg36
g74
sg37
S'41'
p385
sg39
S'12'
p386
ssg107
(dp387
g5
S'5.0'
p388
sg7
S'--'
p389
sg9
g10
sg11
S'--'
p390
sg13
g14
sg15
g10
sg16
S'2011'
p391
sg18
S'17'
p392
sg20
S'5.0'
p393
sg22
S'01/01'
p394
sg24
g10
sg25
S'Danny Woodhead'
p395
sg27
g14
sg29
S'W49-21'
p396
sg31
S'10'
p397
sg33
g146
sg34
S'BUF'
p398
sg36
g28
sg37
g40
sg39
g40
ssg122
(dp399
g5
S'--'
p400
sg7
S'--'
p401
sg9
g14
sg11
S'--'
p402
sg13
g14
sg15
S'--'
p403
sg16
S'2011'
p404
sg18
S'16'
p405
sg20
S'5.0'
p406
sg22
S'12/24'
p407
sg24
g10
sg25
S'Danny Woodhead'
p408
sg27
g74
sg29
S'W27-24'
p409
sg31
S'--'
p410
sg33
S'--'
p411
sg34
S'MIA'
p412
sg36
S'--'
p413
sg37
S'20'
p414
sg39
g79
ssg14
(dp415
g5
S'6.0'
p416
sg7
S'--'
p417
sg9
g14
sg11
S'--'
p418
sg13
g14
sg15
g10
sg16
S'2011'
p419
sg18
g14
sg20
S'4.9'
p420
sg22
S'09/12'
p421
sg24
g10
sg25
S'Danny Woodhead'
p422
sg27
S'14'
p423
sg29
S'W38-24'
p424
sg31
g28
sg33
g14
sg34
S'@MIA'
p425
sg36
g28
sg37
S'69'
p426
sg39
g32
ssg58
(dp427
g5
S'6.7'
p428
sg7
S'--'
p429
sg9
g10
sg11
S'--'
p430
sg13
g14
sg15
g10
sg16
S'2011'
p431
sg18
g58
sg20
S'3.5'
p432
sg22
S'09/25'
p433
sg24
g10
sg25
S'Danny Woodhead'
p434
sg27
g28
sg29
S'L31-34'
p435
sg31
S'20'
p436
sg33
g58
sg34
S'@BUF'
p437
sg36
S'13'
p438
sg37
S'21'
p439
sg39
S'10'
p440
ssg146
(dp441
g5
S'7.5'
p442
sg7
S'--'
p443
sg9
g14
sg11
S'--'
p444
sg13
g14
sg15
g10
sg16
S'2011'
p445
sg18
g146
sg20
S'3.0'
p446
sg22
S'09/18'
p447
sg24
g10
sg25
S'Danny Woodhead'
p448
sg27
g74
sg29
S'W35-21'
p449
sg31
S'15'
p450
sg33
g146
sg34
S'SD'
p451
sg36
g32
sg37
S'12'
p452
sg39
g40
ssg40
(dp453
g5
S'--'
p454
sg7
S'--'
p455
sg9
g10
sg11
S'--'
p456
sg13
g10
sg15
S'--'
p457
sg16
S'2011'
p458
sg18
g40
sg20
S'--'
p459
sg22
S'10/09'
p460
sg24
S'--'
p461
sg25
S'Danny Woodhead'
p462
sg27
S'--'
p463
sg29
S'W30-21'
p464
sg31
S'--'
p465
sg33
S'--'
p466
sg34
S'NYJ'
p467
sg36
S'--'
p468
sg37
S'--'
p469
sg39
S'--'
p470
ssg74
(dp471
g5
S'--'
p472
sg7
S'--'
p473
sg9
g10
sg11
S'--'
p474
sg13
g14
sg15
S'--'
p475
sg16
S'2011'
p476
sg18
g74
sg20
S'6.5'
p477
sg22
S'10/02'
p478
sg24
g10
sg25
S'Danny Woodhead'
p479
sg27
g146
sg29
S'W31-19'
p480
sg31
S'--'
p481
sg33
S'--'
p482
sg34
S'@OAK'
p483
sg36
S'--'
p484
sg37
S'13'
p485
sg39
S'12'
p486
ssg38
(dp487
g5
g43
sg7
g43
sg9
g43
sg11
g43
sg13
g43
sg15
g43
sg16
S'2011'
p488
sg18
g38
sg20
g43
sg22
S'Bye'
p489
sg24
g43
sg25
S'Danny Woodhead'
p490
sg27
g43
sg29
g43
sg31
g43
sg33
g43
sg34
g43
sg36
g43
sg37
g43
sg39
g43
ssg28
(dp491
g5
S'11.0'
p492
sg7
S'--'
p493
sg9
g10
sg11
S'--'
p494
sg13
g14
sg15
g10
sg16
S'2011'
p495
sg18
g28
sg20
S'1.8'
p496
sg22
S'10/16'
p497
sg24
g10
sg25
S'Danny Woodhead'
p498
sg27
g74
sg29
S'W20-16'
p499
sg31
S'22'
p500
sg33
g146
sg34
S'DAL'
p501
sg36
S'13'
p502
sg37
g38
sg39
g40
ssg32
(dp503
g5
S'11.3'
p504
sg7
S'--'
p505
sg9
g10
sg11
S'--'
p506
sg13
g14
sg15
g10
sg16
S'2011'
p507
sg18
g32
sg20
S'3.7'
p508
sg22
S'11/06'
p509
sg24
g10
sg25
S'Danny Woodhead'
p510
sg27
g38
sg29
S'L20-24'
p511
sg31
S'34'
p512
sg33
g58
sg34
S'NYG'
p513
sg36
S'14'
p514
sg37
S'26'
p515
sg39
g32
ssg79
(dp516
g5
S'--'
p517
sg7
S'--'
p518
sg9
g10
sg11
S'--'
p519
sg13
g14
sg15
S'--'
p520
sg16
S'2011'
p521
sg18
g79
sg20
S'--'
p522
sg22
S'10/30'
p523
sg24
S'--'
p524
sg25
S'Danny Woodhead'
p525
sg27
S'--'
p526
sg29
S'L17-25'
p527
sg31
S'--'
p528
sg33
S'--'
p529
sg34
S'@PIT'
p530
sg36
S'--'
p531
sg37
S'--'
p532
sg39
S'--'
p533
sssS'2010'
p534
(dp535
g3
(dp536
g5
S'5.3'
p537
sg7
S'--'
p538
sg9
g10
sg11
S'--'
p539
sg13
g14
sg15
g10
sg16
S'2010'
p540
sg18
S'11'
p541
sg20
S'9.9'
p542
sg22
S'11/21'
p543
sg24
g14
sg25
S'Danny Woodhead'
p544
sg27
g38
sg29
S'W31-28'
p545
sg31
S'21'
p546
sg33
g74
sg34
S'IND'
p547
sg36
g32
sg37
S'69'
p548
sg39
S'36T'
p549
ssg41
(dp550
g5
S'11.0'
p551
sg7
S'--'
p552
sg9
g10
sg11
S'--'
p553
sg13
g14
sg15
g10
sg16
S'2010'
p554
sg18
S'10'
p555
sg20
S'2.8'
p556
sg22
S'11/14'
p557
sg24
g10
sg25
S'Danny Woodhead'
p558
sg27
g74
sg29
S'W39-26'
p559
sg31
S'22'
p560
sg33
g146
sg34
S'@PIT'
p561
sg36
S'12'
p562
sg37
S'11'
p563
sg39
g40
ssg48
(dp564
g5
S'26.0'
p565
sg7
S'--'
p566
sg9
g14
sg11
S'--'
p567
sg13
g14
sg15
g10
sg16
S'2010'
p568
sg18
S'13'
p569
sg20
S'5.5'
p570
sg22
S'12/06'
p571
sg24
g10
sg25
S'Danny Woodhead'
p572
sg27
g146
sg29
S'W45-3'
p573
sg31
S'104'
p574
sg33
g74
sg34
S'NYJ'
p575
sg36
S'50'
p576
sg37
S'11'
p577
sg39
g38
ssg64
(dp578
g5
S'6.5'
p579
sg7
S'--'
p580
sg9
g10
sg11
S'--'
p581
sg13
g14
sg15
g10
sg16
S'2010'
p582
sg18
S'12'
p583
sg20
S'4.0'
p584
sg22
S'11/25'
p585
sg24
g10
sg25
S'Danny Woodhead'
p586
sg27
g79
sg29
S'W45-24'
p587
sg31
S'13'
p588
sg33
g146
sg34
S'@DET'
p589
sg36
g79
sg37
S'32'
p590
sg39
g32
ssg80
(dp591
g5
S'12.0'
p592
sg7
S'--'
p593
sg9
g10
sg11
S'--'
p594
sg13
g14
sg15
g10
sg16
S'2010'
p595
sg18
S'15'
p596
sg20
S'6.6'
p597
sg22
S'12/19'
p598
sg24
g10
sg25
S'Danny Woodhead'
p599
sg27
g32
sg29
S'W31-27'
p600
sg31
S'12'
p601
sg33
g14
sg34
S'GB'
p602
sg36
S'12'
p603
sg37
S'59'
p604
sg39
S'14'
p605
ssg95
(dp606
g5
S'0.5'
p607
sg7
S'--'
p608
sg9
g14
sg11
S'--'
p609
sg13
g14
sg15
g10
sg16
S'2010'
p610
sg18
S'14'
p611
sg20
S'3.0'
p612
sg22
S'12/12'
p613
sg24
g14
sg25
S'Danny Woodhead'
p614
sg27
g38
sg29
S'W36-7'
p615
sg31
g14
sg33
g146
sg34
S'@CHI'
p616
sg36
g40
sg37
S'21'
p617
sg39
g40
ssg107
(dp618
g5
S'--'
p619
sg7
g14
sg9
g10
sg11
g14
sg13
g14
sg15
S'--'
p620
sg16
S'2010'
p621
sg18
S'17'
p622
sg20
S'9.5'
p623
sg22
S'01/02'
p624
sg24
g10
sg25
S'Danny Woodhead'
p625
sg27
g146
sg29
S'W38-7'
p626
sg31
S'--'
p627
sg33
S'--'
p628
sg34
S'MIA'
p629
sg36
S'--'
p630
sg37
S'19'
p631
sg39
S'19'
p632
ssg122
(dp633
g5
S'10.7'
p634
sg7
S'--'
p635
sg9
g10
sg11
S'--'
p636
sg13
g14
sg15
g10
sg16
S'2010'
p637
sg18
S'16'
p638
sg20
S'7.2'
p639
sg22
S'12/26'
p640
sg24
g14
sg25
S'Danny Woodhead'
p641
sg27
S'13'
p642
sg29
S'W34-3'
p643
sg31
S'32'
p644
sg33
g58
sg34
S'@BUF'
p645
sg36
S'15'
p646
sg37
S'93'
p647
sg39
S'29T'
p648
ssg14
(dp649
g5
S'--'
p650
sg7
S'--'
p651
sg9
g10
sg11
S'--'
p652
sg13
g14
sg15
S'--'
p653
sg16
S'2010'
p654
sg18
g14
sg20
S'--'
p655
sg22
S'09/13'
p656
sg24
S'--'
p657
sg25
S'Danny Woodhead'
p658
sg27
S'--'
p659
sg29
S'L9-10'
p660
sg31
S'--'
p661
sg33
S'--'
p662
sg34
S'BAL'
p663
sg36
S'--'
p664
sg37
S'--'
p665
sg39
S'--'
p666
ssg58
(dp667
g5
S'--'
p668
sg7
S'--'
p669
sg9
g14
sg11
S'--'
p670
sg13
g14
sg15
S'--'
p671
sg16
S'2010'
p672
sg18
g58
sg20
S'14.0'
p673
sg22
S'09/26'
p674
sg24
g14
sg25
S'Danny Woodhead'
p675
sg27
g58
sg29
S'W38-30'
p676
sg31
S'--'
p677
sg33
S'--'
p678
sg34
S'BUF'
p679
sg36
S'--'
p680
sg37
S'42'
p681
sg39
S'22T'
p682
ssg146
(dp683
g5
S'--'
p684
sg7
S'--'
p685
sg9
g10
sg11
S'--'
p686
sg13
g10
sg15
S'--'
p687
sg16
S'2010'
p688
sg18
g146
sg20
S'--'
p689
sg22
S'09/19'
p690
sg24
S'--'
p691
sg25
S'Danny Woodhead'
p692
sg27
S'--'
p693
sg29
S'L14-28'
p694
sg31
S'--'
p695
sg33
S'--'
p696
sg34
S'@NYJ'
p697
sg36
S'--'
p698
sg37
S'--'
p699
sg39
S'--'
p700
ssg40
(dp701
g5
g43
sg7
g43
sg9
g43
sg11
g43
sg13
g43
sg15
g43
sg16
S'2010'
p702
sg18
g40
sg20
g43
sg22
S'Bye'
p703
sg24
g43
sg25
S'Danny Woodhead'
p704
sg27
g43
sg29
g43
sg31
g43
sg33
g43
sg34
g43
sg36
g43
sg37
g43
sg39
g43
ssg74
(dp705
g5
S'11.0'
p706
sg7
S'--'
p707
sg9
g10
sg11
S'--'
p708
sg13
g14
sg15
g14
sg16
S'2010'
p709
sg18
g74
sg20
S'4.5'
p710
sg22
S'10/04'
p711
sg24
g10
sg25
S'Danny Woodhead'
p712
sg27
g79
sg29
S'W41-14'
p713
sg31
S'11'
p714
sg33
g14
sg34
S'@MIA'
p715
sg36
S'11T'
p716
sg37
S'36'
p717
sg39
g32
ssg38
(dp718
g5
S'9.3'
p719
sg7
S'--'
p720
sg9
g10
sg11
S'--'
p721
sg13
g14
sg15
g10
sg16
S'2010'
p722
sg18
g38
sg20
S'3.0'
p723
sg22
S'10/24'
p724
sg24
g10
sg25
S'Danny Woodhead'
p725
sg27
g79
sg29
S'W23-20'
p726
sg31
S'28'
p727
sg33
g58
sg34
S'@SD'
p728
sg36
S'16'
p729
sg37
S'24'
p730
sg39
g38
ssg28
(dp731
g5
S'10.4'
p732
sg7
S'--'
p733
sg9
g10
sg11
S'--'
p734
sg13
g14
sg15
g10
sg16
S'2010'
p735
sg18
g28
sg20
S'5.7'
p736
sg22
S'10/17'
p737
sg24
g10
sg25
S'Danny Woodhead'
p738
sg27
S'11'
p739
sg29
S'W23-20'
p740
sg31
S'52'
p741
sg33
g40
sg34
S'BAL'
p742
sg36
S'19'
p743
sg37
S'63'
p744
sg39
S'14'
p745
ssg32
(dp746
g5
S'19.0'
p747
sg7
S'--'
p748
sg9
g10
sg11
S'--'
p749
sg13
g14
sg15
g10
sg16
S'2010'
p750
sg18
g32
sg20
S'6.0'
p751
sg22
S'11/07'
p752
sg24
g10
sg25
S'Danny Woodhead'
p753
sg27
g32
sg29
S'L14-34'
p754
sg31
S'38'
p755
sg33
g146
sg34
S'@CLE'
p756
sg36
S'26'
p757
sg37
S'54'
p758
sg39
S'12'
p759
ssg79
(dp760
g5
S'9.0'
p761
sg7
S'--'
p762
sg9
g10
sg11
S'--'
p763
sg13
g14
sg15
g10
sg16
S'2010'
p764
sg18
g79
sg20
S'2.2'
p765
sg22
S'10/31'
p766
sg24
g14
sg25
S'Danny Woodhead'
p767
sg27
g28
sg29
S'W28-18'
p768
sg31
S'45'
p769
sg33
g40
sg34
S'MIN'
p770
sg36
S'16'
p771
sg37
S'13'
p772
sg39
g40
sssS'2013'
p773
(dp774
g3
(dp775
g5
S'8.0'
p776
sg7
S'--'
p777
sg9
g10
sg11
S'--'
p778
sg13
g14
sg15
g10
sg16
S'2013'
p779
sg18
S'11'
p780
sg20
S'4.2'
p781
sg22
S'11/17'
p782
sg24
g10
sg25
S'Danny Woodhead'
p783
sg27
g40
sg29
S'L16-20'
p784
sg31
S'16'
p785
sg33
g146
sg34
S'@MIA'
p786
sg36
S'11'
p787
sg37
S'21'
p788
sg39
g38
ssg41
(dp789
g5
S'4.3'
p790
sg7
S'--'
p791
sg9
g10
sg11
S'--'
p792
sg13
g14
sg15
g14
sg16
S'2013'
p793
sg18
S'10'
p794
sg20
S'4.5'
p795
sg22
S'11/10'
p796
sg24
g10
sg25
S'Danny Woodhead'
p797
sg27
g28
sg29
S'L20-28'
p798
sg31
S'17'
p799
sg33
g74
sg34
S'DEN'
p800
sg36
S'7T'
p801
sg37
S'27'
p802
sg39
g79
ssg48
(dp803
g5
S'6.5'
p804
sg7
S'--'
p805
sg9
g10
sg11
S'--'
p806
sg13
g14
sg15
g10
sg16
S'2013'
p807
sg18
S'13'
p808
sg20
S'3.1'
p809
sg22
S'12/01'
p810
sg24
g10
sg25
S'Danny Woodhead'
p811
sg27
g38
sg29
S'L10-17'
p812
sg31
S'13'
p813
sg33
g146
sg34
S'CIN'
p814
sg36
g32
sg37
S'22'
p815
sg39
g38
ssg64
(dp816
g5
S'11.3'
p817
sg7
S'--'
p818
sg9
g10
sg11
S'--'
p819
sg13
g14
sg15
g14
sg16
S'2013'
p820
sg18
S'12'
p821
sg20
S'4.2'
p822
sg22
S'11/24'
p823
sg24
g14
sg25
S'Danny Woodhead'
p824
sg27
g28
sg29
S'W41-38'
p825
sg31
S'45'
p826
sg33
g74
sg34
S'@KC'
p827
sg36
S'19'
p828
sg37
S'25'
p829
sg39
g79
ssg80
(dp830
g5
S'13.0'
p831
sg7
S'--'
p832
sg9
g10
sg11
S'--'
p833
sg13
g14
sg15
g10
sg16
S'2013'
p834
sg18
S'15'
p835
sg20
S'3.2'
p836
sg22
S'12/12'
p837
sg24
g10
sg25
S'Danny Woodhead'
p838
sg27
g32
sg29
S'W27-20'
p839
sg31
S'13'
p840
sg33
g14
sg34
S'@DEN'
p841
sg36
S'13'
p842
sg37
S'29'
p843
sg39
g79
ssg95
(dp844
g5
S'13.0'
p845
sg7
S'--'
p846
sg9
g10
sg11
S'--'
p847
sg13
g14
sg15
g14
sg16
S'2013'
p848
sg18
S'14'
p849
sg20
S'6.0'
p850
sg22
S'12/08'
p851
sg24
g10
sg25
S'Danny Woodhead'
p852
sg27
g38
sg29
S'W37-14'
p853
sg31
S'52'
p854
sg33
g74
sg34
S'NYG'
p855
sg36
S'39'
p856
sg37
S'42'
p857
sg39
S'11'
p858
ssg107
(dp859
g5
S'6.0'
p860
sg7
S'--'
p861
sg9
g10
sg11
S'--'
p862
sg13
g14
sg15
g10
sg16
S'2013'
p863
sg18
S'17'
p864
sg20
S'3.6'
p865
sg22
S'12/29'
p866
sg24
g10
sg25
S'Danny Woodhead'
p867
sg27
g40
sg29
S'W27-24'
p868
sg31
S'42'
p869
sg33
g38
sg34
S'KC'
p870
sg36
g32
sg37
S'18'
p871
sg39
g28
ssg122
(dp872
g5
S'5.3'
p873
sg7
S'--'
p874
sg9
g10
sg11
S'--'
p875
sg13
g14
sg15
g10
sg16
S'2013'
p876
sg18
S'16'
p877
sg20
S'6.5'
p878
sg22
S'12/22'
p879
sg24
g10
sg25
S'Danny Woodhead'
p880
sg27
g79
sg29
S'W26-13'
p881
sg31
S'16'
p882
sg33
g58
sg34
S'OAK'
p883
sg36
g32
sg37
S'52'
p884
sg39
S'13'
p885
ssg14
(dp886
g5
S'8.0'
p887
sg7
S'--'
p888
sg9
g10
sg11
S'--'
p889
sg13
g14
sg15
g10
sg16
S'2013'
p890
sg18
g14
sg20
S'--'
p891
sg22
S'09/09'
p892
sg24
S'--'
p893
sg25
S'Danny Woodhead'
p894
sg27
S'--'
p895
sg29
S'L28-31'
p896
sg31
S'16'
p897
sg33
g146
sg34
S'HOU'
p898
sg36
S'11'
p899
sg37
S'--'
p900
sg39
S'--'
p901
ssg58
(dp902
g5
S'7.9'
p903
sg7
g14
sg9
g14
sg11
g14
sg13
g14
sg15
g10
sg16
S'2013'
p904
sg18
g58
sg20
S'6.2'
p905
sg22
S'09/22'
p906
sg24
g10
sg25
S'Danny Woodhead'
p907
sg27
g40
sg29
S'L17-20'
p908
sg31
S'55'
p909
sg33
g38
sg34
S'@TEN'
p910
sg36
S'13'
p911
sg37
S'31'
p912
sg39
S'11'
p913
ssg146
(dp914
g5
S'4.6'
p915
sg7
S'--'
p916
sg9
g10
sg11
S'--'
p917
sg13
g14
sg15
g10
sg16
S'2013'
p918
sg18
g146
sg20
S'3.0'
p919
sg22
S'09/15'
p920
sg24
g10
sg25
S'Danny Woodhead'
p921
sg27
g32
sg29
S'W33-30'
p922
sg31
S'37'
p923
sg33
g79
sg34
S'@PHI'
p924
sg36
g79
sg37
S'27'
p925
sg39
g79
ssg40
(dp926
g5
S'6.4'
p927
sg7
g14
sg9
g14
sg11
g14
sg13
g14
sg15
g14
sg16
S'2013'
p928
sg18
g40
sg20
S'1.9'
p929
sg22
S'10/06'
p930
sg24
g10
sg25
S'Danny Woodhead'
p931
sg27
g32
sg29
S'L17-27'
p932
sg31
S'58'
p933
sg33
g32
sg34
S'@OAK'
p934
sg36
S'17'
p935
sg37
S'17'
p936
sg39
g40
ssg74
(dp937
g5
S'10.8'
p938
sg7
S'--'
p939
sg9
g10
sg11
S'--'
p940
sg13
g14
sg15
g146
sg16
S'2013'
p941
sg18
g74
sg20
S'6.4'
p942
sg22
S'09/29'
p943
sg24
g10
sg25
S'Danny Woodhead'
p944
sg27
g40
sg29
S'W30-21'
p945
sg31
S'54'
p946
sg33
g40
sg34
S'DAL'
p947
sg36
S'26T'
p948
sg37
S'32'
p949
sg39
S'14'
p950
ssg38
(dp951
g5
S'11.8'
p952
sg7
S'--'
p953
sg9
g10
sg11
S'--'
p954
sg13
g14
sg15
g10
sg16
S'2013'
p955
sg18
g38
sg20
S'3.2'
p956
sg22
S'10/20'
p957
sg24
g14
sg25
S'Danny Woodhead'
p958
sg27
g32
sg29
S'W24-6'
p959
sg31
S'47'
p960
sg33
g74
sg34
S'@JAC'
p961
sg36
S'26'
p962
sg37
S'29'
p963
sg39
g38
ssg28
(dp964
g5
S'9.4'
p965
sg7
S'--'
p966
sg9
g10
sg11
S'--'
p967
sg13
g14
sg15
g10
sg16
S'2013'
p968
sg18
g28
sg20
S'4.0'
p969
sg22
S'10/14'
p970
sg24
g10
sg25
S'Danny Woodhead'
p971
sg27
g32
sg29
S'W19-9'
p972
sg31
S'47'
p973
sg33
g40
sg34
S'IND'
p974
sg36
S'13'
p975
sg37
S'36'
p976
sg39
S'10'
p977
ssg32
(dp978
g5
S'8.6'
p979
sg7
S'--'
p980
sg9
g10
sg11
S'--'
p981
sg13
g14
sg15
g10
sg16
S'2013'
p982
sg18
g32
sg20
S'3.0'
p983
sg22
S'11/03'
p984
sg24
g10
sg25
S'Danny Woodhead'
p985
sg27
g38
sg29
S'L24-30'
p986
sg31
S'77'
p987
sg33
g32
sg34
S'@WAS'
p988
sg36
S'20'
p989
sg37
S'21'
p990
sg39
g79
ssg79
(dp991
g5
g43
sg7
g43
sg9
g43
sg11
g43
sg13
g43
sg15
g43
sg16
S'2013'
p992
sg18
g79
sg20
g43
sg22
S'Bye'
p993
sg24
g43
sg25
S'Danny Woodhead'
p994
sg27
g43
sg29
g43
sg31
g43
sg33
g43
sg34
g43
sg36
g43
sg37
g43
sg39
g43
sssS'2012'
p995
(dp996
g3
(dp997
g5
S'--'
p998
sg7
S'--'
p999
sg9
g10
sg11
S'--'
p1000
sg13
g14
sg15
S'--'
p1001
sg16
S'2012'
p1002
sg18
S'11'
p1003
sg20
S'--'
p1004
sg22
S'11/18'
p1005
sg24
S'--'
p1006
sg25
S'Danny Woodhead'
p1007
sg27
S'--'
p1008
sg29
S'W59-24'
p1009
sg31
S'--'
p1010
sg33
S'--'
p1011
sg34
S'IND'
p1012
sg36
S'--'
p1013
sg37
S'--'
p1014
sg39
S'--'
p1015
ssg41
(dp1016
g5
S'11.5'
p1017
sg7
S'--'
p1018
sg9
g10
sg11
S'--'
p1019
sg13
g14
sg15
g14
sg16
S'2012'
p1020
sg18
S'10'
p1021
sg20
S'15.0'
p1022
sg22
S'11/11'
p1023
sg24
g14
sg25
S'Danny Woodhead'
p1024
sg27
g14
sg29
S'W37-31'
p1025
sg31
S'46'
p1026
sg33
g74
sg34
S'BUF'
p1027
sg36
S'18T'
p1028
sg37
S'15'
p1029
sg39
S'15T'
p1030
ssg48
(dp1031
g5
S'7.5'
p1032
sg7
S'--'
p1033
sg9
g10
sg11
S'--'
p1034
sg13
g14
sg15
g10
sg16
S'2012'
p1035
sg18
S'13'
p1036
sg20
S'4.0'
p1037
sg22
S'12/02'
p1038
sg24
g10
sg25
S'Danny Woodhead'
p1039
sg27
g28
sg29
S'W23-16'
p1040
sg31
S'15'
p1041
sg33
g146
sg34
S'@MIA'
p1042
sg36
S'11'
p1043
sg37
S'24'
p1044
sg39
S'13'
p1045
ssg64
(dp1046
g5
S'11.0'
p1047
sg7
S'--'
p1048
sg9
g10
sg11
S'--'
p1049
sg13
g14
sg15
g10
sg16
S'2012'
p1050
sg18
S'12'
p1051
sg20
S'4.0'
p1052
sg22
S'11/22'
p1053
sg24
g10
sg25
S'Danny Woodhead'
p1054
sg27
g146
sg29
S'W49-19'
p1055
sg31
S'11'
p1056
sg33
g14
sg34
S'@NYJ'
p1057
sg36
S'11'
p1058
sg37
g79
sg39
g79
ssg80
(dp1059
g5
S'4.6'
p1060
sg7
S'--'
p1061
sg9
g10
sg11
S'--'
p1062
sg13
g14
sg15
g10
sg16
S'2012'
p1063
sg18
S'15'
p1064
sg20
S'5.1'
p1065
sg22
S'12/16'
p1066
sg24
g146
sg25
S'Danny Woodhead'
p1067
sg27
S'12'
p1068
sg29
S'L34-41'
p1069
sg31
S'23'
p1070
sg33
g40
sg34
S'SF'
p1071
sg36
g38
sg37
S'61'
p1072
sg39
S'15'
p1073
ssg95
(dp1074
g5
S'17.0'
p1075
sg7
g14
sg9
g10
sg11
g10
sg13
g14
sg15
g10
sg16
S'2012'
p1076
sg18
S'14'
p1077
sg20
S'4.0'
p1078
sg22
S'12/10'
p1079
sg24
g10
sg25
S'Danny Woodhead'
p1080
sg27
g14
sg29
S'W42-14'
p1081
sg31
S'34'
p1082
sg33
g146
sg34
S'HOU'
p1083
sg36
S'18'
p1084
sg37
g74
sg39
g74
ssg107
(dp1085
g5
S'15.8'
p1086
sg7
S'--'
p1087
sg9
g14
sg11
S'--'
p1088
sg13
g14
sg15
g10
sg16
S'2012'
p1089
sg18
S'17'
p1090
sg20
S'6.0'
p1091
sg22
S'12/30'
p1092
sg24
g10
sg25
S'Danny Woodhead'
p1093
sg27
g58
sg29
S'W28-0'
p1094
sg31
S'79'
p1095
sg33
g40
sg34
S'MIA'
p1096
sg36
S'25'
p1097
sg37
S'18'
p1098
sg39
S'11'
p1099
ssg122
(dp1100
g5
S'19.0'
p1101
sg7
S'--'
p1102
sg9
g10
sg11
S'--'
p1103
sg13
g14
sg15
g14
sg16
S'2012'
p1104
sg18
S'16'
p1105
sg20
S'2.3'
p1106
sg22
S'12/23'
p1107
sg24
g10
sg25
S'Danny Woodhead'
p1108
sg27
g58
sg29
S'W23-16'
p1109
sg31
S'38'
p1110
sg33
g146
sg34
S'@JAC'
p1111
sg36
S'24'
p1112
sg37
g38
sg39
g74
ssg14
(dp1113
g5
S'--'
p1114
sg7
S'--'
p1115
sg9
g10
sg11
S'--'
p1116
sg13
g14
sg15
S'--'
p1117
sg16
S'2012'
p1118
sg18
g14
sg20
S'3.3'
p1119
sg22
S'09/09'
p1120
sg24
g10
sg25
S'Danny Woodhead'
p1121
sg27
g28
sg29
S'W34-13'
p1122
sg31
S'--'
p1123
sg33
S'--'
p1124
sg34
S'@TEN'
p1125
sg36
S'--'
p1126
sg37
S'20'
p1127
sg39
g28
ssg58
(dp1128
g5
S'9.0'
p1129
sg7
S'--'
p1130
sg9
g10
sg11
S'--'
p1131
sg13
g14
sg15
g10
sg16
S'2012'
p1132
sg18
g58
sg20
S'2.3'
p1133
sg22
S'09/23'
p1134
sg24
g14
sg25
S'Danny Woodhead'
p1135
sg27
S'15'
p1136
sg29
S'L30-31'
p1137
sg31
g32
sg33
g14
sg34
S'@BAL'
p1138
sg36
g32
sg37
S'34'
p1139
sg39
g28
ssg146
(dp1140
g5
S'12.0'
p1141
sg7
S'--'
p1142
sg9
g10
sg11
S'--'
p1143
sg13
g14
sg15
g10
sg16
S'2012'
p1144
sg18
g146
sg20
S'2.3'
p1145
sg22
S'09/16'
p1146
sg24
g10
sg25
S'Danny Woodhead'
p1147
sg27
g79
sg29
S'L18-20'
p1148
sg31
S'12'
p1149
sg33
g14
sg34
S'ARI'
p1150
sg36
S'12'
p1151
sg37
S'18'
p1152
sg39
S'10'
p1153
ssg40
(dp1154
g5
S'25.0'
p1155
sg7
S'--'
p1156
sg9
g14
sg11
S'--'
p1157
sg13
g14
sg15
g10
sg16
S'2012'
p1158
sg18
g40
sg20
S'6.7'
p1159
sg22
S'10/07'
p1160
sg24
g10
sg25
S'Danny Woodhead'
p1161
sg27
g38
sg29
S'W31-21'
p1162
sg31
S'25'
p1163
sg33
g14
sg34
S'DEN'
p1164
sg36
S'25'
p1165
sg37
S'47'
p1166
sg39
S'19'
p1167
ssg74
(dp1168
g5
S'11.5'
p1169
sg7
S'--'
p1170
sg9
g10
sg11
S'--'
p1171
sg13
g14
sg15
g14
sg16
S'2012'
p1172
sg18
g74
sg20
S'--'
p1173
sg22
S'09/30'
p1174
sg24
S'--'
p1175
sg25
S'Danny Woodhead'
p1176
sg27
S'--'
p1177
sg29
S'W52-28'
p1178
sg31
S'23'
p1179
sg33
g146
sg34
S'@BUF'
p1180
sg36
S'17T'
p1181
sg37
S'--'
p1182
sg39
S'--'
p1183
ssg38
(dp1184
g5
S'7.3'
p1185
sg7
S'--'
p1186
sg9
g10
sg11
S'--'
p1187
sg13
g14
sg15
g10
sg16
S'2012'
p1188
sg18
g38
sg20
S'2.8'
p1189
sg22
S'10/21'
p1190
sg24
g10
sg25
S'Danny Woodhead'
p1191
sg27
g28
sg29
S'W29-26'
p1192
sg31
S'29'
p1193
sg33
g74
sg34
S'NYJ'
p1194
sg36
S'20'
p1195
sg37
S'17'
p1196
sg39
g79
ssg28
(dp1197
g5
S'9.2'
p1198
sg7
S'--'
p1199
sg9
g10
sg11
S'--'
p1200
sg13
g14
sg15
g10
sg16
S'2012'
p1201
sg18
g28
sg20
S'6.3'
p1202
sg22
S'10/14'
p1203
sg24
g10
sg25
S'Danny Woodhead'
p1204
sg27
g74
sg29
S'L23-24'
p1205
sg31
S'46'
p1206
sg33
g40
sg34
S'@SEA'
p1207
sg36
S'22'
p1208
sg37
S'25'
p1209
sg39
g32
ssg32
(dp1210
g5
g43
sg7
g43
sg9
g43
sg11
g43
sg13
g43
sg15
g43
sg16
S'2012'
p1211
sg18
g32
sg20
g43
sg22
S'Bye'
p1212
sg24
g43
sg25
S'Danny Woodhead'
p1213
sg27
g43
sg29
g43
sg31
g43
sg33
g43
sg34
g43
sg36
g43
sg37
g43
sg39
g43
ssg79
(dp1214
g5
S'11.2'
p1215
sg7
S'--'
p1216
sg9
g10
sg11
S'--'
p1217
sg13
g14
sg15
g10
sg16
S'2012'
p1218
sg18
g79
sg20
S'1.5'
p1219
sg22
S'10/28'
p1220
sg24
g10
sg25
S'Danny Woodhead'
p1221
sg27
g146
sg29
S'W45-7'
p1222
sg31
S'56'
p1223
sg33
g40
sg34
S'@STL'
p1224
sg36
S'24'
p1225
sg37
g58
sg39
g146
sss.