(dp0
S'2015'
p1
(dp2
S'11'
p3
(dp4
S'RecAvg'
p5
S'12.7'
p6
sS'FUM'
p7
S'--'
p8
sS'GS'
p9
S'0'
p10
sS'Lost'
p11
S'--'
p12
sS'G'
p13
S'1'
p14
sS'RecTD'
p15
g14
sS'Year'
p16
S'2015'
p17
sS'WK'
p18
S'11'
p19
sS'RushAvg'
p20
S'3.5'
p21
sS'Game Date'
p22
S'11/22'
p23
sS'RushTD'
p24
g10
sS'Player'
p25
S'Darren Sproles'
p26
sS'RushAtt'
p27
S'6'
p28
sS'Result'
p29
S'L17-45'
p30
sS'RecYds'
p31
S'38'
p32
sS'Rec'
p33
S'3'
p34
sS'Opp'
p35
S'TB'
p36
sS'RecLng'
p37
S'35T'
p38
sS'RushYds'
p39
S'21'
p40
sS'RushLng'
p41
S'7'
p42
ssS'10'
p43
(dp44
g5
S'6.8'
p45
sg7
S'--'
p46
sg9
g10
sg11
S'--'
p47
sg13
g14
sg15
g10
sg16
S'2015'
p48
sg18
S'10'
p49
sg20
S'0.0'
p50
sg22
S'11/15'
p51
sg24
g10
sg25
S'Darren Sproles'
p52
sg27
g34
sg29
S'L19-20'
p53
sg31
S'34'
p54
sg33
S'5'
p55
sg35
S'MIA'
p56
sg37
S'10'
p57
sg39
g10
sg41
S'2'
p58
ssS'13'
p59
(dp60
g5
S'8.5'
p61
sg7
S'--'
p62
sg9
g14
sg11
S'--'
p63
sg13
g14
sg15
g10
sg16
S'2015'
p64
sg18
S'13'
p65
sg20
S'4.4'
p66
sg22
S'12/06'
p67
sg24
g10
sg25
S'Darren Sproles'
p68
sg27
S'15'
p69
sg29
S'W35-28'
p70
sg31
S'34'
p71
sg33
S'4'
p72
sg35
S'@NE'
p73
sg37
S'16'
p74
sg39
S'66'
p75
sg41
S'13'
p76
ssS'12'
p77
(dp78
g5
S'5.3'
p79
sg7
S'--'
p80
sg9
g10
sg11
S'--'
p81
sg13
g14
sg15
g10
sg16
S'2015'
p82
sg18
S'12'
p83
sg20
S'2.0'
p84
sg22
S'11/26'
p85
sg24
g10
sg25
S'Darren Sproles'
p86
sg27
g58
sg29
S'L14-45'
p87
sg31
S'21'
p88
sg33
g72
sg35
S'@DET'
p89
sg37
S'16'
p90
sg39
g72
sg41
g55
ssS'15'
p91
(dp92
g5
S'5.3'
p93
sg7
S'--'
p94
sg9
g10
sg11
S'--'
p95
sg13
g14
sg15
g10
sg16
S'2015'
p96
sg18
S'15'
p97
sg20
S'1.5'
p98
sg22
S'12/20'
p99
sg24
g10
sg25
S'Darren Sproles'
p100
sg27
g28
sg29
S'L17-40'
p101
sg31
S'16'
p102
sg33
g34
sg35
S'ARI'
p103
sg37
g28
sg39
S'9'
p104
sg41
g34
ssS'14'
p105
(dp106
g5
S'2.0'
p107
sg7
S'--'
p108
sg9
g10
sg11
S'--'
p109
sg13
g14
sg15
g10
sg16
S'2015'
p110
sg18
S'14'
p111
sg20
S'5.9'
p112
sg22
S'12/13'
p113
sg24
g14
sg25
S'Darren Sproles'
p114
sg27
g42
sg29
S'W23-20'
p115
sg31
g72
sg33
g58
sg35
S'BUF'
p116
sg37
g34
sg39
S'41'
p117
sg41
S'15'
p118
ssS'17'
p119
(dp120
g5
S'6.7'
p121
sg7
S'--'
p122
sg9
g10
sg11
S'--'
p123
sg13
g14
sg15
g10
sg16
S'2015'
p124
sg18
S'17'
p125
sg20
S'8.0'
p126
sg22
S'01/03'
p127
sg24
g14
sg25
S'Darren Sproles'
p128
sg27
g34
sg29
S'W35-30'
p129
sg31
S'20'
p130
sg33
g34
sg35
S'@NYG'
p131
sg37
S'14'
p132
sg39
S'24'
p133
sg41
S'13'
p134
ssS'16'
p135
(dp136
g5
S'8.0'
p137
sg7
g14
sg9
g10
sg11
g10
sg13
g14
sg15
g10
sg16
S'2015'
p138
sg18
S'16'
p139
sg20
S'1.8'
p140
sg22
S'12/26'
p141
sg24
g10
sg25
S'Darren Sproles'
p142
sg27
g55
sg29
S'L24-38'
p143
sg31
S'56'
p144
sg33
g42
sg35
S'WAS'
p145
sg37
S'14'
p146
sg39
g104
sg41
S'8'
p147
ssg14
(dp148
g5
S'10.9'
p149
sg7
g14
sg9
g10
sg11
g10
sg13
g14
sg15
g10
sg16
S'2015'
p150
sg18
g14
sg20
S'10.0'
p151
sg22
S'09/14'
p152
sg24
g10
sg25
S'Darren Sproles'
p153
sg27
g55
sg29
S'L24-26'
p154
sg31
S'76'
p155
sg33
g42
sg35
S'@ATL'
p156
sg37
S'24'
p157
sg39
S'50'
p158
sg41
S'27'
p159
ssg34
(dp160
g5
S'4.8'
p161
sg7
S'--'
p162
sg9
g14
sg11
S'--'
p163
sg13
g14
sg15
g10
sg16
S'2015'
p164
sg18
g34
sg20
S'1.5'
p165
sg22
S'09/27'
p166
sg24
g14
sg25
S'Darren Sproles'
p167
sg27
S'11'
p168
sg29
S'W24-17'
p169
sg31
S'19'
p170
sg33
g72
sg35
S'@NYJ'
p171
sg37
g104
sg39
S'17'
p172
sg41
S'12'
p173
ssg58
(dp174
g5
S'5.8'
p175
sg7
S'--'
p176
sg9
g10
sg11
S'--'
p177
sg13
g14
sg15
g10
sg16
S'2015'
p178
sg18
g58
sg20
S'-4.0'
p179
sg22
S'09/20'
p180
sg24
g10
sg25
S'Darren Sproles'
p181
sg27
g14
sg29
S'L10-20'
p182
sg31
S'23'
p183
sg33
g72
sg35
S'DAL'
p184
sg37
S'11'
p185
sg39
S'-4'
p186
sg41
S'-4'
p187
ssg55
(dp188
g5
S'10.0'
p189
sg7
S'--'
p190
sg9
g10
sg11
S'--'
p191
sg13
g14
sg15
g10
sg16
S'2015'
p192
sg18
g55
sg20
S'5.4'
p193
sg22
S'10/11'
p194
sg24
g10
sg25
S'Darren Sproles'
p195
sg27
g55
sg29
S'W39-17'
p196
sg31
S'10'
p197
sg33
g14
sg35
S'NO'
p198
sg37
S'10'
p199
sg39
S'27'
p200
sg41
S'14'
p201
ssg72
(dp202
g5
S'--'
p203
sg7
S'--'
p204
sg9
g14
sg11
S'--'
p205
sg13
g14
sg15
g10
sg16
S'2015'
p206
sg18
g72
sg20
S'4.3'
p207
sg22
S'10/04'
p208
sg24
g10
sg25
S'Darren Sproles'
p209
sg27
g72
sg29
S'L20-23'
p210
sg31
g10
sg33
g10
sg35
S'@WAS'
p211
sg37
S'--'
p212
sg39
S'17'
p213
sg41
S'11'
p214
ssg42
(dp215
g5
S'6.2'
p216
sg7
S'--'
p217
sg9
g10
sg11
S'--'
p218
sg13
g14
sg15
g10
sg16
S'2015'
p219
sg18
g42
sg20
S'3.0'
p220
sg22
S'10/25'
p221
sg24
g10
sg25
S'Darren Sproles'
p222
sg27
g34
sg29
S'L16-27'
p223
sg31
S'31'
p224
sg33
g55
sg35
S'@CAR'
p225
sg37
g104
sg39
g104
sg41
g28
ssg28
(dp226
g5
S'3.0'
p227
sg7
S'--'
p228
sg9
g14
sg11
S'--'
p229
sg13
g14
sg15
g10
sg16
S'2015'
p230
sg18
g28
sg20
S'2.0'
p231
sg22
S'10/19'
p232
sg24
g10
sg25
S'Darren Sproles'
p233
sg27
g58
sg29
S'W27-7'
p234
sg31
g34
sg33
g14
sg35
S'NYG'
p235
sg37
g34
sg39
g72
sg41
g72
ssg104
(dp236
g5
S'1.5'
p237
sg7
S'--'
p238
sg9
g10
sg11
S'--'
p239
sg13
g14
sg15
g10
sg16
S'2015'
p240
sg18
g104
sg20
S'4.6'
p241
sg22
S'11/08'
p242
sg24
g10
sg25
S'Darren Sproles'
p243
sg27
g55
sg29
S'W33-27'
p244
sg31
g34
sg33
g58
sg35
S'@DAL'
p245
sg37
g42
sg39
S'23'
p246
sg41
g147
ssg147
(dp247
g5
S''
p248
sg7
g248
sg9
g248
sg11
g248
sg13
g248
sg15
g248
sg16
S'2015'
p249
sg18
g147
sg20
g248
sg22
S'Bye'
p250
sg24
g248
sg25
S'Darren Sproles'
p251
sg27
g248
sg29
g248
sg31
g248
sg33
g248
sg35
g248
sg37
g248
sg39
g248
sg41
g248
sssS'2014'
p252
(dp253
g3
(dp254
g5
S'11.5'
p255
sg7
S'--'
p256
sg9
g10
sg11
S'--'
p257
sg13
g14
sg15
g10
sg16
S'2014'
p258
sg18
S'11'
p259
sg20
S'10.5'
p260
sg22
S'11/16'
p261
sg24
g10
sg25
S'Darren Sproles'
p262
sg27
g58
sg29
S'L20-53'
p263
sg31
S'23'
p264
sg33
g58
sg35
S'@GB'
p265
sg37
S'16'
p266
sg39
S'21'
p267
sg41
S'13'
p268
ssg43
(dp269
g5
S'13.0'
p270
sg7
S'--'
p271
sg9
g10
sg11
S'--'
p272
sg13
g14
sg15
g10
sg16
S'2014'
p273
sg18
S'10'
p274
sg20
S'8.0'
p275
sg22
S'11/10'
p276
sg24
g14
sg25
S'Darren Sproles'
p277
sg27
g14
sg29
S'W45-21'
p278
sg31
S'13'
p279
sg33
g14
sg35
S'CAR'
p280
sg37
S'13'
p281
sg39
g147
sg41
S'8T'
p282
ssg59
(dp283
g5
S'6.3'
p284
sg7
S'--'
p285
sg9
g10
sg11
S'--'
p286
sg13
g14
sg15
g10
sg16
S'2014'
p287
sg18
S'13'
p288
sg20
S'13.0'
p289
sg22
S'11/27'
p290
sg24
g10
sg25
S'Darren Sproles'
p291
sg27
g14
sg29
S'W33-10'
p292
sg31
S'19'
p293
sg33
g34
sg35
S'@DAL'
p294
sg37
g104
sg39
S'13'
p295
sg41
S'13'
p296
ssg77
(dp297
g5
S'4.7'
p298
sg7
S'--'
p299
sg9
g10
sg11
S'--'
p300
sg13
g14
sg15
g10
sg16
S'2014'
p301
sg18
S'12'
p302
sg20
S'4.2'
p303
sg22
S'11/23'
p304
sg24
g14
sg25
S'Darren Sproles'
p305
sg27
g28
sg29
S'W43-24'
p306
sg31
S'14'
p307
sg33
g34
sg35
S'TEN'
p308
sg37
S'10'
p309
sg39
S'25'
p310
sg41
S'13'
p311
ssg91
(dp312
g5
S'4.0'
p313
sg7
g14
sg9
g10
sg11
g10
sg13
g14
sg15
g10
sg16
S'2014'
p314
sg18
S'15'
p315
sg20
S'1.7'
p316
sg22
S'12/14'
p317
sg24
g14
sg25
S'Darren Sproles'
p318
sg27
g34
sg29
S'L27-38'
p319
sg31
g147
sg33
g58
sg35
S'DAL'
p320
sg37
S'11'
p321
sg39
g55
sg41
g34
ssg105
(dp322
g5
S'--'
p323
sg7
g14
sg9
g10
sg11
g10
sg13
g14
sg15
S'--'
p324
sg16
S'2014'
p325
sg18
S'14'
p326
sg20
S'0.0'
p327
sg22
S'12/07'
p328
sg24
g10
sg25
S'Darren Sproles'
p329
sg27
g72
sg29
S'L14-24'
p330
sg31
S'--'
p331
sg33
S'--'
p332
sg35
S'SEA'
p333
sg37
S'--'
p334
sg39
g10
sg41
g28
ssg119
(dp335
g5
S'7.7'
p336
sg7
S'--'
p337
sg9
g10
sg11
S'--'
p338
sg13
g14
sg15
g10
sg16
S'2014'
p339
sg18
S'17'
p340
sg20
S'5.0'
p341
sg22
S'12/28'
p342
sg24
g10
sg25
S'Darren Sproles'
p343
sg27
g14
sg29
S'W34-26'
p344
sg31
S'23'
p345
sg33
g34
sg35
S'@NYG'
p346
sg37
S'10'
p347
sg39
g55
sg41
g55
ssg135
(dp348
g5
S'7.2'
p349
sg7
S'--'
p350
sg9
g10
sg11
S'--'
p351
sg13
g14
sg15
g10
sg16
S'2014'
p352
sg18
S'16'
p353
sg20
S'6.0'
p354
sg22
S'12/20'
p355
sg24
g10
sg25
S'Darren Sproles'
p356
sg27
g72
sg29
S'L24-27'
p357
sg31
S'43'
p358
sg33
g28
sg35
S'@WAS'
p359
sg37
S'18'
p360
sg39
S'24'
p361
sg41
S'12'
p362
ssg14
(dp363
g5
S'3.5'
p364
sg7
S'--'
p365
sg9
g10
sg11
S'--'
p366
sg13
g14
sg15
g10
sg16
S'2014'
p367
sg18
g14
sg20
S'6.5'
p368
sg22
S'09/07'
p369
sg24
g14
sg25
S'Darren Sproles'
p370
sg27
S'11'
p371
sg29
S'W34-17'
p372
sg31
S'14'
p373
sg33
g72
sg35
S'JAC'
p374
sg37
g147
sg39
S'71'
p375
sg41
S'49T'
p376
ssg34
(dp377
g5
S'10.0'
p378
sg7
g14
sg9
g10
sg11
g14
sg13
g14
sg15
g10
sg16
S'2014'
p379
sg18
g34
sg20
S'10.0'
p380
sg22
S'09/21'
p381
sg24
g10
sg25
S'Darren Sproles'
p382
sg27
g58
sg29
S'W37-34'
p383
sg31
S'30'
p384
sg33
g34
sg35
S'WAS'
p385
sg37
S'22'
p386
sg39
S'20'
p387
sg41
S'18'
p388
ssg58
(dp389
g5
S'21.7'
p390
sg7
S'--'
p391
sg9
g10
sg11
S'--'
p392
sg13
g14
sg15
g10
sg16
S'2014'
p393
sg18
g58
sg20
S'6.5'
p394
sg22
S'09/15'
p395
sg24
g14
sg25
S'Darren Sproles'
p396
sg27
g72
sg29
S'W30-27'
p397
sg31
S'152'
p398
sg33
g42
sg35
S'@IND'
p399
sg37
S'57'
p400
sg39
S'26'
p401
sg41
S'19T'
p402
ssg55
(dp403
g5
S'--'
p404
sg7
S'--'
p405
sg9
g10
sg11
S'--'
p406
sg13
g14
sg15
S'--'
p407
sg16
S'2014'
p408
sg18
g55
sg20
S'7.3'
p409
sg22
S'10/05'
p410
sg24
g10
sg25
S'Darren Sproles'
p411
sg27
g42
sg29
S'W34-28'
p412
sg31
S'--'
p413
sg33
S'--'
p414
sg35
S'STL'
p415
sg37
S'--'
p416
sg39
S'51'
p417
sg41
S'25'
p418
ssg72
(dp419
g5
S'1.0'
p420
sg7
S'--'
p421
sg9
g10
sg11
S'--'
p422
sg13
g14
sg15
g10
sg16
S'2014'
p423
sg18
g72
sg20
S'4.0'
p424
sg22
S'09/28'
p425
sg24
g10
sg25
S'Darren Sproles'
p426
sg27
g14
sg29
S'L21-26'
p427
sg31
g58
sg33
g58
sg35
S'@SF'
p428
sg37
g28
sg39
g72
sg41
g72
ssg42
(dp429
g5
g248
sg7
g248
sg9
g248
sg11
g248
sg13
g248
sg15
g248
sg16
S'2014'
p430
sg18
g42
sg20
g248
sg22
S'Bye'
p431
sg24
g248
sg25
S'Darren Sproles'
p432
sg27
g248
sg29
g248
sg31
g248
sg33
g248
sg35
g248
sg37
g248
sg39
g248
sg41
g248
ssg28
(dp433
g5
S'--'
p434
sg7
g14
sg9
g10
sg11
g10
sg13
g14
sg15
g10
sg16
S'2014'
p435
sg18
g28
sg20
S'5.6'
p436
sg22
S'10/12'
p437
sg24
g14
sg25
S'Darren Sproles'
p438
sg27
g42
sg29
S'W27-0'
p439
sg31
g10
sg33
g10
sg35
S'NYG'
p440
sg37
S'--'
p441
sg39
S'39'
p442
sg41
S'15T'
p443
ssg104
(dp444
g5
S'11.5'
p445
sg7
S'--'
p446
sg9
g10
sg11
S'--'
p447
sg13
g14
sg15
g10
sg16
S'2014'
p448
sg18
g104
sg20
S'5.7'
p449
sg22
S'11/02'
p450
sg24
g10
sg25
S'Darren Sproles'
p451
sg27
g34
sg29
S'W31-21'
p452
sg31
S'46'
p453
sg33
g72
sg35
S'@HOU'
p454
sg37
S'24'
p455
sg39
S'17'
p456
sg41
g42
ssg147
(dp457
g5
S'--'
p458
sg7
S'--'
p459
sg9
g10
sg11
S'--'
p460
sg13
g10
sg15
S'--'
p461
sg16
S'2014'
p462
sg18
g147
sg20
S'--'
p463
sg22
S'10/26'
p464
sg24
S'--'
p465
sg25
S'Darren Sproles'
p466
sg27
S'--'
p467
sg29
S'L20-24'
p468
sg31
S'--'
p469
sg33
S'--'
p470
sg35
S'@ARI'
p471
sg37
S'--'
p472
sg39
S'--'
p473
sg41
S'--'
p474
sssS'2011'
p475
(dp476
g3
(dp477
g5
g248
sg7
g248
sg9
g248
sg11
g248
sg13
g248
sg15
g248
sg16
S'2011'
p478
sg18
S'11'
p479
sg20
g248
sg22
S'Bye'
p480
sg24
g248
sg25
S'Darren Sproles'
p481
sg27
g248
sg29
g248
sg31
g248
sg33
g248
sg35
g248
sg37
g248
sg39
g248
sg41
g248
ssg43
(dp482
g5
S'0.5'
p483
sg7
S'--'
p484
sg9
g14
sg11
S'--'
p485
sg13
g14
sg15
g10
sg16
S'2011'
p486
sg18
S'10'
p487
sg20
S'0.5'
p488
sg22
S'11/13'
p489
sg24
g10
sg25
S'Darren Sproles'
p490
sg27
g58
sg29
S'W26-23'
p491
sg31
g58
sg33
g72
sg35
S'@ATL'
p492
sg37
g55
sg39
g14
sg41
g14
ssg59
(dp493
g5
S'9.2'
p494
sg7
S'--'
p495
sg9
g10
sg11
S'--'
p496
sg13
g14
sg15
g14
sg16
S'2011'
p497
sg18
S'13'
p498
sg20
S'7.0'
p499
sg22
S'12/04'
p500
sg24
g10
sg25
S'Darren Sproles'
p501
sg27
g72
sg29
S'W31-17'
p502
sg31
S'46'
p503
sg33
g55
sg35
S'DET'
p504
sg37
S'22'
p505
sg39
S'28'
p506
sg41
S'20'
p507
ssg77
(dp508
g5
S'14.0'
p509
sg7
S'--'
p510
sg9
g10
sg11
S'--'
p511
sg13
g14
sg15
g10
sg16
S'2011'
p512
sg18
S'12'
p513
sg20
S'6.8'
p514
sg22
S'11/28'
p515
sg24
g10
sg25
S'Darren Sproles'
p516
sg27
g147
sg29
S'W49-24'
p517
sg31
S'28'
p518
sg33
g58
sg35
S'NYG'
p519
sg37
S'22'
p520
sg39
S'54'
p521
sg41
S'23'
p522
ssg91
(dp523
g5
S'15.8'
p524
sg7
S'--'
p525
sg9
g10
sg11
S'--'
p526
sg13
g14
sg15
g14
sg16
S'2011'
p527
sg18
S'15'
p528
sg20
S'4.1'
p529
sg22
S'12/18'
p530
sg24
g10
sg25
S'Darren Sproles'
p531
sg27
g147
sg29
S'W42-20'
p532
sg31
S'79'
p533
sg33
g55
sg35
S'@MIN'
p534
sg37
S'39'
p535
sg39
S'33'
p536
sg41
S'14'
p537
ssg105
(dp538
g5
S'8.3'
p539
sg7
S'--'
p540
sg9
g10
sg11
S'--'
p541
sg13
g14
sg15
g10
sg16
S'2011'
p542
sg18
S'14'
p543
sg20
S'6.6'
p544
sg22
S'12/11'
p545
sg24
g10
sg25
S'Darren Sproles'
p546
sg27
g55
sg29
S'W22-17'
p547
sg31
S'58'
p548
sg33
g42
sg35
S'@TEN'
p549
sg37
S'20'
p550
sg39
S'33'
p551
sg41
S'14'
p552
ssg119
(dp553
g5
S'5.8'
p554
sg7
S'--'
p555
sg9
g10
sg11
S'--'
p556
sg13
g14
sg15
g14
sg16
S'2011'
p557
sg18
S'17'
p558
sg20
S'6.7'
p559
sg22
S'01/01'
p560
sg24
g10
sg25
S'Darren Sproles'
p561
sg27
g28
sg29
S'W45-17'
p562
sg31
S'29'
p563
sg33
g55
sg35
S'CAR'
p564
sg37
S'16'
p565
sg39
S'40'
p566
sg41
S'11'
p567
ssg135
(dp568
g5
S'11.0'
p569
sg7
S'--'
p570
sg9
g10
sg11
S'--'
p571
sg13
g14
sg15
g14
sg16
S'2011'
p572
sg18
S'16'
p573
sg20
S'13.4'
p574
sg22
S'12/26'
p575
sg24
g10
sg25
S'Darren Sproles'
p576
sg27
g55
sg29
S'W45-16'
p577
sg31
S'22'
p578
sg33
g58
sg35
S'ATL'
p579
sg37
S'13'
p580
sg39
S'67'
p581
sg41
S'36'
p582
ssg14
(dp583
g5
S'10.7'
p584
sg7
S'--'
p585
sg9
g10
sg11
S'--'
p586
sg13
g14
sg15
g10
sg16
S'2011'
p587
sg18
g14
sg20
S'3.5'
p588
sg22
S'09/08'
p589
sg24
g10
sg25
S'Darren Sproles'
p590
sg27
g58
sg29
S'L34-42'
p591
sg31
S'75'
p592
sg33
g42
sg35
S'@GB'
p593
sg37
S'36'
p594
sg39
g42
sg41
g42
ssg34
(dp595
g5
S'8.3'
p596
sg7
S'--'
p597
sg9
g14
sg11
S'--'
p598
sg13
g14
sg15
g10
sg16
S'2011'
p599
sg18
g34
sg20
S'17.5'
p600
sg22
S'09/25'
p601
sg24
g14
sg25
S'Darren Sproles'
p602
sg27
g58
sg29
S'W40-33'
p603
sg31
S'50'
p604
sg33
g28
sg35
S'HOU'
p605
sg37
S'15'
p606
sg39
S'35'
p607
sg41
S'30T'
p608
ssg58
(dp609
g5
S'5.4'
p610
sg7
S'--'
p611
sg9
g10
sg11
S'--'
p612
sg13
g14
sg15
g14
sg16
S'2011'
p613
sg18
g58
sg20
S'4.3'
p614
sg22
S'09/18'
p615
sg24
g10
sg25
S'Darren Sproles'
p616
sg27
g72
sg29
S'W30-13'
p617
sg31
S'43'
p618
sg33
g147
sg35
S'CHI'
p619
sg37
S'12T'
p620
sg39
S'17'
p621
sg41
g42
ssg55
(dp622
g5
S'8.0'
p623
sg7
S'--'
p624
sg9
g10
sg11
S'--'
p625
sg13
g14
sg15
g10
sg16
S'2011'
p626
sg18
g55
sg20
S'4.6'
p627
sg22
S'10/09'
p628
sg24
g10
sg25
S'Darren Sproles'
p629
sg27
S'11'
p630
sg29
S'W30-27'
p631
sg31
S'40'
p632
sg33
g55
sg35
S'@CAR'
p633
sg37
S'12'
p634
sg39
S'51'
p635
sg41
S'23'
p636
ssg72
(dp637
g5
S'11.2'
p638
sg7
S'--'
p639
sg9
g14
sg11
S'--'
p640
sg13
g14
sg15
g10
sg16
S'2011'
p641
sg18
g72
sg20
S'10.7'
p642
sg22
S'10/02'
p643
sg24
g10
sg25
S'Darren Sproles'
p644
sg27
g42
sg29
S'W23-10'
p645
sg31
S'56'
p646
sg33
g55
sg35
S'@JAC'
p647
sg37
S'14'
p648
sg39
S'75'
p649
sg41
S'34'
p650
ssg42
(dp651
g5
S'3.2'
p652
sg7
S'--'
p653
sg9
g14
sg11
S'--'
p654
sg13
g14
sg15
g14
sg16
S'2011'
p655
sg18
g42
sg20
S'7.3'
p656
sg22
S'10/23'
p657
sg24
g14
sg25
S'Darren Sproles'
p658
sg27
S'12'
p659
sg29
S'W62-7'
p660
sg31
S'19'
p661
sg33
g28
sg35
S'IND'
p662
sg37
g104
sg39
S'88'
p663
sg41
S'16T'
p664
ssg28
(dp665
g5
S'5.8'
p666
sg7
S'--'
p667
sg9
g10
sg11
S'--'
p668
sg13
g14
sg15
g10
sg16
S'2011'
p669
sg18
g28
sg20
S'16.0'
p670
sg22
S'10/16'
p671
sg24
g10
sg25
S'Darren Sproles'
p672
sg27
g14
sg29
S'L20-26'
p673
sg31
S'46'
p674
sg33
g147
sg35
S'@TB'
p675
sg37
g104
sg39
S'16'
p676
sg41
S'16'
p677
ssg104
(dp678
g5
S'11.4'
p679
sg7
S'--'
p680
sg9
g10
sg11
S'--'
p681
sg13
g14
sg15
g14
sg16
S'2011'
p682
sg18
g104
sg20
S'10.5'
p683
sg22
S'11/06'
p684
sg24
g10
sg25
S'Darren Sproles'
p685
sg27
g72
sg29
S'W27-16'
p686
sg31
S'57'
p687
sg33
g55
sg35
S'TB'
p688
sg37
S'21T'
p689
sg39
S'42'
p690
sg41
S'35'
p691
ssg147
(dp692
g5
S'10.0'
p693
sg7
S'--'
p694
sg9
g10
sg11
S'--'
p695
sg13
g14
sg15
g10
sg16
S'2011'
p696
sg18
g147
sg20
S'2.7'
p697
sg22
S'10/30'
p698
sg24
g10
sg25
S'Darren Sproles'
p699
sg27
g28
sg29
S'L21-31'
p700
sg31
S'60'
p701
sg33
g28
sg35
S'@STL'
p702
sg37
S'21'
p703
sg39
S'16'
p704
sg41
g28
sssS'2010'
p705
(dp706
g3
(dp707
g5
S'12.0'
p708
sg7
S'--'
p709
sg9
g14
sg11
S'--'
p710
sg13
g14
sg15
g14
sg16
S'2010'
p711
sg18
S'11'
p712
sg20
S'2.8'
p713
sg22
S'11/22'
p714
sg24
g10
sg25
S'Darren Sproles'
p715
sg27
g55
sg29
S'W35-14'
p716
sg31
S'60'
p717
sg33
g55
sg35
S'DEN'
p718
sg37
S'57T'
p719
sg39
S'14'
p720
sg41
g28
ssg43
(dp721
g5
g248
sg7
g248
sg9
g248
sg11
g248
sg13
g248
sg15
g248
sg16
S'2010'
p722
sg18
S'10'
p723
sg20
g248
sg22
S'Bye'
p724
sg24
g248
sg25
S'Darren Sproles'
p725
sg27
g248
sg29
g248
sg31
g248
sg33
g248
sg35
g248
sg37
g248
sg39
g248
sg41
g248
ssg59
(dp726
g5
S'7.0'
p727
sg7
g14
sg9
g10
sg11
g14
sg13
g14
sg15
g10
sg16
S'2010'
p728
sg18
S'13'
p729
sg20
S'--'
p730
sg22
S'12/05'
p731
sg24
S'--'
p732
sg25
S'Darren Sproles'
p733
sg27
S'--'
p734
sg29
S'L13-28'
p735
sg31
g42
sg33
g14
sg35
S'OAK'
p736
sg37
g42
sg39
S'--'
p737
sg41
S'--'
p738
ssg77
(dp739
g5
S'6.0'
p740
sg7
S'--'
p741
sg9
g14
sg11
S'--'
p742
sg13
g14
sg15
g10
sg16
S'2010'
p743
sg18
S'12'
p744
sg20
S'4.3'
p745
sg22
S'11/28'
p746
sg24
g10
sg25
S'Darren Sproles'
p747
sg27
g72
sg29
S'W36-14'
p748
sg31
S'24'
p749
sg33
g72
sg35
S'@IND'
p750
sg37
g147
sg39
S'17'
p751
sg41
S'11'
p752
ssg91
(dp753
g5
S'6.0'
p754
sg7
S'--'
p755
sg9
g10
sg11
S'--'
p756
sg13
g14
sg15
g10
sg16
S'2010'
p757
sg18
S'15'
p758
sg20
S'0.5'
p759
sg22
S'12/16'
p760
sg24
g10
sg25
S'Darren Sproles'
p761
sg27
g58
sg29
S'W34-7'
p762
sg31
S'30'
p763
sg33
g55
sg35
S'SF'
p764
sg37
S'11'
p765
sg39
g14
sg41
g14
ssg105
(dp766
g5
S'10.2'
p767
sg7
S'--'
p768
sg9
g10
sg11
S'--'
p769
sg13
g14
sg15
g10
sg16
S'2010'
p770
sg18
S'14'
p771
sg20
S'8.8'
p772
sg22
S'12/12'
p773
sg24
g10
sg25
S'Darren Sproles'
p774
sg27
g28
sg29
S'W31-0'
p775
sg31
S'51'
p776
sg33
g55
sg35
S'KC'
p777
sg37
S'15'
p778
sg39
S'53'
p779
sg41
S'19'
p780
ssg119
(dp781
g5
S'13.0'
p782
sg7
S'--'
p783
sg9
g10
sg11
S'--'
p784
sg13
g14
sg15
g10
sg16
S'2010'
p785
sg18
S'17'
p786
sg20
S'10.8'
p787
sg22
S'01/02'
p788
sg24
g10
sg25
S'Darren Sproles'
p789
sg27
g72
sg29
S'W33-28'
p790
sg31
S'26'
p791
sg33
g58
sg35
S'@DEN'
p792
sg37
S'15'
p793
sg39
S'43'
p794
sg41
S'27'
p795
ssg135
(dp796
g5
S'6.9'
p797
sg7
S'--'
p798
sg9
g10
sg11
S'--'
p799
sg13
g14
sg15
g10
sg16
S'2010'
p800
sg18
S'16'
p801
sg20
S'2.7'
p802
sg22
S'12/26'
p803
sg24
g10
sg25
S'Darren Sproles'
p804
sg27
g34
sg29
S'L20-34'
p805
sg31
S'55'
p806
sg33
g147
sg35
S'@CIN'
p807
sg37
S'13'
p808
sg39
g147
sg41
g28
ssg14
(dp809
g5
S'1.0'
p810
sg7
S'--'
p811
sg9
g10
sg11
S'--'
p812
sg13
g14
sg15
g10
sg16
S'2010'
p813
sg18
g14
sg20
S'0.0'
p814
sg22
S'09/13'
p815
sg24
g10
sg25
S'Darren Sproles'
p816
sg27
g72
sg29
S'L14-21'
p817
sg31
g58
sg33
g58
sg35
S'@KC'
p818
sg37
g72
sg39
g10
sg41
g58
ssg34
(dp819
g5
S'10.0'
p820
sg7
g14
sg9
g14
sg11
g14
sg13
g14
sg15
g10
sg16
S'2010'
p821
sg18
g34
sg20
S'16.0'
p822
sg22
S'09/26'
p823
sg24
g10
sg25
S'Darren Sproles'
p824
sg27
g14
sg29
S'L20-27'
p825
sg31
S'10'
p826
sg33
g14
sg35
S'@SEA'
p827
sg37
S'10'
p828
sg39
S'16'
p829
sg41
S'16'
p830
ssg58
(dp831
g5
S'15.8'
p832
sg7
S'--'
p833
sg9
g10
sg11
S'--'
p834
sg13
g14
sg15
g10
sg16
S'2010'
p835
sg18
g58
sg20
S'7.4'
p836
sg22
S'09/19'
p837
sg24
g10
sg25
S'Darren Sproles'
p838
sg27
g55
sg29
S'W38-13'
p839
sg31
S'63'
p840
sg33
g72
sg35
S'JAC'
p841
sg37
S'43'
p842
sg39
S'37'
p843
sg41
S'34'
p844
ssg55
(dp845
g5
S'10.7'
p846
sg7
S'--'
p847
sg9
g10
sg11
S'--'
p848
sg13
g14
sg15
g10
sg16
S'2010'
p849
sg18
g55
sg20
S'0.5'
p850
sg22
S'10/10'
p851
sg24
g10
sg25
S'Darren Sproles'
p852
sg27
g58
sg29
S'L27-35'
p853
sg31
S'32'
p854
sg33
g34
sg35
S'@OAK'
p855
sg37
S'23'
p856
sg39
g14
sg41
g58
ssg72
(dp857
g5
S'--'
p858
sg7
g14
sg9
g10
sg11
g14
sg13
g14
sg15
S'--'
p859
sg16
S'2010'
p860
sg18
g72
sg20
S'2.8'
p861
sg22
S'10/03'
p862
sg24
g10
sg25
S'Darren Sproles'
p863
sg27
g28
sg29
S'W41-10'
p864
sg31
S'--'
p865
sg33
S'--'
p866
sg35
S'ARI'
p867
sg37
S'--'
p868
sg39
S'17'
p869
sg41
g147
ssg42
(dp870
g5
S'7.8'
p871
sg7
S'--'
p872
sg9
g10
sg11
S'--'
p873
sg13
g14
sg15
g10
sg16
S'2010'
p874
sg18
g42
sg20
S'3.5'
p875
sg22
S'10/24'
p876
sg24
g10
sg25
S'Darren Sproles'
p877
sg27
g58
sg29
S'L20-23'
p878
sg31
S'70'
p879
sg33
g104
sg35
S'NE'
p880
sg37
S'14'
p881
sg39
g42
sg41
g28
ssg28
(dp882
g5
S'9.6'
p883
sg7
S'--'
p884
sg9
g10
sg11
S'--'
p885
sg13
g14
sg15
g10
sg16
S'2010'
p886
sg18
g28
sg20
S'9.0'
p887
sg22
S'10/17'
p888
sg24
g10
sg25
S'Darren Sproles'
p889
sg27
g14
sg29
S'L17-20'
p890
sg31
S'48'
p891
sg33
g55
sg35
S'@STL'
p892
sg37
S'11'
p893
sg39
g104
sg41
g104
ssg104
(dp894
g5
S'6.0'
p895
sg7
S'--'
p896
sg9
g10
sg11
S'--'
p897
sg13
g14
sg15
g10
sg16
S'2010'
p898
sg18
g104
sg20
S'3.0'
p899
sg22
S'11/07'
p900
sg24
g10
sg25
S'Darren Sproles'
p901
sg27
g14
sg29
S'W29-23'
p902
sg31
g28
sg33
g14
sg35
S'@HOU'
p903
sg37
g28
sg39
g34
sg41
g34
ssg147
(dp904
g5
S'9.0'
p905
sg7
S'--'
p906
sg9
g10
sg11
S'--'
p907
sg13
g14
sg15
g14
sg16
S'2010'
p908
sg18
g147
sg20
S'10.3'
p909
sg22
S'10/31'
p910
sg24
g10
sg25
S'Darren Sproles'
p911
sg27
g72
sg29
S'W33-25'
p912
sg31
S'36'
p913
sg33
g72
sg35
S'TEN'
p914
sg37
S'17'
p915
sg39
S'41'
p916
sg41
S'32'
p917
sssS'2013'
p918
(dp919
g3
(dp920
g5
S'4.8'
p921
sg7
S'--'
p922
sg9
g10
sg11
S'--'
p923
sg13
g14
sg15
g10
sg16
S'2013'
p924
sg18
S'11'
p925
sg20
S'5.3'
p926
sg22
S'11/17'
p927
sg24
g10
sg25
S'Darren Sproles'
p928
sg27
g34
sg29
S'W23-20'
p929
sg31
S'19'
p930
sg33
g72
sg35
S'SF'
p931
sg37
g147
sg39
S'16'
p932
sg41
g42
ssg43
(dp933
g5
S'10.9'
p934
sg7
g14
sg9
g10
sg11
g14
sg13
g14
sg15
g14
sg16
S'2013'
p935
sg18
S'10'
p936
sg20
S'2.4'
p937
sg22
S'11/10'
p938
sg24
g14
sg25
S'Darren Sproles'
p939
sg27
g55
sg29
S'W49-17'
p940
sg31
S'76'
p941
sg33
g42
sg35
S'DAL'
p942
sg37
S'28T'
p943
sg39
S'12'
p944
sg41
g55
ssg59
(dp945
g5
S'4.6'
p946
sg7
S'--'
p947
sg9
g10
sg11
S'--'
p948
sg13
g14
sg15
g10
sg16
S'2013'
p949
sg18
S'13'
p950
sg20
S'3.7'
p951
sg22
S'12/02'
p952
sg24
g10
sg25
S'Darren Sproles'
p953
sg27
g34
sg29
S'L7-34'
p954
sg31
S'32'
p955
sg33
g42
sg35
S'@SEA'
p956
sg37
S'10'
p957
sg39
S'11'
p958
sg41
g42
ssg77
(dp959
g5
S'--'
p960
sg7
S'--'
p961
sg9
g10
sg11
S'--'
p962
sg13
g10
sg15
S'--'
p963
sg16
S'2013'
p964
sg18
S'12'
p965
sg20
S'--'
p966
sg22
S'11/21'
p967
sg24
S'--'
p968
sg25
S'Darren Sproles'
p969
sg27
S'--'
p970
sg29
S'W17-13'
p971
sg31
S'--'
p972
sg33
S'--'
p973
sg35
S'@ATL'
p974
sg37
S'--'
p975
sg39
S'--'
p976
sg41
S'--'
p977
ssg91
(dp978
g5
S'4.8'
p979
sg7
S'--'
p980
sg9
g10
sg11
S'--'
p981
sg13
g14
sg15
g10
sg16
S'2013'
p982
sg18
S'15'
p983
sg20
S'3.4'
p984
sg22
S'12/15'
p985
sg24
g10
sg25
S'Darren Sproles'
p986
sg27
g42
sg29
S'L16-27'
p987
sg31
S'38'
p988
sg33
g147
sg35
S'@STL'
p989
sg37
S'13'
p990
sg39
S'24'
p991
sg41
S'11'
p992
ssg105
(dp993
g5
S'7.7'
p994
sg7
S'--'
p995
sg9
g10
sg11
S'--'
p996
sg13
g14
sg15
g10
sg16
S'2013'
p997
sg18
S'14'
p998
sg20
S'38.0'
p999
sg22
S'12/08'
p1000
sg24
g10
sg25
S'Darren Sproles'
p1001
sg27
g14
sg29
S'W31-13'
p1002
sg31
S'23'
p1003
sg33
g34
sg35
S'CAR'
p1004
sg37
S'20'
p1005
sg39
S'38'
p1006
sg41
S'38'
p1007
ssg119
(dp1008
g5
S'15.0'
p1009
sg7
S'--'
p1010
sg9
g10
sg11
S'--'
p1011
sg13
g14
sg15
g10
sg16
S'2013'
p1012
sg18
S'17'
p1013
sg20
S'-0.3'
p1014
sg22
S'12/29'
p1015
sg24
g10
sg25
S'Darren Sproles'
p1016
sg27
g34
sg29
S'W42-17'
p1017
sg31
S'30'
p1018
sg33
g58
sg35
S'TB'
p1019
sg37
S'24'
p1020
sg39
S'-1'
p1021
sg41
g55
ssg135
(dp1022
g5
S'6.0'
p1023
sg7
S'--'
p1024
sg9
g10
sg11
S'--'
p1025
sg13
g14
sg15
g10
sg16
S'2013'
p1026
sg18
S'16'
p1027
sg20
S'2.0'
p1028
sg22
S'12/22'
p1029
sg24
g10
sg25
S'Darren Sproles'
p1030
sg27
g14
sg29
S'L13-17'
p1031
sg31
S'18'
p1032
sg33
g34
sg35
S'@CAR'
p1033
sg37
g147
sg39
g58
sg41
g58
ssg14
(dp1034
g5
S'14.7'
p1035
sg7
S'--'
p1036
sg9
g10
sg11
S'--'
p1037
sg13
g14
sg15
g10
sg16
S'2013'
p1038
sg18
g14
sg20
S'2.8'
p1039
sg22
S'09/08'
p1040
sg24
g10
sg25
S'Darren Sproles'
p1041
sg27
g147
sg29
S'W23-17'
p1042
sg31
S'88'
p1043
sg33
g28
sg35
S'ATL'
p1044
sg37
S'32'
p1045
sg39
S'22'
p1046
sg41
g55
ssg34
(dp1047
g5
S'9.8'
p1048
sg7
S'--'
p1049
sg9
g14
sg11
S'--'
p1050
sg13
g14
sg15
g10
sg16
S'2013'
p1051
sg18
g34
sg20
S'5.7'
p1052
sg22
S'09/22'
p1053
sg24
g10
sg25
S'Darren Sproles'
p1054
sg27
g34
sg29
S'W31-7'
p1055
sg31
S'39'
p1056
sg33
g72
sg35
S'ARI'
p1057
sg37
S'13'
p1058
sg39
S'17'
p1059
sg41
S'15'
p1060
ssg58
(dp1061
g5
S'6.0'
p1062
sg7
S'--'
p1063
sg9
g14
sg11
S'--'
p1064
sg13
g14
sg15
g10
sg16
S'2013'
p1065
sg18
g58
sg20
S'3.7'
p1066
sg22
S'09/15'
p1067
sg24
g10
sg25
S'Darren Sproles'
p1068
sg27
g42
sg29
S'W16-14'
p1069
sg31
S'36'
p1070
sg33
g28
sg35
S'@TB'
p1071
sg37
g147
sg39
S'26'
p1072
sg41
g28
ssg55
(dp1073
g5
S'10.3'
p1074
sg7
S'--'
p1075
sg9
g10
sg11
S'--'
p1076
sg13
g14
sg15
g10
sg16
S'2013'
p1077
sg18
g55
sg20
S'3.3'
p1078
sg22
S'10/06'
p1079
sg24
g10
sg25
S'Darren Sproles'
p1080
sg27
g34
sg29
S'W26-18'
p1081
sg31
S'31'
p1082
sg33
g34
sg35
S'@CHI'
p1083
sg37
S'19'
p1084
sg39
S'10'
p1085
sg41
g55
ssg72
(dp1086
g5
S'16.3'
p1087
sg7
g14
sg9
g10
sg11
g14
sg13
g14
sg15
g14
sg16
S'2013'
p1088
sg18
g72
sg20
S'7.0'
p1089
sg22
S'09/30'
p1090
sg24
g14
sg25
S'Darren Sproles'
p1091
sg27
g72
sg29
S'W38-17'
p1092
sg31
S'114'
p1093
sg33
g42
sg35
S'MIA'
p1094
sg37
S'48'
p1095
sg39
S'28'
p1096
sg41
S'18'
p1097
ssg42
(dp1098
g5
g248
sg7
g248
sg9
g248
sg11
g248
sg13
g248
sg15
g248
sg16
S'2013'
p1099
sg18
g42
sg20
g248
sg22
S'Bye'
p1100
sg24
g248
sg25
S'Darren Sproles'
p1101
sg27
g248
sg29
g248
sg31
g248
sg33
g248
sg35
g248
sg37
g248
sg39
g248
sg41
g248
ssg28
(dp1102
g5
S'9.7'
p1103
sg7
S'--'
p1104
sg9
g14
sg11
S'--'
p1105
sg13
g14
sg15
g10
sg16
S'2013'
p1106
sg18
g28
sg20
S'3.0'
p1107
sg22
S'10/13'
p1108
sg24
g10
sg25
S'Darren Sproles'
p1109
sg27
g55
sg29
S'L27-30'
p1110
sg31
S'58'
p1111
sg33
g28
sg35
S'@NE'
p1112
sg37
S'19'
p1113
sg39
S'15'
p1114
sg41
g28
ssg104
(dp1115
g5
S'2.0'
p1116
sg7
S'--'
p1117
sg9
g14
sg11
S'--'
p1118
sg13
g14
sg15
g10
sg16
S'2013'
p1119
sg18
g104
sg20
S'--'
p1120
sg22
S'11/03'
p1121
sg24
S'--'
p1122
sg25
S'Darren Sproles'
p1123
sg27
S'--'
p1124
sg29
S'L20-26'
p1125
sg31
g58
sg33
g14
sg35
S'@NYJ'
p1126
sg37
g58
sg39
S'--'
p1127
sg41
S'--'
p1128
ssg147
(dp1129
g5
S'0.0'
p1130
sg7
S'--'
p1131
sg9
g10
sg11
S'--'
p1132
sg13
g14
sg15
g10
sg16
S'2013'
p1133
sg18
g147
sg20
S'--'
p1134
sg22
S'10/27'
p1135
sg24
S'--'
p1136
sg25
S'Darren Sproles'
p1137
sg27
S'--'
p1138
sg29
S'W35-17'
p1139
sg31
g10
sg33
g72
sg35
S'BUF'
p1140
sg37
g42
sg39
S'--'
p1141
sg41
S'--'
p1142
sssS'2012'
p1143
(dp1144
g3
(dp1145
g5
S'--'
p1146
sg7
S'--'
p1147
sg9
g10
sg11
S'--'
p1148
sg13
g10
sg15
S'--'
p1149
sg16
S'2012'
p1150
sg18
S'11'
p1151
sg20
S'--'
p1152
sg22
S'11/18'
p1153
sg24
S'--'
p1154
sg25
S'Darren Sproles'
p1155
sg27
S'--'
p1156
sg29
S'W38-17'
p1157
sg31
S'--'
p1158
sg33
S'--'
p1159
sg35
S'@OAK'
p1160
sg37
S'--'
p1161
sg39
S'--'
p1162
sg41
S'--'
p1163
ssg43
(dp1164
g5
S'--'
p1165
sg7
S'--'
p1166
sg9
g10
sg11
S'--'
p1167
sg13
g10
sg15
S'--'
p1168
sg16
S'2012'
p1169
sg18
S'10'
p1170
sg20
S'--'
p1171
sg22
S'11/11'
p1172
sg24
S'--'
p1173
sg25
S'Darren Sproles'
p1174
sg27
S'--'
p1175
sg29
S'W31-27'
p1176
sg31
S'--'
p1177
sg33
S'--'
p1178
sg35
S'ATL'
p1179
sg37
S'--'
p1180
sg39
S'--'
p1181
sg41
S'--'
p1182
ssg59
(dp1183
g5
S'9.4'
p1184
sg7
S'--'
p1185
sg9
g10
sg11
S'--'
p1186
sg13
g14
sg15
g10
sg16
S'2012'
p1187
sg18
S'13'
p1188
sg20
S'--'
p1189
sg22
S'11/29'
p1190
sg24
S'--'
p1191
sg25
S'Darren Sproles'
p1192
sg27
S'--'
p1193
sg29
S'L13-23'
p1194
sg31
S'47'
p1195
sg33
g55
sg35
S'@ATL'
p1196
sg37
S'14'
p1197
sg39
S'--'
p1198
sg41
S'--'
p1199
ssg77
(dp1200
g5
S'9.3'
p1201
sg7
S'--'
p1202
sg9
g10
sg11
S'--'
p1203
sg13
g14
sg15
g10
sg16
S'2012'
p1204
sg18
S'12'
p1205
sg20
S'--'
p1206
sg22
S'11/25'
p1207
sg24
S'--'
p1208
sg25
S'Darren Sproles'
p1209
sg27
S'--'
p1210
sg29
S'L21-31'
p1211
sg31
S'65'
p1212
sg33
g42
sg35
S'SF'
p1213
sg37
S'35'
p1214
sg39
S'--'
p1215
sg41
S'--'
p1216
ssg91
(dp1217
g5
S'4.2'
p1218
sg7
S'--'
p1219
sg9
g10
sg11
S'--'
p1220
sg13
g14
sg15
g14
sg16
S'2012'
p1221
sg18
S'15'
p1222
sg20
S'4.4'
p1223
sg22
S'12/16'
p1224
sg24
g10
sg25
S'Darren Sproles'
p1225
sg27
g55
sg29
S'W41-0'
p1226
sg31
S'21'
p1227
sg33
g55
sg35
S'TB'
p1228
sg37
g42
sg39
S'22'
p1229
sg41
S'15'
p1230
ssg105
(dp1231
g5
S'7.0'
p1232
sg7
S'--'
p1233
sg9
g10
sg11
S'--'
p1234
sg13
g14
sg15
g14
sg16
S'2012'
p1235
sg18
S'14'
p1236
sg20
S'11.2'
p1237
sg22
S'12/09'
p1238
sg24
g14
sg25
S'Darren Sproles'
p1239
sg27
g55
sg29
S'L27-52'
p1240
sg31
S'28'
p1241
sg33
g72
sg35
S'@NYG'
p1242
sg37
S'10'
p1243
sg39
S'56'
p1244
sg41
S'34'
p1245
ssg119
(dp1246
g5
S'9.9'
p1247
sg7
S'--'
p1248
sg9
g10
sg11
S'--'
p1249
sg13
g14
sg15
g14
sg16
S'2012'
p1250
sg18
S'17'
p1251
sg20
S'0.3'
p1252
sg22
S'12/30'
p1253
sg24
g10
sg25
S'Darren Sproles'
p1254
sg27
g34
sg29
S'L38-44'
p1255
sg31
S'79'
p1256
sg33
g147
sg35
S'CAR'
p1257
sg37
S'33T'
p1258
sg39
g14
sg41
g55
ssg135
(dp1259
g5
S'14.9'
p1260
sg7
S'--'
p1261
sg9
g14
sg11
S'--'
p1262
sg13
g14
sg15
g10
sg16
S'2012'
p1263
sg18
S'16'
p1264
sg20
S'5.3'
p1265
sg22
S'12/23'
p1266
sg24
g10
sg25
S'Darren Sproles'
p1267
sg27
g104
sg29
S'W34-31'
p1268
sg31
S'104'
p1269
sg33
g42
sg35
S'@DAL'
p1270
sg37
S'44'
p1271
sg39
S'48'
p1272
sg41
S'17'
p1273
ssg14
(dp1274
g5
S'7.0'
p1275
sg7
S'--'
p1276
sg9
g14
sg11
S'--'
p1277
sg13
g14
sg15
g14
sg16
S'2012'
p1278
sg18
g14
sg20
S'--'
p1279
sg22
S'09/09'
p1280
sg24
S'--'
p1281
sg25
S'Darren Sproles'
p1282
sg27
S'--'
p1283
sg29
S'L32-40'
p1284
sg31
S'35'
p1285
sg33
g55
sg35
S'WAS'
p1286
sg37
S'17'
p1287
sg39
S'--'
p1288
sg41
S'--'
p1289
ssg34
(dp1290
g5
S'--'
p1291
sg7
S'--'
p1292
sg9
g10
sg11
S'--'
p1293
sg13
g14
sg15
g10
sg16
S'2012'
p1294
sg18
g34
sg20
S'8.9'
p1295
sg22
S'09/23'
p1296
sg24
g10
sg25
S'Darren Sproles'
p1297
sg27
g42
sg29
S'L24-27'
p1298
sg31
g10
sg33
g10
sg35
S'KC'
p1299
sg37
S'--'
p1300
sg39
S'62'
p1301
sg41
S'47'
p1302
ssg58
(dp1303
g5
S'9.8'
p1304
sg7
S'--'
p1305
sg9
g10
sg11
S'--'
p1306
sg13
g14
sg15
g10
sg16
S'2012'
p1307
sg18
g58
sg20
S'--'
p1308
sg22
S'09/16'
p1309
sg24
S'--'
p1310
sg25
S'Darren Sproles'
p1311
sg27
S'--'
p1312
sg29
S'L27-35'
p1313
sg31
S'128'
p1314
sg33
S'13'
p1315
sg35
S'@CAR'
p1316
sg37
S'25'
p1317
sg39
S'--'
p1318
sg41
S'--'
p1319
ssg55
(dp1320
g5
S'5.6'
p1321
sg7
S'--'
p1322
sg9
g14
sg11
S'--'
p1323
sg13
g14
sg15
g10
sg16
S'2012'
p1324
sg18
g55
sg20
S'1.8'
p1325
sg22
S'10/07'
p1326
sg24
g10
sg25
S'Darren Sproles'
p1327
sg27
g55
sg29
S'W31-24'
p1328
sg31
S'28'
p1329
sg33
g55
sg35
S'SD'
p1330
sg37
S'14'
p1331
sg39
g104
sg41
g55
ssg72
(dp1332
g5
S'8.8'
p1333
sg7
S'--'
p1334
sg9
g14
sg11
S'--'
p1335
sg13
g14
sg15
g14
sg16
S'2012'
p1336
sg18
g72
sg20
S'4.0'
p1337
sg22
S'09/30'
p1338
sg24
g10
sg25
S'Darren Sproles'
p1339
sg27
g55
sg29
S'L27-28'
p1340
sg31
S'44'
p1341
sg33
g55
sg35
S'@GB'
p1342
sg37
S'20'
p1343
sg39
S'20'
p1344
sg41
g104
ssg42
(dp1345
g5
S'8.0'
p1346
sg7
S'--'
p1347
sg9
g14
sg11
S'--'
p1348
sg13
g14
sg15
g14
sg16
S'2012'
p1349
sg18
g42
sg20
S'5.4'
p1350
sg22
S'10/21'
p1351
sg24
g10
sg25
S'Darren Sproles'
p1352
sg27
g55
sg29
S'W35-28'
p1353
sg31
S'32'
p1354
sg33
g72
sg35
S'@TB'
p1355
sg37
S'9T'
p1356
sg39
S'27'
p1357
sg41
S'12'
p1358
ssg28
(dp1359
g5
g248
sg7
g248
sg9
g248
sg11
g248
sg13
g248
sg15
g248
sg16
S'2012'
p1360
sg18
g28
sg20
g248
sg22
S'Bye'
p1361
sg24
g248
sg25
S'Darren Sproles'
p1362
sg27
g248
sg29
g248
sg31
g248
sg33
g248
sg35
g248
sg37
g248
sg39
g248
sg41
g248
ssg104
(dp1363
g5
S'--'
p1364
sg7
S'--'
p1365
sg9
g10
sg11
S'--'
p1366
sg13
g10
sg15
S'--'
p1367
sg16
S'2012'
p1368
sg18
g104
sg20
S'--'
p1369
sg22
S'11/05'
p1370
sg24
S'--'
p1371
sg25
S'Darren Sproles'
p1372
sg27
S'--'
p1373
sg29
S'W28-13'
p1374
sg31
S'--'
p1375
sg33
S'--'
p1376
sg35
S'PHI'
p1377
sg37
S'--'
p1378
sg39
S'--'
p1379
sg41
S'--'
p1380
ssg147
(dp1381
g5
S'8.0'
p1382
sg7
S'--'
p1383
sg9
g14
sg11
S'--'
p1384
sg13
g14
sg15
g14
sg16
S'2012'
p1385
sg18
g147
sg20
S'-0.3'
p1386
sg22
S'10/28'
p1387
sg24
g10
sg25
S'Darren Sproles'
p1388
sg27
g72
sg29
S'L14-34'
p1389
sg31
S'56'
p1390
sg33
g42
sg35
S'@DEN'
p1391
sg37
S'29T'
p1392
sg39
S'-1'
p1393
sg41
g55
sss.