(dp0
S'2015'
p1
(dp2
S'15'
p3
(dp4
S'RecAvg'
p5
S'--'
p6
sS'FUM'
p7
S'--'
p8
sS'GS'
p9
S'0'
p10
sS'Lost'
p11
S'--'
p12
sS'G'
p13
g10
sS'RecTD'
p14
S'--'
p15
sS'Year'
p16
S'2015'
p17
sS'WK'
p18
S'15'
p19
sS'RushAvg'
p20
S'--'
p21
sS'Game Date'
p22
S'12/20'
p23
sS'RushTD'
p24
S'--'
p25
sS'Player'
p26
S'Daryl Richardson'
p27
sS'RushAtt'
p28
S'--'
p29
sS'Result'
p30
S'L13-30'
p31
sS'RecYds'
p32
S'--'
p33
sS'Rec'
p34
S'--'
p35
sS'Opp'
p36
S'@SEA'
p37
sS'RecLng'
p38
S'--'
p39
sS'RushYds'
p40
S'--'
p41
sS'RushLng'
p42
S'--'
p43
ssS'16'
p44
(dp45
g5
S'--'
p46
sg7
S'--'
p47
sg9
g10
sg11
S'--'
p48
sg13
g10
sg14
S'--'
p49
sg16
S'2015'
p50
sg18
S'16'
p51
sg20
S'--'
p52
sg22
S'12/27'
p53
sg24
S'--'
p54
sg26
S'Daryl Richardson'
p55
sg28
S'--'
p56
sg30
S'L13-17'
p57
sg32
S'--'
p58
sg34
S'--'
p59
sg36
S'@KC'
p60
sg38
S'--'
p61
sg40
S'--'
p62
sg42
S'--'
p63
sssS'2013'
p64
(dp65
S'11'
p66
(dp67
g5
S''
p68
sg7
g68
sg9
g68
sg11
g68
sg13
g68
sg14
g68
sg16
S'2013'
p69
sg18
S'11'
p70
sg20
g68
sg22
S'Bye'
p71
sg24
g68
sg26
S'Daryl Richardson'
p72
sg28
g68
sg30
g68
sg32
g68
sg34
g68
sg36
g68
sg38
g68
sg40
g68
sg42
g68
ssS'10'
p73
(dp74
g5
S'--'
p75
sg7
S'--'
p76
sg9
g10
sg11
S'--'
p77
sg13
g10
sg14
S'--'
p78
sg16
S'2013'
p79
sg18
S'10'
p80
sg20
S'--'
p81
sg22
S'11/10'
p82
sg24
S'--'
p83
sg26
S'Daryl Richardson'
p84
sg28
S'--'
p85
sg30
S'W38-8'
p86
sg32
S'--'
p87
sg34
S'--'
p88
sg36
S'@IND'
p89
sg38
S'--'
p90
sg40
S'--'
p91
sg42
S'--'
p92
ssS'13'
p93
(dp94
g5
S'--'
p95
sg7
S'--'
p96
sg9
g10
sg11
S'--'
p97
sg13
g10
sg14
S'--'
p98
sg16
S'2013'
p99
sg18
S'13'
p100
sg20
S'--'
p101
sg22
S'12/01'
p102
sg24
S'--'
p103
sg26
S'Daryl Richardson'
p104
sg28
S'--'
p105
sg30
S'L13-23'
p106
sg32
S'--'
p107
sg34
S'--'
p108
sg36
S'@SF'
p109
sg38
S'--'
p110
sg40
S'--'
p111
sg42
S'--'
p112
ssS'12'
p113
(dp114
g5
S'--'
p115
sg7
S'--'
p116
sg9
g10
sg11
S'--'
p117
sg13
g10
sg14
S'--'
p118
sg16
S'2013'
p119
sg18
S'12'
p120
sg20
S'--'
p121
sg22
S'11/24'
p122
sg24
S'--'
p123
sg26
S'Daryl Richardson'
p124
sg28
S'--'
p125
sg30
S'W42-21'
p126
sg32
S'--'
p127
sg34
S'--'
p128
sg36
S'CHI'
p129
sg38
S'--'
p130
sg40
S'--'
p131
sg42
S'--'
p132
ssg3
(dp133
g5
S'--'
p134
sg7
S'--'
p135
sg9
g10
sg11
S'--'
p136
sg13
g10
sg14
S'--'
p137
sg16
S'2013'
p138
sg18
S'15'
p139
sg20
S'--'
p140
sg22
S'12/15'
p141
sg24
S'--'
p142
sg26
S'Daryl Richardson'
p143
sg28
S'--'
p144
sg30
S'W27-16'
p145
sg32
S'--'
p146
sg34
S'--'
p147
sg36
S'NO'
p148
sg38
S'--'
p149
sg40
S'--'
p150
sg42
S'--'
p151
ssS'14'
p152
(dp153
g5
S'--'
p154
sg7
S'--'
p155
sg9
g10
sg11
S'--'
p156
sg13
g10
sg14
S'--'
p157
sg16
S'2013'
p158
sg18
S'14'
p159
sg20
S'--'
p160
sg22
S'12/08'
p161
sg24
S'--'
p162
sg26
S'Daryl Richardson'
p163
sg28
S'--'
p164
sg30
S'L10-30'
p165
sg32
S'--'
p166
sg34
S'--'
p167
sg36
S'@ARI'
p168
sg38
S'--'
p169
sg40
S'--'
p170
sg42
S'--'
p171
ssS'17'
p172
(dp173
g5
S'--'
p174
sg7
S'--'
p175
sg9
g10
sg11
S'--'
p176
sg13
g10
sg14
S'--'
p177
sg16
S'2013'
p178
sg18
S'17'
p179
sg20
S'--'
p180
sg22
S'12/29'
p181
sg24
S'--'
p182
sg26
S'Daryl Richardson'
p183
sg28
S'--'
p184
sg30
S'L9-27'
p185
sg32
S'--'
p186
sg34
S'--'
p187
sg36
S'@SEA'
p188
sg38
S'--'
p189
sg40
S'--'
p190
sg42
S'--'
p191
ssg44
(dp192
g5
S'--'
p193
sg7
S'--'
p194
sg9
g10
sg11
S'--'
p195
sg13
g10
sg14
S'--'
p196
sg16
S'2013'
p197
sg18
S'16'
p198
sg20
S'--'
p199
sg22
S'12/22'
p200
sg24
S'--'
p201
sg26
S'Daryl Richardson'
p202
sg28
S'--'
p203
sg30
S'W23-13'
p204
sg32
S'--'
p205
sg34
S'--'
p206
sg36
S'TB'
p207
sg38
S'--'
p208
sg40
S'--'
p209
sg42
S'--'
p210
ssS'1'
p211
(dp212
g5
S'6.6'
p213
sg7
S'--'
p214
sg9
g211
sg11
S'--'
p215
sg13
g211
sg14
g10
sg16
S'2013'
p216
sg18
g211
sg20
S'3.2'
p217
sg22
S'09/08'
p218
sg24
g10
sg26
S'Daryl Richardson'
p219
sg28
S'20'
p220
sg30
S'W27-24'
p221
sg32
S'33'
p222
sg34
S'5'
p223
sg36
S'ARI'
p224
sg38
S'15'
p225
sg40
S'63'
p226
sg42
S'10'
p227
ssS'3'
p228
(dp229
g5
S'--'
p230
sg7
S'--'
p231
sg9
g10
sg11
S'--'
p232
sg13
g211
sg14
S'--'
p233
sg16
S'2013'
p234
sg18
g228
sg20
S'--'
p235
sg22
S'09/22'
p236
sg24
S'--'
p237
sg26
S'Daryl Richardson'
p238
sg28
S'--'
p239
sg30
S'L7-31'
p240
sg32
S'--'
p241
sg34
S'--'
p242
sg36
S'@DAL'
p243
sg38
S'--'
p244
sg40
S'--'
p245
sg42
S'--'
p246
ssS'2'
p247
(dp248
g5
S'9.0'
p249
sg7
S'--'
p250
sg9
g211
sg11
S'--'
p251
sg13
g211
sg14
g10
sg16
S'2013'
p252
sg18
g247
sg20
S'3.5'
p253
sg22
S'09/15'
p254
sg24
g10
sg26
S'Daryl Richardson'
p255
sg28
S'10'
p256
sg30
S'L24-31'
p257
sg32
S'45'
p258
sg34
g223
sg36
S'@ATL'
p259
sg38
S'19'
p260
sg40
S'35'
p261
sg42
S'10'
p262
ssg223
(dp263
g5
S'--'
p264
sg7
S'--'
p265
sg9
g10
sg11
S'--'
p266
sg13
g211
sg14
g10
sg16
S'2013'
p267
sg18
g223
sg20
S'3.7'
p268
sg22
S'10/06'
p269
sg24
g10
sg26
S'Daryl Richardson'
p270
sg28
S'13'
p271
sg30
S'W34-20'
p272
sg32
g10
sg34
g10
sg36
S'JAC'
p273
sg38
S'--'
p274
sg40
S'48'
p275
sg42
S'13'
p276
ssS'4'
p277
(dp278
g5
S'8.0'
p279
sg7
S'--'
p280
sg9
g211
sg11
S'--'
p281
sg13
g211
sg14
g10
sg16
S'2013'
p282
sg18
g277
sg20
S'1.3'
p283
sg22
S'09/26'
p284
sg24
g10
sg26
S'Daryl Richardson'
p285
sg28
S'12'
p286
sg30
S'L11-35'
p287
sg32
S'8'
p288
sg34
g211
sg36
S'SF'
p289
sg38
g288
sg40
S'16'
p290
sg42
g277
ssS'7'
p291
(dp292
g5
S'9.0'
p293
sg7
S'--'
p294
sg9
g10
sg11
S'--'
p295
sg13
g211
sg14
g10
sg16
S'2013'
p296
sg18
g291
sg20
S'3.0'
p297
sg22
S'10/20'
p298
sg24
g10
sg26
S'Daryl Richardson'
p299
sg28
g228
sg30
S'L15-30'
p300
sg32
S'9'
p301
sg34
g211
sg36
S'@CAR'
p302
sg38
g301
sg40
g301
sg42
S'10'
p303
ssS'6'
p304
(dp305
g5
S'18.0'
p306
sg7
S'--'
p307
sg9
g10
sg11
S'--'
p308
sg13
g211
sg14
g10
sg16
S'2013'
p309
sg18
g304
sg20
S'1.7'
p310
sg22
S'10/13'
p311
sg24
g10
sg26
S'Daryl Richardson'
p312
sg28
g228
sg30
S'W38-13'
p313
sg32
S'18'
p314
sg34
g211
sg36
S'@HOU'
p315
sg38
S'18'
p316
sg40
g223
sg42
g277
ssg301
(dp317
g5
S'--'
p318
sg7
S'--'
p319
sg9
g10
sg11
S'--'
p320
sg13
g10
sg14
S'--'
p321
sg16
S'2013'
p322
sg18
g301
sg20
S'--'
p323
sg22
S'11/03'
p324
sg24
S'--'
p325
sg26
S'Daryl Richardson'
p326
sg28
S'--'
p327
sg30
S'L21-28'
p328
sg32
S'--'
p329
sg34
S'--'
p330
sg36
S'TEN'
p331
sg38
S'--'
p332
sg40
S'--'
p333
sg42
S'--'
p334
ssg288
(dp335
g5
S'8.0'
p336
sg7
S'--'
p337
sg9
g10
sg11
S'--'
p338
sg13
g211
sg14
g10
sg16
S'2013'
p339
sg18
g288
sg20
S'4.9'
p340
sg22
S'10/28'
p341
sg24
g10
sg26
S'Daryl Richardson'
p342
sg28
g288
sg30
S'L9-14'
p343
sg32
g288
sg34
g211
sg36
S'SEA'
p344
sg38
g288
sg40
S'39'
p345
sg42
S'14'
p346
sssS'2012'
p347
(dp348
g66
(dp349
g5
S'18.0'
p350
sg7
g211
sg9
g10
sg11
g211
sg13
g211
sg14
g10
sg16
S'2012'
p351
sg18
S'11'
p352
sg20
S'4.3'
p353
sg22
S'11/18'
p354
sg24
g10
sg26
S'Daryl Richardson'
p355
sg28
g304
sg30
S'L13-27'
p356
sg32
S'18'
p357
sg34
g211
sg36
S'NYJ'
p358
sg38
S'18'
p359
sg40
S'26'
p360
sg42
S'11'
p361
ssg73
(dp362
g5
S'0.0'
p363
sg7
S'--'
p364
sg9
g10
sg11
S'--'
p365
sg13
g211
sg14
g10
sg16
S'2012'
p366
sg18
S'10'
p367
sg20
S'8.3'
p368
sg22
S'11/11'
p369
sg24
g10
sg26
S'Daryl Richardson'
p370
sg28
g291
sg30
S'T24-24'
p371
sg32
g10
sg34
g211
sg36
S'@SF'
p372
sg38
g10
sg40
S'58'
p373
sg42
S'32'
p374
ssg93
(dp375
g5
S'2.3'
p376
sg7
S'--'
p377
sg9
g10
sg11
S'--'
p378
sg13
g211
sg14
g10
sg16
S'2012'
p379
sg18
S'13'
p380
sg20
S'2.0'
p381
sg22
S'12/02'
p382
sg24
g10
sg26
S'Daryl Richardson'
p383
sg28
g228
sg30
S'W16-13'
p384
sg32
g291
sg34
g228
sg36
S'SF'
p385
sg38
g277
sg40
g304
sg42
g228
ssg113
(dp386
g5
S'--'
p387
sg7
S'--'
p388
sg9
g10
sg11
S'--'
p389
sg13
g211
sg14
S'--'
p390
sg16
S'2012'
p391
sg18
S'12'
p392
sg20
S'4.6'
p393
sg22
S'11/25'
p394
sg24
g10
sg26
S'Daryl Richardson'
p395
sg28
g291
sg30
S'W31-17'
p396
sg32
S'--'
p397
sg34
S'--'
p398
sg36
S'@ARI'
p399
sg38
S'--'
p400
sg40
S'32'
p401
sg42
g301
ssg3
(dp402
g5
S'8.3'
p403
sg7
S'--'
p404
sg9
g10
sg11
S'--'
p405
sg13
g211
sg14
g10
sg16
S'2012'
p406
sg18
S'15'
p407
sg20
S'1.7'
p408
sg22
S'12/16'
p409
sg24
g10
sg26
S'Daryl Richardson'
p410
sg28
g228
sg30
S'L22-36'
p411
sg32
S'25'
p412
sg34
g228
sg36
S'MIN'
p413
sg38
S'13'
p414
sg40
g223
sg42
g228
ssg152
(dp415
g5
S'--'
p416
sg7
S'--'
p417
sg9
g10
sg11
S'--'
p418
sg13
g211
sg14
S'--'
p419
sg16
S'2012'
p420
sg18
S'14'
p421
sg20
S'1.3'
p422
sg22
S'12/09'
p423
sg24
g10
sg26
S'Daryl Richardson'
p424
sg28
g228
sg30
S'W15-12'
p425
sg32
S'--'
p426
sg34
S'--'
p427
sg36
S'@BUF'
p428
sg38
S'--'
p429
sg40
g277
sg42
g247
ssg172
(dp430
g5
S'7.0'
p431
sg7
S'--'
p432
sg9
g10
sg11
S'--'
p433
sg13
g211
sg14
g10
sg16
S'2012'
p434
sg18
S'17'
p435
sg20
S'0.0'
p436
sg22
S'12/30'
p437
sg24
g10
sg26
S'Daryl Richardson'
p438
sg28
g247
sg30
S'L13-20'
p439
sg32
S'14'
p440
sg34
g247
sg36
S'@SEA'
p441
sg38
S'11'
p442
sg40
g10
sg42
g10
ssg44
(dp443
g5
S'--'
p444
sg7
S'--'
p445
sg9
g10
sg11
S'--'
p446
sg13
g211
sg14
g10
sg16
S'2012'
p447
sg18
S'16'
p448
sg20
S'1.8'
p449
sg22
S'12/23'
p450
sg24
g10
sg26
S'Daryl Richardson'
p451
sg28
g223
sg30
S'W28-13'
p452
sg32
g10
sg34
g10
sg36
S'@TB'
p453
sg38
S'--'
p454
sg40
g301
sg42
g304
ssg211
(dp455
g5
S'--'
p456
sg7
S'--'
p457
sg9
g10
sg11
S'--'
p458
sg13
g211
sg14
S'--'
p459
sg16
S'2012'
p460
sg18
g211
sg20
S'10.0'
p461
sg22
S'09/09'
p462
sg24
g10
sg26
S'Daryl Richardson'
p463
sg28
g247
sg30
S'L23-27'
p464
sg32
S'--'
p465
sg34
S'--'
p466
sg36
S'@DET'
p467
sg38
S'--'
p468
sg40
S'20'
p469
sg42
S'11'
p470
ssg228
(dp471
g5
S'4.0'
p472
sg7
S'--'
p473
sg9
g10
sg11
S'--'
p474
sg13
g211
sg14
g10
sg16
S'2012'
p475
sg18
g228
sg20
S'4.0'
p476
sg22
S'09/23'
p477
sg24
g10
sg26
S'Daryl Richardson'
p478
sg28
g277
sg30
S'L6-23'
p479
sg32
g277
sg34
g211
sg36
S'@CHI'
p480
sg38
g277
sg40
S'16'
p481
sg42
S'12'
p482
ssg247
(dp483
g5
S'9.5'
p484
sg7
g211
sg9
g10
sg11
g211
sg13
g211
sg14
g10
sg16
S'2012'
p485
sg18
g247
sg20
S'5.5'
p486
sg22
S'09/16'
p487
sg24
g10
sg26
S'Daryl Richardson'
p488
sg28
S'15'
p489
sg30
S'W31-28'
p490
sg32
S'19'
p491
sg34
g247
sg36
S'WAS'
p492
sg38
S'18'
p493
sg40
S'83'
p494
sg42
S'53'
p495
ssg223
(dp496
g5
S'--'
p497
sg7
S'--'
p498
sg9
g10
sg11
S'--'
p499
sg13
g211
sg14
g10
sg16
S'2012'
p500
sg18
g223
sg20
S'3.9'
p501
sg22
S'10/04'
p502
sg24
g10
sg26
S'Daryl Richardson'
p503
sg28
g301
sg30
S'W17-3'
p504
sg32
g10
sg34
g10
sg36
S'ARI'
p505
sg38
S'--'
p506
sg40
S'35'
p507
sg42
S'16'
p508
ssg277
(dp509
g5
S'6.5'
p510
sg7
S'--'
p511
sg9
g10
sg11
S'--'
p512
sg13
g211
sg14
g10
sg16
S'2012'
p513
sg18
g277
sg20
S'2.7'
p514
sg22
S'09/30'
p515
sg24
g10
sg26
S'Daryl Richardson'
p516
sg28
g304
sg30
S'W19-13'
p517
sg32
S'13'
p518
sg34
g247
sg36
S'SEA'
p519
sg38
S'11'
p520
sg40
S'16'
p521
sg42
g288
ssg291
(dp522
g5
S'14.3'
p523
sg7
S'--'
p524
sg9
g10
sg11
S'--'
p525
sg13
g211
sg14
g10
sg16
S'2012'
p526
sg18
g291
sg20
S'4.5'
p527
sg22
S'10/21'
p528
sg24
g10
sg26
S'Daryl Richardson'
p529
sg28
g288
sg30
S'L20-30'
p530
sg32
S'43'
p531
sg34
g228
sg36
S'GB'
p532
sg38
S'20'
p533
sg40
S'36'
p534
sg42
S'11'
p535
ssg304
(dp536
g5
S'11.5'
p537
sg7
S'--'
p538
sg9
g10
sg11
S'--'
p539
sg13
g211
sg14
g10
sg16
S'2012'
p540
sg18
g304
sg20
S'6.9'
p541
sg22
S'10/14'
p542
sg24
g10
sg26
S'Daryl Richardson'
p543
sg28
S'11'
p544
sg30
S'L14-17'
p545
sg32
S'23'
p546
sg34
g247
sg36
S'@MIA'
p547
sg38
S'26'
p548
sg40
S'76'
p549
sg42
S'44'
p550
ssg301
(dp551
g5
g68
sg7
g68
sg9
g68
sg11
g68
sg13
g68
sg14
g68
sg16
S'2012'
p552
sg18
g301
sg20
g68
sg22
S'Bye'
p553
sg24
g68
sg26
S'Daryl Richardson'
p554
sg28
g68
sg30
g68
sg32
g68
sg34
g68
sg36
g68
sg38
g68
sg40
g68
sg42
g68
ssg288
(dp555
g5
S'-0.8'
p556
sg7
g211
sg9
g10
sg11
g10
sg13
g211
sg14
g10
sg16
S'2012'
p557
sg18
g288
sg20
S'7.6'
p558
sg22
S'10/28'
p559
sg24
g10
sg26
S'Daryl Richardson'
p560
sg28
g291
sg30
S'L7-45'
p561
sg32
S'-3'
p562
sg34
g277
sg36
S'NE'
p563
sg38
g291
sg40
S'53'
p564
sg42
S'20'
p565
sss.