(dp0
S'2015'
p1
(dp2
S'11'
p3
(dp4
S'RecAvg'
p5
S'8.5'
p6
sS'FUM'
p7
S'1'
p8
sS'GS'
p9
S'0'
p10
sS'Lost'
p11
g10
sS'G'
p12
g8
sS'RecTD'
p13
g8
sS'Year'
p14
S'2015'
p15
sS'WK'
p16
S'11'
p17
sS'RushAvg'
p18
S'4.5'
p19
sS'Game Date'
p20
S'11/22'
p21
sS'RushTD'
p22
g10
sS'Player'
p23
S'David Johnson'
p24
sS'RushAtt'
p25
S'2'
p26
sS'Result'
p27
S'W34-31'
p28
sS'RecYds'
p29
S'17'
p30
sS'Rec'
p31
g26
sS'Opp'
p32
S'CIN'
p33
sS'RecLng'
p34
S'16T'
p35
sS'RushYds'
p36
S'9'
p37
sS'RushLng'
p38
g37
ssS'10'
p39
(dp40
g5
S'8.0'
p41
sg7
S'--'
p42
sg9
g10
sg11
S'--'
p43
sg12
g8
sg13
g10
sg14
S'2015'
p44
sg16
S'10'
p45
sg18
S'--'
p46
sg20
S'11/15'
p47
sg22
S'--'
p48
sg23
S'David Johnson'
p49
sg25
S'--'
p50
sg27
S'W39-32'
p51
sg29
S'8'
p52
sg31
g8
sg32
S'@SEA'
p53
sg34
g52
sg36
S'--'
p54
sg38
S'--'
p55
ssS'13'
p56
(dp57
g5
S'10.5'
p58
sg7
g8
sg9
g8
sg11
g10
sg12
g8
sg13
g8
sg14
S'2015'
p59
sg16
S'13'
p60
sg18
S'4.5'
p61
sg20
S'12/06'
p62
sg22
g10
sg23
S'David Johnson'
p63
sg25
S'22'
p64
sg27
S'W27-3'
p65
sg29
S'21'
p66
sg31
g26
sg32
S'@STL'
p67
sg34
S'11'
p68
sg36
S'99'
p69
sg38
S'23'
p70
ssS'12'
p71
(dp72
g5
S'4.0'
p73
sg7
S'--'
p74
sg9
g10
sg11
S'--'
p75
sg12
g8
sg13
g10
sg14
S'2015'
p76
sg16
S'12'
p77
sg18
S'2.6'
p78
sg20
S'11/29'
p79
sg22
g8
sg23
S'David Johnson'
p80
sg25
g52
sg27
S'W19-13'
p81
sg29
g52
sg31
g26
sg32
S'@SF'
p82
sg34
S'6'
p83
sg36
S'21'
p84
sg38
S'10'
p85
ssS'15'
p86
(dp87
g5
S'10.5'
p88
sg7
S'--'
p89
sg9
g8
sg11
S'--'
p90
sg12
g8
sg13
g10
sg14
S'2015'
p91
sg16
S'15'
p92
sg18
S'6.4'
p93
sg20
S'12/20'
p94
sg22
S'3'
p95
sg23
S'David Johnson'
p96
sg25
S'29'
p97
sg27
S'W40-17'
p98
sg29
S'42'
p99
sg31
S'4'
p100
sg32
S'@PHI'
p101
sg34
S'12'
p102
sg36
S'187'
p103
sg38
S'47T'
p104
ssS'14'
p105
(dp106
g5
S'6.2'
p107
sg7
S'--'
p108
sg9
g8
sg11
S'--'
p109
sg12
g8
sg13
g10
sg14
S'2015'
p110
sg16
S'14'
p111
sg18
S'4.8'
p112
sg20
S'12/10'
p113
sg22
g10
sg23
S'David Johnson'
p114
sg25
S'19'
p115
sg27
S'W23-20'
p116
sg29
S'31'
p117
sg31
S'5'
p118
sg32
S'MIN'
p119
sg34
S'14'
p120
sg36
S'92'
p121
sg38
S'24'
p122
ssS'17'
p123
(dp124
g5
S'11.3'
p125
sg7
S'--'
p126
sg9
g8
sg11
S'--'
p127
sg12
g8
sg13
g10
sg14
S'2015'
p128
sg16
S'17'
p129
sg18
S'2.3'
p130
sg20
S'01/03'
p131
sg22
g10
sg23
S'David Johnson'
p132
sg25
S'11'
p133
sg27
S'L6-36'
p134
sg29
S'34'
p135
sg31
g95
sg32
S'SEA'
p136
sg34
S'19'
p137
sg36
S'25'
p138
sg38
g118
ssS'16'
p139
(dp140
g5
S'29.3'
p141
sg7
S'--'
p142
sg9
g8
sg11
S'--'
p143
sg12
g8
sg13
g10
sg14
S'2015'
p144
sg16
S'16'
p145
sg18
S'4.3'
p146
sg20
S'12/27'
p147
sg22
g8
sg23
S'David Johnson'
p148
sg25
g37
sg27
S'W38-8'
p149
sg29
S'88'
p150
sg31
g95
sg32
S'GB'
p151
sg34
S'44'
p152
sg36
S'39'
p153
sg38
S'14T'
p154
ssg8
(dp155
g5
S'55.0'
p156
sg7
S'--'
p157
sg9
g10
sg11
S'--'
p158
sg12
g8
sg13
g8
sg14
S'2015'
p159
sg16
g8
sg18
S'--'
p160
sg20
S'09/13'
p161
sg22
S'--'
p162
sg23
S'David Johnson'
p163
sg25
S'--'
p164
sg27
S'W31-19'
p165
sg29
S'55'
p166
sg31
g8
sg32
S'NO'
p167
sg34
S'55T'
p168
sg36
S'--'
p169
sg38
S'--'
p170
ssg95
(dp171
g5
S'5.3'
p172
sg7
S'--'
p173
sg9
g10
sg11
S'--'
p174
sg12
g8
sg13
g10
sg14
S'2015'
p175
sg16
g95
sg18
S'3.6'
p176
sg20
S'09/27'
p177
sg22
g10
sg23
S'David Johnson'
p178
sg25
S'7'
p179
sg27
S'W47-7'
p180
sg29
S'16'
p181
sg31
g95
sg32
S'SF'
p182
sg34
g37
sg36
S'25'
p183
sg38
g52
ssg26
(dp184
g5
S'3.0'
p185
sg7
S'--'
p186
sg9
g10
sg11
S'--'
p187
sg12
g8
sg13
g10
sg14
S'2015'
p188
sg16
g26
sg18
S'8.4'
p189
sg20
S'09/20'
p190
sg22
g8
sg23
S'David Johnson'
p191
sg25
g118
sg27
S'W48-23'
p192
sg29
g95
sg31
g8
sg32
S'@CHI'
p193
sg34
g95
sg36
S'42'
p194
sg38
S'14'
p195
ssg118
(dp196
g5
S'--'
p197
sg7
S'--'
p198
sg9
g10
sg11
S'--'
p199
sg12
g8
sg13
S'--'
p200
sg14
S'2015'
p201
sg16
g118
sg18
S'2.0'
p202
sg20
S'10/11'
p203
sg22
g26
sg23
S'David Johnson'
p204
sg25
g95
sg27
S'W42-17'
p205
sg29
S'--'
p206
sg31
S'--'
p207
sg32
S'@DET'
p208
sg34
S'--'
p209
sg36
g83
sg38
S'4T'
p210
ssg100
(dp211
g5
S'15.8'
p212
sg7
g8
sg9
g10
sg11
g8
sg12
g8
sg13
g8
sg14
S'2015'
p213
sg16
g100
sg18
S'6.0'
p214
sg20
S'10/04'
p215
sg22
g10
sg23
S'David Johnson'
p216
sg25
g95
sg27
S'L22-24'
p217
sg29
S'63'
p218
sg31
g100
sg32
S'STL'
p219
sg34
S'23T'
p220
sg36
S'18'
p221
sg38
S'12'
p222
ssg179
(dp223
g5
S'9.5'
p224
sg7
S'--'
p225
sg9
g10
sg11
S'--'
p226
sg12
g8
sg13
g10
sg14
S'2015'
p227
sg16
g179
sg18
S'1.7'
p228
sg20
S'10/26'
p229
sg22
g10
sg23
S'David Johnson'
p230
sg25
g95
sg27
S'W26-18'
p231
sg29
S'19'
p232
sg31
g26
sg32
S'BAL'
p233
sg34
S'11'
p234
sg36
g118
sg38
g83
ssg83
(dp235
g5
S'8.0'
p236
sg7
S'--'
p237
sg9
g10
sg11
S'--'
p238
sg12
g8
sg13
g10
sg14
S'2015'
p239
sg16
g83
sg18
S'3.0'
p240
sg20
S'10/18'
p241
sg22
g10
sg23
S'David Johnson'
p242
sg25
g95
sg27
S'L13-25'
p243
sg29
g52
sg31
g8
sg32
S'@PIT'
p244
sg34
g52
sg36
g37
sg38
g52
ssg37
(dp245
g5
S''
p246
sg7
g246
sg9
g246
sg11
g246
sg12
g246
sg13
g246
sg14
S'2015'
p247
sg16
g37
sg18
g246
sg20
S'Bye'
p248
sg22
g246
sg23
S'David Johnson'
p249
sg25
g246
sg27
g246
sg29
g246
sg31
g246
sg32
g246
sg34
g246
sg36
g246
sg38
g246
ssg52
(dp250
g5
S'22.0'
p251
sg7
g8
sg9
g10
sg11
g10
sg12
g8
sg13
g10
sg14
S'2015'
p252
sg16
g52
sg18
S'4.0'
p253
sg20
S'11/01'
p254
sg22
g10
sg23
S'David Johnson'
p255
sg25
g8
sg27
S'W34-20'
p256
sg29
S'44'
p257
sg31
g26
sg32
S'@CLE'
p258
sg34
S'34'
p259
sg36
g100
sg38
g100
sss.