(dp0
S'2015'
p1
(dp2
S'11'
p3
(dp4
S'RecAvg'
p5
S''
p6
sS'FUM'
p7
g6
sS'GS'
p8
g6
sS'Lost'
p9
g6
sS'G'
p10
g6
sS'RecTD'
p11
g6
sS'Year'
p12
S'2015'
p13
sS'WK'
p14
S'11'
p15
sS'RushAvg'
p16
g6
sS'Game Date'
p17
S'Bye'
p18
sS'RushTD'
p19
g6
sS'Player'
p20
S'DeAngelo Williams'
p21
sS'RushAtt'
p22
g6
sS'Result'
p23
g6
sS'RecYds'
p24
g6
sS'Rec'
p25
g6
sS'Opp'
p26
g6
sS'RecLng'
p27
g6
sS'RushYds'
p28
g6
sS'RushLng'
p29
g6
ssS'10'
p30
(dp31
g5
S'15.0'
p32
sg7
S'1'
p33
sg8
g33
sg9
S'0'
p34
sg10
g33
sg11
g34
sg12
S'2015'
p35
sg14
S'10'
p36
sg16
S'3.2'
p37
sg17
S'11/15'
p38
sg19
g34
sg20
S'DeAngelo Williams'
p39
sg22
S'17'
p40
sg23
S'W30-9'
p41
sg24
S'15'
p42
sg25
g33
sg26
S'CLE'
p43
sg27
S'15'
p44
sg28
S'54'
p45
sg29
S'12'
p46
ssS'13'
p47
(dp48
g5
S'6.2'
p49
sg7
S'2'
p50
sg8
g33
sg9
g33
sg10
g33
sg11
g34
sg12
S'2015'
p51
sg14
S'13'
p52
sg16
S'5.2'
p53
sg17
S'12/06'
p54
sg19
g34
sg20
S'DeAngelo Williams'
p55
sg22
S'26'
p56
sg23
S'W45-10'
p57
sg24
S'31'
p58
sg25
S'5'
p59
sg26
S'IND'
p60
sg27
S'15'
p61
sg28
S'134'
p62
sg29
S'21'
p63
ssS'12'
p64
(dp65
g5
S'12.6'
p66
sg7
S'--'
p67
sg8
g33
sg9
S'--'
p68
sg10
g33
sg11
g34
sg12
S'2015'
p69
sg14
S'12'
p70
sg16
S'3.6'
p71
sg17
S'11/29'
p72
sg19
g33
sg20
S'DeAngelo Williams'
p73
sg22
S'8'
p74
sg23
S'L30-39'
p75
sg24
S'88'
p76
sg25
S'7'
p77
sg26
S'@SEA'
p78
sg27
S'34'
p79
sg28
S'29'
p80
sg29
g77
ssS'15'
p81
(dp82
g5
S'6.0'
p83
sg7
S'--'
p84
sg8
g33
sg9
S'--'
p85
sg10
g33
sg11
g34
sg12
S'2015'
p86
sg14
S'15'
p87
sg16
S'1.9'
p88
sg17
S'12/20'
p89
sg19
g33
sg20
S'DeAngelo Williams'
p90
sg22
S'14'
p91
sg23
S'W34-27'
p92
sg24
S'30'
p93
sg25
g59
sg26
S'DEN'
p94
sg27
S'19'
p95
sg28
S'26'
p96
sg29
g59
ssS'14'
p97
(dp98
g5
S'7.5'
p99
sg7
S'--'
p100
sg8
g33
sg9
S'--'
p101
sg10
g33
sg11
g34
sg12
S'2015'
p102
sg14
S'14'
p103
sg16
S'3.3'
p104
sg17
S'12/13'
p105
sg19
g50
sg20
S'DeAngelo Williams'
p106
sg22
S'23'
p107
sg23
S'W33-20'
p108
sg24
S'15'
p109
sg25
g50
sg26
S'@CIN'
p110
sg27
S'9'
p111
sg28
S'76'
p112
sg29
S'15'
p113
ssS'17'
p114
(dp115
g5
S'6.5'
p116
sg7
S'--'
p117
sg8
g33
sg9
S'--'
p118
sg10
g33
sg11
g34
sg12
S'2015'
p119
sg14
S'17'
p120
sg16
S'1.6'
p121
sg17
S'01/03'
p122
sg19
g34
sg20
S'DeAngelo Williams'
p123
sg22
g59
sg23
S'W28-12'
p124
sg24
S'13'
p125
sg25
g50
sg26
S'@CLE'
p126
sg27
g77
sg28
g74
sg29
S'6'
p127
ssS'16'
p128
(dp129
g5
S'8.8'
p130
sg7
g33
sg8
g33
sg9
g33
sg10
g33
sg11
g34
sg12
S'2015'
p131
sg14
S'16'
p132
sg16
S'5.9'
p133
sg17
S'12/27'
p134
sg19
g50
sg20
S'DeAngelo Williams'
p135
sg22
S'17'
p136
sg23
S'L17-20'
p137
sg24
S'53'
p138
sg25
g127
sg26
S'@BAL'
p139
sg27
S'22'
p140
sg28
S'100'
p141
sg29
S'30'
p142
ssg33
(dp143
g5
S'5.0'
p144
sg7
S'--'
p145
sg8
g33
sg9
S'--'
p146
sg10
g33
sg11
g34
sg12
S'2015'
p147
sg14
g33
sg16
S'6.0'
p148
sg17
S'09/10'
p149
sg19
g34
sg20
S'DeAngelo Williams'
p150
sg22
S'21'
p151
sg23
S'L21-28'
p152
sg24
g59
sg25
g33
sg26
S'@NE'
p153
sg27
g59
sg28
S'127'
p154
sg29
S'28'
p155
ssS'3'
p156
(dp157
g5
S'--'
p158
sg7
S'--'
p159
sg8
g33
sg9
S'--'
p160
sg10
g33
sg11
S'--'
p161
sg12
S'2015'
p162
sg14
g156
sg16
S'2.0'
p163
sg17
S'09/27'
p164
sg19
g34
sg20
S'DeAngelo Williams'
p165
sg22
g33
sg23
S'W12-6'
p166
sg24
S'--'
p167
sg25
S'--'
p168
sg26
S'@STL'
p169
sg27
S'--'
p170
sg28
g50
sg29
g50
ssg50
(dp171
g5
S'3.8'
p172
sg7
S'--'
p173
sg8
g33
sg9
S'--'
p174
sg10
g33
sg11
g34
sg12
S'2015'
p175
sg14
g50
sg16
S'3.9'
p176
sg17
S'09/20'
p177
sg19
g156
sg20
S'DeAngelo Williams'
p178
sg22
S'20'
p179
sg23
S'W43-18'
p180
sg24
S'15'
p181
sg25
S'4'
p182
sg26
S'SF'
p183
sg27
S'11'
p184
sg28
S'77'
p185
sg29
S'16'
p186
ssg59
(dp187
g5
S'--'
p188
sg7
S'--'
p189
sg8
g34
sg9
S'--'
p190
sg10
g33
sg11
S'--'
p191
sg12
S'2015'
p192
sg14
g59
sg16
S'4.0'
p193
sg17
S'10/12'
p194
sg19
g34
sg20
S'DeAngelo Williams'
p195
sg22
g59
sg23
S'W24-20'
p196
sg24
S'--'
p197
sg25
S'--'
p198
sg26
S'@SD'
p199
sg27
S'--'
p200
sg28
S'20'
p201
sg29
g77
ssg182
(dp202
g5
S'--'
p203
sg7
S'--'
p204
sg8
g34
sg9
S'--'
p205
sg10
g33
sg11
S'--'
p206
sg12
S'2015'
p207
sg14
g182
sg16
S'2.5'
p208
sg17
S'10/01'
p209
sg19
g34
sg20
S'DeAngelo Williams'
p210
sg22
g50
sg23
S'L20-23'
p211
sg24
S'--'
p212
sg25
S'--'
p213
sg26
S'BAL'
p214
sg27
S'--'
p215
sg28
g59
sg29
g74
ssg77
(dp216
g5
S'8.0'
p217
sg7
S'--'
p218
sg8
g34
sg9
S'--'
p219
sg10
g33
sg11
g34
sg12
S'2015'
p220
sg14
g77
sg16
S'2.3'
p221
sg17
S'10/25'
p222
sg19
g34
sg20
S'DeAngelo Williams'
p223
sg22
g182
sg23
S'L13-23'
p224
sg24
g74
sg25
g33
sg26
S'@KC'
p225
sg27
g74
sg28
g111
sg29
g127
ssg127
(dp226
g5
S'--'
p227
sg7
S'--'
p228
sg8
g34
sg9
S'--'
p229
sg10
g33
sg11
S'--'
p230
sg12
S'2015'
p231
sg14
g127
sg16
S'-1.0'
p232
sg17
S'10/18'
p233
sg19
g34
sg20
S'DeAngelo Williams'
p234
sg22
g33
sg23
S'W25-13'
p235
sg24
S'--'
p236
sg25
S'--'
p237
sg26
S'ARI'
p238
sg27
S'--'
p239
sg28
S'-1'
p240
sg29
S'-1'
p241
ssg111
(dp242
g5
S'27.5'
p243
sg7
S'--'
p244
sg8
g34
sg9
S'--'
p245
sg10
g33
sg11
g34
sg12
S'2015'
p246
sg14
g111
sg16
S'6.3'
p247
sg17
S'11/08'
p248
sg19
g50
sg20
S'DeAngelo Williams'
p249
sg22
S'27'
p250
sg23
S'W38-35'
p251
sg24
S'55'
p252
sg25
g50
sg26
S'OAK'
p253
sg27
S'33'
p254
sg28
S'170'
p255
sg29
S'53'
p256
ssg74
(dp257
g5
S'9.8'
p258
sg7
S'--'
p259
sg8
g34
sg9
S'--'
p260
sg10
g33
sg11
g34
sg12
S'2015'
p261
sg14
g74
sg16
S'7.9'
p262
sg17
S'11/01'
p263
sg19
g34
sg20
S'DeAngelo Williams'
p264
sg22
g111
sg23
S'L10-16'
p265
sg24
S'39'
p266
sg25
g182
sg26
S'CIN'
p267
sg27
S'14'
p268
sg28
S'71'
p269
sg29
S'55'
p270
sssS'2014'
p271
(dp272
g3
(dp273
g5
S'-3.0'
p274
sg7
S'--'
p275
sg8
g33
sg9
S'--'
p276
sg10
g33
sg11
g34
sg12
S'2014'
p277
sg14
S'11'
p278
sg16
S'4.1'
p279
sg17
S'11/16'
p280
sg19
g34
sg20
S'DeAngelo Williams'
p281
sg22
S'10'
p282
sg23
S'L17-19'
p283
sg24
S'-3'
p284
sg25
g33
sg26
S'ATL'
p285
sg27
S'-3'
p286
sg28
S'41'
p287
sg29
g74
ssg30
(dp288
g5
S'5.7'
p289
sg7
g33
sg8
g33
sg9
g33
sg10
g33
sg11
g34
sg12
S'2014'
p290
sg14
S'10'
p291
sg16
S'2.4'
p292
sg17
S'11/10'
p293
sg19
g34
sg20
S'DeAngelo Williams'
p294
sg22
S'13'
p295
sg23
S'L21-45'
p296
sg24
S'17'
p297
sg25
g156
sg26
S'@PHI'
p298
sg27
g77
sg28
S'31'
p299
sg29
g74
ssg47
(dp300
g5
S'--'
p301
sg7
S'--'
p302
sg8
g33
sg9
S'--'
p303
sg10
g33
sg11
S'--'
p304
sg12
S'2014'
p305
sg14
S'13'
p306
sg16
S'3.0'
p307
sg17
S'11/30'
p308
sg19
g34
sg20
S'DeAngelo Williams'
p309
sg22
g77
sg23
S'L13-31'
p310
sg24
S'--'
p311
sg25
S'--'
p312
sg26
S'@MIN'
p313
sg27
S'--'
p314
sg28
S'21'
p315
sg29
g111
ssg64
(dp316
g5
g6
sg7
g6
sg8
g6
sg9
g6
sg10
g6
sg11
g6
sg12
S'2014'
p317
sg14
S'12'
p318
sg16
g6
sg17
S'Bye'
p319
sg19
g6
sg20
S'DeAngelo Williams'
p320
sg22
g6
sg23
g6
sg24
g6
sg25
g6
sg26
g6
sg27
g6
sg28
g6
sg29
g6
ssg81
(dp321
g5
S'--'
p322
sg7
S'--'
p323
sg8
g34
sg9
S'--'
p324
sg10
g34
sg11
S'--'
p325
sg12
S'2014'
p326
sg14
S'15'
p327
sg16
S'--'
p328
sg17
S'12/14'
p329
sg19
S'--'
p330
sg20
S'DeAngelo Williams'
p331
sg22
S'--'
p332
sg23
S'W19-17'
p333
sg24
S'--'
p334
sg25
S'--'
p335
sg26
S'TB'
p336
sg27
S'--'
p337
sg28
S'--'
p338
sg29
S'--'
p339
ssg97
(dp340
g5
S'--'
p341
sg7
S'--'
p342
sg8
g34
sg9
S'--'
p343
sg10
g34
sg11
S'--'
p344
sg12
S'2014'
p345
sg14
S'14'
p346
sg16
S'--'
p347
sg17
S'12/07'
p348
sg19
S'--'
p349
sg20
S'DeAngelo Williams'
p350
sg22
S'--'
p351
sg23
S'W41-10'
p352
sg24
S'--'
p353
sg25
S'--'
p354
sg26
S'@NO'
p355
sg27
S'--'
p356
sg28
S'--'
p357
sg29
S'--'
p358
ssg114
(dp359
g5
S'--'
p360
sg7
S'--'
p361
sg8
g34
sg9
S'--'
p362
sg10
g34
sg11
S'--'
p363
sg12
S'2014'
p364
sg14
S'17'
p365
sg16
S'--'
p366
sg17
S'12/28'
p367
sg19
S'--'
p368
sg20
S'DeAngelo Williams'
p369
sg22
S'--'
p370
sg23
S'W34-3'
p371
sg24
S'--'
p372
sg25
S'--'
p373
sg26
S'@ATL'
p374
sg27
S'--'
p375
sg28
S'--'
p376
sg29
S'--'
p377
ssg128
(dp378
g5
S'--'
p379
sg7
S'--'
p380
sg8
g34
sg9
S'--'
p381
sg10
g34
sg11
S'--'
p382
sg12
S'2014'
p383
sg14
S'16'
p384
sg16
S'--'
p385
sg17
S'12/21'
p386
sg19
S'--'
p387
sg20
S'DeAngelo Williams'
p388
sg22
S'--'
p389
sg23
S'W17-13'
p390
sg24
S'--'
p391
sg25
S'--'
p392
sg26
S'CLE'
p393
sg27
S'--'
p394
sg28
S'--'
p395
sg29
S'--'
p396
ssg33
(dp397
g5
S'--'
p398
sg7
S'--'
p399
sg8
g33
sg9
S'--'
p400
sg10
g33
sg11
g34
sg12
S'2014'
p401
sg14
g33
sg16
S'5.1'
p402
sg17
S'09/07'
p403
sg19
g34
sg20
S'DeAngelo Williams'
p404
sg22
S'14'
p405
sg23
S'W20-14'
p406
sg24
g34
sg25
g34
sg26
S'@TB'
p407
sg27
S'--'
p408
sg28
S'72'
p409
sg29
S'17'
p410
ssg156
(dp411
g5
S'--'
p412
sg7
S'--'
p413
sg8
g34
sg9
S'--'
p414
sg10
g34
sg11
S'--'
p415
sg12
S'2014'
p416
sg14
g156
sg16
S'--'
p417
sg17
S'09/21'
p418
sg19
S'--'
p419
sg20
S'DeAngelo Williams'
p420
sg22
S'--'
p421
sg23
S'L19-37'
p422
sg24
S'--'
p423
sg25
S'--'
p424
sg26
S'PIT'
p425
sg27
S'--'
p426
sg28
S'--'
p427
sg29
S'--'
p428
ssg50
(dp429
g5
S'--'
p430
sg7
S'--'
p431
sg8
g34
sg9
S'--'
p432
sg10
g34
sg11
S'--'
p433
sg12
S'2014'
p434
sg14
g50
sg16
S'--'
p435
sg17
S'09/14'
p436
sg19
S'--'
p437
sg20
S'DeAngelo Williams'
p438
sg22
S'--'
p439
sg23
S'W24-7'
p440
sg24
S'--'
p441
sg25
S'--'
p442
sg26
S'DET'
p443
sg27
S'--'
p444
sg28
S'--'
p445
sg29
S'--'
p446
ssg59
(dp447
g5
S'--'
p448
sg7
S'--'
p449
sg8
g34
sg9
S'--'
p450
sg10
g34
sg11
S'--'
p451
sg12
S'2014'
p452
sg14
g59
sg16
S'--'
p453
sg17
S'10/05'
p454
sg19
S'--'
p455
sg20
S'DeAngelo Williams'
p456
sg22
S'--'
p457
sg23
S'W31-24'
p458
sg24
S'--'
p459
sg25
S'--'
p460
sg26
S'CHI'
p461
sg27
S'--'
p462
sg28
S'--'
p463
sg29
S'--'
p464
ssg182
(dp465
g5
S'--'
p466
sg7
S'--'
p467
sg8
g33
sg9
S'--'
p468
sg10
g33
sg11
S'--'
p469
sg12
S'2014'
p470
sg14
g182
sg16
S'3.1'
p471
sg17
S'09/28'
p472
sg19
g34
sg20
S'DeAngelo Williams'
p473
sg22
S'11'
p474
sg23
S'L10-38'
p475
sg24
S'--'
p476
sg25
S'--'
p477
sg26
S'@BAL'
p478
sg27
S'--'
p479
sg28
S'34'
p480
sg29
g77
ssg77
(dp481
g5
S'--'
p482
sg7
S'--'
p483
sg8
g34
sg9
S'--'
p484
sg10
g34
sg11
S'--'
p485
sg12
S'2014'
p486
sg14
g77
sg16
S'--'
p487
sg17
S'10/19'
p488
sg19
S'--'
p489
sg20
S'DeAngelo Williams'
p490
sg22
S'--'
p491
sg23
S'L17-38'
p492
sg24
S'--'
p493
sg25
S'--'
p494
sg26
S'@GB'
p495
sg27
S'--'
p496
sg28
S'--'
p497
sg29
S'--'
p498
ssg127
(dp499
g5
S'--'
p500
sg7
S'--'
p501
sg8
g34
sg9
S'--'
p502
sg10
g34
sg11
S'--'
p503
sg12
S'2014'
p504
sg14
g127
sg16
S'--'
p505
sg17
S'10/12'
p506
sg19
S'--'
p507
sg20
S'DeAngelo Williams'
p508
sg22
S'--'
p509
sg23
S'T37-37'
p510
sg24
S'--'
p511
sg25
S'--'
p512
sg26
S'@CIN'
p513
sg27
S'--'
p514
sg28
S'--'
p515
sg29
S'--'
p516
ssg111
(dp517
g5
S'30.0'
p518
sg7
S'--'
p519
sg8
g33
sg9
S'--'
p520
sg10
g33
sg11
g34
sg12
S'2014'
p521
sg14
g111
sg16
S'2.9'
p522
sg17
S'10/30'
p523
sg19
g34
sg20
S'DeAngelo Williams'
p524
sg22
g77
sg23
S'L10-28'
p525
sg24
S'30'
p526
sg25
g33
sg26
S'NO'
p527
sg27
S'30'
p528
sg28
S'20'
p529
sg29
g77
ssg74
(dp530
g5
S'--'
p531
sg7
S'--'
p532
sg8
g34
sg9
S'--'
p533
sg10
g34
sg11
S'--'
p534
sg12
S'2014'
p535
sg14
g74
sg16
S'--'
p536
sg17
S'10/26'
p537
sg19
S'--'
p538
sg20
S'DeAngelo Williams'
p539
sg22
S'--'
p540
sg23
S'L9-13'
p541
sg24
S'--'
p542
sg25
S'--'
p543
sg26
S'SEA'
p544
sg27
S'--'
p545
sg28
S'--'
p546
sg29
S'--'
p547
sssS'2011'
p548
(dp549
g3
(dp550
g5
S'32.0'
p551
sg7
S'--'
p552
sg8
g33
sg9
S'--'
p553
sg10
g33
sg11
g34
sg12
S'2011'
p554
sg14
S'11'
p555
sg16
S'7.3'
p556
sg17
S'11/20'
p557
sg19
g34
sg20
S'DeAngelo Williams'
p558
sg22
S'10'
p559
sg23
S'L35-49'
p560
sg24
S'32'
p561
sg25
g33
sg26
S'@DET'
p562
sg27
S'32'
p563
sg28
S'73'
p564
sg29
S'29'
p565
ssg30
(dp566
g5
S'--'
p567
sg7
S'--'
p568
sg8
g33
sg9
S'--'
p569
sg10
g33
sg11
g34
sg12
S'2011'
p570
sg14
S'10'
p571
sg16
S'4.4'
p572
sg17
S'11/13'
p573
sg19
g34
sg20
S'DeAngelo Williams'
p574
sg22
g74
sg23
S'L3-30'
p575
sg24
g34
sg25
g34
sg26
S'TEN'
p576
sg27
S'--'
p577
sg28
S'35'
p578
sg29
S'21'
p579
ssg47
(dp580
g5
S'--'
p581
sg7
S'--'
p582
sg8
g33
sg9
S'--'
p583
sg10
g33
sg11
S'--'
p584
sg12
S'2011'
p585
sg14
S'13'
p586
sg16
S'2.6'
p587
sg17
S'12/04'
p588
sg19
g34
sg20
S'DeAngelo Williams'
p589
sg22
S'11'
p590
sg23
S'W38-19'
p591
sg24
S'--'
p592
sg25
S'--'
p593
sg26
S'@TB'
p594
sg27
S'--'
p595
sg28
S'29'
p596
sg29
g111
ssg64
(dp597
g5
S'--'
p598
sg7
S'--'
p599
sg8
g33
sg9
S'--'
p600
sg10
g33
sg11
S'--'
p601
sg12
S'2011'
p602
sg14
S'12'
p603
sg16
S'4.6'
p604
sg17
S'11/27'
p605
sg19
g50
sg20
S'DeAngelo Williams'
p606
sg22
S'15'
p607
sg23
S'W27-19'
p608
sg24
S'--'
p609
sg25
S'--'
p610
sg26
S'@IND'
p611
sg27
S'--'
p612
sg28
S'69'
p613
sg29
S'25T'
p614
ssg81
(dp615
g5
S'--'
p616
sg7
S'--'
p617
sg8
g33
sg9
S'--'
p618
sg10
g33
sg11
S'--'
p619
sg12
S'2011'
p620
sg14
S'15'
p621
sg16
S'4.1'
p622
sg17
S'12/18'
p623
sg19
g33
sg20
S'DeAngelo Williams'
p624
sg22
S'15'
p625
sg23
S'W28-13'
p626
sg24
S'--'
p627
sg25
S'--'
p628
sg26
S'@HOU'
p629
sg27
S'--'
p630
sg28
S'61'
p631
sg29
S'24T'
p632
ssg97
(dp633
g5
S'4.0'
p634
sg7
S'--'
p635
sg8
g34
sg9
S'--'
p636
sg10
g33
sg11
g34
sg12
S'2011'
p637
sg14
S'14'
p638
sg16
S'12.4'
p639
sg17
S'12/11'
p640
sg19
g33
sg20
S'DeAngelo Williams'
p641
sg22
g77
sg23
S'L23-31'
p642
sg24
g182
sg25
g33
sg26
S'ATL'
p643
sg27
g182
sg28
S'87'
p644
sg29
S'74T'
p645
ssg114
(dp646
g5
S'10.0'
p647
sg7
S'--'
p648
sg8
g33
sg9
S'--'
p649
sg10
g33
sg11
g34
sg12
S'2011'
p650
sg14
S'17'
p651
sg16
S'7.6'
p652
sg17
S'01/01'
p653
sg19
g34
sg20
S'DeAngelo Williams'
p654
sg22
g77
sg23
S'L17-45'
p655
sg24
S'20'
p656
sg25
g50
sg26
S'@NO'
p657
sg27
S'12'
p658
sg28
S'53'
p659
sg29
S'20'
p660
ssg128
(dp661
g5
S'9.0'
p662
sg7
S'--'
p663
sg8
g34
sg9
S'--'
p664
sg10
g33
sg11
g34
sg12
S'2011'
p665
sg14
S'16'
p666
sg16
S'9.4'
p667
sg17
S'12/24'
p668
sg19
g50
sg20
S'DeAngelo Williams'
p669
sg22
g77
sg23
S'W48-16'
p670
sg24
S'18'
p671
sg25
g50
sg26
S'TB'
p672
sg27
S'10'
p673
sg28
S'66'
p674
sg29
S'22T'
p675
ssg33
(dp676
g5
S'6.0'
p677
sg7
S'--'
p678
sg8
g33
sg9
S'--'
p679
sg10
g33
sg11
g34
sg12
S'2011'
p680
sg14
g33
sg16
S'2.5'
p681
sg17
S'09/11'
p682
sg19
g34
sg20
S'DeAngelo Williams'
p683
sg22
S'12'
p684
sg23
S'L21-28'
p685
sg24
g127
sg25
g33
sg26
S'@ARI'
p686
sg27
g127
sg28
S'30'
p687
sg29
g74
ssg156
(dp688
g5
S'8.5'
p689
sg7
S'--'
p690
sg8
g33
sg9
S'--'
p691
sg10
g33
sg11
g34
sg12
S'2011'
p692
sg14
g156
sg16
S'1.8'
p693
sg17
S'09/25'
p694
sg19
g34
sg20
S'DeAngelo Williams'
p695
sg22
S'10'
p696
sg23
S'W16-10'
p697
sg24
S'17'
p698
sg25
g50
sg26
S'JAC'
p699
sg27
S'11'
p700
sg28
S'18'
p701
sg29
g59
ssg50
(dp702
g5
S'5.8'
p703
sg7
S'--'
p704
sg8
g33
sg9
S'--'
p705
sg10
g33
sg11
g34
sg12
S'2011'
p706
sg14
g50
sg16
S'2.6'
p707
sg17
S'09/18'
p708
sg19
g34
sg20
S'DeAngelo Williams'
p709
sg22
g59
sg23
S'L23-30'
p710
sg24
S'23'
p711
sg25
g182
sg26
S'GB'
p712
sg27
S'10'
p713
sg28
S'13'
p714
sg29
g127
ssg59
(dp715
g5
S'--'
p716
sg7
S'--'
p717
sg8
g33
sg9
S'--'
p718
sg10
g33
sg11
S'--'
p719
sg12
S'2011'
p720
sg14
g59
sg16
S'12.8'
p721
sg17
S'10/09'
p722
sg19
g33
sg20
S'DeAngelo Williams'
p723
sg22
g111
sg23
S'L27-30'
p724
sg24
S'--'
p725
sg25
S'--'
p726
sg26
S'NO'
p727
sg27
S'--'
p728
sg28
S'115'
p729
sg29
S'69T'
p730
ssg182
(dp731
g5
S'--'
p732
sg7
S'--'
p733
sg8
g33
sg9
S'--'
p734
sg10
g33
sg11
g34
sg12
S'2011'
p735
sg14
g182
sg16
S'8.2'
p736
sg17
S'10/02'
p737
sg19
g34
sg20
S'DeAngelo Williams'
p738
sg22
S'10'
p739
sg23
S'L29-34'
p740
sg24
g34
sg25
g34
sg26
S'@CHI'
p741
sg27
S'--'
p742
sg28
S'82'
p743
sg29
S'26'
p744
ssg77
(dp745
g5
S'--'
p746
sg7
S'--'
p747
sg8
g33
sg9
S'--'
p748
sg10
g33
sg11
S'--'
p749
sg12
S'2011'
p750
sg14
g77
sg16
S'3.5'
p751
sg17
S'10/23'
p752
sg19
g34
sg20
S'DeAngelo Williams'
p753
sg22
S'10'
p754
sg23
S'W33-20'
p755
sg24
S'--'
p756
sg25
S'--'
p757
sg26
S'WAS'
p758
sg27
S'--'
p759
sg28
S'35'
p760
sg29
g74
ssg127
(dp761
g5
S'2.0'
p762
sg7
S'--'
p763
sg8
g33
sg9
S'--'
p764
sg10
g33
sg11
g34
sg12
S'2011'
p765
sg14
g127
sg16
S'3.7'
p766
sg17
S'10/16'
p767
sg19
g34
sg20
S'DeAngelo Williams'
p768
sg22
S'12'
p769
sg23
S'L17-31'
p770
sg24
g50
sg25
g33
sg26
S'@ATL'
p771
sg27
g50
sg28
S'44'
p772
sg29
S'18'
p773
ssg111
(dp774
g5
g6
sg7
g6
sg8
g6
sg9
g6
sg10
g6
sg11
g6
sg12
S'2011'
p775
sg14
g111
sg16
g6
sg17
S'Bye'
p776
sg19
g6
sg20
S'DeAngelo Williams'
p777
sg22
g6
sg23
g6
sg24
g6
sg25
g6
sg26
g6
sg27
g6
sg28
g6
sg29
g6
ssg74
(dp778
g5
S'6.5'
p779
sg7
S'--'
p780
sg8
g33
sg9
S'--'
p781
sg10
g33
sg11
g34
sg12
S'2011'
p782
sg14
g74
sg16
S'3.7'
p783
sg17
S'10/30'
p784
sg19
g34
sg20
S'DeAngelo Williams'
p785
sg22
g77
sg23
S'L21-24'
p786
sg24
S'13'
p787
sg25
g50
sg26
S'MIN'
p788
sg27
g77
sg28
S'26'
p789
sg29
S'12'
p790
sssS'2010'
p791
(dp792
g30
(dp793
g5
S'--'
p794
sg7
S'--'
p795
sg8
g34
sg9
S'--'
p796
sg10
g34
sg11
S'--'
p797
sg12
S'2010'
p798
sg14
S'10'
p799
sg16
S'--'
p800
sg17
S'11/14'
p801
sg19
S'--'
p802
sg20
S'DeAngelo Williams'
p803
sg22
S'--'
p804
sg23
S'L16-31'
p805
sg24
S'--'
p806
sg25
S'--'
p807
sg26
S'@TB'
p808
sg27
S'--'
p809
sg28
S'--'
p810
sg29
S'--'
p811
ssg33
(dp812
g5
S'--'
p813
sg7
S'--'
p814
sg8
g33
sg9
S'--'
p815
sg10
g33
sg11
S'--'
p816
sg12
S'2010'
p817
sg14
g33
sg16
S'3.9'
p818
sg17
S'09/12'
p819
sg19
g34
sg20
S'DeAngelo Williams'
p820
sg22
S'16'
p821
sg23
S'L18-31'
p822
sg24
S'--'
p823
sg25
S'--'
p824
sg26
S'@NYG'
p825
sg27
S'--'
p826
sg28
S'62'
p827
sg29
S'29'
p828
ssg156
(dp829
g5
S'--'
p830
sg7
S'--'
p831
sg8
g33
sg9
S'--'
p832
sg10
g33
sg11
S'--'
p833
sg12
S'2010'
p834
sg14
g156
sg16
S'6.4'
p835
sg17
S'09/26'
p836
sg19
g34
sg20
S'DeAngelo Williams'
p837
sg22
S'10'
p838
sg23
S'L7-20'
p839
sg24
S'--'
p840
sg25
S'--'
p841
sg26
S'CIN'
p842
sg27
S'--'
p843
sg28
S'64'
p844
sg29
S'26'
p845
ssg50
(dp846
g5
S'6.7'
p847
sg7
S'--'
p848
sg8
g33
sg9
S'--'
p849
sg10
g33
sg11
g34
sg12
S'2010'
p850
sg14
g50
sg16
S'3.2'
p851
sg17
S'09/19'
p852
sg19
g34
sg20
S'DeAngelo Williams'
p853
sg22
S'17'
p854
sg23
S'L7-20'
p855
sg24
S'20'
p856
sg25
g156
sg26
S'TB'
p857
sg27
S'11'
p858
sg28
S'54'
p859
sg29
S'11'
p860
ssg59
(dp861
g5
S'2.7'
p862
sg7
S'--'
p863
sg8
g33
sg9
S'--'
p864
sg10
g33
sg11
g34
sg12
S'2010'
p865
sg14
g59
sg16
S'4.3'
p866
sg17
S'10/10'
p867
sg19
g34
sg20
S'DeAngelo Williams'
p868
sg22
S'12'
p869
sg23
S'L6-23'
p870
sg24
g74
sg25
g156
sg26
S'CHI'
p871
sg27
g59
sg28
S'51'
p872
sg29
S'23'
p873
ssg182
(dp874
g5
S'14.0'
p875
sg7
S'--'
p876
sg8
g33
sg9
S'--'
p877
sg10
g33
sg11
g34
sg12
S'2010'
p878
sg14
g182
sg16
S'6.6'
p879
sg17
S'10/03'
p880
sg19
g33
sg20
S'DeAngelo Williams'
p881
sg22
S'13'
p882
sg23
S'L14-16'
p883
sg24
S'14'
p884
sg25
g33
sg26
S'@NO'
p885
sg27
S'14'
p886
sg28
S'86'
p887
sg29
S'39T'
p888
ssg77
(dp889
g5
S'4.8'
p890
sg7
g33
sg8
g33
sg9
g33
sg10
g33
sg11
g34
sg12
S'2010'
p891
sg14
g77
sg16
S'2.3'
p892
sg17
S'10/24'
p893
sg19
g34
sg20
S'DeAngelo Williams'
p894
sg22
S'19'
p895
sg23
S'W23-20'
p896
sg24
S'19'
p897
sg25
g182
sg26
S'SF'
p898
sg27
g74
sg28
S'44'
p899
sg29
S'10'
p900
ssg127
(dp901
g5
g6
sg7
g6
sg8
g6
sg9
g6
sg10
g6
sg11
g6
sg12
S'2010'
p902
sg14
g127
sg16
g6
sg17
S'Bye'
p903
sg19
g6
sg20
S'DeAngelo Williams'
p904
sg22
g6
sg23
g6
sg24
g6
sg25
g6
sg26
g6
sg27
g6
sg28
g6
sg29
g6
ssg111
(dp905
g5
S'--'
p906
sg7
S'--'
p907
sg8
g34
sg9
S'--'
p908
sg10
g34
sg11
S'--'
p909
sg12
S'2010'
p910
sg14
g111
sg16
S'--'
p911
sg17
S'11/07'
p912
sg19
S'--'
p913
sg20
S'DeAngelo Williams'
p914
sg22
S'--'
p915
sg23
S'L3-34'
p916
sg24
S'--'
p917
sg25
S'--'
p918
sg26
S'NO'
p919
sg27
S'--'
p920
sg28
S'--'
p921
sg29
S'--'
p922
ssg74
(dp923
g5
S'--'
p924
sg7
S'--'
p925
sg8
g34
sg9
S'--'
p926
sg10
g34
sg11
S'--'
p927
sg12
S'2010'
p928
sg14
g74
sg16
S'--'
p929
sg17
S'10/31'
p930
sg19
S'--'
p931
sg20
S'DeAngelo Williams'
p932
sg22
S'--'
p933
sg23
S'L10-20'
p934
sg24
S'--'
p935
sg25
S'--'
p936
sg26
S'@STL'
p937
sg27
S'--'
p938
sg28
S'--'
p939
sg29
S'--'
p940
sssS'2013'
p941
(dp942
g3
(dp943
g5
S'5.5'
p944
sg7
S'--'
p945
sg8
g33
sg9
S'--'
p946
sg10
g33
sg11
g34
sg12
S'2013'
p947
sg14
S'11'
p948
sg16
S'2.3'
p949
sg17
S'11/18'
p950
sg19
g34
sg20
S'DeAngelo Williams'
p951
sg22
g127
sg23
S'W24-20'
p952
sg24
S'11'
p953
sg25
g50
sg26
S'NE'
p954
sg27
g77
sg28
S'14'
p955
sg29
g127
ssg30
(dp956
g5
S'--'
p957
sg7
S'--'
p958
sg8
g33
sg9
S'--'
p959
sg10
g33
sg11
g34
sg12
S'2013'
p960
sg14
S'10'
p961
sg16
S'5.8'
p962
sg17
S'11/10'
p963
sg19
g33
sg20
S'DeAngelo Williams'
p964
sg22
g74
sg23
S'W10-9'
p965
sg24
g34
sg25
g34
sg26
S'@SF'
p966
sg27
S'--'
p967
sg28
S'46'
p968
sg29
S'27T'
p969
ssg47
(dp970
g5
S'--'
p971
sg7
S'--'
p972
sg8
g34
sg9
S'--'
p973
sg10
g34
sg11
S'--'
p974
sg12
S'2013'
p975
sg14
S'13'
p976
sg16
S'--'
p977
sg17
S'12/01'
p978
sg19
S'--'
p979
sg20
S'DeAngelo Williams'
p980
sg22
S'--'
p981
sg23
S'W27-6'
p982
sg24
S'--'
p983
sg25
S'--'
p984
sg26
S'TB'
p985
sg27
S'--'
p986
sg28
S'--'
p987
sg29
S'--'
p988
ssg64
(dp989
g5
S'8.0'
p990
sg7
S'--'
p991
sg8
g33
sg9
S'--'
p992
sg10
g33
sg11
g34
sg12
S'2013'
p993
sg14
S'12'
p994
sg16
S'3.1'
p995
sg17
S'11/24'
p996
sg19
g34
sg20
S'DeAngelo Williams'
p997
sg22
S'10'
p998
sg23
S'W20-16'
p999
sg24
S'16'
p1000
sg25
g50
sg26
S'@MIA'
p1001
sg27
S'13'
p1002
sg28
S'31'
p1003
sg29
g111
ssg81
(dp1004
g5
S'29.0'
p1005
sg7
S'--'
p1006
sg8
g33
sg9
S'--'
p1007
sg10
g33
sg11
g33
sg12
S'2013'
p1008
sg14
S'15'
p1009
sg16
S'5.4'
p1010
sg17
S'12/15'
p1011
sg19
g34
sg20
S'DeAngelo Williams'
p1012
sg22
S'15'
p1013
sg23
S'W30-20'
p1014
sg24
S'87'
p1015
sg25
g156
sg26
S'NYJ'
p1016
sg27
S'72T'
p1017
sg28
S'81'
p1018
sg29
S'18'
p1019
ssg97
(dp1020
g5
S'11.0'
p1021
sg7
S'--'
p1022
sg8
g33
sg9
S'--'
p1023
sg10
g33
sg11
g34
sg12
S'2013'
p1024
sg14
S'14'
p1025
sg16
S'4.0'
p1026
sg17
S'12/08'
p1027
sg19
g34
sg20
S'DeAngelo Williams'
p1028
sg22
S'13'
p1029
sg23
S'L13-31'
p1030
sg24
S'11'
p1031
sg25
g33
sg26
S'@NO'
p1032
sg27
S'11'
p1033
sg28
S'52'
p1034
sg29
g111
ssg114
(dp1035
g5
S'37.5'
p1036
sg7
g33
sg8
g33
sg9
g33
sg10
g33
sg11
g34
sg12
S'2013'
p1037
sg14
S'17'
p1038
sg16
S'3.3'
p1039
sg17
S'12/29'
p1040
sg19
g34
sg20
S'DeAngelo Williams'
p1041
sg22
S'10'
p1042
sg23
S'W21-20'
p1043
sg24
S'75'
p1044
sg25
g50
sg26
S'@ATL'
p1045
sg27
S'56'
p1046
sg28
S'33'
p1047
sg29
S'24'
p1048
ssg128
(dp1049
g5
S'0.0'
p1050
sg7
S'--'
p1051
sg8
g33
sg9
S'--'
p1052
sg10
g33
sg11
g34
sg12
S'2013'
p1053
sg14
S'16'
p1054
sg16
S'5.6'
p1055
sg17
S'12/22'
p1056
sg19
g33
sg20
S'DeAngelo Williams'
p1057
sg22
S'12'
p1058
sg23
S'W17-13'
p1059
sg24
g34
sg25
g33
sg26
S'NO'
p1060
sg27
g34
sg28
S'67'
p1061
sg29
S'43T'
p1062
ssg33
(dp1063
g5
S'4.7'
p1064
sg7
g50
sg8
g33
sg9
g33
sg10
g33
sg11
g34
sg12
S'2013'
p1065
sg14
g33
sg16
S'5.1'
p1066
sg17
S'09/08'
p1067
sg19
g34
sg20
S'DeAngelo Williams'
p1068
sg22
S'17'
p1069
sg23
S'L7-12'
p1070
sg24
S'14'
p1071
sg25
g156
sg26
S'SEA'
p1072
sg27
S'10'
p1073
sg28
S'86'
p1074
sg29
S'16'
p1075
ssg156
(dp1076
g5
S'-3.0'
p1077
sg7
S'--'
p1078
sg8
g33
sg9
S'--'
p1079
sg10
g33
sg11
g34
sg12
S'2013'
p1080
sg14
g156
sg16
S'5.2'
p1081
sg17
S'09/22'
p1082
sg19
g34
sg20
S'DeAngelo Williams'
p1083
sg22
S'23'
p1084
sg23
S'W38-0'
p1085
sg24
S'-3'
p1086
sg25
g33
sg26
S'NYG'
p1087
sg27
S'-3'
p1088
sg28
S'120'
p1089
sg29
S'27'
p1090
ssg50
(dp1091
g5
S'--'
p1092
sg7
S'--'
p1093
sg8
g33
sg9
S'--'
p1094
sg10
g33
sg11
S'--'
p1095
sg12
S'2013'
p1096
sg14
g50
sg16
S'3.9'
p1097
sg17
S'09/15'
p1098
sg19
g34
sg20
S'DeAngelo Williams'
p1099
sg22
S'22'
p1100
sg23
S'L23-24'
p1101
sg24
S'--'
p1102
sg25
S'--'
p1103
sg26
S'@BUF'
p1104
sg27
S'--'
p1105
sg28
S'85'
p1106
sg29
S'21'
p1107
ssg59
(dp1108
g5
S'15.0'
p1109
sg7
S'--'
p1110
sg8
g33
sg9
S'--'
p1111
sg10
g33
sg11
g34
sg12
S'2013'
p1112
sg14
g59
sg16
S'3.3'
p1113
sg17
S'10/06'
p1114
sg19
g34
sg20
S'DeAngelo Williams'
p1115
sg22
S'12'
p1116
sg23
S'L6-22'
p1117
sg24
S'30'
p1118
sg25
g50
sg26
S'@ARI'
p1119
sg27
S'19'
p1120
sg28
S'39'
p1121
sg29
g111
ssg182
(dp1122
g5
g6
sg7
g6
sg8
g6
sg9
g6
sg10
g6
sg11
g6
sg12
S'2013'
p1123
sg14
g182
sg16
g6
sg17
S'Bye'
p1124
sg19
g6
sg20
S'DeAngelo Williams'
p1125
sg22
g6
sg23
g6
sg24
g6
sg25
g6
sg26
g6
sg27
g6
sg28
g6
sg29
g6
ssg77
(dp1126
g5
S'19.0'
p1127
sg7
S'--'
p1128
sg8
g33
sg9
S'--'
p1129
sg10
g33
sg11
g34
sg12
S'2013'
p1130
sg14
g77
sg16
S'2.7'
p1131
sg17
S'10/20'
p1132
sg19
g34
sg20
S'DeAngelo Williams'
p1133
sg22
S'15'
p1134
sg23
S'W30-15'
p1135
sg24
S'19'
p1136
sg25
g33
sg26
S'STL'
p1137
sg27
S'19'
p1138
sg28
S'40'
p1139
sg29
S'12'
p1140
ssg127
(dp1141
g5
S'10.6'
p1142
sg7
S'--'
p1143
sg8
g33
sg9
S'--'
p1144
sg10
g33
sg11
g34
sg12
S'2013'
p1145
sg14
g127
sg16
S'3.8'
p1146
sg17
S'10/13'
p1147
sg19
g34
sg20
S'DeAngelo Williams'
p1148
sg22
S'17'
p1149
sg23
S'W35-10'
p1150
sg24
S'53'
p1151
sg25
g59
sg26
S'@MIN'
p1152
sg27
S'18'
p1153
sg28
S'64'
p1154
sg29
S'22'
p1155
ssg111
(dp1156
g5
S'6.0'
p1157
sg7
S'--'
p1158
sg8
g33
sg9
S'--'
p1159
sg10
g33
sg11
g34
sg12
S'2013'
p1160
sg14
g111
sg16
S'3.2'
p1161
sg17
S'11/03'
p1162
sg19
g34
sg20
S'DeAngelo Williams'
p1163
sg22
S'13'
p1164
sg23
S'W34-10'
p1165
sg24
S'12'
p1166
sg25
g50
sg26
S'ATL'
p1167
sg27
g111
sg28
S'42'
p1168
sg29
g111
ssg74
(dp1169
g5
S'8.0'
p1170
sg7
S'--'
p1171
sg8
g33
sg9
S'--'
p1172
sg10
g33
sg11
g34
sg12
S'2013'
p1173
sg14
g74
sg16
S'5.4'
p1174
sg17
S'10/24'
p1175
sg19
g33
sg20
S'DeAngelo Williams'
p1176
sg22
g74
sg23
S'W31-13'
p1177
sg24
g74
sg25
g33
sg26
S'@TB'
p1178
sg27
g74
sg28
S'43'
p1179
sg29
S'12T'
p1180
sssS'2012'
p1181
(dp1182
g3
(dp1183
g5
S'--'
p1184
sg7
S'--'
p1185
sg8
g34
sg9
S'--'
p1186
sg10
g33
sg11
S'--'
p1187
sg12
S'2012'
p1188
sg14
S'11'
p1189
sg16
S'2.6'
p1190
sg17
S'11/18'
p1191
sg19
g34
sg20
S'DeAngelo Williams'
p1192
sg22
g77
sg23
S'L21-27'
p1193
sg24
S'--'
p1194
sg25
S'--'
p1195
sg26
S'TB'
p1196
sg27
S'--'
p1197
sg28
S'18'
p1198
sg29
g59
ssg30
(dp1199
g5
S'17.0'
p1200
sg7
S'--'
p1201
sg8
g34
sg9
S'--'
p1202
sg10
g33
sg11
g34
sg12
S'2012'
p1203
sg14
S'10'
p1204
sg16
S'1.0'
p1205
sg17
S'11/11'
p1206
sg19
g34
sg20
S'DeAngelo Williams'
p1207
sg22
g127
sg23
S'L14-36'
p1208
sg24
S'17'
p1209
sg25
g33
sg26
S'DEN'
p1210
sg27
S'17'
p1211
sg28
g127
sg29
g182
ssg47
(dp1212
g5
S'1.0'
p1213
sg7
S'--'
p1214
sg8
g33
sg9
S'--'
p1215
sg10
g33
sg11
g34
sg12
S'2012'
p1216
sg14
S'13'
p1217
sg16
S'5.6'
p1218
sg17
S'12/02'
p1219
sg19
g34
sg20
S'DeAngelo Williams'
p1220
sg22
S'12'
p1221
sg23
S'L21-27'
p1222
sg24
g33
sg25
g33
sg26
S'@KC'
p1223
sg27
g33
sg28
S'67'
p1224
sg29
S'13'
p1225
ssg64
(dp1226
g5
S'--'
p1227
sg7
S'--'
p1228
sg8
g34
sg9
S'--'
p1229
sg10
g33
sg11
g34
sg12
S'2012'
p1230
sg14
S'12'
p1231
sg16
S'1.9'
p1232
sg17
S'11/26'
p1233
sg19
g34
sg20
S'DeAngelo Williams'
p1234
sg22
S'11'
p1235
sg23
S'W30-22'
p1236
sg24
g34
sg25
g34
sg26
S'@PHI'
p1237
sg27
S'--'
p1238
sg28
S'21'
p1239
sg29
g182
ssg81
(dp1240
g5
S'25.5'
p1241
sg7
g33
sg8
g33
sg9
g33
sg10
g33
sg11
g33
sg12
S'2012'
p1242
sg14
S'15'
p1243
sg16
S'4.2'
p1244
sg17
S'12/16'
p1245
sg19
g34
sg20
S'DeAngelo Williams'
p1246
sg22
S'22'
p1247
sg23
S'W31-7'
p1248
sg24
S'51'
p1249
sg25
g50
sg26
S'@SD'
p1250
sg27
S'45T'
p1251
sg28
S'93'
p1252
sg29
S'12'
p1253
ssg97
(dp1254
g5
S'28.0'
p1255
sg7
S'--'
p1256
sg8
g33
sg9
S'--'
p1257
sg10
g33
sg11
g33
sg12
S'2012'
p1258
sg14
S'14'
p1259
sg16
S'3.3'
p1260
sg17
S'12/09'
p1261
sg19
g34
sg20
S'DeAngelo Williams'
p1262
sg22
S'17'
p1263
sg23
S'W30-20'
p1264
sg24
S'56'
p1265
sg25
g50
sg26
S'ATL'
p1266
sg27
S'53T'
p1267
sg28
S'56'
p1268
sg29
S'13'
p1269
ssg114
(dp1270
g5
S'3.0'
p1271
sg7
S'--'
p1272
sg8
g33
sg9
S'--'
p1273
sg10
g33
sg11
g34
sg12
S'2012'
p1274
sg14
S'17'
p1275
sg16
S'10.0'
p1276
sg17
S'12/30'
p1277
sg19
g50
sg20
S'DeAngelo Williams'
p1278
sg22
S'21'
p1279
sg23
S'W44-38'
p1280
sg24
g156
sg25
g33
sg26
S'@NO'
p1281
sg27
g156
sg28
S'210'
p1282
sg29
S'65'
p1283
ssg128
(dp1284
g5
S'14.5'
p1285
sg7
S'--'
p1286
sg8
g33
sg9
S'--'
p1287
sg10
g33
sg11
g34
sg12
S'2012'
p1288
sg14
S'16'
p1289
sg16
S'1.9'
p1290
sg17
S'12/23'
p1291
sg19
g34
sg20
S'DeAngelo Williams'
p1292
sg22
S'10'
p1293
sg23
S'W17-6'
p1294
sg24
S'29'
p1295
sg25
g50
sg26
S'OAK'
p1296
sg27
S'22'
p1297
sg28
S'19'
p1298
sg29
S'14'
p1299
ssg33
(dp1300
g5
S'5.0'
p1301
sg7
S'--'
p1302
sg8
g33
sg9
S'--'
p1303
sg10
g33
sg11
g34
sg12
S'2012'
p1304
sg14
g33
sg16
S'-0.2'
p1305
sg17
S'09/09'
p1306
sg19
g34
sg20
S'DeAngelo Williams'
p1307
sg22
g127
sg23
S'L10-16'
p1308
sg24
g59
sg25
g33
sg26
S'@TB'
p1309
sg27
g59
sg28
S'-1'
p1310
sg29
g77
ssg156
(dp1311
g5
S'11.5'
p1312
sg7
S'--'
p1313
sg8
g33
sg9
S'--'
p1314
sg10
g33
sg11
g34
sg12
S'2012'
p1315
sg14
g156
sg16
S'4.5'
p1316
sg17
S'09/20'
p1317
sg19
g34
sg20
S'DeAngelo Williams'
p1318
sg22
S'11'
p1319
sg23
S'L7-36'
p1320
sg24
S'23'
p1321
sg25
g50
sg26
S'NYG'
p1322
sg27
S'14'
p1323
sg28
S'50'
p1324
sg29
S'16'
p1325
ssg50
(dp1326
g5
S'--'
p1327
sg7
S'--'
p1328
sg8
g33
sg9
S'--'
p1329
sg10
g33
sg11
S'--'
p1330
sg12
S'2012'
p1331
sg14
g50
sg16
S'4.9'
p1332
sg17
S'09/16'
p1333
sg19
g33
sg20
S'DeAngelo Williams'
p1334
sg22
S'14'
p1335
sg23
S'W35-27'
p1336
sg24
S'--'
p1337
sg25
S'--'
p1338
sg26
S'NO'
p1339
sg27
S'--'
p1340
sg28
S'69'
p1341
sg29
S'27'
p1342
ssg59
(dp1343
g5
S'--'
p1344
sg7
g33
sg8
g33
sg9
g33
sg10
g33
sg11
g34
sg12
S'2012'
p1345
sg14
g59
sg16
S'1.0'
p1346
sg17
S'10/07'
p1347
sg19
g34
sg20
S'DeAngelo Williams'
p1348
sg22
g127
sg23
S'L12-16'
p1349
sg24
g34
sg25
g34
sg26
S'SEA'
p1350
sg27
S'--'
p1351
sg28
g127
sg29
g182
ssg182
(dp1352
g5
S'2.0'
p1353
sg7
S'--'
p1354
sg8
g33
sg9
S'--'
p1355
sg10
g33
sg11
g34
sg12
S'2012'
p1356
sg14
g182
sg16
S'4.5'
p1357
sg17
S'09/30'
p1358
sg19
g33
sg20
S'DeAngelo Williams'
p1359
sg22
S'11'
p1360
sg23
S'L28-30'
p1361
sg24
g50
sg25
g33
sg26
S'@ATL'
p1362
sg27
g50
sg28
S'49'
p1363
sg29
S'13T'
p1364
ssg77
(dp1365
g5
S'--'
p1366
sg7
S'--'
p1367
sg8
g34
sg9
S'--'
p1368
sg10
g33
sg11
S'--'
p1369
sg12
S'2012'
p1370
sg14
g77
sg16
S'2.0'
p1371
sg17
S'10/21'
p1372
sg19
g34
sg20
S'DeAngelo Williams'
p1373
sg22
g50
sg23
S'L14-19'
p1374
sg24
S'--'
p1375
sg25
S'--'
p1376
sg26
S'DAL'
p1377
sg27
S'--'
p1378
sg28
g182
sg29
g156
ssg127
(dp1379
g5
g6
sg7
g6
sg8
g6
sg9
g6
sg10
g6
sg11
g6
sg12
S'2012'
p1380
sg14
g127
sg16
g6
sg17
S'Bye'
p1381
sg19
g6
sg20
S'DeAngelo Williams'
p1382
sg22
g6
sg23
g6
sg24
g6
sg25
g6
sg26
g6
sg27
g6
sg28
g6
sg29
g6
ssg111
(dp1383
g5
S'--'
p1384
sg7
S'--'
p1385
sg8
g34
sg9
S'--'
p1386
sg10
g33
sg11
S'--'
p1387
sg12
S'2012'
p1388
sg14
g111
sg16
S'6.2'
p1389
sg17
S'11/04'
p1390
sg19
g33
sg20
S'DeAngelo Williams'
p1391
sg22
g127
sg23
S'W21-13'
p1392
sg24
S'--'
p1393
sg25
S'--'
p1394
sg26
S'@WAS'
p1395
sg27
S'--'
p1396
sg28
S'37'
p1397
sg29
S'30T'
p1398
ssg74
(dp1399
g5
S'--'
p1400
sg7
S'--'
p1401
sg8
g34
sg9
S'--'
p1402
sg10
g33
sg11
S'--'
p1403
sg12
S'2012'
p1404
sg14
g74
sg16
S'3.0'
p1405
sg17
S'10/28'
p1406
sg19
g34
sg20
S'DeAngelo Williams'
p1407
sg22
S'11'
p1408
sg23
S'L22-23'
p1409
sg24
S'--'
p1410
sg25
S'--'
p1411
sg26
S'@CHI'
p1412
sg27
S'--'
p1413
sg28
S'33'
p1414
sg29
S'17'
p1415
sss.