(dp0
S'2015'
p1
(dp2
S'11'
p3
(dp4
S'RecAvg'
p5
S'6.8'
p6
sS'FUM'
p7
S'1'
p8
sS'GS'
p9
g8
sS'Lost'
p10
g8
sS'G'
p11
g8
sS'RecTD'
p12
S'0'
p13
sS'Year'
p14
S'2015'
p15
sS'WK'
p16
S'11'
p17
sS'RushAvg'
p18
S'4.9'
p19
sS'Game Date'
p20
S'11/22'
p21
sS'RushTD'
p22
g13
sS'Player'
p23
S'DeMarco Murray'
p24
sS'RushAtt'
p25
S'13'
p26
sS'Result'
p27
S'L17-45'
p28
sS'RecYds'
p29
S'27'
p30
sS'Rec'
p31
S'4'
p32
sS'Opp'
p33
S'TB'
p34
sS'RecLng'
p35
S'11'
p36
sS'RushYds'
p37
S'64'
p38
sS'RushLng'
p39
S'16'
p40
ssS'10'
p41
(dp42
g5
S'9.7'
p43
sg7
S'--'
p44
sg9
g8
sg10
S'--'
p45
sg11
g8
sg12
g13
sg14
S'2015'
p46
sg16
S'10'
p47
sg18
S'2.8'
p48
sg20
S'11/15'
p49
sg22
g13
sg23
S'DeMarco Murray'
p50
sg25
S'22'
p51
sg27
S'L19-20'
p52
sg29
S'58'
p53
sg31
S'6'
p54
sg33
S'MIA'
p55
sg35
S'20'
p56
sg37
S'61'
p57
sg39
S'13'
p58
ssS'13'
p59
(dp60
g5
S'--'
p61
sg7
S'--'
p62
sg9
g13
sg10
S'--'
p63
sg11
g8
sg12
S'--'
p64
sg14
S'2015'
p65
sg16
S'13'
p66
sg18
S'3.0'
p67
sg20
S'12/06'
p68
sg22
g13
sg23
S'DeMarco Murray'
p69
sg25
S'8'
p70
sg27
S'W35-28'
p71
sg29
S'--'
p72
sg31
S'--'
p73
sg33
S'@NE'
p74
sg35
S'--'
p75
sg37
S'24'
p76
sg39
S'19'
p77
ssS'12'
p78
(dp79
g5
S'--'
p80
sg7
S'--'
p81
sg9
g8
sg10
S'--'
p82
sg11
g8
sg12
S'--'
p83
sg14
S'2015'
p84
sg16
S'12'
p85
sg18
S'2.1'
p86
sg20
S'11/26'
p87
sg22
g13
sg23
S'DeMarco Murray'
p88
sg25
S'14'
p89
sg27
S'L14-45'
p90
sg29
S'--'
p91
sg31
S'--'
p92
sg33
S'@DET'
p93
sg35
S'--'
p94
sg37
S'30'
p95
sg39
S'19'
p96
ssS'15'
p97
(dp98
g5
S'--'
p99
sg7
S'--'
p100
sg9
g13
sg10
S'--'
p101
sg11
g8
sg12
S'--'
p102
sg14
S'2015'
p103
sg16
S'15'
p104
sg18
S'1.5'
p105
sg20
S'12/20'
p106
sg22
g13
sg23
S'DeMarco Murray'
p107
sg25
S'2'
p108
sg27
S'L17-40'
p109
sg29
S'--'
p110
sg31
S'--'
p111
sg33
S'ARI'
p112
sg35
S'--'
p113
sg37
S'3'
p114
sg39
g108
ssS'14'
p115
(dp116
g5
S'1.5'
p117
sg7
S'--'
p118
sg9
g13
sg10
S'--'
p119
sg11
g8
sg12
g13
sg14
S'2015'
p120
sg16
S'14'
p121
sg18
S'3.1'
p122
sg20
S'12/13'
p123
sg22
g13
sg23
S'DeMarco Murray'
p124
sg25
S'11'
p125
sg27
S'W23-20'
p126
sg29
g114
sg31
g108
sg33
S'BUF'
p127
sg35
g32
sg37
S'34'
p128
sg39
S'7'
p129
ssS'17'
p130
(dp131
g5
S'--'
p132
sg7
g8
sg9
g13
sg10
g8
sg11
g8
sg12
g13
sg14
S'2015'
p133
sg16
S'17'
p134
sg18
S'5.8'
p135
sg20
S'01/03'
p136
sg22
g8
sg23
S'DeMarco Murray'
p137
sg25
S'12'
p138
sg27
S'W35-30'
p139
sg29
g13
sg31
g13
sg33
S'@NYG'
p140
sg35
S'--'
p141
sg37
S'69'
p142
sg39
S'54T'
p143
ssS'16'
p144
(dp145
g5
S'8.0'
p146
sg7
S'--'
p147
sg9
g13
sg10
S'--'
p148
sg11
g8
sg12
g13
sg14
S'2015'
p149
sg16
S'16'
p150
sg18
S'5.4'
p151
sg20
S'12/26'
p152
sg22
g8
sg23
S'DeMarco Murray'
p153
sg25
S'5'
p154
sg27
S'L24-38'
p155
sg29
S'24'
p156
sg31
g114
sg33
S'WAS'
p157
sg35
S'13'
p158
sg37
S'27'
p159
sg39
S'12'
p160
ssg8
(dp161
g5
S'2.8'
p162
sg7
S'--'
p163
sg9
g8
sg10
S'--'
p164
sg11
g8
sg12
g8
sg14
S'2015'
p165
sg16
g8
sg18
S'1.1'
p166
sg20
S'09/14'
p167
sg22
g8
sg23
S'DeMarco Murray'
p168
sg25
g70
sg27
S'L24-26'
p169
sg29
S'11'
p170
sg31
g32
sg33
S'@ATL'
p171
sg35
g54
sg37
S'9'
p172
sg39
S'8T'
p173
ssg114
(dp174
g5
S'--'
p175
sg7
S'--'
p176
sg9
g13
sg10
S'--'
p177
sg11
g13
sg12
S'--'
p178
sg14
S'2015'
p179
sg16
g114
sg18
S'--'
p180
sg20
S'09/27'
p181
sg22
S'--'
p182
sg23
S'DeMarco Murray'
p183
sg25
S'--'
p184
sg27
S'W24-17'
p185
sg29
S'--'
p186
sg31
S'--'
p187
sg33
S'@NYJ'
p188
sg35
S'--'
p189
sg37
S'--'
p190
sg39
S'--'
p191
ssg108
(dp192
g5
S'10.6'
p193
sg7
S'--'
p194
sg9
g8
sg10
S'--'
p195
sg11
g8
sg12
g13
sg14
S'2015'
p196
sg16
g108
sg18
S'0.2'
p197
sg20
S'09/20'
p198
sg22
g13
sg23
S'DeMarco Murray'
p199
sg25
S'13'
p200
sg27
S'L10-20'
p201
sg29
S'53'
p202
sg31
g154
sg33
S'DAL'
p203
sg35
S'22'
p204
sg37
g108
sg39
g172
ssg154
(dp205
g5
S'5.3'
p206
sg7
S'--'
p207
sg9
g8
sg10
S'--'
p208
sg11
g8
sg12
g13
sg14
S'2015'
p209
sg16
g154
sg18
S'4.2'
p210
sg20
S'10/11'
p211
sg22
g8
sg23
S'DeMarco Murray'
p212
sg25
S'20'
p213
sg27
S'W39-17'
p214
sg29
S'37'
p215
sg31
g129
sg33
S'NO'
p216
sg35
S'13'
p217
sg37
S'83'
p218
sg39
S'24'
p219
ssg32
(dp220
g5
S'6.0'
p221
sg7
S'--'
p222
sg9
g13
sg10
S'--'
p223
sg11
g8
sg12
g13
sg14
S'2015'
p224
sg16
g32
sg18
S'4.5'
p225
sg20
S'10/04'
p226
sg22
g13
sg23
S'DeMarco Murray'
p227
sg25
g70
sg27
S'L20-23'
p228
sg29
S'12'
p229
sg31
g108
sg33
S'@WAS'
p230
sg35
g70
sg37
S'36'
p231
sg39
S'30'
p232
ssg129
(dp233
g5
S'2.5'
p234
sg7
S'--'
p235
sg9
g8
sg10
S'--'
p236
sg11
g8
sg12
g13
sg14
S'2015'
p237
sg16
g129
sg18
S'3.6'
p238
sg20
S'10/25'
p239
sg22
g13
sg23
S'DeMarco Murray'
p240
sg25
S'18'
p241
sg27
S'L16-27'
p242
sg29
g154
sg31
g108
sg33
S'@CAR'
p243
sg35
g114
sg37
S'65'
p244
sg39
S'11'
p245
ssg54
(dp246
g5
S'4.7'
p247
sg7
S'--'
p248
sg9
g13
sg10
S'--'
p249
sg11
g8
sg12
g13
sg14
S'2015'
p250
sg16
g54
sg18
S'5.3'
p251
sg20
S'10/19'
p252
sg22
g8
sg23
S'DeMarco Murray'
p253
sg25
S'21'
p254
sg27
S'W27-7'
p255
sg29
S'14'
p256
sg31
g114
sg33
S'NYG'
p257
sg35
g129
sg37
S'112'
p258
sg39
S'21'
p259
ssg172
(dp260
g5
S'13.0'
p261
sg7
S'--'
p262
sg9
g8
sg10
S'--'
p263
sg11
g8
sg12
g13
sg14
S'2015'
p264
sg16
g172
sg18
S'4.6'
p265
sg20
S'11/08'
p266
sg22
g8
sg23
S'DeMarco Murray'
p267
sg25
S'18'
p268
sg27
S'W33-27'
p269
sg29
S'78'
p270
sg31
g54
sg33
S'@DAL'
p271
sg35
S'44'
p272
sg37
S'83'
p273
sg39
S'20'
p274
ssg70
(dp275
g5
S''
p276
sg7
g276
sg9
g276
sg10
g276
sg11
g276
sg12
g276
sg14
S'2015'
p277
sg16
g70
sg18
g276
sg20
S'Bye'
p278
sg22
g276
sg23
S'DeMarco Murray'
p279
sg25
g276
sg27
g276
sg29
g276
sg31
g276
sg33
g276
sg35
g276
sg37
g276
sg39
g276
sssS'2014'
p280
(dp281
g3
(dp282
g5
g276
sg7
g276
sg9
g276
sg10
g276
sg11
g276
sg12
g276
sg14
S'2014'
p283
sg16
S'11'
p284
sg18
g276
sg20
S'Bye'
p285
sg22
g276
sg23
S'DeMarco Murray'
p286
sg25
g276
sg27
g276
sg29
g276
sg31
g276
sg33
g276
sg35
g276
sg37
g276
sg39
g276
ssg41
(dp287
g5
S'5.2'
p288
sg7
S'--'
p289
sg9
g8
sg10
S'--'
p290
sg11
g8
sg12
g13
sg14
S'2014'
p291
sg16
S'10'
p292
sg18
S'5.3'
p293
sg20
S'11/09'
p294
sg22
g13
sg23
S'DeMarco Murray'
p295
sg25
S'19'
p296
sg27
S'W31-17'
p297
sg29
S'31'
p298
sg31
g54
sg33
S'@JAC'
p299
sg35
S'17'
p300
sg37
S'100'
p301
sg39
S'23'
p302
ssg59
(dp303
g5
S'6.7'
p304
sg7
S'--'
p305
sg9
g8
sg10
S'--'
p306
sg11
g8
sg12
g13
sg14
S'2014'
p307
sg16
S'13'
p308
sg18
S'3.7'
p309
sg20
S'11/27'
p310
sg22
g8
sg23
S'DeMarco Murray'
p311
sg25
S'20'
p312
sg27
S'L10-33'
p313
sg29
S'40'
p314
sg31
g54
sg33
S'PHI'
p315
sg35
S'15'
p316
sg37
S'73'
p317
sg39
g172
ssg78
(dp318
g5
S'11.0'
p319
sg7
S'--'
p320
sg9
g8
sg10
S'--'
p321
sg11
g8
sg12
g13
sg14
S'2014'
p322
sg16
S'12'
p323
sg18
S'5.0'
p324
sg20
S'11/23'
p325
sg22
g13
sg23
S'DeMarco Murray'
p326
sg25
S'24'
p327
sg27
S'W31-28'
p328
sg29
S'22'
p329
sg31
g108
sg33
S'@NYG'
p330
sg35
S'15'
p331
sg37
S'121'
p332
sg39
S'18'
p333
ssg97
(dp334
g5
S'3.0'
p335
sg7
S'--'
p336
sg9
g8
sg10
S'--'
p337
sg11
g8
sg12
g13
sg14
S'2014'
p338
sg16
S'15'
p339
sg18
S'2.6'
p340
sg20
S'12/14'
p341
sg22
g108
sg23
S'DeMarco Murray'
p342
sg25
S'31'
p343
sg27
S'W38-27'
p344
sg29
g114
sg31
g8
sg33
S'@PHI'
p345
sg35
g114
sg37
S'81'
p346
sg39
S'21'
p347
ssg115
(dp348
g5
S'5.4'
p349
sg7
S'--'
p350
sg9
g8
sg10
S'--'
p351
sg11
g8
sg12
g13
sg14
S'2014'
p352
sg16
S'14'
p353
sg18
S'5.6'
p354
sg20
S'12/04'
p355
sg22
g8
sg23
S'DeMarco Murray'
p356
sg25
S'32'
p357
sg27
S'W41-28'
p358
sg29
S'49'
p359
sg31
g172
sg33
S'@CHI'
p360
sg35
S'11'
p361
sg37
S'179'
p362
sg39
S'40'
p363
ssg130
(dp364
g5
S'7.0'
p365
sg7
S'--'
p366
sg9
g8
sg10
S'--'
p367
sg11
g8
sg12
g13
sg14
S'2014'
p368
sg16
S'17'
p369
sg18
S'5.0'
p370
sg20
S'12/28'
p371
sg22
g8
sg23
S'DeMarco Murray'
p372
sg25
S'20'
p373
sg27
S'W44-17'
p374
sg29
S'21'
p375
sg31
g114
sg33
S'@WAS'
p376
sg35
S'10'
p377
sg37
S'100'
p378
sg39
S'32'
p379
ssg144
(dp380
g5
S'--'
p381
sg7
S'--'
p382
sg9
g8
sg10
S'--'
p383
sg11
g8
sg12
S'--'
p384
sg14
S'2014'
p385
sg16
S'16'
p386
sg18
S'2.6'
p387
sg20
S'12/21'
p388
sg22
g8
sg23
S'DeMarco Murray'
p389
sg25
S'22'
p390
sg27
S'W42-7'
p391
sg29
S'--'
p392
sg31
S'--'
p393
sg33
S'IND'
p394
sg35
S'--'
p395
sg37
S'58'
p396
sg39
S'11'
p397
ssg8
(dp398
g5
S'8.3'
p399
sg7
g8
sg9
g8
sg10
g8
sg11
g8
sg12
g13
sg14
S'2014'
p400
sg16
g8
sg18
S'5.4'
p401
sg20
S'09/07'
p402
sg22
g8
sg23
S'DeMarco Murray'
p403
sg25
S'22'
p404
sg27
S'L17-28'
p405
sg29
S'25'
p406
sg31
g114
sg33
S'SF'
p407
sg35
S'13'
p408
sg37
S'118'
p409
sg39
S'15'
p410
ssg114
(dp411
g5
S'7.8'
p412
sg7
g8
sg9
g8
sg10
g8
sg11
g8
sg12
g13
sg14
S'2014'
p413
sg16
g114
sg18
S'4.2'
p414
sg20
S'09/21'
p415
sg22
g8
sg23
S'DeMarco Murray'
p416
sg25
S'24'
p417
sg27
S'W34-31'
p418
sg29
S'31'
p419
sg31
g32
sg33
S'@STL'
p420
sg35
S'11'
p421
sg37
S'100'
p422
sg39
S'44'
p423
ssg108
(dp424
g5
S'6.0'
p425
sg7
g8
sg9
g8
sg10
g8
sg11
g8
sg12
g13
sg14
S'2014'
p426
sg16
g108
sg18
S'5.8'
p427
sg20
S'09/14'
p428
sg22
g8
sg23
S'DeMarco Murray'
p429
sg25
S'29'
p430
sg27
S'W26-10'
p431
sg29
g54
sg31
g8
sg33
S'@TEN'
p432
sg35
g54
sg37
S'167'
p433
sg39
S'22'
p434
ssg154
(dp435
g5
S'9.3'
p436
sg7
g8
sg9
g8
sg10
g8
sg11
g8
sg12
g13
sg14
S'2014'
p437
sg16
g154
sg18
S'4.4'
p438
sg20
S'10/05'
p439
sg22
g13
sg23
S'DeMarco Murray'
p440
sg25
S'31'
p441
sg27
S'W20-17'
p442
sg29
S'56'
p443
sg31
g54
sg33
S'HOU'
p444
sg35
S'16'
p445
sg37
S'136'
p446
sg39
S'17'
p447
ssg32
(dp448
g5
S'6.0'
p449
sg7
S'--'
p450
sg9
g8
sg10
S'--'
p451
sg11
g8
sg12
g13
sg14
S'2014'
p452
sg16
g32
sg18
S'6.2'
p453
sg20
S'09/28'
p454
sg22
g108
sg23
S'DeMarco Murray'
p455
sg25
S'24'
p456
sg27
S'W38-17'
p457
sg29
g54
sg31
g8
sg33
S'NO'
p458
sg35
g54
sg37
S'149'
p459
sg39
S'28T'
p460
ssg129
(dp461
g5
S'4.0'
p462
sg7
S'--'
p463
sg9
g8
sg10
S'--'
p464
sg11
g8
sg12
g13
sg14
S'2014'
p465
sg16
g129
sg18
S'4.6'
p466
sg20
S'10/19'
p467
sg22
g8
sg23
S'DeMarco Murray'
p468
sg25
S'28'
p469
sg27
S'W31-21'
p470
sg29
g32
sg31
g8
sg33
S'NYG'
p471
sg35
g32
sg37
S'128'
p472
sg39
S'21'
p473
ssg54
(dp474
g5
S'5.2'
p475
sg7
S'--'
p476
sg9
g8
sg10
S'--'
p477
sg11
g8
sg12
g13
sg14
S'2014'
p478
sg16
g54
sg18
S'4.1'
p479
sg20
S'10/12'
p480
sg22
g8
sg23
S'DeMarco Murray'
p481
sg25
S'28'
p482
sg27
S'W30-23'
p483
sg29
S'31'
p484
sg31
g54
sg33
S'@SEA'
p485
sg35
S'14'
p486
sg37
S'115'
p487
sg39
S'25'
p488
ssg172
(dp489
g5
S'2.8'
p490
sg7
S'--'
p491
sg9
g8
sg10
S'--'
p492
sg11
g8
sg12
g13
sg14
S'2014'
p493
sg16
g172
sg18
S'4.2'
p494
sg20
S'11/02'
p495
sg22
g13
sg23
S'DeMarco Murray'
p496
sg25
S'19'
p497
sg27
S'L17-28'
p498
sg29
S'11'
p499
sg31
g32
sg33
S'ARI'
p500
sg35
g154
sg37
S'79'
p501
sg39
S'17'
p502
ssg70
(dp503
g5
S'20.0'
p504
sg7
g8
sg9
g8
sg10
g8
sg11
g8
sg12
g13
sg14
S'2014'
p505
sg16
g70
sg18
S'7.4'
p506
sg20
S'10/27'
p507
sg22
g13
sg23
S'DeMarco Murray'
p508
sg25
S'19'
p509
sg27
S'L17-20'
p510
sg29
S'80'
p511
sg31
g32
sg33
S'WAS'
p512
sg35
S'34'
p513
sg37
S'141'
p514
sg39
S'51'
p515
sssS'2011'
p516
(dp517
g3
(dp518
g5
S'5.3'
p519
sg7
S'--'
p520
sg9
g8
sg10
S'--'
p521
sg11
g8
sg12
g13
sg14
S'2011'
p522
sg16
S'11'
p523
sg18
S'2.9'
p524
sg20
S'11/20'
p525
sg22
g13
sg23
S'DeMarco Murray'
p526
sg25
S'25'
p527
sg27
S'W27-24'
p528
sg29
S'32'
p529
sg31
g54
sg33
S'@WAS'
p530
sg35
S'14'
p531
sg37
S'73'
p532
sg39
g70
ssg41
(dp533
g5
S'6.0'
p534
sg7
g8
sg9
g8
sg10
g13
sg11
g8
sg12
g13
sg14
S'2011'
p535
sg16
S'10'
p536
sg18
S'6.8'
p537
sg20
S'11/13'
p538
sg22
g8
sg23
S'DeMarco Murray'
p539
sg25
S'20'
p540
sg27
S'W44-7'
p541
sg29
S'36'
p542
sg31
g54
sg33
S'BUF'
p543
sg35
S'17'
p544
sg37
S'135'
p545
sg39
S'25'
p546
ssg59
(dp547
g5
S'--'
p548
sg7
S'--'
p549
sg9
g8
sg10
S'--'
p550
sg11
g8
sg12
S'--'
p551
sg14
S'2011'
p552
sg16
S'13'
p553
sg18
S'3.2'
p554
sg20
S'12/04'
p555
sg22
g13
sg23
S'DeMarco Murray'
p556
sg25
S'12'
p557
sg27
S'L13-19'
p558
sg29
S'--'
p559
sg31
S'--'
p560
sg33
S'@ARI'
p561
sg35
S'--'
p562
sg37
S'38'
p563
sg39
g129
ssg78
(dp564
g5
S'10.3'
p565
sg7
S'--'
p566
sg9
g8
sg10
S'--'
p567
sg11
g8
sg12
g13
sg14
S'2011'
p568
sg16
S'12'
p569
sg18
S'4.0'
p570
sg20
S'11/24'
p571
sg22
g13
sg23
S'DeMarco Murray'
p572
sg25
S'22'
p573
sg27
S'W20-19'
p574
sg29
S'41'
p575
sg31
g32
sg33
S'MIA'
p576
sg35
S'18'
p577
sg37
S'87'
p578
sg39
S'18'
p579
ssg115
(dp580
g5
S'6.0'
p581
sg7
S'--'
p582
sg9
g8
sg10
S'--'
p583
sg11
g8
sg12
g13
sg14
S'2011'
p584
sg16
S'14'
p585
sg18
S'5.0'
p586
sg20
S'12/11'
p587
sg22
g13
sg23
S'DeMarco Murray'
p588
sg25
g154
sg27
S'L34-37'
p589
sg29
g54
sg31
g8
sg33
S'NYG'
p590
sg35
g54
sg37
S'25'
p591
sg39
g172
ssg8
(dp592
g5
S'13.0'
p593
sg7
S'--'
p594
sg9
g13
sg10
S'--'
p595
sg11
g8
sg12
g13
sg14
S'2011'
p596
sg16
g8
sg18
S'0.0'
p597
sg20
S'09/11'
p598
sg22
g13
sg23
S'DeMarco Murray'
p599
sg25
g108
sg27
S'L24-27'
p600
sg29
S'13'
p601
sg31
g8
sg33
S'@NYJ'
p602
sg35
S'13'
p603
sg37
g13
sg39
g13
ssg114
(dp604
g5
S'--'
p605
sg7
S'--'
p606
sg9
g13
sg10
S'--'
p607
sg11
g8
sg12
S'--'
p608
sg14
S'2011'
p609
sg16
g114
sg18
S'3.0'
p610
sg20
S'09/26'
p611
sg22
g13
sg23
S'DeMarco Murray'
p612
sg25
g108
sg27
S'W18-16'
p613
sg29
S'--'
p614
sg31
S'--'
p615
sg33
S'WAS'
p616
sg35
S'--'
p617
sg37
g54
sg39
g54
ssg108
(dp618
g5
S'4.0'
p619
sg7
S'--'
p620
sg9
g13
sg10
S'--'
p621
sg11
g8
sg12
g13
sg14
S'2011'
p622
sg16
g108
sg18
S'3.5'
p623
sg20
S'09/18'
p624
sg22
g13
sg23
S'DeMarco Murray'
p625
sg25
g54
sg27
S'W27-24'
p626
sg29
g32
sg31
g8
sg33
S'@SF'
p627
sg35
g32
sg37
S'21'
p628
sg39
g70
ssg154
(dp629
g5
g276
sg7
g276
sg9
g276
sg10
g276
sg11
g276
sg12
g276
sg14
S'2011'
p630
sg16
g154
sg18
g276
sg20
S'Bye'
p631
sg22
g276
sg23
S'DeMarco Murray'
p632
sg25
g276
sg27
g276
sg29
g276
sg31
g276
sg33
g276
sg35
g276
sg37
g276
sg39
g276
ssg32
(dp633
g5
S'-1.0'
p634
sg7
S'--'
p635
sg9
g13
sg10
S'--'
p636
sg11
g8
sg12
g13
sg14
S'2011'
p637
sg16
g32
sg18
S'3.0'
p638
sg20
S'10/02'
p639
sg22
g13
sg23
S'DeMarco Murray'
p640
sg25
g32
sg27
S'L30-34'
p641
sg29
S'-1'
p642
sg31
g8
sg33
S'DET'
p643
sg35
S'-1'
p644
sg37
S'12'
p645
sg39
g129
ssg129
(dp646
g5
S'--'
p647
sg7
S'--'
p648
sg9
g13
sg10
S'--'
p649
sg11
g8
sg12
g13
sg14
S'2011'
p650
sg16
g129
sg18
S'10.1'
p651
sg20
S'10/23'
p652
sg22
g8
sg23
S'DeMarco Murray'
p653
sg25
S'25'
p654
sg27
S'W34-7'
p655
sg29
g13
sg31
g13
sg33
S'STL'
p656
sg35
S'--'
p657
sg37
S'253'
p658
sg39
S'91T'
p659
ssg54
(dp660
g5
S'7.0'
p661
sg7
S'--'
p662
sg9
g13
sg10
S'--'
p663
sg11
g8
sg12
g13
sg14
S'2011'
p664
sg16
g54
sg18
S'3.1'
p665
sg20
S'10/16'
p666
sg22
g13
sg23
S'DeMarco Murray'
p667
sg25
S'11'
p668
sg27
S'L16-20'
p669
sg29
g129
sg31
g8
sg33
S'@NE'
p670
sg35
g129
sg37
S'34'
p671
sg39
g70
ssg172
(dp672
g5
S'11.8'
p673
sg7
S'--'
p674
sg9
g8
sg10
S'--'
p675
sg11
g8
sg12
g13
sg14
S'2011'
p676
sg16
g172
sg18
S'6.3'
p677
sg20
S'11/06'
p678
sg22
g13
sg23
S'DeMarco Murray'
p679
sg25
S'22'
p680
sg27
S'W23-13'
p681
sg29
S'47'
p682
sg31
g32
sg33
S'SEA'
p683
sg35
S'17'
p684
sg37
S'139'
p685
sg39
S'32'
p686
ssg70
(dp687
g5
S'-2.0'
p688
sg7
S'--'
p689
sg9
g8
sg10
S'--'
p690
sg11
g8
sg12
g13
sg14
S'2011'
p691
sg16
g70
sg18
S'9.3'
p692
sg20
S'10/30'
p693
sg22
g13
sg23
S'DeMarco Murray'
p694
sg25
g70
sg27
S'L7-34'
p695
sg29
S'-2'
p696
sg31
g8
sg33
S'@PHI'
p697
sg35
S'-2'
p698
sg37
S'74'
p699
sg39
S'26'
p700
sssS'2013'
p701
(dp702
g3
(dp703
g5
g276
sg7
g276
sg9
g276
sg10
g276
sg11
g276
sg12
g276
sg14
S'2013'
p704
sg16
S'11'
p705
sg18
g276
sg20
S'Bye'
p706
sg22
g276
sg23
S'DeMarco Murray'
p707
sg25
g276
sg27
g276
sg29
g276
sg31
g276
sg33
g276
sg35
g276
sg37
g276
sg39
g276
ssg41
(dp708
g5
S'6.0'
p709
sg7
S'--'
p710
sg9
g8
sg10
S'--'
p711
sg11
g8
sg12
g13
sg14
S'2013'
p712
sg16
S'10'
p713
sg18
S'5.6'
p714
sg20
S'11/10'
p715
sg22
g8
sg23
S'DeMarco Murray'
p716
sg25
S'16'
p717
sg27
S'L17-49'
p718
sg29
g54
sg31
g8
sg33
S'@NO'
p719
sg35
g54
sg37
S'89'
p720
sg39
S'35'
p721
ssg59
(dp722
g5
S'7.8'
p723
sg7
S'--'
p724
sg9
g8
sg10
S'--'
p725
sg11
g8
sg12
g13
sg14
S'2013'
p726
sg16
S'13'
p727
sg18
S'3.7'
p728
sg20
S'11/28'
p729
sg22
g114
sg23
S'DeMarco Murray'
p730
sg25
S'17'
p731
sg27
S'W31-24'
p732
sg29
S'39'
p733
sg31
g154
sg33
S'OAK'
p734
sg35
S'10'
p735
sg37
S'63'
p736
sg39
S'11'
p737
ssg78
(dp738
g5
S'13.3'
p739
sg7
S'--'
p740
sg9
g8
sg10
S'--'
p741
sg11
g8
sg12
g13
sg14
S'2013'
p742
sg16
S'12'
p743
sg18
S'6.1'
p744
sg20
S'11/24'
p745
sg22
g13
sg23
S'DeMarco Murray'
p746
sg25
S'14'
p747
sg27
S'W24-21'
p748
sg29
S'40'
p749
sg31
g114
sg33
S'@NYG'
p750
sg35
S'22'
p751
sg37
S'86'
p752
sg39
S'30'
p753
ssg97
(dp754
g5
S'4.8'
p755
sg7
S'--'
p756
sg9
g8
sg10
S'--'
p757
sg11
g8
sg12
g13
sg14
S'2013'
p758
sg16
S'15'
p759
sg18
S'7.4'
p760
sg20
S'12/15'
p761
sg22
g8
sg23
S'DeMarco Murray'
p762
sg25
S'18'
p763
sg27
S'L36-37'
p764
sg29
S'19'
p765
sg31
g32
sg33
S'GB'
p766
sg35
S'10'
p767
sg37
S'134'
p768
sg39
S'41'
p769
ssg115
(dp770
g5
S'4.5'
p771
sg7
S'--'
p772
sg9
g8
sg10
S'--'
p773
sg11
g8
sg12
g13
sg14
S'2013'
p774
sg16
S'14'
p775
sg18
S'8.1'
p776
sg20
S'12/09'
p777
sg22
g13
sg23
S'DeMarco Murray'
p778
sg25
S'18'
p779
sg27
S'L28-45'
p780
sg29
g172
sg31
g108
sg33
S'@CHI'
p781
sg35
g54
sg37
S'146'
p782
sg39
S'21'
p783
ssg130
(dp784
g5
S'7.8'
p785
sg7
g8
sg9
g8
sg10
g8
sg11
g8
sg12
g13
sg14
S'2013'
p786
sg16
S'17'
p787
sg18
S'2.8'
p788
sg20
S'12/29'
p789
sg22
g13
sg23
S'DeMarco Murray'
p790
sg25
S'17'
p791
sg27
S'L22-24'
p792
sg29
S'39'
p793
sg31
g154
sg33
S'PHI'
p794
sg35
S'18'
p795
sg37
S'48'
p796
sg39
g172
ssg144
(dp797
g5
S'5.0'
p798
sg7
S'--'
p799
sg9
g8
sg10
S'--'
p800
sg11
g8
sg12
g8
sg14
S'2013'
p801
sg16
S'16'
p802
sg18
S'4.4'
p803
sg20
S'12/22'
p804
sg22
g8
sg23
S'DeMarco Murray'
p805
sg25
S'22'
p806
sg27
S'W24-23'
p807
sg29
S'15'
p808
sg31
g114
sg33
S'@WAS'
p809
sg35
S'10T'
p810
sg37
S'96'
p811
sg39
S'43'
p812
ssg8
(dp813
g5
S'4.9'
p814
sg7
S'--'
p815
sg9
g8
sg10
S'--'
p816
sg11
g8
sg12
g13
sg14
S'2013'
p817
sg16
g8
sg18
S'4.3'
p818
sg20
S'09/08'
p819
sg22
g13
sg23
S'DeMarco Murray'
p820
sg25
S'20'
p821
sg27
S'W36-31'
p822
sg29
S'39'
p823
sg31
g70
sg33
S'NYG'
p824
sg35
S'11'
p825
sg37
S'86'
p826
sg39
S'13'
p827
ssg114
(dp828
g5
S'9.3'
p829
sg7
g8
sg9
g8
sg10
g13
sg11
g8
sg12
g13
sg14
S'2013'
p830
sg16
g114
sg18
S'6.7'
p831
sg20
S'09/22'
p832
sg22
g8
sg23
S'DeMarco Murray'
p833
sg25
S'26'
p834
sg27
S'W31-7'
p835
sg29
S'28'
p836
sg31
g114
sg33
S'STL'
p837
sg35
S'17'
p838
sg37
S'175'
p839
sg39
S'41'
p840
ssg108
(dp841
g5
S'9.8'
p842
sg7
S'--'
p843
sg9
g8
sg10
S'--'
p844
sg11
g8
sg12
g13
sg14
S'2013'
p845
sg16
g108
sg18
S'2.1'
p846
sg20
S'09/15'
p847
sg22
g13
sg23
S'DeMarco Murray'
p848
sg25
S'12'
p849
sg27
S'L16-17'
p850
sg29
S'49'
p851
sg31
g154
sg33
S'@KC'
p852
sg35
S'17'
p853
sg37
S'25'
p854
sg39
g54
ssg154
(dp855
g5
S'5.0'
p856
sg7
S'--'
p857
sg9
g8
sg10
S'--'
p858
sg11
g8
sg12
g13
sg14
S'2013'
p859
sg16
g154
sg18
S'3.6'
p860
sg20
S'10/06'
p861
sg22
g8
sg23
S'DeMarco Murray'
p862
sg25
S'12'
p863
sg27
S'L48-51'
p864
sg29
g154
sg31
g8
sg33
S'DEN'
p865
sg35
g154
sg37
S'43'
p866
sg39
S'13'
p867
ssg32
(dp868
g5
S'4.4'
p869
sg7
g8
sg9
g8
sg10
g13
sg11
g8
sg12
g13
sg14
S'2013'
p870
sg16
g32
sg18
S'5.0'
p871
sg20
S'09/29'
p872
sg22
g13
sg23
S'DeMarco Murray'
p873
sg25
S'14'
p874
sg27
S'L21-30'
p875
sg29
S'22'
p876
sg31
g154
sg33
S'@SD'
p877
sg35
g172
sg37
S'70'
p878
sg39
S'14'
p879
ssg129
(dp880
g5
S'--'
p881
sg7
S'--'
p882
sg9
g13
sg10
S'--'
p883
sg11
g13
sg12
S'--'
p884
sg14
S'2013'
p885
sg16
g129
sg18
S'--'
p886
sg20
S'10/20'
p887
sg22
S'--'
p888
sg23
S'DeMarco Murray'
p889
sg25
S'--'
p890
sg27
S'W17-3'
p891
sg29
S'--'
p892
sg31
S'--'
p893
sg33
S'@PHI'
p894
sg35
S'--'
p895
sg37
S'--'
p896
sg39
S'--'
p897
ssg54
(dp898
g5
S'10.5'
p899
sg7
S'--'
p900
sg9
g8
sg10
S'--'
p901
sg11
g8
sg12
g13
sg14
S'2013'
p902
sg16
g54
sg18
S'4.1'
p903
sg20
S'10/13'
p904
sg22
g8
sg23
S'DeMarco Murray'
p905
sg25
g129
sg27
S'W31-16'
p906
sg29
S'21'
p907
sg31
g108
sg33
S'WAS'
p908
sg35
S'16'
p909
sg37
S'29'
p910
sg39
S'11'
p911
ssg172
(dp912
g5
S'3.2'
p913
sg7
S'--'
p914
sg9
g8
sg10
S'--'
p915
sg11
g8
sg12
g13
sg14
S'2013'
p916
sg16
g172
sg18
S'7.8'
p917
sg20
S'11/03'
p918
sg22
g13
sg23
S'DeMarco Murray'
p919
sg25
g32
sg27
S'W27-23'
p920
sg29
S'19'
p921
sg31
g54
sg33
S'MIN'
p922
sg35
S'12'
p923
sg37
S'31'
p924
sg39
S'27'
p925
ssg70
(dp926
g5
S'--'
p927
sg7
S'--'
p928
sg9
g13
sg10
S'--'
p929
sg11
g13
sg12
S'--'
p930
sg14
S'2013'
p931
sg16
g70
sg18
S'--'
p932
sg20
S'10/27'
p933
sg22
S'--'
p934
sg23
S'DeMarco Murray'
p935
sg25
S'--'
p936
sg27
S'L30-31'
p937
sg29
S'--'
p938
sg31
S'--'
p939
sg33
S'@DET'
p940
sg35
S'--'
p941
sg37
S'--'
p942
sg39
S'--'
p943
sssS'2012'
p944
(dp945
g3
(dp946
g5
S'--'
p947
sg7
S'--'
p948
sg9
g13
sg10
S'--'
p949
sg11
g13
sg12
S'--'
p950
sg14
S'2012'
p951
sg16
S'11'
p952
sg18
S'--'
p953
sg20
S'11/18'
p954
sg22
S'--'
p955
sg23
S'DeMarco Murray'
p956
sg25
S'--'
p957
sg27
S'W23-20'
p958
sg29
S'--'
p959
sg31
S'--'
p960
sg33
S'CLE'
p961
sg35
S'--'
p962
sg37
S'--'
p963
sg39
S'--'
p964
ssg41
(dp965
g5
S'--'
p966
sg7
S'--'
p967
sg9
g13
sg10
S'--'
p968
sg11
g13
sg12
S'--'
p969
sg14
S'2012'
p970
sg16
S'10'
p971
sg18
S'--'
p972
sg20
S'11/11'
p973
sg22
S'--'
p974
sg23
S'DeMarco Murray'
p975
sg25
S'--'
p976
sg27
S'W38-23'
p977
sg29
S'--'
p978
sg31
S'--'
p979
sg33
S'@PHI'
p980
sg35
S'--'
p981
sg37
S'--'
p982
sg39
S'--'
p983
ssg59
(dp984
g5
S'4.8'
p985
sg7
S'--'
p986
sg9
g8
sg10
S'--'
p987
sg11
g8
sg12
g13
sg14
S'2012'
p988
sg16
S'13'
p989
sg18
S'3.6'
p990
sg20
S'12/02'
p991
sg22
g8
sg23
S'DeMarco Murray'
p992
sg25
S'23'
p993
sg27
S'W38-33'
p994
sg29
S'19'
p995
sg31
g32
sg33
S'PHI'
p996
sg35
S'11'
p997
sg37
S'83'
p998
sg39
S'27'
p999
ssg78
(dp1000
g5
S'--'
p1001
sg7
S'--'
p1002
sg9
g13
sg10
S'--'
p1003
sg11
g13
sg12
S'--'
p1004
sg14
S'2012'
p1005
sg16
S'12'
p1006
sg18
S'--'
p1007
sg20
S'11/22'
p1008
sg22
S'--'
p1009
sg23
S'DeMarco Murray'
p1010
sg25
S'--'
p1011
sg27
S'L31-38'
p1012
sg29
S'--'
p1013
sg31
S'--'
p1014
sg33
S'WAS'
p1015
sg35
S'--'
p1016
sg37
S'--'
p1017
sg39
S'--'
p1018
ssg97
(dp1019
g5
S'7.8'
p1020
sg7
g8
sg9
g8
sg10
g8
sg11
g8
sg12
g13
sg14
S'2012'
p1021
sg16
S'15'
p1022
sg18
S'5.8'
p1023
sg20
S'12/16'
p1024
sg22
g8
sg23
S'DeMarco Murray'
p1025
sg25
S'14'
p1026
sg27
S'W27-24'
p1027
sg29
S'31'
p1028
sg31
g32
sg33
S'PIT'
p1029
sg35
S'13'
p1030
sg37
S'81'
p1031
sg39
S'28'
p1032
ssg115
(dp1033
g5
S'5.5'
p1034
sg7
S'--'
p1035
sg9
g8
sg10
S'--'
p1036
sg11
g8
sg12
g13
sg14
S'2012'
p1037
sg16
S'14'
p1038
sg18
S'2.5'
p1039
sg20
S'12/09'
p1040
sg22
g8
sg23
S'DeMarco Murray'
p1041
sg25
S'21'
p1042
sg27
S'W20-19'
p1043
sg29
S'22'
p1044
sg31
g32
sg33
S'@CIN'
p1045
sg35
g129
sg37
S'53'
p1046
sg39
g129
ssg130
(dp1047
g5
S'5.0'
p1048
sg7
S'--'
p1049
sg9
g8
sg10
S'--'
p1050
sg11
g8
sg12
g13
sg14
S'2012'
p1051
sg16
S'17'
p1052
sg18
S'4.5'
p1053
sg20
S'12/30'
p1054
sg22
g13
sg23
S'DeMarco Murray'
p1055
sg25
S'17'
p1056
sg27
S'L18-28'
p1057
sg29
S'10'
p1058
sg31
g108
sg33
S'@WAS'
p1059
sg35
g54
sg37
S'76'
p1060
sg39
S'21'
p1061
ssg144
(dp1062
g5
S'12.8'
p1063
sg7
g8
sg9
g8
sg10
g8
sg11
g8
sg12
g13
sg14
S'2012'
p1064
sg16
S'16'
p1065
sg18
S'3.6'
p1066
sg20
S'12/23'
p1067
sg22
g13
sg23
S'DeMarco Murray'
p1068
sg25
S'11'
p1069
sg27
S'L31-34'
p1070
sg29
S'51'
p1071
sg31
g32
sg33
S'NO'
p1072
sg35
S'22'
p1073
sg37
S'40'
p1074
sg39
g172
ssg8
(dp1075
g5
S'4.5'
p1076
sg7
S'--'
p1077
sg9
g8
sg10
S'--'
p1078
sg11
g8
sg12
g13
sg14
S'2012'
p1079
sg16
g8
sg18
S'6.6'
p1080
sg20
S'09/05'
p1081
sg22
g13
sg23
S'DeMarco Murray'
p1082
sg25
S'20'
p1083
sg27
S'W24-17'
p1084
sg29
g172
sg31
g108
sg33
S'@NYG'
p1085
sg35
g172
sg37
S'131'
p1086
sg39
S'48'
p1087
ssg114
(dp1088
g5
S'5.7'
p1089
sg7
S'--'
p1090
sg9
g8
sg10
S'--'
p1091
sg11
g8
sg12
g13
sg14
S'2012'
p1092
sg16
g114
sg18
S'2.1'
p1093
sg20
S'09/23'
p1094
sg22
g8
sg23
S'DeMarco Murray'
p1095
sg25
S'18'
p1096
sg27
S'W16-10'
p1097
sg29
S'17'
p1098
sg31
g114
sg33
S'TB'
p1099
sg35
S'14'
p1100
sg37
S'38'
p1101
sg39
S'11T'
p1102
ssg108
(dp1103
g5
S'7.8'
p1104
sg7
S'--'
p1105
sg9
g8
sg10
S'--'
p1106
sg11
g8
sg12
g13
sg14
S'2012'
p1107
sg16
g108
sg18
S'3.7'
p1108
sg20
S'09/16'
p1109
sg22
g13
sg23
S'DeMarco Murray'
p1110
sg25
S'12'
p1111
sg27
S'L7-27'
p1112
sg29
S'31'
p1113
sg31
g32
sg33
S'@SEA'
p1114
sg35
S'15'
p1115
sg37
S'44'
p1116
sg39
g172
ssg154
(dp1117
g5
g276
sg7
g276
sg9
g276
sg10
g276
sg11
g276
sg12
g276
sg14
S'2012'
p1118
sg16
g154
sg18
g276
sg20
S'Bye'
p1119
sg22
g276
sg23
S'DeMarco Murray'
p1120
sg25
g276
sg27
g276
sg29
g276
sg31
g276
sg33
g276
sg35
g276
sg37
g276
sg39
g276
ssg32
(dp1121
g5
S'8.1'
p1122
sg7
g8
sg9
g8
sg10
g13
sg11
g8
sg12
g13
sg14
S'2012'
p1123
sg16
g32
sg18
S'2.2'
p1124
sg20
S'10/01'
p1125
sg22
g13
sg23
S'DeMarco Murray'
p1126
sg25
S'11'
p1127
sg27
S'L18-34'
p1128
sg29
S'57'
p1129
sg31
g129
sg33
S'CHI'
p1130
sg35
S'20'
p1131
sg37
S'24'
p1132
sg39
S'11'
p1133
ssg129
(dp1134
g5
S'--'
p1135
sg7
S'--'
p1136
sg9
g13
sg10
S'--'
p1137
sg11
g13
sg12
S'--'
p1138
sg14
S'2012'
p1139
sg16
g129
sg18
S'--'
p1140
sg20
S'10/21'
p1141
sg22
S'--'
p1142
sg23
S'DeMarco Murray'
p1143
sg25
S'--'
p1144
sg27
S'W19-14'
p1145
sg29
S'--'
p1146
sg31
S'--'
p1147
sg33
S'@CAR'
p1148
sg35
S'--'
p1149
sg37
S'--'
p1150
sg39
S'--'
p1151
ssg54
(dp1152
g5
S'4.0'
p1153
sg7
S'--'
p1154
sg9
g8
sg10
S'--'
p1155
sg11
g8
sg12
g13
sg14
S'2012'
p1156
sg16
g54
sg18
S'6.6'
p1157
sg20
S'10/14'
p1158
sg22
g13
sg23
S'DeMarco Murray'
p1159
sg25
S'14'
p1160
sg27
S'L29-31'
p1161
sg29
g32
sg31
g8
sg33
S'@BAL'
p1162
sg35
g32
sg37
S'93'
p1163
sg39
S'28'
p1164
ssg172
(dp1165
g5
S'--'
p1166
sg7
S'--'
p1167
sg9
g13
sg10
S'--'
p1168
sg11
g13
sg12
S'--'
p1169
sg14
S'2012'
p1170
sg16
g172
sg18
S'--'
p1171
sg20
S'11/04'
p1172
sg22
S'--'
p1173
sg23
S'DeMarco Murray'
p1174
sg25
S'--'
p1175
sg27
S'L13-19'
p1176
sg29
S'--'
p1177
sg31
S'--'
p1178
sg33
S'@ATL'
p1179
sg35
S'--'
p1180
sg37
S'--'
p1181
sg39
S'--'
p1182
ssg70
(dp1183
g5
S'--'
p1184
sg7
S'--'
p1185
sg9
g13
sg10
S'--'
p1186
sg11
g13
sg12
S'--'
p1187
sg14
S'2012'
p1188
sg16
g70
sg18
S'--'
p1189
sg20
S'10/28'
p1190
sg22
S'--'
p1191
sg23
S'DeMarco Murray'
p1192
sg25
S'--'
p1193
sg27
S'L24-29'
p1194
sg29
S'--'
p1195
sg31
S'--'
p1196
sg33
S'NYG'
p1197
sg35
S'--'
p1198
sg37
S'--'
p1199
sg39
S'--'
p1200
sss.