(dp0
S'2015'
p1
(dp2
S'11'
p3
(dp4
S'RecAvg'
p5
S'--'
p6
sS'FUM'
p7
S'--'
p8
sS'GS'
p9
S'0'
p10
sS'Lost'
p11
S'--'
p12
sS'G'
p13
S'1'
p14
sS'RecTD'
p15
S'--'
p16
sS'Year'
p17
S'2015'
p18
sS'WK'
p19
S'11'
p20
sS'RushAvg'
p21
S'3.9'
p22
sS'Game Date'
p23
S'11/19'
p24
sS'RushTD'
p25
g10
sS'Player'
p26
S'Denard Robinson'
p27
sS'RushAtt'
p28
S'7'
p29
sS'Result'
p30
S'W19-13'
p31
sS'RecYds'
p32
S'--'
p33
sS'Rec'
p34
S'--'
p35
sS'Opp'
p36
S'TEN'
p37
sS'RecLng'
p38
S'--'
p39
sS'RushYds'
p40
S'27'
p41
sS'RushLng'
p42
S'10'
p43
ssS'10'
p44
(dp45
g5
S'--'
p46
sg7
S'--'
p47
sg9
g10
sg11
S'--'
p48
sg13
g14
sg15
g10
sg17
S'2015'
p49
sg19
S'10'
p50
sg21
S'1.0'
p51
sg23
S'11/15'
p52
sg25
g10
sg26
S'Denard Robinson'
p53
sg28
g14
sg30
S'W22-20'
p54
sg32
g10
sg34
g10
sg36
S'@BAL'
p55
sg38
S'--'
p56
sg40
g14
sg42
g14
ssS'13'
p57
(dp58
g5
S'2.0'
p59
sg7
S'--'
p60
sg9
g10
sg11
S'--'
p61
sg13
g14
sg15
g10
sg17
S'2015'
p62
sg19
S'13'
p63
sg21
S'7.0'
p64
sg23
S'12/06'
p65
sg25
g10
sg26
S'Denard Robinson'
p66
sg28
S'3'
p67
sg30
S'L39-42'
p68
sg32
S'2'
p69
sg34
g14
sg36
S'@TEN'
p70
sg38
g69
sg40
S'21'
p71
sg42
S'13'
p72
ssS'12'
p73
(dp74
g5
S'9.0'
p75
sg7
S'--'
p76
sg9
g10
sg11
S'--'
p77
sg13
g14
sg15
g10
sg17
S'2015'
p78
sg19
S'12'
p79
sg21
S'7.7'
p80
sg23
S'11/29'
p81
sg25
g10
sg26
S'Denard Robinson'
p82
sg28
g67
sg30
S'L25-31'
p83
sg32
S'9'
p84
sg34
g14
sg36
S'SD'
p85
sg38
g84
sg40
S'23'
p86
sg42
S'19'
p87
ssS'15'
p88
(dp89
g5
S'5.8'
p90
sg7
g69
sg9
g14
sg11
g10
sg13
g14
sg15
g10
sg17
S'2015'
p91
sg19
S'15'
p92
sg21
S'2.9'
p93
sg23
S'12/20'
p94
sg25
g10
sg26
S'Denard Robinson'
p95
sg28
S'14'
p96
sg30
S'L17-23'
p97
sg32
S'46'
p98
sg34
S'8'
p99
sg36
S'ATL'
p100
sg38
S'13'
p101
sg40
S'41'
p102
sg42
g84
ssS'14'
p103
(dp104
g5
S'12.0'
p105
sg7
S'--'
p106
sg9
g10
sg11
S'--'
p107
sg13
g14
sg15
g10
sg17
S'2015'
p108
sg19
S'14'
p109
sg21
S'5.4'
p110
sg23
S'12/13'
p111
sg25
g14
sg26
S'Denard Robinson'
p112
sg28
S'14'
p113
sg30
S'W51-16'
p114
sg32
S'12'
p115
sg34
g14
sg36
S'IND'
p116
sg38
S'12'
p117
sg40
S'75'
p118
sg42
S'31'
p119
ssS'17'
p120
(dp121
g5
S'--'
p122
sg7
g14
sg9
g14
sg11
g14
sg13
g14
sg15
g10
sg17
S'2015'
p123
sg19
S'17'
p124
sg21
S'1.8'
p125
sg23
S'01/03'
p126
sg25
g10
sg26
S'Denard Robinson'
p127
sg28
S'5'
p128
sg30
S'L6-30'
p129
sg32
g10
sg34
g10
sg36
S'@HOU'
p130
sg38
S'--'
p131
sg40
g84
sg42
g67
ssS'16'
p132
(dp133
g5
S'10.0'
p134
sg7
S'--'
p135
sg9
g14
sg11
S'--'
p136
sg13
g14
sg15
g10
sg17
S'2015'
p137
sg19
S'16'
p138
sg21
S'3.3'
p139
sg23
S'12/27'
p140
sg25
g10
sg26
S'Denard Robinson'
p141
sg28
S'6'
p142
sg30
S'L27-38'
p143
sg32
S'50'
p144
sg34
g128
sg36
S'@NO'
p145
sg38
S'16'
p146
sg40
S'20'
p147
sg42
g29
ssg14
(dp148
g5
S'13.0'
p149
sg7
S'--'
p150
sg9
g10
sg11
S'--'
p151
sg13
g14
sg15
g10
sg17
S'2015'
p152
sg19
g14
sg21
S'3.8'
p153
sg23
S'09/13'
p154
sg25
g10
sg26
S'Denard Robinson'
p155
sg28
g128
sg30
S'L9-20'
p156
sg32
S'26'
p157
sg34
g69
sg36
S'CAR'
p158
sg38
S'15'
p159
sg40
S'19'
p160
sg42
g142
ssg67
(dp161
g5
S'--'
p162
sg7
S'--'
p163
sg9
g10
sg11
S'--'
p164
sg13
g10
sg15
S'--'
p165
sg17
S'2015'
p166
sg19
g67
sg21
S'--'
p167
sg23
S'09/27'
p168
sg25
S'--'
p169
sg26
S'Denard Robinson'
p170
sg28
S'--'
p171
sg30
S'L17-51'
p172
sg32
S'--'
p173
sg34
S'--'
p174
sg36
S'@NE'
p175
sg38
S'--'
p176
sg40
S'--'
p177
sg42
S'--'
p178
ssg69
(dp179
g5
S'--'
p180
sg7
S'--'
p181
sg9
g10
sg11
S'--'
p182
sg13
g14
sg15
S'--'
p183
sg17
S'2015'
p184
sg19
g69
sg21
S'9.0'
p185
sg23
S'09/20'
p186
sg25
g10
sg26
S'Denard Robinson'
p187
sg28
g14
sg30
S'W23-20'
p188
sg32
S'--'
p189
sg34
S'--'
p190
sg36
S'MIA'
p191
sg38
S'--'
p192
sg40
g84
sg42
g84
ssg128
(dp193
g5
S'--'
p194
sg7
S'--'
p195
sg9
g10
sg11
S'--'
p196
sg13
g10
sg15
S'--'
p197
sg17
S'2015'
p198
sg19
g128
sg21
S'--'
p199
sg23
S'10/11'
p200
sg25
S'--'
p201
sg26
S'Denard Robinson'
p202
sg28
S'--'
p203
sg30
S'L31-38'
p204
sg32
S'--'
p205
sg34
S'--'
p206
sg36
S'@TB'
p207
sg38
S'--'
p208
sg40
S'--'
p209
sg42
S'--'
p210
ssS'4'
p211
(dp212
g5
S'--'
p213
sg7
S'--'
p214
sg9
g10
sg11
S'--'
p215
sg13
g10
sg15
S'--'
p216
sg17
S'2015'
p217
sg19
g211
sg21
S'--'
p218
sg23
S'10/04'
p219
sg25
S'--'
p220
sg26
S'Denard Robinson'
p221
sg28
S'--'
p222
sg30
S'L13-16'
p223
sg32
S'--'
p224
sg34
S'--'
p225
sg36
S'@IND'
p226
sg38
S'--'
p227
sg40
S'--'
p228
sg42
S'--'
p229
ssg29
(dp230
g5
S'--'
p231
sg7
S'--'
p232
sg9
g10
sg11
S'--'
p233
sg13
g14
sg15
S'--'
p234
sg17
S'2015'
p235
sg19
g29
sg21
S'--'
p236
sg23
S'10/25'
p237
sg25
S'--'
p238
sg26
S'Denard Robinson'
p239
sg28
S'--'
p240
sg30
S'W34-31'
p241
sg32
S'--'
p242
sg34
S'--'
p243
sg36
S'BUF'
p244
sg38
S'--'
p245
sg40
S'--'
p246
sg42
S'--'
p247
ssg142
(dp248
g5
S'6.3'
p249
sg7
S'--'
p250
sg9
g10
sg11
S'--'
p251
sg13
g14
sg15
g10
sg17
S'2015'
p252
sg19
g142
sg21
S'2.7'
p253
sg23
S'10/18'
p254
sg25
g10
sg26
S'Denard Robinson'
p255
sg28
g29
sg30
S'L20-31'
p256
sg32
S'19'
p257
sg34
g67
sg36
S'HOU'
p258
sg38
g99
sg40
S'19'
p259
sg42
g211
ssg84
(dp260
g5
S'--'
p261
sg7
S'--'
p262
sg9
g10
sg11
S'--'
p263
sg13
g14
sg15
g10
sg17
S'2015'
p264
sg19
g84
sg21
S'2.0'
p265
sg23
S'11/08'
p266
sg25
g10
sg26
S'Denard Robinson'
p267
sg28
g14
sg30
S'L23-28'
p268
sg32
g10
sg34
g10
sg36
S'@NYJ'
p269
sg38
S'--'
p270
sg40
g69
sg42
g69
ssg99
(dp271
g5
S''
p272
sg7
g272
sg9
g272
sg11
g272
sg13
g272
sg15
g272
sg17
S'2015'
p273
sg19
g99
sg21
g272
sg23
S'Bye'
p274
sg25
g272
sg26
S'Denard Robinson'
p275
sg28
g272
sg30
g272
sg32
g272
sg34
g272
sg36
g272
sg38
g272
sg40
g272
sg42
g272
sssS'2014'
p276
(dp277
g3
(dp278
g5
g272
sg7
g272
sg9
g272
sg11
g272
sg13
g272
sg15
g272
sg17
S'2014'
p279
sg19
S'11'
p280
sg21
g272
sg23
S'Bye'
p281
sg25
g272
sg26
S'Denard Robinson'
p282
sg28
g272
sg30
g272
sg32
g272
sg34
g272
sg36
g272
sg38
g272
sg40
g272
sg42
g272
ssg44
(dp283
g5
S'5.0'
p284
sg7
g14
sg9
g14
sg11
g14
sg13
g14
sg15
g10
sg17
S'2014'
p285
sg19
S'10'
p286
sg21
S'4.0'
p287
sg23
S'11/09'
p288
sg25
g69
sg26
S'Denard Robinson'
p289
sg28
S'15'
p290
sg30
S'L17-31'
p291
sg32
S'10'
p292
sg34
g69
sg36
S'DAL'
p293
sg38
g84
sg40
S'60'
p294
sg42
S'32T'
p295
ssg57
(dp296
g5
S'3.3'
p297
sg7
S'--'
p298
sg9
g14
sg11
S'--'
p299
sg13
g14
sg15
g10
sg17
S'2014'
p300
sg19
S'13'
p301
sg21
S'4.0'
p302
sg23
S'11/30'
p303
sg25
g10
sg26
S'Denard Robinson'
p304
sg28
S'11'
p305
sg30
S'W25-24'
p306
sg32
S'10'
p307
sg34
g67
sg36
S'NYG'
p308
sg38
g29
sg40
S'44'
p309
sg42
S'17'
p310
ssg73
(dp311
g5
S'11.8'
p312
sg7
g14
sg9
g14
sg11
g14
sg13
g14
sg15
g10
sg17
S'2014'
p313
sg19
S'12'
p314
sg21
S'1.8'
p315
sg23
S'11/23'
p316
sg25
g10
sg26
S'Denard Robinson'
p317
sg28
S'14'
p318
sg30
S'L3-23'
p319
sg32
S'47'
p320
sg34
g211
sg36
S'@IND'
p321
sg38
S'19'
p322
sg40
S'25'
p323
sg42
g84
ssg88
(dp324
g5
S'--'
p325
sg7
S'--'
p326
sg9
g10
sg11
S'--'
p327
sg13
g10
sg15
S'--'
p328
sg17
S'2014'
p329
sg19
S'15'
p330
sg21
S'--'
p331
sg23
S'12/14'
p332
sg25
S'--'
p333
sg26
S'Denard Robinson'
p334
sg28
S'--'
p335
sg30
S'L12-20'
p336
sg32
S'--'
p337
sg34
S'--'
p338
sg36
S'@BAL'
p339
sg38
S'--'
p340
sg40
S'--'
p341
sg42
S'--'
p342
ssg103
(dp343
g5
S'--'
p344
sg7
S'--'
p345
sg9
g14
sg11
S'--'
p346
sg13
g14
sg15
g10
sg17
S'2014'
p347
sg19
S'14'
p348
sg21
S'3.0'
p349
sg23
S'12/07'
p350
sg25
g10
sg26
S'Denard Robinson'
p351
sg28
S'10'
p352
sg30
S'L13-27'
p353
sg32
g10
sg34
g10
sg36
S'HOU'
p354
sg38
S'--'
p355
sg40
S'30'
p356
sg42
S'16'
p357
ssg14
(dp358
g5
S'3.0'
p359
sg7
S'--'
p360
sg9
g10
sg11
S'--'
p361
sg13
g14
sg15
g10
sg17
S'2014'
p362
sg19
g14
sg21
S'2.7'
p363
sg23
S'09/07'
p364
sg25
g10
sg26
S'Denard Robinson'
p365
sg28
g67
sg30
S'L17-34'
p366
sg32
g67
sg34
g14
sg36
S'@PHI'
p367
sg38
g67
sg40
g99
sg42
g142
ssg67
(dp368
g5
S'--'
p369
sg7
S'--'
p370
sg9
g10
sg11
S'--'
p371
sg13
g14
sg15
g10
sg17
S'2014'
p372
sg19
g67
sg21
S'4.1'
p373
sg23
S'09/21'
p374
sg25
g10
sg26
S'Denard Robinson'
p375
sg28
g99
sg30
S'L17-44'
p376
sg32
g10
sg34
g10
sg36
S'IND'
p377
sg38
S'--'
p378
sg40
S'33'
p379
sg42
S'10'
p380
ssg69
(dp381
g5
S'7.0'
p382
sg7
S'--'
p383
sg9
g10
sg11
S'--'
p384
sg13
g14
sg15
g10
sg17
S'2014'
p385
sg19
g69
sg21
S'--'
p386
sg23
S'09/14'
p387
sg25
S'--'
p388
sg26
S'Denard Robinson'
p389
sg28
S'--'
p390
sg30
S'L10-41'
p391
sg32
S'14'
p392
sg34
g69
sg36
S'@WAS'
p393
sg38
g99
sg40
S'--'
p394
sg42
S'--'
p395
ssg128
(dp396
g5
S'-0.5'
p397
sg7
S'--'
p398
sg9
g10
sg11
S'--'
p399
sg13
g14
sg15
g10
sg17
S'2014'
p400
sg19
g128
sg21
S'2.0'
p401
sg23
S'10/05'
p402
sg25
g10
sg26
S'Denard Robinson'
p403
sg28
g67
sg30
S'L9-17'
p404
sg32
S'-1'
p405
sg34
g69
sg36
S'PIT'
p406
sg38
g14
sg40
g142
sg42
g142
ssg211
(dp407
g5
S'2.3'
p408
sg7
S'--'
p409
sg9
g14
sg11
S'--'
p410
sg13
g14
sg15
g10
sg17
S'2014'
p411
sg19
g211
sg21
S'2.8'
p412
sg23
S'09/28'
p413
sg25
g10
sg26
S'Denard Robinson'
p414
sg28
g84
sg30
S'L14-33'
p415
sg32
g29
sg34
g67
sg36
S'@SD'
p416
sg38
g67
sg40
S'25'
p417
sg42
S'10'
p418
ssg29
(dp419
g5
S'--'
p420
sg7
S'--'
p421
sg9
g14
sg11
S'--'
p422
sg13
g14
sg15
g10
sg17
S'2014'
p423
sg19
g29
sg21
S'5.8'
p424
sg23
S'10/19'
p425
sg25
g14
sg26
S'Denard Robinson'
p426
sg28
S'22'
p427
sg30
S'W24-6'
p428
sg32
g10
sg34
g10
sg36
S'CLE'
p429
sg38
S'--'
p430
sg40
S'127'
p431
sg42
S'20'
p432
ssg142
(dp433
g5
S'4.7'
p434
sg7
S'--'
p435
sg9
g14
sg11
S'--'
p436
sg13
g14
sg15
g10
sg17
S'2014'
p437
sg19
g142
sg21
S'4.4'
p438
sg23
S'10/12'
p439
sg25
g10
sg26
S'Denard Robinson'
p440
sg28
g128
sg30
S'L14-16'
p441
sg32
S'14'
p442
sg34
g67
sg36
S'@TEN'
p443
sg38
S'12'
p444
sg40
S'22'
p445
sg42
g142
ssg84
(dp446
g5
S'5.0'
p447
sg7
S'--'
p448
sg9
g14
sg11
S'--'
p449
sg13
g14
sg15
g10
sg17
S'2014'
p450
sg19
g84
sg21
S'5.5'
p451
sg23
S'11/02'
p452
sg25
g14
sg26
S'Denard Robinson'
p453
sg28
S'17'
p454
sg30
S'L23-33'
p455
sg32
S'10'
p456
sg34
g69
sg36
S'@CIN'
p457
sg38
S'12'
p458
sg40
S'94'
p459
sg42
S'39'
p460
ssg99
(dp461
g5
S'10.0'
p462
sg7
S'--'
p463
sg9
g14
sg11
S'--'
p464
sg13
g14
sg15
g10
sg17
S'2014'
p465
sg19
g99
sg21
S'6.0'
p466
sg23
S'10/26'
p467
sg25
g10
sg26
S'Denard Robinson'
p468
sg28
S'18'
p469
sg30
S'L13-27'
p470
sg32
S'10'
p471
sg34
g14
sg36
S'MIA'
p472
sg38
S'10'
p473
sg40
S'108'
p474
sg42
S'41'
p475
sssS'2013'
p476
(dp477
g3
(dp478
g5
S'--'
p479
sg7
S'--'
p480
sg9
g10
sg11
S'--'
p481
sg13
g14
sg15
S'--'
p482
sg17
S'2013'
p483
sg19
S'11'
p484
sg21
S'--'
p485
sg23
S'11/17'
p486
sg25
S'--'
p487
sg26
S'Denard Robinson'
p488
sg28
S'--'
p489
sg30
S'L14-27'
p490
sg32
S'--'
p491
sg34
S'--'
p492
sg36
S'ARI'
p493
sg38
S'--'
p494
sg40
S'--'
p495
sg42
S'--'
p496
ssg44
(dp497
g5
S'--'
p498
sg7
g14
sg9
g10
sg11
g10
sg13
g14
sg15
S'--'
p499
sg17
S'2013'
p500
sg19
S'10'
p501
sg21
S'0.8'
p502
sg23
S'11/10'
p503
sg25
g10
sg26
S'Denard Robinson'
p504
sg28
g211
sg30
S'W29-27'
p505
sg32
S'--'
p506
sg34
S'--'
p507
sg36
S'@TEN'
p508
sg38
S'--'
p509
sg40
g67
sg42
g69
ssg57
(dp510
g5
S'--'
p511
sg7
S'--'
p512
sg9
g10
sg11
S'--'
p513
sg13
g14
sg15
S'--'
p514
sg17
S'2013'
p515
sg19
S'13'
p516
sg21
S'--'
p517
sg23
S'12/01'
p518
sg25
S'--'
p519
sg26
S'Denard Robinson'
p520
sg28
S'--'
p521
sg30
S'W32-28'
p522
sg32
S'--'
p523
sg34
S'--'
p524
sg36
S'@CLE'
p525
sg38
S'--'
p526
sg40
S'--'
p527
sg42
S'--'
p528
ssg73
(dp529
g5
S'--'
p530
sg7
S'--'
p531
sg9
g10
sg11
S'--'
p532
sg13
g14
sg15
S'--'
p533
sg17
S'2013'
p534
sg19
S'12'
p535
sg21
S'--'
p536
sg23
S'11/24'
p537
sg25
S'--'
p538
sg26
S'Denard Robinson'
p539
sg28
S'--'
p540
sg30
S'W13-6'
p541
sg32
S'--'
p542
sg34
S'--'
p543
sg36
S'@HOU'
p544
sg38
S'--'
p545
sg40
S'--'
p546
sg42
S'--'
p547
ssg88
(dp548
g5
S'--'
p549
sg7
g14
sg9
g10
sg11
g14
sg13
g14
sg15
S'--'
p550
sg17
S'2013'
p551
sg19
S'15'
p552
sg21
S'14.0'
p553
sg23
S'12/15'
p554
sg25
g10
sg26
S'Denard Robinson'
p555
sg28
g69
sg30
S'L20-27'
p556
sg32
S'--'
p557
sg34
S'--'
p558
sg36
S'BUF'
p559
sg38
S'--'
p560
sg40
S'28'
p561
sg42
S'24'
p562
ssg103
(dp563
g5
S'--'
p564
sg7
S'--'
p565
sg9
g10
sg11
S'--'
p566
sg13
g14
sg15
S'--'
p567
sg17
S'2013'
p568
sg19
S'14'
p569
sg21
S'-0.5'
p570
sg23
S'12/05'
p571
sg25
g10
sg26
S'Denard Robinson'
p572
sg28
g69
sg30
S'W27-20'
p573
sg32
S'--'
p574
sg34
S'--'
p575
sg36
S'HOU'
p576
sg38
S'--'
p577
sg40
S'-1'
p578
sg42
g69
ssg120
(dp579
g5
S'--'
p580
sg7
S'--'
p581
sg9
g10
sg11
S'--'
p582
sg13
g14
sg15
S'--'
p583
sg17
S'2013'
p584
sg19
S'17'
p585
sg21
S'--'
p586
sg23
S'12/29'
p587
sg25
S'--'
p588
sg26
S'Denard Robinson'
p589
sg28
S'--'
p590
sg30
S'L10-30'
p591
sg32
S'--'
p592
sg34
S'--'
p593
sg36
S'@IND'
p594
sg38
S'--'
p595
sg40
S'--'
p596
sg42
S'--'
p597
ssg132
(dp598
g5
S'--'
p599
sg7
S'--'
p600
sg9
g10
sg11
S'--'
p601
sg13
g14
sg15
S'--'
p602
sg17
S'2013'
p603
sg19
S'16'
p604
sg21
S'11.0'
p605
sg23
S'12/22'
p606
sg25
g10
sg26
S'Denard Robinson'
p607
sg28
g14
sg30
S'L16-20'
p608
sg32
S'--'
p609
sg34
S'--'
p610
sg36
S'TEN'
p611
sg38
S'--'
p612
sg40
S'11'
p613
sg42
S'11'
p614
ssg14
(dp615
g5
S'--'
p616
sg7
S'--'
p617
sg9
g10
sg11
S'--'
p618
sg13
g14
sg15
S'--'
p619
sg17
S'2013'
p620
sg19
g14
sg21
S'0.5'
p621
sg23
S'09/08'
p622
sg25
g10
sg26
S'Denard Robinson'
p623
sg28
g69
sg30
S'L2-28'
p624
sg32
S'--'
p625
sg34
S'--'
p626
sg36
S'KC'
p627
sg38
S'--'
p628
sg40
g14
sg42
g14
ssg67
(dp629
g5
S'--'
p630
sg7
g14
sg9
g10
sg11
g14
sg13
g14
sg15
S'--'
p631
sg17
S'2013'
p632
sg19
g67
sg21
S'-1.0'
p633
sg23
S'09/22'
p634
sg25
g10
sg26
S'Denard Robinson'
p635
sg28
g69
sg30
S'L17-45'
p636
sg32
S'--'
p637
sg34
S'--'
p638
sg36
S'@SEA'
p639
sg38
S'--'
p640
sg40
S'-2'
p641
sg42
g10
ssg69
(dp642
g5
S'--'
p643
sg7
S'--'
p644
sg9
g10
sg11
S'--'
p645
sg13
g14
sg15
S'--'
p646
sg17
S'2013'
p647
sg19
g69
sg21
S'0.0'
p648
sg23
S'09/15'
p649
sg25
g10
sg26
S'Denard Robinson'
p650
sg28
g14
sg30
S'L9-19'
p651
sg32
S'--'
p652
sg34
S'--'
p653
sg36
S'@OAK'
p654
sg38
S'--'
p655
sg40
g10
sg42
g10
ssg128
(dp656
g5
S'--'
p657
sg7
S'--'
p658
sg9
g10
sg11
S'--'
p659
sg13
g14
sg15
S'--'
p660
sg17
S'2013'
p661
sg19
g128
sg21
S'--'
p662
sg23
S'10/06'
p663
sg25
S'--'
p664
sg26
S'Denard Robinson'
p665
sg28
S'--'
p666
sg30
S'L20-34'
p667
sg32
S'--'
p668
sg34
S'--'
p669
sg36
S'@STL'
p670
sg38
S'--'
p671
sg40
S'--'
p672
sg42
S'--'
p673
ssg211
(dp674
g5
S'--'
p675
sg7
S'--'
p676
sg9
g10
sg11
S'--'
p677
sg13
g14
sg15
g10
sg17
S'2013'
p678
sg19
g211
sg21
S'--'
p679
sg23
S'09/29'
p680
sg25
S'--'
p681
sg26
S'Denard Robinson'
p682
sg28
S'--'
p683
sg30
S'L3-37'
p684
sg32
g10
sg34
g10
sg36
S'IND'
p685
sg38
S'--'
p686
sg40
S'--'
p687
sg42
S'--'
p688
ssg29
(dp689
g5
S'--'
p690
sg7
S'--'
p691
sg9
g10
sg11
S'--'
p692
sg13
g14
sg15
S'--'
p693
sg17
S'2013'
p694
sg19
g29
sg21
S'9.0'
p695
sg23
S'10/20'
p696
sg25
g10
sg26
S'Denard Robinson'
p697
sg28
g14
sg30
S'L6-24'
p698
sg32
S'--'
p699
sg34
S'--'
p700
sg36
S'SD'
p701
sg38
S'--'
p702
sg40
g84
sg42
g84
ssg142
(dp703
g5
S'--'
p704
sg7
S'--'
p705
sg9
g10
sg11
S'--'
p706
sg13
g14
sg15
S'--'
p707
sg17
S'2013'
p708
sg19
g142
sg21
S'2.0'
p709
sg23
S'10/13'
p710
sg25
g10
sg26
S'Denard Robinson'
p711
sg28
g14
sg30
S'L19-35'
p712
sg32
S'--'
p713
sg34
S'--'
p714
sg36
S'@DEN'
p715
sg38
S'--'
p716
sg40
g69
sg42
g69
ssg84
(dp717
g5
g272
sg7
g272
sg9
g272
sg11
g272
sg13
g272
sg15
g272
sg17
S'2013'
p718
sg19
g84
sg21
g272
sg23
S'Bye'
p719
sg25
g272
sg26
S'Denard Robinson'
p720
sg28
g272
sg30
g272
sg32
g272
sg34
g272
sg36
g272
sg38
g272
sg40
g272
sg42
g272
ssg99
(dp721
g5
S'--'
p722
sg7
S'--'
p723
sg9
g10
sg11
S'--'
p724
sg13
g14
sg15
S'--'
p725
sg17
S'2013'
p726
sg19
g99
sg21
S'3.8'
p727
sg23
S'10/27'
p728
sg25
g10
sg26
S'Denard Robinson'
p729
sg28
g211
sg30
S'L10-42'
p730
sg32
S'--'
p731
sg34
S'--'
p732
sg36
S'SF'
p733
sg38
S'--'
p734
sg40
S'15'
p735
sg42
g29
sss.