(dp0
S'2015'
p1
(dp2
S'11'
p3
(dp4
S'RecAvg'
p5
S'--'
p6
sS'FUM'
p7
S'--'
p8
sS'GS'
p9
S'0'
p10
sS'Lost'
p11
S'--'
p12
sS'G'
p13
S'1'
p14
sS'RecTD'
p15
S'--'
p16
sS'Year'
p17
S'2015'
p18
sS'WK'
p19
S'11'
p20
sS'RushAvg'
p21
S'--'
p22
sS'Game Date'
p23
S'11/22'
p24
sS'RushTD'
p25
S'--'
p26
sS'Player'
p27
S'Derrick Coleman'
p28
sS'RushAtt'
p29
S'--'
p30
sS'Result'
p31
S'W29-13'
p32
sS'RecYds'
p33
S'--'
p34
sS'Rec'
p35
S'--'
p36
sS'Opp'
p37
S'SF'
p38
sS'RecLng'
p39
S'--'
p40
sS'RushYds'
p41
S'--'
p42
sS'RushLng'
p43
S'--'
p44
ssS'10'
p45
(dp46
g5
S'--'
p47
sg7
S'--'
p48
sg9
g10
sg11
S'--'
p49
sg13
g14
sg15
S'--'
p50
sg17
S'2015'
p51
sg19
S'10'
p52
sg21
S'--'
p53
sg23
S'11/15'
p54
sg25
S'--'
p55
sg27
S'Derrick Coleman'
p56
sg29
S'--'
p57
sg31
S'L32-39'
p58
sg33
S'--'
p59
sg35
S'--'
p60
sg37
S'ARI'
p61
sg39
S'--'
p62
sg41
S'--'
p63
sg43
S'--'
p64
ssS'13'
p65
(dp66
g5
S'--'
p67
sg7
S'--'
p68
sg9
g10
sg11
S'--'
p69
sg13
g14
sg15
S'--'
p70
sg17
S'2015'
p71
sg19
S'13'
p72
sg21
S'--'
p73
sg23
S'12/06'
p74
sg25
S'--'
p75
sg27
S'Derrick Coleman'
p76
sg29
S'--'
p77
sg31
S'W38-7'
p78
sg33
S'--'
p79
sg35
S'--'
p80
sg37
S'@MIN'
p81
sg39
S'--'
p82
sg41
S'--'
p83
sg43
S'--'
p84
ssS'12'
p85
(dp86
g5
S'--'
p87
sg7
S'--'
p88
sg9
g10
sg11
S'--'
p89
sg13
g14
sg15
S'--'
p90
sg17
S'2015'
p91
sg19
S'12'
p92
sg21
S'1.0'
p93
sg23
S'11/29'
p94
sg25
g10
sg27
S'Derrick Coleman'
p95
sg29
g14
sg31
S'W39-30'
p96
sg33
S'--'
p97
sg35
S'--'
p98
sg37
S'PIT'
p99
sg39
S'--'
p100
sg41
g14
sg43
g14
ssS'15'
p101
(dp102
g5
S'--'
p103
sg7
S'--'
p104
sg9
g14
sg11
S'--'
p105
sg13
g14
sg15
S'--'
p106
sg17
S'2015'
p107
sg19
S'15'
p108
sg21
S'2.0'
p109
sg23
S'12/20'
p110
sg25
g10
sg27
S'Derrick Coleman'
p111
sg29
S'5'
p112
sg31
S'W30-13'
p113
sg33
S'--'
p114
sg35
S'--'
p115
sg37
S'CLE'
p116
sg39
S'--'
p117
sg41
S'10'
p118
sg43
S'6'
p119
ssS'14'
p120
(dp121
g5
S'--'
p122
sg7
S'--'
p123
sg9
g10
sg11
S'--'
p124
sg13
g14
sg15
S'--'
p125
sg17
S'2015'
p126
sg19
S'14'
p127
sg21
S'19.0'
p128
sg23
S'12/13'
p129
sg25
g10
sg27
S'Derrick Coleman'
p130
sg29
g14
sg31
S'W35-6'
p131
sg33
S'--'
p132
sg35
S'--'
p133
sg37
S'@BAL'
p134
sg39
S'--'
p135
sg41
S'19'
p136
sg43
S'19'
p137
ssS'17'
p138
(dp139
g5
S'--'
p140
sg7
S'--'
p141
sg9
g10
sg11
S'--'
p142
sg13
g14
sg15
S'--'
p143
sg17
S'2015'
p144
sg19
S'17'
p145
sg21
S'--'
p146
sg23
S'01/03'
p147
sg25
S'--'
p148
sg27
S'Derrick Coleman'
p149
sg29
S'--'
p150
sg31
S'W36-6'
p151
sg33
S'--'
p152
sg35
S'--'
p153
sg37
S'@ARI'
p154
sg39
S'--'
p155
sg41
S'--'
p156
sg43
S'--'
p157
ssS'16'
p158
(dp159
g5
S'--'
p160
sg7
S'--'
p161
sg9
g10
sg11
S'--'
p162
sg13
g14
sg15
S'--'
p163
sg17
S'2015'
p164
sg19
S'16'
p165
sg21
S'--'
p166
sg23
S'12/27'
p167
sg25
S'--'
p168
sg27
S'Derrick Coleman'
p169
sg29
S'--'
p170
sg31
S'L17-23'
p171
sg33
S'--'
p172
sg35
S'--'
p173
sg37
S'STL'
p174
sg39
S'--'
p175
sg41
S'--'
p176
sg43
S'--'
p177
ssg14
(dp178
g5
S'--'
p179
sg7
S'--'
p180
sg9
g14
sg11
S'--'
p181
sg13
g14
sg15
S'--'
p182
sg17
S'2015'
p183
sg19
g14
sg21
S'2.0'
p184
sg23
S'09/13'
p185
sg25
g10
sg27
S'Derrick Coleman'
p186
sg29
g14
sg31
S'L31-34'
p187
sg33
S'--'
p188
sg35
S'--'
p189
sg37
S'@STL'
p190
sg39
S'--'
p191
sg41
S'2'
p192
sg43
g192
ssS'3'
p193
(dp194
g5
S'--'
p195
sg7
S'--'
p196
sg9
g10
sg11
S'--'
p197
sg13
g14
sg15
S'--'
p198
sg17
S'2015'
p199
sg19
g193
sg21
S'--'
p200
sg23
S'09/27'
p201
sg25
S'--'
p202
sg27
S'Derrick Coleman'
p203
sg29
S'--'
p204
sg31
S'W26-0'
p205
sg33
S'--'
p206
sg35
S'--'
p207
sg37
S'CHI'
p208
sg39
S'--'
p209
sg41
S'--'
p210
sg43
S'--'
p211
ssg192
(dp212
g5
S'0.0'
p213
sg7
S'--'
p214
sg9
g10
sg11
S'--'
p215
sg13
g14
sg15
g10
sg17
S'2015'
p216
sg19
g192
sg21
S'--'
p217
sg23
S'09/20'
p218
sg25
S'--'
p219
sg27
S'Derrick Coleman'
p220
sg29
S'--'
p221
sg31
S'L17-27'
p222
sg33
g10
sg35
g14
sg37
S'@GB'
p223
sg39
g10
sg41
S'--'
p224
sg43
S'--'
p225
ssg112
(dp226
g5
S'--'
p227
sg7
S'--'
p228
sg9
g14
sg11
S'--'
p229
sg13
g14
sg15
S'--'
p230
sg17
S'2015'
p231
sg19
g112
sg21
S'--'
p232
sg23
S'10/11'
p233
sg25
S'--'
p234
sg27
S'Derrick Coleman'
p235
sg29
S'--'
p236
sg31
S'L24-27'
p237
sg33
S'--'
p238
sg35
S'--'
p239
sg37
S'@CIN'
p240
sg39
S'--'
p241
sg41
S'--'
p242
sg43
S'--'
p243
ssS'4'
p244
(dp245
g5
S'--'
p246
sg7
S'--'
p247
sg9
g10
sg11
S'--'
p248
sg13
g14
sg15
S'--'
p249
sg17
S'2015'
p250
sg19
g244
sg21
S'--'
p251
sg23
S'10/05'
p252
sg25
S'--'
p253
sg27
S'Derrick Coleman'
p254
sg29
S'--'
p255
sg31
S'W13-10'
p256
sg33
S'--'
p257
sg35
S'--'
p258
sg37
S'DET'
p259
sg39
S'--'
p260
sg41
S'--'
p261
sg43
S'--'
p262
ssS'7'
p263
(dp264
g5
S'--'
p265
sg7
S'--'
p266
sg9
g10
sg11
S'--'
p267
sg13
g10
sg15
S'--'
p268
sg17
S'2015'
p269
sg19
g263
sg21
S'--'
p270
sg23
S'10/22'
p271
sg25
S'--'
p272
sg27
S'Derrick Coleman'
p273
sg29
S'--'
p274
sg31
S'W20-3'
p275
sg33
S'--'
p276
sg35
S'--'
p277
sg37
S'@SF'
p278
sg39
S'--'
p279
sg41
S'--'
p280
sg43
S'--'
p281
ssS'9'
p282
(dp283
g5
S''
p284
sg7
g284
sg9
g284
sg11
g284
sg13
g284
sg15
g284
sg17
S'2015'
p285
sg19
g282
sg21
g284
sg23
S'Bye'
p286
sg25
g284
sg27
S'Derrick Coleman'
p287
sg29
g284
sg31
g284
sg33
g284
sg35
g284
sg37
g284
sg39
g284
sg41
g284
sg43
g284
ssS'8'
p288
(dp289
g5
S'--'
p290
sg7
S'--'
p291
sg9
g10
sg11
S'--'
p292
sg13
g14
sg15
S'--'
p293
sg17
S'2015'
p294
sg19
g288
sg21
S'--'
p295
sg23
S'11/01'
p296
sg25
S'--'
p297
sg27
S'Derrick Coleman'
p298
sg29
S'--'
p299
sg31
S'W13-12'
p300
sg33
S'--'
p301
sg35
S'--'
p302
sg37
S'@DAL'
p303
sg39
S'--'
p304
sg41
S'--'
p305
sg43
S'--'
p306
sssS'2014'
p307
(dp308
g14
(dp309
g5
S'15.0'
p310
sg7
S'--'
p311
sg9
g10
sg11
S'--'
p312
sg13
g14
sg15
g14
sg17
S'2014'
p313
sg19
g14
sg21
S'--'
p314
sg23
S'09/04'
p315
sg25
S'--'
p316
sg27
S'Derrick Coleman'
p317
sg29
S'--'
p318
sg31
S'W36-16'
p319
sg33
S'15'
p320
sg35
g14
sg37
S'GB'
p321
sg39
S'15T'
p322
sg41
S'--'
p323
sg43
S'--'
p324
ssg193
(dp325
g5
S'14.0'
p326
sg7
S'--'
p327
sg9
g14
sg11
S'--'
p328
sg13
g14
sg15
g10
sg17
S'2014'
p329
sg19
g193
sg21
S'--'
p330
sg23
S'09/21'
p331
sg25
S'--'
p332
sg27
S'Derrick Coleman'
p333
sg29
S'--'
p334
sg31
S'W26-20'
p335
sg33
S'14'
p336
sg35
g14
sg37
S'DEN'
p337
sg39
S'14'
p338
sg41
S'--'
p339
sg43
S'--'
p340
ssg192
(dp341
g5
S'--'
p342
sg7
S'--'
p343
sg9
g10
sg11
S'--'
p344
sg13
g14
sg15
S'--'
p345
sg17
S'2014'
p346
sg19
g192
sg21
S'--'
p347
sg23
S'09/14'
p348
sg25
S'--'
p349
sg27
S'Derrick Coleman'
p350
sg29
S'--'
p351
sg31
S'L21-30'
p352
sg33
S'--'
p353
sg35
S'--'
p354
sg37
S'@SD'
p355
sg39
S'--'
p356
sg41
S'--'
p357
sg43
S'--'
p358
ssg112
(dp359
g5
S'--'
p360
sg7
S'--'
p361
sg9
g10
sg11
S'--'
p362
sg13
g14
sg15
S'--'
p363
sg17
S'2014'
p364
sg19
g112
sg21
S'--'
p365
sg23
S'10/06'
p366
sg25
S'--'
p367
sg27
S'Derrick Coleman'
p368
sg29
S'--'
p369
sg31
S'W27-17'
p370
sg33
S'--'
p371
sg35
S'--'
p372
sg37
S'@WAS'
p373
sg39
S'--'
p374
sg41
S'--'
p375
sg43
S'--'
p376
ssg244
(dp377
g5
g284
sg7
g284
sg9
g284
sg11
g284
sg13
g284
sg15
g284
sg17
S'2014'
p378
sg19
g244
sg21
g284
sg23
S'Bye'
p379
sg25
g284
sg27
S'Derrick Coleman'
p380
sg29
g284
sg31
g284
sg33
g284
sg35
g284
sg37
g284
sg39
g284
sg41
g284
sg43
g284
ssg263
(dp381
g5
S'--'
p382
sg7
S'--'
p383
sg9
g10
sg11
S'--'
p384
sg13
g10
sg15
S'--'
p385
sg17
S'2014'
p386
sg19
g263
sg21
S'--'
p387
sg23
S'10/19'
p388
sg25
S'--'
p389
sg27
S'Derrick Coleman'
p390
sg29
S'--'
p391
sg31
S'L26-28'
p392
sg33
S'--'
p393
sg35
S'--'
p394
sg37
S'@STL'
p395
sg39
S'--'
p396
sg41
S'--'
p397
sg43
S'--'
p398
ssg119
(dp399
g5
S'--'
p400
sg7
S'--'
p401
sg9
g10
sg11
S'--'
p402
sg13
g14
sg15
S'--'
p403
sg17
S'2014'
p404
sg19
g119
sg21
S'--'
p405
sg23
S'10/12'
p406
sg25
S'--'
p407
sg27
S'Derrick Coleman'
p408
sg29
S'--'
p409
sg31
S'L23-30'
p410
sg33
S'--'
p411
sg35
S'--'
p412
sg37
S'DAL'
p413
sg39
S'--'
p414
sg41
S'--'
p415
sg43
S'--'
p416
sssS'2013'
p417
(dp418
g3
(dp419
g5
S'--'
p420
sg7
S'--'
p421
sg9
g10
sg11
S'--'
p422
sg13
g10
sg15
S'--'
p423
sg17
S'2013'
p424
sg19
S'11'
p425
sg21
S'--'
p426
sg23
S'11/17'
p427
sg25
S'--'
p428
sg27
S'Derrick Coleman'
p429
sg29
S'--'
p430
sg31
S'W41-20'
p431
sg33
S'--'
p432
sg35
S'--'
p433
sg37
S'MIN'
p434
sg39
S'--'
p435
sg41
S'--'
p436
sg43
S'--'
p437
ssg45
(dp438
g5
S'--'
p439
sg7
S'--'
p440
sg9
g10
sg11
S'--'
p441
sg13
g10
sg15
S'--'
p442
sg17
S'2013'
p443
sg19
S'10'
p444
sg21
S'--'
p445
sg23
S'11/10'
p446
sg25
S'--'
p447
sg27
S'Derrick Coleman'
p448
sg29
S'--'
p449
sg31
S'W33-10'
p450
sg33
S'--'
p451
sg35
S'--'
p452
sg37
S'@ATL'
p453
sg39
S'--'
p454
sg41
S'--'
p455
sg43
S'--'
p456
ssg65
(dp457
g5
S'8.0'
p458
sg7
S'--'
p459
sg9
g10
sg11
S'--'
p460
sg13
g14
sg15
g14
sg17
S'2013'
p461
sg19
S'13'
p462
sg21
S'1.5'
p463
sg23
S'12/02'
p464
sg25
g10
sg27
S'Derrick Coleman'
p465
sg29
g192
sg31
S'W34-7'
p466
sg33
g288
sg35
g14
sg37
S'NO'
p467
sg39
S'8T'
p468
sg41
g193
sg43
g244
ssg85
(dp469
g5
g284
sg7
g284
sg9
g284
sg11
g284
sg13
g284
sg15
g284
sg17
S'2013'
p470
sg19
S'12'
p471
sg21
g284
sg23
S'Bye'
p472
sg25
g284
sg27
S'Derrick Coleman'
p473
sg29
g284
sg31
g284
sg33
g284
sg35
g284
sg37
g284
sg39
g284
sg41
g284
sg43
g284
ssg101
(dp474
g5
S'--'
p475
sg7
S'--'
p476
sg9
g10
sg11
S'--'
p477
sg13
g14
sg15
S'--'
p478
sg17
S'2013'
p479
sg19
S'15'
p480
sg21
S'--'
p481
sg23
S'12/15'
p482
sg25
S'--'
p483
sg27
S'Derrick Coleman'
p484
sg29
S'--'
p485
sg31
S'W23-0'
p486
sg33
S'--'
p487
sg35
S'--'
p488
sg37
S'@NYG'
p489
sg39
S'--'
p490
sg41
S'--'
p491
sg43
S'--'
p492
ssg120
(dp493
g5
S'--'
p494
sg7
S'--'
p495
sg9
g10
sg11
S'--'
p496
sg13
g14
sg15
S'--'
p497
sg17
S'2013'
p498
sg19
S'14'
p499
sg21
S'--'
p500
sg23
S'12/08'
p501
sg25
S'--'
p502
sg27
S'Derrick Coleman'
p503
sg29
S'--'
p504
sg31
S'L17-19'
p505
sg33
S'--'
p506
sg35
S'--'
p507
sg37
S'@SF'
p508
sg39
S'--'
p509
sg41
S'--'
p510
sg43
S'--'
p511
ssg138
(dp512
g5
S'6.0'
p513
sg7
S'--'
p514
sg9
g10
sg11
S'--'
p515
sg13
g14
sg15
g10
sg17
S'2013'
p516
sg19
S'17'
p517
sg21
S'--'
p518
sg23
S'12/29'
p519
sg25
S'--'
p520
sg27
S'Derrick Coleman'
p521
sg29
S'--'
p522
sg31
S'W27-9'
p523
sg33
g119
sg35
g14
sg37
S'STL'
p524
sg39
g119
sg41
S'--'
p525
sg43
S'--'
p526
ssg158
(dp527
g5
S'--'
p528
sg7
S'--'
p529
sg9
g10
sg11
S'--'
p530
sg13
g14
sg15
S'--'
p531
sg17
S'2013'
p532
sg19
S'16'
p533
sg21
S'--'
p534
sg23
S'12/22'
p535
sg25
S'--'
p536
sg27
S'Derrick Coleman'
p537
sg29
S'--'
p538
sg31
S'L10-17'
p539
sg33
S'--'
p540
sg35
S'--'
p541
sg37
S'ARI'
p542
sg39
S'--'
p543
sg41
S'--'
p544
sg43
S'--'
p545
ssg14
(dp546
g5
S'10.0'
p547
sg7
S'--'
p548
sg9
g10
sg11
S'--'
p549
sg13
g14
sg15
g10
sg17
S'2013'
p550
sg19
g14
sg21
S'--'
p551
sg23
S'09/08'
p552
sg25
S'--'
p553
sg27
S'Derrick Coleman'
p554
sg29
S'--'
p555
sg31
S'W12-7'
p556
sg33
S'30'
p557
sg35
g193
sg37
S'@CAR'
p558
sg39
S'12'
p559
sg41
S'--'
p560
sg43
S'--'
p561
ssg193
(dp562
g5
S'--'
p563
sg7
S'--'
p564
sg9
g14
sg11
S'--'
p565
sg13
g14
sg15
S'--'
p566
sg17
S'2013'
p567
sg19
g193
sg21
S'--'
p568
sg23
S'09/22'
p569
sg25
S'--'
p570
sg27
S'Derrick Coleman'
p571
sg29
S'--'
p572
sg31
S'W45-17'
p573
sg33
S'--'
p574
sg35
S'--'
p575
sg37
S'JAC'
p576
sg39
S'--'
p577
sg41
S'--'
p578
sg43
S'--'
p579
ssg192
(dp580
g5
S'--'
p581
sg7
S'--'
p582
sg9
g14
sg11
S'--'
p583
sg13
g14
sg15
S'--'
p584
sg17
S'2013'
p585
sg19
g192
sg21
S'--'
p586
sg23
S'09/15'
p587
sg25
S'--'
p588
sg27
S'Derrick Coleman'
p589
sg29
S'--'
p590
sg31
S'W29-3'
p591
sg33
S'--'
p592
sg35
S'--'
p593
sg37
S'SF'
p594
sg39
S'--'
p595
sg41
S'--'
p596
sg43
S'--'
p597
ssg112
(dp598
g5
S'--'
p599
sg7
S'--'
p600
sg9
g10
sg11
S'--'
p601
sg13
g14
sg15
S'--'
p602
sg17
S'2013'
p603
sg19
g112
sg21
S'--'
p604
sg23
S'10/06'
p605
sg25
S'--'
p606
sg27
S'Derrick Coleman'
p607
sg29
S'--'
p608
sg31
S'L28-34'
p609
sg33
S'--'
p610
sg35
S'--'
p611
sg37
S'@IND'
p612
sg39
S'--'
p613
sg41
S'--'
p614
sg43
S'--'
p615
ssg244
(dp616
g5
S'4.0'
p617
sg7
S'--'
p618
sg9
g14
sg11
S'--'
p619
sg13
g14
sg15
g10
sg17
S'2013'
p620
sg19
g244
sg21
S'--'
p621
sg23
S'09/29'
p622
sg25
S'--'
p623
sg27
S'Derrick Coleman'
p624
sg29
S'--'
p625
sg31
S'W23-20'
p626
sg33
g244
sg35
g14
sg37
S'@HOU'
p627
sg39
g244
sg41
S'--'
p628
sg43
S'--'
p629
ssg263
(dp630
g5
S'8.0'
p631
sg7
S'--'
p632
sg9
g10
sg11
S'--'
p633
sg13
g14
sg15
g10
sg17
S'2013'
p634
sg19
g263
sg21
S'--'
p635
sg23
S'10/17'
p636
sg25
S'--'
p637
sg27
S'Derrick Coleman'
p638
sg29
S'--'
p639
sg31
S'W34-22'
p640
sg33
g288
sg35
g14
sg37
S'@ARI'
p641
sg39
g288
sg41
S'--'
p642
sg43
S'--'
p643
ssg119
(dp644
g5
S'6.0'
p645
sg7
g14
sg9
g10
sg11
g10
sg13
g14
sg15
g10
sg17
S'2013'
p646
sg19
g119
sg21
S'--'
p647
sg23
S'10/13'
p648
sg25
S'--'
p649
sg27
S'Derrick Coleman'
p650
sg29
S'--'
p651
sg31
S'W20-13'
p652
sg33
g119
sg35
g14
sg37
S'TEN'
p653
sg39
g119
sg41
S'--'
p654
sg43
S'--'
p655
ssg282
(dp656
g5
S'--'
p657
sg7
S'--'
p658
sg9
g10
sg11
S'--'
p659
sg13
g10
sg15
S'--'
p660
sg17
S'2013'
p661
sg19
g282
sg21
S'--'
p662
sg23
S'11/03'
p663
sg25
S'--'
p664
sg27
S'Derrick Coleman'
p665
sg29
S'--'
p666
sg31
S'W27-24'
p667
sg33
S'--'
p668
sg35
S'--'
p669
sg37
S'TB'
p670
sg39
S'--'
p671
sg41
S'--'
p672
sg43
S'--'
p673
ssg288
(dp674
g5
S'--'
p675
sg7
S'--'
p676
sg9
g10
sg11
S'--'
p677
sg13
g10
sg15
S'--'
p678
sg17
S'2013'
p679
sg19
g288
sg21
S'--'
p680
sg23
S'10/28'
p681
sg25
S'--'
p682
sg27
S'Derrick Coleman'
p683
sg29
S'--'
p684
sg31
S'W14-9'
p685
sg33
S'--'
p686
sg35
S'--'
p687
sg37
S'@STL'
p688
sg39
S'--'
p689
sg41
S'--'
p690
sg43
S'--'
p691
sss.