(dp0
S'2015'
p1
(dp2
S'11'
p3
(dp4
S'RecAvg'
p5
S'--'
p6
sS'FUM'
p7
S'--'
p8
sS'GS'
p9
S'1'
p10
sS'Lost'
p11
S'--'
p12
sS'G'
p13
g10
sS'RecTD'
p14
S'--'
p15
sS'Year'
p16
S'2015'
p17
sS'WK'
p18
S'11'
p19
sS'RushAvg'
p20
S'14.3'
p21
sS'Game Date'
p22
S'11/22'
p23
sS'RushTD'
p24
S'0'
p25
sS'Player'
p26
S'Devont Freeman'
p27
sS'RushAtt'
p28
S'3'
p29
sS'Result'
p30
S'L21-24'
p31
sS'RecYds'
p32
S'--'
p33
sS'Rec'
p34
S'--'
p35
sS'Opp'
p36
S'IND'
p37
sS'RecLng'
p38
S'--'
p39
sS'RushYds'
p40
S'43'
p41
sS'RushLng'
p42
S'39'
p43
ssS'10'
p44
(dp45
g5
S''
p46
sg7
g46
sg9
g46
sg11
g46
sg13
g46
sg14
g46
sg16
S'2015'
p47
sg18
S'10'
p48
sg20
g46
sg22
S'Bye'
p49
sg24
g46
sg26
S'Devont Freeman'
p50
sg28
g46
sg30
g46
sg32
g46
sg34
g46
sg36
g46
sg38
g46
sg40
g46
sg42
g46
ssS'13'
p51
(dp52
g5
S'5.6'
p53
sg7
S'--'
p54
sg9
g10
sg11
S'--'
p55
sg13
g10
sg14
g25
sg16
S'2015'
p56
sg18
S'13'
p57
sg20
S'3.4'
p58
sg22
S'12/06'
p59
sg24
g25
sg26
S'Devont Freeman'
p60
sg28
S'14'
p61
sg30
S'L19-23'
p62
sg32
S'56'
p63
sg34
S'10'
p64
sg36
S'@TB'
p65
sg38
S'13'
p66
sg40
S'47'
p67
sg42
S'14'
p68
ssS'12'
p69
(dp70
g5
S'--'
p71
sg7
S'--'
p72
sg9
g25
sg11
S'--'
p73
sg13
g25
sg14
S'--'
p74
sg16
S'2015'
p75
sg18
S'12'
p76
sg20
S'--'
p77
sg22
S'11/29'
p78
sg24
S'--'
p79
sg26
S'Devont Freeman'
p80
sg28
S'--'
p81
sg30
S'L10-20'
p82
sg32
S'--'
p83
sg34
S'--'
p84
sg36
S'MIN'
p85
sg38
S'--'
p86
sg40
S'--'
p87
sg42
S'--'
p88
ssS'15'
p89
(dp90
g5
S'6.4'
p91
sg7
S'--'
p92
sg9
g10
sg11
S'--'
p93
sg13
g10
sg14
g25
sg16
S'2015'
p94
sg18
S'15'
p95
sg20
S'2.2'
p96
sg22
S'12/20'
p97
sg24
g10
sg26
S'Devont Freeman'
p98
sg28
S'25'
p99
sg30
S'W23-17'
p100
sg32
S'45'
p101
sg34
S'7'
p102
sg36
S'@JAC'
p103
sg38
S'13'
p104
sg40
S'56'
p105
sg42
S'21'
p106
ssS'14'
p107
(dp108
g5
S'7.3'
p109
sg7
g10
sg9
g10
sg11
g10
sg13
g10
sg14
g25
sg16
S'2015'
p110
sg18
S'14'
p111
sg20
S'3.3'
p112
sg22
S'12/13'
p113
sg24
g25
sg26
S'Devont Freeman'
p114
sg28
S'12'
p115
sg30
S'L0-38'
p116
sg32
S'22'
p117
sg34
g29
sg36
S'@CAR'
p118
sg38
S'12'
p119
sg40
S'40'
p120
sg42
S'22'
p121
ssS'17'
p122
(dp123
g5
S'9.0'
p124
sg7
g10
sg9
g10
sg11
g10
sg13
g10
sg14
g10
sg16
S'2015'
p125
sg18
S'17'
p126
sg20
S'3.0'
p127
sg22
S'01/03'
p128
sg24
g25
sg26
S'Devont Freeman'
p129
sg28
S'25'
p130
sg30
S'L17-20'
p131
sg32
S'18'
p132
sg34
S'2'
p133
sg36
S'NO'
p134
sg38
S'14'
p135
sg40
S'76'
p136
sg42
S'10'
p137
ssS'16'
p138
(dp139
g5
S'5.7'
p140
sg7
S'--'
p141
sg9
g10
sg11
S'--'
p142
sg13
g10
sg14
g25
sg16
S'2015'
p143
sg18
S'16'
p144
sg20
S'3.3'
p145
sg22
S'12/27'
p146
sg24
g10
sg26
S'Devont Freeman'
p147
sg28
S'22'
p148
sg30
S'W20-13'
p149
sg32
S'17'
p150
sg34
g29
sg36
S'CAR'
p151
sg38
S'12'
p152
sg40
S'73'
p153
sg42
S'14'
p154
ssg10
(dp155
g5
S'9.7'
p156
sg7
S'--'
p157
sg9
g25
sg11
S'--'
p158
sg13
g10
sg14
g25
sg16
S'2015'
p159
sg18
g10
sg20
S'1.8'
p160
sg22
S'09/14'
p161
sg24
g25
sg26
S'Devont Freeman'
p162
sg28
S'10'
p163
sg30
S'W26-24'
p164
sg32
S'29'
p165
sg34
g29
sg36
S'PHI'
p166
sg38
S'12'
p167
sg40
S'18'
p168
sg42
S'9'
p169
ssg29
(dp170
g5
S'10.4'
p171
sg7
S'--'
p172
sg9
g10
sg11
S'--'
p173
sg13
g10
sg14
g25
sg16
S'2015'
p174
sg18
g29
sg20
S'4.7'
p175
sg22
S'09/27'
p176
sg24
g29
sg26
S'Devont Freeman'
p177
sg28
S'30'
p178
sg30
S'W39-28'
p179
sg32
S'52'
p180
sg34
S'5'
p181
sg36
S'@DAL'
p182
sg38
S'35'
p183
sg40
S'141'
p184
sg42
S'17'
p185
ssg133
(dp186
g5
S'8.5'
p187
sg7
S'--'
p188
sg9
g25
sg11
S'--'
p189
sg13
g10
sg14
g25
sg16
S'2015'
p190
sg18
g133
sg20
S'2.1'
p191
sg22
S'09/20'
p192
sg24
g10
sg26
S'Devont Freeman'
p193
sg28
S'12'
p194
sg30
S'W24-20'
p195
sg32
S'34'
p196
sg34
S'4'
p197
sg36
S'@NYG'
p198
sg38
S'11'
p199
sg40
S'25'
p200
sg42
g102
ssg181
(dp201
g5
S'6.3'
p202
sg7
g10
sg9
g10
sg11
g25
sg13
g10
sg14
g25
sg16
S'2015'
p203
sg18
g181
sg20
S'5.7'
p204
sg22
S'10/11'
p205
sg24
g10
sg26
S'Devont Freeman'
p206
sg28
S'27'
p207
sg30
S'W25-19'
p208
sg32
S'44'
p209
sg34
g102
sg36
S'WAS'
p210
sg38
g169
sg40
S'153'
p211
sg42
S'18'
p212
ssg197
(dp213
g5
S'16.2'
p214
sg7
S'--'
p215
sg9
g10
sg11
S'--'
p216
sg13
g10
sg14
g25
sg16
S'2015'
p217
sg18
g197
sg20
S'4.9'
p218
sg22
S'10/04'
p219
sg24
g29
sg26
S'Devont Freeman'
p220
sg28
S'14'
p221
sg30
S'W48-21'
p222
sg32
S'81'
p223
sg34
g181
sg36
S'HOU'
p224
sg38
S'44'
p225
sg40
S'68'
p226
sg42
S'23T'
p227
ssg102
(dp228
g5
S'7.0'
p229
sg7
S'--'
p230
sg9
g10
sg11
S'--'
p231
sg13
g10
sg14
g25
sg16
S'2015'
p232
sg18
g102
sg20
S'4.6'
p233
sg22
S'10/25'
p234
sg24
g25
sg26
S'Devont Freeman'
p235
sg28
S'25'
p236
sg30
S'W10-7'
p237
sg32
S'14'
p238
sg34
g133
sg36
S'@TEN'
p239
sg38
S'8'
p240
sg40
S'116'
p241
sg42
S'19'
p242
ssS'6'
p243
(dp244
g5
S'7.0'
p245
sg7
S'--'
p246
sg9
g10
sg11
S'--'
p247
sg13
g10
sg14
g10
sg16
S'2015'
p248
sg18
g243
sg20
S'7.7'
p249
sg22
S'10/15'
p250
sg24
g10
sg26
S'Devont Freeman'
p251
sg28
S'13'
p252
sg30
S'L21-31'
p253
sg32
S'56'
p254
sg34
g240
sg36
S'@NO'
p255
sg38
S'13T'
p256
sg40
S'100'
p257
sg42
S'25T'
p258
ssg169
(dp259
g5
S'8.4'
p260
sg7
S'--'
p261
sg9
g10
sg11
S'--'
p262
sg13
g10
sg14
g10
sg16
S'2015'
p263
sg18
g169
sg20
S'1.0'
p264
sg22
S'11/08'
p265
sg24
g25
sg26
S'Devont Freeman'
p266
sg28
S'12'
p267
sg30
S'L16-17'
p268
sg32
S'67'
p269
sg34
g240
sg36
S'@SF'
p270
sg38
S'17T'
p271
sg40
S'12'
p272
sg42
g102
ssg240
(dp273
g5
S'7.2'
p274
sg7
S'--'
p275
sg9
g10
sg11
S'--'
p276
sg13
g10
sg14
g25
sg16
S'2015'
p277
sg18
g240
sg20
S'4.2'
p278
sg22
S'11/01'
p279
sg24
g25
sg26
S'Devont Freeman'
p280
sg28
S'21'
p281
sg30
S'L20-23'
p282
sg32
S'43'
p283
sg34
g243
sg36
S'TB'
p284
sg38
S'13'
p285
sg40
S'88'
p286
sg42
S'20'
p287
sssS'2014'
p288
(dp289
g3
(dp290
g5
S'--'
p291
sg7
S'--'
p292
sg9
g25
sg11
S'--'
p293
sg13
g10
sg14
S'--'
p294
sg16
S'2014'
p295
sg18
S'11'
p296
sg20
S'4.7'
p297
sg22
S'11/16'
p298
sg24
g25
sg26
S'Devont Freeman'
p299
sg28
g243
sg30
S'W19-17'
p300
sg32
S'--'
p301
sg34
S'--'
p302
sg36
S'@CAR'
p303
sg38
S'--'
p304
sg40
S'28'
p305
sg42
S'15'
p306
ssg44
(dp307
g5
S'-2.0'
p308
sg7
S'--'
p309
sg9
g25
sg11
S'--'
p310
sg13
g10
sg14
g25
sg16
S'2014'
p311
sg18
S'10'
p312
sg20
S'5.3'
p313
sg22
S'11/09'
p314
sg24
g25
sg26
S'Devont Freeman'
p315
sg28
g29
sg30
S'W27-17'
p316
sg32
S'-2'
p317
sg34
g10
sg36
S'@TB'
p318
sg38
S'-2'
p319
sg40
S'16'
p320
sg42
g169
ssg51
(dp321
g5
S'4.0'
p322
sg7
S'--'
p323
sg9
g25
sg11
S'--'
p324
sg13
g10
sg14
g25
sg16
S'2014'
p325
sg18
S'13'
p326
sg20
S'3.3'
p327
sg22
S'11/30'
p328
sg24
g25
sg26
S'Devont Freeman'
p329
sg28
g240
sg30
S'W29-18'
p330
sg32
g197
sg34
g10
sg36
S'ARI'
p331
sg38
g197
sg40
S'26'
p332
sg42
S'19'
p333
ssg69
(dp334
g5
S'--'
p335
sg7
S'--'
p336
sg9
g25
sg11
S'--'
p337
sg13
g10
sg14
g25
sg16
S'2014'
p338
sg18
S'12'
p339
sg20
S'1.4'
p340
sg22
S'11/23'
p341
sg24
g25
sg26
S'Devont Freeman'
p342
sg28
g181
sg30
S'L24-26'
p343
sg32
g25
sg34
g25
sg36
S'CLE'
p344
sg38
S'--'
p345
sg40
g102
sg42
g243
ssg89
(dp346
g5
S'9.0'
p347
sg7
S'--'
p348
sg9
g25
sg11
S'--'
p349
sg13
g10
sg14
g25
sg16
S'2014'
p350
sg18
S'15'
p351
sg20
S'5.3'
p352
sg22
S'12/14'
p353
sg24
g25
sg26
S'Devont Freeman'
p354
sg28
g197
sg30
S'L20-27'
p355
sg32
g169
sg34
g10
sg36
S'PIT'
p356
sg38
g169
sg40
S'21'
p357
sg42
S'10'
p358
ssg107
(dp359
g5
S'5.0'
p360
sg7
S'--'
p361
sg9
g25
sg11
S'--'
p362
sg13
g10
sg14
g25
sg16
S'2014'
p363
sg18
S'14'
p364
sg20
S'-1.0'
p365
sg22
S'12/08'
p366
sg24
g25
sg26
S'Devont Freeman'
p367
sg28
g133
sg30
S'L37-43'
p368
sg32
S'10'
p369
sg34
g133
sg36
S'@GB'
p370
sg38
g243
sg40
S'-2'
p371
sg42
g25
ssg122
(dp372
g5
S'1.5'
p373
sg7
S'--'
p374
sg9
g25
sg11
S'--'
p375
sg13
g10
sg14
g25
sg16
S'2014'
p376
sg18
S'17'
p377
sg20
S'2.2'
p378
sg22
S'12/28'
p379
sg24
g25
sg26
S'Devont Freeman'
p380
sg28
g243
sg30
S'L3-34'
p381
sg32
g29
sg34
g133
sg36
S'CAR'
p382
sg38
g102
sg40
S'13'
p383
sg42
g181
ssg138
(dp384
g5
S'16.0'
p385
sg7
S'--'
p386
sg9
g25
sg11
S'--'
p387
sg13
g10
sg14
g25
sg16
S'2014'
p388
sg18
S'16'
p389
sg20
S'7.2'
p390
sg22
S'12/21'
p391
sg24
g10
sg26
S'Devont Freeman'
p392
sg28
g181
sg30
S'W30-14'
p393
sg32
S'48'
p394
sg34
g29
sg36
S'@NO'
p395
sg38
S'36'
p396
sg40
S'36'
p397
sg42
S'31T'
p398
ssg10
(dp399
g5
S'9.0'
p400
sg7
S'--'
p401
sg9
g25
sg11
S'--'
p402
sg13
g10
sg14
g25
sg16
S'2014'
p403
sg18
g10
sg20
S'7.5'
p404
sg22
S'09/07'
p405
sg24
g25
sg26
S'Devont Freeman'
p406
sg28
g133
sg30
S'W37-34'
p407
sg32
S'18'
p408
sg34
g133
sg36
S'NO'
p409
sg38
S'13'
p410
sg40
S'15'
p411
sg42
S'10'
p412
ssg29
(dp413
g5
S'7.0'
p414
sg7
g10
sg9
g25
sg11
g10
sg13
g10
sg14
g25
sg16
S'2014'
p415
sg18
g29
sg20
S'1.1'
p416
sg22
S'09/18'
p417
sg24
g25
sg26
S'Devont Freeman'
p418
sg28
S'11'
p419
sg30
S'W56-14'
p420
sg32
g102
sg34
g10
sg36
S'TB'
p421
sg38
g102
sg40
S'12'
p422
sg42
g243
ssg133
(dp423
g5
S'11.0'
p424
sg7
S'--'
p425
sg9
g25
sg11
S'--'
p426
sg13
g10
sg14
g25
sg16
S'2014'
p427
sg18
g133
sg20
S'--'
p428
sg22
S'09/14'
p429
sg24
S'--'
p430
sg26
S'Devont Freeman'
p431
sg28
S'--'
p432
sg30
S'L10-24'
p433
sg32
S'22'
p434
sg34
g133
sg36
S'@CIN'
p435
sg38
S'18'
p436
sg40
S'--'
p437
sg42
S'--'
p438
ssg181
(dp439
g5
S'8.8'
p440
sg7
S'--'
p441
sg9
g25
sg11
S'--'
p442
sg13
g10
sg14
g25
sg16
S'2014'
p443
sg18
g181
sg20
S'9.5'
p444
sg22
S'10/05'
p445
sg24
g25
sg26
S'Devont Freeman'
p446
sg28
g197
sg30
S'L20-30'
p447
sg32
S'44'
p448
sg34
g181
sg36
S'@NYG'
p449
sg38
S'19'
p450
sg40
S'38'
p451
sg42
S'24'
p452
ssg197
(dp453
g5
S'6.0'
p454
sg7
S'--'
p455
sg9
g25
sg11
S'--'
p456
sg13
g10
sg14
g25
sg16
S'2014'
p457
sg18
g197
sg20
S'4.0'
p458
sg22
S'09/28'
p459
sg24
g25
sg26
S'Devont Freeman'
p460
sg28
g133
sg30
S'L28-41'
p461
sg32
S'12'
p462
sg34
g133
sg36
S'@MIN'
p463
sg38
g243
sg40
g240
sg42
g181
ssg102
(dp464
g5
S'3.4'
p465
sg7
S'--'
p466
sg9
g25
sg11
S'--'
p467
sg13
g10
sg14
g25
sg16
S'2014'
p468
sg18
g102
sg20
S'10.0'
p469
sg22
S'10/19'
p470
sg24
g25
sg26
S'Devont Freeman'
p471
sg28
g133
sg30
S'L7-29'
p472
sg32
S'17'
p473
sg34
g181
sg36
S'@BAL'
p474
sg38
g169
sg40
S'20'
p475
sg42
S'18'
p476
ssg243
(dp477
g5
S'13.0'
p478
sg7
S'--'
p479
sg9
g25
sg11
S'--'
p480
sg13
g10
sg14
g25
sg16
S'2014'
p481
sg18
g243
sg20
S'2.5'
p482
sg22
S'10/12'
p483
sg24
g25
sg26
S'Devont Freeman'
p484
sg28
g133
sg30
S'L13-27'
p485
sg32
S'26'
p486
sg34
g133
sg36
S'CHI'
p487
sg38
S'14'
p488
sg40
g181
sg42
g29
ssg169
(dp489
g5
g46
sg7
g46
sg9
g46
sg11
g46
sg13
g46
sg14
g46
sg16
S'2014'
p490
sg18
g169
sg20
g46
sg22
S'Bye'
p491
sg24
g46
sg26
S'Devont Freeman'
p492
sg28
g46
sg30
g46
sg32
g46
sg34
g46
sg36
g46
sg38
g46
sg40
g46
sg42
g46
ssg240
(dp493
g5
S'7.0'
p494
sg7
S'--'
p495
sg9
g25
sg11
S'--'
p496
sg13
g10
sg14
g10
sg16
S'2014'
p497
sg18
g240
sg20
S'1.7'
p498
sg22
S'10/26'
p499
sg24
g25
sg26
S'Devont Freeman'
p500
sg28
g29
sg30
S'L21-22'
p501
sg32
g102
sg34
g10
sg36
S'DET'
p502
sg38
S'7T'
p503
sg40
g181
sg42
g133
sss.