(dp0
S'2015'
p1
(dp2
S'11'
p3
(dp4
S'RecAvg'
p5
S'9.0'
p6
sS'FUM'
p7
S'--'
p8
sS'GS'
p9
S'0'
p10
sS'Lost'
p11
S'--'
p12
sS'G'
p13
S'1'
p14
sS'RecTD'
p15
g10
sS'Year'
p16
S'2015'
p17
sS'WK'
p18
S'11'
p19
sS'RushAvg'
p20
S'0.0'
p21
sS'Game Date'
p22
S'11/19'
p23
sS'RushTD'
p24
g10
sS'Player'
p25
S'Dexter McCluster'
p26
sS'RushAtt'
p27
S'2'
p28
sS'Result'
p29
S'L13-19'
p30
sS'RecYds'
p31
S'18'
p32
sS'Rec'
p33
g28
sS'Opp'
p34
S'@JAC'
p35
sS'RecLng'
p36
S'9'
p37
sS'RushYds'
p38
g10
sS'RushLng'
p39
S'4'
p40
ssS'10'
p41
(dp42
g5
S'6.8'
p43
sg7
g14
sg9
g10
sg11
g14
sg13
g14
sg15
g10
sg16
S'2015'
p44
sg18
S'10'
p45
sg20
S'8.3'
p46
sg22
S'11/15'
p47
sg24
g14
sg25
S'Dexter McCluster'
p48
sg27
S'3'
p49
sg29
S'L10-27'
p50
sg31
S'27'
p51
sg33
g40
sg34
S'CAR'
p52
sg36
S'14'
p53
sg38
S'25'
p54
sg39
S'25T'
p55
ssS'13'
p56
(dp57
g5
S'--'
p58
sg7
S'--'
p59
sg9
g10
sg11
S'--'
p60
sg13
g10
sg15
S'--'
p61
sg16
S'2015'
p62
sg18
S'13'
p63
sg20
S'--'
p64
sg22
S'12/06'
p65
sg24
S'--'
p66
sg25
S'Dexter McCluster'
p67
sg27
S'--'
p68
sg29
S'W42-39'
p69
sg31
S'--'
p70
sg33
S'--'
p71
sg34
S'JAC'
p72
sg36
S'--'
p73
sg38
S'--'
p74
sg39
S'--'
p75
ssS'12'
p76
(dp77
g5
S'--'
p78
sg7
S'--'
p79
sg9
g10
sg11
S'--'
p80
sg13
g10
sg15
S'--'
p81
sg16
S'2015'
p82
sg18
S'12'
p83
sg20
S'--'
p84
sg22
S'11/29'
p85
sg24
S'--'
p86
sg25
S'Dexter McCluster'
p87
sg27
S'--'
p88
sg29
S'L21-24'
p89
sg31
S'--'
p90
sg33
S'--'
p91
sg34
S'OAK'
p92
sg36
S'--'
p93
sg38
S'--'
p94
sg39
S'--'
p95
ssS'14'
p96
(dp97
g5
S'9.5'
p98
sg7
S'--'
p99
sg9
g10
sg11
S'--'
p100
sg13
g14
sg15
g10
sg16
S'2015'
p101
sg18
S'14'
p102
sg20
S'3.0'
p103
sg22
S'12/13'
p104
sg24
g10
sg25
S'Dexter McCluster'
p105
sg27
g40
sg29
S'L8-30'
p106
sg31
S'38'
p107
sg33
g40
sg34
S'@NYJ'
p108
sg36
S'28'
p109
sg38
S'12'
p110
sg39
S'8'
p111
ssg14
(dp112
g5
S'--'
p113
sg7
S'--'
p114
sg9
g10
sg11
S'--'
p115
sg13
g14
sg15
S'--'
p116
sg16
S'2015'
p117
sg18
g14
sg20
S'4.0'
p118
sg22
S'09/13'
p119
sg24
g10
sg25
S'Dexter McCluster'
p120
sg27
g28
sg29
S'W42-14'
p121
sg31
S'--'
p122
sg33
S'--'
p123
sg34
S'@TB'
p124
sg36
S'--'
p125
sg38
g111
sg39
S'5'
p126
ssg49
(dp127
g5
S'35.0'
p128
sg7
S'--'
p129
sg9
g14
sg11
S'--'
p130
sg13
g14
sg15
g10
sg16
S'2015'
p131
sg18
g49
sg20
S'1.4'
p132
sg22
S'09/27'
p133
sg24
g10
sg25
S'Dexter McCluster'
p134
sg27
g126
sg29
S'L33-35'
p135
sg31
S'35'
p136
sg33
g14
sg34
S'IND'
p137
sg36
S'35'
p138
sg38
S'7'
p139
sg39
S'10'
p140
ssg28
(dp141
g5
S'6.5'
p142
sg7
S'--'
p143
sg9
g10
sg11
S'--'
p144
sg13
g14
sg15
g10
sg16
S'2015'
p145
sg18
g28
sg20
S'9.8'
p146
sg22
S'09/20'
p147
sg24
g10
sg25
S'Dexter McCluster'
p148
sg27
S'10'
p149
sg29
S'L14-28'
p150
sg31
S'26'
p151
sg33
g40
sg34
S'@CLE'
p152
sg36
S'13'
p153
sg38
S'98'
p154
sg39
S'44'
p155
ssg126
(dp156
g5
S'-2.0'
p157
sg7
S'--'
p158
sg9
g10
sg11
S'--'
p159
sg13
g14
sg15
g10
sg16
S'2015'
p160
sg18
g126
sg20
S'2.5'
p161
sg22
S'10/11'
p162
sg24
g10
sg25
S'Dexter McCluster'
p163
sg27
g111
sg29
S'L13-14'
p164
sg31
S'-2'
p165
sg33
g14
sg34
S'BUF'
p166
sg36
S'-2'
p167
sg38
S'20'
p168
sg39
g111
ssg40
(dp169
g5
S''
p170
sg7
g170
sg9
g170
sg11
g170
sg13
g170
sg15
g170
sg16
S'2015'
p171
sg18
g40
sg20
g170
sg22
S'Bye'
p172
sg24
g170
sg25
S'Dexter McCluster'
p173
sg27
g170
sg29
g170
sg31
g170
sg33
g170
sg34
g170
sg36
g170
sg38
g170
sg39
g170
ssg139
(dp174
g5
S'8.0'
p175
sg7
S'--'
p176
sg9
g14
sg11
S'--'
p177
sg13
g14
sg15
g10
sg16
S'2015'
p178
sg18
g139
sg20
S'4.0'
p179
sg22
S'10/25'
p180
sg24
g10
sg25
S'Dexter McCluster'
p181
sg27
g126
sg29
S'L7-10'
p182
sg31
S'48'
p183
sg33
S'6'
p184
sg34
S'ATL'
p185
sg36
S'14'
p186
sg38
S'20'
p187
sg39
g184
ssg184
(dp188
g5
S'6.3'
p189
sg7
S'--'
p190
sg9
g10
sg11
S'--'
p191
sg13
g14
sg15
g14
sg16
S'2015'
p192
sg18
g184
sg20
S'4.6'
p193
sg22
S'10/18'
p194
sg24
g10
sg25
S'Dexter McCluster'
p195
sg27
g126
sg29
S'L10-38'
p196
sg31
S'19'
p197
sg33
g49
sg34
S'MIA'
p198
sg36
S'14'
p199
sg38
S'23'
p200
sg39
S'16'
p201
ssg37
(dp202
g5
S'14.0'
p203
sg7
g14
sg9
g10
sg11
g14
sg13
g14
sg15
g10
sg16
S'2015'
p204
sg18
g37
sg20
S'2.4'
p205
sg22
S'11/08'
p206
sg24
g10
sg25
S'Dexter McCluster'
p207
sg27
g111
sg29
S'W34-28'
p208
sg31
S'28'
p209
sg33
g28
sg34
S'@NO'
p210
sg36
S'21'
p211
sg38
S'19'
p212
sg39
g126
ssg111
(dp213
g5
S'5.8'
p214
sg7
S'--'
p215
sg9
g10
sg11
S'--'
p216
sg13
g14
sg15
g10
sg16
S'2015'
p217
sg18
g111
sg20
S'5.0'
p218
sg22
S'11/01'
p219
sg24
g10
sg25
S'Dexter McCluster'
p220
sg27
g49
sg29
S'L6-20'
p221
sg31
S'23'
p222
sg33
g40
sg34
S'@HOU'
p223
sg36
g37
sg38
S'15'
p224
sg39
g139
sssS'2014'
p225
(dp226
g3
(dp227
g5
S'17.0'
p228
sg7
S'--'
p229
sg9
g10
sg11
S'--'
p230
sg13
g14
sg15
g10
sg16
S'2014'
p231
sg18
S'11'
p232
sg20
S'5.0'
p233
sg22
S'11/17'
p234
sg24
g10
sg25
S'Dexter McCluster'
p235
sg27
g14
sg29
S'L24-27'
p236
sg31
S'17'
p237
sg33
g14
sg34
S'PIT'
p238
sg36
S'17'
p239
sg38
g126
sg39
g126
ssg41
(dp240
g5
S'--'
p241
sg7
S'--'
p242
sg9
g10
sg11
S'--'
p243
sg13
g14
sg15
S'--'
p244
sg16
S'2014'
p245
sg18
S'10'
p246
sg20
S'--'
p247
sg22
S'11/09'
p248
sg24
S'--'
p249
sg25
S'Dexter McCluster'
p250
sg27
S'--'
p251
sg29
S'L7-21'
p252
sg31
S'--'
p253
sg33
S'--'
p254
sg34
S'@BAL'
p255
sg36
S'--'
p256
sg38
S'--'
p257
sg39
S'--'
p258
ssg56
(dp259
g5
S'5.5'
p260
sg7
S'--'
p261
sg9
g10
sg11
S'--'
p262
sg13
g14
sg15
g10
sg16
S'2014'
p263
sg18
S'13'
p264
sg20
S'3.7'
p265
sg22
S'11/30'
p266
sg24
g10
sg25
S'Dexter McCluster'
p267
sg27
g37
sg29
S'L21-45'
p268
sg31
S'11'
p269
sg33
g28
sg34
S'@HOU'
p270
sg36
g184
sg38
S'33'
p271
sg39
S'10'
p272
ssg76
(dp273
g5
S'5.0'
p274
sg7
S'--'
p275
sg9
g10
sg11
S'--'
p276
sg13
g14
sg15
g14
sg16
S'2014'
p277
sg18
S'12'
p278
sg20
S'2.0'
p279
sg22
S'11/23'
p280
sg24
g10
sg25
S'Dexter McCluster'
p281
sg27
g14
sg29
S'L24-43'
p282
sg31
S'15'
p283
sg33
g49
sg34
S'@PHI'
p284
sg36
S'6T'
p285
sg38
g28
sg39
g28
ssS'15'
p286
(dp287
g5
S'4.0'
p288
sg7
S'--'
p289
sg9
g10
sg11
S'--'
p290
sg13
g14
sg15
g10
sg16
S'2014'
p291
sg18
S'15'
p292
sg20
S'3.0'
p293
sg22
S'12/14'
p294
sg24
g10
sg25
S'Dexter McCluster'
p295
sg27
g126
sg29
S'L11-16'
p296
sg31
g111
sg33
g28
sg34
S'NYJ'
p297
sg36
g184
sg38
S'15'
p298
sg39
S'11'
p299
ssg96
(dp300
g5
S'5.0'
p301
sg7
S'--'
p302
sg9
g10
sg11
S'--'
p303
sg13
g14
sg15
g10
sg16
S'2014'
p304
sg18
S'14'
p305
sg20
S'--'
p306
sg22
S'12/07'
p307
sg24
S'--'
p308
sg25
S'Dexter McCluster'
p309
sg27
S'--'
p310
sg29
S'L7-36'
p311
sg31
S'10'
p312
sg33
g28
sg34
S'NYG'
p313
sg36
S'12'
p314
sg38
S'--'
p315
sg39
S'--'
p316
ssg14
(dp317
g5
S'17.0'
p318
sg7
S'--'
p319
sg9
g14
sg11
S'--'
p320
sg13
g14
sg15
g10
sg16
S'2014'
p321
sg18
g14
sg20
S'3.2'
p322
sg22
S'09/07'
p323
sg24
g10
sg25
S'Dexter McCluster'
p324
sg27
g37
sg29
S'W26-10'
p325
sg31
S'17'
p326
sg33
g14
sg34
S'@KC'
p327
sg36
S'17'
p328
sg38
S'29'
p329
sg39
g139
ssg49
(dp330
g5
S'7.5'
p331
sg7
S'--'
p332
sg9
g10
sg11
S'--'
p333
sg13
g14
sg15
g10
sg16
S'2014'
p334
sg18
g49
sg20
S'0.0'
p335
sg22
S'09/21'
p336
sg24
g10
sg25
S'Dexter McCluster'
p337
sg27
g14
sg29
S'L7-33'
p338
sg31
S'15'
p339
sg33
g28
sg34
S'@CIN'
p340
sg36
S'13'
p341
sg38
g10
sg39
g10
ssg28
(dp342
g5
S'9.0'
p343
sg7
S'--'
p344
sg9
g10
sg11
S'--'
p345
sg13
g14
sg15
g10
sg16
S'2014'
p346
sg18
g28
sg20
S'7.5'
p347
sg22
S'09/14'
p348
sg24
g10
sg25
S'Dexter McCluster'
p349
sg27
g40
sg29
S'L10-26'
p350
sg31
g37
sg33
g14
sg34
S'DAL'
p351
sg36
g37
sg38
S'30'
p352
sg39
S'16'
p353
ssg126
(dp354
g5
S'-2.0'
p355
sg7
S'--'
p356
sg9
g10
sg11
S'--'
p357
sg13
g14
sg15
g10
sg16
S'2014'
p358
sg18
g126
sg20
S'3.3'
p359
sg22
S'10/05'
p360
sg24
g10
sg25
S'Dexter McCluster'
p361
sg27
g49
sg29
S'L28-29'
p362
sg31
S'-2'
p363
sg33
g14
sg34
S'CLE'
p364
sg36
S'-2'
p365
sg38
S'10'
p366
sg39
g111
ssg40
(dp367
g5
S'--'
p368
sg7
S'--'
p369
sg9
g10
sg11
S'--'
p370
sg13
g14
sg15
g10
sg16
S'2014'
p371
sg18
g40
sg20
S'0.5'
p372
sg22
S'09/28'
p373
sg24
g10
sg25
S'Dexter McCluster'
p374
sg27
g28
sg29
S'L17-41'
p375
sg31
g10
sg33
g10
sg34
S'@IND'
p376
sg36
S'--'
p377
sg38
g14
sg39
g14
ssg139
(dp378
g5
S'6.0'
p379
sg7
g14
sg9
g14
sg11
g14
sg13
g14
sg15
g10
sg16
S'2014'
p380
sg18
g139
sg20
S'-1.0'
p381
sg22
S'10/19'
p382
sg24
g10
sg25
S'Dexter McCluster'
p383
sg27
g14
sg29
S'L17-19'
p384
sg31
g184
sg33
g14
sg34
S'@WAS'
p385
sg36
g184
sg38
S'-1'
p386
sg39
S'-1'
p387
ssg184
(dp388
g5
S'8.7'
p389
sg7
S'--'
p390
sg9
g10
sg11
S'--'
p391
sg13
g14
sg15
g10
sg16
S'2014'
p392
sg18
g184
sg20
S'3.0'
p393
sg22
S'10/12'
p394
sg24
g10
sg25
S'Dexter McCluster'
p395
sg27
g28
sg29
S'W16-14'
p396
sg31
S'52'
p397
sg33
g184
sg34
S'JAC'
p398
sg36
S'25'
p399
sg38
g184
sg39
g49
ssg37
(dp400
g5
g170
sg7
g170
sg9
g170
sg11
g170
sg13
g170
sg15
g170
sg16
S'2014'
p401
sg18
g37
sg20
g170
sg22
S'Bye'
p402
sg24
g170
sg25
S'Dexter McCluster'
p403
sg27
g170
sg29
g170
sg31
g170
sg33
g170
sg34
g170
sg36
g170
sg38
g170
sg39
g170
ssg111
(dp404
g5
S'9.8'
p405
sg7
S'--'
p406
sg9
g10
sg11
S'--'
p407
sg13
g14
sg15
g10
sg16
S'2014'
p408
sg18
g111
sg20
S'0.5'
p409
sg22
S'10/26'
p410
sg24
g10
sg25
S'Dexter McCluster'
p411
sg27
g28
sg29
S'L16-30'
p412
sg31
S'39'
p413
sg33
g40
sg34
S'HOU'
p414
sg36
S'23'
p415
sg38
g14
sg39
g28
sssS'2011'
p416
(dp417
g3
(dp418
g5
S'3.0'
p419
sg7
S'--'
p420
sg9
g14
sg11
S'--'
p421
sg13
g14
sg15
g10
sg16
S'2011'
p422
sg18
S'11'
p423
sg20
S'5.0'
p424
sg22
S'11/21'
p425
sg24
g10
sg25
S'Dexter McCluster'
p426
sg27
g37
sg29
S'L3-34'
p427
sg31
g49
sg33
g14
sg34
S'@NE'
p428
sg36
g49
sg38
S'45'
p429
sg39
g37
ssg41
(dp430
g5
S'8.0'
p431
sg7
S'--'
p432
sg9
g10
sg11
S'--'
p433
sg13
g14
sg15
g10
sg16
S'2011'
p434
sg18
S'10'
p435
sg20
S'5.6'
p436
sg22
S'11/13'
p437
sg24
g10
sg25
S'Dexter McCluster'
p438
sg27
g111
sg29
S'L10-17'
p439
sg31
S'48'
p440
sg33
g184
sg34
S'DEN'
p441
sg36
S'14'
p442
sg38
S'45'
p443
sg39
S'10'
p444
ssg56
(dp445
g5
S'11.5'
p446
sg7
S'--'
p447
sg9
g10
sg11
S'--'
p448
sg13
g14
sg15
g14
sg16
S'2011'
p449
sg18
S'13'
p450
sg20
S'6.8'
p451
sg22
S'12/04'
p452
sg24
g10
sg25
S'Dexter McCluster'
p453
sg27
g37
sg29
S'W10-3'
p454
sg31
S'46'
p455
sg33
g40
sg34
S'@CHI'
p456
sg36
S'38T'
p457
sg38
S'61'
p458
sg39
S'32'
p459
ssg76
(dp460
g5
S'5.5'
p461
sg7
S'--'
p462
sg9
g10
sg11
S'--'
p463
sg13
g14
sg15
g10
sg16
S'2011'
p464
sg18
S'12'
p465
sg20
S'3.1'
p466
sg22
S'11/27'
p467
sg24
g10
sg25
S'Dexter McCluster'
p468
sg27
g37
sg29
S'L9-13'
p469
sg31
S'11'
p470
sg33
g28
sg34
S'PIT'
p471
sg36
g184
sg38
S'28'
p472
sg39
g37
ssg286
(dp473
g5
S'5.5'
p474
sg7
S'--'
p475
sg9
g10
sg11
S'--'
p476
sg13
g14
sg15
g10
sg16
S'2011'
p477
sg18
S'15'
p478
sg20
S'2.8'
p479
sg22
S'12/18'
p480
sg24
g10
sg25
S'Dexter McCluster'
p481
sg27
g126
sg29
S'W19-14'
p482
sg31
S'11'
p483
sg33
g28
sg34
S'GB'
p484
sg36
g111
sg38
S'14'
p485
sg39
g139
ssg96
(dp486
g5
S'--'
p487
sg7
g14
sg9
g14
sg11
g10
sg13
g14
sg15
g10
sg16
S'2011'
p488
sg18
S'14'
p489
sg20
S'0.3'
p490
sg22
S'12/11'
p491
sg24
g10
sg25
S'Dexter McCluster'
p492
sg27
g40
sg29
S'L10-37'
p493
sg31
g10
sg33
g10
sg34
S'@NYJ'
p494
sg36
S'--'
p495
sg38
g14
sg39
g28
ssS'17'
p496
(dp497
g5
S'8.3'
p498
sg7
S'--'
p499
sg9
g10
sg11
S'--'
p500
sg13
g14
sg15
g10
sg16
S'2011'
p501
sg18
S'17'
p502
sg20
S'5.1'
p503
sg22
S'01/01'
p504
sg24
g14
sg25
S'Dexter McCluster'
p505
sg27
S'12'
p506
sg29
S'W7-3'
p507
sg31
S'25'
p508
sg33
g49
sg34
S'@DEN'
p509
sg36
S'19'
p510
sg38
S'61'
p511
sg39
S'21T'
p512
ssS'16'
p513
(dp514
g5
S'17.8'
p515
sg7
S'--'
p516
sg9
g10
sg11
S'--'
p517
sg13
g14
sg15
g10
sg16
S'2011'
p518
sg18
S'16'
p519
sg20
S'5.0'
p520
sg22
S'12/24'
p521
sg24
g10
sg25
S'Dexter McCluster'
p522
sg27
g49
sg29
S'L13-16'
p523
sg31
S'89'
p524
sg33
g126
sg34
S'OAK'
p525
sg36
S'49'
p526
sg38
S'15'
p527
sg39
g184
ssg14
(dp528
g5
S'5.0'
p529
sg7
g14
sg9
g10
sg11
g14
sg13
g14
sg15
g10
sg16
S'2011'
p530
sg18
g14
sg20
S'10.5'
p531
sg22
S'09/11'
p532
sg24
g10
sg25
S'Dexter McCluster'
p533
sg27
g40
sg29
S'L7-41'
p534
sg31
S'25'
p535
sg33
g126
sg34
S'BUF'
p536
sg36
S'10'
p537
sg38
S'42'
p538
sg39
S'23'
p539
ssg49
(dp540
g5
S'3.4'
p541
sg7
S'--'
p542
sg9
g10
sg11
S'--'
p543
sg13
g14
sg15
g10
sg16
S'2011'
p544
sg18
g49
sg20
S'5.0'
p545
sg22
S'09/25'
p546
sg24
g10
sg25
S'Dexter McCluster'
p547
sg27
g37
sg29
S'L17-20'
p548
sg31
S'17'
p549
sg33
g126
sg34
S'@SD'
p550
sg36
g40
sg38
S'45'
p551
sg39
S'16'
p552
ssg28
(dp553
g5
S'-0.5'
p554
sg7
g14
sg9
g14
sg11
g14
sg13
g14
sg15
g10
sg16
S'2011'
p555
sg18
g28
sg20
S'6.4'
p556
sg22
S'09/18'
p557
sg24
g10
sg25
S'Dexter McCluster'
p558
sg27
g111
sg29
S'L3-48'
p559
sg31
S'-2'
p560
sg33
g40
sg34
S'@DET'
p561
sg36
g184
sg38
S'51'
p562
sg39
S'24'
p563
ssg126
(dp564
g5
S'10.0'
p565
sg7
S'--'
p566
sg9
g10
sg11
S'--'
p567
sg13
g14
sg15
g10
sg16
S'2011'
p568
sg18
g126
sg20
S'2.0'
p569
sg22
S'10/09'
p570
sg24
g10
sg25
S'Dexter McCluster'
p571
sg27
g40
sg29
S'W28-24'
p572
sg31
S'10'
p573
sg33
g14
sg34
S'@IND'
p574
sg36
S'10'
p575
sg38
g111
sg39
g40
ssg40
(dp576
g5
S'4.0'
p577
sg7
S'--'
p578
sg9
g14
sg11
S'--'
p579
sg13
g14
sg15
g10
sg16
S'2011'
p580
sg18
g40
sg20
S'3.7'
p581
sg22
S'10/02'
p582
sg24
g10
sg25
S'Dexter McCluster'
p583
sg27
g139
sg29
S'W22-17'
p584
sg31
S'12'
p585
sg33
g49
sg34
S'MIN'
p586
sg36
g184
sg38
S'26'
p587
sg39
S'12'
p588
ssg139
(dp589
g5
S'-3.0'
p590
sg7
S'--'
p591
sg9
g10
sg11
S'--'
p592
sg13
g14
sg15
g10
sg16
S'2011'
p593
sg18
g139
sg20
S'3.8'
p594
sg22
S'10/23'
p595
sg24
g10
sg25
S'Dexter McCluster'
p596
sg27
S'10'
p597
sg29
S'W28-0'
p598
sg31
S'-3'
p599
sg33
g14
sg34
S'@OAK'
p600
sg36
S'-3'
p601
sg38
S'38'
p602
sg39
S'13'
p603
ssg184
(dp604
g5
g170
sg7
g170
sg9
g170
sg11
g170
sg13
g170
sg15
g170
sg16
S'2011'
p605
sg18
g184
sg20
g170
sg22
S'Bye'
p606
sg24
g170
sg25
S'Dexter McCluster'
p607
sg27
g170
sg29
g170
sg31
g170
sg33
g170
sg34
g170
sg36
g170
sg38
g170
sg39
g170
ssg37
(dp608
g5
S'8.0'
p609
sg7
S'--'
p610
sg9
g10
sg11
S'--'
p611
sg13
g14
sg15
g10
sg16
S'2011'
p612
sg18
g37
sg20
S'5.1'
p613
sg22
S'11/06'
p614
sg24
g10
sg25
S'Dexter McCluster'
p615
sg27
g139
sg29
S'L3-31'
p616
sg31
g111
sg33
g14
sg34
S'MIA'
p617
sg36
g111
sg38
S'36'
p618
sg39
S'11'
p619
ssg111
(dp620
g5
S'9.3'
p621
sg7
g14
sg9
g10
sg11
g14
sg13
g14
sg15
g10
sg16
S'2011'
p622
sg18
g111
sg20
S'0.0'
p623
sg22
S'10/31'
p624
sg24
g10
sg25
S'Dexter McCluster'
p625
sg27
g184
sg29
S'W23-20'
p626
sg31
S'28'
p627
sg33
g49
sg34
S'SD'
p628
sg36
S'13'
p629
sg38
g10
sg39
g40
sssS'2010'
p630
(dp631
g3
(dp632
g5
S'--'
p633
sg7
S'--'
p634
sg9
g10
sg11
S'--'
p635
sg13
g10
sg15
S'--'
p636
sg16
S'2010'
p637
sg18
S'11'
p638
sg20
S'--'
p639
sg22
S'11/21'
p640
sg24
S'--'
p641
sg25
S'Dexter McCluster'
p642
sg27
S'--'
p643
sg29
S'W31-13'
p644
sg31
S'--'
p645
sg33
S'--'
p646
sg34
S'ARI'
p647
sg36
S'--'
p648
sg38
S'--'
p649
sg39
S'--'
p650
ssg41
(dp651
g5
S'--'
p652
sg7
S'--'
p653
sg9
g10
sg11
S'--'
p654
sg13
g10
sg15
S'--'
p655
sg16
S'2010'
p656
sg18
S'10'
p657
sg20
S'--'
p658
sg22
S'11/14'
p659
sg24
S'--'
p660
sg25
S'Dexter McCluster'
p661
sg27
S'--'
p662
sg29
S'L29-49'
p663
sg31
S'--'
p664
sg33
S'--'
p665
sg34
S'@DEN'
p666
sg36
S'--'
p667
sg38
S'--'
p668
sg39
S'--'
p669
ssg56
(dp670
g5
S'12.5'
p671
sg7
g14
sg9
g14
sg11
g14
sg13
g14
sg15
g10
sg16
S'2010'
p672
sg18
S'13'
p673
sg20
S'2.2'
p674
sg22
S'12/05'
p675
sg24
g10
sg25
S'Dexter McCluster'
p676
sg27
g126
sg29
S'W10-6'
p677
sg31
S'25'
p678
sg33
g28
sg34
S'DEN'
p679
sg36
S'19'
p680
sg38
S'11'
p681
sg39
g126
ssg76
(dp682
g5
S'--'
p683
sg7
S'--'
p684
sg9
g10
sg11
S'--'
p685
sg13
g10
sg15
S'--'
p686
sg16
S'2010'
p687
sg18
S'12'
p688
sg20
S'--'
p689
sg22
S'11/28'
p690
sg24
S'--'
p691
sg25
S'Dexter McCluster'
p692
sg27
S'--'
p693
sg29
S'W42-24'
p694
sg31
S'--'
p695
sg33
S'--'
p696
sg34
S'@SEA'
p697
sg36
S'--'
p698
sg38
S'--'
p699
sg39
S'--'
p700
ssg286
(dp701
g5
S'7.0'
p702
sg7
S'--'
p703
sg9
g10
sg11
S'--'
p704
sg13
g14
sg15
g10
sg16
S'2010'
p705
sg18
S'15'
p706
sg20
S'-4.0'
p707
sg22
S'12/19'
p708
sg24
g10
sg25
S'Dexter McCluster'
p709
sg27
g14
sg29
S'W27-13'
p710
sg31
g139
sg33
g14
sg34
S'@STL'
p711
sg36
g139
sg38
S'-4'
p712
sg39
S'-4'
p713
ssg96
(dp714
g5
S'--'
p715
sg7
S'--'
p716
sg9
g14
sg11
S'--'
p717
sg13
g14
sg15
S'--'
p718
sg16
S'2010'
p719
sg18
S'14'
p720
sg20
S'--'
p721
sg22
S'12/12'
p722
sg24
S'--'
p723
sg25
S'Dexter McCluster'
p724
sg27
S'--'
p725
sg29
S'L0-31'
p726
sg31
S'--'
p727
sg33
S'--'
p728
sg34
S'@SD'
p729
sg36
S'--'
p730
sg38
S'--'
p731
sg39
S'--'
p732
ssg496
(dp733
g5
S'15.0'
p734
sg7
S'--'
p735
sg9
g14
sg11
S'--'
p736
sg13
g14
sg15
g10
sg16
S'2010'
p737
sg18
S'17'
p738
sg20
S'--'
p739
sg22
S'01/02'
p740
sg24
S'--'
p741
sg25
S'Dexter McCluster'
p742
sg27
S'--'
p743
sg29
S'L10-31'
p744
sg31
S'15'
p745
sg33
g14
sg34
S'OAK'
p746
sg36
S'15'
p747
sg38
S'--'
p748
sg39
S'--'
p749
ssg513
(dp750
g5
S'7.5'
p751
sg7
S'--'
p752
sg9
g14
sg11
S'--'
p753
sg13
g14
sg15
g10
sg16
S'2010'
p754
sg18
S'16'
p755
sg20
S'4.0'
p756
sg22
S'12/26'
p757
sg24
g10
sg25
S'Dexter McCluster'
p758
sg27
g14
sg29
S'W34-14'
p759
sg31
S'15'
p760
sg33
g28
sg34
S'TEN'
p761
sg36
S'14'
p762
sg38
g40
sg39
g40
ssg14
(dp763
g5
S'4.5'
p764
sg7
g14
sg9
g10
sg11
g10
sg13
g14
sg15
g10
sg16
S'2010'
p765
sg18
g14
sg20
S'0.0'
p766
sg22
S'09/13'
p767
sg24
g10
sg25
S'Dexter McCluster'
p768
sg27
g14
sg29
S'W21-14'
p769
sg31
g37
sg33
g28
sg34
S'SD'
p770
sg36
g126
sg38
g10
sg39
g10
ssg49
(dp771
g5
S'23.0'
p772
sg7
S'--'
p773
sg9
g14
sg11
S'--'
p774
sg13
g14
sg15
g14
sg16
S'2010'
p775
sg18
g49
sg20
S'-0.5'
p776
sg22
S'09/26'
p777
sg24
g10
sg25
S'Dexter McCluster'
p778
sg27
g28
sg29
S'W31-10'
p779
sg31
S'69'
p780
sg33
g49
sg34
S'SF'
p781
sg36
S'31T'
p782
sg38
S'-1'
p783
sg39
g40
ssg28
(dp784
g5
S'--'
p785
sg7
S'--'
p786
sg9
g10
sg11
S'--'
p787
sg13
g14
sg15
g10
sg16
S'2010'
p788
sg18
g28
sg20
S'3.0'
p789
sg22
S'09/19'
p790
sg24
g10
sg25
S'Dexter McCluster'
p791
sg27
g14
sg29
S'W16-14'
p792
sg31
g10
sg33
g10
sg34
S'@CLE'
p793
sg36
S'--'
p794
sg38
g49
sg39
g49
ssg126
(dp795
g5
S'7.5'
p796
sg7
S'--'
p797
sg9
g10
sg11
S'--'
p798
sg13
g14
sg15
g10
sg16
S'2010'
p799
sg18
g126
sg20
S'3.0'
p800
sg22
S'10/10'
p801
sg24
g10
sg25
S'Dexter McCluster'
p802
sg27
g14
sg29
S'L9-19'
p803
sg31
S'15'
p804
sg33
g28
sg34
S'@IND'
p805
sg36
g111
sg38
g49
sg39
g49
ssg40
(dp806
g5
g170
sg7
g170
sg9
g170
sg11
g170
sg13
g170
sg15
g170
sg16
S'2010'
p807
sg18
g40
sg20
g170
sg22
S'Bye'
p808
sg24
g170
sg25
S'Dexter McCluster'
p809
sg27
g170
sg29
g170
sg31
g170
sg33
g170
sg34
g170
sg36
g170
sg38
g170
sg39
g170
ssg139
(dp810
g5
S'8.2'
p811
sg7
S'--'
p812
sg9
g14
sg11
S'--'
p813
sg13
g14
sg15
g10
sg16
S'2010'
p814
sg18
g139
sg20
S'7.0'
p815
sg22
S'10/24'
p816
sg24
g10
sg25
S'Dexter McCluster'
p817
sg27
g40
sg29
S'W42-20'
p818
sg31
S'41'
p819
sg33
g126
sg34
S'JAC'
p820
sg36
S'11'
p821
sg38
S'28'
p822
sg39
S'15'
p823
ssg184
(dp824
g5
S'4.3'
p825
sg7
S'--'
p826
sg9
g14
sg11
S'--'
p827
sg13
g14
sg15
g10
sg16
S'2010'
p828
sg18
g184
sg20
S'13.5'
p829
sg22
S'10/17'
p830
sg24
g10
sg25
S'Dexter McCluster'
p831
sg27
g28
sg29
S'L31-35'
p832
sg31
S'13'
p833
sg33
g49
sg34
S'@HOU'
p834
sg36
g184
sg38
S'27'
p835
sg39
S'20'
p836
ssg37
(dp837
g5
S'--'
p838
sg7
S'--'
p839
sg9
g10
sg11
S'--'
p840
sg13
g10
sg15
S'--'
p841
sg16
S'2010'
p842
sg18
g37
sg20
S'--'
p843
sg22
S'11/07'
p844
sg24
S'--'
p845
sg25
S'Dexter McCluster'
p846
sg27
S'--'
p847
sg29
S'L20-23'
p848
sg31
S'--'
p849
sg33
S'--'
p850
sg34
S'@OAK'
p851
sg36
S'--'
p852
sg38
S'--'
p853
sg39
S'--'
p854
ssg111
(dp855
g5
S'--'
p856
sg7
S'--'
p857
sg9
g10
sg11
S'--'
p858
sg13
g10
sg15
S'--'
p859
sg16
S'2010'
p860
sg18
g111
sg20
S'--'
p861
sg22
S'10/31'
p862
sg24
S'--'
p863
sg25
S'Dexter McCluster'
p864
sg27
S'--'
p865
sg29
S'W13-10'
p866
sg31
S'--'
p867
sg33
S'--'
p868
sg34
S'BUF'
p869
sg36
S'--'
p870
sg38
S'--'
p871
sg39
S'--'
p872
sssS'2013'
p873
(dp874
g3
(dp875
g5
S'10.6'
p876
sg7
S'--'
p877
sg9
g10
sg11
S'--'
p878
sg13
g14
sg15
g10
sg16
S'2013'
p879
sg18
S'11'
p880
sg20
S'--'
p881
sg22
S'11/17'
p882
sg24
S'--'
p883
sg25
S'Dexter McCluster'
p884
sg27
S'--'
p885
sg29
S'L17-27'
p886
sg31
S'53'
p887
sg33
g126
sg34
S'@DEN'
p888
sg36
S'18'
p889
sg38
S'--'
p890
sg39
S'--'
p891
ssg41
(dp892
g5
g170
sg7
g170
sg9
g170
sg11
g170
sg13
g170
sg15
g170
sg16
S'2013'
p893
sg18
S'10'
p894
sg20
g170
sg22
S'Bye'
p895
sg24
g170
sg25
S'Dexter McCluster'
p896
sg27
g170
sg29
g170
sg31
g170
sg33
g170
sg34
g170
sg36
g170
sg38
g170
sg39
g170
ssg56
(dp897
g5
S'8.6'
p898
sg7
S'--'
p899
sg9
g10
sg11
S'--'
p900
sg13
g14
sg15
g10
sg16
S'2013'
p901
sg18
S'13'
p902
sg20
S'0.0'
p903
sg22
S'12/01'
p904
sg24
g10
sg25
S'Dexter McCluster'
p905
sg27
g14
sg29
S'L28-35'
p906
sg31
S'43'
p907
sg33
g126
sg34
S'DEN'
p908
sg36
S'28'
p909
sg38
g10
sg39
g10
ssg76
(dp910
g5
S'8.4'
p911
sg7
S'--'
p912
sg9
g10
sg11
S'--'
p913
sg13
g14
sg15
g10
sg16
S'2013'
p914
sg18
S'12'
p915
sg20
S'-1.0'
p916
sg22
S'11/24'
p917
sg24
g10
sg25
S'Dexter McCluster'
p918
sg27
g14
sg29
S'L38-41'
p919
sg31
S'59'
p920
sg33
g139
sg34
S'SD'
p921
sg36
S'17'
p922
sg38
S'-1'
p923
sg39
S'-1'
p924
ssg286
(dp925
g5
S'--'
p926
sg7
S'--'
p927
sg9
g10
sg11
S'--'
p928
sg13
g10
sg15
S'--'
p929
sg16
S'2013'
p930
sg18
S'15'
p931
sg20
S'--'
p932
sg22
S'12/15'
p933
sg24
S'--'
p934
sg25
S'Dexter McCluster'
p935
sg27
S'--'
p936
sg29
S'W56-31'
p937
sg31
S'--'
p938
sg33
S'--'
p939
sg34
S'@OAK'
p940
sg36
S'--'
p941
sg38
S'--'
p942
sg39
S'--'
p943
ssg96
(dp944
g5
S'5.3'
p945
sg7
S'--'
p946
sg9
g14
sg11
S'--'
p947
sg13
g14
sg15
g10
sg16
S'2013'
p948
sg18
S'14'
p949
sg20
S'--'
p950
sg22
S'12/08'
p951
sg24
S'--'
p952
sg25
S'Dexter McCluster'
p953
sg27
S'--'
p954
sg29
S'W45-10'
p955
sg31
S'21'
p956
sg33
g40
sg34
S'@WAS'
p957
sg36
S'10'
p958
sg38
S'--'
p959
sg39
S'--'
p960
ssg496
(dp961
g5
S'10.3'
p962
sg7
S'--'
p963
sg9
g14
sg11
S'--'
p964
sg13
g14
sg15
g14
sg16
S'2013'
p965
sg18
S'17'
p966
sg20
S'--'
p967
sg22
S'12/29'
p968
sg24
S'--'
p969
sg25
S'Dexter McCluster'
p970
sg27
S'--'
p971
sg29
S'L24-27'
p972
sg31
S'62'
p973
sg33
g184
sg34
S'@SD'
p974
sg36
S'28'
p975
sg38
S'--'
p976
sg39
S'--'
p977
ssg513
(dp978
g5
S'11.0'
p979
sg7
g14
sg9
g10
sg11
g10
sg13
g14
sg15
g10
sg16
S'2013'
p980
sg18
S'16'
p981
sg20
S'--'
p982
sg22
S'12/22'
p983
sg24
S'--'
p984
sg25
S'Dexter McCluster'
p985
sg27
S'--'
p986
sg29
S'L7-23'
p987
sg31
S'11'
p988
sg33
g14
sg34
S'IND'
p989
sg36
S'11'
p990
sg38
S'--'
p991
sg39
S'--'
p992
ssg14
(dp993
g5
S'14.3'
p994
sg7
S'--'
p995
sg9
g10
sg11
S'--'
p996
sg13
g14
sg15
g10
sg16
S'2013'
p997
sg18
g14
sg20
S'--'
p998
sg22
S'09/08'
p999
sg24
S'--'
p1000
sg25
S'Dexter McCluster'
p1001
sg27
S'--'
p1002
sg29
S'W28-2'
p1003
sg31
S'43'
p1004
sg33
g49
sg34
S'@JAC'
p1005
sg36
S'21'
p1006
sg38
S'--'
p1007
sg39
S'--'
p1008
ssg49
(dp1009
g5
S'1.0'
p1010
sg7
S'--'
p1011
sg9
g14
sg11
S'--'
p1012
sg13
g14
sg15
g10
sg16
S'2013'
p1013
sg18
g49
sg20
S'-3.0'
p1014
sg22
S'09/19'
p1015
sg24
g10
sg25
S'Dexter McCluster'
p1016
sg27
g14
sg29
S'W26-16'
p1017
sg31
g14
sg33
g14
sg34
S'@PHI'
p1018
sg36
g14
sg38
S'-3'
p1019
sg39
S'-3'
p1020
ssg28
(dp1021
g5
S'7.0'
p1022
sg7
S'--'
p1023
sg9
g14
sg11
S'--'
p1024
sg13
g14
sg15
g10
sg16
S'2013'
p1025
sg18
g28
sg20
S'--'
p1026
sg22
S'09/15'
p1027
sg24
S'--'
p1028
sg25
S'Dexter McCluster'
p1029
sg27
S'--'
p1030
sg29
S'W17-16'
p1031
sg31
S'14'
p1032
sg33
g28
sg34
S'DAL'
p1033
sg36
g37
sg38
S'--'
p1034
sg39
S'--'
p1035
ssg126
(dp1036
g5
S'--'
p1037
sg7
S'--'
p1038
sg9
g10
sg11
S'--'
p1039
sg13
g14
sg15
g10
sg16
S'2013'
p1040
sg18
g126
sg20
S'--'
p1041
sg22
S'10/06'
p1042
sg24
S'--'
p1043
sg25
S'Dexter McCluster'
p1044
sg27
S'--'
p1045
sg29
S'W26-17'
p1046
sg31
g10
sg33
g10
sg34
S'@TEN'
p1047
sg36
S'--'
p1048
sg38
S'--'
p1049
sg39
S'--'
p1050
ssg40
(dp1051
g5
S'9.6'
p1052
sg7
S'--'
p1053
sg9
g14
sg11
S'--'
p1054
sg13
g14
sg15
g10
sg16
S'2013'
p1055
sg18
g40
sg20
S'--'
p1056
sg22
S'09/29'
p1057
sg24
S'--'
p1058
sg25
S'Dexter McCluster'
p1059
sg27
S'--'
p1060
sg29
S'W31-7'
p1061
sg31
S'48'
p1062
sg33
g126
sg34
S'NYG'
p1063
sg36
S'17'
p1064
sg38
S'--'
p1065
sg39
S'--'
p1066
ssg139
(dp1067
g5
S'17.5'
p1068
sg7
S'--'
p1069
sg9
g10
sg11
S'--'
p1070
sg13
g14
sg15
g10
sg16
S'2013'
p1071
sg18
g139
sg20
S'2.0'
p1072
sg22
S'10/20'
p1073
sg24
g10
sg25
S'Dexter McCluster'
p1074
sg27
g28
sg29
S'W17-16'
p1075
sg31
S'70'
p1076
sg33
g40
sg34
S'HOU'
p1077
sg36
S'43'
p1078
sg38
g40
sg39
g49
ssg184
(dp1079
g5
S'10.0'
p1080
sg7
S'--'
p1081
sg9
g10
sg11
S'--'
p1082
sg13
g14
sg15
g10
sg16
S'2013'
p1083
sg18
g184
sg20
S'4.0'
p1084
sg22
S'10/13'
p1085
sg24
g10
sg25
S'Dexter McCluster'
p1086
sg27
g14
sg29
S'W24-7'
p1087
sg31
S'10'
p1088
sg33
g14
sg34
S'OAK'
p1089
sg36
S'10'
p1090
sg38
g40
sg39
g40
ssg37
(dp1091
g5
S'4.5'
p1092
sg7
S'--'
p1093
sg9
g14
sg11
S'--'
p1094
sg13
g14
sg15
g10
sg16
S'2013'
p1095
sg18
g37
sg20
S'-4.0'
p1096
sg22
S'11/03'
p1097
sg24
g10
sg25
S'Dexter McCluster'
p1098
sg27
g14
sg29
S'W23-13'
p1099
sg31
g37
sg33
g28
sg34
S'@BUF'
p1100
sg36
g139
sg38
S'-4'
p1101
sg39
S'-4'
p1102
ssg111
(dp1103
g5
S'9.6'
p1104
sg7
g14
sg9
g10
sg11
g10
sg13
g14
sg15
g14
sg16
S'2013'
p1105
sg18
g111
sg20
S'5.0'
p1106
sg22
S'10/27'
p1107
sg24
g10
sg25
S'Dexter McCluster'
p1108
sg27
g14
sg29
S'W23-17'
p1109
sg31
S'67'
p1110
sg33
g139
sg34
S'CLE'
p1111
sg36
S'28T'
p1112
sg38
g126
sg39
g126
sssS'2012'
p1113
(dp1114
g3
(dp1115
g5
S'12.3'
p1116
sg7
S'--'
p1117
sg9
g14
sg11
S'--'
p1118
sg13
g14
sg15
g10
sg16
S'2012'
p1119
sg18
S'11'
p1120
sg20
S'--'
p1121
sg22
S'11/18'
p1122
sg24
S'--'
p1123
sg25
S'Dexter McCluster'
p1124
sg27
S'--'
p1125
sg29
S'L6-28'
p1126
sg31
S'37'
p1127
sg33
g49
sg34
S'CIN'
p1128
sg36
S'26'
p1129
sg38
S'--'
p1130
sg39
S'--'
p1131
ssg41
(dp1132
g5
S'9.0'
p1133
sg7
S'--'
p1134
sg9
g10
sg11
S'--'
p1135
sg13
g14
sg15
g10
sg16
S'2012'
p1136
sg18
S'10'
p1137
sg20
S'--'
p1138
sg22
S'11/12'
p1139
sg24
S'--'
p1140
sg25
S'Dexter McCluster'
p1141
sg27
S'--'
p1142
sg29
S'L13-16'
p1143
sg31
S'18'
p1144
sg33
g28
sg34
S'@PIT'
p1145
sg36
S'13'
p1146
sg38
S'--'
p1147
sg39
S'--'
p1148
ssg56
(dp1149
g5
S'8.0'
p1150
sg7
S'--'
p1151
sg9
g10
sg11
S'--'
p1152
sg13
g14
sg15
g10
sg16
S'2012'
p1153
sg18
S'13'
p1154
sg20
S'0.0'
p1155
sg22
S'12/02'
p1156
sg24
g10
sg25
S'Dexter McCluster'
p1157
sg27
g14
sg29
S'W27-21'
p1158
sg31
S'16'
p1159
sg33
g28
sg34
S'CAR'
p1160
sg36
S'12'
p1161
sg38
g10
sg39
g10
ssg76
(dp1162
g5
S'5.3'
p1163
sg7
S'--'
p1164
sg9
g10
sg11
S'--'
p1165
sg13
g14
sg15
g10
sg16
S'2012'
p1166
sg18
S'12'
p1167
sg20
S'11.5'
p1168
sg22
S'11/25'
p1169
sg24
g10
sg25
S'Dexter McCluster'
p1170
sg27
g28
sg29
S'L9-17'
p1171
sg31
S'21'
p1172
sg33
g40
sg34
S'DEN'
p1173
sg36
g139
sg38
S'23'
p1174
sg39
S'19'
p1175
ssg286
(dp1176
g5
S'8.4'
p1177
sg7
S'--'
p1178
sg9
g10
sg11
S'--'
p1179
sg13
g14
sg15
g10
sg16
S'2012'
p1180
sg18
S'15'
p1181
sg20
S'--'
p1182
sg22
S'12/16'
p1183
sg24
S'--'
p1184
sg25
S'Dexter McCluster'
p1185
sg27
S'--'
p1186
sg29
S'L0-15'
p1187
sg31
S'59'
p1188
sg33
g139
sg34
S'@OAK'
p1189
sg36
S'31'
p1190
sg38
S'--'
p1191
sg39
S'--'
p1192
ssg96
(dp1193
g5
S'8.0'
p1194
sg7
S'--'
p1195
sg9
g10
sg11
S'--'
p1196
sg13
g14
sg15
g10
sg16
S'2012'
p1197
sg18
S'14'
p1198
sg20
S'0.0'
p1199
sg22
S'12/09'
p1200
sg24
g10
sg25
S'Dexter McCluster'
p1201
sg27
g14
sg29
S'L7-30'
p1202
sg31
g111
sg33
g14
sg34
S'@CLE'
p1203
sg36
g111
sg38
g10
sg39
g10
ssg496
(dp1204
g5
S'5.0'
p1205
sg7
S'--'
p1206
sg9
g14
sg11
S'--'
p1207
sg13
g14
sg15
g10
sg16
S'2012'
p1208
sg18
S'17'
p1209
sg20
S'--'
p1210
sg22
S'12/30'
p1211
sg24
S'--'
p1212
sg25
S'Dexter McCluster'
p1213
sg27
S'--'
p1214
sg29
S'L3-38'
p1215
sg31
g126
sg33
g14
sg34
S'@DEN'
p1216
sg36
g126
sg38
S'--'
p1217
sg39
S'--'
p1218
ssg513
(dp1219
g5
S'10.0'
p1220
sg7
S'--'
p1221
sg9
g10
sg11
S'--'
p1222
sg13
g14
sg15
g10
sg16
S'2012'
p1223
sg18
S'16'
p1224
sg20
S'10.0'
p1225
sg22
S'12/23'
p1226
sg24
g10
sg25
S'Dexter McCluster'
p1227
sg27
g14
sg29
S'L13-20'
p1228
sg31
S'30'
p1229
sg33
g49
sg34
S'IND'
p1230
sg36
S'11'
p1231
sg38
S'10'
p1232
sg39
S'10'
p1233
ssg14
(dp1234
g5
S'13.7'
p1235
sg7
S'--'
p1236
sg9
g14
sg11
S'--'
p1237
sg13
g14
sg15
g10
sg16
S'2012'
p1238
sg18
g14
sg20
S'--'
p1239
sg22
S'09/09'
p1240
sg24
S'--'
p1241
sg25
S'Dexter McCluster'
p1242
sg27
S'--'
p1243
sg29
S'L24-40'
p1244
sg31
S'82'
p1245
sg33
g184
sg34
S'ATL'
p1246
sg36
S'21'
p1247
sg38
S'--'
p1248
sg39
S'--'
p1249
ssg49
(dp1250
g5
S'9.3'
p1251
sg7
g14
sg9
g10
sg11
g14
sg13
g14
sg15
g10
sg16
S'2012'
p1252
sg18
g49
sg20
S'5.0'
p1253
sg22
S'09/23'
p1254
sg24
g10
sg25
S'Dexter McCluster'
p1255
sg27
g14
sg29
S'W27-24'
p1256
sg31
S'28'
p1257
sg33
g49
sg34
S'@NO'
p1258
sg36
S'20'
p1259
sg38
g126
sg39
g126
ssg28
(dp1260
g5
S'8.0'
p1261
sg7
S'--'
p1262
sg9
g10
sg11
S'--'
p1263
sg13
g14
sg15
g10
sg16
S'2012'
p1264
sg18
g28
sg20
S'--'
p1265
sg22
S'09/16'
p1266
sg24
S'--'
p1267
sg25
S'Dexter McCluster'
p1268
sg27
S'--'
p1269
sg29
S'L17-35'
p1270
sg31
S'32'
p1271
sg33
g40
sg34
S'@BUF'
p1272
sg36
S'12'
p1273
sg38
S'--'
p1274
sg39
S'--'
p1275
ssg126
(dp1276
g5
S'--'
p1277
sg7
S'--'
p1278
sg9
g10
sg11
S'--'
p1279
sg13
g14
sg15
S'--'
p1280
sg16
S'2012'
p1281
sg18
g126
sg20
S'--'
p1282
sg22
S'10/07'
p1283
sg24
S'--'
p1284
sg25
S'Dexter McCluster'
p1285
sg27
S'--'
p1286
sg29
S'L6-9'
p1287
sg31
S'--'
p1288
sg33
S'--'
p1289
sg34
S'BAL'
p1290
sg36
S'--'
p1291
sg38
S'--'
p1292
sg39
S'--'
p1293
ssg40
(dp1294
g5
S'3.0'
p1295
sg7
S'--'
p1296
sg9
g14
sg11
S'--'
p1297
sg13
g14
sg15
g10
sg16
S'2012'
p1298
sg18
g40
sg20
S'--'
p1299
sg22
S'09/30'
p1300
sg24
S'--'
p1301
sg25
S'Dexter McCluster'
p1302
sg27
S'--'
p1303
sg29
S'L20-37'
p1304
sg31
g184
sg33
g28
sg34
S'SD'
p1305
sg36
g40
sg38
S'--'
p1306
sg39
S'--'
p1307
ssg139
(dp1308
g5
g170
sg7
g170
sg9
g170
sg11
g170
sg13
g170
sg15
g170
sg16
S'2012'
p1309
sg18
g139
sg20
g170
sg22
S'Bye'
p1310
sg24
g170
sg25
S'Dexter McCluster'
p1311
sg27
g170
sg29
g170
sg31
g170
sg33
g170
sg34
g170
sg36
g170
sg38
g170
sg39
g170
ssg184
(dp1312
g5
S'6.5'
p1313
sg7
S'--'
p1314
sg9
g14
sg11
S'--'
p1315
sg13
g14
sg15
g10
sg16
S'2012'
p1316
sg18
g184
sg20
S'--'
p1317
sg22
S'10/14'
p1318
sg24
S'--'
p1319
sg25
S'Dexter McCluster'
p1320
sg27
S'--'
p1321
sg29
S'L10-38'
p1322
sg31
S'39'
p1323
sg33
g184
sg34
S'@TB'
p1324
sg36
S'12'
p1325
sg38
S'--'
p1326
sg39
S'--'
p1327
ssg37
(dp1328
g5
S'8.5'
p1329
sg7
g14
sg9
g10
sg11
g14
sg13
g14
sg15
g10
sg16
S'2012'
p1330
sg18
g37
sg20
S'4.3'
p1331
sg22
S'11/01'
p1332
sg24
g10
sg25
S'Dexter McCluster'
p1333
sg27
g40
sg29
S'L13-31'
p1334
sg31
S'17'
p1335
sg33
g28
sg34
S'@SD'
p1336
sg36
S'12'
p1337
sg38
S'17'
p1338
sg39
S'13'
p1339
ssg111
(dp1340
g5
S'9.0'
p1341
sg7
S'--'
p1342
sg9
g14
sg11
S'--'
p1343
sg13
g14
sg15
g14
sg16
S'2012'
p1344
sg18
g111
sg20
S'7.5'
p1345
sg22
S'10/28'
p1346
sg24
g10
sg25
S'Dexter McCluster'
p1347
sg27
g28
sg29
S'L16-26'
p1348
sg31
S'54'
p1349
sg33
g184
sg34
S'OAK'
p1350
sg36
S'14'
p1351
sg38
S'15'
p1352
sg39
S'13'
p1353
sss.