(dp0
S'2015'
p1
(dp2
S'1'
p3
(dp4
S'RecAvg'
p5
S'12.8'
p6
sS'FUM'
p7
g3
sS'GS'
p8
g3
sS'Lost'
p9
S'0'
p10
sS'G'
p11
g3
sS'RecTD'
p12
g10
sS'Year'
p13
S'2015'
p14
sS'WK'
p15
g3
sS'RushAvg'
p16
S'4.6'
p17
sS'Game Date'
p18
S'09/10'
p19
sS'RushTD'
p20
g10
sS'Player'
p21
S'Dion Lewis'
p22
sS'RushAtt'
p23
S'15'
p24
sS'Result'
p25
S'W28-21'
p26
sS'RecYds'
p27
S'51'
p28
sS'Rec'
p29
S'4'
p30
sS'Opp'
p31
S'PIT'
p32
sS'RecLng'
p33
S'19'
p34
sS'RushYds'
p35
S'69'
p36
sS'RushLng'
p37
S'13'
p38
ssS'3'
p39
(dp40
g5
S'6.0'
p41
sg7
S'--'
p42
sg8
g3
sg9
S'--'
p43
sg11
g3
sg12
g10
sg13
S'2015'
p44
sg15
g39
sg16
S'4.6'
p45
sg18
S'09/27'
p46
sg20
g3
sg21
S'Dion Lewis'
p47
sg23
S'8'
p48
sg25
S'W51-17'
p49
sg27
S'30'
p50
sg29
S'5'
p51
sg31
S'JAC'
p52
sg33
S'9'
p53
sg35
S'37'
p54
sg37
S'10'
p55
ssS'2'
p56
(dp57
g5
S'16.3'
p58
sg7
g3
sg8
g3
sg9
g3
sg11
g3
sg12
g10
sg13
S'2015'
p59
sg15
g56
sg16
S'5.7'
p60
sg18
S'09/20'
p61
sg20
g3
sg21
S'Dion Lewis'
p62
sg23
S'7'
p63
sg25
S'W40-32'
p64
sg27
S'98'
p65
sg29
S'6'
p66
sg31
S'@BUF'
p67
sg33
S'40'
p68
sg35
S'40'
p69
sg37
S'13'
p70
ssg51
(dp71
g5
S'7.4'
p72
sg7
S'--'
p73
sg8
g3
sg9
S'--'
p74
sg11
g3
sg12
g3
sg13
S'2015'
p75
sg15
g51
sg16
S'5.7'
p76
sg18
S'10/11'
p77
sg20
g10
sg21
S'Dion Lewis'
p78
sg23
g66
sg25
S'W30-6'
p79
sg27
S'59'
p80
sg29
g48
sg31
S'@DAL'
p81
sg33
S'14'
p82
sg35
S'34'
p83
sg37
S'13'
p84
ssg30
(dp85
g5
S''
p86
sg7
g86
sg8
g86
sg9
g86
sg11
g86
sg12
g86
sg13
S'2015'
p87
sg15
g30
sg16
g86
sg18
S'Bye'
p88
sg20
g86
sg21
S'Dion Lewis'
p89
sg23
g86
sg25
g86
sg27
g86
sg29
g86
sg31
g86
sg33
g86
sg35
g86
sg37
g86
ssg63
(dp90
g5
S'--'
p91
sg7
S'--'
p92
sg8
g10
sg9
S'--'
p93
sg11
g10
sg12
S'--'
p94
sg13
S'2015'
p95
sg15
g63
sg16
S'--'
p96
sg18
S'10/25'
p97
sg20
S'--'
p98
sg21
S'Dion Lewis'
p99
sg23
S'--'
p100
sg25
S'W30-23'
p101
sg27
S'--'
p102
sg29
S'--'
p103
sg31
S'NYJ'
p104
sg33
S'--'
p105
sg35
S'--'
p106
sg37
S'--'
p107
ssg66
(dp108
g5
S'6.0'
p109
sg7
S'--'
p110
sg8
g3
sg9
S'--'
p111
sg11
g3
sg12
g10
sg13
S'2015'
p112
sg15
g66
sg16
S'5.3'
p113
sg18
S'10/18'
p114
sg20
g10
sg21
S'Dion Lewis'
p115
sg23
g30
sg25
S'W34-27'
p116
sg27
S'18'
p117
sg29
g39
sg31
S'@IND'
p118
sg33
S'12'
p119
sg35
S'21'
p120
sg37
g48
ssg53
(dp121
g5
S'9.8'
p122
sg7
S'--'
p123
sg8
g3
sg9
S'--'
p124
sg11
g3
sg12
g10
sg13
S'2015'
p125
sg15
g53
sg16
S'3.5'
p126
sg18
S'11/08'
p127
sg20
g10
sg21
S'Dion Lewis'
p128
sg23
g30
sg25
S'W27-10'
p129
sg27
S'39'
p130
sg29
g30
sg31
S'WAS'
p131
sg33
S'15'
p132
sg35
S'14'
p133
sg37
g53
ssg48
(dp134
g5
S'15.5'
p135
sg7
S'--'
p136
sg8
g10
sg9
S'--'
p137
sg11
g3
sg12
g3
sg13
S'2015'
p138
sg15
g48
sg16
S'3.8'
p139
sg18
S'10/29'
p140
sg20
g10
sg21
S'Dion Lewis'
p141
sg23
g51
sg25
S'W36-7'
p142
sg27
S'93'
p143
sg29
g66
sg31
S'MIA'
p144
sg33
S'19'
p145
sg35
S'19'
p146
sg37
S'11'
p147
sssS'2014'
p148
(dp149
g56
(dp150
g5
S'--'
p151
sg7
S'--'
p152
sg8
g10
sg9
S'--'
p153
sg11
g10
sg12
S'--'
p154
sg13
S'2014'
p155
sg15
g56
sg16
S'--'
p156
sg18
S'09/15'
p157
sg20
S'--'
p158
sg21
S'Dion Lewis'
p159
sg23
S'--'
p160
sg25
S'L27-30'
p161
sg27
S'--'
p162
sg29
S'--'
p163
sg31
S'PHI'
p164
sg33
S'--'
p165
sg35
S'--'
p166
sg37
S'--'
p167
sssS'2011'
p168
(dp169
S'11'
p170
(dp171
g5
S'--'
p172
sg7
S'--'
p173
sg8
g10
sg9
S'--'
p174
sg11
g3
sg12
S'--'
p175
sg13
S'2011'
p176
sg15
S'11'
p177
sg16
S'1.0'
p178
sg18
S'11/20'
p179
sg20
g10
sg21
S'Dion Lewis'
p180
sg23
g3
sg25
S'W17-10'
p181
sg27
S'--'
p182
sg29
S'--'
p183
sg31
S'@NYG'
p184
sg33
S'--'
p185
sg35
g3
sg37
g3
ssS'10'
p186
(dp187
g5
S'--'
p188
sg7
S'--'
p189
sg8
g10
sg9
S'--'
p190
sg11
g3
sg12
S'--'
p191
sg13
S'2011'
p192
sg15
S'10'
p193
sg16
S'2.0'
p194
sg18
S'11/13'
p195
sg20
g10
sg21
S'Dion Lewis'
p196
sg23
g3
sg25
S'L17-21'
p197
sg27
S'--'
p198
sg29
S'--'
p199
sg31
S'ARI'
p200
sg33
S'--'
p201
sg35
g56
sg37
g56
ssS'13'
p202
(dp203
g5
S'--'
p204
sg7
S'--'
p205
sg8
g10
sg9
S'--'
p206
sg11
g3
sg12
S'--'
p207
sg13
S'2011'
p208
sg15
S'13'
p209
sg16
S'--'
p210
sg18
S'12/01'
p211
sg20
S'--'
p212
sg21
S'Dion Lewis'
p213
sg23
S'--'
p214
sg25
S'L14-31'
p215
sg27
S'--'
p216
sg29
S'--'
p217
sg31
S'@SEA'
p218
sg33
S'--'
p219
sg35
S'--'
p220
sg37
S'--'
p221
ssS'12'
p222
(dp223
g5
S'--'
p224
sg7
S'--'
p225
sg8
g10
sg9
S'--'
p226
sg11
g3
sg12
S'--'
p227
sg13
S'2011'
p228
sg15
S'12'
p229
sg16
S'--'
p230
sg18
S'11/27'
p231
sg20
S'--'
p232
sg21
S'Dion Lewis'
p233
sg23
S'--'
p234
sg25
S'L20-38'
p235
sg27
S'--'
p236
sg29
S'--'
p237
sg31
S'NE'
p238
sg33
S'--'
p239
sg35
S'--'
p240
sg37
S'--'
p241
ssS'15'
p242
(dp243
g5
S'--'
p244
sg7
g3
sg8
g10
sg9
g3
sg11
g3
sg12
S'--'
p245
sg13
S'2011'
p246
sg15
S'15'
p247
sg16
S'5.0'
p248
sg18
S'12/18'
p249
sg20
g10
sg21
S'Dion Lewis'
p250
sg23
g56
sg25
S'W45-19'
p251
sg27
S'--'
p252
sg29
S'--'
p253
sg31
S'NYJ'
p254
sg33
S'--'
p255
sg35
S'10'
p256
sg37
g63
ssS'14'
p257
(dp258
g5
S'--'
p259
sg7
S'--'
p260
sg8
g10
sg9
S'--'
p261
sg11
g3
sg12
S'--'
p262
sg13
S'2011'
p263
sg15
S'14'
p264
sg16
S'--'
p265
sg18
S'12/11'
p266
sg20
S'--'
p267
sg21
S'Dion Lewis'
p268
sg23
S'--'
p269
sg25
S'W26-10'
p270
sg27
S'--'
p271
sg29
S'--'
p272
sg31
S'@MIA'
p273
sg33
S'--'
p274
sg35
S'--'
p275
sg37
S'--'
p276
ssS'17'
p277
(dp278
g5
S'--'
p279
sg7
S'--'
p280
sg8
g10
sg9
S'--'
p281
sg11
g3
sg12
S'--'
p282
sg13
S'2011'
p283
sg15
S'17'
p284
sg16
S'4.8'
p285
sg18
S'01/01'
p286
sg20
g3
sg21
S'Dion Lewis'
p287
sg23
S'12'
p288
sg25
S'W34-10'
p289
sg27
S'--'
p290
sg29
S'--'
p291
sg31
S'WAS'
p292
sg33
S'--'
p293
sg35
S'58'
p294
sg37
S'20'
p295
ssS'16'
p296
(dp297
g5
S'--'
p298
sg7
S'--'
p299
sg8
g10
sg9
S'--'
p300
sg11
g3
sg12
S'--'
p301
sg13
S'2011'
p302
sg15
S'16'
p303
sg16
S'--'
p304
sg18
S'12/24'
p305
sg20
S'--'
p306
sg21
S'Dion Lewis'
p307
sg23
S'--'
p308
sg25
S'W20-7'
p309
sg27
S'--'
p310
sg29
S'--'
p311
sg31
S'@DAL'
p312
sg33
S'--'
p313
sg35
S'--'
p314
sg37
S'--'
p315
ssg3
(dp316
g5
S'-3.0'
p317
sg7
S'--'
p318
sg8
g10
sg9
S'--'
p319
sg11
g3
sg12
g10
sg13
S'2011'
p320
sg15
g3
sg16
S'5.0'
p321
sg18
S'09/11'
p322
sg20
g10
sg21
S'Dion Lewis'
p323
sg23
g56
sg25
S'W31-13'
p324
sg27
S'-3'
p325
sg29
g3
sg31
S'@STL'
p326
sg33
S'-3'
p327
sg35
S'10'
p328
sg37
g66
ssg39
(dp329
g5
S'--'
p330
sg7
S'--'
p331
sg8
g10
sg9
S'--'
p332
sg11
g3
sg12
S'--'
p333
sg13
S'2011'
p334
sg15
g39
sg16
S'3.0'
p335
sg18
S'09/25'
p336
sg20
g10
sg21
S'Dion Lewis'
p337
sg23
g3
sg25
S'L16-29'
p338
sg27
S'--'
p339
sg29
S'--'
p340
sg31
S'NYG'
p341
sg33
S'--'
p342
sg35
g39
sg37
g39
ssg56
(dp343
g5
S'--'
p344
sg7
S'--'
p345
sg8
g10
sg9
S'--'
p346
sg11
g3
sg12
S'--'
p347
sg13
S'2011'
p348
sg15
g56
sg16
S'--'
p349
sg18
S'09/18'
p350
sg20
S'--'
p351
sg21
S'Dion Lewis'
p352
sg23
S'--'
p353
sg25
S'L31-35'
p354
sg27
S'--'
p355
sg29
S'--'
p356
sg31
S'@ATL'
p357
sg33
S'--'
p358
sg35
S'--'
p359
sg37
S'--'
p360
ssg51
(dp361
g5
S'--'
p362
sg7
S'--'
p363
sg8
g10
sg9
S'--'
p364
sg11
g3
sg12
S'--'
p365
sg13
S'2011'
p366
sg15
g51
sg16
S'4.0'
p367
sg18
S'10/09'
p368
sg20
g10
sg21
S'Dion Lewis'
p369
sg23
g56
sg25
S'L24-31'
p370
sg27
S'--'
p371
sg29
S'--'
p372
sg31
S'@BUF'
p373
sg33
S'--'
p374
sg35
g48
sg37
g66
ssg30
(dp375
g5
S'--'
p376
sg7
S'--'
p377
sg8
g10
sg9
S'--'
p378
sg11
g3
sg12
S'--'
p379
sg13
S'2011'
p380
sg15
g30
sg16
S'--'
p381
sg18
S'10/02'
p382
sg20
S'--'
p383
sg21
S'Dion Lewis'
p384
sg23
S'--'
p385
sg25
S'L23-24'
p386
sg27
S'--'
p387
sg29
S'--'
p388
sg31
S'SF'
p389
sg33
S'--'
p390
sg35
S'--'
p391
sg37
S'--'
p392
ssg63
(dp393
g5
g86
sg7
g86
sg8
g86
sg9
g86
sg11
g86
sg12
g86
sg13
S'2011'
p394
sg15
g63
sg16
g86
sg18
S'Bye'
p395
sg20
g86
sg21
S'Dion Lewis'
p396
sg23
g86
sg25
g86
sg27
g86
sg29
g86
sg31
g86
sg33
g86
sg35
g86
sg37
g86
ssg66
(dp397
g5
S'--'
p398
sg7
S'--'
p399
sg8
g10
sg9
S'--'
p400
sg11
g3
sg12
S'--'
p401
sg13
S'2011'
p402
sg15
g66
sg16
S'5.0'
p403
sg18
S'10/16'
p404
sg20
g10
sg21
S'Dion Lewis'
p405
sg23
g56
sg25
S'W20-13'
p406
sg27
S'--'
p407
sg29
S'--'
p408
sg31
S'@WAS'
p409
sg33
S'--'
p410
sg35
S'10'
p411
sg37
g63
ssg53
(dp412
g5
S'--'
p413
sg7
S'--'
p414
sg8
g10
sg9
S'--'
p415
sg11
g3
sg12
S'--'
p416
sg13
S'2011'
p417
sg15
g53
sg16
S'--'
p418
sg18
S'11/07'
p419
sg20
S'--'
p420
sg21
S'Dion Lewis'
p421
sg23
S'--'
p422
sg25
S'L24-30'
p423
sg27
S'--'
p424
sg29
S'--'
p425
sg31
S'CHI'
p426
sg33
S'--'
p427
sg35
S'--'
p428
sg37
S'--'
p429
ssg48
(dp430
g5
S'--'
p431
sg7
S'--'
p432
sg8
g10
sg9
S'--'
p433
sg11
g10
sg12
S'--'
p434
sg13
S'2011'
p435
sg15
g48
sg16
S'--'
p436
sg18
S'10/30'
p437
sg20
S'--'
p438
sg21
S'Dion Lewis'
p439
sg23
S'--'
p440
sg25
S'W34-7'
p441
sg27
S'--'
p442
sg29
S'--'
p443
sg31
S'DAL'
p444
sg33
S'--'
p445
sg35
S'--'
p446
sg37
S'--'
p447
sssS'2012'
p448
(dp449
g170
(dp450
g5
S'--'
p451
sg7
S'--'
p452
sg8
g10
sg9
S'--'
p453
sg11
g3
sg12
S'--'
p454
sg13
S'2012'
p455
sg15
S'11'
p456
sg16
S'--'
p457
sg18
S'11/18'
p458
sg20
S'--'
p459
sg21
S'Dion Lewis'
p460
sg23
S'--'
p461
sg25
S'L6-31'
p462
sg27
S'--'
p463
sg29
S'--'
p464
sg31
S'@WAS'
p465
sg33
S'--'
p466
sg35
S'--'
p467
sg37
S'--'
p468
ssg186
(dp469
g5
S'--'
p470
sg7
S'--'
p471
sg8
g10
sg9
S'--'
p472
sg11
g3
sg12
S'--'
p473
sg13
S'2012'
p474
sg15
S'10'
p475
sg16
S'--'
p476
sg18
S'11/11'
p477
sg20
S'--'
p478
sg21
S'Dion Lewis'
p479
sg23
S'--'
p480
sg25
S'L23-38'
p481
sg27
S'--'
p482
sg29
S'--'
p483
sg31
S'DAL'
p484
sg33
S'--'
p485
sg35
S'--'
p486
sg37
S'--'
p487
ssg202
(dp488
g5
S'--'
p489
sg7
S'--'
p490
sg8
g10
sg9
S'--'
p491
sg11
g3
sg12
S'--'
p492
sg13
S'2012'
p493
sg15
S'13'
p494
sg16
S'7.0'
p495
sg18
S'12/02'
p496
sg20
g10
sg21
S'Dion Lewis'
p497
sg23
g56
sg25
S'L33-38'
p498
sg27
S'--'
p499
sg29
S'--'
p500
sg31
S'@DAL'
p501
sg33
S'--'
p502
sg35
S'14'
p503
sg37
S'11'
p504
ssg222
(dp505
g5
S'--'
p506
sg7
S'--'
p507
sg8
g10
sg9
S'--'
p508
sg11
g3
sg12
S'--'
p509
sg13
S'2012'
p510
sg15
S'12'
p511
sg16
S'4.8'
p512
sg18
S'11/26'
p513
sg20
g10
sg21
S'Dion Lewis'
p514
sg23
g51
sg25
S'L22-30'
p515
sg27
S'--'
p516
sg29
S'--'
p517
sg31
S'CAR'
p518
sg33
S'--'
p519
sg35
S'24'
p520
sg37
S'11'
p521
ssg242
(dp522
g5
S'-4.0'
p523
sg7
S'--'
p524
sg8
g10
sg9
S'--'
p525
sg11
g3
sg12
g10
sg13
S'2012'
p526
sg15
S'15'
p527
sg16
S'3.0'
p528
sg18
S'12/13'
p529
sg20
g10
sg21
S'Dion Lewis'
p530
sg23
g3
sg25
S'L13-34'
p531
sg27
S'-4'
p532
sg29
g3
sg31
S'CIN'
p533
sg33
S'-4'
p534
sg35
g39
sg37
g39
ssg257
(dp535
g5
S'28.0'
p536
sg7
S'--'
p537
sg8
g10
sg9
S'--'
p538
sg11
g3
sg12
g10
sg13
S'2012'
p539
sg15
S'14'
p540
sg16
S'-4.0'
p541
sg18
S'12/09'
p542
sg20
g10
sg21
S'Dion Lewis'
p543
sg23
g3
sg25
S'W23-21'
p544
sg27
S'28'
p545
sg29
g3
sg31
S'@TB'
p546
sg33
S'28'
p547
sg35
S'-4'
p548
sg37
S'-4'
p549
ssg277
(dp550
g5
S'--'
p551
sg7
S'--'
p552
sg8
g10
sg9
S'--'
p553
sg11
g3
sg12
S'--'
p554
sg13
S'2012'
p555
sg15
S'17'
p556
sg16
S'5.0'
p557
sg18
S'12/30'
p558
sg20
g10
sg21
S'Dion Lewis'
p559
sg23
g39
sg25
S'L7-42'
p560
sg27
S'--'
p561
sg29
S'--'
p562
sg31
S'@NYG'
p563
sg33
S'--'
p564
sg35
S'15'
p565
sg37
g48
ssg296
(dp566
g5
S'--'
p567
sg7
S'--'
p568
sg8
g10
sg9
S'--'
p569
sg11
g3
sg12
S'--'
p570
sg13
S'2012'
p571
sg15
S'16'
p572
sg16
S'17.0'
p573
sg18
S'12/23'
p574
sg20
g3
sg21
S'Dion Lewis'
p575
sg23
g3
sg25
S'L20-27'
p576
sg27
S'--'
p577
sg29
S'--'
p578
sg31
S'WAS'
p579
sg33
S'--'
p580
sg35
S'17'
p581
sg37
S'17T'
p582
ssg3
(dp583
g5
S'--'
p584
sg7
S'--'
p585
sg8
g10
sg9
S'--'
p586
sg11
g10
sg12
S'--'
p587
sg13
S'2012'
p588
sg15
g3
sg16
S'--'
p589
sg18
S'09/09'
p590
sg20
S'--'
p591
sg21
S'Dion Lewis'
p592
sg23
S'--'
p593
sg25
S'W17-16'
p594
sg27
S'--'
p595
sg29
S'--'
p596
sg31
S'@CLE'
p597
sg33
S'--'
p598
sg35
S'--'
p599
sg37
S'--'
p600
ssg39
(dp601
g5
S'--'
p602
sg7
S'--'
p603
sg8
g10
sg9
S'--'
p604
sg11
g10
sg12
S'--'
p605
sg13
S'2012'
p606
sg15
g39
sg16
S'--'
p607
sg18
S'09/23'
p608
sg20
S'--'
p609
sg21
S'Dion Lewis'
p610
sg23
S'--'
p611
sg25
S'L6-27'
p612
sg27
S'--'
p613
sg29
S'--'
p614
sg31
S'@ARI'
p615
sg33
S'--'
p616
sg35
S'--'
p617
sg37
S'--'
p618
ssg56
(dp619
g5
S'--'
p620
sg7
S'--'
p621
sg8
g10
sg9
S'--'
p622
sg11
g10
sg12
S'--'
p623
sg13
S'2012'
p624
sg15
g56
sg16
S'--'
p625
sg18
S'09/16'
p626
sg20
S'--'
p627
sg21
S'Dion Lewis'
p628
sg23
S'--'
p629
sg25
S'W24-23'
p630
sg27
S'--'
p631
sg29
S'--'
p632
sg31
S'BAL'
p633
sg33
S'--'
p634
sg35
S'--'
p635
sg37
S'--'
p636
ssg51
(dp637
g5
S'--'
p638
sg7
S'--'
p639
sg8
g10
sg9
S'--'
p640
sg11
g3
sg12
S'--'
p641
sg13
S'2012'
p642
sg15
g51
sg16
S'--'
p643
sg18
S'10/07'
p644
sg20
S'--'
p645
sg21
S'Dion Lewis'
p646
sg23
S'--'
p647
sg25
S'L14-16'
p648
sg27
S'--'
p649
sg29
S'--'
p650
sg31
S'@PIT'
p651
sg33
S'--'
p652
sg35
S'--'
p653
sg37
S'--'
p654
ssg30
(dp655
g5
S'--'
p656
sg7
S'--'
p657
sg8
g10
sg9
S'--'
p658
sg11
g10
sg12
S'--'
p659
sg13
S'2012'
p660
sg15
g30
sg16
S'--'
p661
sg18
S'09/30'
p662
sg20
S'--'
p663
sg21
S'Dion Lewis'
p664
sg23
S'--'
p665
sg25
S'W19-17'
p666
sg27
S'--'
p667
sg29
S'--'
p668
sg31
S'NYG'
p669
sg33
S'--'
p670
sg35
S'--'
p671
sg37
S'--'
p672
ssg63
(dp673
g5
g86
sg7
g86
sg8
g86
sg9
g86
sg11
g86
sg12
g86
sg13
S'2012'
p674
sg15
g63
sg16
g86
sg18
S'Bye'
p675
sg20
g86
sg21
S'Dion Lewis'
p676
sg23
g86
sg25
g86
sg27
g86
sg29
g86
sg31
g86
sg33
g86
sg35
g86
sg37
g86
ssg66
(dp677
g5
S'--'
p678
sg7
S'--'
p679
sg8
g10
sg9
S'--'
p680
sg11
g10
sg12
S'--'
p681
sg13
S'2012'
p682
sg15
g66
sg16
S'--'
p683
sg18
S'10/14'
p684
sg20
S'--'
p685
sg21
S'Dion Lewis'
p686
sg23
S'--'
p687
sg25
S'L23-26'
p688
sg27
S'--'
p689
sg29
S'--'
p690
sg31
S'DET'
p691
sg33
S'--'
p692
sg35
S'--'
p693
sg37
S'--'
p694
ssg53
(dp695
g5
S'--'
p696
sg7
S'--'
p697
sg8
g10
sg9
S'--'
p698
sg11
g10
sg12
S'--'
p699
sg13
S'2012'
p700
sg15
g53
sg16
S'--'
p701
sg18
S'11/05'
p702
sg20
S'--'
p703
sg21
S'Dion Lewis'
p704
sg23
S'--'
p705
sg25
S'L13-28'
p706
sg27
S'--'
p707
sg29
S'--'
p708
sg31
S'@NO'
p709
sg33
S'--'
p710
sg35
S'--'
p711
sg37
S'--'
p712
ssg48
(dp713
g5
S'--'
p714
sg7
S'--'
p715
sg8
g10
sg9
S'--'
p716
sg11
g10
sg12
S'--'
p717
sg13
S'2012'
p718
sg15
g48
sg16
S'--'
p719
sg18
S'10/28'
p720
sg20
S'--'
p721
sg21
S'Dion Lewis'
p722
sg23
S'--'
p723
sg25
S'L17-30'
p724
sg27
S'--'
p725
sg29
S'--'
p726
sg31
S'ATL'
p727
sg33
S'--'
p728
sg35
S'--'
p729
sg37
S'--'
p730
sss.