(dp0
S'2015'
p1
(dp2
S'1'
p3
(dp4
S'RecAvg'
p5
S'--'
p6
sS'FUM'
p7
S'--'
p8
sS'GS'
p9
S'0'
p10
sS'Lost'
p11
S'--'
p12
sS'G'
p13
g3
sS'RecTD'
p14
S'--'
p15
sS'Year'
p16
S'2015'
p17
sS'WK'
p18
g3
sS'RushAvg'
p19
S'--'
p20
sS'Game Date'
p21
S'09/10'
p22
sS'RushTD'
p23
S'--'
p24
sS'Player'
p25
S'Dri Archer'
p26
sS'RushAtt'
p27
S'--'
p28
sS'Result'
p29
S'L21-28'
p30
sS'RecYds'
p31
S'--'
p32
sS'Rec'
p33
S'--'
p34
sS'Opp'
p35
S'@NE'
p36
sS'RecLng'
p37
S'--'
p38
sS'RushYds'
p39
S'--'
p40
sS'RushLng'
p41
S'--'
p42
ssS'3'
p43
(dp44
g5
S'--'
p45
sg7
S'--'
p46
sg9
g10
sg11
S'--'
p47
sg13
g3
sg14
S'--'
p48
sg16
S'2015'
p49
sg18
g43
sg19
S'--'
p50
sg21
S'09/27'
p51
sg23
S'--'
p52
sg25
S'Dri Archer'
p53
sg27
S'--'
p54
sg29
S'W12-6'
p55
sg31
S'--'
p56
sg33
S'--'
p57
sg35
S'@STL'
p58
sg37
S'--'
p59
sg39
S'--'
p60
sg41
S'--'
p61
ssS'2'
p62
(dp63
g5
S'--'
p64
sg7
S'--'
p65
sg9
g10
sg11
S'--'
p66
sg13
g3
sg14
S'--'
p67
sg16
S'2015'
p68
sg18
g62
sg19
S'--'
p69
sg21
S'09/20'
p70
sg23
S'--'
p71
sg25
S'Dri Archer'
p72
sg27
S'--'
p73
sg29
S'W43-18'
p74
sg31
S'--'
p75
sg33
S'--'
p76
sg35
S'SF'
p77
sg37
S'--'
p78
sg39
S'--'
p79
sg41
S'--'
p80
ssS'5'
p81
(dp82
g5
S'--'
p83
sg7
S'--'
p84
sg9
g10
sg11
S'--'
p85
sg13
g3
sg14
S'--'
p86
sg16
S'2015'
p87
sg18
g81
sg19
S'--'
p88
sg21
S'10/12'
p89
sg23
S'--'
p90
sg25
S'Dri Archer'
p91
sg27
S'--'
p92
sg29
S'W24-20'
p93
sg31
S'--'
p94
sg33
S'--'
p95
sg35
S'@SD'
p96
sg37
S'--'
p97
sg39
S'--'
p98
sg41
S'--'
p99
ssS'4'
p100
(dp101
g5
S'--'
p102
sg7
S'--'
p103
sg9
g10
sg11
S'--'
p104
sg13
g3
sg14
S'--'
p105
sg16
S'2015'
p106
sg18
g100
sg19
S'--'
p107
sg21
S'10/01'
p108
sg23
S'--'
p109
sg25
S'Dri Archer'
p110
sg27
S'--'
p111
sg29
S'L20-23'
p112
sg31
S'--'
p113
sg33
S'--'
p114
sg35
S'BAL'
p115
sg37
S'--'
p116
sg39
S'--'
p117
sg41
S'--'
p118
ssS'7'
p119
(dp120
g5
S'--'
p121
sg7
S'--'
p122
sg9
g10
sg11
S'--'
p123
sg13
g3
sg14
S'--'
p124
sg16
S'2015'
p125
sg18
g119
sg19
S'--'
p126
sg21
S'10/25'
p127
sg23
S'--'
p128
sg25
S'Dri Archer'
p129
sg27
S'--'
p130
sg29
S'L13-23'
p131
sg31
S'--'
p132
sg33
S'--'
p133
sg35
S'@KC'
p134
sg37
S'--'
p135
sg39
S'--'
p136
sg41
S'--'
p137
ssS'6'
p138
(dp139
g5
S'--'
p140
sg7
S'--'
p141
sg9
g10
sg11
S'--'
p142
sg13
g3
sg14
S'--'
p143
sg16
S'2015'
p144
sg18
g138
sg19
S'--'
p145
sg21
S'10/18'
p146
sg23
S'--'
p147
sg25
S'Dri Archer'
p148
sg27
S'--'
p149
sg29
S'W25-13'
p150
sg31
S'--'
p151
sg33
S'--'
p152
sg35
S'ARI'
p153
sg37
S'--'
p154
sg39
S'--'
p155
sg41
S'--'
p156
ssS'8'
p157
(dp158
g5
S'--'
p159
sg7
S'--'
p160
sg9
g10
sg11
S'--'
p161
sg13
g3
sg14
S'--'
p162
sg16
S'2015'
p163
sg18
g157
sg19
S'--'
p164
sg21
S'11/01'
p165
sg23
S'--'
p166
sg25
S'Dri Archer'
p167
sg27
S'--'
p168
sg29
S'L10-16'
p169
sg31
S'--'
p170
sg33
S'--'
p171
sg35
S'CIN'
p172
sg37
S'--'
p173
sg39
S'--'
p174
sg41
S'--'
p175
sssS'2014'
p176
(dp177
S'11'
p178
(dp179
g5
S'-5.0'
p180
sg7
S'--'
p181
sg9
g10
sg11
S'--'
p182
sg13
g3
sg14
g10
sg16
S'2014'
p183
sg18
S'11'
p184
sg19
S'--'
p185
sg21
S'11/17'
p186
sg23
S'--'
p187
sg25
S'Dri Archer'
p188
sg27
S'--'
p189
sg29
S'W27-24'
p190
sg31
S'-5'
p191
sg33
g3
sg35
S'@TEN'
p192
sg37
S'-5'
p193
sg39
S'--'
p194
sg41
S'--'
p195
ssS'10'
p196
(dp197
g5
S'--'
p198
sg7
S'--'
p199
sg9
g10
sg11
S'--'
p200
sg13
g3
sg14
S'--'
p201
sg16
S'2014'
p202
sg18
S'10'
p203
sg19
S'--'
p204
sg21
S'11/09'
p205
sg23
S'--'
p206
sg25
S'Dri Archer'
p207
sg27
S'--'
p208
sg29
S'L13-20'
p209
sg31
S'--'
p210
sg33
S'--'
p211
sg35
S'@NYJ'
p212
sg37
S'--'
p213
sg39
S'--'
p214
sg41
S'--'
p215
ssS'13'
p216
(dp217
g5
S'--'
p218
sg7
S'--'
p219
sg9
g10
sg11
S'--'
p220
sg13
g3
sg14
S'--'
p221
sg16
S'2014'
p222
sg18
S'13'
p223
sg19
S'0.0'
p224
sg21
S'11/30'
p225
sg23
g10
sg25
S'Dri Archer'
p226
sg27
g3
sg29
S'L32-35'
p227
sg31
S'--'
p228
sg33
S'--'
p229
sg35
S'NO'
p230
sg37
S'--'
p231
sg39
g10
sg41
g10
ssS'12'
p232
(dp233
g5
S''
p234
sg7
g234
sg9
g234
sg11
g234
sg13
g234
sg14
g234
sg16
S'2014'
p235
sg18
S'12'
p236
sg19
g234
sg21
S'Bye'
p237
sg23
g234
sg25
S'Dri Archer'
p238
sg27
g234
sg29
g234
sg31
g234
sg33
g234
sg35
g234
sg37
g234
sg39
g234
sg41
g234
ssS'15'
p239
(dp240
g5
S'--'
p241
sg7
S'--'
p242
sg9
g10
sg11
S'--'
p243
sg13
g10
sg14
S'--'
p244
sg16
S'2014'
p245
sg18
S'15'
p246
sg19
S'--'
p247
sg21
S'12/14'
p248
sg23
S'--'
p249
sg25
S'Dri Archer'
p250
sg27
S'--'
p251
sg29
S'W27-20'
p252
sg31
S'--'
p253
sg33
S'--'
p254
sg35
S'@ATL'
p255
sg37
S'--'
p256
sg39
S'--'
p257
sg41
S'--'
p258
ssS'14'
p259
(dp260
g5
S'--'
p261
sg7
S'--'
p262
sg9
g10
sg11
S'--'
p263
sg13
g10
sg14
S'--'
p264
sg16
S'2014'
p265
sg18
S'14'
p266
sg19
S'--'
p267
sg21
S'12/07'
p268
sg23
S'--'
p269
sg25
S'Dri Archer'
p270
sg27
S'--'
p271
sg29
S'W42-21'
p272
sg31
S'--'
p273
sg33
S'--'
p274
sg35
S'@CIN'
p275
sg37
S'--'
p276
sg39
S'--'
p277
sg41
S'--'
p278
ssS'17'
p279
(dp280
g5
S'9.5'
p281
sg7
S'--'
p282
sg9
g10
sg11
S'--'
p283
sg13
g3
sg14
g10
sg16
S'2014'
p284
sg18
S'17'
p285
sg19
S'-1.0'
p286
sg21
S'12/28'
p287
sg23
g10
sg25
S'Dri Archer'
p288
sg27
g3
sg29
S'W27-17'
p289
sg31
S'19'
p290
sg33
g62
sg35
S'CIN'
p291
sg37
S'15'
p292
sg39
S'-1'
p293
sg41
S'-1'
p294
ssS'16'
p295
(dp296
g5
S'--'
p297
sg7
S'--'
p298
sg9
g10
sg11
S'--'
p299
sg13
g3
sg14
S'--'
p300
sg16
S'2014'
p301
sg18
S'16'
p302
sg19
S'--'
p303
sg21
S'12/21'
p304
sg23
S'--'
p305
sg25
S'Dri Archer'
p306
sg27
S'--'
p307
sg29
S'W20-12'
p308
sg31
S'--'
p309
sg33
S'--'
p310
sg35
S'KC'
p311
sg37
S'--'
p312
sg39
S'--'
p313
sg41
S'--'
p314
ssg3
(dp315
g5
S'--'
p316
sg7
S'--'
p317
sg9
g10
sg11
S'--'
p318
sg13
g3
sg14
g10
sg16
S'2014'
p319
sg18
g3
sg19
S'4.0'
p320
sg21
S'09/07'
p321
sg23
g10
sg25
S'Dri Archer'
p322
sg27
g3
sg29
S'W30-27'
p323
sg31
g10
sg33
g10
sg35
S'CLE'
p324
sg37
S'--'
p325
sg39
g100
sg41
g100
ssg43
(dp326
g5
S'--'
p327
sg7
S'--'
p328
sg9
g10
sg11
S'--'
p329
sg13
g10
sg14
S'--'
p330
sg16
S'2014'
p331
sg18
g43
sg19
S'--'
p332
sg21
S'09/21'
p333
sg23
S'--'
p334
sg25
S'Dri Archer'
p335
sg27
S'--'
p336
sg29
S'W37-19'
p337
sg31
S'--'
p338
sg33
S'--'
p339
sg35
S'@CAR'
p340
sg37
S'--'
p341
sg39
S'--'
p342
sg41
S'--'
p343
ssg62
(dp344
g5
S'--'
p345
sg7
S'--'
p346
sg9
g10
sg11
S'--'
p347
sg13
g10
sg14
S'--'
p348
sg16
S'2014'
p349
sg18
g62
sg19
S'--'
p350
sg21
S'09/11'
p351
sg23
S'--'
p352
sg25
S'Dri Archer'
p353
sg27
S'--'
p354
sg29
S'L6-26'
p355
sg31
S'--'
p356
sg33
S'--'
p357
sg35
S'@BAL'
p358
sg37
S'--'
p359
sg39
S'--'
p360
sg41
S'--'
p361
ssg81
(dp362
g5
S'4.0'
p363
sg7
S'--'
p364
sg9
g10
sg11
S'--'
p365
sg13
g3
sg14
g10
sg16
S'2014'
p366
sg18
g81
sg19
S'2.0'
p367
sg21
S'10/05'
p368
sg23
g10
sg25
S'Dri Archer'
p369
sg27
g3
sg29
S'W17-9'
p370
sg31
g157
sg33
g62
sg35
S'@JAC'
p371
sg37
g119
sg39
g62
sg41
g62
ssg100
(dp372
g5
S'1.0'
p373
sg7
S'--'
p374
sg9
g10
sg11
S'--'
p375
sg13
g3
sg14
g10
sg16
S'2014'
p376
sg18
g100
sg19
S'--'
p377
sg21
S'09/28'
p378
sg23
S'--'
p379
sg25
S'Dri Archer'
p380
sg27
S'--'
p381
sg29
S'L24-27'
p382
sg31
g3
sg33
g3
sg35
S'TB'
p383
sg37
g3
sg39
S'--'
p384
sg41
S'--'
p385
ssg119
(dp386
g5
S'--'
p387
sg7
S'--'
p388
sg9
g10
sg11
S'--'
p389
sg13
g3
sg14
S'--'
p390
sg16
S'2014'
p391
sg18
g119
sg19
S'3.5'
p392
sg21
S'10/20'
p393
sg23
g10
sg25
S'Dri Archer'
p394
sg27
g62
sg29
S'W30-23'
p395
sg31
S'--'
p396
sg33
S'--'
p397
sg35
S'HOU'
p398
sg37
S'--'
p399
sg39
g119
sg41
S'9'
p400
ssg138
(dp401
g5
S'0.0'
p402
sg7
S'--'
p403
sg9
g10
sg11
S'--'
p404
sg13
g3
sg14
g10
sg16
S'2014'
p405
sg18
g138
sg19
S'8.0'
p406
sg21
S'10/12'
p407
sg23
g10
sg25
S'Dri Archer'
p408
sg27
g43
sg29
S'L10-31'
p409
sg31
g10
sg33
g3
sg35
S'@CLE'
p410
sg37
g10
sg39
S'24'
p411
sg41
S'15'
p412
ssg400
(dp413
g5
S'--'
p414
sg7
S'--'
p415
sg9
g10
sg11
S'--'
p416
sg13
g3
sg14
g10
sg16
S'2014'
p417
sg18
g400
sg19
S'4.0'
p418
sg21
S'11/02'
p419
sg23
g10
sg25
S'Dri Archer'
p420
sg27
g3
sg29
S'W43-23'
p421
sg31
g10
sg33
g10
sg35
S'BAL'
p422
sg37
S'--'
p423
sg39
g100
sg41
g100
ssg157
(dp424
g5
S'--'
p425
sg7
S'--'
p426
sg9
g10
sg11
S'--'
p427
sg13
g3
sg14
g10
sg16
S'2014'
p428
sg18
g157
sg19
S'--'
p429
sg21
S'10/26'
p430
sg23
S'--'
p431
sg25
S'Dri Archer'
p432
sg27
S'--'
p433
sg29
S'W51-34'
p434
sg31
g10
sg33
g10
sg35
S'IND'
p435
sg37
S'--'
p436
sg39
S'--'
p437
sg41
S'--'
p438
sss.