(dp0
S'2015'
p1
(dp2
S'11'
p3
(dp4
S'RecAvg'
p5
S''
p6
sS'FUM'
p7
g6
sS'GS'
p8
g6
sS'Lost'
p9
g6
sS'G'
p10
g6
sS'RecTD'
p11
g6
sS'Year'
p12
S'2015'
p13
sS'WK'
p14
S'11'
p15
sS'RushAvg'
p16
g6
sS'Game Date'
p17
S'Bye'
p18
sS'RushTD'
p19
g6
sS'Player'
p20
S'Duke Johnson'
p21
sS'RushAtt'
p22
g6
sS'Result'
p23
g6
sS'RecYds'
p24
g6
sS'Rec'
p25
g6
sS'Opp'
p26
g6
sS'RecLng'
p27
g6
sS'RushYds'
p28
g6
sS'RushLng'
p29
g6
ssS'10'
p30
(dp31
g5
S'4.5'
p32
sg7
S'--'
p33
sg8
S'0'
p34
sg9
S'--'
p35
sg10
S'1'
p36
sg11
g34
sg12
S'2015'
p37
sg14
S'10'
p38
sg16
S'2.5'
p39
sg17
S'11/15'
p40
sg19
g34
sg20
S'Duke Johnson'
p41
sg22
S'4'
p42
sg23
S'L9-30'
p43
sg24
S'18'
p44
sg25
g42
sg26
S'@PIT'
p45
sg27
S'10'
p46
sg28
S'10'
p47
sg29
S'9'
p48
ssS'13'
p49
(dp50
g5
S'7.5'
p51
sg7
S'--'
p52
sg8
g34
sg9
S'--'
p53
sg10
g36
sg11
g34
sg12
S'2015'
p54
sg14
S'13'
p55
sg16
S'0.4'
p56
sg17
S'12/06'
p57
sg19
g34
sg20
S'Duke Johnson'
p58
sg22
S'5'
p59
sg23
S'L3-37'
p60
sg24
S'30'
p61
sg25
g42
sg26
S'CIN'
p62
sg27
S'10'
p63
sg28
S'2'
p64
sg29
g59
ssS'12'
p65
(dp66
g5
S'4.6'
p67
sg7
S'--'
p68
sg8
g36
sg9
S'--'
p69
sg10
g36
sg11
g34
sg12
S'2015'
p70
sg14
S'12'
p71
sg16
S'3.9'
p72
sg17
S'11/30'
p73
sg19
g34
sg20
S'Duke Johnson'
p74
sg22
S'7'
p75
sg23
S'L27-33'
p76
sg24
S'23'
p77
sg25
g59
sg26
S'BAL'
p78
sg27
S'21'
p79
sg28
S'27'
p80
sg29
g75
ssS'15'
p81
(dp82
g5
S'7.8'
p83
sg7
g36
sg8
g36
sg9
g34
sg10
g36
sg11
g34
sg12
S'2015'
p84
sg14
S'15'
p85
sg16
S'11.5'
p86
sg17
S'12/20'
p87
sg19
g34
sg20
S'Duke Johnson'
p88
sg22
g42
sg23
S'L13-30'
p89
sg24
S'39'
p90
sg25
g59
sg26
S'@SEA'
p91
sg27
S'22'
p92
sg28
S'46'
p93
sg29
S'39'
p94
ssS'14'
p95
(dp96
g5
S'6.0'
p97
sg7
S'--'
p98
sg8
g36
sg9
S'--'
p99
sg10
g36
sg11
g34
sg12
S'2015'
p100
sg14
S'14'
p101
sg16
S'6.0'
p102
sg17
S'12/13'
p103
sg19
g34
sg20
S'Duke Johnson'
p104
sg22
S'13'
p105
sg23
S'W24-10'
p106
sg24
S'6'
p107
sg25
g36
sg26
S'SF'
p108
sg27
g107
sg28
S'78'
p109
sg29
S'19'
p110
ssS'17'
p111
(dp112
g5
S'8.5'
p113
sg7
S'--'
p114
sg8
g34
sg9
S'--'
p115
sg10
g36
sg11
g34
sg12
S'2015'
p116
sg14
S'17'
p117
sg16
S'2.8'
p118
sg17
S'01/03'
p119
sg19
g34
sg20
S'Duke Johnson'
p120
sg22
g42
sg23
S'L12-28'
p121
sg24
S'34'
p122
sg25
g42
sg26
S'PIT'
p123
sg27
S'20'
p124
sg28
S'11'
p125
sg29
g75
ssS'16'
p126
(dp127
g5
S'5.0'
p128
sg7
S'--'
p129
sg8
g36
sg9
S'--'
p130
sg10
g36
sg11
g34
sg12
S'2015'
p131
sg14
S'16'
p132
sg16
S'3.3'
p133
sg17
S'12/27'
p134
sg19
g34
sg20
S'Duke Johnson'
p135
sg22
S'8'
p136
sg23
S'L13-17'
p137
sg24
S'15'
p138
sg25
S'3'
p139
sg26
S'@KC'
p140
sg27
g136
sg28
S'26'
p141
sg29
S'11'
p142
ssg36
(dp143
g5
S'--'
p144
sg7
S'--'
p145
sg8
g36
sg9
S'--'
p146
sg10
g36
sg11
S'--'
p147
sg12
S'2015'
p148
sg14
g36
sg16
S'3.1'
p149
sg17
S'09/13'
p150
sg19
g34
sg20
S'Duke Johnson'
p151
sg22
g75
sg23
S'L10-31'
p152
sg24
S'--'
p153
sg25
S'--'
p154
sg26
S'@NYJ'
p155
sg27
S'--'
p156
sg28
S'22'
p157
sg29
g136
ssg139
(dp158
g5
S'5.3'
p159
sg7
S'--'
p160
sg8
g34
sg9
S'--'
p161
sg10
g36
sg11
g34
sg12
S'2015'
p162
sg14
g139
sg16
S'0.8'
p163
sg17
S'09/27'
p164
sg19
g34
sg20
S'Duke Johnson'
p165
sg22
g42
sg23
S'L20-27'
p166
sg24
S'32'
p167
sg25
g107
sg26
S'OAK'
p168
sg27
S'18'
p169
sg28
g139
sg29
g107
ssg64
(dp170
g5
S'--'
p171
sg7
S'--'
p172
sg8
g34
sg9
S'--'
p173
sg10
g36
sg11
S'--'
p174
sg12
S'2015'
p175
sg14
g64
sg16
S'3.6'
p176
sg17
S'09/20'
p177
sg19
g34
sg20
S'Duke Johnson'
p178
sg22
S'12'
p179
sg23
S'W28-14'
p180
sg24
S'--'
p181
sg25
S'--'
p182
sg26
S'TEN'
p183
sg27
S'--'
p184
sg28
S'43'
p185
sg29
S'20'
p186
ssg59
(dp187
g5
S'9.2'
p188
sg7
S'--'
p189
sg8
g36
sg9
S'--'
p190
sg10
g36
sg11
g34
sg12
S'2015'
p191
sg14
g59
sg16
S'2.4'
p192
sg17
S'10/11'
p193
sg19
g34
sg20
S'Duke Johnson'
p194
sg22
g48
sg23
S'W33-30'
p195
sg24
S'55'
p196
sg25
g107
sg26
S'@BAL'
p197
sg27
S'27'
p198
sg28
S'22'
p199
sg29
g107
ssg42
(dp200
g5
S'9.4'
p201
sg7
S'--'
p202
sg8
g36
sg9
S'--'
p203
sg10
g36
sg11
g36
sg12
S'2015'
p204
sg14
g42
sg16
S'3.9'
p205
sg17
S'10/04'
p206
sg19
g34
sg20
S'Duke Johnson'
p207
sg22
g136
sg23
S'L27-30'
p208
sg24
S'85'
p209
sg25
g48
sg26
S'@SD'
p210
sg27
S'34T'
p211
sg28
S'31'
p212
sg29
g48
ssg75
(dp213
g5
S'10.4'
p214
sg7
S'--'
p215
sg8
g34
sg9
S'--'
p216
sg10
g36
sg11
g34
sg12
S'2015'
p217
sg14
g75
sg16
S'2.8'
p218
sg17
S'10/25'
p219
sg19
g34
sg20
S'Duke Johnson'
p220
sg22
g107
sg23
S'L6-24'
p221
sg24
S'73'
p222
sg25
g75
sg26
S'@STL'
p223
sg27
S'21'
p224
sg28
S'17'
p225
sg29
S'10'
p226
ssg107
(dp227
g5
S'6.0'
p228
sg7
S'--'
p229
sg8
g34
sg9
S'--'
p230
sg10
g36
sg11
g34
sg12
S'2015'
p231
sg14
g107
sg16
S'4.2'
p232
sg17
S'10/18'
p233
sg19
g34
sg20
S'Duke Johnson'
p234
sg22
g48
sg23
S'L23-26'
p235
sg24
S'18'
p236
sg25
g139
sg26
S'DEN'
p237
sg27
S'11'
p238
sg28
S'38'
p239
sg29
S'12'
p240
ssg48
(dp241
g5
S'19.0'
p242
sg7
S'--'
p243
sg8
g34
sg9
S'--'
p244
sg10
g36
sg11
g36
sg12
S'2015'
p245
sg14
g48
sg16
S'0.0'
p246
sg17
S'11/05'
p247
sg19
g34
sg20
S'Duke Johnson'
p248
sg22
g139
sg23
S'L10-31'
p249
sg24
S'38'
p250
sg25
g64
sg26
S'@CIN'
p251
sg27
S'26'
p252
sg28
g34
sg29
g59
ssg136
(dp253
g5
S'34.0'
p254
sg7
S'--'
p255
sg8
g34
sg9
S'--'
p256
sg10
g36
sg11
g34
sg12
S'2015'
p257
sg14
g136
sg16
S'3.0'
p258
sg17
S'11/01'
p259
sg19
g34
sg20
S'Duke Johnson'
p260
sg22
g36
sg23
S'L20-34'
p261
sg24
S'68'
p262
sg25
g64
sg26
S'ARI'
p263
sg27
S'52'
p264
sg28
g139
sg29
g139
sss.