(dp0
S'2015'
p1
(dp2
S'11'
p3
(dp4
S'RecAvg'
p5
S'2.0'
p6
sS'FUM'
p7
S'--'
p8
sS'GS'
p9
S'0'
p10
sS'Lost'
p11
S'--'
p12
sS'G'
p13
S'1'
p14
sS'RecTD'
p15
g10
sS'Year'
p16
S'2015'
p17
sS'WK'
p18
S'11'
p19
sS'RushAvg'
p20
S'3.0'
p21
sS'Game Date'
p22
S'11/22'
p23
sS'RushTD'
p24
g10
sS'Player'
p25
S'Fozzy Whittaker'
p26
sS'RushAtt'
p27
S'2'
p28
sS'Result'
p29
S'W44-16'
p30
sS'RecYds'
p31
g28
sS'Rec'
p32
g14
sS'Opp'
p33
S'WAS'
p34
sS'RecLng'
p35
g28
sS'RushYds'
p36
S'6'
p37
sS'RushLng'
p38
S'4'
p39
ssS'10'
p40
(dp41
g5
S'--'
p42
sg7
S'--'
p43
sg9
g10
sg11
S'--'
p44
sg13
g14
sg15
S'--'
p45
sg16
S'2015'
p46
sg18
S'10'
p47
sg20
S'--'
p48
sg22
S'11/15'
p49
sg24
S'--'
p50
sg25
S'Fozzy Whittaker'
p51
sg27
S'--'
p52
sg29
S'W27-10'
p53
sg31
S'--'
p54
sg32
S'--'
p55
sg33
S'@TEN'
p56
sg35
S'--'
p57
sg36
S'--'
p58
sg38
S'--'
p59
ssS'13'
p60
(dp61
g5
S'--'
p62
sg7
S'--'
p63
sg9
g10
sg11
S'--'
p64
sg13
g14
sg15
S'--'
p65
sg16
S'2015'
p66
sg18
S'13'
p67
sg20
S'11.0'
p68
sg22
S'12/06'
p69
sg24
g10
sg25
S'Fozzy Whittaker'
p70
sg27
g14
sg29
S'W41-38'
p71
sg31
S'--'
p72
sg32
S'--'
p73
sg33
S'@NO'
p74
sg35
S'--'
p75
sg36
S'11'
p76
sg38
S'11'
p77
ssS'12'
p78
(dp79
g5
S'--'
p80
sg7
S'--'
p81
sg9
g10
sg11
S'--'
p82
sg13
g14
sg15
S'--'
p83
sg16
S'2015'
p84
sg18
S'12'
p85
sg20
S'--'
p86
sg22
S'11/26'
p87
sg24
S'--'
p88
sg25
S'Fozzy Whittaker'
p89
sg27
S'--'
p90
sg29
S'W33-14'
p91
sg31
S'--'
p92
sg32
S'--'
p93
sg33
S'@DAL'
p94
sg35
S'--'
p95
sg36
S'--'
p96
sg38
S'--'
p97
ssS'15'
p98
(dp99
g5
S'7.0'
p100
sg7
S'--'
p101
sg9
g10
sg11
S'--'
p102
sg13
g14
sg15
g10
sg16
S'2015'
p103
sg18
S'15'
p104
sg20
S'1.0'
p105
sg22
S'12/20'
p106
sg24
g10
sg25
S'Fozzy Whittaker'
p107
sg27
g28
sg29
S'W38-35'
p108
sg31
S'14'
p109
sg32
g28
sg33
S'@NYG'
p110
sg35
S'9'
p111
sg36
g28
sg38
g28
ssS'14'
p112
(dp113
g5
S'-6.0'
p114
sg7
S'--'
p115
sg9
g10
sg11
S'--'
p116
sg13
g14
sg15
g10
sg16
S'2015'
p117
sg18
S'14'
p118
sg20
S'4.3'
p119
sg22
S'12/13'
p120
sg24
g14
sg25
S'Fozzy Whittaker'
p121
sg27
S'8'
p122
sg29
S'W38-0'
p123
sg31
S'-6'
p124
sg32
g14
sg33
S'ATL'
p125
sg35
S'-6'
p126
sg36
S'34'
p127
sg38
S'16T'
p128
ssS'17'
p129
(dp130
g5
S'--'
p131
sg7
S'--'
p132
sg9
g10
sg11
S'--'
p133
sg13
g10
sg15
S'--'
p134
sg16
S'2015'
p135
sg18
S'17'
p136
sg20
S'--'
p137
sg22
S'01/03'
p138
sg24
S'--'
p139
sg25
S'Fozzy Whittaker'
p140
sg27
S'--'
p141
sg29
S'W38-10'
p142
sg31
S'--'
p143
sg32
S'--'
p144
sg33
S'TB'
p145
sg35
S'--'
p146
sg36
S'--'
p147
sg38
S'--'
p148
ssS'16'
p149
(dp150
g5
S'3.0'
p151
sg7
S'--'
p152
sg9
g14
sg11
S'--'
p153
sg13
g14
sg15
g10
sg16
S'2015'
p154
sg18
S'16'
p155
sg20
S'6.4'
p156
sg22
S'12/27'
p157
sg24
g10
sg25
S'Fozzy Whittaker'
p158
sg27
S'5'
p159
sg29
S'L13-20'
p160
sg31
g37
sg32
g28
sg33
S'@ATL'
p161
sg35
g39
sg36
S'32'
p162
sg38
S'16'
p163
ssg14
(dp164
g5
S'1.5'
p165
sg7
S'--'
p166
sg9
g10
sg11
S'--'
p167
sg13
g14
sg15
g10
sg16
S'2015'
p168
sg18
g14
sg20
S'1.0'
p169
sg22
S'09/13'
p170
sg24
g10
sg25
S'Fozzy Whittaker'
p171
sg27
g28
sg29
S'W20-9'
p172
sg31
S'3'
p173
sg32
g28
sg33
S'@JAC'
p174
sg35
g159
sg36
g28
sg38
g28
ssg173
(dp175
g5
S'14.0'
p176
sg7
S'--'
p177
sg9
g10
sg11
S'--'
p178
sg13
g14
sg15
g10
sg16
S'2015'
p179
sg18
g173
sg20
S'--'
p180
sg22
S'09/27'
p181
sg24
S'--'
p182
sg25
S'Fozzy Whittaker'
p183
sg27
S'--'
p184
sg29
S'W27-22'
p185
sg31
S'14'
p186
sg32
g14
sg33
S'NO'
p187
sg35
S'14'
p188
sg36
S'--'
p189
sg38
S'--'
p190
ssg28
(dp191
g5
S'--'
p192
sg7
S'--'
p193
sg9
g10
sg11
S'--'
p194
sg13
g14
sg15
S'--'
p195
sg16
S'2015'
p196
sg18
g28
sg20
S'3.0'
p197
sg22
S'09/20'
p198
sg24
g10
sg25
S'Fozzy Whittaker'
p199
sg27
g14
sg29
S'W24-17'
p200
sg31
S'--'
p201
sg32
S'--'
p202
sg33
S'HOU'
p203
sg35
S'--'
p204
sg36
g173
sg38
g173
ssg159
(dp205
g5
S''
p206
sg7
g206
sg9
g206
sg11
g206
sg13
g206
sg15
g206
sg16
S'2015'
p207
sg18
g159
sg20
g206
sg22
S'Bye'
p208
sg24
g206
sg25
S'Fozzy Whittaker'
p209
sg27
g206
sg29
g206
sg31
g206
sg32
g206
sg33
g206
sg35
g206
sg36
g206
sg38
g206
ssg39
(dp210
g5
S'10.0'
p211
sg7
S'--'
p212
sg9
g10
sg11
S'--'
p213
sg13
g14
sg15
g10
sg16
S'2015'
p214
sg18
g39
sg20
S'--'
p215
sg22
S'10/04'
p216
sg24
S'--'
p217
sg25
S'Fozzy Whittaker'
p218
sg27
S'--'
p219
sg29
S'W37-23'
p220
sg31
S'10'
p221
sg32
g14
sg33
S'@TB'
p222
sg35
S'10'
p223
sg36
S'--'
p224
sg38
S'--'
p225
ssS'7'
p226
(dp227
g5
S'--'
p228
sg7
S'--'
p229
sg9
g10
sg11
S'--'
p230
sg13
g14
sg15
g10
sg16
S'2015'
p231
sg18
g226
sg20
S'--'
p232
sg22
S'10/25'
p233
sg24
S'--'
p234
sg25
S'Fozzy Whittaker'
p235
sg27
S'--'
p236
sg29
S'W27-16'
p237
sg31
g10
sg32
g10
sg33
S'PHI'
p238
sg35
S'--'
p239
sg36
S'--'
p240
sg38
S'--'
p241
ssg37
(dp242
g5
S'10.5'
p243
sg7
S'--'
p244
sg9
g10
sg11
S'--'
p245
sg13
g14
sg15
g10
sg16
S'2015'
p246
sg18
g37
sg20
S'2.0'
p247
sg22
S'10/18'
p248
sg24
g10
sg25
S'Fozzy Whittaker'
p249
sg27
g14
sg29
S'W27-23'
p250
sg31
S'21'
p251
sg32
g28
sg33
S'@SEA'
p252
sg35
S'15'
p253
sg36
g28
sg38
g28
ssg111
(dp254
g5
S'--'
p255
sg7
S'--'
p256
sg9
g10
sg11
S'--'
p257
sg13
g14
sg15
S'--'
p258
sg16
S'2015'
p259
sg18
g111
sg20
S'6.5'
p260
sg22
S'11/08'
p261
sg24
g10
sg25
S'Fozzy Whittaker'
p262
sg27
g28
sg29
S'W37-29'
p263
sg31
S'--'
p264
sg32
S'--'
p265
sg33
S'GB'
p266
sg35
S'--'
p267
sg36
S'13'
p268
sg38
S'10'
p269
ssg122
(dp270
g5
S'--'
p271
sg7
S'--'
p272
sg9
g10
sg11
S'--'
p273
sg13
g14
sg15
g10
sg16
S'2015'
p274
sg18
g122
sg20
S'3.0'
p275
sg22
S'11/02'
p276
sg24
g10
sg25
S'Fozzy Whittaker'
p277
sg27
g14
sg29
S'W29-26'
p278
sg31
g10
sg32
g10
sg33
S'IND'
p279
sg35
S'--'
p280
sg36
g173
sg38
g173
sssS'2014'
p281
(dp282
g3
(dp283
g5
S'--'
p284
sg7
S'--'
p285
sg9
g10
sg11
S'--'
p286
sg13
g14
sg15
g10
sg16
S'2014'
p287
sg18
S'11'
p288
sg20
S'3.7'
p289
sg22
S'11/16'
p290
sg24
g10
sg25
S'Fozzy Whittaker'
p291
sg27
g173
sg29
S'L17-19'
p292
sg31
g10
sg32
g10
sg33
S'ATL'
p293
sg35
S'--'
p294
sg36
S'11'
p295
sg38
g159
ssg40
(dp296
g5
S'3.5'
p297
sg7
S'--'
p298
sg9
g10
sg11
S'--'
p299
sg13
g14
sg15
g10
sg16
S'2014'
p300
sg18
S'10'
p301
sg20
S'4.8'
p302
sg22
S'11/10'
p303
sg24
g10
sg25
S'Fozzy Whittaker'
p304
sg27
g37
sg29
S'L21-45'
p305
sg31
g226
sg32
g28
sg33
S'@PHI'
p306
sg35
g37
sg36
S'29'
p307
sg38
S'17'
p308
ssg60
(dp309
g5
S'--'
p310
sg7
S'--'
p311
sg9
g10
sg11
S'--'
p312
sg13
g14
sg15
S'--'
p313
sg16
S'2014'
p314
sg18
S'13'
p315
sg20
S'16.0'
p316
sg22
S'11/30'
p317
sg24
g10
sg25
S'Fozzy Whittaker'
p318
sg27
g14
sg29
S'L13-31'
p319
sg31
S'--'
p320
sg32
S'--'
p321
sg33
S'@MIN'
p322
sg35
S'--'
p323
sg36
S'16'
p324
sg38
S'16'
p325
ssg78
(dp326
g5
g206
sg7
g206
sg9
g206
sg11
g206
sg13
g206
sg15
g206
sg16
S'2014'
p327
sg18
S'12'
p328
sg20
g206
sg22
S'Bye'
p329
sg24
g206
sg25
S'Fozzy Whittaker'
p330
sg27
g206
sg29
g206
sg31
g206
sg32
g206
sg33
g206
sg35
g206
sg36
g206
sg38
g206
ssg98
(dp331
g5
S'--'
p332
sg7
S'--'
p333
sg9
g10
sg11
S'--'
p334
sg13
g14
sg15
S'--'
p335
sg16
S'2014'
p336
sg18
S'15'
p337
sg20
S'6.5'
p338
sg22
S'12/14'
p339
sg24
g10
sg25
S'Fozzy Whittaker'
p340
sg27
g28
sg29
S'W19-17'
p341
sg31
S'--'
p342
sg32
S'--'
p343
sg33
S'TB'
p344
sg35
S'--'
p345
sg36
S'13'
p346
sg38
S'11'
p347
ssg112
(dp348
g5
S'26.0'
p349
sg7
S'--'
p350
sg9
g10
sg11
S'--'
p351
sg13
g14
sg15
g14
sg16
S'2014'
p352
sg18
S'14'
p353
sg20
S'1.7'
p354
sg22
S'12/07'
p355
sg24
g10
sg25
S'Fozzy Whittaker'
p356
sg27
g173
sg29
S'W41-10'
p357
sg31
S'26'
p358
sg32
g14
sg33
S'@NO'
p359
sg35
S'26T'
p360
sg36
g159
sg38
g173
ssg129
(dp361
g5
S'--'
p362
sg7
S'--'
p363
sg9
g10
sg11
S'--'
p364
sg13
g14
sg15
S'--'
p365
sg16
S'2014'
p366
sg18
S'17'
p367
sg20
S'5.9'
p368
sg22
S'12/28'
p369
sg24
g10
sg25
S'Fozzy Whittaker'
p370
sg27
g226
sg29
S'W34-3'
p371
sg31
S'--'
p372
sg32
S'--'
p373
sg33
S'@ATL'
p374
sg35
S'--'
p375
sg36
S'41'
p376
sg38
S'13'
p377
ssg149
(dp378
g5
S'--'
p379
sg7
S'--'
p380
sg9
g10
sg11
S'--'
p381
sg13
g14
sg15
S'--'
p382
sg16
S'2014'
p383
sg18
S'16'
p384
sg20
S'5.0'
p385
sg22
S'12/21'
p386
sg24
g10
sg25
S'Fozzy Whittaker'
p387
sg27
g14
sg29
S'W17-13'
p388
sg31
S'--'
p389
sg32
S'--'
p390
sg33
S'CLE'
p391
sg35
S'--'
p392
sg36
g159
sg38
g159
ssg14
(dp393
g5
S'--'
p394
sg7
S'--'
p395
sg9
g10
sg11
S'--'
p396
sg13
g14
sg15
S'--'
p397
sg16
S'2014'
p398
sg18
g14
sg20
S'--'
p399
sg22
S'09/07'
p400
sg24
S'--'
p401
sg25
S'Fozzy Whittaker'
p402
sg27
S'--'
p403
sg29
S'W20-14'
p404
sg31
S'--'
p405
sg32
S'--'
p406
sg33
S'@TB'
p407
sg35
S'--'
p408
sg36
S'--'
p409
sg38
S'--'
p410
ssg173
(dp411
g5
S'--'
p412
sg7
S'--'
p413
sg9
g10
sg11
S'--'
p414
sg13
g10
sg15
S'--'
p415
sg16
S'2014'
p416
sg18
g173
sg20
S'--'
p417
sg22
S'09/21'
p418
sg24
S'--'
p419
sg25
S'Fozzy Whittaker'
p420
sg27
S'--'
p421
sg29
S'L19-37'
p422
sg31
S'--'
p423
sg32
S'--'
p424
sg33
S'PIT'
p425
sg35
S'--'
p426
sg36
S'--'
p427
sg38
S'--'
p428
ssg28
(dp429
g5
S'--'
p430
sg7
S'--'
p431
sg9
g10
sg11
S'--'
p432
sg13
g14
sg15
S'--'
p433
sg16
S'2014'
p434
sg18
g28
sg20
S'--'
p435
sg22
S'09/14'
p436
sg24
S'--'
p437
sg25
S'Fozzy Whittaker'
p438
sg27
S'--'
p439
sg29
S'W24-7'
p440
sg31
S'--'
p441
sg32
S'--'
p442
sg33
S'DET'
p443
sg35
S'--'
p444
sg36
S'--'
p445
sg38
S'--'
p446
ssg159
(dp447
g5
S'--'
p448
sg7
S'--'
p449
sg9
g10
sg11
S'--'
p450
sg13
g10
sg15
S'--'
p451
sg16
S'2014'
p452
sg18
g159
sg20
S'--'
p453
sg22
S'10/05'
p454
sg24
S'--'
p455
sg25
S'Fozzy Whittaker'
p456
sg27
S'--'
p457
sg29
S'W31-24'
p458
sg31
S'--'
p459
sg32
S'--'
p460
sg33
S'CHI'
p461
sg35
S'--'
p462
sg36
S'--'
p463
sg38
S'--'
p464
ssg39
(dp465
g5
S'--'
p466
sg7
S'--'
p467
sg9
g10
sg11
S'--'
p468
sg13
g10
sg15
S'--'
p469
sg16
S'2014'
p470
sg18
g39
sg20
S'--'
p471
sg22
S'09/28'
p472
sg24
S'--'
p473
sg25
S'Fozzy Whittaker'
p474
sg27
S'--'
p475
sg29
S'L10-38'
p476
sg31
S'--'
p477
sg32
S'--'
p478
sg33
S'@BAL'
p479
sg35
S'--'
p480
sg36
S'--'
p481
sg38
S'--'
p482
ssg226
(dp483
g5
S'--'
p484
sg7
S'--'
p485
sg9
g10
sg11
S'--'
p486
sg13
g10
sg15
S'--'
p487
sg16
S'2014'
p488
sg18
g226
sg20
S'--'
p489
sg22
S'10/19'
p490
sg24
S'--'
p491
sg25
S'Fozzy Whittaker'
p492
sg27
S'--'
p493
sg29
S'L17-38'
p494
sg31
S'--'
p495
sg32
S'--'
p496
sg33
S'@GB'
p497
sg35
S'--'
p498
sg36
S'--'
p499
sg38
S'--'
p500
ssg37
(dp501
g5
S'13.5'
p502
sg7
S'--'
p503
sg9
g14
sg11
S'--'
p504
sg13
g14
sg15
g10
sg16
S'2014'
p505
sg18
g37
sg20
S'2.8'
p506
sg22
S'10/12'
p507
sg24
g14
sg25
S'Fozzy Whittaker'
p508
sg27
g111
sg29
S'T37-37'
p509
sg31
S'27'
p510
sg32
g28
sg33
S'@CIN'
p511
sg35
S'23'
p512
sg36
S'25'
p513
sg38
g37
ssg111
(dp514
g5
S'--'
p515
sg7
S'--'
p516
sg9
g10
sg11
S'--'
p517
sg13
g10
sg15
S'--'
p518
sg16
S'2014'
p519
sg18
g111
sg20
S'--'
p520
sg22
S'10/30'
p521
sg24
S'--'
p522
sg25
S'Fozzy Whittaker'
p523
sg27
S'--'
p524
sg29
S'L10-28'
p525
sg31
S'--'
p526
sg32
S'--'
p527
sg33
S'NO'
p528
sg35
S'--'
p529
sg36
S'--'
p530
sg38
S'--'
p531
ssg122
(dp532
g5
S'--'
p533
sg7
S'--'
p534
sg9
g10
sg11
S'--'
p535
sg13
g10
sg15
S'--'
p536
sg16
S'2014'
p537
sg18
g122
sg20
S'--'
p538
sg22
S'10/26'
p539
sg24
S'--'
p540
sg25
S'Fozzy Whittaker'
p541
sg27
S'--'
p542
sg29
S'L9-13'
p543
sg31
S'--'
p544
sg32
S'--'
p545
sg33
S'SEA'
p546
sg35
S'--'
p547
sg36
S'--'
p548
sg38
S'--'
p549
sssS'2013'
p550
(dp551
g3
(dp552
g5
S'8.2'
p553
sg7
S'--'
p554
sg9
g10
sg11
S'--'
p555
sg13
g14
sg15
g10
sg16
S'2013'
p556
sg18
S'11'
p557
sg20
S'5.0'
p558
sg22
S'11/17'
p559
sg24
g10
sg25
S'Fozzy Whittaker'
p560
sg27
g39
sg29
S'L20-41'
p561
sg31
S'41'
p562
sg32
g159
sg33
S'@CIN'
p563
sg35
S'11'
p564
sg36
S'20'
p565
sg38
g226
ssg40
(dp566
g5
g206
sg7
g206
sg9
g206
sg11
g206
sg13
g206
sg15
g206
sg16
S'2013'
p567
sg18
S'10'
p568
sg20
g206
sg22
S'Bye'
p569
sg24
g206
sg25
S'Fozzy Whittaker'
p570
sg27
g206
sg29
g206
sg31
g206
sg32
g206
sg33
g206
sg35
g206
sg36
g206
sg38
g206
ssg60
(dp571
g5
S'1.0'
p572
sg7
S'--'
p573
sg9
g10
sg11
S'--'
p574
sg13
g14
sg15
g10
sg16
S'2013'
p575
sg18
S'13'
p576
sg20
S'2.1'
p577
sg22
S'12/01'
p578
sg24
g10
sg25
S'Fozzy Whittaker'
p579
sg27
g226
sg29
S'L28-32'
p580
sg31
g14
sg32
g14
sg33
S'JAC'
p581
sg35
g14
sg36
S'15'
p582
sg38
g159
ssg78
(dp583
g5
S'5.0'
p584
sg7
S'--'
p585
sg9
g14
sg11
S'--'
p586
sg13
g14
sg15
g10
sg16
S'2013'
p587
sg18
S'12'
p588
sg20
S'2.7'
p589
sg22
S'11/24'
p590
sg24
g10
sg25
S'Fozzy Whittaker'
p591
sg27
g37
sg29
S'L11-27'
p592
sg31
g159
sg32
g14
sg33
S'PIT'
p593
sg35
g159
sg36
S'16'
p594
sg38
g159
ssg98
(dp595
g5
S'2.0'
p596
sg7
S'--'
p597
sg9
g10
sg11
S'--'
p598
sg13
g14
sg15
g10
sg16
S'2013'
p599
sg18
S'15'
p600
sg20
S'1.0'
p601
sg22
S'12/15'
p602
sg24
g10
sg25
S'Fozzy Whittaker'
p603
sg27
g14
sg29
S'L31-38'
p604
sg31
g39
sg32
g28
sg33
S'CHI'
p605
sg35
g159
sg36
g14
sg38
g14
ssg112
(dp606
g5
S'6.0'
p607
sg7
S'--'
p608
sg9
g10
sg11
S'--'
p609
sg13
g14
sg15
g10
sg16
S'2013'
p610
sg18
S'14'
p611
sg20
S'1.7'
p612
sg22
S'12/08'
p613
sg24
g10
sg25
S'Fozzy Whittaker'
p614
sg27
g173
sg29
S'L26-27'
p615
sg31
S'18'
p616
sg32
g173
sg33
S'@NE'
p617
sg35
g122
sg36
g159
sg38
g159
ssg129
(dp618
g5
S'19.0'
p619
sg7
S'--'
p620
sg9
g10
sg11
S'--'
p621
sg13
g14
sg15
g14
sg16
S'2013'
p622
sg18
S'17'
p623
sg20
S'--'
p624
sg22
S'12/29'
p625
sg24
S'--'
p626
sg25
S'Fozzy Whittaker'
p627
sg27
S'--'
p628
sg29
S'L7-20'
p629
sg31
S'38'
p630
sg32
g28
sg33
S'@PIT'
p631
sg35
S'35T'
p632
sg36
S'--'
p633
sg38
S'--'
p634
ssg149
(dp635
g5
S'--'
p636
sg7
S'--'
p637
sg9
g10
sg11
S'--'
p638
sg13
g14
sg15
S'--'
p639
sg16
S'2013'
p640
sg18
S'16'
p641
sg20
S'--'
p642
sg22
S'12/22'
p643
sg24
S'--'
p644
sg25
S'Fozzy Whittaker'
p645
sg27
S'--'
p646
sg29
S'L13-24'
p647
sg31
S'--'
p648
sg32
S'--'
p649
sg33
S'@NYJ'
p650
sg35
S'--'
p651
sg36
S'--'
p652
sg38
S'--'
p653
ssg14
(dp654
g5
S'--'
p655
sg7
S'--'
p656
sg9
g10
sg11
S'--'
p657
sg13
g14
sg15
S'--'
p658
sg16
S'2013'
p659
sg18
g14
sg20
S'--'
p660
sg22
S'09/09'
p661
sg24
S'--'
p662
sg25
S'Fozzy Whittaker'
p663
sg27
S'--'
p664
sg29
S'L28-31'
p665
sg31
S'--'
p666
sg32
S'--'
p667
sg33
S'HOU'
p668
sg35
S'--'
p669
sg36
S'--'
p670
sg38
S'--'
p671
ssg173
(dp672
g5
S'--'
p673
sg7
S'--'
p674
sg9
g10
sg11
S'--'
p675
sg13
g14
sg15
S'--'
p676
sg16
S'2013'
p677
sg18
g173
sg20
S'--'
p678
sg22
S'09/22'
p679
sg24
S'--'
p680
sg25
S'Fozzy Whittaker'
p681
sg27
S'--'
p682
sg29
S'L17-20'
p683
sg31
S'--'
p684
sg32
S'--'
p685
sg33
S'@TEN'
p686
sg35
S'--'
p687
sg36
S'--'
p688
sg38
S'--'
p689
ssg28
(dp690
g5
S'--'
p691
sg7
g14
sg9
g10
sg11
g10
sg13
g14
sg15
S'--'
p692
sg16
S'2013'
p693
sg18
g28
sg20
S'--'
p694
sg22
S'09/15'
p695
sg24
S'--'
p696
sg25
S'Fozzy Whittaker'
p697
sg27
S'--'
p698
sg29
S'W33-30'
p699
sg31
S'--'
p700
sg32
S'--'
p701
sg33
S'@PHI'
p702
sg35
S'--'
p703
sg36
S'--'
p704
sg38
S'--'
p705
ssg159
(dp706
g5
S'--'
p707
sg7
S'--'
p708
sg9
g10
sg11
S'--'
p709
sg13
g10
sg15
S'--'
p710
sg16
S'2013'
p711
sg18
g159
sg20
S'--'
p712
sg22
S'10/03'
p713
sg24
S'--'
p714
sg25
S'Fozzy Whittaker'
p715
sg27
S'--'
p716
sg29
S'W37-24'
p717
sg31
S'--'
p718
sg32
S'--'
p719
sg33
S'BUF'
p720
sg35
S'--'
p721
sg36
S'--'
p722
sg38
S'--'
p723
ssg226
(dp724
g5
S'6.5'
p725
sg7
S'--'
p726
sg9
g10
sg11
S'--'
p727
sg13
g14
sg15
g10
sg16
S'2013'
p728
sg18
g226
sg20
S'2.2'
p729
sg22
S'10/20'
p730
sg24
g10
sg25
S'Fozzy Whittaker'
p731
sg27
g159
sg29
S'L13-31'
p732
sg31
S'13'
p733
sg32
g28
sg33
S'@GB'
p734
sg35
S'10'
p735
sg36
S'11'
p736
sg38
g226
ssg37
(dp737
g5
S'--'
p738
sg7
S'--'
p739
sg9
g10
sg11
S'--'
p740
sg13
g14
sg15
S'--'
p741
sg16
S'2013'
p742
sg18
g37
sg20
S'--'
p743
sg22
S'10/13'
p744
sg24
S'--'
p745
sg25
S'Fozzy Whittaker'
p746
sg27
S'--'
p747
sg29
S'L17-31'
p748
sg31
S'--'
p749
sg32
S'--'
p750
sg33
S'DET'
p751
sg35
S'--'
p752
sg36
S'--'
p753
sg38
S'--'
p754
ssg111
(dp755
g5
S'4.3'
p756
sg7
S'--'
p757
sg9
g14
sg11
S'--'
p758
sg13
g14
sg15
g10
sg16
S'2013'
p759
sg18
g111
sg20
S'5.5'
p760
sg22
S'11/03'
p761
sg24
g10
sg25
S'Fozzy Whittaker'
p762
sg27
g28
sg29
S'W24-18'
p763
sg31
S'13'
p764
sg32
g173
sg33
S'BAL'
p765
sg35
g122
sg36
S'11'
p766
sg38
S'11'
p767
ssg122
(dp768
g5
S'11.0'
p769
sg7
S'--'
p770
sg9
g10
sg11
S'--'
p771
sg13
g14
sg15
g14
sg16
S'2013'
p772
sg18
g122
sg20
S'--'
p773
sg22
S'10/27'
p774
sg24
S'--'
p775
sg25
S'Fozzy Whittaker'
p776
sg27
S'--'
p777
sg29
S'L17-23'
p778
sg31
S'22'
p779
sg32
g28
sg33
S'@KC'
p780
sg35
S'17T'
p781
sg36
S'--'
p782
sg38
S'--'
p783
sss.