(dp0
S'2015'
p1
(dp2
S'11'
p3
(dp4
S'RecAvg'
p5
S'--'
p6
sS'FUM'
p7
S'--'
p8
sS'GS'
p9
S'0'
p10
sS'Lost'
p11
S'--'
p12
sS'G'
p13
S'1'
p14
sS'RecTD'
p15
S'--'
p16
sS'Year'
p17
S'2015'
p18
sS'WK'
p19
S'11'
p20
sS'RushAvg'
p21
S'--'
p22
sS'Game Date'
p23
S'11/22'
p24
sS'RushTD'
p25
S'--'
p26
sS'Player'
p27
S'George Winn'
p28
sS'RushAtt'
p29
S'--'
p30
sS'Result'
p31
S'W18-13'
p32
sS'RecYds'
p33
S'--'
p34
sS'Rec'
p35
S'--'
p36
sS'Opp'
p37
S'OAK'
p38
sS'RecLng'
p39
S'--'
p40
sS'RushYds'
p41
S'--'
p42
sS'RushLng'
p43
S'--'
p44
ssS'10'
p45
(dp46
g5
S'--'
p47
sg7
S'--'
p48
sg9
g10
sg11
S'--'
p49
sg13
g14
sg15
S'--'
p50
sg17
S'2015'
p51
sg19
S'10'
p52
sg21
S'--'
p53
sg23
S'11/15'
p54
sg25
S'--'
p55
sg27
S'George Winn'
p56
sg29
S'--'
p57
sg31
S'W18-16'
p58
sg33
S'--'
p59
sg35
S'--'
p60
sg37
S'@GB'
p61
sg39
S'--'
p62
sg41
S'--'
p63
sg43
S'--'
p64
ssS'13'
p65
(dp66
g5
S'--'
p67
sg7
S'--'
p68
sg9
g10
sg11
S'--'
p69
sg13
g14
sg15
S'--'
p70
sg17
S'2015'
p71
sg19
S'13'
p72
sg21
S'--'
p73
sg23
S'12/03'
p74
sg25
S'--'
p75
sg27
S'George Winn'
p76
sg29
S'--'
p77
sg31
S'L23-27'
p78
sg33
S'--'
p79
sg35
S'--'
p80
sg37
S'GB'
p81
sg39
S'--'
p82
sg41
S'--'
p83
sg43
S'--'
p84
ssS'12'
p85
(dp86
g5
S'--'
p87
sg7
S'--'
p88
sg9
g10
sg11
S'--'
p89
sg13
g14
sg15
S'--'
p90
sg17
S'2015'
p91
sg19
S'12'
p92
sg21
S'0.3'
p93
sg23
S'11/26'
p94
sg25
g10
sg27
S'George Winn'
p95
sg29
S'3'
p96
sg31
S'W45-14'
p97
sg33
S'--'
p98
sg35
S'--'
p99
sg37
S'PHI'
p100
sg39
S'--'
p101
sg41
g14
sg43
S'2'
p102
ssS'15'
p103
(dp104
g5
S'--'
p105
sg7
S'--'
p106
sg9
g10
sg11
S'--'
p107
sg13
g10
sg15
S'--'
p108
sg17
S'2015'
p109
sg19
S'15'
p110
sg21
S'--'
p111
sg23
S'12/21'
p112
sg25
S'--'
p113
sg27
S'George Winn'
p114
sg29
S'--'
p115
sg31
S'W35-27'
p116
sg33
S'--'
p117
sg35
S'--'
p118
sg37
S'@NO'
p119
sg39
S'--'
p120
sg41
S'--'
p121
sg43
S'--'
p122
ssS'14'
p123
(dp124
g5
S'--'
p125
sg7
S'--'
p126
sg9
g10
sg11
S'--'
p127
sg13
g14
sg15
S'--'
p128
sg17
S'2015'
p129
sg19
S'14'
p130
sg21
S'--'
p131
sg23
S'12/13'
p132
sg25
S'--'
p133
sg27
S'George Winn'
p134
sg29
S'--'
p135
sg31
S'L14-21'
p136
sg33
S'--'
p137
sg35
S'--'
p138
sg37
S'@STL'
p139
sg39
S'--'
p140
sg41
S'--'
p141
sg43
S'--'
p142
ssS'17'
p143
(dp144
g5
S'--'
p145
sg7
S'--'
p146
sg9
g10
sg11
S'--'
p147
sg13
g10
sg15
S'--'
p148
sg17
S'2015'
p149
sg19
S'17'
p150
sg21
S'--'
p151
sg23
S'01/03'
p152
sg25
S'--'
p153
sg27
S'George Winn'
p154
sg29
S'--'
p155
sg31
S'W24-20'
p156
sg33
S'--'
p157
sg35
S'--'
p158
sg37
S'@CHI'
p159
sg39
S'--'
p160
sg41
S'--'
p161
sg43
S'--'
p162
ssS'16'
p163
(dp164
g5
S'--'
p165
sg7
S'--'
p166
sg9
g10
sg11
S'--'
p167
sg13
g10
sg15
S'--'
p168
sg17
S'2015'
p169
sg19
S'16'
p170
sg21
S'--'
p171
sg23
S'12/27'
p172
sg25
S'--'
p173
sg27
S'George Winn'
p174
sg29
S'--'
p175
sg31
S'W32-17'
p176
sg33
S'--'
p177
sg35
S'--'
p178
sg37
S'SF'
p179
sg39
S'--'
p180
sg41
S'--'
p181
sg43
S'--'
p182
ssS'7'
p183
(dp184
g5
S'--'
p185
sg7
S'--'
p186
sg9
g10
sg11
S'--'
p187
sg13
g14
sg15
S'--'
p188
sg17
S'2015'
p189
sg19
g183
sg21
S'0.0'
p190
sg23
S'10/25'
p191
sg25
g10
sg27
S'George Winn'
p192
sg29
g14
sg31
S'L19-28'
p193
sg33
S'--'
p194
sg35
S'--'
p195
sg37
S'MIN'
p196
sg39
S'--'
p197
sg41
g10
sg43
g10
ssS'9'
p198
(dp199
g5
S''
p200
sg7
g200
sg9
g200
sg11
g200
sg13
g200
sg15
g200
sg17
S'2015'
p201
sg19
g198
sg21
g200
sg23
S'Bye'
p202
sg25
g200
sg27
S'George Winn'
p203
sg29
g200
sg31
g200
sg33
g200
sg35
g200
sg37
g200
sg39
g200
sg41
g200
sg43
g200
ssS'8'
p204
(dp205
g5
S'--'
p206
sg7
S'--'
p207
sg9
g10
sg11
S'--'
p208
sg13
g14
sg15
S'--'
p209
sg17
S'2015'
p210
sg19
g204
sg21
S'--'
p211
sg23
S'11/01'
p212
sg25
S'--'
p213
sg27
S'George Winn'
p214
sg29
S'--'
p215
sg31
S'L10-45'
p216
sg33
S'--'
p217
sg35
S'--'
p218
sg37
S'@KC'
p219
sg39
S'--'
p220
sg41
S'--'
p221
sg43
S'--'
p222
sssS'2014'
p223
(dp224
g3
(dp225
g5
S'--'
p226
sg7
S'--'
p227
sg9
g10
sg11
S'--'
p228
sg13
g14
sg15
S'--'
p229
sg17
S'2014'
p230
sg19
S'11'
p231
sg21
S'--'
p232
sg23
S'11/16'
p233
sg25
S'--'
p234
sg27
S'George Winn'
p235
sg29
S'--'
p236
sg31
S'L6-14'
p237
sg33
S'--'
p238
sg35
S'--'
p239
sg37
S'@ARI'
p240
sg39
S'--'
p241
sg41
S'--'
p242
sg43
S'--'
p243
ssg45
(dp244
g5
S'--'
p245
sg7
S'--'
p246
sg9
g10
sg11
S'--'
p247
sg13
g14
sg15
S'--'
p248
sg17
S'2014'
p249
sg19
S'10'
p250
sg21
S'--'
p251
sg23
S'11/09'
p252
sg25
S'--'
p253
sg27
S'George Winn'
p254
sg29
S'--'
p255
sg31
S'W20-16'
p256
sg33
S'--'
p257
sg35
S'--'
p258
sg37
S'MIA'
p259
sg39
S'--'
p260
sg41
S'--'
p261
sg43
S'--'
p262
ssg65
(dp263
g5
S'--'
p264
sg7
S'--'
p265
sg9
g10
sg11
S'--'
p266
sg13
g14
sg15
S'--'
p267
sg17
S'2014'
p268
sg19
S'13'
p269
sg21
S'--'
p270
sg23
S'11/27'
p271
sg25
S'--'
p272
sg27
S'George Winn'
p273
sg29
S'--'
p274
sg31
S'W34-17'
p275
sg33
S'--'
p276
sg35
S'--'
p277
sg37
S'CHI'
p278
sg39
S'--'
p279
sg41
S'--'
p280
sg43
S'--'
p281
ssg85
(dp282
g5
S'--'
p283
sg7
S'--'
p284
sg9
g10
sg11
S'--'
p285
sg13
g14
sg15
S'--'
p286
sg17
S'2014'
p287
sg19
S'12'
p288
sg21
S'--'
p289
sg23
S'11/23'
p290
sg25
S'--'
p291
sg27
S'George Winn'
p292
sg29
S'--'
p293
sg31
S'L9-34'
p294
sg33
S'--'
p295
sg35
S'--'
p296
sg37
S'@NE'
p297
sg39
S'--'
p298
sg41
S'--'
p299
sg43
S'--'
p300
ssg103
(dp301
g5
S'--'
p302
sg7
S'--'
p303
sg9
g10
sg11
S'--'
p304
sg13
g14
sg15
S'--'
p305
sg17
S'2014'
p306
sg19
S'15'
p307
sg21
S'--'
p308
sg23
S'12/14'
p309
sg25
S'--'
p310
sg27
S'George Winn'
p311
sg29
S'--'
p312
sg31
S'W16-14'
p313
sg33
S'--'
p314
sg35
S'--'
p315
sg37
S'MIN'
p316
sg39
S'--'
p317
sg41
S'--'
p318
sg43
S'--'
p319
ssg123
(dp320
g5
S'--'
p321
sg7
S'--'
p322
sg9
g10
sg11
S'--'
p323
sg13
g14
sg15
S'--'
p324
sg17
S'2014'
p325
sg19
S'14'
p326
sg21
S'2.0'
p327
sg23
S'12/07'
p328
sg25
g10
sg27
S'George Winn'
p329
sg29
g14
sg31
S'W34-17'
p330
sg33
S'--'
p331
sg35
S'--'
p332
sg37
S'TB'
p333
sg39
S'--'
p334
sg41
g102
sg43
g102
ssg143
(dp335
g5
S'--'
p336
sg7
S'--'
p337
sg9
g10
sg11
S'--'
p338
sg13
g14
sg15
S'--'
p339
sg17
S'2014'
p340
sg19
S'17'
p341
sg21
S'--'
p342
sg23
S'12/28'
p343
sg25
S'--'
p344
sg27
S'George Winn'
p345
sg29
S'--'
p346
sg31
S'L20-30'
p347
sg33
S'--'
p348
sg35
S'--'
p349
sg37
S'@GB'
p350
sg39
S'--'
p351
sg41
S'--'
p352
sg43
S'--'
p353
ssg163
(dp354
g5
S'--'
p355
sg7
S'--'
p356
sg9
g10
sg11
S'--'
p357
sg13
g14
sg15
S'--'
p358
sg17
S'2014'
p359
sg19
S'16'
p360
sg21
S'5.0'
p361
sg23
S'12/21'
p362
sg25
g10
sg27
S'George Winn'
p363
sg29
g14
sg31
S'W20-14'
p364
sg33
S'--'
p365
sg35
S'--'
p366
sg37
S'@CHI'
p367
sg39
S'--'
p368
sg41
S'5'
p369
sg43
g369
ssg369
(dp370
g5
S'--'
p371
sg7
S'--'
p372
sg9
g10
sg11
S'--'
p373
sg13
g14
sg15
g10
sg17
S'2014'
p374
sg19
g369
sg21
S'4.4'
p375
sg23
S'10/05'
p376
sg25
g10
sg27
S'George Winn'
p377
sg29
S'11'
p378
sg31
S'L14-17'
p379
sg33
g10
sg35
g10
sg37
S'BUF'
p380
sg39
S'--'
p381
sg41
S'48'
p382
sg43
S'16'
p383
ssg183
(dp384
g5
S'--'
p385
sg7
S'--'
p386
sg9
g10
sg11
S'--'
p387
sg13
g14
sg15
S'--'
p388
sg17
S'2014'
p389
sg19
g183
sg21
S'--'
p390
sg23
S'10/19'
p391
sg25
S'--'
p392
sg27
S'George Winn'
p393
sg29
S'--'
p394
sg31
S'W24-23'
p395
sg33
S'--'
p396
sg35
S'--'
p397
sg37
S'NO'
p398
sg39
S'--'
p399
sg41
S'--'
p400
sg43
S'--'
p401
ssS'6'
p402
(dp403
g5
S'--'
p404
sg7
S'--'
p405
sg9
g10
sg11
S'--'
p406
sg13
g14
sg15
S'--'
p407
sg17
S'2014'
p408
sg19
g402
sg21
S'3.2'
p409
sg23
S'10/12'
p410
sg25
g10
sg27
S'George Winn'
p411
sg29
g369
sg31
S'W17-3'
p412
sg33
S'--'
p413
sg35
S'--'
p414
sg37
S'@MIN'
p415
sg39
S'--'
p416
sg41
S'16'
p417
sg43
S'4'
p418
ssg198
(dp419
g5
g200
sg7
g200
sg9
g200
sg11
g200
sg13
g200
sg15
g200
sg17
S'2014'
p420
sg19
g198
sg21
g200
sg23
S'Bye'
p421
sg25
g200
sg27
S'George Winn'
p422
sg29
g200
sg31
g200
sg33
g200
sg35
g200
sg37
g200
sg39
g200
sg41
g200
sg43
g200
ssg204
(dp423
g5
S'--'
p424
sg7
S'--'
p425
sg9
g10
sg11
S'--'
p426
sg13
g14
sg15
g10
sg17
S'2014'
p427
sg19
g204
sg21
S'2.0'
p428
sg23
S'10/26'
p429
sg25
g10
sg27
S'George Winn'
p430
sg29
g14
sg31
S'W22-21'
p431
sg33
g10
sg35
g10
sg37
S'@ATL'
p432
sg39
S'--'
p433
sg41
g102
sg43
g102
sss.