(dp0
S'2015'
p1
(dp2
S'11'
p3
(dp4
S'RecAvg'
p5
S'16.0'
p6
sS'FUM'
p7
S'1'
p8
sS'GS'
p9
S'0'
p10
sS'Lost'
p11
g10
sS'G'
p12
g8
sS'RecTD'
p13
g10
sS'Year'
p14
S'2015'
p15
sS'WK'
p16
S'11'
p17
sS'RushAvg'
p18
S'3.0'
p19
sS'Game Date'
p20
S'11/22'
p21
sS'RushTD'
p22
g10
sS'Player'
p23
S'Giovani Bernard'
p24
sS'RushAtt'
p25
S'6'
p26
sS'Result'
p27
S'L31-34'
p28
sS'RecYds'
p29
S'128'
p30
sS'Rec'
p31
S'8'
p32
sS'Opp'
p33
S'@ARI'
p34
sS'RecLng'
p35
S'41'
p36
sS'RushYds'
p37
S'18'
p38
sS'RushLng'
p39
S'10'
p40
ssS'10'
p41
(dp42
g5
S'8.6'
p43
sg7
S'--'
p44
sg9
g10
sg11
S'--'
p45
sg12
g8
sg13
g10
sg14
S'2015'
p46
sg16
S'10'
p47
sg18
S'4.5'
p48
sg20
S'11/16'
p49
sg22
g10
sg23
S'Giovani Bernard'
p50
sg25
g32
sg27
S'L6-10'
p51
sg29
S'43'
p52
sg31
S'5'
p53
sg33
S'HOU'
p54
sg35
S'15'
p55
sg37
S'36'
p56
sg39
S'9'
p57
ssS'13'
p58
(dp59
g5
S'9.0'
p60
sg7
S'--'
p61
sg9
g10
sg11
S'--'
p62
sg12
g8
sg13
g10
sg14
S'2015'
p63
sg16
S'13'
p64
sg18
S'5.2'
p65
sg20
S'12/06'
p66
sg22
g10
sg23
S'Giovani Bernard'
p67
sg25
g53
sg27
S'W37-3'
p68
sg29
g57
sg31
g8
sg33
S'@CLE'
p69
sg35
g57
sg37
S'26'
p70
sg39
g57
ssS'12'
p71
(dp72
g5
S'25.5'
p73
sg7
g8
sg9
g10
sg11
g10
sg12
g8
sg13
g10
sg14
S'2015'
p74
sg16
S'12'
p75
sg18
S'1.6'
p76
sg20
S'11/29'
p77
sg22
g10
sg23
S'Giovani Bernard'
p78
sg25
S'10'
p79
sg27
S'W31-7'
p80
sg29
S'51'
p81
sg31
S'2'
p82
sg33
S'STL'
p83
sg35
S'45'
p84
sg37
S'16'
p85
sg39
S'3'
p86
ssS'15'
p87
(dp88
g5
S'4.5'
p89
sg7
S'--'
p90
sg9
g8
sg11
S'--'
p91
sg12
g8
sg13
g10
sg14
S'2015'
p92
sg16
S'15'
p93
sg18
S'2.4'
p94
sg20
S'12/20'
p95
sg22
g10
sg23
S'Giovani Bernard'
p96
sg25
S'14'
p97
sg27
S'W24-14'
p98
sg29
S'18'
p99
sg31
S'4'
p100
sg33
S'@SF'
p101
sg35
S'14'
p102
sg37
S'33'
p103
sg39
g26
ssS'14'
p104
(dp105
g5
S'9.0'
p106
sg7
S'--'
p107
sg9
g10
sg11
S'--'
p108
sg12
g8
sg13
g10
sg14
S'2015'
p109
sg16
S'14'
p110
sg18
S'6.7'
p111
sg20
S'12/13'
p112
sg22
g10
sg23
S'Giovani Bernard'
p113
sg25
g26
sg27
S'L20-33'
p114
sg29
S'27'
p115
sg31
g86
sg33
S'PIT'
p116
sg35
S'11'
p117
sg37
S'40'
p118
sg39
S'18'
p119
ssS'17'
p120
(dp121
g5
S'12.0'
p122
sg7
S'--'
p123
sg9
g10
sg11
S'--'
p124
sg12
g8
sg13
g10
sg14
S'2015'
p125
sg16
S'17'
p126
sg18
S'6.0'
p127
sg20
S'01/03'
p128
sg22
g10
sg23
S'Giovani Bernard'
p129
sg25
g26
sg27
S'W24-16'
p130
sg29
S'12'
p131
sg31
g8
sg33
S'BAL'
p132
sg35
S'12'
p133
sg37
S'36'
p134
sg39
S'15'
p135
ssS'16'
p136
(dp137
g5
S'7.3'
p138
sg7
S'--'
p139
sg9
g10
sg11
S'--'
p140
sg12
g8
sg13
g10
sg14
S'2015'
p141
sg16
S'16'
p142
sg18
S'1.8'
p143
sg20
S'12/28'
p144
sg22
g10
sg23
S'Giovani Bernard'
p145
sg25
g32
sg27
S'L17-20'
p146
sg29
S'29'
p147
sg31
g100
sg33
S'@DEN'
p148
sg35
g57
sg37
S'14'
p149
sg39
g53
ssg8
(dp150
g5
S'4.2'
p151
sg7
S'--'
p152
sg9
g10
sg11
S'--'
p153
sg12
g8
sg13
g10
sg14
S'2015'
p154
sg16
g8
sg18
S'7.9'
p155
sg20
S'09/13'
p156
sg22
g10
sg23
S'Giovani Bernard'
p157
sg25
g32
sg27
S'W33-13'
p158
sg29
S'25'
p159
sg31
g26
sg33
S'@OAK'
p160
sg35
S'14'
p161
sg37
S'63'
p162
sg39
S'28'
p163
ssg86
(dp164
g5
S'11.3'
p165
sg7
S'--'
p166
sg9
g10
sg11
S'--'
p167
sg12
g8
sg13
g10
sg14
S'2015'
p168
sg16
g86
sg18
S'3.8'
p169
sg20
S'09/27'
p170
sg22
g10
sg23
S'Giovani Bernard'
p171
sg25
S'13'
p172
sg27
S'W28-24'
p173
sg29
S'34'
p174
sg31
g86
sg33
S'@BAL'
p175
sg35
S'23'
p176
sg37
S'49'
p177
sg39
S'7'
p178
ssg82
(dp179
g5
S'5.3'
p180
sg7
S'--'
p181
sg9
g10
sg11
S'--'
p182
sg12
g8
sg13
g10
sg14
S'2015'
p183
sg16
g82
sg18
S'6.1'
p184
sg20
S'09/20'
p185
sg22
g10
sg23
S'Giovani Bernard'
p186
sg25
S'20'
p187
sg27
S'W24-19'
p188
sg29
S'16'
p189
sg31
g86
sg33
S'SD'
p190
sg35
g57
sg37
S'123'
p191
sg39
S'26'
p192
ssg53
(dp193
g5
S'4.2'
p194
sg7
S'--'
p195
sg9
g10
sg11
S'--'
p196
sg12
g8
sg13
g10
sg14
S'2015'
p197
sg16
g53
sg18
S'5.3'
p198
sg20
S'10/11'
p199
sg22
g10
sg23
S'Giovani Bernard'
p200
sg25
S'15'
p201
sg27
S'W27-24'
p202
sg29
S'21'
p203
sg31
g53
sg33
S'SEA'
p204
sg35
S'10'
p205
sg37
S'80'
p206
sg39
S'13'
p207
ssg100
(dp208
g5
S'--'
p209
sg7
S'--'
p210
sg9
g10
sg11
S'--'
p211
sg12
g8
sg13
S'--'
p212
sg14
S'2015'
p213
sg16
g100
sg18
S'4.8'
p214
sg20
S'10/04'
p215
sg22
g8
sg23
S'Giovani Bernard'
p216
sg25
S'13'
p217
sg27
S'W36-21'
p218
sg29
S'--'
p219
sg31
S'--'
p220
sg33
S'KC'
p221
sg35
S'--'
p222
sg37
S'62'
p223
sg39
S'16'
p224
ssg178
(dp225
g5
S''
p226
sg7
g226
sg9
g226
sg11
g226
sg12
g226
sg13
g226
sg14
S'2015'
p227
sg16
g178
sg18
g226
sg20
S'Bye'
p228
sg22
g226
sg23
S'Giovani Bernard'
p229
sg25
g226
sg27
g226
sg29
g226
sg31
g226
sg33
g226
sg35
g226
sg37
g226
sg39
g226
ssg26
(dp230
g5
S'23.0'
p231
sg7
S'--'
p232
sg9
g10
sg11
S'--'
p233
sg12
g8
sg13
g10
sg14
S'2015'
p234
sg16
g26
sg18
S'6.3'
p235
sg20
S'10/18'
p236
sg22
g8
sg23
S'Giovani Bernard'
p237
sg25
g32
sg27
S'W34-21'
p238
sg29
S'23'
p239
sg31
g8
sg33
S'@BUF'
p240
sg35
S'23'
p241
sg37
S'50'
p242
sg39
S'17T'
p243
ssg57
(dp244
g5
S'14.0'
p245
sg7
S'--'
p246
sg9
g10
sg11
S'--'
p247
sg12
g8
sg13
g10
sg14
S'2015'
p248
sg16
g57
sg18
S'5.5'
p249
sg20
S'11/05'
p250
sg22
g10
sg23
S'Giovani Bernard'
p251
sg25
S'13'
p252
sg27
S'W31-10'
p253
sg29
S'14'
p254
sg31
g8
sg33
S'CLE'
p255
sg35
S'14'
p256
sg37
S'72'
p257
sg39
S'13'
p258
ssg32
(dp259
g5
S'11.0'
p260
sg7
S'--'
p261
sg9
g10
sg11
S'--'
p262
sg12
g8
sg13
g10
sg14
S'2015'
p263
sg16
g32
sg18
S'12.0'
p264
sg20
S'11/01'
p265
sg22
g10
sg23
S'Giovani Bernard'
p266
sg25
g8
sg27
S'W16-10'
p267
sg29
S'22'
p268
sg31
g82
sg33
S'@PIT'
p269
sg35
S'23'
p270
sg37
S'12'
p271
sg39
S'12'
p272
sssS'2014'
p273
(dp274
g3
(dp275
g5
S'--'
p276
sg7
S'--'
p277
sg9
g10
sg11
S'--'
p278
sg12
g10
sg13
S'--'
p279
sg14
S'2014'
p280
sg16
S'11'
p281
sg18
S'--'
p282
sg20
S'11/16'
p283
sg22
S'--'
p284
sg23
S'Giovani Bernard'
p285
sg25
S'--'
p286
sg27
S'W27-10'
p287
sg29
S'--'
p288
sg31
S'--'
p289
sg33
S'@NO'
p290
sg35
S'--'
p291
sg37
S'--'
p292
sg39
S'--'
p293
ssg41
(dp294
g5
S'--'
p295
sg7
S'--'
p296
sg9
g10
sg11
S'--'
p297
sg12
g10
sg13
S'--'
p298
sg14
S'2014'
p299
sg16
S'10'
p300
sg18
S'--'
p301
sg20
S'11/06'
p302
sg22
S'--'
p303
sg23
S'Giovani Bernard'
p304
sg25
S'--'
p305
sg27
S'L3-24'
p306
sg29
S'--'
p307
sg31
S'--'
p308
sg33
S'CLE'
p309
sg35
S'--'
p310
sg37
S'--'
p311
sg39
S'--'
p312
ssg58
(dp313
g5
S'4.0'
p314
sg7
S'--'
p315
sg9
g10
sg11
S'--'
p316
sg12
g8
sg13
g10
sg14
S'2014'
p317
sg16
S'13'
p318
sg18
S'4.9'
p319
sg20
S'11/30'
p320
sg22
g10
sg23
S'Giovani Bernard'
p321
sg25
S'10'
p322
sg27
S'W14-13'
p323
sg29
g100
sg31
g8
sg33
S'@TB'
p324
sg35
g100
sg37
S'49'
p325
sg39
S'15'
p326
ssg71
(dp327
g5
S'11.0'
p328
sg7
S'--'
p329
sg9
g8
sg11
S'--'
p330
sg12
g8
sg13
g10
sg14
S'2014'
p331
sg16
S'12'
p332
sg18
S'2.6'
p333
sg20
S'11/23'
p334
sg22
g10
sg23
S'Giovani Bernard'
p335
sg25
S'17'
p336
sg27
S'W22-13'
p337
sg29
S'22'
p338
sg31
g82
sg33
S'@HOU'
p339
sg35
S'13'
p340
sg37
S'45'
p341
sg39
S'19'
p342
ssg87
(dp343
g5
S'8.0'
p344
sg7
S'--'
p345
sg9
g10
sg11
S'--'
p346
sg12
g8
sg13
g10
sg14
S'2014'
p347
sg16
S'15'
p348
sg18
S'5.3'
p349
sg20
S'12/14'
p350
sg22
g10
sg23
S'Giovani Bernard'
p351
sg25
S'15'
p352
sg27
S'W30-0'
p353
sg29
S'24'
p354
sg31
g86
sg33
S'@CLE'
p355
sg35
S'14'
p356
sg37
S'79'
p357
sg39
S'14'
p358
ssg104
(dp359
g5
S'6.3'
p360
sg7
S'--'
p361
sg9
g8
sg11
S'--'
p362
sg12
g8
sg13
g10
sg14
S'2014'
p363
sg16
S'14'
p364
sg18
S'2.8'
p365
sg20
S'12/07'
p366
sg22
g10
sg23
S'Giovani Bernard'
p367
sg25
g26
sg27
S'L21-42'
p368
sg29
S'19'
p369
sg31
g86
sg33
S'PIT'
p370
sg35
g178
sg37
S'17'
p371
sg39
g100
ssg120
(dp372
g5
S'8.0'
p373
sg7
S'--'
p374
sg9
g10
sg11
S'--'
p375
sg12
g8
sg13
g8
sg14
S'2014'
p376
sg16
S'17'
p377
sg18
S'2.7'
p378
sg20
S'12/28'
p379
sg22
g10
sg23
S'Giovani Bernard'
p380
sg25
g86
sg27
S'L17-27'
p381
sg29
S'56'
p382
sg31
g178
sg33
S'@PIT'
p383
sg35
S'17T'
p384
sg37
g32
sg39
g178
ssg136
(dp385
g5
S'9.0'
p386
sg7
S'--'
p387
sg9
g10
sg11
S'--'
p388
sg12
g8
sg13
g8
sg14
S'2014'
p389
sg16
S'16'
p390
sg18
S'4.5'
p391
sg20
S'12/22'
p392
sg22
g10
sg23
S'Giovani Bernard'
p393
sg25
g32
sg27
S'W37-28'
p394
sg29
S'45'
p395
sg31
g53
sg33
S'DEN'
p396
sg35
S'22T'
p397
sg37
S'36'
p398
sg39
S'23'
p399
ssg8
(dp400
g5
S'10.3'
p401
sg7
S'--'
p402
sg9
g8
sg11
S'--'
p403
sg12
g8
sg13
g10
sg14
S'2014'
p404
sg16
g8
sg18
S'3.4'
p405
sg20
S'09/07'
p406
sg22
g10
sg23
S'Giovani Bernard'
p407
sg25
S'14'
p408
sg27
S'W23-16'
p409
sg29
S'62'
p410
sg31
g26
sg33
S'@BAL'
p411
sg35
S'32'
p412
sg37
S'48'
p413
sg39
S'16'
p414
ssg86
(dp415
g5
S'7.0'
p416
sg7
S'--'
p417
sg9
g8
sg11
S'--'
p418
sg12
g8
sg13
g10
sg14
S'2014'
p419
sg16
g86
sg18
S'3.4'
p420
sg20
S'09/21'
p421
sg22
g82
sg23
S'Giovani Bernard'
p422
sg25
S'14'
p423
sg27
S'W33-7'
p424
sg29
g178
sg31
g8
sg33
S'TEN'
p425
sg35
g178
sg37
S'47'
p426
sg39
S'12'
p427
ssg82
(dp428
g5
S'15.8'
p429
sg7
S'--'
p430
sg9
g8
sg11
S'--'
p431
sg12
g8
sg13
g10
sg14
S'2014'
p432
sg16
g82
sg18
S'3.3'
p433
sg20
S'09/14'
p434
sg22
g8
sg23
S'Giovani Bernard'
p435
sg25
S'27'
p436
sg27
S'W24-10'
p437
sg29
S'79'
p438
sg31
g53
sg33
S'ATL'
p439
sg35
S'46'
p440
sg37
S'90'
p441
sg39
S'12'
p442
ssg53
(dp443
g5
S'5.0'
p444
sg7
S'--'
p445
sg9
g8
sg11
S'--'
p446
sg12
g8
sg13
g10
sg14
S'2014'
p447
sg16
g53
sg18
S'4.8'
p448
sg20
S'10/05'
p449
sg22
g10
sg23
S'Giovani Bernard'
p450
sg25
S'13'
p451
sg27
S'L17-43'
p452
sg29
S'10'
p453
sg31
g82
sg33
S'@NE'
p454
sg35
g178
sg37
S'62'
p455
sg39
S'13'
p456
ssg100
(dp457
g5
g226
sg7
g226
sg9
g226
sg11
g226
sg12
g226
sg13
g226
sg14
S'2014'
p458
sg16
g100
sg18
g226
sg20
S'Bye'
p459
sg22
g226
sg23
S'Giovani Bernard'
p460
sg25
g226
sg27
g226
sg29
g226
sg31
g226
sg33
g226
sg35
g226
sg37
g226
sg39
g226
ssg178
(dp461
g5
S'-0.5'
p462
sg7
S'--'
p463
sg9
g8
sg11
S'--'
p464
sg12
g8
sg13
g10
sg14
S'2014'
p465
sg16
g178
sg18
S'2.4'
p466
sg20
S'10/19'
p467
sg22
g10
sg23
S'Giovani Bernard'
p468
sg25
g178
sg27
S'L0-27'
p469
sg29
S'-1'
p470
sg31
g82
sg33
S'@IND'
p471
sg35
g10
sg37
S'17'
p472
sg39
g26
ssg26
(dp473
g5
S'5.0'
p474
sg7
S'--'
p475
sg9
g8
sg11
S'--'
p476
sg12
g8
sg13
g10
sg14
S'2014'
p477
sg16
g26
sg18
S'7.6'
p478
sg20
S'10/12'
p479
sg22
g8
sg23
S'Giovani Bernard'
p480
sg25
S'18'
p481
sg27
S'T37-37'
p482
sg29
S'20'
p483
sg31
g100
sg33
S'CAR'
p484
sg35
S'11'
p485
sg37
S'137'
p486
sg39
S'89T'
p487
ssg57
(dp488
g5
S'--'
p489
sg7
S'--'
p490
sg9
g10
sg11
S'--'
p491
sg12
g10
sg13
S'--'
p492
sg14
S'2014'
p493
sg16
g57
sg18
S'--'
p494
sg20
S'11/02'
p495
sg22
S'--'
p496
sg23
S'Giovani Bernard'
p497
sg25
S'--'
p498
sg27
S'W33-23'
p499
sg29
S'--'
p500
sg31
S'--'
p501
sg33
S'JAC'
p502
sg35
S'--'
p503
sg37
S'--'
p504
sg39
S'--'
p505
ssg32
(dp506
g5
S'1.0'
p507
sg7
S'--'
p508
sg9
g8
sg11
S'--'
p509
sg12
g8
sg13
g10
sg14
S'2014'
p510
sg16
g32
sg18
S'2.8'
p511
sg20
S'10/26'
p512
sg22
g8
sg23
S'Giovani Bernard'
p513
sg25
S'16'
p514
sg27
S'W27-24'
p515
sg29
g82
sg31
g82
sg33
S'BAL'
p516
sg35
g82
sg37
S'45'
p517
sg39
g32
sssS'2013'
p518
(dp519
g3
(dp520
g5
S'10.3'
p521
sg7
S'--'
p522
sg9
g10
sg11
S'--'
p523
sg12
g8
sg13
g10
sg14
S'2013'
p524
sg16
S'11'
p525
sg18
S'4.5'
p526
sg20
S'11/17'
p527
sg22
g10
sg23
S'Giovani Bernard'
p528
sg25
S'10'
p529
sg27
S'W41-20'
p530
sg29
S'41'
p531
sg31
g100
sg33
S'CLE'
p532
sg35
S'25'
p533
sg37
S'45'
p534
sg39
S'13'
p535
ssg41
(dp536
g5
S'4.6'
p537
sg7
S'--'
p538
sg9
g10
sg11
S'--'
p539
sg12
g8
sg13
g8
sg14
S'2013'
p540
sg16
S'10'
p541
sg18
S'4.1'
p542
sg20
S'11/10'
p543
sg22
g10
sg23
S'Giovani Bernard'
p544
sg25
S'14'
p545
sg27
S'L17-20'
p546
sg29
S'37'
p547
sg31
g32
sg33
S'@BAL'
p548
sg35
S'18T'
p549
sg37
S'58'
p550
sg39
S'18'
p551
ssg58
(dp552
g5
S'9.0'
p553
sg7
S'--'
p554
sg9
g10
sg11
S'--'
p555
sg12
g8
sg13
g10
sg14
S'2013'
p556
sg16
S'13'
p557
sg18
S'4.1'
p558
sg20
S'12/01'
p559
sg22
g10
sg23
S'Giovani Bernard'
p560
sg25
S'14'
p561
sg27
S'W17-10'
p562
sg29
g57
sg31
g8
sg33
S'@SD'
p563
sg35
g57
sg37
S'57'
p564
sg39
S'19'
p565
ssg71
(dp566
g5
g226
sg7
g226
sg9
g226
sg11
g226
sg12
g226
sg13
g226
sg14
S'2013'
p567
sg16
S'12'
p568
sg18
g226
sg20
S'Bye'
p569
sg22
g226
sg23
S'Giovani Bernard'
p570
sg25
g226
sg27
g226
sg29
g226
sg31
g226
sg33
g226
sg35
g226
sg37
g226
sg39
g226
ssg87
(dp571
g5
S'6.5'
p572
sg7
S'--'
p573
sg9
g10
sg11
S'--'
p574
sg12
g8
sg13
g10
sg14
S'2013'
p575
sg16
S'15'
p576
sg18
S'2.5'
p577
sg20
S'12/15'
p578
sg22
g8
sg23
S'Giovani Bernard'
p579
sg25
S'13'
p580
sg27
S'L20-30'
p581
sg29
S'13'
p582
sg31
g82
sg33
S'@PIT'
p583
sg35
g32
sg37
S'33'
p584
sg39
g178
ssg104
(dp585
g5
S'12.3'
p586
sg7
S'--'
p587
sg9
g10
sg11
S'--'
p588
sg12
g8
sg13
g10
sg14
S'2013'
p589
sg16
S'14'
p590
sg18
S'8.3'
p591
sg20
S'12/08'
p592
sg22
g10
sg23
S'Giovani Bernard'
p593
sg25
S'12'
p594
sg27
S'W42-28'
p595
sg29
S'49'
p596
sg31
g100
sg33
S'IND'
p597
sg35
S'22'
p598
sg37
S'99'
p599
sg39
S'20'
p600
ssg120
(dp601
g5
S'10.2'
p602
sg7
S'--'
p603
sg9
g10
sg11
S'--'
p604
sg12
g8
sg13
g10
sg14
S'2013'
p605
sg16
S'17'
p606
sg18
S'1.7'
p607
sg20
S'12/29'
p608
sg22
g10
sg23
S'Giovani Bernard'
p609
sg25
S'13'
p610
sg27
S'W34-17'
p611
sg29
S'51'
p612
sg31
g53
sg33
S'BAL'
p613
sg35
S'27'
p614
sg37
S'22'
p615
sg39
g178
ssg136
(dp616
g5
S'23.5'
p617
sg7
S'--'
p618
sg9
g10
sg11
S'--'
p619
sg12
g8
sg13
g10
sg14
S'2013'
p620
sg16
S'16'
p621
sg18
S'1.5'
p622
sg20
S'12/22'
p623
sg22
g10
sg23
S'Giovani Bernard'
p624
sg25
S'13'
p625
sg27
S'W42-14'
p626
sg29
S'47'
p627
sg31
g82
sg33
S'MIN'
p628
sg35
S'41'
p629
sg37
S'20'
p630
sg39
g100
ssg8
(dp631
g5
S'8.0'
p632
sg7
S'--'
p633
sg9
g10
sg11
S'--'
p634
sg12
g8
sg13
g10
sg14
S'2013'
p635
sg16
g8
sg18
S'5.5'
p636
sg20
S'09/08'
p637
sg22
g10
sg23
S'Giovani Bernard'
p638
sg25
g100
sg27
S'L21-24'
p639
sg29
g32
sg31
g8
sg33
S'@CHI'
p640
sg35
g32
sg37
S'22'
p641
sg39
g178
ssg86
(dp642
g5
S'12.3'
p643
sg7
S'--'
p644
sg9
g10
sg11
S'--'
p645
sg12
g8
sg13
g10
sg14
S'2013'
p646
sg16
g86
sg18
S'5.0'
p647
sg20
S'09/22'
p648
sg22
g8
sg23
S'Giovani Bernard'
p649
sg25
S'10'
p650
sg27
S'W34-30'
p651
sg29
S'49'
p652
sg31
g100
sg33
S'GB'
p653
sg35
S'31'
p654
sg37
S'50'
p655
sg39
S'17'
p656
ssg82
(dp657
g5
S'27.0'
p658
sg7
S'--'
p659
sg9
g10
sg11
S'--'
p660
sg12
g8
sg13
g8
sg14
S'2013'
p661
sg16
g82
sg18
S'4.8'
p662
sg20
S'09/16'
p663
sg22
g8
sg23
S'Giovani Bernard'
p664
sg25
g32
sg27
S'W20-10'
p665
sg29
S'27'
p666
sg31
g8
sg33
S'PIT'
p667
sg35
S'27T'
p668
sg37
S'38'
p669
sg39
g32
ssg53
(dp670
g5
S'3.5'
p671
sg7
g8
sg9
g10
sg11
g8
sg12
g8
sg13
g10
sg14
S'2013'
p672
sg16
g53
sg18
S'4.8'
p673
sg20
S'10/06'
p674
sg22
g10
sg23
S'Giovani Bernard'
p675
sg25
S'13'
p676
sg27
S'W13-6'
p677
sg29
g178
sg31
g82
sg33
S'NE'
p678
sg35
g26
sg37
S'62'
p679
sg39
S'28'
p680
ssg100
(dp681
g5
S'6.3'
p682
sg7
S'--'
p683
sg9
g10
sg11
S'--'
p684
sg12
g8
sg13
g10
sg14
S'2013'
p685
sg16
g100
sg18
S'3.7'
p686
sg20
S'09/29'
p687
sg22
g10
sg23
S'Giovani Bernard'
p688
sg25
S'10'
p689
sg27
S'L6-17'
p690
sg29
S'38'
p691
sg31
g26
sg33
S'@CLE'
p692
sg35
S'10'
p693
sg37
S'37'
p694
sg39
g26
ssg178
(dp695
g5
S'6.4'
p696
sg7
S'--'
p697
sg9
g10
sg11
S'--'
p698
sg12
g8
sg13
g10
sg14
S'2013'
p699
sg16
g178
sg18
S'3.9'
p700
sg20
S'10/20'
p701
sg22
g10
sg23
S'Giovani Bernard'
p702
sg25
g178
sg27
S'W27-24'
p703
sg29
S'32'
p704
sg31
g53
sg33
S'@DET'
p705
sg35
g32
sg37
S'27'
p706
sg39
g178
ssg26
(dp707
g5
S'12.0'
p708
sg7
S'--'
p709
sg9
g10
sg11
S'--'
p710
sg12
g8
sg13
g8
sg14
S'2013'
p711
sg16
g26
sg18
S'1.9'
p712
sg20
S'10/13'
p713
sg22
g10
sg23
S'Giovani Bernard'
p714
sg25
S'15'
p715
sg27
S'W27-24'
p716
sg29
S'72'
p717
sg31
g26
sg33
S'@BUF'
p718
sg35
S'23'
p719
sg37
S'28'
p720
sg39
g178
ssg57
(dp721
g5
S'6.3'
p722
sg7
S'--'
p723
sg9
g10
sg11
S'--'
p724
sg12
g8
sg13
g10
sg14
S'2013'
p725
sg16
g57
sg18
S'8.8'
p726
sg20
S'10/31'
p727
sg22
g82
sg23
S'Giovani Bernard'
p728
sg25
g57
sg27
S'L20-22'
p729
sg29
S'25'
p730
sg31
g100
sg33
S'@MIA'
p731
sg35
S'10'
p732
sg37
S'79'
p733
sg39
S'35T'
p734
ssg32
(dp735
g5
S'9.0'
p736
sg7
S'--'
p737
sg9
g10
sg11
S'--'
p738
sg12
g8
sg13
g10
sg14
S'2013'
p739
sg16
g32
sg18
S'3.6'
p740
sg20
S'10/27'
p741
sg22
g10
sg23
S'Giovani Bernard'
p742
sg25
g53
sg27
S'W49-9'
p743
sg29
g57
sg31
g8
sg33
S'NYJ'
p744
sg35
g57
sg37
S'18'
p745
sg39
g53
sss.