(dp0
S'2015'
p1
(dp2
S'11'
p3
(dp4
S'RecAvg'
p5
S''
p6
sS'FUM'
p7
g6
sS'GS'
p8
g6
sS'Lost'
p9
g6
sS'G'
p10
g6
sS'RecTD'
p11
g6
sS'Year'
p12
S'2015'
p13
sS'WK'
p14
S'11'
p15
sS'RushAvg'
p16
g6
sS'Game Date'
p17
S'Bye'
p18
sS'RushTD'
p19
g6
sS'Player'
p20
S'Glenn Winston'
p21
sS'RushAtt'
p22
g6
sS'Result'
p23
g6
sS'RecYds'
p24
g6
sS'Rec'
p25
g6
sS'Opp'
p26
g6
sS'RecLng'
p27
g6
sS'RushYds'
p28
g6
sS'RushLng'
p29
g6
ssS'10'
p30
(dp31
g5
S'--'
p32
sg7
S'--'
p33
sg8
S'0'
p34
sg9
S'--'
p35
sg10
S'1'
p36
sg11
S'--'
p37
sg12
S'2015'
p38
sg14
S'10'
p39
sg16
S'--'
p40
sg17
S'11/15'
p41
sg19
S'--'
p42
sg20
S'Glenn Winston'
p43
sg22
S'--'
p44
sg23
S'L9-30'
p45
sg24
S'--'
p46
sg25
S'--'
p47
sg26
S'@PIT'
p48
sg27
S'--'
p49
sg28
S'--'
p50
sg29
S'--'
p51
ssS'13'
p52
(dp53
g5
S'--'
p54
sg7
S'--'
p55
sg8
g34
sg9
S'--'
p56
sg10
g34
sg11
S'--'
p57
sg12
S'2015'
p58
sg14
S'13'
p59
sg16
S'--'
p60
sg17
S'12/06'
p61
sg19
S'--'
p62
sg20
S'Glenn Winston'
p63
sg22
S'--'
p64
sg23
S'L3-37'
p65
sg24
S'--'
p66
sg25
S'--'
p67
sg26
S'CIN'
p68
sg27
S'--'
p69
sg28
S'--'
p70
sg29
S'--'
p71
ssS'12'
p72
(dp73
g5
S'--'
p74
sg7
S'--'
p75
sg8
g34
sg9
S'--'
p76
sg10
g36
sg11
S'--'
p77
sg12
S'2015'
p78
sg14
S'12'
p79
sg16
S'--'
p80
sg17
S'11/30'
p81
sg19
S'--'
p82
sg20
S'Glenn Winston'
p83
sg22
S'--'
p84
sg23
S'L27-33'
p85
sg24
S'--'
p86
sg25
S'--'
p87
sg26
S'BAL'
p88
sg27
S'--'
p89
sg28
S'--'
p90
sg29
S'--'
p91
ssS'15'
p92
(dp93
g5
S'--'
p94
sg7
S'--'
p95
sg8
g34
sg9
S'--'
p96
sg10
g34
sg11
S'--'
p97
sg12
S'2015'
p98
sg14
S'15'
p99
sg16
S'--'
p100
sg17
S'12/20'
p101
sg19
S'--'
p102
sg20
S'Glenn Winston'
p103
sg22
S'--'
p104
sg23
S'L13-30'
p105
sg24
S'--'
p106
sg25
S'--'
p107
sg26
S'@SEA'
p108
sg27
S'--'
p109
sg28
S'--'
p110
sg29
S'--'
p111
ssS'14'
p112
(dp113
g5
S'--'
p114
sg7
g36
sg8
g34
sg9
g36
sg10
g36
sg11
S'--'
p115
sg12
S'2015'
p116
sg14
S'14'
p117
sg16
S'-8.0'
p118
sg17
S'12/13'
p119
sg19
g34
sg20
S'Glenn Winston'
p120
sg22
g36
sg23
S'W24-10'
p121
sg24
S'--'
p122
sg25
S'--'
p123
sg26
S'SF'
p124
sg27
S'--'
p125
sg28
S'-8'
p126
sg29
S'-8'
p127
ssS'17'
p128
(dp129
g5
S'--'
p130
sg7
S'--'
p131
sg8
g34
sg9
S'--'
p132
sg10
g34
sg11
S'--'
p133
sg12
S'2015'
p134
sg14
S'17'
p135
sg16
S'--'
p136
sg17
S'01/03'
p137
sg19
S'--'
p138
sg20
S'Glenn Winston'
p139
sg22
S'--'
p140
sg23
S'L12-28'
p141
sg24
S'--'
p142
sg25
S'--'
p143
sg26
S'PIT'
p144
sg27
S'--'
p145
sg28
S'--'
p146
sg29
S'--'
p147
ssS'16'
p148
(dp149
g5
S'--'
p150
sg7
S'--'
p151
sg8
g34
sg9
S'--'
p152
sg10
g34
sg11
S'--'
p153
sg12
S'2015'
p154
sg14
S'16'
p155
sg16
S'--'
p156
sg17
S'12/27'
p157
sg19
S'--'
p158
sg20
S'Glenn Winston'
p159
sg22
S'--'
p160
sg23
S'L13-17'
p161
sg24
S'--'
p162
sg25
S'--'
p163
sg26
S'@KC'
p164
sg27
S'--'
p165
sg28
S'--'
p166
sg29
S'--'
p167
sssS'2014'
p168
(dp169
g3
(dp170
g5
S'--'
p171
sg7
S'--'
p172
sg8
g34
sg9
S'--'
p173
sg10
g34
sg11
S'--'
p174
sg12
S'2014'
p175
sg14
S'11'
p176
sg16
S'--'
p177
sg17
S'11/16'
p178
sg19
S'--'
p179
sg20
S'Glenn Winston'
p180
sg22
S'--'
p181
sg23
S'L7-23'
p182
sg24
S'--'
p183
sg25
S'--'
p184
sg26
S'HOU'
p185
sg27
S'--'
p186
sg28
S'--'
p187
sg29
S'--'
p188
ssg30
(dp189
g5
S'--'
p190
sg7
S'--'
p191
sg8
g34
sg9
S'--'
p192
sg10
g34
sg11
S'--'
p193
sg12
S'2014'
p194
sg14
S'10'
p195
sg16
S'--'
p196
sg17
S'11/06'
p197
sg19
S'--'
p198
sg20
S'Glenn Winston'
p199
sg22
S'--'
p200
sg23
S'W24-3'
p201
sg24
S'--'
p202
sg25
S'--'
p203
sg26
S'@CIN'
p204
sg27
S'--'
p205
sg28
S'--'
p206
sg29
S'--'
p207
ssg52
(dp208
g5
S'--'
p209
sg7
S'--'
p210
sg8
g34
sg9
S'--'
p211
sg10
g36
sg11
S'--'
p212
sg12
S'2014'
p213
sg14
S'13'
p214
sg16
S'--'
p215
sg17
S'11/30'
p216
sg19
S'--'
p217
sg20
S'Glenn Winston'
p218
sg22
S'--'
p219
sg23
S'L10-26'
p220
sg24
S'--'
p221
sg25
S'--'
p222
sg26
S'@BUF'
p223
sg27
S'--'
p224
sg28
S'--'
p225
sg29
S'--'
p226
ssg72
(dp227
g5
S'--'
p228
sg7
S'--'
p229
sg8
g34
sg9
S'--'
p230
sg10
g36
sg11
S'--'
p231
sg12
S'2014'
p232
sg14
S'12'
p233
sg16
S'--'
p234
sg17
S'11/23'
p235
sg19
S'--'
p236
sg20
S'Glenn Winston'
p237
sg22
S'--'
p238
sg23
S'W26-24'
p239
sg24
S'--'
p240
sg25
S'--'
p241
sg26
S'@ATL'
p242
sg27
S'--'
p243
sg28
S'--'
p244
sg29
S'--'
p245
ssg92
(dp246
g5
S'--'
p247
sg7
S'--'
p248
sg8
g34
sg9
S'--'
p249
sg10
g34
sg11
S'--'
p250
sg12
S'2014'
p251
sg14
S'15'
p252
sg16
S'--'
p253
sg17
S'12/14'
p254
sg19
S'--'
p255
sg20
S'Glenn Winston'
p256
sg22
S'--'
p257
sg23
S'L0-30'
p258
sg24
S'--'
p259
sg25
S'--'
p260
sg26
S'CIN'
p261
sg27
S'--'
p262
sg28
S'--'
p263
sg29
S'--'
p264
ssg112
(dp265
g5
S'--'
p266
sg7
S'--'
p267
sg8
g34
sg9
S'--'
p268
sg10
g34
sg11
S'--'
p269
sg12
S'2014'
p270
sg14
S'14'
p271
sg16
S'--'
p272
sg17
S'12/07'
p273
sg19
S'--'
p274
sg20
S'Glenn Winston'
p275
sg22
S'--'
p276
sg23
S'L24-25'
p277
sg24
S'--'
p278
sg25
S'--'
p279
sg26
S'IND'
p280
sg27
S'--'
p281
sg28
S'--'
p282
sg29
S'--'
p283
ssg128
(dp284
g5
S'--'
p285
sg7
S'--'
p286
sg8
g34
sg9
S'--'
p287
sg10
g34
sg11
S'--'
p288
sg12
S'2014'
p289
sg14
S'17'
p290
sg16
S'--'
p291
sg17
S'12/28'
p292
sg19
S'--'
p293
sg20
S'Glenn Winston'
p294
sg22
S'--'
p295
sg23
S'L10-20'
p296
sg24
S'--'
p297
sg25
S'--'
p298
sg26
S'@BAL'
p299
sg27
S'--'
p300
sg28
S'--'
p301
sg29
S'--'
p302
ssg148
(dp303
g5
S'--'
p304
sg7
S'--'
p305
sg8
g34
sg9
S'--'
p306
sg10
g34
sg11
S'--'
p307
sg12
S'2014'
p308
sg14
S'16'
p309
sg16
S'--'
p310
sg17
S'12/21'
p311
sg19
S'--'
p312
sg20
S'Glenn Winston'
p313
sg22
S'--'
p314
sg23
S'L13-17'
p315
sg24
S'--'
p316
sg25
S'--'
p317
sg26
S'@CAR'
p318
sg27
S'--'
p319
sg28
S'--'
p320
sg29
S'--'
p321
ssg36
(dp322
g5
S'--'
p323
sg7
S'--'
p324
sg8
g34
sg9
S'--'
p325
sg10
g34
sg11
S'--'
p326
sg12
S'2014'
p327
sg14
g36
sg16
S'--'
p328
sg17
S'09/07'
p329
sg19
S'--'
p330
sg20
S'Glenn Winston'
p331
sg22
S'--'
p332
sg23
S'L27-30'
p333
sg24
S'--'
p334
sg25
S'--'
p335
sg26
S'@PIT'
p336
sg27
S'--'
p337
sg28
S'--'
p338
sg29
S'--'
p339
ssS'3'
p340
(dp341
g5
S'--'
p342
sg7
S'--'
p343
sg8
g34
sg9
S'--'
p344
sg10
g36
sg11
S'--'
p345
sg12
S'2014'
p346
sg14
g340
sg16
S'--'
p347
sg17
S'09/21'
p348
sg19
S'--'
p349
sg20
S'Glenn Winston'
p350
sg22
S'--'
p351
sg23
S'L21-23'
p352
sg24
S'--'
p353
sg25
S'--'
p354
sg26
S'BAL'
p355
sg27
S'--'
p356
sg28
S'--'
p357
sg29
S'--'
p358
ssS'2'
p359
(dp360
g5
S'--'
p361
sg7
S'--'
p362
sg8
g34
sg9
S'--'
p363
sg10
g36
sg11
S'--'
p364
sg12
S'2014'
p365
sg14
g359
sg16
S'--'
p366
sg17
S'09/14'
p367
sg19
S'--'
p368
sg20
S'Glenn Winston'
p369
sg22
S'--'
p370
sg23
S'W26-24'
p371
sg24
S'--'
p372
sg25
S'--'
p373
sg26
S'NO'
p374
sg27
S'--'
p375
sg28
S'--'
p376
sg29
S'--'
p377
ssS'5'
p378
(dp379
g5
S'--'
p380
sg7
S'--'
p381
sg8
g34
sg9
S'--'
p382
sg10
g34
sg11
S'--'
p383
sg12
S'2014'
p384
sg14
g378
sg16
S'--'
p385
sg17
S'10/05'
p386
sg19
S'--'
p387
sg20
S'Glenn Winston'
p388
sg22
S'--'
p389
sg23
S'W29-28'
p390
sg24
S'--'
p391
sg25
S'--'
p392
sg26
S'@TEN'
p393
sg27
S'--'
p394
sg28
S'--'
p395
sg29
S'--'
p396
ssS'4'
p397
(dp398
g5
g6
sg7
g6
sg8
g6
sg9
g6
sg10
g6
sg11
g6
sg12
S'2014'
p399
sg14
g397
sg16
g6
sg17
S'Bye'
p400
sg19
g6
sg20
S'Glenn Winston'
p401
sg22
g6
sg23
g6
sg24
g6
sg25
g6
sg26
g6
sg27
g6
sg28
g6
sg29
g6
ssS'7'
p402
(dp403
g5
S'--'
p404
sg7
S'--'
p405
sg8
g34
sg9
S'--'
p406
sg10
g34
sg11
S'--'
p407
sg12
S'2014'
p408
sg14
g402
sg16
S'--'
p409
sg17
S'10/19'
p410
sg19
S'--'
p411
sg20
S'Glenn Winston'
p412
sg22
S'--'
p413
sg23
S'L6-24'
p414
sg24
S'--'
p415
sg25
S'--'
p416
sg26
S'@JAC'
p417
sg27
S'--'
p418
sg28
S'--'
p419
sg29
S'--'
p420
ssS'6'
p421
(dp422
g5
S'--'
p423
sg7
S'--'
p424
sg8
g34
sg9
S'--'
p425
sg10
g36
sg11
S'--'
p426
sg12
S'2014'
p427
sg14
g421
sg16
S'--'
p428
sg17
S'10/12'
p429
sg19
S'--'
p430
sg20
S'Glenn Winston'
p431
sg22
S'--'
p432
sg23
S'W31-10'
p433
sg24
S'--'
p434
sg25
S'--'
p435
sg26
S'PIT'
p436
sg27
S'--'
p437
sg28
S'--'
p438
sg29
S'--'
p439
ssS'9'
p440
(dp441
g5
S'--'
p442
sg7
S'--'
p443
sg8
g34
sg9
S'--'
p444
sg10
g34
sg11
S'--'
p445
sg12
S'2014'
p446
sg14
g440
sg16
S'--'
p447
sg17
S'11/02'
p448
sg19
S'--'
p449
sg20
S'Glenn Winston'
p450
sg22
S'--'
p451
sg23
S'W22-17'
p452
sg24
S'--'
p453
sg25
S'--'
p454
sg26
S'TB'
p455
sg27
S'--'
p456
sg28
S'--'
p457
sg29
S'--'
p458
ssS'8'
p459
(dp460
g5
S'--'
p461
sg7
S'--'
p462
sg8
g34
sg9
S'--'
p463
sg10
g34
sg11
S'--'
p464
sg12
S'2014'
p465
sg14
g459
sg16
S'--'
p466
sg17
S'10/26'
p467
sg19
S'--'
p468
sg20
S'Glenn Winston'
p469
sg22
S'--'
p470
sg23
S'W23-13'
p471
sg24
S'--'
p472
sg25
S'--'
p473
sg26
S'OAK'
p474
sg27
S'--'
p475
sg28
S'--'
p476
sg29
S'--'
p477
sss.