(dp0
S'2015'
p1
(dp2
S'11'
p3
(dp4
S'RecAvg'
p5
S''
p6
sS'FUM'
p7
g6
sS'GS'
p8
g6
sS'Lost'
p9
g6
sS'G'
p10
g6
sS'RecTD'
p11
g6
sS'Year'
p12
S'2015'
p13
sS'WK'
p14
S'11'
p15
sS'RushAvg'
p16
g6
sS'Game Date'
p17
S'Bye'
p18
sS'RushTD'
p19
g6
sS'Player'
p20
S'Isaiah Crowell'
p21
sS'RushAtt'
p22
g6
sS'Result'
p23
g6
sS'RecYds'
p24
g6
sS'Rec'
p25
g6
sS'Opp'
p26
g6
sS'RecLng'
p27
g6
sS'RushYds'
p28
g6
sS'RushLng'
p29
g6
ssS'10'
p30
(dp31
g5
S'4.0'
p32
sg7
S'--'
p33
sg8
S'1'
p34
sg9
S'--'
p35
sg10
g34
sg11
S'0'
p36
sg12
S'2015'
p37
sg14
S'10'
p38
sg16
S'-0.8'
p39
sg17
S'11/15'
p40
sg19
g36
sg20
S'Isaiah Crowell'
p41
sg22
S'6'
p42
sg23
S'L9-30'
p43
sg24
S'4'
p44
sg25
g34
sg26
S'@PIT'
p45
sg27
g44
sg28
S'-5'
p46
sg29
g44
ssS'13'
p47
(dp48
g5
S'2.0'
p49
sg7
S'--'
p50
sg8
g34
sg9
S'--'
p51
sg10
g34
sg11
g36
sg12
S'2015'
p52
sg14
S'13'
p53
sg16
S'5.6'
p54
sg17
S'12/06'
p55
sg19
g36
sg20
S'Isaiah Crowell'
p56
sg22
S'11'
p57
sg23
S'L3-37'
p58
sg24
S'2'
p59
sg25
g34
sg26
S'CIN'
p60
sg27
g59
sg28
S'62'
p61
sg29
S'23'
p62
ssS'12'
p63
(dp64
g5
S'--'
p65
sg7
S'--'
p66
sg8
g36
sg9
S'--'
p67
sg10
g34
sg11
S'--'
p68
sg12
S'2015'
p69
sg14
S'12'
p70
sg16
S'1.0'
p71
sg17
S'11/30'
p72
sg19
g36
sg20
S'Isaiah Crowell'
p73
sg22
S'7'
p74
sg23
S'L27-33'
p75
sg24
S'--'
p76
sg25
S'--'
p77
sg26
S'BAL'
p78
sg27
S'--'
p79
sg28
g74
sg29
g44
ssS'15'
p80
(dp81
g5
S'2.3'
p82
sg7
S'--'
p83
sg8
g36
sg9
S'--'
p84
sg10
g34
sg11
g36
sg12
S'2015'
p85
sg14
S'15'
p86
sg16
S'2.6'
p87
sg17
S'12/20'
p88
sg19
g36
sg20
S'Isaiah Crowell'
p89
sg22
S'9'
p90
sg23
S'L13-30'
p91
sg24
g74
sg25
S'3'
p92
sg26
S'@SEA'
p93
sg27
g42
sg28
S'23'
p94
sg29
g42
ssS'14'
p95
(dp96
g5
S'9.0'
p97
sg7
S'--'
p98
sg8
g36
sg9
S'--'
p99
sg10
g34
sg11
g36
sg12
S'2015'
p100
sg14
S'14'
p101
sg16
S'7.3'
p102
sg17
S'12/13'
p103
sg19
g59
sg20
S'Isaiah Crowell'
p104
sg22
S'20'
p105
sg23
S'W24-10'
p106
sg24
g90
sg25
g34
sg26
S'SF'
p107
sg27
g90
sg28
S'145'
p108
sg29
S'54'
p109
ssS'17'
p110
(dp111
g5
S'--'
p112
sg7
S'--'
p113
sg8
g34
sg9
S'--'
p114
sg10
g34
sg11
S'--'
p115
sg12
S'2015'
p116
sg14
S'17'
p117
sg16
S'3.5'
p118
sg17
S'01/03'
p119
sg19
g36
sg20
S'Isaiah Crowell'
p120
sg22
S'15'
p121
sg23
S'L12-28'
p122
sg24
S'--'
p123
sg25
S'--'
p124
sg26
S'PIT'
p125
sg27
S'--'
p126
sg28
S'53'
p127
sg29
S'15'
p128
ssS'16'
p129
(dp130
g5
S'--'
p131
sg7
S'--'
p132
sg8
g36
sg9
S'--'
p133
sg10
g34
sg11
S'--'
p134
sg12
S'2015'
p135
sg14
S'16'
p136
sg16
S'5.5'
p137
sg17
S'12/27'
p138
sg19
g34
sg20
S'Isaiah Crowell'
p139
sg22
S'16'
p140
sg23
S'L13-17'
p141
sg24
S'--'
p142
sg25
S'--'
p143
sg26
S'@KC'
p144
sg27
S'--'
p145
sg28
S'88'
p146
sg29
S'28'
p147
ssg34
(dp148
g5
S'6.5'
p149
sg7
S'--'
p150
sg8
g36
sg9
S'--'
p151
sg10
g34
sg11
g36
sg12
S'2015'
p152
sg14
g34
sg16
S'1.7'
p153
sg17
S'09/13'
p154
sg19
g36
sg20
S'Isaiah Crowell'
p155
sg22
S'12'
p156
sg23
S'L10-31'
p157
sg24
S'13'
p158
sg25
g59
sg26
S'@NYJ'
p159
sg27
S'8'
p160
sg28
S'20'
p161
sg29
g160
ssg92
(dp162
g5
S'--'
p163
sg7
S'--'
p164
sg8
g34
sg9
S'--'
p165
sg10
g34
sg11
S'--'
p166
sg12
S'2015'
p167
sg14
g92
sg16
S'3.6'
p168
sg17
S'09/27'
p169
sg19
g36
sg20
S'Isaiah Crowell'
p170
sg22
S'10'
p171
sg23
S'L20-27'
p172
sg24
S'--'
p173
sg25
S'--'
p174
sg26
S'OAK'
p175
sg27
S'--'
p176
sg28
S'36'
p177
sg29
S'17'
p178
ssg59
(dp179
g5
S'--'
p180
sg7
S'--'
p181
sg8
g34
sg9
S'--'
p182
sg10
g34
sg11
S'--'
p183
sg12
S'2015'
p184
sg14
g59
sg16
S'4.8'
p185
sg17
S'09/20'
p186
sg19
g34
sg20
S'Isaiah Crowell'
p187
sg22
S'15'
p188
sg23
S'W28-14'
p189
sg24
S'--'
p190
sg25
S'--'
p191
sg26
S'TEN'
p192
sg27
S'--'
p193
sg28
S'72'
p194
sg29
S'15'
p195
ssS'5'
p196
(dp197
g5
S'19.0'
p198
sg7
S'--'
p199
sg8
g36
sg9
S'--'
p200
sg10
g34
sg11
g34
sg12
S'2015'
p201
sg14
g196
sg16
S'3.8'
p202
sg17
S'10/11'
p203
sg19
g36
sg20
S'Isaiah Crowell'
p204
sg22
S'13'
p205
sg23
S'W33-30'
p206
sg24
S'38'
p207
sg25
g59
sg26
S'@BAL'
p208
sg27
S'22T'
p209
sg28
S'49'
p210
sg29
S'18'
p211
ssg44
(dp212
g5
S'20.7'
p213
sg7
S'--'
p214
sg8
g36
sg9
S'--'
p215
sg10
g34
sg11
g36
sg12
S'2015'
p216
sg14
g44
sg16
S'5.3'
p217
sg17
S'10/04'
p218
sg19
g36
sg20
S'Isaiah Crowell'
p219
sg22
S'12'
p220
sg23
S'L27-30'
p221
sg24
S'62'
p222
sg25
g92
sg26
S'@SD'
p223
sg27
S'53'
p224
sg28
S'63'
p225
sg29
S'32'
p226
ssg74
(dp227
g5
S'--'
p228
sg7
S'--'
p229
sg8
g34
sg9
S'--'
p230
sg10
g34
sg11
S'--'
p231
sg12
S'2015'
p232
sg14
g74
sg16
S'1.1'
p233
sg17
S'10/25'
p234
sg19
g36
sg20
S'Isaiah Crowell'
p235
sg22
g160
sg23
S'L6-24'
p236
sg24
S'--'
p237
sg25
S'--'
p238
sg26
S'@STL'
p239
sg27
S'--'
p240
sg28
g90
sg29
g160
ssg42
(dp241
g5
S'4.5'
p242
sg7
S'--'
p243
sg8
g34
sg9
S'--'
p244
sg10
g34
sg11
g36
sg12
S'2015'
p245
sg14
g42
sg16
S'2.9'
p246
sg17
S'10/18'
p247
sg19
g36
sg20
S'Isaiah Crowell'
p248
sg22
S'11'
p249
sg23
S'L23-26'
p250
sg24
g90
sg25
g59
sg26
S'DEN'
p251
sg27
S'11'
p252
sg28
S'32'
p253
sg29
S'12'
p254
ssg90
(dp255
g5
S'8.7'
p256
sg7
S'--'
p257
sg8
g34
sg9
S'--'
p258
sg10
g34
sg11
g36
sg12
S'2015'
p259
sg14
g90
sg16
S'3.8'
p260
sg17
S'11/05'
p261
sg19
g36
sg20
S'Isaiah Crowell'
p262
sg22
S'10'
p263
sg23
S'L10-31'
p264
sg24
S'26'
p265
sg25
g92
sg26
S'@CIN'
p266
sg27
S'15'
p267
sg28
S'38'
p268
sg29
S'13'
p269
ssg160
(dp270
g5
S'12.0'
p271
sg7
S'--'
p272
sg8
g34
sg9
S'--'
p273
sg10
g34
sg11
g36
sg12
S'2015'
p274
sg14
g160
sg16
S'1.4'
p275
sg17
S'11/01'
p276
sg19
g36
sg20
S'Isaiah Crowell'
p277
sg22
S'10'
p278
sg23
S'L20-34'
p279
sg24
S'12'
p280
sg25
g34
sg26
S'ARI'
p281
sg27
S'12'
p282
sg28
S'14'
p283
sg29
g160
sssS'2014'
p284
(dp285
g3
(dp286
g5
S'15.0'
p287
sg7
g34
sg8
g34
sg9
g34
sg10
g34
sg11
g36
sg12
S'2014'
p288
sg14
S'11'
p289
sg16
S'4.4'
p290
sg17
S'11/16'
p291
sg19
g36
sg20
S'Isaiah Crowell'
p292
sg22
S'14'
p293
sg23
S'L7-23'
p294
sg24
S'30'
p295
sg25
g59
sg26
S'HOU'
p296
sg27
S'19'
p297
sg28
S'61'
p298
sg29
S'35'
p299
ssg30
(dp300
g5
S'--'
p301
sg7
S'--'
p302
sg8
g36
sg9
S'--'
p303
sg10
g34
sg11
S'--'
p304
sg12
S'2014'
p305
sg14
S'10'
p306
sg16
S'3.4'
p307
sg17
S'11/06'
p308
sg19
g34
sg20
S'Isaiah Crowell'
p309
sg22
S'12'
p310
sg23
S'W24-3'
p311
sg24
S'--'
p312
sg25
S'--'
p313
sg26
S'@CIN'
p314
sg27
S'--'
p315
sg28
S'41'
p316
sg29
g42
ssg47
(dp317
g5
S'15.0'
p318
sg7
S'--'
p319
sg8
g34
sg9
S'--'
p320
sg10
g34
sg11
g36
sg12
S'2014'
p321
sg14
S'13'
p322
sg16
S'1.7'
p323
sg17
S'11/30'
p324
sg19
g36
sg20
S'Isaiah Crowell'
p325
sg22
S'17'
p326
sg23
S'L10-26'
p327
sg24
S'15'
p328
sg25
g34
sg26
S'@BUF'
p329
sg27
S'15'
p330
sg28
S'29'
p331
sg29
S'11'
p332
ssg63
(dp333
g5
S'--'
p334
sg7
S'--'
p335
sg8
g34
sg9
S'--'
p336
sg10
g34
sg11
S'--'
p337
sg12
S'2014'
p338
sg14
S'12'
p339
sg16
S'7.3'
p340
sg17
S'11/23'
p341
sg19
g59
sg20
S'Isaiah Crowell'
p342
sg22
S'12'
p343
sg23
S'W26-24'
p344
sg24
S'--'
p345
sg25
S'--'
p346
sg26
S'@ATL'
p347
sg27
S'--'
p348
sg28
S'88'
p349
sg29
S'26T'
p350
ssg80
(dp351
g5
S'5.0'
p352
sg7
S'--'
p353
sg8
g36
sg9
S'--'
p354
sg10
g34
sg11
g36
sg12
S'2014'
p355
sg14
S'15'
p356
sg16
S'2.4'
p357
sg17
S'12/14'
p358
sg19
g36
sg20
S'Isaiah Crowell'
p359
sg22
g74
sg23
S'L0-30'
p360
sg24
S'10'
p361
sg25
g59
sg26
S'CIN'
p362
sg27
g42
sg28
S'17'
p363
sg29
g90
ssg95
(dp364
g5
S'--'
p365
sg7
S'--'
p366
sg8
g36
sg9
S'--'
p367
sg10
g34
sg11
S'--'
p368
sg12
S'2014'
p369
sg14
S'14'
p370
sg16
S'3.9'
p371
sg17
S'12/07'
p372
sg19
g34
sg20
S'Isaiah Crowell'
p373
sg22
S'14'
p374
sg23
S'L24-25'
p375
sg24
S'--'
p376
sg25
S'--'
p377
sg26
S'IND'
p378
sg27
S'--'
p379
sg28
S'54'
p380
sg29
S'13'
p381
ssg110
(dp382
g5
S'16.0'
p383
sg7
S'--'
p384
sg8
g36
sg9
S'--'
p385
sg10
g34
sg11
g36
sg12
S'2014'
p386
sg14
S'17'
p387
sg16
S'1.5'
p388
sg17
S'12/28'
p389
sg19
g36
sg20
S'Isaiah Crowell'
p390
sg22
g44
sg23
S'L10-20'
p391
sg24
S'16'
p392
sg25
g34
sg26
S'@BAL'
p393
sg27
S'16'
p394
sg28
g42
sg29
g59
ssg129
(dp395
g5
S'--'
p396
sg7
S'--'
p397
sg8
g34
sg9
S'--'
p398
sg10
g34
sg11
S'--'
p399
sg12
S'2014'
p400
sg14
S'16'
p401
sg16
S'3.4'
p402
sg17
S'12/21'
p403
sg19
g36
sg20
S'Isaiah Crowell'
p404
sg22
S'16'
p405
sg23
S'L13-17'
p406
sg24
S'--'
p407
sg25
S'--'
p408
sg26
S'@CAR'
p409
sg27
S'--'
p410
sg28
S'55'
p411
sg29
S'26'
p412
ssg34
(dp413
g5
S'--'
p414
sg7
S'--'
p415
sg8
g36
sg9
S'--'
p416
sg10
g34
sg11
S'--'
p417
sg12
S'2014'
p418
sg14
g34
sg16
S'6.4'
p419
sg17
S'09/07'
p420
sg19
g59
sg20
S'Isaiah Crowell'
p421
sg22
g196
sg23
S'L27-30'
p422
sg24
S'--'
p423
sg25
S'--'
p424
sg26
S'@PIT'
p425
sg27
S'--'
p426
sg28
S'32'
p427
sg29
S'16'
p428
ssg92
(dp429
g5
S'--'
p430
sg7
S'--'
p431
sg8
g36
sg9
S'--'
p432
sg10
g34
sg11
S'--'
p433
sg12
S'2014'
p434
sg14
g92
sg16
S'5.0'
p435
sg17
S'09/21'
p436
sg19
g34
sg20
S'Isaiah Crowell'
p437
sg22
S'11'
p438
sg23
S'L21-23'
p439
sg24
S'--'
p440
sg25
S'--'
p441
sg26
S'BAL'
p442
sg27
S'--'
p443
sg28
S'55'
p444
sg29
S'22'
p445
ssg59
(dp446
g5
S'3.0'
p447
sg7
S'--'
p448
sg8
g36
sg9
S'--'
p449
sg10
g34
sg11
g36
sg12
S'2014'
p450
sg14
g59
sg16
S'4.9'
p451
sg17
S'09/14'
p452
sg19
g36
sg20
S'Isaiah Crowell'
p453
sg22
S'11'
p454
sg23
S'W26-24'
p455
sg24
g92
sg25
g34
sg26
S'NO'
p456
sg27
g92
sg28
S'54'
p457
sg29
S'17'
p458
ssg196
(dp459
g5
S'--'
p460
sg7
S'--'
p461
sg8
g36
sg9
S'--'
p462
sg10
g34
sg11
S'--'
p463
sg12
S'2014'
p464
sg14
g196
sg16
S'3.2'
p465
sg17
S'10/05'
p466
sg19
g36
sg20
S'Isaiah Crowell'
p467
sg22
g42
sg23
S'W29-28'
p468
sg24
S'--'
p469
sg25
S'--'
p470
sg26
S'@TEN'
p471
sg27
S'--'
p472
sg28
S'19'
p473
sg29
S'11'
p474
ssg44
(dp475
g5
g6
sg7
g6
sg8
g6
sg9
g6
sg10
g6
sg11
g6
sg12
S'2014'
p476
sg14
g44
sg16
g6
sg17
S'Bye'
p477
sg19
g6
sg20
S'Isaiah Crowell'
p478
sg22
g6
sg23
g6
sg24
g6
sg25
g6
sg26
g6
sg27
g6
sg28
g6
sg29
g6
ssg74
(dp479
g5
S'5.0'
p480
sg7
S'--'
p481
sg8
g36
sg9
S'--'
p482
sg10
g34
sg11
g36
sg12
S'2014'
p483
sg14
g74
sg16
S'2.6'
p484
sg17
S'10/19'
p485
sg19
g36
sg20
S'Isaiah Crowell'
p486
sg22
g74
sg23
S'L6-24'
p487
sg24
g196
sg25
g34
sg26
S'@JAC'
p488
sg27
g196
sg28
S'18'
p489
sg29
S'11'
p490
ssg42
(dp491
g5
S'--'
p492
sg7
g59
sg8
g36
sg9
g34
sg10
g34
sg11
S'--'
p493
sg12
S'2014'
p494
sg14
g42
sg16
S'7.0'
p495
sg17
S'10/12'
p496
sg19
g34
sg20
S'Isaiah Crowell'
p497
sg22
S'11'
p498
sg23
S'W31-10'
p499
sg24
S'--'
p500
sg25
S'--'
p501
sg26
S'PIT'
p502
sg27
S'--'
p503
sg28
S'77'
p504
sg29
S'24'
p505
ssg90
(dp506
g5
S'--'
p507
sg7
S'--'
p508
sg8
g36
sg9
S'--'
p509
sg10
g34
sg11
S'--'
p510
sg12
S'2014'
p511
sg14
g90
sg16
S'--'
p512
sg17
S'11/02'
p513
sg19
S'--'
p514
sg20
S'Isaiah Crowell'
p515
sg22
S'--'
p516
sg23
S'W22-17'
p517
sg24
S'--'
p518
sg25
S'--'
p519
sg26
S'TB'
p520
sg27
S'--'
p521
sg28
S'--'
p522
sg29
S'--'
p523
ssg160
(dp524
g5
S'8.0'
p525
sg7
S'--'
p526
sg8
g36
sg9
S'--'
p527
sg10
g34
sg11
g36
sg12
S'2014'
p528
sg14
g160
sg16
S'1.0'
p529
sg17
S'10/26'
p530
sg19
g36
sg20
S'Isaiah Crowell'
p531
sg22
g34
sg23
S'W23-13'
p532
sg24
g160
sg25
g34
sg26
S'OAK'
p533
sg27
g160
sg28
g34
sg29
g34
sss.