(dp0
S'2015'
p1
(dp2
S'11'
p3
(dp4
S'RecAvg'
p5
S'2.0'
p6
sS'FUM'
p7
S'--'
p8
sS'GS'
p9
S'0'
p10
sS'Lost'
p11
S'--'
p12
sS'G'
p13
S'1'
p14
sS'RecTD'
p15
g10
sS'Year'
p16
S'2015'
p17
sS'WK'
p18
S'11'
p19
sS'RushAvg'
p20
S'--'
p21
sS'Game Date'
p22
S'11/19'
p23
sS'RushTD'
p24
S'--'
p25
sS'Player'
p26
S'Jalston Fowler'
p27
sS'RushAtt'
p28
S'--'
p29
sS'Result'
p30
S'L13-19'
p31
sS'RecYds'
p32
S'2'
p33
sS'Rec'
p34
g14
sS'Opp'
p35
S'@JAC'
p36
sS'RecLng'
p37
g33
sS'RushYds'
p38
S'--'
p39
sS'RushLng'
p40
S'--'
p41
ssS'10'
p42
(dp43
g5
S'14.0'
p44
sg7
S'--'
p45
sg9
g10
sg11
S'--'
p46
sg13
g14
sg15
g10
sg16
S'2015'
p47
sg18
S'10'
p48
sg20
S'--'
p49
sg22
S'11/15'
p50
sg24
S'--'
p51
sg26
S'Jalston Fowler'
p52
sg28
S'--'
p53
sg30
S'L10-27'
p54
sg32
S'14'
p55
sg34
g14
sg35
S'CAR'
p56
sg37
S'14'
p57
sg38
S'--'
p58
sg40
S'--'
p59
ssS'13'
p60
(dp61
g5
S'--'
p62
sg7
S'--'
p63
sg9
g10
sg11
S'--'
p64
sg13
g14
sg15
S'--'
p65
sg16
S'2015'
p66
sg18
S'13'
p67
sg20
S'--'
p68
sg22
S'12/06'
p69
sg24
S'--'
p70
sg26
S'Jalston Fowler'
p71
sg28
S'--'
p72
sg30
S'W42-39'
p73
sg32
S'--'
p74
sg34
S'--'
p75
sg35
S'JAC'
p76
sg37
S'--'
p77
sg38
S'--'
p78
sg40
S'--'
p79
ssS'12'
p80
(dp81
g5
S'1.0'
p82
sg7
S'--'
p83
sg9
g10
sg11
S'--'
p84
sg13
g14
sg15
g14
sg16
S'2015'
p85
sg18
S'12'
p86
sg20
S'1.0'
p87
sg22
S'11/29'
p88
sg24
g10
sg26
S'Jalston Fowler'
p89
sg28
g14
sg30
S'L21-24'
p90
sg32
g14
sg34
g14
sg35
S'OAK'
p91
sg37
S'1T'
p92
sg38
g14
sg40
g14
ssS'15'
p93
(dp94
g5
S'8.0'
p95
sg7
S'--'
p96
sg9
g10
sg11
S'--'
p97
sg13
g14
sg15
g10
sg16
S'2015'
p98
sg18
S'15'
p99
sg20
S'0.0'
p100
sg22
S'12/20'
p101
sg24
g10
sg26
S'Jalston Fowler'
p102
sg28
g14
sg30
S'L16-33'
p103
sg32
S'8'
p104
sg34
g14
sg35
S'@NE'
p105
sg37
g104
sg38
g10
sg40
g10
ssS'14'
p106
(dp107
g5
S'--'
p108
sg7
S'--'
p109
sg9
g10
sg11
S'--'
p110
sg13
g14
sg15
S'--'
p111
sg16
S'2015'
p112
sg18
S'14'
p113
sg20
S'--'
p114
sg22
S'12/13'
p115
sg24
S'--'
p116
sg26
S'Jalston Fowler'
p117
sg28
S'--'
p118
sg30
S'L8-30'
p119
sg32
S'--'
p120
sg34
S'--'
p121
sg35
S'@NYJ'
p122
sg37
S'--'
p123
sg38
S'--'
p124
sg40
S'--'
p125
ssS'17'
p126
(dp127
g5
S'--'
p128
sg7
S'--'
p129
sg9
g10
sg11
S'--'
p130
sg13
g14
sg15
g10
sg16
S'2015'
p131
sg18
S'17'
p132
sg20
S'--'
p133
sg22
S'01/03'
p134
sg24
S'--'
p135
sg26
S'Jalston Fowler'
p136
sg28
S'--'
p137
sg30
S'L24-30'
p138
sg32
g10
sg34
g10
sg35
S'@IND'
p139
sg37
S'--'
p140
sg38
S'--'
p141
sg40
S'--'
p142
ssS'16'
p143
(dp144
g5
S'--'
p145
sg7
S'--'
p146
sg9
g10
sg11
S'--'
p147
sg13
g14
sg15
S'--'
p148
sg16
S'2015'
p149
sg18
S'16'
p150
sg20
S'--'
p151
sg22
S'12/27'
p152
sg24
S'--'
p153
sg26
S'Jalston Fowler'
p154
sg28
S'--'
p155
sg30
S'L6-34'
p156
sg32
S'--'
p157
sg34
S'--'
p158
sg35
S'HOU'
p159
sg37
S'--'
p160
sg38
S'--'
p161
sg40
S'--'
p162
ssg14
(dp163
g5
S'--'
p164
sg7
S'--'
p165
sg9
g10
sg11
S'--'
p166
sg13
g14
sg15
S'--'
p167
sg16
S'2015'
p168
sg18
g14
sg20
S'--'
p169
sg22
S'09/13'
p170
sg24
S'--'
p171
sg26
S'Jalston Fowler'
p172
sg28
S'--'
p173
sg30
S'W42-14'
p174
sg32
S'--'
p175
sg34
S'--'
p176
sg35
S'@TB'
p177
sg37
S'--'
p178
sg38
S'--'
p179
sg40
S'--'
p180
ssS'3'
p181
(dp182
g5
S'--'
p183
sg7
S'--'
p184
sg9
g10
sg11
S'--'
p185
sg13
g14
sg15
S'--'
p186
sg16
S'2015'
p187
sg18
g181
sg20
S'2.3'
p188
sg22
S'09/27'
p189
sg24
g14
sg26
S'Jalston Fowler'
p190
sg28
S'4'
p191
sg30
S'L33-35'
p192
sg32
S'--'
p193
sg34
S'--'
p194
sg35
S'IND'
p195
sg37
S'--'
p196
sg38
S'9'
p197
sg40
g181
ssg33
(dp198
g5
S'19.0'
p199
sg7
S'--'
p200
sg9
g10
sg11
S'--'
p201
sg13
g14
sg15
g10
sg16
S'2015'
p202
sg18
g33
sg20
S'3.0'
p203
sg22
S'09/20'
p204
sg24
g10
sg26
S'Jalston Fowler'
p205
sg28
g14
sg30
S'L14-28'
p206
sg32
S'19'
p207
sg34
g14
sg35
S'@CLE'
p208
sg37
S'19'
p209
sg38
g181
sg40
g181
ssS'5'
p210
(dp211
g5
S'--'
p212
sg7
S'--'
p213
sg9
g10
sg11
S'--'
p214
sg13
g14
sg15
S'--'
p215
sg16
S'2015'
p216
sg18
g210
sg20
S'--'
p217
sg22
S'10/11'
p218
sg24
S'--'
p219
sg26
S'Jalston Fowler'
p220
sg28
S'--'
p221
sg30
S'L13-14'
p222
sg32
S'--'
p223
sg34
S'--'
p224
sg35
S'BUF'
p225
sg37
S'--'
p226
sg38
S'--'
p227
sg40
S'--'
p228
ssg191
(dp229
g5
S''
p230
sg7
g230
sg9
g230
sg11
g230
sg13
g230
sg15
g230
sg16
S'2015'
p231
sg18
g191
sg20
g230
sg22
S'Bye'
p232
sg24
g230
sg26
S'Jalston Fowler'
p233
sg28
g230
sg30
g230
sg32
g230
sg34
g230
sg35
g230
sg37
g230
sg38
g230
sg40
g230
ssS'7'
p234
(dp235
g5
S'--'
p236
sg7
S'--'
p237
sg9
g10
sg11
S'--'
p238
sg13
g14
sg15
S'--'
p239
sg16
S'2015'
p240
sg18
g234
sg20
S'--'
p241
sg22
S'10/25'
p242
sg24
S'--'
p243
sg26
S'Jalston Fowler'
p244
sg28
S'--'
p245
sg30
S'L7-10'
p246
sg32
S'--'
p247
sg34
S'--'
p248
sg35
S'ATL'
p249
sg37
S'--'
p250
sg38
S'--'
p251
sg40
S'--'
p252
ssS'6'
p253
(dp254
g5
S'--'
p255
sg7
S'--'
p256
sg9
g10
sg11
S'--'
p257
sg13
g14
sg15
S'--'
p258
sg16
S'2015'
p259
sg18
g253
sg20
S'--'
p260
sg22
S'10/18'
p261
sg24
S'--'
p262
sg26
S'Jalston Fowler'
p263
sg28
S'--'
p264
sg30
S'L10-38'
p265
sg32
S'--'
p266
sg34
S'--'
p267
sg35
S'MIA'
p268
sg37
S'--'
p269
sg38
S'--'
p270
sg40
S'--'
p271
ssg197
(dp272
g5
S'--'
p273
sg7
S'--'
p274
sg9
g10
sg11
S'--'
p275
sg13
g14
sg15
S'--'
p276
sg16
S'2015'
p277
sg18
g197
sg20
S'--'
p278
sg22
S'11/08'
p279
sg24
S'--'
p280
sg26
S'Jalston Fowler'
p281
sg28
S'--'
p282
sg30
S'W34-28'
p283
sg32
S'--'
p284
sg34
S'--'
p285
sg35
S'@NO'
p286
sg37
S'--'
p287
sg38
S'--'
p288
sg40
S'--'
p289
ssg104
(dp290
g5
S'--'
p291
sg7
S'--'
p292
sg9
g10
sg11
S'--'
p293
sg13
g14
sg15
S'--'
p294
sg16
S'2015'
p295
sg18
g104
sg20
S'--'
p296
sg22
S'11/01'
p297
sg24
S'--'
p298
sg26
S'Jalston Fowler'
p299
sg28
S'--'
p300
sg30
S'L6-20'
p301
sg32
S'--'
p302
sg34
S'--'
p303
sg35
S'@HOU'
p304
sg37
S'--'
p305
sg38
S'--'
p306
sg40
S'--'
p307
sss.