(dp0
S'2015'
p1
(dp2
S'1'
p3
(dp4
S'RecAvg'
p5
S'9.2'
p6
sS'FUM'
p7
g3
sS'GS'
p8
g3
sS'Lost'
p9
S'0'
p10
sS'G'
p11
g3
sS'RecTD'
p12
g3
sS'Year'
p13
S'2015'
p14
sS'WK'
p15
g3
sS'RushAvg'
p16
S'3.6'
p17
sS'Game Date'
p18
S'09/13'
p19
sS'RushTD'
p20
g10
sS'Player'
p21
S'Jamaal Charles'
p22
sS'RushAtt'
p23
S'16'
p24
sS'Result'
p25
S'W27-20'
p26
sS'RecYds'
p27
S'46'
p28
sS'Rec'
p29
S'5'
p30
sS'Opp'
p31
S'@HOU'
p32
sS'RecLng'
p33
S'17'
p34
sS'RushYds'
p35
S'57'
p36
sS'RushLng'
p37
S'13'
p38
ssS'3'
p39
(dp40
g5
S'6.6'
p41
sg7
S'--'
p42
sg8
g3
sg9
S'--'
p43
sg11
g3
sg12
g10
sg13
S'2015'
p44
sg15
g39
sg16
S'4.5'
p45
sg18
S'09/28'
p46
sg20
g39
sg21
S'Jamaal Charles'
p47
sg23
S'11'
p48
sg25
S'L28-38'
p49
sg27
S'33'
p50
sg29
g30
sg31
S'@GB'
p51
sg33
S'13'
p52
sg35
S'49'
p53
sg37
S'13'
p54
ssS'2'
p55
(dp56
g5
S'0.5'
p57
sg7
g55
sg8
g3
sg9
g55
sg11
g3
sg12
g10
sg13
S'2015'
p58
sg15
g55
sg16
S'6.0'
p59
sg18
S'09/17'
p60
sg20
g3
sg21
S'Jamaal Charles'
p61
sg23
S'21'
p62
sg25
S'L24-31'
p63
sg27
g55
sg29
S'4'
p64
sg31
S'DEN'
p65
sg33
S'6'
p66
sg35
S'125'
p67
sg37
S'34T'
p68
ssg30
(dp69
g5
S'26.0'
p70
sg7
S'--'
p71
sg8
g3
sg9
S'--'
p72
sg11
g3
sg12
g10
sg13
S'2015'
p73
sg15
g30
sg16
S'4.8'
p74
sg18
S'10/11'
p75
sg20
g10
sg21
S'Jamaal Charles'
p76
sg23
S'12'
p77
sg25
S'L17-18'
p78
sg27
S'26'
p79
sg29
g3
sg31
S'CHI'
p80
sg33
S'26'
p81
sg35
S'58'
p82
sg37
S'15'
p83
ssg64
(dp84
g5
S'11.7'
p85
sg7
S'--'
p86
sg8
g3
sg9
S'--'
p87
sg11
g3
sg12
g10
sg13
S'2015'
p88
sg15
g64
sg16
S'6.8'
p89
sg18
S'10/04'
p90
sg20
g10
sg21
S'Jamaal Charles'
p91
sg23
S'11'
p92
sg25
S'L21-36'
p93
sg27
S'70'
p94
sg29
g66
sg31
S'@CIN'
p95
sg33
S'25'
p96
sg35
S'75'
p97
sg37
S'24'
p98
sssS'2014'
p99
(dp100
S'11'
p101
(dp102
g5
S'9.5'
p103
sg7
g3
sg8
g3
sg9
g3
sg11
g3
sg12
g10
sg13
S'2014'
p104
sg15
S'11'
p105
sg16
S'8.0'
p106
sg18
S'11/16'
p107
sg20
g55
sg21
S'Jamaal Charles'
p108
sg23
S'20'
p109
sg25
S'W24-20'
p110
sg27
S'19'
p111
sg29
g55
sg31
S'SEA'
p112
sg33
S'13'
p113
sg35
S'159'
p114
sg37
S'47'
p115
ssS'10'
p116
(dp117
g5
S'6.7'
p118
sg7
S'--'
p119
sg8
g3
sg9
S'--'
p120
sg11
g3
sg12
g10
sg13
S'2014'
p121
sg15
S'10'
p122
sg16
S'6.5'
p123
sg18
S'11/09'
p124
sg20
g3
sg21
S'Jamaal Charles'
p125
sg23
S'15'
p126
sg25
S'W17-13'
p127
sg27
S'20'
p128
sg29
g39
sg31
S'@BUF'
p129
sg33
S'12'
p130
sg35
S'98'
p131
sg37
S'39T'
p132
ssS'13'
p133
(dp134
g5
S'6.0'
p135
sg7
S'--'
p136
sg8
g3
sg9
S'--'
p137
sg11
g3
sg12
g3
sg13
S'2014'
p138
sg15
S'13'
p139
sg16
S'3.5'
p140
sg18
S'11/30'
p141
sg20
g10
sg21
S'Jamaal Charles'
p142
sg23
S'10'
p143
sg25
S'L16-29'
p144
sg27
S'24'
p145
sg29
g64
sg31
S'DEN'
p146
sg33
S'12T'
p147
sg35
S'35'
p148
sg37
S'11'
p149
ssS'12'
p150
(dp151
g5
S'10.5'
p152
sg7
g3
sg8
g3
sg9
g10
sg11
g3
sg12
g3
sg13
S'2014'
p153
sg15
S'12'
p154
sg16
S'4.2'
p155
sg18
S'11/20'
p156
sg20
g10
sg21
S'Jamaal Charles'
p157
sg23
S'19'
p158
sg25
S'L20-24'
p159
sg27
S'42'
p160
sg29
g64
sg31
S'@OAK'
p161
sg33
S'30T'
p162
sg35
S'80'
p163
sg37
S'11'
p164
ssS'15'
p165
(dp166
g5
S'1.0'
p167
sg7
S'--'
p168
sg8
g3
sg9
S'--'
p169
sg11
g3
sg12
g10
sg13
S'2014'
p170
sg15
S'15'
p171
sg16
S'4.3'
p172
sg18
S'12/14'
p173
sg20
g10
sg21
S'Jamaal Charles'
p174
sg23
S'12'
p175
sg25
S'W31-13'
p176
sg27
g3
sg29
g3
sg31
S'OAK'
p177
sg33
g3
sg35
S'52'
p178
sg37
S'15'
p179
ssS'14'
p180
(dp181
g5
S'10.0'
p182
sg7
S'--'
p183
sg8
g3
sg9
S'--'
p184
sg11
g3
sg12
g3
sg13
S'2014'
p185
sg15
S'14'
p186
sg16
S'9.1'
p187
sg18
S'12/07'
p188
sg20
g3
sg21
S'Jamaal Charles'
p189
sg23
S'10'
p190
sg25
S'L14-17'
p191
sg27
S'20'
p192
sg29
g55
sg31
S'@ARI'
p193
sg33
S'18T'
p194
sg35
S'91'
p195
sg37
S'63T'
p196
ssS'17'
p197
(dp198
g5
S'4.0'
p199
sg7
S'--'
p200
sg8
g3
sg9
S'--'
p201
sg11
g3
sg12
g10
sg13
S'2014'
p202
sg15
S'17'
p203
sg16
S'4.2'
p204
sg18
S'12/28'
p205
sg20
g10
sg21
S'Jamaal Charles'
p206
sg23
S'13'
p207
sg25
S'W19-7'
p208
sg27
S'8'
p209
sg29
g55
sg31
S'SD'
p210
sg33
g30
sg35
S'54'
p211
sg37
S'12'
p212
ssS'16'
p213
(dp214
g5
S'9.6'
p215
sg7
g3
sg8
g3
sg9
g3
sg11
g3
sg12
g10
sg13
S'2014'
p216
sg15
S'16'
p217
sg16
S'3.2'
p218
sg18
S'12/21'
p219
sg20
g10
sg21
S'Jamaal Charles'
p220
sg23
S'9'
p221
sg25
S'L12-20'
p222
sg27
S'48'
p223
sg29
g30
sg31
S'@PIT'
p224
sg33
S'16'
p225
sg35
S'29'
p226
sg37
S'10'
p227
ssg3
(dp228
g5
S'3.8'
p229
sg7
S'--'
p230
sg8
g3
sg9
S'--'
p231
sg11
g3
sg12
g10
sg13
S'2014'
p232
sg15
g3
sg16
S'2.7'
p233
sg18
S'09/07'
p234
sg20
g10
sg21
S'Jamaal Charles'
p235
sg23
S'7'
p236
sg25
S'L10-26'
p237
sg27
S'15'
p238
sg29
g64
sg31
S'TEN'
p239
sg33
S'14'
p240
sg35
S'19'
p241
sg37
g66
ssg39
(dp242
g5
S'--'
p243
sg7
S'--'
p244
sg8
g10
sg9
S'--'
p245
sg11
g10
sg12
S'--'
p246
sg13
S'2014'
p247
sg15
g39
sg16
S'--'
p248
sg18
S'09/21'
p249
sg20
S'--'
p250
sg21
S'Jamaal Charles'
p251
sg23
S'--'
p252
sg25
S'W34-15'
p253
sg27
S'--'
p254
sg29
S'--'
p255
sg31
S'@MIA'
p256
sg33
S'--'
p257
sg35
S'--'
p258
sg37
S'--'
p259
ssg55
(dp260
g5
S'8.0'
p261
sg7
S'--'
p262
sg8
g3
sg9
S'--'
p263
sg11
g3
sg12
g10
sg13
S'2014'
p264
sg15
g55
sg16
S'2.0'
p265
sg18
S'09/14'
p266
sg20
g10
sg21
S'Jamaal Charles'
p267
sg23
g55
sg25
S'L17-24'
p268
sg27
g209
sg29
g3
sg31
S'@DEN'
p269
sg33
g209
sg35
g64
sg37
g55
ssg30
(dp270
g5
S'4.0'
p271
sg7
g3
sg8
g3
sg9
g10
sg11
g3
sg12
g10
sg13
S'2014'
p272
sg15
g30
sg16
S'5.3'
p273
sg18
S'10/05'
p274
sg20
g10
sg21
S'Jamaal Charles'
p275
sg23
S'15'
p276
sg25
S'L17-22'
p277
sg27
g64
sg29
g3
sg31
S'@SF'
p278
sg33
g64
sg35
S'80'
p279
sg37
S'26'
p280
ssg64
(dp281
g5
S'5.3'
p282
sg7
S'--'
p283
sg8
g3
sg9
S'--'
p284
sg11
g3
sg12
g55
sg13
S'2014'
p285
sg15
g64
sg16
S'5.1'
p286
sg18
S'09/29'
p287
sg20
g3
sg21
S'Jamaal Charles'
p288
sg23
S'18'
p289
sg25
S'W41-14'
p290
sg27
S'16'
p291
sg29
g39
sg31
S'NE'
p292
sg33
S'8T'
p293
sg35
S'92'
p294
sg37
S'17'
p295
ssg236
(dp296
g5
S'6.0'
p297
sg7
S'--'
p298
sg8
g3
sg9
S'--'
p299
sg11
g3
sg12
g10
sg13
S'2014'
p300
sg15
g236
sg16
S'4.3'
p301
sg18
S'10/19'
p302
sg20
g3
sg21
S'Jamaal Charles'
p303
sg23
S'22'
p304
sg25
S'W23-20'
p305
sg27
S'12'
p306
sg29
g55
sg31
S'@SD'
p307
sg33
g209
sg35
S'95'
p308
sg37
S'16T'
p309
ssg66
(dp310
g5
S''
p311
sg7
g311
sg8
g311
sg9
g311
sg11
g311
sg12
g311
sg13
S'2014'
p312
sg15
g66
sg16
g311
sg18
S'Bye'
p313
sg20
g311
sg21
S'Jamaal Charles'
p314
sg23
g311
sg25
g311
sg27
g311
sg29
g311
sg31
g311
sg33
g311
sg35
g311
sg37
g311
ssg221
(dp315
g5
S'5.0'
p316
sg7
S'--'
p317
sg8
g3
sg9
S'--'
p318
sg11
g3
sg12
g10
sg13
S'2014'
p319
sg15
g221
sg16
S'3.9'
p320
sg18
S'11/02'
p321
sg20
g3
sg21
S'Jamaal Charles'
p322
sg23
S'20'
p323
sg25
S'W24-10'
p324
sg27
S'10'
p325
sg29
g55
sg31
S'NYJ'
p326
sg33
S'12'
p327
sg35
S'78'
p328
sg37
S'11'
p329
ssg209
(dp330
g5
S'11.0'
p331
sg7
g3
sg8
g3
sg9
g3
sg11
g3
sg12
g10
sg13
S'2014'
p332
sg15
g209
sg16
S'4.8'
p333
sg18
S'10/26'
p334
sg20
g55
sg21
S'Jamaal Charles'
p335
sg23
S'14'
p336
sg25
S'W34-7'
p337
sg27
S'44'
p338
sg29
g64
sg31
S'STL'
p339
sg33
S'30'
p340
sg35
S'67'
p341
sg37
S'36T'
p342
sssS'2011'
p343
(dp344
g3
(dp345
g5
S'1.8'
p346
sg7
g3
sg8
g3
sg9
g3
sg11
g3
sg12
g3
sg13
S'2011'
p347
sg15
g3
sg16
S'5.6'
p348
sg18
S'09/11'
p349
sg20
g10
sg21
S'Jamaal Charles'
p350
sg23
S'10'
p351
sg25
S'L7-41'
p352
sg27
g221
sg29
g30
sg31
S'BUF'
p353
sg33
g221
sg35
S'56'
p354
sg37
S'22'
p355
ssg55
(dp356
g5
S'--'
p357
sg7
S'--'
p358
sg8
g10
sg9
S'--'
p359
sg11
g3
sg12
S'--'
p360
sg13
S'2011'
p361
sg15
g55
sg16
S'13.5'
p362
sg18
S'09/18'
p363
sg20
g10
sg21
S'Jamaal Charles'
p364
sg23
g55
sg25
S'L3-48'
p365
sg27
S'--'
p366
sg29
S'--'
p367
sg31
S'@DET'
p368
sg33
S'--'
p369
sg35
S'27'
p370
sg37
S'24'
p371
sssS'2010'
p372
(dp373
g101
(dp374
g5
S'9.5'
p375
sg7
S'--'
p376
sg8
g10
sg9
S'--'
p377
sg11
g3
sg12
g10
sg13
S'2010'
p378
sg15
S'11'
p379
sg16
S'7.3'
p380
sg18
S'11/21'
p381
sg20
g10
sg21
S'Jamaal Charles'
p382
sg23
S'12'
p383
sg25
S'W31-13'
p384
sg27
S'38'
p385
sg29
g64
sg31
S'ARI'
p386
sg33
S'25'
p387
sg35
S'88'
p388
sg37
S'39'
p389
ssg116
(dp390
g5
S'16.0'
p391
sg7
g3
sg8
g3
sg9
g10
sg11
g3
sg12
g3
sg13
S'2010'
p392
sg15
S'10'
p393
sg16
S'2.9'
p394
sg18
S'11/14'
p395
sg20
g10
sg21
S'Jamaal Charles'
p396
sg23
S'14'
p397
sg25
S'L29-49'
p398
sg27
S'80'
p399
sg29
g30
sg31
S'@DEN'
p400
sg33
S'24'
p401
sg35
S'41'
p402
sg37
g236
ssg133
(dp403
g5
S'10.0'
p404
sg7
S'--'
p405
sg8
g3
sg9
S'--'
p406
sg11
g3
sg12
g10
sg13
S'2010'
p407
sg15
S'13'
p408
sg16
S'5.5'
p409
sg18
S'12/05'
p410
sg20
g10
sg21
S'Jamaal Charles'
p411
sg23
S'21'
p412
sg25
S'W10-6'
p413
sg27
S'20'
p414
sg29
g55
sg31
S'DEN'
p415
sg33
S'10'
p416
sg35
S'116'
p417
sg37
S'16'
p418
ssg150
(dp419
g5
S'1.5'
p420
sg7
g3
sg8
g10
sg9
g3
sg11
g3
sg12
g10
sg13
S'2010'
p421
sg15
S'12'
p422
sg16
S'7.9'
p423
sg18
S'11/28'
p424
sg20
g3
sg21
S'Jamaal Charles'
p425
sg23
S'22'
p426
sg25
S'W42-24'
p427
sg27
g39
sg29
g55
sg31
S'@SEA'
p428
sg33
g209
sg35
S'173'
p429
sg37
S'29'
p430
ssg165
(dp431
g5
S'9.0'
p432
sg7
S'--'
p433
sg8
g3
sg9
S'--'
p434
sg11
g3
sg12
g10
sg13
S'2010'
p435
sg15
S'15'
p436
sg16
S'11.5'
p437
sg18
S'12/19'
p438
sg20
g3
sg21
S'Jamaal Charles'
p439
sg23
S'11'
p440
sg25
S'W27-13'
p441
sg27
S'27'
p442
sg29
g39
sg31
S'@STL'
p443
sg33
S'14'
p444
sg35
S'126'
p445
sg37
S'80'
p446
ssg180
(dp447
g5
S'4.5'
p448
sg7
S'--'
p449
sg8
g10
sg9
S'--'
p450
sg11
g3
sg12
g10
sg13
S'2010'
p451
sg15
S'14'
p452
sg16
S'4.0'
p453
sg18
S'12/12'
p454
sg20
g10
sg21
S'Jamaal Charles'
p455
sg23
S'10'
p456
sg25
S'L0-31'
p457
sg27
g221
sg29
g55
sg31
S'@SD'
p458
sg33
g30
sg35
S'40'
p459
sg37
S'10'
p460
ssg197
(dp461
g5
S'6.5'
p462
sg7
S'--'
p463
sg8
g10
sg9
S'--'
p464
sg11
g3
sg12
g10
sg13
S'2010'
p465
sg15
S'17'
p466
sg16
S'6.2'
p467
sg18
S'01/02'
p468
sg20
g3
sg21
S'Jamaal Charles'
p469
sg23
S'14'
p470
sg25
S'L10-31'
p471
sg27
S'13'
p472
sg29
g55
sg31
S'OAK'
p473
sg33
g209
sg35
S'87'
p474
sg37
S'47'
p475
ssg213
(dp476
g5
S'10.0'
p477
sg7
S'--'
p478
sg8
g10
sg9
S'--'
p479
sg11
g3
sg12
g55
sg13
S'2010'
p480
sg15
S'16'
p481
sg16
S'5.9'
p482
sg18
S'12/26'
p483
sg20
g10
sg21
S'Jamaal Charles'
p484
sg23
S'13'
p485
sg25
S'W34-14'
p486
sg27
S'40'
p487
sg29
g64
sg31
S'TEN'
p488
sg33
S'14T'
p489
sg35
S'77'
p490
sg37
S'17'
p491
ssg3
(dp492
g5
S'8.0'
p493
sg7
S'--'
p494
sg8
g10
sg9
S'--'
p495
sg11
g3
sg12
g10
sg13
S'2010'
p496
sg15
g3
sg16
S'8.4'
p497
sg18
S'09/13'
p498
sg20
g3
sg21
S'Jamaal Charles'
p499
sg23
S'11'
p500
sg25
S'W21-14'
p501
sg27
g209
sg29
g3
sg31
S'SD'
p502
sg33
g209
sg35
S'92'
p503
sg37
S'56T'
p504
ssg39
(dp505
g5
S'19.0'
p506
sg7
S'--'
p507
sg8
g3
sg9
S'--'
p508
sg11
g3
sg12
g10
sg13
S'2010'
p509
sg15
g39
sg16
S'8.1'
p510
sg18
S'09/26'
p511
sg20
g10
sg21
S'Jamaal Charles'
p512
sg23
S'12'
p513
sg25
S'W31-10'
p514
sg27
S'57'
p515
sg29
g39
sg31
S'SF'
p516
sg33
S'22'
p517
sg35
S'97'
p518
sg37
S'24'
p519
ssg55
(dp520
g5
S'27.0'
p521
sg7
S'--'
p522
sg8
g10
sg9
S'--'
p523
sg11
g3
sg12
g10
sg13
S'2010'
p524
sg15
g55
sg16
S'4.5'
p525
sg18
S'09/19'
p526
sg20
g10
sg21
S'Jamaal Charles'
p527
sg23
S'11'
p528
sg25
S'W16-14'
p529
sg27
S'27'
p530
sg29
g3
sg31
S'@CLE'
p531
sg33
S'27'
p532
sg35
S'49'
p533
sg37
S'20'
p534
ssg30
(dp535
g5
S'4.7'
p536
sg7
g3
sg8
g10
sg9
g3
sg11
g3
sg12
g10
sg13
S'2010'
p537
sg15
g30
sg16
S'5.4'
p538
sg18
S'10/10'
p539
sg20
g10
sg21
S'Jamaal Charles'
p540
sg23
S'16'
p541
sg25
S'L9-19'
p542
sg27
S'14'
p543
sg29
g39
sg31
S'@IND'
p544
sg33
g66
sg35
S'87'
p545
sg37
S'14'
p546
ssg64
(dp547
g5
g311
sg7
g311
sg8
g311
sg9
g311
sg11
g311
sg12
g311
sg13
S'2010'
p548
sg15
g64
sg16
g311
sg18
S'Bye'
p549
sg20
g311
sg21
S'Jamaal Charles'
p550
sg23
g311
sg25
g311
sg27
g311
sg29
g311
sg31
g311
sg33
g311
sg35
g311
sg37
g311
ssg236
(dp551
g5
S'--'
p552
sg7
S'--'
p553
sg8
g10
sg9
S'--'
p554
sg11
g3
sg12
S'--'
p555
sg13
S'2010'
p556
sg15
g236
sg16
S'4.7'
p557
sg18
S'10/24'
p558
sg20
g3
sg21
S'Jamaal Charles'
p559
sg23
S'15'
p560
sg25
S'W42-20'
p561
sg27
S'--'
p562
sg29
S'--'
p563
sg31
S'JAC'
p564
sg33
S'--'
p565
sg35
S'71'
p566
sg37
S'18'
p567
ssg66
(dp568
g5
S'6.0'
p569
sg7
S'--'
p570
sg8
g3
sg9
S'--'
p571
sg11
g3
sg12
g10
sg13
S'2010'
p572
sg15
g66
sg16
S'5.8'
p573
sg18
S'10/17'
p574
sg20
g10
sg21
S'Jamaal Charles'
p575
sg23
S'16'
p576
sg25
S'L31-35'
p577
sg27
S'24'
p578
sg29
g64
sg31
S'@HOU'
p579
sg33
S'23'
p580
sg35
S'93'
p581
sg37
S'16'
p582
ssg221
(dp583
g5
S'9.4'
p584
sg7
S'--'
p585
sg8
g10
sg9
S'--'
p586
sg11
g3
sg12
g10
sg13
S'2010'
p587
sg15
g221
sg16
S'5.3'
p588
sg18
S'11/07'
p589
sg20
g10
sg21
S'Jamaal Charles'
p590
sg23
S'10'
p591
sg25
S'L20-23'
p592
sg27
S'47'
p593
sg29
g30
sg31
S'@OAK'
p594
sg33
S'14'
p595
sg35
S'53'
p596
sg37
S'13'
p597
ssg209
(dp598
g5
S'15.3'
p599
sg7
S'--'
p600
sg8
g3
sg9
S'--'
p601
sg11
g3
sg12
g10
sg13
S'2010'
p602
sg15
g209
sg16
S'8.0'
p603
sg18
S'10/31'
p604
sg20
g10
sg21
S'Jamaal Charles'
p605
sg23
S'22'
p606
sg25
S'W13-10'
p607
sg27
S'61'
p608
sg29
g64
sg31
S'BUF'
p609
sg33
S'31'
p610
sg35
S'177'
p611
sg37
S'32'
p612
sssS'2013'
p613
(dp614
g101
(dp615
g5
S'-3.0'
p616
sg7
S'--'
p617
sg8
g3
sg9
S'--'
p618
sg11
g3
sg12
g10
sg13
S'2013'
p619
sg15
S'11'
p620
sg16
S'4.9'
p621
sg18
S'11/17'
p622
sg20
g10
sg21
S'Jamaal Charles'
p623
sg23
S'16'
p624
sg25
S'L17-27'
p625
sg27
S'-6'
p626
sg29
g55
sg31
S'@DEN'
p627
sg33
S'-1'
p628
sg35
S'78'
p629
sg37
S'35'
p630
ssg116
(dp631
g5
g311
sg7
g311
sg8
g311
sg9
g311
sg11
g311
sg12
g311
sg13
S'2013'
p632
sg15
S'10'
p633
sg16
g311
sg18
S'Bye'
p634
sg20
g311
sg21
S'Jamaal Charles'
p635
sg23
g311
sg25
g311
sg27
g311
sg29
g311
sg31
g311
sg33
g311
sg35
g311
sg37
g311
ssg133
(dp636
g5
S'13.5'
p637
sg7
g3
sg8
g3
sg9
g10
sg11
g3
sg12
g10
sg13
S'2013'
p638
sg15
S'13'
p639
sg16
S'4.9'
p640
sg18
S'12/01'
p641
sg20
g3
sg21
S'Jamaal Charles'
p642
sg23
S'19'
p643
sg25
S'L28-35'
p644
sg27
S'27'
p645
sg29
g55
sg31
S'DEN'
p646
sg33
S'16'
p647
sg35
S'93'
p648
sg37
S'15'
p649
ssg150
(dp650
g5
S'10.5'
p651
sg7
S'--'
p652
sg8
g3
sg9
S'--'
p653
sg11
g3
sg12
g10
sg13
S'2013'
p654
sg15
S'12'
p655
sg16
S'8.2'
p656
sg18
S'11/24'
p657
sg20
g55
sg21
S'Jamaal Charles'
p658
sg23
S'14'
p659
sg25
S'L38-41'
p660
sg27
S'42'
p661
sg29
g64
sg31
S'SD'
p662
sg33
S'19'
p663
sg35
S'115'
p664
sg37
S'46'
p665
ssg165
(dp666
g5
S'24.4'
p667
sg7
S'--'
p668
sg8
g3
sg9
S'--'
p669
sg11
g3
sg12
g64
sg13
S'2013'
p670
sg15
S'15'
p671
sg16
S'2.5'
p672
sg18
S'12/15'
p673
sg20
g3
sg21
S'Jamaal Charles'
p674
sg23
g209
sg25
S'W56-31'
p675
sg27
S'195'
p676
sg29
g209
sg31
S'@OAK'
p677
sg33
S'71T'
p678
sg35
S'20'
p679
sg37
g209
ssg180
(dp680
g5
S'4.0'
p681
sg7
S'--'
p682
sg8
g3
sg9
S'--'
p683
sg11
g3
sg12
g3
sg13
S'2013'
p684
sg15
S'14'
p685
sg16
S'7.9'
p686
sg18
S'12/08'
p687
sg20
g3
sg21
S'Jamaal Charles'
p688
sg23
S'19'
p689
sg25
S'W45-10'
p690
sg27
g209
sg29
g55
sg31
S'@WAS'
p691
sg33
S'5T'
p692
sg35
S'150'
p693
sg37
S'35'
p694
ssg197
(dp695
g5
S'--'
p696
sg7
S'--'
p697
sg8
g10
sg9
S'--'
p698
sg11
g10
sg12
S'--'
p699
sg13
S'2013'
p700
sg15
S'17'
p701
sg16
S'--'
p702
sg18
S'12/29'
p703
sg20
S'--'
p704
sg21
S'Jamaal Charles'
p705
sg23
S'--'
p706
sg25
S'L24-27'
p707
sg27
S'--'
p708
sg29
S'--'
p709
sg31
S'@SD'
p710
sg33
S'--'
p711
sg35
S'--'
p712
sg37
S'--'
p713
ssg213
(dp714
g5
S'7.6'
p715
sg7
S'--'
p716
sg8
g3
sg9
S'--'
p717
sg11
g3
sg12
g10
sg13
S'2013'
p718
sg15
S'16'
p719
sg16
S'8.2'
p720
sg18
S'12/22'
p721
sg20
g3
sg21
S'Jamaal Charles'
p722
sg23
S'13'
p723
sg25
S'L7-23'
p724
sg27
S'38'
p725
sg29
g30
sg31
S'IND'
p726
sg33
S'15'
p727
sg35
S'106'
p728
sg37
S'31T'
p729
ssg3
(dp730
g5
S'7.7'
p731
sg7
S'--'
p732
sg8
g3
sg9
S'--'
p733
sg11
g3
sg12
g10
sg13
S'2013'
p734
sg15
g3
sg16
S'4.8'
p735
sg18
S'09/08'
p736
sg20
g3
sg21
S'Jamaal Charles'
p737
sg23
S'16'
p738
sg25
S'W28-2'
p739
sg27
S'23'
p740
sg29
g39
sg31
S'@JAC'
p741
sg33
S'15'
p742
sg35
S'77'
p743
sg37
S'18'
p744
ssg39
(dp745
g5
S'11.4'
p746
sg7
S'--'
p747
sg8
g3
sg9
S'--'
p748
sg11
g3
sg12
g10
sg13
S'2013'
p749
sg15
g39
sg16
S'4.6'
p750
sg18
S'09/19'
p751
sg20
g3
sg21
S'Jamaal Charles'
p752
sg23
S'20'
p753
sg25
S'W26-16'
p754
sg27
S'80'
p755
sg29
g236
sg31
S'@PHI'
p756
sg33
S'21'
p757
sg35
S'92'
p758
sg37
S'18'
p759
ssg55
(dp760
g5
S'6.0'
p761
sg7
S'--'
p762
sg8
g3
sg9
S'--'
p763
sg11
g3
sg12
g3
sg13
S'2013'
p764
sg15
g55
sg16
S'3.4'
p765
sg18
S'09/15'
p766
sg20
g10
sg21
S'Jamaal Charles'
p767
sg23
S'16'
p768
sg25
S'W17-16'
p769
sg27
S'48'
p770
sg29
g209
sg31
S'DAL'
p771
sg33
S'18'
p772
sg35
S'55'
p773
sg37
S'16'
p774
ssg30
(dp775
g5
S'7.4'
p776
sg7
g3
sg8
g3
sg9
g3
sg11
g3
sg12
g10
sg13
S'2013'
p777
sg15
g30
sg16
S'4.9'
p778
sg18
S'10/06'
p779
sg20
g3
sg21
S'Jamaal Charles'
p780
sg23
S'22'
p781
sg25
S'W26-17'
p782
sg27
S'37'
p783
sg29
g30
sg31
S'@TEN'
p784
sg33
S'11'
p785
sg35
S'108'
p786
sg37
S'19'
p787
ssg64
(dp788
g5
S'12.4'
p789
sg7
S'--'
p790
sg8
g3
sg9
S'--'
p791
sg11
g3
sg12
g3
sg13
S'2013'
p792
sg15
g64
sg16
S'3.6'
p793
sg18
S'09/29'
p794
sg20
g10
sg21
S'Jamaal Charles'
p795
sg23
S'18'
p796
sg25
S'W31-7'
p797
sg27
S'62'
p798
sg29
g30
sg31
S'NYG'
p799
sg33
S'31'
p800
sg35
S'65'
p801
sg37
S'24'
p802
ssg236
(dp803
g5
S'12.3'
p804
sg7
g3
sg8
g3
sg9
g3
sg11
g3
sg12
g10
sg13
S'2013'
p805
sg15
g236
sg16
S'4.1'
p806
sg18
S'10/20'
p807
sg20
g3
sg21
S'Jamaal Charles'
p808
sg23
S'21'
p809
sg25
S'W17-16'
p810
sg27
S'37'
p811
sg29
g39
sg31
S'HOU'
p812
sg33
S'21'
p813
sg35
S'86'
p814
sg37
S'18'
p815
ssg66
(dp816
g5
S'10.0'
p817
sg7
g3
sg8
g3
sg9
g10
sg11
g3
sg12
g10
sg13
S'2013'
p818
sg15
g66
sg16
S'3.5'
p819
sg18
S'10/13'
p820
sg20
g55
sg21
S'Jamaal Charles'
p821
sg23
S'22'
p822
sg25
S'W24-7'
p823
sg27
S'50'
p824
sg29
g30
sg31
S'OAK'
p825
sg33
S'24'
p826
sg35
S'78'
p827
sg37
S'11'
p828
ssg221
(dp829
g5
S'1.0'
p830
sg7
S'--'
p831
sg8
g3
sg9
S'--'
p832
sg11
g3
sg12
g10
sg13
S'2013'
p833
sg15
g221
sg16
S'5.3'
p834
sg18
S'11/03'
p835
sg20
g10
sg21
S'Jamaal Charles'
p836
sg23
S'17'
p837
sg25
S'W23-13'
p838
sg27
g66
sg29
g66
sg31
S'@BUF'
p839
sg33
g66
sg35
S'90'
p840
sg37
S'12'
p841
ssg209
(dp842
g5
S'9.2'
p843
sg7
S'--'
p844
sg8
g3
sg9
S'--'
p845
sg11
g3
sg12
g10
sg13
S'2013'
p846
sg15
g209
sg16
S'4.1'
p847
sg18
S'10/27'
p848
sg20
g10
sg21
S'Jamaal Charles'
p849
sg23
S'18'
p850
sg25
S'W23-17'
p851
sg27
S'46'
p852
sg29
g30
sg31
S'CLE'
p853
sg33
S'24'
p854
sg35
S'74'
p855
sg37
S'17'
p856
sssS'2012'
p857
(dp858
g101
(dp859
g5
S'7.8'
p860
sg7
S'--'
p861
sg8
g3
sg9
S'--'
p862
sg11
g3
sg12
g10
sg13
S'2012'
p863
sg15
S'11'
p864
sg16
S'5.1'
p865
sg18
S'11/18'
p866
sg20
g10
sg21
S'Jamaal Charles'
p867
sg23
S'17'
p868
sg25
S'L6-28'
p869
sg27
S'31'
p870
sg29
g64
sg31
S'CIN'
p871
sg33
S'16'
p872
sg35
S'87'
p873
sg37
S'17'
p874
ssg116
(dp875
g5
S'--'
p876
sg7
S'--'
p877
sg8
g3
sg9
S'--'
p878
sg11
g3
sg12
S'--'
p879
sg13
S'2012'
p880
sg15
S'10'
p881
sg16
S'4.3'
p882
sg18
S'11/12'
p883
sg20
g3
sg21
S'Jamaal Charles'
p884
sg23
S'23'
p885
sg25
S'L13-16'
p886
sg27
S'--'
p887
sg29
S'--'
p888
sg31
S'@PIT'
p889
sg33
S'--'
p890
sg35
S'100'
p891
sg37
S'12T'
p892
ssg133
(dp893
g5
S'2.8'
p894
sg7
S'--'
p895
sg8
g3
sg9
S'--'
p896
sg11
g3
sg12
g10
sg13
S'2012'
p897
sg15
S'13'
p898
sg16
S'4.7'
p899
sg18
S'12/02'
p900
sg20
g10
sg21
S'Jamaal Charles'
p901
sg23
S'27'
p902
sg25
S'W27-21'
p903
sg27
S'11'
p904
sg29
g64
sg31
S'CAR'
p905
sg33
g66
sg35
S'127'
p906
sg37
S'16'
p907
ssg150
(dp908
g5
S'--'
p909
sg7
g3
sg8
g3
sg9
g10
sg11
g3
sg12
S'--'
p910
sg13
S'2012'
p911
sg15
S'12'
p912
sg16
S'4.7'
p913
sg18
S'11/25'
p914
sg20
g10
sg21
S'Jamaal Charles'
p915
sg23
S'23'
p916
sg25
S'L9-17'
p917
sg27
S'--'
p918
sg29
S'--'
p919
sg31
S'DEN'
p920
sg33
S'--'
p921
sg35
S'107'
p922
sg37
S'15'
p923
ssg165
(dp924
g5
S'6.0'
p925
sg7
S'--'
p926
sg8
g3
sg9
S'--'
p927
sg11
g3
sg12
g10
sg13
S'2012'
p928
sg15
S'15'
p929
sg16
S'1.1'
p930
sg18
S'12/16'
p931
sg20
g10
sg21
S'Jamaal Charles'
p932
sg23
g221
sg25
S'L0-15'
p933
sg27
S'18'
p934
sg29
g39
sg31
S'@OAK'
p935
sg33
S'11'
p936
sg35
S'10'
p937
sg37
g30
ssg180
(dp938
g5
S'--'
p939
sg7
S'--'
p940
sg8
g3
sg9
S'--'
p941
sg11
g3
sg12
g10
sg13
S'2012'
p942
sg15
S'14'
p943
sg16
S'9.2'
p944
sg18
S'12/09'
p945
sg20
g3
sg21
S'Jamaal Charles'
p946
sg23
S'18'
p947
sg25
S'L7-30'
p948
sg27
g10
sg29
g10
sg31
S'@CLE'
p949
sg33
S'--'
p950
sg35
S'165'
p951
sg37
S'80T'
p952
ssg197
(dp953
g5
S'14.0'
p954
sg7
S'--'
p955
sg8
g3
sg9
S'--'
p956
sg11
g3
sg12
g10
sg13
S'2012'
p957
sg15
S'17'
p958
sg16
S'3.8'
p959
sg18
S'12/30'
p960
sg20
g10
sg21
S'Jamaal Charles'
p961
sg23
S'14'
p962
sg25
S'L3-38'
p963
sg27
S'14'
p964
sg29
g3
sg31
S'@DEN'
p965
sg33
S'14'
p966
sg35
S'53'
p967
sg37
S'13'
p968
ssg213
(dp969
g5
S'4.0'
p970
sg7
g3
sg8
g3
sg9
g3
sg11
g3
sg12
g10
sg13
S'2012'
p971
sg15
S'16'
p972
sg16
S'10.3'
p973
sg18
S'12/23'
p974
sg20
g3
sg21
S'Jamaal Charles'
p975
sg23
S'22'
p976
sg25
S'L13-20'
p977
sg27
g64
sg29
g3
sg31
S'IND'
p978
sg33
g64
sg35
S'226'
p979
sg37
S'86T'
p980
ssg3
(dp981
g5
S'--'
p982
sg7
S'--'
p983
sg8
g10
sg9
S'--'
p984
sg11
g3
sg12
S'--'
p985
sg13
S'2012'
p986
sg15
g3
sg16
S'5.4'
p987
sg18
S'09/09'
p988
sg20
g10
sg21
S'Jamaal Charles'
p989
sg23
S'16'
p990
sg25
S'L24-40'
p991
sg27
S'--'
p992
sg29
S'--'
p993
sg31
S'ATL'
p994
sg33
S'--'
p995
sg35
S'87'
p996
sg37
S'46'
p997
ssg39
(dp998
g5
S'9.2'
p999
sg7
S'--'
p1000
sg8
g3
sg9
S'--'
p1001
sg11
g3
sg12
g10
sg13
S'2012'
p1002
sg15
g39
sg16
S'7.1'
p1003
sg18
S'09/23'
p1004
sg20
g3
sg21
S'Jamaal Charles'
p1005
sg23
S'33'
p1006
sg25
S'W27-24'
p1007
sg27
S'55'
p1008
sg29
g66
sg31
S'@NO'
p1009
sg33
S'19'
p1010
sg35
S'233'
p1011
sg37
S'91T'
p1012
ssg55
(dp1013
g5
S'6.3'
p1014
sg7
S'--'
p1015
sg8
g3
sg9
S'--'
p1016
sg11
g3
sg12
g10
sg13
S'2012'
p1017
sg15
g55
sg16
S'0.5'
p1018
sg18
S'09/16'
p1019
sg20
g10
sg21
S'Jamaal Charles'
p1020
sg23
g66
sg25
S'L17-35'
p1021
sg27
S'19'
p1022
sg29
g39
sg31
S'@BUF'
p1023
sg33
S'10'
p1024
sg35
g39
sg37
g209
ssg30
(dp1025
g5
S'10.5'
p1026
sg7
g3
sg8
g3
sg9
g10
sg11
g3
sg12
g10
sg13
S'2012'
p1027
sg15
g30
sg16
S'4.5'
p1028
sg18
S'10/07'
p1029
sg20
g10
sg21
S'Jamaal Charles'
p1030
sg23
S'31'
p1031
sg25
S'L6-9'
p1032
sg27
S'21'
p1033
sg29
g55
sg31
S'BAL'
p1034
sg33
S'16'
p1035
sg35
S'140'
p1036
sg37
S'25'
p1037
ssg64
(dp1038
g5
S'7.7'
p1039
sg7
g55
sg8
g3
sg9
g55
sg11
g3
sg12
g3
sg13
S'2012'
p1040
sg15
g64
sg16
S'5.2'
p1041
sg18
S'09/30'
p1042
sg20
g3
sg21
S'Jamaal Charles'
p1043
sg23
S'17'
p1044
sg25
S'L20-37'
p1045
sg27
S'23'
p1046
sg29
g39
sg31
S'SD'
p1047
sg33
S'13T'
p1048
sg35
S'88'
p1049
sg37
S'37T'
p1050
ssg236
(dp1051
g5
g311
sg7
g311
sg8
g311
sg9
g311
sg11
g311
sg12
g311
sg13
S'2012'
p1052
sg15
g236
sg16
g311
sg18
S'Bye'
p1053
sg20
g311
sg21
S'Jamaal Charles'
p1054
sg23
g311
sg25
g311
sg27
g311
sg29
g311
sg31
g311
sg33
g311
sg35
g311
sg37
g311
ssg66
(dp1055
g5
S'3.5'
p1056
sg7
S'--'
p1057
sg8
g3
sg9
S'--'
p1058
sg11
g3
sg12
g10
sg13
S'2012'
p1059
sg15
g66
sg16
S'3.3'
p1060
sg18
S'10/14'
p1061
sg20
g10
sg21
S'Jamaal Charles'
p1062
sg23
S'12'
p1063
sg25
S'L10-38'
p1064
sg27
g236
sg29
g55
sg31
S'@TB'
p1065
sg33
g209
sg35
S'40'
p1066
sg37
S'22'
p1067
ssg221
(dp1068
g5
S'9.0'
p1069
sg7
S'--'
p1070
sg8
g3
sg9
S'--'
p1071
sg11
g3
sg12
g10
sg13
S'2012'
p1072
sg15
g221
sg16
S'3.3'
p1073
sg18
S'11/01'
p1074
sg20
g10
sg21
S'Jamaal Charles'
p1075
sg23
S'12'
p1076
sg25
S'L13-31'
p1077
sg27
S'27'
p1078
sg29
g39
sg31
S'@SD'
p1079
sg33
S'22'
p1080
sg35
S'39'
p1081
sg37
S'15'
p1082
ssg209
(dp1083
g5
S'2.0'
p1084
sg7
S'--'
p1085
sg8
g3
sg9
S'--'
p1086
sg11
g3
sg12
g10
sg13
S'2012'
p1087
sg15
g209
sg16
S'0.8'
p1088
sg18
S'10/28'
p1089
sg20
g10
sg21
S'Jamaal Charles'
p1090
sg23
g30
sg25
S'L16-26'
p1091
sg27
g66
sg29
g39
sg31
S'OAK'
p1092
sg33
g30
sg35
g64
sg37
g64
sss.