(dp0
S'2015'
p1
(dp2
S'11'
p3
(dp4
S'RecAvg'
p5
S'16.0'
p6
sS'FUM'
p7
S'--'
p8
sS'GS'
p9
S'0'
p10
sS'Lost'
p11
S'--'
p12
sS'G'
p13
S'1'
p14
sS'RecTD'
p15
g14
sS'Year'
p16
S'2015'
p17
sS'WK'
p18
S'11'
p19
sS'RushAvg'
p20
S'7.0'
p21
sS'Game Date'
p22
S'11/23'
p23
sS'RushTD'
p24
g14
sS'Player'
p25
S'James White'
p26
sS'RushAtt'
p27
S'2'
p28
sS'Result'
p29
S'W20-13'
p30
sS'RecYds'
p31
S'32'
p32
sS'Rec'
p33
g28
sS'Opp'
p34
S'BUF'
p35
sS'RecLng'
p36
S'20T'
p37
sS'RushYds'
p38
S'14'
p39
sS'RushLng'
p40
S'8'
p41
ssS'10'
p42
(dp43
g5
S'6.0'
p44
sg7
S'--'
p45
sg9
g10
sg11
S'--'
p46
sg13
g14
sg15
g10
sg16
S'2015'
p47
sg18
S'10'
p48
sg20
S'5.0'
p49
sg22
S'11/15'
p50
sg24
g10
sg25
S'James White'
p51
sg27
g14
sg29
S'W27-26'
p52
sg31
S'6'
p53
sg33
g14
sg34
S'@NYG'
p54
sg36
g53
sg38
S'5'
p55
sg40
g55
ssS'13'
p56
(dp57
g5
S'11.5'
p58
sg7
S'--'
p59
sg9
g10
sg11
S'--'
p60
sg13
g14
sg15
g14
sg16
S'2015'
p61
sg18
S'13'
p62
sg20
S'2.0'
p63
sg22
S'12/06'
p64
sg24
g10
sg25
S'James White'
p65
sg27
g28
sg29
S'L28-35'
p66
sg31
S'115'
p67
sg33
S'10'
p68
sg34
S'PHI'
p69
sg36
S'25'
p70
sg38
S'4'
p71
sg40
g41
ssS'12'
p72
(dp73
g5
S'2.5'
p74
sg7
S'--'
p75
sg9
g10
sg11
S'--'
p76
sg13
g14
sg15
g10
sg16
S'2015'
p77
sg18
S'12'
p78
sg20
S'0.3'
p79
sg22
S'11/29'
p80
sg24
g10
sg25
S'James White'
p81
sg27
S'3'
p82
sg29
S'L24-30'
p83
sg31
g55
sg33
g28
sg34
S'@DEN'
p84
sg36
g55
sg38
g14
sg40
g14
ssS'15'
p85
(dp86
g5
S'10.1'
p87
sg7
S'--'
p88
sg9
g10
sg11
S'--'
p89
sg13
g14
sg15
g14
sg16
S'2015'
p90
sg18
S'15'
p91
sg20
S'6.0'
p92
sg22
S'12/20'
p93
sg24
g10
sg25
S'James White'
p94
sg27
g14
sg29
S'W33-16'
p95
sg31
S'71'
p96
sg33
S'7'
p97
sg34
S'TEN'
p98
sg36
S'30T'
p99
sg38
g53
sg40
g53
ssS'14'
p100
(dp101
g5
S'9.5'
p102
sg7
S'--'
p103
sg9
g10
sg11
S'--'
p104
sg13
g14
sg15
g10
sg16
S'2015'
p105
sg18
S'14'
p106
sg20
S'2.0'
p107
sg22
S'12/13'
p108
sg24
g14
sg25
S'James White'
p109
sg27
g14
sg29
S'W27-6'
p110
sg31
S'38'
p111
sg33
g71
sg34
S'@HOU'
p112
sg36
S'27'
p113
sg38
g28
sg40
S'2T'
p114
ssS'17'
p115
(dp116
g5
S'31.5'
p117
sg7
S'--'
p118
sg9
g10
sg11
S'--'
p119
sg13
g14
sg15
g10
sg16
S'2015'
p120
sg18
S'17'
p121
sg20
S'1.7'
p122
sg22
S'01/03'
p123
sg24
g10
sg25
S'James White'
p124
sg27
g82
sg29
S'L10-20'
p125
sg31
S'63'
p126
sg33
g28
sg34
S'@MIA'
p127
sg36
S'68'
p128
sg38
g55
sg40
g71
ssS'16'
p129
(dp130
g5
S'5.6'
p131
sg7
S'--'
p132
sg9
g10
sg11
S'--'
p133
sg13
g14
sg15
g14
sg16
S'2015'
p134
sg18
S'16'
p135
sg20
S'2.0'
p136
sg22
S'12/27'
p137
sg24
g10
sg25
S'James White'
p138
sg27
g28
sg29
S'L20-26'
p139
sg31
S'28'
p140
sg33
g55
sg34
S'@NYJ'
p141
sg36
S'13'
p142
sg38
g71
sg40
g82
ssg14
(dp143
g5
S'--'
p144
sg7
S'--'
p145
sg9
g10
sg11
S'--'
p146
sg13
g14
sg15
S'--'
p147
sg16
S'2015'
p148
sg18
g14
sg20
S'--'
p149
sg22
S'09/10'
p150
sg24
S'--'
p151
sg25
S'James White'
p152
sg27
S'--'
p153
sg29
S'W28-21'
p154
sg31
S'--'
p155
sg33
S'--'
p156
sg34
S'PIT'
p157
sg36
S'--'
p158
sg38
S'--'
p159
sg40
S'--'
p160
ssg82
(dp161
g5
S'6.5'
p162
sg7
S'--'
p163
sg9
g10
sg11
S'--'
p164
sg13
g14
sg15
g10
sg16
S'2015'
p165
sg18
g82
sg20
S'4.0'
p166
sg22
S'09/27'
p167
sg24
g10
sg25
S'James White'
p168
sg27
g28
sg29
S'W51-17'
p169
sg31
S'26'
p170
sg33
g71
sg34
S'JAC'
p171
sg36
S'11'
p172
sg38
g41
sg40
g55
ssg28
(dp173
g5
S'--'
p174
sg7
S'--'
p175
sg9
g10
sg11
S'--'
p176
sg13
g10
sg15
S'--'
p177
sg16
S'2015'
p178
sg18
g28
sg20
S'--'
p179
sg22
S'09/20'
p180
sg24
S'--'
p181
sg25
S'James White'
p182
sg27
S'--'
p183
sg29
S'W40-32'
p184
sg31
S'--'
p185
sg33
S'--'
p186
sg34
S'@BUF'
p187
sg36
S'--'
p188
sg38
S'--'
p189
sg40
S'--'
p190
ssg55
(dp191
g5
S'--'
p192
sg7
S'--'
p193
sg9
g10
sg11
S'--'
p194
sg13
g14
sg15
S'--'
p195
sg16
S'2015'
p196
sg18
g55
sg20
S'--'
p197
sg22
S'10/11'
p198
sg24
S'--'
p199
sg25
S'James White'
p200
sg27
S'--'
p201
sg29
S'W30-6'
p202
sg31
S'--'
p203
sg33
S'--'
p204
sg34
S'@DAL'
p205
sg36
S'--'
p206
sg38
S'--'
p207
sg40
S'--'
p208
ssg71
(dp209
g5
S''
p210
sg7
g210
sg9
g210
sg11
g210
sg13
g210
sg15
g210
sg16
S'2015'
p211
sg18
g71
sg20
g210
sg22
S'Bye'
p212
sg24
g210
sg25
S'James White'
p213
sg27
g210
sg29
g210
sg31
g210
sg33
g210
sg34
g210
sg36
g210
sg38
g210
sg40
g210
ssg97
(dp214
g5
S'8.7'
p215
sg7
S'--'
p216
sg9
g14
sg11
S'--'
p217
sg13
g14
sg15
g10
sg16
S'2015'
p218
sg18
g97
sg20
S'2.0'
p219
sg22
S'10/25'
p220
sg24
g10
sg25
S'James White'
p221
sg27
g28
sg29
S'W30-23'
p222
sg31
S'26'
p223
sg33
g82
sg34
S'NYJ'
p224
sg36
S'12'
p225
sg38
g71
sg40
g82
ssg53
(dp226
g5
S'--'
p227
sg7
S'--'
p228
sg9
g10
sg11
S'--'
p229
sg13
g14
sg15
g10
sg16
S'2015'
p230
sg18
g53
sg20
S'--'
p231
sg22
S'10/18'
p232
sg24
S'--'
p233
sg25
S'James White'
p234
sg27
S'--'
p235
sg29
S'W34-27'
p236
sg31
g10
sg33
g10
sg34
S'@IND'
p237
sg36
S'--'
p238
sg38
S'--'
p239
sg40
S'--'
p240
ssS'9'
p241
(dp242
g5
S'--'
p243
sg7
S'--'
p244
sg9
g10
sg11
S'--'
p245
sg13
g10
sg15
S'--'
p246
sg16
S'2015'
p247
sg18
g241
sg20
S'--'
p248
sg22
S'11/08'
p249
sg24
S'--'
p250
sg25
S'James White'
p251
sg27
S'--'
p252
sg29
S'W27-10'
p253
sg31
S'--'
p254
sg33
S'--'
p255
sg34
S'WAS'
p256
sg36
S'--'
p257
sg38
S'--'
p258
sg40
S'--'
p259
ssg41
(dp260
g5
S'--'
p261
sg7
S'--'
p262
sg9
g10
sg11
S'--'
p263
sg13
g14
sg15
S'--'
p264
sg16
S'2015'
p265
sg18
g41
sg20
S'1.0'
p266
sg22
S'10/29'
p267
sg24
g10
sg25
S'James White'
p268
sg27
g82
sg29
S'W36-7'
p269
sg31
S'--'
p270
sg33
S'--'
p271
sg34
S'MIA'
p272
sg36
S'--'
p273
sg38
g82
sg40
g82
sssS'2014'
p274
(dp275
g3
(dp276
g5
S'--'
p277
sg7
S'--'
p278
sg9
g10
sg11
S'--'
p279
sg13
g10
sg15
S'--'
p280
sg16
S'2014'
p281
sg18
S'11'
p282
sg20
S'--'
p283
sg22
S'11/16'
p284
sg24
S'--'
p285
sg25
S'James White'
p286
sg27
S'--'
p287
sg29
S'W42-20'
p288
sg31
S'--'
p289
sg33
S'--'
p290
sg34
S'@IND'
p291
sg36
S'--'
p292
sg38
S'--'
p293
sg40
S'--'
p294
ssg42
(dp295
g5
g210
sg7
g210
sg9
g210
sg11
g210
sg13
g210
sg15
g210
sg16
S'2014'
p296
sg18
S'10'
p297
sg20
g210
sg22
S'Bye'
p298
sg24
g210
sg25
S'James White'
p299
sg27
g210
sg29
g210
sg31
g210
sg33
g210
sg34
g210
sg36
g210
sg38
g210
sg40
g210
ssg56
(dp300
g5
S'--'
p301
sg7
S'--'
p302
sg9
g10
sg11
S'--'
p303
sg13
g10
sg15
S'--'
p304
sg16
S'2014'
p305
sg18
S'13'
p306
sg20
S'--'
p307
sg22
S'11/30'
p308
sg24
S'--'
p309
sg25
S'James White'
p310
sg27
S'--'
p311
sg29
S'L21-26'
p312
sg31
S'--'
p313
sg33
S'--'
p314
sg34
S'@GB'
p315
sg36
S'--'
p316
sg38
S'--'
p317
sg40
S'--'
p318
ssg72
(dp319
g5
S'--'
p320
sg7
S'--'
p321
sg9
g10
sg11
S'--'
p322
sg13
g10
sg15
S'--'
p323
sg16
S'2014'
p324
sg18
S'12'
p325
sg20
S'--'
p326
sg22
S'11/23'
p327
sg24
S'--'
p328
sg25
S'James White'
p329
sg27
S'--'
p330
sg29
S'W34-9'
p331
sg31
S'--'
p332
sg33
S'--'
p333
sg34
S'DET'
p334
sg36
S'--'
p335
sg38
S'--'
p336
sg40
S'--'
p337
ssg85
(dp338
g5
S'--'
p339
sg7
S'--'
p340
sg9
g10
sg11
S'--'
p341
sg13
g10
sg15
S'--'
p342
sg16
S'2014'
p343
sg18
S'15'
p344
sg20
S'--'
p345
sg22
S'12/14'
p346
sg24
S'--'
p347
sg25
S'James White'
p348
sg27
S'--'
p349
sg29
S'W41-13'
p350
sg31
S'--'
p351
sg33
S'--'
p352
sg34
S'MIA'
p353
sg36
S'--'
p354
sg38
S'--'
p355
sg40
S'--'
p356
ssg100
(dp357
g5
S'--'
p358
sg7
S'--'
p359
sg9
g10
sg11
S'--'
p360
sg13
g10
sg15
S'--'
p361
sg16
S'2014'
p362
sg18
S'14'
p363
sg20
S'--'
p364
sg22
S'12/07'
p365
sg24
S'--'
p366
sg25
S'James White'
p367
sg27
S'--'
p368
sg29
S'W23-14'
p369
sg31
S'--'
p370
sg33
S'--'
p371
sg34
S'@SD'
p372
sg36
S'--'
p373
sg38
S'--'
p374
sg40
S'--'
p375
ssg115
(dp376
g5
S'4.0'
p377
sg7
S'--'
p378
sg9
g10
sg11
S'--'
p379
sg13
g14
sg15
g10
sg16
S'2014'
p380
sg18
S'17'
p381
sg20
S'--'
p382
sg22
S'12/28'
p383
sg24
S'--'
p384
sg25
S'James White'
p385
sg27
S'--'
p386
sg29
S'L9-17'
p387
sg31
g41
sg33
g28
sg34
S'BUF'
p388
sg36
g55
sg38
S'--'
p389
sg40
S'--'
p390
ssg129
(dp391
g5
S'--'
p392
sg7
S'--'
p393
sg9
g10
sg11
S'--'
p394
sg13
g10
sg15
S'--'
p395
sg16
S'2014'
p396
sg18
S'16'
p397
sg20
S'--'
p398
sg22
S'12/21'
p399
sg24
S'--'
p400
sg25
S'James White'
p401
sg27
S'--'
p402
sg29
S'W17-16'
p403
sg31
S'--'
p404
sg33
S'--'
p405
sg34
S'@NYJ'
p406
sg36
S'--'
p407
sg38
S'--'
p408
sg40
S'--'
p409
ssg14
(dp410
g5
S'--'
p411
sg7
S'--'
p412
sg9
g10
sg11
S'--'
p413
sg13
g10
sg15
S'--'
p414
sg16
S'2014'
p415
sg18
g14
sg20
S'--'
p416
sg22
S'09/07'
p417
sg24
S'--'
p418
sg25
S'James White'
p419
sg27
S'--'
p420
sg29
S'L20-33'
p421
sg31
S'--'
p422
sg33
S'--'
p423
sg34
S'@MIA'
p424
sg36
S'--'
p425
sg38
S'--'
p426
sg40
S'--'
p427
ssg82
(dp428
g5
S'--'
p429
sg7
S'--'
p430
sg9
g10
sg11
S'--'
p431
sg13
g10
sg15
S'--'
p432
sg16
S'2014'
p433
sg18
g82
sg20
S'--'
p434
sg22
S'09/21'
p435
sg24
S'--'
p436
sg25
S'James White'
p437
sg27
S'--'
p438
sg29
S'W16-9'
p439
sg31
S'--'
p440
sg33
S'--'
p441
sg34
S'OAK'
p442
sg36
S'--'
p443
sg38
S'--'
p444
sg40
S'--'
p445
ssg28
(dp446
g5
S'--'
p447
sg7
S'--'
p448
sg9
g10
sg11
S'--'
p449
sg13
g10
sg15
S'--'
p450
sg16
S'2014'
p451
sg18
g28
sg20
S'--'
p452
sg22
S'09/14'
p453
sg24
S'--'
p454
sg25
S'James White'
p455
sg27
S'--'
p456
sg29
S'W30-7'
p457
sg31
S'--'
p458
sg33
S'--'
p459
sg34
S'@MIN'
p460
sg36
S'--'
p461
sg38
S'--'
p462
sg40
S'--'
p463
ssg55
(dp464
g5
S'--'
p465
sg7
S'--'
p466
sg9
g10
sg11
S'--'
p467
sg13
g10
sg15
S'--'
p468
sg16
S'2014'
p469
sg18
g55
sg20
S'--'
p470
sg22
S'10/05'
p471
sg24
S'--'
p472
sg25
S'James White'
p473
sg27
S'--'
p474
sg29
S'W43-17'
p475
sg31
S'--'
p476
sg33
S'--'
p477
sg34
S'CIN'
p478
sg36
S'--'
p479
sg38
S'--'
p480
sg40
S'--'
p481
ssg71
(dp482
g5
S'5.0'
p483
sg7
S'--'
p484
sg9
g10
sg11
S'--'
p485
sg13
g14
sg15
g10
sg16
S'2014'
p486
sg18
g71
sg20
S'7.0'
p487
sg22
S'09/29'
p488
sg24
g10
sg25
S'James White'
p489
sg27
g82
sg29
S'L14-41'
p490
sg31
S'15'
p491
sg33
g82
sg34
S'@KC'
p492
sg36
S'11'
p493
sg38
S'21'
p494
sg40
S'11'
p495
ssg97
(dp496
g5
S'--'
p497
sg7
S'--'
p498
sg9
g10
sg11
S'--'
p499
sg13
g10
sg15
S'--'
p500
sg16
S'2014'
p501
sg18
g97
sg20
S'--'
p502
sg22
S'10/16'
p503
sg24
S'--'
p504
sg25
S'James White'
p505
sg27
S'--'
p506
sg29
S'W27-25'
p507
sg31
S'--'
p508
sg33
S'--'
p509
sg34
S'NYJ'
p510
sg36
S'--'
p511
sg38
S'--'
p512
sg40
S'--'
p513
ssg53
(dp514
g5
S'--'
p515
sg7
S'--'
p516
sg9
g10
sg11
S'--'
p517
sg13
g10
sg15
S'--'
p518
sg16
S'2014'
p519
sg18
g53
sg20
S'--'
p520
sg22
S'10/12'
p521
sg24
S'--'
p522
sg25
S'James White'
p523
sg27
S'--'
p524
sg29
S'W37-22'
p525
sg31
S'--'
p526
sg33
S'--'
p527
sg34
S'@BUF'
p528
sg36
S'--'
p529
sg38
S'--'
p530
sg40
S'--'
p531
ssg241
(dp532
g5
S'--'
p533
sg7
S'--'
p534
sg9
g10
sg11
S'--'
p535
sg13
g10
sg15
S'--'
p536
sg16
S'2014'
p537
sg18
g241
sg20
S'--'
p538
sg22
S'11/02'
p539
sg24
S'--'
p540
sg25
S'James White'
p541
sg27
S'--'
p542
sg29
S'W43-21'
p543
sg31
S'--'
p544
sg33
S'--'
p545
sg34
S'DEN'
p546
sg36
S'--'
p547
sg38
S'--'
p548
sg40
S'--'
p549
ssg41
(dp550
g5
S'--'
p551
sg7
S'--'
p552
sg9
g10
sg11
S'--'
p553
sg13
g14
sg15
S'--'
p554
sg16
S'2014'
p555
sg18
g41
sg20
S'2.8'
p556
sg22
S'10/26'
p557
sg24
g10
sg25
S'James White'
p558
sg27
g53
sg29
S'W51-23'
p559
sg31
S'--'
p560
sg33
S'--'
p561
sg34
S'CHI'
p562
sg36
S'--'
p563
sg38
S'17'
p564
sg40
g71
sss.