(dp0
S'2014'
p1
(dp2
S'11'
p3
(dp4
S'RecAvg'
p5
S'--'
p6
sS'FUM'
p7
S'--'
p8
sS'GS'
p9
S'0'
p10
sS'Lost'
p11
S'--'
p12
sS'G'
p13
S'1'
p14
sS'RecTD'
p15
g10
sS'Year'
p16
S'2014'
p17
sS'WK'
p18
S'11'
p19
sS'RushAvg'
p20
S'--'
p21
sS'Game Date'
p22
S'11/16'
p23
sS'RushTD'
p24
S'--'
p25
sS'Player'
p26
S'James Develin'
p27
sS'RushAtt'
p28
S'--'
p29
sS'Result'
p30
S'W42-20'
p31
sS'RecYds'
p32
g10
sS'Rec'
p33
g10
sS'Opp'
p34
S'@IND'
p35
sS'RecLng'
p36
S'--'
p37
sS'RushYds'
p38
S'--'
p39
sS'RushLng'
p40
S'--'
p41
ssS'10'
p42
(dp43
g5
S''
p44
sg7
g44
sg9
g44
sg11
g44
sg13
g44
sg15
g44
sg16
S'2014'
p45
sg18
S'10'
p46
sg20
g44
sg22
S'Bye'
p47
sg24
g44
sg26
S'James Develin'
p48
sg28
g44
sg30
g44
sg32
g44
sg33
g44
sg34
g44
sg36
g44
sg38
g44
sg40
g44
ssS'13'
p49
(dp50
g5
S'--'
p51
sg7
S'--'
p52
sg9
g10
sg11
S'--'
p53
sg13
g14
sg15
S'--'
p54
sg16
S'2014'
p55
sg18
S'13'
p56
sg20
S'--'
p57
sg22
S'11/30'
p58
sg24
S'--'
p59
sg26
S'James Develin'
p60
sg28
S'--'
p61
sg30
S'L21-26'
p62
sg32
S'--'
p63
sg33
S'--'
p64
sg34
S'@GB'
p65
sg36
S'--'
p66
sg38
S'--'
p67
sg40
S'--'
p68
ssS'12'
p69
(dp70
g5
S'--'
p71
sg7
S'--'
p72
sg9
g10
sg11
S'--'
p73
sg13
g14
sg15
S'--'
p74
sg16
S'2014'
p75
sg18
S'12'
p76
sg20
S'--'
p77
sg22
S'11/23'
p78
sg24
S'--'
p79
sg26
S'James Develin'
p80
sg28
S'--'
p81
sg30
S'W34-9'
p82
sg32
S'--'
p83
sg33
S'--'
p84
sg34
S'DET'
p85
sg36
S'--'
p86
sg38
S'--'
p87
sg40
S'--'
p88
ssS'15'
p89
(dp90
g5
S'--'
p91
sg7
S'--'
p92
sg9
g10
sg11
S'--'
p93
sg13
g14
sg15
S'--'
p94
sg16
S'2014'
p95
sg18
S'15'
p96
sg20
S'--'
p97
sg22
S'12/14'
p98
sg24
S'--'
p99
sg26
S'James Develin'
p100
sg28
S'--'
p101
sg30
S'W41-13'
p102
sg32
S'--'
p103
sg33
S'--'
p104
sg34
S'MIA'
p105
sg36
S'--'
p106
sg38
S'--'
p107
sg40
S'--'
p108
ssS'14'
p109
(dp110
g5
S'--'
p111
sg7
S'--'
p112
sg9
g10
sg11
S'--'
p113
sg13
g14
sg15
g10
sg16
S'2014'
p114
sg18
S'14'
p115
sg20
S'--'
p116
sg22
S'12/07'
p117
sg24
S'--'
p118
sg26
S'James Develin'
p119
sg28
S'--'
p120
sg30
S'W23-14'
p121
sg32
g10
sg33
g10
sg34
S'@SD'
p122
sg36
S'--'
p123
sg38
S'--'
p124
sg40
S'--'
p125
ssS'17'
p126
(dp127
g5
S'--'
p128
sg7
S'--'
p129
sg9
g10
sg11
S'--'
p130
sg13
g14
sg15
S'--'
p131
sg16
S'2014'
p132
sg18
S'17'
p133
sg20
S'--'
p134
sg22
S'12/28'
p135
sg24
S'--'
p136
sg26
S'James Develin'
p137
sg28
S'--'
p138
sg30
S'L9-17'
p139
sg32
S'--'
p140
sg33
S'--'
p141
sg34
S'BUF'
p142
sg36
S'--'
p143
sg38
S'--'
p144
sg40
S'--'
p145
ssS'16'
p146
(dp147
g5
S'--'
p148
sg7
S'--'
p149
sg9
g10
sg11
S'--'
p150
sg13
g14
sg15
S'--'
p151
sg16
S'2014'
p152
sg18
S'16'
p153
sg20
S'--'
p154
sg22
S'12/21'
p155
sg24
S'--'
p156
sg26
S'James Develin'
p157
sg28
S'--'
p158
sg30
S'W17-16'
p159
sg32
S'--'
p160
sg33
S'--'
p161
sg34
S'@NYJ'
p162
sg36
S'--'
p163
sg38
S'--'
p164
sg40
S'--'
p165
ssg14
(dp166
g5
S'--'
p167
sg7
S'--'
p168
sg9
g14
sg11
S'--'
p169
sg13
g14
sg15
S'--'
p170
sg16
S'2014'
p171
sg18
g14
sg20
S'--'
p172
sg22
S'09/07'
p173
sg24
S'--'
p174
sg26
S'James Develin'
p175
sg28
S'--'
p176
sg30
S'L20-33'
p177
sg32
S'--'
p178
sg33
S'--'
p179
sg34
S'@MIA'
p180
sg36
S'--'
p181
sg38
S'--'
p182
sg40
S'--'
p183
ssS'3'
p184
(dp185
g5
S'--'
p186
sg7
S'--'
p187
sg9
g14
sg11
S'--'
p188
sg13
g14
sg15
S'--'
p189
sg16
S'2014'
p190
sg18
g184
sg20
S'--'
p191
sg22
S'09/21'
p192
sg24
S'--'
p193
sg26
S'James Develin'
p194
sg28
S'--'
p195
sg30
S'W16-9'
p196
sg32
S'--'
p197
sg33
S'--'
p198
sg34
S'OAK'
p199
sg36
S'--'
p200
sg38
S'--'
p201
sg40
S'--'
p202
ssS'2'
p203
(dp204
g5
S'8.5'
p205
sg7
S'--'
p206
sg9
g10
sg11
S'--'
p207
sg13
g14
sg15
g10
sg16
S'2014'
p208
sg18
g203
sg20
S'--'
p209
sg22
S'09/14'
p210
sg24
S'--'
p211
sg26
S'James Develin'
p212
sg28
S'--'
p213
sg30
S'W30-7'
p214
sg32
S'17'
p215
sg33
g203
sg34
S'@MIN'
p216
sg36
S'13'
p217
sg38
S'--'
p218
sg40
S'--'
p219
ssS'5'
p220
(dp221
g5
S'11.0'
p222
sg7
S'--'
p223
sg9
g14
sg11
S'--'
p224
sg13
g14
sg15
g10
sg16
S'2014'
p225
sg18
g220
sg20
S'2.5'
p226
sg22
S'10/05'
p227
sg24
g10
sg26
S'James Develin'
p228
sg28
g203
sg30
S'W43-17'
p229
sg32
S'11'
p230
sg33
g14
sg34
S'CIN'
p231
sg36
S'11'
p232
sg38
g220
sg40
g220
ssS'4'
p233
(dp234
g5
S'--'
p235
sg7
S'--'
p236
sg9
g10
sg11
S'--'
p237
sg13
g14
sg15
S'--'
p238
sg16
S'2014'
p239
sg18
g233
sg20
S'--'
p240
sg22
S'09/29'
p241
sg24
S'--'
p242
sg26
S'James Develin'
p243
sg28
S'--'
p244
sg30
S'L14-41'
p245
sg32
S'--'
p246
sg33
S'--'
p247
sg34
S'@KC'
p248
sg36
S'--'
p249
sg38
S'--'
p250
sg40
S'--'
p251
ssS'7'
p252
(dp253
g5
S'--'
p254
sg7
S'--'
p255
sg9
g14
sg11
S'--'
p256
sg13
g14
sg15
S'--'
p257
sg16
S'2014'
p258
sg18
g252
sg20
S'--'
p259
sg22
S'10/16'
p260
sg24
S'--'
p261
sg26
S'James Develin'
p262
sg28
S'--'
p263
sg30
S'W27-25'
p264
sg32
S'--'
p265
sg33
S'--'
p266
sg34
S'NYJ'
p267
sg36
S'--'
p268
sg38
S'--'
p269
sg40
S'--'
p270
ssS'6'
p271
(dp272
g5
S'2.0'
p273
sg7
S'--'
p274
sg9
g10
sg11
S'--'
p275
sg13
g14
sg15
g10
sg16
S'2014'
p276
sg18
g271
sg20
S'0.0'
p277
sg22
S'10/12'
p278
sg24
g10
sg26
S'James Develin'
p279
sg28
g14
sg30
S'W37-22'
p280
sg32
g203
sg33
g14
sg34
S'@BUF'
p281
sg36
g203
sg38
g10
sg40
g10
ssS'9'
p282
(dp283
g5
S'6.5'
p284
sg7
g14
sg9
g10
sg11
g10
sg13
g14
sg15
g10
sg16
S'2014'
p285
sg18
g282
sg20
S'--'
p286
sg22
S'11/02'
p287
sg24
S'--'
p288
sg26
S'James Develin'
p289
sg28
S'--'
p290
sg30
S'W43-21'
p291
sg32
S'13'
p292
sg33
g203
sg34
S'DEN'
p293
sg36
S'10'
p294
sg38
S'--'
p295
sg40
S'--'
p296
ssS'8'
p297
(dp298
g5
S'--'
p299
sg7
S'--'
p300
sg9
g10
sg11
S'--'
p301
sg13
g14
sg15
S'--'
p302
sg16
S'2014'
p303
sg18
g297
sg20
S'--'
p304
sg22
S'10/26'
p305
sg24
S'--'
p306
sg26
S'James Develin'
p307
sg28
S'--'
p308
sg30
S'W51-23'
p309
sg32
S'--'
p310
sg33
S'--'
p311
sg34
S'CHI'
p312
sg36
S'--'
p313
sg38
S'--'
p314
sg40
S'--'
p315
sssS'2013'
p316
(dp317
g3
(dp318
g5
S'--'
p319
sg7
S'--'
p320
sg9
g10
sg11
S'--'
p321
sg13
g14
sg15
S'--'
p322
sg16
S'2013'
p323
sg18
S'11'
p324
sg20
S'--'
p325
sg22
S'11/18'
p326
sg24
S'--'
p327
sg26
S'James Develin'
p328
sg28
S'--'
p329
sg30
S'L20-24'
p330
sg32
S'--'
p331
sg33
S'--'
p332
sg34
S'@CAR'
p333
sg36
S'--'
p334
sg38
S'--'
p335
sg40
S'--'
p336
ssg42
(dp337
g5
g44
sg7
g44
sg9
g44
sg11
g44
sg13
g44
sg15
g44
sg16
S'2013'
p338
sg18
S'10'
p339
sg20
g44
sg22
S'Bye'
p340
sg24
g44
sg26
S'James Develin'
p341
sg28
g44
sg30
g44
sg32
g44
sg33
g44
sg34
g44
sg36
g44
sg38
g44
sg40
g44
ssg49
(dp342
g5
S'12.0'
p343
sg7
S'--'
p344
sg9
g10
sg11
S'--'
p345
sg13
g14
sg15
g10
sg16
S'2013'
p346
sg18
S'13'
p347
sg20
S'2.0'
p348
sg22
S'12/01'
p349
sg24
g14
sg26
S'James Develin'
p350
sg28
g203
sg30
S'W34-31'
p351
sg32
S'12'
p352
sg33
g14
sg34
S'@HOU'
p353
sg36
S'12'
p354
sg38
g233
sg40
g184
ssg69
(dp355
g5
S'--'
p356
sg7
S'--'
p357
sg9
g10
sg11
S'--'
p358
sg13
g14
sg15
S'--'
p359
sg16
S'2013'
p360
sg18
S'12'
p361
sg20
S'--'
p362
sg22
S'11/24'
p363
sg24
S'--'
p364
sg26
S'James Develin'
p365
sg28
S'--'
p366
sg30
S'W34-31'
p367
sg32
S'--'
p368
sg33
S'--'
p369
sg34
S'DEN'
p370
sg36
S'--'
p371
sg38
S'--'
p372
sg40
S'--'
p373
ssg89
(dp374
g5
S'--'
p375
sg7
S'--'
p376
sg9
g14
sg11
S'--'
p377
sg13
g14
sg15
S'--'
p378
sg16
S'2013'
p379
sg18
S'15'
p380
sg20
S'2.0'
p381
sg22
S'12/15'
p382
sg24
g10
sg26
S'James Develin'
p383
sg28
g14
sg30
S'L20-24'
p384
sg32
S'--'
p385
sg33
S'--'
p386
sg34
S'@MIA'
p387
sg36
S'--'
p388
sg38
g203
sg40
g203
ssg109
(dp389
g5
S'31.0'
p390
sg7
S'--'
p391
sg9
g10
sg11
S'--'
p392
sg13
g14
sg15
g10
sg16
S'2013'
p393
sg18
S'14'
p394
sg20
S'--'
p395
sg22
S'12/08'
p396
sg24
S'--'
p397
sg26
S'James Develin'
p398
sg28
S'--'
p399
sg30
S'W27-26'
p400
sg32
S'31'
p401
sg33
g14
sg34
S'CLE'
p402
sg36
S'31'
p403
sg38
S'--'
p404
sg40
S'--'
p405
ssg126
(dp406
g5
S'--'
p407
sg7
S'--'
p408
sg9
g14
sg11
S'--'
p409
sg13
g14
sg15
S'--'
p410
sg16
S'2013'
p411
sg18
S'17'
p412
sg20
S'4.0'
p413
sg22
S'12/29'
p414
sg24
g10
sg26
S'James Develin'
p415
sg28
g14
sg30
S'W34-20'
p416
sg32
S'--'
p417
sg33
S'--'
p418
sg34
S'BUF'
p419
sg36
S'--'
p420
sg38
g233
sg40
g233
ssg146
(dp421
g5
S'--'
p422
sg7
S'--'
p423
sg9
g10
sg11
S'--'
p424
sg13
g14
sg15
S'--'
p425
sg16
S'2013'
p426
sg18
S'16'
p427
sg20
S'--'
p428
sg22
S'12/22'
p429
sg24
S'--'
p430
sg26
S'James Develin'
p431
sg28
S'--'
p432
sg30
S'W41-7'
p433
sg32
S'--'
p434
sg33
S'--'
p435
sg34
S'@BAL'
p436
sg36
S'--'
p437
sg38
S'--'
p438
sg40
S'--'
p439
ssg14
(dp440
g5
S'--'
p441
sg7
S'--'
p442
sg9
g14
sg11
S'--'
p443
sg13
g14
sg15
S'--'
p444
sg16
S'2013'
p445
sg18
g14
sg20
S'--'
p446
sg22
S'09/08'
p447
sg24
S'--'
p448
sg26
S'James Develin'
p449
sg28
S'--'
p450
sg30
S'W23-21'
p451
sg32
S'--'
p452
sg33
S'--'
p453
sg34
S'@BUF'
p454
sg36
S'--'
p455
sg38
S'--'
p456
sg40
S'--'
p457
ssg184
(dp458
g5
S'--'
p459
sg7
S'--'
p460
sg9
g10
sg11
S'--'
p461
sg13
g14
sg15
S'--'
p462
sg16
S'2013'
p463
sg18
g184
sg20
S'--'
p464
sg22
S'09/22'
p465
sg24
S'--'
p466
sg26
S'James Develin'
p467
sg28
S'--'
p468
sg30
S'W23-3'
p469
sg32
S'--'
p470
sg33
S'--'
p471
sg34
S'TB'
p472
sg36
S'--'
p473
sg38
S'--'
p474
sg40
S'--'
p475
ssg203
(dp476
g5
S'4.0'
p477
sg7
S'--'
p478
sg9
g14
sg11
S'--'
p479
sg13
g14
sg15
g10
sg16
S'2013'
p480
sg18
g203
sg20
S'--'
p481
sg22
S'09/12'
p482
sg24
S'--'
p483
sg26
S'James Develin'
p484
sg28
S'--'
p485
sg30
S'W13-10'
p486
sg32
g233
sg33
g14
sg34
S'NYJ'
p487
sg36
g233
sg38
S'--'
p488
sg40
S'--'
p489
ssg220
(dp490
g5
S'--'
p491
sg7
S'--'
p492
sg9
g14
sg11
S'--'
p493
sg13
g14
sg15
S'--'
p494
sg16
S'2013'
p495
sg18
g220
sg20
S'--'
p496
sg22
S'10/06'
p497
sg24
S'--'
p498
sg26
S'James Develin'
p499
sg28
S'--'
p500
sg30
S'L6-13'
p501
sg32
S'--'
p502
sg33
S'--'
p503
sg34
S'@CIN'
p504
sg36
S'--'
p505
sg38
S'--'
p506
sg40
S'--'
p507
ssg233
(dp508
g5
S'15.0'
p509
sg7
S'--'
p510
sg9
g14
sg11
S'--'
p511
sg13
g14
sg15
g10
sg16
S'2013'
p512
sg18
g233
sg20
S'--'
p513
sg22
S'09/29'
p514
sg24
S'--'
p515
sg26
S'James Develin'
p516
sg28
S'--'
p517
sg30
S'W30-23'
p518
sg32
S'15'
p519
sg33
g14
sg34
S'@ATL'
p520
sg36
S'15'
p521
sg38
S'--'
p522
sg40
S'--'
p523
ssg252
(dp524
g5
S'--'
p525
sg7
S'--'
p526
sg9
g10
sg11
S'--'
p527
sg13
g14
sg15
S'--'
p528
sg16
S'2013'
p529
sg18
g252
sg20
S'--'
p530
sg22
S'10/20'
p531
sg24
S'--'
p532
sg26
S'James Develin'
p533
sg28
S'--'
p534
sg30
S'L27-30'
p535
sg32
S'--'
p536
sg33
S'--'
p537
sg34
S'@NYJ'
p538
sg36
S'--'
p539
sg38
S'--'
p540
sg40
S'--'
p541
ssg271
(dp542
g5
S'--'
p543
sg7
S'--'
p544
sg9
g10
sg11
S'--'
p545
sg13
g14
sg15
S'--'
p546
sg16
S'2013'
p547
sg18
g271
sg20
S'--'
p548
sg22
S'10/13'
p549
sg24
S'--'
p550
sg26
S'James Develin'
p551
sg28
S'--'
p552
sg30
S'W30-27'
p553
sg32
S'--'
p554
sg33
S'--'
p555
sg34
S'NO'
p556
sg36
S'--'
p557
sg38
S'--'
p558
sg40
S'--'
p559
ssg282
(dp560
g5
S'--'
p561
sg7
S'--'
p562
sg9
g10
sg11
S'--'
p563
sg13
g14
sg15
S'--'
p564
sg16
S'2013'
p565
sg18
g282
sg20
S'--'
p566
sg22
S'11/03'
p567
sg24
S'--'
p568
sg26
S'James Develin'
p569
sg28
S'--'
p570
sg30
S'W55-31'
p571
sg32
S'--'
p572
sg33
S'--'
p573
sg34
S'PIT'
p574
sg36
S'--'
p575
sg38
S'--'
p576
sg40
S'--'
p577
ssg297
(dp578
g5
S'--'
p579
sg7
S'--'
p580
sg9
g10
sg11
S'--'
p581
sg13
g14
sg15
S'--'
p582
sg16
S'2013'
p583
sg18
g297
sg20
S'--'
p584
sg22
S'10/27'
p585
sg24
S'--'
p586
sg26
S'James Develin'
p587
sg28
S'--'
p588
sg30
S'W27-17'
p589
sg32
S'--'
p590
sg33
S'--'
p591
sg34
S'MIA'
p592
sg36
S'--'
p593
sg38
S'--'
p594
sg40
S'--'
p595
sssS'2012'
p596
(dp597
g49
(dp598
g5
S'--'
p599
sg7
S'--'
p600
sg9
g10
sg11
S'--'
p601
sg13
g10
sg15
S'--'
p602
sg16
S'2012'
p603
sg18
S'13'
p604
sg20
S'--'
p605
sg22
S'12/02'
p606
sg24
S'--'
p607
sg26
S'James Develin'
p608
sg28
S'--'
p609
sg30
S'W23-16'
p610
sg32
S'--'
p611
sg33
S'--'
p612
sg34
S'@MIA'
p613
sg36
S'--'
p614
sg38
S'--'
p615
sg40
S'--'
p616
ssg89
(dp617
g5
S'--'
p618
sg7
S'--'
p619
sg9
g10
sg11
S'--'
p620
sg13
g14
sg15
S'--'
p621
sg16
S'2012'
p622
sg18
S'15'
p623
sg20
S'--'
p624
sg22
S'12/16'
p625
sg24
S'--'
p626
sg26
S'James Develin'
p627
sg28
S'--'
p628
sg30
S'L34-41'
p629
sg32
S'--'
p630
sg33
S'--'
p631
sg34
S'SF'
p632
sg36
S'--'
p633
sg38
S'--'
p634
sg40
S'--'
p635
ssg109
(dp636
g5
S'--'
p637
sg7
S'--'
p638
sg9
g10
sg11
S'--'
p639
sg13
g10
sg15
S'--'
p640
sg16
S'2012'
p641
sg18
S'14'
p642
sg20
S'--'
p643
sg22
S'12/10'
p644
sg24
S'--'
p645
sg26
S'James Develin'
p646
sg28
S'--'
p647
sg30
S'W42-14'
p648
sg32
S'--'
p649
sg33
S'--'
p650
sg34
S'HOU'
p651
sg36
S'--'
p652
sg38
S'--'
p653
sg40
S'--'
p654
ssg146
(dp655
g5
S'--'
p656
sg7
S'--'
p657
sg9
g10
sg11
S'--'
p658
sg13
g10
sg15
S'--'
p659
sg16
S'2012'
p660
sg18
S'16'
p661
sg20
S'--'
p662
sg22
S'12/23'
p663
sg24
S'--'
p664
sg26
S'James Develin'
p665
sg28
S'--'
p666
sg30
S'W23-16'
p667
sg32
S'--'
p668
sg33
S'--'
p669
sg34
S'@JAC'
p670
sg36
S'--'
p671
sg38
S'--'
p672
sg40
S'--'
p673
sss.