(dp0
S'2015'
p1
(dp2
S'11'
p3
(dp4
S'RecAvg'
p5
S'30.0'
p6
sS'FUM'
p7
S'--'
p8
sS'GS'
p9
S'1'
p10
sS'Lost'
p11
S'--'
p12
sS'G'
p13
g10
sS'RecTD'
p14
S'0'
p15
sS'Year'
p16
S'2015'
p17
sS'WK'
p18
S'11'
p19
sS'RushAvg'
p20
S'1.8'
p21
sS'Game Date'
p22
S'11/22'
p23
sS'RushTD'
p24
g15
sS'Player'
p25
S'James Starks'
p26
sS'RushAtt'
p27
S'8'
p28
sS'Result'
p29
S'W30-13'
p30
sS'RecYds'
p31
S'30'
p32
sS'Rec'
p33
g10
sS'Opp'
p34
S'@MIN'
p35
sS'RecLng'
p36
S'30'
p37
sS'RushYds'
p38
S'14'
p39
sS'RushLng'
p40
S'9'
p41
ssS'10'
p42
(dp43
g5
S'9.0'
p44
sg7
S'--'
p45
sg9
g10
sg11
S'--'
p46
sg13
g10
sg14
g15
sg16
S'2015'
p47
sg18
S'10'
p48
sg20
S'2.8'
p49
sg22
S'11/15'
p50
sg24
g15
sg25
S'James Starks'
p51
sg27
S'15'
p52
sg29
S'L16-18'
p53
sg31
S'54'
p54
sg33
S'6'
p55
sg34
S'DET'
p56
sg36
S'19'
p57
sg38
S'42'
p58
sg40
g41
ssS'13'
p59
(dp60
g5
S'9.0'
p61
sg7
S'2'
p62
sg9
g10
sg11
g15
sg13
g10
sg14
g15
sg16
S'2015'
p63
sg18
S'13'
p64
sg20
S'1.7'
p65
sg22
S'12/03'
p66
sg24
g15
sg25
S'James Starks'
p67
sg27
g41
sg29
S'W27-23'
p68
sg31
S'45'
p69
sg33
S'5'
p70
sg34
S'@DET'
p71
sg36
S'25'
p72
sg38
S'15'
p73
sg40
g55
ssS'12'
p74
(dp75
g5
S'10.3'
p76
sg7
S'--'
p77
sg9
g15
sg11
S'--'
p78
sg13
g10
sg14
g15
sg16
S'2015'
p79
sg18
S'12'
p80
sg20
S'5.6'
p81
sg22
S'11/26'
p82
sg24
g15
sg25
S'James Starks'
p83
sg27
S'7'
p84
sg29
S'L13-17'
p85
sg31
S'41'
p86
sg33
S'4'
p87
sg34
S'CHI'
p88
sg36
S'18'
p89
sg38
S'39'
p90
sg40
S'10'
p91
ssS'15'
p92
(dp93
g5
S'5.0'
p94
sg7
g10
sg9
g15
sg11
g10
sg13
g10
sg14
g15
sg16
S'2015'
p95
sg18
S'15'
p96
sg20
S'5.7'
p97
sg22
S'12/20'
p98
sg24
g15
sg25
S'James Starks'
p99
sg27
g41
sg29
S'W30-20'
p100
sg31
g70
sg33
g10
sg34
S'@OAK'
p101
sg36
g70
sg38
S'51'
p102
sg40
S'25'
p103
ssS'14'
p104
(dp105
g5
S'8.0'
p106
sg7
S'--'
p107
sg9
g15
sg11
S'--'
p108
sg13
g10
sg14
g10
sg16
S'2015'
p109
sg18
S'14'
p110
sg20
S'6.5'
p111
sg22
S'12/13'
p112
sg24
g10
sg25
S'James Starks'
p113
sg27
S'11'
p114
sg29
S'W28-7'
p115
sg31
S'32'
p116
sg33
g87
sg34
S'DAL'
p117
sg36
S'13T'
p118
sg38
S'71'
p119
sg40
S'30T'
p120
ssS'17'
p121
(dp122
g5
S'6.0'
p123
sg7
S'--'
p124
sg9
g15
sg11
S'--'
p125
sg13
g10
sg14
g15
sg16
S'2015'
p126
sg18
S'17'
p127
sg20
S'3.0'
p128
sg22
S'01/03'
p129
sg24
g15
sg25
S'James Starks'
p130
sg27
g28
sg29
S'L13-20'
p131
sg31
S'18'
p132
sg33
S'3'
p133
sg34
S'MIN'
p134
sg36
S'13'
p135
sg38
S'24'
p136
sg40
g84
ssS'16'
p137
(dp138
g5
S'--'
p139
sg7
g10
sg9
g15
sg11
g10
sg13
g10
sg14
S'--'
p140
sg16
S'2015'
p141
sg18
S'16'
p142
sg20
S'3.7'
p143
sg22
S'12/27'
p144
sg24
g15
sg25
S'James Starks'
p145
sg27
g133
sg29
S'L8-38'
p146
sg31
S'--'
p147
sg33
S'--'
p148
sg34
S'@ARI'
p149
sg36
S'--'
p150
sg38
S'11'
p151
sg40
g55
ssg10
(dp152
g5
S'--'
p153
sg7
S'--'
p154
sg9
g15
sg11
S'--'
p155
sg13
g10
sg14
S'--'
p156
sg16
S'2015'
p157
sg18
g10
sg20
S'1.0'
p158
sg22
S'09/13'
p159
sg24
g15
sg25
S'James Starks'
p160
sg27
g62
sg29
S'W31-23'
p161
sg31
S'--'
p162
sg33
S'--'
p163
sg34
S'@CHI'
p164
sg36
S'--'
p165
sg38
g62
sg40
g133
ssg133
(dp166
g5
S'19.0'
p167
sg7
S'--'
p168
sg9
g15
sg11
S'--'
p169
sg13
g10
sg14
g15
sg16
S'2015'
p170
sg18
g133
sg20
S'1.9'
p171
sg22
S'09/28'
p172
sg24
g15
sg25
S'James Starks'
p173
sg27
S'17'
p174
sg29
S'W38-28'
p175
sg31
S'19'
p176
sg33
g10
sg34
S'KC'
p177
sg36
S'19'
p178
sg38
S'32'
p179
sg40
S'11'
p180
ssg62
(dp181
g5
S'2.8'
p182
sg7
g10
sg9
g15
sg11
g10
sg13
g10
sg14
g15
sg16
S'2015'
p183
sg18
g62
sg20
S'4.8'
p184
sg22
S'09/20'
p185
sg24
g15
sg25
S'James Starks'
p186
sg27
S'20'
p187
sg29
S'W27-17'
p188
sg31
S'11'
p189
sg33
g87
sg34
S'SEA'
p190
sg36
g55
sg38
S'95'
p191
sg40
S'35'
p192
ssg70
(dp193
g5
S'9.7'
p194
sg7
S'--'
p195
sg9
g15
sg11
S'--'
p196
sg13
g10
sg14
g15
sg16
S'2015'
p197
sg18
g70
sg20
S'3.4'
p198
sg22
S'10/11'
p199
sg24
g15
sg25
S'James Starks'
p200
sg27
g70
sg29
S'W24-10'
p201
sg31
S'29'
p202
sg33
g133
sg34
S'STL'
p203
sg36
S'19'
p204
sg38
S'17'
p205
sg40
g55
ssg87
(dp206
g5
S'5.5'
p207
sg7
S'--'
p208
sg9
g15
sg11
S'--'
p209
sg13
g10
sg14
g15
sg16
S'2015'
p210
sg18
g87
sg20
S'3.1'
p211
sg22
S'10/04'
p212
sg24
g15
sg25
S'James Starks'
p213
sg27
g41
sg29
S'W17-3'
p214
sg31
S'11'
p215
sg33
g62
sg34
S'@SF'
p216
sg36
g28
sg38
S'28'
p217
sg40
g55
ssg84
(dp218
g5
S''
p219
sg7
g219
sg9
g219
sg11
g219
sg13
g219
sg14
g219
sg16
S'2015'
p220
sg18
g84
sg20
g219
sg22
S'Bye'
p221
sg24
g219
sg25
S'James Starks'
p222
sg27
g219
sg29
g219
sg31
g219
sg33
g219
sg34
g219
sg36
g219
sg38
g219
sg40
g219
ssg55
(dp223
g5
S'5.0'
p224
sg7
S'--'
p225
sg9
g10
sg11
S'--'
p226
sg13
g10
sg14
g10
sg16
S'2015'
p227
sg18
g55
sg20
S'11.2'
p228
sg22
S'10/18'
p229
sg24
g10
sg25
S'James Starks'
p230
sg27
S'10'
p231
sg29
S'W27-20'
p232
sg31
g70
sg33
g10
sg34
S'SD'
p233
sg36
S'5T'
p234
sg38
S'112'
p235
sg40
S'65T'
p236
ssg41
(dp237
g5
S'13.8'
p238
sg7
S'--'
p239
sg9
g15
sg11
S'--'
p240
sg13
g10
sg14
g10
sg16
S'2015'
p241
sg18
g41
sg20
S'3.9'
p242
sg22
S'11/08'
p243
sg24
g15
sg25
S'James Starks'
p244
sg27
S'10'
p245
sg29
S'L29-37'
p246
sg31
S'83'
p247
sg33
g55
sg34
S'@CAR'
p248
sg36
S'30'
p249
sg38
S'39'
p250
sg40
S'15'
p251
ssg28
(dp252
g5
S'4.5'
p253
sg7
S'--'
p254
sg9
g15
sg11
S'--'
p255
sg13
g10
sg14
g15
sg16
S'2015'
p256
sg18
g28
sg20
S'1.8'
p257
sg22
S'11/01'
p258
sg24
g15
sg25
S'James Starks'
p259
sg27
g70
sg29
S'L10-29'
p260
sg31
g41
sg33
g62
sg34
S'@DEN'
p261
sg36
g70
sg38
g41
sg40
g87
sssS'2014'
p262
(dp263
g3
(dp264
g5
S'8.5'
p265
sg7
S'--'
p266
sg9
g15
sg11
S'--'
p267
sg13
g10
sg14
g15
sg16
S'2014'
p268
sg18
S'11'
p269
sg20
S'1.1'
p270
sg22
S'11/16'
p271
sg24
g15
sg25
S'James Starks'
p272
sg27
g28
sg29
S'W53-20'
p273
sg31
S'17'
p274
sg33
g62
sg34
S'PHI'
p275
sg36
S'14'
p276
sg38
g41
sg40
g84
ssg42
(dp277
g5
S'--'
p278
sg7
S'--'
p279
sg9
g15
sg11
S'--'
p280
sg13
g10
sg14
g15
sg16
S'2014'
p281
sg18
S'10'
p282
sg20
S'2.0'
p283
sg22
S'11/09'
p284
sg24
g15
sg25
S'James Starks'
p285
sg27
g70
sg29
S'W55-14'
p286
sg31
g15
sg33
g15
sg34
S'CHI'
p287
sg36
S'--'
p288
sg38
S'10'
p289
sg40
g55
ssg59
(dp290
g5
S'17.0'
p291
sg7
S'--'
p292
sg9
g15
sg11
S'--'
p293
sg13
g10
sg14
g15
sg16
S'2014'
p294
sg18
S'13'
p295
sg20
S'2.0'
p296
sg22
S'11/30'
p297
sg24
g15
sg25
S'James Starks'
p298
sg27
g10
sg29
S'W26-21'
p299
sg31
S'34'
p300
sg33
g62
sg34
S'NE'
p301
sg36
S'28'
p302
sg38
g62
sg40
g62
ssg74
(dp303
g5
S'--'
p304
sg7
g10
sg9
g15
sg11
g15
sg13
g10
sg14
g15
sg16
S'2014'
p305
sg18
S'12'
p306
sg20
S'-4.0'
p307
sg22
S'11/23'
p308
sg24
g15
sg25
S'James Starks'
p309
sg27
g10
sg29
S'W24-21'
p310
sg31
g15
sg33
g15
sg34
S'@MIN'
p311
sg36
S'--'
p312
sg38
S'-4'
p313
sg40
S'-4'
p314
ssg92
(dp315
g5
S'10.0'
p316
sg7
S'--'
p317
sg9
g15
sg11
S'--'
p318
sg13
g10
sg14
g15
sg16
S'2014'
p319
sg18
S'15'
p320
sg20
S'4.8'
p321
sg22
S'12/14'
p322
sg24
g15
sg25
S'James Starks'
p323
sg27
g87
sg29
S'L13-21'
p324
sg31
S'10'
p325
sg33
g10
sg34
S'@BUF'
p326
sg36
S'10'
p327
sg38
S'19'
p328
sg40
S'12'
p329
ssg104
(dp330
g5
S'13.0'
p331
sg7
S'--'
p332
sg9
g15
sg11
S'--'
p333
sg13
g10
sg14
g15
sg16
S'2014'
p334
sg18
S'14'
p335
sg20
S'7.5'
p336
sg22
S'12/08'
p337
sg24
g10
sg25
S'James Starks'
p338
sg27
S'10'
p339
sg29
S'W43-37'
p340
sg31
S'26'
p341
sg33
g62
sg34
S'ATL'
p342
sg36
S'14'
p343
sg38
S'75'
p344
sg40
S'41'
p345
ssg121
(dp346
g5
S'--'
p347
sg7
S'--'
p348
sg9
g15
sg11
S'--'
p349
sg13
g10
sg14
S'--'
p350
sg16
S'2014'
p351
sg18
S'17'
p352
sg20
S'5.2'
p353
sg22
S'12/28'
p354
sg24
g15
sg25
S'James Starks'
p355
sg27
g70
sg29
S'W30-20'
p356
sg31
S'--'
p357
sg33
S'--'
p358
sg34
S'DET'
p359
sg36
S'--'
p360
sg38
S'26'
p361
sg40
S'21'
p362
ssg137
(dp363
g5
S'5.5'
p364
sg7
S'--'
p365
sg9
g15
sg11
S'--'
p366
sg13
g10
sg14
g15
sg16
S'2014'
p367
sg18
S'16'
p368
sg20
S'0.4'
p369
sg22
S'12/21'
p370
sg24
g15
sg25
S'James Starks'
p371
sg27
g84
sg29
S'W20-3'
p372
sg31
S'22'
p373
sg33
g87
sg34
S'@TB'
p374
sg36
g41
sg38
g133
sg40
g87
ssg10
(dp375
g5
S'5.5'
p376
sg7
S'--'
p377
sg9
g15
sg11
S'--'
p378
sg13
g10
sg14
g15
sg16
S'2014'
p379
sg18
g10
sg20
S'5.3'
p380
sg22
S'09/04'
p381
sg24
g15
sg25
S'James Starks'
p382
sg27
g84
sg29
S'L16-36'
p383
sg31
S'11'
p384
sg33
g62
sg34
S'@SEA'
p385
sg36
S'11'
p386
sg38
S'37'
p387
sg40
S'12'
p388
ssg133
(dp389
g5
S'--'
p390
sg7
S'--'
p391
sg9
g15
sg11
S'--'
p392
sg13
g10
sg14
g15
sg16
S'2014'
p393
sg18
g133
sg20
S'4.8'
p394
sg22
S'09/21'
p395
sg24
g15
sg25
S'James Starks'
p396
sg27
g28
sg29
S'L7-19'
p397
sg31
g15
sg33
g15
sg34
S'@DET'
p398
sg36
S'--'
p399
sg38
S'38'
p400
sg40
S'15'
p401
ssg62
(dp402
g5
S'--'
p403
sg7
S'--'
p404
sg9
g15
sg11
S'--'
p405
sg13
g10
sg14
S'--'
p406
sg16
S'2014'
p407
sg18
g62
sg20
S'--'
p408
sg22
S'09/14'
p409
sg24
S'--'
p410
sg25
S'James Starks'
p411
sg27
S'--'
p412
sg29
S'W31-24'
p413
sg31
S'--'
p414
sg33
S'--'
p415
sg34
S'NYJ'
p416
sg36
S'--'
p417
sg38
S'--'
p418
sg40
S'--'
p419
ssg70
(dp420
g5
S'1.0'
p421
sg7
S'--'
p422
sg9
g15
sg11
S'--'
p423
sg13
g10
sg14
g15
sg16
S'2014'
p424
sg18
g70
sg20
S'3.8'
p425
sg22
S'10/02'
p426
sg24
g15
sg25
S'James Starks'
p427
sg27
S'12'
p428
sg29
S'W42-10'
p429
sg31
g62
sg33
g62
sg34
S'MIN'
p430
sg36
g133
sg38
S'46'
p431
sg40
S'17'
p432
ssg87
(dp433
g5
S'--'
p434
sg7
S'--'
p435
sg9
g15
sg11
S'--'
p436
sg13
g10
sg14
S'--'
p437
sg16
S'2014'
p438
sg18
g87
sg20
S'--'
p439
sg22
S'09/28'
p440
sg24
S'--'
p441
sg25
S'James Starks'
p442
sg27
S'--'
p443
sg29
S'W38-17'
p444
sg31
S'--'
p445
sg33
S'--'
p446
sg34
S'@CHI'
p447
sg36
S'--'
p448
sg38
S'--'
p449
sg40
S'--'
p450
ssg84
(dp451
g5
S'7.0'
p452
sg7
S'--'
p453
sg9
g15
sg11
S'--'
p454
sg13
g10
sg14
g15
sg16
S'2014'
p455
sg18
g84
sg20
S'5.1'
p456
sg22
S'10/19'
p457
sg24
g10
sg25
S'James Starks'
p458
sg27
g84
sg29
S'W38-17'
p459
sg31
g84
sg33
g10
sg34
S'CAR'
p460
sg36
g84
sg38
S'36'
p461
sg40
S'14'
p462
ssg55
(dp463
g5
S'5.5'
p464
sg7
S'--'
p465
sg9
g15
sg11
S'--'
p466
sg13
g10
sg14
g15
sg16
S'2014'
p467
sg18
g55
sg20
S'3.9'
p468
sg22
S'10/12'
p469
sg24
g15
sg25
S'James Starks'
p470
sg27
g28
sg29
S'W27-24'
p471
sg31
S'11'
p472
sg33
g62
sg34
S'@MIA'
p473
sg36
S'10'
p474
sg38
S'31'
p475
sg40
S'12'
p476
ssg41
(dp477
g5
g219
sg7
g219
sg9
g219
sg11
g219
sg13
g219
sg14
g219
sg16
S'2014'
p478
sg18
g41
sg20
g219
sg22
S'Bye'
p479
sg24
g219
sg25
S'James Starks'
p480
sg27
g219
sg29
g219
sg31
g219
sg33
g219
sg34
g219
sg36
g219
sg38
g219
sg40
g219
ssg28
(dp481
g5
S'--'
p482
sg7
S'--'
p483
sg9
g15
sg11
S'--'
p484
sg13
g10
sg14
g15
sg16
S'2014'
p485
sg18
g28
sg20
S'2.5'
p486
sg22
S'10/26'
p487
sg24
g15
sg25
S'James Starks'
p488
sg27
g62
sg29
S'L23-44'
p489
sg31
g15
sg33
g15
sg34
S'@NO'
p490
sg36
S'--'
p491
sg38
g70
sg40
g133
sssS'2011'
p492
(dp493
g3
(dp494
g5
S'8.8'
p495
sg7
S'--'
p496
sg9
g15
sg11
S'--'
p497
sg13
g10
sg14
g15
sg16
S'2011'
p498
sg18
S'11'
p499
sg20
S'3.5'
p500
sg22
S'11/20'
p501
sg24
g15
sg25
S'James Starks'
p502
sg27
S'11'
p503
sg29
S'W35-26'
p504
sg31
S'53'
p505
sg33
g55
sg34
S'TB'
p506
sg36
S'17'
p507
sg38
S'38'
p508
sg40
S'20'
p509
ssg42
(dp510
g5
S'3.7'
p511
sg7
S'--'
p512
sg9
g15
sg11
S'--'
p513
sg13
g10
sg14
g15
sg16
S'2011'
p514
sg18
S'10'
p515
sg20
S'4.8'
p516
sg22
S'11/14'
p517
sg24
g15
sg25
S'James Starks'
p518
sg27
S'13'
p519
sg29
S'W45-7'
p520
sg31
S'11'
p521
sg33
g133
sg34
S'MIN'
p522
sg36
g84
sg38
S'63'
p523
sg40
S'15'
p524
ssg59
(dp525
g5
S'--'
p526
sg7
S'--'
p527
sg9
g15
sg11
S'--'
p528
sg13
g10
sg14
S'--'
p529
sg16
S'2011'
p530
sg18
S'13'
p531
sg20
S'1.7'
p532
sg22
S'12/04'
p533
sg24
g15
sg25
S'James Starks'
p534
sg27
g133
sg29
S'W38-35'
p535
sg31
S'--'
p536
sg33
S'--'
p537
sg34
S'@NYG'
p538
sg36
S'--'
p539
sg38
g70
sg40
g55
ssg74
(dp540
g5
S'--'
p541
sg7
S'--'
p542
sg9
g10
sg11
S'--'
p543
sg13
g10
sg14
g15
sg16
S'2011'
p544
sg18
S'12'
p545
sg20
S'4.8'
p546
sg22
S'11/24'
p547
sg24
g15
sg25
S'James Starks'
p548
sg27
g87
sg29
S'W27-15'
p549
sg31
g15
sg33
g15
sg34
S'@DET'
p550
sg36
S'--'
p551
sg38
S'19'
p552
sg40
S'12'
p553
ssg92
(dp554
g5
S'--'
p555
sg7
S'--'
p556
sg9
g15
sg11
S'--'
p557
sg13
g15
sg14
S'--'
p558
sg16
S'2011'
p559
sg18
S'15'
p560
sg20
S'--'
p561
sg22
S'12/18'
p562
sg24
S'--'
p563
sg25
S'James Starks'
p564
sg27
S'--'
p565
sg29
S'L14-19'
p566
sg31
S'--'
p567
sg33
S'--'
p568
sg34
S'@KC'
p569
sg36
S'--'
p570
sg38
S'--'
p571
sg40
S'--'
p572
ssg104
(dp573
g5
S'--'
p574
sg7
S'--'
p575
sg9
g15
sg11
S'--'
p576
sg13
g15
sg14
S'--'
p577
sg16
S'2011'
p578
sg18
S'14'
p579
sg20
S'--'
p580
sg22
S'12/11'
p581
sg24
S'--'
p582
sg25
S'James Starks'
p583
sg27
S'--'
p584
sg29
S'W46-16'
p585
sg31
S'--'
p586
sg33
S'--'
p587
sg34
S'OAK'
p588
sg36
S'--'
p589
sg38
S'--'
p590
sg40
S'--'
p591
ssg121
(dp592
g5
S'--'
p593
sg7
S'--'
p594
sg9
g15
sg11
S'--'
p595
sg13
g15
sg14
S'--'
p596
sg16
S'2011'
p597
sg18
S'17'
p598
sg20
S'--'
p599
sg22
S'01/01'
p600
sg24
S'--'
p601
sg25
S'James Starks'
p602
sg27
S'--'
p603
sg29
S'W45-41'
p604
sg31
S'--'
p605
sg33
S'--'
p606
sg34
S'DET'
p607
sg36
S'--'
p608
sg38
S'--'
p609
sg40
S'--'
p610
ssg137
(dp611
g5
S'6.0'
p612
sg7
g10
sg9
g15
sg11
g15
sg13
g10
sg14
g15
sg16
S'2011'
p613
sg18
S'16'
p614
sg20
S'2.2'
p615
sg22
S'12/25'
p616
sg24
g15
sg25
S'James Starks'
p617
sg27
g55
sg29
S'W35-21'
p618
sg31
g55
sg33
g10
sg34
S'CHI'
p619
sg36
g55
sg38
S'13'
p620
sg40
g70
ssg10
(dp621
g5
S'--'
p622
sg7
S'--'
p623
sg9
g15
sg11
S'--'
p624
sg13
g10
sg14
g15
sg16
S'2011'
p625
sg18
g10
sg20
S'4.8'
p626
sg22
S'09/08'
p627
sg24
g10
sg25
S'James Starks'
p628
sg27
S'12'
p629
sg29
S'W42-34'
p630
sg31
g15
sg33
g15
sg34
S'NO'
p631
sg36
S'--'
p632
sg38
S'57'
p633
sg40
S'17T'
p634
ssg133
(dp635
g5
S'3.0'
p636
sg7
g10
sg9
g15
sg11
g10
sg13
g10
sg14
g15
sg16
S'2011'
p637
sg18
g133
sg20
S'0.5'
p638
sg22
S'09/25'
p639
sg24
g15
sg25
S'James Starks'
p640
sg27
S'11'
p641
sg29
S'W27-17'
p642
sg31
g41
sg33
g133
sg34
S'@CHI'
p643
sg36
g70
sg38
g70
sg40
g28
ssg62
(dp644
g5
S'10.0'
p645
sg7
S'--'
p646
sg9
g15
sg11
S'--'
p647
sg13
g10
sg14
g15
sg16
S'2011'
p648
sg18
g62
sg20
S'9.4'
p649
sg22
S'09/18'
p650
sg24
g15
sg25
S'James Starks'
p651
sg27
g41
sg29
S'W30-23'
p652
sg31
S'30'
p653
sg33
g133
sg34
S'@CAR'
p654
sg36
S'11'
p655
sg38
S'85'
p656
sg40
S'40'
p657
ssg70
(dp658
g5
S'9.5'
p659
sg7
S'--'
p660
sg9
g15
sg11
S'--'
p661
sg13
g10
sg14
g15
sg16
S'2011'
p662
sg18
g70
sg20
S'3.3'
p663
sg22
S'10/09'
p664
sg24
g15
sg25
S'James Starks'
p665
sg27
S'12'
p666
sg29
S'W25-14'
p667
sg31
S'19'
p668
sg33
g62
sg34
S'@ATL'
p669
sg36
S'11'
p670
sg38
S'40'
p671
sg40
S'11'
p672
ssg87
(dp673
g5
S'7.6'
p674
sg7
S'--'
p675
sg9
g10
sg11
S'--'
p676
sg13
g10
sg14
g15
sg16
S'2011'
p677
sg18
g87
sg20
S'4.8'
p678
sg22
S'10/02'
p679
sg24
g15
sg25
S'James Starks'
p680
sg27
S'13'
p681
sg29
S'W49-23'
p682
sg31
S'38'
p683
sg33
g70
sg34
S'DEN'
p684
sg36
S'16'
p685
sg38
S'63'
p686
sg40
S'22'
p687
ssg84
(dp688
g5
S'8.0'
p689
sg7
S'--'
p690
sg9
g15
sg11
S'--'
p691
sg13
g10
sg14
g15
sg16
S'2011'
p692
sg18
g84
sg20
S'5.8'
p693
sg22
S'10/23'
p694
sg24
g15
sg25
S'James Starks'
p695
sg27
S'13'
p696
sg29
S'W33-27'
p697
sg31
S'24'
p698
sg33
g133
sg34
S'@MIN'
p699
sg36
S'13'
p700
sg38
S'75'
p701
sg40
S'20'
p702
ssg55
(dp703
g5
S'8.5'
p704
sg7
S'--'
p705
sg9
g15
sg11
S'--'
p706
sg13
g10
sg14
g15
sg16
S'2011'
p707
sg18
g55
sg20
S'3.8'
p708
sg22
S'10/16'
p709
sg24
g15
sg25
S'James Starks'
p710
sg27
S'13'
p711
sg29
S'W24-3'
p712
sg31
S'17'
p713
sg33
g62
sg34
S'STL'
p714
sg36
g41
sg38
S'49'
p715
sg40
S'15'
p716
ssg41
(dp717
g5
S'9.0'
p718
sg7
S'--'
p719
sg9
g15
sg11
S'--'
p720
sg13
g10
sg14
g15
sg16
S'2011'
p721
sg18
g41
sg20
S'5.1'
p722
sg22
S'11/06'
p723
sg24
g15
sg25
S'James Starks'
p724
sg27
S'13'
p725
sg29
S'W45-38'
p726
sg31
g41
sg33
g10
sg34
S'@SD'
p727
sg36
g41
sg38
S'66'
p728
sg40
S'20'
p729
ssg28
(dp730
g5
g219
sg7
g219
sg9
g219
sg11
g219
sg13
g219
sg14
g219
sg16
S'2011'
p731
sg18
g28
sg20
g219
sg22
S'Bye'
p732
sg24
g219
sg25
S'James Starks'
p733
sg27
g219
sg29
g219
sg31
g219
sg33
g219
sg34
g219
sg36
g219
sg38
g219
sg40
g219
sssS'2010'
p734
(dp735
g3
(dp736
g5
S'--'
p737
sg7
S'--'
p738
sg9
g15
sg11
S'--'
p739
sg13
g15
sg14
S'--'
p740
sg16
S'2010'
p741
sg18
S'11'
p742
sg20
S'--'
p743
sg22
S'11/21'
p744
sg24
S'--'
p745
sg25
S'James Starks'
p746
sg27
S'--'
p747
sg29
S'W31-3'
p748
sg31
S'--'
p749
sg33
S'--'
p750
sg34
S'@MIN'
p751
sg36
S'--'
p752
sg38
S'--'
p753
sg40
S'--'
p754
ssg42
(dp755
g5
g219
sg7
g219
sg9
g219
sg11
g219
sg13
g219
sg14
g219
sg16
S'2010'
p756
sg18
S'10'
p757
sg20
g219
sg22
S'Bye'
p758
sg24
g219
sg25
S'James Starks'
p759
sg27
g219
sg29
g219
sg31
g219
sg33
g219
sg34
g219
sg36
g219
sg38
g219
sg40
g219
ssg59
(dp760
g5
S'--'
p761
sg7
S'--'
p762
sg9
g15
sg11
S'--'
p763
sg13
g10
sg14
S'--'
p764
sg16
S'2010'
p765
sg18
S'13'
p766
sg20
S'4.1'
p767
sg22
S'12/05'
p768
sg24
g15
sg25
S'James Starks'
p769
sg27
S'18'
p770
sg29
S'W34-16'
p771
sg31
S'--'
p772
sg33
S'--'
p773
sg34
S'SF'
p774
sg36
S'--'
p775
sg38
S'73'
p776
sg40
S'16'
p777
ssg74
(dp778
g5
S'--'
p779
sg7
S'--'
p780
sg9
g15
sg11
S'--'
p781
sg13
g15
sg14
S'--'
p782
sg16
S'2010'
p783
sg18
S'12'
p784
sg20
S'--'
p785
sg22
S'11/28'
p786
sg24
S'--'
p787
sg25
S'James Starks'
p788
sg27
S'--'
p789
sg29
S'L17-20'
p790
sg31
S'--'
p791
sg33
S'--'
p792
sg34
S'@ATL'
p793
sg36
S'--'
p794
sg38
S'--'
p795
sg40
S'--'
p796
ssg92
(dp797
g5
S'--'
p798
sg7
S'--'
p799
sg9
g15
sg11
S'--'
p800
sg13
g15
sg14
S'--'
p801
sg16
S'2010'
p802
sg18
S'15'
p803
sg20
S'--'
p804
sg22
S'12/19'
p805
sg24
S'--'
p806
sg25
S'James Starks'
p807
sg27
S'--'
p808
sg29
S'L27-31'
p809
sg31
S'--'
p810
sg33
S'--'
p811
sg34
S'@NE'
p812
sg36
S'--'
p813
sg38
S'--'
p814
sg40
S'--'
p815
ssg104
(dp816
g5
S'--'
p817
sg7
S'--'
p818
sg9
g15
sg11
S'--'
p819
sg13
g10
sg14
g15
sg16
S'2010'
p820
sg18
S'14'
p821
sg20
S'1.3'
p822
sg22
S'12/12'
p823
sg24
g15
sg25
S'James Starks'
p824
sg27
g55
sg29
S'L3-7'
p825
sg31
g15
sg33
g15
sg34
S'@DET'
p826
sg36
S'--'
p827
sg38
g28
sg40
g84
ssg121
(dp828
g5
S'7.5'
p829
sg7
S'--'
p830
sg9
g15
sg11
S'--'
p831
sg13
g10
sg14
g15
sg16
S'2010'
p832
sg18
S'17'
p833
sg20
S'4.0'
p834
sg22
S'01/02'
p835
sg24
g15
sg25
S'James Starks'
p836
sg27
g70
sg29
S'W10-3'
p837
sg31
S'15'
p838
sg33
g62
sg34
S'CHI'
p839
sg36
S'12'
p840
sg38
S'20'
p841
sg40
g55
ssg137
(dp842
g5
S'--'
p843
sg7
S'--'
p844
sg9
g15
sg11
S'--'
p845
sg13
g15
sg14
S'--'
p846
sg16
S'2010'
p847
sg18
S'16'
p848
sg20
S'--'
p849
sg22
S'12/26'
p850
sg24
S'--'
p851
sg25
S'James Starks'
p852
sg27
S'--'
p853
sg29
S'W45-17'
p854
sg31
S'--'
p855
sg33
S'--'
p856
sg34
S'NYG'
p857
sg36
S'--'
p858
sg38
S'--'
p859
sg40
S'--'
p860
sssS'2013'
p861
(dp862
g3
(dp863
g5
S'--'
p864
sg7
S'--'
p865
sg9
g15
sg11
S'--'
p866
sg13
g10
sg14
S'--'
p867
sg16
S'2013'
p868
sg18
S'11'
p869
sg20
S'-0.5'
p870
sg22
S'11/17'
p871
sg24
g15
sg25
S'James Starks'
p872
sg27
g62
sg29
S'L13-27'
p873
sg31
S'--'
p874
sg33
S'--'
p875
sg34
S'@NYG'
p876
sg36
S'--'
p877
sg38
S'-1'
p878
sg40
g15
ssg42
(dp879
g5
S'9.0'
p880
sg7
S'--'
p881
sg9
g15
sg11
S'--'
p882
sg13
g10
sg14
g15
sg16
S'2013'
p883
sg18
S'10'
p884
sg20
S'1.3'
p885
sg22
S'11/10'
p886
sg24
g15
sg25
S'James Starks'
p887
sg27
g87
sg29
S'L13-27'
p888
sg31
g41
sg33
g10
sg34
S'PHI'
p889
sg36
g41
sg38
g70
sg40
g133
ssg59
(dp890
g5
S'--'
p891
sg7
S'--'
p892
sg9
g15
sg11
S'--'
p893
sg13
g10
sg14
S'--'
p894
sg16
S'2013'
p895
sg18
S'13'
p896
sg20
S'1.0'
p897
sg22
S'11/28'
p898
sg24
g15
sg25
S'James Starks'
p899
sg27
g62
sg29
S'L10-40'
p900
sg31
S'--'
p901
sg33
S'--'
p902
sg34
S'@DET'
p903
sg36
S'--'
p904
sg38
g62
sg40
g10
ssg74
(dp905
g5
S'-5.0'
p906
sg7
S'--'
p907
sg9
g15
sg11
S'--'
p908
sg13
g10
sg14
g15
sg16
S'2013'
p909
sg18
S'12'
p910
sg20
S'12.3'
p911
sg22
S'11/24'
p912
sg24
g15
sg25
S'James Starks'
p913
sg27
g133
sg29
S'T26-26'
p914
sg31
S'-5'
p915
sg33
g10
sg34
S'MIN'
p916
sg36
S'-5'
p917
sg38
S'37'
p918
sg40
S'34'
p919
ssg92
(dp920
g5
S'11.0'
p921
sg7
S'--'
p922
sg9
g15
sg11
S'--'
p923
sg13
g10
sg14
g10
sg16
S'2013'
p924
sg18
S'15'
p925
sg20
S'4.0'
p926
sg22
S'12/15'
p927
sg24
g15
sg25
S'James Starks'
p928
sg27
g133
sg29
S'W37-36'
p929
sg31
S'11'
p930
sg33
g10
sg34
S'@DAL'
p931
sg36
S'11T'
p932
sg38
S'12'
p933
sg40
g70
ssg104
(dp934
g5
S'--'
p935
sg7
S'--'
p936
sg9
g15
sg11
S'--'
p937
sg13
g10
sg14
S'--'
p938
sg16
S'2013'
p939
sg18
S'14'
p940
sg20
S'2.7'
p941
sg22
S'12/08'
p942
sg24
g15
sg25
S'James Starks'
p943
sg27
g84
sg29
S'W22-21'
p944
sg31
S'--'
p945
sg33
S'--'
p946
sg34
S'ATL'
p947
sg36
S'--'
p948
sg38
S'19'
p949
sg40
g70
ssg121
(dp950
g5
S'7.0'
p951
sg7
S'--'
p952
sg9
g15
sg11
S'--'
p953
sg13
g10
sg14
g15
sg16
S'2013'
p954
sg18
S'17'
p955
sg20
S'8.0'
p956
sg22
S'12/29'
p957
sg24
g15
sg25
S'James Starks'
p958
sg27
S'11'
p959
sg29
S'W33-28'
p960
sg31
g84
sg33
g10
sg34
S'@CHI'
p961
sg36
g84
sg38
S'88'
p962
sg40
S'41'
p963
ssg137
(dp964
g5
S'23.0'
p965
sg7
S'--'
p966
sg9
g15
sg11
S'--'
p967
sg13
g10
sg14
g15
sg16
S'2013'
p968
sg18
S'16'
p969
sg20
S'4.7'
p970
sg22
S'12/22'
p971
sg24
g15
sg25
S'James Starks'
p972
sg27
S'10'
p973
sg29
S'L31-38'
p974
sg31
S'23'
p975
sg33
g10
sg34
S'PIT'
p976
sg36
S'23'
p977
sg38
S'47'
p978
sg40
g41
ssg10
(dp979
g5
S'8.0'
p980
sg7
S'--'
p981
sg9
g15
sg11
S'--'
p982
sg13
g10
sg14
g15
sg16
S'2013'
p983
sg18
g10
sg20
S'--'
p984
sg22
S'09/08'
p985
sg24
S'--'
p986
sg25
S'James Starks'
p987
sg27
S'--'
p988
sg29
S'L28-34'
p989
sg31
g28
sg33
g10
sg34
S'@SF'
p990
sg36
g28
sg38
S'--'
p991
sg40
S'--'
p992
ssg133
(dp993
g5
S'--'
p994
sg7
S'--'
p995
sg9
g10
sg11
S'--'
p996
sg13
g10
sg14
S'--'
p997
sg16
S'2013'
p998
sg18
g133
sg20
S'3.9'
p999
sg22
S'09/22'
p1000
sg24
g15
sg25
S'James Starks'
p1001
sg27
S'14'
p1002
sg29
S'L30-34'
p1003
sg31
S'--'
p1004
sg33
S'--'
p1005
sg34
S'@CIN'
p1006
sg36
S'--'
p1007
sg38
S'55'
p1008
sg40
S'13'
p1009
ssg62
(dp1010
g5
S'9.0'
p1011
sg7
S'--'
p1012
sg9
g15
sg11
S'--'
p1013
sg13
g10
sg14
g15
sg16
S'2013'
p1014
sg18
g62
sg20
S'6.6'
p1015
sg22
S'09/15'
p1016
sg24
g10
sg25
S'James Starks'
p1017
sg27
S'20'
p1018
sg29
S'W38-20'
p1019
sg31
S'36'
p1020
sg33
g87
sg34
S'WAS'
p1021
sg36
S'15'
p1022
sg38
S'132'
p1023
sg40
S'32T'
p1024
ssg70
(dp1025
g5
S'--'
p1026
sg7
S'--'
p1027
sg9
g15
sg11
S'--'
p1028
sg13
g15
sg14
S'--'
p1029
sg16
S'2013'
p1030
sg18
g70
sg20
S'--'
p1031
sg22
S'10/06'
p1032
sg24
S'--'
p1033
sg25
S'James Starks'
p1034
sg27
S'--'
p1035
sg29
S'W22-9'
p1036
sg31
S'--'
p1037
sg33
S'--'
p1038
sg34
S'DET'
p1039
sg36
S'--'
p1040
sg38
S'--'
p1041
sg40
S'--'
p1042
ssg87
(dp1043
g5
g219
sg7
g219
sg9
g219
sg11
g219
sg13
g219
sg14
g219
sg16
S'2013'
p1044
sg18
g87
sg20
g219
sg22
S'Bye'
p1045
sg24
g219
sg25
S'James Starks'
p1046
sg27
g219
sg29
g219
sg31
g219
sg33
g219
sg34
g219
sg36
g219
sg38
g219
sg40
g219
ssg84
(dp1047
g5
S'--'
p1048
sg7
S'--'
p1049
sg9
g15
sg11
S'--'
p1050
sg13
g15
sg14
S'--'
p1051
sg16
S'2013'
p1052
sg18
g84
sg20
S'--'
p1053
sg22
S'10/20'
p1054
sg24
S'--'
p1055
sg25
S'James Starks'
p1056
sg27
S'--'
p1057
sg29
S'W31-13'
p1058
sg31
S'--'
p1059
sg33
S'--'
p1060
sg34
S'CLE'
p1061
sg36
S'--'
p1062
sg38
S'--'
p1063
sg40
S'--'
p1064
ssg55
(dp1065
g5
S'--'
p1066
sg7
S'--'
p1067
sg9
g15
sg11
S'--'
p1068
sg13
g15
sg14
S'--'
p1069
sg16
S'2013'
p1070
sg18
g55
sg20
S'--'
p1071
sg22
S'10/13'
p1072
sg24
S'--'
p1073
sg25
S'James Starks'
p1074
sg27
S'--'
p1075
sg29
S'W19-17'
p1076
sg31
S'--'
p1077
sg33
S'--'
p1078
sg34
S'@BAL'
p1079
sg36
S'--'
p1080
sg38
S'--'
p1081
sg40
S'--'
p1082
ssg41
(dp1083
g5
S'--'
p1084
sg7
g10
sg9
g15
sg11
g15
sg13
g10
sg14
S'--'
p1085
sg16
S'2013'
p1086
sg18
g41
sg20
S'6.7'
p1087
sg22
S'11/04'
p1088
sg24
g10
sg25
S'James Starks'
p1089
sg27
g55
sg29
S'L20-27'
p1090
sg31
S'--'
p1091
sg33
S'--'
p1092
sg34
S'CHI'
p1093
sg36
S'--'
p1094
sg38
S'40'
p1095
sg40
S'32T'
p1096
ssg28
(dp1097
g5
S'--'
p1098
sg7
S'--'
p1099
sg9
g15
sg11
S'--'
p1100
sg13
g10
sg14
S'--'
p1101
sg16
S'2013'
p1102
sg18
g28
sg20
S'8.1'
p1103
sg22
S'10/27'
p1104
sg24
g10
sg25
S'James Starks'
p1105
sg27
g84
sg29
S'W44-31'
p1106
sg31
S'--'
p1107
sg33
S'--'
p1108
sg34
S'@MIN'
p1109
sg36
S'--'
p1110
sg38
S'57'
p1111
sg40
S'25T'
p1112
sssS'2012'
p1113
(dp1114
g3
(dp1115
g5
S'6.0'
p1116
sg7
S'--'
p1117
sg9
g15
sg11
S'--'
p1118
sg13
g10
sg14
g15
sg16
S'2012'
p1119
sg18
S'11'
p1120
sg20
S'3.0'
p1121
sg22
S'11/18'
p1122
sg24
g15
sg25
S'James Starks'
p1123
sg27
S'25'
p1124
sg29
S'W24-20'
p1125
sg31
g55
sg33
g10
sg34
S'@DET'
p1126
sg36
g55
sg38
S'74'
p1127
sg40
S'11'
p1128
ssg42
(dp1129
g5
g219
sg7
g219
sg9
g219
sg11
g219
sg13
g219
sg14
g219
sg16
S'2012'
p1130
sg18
S'10'
p1131
sg20
g219
sg22
S'Bye'
p1132
sg24
g219
sg25
S'James Starks'
p1133
sg27
g219
sg29
g219
sg31
g219
sg33
g219
sg34
g219
sg36
g219
sg38
g219
sg40
g219
ssg59
(dp1134
g5
S'8.0'
p1135
sg7
S'--'
p1136
sg9
g15
sg11
S'--'
p1137
sg13
g10
sg14
g15
sg16
S'2012'
p1138
sg18
S'13'
p1139
sg20
S'4.4'
p1140
sg22
S'12/02'
p1141
sg24
g10
sg25
S'James Starks'
p1142
sg27
S'15'
p1143
sg29
S'W23-14'
p1144
sg31
S'16'
p1145
sg33
g62
sg34
S'MIN'
p1146
sg36
g41
sg38
S'66'
p1147
sg40
S'22T'
p1148
ssg74
(dp1149
g5
S'--'
p1150
sg7
S'--'
p1151
sg9
g10
sg11
S'--'
p1152
sg13
g10
sg14
g15
sg16
S'2012'
p1153
sg18
S'12'
p1154
sg20
S'4.4'
p1155
sg22
S'11/25'
p1156
sg24
g15
sg25
S'James Starks'
p1157
sg27
g28
sg29
S'L10-38'
p1158
sg31
g15
sg33
g15
sg34
S'@NYG'
p1159
sg36
S'--'
p1160
sg38
S'35'
p1161
sg40
g28
ssg92
(dp1162
g5
S'--'
p1163
sg7
S'--'
p1164
sg9
g15
sg11
S'--'
p1165
sg13
g15
sg14
S'--'
p1166
sg16
S'2012'
p1167
sg18
S'15'
p1168
sg20
S'--'
p1169
sg22
S'12/16'
p1170
sg24
S'--'
p1171
sg25
S'James Starks'
p1172
sg27
S'--'
p1173
sg29
S'W21-13'
p1174
sg31
S'--'
p1175
sg33
S'--'
p1176
sg34
S'@CHI'
p1177
sg36
S'--'
p1178
sg38
S'--'
p1179
sg40
S'--'
p1180
ssg104
(dp1181
g5
S'--'
p1182
sg7
S'--'
p1183
sg9
g15
sg11
S'--'
p1184
sg13
g15
sg14
S'--'
p1185
sg16
S'2012'
p1186
sg18
S'14'
p1187
sg20
S'--'
p1188
sg22
S'12/09'
p1189
sg24
S'--'
p1190
sg25
S'James Starks'
p1191
sg27
S'--'
p1192
sg29
S'W27-20'
p1193
sg31
S'--'
p1194
sg33
S'--'
p1195
sg34
S'DET'
p1196
sg36
S'--'
p1197
sg38
S'--'
p1198
sg40
S'--'
p1199
ssg121
(dp1200
g5
S'--'
p1201
sg7
S'--'
p1202
sg9
g15
sg11
S'--'
p1203
sg13
g15
sg14
S'--'
p1204
sg16
S'2012'
p1205
sg18
S'17'
p1206
sg20
S'--'
p1207
sg22
S'12/30'
p1208
sg24
S'--'
p1209
sg25
S'James Starks'
p1210
sg27
S'--'
p1211
sg29
S'L34-37'
p1212
sg31
S'--'
p1213
sg33
S'--'
p1214
sg34
S'@MIN'
p1215
sg36
S'--'
p1216
sg38
S'--'
p1217
sg40
S'--'
p1218
ssg137
(dp1219
g5
S'--'
p1220
sg7
S'--'
p1221
sg9
g15
sg11
S'--'
p1222
sg13
g15
sg14
S'--'
p1223
sg16
S'2012'
p1224
sg18
S'16'
p1225
sg20
S'--'
p1226
sg22
S'12/23'
p1227
sg24
S'--'
p1228
sg25
S'James Starks'
p1229
sg27
S'--'
p1230
sg29
S'W55-7'
p1231
sg31
S'--'
p1232
sg33
S'--'
p1233
sg34
S'TEN'
p1234
sg36
S'--'
p1235
sg38
S'--'
p1236
sg40
S'--'
p1237
ssg10
(dp1238
g5
S'--'
p1239
sg7
S'--'
p1240
sg9
g15
sg11
S'--'
p1241
sg13
g15
sg14
S'--'
p1242
sg16
S'2012'
p1243
sg18
g10
sg20
S'--'
p1244
sg22
S'09/09'
p1245
sg24
S'--'
p1246
sg25
S'James Starks'
p1247
sg27
S'--'
p1248
sg29
S'L22-30'
p1249
sg31
S'--'
p1250
sg33
S'--'
p1251
sg34
S'SF'
p1252
sg36
S'--'
p1253
sg38
S'--'
p1254
sg40
S'--'
p1255
ssg133
(dp1256
g5
S'--'
p1257
sg7
S'--'
p1258
sg9
g15
sg11
S'--'
p1259
sg13
g15
sg14
S'--'
p1260
sg16
S'2012'
p1261
sg18
g133
sg20
S'--'
p1262
sg22
S'09/24'
p1263
sg24
S'--'
p1264
sg25
S'James Starks'
p1265
sg27
S'--'
p1266
sg29
S'L12-14'
p1267
sg31
S'--'
p1268
sg33
S'--'
p1269
sg34
S'@SEA'
p1270
sg36
S'--'
p1271
sg38
S'--'
p1272
sg40
S'--'
p1273
ssg62
(dp1274
g5
S'--'
p1275
sg7
S'--'
p1276
sg9
g15
sg11
S'--'
p1277
sg13
g15
sg14
S'--'
p1278
sg16
S'2012'
p1279
sg18
g62
sg20
S'--'
p1280
sg22
S'09/13'
p1281
sg24
S'--'
p1282
sg25
S'James Starks'
p1283
sg27
S'--'
p1284
sg29
S'W23-10'
p1285
sg31
S'--'
p1286
sg33
S'--'
p1287
sg34
S'CHI'
p1288
sg36
S'--'
p1289
sg38
S'--'
p1290
sg40
S'--'
p1291
ssg70
(dp1292
g5
S'--'
p1293
sg7
S'--'
p1294
sg9
g15
sg11
S'--'
p1295
sg13
g15
sg14
S'--'
p1296
sg16
S'2012'
p1297
sg18
g70
sg20
S'--'
p1298
sg22
S'10/07'
p1299
sg24
S'--'
p1300
sg25
S'James Starks'
p1301
sg27
S'--'
p1302
sg29
S'L27-30'
p1303
sg31
S'--'
p1304
sg33
S'--'
p1305
sg34
S'@IND'
p1306
sg36
S'--'
p1307
sg38
S'--'
p1308
sg40
S'--'
p1309
ssg87
(dp1310
g5
S'--'
p1311
sg7
S'--'
p1312
sg9
g15
sg11
S'--'
p1313
sg13
g15
sg14
S'--'
p1314
sg16
S'2012'
p1315
sg18
g87
sg20
S'--'
p1316
sg22
S'09/30'
p1317
sg24
S'--'
p1318
sg25
S'James Starks'
p1319
sg27
S'--'
p1320
sg29
S'W28-27'
p1321
sg31
S'--'
p1322
sg33
S'--'
p1323
sg34
S'NO'
p1324
sg36
S'--'
p1325
sg38
S'--'
p1326
sg40
S'--'
p1327
ssg84
(dp1328
g5
S'--'
p1329
sg7
S'--'
p1330
sg9
g15
sg11
S'--'
p1331
sg13
g15
sg14
S'--'
p1332
sg16
S'2012'
p1333
sg18
g84
sg20
S'--'
p1334
sg22
S'10/21'
p1335
sg24
S'--'
p1336
sg25
S'James Starks'
p1337
sg27
S'--'
p1338
sg29
S'W30-20'
p1339
sg31
S'--'
p1340
sg33
S'--'
p1341
sg34
S'@STL'
p1342
sg36
S'--'
p1343
sg38
S'--'
p1344
sg40
S'--'
p1345
ssg55
(dp1346
g5
S'--'
p1347
sg7
S'--'
p1348
sg9
g15
sg11
S'--'
p1349
sg13
g10
sg14
S'--'
p1350
sg16
S'2012'
p1351
sg18
g55
sg20
S'2.2'
p1352
sg22
S'10/14'
p1353
sg24
g15
sg25
S'James Starks'
p1354
sg27
g70
sg29
S'W42-24'
p1355
sg31
S'--'
p1356
sg33
S'--'
p1357
sg34
S'@HOU'
p1358
sg36
S'--'
p1359
sg38
S'11'
p1360
sg40
g87
ssg41
(dp1361
g5
S'--'
p1362
sg7
g10
sg9
g10
sg11
g15
sg13
g10
sg14
S'--'
p1363
sg16
S'2012'
p1364
sg18
g41
sg20
S'3.6'
p1365
sg22
S'11/04'
p1366
sg24
g15
sg25
S'James Starks'
p1367
sg27
S'17'
p1368
sg29
S'W31-17'
p1369
sg31
S'--'
p1370
sg33
S'--'
p1371
sg34
S'ARI'
p1372
sg36
S'--'
p1373
sg38
S'61'
p1374
sg40
S'14'
p1375
ssg28
(dp1376
g5
S'9.0'
p1377
sg7
S'--'
p1378
sg9
g15
sg11
S'--'
p1379
sg13
g10
sg14
g15
sg16
S'2012'
p1380
sg18
g28
sg20
S'8.0'
p1381
sg22
S'10/28'
p1382
sg24
g15
sg25
S'James Starks'
p1383
sg27
g10
sg29
S'W24-15'
p1384
sg31
g41
sg33
g10
sg34
S'JAC'
p1385
sg36
g41
sg38
g28
sg40
g28
sss.