(dp0
S'2015'
p1
(dp2
S'11'
p3
(dp4
S'RecAvg'
p5
S'--'
p6
sS'FUM'
p7
S'--'
p8
sS'GS'
p9
S'0'
p10
sS'Lost'
p11
S'--'
p12
sS'G'
p13
S'1'
p14
sS'RecTD'
p15
S'--'
p16
sS'Year'
p17
S'2015'
p18
sS'WK'
p19
S'11'
p20
sS'RushAvg'
p21
S'3.0'
p22
sS'Game Date'
p23
S'11/22'
p24
sS'RushTD'
p25
g10
sS'Player'
p26
S'Jay Prosch'
p27
sS'RushAtt'
p28
g14
sS'Result'
p29
S'W24-17'
p30
sS'RecYds'
p31
S'--'
p32
sS'Rec'
p33
S'--'
p34
sS'Opp'
p35
S'NYJ'
p36
sS'RecLng'
p37
S'--'
p38
sS'RushYds'
p39
S'3'
p40
sS'RushLng'
p41
g40
ssS'10'
p42
(dp43
g5
S'--'
p44
sg7
S'--'
p45
sg9
g10
sg11
S'--'
p46
sg13
g14
sg15
S'--'
p47
sg17
S'2015'
p48
sg19
S'10'
p49
sg21
S'--'
p50
sg23
S'11/16'
p51
sg25
S'--'
p52
sg26
S'Jay Prosch'
p53
sg28
S'--'
p54
sg29
S'W10-6'
p55
sg31
S'--'
p56
sg33
S'--'
p57
sg35
S'@CIN'
p58
sg37
S'--'
p59
sg39
S'--'
p60
sg41
S'--'
p61
ssS'13'
p62
(dp63
g5
S'--'
p64
sg7
S'--'
p65
sg9
g10
sg11
S'--'
p66
sg13
g14
sg15
S'--'
p67
sg17
S'2015'
p68
sg19
S'13'
p69
sg21
S'--'
p70
sg23
S'12/06'
p71
sg25
S'--'
p72
sg26
S'Jay Prosch'
p73
sg28
S'--'
p74
sg29
S'L21-30'
p75
sg31
S'--'
p76
sg33
S'--'
p77
sg35
S'@BUF'
p78
sg37
S'--'
p79
sg39
S'--'
p80
sg41
S'--'
p81
ssS'12'
p82
(dp83
g5
S'--'
p84
sg7
S'--'
p85
sg9
g10
sg11
S'--'
p86
sg13
g14
sg15
S'--'
p87
sg17
S'2015'
p88
sg19
S'12'
p89
sg21
S'--'
p90
sg23
S'11/29'
p91
sg25
S'--'
p92
sg26
S'Jay Prosch'
p93
sg28
S'--'
p94
sg29
S'W24-6'
p95
sg31
S'--'
p96
sg33
S'--'
p97
sg35
S'NO'
p98
sg37
S'--'
p99
sg39
S'--'
p100
sg41
S'--'
p101
ssS'15'
p102
(dp103
g5
S'--'
p104
sg7
S'--'
p105
sg9
g10
sg11
S'--'
p106
sg13
g14
sg15
S'--'
p107
sg17
S'2015'
p108
sg19
S'15'
p109
sg21
S'2.0'
p110
sg23
S'12/20'
p111
sg25
g10
sg26
S'Jay Prosch'
p112
sg28
g14
sg29
S'W16-10'
p113
sg31
S'--'
p114
sg33
S'--'
p115
sg35
S'@IND'
p116
sg37
S'--'
p117
sg39
S'2'
p118
sg41
g118
ssS'14'
p119
(dp120
g5
S'--'
p121
sg7
S'--'
p122
sg9
g10
sg11
S'--'
p123
sg13
g14
sg15
S'--'
p124
sg17
S'2015'
p125
sg19
S'14'
p126
sg21
S'--'
p127
sg23
S'12/13'
p128
sg25
S'--'
p129
sg26
S'Jay Prosch'
p130
sg28
S'--'
p131
sg29
S'L6-27'
p132
sg31
S'--'
p133
sg33
S'--'
p134
sg35
S'NE'
p135
sg37
S'--'
p136
sg39
S'--'
p137
sg41
S'--'
p138
ssS'17'
p139
(dp140
g5
S'--'
p141
sg7
S'--'
p142
sg9
g10
sg11
S'--'
p143
sg13
g14
sg15
S'--'
p144
sg17
S'2015'
p145
sg19
S'17'
p146
sg21
S'--'
p147
sg23
S'01/03'
p148
sg25
S'--'
p149
sg26
S'Jay Prosch'
p150
sg28
S'--'
p151
sg29
S'W30-6'
p152
sg31
S'--'
p153
sg33
S'--'
p154
sg35
S'JAC'
p155
sg37
S'--'
p156
sg39
S'--'
p157
sg41
S'--'
p158
ssS'16'
p159
(dp160
g5
S'--'
p161
sg7
S'--'
p162
sg9
g10
sg11
S'--'
p163
sg13
g14
sg15
S'--'
p164
sg17
S'2015'
p165
sg19
S'16'
p166
sg21
S'--'
p167
sg23
S'12/27'
p168
sg25
S'--'
p169
sg26
S'Jay Prosch'
p170
sg28
S'--'
p171
sg29
S'W34-6'
p172
sg31
S'--'
p173
sg33
S'--'
p174
sg35
S'@TEN'
p175
sg37
S'--'
p176
sg39
S'--'
p177
sg41
S'--'
p178
ssg14
(dp179
g5
S'--'
p180
sg7
S'--'
p181
sg9
g10
sg11
S'--'
p182
sg13
g14
sg15
S'--'
p183
sg17
S'2015'
p184
sg19
g14
sg21
S'--'
p185
sg23
S'09/13'
p186
sg25
S'--'
p187
sg26
S'Jay Prosch'
p188
sg28
S'--'
p189
sg29
S'L20-27'
p190
sg31
S'--'
p191
sg33
S'--'
p192
sg35
S'KC'
p193
sg37
S'--'
p194
sg39
S'--'
p195
sg41
S'--'
p196
ssg40
(dp197
g5
S'--'
p198
sg7
S'--'
p199
sg9
g14
sg11
S'--'
p200
sg13
g14
sg15
S'--'
p201
sg17
S'2015'
p202
sg19
g40
sg21
S'8.0'
p203
sg23
S'09/27'
p204
sg25
g10
sg26
S'Jay Prosch'
p205
sg28
g40
sg29
S'W19-9'
p206
sg31
S'--'
p207
sg33
S'--'
p208
sg35
S'TB'
p209
sg37
S'--'
p210
sg39
S'24'
p211
sg41
S'16'
p212
ssg118
(dp213
g5
S'--'
p214
sg7
S'--'
p215
sg9
g10
sg11
S'--'
p216
sg13
g14
sg15
S'--'
p217
sg17
S'2015'
p218
sg19
g118
sg21
S'4.0'
p219
sg23
S'09/20'
p220
sg25
g10
sg26
S'Jay Prosch'
p221
sg28
g14
sg29
S'L17-24'
p222
sg31
S'--'
p223
sg33
S'--'
p224
sg35
S'@CAR'
p225
sg37
S'--'
p226
sg39
S'4'
p227
sg41
g227
ssS'5'
p228
(dp229
g5
S'--'
p230
sg7
S'--'
p231
sg9
g10
sg11
S'--'
p232
sg13
g14
sg15
S'--'
p233
sg17
S'2015'
p234
sg19
g228
sg21
S'--'
p235
sg23
S'10/08'
p236
sg25
S'--'
p237
sg26
S'Jay Prosch'
p238
sg28
S'--'
p239
sg29
S'L20-27'
p240
sg31
S'--'
p241
sg33
S'--'
p242
sg35
S'IND'
p243
sg37
S'--'
p244
sg39
S'--'
p245
sg41
S'--'
p246
ssg227
(dp247
g5
S'--'
p248
sg7
S'--'
p249
sg9
g14
sg11
S'--'
p250
sg13
g14
sg15
S'--'
p251
sg17
S'2015'
p252
sg19
g227
sg21
S'--'
p253
sg23
S'10/04'
p254
sg25
S'--'
p255
sg26
S'Jay Prosch'
p256
sg28
S'--'
p257
sg29
S'L21-48'
p258
sg31
S'--'
p259
sg33
S'--'
p260
sg35
S'@ATL'
p261
sg37
S'--'
p262
sg39
S'--'
p263
sg41
S'--'
p264
ssS'7'
p265
(dp266
g5
S'--'
p267
sg7
S'--'
p268
sg9
g10
sg11
S'--'
p269
sg13
g14
sg15
S'--'
p270
sg17
S'2015'
p271
sg19
g265
sg21
S'--'
p272
sg23
S'10/25'
p273
sg25
S'--'
p274
sg26
S'Jay Prosch'
p275
sg28
S'--'
p276
sg29
S'L26-44'
p277
sg31
S'--'
p278
sg33
S'--'
p279
sg35
S'@MIA'
p280
sg37
S'--'
p281
sg39
S'--'
p282
sg41
S'--'
p283
ssS'6'
p284
(dp285
g5
S'--'
p286
sg7
S'--'
p287
sg9
g10
sg11
S'--'
p288
sg13
g14
sg15
S'--'
p289
sg17
S'2015'
p290
sg19
g284
sg21
S'--'
p291
sg23
S'10/18'
p292
sg25
S'--'
p293
sg26
S'Jay Prosch'
p294
sg28
S'--'
p295
sg29
S'W31-20'
p296
sg31
S'--'
p297
sg33
S'--'
p298
sg35
S'@JAC'
p299
sg37
S'--'
p300
sg39
S'--'
p301
sg41
S'--'
p302
ssS'9'
p303
(dp304
g5
S''
p305
sg7
g305
sg9
g305
sg11
g305
sg13
g305
sg15
g305
sg17
S'2015'
p306
sg19
g303
sg21
g305
sg23
S'Bye'
p307
sg25
g305
sg26
S'Jay Prosch'
p308
sg28
g305
sg29
g305
sg31
g305
sg33
g305
sg35
g305
sg37
g305
sg39
g305
sg41
g305
ssS'8'
p309
(dp310
g5
S'--'
p311
sg7
S'--'
p312
sg9
g10
sg11
S'--'
p313
sg13
g14
sg15
S'--'
p314
sg17
S'2015'
p315
sg19
g309
sg21
S'--'
p316
sg23
S'11/01'
p317
sg25
S'--'
p318
sg26
S'Jay Prosch'
p319
sg28
S'--'
p320
sg29
S'W20-6'
p321
sg31
S'--'
p322
sg33
S'--'
p323
sg35
S'TEN'
p324
sg37
S'--'
p325
sg39
S'--'
p326
sg41
S'--'
p327
sssS'2014'
p328
(dp329
g3
(dp330
g5
S'--'
p331
sg7
S'--'
p332
sg9
g10
sg11
S'--'
p333
sg13
g14
sg15
S'--'
p334
sg17
S'2014'
p335
sg19
S'11'
p336
sg21
S'--'
p337
sg23
S'11/16'
p338
sg25
S'--'
p339
sg26
S'Jay Prosch'
p340
sg28
S'--'
p341
sg29
S'W23-7'
p342
sg31
S'--'
p343
sg33
S'--'
p344
sg35
S'@CLE'
p345
sg37
S'--'
p346
sg39
S'--'
p347
sg41
S'--'
p348
ssg42
(dp349
g5
g305
sg7
g305
sg9
g305
sg11
g305
sg13
g305
sg15
g305
sg17
S'2014'
p350
sg19
S'10'
p351
sg21
g305
sg23
S'Bye'
p352
sg25
g305
sg26
S'Jay Prosch'
p353
sg28
g305
sg29
g305
sg31
g305
sg33
g305
sg35
g305
sg37
g305
sg39
g305
sg41
g305
ssg62
(dp354
g5
S'--'
p355
sg7
S'--'
p356
sg9
g10
sg11
S'--'
p357
sg13
g14
sg15
S'--'
p358
sg17
S'2014'
p359
sg19
S'13'
p360
sg21
S'--'
p361
sg23
S'11/30'
p362
sg25
S'--'
p363
sg26
S'Jay Prosch'
p364
sg28
S'--'
p365
sg29
S'W45-21'
p366
sg31
S'--'
p367
sg33
S'--'
p368
sg35
S'TEN'
p369
sg37
S'--'
p370
sg39
S'--'
p371
sg41
S'--'
p372
ssg82
(dp373
g5
S'--'
p374
sg7
S'--'
p375
sg9
g10
sg11
S'--'
p376
sg13
g14
sg15
S'--'
p377
sg17
S'2014'
p378
sg19
S'12'
p379
sg21
S'--'
p380
sg23
S'11/23'
p381
sg25
S'--'
p382
sg26
S'Jay Prosch'
p383
sg28
S'--'
p384
sg29
S'L13-22'
p385
sg31
S'--'
p386
sg33
S'--'
p387
sg35
S'CIN'
p388
sg37
S'--'
p389
sg39
S'--'
p390
sg41
S'--'
p391
ssg102
(dp392
g5
S'--'
p393
sg7
S'--'
p394
sg9
g10
sg11
S'--'
p395
sg13
g14
sg15
S'--'
p396
sg17
S'2014'
p397
sg19
S'15'
p398
sg21
S'--'
p399
sg23
S'12/14'
p400
sg25
S'--'
p401
sg26
S'Jay Prosch'
p402
sg28
S'--'
p403
sg29
S'L10-17'
p404
sg31
S'--'
p405
sg33
S'--'
p406
sg35
S'@IND'
p407
sg37
S'--'
p408
sg39
S'--'
p409
sg41
S'--'
p410
ssg119
(dp411
g5
S'--'
p412
sg7
S'--'
p413
sg9
g14
sg11
S'--'
p414
sg13
g14
sg15
S'--'
p415
sg17
S'2014'
p416
sg19
S'14'
p417
sg21
S'--'
p418
sg23
S'12/07'
p419
sg25
S'--'
p420
sg26
S'Jay Prosch'
p421
sg28
S'--'
p422
sg29
S'W27-13'
p423
sg31
S'--'
p424
sg33
S'--'
p425
sg35
S'@JAC'
p426
sg37
S'--'
p427
sg39
S'--'
p428
sg41
S'--'
p429
ssg139
(dp430
g5
S'--'
p431
sg7
S'--'
p432
sg9
g10
sg11
S'--'
p433
sg13
g14
sg15
S'--'
p434
sg17
S'2014'
p435
sg19
S'17'
p436
sg21
S'--'
p437
sg23
S'12/28'
p438
sg25
S'--'
p439
sg26
S'Jay Prosch'
p440
sg28
S'--'
p441
sg29
S'W23-17'
p442
sg31
S'--'
p443
sg33
S'--'
p444
sg35
S'JAC'
p445
sg37
S'--'
p446
sg39
S'--'
p447
sg41
S'--'
p448
ssg159
(dp449
g5
S'--'
p450
sg7
S'--'
p451
sg9
g14
sg11
S'--'
p452
sg13
g14
sg15
g10
sg17
S'2014'
p453
sg19
S'16'
p454
sg21
S'--'
p455
sg23
S'12/21'
p456
sg25
S'--'
p457
sg26
S'Jay Prosch'
p458
sg28
S'--'
p459
sg29
S'W25-13'
p460
sg31
g10
sg33
g10
sg35
S'BAL'
p461
sg37
S'--'
p462
sg39
S'--'
p463
sg41
S'--'
p464
ssg14
(dp465
g5
S'--'
p466
sg7
S'--'
p467
sg9
g14
sg11
S'--'
p468
sg13
g14
sg15
S'--'
p469
sg17
S'2014'
p470
sg19
g14
sg21
S'--'
p471
sg23
S'09/07'
p472
sg25
S'--'
p473
sg26
S'Jay Prosch'
p474
sg28
S'--'
p475
sg29
S'W17-6'
p476
sg31
S'--'
p477
sg33
S'--'
p478
sg35
S'WAS'
p479
sg37
S'--'
p480
sg39
S'--'
p481
sg41
S'--'
p482
ssg40
(dp483
g5
S'--'
p484
sg7
S'--'
p485
sg9
g14
sg11
S'--'
p486
sg13
g14
sg15
g10
sg17
S'2014'
p487
sg19
g40
sg21
S'--'
p488
sg23
S'09/21'
p489
sg25
S'--'
p490
sg26
S'Jay Prosch'
p491
sg28
S'--'
p492
sg29
S'L17-30'
p493
sg31
g10
sg33
g10
sg35
S'@NYG'
p494
sg37
S'--'
p495
sg39
S'--'
p496
sg41
S'--'
p497
ssg118
(dp498
g5
S'--'
p499
sg7
S'--'
p500
sg9
g10
sg11
S'--'
p501
sg13
g14
sg15
S'--'
p502
sg17
S'2014'
p503
sg19
g118
sg21
S'--'
p504
sg23
S'09/14'
p505
sg25
S'--'
p506
sg26
S'Jay Prosch'
p507
sg28
S'--'
p508
sg29
S'W30-14'
p509
sg31
S'--'
p510
sg33
S'--'
p511
sg35
S'@OAK'
p512
sg37
S'--'
p513
sg39
S'--'
p514
sg41
S'--'
p515
ssg228
(dp516
g5
S'--'
p517
sg7
S'--'
p518
sg9
g10
sg11
S'--'
p519
sg13
g14
sg15
S'--'
p520
sg17
S'2014'
p521
sg19
g228
sg21
S'--'
p522
sg23
S'10/05'
p523
sg25
S'--'
p524
sg26
S'Jay Prosch'
p525
sg28
S'--'
p526
sg29
S'L17-20'
p527
sg31
S'--'
p528
sg33
S'--'
p529
sg35
S'@DAL'
p530
sg37
S'--'
p531
sg39
S'--'
p532
sg41
S'--'
p533
ssg227
(dp534
g5
S'24.0'
p535
sg7
S'--'
p536
sg9
g14
sg11
S'--'
p537
sg13
g14
sg15
g10
sg17
S'2014'
p538
sg19
g227
sg21
S'--'
p539
sg23
S'09/28'
p540
sg25
S'--'
p541
sg26
S'Jay Prosch'
p542
sg28
S'--'
p543
sg29
S'W23-17'
p544
sg31
S'24'
p545
sg33
g14
sg35
S'BUF'
p546
sg37
S'24'
p547
sg39
S'--'
p548
sg41
S'--'
p549
ssg265
(dp550
g5
S'--'
p551
sg7
S'--'
p552
sg9
g10
sg11
S'--'
p553
sg13
g14
sg15
S'--'
p554
sg17
S'2014'
p555
sg19
g265
sg21
S'--'
p556
sg23
S'10/20'
p557
sg25
S'--'
p558
sg26
S'Jay Prosch'
p559
sg28
S'--'
p560
sg29
S'L23-30'
p561
sg31
S'--'
p562
sg33
S'--'
p563
sg35
S'@PIT'
p564
sg37
S'--'
p565
sg39
S'--'
p566
sg41
S'--'
p567
ssg284
(dp568
g5
S'--'
p569
sg7
S'--'
p570
sg9
g10
sg11
S'--'
p571
sg13
g14
sg15
S'--'
p572
sg17
S'2014'
p573
sg19
g284
sg21
S'--'
p574
sg23
S'10/09'
p575
sg25
S'--'
p576
sg26
S'Jay Prosch'
p577
sg28
S'--'
p578
sg29
S'L28-33'
p579
sg31
S'--'
p580
sg33
S'--'
p581
sg35
S'IND'
p582
sg37
S'--'
p583
sg39
S'--'
p584
sg41
S'--'
p585
ssg303
(dp586
g5
S'--'
p587
sg7
S'--'
p588
sg9
g10
sg11
S'--'
p589
sg13
g14
sg15
S'--'
p590
sg17
S'2014'
p591
sg19
g303
sg21
S'--'
p592
sg23
S'11/02'
p593
sg25
S'--'
p594
sg26
S'Jay Prosch'
p595
sg28
S'--'
p596
sg29
S'L21-31'
p597
sg31
S'--'
p598
sg33
S'--'
p599
sg35
S'PHI'
p600
sg37
S'--'
p601
sg39
S'--'
p602
sg41
S'--'
p603
ssg309
(dp604
g5
S'--'
p605
sg7
S'--'
p606
sg9
g10
sg11
S'--'
p607
sg13
g14
sg15
S'--'
p608
sg17
S'2014'
p609
sg19
g309
sg21
S'--'
p610
sg23
S'10/26'
p611
sg25
S'--'
p612
sg26
S'Jay Prosch'
p613
sg28
S'--'
p614
sg29
S'W30-16'
p615
sg31
S'--'
p616
sg33
S'--'
p617
sg35
S'@TEN'
p618
sg37
S'--'
p619
sg39
S'--'
p620
sg41
S'--'
p621
sss.