(dp0
S'2015'
p1
(dp2
S'11'
p3
(dp4
S'RecAvg'
p5
S'11.5'
p6
sS'FUM'
p7
S'--'
p8
sS'GS'
p9
S'0'
p10
sS'Lost'
p11
S'--'
p12
sS'G'
p13
S'1'
p14
sS'RecTD'
p15
g10
sS'Year'
p16
S'2015'
p17
sS'WK'
p18
S'11'
p19
sS'RushAvg'
p20
S'3.3'
p21
sS'Game Date'
p22
S'11/22'
p23
sS'RushTD'
p24
g10
sS'Player'
p25
S'Jay Ajayi'
p26
sS'RushAtt'
p27
S'4'
p28
sS'Result'
p29
S'L14-24'
p30
sS'RecYds'
p31
S'23'
p32
sS'Rec'
p33
S'2'
p34
sS'Opp'
p35
S'DAL'
p36
sS'RecLng'
p37
S'20'
p38
sS'RushYds'
p39
S'13'
p40
sS'RushLng'
p41
S'5'
p42
ssS'10'
p43
(dp44
g5
S'--'
p45
sg7
S'--'
p46
sg9
g10
sg11
S'--'
p47
sg13
g14
sg15
S'--'
p48
sg16
S'2015'
p49
sg18
S'10'
p50
sg20
S'8.0'
p51
sg22
S'11/15'
p52
sg24
g10
sg25
S'Jay Ajayi'
p53
sg27
S'6'
p54
sg29
S'W20-19'
p55
sg31
S'--'
p56
sg33
S'--'
p57
sg35
S'@PHI'
p58
sg37
S'--'
p59
sg39
S'48'
p60
sg41
S'24'
p61
ssS'13'
p62
(dp63
g5
S'--'
p64
sg7
S'--'
p65
sg9
g10
sg11
S'--'
p66
sg13
g14
sg15
S'--'
p67
sg16
S'2015'
p68
sg18
S'13'
p69
sg20
S'3.0'
p70
sg22
S'12/06'
p71
sg24
g10
sg25
S'Jay Ajayi'
p72
sg27
g28
sg29
S'W15-13'
p73
sg31
S'--'
p74
sg33
S'--'
p75
sg35
S'BAL'
p76
sg37
S'--'
p77
sg39
S'12'
p78
sg41
g28
ssS'12'
p79
(dp80
g5
S'13.0'
p81
sg7
S'--'
p82
sg9
g10
sg11
S'--'
p83
sg13
g14
sg15
g10
sg16
S'2015'
p84
sg18
S'12'
p85
sg20
S'2.0'
p86
sg22
S'11/29'
p87
sg24
g10
sg25
S'Jay Ajayi'
p88
sg27
S'3'
p89
sg29
S'L20-38'
p90
sg31
S'52'
p91
sg33
g28
sg35
S'@NYJ'
p92
sg37
S'15'
p93
sg39
g54
sg41
g42
ssS'15'
p94
(dp95
g5
S'15.0'
p96
sg7
S'--'
p97
sg9
g10
sg11
S'--'
p98
sg13
g14
sg15
g10
sg16
S'2015'
p99
sg18
S'15'
p100
sg20
S'4.5'
p101
sg22
S'12/20'
p102
sg24
g14
sg25
S'Jay Ajayi'
p103
sg27
g54
sg29
S'L14-30'
p104
sg31
S'15'
p105
sg33
g14
sg35
S'@SD'
p106
sg37
S'15'
p107
sg39
S'27'
p108
sg41
S'12T'
p109
ssS'14'
p110
(dp111
g5
S'--'
p112
sg7
S'--'
p113
sg9
g10
sg11
S'--'
p114
sg13
g14
sg15
S'--'
p115
sg16
S'2015'
p116
sg18
S'14'
p117
sg20
S'3.0'
p118
sg22
S'12/14'
p119
sg24
g10
sg25
S'Jay Ajayi'
p120
sg27
g42
sg29
S'L24-31'
p121
sg31
S'--'
p122
sg33
S'--'
p123
sg35
S'NYG'
p124
sg37
S'--'
p125
sg39
S'15'
p126
sg41
S'9'
p127
ssS'17'
p128
(dp129
g5
S'--'
p130
sg7
S'--'
p131
sg9
g10
sg11
S'--'
p132
sg13
g14
sg15
S'--'
p133
sg16
S'2015'
p134
sg18
S'17'
p135
sg20
S'0.3'
p136
sg22
S'01/03'
p137
sg24
g10
sg25
S'Jay Ajayi'
p138
sg27
S'7'
p139
sg29
S'W20-10'
p140
sg31
S'--'
p141
sg33
S'--'
p142
sg35
S'NE'
p143
sg37
S'--'
p144
sg39
g34
sg41
g28
ssS'16'
p145
(dp146
g5
S'--'
p147
sg7
S'--'
p148
sg9
g10
sg11
S'--'
p149
sg13
g14
sg15
S'--'
p150
sg16
S'2015'
p151
sg18
S'16'
p152
sg20
S'2.6'
p153
sg22
S'12/27'
p154
sg24
g10
sg25
S'Jay Ajayi'
p155
sg27
g127
sg29
S'L12-18'
p156
sg31
S'--'
p157
sg33
S'--'
p158
sg35
S'IND'
p159
sg37
S'--'
p160
sg39
S'23'
p161
sg41
S'10'
p162
ssg127
(dp163
g5
S'--'
p164
sg7
S'--'
p165
sg9
g10
sg11
S'--'
p166
sg13
g14
sg15
S'--'
p167
sg16
S'2015'
p168
sg18
g127
sg20
S'8.2'
p169
sg22
S'11/08'
p170
sg24
g10
sg25
S'Jay Ajayi'
p171
sg27
g42
sg29
S'L17-33'
p172
sg31
S'--'
p173
sg33
S'--'
p174
sg35
S'@BUF'
p175
sg37
S'--'
p176
sg39
S'41'
p177
sg41
S'23'
p178
sss.