(dp0
S'2015'
p1
(dp2
S'11'
p3
(dp4
S'RecAvg'
p5
S'--'
p6
sS'FUM'
p7
S'--'
p8
sS'GS'
p9
S'1'
p10
sS'Lost'
p11
S'--'
p12
sS'G'
p13
g10
sS'RecTD'
p14
S'--'
p15
sS'Year'
p16
S'2015'
p17
sS'WK'
p18
S'11'
p19
sS'RushAvg'
p20
S'3.5'
p21
sS'Game Date'
p22
S'11/22'
p23
sS'RushTD'
p24
S'2'
p25
sS'Player'
p26
S'Jeremy Hill'
p27
sS'RushAtt'
p28
S'13'
p29
sS'Result'
p30
S'L31-34'
p31
sS'RecYds'
p32
S'--'
p33
sS'Rec'
p34
S'--'
p35
sS'Opp'
p36
S'@ARI'
p37
sS'RecLng'
p38
S'--'
p39
sS'RushYds'
p40
S'45'
p41
sS'RushLng'
p42
S'9'
p43
ssS'10'
p44
(dp45
g5
S'1.7'
p46
sg7
S'--'
p47
sg9
g10
sg11
S'--'
p48
sg13
g10
sg14
S'0'
p49
sg16
S'2015'
p50
sg18
S'10'
p51
sg20
S'2.1'
p52
sg22
S'11/16'
p53
sg24
g49
sg26
S'Jeremy Hill'
p54
sg28
S'7'
p55
sg30
S'L6-10'
p56
sg32
S'5'
p57
sg34
S'3'
p58
sg36
S'HOU'
p59
sg38
g57
sg40
S'15'
p60
sg42
S'6'
p61
ssS'13'
p62
(dp63
g5
S'--'
p64
sg7
S'--'
p65
sg9
g10
sg11
S'--'
p66
sg13
g10
sg14
g49
sg16
S'2015'
p67
sg18
S'13'
p68
sg20
S'4.5'
p69
sg22
S'12/06'
p70
sg24
g10
sg26
S'Jeremy Hill'
p71
sg28
S'22'
p72
sg30
S'W37-3'
p73
sg32
g49
sg34
g49
sg36
S'@CLE'
p74
sg38
S'--'
p75
sg40
S'98'
p76
sg42
S'17'
p77
ssS'12'
p78
(dp79
g5
S'14.0'
p80
sg7
S'--'
p81
sg9
g10
sg11
S'--'
p82
sg13
g10
sg14
g49
sg16
S'2015'
p83
sg18
S'12'
p84
sg20
S'5.4'
p85
sg22
S'11/29'
p86
sg24
g49
sg26
S'Jeremy Hill'
p87
sg28
S'16'
p88
sg30
S'W31-7'
p89
sg32
S'14'
p90
sg34
g10
sg36
S'STL'
p91
sg38
S'14'
p92
sg40
S'86'
p93
sg42
S'15'
p94
ssS'15'
p95
(dp96
g5
S'--'
p97
sg7
g10
sg9
g49
sg11
g10
sg13
g10
sg14
g49
sg16
S'2015'
p98
sg18
S'15'
p99
sg20
S'1.6'
p100
sg22
S'12/20'
p101
sg24
g25
sg26
S'Jeremy Hill'
p102
sg28
S'19'
p103
sg30
S'W24-14'
p104
sg32
g49
sg34
g49
sg36
S'@SF'
p105
sg38
S'--'
p106
sg40
S'31'
p107
sg42
g43
ssS'14'
p108
(dp109
g5
S'4.0'
p110
sg7
S'--'
p111
sg9
g10
sg11
S'--'
p112
sg13
g10
sg14
g49
sg16
S'2015'
p113
sg18
S'14'
p114
sg20
S'2.3'
p115
sg22
S'12/13'
p116
sg24
g49
sg26
S'Jeremy Hill'
p117
sg28
g55
sg30
S'L20-33'
p118
sg32
S'8'
p119
sg34
g25
sg36
S'PIT'
p120
sg38
g57
sg40
S'16'
p121
sg42
S'12'
p122
ssS'17'
p123
(dp124
g5
S'9.5'
p125
sg7
S'--'
p126
sg9
g10
sg11
S'--'
p127
sg13
g10
sg14
g49
sg16
S'2015'
p128
sg18
S'17'
p129
sg20
S'6.0'
p130
sg22
S'01/03'
p131
sg24
g10
sg26
S'Jeremy Hill'
p132
sg28
S'16'
p133
sg30
S'W24-16'
p134
sg32
S'19'
p135
sg34
g25
sg36
S'BAL'
p136
sg38
S'13'
p137
sg40
S'96'
p138
sg42
S'38T'
p139
ssS'16'
p140
(dp141
g5
S'-1.0'
p142
sg7
S'--'
p143
sg9
g10
sg11
S'--'
p144
sg13
g10
sg14
g49
sg16
S'2015'
p145
sg18
S'16'
p146
sg20
S'3.3'
p147
sg22
S'12/28'
p148
sg24
g49
sg26
S'Jeremy Hill'
p149
sg28
S'19'
p150
sg30
S'L17-20'
p151
sg32
S'-2'
p152
sg34
g25
sg36
S'@DEN'
p153
sg38
g25
sg40
S'63'
p154
sg42
S'14'
p155
ssg10
(dp156
g5
S'--'
p157
sg7
S'--'
p158
sg9
g10
sg11
S'--'
p159
sg13
g10
sg14
S'--'
p160
sg16
S'2015'
p161
sg18
g10
sg20
S'3.3'
p162
sg22
S'09/13'
p163
sg24
g25
sg26
S'Jeremy Hill'
p164
sg28
S'19'
p165
sg30
S'W33-13'
p166
sg32
S'--'
p167
sg34
S'--'
p168
sg36
S'@OAK'
p169
sg38
S'--'
p170
sg40
S'63'
p171
sg42
S'11'
p172
ssg58
(dp173
g5
S'--'
p174
sg7
S'--'
p175
sg9
g10
sg11
S'--'
p176
sg13
g10
sg14
S'--'
p177
sg16
S'2015'
p178
sg18
g58
sg20
S'1.8'
p179
sg22
S'09/27'
p180
sg24
g49
sg26
S'Jeremy Hill'
p181
sg28
S'12'
p182
sg30
S'W28-24'
p183
sg32
S'--'
p184
sg34
S'--'
p185
sg36
S'@BAL'
p186
sg38
S'--'
p187
sg40
S'21'
p188
sg42
g61
ssg25
(dp189
g5
S'2.0'
p190
sg7
g25
sg9
g10
sg11
g25
sg13
g10
sg14
g49
sg16
S'2015'
p191
sg18
g25
sg20
S'3.9'
p192
sg22
S'09/20'
p193
sg24
g49
sg26
S'Jeremy Hill'
p194
sg28
S'10'
p195
sg30
S'W24-19'
p196
sg32
g25
sg34
g10
sg36
S'SD'
p197
sg38
g25
sg40
S'39'
p198
sg42
g43
ssg57
(dp199
g5
S'12.0'
p200
sg7
S'--'
p201
sg9
g10
sg11
S'--'
p202
sg13
g10
sg14
g49
sg16
S'2015'
p203
sg18
g57
sg20
S'1.6'
p204
sg22
S'10/11'
p205
sg24
g49
sg26
S'Jeremy Hill'
p206
sg28
g119
sg30
S'W27-24'
p207
sg32
S'12'
p208
sg34
g10
sg36
S'SEA'
p209
sg38
S'12'
p210
sg40
S'13'
p211
sg42
g57
ssS'4'
p212
(dp213
g5
S'--'
p214
sg7
S'--'
p215
sg9
g10
sg11
S'--'
p216
sg13
g10
sg14
S'--'
p217
sg16
S'2015'
p218
sg18
g212
sg20
S'4.4'
p219
sg22
S'10/04'
p220
sg24
g58
sg26
S'Jeremy Hill'
p221
sg28
g43
sg30
S'W36-21'
p222
sg32
S'--'
p223
sg34
S'--'
p224
sg36
S'KC'
p225
sg38
S'--'
p226
sg40
S'40'
p227
sg42
S'10'
p228
ssg55
(dp229
g5
S''
p230
sg7
g230
sg9
g230
sg11
g230
sg13
g230
sg14
g230
sg16
S'2015'
p231
sg18
g55
sg20
g230
sg22
S'Bye'
p232
sg24
g230
sg26
S'Jeremy Hill'
p233
sg28
g230
sg30
g230
sg32
g230
sg34
g230
sg36
g230
sg38
g230
sg40
g230
sg42
g230
ssg61
(dp234
g5
S'13.0'
p235
sg7
S'--'
p236
sg9
g10
sg11
S'--'
p237
sg13
g10
sg14
g10
sg16
S'2015'
p238
sg18
g61
sg20
S'3.5'
p239
sg22
S'10/18'
p240
sg24
g49
sg26
S'Jeremy Hill'
p241
sg28
S'16'
p242
sg30
S'W34-21'
p243
sg32
S'13'
p244
sg34
g10
sg36
S'@BUF'
p245
sg38
S'13T'
p246
sg40
S'56'
p247
sg42
S'10'
p248
ssg43
(dp249
g5
S'0.0'
p250
sg7
S'--'
p251
sg9
g10
sg11
S'--'
p252
sg13
g10
sg14
g49
sg16
S'2015'
p253
sg18
g43
sg20
S'3.5'
p254
sg22
S'11/05'
p255
sg24
g49
sg26
S'Jeremy Hill'
p256
sg28
S'15'
p257
sg30
S'W31-10'
p258
sg32
g49
sg34
g10
sg36
S'CLE'
p259
sg38
g49
sg40
S'52'
p260
sg42
S'13'
p261
ssg119
(dp262
g5
S'8.0'
p263
sg7
S'--'
p264
sg9
g10
sg11
S'--'
p265
sg13
g10
sg14
g49
sg16
S'2015'
p266
sg18
g119
sg20
S'4.0'
p267
sg22
S'11/01'
p268
sg24
g49
sg26
S'Jeremy Hill'
p269
sg28
S'15'
p270
sg30
S'W16-10'
p271
sg32
g119
sg34
g10
sg36
S'@PIT'
p272
sg38
g119
sg40
S'60'
p273
sg42
S'15'
p274
sssS'2014'
p275
(dp276
g3
(dp277
g5
S'13.0'
p278
sg7
g10
sg9
g10
sg11
g49
sg13
g10
sg14
g49
sg16
S'2014'
p279
sg18
S'11'
p280
sg20
S'5.6'
p281
sg22
S'11/16'
p282
sg24
g49
sg26
S'Jeremy Hill'
p283
sg28
S'27'
p284
sg30
S'W27-10'
p285
sg32
S'13'
p286
sg34
g10
sg36
S'@NO'
p287
sg38
S'13'
p288
sg40
S'152'
p289
sg42
S'62'
p290
ssg44
(dp291
g5
S'6.0'
p292
sg7
g10
sg9
g10
sg11
g10
sg13
g10
sg14
g49
sg16
S'2014'
p293
sg18
S'10'
p294
sg20
S'4.6'
p295
sg22
S'11/06'
p296
sg24
g49
sg26
S'Jeremy Hill'
p297
sg28
S'12'
p298
sg30
S'L3-24'
p299
sg32
g61
sg34
g10
sg36
S'CLE'
p300
sg38
g61
sg40
S'55'
p301
sg42
S'13'
p302
ssg62
(dp303
g5
S'3.0'
p304
sg7
S'--'
p305
sg9
g10
sg11
S'--'
p306
sg13
g10
sg14
g49
sg16
S'2014'
p307
sg18
S'13'
p308
sg20
S'3.1'
p309
sg22
S'11/30'
p310
sg24
g49
sg26
S'Jeremy Hill'
p311
sg28
S'13'
p312
sg30
S'W14-13'
p313
sg32
S'12'
p314
sg34
g212
sg36
S'@TB'
p315
sg38
g61
sg40
S'40'
p316
sg42
S'12'
p317
ssg78
(dp318
g5
S'9.0'
p319
sg7
S'--'
p320
sg9
g49
sg11
S'--'
p321
sg13
g10
sg14
g49
sg16
S'2014'
p322
sg18
S'12'
p323
sg20
S'4.8'
p324
sg22
S'11/23'
p325
sg24
g10
sg26
S'Jeremy Hill'
p326
sg28
S'18'
p327
sg30
S'W22-13'
p328
sg32
g43
sg34
g10
sg36
S'@HOU'
p329
sg38
g43
sg40
S'87'
p330
sg42
S'30'
p331
ssg95
(dp332
g5
S'4.0'
p333
sg7
g25
sg9
g10
sg11
g49
sg13
g10
sg14
g49
sg16
S'2014'
p334
sg18
S'15'
p335
sg20
S'5.9'
p336
sg22
S'12/14'
p337
sg24
g25
sg26
S'Jeremy Hill'
p338
sg28
S'25'
p339
sg30
S'W30-0'
p340
sg32
g212
sg34
g10
sg36
S'@CLE'
p341
sg38
g212
sg40
S'148'
p342
sg42
S'21'
p343
ssg108
(dp344
g5
S'7.0'
p345
sg7
S'--'
p346
sg9
g49
sg11
S'--'
p347
sg13
g10
sg14
g49
sg16
S'2014'
p348
sg18
S'14'
p349
sg20
S'5.8'
p350
sg22
S'12/07'
p351
sg24
g49
sg26
S'Jeremy Hill'
p352
sg28
g119
sg30
S'L21-42'
p353
sg32
S'21'
p354
sg34
g58
sg36
S'PIT'
p355
sg38
S'15'
p356
sg40
S'46'
p357
sg42
S'15'
p358
ssg123
(dp359
g5
S'5.0'
p360
sg7
S'--'
p361
sg9
g10
sg11
S'--'
p362
sg13
g10
sg14
g49
sg16
S'2014'
p363
sg18
S'17'
p364
sg20
S'4.3'
p365
sg22
S'12/28'
p366
sg24
g49
sg26
S'Jeremy Hill'
p367
sg28
S'23'
p368
sg30
S'L17-27'
p369
sg32
S'10'
p370
sg34
g25
sg36
S'@PIT'
p371
sg38
g61
sg40
S'100'
p372
sg42
S'22'
p373
ssg140
(dp374
g5
S'--'
p375
sg7
g10
sg9
g10
sg11
g10
sg13
g10
sg14
S'--'
p376
sg16
S'2014'
p377
sg18
S'16'
p378
sg20
S'6.7'
p379
sg22
S'12/22'
p380
sg24
g10
sg26
S'Jeremy Hill'
p381
sg28
S'22'
p382
sg30
S'W37-28'
p383
sg32
S'--'
p384
sg34
S'--'
p385
sg36
S'DEN'
p386
sg38
S'--'
p387
sg40
S'147'
p388
sg42
S'85T'
p389
ssg10
(dp390
g5
S'--'
p391
sg7
S'--'
p392
sg9
g49
sg11
S'--'
p393
sg13
g10
sg14
S'--'
p394
sg16
S'2014'
p395
sg18
g10
sg20
S'4.8'
p396
sg22
S'09/07'
p397
sg24
g49
sg26
S'Jeremy Hill'
p398
sg28
g212
sg30
S'W23-16'
p399
sg32
S'--'
p400
sg34
S'--'
p401
sg36
S'@BAL'
p402
sg38
S'--'
p403
sg40
S'19'
p404
sg42
g119
ssg58
(dp405
g5
S'--'
p406
sg7
S'--'
p407
sg9
g49
sg11
S'--'
p408
sg13
g10
sg14
S'--'
p409
sg16
S'2014'
p410
sg18
g58
sg20
S'5.6'
p411
sg22
S'09/21'
p412
sg24
g10
sg26
S'Jeremy Hill'
p413
sg28
g55
sg30
S'W33-7'
p414
sg32
S'--'
p415
sg34
S'--'
p416
sg36
S'TEN'
p417
sg38
S'--'
p418
sg40
S'39'
p419
sg42
S'12'
p420
ssg25
(dp421
g5
S'11.0'
p422
sg7
S'--'
p423
sg9
g49
sg11
S'--'
p424
sg13
g10
sg14
g49
sg16
S'2014'
p425
sg18
g25
sg20
S'4.9'
p426
sg22
S'09/14'
p427
sg24
g10
sg26
S'Jeremy Hill'
p428
sg28
S'15'
p429
sg30
S'W24-10'
p430
sg32
S'22'
p431
sg34
g25
sg36
S'ATL'
p432
sg38
S'18'
p433
sg40
S'74'
p434
sg42
S'13'
p435
ssg57
(dp436
g5
S'22.7'
p437
sg7
S'--'
p438
sg9
g49
sg11
S'--'
p439
sg13
g10
sg14
g49
sg16
S'2014'
p440
sg18
g57
sg20
S'0.5'
p441
sg22
S'10/05'
p442
sg24
g49
sg26
S'Jeremy Hill'
p443
sg28
g25
sg30
S'L17-43'
p444
sg32
S'68'
p445
sg34
g58
sg36
S'@NE'
p446
sg38
S'38'
p447
sg40
g10
sg42
g57
ssg212
(dp448
g5
g230
sg7
g230
sg9
g230
sg11
g230
sg13
g230
sg14
g230
sg16
S'2014'
p449
sg18
g212
sg20
g230
sg22
S'Bye'
p450
sg24
g230
sg26
S'Jeremy Hill'
p451
sg28
g230
sg30
g230
sg32
g230
sg34
g230
sg36
g230
sg38
g230
sg40
g230
sg42
g230
ssg55
(dp452
g5
S'--'
p453
sg7
S'--'
p454
sg9
g49
sg11
S'--'
p455
sg13
g10
sg14
g49
sg16
S'2014'
p456
sg18
g55
sg20
S'3.8'
p457
sg22
S'10/19'
p458
sg24
g49
sg26
S'Jeremy Hill'
p459
sg28
g212
sg30
S'L0-27'
p460
sg32
g49
sg34
g49
sg36
S'@IND'
p461
sg38
S'--'
p462
sg40
S'15'
p463
sg42
S'11'
p464
ssg61
(dp465
g5
S'3.3'
p466
sg7
S'--'
p467
sg9
g10
sg11
S'--'
p468
sg13
g10
sg14
g49
sg16
S'2014'
p469
sg18
g61
sg20
S'2.8'
p470
sg22
S'10/12'
p471
sg24
g10
sg26
S'Jeremy Hill'
p472
sg28
g119
sg30
S'T37-37'
p473
sg32
S'13'
p474
sg34
g212
sg36
S'CAR'
p475
sg38
g55
sg40
S'22'
p476
sg42
g57
ssg43
(dp477
g5
S'9.0'
p478
sg7
S'--'
p479
sg9
g10
sg11
S'--'
p480
sg13
g10
sg14
g49
sg16
S'2014'
p481
sg18
g43
sg20
S'6.4'
p482
sg22
S'11/02'
p483
sg24
g25
sg26
S'Jeremy Hill'
p484
sg28
S'24'
p485
sg30
S'W33-23'
p486
sg32
g43
sg34
g10
sg36
S'JAC'
p487
sg38
g43
sg40
S'154'
p488
sg42
S'60T'
p489
ssg119
(dp490
g5
S'7.0'
p491
sg7
S'--'
p492
sg9
g49
sg11
S'--'
p493
sg13
g10
sg14
g49
sg16
S'2014'
p494
sg18
g119
sg20
S'2.5'
p495
sg22
S'10/26'
p496
sg24
g49
sg26
S'Jeremy Hill'
p497
sg28
S'10'
p498
sg30
S'W27-24'
p499
sg32
S'28'
p500
sg34
g212
sg36
S'BAL'
p501
sg38
S'15'
p502
sg40
S'25'
p503
sg42
g57
sss.