(dp0
S'2015'
p1
(dp2
S'11'
p3
(dp4
S'RecAvg'
p5
S'5.7'
p6
sS'FUM'
p7
S'--'
p8
sS'GS'
p9
S'1'
p10
sS'Lost'
p11
S'--'
p12
sS'G'
p13
g10
sS'RecTD'
p14
S'0'
p15
sS'Year'
p16
S'2015'
p17
sS'WK'
p18
S'11'
p19
sS'RushAvg'
p20
S'1.9'
p21
sS'Game Date'
p22
S'11/22'
p23
sS'RushTD'
p24
g10
sS'Player'
p25
S'Jeremy Langford'
p26
sS'RushAtt'
p27
S'13'
p28
sS'Result'
p29
S'L15-17'
p30
sS'RecYds'
p31
S'17'
p32
sS'Rec'
p33
S'3'
p34
sS'Opp'
p35
S'DEN'
p36
sS'RecLng'
p37
S'9'
p38
sS'RushYds'
p39
S'25'
p40
sS'RushLng'
p41
S'5'
p42
ssS'10'
p43
(dp44
g5
S'15.6'
p45
sg7
S'--'
p46
sg9
g10
sg11
S'--'
p47
sg13
g10
sg14
g10
sg16
S'2015'
p48
sg18
S'10'
p49
sg20
S'3.7'
p50
sg22
S'11/15'
p51
sg24
g10
sg25
S'Jeremy Langford'
p52
sg27
S'20'
p53
sg29
S'W37-13'
p54
sg31
S'109'
p55
sg33
S'7'
p56
sg35
S'@STL'
p57
sg37
S'83T'
p58
sg39
S'73'
p59
sg41
S'23'
p60
ssS'13'
p61
(dp62
g5
S'4.5'
p63
sg7
S'--'
p64
sg9
g15
sg11
S'--'
p65
sg13
g10
sg14
g15
sg16
S'2015'
p66
sg18
S'13'
p67
sg20
S'4.9'
p68
sg22
S'12/06'
p69
sg24
g15
sg25
S'Jeremy Langford'
p70
sg27
S'12'
p71
sg29
S'L20-26'
p72
sg31
g38
sg33
S'2'
p73
sg35
S'SF'
p74
sg37
g56
sg39
S'59'
p75
sg41
S'14'
p76
ssS'12'
p77
(dp78
g5
S'5.0'
p79
sg7
S'--'
p80
sg9
g15
sg11
S'--'
p81
sg13
g10
sg14
g15
sg16
S'2015'
p82
sg18
S'12'
p83
sg20
S'4.0'
p84
sg22
S'11/26'
p85
sg24
g10
sg25
S'Jeremy Langford'
p86
sg27
S'12'
p87
sg29
S'W17-13'
p88
sg31
g42
sg33
g10
sg35
S'@GB'
p89
sg37
g42
sg39
S'48'
p90
sg41
S'14'
p91
ssS'15'
p92
(dp93
g5
S'11.0'
p94
sg7
S'--'
p95
sg9
g15
sg11
S'--'
p96
sg13
g10
sg14
g15
sg16
S'2015'
p97
sg18
S'15'
p98
sg20
S'4.2'
p99
sg22
S'12/20'
p100
sg24
g15
sg25
S'Jeremy Langford'
p101
sg27
S'11'
p102
sg29
S'L17-38'
p103
sg31
S'11'
p104
sg33
g10
sg35
S'@MIN'
p105
sg37
S'11'
p106
sg39
S'46'
p107
sg41
S'10'
p108
ssS'14'
p109
(dp110
g5
S'9.0'
p111
sg7
S'--'
p112
sg9
g15
sg11
S'--'
p113
sg13
g10
sg14
g15
sg16
S'2015'
p114
sg18
S'14'
p115
sg20
S'3.4'
p116
sg22
S'12/13'
p117
sg24
g15
sg25
S'Jeremy Langford'
p118
sg27
S'11'
p119
sg29
S'L21-24'
p120
sg31
S'27'
p121
sg33
g34
sg35
S'WAS'
p122
sg37
S'11'
p123
sg39
S'37'
p124
sg41
g38
ssS'17'
p125
(dp126
g5
S'--'
p127
sg7
S'--'
p128
sg9
g15
sg11
S'--'
p129
sg13
g10
sg14
S'--'
p130
sg16
S'2015'
p131
sg18
S'17'
p132
sg20
S'2.8'
p133
sg22
S'01/03'
p134
sg24
g15
sg25
S'Jeremy Langford'
p135
sg27
g42
sg29
S'L20-24'
p136
sg31
S'--'
p137
sg33
S'--'
p138
sg35
S'DET'
p139
sg37
S'--'
p140
sg39
S'14'
p141
sg41
S'4'
p142
ssS'16'
p143
(dp144
g5
S'--'
p145
sg7
S'--'
p146
sg9
g15
sg11
S'--'
p147
sg13
g10
sg14
g15
sg16
S'2015'
p148
sg18
S'16'
p149
sg20
S'4.4'
p150
sg22
S'12/27'
p151
sg24
g15
sg25
S'Jeremy Langford'
p152
sg27
S'19'
p153
sg29
S'W26-21'
p154
sg31
g15
sg33
g15
sg35
S'@TB'
p155
sg37
S'--'
p156
sg39
S'83'
p157
sg41
S'11'
p158
ssg10
(dp159
g5
S'--'
p160
sg7
S'--'
p161
sg9
g15
sg11
S'--'
p162
sg13
g10
sg14
S'--'
p163
sg16
S'2015'
p164
sg18
g10
sg20
S'1.0'
p165
sg22
S'09/13'
p166
sg24
g15
sg25
S'Jeremy Langford'
p167
sg27
g10
sg29
S'L23-31'
p168
sg31
S'--'
p169
sg33
S'--'
p170
sg35
S'GB'
p171
sg37
S'--'
p172
sg39
g10
sg41
g10
ssg34
(dp173
g5
S'--'
p174
sg7
S'--'
p175
sg9
g15
sg11
S'--'
p176
sg13
g10
sg14
S'--'
p177
sg16
S'2015'
p178
sg18
g34
sg20
S'--'
p179
sg22
S'09/27'
p180
sg24
S'--'
p181
sg25
S'Jeremy Langford'
p182
sg27
S'--'
p183
sg29
S'L0-26'
p184
sg31
S'--'
p185
sg33
S'--'
p186
sg35
S'@SEA'
p187
sg37
S'--'
p188
sg39
S'--'
p189
sg41
S'--'
p190
ssg73
(dp191
g5
S'--'
p192
sg7
S'--'
p193
sg9
g15
sg11
S'--'
p194
sg13
g10
sg14
S'--'
p195
sg16
S'2015'
p196
sg18
g73
sg20
S'3.5'
p197
sg22
S'09/20'
p198
sg24
g10
sg25
S'Jeremy Langford'
p199
sg27
S'6'
p200
sg29
S'L23-48'
p201
sg31
S'--'
p202
sg33
S'--'
p203
sg35
S'ARI'
p204
sg37
S'--'
p205
sg39
S'21'
p206
sg41
g200
ssg42
(dp207
g5
S'14.0'
p208
sg7
S'--'
p209
sg9
g15
sg11
S'--'
p210
sg13
g10
sg14
g15
sg16
S'2015'
p211
sg18
g42
sg20
S'-1.0'
p212
sg22
S'10/11'
p213
sg24
g15
sg25
S'Jeremy Langford'
p214
sg27
g73
sg29
S'W18-17'
p215
sg31
S'14'
p216
sg33
g10
sg35
S'@KC'
p217
sg37
S'14'
p218
sg39
S'-2'
p219
sg41
g15
ssg142
(dp220
g5
S'--'
p221
sg7
S'--'
p222
sg9
g15
sg11
S'--'
p223
sg13
g10
sg14
S'--'
p224
sg16
S'2015'
p225
sg18
g142
sg20
S'4.0'
p226
sg22
S'10/04'
p227
sg24
g15
sg25
S'Jeremy Langford'
p228
sg27
g10
sg29
S'W22-20'
p229
sg31
S'--'
p230
sg33
S'--'
p231
sg35
S'OAK'
p232
sg37
S'--'
p233
sg39
g142
sg41
g142
ssg56
(dp234
g5
S''
p235
sg7
g235
sg9
g235
sg11
g235
sg13
g235
sg14
g235
sg16
S'2015'
p236
sg18
g56
sg20
g235
sg22
S'Bye'
p237
sg24
g235
sg25
S'Jeremy Langford'
p238
sg27
g235
sg29
g235
sg31
g235
sg33
g235
sg35
g235
sg37
g235
sg39
g235
sg41
g235
ssg200
(dp239
g5
S'17.0'
p240
sg7
S'--'
p241
sg9
g15
sg11
S'--'
p242
sg13
g10
sg14
g15
sg16
S'2015'
p243
sg18
g200
sg20
S'2.0'
p244
sg22
S'10/18'
p245
sg24
g10
sg25
S'Jeremy Langford'
p246
sg27
g42
sg29
S'L34-37'
p247
sg31
S'17'
p248
sg33
g10
sg35
S'@DET'
p249
sg37
S'17'
p250
sg39
S'10'
p251
sg41
g200
ssg38
(dp252
g5
S'23.3'
p253
sg7
S'--'
p254
sg9
g15
sg11
S'--'
p255
sg13
g10
sg14
g15
sg16
S'2015'
p256
sg18
g38
sg20
S'4.0'
p257
sg22
S'11/09'
p258
sg24
g10
sg25
S'Jeremy Langford'
p259
sg27
S'18'
p260
sg29
S'W22-19'
p261
sg31
S'70'
p262
sg33
g34
sg35
S'@SD'
p263
sg37
S'31'
p264
sg39
S'72'
p265
sg41
S'16'
p266
ssS'8'
p267
(dp268
g5
S'--'
p269
sg7
S'--'
p270
sg9
g15
sg11
S'--'
p271
sg13
g10
sg14
g15
sg16
S'2015'
p272
sg18
g267
sg20
S'3.8'
p273
sg22
S'11/01'
p274
sg24
g15
sg25
S'Jeremy Langford'
p275
sg27
S'12'
p276
sg29
S'L20-23'
p277
sg31
g15
sg33
g15
sg35
S'MIN'
p278
sg37
S'--'
p279
sg39
S'46'
p280
sg41
g38
sss.