(dp0
S'2015'
p1
(dp2
S'11'
p3
(dp4
S'RecAvg'
p5
S'7.5'
p6
sS'FUM'
p7
S'--'
p8
sS'GS'
p9
S'0'
p10
sS'Lost'
p11
S'--'
p12
sS'G'
p13
S'1'
p14
sS'RecTD'
p15
g10
sS'Year'
p16
S'2015'
p17
sS'WK'
p18
S'11'
p19
sS'RushAvg'
p20
S'--'
p21
sS'Game Date'
p22
S'11/22'
p23
sS'RushTD'
p24
S'--'
p25
sS'Player'
p26
S'Jerick McKinnon'
p27
sS'RushAtt'
p28
S'--'
p29
sS'Result'
p30
S'L13-30'
p31
sS'RecYds'
p32
S'15'
p33
sS'Rec'
p34
S'2'
p35
sS'Opp'
p36
S'GB'
p37
sS'RecLng'
p38
S'13'
p39
sS'RushYds'
p40
S'--'
p41
sS'RushLng'
p42
S'--'
p43
ssS'10'
p44
(dp45
g5
S'7.0'
p46
sg7
S'--'
p47
sg9
g10
sg11
S'--'
p48
sg13
g14
sg15
g10
sg16
S'2015'
p49
sg18
S'10'
p50
sg20
S'--'
p51
sg22
S'11/15'
p52
sg24
S'--'
p53
sg26
S'Jerick McKinnon'
p54
sg28
S'--'
p55
sg30
S'W30-14'
p56
sg32
S'7'
p57
sg34
g14
sg36
S'@OAK'
p58
sg38
g57
sg40
S'--'
p59
sg42
S'--'
p60
ssS'13'
p61
(dp62
g5
S'2.0'
p63
sg7
S'--'
p64
sg9
g10
sg11
S'--'
p65
sg13
g14
sg15
g10
sg16
S'2015'
p66
sg18
S'13'
p67
sg20
S'4.5'
p68
sg22
S'12/06'
p69
sg24
g10
sg26
S'Jerick McKinnon'
p70
sg28
S'4'
p71
sg30
S'L7-38'
p72
sg32
S'6'
p73
sg34
S'3'
p74
sg36
S'SEA'
p75
sg38
g57
sg40
S'18'
p76
sg42
S'12'
p77
ssS'12'
p78
(dp79
g5
S'--'
p80
sg7
S'--'
p81
sg9
g10
sg11
S'--'
p82
sg13
g14
sg15
S'--'
p83
sg16
S'2015'
p84
sg18
S'12'
p85
sg20
S'6.6'
p86
sg22
S'11/29'
p87
sg24
g10
sg26
S'Jerick McKinnon'
p88
sg28
S'5'
p89
sg30
S'W20-10'
p90
sg32
S'--'
p91
sg34
S'--'
p92
sg36
S'@ATL'
p93
sg38
S'--'
p94
sg40
S'33'
p95
sg42
S'10'
p96
ssS'15'
p97
(dp98
g5
S'19.0'
p99
sg7
S'--'
p100
sg9
g10
sg11
S'--'
p101
sg13
g14
sg15
g14
sg16
S'2015'
p102
sg18
S'15'
p103
sg20
S'1.4'
p104
sg22
S'12/20'
p105
sg24
g10
sg26
S'Jerick McKinnon'
p106
sg28
g57
sg30
S'W38-17'
p107
sg32
S'76'
p108
sg34
g71
sg36
S'CHI'
p109
sg38
S'30'
p110
sg40
S'10'
p111
sg42
g71
ssS'14'
p112
(dp113
g5
S'8.0'
p114
sg7
S'--'
p115
sg9
g10
sg11
S'--'
p116
sg13
g14
sg15
g10
sg16
S'2015'
p117
sg18
S'14'
p118
sg20
S'--'
p119
sg22
S'12/10'
p120
sg24
S'--'
p121
sg26
S'Jerick McKinnon'
p122
sg28
S'--'
p123
sg30
S'L20-23'
p124
sg32
S'8'
p125
sg34
g14
sg36
S'@ARI'
p126
sg38
g125
sg40
S'--'
p127
sg42
S'--'
p128
ssS'17'
p129
(dp130
g5
S'11.0'
p131
sg7
S'--'
p132
sg9
g10
sg11
S'--'
p133
sg13
g14
sg15
g10
sg16
S'2015'
p134
sg18
S'17'
p135
sg20
S'3.8'
p136
sg22
S'01/03'
p137
sg24
g10
sg26
S'Jerick McKinnon'
p138
sg28
g71
sg30
S'W20-13'
p139
sg32
S'33'
p140
sg34
g74
sg36
S'@GB'
p141
sg38
S'15'
p142
sg40
S'15'
p143
sg42
S'10'
p144
ssS'16'
p145
(dp146
g5
S'4.0'
p147
sg7
S'--'
p148
sg9
g10
sg11
S'--'
p149
sg13
g14
sg15
g10
sg16
S'2015'
p150
sg18
S'16'
p151
sg20
S'12.7'
p152
sg22
S'12/27'
p153
sg24
g35
sg26
S'Jerick McKinnon'
p154
sg28
g57
sg30
S'W49-17'
p155
sg32
g125
sg34
g35
sg36
S'NYG'
p156
sg38
g57
sg40
S'89'
p157
sg42
S'68T'
p158
ssg14
(dp159
g5
S'4.0'
p160
sg7
S'--'
p161
sg9
g10
sg11
S'--'
p162
sg13
g14
sg15
g10
sg16
S'2015'
p163
sg18
g14
sg20
S'6.7'
p164
sg22
S'09/14'
p165
sg24
g10
sg26
S'Jerick McKinnon'
p166
sg28
g74
sg30
S'L3-20'
p167
sg32
g125
sg34
g35
sg36
S'@SF'
p168
sg38
S'10'
p169
sg40
S'20'
p170
sg42
S'15'
p171
ssg74
(dp172
g5
S'--'
p173
sg7
S'--'
p174
sg9
g10
sg11
S'--'
p175
sg13
g14
sg15
g10
sg16
S'2015'
p176
sg18
g74
sg20
S'3.0'
p177
sg22
S'09/27'
p178
sg24
g10
sg26
S'Jerick McKinnon'
p179
sg28
g73
sg30
S'W31-14'
p180
sg32
g10
sg34
g10
sg36
S'SD'
p181
sg38
S'--'
p182
sg40
S'18'
p183
sg42
S'9'
p184
ssg35
(dp185
g5
S'--'
p186
sg7
S'--'
p187
sg9
g10
sg11
S'--'
p188
sg13
g14
sg15
S'--'
p189
sg16
S'2015'
p190
sg18
g35
sg20
S'2.0'
p191
sg22
S'09/20'
p192
sg24
g10
sg26
S'Jerick McKinnon'
p193
sg28
g74
sg30
S'W26-16'
p194
sg32
S'--'
p195
sg34
S'--'
p196
sg36
S'DET'
p197
sg38
S'--'
p198
sg40
g73
sg42
g74
ssg89
(dp199
g5
S''
p200
sg7
g200
sg9
g200
sg11
g200
sg13
g200
sg15
g200
sg16
S'2015'
p201
sg18
g89
sg20
g200
sg22
S'Bye'
p202
sg24
g200
sg26
S'Jerick McKinnon'
p203
sg28
g200
sg30
g200
sg32
g200
sg34
g200
sg36
g200
sg38
g200
sg40
g200
sg42
g200
ssg71
(dp204
g5
S'--'
p205
sg7
S'--'
p206
sg9
g10
sg11
S'--'
p207
sg13
g14
sg15
S'--'
p208
sg16
S'2015'
p209
sg18
g71
sg20
S'6.0'
p210
sg22
S'10/04'
p211
sg24
g10
sg26
S'Jerick McKinnon'
p212
sg28
g14
sg30
S'L20-23'
p213
sg32
S'--'
p214
sg34
S'--'
p215
sg36
S'@DEN'
p216
sg38
S'--'
p217
sg40
g73
sg42
g73
ssg57
(dp218
g5
S'1.0'
p219
sg7
S'--'
p220
sg9
g10
sg11
S'--'
p221
sg13
g14
sg15
g10
sg16
S'2015'
p222
sg18
g57
sg20
S'4.0'
p223
sg22
S'10/25'
p224
sg24
g10
sg26
S'Jerick McKinnon'
p225
sg28
g184
sg30
S'W28-19'
p226
sg32
g14
sg34
g14
sg36
S'@DET'
p227
sg38
g14
sg40
S'36'
p228
sg42
g184
ssg73
(dp229
g5
S'--'
p230
sg7
S'--'
p231
sg9
g10
sg11
S'--'
p232
sg13
g14
sg15
S'--'
p233
sg16
S'2015'
p234
sg18
g73
sg20
S'2.0'
p235
sg22
S'10/18'
p236
sg24
g10
sg26
S'Jerick McKinnon'
p237
sg28
g14
sg30
S'W16-10'
p238
sg32
S'--'
p239
sg34
S'--'
p240
sg36
S'KC'
p241
sg38
S'--'
p242
sg40
g35
sg42
g35
ssg184
(dp243
g5
S'5.5'
p244
sg7
S'--'
p245
sg9
g10
sg11
S'--'
p246
sg13
g14
sg15
g10
sg16
S'2015'
p247
sg18
g184
sg20
S'--'
p248
sg22
S'11/08'
p249
sg24
S'--'
p250
sg26
S'Jerick McKinnon'
p251
sg28
S'--'
p252
sg30
S'W21-18'
p253
sg32
S'11'
p254
sg34
g35
sg36
S'STL'
p255
sg38
g184
sg40
S'--'
p256
sg42
S'--'
p257
ssg125
(dp258
g5
S'--'
p259
sg7
S'--'
p260
sg9
g10
sg11
S'--'
p261
sg13
g14
sg15
S'--'
p262
sg16
S'2015'
p263
sg18
g125
sg20
S'9.0'
p264
sg22
S'11/01'
p265
sg24
g10
sg26
S'Jerick McKinnon'
p266
sg28
g35
sg30
S'W23-20'
p267
sg32
S'--'
p268
sg34
S'--'
p269
sg36
S'@CHI'
p270
sg38
S'--'
p271
sg40
S'18'
p272
sg42
S'16'
p273
sssS'2014'
p274
(dp275
g3
(dp276
g5
S'5.0'
p277
sg7
S'--'
p278
sg9
g14
sg11
S'--'
p279
sg13
g14
sg15
g10
sg16
S'2014'
p280
sg18
S'11'
p281
sg20
S'4.8'
p282
sg22
S'11/16'
p283
sg24
g10
sg26
S'Jerick McKinnon'
p284
sg28
g125
sg30
S'L13-21'
p285
sg32
S'20'
p286
sg34
g71
sg36
S'@CHI'
p287
sg38
S'14'
p288
sg40
S'38'
p289
sg42
S'23'
p290
ssg44
(dp291
g5
g200
sg7
g200
sg9
g200
sg11
g200
sg13
g200
sg15
g200
sg16
S'2014'
p292
sg18
S'10'
p293
sg20
g200
sg22
S'Bye'
p294
sg24
g200
sg26
S'Jerick McKinnon'
p295
sg28
g200
sg30
g200
sg32
g200
sg34
g200
sg36
g200
sg38
g200
sg40
g200
sg42
g200
ssg61
(dp296
g5
S'--'
p297
sg7
S'--'
p298
sg9
g10
sg11
S'--'
p299
sg13
g10
sg15
S'--'
p300
sg16
S'2014'
p301
sg18
S'13'
p302
sg20
S'--'
p303
sg22
S'11/30'
p304
sg24
S'--'
p305
sg26
S'Jerick McKinnon'
p306
sg28
S'--'
p307
sg30
S'W31-13'
p308
sg32
S'--'
p309
sg34
S'--'
p310
sg36
S'CAR'
p311
sg38
S'--'
p312
sg40
S'--'
p313
sg42
S'--'
p314
ssg78
(dp315
g5
S'3.0'
p316
sg7
S'--'
p317
sg9
g14
sg11
S'--'
p318
sg13
g14
sg15
g10
sg16
S'2014'
p319
sg18
S'12'
p320
sg20
S'3.6'
p321
sg22
S'11/23'
p322
sg24
g10
sg26
S'Jerick McKinnon'
p323
sg28
S'15'
p324
sg30
S'L21-24'
p325
sg32
g184
sg34
g74
sg36
S'GB'
p326
sg38
g125
sg40
S'54'
p327
sg42
S'10'
p328
ssg14
(dp329
g5
S'--'
p330
sg7
S'--'
p331
sg9
g10
sg11
S'--'
p332
sg13
g14
sg15
S'--'
p333
sg16
S'2014'
p334
sg18
g14
sg20
S'1.0'
p335
sg22
S'09/07'
p336
sg24
g10
sg26
S'Jerick McKinnon'
p337
sg28
g14
sg30
S'W34-6'
p338
sg32
S'--'
p339
sg34
S'--'
p340
sg36
S'@STL'
p341
sg38
S'--'
p342
sg40
g14
sg42
g14
ssg74
(dp343
g5
S'4.5'
p344
sg7
S'--'
p345
sg9
g10
sg11
S'--'
p346
sg13
g14
sg15
g10
sg16
S'2014'
p347
sg18
g74
sg20
S'-0.5'
p348
sg22
S'09/21'
p349
sg24
g10
sg26
S'Jerick McKinnon'
p350
sg28
g35
sg30
S'L9-20'
p351
sg32
g184
sg34
g35
sg36
S'@NO'
p352
sg38
g57
sg40
S'-1'
p353
sg42
g14
ssg35
(dp354
g5
S'2.5'
p355
sg7
S'--'
p356
sg9
g10
sg11
S'--'
p357
sg13
g14
sg15
g10
sg16
S'2014'
p358
sg18
g35
sg20
S'3.5'
p359
sg22
S'09/14'
p360
sg24
g10
sg26
S'Jerick McKinnon'
p361
sg28
g35
sg30
S'L7-30'
p362
sg32
g89
sg34
g35
sg36
S'NE'
p363
sg38
g74
sg40
g57
sg42
g71
ssg89
(dp364
g5
S'7.3'
p365
sg7
S'--'
p366
sg9
g10
sg11
S'--'
p367
sg13
g14
sg15
g10
sg16
S'2014'
p368
sg18
g89
sg20
S'3.4'
p369
sg22
S'10/02'
p370
sg24
g10
sg26
S'Jerick McKinnon'
p371
sg28
g57
sg30
S'L10-42'
p372
sg32
S'22'
p373
sg34
g74
sg36
S'@GB'
p374
sg38
g125
sg40
S'24'
p375
sg42
S'10'
p376
ssg71
(dp377
g5
S'17.0'
p378
sg7
S'--'
p379
sg9
g10
sg11
S'--'
p380
sg13
g14
sg15
g10
sg16
S'2014'
p381
sg18
g71
sg20
S'7.5'
p382
sg22
S'09/28'
p383
sg24
g10
sg26
S'Jerick McKinnon'
p384
sg28
S'18'
p385
sg30
S'W41-28'
p386
sg32
S'17'
p387
sg34
g14
sg36
S'ATL'
p388
sg38
S'17'
p389
sg40
S'135'
p390
sg42
S'55'
p391
ssg57
(dp392
g5
S'-1.0'
p393
sg7
S'--'
p394
sg9
g14
sg11
S'--'
p395
sg13
g14
sg15
g10
sg16
S'2014'
p396
sg18
g57
sg20
S'5.4'
p397
sg22
S'10/19'
p398
sg24
g10
sg26
S'Jerick McKinnon'
p399
sg28
S'19'
p400
sg30
S'L16-17'
p401
sg32
S'-2'
p402
sg34
g35
sg36
S'@BUF'
p403
sg38
g71
sg40
S'103'
p404
sg42
S'29'
p405
ssg73
(dp406
g5
S'7.0'
p407
sg7
S'--'
p408
sg9
g14
sg11
S'--'
p409
sg13
g14
sg15
g10
sg16
S'2014'
p410
sg18
g73
sg20
S'3.6'
p411
sg22
S'10/12'
p412
sg24
g10
sg26
S'Jerick McKinnon'
p413
sg28
S'11'
p414
sg30
S'L3-17'
p415
sg32
S'42'
p416
sg34
g73
sg36
S'DET'
p417
sg38
S'13'
p418
sg40
S'40'
p419
sg42
g184
ssg184
(dp420
g5
S'4.7'
p421
sg7
S'--'
p422
sg9
g14
sg11
S'--'
p423
sg13
g14
sg15
g10
sg16
S'2014'
p424
sg18
g184
sg20
S'3.9'
p425
sg22
S'11/02'
p426
sg24
g10
sg26
S'Jerick McKinnon'
p427
sg28
S'14'
p428
sg30
S'W29-26'
p429
sg32
S'14'
p430
sg34
g74
sg36
S'WAS'
p431
sg38
S'15'
p432
sg40
S'54'
p433
sg42
S'15'
p434
ssg125
(dp435
g5
S'-1.0'
p436
sg7
S'--'
p437
sg9
g14
sg11
S'--'
p438
sg13
g14
sg15
g10
sg16
S'2014'
p439
sg18
g125
sg20
S'5.2'
p440
sg22
S'10/26'
p441
sg24
g10
sg26
S'Jerick McKinnon'
p442
sg28
S'16'
p443
sg30
S'W19-13'
p444
sg32
S'-1'
p445
sg34
g14
sg36
S'@TB'
p446
sg38
S'-1'
p447
sg40
S'83'
p448
sg42
S'28'
p449
sss.