(dp0
S'2015'
p1
(dp2
S'11'
p3
(dp4
S'RecAvg'
p5
S'--'
p6
sS'FUM'
p7
S'--'
p8
sS'GS'
p9
S'0'
p10
sS'Lost'
p11
S'--'
p12
sS'G'
p13
S'1'
p14
sS'RecTD'
p15
S'--'
p16
sS'Year'
p17
S'2015'
p18
sS'WK'
p19
S'11'
p20
sS'RushAvg'
p21
S'--'
p22
sS'Game Date'
p23
S'11/23'
p24
sS'RushTD'
p25
S'--'
p26
sS'Player'
p27
S'Jerome Felton'
p28
sS'RushAtt'
p29
S'--'
p30
sS'Result'
p31
S'L13-20'
p32
sS'RecYds'
p33
S'--'
p34
sS'Rec'
p35
S'--'
p36
sS'Opp'
p37
S'@NE'
p38
sS'RecLng'
p39
S'--'
p40
sS'RushYds'
p41
S'--'
p42
sS'RushLng'
p43
S'--'
p44
ssS'10'
p45
(dp46
g5
S'--'
p47
sg7
S'--'
p48
sg9
g10
sg11
S'--'
p49
sg13
g14
sg15
S'--'
p50
sg17
S'2015'
p51
sg19
S'10'
p52
sg21
S'--'
p53
sg23
S'11/12'
p54
sg25
S'--'
p55
sg27
S'Jerome Felton'
p56
sg29
S'--'
p57
sg31
S'W22-17'
p58
sg33
S'--'
p59
sg35
S'--'
p60
sg37
S'@NYJ'
p61
sg39
S'--'
p62
sg41
S'--'
p63
sg43
S'--'
p64
ssS'13'
p65
(dp66
g5
S'--'
p67
sg7
S'--'
p68
sg9
g10
sg11
S'--'
p69
sg13
g14
sg15
S'--'
p70
sg17
S'2015'
p71
sg19
S'13'
p72
sg21
S'--'
p73
sg23
S'12/06'
p74
sg25
S'--'
p75
sg27
S'Jerome Felton'
p76
sg29
S'--'
p77
sg31
S'W30-21'
p78
sg33
S'--'
p79
sg35
S'--'
p80
sg37
S'HOU'
p81
sg39
S'--'
p82
sg41
S'--'
p83
sg43
S'--'
p84
ssS'12'
p85
(dp86
g5
S'12.0'
p87
sg7
S'--'
p88
sg9
g14
sg11
S'--'
p89
sg13
g14
sg15
g10
sg17
S'2015'
p90
sg19
S'12'
p91
sg21
S'--'
p92
sg23
S'11/29'
p93
sg25
S'--'
p94
sg27
S'Jerome Felton'
p95
sg29
S'--'
p96
sg31
S'L22-30'
p97
sg33
S'12'
p98
sg35
g14
sg37
S'@KC'
p99
sg39
S'12'
p100
sg41
S'--'
p101
sg43
S'--'
p102
ssS'15'
p103
(dp104
g5
S'--'
p105
sg7
S'--'
p106
sg9
g14
sg11
S'--'
p107
sg13
g14
sg15
S'--'
p108
sg17
S'2015'
p109
sg19
S'15'
p110
sg21
S'--'
p111
sg23
S'12/20'
p112
sg25
S'--'
p113
sg27
S'Jerome Felton'
p114
sg29
S'--'
p115
sg31
S'L25-35'
p116
sg33
S'--'
p117
sg35
S'--'
p118
sg37
S'@WAS'
p119
sg39
S'--'
p120
sg41
S'--'
p121
sg43
S'--'
p122
ssS'14'
p123
(dp124
g5
S'--'
p125
sg7
S'--'
p126
sg9
g14
sg11
S'--'
p127
sg13
g14
sg15
S'--'
p128
sg17
S'2015'
p129
sg19
S'14'
p130
sg21
S'--'
p131
sg23
S'12/13'
p132
sg25
S'--'
p133
sg27
S'Jerome Felton'
p134
sg29
S'--'
p135
sg31
S'L20-23'
p136
sg33
S'--'
p137
sg35
S'--'
p138
sg37
S'@PHI'
p139
sg39
S'--'
p140
sg41
S'--'
p141
sg43
S'--'
p142
ssS'17'
p143
(dp144
g5
S'--'
p145
sg7
S'--'
p146
sg9
g14
sg11
S'--'
p147
sg13
g14
sg15
S'--'
p148
sg17
S'2015'
p149
sg19
S'17'
p150
sg21
S'--'
p151
sg23
S'01/03'
p152
sg25
S'--'
p153
sg27
S'Jerome Felton'
p154
sg29
S'--'
p155
sg31
S'W22-17'
p156
sg33
S'--'
p157
sg35
S'--'
p158
sg37
S'NYJ'
p159
sg39
S'--'
p160
sg41
S'--'
p161
sg43
S'--'
p162
ssS'16'
p163
(dp164
g5
S'--'
p165
sg7
S'--'
p166
sg9
g14
sg11
S'--'
p167
sg13
g14
sg15
S'--'
p168
sg17
S'2015'
p169
sg19
S'16'
p170
sg21
S'--'
p171
sg23
S'12/27'
p172
sg25
S'--'
p173
sg27
S'Jerome Felton'
p174
sg29
S'--'
p175
sg31
S'W16-6'
p176
sg33
S'--'
p177
sg35
S'--'
p178
sg37
S'DAL'
p179
sg39
S'--'
p180
sg41
S'--'
p181
sg43
S'--'
p182
ssg14
(dp183
g5
S'--'
p184
sg7
S'--'
p185
sg9
g10
sg11
S'--'
p186
sg13
g14
sg15
g10
sg17
S'2015'
p187
sg19
g14
sg21
S'--'
p188
sg23
S'09/13'
p189
sg25
S'--'
p190
sg27
S'Jerome Felton'
p191
sg29
S'--'
p192
sg31
S'W27-14'
p193
sg33
g10
sg35
g10
sg37
S'IND'
p194
sg39
S'--'
p195
sg41
S'--'
p196
sg43
S'--'
p197
ssS'3'
p198
(dp199
g5
S'--'
p200
sg7
S'--'
p201
sg9
g10
sg11
S'--'
p202
sg13
g14
sg15
S'--'
p203
sg17
S'2015'
p204
sg19
g198
sg21
S'--'
p205
sg23
S'09/27'
p206
sg25
S'--'
p207
sg27
S'Jerome Felton'
p208
sg29
S'--'
p209
sg31
S'W41-14'
p210
sg33
S'--'
p211
sg35
S'--'
p212
sg37
S'@MIA'
p213
sg39
S'--'
p214
sg41
S'--'
p215
sg43
S'--'
p216
ssS'2'
p217
(dp218
g5
S'--'
p219
sg7
S'--'
p220
sg9
g10
sg11
S'--'
p221
sg13
g14
sg15
S'--'
p222
sg17
S'2015'
p223
sg19
g217
sg21
S'--'
p224
sg23
S'09/20'
p225
sg25
S'--'
p226
sg27
S'Jerome Felton'
p227
sg29
S'--'
p228
sg31
S'L32-40'
p229
sg33
S'--'
p230
sg35
S'--'
p231
sg37
S'NE'
p232
sg39
S'--'
p233
sg41
S'--'
p234
sg43
S'--'
p235
ssS'5'
p236
(dp237
g5
S'--'
p238
sg7
S'--'
p239
sg9
g14
sg11
S'--'
p240
sg13
g14
sg15
S'--'
p241
sg17
S'2015'
p242
sg19
g236
sg21
S'2.0'
p243
sg23
S'10/11'
p244
sg25
g10
sg27
S'Jerome Felton'
p245
sg29
g14
sg31
S'W14-13'
p246
sg33
S'--'
p247
sg35
S'--'
p248
sg37
S'@TEN'
p249
sg39
S'--'
p250
sg41
g217
sg43
g217
ssS'4'
p251
(dp252
g5
S'--'
p253
sg7
S'--'
p254
sg9
g14
sg11
S'--'
p255
sg13
g14
sg15
S'--'
p256
sg17
S'2015'
p257
sg19
g251
sg21
S'--'
p258
sg23
S'10/04'
p259
sg25
S'--'
p260
sg27
S'Jerome Felton'
p261
sg29
S'--'
p262
sg31
S'L10-24'
p263
sg33
S'--'
p264
sg35
S'--'
p265
sg37
S'NYG'
p266
sg39
S'--'
p267
sg41
S'--'
p268
sg43
S'--'
p269
ssS'7'
p270
(dp271
g5
S'--'
p272
sg7
S'--'
p273
sg9
g14
sg11
S'--'
p274
sg13
g14
sg15
S'--'
p275
sg17
S'2015'
p276
sg19
g270
sg21
S'--'
p277
sg23
S'10/25'
p278
sg25
S'--'
p279
sg27
S'Jerome Felton'
p280
sg29
S'--'
p281
sg31
S'L31-34'
p282
sg33
S'--'
p283
sg35
S'--'
p284
sg37
S'@JAC'
p285
sg39
S'--'
p286
sg41
S'--'
p287
sg43
S'--'
p288
ssS'6'
p289
(dp290
g5
S'--'
p291
sg7
S'--'
p292
sg9
g10
sg11
S'--'
p293
sg13
g14
sg15
S'--'
p294
sg17
S'2015'
p295
sg19
g289
sg21
S'--'
p296
sg23
S'10/18'
p297
sg25
S'--'
p298
sg27
S'Jerome Felton'
p299
sg29
S'--'
p300
sg31
S'L21-34'
p301
sg33
S'--'
p302
sg35
S'--'
p303
sg37
S'CIN'
p304
sg39
S'--'
p305
sg41
S'--'
p306
sg43
S'--'
p307
ssS'9'
p308
(dp309
g5
S'--'
p310
sg7
S'--'
p311
sg9
g10
sg11
S'--'
p312
sg13
g14
sg15
S'--'
p313
sg17
S'2015'
p314
sg19
g308
sg21
S'--'
p315
sg23
S'11/08'
p316
sg25
S'--'
p317
sg27
S'Jerome Felton'
p318
sg29
S'--'
p319
sg31
S'W33-17'
p320
sg33
S'--'
p321
sg35
S'--'
p322
sg37
S'MIA'
p323
sg39
S'--'
p324
sg41
S'--'
p325
sg43
S'--'
p326
ssS'8'
p327
(dp328
g5
S''
p329
sg7
g329
sg9
g329
sg11
g329
sg13
g329
sg15
g329
sg17
S'2015'
p330
sg19
g327
sg21
g329
sg23
S'Bye'
p331
sg25
g329
sg27
S'Jerome Felton'
p332
sg29
g329
sg31
g329
sg33
g329
sg35
g329
sg37
g329
sg39
g329
sg41
g329
sg43
g329
sssS'2014'
p333
(dp334
g3
(dp335
g5
S'--'
p336
sg7
S'--'
p337
sg9
g10
sg11
S'--'
p338
sg13
g14
sg15
S'--'
p339
sg17
S'2014'
p340
sg19
S'11'
p341
sg21
S'3.0'
p342
sg23
S'11/16'
p343
sg25
g10
sg27
S'Jerome Felton'
p344
sg29
g14
sg31
S'L13-21'
p345
sg33
S'--'
p346
sg35
S'--'
p347
sg37
S'@CHI'
p348
sg39
S'--'
p349
sg41
g198
sg43
g198
ssg45
(dp350
g5
g329
sg7
g329
sg9
g329
sg11
g329
sg13
g329
sg15
g329
sg17
S'2014'
p351
sg19
S'10'
p352
sg21
g329
sg23
S'Bye'
p353
sg25
g329
sg27
S'Jerome Felton'
p354
sg29
g329
sg31
g329
sg33
g329
sg35
g329
sg37
g329
sg39
g329
sg41
g329
sg43
g329
ssg65
(dp355
g5
S'--'
p356
sg7
S'--'
p357
sg9
g10
sg11
S'--'
p358
sg13
g14
sg15
S'--'
p359
sg17
S'2014'
p360
sg19
S'13'
p361
sg21
S'--'
p362
sg23
S'11/30'
p363
sg25
S'--'
p364
sg27
S'Jerome Felton'
p365
sg29
S'--'
p366
sg31
S'W31-13'
p367
sg33
S'--'
p368
sg35
S'--'
p369
sg37
S'CAR'
p370
sg39
S'--'
p371
sg41
S'--'
p372
sg43
S'--'
p373
ssg85
(dp374
g5
S'--'
p375
sg7
S'--'
p376
sg9
g10
sg11
S'--'
p377
sg13
g14
sg15
S'--'
p378
sg17
S'2014'
p379
sg19
S'12'
p380
sg21
S'--'
p381
sg23
S'11/23'
p382
sg25
S'--'
p383
sg27
S'Jerome Felton'
p384
sg29
S'--'
p385
sg31
S'L21-24'
p386
sg33
S'--'
p387
sg35
S'--'
p388
sg37
S'GB'
p389
sg39
S'--'
p390
sg41
S'--'
p391
sg43
S'--'
p392
ssg103
(dp393
g5
S'--'
p394
sg7
S'--'
p395
sg9
g10
sg11
S'--'
p396
sg13
g14
sg15
g10
sg17
S'2014'
p397
sg19
S'15'
p398
sg21
S'--'
p399
sg23
S'12/14'
p400
sg25
S'--'
p401
sg27
S'Jerome Felton'
p402
sg29
S'--'
p403
sg31
S'L14-16'
p404
sg33
g10
sg35
g10
sg37
S'@DET'
p405
sg39
S'--'
p406
sg41
S'--'
p407
sg43
S'--'
p408
ssg123
(dp409
g5
S'--'
p410
sg7
S'--'
p411
sg9
g10
sg11
S'--'
p412
sg13
g14
sg15
S'--'
p413
sg17
S'2014'
p414
sg19
S'14'
p415
sg21
S'--'
p416
sg23
S'12/07'
p417
sg25
S'--'
p418
sg27
S'Jerome Felton'
p419
sg29
S'--'
p420
sg31
S'W30-24'
p421
sg33
S'--'
p422
sg35
S'--'
p423
sg37
S'NYJ'
p424
sg39
S'--'
p425
sg41
S'--'
p426
sg43
S'--'
p427
ssg143
(dp428
g5
S'--'
p429
sg7
S'--'
p430
sg9
g10
sg11
S'--'
p431
sg13
g14
sg15
S'--'
p432
sg17
S'2014'
p433
sg19
S'17'
p434
sg21
S'3.0'
p435
sg23
S'12/28'
p436
sg25
g10
sg27
S'Jerome Felton'
p437
sg29
g14
sg31
S'W13-9'
p438
sg33
S'--'
p439
sg35
S'--'
p440
sg37
S'CHI'
p441
sg39
S'--'
p442
sg41
g198
sg43
g198
ssg163
(dp443
g5
S'--'
p444
sg7
S'--'
p445
sg9
g10
sg11
S'--'
p446
sg13
g14
sg15
S'--'
p447
sg17
S'2014'
p448
sg19
S'16'
p449
sg21
S'--'
p450
sg23
S'12/21'
p451
sg25
S'--'
p452
sg27
S'Jerome Felton'
p453
sg29
S'--'
p454
sg31
S'L35-37'
p455
sg33
S'--'
p456
sg35
S'--'
p457
sg37
S'@MIA'
p458
sg39
S'--'
p459
sg41
S'--'
p460
sg43
S'--'
p461
ssg14
(dp462
g5
S'--'
p463
sg7
S'--'
p464
sg9
g14
sg11
S'--'
p465
sg13
g14
sg15
S'--'
p466
sg17
S'2014'
p467
sg19
g14
sg21
S'--'
p468
sg23
S'09/07'
p469
sg25
S'--'
p470
sg27
S'Jerome Felton'
p471
sg29
S'--'
p472
sg31
S'W34-6'
p473
sg33
S'--'
p474
sg35
S'--'
p475
sg37
S'@STL'
p476
sg39
S'--'
p477
sg41
S'--'
p478
sg43
S'--'
p479
ssg198
(dp480
g5
S'--'
p481
sg7
S'--'
p482
sg9
g14
sg11
S'--'
p483
sg13
g14
sg15
S'--'
p484
sg17
S'2014'
p485
sg19
g198
sg21
S'--'
p486
sg23
S'09/21'
p487
sg25
S'--'
p488
sg27
S'Jerome Felton'
p489
sg29
S'--'
p490
sg31
S'L9-20'
p491
sg33
S'--'
p492
sg35
S'--'
p493
sg37
S'@NO'
p494
sg39
S'--'
p495
sg41
S'--'
p496
sg43
S'--'
p497
ssg217
(dp498
g5
S'--'
p499
sg7
S'--'
p500
sg9
g10
sg11
S'--'
p501
sg13
g14
sg15
S'--'
p502
sg17
S'2014'
p503
sg19
g217
sg21
S'--'
p504
sg23
S'09/14'
p505
sg25
S'--'
p506
sg27
S'Jerome Felton'
p507
sg29
S'--'
p508
sg31
S'L7-30'
p509
sg33
S'--'
p510
sg35
S'--'
p511
sg37
S'NE'
p512
sg39
S'--'
p513
sg41
S'--'
p514
sg43
S'--'
p515
ssg236
(dp516
g5
S'--'
p517
sg7
S'--'
p518
sg9
g10
sg11
S'--'
p519
sg13
g14
sg15
S'--'
p520
sg17
S'2014'
p521
sg19
g236
sg21
S'--'
p522
sg23
S'10/02'
p523
sg25
S'--'
p524
sg27
S'Jerome Felton'
p525
sg29
S'--'
p526
sg31
S'L10-42'
p527
sg33
S'--'
p528
sg35
S'--'
p529
sg37
S'@GB'
p530
sg39
S'--'
p531
sg41
S'--'
p532
sg43
S'--'
p533
ssg251
(dp534
g5
S'--'
p535
sg7
S'--'
p536
sg9
g10
sg11
S'--'
p537
sg13
g14
sg15
S'--'
p538
sg17
S'2014'
p539
sg19
g251
sg21
S'--'
p540
sg23
S'09/28'
p541
sg25
S'--'
p542
sg27
S'Jerome Felton'
p543
sg29
S'--'
p544
sg31
S'W41-28'
p545
sg33
S'--'
p546
sg35
S'--'
p547
sg37
S'ATL'
p548
sg39
S'--'
p549
sg41
S'--'
p550
sg43
S'--'
p551
ssg270
(dp552
g5
S'--'
p553
sg7
S'--'
p554
sg9
g14
sg11
S'--'
p555
sg13
g14
sg15
S'--'
p556
sg17
S'2014'
p557
sg19
g270
sg21
S'10.5'
p558
sg23
S'10/19'
p559
sg25
g10
sg27
S'Jerome Felton'
p560
sg29
g217
sg31
S'L16-17'
p561
sg33
S'--'
p562
sg35
S'--'
p563
sg37
S'@BUF'
p564
sg39
S'--'
p565
sg41
S'21'
p566
sg43
S'21'
p567
ssg289
(dp568
g5
S'--'
p569
sg7
S'--'
p570
sg9
g10
sg11
S'--'
p571
sg13
g14
sg15
S'--'
p572
sg17
S'2014'
p573
sg19
g289
sg21
S'--'
p574
sg23
S'10/12'
p575
sg25
S'--'
p576
sg27
S'Jerome Felton'
p577
sg29
S'--'
p578
sg31
S'L3-17'
p579
sg33
S'--'
p580
sg35
S'--'
p581
sg37
S'DET'
p582
sg39
S'--'
p583
sg41
S'--'
p584
sg43
S'--'
p585
ssg308
(dp586
g5
S'--'
p587
sg7
S'--'
p588
sg9
g10
sg11
S'--'
p589
sg13
g14
sg15
S'--'
p590
sg17
S'2014'
p591
sg19
g308
sg21
S'--'
p592
sg23
S'11/02'
p593
sg25
S'--'
p594
sg27
S'Jerome Felton'
p595
sg29
S'--'
p596
sg31
S'W29-26'
p597
sg33
S'--'
p598
sg35
S'--'
p599
sg37
S'WAS'
p600
sg39
S'--'
p601
sg41
S'--'
p602
sg43
S'--'
p603
ssg327
(dp604
g5
S'--'
p605
sg7
S'--'
p606
sg9
g10
sg11
S'--'
p607
sg13
g14
sg15
g10
sg17
S'2014'
p608
sg19
g327
sg21
S'--'
p609
sg23
S'10/26'
p610
sg25
S'--'
p611
sg27
S'Jerome Felton'
p612
sg29
S'--'
p613
sg31
S'W19-13'
p614
sg33
g10
sg35
g10
sg37
S'@TB'
p615
sg39
S'--'
p616
sg41
S'--'
p617
sg43
S'--'
p618
sssS'2011'
p619
(dp620
g3
(dp621
g5
S'--'
p622
sg7
S'--'
p623
sg9
g10
sg11
S'--'
p624
sg13
g14
sg15
S'--'
p625
sg17
S'2011'
p626
sg19
S'11'
p627
sg21
S'--'
p628
sg23
S'11/20'
p629
sg25
S'--'
p630
sg27
S'Jerome Felton'
p631
sg29
S'--'
p632
sg31
S'L35-49'
p633
sg33
S'--'
p634
sg35
S'--'
p635
sg37
S'@DET'
p636
sg39
S'--'
p637
sg41
S'--'
p638
sg43
S'--'
p639
ssg45
(dp640
g5
S'--'
p641
sg7
S'--'
p642
sg9
g10
sg11
S'--'
p643
sg13
g14
sg15
S'--'
p644
sg17
S'2011'
p645
sg19
S'10'
p646
sg21
S'--'
p647
sg23
S'11/13'
p648
sg25
S'--'
p649
sg27
S'Jerome Felton'
p650
sg29
S'--'
p651
sg31
S'L3-30'
p652
sg33
S'--'
p653
sg35
S'--'
p654
sg37
S'TEN'
p655
sg39
S'--'
p656
sg41
S'--'
p657
sg43
S'--'
p658
ssg65
(dp659
g5
S'7.0'
p660
sg7
S'--'
p661
sg9
g14
sg11
S'--'
p662
sg13
g14
sg15
g10
sg17
S'2011'
p663
sg19
S'13'
p664
sg21
S'--'
p665
sg23
S'12/04'
p666
sg25
S'--'
p667
sg27
S'Jerome Felton'
p668
sg29
S'--'
p669
sg31
S'L24-31'
p670
sg33
g270
sg35
g14
sg37
S'@NE'
p671
sg39
g270
sg41
S'--'
p672
sg43
S'--'
p673
ssg103
(dp674
g5
S'9.0'
p675
sg7
S'--'
p676
sg9
g10
sg11
S'--'
p677
sg13
g14
sg15
g10
sg17
S'2011'
p678
sg19
S'15'
p679
sg21
S'--'
p680
sg23
S'12/18'
p681
sg25
S'--'
p682
sg27
S'Jerome Felton'
p683
sg29
S'--'
p684
sg31
S'W27-13'
p685
sg33
g308
sg35
g14
sg37
S'TEN'
p686
sg39
g308
sg41
S'--'
p687
sg43
S'--'
p688
ssg123
(dp689
g5
S'--'
p690
sg7
S'--'
p691
sg9
g10
sg11
S'--'
p692
sg13
g14
sg15
S'--'
p693
sg17
S'2011'
p694
sg19
S'14'
p695
sg21
S'--'
p696
sg23
S'12/11'
p697
sg25
S'--'
p698
sg27
S'Jerome Felton'
p699
sg29
S'--'
p700
sg31
S'L10-24'
p701
sg33
S'--'
p702
sg35
S'--'
p703
sg37
S'@BAL'
p704
sg39
S'--'
p705
sg41
S'--'
p706
sg43
S'--'
p707
ssg143
(dp708
g5
S'--'
p709
sg7
S'--'
p710
sg9
g14
sg11
S'--'
p711
sg13
g14
sg15
S'--'
p712
sg17
S'2011'
p713
sg19
S'17'
p714
sg21
S'--'
p715
sg23
S'01/01'
p716
sg25
S'--'
p717
sg27
S'Jerome Felton'
p718
sg29
S'--'
p719
sg31
S'L13-19'
p720
sg33
S'--'
p721
sg35
S'--'
p722
sg37
S'@JAC'
p723
sg39
S'--'
p724
sg41
S'--'
p725
sg43
S'--'
p726
ssg163
(dp727
g5
S'--'
p728
sg7
S'--'
p729
sg9
g10
sg11
S'--'
p730
sg13
g14
sg15
S'--'
p731
sg17
S'2011'
p732
sg19
S'16'
p733
sg21
S'--'
p734
sg23
S'12/22'
p735
sg25
S'--'
p736
sg27
S'Jerome Felton'
p737
sg29
S'--'
p738
sg31
S'W19-16'
p739
sg33
S'--'
p740
sg35
S'--'
p741
sg37
S'HOU'
p742
sg39
S'--'
p743
sg41
S'--'
p744
sg43
S'--'
p745
ssg14
(dp746
g5
S'--'
p747
sg7
S'--'
p748
sg9
g10
sg11
S'--'
p749
sg13
g10
sg15
S'--'
p750
sg17
S'2011'
p751
sg19
g14
sg21
S'--'
p752
sg23
S'09/11'
p753
sg25
S'--'
p754
sg27
S'Jerome Felton'
p755
sg29
S'--'
p756
sg31
S'L21-28'
p757
sg33
S'--'
p758
sg35
S'--'
p759
sg37
S'@ARI'
p760
sg39
S'--'
p761
sg41
S'--'
p762
sg43
S'--'
p763
ssg198
(dp764
g5
S'--'
p765
sg7
S'--'
p766
sg9
g10
sg11
S'--'
p767
sg13
g14
sg15
S'--'
p768
sg17
S'2011'
p769
sg19
g198
sg21
S'3.0'
p770
sg23
S'09/25'
p771
sg25
g10
sg27
S'Jerome Felton'
p772
sg29
g14
sg31
S'W16-10'
p773
sg33
S'--'
p774
sg35
S'--'
p775
sg37
S'JAC'
p776
sg39
S'--'
p777
sg41
g198
sg43
g198
ssg217
(dp778
g5
S'--'
p779
sg7
S'--'
p780
sg9
g10
sg11
S'--'
p781
sg13
g14
sg15
S'--'
p782
sg17
S'2011'
p783
sg19
g217
sg21
S'--'
p784
sg23
S'09/18'
p785
sg25
S'--'
p786
sg27
S'Jerome Felton'
p787
sg29
S'--'
p788
sg31
S'L23-30'
p789
sg33
S'--'
p790
sg35
S'--'
p791
sg37
S'GB'
p792
sg39
S'--'
p793
sg41
S'--'
p794
sg43
S'--'
p795
ssg236
(dp796
g5
S'7.0'
p797
sg7
S'--'
p798
sg9
g10
sg11
S'--'
p799
sg13
g14
sg15
g10
sg17
S'2011'
p800
sg19
g236
sg21
S'--'
p801
sg23
S'10/09'
p802
sg25
S'--'
p803
sg27
S'Jerome Felton'
p804
sg29
S'--'
p805
sg31
S'L27-30'
p806
sg33
g270
sg35
g14
sg37
S'NO'
p807
sg39
g270
sg41
S'--'
p808
sg43
S'--'
p809
ssg251
(dp810
g5
S'--'
p811
sg7
S'--'
p812
sg9
g10
sg11
S'--'
p813
sg13
g14
sg15
g10
sg17
S'2011'
p814
sg19
g251
sg21
S'--'
p815
sg23
S'10/02'
p816
sg25
S'--'
p817
sg27
S'Jerome Felton'
p818
sg29
S'--'
p819
sg31
S'L29-34'
p820
sg33
g10
sg35
g10
sg37
S'@CHI'
p821
sg39
S'--'
p822
sg41
S'--'
p823
sg43
S'--'
p824
ssg270
(dp825
g5
S'17.0'
p826
sg7
S'--'
p827
sg9
g14
sg11
S'--'
p828
sg13
g14
sg15
g10
sg17
S'2011'
p829
sg19
g270
sg21
S'3.5'
p830
sg23
S'10/23'
p831
sg25
g10
sg27
S'Jerome Felton'
p832
sg29
g217
sg31
S'W33-20'
p833
sg33
S'17'
p834
sg35
g14
sg37
S'WAS'
p835
sg39
S'17'
p836
sg41
g270
sg43
g251
ssg289
(dp837
g5
S'--'
p838
sg7
S'--'
p839
sg9
g10
sg11
S'--'
p840
sg13
g14
sg15
S'--'
p841
sg17
S'2011'
p842
sg19
g289
sg21
S'--'
p843
sg23
S'10/16'
p844
sg25
S'--'
p845
sg27
S'Jerome Felton'
p846
sg29
S'--'
p847
sg31
S'L17-31'
p848
sg33
S'--'
p849
sg35
S'--'
p850
sg37
S'@ATL'
p851
sg39
S'--'
p852
sg41
S'--'
p853
sg43
S'--'
p854
ssg308
(dp855
g5
g329
sg7
g329
sg9
g329
sg11
g329
sg13
g329
sg15
g329
sg17
S'2011'
p856
sg19
g308
sg21
g329
sg23
S'Bye'
p857
sg25
g329
sg27
S'Jerome Felton'
p858
sg29
g329
sg31
g329
sg33
g329
sg35
g329
sg37
g329
sg39
g329
sg41
g329
sg43
g329
ssg327
(dp859
g5
S'--'
p860
sg7
S'--'
p861
sg9
g10
sg11
S'--'
p862
sg13
g14
sg15
g10
sg17
S'2011'
p863
sg19
g327
sg21
S'--'
p864
sg23
S'10/30'
p865
sg25
S'--'
p866
sg27
S'Jerome Felton'
p867
sg29
S'--'
p868
sg31
S'L21-24'
p869
sg33
g10
sg35
g10
sg37
S'MIN'
p870
sg39
S'--'
p871
sg41
S'--'
p872
sg43
S'--'
p873
sssS'2010'
p874
(dp875
g3
(dp876
g5
S'--'
p877
sg7
g14
sg9
g14
sg11
g14
sg13
g14
sg15
S'--'
p878
sg17
S'2010'
p879
sg19
S'11'
p880
sg21
S'3.5'
p881
sg23
S'11/21'
p882
sg25
g10
sg27
S'Jerome Felton'
p883
sg29
g251
sg31
S'L19-35'
p884
sg33
S'--'
p885
sg35
S'--'
p886
sg37
S'@DAL'
p887
sg39
S'--'
p888
sg41
S'14'
p889
sg43
g236
ssg45
(dp890
g5
S'19.0'
p891
sg7
S'--'
p892
sg9
g10
sg11
S'--'
p893
sg13
g14
sg15
g10
sg17
S'2010'
p894
sg19
S'10'
p895
sg21
S'4.0'
p896
sg23
S'11/14'
p897
sg25
g10
sg27
S'Jerome Felton'
p898
sg29
g14
sg31
S'L12-14'
p899
sg33
S'19'
p900
sg35
g14
sg37
S'@BUF'
p901
sg39
S'19'
p902
sg41
g251
sg43
g251
ssg65
(dp903
g5
S'--'
p904
sg7
S'--'
p905
sg9
g14
sg11
S'--'
p906
sg13
g14
sg15
S'--'
p907
sg17
S'2010'
p908
sg19
S'13'
p909
sg21
S'2.0'
p910
sg23
S'12/05'
p911
sg25
g10
sg27
S'Jerome Felton'
p912
sg29
g14
sg31
S'L20-24'
p913
sg33
S'--'
p914
sg35
S'--'
p915
sg37
S'CHI'
p916
sg39
S'--'
p917
sg41
g217
sg43
g217
ssg85
(dp918
g5
S'3.5'
p919
sg7
S'--'
p920
sg9
g10
sg11
S'--'
p921
sg13
g14
sg15
g10
sg17
S'2010'
p922
sg19
S'12'
p923
sg21
S'--'
p924
sg23
S'11/25'
p925
sg25
S'--'
p926
sg27
S'Jerome Felton'
p927
sg29
S'--'
p928
sg31
S'L24-45'
p929
sg33
g270
sg35
g217
sg37
S'NE'
p930
sg39
g289
sg41
S'--'
p931
sg43
S'--'
p932
ssg103
(dp933
g5
S'--'
p934
sg7
S'--'
p935
sg9
g10
sg11
S'--'
p936
sg13
g14
sg15
S'--'
p937
sg17
S'2010'
p938
sg19
S'15'
p939
sg21
S'--'
p940
sg23
S'12/19'
p941
sg25
S'--'
p942
sg27
S'Jerome Felton'
p943
sg29
S'--'
p944
sg31
S'W23-20'
p945
sg33
S'--'
p946
sg35
S'--'
p947
sg37
S'@TB'
p948
sg39
S'--'
p949
sg41
S'--'
p950
sg43
S'--'
p951
ssg123
(dp952
g5
S'--'
p953
sg7
S'--'
p954
sg9
g10
sg11
S'--'
p955
sg13
g14
sg15
g10
sg17
S'2010'
p956
sg19
S'14'
p957
sg21
S'2.5'
p958
sg23
S'12/12'
p959
sg25
g10
sg27
S'Jerome Felton'
p960
sg29
g289
sg31
S'W7-3'
p961
sg33
g10
sg35
g10
sg37
S'GB'
p962
sg39
S'--'
p963
sg41
S'15'
p964
sg43
g236
ssg143
(dp965
g5
S'4.0'
p966
sg7
S'--'
p967
sg9
g10
sg11
S'--'
p968
sg13
g14
sg15
g10
sg17
S'2010'
p969
sg19
S'17'
p970
sg21
S'9.0'
p971
sg23
S'01/02'
p972
sg25
g10
sg27
S'Jerome Felton'
p973
sg29
g14
sg31
S'W20-13'
p974
sg33
g251
sg35
g14
sg37
S'MIN'
p975
sg39
g251
sg41
g308
sg43
g308
ssg163
(dp976
g5
S'--'
p977
sg7
S'--'
p978
sg9
g10
sg11
S'--'
p979
sg13
g14
sg15
S'--'
p980
sg17
S'2010'
p981
sg19
S'16'
p982
sg21
S'--'
p983
sg23
S'12/26'
p984
sg25
S'--'
p985
sg27
S'Jerome Felton'
p986
sg29
S'--'
p987
sg31
S'W34-27'
p988
sg33
S'--'
p989
sg35
S'--'
p990
sg37
S'@MIA'
p991
sg39
S'--'
p992
sg41
S'--'
p993
sg43
S'--'
p994
ssg14
(dp995
g5
S'--'
p996
sg7
S'--'
p997
sg9
g10
sg11
S'--'
p998
sg13
g14
sg15
g10
sg17
S'2010'
p999
sg19
g14
sg21
S'3.5'
p1000
sg23
S'09/12'
p1001
sg25
g10
sg27
S'Jerome Felton'
p1002
sg29
g217
sg31
S'L14-19'
p1003
sg33
g10
sg35
g10
sg37
S'@CHI'
p1004
sg39
S'--'
p1005
sg41
g270
sg43
g236
ssg198
(dp1006
g5
S'5.0'
p1007
sg7
S'--'
p1008
sg9
g10
sg11
S'--'
p1009
sg13
g14
sg15
g10
sg17
S'2010'
p1010
sg19
g198
sg21
S'2.5'
p1011
sg23
S'09/26'
p1012
sg25
g10
sg27
S'Jerome Felton'
p1013
sg29
g217
sg31
S'L10-24'
p1014
sg33
g236
sg35
g14
sg37
S'@MIN'
p1015
sg39
g236
sg41
g236
sg43
g198
ssg217
(dp1016
g5
S'--'
p1017
sg7
S'--'
p1018
sg9
g10
sg11
S'--'
p1019
sg13
g14
sg15
S'--'
p1020
sg17
S'2010'
p1021
sg19
g217
sg21
S'--'
p1022
sg23
S'09/19'
p1023
sg25
S'--'
p1024
sg27
S'Jerome Felton'
p1025
sg29
S'--'
p1026
sg31
S'L32-35'
p1027
sg33
S'--'
p1028
sg35
S'--'
p1029
sg37
S'PHI'
p1030
sg39
S'--'
p1031
sg41
S'--'
p1032
sg43
S'--'
p1033
ssg236
(dp1034
g5
S'7.0'
p1035
sg7
S'--'
p1036
sg9
g10
sg11
S'--'
p1037
sg13
g14
sg15
g10
sg17
S'2010'
p1038
sg19
g236
sg21
S'--'
p1039
sg23
S'10/10'
p1040
sg25
S'--'
p1041
sg27
S'Jerome Felton'
p1042
sg29
S'--'
p1043
sg31
S'W44-6'
p1044
sg33
g270
sg35
g14
sg37
S'STL'
p1045
sg39
g270
sg41
S'--'
p1046
sg43
S'--'
p1047
ssg251
(dp1048
g5
S'6.0'
p1049
sg7
S'--'
p1050
sg9
g10
sg11
S'--'
p1051
sg13
g14
sg15
g10
sg17
S'2010'
p1052
sg19
g251
sg21
S'6.0'
p1053
sg23
S'10/03'
p1054
sg25
g10
sg27
S'Jerome Felton'
p1055
sg29
g14
sg31
S'L26-28'
p1056
sg33
S'12'
p1057
sg35
g217
sg37
S'@GB'
p1058
sg39
g270
sg41
g289
sg43
g289
ssg270
(dp1059
g5
g329
sg7
g329
sg9
g329
sg11
g329
sg13
g329
sg15
g329
sg17
S'2010'
p1060
sg19
g270
sg21
g329
sg23
S'Bye'
p1061
sg25
g329
sg27
S'Jerome Felton'
p1062
sg29
g329
sg31
g329
sg33
g329
sg35
g329
sg37
g329
sg39
g329
sg41
g329
sg43
g329
ssg289
(dp1063
g5
S'--'
p1064
sg7
S'--'
p1065
sg9
g10
sg11
S'--'
p1066
sg13
g14
sg15
g10
sg17
S'2010'
p1067
sg19
g289
sg21
S'8.0'
p1068
sg23
S'10/17'
p1069
sg25
g10
sg27
S'Jerome Felton'
p1070
sg29
g14
sg31
S'L20-28'
p1071
sg33
g10
sg35
g10
sg37
S'@NYG'
p1072
sg39
S'--'
p1073
sg41
g327
sg43
g327
ssg308
(dp1074
g5
S'--'
p1075
sg7
S'--'
p1076
sg9
g10
sg11
S'--'
p1077
sg13
g14
sg15
g10
sg17
S'2010'
p1078
sg19
g308
sg21
S'1.5'
p1079
sg23
S'11/07'
p1080
sg25
g10
sg27
S'Jerome Felton'
p1081
sg29
g217
sg31
S'L20-23'
p1082
sg33
g10
sg35
g10
sg37
S'NYJ'
p1083
sg39
S'--'
p1084
sg41
g198
sg43
g217
ssg327
(dp1085
g5
S'--'
p1086
sg7
S'--'
p1087
sg9
g10
sg11
S'--'
p1088
sg13
g14
sg15
S'--'
p1089
sg17
S'2010'
p1090
sg19
g327
sg21
S'3.0'
p1091
sg23
S'10/31'
p1092
sg25
g10
sg27
S'Jerome Felton'
p1093
sg29
g14
sg31
S'W37-25'
p1094
sg33
S'--'
p1095
sg35
S'--'
p1096
sg37
S'WAS'
p1097
sg39
S'--'
p1098
sg41
g198
sg43
g198
sssS'2013'
p1099
(dp1100
g3
(dp1101
g5
S'6.5'
p1102
sg7
S'--'
p1103
sg9
g14
sg11
S'--'
p1104
sg13
g14
sg15
g10
sg17
S'2013'
p1105
sg19
S'11'
p1106
sg21
S'--'
p1107
sg23
S'11/17'
p1108
sg25
S'--'
p1109
sg27
S'Jerome Felton'
p1110
sg29
S'--'
p1111
sg31
S'L20-41'
p1112
sg33
S'13'
p1113
sg35
g217
sg37
S'@SEA'
p1114
sg39
S'10'
p1115
sg41
S'--'
p1116
sg43
S'--'
p1117
ssg45
(dp1118
g5
S'--'
p1119
sg7
S'--'
p1120
sg9
g14
sg11
S'--'
p1121
sg13
g14
sg15
S'--'
p1122
sg17
S'2013'
p1123
sg19
S'10'
p1124
sg21
S'--'
p1125
sg23
S'11/07'
p1126
sg25
S'--'
p1127
sg27
S'Jerome Felton'
p1128
sg29
S'--'
p1129
sg31
S'W34-27'
p1130
sg33
S'--'
p1131
sg35
S'--'
p1132
sg37
S'WAS'
p1133
sg39
S'--'
p1134
sg41
S'--'
p1135
sg43
S'--'
p1136
ssg65
(dp1137
g5
S'5.0'
p1138
sg7
S'--'
p1139
sg9
g10
sg11
S'--'
p1140
sg13
g14
sg15
g10
sg17
S'2013'
p1141
sg19
S'13'
p1142
sg21
S'--'
p1143
sg23
S'12/01'
p1144
sg25
S'--'
p1145
sg27
S'Jerome Felton'
p1146
sg29
S'--'
p1147
sg31
S'W23-20'
p1148
sg33
g236
sg35
g14
sg37
S'CHI'
p1149
sg39
g236
sg41
S'--'
p1150
sg43
S'--'
p1151
ssg85
(dp1152
g5
S'7.0'
p1153
sg7
S'--'
p1154
sg9
g14
sg11
S'--'
p1155
sg13
g14
sg15
g10
sg17
S'2013'
p1156
sg19
S'12'
p1157
sg21
S'--'
p1158
sg23
S'11/24'
p1159
sg25
S'--'
p1160
sg27
S'Jerome Felton'
p1161
sg29
S'--'
p1162
sg31
S'T26-26'
p1163
sg33
g270
sg35
g14
sg37
S'@GB'
p1164
sg39
g270
sg41
S'--'
p1165
sg43
S'--'
p1166
ssg103
(dp1167
g5
S'--'
p1168
sg7
S'--'
p1169
sg9
g14
sg11
S'--'
p1170
sg13
g14
sg15
S'--'
p1171
sg17
S'2013'
p1172
sg19
S'15'
p1173
sg21
S'--'
p1174
sg23
S'12/15'
p1175
sg25
S'--'
p1176
sg27
S'Jerome Felton'
p1177
sg29
S'--'
p1178
sg31
S'W48-30'
p1179
sg33
S'--'
p1180
sg35
S'--'
p1181
sg37
S'PHI'
p1182
sg39
S'--'
p1183
sg41
S'--'
p1184
sg43
S'--'
p1185
ssg123
(dp1186
g5
S'--'
p1187
sg7
S'--'
p1188
sg9
g14
sg11
S'--'
p1189
sg13
g14
sg15
g10
sg17
S'2013'
p1190
sg19
S'14'
p1191
sg21
S'--'
p1192
sg23
S'12/08'
p1193
sg25
S'--'
p1194
sg27
S'Jerome Felton'
p1195
sg29
S'--'
p1196
sg31
S'L26-29'
p1197
sg33
g10
sg35
g10
sg37
S'@BAL'
p1198
sg39
S'--'
p1199
sg41
S'--'
p1200
sg43
S'--'
p1201
ssg143
(dp1202
g5
S'--'
p1203
sg7
S'--'
p1204
sg9
g10
sg11
S'--'
p1205
sg13
g14
sg15
S'--'
p1206
sg17
S'2013'
p1207
sg19
S'17'
p1208
sg21
S'--'
p1209
sg23
S'12/29'
p1210
sg25
S'--'
p1211
sg27
S'Jerome Felton'
p1212
sg29
S'--'
p1213
sg31
S'W14-13'
p1214
sg33
S'--'
p1215
sg35
S'--'
p1216
sg37
S'DET'
p1217
sg39
S'--'
p1218
sg41
S'--'
p1219
sg43
S'--'
p1220
ssg163
(dp1221
g5
S'--'
p1222
sg7
S'--'
p1223
sg9
g14
sg11
S'--'
p1224
sg13
g14
sg15
S'--'
p1225
sg17
S'2013'
p1226
sg19
S'16'
p1227
sg21
S'--'
p1228
sg23
S'12/22'
p1229
sg25
S'--'
p1230
sg27
S'Jerome Felton'
p1231
sg29
S'--'
p1232
sg31
S'L14-42'
p1233
sg33
S'--'
p1234
sg35
S'--'
p1235
sg37
S'@CIN'
p1236
sg39
S'--'
p1237
sg41
S'--'
p1238
sg43
S'--'
p1239
ssg236
(dp1240
g5
g329
sg7
g329
sg9
g329
sg11
g329
sg13
g329
sg15
g329
sg17
S'2013'
p1241
sg19
g236
sg21
g329
sg23
S'Bye'
p1242
sg25
g329
sg27
S'Jerome Felton'
p1243
sg29
g329
sg31
g329
sg33
g329
sg35
g329
sg37
g329
sg39
g329
sg41
g329
sg43
g329
ssg251
(dp1244
g5
S'--'
p1245
sg7
S'--'
p1246
sg9
g14
sg11
S'--'
p1247
sg13
g14
sg15
S'--'
p1248
sg17
S'2013'
p1249
sg19
g251
sg21
S'--'
p1250
sg23
S'09/29'
p1251
sg25
S'--'
p1252
sg27
S'Jerome Felton'
p1253
sg29
S'--'
p1254
sg31
S'W34-27'
p1255
sg33
S'--'
p1256
sg35
S'--'
p1257
sg37
S'PIT'
p1258
sg39
S'--'
p1259
sg41
S'--'
p1260
sg43
S'--'
p1261
ssg270
(dp1262
g5
S'1.0'
p1263
sg7
S'--'
p1264
sg9
g10
sg11
S'--'
p1265
sg13
g14
sg15
g10
sg17
S'2013'
p1266
sg19
g270
sg21
S'--'
p1267
sg23
S'10/21'
p1268
sg25
S'--'
p1269
sg27
S'Jerome Felton'
p1270
sg29
S'--'
p1271
sg31
S'L7-23'
p1272
sg33
g14
sg35
g14
sg37
S'@NYG'
p1273
sg39
g14
sg41
S'--'
p1274
sg43
S'--'
p1275
ssg289
(dp1276
g5
S'--'
p1277
sg7
S'--'
p1278
sg9
g14
sg11
S'--'
p1279
sg13
g14
sg15
S'--'
p1280
sg17
S'2013'
p1281
sg19
g289
sg21
S'--'
p1282
sg23
S'10/13'
p1283
sg25
S'--'
p1284
sg27
S'Jerome Felton'
p1285
sg29
S'--'
p1286
sg31
S'L10-35'
p1287
sg33
S'--'
p1288
sg35
S'--'
p1289
sg37
S'CAR'
p1290
sg39
S'--'
p1291
sg41
S'--'
p1292
sg43
S'--'
p1293
ssg308
(dp1294
g5
S'11.0'
p1295
sg7
S'--'
p1296
sg9
g10
sg11
S'--'
p1297
sg13
g14
sg15
g10
sg17
S'2013'
p1298
sg19
g308
sg21
S'--'
p1299
sg23
S'11/03'
p1300
sg25
S'--'
p1301
sg27
S'Jerome Felton'
p1302
sg29
S'--'
p1303
sg31
S'L23-27'
p1304
sg33
S'11'
p1305
sg35
g14
sg37
S'@DAL'
p1306
sg39
S'11'
p1307
sg41
S'--'
p1308
sg43
S'--'
p1309
ssg327
(dp1310
g5
S'--'
p1311
sg7
S'--'
p1312
sg9
g14
sg11
S'--'
p1313
sg13
g14
sg15
S'--'
p1314
sg17
S'2013'
p1315
sg19
g327
sg21
S'--'
p1316
sg23
S'10/27'
p1317
sg25
S'--'
p1318
sg27
S'Jerome Felton'
p1319
sg29
S'--'
p1320
sg31
S'L31-44'
p1321
sg33
S'--'
p1322
sg35
S'--'
p1323
sg37
S'GB'
p1324
sg39
S'--'
p1325
sg41
S'--'
p1326
sg43
S'--'
p1327
sssS'2012'
p1328
(dp1329
g3
(dp1330
g5
g329
sg7
g329
sg9
g329
sg11
g329
sg13
g329
sg15
g329
sg17
S'2012'
p1331
sg19
S'11'
p1332
sg21
g329
sg23
S'Bye'
p1333
sg25
g329
sg27
S'Jerome Felton'
p1334
sg29
g329
sg31
g329
sg33
g329
sg35
g329
sg37
g329
sg39
g329
sg41
g329
sg43
g329
ssg45
(dp1335
g5
S'5.0'
p1336
sg7
S'--'
p1337
sg9
g14
sg11
S'--'
p1338
sg13
g14
sg15
g10
sg17
S'2012'
p1339
sg19
S'10'
p1340
sg21
S'--'
p1341
sg23
S'11/11'
p1342
sg25
S'--'
p1343
sg27
S'Jerome Felton'
p1344
sg29
S'--'
p1345
sg31
S'W34-24'
p1346
sg33
g236
sg35
g14
sg37
S'DET'
p1347
sg39
g236
sg41
S'--'
p1348
sg43
S'--'
p1349
ssg65
(dp1350
g5
S'13.0'
p1351
sg7
S'--'
p1352
sg9
g14
sg11
S'--'
p1353
sg13
g14
sg15
g10
sg17
S'2012'
p1354
sg19
S'13'
p1355
sg21
S'--'
p1356
sg23
S'12/02'
p1357
sg25
S'--'
p1358
sg27
S'Jerome Felton'
p1359
sg29
S'--'
p1360
sg31
S'L14-23'
p1361
sg33
S'13'
p1362
sg35
g14
sg37
S'@GB'
p1363
sg39
S'13'
p1364
sg41
S'--'
p1365
sg43
S'--'
p1366
ssg85
(dp1367
g5
S'--'
p1368
sg7
S'--'
p1369
sg9
g14
sg11
S'--'
p1370
sg13
g14
sg15
S'--'
p1371
sg17
S'2012'
p1372
sg19
S'12'
p1373
sg21
S'--'
p1374
sg23
S'11/25'
p1375
sg25
S'--'
p1376
sg27
S'Jerome Felton'
p1377
sg29
S'--'
p1378
sg31
S'L10-28'
p1379
sg33
S'--'
p1380
sg35
S'--'
p1381
sg37
S'@CHI'
p1382
sg39
S'--'
p1383
sg41
S'--'
p1384
sg43
S'--'
p1385
ssg103
(dp1386
g5
S'--'
p1387
sg7
S'--'
p1388
sg9
g10
sg11
S'--'
p1389
sg13
g14
sg15
S'--'
p1390
sg17
S'2012'
p1391
sg19
S'15'
p1392
sg21
S'--'
p1393
sg23
S'12/16'
p1394
sg25
S'--'
p1395
sg27
S'Jerome Felton'
p1396
sg29
S'--'
p1397
sg31
S'W36-22'
p1398
sg33
S'--'
p1399
sg35
S'--'
p1400
sg37
S'@STL'
p1401
sg39
S'--'
p1402
sg41
S'--'
p1403
sg43
S'--'
p1404
ssg123
(dp1405
g5
S'--'
p1406
sg7
S'--'
p1407
sg9
g10
sg11
S'--'
p1408
sg13
g14
sg15
S'--'
p1409
sg17
S'2012'
p1410
sg19
S'14'
p1411
sg21
S'--'
p1412
sg23
S'12/09'
p1413
sg25
S'--'
p1414
sg27
S'Jerome Felton'
p1415
sg29
S'--'
p1416
sg31
S'W21-14'
p1417
sg33
S'--'
p1418
sg35
S'--'
p1419
sg37
S'CHI'
p1420
sg39
S'--'
p1421
sg41
S'--'
p1422
sg43
S'--'
p1423
ssg143
(dp1424
g5
S'17.0'
p1425
sg7
S'--'
p1426
sg9
g14
sg11
S'--'
p1427
sg13
g14
sg15
g10
sg17
S'2012'
p1428
sg19
S'17'
p1429
sg21
S'--'
p1430
sg23
S'12/30'
p1431
sg25
S'--'
p1432
sg27
S'Jerome Felton'
p1433
sg29
S'--'
p1434
sg31
S'W37-34'
p1435
sg33
S'17'
p1436
sg35
g14
sg37
S'GB'
p1437
sg39
S'17'
p1438
sg41
S'--'
p1439
sg43
S'--'
p1440
ssg163
(dp1441
g5
S'--'
p1442
sg7
S'--'
p1443
sg9
g10
sg11
S'--'
p1444
sg13
g14
sg15
S'--'
p1445
sg17
S'2012'
p1446
sg19
S'16'
p1447
sg21
S'--'
p1448
sg23
S'12/23'
p1449
sg25
S'--'
p1450
sg27
S'Jerome Felton'
p1451
sg29
S'--'
p1452
sg31
S'W23-6'
p1453
sg33
S'--'
p1454
sg35
S'--'
p1455
sg37
S'@HOU'
p1456
sg39
S'--'
p1457
sg41
S'--'
p1458
sg43
S'--'
p1459
ssg14
(dp1460
g5
S'--'
p1461
sg7
S'--'
p1462
sg9
g10
sg11
S'--'
p1463
sg13
g14
sg15
S'--'
p1464
sg17
S'2012'
p1465
sg19
g14
sg21
S'--'
p1466
sg23
S'09/09'
p1467
sg25
S'--'
p1468
sg27
S'Jerome Felton'
p1469
sg29
S'--'
p1470
sg31
S'W26-23'
p1471
sg33
S'--'
p1472
sg35
S'--'
p1473
sg37
S'JAC'
p1474
sg39
S'--'
p1475
sg41
S'--'
p1476
sg43
S'--'
p1477
ssg198
(dp1478
g5
S'--'
p1479
sg7
S'--'
p1480
sg9
g14
sg11
S'--'
p1481
sg13
g14
sg15
S'--'
p1482
sg17
S'2012'
p1483
sg19
g198
sg21
S'--'
p1484
sg23
S'09/23'
p1485
sg25
S'--'
p1486
sg27
S'Jerome Felton'
p1487
sg29
S'--'
p1488
sg31
S'W24-13'
p1489
sg33
S'--'
p1490
sg35
S'--'
p1491
sg37
S'SF'
p1492
sg39
S'--'
p1493
sg41
S'--'
p1494
sg43
S'--'
p1495
ssg217
(dp1496
g5
S'--'
p1497
sg7
S'--'
p1498
sg9
g14
sg11
S'--'
p1499
sg13
g14
sg15
S'--'
p1500
sg17
S'2012'
p1501
sg19
g217
sg21
S'--'
p1502
sg23
S'09/16'
p1503
sg25
S'--'
p1504
sg27
S'Jerome Felton'
p1505
sg29
S'--'
p1506
sg31
S'L20-23'
p1507
sg33
S'--'
p1508
sg35
S'--'
p1509
sg37
S'@IND'
p1510
sg39
S'--'
p1511
sg41
S'--'
p1512
sg43
S'--'
p1513
ssg236
(dp1514
g5
S'--'
p1515
sg7
S'--'
p1516
sg9
g10
sg11
S'--'
p1517
sg13
g14
sg15
S'--'
p1518
sg17
S'2012'
p1519
sg19
g236
sg21
S'--'
p1520
sg23
S'10/07'
p1521
sg25
S'--'
p1522
sg27
S'Jerome Felton'
p1523
sg29
S'--'
p1524
sg31
S'W30-7'
p1525
sg33
S'--'
p1526
sg35
S'--'
p1527
sg37
S'TEN'
p1528
sg39
S'--'
p1529
sg41
S'--'
p1530
sg43
S'--'
p1531
ssg251
(dp1532
g5
S'--'
p1533
sg7
S'--'
p1534
sg9
g10
sg11
S'--'
p1535
sg13
g14
sg15
S'--'
p1536
sg17
S'2012'
p1537
sg19
g251
sg21
S'--'
p1538
sg23
S'09/30'
p1539
sg25
S'--'
p1540
sg27
S'Jerome Felton'
p1541
sg29
S'--'
p1542
sg31
S'W20-13'
p1543
sg33
S'--'
p1544
sg35
S'--'
p1545
sg37
S'@DET'
p1546
sg39
S'--'
p1547
sg41
S'--'
p1548
sg43
S'--'
p1549
ssg270
(dp1550
g5
S'--'
p1551
sg7
S'--'
p1552
sg9
g10
sg11
S'--'
p1553
sg13
g14
sg15
S'--'
p1554
sg17
S'2012'
p1555
sg19
g270
sg21
S'--'
p1556
sg23
S'10/21'
p1557
sg25
S'--'
p1558
sg27
S'Jerome Felton'
p1559
sg29
S'--'
p1560
sg31
S'W21-14'
p1561
sg33
S'--'
p1562
sg35
S'--'
p1563
sg37
S'ARI'
p1564
sg39
S'--'
p1565
sg41
S'--'
p1566
sg43
S'--'
p1567
ssg289
(dp1568
g5
S'--'
p1569
sg7
S'--'
p1570
sg9
g10
sg11
S'--'
p1571
sg13
g14
sg15
S'--'
p1572
sg17
S'2012'
p1573
sg19
g289
sg21
S'--'
p1574
sg23
S'10/14'
p1575
sg25
S'--'
p1576
sg27
S'Jerome Felton'
p1577
sg29
S'--'
p1578
sg31
S'L26-38'
p1579
sg33
S'--'
p1580
sg35
S'--'
p1581
sg37
S'@WAS'
p1582
sg39
S'--'
p1583
sg41
S'--'
p1584
sg43
S'--'
p1585
ssg308
(dp1586
g5
S'--'
p1587
sg7
S'--'
p1588
sg9
g14
sg11
S'--'
p1589
sg13
g14
sg15
g10
sg17
S'2012'
p1590
sg19
g308
sg21
S'--'
p1591
sg23
S'11/04'
p1592
sg25
S'--'
p1593
sg27
S'Jerome Felton'
p1594
sg29
S'--'
p1595
sg31
S'L20-30'
p1596
sg33
g10
sg35
g10
sg37
S'@SEA'
p1597
sg39
S'--'
p1598
sg41
S'--'
p1599
sg43
S'--'
p1600
ssg327
(dp1601
g5
S'--'
p1602
sg7
S'--'
p1603
sg9
g10
sg11
S'--'
p1604
sg13
g14
sg15
S'--'
p1605
sg17
S'2012'
p1606
sg19
g327
sg21
S'--'
p1607
sg23
S'10/25'
p1608
sg25
S'--'
p1609
sg27
S'Jerome Felton'
p1610
sg29
S'--'
p1611
sg31
S'L17-36'
p1612
sg33
S'--'
p1613
sg35
S'--'
p1614
sg37
S'TB'
p1615
sg39
S'--'
p1616
sg41
S'--'
p1617
sg43
S'--'
p1618
sss.