(dp0
S'2015'
p1
(dp2
S'15'
p3
(dp4
S'RecAvg'
p5
S'--'
p6
sS'FUM'
p7
S'--'
p8
sS'GS'
p9
S'0'
p10
sS'Lost'
p11
S'--'
p12
sS'G'
p13
S'1'
p14
sS'RecTD'
p15
S'--'
p16
sS'Year'
p17
S'2015'
p18
sS'WK'
p19
S'15'
p20
sS'RushAvg'
p21
S'3.6'
p22
sS'Game Date'
p23
S'12/20'
p24
sS'RushTD'
p25
g10
sS'Player'
p26
S'Joey Iosefa'
p27
sS'RushAtt'
p28
S'14'
p29
sS'Result'
p30
S'W33-16'
p31
sS'RecYds'
p32
S'--'
p33
sS'Rec'
p34
S'--'
p35
sS'Opp'
p36
S'TEN'
p37
sS'RecLng'
p38
S'--'
p39
sS'RushYds'
p40
S'51'
p41
sS'RushLng'
p42
S'15'
p43
ssS'16'
p44
(dp45
g5
S'--'
p46
sg7
S'--'
p47
sg9
g10
sg11
S'--'
p48
sg13
g14
sg15
S'--'
p49
sg17
S'2015'
p50
sg19
S'16'
p51
sg21
S'0.0'
p52
sg23
S'12/27'
p53
sg25
g10
sg26
S'Joey Iosefa'
p54
sg28
g14
sg30
S'L20-26'
p55
sg32
S'--'
p56
sg34
S'--'
p57
sg36
S'@NYJ'
p58
sg38
S'--'
p59
sg40
g10
sg42
g10
sss.