(dp0
S'2015'
p1
(dp2
S'13'
p3
(dp4
S'RecAvg'
p5
S'--'
p6
sS'FUM'
p7
S'--'
p8
sS'GS'
p9
S'0'
p10
sS'Lost'
p11
S'--'
p12
sS'G'
p13
S'1'
p14
sS'RecTD'
p15
S'--'
p16
sS'Year'
p17
S'2015'
p18
sS'WK'
p19
S'13'
p20
sS'RushAvg'
p21
S'4.4'
p22
sS'Game Date'
p23
S'12/03'
p24
sS'RushTD'
p25
g10
sS'Player'
p26
S'John Crockett'
p27
sS'RushAtt'
p28
S'5'
p29
sS'Result'
p30
S'W27-23'
p31
sS'RecYds'
p32
S'--'
p33
sS'Rec'
p34
S'--'
p35
sS'Opp'
p36
S'@DET'
p37
sS'RecLng'
p38
S'--'
p39
sS'RushYds'
p40
S'22'
p41
sS'RushLng'
p42
S'12'
p43
ssS'15'
p44
(dp45
g5
S'--'
p46
sg7
S'--'
p47
sg9
g10
sg11
S'--'
p48
sg13
g10
sg15
S'--'
p49
sg17
S'2015'
p50
sg19
S'15'
p51
sg21
S'--'
p52
sg23
S'12/20'
p53
sg25
S'--'
p54
sg26
S'John Crockett'
p55
sg28
S'--'
p56
sg30
S'W30-20'
p57
sg32
S'--'
p58
sg34
S'--'
p59
sg36
S'@OAK'
p60
sg38
S'--'
p61
sg40
S'--'
p62
sg42
S'--'
p63
ssS'14'
p64
(dp65
g5
S'--'
p66
sg7
S'--'
p67
sg9
g10
sg11
S'--'
p68
sg13
g10
sg15
S'--'
p69
sg17
S'2015'
p70
sg19
S'14'
p71
sg21
S'--'
p72
sg23
S'12/13'
p73
sg25
S'--'
p74
sg26
S'John Crockett'
p75
sg28
S'--'
p76
sg30
S'W28-7'
p77
sg32
S'--'
p78
sg34
S'--'
p79
sg36
S'DAL'
p80
sg38
S'--'
p81
sg40
S'--'
p82
sg42
S'--'
p83
ssS'17'
p84
(dp85
g5
S'--'
p86
sg7
S'--'
p87
sg9
g10
sg11
S'--'
p88
sg13
g10
sg15
S'--'
p89
sg17
S'2015'
p90
sg19
S'17'
p91
sg21
S'--'
p92
sg23
S'01/03'
p93
sg25
S'--'
p94
sg26
S'John Crockett'
p95
sg28
S'--'
p96
sg30
S'L13-20'
p97
sg32
S'--'
p98
sg34
S'--'
p99
sg36
S'MIN'
p100
sg38
S'--'
p101
sg40
S'--'
p102
sg42
S'--'
p103
ssS'16'
p104
(dp105
g5
S'--'
p106
sg7
S'--'
p107
sg9
g10
sg11
S'--'
p108
sg13
g14
sg15
S'--'
p109
sg17
S'2015'
p110
sg19
S'16'
p111
sg21
S'-0.3'
p112
sg23
S'12/27'
p113
sg25
g10
sg26
S'John Crockett'
p114
sg28
S'4'
p115
sg30
S'L8-38'
p116
sg32
S'--'
p117
sg34
S'--'
p118
sg36
S'@ARI'
p119
sg38
S'--'
p120
sg40
S'-1'
p121
sg42
g29
sss.