(dp0
S'2015'
p1
(dp2
S'11'
p3
(dp4
S'RecAvg'
p5
S''
p6
sS'FUM'
p7
g6
sS'GS'
p8
g6
sS'Lost'
p9
g6
sS'G'
p10
g6
sS'RecTD'
p11
g6
sS'Year'
p12
S'2015'
p13
sS'WK'
p14
S'11'
p15
sS'RushAvg'
p16
g6
sS'Game Date'
p17
S'Bye'
p18
sS'RushTD'
p19
g6
sS'Player'
p20
S'Jordan Todman'
p21
sS'RushAtt'
p22
g6
sS'Result'
p23
g6
sS'RecYds'
p24
g6
sS'Rec'
p25
g6
sS'Opp'
p26
g6
sS'RecLng'
p27
g6
sS'RushYds'
p28
g6
sS'RushLng'
p29
g6
ssS'10'
p30
(dp31
g5
S'--'
p32
sg7
S'--'
p33
sg8
S'0'
p34
sg9
S'--'
p35
sg10
S'1'
p36
sg11
S'--'
p37
sg12
S'2015'
p38
sg14
S'10'
p39
sg16
S'4.0'
p40
sg17
S'11/15'
p41
sg19
g34
sg20
S'Jordan Todman'
p42
sg22
S'2'
p43
sg23
S'W30-9'
p44
sg24
S'--'
p45
sg25
S'--'
p46
sg26
S'CLE'
p47
sg27
S'--'
p48
sg28
S'8'
p49
sg29
S'5'
p50
ssS'13'
p51
(dp52
g5
S'--'
p53
sg7
S'--'
p54
sg8
g34
sg9
S'--'
p55
sg10
g34
sg11
S'--'
p56
sg12
S'2015'
p57
sg14
S'13'
p58
sg16
S'--'
p59
sg17
S'12/06'
p60
sg19
S'--'
p61
sg20
S'Jordan Todman'
p62
sg22
S'--'
p63
sg23
S'W45-10'
p64
sg24
S'--'
p65
sg25
S'--'
p66
sg26
S'IND'
p67
sg27
S'--'
p68
sg28
S'--'
p69
sg29
S'--'
p70
ssS'12'
p71
(dp72
g5
S'--'
p73
sg7
S'--'
p74
sg8
g34
sg9
S'--'
p75
sg10
g36
sg11
S'--'
p76
sg12
S'2015'
p77
sg14
S'12'
p78
sg16
S'--'
p79
sg17
S'11/29'
p80
sg19
S'--'
p81
sg20
S'Jordan Todman'
p82
sg22
S'--'
p83
sg23
S'L30-39'
p84
sg24
S'--'
p85
sg25
S'--'
p86
sg26
S'@SEA'
p87
sg27
S'--'
p88
sg28
S'--'
p89
sg29
S'--'
p90
ssS'15'
p91
(dp92
g5
S'--'
p93
sg7
S'--'
p94
sg8
g34
sg9
S'--'
p95
sg10
g34
sg11
S'--'
p96
sg12
S'2015'
p97
sg14
S'15'
p98
sg16
S'--'
p99
sg17
S'12/20'
p100
sg19
S'--'
p101
sg20
S'Jordan Todman'
p102
sg22
S'--'
p103
sg23
S'W34-27'
p104
sg24
S'--'
p105
sg25
S'--'
p106
sg26
S'DEN'
p107
sg27
S'--'
p108
sg28
S'--'
p109
sg29
S'--'
p110
ssS'14'
p111
(dp112
g5
S'--'
p113
sg7
S'--'
p114
sg8
g34
sg9
S'--'
p115
sg10
g34
sg11
S'--'
p116
sg12
S'2015'
p117
sg14
S'14'
p118
sg16
S'--'
p119
sg17
S'12/13'
p120
sg19
S'--'
p121
sg20
S'Jordan Todman'
p122
sg22
S'--'
p123
sg23
S'W33-20'
p124
sg24
S'--'
p125
sg25
S'--'
p126
sg26
S'@CIN'
p127
sg27
S'--'
p128
sg28
S'--'
p129
sg29
S'--'
p130
ssS'17'
p131
(dp132
g5
S'--'
p133
sg7
S'--'
p134
sg8
g34
sg9
S'--'
p135
sg10
g34
sg11
S'--'
p136
sg12
S'2015'
p137
sg14
S'17'
p138
sg16
S'--'
p139
sg17
S'01/03'
p140
sg19
S'--'
p141
sg20
S'Jordan Todman'
p142
sg22
S'--'
p143
sg23
S'W28-12'
p144
sg24
S'--'
p145
sg25
S'--'
p146
sg26
S'@CLE'
p147
sg27
S'--'
p148
sg28
S'--'
p149
sg29
S'--'
p150
ssS'16'
p151
(dp152
g5
S'--'
p153
sg7
S'--'
p154
sg8
g34
sg9
S'--'
p155
sg10
g34
sg11
S'--'
p156
sg12
S'2015'
p157
sg14
S'16'
p158
sg16
S'--'
p159
sg17
S'12/27'
p160
sg19
S'--'
p161
sg20
S'Jordan Todman'
p162
sg22
S'--'
p163
sg23
S'L17-20'
p164
sg24
S'--'
p165
sg25
S'--'
p166
sg26
S'@BAL'
p167
sg27
S'--'
p168
sg28
S'--'
p169
sg29
S'--'
p170
ssg36
(dp171
g5
S'--'
p172
sg7
S'--'
p173
sg8
g34
sg9
S'--'
p174
sg10
g36
sg11
S'--'
p175
sg12
S'2015'
p176
sg14
g36
sg16
S'--'
p177
sg17
S'09/10'
p178
sg19
S'--'
p179
sg20
S'Jordan Todman'
p180
sg22
S'--'
p181
sg23
S'L21-28'
p182
sg24
S'--'
p183
sg25
S'--'
p184
sg26
S'@NE'
p185
sg27
S'--'
p186
sg28
S'--'
p187
sg29
S'--'
p188
ssS'3'
p189
(dp190
g5
S'--'
p191
sg7
S'--'
p192
sg8
g34
sg9
S'--'
p193
sg10
g36
sg11
S'--'
p194
sg12
S'2015'
p195
sg14
g189
sg16
S'--'
p196
sg17
S'09/27'
p197
sg19
S'--'
p198
sg20
S'Jordan Todman'
p199
sg22
S'--'
p200
sg23
S'W12-6'
p201
sg24
S'--'
p202
sg25
S'--'
p203
sg26
S'@STL'
p204
sg27
S'--'
p205
sg28
S'--'
p206
sg29
S'--'
p207
ssg43
(dp208
g5
S'--'
p209
sg7
S'--'
p210
sg8
g34
sg9
S'--'
p211
sg10
g36
sg11
S'--'
p212
sg12
S'2015'
p213
sg14
g43
sg16
S'11.0'
p214
sg17
S'09/20'
p215
sg19
g34
sg20
S'Jordan Todman'
p216
sg22
g36
sg23
S'W43-18'
p217
sg24
S'--'
p218
sg25
S'--'
p219
sg26
S'SF'
p220
sg27
S'--'
p221
sg28
S'11'
p222
sg29
S'11'
p223
ssg50
(dp224
g5
S'--'
p225
sg7
S'--'
p226
sg8
g34
sg9
S'--'
p227
sg10
g36
sg11
S'--'
p228
sg12
S'2015'
p229
sg14
g50
sg16
S'--'
p230
sg17
S'10/12'
p231
sg19
S'--'
p232
sg20
S'Jordan Todman'
p233
sg22
S'--'
p234
sg23
S'W24-20'
p235
sg24
S'--'
p236
sg25
S'--'
p237
sg26
S'@SD'
p238
sg27
S'--'
p239
sg28
S'--'
p240
sg29
S'--'
p241
ssS'4'
p242
(dp243
g5
S'--'
p244
sg7
S'--'
p245
sg8
g34
sg9
S'--'
p246
sg10
g36
sg11
S'--'
p247
sg12
S'2015'
p248
sg14
g242
sg16
S'--'
p249
sg17
S'10/01'
p250
sg19
S'--'
p251
sg20
S'Jordan Todman'
p252
sg22
S'--'
p253
sg23
S'L20-23'
p254
sg24
S'--'
p255
sg25
S'--'
p256
sg26
S'BAL'
p257
sg27
S'--'
p258
sg28
S'--'
p259
sg29
S'--'
p260
ssS'7'
p261
(dp262
g5
S'--'
p263
sg7
S'--'
p264
sg8
g34
sg9
S'--'
p265
sg10
g36
sg11
S'--'
p266
sg12
S'2015'
p267
sg14
g261
sg16
S'--'
p268
sg17
S'10/25'
p269
sg19
S'--'
p270
sg20
S'Jordan Todman'
p271
sg22
S'--'
p272
sg23
S'L13-23'
p273
sg24
S'--'
p274
sg25
S'--'
p275
sg26
S'@KC'
p276
sg27
S'--'
p277
sg28
S'--'
p278
sg29
S'--'
p279
ssS'6'
p280
(dp281
g5
S'--'
p282
sg7
S'--'
p283
sg8
g34
sg9
S'--'
p284
sg10
g36
sg11
S'--'
p285
sg12
S'2015'
p286
sg14
g280
sg16
S'--'
p287
sg17
S'10/18'
p288
sg19
S'--'
p289
sg20
S'Jordan Todman'
p290
sg22
S'--'
p291
sg23
S'W25-13'
p292
sg24
S'--'
p293
sg25
S'--'
p294
sg26
S'ARI'
p295
sg27
S'--'
p296
sg28
S'--'
p297
sg29
S'--'
p298
ssS'9'
p299
(dp300
g5
S'--'
p301
sg7
S'--'
p302
sg8
g34
sg9
S'--'
p303
sg10
g36
sg11
g34
sg12
S'2015'
p304
sg14
g299
sg16
S'3.0'
p305
sg17
S'11/08'
p306
sg19
g34
sg20
S'Jordan Todman'
p307
sg22
g36
sg23
S'W38-35'
p308
sg24
g34
sg25
g34
sg26
S'OAK'
p309
sg27
S'--'
p310
sg28
g189
sg29
g189
ssg49
(dp311
g5
S'--'
p312
sg7
S'--'
p313
sg8
g34
sg9
S'--'
p314
sg10
g36
sg11
S'--'
p315
sg12
S'2015'
p316
sg14
g49
sg16
S'--'
p317
sg17
S'11/01'
p318
sg19
S'--'
p319
sg20
S'Jordan Todman'
p320
sg22
S'--'
p321
sg23
S'L10-16'
p322
sg24
S'--'
p323
sg25
S'--'
p324
sg26
S'CIN'
p325
sg27
S'--'
p326
sg28
S'--'
p327
sg29
S'--'
p328
sssS'2014'
p329
(dp330
g3
(dp331
g5
g6
sg7
g6
sg8
g6
sg9
g6
sg10
g6
sg11
g6
sg12
S'2014'
p332
sg14
S'11'
p333
sg16
g6
sg17
S'Bye'
p334
sg19
g6
sg20
S'Jordan Todman'
p335
sg22
g6
sg23
g6
sg24
g6
sg25
g6
sg26
g6
sg27
g6
sg28
g6
sg29
g6
ssg30
(dp336
g5
S'9.0'
p337
sg7
S'--'
p338
sg8
g34
sg9
S'--'
p339
sg10
g36
sg11
g34
sg12
S'2014'
p340
sg14
S'10'
p341
sg16
S'3.0'
p342
sg17
S'11/09'
p343
sg19
g34
sg20
S'Jordan Todman'
p344
sg22
g43
sg23
S'L17-31'
p345
sg24
S'27'
p346
sg25
g189
sg26
S'DAL'
p347
sg27
S'13'
p348
sg28
g280
sg29
g189
ssg51
(dp349
g5
S'7.0'
p350
sg7
S'--'
p351
sg8
g34
sg9
S'--'
p352
sg10
g36
sg11
g34
sg12
S'2014'
p353
sg14
S'13'
p354
sg16
S'-1.0'
p355
sg17
S'11/30'
p356
sg19
g34
sg20
S'Jordan Todman'
p357
sg22
g36
sg23
S'W25-24'
p358
sg24
g261
sg25
g36
sg26
S'NYG'
p359
sg27
g261
sg28
S'-1'
p360
sg29
S'-1'
p361
ssg71
(dp362
g5
S'7.0'
p363
sg7
S'--'
p364
sg8
g34
sg9
S'--'
p365
sg10
g36
sg11
g34
sg12
S'2014'
p366
sg14
S'12'
p367
sg16
S'--'
p368
sg17
S'11/23'
p369
sg19
S'--'
p370
sg20
S'Jordan Todman'
p371
sg22
S'--'
p372
sg23
S'L3-23'
p373
sg24
S'14'
p374
sg25
g43
sg26
S'@IND'
p375
sg27
S'10'
p376
sg28
S'--'
p377
sg29
S'--'
p378
ssg91
(dp379
g5
S'19.0'
p380
sg7
S'--'
p381
sg8
g34
sg9
S'--'
p382
sg10
g36
sg11
g34
sg12
S'2014'
p383
sg14
S'15'
p384
sg16
S'2.3'
p385
sg17
S'12/14'
p386
sg19
g34
sg20
S'Jordan Todman'
p387
sg22
g189
sg23
S'L12-20'
p388
sg24
S'19'
p389
sg25
g36
sg26
S'@BAL'
p390
sg27
S'19'
p391
sg28
g261
sg29
g49
ssg111
(dp392
g5
S'5.0'
p393
sg7
S'--'
p394
sg8
g34
sg9
S'--'
p395
sg10
g36
sg11
g34
sg12
S'2014'
p396
sg14
S'14'
p397
sg16
S'3.7'
p398
sg17
S'12/07'
p399
sg19
g34
sg20
S'Jordan Todman'
p400
sg22
g189
sg23
S'L13-27'
p401
sg24
g50
sg25
g36
sg26
S'HOU'
p402
sg27
g50
sg28
S'11'
p403
sg29
g242
ssg131
(dp404
g5
S'9.2'
p405
sg7
S'--'
p406
sg8
g36
sg9
S'--'
p407
sg10
g36
sg11
g36
sg12
S'2014'
p408
sg14
S'17'
p409
sg16
S'7.4'
p410
sg17
S'12/28'
p411
sg19
g34
sg20
S'Jordan Todman'
p412
sg22
g261
sg23
S'L17-23'
p413
sg24
S'46'
p414
sg25
g50
sg26
S'@HOU'
p415
sg27
S'23T'
p416
sg28
S'52'
p417
sg29
S'34'
p418
ssg151
(dp419
g5
S'2.5'
p420
sg7
S'--'
p421
sg8
g34
sg9
S'--'
p422
sg10
g36
sg11
g34
sg12
S'2014'
p423
sg14
S'16'
p424
sg16
S'14.2'
p425
sg17
S'12/18'
p426
sg19
g36
sg20
S'Jordan Todman'
p427
sg22
g50
sg23
S'W21-13'
p428
sg24
g50
sg25
g43
sg26
S'TEN'
p429
sg27
g299
sg28
S'71'
p430
sg29
S'62T'
p431
ssg36
(dp432
g5
S'5.0'
p433
sg7
S'--'
p434
sg8
g34
sg9
S'--'
p435
sg10
g36
sg11
g34
sg12
S'2014'
p436
sg14
g36
sg16
S'2.0'
p437
sg17
S'09/07'
p438
sg19
g34
sg20
S'Jordan Todman'
p439
sg22
g189
sg23
S'L17-34'
p440
sg24
g50
sg25
g36
sg26
S'@PHI'
p441
sg27
g50
sg28
g280
sg29
g50
ssg189
(dp442
g5
S'--'
p443
sg7
S'--'
p444
sg8
g34
sg9
S'--'
p445
sg10
g36
sg11
g34
sg12
S'2014'
p446
sg14
g189
sg16
S'10.0'
p447
sg17
S'09/21'
p448
sg19
g34
sg20
S'Jordan Todman'
p449
sg22
g36
sg23
S'L17-44'
p450
sg24
g34
sg25
g34
sg26
S'IND'
p451
sg27
S'--'
p452
sg28
S'10'
p453
sg29
S'10'
p454
ssg43
(dp455
g5
S'--'
p456
sg7
S'--'
p457
sg8
g34
sg9
S'--'
p458
sg10
g36
sg11
S'--'
p459
sg12
S'2014'
p460
sg14
g43
sg16
S'--'
p461
sg17
S'09/14'
p462
sg19
S'--'
p463
sg20
S'Jordan Todman'
p464
sg22
S'--'
p465
sg23
S'L10-41'
p466
sg24
S'--'
p467
sg25
S'--'
p468
sg26
S'@WAS'
p469
sg27
S'--'
p470
sg28
S'--'
p471
sg29
S'--'
p472
ssg50
(dp473
g5
S'11.5'
p474
sg7
S'--'
p475
sg8
g34
sg9
S'--'
p476
sg10
g36
sg11
g34
sg12
S'2014'
p477
sg14
g50
sg16
S'--'
p478
sg17
S'10/05'
p479
sg19
S'--'
p480
sg20
S'Jordan Todman'
p481
sg22
S'--'
p482
sg23
S'L9-17'
p483
sg24
S'23'
p484
sg25
g43
sg26
S'PIT'
p485
sg27
S'18'
p486
sg28
S'--'
p487
sg29
S'--'
p488
ssg242
(dp489
g5
S'10.0'
p490
sg7
S'--'
p491
sg8
g34
sg9
S'--'
p492
sg10
g36
sg11
g34
sg12
S'2014'
p493
sg14
g242
sg16
S'4.0'
p494
sg17
S'09/28'
p495
sg19
g34
sg20
S'Jordan Todman'
p496
sg22
g36
sg23
S'L14-33'
p497
sg24
S'20'
p498
sg25
g43
sg26
S'@SD'
p499
sg27
S'16'
p500
sg28
g242
sg29
g242
ssg261
(dp501
g5
S'26.0'
p502
sg7
S'--'
p503
sg8
g34
sg9
S'--'
p504
sg10
g36
sg11
g34
sg12
S'2014'
p505
sg14
g261
sg16
S'--'
p506
sg17
S'10/19'
p507
sg19
S'--'
p508
sg20
S'Jordan Todman'
p509
sg22
S'--'
p510
sg23
S'W24-6'
p511
sg24
S'26'
p512
sg25
g36
sg26
S'CLE'
p513
sg27
S'26'
p514
sg28
S'--'
p515
sg29
S'--'
p516
ssg280
(dp517
g5
S'0.0'
p518
sg7
S'--'
p519
sg8
g34
sg9
S'--'
p520
sg10
g36
sg11
g34
sg12
S'2014'
p521
sg14
g280
sg16
S'0.3'
p522
sg17
S'10/12'
p523
sg19
g34
sg20
S'Jordan Todman'
p524
sg22
g189
sg23
S'L14-16'
p525
sg24
g34
sg25
g36
sg26
S'@TEN'
p526
sg27
g34
sg28
g36
sg29
g43
ssg299
(dp527
g5
S'1.0'
p528
sg7
S'--'
p529
sg8
g34
sg9
S'--'
p530
sg10
g36
sg11
g34
sg12
S'2014'
p531
sg14
g299
sg16
S'9.0'
p532
sg17
S'11/02'
p533
sg19
g34
sg20
S'Jordan Todman'
p534
sg22
g36
sg23
S'L23-33'
p535
sg24
g36
sg25
g36
sg26
S'@CIN'
p536
sg27
g36
sg28
g299
sg29
g299
ssg49
(dp537
g5
S'0.0'
p538
sg7
S'--'
p539
sg8
g34
sg9
S'--'
p540
sg10
g36
sg11
g34
sg12
S'2014'
p541
sg14
g49
sg16
S'5.0'
p542
sg17
S'10/26'
p543
sg19
g34
sg20
S'Jordan Todman'
p544
sg22
g43
sg23
S'L13-27'
p545
sg24
g34
sg25
g43
sg26
S'MIA'
p546
sg27
g189
sg28
S'10'
p547
sg29
g49
sssS'2011'
p548
(dp549
g131
(dp550
g5
S'--'
p551
sg7
S'--'
p552
sg8
g34
sg9
S'--'
p553
sg10
g34
sg11
S'--'
p554
sg12
S'2011'
p555
sg14
S'17'
p556
sg16
S'--'
p557
sg17
S'01/01'
p558
sg19
S'--'
p559
sg20
S'Jordan Todman'
p560
sg22
S'--'
p561
sg23
S'L13-17'
p562
sg24
S'--'
p563
sg25
S'--'
p564
sg26
S'CHI'
p565
sg27
S'--'
p566
sg28
S'--'
p567
sg29
S'--'
p568
ssg36
(dp569
g5
S'--'
p570
sg7
S'--'
p571
sg8
g34
sg9
S'--'
p572
sg10
g34
sg11
S'--'
p573
sg12
S'2011'
p574
sg14
g36
sg16
S'--'
p575
sg17
S'09/11'
p576
sg19
S'--'
p577
sg20
S'Jordan Todman'
p578
sg22
S'--'
p579
sg23
S'W24-17'
p580
sg24
S'--'
p581
sg25
S'--'
p582
sg26
S'MIN'
p583
sg27
S'--'
p584
sg28
S'--'
p585
sg29
S'--'
p586
ssg189
(dp587
g5
S'--'
p588
sg7
S'--'
p589
sg8
g34
sg9
S'--'
p590
sg10
g34
sg11
S'--'
p591
sg12
S'2011'
p592
sg14
g189
sg16
S'--'
p593
sg17
S'09/25'
p594
sg19
S'--'
p595
sg20
S'Jordan Todman'
p596
sg22
S'--'
p597
sg23
S'W20-17'
p598
sg24
S'--'
p599
sg25
S'--'
p600
sg26
S'KC'
p601
sg27
S'--'
p602
sg28
S'--'
p603
sg29
S'--'
p604
ssg43
(dp605
g5
S'--'
p606
sg7
S'--'
p607
sg8
g34
sg9
S'--'
p608
sg10
g34
sg11
S'--'
p609
sg12
S'2011'
p610
sg14
g43
sg16
S'--'
p611
sg17
S'09/18'
p612
sg19
S'--'
p613
sg20
S'Jordan Todman'
p614
sg22
S'--'
p615
sg23
S'L21-35'
p616
sg24
S'--'
p617
sg25
S'--'
p618
sg26
S'@NE'
p619
sg27
S'--'
p620
sg28
S'--'
p621
sg29
S'--'
p622
ssg50
(dp623
g5
S'--'
p624
sg7
S'--'
p625
sg8
g34
sg9
S'--'
p626
sg10
g34
sg11
S'--'
p627
sg12
S'2011'
p628
sg14
g50
sg16
S'--'
p629
sg17
S'10/09'
p630
sg19
S'--'
p631
sg20
S'Jordan Todman'
p632
sg22
S'--'
p633
sg23
S'W29-24'
p634
sg24
S'--'
p635
sg25
S'--'
p636
sg26
S'@DEN'
p637
sg27
S'--'
p638
sg28
S'--'
p639
sg29
S'--'
p640
ssg242
(dp641
g5
S'--'
p642
sg7
S'--'
p643
sg8
g34
sg9
S'--'
p644
sg10
g34
sg11
S'--'
p645
sg12
S'2011'
p646
sg14
g242
sg16
S'--'
p647
sg17
S'10/02'
p648
sg19
S'--'
p649
sg20
S'Jordan Todman'
p650
sg22
S'--'
p651
sg23
S'W26-16'
p652
sg24
S'--'
p653
sg25
S'--'
p654
sg26
S'MIA'
p655
sg27
S'--'
p656
sg28
S'--'
p657
sg29
S'--'
p658
sssS'2013'
p659
(dp660
g3
(dp661
g5
S'-5.0'
p662
sg7
S'--'
p663
sg8
g34
sg9
S'--'
p664
sg10
g36
sg11
g34
sg12
S'2013'
p665
sg14
S'11'
p666
sg16
S'4.5'
p667
sg17
S'11/17'
p668
sg19
g34
sg20
S'Jordan Todman'
p669
sg22
g43
sg23
S'L14-27'
p670
sg24
S'-5'
p671
sg25
g36
sg26
S'ARI'
p672
sg27
S'-5'
p673
sg28
g299
sg29
g50
ssg30
(dp674
g5
S'2.0'
p675
sg7
S'--'
p676
sg8
g34
sg9
S'--'
p677
sg10
g36
sg11
g34
sg12
S'2013'
p678
sg14
S'10'
p679
sg16
S'3.7'
p680
sg17
S'11/10'
p681
sg19
g36
sg20
S'Jordan Todman'
p682
sg22
g189
sg23
S'W29-27'
p683
sg24
g43
sg25
g36
sg26
S'@TEN'
p684
sg27
g43
sg28
S'11'
p685
sg29
S'5T'
p686
ssg51
(dp687
g5
S'12.0'
p688
sg7
S'--'
p689
sg8
g34
sg9
S'--'
p690
sg10
g36
sg11
g34
sg12
S'2013'
p691
sg14
S'13'
p692
sg16
S'6.2'
p693
sg17
S'12/01'
p694
sg19
g34
sg20
S'Jordan Todman'
p695
sg22
g50
sg23
S'W32-28'
p696
sg24
S'12'
p697
sg25
g36
sg26
S'@CLE'
p698
sg27
S'12'
p699
sg28
S'31'
p700
sg29
S'13'
p701
ssg71
(dp702
g5
S'5.0'
p703
sg7
S'--'
p704
sg8
g34
sg9
S'--'
p705
sg10
g36
sg11
g34
sg12
S'2013'
p706
sg14
S'12'
p707
sg16
S'2.8'
p708
sg17
S'11/24'
p709
sg19
g34
sg20
S'Jordan Todman'
p710
sg22
S'11'
p711
sg23
S'W13-6'
p712
sg24
g50
sg25
g36
sg26
S'@HOU'
p713
sg27
g50
sg28
S'31'
p714
sg29
g261
ssg91
(dp715
g5
S'11.0'
p716
sg7
S'--'
p717
sg8
g36
sg9
S'--'
p718
sg10
g36
sg11
g34
sg12
S'2013'
p719
sg14
S'15'
p720
sg16
S'4.4'
p721
sg17
S'12/15'
p722
sg19
g34
sg20
S'Jordan Todman'
p723
sg22
S'25'
p724
sg23
S'L20-27'
p725
sg24
S'44'
p726
sg25
g242
sg26
S'BUF'
p727
sg27
S'30'
p728
sg28
S'109'
p729
sg29
S'33'
p730
ssg111
(dp731
g5
S'21.0'
p732
sg7
S'--'
p733
sg8
g34
sg9
S'--'
p734
sg10
g36
sg11
g36
sg12
S'2013'
p735
sg14
S'14'
p736
sg16
S'2.0'
p737
sg17
S'12/05'
p738
sg19
g34
sg20
S'Jordan Todman'
p739
sg22
g261
sg23
S'W27-20'
p740
sg24
S'21'
p741
sg25
g36
sg26
S'HOU'
p742
sg27
S'21T'
p743
sg28
S'14'
p744
sg29
S'13'
p745
ssg131
(dp746
g5
S'12.0'
p747
sg7
S'--'
p748
sg8
g36
sg9
S'--'
p749
sg10
g36
sg11
g34
sg12
S'2013'
p750
sg14
S'17'
p751
sg16
S'1.5'
p752
sg17
S'12/29'
p753
sg19
g34
sg20
S'Jordan Todman'
p754
sg22
g43
sg23
S'L10-30'
p755
sg24
S'12'
p756
sg25
g36
sg26
S'@IND'
p757
sg27
S'12'
p758
sg28
g189
sg29
g189
ssg151
(dp759
g5
S'5.0'
p760
sg7
S'--'
p761
sg8
g34
sg9
S'--'
p762
sg10
g36
sg11
g34
sg12
S'2013'
p763
sg14
S'16'
p764
sg16
S'1.0'
p765
sg17
S'12/22'
p766
sg19
g34
sg20
S'Jordan Todman'
p767
sg22
g280
sg23
S'L16-20'
p768
sg24
g50
sg25
g36
sg26
S'TEN'
p769
sg27
g50
sg28
g280
sg29
g50
ssg36
(dp770
g5
S'6.7'
p771
sg7
S'--'
p772
sg8
g34
sg9
S'--'
p773
sg10
g36
sg11
g34
sg12
S'2013'
p774
sg14
g36
sg16
S'2.0'
p775
sg17
S'09/08'
p776
sg19
g34
sg20
S'Jordan Todman'
p777
sg22
g36
sg23
S'L2-28'
p778
sg24
S'20'
p779
sg25
g189
sg26
S'KC'
p780
sg27
S'15'
p781
sg28
g43
sg29
g43
ssg189
(dp782
g5
S'--'
p783
sg7
S'--'
p784
sg8
g34
sg9
S'--'
p785
sg10
g36
sg11
S'--'
p786
sg12
S'2013'
p787
sg14
g189
sg16
S'2.5'
p788
sg17
S'09/22'
p789
sg19
g36
sg20
S'Jordan Todman'
p790
sg22
g43
sg23
S'L17-45'
p791
sg24
S'--'
p792
sg25
S'--'
p793
sg26
S'@SEA'
p794
sg27
S'--'
p795
sg28
g50
sg29
S'3T'
p796
ssg43
(dp797
g5
S'--'
p798
sg7
S'--'
p799
sg8
g34
sg9
S'--'
p800
sg10
g36
sg11
g34
sg12
S'2013'
p801
sg14
g43
sg16
S'1.4'
p802
sg17
S'09/15'
p803
sg19
g34
sg20
S'Jordan Todman'
p804
sg22
g50
sg23
S'L9-19'
p805
sg24
g34
sg25
g34
sg26
S'@OAK'
p806
sg27
S'--'
p807
sg28
g261
sg29
g242
ssg50
(dp808
g5
S'--'
p809
sg7
S'--'
p810
sg8
g34
sg9
S'--'
p811
sg10
g36
sg11
S'--'
p812
sg12
S'2013'
p813
sg14
g50
sg16
S'5.3'
p814
sg17
S'10/06'
p815
sg19
g34
sg20
S'Jordan Todman'
p816
sg22
g189
sg23
S'L20-34'
p817
sg24
S'--'
p818
sg25
S'--'
p819
sg26
S'@STL'
p820
sg27
S'--'
p821
sg28
S'16'
p822
sg29
g299
ssg242
(dp823
g5
S'--'
p824
sg7
S'--'
p825
sg8
g34
sg9
S'--'
p826
sg10
g36
sg11
S'--'
p827
sg12
S'2013'
p828
sg14
g242
sg16
S'2.0'
p829
sg17
S'09/29'
p830
sg19
g34
sg20
S'Jordan Todman'
p831
sg22
g43
sg23
S'L3-37'
p832
sg24
S'--'
p833
sg25
S'--'
p834
sg26
S'IND'
p835
sg27
S'--'
p836
sg28
g242
sg29
g189
ssg261
(dp837
g5
S'--'
p838
sg7
S'--'
p839
sg8
g34
sg9
S'--'
p840
sg10
g36
sg11
S'--'
p841
sg12
S'2013'
p842
sg14
g261
sg16
S'8.0'
p843
sg17
S'10/20'
p844
sg19
g34
sg20
S'Jordan Todman'
p845
sg22
g36
sg23
S'L6-24'
p846
sg24
S'--'
p847
sg25
S'--'
p848
sg26
S'SD'
p849
sg27
S'--'
p850
sg28
g49
sg29
g49
ssg280
(dp851
g5
S'--'
p852
sg7
S'--'
p853
sg8
g34
sg9
S'--'
p854
sg10
g36
sg11
S'--'
p855
sg12
S'2013'
p856
sg14
g280
sg16
S'0.0'
p857
sg17
S'10/13'
p858
sg19
g34
sg20
S'Jordan Todman'
p859
sg22
g36
sg23
S'L19-35'
p860
sg24
S'--'
p861
sg25
S'--'
p862
sg26
S'@DEN'
p863
sg27
S'--'
p864
sg28
g34
sg29
g34
ssg299
(dp865
g5
g6
sg7
g6
sg8
g6
sg9
g6
sg10
g6
sg11
g6
sg12
S'2013'
p866
sg14
g299
sg16
g6
sg17
S'Bye'
p867
sg19
g6
sg20
S'Jordan Todman'
p868
sg22
g6
sg23
g6
sg24
g6
sg25
g6
sg26
g6
sg27
g6
sg28
g6
sg29
g6
ssg49
(dp869
g5
S'--'
p870
sg7
S'--'
p871
sg8
g34
sg9
S'--'
p872
sg10
g36
sg11
S'--'
p873
sg12
S'2013'
p874
sg14
g49
sg16
S'--'
p875
sg17
S'10/27'
p876
sg19
S'--'
p877
sg20
S'Jordan Todman'
p878
sg22
S'--'
p879
sg23
S'L10-42'
p880
sg24
S'--'
p881
sg25
S'--'
p882
sg26
S'SF'
p883
sg27
S'--'
p884
sg28
S'--'
p885
sg29
S'--'
p886
sssS'2012'
p887
(dp888
g51
(dp889
g5
S'--'
p890
sg7
S'--'
p891
sg8
g34
sg9
S'--'
p892
sg10
g34
sg11
S'--'
p893
sg12
S'2012'
p894
sg14
S'13'
p895
sg16
S'--'
p896
sg17
S'12/02'
p897
sg19
S'--'
p898
sg20
S'Jordan Todman'
p899
sg22
S'--'
p900
sg23
S'L18-34'
p901
sg24
S'--'
p902
sg25
S'--'
p903
sg26
S'@BUF'
p904
sg27
S'--'
p905
sg28
S'--'
p906
sg29
S'--'
p907
ssg91
(dp908
g5
S'--'
p909
sg7
S'--'
p910
sg8
g34
sg9
S'--'
p911
sg10
g34
sg11
S'--'
p912
sg12
S'2012'
p913
sg14
S'15'
p914
sg16
S'--'
p915
sg17
S'12/16'
p916
sg19
S'--'
p917
sg20
S'Jordan Todman'
p918
sg22
S'--'
p919
sg23
S'L3-24'
p920
sg24
S'--'
p921
sg25
S'--'
p922
sg26
S'@MIA'
p923
sg27
S'--'
p924
sg28
S'--'
p925
sg29
S'--'
p926
ssg111
(dp927
g5
S'0.0'
p928
sg7
S'--'
p929
sg8
g34
sg9
S'--'
p930
sg10
g36
sg11
g34
sg12
S'2012'
p931
sg14
S'14'
p932
sg16
S'2.7'
p933
sg17
S'12/09'
p934
sg19
g34
sg20
S'Jordan Todman'
p935
sg22
g189
sg23
S'L10-17'
p936
sg24
g34
sg25
g36
sg26
S'NYJ'
p937
sg27
g34
sg28
g49
sg29
g280
sss.