(dp0
S'2015'
p1
(dp2
S'11'
p3
(dp4
S'RecAvg'
p5
S'--'
p6
sS'FUM'
p7
S'--'
p8
sS'GS'
p9
S'0'
p10
sS'Lost'
p11
S'--'
p12
sS'G'
p13
S'1'
p14
sS'RecTD'
p15
S'--'
p16
sS'Year'
p17
S'2015'
p18
sS'WK'
p19
S'11'
p20
sS'RushAvg'
p21
S'--'
p22
sS'Game Date'
p23
S'11/22'
p24
sS'RushTD'
p25
S'--'
p26
sS'Player'
p27
S'Jorvorskie Lane'
p28
sS'RushAtt'
p29
S'--'
p30
sS'Result'
p31
S'W45-17'
p32
sS'RecYds'
p33
S'--'
p34
sS'Rec'
p35
S'--'
p36
sS'Opp'
p37
S'@PHI'
p38
sS'RecLng'
p39
S'--'
p40
sS'RushYds'
p41
S'--'
p42
sS'RushLng'
p43
S'--'
p44
ssS'10'
p45
(dp46
g5
S'8.0'
p47
sg7
S'--'
p48
sg9
g14
sg11
S'--'
p49
sg13
g14
sg15
g10
sg17
S'2015'
p50
sg19
S'10'
p51
sg21
S'--'
p52
sg23
S'11/15'
p53
sg25
S'--'
p54
sg27
S'Jorvorskie Lane'
p55
sg29
S'--'
p56
sg31
S'W10-6'
p57
sg33
S'8'
p58
sg35
g14
sg37
S'DAL'
p59
sg39
g58
sg41
S'--'
p60
sg43
S'--'
p61
ssS'13'
p62
(dp63
g5
S'--'
p64
sg7
S'--'
p65
sg9
g10
sg11
S'--'
p66
sg13
g14
sg15
S'--'
p67
sg17
S'2015'
p68
sg19
S'13'
p69
sg21
S'--'
p70
sg23
S'12/06'
p71
sg25
S'--'
p72
sg27
S'Jorvorskie Lane'
p73
sg29
S'--'
p74
sg31
S'W23-19'
p75
sg33
S'--'
p76
sg35
S'--'
p77
sg37
S'ATL'
p78
sg39
S'--'
p79
sg41
S'--'
p80
sg43
S'--'
p81
ssS'12'
p82
(dp83
g5
S'--'
p84
sg7
S'--'
p85
sg9
g10
sg11
S'--'
p86
sg13
g14
sg15
S'--'
p87
sg17
S'2015'
p88
sg19
S'12'
p89
sg21
S'--'
p90
sg23
S'11/29'
p91
sg25
S'--'
p92
sg27
S'Jorvorskie Lane'
p93
sg29
S'--'
p94
sg31
S'L12-25'
p95
sg33
S'--'
p96
sg35
S'--'
p97
sg37
S'@IND'
p98
sg39
S'--'
p99
sg41
S'--'
p100
sg43
S'--'
p101
ssS'15'
p102
(dp103
g5
S'--'
p104
sg7
S'--'
p105
sg9
g10
sg11
S'--'
p106
sg13
g14
sg15
S'--'
p107
sg17
S'2015'
p108
sg19
S'15'
p109
sg21
S'--'
p110
sg23
S'12/17'
p111
sg25
S'--'
p112
sg27
S'Jorvorskie Lane'
p113
sg29
S'--'
p114
sg31
S'L23-31'
p115
sg33
S'--'
p116
sg35
S'--'
p117
sg37
S'@STL'
p118
sg39
S'--'
p119
sg41
S'--'
p120
sg43
S'--'
p121
ssS'14'
p122
(dp123
g5
S'--'
p124
sg7
S'--'
p125
sg9
g14
sg11
S'--'
p126
sg13
g14
sg15
S'--'
p127
sg17
S'2015'
p128
sg19
S'14'
p129
sg21
S'--'
p130
sg23
S'12/13'
p131
sg25
S'--'
p132
sg27
S'Jorvorskie Lane'
p133
sg29
S'--'
p134
sg31
S'L17-24'
p135
sg33
S'--'
p136
sg35
S'--'
p137
sg37
S'NO'
p138
sg39
S'--'
p139
sg41
S'--'
p140
sg43
S'--'
p141
ssS'17'
p142
(dp143
g5
S'--'
p144
sg7
S'--'
p145
sg9
g14
sg11
S'--'
p146
sg13
g14
sg15
S'--'
p147
sg17
S'2015'
p148
sg19
S'17'
p149
sg21
S'--'
p150
sg23
S'01/03'
p151
sg25
S'--'
p152
sg27
S'Jorvorskie Lane'
p153
sg29
S'--'
p154
sg31
S'L10-38'
p155
sg33
S'--'
p156
sg35
S'--'
p157
sg37
S'@CAR'
p158
sg39
S'--'
p159
sg41
S'--'
p160
sg43
S'--'
p161
ssS'16'
p162
(dp163
g5
S'--'
p164
sg7
S'--'
p165
sg9
g10
sg11
S'--'
p166
sg13
g14
sg15
S'--'
p167
sg17
S'2015'
p168
sg19
S'16'
p169
sg21
S'--'
p170
sg23
S'12/27'
p171
sg25
S'--'
p172
sg27
S'Jorvorskie Lane'
p173
sg29
S'--'
p174
sg31
S'L21-26'
p175
sg33
S'--'
p176
sg35
S'--'
p177
sg37
S'CHI'
p178
sg39
S'--'
p179
sg41
S'--'
p180
sg43
S'--'
p181
ssg14
(dp182
g5
S'--'
p183
sg7
S'--'
p184
sg9
g10
sg11
S'--'
p185
sg13
g14
sg15
S'--'
p186
sg17
S'2015'
p187
sg19
g14
sg21
S'0.0'
p188
sg23
S'09/13'
p189
sg25
g10
sg27
S'Jorvorskie Lane'
p190
sg29
g14
sg31
S'L14-42'
p191
sg33
S'--'
p192
sg35
S'--'
p193
sg37
S'TEN'
p194
sg39
S'--'
p195
sg41
g10
sg43
g10
ssS'3'
p196
(dp197
g5
S'--'
p198
sg7
S'--'
p199
sg9
g14
sg11
S'--'
p200
sg13
g14
sg15
S'--'
p201
sg17
S'2015'
p202
sg19
g196
sg21
S'--'
p203
sg23
S'09/27'
p204
sg25
S'--'
p205
sg27
S'Jorvorskie Lane'
p206
sg29
S'--'
p207
sg31
S'L9-19'
p208
sg33
S'--'
p209
sg35
S'--'
p210
sg37
S'@HOU'
p211
sg39
S'--'
p212
sg41
S'--'
p213
sg43
S'--'
p214
ssS'2'
p215
(dp216
g5
S'--'
p217
sg7
S'--'
p218
sg9
g10
sg11
S'--'
p219
sg13
g14
sg15
S'--'
p220
sg17
S'2015'
p221
sg19
g215
sg21
S'--'
p222
sg23
S'09/20'
p223
sg25
S'--'
p224
sg27
S'Jorvorskie Lane'
p225
sg29
S'--'
p226
sg31
S'W26-19'
p227
sg33
S'--'
p228
sg35
S'--'
p229
sg37
S'@NO'
p230
sg39
S'--'
p231
sg41
S'--'
p232
sg43
S'--'
p233
ssS'5'
p234
(dp235
g5
S'--'
p236
sg7
S'--'
p237
sg9
g10
sg11
S'--'
p238
sg13
g14
sg15
S'--'
p239
sg17
S'2015'
p240
sg19
g234
sg21
S'--'
p241
sg23
S'10/11'
p242
sg25
S'--'
p243
sg27
S'Jorvorskie Lane'
p244
sg29
S'--'
p245
sg31
S'W38-31'
p246
sg33
S'--'
p247
sg35
S'--'
p248
sg37
S'JAC'
p249
sg39
S'--'
p250
sg41
S'--'
p251
sg43
S'--'
p252
ssS'4'
p253
(dp254
g5
S'--'
p255
sg7
S'--'
p256
sg9
g14
sg11
S'--'
p257
sg13
g14
sg15
S'--'
p258
sg17
S'2015'
p259
sg19
g253
sg21
S'--'
p260
sg23
S'10/04'
p261
sg25
S'--'
p262
sg27
S'Jorvorskie Lane'
p263
sg29
S'--'
p264
sg31
S'L23-37'
p265
sg33
S'--'
p266
sg35
S'--'
p267
sg37
S'CAR'
p268
sg39
S'--'
p269
sg41
S'--'
p270
sg43
S'--'
p271
ssS'7'
p272
(dp273
g5
S'--'
p274
sg7
S'--'
p275
sg9
g10
sg11
S'--'
p276
sg13
g14
sg15
S'--'
p277
sg17
S'2015'
p278
sg19
g272
sg21
S'--'
p279
sg23
S'10/25'
p280
sg25
S'--'
p281
sg27
S'Jorvorskie Lane'
p282
sg29
S'--'
p283
sg31
S'L30-31'
p284
sg33
S'--'
p285
sg35
S'--'
p286
sg37
S'@WAS'
p287
sg39
S'--'
p288
sg41
S'--'
p289
sg43
S'--'
p290
ssS'6'
p291
(dp292
g5
S''
p293
sg7
g293
sg9
g293
sg11
g293
sg13
g293
sg15
g293
sg17
S'2015'
p294
sg19
g291
sg21
g293
sg23
S'Bye'
p295
sg25
g293
sg27
S'Jorvorskie Lane'
p296
sg29
g293
sg31
g293
sg33
g293
sg35
g293
sg37
g293
sg39
g293
sg41
g293
sg43
g293
ssS'9'
p297
(dp298
g5
S'5.0'
p299
sg7
S'--'
p300
sg9
g10
sg11
S'--'
p301
sg13
g14
sg15
g10
sg17
S'2015'
p302
sg19
g297
sg21
S'--'
p303
sg23
S'11/08'
p304
sg25
S'--'
p305
sg27
S'Jorvorskie Lane'
p306
sg29
S'--'
p307
sg31
S'L18-32'
p308
sg33
g234
sg35
g14
sg37
S'NYG'
p309
sg39
g234
sg41
S'--'
p310
sg43
S'--'
p311
ssg58
(dp312
g5
S'--'
p313
sg7
S'--'
p314
sg9
g14
sg11
S'--'
p315
sg13
g14
sg15
S'--'
p316
sg17
S'2015'
p317
sg19
g58
sg21
S'--'
p318
sg23
S'11/01'
p319
sg25
S'--'
p320
sg27
S'Jorvorskie Lane'
p321
sg29
S'--'
p322
sg31
S'W23-20'
p323
sg33
S'--'
p324
sg35
S'--'
p325
sg37
S'@ATL'
p326
sg39
S'--'
p327
sg41
S'--'
p328
sg43
S'--'
p329
sssS'2014'
p330
(dp331
g3
(dp332
g5
S'--'
p333
sg7
S'--'
p334
sg9
g14
sg11
S'--'
p335
sg13
g14
sg15
S'--'
p336
sg17
S'2014'
p337
sg19
S'11'
p338
sg21
S'--'
p339
sg23
S'11/16'
p340
sg25
S'--'
p341
sg27
S'Jorvorskie Lane'
p342
sg29
S'--'
p343
sg31
S'W27-7'
p344
sg33
S'--'
p345
sg35
S'--'
p346
sg37
S'@WAS'
p347
sg39
S'--'
p348
sg41
S'--'
p349
sg43
S'--'
p350
ssg45
(dp351
g5
S'--'
p352
sg7
S'--'
p353
sg9
g14
sg11
S'--'
p354
sg13
g14
sg15
S'--'
p355
sg17
S'2014'
p356
sg19
S'10'
p357
sg21
S'--'
p358
sg23
S'11/09'
p359
sg25
S'--'
p360
sg27
S'Jorvorskie Lane'
p361
sg29
S'--'
p362
sg31
S'L17-27'
p363
sg33
S'--'
p364
sg35
S'--'
p365
sg37
S'ATL'
p366
sg39
S'--'
p367
sg41
S'--'
p368
sg43
S'--'
p369
ssg82
(dp370
g5
S'--'
p371
sg7
S'--'
p372
sg9
g14
sg11
S'--'
p373
sg13
g14
sg15
S'--'
p374
sg17
S'2014'
p375
sg19
S'12'
p376
sg21
S'2.0'
p377
sg23
S'11/23'
p378
sg25
g10
sg27
S'Jorvorskie Lane'
p379
sg29
g14
sg31
S'L13-21'
p380
sg33
S'--'
p381
sg35
S'--'
p382
sg37
S'@CHI'
p383
sg39
S'--'
p384
sg41
g215
sg43
g215
ssg14
(dp385
g5
S'--'
p386
sg7
S'--'
p387
sg9
g14
sg11
S'--'
p388
sg13
g14
sg15
S'--'
p389
sg17
S'2014'
p390
sg19
g14
sg21
S'54.0'
p391
sg23
S'09/07'
p392
sg25
g10
sg27
S'Jorvorskie Lane'
p393
sg29
g14
sg31
S'L14-20'
p394
sg33
S'--'
p395
sg35
S'--'
p396
sg37
S'CAR'
p397
sg39
S'--'
p398
sg41
S'54'
p399
sg43
S'54'
p400
ssg196
(dp401
g5
S'--'
p402
sg7
S'--'
p403
sg9
g10
sg11
S'--'
p404
sg13
g14
sg15
S'--'
p405
sg17
S'2014'
p406
sg19
g196
sg21
S'--'
p407
sg23
S'09/18'
p408
sg25
S'--'
p409
sg27
S'Jorvorskie Lane'
p410
sg29
S'--'
p411
sg31
S'L14-56'
p412
sg33
S'--'
p413
sg35
S'--'
p414
sg37
S'@ATL'
p415
sg39
S'--'
p416
sg41
S'--'
p417
sg43
S'--'
p418
ssg215
(dp419
g5
S'3.0'
p420
sg7
S'--'
p421
sg9
g10
sg11
S'--'
p422
sg13
g14
sg15
g10
sg17
S'2014'
p423
sg19
g215
sg21
S'--'
p424
sg23
S'09/14'
p425
sg25
S'--'
p426
sg27
S'Jorvorskie Lane'
p427
sg29
S'--'
p428
sg31
S'L17-19'
p429
sg33
g196
sg35
g14
sg37
S'STL'
p430
sg39
g196
sg41
S'--'
p431
sg43
S'--'
p432
ssg234
(dp433
g5
S'--'
p434
sg7
S'--'
p435
sg9
g10
sg11
S'--'
p436
sg13
g14
sg15
S'--'
p437
sg17
S'2014'
p438
sg19
g234
sg21
S'--'
p439
sg23
S'10/05'
p440
sg25
S'--'
p441
sg27
S'Jorvorskie Lane'
p442
sg29
S'--'
p443
sg31
S'L31-37'
p444
sg33
S'--'
p445
sg35
S'--'
p446
sg37
S'@NO'
p447
sg39
S'--'
p448
sg41
S'--'
p449
sg43
S'--'
p450
ssg253
(dp451
g5
S'--'
p452
sg7
S'--'
p453
sg9
g10
sg11
S'--'
p454
sg13
g14
sg15
S'--'
p455
sg17
S'2014'
p456
sg19
g253
sg21
S'2.0'
p457
sg23
S'09/28'
p458
sg25
g10
sg27
S'Jorvorskie Lane'
p459
sg29
g14
sg31
S'W27-24'
p460
sg33
S'--'
p461
sg35
S'--'
p462
sg37
S'@PIT'
p463
sg39
S'--'
p464
sg41
g215
sg43
g215
ssg291
(dp465
g5
S'--'
p466
sg7
S'--'
p467
sg9
g10
sg11
S'--'
p468
sg13
g14
sg15
S'--'
p469
sg17
S'2014'
p470
sg19
g291
sg21
S'--'
p471
sg23
S'10/12'
p472
sg25
S'--'
p473
sg27
S'Jorvorskie Lane'
p474
sg29
S'--'
p475
sg31
S'L17-48'
p476
sg33
S'--'
p477
sg35
S'--'
p478
sg37
S'BAL'
p479
sg39
S'--'
p480
sg41
S'--'
p481
sg43
S'--'
p482
sssS'2012'
p483
(dp484
g3
(dp485
g5
S'--'
p486
sg7
S'--'
p487
sg9
g10
sg11
S'--'
p488
sg13
g14
sg15
S'--'
p489
sg17
S'2012'
p490
sg19
S'11'
p491
sg21
S'0.0'
p492
sg23
S'11/15'
p493
sg25
g10
sg27
S'Jorvorskie Lane'
p494
sg29
g14
sg31
S'L14-19'
p495
sg33
S'--'
p496
sg35
S'--'
p497
sg37
S'@BUF'
p498
sg39
S'--'
p499
sg41
g10
sg43
g10
ssg45
(dp500
g5
S'--'
p501
sg7
S'--'
p502
sg9
g10
sg11
S'--'
p503
sg13
g14
sg15
S'--'
p504
sg17
S'2012'
p505
sg19
S'10'
p506
sg21
S'0.0'
p507
sg23
S'11/11'
p508
sg25
g10
sg27
S'Jorvorskie Lane'
p509
sg29
g14
sg31
S'L3-37'
p510
sg33
S'--'
p511
sg35
S'--'
p512
sg37
S'TEN'
p513
sg39
S'--'
p514
sg41
g10
sg43
g10
ssg62
(dp515
g5
S'2.0'
p516
sg7
g14
sg9
g10
sg11
g10
sg13
g14
sg15
g10
sg17
S'2012'
p517
sg19
S'13'
p518
sg21
S'--'
p519
sg23
S'12/02'
p520
sg25
S'--'
p521
sg27
S'Jorvorskie Lane'
p522
sg29
S'--'
p523
sg31
S'L16-23'
p524
sg33
g215
sg35
g14
sg37
S'NE'
p525
sg39
g215
sg41
S'--'
p526
sg43
S'--'
p527
ssg82
(dp528
g5
S'--'
p529
sg7
S'--'
p530
sg9
g14
sg11
S'--'
p531
sg13
g14
sg15
S'--'
p532
sg17
S'2012'
p533
sg19
S'12'
p534
sg21
S'--'
p535
sg23
S'11/25'
p536
sg25
S'--'
p537
sg27
S'Jorvorskie Lane'
p538
sg29
S'--'
p539
sg31
S'W24-21'
p540
sg33
S'--'
p541
sg35
S'--'
p542
sg37
S'SEA'
p543
sg39
S'--'
p544
sg41
S'--'
p545
sg43
S'--'
p546
ssg102
(dp547
g5
S'3.0'
p548
sg7
S'--'
p549
sg9
g10
sg11
S'--'
p550
sg13
g14
sg15
g14
sg17
S'2012'
p551
sg19
S'15'
p552
sg21
S'--'
p553
sg23
S'12/16'
p554
sg25
S'--'
p555
sg27
S'Jorvorskie Lane'
p556
sg29
S'--'
p557
sg31
S'W24-3'
p558
sg33
g291
sg35
g215
sg37
S'JAC'
p559
sg39
S'4T'
p560
sg41
S'--'
p561
sg43
S'--'
p562
ssg122
(dp563
g5
S'--'
p564
sg7
g14
sg9
g10
sg11
g10
sg13
g14
sg15
S'--'
p565
sg17
S'2012'
p566
sg19
S'14'
p567
sg21
S'--'
p568
sg23
S'12/09'
p569
sg25
S'--'
p570
sg27
S'Jorvorskie Lane'
p571
sg29
S'--'
p572
sg31
S'L13-27'
p573
sg33
S'--'
p574
sg35
S'--'
p575
sg37
S'@SF'
p576
sg39
S'--'
p577
sg41
S'--'
p578
sg43
S'--'
p579
ssg142
(dp580
g5
S'7.0'
p581
sg7
S'--'
p582
sg9
g14
sg11
S'--'
p583
sg13
g14
sg15
g10
sg17
S'2012'
p584
sg19
S'17'
p585
sg21
S'--'
p586
sg23
S'12/30'
p587
sg25
S'--'
p588
sg27
S'Jorvorskie Lane'
p589
sg29
S'--'
p590
sg31
S'L0-28'
p591
sg33
S'14'
p592
sg35
g215
sg37
S'@NE'
p593
sg39
g58
sg41
S'--'
p594
sg43
S'--'
p595
ssg162
(dp596
g5
S'--'
p597
sg7
S'--'
p598
sg9
g10
sg11
S'--'
p599
sg13
g14
sg15
S'--'
p600
sg17
S'2012'
p601
sg19
S'16'
p602
sg21
S'--'
p603
sg23
S'12/23'
p604
sg25
S'--'
p605
sg27
S'Jorvorskie Lane'
p606
sg29
S'--'
p607
sg31
S'W24-10'
p608
sg33
S'--'
p609
sg35
S'--'
p610
sg37
S'BUF'
p611
sg39
S'--'
p612
sg41
S'--'
p613
sg43
S'--'
p614
ssg14
(dp615
g5
S'24.0'
p616
sg7
S'--'
p617
sg9
g10
sg11
S'--'
p618
sg13
g14
sg15
g10
sg17
S'2012'
p619
sg19
g14
sg21
S'--'
p620
sg23
S'09/09'
p621
sg25
S'--'
p622
sg27
S'Jorvorskie Lane'
p623
sg29
S'--'
p624
sg31
S'L10-30'
p625
sg33
S'24'
p626
sg35
g14
sg37
S'@HOU'
p627
sg39
S'24'
p628
sg41
S'--'
p629
sg43
S'--'
p630
ssg196
(dp631
g5
S'1.0'
p632
sg7
S'--'
p633
sg9
g10
sg11
S'--'
p634
sg13
g14
sg15
g10
sg17
S'2012'
p635
sg19
g196
sg21
S'2.0'
p636
sg23
S'09/23'
p637
sg25
g14
sg27
S'Jorvorskie Lane'
p638
sg29
g215
sg31
S'L20-23'
p639
sg33
g14
sg35
g14
sg37
S'NYJ'
p640
sg39
g14
sg41
g253
sg43
g196
ssg215
(dp641
g5
S'--'
p642
sg7
S'--'
p643
sg9
g14
sg11
S'--'
p644
sg13
g14
sg15
S'--'
p645
sg17
S'2012'
p646
sg19
g215
sg21
S'3.0'
p647
sg23
S'09/16'
p648
sg25
g10
sg27
S'Jorvorskie Lane'
p649
sg29
g253
sg31
S'W35-13'
p650
sg33
S'--'
p651
sg35
S'--'
p652
sg37
S'OAK'
p653
sg39
S'--'
p654
sg41
S'12'
p655
sg43
g253
ssg234
(dp656
g5
S'10.0'
p657
sg7
g14
sg9
g10
sg11
g14
sg13
g14
sg15
g10
sg17
S'2012'
p658
sg19
g234
sg21
S'-2.5'
p659
sg23
S'10/07'
p660
sg25
g10
sg27
S'Jorvorskie Lane'
p661
sg29
g215
sg31
S'W17-13'
p662
sg33
S'20'
p663
sg35
g215
sg37
S'@CIN'
p664
sg39
S'15'
p665
sg41
S'-5'
p666
sg43
g10
ssg253
(dp667
g5
S'--'
p668
sg7
S'--'
p669
sg9
g10
sg11
S'--'
p670
sg13
g14
sg15
S'--'
p671
sg17
S'2012'
p672
sg19
g253
sg21
S'0.7'
p673
sg23
S'09/30'
p674
sg25
g14
sg27
S'Jorvorskie Lane'
p675
sg29
g196
sg31
S'L21-24'
p676
sg33
S'--'
p677
sg35
S'--'
p678
sg37
S'@ARI'
p679
sg39
S'--'
p680
sg41
g215
sg43
S'1T'
p681
ssg272
(dp682
g5
g293
sg7
g293
sg9
g293
sg11
g293
sg13
g293
sg15
g293
sg17
S'2012'
p683
sg19
g272
sg21
g293
sg23
S'Bye'
p684
sg25
g293
sg27
S'Jorvorskie Lane'
p685
sg29
g293
sg31
g293
sg33
g293
sg35
g293
sg37
g293
sg39
g293
sg41
g293
sg43
g293
ssg291
(dp686
g5
S'6.0'
p687
sg7
S'--'
p688
sg9
g14
sg11
S'--'
p689
sg13
g14
sg15
g10
sg17
S'2012'
p690
sg19
g291
sg21
S'--'
p691
sg23
S'10/14'
p692
sg25
S'--'
p693
sg27
S'Jorvorskie Lane'
p694
sg29
S'--'
p695
sg31
S'W17-14'
p696
sg33
S'12'
p697
sg35
g215
sg37
S'STL'
p698
sg39
g272
sg41
S'--'
p699
sg43
S'--'
p700
ssg297
(dp701
g5
S'--'
p702
sg7
S'--'
p703
sg9
g10
sg11
S'--'
p704
sg13
g14
sg15
g10
sg17
S'2012'
p705
sg19
g297
sg21
S'--'
p706
sg23
S'11/04'
p707
sg25
S'--'
p708
sg27
S'Jorvorskie Lane'
p709
sg29
S'--'
p710
sg31
S'L20-23'
p711
sg33
g10
sg35
g10
sg37
S'@IND'
p712
sg39
S'--'
p713
sg41
S'--'
p714
sg43
S'--'
p715
ssg58
(dp716
g5
S'--'
p717
sg7
S'--'
p718
sg9
g14
sg11
S'--'
p719
sg13
g14
sg15
S'--'
p720
sg17
S'2012'
p721
sg19
g58
sg21
S'--'
p722
sg23
S'10/28'
p723
sg25
S'--'
p724
sg27
S'Jorvorskie Lane'
p725
sg29
S'--'
p726
sg31
S'W30-9'
p727
sg33
S'--'
p728
sg35
S'--'
p729
sg37
S'@NYJ'
p730
sg39
S'--'
p731
sg41
S'--'
p732
sg43
S'--'
p733
sss.