(dp0
S'2015'
p1
(dp2
S'11'
p3
(dp4
S'RecAvg'
p5
S'--'
p6
sS'FUM'
p7
S'--'
p8
sS'GS'
p9
S'0'
p10
sS'Lost'
p11
S'--'
p12
sS'G'
p13
S'1'
p14
sS'RecTD'
p15
S'--'
p16
sS'Year'
p17
S'2015'
p18
sS'WK'
p19
S'11'
p20
sS'RushAvg'
p21
S'--'
p22
sS'Game Date'
p23
S'11/22'
p24
sS'RushTD'
p25
S'--'
p26
sS'Player'
p27
S'Juwan Thompson'
p28
sS'RushAtt'
p29
S'--'
p30
sS'Result'
p31
S'W17-15'
p32
sS'RecYds'
p33
S'--'
p34
sS'Rec'
p35
S'--'
p36
sS'Opp'
p37
S'@CHI'
p38
sS'RecLng'
p39
S'--'
p40
sS'RushYds'
p41
S'--'
p42
sS'RushLng'
p43
S'--'
p44
ssS'10'
p45
(dp46
g5
S'--'
p47
sg7
S'--'
p48
sg9
g10
sg11
S'--'
p49
sg13
g14
sg15
g10
sg17
S'2015'
p50
sg19
S'10'
p51
sg21
S'--'
p52
sg23
S'11/15'
p53
sg25
S'--'
p54
sg27
S'Juwan Thompson'
p55
sg29
S'--'
p56
sg31
S'L13-29'
p57
sg33
g10
sg35
g10
sg37
S'KC'
p58
sg39
S'--'
p59
sg41
S'--'
p60
sg43
S'--'
p61
ssS'13'
p62
(dp63
g5
S'14.0'
p64
sg7
S'--'
p65
sg9
g10
sg11
S'--'
p66
sg13
g14
sg15
g10
sg17
S'2015'
p67
sg19
S'13'
p68
sg21
S'3.4'
p69
sg23
S'12/06'
p70
sg25
g10
sg27
S'Juwan Thompson'
p71
sg29
S'8'
p72
sg31
S'W17-3'
p73
sg33
S'14'
p74
sg35
g14
sg37
S'@SD'
p75
sg39
S'14'
p76
sg41
S'27'
p77
sg43
S'12'
p78
ssS'12'
p79
(dp80
g5
S'--'
p81
sg7
S'--'
p82
sg9
g10
sg11
S'--'
p83
sg13
g14
sg15
S'--'
p84
sg17
S'2015'
p85
sg19
S'12'
p86
sg21
S'3.0'
p87
sg23
S'11/29'
p88
sg25
g10
sg27
S'Juwan Thompson'
p89
sg29
g14
sg31
S'W30-24'
p90
sg33
S'--'
p91
sg35
S'--'
p92
sg37
S'NE'
p93
sg39
S'--'
p94
sg41
S'3'
p95
sg43
g95
ssS'15'
p96
(dp97
g5
S'--'
p98
sg7
S'--'
p99
sg9
g10
sg11
S'--'
p100
sg13
g14
sg15
S'--'
p101
sg17
S'2015'
p102
sg19
S'15'
p103
sg21
S'--'
p104
sg23
S'12/20'
p105
sg25
S'--'
p106
sg27
S'Juwan Thompson'
p107
sg29
S'--'
p108
sg31
S'L27-34'
p109
sg33
S'--'
p110
sg35
S'--'
p111
sg37
S'@PIT'
p112
sg39
S'--'
p113
sg41
S'--'
p114
sg43
S'--'
p115
ssS'14'
p116
(dp117
g5
S'5.3'
p118
sg7
S'--'
p119
sg9
g10
sg11
S'--'
p120
sg13
g14
sg15
g10
sg17
S'2015'
p121
sg19
S'14'
p122
sg21
S'1.6'
p123
sg23
S'12/13'
p124
sg25
g10
sg27
S'Juwan Thompson'
p125
sg29
S'5'
p126
sg31
S'L12-15'
p127
sg33
S'21'
p128
sg35
S'4'
p129
sg37
S'OAK'
p130
sg39
g72
sg41
g72
sg43
g126
ssS'17'
p131
(dp132
g5
S'--'
p133
sg7
S'--'
p134
sg9
g10
sg11
S'--'
p135
sg13
g14
sg15
S'--'
p136
sg17
S'2015'
p137
sg19
S'17'
p138
sg21
S'--'
p139
sg23
S'01/03'
p140
sg25
S'--'
p141
sg27
S'Juwan Thompson'
p142
sg29
S'--'
p143
sg31
S'W27-20'
p144
sg33
S'--'
p145
sg35
S'--'
p146
sg37
S'SD'
p147
sg39
S'--'
p148
sg41
S'--'
p149
sg43
S'--'
p150
ssS'16'
p151
(dp152
g5
S'--'
p153
sg7
S'--'
p154
sg9
g14
sg11
S'--'
p155
sg13
g14
sg15
S'--'
p156
sg17
S'2015'
p157
sg19
S'16'
p158
sg21
S'--'
p159
sg23
S'12/28'
p160
sg25
S'--'
p161
sg27
S'Juwan Thompson'
p162
sg29
S'--'
p163
sg31
S'W20-17'
p164
sg33
S'--'
p165
sg35
S'--'
p166
sg37
S'CIN'
p167
sg39
S'--'
p168
sg41
S'--'
p169
sg43
S'--'
p170
ssg14
(dp171
g5
S'--'
p172
sg7
S'--'
p173
sg9
g10
sg11
S'--'
p174
sg13
g14
sg15
S'--'
p175
sg17
S'2015'
p176
sg19
g14
sg21
S'--'
p177
sg23
S'09/13'
p178
sg25
S'--'
p179
sg27
S'Juwan Thompson'
p180
sg29
S'--'
p181
sg31
S'W19-13'
p182
sg33
S'--'
p183
sg35
S'--'
p184
sg37
S'BAL'
p185
sg39
S'--'
p186
sg41
S'--'
p187
sg43
S'--'
p188
ssg95
(dp189
g5
S'--'
p190
sg7
S'--'
p191
sg9
g10
sg11
S'--'
p192
sg13
g14
sg15
S'--'
p193
sg17
S'2015'
p194
sg19
g95
sg21
S'3.7'
p195
sg23
S'09/27'
p196
sg25
g10
sg27
S'Juwan Thompson'
p197
sg29
g95
sg31
S'W24-12'
p198
sg33
S'--'
p199
sg35
S'--'
p200
sg37
S'@DET'
p201
sg39
S'--'
p202
sg41
S'11'
p203
sg43
S'6'
p204
ssS'2'
p205
(dp206
g5
S'--'
p207
sg7
S'--'
p208
sg9
g10
sg11
S'--'
p209
sg13
g14
sg15
S'--'
p210
sg17
S'2015'
p211
sg19
g205
sg21
S'--'
p212
sg23
S'09/17'
p213
sg25
S'--'
p214
sg27
S'Juwan Thompson'
p215
sg29
S'--'
p216
sg31
S'W31-24'
p217
sg33
S'--'
p218
sg35
S'--'
p219
sg37
S'@KC'
p220
sg39
S'--'
p221
sg41
S'--'
p222
sg43
S'--'
p223
ssg126
(dp224
g5
S'16.0'
p225
sg7
S'--'
p226
sg9
g10
sg11
S'--'
p227
sg13
g14
sg15
g10
sg17
S'2015'
p228
sg19
g126
sg21
S'--'
p229
sg23
S'10/11'
p230
sg25
S'--'
p231
sg27
S'Juwan Thompson'
p232
sg29
S'--'
p233
sg31
S'W16-10'
p234
sg33
S'16'
p235
sg35
g14
sg37
S'@OAK'
p236
sg39
S'16'
p237
sg41
S'--'
p238
sg43
S'--'
p239
ssg129
(dp240
g5
S'--'
p241
sg7
S'--'
p242
sg9
g10
sg11
S'--'
p243
sg13
g14
sg15
S'--'
p244
sg17
S'2015'
p245
sg19
g129
sg21
S'--'
p246
sg23
S'10/04'
p247
sg25
S'--'
p248
sg27
S'Juwan Thompson'
p249
sg29
S'--'
p250
sg31
S'W23-20'
p251
sg33
S'--'
p252
sg35
S'--'
p253
sg37
S'MIN'
p254
sg39
S'--'
p255
sg41
S'--'
p256
sg43
S'--'
p257
ssS'7'
p258
(dp259
g5
S''
p260
sg7
g260
sg9
g260
sg11
g260
sg13
g260
sg15
g260
sg17
S'2015'
p261
sg19
g258
sg21
g260
sg23
S'Bye'
p262
sg25
g260
sg27
S'Juwan Thompson'
p263
sg29
g260
sg31
g260
sg33
g260
sg35
g260
sg37
g260
sg39
g260
sg41
g260
sg43
g260
ssg204
(dp264
g5
S'--'
p265
sg7
S'--'
p266
sg9
g10
sg11
S'--'
p267
sg13
g10
sg15
S'--'
p268
sg17
S'2015'
p269
sg19
g204
sg21
S'--'
p270
sg23
S'10/18'
p271
sg25
S'--'
p272
sg27
S'Juwan Thompson'
p273
sg29
S'--'
p274
sg31
S'W26-23'
p275
sg33
S'--'
p276
sg35
S'--'
p277
sg37
S'@CLE'
p278
sg39
S'--'
p279
sg41
S'--'
p280
sg43
S'--'
p281
ssS'9'
p282
(dp283
g5
S'--'
p284
sg7
S'--'
p285
sg9
g10
sg11
S'--'
p286
sg13
g14
sg15
S'--'
p287
sg17
S'2015'
p288
sg19
g282
sg21
S'--'
p289
sg23
S'11/08'
p290
sg25
S'--'
p291
sg27
S'Juwan Thompson'
p292
sg29
S'--'
p293
sg31
S'L24-27'
p294
sg33
S'--'
p295
sg35
S'--'
p296
sg37
S'@IND'
p297
sg39
S'--'
p298
sg41
S'--'
p299
sg43
S'--'
p300
ssg72
(dp301
g5
S'--'
p302
sg7
S'--'
p303
sg9
g10
sg11
S'--'
p304
sg13
g14
sg15
S'--'
p305
sg17
S'2015'
p306
sg19
g72
sg21
S'-1.0'
p307
sg23
S'11/01'
p308
sg25
g10
sg27
S'Juwan Thompson'
p309
sg29
g14
sg31
S'W29-10'
p310
sg33
S'--'
p311
sg35
S'--'
p312
sg37
S'GB'
p313
sg39
S'--'
p314
sg41
S'-1'
p315
sg43
S'-1'
p316
sssS'2014'
p317
(dp318
g3
(dp319
g5
S'5.0'
p320
sg7
S'--'
p321
sg9
g10
sg11
S'--'
p322
sg13
g14
sg15
g10
sg17
S'2014'
p323
sg19
S'11'
p324
sg21
S'--'
p325
sg23
S'11/16'
p326
sg25
S'--'
p327
sg27
S'Juwan Thompson'
p328
sg29
S'--'
p329
sg31
S'L7-22'
p330
sg33
g126
sg35
g14
sg37
S'@STL'
p331
sg39
g126
sg41
S'--'
p332
sg43
S'--'
p333
ssg45
(dp334
g5
S'--'
p335
sg7
g14
sg9
g10
sg11
g10
sg13
g14
sg15
S'--'
p336
sg17
S'2014'
p337
sg19
S'10'
p338
sg21
S'2.0'
p339
sg23
S'11/09'
p340
sg25
g10
sg27
S'Juwan Thompson'
p341
sg29
g129
sg31
S'W41-17'
p342
sg33
S'--'
p343
sg35
S'--'
p344
sg37
S'@OAK'
p345
sg39
S'--'
p346
sg41
g72
sg43
g126
ssg62
(dp347
g5
S'--'
p348
sg7
S'--'
p349
sg9
g10
sg11
S'--'
p350
sg13
g14
sg15
S'--'
p351
sg17
S'2014'
p352
sg19
S'13'
p353
sg21
S'3.9'
p354
sg23
S'11/30'
p355
sg25
g10
sg27
S'Juwan Thompson'
p356
sg29
S'10'
p357
sg31
S'W29-16'
p358
sg33
S'--'
p359
sg35
S'--'
p360
sg37
S'@KC'
p361
sg39
S'--'
p362
sg41
S'39'
p363
sg43
S'17'
p364
ssg79
(dp365
g5
S'--'
p366
sg7
S'--'
p367
sg9
g10
sg11
S'--'
p368
sg13
g14
sg15
S'--'
p369
sg17
S'2014'
p370
sg19
S'12'
p371
sg21
S'6.6'
p372
sg23
S'11/23'
p373
sg25
g10
sg27
S'Juwan Thompson'
p374
sg29
g126
sg31
S'W39-36'
p375
sg33
S'--'
p376
sg35
S'--'
p377
sg37
S'MIA'
p378
sg39
S'--'
p379
sg41
S'33'
p380
sg43
S'21'
p381
ssg96
(dp382
g5
S'--'
p383
sg7
S'--'
p384
sg9
g10
sg11
S'--'
p385
sg13
g14
sg15
S'--'
p386
sg17
S'2014'
p387
sg19
S'15'
p388
sg21
S'3.5'
p389
sg23
S'12/14'
p390
sg25
g10
sg27
S'Juwan Thompson'
p391
sg29
g129
sg31
S'W22-10'
p392
sg33
S'--'
p393
sg35
S'--'
p394
sg37
S'@SD'
p395
sg39
S'--'
p396
sg41
S'14'
p397
sg43
g72
ssg116
(dp398
g5
S'14.0'
p399
sg7
S'--'
p400
sg9
g10
sg11
S'--'
p401
sg13
g14
sg15
g10
sg17
S'2014'
p402
sg19
S'14'
p403
sg21
S'15.8'
p404
sg23
S'12/07'
p405
sg25
g10
sg27
S'Juwan Thompson'
p406
sg29
g129
sg31
S'W24-17'
p407
sg33
S'14'
p408
sg35
g14
sg37
S'BUF'
p409
sg39
S'14'
p410
sg41
S'63'
p411
sg43
S'47'
p412
ssg131
(dp413
g5
S'--'
p414
sg7
S'--'
p415
sg9
g10
sg11
S'--'
p416
sg13
g10
sg15
S'--'
p417
sg17
S'2014'
p418
sg19
S'17'
p419
sg21
S'--'
p420
sg23
S'12/28'
p421
sg25
S'--'
p422
sg27
S'Juwan Thompson'
p423
sg29
S'--'
p424
sg31
S'W47-14'
p425
sg33
S'--'
p426
sg35
S'--'
p427
sg37
S'OAK'
p428
sg39
S'--'
p429
sg41
S'--'
p430
sg43
S'--'
p431
ssg151
(dp432
g5
S'--'
p433
sg7
S'--'
p434
sg9
g10
sg11
S'--'
p435
sg13
g14
sg15
g10
sg17
S'2014'
p436
sg19
S'16'
p437
sg21
S'2.0'
p438
sg23
S'12/22'
p439
sg25
g10
sg27
S'Juwan Thompson'
p440
sg29
g14
sg31
S'L28-37'
p441
sg33
g10
sg35
g10
sg37
S'@CIN'
p442
sg39
S'--'
p443
sg41
g205
sg43
g205
ssg14
(dp444
g5
S'--'
p445
sg7
S'--'
p446
sg9
g10
sg11
S'--'
p447
sg13
g14
sg15
S'--'
p448
sg17
S'2014'
p449
sg19
g14
sg21
S'--'
p450
sg23
S'09/07'
p451
sg25
S'--'
p452
sg27
S'Juwan Thompson'
p453
sg29
S'--'
p454
sg31
S'W31-24'
p455
sg33
S'--'
p456
sg35
S'--'
p457
sg37
S'IND'
p458
sg39
S'--'
p459
sg41
S'--'
p460
sg43
S'--'
p461
ssg95
(dp462
g5
S'--'
p463
sg7
S'--'
p464
sg9
g10
sg11
S'--'
p465
sg13
g14
sg15
S'--'
p466
sg17
S'2014'
p467
sg19
g95
sg21
S'--'
p468
sg23
S'09/21'
p469
sg25
S'--'
p470
sg27
S'Juwan Thompson'
p471
sg29
S'--'
p472
sg31
S'L20-26'
p473
sg33
S'--'
p474
sg35
S'--'
p475
sg37
S'@SEA'
p476
sg39
S'--'
p477
sg41
S'--'
p478
sg43
S'--'
p479
ssg205
(dp480
g5
S'--'
p481
sg7
S'--'
p482
sg9
g10
sg11
S'--'
p483
sg13
g14
sg15
S'--'
p484
sg17
S'2014'
p485
sg19
g205
sg21
S'--'
p486
sg23
S'09/14'
p487
sg25
S'--'
p488
sg27
S'Juwan Thompson'
p489
sg29
S'--'
p490
sg31
S'W24-17'
p491
sg33
S'--'
p492
sg35
S'--'
p493
sg37
S'KC'
p494
sg39
S'--'
p495
sg41
S'--'
p496
sg43
S'--'
p497
ssg126
(dp498
g5
S'--'
p499
sg7
S'--'
p500
sg9
g10
sg11
S'--'
p501
sg13
g14
sg15
S'--'
p502
sg17
S'2014'
p503
sg19
g126
sg21
S'5.0'
p504
sg23
S'10/05'
p505
sg25
g14
sg27
S'Juwan Thompson'
p506
sg29
g95
sg31
S'W41-20'
p507
sg33
S'--'
p508
sg35
S'--'
p509
sg37
S'ARI'
p510
sg39
S'--'
p511
sg41
S'15'
p512
sg43
S'8T'
p513
ssg129
(dp514
g5
g260
sg7
g260
sg9
g260
sg11
g260
sg13
g260
sg15
g260
sg17
S'2014'
p515
sg19
g129
sg21
g260
sg23
S'Bye'
p516
sg25
g260
sg27
S'Juwan Thompson'
p517
sg29
g260
sg31
g260
sg33
g260
sg35
g260
sg37
g260
sg39
g260
sg41
g260
sg43
g260
ssg258
(dp518
g5
S'--'
p519
sg7
S'--'
p520
sg9
g10
sg11
S'--'
p521
sg13
g14
sg15
S'--'
p522
sg17
S'2014'
p523
sg19
g258
sg21
S'5.0'
p524
sg23
S'10/19'
p525
sg25
g10
sg27
S'Juwan Thompson'
p526
sg29
g204
sg31
S'W42-17'
p527
sg33
S'--'
p528
sg35
S'--'
p529
sg37
S'SF'
p530
sg39
S'--'
p531
sg41
S'30'
p532
sg43
g282
ssg204
(dp533
g5
S'0.0'
p534
sg7
S'--'
p535
sg9
g10
sg11
S'--'
p536
sg13
g14
sg15
g10
sg17
S'2014'
p537
sg19
g204
sg21
S'4.8'
p538
sg23
S'10/12'
p539
sg25
g10
sg27
S'Juwan Thompson'
p540
sg29
g72
sg31
S'W31-17'
p541
sg33
g10
sg35
g14
sg37
S'@NYJ'
p542
sg39
g10
sg41
S'38'
p543
sg43
S'16'
p544
ssg282
(dp545
g5
S'6.0'
p546
sg7
S'--'
p547
sg9
g10
sg11
S'--'
p548
sg13
g14
sg15
g10
sg17
S'2014'
p549
sg19
g282
sg21
S'3.0'
p550
sg23
S'11/02'
p551
sg25
g10
sg27
S'Juwan Thompson'
p552
sg29
g205
sg31
S'L21-43'
p553
sg33
g204
sg35
g14
sg37
S'@NE'
p554
sg39
g204
sg41
g204
sg43
g204
ssg72
(dp555
g5
S'--'
p556
sg7
S'--'
p557
sg9
g10
sg11
S'--'
p558
sg13
g14
sg15
g10
sg17
S'2014'
p559
sg19
g72
sg21
S'3.4'
p560
sg23
S'10/23'
p561
sg25
g205
sg27
S'Juwan Thompson'
p562
sg29
g258
sg31
S'W35-21'
p563
sg33
g10
sg35
g10
sg37
S'SD'
p564
sg39
S'--'
p565
sg41
S'24'
p566
sg43
g126
sss.