(dp0
S'2015'
p1
(dp2
S'11'
p3
(dp4
S'RecAvg'
p5
S'--'
p6
sS'FUM'
p7
S'--'
p8
sS'GS'
p9
S'0'
p10
sS'Lost'
p11
S'--'
p12
sS'G'
p13
S'1'
p14
sS'RecTD'
p15
S'--'
p16
sS'Year'
p17
S'2015'
p18
sS'WK'
p19
S'11'
p20
sS'RushAvg'
p21
S'3.6'
p22
sS'Game Date'
p23
S'11/22'
p24
sS'RushTD'
p25
g10
sS'Player'
p26
S"Ka'Deem Carey"
p27
sS'RushAtt'
p28
S'9'
p29
sS'Result'
p30
S'L15-17'
p31
sS'RecYds'
p32
S'--'
p33
sS'Rec'
p34
S'--'
p35
sS'Opp'
p36
S'DEN'
p37
sS'RecLng'
p38
S'--'
p39
sS'RushYds'
p40
S'32'
p41
sS'RushLng'
p42
g29
ssS'10'
p43
(dp44
g5
S'--'
p45
sg7
g14
sg9
g10
sg11
g14
sg13
g14
sg15
S'--'
p46
sg17
S'2015'
p47
sg19
S'10'
p48
sg21
S'4.0'
p49
sg23
S'11/15'
p50
sg25
g10
sg26
S"Ka'Deem Carey"
p51
sg28
S'14'
p52
sg30
S'W37-13'
p53
sg32
S'--'
p54
sg34
S'--'
p55
sg36
S'@STL'
p56
sg38
S'--'
p57
sg40
S'56'
p58
sg42
g29
ssS'13'
p59
(dp60
g5
S'--'
p61
sg7
S'--'
p62
sg9
g10
sg11
S'--'
p63
sg13
g14
sg15
S'--'
p64
sg17
S'2015'
p65
sg19
S'13'
p66
sg21
S'3.4'
p67
sg23
S'12/06'
p68
sg25
g14
sg26
S"Ka'Deem Carey"
p69
sg28
S'5'
p70
sg30
S'L20-26'
p71
sg32
S'--'
p72
sg34
S'--'
p73
sg36
S'SF'
p74
sg38
S'--'
p75
sg40
S'17'
p76
sg42
S'11'
p77
ssS'12'
p78
(dp79
g5
S'--'
p80
sg7
S'--'
p81
sg9
g10
sg11
S'--'
p82
sg13
g10
sg15
S'--'
p83
sg17
S'2015'
p84
sg19
S'12'
p85
sg21
S'--'
p86
sg23
S'11/26'
p87
sg25
S'--'
p88
sg26
S"Ka'Deem Carey"
p89
sg28
S'--'
p90
sg30
S'W17-13'
p91
sg32
S'--'
p92
sg34
S'--'
p93
sg36
S'@GB'
p94
sg38
S'--'
p95
sg40
S'--'
p96
sg42
S'--'
p97
ssS'15'
p98
(dp99
g5
S'9.0'
p100
sg7
S'--'
p101
sg9
g10
sg11
S'--'
p102
sg13
g14
sg15
g10
sg17
S'2015'
p103
sg19
S'15'
p104
sg21
S'--'
p105
sg23
S'12/20'
p106
sg25
S'--'
p107
sg26
S"Ka'Deem Carey"
p108
sg28
S'--'
p109
sg30
S'L17-38'
p110
sg32
S'18'
p111
sg34
S'2'
p112
sg36
S'@MIN'
p113
sg38
S'11'
p114
sg40
S'--'
p115
sg42
S'--'
p116
ssS'14'
p117
(dp118
g5
S'--'
p119
sg7
S'--'
p120
sg9
g10
sg11
S'--'
p121
sg13
g14
sg15
S'--'
p122
sg17
S'2015'
p123
sg19
S'14'
p124
sg21
S'--'
p125
sg23
S'12/13'
p126
sg25
S'--'
p127
sg26
S"Ka'Deem Carey"
p128
sg28
S'--'
p129
sg30
S'L21-24'
p130
sg32
S'--'
p131
sg34
S'--'
p132
sg36
S'WAS'
p133
sg38
S'--'
p134
sg40
S'--'
p135
sg42
S'--'
p136
ssS'17'
p137
(dp138
g5
S'--'
p139
sg7
S'--'
p140
sg9
g10
sg11
S'--'
p141
sg13
g14
sg15
S'--'
p142
sg17
S'2015'
p143
sg19
S'17'
p144
sg21
S'10.0'
p145
sg23
S'01/03'
p146
sg25
g10
sg26
S"Ka'Deem Carey"
p147
sg28
g14
sg30
S'L20-24'
p148
sg32
S'--'
p149
sg34
S'--'
p150
sg36
S'DET'
p151
sg38
S'--'
p152
sg40
S'10'
p153
sg42
S'10'
p154
ssS'16'
p155
(dp156
g5
S'1.0'
p157
sg7
S'--'
p158
sg9
g10
sg11
S'--'
p159
sg13
g14
sg15
g14
sg17
S'2015'
p160
sg19
S'16'
p161
sg21
S'2.3'
p162
sg23
S'12/27'
p163
sg25
g14
sg26
S"Ka'Deem Carey"
p164
sg28
S'7'
p165
sg30
S'W26-21'
p166
sg32
g14
sg34
g14
sg36
S'@TB'
p167
sg38
S'1T'
p168
sg40
S'16'
p169
sg42
S'6'
p170
ssg14
(dp171
g5
S'--'
p172
sg7
S'--'
p173
sg9
g10
sg11
S'--'
p174
sg13
g10
sg15
S'--'
p175
sg17
S'2015'
p176
sg19
g14
sg21
S'--'
p177
sg23
S'09/13'
p178
sg25
S'--'
p179
sg26
S"Ka'Deem Carey"
p180
sg28
S'--'
p181
sg30
S'L23-31'
p182
sg32
S'--'
p183
sg34
S'--'
p184
sg36
S'GB'
p185
sg38
S'--'
p186
sg40
S'--'
p187
sg42
S'--'
p188
ssS'3'
p189
(dp190
g5
S'--'
p191
sg7
S'--'
p192
sg9
g10
sg11
S'--'
p193
sg13
g14
sg15
S'--'
p194
sg17
S'2015'
p195
sg19
g189
sg21
S'--'
p196
sg23
S'09/27'
p197
sg25
S'--'
p198
sg26
S"Ka'Deem Carey"
p199
sg28
S'--'
p200
sg30
S'L0-26'
p201
sg32
S'--'
p202
sg34
S'--'
p203
sg36
S'@SEA'
p204
sg38
S'--'
p205
sg40
S'--'
p206
sg42
S'--'
p207
ssg112
(dp208
g5
S'--'
p209
sg7
S'--'
p210
sg9
g10
sg11
S'--'
p211
sg13
g10
sg15
S'--'
p212
sg17
S'2015'
p213
sg19
g112
sg21
S'--'
p214
sg23
S'09/20'
p215
sg25
S'--'
p216
sg26
S"Ka'Deem Carey"
p217
sg28
S'--'
p218
sg30
S'L23-48'
p219
sg32
S'--'
p220
sg34
S'--'
p221
sg36
S'ARI'
p222
sg38
S'--'
p223
sg40
S'--'
p224
sg42
S'--'
p225
ssg70
(dp226
g5
S'--'
p227
sg7
S'--'
p228
sg9
g10
sg11
S'--'
p229
sg13
g14
sg15
S'--'
p230
sg17
S'2015'
p231
sg19
g70
sg21
S'--'
p232
sg23
S'10/11'
p233
sg25
S'--'
p234
sg26
S"Ka'Deem Carey"
p235
sg28
S'--'
p236
sg30
S'W18-17'
p237
sg32
S'--'
p238
sg34
S'--'
p239
sg36
S'@KC'
p240
sg38
S'--'
p241
sg40
S'--'
p242
sg42
S'--'
p243
ssS'4'
p244
(dp245
g5
S'--'
p246
sg7
S'--'
p247
sg9
g10
sg11
S'--'
p248
sg13
g10
sg15
S'--'
p249
sg17
S'2015'
p250
sg19
g244
sg21
S'--'
p251
sg23
S'10/04'
p252
sg25
S'--'
p253
sg26
S"Ka'Deem Carey"
p254
sg28
S'--'
p255
sg30
S'W22-20'
p256
sg32
S'--'
p257
sg34
S'--'
p258
sg36
S'OAK'
p259
sg38
S'--'
p260
sg40
S'--'
p261
sg42
S'--'
p262
ssg165
(dp263
g5
S''
p264
sg7
g264
sg9
g264
sg11
g264
sg13
g264
sg15
g264
sg17
S'2015'
p265
sg19
g165
sg21
g264
sg23
S'Bye'
p266
sg25
g264
sg26
S"Ka'Deem Carey"
p267
sg28
g264
sg30
g264
sg32
g264
sg34
g264
sg36
g264
sg38
g264
sg40
g264
sg42
g264
ssg170
(dp268
g5
S'--'
p269
sg7
S'--'
p270
sg9
g10
sg11
S'--'
p271
sg13
g14
sg15
S'--'
p272
sg17
S'2015'
p273
sg19
g170
sg21
S'--'
p274
sg23
S'10/18'
p275
sg25
S'--'
p276
sg26
S"Ka'Deem Carey"
p277
sg28
S'--'
p278
sg30
S'L34-37'
p279
sg32
S'--'
p280
sg34
S'--'
p281
sg36
S'@DET'
p282
sg38
S'--'
p283
sg40
S'--'
p284
sg42
S'--'
p285
ssg29
(dp286
g5
S'--'
p287
sg7
S'--'
p288
sg9
g14
sg11
S'--'
p289
sg13
g14
sg15
S'--'
p290
sg17
S'2015'
p291
sg19
g29
sg21
S'4.0'
p292
sg23
S'11/09'
p293
sg25
g10
sg26
S"Ka'Deem Carey"
p294
sg28
g165
sg30
S'W22-19'
p295
sg32
S'--'
p296
sg34
S'--'
p297
sg36
S'@SD'
p298
sg38
S'--'
p299
sg40
S'28'
p300
sg42
S'8'
p301
ssg301
(dp302
g5
S'--'
p303
sg7
S'--'
p304
sg9
g10
sg11
S'--'
p305
sg13
g10
sg15
S'--'
p306
sg17
S'2015'
p307
sg19
g301
sg21
S'--'
p308
sg23
S'11/01'
p309
sg25
S'--'
p310
sg26
S"Ka'Deem Carey"
p311
sg28
S'--'
p312
sg30
S'L20-23'
p313
sg32
S'--'
p314
sg34
S'--'
p315
sg36
S'MIN'
p316
sg38
S'--'
p317
sg40
S'--'
p318
sg42
S'--'
p319
sssS'2014'
p320
(dp321
g3
(dp322
g5
S'--'
p323
sg7
S'--'
p324
sg9
g10
sg11
S'--'
p325
sg13
g14
sg15
S'--'
p326
sg17
S'2014'
p327
sg19
S'11'
p328
sg21
S'--'
p329
sg23
S'11/16'
p330
sg25
S'--'
p331
sg26
S"Ka'Deem Carey"
p332
sg28
S'--'
p333
sg30
S'W21-13'
p334
sg32
S'--'
p335
sg34
S'--'
p336
sg36
S'MIN'
p337
sg38
S'--'
p338
sg40
S'--'
p339
sg42
S'--'
p340
ssg43
(dp341
g5
S'11.0'
p342
sg7
S'--'
p343
sg9
g10
sg11
S'--'
p344
sg13
g14
sg15
g10
sg17
S'2014'
p345
sg19
S'10'
p346
sg21
S'6.5'
p347
sg23
S'11/09'
p348
sg25
g10
sg26
S"Ka'Deem Carey"
p349
sg28
g112
sg30
S'L14-55'
p350
sg32
S'11'
p351
sg34
g14
sg36
S'@GB'
p352
sg38
S'11'
p353
sg40
S'13'
p354
sg42
g301
ssg59
(dp355
g5
S'7.0'
p356
sg7
S'--'
p357
sg9
g10
sg11
S'--'
p358
sg13
g14
sg15
g10
sg17
S'2014'
p359
sg19
S'13'
p360
sg21
S'4.0'
p361
sg23
S'11/27'
p362
sg25
g10
sg26
S"Ka'Deem Carey"
p363
sg28
g112
sg30
S'L17-34'
p364
sg32
g165
sg34
g14
sg36
S'@DET'
p365
sg38
g165
sg40
g301
sg42
g70
ssg78
(dp366
g5
S'--'
p367
sg7
S'--'
p368
sg9
g10
sg11
S'--'
p369
sg13
g14
sg15
g10
sg17
S'2014'
p370
sg19
S'12'
p371
sg21
S'1.0'
p372
sg23
S'11/23'
p373
sg25
g10
sg26
S"Ka'Deem Carey"
p374
sg28
g189
sg30
S'W21-13'
p375
sg32
g10
sg34
g10
sg36
S'TB'
p376
sg38
S'--'
p377
sg40
g189
sg42
g189
ssg98
(dp378
g5
S'13.0'
p379
sg7
S'--'
p380
sg9
g10
sg11
S'--'
p381
sg13
g14
sg15
g10
sg17
S'2014'
p382
sg19
S'15'
p383
sg21
S'4.0'
p384
sg23
S'12/15'
p385
sg25
g10
sg26
S"Ka'Deem Carey"
p386
sg28
g14
sg30
S'L15-31'
p387
sg32
S'39'
p388
sg34
g189
sg36
S'NO'
p389
sg38
S'18'
p390
sg40
g244
sg42
g244
ssg117
(dp391
g5
S'--'
p392
sg7
S'--'
p393
sg9
g10
sg11
S'--'
p394
sg13
g14
sg15
S'--'
p395
sg17
S'2014'
p396
sg19
S'14'
p397
sg21
S'--'
p398
sg23
S'12/04'
p399
sg25
S'--'
p400
sg26
S"Ka'Deem Carey"
p401
sg28
S'--'
p402
sg30
S'L28-41'
p403
sg32
S'--'
p404
sg34
S'--'
p405
sg36
S'DAL'
p406
sg38
S'--'
p407
sg40
S'--'
p408
sg42
S'--'
p409
ssg137
(dp410
g5
S'--'
p411
sg7
S'--'
p412
sg9
g10
sg11
S'--'
p413
sg13
g10
sg15
S'--'
p414
sg17
S'2014'
p415
sg19
S'17'
p416
sg21
S'--'
p417
sg23
S'12/28'
p418
sg25
S'--'
p419
sg26
S"Ka'Deem Carey"
p420
sg28
S'--'
p421
sg30
S'L9-13'
p422
sg32
S'--'
p423
sg34
S'--'
p424
sg36
S'@MIN'
p425
sg38
S'--'
p426
sg40
S'--'
p427
sg42
S'--'
p428
ssg155
(dp429
g5
S'--'
p430
sg7
S'--'
p431
sg9
g10
sg11
S'--'
p432
sg13
g10
sg15
S'--'
p433
sg17
S'2014'
p434
sg19
S'16'
p435
sg21
S'--'
p436
sg23
S'12/21'
p437
sg25
S'--'
p438
sg26
S"Ka'Deem Carey"
p439
sg28
S'--'
p440
sg30
S'L14-20'
p441
sg32
S'--'
p442
sg34
S'--'
p443
sg36
S'DET'
p444
sg38
S'--'
p445
sg40
S'--'
p446
sg42
S'--'
p447
ssg14
(dp448
g5
S'--'
p449
sg7
S'--'
p450
sg9
g10
sg11
S'--'
p451
sg13
g14
sg15
S'--'
p452
sg17
S'2014'
p453
sg19
g14
sg21
S'4.0'
p454
sg23
S'09/07'
p455
sg25
g10
sg26
S"Ka'Deem Carey"
p456
sg28
g14
sg30
S'L20-23'
p457
sg32
S'--'
p458
sg34
S'--'
p459
sg36
S'BUF'
p460
sg38
S'--'
p461
sg40
g244
sg42
g244
ssg189
(dp462
g5
S'--'
p463
sg7
S'--'
p464
sg9
g10
sg11
S'--'
p465
sg13
g14
sg15
S'--'
p466
sg17
S'2014'
p467
sg19
g189
sg21
S'0.0'
p468
sg23
S'09/22'
p469
sg25
g10
sg26
S"Ka'Deem Carey"
p470
sg28
g14
sg30
S'W27-19'
p471
sg32
S'--'
p472
sg34
S'--'
p473
sg36
S'@NYJ'
p474
sg38
S'--'
p475
sg40
g10
sg42
g10
ssg112
(dp476
g5
S'--'
p477
sg7
S'--'
p478
sg9
g10
sg11
S'--'
p479
sg13
g14
sg15
S'--'
p480
sg17
S'2014'
p481
sg19
g112
sg21
S'--'
p482
sg23
S'09/14'
p483
sg25
S'--'
p484
sg26
S"Ka'Deem Carey"
p485
sg28
S'--'
p486
sg30
S'W28-20'
p487
sg32
S'--'
p488
sg34
S'--'
p489
sg36
S'@SF'
p490
sg38
S'--'
p491
sg40
S'--'
p492
sg42
S'--'
p493
ssg70
(dp494
g5
S'--'
p495
sg7
S'--'
p496
sg9
g10
sg11
S'--'
p497
sg13
g14
sg15
S'--'
p498
sg17
S'2014'
p499
sg19
g70
sg21
S'1.0'
p500
sg23
S'10/05'
p501
sg25
g10
sg26
S"Ka'Deem Carey"
p502
sg28
g112
sg30
S'L24-31'
p503
sg32
S'--'
p504
sg34
S'--'
p505
sg36
S'@CAR'
p506
sg38
S'--'
p507
sg40
g112
sg42
g112
ssg244
(dp508
g5
S'--'
p509
sg7
S'--'
p510
sg9
g10
sg11
S'--'
p511
sg13
g14
sg15
S'--'
p512
sg17
S'2014'
p513
sg19
g244
sg21
S'5.1'
p514
sg23
S'09/28'
p515
sg25
g10
sg26
S"Ka'Deem Carey"
p516
sg28
S'14'
p517
sg30
S'L17-38'
p518
sg32
S'--'
p519
sg34
S'--'
p520
sg36
S'GB'
p521
sg38
S'--'
p522
sg40
S'72'
p523
sg42
S'13'
p524
ssg165
(dp525
g5
S'--'
p526
sg7
S'--'
p527
sg9
g10
sg11
S'--'
p528
sg13
g14
sg15
S'--'
p529
sg17
S'2014'
p530
sg19
g165
sg21
S'--'
p531
sg23
S'10/19'
p532
sg25
S'--'
p533
sg26
S"Ka'Deem Carey"
p534
sg28
S'--'
p535
sg30
S'L14-27'
p536
sg32
S'--'
p537
sg34
S'--'
p538
sg36
S'MIA'
p539
sg38
S'--'
p540
sg40
S'--'
p541
sg42
S'--'
p542
ssg170
(dp543
g5
S'--'
p544
sg7
S'--'
p545
sg9
g10
sg11
S'--'
p546
sg13
g14
sg15
S'--'
p547
sg17
S'2014'
p548
sg19
g170
sg21
S'4.8'
p549
sg23
S'10/12'
p550
sg25
g10
sg26
S"Ka'Deem Carey"
p551
sg28
g244
sg30
S'W27-13'
p552
sg32
S'--'
p553
sg34
S'--'
p554
sg36
S'@ATL'
p555
sg38
S'--'
p556
sg40
S'19'
p557
sg42
S'15'
p558
ssg29
(dp559
g5
g264
sg7
g264
sg9
g264
sg11
g264
sg13
g264
sg15
g264
sg17
S'2014'
p560
sg19
g29
sg21
g264
sg23
S'Bye'
p561
sg25
g264
sg26
S"Ka'Deem Carey"
p562
sg28
g264
sg30
g264
sg32
g264
sg34
g264
sg36
g264
sg38
g264
sg40
g264
sg42
g264
ssg301
(dp563
g5
S'--'
p564
sg7
S'--'
p565
sg9
g10
sg11
S'--'
p566
sg13
g14
sg15
S'--'
p567
sg17
S'2014'
p568
sg19
g301
sg21
S'5.5'
p569
sg23
S'10/26'
p570
sg25
g10
sg26
S"Ka'Deem Carey"
p571
sg28
g170
sg30
S'L23-51'
p572
sg32
S'--'
p573
sg34
S'--'
p574
sg36
S'@NE'
p575
sg38
S'--'
p576
sg40
S'33'
p577
sg42
S'13'
p578
sss.