(dp0
S'2015'
p1
(dp2
S'6'
p3
(dp4
S'RecAvg'
p5
S'--'
p6
sS'FUM'
p7
S'--'
p8
sS'GS'
p9
S'0'
p10
sS'Lost'
p11
S'--'
p12
sS'G'
p13
S'1'
p14
sS'RecTD'
p15
S'--'
p16
sS'Year'
p17
S'2015'
p18
sS'WK'
p19
g3
sS'RushAvg'
p20
S'--'
p21
sS'Game Date'
p22
S'10/18'
p23
sS'RushTD'
p24
S'--'
p25
sS'Player'
p26
S'Kapri Bibbs'
p27
sS'RushAtt'
p28
S'--'
p29
sS'Result'
p30
S'W26-23'
p31
sS'RecYds'
p32
S'--'
p33
sS'Rec'
p34
S'--'
p35
sS'Opp'
p36
S'@CLE'
p37
sS'RecLng'
p38
S'--'
p39
sS'RushYds'
p40
S'--'
p41
sS'RushLng'
p42
S'--'
p43
sssS'2014'
p44
(dp45
S'11'
p46
(dp47
g5
S'--'
p48
sg7
S'--'
p49
sg9
g10
sg11
S'--'
p50
sg13
g10
sg15
S'--'
p51
sg17
S'2014'
p52
sg19
S'11'
p53
sg20
S'--'
p54
sg22
S'11/16'
p55
sg24
S'--'
p56
sg26
S'Kapri Bibbs'
p57
sg28
S'--'
p58
sg30
S'L7-22'
p59
sg32
S'--'
p60
sg34
S'--'
p61
sg36
S'@STL'
p62
sg38
S'--'
p63
sg40
S'--'
p64
sg42
S'--'
p65
ssS'10'
p66
(dp67
g5
S'--'
p68
sg7
S'--'
p69
sg9
g10
sg11
S'--'
p70
sg13
g10
sg15
S'--'
p71
sg17
S'2014'
p72
sg19
S'10'
p73
sg20
S'--'
p74
sg22
S'11/09'
p75
sg24
S'--'
p76
sg26
S'Kapri Bibbs'
p77
sg28
S'--'
p78
sg30
S'W41-17'
p79
sg32
S'--'
p80
sg34
S'--'
p81
sg36
S'@OAK'
p82
sg38
S'--'
p83
sg40
S'--'
p84
sg42
S'--'
p85
ssS'9'
p86
(dp87
g5
S'--'
p88
sg7
S'--'
p89
sg9
g10
sg11
S'--'
p90
sg13
g10
sg15
S'--'
p91
sg17
S'2014'
p92
sg19
g86
sg20
S'--'
p93
sg22
S'11/02'
p94
sg24
S'--'
p95
sg26
S'Kapri Bibbs'
p96
sg28
S'--'
p97
sg30
S'L21-43'
p98
sg32
S'--'
p99
sg34
S'--'
p100
sg36
S'@NE'
p101
sg38
S'--'
p102
sg40
S'--'
p103
sg42
S'--'
p104
ssS'8'
p105
(dp106
g5
S'--'
p107
sg7
S'--'
p108
sg9
g10
sg11
S'--'
p109
sg13
g10
sg15
S'--'
p110
sg17
S'2014'
p111
sg19
g105
sg20
S'--'
p112
sg22
S'10/23'
p113
sg24
S'--'
p114
sg26
S'Kapri Bibbs'
p115
sg28
S'--'
p116
sg30
S'W35-21'
p117
sg32
S'--'
p118
sg34
S'--'
p119
sg36
S'SD'
p120
sg38
S'--'
p121
sg40
S'--'
p122
sg42
S'--'
p123
sss.