(dp0
S'2015'
p1
(dp2
S'11'
p3
(dp4
S'RecAvg'
p5
S'--'
p6
sS'FUM'
p7
S'1'
p8
sS'GS'
p9
g8
sS'Lost'
p10
S'0'
p11
sS'G'
p12
g8
sS'RecTD'
p13
S'--'
p14
sS'Year'
p15
S'2015'
p16
sS'WK'
p17
S'11'
p18
sS'RushAvg'
p19
S'1.8'
p20
sS'Game Date'
p21
S'11/23'
p22
sS'RushTD'
p23
g11
sS'Player'
p24
S'Karlos Williams'
p25
sS'RushAtt'
p26
S'6'
p27
sS'Result'
p28
S'L13-20'
p29
sS'RecYds'
p30
S'--'
p31
sS'Rec'
p32
S'--'
p33
sS'Opp'
p34
S'@NE'
p35
sS'RecLng'
p36
S'--'
p37
sS'RushYds'
p38
S'11'
p39
sS'RushLng'
p40
S'5'
p41
ssS'10'
p42
(dp43
g5
S'26.0'
p44
sg7
S'--'
p45
sg9
g11
sg10
S'--'
p46
sg12
g8
sg13
g8
sg15
S'2015'
p47
sg17
S'10'
p48
sg19
S'3.4'
p49
sg21
S'11/12'
p50
sg23
g11
sg24
S'Karlos Williams'
p51
sg26
S'7'
p52
sg28
S'W22-17'
p53
sg30
S'26'
p54
sg32
g8
sg34
S'@NYJ'
p55
sg36
S'26T'
p56
sg38
S'24'
p57
sg40
S'13'
p58
ssS'13'
p59
(dp60
g5
S'--'
p61
sg7
S'--'
p62
sg9
g11
sg10
S'--'
p63
sg12
g11
sg13
S'--'
p64
sg15
S'2015'
p65
sg17
S'13'
p66
sg19
S'--'
p67
sg21
S'12/06'
p68
sg23
S'--'
p69
sg24
S'Karlos Williams'
p70
sg26
S'--'
p71
sg28
S'W30-21'
p72
sg30
S'--'
p73
sg32
S'--'
p74
sg34
S'HOU'
p75
sg36
S'--'
p76
sg38
S'--'
p77
sg40
S'--'
p78
ssS'12'
p79
(dp80
g5
S'--'
p81
sg7
S'--'
p82
sg9
g11
sg10
S'--'
p83
sg12
g8
sg13
S'--'
p84
sg15
S'2015'
p85
sg17
S'12'
p86
sg19
S'2.5'
p87
sg21
S'11/29'
p88
sg23
g11
sg24
S'Karlos Williams'
p89
sg26
S'2'
p90
sg28
S'L22-30'
p91
sg30
S'--'
p92
sg32
S'--'
p93
sg34
S'@KC'
p94
sg36
S'--'
p95
sg38
g41
sg40
S'3'
p96
ssS'15'
p97
(dp98
g5
S'--'
p99
sg7
S'--'
p100
sg9
g11
sg10
S'--'
p101
sg12
g8
sg13
g11
sg15
S'2015'
p102
sg17
S'15'
p103
sg19
S'10.3'
p104
sg21
S'12/20'
p105
sg23
g11
sg24
S'Karlos Williams'
p106
sg26
S'4'
p107
sg28
S'L25-35'
p108
sg30
g11
sg32
g11
sg34
S'@WAS'
p109
sg36
S'--'
p110
sg38
S'41'
p111
sg40
S'16'
p112
ssS'14'
p113
(dp114
g5
S'--'
p115
sg7
S'--'
p116
sg9
g11
sg10
S'--'
p117
sg12
g11
sg13
S'--'
p118
sg15
S'2015'
p119
sg17
S'14'
p120
sg19
S'--'
p121
sg21
S'12/13'
p122
sg23
S'--'
p123
sg24
S'Karlos Williams'
p124
sg26
S'--'
p125
sg28
S'L20-23'
p126
sg30
S'--'
p127
sg32
S'--'
p128
sg34
S'@PHI'
p129
sg36
S'--'
p130
sg38
S'--'
p131
sg40
S'--'
p132
ssS'17'
p133
(dp134
g5
S'1.0'
p135
sg7
S'--'
p136
sg9
g8
sg10
S'--'
p137
sg12
g8
sg13
g11
sg15
S'2015'
p138
sg17
S'17'
p139
sg19
S'4.0'
p140
sg21
S'01/03'
p141
sg23
g8
sg24
S'Karlos Williams'
p142
sg26
g27
sg28
S'W22-17'
p143
sg30
g96
sg32
g96
sg34
S'NYJ'
p144
sg36
g96
sg38
S'24'
p145
sg40
g27
ssS'16'
p146
(dp147
g5
S'10.5'
p148
sg7
g8
sg9
g11
sg10
g8
sg12
g8
sg13
g11
sg15
S'2015'
p149
sg17
S'16'
p150
sg19
S'4.5'
p151
sg21
S'12/27'
p152
sg23
g8
sg24
S'Karlos Williams'
p153
sg26
S'17'
p154
sg28
S'W16-6'
p155
sg30
S'21'
p156
sg32
g90
sg34
S'DAL'
p157
sg36
S'20'
p158
sg38
S'76'
p159
sg40
S'26'
p160
ssg8
(dp161
g5
S'--'
p162
sg7
S'--'
p163
sg9
g11
sg10
S'--'
p164
sg12
g8
sg13
S'--'
p165
sg15
S'2015'
p166
sg17
g8
sg19
S'9.2'
p167
sg21
S'09/13'
p168
sg23
g8
sg24
S'Karlos Williams'
p169
sg26
g27
sg28
S'W27-14'
p170
sg30
S'--'
p171
sg32
S'--'
p172
sg34
S'IND'
p173
sg36
S'--'
p174
sg38
S'55'
p175
sg40
S'26T'
p176
ssg96
(dp177
g5
S'--'
p178
sg7
S'--'
p179
sg9
g11
sg10
S'--'
p180
sg12
g8
sg13
S'--'
p181
sg15
S'2015'
p182
sg17
g96
sg19
S'9.2'
p183
sg21
S'09/27'
p184
sg23
g8
sg24
S'Karlos Williams'
p185
sg26
S'12'
p186
sg28
S'W41-14'
p187
sg30
S'--'
p188
sg32
S'--'
p189
sg34
S'@MIA'
p190
sg36
S'--'
p191
sg38
S'110'
p192
sg40
S'41T'
p193
ssg90
(dp194
g5
S'8.0'
p195
sg7
S'--'
p196
sg9
g11
sg10
S'--'
p197
sg12
g8
sg13
g11
sg15
S'2015'
p198
sg17
g90
sg19
S'3.5'
p199
sg21
S'09/20'
p200
sg23
g8
sg24
S'Karlos Williams'
p201
sg26
g27
sg28
S'L32-40'
p202
sg30
S'16'
p203
sg32
g90
sg34
S'NE'
p204
sg36
S'11'
p205
sg38
S'21'
p206
sg40
g52
ssg41
(dp207
g5
S'--'
p208
sg7
S'--'
p209
sg9
g11
sg10
S'--'
p210
sg12
g11
sg13
S'--'
p211
sg15
S'2015'
p212
sg17
g41
sg19
S'--'
p213
sg21
S'10/11'
p214
sg23
S'--'
p215
sg24
S'Karlos Williams'
p216
sg26
S'--'
p217
sg28
S'W14-13'
p218
sg30
S'--'
p219
sg32
S'--'
p220
sg34
S'@TEN'
p221
sg36
S'--'
p222
sg38
S'--'
p223
sg40
S'--'
p224
ssg107
(dp225
g5
S'10.0'
p226
sg7
S'--'
p227
sg9
g8
sg10
S'--'
p228
sg12
g8
sg13
g8
sg15
S'2015'
p229
sg17
g107
sg19
S'2.2'
p230
sg21
S'10/04'
p231
sg23
g11
sg24
S'Karlos Williams'
p232
sg26
S'18'
p233
sg28
S'L10-24'
p234
sg30
S'30'
p235
sg32
g96
sg34
S'NYG'
p236
sg36
S'23T'
p237
sg38
S'40'
p238
sg40
S'11'
p239
ssg52
(dp240
g5
S'--'
p241
sg7
S'--'
p242
sg9
g11
sg10
S'--'
p243
sg12
g11
sg13
S'--'
p244
sg15
S'2015'
p245
sg17
g52
sg19
S'--'
p246
sg21
S'10/25'
p247
sg23
S'--'
p248
sg24
S'Karlos Williams'
p249
sg26
S'--'
p250
sg28
S'L31-34'
p251
sg30
S'--'
p252
sg32
S'--'
p253
sg34
S'@JAC'
p254
sg36
S'--'
p255
sg38
S'--'
p256
sg40
S'--'
p257
ssg27
(dp258
g5
S'--'
p259
sg7
S'--'
p260
sg9
g11
sg10
S'--'
p261
sg12
g11
sg13
S'--'
p262
sg15
S'2015'
p263
sg17
g27
sg19
S'--'
p264
sg21
S'10/18'
p265
sg23
S'--'
p266
sg24
S'Karlos Williams'
p267
sg26
S'--'
p268
sg28
S'L21-34'
p269
sg30
S'--'
p270
sg32
S'--'
p271
sg34
S'CIN'
p272
sg36
S'--'
p273
sg38
S'--'
p274
sg40
S'--'
p275
ssS'9'
p276
(dp277
g5
S'--'
p278
sg7
S'--'
p279
sg9
g11
sg10
S'--'
p280
sg12
g8
sg13
S'--'
p281
sg15
S'2015'
p282
sg17
g276
sg19
S'12.2'
p283
sg21
S'11/08'
p284
sg23
g90
sg24
S'Karlos Williams'
p285
sg26
g276
sg28
S'W33-17'
p286
sg30
S'--'
p287
sg32
S'--'
p288
sg34
S'MIA'
p289
sg36
S'--'
p290
sg38
S'110'
p291
sg40
S'38T'
p292
ssS'8'
p293
(dp294
g5
S''
p295
sg7
g295
sg9
g295
sg10
g295
sg12
g295
sg13
g295
sg15
S'2015'
p296
sg17
g293
sg19
g295
sg21
S'Bye'
p297
sg23
g295
sg24
S'Karlos Williams'
p298
sg26
g295
sg28
g295
sg30
g295
sg32
g295
sg34
g295
sg36
g295
sg38
g295
sg40
g295
sss.