(dp0
S'2015'
p1
(dp2
S'15'
p3
(dp4
S'RecAvg'
p5
S'--'
p6
sS'FUM'
p7
S'--'
p8
sS'GS'
p9
S'0'
p10
sS'Lost'
p11
S'--'
p12
sS'G'
p13
S'1'
p14
sS'RecTD'
p15
S'--'
p16
sS'Year'
p17
S'2015'
p18
sS'WK'
p19
S'15'
p20
sS'RushAvg'
p21
S'2.0'
p22
sS'Game Date'
p23
S'12/21'
p24
sS'RushTD'
p25
g10
sS'Player'
p26
S'Kendall Hunter'
p27
sS'RushAtt'
p28
g14
sS'Result'
p29
S'L27-35'
p30
sS'RecYds'
p31
S'--'
p32
sS'Rec'
p33
S'--'
p34
sS'Opp'
p35
S'DET'
p36
sS'RecLng'
p37
S'--'
p38
sS'RushYds'
p39
S'2'
p40
sS'RushLng'
p41
g40
ssS'16'
p42
(dp43
g5
S'--'
p44
sg7
S'--'
p45
sg9
g10
sg11
S'--'
p46
sg13
g14
sg15
S'--'
p47
sg17
S'2015'
p48
sg19
S'16'
p49
sg21
S'--'
p50
sg23
S'12/27'
p51
sg25
S'--'
p52
sg26
S'Kendall Hunter'
p53
sg28
S'--'
p54
sg29
S'W38-27'
p55
sg31
S'--'
p56
sg33
S'--'
p57
sg35
S'JAC'
p58
sg37
S'--'
p59
sg39
S'--'
p60
sg41
S'--'
p61
sssS'2011'
p62
(dp63
S'11'
p64
(dp65
g5
S'15.0'
p66
sg7
S'--'
p67
sg9
g10
sg11
S'--'
p68
sg13
g14
sg15
g10
sg17
S'2011'
p69
sg19
S'11'
p70
sg21
S'2.5'
p71
sg23
S'11/20'
p72
sg25
g10
sg26
S'Kendall Hunter'
p73
sg28
S'11'
p74
sg29
S'W23-7'
p75
sg31
S'15'
p76
sg33
g14
sg35
S'ARI'
p77
sg37
S'15'
p78
sg39
S'27'
p79
sg41
S'9'
p80
ssS'10'
p81
(dp82
g5
S'4.0'
p83
sg7
S'--'
p84
sg9
g10
sg11
S'--'
p85
sg13
g14
sg15
g10
sg17
S'2011'
p86
sg19
S'10'
p87
sg21
S'6.7'
p88
sg23
S'11/13'
p89
sg25
g14
sg26
S'Kendall Hunter'
p90
sg28
S'6'
p91
sg29
S'W27-20'
p92
sg31
S'4'
p93
sg33
g14
sg35
S'NYG'
p94
sg37
g93
sg39
S'40'
p95
sg41
S'17T'
p96
ssS'13'
p97
(dp98
g5
S'12.0'
p99
sg7
S'--'
p100
sg9
g10
sg11
S'--'
p101
sg13
g14
sg15
g10
sg17
S'2011'
p102
sg19
S'13'
p103
sg21
S'0.8'
p104
sg23
S'12/04'
p105
sg25
g10
sg26
S'Kendall Hunter'
p106
sg28
S'5'
p107
sg29
S'W26-0'
p108
sg31
S'24'
p109
sg33
g40
sg35
S'STL'
p110
sg37
S'14'
p111
sg39
g93
sg41
g93
ssS'12'
p112
(dp113
g5
S'13.0'
p114
sg7
S'--'
p115
sg9
g10
sg11
S'--'
p116
sg13
g14
sg15
g10
sg17
S'2011'
p117
sg19
S'12'
p118
sg21
S'3.5'
p119
sg23
S'11/24'
p120
sg25
g10
sg26
S'Kendall Hunter'
p121
sg28
g93
sg29
S'L6-16'
p122
sg31
S'13'
p123
sg33
g14
sg35
S'@BAL'
p124
sg37
S'13'
p125
sg39
S'14'
p126
sg41
g80
ssg3
(dp127
g5
S'12.0'
p128
sg7
S'--'
p129
sg9
g10
sg11
S'--'
p130
sg13
g14
sg15
g10
sg17
S'2011'
p131
sg19
S'15'
p132
sg21
S'1.0'
p133
sg23
S'12/19'
p134
sg25
g10
sg26
S'Kendall Hunter'
p135
sg28
g40
sg29
S'W20-3'
p136
sg31
S'24'
p137
sg33
g40
sg35
S'PIT'
p138
sg37
S'27'
p139
sg39
g40
sg41
g40
ssS'14'
p140
(dp141
g5
S'9.5'
p142
sg7
S'--'
p143
sg9
g10
sg11
S'--'
p144
sg13
g14
sg15
g10
sg17
S'2011'
p145
sg19
S'14'
p146
sg21
S'2.5'
p147
sg23
S'12/11'
p148
sg25
g10
sg26
S'Kendall Hunter'
p149
sg28
S'8'
p150
sg29
S'L19-21'
p151
sg31
S'19'
p152
sg33
g40
sg35
S'@ARI'
p153
sg37
S'10'
p154
sg39
S'20'
p155
sg41
g91
ssS'17'
p156
(dp157
g5
S'5.5'
p158
sg7
S'--'
p159
sg9
g10
sg11
S'--'
p160
sg13
g14
sg15
g10
sg17
S'2011'
p161
sg19
S'17'
p162
sg21
S'4.8'
p163
sg23
S'01/01'
p164
sg25
g10
sg26
S'Kendall Hunter'
p165
sg28
S'16'
p166
sg29
S'W34-27'
p167
sg31
S'11'
p168
sg33
g40
sg35
S'@STL'
p169
sg37
S'11'
p170
sg39
S'76'
p171
sg41
S'13'
p172
ssg42
(dp173
g5
S'11.0'
p174
sg7
S'--'
p175
sg9
g10
sg11
S'--'
p176
sg13
g14
sg15
g10
sg17
S'2011'
p177
sg19
S'16'
p178
sg21
S'6.1'
p179
sg23
S'12/24'
p180
sg25
g10
sg26
S'Kendall Hunter'
p181
sg28
S'12'
p182
sg29
S'W19-17'
p183
sg31
S'11'
p184
sg33
g14
sg35
S'@SEA'
p185
sg37
S'11'
p186
sg39
S'73'
p187
sg41
S'24'
p188
ssg14
(dp189
g5
S'--'
p190
sg7
S'--'
p191
sg9
g10
sg11
S'--'
p192
sg13
g14
sg15
S'--'
p193
sg17
S'2011'
p194
sg19
g14
sg21
S'2.0'
p195
sg23
S'09/11'
p196
sg25
g10
sg26
S'Kendall Hunter'
p197
sg28
g40
sg29
S'W33-17'
p198
sg31
S'--'
p199
sg33
S'--'
p200
sg35
S'SEA'
p201
sg37
S'--'
p202
sg39
g93
sg41
g93
ssS'3'
p203
(dp204
g5
S'6.0'
p205
sg7
S'--'
p206
sg9
g10
sg11
S'--'
p207
sg13
g14
sg15
g10
sg17
S'2011'
p208
sg19
g203
sg21
S'2.9'
p209
sg23
S'09/25'
p210
sg25
g14
sg26
S'Kendall Hunter'
p211
sg28
g80
sg29
S'W13-8'
p212
sg31
S'12'
p213
sg33
g40
sg35
S'@CIN'
p214
sg37
S'10'
p215
sg39
S'26'
p216
sg41
S'11'
p217
ssg40
(dp218
g5
S'--'
p219
sg7
S'--'
p220
sg9
g10
sg11
S'--'
p221
sg13
g14
sg15
S'--'
p222
sg17
S'2011'
p223
sg19
g40
sg21
S'--'
p224
sg23
S'09/18'
p225
sg25
S'--'
p226
sg26
S'Kendall Hunter'
p227
sg28
S'--'
p228
sg29
S'L24-27'
p229
sg31
S'--'
p230
sg33
S'--'
p231
sg35
S'DAL'
p232
sg37
S'--'
p233
sg39
S'--'
p234
sg41
S'--'
p235
ssg107
(dp236
g5
S'--'
p237
sg7
S'--'
p238
sg9
g10
sg11
S'--'
p239
sg13
g14
sg15
S'--'
p240
sg17
S'2011'
p241
sg19
g107
sg21
S'7.2'
p242
sg23
S'10/09'
p243
sg25
g10
sg26
S'Kendall Hunter'
p244
sg28
g80
sg29
S'W48-3'
p245
sg31
S'--'
p246
sg33
S'--'
p247
sg35
S'TB'
p248
sg37
S'--'
p249
sg39
S'65'
p250
sg41
S'44'
p251
ssg93
(dp252
g5
S'31.0'
p253
sg7
S'--'
p254
sg9
g14
sg11
S'--'
p255
sg13
g14
sg15
g10
sg17
S'2011'
p256
sg19
g93
sg21
S'4.2'
p257
sg23
S'10/02'
p258
sg25
g10
sg26
S'Kendall Hunter'
p259
sg28
g80
sg29
S'W24-23'
p260
sg31
S'62'
p261
sg33
g40
sg35
S'@PHI'
p262
sg37
S'44'
p263
sg39
S'38'
p264
sg41
S'14'
p265
ssS'7'
p266
(dp267
g5
S''
p268
sg7
g268
sg9
g268
sg11
g268
sg13
g268
sg15
g268
sg17
S'2011'
p269
sg19
g266
sg21
g268
sg23
S'Bye'
p270
sg25
g268
sg26
S'Kendall Hunter'
p271
sg28
g268
sg29
g268
sg31
g268
sg33
g268
sg35
g268
sg37
g268
sg39
g268
sg41
g268
ssg91
(dp272
g5
S'--'
p273
sg7
S'--'
p274
sg9
g10
sg11
S'--'
p275
sg13
g14
sg15
S'--'
p276
sg17
S'2011'
p277
sg19
g91
sg21
S'4.1'
p278
sg23
S'10/16'
p279
sg25
g10
sg26
S'Kendall Hunter'
p280
sg28
g150
sg29
S'W25-19'
p281
sg31
S'--'
p282
sg33
S'--'
p283
sg35
S'@DET'
p284
sg37
S'--'
p285
sg39
S'33'
p286
sg41
g80
ssg80
(dp287
g5
S'--'
p288
sg7
S'--'
p289
sg9
g10
sg11
S'--'
p290
sg13
g14
sg15
S'--'
p291
sg17
S'2011'
p292
sg19
g80
sg21
S'3.1'
p293
sg23
S'11/06'
p294
sg25
g10
sg26
S'Kendall Hunter'
p295
sg28
g150
sg29
S'W19-11'
p296
sg31
S'--'
p297
sg33
S'--'
p298
sg35
S'@WAS'
p299
sg37
S'--'
p300
sg39
S'25'
p301
sg41
g150
ssg150
(dp302
g5
S'--'
p303
sg7
S'--'
p304
sg9
g10
sg11
S'--'
p305
sg13
g14
sg15
S'--'
p306
sg17
S'2011'
p307
sg19
g150
sg21
S'8.7'
p308
sg23
S'10/30'
p309
sg25
g10
sg26
S'Kendall Hunter'
p310
sg28
g203
sg29
S'W20-10'
p311
sg31
S'--'
p312
sg33
S'--'
p313
sg35
S'CLE'
p314
sg37
S'--'
p315
sg39
S'26'
p316
sg41
S'26'
p317
sssS'2013'
p318
(dp319
g64
(dp320
g5
S'--'
p321
sg7
S'--'
p322
sg9
g10
sg11
S'--'
p323
sg13
g14
sg15
S'--'
p324
sg17
S'2013'
p325
sg19
S'11'
p326
sg21
S'0.3'
p327
sg23
S'11/17'
p328
sg25
g10
sg26
S'Kendall Hunter'
p329
sg28
g93
sg29
S'L20-23'
p330
sg31
S'--'
p331
sg33
S'--'
p332
sg35
S'@NO'
p333
sg37
S'--'
p334
sg39
g14
sg41
g107
ssg81
(dp335
g5
S'--'
p336
sg7
g14
sg9
g10
sg11
g14
sg13
g14
sg15
g10
sg17
S'2013'
p337
sg19
S'10'
p338
sg21
S'2.7'
p339
sg23
S'11/10'
p340
sg25
g10
sg26
S'Kendall Hunter'
p341
sg28
g203
sg29
S'L9-10'
p342
sg31
g10
sg33
g10
sg35
S'CAR'
p343
sg37
S'--'
p344
sg39
g150
sg41
S'11'
p345
ssg97
(dp346
g5
S'--'
p347
sg7
S'--'
p348
sg9
g10
sg11
S'--'
p349
sg13
g14
sg15
S'--'
p350
sg17
S'2013'
p351
sg19
S'13'
p352
sg21
S'2.3'
p353
sg23
S'12/01'
p354
sg25
g10
sg26
S'Kendall Hunter'
p355
sg28
g203
sg29
S'W23-13'
p356
sg31
S'--'
p357
sg33
S'--'
p358
sg35
S'STL'
p359
sg37
S'--'
p360
sg39
g266
sg41
g266
ssg112
(dp361
g5
S'--'
p362
sg7
S'--'
p363
sg9
g10
sg11
S'--'
p364
sg13
g14
sg15
S'--'
p365
sg17
S'2013'
p366
sg19
S'12'
p367
sg21
S'1.5'
p368
sg23
S'11/25'
p369
sg25
g10
sg26
S'Kendall Hunter'
p370
sg28
g150
sg29
S'W27-6'
p371
sg31
S'--'
p372
sg33
S'--'
p373
sg35
S'@WAS'
p374
sg37
S'--'
p375
sg39
S'12'
p376
sg41
g93
ssg3
(dp377
g5
S'--'
p378
sg7
S'--'
p379
sg9
g10
sg11
S'--'
p380
sg13
g14
sg15
S'--'
p381
sg17
S'2013'
p382
sg19
S'15'
p383
sg21
S'5.0'
p384
sg23
S'12/15'
p385
sg25
g10
sg26
S'Kendall Hunter'
p386
sg28
g150
sg29
S'W33-14'
p387
sg31
S'--'
p388
sg33
S'--'
p389
sg35
S'@TB'
p390
sg37
S'--'
p391
sg39
S'40'
p392
sg41
S'15'
p393
ssg140
(dp394
g5
S'--'
p395
sg7
S'--'
p396
sg9
g10
sg11
S'--'
p397
sg13
g14
sg15
S'--'
p398
sg17
S'2013'
p399
sg19
S'14'
p400
sg21
S'4.0'
p401
sg23
S'12/08'
p402
sg25
g10
sg26
S'Kendall Hunter'
p403
sg28
g93
sg29
S'W19-17'
p404
sg31
S'--'
p405
sg33
S'--'
p406
sg35
S'SEA'
p407
sg37
S'--'
p408
sg39
S'16'
p409
sg41
g266
ssg156
(dp410
g5
S'--'
p411
sg7
S'--'
p412
sg9
g10
sg11
S'--'
p413
sg13
g14
sg15
S'--'
p414
sg17
S'2013'
p415
sg19
S'17'
p416
sg21
S'6.5'
p417
sg23
S'12/29'
p418
sg25
g10
sg26
S'Kendall Hunter'
p419
sg28
g40
sg29
S'W23-20'
p420
sg31
S'--'
p421
sg33
S'--'
p422
sg35
S'@ARI'
p423
sg37
S'--'
p424
sg39
S'13'
p425
sg41
g150
ssg42
(dp426
g5
S'--'
p427
sg7
S'--'
p428
sg9
g10
sg11
S'--'
p429
sg13
g14
sg15
S'--'
p430
sg17
S'2013'
p431
sg19
S'16'
p432
sg21
S'17.0'
p433
sg23
S'12/23'
p434
sg25
g10
sg26
S'Kendall Hunter'
p435
sg28
g203
sg29
S'W34-24'
p436
sg31
S'--'
p437
sg33
S'--'
p438
sg35
S'ATL'
p439
sg37
S'--'
p440
sg39
S'51'
p441
sg41
S'45'
p442
ssg14
(dp443
g5
S'--'
p444
sg7
S'--'
p445
sg9
g10
sg11
S'--'
p446
sg13
g14
sg15
S'--'
p447
sg17
S'2013'
p448
sg19
g14
sg21
S'4.0'
p449
sg23
S'09/08'
p450
sg25
g10
sg26
S'Kendall Hunter'
p451
sg28
g91
sg29
S'W34-28'
p452
sg31
S'--'
p453
sg33
S'--'
p454
sg35
S'GB'
p455
sg37
S'--'
p456
sg39
S'24'
p457
sg41
S'23'
p458
ssg203
(dp459
g5
S'4.0'
p460
sg7
S'--'
p461
sg9
g10
sg11
S'--'
p462
sg13
g14
sg15
g10
sg17
S'2013'
p463
sg19
g203
sg21
S'3.5'
p464
sg23
S'09/22'
p465
sg25
g14
sg26
S'Kendall Hunter'
p466
sg28
g93
sg29
S'L7-27'
p467
sg31
g93
sg33
g14
sg35
S'IND'
p468
sg37
g93
sg39
S'14'
p469
sg41
S'13T'
p470
ssg40
(dp471
g5
S'--'
p472
sg7
S'--'
p473
sg9
g10
sg11
S'--'
p474
sg13
g14
sg15
S'--'
p475
sg17
S'2013'
p476
sg19
g40
sg21
S'-7.0'
p477
sg23
S'09/15'
p478
sg25
g10
sg26
S'Kendall Hunter'
p479
sg28
g14
sg29
S'L3-29'
p480
sg31
S'--'
p481
sg33
S'--'
p482
sg35
S'@SEA'
p483
sg37
S'--'
p484
sg39
S'-7'
p485
sg41
S'-7'
p486
ssg107
(dp487
g5
S'--'
p488
sg7
S'--'
p489
sg9
g10
sg11
S'--'
p490
sg13
g14
sg15
S'--'
p491
sg17
S'2013'
p492
sg19
g107
sg21
S'5.8'
p493
sg23
S'10/06'
p494
sg25
g10
sg26
S'Kendall Hunter'
p495
sg28
g107
sg29
S'W34-3'
p496
sg31
S'--'
p497
sg33
S'--'
p498
sg35
S'HOU'
p499
sg37
S'--'
p500
sg39
S'29'
p501
sg41
S'13'
p502
ssg93
(dp503
g5
S'9.0'
p504
sg7
S'--'
p505
sg9
g10
sg11
S'--'
p506
sg13
g14
sg15
g10
sg17
S'2013'
p507
sg19
g93
sg21
S'4.5'
p508
sg23
S'09/26'
p509
sg25
g14
sg26
S'Kendall Hunter'
p510
sg28
S'11'
p511
sg29
S'W35-11'
p512
sg31
g80
sg33
g14
sg35
S'@STL'
p513
sg37
g80
sg39
S'49'
p514
sg41
S'29T'
p515
ssg266
(dp516
g5
S'--'
p517
sg7
S'--'
p518
sg9
g10
sg11
S'--'
p519
sg13
g14
sg15
S'--'
p520
sg17
S'2013'
p521
sg19
g266
sg21
S'1.5'
p522
sg23
S'10/20'
p523
sg25
g10
sg26
S'Kendall Hunter'
p524
sg28
g93
sg29
S'W31-17'
p525
sg31
S'--'
p526
sg33
S'--'
p527
sg35
S'@TEN'
p528
sg37
S'--'
p529
sg39
g91
sg41
g107
ssg91
(dp530
g5
S'--'
p531
sg7
S'--'
p532
sg9
g10
sg11
S'--'
p533
sg13
g14
sg15
g10
sg17
S'2013'
p534
sg19
g91
sg21
S'3.7'
p535
sg23
S'10/13'
p536
sg25
g14
sg26
S'Kendall Hunter'
p537
sg28
g203
sg29
S'W32-20'
p538
sg31
g10
sg33
g10
sg35
S'ARI'
p539
sg37
S'--'
p540
sg39
S'11'
p541
sg41
S'6T'
p542
ssg80
(dp543
g5
g268
sg7
g268
sg9
g268
sg11
g268
sg13
g268
sg15
g268
sg17
S'2013'
p544
sg19
g80
sg21
g268
sg23
S'Bye'
p545
sg25
g268
sg26
S'Kendall Hunter'
p546
sg28
g268
sg29
g268
sg31
g268
sg33
g268
sg35
g268
sg37
g268
sg39
g268
sg41
g268
ssg150
(dp547
g5
S'--'
p548
sg7
S'--'
p549
sg9
g10
sg11
S'--'
p550
sg13
g14
sg15
S'--'
p551
sg17
S'2013'
p552
sg19
g150
sg21
S'9.3'
p553
sg23
S'10/27'
p554
sg25
g10
sg26
S'Kendall Hunter'
p555
sg28
g80
sg29
S'W42-10'
p556
sg31
S'--'
p557
sg33
S'--'
p558
sg35
S'@JAC'
p559
sg37
S'--'
p560
sg39
S'84'
p561
sg41
S'41'
p562
sssS'2012'
p563
(dp564
g64
(dp565
g5
S'3.0'
p566
sg7
S'--'
p567
sg9
g10
sg11
S'--'
p568
sg13
g14
sg15
g10
sg17
S'2012'
p569
sg19
S'11'
p570
sg21
S'5.4'
p571
sg23
S'11/19'
p572
sg25
g14
sg26
S'Kendall Hunter'
p573
sg28
g107
sg29
S'W32-7'
p574
sg31
g203
sg33
g14
sg35
S'CHI'
p575
sg37
g203
sg39
S'27'
p576
sg41
S'14T'
p577
ssg81
(dp578
g5
S'8.0'
p579
sg7
S'--'
p580
sg9
g10
sg11
S'--'
p581
sg13
g14
sg15
g10
sg17
S'2012'
p582
sg19
S'10'
p583
sg21
S'5.0'
p584
sg23
S'11/11'
p585
sg25
g10
sg26
S'Kendall Hunter'
p586
sg28
g203
sg29
S'T24-24'
p587
sg31
g150
sg33
g14
sg35
S'STL'
p588
sg37
g150
sg39
S'15'
p589
sg41
g91
ssg112
(dp590
g5
S'--'
p591
sg7
S'--'
p592
sg9
g10
sg11
S'--'
p593
sg13
g14
sg15
g10
sg17
S'2012'
p594
sg19
S'12'
p595
sg21
S'7.0'
p596
sg23
S'11/25'
p597
sg25
g10
sg26
S'Kendall Hunter'
p598
sg28
g93
sg29
S'W31-21'
p599
sg31
g10
sg33
g10
sg35
S'@NO'
p600
sg37
S'--'
p601
sg39
S'28'
p602
sg41
S'21'
p603
ssg14
(dp604
g5
S'--'
p605
sg7
S'--'
p606
sg9
g10
sg11
S'--'
p607
sg13
g14
sg15
S'--'
p608
sg17
S'2012'
p609
sg19
g14
sg21
S'4.6'
p610
sg23
S'09/09'
p611
sg25
g10
sg26
S'Kendall Hunter'
p612
sg28
g80
sg29
S'W30-22'
p613
sg31
S'--'
p614
sg33
S'--'
p615
sg35
S'@GB'
p616
sg37
S'--'
p617
sg39
S'41'
p618
sg41
g150
ssg203
(dp619
g5
S'2.0'
p620
sg7
S'--'
p621
sg9
g10
sg11
S'--'
p622
sg13
g14
sg15
g10
sg17
S'2012'
p623
sg19
g203
sg21
S'0.0'
p624
sg23
S'09/23'
p625
sg25
g10
sg26
S'Kendall Hunter'
p626
sg28
g93
sg29
S'L13-24'
p627
sg31
g40
sg33
g14
sg35
S'@MIN'
p628
sg37
g40
sg39
g10
sg41
g203
ssg40
(dp629
g5
S'10.5'
p630
sg7
g14
sg9
g10
sg11
g14
sg13
g14
sg15
g10
sg17
S'2012'
p631
sg19
g40
sg21
S'4.6'
p632
sg23
S'09/16'
p633
sg25
g10
sg26
S'Kendall Hunter'
p634
sg28
g107
sg29
S'W27-19'
p635
sg31
S'21'
p636
sg33
g40
sg35
S'DET'
p637
sg37
S'12'
p638
sg39
S'23'
p639
sg41
S'13'
p640
ssg107
(dp641
g5
S'--'
p642
sg7
S'--'
p643
sg9
g10
sg11
S'--'
p644
sg13
g14
sg15
g10
sg17
S'2012'
p645
sg19
g107
sg21
S'7.4'
p646
sg23
S'10/07'
p647
sg25
g10
sg26
S'Kendall Hunter'
p648
sg28
S'11'
p649
sg29
S'W45-3'
p650
sg31
g10
sg33
g10
sg35
S'BUF'
p651
sg37
S'--'
p652
sg39
S'81'
p653
sg41
S'26'
p654
ssg93
(dp655
g5
S'--'
p656
sg7
S'--'
p657
sg9
g10
sg11
S'--'
p658
sg13
g14
sg15
S'--'
p659
sg17
S'2012'
p660
sg19
g93
sg21
S'7.0'
p661
sg23
S'09/30'
p662
sg25
g14
sg26
S'Kendall Hunter'
p663
sg28
g150
sg29
S'W34-0'
p664
sg31
S'--'
p665
sg33
S'--'
p666
sg35
S'@NYJ'
p667
sg37
S'--'
p668
sg39
S'56'
p669
sg41
S'13'
p670
ssg266
(dp671
g5
S'7.0'
p672
sg7
S'--'
p673
sg9
g10
sg11
S'--'
p674
sg13
g14
sg15
g10
sg17
S'2012'
p675
sg19
g266
sg21
S'3.4'
p676
sg23
S'10/18'
p677
sg25
g10
sg26
S'Kendall Hunter'
p678
sg28
g80
sg29
S'W13-6'
p679
sg31
S'14'
p680
sg33
g40
sg35
S'SEA'
p681
sg37
S'11'
p682
sg39
S'31'
p683
sg41
S'10'
p684
ssg91
(dp685
g5
S'6.0'
p686
sg7
S'--'
p687
sg9
g10
sg11
S'--'
p688
sg13
g14
sg15
g10
sg17
S'2012'
p689
sg19
g91
sg21
S'6.5'
p690
sg23
S'10/14'
p691
sg25
g10
sg26
S'Kendall Hunter'
p692
sg28
g93
sg29
S'L3-26'
p693
sg31
g91
sg33
g14
sg35
S'NYG'
p694
sg37
g91
sg39
S'26'
p695
sg41
S'15'
p696
ssg80
(dp697
g5
g268
sg7
g268
sg9
g268
sg11
g268
sg13
g268
sg15
g268
sg17
S'2012'
p698
sg19
g80
sg21
g268
sg23
S'Bye'
p699
sg25
g268
sg26
S'Kendall Hunter'
p700
sg28
g268
sg29
g268
sg31
g268
sg33
g268
sg35
g268
sg37
g268
sg39
g268
sg41
g268
ssg150
(dp701
g5
S'6.0'
p702
sg7
S'--'
p703
sg9
g10
sg11
S'--'
p704
sg13
g14
sg15
g10
sg17
S'2012'
p705
sg19
g150
sg21
S'4.3'
p706
sg23
S'10/29'
p707
sg25
g10
sg26
S'Kendall Hunter'
p708
sg28
S'10'
p709
sg29
S'W24-3'
p710
sg31
g91
sg33
g14
sg35
S'@ARI'
p711
sg37
g91
sg39
S'43'
p712
sg41
g80
sss.