(dp0
S'2015'
p1
(dp2
S'11'
p3
(dp4
S'RecAvg'
p5
S'--'
p6
sS'FUM'
p7
S'--'
p8
sS'GS'
p9
S'0'
p10
sS'Lost'
p11
S'--'
p12
sS'G'
p13
S'1'
p14
sS'RecTD'
p15
g10
sS'Year'
p16
S'2015'
p17
sS'WK'
p18
S'11'
p19
sS'RushAvg'
p20
S'5.3'
p21
sS'Game Date'
p22
S'11/22'
p23
sS'RushTD'
p24
g10
sS'Player'
p25
S'Kenjon Barner'
p26
sS'RushAtt'
p27
S'7'
p28
sS'Result'
p29
S'L17-45'
p30
sS'RecYds'
p31
g10
sS'Rec'
p32
g10
sS'Opp'
p33
S'TB'
p34
sS'RecLng'
p35
S'--'
p36
sS'RushYds'
p37
S'37'
p38
sS'RushLng'
p39
S'8'
p40
ssS'10'
p41
(dp42
g5
S'--'
p43
sg7
S'--'
p44
sg9
g10
sg11
S'--'
p45
sg13
g10
sg15
S'--'
p46
sg16
S'2015'
p47
sg18
S'10'
p48
sg20
S'--'
p49
sg22
S'11/15'
p50
sg24
S'--'
p51
sg25
S'Kenjon Barner'
p52
sg27
S'--'
p53
sg29
S'L19-20'
p54
sg31
S'--'
p55
sg32
S'--'
p56
sg33
S'MIA'
p57
sg35
S'--'
p58
sg37
S'--'
p59
sg39
S'--'
p60
ssS'13'
p61
(dp62
g5
S'3.5'
p63
sg7
g14
sg9
g10
sg11
g14
sg13
g14
sg15
g10
sg16
S'2015'
p64
sg18
S'13'
p65
sg20
S'4.3'
p66
sg22
S'12/06'
p67
sg24
g10
sg25
S'Kenjon Barner'
p68
sg27
S'9'
p69
sg29
S'W35-28'
p70
sg31
g28
sg32
S'2'
p71
sg33
S'@NE'
p72
sg35
S'5'
p73
sg37
S'39'
p74
sg39
S'19'
p75
ssS'12'
p76
(dp77
g5
S'1.0'
p78
sg7
S'--'
p79
sg9
g10
sg11
S'--'
p80
sg13
g14
sg15
g10
sg16
S'2015'
p81
sg18
S'12'
p82
sg20
S'4.3'
p83
sg22
S'11/26'
p84
sg24
g10
sg25
S'Kenjon Barner'
p85
sg27
g28
sg29
S'L14-45'
p86
sg31
g14
sg32
g14
sg33
S'@DET'
p87
sg35
g14
sg37
S'30'
p88
sg39
S'16'
p89
ssS'15'
p90
(dp91
g5
S'--'
p92
sg7
S'--'
p93
sg9
g10
sg11
S'--'
p94
sg13
g14
sg15
S'--'
p95
sg16
S'2015'
p96
sg18
S'15'
p97
sg20
S'--'
p98
sg22
S'12/20'
p99
sg24
S'--'
p100
sg25
S'Kenjon Barner'
p101
sg27
S'--'
p102
sg29
S'L17-40'
p103
sg31
S'--'
p104
sg32
S'--'
p105
sg33
S'ARI'
p106
sg35
S'--'
p107
sg37
S'--'
p108
sg39
S'--'
p109
ssS'14'
p110
(dp111
g5
S'--'
p112
sg7
S'--'
p113
sg9
g10
sg11
S'--'
p114
sg13
g14
sg15
S'--'
p115
sg16
S'2015'
p116
sg18
S'14'
p117
sg20
S'--'
p118
sg22
S'12/13'
p119
sg24
S'--'
p120
sg25
S'Kenjon Barner'
p121
sg27
S'--'
p122
sg29
S'W23-20'
p123
sg31
S'--'
p124
sg32
S'--'
p125
sg33
S'BUF'
p126
sg35
S'--'
p127
sg37
S'--'
p128
sg39
S'--'
p129
ssS'17'
p130
(dp131
g5
S'4.2'
p132
sg7
S'--'
p133
sg9
g10
sg11
S'--'
p134
sg13
g14
sg15
g10
sg16
S'2015'
p135
sg18
S'17'
p136
sg20
S'3.6'
p137
sg22
S'01/03'
p138
sg24
g10
sg25
S'Kenjon Barner'
p139
sg27
g73
sg29
S'W35-30'
p140
sg31
S'21'
p141
sg32
g73
sg33
S'@NYG'
p142
sg35
S'12'
p143
sg37
S'18'
p144
sg39
g28
ssS'16'
p145
(dp146
g5
S'-7.0'
p147
sg7
S'--'
p148
sg9
g10
sg11
S'--'
p149
sg13
g14
sg15
g10
sg16
S'2015'
p150
sg18
S'16'
p151
sg20
S'--'
p152
sg22
S'12/26'
p153
sg24
S'--'
p154
sg25
S'Kenjon Barner'
p155
sg27
S'--'
p156
sg29
S'L24-38'
p157
sg31
S'-7'
p158
sg32
g14
sg33
S'WAS'
p159
sg35
S'-7'
p160
sg37
S'--'
p161
sg39
S'--'
p162
ssg14
(dp163
g5
S'--'
p164
sg7
S'--'
p165
sg9
g10
sg11
S'--'
p166
sg13
g10
sg15
S'--'
p167
sg16
S'2015'
p168
sg18
g14
sg20
S'--'
p169
sg22
S'09/14'
p170
sg24
S'--'
p171
sg25
S'Kenjon Barner'
p172
sg27
S'--'
p173
sg29
S'L24-26'
p174
sg31
S'--'
p175
sg32
S'--'
p176
sg33
S'@ATL'
p177
sg35
S'--'
p178
sg37
S'--'
p179
sg39
S'--'
p180
ssS'3'
p181
(dp182
g5
S'--'
p183
sg7
S'--'
p184
sg9
g10
sg11
S'--'
p185
sg13
g14
sg15
S'--'
p186
sg16
S'2015'
p187
sg18
g181
sg20
S'--'
p188
sg22
S'09/27'
p189
sg24
S'--'
p190
sg25
S'Kenjon Barner'
p191
sg27
S'--'
p192
sg29
S'W24-17'
p193
sg31
S'--'
p194
sg32
S'--'
p195
sg33
S'@NYJ'
p196
sg35
S'--'
p197
sg37
S'--'
p198
sg39
S'--'
p199
ssg71
(dp200
g5
S'--'
p201
sg7
S'--'
p202
sg9
g10
sg11
S'--'
p203
sg13
g10
sg15
S'--'
p204
sg16
S'2015'
p205
sg18
g71
sg20
S'--'
p206
sg22
S'09/20'
p207
sg24
S'--'
p208
sg25
S'Kenjon Barner'
p209
sg27
S'--'
p210
sg29
S'L10-20'
p211
sg31
S'--'
p212
sg32
S'--'
p213
sg33
S'DAL'
p214
sg35
S'--'
p215
sg37
S'--'
p216
sg39
S'--'
p217
ssg73
(dp218
g5
S'--'
p219
sg7
S'--'
p220
sg9
g10
sg11
S'--'
p221
sg13
g10
sg15
S'--'
p222
sg16
S'2015'
p223
sg18
g73
sg20
S'--'
p224
sg22
S'10/11'
p225
sg24
S'--'
p226
sg25
S'Kenjon Barner'
p227
sg27
S'--'
p228
sg29
S'W39-17'
p229
sg31
S'--'
p230
sg32
S'--'
p231
sg33
S'NO'
p232
sg35
S'--'
p233
sg37
S'--'
p234
sg39
S'--'
p235
ssS'4'
p236
(dp237
g5
S'--'
p238
sg7
S'--'
p239
sg9
g10
sg11
S'--'
p240
sg13
g14
sg15
S'--'
p241
sg16
S'2015'
p242
sg18
g236
sg20
S'--'
p243
sg22
S'10/04'
p244
sg24
S'--'
p245
sg25
S'Kenjon Barner'
p246
sg27
S'--'
p247
sg29
S'L20-23'
p248
sg31
S'--'
p249
sg32
S'--'
p250
sg33
S'@WAS'
p251
sg35
S'--'
p252
sg37
S'--'
p253
sg39
S'--'
p254
ssg28
(dp255
g5
S'--'
p256
sg7
S'--'
p257
sg9
g10
sg11
S'--'
p258
sg13
g10
sg15
S'--'
p259
sg16
S'2015'
p260
sg18
g28
sg20
S'--'
p261
sg22
S'10/25'
p262
sg24
S'--'
p263
sg25
S'Kenjon Barner'
p264
sg27
S'--'
p265
sg29
S'L16-27'
p266
sg31
S'--'
p267
sg32
S'--'
p268
sg33
S'@CAR'
p269
sg35
S'--'
p270
sg37
S'--'
p271
sg39
S'--'
p272
ssS'6'
p273
(dp274
g5
S'--'
p275
sg7
S'--'
p276
sg9
g10
sg11
S'--'
p277
sg13
g10
sg15
S'--'
p278
sg16
S'2015'
p279
sg18
g273
sg20
S'--'
p280
sg22
S'10/19'
p281
sg24
S'--'
p282
sg25
S'Kenjon Barner'
p283
sg27
S'--'
p284
sg29
S'W27-7'
p285
sg31
S'--'
p286
sg32
S'--'
p287
sg33
S'NYG'
p288
sg35
S'--'
p289
sg37
S'--'
p290
sg39
S'--'
p291
ssg69
(dp292
g5
S'--'
p293
sg7
S'--'
p294
sg9
g10
sg11
S'--'
p295
sg13
g14
sg15
S'--'
p296
sg16
S'2015'
p297
sg18
g69
sg20
S'--'
p298
sg22
S'11/08'
p299
sg24
S'--'
p300
sg25
S'Kenjon Barner'
p301
sg27
S'--'
p302
sg29
S'W33-27'
p303
sg31
S'--'
p304
sg32
S'--'
p305
sg33
S'@DAL'
p306
sg35
S'--'
p307
sg37
S'--'
p308
sg39
S'--'
p309
ssg40
(dp310
g5
S''
p311
sg7
g311
sg9
g311
sg11
g311
sg13
g311
sg15
g311
sg16
S'2015'
p312
sg18
g40
sg20
g311
sg22
S'Bye'
p313
sg24
g311
sg25
S'Kenjon Barner'
p314
sg27
g311
sg29
g311
sg31
g311
sg32
g311
sg33
g311
sg35
g311
sg37
g311
sg39
g311
sssS'2013'
p315
(dp316
g3
(dp317
g5
S'--'
p318
sg7
S'--'
p319
sg9
g10
sg11
S'--'
p320
sg13
g10
sg15
S'--'
p321
sg16
S'2013'
p322
sg18
S'11'
p323
sg20
S'--'
p324
sg22
S'11/18'
p325
sg24
S'--'
p326
sg25
S'Kenjon Barner'
p327
sg27
S'--'
p328
sg29
S'W24-20'
p329
sg31
S'--'
p330
sg32
S'--'
p331
sg33
S'NE'
p332
sg35
S'--'
p333
sg37
S'--'
p334
sg39
S'--'
p335
ssg41
(dp336
g5
S'--'
p337
sg7
S'--'
p338
sg9
g10
sg11
S'--'
p339
sg13
g14
sg15
S'--'
p340
sg16
S'2013'
p341
sg18
S'10'
p342
sg20
S'--'
p343
sg22
S'11/10'
p344
sg24
S'--'
p345
sg25
S'Kenjon Barner'
p346
sg27
S'--'
p347
sg29
S'W10-9'
p348
sg31
S'--'
p349
sg32
S'--'
p350
sg33
S'@SF'
p351
sg35
S'--'
p352
sg37
S'--'
p353
sg39
S'--'
p354
ssg61
(dp355
g5
S'--'
p356
sg7
S'--'
p357
sg9
g10
sg11
S'--'
p358
sg13
g14
sg15
S'--'
p359
sg16
S'2013'
p360
sg18
S'13'
p361
sg20
S'1.2'
p362
sg22
S'12/01'
p363
sg24
g10
sg25
S'Kenjon Barner'
p364
sg27
g73
sg29
S'W27-6'
p365
sg31
S'--'
p366
sg32
S'--'
p367
sg33
S'TB'
p368
sg35
S'--'
p369
sg37
g273
sg39
g71
ssg76
(dp370
g5
S'--'
p371
sg7
S'--'
p372
sg9
g10
sg11
S'--'
p373
sg13
g10
sg15
S'--'
p374
sg16
S'2013'
p375
sg18
S'12'
p376
sg20
S'--'
p377
sg22
S'11/24'
p378
sg24
S'--'
p379
sg25
S'Kenjon Barner'
p380
sg27
S'--'
p381
sg29
S'W20-16'
p382
sg31
S'--'
p383
sg32
S'--'
p384
sg33
S'@MIA'
p385
sg35
S'--'
p386
sg37
S'--'
p387
sg39
S'--'
p388
ssg90
(dp389
g5
S'--'
p390
sg7
g14
sg9
g10
sg11
g10
sg13
g14
sg15
S'--'
p391
sg16
S'2013'
p392
sg18
S'15'
p393
sg20
S'--'
p394
sg22
S'12/15'
p395
sg24
S'--'
p396
sg25
S'Kenjon Barner'
p397
sg27
S'--'
p398
sg29
S'W30-20'
p399
sg31
S'--'
p400
sg32
S'--'
p401
sg33
S'NYJ'
p402
sg35
S'--'
p403
sg37
S'--'
p404
sg39
S'--'
p405
ssg110
(dp406
g5
S'--'
p407
sg7
S'--'
p408
sg9
g10
sg11
S'--'
p409
sg13
g10
sg15
S'--'
p410
sg16
S'2013'
p411
sg18
S'14'
p412
sg20
S'--'
p413
sg22
S'12/08'
p414
sg24
S'--'
p415
sg25
S'Kenjon Barner'
p416
sg27
S'--'
p417
sg29
S'L13-31'
p418
sg31
S'--'
p419
sg32
S'--'
p420
sg33
S'@NO'
p421
sg35
S'--'
p422
sg37
S'--'
p423
sg39
S'--'
p424
ssg130
(dp425
g5
S'--'
p426
sg7
S'--'
p427
sg9
g10
sg11
S'--'
p428
sg13
g14
sg15
S'--'
p429
sg16
S'2013'
p430
sg18
S'17'
p431
sg20
S'--'
p432
sg22
S'12/29'
p433
sg24
S'--'
p434
sg25
S'Kenjon Barner'
p435
sg27
S'--'
p436
sg29
S'W21-20'
p437
sg31
S'--'
p438
sg32
S'--'
p439
sg33
S'@ATL'
p440
sg35
S'--'
p441
sg37
S'--'
p442
sg39
S'--'
p443
ssg145
(dp444
g5
S'--'
p445
sg7
S'--'
p446
sg9
g10
sg11
S'--'
p447
sg13
g14
sg15
S'--'
p448
sg16
S'2013'
p449
sg18
S'16'
p450
sg20
S'--'
p451
sg22
S'12/22'
p452
sg24
S'--'
p453
sg25
S'Kenjon Barner'
p454
sg27
S'--'
p455
sg29
S'W17-13'
p456
sg31
S'--'
p457
sg32
S'--'
p458
sg33
S'NO'
p459
sg35
S'--'
p460
sg37
S'--'
p461
sg39
S'--'
p462
ssg14
(dp463
g5
S'--'
p464
sg7
S'--'
p465
sg9
g10
sg11
S'--'
p466
sg13
g10
sg15
S'--'
p467
sg16
S'2013'
p468
sg18
g14
sg20
S'--'
p469
sg22
S'09/08'
p470
sg24
S'--'
p471
sg25
S'Kenjon Barner'
p472
sg27
S'--'
p473
sg29
S'L7-12'
p474
sg31
S'--'
p475
sg32
S'--'
p476
sg33
S'SEA'
p477
sg35
S'--'
p478
sg37
S'--'
p479
sg39
S'--'
p480
ssg181
(dp481
g5
S'--'
p482
sg7
S'--'
p483
sg9
g10
sg11
S'--'
p484
sg13
g10
sg15
S'--'
p485
sg16
S'2013'
p486
sg18
g181
sg20
S'--'
p487
sg22
S'09/22'
p488
sg24
S'--'
p489
sg25
S'Kenjon Barner'
p490
sg27
S'--'
p491
sg29
S'W38-0'
p492
sg31
S'--'
p493
sg32
S'--'
p494
sg33
S'NYG'
p495
sg35
S'--'
p496
sg37
S'--'
p497
sg39
S'--'
p498
ssg71
(dp499
g5
S'--'
p500
sg7
S'--'
p501
sg9
g10
sg11
S'--'
p502
sg13
g10
sg15
S'--'
p503
sg16
S'2013'
p504
sg18
g71
sg20
S'--'
p505
sg22
S'09/15'
p506
sg24
S'--'
p507
sg25
S'Kenjon Barner'
p508
sg27
S'--'
p509
sg29
S'L23-24'
p510
sg31
S'--'
p511
sg32
S'--'
p512
sg33
S'@BUF'
p513
sg35
S'--'
p514
sg37
S'--'
p515
sg39
S'--'
p516
ssg73
(dp517
g5
S'5.0'
p518
sg7
S'--'
p519
sg9
g10
sg11
S'--'
p520
sg13
g14
sg15
g10
sg16
S'2013'
p521
sg18
g73
sg20
S'--'
p522
sg22
S'10/06'
p523
sg24
S'--'
p524
sg25
S'Kenjon Barner'
p525
sg27
S'--'
p526
sg29
S'L6-22'
p527
sg31
g73
sg32
g14
sg33
S'@ARI'
p528
sg35
g73
sg37
S'--'
p529
sg39
S'--'
p530
ssg236
(dp531
g5
g311
sg7
g311
sg9
g311
sg11
g311
sg13
g311
sg15
g311
sg16
S'2013'
p532
sg18
g236
sg20
g311
sg22
S'Bye'
p533
sg24
g311
sg25
S'Kenjon Barner'
p534
sg27
g311
sg29
g311
sg31
g311
sg32
g311
sg33
g311
sg35
g311
sg37
g311
sg39
g311
ssg28
(dp535
g5
S'--'
p536
sg7
S'--'
p537
sg9
g10
sg11
S'--'
p538
sg13
g14
sg15
S'--'
p539
sg16
S'2013'
p540
sg18
g28
sg20
S'--'
p541
sg22
S'10/20'
p542
sg24
S'--'
p543
sg25
S'Kenjon Barner'
p544
sg27
S'--'
p545
sg29
S'W30-15'
p546
sg31
S'--'
p547
sg32
S'--'
p548
sg33
S'STL'
p549
sg35
S'--'
p550
sg37
S'--'
p551
sg39
S'--'
p552
ssg273
(dp553
g5
S'--'
p554
sg7
S'--'
p555
sg9
g10
sg11
S'--'
p556
sg13
g10
sg15
S'--'
p557
sg16
S'2013'
p558
sg18
g273
sg20
S'--'
p559
sg22
S'10/13'
p560
sg24
S'--'
p561
sg25
S'Kenjon Barner'
p562
sg27
S'--'
p563
sg29
S'W35-10'
p564
sg31
S'--'
p565
sg32
S'--'
p566
sg33
S'@MIN'
p567
sg35
S'--'
p568
sg37
S'--'
p569
sg39
S'--'
p570
ssg69
(dp571
g5
S'--'
p572
sg7
S'--'
p573
sg9
g10
sg11
S'--'
p574
sg13
g10
sg15
S'--'
p575
sg16
S'2013'
p576
sg18
g69
sg20
S'--'
p577
sg22
S'11/03'
p578
sg24
S'--'
p579
sg25
S'Kenjon Barner'
p580
sg27
S'--'
p581
sg29
S'W34-10'
p582
sg31
S'--'
p583
sg32
S'--'
p584
sg33
S'ATL'
p585
sg35
S'--'
p586
sg37
S'--'
p587
sg39
S'--'
p588
ssg40
(dp589
g5
S'2.0'
p590
sg7
S'--'
p591
sg9
g10
sg11
S'--'
p592
sg13
g14
sg15
g10
sg16
S'2013'
p593
sg18
g40
sg20
S'1.0'
p594
sg22
S'10/24'
p595
sg24
g10
sg25
S'Kenjon Barner'
p596
sg27
g14
sg29
S'W31-13'
p597
sg31
g71
sg32
g14
sg33
S'@TB'
p598
sg35
g71
sg37
g14
sg39
g14
sss.