(dp0
S'2015'
p1
(dp2
S'13'
p3
(dp4
S'RecAvg'
p5
S'--'
p6
sS'FUM'
p7
S'--'
p8
sS'GS'
p9
S'0'
p10
sS'Lost'
p11
S'--'
p12
sS'G'
p13
S'1'
p14
sS'RecTD'
p15
S'--'
p16
sS'Year'
p17
S'2015'
p18
sS'WK'
p19
S'13'
p20
sS'RushAvg'
p21
S'9.8'
p22
sS'Game Date'
p23
S'12/06'
p24
sS'RushTD'
p25
g14
sS'Player'
p26
S'Kerwynn Williams'
p27
sS'RushAtt'
p28
S'6'
p29
sS'Result'
p30
S'W27-3'
p31
sS'RecYds'
p32
S'--'
p33
sS'Rec'
p34
S'--'
p35
sS'Opp'
p36
S'@STL'
p37
sS'RecLng'
p38
S'--'
p39
sS'RushYds'
p40
S'59'
p41
sS'RushLng'
p42
S'35T'
p43
ssS'15'
p44
(dp45
g5
S'12.0'
p46
sg7
S'--'
p47
sg9
g10
sg11
S'--'
p48
sg13
g14
sg15
g10
sg17
S'2015'
p49
sg19
S'15'
p50
sg21
S'5.7'
p51
sg23
S'12/20'
p52
sg25
g10
sg26
S'Kerwynn Williams'
p53
sg28
g29
sg30
S'W40-17'
p54
sg32
S'12'
p55
sg34
g14
sg36
S'@PHI'
p56
sg38
S'12'
p57
sg40
S'34'
p58
sg42
S'18'
p59
ssS'14'
p60
(dp61
g5
S'--'
p62
sg7
S'--'
p63
sg9
g10
sg11
S'--'
p64
sg13
g14
sg15
S'--'
p65
sg17
S'2015'
p66
sg19
S'14'
p67
sg21
S'0.3'
p68
sg23
S'12/10'
p69
sg25
g10
sg26
S'Kerwynn Williams'
p70
sg28
g29
sg30
S'W23-20'
p71
sg32
S'--'
p72
sg34
S'--'
p73
sg36
S'MIN'
p74
sg38
S'--'
p75
sg40
S'2'
p76
sg42
S'7'
p77
ssS'17'
p78
(dp79
g5
S'--'
p80
sg7
S'--'
p81
sg9
g10
sg11
S'--'
p82
sg13
g14
sg15
S'--'
p83
sg17
S'2015'
p84
sg19
S'17'
p85
sg21
S'--'
p86
sg23
S'01/03'
p87
sg25
S'--'
p88
sg26
S'Kerwynn Williams'
p89
sg28
S'--'
p90
sg30
S'L6-36'
p91
sg32
S'--'
p92
sg34
S'--'
p93
sg36
S'SEA'
p94
sg38
S'--'
p95
sg40
S'--'
p96
sg42
S'--'
p97
ssS'16'
p98
(dp99
g5
S'4.0'
p100
sg7
g14
sg9
g10
sg11
g14
sg13
g14
sg15
g10
sg17
S'2015'
p101
sg19
S'16'
p102
sg21
S'5.5'
p103
sg23
S'12/27'
p104
sg25
g10
sg26
S'Kerwynn Williams'
p105
sg28
S'8'
p106
sg30
S'W38-8'
p107
sg32
S'4'
p108
sg34
g14
sg36
S'GB'
p109
sg38
g108
sg40
S'44'
p110
sg42
S'19'
p111
ssg76
(dp112
g5
S'--'
p113
sg7
S'--'
p114
sg9
g10
sg11
S'--'
p115
sg13
g14
sg15
S'--'
p116
sg17
S'2015'
p117
sg19
g76
sg21
S'3.0'
p118
sg23
S'09/20'
p119
sg25
g10
sg26
S'Kerwynn Williams'
p120
sg28
g14
sg30
S'W48-23'
p121
sg32
S'--'
p122
sg34
S'--'
p123
sg36
S'@CHI'
p124
sg38
S'--'
p125
sg40
S'3'
p126
sg42
g126
sssS'2014'
p127
(dp128
S'11'
p129
(dp130
g5
S'--'
p131
sg7
S'--'
p132
sg9
g10
sg11
S'--'
p133
sg13
g10
sg15
S'--'
p134
sg17
S'2014'
p135
sg19
S'11'
p136
sg21
S'--'
p137
sg23
S'11/16'
p138
sg25
S'--'
p139
sg26
S'Kerwynn Williams'
p140
sg28
S'--'
p141
sg30
S'W14-6'
p142
sg32
S'--'
p143
sg34
S'--'
p144
sg36
S'DET'
p145
sg38
S'--'
p146
sg40
S'--'
p147
sg42
S'--'
p148
ssS'10'
p149
(dp150
g5
S'--'
p151
sg7
S'--'
p152
sg9
g10
sg11
S'--'
p153
sg13
g14
sg15
S'--'
p154
sg17
S'2014'
p155
sg19
S'10'
p156
sg21
S'--'
p157
sg23
S'11/09'
p158
sg25
S'--'
p159
sg26
S'Kerwynn Williams'
p160
sg28
S'--'
p161
sg30
S'W31-14'
p162
sg32
S'--'
p163
sg34
S'--'
p164
sg36
S'STL'
p165
sg38
S'--'
p166
sg40
S'--'
p167
sg42
S'--'
p168
ssS'12'
p169
(dp170
g5
S'--'
p171
sg7
S'--'
p172
sg9
g10
sg11
S'--'
p173
sg13
g10
sg15
S'--'
p174
sg17
S'2014'
p175
sg19
S'12'
p176
sg21
S'--'
p177
sg23
S'11/23'
p178
sg25
S'--'
p179
sg26
S'Kerwynn Williams'
p180
sg28
S'--'
p181
sg30
S'L3-19'
p182
sg32
S'--'
p183
sg34
S'--'
p184
sg36
S'@SEA'
p185
sg38
S'--'
p186
sg40
S'--'
p187
sg42
S'--'
p188
ssg44
(dp189
g5
S'5.5'
p190
sg7
g14
sg9
g10
sg11
g10
sg13
g14
sg15
g10
sg17
S'2014'
p191
sg19
S'15'
p192
sg21
S'5.0'
p193
sg23
S'12/11'
p194
sg25
g10
sg26
S'Kerwynn Williams'
p195
sg28
S'15'
p196
sg30
S'W12-6'
p197
sg32
S'11'
p198
sg34
g76
sg36
S'@STL'
p199
sg38
g29
sg40
S'75'
p200
sg42
S'19'
p201
ssg60
(dp202
g5
S'--'
p203
sg7
S'--'
p204
sg9
g10
sg11
S'--'
p205
sg13
g14
sg15
S'--'
p206
sg17
S'2014'
p207
sg19
S'14'
p208
sg21
S'5.3'
p209
sg23
S'12/07'
p210
sg25
g10
sg26
S'Kerwynn Williams'
p211
sg28
S'19'
p212
sg30
S'W17-14'
p213
sg32
S'--'
p214
sg34
S'--'
p215
sg36
S'KC'
p216
sg38
S'--'
p217
sg40
S'100'
p218
sg42
S'16'
p219
ssg78
(dp220
g5
S'--'
p221
sg7
S'--'
p222
sg9
g10
sg11
S'--'
p223
sg13
g14
sg15
g10
sg17
S'2014'
p224
sg19
S'17'
p225
sg21
S'3.9'
p226
sg23
S'12/28'
p227
sg25
g10
sg26
S'Kerwynn Williams'
p228
sg28
S'17'
p229
sg30
S'L17-20'
p230
sg32
g10
sg34
g10
sg36
S'@SF'
p231
sg38
S'--'
p232
sg40
S'67'
p233
sg42
S'11'
p234
ssg98
(dp235
g5
S'--'
p236
sg7
S'--'
p237
sg9
g10
sg11
S'--'
p238
sg13
g14
sg15
S'--'
p239
sg17
S'2014'
p240
sg19
S'16'
p241
sg21
S'2.0'
p242
sg23
S'12/21'
p243
sg25
g10
sg26
S'Kerwynn Williams'
p244
sg28
g76
sg30
S'L6-35'
p245
sg32
S'--'
p246
sg34
S'--'
p247
sg36
S'SEA'
p248
sg38
S'--'
p249
sg40
g108
sg42
g126
ssS'9'
p250
(dp251
g5
S'--'
p252
sg7
S'--'
p253
sg9
g10
sg11
S'--'
p254
sg13
g10
sg15
S'--'
p255
sg17
S'2014'
p256
sg19
g250
sg21
S'--'
p257
sg23
S'11/02'
p258
sg25
S'--'
p259
sg26
S'Kerwynn Williams'
p260
sg28
S'--'
p261
sg30
S'W28-17'
p262
sg32
S'--'
p263
sg34
S'--'
p264
sg36
S'@DAL'
p265
sg38
S'--'
p266
sg40
S'--'
p267
sg42
S'--'
p268
sssS'2013'
p269
(dp270
g126
(dp271
g5
S'--'
p272
sg7
S'--'
p273
sg9
g10
sg11
S'--'
p274
sg13
g10
sg15
S'--'
p275
sg17
S'2013'
p276
sg19
g126
sg21
S'--'
p277
sg23
S'09/22'
p278
sg25
S'--'
p279
sg26
S'Kerwynn Williams'
p280
sg28
S'--'
p281
sg30
S'W27-7'
p282
sg32
S'--'
p283
sg34
S'--'
p284
sg36
S'@SF'
p285
sg38
S'--'
p286
sg40
S'--'
p287
sg42
S'--'
p288
ssg76
(dp289
g5
S'--'
p290
sg7
S'--'
p291
sg9
g10
sg11
S'--'
p292
sg13
g14
sg15
S'--'
p293
sg17
S'2013'
p294
sg19
g76
sg21
S'--'
p295
sg23
S'09/15'
p296
sg25
S'--'
p297
sg26
S'Kerwynn Williams'
p298
sg28
S'--'
p299
sg30
S'L20-24'
p300
sg32
S'--'
p301
sg34
S'--'
p302
sg36
S'MIA'
p303
sg38
S'--'
p304
sg40
S'--'
p305
sg42
S'--'
p306
sss.