(dp0
S'2015'
p1
(dp2
S'11'
p3
(dp4
S'RecAvg'
p5
S'--'
p6
sS'FUM'
p7
S'--'
p8
sS'GS'
p9
S'0'
p10
sS'Lost'
p11
S'--'
p12
sS'G'
p13
g10
sS'RecTD'
p14
S'--'
p15
sS'Year'
p16
S'2015'
p17
sS'WK'
p18
S'11'
p19
sS'RushAvg'
p20
S'--'
p21
sS'Game Date'
p22
S'11/22'
p23
sS'RushTD'
p24
S'--'
p25
sS'Player'
p26
S'Knile Davis'
p27
sS'RushAtt'
p28
S'--'
p29
sS'Result'
p30
S'W33-3'
p31
sS'RecYds'
p32
S'--'
p33
sS'Rec'
p34
S'--'
p35
sS'Opp'
p36
S'@SD'
p37
sS'RecLng'
p38
S'--'
p39
sS'RushYds'
p40
S'--'
p41
sS'RushLng'
p42
S'--'
p43
ssS'10'
p44
(dp45
g5
S'--'
p46
sg7
S'--'
p47
sg9
g10
sg11
S'--'
p48
sg13
g10
sg14
S'--'
p49
sg16
S'2015'
p50
sg18
S'10'
p51
sg20
S'--'
p52
sg22
S'11/15'
p53
sg24
S'--'
p54
sg26
S'Knile Davis'
p55
sg28
S'--'
p56
sg30
S'W29-13'
p57
sg32
S'--'
p58
sg34
S'--'
p59
sg36
S'@DEN'
p60
sg38
S'--'
p61
sg40
S'--'
p62
sg42
S'--'
p63
ssS'13'
p64
(dp65
g5
S'--'
p66
sg7
S'--'
p67
sg9
g10
sg11
S'--'
p68
sg13
S'1'
p69
sg14
S'--'
p70
sg16
S'2015'
p71
sg18
S'13'
p72
sg20
S'--'
p73
sg22
S'12/06'
p74
sg24
S'--'
p75
sg26
S'Knile Davis'
p76
sg28
S'--'
p77
sg30
S'W34-20'
p78
sg32
S'--'
p79
sg34
S'--'
p80
sg36
S'@OAK'
p81
sg38
S'--'
p82
sg40
S'--'
p83
sg42
S'--'
p84
ssS'12'
p85
(dp86
g5
S'--'
p87
sg7
S'--'
p88
sg9
g10
sg11
S'--'
p89
sg13
g69
sg14
S'--'
p90
sg16
S'2015'
p91
sg18
S'12'
p92
sg20
S'1.0'
p93
sg22
S'11/29'
p94
sg24
g10
sg26
S'Knile Davis'
p95
sg28
g69
sg30
S'W30-22'
p96
sg32
S'--'
p97
sg34
S'--'
p98
sg36
S'BUF'
p99
sg38
S'--'
p100
sg40
g69
sg42
g69
ssS'15'
p101
(dp102
g5
S'--'
p103
sg7
S'--'
p104
sg9
g10
sg11
S'--'
p105
sg13
g69
sg14
S'--'
p106
sg16
S'2015'
p107
sg18
S'15'
p108
sg20
S'2.8'
p109
sg22
S'12/20'
p110
sg24
g10
sg26
S'Knile Davis'
p111
sg28
S'5'
p112
sg30
S'W34-14'
p113
sg32
S'--'
p114
sg34
S'--'
p115
sg36
S'@BAL'
p116
sg38
S'--'
p117
sg40
S'14'
p118
sg42
S'6'
p119
ssS'14'
p120
(dp121
g5
S'--'
p122
sg7
S'--'
p123
sg9
g10
sg11
S'--'
p124
sg13
g69
sg14
S'--'
p125
sg16
S'2015'
p126
sg18
S'14'
p127
sg20
S'6.0'
p128
sg22
S'12/13'
p129
sg24
g10
sg26
S'Knile Davis'
p130
sg28
g69
sg30
S'W10-3'
p131
sg32
S'--'
p132
sg34
S'--'
p133
sg36
S'SD'
p134
sg38
S'--'
p135
sg40
g119
sg42
g119
ssS'17'
p136
(dp137
g5
S'--'
p138
sg7
S'--'
p139
sg9
g10
sg11
S'--'
p140
sg13
g69
sg14
S'--'
p141
sg16
S'2015'
p142
sg18
S'17'
p143
sg20
S'--'
p144
sg22
S'01/03'
p145
sg24
S'--'
p146
sg26
S'Knile Davis'
p147
sg28
S'--'
p148
sg30
S'W23-17'
p149
sg32
S'--'
p150
sg34
S'--'
p151
sg36
S'OAK'
p152
sg38
S'--'
p153
sg40
S'--'
p154
sg42
S'--'
p155
ssS'16'
p156
(dp157
g5
S'--'
p158
sg7
S'--'
p159
sg9
g10
sg11
S'--'
p160
sg13
g69
sg14
S'--'
p161
sg16
S'2015'
p162
sg18
S'16'
p163
sg20
S'--'
p164
sg22
S'12/27'
p165
sg24
S'--'
p166
sg26
S'Knile Davis'
p167
sg28
S'--'
p168
sg30
S'W17-13'
p169
sg32
S'--'
p170
sg34
S'--'
p171
sg36
S'CLE'
p172
sg38
S'--'
p173
sg40
S'--'
p174
sg42
S'--'
p175
ssg69
(dp176
g5
S'12.0'
p177
sg7
S'--'
p178
sg9
g10
sg11
S'--'
p179
sg13
g69
sg14
g10
sg16
S'2015'
p180
sg18
g69
sg20
S'2.7'
p181
sg22
S'09/13'
p182
sg24
g10
sg26
S'Knile Davis'
p183
sg28
g119
sg30
S'W27-20'
p184
sg32
S'12'
p185
sg34
g69
sg36
S'@HOU'
p186
sg38
S'12'
p187
sg40
S'16'
p188
sg42
S'10'
p189
ssS'3'
p190
(dp191
g5
S'--'
p192
sg7
S'--'
p193
sg9
g10
sg11
S'--'
p194
sg13
g69
sg14
S'--'
p195
sg16
S'2015'
p196
sg18
g190
sg20
S'--'
p197
sg22
S'09/28'
p198
sg24
S'--'
p199
sg26
S'Knile Davis'
p200
sg28
S'--'
p201
sg30
S'L28-38'
p202
sg32
S'--'
p203
sg34
S'--'
p204
sg36
S'@GB'
p205
sg38
S'--'
p206
sg40
S'--'
p207
sg42
S'--'
p208
ssS'2'
p209
(dp210
g5
S'--'
p211
sg7
S'--'
p212
sg9
g10
sg11
S'--'
p213
sg13
g69
sg14
g10
sg16
S'2015'
p214
sg18
g209
sg20
S'3.0'
p215
sg22
S'09/17'
p216
sg24
g69
sg26
S'Knile Davis'
p217
sg28
g190
sg30
S'L24-31'
p218
sg32
g10
sg34
g10
sg36
S'DEN'
p219
sg38
S'--'
p220
sg40
S'9'
p221
sg42
S'8T'
p222
ssg112
(dp223
g5
S'--'
p224
sg7
S'--'
p225
sg9
g10
sg11
S'--'
p226
sg13
g69
sg14
S'--'
p227
sg16
S'2015'
p228
sg18
g112
sg20
S'1.0'
p229
sg22
S'10/11'
p230
sg24
g10
sg26
S'Knile Davis'
p231
sg28
g209
sg30
S'L17-18'
p232
sg32
S'--'
p233
sg34
S'--'
p234
sg36
S'CHI'
p235
sg38
S'--'
p236
sg40
g209
sg42
S'4'
p237
ssg237
(dp238
g5
S'--'
p239
sg7
S'--'
p240
sg9
g10
sg11
S'--'
p241
sg13
g69
sg14
S'--'
p242
sg16
S'2015'
p243
sg18
g237
sg20
S'--'
p244
sg22
S'10/04'
p245
sg24
S'--'
p246
sg26
S'Knile Davis'
p247
sg28
S'--'
p248
sg30
S'L21-36'
p249
sg32
S'--'
p250
sg34
S'--'
p251
sg36
S'@CIN'
p252
sg38
S'--'
p253
sg40
S'--'
p254
sg42
S'--'
p255
ssS'7'
p256
(dp257
g5
S'--'
p258
sg7
S'--'
p259
sg9
g10
sg11
S'--'
p260
sg13
g69
sg14
S'--'
p261
sg16
S'2015'
p262
sg18
g256
sg20
S'2.0'
p263
sg22
S'10/25'
p264
sg24
g10
sg26
S'Knile Davis'
p265
sg28
g69
sg30
S'W23-13'
p266
sg32
S'--'
p267
sg34
S'--'
p268
sg36
S'PIT'
p269
sg38
S'--'
p270
sg40
g209
sg42
g209
ssg119
(dp271
g5
S'12.0'
p272
sg7
S'--'
p273
sg9
g10
sg11
S'--'
p274
sg13
g69
sg14
g10
sg16
S'2015'
p275
sg18
g119
sg20
S'2.6'
p276
sg22
S'10/18'
p277
sg24
g10
sg26
S'Knile Davis'
p278
sg28
g112
sg30
S'L10-16'
p279
sg32
S'12'
p280
sg34
g69
sg36
S'@MIN'
p281
sg38
S'12'
p282
sg40
S'13'
p283
sg42
S'8'
p284
ssg221
(dp285
g5
S''
p286
sg7
g286
sg9
g286
sg11
g286
sg13
g286
sg14
g286
sg16
S'2015'
p287
sg18
g221
sg20
g286
sg22
S'Bye'
p288
sg24
g286
sg26
S'Knile Davis'
p289
sg28
g286
sg30
g286
sg32
g286
sg34
g286
sg36
g286
sg38
g286
sg40
g286
sg42
g286
ssg284
(dp290
g5
S'--'
p291
sg7
S'--'
p292
sg9
g10
sg11
S'--'
p293
sg13
g69
sg14
S'--'
p294
sg16
S'2015'
p295
sg18
g284
sg20
S'2.3'
p296
sg22
S'11/01'
p297
sg24
g10
sg26
S'Knile Davis'
p298
sg28
g237
sg30
S'W45-10'
p299
sg32
S'--'
p300
sg34
S'--'
p301
sg36
S'DET'
p302
sg38
S'--'
p303
sg40
g221
sg42
g112
sssS'2014'
p304
(dp305
g3
(dp306
g5
S'8.0'
p307
sg7
S'--'
p308
sg9
g10
sg11
S'--'
p309
sg13
g69
sg14
g10
sg16
S'2014'
p310
sg18
S'11'
p311
sg20
S'2.0'
p312
sg22
S'11/16'
p313
sg24
g69
sg26
S'Knile Davis'
p314
sg28
g112
sg30
S'W24-20'
p315
sg32
g284
sg34
g69
sg36
S'SEA'
p316
sg38
g284
sg40
S'10'
p317
sg42
S'4T'
p318
ssg44
(dp319
g5
S'5.0'
p320
sg7
g69
sg9
g10
sg11
g69
sg13
g69
sg14
g10
sg16
S'2014'
p321
sg18
S'10'
p322
sg20
S'0.3'
p323
sg22
S'11/09'
p324
sg24
g10
sg26
S'Knile Davis'
p325
sg28
g237
sg30
S'W17-13'
p326
sg32
g112
sg34
g69
sg36
S'@BUF'
p327
sg38
g112
sg40
g69
sg42
g237
ssg64
(dp328
g5
S'--'
p329
sg7
S'--'
p330
sg9
g10
sg11
S'--'
p331
sg13
g69
sg14
S'--'
p332
sg16
S'2014'
p333
sg18
S'13'
p334
sg20
S'--'
p335
sg22
S'11/30'
p336
sg24
S'--'
p337
sg26
S'Knile Davis'
p338
sg28
S'--'
p339
sg30
S'L16-29'
p340
sg32
S'--'
p341
sg34
S'--'
p342
sg36
S'DEN'
p343
sg38
S'--'
p344
sg40
S'--'
p345
sg42
S'--'
p346
ssg85
(dp347
g5
S'--'
p348
sg7
S'--'
p349
sg9
g10
sg11
S'--'
p350
sg13
g69
sg14
g10
sg16
S'2014'
p351
sg18
S'12'
p352
sg20
S'1.0'
p353
sg22
S'11/20'
p354
sg24
g10
sg26
S'Knile Davis'
p355
sg28
g209
sg30
S'L20-24'
p356
sg32
g10
sg34
g10
sg36
S'@OAK'
p357
sg38
S'--'
p358
sg40
g209
sg42
g190
ssg101
(dp359
g5
S'70.0'
p360
sg7
S'--'
p361
sg9
g10
sg11
S'--'
p362
sg13
g69
sg14
g69
sg16
S'2014'
p363
sg18
S'15'
p364
sg20
S'1.2'
p365
sg22
S'12/14'
p366
sg24
g69
sg26
S'Knile Davis'
p367
sg28
g221
sg30
S'W31-13'
p368
sg32
S'70'
p369
sg34
g69
sg36
S'OAK'
p370
sg38
S'70T'
p371
sg40
S'11'
p372
sg42
S'3T'
p373
ssg120
(dp374
g5
S'1.0'
p375
sg7
S'--'
p376
sg9
g10
sg11
S'--'
p377
sg13
g69
sg14
g10
sg16
S'2014'
p378
sg18
S'14'
p379
sg20
S'4.0'
p380
sg22
S'12/07'
p381
sg24
g10
sg26
S'Knile Davis'
p382
sg28
g69
sg30
S'L14-17'
p383
sg32
g190
sg34
g190
sg36
S'@ARI'
p384
sg38
g284
sg40
g237
sg42
g237
ssg136
(dp385
g5
S'--'
p386
sg7
S'--'
p387
sg9
g10
sg11
S'--'
p388
sg13
g69
sg14
S'--'
p389
sg16
S'2014'
p390
sg18
S'17'
p391
sg20
S'2.6'
p392
sg22
S'12/28'
p393
sg24
g10
sg26
S'Knile Davis'
p394
sg28
g221
sg30
S'W19-7'
p395
sg32
S'--'
p396
sg34
S'--'
p397
sg36
S'SD'
p398
sg38
S'--'
p399
sg40
S'23'
p400
sg42
S'11'
p401
ssg156
(dp402
g5
S'9.0'
p403
sg7
S'--'
p404
sg9
g10
sg11
S'--'
p405
sg13
g69
sg14
g10
sg16
S'2014'
p406
sg18
S'16'
p407
sg20
S'1.0'
p408
sg22
S'12/21'
p409
sg24
g10
sg26
S'Knile Davis'
p410
sg28
g209
sg30
S'L12-20'
p411
sg32
g221
sg34
g69
sg36
S'@PIT'
p412
sg38
g221
sg40
g209
sg42
g69
ssg69
(dp413
g5
S'3.0'
p414
sg7
S'--'
p415
sg9
g10
sg11
S'--'
p416
sg13
g69
sg14
g10
sg16
S'2014'
p417
sg18
g69
sg20
S'3.0'
p418
sg22
S'09/07'
p419
sg24
g10
sg26
S'Knile Davis'
p420
sg28
g69
sg30
S'L10-26'
p421
sg32
g190
sg34
g69
sg36
S'TEN'
p422
sg38
g190
sg40
g190
sg42
g190
ssg190
(dp423
g5
S'--'
p424
sg7
g209
sg9
g69
sg11
g69
sg13
g69
sg14
g10
sg16
S'2014'
p425
sg18
g190
sg20
S'4.1'
p426
sg22
S'09/21'
p427
sg24
g69
sg26
S'Knile Davis'
p428
sg28
S'32'
p429
sg30
S'W34-15'
p430
sg32
g10
sg34
g10
sg36
S'@MIA'
p431
sg38
S'--'
p432
sg40
S'132'
p433
sg42
S'21T'
p434
ssg209
(dp435
g5
S'4.3'
p436
sg7
g69
sg9
g10
sg11
g10
sg13
g69
sg14
g10
sg16
S'2014'
p437
sg18
g209
sg20
S'3.6'
p438
sg22
S'09/14'
p439
sg24
g209
sg26
S'Knile Davis'
p440
sg28
S'22'
p441
sg30
S'L17-24'
p442
sg32
S'26'
p443
sg34
g119
sg36
S'@DEN'
p444
sg38
S'11'
p445
sg40
S'79'
p446
sg42
S'25'
p447
ssg112
(dp448
g5
S'--'
p449
sg7
S'--'
p450
sg9
g10
sg11
S'--'
p451
sg13
g69
sg14
g10
sg16
S'2014'
p452
sg18
g112
sg20
S'3.0'
p453
sg22
S'10/05'
p454
sg24
g10
sg26
S'Knile Davis'
p455
sg28
g209
sg30
S'L17-22'
p456
sg32
g10
sg34
g10
sg36
S'@SF'
p457
sg38
S'--'
p458
sg40
g119
sg42
g190
ssg237
(dp459
g5
S'12.0'
p460
sg7
S'--'
p461
sg9
g10
sg11
S'--'
p462
sg13
g69
sg14
g10
sg16
S'2014'
p463
sg18
g237
sg20
S'6.7'
p464
sg22
S'09/29'
p465
sg24
g10
sg26
S'Knile Davis'
p466
sg28
S'16'
p467
sg30
S'W41-14'
p468
sg32
S'12'
p469
sg34
g69
sg36
S'NE'
p470
sg38
S'12'
p471
sg40
S'107'
p472
sg42
S'48'
p473
ssg256
(dp474
g5
S'11.0'
p475
sg7
S'--'
p476
sg9
g10
sg11
S'--'
p477
sg13
g69
sg14
g10
sg16
S'2014'
p478
sg18
g256
sg20
S'2.5'
p479
sg22
S'10/19'
p480
sg24
g10
sg26
S'Knile Davis'
p481
sg28
S'10'
p482
sg30
S'W23-20'
p483
sg32
S'11'
p484
sg34
g69
sg36
S'@SD'
p485
sg38
S'11'
p486
sg40
S'25'
p487
sg42
S'12'
p488
ssg119
(dp489
g5
g286
sg7
g286
sg9
g286
sg11
g286
sg13
g286
sg14
g286
sg16
S'2014'
p490
sg18
g119
sg20
g286
sg22
S'Bye'
p491
sg24
g286
sg26
S'Knile Davis'
p492
sg28
g286
sg30
g286
sg32
g286
sg34
g286
sg36
g286
sg38
g286
sg40
g286
sg42
g286
ssg221
(dp493
g5
S'--'
p494
sg7
S'--'
p495
sg9
g10
sg11
S'--'
p496
sg13
g69
sg14
S'--'
p497
sg16
S'2014'
p498
sg18
g221
sg20
S'3.0'
p499
sg22
S'11/02'
p500
sg24
g10
sg26
S'Knile Davis'
p501
sg28
g190
sg30
S'W24-10'
p502
sg32
S'--'
p503
sg34
S'--'
p504
sg36
S'NYJ'
p505
sg38
S'--'
p506
sg40
g221
sg42
g237
ssg284
(dp507
g5
S'--'
p508
sg7
S'--'
p509
sg9
g10
sg11
S'--'
p510
sg13
g69
sg14
g10
sg16
S'2014'
p511
sg18
g284
sg20
S'3.1'
p512
sg22
S'10/26'
p513
sg24
g69
sg26
S'Knile Davis'
p514
sg28
S'16'
p515
sg30
S'W34-7'
p516
sg32
g10
sg34
g10
sg36
S'STL'
p517
sg38
S'--'
p518
sg40
S'49'
p519
sg42
S'15'
p520
sssS'2013'
p521
(dp522
g3
(dp523
g5
S'11.0'
p524
sg7
S'--'
p525
sg9
g10
sg11
S'--'
p526
sg13
g69
sg14
g10
sg16
S'2013'
p527
sg18
S'11'
p528
sg20
S'4.3'
p529
sg22
S'11/17'
p530
sg24
g10
sg26
S'Knile Davis'
p531
sg28
g190
sg30
S'L17-27'
p532
sg32
S'11'
p533
sg34
g69
sg36
S'@DEN'
p534
sg38
S'11'
p535
sg40
S'13'
p536
sg42
g256
ssg44
(dp537
g5
g286
sg7
g286
sg9
g286
sg11
g286
sg13
g286
sg14
g286
sg16
S'2013'
p538
sg18
S'10'
p539
sg20
g286
sg22
S'Bye'
p540
sg24
g286
sg26
S'Knile Davis'
p541
sg28
g286
sg30
g286
sg32
g286
sg34
g286
sg36
g286
sg38
g286
sg40
g286
sg42
g286
ssg64
(dp542
g5
S'9.0'
p543
sg7
S'--'
p544
sg9
g10
sg11
S'--'
p545
sg13
g69
sg14
g10
sg16
S'2013'
p546
sg18
S'13'
p547
sg20
S'20.0'
p548
sg22
S'12/01'
p549
sg24
g10
sg26
S'Knile Davis'
p550
sg28
g69
sg30
S'L28-35'
p551
sg32
S'18'
p552
sg34
g209
sg36
S'DEN'
p553
sg38
S'13'
p554
sg40
S'20'
p555
sg42
S'20'
p556
ssg85
(dp557
g5
S'--'
p558
sg7
S'--'
p559
sg9
g10
sg11
S'--'
p560
sg13
g69
sg14
S'--'
p561
sg16
S'2013'
p562
sg18
S'12'
p563
sg20
S'3.0'
p564
sg22
S'11/24'
p565
sg24
g10
sg26
S'Knile Davis'
p566
sg28
g69
sg30
S'L38-41'
p567
sg32
S'--'
p568
sg34
S'--'
p569
sg36
S'SD'
p570
sg38
S'--'
p571
sg40
g190
sg42
g190
ssg101
(dp572
g5
S'4.0'
p573
sg7
S'--'
p574
sg9
g10
sg11
S'--'
p575
sg13
g69
sg14
g10
sg16
S'2013'
p576
sg18
S'15'
p577
sg20
S'3.8'
p578
sg22
S'12/15'
p579
sg24
g69
sg26
S'Knile Davis'
p580
sg28
g221
sg30
S'W56-31'
p581
sg32
g284
sg34
g209
sg36
S'@OAK'
p582
sg38
S'10'
p583
sg40
S'34'
p584
sg42
S'17T'
p585
ssg120
(dp586
g5
S'17.0'
p587
sg7
S'--'
p588
sg9
g10
sg11
S'--'
p589
sg13
g69
sg14
g10
sg16
S'2013'
p590
sg18
S'14'
p591
sg20
S'2.7'
p592
sg22
S'12/08'
p593
sg24
g69
sg26
S'Knile Davis'
p594
sg28
S'11'
p595
sg30
S'W45-10'
p596
sg32
S'17'
p597
sg34
g69
sg36
S'@WAS'
p598
sg38
S'17'
p599
sg40
S'30'
p600
sg42
S'17T'
p601
ssg136
(dp602
g5
S'2.5'
p603
sg7
S'--'
p604
sg9
g69
sg11
S'--'
p605
sg13
g69
sg14
g10
sg16
S'2013'
p606
sg18
S'17'
p607
sg20
S'3.0'
p608
sg22
S'12/29'
p609
sg24
g209
sg26
S'Knile Davis'
p610
sg28
S'27'
p611
sg30
S'L24-27'
p612
sg32
g112
sg34
g209
sg36
S'@SD'
p613
sg38
g119
sg40
S'81'
p614
sg42
S'18'
p615
ssg156
(dp616
g5
S'--'
p617
sg7
g209
sg9
g10
sg11
g69
sg13
g69
sg14
S'--'
p618
sg16
S'2013'
p619
sg18
S'16'
p620
sg20
S'2.0'
p621
sg22
S'12/22'
p622
sg24
g10
sg26
S'Knile Davis'
p623
sg28
g69
sg30
S'L7-23'
p624
sg32
S'--'
p625
sg34
S'--'
p626
sg36
S'IND'
p627
sg38
S'--'
p628
sg40
g209
sg42
g209
ssg69
(dp629
g5
S'5.0'
p630
sg7
S'--'
p631
sg9
g10
sg11
S'--'
p632
sg13
g69
sg14
g10
sg16
S'2013'
p633
sg18
g69
sg20
S'3.0'
p634
sg22
S'09/08'
p635
sg24
g10
sg26
S'Knile Davis'
p636
sg28
g237
sg30
S'W28-2'
p637
sg32
g112
sg34
g69
sg36
S'@JAC'
p638
sg38
g112
sg40
S'12'
p639
sg42
g237
ssg190
(dp640
g5
S'--'
p641
sg7
S'--'
p642
sg9
g10
sg11
S'--'
p643
sg13
g69
sg14
S'--'
p644
sg16
S'2013'
p645
sg18
g190
sg20
S'4.2'
p646
sg22
S'09/19'
p647
sg24
g10
sg26
S'Knile Davis'
p648
sg28
g119
sg30
S'W26-16'
p649
sg32
S'--'
p650
sg34
S'--'
p651
sg36
S'@PHI'
p652
sg38
S'--'
p653
sg40
S'25'
p654
sg42
S'12'
p655
ssg209
(dp656
g5
S'--'
p657
sg7
S'--'
p658
sg9
g10
sg11
S'--'
p659
sg13
g69
sg14
S'--'
p660
sg16
S'2013'
p661
sg18
g209
sg20
S'--'
p662
sg22
S'09/15'
p663
sg24
S'--'
p664
sg26
S'Knile Davis'
p665
sg28
S'--'
p666
sg30
S'W17-16'
p667
sg32
S'--'
p668
sg34
S'--'
p669
sg36
S'DAL'
p670
sg38
S'--'
p671
sg40
S'--'
p672
sg42
S'--'
p673
ssg112
(dp674
g5
S'--'
p675
sg7
S'--'
p676
sg9
g10
sg11
S'--'
p677
sg13
g69
sg14
g10
sg16
S'2013'
p678
sg18
g112
sg20
S'2.0'
p679
sg22
S'10/06'
p680
sg24
g10
sg26
S'Knile Davis'
p681
sg28
g69
sg30
S'W26-17'
p682
sg32
g10
sg34
g10
sg36
S'@TEN'
p683
sg38
S'--'
p684
sg40
g209
sg42
g209
ssg237
(dp685
g5
S'--'
p686
sg7
S'--'
p687
sg9
g10
sg11
S'--'
p688
sg13
g69
sg14
S'--'
p689
sg16
S'2013'
p690
sg18
g237
sg20
S'2.0'
p691
sg22
S'09/29'
p692
sg24
g10
sg26
S'Knile Davis'
p693
sg28
g69
sg30
S'W31-7'
p694
sg32
S'--'
p695
sg34
S'--'
p696
sg36
S'NYG'
p697
sg38
S'--'
p698
sg40
g209
sg42
g209
ssg256
(dp699
g5
S'--'
p700
sg7
S'--'
p701
sg9
g10
sg11
S'--'
p702
sg13
g69
sg14
S'--'
p703
sg16
S'2013'
p704
sg18
g256
sg20
S'2.5'
p705
sg22
S'10/20'
p706
sg24
g10
sg26
S'Knile Davis'
p707
sg28
g209
sg30
S'W17-16'
p708
sg32
S'--'
p709
sg34
S'--'
p710
sg36
S'HOU'
p711
sg38
S'--'
p712
sg40
g112
sg42
g190
ssg119
(dp713
g5
S'-1.0'
p714
sg7
g69
sg9
g10
sg11
g10
sg13
g69
sg14
g10
sg16
S'2013'
p715
sg18
g119
sg20
S'--'
p716
sg22
S'10/13'
p717
sg24
S'--'
p718
sg26
S'Knile Davis'
p719
sg28
S'--'
p720
sg30
S'W24-7'
p721
sg32
S'-1'
p722
sg34
g69
sg36
S'OAK'
p723
sg38
S'-1'
p724
sg40
S'--'
p725
sg42
S'--'
p726
ssg221
(dp727
g5
S'--'
p728
sg7
S'--'
p729
sg9
g10
sg11
S'--'
p730
sg13
g69
sg14
S'--'
p731
sg16
S'2013'
p732
sg18
g221
sg20
S'--'
p733
sg22
S'11/03'
p734
sg24
S'--'
p735
sg26
S'Knile Davis'
p736
sg28
S'--'
p737
sg30
S'W23-13'
p738
sg32
S'--'
p739
sg34
S'--'
p740
sg36
S'@BUF'
p741
sg38
S'--'
p742
sg40
S'--'
p743
sg42
S'--'
p744
ssg284
(dp745
g5
S'12.0'
p746
sg7
S'--'
p747
sg9
g10
sg11
S'--'
p748
sg13
g69
sg14
g10
sg16
S'2013'
p749
sg18
g284
sg20
S'4.3'
p750
sg22
S'10/27'
p751
sg24
g10
sg26
S'Knile Davis'
p752
sg28
g190
sg30
S'W23-17'
p753
sg32
S'12'
p754
sg34
g69
sg36
S'CLE'
p755
sg38
S'12'
p756
sg40
S'13'
p757
sg42
g221
sss.