(dp0
S'2015'
p1
(dp2
S'11'
p3
(dp4
S'RecAvg'
p5
S'3.3'
p6
sS'FUM'
p7
S'--'
p8
sS'GS'
p9
S'1'
p10
sS'Lost'
p11
S'--'
p12
sS'G'
p13
g10
sS'RecTD'
p14
S'0'
p15
sS'Year'
p16
S'2015'
p17
sS'WK'
p18
S'11'
p19
sS'RushAvg'
p20
S'1.5'
p21
sS'Game Date'
p22
S'11/22'
p23
sS'RushTD'
p24
g15
sS'Player'
p25
S'Kyle Juszczyk'
p26
sS'RushAtt'
p27
S'2'
p28
sS'Result'
p29
S'W16-13'
p30
sS'RecYds'
p31
S'10'
p32
sS'Rec'
p33
S'3'
p34
sS'Opp'
p35
S'STL'
p36
sS'RecLng'
p37
S'7'
p38
sS'RushYds'
p39
g34
sS'RushLng'
p40
g28
ssS'10'
p41
(dp42
g5
S'9.4'
p43
sg7
S'--'
p44
sg9
g15
sg11
S'--'
p45
sg13
g10
sg14
g15
sg16
S'2015'
p46
sg18
S'10'
p47
sg20
S'--'
p48
sg22
S'11/15'
p49
sg24
S'--'
p50
sg25
S'Kyle Juszczyk'
p51
sg27
S'--'
p52
sg29
S'L20-22'
p53
sg31
S'47'
p54
sg33
S'5'
p55
sg35
S'JAC'
p56
sg37
S'22'
p57
sg39
S'--'
p58
sg40
S'--'
p59
ssS'13'
p60
(dp61
g5
S'-2.0'
p62
sg7
S'--'
p63
sg9
g10
sg11
S'--'
p64
sg13
g10
sg14
g15
sg16
S'2015'
p65
sg18
S'13'
p66
sg20
S'--'
p67
sg22
S'12/06'
p68
sg24
S'--'
p69
sg25
S'Kyle Juszczyk'
p70
sg27
S'--'
p71
sg29
S'L13-15'
p72
sg31
S'-2'
p73
sg33
g10
sg35
S'@MIA'
p74
sg37
S'-2'
p75
sg39
S'--'
p76
sg40
S'--'
p77
ssS'12'
p78
(dp79
g5
S'9.0'
p80
sg7
S'--'
p81
sg9
g10
sg11
S'--'
p82
sg13
g10
sg14
g15
sg16
S'2015'
p83
sg18
S'12'
p84
sg20
S'--'
p85
sg22
S'11/30'
p86
sg24
S'--'
p87
sg25
S'Kyle Juszczyk'
p88
sg27
S'--'
p89
sg29
S'W33-27'
p90
sg31
S'18'
p91
sg33
g28
sg35
S'@CLE'
p92
sg37
S'15'
p93
sg39
S'--'
p94
sg40
S'--'
p95
ssS'15'
p96
(dp97
g5
S'5.2'
p98
sg7
S'--'
p99
sg9
g10
sg11
S'--'
p100
sg13
g10
sg14
g10
sg16
S'2015'
p101
sg18
S'15'
p102
sg20
S'--'
p103
sg22
S'12/20'
p104
sg24
S'--'
p105
sg25
S'Kyle Juszczyk'
p106
sg27
S'--'
p107
sg29
S'L14-34'
p108
sg31
S'26'
p109
sg33
g55
sg35
S'KC'
p110
sg37
S'11'
p111
sg39
S'--'
p112
sg40
S'--'
p113
ssS'14'
p114
(dp115
g5
S'--'
p116
sg7
S'--'
p117
sg9
g10
sg11
S'--'
p118
sg13
g10
sg14
g15
sg16
S'2015'
p119
sg18
S'14'
p120
sg20
S'--'
p121
sg22
S'12/13'
p122
sg24
S'--'
p123
sg25
S'Kyle Juszczyk'
p124
sg27
S'--'
p125
sg29
S'L6-35'
p126
sg31
g15
sg33
g15
sg35
S'SEA'
p127
sg37
S'--'
p128
sg39
S'--'
p129
sg40
S'--'
p130
ssS'17'
p131
(dp132
g5
S'9.0'
p133
sg7
S'--'
p134
sg9
g10
sg11
S'--'
p135
sg13
g10
sg14
g10
sg16
S'2015'
p136
sg18
S'17'
p137
sg20
S'--'
p138
sg22
S'01/03'
p139
sg24
S'--'
p140
sg25
S'Kyle Juszczyk'
p141
sg27
S'--'
p142
sg29
S'L16-24'
p143
sg31
S'18'
p144
sg33
g28
sg35
S'@CIN'
p145
sg37
S'16'
p146
sg39
S'--'
p147
sg40
S'--'
p148
ssS'16'
p149
(dp150
g5
S'11.0'
p151
sg7
S'--'
p152
sg9
g15
sg11
S'--'
p153
sg13
g10
sg14
g15
sg16
S'2015'
p154
sg18
S'16'
p155
sg20
S'--'
p156
sg22
S'12/27'
p157
sg24
S'--'
p158
sg25
S'Kyle Juszczyk'
p159
sg27
S'--'
p160
sg29
S'W20-17'
p161
sg31
S'55'
p162
sg33
g55
sg35
S'PIT'
p163
sg37
S'34'
p164
sg39
S'--'
p165
sg40
S'--'
p166
ssg10
(dp167
g5
S'4.3'
p168
sg7
S'--'
p169
sg9
g10
sg11
S'--'
p170
sg13
g10
sg14
g15
sg16
S'2015'
p171
sg18
g10
sg20
S'--'
p172
sg22
S'09/13'
p173
sg24
S'--'
p174
sg25
S'Kyle Juszczyk'
p175
sg27
S'--'
p176
sg29
S'L13-19'
p177
sg31
S'17'
p178
sg33
S'4'
p179
sg35
S'@DEN'
p180
sg37
S'9'
p181
sg39
S'--'
p182
sg40
S'--'
p183
ssg34
(dp184
g5
S'5.5'
p185
sg7
S'--'
p186
sg9
g10
sg11
S'--'
p187
sg13
g10
sg14
g15
sg16
S'2015'
p188
sg18
g34
sg20
S'--'
p189
sg22
S'09/27'
p190
sg24
S'--'
p191
sg25
S'Kyle Juszczyk'
p192
sg27
S'--'
p193
sg29
S'L24-28'
p194
sg31
S'11'
p195
sg33
g28
sg35
S'CIN'
p196
sg37
g181
sg39
S'--'
p197
sg40
S'--'
p198
ssg28
(dp199
g5
S'11.0'
p200
sg7
S'--'
p201
sg9
g15
sg11
S'--'
p202
sg13
g10
sg14
g15
sg16
S'2015'
p203
sg18
g28
sg20
S'--'
p204
sg22
S'09/20'
p205
sg24
S'--'
p206
sg25
S'Kyle Juszczyk'
p207
sg27
S'--'
p208
sg29
S'L33-37'
p209
sg31
S'11'
p210
sg33
g10
sg35
S'@OAK'
p211
sg37
S'11'
p212
sg39
S'--'
p213
sg40
S'--'
p214
ssg55
(dp215
g5
S'10.3'
p216
sg7
S'--'
p217
sg9
g15
sg11
S'--'
p218
sg13
g10
sg14
g10
sg16
S'2015'
p219
sg18
g55
sg20
S'--'
p220
sg22
S'10/11'
p221
sg24
S'--'
p222
sg25
S'Kyle Juszczyk'
p223
sg27
S'--'
p224
sg29
S'L30-33'
p225
sg31
S'31'
p226
sg33
g34
sg35
S'CLE'
p227
sg37
S'15'
p228
sg39
S'--'
p229
sg40
S'--'
p230
ssg179
(dp231
g5
S'3.0'
p232
sg7
S'--'
p233
sg9
g15
sg11
S'--'
p234
sg13
g10
sg14
g15
sg16
S'2015'
p235
sg18
g179
sg20
S'--'
p236
sg22
S'10/01'
p237
sg24
S'--'
p238
sg25
S'Kyle Juszczyk'
p239
sg27
S'--'
p240
sg29
S'W23-20'
p241
sg31
g34
sg33
g10
sg35
S'@PIT'
p242
sg37
g34
sg39
S'--'
p243
sg40
S'--'
p244
ssg38
(dp245
g5
S'3.8'
p246
sg7
S'--'
p247
sg9
g10
sg11
S'--'
p248
sg13
g10
sg14
g10
sg16
S'2015'
p249
sg18
g38
sg20
S'--'
p250
sg22
S'10/26'
p251
sg24
S'--'
p252
sg25
S'Kyle Juszczyk'
p253
sg27
S'--'
p254
sg29
S'L18-26'
p255
sg31
S'15'
p256
sg33
g179
sg35
S'@ARI'
p257
sg37
S'11'
p258
sg39
S'--'
p259
sg40
S'--'
p260
ssS'6'
p261
(dp262
g5
S'11.0'
p263
sg7
S'--'
p264
sg9
g10
sg11
S'--'
p265
sg13
g10
sg14
g15
sg16
S'2015'
p266
sg18
g261
sg20
S'--'
p267
sg22
S'10/18'
p268
sg24
S'--'
p269
sg25
S'Kyle Juszczyk'
p270
sg27
S'--'
p271
sg29
S'L20-25'
p272
sg31
S'22'
p273
sg33
g28
sg35
S'@SF'
p274
sg37
S'17'
p275
sg39
S'--'
p276
sg40
S'--'
p277
ssg181
(dp278
g5
S''
p279
sg7
g279
sg9
g279
sg11
g279
sg13
g279
sg14
g279
sg16
S'2015'
p280
sg18
g181
sg20
g279
sg22
S'Bye'
p281
sg24
g279
sg25
S'Kyle Juszczyk'
p282
sg27
g279
sg29
g279
sg31
g279
sg33
g279
sg35
g279
sg37
g279
sg39
g279
sg40
g279
ssS'8'
p283
(dp284
g5
S'39.0'
p285
sg7
S'--'
p286
sg9
g10
sg11
S'--'
p287
sg13
g10
sg14
g15
sg16
S'2015'
p288
sg18
g283
sg20
S'--'
p289
sg22
S'11/01'
p290
sg24
S'--'
p291
sg25
S'Kyle Juszczyk'
p292
sg27
S'--'
p293
sg29
S'W29-26'
p294
sg31
S'39'
p295
sg33
g10
sg35
S'SD'
p296
sg37
S'39'
p297
sg39
S'--'
p298
sg40
S'--'
p299
sssS'2014'
p300
(dp301
g3
(dp302
g5
g279
sg7
g279
sg9
g279
sg11
g279
sg13
g279
sg14
g279
sg16
S'2014'
p303
sg18
S'11'
p304
sg20
g279
sg22
S'Bye'
p305
sg24
g279
sg25
S'Kyle Juszczyk'
p306
sg27
g279
sg29
g279
sg31
g279
sg33
g279
sg35
g279
sg37
g279
sg39
g279
sg40
g279
ssg41
(dp307
g5
S'8.7'
p308
sg7
S'--'
p309
sg9
g10
sg11
S'--'
p310
sg13
g10
sg14
g15
sg16
S'2014'
p311
sg18
S'10'
p312
sg20
S'--'
p313
sg22
S'11/09'
p314
sg24
S'--'
p315
sg25
S'Kyle Juszczyk'
p316
sg27
S'--'
p317
sg29
S'W21-7'
p318
sg31
S'26'
p319
sg33
g34
sg35
S'TEN'
p320
sg37
S'16'
p321
sg39
S'--'
p322
sg40
S'--'
p323
ssg60
(dp324
g5
S'--'
p325
sg7
S'--'
p326
sg9
g10
sg11
S'--'
p327
sg13
g10
sg14
g15
sg16
S'2014'
p328
sg18
S'13'
p329
sg20
S'--'
p330
sg22
S'11/30'
p331
sg24
S'--'
p332
sg25
S'Kyle Juszczyk'
p333
sg27
S'--'
p334
sg29
S'L33-34'
p335
sg31
g15
sg33
g15
sg35
S'SD'
p336
sg37
S'--'
p337
sg39
S'--'
p338
sg40
S'--'
p339
ssg78
(dp340
g5
S'7.0'
p341
sg7
g10
sg9
g10
sg11
g10
sg13
g10
sg14
g15
sg16
S'2014'
p342
sg18
S'12'
p343
sg20
S'--'
p344
sg22
S'11/24'
p345
sg24
S'--'
p346
sg25
S'Kyle Juszczyk'
p347
sg27
S'--'
p348
sg29
S'W34-27'
p349
sg31
S'21'
p350
sg33
g34
sg35
S'@NO'
p351
sg37
g283
sg39
S'--'
p352
sg40
S'--'
p353
ssg96
(dp354
g5
S'4.0'
p355
sg7
g10
sg9
g10
sg11
g10
sg13
g10
sg14
g15
sg16
S'2014'
p356
sg18
S'15'
p357
sg20
S'--'
p358
sg22
S'12/14'
p359
sg24
S'--'
p360
sg25
S'Kyle Juszczyk'
p361
sg27
S'--'
p362
sg29
S'W20-12'
p363
sg31
g179
sg33
g10
sg35
S'JAC'
p364
sg37
g179
sg39
S'--'
p365
sg40
S'--'
p366
ssg114
(dp367
g5
S'1.5'
p368
sg7
S'--'
p369
sg9
g15
sg11
S'--'
p370
sg13
g10
sg14
g15
sg16
S'2014'
p371
sg18
S'14'
p372
sg20
S'--'
p373
sg22
S'12/07'
p374
sg24
S'--'
p375
sg25
S'Kyle Juszczyk'
p376
sg27
S'--'
p377
sg29
S'W28-13'
p378
sg31
g34
sg33
g28
sg35
S'@MIA'
p379
sg37
g283
sg39
S'--'
p380
sg40
S'--'
p381
ssg131
(dp382
g5
S'--'
p383
sg7
S'--'
p384
sg9
g10
sg11
S'--'
p385
sg13
g10
sg14
S'--'
p386
sg16
S'2014'
p387
sg18
S'17'
p388
sg20
S'--'
p389
sg22
S'12/28'
p390
sg24
S'--'
p391
sg25
S'Kyle Juszczyk'
p392
sg27
S'--'
p393
sg29
S'W20-10'
p394
sg31
S'--'
p395
sg33
S'--'
p396
sg35
S'CLE'
p397
sg37
S'--'
p398
sg39
S'--'
p399
sg40
S'--'
p400
ssg149
(dp401
g5
S'--'
p402
sg7
S'--'
p403
sg9
g10
sg11
S'--'
p404
sg13
g10
sg14
S'--'
p405
sg16
S'2014'
p406
sg18
S'16'
p407
sg20
S'--'
p408
sg22
S'12/21'
p409
sg24
S'--'
p410
sg25
S'Kyle Juszczyk'
p411
sg27
S'--'
p412
sg29
S'L13-25'
p413
sg31
S'--'
p414
sg33
S'--'
p415
sg35
S'@HOU'
p416
sg37
S'--'
p417
sg39
S'--'
p418
sg40
S'--'
p419
ssg10
(dp420
g5
S'--'
p421
sg7
S'--'
p422
sg9
g10
sg11
S'--'
p423
sg13
g10
sg14
g15
sg16
S'2014'
p424
sg18
g10
sg20
S'--'
p425
sg22
S'09/07'
p426
sg24
S'--'
p427
sg25
S'Kyle Juszczyk'
p428
sg27
S'--'
p429
sg29
S'L16-23'
p430
sg31
g15
sg33
g15
sg35
S'CIN'
p431
sg37
S'--'
p432
sg39
S'--'
p433
sg40
S'--'
p434
ssg34
(dp435
g5
S'18.0'
p436
sg7
S'--'
p437
sg9
g10
sg11
S'--'
p438
sg13
g10
sg14
g10
sg16
S'2014'
p439
sg18
g34
sg20
S'--'
p440
sg22
S'09/21'
p441
sg24
S'--'
p442
sg25
S'Kyle Juszczyk'
p443
sg27
S'--'
p444
sg29
S'W23-21'
p445
sg31
S'54'
p446
sg33
g34
sg35
S'@CLE'
p447
sg37
S'33'
p448
sg39
S'--'
p449
sg40
S'--'
p450
ssg28
(dp451
g5
S'--'
p452
sg7
S'--'
p453
sg9
g15
sg11
S'--'
p454
sg13
g10
sg14
S'--'
p455
sg16
S'2014'
p456
sg18
g28
sg20
S'--'
p457
sg22
S'09/11'
p458
sg24
S'--'
p459
sg25
S'Kyle Juszczyk'
p460
sg27
S'--'
p461
sg29
S'W26-6'
p462
sg31
S'--'
p463
sg33
S'--'
p464
sg35
S'PIT'
p465
sg37
S'--'
p466
sg39
S'--'
p467
sg40
S'--'
p468
ssg55
(dp469
g5
S'--'
p470
sg7
S'--'
p471
sg9
g10
sg11
S'--'
p472
sg13
g10
sg14
g15
sg16
S'2014'
p473
sg18
g55
sg20
S'--'
p474
sg22
S'10/05'
p475
sg24
S'--'
p476
sg25
S'Kyle Juszczyk'
p477
sg27
S'--'
p478
sg29
S'L13-20'
p479
sg31
g15
sg33
g15
sg35
S'@IND'
p480
sg37
S'--'
p481
sg39
S'--'
p482
sg40
S'--'
p483
ssg179
(dp484
g5
S'4.0'
p485
sg7
S'--'
p486
sg9
g10
sg11
S'--'
p487
sg13
g10
sg14
g15
sg16
S'2014'
p488
sg18
g179
sg20
S'--'
p489
sg22
S'09/28'
p490
sg24
S'--'
p491
sg25
S'Kyle Juszczyk'
p492
sg27
S'--'
p493
sg29
S'W38-10'
p494
sg31
g283
sg33
g28
sg35
S'CAR'
p495
sg37
g261
sg39
S'--'
p496
sg40
S'--'
p497
ssg38
(dp498
g5
S'4.0'
p499
sg7
S'--'
p500
sg9
g10
sg11
S'--'
p501
sg13
g10
sg14
g15
sg16
S'2014'
p502
sg18
g38
sg20
S'--'
p503
sg22
S'10/19'
p504
sg24
S'--'
p505
sg25
S'Kyle Juszczyk'
p506
sg27
S'--'
p507
sg29
S'W29-7'
p508
sg31
g179
sg33
g10
sg35
S'ATL'
p509
sg37
g179
sg39
S'--'
p510
sg40
S'--'
p511
ssg261
(dp512
g5
S'14.5'
p513
sg7
S'--'
p514
sg9
g10
sg11
S'--'
p515
sg13
g10
sg14
g15
sg16
S'2014'
p516
sg18
g261
sg20
S'--'
p517
sg22
S'10/12'
p518
sg24
S'--'
p519
sg25
S'Kyle Juszczyk'
p520
sg27
S'--'
p521
sg29
S'W48-17'
p522
sg31
S'29'
p523
sg33
g28
sg35
S'@TB'
p524
sg37
S'18'
p525
sg39
S'--'
p526
sg40
S'--'
p527
ssg181
(dp528
g5
S'12.0'
p529
sg7
S'--'
p530
sg9
g10
sg11
S'--'
p531
sg13
g10
sg14
g15
sg16
S'2014'
p532
sg18
g181
sg20
S'--'
p533
sg22
S'11/02'
p534
sg24
S'--'
p535
sg25
S'Kyle Juszczyk'
p536
sg27
S'--'
p537
sg29
S'L23-43'
p538
sg31
S'12'
p539
sg33
g10
sg35
S'@PIT'
p540
sg37
S'12'
p541
sg39
S'--'
p542
sg40
S'--'
p543
ssg283
(dp544
g5
S'21.0'
p545
sg7
S'--'
p546
sg9
g10
sg11
S'--'
p547
sg13
g10
sg14
g15
sg16
S'2014'
p548
sg18
g283
sg20
S'--'
p549
sg22
S'10/26'
p550
sg24
S'--'
p551
sg25
S'Kyle Juszczyk'
p552
sg27
S'--'
p553
sg29
S'L24-27'
p554
sg31
S'21'
p555
sg33
g10
sg35
S'@CIN'
p556
sg37
S'21'
p557
sg39
S'--'
p558
sg40
S'--'
p559
sssS'2013'
p560
(dp561
g3
(dp562
g5
S'--'
p563
sg7
S'--'
p564
sg9
g15
sg11
S'--'
p565
sg13
g10
sg14
S'--'
p566
sg16
S'2013'
p567
sg18
S'11'
p568
sg20
S'--'
p569
sg22
S'11/17'
p570
sg24
S'--'
p571
sg25
S'Kyle Juszczyk'
p572
sg27
S'--'
p573
sg29
S'L20-23'
p574
sg31
S'--'
p575
sg33
S'--'
p576
sg35
S'@CHI'
p577
sg37
S'--'
p578
sg39
S'--'
p579
sg40
S'--'
p580
ssg41
(dp581
g5
S'--'
p582
sg7
S'--'
p583
sg9
g15
sg11
S'--'
p584
sg13
g10
sg14
S'--'
p585
sg16
S'2013'
p586
sg18
S'10'
p587
sg20
S'--'
p588
sg22
S'11/10'
p589
sg24
S'--'
p590
sg25
S'Kyle Juszczyk'
p591
sg27
S'--'
p592
sg29
S'W20-17'
p593
sg31
S'--'
p594
sg33
S'--'
p595
sg35
S'CIN'
p596
sg37
S'--'
p597
sg39
S'--'
p598
sg40
S'--'
p599
ssg60
(dp600
g5
S'--'
p601
sg7
S'--'
p602
sg9
g15
sg11
S'--'
p603
sg13
g10
sg14
S'--'
p604
sg16
S'2013'
p605
sg18
S'13'
p606
sg20
S'--'
p607
sg22
S'11/28'
p608
sg24
S'--'
p609
sg25
S'Kyle Juszczyk'
p610
sg27
S'--'
p611
sg29
S'W22-20'
p612
sg31
S'--'
p613
sg33
S'--'
p614
sg35
S'PIT'
p615
sg37
S'--'
p616
sg39
S'--'
p617
sg40
S'--'
p618
ssg78
(dp619
g5
S'--'
p620
sg7
S'--'
p621
sg9
g15
sg11
S'--'
p622
sg13
g10
sg14
S'--'
p623
sg16
S'2013'
p624
sg18
S'12'
p625
sg20
S'--'
p626
sg22
S'11/24'
p627
sg24
S'--'
p628
sg25
S'Kyle Juszczyk'
p629
sg27
S'--'
p630
sg29
S'W19-3'
p631
sg31
S'--'
p632
sg33
S'--'
p633
sg35
S'NYJ'
p634
sg37
S'--'
p635
sg39
S'--'
p636
sg40
S'--'
p637
ssg96
(dp638
g5
S'--'
p639
sg7
S'--'
p640
sg9
g15
sg11
S'--'
p641
sg13
g10
sg14
S'--'
p642
sg16
S'2013'
p643
sg18
S'15'
p644
sg20
S'--'
p645
sg22
S'12/16'
p646
sg24
S'--'
p647
sg25
S'Kyle Juszczyk'
p648
sg27
S'--'
p649
sg29
S'W18-16'
p650
sg31
S'--'
p651
sg33
S'--'
p652
sg35
S'@DET'
p653
sg37
S'--'
p654
sg39
S'--'
p655
sg40
S'--'
p656
ssg114
(dp657
g5
S'--'
p658
sg7
S'--'
p659
sg9
g15
sg11
S'--'
p660
sg13
g10
sg14
S'--'
p661
sg16
S'2013'
p662
sg18
S'14'
p663
sg20
S'--'
p664
sg22
S'12/08'
p665
sg24
S'--'
p666
sg25
S'Kyle Juszczyk'
p667
sg27
S'--'
p668
sg29
S'W29-26'
p669
sg31
S'--'
p670
sg33
S'--'
p671
sg35
S'MIN'
p672
sg37
S'--'
p673
sg39
S'--'
p674
sg40
S'--'
p675
ssg131
(dp676
g5
S'--'
p677
sg7
S'--'
p678
sg9
g15
sg11
S'--'
p679
sg13
g10
sg14
S'--'
p680
sg16
S'2013'
p681
sg18
S'17'
p682
sg20
S'--'
p683
sg22
S'12/29'
p684
sg24
S'--'
p685
sg25
S'Kyle Juszczyk'
p686
sg27
S'--'
p687
sg29
S'L17-34'
p688
sg31
S'--'
p689
sg33
S'--'
p690
sg35
S'@CIN'
p691
sg37
S'--'
p692
sg39
S'--'
p693
sg40
S'--'
p694
ssg149
(dp695
g5
S'--'
p696
sg7
S'--'
p697
sg9
g15
sg11
S'--'
p698
sg13
g10
sg14
S'--'
p699
sg16
S'2013'
p700
sg18
S'16'
p701
sg20
S'--'
p702
sg22
S'12/22'
p703
sg24
S'--'
p704
sg25
S'Kyle Juszczyk'
p705
sg27
S'--'
p706
sg29
S'L7-41'
p707
sg31
S'--'
p708
sg33
S'--'
p709
sg35
S'NE'
p710
sg37
S'--'
p711
sg39
S'--'
p712
sg40
S'--'
p713
ssg10
(dp714
g5
S'--'
p715
sg7
S'--'
p716
sg9
g15
sg11
S'--'
p717
sg13
g10
sg14
S'--'
p718
sg16
S'2013'
p719
sg18
g10
sg20
S'--'
p720
sg22
S'09/05'
p721
sg24
S'--'
p722
sg25
S'Kyle Juszczyk'
p723
sg27
S'--'
p724
sg29
S'L27-49'
p725
sg31
S'--'
p726
sg33
S'--'
p727
sg35
S'@DEN'
p728
sg37
S'--'
p729
sg39
S'--'
p730
sg40
S'--'
p731
ssg34
(dp732
g5
S'--'
p733
sg7
S'--'
p734
sg9
g15
sg11
S'--'
p735
sg13
g10
sg14
S'--'
p736
sg16
S'2013'
p737
sg18
g34
sg20
S'--'
p738
sg22
S'09/22'
p739
sg24
S'--'
p740
sg25
S'Kyle Juszczyk'
p741
sg27
S'--'
p742
sg29
S'W30-9'
p743
sg31
S'--'
p744
sg33
S'--'
p745
sg35
S'HOU'
p746
sg37
S'--'
p747
sg39
S'--'
p748
sg40
S'--'
p749
ssg28
(dp750
g5
S'--'
p751
sg7
S'--'
p752
sg9
g15
sg11
S'--'
p753
sg13
g10
sg14
S'--'
p754
sg16
S'2013'
p755
sg18
g28
sg20
S'--'
p756
sg22
S'09/15'
p757
sg24
S'--'
p758
sg25
S'Kyle Juszczyk'
p759
sg27
S'--'
p760
sg29
S'W14-6'
p761
sg31
S'--'
p762
sg33
S'--'
p763
sg35
S'CLE'
p764
sg37
S'--'
p765
sg39
S'--'
p766
sg40
S'--'
p767
ssg55
(dp768
g5
S'--'
p769
sg7
S'--'
p770
sg9
g15
sg11
S'--'
p771
sg13
g10
sg14
g15
sg16
S'2013'
p772
sg18
g55
sg20
S'--'
p773
sg22
S'10/06'
p774
sg24
S'--'
p775
sg25
S'Kyle Juszczyk'
p776
sg27
S'--'
p777
sg29
S'W26-23'
p778
sg31
g15
sg33
g15
sg35
S'@MIA'
p779
sg37
S'--'
p780
sg39
S'--'
p781
sg40
S'--'
p782
ssg179
(dp783
g5
S'--'
p784
sg7
S'--'
p785
sg9
g15
sg11
S'--'
p786
sg13
g10
sg14
S'--'
p787
sg16
S'2013'
p788
sg18
g179
sg20
S'--'
p789
sg22
S'09/29'
p790
sg24
S'--'
p791
sg25
S'Kyle Juszczyk'
p792
sg27
S'--'
p793
sg29
S'L20-23'
p794
sg31
S'--'
p795
sg33
S'--'
p796
sg35
S'@BUF'
p797
sg37
S'--'
p798
sg39
S'--'
p799
sg40
S'--'
p800
ssg38
(dp801
g5
S'--'
p802
sg7
S'--'
p803
sg9
g15
sg11
S'--'
p804
sg13
g10
sg14
S'--'
p805
sg16
S'2013'
p806
sg18
g38
sg20
S'--'
p807
sg22
S'10/20'
p808
sg24
S'--'
p809
sg25
S'Kyle Juszczyk'
p810
sg27
S'--'
p811
sg29
S'L16-19'
p812
sg31
S'--'
p813
sg33
S'--'
p814
sg35
S'@PIT'
p815
sg37
S'--'
p816
sg39
S'--'
p817
sg40
S'--'
p818
ssg261
(dp819
g5
S'--'
p820
sg7
S'--'
p821
sg9
g15
sg11
S'--'
p822
sg13
g10
sg14
S'--'
p823
sg16
S'2013'
p824
sg18
g261
sg20
S'--'
p825
sg22
S'10/13'
p826
sg24
S'--'
p827
sg25
S'Kyle Juszczyk'
p828
sg27
S'--'
p829
sg29
S'L17-19'
p830
sg31
S'--'
p831
sg33
S'--'
p832
sg35
S'GB'
p833
sg37
S'--'
p834
sg39
S'--'
p835
sg40
S'--'
p836
ssg181
(dp837
g5
S'--'
p838
sg7
S'--'
p839
sg9
g15
sg11
S'--'
p840
sg13
g10
sg14
S'--'
p841
sg16
S'2013'
p842
sg18
g181
sg20
S'--'
p843
sg22
S'11/03'
p844
sg24
S'--'
p845
sg25
S'Kyle Juszczyk'
p846
sg27
S'--'
p847
sg29
S'L18-24'
p848
sg31
S'--'
p849
sg33
S'--'
p850
sg35
S'@CLE'
p851
sg37
S'--'
p852
sg39
S'--'
p853
sg40
S'--'
p854
ssg283
(dp855
g5
g279
sg7
g279
sg9
g279
sg11
g279
sg13
g279
sg14
g279
sg16
S'2013'
p856
sg18
g283
sg20
g279
sg22
S'Bye'
p857
sg24
g279
sg25
S'Kyle Juszczyk'
p858
sg27
g279
sg29
g279
sg31
g279
sg33
g279
sg35
g279
sg37
g279
sg39
g279
sg40
g279
sss.