(dp0
S'2015'
p1
(dp2
S'11'
p3
(dp4
S'RecAvg'
p5
S'5.5'
p6
sS'FUM'
p7
S'--'
p8
sS'GS'
p9
S'1'
p10
sS'Lost'
p11
S'--'
p12
sS'G'
p13
g10
sS'RecTD'
p14
S'0'
p15
sS'Year'
p16
S'2015'
p17
sS'WK'
p18
S'11'
p19
sS'RushAvg'
p20
S'6.3'
p21
sS'Game Date'
p22
S'11/22'
p23
sS'RushTD'
p24
g15
sS'Player'
p25
S'Lamar Miller'
p26
sS'RushAtt'
p27
S'7'
p28
sS'Result'
p29
S'L14-24'
p30
sS'RecYds'
p31
S'11'
p32
sS'Rec'
p33
S'2'
p34
sS'Opp'
p35
S'DAL'
p36
sS'RecLng'
p37
S'11'
p38
sS'RushYds'
p39
S'44'
p40
sS'RushLng'
p41
S'16'
p42
ssS'10'
p43
(dp44
g5
S'8.3'
p45
sg7
S'--'
p46
sg9
g10
sg11
S'--'
p47
sg13
g10
sg14
g10
sg16
S'2015'
p48
sg18
S'10'
p49
sg20
S'2.7'
p50
sg22
S'11/15'
p51
sg24
g15
sg25
S'Lamar Miller'
p52
sg27
S'16'
p53
sg29
S'W20-19'
p54
sg31
S'50'
p55
sg33
S'6'
p56
sg35
S'@PHI'
p57
sg37
S'35'
p58
sg39
S'43'
p59
sg41
S'11'
p60
ssS'13'
p61
(dp62
g5
S'5.0'
p63
sg7
g10
sg9
g10
sg11
g10
sg13
g10
sg14
g15
sg16
S'2015'
p64
sg18
S'13'
p65
sg20
S'5.6'
p66
sg22
S'12/06'
p67
sg24
g15
sg25
S'Lamar Miller'
p68
sg27
S'20'
p69
sg29
S'W15-13'
p70
sg31
S'5'
p71
sg33
g10
sg35
S'BAL'
p72
sg37
g71
sg39
S'113'
p73
sg41
S'22'
p74
ssS'12'
p75
(dp76
g5
S'3.7'
p77
sg7
S'--'
p78
sg9
g10
sg11
S'--'
p79
sg13
g10
sg14
g15
sg16
S'2015'
p80
sg18
S'12'
p81
sg20
S'0.4'
p82
sg22
S'11/29'
p83
sg24
g15
sg25
S'Lamar Miller'
p84
sg27
g71
sg29
S'L20-38'
p85
sg31
S'11'
p86
sg33
S'3'
p87
sg35
S'@NYJ'
p88
sg37
S'17'
p89
sg39
g34
sg41
g34
ssS'15'
p90
(dp91
g5
S'6.0'
p92
sg7
S'--'
p93
sg9
g10
sg11
S'--'
p94
sg13
g10
sg14
g15
sg16
S'2015'
p95
sg18
S'15'
p96
sg20
S'1.3'
p97
sg22
S'12/20'
p98
sg24
g15
sg25
S'Lamar Miller'
p99
sg27
S'9'
p100
sg29
S'L14-30'
p101
sg31
S'12'
p102
sg33
g34
sg35
S'@SD'
p103
sg37
S'11'
p104
sg39
S'12'
p105
sg41
g28
ssS'14'
p106
(dp107
g5
S'--'
p108
sg7
S'--'
p109
sg9
g10
sg11
S'--'
p110
sg13
g10
sg14
S'--'
p111
sg16
S'2015'
p112
sg18
S'14'
p113
sg20
S'7.4'
p114
sg22
S'12/14'
p115
sg24
g34
sg25
S'Lamar Miller'
p116
sg27
S'12'
p117
sg29
S'L24-31'
p118
sg31
S'--'
p119
sg33
S'--'
p120
sg35
S'NYG'
p121
sg37
S'--'
p122
sg39
S'89'
p123
sg41
S'38T'
p124
ssS'17'
p125
(dp126
g5
S'3.0'
p127
sg7
S'--'
p128
sg9
g10
sg11
S'--'
p129
sg13
g10
sg14
g15
sg16
S'2015'
p130
sg18
S'17'
p131
sg20
S'3.2'
p132
sg22
S'01/03'
p133
sg24
g15
sg25
S'Lamar Miller'
p134
sg27
S'19'
p135
sg29
S'W20-10'
p136
sg31
g87
sg33
g10
sg35
S'NE'
p137
sg37
g87
sg39
S'60'
p138
sg41
S'29'
p139
ssS'16'
p140
(dp141
g5
S'7.2'
p142
sg7
S'--'
p143
sg9
g10
sg11
S'--'
p144
sg13
g10
sg14
g15
sg16
S'2015'
p145
sg18
S'16'
p146
sg20
S'2.1'
p147
sg22
S'12/27'
p148
sg24
g10
sg25
S'Lamar Miller'
p149
sg27
S'15'
p150
sg29
S'L12-18'
p151
sg31
S'36'
p152
sg33
g71
sg35
S'IND'
p153
sg37
S'14'
p154
sg39
S'31'
p155
sg41
g28
ssg10
(dp156
g5
S'22.0'
p157
sg7
S'--'
p158
sg9
g10
sg11
S'--'
p159
sg13
g10
sg14
g15
sg16
S'2015'
p160
sg18
g10
sg20
S'4.1'
p161
sg22
S'09/13'
p162
sg24
g15
sg25
S'Lamar Miller'
p163
sg27
S'13'
p164
sg29
S'W17-10'
p165
sg31
S'22'
p166
sg33
g10
sg35
S'@WAS'
p167
sg37
S'22'
p168
sg39
S'53'
p169
sg41
S'17'
p170
ssg87
(dp171
g5
S'9.0'
p172
sg7
S'--'
p173
sg9
g10
sg11
S'--'
p174
sg13
g10
sg14
g15
sg16
S'2015'
p175
sg18
g87
sg20
S'5.4'
p176
sg22
S'09/27'
p177
sg24
g15
sg25
S'Lamar Miller'
p178
sg27
g28
sg29
S'L14-41'
p179
sg31
S'27'
p180
sg33
g87
sg35
S'BUF'
p181
sg37
S'16'
p182
sg39
S'38'
p183
sg41
S'8'
p184
ssg34
(dp185
g5
S'5.6'
p186
sg7
S'--'
p187
sg9
g10
sg11
S'--'
p188
sg13
g10
sg14
g15
sg16
S'2015'
p189
sg18
g34
sg20
S'1.4'
p190
sg22
S'09/20'
p191
sg24
g15
sg25
S'Lamar Miller'
p192
sg27
S'10'
p193
sg29
S'L20-23'
p194
sg31
S'28'
p195
sg33
g71
sg35
S'@JAC'
p196
sg37
S'12'
p197
sg39
S'14'
p198
sg41
g56
ssg71
(dp199
g5
S''
p200
sg7
g200
sg9
g200
sg11
g200
sg13
g200
sg14
g200
sg16
S'2015'
p201
sg18
g71
sg20
g200
sg22
S'Bye'
p202
sg24
g200
sg25
S'Lamar Miller'
p203
sg27
g200
sg29
g200
sg31
g200
sg33
g200
sg35
g200
sg37
g200
sg39
g200
sg41
g200
ssS'4'
p204
(dp205
g5
S'10.0'
p206
sg7
S'--'
p207
sg9
g10
sg11
S'--'
p208
sg13
g10
sg14
g15
sg16
S'2015'
p209
sg18
g204
sg20
S'3.7'
p210
sg22
S'10/04'
p211
sg24
g15
sg25
S'Lamar Miller'
p212
sg27
g28
sg29
S'L14-27'
p213
sg31
S'10'
p214
sg33
g10
sg35
S'NYJ'
p215
sg37
S'10'
p216
sg39
S'26'
p217
sg41
S'13'
p218
ssg28
(dp219
g5
S'20.3'
p220
sg7
S'--'
p221
sg9
g10
sg11
S'--'
p222
sg13
g10
sg14
g10
sg16
S'2015'
p223
sg18
g28
sg20
S'12.5'
p224
sg22
S'10/25'
p225
sg24
g10
sg25
S'Lamar Miller'
p226
sg27
S'14'
p227
sg29
S'W44-26'
p228
sg31
S'61'
p229
sg33
g87
sg35
S'HOU'
p230
sg37
S'54T'
p231
sg39
S'175'
p232
sg41
S'85T'
p233
ssg56
(dp234
g5
S'2.5'
p235
sg7
S'--'
p236
sg9
g10
sg11
S'--'
p237
sg13
g10
sg14
g15
sg16
S'2015'
p238
sg18
g56
sg20
S'5.9'
p239
sg22
S'10/18'
p240
sg24
g10
sg25
S'Lamar Miller'
p241
sg27
S'19'
p242
sg29
S'W38-10'
p243
sg31
g71
sg33
g34
sg35
S'@TEN'
p244
sg37
g204
sg39
S'113'
p245
sg41
S'22'
p246
ssg100
(dp247
g5
S'13.9'
p248
sg7
S'--'
p249
sg9
g10
sg11
S'--'
p250
sg13
g10
sg14
g15
sg16
S'2015'
p251
sg18
g100
sg20
S'3.7'
p252
sg22
S'11/08'
p253
sg24
g34
sg25
S'Lamar Miller'
p254
sg27
S'12'
p255
sg29
S'L17-33'
p256
sg31
S'97'
p257
sg33
g28
sg35
S'@BUF'
p258
sg37
S'27'
p259
sg39
S'44'
p260
sg41
S'14'
p261
ssg184
(dp262
g5
S'3.8'
p263
sg7
S'--'
p264
sg9
g10
sg11
S'--'
p265
sg13
g10
sg14
g15
sg16
S'2015'
p266
sg18
g184
sg20
S'1.7'
p267
sg22
S'10/29'
p268
sg24
g10
sg25
S'Lamar Miller'
p269
sg27
g100
sg29
S'L7-36'
p270
sg31
S'19'
p271
sg33
g71
sg35
S'@NE'
p272
sg37
g184
sg39
S'15'
p273
sg41
g184
sssS'2014'
p274
(dp275
g3
(dp276
g5
S'6.0'
p277
sg7
S'--'
p278
sg9
g10
sg11
S'--'
p279
sg13
g10
sg14
g15
sg16
S'2014'
p280
sg18
S'11'
p281
sg20
S'5.7'
p282
sg22
S'11/13'
p283
sg24
g15
sg25
S'Lamar Miller'
p284
sg27
S'15'
p285
sg29
S'W22-9'
p286
sg31
S'12'
p287
sg33
g34
sg35
S'BUF'
p288
sg37
S'13'
p289
sg39
S'86'
p290
sg41
S'33'
p291
ssg43
(dp292
g5
S'-4.0'
p293
sg7
S'--'
p294
sg9
g10
sg11
S'--'
p295
sg13
g10
sg14
g15
sg16
S'2014'
p296
sg18
S'10'
p297
sg20
S'2.5'
p298
sg22
S'11/09'
p299
sg24
g15
sg25
S'Lamar Miller'
p300
sg27
g204
sg29
S'L16-20'
p301
sg31
S'-4'
p302
sg33
g10
sg35
S'@DET'
p303
sg37
S'-4'
p304
sg39
S'10'
p305
sg41
g71
ssg61
(dp306
g5
S'5.5'
p307
sg7
S'--'
p308
sg9
g10
sg11
S'--'
p309
sg13
g10
sg14
g15
sg16
S'2014'
p310
sg18
S'13'
p311
sg20
S'4.3'
p312
sg22
S'12/01'
p313
sg24
g10
sg25
S'Lamar Miller'
p314
sg27
S'13'
p315
sg29
S'W16-13'
p316
sg31
S'11'
p317
sg33
g34
sg35
S'@NYJ'
p318
sg37
g56
sg39
S'56'
p319
sg41
S'13'
p320
ssg75
(dp321
g5
S'8.0'
p322
sg7
S'--'
p323
sg9
g10
sg11
S'--'
p324
sg13
g10
sg14
g15
sg16
S'2014'
p325
sg18
S'12'
p326
sg20
S'4.9'
p327
sg22
S'11/23'
p328
sg24
g15
sg25
S'Lamar Miller'
p329
sg27
S'12'
p330
sg29
S'L36-39'
p331
sg31
g184
sg33
g10
sg35
S'@DEN'
p332
sg37
g184
sg39
S'59'
p333
sg41
S'22'
p334
ssg90
(dp335
g5
S'10.0'
p336
sg7
S'--'
p337
sg9
g10
sg11
S'--'
p338
sg13
g10
sg14
g15
sg16
S'2014'
p339
sg18
S'15'
p340
sg20
S'2.9'
p341
sg22
S'12/14'
p342
sg24
g15
sg25
S'Lamar Miller'
p343
sg27
S'16'
p344
sg29
S'L13-41'
p345
sg31
S'10'
p346
sg33
g10
sg35
S'@NE'
p347
sg37
S'10'
p348
sg39
S'47'
p349
sg41
S'13'
p350
ssg106
(dp351
g5
S'7.2'
p352
sg7
S'--'
p353
sg9
g10
sg11
S'--'
p354
sg13
g10
sg14
g15
sg16
S'2014'
p355
sg18
S'14'
p356
sg20
S'4.4'
p357
sg22
S'12/07'
p358
sg24
g15
sg25
S'Lamar Miller'
p359
sg27
S'12'
p360
sg29
S'L13-28'
p361
sg31
S'36'
p362
sg33
g71
sg35
S'BAL'
p363
sg37
g100
sg39
S'53'
p364
sg41
S'15'
p365
ssg125
(dp366
g5
S'--'
p367
sg7
S'--'
p368
sg9
g10
sg11
S'--'
p369
sg13
g10
sg14
g15
sg16
S'2014'
p370
sg18
S'17'
p371
sg20
S'9.4'
p372
sg22
S'12/28'
p373
sg24
g10
sg25
S'Lamar Miller'
p374
sg27
S'19'
p375
sg29
S'L24-37'
p376
sg31
g15
sg33
g15
sg35
S'NYJ'
p377
sg37
S'--'
p378
sg39
S'178'
p379
sg41
S'97T'
p380
ssg140
(dp381
g5
S'11.6'
p382
sg7
S'--'
p383
sg9
g10
sg11
S'--'
p384
sg13
g10
sg14
g15
sg16
S'2014'
p385
sg18
S'16'
p386
sg20
S'4.8'
p387
sg22
S'12/21'
p388
sg24
g10
sg25
S'Lamar Miller'
p389
sg27
S'19'
p390
sg29
S'W37-35'
p391
sg31
S'58'
p392
sg33
g71
sg35
S'MIN'
p393
sg37
S'18'
p394
sg39
S'92'
p395
sg41
S'14'
p396
ssg10
(dp397
g5
S'4.8'
p398
sg7
g10
sg9
g10
sg11
g10
sg13
g10
sg14
g10
sg16
S'2014'
p399
sg18
g10
sg20
S'5.4'
p400
sg22
S'09/07'
p401
sg24
g15
sg25
S'Lamar Miller'
p402
sg27
S'11'
p403
sg29
S'W33-20'
p404
sg31
S'19'
p405
sg33
g204
sg35
S'NE'
p406
sg37
g28
sg39
S'59'
p407
sg41
S'13'
p408
ssg87
(dp409
g5
S'6.0'
p410
sg7
S'--'
p411
sg9
g10
sg11
S'--'
p412
sg13
g10
sg14
g15
sg16
S'2014'
p413
sg18
g87
sg20
S'7.2'
p414
sg22
S'09/21'
p415
sg24
g15
sg25
S'Lamar Miller'
p416
sg27
S'15'
p417
sg29
S'L15-34'
p418
sg31
S'24'
p419
sg33
g204
sg35
S'KC'
p420
sg37
S'15'
p421
sg39
S'108'
p422
sg41
S'24'
p423
ssg34
(dp424
g5
S'3.5'
p425
sg7
S'--'
p426
sg9
g10
sg11
S'--'
p427
sg13
g10
sg14
g15
sg16
S'2014'
p428
sg18
g34
sg20
S'4.2'
p429
sg22
S'09/14'
p430
sg24
g15
sg25
S'Lamar Miller'
p431
sg27
S'11'
p432
sg29
S'L10-29'
p433
sg31
g28
sg33
g34
sg35
S'@BUF'
p434
sg37
S'11'
p435
sg39
S'46'
p436
sg41
g28
ssg71
(dp437
g5
g200
sg7
g200
sg9
g200
sg11
g200
sg13
g200
sg14
g200
sg16
S'2014'
p438
sg18
g71
sg20
g200
sg22
S'Bye'
p439
sg24
g200
sg25
S'Lamar Miller'
p440
sg27
g200
sg29
g200
sg31
g200
sg33
g200
sg35
g200
sg37
g200
sg39
g200
sg41
g200
ssg204
(dp441
g5
S'1.5'
p442
sg7
g10
sg9
g10
sg11
g10
sg13
g10
sg14
g15
sg16
S'2014'
p443
sg18
g204
sg20
S'5.3'
p444
sg22
S'09/28'
p445
sg24
g34
sg25
S'Lamar Miller'
p446
sg27
S'12'
p447
sg29
S'W38-14'
p448
sg31
g87
sg33
g34
sg35
S'@OAK'
p449
sg37
g34
sg39
S'64'
p450
sg41
S'21'
p451
ssg28
(dp452
g5
S'11.0'
p453
sg7
S'--'
p454
sg9
g10
sg11
S'--'
p455
sg13
g10
sg14
g15
sg16
S'2014'
p456
sg18
g28
sg20
S'3.4'
p457
sg22
S'10/19'
p458
sg24
g10
sg25
S'Lamar Miller'
p459
sg27
S'18'
p460
sg29
S'W27-14'
p461
sg31
S'22'
p462
sg33
g34
sg35
S'@CHI'
p463
sg37
S'12'
p464
sg39
S'61'
p465
sg41
g100
ssg56
(dp466
g5
S'13.3'
p467
sg7
g10
sg9
g10
sg11
g10
sg13
g10
sg14
g15
sg16
S'2014'
p468
sg18
g56
sg20
S'3.8'
p469
sg22
S'10/12'
p470
sg24
g10
sg25
S'Lamar Miller'
p471
sg27
S'14'
p472
sg29
S'L24-27'
p473
sg31
S'40'
p474
sg33
g87
sg35
S'GB'
p475
sg37
S'20'
p476
sg39
S'53'
p477
sg41
S'14'
p478
ssg100
(dp479
g5
S'8.0'
p480
sg7
S'--'
p481
sg9
g10
sg11
S'--'
p482
sg13
g10
sg14
g15
sg16
S'2014'
p483
sg18
g100
sg20
S'4.5'
p484
sg22
S'11/02'
p485
sg24
g10
sg25
S'Lamar Miller'
p486
sg27
S'11'
p487
sg29
S'W37-0'
p488
sg31
g184
sg33
g10
sg35
S'SD'
p489
sg37
g184
sg39
S'49'
p490
sg41
S'14'
p491
ssg184
(dp492
g5
S'7.0'
p493
sg7
S'--'
p494
sg9
g10
sg11
S'--'
p495
sg13
g10
sg14
g15
sg16
S'2014'
p496
sg18
g184
sg20
S'5.6'
p497
sg22
S'10/26'
p498
sg24
g15
sg25
S'Lamar Miller'
p499
sg27
S'14'
p500
sg29
S'W27-13'
p501
sg31
S'21'
p502
sg33
g87
sg35
S'@JAC'
p503
sg37
g100
sg39
S'78'
p504
sg41
S'30'
p505
sssS'2013'
p506
(dp507
g3
(dp508
g5
S'10.0'
p509
sg7
S'--'
p510
sg9
g10
sg11
S'--'
p511
sg13
g10
sg14
g15
sg16
S'2013'
p512
sg18
S'11'
p513
sg20
S'4.3'
p514
sg22
S'11/17'
p515
sg24
g15
sg25
S'Lamar Miller'
p516
sg27
g204
sg29
S'W20-16'
p517
sg31
S'20'
p518
sg33
g34
sg35
S'SD'
p519
sg37
S'22'
p520
sg39
S'17'
p521
sg41
g184
ssg43
(dp522
g5
S'4.5'
p523
sg7
S'--'
p524
sg9
g10
sg11
S'--'
p525
sg13
g10
sg14
g15
sg16
S'2013'
p526
sg18
S'10'
p527
sg20
S'0.3'
p528
sg22
S'11/11'
p529
sg24
g15
sg25
S'Lamar Miller'
p530
sg27
g28
sg29
S'L19-22'
p531
sg31
g100
sg33
g34
sg35
S'@TB'
p532
sg37
g56
sg39
g34
sg41
g204
ssg61
(dp533
g5
S'13.0'
p534
sg7
S'--'
p535
sg9
g10
sg11
S'--'
p536
sg13
g10
sg14
g15
sg16
S'2013'
p537
sg18
S'13'
p538
sg20
S'3.3'
p539
sg22
S'12/01'
p540
sg24
g15
sg25
S'Lamar Miller'
p541
sg27
S'22'
p542
sg29
S'W23-3'
p543
sg31
S'13'
p544
sg33
g10
sg35
S'@NYJ'
p545
sg37
S'13'
p546
sg39
S'72'
p547
sg41
S'17'
p548
ssg75
(dp549
g5
S'9.8'
p550
sg7
S'--'
p551
sg9
g10
sg11
S'--'
p552
sg13
g10
sg14
g15
sg16
S'2013'
p553
sg18
S'12'
p554
sg20
S'0.8'
p555
sg22
S'11/24'
p556
sg24
g15
sg25
S'Lamar Miller'
p557
sg27
S'10'
p558
sg29
S'L16-20'
p559
sg31
S'39'
p560
sg33
g204
sg35
S'CAR'
p561
sg37
S'18'
p562
sg39
g184
sg41
g204
ssg90
(dp563
g5
S'0.0'
p564
sg7
S'--'
p565
sg9
g10
sg11
S'--'
p566
sg13
g10
sg14
g15
sg16
S'2013'
p567
sg18
S'15'
p568
sg20
S'4.1'
p569
sg22
S'12/15'
p570
sg24
g15
sg25
S'Lamar Miller'
p571
sg27
S'15'
p572
sg29
S'W24-20'
p573
sg31
g15
sg33
g10
sg35
S'NE'
p574
sg37
g15
sg39
S'61'
p575
sg41
g28
ssg106
(dp576
g5
S'6.5'
p577
sg7
S'--'
p578
sg9
g10
sg11
S'--'
p579
sg13
g10
sg14
g15
sg16
S'2013'
p580
sg18
S'14'
p581
sg20
S'3.3'
p582
sg22
S'12/08'
p583
sg24
g15
sg25
S'Lamar Miller'
p584
sg27
g56
sg29
S'W34-28'
p585
sg31
S'13'
p586
sg33
g34
sg35
S'@PIT'
p587
sg37
S'13'
p588
sg39
S'20'
p589
sg41
g28
ssg125
(dp590
g5
S'4.0'
p591
sg7
S'--'
p592
sg9
g10
sg11
S'--'
p593
sg13
g10
sg14
g15
sg16
S'2013'
p594
sg18
S'17'
p595
sg20
S'4.3'
p596
sg22
S'12/29'
p597
sg24
g15
sg25
S'Lamar Miller'
p598
sg27
S'17'
p599
sg29
S'L7-20'
p600
sg31
g204
sg33
g10
sg35
S'NYJ'
p601
sg37
g204
sg39
S'73'
p602
sg41
S'16'
p603
ssg140
(dp604
g5
S'--'
p605
sg7
S'--'
p606
sg9
g10
sg11
S'--'
p607
sg13
g10
sg14
S'--'
p608
sg16
S'2013'
p609
sg18
S'16'
p610
sg20
S'2.7'
p611
sg22
S'12/22'
p612
sg24
g15
sg25
S'Lamar Miller'
p613
sg27
g87
sg29
S'L0-19'
p614
sg31
S'--'
p615
sg33
S'--'
p616
sg35
S'@BUF'
p617
sg37
S'--'
p618
sg39
g184
sg41
g87
ssg10
(dp619
g5
S'7.0'
p620
sg7
S'--'
p621
sg9
g10
sg11
S'--'
p622
sg13
g10
sg14
g15
sg16
S'2013'
p623
sg18
g10
sg20
S'0.3'
p624
sg22
S'09/08'
p625
sg24
g15
sg25
S'Lamar Miller'
p626
sg27
S'10'
p627
sg29
S'W23-10'
p628
sg31
g28
sg33
g10
sg35
S'@CLE'
p629
sg37
g28
sg39
g87
sg41
g71
ssg87
(dp630
g5
S'2.0'
p631
sg7
S'--'
p632
sg9
g10
sg11
S'--'
p633
sg13
g10
sg14
g15
sg16
S'2013'
p634
sg18
g87
sg20
S'7.8'
p635
sg22
S'09/22'
p636
sg24
g15
sg25
S'Lamar Miller'
p637
sg27
g184
sg29
S'W27-23'
p638
sg31
g34
sg33
g10
sg35
S'ATL'
p639
sg37
g34
sg39
S'62'
p640
sg41
S'49'
p641
ssg34
(dp642
g5
S'3.0'
p643
sg7
S'--'
p644
sg9
g10
sg11
S'--'
p645
sg13
g10
sg14
g15
sg16
S'2013'
p646
sg18
g34
sg20
S'4.9'
p647
sg22
S'09/15'
p648
sg24
g10
sg25
S'Lamar Miller'
p649
sg27
S'14'
p650
sg29
S'W24-20'
p651
sg31
g56
sg33
g34
sg35
S'@IND'
p652
sg37
g56
sg39
S'69'
p653
sg41
S'14'
p654
ssg71
(dp655
g5
S'--'
p656
sg7
S'--'
p657
sg9
g10
sg11
S'--'
p658
sg13
g10
sg14
S'--'
p659
sg16
S'2013'
p660
sg18
g71
sg20
S'2.1'
p661
sg22
S'10/06'
p662
sg24
g15
sg25
S'Lamar Miller'
p663
sg27
g28
sg29
S'L23-26'
p664
sg31
S'--'
p665
sg33
S'--'
p666
sg35
S'BAL'
p667
sg37
S'--'
p668
sg39
S'15'
p669
sg41
g100
ssg204
(dp670
g5
S'6.0'
p671
sg7
S'--'
p672
sg9
g10
sg11
S'--'
p673
sg13
g10
sg14
g15
sg16
S'2013'
p674
sg18
g204
sg20
S'5.6'
p675
sg22
S'09/30'
p676
sg24
g10
sg25
S'Lamar Miller'
p677
sg27
S'11'
p678
sg29
S'L17-38'
p679
sg31
g56
sg33
g10
sg35
S'@NO'
p680
sg37
g56
sg39
S'62'
p681
sg41
S'20'
p682
ssg28
(dp683
g5
S'4.0'
p684
sg7
S'--'
p685
sg9
g15
sg11
S'--'
p686
sg13
g10
sg14
g15
sg16
S'2013'
p687
sg18
g28
sg20
S'4.8'
p688
sg22
S'10/20'
p689
sg24
g15
sg25
S'Lamar Miller'
p690
sg27
g100
sg29
S'L21-23'
p691
sg31
g204
sg33
g10
sg35
S'BUF'
p692
sg37
g204
sg39
S'43'
p693
sg41
S'30'
p694
ssg56
(dp695
g5
g200
sg7
g200
sg9
g200
sg11
g200
sg13
g200
sg14
g200
sg16
S'2013'
p696
sg18
g56
sg20
g200
sg22
S'Bye'
p697
sg24
g200
sg25
S'Lamar Miller'
p698
sg27
g200
sg29
g200
sg31
g200
sg33
g200
sg35
g200
sg37
g200
sg39
g200
sg41
g200
ssg100
(dp699
g5
S'6.0'
p700
sg7
g10
sg9
g10
sg11
g10
sg13
g10
sg14
g15
sg16
S'2013'
p701
sg18
g100
sg20
S'6.6'
p702
sg22
S'10/31'
p703
sg24
g15
sg25
S'Lamar Miller'
p704
sg27
S'16'
p705
sg29
S'W22-20'
p706
sg31
S'24'
p707
sg33
g204
sg35
S'CIN'
p708
sg37
g100
sg39
S'105'
p709
sg41
S'41'
p710
ssg184
(dp711
g5
S'7.7'
p712
sg7
S'--'
p713
sg9
g10
sg11
S'--'
p714
sg13
g10
sg14
g15
sg16
S'2013'
p715
sg18
g184
sg20
S'4.9'
p716
sg22
S'10/27'
p717
sg24
g15
sg25
S'Lamar Miller'
p718
sg27
S'18'
p719
sg29
S'L17-27'
p720
sg31
S'23'
p721
sg33
g87
sg35
S'@NE'
p722
sg37
S'13'
p723
sg39
S'89'
p724
sg41
S'18'
p725
sssS'2012'
p726
(dp727
g3
(dp728
g5
S'--'
p729
sg7
S'--'
p730
sg9
g15
sg11
S'--'
p731
sg13
g10
sg14
S'--'
p732
sg16
S'2012'
p733
sg18
S'11'
p734
sg20
S'--'
p735
sg22
S'11/15'
p736
sg24
S'--'
p737
sg25
S'Lamar Miller'
p738
sg27
S'--'
p739
sg29
S'L14-19'
p740
sg31
S'--'
p741
sg33
S'--'
p742
sg35
S'@BUF'
p743
sg37
S'--'
p744
sg39
S'--'
p745
sg41
S'--'
p746
ssg43
(dp747
g5
S'6.5'
p748
sg7
S'--'
p749
sg9
g15
sg11
S'--'
p750
sg13
g10
sg14
g15
sg16
S'2012'
p751
sg18
S'10'
p752
sg20
S'4.0'
p753
sg22
S'11/11'
p754
sg24
g15
sg25
S'Lamar Miller'
p755
sg27
g87
sg29
S'L3-37'
p756
sg31
S'13'
p757
sg33
g34
sg35
S'TEN'
p758
sg37
g184
sg39
S'12'
p759
sg41
g100
ssg61
(dp760
g5
S'--'
p761
sg7
S'--'
p762
sg9
g15
sg11
S'--'
p763
sg13
g10
sg14
S'--'
p764
sg16
S'2012'
p765
sg18
S'13'
p766
sg20
S'--'
p767
sg22
S'12/02'
p768
sg24
S'--'
p769
sg25
S'Lamar Miller'
p770
sg27
S'--'
p771
sg29
S'L16-23'
p772
sg31
S'--'
p773
sg33
S'--'
p774
sg35
S'NE'
p775
sg37
S'--'
p776
sg39
S'--'
p777
sg41
S'--'
p778
ssg75
(dp779
g5
S'--'
p780
sg7
S'--'
p781
sg9
g15
sg11
S'--'
p782
sg13
g15
sg14
S'--'
p783
sg16
S'2012'
p784
sg18
S'12'
p785
sg20
S'--'
p786
sg22
S'11/25'
p787
sg24
S'--'
p788
sg25
S'Lamar Miller'
p789
sg27
S'--'
p790
sg29
S'W24-21'
p791
sg31
S'--'
p792
sg33
S'--'
p793
sg35
S'SEA'
p794
sg37
S'--'
p795
sg39
S'--'
p796
sg41
S'--'
p797
ssg90
(dp798
g5
S'2.0'
p799
sg7
S'--'
p800
sg9
g15
sg11
S'--'
p801
sg13
g10
sg14
g15
sg16
S'2012'
p802
sg18
S'15'
p803
sg20
S'3.0'
p804
sg22
S'12/16'
p805
sg24
g15
sg25
S'Lamar Miller'
p806
sg27
g56
sg29
S'W24-3'
p807
sg31
g34
sg33
g10
sg35
S'JAC'
p808
sg37
g34
sg39
S'18'
p809
sg41
g184
ssg106
(dp810
g5
S'8.0'
p811
sg7
S'--'
p812
sg9
g10
sg11
S'--'
p813
sg13
g10
sg14
g15
sg16
S'2012'
p814
sg18
S'14'
p815
sg20
S'0.3'
p816
sg22
S'12/09'
p817
sg24
g15
sg25
S'Lamar Miller'
p818
sg27
g87
sg29
S'L13-27'
p819
sg31
g184
sg33
g10
sg35
S'@SF'
p820
sg37
g184
sg39
g10
sg41
g10
ssg125
(dp821
g5
S'11.0'
p822
sg7
S'--'
p823
sg9
g15
sg11
S'--'
p824
sg13
g10
sg14
g15
sg16
S'2012'
p825
sg18
S'17'
p826
sg20
S'2.6'
p827
sg22
S'12/30'
p828
sg24
g15
sg25
S'Lamar Miller'
p829
sg27
g71
sg29
S'L0-28'
p830
sg31
S'22'
p831
sg33
g34
sg35
S'@NE'
p832
sg37
S'12'
p833
sg39
S'13'
p834
sg41
g204
ssg140
(dp835
g5
S'--'
p836
sg7
S'--'
p837
sg9
g15
sg11
S'--'
p838
sg13
g10
sg14
g15
sg16
S'2012'
p839
sg18
S'16'
p840
sg20
S'7.3'
p841
sg22
S'12/23'
p842
sg24
g15
sg25
S'Lamar Miller'
p843
sg27
S'10'
p844
sg29
S'W24-10'
p845
sg31
g15
sg33
g15
sg35
S'BUF'
p846
sg37
S'--'
p847
sg39
S'73'
p848
sg41
S'28'
p849
ssg10
(dp850
g5
S'--'
p851
sg7
S'--'
p852
sg9
g15
sg11
S'--'
p853
sg13
g15
sg14
S'--'
p854
sg16
S'2012'
p855
sg18
g10
sg20
S'--'
p856
sg22
S'09/09'
p857
sg24
S'--'
p858
sg25
S'Lamar Miller'
p859
sg27
S'--'
p860
sg29
S'L10-30'
p861
sg31
S'--'
p862
sg33
S'--'
p863
sg35
S'@HOU'
p864
sg37
S'--'
p865
sg39
S'--'
p866
sg41
S'--'
p867
ssg87
(dp868
g5
S'--'
p869
sg7
S'--'
p870
sg9
g15
sg11
S'--'
p871
sg13
g10
sg14
S'--'
p872
sg16
S'2012'
p873
sg18
g87
sg20
S'5.3'
p874
sg22
S'09/23'
p875
sg24
g15
sg25
S'Lamar Miller'
p876
sg27
g100
sg29
S'L20-23'
p877
sg31
S'--'
p878
sg33
S'--'
p879
sg35
S'NYJ'
p880
sg37
S'--'
p881
sg39
S'48'
p882
sg41
S'22'
p883
ssg34
(dp884
g5
S'--'
p885
sg7
S'--'
p886
sg9
g15
sg11
S'--'
p887
sg13
g10
sg14
S'--'
p888
sg16
S'2012'
p889
sg18
g34
sg20
S'6.5'
p890
sg22
S'09/16'
p891
sg24
g10
sg25
S'Lamar Miller'
p892
sg27
S'10'
p893
sg29
S'W35-13'
p894
sg31
S'--'
p895
sg33
S'--'
p896
sg35
S'OAK'
p897
sg37
S'--'
p898
sg39
S'65'
p899
sg41
S'19'
p900
ssg71
(dp901
g5
S'--'
p902
sg7
S'--'
p903
sg9
g15
sg11
S'--'
p904
sg13
g10
sg14
S'--'
p905
sg16
S'2012'
p906
sg18
g71
sg20
S'--'
p907
sg22
S'10/07'
p908
sg24
S'--'
p909
sg25
S'Lamar Miller'
p910
sg27
S'--'
p911
sg29
S'W17-13'
p912
sg31
S'--'
p913
sg33
S'--'
p914
sg35
S'@CIN'
p915
sg37
S'--'
p916
sg39
S'--'
p917
sg41
S'--'
p918
ssg204
(dp919
g5
S'--'
p920
sg7
S'--'
p921
sg9
g15
sg11
S'--'
p922
sg13
g10
sg14
S'--'
p923
sg16
S'2012'
p924
sg18
g204
sg20
S'3.3'
p925
sg22
S'09/30'
p926
sg24
g15
sg25
S'Lamar Miller'
p927
sg27
g204
sg29
S'L21-24'
p928
sg31
S'--'
p929
sg33
S'--'
p930
sg35
S'@ARI'
p931
sg37
S'--'
p932
sg39
S'13'
p933
sg41
g28
ssg28
(dp934
g5
g200
sg7
g200
sg9
g200
sg11
g200
sg13
g200
sg14
g200
sg16
S'2012'
p935
sg18
g28
sg20
g200
sg22
S'Bye'
p936
sg24
g200
sg25
S'Lamar Miller'
p937
sg27
g200
sg29
g200
sg31
g200
sg33
g200
sg35
g200
sg37
g200
sg39
g200
sg41
g200
ssg56
(dp938
g5
S'--'
p939
sg7
S'--'
p940
sg9
g15
sg11
S'--'
p941
sg13
g10
sg14
S'--'
p942
sg16
S'2012'
p943
sg18
g56
sg20
S'--'
p944
sg22
S'10/14'
p945
sg24
S'--'
p946
sg25
S'Lamar Miller'
p947
sg27
S'--'
p948
sg29
S'W17-14'
p949
sg31
S'--'
p950
sg33
S'--'
p951
sg35
S'STL'
p952
sg37
S'--'
p953
sg39
S'--'
p954
sg41
S'--'
p955
ssg100
(dp956
g5
S'--'
p957
sg7
S'--'
p958
sg9
g15
sg11
S'--'
p959
sg13
g10
sg14
S'--'
p960
sg16
S'2012'
p961
sg18
g100
sg20
S'7.0'
p962
sg22
S'11/04'
p963
sg24
g15
sg25
S'Lamar Miller'
p964
sg27
g10
sg29
S'L20-23'
p965
sg31
S'--'
p966
sg33
S'--'
p967
sg35
S'@IND'
p968
sg37
S'--'
p969
sg39
g28
sg41
g28
ssg184
(dp970
g5
S'--'
p971
sg7
S'--'
p972
sg9
g15
sg11
S'--'
p973
sg13
g15
sg14
S'--'
p974
sg16
S'2012'
p975
sg18
g184
sg20
S'--'
p976
sg22
S'10/28'
p977
sg24
S'--'
p978
sg25
S'Lamar Miller'
p979
sg27
S'--'
p980
sg29
S'W30-9'
p981
sg31
S'--'
p982
sg33
S'--'
p983
sg35
S'@NYJ'
p984
sg37
S'--'
p985
sg39
S'--'
p986
sg41
S'--'
p987
sss.