(dp0
S'2015'
p1
(dp2
S'1'
p3
(dp4
S'RecAvg'
p5
S'8.8'
p6
sS'FUM'
p7
S'--'
p8
sS'GS'
p9
S'0'
p10
sS'Lost'
p11
S'--'
p12
sS'G'
p13
g3
sS'RecTD'
p14
g10
sS'Year'
p15
S'2015'
p16
sS'WK'
p17
g3
sS'RushAvg'
p18
S'--'
p19
sS'Game Date'
p20
S'09/13'
p21
sS'RushTD'
p22
S'--'
p23
sS'Player'
p24
S'Lance Dunbar'
p25
sS'RushAtt'
p26
S'--'
p27
sS'Result'
p28
S'W27-26'
p29
sS'RecYds'
p30
S'70'
p31
sS'Rec'
p32
S'8'
p33
sS'Opp'
p34
S'NYG'
p35
sS'RecLng'
p36
S'24'
p37
sS'RushYds'
p38
S'--'
p39
sS'RushLng'
p40
S'--'
p41
ssS'3'
p42
(dp43
g5
S'10.0'
p44
sg7
S'--'
p45
sg9
g10
sg11
S'--'
p46
sg13
g3
sg14
g10
sg15
S'2015'
p47
sg17
g42
sg18
S'5.0'
p48
sg20
S'09/27'
p49
sg22
g10
sg24
S'Lance Dunbar'
p50
sg26
g3
sg28
S'L28-39'
p51
sg30
S'100'
p52
sg32
S'10'
p53
sg34
S'ATL'
p54
sg36
S'22'
p55
sg38
S'5'
p56
sg40
g56
ssS'2'
p57
(dp58
g5
S'15.0'
p59
sg7
S'--'
p60
sg9
g10
sg11
S'--'
p61
sg13
g3
sg14
g10
sg15
S'2015'
p62
sg17
g57
sg18
S'8.0'
p63
sg20
S'09/20'
p64
sg22
g10
sg24
S'Lance Dunbar'
p65
sg26
g3
sg28
S'W20-10'
p66
sg30
S'45'
p67
sg32
g42
sg34
S'@PHI'
p68
sg36
S'39'
p69
sg38
g33
sg40
g33
ssS'4'
p70
(dp71
g5
S'--'
p72
sg7
S'--'
p73
sg9
g10
sg11
S'--'
p74
sg13
g3
sg14
S'--'
p75
sg15
S'2015'
p76
sg17
g70
sg18
S'18.0'
p77
sg20
S'10/04'
p78
sg22
g10
sg24
S'Lance Dunbar'
p79
sg26
g42
sg28
S'L20-26'
p80
sg30
S'--'
p81
sg32
S'--'
p82
sg34
S'@NO'
p83
sg36
S'--'
p84
sg38
S'54'
p85
sg40
S'45'
p86
sssS'2014'
p87
(dp88
S'11'
p89
(dp90
g5
S''
p91
sg7
g91
sg9
g91
sg11
g91
sg13
g91
sg14
g91
sg15
S'2014'
p92
sg17
S'11'
p93
sg18
g91
sg20
S'Bye'
p94
sg22
g91
sg24
S'Lance Dunbar'
p95
sg26
g91
sg28
g91
sg30
g91
sg32
g91
sg34
g91
sg36
g91
sg38
g91
sg40
g91
ssS'10'
p96
(dp97
g5
S'3.5'
p98
sg7
S'--'
p99
sg9
g10
sg11
S'--'
p100
sg13
g3
sg14
g10
sg15
S'2014'
p101
sg17
S'10'
p102
sg18
S'--'
p103
sg20
S'11/09'
p104
sg22
S'--'
p105
sg24
S'Lance Dunbar'
p106
sg26
S'--'
p107
sg28
S'W31-17'
p108
sg30
S'7'
p109
sg32
g57
sg34
S'@JAC'
p110
sg36
g70
sg38
S'--'
p111
sg40
S'--'
p112
ssS'13'
p113
(dp114
g5
S'--'
p115
sg7
S'--'
p116
sg9
g10
sg11
S'--'
p117
sg13
g3
sg14
S'--'
p118
sg15
S'2014'
p119
sg17
S'13'
p120
sg18
S'7.5'
p121
sg20
S'11/27'
p122
sg22
g10
sg24
S'Lance Dunbar'
p123
sg26
g57
sg28
S'L10-33'
p124
sg30
S'--'
p125
sg32
S'--'
p126
sg34
S'PHI'
p127
sg36
S'--'
p128
sg38
S'15'
p129
sg40
S'14'
p130
ssS'12'
p131
(dp132
g5
S'26.0'
p133
sg7
S'--'
p134
sg9
g10
sg11
S'--'
p135
sg13
g3
sg14
g10
sg15
S'2014'
p136
sg17
S'12'
p137
sg18
S'--'
p138
sg20
S'11/23'
p139
sg22
S'--'
p140
sg24
S'Lance Dunbar'
p141
sg26
S'--'
p142
sg28
S'W31-28'
p143
sg30
S'26'
p144
sg32
g3
sg34
S'@NYG'
p145
sg36
S'26'
p146
sg38
S'--'
p147
sg40
S'--'
p148
ssS'15'
p149
(dp150
g5
S'6.0'
p151
sg7
S'--'
p152
sg9
g10
sg11
S'--'
p153
sg13
g3
sg14
g10
sg15
S'2014'
p154
sg17
S'15'
p155
sg18
S'4.4'
p156
sg20
S'12/14'
p157
sg22
g10
sg24
S'Lance Dunbar'
p158
sg26
g56
sg28
S'W38-27'
p159
sg30
S'6'
p160
sg32
g3
sg34
S'@PHI'
p161
sg36
g160
sg38
S'22'
p162
sg40
g109
ssS'14'
p163
(dp164
g5
S'--'
p165
sg7
S'--'
p166
sg9
g10
sg11
S'--'
p167
sg13
g3
sg14
S'--'
p168
sg15
S'2014'
p169
sg17
S'14'
p170
sg18
S'--'
p171
sg20
S'12/04'
p172
sg22
S'--'
p173
sg24
S'Lance Dunbar'
p174
sg26
S'--'
p175
sg28
S'W41-28'
p176
sg30
S'--'
p177
sg32
S'--'
p178
sg34
S'@CHI'
p179
sg36
S'--'
p180
sg38
S'--'
p181
sg40
S'--'
p182
ssS'17'
p183
(dp184
g5
S'--'
p185
sg7
S'--'
p186
sg9
g10
sg11
S'--'
p187
sg13
g3
sg14
S'--'
p188
sg15
S'2014'
p189
sg17
S'17'
p190
sg18
S'4.0'
p191
sg20
S'12/28'
p192
sg22
g10
sg24
S'Lance Dunbar'
p193
sg26
g3
sg28
S'W44-17'
p194
sg30
S'--'
p195
sg32
S'--'
p196
sg34
S'@WAS'
p197
sg36
S'--'
p198
sg38
g70
sg40
g70
ssS'16'
p199
(dp200
g5
S'5.0'
p201
sg7
S'--'
p202
sg9
g10
sg11
S'--'
p203
sg13
g3
sg14
g10
sg15
S'2014'
p204
sg17
S'16'
p205
sg18
S'2.0'
p206
sg20
S'12/21'
p207
sg22
g10
sg24
S'Lance Dunbar'
p208
sg26
g57
sg28
S'W42-7'
p209
sg30
S'10'
p210
sg32
g57
sg34
S'IND'
p211
sg36
S'14'
p212
sg38
g70
sg40
g56
ssg3
(dp213
g5
S'7.0'
p214
sg7
S'--'
p215
sg9
g10
sg11
S'--'
p216
sg13
g3
sg14
g10
sg15
S'2014'
p217
sg17
g3
sg18
S'--'
p218
sg20
S'09/07'
p219
sg22
S'--'
p220
sg24
S'Lance Dunbar'
p221
sg26
S'--'
p222
sg28
S'L17-28'
p223
sg30
S'21'
p224
sg32
g42
sg34
S'SF'
p225
sg36
S'11'
p226
sg38
S'--'
p227
sg40
S'--'
p228
ssg42
(dp229
g5
S'--'
p230
sg7
S'--'
p231
sg9
g10
sg11
S'--'
p232
sg13
g3
sg14
g10
sg15
S'2014'
p233
sg17
g42
sg18
S'--'
p234
sg20
S'09/21'
p235
sg22
S'--'
p236
sg24
S'Lance Dunbar'
p237
sg26
S'--'
p238
sg28
S'W34-31'
p239
sg30
g10
sg32
g10
sg34
S'@STL'
p240
sg36
S'--'
p241
sg38
S'--'
p242
sg40
S'--'
p243
ssg57
(dp244
g5
S'--'
p245
sg7
S'--'
p246
sg9
g10
sg11
S'--'
p247
sg13
g3
sg14
S'--'
p248
sg15
S'2014'
p249
sg17
g57
sg18
S'2.5'
p250
sg20
S'09/14'
p251
sg22
g10
sg24
S'Lance Dunbar'
p252
sg26
S'11'
p253
sg28
S'W26-10'
p254
sg30
S'--'
p255
sg32
S'--'
p256
sg34
S'@TEN'
p257
sg36
S'--'
p258
sg38
S'27'
p259
sg40
g109
ssg56
(dp260
g5
S'--'
p261
sg7
S'--'
p262
sg9
g10
sg11
S'--'
p263
sg13
g3
sg14
S'--'
p264
sg15
S'2014'
p265
sg17
g56
sg18
S'--'
p266
sg20
S'10/05'
p267
sg22
S'--'
p268
sg24
S'Lance Dunbar'
p269
sg26
S'--'
p270
sg28
S'W20-17'
p271
sg30
S'--'
p272
sg32
S'--'
p273
sg34
S'HOU'
p274
sg36
S'--'
p275
sg38
S'--'
p276
sg40
S'--'
p277
ssg70
(dp278
g5
S'18.0'
p279
sg7
S'--'
p280
sg9
g10
sg11
S'--'
p281
sg13
g3
sg14
g10
sg15
S'2014'
p282
sg17
g70
sg18
S'--'
p283
sg20
S'09/28'
p284
sg22
S'--'
p285
sg24
S'Lance Dunbar'
p286
sg26
S'--'
p287
sg28
S'W38-17'
p288
sg30
S'36'
p289
sg32
g57
sg34
S'NO'
p290
sg36
S'24'
p291
sg38
S'--'
p292
sg40
S'--'
p293
ssg109
(dp294
g5
S'--'
p295
sg7
S'--'
p296
sg9
g10
sg11
S'--'
p297
sg13
g3
sg14
S'--'
p298
sg15
S'2014'
p299
sg17
g109
sg18
S'5.3'
p300
sg20
S'10/19'
p301
sg22
g10
sg24
S'Lance Dunbar'
p302
sg26
g42
sg28
S'W31-21'
p303
sg30
S'--'
p304
sg32
S'--'
p305
sg34
S'NYG'
p306
sg36
S'--'
p307
sg38
S'16'
p308
sg40
S'13'
p309
ssg160
(dp310
g5
S'12.0'
p311
sg7
S'--'
p312
sg9
g10
sg11
S'--'
p313
sg13
g3
sg14
g10
sg15
S'2014'
p314
sg17
g160
sg18
S'-4.0'
p315
sg20
S'10/12'
p316
sg22
g10
sg24
S'Lance Dunbar'
p317
sg26
g3
sg28
S'W30-23'
p318
sg30
S'48'
p319
sg32
g70
sg34
S'@SEA'
p320
sg36
S'21'
p321
sg38
S'-4'
p322
sg40
S'-4'
p323
ssS'9'
p324
(dp325
g5
S'26.0'
p326
sg7
S'--'
p327
sg9
g10
sg11
S'--'
p328
sg13
g3
sg14
g10
sg15
S'2014'
p329
sg17
g324
sg18
S'3.0'
p330
sg20
S'11/02'
p331
sg22
g10
sg24
S'Lance Dunbar'
p332
sg26
g42
sg28
S'L17-28'
p333
sg30
S'52'
p334
sg32
g57
sg34
S'ARI'
p335
sg36
S'40'
p336
sg38
g324
sg40
g160
ssg33
(dp337
g5
S'11.0'
p338
sg7
S'--'
p339
sg9
g10
sg11
S'--'
p340
sg13
g3
sg14
g10
sg15
S'2014'
p341
sg17
g33
sg18
S'6.0'
p342
sg20
S'10/27'
p343
sg22
g10
sg24
S'Lance Dunbar'
p344
sg26
g3
sg28
S'L17-20'
p345
sg30
S'11'
p346
sg32
g3
sg34
S'WAS'
p347
sg36
S'11'
p348
sg38
g160
sg40
g160
sssS'2013'
p349
(dp350
g89
(dp351
g5
g91
sg7
g91
sg9
g91
sg11
g91
sg13
g91
sg14
g91
sg15
S'2013'
p352
sg17
S'11'
p353
sg18
g91
sg20
S'Bye'
p354
sg22
g91
sg24
S'Lance Dunbar'
p355
sg26
g91
sg28
g91
sg30
g91
sg32
g91
sg34
g91
sg36
g91
sg38
g91
sg40
g91
ssg96
(dp356
g5
S'--'
p357
sg7
S'--'
p358
sg9
g10
sg11
S'--'
p359
sg13
g3
sg14
S'--'
p360
sg15
S'2013'
p361
sg17
S'10'
p362
sg18
S'--'
p363
sg20
S'11/10'
p364
sg22
S'--'
p365
sg24
S'Lance Dunbar'
p366
sg26
S'--'
p367
sg28
S'L17-49'
p368
sg30
S'--'
p369
sg32
S'--'
p370
sg34
S'@NO'
p371
sg36
S'--'
p372
sg38
S'--'
p373
sg40
S'--'
p374
ssg113
(dp375
g5
S'12.0'
p376
sg7
S'--'
p377
sg9
g10
sg11
S'--'
p378
sg13
g3
sg14
g10
sg15
S'2013'
p379
sg17
S'13'
p380
sg18
S'6.8'
p381
sg20
S'11/28'
p382
sg22
g10
sg24
S'Lance Dunbar'
p383
sg26
S'12'
p384
sg28
S'W31-24'
p385
sg30
S'12'
p386
sg32
g3
sg34
S'OAK'
p387
sg36
S'12'
p388
sg38
S'82'
p389
sg40
S'45'
p390
ssg131
(dp391
g5
S'13.0'
p392
sg7
S'--'
p393
sg9
g10
sg11
S'--'
p394
sg13
g3
sg14
g10
sg15
S'2013'
p395
sg17
S'12'
p396
sg18
S'6.7'
p397
sg20
S'11/24'
p398
sg22
g10
sg24
S'Lance Dunbar'
p399
sg26
g42
sg28
S'W24-21'
p400
sg30
S'26'
p401
sg32
g57
sg34
S'@NYG'
p402
sg36
S'17'
p403
sg38
S'20'
p404
sg40
S'18'
p405
ssg3
(dp406
g5
S'--'
p407
sg7
S'--'
p408
sg9
g10
sg11
S'--'
p409
sg13
g10
sg14
S'--'
p410
sg15
S'2013'
p411
sg17
g3
sg18
S'--'
p412
sg20
S'09/08'
p413
sg22
S'--'
p414
sg24
S'Lance Dunbar'
p415
sg26
S'--'
p416
sg28
S'W36-31'
p417
sg30
S'--'
p418
sg32
S'--'
p419
sg34
S'NYG'
p420
sg36
S'--'
p421
sg38
S'--'
p422
sg40
S'--'
p423
ssg42
(dp424
g5
S'--'
p425
sg7
S'--'
p426
sg9
g10
sg11
S'--'
p427
sg13
g3
sg14
S'--'
p428
sg15
S'2013'
p429
sg17
g42
sg18
S'3.8'
p430
sg20
S'09/22'
p431
sg22
g10
sg24
S'Lance Dunbar'
p432
sg26
g56
sg28
S'W31-7'
p433
sg30
S'--'
p434
sg32
S'--'
p435
sg34
S'STL'
p436
sg36
S'--'
p437
sg38
S'19'
p438
sg40
g33
ssg57
(dp439
g5
S'4.0'
p440
sg7
g3
sg9
g10
sg11
g3
sg13
g3
sg14
g10
sg15
S'2013'
p441
sg17
g57
sg18
S'12.0'
p442
sg20
S'09/15'
p443
sg22
g10
sg24
S'Lance Dunbar'
p444
sg26
g3
sg28
S'L16-17'
p445
sg30
g70
sg32
g3
sg34
S'@KC'
p446
sg36
g70
sg38
S'12'
p447
sg40
S'12'
p448
ssg56
(dp449
g5
S'--'
p450
sg7
S'--'
p451
sg9
g10
sg11
S'--'
p452
sg13
g3
sg14
S'--'
p453
sg15
S'2013'
p454
sg17
g56
sg18
S'--'
p455
sg20
S'10/06'
p456
sg22
S'--'
p457
sg24
S'Lance Dunbar'
p458
sg26
S'--'
p459
sg28
S'L48-51'
p460
sg30
S'--'
p461
sg32
S'--'
p462
sg34
S'DEN'
p463
sg36
S'--'
p464
sg38
S'--'
p465
sg40
S'--'
p466
ssg70
(dp467
g5
S'--'
p468
sg7
S'--'
p469
sg9
g10
sg11
S'--'
p470
sg13
g3
sg14
S'--'
p471
sg15
S'2013'
p472
sg17
g70
sg18
S'7.0'
p473
sg20
S'09/29'
p474
sg22
g10
sg24
S'Lance Dunbar'
p475
sg26
g3
sg28
S'L21-30'
p476
sg30
S'--'
p477
sg32
S'--'
p478
sg34
S'@SD'
p479
sg36
S'--'
p480
sg38
g109
sg40
g109
ssg109
(dp481
g5
S'--'
p482
sg7
S'--'
p483
sg9
g10
sg11
S'--'
p484
sg13
g10
sg14
S'--'
p485
sg15
S'2013'
p486
sg17
g109
sg18
S'--'
p487
sg20
S'10/20'
p488
sg22
S'--'
p489
sg24
S'Lance Dunbar'
p490
sg26
S'--'
p491
sg28
S'W17-3'
p492
sg30
S'--'
p493
sg32
S'--'
p494
sg34
S'@PHI'
p495
sg36
S'--'
p496
sg38
S'--'
p497
sg40
S'--'
p498
ssg160
(dp499
g5
S'--'
p500
sg7
S'--'
p501
sg9
g10
sg11
S'--'
p502
sg13
g10
sg14
S'--'
p503
sg15
S'2013'
p504
sg17
g160
sg18
S'--'
p505
sg20
S'10/13'
p506
sg22
S'--'
p507
sg24
S'Lance Dunbar'
p508
sg26
S'--'
p509
sg28
S'W31-16'
p510
sg30
S'--'
p511
sg32
S'--'
p512
sg34
S'WAS'
p513
sg36
S'--'
p514
sg38
S'--'
p515
sg40
S'--'
p516
ssg324
(dp517
g5
S'5.7'
p518
sg7
S'--'
p519
sg9
g10
sg11
S'--'
p520
sg13
g3
sg14
g10
sg15
S'2013'
p521
sg17
g324
sg18
S'-2.0'
p522
sg20
S'11/03'
p523
sg22
g10
sg24
S'Lance Dunbar'
p524
sg26
g42
sg28
S'W27-23'
p525
sg30
S'17'
p526
sg32
g42
sg34
S'MIN'
p527
sg36
g33
sg38
S'-6'
p528
sg40
g57
ssg33
(dp529
g5
S'--'
p530
sg7
S'--'
p531
sg9
g10
sg11
S'--'
p532
sg13
g3
sg14
S'--'
p533
sg15
S'2013'
p534
sg17
g33
sg18
S'3.2'
p535
sg20
S'10/27'
p536
sg22
g10
sg24
S'Lance Dunbar'
p537
sg26
g56
sg28
S'L30-31'
p538
sg30
S'--'
p539
sg32
S'--'
p540
sg34
S'@DET'
p541
sg36
S'--'
p542
sg38
S'16'
p543
sg40
g160
sssS'2012'
p544
(dp545
g89
(dp546
g5
S'3.0'
p547
sg7
S'--'
p548
sg9
g10
sg11
S'--'
p549
sg13
g3
sg14
g10
sg15
S'2012'
p550
sg17
S'11'
p551
sg18
S'2.0'
p552
sg20
S'11/18'
p553
sg22
g10
sg24
S'Lance Dunbar'
p554
sg26
g56
sg28
S'W23-20'
p555
sg30
g160
sg32
g57
sg34
S'CLE'
p556
sg36
g160
sg38
S'10'
p557
sg40
g109
ssg96
(dp558
g5
S'--'
p559
sg7
g3
sg9
g10
sg11
g10
sg13
g3
sg14
S'--'
p560
sg15
S'2012'
p561
sg17
S'10'
p562
sg18
S'3.3'
p563
sg20
S'11/11'
p564
sg22
g10
sg24
S'Lance Dunbar'
p565
sg26
g160
sg28
S'W38-23'
p566
sg30
S'--'
p567
sg32
S'--'
p568
sg34
S'@PHI'
p569
sg36
S'--'
p570
sg38
S'20'
p571
sg40
g56
ssg113
(dp572
g5
S'--'
p573
sg7
S'--'
p574
sg9
g10
sg11
S'--'
p575
sg13
g3
sg14
S'--'
p576
sg15
S'2012'
p577
sg17
S'13'
p578
sg18
S'--'
p579
sg20
S'12/02'
p580
sg22
S'--'
p581
sg24
S'Lance Dunbar'
p582
sg26
S'--'
p583
sg28
S'W38-33'
p584
sg30
S'--'
p585
sg32
S'--'
p586
sg34
S'PHI'
p587
sg36
S'--'
p588
sg38
S'--'
p589
sg40
S'--'
p590
ssg131
(dp591
g5
S'7.0'
p592
sg7
S'--'
p593
sg9
g10
sg11
S'--'
p594
sg13
g3
sg14
g10
sg15
S'2012'
p595
sg17
S'12'
p596
sg18
S'8.0'
p597
sg20
S'11/22'
p598
sg22
g10
sg24
S'Lance Dunbar'
p599
sg26
g3
sg28
S'L31-38'
p600
sg30
S'21'
p601
sg32
g42
sg34
S'WAS'
p602
sg36
S'14'
p603
sg38
g33
sg40
g33
ssg149
(dp604
g5
S'--'
p605
sg7
S'--'
p606
sg9
g10
sg11
S'--'
p607
sg13
g3
sg14
S'--'
p608
sg15
S'2012'
p609
sg17
S'15'
p610
sg18
S'--'
p611
sg20
S'12/16'
p612
sg22
S'--'
p613
sg24
S'Lance Dunbar'
p614
sg26
S'--'
p615
sg28
S'W27-24'
p616
sg30
S'--'
p617
sg32
S'--'
p618
sg34
S'PIT'
p619
sg36
S'--'
p620
sg38
S'--'
p621
sg40
S'--'
p622
ssg163
(dp623
g5
S'6.0'
p624
sg7
S'--'
p625
sg9
g10
sg11
S'--'
p626
sg13
g3
sg14
g10
sg15
S'2012'
p627
sg17
S'14'
p628
sg18
S'--'
p629
sg20
S'12/09'
p630
sg22
S'--'
p631
sg24
S'Lance Dunbar'
p632
sg26
S'--'
p633
sg28
S'W20-19'
p634
sg30
g160
sg32
g3
sg34
S'@CIN'
p635
sg36
g160
sg38
S'--'
p636
sg40
S'--'
p637
ssg183
(dp638
g5
S'--'
p639
sg7
S'--'
p640
sg9
g10
sg11
S'--'
p641
sg13
g3
sg14
S'--'
p642
sg15
S'2012'
p643
sg17
S'17'
p644
sg18
S'--'
p645
sg20
S'12/30'
p646
sg22
S'--'
p647
sg24
S'Lance Dunbar'
p648
sg26
S'--'
p649
sg28
S'L18-28'
p650
sg30
S'--'
p651
sg32
S'--'
p652
sg34
S'@WAS'
p653
sg36
S'--'
p654
sg38
S'--'
p655
sg40
S'--'
p656
ssg199
(dp657
g5
S'--'
p658
sg7
S'--'
p659
sg9
g10
sg11
S'--'
p660
sg13
g3
sg14
S'--'
p661
sg15
S'2012'
p662
sg17
S'16'
p663
sg18
S'--'
p664
sg20
S'12/23'
p665
sg22
S'--'
p666
sg24
S'Lance Dunbar'
p667
sg26
S'--'
p668
sg28
S'L31-34'
p669
sg30
S'--'
p670
sg32
S'--'
p671
sg34
S'NO'
p672
sg36
S'--'
p673
sg38
S'--'
p674
sg40
S'--'
p675
ssg56
(dp676
g5
g91
sg7
g91
sg9
g91
sg11
g91
sg13
g91
sg14
g91
sg15
S'2012'
p677
sg17
g56
sg18
g91
sg20
S'Bye'
p678
sg22
g91
sg24
S'Lance Dunbar'
p679
sg26
g91
sg28
g91
sg30
g91
sg32
g91
sg34
g91
sg36
g91
sg38
g91
sg40
g91
ssg109
(dp680
g5
S'--'
p681
sg7
S'--'
p682
sg9
g10
sg11
S'--'
p683
sg13
g3
sg14
S'--'
p684
sg15
S'2012'
p685
sg17
g109
sg18
S'--'
p686
sg20
S'10/21'
p687
sg22
S'--'
p688
sg24
S'Lance Dunbar'
p689
sg26
S'--'
p690
sg28
S'W19-14'
p691
sg30
S'--'
p692
sg32
S'--'
p693
sg34
S'@CAR'
p694
sg36
S'--'
p695
sg38
S'--'
p696
sg40
S'--'
p697
ssg160
(dp698
g5
S'--'
p699
sg7
S'--'
p700
sg9
g10
sg11
S'--'
p701
sg13
g3
sg14
S'--'
p702
sg15
S'2012'
p703
sg17
g160
sg18
S'11.0'
p704
sg20
S'10/14'
p705
sg22
g10
sg24
S'Lance Dunbar'
p706
sg26
g3
sg28
S'L29-31'
p707
sg30
S'--'
p708
sg32
S'--'
p709
sg34
S'@BAL'
p710
sg36
S'--'
p711
sg38
S'11'
p712
sg40
S'11'
p713
ssg324
(dp714
g5
S'--'
p715
sg7
S'--'
p716
sg9
g10
sg11
S'--'
p717
sg13
g3
sg14
g10
sg15
S'2012'
p718
sg17
g324
sg18
S'3.3'
p719
sg20
S'11/04'
p720
sg22
g10
sg24
S'Lance Dunbar'
p721
sg26
g33
sg28
S'L13-19'
p722
sg30
g10
sg32
g10
sg34
S'@ATL'
p723
sg36
S'--'
p724
sg38
S'26'
p725
sg40
S'18'
p726
ssg33
(dp727
g5
S'--'
p728
sg7
S'--'
p729
sg9
g10
sg11
S'--'
p730
sg13
g3
sg14
S'--'
p731
sg15
S'2012'
p732
sg17
g33
sg18
S'--'
p733
sg20
S'10/28'
p734
sg22
S'--'
p735
sg24
S'Lance Dunbar'
p736
sg26
S'--'
p737
sg28
S'L24-29'
p738
sg30
S'--'
p739
sg32
S'--'
p740
sg34
S'NYG'
p741
sg36
S'--'
p742
sg38
S'--'
p743
sg40
S'--'
p744
sss.