(dp0
S'2015'
p1
(dp2
S'11'
p3
(dp4
S'RecAvg'
p5
S'--'
p6
sS'FUM'
p7
S'--'
p8
sS'GS'
p9
S'1'
p10
sS'Lost'
p11
S'--'
p12
sS'G'
p13
g10
sS'RecTD'
p14
S'--'
p15
sS'Year'
p16
S'2015'
p17
sS'WK'
p18
S'11'
p19
sS'RushAvg'
p20
S'2.2'
p21
sS'Game Date'
p22
S'11/22'
p23
sS'RushTD'
p24
g10
sS'Player'
p25
S'Latavius Murray'
p26
sS'RushAtt'
p27
S'13'
p28
sS'Result'
p29
S'L13-18'
p30
sS'RecYds'
p31
S'--'
p32
sS'Rec'
p33
S'--'
p34
sS'Opp'
p35
S'@DET'
p36
sS'RecLng'
p37
S'--'
p38
sS'RushYds'
p39
S'28'
p40
sS'RushLng'
p41
S'16'
p42
ssS'10'
p43
(dp44
g5
S'5.8'
p45
sg7
S'--'
p46
sg9
g10
sg11
S'--'
p47
sg13
g10
sg14
S'0'
p48
sg16
S'2015'
p49
sg18
S'10'
p50
sg20
S'4.0'
p51
sg22
S'11/15'
p52
sg24
g48
sg25
S'Latavius Murray'
p53
sg27
S'12'
p54
sg29
S'L14-30'
p55
sg31
S'29'
p56
sg33
S'5'
p57
sg35
S'MIN'
p58
sg37
S'8'
p59
sg39
S'48'
p60
sg41
S'14'
p61
ssS'13'
p62
(dp63
g5
S'2.8'
p64
sg7
S'2'
p65
sg9
g10
sg11
g48
sg13
g10
sg14
g48
sg16
S'2015'
p66
sg18
S'13'
p67
sg20
S'4.3'
p68
sg22
S'12/06'
p69
sg24
g10
sg25
S'Latavius Murray'
p70
sg27
S'20'
p71
sg29
S'L20-34'
p72
sg31
S'11'
p73
sg33
S'4'
p74
sg35
S'KC'
p75
sg37
S'9'
p76
sg39
S'86'
p77
sg41
S'35'
p78
ssS'12'
p79
(dp80
g5
S'23.0'
p81
sg7
S'--'
p82
sg9
g10
sg11
S'--'
p83
sg13
g10
sg14
g48
sg16
S'2015'
p84
sg18
S'12'
p85
sg20
S'2.7'
p86
sg22
S'11/29'
p87
sg24
g48
sg25
S'Latavius Murray'
p88
sg27
S'22'
p89
sg29
S'W24-21'
p90
sg31
S'23'
p91
sg33
g10
sg35
S'@TEN'
p92
sg37
S'23'
p93
sg39
S'59'
p94
sg41
g59
ssS'15'
p95
(dp96
g5
S'2.0'
p97
sg7
S'--'
p98
sg9
g10
sg11
S'--'
p99
sg13
g10
sg14
g48
sg16
S'2015'
p100
sg18
S'15'
p101
sg20
S'3.7'
p102
sg22
S'12/20'
p103
sg24
g48
sg25
S'Latavius Murray'
p104
sg27
S'21'
p105
sg29
S'L20-30'
p106
sg31
g65
sg33
g10
sg35
S'GB'
p107
sg37
g65
sg39
S'78'
p108
sg41
S'22'
p109
ssS'14'
p110
(dp111
g5
S'--'
p112
sg7
S'--'
p113
sg9
g10
sg11
S'--'
p114
sg13
g10
sg14
g48
sg16
S'2015'
p115
sg18
S'14'
p116
sg20
S'1.7'
p117
sg22
S'12/13'
p118
sg24
g48
sg25
S'Latavius Murray'
p119
sg27
S'16'
p120
sg29
S'W15-12'
p121
sg31
g48
sg33
g48
sg35
S'@DEN'
p122
sg37
S'--'
p123
sg39
S'27'
p124
sg41
S'7'
p125
ssS'17'
p126
(dp127
g5
S'6.3'
p128
sg7
S'--'
p129
sg9
g10
sg11
S'--'
p130
sg13
g10
sg14
g48
sg16
S'2015'
p131
sg18
S'17'
p132
sg20
S'2.8'
p133
sg22
S'01/03'
p134
sg24
g48
sg25
S'Latavius Murray'
p135
sg27
S'11'
p136
sg29
S'L17-23'
p137
sg31
S'25'
p138
sg33
g74
sg35
S'@KC'
p139
sg37
S'11'
p140
sg39
S'31'
p141
sg41
g76
ssS'16'
p142
(dp143
g5
S'7.6'
p144
sg7
S'--'
p145
sg9
g10
sg11
S'--'
p146
sg13
g10
sg14
g48
sg16
S'2015'
p147
sg18
S'16'
p148
sg20
S'4.2'
p149
sg22
S'12/24'
p150
sg24
g10
sg25
S'Latavius Murray'
p151
sg27
S'19'
p152
sg29
S'W23-20'
p153
sg31
S'38'
p154
sg33
g57
sg35
S'SD'
p155
sg37
S'14'
p156
sg39
S'79'
p157
sg41
S'22T'
p158
ssg10
(dp159
g5
S'5.1'
p160
sg7
S'--'
p161
sg9
g10
sg11
S'--'
p162
sg13
g10
sg14
g48
sg16
S'2015'
p163
sg18
g10
sg20
S'4.0'
p164
sg22
S'09/13'
p165
sg24
g48
sg25
S'Latavius Murray'
p166
sg27
S'11'
p167
sg29
S'L13-33'
p168
sg31
S'36'
p169
sg33
g125
sg35
S'CIN'
p170
sg37
S'11'
p171
sg39
S'44'
p172
sg41
S'12'
p173
ssS'3'
p174
(dp175
g5
S'10.0'
p176
sg7
S'--'
p177
sg9
g10
sg11
S'--'
p178
sg13
g10
sg14
g48
sg16
S'2015'
p179
sg18
g174
sg20
S'5.3'
p180
sg22
S'09/27'
p181
sg24
g10
sg25
S'Latavius Murray'
p182
sg27
S'26'
p183
sg29
S'W27-20'
p184
sg31
S'10'
p185
sg33
g10
sg35
S'@CLE'
p186
sg37
S'10'
p187
sg39
S'139'
p188
sg41
S'54'
p189
ssg65
(dp190
g5
S'7.3'
p191
sg7
S'--'
p192
sg9
g10
sg11
S'--'
p193
sg13
g10
sg14
g48
sg16
S'2015'
p194
sg18
g65
sg20
S'4.3'
p195
sg22
S'09/20'
p196
sg24
g10
sg25
S'Latavius Murray'
p197
sg27
S'15'
p198
sg29
S'W37-33'
p199
sg31
S'22'
p200
sg33
g174
sg35
S'BAL'
p201
sg37
S'12'
p202
sg39
S'65'
p203
sg41
g76
ssg57
(dp204
g5
S'6.0'
p205
sg7
S'--'
p206
sg9
g10
sg11
S'--'
p207
sg13
g10
sg14
g48
sg16
S'2015'
p208
sg18
g57
sg20
S'3.0'
p209
sg22
S'10/11'
p210
sg24
g48
sg25
S'Latavius Murray'
p211
sg27
S'13'
p212
sg29
S'L10-16'
p213
sg31
S'18'
p214
sg33
g174
sg35
S'DEN'
p215
sg37
S'14'
p216
sg39
S'39'
p217
sg41
S'11'
p218
ssg74
(dp219
g5
S'4.0'
p220
sg7
S'--'
p221
sg9
g10
sg11
S'--'
p222
sg13
g10
sg14
g48
sg16
S'2015'
p223
sg18
g74
sg20
S'3.3'
p224
sg22
S'10/04'
p225
sg24
g48
sg25
S'Latavius Murray'
p226
sg27
S'15'
p227
sg29
S'L20-22'
p228
sg31
S'12'
p229
sg33
g174
sg35
S'@CHI'
p230
sg37
S'11'
p231
sg39
S'49'
p232
sg41
g59
ssg125
(dp233
g5
S'1.0'
p234
sg7
S'--'
p235
sg9
g10
sg11
S'--'
p236
sg13
g10
sg14
g48
sg16
S'2015'
p237
sg18
g125
sg20
S'5.7'
p238
sg22
S'10/25'
p239
sg24
g10
sg25
S'Latavius Murray'
p240
sg27
S'15'
p241
sg29
S'W37-29'
p242
sg31
g10
sg33
g10
sg35
S'@SD'
p243
sg37
g10
sg39
S'85'
p244
sg41
S'24'
p245
ssS'6'
p246
(dp247
g5
S''
p248
sg7
g248
sg9
g248
sg11
g248
sg13
g248
sg14
g248
sg16
S'2015'
p249
sg18
g246
sg20
g248
sg22
S'Bye'
p250
sg24
g248
sg25
S'Latavius Murray'
p251
sg27
g248
sg29
g248
sg31
g248
sg33
g248
sg35
g248
sg37
g248
sg39
g248
sg41
g248
ssg76
(dp252
g5
S'-0.5'
p253
sg7
g65
sg9
g10
sg11
g10
sg13
g10
sg14
g48
sg16
S'2015'
p254
sg18
g76
sg20
S'5.6'
p255
sg22
S'11/08'
p256
sg24
g48
sg25
S'Latavius Murray'
p257
sg27
S'17'
p258
sg29
S'L35-38'
p259
sg31
S'-1'
p260
sg33
g65
sg35
S'@PIT'
p261
sg37
g174
sg39
S'96'
p262
sg41
S'44'
p263
ssg59
(dp264
g5
S'6.0'
p265
sg7
S'--'
p266
sg9
g10
sg11
S'--'
p267
sg13
g10
sg14
g48
sg16
S'2015'
p268
sg18
g59
sg20
S'5.6'
p269
sg22
S'11/01'
p270
sg24
g48
sg25
S'Latavius Murray'
p271
sg27
S'20'
p272
sg29
S'W34-20'
p273
sg31
g246
sg33
g10
sg35
S'NYJ'
p274
sg37
g246
sg39
S'113'
p275
sg41
S'26'
p276
sssS'2014'
p277
(dp278
g3
(dp279
g5
S'5.3'
p280
sg7
S'--'
p281
sg9
g48
sg11
S'--'
p282
sg13
g10
sg14
g48
sg16
S'2014'
p283
sg18
S'11'
p284
sg20
S'10.8'
p285
sg22
S'11/16'
p286
sg24
g48
sg25
S'Latavius Murray'
p287
sg27
g74
sg29
S'L6-13'
p288
sg31
S'16'
p289
sg33
g174
sg35
S'@SD'
p290
sg37
S'10'
p291
sg39
S'43'
p292
sg41
S'23'
p293
ssg43
(dp294
g5
S'7.0'
p295
sg7
S'--'
p296
sg9
g48
sg11
S'--'
p297
sg13
g10
sg14
g48
sg16
S'2014'
p298
sg18
S'10'
p299
sg20
S'2.0'
p300
sg22
S'11/09'
p301
sg24
g48
sg25
S'Latavius Murray'
p302
sg27
g65
sg29
S'L17-41'
p303
sg31
g125
sg33
g10
sg35
S'DEN'
p304
sg37
g125
sg39
g74
sg41
g174
ssg62
(dp305
g5
S'--'
p306
sg7
S'--'
p307
sg9
g48
sg11
S'--'
p308
sg13
g48
sg14
S'--'
p309
sg16
S'2014'
p310
sg18
S'13'
p311
sg20
S'--'
p312
sg22
S'11/30'
p313
sg24
S'--'
p314
sg25
S'Latavius Murray'
p315
sg27
S'--'
p316
sg29
S'L0-52'
p317
sg31
S'--'
p318
sg33
S'--'
p319
sg35
S'@STL'
p320
sg37
S'--'
p321
sg39
S'--'
p322
sg41
S'--'
p323
ssg79
(dp324
g5
S'--'
p325
sg7
g10
sg9
g48
sg11
g48
sg13
g10
sg14
S'--'
p326
sg16
S'2014'
p327
sg18
S'12'
p328
sg20
S'28.0'
p329
sg22
S'11/20'
p330
sg24
g65
sg25
S'Latavius Murray'
p331
sg27
g74
sg29
S'W24-20'
p332
sg31
S'--'
p333
sg33
S'--'
p334
sg35
S'KC'
p335
sg37
S'--'
p336
sg39
S'112'
p337
sg41
S'90T'
p338
ssg95
(dp339
g5
S'8.5'
p340
sg7
S'--'
p341
sg9
g10
sg11
S'--'
p342
sg13
g10
sg14
g48
sg16
S'2014'
p343
sg18
S'15'
p344
sg20
S'4.9'
p345
sg22
S'12/14'
p346
sg24
g48
sg25
S'Latavius Murray'
p347
sg27
S'12'
p348
sg29
S'L13-31'
p349
sg31
S'17'
p350
sg33
g65
sg35
S'@KC'
p351
sg37
S'11'
p352
sg39
S'59'
p353
sg41
S'25'
p354
ssg110
(dp355
g5
S'4.5'
p356
sg7
S'--'
p357
sg9
g48
sg11
S'--'
p358
sg13
g10
sg14
g48
sg16
S'2014'
p359
sg18
S'14'
p360
sg20
S'3.3'
p361
sg22
S'12/07'
p362
sg24
g48
sg25
S'Latavius Murray'
p363
sg27
S'23'
p364
sg29
S'W24-13'
p365
sg31
g76
sg33
g65
sg35
S'SF'
p366
sg37
g57
sg39
S'76'
p367
sg41
S'16'
p368
ssg126
(dp369
g5
S'15.0'
p370
sg7
S'--'
p371
sg9
g10
sg11
S'--'
p372
sg13
g10
sg14
g48
sg16
S'2014'
p373
sg18
S'17'
p374
sg20
S'3.7'
p375
sg22
S'12/28'
p376
sg24
g48
sg25
S'Latavius Murray'
p377
sg27
S'10'
p378
sg29
S'L14-47'
p379
sg31
S'60'
p380
sg33
g74
sg35
S'@DEN'
p381
sg37
S'46'
p382
sg39
S'37'
p383
sg41
g59
ssg142
(dp384
g5
S'7.3'
p385
sg7
S'--'
p386
sg9
g10
sg11
S'--'
p387
sg13
g10
sg14
g48
sg16
S'2014'
p388
sg18
S'16'
p389
sg20
S'3.7'
p390
sg22
S'12/21'
p391
sg24
g48
sg25
S'Latavius Murray'
p392
sg27
S'23'
p393
sg29
S'W26-24'
p394
sg31
S'22'
p395
sg33
g174
sg35
S'BUF'
p396
sg37
S'19'
p397
sg39
S'86'
p398
sg41
S'25'
p399
ssg10
(dp400
g5
S'--'
p401
sg7
S'--'
p402
sg9
g48
sg11
S'--'
p403
sg13
g10
sg14
S'--'
p404
sg16
S'2014'
p405
sg18
g10
sg20
S'--'
p406
sg22
S'09/07'
p407
sg24
S'--'
p408
sg25
S'Latavius Murray'
p409
sg27
S'--'
p410
sg29
S'L14-19'
p411
sg31
S'--'
p412
sg33
S'--'
p413
sg35
S'@NYJ'
p414
sg37
S'--'
p415
sg39
S'--'
p416
sg41
S'--'
p417
ssg174
(dp418
g5
S'--'
p419
sg7
S'--'
p420
sg9
g48
sg11
S'--'
p421
sg13
g10
sg14
S'--'
p422
sg16
S'2014'
p423
sg18
g174
sg20
S'0.3'
p424
sg22
S'09/21'
p425
sg24
g48
sg25
S'Latavius Murray'
p426
sg27
g174
sg29
S'L9-16'
p427
sg31
S'--'
p428
sg33
S'--'
p429
sg35
S'@NE'
p430
sg37
S'--'
p431
sg39
g10
sg41
g10
ssg65
(dp432
g5
S'--'
p433
sg7
S'--'
p434
sg9
g48
sg11
S'--'
p435
sg13
g10
sg14
S'--'
p436
sg16
S'2014'
p437
sg18
g65
sg20
S'6.0'
p438
sg22
S'09/14'
p439
sg24
g48
sg25
S'Latavius Murray'
p440
sg27
g10
sg29
S'L14-30'
p441
sg31
S'--'
p442
sg33
S'--'
p443
sg35
S'HOU'
p444
sg37
S'--'
p445
sg39
g246
sg41
g246
ssg57
(dp446
g5
g248
sg7
g248
sg9
g248
sg11
g248
sg13
g248
sg14
g248
sg16
S'2014'
p447
sg18
g57
sg20
g248
sg22
S'Bye'
p448
sg24
g248
sg25
S'Latavius Murray'
p449
sg27
g248
sg29
g248
sg31
g248
sg33
g248
sg35
g248
sg37
g248
sg39
g248
sg41
g248
ssg74
(dp450
g5
S'--'
p451
sg7
S'--'
p452
sg9
g48
sg11
S'--'
p453
sg13
g10
sg14
S'--'
p454
sg16
S'2014'
p455
sg18
g74
sg20
S'--'
p456
sg22
S'09/28'
p457
sg24
S'--'
p458
sg25
S'Latavius Murray'
p459
sg27
S'--'
p460
sg29
S'L14-38'
p461
sg31
S'--'
p462
sg33
S'--'
p463
sg35
S'MIA'
p464
sg37
S'--'
p465
sg39
S'--'
p466
sg41
S'--'
p467
ssg125
(dp468
g5
S'--'
p469
sg7
S'--'
p470
sg9
g48
sg11
S'--'
p471
sg13
g10
sg14
S'--'
p472
sg16
S'2014'
p473
sg18
g125
sg20
S'--'
p474
sg22
S'10/19'
p475
sg24
S'--'
p476
sg25
S'Latavius Murray'
p477
sg27
S'--'
p478
sg29
S'L13-24'
p479
sg31
S'--'
p480
sg33
S'--'
p481
sg35
S'ARI'
p482
sg37
S'--'
p483
sg39
S'--'
p484
sg41
S'--'
p485
ssg246
(dp486
g5
S'--'
p487
sg7
S'--'
p488
sg9
g48
sg11
S'--'
p489
sg13
g10
sg14
S'--'
p490
sg16
S'2014'
p491
sg18
g246
sg20
S'--'
p492
sg22
S'10/12'
p493
sg24
S'--'
p494
sg25
S'Latavius Murray'
p495
sg27
S'--'
p496
sg29
S'L28-31'
p497
sg31
S'--'
p498
sg33
S'--'
p499
sg35
S'SD'
p500
sg37
S'--'
p501
sg39
S'--'
p502
sg41
S'--'
p503
ssg76
(dp504
g5
S'6.0'
p505
sg7
S'--'
p506
sg9
g48
sg11
S'--'
p507
sg13
g10
sg14
g48
sg16
S'2014'
p508
sg18
g76
sg20
S'--'
p509
sg22
S'11/02'
p510
sg24
S'--'
p511
sg25
S'Latavius Murray'
p512
sg27
S'--'
p513
sg29
S'L24-30'
p514
sg31
S'12'
p515
sg33
g65
sg35
S'@SEA'
p516
sg37
S'13'
p517
sg39
S'--'
p518
sg41
S'--'
p519
ssg59
(dp520
g5
S'--'
p521
sg7
S'--'
p522
sg9
g48
sg11
S'--'
p523
sg13
g10
sg14
S'--'
p524
sg16
S'2014'
p525
sg18
g59
sg20
S'--'
p526
sg22
S'10/26'
p527
sg24
S'--'
p528
sg25
S'Latavius Murray'
p529
sg27
S'--'
p530
sg29
S'L13-23'
p531
sg31
S'--'
p532
sg33
S'--'
p533
sg35
S'@CLE'
p534
sg37
S'--'
p535
sg39
S'--'
p536
sg41
S'--'
p537
sss.