(dp0
S'2015'
p1
(dp2
S'3'
p3
(dp4
S'RecAvg'
p5
S'10.0'
p6
sS'FUM'
p7
S'--'
p8
sS'GS'
p9
S'1'
p10
sS'Lost'
p11
S'--'
p12
sS'G'
p13
g10
sS'RecTD'
p14
S'0'
p15
sS'Year'
p16
S'2015'
p17
sS'WK'
p18
g3
sS'RushAvg'
p19
S'3.3'
p20
sS'Game Date'
p21
S'09/27'
p22
sS'RushTD'
p23
g10
sS'Player'
p24
S"Le'Veon Bell"
p25
sS'RushAtt'
p26
S'19'
p27
sS'Result'
p28
S'W12-6'
p29
sS'RecYds'
p30
S'70'
p31
sS'Rec'
p32
S'7'
p33
sS'Opp'
p34
S'@STL'
p35
sS'RecLng'
p36
S'20'
p37
sS'RushYds'
p38
S'62'
p39
sS'RushLng'
p40
S'23'
p41
ssS'5'
p42
(dp43
g5
S'4.0'
p44
sg7
S'--'
p45
sg9
g10
sg11
S'--'
p46
sg13
g10
sg14
g15
sg16
S'2015'
p47
sg18
g42
sg19
S'5.3'
p48
sg21
S'10/12'
p49
sg23
g10
sg24
S"Le'Veon Bell"
p50
sg26
S'21'
p51
sg28
S'W24-20'
p52
sg30
S'16'
p53
sg32
S'4'
p54
sg34
S'@SD'
p55
sg36
S'9'
p56
sg38
S'111'
p57
sg40
S'32'
p58
ssg54
(dp59
g5
S'3.0'
p60
sg7
S'--'
p61
sg9
g10
sg11
S'--'
p62
sg13
g10
sg14
g15
sg16
S'2015'
p63
sg18
g54
sg19
S'5.9'
p64
sg21
S'10/01'
p65
sg23
g10
sg24
S"Le'Veon Bell"
p66
sg26
S'22'
p67
sg28
S'L20-23'
p68
sg30
S'21'
p69
sg32
g33
sg34
S'BAL'
p70
sg36
g56
sg38
S'129'
p71
sg40
S'22'
p72
ssg33
(dp73
g5
S'4.0'
p74
sg7
S'--'
p75
sg9
g10
sg11
S'--'
p76
sg13
g10
sg14
g15
sg16
S'2015'
p77
sg18
g33
sg19
S'7.1'
p78
sg21
S'10/25'
p79
sg23
g15
sg24
S"Le'Veon Bell"
p80
sg26
S'17'
p81
sg28
S'L13-23'
p82
sg30
S'16'
p83
sg32
g54
sg34
S'@KC'
p84
sg36
g33
sg38
S'121'
p85
sg40
S'42'
p86
ssS'6'
p87
(dp88
g5
S'--'
p89
sg7
S'--'
p90
sg9
g10
sg11
S'--'
p91
sg13
g10
sg14
S'--'
p92
sg16
S'2015'
p93
sg18
g87
sg19
S'3.7'
p94
sg21
S'10/18'
p95
sg23
g15
sg24
S"Le'Veon Bell"
p96
sg26
S'24'
p97
sg28
S'W25-13'
p98
sg30
S'--'
p99
sg32
S'--'
p100
sg34
S'ARI'
p101
sg36
S'--'
p102
sg38
S'88'
p103
sg40
S'22'
p104
ssS'8'
p105
(dp106
g5
S'6.5'
p107
sg7
S'--'
p108
sg9
g10
sg11
S'--'
p109
sg13
g10
sg14
g15
sg16
S'2015'
p110
sg18
g105
sg19
S'4.5'
p111
sg21
S'11/01'
p112
sg23
g15
sg24
S"Le'Veon Bell"
p113
sg26
S'10'
p114
sg28
S'L10-16'
p115
sg30
S'13'
p116
sg32
S'2'
p117
sg34
S'CIN'
p118
sg36
g105
sg38
S'45'
p119
sg40
g33
sssS'2014'
p120
(dp121
S'11'
p122
(dp123
g5
S'9.0'
p124
sg7
S'--'
p125
sg9
g10
sg11
S'--'
p126
sg13
g10
sg14
g15
sg16
S'2014'
p127
sg18
S'11'
p128
sg19
S'6.2'
p129
sg21
S'11/17'
p130
sg23
g10
sg24
S"Le'Veon Bell"
p131
sg26
S'33'
p132
sg28
S'W27-24'
p133
sg30
S'18'
p134
sg32
g117
sg34
S'@TEN'
p135
sg36
S'10'
p136
sg38
S'204'
p137
sg40
S'27'
p138
ssS'10'
p139
(dp140
g5
S'4.1'
p141
sg7
S'--'
p142
sg9
g10
sg11
S'--'
p143
sg13
g10
sg14
g15
sg16
S'2014'
p144
sg18
S'10'
p145
sg19
S'3.3'
p146
sg21
S'11/09'
p147
sg23
g15
sg24
S"Le'Veon Bell"
p148
sg26
S'11'
p149
sg28
S'L13-20'
p150
sg30
S'33'
p151
sg32
g105
sg34
S'@NYJ'
p152
sg36
S'10'
p153
sg38
S'36'
p154
sg40
g105
ssS'13'
p155
(dp156
g5
S'19.9'
p157
sg7
S'--'
p158
sg9
g10
sg11
S'--'
p159
sg13
g10
sg14
g15
sg16
S'2014'
p160
sg18
S'13'
p161
sg19
S'4.5'
p162
sg21
S'11/30'
p163
sg23
g10
sg24
S"Le'Veon Bell"
p164
sg26
S'21'
p165
sg28
S'L32-35'
p166
sg30
S'159'
p167
sg32
g105
sg34
S'NO'
p168
sg36
S'48'
p169
sg38
S'95'
p170
sg40
S'18'
p171
ssS'12'
p172
(dp173
g5
S''
p174
sg7
g174
sg9
g174
sg11
g174
sg13
g174
sg14
g174
sg16
S'2014'
p175
sg18
S'12'
p176
sg19
g174
sg21
S'Bye'
p177
sg23
g174
sg24
S"Le'Veon Bell"
p178
sg26
g174
sg28
g174
sg30
g174
sg32
g174
sg34
g174
sg36
g174
sg38
g174
sg40
g174
ssS'15'
p179
(dp180
g5
S'14.4'
p181
sg7
S'--'
p182
sg9
g10
sg11
S'--'
p183
sg13
g10
sg14
g15
sg16
S'2014'
p184
sg18
S'15'
p185
sg19
S'2.4'
p186
sg21
S'12/14'
p187
sg23
g117
sg24
S"Le'Veon Bell"
p188
sg26
S'20'
p189
sg28
S'W27-20'
p190
sg30
S'72'
p191
sg32
g42
sg34
S'@ATL'
p192
sg36
S'44'
p193
sg38
S'47'
p194
sg40
S'13T'
p195
ssS'14'
p196
(dp197
g5
S'8.3'
p198
sg7
S'--'
p199
sg9
g10
sg11
S'--'
p200
sg13
g10
sg14
g10
sg16
S'2014'
p201
sg18
S'14'
p202
sg19
S'7.1'
p203
sg21
S'12/07'
p204
sg23
g117
sg24
S"Le'Veon Bell"
p205
sg26
S'26'
p206
sg28
S'W42-21'
p207
sg30
S'50'
p208
sg32
g87
sg34
S'@CIN'
p209
sg36
S'10T'
p210
sg38
S'185'
p211
sg40
S'53'
p212
ssS'17'
p213
(dp214
g5
S'13.3'
p215
sg7
S'--'
p216
sg9
g10
sg11
S'--'
p217
sg13
g10
sg14
g15
sg16
S'2014'
p218
sg18
S'17'
p219
sg19
S'2.5'
p220
sg21
S'12/28'
p221
sg23
g15
sg24
S"Le'Veon Bell"
p222
sg26
g105
sg28
S'W27-17'
p223
sg30
S'80'
p224
sg32
g87
sg34
S'CIN'
p225
sg36
S'26'
p226
sg38
S'20'
p227
sg40
g87
ssS'16'
p228
(dp229
g5
S'9.0'
p230
sg7
S'--'
p231
sg9
g10
sg11
S'--'
p232
sg13
g10
sg14
g15
sg16
S'2014'
p233
sg18
S'16'
p234
sg19
S'3.2'
p235
sg21
S'12/21'
p236
sg23
g10
sg24
S"Le'Veon Bell"
p237
sg26
S'20'
p238
sg28
S'W20-12'
p239
sg30
g56
sg32
g10
sg34
S'KC'
p240
sg36
g56
sg38
S'63'
p241
sg40
g33
ssg10
(dp242
g5
S'14.7'
p243
sg7
S'--'
p244
sg9
g10
sg11
S'--'
p245
sg13
g10
sg14
g15
sg16
S'2014'
p246
sg18
g10
sg19
S'5.2'
p247
sg21
S'09/07'
p248
sg23
g10
sg24
S"Le'Veon Bell"
p249
sg26
S'21'
p250
sg28
S'W30-27'
p251
sg30
S'88'
p252
sg32
g87
sg34
S'CLE'
p253
sg36
S'30'
p254
sg38
S'109'
p255
sg40
S'38T'
p256
ssg3
(dp257
g5
S'5.0'
p258
sg7
S'--'
p259
sg9
g10
sg11
S'--'
p260
sg13
g10
sg14
g15
sg16
S'2014'
p261
sg18
g3
sg19
S'7.0'
p262
sg21
S'09/21'
p263
sg23
g15
sg24
S"Le'Veon Bell"
p264
sg26
S'21'
p265
sg28
S'W37-19'
p266
sg30
S'10'
p267
sg32
g117
sg34
S'@CAR'
p268
sg36
S'12'
p269
sg38
S'147'
p270
sg40
S'81'
p271
ssg117
(dp272
g5
S'9.6'
p273
sg7
S'--'
p274
sg9
g10
sg11
S'--'
p275
sg13
g10
sg14
g15
sg16
S'2014'
p276
sg18
g117
sg19
S'5.4'
p277
sg21
S'09/11'
p278
sg23
g15
sg24
S"Le'Veon Bell"
p279
sg26
S'11'
p280
sg28
S'L6-26'
p281
sg30
S'48'
p282
sg32
g42
sg34
S'@BAL'
p283
sg36
S'19'
p284
sg38
S'59'
p285
sg40
S'21'
p286
ssg42
(dp287
g5
S'7.2'
p288
sg7
S'--'
p289
sg9
g10
sg11
S'--'
p290
sg13
g10
sg14
g15
sg16
S'2014'
p291
sg18
g42
sg19
S'5.5'
p292
sg21
S'10/05'
p293
sg23
g15
sg24
S"Le'Veon Bell"
p294
sg26
S'15'
p295
sg28
S'W17-9'
p296
sg30
S'36'
p297
sg32
g42
sg34
S'@JAC'
p298
sg36
S'12'
p299
sg38
S'82'
p300
sg40
S'29'
p301
ssg54
(dp302
g5
S'7.7'
p303
sg7
S'--'
p304
sg9
g10
sg11
S'--'
p305
sg13
g10
sg14
g15
sg16
S'2014'
p306
sg18
g54
sg19
S'3.3'
p307
sg21
S'09/28'
p308
sg23
g15
sg24
S"Le'Veon Bell"
p309
sg26
S'19'
p310
sg28
S'L24-27'
p311
sg30
S'46'
p312
sg32
g87
sg34
S'TB'
p313
sg36
S'17'
p314
sg38
S'63'
p315
sg40
S'16'
p316
ssg33
(dp317
g5
S'11.0'
p318
sg7
S'--'
p319
sg9
g10
sg11
S'--'
p320
sg13
g10
sg14
g10
sg16
S'2014'
p321
sg18
g33
sg19
S'4.8'
p322
sg21
S'10/20'
p323
sg23
g15
sg24
S"Le'Veon Bell"
p324
sg26
S'12'
p325
sg28
S'W30-23'
p326
sg30
S'88'
p327
sg32
g105
sg34
S'HOU'
p328
sg36
S'43'
p329
sg38
S'57'
p330
sg40
S'20'
p331
ssg87
(dp332
g5
S'5.8'
p333
sg7
S'--'
p334
sg9
g10
sg11
S'--'
p335
sg13
g10
sg14
g15
sg16
S'2014'
p336
sg18
g87
sg19
S'4.6'
p337
sg21
S'10/12'
p338
sg23
g15
sg24
S"Le'Veon Bell"
p339
sg26
S'18'
p340
sg28
S'L10-31'
p341
sg30
S'23'
p342
sg32
g54
sg34
S'@CLE'
p343
sg36
S'16'
p344
sg38
S'82'
p345
sg40
S'12'
p346
ssg56
(dp347
g5
S'7.6'
p348
sg7
S'--'
p349
sg9
g10
sg11
S'--'
p350
sg13
g10
sg14
g10
sg16
S'2014'
p351
sg18
g56
sg19
S'2.0'
p352
sg21
S'11/02'
p353
sg23
g15
sg24
S"Le'Veon Bell"
p354
sg26
S'10'
p355
sg28
S'W43-23'
p356
sg30
S'38'
p357
sg32
g42
sg34
S'BAL'
p358
sg36
S'12'
p359
sg38
S'20'
p360
sg40
g42
ssg105
(dp361
g5
S'9.3'
p362
sg7
S'--'
p363
sg9
g10
sg11
S'--'
p364
sg13
g10
sg14
g15
sg16
S'2014'
p365
sg18
g105
sg19
S'3.8'
p366
sg21
S'10/26'
p367
sg23
g15
sg24
S"Le'Veon Bell"
p368
sg26
S'24'
p369
sg28
S'W51-34'
p370
sg30
S'56'
p371
sg32
g87
sg34
S'IND'
p372
sg36
S'17'
p373
sg38
S'92'
p374
sg40
S'17'
p375
sssS'2013'
p376
(dp377
g122
(dp378
g5
S'13.0'
p379
sg7
S'--'
p380
sg9
g10
sg11
S'--'
p381
sg13
g10
sg14
g15
sg16
S'2013'
p382
sg18
S'11'
p383
sg19
S'2.0'
p384
sg21
S'11/17'
p385
sg23
g15
sg24
S"Le'Veon Bell"
p386
sg26
S'18'
p387
sg28
S'W37-27'
p388
sg30
S'52'
p389
sg32
g54
sg34
S'DET'
p390
sg36
S'43'
p391
sg38
S'36'
p392
sg40
S'13'
p393
ssg139
(dp394
g5
S'13.0'
p395
sg7
S'--'
p396
sg9
g10
sg11
S'--'
p397
sg13
g10
sg14
g15
sg16
S'2013'
p398
sg18
S'10'
p399
sg19
S'2.6'
p400
sg21
S'11/10'
p401
sg23
g10
sg24
S"Le'Veon Bell"
p402
sg26
S'22'
p403
sg28
S'W23-10'
p404
sg30
S'39'
p405
sg32
g3
sg34
S'BUF'
p406
sg36
S'34'
p407
sg38
S'57'
p408
sg40
g56
ssg155
(dp409
g5
S'9.0'
p410
sg7
S'--'
p411
sg9
g10
sg11
S'--'
p412
sg13
g10
sg14
g15
sg16
S'2013'
p413
sg18
S'13'
p414
sg19
S'4.6'
p415
sg21
S'11/28'
p416
sg23
g10
sg24
S"Le'Veon Bell"
p417
sg26
S'16'
p418
sg28
S'L20-22'
p419
sg30
S'63'
p420
sg32
g33
sg34
S'@BAL'
p421
sg36
S'29'
p422
sg38
S'73'
p423
sg40
S'43'
p424
ssg172
(dp425
g5
S'9.0'
p426
sg7
S'--'
p427
sg9
g10
sg11
S'--'
p428
sg13
g10
sg14
g15
sg16
S'2013'
p429
sg18
S'12'
p430
sg19
S'3.5'
p431
sg21
S'11/24'
p432
sg23
g15
sg24
S"Le'Veon Bell"
p433
sg26
S'23'
p434
sg28
S'W27-11'
p435
sg30
S'18'
p436
sg32
g117
sg34
S'@CLE'
p437
sg36
S'11'
p438
sg38
S'80'
p439
sg40
S'13'
p440
ssg179
(dp441
g5
S'10.0'
p442
sg7
S'--'
p443
sg9
g10
sg11
S'--'
p444
sg13
g10
sg14
g15
sg16
S'2013'
p445
sg18
S'15'
p446
sg19
S'2.4'
p447
sg21
S'12/15'
p448
sg23
g10
sg24
S"Le'Veon Bell"
p449
sg26
S'24'
p450
sg28
S'W30-20'
p451
sg30
S'50'
p452
sg32
g42
sg34
S'CIN'
p453
sg36
S'17'
p454
sg38
S'57'
p455
sg40
g105
ssg196
(dp456
g5
S'3.8'
p457
sg7
S'--'
p458
sg9
g10
sg11
S'--'
p459
sg13
g10
sg14
g15
sg16
S'2013'
p460
sg18
S'14'
p461
sg19
S'4.1'
p462
sg21
S'12/08'
p463
sg23
g15
sg24
S"Le'Veon Bell"
p464
sg26
S'15'
p465
sg28
S'L28-34'
p466
sg30
S'19'
p467
sg32
g42
sg34
S'MIA'
p468
sg36
S'10'
p469
sg38
S'61'
p470
sg40
g56
ssg213
(dp471
g5
S'6.0'
p472
sg7
S'--'
p473
sg9
g10
sg11
S'--'
p474
sg13
g10
sg14
g15
sg16
S'2013'
p475
sg18
S'17'
p476
sg19
S'4.5'
p477
sg21
S'12/29'
p478
sg23
g10
sg24
S"Le'Veon Bell"
p479
sg26
S'20'
p480
sg28
S'W20-7'
p481
sg30
g87
sg32
g10
sg34
S'CLE'
p482
sg36
g87
sg38
S'90'
p483
sg40
S'15'
p484
ssg228
(dp485
g5
S'5.0'
p486
sg7
g10
sg9
g10
sg11
g10
sg13
g10
sg14
g15
sg16
S'2013'
p487
sg18
S'16'
p488
sg19
S'4.8'
p489
sg21
S'12/22'
p490
sg23
g10
sg24
S"Le'Veon Bell"
p491
sg26
S'26'
p492
sg28
S'W38-31'
p493
sg30
g42
sg32
g10
sg34
S'@GB'
p494
sg36
g42
sg38
S'124'
p495
sg40
S'25'
p496
ssg10
(dp497
g5
S'--'
p498
sg7
S'--'
p499
sg9
g15
sg11
S'--'
p500
sg13
g15
sg14
S'--'
p501
sg16
S'2013'
p502
sg18
g10
sg19
S'--'
p503
sg21
S'09/08'
p504
sg23
S'--'
p505
sg24
S"Le'Veon Bell"
p506
sg26
S'--'
p507
sg28
S'L9-16'
p508
sg30
S'--'
p509
sg32
S'--'
p510
sg34
S'TEN'
p511
sg36
S'--'
p512
sg38
S'--'
p513
sg40
S'--'
p514
ssg3
(dp515
g5
S'--'
p516
sg7
S'--'
p517
sg9
g15
sg11
S'--'
p518
sg13
g15
sg14
S'--'
p519
sg16
S'2013'
p520
sg18
g3
sg19
S'--'
p521
sg21
S'09/22'
p522
sg23
S'--'
p523
sg24
S"Le'Veon Bell"
p524
sg26
S'--'
p525
sg28
S'L23-40'
p526
sg30
S'--'
p527
sg32
S'--'
p528
sg34
S'CHI'
p529
sg36
S'--'
p530
sg38
S'--'
p531
sg40
S'--'
p532
ssg117
(dp533
g5
S'--'
p534
sg7
S'--'
p535
sg9
g15
sg11
S'--'
p536
sg13
g15
sg14
S'--'
p537
sg16
S'2013'
p538
sg18
g117
sg19
S'--'
p539
sg21
S'09/16'
p540
sg23
S'--'
p541
sg24
S"Le'Veon Bell"
p542
sg26
S'--'
p543
sg28
S'L10-20'
p544
sg30
S'--'
p545
sg32
S'--'
p546
sg34
S'@CIN'
p547
sg36
S'--'
p548
sg38
S'--'
p549
sg40
S'--'
p550
ssg42
(dp551
g5
g174
sg7
g174
sg9
g174
sg11
g174
sg13
g174
sg14
g174
sg16
S'2013'
p552
sg18
g42
sg19
g174
sg21
S'Bye'
p553
sg23
g174
sg24
S"Le'Veon Bell"
p554
sg26
g174
sg28
g174
sg30
g174
sg32
g174
sg34
g174
sg36
g174
sg38
g174
sg40
g174
ssg54
(dp555
g5
S'6.8'
p556
sg7
S'--'
p557
sg9
g10
sg11
S'--'
p558
sg13
g10
sg14
g15
sg16
S'2013'
p559
sg18
g54
sg19
S'3.6'
p560
sg21
S'09/29'
p561
sg23
g117
sg24
S"Le'Veon Bell"
p562
sg26
S'16'
p563
sg28
S'L27-34'
p564
sg30
S'27'
p565
sg32
g54
sg34
S'@MIN'
p566
sg36
S'19'
p567
sg38
S'57'
p568
sg40
S'11'
p569
ssg33
(dp570
g5
S'6.0'
p571
sg7
S'--'
p572
sg9
g10
sg11
S'--'
p573
sg13
g10
sg14
g15
sg16
S'2013'
p574
sg18
g33
sg19
S'4.9'
p575
sg21
S'10/20'
p576
sg23
g15
sg24
S"Le'Veon Bell"
p577
sg26
S'19'
p578
sg28
S'W19-16'
p579
sg30
g87
sg32
g10
sg34
S'BAL'
p580
sg36
g87
sg38
S'93'
p581
sg40
S'11'
p582
ssg87
(dp583
g5
S'7.3'
p584
sg7
S'--'
p585
sg9
g10
sg11
S'--'
p586
sg13
g10
sg14
g15
sg16
S'2013'
p587
sg18
g87
sg19
S'2.1'
p588
sg21
S'10/13'
p589
sg23
g15
sg24
S"Le'Veon Bell"
p590
sg26
S'16'
p591
sg28
S'W19-6'
p592
sg30
S'22'
p593
sg32
g3
sg34
S'@NYJ'
p594
sg36
S'12'
p595
sg38
S'34'
p596
sg40
g33
ssg56
(dp597
g5
S'16.3'
p598
sg7
S'--'
p599
sg9
g10
sg11
S'--'
p600
sg13
g10
sg14
g15
sg16
S'2013'
p601
sg18
g56
sg19
S'4.6'
p602
sg21
S'11/03'
p603
sg23
g15
sg24
S"Le'Veon Bell"
p604
sg26
S'16'
p605
sg28
S'L31-55'
p606
sg30
S'65'
p607
sg32
g54
sg34
S'@NE'
p608
sg36
S'29'
p609
sg38
S'74'
p610
sg40
S'25'
p611
ssg105
(dp612
g5
S'5.4'
p613
sg7
S'--'
p614
sg9
g10
sg11
S'--'
p615
sg13
g10
sg14
g15
sg16
S'2013'
p616
sg18
g105
sg19
S'1.8'
p617
sg21
S'10/27'
p618
sg23
g10
sg24
S"Le'Veon Bell"
p619
sg26
S'13'
p620
sg28
S'L18-21'
p621
sg30
S'27'
p622
sg32
g42
sg34
S'@OAK'
p623
sg36
S'11'
p624
sg38
S'24'
p625
sg40
g105
sss.