(dp0
S'2015'
p1
(dp2
S'11'
p3
(dp4
S'RecAvg'
p5
S'5.0'
p6
sS'FUM'
p7
S'--'
p8
sS'GS'
p9
S'1'
p10
sS'Lost'
p11
S'--'
p12
sS'G'
p13
g10
sS'RecTD'
p14
S'0'
p15
sS'Year'
p16
S'2015'
p17
sS'WK'
p18
S'11'
p19
sS'RushAvg'
p20
S'3.5'
p21
sS'Game Date'
p22
S'11/23'
p23
sS'RushTD'
p24
g15
sS'Player'
p25
S'LeGarrette Blount'
p26
sS'RushAtt'
p27
S'16'
p28
sS'Result'
p29
S'W20-13'
p30
sS'RecYds'
p31
S'5'
p32
sS'Rec'
p33
g10
sS'Opp'
p34
S'BUF'
p35
sS'RecLng'
p36
g32
sS'RushYds'
p37
S'56'
p38
sS'RushLng'
p39
S'17'
p40
ssS'10'
p41
(dp42
g5
S'5.5'
p43
sg7
S'--'
p44
sg9
g10
sg11
S'--'
p45
sg13
g10
sg14
g15
sg16
S'2015'
p46
sg18
S'10'
p47
sg20
S'3.5'
p48
sg22
S'11/15'
p49
sg24
g10
sg25
S'LeGarrette Blount'
p50
sg27
S'19'
p51
sg29
S'W27-26'
p52
sg31
S'11'
p53
sg33
S'2'
p54
sg34
S'@NYG'
p55
sg36
S'10'
p56
sg37
S'66'
p57
sg39
S'13'
p58
ssS'13'
p59
(dp60
g5
S'--'
p61
sg7
S'--'
p62
sg9
g10
sg11
S'--'
p63
sg13
g10
sg14
S'--'
p64
sg16
S'2015'
p65
sg18
S'13'
p66
sg20
S'4.2'
p67
sg22
S'12/06'
p68
sg24
g15
sg25
S'LeGarrette Blount'
p69
sg27
S'13'
p70
sg29
S'L28-35'
p71
sg31
S'--'
p72
sg33
S'--'
p73
sg34
S'PHI'
p74
sg36
S'--'
p75
sg37
S'54'
p76
sg39
S'10'
p77
ssS'12'
p78
(dp79
g5
S'--'
p80
sg7
S'--'
p81
sg9
g10
sg11
S'--'
p82
sg13
g10
sg14
S'--'
p83
sg16
S'2015'
p84
sg18
S'12'
p85
sg20
S'3.0'
p86
sg22
S'11/29'
p87
sg24
g15
sg25
S'LeGarrette Blount'
p88
sg27
S'9'
p89
sg29
S'L24-30'
p90
sg31
S'--'
p91
sg33
S'--'
p92
sg34
S'@DEN'
p93
sg36
S'--'
p94
sg37
S'27'
p95
sg39
g89
ssS'14'
p96
(dp97
g5
S'--'
p98
sg7
S'--'
p99
sg9
g10
sg11
S'--'
p100
sg13
g10
sg14
S'--'
p101
sg16
S'2015'
p102
sg18
S'14'
p103
sg20
S'5.3'
p104
sg22
S'12/13'
p105
sg24
g15
sg25
S'LeGarrette Blount'
p106
sg27
S'10'
p107
sg29
S'W27-6'
p108
sg31
S'--'
p109
sg33
S'--'
p110
sg34
S'@HOU'
p111
sg36
S'--'
p112
sg37
S'53'
p113
sg39
S'17'
p114
ssS'3'
p115
(dp116
g5
S'14.0'
p117
sg7
S'--'
p118
sg9
g15
sg11
S'--'
p119
sg13
g10
sg14
g15
sg16
S'2015'
p120
sg18
g115
sg20
S'4.3'
p121
sg22
S'09/27'
p122
sg24
g115
sg25
S'LeGarrette Blount'
p123
sg27
S'18'
p124
sg29
S'W51-17'
p125
sg31
S'14'
p126
sg33
g10
sg34
S'JAC'
p127
sg36
S'14'
p128
sg37
S'78'
p129
sg39
S'22'
p130
ssg54
(dp131
g5
S'--'
p132
sg7
S'--'
p133
sg9
g15
sg11
S'--'
p134
sg13
g10
sg14
S'--'
p135
sg16
S'2015'
p136
sg18
g54
sg20
S'2.0'
p137
sg22
S'09/20'
p138
sg24
g15
sg25
S'LeGarrette Blount'
p139
sg27
g54
sg29
S'W40-32'
p140
sg31
S'--'
p141
sg33
S'--'
p142
sg34
S'@BUF'
p143
sg36
S'--'
p144
sg37
S'4'
p145
sg39
g145
ssg32
(dp146
g5
S'--'
p147
sg7
S'--'
p148
sg9
g15
sg11
S'--'
p149
sg13
g10
sg14
S'--'
p150
sg16
S'2015'
p151
sg18
g32
sg20
S'5.7'
p152
sg22
S'10/11'
p153
sg24
g15
sg25
S'LeGarrette Blount'
p154
sg27
S'13'
p155
sg29
S'W30-6'
p156
sg31
S'--'
p157
sg33
S'--'
p158
sg34
S'@DAL'
p159
sg36
S'--'
p160
sg37
S'74'
p161
sg39
S'34'
p162
ssg145
(dp163
g5
S''
p164
sg7
g164
sg9
g164
sg11
g164
sg13
g164
sg14
g164
sg16
S'2015'
p165
sg18
g145
sg20
g164
sg22
S'Bye'
p166
sg24
g164
sg25
S'LeGarrette Blount'
p167
sg27
g164
sg29
g164
sg31
g164
sg33
g164
sg34
g164
sg36
g164
sg37
g164
sg39
g164
ssS'7'
p168
(dp169
g5
S'--'
p170
sg7
S'--'
p171
sg9
g15
sg11
S'--'
p172
sg13
g10
sg14
S'--'
p173
sg16
S'2015'
p174
sg18
g168
sg20
S'-1.0'
p175
sg22
S'10/25'
p176
sg24
g15
sg25
S'LeGarrette Blount'
p177
sg27
g115
sg29
S'W30-23'
p178
sg31
S'--'
p179
sg33
S'--'
p180
sg34
S'NYJ'
p181
sg36
S'--'
p182
sg37
S'-3'
p183
sg39
g115
ssS'6'
p184
(dp185
g5
S'11.0'
p186
sg7
S'--'
p187
sg9
g15
sg11
S'--'
p188
sg13
g10
sg14
g10
sg16
S'2015'
p189
sg18
g184
sg20
S'5.8'
p190
sg22
S'10/18'
p191
sg24
g10
sg25
S'LeGarrette Blount'
p192
sg27
S'16'
p193
sg29
S'W34-27'
p194
sg31
S'11'
p195
sg33
g10
sg34
S'@IND'
p196
sg36
S'11T'
p197
sg37
S'93'
p198
sg39
S'38T'
p199
ssg89
(dp200
g5
S'--'
p201
sg7
g10
sg9
g15
sg11
g15
sg13
g10
sg14
S'--'
p202
sg16
S'2015'
p203
sg18
g89
sg20
S'4.4'
p204
sg22
S'11/08'
p205
sg24
g10
sg25
S'LeGarrette Blount'
p206
sg27
S'29'
p207
sg29
S'W27-10'
p208
sg31
S'--'
p209
sg33
S'--'
p210
sg34
S'WAS'
p211
sg36
S'--'
p212
sg37
S'129'
p213
sg39
S'21'
p214
ssS'8'
p215
(dp216
g5
S'2.0'
p217
sg7
S'--'
p218
sg9
g10
sg11
S'--'
p219
sg13
g10
sg14
g15
sg16
S'2015'
p220
sg18
g215
sg20
S'4.2'
p221
sg22
S'10/29'
p222
sg24
g15
sg25
S'LeGarrette Blount'
p223
sg27
S'17'
p224
sg29
S'W36-7'
p225
sg31
g54
sg33
g10
sg34
S'MIA'
p226
sg36
g54
sg37
S'72'
p227
sg39
S'14'
p228
sssS'2014'
p229
(dp230
g3
(dp231
g5
S'--'
p232
sg7
S'--'
p233
sg9
g15
sg11
S'--'
p234
sg13
g10
sg14
S'--'
p235
sg16
S'2014'
p236
sg18
S'11'
p237
sg20
S'--'
p238
sg22
S'11/17'
p239
sg24
S'--'
p240
sg25
S'LeGarrette Blount'
p241
sg27
S'--'
p242
sg29
S'W27-24'
p243
sg31
S'--'
p244
sg33
S'--'
p245
sg34
S'@TEN'
p246
sg36
S'--'
p247
sg37
S'--'
p248
sg39
S'--'
p249
ssg41
(dp250
g5
S'--'
p251
sg7
S'--'
p252
sg9
g15
sg11
S'--'
p253
sg13
g10
sg14
S'--'
p254
sg16
S'2014'
p255
sg18
S'10'
p256
sg20
S'0.0'
p257
sg22
S'11/09'
p258
sg24
g15
sg25
S'LeGarrette Blount'
p259
sg27
g32
sg29
S'L13-20'
p260
sg31
S'--'
p261
sg33
S'--'
p262
sg34
S'@NYJ'
p263
sg36
S'--'
p264
sg37
g15
sg39
g145
ssg59
(dp265
g5
S'--'
p266
sg7
S'--'
p267
sg9
g15
sg11
S'--'
p268
sg13
g10
sg14
S'--'
p269
sg16
S'2014'
p270
sg18
S'13'
p271
sg20
S'5.8'
p272
sg22
S'11/30'
p273
sg24
g15
sg25
S'LeGarrette Blount'
p274
sg27
S'10'
p275
sg29
S'L21-26'
p276
sg31
S'--'
p277
sg33
S'--'
p278
sg34
S'@GB'
p279
sg36
S'--'
p280
sg37
S'58'
p281
sg39
S'13'
p282
ssg78
(dp283
g5
S'--'
p284
sg7
S'--'
p285
sg9
g15
sg11
S'--'
p286
sg13
g10
sg14
S'--'
p287
sg16
S'2014'
p288
sg18
S'12'
p289
sg20
S'6.5'
p290
sg22
S'11/23'
p291
sg24
g54
sg25
S'LeGarrette Blount'
p292
sg27
S'12'
p293
sg29
S'W34-9'
p294
sg31
S'--'
p295
sg33
S'--'
p296
sg34
S'DET'
p297
sg36
S'--'
p298
sg37
S'78'
p299
sg39
S'33'
p300
ssS'15'
p301
(dp302
g5
S'3.5'
p303
sg7
S'--'
p304
sg9
g15
sg11
S'--'
p305
sg13
g10
sg14
g15
sg16
S'2014'
p306
sg18
S'15'
p307
sg20
S'2.1'
p308
sg22
S'12/14'
p309
sg24
g10
sg25
S'LeGarrette Blount'
p310
sg27
g215
sg29
S'W41-13'
p311
sg31
g168
sg33
g54
sg34
S'MIA'
p312
sg36
g32
sg37
S'17'
p313
sg39
g32
ssg96
(dp314
g5
S'5.5'
p315
sg7
S'--'
p316
sg9
g10
sg11
S'--'
p317
sg13
g10
sg14
g15
sg16
S'2014'
p318
sg18
S'14'
p319
sg20
S'3.3'
p320
sg22
S'12/07'
p321
sg24
g15
sg25
S'LeGarrette Blount'
p322
sg27
S'20'
p323
sg29
S'W23-14'
p324
sg31
S'11'
p325
sg33
g54
sg34
S'@SD'
p326
sg36
S'11'
p327
sg37
S'66'
p328
sg39
S'23'
p329
ssS'17'
p330
(dp331
g5
S'--'
p332
sg7
S'--'
p333
sg9
g15
sg11
S'--'
p334
sg13
g10
sg14
S'--'
p335
sg16
S'2014'
p336
sg18
S'17'
p337
sg20
S'6.2'
p338
sg22
S'12/28'
p339
sg24
g15
sg25
S'LeGarrette Blount'
p340
sg27
S'10'
p341
sg29
S'L9-17'
p342
sg31
S'--'
p343
sg33
S'--'
p344
sg34
S'BUF'
p345
sg36
S'--'
p346
sg37
S'62'
p347
sg39
S'34'
p348
ssS'16'
p349
(dp350
g5
S'--'
p351
sg7
S'--'
p352
sg9
g15
sg11
S'--'
p353
sg13
g15
sg14
S'--'
p354
sg16
S'2014'
p355
sg18
S'16'
p356
sg20
S'--'
p357
sg22
S'12/21'
p358
sg24
S'--'
p359
sg25
S'LeGarrette Blount'
p360
sg27
S'--'
p361
sg29
S'W17-16'
p362
sg31
S'--'
p363
sg33
S'--'
p364
sg34
S'@NYJ'
p365
sg36
S'--'
p366
sg37
S'--'
p367
sg39
S'--'
p368
ssg10
(dp369
g5
S'--'
p370
sg7
S'--'
p371
sg9
g15
sg11
S'--'
p372
sg13
g10
sg14
g15
sg16
S'2014'
p373
sg18
g10
sg20
S'1.5'
p374
sg22
S'09/07'
p375
sg24
g10
sg25
S'LeGarrette Blount'
p376
sg27
g145
sg29
S'W30-27'
p377
sg31
g15
sg33
g15
sg34
S'CLE'
p378
sg36
S'--'
p379
sg37
g184
sg39
S'7T'
p380
ssg115
(dp381
g5
S'--'
p382
sg7
S'--'
p383
sg9
g15
sg11
S'--'
p384
sg13
g10
sg14
S'--'
p385
sg16
S'2014'
p386
sg18
g115
sg20
S'11.8'
p387
sg22
S'09/21'
p388
sg24
g10
sg25
S'LeGarrette Blount'
p389
sg27
S'10'
p390
sg29
S'W37-19'
p391
sg31
S'--'
p392
sg33
S'--'
p393
sg34
S'@CAR'
p394
sg36
S'--'
p395
sg37
S'118'
p396
sg39
S'50'
p397
ssg54
(dp398
g5
S'--'
p399
sg7
S'--'
p400
sg9
g15
sg11
S'--'
p401
sg13
g10
sg14
g15
sg16
S'2014'
p402
sg18
g54
sg20
S'2.7'
p403
sg22
S'09/11'
p404
sg24
g15
sg25
S'LeGarrette Blount'
p405
sg27
g115
sg29
S'L6-26'
p406
sg31
g15
sg33
g15
sg34
S'@BAL'
p407
sg36
S'--'
p408
sg37
g215
sg39
g184
ssg32
(dp409
g5
S'5.7'
p410
sg7
S'--'
p411
sg9
g15
sg11
S'--'
p412
sg13
g10
sg14
g15
sg16
S'2014'
p413
sg18
g32
sg20
S'3.6'
p414
sg22
S'10/05'
p415
sg24
g15
sg25
S'LeGarrette Blount'
p416
sg27
g215
sg29
S'W17-9'
p417
sg31
S'17'
p418
sg33
g115
sg34
S'@JAC'
p419
sg36
S'13'
p420
sg37
S'29'
p421
sg39
g89
ssg145
(dp422
g5
S'--'
p423
sg7
S'--'
p424
sg9
g15
sg11
S'--'
p425
sg13
g10
sg14
S'--'
p426
sg16
S'2014'
p427
sg18
g145
sg20
S'6.3'
p428
sg22
S'09/28'
p429
sg24
g15
sg25
S'LeGarrette Blount'
p430
sg27
g145
sg29
S'L24-27'
p431
sg31
S'--'
p432
sg33
S'--'
p433
sg34
S'TB'
p434
sg36
S'--'
p435
sg37
S'25'
p436
sg39
S'11'
p437
ssg168
(dp438
g5
S'8.0'
p439
sg7
S'--'
p440
sg9
g15
sg11
S'--'
p441
sg13
g10
sg14
g15
sg16
S'2014'
p442
sg18
g168
sg20
S'1.3'
p443
sg22
S'10/20'
p444
sg24
g15
sg25
S'LeGarrette Blount'
p445
sg27
g168
sg29
S'W30-23'
p446
sg31
g215
sg33
g10
sg34
S'HOU'
p447
sg36
g215
sg37
g89
sg39
g32
ssg184
(dp448
g5
S'--'
p449
sg7
S'--'
p450
sg9
g15
sg11
S'--'
p451
sg13
g10
sg14
S'--'
p452
sg16
S'2014'
p453
sg18
g184
sg20
S'3.4'
p454
sg22
S'10/12'
p455
sg24
g15
sg25
S'LeGarrette Blount'
p456
sg27
g215
sg29
S'L10-31'
p457
sg31
S'--'
p458
sg33
S'--'
p459
sg34
S'@CLE'
p460
sg36
S'--'
p461
sg37
S'27'
p462
sg39
g215
ssg89
(dp463
g5
S'--'
p464
sg7
S'--'
p465
sg9
g15
sg11
S'--'
p466
sg13
g10
sg14
S'--'
p467
sg16
S'2014'
p468
sg18
g89
sg20
S'2.3'
p469
sg22
S'11/02'
p470
sg24
g15
sg25
S'LeGarrette Blount'
p471
sg27
S'10'
p472
sg29
S'W43-23'
p473
sg31
S'--'
p474
sg33
S'--'
p475
sg34
S'BAL'
p476
sg36
S'--'
p477
sg37
S'23'
p478
sg39
g89
ssg215
(dp479
g5
S'5.5'
p480
sg7
g10
sg9
g15
sg11
g10
sg13
g10
sg14
g15
sg16
S'2014'
p481
sg18
g215
sg20
S'3.5'
p482
sg22
S'10/26'
p483
sg24
g15
sg25
S'LeGarrette Blount'
p484
sg27
g184
sg29
S'W51-34'
p485
sg31
S'11'
p486
sg33
g54
sg34
S'IND'
p487
sg36
g215
sg37
S'21'
p488
sg39
g184
sssS'2011'
p489
(dp490
g3
(dp491
g5
S'6.0'
p492
sg7
S'--'
p493
sg9
g10
sg11
S'--'
p494
sg13
g10
sg14
g15
sg16
S'2011'
p495
sg18
S'11'
p496
sg20
S'5.9'
p497
sg22
S'11/20'
p498
sg24
g10
sg25
S'LeGarrette Blount'
p499
sg27
S'18'
p500
sg29
S'L26-35'
p501
sg31
g184
sg33
g10
sg34
S'@GB'
p502
sg36
g184
sg37
S'107'
p503
sg39
S'54T'
p504
ssg41
(dp505
g5
S'0.0'
p506
sg7
S'--'
p507
sg9
g10
sg11
S'--'
p508
sg13
g10
sg14
g15
sg16
S'2011'
p509
sg18
S'10'
p510
sg20
S'3.4'
p511
sg22
S'11/13'
p512
sg24
g15
sg25
S'LeGarrette Blount'
p513
sg27
S'10'
p514
sg29
S'L9-37'
p515
sg31
g15
sg33
g10
sg34
S'HOU'
p516
sg36
g15
sg37
S'34'
p517
sg39
g89
ssg59
(dp518
g5
S'--'
p519
sg7
S'--'
p520
sg9
g10
sg11
S'--'
p521
sg13
g10
sg14
g15
sg16
S'2011'
p522
sg18
S'13'
p523
sg20
S'1.7'
p524
sg22
S'12/04'
p525
sg24
g15
sg25
S'LeGarrette Blount'
p526
sg27
S'11'
p527
sg29
S'L19-38'
p528
sg31
g15
sg33
g15
sg34
S'CAR'
p529
sg36
S'--'
p530
sg37
S'19'
p531
sg39
g184
ssg78
(dp532
g5
S'18.7'
p533
sg7
g54
sg9
g10
sg11
g54
sg13
g10
sg14
g15
sg16
S'2011'
p534
sg18
S'12'
p535
sg20
S'5.1'
p536
sg22
S'11/27'
p537
sg24
g15
sg25
S'LeGarrette Blount'
p538
sg27
S'20'
p539
sg29
S'L17-23'
p540
sg31
S'56'
p541
sg33
g115
sg34
S'@TEN'
p542
sg36
S'35'
p543
sg37
S'103'
p544
sg39
S'16'
p545
ssg301
(dp546
g5
S'--'
p547
sg7
S'--'
p548
sg9
g10
sg11
S'--'
p549
sg13
g10
sg14
S'--'
p550
sg16
S'2011'
p551
sg18
S'15'
p552
sg20
S'2.3'
p553
sg22
S'12/17'
p554
sg24
g15
sg25
S'LeGarrette Blount'
p555
sg27
g89
sg29
S'L15-31'
p556
sg31
S'--'
p557
sg33
S'--'
p558
sg34
S'DAL'
p559
sg36
S'--'
p560
sg37
S'21'
p561
sg39
g168
ssg96
(dp562
g5
S'6.0'
p563
sg7
g54
sg9
g10
sg11
g10
sg13
g10
sg14
g15
sg16
S'2011'
p564
sg18
S'14'
p565
sg20
S'4.1'
p566
sg22
S'12/11'
p567
sg24
g10
sg25
S'LeGarrette Blount'
p568
sg27
S'18'
p569
sg29
S'L14-41'
p570
sg31
g184
sg33
g10
sg34
S'@JAC'
p571
sg36
g184
sg37
S'74'
p572
sg39
S'11'
p573
ssg330
(dp574
g5
S'4.7'
p575
sg7
S'--'
p576
sg9
g10
sg11
S'--'
p577
sg13
g10
sg14
g15
sg16
S'2011'
p578
sg18
S'17'
p579
sg20
S'2.0'
p580
sg22
S'01/01'
p581
sg24
g15
sg25
S'LeGarrette Blount'
p582
sg27
g184
sg29
S'L24-45'
p583
sg31
S'14'
p584
sg33
g115
sg34
S'@ATL'
p585
sg36
S'11'
p586
sg37
S'12'
p587
sg39
g145
ssg349
(dp588
g5
S'--'
p589
sg7
S'--'
p590
sg9
g10
sg11
S'--'
p591
sg13
g10
sg14
S'--'
p592
sg16
S'2011'
p593
sg18
S'16'
p594
sg20
S'5.5'
p595
sg22
S'12/24'
p596
sg24
g15
sg25
S'LeGarrette Blount'
p597
sg27
g54
sg29
S'L16-48'
p598
sg31
S'--'
p599
sg33
S'--'
p600
sg34
S'@CAR'
p601
sg36
S'--'
p602
sg37
S'11'
p603
sg39
g215
ssg10
(dp604
g5
S'--'
p605
sg7
S'--'
p606
sg9
g10
sg11
S'--'
p607
sg13
g10
sg14
S'--'
p608
sg16
S'2011'
p609
sg18
g10
sg20
S'3.0'
p610
sg22
S'09/11'
p611
sg24
g15
sg25
S'LeGarrette Blount'
p612
sg27
g32
sg29
S'L20-27'
p613
sg31
S'--'
p614
sg33
S'--'
p615
sg34
S'DET'
p616
sg36
S'--'
p617
sg37
S'15'
p618
sg39
g32
ssg115
(dp619
g5
S'13.0'
p620
sg7
S'--'
p621
sg9
g10
sg11
S'--'
p622
sg13
g10
sg14
g15
sg16
S'2011'
p623
sg18
g115
sg20
S'3.4'
p624
sg22
S'09/25'
p625
sg24
g15
sg25
S'LeGarrette Blount'
p626
sg27
S'24'
p627
sg29
S'W16-13'
p628
sg31
S'13'
p629
sg33
g10
sg34
S'ATL'
p630
sg36
S'13'
p631
sg37
S'81'
p632
sg39
S'12'
p633
ssg54
(dp634
g5
S'--'
p635
sg7
S'--'
p636
sg9
g10
sg11
S'--'
p637
sg13
g10
sg14
S'--'
p638
sg16
S'2011'
p639
sg18
g54
sg20
S'5.5'
p640
sg22
S'09/18'
p641
sg24
g54
sg25
S'LeGarrette Blount'
p642
sg27
S'13'
p643
sg29
S'W24-20'
p644
sg31
S'--'
p645
sg33
S'--'
p646
sg34
S'@MIN'
p647
sg36
S'--'
p648
sg37
S'71'
p649
sg39
S'27T'
p650
ssg32
(dp651
g5
S'15.5'
p652
sg7
S'--'
p653
sg9
g10
sg11
S'--'
p654
sg13
g10
sg14
g15
sg16
S'2011'
p655
sg18
g32
sg20
S'3.4'
p656
sg22
S'10/09'
p657
sg24
g15
sg25
S'LeGarrette Blount'
p658
sg27
S'10'
p659
sg29
S'L3-48'
p660
sg31
S'31'
p661
sg33
g54
sg34
S'@SF'
p662
sg36
S'29'
p663
sg37
S'34'
p664
sg39
g89
ssg145
(dp665
g5
S'14.0'
p666
sg7
S'--'
p667
sg9
g10
sg11
S'--'
p668
sg13
g10
sg14
g15
sg16
S'2011'
p669
sg18
g145
sg20
S'5.1'
p670
sg22
S'10/03'
p671
sg24
g10
sg25
S'LeGarrette Blount'
p672
sg27
S'25'
p673
sg29
S'W24-17'
p674
sg31
S'14'
p675
sg33
g10
sg34
S'IND'
p676
sg36
S'14'
p677
sg37
S'127'
p678
sg39
S'35T'
p679
ssg168
(dp680
g5
S'--'
p681
sg7
S'--'
p682
sg9
g15
sg11
S'--'
p683
sg13
g15
sg14
S'--'
p684
sg16
S'2011'
p685
sg18
g168
sg20
S'--'
p686
sg22
S'10/23'
p687
sg24
S'--'
p688
sg25
S'LeGarrette Blount'
p689
sg27
S'--'
p690
sg29
S'L18-24'
p691
sg31
S'--'
p692
sg33
S'--'
p693
sg34
S'CHI'
p694
sg36
S'--'
p695
sg37
S'--'
p696
sg39
S'--'
p697
ssg184
(dp698
g5
S'--'
p699
sg7
S'--'
p700
sg9
g15
sg11
S'--'
p701
sg13
g15
sg14
S'--'
p702
sg16
S'2011'
p703
sg18
g184
sg20
S'--'
p704
sg22
S'10/16'
p705
sg24
S'--'
p706
sg25
S'LeGarrette Blount'
p707
sg27
S'--'
p708
sg29
S'W26-20'
p709
sg31
S'--'
p710
sg33
S'--'
p711
sg34
S'NO'
p712
sg36
S'--'
p713
sg37
S'--'
p714
sg39
S'--'
p715
ssg89
(dp716
g5
S'4.0'
p717
sg7
g10
sg9
g10
sg11
g15
sg13
g10
sg14
g15
sg16
S'2011'
p718
sg18
g89
sg20
S'5.5'
p719
sg22
S'11/06'
p720
sg24
g15
sg25
S'LeGarrette Blount'
p721
sg27
S'13'
p722
sg29
S'L16-27'
p723
sg31
g215
sg33
g54
sg34
S'@NO'
p724
sg36
S'11'
p725
sg37
S'72'
p726
sg39
S'27'
p727
ssg215
(dp728
g5
g164
sg7
g164
sg9
g164
sg11
g164
sg13
g164
sg14
g164
sg16
S'2011'
p729
sg18
g215
sg20
g164
sg22
S'Bye'
p730
sg24
g164
sg25
S'LeGarrette Blount'
p731
sg27
g164
sg29
g164
sg31
g164
sg33
g164
sg34
g164
sg36
g164
sg37
g164
sg39
g164
sssS'2010'
p732
(dp733
g3
(dp734
g5
S'--'
p735
sg7
S'--'
p736
sg9
g10
sg11
S'--'
p737
sg13
g10
sg14
S'--'
p738
sg16
S'2010'
p739
sg18
S'11'
p740
sg20
S'3.2'
p741
sg22
S'11/21'
p742
sg24
g15
sg25
S'LeGarrette Blount'
p743
sg27
S'26'
p744
sg29
S'W21-0'
p745
sg31
S'--'
p746
sg33
S'--'
p747
sg34
S'@SF'
p748
sg36
S'--'
p749
sg37
S'82'
p750
sg39
S'16'
p751
ssg41
(dp752
g5
S'--'
p753
sg7
S'--'
p754
sg9
g15
sg11
S'--'
p755
sg13
g10
sg14
g15
sg16
S'2010'
p756
sg18
S'10'
p757
sg20
S'4.8'
p758
sg22
S'11/14'
p759
sg24
g10
sg25
S'LeGarrette Blount'
p760
sg27
S'19'
p761
sg29
S'W31-16'
p762
sg31
g15
sg33
g15
sg34
S'CAR'
p763
sg36
S'--'
p764
sg37
S'91'
p765
sg39
S'24'
p766
ssg59
(dp767
g5
S'--'
p768
sg7
S'--'
p769
sg9
g10
sg11
S'--'
p770
sg13
g10
sg14
S'--'
p771
sg16
S'2010'
p772
sg18
S'13'
p773
sg20
S'5.1'
p774
sg22
S'12/05'
p775
sg24
g10
sg25
S'LeGarrette Blount'
p776
sg27
S'20'
p777
sg29
S'L24-28'
p778
sg31
S'--'
p779
sg33
S'--'
p780
sg34
S'ATL'
p781
sg36
S'--'
p782
sg37
S'103'
p783
sg39
S'28'
p784
ssg78
(dp785
g5
S'--'
p786
sg7
S'--'
p787
sg9
g10
sg11
S'--'
p788
sg13
g10
sg14
S'--'
p789
sg16
S'2010'
p790
sg18
S'12'
p791
sg20
S'4.2'
p792
sg22
S'11/28'
p793
sg24
g15
sg25
S'LeGarrette Blount'
p794
sg27
S'13'
p795
sg29
S'L10-17'
p796
sg31
S'--'
p797
sg33
S'--'
p798
sg34
S'@BAL'
p799
sg36
S'--'
p800
sg37
S'55'
p801
sg39
S'16'
p802
ssg301
(dp803
g5
S'--'
p804
sg7
S'--'
p805
sg9
g10
sg11
S'--'
p806
sg13
g10
sg14
S'--'
p807
sg16
S'2010'
p808
sg18
S'15'
p809
sg20
S'7.3'
p810
sg22
S'12/19'
p811
sg24
g10
sg25
S'LeGarrette Blount'
p812
sg27
S'15'
p813
sg29
S'L20-23'
p814
sg31
S'--'
p815
sg33
S'--'
p816
sg34
S'DET'
p817
sg36
S'--'
p818
sg37
S'110'
p819
sg39
S'39T'
p820
ssg96
(dp821
g5
S'--'
p822
sg7
g10
sg9
g10
sg11
g10
sg13
g10
sg14
g15
sg16
S'2010'
p823
sg18
S'14'
p824
sg20
S'4.5'
p825
sg22
S'12/12'
p826
sg24
g15
sg25
S'LeGarrette Blount'
p827
sg27
S'15'
p828
sg29
S'W17-16'
p829
sg31
g15
sg33
g15
sg34
S'@WAS'
p830
sg36
S'--'
p831
sg37
S'68'
p832
sg39
S'18'
p833
ssg330
(dp834
g5
S'1.0'
p835
sg7
g10
sg9
g10
sg11
g10
sg13
g10
sg14
g15
sg16
S'2010'
p836
sg18
S'17'
p837
sg20
S'3.5'
p838
sg22
S'01/02'
p839
sg24
g15
sg25
S'LeGarrette Blount'
p840
sg27
S'19'
p841
sg29
S'W23-13'
p842
sg31
g54
sg33
g54
sg34
S'@NO'
p843
sg36
g54
sg37
S'66'
p844
sg39
S'16'
p845
ssg349
(dp846
g5
S'3.0'
p847
sg7
g10
sg9
g10
sg11
g15
sg13
g10
sg14
g15
sg16
S'2010'
p848
sg18
S'16'
p849
sg20
S'9.1'
p850
sg22
S'12/26'
p851
sg24
g15
sg25
S'LeGarrette Blount'
p852
sg27
S'18'
p853
sg29
S'W38-15'
p854
sg31
g115
sg33
g10
sg34
S'SEA'
p855
sg36
g115
sg37
S'164'
p856
sg39
S'53'
p857
ssg10
(dp858
g5
S'--'
p859
sg7
S'--'
p860
sg9
g15
sg11
S'--'
p861
sg13
g15
sg14
S'--'
p862
sg16
S'2010'
p863
sg18
g10
sg20
S'--'
p864
sg22
S'09/12'
p865
sg24
S'--'
p866
sg25
S'LeGarrette Blount'
p867
sg27
S'--'
p868
sg29
S'W17-14'
p869
sg31
S'--'
p870
sg33
S'--'
p871
sg34
S'CLE'
p872
sg36
S'--'
p873
sg37
S'--'
p874
sg39
S'--'
p875
ssg115
(dp876
g5
S'--'
p877
sg7
S'--'
p878
sg9
g15
sg11
S'--'
p879
sg13
g10
sg14
S'--'
p880
sg16
S'2010'
p881
sg18
g115
sg20
S'4.5'
p882
sg22
S'09/26'
p883
sg24
g10
sg25
S'LeGarrette Blount'
p884
sg27
g184
sg29
S'L13-38'
p885
sg31
S'--'
p886
sg33
S'--'
p887
sg34
S'PIT'
p888
sg36
S'--'
p889
sg37
S'27'
p890
sg39
S'12'
p891
ssg54
(dp892
g5
S'--'
p893
sg7
S'--'
p894
sg9
g15
sg11
S'--'
p895
sg13
g15
sg14
S'--'
p896
sg16
S'2010'
p897
sg18
g54
sg20
S'--'
p898
sg22
S'09/19'
p899
sg24
S'--'
p900
sg25
S'LeGarrette Blount'
p901
sg27
S'--'
p902
sg29
S'W20-7'
p903
sg31
S'--'
p904
sg33
S'--'
p905
sg34
S'@CAR'
p906
sg36
S'--'
p907
sg37
S'--'
p908
sg39
S'--'
p909
ssg32
(dp910
g5
S'--'
p911
sg7
S'--'
p912
sg9
g15
sg11
S'--'
p913
sg13
g10
sg14
S'--'
p914
sg16
S'2010'
p915
sg18
g32
sg20
S'0.8'
p916
sg22
S'10/10'
p917
sg24
g15
sg25
S'LeGarrette Blount'
p918
sg27
g145
sg29
S'W24-21'
p919
sg31
S'--'
p920
sg33
S'--'
p921
sg34
S'@CIN'
p922
sg36
S'--'
p923
sg37
g115
sg39
g115
ssg145
(dp924
g5
g164
sg7
g164
sg9
g164
sg11
g164
sg13
g164
sg14
g164
sg16
S'2010'
p925
sg18
g145
sg20
g164
sg22
S'Bye'
p926
sg24
g164
sg25
S'LeGarrette Blount'
p927
sg27
g164
sg29
g164
sg31
g164
sg33
g164
sg34
g164
sg36
g164
sg37
g164
sg39
g164
ssg168
(dp928
g5
S'--'
p929
sg7
S'--'
p930
sg9
g15
sg11
S'--'
p931
sg13
g10
sg14
S'--'
p932
sg16
S'2010'
p933
sg18
g168
sg20
S'6.5'
p934
sg22
S'10/24'
p935
sg24
g15
sg25
S'LeGarrette Blount'
p936
sg27
S'11'
p937
sg29
S'W18-17'
p938
sg31
S'--'
p939
sg33
S'--'
p940
sg34
S'STL'
p941
sg36
S'--'
p942
sg37
S'72'
p943
sg39
S'17'
p944
ssg184
(dp945
g5
S'--'
p946
sg7
S'--'
p947
sg9
g15
sg11
S'--'
p948
sg13
g15
sg14
S'--'
p949
sg16
S'2010'
p950
sg18
g184
sg20
S'--'
p951
sg22
S'10/17'
p952
sg24
S'--'
p953
sg25
S'LeGarrette Blount'
p954
sg27
S'--'
p955
sg29
S'L6-31'
p956
sg31
S'--'
p957
sg33
S'--'
p958
sg34
S'NO'
p959
sg36
S'--'
p960
sg37
S'--'
p961
sg39
S'--'
p962
ssg89
(dp963
g5
S'--'
p964
sg7
S'--'
p965
sg9
g15
sg11
S'--'
p966
sg13
g10
sg14
S'--'
p967
sg16
S'2010'
p968
sg18
g89
sg20
S'3.5'
p969
sg22
S'11/07'
p970
sg24
g15
sg25
S'LeGarrette Blount'
p971
sg27
S'13'
p972
sg29
S'L21-27'
p973
sg31
S'--'
p974
sg33
S'--'
p975
sg34
S'@ATL'
p976
sg36
S'--'
p977
sg37
S'46'
p978
sg39
S'21'
p979
ssg215
(dp980
g5
S'4.5'
p981
sg7
g10
sg9
g15
sg11
g10
sg13
g10
sg14
g15
sg16
S'2010'
p982
sg18
g215
sg20
S'5.5'
p983
sg22
S'10/31'
p984
sg24
g54
sg25
S'LeGarrette Blount'
p985
sg27
S'22'
p986
sg29
S'W38-35'
p987
sg31
g89
sg33
g54
sg34
S'@ARI'
p988
sg36
g168
sg37
S'120'
p989
sg39
S'48'
p990
sssS'2013'
p991
(dp992
g3
(dp993
g5
S'--'
p994
sg7
S'--'
p995
sg9
g15
sg11
S'--'
p996
sg13
g10
sg14
S'--'
p997
sg16
S'2013'
p998
sg18
S'11'
p999
sg20
S'4.9'
p1000
sg22
S'11/18'
p1001
sg24
g15
sg25
S'LeGarrette Blount'
p1002
sg27
S'10'
p1003
sg29
S'L20-24'
p1004
sg31
S'--'
p1005
sg33
S'--'
p1006
sg34
S'@CAR'
p1007
sg36
S'--'
p1008
sg37
S'49'
p1009
sg39
S'12'
p1010
ssg41
(dp1011
g5
g164
sg7
g164
sg9
g164
sg11
g164
sg13
g164
sg14
g164
sg16
S'2013'
p1012
sg18
S'10'
p1013
sg20
g164
sg22
S'Bye'
p1014
sg24
g164
sg25
S'LeGarrette Blount'
p1015
sg27
g164
sg29
g164
sg31
g164
sg33
g164
sg34
g164
sg36
g164
sg37
g164
sg39
g164
ssg59
(dp1016
g5
S'--'
p1017
sg7
S'--'
p1018
sg9
g15
sg11
S'--'
p1019
sg13
g10
sg14
S'--'
p1020
sg16
S'2013'
p1021
sg18
S'13'
p1022
sg20
S'3.7'
p1023
sg22
S'12/01'
p1024
sg24
g10
sg25
S'LeGarrette Blount'
p1025
sg27
S'12'
p1026
sg29
S'W34-31'
p1027
sg31
S'--'
p1028
sg33
S'--'
p1029
sg34
S'@HOU'
p1030
sg36
S'--'
p1031
sg37
S'44'
p1032
sg39
g215
ssg78
(dp1033
g5
S'--'
p1034
sg7
g10
sg9
g15
sg11
g10
sg13
g10
sg14
S'--'
p1035
sg16
S'2013'
p1036
sg18
S'12'
p1037
sg20
S'6.5'
p1038
sg22
S'11/24'
p1039
sg24
g15
sg25
S'LeGarrette Blount'
p1040
sg27
g54
sg29
S'W34-31'
p1041
sg31
S'--'
p1042
sg33
S'--'
p1043
sg34
S'DEN'
p1044
sg36
S'--'
p1045
sg37
S'13'
p1046
sg39
g89
ssg301
(dp1047
g5
S'6.0'
p1048
sg7
S'--'
p1049
sg9
g10
sg11
S'--'
p1050
sg13
g10
sg14
g15
sg16
S'2013'
p1051
sg18
S'15'
p1052
sg20
S'4.3'
p1053
sg22
S'12/15'
p1054
sg24
g15
sg25
S'LeGarrette Blount'
p1055
sg27
S'11'
p1056
sg29
S'L20-24'
p1057
sg31
g184
sg33
g10
sg34
S'@MIA'
p1058
sg36
g184
sg37
S'47'
p1059
sg39
S'11'
p1060
ssg96
(dp1061
g5
S'32.0'
p1062
sg7
S'--'
p1063
sg9
g10
sg11
S'--'
p1064
sg13
g10
sg14
g15
sg16
S'2013'
p1065
sg18
S'14'
p1066
sg20
S'5.3'
p1067
sg22
S'12/08'
p1068
sg24
g15
sg25
S'LeGarrette Blount'
p1069
sg27
g215
sg29
S'W27-26'
p1070
sg31
S'32'
p1071
sg33
g10
sg34
S'CLE'
p1072
sg36
S'32'
p1073
sg37
S'42'
p1074
sg39
S'13'
p1075
ssg330
(dp1076
g5
S'--'
p1077
sg7
g10
sg9
g10
sg11
g15
sg13
g10
sg14
S'--'
p1078
sg16
S'2013'
p1079
sg18
S'17'
p1080
sg20
S'7.9'
p1081
sg22
S'12/29'
p1082
sg24
g54
sg25
S'LeGarrette Blount'
p1083
sg27
S'24'
p1084
sg29
S'W34-20'
p1085
sg31
S'--'
p1086
sg33
S'--'
p1087
sg34
S'BUF'
p1088
sg36
S'--'
p1089
sg37
S'189'
p1090
sg39
S'36T'
p1091
ssg349
(dp1092
g5
S'--'
p1093
sg7
S'--'
p1094
sg9
g10
sg11
S'--'
p1095
sg13
g10
sg14
S'--'
p1096
sg16
S'2013'
p1097
sg18
S'16'
p1098
sg20
S'4.8'
p1099
sg22
S'12/22'
p1100
sg24
g54
sg25
S'LeGarrette Blount'
p1101
sg27
S'16'
p1102
sg29
S'W41-7'
p1103
sg31
S'--'
p1104
sg33
S'--'
p1105
sg34
S'@BAL'
p1106
sg36
S'--'
p1107
sg37
S'76'
p1108
sg39
S'14'
p1109
ssg10
(dp1110
g5
S'--'
p1111
sg7
S'--'
p1112
sg9
g15
sg11
S'--'
p1113
sg13
g10
sg14
S'--'
p1114
sg16
S'2013'
p1115
sg18
g10
sg20
S'2.1'
p1116
sg22
S'09/08'
p1117
sg24
g15
sg25
S'LeGarrette Blount'
p1118
sg27
g168
sg29
S'W23-21'
p1119
sg31
S'--'
p1120
sg33
S'--'
p1121
sg34
S'@BUF'
p1122
sg36
S'--'
p1123
sg37
S'15'
p1124
sg39
g32
ssg115
(dp1125
g5
S'--'
p1126
sg7
S'--'
p1127
sg9
g15
sg11
S'--'
p1128
sg13
g10
sg14
S'--'
p1129
sg16
S'2013'
p1130
sg18
g115
sg20
S'4.6'
p1131
sg22
S'09/22'
p1132
sg24
g15
sg25
S'LeGarrette Blount'
p1133
sg27
S'14'
p1134
sg29
S'W23-3'
p1135
sg31
S'--'
p1136
sg33
S'--'
p1137
sg34
S'TB'
p1138
sg36
S'--'
p1139
sg37
S'65'
p1140
sg39
S'23'
p1141
ssg54
(dp1142
g5
S'--'
p1143
sg7
S'--'
p1144
sg9
g15
sg11
S'--'
p1145
sg13
g10
sg14
g15
sg16
S'2013'
p1146
sg18
g54
sg20
S'2.8'
p1147
sg22
S'09/12'
p1148
sg24
g15
sg25
S'LeGarrette Blount'
p1149
sg27
g145
sg29
S'W13-10'
p1150
sg31
g15
sg33
g15
sg34
S'NYJ'
p1151
sg36
S'--'
p1152
sg37
S'11'
p1153
sg39
g168
ssg32
(dp1154
g5
S'--'
p1155
sg7
g10
sg9
g10
sg11
g10
sg13
g10
sg14
S'--'
p1156
sg16
S'2013'
p1157
sg18
g32
sg20
S'4.3'
p1158
sg22
S'10/06'
p1159
sg24
g15
sg25
S'LeGarrette Blount'
p1160
sg27
S'12'
p1161
sg29
S'L6-13'
p1162
sg31
S'--'
p1163
sg33
S'--'
p1164
sg34
S'@CIN'
p1165
sg36
S'--'
p1166
sg37
S'51'
p1167
sg39
S'10'
p1168
ssg145
(dp1169
g5
S'--'
p1170
sg7
S'--'
p1171
sg9
g15
sg11
S'--'
p1172
sg13
g10
sg14
S'--'
p1173
sg16
S'2013'
p1174
sg18
g145
sg20
S'7.1'
p1175
sg22
S'09/29'
p1176
sg24
g10
sg25
S'LeGarrette Blount'
p1177
sg27
g89
sg29
S'W30-23'
p1178
sg31
S'--'
p1179
sg33
S'--'
p1180
sg34
S'@ATL'
p1181
sg36
S'--'
p1182
sg37
S'64'
p1183
sg39
S'47T'
p1184
ssg168
(dp1185
g5
S'--'
p1186
sg7
S'--'
p1187
sg9
g15
sg11
S'--'
p1188
sg13
g10
sg14
S'--'
p1189
sg16
S'2013'
p1190
sg18
g168
sg20
S'4.0'
p1191
sg22
S'10/20'
p1192
sg24
g15
sg25
S'LeGarrette Blount'
p1193
sg27
g10
sg29
S'L27-30'
p1194
sg31
S'--'
p1195
sg33
S'--'
p1196
sg34
S'@NYJ'
p1197
sg36
S'--'
p1198
sg37
g145
sg39
g145
ssg184
(dp1199
g5
S'--'
p1200
sg7
S'--'
p1201
sg9
g10
sg11
S'--'
p1202
sg13
g10
sg14
g15
sg16
S'2013'
p1203
sg18
g184
sg20
S'1.3'
p1204
sg22
S'10/13'
p1205
sg24
g15
sg25
S'LeGarrette Blount'
p1206
sg27
g168
sg29
S'W30-27'
p1207
sg31
g15
sg33
g15
sg34
S'NO'
p1208
sg36
S'--'
p1209
sg37
g89
sg39
g184
ssg89
(dp1210
g5
S'--'
p1211
sg7
S'--'
p1212
sg9
g15
sg11
S'--'
p1213
sg13
g10
sg14
S'--'
p1214
sg16
S'2013'
p1215
sg18
g89
sg20
S'9.4'
p1216
sg22
S'11/03'
p1217
sg24
g10
sg25
S'LeGarrette Blount'
p1218
sg27
g32
sg29
S'W55-31'
p1219
sg31
S'--'
p1220
sg33
S'--'
p1221
sg34
S'PIT'
p1222
sg36
S'--'
p1223
sg37
S'47'
p1224
sg39
S'23'
p1225
ssg215
(dp1226
g5
S'--'
p1227
sg7
S'--'
p1228
sg9
g10
sg11
S'--'
p1229
sg13
g10
sg14
S'--'
p1230
sg16
S'2013'
p1231
sg18
g215
sg20
S'4.2'
p1232
sg22
S'10/27'
p1233
sg24
g15
sg25
S'LeGarrette Blount'
p1234
sg27
S'11'
p1235
sg29
S'W27-17'
p1236
sg31
S'--'
p1237
sg33
S'--'
p1238
sg34
S'MIA'
p1239
sg36
S'--'
p1240
sg37
S'46'
p1241
sg39
S'19'
p1242
sssS'2012'
p1243
(dp1244
g3
(dp1245
g5
S'--'
p1246
sg7
S'--'
p1247
sg9
g15
sg11
S'--'
p1248
sg13
g15
sg14
S'--'
p1249
sg16
S'2012'
p1250
sg18
S'11'
p1251
sg20
S'--'
p1252
sg22
S'11/18'
p1253
sg24
S'--'
p1254
sg25
S'LeGarrette Blount'
p1255
sg27
S'--'
p1256
sg29
S'W27-21'
p1257
sg31
S'--'
p1258
sg33
S'--'
p1259
sg34
S'@CAR'
p1260
sg36
S'--'
p1261
sg37
S'--'
p1262
sg39
S'--'
p1263
ssg41
(dp1264
g5
S'--'
p1265
sg7
S'--'
p1266
sg9
g15
sg11
S'--'
p1267
sg13
g10
sg14
S'--'
p1268
sg16
S'2012'
p1269
sg18
S'10'
p1270
sg20
S'3.0'
p1271
sg22
S'11/11'
p1272
sg24
g15
sg25
S'LeGarrette Blount'
p1273
sg27
g10
sg29
S'W34-24'
p1274
sg31
S'--'
p1275
sg33
S'--'
p1276
sg34
S'SD'
p1277
sg36
S'--'
p1278
sg37
g115
sg39
g115
ssg59
(dp1279
g5
S'--'
p1280
sg7
S'--'
p1281
sg9
g15
sg11
S'--'
p1282
sg13
g15
sg14
S'--'
p1283
sg16
S'2012'
p1284
sg18
S'13'
p1285
sg20
S'--'
p1286
sg22
S'12/02'
p1287
sg24
S'--'
p1288
sg25
S'LeGarrette Blount'
p1289
sg27
S'--'
p1290
sg29
S'L23-31'
p1291
sg31
S'--'
p1292
sg33
S'--'
p1293
sg34
S'@DEN'
p1294
sg36
S'--'
p1295
sg37
S'--'
p1296
sg39
S'--'
p1297
ssg78
(dp1298
g5
S'--'
p1299
sg7
S'--'
p1300
sg9
g15
sg11
S'--'
p1301
sg13
g10
sg14
S'--'
p1302
sg16
S'2012'
p1303
sg18
S'12'
p1304
sg20
S'--'
p1305
sg22
S'11/25'
p1306
sg24
S'--'
p1307
sg25
S'LeGarrette Blount'
p1308
sg27
S'--'
p1309
sg29
S'L23-24'
p1310
sg31
S'--'
p1311
sg33
S'--'
p1312
sg34
S'ATL'
p1313
sg36
S'--'
p1314
sg37
S'--'
p1315
sg39
S'--'
p1316
ssg301
(dp1317
g5
S'--'
p1318
sg7
S'--'
p1319
sg9
g15
sg11
S'--'
p1320
sg13
g10
sg14
S'--'
p1321
sg16
S'2012'
p1322
sg18
S'15'
p1323
sg20
S'6.3'
p1324
sg22
S'12/16'
p1325
sg24
g15
sg25
S'LeGarrette Blount'
p1326
sg27
g145
sg29
S'L0-41'
p1327
sg31
S'--'
p1328
sg33
S'--'
p1329
sg34
S'@NO'
p1330
sg36
S'--'
p1331
sg37
S'25'
p1332
sg39
S'10'
p1333
ssg96
(dp1334
g5
S'--'
p1335
sg7
S'--'
p1336
sg9
g15
sg11
S'--'
p1337
sg13
g10
sg14
S'--'
p1338
sg16
S'2012'
p1339
sg18
S'14'
p1340
sg20
S'2.0'
p1341
sg22
S'12/09'
p1342
sg24
g15
sg25
S'LeGarrette Blount'
p1343
sg27
g10
sg29
S'L21-23'
p1344
sg31
S'--'
p1345
sg33
S'--'
p1346
sg34
S'PHI'
p1347
sg36
S'--'
p1348
sg37
g54
sg39
g54
ssg330
(dp1349
g5
S'--'
p1350
sg7
S'--'
p1351
sg9
g15
sg11
S'--'
p1352
sg13
g15
sg14
S'--'
p1353
sg16
S'2012'
p1354
sg18
S'17'
p1355
sg20
S'--'
p1356
sg22
S'12/30'
p1357
sg24
S'--'
p1358
sg25
S'LeGarrette Blount'
p1359
sg27
S'--'
p1360
sg29
S'W22-17'
p1361
sg31
S'--'
p1362
sg33
S'--'
p1363
sg34
S'@ATL'
p1364
sg36
S'--'
p1365
sg37
S'--'
p1366
sg39
S'--'
p1367
ssg349
(dp1368
g5
S'--'
p1369
sg7
S'--'
p1370
sg9
g15
sg11
S'--'
p1371
sg13
g10
sg14
S'--'
p1372
sg16
S'2012'
p1373
sg18
S'16'
p1374
sg20
S'--'
p1375
sg22
S'12/23'
p1376
sg24
S'--'
p1377
sg25
S'LeGarrette Blount'
p1378
sg27
S'--'
p1379
sg29
S'L13-28'
p1380
sg31
S'--'
p1381
sg33
S'--'
p1382
sg34
S'STL'
p1383
sg36
S'--'
p1384
sg37
S'--'
p1385
sg39
S'--'
p1386
ssg10
(dp1387
g5
S'2.0'
p1388
sg7
S'--'
p1389
sg9
g15
sg11
S'--'
p1390
sg13
g10
sg14
g15
sg16
S'2012'
p1391
sg18
g10
sg20
S'2.7'
p1392
sg22
S'09/09'
p1393
sg24
g15
sg25
S'LeGarrette Blount'
p1394
sg27
g115
sg29
S'W16-10'
p1395
sg31
g54
sg33
g10
sg34
S'CAR'
p1396
sg36
g54
sg37
g215
sg39
g145
ssg115
(dp1397
g5
S'--'
p1398
sg7
S'--'
p1399
sg9
g15
sg11
S'--'
p1400
sg13
g10
sg14
S'--'
p1401
sg16
S'2012'
p1402
sg18
g115
sg20
S'4.8'
p1403
sg22
S'09/23'
p1404
sg24
g15
sg25
S'LeGarrette Blount'
p1405
sg27
g145
sg29
S'L10-16'
p1406
sg31
S'--'
p1407
sg33
S'--'
p1408
sg34
S'@DAL'
p1409
sg36
S'--'
p1410
sg37
S'19'
p1411
sg39
S'11'
p1412
ssg54
(dp1413
g5
S'--'
p1414
sg7
S'--'
p1415
sg9
g15
sg11
S'--'
p1416
sg13
g10
sg14
S'--'
p1417
sg16
S'2012'
p1418
sg18
g54
sg20
S'--'
p1419
sg22
S'09/16'
p1420
sg24
S'--'
p1421
sg25
S'LeGarrette Blount'
p1422
sg27
S'--'
p1423
sg29
S'L34-41'
p1424
sg31
S'--'
p1425
sg33
S'--'
p1426
sg34
S'@NYG'
p1427
sg36
S'--'
p1428
sg37
S'--'
p1429
sg39
S'--'
p1430
ssg32
(dp1431
g5
g164
sg7
g164
sg9
g164
sg11
g164
sg13
g164
sg14
g164
sg16
S'2012'
p1432
sg18
g32
sg20
g164
sg22
S'Bye'
p1433
sg24
g164
sg25
S'LeGarrette Blount'
p1434
sg27
g164
sg29
g164
sg31
g164
sg33
g164
sg34
g164
sg36
g164
sg37
g164
sg39
g164
ssg145
(dp1435
g5
S'--'
p1436
sg7
S'--'
p1437
sg9
g15
sg11
S'--'
p1438
sg13
g10
sg14
S'--'
p1439
sg16
S'2012'
p1440
sg18
g145
sg20
S'2.8'
p1441
sg22
S'09/30'
p1442
sg24
g10
sg25
S'LeGarrette Blount'
p1443
sg27
g184
sg29
S'L22-24'
p1444
sg31
S'--'
p1445
sg33
S'--'
p1446
sg34
S'WAS'
p1447
sg36
S'--'
p1448
sg37
S'17'
p1449
sg39
g184
ssg168
(dp1450
g5
S'--'
p1451
sg7
S'--'
p1452
sg9
g15
sg11
S'--'
p1453
sg13
g10
sg14
g15
sg16
S'2012'
p1454
sg18
g168
sg20
S'-0.4'
p1455
sg22
S'10/21'
p1456
sg24
g15
sg25
S'LeGarrette Blount'
p1457
sg27
g32
sg29
S'L28-35'
p1458
sg31
g15
sg33
g15
sg34
S'NO'
p1459
sg36
S'--'
p1460
sg37
S'-2'
p1461
sg39
g10
ssg184
(dp1462
g5
S'--'
p1463
sg7
S'--'
p1464
sg9
g15
sg11
S'--'
p1465
sg13
g10
sg14
S'--'
p1466
sg16
S'2012'
p1467
sg18
g184
sg20
S'8.3'
p1468
sg22
S'10/14'
p1469
sg24
g10
sg25
S'LeGarrette Blount'
p1470
sg27
g168
sg29
S'W38-10'
p1471
sg31
S'--'
p1472
sg33
S'--'
p1473
sg34
S'KC'
p1474
sg36
S'--'
p1475
sg37
S'58'
p1476
sg39
S'35'
p1477
ssg89
(dp1478
g5
S'--'
p1479
sg7
S'--'
p1480
sg9
g15
sg11
S'--'
p1481
sg13
g10
sg14
S'--'
p1482
sg16
S'2012'
p1483
sg18
g89
sg20
S'2.5'
p1484
sg22
S'11/04'
p1485
sg24
g15
sg25
S'LeGarrette Blount'
p1486
sg27
g54
sg29
S'W42-32'
p1487
sg31
S'--'
p1488
sg33
S'--'
p1489
sg34
S'@OAK'
p1490
sg36
S'--'
p1491
sg37
g32
sg39
g115
ssg215
(dp1492
g5
S'--'
p1493
sg7
S'--'
p1494
sg9
g15
sg11
S'--'
p1495
sg13
g10
sg14
S'--'
p1496
sg16
S'2012'
p1497
sg18
g215
sg20
S'2.0'
p1498
sg22
S'10/25'
p1499
sg24
g15
sg25
S'LeGarrette Blount'
p1500
sg27
g215
sg29
S'W36-17'
p1501
sg31
S'--'
p1502
sg33
S'--'
p1503
sg34
S'@MIN'
p1504
sg36
S'--'
p1505
sg37
S'16'
p1506
sg39
g215
sss.