(dp0
S'2015'
p1
(dp2
S'1'
p3
(dp4
S'RecAvg'
p5
S'--'
p6
sS'FUM'
p7
S'--'
p8
sS'GS'
p9
S'0'
p10
sS'Lost'
p11
S'--'
p12
sS'G'
p13
g10
sS'RecTD'
p14
S'--'
p15
sS'Year'
p16
S'2015'
p17
sS'WK'
p18
g3
sS'RushAvg'
p19
S'--'
p20
sS'Game Date'
p21
S'09/13'
p22
sS'RushTD'
p23
S'--'
p24
sS'Player'
p25
S'Lorenzo Taliaferro'
p26
sS'RushAtt'
p27
S'--'
p28
sS'Result'
p29
S'L13-19'
p30
sS'RecYds'
p31
S'--'
p32
sS'Rec'
p33
S'--'
p34
sS'Opp'
p35
S'@DEN'
p36
sS'RecLng'
p37
S'--'
p38
sS'RushYds'
p39
S'--'
p40
sS'RushLng'
p41
S'--'
p42
ssS'3'
p43
(dp44
g5
S'6.0'
p45
sg7
S'--'
p46
sg9
g10
sg11
S'--'
p47
sg13
g3
sg14
g10
sg16
S'2015'
p48
sg18
g43
sg19
S'0.0'
p49
sg21
S'09/27'
p50
sg23
g10
sg25
S'Lorenzo Taliaferro'
p51
sg27
g43
sg29
S'L24-28'
p52
sg31
S'6'
p53
sg33
g3
sg35
S'CIN'
p54
sg37
g53
sg39
g10
sg41
g3
ssS'2'
p55
(dp56
g5
S'4.0'
p57
sg7
S'--'
p58
sg9
g10
sg11
S'--'
p59
sg13
g3
sg14
g10
sg16
S'2015'
p60
sg18
g55
sg19
S'4.9'
p61
sg21
S'09/20'
p62
sg23
g3
sg25
S'Lorenzo Taliaferro'
p63
sg27
S'7'
p64
sg29
S'L33-37'
p65
sg31
S'12'
p66
sg33
g43
sg35
S'@OAK'
p67
sg37
g53
sg39
S'34'
p68
sg41
S'7T'
p69
ssS'5'
p70
(dp71
g5
S'--'
p72
sg7
S'--'
p73
sg9
g10
sg11
S'--'
p74
sg13
g10
sg14
S'--'
p75
sg16
S'2015'
p76
sg18
g70
sg19
S'--'
p77
sg21
S'10/11'
p78
sg23
S'--'
p79
sg25
S'Lorenzo Taliaferro'
p80
sg27
S'--'
p81
sg29
S'L30-33'
p82
sg31
S'--'
p83
sg33
S'--'
p84
sg35
S'CLE'
p85
sg37
S'--'
p86
sg39
S'--'
p87
sg41
S'--'
p88
ssS'4'
p89
(dp90
g5
S'11.0'
p91
sg7
S'--'
p92
sg9
g10
sg11
S'--'
p93
sg13
g3
sg14
g10
sg16
S'2015'
p94
sg18
g89
sg19
S'4.3'
p95
sg21
S'10/01'
p96
sg23
g10
sg25
S'Lorenzo Taliaferro'
p97
sg27
g43
sg29
S'W23-20'
p98
sg31
S'11'
p99
sg33
g3
sg35
S'@PIT'
p100
sg37
S'11'
p101
sg39
S'13'
p102
sg41
g70
sssS'2014'
p103
(dp104
S'11'
p105
(dp106
g5
S''
p107
sg7
g107
sg9
g107
sg11
g107
sg13
g107
sg14
g107
sg16
S'2014'
p108
sg18
S'11'
p109
sg19
g107
sg21
S'Bye'
p110
sg23
g107
sg25
S'Lorenzo Taliaferro'
p111
sg27
g107
sg29
g107
sg31
g107
sg33
g107
sg35
g107
sg37
g107
sg39
g107
sg41
g107
ssS'10'
p112
(dp113
g5
S'--'
p114
sg7
S'--'
p115
sg9
g10
sg11
S'--'
p116
sg13
g3
sg14
S'--'
p117
sg16
S'2014'
p118
sg18
S'10'
p119
sg19
S'3.3'
p120
sg21
S'11/09'
p121
sg23
g10
sg25
S'Lorenzo Taliaferro'
p122
sg27
g43
sg29
S'W21-7'
p123
sg31
S'--'
p124
sg33
S'--'
p125
sg35
S'TEN'
p126
sg37
S'--'
p127
sg39
S'10'
p128
sg41
g89
ssS'13'
p129
(dp130
g5
S'--'
p131
sg7
S'--'
p132
sg9
g10
sg11
S'--'
p133
sg13
g3
sg14
S'--'
p134
sg16
S'2014'
p135
sg18
S'13'
p136
sg19
S'--'
p137
sg21
S'11/30'
p138
sg23
S'--'
p139
sg25
S'Lorenzo Taliaferro'
p140
sg27
S'--'
p141
sg29
S'L33-34'
p142
sg31
S'--'
p143
sg33
S'--'
p144
sg35
S'SD'
p145
sg37
S'--'
p146
sg39
S'--'
p147
sg41
S'--'
p148
ssS'12'
p149
(dp150
g5
S'--'
p151
sg7
S'--'
p152
sg9
g10
sg11
S'--'
p153
sg13
g3
sg14
S'--'
p154
sg16
S'2014'
p155
sg18
S'12'
p156
sg19
S'--'
p157
sg21
S'11/24'
p158
sg23
S'--'
p159
sg25
S'Lorenzo Taliaferro'
p160
sg27
S'--'
p161
sg29
S'W34-27'
p162
sg31
S'--'
p163
sg33
S'--'
p164
sg35
S'@NO'
p165
sg37
S'--'
p166
sg39
S'--'
p167
sg41
S'--'
p168
ssS'15'
p169
(dp170
g5
S'--'
p171
sg7
S'--'
p172
sg9
g10
sg11
S'--'
p173
sg13
g10
sg14
S'--'
p174
sg16
S'2014'
p175
sg18
S'15'
p176
sg19
S'--'
p177
sg21
S'12/14'
p178
sg23
S'--'
p179
sg25
S'Lorenzo Taliaferro'
p180
sg27
S'--'
p181
sg29
S'W20-12'
p182
sg31
S'--'
p183
sg33
S'--'
p184
sg35
S'JAC'
p185
sg37
S'--'
p186
sg39
S'--'
p187
sg41
S'--'
p188
ssS'14'
p189
(dp190
g5
S'20.0'
p191
sg7
S'--'
p192
sg9
g10
sg11
S'--'
p193
sg13
g3
sg14
g10
sg16
S'2014'
p194
sg18
S'14'
p195
sg19
S'5.0'
p196
sg21
S'12/07'
p197
sg23
g10
sg25
S'Lorenzo Taliaferro'
p198
sg27
g64
sg29
S'W28-13'
p199
sg31
S'20'
p200
sg33
g3
sg35
S'@MIA'
p201
sg37
S'20'
p202
sg39
S'35'
p203
sg41
S'13'
p204
ssg3
(dp205
g5
S'--'
p206
sg7
S'--'
p207
sg9
g10
sg11
S'--'
p208
sg13
g3
sg14
g10
sg16
S'2014'
p209
sg18
g3
sg19
S'--'
p210
sg21
S'09/07'
p211
sg23
S'--'
p212
sg25
S'Lorenzo Taliaferro'
p213
sg27
S'--'
p214
sg29
S'L16-23'
p215
sg31
g10
sg33
g10
sg35
S'CIN'
p216
sg37
S'--'
p217
sg39
S'--'
p218
sg41
S'--'
p219
ssg43
(dp220
g5
S'--'
p221
sg7
S'--'
p222
sg9
g10
sg11
S'--'
p223
sg13
g3
sg14
S'--'
p224
sg16
S'2014'
p225
sg18
g43
sg19
S'5.1'
p226
sg21
S'09/21'
p227
sg23
g3
sg25
S'Lorenzo Taliaferro'
p228
sg27
S'18'
p229
sg29
S'W23-21'
p230
sg31
S'--'
p231
sg33
S'--'
p232
sg35
S'@CLE'
p233
sg37
S'--'
p234
sg39
S'91'
p235
sg41
S'31'
p236
ssg55
(dp237
g5
S'--'
p238
sg7
S'--'
p239
sg9
g10
sg11
S'--'
p240
sg13
g3
sg14
S'--'
p241
sg16
S'2014'
p242
sg18
g55
sg19
S'--'
p243
sg21
S'09/11'
p244
sg23
S'--'
p245
sg25
S'Lorenzo Taliaferro'
p246
sg27
S'--'
p247
sg29
S'W26-6'
p248
sg31
S'--'
p249
sg33
S'--'
p250
sg35
S'PIT'
p251
sg37
S'--'
p252
sg39
S'--'
p253
sg41
S'--'
p254
ssg70
(dp255
g5
S'--'
p256
sg7
S'--'
p257
sg9
g10
sg11
S'--'
p258
sg13
g3
sg14
S'--'
p259
sg16
S'2014'
p260
sg18
g70
sg19
S'3.6'
p261
sg21
S'10/05'
p262
sg23
g10
sg25
S'Lorenzo Taliaferro'
p263
sg27
g70
sg29
S'L13-20'
p264
sg31
S'--'
p265
sg33
S'--'
p266
sg35
S'@IND'
p267
sg37
S'--'
p268
sg39
S'18'
p269
sg41
S'9'
p270
ssg89
(dp271
g5
S'--'
p272
sg7
S'--'
p273
sg9
g10
sg11
S'--'
p274
sg13
g3
sg14
S'--'
p275
sg16
S'2014'
p276
sg18
g89
sg19
S'3.9'
p277
sg21
S'09/28'
p278
sg23
g3
sg25
S'Lorenzo Taliaferro'
p279
sg27
S'15'
p280
sg29
S'W38-10'
p281
sg31
S'--'
p282
sg33
S'--'
p283
sg35
S'CAR'
p284
sg37
S'--'
p285
sg39
S'58'
p286
sg41
S'23'
p287
ssg64
(dp288
g5
S'--'
p289
sg7
S'--'
p290
sg9
g10
sg11
S'--'
p291
sg13
g3
sg14
S'--'
p292
sg16
S'2014'
p293
sg18
g64
sg19
S'0.8'
p294
sg21
S'10/19'
p295
sg23
g10
sg25
S'Lorenzo Taliaferro'
p296
sg27
g89
sg29
S'W29-7'
p297
sg31
S'--'
p298
sg33
S'--'
p299
sg35
S'ATL'
p300
sg37
S'--'
p301
sg39
g43
sg41
g43
ssg53
(dp302
g5
S'9.0'
p303
sg7
S'--'
p304
sg9
g10
sg11
S'--'
p305
sg13
g3
sg14
g10
sg16
S'2014'
p306
sg18
g53
sg19
S'14.5'
p307
sg21
S'10/12'
p308
sg23
g10
sg25
S'Lorenzo Taliaferro'
p309
sg27
g55
sg29
S'W48-17'
p310
sg31
S'18'
p311
sg33
g55
sg35
S'@TB'
p312
sg37
S'13'
p313
sg39
S'29'
p314
sg41
S'25'
p315
ssg270
(dp316
g5
S'11.3'
p317
sg7
g3
sg9
g10
sg11
g3
sg13
g3
sg14
g10
sg16
S'2014'
p318
sg18
g270
sg19
S'3.0'
p319
sg21
S'11/02'
p320
sg23
g10
sg25
S'Lorenzo Taliaferro'
p321
sg27
g64
sg29
S'L23-43'
p322
sg31
S'34'
p323
sg33
g43
sg35
S'@PIT'
p324
sg37
S'17'
p325
sg39
S'21'
p326
sg41
g53
ssS'8'
p327
(dp328
g5
S'21.0'
p329
sg7
S'--'
p330
sg9
g10
sg11
S'--'
p331
sg13
g3
sg14
g10
sg16
S'2014'
p332
sg18
g327
sg19
S'3.9'
p333
sg21
S'10/26'
p334
sg23
g55
sg25
S'Lorenzo Taliaferro'
p335
sg27
g64
sg29
S'L24-27'
p336
sg31
S'42'
p337
sg33
g55
sg35
S'@CIN'
p338
sg37
S'29'
p339
sg39
S'27'
p340
sg41
S'10T'
p341
sss.