(dp0
S'2015'
p1
(dp2
S'17'
p3
(dp4
S'RecAvg'
p5
S'-2.0'
p6
sS'FUM'
p7
S'--'
p8
sS'GS'
p9
S'0'
p10
sS'Lost'
p11
S'--'
p12
sS'G'
p13
S'1'
p14
sS'RecTD'
p15
g10
sS'Year'
p16
S'2015'
p17
sS'WK'
p18
S'17'
p19
sS'RushAvg'
p20
S'4.3'
p21
sS'Game Date'
p22
S'01/03'
p23
sS'RushTD'
p24
g10
sS'Player'
p25
S'Malcolm Brown'
p26
sS'RushAtt'
p27
S'4'
p28
sS'Result'
p29
S'L16-19'
p30
sS'RecYds'
p31
S'-2'
p32
sS'Rec'
p33
g14
sS'Opp'
p34
S'@SF'
p35
sS'RecLng'
p36
S'-2'
p37
sS'RushYds'
p38
S'17'
p39
sS'RushLng'
p40
S'13'
p41
sss.