(dp0
S'2015'
p1
(dp2
S'11'
p3
(dp4
S'RecAvg'
p5
S''
p6
sS'FUM'
p7
g6
sS'GS'
p8
g6
sS'Lost'
p9
g6
sS'G'
p10
g6
sS'RecTD'
p11
g6
sS'Year'
p12
S'2015'
p13
sS'WK'
p14
S'11'
p15
sS'RushAvg'
p16
g6
sS'Game Date'
p17
S'Bye'
p18
sS'RushTD'
p19
g6
sS'Player'
p20
S'Marcus Murphy'
p21
sS'RushAtt'
p22
g6
sS'Result'
p23
g6
sS'RecYds'
p24
g6
sS'Rec'
p25
g6
sS'Opp'
p26
g6
sS'RecLng'
p27
g6
sS'RushYds'
p28
g6
sS'RushLng'
p29
g6
ssS'10'
p30
(dp31
g5
S'--'
p32
sg7
S'--'
p33
sg8
S'0'
p34
sg9
S'--'
p35
sg10
S'1'
p36
sg11
S'--'
p37
sg12
S'2015'
p38
sg14
S'10'
p39
sg16
S'--'
p40
sg17
S'11/15'
p41
sg19
S'--'
p42
sg20
S'Marcus Murphy'
p43
sg22
S'--'
p44
sg23
S'L14-47'
p45
sg24
S'--'
p46
sg25
S'--'
p47
sg26
S'@WAS'
p48
sg27
S'--'
p49
sg28
S'--'
p50
sg29
S'--'
p51
ssS'13'
p52
(dp53
g5
S'--'
p54
sg7
S'--'
p55
sg8
g34
sg9
S'--'
p56
sg10
g36
sg11
S'--'
p57
sg12
S'2015'
p58
sg14
S'13'
p59
sg16
S'--'
p60
sg17
S'12/06'
p61
sg19
S'--'
p62
sg20
S'Marcus Murphy'
p63
sg22
S'--'
p64
sg23
S'L38-41'
p65
sg24
S'--'
p66
sg25
S'--'
p67
sg26
S'CAR'
p68
sg27
S'--'
p69
sg28
S'--'
p70
sg29
S'--'
p71
ssS'12'
p72
(dp73
g5
S'--'
p74
sg7
S'--'
p75
sg8
g34
sg9
S'--'
p76
sg10
g36
sg11
S'--'
p77
sg12
S'2015'
p78
sg14
S'12'
p79
sg16
S'--'
p80
sg17
S'11/29'
p81
sg19
S'--'
p82
sg20
S'Marcus Murphy'
p83
sg22
S'--'
p84
sg23
S'L6-24'
p85
sg24
S'--'
p86
sg25
S'--'
p87
sg26
S'@HOU'
p88
sg27
S'--'
p89
sg28
S'--'
p90
sg29
S'--'
p91
ssS'14'
p92
(dp93
g5
S'--'
p94
sg7
S'--'
p95
sg8
g34
sg9
S'--'
p96
sg10
g36
sg11
S'--'
p97
sg12
S'2015'
p98
sg14
S'14'
p99
sg16
S'0.0'
p100
sg17
S'12/13'
p101
sg19
g34
sg20
S'Marcus Murphy'
p102
sg22
g36
sg23
S'W24-17'
p103
sg24
S'--'
p104
sg25
S'--'
p105
sg26
S'@TB'
p106
sg27
S'--'
p107
sg28
g34
sg29
g34
ssg36
(dp108
g5
S'--'
p109
sg7
S'--'
p110
sg8
g34
sg9
S'--'
p111
sg10
g36
sg11
S'--'
p112
sg12
S'2015'
p113
sg14
g36
sg16
S'--'
p114
sg17
S'09/13'
p115
sg19
S'--'
p116
sg20
S'Marcus Murphy'
p117
sg22
S'--'
p118
sg23
S'L19-31'
p119
sg24
S'--'
p120
sg25
S'--'
p121
sg26
S'@ARI'
p122
sg27
S'--'
p123
sg28
S'--'
p124
sg29
S'--'
p125
ssS'3'
p126
(dp127
g5
S'--'
p128
sg7
S'--'
p129
sg8
g34
sg9
S'--'
p130
sg10
g36
sg11
S'--'
p131
sg12
S'2015'
p132
sg14
g126
sg16
S'--'
p133
sg17
S'09/27'
p134
sg19
S'--'
p135
sg20
S'Marcus Murphy'
p136
sg22
S'--'
p137
sg23
S'L22-27'
p138
sg24
S'--'
p139
sg25
S'--'
p140
sg26
S'@CAR'
p141
sg27
S'--'
p142
sg28
S'--'
p143
sg29
S'--'
p144
ssS'2'
p145
(dp146
g5
S'--'
p147
sg7
g36
sg8
g34
sg9
g34
sg10
g36
sg11
S'--'
p148
sg12
S'2015'
p149
sg14
g145
sg16
S'--'
p150
sg17
S'09/20'
p151
sg19
S'--'
p152
sg20
S'Marcus Murphy'
p153
sg22
S'--'
p154
sg23
S'L19-26'
p155
sg24
S'--'
p156
sg25
S'--'
p157
sg26
S'TB'
p158
sg27
S'--'
p159
sg28
S'--'
p160
sg29
S'--'
p161
ssS'5'
p162
(dp163
g5
S'--'
p164
sg7
S'--'
p165
sg8
g34
sg9
S'--'
p166
sg10
g36
sg11
S'--'
p167
sg12
S'2015'
p168
sg14
g162
sg16
S'--'
p169
sg17
S'10/11'
p170
sg19
S'--'
p171
sg20
S'Marcus Murphy'
p172
sg22
S'--'
p173
sg23
S'L17-39'
p174
sg24
S'--'
p175
sg25
S'--'
p176
sg26
S'@PHI'
p177
sg27
S'--'
p178
sg28
S'--'
p179
sg29
S'--'
p180
ssS'4'
p181
(dp182
g5
S'--'
p183
sg7
S'--'
p184
sg8
g34
sg9
S'--'
p185
sg10
g36
sg11
S'--'
p186
sg12
S'2015'
p187
sg14
g181
sg16
S'--'
p188
sg17
S'10/04'
p189
sg19
S'--'
p190
sg20
S'Marcus Murphy'
p191
sg22
S'--'
p192
sg23
S'W26-20'
p193
sg24
S'--'
p194
sg25
S'--'
p195
sg26
S'DAL'
p196
sg27
S'--'
p197
sg28
S'--'
p198
sg29
S'--'
p199
ssS'7'
p200
(dp201
g5
S'--'
p202
sg7
S'--'
p203
sg8
g34
sg9
S'--'
p204
sg10
g36
sg11
S'--'
p205
sg12
S'2015'
p206
sg14
g200
sg16
S'--'
p207
sg17
S'10/25'
p208
sg19
S'--'
p209
sg20
S'Marcus Murphy'
p210
sg22
S'--'
p211
sg23
S'W27-21'
p212
sg24
S'--'
p213
sg25
S'--'
p214
sg26
S'@IND'
p215
sg27
S'--'
p216
sg28
S'--'
p217
sg29
S'--'
p218
ssS'6'
p219
(dp220
g5
S'--'
p221
sg7
S'--'
p222
sg8
g34
sg9
S'--'
p223
sg10
g36
sg11
S'--'
p224
sg12
S'2015'
p225
sg14
g219
sg16
S'--'
p226
sg17
S'10/15'
p227
sg19
S'--'
p228
sg20
S'Marcus Murphy'
p229
sg22
S'--'
p230
sg23
S'W31-21'
p231
sg24
S'--'
p232
sg25
S'--'
p233
sg26
S'ATL'
p234
sg27
S'--'
p235
sg28
S'--'
p236
sg29
S'--'
p237
ssS'9'
p238
(dp239
g5
S'--'
p240
sg7
g36
sg8
g34
sg9
g36
sg10
g36
sg11
S'--'
p241
sg12
S'2015'
p242
sg14
g238
sg16
S'--'
p243
sg17
S'11/08'
p244
sg19
S'--'
p245
sg20
S'Marcus Murphy'
p246
sg22
S'--'
p247
sg23
S'L28-34'
p248
sg24
S'--'
p249
sg25
S'--'
p250
sg26
S'TEN'
p251
sg27
S'--'
p252
sg28
S'--'
p253
sg29
S'--'
p254
ssS'8'
p255
(dp256
g5
S'--'
p257
sg7
g36
sg8
g34
sg9
g34
sg10
g36
sg11
S'--'
p258
sg12
S'2015'
p259
sg14
g255
sg16
S'--'
p260
sg17
S'11/01'
p261
sg19
S'--'
p262
sg20
S'Marcus Murphy'
p263
sg22
S'--'
p264
sg23
S'W52-49'
p265
sg24
S'--'
p266
sg25
S'--'
p267
sg26
S'NYG'
p268
sg27
S'--'
p269
sg28
S'--'
p270
sg29
S'--'
p271
sss.