(dp0
S'2015'
p1
(dp2
S'11'
p3
(dp4
S'RecAvg'
p5
S'--'
p6
sS'FUM'
p7
S'--'
p8
sS'GS'
p9
S'0'
p10
sS'Lost'
p11
S'--'
p12
sS'G'
p13
S'1'
p14
sS'RecTD'
p15
g10
sS'Year'
p16
S'2015'
p17
sS'WK'
p18
S'11'
p19
sS'RushAvg'
p20
S'1.0'
p21
sS'Game Date'
p22
S'11/22'
p23
sS'RushTD'
p24
g10
sS'Player'
p25
S'Marcel Reece'
p26
sS'RushAtt'
p27
S'2'
p28
sS'Result'
p29
S'L13-18'
p30
sS'RecYds'
p31
g10
sS'Rec'
p32
g10
sS'Opp'
p33
S'@DET'
p34
sS'RecLng'
p35
S'--'
p36
sS'RushYds'
p37
g28
sS'RushLng'
p38
g28
ssS'10'
p39
(dp40
g5
S'0.0'
p41
sg7
S'--'
p42
sg9
g10
sg11
S'--'
p43
sg13
g14
sg15
g10
sg16
S'2015'
p44
sg18
S'10'
p45
sg20
S'--'
p46
sg22
S'11/15'
p47
sg24
S'--'
p48
sg25
S'Marcel Reece'
p49
sg27
S'--'
p50
sg29
S'L14-30'
p51
sg31
g10
sg32
g14
sg33
S'MIN'
p52
sg35
g10
sg37
S'--'
p53
sg38
S'--'
p54
ssS'13'
p55
(dp56
g5
S'6.3'
p57
sg7
S'--'
p58
sg9
g14
sg11
S'--'
p59
sg13
g14
sg15
g10
sg16
S'2015'
p60
sg18
S'13'
p61
sg20
S'4.0'
p62
sg22
S'12/06'
p63
sg24
g10
sg25
S'Marcel Reece'
p64
sg27
g14
sg29
S'L20-34'
p65
sg31
S'19'
p66
sg32
S'3'
p67
sg33
S'KC'
p68
sg35
S'15'
p69
sg37
S'4'
p70
sg38
g70
ssS'12'
p71
(dp72
g5
S'7.0'
p73
sg7
S'--'
p74
sg9
g10
sg11
S'--'
p75
sg13
g14
sg15
g10
sg16
S'2015'
p76
sg18
S'12'
p77
sg20
S'--'
p78
sg22
S'11/29'
p79
sg24
S'--'
p80
sg25
S'Marcel Reece'
p81
sg27
S'--'
p82
sg29
S'W24-21'
p83
sg31
S'7'
p84
sg32
g14
sg33
S'@TEN'
p85
sg35
g84
sg37
S'--'
p86
sg38
S'--'
p87
ssS'15'
p88
(dp89
g5
S'12.3'
p90
sg7
S'--'
p91
sg9
g10
sg11
S'--'
p92
sg13
g14
sg15
g10
sg16
S'2015'
p93
sg18
S'15'
p94
sg20
S'--'
p95
sg22
S'12/20'
p96
sg24
S'--'
p97
sg25
S'Marcel Reece'
p98
sg27
S'--'
p99
sg29
S'L20-30'
p100
sg31
S'37'
p101
sg32
g67
sg33
S'GB'
p102
sg35
S'29'
p103
sg37
S'--'
p104
sg38
S'--'
p105
ssS'14'
p106
(dp107
g5
S'--'
p108
sg7
S'--'
p109
sg9
g10
sg11
S'--'
p110
sg13
g14
sg15
S'--'
p111
sg16
S'2015'
p112
sg18
S'14'
p113
sg20
S'1.0'
p114
sg22
S'12/13'
p115
sg24
g10
sg25
S'Marcel Reece'
p116
sg27
g28
sg29
S'W15-12'
p117
sg31
S'--'
p118
sg32
S'--'
p119
sg33
S'@DEN'
p120
sg35
S'--'
p121
sg37
g28
sg38
g28
ssS'16'
p122
(dp123
g5
S'1.5'
p124
sg7
S'--'
p125
sg9
g14
sg11
S'--'
p126
sg13
g14
sg15
g10
sg16
S'2015'
p127
sg18
S'16'
p128
sg20
S'--'
p129
sg22
S'12/24'
p130
sg24
S'--'
p131
sg25
S'Marcel Reece'
p132
sg27
S'--'
p133
sg29
S'W23-20'
p134
sg31
g67
sg32
g28
sg33
S'SD'
p135
sg35
g67
sg37
S'--'
p136
sg38
S'--'
p137
ssg14
(dp138
g5
S'8.7'
p139
sg7
S'--'
p140
sg9
g14
sg11
S'--'
p141
sg13
g14
sg15
g28
sg16
S'2015'
p142
sg18
g14
sg20
S'--'
p143
sg22
S'09/13'
p144
sg24
S'--'
p145
sg25
S'Marcel Reece'
p146
sg27
S'--'
p147
sg29
S'L13-33'
p148
sg31
S'26'
p149
sg32
g67
sg33
S'CIN'
p150
sg35
S'11T'
p151
sg37
S'--'
p152
sg38
S'--'
p153
ssg67
(dp154
g5
S'55.0'
p155
sg7
S'--'
p156
sg9
g14
sg11
S'--'
p157
sg13
g14
sg15
g10
sg16
S'2015'
p158
sg18
g67
sg20
S'1.0'
p159
sg22
S'09/27'
p160
sg24
g10
sg25
S'Marcel Reece'
p161
sg27
g14
sg29
S'W27-20'
p162
sg31
S'55'
p163
sg32
g14
sg33
S'@CLE'
p164
sg35
S'55'
p165
sg37
g14
sg38
g14
ssg28
(dp166
g5
S'16.0'
p167
sg7
S'--'
p168
sg9
g14
sg11
S'--'
p169
sg13
g14
sg15
g10
sg16
S'2015'
p170
sg18
g28
sg20
S'--'
p171
sg22
S'09/20'
p172
sg24
S'--'
p173
sg25
S'Marcel Reece'
p174
sg27
S'--'
p175
sg29
S'W37-33'
p176
sg31
S'16'
p177
sg32
g14
sg33
S'BAL'
p178
sg35
S'16'
p179
sg37
S'--'
p180
sg38
S'--'
p181
ssS'5'
p182
(dp183
g5
S'7.0'
p184
sg7
S'--'
p185
sg9
g14
sg11
S'--'
p186
sg13
g14
sg15
g14
sg16
S'2015'
p187
sg18
g182
sg20
S'6.0'
p188
sg22
S'10/11'
p189
sg24
g10
sg25
S'Marcel Reece'
p190
sg27
g14
sg29
S'L10-16'
p191
sg31
S'49'
p192
sg32
g84
sg33
S'DEN'
p193
sg35
S'13'
p194
sg37
S'6'
p195
sg38
g195
ssg70
(dp196
g5
S'8.0'
p197
sg7
S'--'
p198
sg9
g14
sg11
S'--'
p199
sg13
g14
sg15
g10
sg16
S'2015'
p200
sg18
g70
sg20
S'--'
p201
sg22
S'10/04'
p202
sg24
S'--'
p203
sg25
S'Marcel Reece'
p204
sg27
S'--'
p205
sg29
S'L20-22'
p206
sg31
S'16'
p207
sg32
g28
sg33
S'@CHI'
p208
sg35
S'10'
p209
sg37
S'--'
p210
sg38
S'--'
p211
ssg84
(dp212
g5
S'5.0'
p213
sg7
S'--'
p214
sg9
g10
sg11
S'--'
p215
sg13
g14
sg15
g10
sg16
S'2015'
p216
sg18
g84
sg20
S'--'
p217
sg22
S'10/25'
p218
sg24
S'--'
p219
sg25
S'Marcel Reece'
p220
sg27
S'--'
p221
sg29
S'W37-29'
p222
sg31
S'15'
p223
sg32
g67
sg33
S'@SD'
p224
sg35
g195
sg37
S'--'
p225
sg38
S'--'
p226
ssg195
(dp227
g5
S''
p228
sg7
g228
sg9
g228
sg11
g228
sg13
g228
sg15
g228
sg16
S'2015'
p229
sg18
g195
sg20
g228
sg22
S'Bye'
p230
sg24
g228
sg25
S'Marcel Reece'
p231
sg27
g228
sg29
g228
sg31
g228
sg32
g228
sg33
g228
sg35
g228
sg37
g228
sg38
g228
ssS'9'
p232
(dp233
g5
S'--'
p234
sg7
S'--'
p235
sg9
g10
sg11
S'--'
p236
sg13
g14
sg15
S'--'
p237
sg16
S'2015'
p238
sg18
g232
sg20
S'7.0'
p239
sg22
S'11/08'
p240
sg24
g10
sg25
S'Marcel Reece'
p241
sg27
g67
sg29
S'L35-38'
p242
sg31
S'--'
p243
sg32
S'--'
p244
sg33
S'@PIT'
p245
sg35
S'--'
p246
sg37
S'21'
p247
sg38
S'12'
p248
ssS'8'
p249
(dp250
g5
S'8.7'
p251
sg7
S'--'
p252
sg9
g10
sg11
S'--'
p253
sg13
g14
sg15
g10
sg16
S'2015'
p254
sg18
g249
sg20
S'--'
p255
sg22
S'11/01'
p256
sg24
S'--'
p257
sg25
S'Marcel Reece'
p258
sg27
S'--'
p259
sg29
S'W34-20'
p260
sg31
S'26'
p261
sg32
g67
sg33
S'NYJ'
p262
sg35
S'15'
p263
sg37
S'--'
p264
sg38
S'--'
p265
sssS'2014'
p266
(dp267
g3
(dp268
g5
S'-2.0'
p269
sg7
S'--'
p270
sg9
g14
sg11
S'--'
p271
sg13
g14
sg15
g10
sg16
S'2014'
p272
sg18
S'11'
p273
sg20
S'1.0'
p274
sg22
S'11/16'
p275
sg24
g10
sg25
S'Marcel Reece'
p276
sg27
g14
sg29
S'L6-13'
p277
sg31
S'-4'
p278
sg32
g28
sg33
S'@SD'
p279
sg35
g10
sg37
g14
sg38
g14
ssg39
(dp280
g5
S'3.0'
p281
sg7
S'--'
p282
sg9
g14
sg11
S'--'
p283
sg13
g14
sg15
g10
sg16
S'2014'
p284
sg18
S'10'
p285
sg20
S'3.0'
p286
sg22
S'11/09'
p287
sg24
g10
sg25
S'Marcel Reece'
p288
sg27
g14
sg29
S'L17-41'
p289
sg31
g195
sg32
g28
sg33
S'DEN'
p290
sg35
g195
sg37
g67
sg38
g67
ssg55
(dp291
g5
S'8.0'
p292
sg7
g14
sg9
g14
sg11
g14
sg13
g14
sg15
g10
sg16
S'2014'
p293
sg18
S'13'
p294
sg20
S'3.0'
p295
sg22
S'11/30'
p296
sg24
g10
sg25
S'Marcel Reece'
p297
sg27
g70
sg29
S'L0-52'
p298
sg31
S'48'
p299
sg32
g195
sg33
S'@STL'
p300
sg35
S'13'
p301
sg37
S'12'
p302
sg38
g249
ssg71
(dp303
g5
S'8.0'
p304
sg7
S'--'
p305
sg9
g14
sg11
S'--'
p306
sg13
g14
sg15
g10
sg16
S'2014'
p307
sg18
S'12'
p308
sg20
S'4.6'
p309
sg22
S'11/20'
p310
sg24
g10
sg25
S'Marcel Reece'
p311
sg27
g249
sg29
S'W24-20'
p312
sg31
g249
sg32
g14
sg33
S'KC'
p313
sg35
g249
sg37
S'37'
p314
sg38
g232
ssg88
(dp315
g5
S'--'
p316
sg7
S'--'
p317
sg9
g14
sg11
S'--'
p318
sg13
g14
sg15
g10
sg16
S'2014'
p319
sg18
S'15'
p320
sg20
S'--'
p321
sg22
S'12/14'
p322
sg24
S'--'
p323
sg25
S'Marcel Reece'
p324
sg27
S'--'
p325
sg29
S'L13-31'
p326
sg31
g10
sg32
g10
sg33
S'@KC'
p327
sg35
S'--'
p328
sg37
S'--'
p329
sg38
S'--'
p330
ssg106
(dp331
g5
S'9.1'
p332
sg7
S'--'
p333
sg9
g14
sg11
S'--'
p334
sg13
g14
sg15
g14
sg16
S'2014'
p335
sg18
S'14'
p336
sg20
S'1.0'
p337
sg22
S'12/07'
p338
sg24
g10
sg25
S'Marcel Reece'
p339
sg27
g28
sg29
S'W24-13'
p340
sg31
S'64'
p341
sg32
g84
sg33
S'SF'
p342
sg35
S'14'
p343
sg37
g28
sg38
g67
ssS'17'
p344
(dp345
g5
S'10.0'
p346
sg7
S'--'
p347
sg9
g14
sg11
S'--'
p348
sg13
g14
sg15
g10
sg16
S'2014'
p349
sg18
S'17'
p350
sg20
S'11.0'
p351
sg22
S'12/28'
p352
sg24
g10
sg25
S'Marcel Reece'
p353
sg27
g14
sg29
S'L14-47'
p354
sg31
S'30'
p355
sg32
g67
sg33
S'@DEN'
p356
sg35
S'14'
p357
sg37
S'11'
p358
sg38
S'11'
p359
ssg122
(dp360
g5
S'10.0'
p361
sg7
S'--'
p362
sg9
g14
sg11
S'--'
p363
sg13
g14
sg15
g10
sg16
S'2014'
p364
sg18
S'16'
p365
sg20
S'--'
p366
sg22
S'12/21'
p367
sg24
S'--'
p368
sg25
S'Marcel Reece'
p369
sg27
S'--'
p370
sg29
S'W26-24'
p371
sg31
S'20'
p372
sg32
g28
sg33
S'BUF'
p373
sg35
S'16'
p374
sg37
S'--'
p375
sg38
S'--'
p376
ssg14
(dp377
g5
S'0.5'
p378
sg7
S'--'
p379
sg9
g14
sg11
S'--'
p380
sg13
g14
sg15
g10
sg16
S'2014'
p381
sg18
g14
sg20
S'0.0'
p382
sg22
S'09/07'
p383
sg24
g10
sg25
S'Marcel Reece'
p384
sg27
g14
sg29
S'L14-19'
p385
sg31
g14
sg32
g28
sg33
S'@NYJ'
p386
sg35
g14
sg37
g10
sg38
g10
ssg67
(dp387
g5
S'6.3'
p388
sg7
S'--'
p389
sg9
g14
sg11
S'--'
p390
sg13
g14
sg15
g10
sg16
S'2014'
p391
sg18
g67
sg20
S'7.0'
p392
sg22
S'09/21'
p393
sg24
g10
sg25
S'Marcel Reece'
p394
sg27
g14
sg29
S'L9-16'
p395
sg31
S'19'
p396
sg32
g67
sg33
S'@NE'
p397
sg35
S'12'
p398
sg37
g84
sg38
g84
ssg28
(dp399
g5
S'11.0'
p400
sg7
S'--'
p401
sg9
g14
sg11
S'--'
p402
sg13
g14
sg15
g10
sg16
S'2014'
p403
sg18
g28
sg20
S'--'
p404
sg22
S'09/14'
p405
sg24
S'--'
p406
sg25
S'Marcel Reece'
p407
sg27
S'--'
p408
sg29
S'L14-30'
p409
sg31
S'11'
p410
sg32
g14
sg33
S'HOU'
p411
sg35
S'11'
p412
sg37
S'--'
p413
sg38
S'--'
p414
ssg182
(dp415
g5
g228
sg7
g228
sg9
g228
sg11
g228
sg13
g228
sg15
g228
sg16
S'2014'
p416
sg18
g182
sg20
g228
sg22
S'Bye'
p417
sg24
g228
sg25
S'Marcel Reece'
p418
sg27
g228
sg29
g228
sg31
g228
sg32
g228
sg33
g228
sg35
g228
sg37
g228
sg38
g228
ssg70
(dp419
g5
S'5.0'
p420
sg7
S'--'
p421
sg9
g14
sg11
S'--'
p422
sg13
g14
sg15
g10
sg16
S'2014'
p423
sg18
g70
sg20
S'--'
p424
sg22
S'09/28'
p425
sg24
S'--'
p426
sg25
S'Marcel Reece'
p427
sg27
S'--'
p428
sg29
S'L14-38'
p429
sg31
g182
sg32
g14
sg33
S'MIA'
p430
sg35
g182
sg37
S'--'
p431
sg38
S'--'
p432
ssg84
(dp433
g5
S'--'
p434
sg7
S'--'
p435
sg9
g10
sg11
S'--'
p436
sg13
g10
sg15
S'--'
p437
sg16
S'2014'
p438
sg18
g84
sg20
S'--'
p439
sg22
S'10/19'
p440
sg24
S'--'
p441
sg25
S'Marcel Reece'
p442
sg27
S'--'
p443
sg29
S'L13-24'
p444
sg31
S'--'
p445
sg32
S'--'
p446
sg33
S'ARI'
p447
sg35
S'--'
p448
sg37
S'--'
p449
sg38
S'--'
p450
ssg195
(dp451
g5
S'11.0'
p452
sg7
S'--'
p453
sg9
g14
sg11
S'--'
p454
sg13
g14
sg15
g10
sg16
S'2014'
p455
sg18
g195
sg20
S'2.0'
p456
sg22
S'10/12'
p457
sg24
g10
sg25
S'Marcel Reece'
p458
sg27
g14
sg29
S'L28-31'
p459
sg31
S'11'
p460
sg32
g14
sg33
S'SD'
p461
sg35
S'11'
p462
sg37
g28
sg38
g28
ssg232
(dp463
g5
S'12.0'
p464
sg7
S'--'
p465
sg9
g14
sg11
S'--'
p466
sg13
g14
sg15
g10
sg16
S'2014'
p467
sg18
g232
sg20
S'10.0'
p468
sg22
S'11/02'
p469
sg24
g10
sg25
S'Marcel Reece'
p470
sg27
g14
sg29
S'L24-30'
p471
sg31
S'12'
p472
sg32
g14
sg33
S'@SEA'
p473
sg35
S'12'
p474
sg37
S'10'
p475
sg38
S'10'
p476
ssg249
(dp477
g5
S'6.8'
p478
sg7
S'--'
p479
sg9
g14
sg11
S'--'
p480
sg13
g14
sg15
g10
sg16
S'2014'
p481
sg18
g249
sg20
S'--'
p482
sg22
S'10/26'
p483
sg24
S'--'
p484
sg25
S'Marcel Reece'
p485
sg27
S'--'
p486
sg29
S'L13-23'
p487
sg31
S'34'
p488
sg32
g182
sg33
S'@CLE'
p489
sg35
S'19'
p490
sg37
S'--'
p491
sg38
S'--'
p492
sssS'2011'
p493
(dp494
g3
(dp495
g5
S'8.0'
p496
sg7
S'--'
p497
sg9
g10
sg11
S'--'
p498
sg13
g14
sg15
g10
sg16
S'2011'
p499
sg18
S'11'
p500
sg20
S'7.5'
p501
sg22
S'11/20'
p502
sg24
g10
sg25
S'Marcel Reece'
p503
sg27
g195
sg29
S'W27-21'
p504
sg31
S'16'
p505
sg32
g28
sg33
S'@MIN'
p506
sg35
S'12'
p507
sg37
S'45'
p508
sg38
S'20'
p509
ssg39
(dp510
g5
S'--'
p511
sg7
S'--'
p512
sg9
g14
sg11
S'--'
p513
sg13
g14
sg15
g10
sg16
S'2011'
p514
sg18
S'10'
p515
sg20
S'3.0'
p516
sg22
S'11/10'
p517
sg24
g10
sg25
S'Marcel Reece'
p518
sg27
g14
sg29
S'W24-17'
p519
sg31
g10
sg32
g10
sg33
S'@SD'
p520
sg35
S'--'
p521
sg37
g67
sg38
g67
ssg55
(dp522
g5
S'38.0'
p523
sg7
S'--'
p524
sg9
g14
sg11
S'--'
p525
sg13
g14
sg15
g10
sg16
S'2011'
p526
sg18
S'13'
p527
sg20
S'10.0'
p528
sg22
S'12/04'
p529
sg24
g10
sg25
S'Marcel Reece'
p530
sg27
g14
sg29
S'L14-34'
p531
sg31
S'38'
p532
sg32
g14
sg33
S'@MIA'
p533
sg35
S'38'
p534
sg37
S'10'
p535
sg38
S'10'
p536
ssg71
(dp537
g5
S'18.4'
p538
sg7
S'--'
p539
sg9
g14
sg11
S'--'
p540
sg13
g14
sg15
g10
sg16
S'2011'
p541
sg18
S'12'
p542
sg20
S'0.0'
p543
sg22
S'11/27'
p544
sg24
g10
sg25
S'Marcel Reece'
p545
sg27
g28
sg29
S'W25-20'
p546
sg31
S'92'
p547
sg32
g182
sg33
S'CHI'
p548
sg35
S'47'
p549
sg37
g10
sg38
g67
ssg88
(dp550
g5
S'5.3'
p551
sg7
S'--'
p552
sg9
g10
sg11
S'--'
p553
sg13
g14
sg15
g10
sg16
S'2011'
p554
sg18
S'15'
p555
sg20
S'26.0'
p556
sg22
S'12/18'
p557
sg24
g10
sg25
S'Marcel Reece'
p558
sg27
g14
sg29
S'L27-28'
p559
sg31
S'16'
p560
sg32
g67
sg33
S'DET'
p561
sg35
S'18'
p562
sg37
S'26'
p563
sg38
S'26'
p564
ssg106
(dp565
g5
S'1.8'
p566
sg7
g14
sg9
g10
sg11
g14
sg13
g14
sg15
g10
sg16
S'2011'
p567
sg18
S'14'
p568
sg20
S'6.0'
p569
sg22
S'12/11'
p570
sg24
g10
sg25
S'Marcel Reece'
p571
sg27
g28
sg29
S'L16-46'
p572
sg31
g84
sg32
g70
sg33
S'@GB'
p573
sg35
S'12'
p574
sg37
S'12'
p575
sg38
g232
ssg344
(dp576
g5
S'14.0'
p577
sg7
S'--'
p578
sg9
g10
sg11
S'--'
p579
sg13
g14
sg15
g10
sg16
S'2011'
p580
sg18
S'17'
p581
sg20
S'--'
p582
sg22
S'01/01'
p583
sg24
S'--'
p584
sg25
S'Marcel Reece'
p585
sg27
S'--'
p586
sg29
S'L26-38'
p587
sg31
S'28'
p588
sg32
g28
sg33
S'SD'
p589
sg35
S'22'
p590
sg37
S'--'
p591
sg38
S'--'
p592
ssg122
(dp593
g5
S'10.0'
p594
sg7
S'--'
p595
sg9
g14
sg11
S'--'
p596
sg13
g14
sg15
g10
sg16
S'2011'
p597
sg18
S'16'
p598
sg20
S'0.5'
p599
sg22
S'12/24'
p600
sg24
g10
sg25
S'Marcel Reece'
p601
sg27
g28
sg29
S'W16-13'
p602
sg31
S'10'
p603
sg32
g14
sg33
S'@KC'
p604
sg35
S'10'
p605
sg37
g14
sg38
g14
ssg14
(dp606
g5
S'7.7'
p607
sg7
S'--'
p608
sg9
g14
sg11
S'--'
p609
sg13
g14
sg15
g14
sg16
S'2011'
p610
sg18
g14
sg20
S'11.0'
p611
sg22
S'09/12'
p612
sg24
g10
sg25
S'Marcel Reece'
p613
sg27
g14
sg29
S'W23-20'
p614
sg31
S'23'
p615
sg32
g67
sg33
S'@DEN'
p616
sg35
S'16'
p617
sg37
S'11'
p618
sg38
S'11'
p619
ssg67
(dp620
g5
S'--'
p621
sg7
S'--'
p622
sg9
g10
sg11
S'--'
p623
sg13
g14
sg15
S'--'
p624
sg16
S'2011'
p625
sg18
g67
sg20
S'--'
p626
sg22
S'09/25'
p627
sg24
S'--'
p628
sg25
S'Marcel Reece'
p629
sg27
S'--'
p630
sg29
S'W34-24'
p631
sg31
S'--'
p632
sg32
S'--'
p633
sg33
S'NYJ'
p634
sg35
S'--'
p635
sg37
S'--'
p636
sg38
S'--'
p637
ssg28
(dp638
g5
S'6.7'
p639
sg7
S'--'
p640
sg9
g14
sg11
S'--'
p641
sg13
g14
sg15
g10
sg16
S'2011'
p642
sg18
g28
sg20
S'4.0'
p643
sg22
S'09/18'
p644
sg24
g10
sg25
S'Marcel Reece'
p645
sg27
g14
sg29
S'L35-38'
p646
sg31
S'20'
p647
sg32
g67
sg33
S'@BUF'
p648
sg35
S'12'
p649
sg37
g70
sg38
g70
ssg182
(dp650
g5
S'--'
p651
sg7
S'--'
p652
sg9
g10
sg11
S'--'
p653
sg13
g10
sg15
S'--'
p654
sg16
S'2011'
p655
sg18
g182
sg20
S'--'
p656
sg22
S'10/09'
p657
sg24
S'--'
p658
sg25
S'Marcel Reece'
p659
sg27
S'--'
p660
sg29
S'W25-20'
p661
sg31
S'--'
p662
sg32
S'--'
p663
sg33
S'@HOU'
p664
sg35
S'--'
p665
sg37
S'--'
p666
sg38
S'--'
p667
ssg70
(dp668
g5
S'--'
p669
sg7
S'--'
p670
sg9
g10
sg11
S'--'
p671
sg13
g10
sg15
S'--'
p672
sg16
S'2011'
p673
sg18
g70
sg20
S'--'
p674
sg22
S'10/02'
p675
sg24
S'--'
p676
sg25
S'Marcel Reece'
p677
sg27
S'--'
p678
sg29
S'L19-31'
p679
sg31
S'--'
p680
sg32
S'--'
p681
sg33
S'NE'
p682
sg35
S'--'
p683
sg37
S'--'
p684
sg38
S'--'
p685
ssg84
(dp686
g5
S'--'
p687
sg7
S'--'
p688
sg9
g10
sg11
S'--'
p689
sg13
g10
sg15
S'--'
p690
sg16
S'2011'
p691
sg18
g84
sg20
S'--'
p692
sg22
S'10/23'
p693
sg24
S'--'
p694
sg25
S'Marcel Reece'
p695
sg27
S'--'
p696
sg29
S'L0-28'
p697
sg31
S'--'
p698
sg32
S'--'
p699
sg33
S'KC'
p700
sg35
S'--'
p701
sg37
S'--'
p702
sg38
S'--'
p703
ssg195
(dp704
g5
S'--'
p705
sg7
S'--'
p706
sg9
g10
sg11
S'--'
p707
sg13
g10
sg15
S'--'
p708
sg16
S'2011'
p709
sg18
g195
sg20
S'--'
p710
sg22
S'10/16'
p711
sg24
S'--'
p712
sg25
S'Marcel Reece'
p713
sg27
S'--'
p714
sg29
S'W24-17'
p715
sg31
S'--'
p716
sg32
S'--'
p717
sg33
S'CLE'
p718
sg35
S'--'
p719
sg37
S'--'
p720
sg38
S'--'
p721
ssg232
(dp722
g5
S'17.0'
p723
sg7
S'--'
p724
sg9
g10
sg11
S'--'
p725
sg13
g14
sg15
g14
sg16
S'2011'
p726
sg18
g232
sg20
S'--'
p727
sg22
S'11/06'
p728
sg24
S'--'
p729
sg25
S'Marcel Reece'
p730
sg27
S'--'
p731
sg29
S'L24-38'
p732
sg31
S'51'
p733
sg32
g67
sg33
S'DEN'
p734
sg35
S'40T'
p735
sg37
S'--'
p736
sg38
S'--'
p737
ssg249
(dp738
g5
g228
sg7
g228
sg9
g228
sg11
g228
sg13
g228
sg15
g228
sg16
S'2011'
p739
sg18
g249
sg20
g228
sg22
S'Bye'
p740
sg24
g228
sg25
S'Marcel Reece'
p741
sg27
g228
sg29
g228
sg31
g228
sg32
g228
sg33
g228
sg35
g228
sg37
g228
sg38
g228
sssS'2010'
p742
(dp743
g3
(dp744
g5
S'--'
p745
sg7
S'--'
p746
sg9
g10
sg11
S'--'
p747
sg13
g14
sg15
g10
sg16
S'2010'
p748
sg18
S'11'
p749
sg20
S'2.0'
p750
sg22
S'11/21'
p751
sg24
g10
sg25
S'Marcel Reece'
p752
sg27
g14
sg29
S'L3-35'
p753
sg31
g10
sg32
g10
sg33
S'@PIT'
p754
sg35
S'--'
p755
sg37
g28
sg38
g28
ssg39
(dp756
g5
g228
sg7
g228
sg9
g228
sg11
g228
sg13
g228
sg15
g228
sg16
S'2010'
p757
sg18
S'10'
p758
sg20
g228
sg22
S'Bye'
p759
sg24
g228
sg25
S'Marcel Reece'
p760
sg27
g228
sg29
g228
sg31
g228
sg32
g228
sg33
g228
sg35
g228
sg37
g228
sg38
g228
ssg55
(dp761
g5
S'14.0'
p762
sg7
S'--'
p763
sg9
g10
sg11
S'--'
p764
sg13
g14
sg15
g10
sg16
S'2010'
p765
sg18
S'13'
p766
sg20
S'5.0'
p767
sg22
S'12/05'
p768
sg24
g10
sg25
S'Marcel Reece'
p769
sg27
g14
sg29
S'W28-13'
p770
sg31
S'42'
p771
sg32
g67
sg33
S'@SD'
p772
sg35
S'22'
p773
sg37
g182
sg38
g182
ssg71
(dp774
g5
S'2.0'
p775
sg7
g14
sg9
g14
sg11
g14
sg13
g14
sg15
g10
sg16
S'2010'
p776
sg18
S'12'
p777
sg20
S'-2.0'
p778
sg22
S'11/28'
p779
sg24
g10
sg25
S'Marcel Reece'
p780
sg27
g14
sg29
S'L17-33'
p781
sg31
g28
sg32
g14
sg33
S'MIA'
p782
sg35
g28
sg37
S'-2'
p783
sg38
S'-2'
p784
ssg88
(dp785
g5
S'39.5'
p786
sg7
S'--'
p787
sg9
g10
sg11
S'--'
p788
sg13
g14
sg15
g14
sg16
S'2010'
p789
sg18
S'15'
p790
sg20
S'3.0'
p791
sg22
S'12/19'
p792
sg24
g10
sg25
S'Marcel Reece'
p793
sg27
g67
sg29
S'W39-23'
p794
sg31
S'79'
p795
sg32
g28
sg33
S'DEN'
p796
sg35
S'73T'
p797
sg37
g232
sg38
g70
ssg106
(dp798
g5
S'12.0'
p799
sg7
S'--'
p800
sg9
g10
sg11
S'--'
p801
sg13
g14
sg15
g10
sg16
S'2010'
p802
sg18
S'14'
p803
sg20
S'1.5'
p804
sg22
S'12/12'
p805
sg24
g10
sg25
S'Marcel Reece'
p806
sg27
g28
sg29
S'L31-38'
p807
sg31
S'48'
p808
sg32
g70
sg33
S'@JAC'
p809
sg35
S'13'
p810
sg37
g67
sg38
g28
ssg344
(dp811
g5
S'--'
p812
sg7
S'--'
p813
sg9
g14
sg11
S'--'
p814
sg13
g14
sg15
S'--'
p815
sg16
S'2010'
p816
sg18
S'17'
p817
sg20
S'2.0'
p818
sg22
S'01/02'
p819
sg24
g10
sg25
S'Marcel Reece'
p820
sg27
g28
sg29
S'W31-10'
p821
sg31
S'--'
p822
sg32
S'--'
p823
sg33
S'@KC'
p824
sg35
S'--'
p825
sg37
g70
sg38
g67
ssg122
(dp826
g5
S'1.0'
p827
sg7
S'--'
p828
sg9
g14
sg11
S'--'
p829
sg13
g14
sg15
g10
sg16
S'2010'
p830
sg18
S'16'
p831
sg20
S'2.0'
p832
sg22
S'12/26'
p833
sg24
g10
sg25
S'Marcel Reece'
p834
sg27
g67
sg29
S'L26-31'
p835
sg31
g28
sg32
g28
sg33
S'IND'
p836
sg35
g28
sg37
g195
sg38
g70
ssg14
(dp837
g5
S'--'
p838
sg7
S'--'
p839
sg9
g14
sg11
S'--'
p840
sg13
g14
sg15
g10
sg16
S'2010'
p841
sg18
g14
sg20
S'--'
p842
sg22
S'09/12'
p843
sg24
S'--'
p844
sg25
S'Marcel Reece'
p845
sg27
S'--'
p846
sg29
S'L13-38'
p847
sg31
g10
sg32
g10
sg33
S'@TEN'
p848
sg35
S'--'
p849
sg37
S'--'
p850
sg38
S'--'
p851
ssg67
(dp852
g5
S'1.0'
p853
sg7
S'--'
p854
sg9
g14
sg11
S'--'
p855
sg13
g14
sg15
g10
sg16
S'2010'
p856
sg18
g67
sg20
S'2.0'
p857
sg22
S'09/26'
p858
sg24
g10
sg25
S'Marcel Reece'
p859
sg27
g14
sg29
S'L23-24'
p860
sg31
g28
sg32
g28
sg33
S'@ARI'
p861
sg35
g195
sg37
g28
sg38
g28
ssg28
(dp862
g5
S'10.5'
p863
sg7
S'--'
p864
sg9
g14
sg11
S'--'
p865
sg13
g14
sg15
g10
sg16
S'2010'
p866
sg18
g28
sg20
S'3.0'
p867
sg22
S'09/19'
p868
sg24
g10
sg25
S'Marcel Reece'
p869
sg27
g67
sg29
S'W16-14'
p870
sg31
S'21'
p871
sg32
g28
sg33
S'STL'
p872
sg35
S'19'
p873
sg37
g232
sg38
g182
ssg182
(dp874
g5
S'3.5'
p875
sg7
S'--'
p876
sg9
g14
sg11
S'--'
p877
sg13
g14
sg15
g10
sg16
S'2010'
p878
sg18
g182
sg20
S'--'
p879
sg22
S'10/10'
p880
sg24
S'--'
p881
sg25
S'Marcel Reece'
p882
sg27
S'--'
p883
sg29
S'W35-27'
p884
sg31
g84
sg32
g28
sg33
S'SD'
p885
sg35
g70
sg37
S'--'
p886
sg38
S'--'
p887
ssg70
(dp888
g5
S'13.0'
p889
sg7
S'--'
p890
sg9
g14
sg11
S'--'
p891
sg13
g14
sg15
g14
sg16
S'2010'
p892
sg18
g70
sg20
S'3.5'
p893
sg22
S'10/03'
p894
sg24
g10
sg25
S'Marcel Reece'
p895
sg27
g28
sg29
S'L24-31'
p896
sg31
S'13'
p897
sg32
g14
sg33
S'HOU'
p898
sg35
S'13T'
p899
sg37
g84
sg38
g195
ssg84
(dp900
g5
S'19.0'
p901
sg7
S'--'
p902
sg9
g14
sg11
S'--'
p903
sg13
g14
sg15
g10
sg16
S'2010'
p904
sg18
g84
sg20
S'5.6'
p905
sg22
S'10/24'
p906
sg24
g14
sg25
S'Marcel Reece'
p907
sg27
g84
sg29
S'W59-14'
p908
sg31
S'19'
p909
sg32
g14
sg33
S'@DEN'
p910
sg35
S'19'
p911
sg37
S'39'
p912
sg38
S'14'
p913
ssg195
(dp914
g5
S'--'
p915
sg7
S'--'
p916
sg9
g10
sg11
S'--'
p917
sg13
g14
sg15
g10
sg16
S'2010'
p918
sg18
g195
sg20
S'2.0'
p919
sg22
S'10/17'
p920
sg24
g10
sg25
S'Marcel Reece'
p921
sg27
g14
sg29
S'L9-17'
p922
sg31
g10
sg32
g10
sg33
S'@SF'
p923
sg35
S'--'
p924
sg37
g28
sg38
g28
ssg232
(dp925
g5
S'4.0'
p926
sg7
S'--'
p927
sg9
g10
sg11
S'--'
p928
sg13
g14
sg15
g10
sg16
S'2010'
p929
sg18
g232
sg20
S'4.0'
p930
sg22
S'11/07'
p931
sg24
g10
sg25
S'Marcel Reece'
p932
sg27
g14
sg29
S'W23-20'
p933
sg31
g249
sg32
g28
sg33
S'KC'
p934
sg35
g84
sg37
g70
sg38
g70
ssg249
(dp935
g5
S'30.0'
p936
sg7
S'--'
p937
sg9
g14
sg11
S'--'
p938
sg13
g14
sg15
g14
sg16
S'2010'
p939
sg18
g249
sg20
S'16.0'
p940
sg22
S'10/31'
p941
sg24
g10
sg25
S'Marcel Reece'
p942
sg27
g28
sg29
S'W33-3'
p943
sg31
S'90'
p944
sg32
g67
sg33
S'SEA'
p945
sg35
S'51'
p946
sg37
S'32'
p947
sg38
S'31'
p948
sssS'2013'
p949
(dp950
g3
(dp951
g5
S'8.5'
p952
sg7
S'--'
p953
sg9
g14
sg11
S'--'
p954
sg13
g14
sg15
g10
sg16
S'2013'
p955
sg18
S'11'
p956
sg20
S'1.5'
p957
sg22
S'11/17'
p958
sg24
g10
sg25
S'Marcel Reece'
p959
sg27
g70
sg29
S'W28-23'
p960
sg31
S'17'
p961
sg32
g28
sg33
S'@HOU'
p962
sg35
S'20'
p963
sg37
g195
sg38
g28
ssg39
(dp964
g5
S'10.0'
p965
sg7
S'--'
p966
sg9
g10
sg11
S'--'
p967
sg13
g14
sg15
g10
sg16
S'2013'
p968
sg18
S'10'
p969
sg20
S'--'
p970
sg22
S'11/10'
p971
sg24
S'--'
p972
sg25
S'Marcel Reece'
p973
sg27
S'--'
p974
sg29
S'L20-24'
p975
sg31
S'30'
p976
sg32
g67
sg33
S'@NYG'
p977
sg35
S'16'
p978
sg37
S'--'
p979
sg38
S'--'
p980
ssg55
(dp981
g5
S'2.5'
p982
sg7
S'--'
p983
sg9
g14
sg11
S'--'
p984
sg13
g14
sg15
g10
sg16
S'2013'
p985
sg18
S'13'
p986
sg20
S'--'
p987
sg22
S'11/28'
p988
sg24
S'--'
p989
sg25
S'Marcel Reece'
p990
sg27
S'--'
p991
sg29
S'L24-31'
p992
sg31
g182
sg32
g28
sg33
S'@DAL'
p993
sg35
g182
sg37
S'--'
p994
sg38
S'--'
p995
ssg71
(dp996
g5
S'11.0'
p997
sg7
S'--'
p998
sg9
g14
sg11
S'--'
p999
sg13
g14
sg15
g14
sg16
S'2013'
p1000
sg18
S'12'
p1001
sg20
S'2.8'
p1002
sg22
S'11/24'
p1003
sg24
g10
sg25
S'Marcel Reece'
p1004
sg27
g182
sg29
S'L19-23'
p1005
sg31
S'44'
p1006
sg32
g70
sg33
S'TEN'
p1007
sg35
S'27T'
p1008
sg37
S'14'
p1009
sg38
g182
ssg88
(dp1010
g5
S'26.0'
p1011
sg7
S'--'
p1012
sg9
g14
sg11
S'--'
p1013
sg13
g14
sg15
g10
sg16
S'2013'
p1014
sg18
S'15'
p1015
sg20
S'3.6'
p1016
sg22
S'12/15'
p1017
sg24
g10
sg25
S'Marcel Reece'
p1018
sg27
g182
sg29
S'L31-56'
p1019
sg31
S'52'
p1020
sg32
g28
sg33
S'KC'
p1021
sg35
S'45'
p1022
sg37
S'18'
p1023
sg38
g249
ssg106
(dp1024
g5
S'19.0'
p1025
sg7
S'--'
p1026
sg9
g14
sg11
S'--'
p1027
sg13
g14
sg15
g10
sg16
S'2013'
p1028
sg18
S'14'
p1029
sg20
S'6.5'
p1030
sg22
S'12/08'
p1031
sg24
g14
sg25
S'Marcel Reece'
p1032
sg27
S'19'
p1033
sg29
S'L27-37'
p1034
sg31
S'38'
p1035
sg32
g28
sg33
S'@NYJ'
p1036
sg35
S'26'
p1037
sg37
S'123'
p1038
sg38
S'63T'
p1039
ssg344
(dp1040
g5
S'11.0'
p1041
sg7
S'--'
p1042
sg9
g14
sg11
S'--'
p1043
sg13
g14
sg15
g10
sg16
S'2013'
p1044
sg18
S'17'
p1045
sg20
S'--'
p1046
sg22
S'12/29'
p1047
sg24
S'--'
p1048
sg25
S'Marcel Reece'
p1049
sg27
S'--'
p1050
sg29
S'L14-34'
p1051
sg31
S'11'
p1052
sg32
g14
sg33
S'DEN'
p1053
sg35
S'11'
p1054
sg37
S'--'
p1055
sg38
S'--'
p1056
ssg122
(dp1057
g5
S'6.5'
p1058
sg7
S'--'
p1059
sg9
g14
sg11
S'--'
p1060
sg13
g14
sg15
g10
sg16
S'2013'
p1061
sg18
S'16'
p1062
sg20
S'--'
p1063
sg22
S'12/22'
p1064
sg24
S'--'
p1065
sg25
S'Marcel Reece'
p1066
sg27
S'--'
p1067
sg29
S'L13-26'
p1068
sg31
S'26'
p1069
sg32
g70
sg33
S'@SD'
p1070
sg35
S'14'
p1071
sg37
S'--'
p1072
sg38
S'--'
p1073
ssg14
(dp1074
g5
S'9.0'
p1075
sg7
S'--'
p1076
sg9
g14
sg11
S'--'
p1077
sg13
g14
sg15
g10
sg16
S'2013'
p1078
sg18
g14
sg20
S'--'
p1079
sg22
S'09/08'
p1080
sg24
S'--'
p1081
sg25
S'Marcel Reece'
p1082
sg27
S'--'
p1083
sg29
S'L17-21'
p1084
sg31
g232
sg32
g14
sg33
S'@IND'
p1085
sg35
g232
sg37
S'--'
p1086
sg38
S'--'
p1087
ssg67
(dp1088
g5
S'11.3'
p1089
sg7
S'--'
p1090
sg9
g14
sg11
S'--'
p1091
sg13
g14
sg15
g14
sg16
S'2013'
p1092
sg18
g67
sg20
S'--'
p1093
sg22
S'09/23'
p1094
sg24
S'--'
p1095
sg25
S'Marcel Reece'
p1096
sg27
S'--'
p1097
sg29
S'L21-37'
p1098
sg31
S'45'
p1099
sg32
g70
sg33
S'@DEN'
p1100
sg35
S'19'
p1101
sg37
S'--'
p1102
sg38
S'--'
p1103
ssg28
(dp1104
g5
S'--'
p1105
sg7
S'--'
p1106
sg9
g14
sg11
S'--'
p1107
sg13
g14
sg15
g10
sg16
S'2013'
p1108
sg18
g28
sg20
S'7.5'
p1109
sg22
S'09/15'
p1110
sg24
g14
sg25
S'Marcel Reece'
p1111
sg27
g28
sg29
S'W19-9'
p1112
sg31
g10
sg32
g10
sg33
S'JAC'
p1113
sg35
S'--'
p1114
sg37
S'15'
p1115
sg38
S'11T'
p1116
ssg182
(dp1117
g5
S'8.3'
p1118
sg7
S'--'
p1119
sg9
g14
sg11
S'--'
p1120
sg13
g14
sg15
g10
sg16
S'2013'
p1121
sg18
g182
sg20
S'4.6'
p1122
sg22
S'10/06'
p1123
sg24
g10
sg25
S'Marcel Reece'
p1124
sg27
g84
sg29
S'W27-17'
p1125
sg31
S'25'
p1126
sg32
g67
sg33
S'SD'
p1127
sg35
g232
sg37
S'32'
p1128
sg38
S'14'
p1129
ssg70
(dp1130
g5
S'-2.0'
p1131
sg7
S'--'
p1132
sg9
g14
sg11
S'--'
p1133
sg13
g14
sg15
g10
sg16
S'2013'
p1134
sg18
g70
sg20
S'--'
p1135
sg22
S'09/29'
p1136
sg24
S'--'
p1137
sg25
S'Marcel Reece'
p1138
sg27
S'--'
p1139
sg29
S'L14-24'
p1140
sg31
S'-2'
p1141
sg32
g14
sg33
S'WAS'
p1142
sg35
S'-2'
p1143
sg37
S'--'
p1144
sg38
S'--'
p1145
ssg84
(dp1146
g5
g228
sg7
g228
sg9
g228
sg11
g228
sg13
g228
sg15
g228
sg16
S'2013'
p1147
sg18
g84
sg20
g228
sg22
S'Bye'
p1148
sg24
g228
sg25
S'Marcel Reece'
p1149
sg27
g228
sg29
g228
sg31
g228
sg32
g228
sg33
g228
sg35
g228
sg37
g228
sg38
g228
ssg195
(dp1150
g5
S'9.0'
p1151
sg7
S'--'
p1152
sg9
g14
sg11
S'--'
p1153
sg13
g14
sg15
g10
sg16
S'2013'
p1154
sg18
g195
sg20
S'--'
p1155
sg22
S'10/13'
p1156
sg24
S'--'
p1157
sg25
S'Marcel Reece'
p1158
sg27
S'--'
p1159
sg29
S'L7-24'
p1160
sg31
g232
sg32
g14
sg33
S'@KC'
p1161
sg35
g232
sg37
S'--'
p1162
sg38
S'--'
p1163
ssg232
(dp1164
g5
S'11.0'
p1165
sg7
S'--'
p1166
sg9
g14
sg11
S'--'
p1167
sg13
g14
sg15
g10
sg16
S'2013'
p1168
sg18
g232
sg20
S'0.0'
p1169
sg22
S'11/03'
p1170
sg24
g10
sg25
S'Marcel Reece'
p1171
sg27
g14
sg29
S'L20-49'
p1172
sg31
S'22'
p1173
sg32
g28
sg33
S'PHI'
p1174
sg35
S'16'
p1175
sg37
g10
sg38
g10
ssg249
(dp1176
g5
S'--'
p1177
sg7
S'--'
p1178
sg9
g14
sg11
S'--'
p1179
sg13
g14
sg15
S'--'
p1180
sg16
S'2013'
p1181
sg18
g249
sg20
S'3.3'
p1182
sg22
S'10/27'
p1183
sg24
g10
sg25
S'Marcel Reece'
p1184
sg27
g67
sg29
S'W21-18'
p1185
sg31
S'--'
p1186
sg32
S'--'
p1187
sg33
S'PIT'
p1188
sg35
S'--'
p1189
sg37
S'10'
p1190
sg38
g195
sssS'2012'
p1191
(dp1192
g3
(dp1193
g5
S'22.5'
p1194
sg7
S'--'
p1195
sg9
g14
sg11
S'--'
p1196
sg13
g14
sg15
g10
sg16
S'2012'
p1197
sg18
S'11'
p1198
sg20
S'5.4'
p1199
sg22
S'11/18'
p1200
sg24
g10
sg25
S'Marcel Reece'
p1201
sg27
S'19'
p1202
sg29
S'L17-38'
p1203
sg31
S'90'
p1204
sg32
g70
sg33
S'NO'
p1205
sg35
S'56'
p1206
sg37
S'103'
p1207
sg38
S'17'
p1208
ssg39
(dp1209
g5
S'8.0'
p1210
sg7
S'--'
p1211
sg9
g14
sg11
S'--'
p1212
sg13
g14
sg15
g10
sg16
S'2012'
p1213
sg18
S'10'
p1214
sg20
S'3.7'
p1215
sg22
S'11/11'
p1216
sg24
g10
sg25
S'Marcel Reece'
p1217
sg27
S'13'
p1218
sg29
S'L20-55'
p1219
sg31
S'56'
p1220
sg32
g84
sg33
S'@BAL'
p1221
sg35
S'24'
p1222
sg37
S'48'
p1223
sg38
g232
ssg55
(dp1224
g5
S'4.0'
p1225
sg7
S'--'
p1226
sg9
g14
sg11
S'--'
p1227
sg13
g14
sg15
g10
sg16
S'2012'
p1228
sg18
S'13'
p1229
sg20
S'5.1'
p1230
sg22
S'12/02'
p1231
sg24
g10
sg25
S'Marcel Reece'
p1232
sg27
g84
sg29
S'L17-20'
p1233
sg31
S'20'
p1234
sg32
g182
sg33
S'CLE'
p1235
sg35
S'11'
p1236
sg37
S'36'
p1237
sg38
S'12'
p1238
ssg71
(dp1239
g5
S'7.3'
p1240
sg7
S'--'
p1241
sg9
g14
sg11
S'--'
p1242
sg13
g14
sg15
g10
sg16
S'2012'
p1243
sg18
S'12'
p1244
sg20
S'4.9'
p1245
sg22
S'11/25'
p1246
sg24
g10
sg25
S'Marcel Reece'
p1247
sg27
S'15'
p1248
sg29
S'L10-34'
p1249
sg31
S'29'
p1250
sg32
g70
sg33
S'@CIN'
p1251
sg35
S'11'
p1252
sg37
S'74'
p1253
sg38
S'15'
p1254
ssg88
(dp1255
g5
S'6.0'
p1256
sg7
S'--'
p1257
sg9
g14
sg11
S'--'
p1258
sg13
g14
sg15
g10
sg16
S'2012'
p1259
sg18
S'15'
p1260
sg20
S'--'
p1261
sg22
S'12/16'
p1262
sg24
S'--'
p1263
sg25
S'Marcel Reece'
p1264
sg27
S'--'
p1265
sg29
S'W15-0'
p1266
sg31
g195
sg32
g14
sg33
S'KC'
p1267
sg35
g195
sg37
S'--'
p1268
sg38
S'--'
p1269
ssg106
(dp1270
g5
S'5.0'
p1271
sg7
S'--'
p1272
sg9
g14
sg11
S'--'
p1273
sg13
g14
sg15
g10
sg16
S'2012'
p1274
sg18
S'14'
p1275
sg20
S'2.5'
p1276
sg22
S'12/06'
p1277
sg24
g10
sg25
S'Marcel Reece'
p1278
sg27
g70
sg29
S'L13-26'
p1279
sg31
g182
sg32
g14
sg33
S'DEN'
p1280
sg35
g182
sg37
S'10'
p1281
sg38
g182
ssg344
(dp1282
g5
S'--'
p1283
sg7
S'--'
p1284
sg9
g14
sg11
S'--'
p1285
sg13
g14
sg15
g10
sg16
S'2012'
p1286
sg18
S'17'
p1287
sg20
S'--'
p1288
sg22
S'12/30'
p1289
sg24
S'--'
p1290
sg25
S'Marcel Reece'
p1291
sg27
S'--'
p1292
sg29
S'L21-24'
p1293
sg31
g10
sg32
g10
sg33
S'@SD'
p1294
sg35
S'--'
p1295
sg37
S'--'
p1296
sg38
S'--'
p1297
ssg122
(dp1298
g5
S'4.5'
p1299
sg7
S'--'
p1300
sg9
g14
sg11
S'--'
p1301
sg13
g14
sg15
g10
sg16
S'2012'
p1302
sg18
S'16'
p1303
sg20
S'--'
p1304
sg22
S'12/23'
p1305
sg24
S'--'
p1306
sg25
S'Marcel Reece'
p1307
sg27
S'--'
p1308
sg29
S'L6-17'
p1309
sg31
S'18'
p1310
sg32
g70
sg33
S'@CAR'
p1311
sg35
S'19'
p1312
sg37
S'--'
p1313
sg38
S'--'
p1314
ssg14
(dp1315
g5
S'10.0'
p1316
sg7
g14
sg9
g14
sg11
g10
sg13
g14
sg15
g10
sg16
S'2012'
p1317
sg18
g14
sg20
S'0.0'
p1318
sg22
S'09/10'
p1319
sg24
g10
sg25
S'Marcel Reece'
p1320
sg27
g14
sg29
S'L14-22'
p1321
sg31
S'20'
p1322
sg32
g28
sg33
S'SD'
p1323
sg35
S'15'
p1324
sg37
g10
sg38
g10
ssg67
(dp1325
g5
S'6.8'
p1326
sg7
S'--'
p1327
sg9
g14
sg11
S'--'
p1328
sg13
g14
sg15
g10
sg16
S'2012'
p1329
sg18
g67
sg20
S'--'
p1330
sg22
S'09/23'
p1331
sg24
S'--'
p1332
sg25
S'Marcel Reece'
p1333
sg27
S'--'
p1334
sg29
S'W34-31'
p1335
sg31
S'27'
p1336
sg32
g70
sg33
S'PIT'
p1337
sg35
S'10'
p1338
sg37
S'--'
p1339
sg38
S'--'
p1340
ssg28
(dp1341
g5
S'8.5'
p1342
sg7
S'--'
p1343
sg9
g10
sg11
S'--'
p1344
sg13
g14
sg15
g10
sg16
S'2012'
p1345
sg18
g28
sg20
S'--'
p1346
sg22
S'09/16'
p1347
sg24
S'--'
p1348
sg25
S'Marcel Reece'
p1349
sg27
S'--'
p1350
sg29
S'L13-35'
p1351
sg31
S'17'
p1352
sg32
g28
sg33
S'@MIA'
p1353
sg35
S'14'
p1354
sg37
S'--'
p1355
sg38
S'--'
p1356
ssg182
(dp1357
g5
g228
sg7
g228
sg9
g228
sg11
g228
sg13
g228
sg15
g228
sg16
S'2012'
p1358
sg18
g182
sg20
g228
sg22
S'Bye'
p1359
sg24
g228
sg25
S'Marcel Reece'
p1360
sg27
g228
sg29
g228
sg31
g228
sg32
g228
sg33
g228
sg35
g228
sg37
g228
sg38
g228
ssg70
(dp1361
g5
S'10.8'
p1362
sg7
S'--'
p1363
sg9
g14
sg11
S'--'
p1364
sg13
g14
sg15
g10
sg16
S'2012'
p1365
sg18
g70
sg20
S'--'
p1366
sg22
S'09/30'
p1367
sg24
S'--'
p1368
sg25
S'Marcel Reece'
p1369
sg27
S'--'
p1370
sg29
S'L6-37'
p1371
sg31
S'54'
p1372
sg32
g182
sg33
S'@DEN'
p1373
sg35
S'31'
p1374
sg37
S'--'
p1375
sg38
S'--'
p1376
ssg84
(dp1377
g5
S'14.5'
p1378
sg7
S'--'
p1379
sg9
g10
sg11
S'--'
p1380
sg13
g14
sg15
g10
sg16
S'2012'
p1381
sg18
g84
sg20
S'--'
p1382
sg22
S'10/21'
p1383
sg24
S'--'
p1384
sg25
S'Marcel Reece'
p1385
sg27
S'--'
p1386
sg29
S'W26-23'
p1387
sg31
S'58'
p1388
sg32
g70
sg33
S'JAC'
p1389
sg35
S'35'
p1390
sg37
S'--'
p1391
sg38
S'--'
p1392
ssg195
(dp1393
g5
S'1.0'
p1394
sg7
S'--'
p1395
sg9
g14
sg11
S'--'
p1396
sg13
g14
sg15
g10
sg16
S'2012'
p1397
sg18
g195
sg20
S'--'
p1398
sg22
S'10/14'
p1399
sg24
S'--'
p1400
sg25
S'Marcel Reece'
p1401
sg27
S'--'
p1402
sg29
S'L20-23'
p1403
sg31
g14
sg32
g14
sg33
S'@ATL'
p1404
sg35
g14
sg37
S'--'
p1405
sg38
S'--'
p1406
ssg232
(dp1407
g5
S'11.9'
p1408
sg7
g14
sg9
g14
sg11
g10
sg13
g14
sg15
g14
sg16
S'2012'
p1409
sg18
g232
sg20
S'--'
p1410
sg22
S'11/04'
p1411
sg24
S'--'
p1412
sg25
S'Marcel Reece'
p1413
sg27
S'--'
p1414
sg29
S'L32-42'
p1415
sg31
S'95'
p1416
sg32
g249
sg33
S'TB'
p1417
sg35
S'26'
p1418
sg37
S'--'
p1419
sg38
S'--'
p1420
ssg249
(dp1421
g5
S'--'
p1422
sg7
S'--'
p1423
sg9
g14
sg11
S'--'
p1424
sg13
g14
sg15
S'--'
p1425
sg16
S'2012'
p1426
sg18
g249
sg20
S'--'
p1427
sg22
S'10/28'
p1428
sg24
S'--'
p1429
sg25
S'Marcel Reece'
p1430
sg27
S'--'
p1431
sg29
S'W26-16'
p1432
sg31
S'--'
p1433
sg32
S'--'
p1434
sg33
S'@KC'
p1435
sg35
S'--'
p1436
sg37
S'--'
p1437
sg38
S'--'
p1438
sss.