(dp0
S'2015'
p1
(dp2
S'11'
p3
(dp4
S'RecAvg'
p5
S''
p6
sS'FUM'
p7
g6
sS'GS'
p8
g6
sS'Lost'
p9
g6
sS'G'
p10
g6
sS'RecTD'
p11
g6
sS'Year'
p12
S'2015'
p13
sS'WK'
p14
S'11'
p15
sS'RushAvg'
p16
g6
sS'Game Date'
p17
S'Bye'
p18
sS'RushTD'
p19
g6
sS'Player'
p20
S'Mark Ingram'
p21
sS'RushAtt'
p22
g6
sS'Result'
p23
g6
sS'RecYds'
p24
g6
sS'Rec'
p25
g6
sS'Opp'
p26
g6
sS'RecLng'
p27
g6
sS'RushYds'
p28
g6
sS'RushLng'
p29
g6
ssS'10'
p30
(dp31
g5
S'7.0'
p32
sg7
S'--'
p33
sg8
S'1'
p34
sg9
S'--'
p35
sg10
g34
sg11
S'0'
p36
sg12
S'2015'
p37
sg14
S'10'
p38
sg16
S'15.4'
p39
sg17
S'11/15'
p40
sg19
g36
sg20
S'Mark Ingram'
p41
sg22
S'5'
p42
sg23
S'L14-47'
p43
sg24
S'21'
p44
sg25
S'3'
p45
sg26
S'@WAS'
p46
sg27
S'12'
p47
sg28
S'77'
p48
sg29
S'70'
p49
ssS'13'
p50
(dp51
g5
S'5.8'
p52
sg7
g34
sg8
g34
sg9
g36
sg10
g34
sg11
g36
sg12
S'2015'
p53
sg14
S'13'
p54
sg16
S'4.7'
p55
sg17
S'12/06'
p56
sg19
g34
sg20
S'Mark Ingram'
p57
sg22
S'12'
p58
sg23
S'L38-41'
p59
sg24
S'23'
p60
sg25
S'4'
p61
sg26
S'CAR'
p62
sg27
S'11'
p63
sg28
S'56'
p64
sg29
S'14'
p65
ssS'12'
p66
(dp67
g5
S'7.5'
p68
sg7
S'--'
p69
sg8
g34
sg9
S'--'
p70
sg10
g34
sg11
g36
sg12
S'2015'
p71
sg14
S'12'
p72
sg16
S'5.8'
p73
sg17
S'11/29'
p74
sg19
g36
sg20
S'Mark Ingram'
p75
sg22
S'9'
p76
sg23
S'L6-24'
p77
sg24
S'45'
p78
sg25
S'6'
p79
sg26
S'@HOU'
p80
sg27
S'17'
p81
sg28
S'52'
p82
sg29
S'29'
p83
ssg34
(dp84
g5
S'12.3'
p85
sg7
S'--'
p86
sg8
g34
sg9
S'--'
p87
sg10
g34
sg11
g36
sg12
S'2015'
p88
sg14
g34
sg16
S'2.7'
p89
sg17
S'09/13'
p90
sg19
g36
sg20
S'Mark Ingram'
p91
sg22
g76
sg23
S'L19-31'
p92
sg24
S'98'
p93
sg25
S'8'
p94
sg26
S'@ARI'
p95
sg27
S'59'
p96
sg28
S'24'
p97
sg29
g76
ssg45
(dp98
g5
S'9.8'
p99
sg7
S'--'
p100
sg8
g36
sg9
S'--'
p101
sg10
g34
sg11
g36
sg12
S'2015'
p102
sg14
g45
sg16
S'3.6'
p103
sg17
S'09/27'
p104
sg19
g34
sg20
S'Mark Ingram'
p105
sg22
S'14'
p106
sg23
S'L22-27'
p107
sg24
S'49'
p108
sg25
g42
sg26
S'@CAR'
p109
sg27
S'23'
p110
sg28
S'50'
p111
sg29
g76
ssS'2'
p112
(dp113
g5
S'1.7'
p114
sg7
g34
sg8
g34
sg9
g34
sg10
g34
sg11
g36
sg12
S'2015'
p115
sg14
g112
sg16
S'3.3'
p116
sg17
S'09/20'
p117
sg19
g34
sg20
S'Mark Ingram'
p118
sg22
S'16'
p119
sg23
S'L19-26'
p120
sg24
g42
sg25
g45
sg26
S'TB'
p121
sg27
g79
sg28
S'53'
p122
sg29
S'11T'
p123
ssg42
(dp124
g5
S'8.5'
p125
sg7
S'--'
p126
sg8
g36
sg9
S'--'
p127
sg10
g34
sg11
g36
sg12
S'2015'
p128
sg14
g42
sg16
S'4.8'
p129
sg17
S'10/11'
p130
sg19
g36
sg20
S'Mark Ingram'
p131
sg22
S'12'
p132
sg23
S'L17-39'
p133
sg24
S'17'
p134
sg25
g112
sg26
S'@PHI'
p135
sg27
S'13'
p136
sg28
S'57'
p137
sg29
S'17'
p138
ssg61
(dp139
g5
S'8.5'
p140
sg7
S'--'
p141
sg8
g34
sg9
S'--'
p142
sg10
g34
sg11
g36
sg12
S'2015'
p143
sg14
g61
sg16
S'4.5'
p144
sg17
S'10/04'
p145
sg19
g36
sg20
S'Mark Ingram'
p146
sg22
S'17'
p147
sg23
S'W26-20'
p148
sg24
S'51'
p149
sg25
g79
sg26
S'DAL'
p150
sg27
S'14'
p151
sg28
S'77'
p152
sg29
S'15'
p153
ssS'7'
p154
(dp155
g5
S'2.5'
p156
sg7
S'--'
p157
sg8
g34
sg9
S'--'
p158
sg10
g34
sg11
g36
sg12
S'2015'
p159
sg14
g154
sg16
S'10.2'
p160
sg17
S'10/25'
p161
sg19
g34
sg20
S'Mark Ingram'
p162
sg22
S'14'
p163
sg23
S'W27-21'
p164
sg24
g42
sg25
g112
sg26
S'@IND'
p165
sg27
S'10'
p166
sg28
S'143'
p167
sg29
S'44'
p168
ssg79
(dp169
g5
S'3.3'
p170
sg7
S'--'
p171
sg8
g34
sg9
S'--'
p172
sg10
g34
sg11
g36
sg12
S'2015'
p173
sg14
g79
sg16
S'2.3'
p174
sg17
S'10/15'
p175
sg19
g112
sg20
S'Mark Ingram'
p176
sg22
S'20'
p177
sg23
S'W31-21'
p178
sg24
S'10'
p179
sg25
g45
sg26
S'ATL'
p180
sg27
g154
sg28
S'46'
p181
sg29
S'11'
p182
ssg76
(dp183
g5
S'10.5'
p184
sg7
S'--'
p185
sg8
g34
sg9
S'--'
p186
sg10
g34
sg11
g36
sg12
S'2015'
p187
sg14
g76
sg16
S'2.5'
p188
sg17
S'11/08'
p189
sg19
g36
sg20
S'Mark Ingram'
p190
sg22
S'22'
p191
sg23
S'L28-34'
p192
sg24
S'42'
p193
sg25
g61
sg26
S'TEN'
p194
sg27
S'14'
p195
sg28
S'54'
p196
sg29
S'12'
p197
ssg94
(dp198
g5
S'9.8'
p199
sg7
S'--'
p200
sg8
g34
sg9
S'--'
p201
sg10
g34
sg11
g36
sg12
S'2015'
p202
sg14
g94
sg16
S'5.0'
p203
sg17
S'11/01'
p204
sg19
g36
sg20
S'Mark Ingram'
p205
sg22
S'16'
p206
sg23
S'W52-49'
p207
sg24
S'39'
p208
sg25
g61
sg26
S'NYG'
p209
sg27
S'17'
p210
sg28
S'80'
p211
sg29
S'16'
p212
sssS'2014'
p213
(dp214
g3
(dp215
g5
S'4.3'
p216
sg7
S'--'
p217
sg8
g34
sg9
S'--'
p218
sg10
g34
sg11
g36
sg12
S'2014'
p219
sg14
S'11'
p220
sg16
S'2.9'
p221
sg17
S'11/16'
p222
sg19
g36
sg20
S'Mark Ingram'
p223
sg22
S'23'
p224
sg23
S'L10-27'
p225
sg24
S'30'
p226
sg25
g154
sg26
S'CIN'
p227
sg27
S'11'
p228
sg28
S'67'
p229
sg29
S'13'
p230
ssg30
(dp231
g5
S'6.3'
p232
sg7
S'--'
p233
sg8
g34
sg9
S'--'
p234
sg10
g34
sg11
g36
sg12
S'2014'
p235
sg14
S'10'
p236
sg16
S'4.4'
p237
sg17
S'11/09'
p238
sg19
g36
sg20
S'Mark Ingram'
p239
sg22
S'27'
p240
sg23
S'L24-27'
p241
sg24
S'19'
p242
sg25
g45
sg26
S'SF'
p243
sg27
g94
sg28
S'120'
p244
sg29
S'11'
p245
ssg50
(dp246
g5
S'-0.5'
p247
sg7
S'--'
p248
sg8
g36
sg9
S'--'
p249
sg10
g34
sg11
g36
sg12
S'2014'
p250
sg14
S'13'
p251
sg16
S'5.3'
p252
sg17
S'11/30'
p253
sg19
g36
sg20
S'Mark Ingram'
p254
sg22
S'23'
p255
sg23
S'W35-32'
p256
sg24
S'-1'
p257
sg25
g112
sg26
S'@PIT'
p258
sg27
g36
sg28
S'122'
p259
sg29
S'31'
p260
ssg66
(dp261
g5
S'7.5'
p262
sg7
g34
sg8
g34
sg9
g36
sg10
g34
sg11
g36
sg12
S'2014'
p263
sg14
S'12'
p264
sg16
S'2.5'
p265
sg17
S'11/24'
p266
sg19
g36
sg20
S'Mark Ingram'
p267
sg22
S'11'
p268
sg23
S'L27-34'
p269
sg24
S'15'
p270
sg25
g112
sg26
S'BAL'
p271
sg27
S'13'
p272
sg28
S'27'
p273
sg29
g76
ssS'15'
p274
(dp275
g5
S'--'
p276
sg7
S'--'
p277
sg8
g34
sg9
S'--'
p278
sg10
g34
sg11
S'--'
p279
sg12
S'2014'
p280
sg14
S'15'
p281
sg16
S'3.5'
p282
sg17
S'12/15'
p283
sg19
g34
sg20
S'Mark Ingram'
p284
sg22
S'17'
p285
sg23
S'W31-15'
p286
sg24
S'--'
p287
sg25
S'--'
p288
sg26
S'@CHI'
p289
sg27
S'--'
p290
sg28
S'59'
p291
sg29
S'15T'
p292
ssS'14'
p293
(dp294
g5
S'6.5'
p295
sg7
g34
sg8
g34
sg9
g34
sg10
g34
sg11
g36
sg12
S'2014'
p296
sg14
S'14'
p297
sg16
S'4.3'
p298
sg17
S'12/07'
p299
sg19
g36
sg20
S'Mark Ingram'
p300
sg22
S'10'
p301
sg23
S'L10-41'
p302
sg24
S'13'
p303
sg25
g112
sg26
S'CAR'
p304
sg27
g76
sg28
S'43'
p305
sg29
S'16'
p306
ssS'17'
p307
(dp308
g5
S'2.0'
p309
sg7
g34
sg8
g34
sg9
g36
sg10
g34
sg11
g36
sg12
S'2014'
p310
sg14
S'17'
p311
sg16
S'4.1'
p312
sg17
S'12/28'
p313
sg19
g34
sg20
S'Mark Ingram'
p314
sg22
S'14'
p315
sg23
S'W23-20'
p316
sg24
g61
sg25
g112
sg26
S'@TB'
p317
sg27
g79
sg28
S'57'
p318
sg29
S'18'
p319
ssS'16'
p320
(dp321
g5
S'5.7'
p322
sg7
S'--'
p323
sg8
g34
sg9
S'--'
p324
sg10
g34
sg11
g36
sg12
S'2014'
p325
sg14
S'16'
p326
sg16
S'2.9'
p327
sg17
S'12/21'
p328
sg19
g34
sg20
S'Mark Ingram'
p329
sg22
S'13'
p330
sg23
S'L14-30'
p331
sg24
S'17'
p332
sg25
g45
sg26
S'ATL'
p333
sg27
S'14'
p334
sg28
S'38'
p335
sg29
g94
ssg34
(dp336
g5
S'1.0'
p337
sg7
S'--'
p338
sg8
g36
sg9
S'--'
p339
sg10
g34
sg11
g36
sg12
S'2014'
p340
sg14
g34
sg16
S'4.6'
p341
sg17
S'09/07'
p342
sg19
g112
sg20
S'Mark Ingram'
p343
sg22
S'13'
p344
sg23
S'L34-37'
p345
sg24
g34
sg25
g34
sg26
S'@ATL'
p346
sg27
g34
sg28
S'60'
p347
sg29
S'19'
p348
ssg45
(dp349
g5
S'--'
p350
sg7
S'--'
p351
sg8
g36
sg9
S'--'
p352
sg10
g36
sg11
S'--'
p353
sg12
S'2014'
p354
sg14
g45
sg16
S'--'
p355
sg17
S'09/21'
p356
sg19
S'--'
p357
sg20
S'Mark Ingram'
p358
sg22
S'--'
p359
sg23
S'W20-9'
p360
sg24
S'--'
p361
sg25
S'--'
p362
sg26
S'MIN'
p363
sg27
S'--'
p364
sg28
S'--'
p365
sg29
S'--'
p366
ssg112
(dp367
g5
S'7.0'
p368
sg7
S'--'
p369
sg8
g36
sg9
S'--'
p370
sg10
g34
sg11
g36
sg12
S'2014'
p371
sg14
g112
sg16
S'7.5'
p372
sg17
S'09/14'
p373
sg19
g34
sg20
S'Mark Ingram'
p374
sg22
S'11'
p375
sg23
S'L24-26'
p376
sg24
S'21'
p377
sg25
g45
sg26
S'@CLE'
p378
sg27
S'13'
p379
sg28
S'83'
p380
sg29
S'26'
p381
ssg42
(dp382
g5
S'--'
p383
sg7
S'--'
p384
sg8
g36
sg9
S'--'
p385
sg10
g36
sg11
S'--'
p386
sg12
S'2014'
p387
sg14
g42
sg16
S'--'
p388
sg17
S'10/05'
p389
sg19
S'--'
p390
sg20
S'Mark Ingram'
p391
sg22
S'--'
p392
sg23
S'W37-31'
p393
sg24
S'--'
p394
sg25
S'--'
p395
sg26
S'TB'
p396
sg27
S'--'
p397
sg28
S'--'
p398
sg29
S'--'
p399
ssg61
(dp400
g5
S'--'
p401
sg7
S'--'
p402
sg8
g36
sg9
S'--'
p403
sg10
g36
sg11
S'--'
p404
sg12
S'2014'
p405
sg14
g61
sg16
S'--'
p406
sg17
S'09/28'
p407
sg19
S'--'
p408
sg20
S'Mark Ingram'
p409
sg22
S'--'
p410
sg23
S'L17-38'
p411
sg24
S'--'
p412
sg25
S'--'
p413
sg26
S'@DAL'
p414
sg27
S'--'
p415
sg28
S'--'
p416
sg29
S'--'
p417
ssg154
(dp418
g5
S'6.5'
p419
sg7
S'--'
p420
sg8
g36
sg9
S'--'
p421
sg10
g34
sg11
g36
sg12
S'2014'
p422
sg14
g154
sg16
S'1.6'
p423
sg17
S'10/19'
p424
sg19
g36
sg20
S'Mark Ingram'
p425
sg22
S'10'
p426
sg23
S'L23-24'
p427
sg24
S'13'
p428
sg25
g112
sg26
S'@DET'
p429
sg27
S'10'
p430
sg28
S'16'
p431
sg29
S'14'
p432
ssg79
(dp433
g5
g6
sg7
g6
sg8
g6
sg9
g6
sg10
g6
sg11
g6
sg12
S'2014'
p434
sg14
g79
sg16
g6
sg17
S'Bye'
p435
sg19
g6
sg20
S'Mark Ingram'
p436
sg22
g6
sg23
g6
sg24
g6
sg25
g6
sg26
g6
sg27
g6
sg28
g6
sg29
g6
ssg76
(dp437
g5
S'10.0'
p438
sg7
S'--'
p439
sg8
g34
sg9
S'--'
p440
sg10
g34
sg11
g36
sg12
S'2014'
p441
sg14
g76
sg16
S'3.3'
p442
sg17
S'10/30'
p443
sg19
g112
sg20
S'Mark Ingram'
p444
sg22
S'30'
p445
sg23
S'W28-10'
p446
sg24
S'10'
p447
sg25
g34
sg26
S'@CAR'
p448
sg27
S'10'
p449
sg28
S'100'
p450
sg29
S'19'
p451
ssg94
(dp452
g5
S'3.0'
p453
sg7
S'--'
p454
sg8
g34
sg9
S'--'
p455
sg10
g34
sg11
g36
sg12
S'2014'
p456
sg14
g94
sg16
S'7.2'
p457
sg17
S'10/26'
p458
sg19
g34
sg20
S'Mark Ingram'
p459
sg22
S'24'
p460
sg23
S'W44-23'
p461
sg24
g45
sg25
g34
sg26
S'GB'
p462
sg27
g45
sg28
S'172'
p463
sg29
S'28'
p464
sssS'2011'
p465
(dp466
g3
(dp467
g5
g6
sg7
g6
sg8
g6
sg9
g6
sg10
g6
sg11
g6
sg12
S'2011'
p468
sg14
S'11'
p469
sg16
g6
sg17
S'Bye'
p470
sg19
g6
sg20
S'Mark Ingram'
p471
sg22
g6
sg23
g6
sg24
g6
sg25
g6
sg26
g6
sg27
g6
sg28
g6
sg29
g6
ssg30
(dp472
g5
S'3.0'
p473
sg7
S'--'
p474
sg8
g36
sg9
S'--'
p475
sg10
g34
sg11
g36
sg12
S'2011'
p476
sg14
S'10'
p477
sg16
S'1.4'
p478
sg17
S'11/13'
p479
sg19
g36
sg20
S'Mark Ingram'
p480
sg22
g94
sg23
S'W26-23'
p481
sg24
g45
sg25
g34
sg26
S'@ATL'
p482
sg27
g45
sg28
S'11'
p483
sg29
g79
ssg50
(dp484
g5
S'--'
p485
sg7
S'--'
p486
sg8
g34
sg9
S'--'
p487
sg10
g34
sg11
g36
sg12
S'2011'
p488
sg14
S'13'
p489
sg16
S'3.4'
p490
sg17
S'12/04'
p491
sg19
g34
sg20
S'Mark Ingram'
p492
sg22
S'16'
p493
sg23
S'W31-17'
p494
sg24
g36
sg25
g36
sg26
S'DET'
p495
sg27
S'--'
p496
sg28
S'54'
p497
sg29
S'14T'
p498
ssg66
(dp499
g5
S'7.0'
p500
sg7
S'--'
p501
sg8
g34
sg9
S'--'
p502
sg10
g34
sg11
g36
sg12
S'2011'
p503
sg14
S'12'
p504
sg16
S'6.2'
p505
sg17
S'11/28'
p506
sg19
g34
sg20
S'Mark Ingram'
p507
sg22
S'13'
p508
sg23
S'W49-24'
p509
sg24
S'14'
p510
sg25
g112
sg26
S'NYG'
p511
sg27
g94
sg28
S'80'
p512
sg29
S'35T'
p513
ssg274
(dp514
g5
S'--'
p515
sg7
S'--'
p516
sg8
g36
sg9
S'--'
p517
sg10
g36
sg11
S'--'
p518
sg12
S'2011'
p519
sg14
S'15'
p520
sg16
S'--'
p521
sg17
S'12/18'
p522
sg19
S'--'
p523
sg20
S'Mark Ingram'
p524
sg22
S'--'
p525
sg23
S'W42-20'
p526
sg24
S'--'
p527
sg25
S'--'
p528
sg26
S'@MIN'
p529
sg27
S'--'
p530
sg28
S'--'
p531
sg29
S'--'
p532
ssg293
(dp533
g5
S'--'
p534
sg7
S'--'
p535
sg8
g36
sg9
S'--'
p536
sg10
g36
sg11
S'--'
p537
sg12
S'2011'
p538
sg14
S'14'
p539
sg16
S'--'
p540
sg17
S'12/11'
p541
sg19
S'--'
p542
sg20
S'Mark Ingram'
p543
sg22
S'--'
p544
sg23
S'W22-17'
p545
sg24
S'--'
p546
sg25
S'--'
p547
sg26
S'@TEN'
p548
sg27
S'--'
p549
sg28
S'--'
p550
sg29
S'--'
p551
ssg307
(dp552
g5
S'--'
p553
sg7
S'--'
p554
sg8
g36
sg9
S'--'
p555
sg10
g36
sg11
S'--'
p556
sg12
S'2011'
p557
sg14
S'17'
p558
sg16
S'--'
p559
sg17
S'01/01'
p560
sg19
S'--'
p561
sg20
S'Mark Ingram'
p562
sg22
S'--'
p563
sg23
S'W45-17'
p564
sg24
S'--'
p565
sg25
S'--'
p566
sg26
S'CAR'
p567
sg27
S'--'
p568
sg28
S'--'
p569
sg29
S'--'
p570
ssg320
(dp571
g5
S'--'
p572
sg7
S'--'
p573
sg8
g36
sg9
S'--'
p574
sg10
g36
sg11
S'--'
p575
sg12
S'2011'
p576
sg14
S'16'
p577
sg16
S'--'
p578
sg17
S'12/26'
p579
sg19
S'--'
p580
sg20
S'Mark Ingram'
p581
sg22
S'--'
p582
sg23
S'W45-16'
p583
sg24
S'--'
p584
sg25
S'--'
p585
sg26
S'ATL'
p586
sg27
S'--'
p587
sg28
S'--'
p588
sg29
S'--'
p589
ssg34
(dp590
g5
S'--'
p591
sg7
S'--'
p592
sg8
g34
sg9
S'--'
p593
sg10
g34
sg11
S'--'
p594
sg12
S'2011'
p595
sg14
g34
sg16
S'3.1'
p596
sg17
S'09/08'
p597
sg19
g36
sg20
S'Mark Ingram'
p598
sg22
S'13'
p599
sg23
S'L34-42'
p600
sg24
S'--'
p601
sg25
S'--'
p602
sg26
S'@GB'
p603
sg27
S'--'
p604
sg28
S'40'
p605
sg29
g76
ssg45
(dp606
g5
S'-1.5'
p607
sg7
S'--'
p608
sg8
g36
sg9
S'--'
p609
sg10
g34
sg11
g36
sg12
S'2011'
p610
sg14
g45
sg16
S'4.2'
p611
sg17
S'09/25'
p612
sg19
g34
sg20
S'Mark Ingram'
p613
sg22
g76
sg23
S'W40-33'
p614
sg24
S'-3'
p615
sg25
g112
sg26
S'HOU'
p616
sg27
g36
sg28
S'38'
p617
sg29
S'17'
p618
ssg112
(dp619
g5
S'--'
p620
sg7
g34
sg8
g36
sg9
g34
sg10
g34
sg11
S'--'
p621
sg12
S'2011'
p622
sg14
g112
sg16
S'3.6'
p623
sg17
S'09/18'
p624
sg19
g36
sg20
S'Mark Ingram'
p625
sg22
S'14'
p626
sg23
S'W30-13'
p627
sg24
S'--'
p628
sg25
S'--'
p629
sg26
S'CHI'
p630
sg27
S'--'
p631
sg28
S'51'
p632
sg29
S'12'
p633
ssg42
(dp634
g5
S'8.5'
p635
sg7
S'--'
p636
sg8
g36
sg9
S'--'
p637
sg10
g34
sg11
g36
sg12
S'2011'
p638
sg14
g42
sg16
S'3.6'
p639
sg17
S'10/09'
p640
sg19
g34
sg20
S'Mark Ingram'
p641
sg22
g76
sg23
S'W30-27'
p642
sg24
S'17'
p643
sg25
g112
sg26
S'@CAR'
p644
sg27
g76
sg28
S'32'
p645
sg29
g94
ssg61
(dp646
g5
S'1.5'
p647
sg7
S'--'
p648
sg8
g36
sg9
S'--'
p649
sg10
g34
sg11
g36
sg12
S'2011'
p650
sg14
g61
sg16
S'3.2'
p651
sg17
S'10/02'
p652
sg19
g36
sg20
S'Mark Ingram'
p653
sg22
S'17'
p654
sg23
S'W23-10'
p655
sg24
g45
sg25
g112
sg26
S'@JAC'
p656
sg27
g112
sg28
S'55'
p657
sg29
g94
ssg154
(dp658
g5
S'6.0'
p659
sg7
S'--'
p660
sg8
g36
sg9
S'--'
p661
sg10
g34
sg11
g36
sg12
S'2011'
p662
sg14
g154
sg16
S'6.5'
p663
sg17
S'10/23'
p664
sg19
g36
sg20
S'Mark Ingram'
p665
sg22
S'14'
p666
sg23
S'W62-7'
p667
sg24
g79
sg25
g34
sg26
S'IND'
p668
sg27
g79
sg28
S'91'
p669
sg29
S'20'
p670
ssg79
(dp671
g5
S'6.0'
p672
sg7
S'--'
p673
sg8
g34
sg9
S'--'
p674
sg10
g34
sg11
g36
sg12
S'2011'
p675
sg14
g79
sg16
S'2.4'
p676
sg17
S'10/16'
p677
sg19
g34
sg20
S'Mark Ingram'
p678
sg22
g76
sg23
S'L20-26'
p679
sg24
g79
sg25
g34
sg26
S'@TB'
p680
sg27
g79
sg28
S'22'
p681
sg29
S'12T'
p682
ssg76
(dp683
g5
S'--'
p684
sg7
S'--'
p685
sg8
g36
sg9
S'--'
p686
sg10
g36
sg11
S'--'
p687
sg12
S'2011'
p688
sg14
g76
sg16
S'--'
p689
sg17
S'11/06'
p690
sg19
S'--'
p691
sg20
S'Mark Ingram'
p692
sg22
S'--'
p693
sg23
S'W27-16'
p694
sg24
S'--'
p695
sg25
S'--'
p696
sg26
S'TB'
p697
sg27
S'--'
p698
sg28
S'--'
p699
sg29
S'--'
p700
ssg94
(dp701
g5
S'--'
p702
sg7
S'--'
p703
sg8
g36
sg9
S'--'
p704
sg10
g36
sg11
S'--'
p705
sg12
S'2011'
p706
sg14
g94
sg16
S'--'
p707
sg17
S'10/30'
p708
sg19
S'--'
p709
sg20
S'Mark Ingram'
p710
sg22
S'--'
p711
sg23
S'L21-31'
p712
sg24
S'--'
p713
sg25
S'--'
p714
sg26
S'@STL'
p715
sg27
S'--'
p716
sg28
S'--'
p717
sg29
S'--'
p718
sssS'2013'
p719
(dp720
g3
(dp721
g5
S'4.0'
p722
sg7
S'--'
p723
sg8
g36
sg9
S'--'
p724
sg10
g34
sg11
g36
sg12
S'2013'
p725
sg14
S'11'
p726
sg16
S'4.2'
p727
sg17
S'11/17'
p728
sg19
g36
sg20
S'Mark Ingram'
p729
sg22
g79
sg23
S'W23-20'
p730
sg24
g61
sg25
g34
sg26
S'SF'
p731
sg27
g61
sg28
S'25'
p732
sg29
S'15'
p733
ssg30
(dp734
g5
S'7.5'
p735
sg7
S'--'
p736
sg8
g36
sg9
S'--'
p737
sg10
g34
sg11
g36
sg12
S'2013'
p738
sg14
S'10'
p739
sg16
S'10.4'
p740
sg17
S'11/10'
p741
sg19
g34
sg20
S'Mark Ingram'
p742
sg22
S'14'
p743
sg23
S'W49-17'
p744
sg24
S'15'
p745
sg25
g112
sg26
S'DAL'
p746
sg27
g76
sg28
S'145'
p747
sg29
S'34'
p748
ssg50
(dp749
g5
S'--'
p750
sg7
S'--'
p751
sg8
g36
sg9
S'--'
p752
sg10
g34
sg11
S'--'
p753
sg12
S'2013'
p754
sg14
S'13'
p755
sg16
S'2.8'
p756
sg17
S'12/02'
p757
sg19
g36
sg20
S'Mark Ingram'
p758
sg22
g94
sg23
S'L7-34'
p759
sg24
S'--'
p760
sg25
S'--'
p761
sg26
S'@SEA'
p762
sg27
S'--'
p763
sg28
S'22'
p764
sg29
g94
ssg66
(dp765
g5
S'--'
p766
sg7
S'--'
p767
sg8
g34
sg9
S'--'
p768
sg10
g34
sg11
S'--'
p769
sg12
S'2013'
p770
sg14
S'12'
p771
sg16
S'3.6'
p772
sg17
S'11/21'
p773
sg19
g36
sg20
S'Mark Ingram'
p774
sg22
g76
sg23
S'W17-13'
p775
sg24
S'--'
p776
sg25
S'--'
p777
sg26
S'@ATL'
p778
sg27
S'--'
p779
sg28
S'32'
p780
sg29
S'10'
p781
ssg274
(dp782
g5
S'19.5'
p783
sg7
S'--'
p784
sg8
g34
sg9
S'--'
p785
sg10
g34
sg11
g36
sg12
S'2013'
p786
sg14
S'15'
p787
sg16
S'5.0'
p788
sg17
S'12/15'
p789
sg19
g36
sg20
S'Mark Ingram'
p790
sg22
g34
sg23
S'L16-27'
p791
sg24
S'39'
p792
sg25
g112
sg26
S'@STL'
p793
sg27
S'23'
p794
sg28
g42
sg29
g42
ssg293
(dp795
g5
S'--'
p796
sg7
S'--'
p797
sg8
g36
sg9
S'--'
p798
sg10
g34
sg11
S'--'
p799
sg12
S'2013'
p800
sg14
S'14'
p801
sg16
S'1.3'
p802
sg17
S'12/08'
p803
sg19
g36
sg20
S'Mark Ingram'
p804
sg22
g45
sg23
S'W31-13'
p805
sg24
S'--'
p806
sg25
S'--'
p807
sg26
S'CAR'
p808
sg27
S'--'
p809
sg28
g61
sg29
g45
ssg307
(dp810
g5
S'3.0'
p811
sg7
S'--'
p812
sg8
g36
sg9
S'--'
p813
sg10
g34
sg11
g36
sg12
S'2013'
p814
sg14
S'17'
p815
sg16
S'6.7'
p816
sg17
S'12/29'
p817
sg19
g36
sg20
S'Mark Ingram'
p818
sg22
g45
sg23
S'W42-17'
p819
sg24
g45
sg25
g34
sg26
S'TB'
p820
sg27
g45
sg28
S'20'
p821
sg29
S'15'
p822
ssg320
(dp823
g5
S'7.0'
p824
sg7
S'--'
p825
sg8
g36
sg9
S'--'
p826
sg10
g34
sg11
g36
sg12
S'2013'
p827
sg14
S'16'
p828
sg16
S'6.4'
p829
sg17
S'12/22'
p830
sg19
g36
sg20
S'Mark Ingram'
p831
sg22
S'13'
p832
sg23
S'L13-17'
p833
sg24
g154
sg25
g34
sg26
S'@CAR'
p834
sg27
g154
sg28
S'83'
p835
sg29
S'34'
p836
ssg34
(dp837
g5
S'--'
p838
sg7
S'--'
p839
sg8
g34
sg9
S'--'
p840
sg10
g34
sg11
S'--'
p841
sg12
S'2013'
p842
sg14
g34
sg16
S'1.2'
p843
sg17
S'09/08'
p844
sg19
g36
sg20
S'Mark Ingram'
p845
sg22
g76
sg23
S'W23-17'
p846
sg24
S'--'
p847
sg25
S'--'
p848
sg26
S'ATL'
p849
sg27
S'--'
p850
sg28
S'11'
p851
sg29
g154
ssg45
(dp852
g5
S'--'
p853
sg7
S'--'
p854
sg8
g36
sg9
S'--'
p855
sg10
g36
sg11
S'--'
p856
sg12
S'2013'
p857
sg14
g45
sg16
S'--'
p858
sg17
S'09/22'
p859
sg19
S'--'
p860
sg20
S'Mark Ingram'
p861
sg22
S'--'
p862
sg23
S'W31-7'
p863
sg24
S'--'
p864
sg25
S'--'
p865
sg26
S'ARI'
p866
sg27
S'--'
p867
sg28
S'--'
p868
sg29
S'--'
p869
ssg112
(dp870
g5
S'--'
p871
sg7
S'--'
p872
sg8
g36
sg9
S'--'
p873
sg10
g34
sg11
g36
sg12
S'2013'
p874
sg14
g112
sg16
S'2.5'
p875
sg17
S'09/15'
p876
sg19
g36
sg20
S'Mark Ingram'
p877
sg22
g94
sg23
S'W16-14'
p878
sg24
g36
sg25
g36
sg26
S'@TB'
p879
sg27
S'--'
p880
sg28
S'20'
p881
sg29
g94
ssg42
(dp882
g5
S'--'
p883
sg7
S'--'
p884
sg8
g36
sg9
S'--'
p885
sg10
g36
sg11
S'--'
p886
sg12
S'2013'
p887
sg14
g42
sg16
S'--'
p888
sg17
S'10/06'
p889
sg19
S'--'
p890
sg20
S'Mark Ingram'
p891
sg22
S'--'
p892
sg23
S'W26-18'
p893
sg24
S'--'
p894
sg25
S'--'
p895
sg26
S'@CHI'
p896
sg27
S'--'
p897
sg28
S'--'
p898
sg29
S'--'
p899
ssg61
(dp900
g5
S'--'
p901
sg7
S'--'
p902
sg8
g36
sg9
S'--'
p903
sg10
g36
sg11
S'--'
p904
sg12
S'2013'
p905
sg14
g61
sg16
S'--'
p906
sg17
S'09/30'
p907
sg19
S'--'
p908
sg20
S'Mark Ingram'
p909
sg22
S'--'
p910
sg23
S'W38-17'
p911
sg24
S'--'
p912
sg25
S'--'
p913
sg26
S'MIA'
p914
sg27
S'--'
p915
sg28
S'--'
p916
sg29
S'--'
p917
ssg154
(dp918
g5
g6
sg7
g6
sg8
g6
sg9
g6
sg10
g6
sg11
g6
sg12
S'2013'
p919
sg14
g154
sg16
g6
sg17
S'Bye'
p920
sg19
g6
sg20
S'Mark Ingram'
p921
sg22
g6
sg23
g6
sg24
g6
sg25
g6
sg26
g6
sg27
g6
sg28
g6
sg29
g6
ssg79
(dp922
g5
S'--'
p923
sg7
S'--'
p924
sg8
g36
sg9
S'--'
p925
sg10
g36
sg11
S'--'
p926
sg12
S'2013'
p927
sg14
g79
sg16
S'--'
p928
sg17
S'10/13'
p929
sg19
S'--'
p930
sg20
S'Mark Ingram'
p931
sg22
S'--'
p932
sg23
S'L27-30'
p933
sg24
S'--'
p934
sg25
S'--'
p935
sg26
S'@NE'
p936
sg27
S'--'
p937
sg28
S'--'
p938
sg29
S'--'
p939
ssg76
(dp940
g5
S'--'
p941
sg7
S'--'
p942
sg8
g36
sg9
S'--'
p943
sg10
g34
sg11
g36
sg12
S'2013'
p944
sg14
g76
sg16
S'4.8'
p945
sg17
S'11/03'
p946
sg19
g36
sg20
S'Mark Ingram'
p947
sg22
g61
sg23
S'L20-26'
p948
sg24
g36
sg25
g36
sg26
S'@NYJ'
p949
sg27
S'--'
p950
sg28
S'19'
p951
sg29
S'13'
p952
ssg94
(dp953
g5
S'--'
p954
sg7
S'--'
p955
sg8
g36
sg9
S'--'
p956
sg10
g36
sg11
S'--'
p957
sg12
S'2013'
p958
sg14
g94
sg16
S'--'
p959
sg17
S'10/27'
p960
sg19
S'--'
p961
sg20
S'Mark Ingram'
p962
sg22
S'--'
p963
sg23
S'W35-17'
p964
sg24
S'--'
p965
sg25
S'--'
p966
sg26
S'BUF'
p967
sg27
S'--'
p968
sg28
S'--'
p969
sg29
S'--'
p970
sssS'2012'
p971
(dp972
g3
(dp973
g5
S'1.0'
p974
sg7
S'--'
p975
sg8
g34
sg9
S'--'
p976
sg10
g34
sg11
g36
sg12
S'2012'
p977
sg14
S'11'
p978
sg16
S'5.6'
p979
sg17
S'11/18'
p980
sg19
g34
sg20
S'Mark Ingram'
p981
sg22
S'12'
p982
sg23
S'W38-17'
p983
sg24
g34
sg25
g34
sg26
S'@OAK'
p984
sg27
g34
sg28
S'67'
p985
sg29
S'27T'
p986
ssg30
(dp987
g5
S'--'
p988
sg7
S'--'
p989
sg8
g36
sg9
S'--'
p990
sg10
g34
sg11
g36
sg12
S'2012'
p991
sg14
S'10'
p992
sg16
S'4.2'
p993
sg17
S'11/11'
p994
sg19
g36
sg20
S'Mark Ingram'
p995
sg22
S'16'
p996
sg23
S'W31-27'
p997
sg24
g36
sg25
g36
sg26
S'ATL'
p998
sg27
S'--'
p999
sg28
S'67'
p1000
sg29
g94
ssg50
(dp1001
g5
S'-1.0'
p1002
sg7
S'--'
p1003
sg8
g34
sg9
S'--'
p1004
sg10
g34
sg11
g36
sg12
S'2012'
p1005
sg14
S'13'
p1006
sg16
S'2.2'
p1007
sg17
S'11/29'
p1008
sg19
g34
sg20
S'Mark Ingram'
p1009
sg22
g79
sg23
S'L13-23'
p1010
sg24
S'-1'
p1011
sg25
g34
sg26
S'@ATL'
p1012
sg27
S'-1'
p1013
sg28
S'13'
p1014
sg29
g42
ssg66
(dp1015
g5
S'--'
p1016
sg7
S'--'
p1017
sg8
g36
sg9
S'--'
p1018
sg10
g34
sg11
g36
sg12
S'2012'
p1019
sg14
S'12'
p1020
sg16
S'2.7'
p1021
sg17
S'11/25'
p1022
sg19
g36
sg20
S'Mark Ingram'
p1023
sg22
S'10'
p1024
sg23
S'L21-31'
p1025
sg24
g36
sg25
g36
sg26
S'SF'
p1026
sg27
S'--'
p1027
sg28
S'27'
p1028
sg29
g154
ssg274
(dp1029
g5
S'--'
p1030
sg7
S'--'
p1031
sg8
g34
sg9
S'--'
p1032
sg10
g34
sg11
S'--'
p1033
sg12
S'2012'
p1034
sg14
S'15'
p1035
sg16
S'6.4'
p1036
sg17
S'12/16'
p1037
sg19
g34
sg20
S'Mark Ingram'
p1038
sg22
S'14'
p1039
sg23
S'W41-0'
p1040
sg24
S'--'
p1041
sg25
S'--'
p1042
sg26
S'TB'
p1043
sg27
S'--'
p1044
sg28
S'90'
p1045
sg29
S'31'
p1046
ssg293
(dp1047
g5
S'--'
p1048
sg7
S'--'
p1049
sg8
g34
sg9
S'--'
p1050
sg10
g34
sg11
S'--'
p1051
sg12
S'2012'
p1052
sg14
S'14'
p1053
sg16
S'5.2'
p1054
sg17
S'12/09'
p1055
sg19
g36
sg20
S'Mark Ingram'
p1056
sg22
S'13'
p1057
sg23
S'L27-52'
p1058
sg24
S'--'
p1059
sg25
S'--'
p1060
sg26
S'@NYG'
p1061
sg27
S'--'
p1062
sg28
S'68'
p1063
sg29
S'19'
p1064
ssg307
(dp1065
g5
S'--'
p1066
sg7
S'--'
p1067
sg8
g36
sg9
S'--'
p1068
sg10
g34
sg11
g36
sg12
S'2012'
p1069
sg14
S'17'
p1070
sg16
S'3.9'
p1071
sg17
S'12/30'
p1072
sg19
g36
sg20
S'Mark Ingram'
p1073
sg22
S'10'
p1074
sg23
S'L38-44'
p1075
sg24
g36
sg25
g36
sg26
S'CAR'
p1076
sg27
S'--'
p1077
sg28
S'39'
p1078
sg29
S'17'
p1079
ssg320
(dp1080
g5
S'7.0'
p1081
sg7
S'--'
p1082
sg8
g36
sg9
S'--'
p1083
sg10
g34
sg11
g36
sg12
S'2012'
p1084
sg14
S'16'
p1085
sg16
S'2.5'
p1086
sg17
S'12/23'
p1087
sg19
g34
sg20
S'Mark Ingram'
p1088
sg22
S'21'
p1089
sg23
S'W34-31'
p1090
sg24
g154
sg25
g34
sg26
S'@DAL'
p1091
sg27
g154
sg28
S'53'
p1092
sg29
S'9T'
p1093
ssg34
(dp1094
g5
S'--'
p1095
sg7
S'--'
p1096
sg8
g36
sg9
S'--'
p1097
sg10
g34
sg11
g36
sg12
S'2012'
p1098
sg14
g34
sg16
S'2.5'
p1099
sg17
S'09/09'
p1100
sg19
g36
sg20
S'Mark Ingram'
p1101
sg22
g79
sg23
S'L32-40'
p1102
sg24
g36
sg25
g36
sg26
S'WAS'
p1103
sg27
S'--'
p1104
sg28
S'15'
p1105
sg29
g79
ssg45
(dp1106
g5
S'--'
p1107
sg7
S'--'
p1108
sg8
g36
sg9
S'--'
p1109
sg10
g34
sg11
S'--'
p1110
sg12
S'2012'
p1111
sg14
g45
sg16
S'2.2'
p1112
sg17
S'09/23'
p1113
sg19
g36
sg20
S'Mark Ingram'
p1114
sg22
g42
sg23
S'L24-27'
p1115
sg24
S'--'
p1116
sg25
S'--'
p1117
sg26
S'KC'
p1118
sg27
S'--'
p1119
sg28
S'11'
p1120
sg29
g61
ssg112
(dp1121
g5
S'--'
p1122
sg7
S'--'
p1123
sg8
g36
sg9
S'--'
p1124
sg10
g34
sg11
S'--'
p1125
sg12
S'2012'
p1126
sg14
g112
sg16
S'3.3'
p1127
sg17
S'09/16'
p1128
sg19
g34
sg20
S'Mark Ingram'
p1129
sg22
S'16'
p1130
sg23
S'L27-35'
p1131
sg24
S'--'
p1132
sg25
S'--'
p1133
sg26
S'@CAR'
p1134
sg27
S'--'
p1135
sg28
S'53'
p1136
sg29
S'12'
p1137
ssg42
(dp1138
g5
S'--'
p1139
sg7
S'--'
p1140
sg8
g36
sg9
S'--'
p1141
sg10
g34
sg11
S'--'
p1142
sg12
S'2012'
p1143
sg14
g42
sg16
S'3.2'
p1144
sg17
S'10/07'
p1145
sg19
g36
sg20
S'Mark Ingram'
p1146
sg22
g42
sg23
S'W31-24'
p1147
sg24
S'--'
p1148
sg25
S'--'
p1149
sg26
S'SD'
p1150
sg27
S'--'
p1151
sg28
S'16'
p1152
sg29
g79
ssg61
(dp1153
g5
S'-1.0'
p1154
sg7
S'--'
p1155
sg8
g36
sg9
S'--'
p1156
sg10
g34
sg11
g36
sg12
S'2012'
p1157
sg14
g61
sg16
S'2.2'
p1158
sg17
S'09/30'
p1159
sg19
g36
sg20
S'Mark Ingram'
p1160
sg22
g42
sg23
S'L27-28'
p1161
sg24
S'-1'
p1162
sg25
g34
sg26
S'@GB'
p1163
sg27
S'-1'
p1164
sg28
S'11'
p1165
sg29
g45
ssg154
(dp1166
g5
S'--'
p1167
sg7
S'--'
p1168
sg8
g36
sg9
S'--'
p1169
sg10
g34
sg11
S'--'
p1170
sg12
S'2012'
p1171
sg14
g154
sg16
S'3.0'
p1172
sg17
S'10/21'
p1173
sg19
g36
sg20
S'Mark Ingram'
p1174
sg22
g154
sg23
S'W35-28'
p1175
sg24
S'--'
p1176
sg25
S'--'
p1177
sg26
S'@TB'
p1178
sg27
S'--'
p1179
sg28
S'21'
p1180
sg29
S'10'
p1181
ssg79
(dp1182
g5
g6
sg7
g6
sg8
g6
sg9
g6
sg10
g6
sg11
g6
sg12
S'2012'
p1183
sg14
g79
sg16
g6
sg17
S'Bye'
p1184
sg19
g6
sg20
S'Mark Ingram'
p1185
sg22
g6
sg23
g6
sg24
g6
sg25
g6
sg26
g6
sg27
g6
sg28
g6
sg29
g6
ssg76
(dp1186
g5
S'11.5'
p1187
sg7
S'--'
p1188
sg8
g34
sg9
S'--'
p1189
sg10
g34
sg11
g36
sg12
S'2012'
p1190
sg14
g76
sg16
S'6.3'
p1191
sg17
S'11/05'
p1192
sg19
g36
sg20
S'Mark Ingram'
p1193
sg22
g154
sg23
S'W28-13'
p1194
sg24
S'23'
p1195
sg25
g112
sg26
S'PHI'
p1196
sg27
S'16'
p1197
sg28
S'44'
p1198
sg29
S'23'
p1199
ssg94
(dp1200
g5
S'--'
p1201
sg7
S'--'
p1202
sg8
g36
sg9
S'--'
p1203
sg10
g34
sg11
S'--'
p1204
sg12
S'2012'
p1205
sg14
g94
sg16
S'2.3'
p1206
sg17
S'10/28'
p1207
sg19
g36
sg20
S'Mark Ingram'
p1208
sg22
g45
sg23
S'L14-34'
p1209
sg24
S'--'
p1210
sg25
S'--'
p1211
sg26
S'@DEN'
p1212
sg27
S'--'
p1213
sg28
g154
sg29
g61
sss.