(dp0
S'2015'
p1
(dp2
S'11'
p3
(dp4
S'RecAvg'
p5
S'9.0'
p6
sS'FUM'
p7
S'--'
p8
sS'GS'
p9
S'0'
p10
sS'Lost'
p11
S'--'
p12
sS'G'
p13
S'1'
p14
sS'RecTD'
p15
g10
sS'Year'
p16
S'2015'
p17
sS'WK'
p18
S'11'
p19
sS'RushAvg'
p20
S'--'
p21
sS'Game Date'
p22
S'11/22'
p23
sS'RushTD'
p24
S'--'
p25
sS'Player'
p26
S'Matt Asiata'
p27
sS'RushAtt'
p28
S'--'
p29
sS'Result'
p30
S'L13-30'
p31
sS'RecYds'
p32
S'9'
p33
sS'Rec'
p34
g14
sS'Opp'
p35
S'GB'
p36
sS'RecLng'
p37
g33
sS'RushYds'
p38
S'--'
p39
sS'RushLng'
p40
S'--'
p41
ssS'10'
p42
(dp43
g5
S'9.0'
p44
sg7
S'--'
p45
sg9
g10
sg11
S'--'
p46
sg13
g14
sg15
g10
sg16
S'2015'
p47
sg18
S'10'
p48
sg20
S'3.5'
p49
sg22
S'11/15'
p50
sg24
g10
sg26
S'Matt Asiata'
p51
sg28
S'2'
p52
sg30
S'W30-14'
p53
sg32
S'18'
p54
sg34
g52
sg35
S'@OAK'
p55
sg37
S'11'
p56
sg38
S'7'
p57
sg40
S'6'
p58
ssS'13'
p59
(dp60
g5
S'--'
p61
sg7
S'--'
p62
sg9
g10
sg11
S'--'
p63
sg13
g14
sg15
g10
sg16
S'2015'
p64
sg18
S'13'
p65
sg20
S'-0.5'
p66
sg22
S'12/06'
p67
sg24
g10
sg26
S'Matt Asiata'
p68
sg28
g52
sg30
S'L7-38'
p69
sg32
g10
sg34
g10
sg35
S'SEA'
p70
sg37
S'--'
p71
sg38
S'-1'
p72
sg40
S'3'
p73
ssS'12'
p74
(dp75
g5
S'5.7'
p76
sg7
S'--'
p77
sg9
g10
sg11
S'--'
p78
sg13
g14
sg15
g10
sg16
S'2015'
p79
sg18
S'12'
p80
sg20
S'3.0'
p81
sg22
S'11/29'
p82
sg24
g10
sg26
S'Matt Asiata'
p83
sg28
g14
sg30
S'W20-10'
p84
sg32
S'17'
p85
sg34
g73
sg35
S'@ATL'
p86
sg37
S'8'
p87
sg38
g73
sg40
g73
ssS'15'
p88
(dp89
g5
S'6.0'
p90
sg7
S'--'
p91
sg9
g10
sg11
S'--'
p92
sg13
g14
sg15
g10
sg16
S'2015'
p93
sg18
S'15'
p94
sg20
S'5.6'
p95
sg22
S'12/20'
p96
sg24
g10
sg26
S'Matt Asiata'
p97
sg28
S'5'
p98
sg30
S'W38-17'
p99
sg32
g58
sg34
g14
sg35
S'CHI'
p100
sg37
g58
sg38
S'28'
p101
sg40
S'19'
p102
ssS'14'
p103
(dp104
g5
S'15.0'
p105
sg7
S'--'
p106
sg9
g10
sg11
S'--'
p107
sg13
g14
sg15
g10
sg16
S'2015'
p108
sg18
S'14'
p109
sg20
S'--'
p110
sg22
S'12/10'
p111
sg24
S'--'
p112
sg26
S'Matt Asiata'
p113
sg28
S'--'
p114
sg30
S'L20-23'
p115
sg32
S'30'
p116
sg34
g52
sg35
S'@ARI'
p117
sg37
S'22'
p118
sg38
S'--'
p119
sg40
S'--'
p120
ssS'17'
p121
(dp122
g5
S'--'
p123
sg7
S'--'
p124
sg9
g10
sg11
S'--'
p125
sg13
g14
sg15
S'--'
p126
sg16
S'2015'
p127
sg18
S'17'
p128
sg20
S'--'
p129
sg22
S'01/03'
p130
sg24
S'--'
p131
sg26
S'Matt Asiata'
p132
sg28
S'--'
p133
sg30
S'W20-13'
p134
sg32
S'--'
p135
sg34
S'--'
p136
sg35
S'@GB'
p137
sg37
S'--'
p138
sg38
S'--'
p139
sg40
S'--'
p140
ssS'16'
p141
(dp142
g5
S'--'
p143
sg7
S'--'
p144
sg9
g10
sg11
S'--'
p145
sg13
g14
sg15
g10
sg16
S'2015'
p146
sg18
S'16'
p147
sg20
S'2.8'
p148
sg22
S'12/27'
p149
sg24
g10
sg26
S'Matt Asiata'
p150
sg28
g98
sg30
S'W49-17'
p151
sg32
g10
sg34
g10
sg35
S'NYG'
p152
sg37
S'--'
p153
sg38
S'14'
p154
sg40
g57
ssg14
(dp155
g5
S'14.0'
p156
sg7
S'--'
p157
sg9
g10
sg11
S'--'
p158
sg13
g14
sg15
g10
sg16
S'2015'
p159
sg18
g14
sg20
S'4.0'
p160
sg22
S'09/14'
p161
sg24
g10
sg26
S'Matt Asiata'
p162
sg28
g14
sg30
S'L3-20'
p163
sg32
S'28'
p164
sg34
g52
sg35
S'@SF'
p165
sg37
S'21'
p166
sg38
S'4'
p167
sg40
g167
ssg73
(dp168
g5
S'2.5'
p169
sg7
S'--'
p170
sg9
g10
sg11
S'--'
p171
sg13
g14
sg15
g10
sg16
S'2015'
p172
sg18
g73
sg20
S'5.0'
p173
sg22
S'09/27'
p174
sg24
g10
sg26
S'Matt Asiata'
p175
sg28
g52
sg30
S'W31-14'
p176
sg32
g98
sg34
g52
sg35
S'SD'
p177
sg37
g58
sg38
S'10'
p178
sg40
g87
ssg52
(dp179
g5
S'--'
p180
sg7
S'--'
p181
sg9
g10
sg11
S'--'
p182
sg13
g14
sg15
S'--'
p183
sg16
S'2015'
p184
sg18
g52
sg20
S'4.0'
p185
sg22
S'09/20'
p186
sg24
g10
sg26
S'Matt Asiata'
p187
sg28
g52
sg30
S'W26-16'
p188
sg32
S'--'
p189
sg34
S'--'
p190
sg35
S'DET'
p191
sg37
S'--'
p192
sg38
g87
sg40
g58
ssg98
(dp193
g5
S''
p194
sg7
g194
sg9
g194
sg11
g194
sg13
g194
sg15
g194
sg16
S'2015'
p195
sg18
g98
sg20
g194
sg22
S'Bye'
p196
sg24
g194
sg26
S'Matt Asiata'
p197
sg28
g194
sg30
g194
sg32
g194
sg34
g194
sg35
g194
sg37
g194
sg38
g194
sg40
g194
ssg167
(dp198
g5
S'--'
p199
sg7
S'--'
p200
sg9
g10
sg11
S'--'
p201
sg13
g14
sg15
S'--'
p202
sg16
S'2015'
p203
sg18
g167
sg20
S'3.0'
p204
sg22
S'10/04'
p205
sg24
g10
sg26
S'Matt Asiata'
p206
sg28
g14
sg30
S'L20-23'
p207
sg32
S'--'
p208
sg34
S'--'
p209
sg35
S'@DEN'
p210
sg37
S'--'
p211
sg38
g73
sg40
g73
ssg57
(dp212
g5
S'2.5'
p213
sg7
S'--'
p214
sg9
g10
sg11
S'--'
p215
sg13
g14
sg15
g10
sg16
S'2015'
p216
sg18
g57
sg20
S'--'
p217
sg22
S'10/25'
p218
sg24
S'--'
p219
sg26
S'Matt Asiata'
p220
sg28
S'--'
p221
sg30
S'W28-19'
p222
sg32
g98
sg34
g52
sg35
S'@DET'
p223
sg37
g98
sg38
S'--'
p224
sg40
S'--'
p225
ssg58
(dp226
g5
S'8.0'
p227
sg7
S'--'
p228
sg9
g10
sg11
S'--'
p229
sg13
g14
sg15
g10
sg16
S'2015'
p230
sg18
g58
sg20
S'5.4'
p231
sg22
S'10/18'
p232
sg24
g10
sg26
S'Matt Asiata'
p233
sg28
g98
sg30
S'W16-10'
p234
sg32
g87
sg34
g14
sg35
S'KC'
p235
sg37
g87
sg38
S'27'
p236
sg40
S'11'
p237
ssg33
(dp238
g5
S'--'
p239
sg7
S'--'
p240
sg9
g10
sg11
S'--'
p241
sg13
g14
sg15
S'--'
p242
sg16
S'2015'
p243
sg18
g33
sg20
S'2.0'
p244
sg22
S'11/08'
p245
sg24
g10
sg26
S'Matt Asiata'
p246
sg28
g52
sg30
S'W21-18'
p247
sg32
S'--'
p248
sg34
S'--'
p249
sg35
S'STL'
p250
sg37
S'--'
p251
sg38
g167
sg40
g52
ssg87
(dp252
g5
S'2.0'
p253
sg7
S'--'
p254
sg9
g10
sg11
S'--'
p255
sg13
g14
sg15
g10
sg16
S'2015'
p256
sg18
g87
sg20
S'5.0'
p257
sg22
S'11/01'
p258
sg24
g10
sg26
S'Matt Asiata'
p259
sg28
g14
sg30
S'W23-20'
p260
sg32
g58
sg34
g73
sg35
S'@CHI'
p261
sg37
S'12'
p262
sg38
g98
sg40
g98
sssS'2014'
p263
(dp264
g3
(dp265
g5
S'4.0'
p266
sg7
S'--'
p267
sg9
g10
sg11
S'--'
p268
sg13
g14
sg15
g10
sg16
S'2014'
p269
sg18
S'11'
p270
sg20
S'2.0'
p271
sg22
S'11/16'
p272
sg24
g10
sg26
S'Matt Asiata'
p273
sg28
g14
sg30
S'L13-21'
p274
sg32
S'12'
p275
sg34
g73
sg35
S'@CHI'
p276
sg37
g57
sg38
g52
sg40
g52
ssg42
(dp277
g5
g194
sg7
g194
sg9
g194
sg11
g194
sg13
g194
sg15
g194
sg16
S'2014'
p278
sg18
S'10'
p279
sg20
g194
sg22
S'Bye'
p280
sg24
g194
sg26
S'Matt Asiata'
p281
sg28
g194
sg30
g194
sg32
g194
sg34
g194
sg35
g194
sg37
g194
sg38
g194
sg40
g194
ssg59
(dp282
g5
S'1.3'
p283
sg7
S'--'
p284
sg9
g14
sg11
S'--'
p285
sg13
g14
sg15
g10
sg16
S'2014'
p286
sg18
S'13'
p287
sg20
S'3.7'
p288
sg22
S'11/30'
p289
sg24
g10
sg26
S'Matt Asiata'
p290
sg28
S'14'
p291
sg30
S'W31-13'
p292
sg32
g98
sg34
g167
sg35
S'CAR'
p293
sg37
g167
sg38
S'52'
p294
sg40
g87
ssg74
(dp295
g5
S'--'
p296
sg7
S'--'
p297
sg9
g10
sg11
S'--'
p298
sg13
g10
sg15
S'--'
p299
sg16
S'2014'
p300
sg18
S'12'
p301
sg20
S'--'
p302
sg22
S'11/23'
p303
sg24
S'--'
p304
sg26
S'Matt Asiata'
p305
sg28
S'--'
p306
sg30
S'L21-24'
p307
sg32
S'--'
p308
sg34
S'--'
p309
sg35
S'GB'
p310
sg37
S'--'
p311
sg38
S'--'
p312
sg40
S'--'
p313
ssg88
(dp314
g5
S'7.1'
p315
sg7
S'--'
p316
sg9
g14
sg11
S'--'
p317
sg13
g14
sg15
g10
sg16
S'2014'
p318
sg18
S'15'
p319
sg20
S'3.3'
p320
sg22
S'12/14'
p321
sg24
g14
sg26
S'Matt Asiata'
p322
sg28
S'11'
p323
sg30
S'L14-16'
p324
sg32
S'50'
p325
sg34
g57
sg35
S'@DET'
p326
sg37
S'10'
p327
sg38
S'36'
p328
sg40
g33
ssg103
(dp329
g5
S'3.3'
p330
sg7
S'--'
p331
sg9
g14
sg11
S'--'
p332
sg13
g14
sg15
g10
sg16
S'2014'
p333
sg18
S'14'
p334
sg20
S'2.8'
p335
sg22
S'12/07'
p336
sg24
g10
sg26
S'Matt Asiata'
p337
sg28
S'19'
p338
sg30
S'W30-24'
p339
sg32
S'10'
p340
sg34
g73
sg35
S'NYJ'
p341
sg37
g58
sg38
S'54'
p342
sg40
g87
ssg121
(dp343
g5
S'8.5'
p344
sg7
S'--'
p345
sg9
g14
sg11
S'--'
p346
sg13
g14
sg15
g10
sg16
S'2014'
p347
sg18
S'17'
p348
sg20
S'4.8'
p349
sg22
S'12/28'
p350
sg24
g10
sg26
S'Matt Asiata'
p351
sg28
S'19'
p352
sg30
S'W13-9'
p353
sg32
S'17'
p354
sg34
g52
sg35
S'CHI'
p355
sg37
S'10'
p356
sg38
S'91'
p357
sg40
S'19'
p358
ssg141
(dp359
g5
S'6.3'
p360
sg7
S'--'
p361
sg9
g14
sg11
S'--'
p362
sg13
g14
sg15
g10
sg16
S'2014'
p363
sg18
S'16'
p364
sg20
S'3.6'
p365
sg22
S'12/21'
p366
sg24
g52
sg26
S'Matt Asiata'
p367
sg28
S'16'
p368
sg30
S'L35-37'
p369
sg32
S'19'
p370
sg34
g73
sg35
S'@MIA'
p371
sg37
g33
sg38
S'58'
p372
sg40
S'10'
p373
ssg14
(dp374
g5
S'5.0'
p375
sg7
S'--'
p376
sg9
g10
sg11
S'--'
p377
sg13
g14
sg15
g10
sg16
S'2014'
p378
sg18
g14
sg20
S'5.0'
p379
sg22
S'09/07'
p380
sg24
g10
sg26
S'Matt Asiata'
p381
sg28
g52
sg30
S'W34-6'
p382
sg32
g98
sg34
g14
sg35
S'@STL'
p383
sg37
g98
sg38
S'10'
p384
sg40
g98
ssg73
(dp385
g5
S'12.0'
p386
sg7
S'--'
p387
sg9
g14
sg11
S'--'
p388
sg13
g14
sg15
g10
sg16
S'2014'
p389
sg18
g73
sg20
S'2.9'
p390
sg22
S'09/21'
p391
sg24
g10
sg26
S'Matt Asiata'
p392
sg28
S'12'
p393
sg30
S'L9-20'
p394
sg32
S'36'
p395
sg34
g73
sg35
S'@NO'
p396
sg37
S'41'
p397
sg38
S'35'
p398
sg40
g87
ssg52
(dp399
g5
S'9.6'
p400
sg7
S'--'
p401
sg9
g14
sg11
S'--'
p402
sg13
g14
sg15
g14
sg16
S'2014'
p403
sg18
g52
sg20
S'2.8'
p404
sg22
S'09/14'
p405
sg24
g10
sg26
S'Matt Asiata'
p406
sg28
S'13'
p407
sg30
S'L7-30'
p408
sg32
S'48'
p409
sg34
g98
sg35
S'NE'
p410
sg37
S'25T'
p411
sg38
S'36'
p412
sg40
g57
ssg98
(dp413
g5
S'--'
p414
sg7
g14
sg9
g14
sg11
g14
sg13
g14
sg15
g10
sg16
S'2014'
p415
sg18
g98
sg20
S'4.8'
p416
sg22
S'10/02'
p417
sg24
g10
sg26
S'Matt Asiata'
p418
sg28
S'15'
p419
sg30
S'L10-42'
p420
sg32
g10
sg34
g10
sg35
S'@GB'
p421
sg37
S'--'
p422
sg38
S'72'
p423
sg40
S'11'
p424
ssg167
(dp425
g5
S'7.3'
p426
sg7
S'--'
p427
sg9
g14
sg11
S'--'
p428
sg13
g14
sg15
g10
sg16
S'2014'
p429
sg18
g167
sg20
S'3.9'
p430
sg22
S'09/28'
p431
sg24
g73
sg26
S'Matt Asiata'
p432
sg28
S'20'
p433
sg30
S'W41-28'
p434
sg32
S'22'
p435
sg34
g73
sg35
S'ATL'
p436
sg37
S'12'
p437
sg38
S'78'
p438
sg40
S'12'
p439
ssg57
(dp440
g5
S'13.0'
p441
sg7
S'--'
p442
sg9
g10
sg11
S'--'
p443
sg13
g14
sg15
g10
sg16
S'2014'
p444
sg18
g57
sg20
S'4.0'
p445
sg22
S'10/19'
p446
sg24
g10
sg26
S'Matt Asiata'
p447
sg28
g58
sg30
S'L16-17'
p448
sg32
S'13'
p449
sg34
g14
sg35
S'@BUF'
p450
sg37
S'13'
p451
sg38
S'24'
p452
sg40
S'11'
p453
ssg58
(dp454
g5
S'18.0'
p455
sg7
S'--'
p456
sg9
g10
sg11
S'--'
p457
sg13
g14
sg15
g10
sg16
S'2014'
p458
sg18
g58
sg20
S'-2.5'
p459
sg22
S'10/12'
p460
sg24
g10
sg26
S'Matt Asiata'
p461
sg28
g52
sg30
S'L3-17'
p462
sg32
S'18'
p463
sg34
g14
sg35
S'DET'
p464
sg37
S'18'
p465
sg38
S'-5'
p466
sg40
S'-2'
p467
ssg33
(dp468
g5
S'7.8'
p469
sg7
S'--'
p470
sg9
g10
sg11
S'--'
p471
sg13
g14
sg15
g10
sg16
S'2014'
p472
sg18
g33
sg20
S'2.6'
p473
sg22
S'11/02'
p474
sg24
g73
sg26
S'Matt Asiata'
p475
sg28
S'10'
p476
sg30
S'W29-26'
p477
sg32
S'31'
p478
sg34
g167
sg35
S'WAS'
p479
sg37
S'11'
p480
sg38
S'26'
p481
sg40
S'7T'
p482
ssg87
(dp483
g5
S'6.5'
p484
sg7
S'--'
p485
sg9
g10
sg11
S'--'
p486
sg13
g14
sg15
g10
sg16
S'2014'
p487
sg18
g87
sg20
S'0.3'
p488
sg22
S'10/26'
p489
sg24
g10
sg26
S'Matt Asiata'
p490
sg28
g167
sg30
S'W19-13'
p491
sg32
S'26'
p492
sg34
g167
sg35
S'@TB'
p493
sg37
S'10'
p494
sg38
g14
sg40
g98
sssS'2013'
p495
(dp496
g3
(dp497
g5
S'--'
p498
sg7
S'--'
p499
sg9
g10
sg11
S'--'
p500
sg13
g10
sg15
S'--'
p501
sg16
S'2013'
p502
sg18
S'11'
p503
sg20
S'--'
p504
sg22
S'11/17'
p505
sg24
S'--'
p506
sg26
S'Matt Asiata'
p507
sg28
S'--'
p508
sg30
S'L20-41'
p509
sg32
S'--'
p510
sg34
S'--'
p511
sg35
S'@SEA'
p512
sg37
S'--'
p513
sg38
S'--'
p514
sg40
S'--'
p515
ssg42
(dp516
g5
S'--'
p517
sg7
S'--'
p518
sg9
g10
sg11
S'--'
p519
sg13
g10
sg15
S'--'
p520
sg16
S'2013'
p521
sg18
S'10'
p522
sg20
S'--'
p523
sg22
S'11/07'
p524
sg24
S'--'
p525
sg26
S'Matt Asiata'
p526
sg28
S'--'
p527
sg30
S'W34-27'
p528
sg32
S'--'
p529
sg34
S'--'
p530
sg35
S'WAS'
p531
sg37
S'--'
p532
sg38
S'--'
p533
sg40
S'--'
p534
ssg59
(dp535
g5
S'--'
p536
sg7
S'--'
p537
sg9
g10
sg11
S'--'
p538
sg13
g14
sg15
S'--'
p539
sg16
S'2013'
p540
sg18
S'13'
p541
sg20
S'--'
p542
sg22
S'12/01'
p543
sg24
S'--'
p544
sg26
S'Matt Asiata'
p545
sg28
S'--'
p546
sg30
S'W23-20'
p547
sg32
S'--'
p548
sg34
S'--'
p549
sg35
S'CHI'
p550
sg37
S'--'
p551
sg38
S'--'
p552
sg40
S'--'
p553
ssg74
(dp554
g5
S'--'
p555
sg7
S'--'
p556
sg9
g10
sg11
S'--'
p557
sg13
g14
sg15
S'--'
p558
sg16
S'2013'
p559
sg18
S'12'
p560
sg20
S'--'
p561
sg22
S'11/24'
p562
sg24
S'--'
p563
sg26
S'Matt Asiata'
p564
sg28
S'--'
p565
sg30
S'T26-26'
p566
sg32
S'--'
p567
sg34
S'--'
p568
sg35
S'@GB'
p569
sg37
S'--'
p570
sg38
S'--'
p571
sg40
S'--'
p572
ssg88
(dp573
g5
S'5.0'
p574
sg7
S'--'
p575
sg9
g14
sg11
S'--'
p576
sg13
g14
sg15
g10
sg16
S'2013'
p577
sg18
S'15'
p578
sg20
S'1.7'
p579
sg22
S'12/15'
p580
sg24
g73
sg26
S'Matt Asiata'
p581
sg28
S'30'
p582
sg30
S'W48-30'
p583
sg32
S'15'
p584
sg34
g73
sg35
S'PHI'
p585
sg37
g87
sg38
S'51'
p586
sg40
S'10'
p587
ssg103
(dp588
g5
S'--'
p589
sg7
S'--'
p590
sg9
g10
sg11
S'--'
p591
sg13
g14
sg15
S'--'
p592
sg16
S'2013'
p593
sg18
S'14'
p594
sg20
S'--'
p595
sg22
S'12/08'
p596
sg24
S'--'
p597
sg26
S'Matt Asiata'
p598
sg28
S'--'
p599
sg30
S'L26-29'
p600
sg32
S'--'
p601
sg34
S'--'
p602
sg35
S'@BAL'
p603
sg37
S'--'
p604
sg38
S'--'
p605
sg40
S'--'
p606
ssg121
(dp607
g5
S'-1.0'
p608
sg7
g14
sg9
g10
sg11
g14
sg13
g14
sg15
g10
sg16
S'2013'
p609
sg18
S'17'
p610
sg20
S'8.2'
p611
sg22
S'12/29'
p612
sg24
g10
sg26
S'Matt Asiata'
p613
sg28
S'14'
p614
sg30
S'W14-13'
p615
sg32
S'-2'
p616
sg34
g52
sg35
S'DET'
p617
sg37
g98
sg38
S'115'
p618
sg40
S'39'
p619
ssg141
(dp620
g5
S'--'
p621
sg7
S'--'
p622
sg9
g10
sg11
S'--'
p623
sg13
g10
sg15
S'--'
p624
sg16
S'2013'
p625
sg18
S'16'
p626
sg20
S'--'
p627
sg22
S'12/22'
p628
sg24
S'--'
p629
sg26
S'Matt Asiata'
p630
sg28
S'--'
p631
sg30
S'L14-42'
p632
sg32
S'--'
p633
sg34
S'--'
p634
sg35
S'@CIN'
p635
sg37
S'--'
p636
sg38
S'--'
p637
sg40
S'--'
p638
ssg14
(dp639
g5
S'--'
p640
sg7
S'--'
p641
sg9
g10
sg11
S'--'
p642
sg13
g14
sg15
S'--'
p643
sg16
S'2013'
p644
sg18
g14
sg20
S'--'
p645
sg22
S'09/08'
p646
sg24
S'--'
p647
sg26
S'Matt Asiata'
p648
sg28
S'--'
p649
sg30
S'L24-34'
p650
sg32
S'--'
p651
sg34
S'--'
p652
sg35
S'@DET'
p653
sg37
S'--'
p654
sg38
S'--'
p655
sg40
S'--'
p656
ssg73
(dp657
g5
S'--'
p658
sg7
S'--'
p659
sg9
g10
sg11
S'--'
p660
sg13
g14
sg15
S'--'
p661
sg16
S'2013'
p662
sg18
g73
sg20
S'--'
p663
sg22
S'09/22'
p664
sg24
S'--'
p665
sg26
S'Matt Asiata'
p666
sg28
S'--'
p667
sg30
S'L27-31'
p668
sg32
S'--'
p669
sg34
S'--'
p670
sg35
S'CLE'
p671
sg37
S'--'
p672
sg38
S'--'
p673
sg40
S'--'
p674
ssg52
(dp675
g5
S'--'
p676
sg7
S'--'
p677
sg9
g10
sg11
S'--'
p678
sg13
g14
sg15
S'--'
p679
sg16
S'2013'
p680
sg18
g52
sg20
S'--'
p681
sg22
S'09/15'
p682
sg24
S'--'
p683
sg26
S'Matt Asiata'
p684
sg28
S'--'
p685
sg30
S'L30-31'
p686
sg32
S'--'
p687
sg34
S'--'
p688
sg35
S'@CHI'
p689
sg37
S'--'
p690
sg38
S'--'
p691
sg40
S'--'
p692
ssg98
(dp693
g5
g194
sg7
g194
sg9
g194
sg11
g194
sg13
g194
sg15
g194
sg16
S'2013'
p694
sg18
g98
sg20
g194
sg22
S'Bye'
p695
sg24
g194
sg26
S'Matt Asiata'
p696
sg28
g194
sg30
g194
sg32
g194
sg34
g194
sg35
g194
sg37
g194
sg38
g194
sg40
g194
ssg167
(dp697
g5
S'--'
p698
sg7
S'--'
p699
sg9
g10
sg11
S'--'
p700
sg13
g14
sg15
S'--'
p701
sg16
S'2013'
p702
sg18
g167
sg20
S'--'
p703
sg22
S'09/29'
p704
sg24
S'--'
p705
sg26
S'Matt Asiata'
p706
sg28
S'--'
p707
sg30
S'W34-27'
p708
sg32
S'--'
p709
sg34
S'--'
p710
sg35
S'PIT'
p711
sg37
S'--'
p712
sg38
S'--'
p713
sg40
S'--'
p714
ssg57
(dp715
g5
S'--'
p716
sg7
S'--'
p717
sg9
g10
sg11
S'--'
p718
sg13
g14
sg15
S'--'
p719
sg16
S'2013'
p720
sg18
g57
sg20
S'--'
p721
sg22
S'10/21'
p722
sg24
S'--'
p723
sg26
S'Matt Asiata'
p724
sg28
S'--'
p725
sg30
S'L7-23'
p726
sg32
S'--'
p727
sg34
S'--'
p728
sg35
S'@NYG'
p729
sg37
S'--'
p730
sg38
S'--'
p731
sg40
S'--'
p732
ssg58
(dp733
g5
S'--'
p734
sg7
S'--'
p735
sg9
g10
sg11
S'--'
p736
sg13
g14
sg15
S'--'
p737
sg16
S'2013'
p738
sg18
g58
sg20
S'--'
p739
sg22
S'10/13'
p740
sg24
S'--'
p741
sg26
S'Matt Asiata'
p742
sg28
S'--'
p743
sg30
S'L10-35'
p744
sg32
S'--'
p745
sg34
S'--'
p746
sg35
S'CAR'
p747
sg37
S'--'
p748
sg38
S'--'
p749
sg40
S'--'
p750
ssg33
(dp751
g5
S'--'
p752
sg7
S'--'
p753
sg9
g10
sg11
S'--'
p754
sg13
g10
sg15
S'--'
p755
sg16
S'2013'
p756
sg18
g33
sg20
S'--'
p757
sg22
S'11/03'
p758
sg24
S'--'
p759
sg26
S'Matt Asiata'
p760
sg28
S'--'
p761
sg30
S'L23-27'
p762
sg32
S'--'
p763
sg34
S'--'
p764
sg35
S'@DAL'
p765
sg37
S'--'
p766
sg38
S'--'
p767
sg40
S'--'
p768
ssg87
(dp769
g5
S'--'
p770
sg7
S'--'
p771
sg9
g10
sg11
S'--'
p772
sg13
g10
sg15
S'--'
p773
sg16
S'2013'
p774
sg18
g87
sg20
S'--'
p775
sg22
S'10/27'
p776
sg24
S'--'
p777
sg26
S'Matt Asiata'
p778
sg28
S'--'
p779
sg30
S'L31-44'
p780
sg32
S'--'
p781
sg34
S'--'
p782
sg35
S'GB'
p783
sg37
S'--'
p784
sg38
S'--'
p785
sg40
S'--'
p786
sssS'2012'
p787
(dp788
g3
(dp789
g5
g194
sg7
g194
sg9
g194
sg11
g194
sg13
g194
sg15
g194
sg16
S'2012'
p790
sg18
S'11'
p791
sg20
g194
sg22
S'Bye'
p792
sg24
g194
sg26
S'Matt Asiata'
p793
sg28
g194
sg30
g194
sg32
g194
sg34
g194
sg35
g194
sg37
g194
sg38
g194
sg40
g194
ssg42
(dp794
g5
S'--'
p795
sg7
S'--'
p796
sg9
g10
sg11
S'--'
p797
sg13
g14
sg15
S'--'
p798
sg16
S'2012'
p799
sg18
S'10'
p800
sg20
S'--'
p801
sg22
S'11/11'
p802
sg24
S'--'
p803
sg26
S'Matt Asiata'
p804
sg28
S'--'
p805
sg30
S'W34-24'
p806
sg32
S'--'
p807
sg34
S'--'
p808
sg35
S'DET'
p809
sg37
S'--'
p810
sg38
S'--'
p811
sg40
S'--'
p812
ssg59
(dp813
g5
S'--'
p814
sg7
S'--'
p815
sg9
g10
sg11
S'--'
p816
sg13
g14
sg15
S'--'
p817
sg16
S'2012'
p818
sg18
S'13'
p819
sg20
S'--'
p820
sg22
S'12/02'
p821
sg24
S'--'
p822
sg26
S'Matt Asiata'
p823
sg28
S'--'
p824
sg30
S'L14-23'
p825
sg32
S'--'
p826
sg34
S'--'
p827
sg35
S'@GB'
p828
sg37
S'--'
p829
sg38
S'--'
p830
sg40
S'--'
p831
ssg74
(dp832
g5
S'--'
p833
sg7
S'--'
p834
sg9
g10
sg11
S'--'
p835
sg13
g14
sg15
S'--'
p836
sg16
S'2012'
p837
sg18
S'12'
p838
sg20
S'--'
p839
sg22
S'11/25'
p840
sg24
S'--'
p841
sg26
S'Matt Asiata'
p842
sg28
S'--'
p843
sg30
S'L10-28'
p844
sg32
S'--'
p845
sg34
S'--'
p846
sg35
S'@CHI'
p847
sg37
S'--'
p848
sg38
S'--'
p849
sg40
S'--'
p850
ssg88
(dp851
g5
S'--'
p852
sg7
S'--'
p853
sg9
g10
sg11
S'--'
p854
sg13
g14
sg15
S'--'
p855
sg16
S'2012'
p856
sg18
S'15'
p857
sg20
S'--'
p858
sg22
S'12/16'
p859
sg24
S'--'
p860
sg26
S'Matt Asiata'
p861
sg28
S'--'
p862
sg30
S'W36-22'
p863
sg32
S'--'
p864
sg34
S'--'
p865
sg35
S'@STL'
p866
sg37
S'--'
p867
sg38
S'--'
p868
sg40
S'--'
p869
ssg103
(dp870
g5
S'--'
p871
sg7
S'--'
p872
sg9
g10
sg11
S'--'
p873
sg13
g14
sg15
S'--'
p874
sg16
S'2012'
p875
sg18
S'14'
p876
sg20
S'--'
p877
sg22
S'12/09'
p878
sg24
S'--'
p879
sg26
S'Matt Asiata'
p880
sg28
S'--'
p881
sg30
S'W21-14'
p882
sg32
S'--'
p883
sg34
S'--'
p884
sg35
S'CHI'
p885
sg37
S'--'
p886
sg38
S'--'
p887
sg40
S'--'
p888
ssg121
(dp889
g5
S'--'
p890
sg7
S'--'
p891
sg9
g10
sg11
S'--'
p892
sg13
g14
sg15
S'--'
p893
sg16
S'2012'
p894
sg18
S'17'
p895
sg20
S'--'
p896
sg22
S'12/30'
p897
sg24
S'--'
p898
sg26
S'Matt Asiata'
p899
sg28
S'--'
p900
sg30
S'W37-34'
p901
sg32
S'--'
p902
sg34
S'--'
p903
sg35
S'GB'
p904
sg37
S'--'
p905
sg38
S'--'
p906
sg40
S'--'
p907
ssg141
(dp908
g5
S'--'
p909
sg7
S'--'
p910
sg9
g10
sg11
S'--'
p911
sg13
g14
sg15
S'--'
p912
sg16
S'2012'
p913
sg18
S'16'
p914
sg20
S'1.0'
p915
sg22
S'12/23'
p916
sg24
g10
sg26
S'Matt Asiata'
p917
sg28
g14
sg30
S'W23-6'
p918
sg32
S'--'
p919
sg34
S'--'
p920
sg35
S'@HOU'
p921
sg37
S'--'
p922
sg38
g14
sg40
g14
ssg14
(dp923
g5
S'2.0'
p924
sg7
S'--'
p925
sg9
g10
sg11
S'--'
p926
sg13
g14
sg15
g10
sg16
S'2012'
p927
sg18
g14
sg20
S'--'
p928
sg22
S'09/09'
p929
sg24
S'--'
p930
sg26
S'Matt Asiata'
p931
sg28
S'--'
p932
sg30
S'W26-23'
p933
sg32
g52
sg34
g14
sg35
S'JAC'
p934
sg37
g52
sg38
S'--'
p935
sg40
S'--'
p936
ssg73
(dp937
g5
S'--'
p938
sg7
S'--'
p939
sg9
g10
sg11
S'--'
p940
sg13
g14
sg15
S'--'
p941
sg16
S'2012'
p942
sg18
g73
sg20
S'--'
p943
sg22
S'09/23'
p944
sg24
S'--'
p945
sg26
S'Matt Asiata'
p946
sg28
S'--'
p947
sg30
S'W24-13'
p948
sg32
S'--'
p949
sg34
S'--'
p950
sg35
S'SF'
p951
sg37
S'--'
p952
sg38
S'--'
p953
sg40
S'--'
p954
ssg52
(dp955
g5
S'--'
p956
sg7
S'--'
p957
sg9
g10
sg11
S'--'
p958
sg13
g14
sg15
S'--'
p959
sg16
S'2012'
p960
sg18
g52
sg20
S'--'
p961
sg22
S'09/16'
p962
sg24
S'--'
p963
sg26
S'Matt Asiata'
p964
sg28
S'--'
p965
sg30
S'L20-23'
p966
sg32
S'--'
p967
sg34
S'--'
p968
sg35
S'@IND'
p969
sg37
S'--'
p970
sg38
S'--'
p971
sg40
S'--'
p972
ssg98
(dp973
g5
S'--'
p974
sg7
S'--'
p975
sg9
g10
sg11
S'--'
p976
sg13
g14
sg15
S'--'
p977
sg16
S'2012'
p978
sg18
g98
sg20
S'4.0'
p979
sg22
S'10/07'
p980
sg24
g10
sg26
S'Matt Asiata'
p981
sg28
g52
sg30
S'W30-7'
p982
sg32
S'--'
p983
sg34
S'--'
p984
sg35
S'TEN'
p985
sg37
S'--'
p986
sg38
g87
sg40
g98
ssg167
(dp987
g5
S'--'
p988
sg7
S'--'
p989
sg9
g10
sg11
S'--'
p990
sg13
g14
sg15
S'--'
p991
sg16
S'2012'
p992
sg18
g167
sg20
S'--'
p993
sg22
S'09/30'
p994
sg24
S'--'
p995
sg26
S'Matt Asiata'
p996
sg28
S'--'
p997
sg30
S'W20-13'
p998
sg32
S'--'
p999
sg34
S'--'
p1000
sg35
S'@DET'
p1001
sg37
S'--'
p1002
sg38
S'--'
p1003
sg40
S'--'
p1004
ssg57
(dp1005
g5
S'--'
p1006
sg7
S'--'
p1007
sg9
g10
sg11
S'--'
p1008
sg13
g14
sg15
S'--'
p1009
sg16
S'2012'
p1010
sg18
g57
sg20
S'--'
p1011
sg22
S'10/21'
p1012
sg24
S'--'
p1013
sg26
S'Matt Asiata'
p1014
sg28
S'--'
p1015
sg30
S'W21-14'
p1016
sg32
S'--'
p1017
sg34
S'--'
p1018
sg35
S'ARI'
p1019
sg37
S'--'
p1020
sg38
S'--'
p1021
sg40
S'--'
p1022
ssg58
(dp1023
g5
S'--'
p1024
sg7
S'--'
p1025
sg9
g10
sg11
S'--'
p1026
sg13
g14
sg15
S'--'
p1027
sg16
S'2012'
p1028
sg18
g58
sg20
S'--'
p1029
sg22
S'10/14'
p1030
sg24
S'--'
p1031
sg26
S'Matt Asiata'
p1032
sg28
S'--'
p1033
sg30
S'L26-38'
p1034
sg32
S'--'
p1035
sg34
S'--'
p1036
sg35
S'@WAS'
p1037
sg37
S'--'
p1038
sg38
S'--'
p1039
sg40
S'--'
p1040
ssg33
(dp1041
g5
S'--'
p1042
sg7
S'--'
p1043
sg9
g10
sg11
S'--'
p1044
sg13
g14
sg15
S'--'
p1045
sg16
S'2012'
p1046
sg18
g33
sg20
S'--'
p1047
sg22
S'11/04'
p1048
sg24
S'--'
p1049
sg26
S'Matt Asiata'
p1050
sg28
S'--'
p1051
sg30
S'L20-30'
p1052
sg32
S'--'
p1053
sg34
S'--'
p1054
sg35
S'@SEA'
p1055
sg37
S'--'
p1056
sg38
S'--'
p1057
sg40
S'--'
p1058
ssg87
(dp1059
g5
S'--'
p1060
sg7
S'--'
p1061
sg9
g10
sg11
S'--'
p1062
sg13
g14
sg15
S'--'
p1063
sg16
S'2012'
p1064
sg18
g87
sg20
S'--'
p1065
sg22
S'10/25'
p1066
sg24
S'--'
p1067
sg26
S'Matt Asiata'
p1068
sg28
S'--'
p1069
sg30
S'L17-36'
p1070
sg32
S'--'
p1071
sg34
S'--'
p1072
sg35
S'TB'
p1073
sg37
S'--'
p1074
sg38
S'--'
p1075
sg40
S'--'
p1076
sss.