(dp0
S'2015'
p1
(dp2
S'11'
p3
(dp4
S'RecAvg'
p5
S'12.0'
p6
sS'FUM'
p7
S'--'
p8
sS'GS'
p9
S'1'
p10
sS'Lost'
p11
S'--'
p12
sS'G'
p13
g10
sS'RecTD'
p14
S'0'
p15
sS'Year'
p16
S'2015'
p17
sS'WK'
p18
S'11'
p19
sS'RushAvg'
p20
S'2.5'
p21
sS'Game Date'
p22
S'11/22'
p23
sS'RushTD'
p24
g15
sS'Player'
p25
S'Melvin Gordon'
p26
sS'RushAtt'
p27
S'15'
p28
sS'Result'
p29
S'L3-33'
p30
sS'RecYds'
p31
S'12'
p32
sS'Rec'
p33
g10
sS'Opp'
p34
S'KC'
p35
sS'RecLng'
p36
S'12'
p37
sS'RushYds'
p38
S'37'
p39
sS'RushLng'
p40
S'10'
p41
ssS'10'
p42
(dp43
g5
S''
p44
sg7
g44
sg9
g44
sg11
g44
sg13
g44
sg14
g44
sg16
S'2015'
p45
sg18
S'10'
p46
sg20
g44
sg22
S'Bye'
p47
sg24
g44
sg25
S'Melvin Gordon'
p48
sg27
g44
sg29
g44
sg31
g44
sg33
g44
sg34
g44
sg36
g44
sg38
g44
sg40
g44
ssS'13'
p49
(dp50
g5
S'8.0'
p51
sg7
S'2'
p52
sg9
g10
sg11
g10
sg13
g10
sg14
g15
sg16
S'2015'
p53
sg18
S'13'
p54
sg20
S'4.6'
p55
sg22
S'12/06'
p56
sg24
g15
sg25
S'Melvin Gordon'
p57
sg27
S'12'
p58
sg29
S'L3-17'
p59
sg31
S'8'
p60
sg33
g10
sg34
S'DEN'
p61
sg36
g60
sg38
S'55'
p62
sg40
S'21'
p63
ssS'12'
p64
(dp65
g5
S'4.0'
p66
sg7
S'--'
p67
sg9
g15
sg11
S'--'
p68
sg13
g10
sg14
g15
sg16
S'2015'
p69
sg18
S'12'
p70
sg20
S'4.3'
p71
sg22
S'11/29'
p72
sg24
g15
sg25
S'Melvin Gordon'
p73
sg27
S'14'
p74
sg29
S'W31-25'
p75
sg31
S'20'
p76
sg33
S'5'
p77
sg34
S'@JAC'
p78
sg36
S'16'
p79
sg38
S'60'
p80
sg40
S'14'
p81
ssS'15'
p82
(dp83
g5
S'6.0'
p84
sg7
S'--'
p85
sg9
g10
sg11
S'--'
p86
sg13
g10
sg14
g15
sg16
S'2015'
p87
sg18
S'15'
p88
sg20
S'2.7'
p89
sg22
S'12/20'
p90
sg24
g15
sg25
S'Melvin Gordon'
p91
sg27
S'15'
p92
sg29
S'W30-14'
p93
sg31
S'6'
p94
sg33
g10
sg34
S'MIA'
p95
sg36
g94
sg38
S'41'
p96
sg40
S'10'
p97
ssS'14'
p98
(dp99
g5
S'7.0'
p100
sg7
S'--'
p101
sg9
g10
sg11
S'--'
p102
sg13
g10
sg14
g15
sg16
S'2015'
p103
sg18
S'14'
p104
sg20
S'2.5'
p105
sg22
S'12/13'
p106
sg24
g15
sg25
S'Melvin Gordon'
p107
sg27
S'14'
p108
sg29
S'L3-10'
p109
sg31
S'28'
p110
sg33
S'4'
p111
sg34
S'@KC'
p112
sg36
S'15'
p113
sg38
S'35'
p114
sg40
S'10'
p115
ssg10
(dp116
g5
S'5.3'
p117
sg7
g10
sg9
g10
sg11
g10
sg13
g10
sg14
g15
sg16
S'2015'
p118
sg18
g10
sg20
S'3.6'
p119
sg22
S'09/13'
p120
sg24
g15
sg25
S'Melvin Gordon'
p121
sg27
S'14'
p122
sg29
S'W33-28'
p123
sg31
S'16'
p124
sg33
S'3'
p125
sg34
S'DET'
p126
sg36
S'9'
p127
sg38
S'51'
p128
sg40
S'14'
p129
ssg125
(dp130
g5
S'--'
p131
sg7
S'--'
p132
sg9
g10
sg11
S'--'
p133
sg13
g10
sg14
g15
sg16
S'2015'
p134
sg18
g125
sg20
S'3.6'
p135
sg22
S'09/27'
p136
sg24
g15
sg25
S'Melvin Gordon'
p137
sg27
S'14'
p138
sg29
S'L14-31'
p139
sg31
g15
sg33
g15
sg34
S'@MIN'
p140
sg36
S'--'
p141
sg38
S'51'
p142
sg40
S'13'
p143
ssg52
(dp144
g5
S'10.0'
p145
sg7
S'--'
p146
sg9
g10
sg11
S'--'
p147
sg13
g10
sg14
g15
sg16
S'2015'
p148
sg18
g52
sg20
S'5.5'
p149
sg22
S'09/20'
p150
sg24
g15
sg25
S'Melvin Gordon'
p151
sg27
S'16'
p152
sg29
S'L19-24'
p153
sg31
S'10'
p154
sg33
g10
sg34
S'@CIN'
p155
sg36
S'10'
p156
sg38
S'88'
p157
sg40
S'27'
p158
ssg77
(dp159
g5
S'7.4'
p160
sg7
g10
sg9
g10
sg11
g10
sg13
g10
sg14
g15
sg16
S'2015'
p161
sg18
g77
sg20
S'2.8'
p162
sg22
S'10/12'
p163
sg24
g15
sg25
S'Melvin Gordon'
p164
sg27
S'15'
p165
sg29
S'L20-24'
p166
sg31
S'52'
p167
sg33
S'7'
p168
sg34
S'PIT'
p169
sg36
S'18'
p170
sg38
S'42'
p171
sg40
g168
ssg111
(dp172
g5
S'4.0'
p173
sg7
S'--'
p174
sg9
g10
sg11
S'--'
p175
sg13
g10
sg14
g15
sg16
S'2015'
p176
sg18
g111
sg20
S'3.2'
p177
sg22
S'10/04'
p178
sg24
g15
sg25
S'Melvin Gordon'
p179
sg27
S'12'
p180
sg29
S'W30-27'
p181
sg31
g60
sg33
g52
sg34
S'CLE'
p182
sg36
g77
sg38
S'38'
p183
sg40
S'23'
p184
ssg168
(dp185
g5
S'--'
p186
sg7
S'--'
p187
sg9
g15
sg11
S'--'
p188
sg13
g10
sg14
S'--'
p189
sg16
S'2015'
p190
sg18
g168
sg20
S'4.1'
p191
sg22
S'10/25'
p192
sg24
g15
sg25
S'Melvin Gordon'
p193
sg27
g168
sg29
S'L29-37'
p194
sg31
S'--'
p195
sg33
S'--'
p196
sg34
S'OAK'
p197
sg36
S'--'
p198
sg38
S'29'
p199
sg40
S'11'
p200
ssg94
(dp201
g5
S'--'
p202
sg7
g52
sg9
g10
sg11
g10
sg13
g10
sg14
S'--'
p203
sg16
S'2015'
p204
sg18
g94
sg20
S'4.1'
p205
sg22
S'10/18'
p206
sg24
g15
sg25
S'Melvin Gordon'
p207
sg27
g168
sg29
S'L20-27'
p208
sg31
S'--'
p209
sg33
S'--'
p210
sg34
S'@GB'
p211
sg36
S'--'
p212
sg38
S'29'
p213
sg40
S'25'
p214
ssg127
(dp215
g5
S'8.3'
p216
sg7
S'--'
p217
sg9
g10
sg11
S'--'
p218
sg13
g10
sg14
g15
sg16
S'2015'
p219
sg18
g127
sg20
S'2.8'
p220
sg22
S'11/09'
p221
sg24
g15
sg25
S'Melvin Gordon'
p222
sg27
S'11'
p223
sg29
S'L19-22'
p224
sg31
S'25'
p225
sg33
g125
sg34
S'CHI'
p226
sg36
S'15'
p227
sg38
S'31'
p228
sg40
g77
ssg60
(dp229
g5
S'1.4'
p230
sg7
S'--'
p231
sg9
g10
sg11
S'--'
p232
sg13
g10
sg14
g15
sg16
S'2015'
p233
sg18
g60
sg20
S'3.0'
p234
sg22
S'11/01'
p235
sg24
g15
sg25
S'Melvin Gordon'
p236
sg27
S'18'
p237
sg29
S'L26-29'
p238
sg31
g168
sg33
g77
sg34
S'@BAL'
p239
sg36
g111
sg38
S'54'
p240
sg40
g94
sss.