(dp0
S'2015'
p1
(dp2
S'11'
p3
(dp4
S'RecAvg'
p5
S'--'
p6
sS'FUM'
p7
S'--'
p8
sS'GS'
p9
S'0'
p10
sS'Lost'
p11
S'--'
p12
sS'G'
p13
S'1'
p14
sS'RecTD'
p15
S'--'
p16
sS'Year'
p17
S'2015'
p18
sS'WK'
p19
S'11'
p20
sS'RushAvg'
p21
S'--'
p22
sS'Game Date'
p23
S'11/22'
p24
sS'RushTD'
p25
S'--'
p26
sS'Player'
p27
S'Michael Burton'
p28
sS'RushAtt'
p29
S'--'
p30
sS'Result'
p31
S'W18-13'
p32
sS'RecYds'
p33
S'--'
p34
sS'Rec'
p35
S'--'
p36
sS'Opp'
p37
S'OAK'
p38
sS'RecLng'
p39
S'--'
p40
sS'RushYds'
p41
S'--'
p42
sS'RushLng'
p43
S'--'
p44
ssS'10'
p45
(dp46
g5
S'--'
p47
sg7
S'--'
p48
sg9
g10
sg11
S'--'
p49
sg13
g14
sg15
S'--'
p50
sg17
S'2015'
p51
sg19
S'10'
p52
sg21
S'0.0'
p53
sg23
S'11/15'
p54
sg25
g10
sg27
S'Michael Burton'
p55
sg29
g14
sg31
S'W18-16'
p56
sg33
S'--'
p57
sg35
S'--'
p58
sg37
S'@GB'
p59
sg39
S'--'
p60
sg41
g10
sg43
g10
ssS'13'
p61
(dp62
g5
S'--'
p63
sg7
S'--'
p64
sg9
g10
sg11
S'--'
p65
sg13
g14
sg15
S'--'
p66
sg17
S'2015'
p67
sg19
S'13'
p68
sg21
S'--'
p69
sg23
S'12/03'
p70
sg25
S'--'
p71
sg27
S'Michael Burton'
p72
sg29
S'--'
p73
sg31
S'L23-27'
p74
sg33
S'--'
p75
sg35
S'--'
p76
sg37
S'GB'
p77
sg39
S'--'
p78
sg41
S'--'
p79
sg43
S'--'
p80
ssS'12'
p81
(dp82
g5
S'--'
p83
sg7
S'--'
p84
sg9
g10
sg11
S'--'
p85
sg13
g14
sg15
S'--'
p86
sg17
S'2015'
p87
sg19
S'12'
p88
sg21
S'--'
p89
sg23
S'11/26'
p90
sg25
S'--'
p91
sg27
S'Michael Burton'
p92
sg29
S'--'
p93
sg31
S'W45-14'
p94
sg33
S'--'
p95
sg35
S'--'
p96
sg37
S'PHI'
p97
sg39
S'--'
p98
sg41
S'--'
p99
sg43
S'--'
p100
ssS'15'
p101
(dp102
g5
S'5.0'
p103
sg7
S'--'
p104
sg9
g10
sg11
S'--'
p105
sg13
g14
sg15
g14
sg17
S'2015'
p106
sg19
S'15'
p107
sg21
S'--'
p108
sg23
S'12/21'
p109
sg25
S'--'
p110
sg27
S'Michael Burton'
p111
sg29
S'--'
p112
sg31
S'W35-27'
p113
sg33
S'10'
p114
sg35
S'2'
p115
sg37
S'@NO'
p116
sg39
S'6'
p117
sg41
S'--'
p118
sg43
S'--'
p119
ssS'14'
p120
(dp121
g5
S'12.0'
p122
sg7
S'--'
p123
sg9
g14
sg11
S'--'
p124
sg13
g14
sg15
g10
sg17
S'2015'
p125
sg19
S'14'
p126
sg21
S'--'
p127
sg23
S'12/13'
p128
sg25
S'--'
p129
sg27
S'Michael Burton'
p130
sg29
S'--'
p131
sg31
S'L14-21'
p132
sg33
S'12'
p133
sg35
g14
sg37
S'@STL'
p134
sg39
S'12'
p135
sg41
S'--'
p136
sg43
S'--'
p137
ssS'17'
p138
(dp139
g5
S'8.0'
p140
sg7
S'--'
p141
sg9
g10
sg11
S'--'
p142
sg13
g14
sg15
g10
sg17
S'2015'
p143
sg19
S'17'
p144
sg21
S'--'
p145
sg23
S'01/03'
p146
sg25
S'--'
p147
sg27
S'Michael Burton'
p148
sg29
S'--'
p149
sg31
S'W24-20'
p150
sg33
S'8'
p151
sg35
g14
sg37
S'@CHI'
p152
sg39
g151
sg41
S'--'
p153
sg43
S'--'
p154
ssS'16'
p155
(dp156
g5
S'--'
p157
sg7
S'--'
p158
sg9
g10
sg11
S'--'
p159
sg13
g14
sg15
S'--'
p160
sg17
S'2015'
p161
sg19
S'16'
p162
sg21
S'--'
p163
sg23
S'12/27'
p164
sg25
S'--'
p165
sg27
S'Michael Burton'
p166
sg29
S'--'
p167
sg31
S'W32-17'
p168
sg33
S'--'
p169
sg35
S'--'
p170
sg37
S'SF'
p171
sg39
S'--'
p172
sg41
S'--'
p173
sg43
S'--'
p174
ssg14
(dp175
g5
S'--'
p176
sg7
S'--'
p177
sg9
g14
sg11
S'--'
p178
sg13
g14
sg15
S'--'
p179
sg17
S'2015'
p180
sg19
g14
sg21
S'--'
p181
sg23
S'09/13'
p182
sg25
S'--'
p183
sg27
S'Michael Burton'
p184
sg29
S'--'
p185
sg31
S'L28-33'
p186
sg33
S'--'
p187
sg35
S'--'
p188
sg37
S'@SD'
p189
sg39
S'--'
p190
sg41
S'--'
p191
sg43
S'--'
p192
ssS'3'
p193
(dp194
g5
S'--'
p195
sg7
S'--'
p196
sg9
g14
sg11
S'--'
p197
sg13
g14
sg15
S'--'
p198
sg17
S'2015'
p199
sg19
g193
sg21
S'--'
p200
sg23
S'09/27'
p201
sg25
S'--'
p202
sg27
S'Michael Burton'
p203
sg29
S'--'
p204
sg31
S'L12-24'
p205
sg33
S'--'
p206
sg35
S'--'
p207
sg37
S'DEN'
p208
sg39
S'--'
p209
sg41
S'--'
p210
sg43
S'--'
p211
ssg115
(dp212
g5
S'--'
p213
sg7
S'--'
p214
sg9
g14
sg11
S'--'
p215
sg13
g14
sg15
S'--'
p216
sg17
S'2015'
p217
sg19
g115
sg21
S'2.0'
p218
sg23
S'09/20'
p219
sg25
g10
sg27
S'Michael Burton'
p220
sg29
g14
sg31
S'L16-26'
p221
sg33
S'--'
p222
sg35
S'--'
p223
sg37
S'@MIN'
p224
sg39
S'--'
p225
sg41
g115
sg43
g115
ssS'5'
p226
(dp227
g5
S'6.0'
p228
sg7
S'--'
p229
sg9
g14
sg11
S'--'
p230
sg13
g14
sg15
g10
sg17
S'2015'
p231
sg19
g226
sg21
S'--'
p232
sg23
S'10/11'
p233
sg25
S'--'
p234
sg27
S'Michael Burton'
p235
sg29
S'--'
p236
sg31
S'L17-42'
p237
sg33
g117
sg35
g14
sg37
S'ARI'
p238
sg39
g117
sg41
S'--'
p239
sg43
S'--'
p240
ssS'4'
p241
(dp242
g5
S'3.0'
p243
sg7
S'--'
p244
sg9
g14
sg11
S'--'
p245
sg13
g14
sg15
g10
sg17
S'2015'
p246
sg19
g241
sg21
S'0.0'
p247
sg23
S'10/05'
p248
sg25
g10
sg27
S'Michael Burton'
p249
sg29
g14
sg31
S'L10-13'
p250
sg33
g193
sg35
g14
sg37
S'@SEA'
p251
sg39
g193
sg41
g10
sg43
g10
ssS'7'
p252
(dp253
g5
S'--'
p254
sg7
S'--'
p255
sg9
g14
sg11
S'--'
p256
sg13
g14
sg15
S'--'
p257
sg17
S'2015'
p258
sg19
g252
sg21
S'0.0'
p259
sg23
S'10/25'
p260
sg25
g10
sg27
S'Michael Burton'
p261
sg29
g14
sg31
S'L19-28'
p262
sg33
S'--'
p263
sg35
S'--'
p264
sg37
S'MIN'
p265
sg39
S'--'
p266
sg41
g10
sg43
g10
ssg117
(dp267
g5
S'--'
p268
sg7
S'--'
p269
sg9
g10
sg11
S'--'
p270
sg13
g14
sg15
S'--'
p271
sg17
S'2015'
p272
sg19
g117
sg21
S'--'
p273
sg23
S'10/18'
p274
sg25
S'--'
p275
sg27
S'Michael Burton'
p276
sg29
S'--'
p277
sg31
S'W37-34'
p278
sg33
S'--'
p279
sg35
S'--'
p280
sg37
S'CHI'
p281
sg39
S'--'
p282
sg41
S'--'
p283
sg43
S'--'
p284
ssS'9'
p285
(dp286
g5
S''
p287
sg7
g287
sg9
g287
sg11
g287
sg13
g287
sg15
g287
sg17
S'2015'
p288
sg19
g285
sg21
g287
sg23
S'Bye'
p289
sg25
g287
sg27
S'Michael Burton'
p290
sg29
g287
sg31
g287
sg33
g287
sg35
g287
sg37
g287
sg39
g287
sg41
g287
sg43
g287
ssg151
(dp291
g5
S'--'
p292
sg7
S'--'
p293
sg9
g10
sg11
S'--'
p294
sg13
g14
sg15
S'--'
p295
sg17
S'2015'
p296
sg19
g151
sg21
S'--'
p297
sg23
S'11/01'
p298
sg25
S'--'
p299
sg27
S'Michael Burton'
p300
sg29
S'--'
p301
sg31
S'L10-45'
p302
sg33
S'--'
p303
sg35
S'--'
p304
sg37
S'@KC'
p305
sg39
S'--'
p306
sg41
S'--'
p307
sg43
S'--'
p308
sss.