(dp0
S'2015'
p1
(dp2
S'13'
p3
(dp4
S'RecAvg'
p5
S'5.0'
p6
sS'FUM'
p7
S'--'
p8
sS'GS'
p9
S'0'
p10
sS'Lost'
p11
S'--'
p12
sS'G'
p13
S'1'
p14
sS'RecTD'
p15
g10
sS'Year'
p16
S'2015'
p17
sS'WK'
p18
S'13'
p19
sS'RushAvg'
p20
S'5.9'
p21
sS'Game Date'
p22
S'12/06'
p23
sS'RushTD'
p24
g10
sS'Player'
p25
S'Mike Gillislee'
p26
sS'RushAtt'
p27
S'7'
p28
sS'Result'
p29
S'W30-21'
p30
sS'RecYds'
p31
S'5'
p32
sS'Rec'
p33
g14
sS'Opp'
p34
S'HOU'
p35
sS'RecLng'
p36
g32
sS'RushYds'
p37
S'41'
p38
sS'RushLng'
p39
S'30'
p40
ssS'15'
p41
(dp42
g5
S'1.0'
p43
sg7
S'--'
p44
sg9
g10
sg11
S'--'
p45
sg13
g14
sg15
g10
sg16
S'2015'
p46
sg18
S'15'
p47
sg20
S'20.3'
p48
sg22
S'12/20'
p49
sg24
g14
sg25
S'Mike Gillislee'
p50
sg27
S'4'
p51
sg29
S'L25-35'
p52
sg31
S'2'
p53
sg33
g53
sg34
S'@WAS'
p54
sg36
g53
sg37
S'81'
p55
sg39
S'60T'
p56
ssS'14'
p57
(dp58
g5
S'6.0'
p59
sg7
S'--'
p60
sg9
g10
sg11
S'--'
p61
sg13
g14
sg15
g10
sg16
S'2015'
p62
sg18
S'14'
p63
sg20
S'8.0'
p64
sg22
S'12/13'
p65
sg24
g14
sg25
S'Mike Gillislee'
p66
sg27
S'3'
p67
sg29
S'L20-23'
p68
sg31
S'6'
p69
sg33
g14
sg34
S'@PHI'
p70
sg36
g69
sg37
S'24'
p71
sg39
S'19T'
p72
ssS'17'
p73
(dp74
g5
S'--'
p75
sg7
g14
sg9
g10
sg11
g14
sg13
g14
sg15
g10
sg16
S'2015'
p76
sg18
S'17'
p77
sg20
S'1.2'
p78
sg22
S'01/03'
p79
sg24
g10
sg25
S'Mike Gillislee'
p80
sg27
S'24'
p81
sg29
S'W22-17'
p82
sg31
g10
sg33
g10
sg34
S'NYJ'
p83
sg36
S'--'
p84
sg37
S'28'
p85
sg39
S'9'
p86
ssS'16'
p87
(dp88
g5
S'8.0'
p89
sg7
S'--'
p90
sg9
g14
sg11
S'--'
p91
sg13
g14
sg15
g10
sg16
S'2015'
p92
sg18
S'16'
p93
sg20
S'10.3'
p94
sg22
S'12/27'
p95
sg24
g14
sg25
S'Mike Gillislee'
p96
sg27
g86
sg29
S'W16-6'
p97
sg31
S'16'
p98
sg33
g53
sg34
S'DAL'
p99
sg36
S'14'
p100
sg37
S'93'
p101
sg39
S'50T'
p102
sssS'2013'
p103
(dp104
S'11'
p105
(dp106
g5
S'--'
p107
sg7
S'--'
p108
sg9
g10
sg11
S'--'
p109
sg13
g10
sg15
S'--'
p110
sg16
S'2013'
p111
sg18
S'11'
p112
sg20
S'--'
p113
sg22
S'11/17'
p114
sg24
S'--'
p115
sg25
S'Mike Gillislee'
p116
sg27
S'--'
p117
sg29
S'W20-16'
p118
sg31
S'--'
p119
sg33
S'--'
p120
sg34
S'SD'
p121
sg36
S'--'
p122
sg37
S'--'
p123
sg39
S'--'
p124
ssS'10'
p125
(dp126
g5
S'--'
p127
sg7
S'--'
p128
sg9
g10
sg11
S'--'
p129
sg13
g10
sg15
S'--'
p130
sg16
S'2013'
p131
sg18
S'10'
p132
sg20
S'--'
p133
sg22
S'11/11'
p134
sg24
S'--'
p135
sg25
S'Mike Gillislee'
p136
sg27
S'--'
p137
sg29
S'L19-22'
p138
sg31
S'--'
p139
sg33
S'--'
p140
sg34
S'@TB'
p141
sg36
S'--'
p142
sg37
S'--'
p143
sg39
S'--'
p144
ssg3
(dp145
g5
S'--'
p146
sg7
S'--'
p147
sg9
g10
sg11
S'--'
p148
sg13
g14
sg15
S'--'
p149
sg16
S'2013'
p150
sg18
S'13'
p151
sg20
S'3.5'
p152
sg22
S'12/01'
p153
sg24
g10
sg25
S'Mike Gillislee'
p154
sg27
g69
sg29
S'W23-3'
p155
sg31
S'--'
p156
sg33
S'--'
p157
sg34
S'@NYJ'
p158
sg36
S'--'
p159
sg37
S'21'
p160
sg39
g69
ssS'12'
p161
(dp162
g5
S'--'
p163
sg7
S'--'
p164
sg9
g10
sg11
S'--'
p165
sg13
g10
sg15
S'--'
p166
sg16
S'2013'
p167
sg18
S'12'
p168
sg20
S'--'
p169
sg22
S'11/24'
p170
sg24
S'--'
p171
sg25
S'Mike Gillislee'
p172
sg27
S'--'
p173
sg29
S'L16-20'
p174
sg31
S'--'
p175
sg33
S'--'
p176
sg34
S'CAR'
p177
sg36
S'--'
p178
sg37
S'--'
p179
sg39
S'--'
p180
ssg41
(dp181
g5
S'--'
p182
sg7
S'--'
p183
sg9
g10
sg11
S'--'
p184
sg13
g14
sg15
S'--'
p185
sg16
S'2013'
p186
sg18
S'15'
p187
sg20
S'--'
p188
sg22
S'12/15'
p189
sg24
S'--'
p190
sg25
S'Mike Gillislee'
p191
sg27
S'--'
p192
sg29
S'W24-20'
p193
sg31
S'--'
p194
sg33
S'--'
p195
sg34
S'NE'
p196
sg36
S'--'
p197
sg37
S'--'
p198
sg39
S'--'
p199
ssg57
(dp200
g5
S'--'
p201
sg7
S'--'
p202
sg9
g10
sg11
S'--'
p203
sg13
g14
sg15
S'--'
p204
sg16
S'2013'
p205
sg18
S'14'
p206
sg20
S'--'
p207
sg22
S'12/08'
p208
sg24
S'--'
p209
sg25
S'Mike Gillislee'
p210
sg27
S'--'
p211
sg29
S'W34-28'
p212
sg31
S'--'
p213
sg33
S'--'
p214
sg34
S'@PIT'
p215
sg36
S'--'
p216
sg37
S'--'
p217
sg39
S'--'
p218
ssg73
(dp219
g5
S'--'
p220
sg7
S'--'
p221
sg9
g10
sg11
S'--'
p222
sg13
g10
sg15
S'--'
p223
sg16
S'2013'
p224
sg18
S'17'
p225
sg20
S'--'
p226
sg22
S'12/29'
p227
sg24
S'--'
p228
sg25
S'Mike Gillislee'
p229
sg27
S'--'
p230
sg29
S'L7-20'
p231
sg31
S'--'
p232
sg33
S'--'
p233
sg34
S'NYJ'
p234
sg36
S'--'
p235
sg37
S'--'
p236
sg39
S'--'
p237
ssg87
(dp238
g5
S'--'
p239
sg7
S'--'
p240
sg9
g10
sg11
S'--'
p241
sg13
g10
sg15
S'--'
p242
sg16
S'2013'
p243
sg18
S'16'
p244
sg20
S'--'
p245
sg22
S'12/22'
p246
sg24
S'--'
p247
sg25
S'Mike Gillislee'
p248
sg27
S'--'
p249
sg29
S'L0-19'
p250
sg31
S'--'
p251
sg33
S'--'
p252
sg34
S'@BUF'
p253
sg36
S'--'
p254
sg37
S'--'
p255
sg39
S'--'
p256
ssg14
(dp257
g5
S'--'
p258
sg7
S'--'
p259
sg9
g10
sg11
S'--'
p260
sg13
g10
sg15
S'--'
p261
sg16
S'2013'
p262
sg18
g14
sg20
S'--'
p263
sg22
S'09/08'
p264
sg24
S'--'
p265
sg25
S'Mike Gillislee'
p266
sg27
S'--'
p267
sg29
S'W23-10'
p268
sg31
S'--'
p269
sg33
S'--'
p270
sg34
S'@CLE'
p271
sg36
S'--'
p272
sg37
S'--'
p273
sg39
S'--'
p274
ssg67
(dp275
g5
S'--'
p276
sg7
S'--'
p277
sg9
g10
sg11
S'--'
p278
sg13
g10
sg15
S'--'
p279
sg16
S'2013'
p280
sg18
g67
sg20
S'--'
p281
sg22
S'09/22'
p282
sg24
S'--'
p283
sg25
S'Mike Gillislee'
p284
sg27
S'--'
p285
sg29
S'W27-23'
p286
sg31
S'--'
p287
sg33
S'--'
p288
sg34
S'ATL'
p289
sg36
S'--'
p290
sg37
S'--'
p291
sg39
S'--'
p292
ssg53
(dp293
g5
S'--'
p294
sg7
S'--'
p295
sg9
g10
sg11
S'--'
p296
sg13
g10
sg15
S'--'
p297
sg16
S'2013'
p298
sg18
g53
sg20
S'--'
p299
sg22
S'09/15'
p300
sg24
S'--'
p301
sg25
S'Mike Gillislee'
p302
sg27
S'--'
p303
sg29
S'W24-20'
p304
sg31
S'--'
p305
sg33
S'--'
p306
sg34
S'@IND'
p307
sg36
S'--'
p308
sg37
S'--'
p309
sg39
S'--'
p310
ssg32
(dp311
g5
S'--'
p312
sg7
S'--'
p313
sg9
g10
sg11
S'--'
p314
sg13
g10
sg15
S'--'
p315
sg16
S'2013'
p316
sg18
g32
sg20
S'--'
p317
sg22
S'10/06'
p318
sg24
S'--'
p319
sg25
S'Mike Gillislee'
p320
sg27
S'--'
p321
sg29
S'L23-26'
p322
sg31
S'--'
p323
sg33
S'--'
p324
sg34
S'BAL'
p325
sg36
S'--'
p326
sg37
S'--'
p327
sg39
S'--'
p328
ssg51
(dp329
g5
S'--'
p330
sg7
S'--'
p331
sg9
g10
sg11
S'--'
p332
sg13
g10
sg15
S'--'
p333
sg16
S'2013'
p334
sg18
g51
sg20
S'--'
p335
sg22
S'09/30'
p336
sg24
S'--'
p337
sg25
S'Mike Gillislee'
p338
sg27
S'--'
p339
sg29
S'L17-38'
p340
sg31
S'--'
p341
sg33
S'--'
p342
sg34
S'@NO'
p343
sg36
S'--'
p344
sg37
S'--'
p345
sg39
S'--'
p346
ssg28
(dp347
g5
S'--'
p348
sg7
S'--'
p349
sg9
g10
sg11
S'--'
p350
sg13
g10
sg15
S'--'
p351
sg16
S'2013'
p352
sg18
g28
sg20
S'--'
p353
sg22
S'10/20'
p354
sg24
S'--'
p355
sg25
S'Mike Gillislee'
p356
sg27
S'--'
p357
sg29
S'L21-23'
p358
sg31
S'--'
p359
sg33
S'--'
p360
sg34
S'BUF'
p361
sg36
S'--'
p362
sg37
S'--'
p363
sg39
S'--'
p364
ssg69
(dp365
g5
S''
p366
sg7
g366
sg9
g366
sg11
g366
sg13
g366
sg15
g366
sg16
S'2013'
p367
sg18
g69
sg20
g366
sg22
S'Bye'
p368
sg24
g366
sg25
S'Mike Gillislee'
p369
sg27
g366
sg29
g366
sg31
g366
sg33
g366
sg34
g366
sg36
g366
sg37
g366
sg39
g366
ssg86
(dp370
g5
S'--'
p371
sg7
S'--'
p372
sg9
g10
sg11
S'--'
p373
sg13
g10
sg15
S'--'
p374
sg16
S'2013'
p375
sg18
g86
sg20
S'--'
p376
sg22
S'10/31'
p377
sg24
S'--'
p378
sg25
S'Mike Gillislee'
p379
sg27
S'--'
p380
sg29
S'W22-20'
p381
sg31
S'--'
p382
sg33
S'--'
p383
sg34
S'CIN'
p384
sg36
S'--'
p385
sg37
S'--'
p386
sg39
S'--'
p387
ssS'8'
p388
(dp389
g5
S'--'
p390
sg7
S'--'
p391
sg9
g10
sg11
S'--'
p392
sg13
g10
sg15
S'--'
p393
sg16
S'2013'
p394
sg18
g388
sg20
S'--'
p395
sg22
S'10/27'
p396
sg24
S'--'
p397
sg25
S'Mike Gillislee'
p398
sg27
S'--'
p399
sg29
S'L17-27'
p400
sg31
S'--'
p401
sg33
S'--'
p402
sg34
S'@NE'
p403
sg36
S'--'
p404
sg37
S'--'
p405
sg39
S'--'
p406
sss.