(dp0
S'2015'
p1
(dp2
S'17'
p3
(dp4
S'RecAvg'
p5
S'--'
p6
sS'FUM'
p7
S'--'
p8
sS'GS'
p9
S'0'
p10
sS'Lost'
p11
S'--'
p12
sS'G'
p13
g10
sS'RecTD'
p14
S'--'
p15
sS'Year'
p16
S'2015'
p17
sS'WK'
p18
S'17'
p19
sS'RushAvg'
p20
S'--'
p21
sS'Game Date'
p22
S'01/03'
p23
sS'RushTD'
p24
S'--'
p25
sS'Player'
p26
S'Mike James'
p27
sS'RushAtt'
p28
S'--'
p29
sS'Result'
p30
S'L10-38'
p31
sS'RecYds'
p32
S'--'
p33
sS'Rec'
p34
S'--'
p35
sS'Opp'
p36
S'@CAR'
p37
sS'RecLng'
p38
S'--'
p39
sS'RushYds'
p40
S'--'
p41
sS'RushLng'
p42
S'--'
p43
ssS'16'
p44
(dp45
g5
S'--'
p46
sg7
S'--'
p47
sg9
g10
sg11
S'--'
p48
sg13
g10
sg14
S'--'
p49
sg16
S'2015'
p50
sg18
S'16'
p51
sg20
S'--'
p52
sg22
S'12/27'
p53
sg24
S'--'
p54
sg26
S'Mike James'
p55
sg28
S'--'
p56
sg30
S'L21-26'
p57
sg32
S'--'
p58
sg34
S'--'
p59
sg36
S'CHI'
p60
sg38
S'--'
p61
sg40
S'--'
p62
sg42
S'--'
p63
ssS'1'
p64
(dp65
g5
S'--'
p66
sg7
S'--'
p67
sg9
g10
sg11
S'--'
p68
sg13
g10
sg14
S'--'
p69
sg16
S'2015'
p70
sg18
g64
sg20
S'--'
p71
sg22
S'09/13'
p72
sg24
S'--'
p73
sg26
S'Mike James'
p74
sg28
S'--'
p75
sg30
S'L14-42'
p76
sg32
S'--'
p77
sg34
S'--'
p78
sg36
S'TEN'
p79
sg38
S'--'
p80
sg40
S'--'
p81
sg42
S'--'
p82
ssS'3'
p83
(dp84
g5
S'--'
p85
sg7
S'--'
p86
sg9
g10
sg11
S'--'
p87
sg13
g10
sg14
S'--'
p88
sg16
S'2015'
p89
sg18
g83
sg20
S'--'
p90
sg22
S'09/27'
p91
sg24
S'--'
p92
sg26
S'Mike James'
p93
sg28
S'--'
p94
sg30
S'L9-19'
p95
sg32
S'--'
p96
sg34
S'--'
p97
sg36
S'@HOU'
p98
sg38
S'--'
p99
sg40
S'--'
p100
sg42
S'--'
p101
ssS'2'
p102
(dp103
g5
S'--'
p104
sg7
S'--'
p105
sg9
g10
sg11
S'--'
p106
sg13
g10
sg14
S'--'
p107
sg16
S'2015'
p108
sg18
g102
sg20
S'--'
p109
sg22
S'09/20'
p110
sg24
S'--'
p111
sg26
S'Mike James'
p112
sg28
S'--'
p113
sg30
S'W26-19'
p114
sg32
S'--'
p115
sg34
S'--'
p116
sg36
S'@NO'
p117
sg38
S'--'
p118
sg40
S'--'
p119
sg42
S'--'
p120
sssS'2014'
p121
(dp122
S'11'
p123
(dp124
g5
S'--'
p125
sg7
S'--'
p126
sg9
g10
sg11
S'--'
p127
sg13
g10
sg14
S'--'
p128
sg16
S'2014'
p129
sg18
S'11'
p130
sg20
S'--'
p131
sg22
S'11/16'
p132
sg24
S'--'
p133
sg26
S'Mike James'
p134
sg28
S'--'
p135
sg30
S'W27-7'
p136
sg32
S'--'
p137
sg34
S'--'
p138
sg36
S'@WAS'
p139
sg38
S'--'
p140
sg40
S'--'
p141
sg42
S'--'
p142
ssS'10'
p143
(dp144
g5
S'--'
p145
sg7
S'--'
p146
sg9
g10
sg11
S'--'
p147
sg13
g64
sg14
S'--'
p148
sg16
S'2014'
p149
sg18
S'10'
p150
sg20
S'4.0'
p151
sg22
S'11/09'
p152
sg24
g10
sg26
S'Mike James'
p153
sg28
S'4'
p154
sg30
S'L17-27'
p155
sg32
S'--'
p156
sg34
S'--'
p157
sg36
S'ATL'
p158
sg38
S'--'
p159
sg40
S'16'
p160
sg42
S'9'
p161
ssS'13'
p162
(dp163
g5
S'--'
p164
sg7
S'--'
p165
sg9
g10
sg11
S'--'
p166
sg13
g64
sg14
S'--'
p167
sg16
S'2014'
p168
sg18
S'13'
p169
sg20
S'--'
p170
sg22
S'11/30'
p171
sg24
S'--'
p172
sg26
S'Mike James'
p173
sg28
S'--'
p174
sg30
S'L13-14'
p175
sg32
S'--'
p176
sg34
S'--'
p177
sg36
S'CIN'
p178
sg38
S'--'
p179
sg40
S'--'
p180
sg42
S'--'
p181
ssS'12'
p182
(dp183
g5
S'--'
p184
sg7
S'--'
p185
sg9
g10
sg11
S'--'
p186
sg13
g10
sg14
S'--'
p187
sg16
S'2014'
p188
sg18
S'12'
p189
sg20
S'--'
p190
sg22
S'11/23'
p191
sg24
S'--'
p192
sg26
S'Mike James'
p193
sg28
S'--'
p194
sg30
S'L13-21'
p195
sg32
S'--'
p196
sg34
S'--'
p197
sg36
S'@CHI'
p198
sg38
S'--'
p199
sg40
S'--'
p200
sg42
S'--'
p201
ssS'15'
p202
(dp203
g5
S'--'
p204
sg7
S'--'
p205
sg9
g10
sg11
S'--'
p206
sg13
g64
sg14
S'--'
p207
sg16
S'2014'
p208
sg18
S'15'
p209
sg20
S'--'
p210
sg22
S'12/14'
p211
sg24
S'--'
p212
sg26
S'Mike James'
p213
sg28
S'--'
p214
sg30
S'L17-19'
p215
sg32
S'--'
p216
sg34
S'--'
p217
sg36
S'@CAR'
p218
sg38
S'--'
p219
sg40
S'--'
p220
sg42
S'--'
p221
ssS'14'
p222
(dp223
g5
S'--'
p224
sg7
S'--'
p225
sg9
g10
sg11
S'--'
p226
sg13
g64
sg14
S'--'
p227
sg16
S'2014'
p228
sg18
S'14'
p229
sg20
S'--'
p230
sg22
S'12/07'
p231
sg24
S'--'
p232
sg26
S'Mike James'
p233
sg28
S'--'
p234
sg30
S'L17-34'
p235
sg32
S'--'
p236
sg34
S'--'
p237
sg36
S'@DET'
p238
sg38
S'--'
p239
sg40
S'--'
p240
sg42
S'--'
p241
ssg3
(dp242
g5
S'--'
p243
sg7
S'--'
p244
sg9
g10
sg11
S'--'
p245
sg13
g10
sg14
S'--'
p246
sg16
S'2014'
p247
sg18
S'17'
p248
sg20
S'--'
p249
sg22
S'12/28'
p250
sg24
S'--'
p251
sg26
S'Mike James'
p252
sg28
S'--'
p253
sg30
S'L20-23'
p254
sg32
S'--'
p255
sg34
S'--'
p256
sg36
S'NO'
p257
sg38
S'--'
p258
sg40
S'--'
p259
sg42
S'--'
p260
ssg44
(dp261
g5
S'--'
p262
sg7
S'--'
p263
sg9
g10
sg11
S'--'
p264
sg13
g10
sg14
S'--'
p265
sg16
S'2014'
p266
sg18
S'16'
p267
sg20
S'--'
p268
sg22
S'12/21'
p269
sg24
S'--'
p270
sg26
S'Mike James'
p271
sg28
S'--'
p272
sg30
S'L3-20'
p273
sg32
S'--'
p274
sg34
S'--'
p275
sg36
S'GB'
p276
sg38
S'--'
p277
sg40
S'--'
p278
sg42
S'--'
p279
ssg64
(dp280
g5
S'--'
p281
sg7
S'--'
p282
sg9
g10
sg11
S'--'
p283
sg13
g64
sg14
S'--'
p284
sg16
S'2014'
p285
sg18
g64
sg20
S'--'
p286
sg22
S'09/07'
p287
sg24
S'--'
p288
sg26
S'Mike James'
p289
sg28
S'--'
p290
sg30
S'L14-20'
p291
sg32
S'--'
p292
sg34
S'--'
p293
sg36
S'CAR'
p294
sg38
S'--'
p295
sg40
S'--'
p296
sg42
S'--'
p297
ssg83
(dp298
g5
S'-5.0'
p299
sg7
S'--'
p300
sg9
g10
sg11
S'--'
p301
sg13
g64
sg14
g10
sg16
S'2014'
p302
sg18
g83
sg20
S'1.0'
p303
sg22
S'09/18'
p304
sg24
g10
sg26
S'Mike James'
p305
sg28
g154
sg30
S'L14-56'
p306
sg32
S'-5'
p307
sg34
g64
sg36
S'@ATL'
p308
sg38
S'-5'
p309
sg40
g154
sg42
g83
ssg102
(dp310
g5
S'--'
p311
sg7
S'--'
p312
sg9
g10
sg11
S'--'
p313
sg13
g64
sg14
S'--'
p314
sg16
S'2014'
p315
sg18
g102
sg20
S'1.2'
p316
sg22
S'09/14'
p317
sg24
g10
sg26
S'Mike James'
p318
sg28
S'6'
p319
sg30
S'L17-19'
p320
sg32
S'--'
p321
sg34
S'--'
p322
sg36
S'STL'
p323
sg38
S'--'
p324
sg40
S'7'
p325
sg42
S'8'
p326
ssS'5'
p327
(dp328
g5
S'--'
p329
sg7
S'--'
p330
sg9
g10
sg11
S'--'
p331
sg13
g64
sg14
S'--'
p332
sg16
S'2014'
p333
sg18
g327
sg20
S'--'
p334
sg22
S'10/05'
p335
sg24
S'--'
p336
sg26
S'Mike James'
p337
sg28
S'--'
p338
sg30
S'L31-37'
p339
sg32
S'--'
p340
sg34
S'--'
p341
sg36
S'@NO'
p342
sg38
S'--'
p343
sg40
S'--'
p344
sg42
S'--'
p345
ssg154
(dp346
g5
S'--'
p347
sg7
S'--'
p348
sg9
g10
sg11
S'--'
p349
sg13
g10
sg14
S'--'
p350
sg16
S'2014'
p351
sg18
g154
sg20
S'--'
p352
sg22
S'09/28'
p353
sg24
S'--'
p354
sg26
S'Mike James'
p355
sg28
S'--'
p356
sg30
S'W27-24'
p357
sg32
S'--'
p358
sg34
S'--'
p359
sg36
S'@PIT'
p360
sg38
S'--'
p361
sg40
S'--'
p362
sg42
S'--'
p363
ssg325
(dp364
g5
S''
p365
sg7
g365
sg9
g365
sg11
g365
sg13
g365
sg14
g365
sg16
S'2014'
p366
sg18
g325
sg20
g365
sg22
S'Bye'
p367
sg24
g365
sg26
S'Mike James'
p368
sg28
g365
sg30
g365
sg32
g365
sg34
g365
sg36
g365
sg38
g365
sg40
g365
sg42
g365
ssg319
(dp369
g5
S'--'
p370
sg7
S'--'
p371
sg9
g10
sg11
S'--'
p372
sg13
g64
sg14
S'--'
p373
sg16
S'2014'
p374
sg18
g319
sg20
S'--'
p375
sg22
S'10/12'
p376
sg24
S'--'
p377
sg26
S'Mike James'
p378
sg28
S'--'
p379
sg30
S'L17-48'
p380
sg32
S'--'
p381
sg34
S'--'
p382
sg36
S'BAL'
p383
sg38
S'--'
p384
sg40
S'--'
p385
sg42
S'--'
p386
ssg161
(dp387
g5
S'--'
p388
sg7
S'--'
p389
sg9
g10
sg11
S'--'
p390
sg13
g64
sg14
S'--'
p391
sg16
S'2014'
p392
sg18
g161
sg20
S'2.3'
p393
sg22
S'11/02'
p394
sg24
g10
sg26
S'Mike James'
p395
sg28
g154
sg30
S'L17-22'
p396
sg32
S'--'
p397
sg34
S'--'
p398
sg36
S'@CLE'
p399
sg38
S'--'
p400
sg40
g161
sg42
g319
ssg326
(dp401
g5
S'--'
p402
sg7
S'--'
p403
sg9
g10
sg11
S'--'
p404
sg13
g64
sg14
S'--'
p405
sg16
S'2014'
p406
sg18
g326
sg20
S'1.0'
p407
sg22
S'10/26'
p408
sg24
g10
sg26
S'Mike James'
p409
sg28
g64
sg30
S'L13-19'
p410
sg32
S'--'
p411
sg34
S'--'
p412
sg36
S'MIN'
p413
sg38
S'--'
p414
sg40
g64
sg42
g64
sssS'2013'
p415
(dp416
g143
(dp417
g5
S'--'
p418
sg7
S'--'
p419
sg9
g64
sg11
S'--'
p420
sg13
g64
sg14
S'--'
p421
sg16
S'2013'
p422
sg18
S'10'
p423
sg20
S'8.2'
p424
sg22
S'11/11'
p425
sg24
g10
sg26
S'Mike James'
p426
sg28
g327
sg30
S'W22-19'
p427
sg32
S'--'
p428
sg34
S'--'
p429
sg36
S'MIA'
p430
sg38
S'--'
p431
sg40
S'41'
p432
sg42
S'24'
p433
ssg64
(dp434
g5
S'--'
p435
sg7
S'--'
p436
sg9
g10
sg11
S'--'
p437
sg13
g10
sg14
S'--'
p438
sg16
S'2013'
p439
sg18
g64
sg20
S'--'
p440
sg22
S'09/08'
p441
sg24
S'--'
p442
sg26
S'Mike James'
p443
sg28
S'--'
p444
sg30
S'L17-18'
p445
sg32
S'--'
p446
sg34
S'--'
p447
sg36
S'@NYJ'
p448
sg38
S'--'
p449
sg40
S'--'
p450
sg42
S'--'
p451
ssg83
(dp452
g5
S'--'
p453
sg7
S'--'
p454
sg9
g10
sg11
S'--'
p455
sg13
g64
sg14
S'--'
p456
sg16
S'2013'
p457
sg18
g83
sg20
S'5.0'
p458
sg22
S'09/22'
p459
sg24
g10
sg26
S'Mike James'
p460
sg28
g64
sg30
S'L3-23'
p461
sg32
S'--'
p462
sg34
S'--'
p463
sg36
S'@NE'
p464
sg38
S'--'
p465
sg40
g327
sg42
g327
ssg102
(dp466
g5
S'--'
p467
sg7
S'--'
p468
sg9
g10
sg11
S'--'
p469
sg13
g64
sg14
S'--'
p470
sg16
S'2013'
p471
sg18
g102
sg20
S'--'
p472
sg22
S'09/15'
p473
sg24
S'--'
p474
sg26
S'Mike James'
p475
sg28
S'--'
p476
sg30
S'L14-16'
p477
sg32
S'--'
p478
sg34
S'--'
p479
sg36
S'NO'
p480
sg38
S'--'
p481
sg40
S'--'
p482
sg42
S'--'
p483
ssg327
(dp484
g5
g365
sg7
g365
sg9
g365
sg11
g365
sg13
g365
sg14
g365
sg16
S'2013'
p485
sg18
g327
sg20
g365
sg22
S'Bye'
p486
sg24
g365
sg26
S'Mike James'
p487
sg28
g365
sg30
g365
sg32
g365
sg34
g365
sg36
g365
sg38
g365
sg40
g365
sg42
g365
ssg154
(dp488
g5
S'2.0'
p489
sg7
S'--'
p490
sg9
g10
sg11
S'--'
p491
sg13
g64
sg14
g10
sg16
S'2013'
p492
sg18
g154
sg20
S'--'
p493
sg22
S'09/29'
p494
sg24
S'--'
p495
sg26
S'Mike James'
p496
sg28
S'--'
p497
sg30
S'L10-13'
p498
sg32
g102
sg34
g64
sg36
S'ARI'
p499
sg38
g102
sg40
S'--'
p500
sg42
S'--'
p501
ssg325
(dp502
g5
S'2.7'
p503
sg7
S'--'
p504
sg9
g10
sg11
S'--'
p505
sg13
g64
sg14
g10
sg16
S'2013'
p506
sg18
g325
sg20
S'3.2'
p507
sg22
S'10/20'
p508
sg24
g10
sg26
S'Mike James'
p509
sg28
S'14'
p510
sg30
S'L23-31'
p511
sg32
g326
sg34
g83
sg36
S'@ATL'
p512
sg38
g326
sg40
S'45'
p513
sg42
S'11'
p514
ssg319
(dp515
g5
S'--'
p516
sg7
S'--'
p517
sg9
g10
sg11
S'--'
p518
sg13
g64
sg14
S'--'
p519
sg16
S'2013'
p520
sg18
g319
sg20
S'3.5'
p521
sg22
S'10/13'
p522
sg24
g10
sg26
S'Mike James'
p523
sg28
g102
sg30
S'L20-31'
p524
sg32
S'--'
p525
sg34
S'--'
p526
sg36
S'PHI'
p527
sg38
S'--'
p528
sg40
g325
sg42
g154
ssg161
(dp529
g5
S'4.0'
p530
sg7
S'--'
p531
sg9
g64
sg11
S'--'
p532
sg13
g64
sg14
g10
sg16
S'2013'
p533
sg18
g161
sg20
S'5.6'
p534
sg22
S'11/03'
p535
sg24
g10
sg26
S'Mike James'
p536
sg28
S'28'
p537
sg30
S'L24-27'
p538
sg32
g326
sg34
g102
sg36
S'@SEA'
p539
sg38
g327
sg40
S'158'
p540
sg42
S'21'
p541
ssg326
(dp542
g5
S'6.3'
p543
sg7
S'--'
p544
sg9
g64
sg11
S'--'
p545
sg13
g64
sg14
g10
sg16
S'2013'
p546
sg18
g326
sg20
S'3.9'
p547
sg22
S'10/24'
p548
sg24
g10
sg26
S'Mike James'
p549
sg28
S'10'
p550
sg30
S'L13-31'
p551
sg32
S'25'
p552
sg34
g154
sg36
S'CAR'
p553
sg38
S'20'
p554
sg40
S'39'
p555
sg42
S'15'
p556
sss.