(dp0
S'2015'
p1
(dp2
S'11'
p3
(dp4
S'RecAvg'
p5
S''
p6
sS'FUM'
p7
g6
sS'GS'
p8
g6
sS'Lost'
p9
g6
sS'G'
p10
g6
sS'RecTD'
p11
g6
sS'Year'
p12
S'2015'
p13
sS'WK'
p14
S'11'
p15
sS'RushAvg'
p16
g6
sS'Game Date'
p17
S'Bye'
p18
sS'RushTD'
p19
g6
sS'Player'
p20
S'Nikit Whitlock'
p21
sS'RushAtt'
p22
g6
sS'Result'
p23
g6
sS'RecYds'
p24
g6
sS'Rec'
p25
g6
sS'Opp'
p26
g6
sS'RecLng'
p27
g6
sS'RushYds'
p28
g6
sS'RushLng'
p29
g6
ssS'10'
p30
(dp31
g5
S'--'
p32
sg7
S'--'
p33
sg8
S'0'
p34
sg9
S'--'
p35
sg10
S'1'
p36
sg11
S'--'
p37
sg12
S'2015'
p38
sg14
S'10'
p39
sg16
S'--'
p40
sg17
S'11/15'
p41
sg19
S'--'
p42
sg20
S'Nikit Whitlock'
p43
sg22
S'--'
p44
sg23
S'L26-27'
p45
sg24
S'--'
p46
sg25
S'--'
p47
sg26
S'NE'
p48
sg27
S'--'
p49
sg28
S'--'
p50
sg29
S'--'
p51
ssS'13'
p52
(dp53
g5
S'--'
p54
sg7
S'--'
p55
sg8
g36
sg9
S'--'
p56
sg10
g36
sg11
S'--'
p57
sg12
S'2015'
p58
sg14
S'13'
p59
sg16
S'--'
p60
sg17
S'12/06'
p61
sg19
S'--'
p62
sg20
S'Nikit Whitlock'
p63
sg22
S'--'
p64
sg23
S'L20-23'
p65
sg24
S'--'
p66
sg25
S'--'
p67
sg26
S'NYJ'
p68
sg27
S'--'
p69
sg28
S'--'
p70
sg29
S'--'
p71
ssS'12'
p72
(dp73
g5
S'--'
p74
sg7
S'--'
p75
sg8
g34
sg9
S'--'
p76
sg10
g36
sg11
S'--'
p77
sg12
S'2015'
p78
sg14
S'12'
p79
sg16
S'--'
p80
sg17
S'11/29'
p81
sg19
S'--'
p82
sg20
S'Nikit Whitlock'
p83
sg22
S'--'
p84
sg23
S'L14-20'
p85
sg24
S'--'
p86
sg25
S'--'
p87
sg26
S'@WAS'
p88
sg27
S'--'
p89
sg28
S'--'
p90
sg29
S'--'
p91
ssS'15'
p92
(dp93
g5
S'--'
p94
sg7
S'--'
p95
sg8
g34
sg9
S'--'
p96
sg10
g36
sg11
S'--'
p97
sg12
S'2015'
p98
sg14
S'15'
p99
sg16
S'--'
p100
sg17
S'12/20'
p101
sg19
S'--'
p102
sg20
S'Nikit Whitlock'
p103
sg22
S'--'
p104
sg23
S'L35-38'
p105
sg24
S'--'
p106
sg25
S'--'
p107
sg26
S'CAR'
p108
sg27
S'--'
p109
sg28
S'--'
p110
sg29
S'--'
p111
ssS'14'
p112
(dp113
g5
S'--'
p114
sg7
S'--'
p115
sg8
g34
sg9
S'--'
p116
sg10
g36
sg11
S'--'
p117
sg12
S'2015'
p118
sg14
S'14'
p119
sg16
S'--'
p120
sg17
S'12/14'
p121
sg19
S'--'
p122
sg20
S'Nikit Whitlock'
p123
sg22
S'--'
p124
sg23
S'W31-24'
p125
sg24
S'--'
p126
sg25
S'--'
p127
sg26
S'@MIA'
p128
sg27
S'--'
p129
sg28
S'--'
p130
sg29
S'--'
p131
ssg36
(dp132
g5
S'--'
p133
sg7
S'--'
p134
sg8
g34
sg9
S'--'
p135
sg10
g36
sg11
S'--'
p136
sg12
S'2015'
p137
sg14
g36
sg16
S'--'
p138
sg17
S'09/13'
p139
sg19
S'--'
p140
sg20
S'Nikit Whitlock'
p141
sg22
S'--'
p142
sg23
S'L26-27'
p143
sg24
S'--'
p144
sg25
S'--'
p145
sg26
S'@DAL'
p146
sg27
S'--'
p147
sg28
S'--'
p148
sg29
S'--'
p149
ssS'3'
p150
(dp151
g5
S'--'
p152
sg7
S'--'
p153
sg8
g34
sg9
S'--'
p154
sg10
g36
sg11
S'--'
p155
sg12
S'2015'
p156
sg14
g150
sg16
S'--'
p157
sg17
S'09/24'
p158
sg19
S'--'
p159
sg20
S'Nikit Whitlock'
p160
sg22
S'--'
p161
sg23
S'W32-21'
p162
sg24
S'--'
p163
sg25
S'--'
p164
sg26
S'WAS'
p165
sg27
S'--'
p166
sg28
S'--'
p167
sg29
S'--'
p168
ssS'2'
p169
(dp170
g5
S'--'
p171
sg7
S'--'
p172
sg8
g34
sg9
S'--'
p173
sg10
g36
sg11
S'--'
p174
sg12
S'2015'
p175
sg14
g169
sg16
S'--'
p176
sg17
S'09/20'
p177
sg19
S'--'
p178
sg20
S'Nikit Whitlock'
p179
sg22
S'--'
p180
sg23
S'L20-24'
p181
sg24
S'--'
p182
sg25
S'--'
p183
sg26
S'ATL'
p184
sg27
S'--'
p185
sg28
S'--'
p186
sg29
S'--'
p187
ssS'5'
p188
(dp189
g5
S'--'
p190
sg7
S'--'
p191
sg8
g36
sg9
S'--'
p192
sg10
g36
sg11
S'--'
p193
sg12
S'2015'
p194
sg14
g188
sg16
S'--'
p195
sg17
S'10/11'
p196
sg19
S'--'
p197
sg20
S'Nikit Whitlock'
p198
sg22
S'--'
p199
sg23
S'W30-27'
p200
sg24
S'--'
p201
sg25
S'--'
p202
sg26
S'SF'
p203
sg27
S'--'
p204
sg28
S'--'
p205
sg29
S'--'
p206
ssS'4'
p207
(dp208
g5
S'--'
p209
sg7
S'--'
p210
sg8
g34
sg9
S'--'
p211
sg10
g36
sg11
S'--'
p212
sg12
S'2015'
p213
sg14
g207
sg16
S'--'
p214
sg17
S'10/04'
p215
sg19
S'--'
p216
sg20
S'Nikit Whitlock'
p217
sg22
S'--'
p218
sg23
S'W24-10'
p219
sg24
S'--'
p220
sg25
S'--'
p221
sg26
S'@BUF'
p222
sg27
S'--'
p223
sg28
S'--'
p224
sg29
S'--'
p225
ssS'7'
p226
(dp227
g5
S'--'
p228
sg7
S'--'
p229
sg8
g36
sg9
S'--'
p230
sg10
g36
sg11
S'--'
p231
sg12
S'2015'
p232
sg14
g226
sg16
S'--'
p233
sg17
S'10/25'
p234
sg19
S'--'
p235
sg20
S'Nikit Whitlock'
p236
sg22
S'--'
p237
sg23
S'W27-20'
p238
sg24
S'--'
p239
sg25
S'--'
p240
sg26
S'DAL'
p241
sg27
S'--'
p242
sg28
S'--'
p243
sg29
S'--'
p244
ssS'6'
p245
(dp246
g5
S'--'
p247
sg7
S'--'
p248
sg8
g34
sg9
S'--'
p249
sg10
g36
sg11
S'--'
p250
sg12
S'2015'
p251
sg14
g245
sg16
S'--'
p252
sg17
S'10/19'
p253
sg19
S'--'
p254
sg20
S'Nikit Whitlock'
p255
sg22
S'--'
p256
sg23
S'L7-27'
p257
sg24
S'--'
p258
sg25
S'--'
p259
sg26
S'@PHI'
p260
sg27
S'--'
p261
sg28
S'--'
p262
sg29
S'--'
p263
ssS'9'
p264
(dp265
g5
S'--'
p266
sg7
S'--'
p267
sg8
g36
sg9
S'--'
p268
sg10
g36
sg11
S'--'
p269
sg12
S'2015'
p270
sg14
g264
sg16
S'--'
p271
sg17
S'11/08'
p272
sg19
S'--'
p273
sg20
S'Nikit Whitlock'
p274
sg22
S'--'
p275
sg23
S'W32-18'
p276
sg24
S'--'
p277
sg25
S'--'
p278
sg26
S'@TB'
p279
sg27
S'--'
p280
sg28
S'--'
p281
sg29
S'--'
p282
ssS'8'
p283
(dp284
g5
S'--'
p285
sg7
S'--'
p286
sg8
g36
sg9
S'--'
p287
sg10
g36
sg11
S'--'
p288
sg12
S'2015'
p289
sg14
g283
sg16
S'--'
p290
sg17
S'11/01'
p291
sg19
S'--'
p292
sg20
S'Nikit Whitlock'
p293
sg22
S'--'
p294
sg23
S'L49-52'
p295
sg24
S'--'
p296
sg25
S'--'
p297
sg26
S'@NO'
p298
sg27
S'--'
p299
sg28
S'--'
p300
sg29
S'--'
p301
sss.