(dp0
S'2015'
p1
(dp2
S'11'
p3
(dp4
S'RecAvg'
p5
S''
p6
sS'FUM'
p7
g6
sS'GS'
p8
g6
sS'Lost'
p9
g6
sS'G'
p10
g6
sS'RecTD'
p11
g6
sS'Year'
p12
S'2015'
p13
sS'WK'
p14
S'11'
p15
sS'RushAvg'
p16
g6
sS'Game Date'
p17
S'Bye'
p18
sS'RushTD'
p19
g6
sS'Player'
p20
S'Orleans Darkwa'
p21
sS'RushAtt'
p22
g6
sS'Result'
p23
g6
sS'RecYds'
p24
g6
sS'Rec'
p25
g6
sS'Opp'
p26
g6
sS'RecLng'
p27
g6
sS'RushYds'
p28
g6
sS'RushLng'
p29
g6
ssS'10'
p30
(dp31
g5
S'--'
p32
sg7
S'--'
p33
sg8
S'0'
p34
sg9
S'--'
p35
sg10
S'1'
p36
sg11
S'--'
p37
sg12
S'2015'
p38
sg14
S'10'
p39
sg16
S'3.0'
p40
sg17
S'11/15'
p41
sg19
g34
sg20
S'Orleans Darkwa'
p42
sg22
S'5'
p43
sg23
S'L26-27'
p44
sg24
S'--'
p45
sg25
S'--'
p46
sg26
S'NE'
p47
sg27
S'--'
p48
sg28
S'15'
p49
sg29
S'4'
p50
ssS'13'
p51
(dp52
g5
S'10.0'
p53
sg7
S'--'
p54
sg8
g34
sg9
S'--'
p55
sg10
g36
sg11
g34
sg12
S'2015'
p56
sg14
S'13'
p57
sg16
S'2.9'
p58
sg17
S'12/06'
p59
sg19
g34
sg20
S'Orleans Darkwa'
p60
sg22
S'8'
p61
sg23
S'L20-23'
p62
sg24
S'10'
p63
sg25
g36
sg26
S'NYJ'
p64
sg27
S'10'
p65
sg28
S'23'
p66
sg29
S'6'
p67
ssS'12'
p68
(dp69
g5
S'--'
p70
sg7
S'--'
p71
sg8
g34
sg9
S'--'
p72
sg10
g36
sg11
S'--'
p73
sg12
S'2015'
p74
sg14
S'12'
p75
sg16
S'1.0'
p76
sg17
S'11/29'
p77
sg19
g34
sg20
S'Orleans Darkwa'
p78
sg22
S'2'
p79
sg23
S'L14-20'
p80
sg24
S'--'
p81
sg25
S'--'
p82
sg26
S'@WAS'
p83
sg27
S'--'
p84
sg28
g79
sg29
g36
ssS'15'
p85
(dp86
g5
S'--'
p87
sg7
S'--'
p88
sg8
g34
sg9
S'--'
p89
sg10
g36
sg11
S'--'
p90
sg12
S'2015'
p91
sg14
S'15'
p92
sg16
S'--'
p93
sg17
S'12/20'
p94
sg19
S'--'
p95
sg20
S'Orleans Darkwa'
p96
sg22
S'--'
p97
sg23
S'L35-38'
p98
sg24
S'--'
p99
sg25
S'--'
p100
sg26
S'CAR'
p101
sg27
S'--'
p102
sg28
S'--'
p103
sg29
S'--'
p104
ssS'14'
p105
(dp106
g5
S'6.0'
p107
sg7
S'--'
p108
sg8
g34
sg9
S'--'
p109
sg10
g36
sg11
g34
sg12
S'2015'
p110
sg14
S'14'
p111
sg16
S'5.0'
p112
sg17
S'12/14'
p113
sg19
g34
sg20
S'Orleans Darkwa'
p114
sg22
g79
sg23
S'W31-24'
p115
sg24
g67
sg25
g36
sg26
S'@MIA'
p116
sg27
g67
sg28
S'10'
p117
sg29
S'10'
p118
ssS'17'
p119
(dp120
g5
S'--'
p121
sg7
S'--'
p122
sg8
g34
sg9
S'--'
p123
sg10
g36
sg11
S'--'
p124
sg12
S'2015'
p125
sg14
S'17'
p126
sg16
S'--'
p127
sg17
S'01/03'
p128
sg19
S'--'
p129
sg20
S'Orleans Darkwa'
p130
sg22
S'--'
p131
sg23
S'L30-35'
p132
sg24
S'--'
p133
sg25
S'--'
p134
sg26
S'PHI'
p135
sg27
S'--'
p136
sg28
S'--'
p137
sg29
S'--'
p138
ssS'16'
p139
(dp140
g5
S'15.0'
p141
sg7
S'--'
p142
sg8
g34
sg9
S'--'
p143
sg10
g36
sg11
g34
sg12
S'2015'
p144
sg14
S'16'
p145
sg16
S'9.0'
p146
sg17
S'12/27'
p147
sg19
g34
sg20
S'Orleans Darkwa'
p148
sg22
g36
sg23
S'L17-49'
p149
sg24
S'15'
p150
sg25
g36
sg26
S'@MIN'
p151
sg27
S'15'
p152
sg28
S'9'
p153
sg29
g153
ssg36
(dp154
g5
S'--'
p155
sg7
S'--'
p156
sg8
g34
sg9
S'--'
p157
sg10
g36
sg11
S'--'
p158
sg12
S'2015'
p159
sg14
g36
sg16
S'--'
p160
sg17
S'09/13'
p161
sg19
S'--'
p162
sg20
S'Orleans Darkwa'
p163
sg22
S'--'
p164
sg23
S'L26-27'
p165
sg24
S'--'
p166
sg25
S'--'
p167
sg26
S'@DAL'
p168
sg27
S'--'
p169
sg28
S'--'
p170
sg29
S'--'
p171
ssS'3'
p172
(dp173
g5
S'--'
p174
sg7
S'--'
p175
sg8
g34
sg9
S'--'
p176
sg10
g36
sg11
S'--'
p177
sg12
S'2015'
p178
sg14
g172
sg16
S'--'
p179
sg17
S'09/24'
p180
sg19
S'--'
p181
sg20
S'Orleans Darkwa'
p182
sg22
S'--'
p183
sg23
S'W32-21'
p184
sg24
S'--'
p185
sg25
S'--'
p186
sg26
S'WAS'
p187
sg27
S'--'
p188
sg28
S'--'
p189
sg29
S'--'
p190
ssg79
(dp191
g5
S'--'
p192
sg7
S'--'
p193
sg8
g34
sg9
S'--'
p194
sg10
g36
sg11
S'--'
p195
sg12
S'2015'
p196
sg14
g79
sg16
S'--'
p197
sg17
S'09/20'
p198
sg19
S'--'
p199
sg20
S'Orleans Darkwa'
p200
sg22
S'--'
p201
sg23
S'L20-24'
p202
sg24
S'--'
p203
sg25
S'--'
p204
sg26
S'ATL'
p205
sg27
S'--'
p206
sg28
S'--'
p207
sg29
S'--'
p208
ssg43
(dp209
g5
S'--'
p210
sg7
S'--'
p211
sg8
g34
sg9
S'--'
p212
sg10
g36
sg11
S'--'
p213
sg12
S'2015'
p214
sg14
g43
sg16
S'--'
p215
sg17
S'10/11'
p216
sg19
S'--'
p217
sg20
S'Orleans Darkwa'
p218
sg22
S'--'
p219
sg23
S'W30-27'
p220
sg24
S'--'
p221
sg25
S'--'
p222
sg26
S'SF'
p223
sg27
S'--'
p224
sg28
S'--'
p225
sg29
S'--'
p226
ssg50
(dp227
g5
S'--'
p228
sg7
S'--'
p229
sg8
g34
sg9
S'--'
p230
sg10
g36
sg11
S'--'
p231
sg12
S'2015'
p232
sg14
g50
sg16
S'--'
p233
sg17
S'10/04'
p234
sg19
S'--'
p235
sg20
S'Orleans Darkwa'
p236
sg22
S'--'
p237
sg23
S'W24-10'
p238
sg24
S'--'
p239
sg25
S'--'
p240
sg26
S'@BUF'
p241
sg27
S'--'
p242
sg28
S'--'
p243
sg29
S'--'
p244
ssS'7'
p245
(dp246
g5
S'--'
p247
sg7
S'--'
p248
sg8
g34
sg9
S'--'
p249
sg10
g36
sg11
g34
sg12
S'2015'
p250
sg14
g245
sg16
S'6.0'
p251
sg17
S'10/25'
p252
sg19
g36
sg20
S'Orleans Darkwa'
p253
sg22
g61
sg23
S'W27-20'
p254
sg24
g34
sg25
g34
sg26
S'DAL'
p255
sg27
S'--'
p256
sg28
S'48'
p257
sg29
S'15T'
p258
ssg67
(dp259
g5
S'--'
p260
sg7
S'--'
p261
sg8
g34
sg9
S'--'
p262
sg10
g36
sg11
S'--'
p263
sg12
S'2015'
p264
sg14
g67
sg16
S'--'
p265
sg17
S'10/19'
p266
sg19
S'--'
p267
sg20
S'Orleans Darkwa'
p268
sg22
S'--'
p269
sg23
S'L7-27'
p270
sg24
S'--'
p271
sg25
S'--'
p272
sg26
S'@PHI'
p273
sg27
S'--'
p274
sg28
S'--'
p275
sg29
S'--'
p276
ssg153
(dp277
g5
S'--'
p278
sg7
S'--'
p279
sg8
g34
sg9
S'--'
p280
sg10
g36
sg11
S'--'
p281
sg12
S'2015'
p282
sg14
g153
sg16
S'3.8'
p283
sg17
S'11/08'
p284
sg19
g34
sg20
S'Orleans Darkwa'
p285
sg22
g67
sg23
S'W32-18'
p286
sg24
S'--'
p287
sg25
S'--'
p288
sg26
S'@TB'
p289
sg27
S'--'
p290
sg28
S'23'
p291
sg29
g153
ssg61
(dp292
g5
S'--'
p293
sg7
S'--'
p294
sg8
g34
sg9
S'--'
p295
sg10
g36
sg11
S'--'
p296
sg12
S'2015'
p297
sg14
g61
sg16
S'5.8'
p298
sg17
S'11/01'
p299
sg19
g34
sg20
S'Orleans Darkwa'
p300
sg22
g50
sg23
S'L49-52'
p301
sg24
S'--'
p302
sg25
S'--'
p303
sg26
S'@NO'
p304
sg27
S'--'
p305
sg28
S'23'
p306
sg29
S'17'
p307
sssS'2014'
p308
(dp309
g3
(dp310
g5
S'--'
p311
sg7
S'--'
p312
sg8
g34
sg9
S'--'
p313
sg10
g36
sg11
S'--'
p314
sg12
S'2014'
p315
sg14
S'11'
p316
sg16
S'--'
p317
sg17
S'11/16'
p318
sg19
S'--'
p319
sg20
S'Orleans Darkwa'
p320
sg22
S'--'
p321
sg23
S'L10-16'
p322
sg24
S'--'
p323
sg25
S'--'
p324
sg26
S'SF'
p325
sg27
S'--'
p326
sg28
S'--'
p327
sg29
S'--'
p328
ssg51
(dp329
g5
S'--'
p330
sg7
S'--'
p331
sg8
g34
sg9
S'--'
p332
sg10
g36
sg11
S'--'
p333
sg12
S'2014'
p334
sg14
S'13'
p335
sg16
S'--'
p336
sg17
S'11/30'
p337
sg19
S'--'
p338
sg20
S'Orleans Darkwa'
p339
sg22
S'--'
p340
sg23
S'L24-25'
p341
sg24
S'--'
p342
sg25
S'--'
p343
sg26
S'@JAC'
p344
sg27
S'--'
p345
sg28
S'--'
p346
sg29
S'--'
p347
ssg68
(dp348
g5
S'--'
p349
sg7
S'--'
p350
sg8
g34
sg9
S'--'
p351
sg10
g36
sg11
S'--'
p352
sg12
S'2014'
p353
sg14
S'12'
p354
sg16
S'--'
p355
sg17
S'11/23'
p356
sg19
S'--'
p357
sg20
S'Orleans Darkwa'
p358
sg22
S'--'
p359
sg23
S'L28-31'
p360
sg24
S'--'
p361
sg25
S'--'
p362
sg26
S'DAL'
p363
sg27
S'--'
p364
sg28
S'--'
p365
sg29
S'--'
p366
ssg85
(dp367
g5
S'--'
p368
sg7
S'--'
p369
sg8
g34
sg9
S'--'
p370
sg10
g36
sg11
S'--'
p371
sg12
S'2014'
p372
sg14
S'15'
p373
sg16
S'--'
p374
sg17
S'12/14'
p375
sg19
S'--'
p376
sg20
S'Orleans Darkwa'
p377
sg22
S'--'
p378
sg23
S'W24-13'
p379
sg24
S'--'
p380
sg25
S'--'
p381
sg26
S'WAS'
p382
sg27
S'--'
p383
sg28
S'--'
p384
sg29
S'--'
p385
ssg105
(dp386
g5
S'--'
p387
sg7
S'--'
p388
sg8
g34
sg9
S'--'
p389
sg10
g36
sg11
g34
sg12
S'2014'
p390
sg14
S'14'
p391
sg16
S'0.0'
p392
sg17
S'12/07'
p393
sg19
g34
sg20
S'Orleans Darkwa'
p394
sg22
g36
sg23
S'W36-7'
p395
sg24
g34
sg25
g34
sg26
S'@TEN'
p396
sg27
S'--'
p397
sg28
g34
sg29
g34
ssg119
(dp398
g5
S'--'
p399
sg7
S'--'
p400
sg8
g34
sg9
S'--'
p401
sg10
g36
sg11
S'--'
p402
sg12
S'2014'
p403
sg14
S'17'
p404
sg16
S'--'
p405
sg17
S'12/28'
p406
sg19
S'--'
p407
sg20
S'Orleans Darkwa'
p408
sg22
S'--'
p409
sg23
S'L26-34'
p410
sg24
S'--'
p411
sg25
S'--'
p412
sg26
S'PHI'
p413
sg27
S'--'
p414
sg28
S'--'
p415
sg29
S'--'
p416
ssg139
(dp417
g5
S'8.5'
p418
sg7
S'--'
p419
sg8
g34
sg9
S'--'
p420
sg10
g36
sg11
g34
sg12
S'2014'
p421
sg14
S'16'
p422
sg16
S'5.3'
p423
sg17
S'12/21'
p424
sg19
g36
sg20
S'Orleans Darkwa'
p425
sg22
g50
sg23
S'W37-27'
p426
sg24
S'17'
p427
sg25
g79
sg26
S'@STL'
p428
sg27
g153
sg28
S'21'
p429
sg29
S'12T'
p430
ssg36
(dp431
g5
S'--'
p432
sg7
S'--'
p433
sg8
g34
sg9
S'--'
p434
sg10
g36
sg11
S'--'
p435
sg12
S'2014'
p436
sg14
g36
sg16
S'--'
p437
sg17
S'09/07'
p438
sg19
S'--'
p439
sg20
S'Orleans Darkwa'
p440
sg22
S'--'
p441
sg23
S'W33-20'
p442
sg24
S'--'
p443
sg25
S'--'
p444
sg26
S'NE'
p445
sg27
S'--'
p446
sg28
S'--'
p447
sg29
S'--'
p448
ssg172
(dp449
g5
S'--'
p450
sg7
S'--'
p451
sg8
g34
sg9
S'--'
p452
sg10
g36
sg11
S'--'
p453
sg12
S'2014'
p454
sg14
g172
sg16
S'--'
p455
sg17
S'09/21'
p456
sg19
S'--'
p457
sg20
S'Orleans Darkwa'
p458
sg22
S'--'
p459
sg23
S'L15-34'
p460
sg24
S'--'
p461
sg25
S'--'
p462
sg26
S'KC'
p463
sg27
S'--'
p464
sg28
S'--'
p465
sg29
S'--'
p466
ssg79
(dp467
g5
S'10.3'
p468
sg7
S'--'
p469
sg8
g34
sg9
S'--'
p470
sg10
g36
sg11
g34
sg12
S'2014'
p471
sg14
g79
sg16
S'--'
p472
sg17
S'09/14'
p473
sg19
S'--'
p474
sg20
S'Orleans Darkwa'
p475
sg22
S'--'
p476
sg23
S'L10-29'
p477
sg24
S'31'
p478
sg25
g172
sg26
S'@BUF'
p479
sg27
S'17'
p480
sg28
S'--'
p481
sg29
S'--'
p482
ssg50
(dp483
g5
S'--'
p484
sg7
S'--'
p485
sg8
g34
sg9
S'--'
p486
sg10
g36
sg11
S'--'
p487
sg12
S'2014'
p488
sg14
g50
sg16
S'0.5'
p489
sg17
S'09/28'
p490
sg19
g34
sg20
S'Orleans Darkwa'
p491
sg22
g50
sg23
S'W38-14'
p492
sg24
S'--'
p493
sg25
S'--'
p494
sg26
S'@OAK'
p495
sg27
S'--'
p496
sg28
g79
sg29
g245
sss.