(dp0
S'2015'
p1
(dp2
S'11'
p3
(dp4
S'RecAvg'
p5
S'7.0'
p6
sS'FUM'
p7
S'--'
p8
sS'GS'
p9
S'0'
p10
sS'Lost'
p11
S'--'
p12
sS'G'
p13
S'1'
p14
sS'RecTD'
p15
S'2'
p16
sS'Year'
p17
S'2015'
p18
sS'WK'
p19
S'11'
p20
sS'RushAvg'
p21
S'--'
p22
sS'Game Date'
p23
S'11/22'
p24
sS'RushTD'
p25
S'--'
p26
sS'Player'
p27
S'Patrick DiMarco'
p28
sS'RushAtt'
p29
S'--'
p30
sS'Result'
p31
S'L21-24'
p32
sS'RecYds'
p33
S'21'
p34
sS'Rec'
p35
S'3'
p36
sS'Opp'
p37
S'IND'
p38
sS'RecLng'
p39
S'15T'
p40
sS'RushYds'
p41
S'--'
p42
sS'RushLng'
p43
S'--'
p44
ssS'10'
p45
(dp46
g5
S''
p47
sg7
g47
sg9
g47
sg11
g47
sg13
g47
sg15
g47
sg17
S'2015'
p48
sg19
S'10'
p49
sg21
g47
sg23
S'Bye'
p50
sg25
g47
sg27
S'Patrick DiMarco'
p51
sg29
g47
sg31
g47
sg33
g47
sg35
g47
sg37
g47
sg39
g47
sg41
g47
sg43
g47
ssS'13'
p52
(dp53
g5
S'9.0'
p54
sg7
S'--'
p55
sg9
g10
sg11
S'--'
p56
sg13
g14
sg15
g10
sg17
S'2015'
p57
sg19
S'13'
p58
sg21
S'--'
p59
sg23
S'12/06'
p60
sg25
S'--'
p61
sg27
S'Patrick DiMarco'
p62
sg29
S'--'
p63
sg31
S'L19-23'
p64
sg33
S'18'
p65
sg35
g16
sg37
S'@TB'
p66
sg39
S'9'
p67
sg41
S'--'
p68
sg43
S'--'
p69
ssS'12'
p70
(dp71
g5
S'--'
p72
sg7
S'--'
p73
sg9
g14
sg11
S'--'
p74
sg13
g14
sg15
S'--'
p75
sg17
S'2015'
p76
sg19
S'12'
p77
sg21
S'--'
p78
sg23
S'11/29'
p79
sg25
S'--'
p80
sg27
S'Patrick DiMarco'
p81
sg29
S'--'
p82
sg31
S'L10-20'
p83
sg33
S'--'
p84
sg35
S'--'
p85
sg37
S'MIN'
p86
sg39
S'--'
p87
sg41
S'--'
p88
sg43
S'--'
p89
ssS'15'
p90
(dp91
g5
S'--'
p92
sg7
S'--'
p93
sg9
g14
sg11
S'--'
p94
sg13
g14
sg15
S'--'
p95
sg17
S'2015'
p96
sg19
S'15'
p97
sg21
S'--'
p98
sg23
S'12/20'
p99
sg25
S'--'
p100
sg27
S'Patrick DiMarco'
p101
sg29
S'--'
p102
sg31
S'W23-17'
p103
sg33
S'--'
p104
sg35
S'--'
p105
sg37
S'@JAC'
p106
sg39
S'--'
p107
sg41
S'--'
p108
sg43
S'--'
p109
ssS'14'
p110
(dp111
g5
S'7.5'
p112
sg7
S'--'
p113
sg9
g14
sg11
S'--'
p114
sg13
g14
sg15
g10
sg17
S'2015'
p115
sg19
S'14'
p116
sg21
S'--'
p117
sg23
S'12/13'
p118
sg25
S'--'
p119
sg27
S'Patrick DiMarco'
p120
sg29
S'--'
p121
sg31
S'L0-38'
p122
sg33
S'15'
p123
sg35
g16
sg37
S'@CAR'
p124
sg39
S'10'
p125
sg41
S'--'
p126
sg43
S'--'
p127
ssS'17'
p128
(dp129
g5
S'7.0'
p130
sg7
S'--'
p131
sg9
g14
sg11
S'--'
p132
sg13
g14
sg15
g10
sg17
S'2015'
p133
sg19
S'17'
p134
sg21
S'--'
p135
sg23
S'01/03'
p136
sg25
S'--'
p137
sg27
S'Patrick DiMarco'
p138
sg29
S'--'
p139
sg31
S'L17-20'
p140
sg33
S'7'
p141
sg35
g14
sg37
S'NO'
p142
sg39
g141
sg41
S'--'
p143
sg43
S'--'
p144
ssS'16'
p145
(dp146
g5
S'--'
p147
sg7
S'--'
p148
sg9
g10
sg11
S'--'
p149
sg13
g14
sg15
S'--'
p150
sg17
S'2015'
p151
sg19
S'16'
p152
sg21
S'--'
p153
sg23
S'12/27'
p154
sg25
S'--'
p155
sg27
S'Patrick DiMarco'
p156
sg29
S'--'
p157
sg31
S'W20-13'
p158
sg33
S'--'
p159
sg35
S'--'
p160
sg37
S'CAR'
p161
sg39
S'--'
p162
sg41
S'--'
p163
sg43
S'--'
p164
ssg14
(dp165
g5
S'--'
p166
sg7
S'--'
p167
sg9
g14
sg11
S'--'
p168
sg13
g14
sg15
S'--'
p169
sg17
S'2015'
p170
sg19
g14
sg21
S'--'
p171
sg23
S'09/14'
p172
sg25
S'--'
p173
sg27
S'Patrick DiMarco'
p174
sg29
S'--'
p175
sg31
S'W26-24'
p176
sg33
S'--'
p177
sg35
S'--'
p178
sg37
S'PHI'
p179
sg39
S'--'
p180
sg41
S'--'
p181
sg43
S'--'
p182
ssg36
(dp183
g5
S'4.0'
p184
sg7
S'--'
p185
sg9
g10
sg11
S'--'
p186
sg13
g14
sg15
g10
sg17
S'2015'
p187
sg19
g36
sg21
S'--'
p188
sg23
S'09/27'
p189
sg25
S'--'
p190
sg27
S'Patrick DiMarco'
p191
sg29
S'--'
p192
sg31
S'W39-28'
p193
sg33
S'4'
p194
sg35
g14
sg37
S'@DAL'
p195
sg39
g194
sg41
S'--'
p196
sg43
S'--'
p197
ssg16
(dp198
g5
S'19.0'
p199
sg7
S'--'
p200
sg9
g10
sg11
S'--'
p201
sg13
g14
sg15
g10
sg17
S'2015'
p202
sg19
g16
sg21
S'--'
p203
sg23
S'09/20'
p204
sg25
S'--'
p205
sg27
S'Patrick DiMarco'
p206
sg29
S'--'
p207
sg31
S'W24-20'
p208
sg33
S'19'
p209
sg35
g14
sg37
S'@NYG'
p210
sg39
S'19'
p211
sg41
S'--'
p212
sg43
S'--'
p213
ssS'5'
p214
(dp215
g5
S'--'
p216
sg7
S'--'
p217
sg9
g10
sg11
S'--'
p218
sg13
g14
sg15
S'--'
p219
sg17
S'2015'
p220
sg19
g214
sg21
S'--'
p221
sg23
S'10/11'
p222
sg25
S'--'
p223
sg27
S'Patrick DiMarco'
p224
sg29
S'--'
p225
sg31
S'W25-19'
p226
sg33
S'--'
p227
sg35
S'--'
p228
sg37
S'WAS'
p229
sg39
S'--'
p230
sg41
S'--'
p231
sg43
S'--'
p232
ssg194
(dp233
g5
S'--'
p234
sg7
S'--'
p235
sg9
g14
sg11
S'--'
p236
sg13
g14
sg15
g10
sg17
S'2015'
p237
sg19
g194
sg21
S'--'
p238
sg23
S'10/04'
p239
sg25
S'--'
p240
sg27
S'Patrick DiMarco'
p241
sg29
S'--'
p242
sg31
S'W48-21'
p243
sg33
g10
sg35
g10
sg37
S'HOU'
p244
sg39
S'--'
p245
sg41
S'--'
p246
sg43
S'--'
p247
ssg141
(dp248
g5
S'--'
p249
sg7
S'--'
p250
sg9
g14
sg11
S'--'
p251
sg13
g14
sg15
S'--'
p252
sg17
S'2015'
p253
sg19
g141
sg21
S'0.0'
p254
sg23
S'10/25'
p255
sg25
g10
sg27
S'Patrick DiMarco'
p256
sg29
g14
sg31
S'W10-7'
p257
sg33
S'--'
p258
sg35
S'--'
p259
sg37
S'@TEN'
p260
sg39
S'--'
p261
sg41
g10
sg43
g10
ssS'6'
p262
(dp263
g5
S'9.0'
p264
sg7
S'--'
p265
sg9
g14
sg11
S'--'
p266
sg13
g14
sg15
g10
sg17
S'2015'
p267
sg19
g262
sg21
S'--'
p268
sg23
S'10/15'
p269
sg25
S'--'
p270
sg27
S'Patrick DiMarco'
p271
sg29
S'--'
p272
sg31
S'L21-31'
p273
sg33
S'18'
p274
sg35
g16
sg37
S'@NO'
p275
sg39
S'12'
p276
sg41
S'--'
p277
sg43
S'--'
p278
ssg67
(dp279
g5
S'--'
p280
sg7
S'--'
p281
sg9
g10
sg11
S'--'
p282
sg13
g14
sg15
S'--'
p283
sg17
S'2015'
p284
sg19
g67
sg21
S'--'
p285
sg23
S'11/08'
p286
sg25
S'--'
p287
sg27
S'Patrick DiMarco'
p288
sg29
S'--'
p289
sg31
S'L16-17'
p290
sg33
S'--'
p291
sg35
S'--'
p292
sg37
S'@SF'
p293
sg39
S'--'
p294
sg41
S'--'
p295
sg43
S'--'
p296
ssS'8'
p297
(dp298
g5
S'8.0'
p299
sg7
S'--'
p300
sg9
g10
sg11
S'--'
p301
sg13
g14
sg15
g10
sg17
S'2015'
p302
sg19
g297
sg21
S'--'
p303
sg23
S'11/01'
p304
sg25
S'--'
p305
sg27
S'Patrick DiMarco'
p306
sg29
S'--'
p307
sg31
S'L20-23'
p308
sg33
g297
sg35
g14
sg37
S'TB'
p309
sg39
g297
sg41
S'--'
p310
sg43
S'--'
p311
sssS'2014'
p312
(dp313
g3
(dp314
g5
S'7.0'
p315
sg7
S'--'
p316
sg9
g14
sg11
S'--'
p317
sg13
g14
sg15
g10
sg17
S'2014'
p318
sg19
S'11'
p319
sg21
S'--'
p320
sg23
S'11/16'
p321
sg25
S'--'
p322
sg27
S'Patrick DiMarco'
p323
sg29
S'--'
p324
sg31
S'W19-17'
p325
sg33
S'14'
p326
sg35
g16
sg37
S'@CAR'
p327
sg39
S'10'
p328
sg41
S'--'
p329
sg43
S'--'
p330
ssg45
(dp331
g5
S'--'
p332
sg7
S'--'
p333
sg9
g10
sg11
S'--'
p334
sg13
g14
sg15
g10
sg17
S'2014'
p335
sg19
S'10'
p336
sg21
S'--'
p337
sg23
S'11/09'
p338
sg25
S'--'
p339
sg27
S'Patrick DiMarco'
p340
sg29
S'--'
p341
sg31
S'W27-17'
p342
sg33
g10
sg35
g10
sg37
S'@TB'
p343
sg39
S'--'
p344
sg41
S'--'
p345
sg43
S'--'
p346
ssg52
(dp347
g5
S'--'
p348
sg7
S'--'
p349
sg9
g10
sg11
S'--'
p350
sg13
g14
sg15
g10
sg17
S'2014'
p351
sg19
S'13'
p352
sg21
S'--'
p353
sg23
S'11/30'
p354
sg25
S'--'
p355
sg27
S'Patrick DiMarco'
p356
sg29
S'--'
p357
sg31
S'W29-18'
p358
sg33
g10
sg35
g10
sg37
S'ARI'
p359
sg39
S'--'
p360
sg41
S'--'
p361
sg43
S'--'
p362
ssg70
(dp363
g5
S'--'
p364
sg7
S'--'
p365
sg9
g14
sg11
S'--'
p366
sg13
g14
sg15
S'--'
p367
sg17
S'2014'
p368
sg19
S'12'
p369
sg21
S'--'
p370
sg23
S'11/23'
p371
sg25
S'--'
p372
sg27
S'Patrick DiMarco'
p373
sg29
S'--'
p374
sg31
S'L24-26'
p375
sg33
S'--'
p376
sg35
S'--'
p377
sg37
S'CLE'
p378
sg39
S'--'
p379
sg41
S'--'
p380
sg43
S'--'
p381
ssg90
(dp382
g5
S'--'
p383
sg7
S'--'
p384
sg9
g10
sg11
S'--'
p385
sg13
g14
sg15
S'--'
p386
sg17
S'2014'
p387
sg19
S'15'
p388
sg21
S'--'
p389
sg23
S'12/14'
p390
sg25
S'--'
p391
sg27
S'Patrick DiMarco'
p392
sg29
S'--'
p393
sg31
S'L20-27'
p394
sg33
S'--'
p395
sg35
S'--'
p396
sg37
S'PIT'
p397
sg39
S'--'
p398
sg41
S'--'
p399
sg43
S'--'
p400
ssg110
(dp401
g5
S'9.0'
p402
sg7
S'--'
p403
sg9
g10
sg11
S'--'
p404
sg13
g14
sg15
g10
sg17
S'2014'
p405
sg19
S'14'
p406
sg21
S'--'
p407
sg23
S'12/08'
p408
sg25
S'--'
p409
sg27
S'Patrick DiMarco'
p410
sg29
S'--'
p411
sg31
S'L37-43'
p412
sg33
g67
sg35
g14
sg37
S'@GB'
p413
sg39
g67
sg41
S'--'
p414
sg43
S'--'
p415
ssg128
(dp416
g5
S'--'
p417
sg7
S'--'
p418
sg9
g14
sg11
S'--'
p419
sg13
g14
sg15
g10
sg17
S'2014'
p420
sg19
S'17'
p421
sg21
S'--'
p422
sg23
S'12/28'
p423
sg25
S'--'
p424
sg27
S'Patrick DiMarco'
p425
sg29
S'--'
p426
sg31
S'L3-34'
p427
sg33
g10
sg35
g10
sg37
S'CAR'
p428
sg39
S'--'
p429
sg41
S'--'
p430
sg43
S'--'
p431
ssg145
(dp432
g5
S'3.0'
p433
sg7
S'--'
p434
sg9
g10
sg11
S'--'
p435
sg13
g14
sg15
g10
sg17
S'2014'
p436
sg19
S'16'
p437
sg21
S'--'
p438
sg23
S'12/21'
p439
sg25
S'--'
p440
sg27
S'Patrick DiMarco'
p441
sg29
S'--'
p442
sg31
S'W30-14'
p443
sg33
g36
sg35
g14
sg37
S'@NO'
p444
sg39
g36
sg41
S'--'
p445
sg43
S'--'
p446
ssg14
(dp447
g5
S'--'
p448
sg7
S'--'
p449
sg9
g10
sg11
S'--'
p450
sg13
g14
sg15
S'--'
p451
sg17
S'2014'
p452
sg19
g14
sg21
S'--'
p453
sg23
S'09/07'
p454
sg25
S'--'
p455
sg27
S'Patrick DiMarco'
p456
sg29
S'--'
p457
sg31
S'W37-34'
p458
sg33
S'--'
p459
sg35
S'--'
p460
sg37
S'NO'
p461
sg39
S'--'
p462
sg41
S'--'
p463
sg43
S'--'
p464
ssg36
(dp465
g5
S'11.7'
p466
sg7
S'--'
p467
sg9
g14
sg11
S'--'
p468
sg13
g14
sg15
g10
sg17
S'2014'
p469
sg19
g36
sg21
S'--'
p470
sg23
S'09/18'
p471
sg25
S'--'
p472
sg27
S'Patrick DiMarco'
p473
sg29
S'--'
p474
sg31
S'W56-14'
p475
sg33
S'35'
p476
sg35
g36
sg37
S'TB'
p477
sg39
S'16'
p478
sg41
S'--'
p479
sg43
S'--'
p480
ssg16
(dp481
g5
S'--'
p482
sg7
S'--'
p483
sg9
g14
sg11
S'--'
p484
sg13
g14
sg15
S'--'
p485
sg17
S'2014'
p486
sg19
g16
sg21
S'--'
p487
sg23
S'09/14'
p488
sg25
S'--'
p489
sg27
S'Patrick DiMarco'
p490
sg29
S'--'
p491
sg31
S'L10-24'
p492
sg33
S'--'
p493
sg35
S'--'
p494
sg37
S'@CIN'
p495
sg39
S'--'
p496
sg41
S'--'
p497
sg43
S'--'
p498
ssg214
(dp499
g5
S'--'
p500
sg7
S'--'
p501
sg9
g14
sg11
S'--'
p502
sg13
g14
sg15
S'--'
p503
sg17
S'2014'
p504
sg19
g214
sg21
S'--'
p505
sg23
S'10/05'
p506
sg25
S'--'
p507
sg27
S'Patrick DiMarco'
p508
sg29
S'--'
p509
sg31
S'L20-30'
p510
sg33
S'--'
p511
sg35
S'--'
p512
sg37
S'@NYG'
p513
sg39
S'--'
p514
sg41
S'--'
p515
sg43
S'--'
p516
ssg194
(dp517
g5
S'1.0'
p518
sg7
S'--'
p519
sg9
g10
sg11
S'--'
p520
sg13
g14
sg15
g14
sg17
S'2014'
p521
sg19
g194
sg21
S'--'
p522
sg23
S'09/28'
p523
sg25
S'--'
p524
sg27
S'Patrick DiMarco'
p525
sg29
S'--'
p526
sg31
S'L28-41'
p527
sg33
g14
sg35
g14
sg37
S'@MIN'
p528
sg39
S'1T'
p529
sg41
S'--'
p530
sg43
S'--'
p531
ssg141
(dp532
g5
S'--'
p533
sg7
S'--'
p534
sg9
g10
sg11
S'--'
p535
sg13
g14
sg15
S'--'
p536
sg17
S'2014'
p537
sg19
g141
sg21
S'--'
p538
sg23
S'10/19'
p539
sg25
S'--'
p540
sg27
S'Patrick DiMarco'
p541
sg29
S'--'
p542
sg31
S'L7-29'
p543
sg33
S'--'
p544
sg35
S'--'
p545
sg37
S'@BAL'
p546
sg39
S'--'
p547
sg41
S'--'
p548
sg43
S'--'
p549
ssg262
(dp550
g5
S'--'
p551
sg7
S'--'
p552
sg9
g10
sg11
S'--'
p553
sg13
g14
sg15
S'--'
p554
sg17
S'2014'
p555
sg19
g262
sg21
S'--'
p556
sg23
S'10/12'
p557
sg25
S'--'
p558
sg27
S'Patrick DiMarco'
p559
sg29
S'--'
p560
sg31
S'L13-27'
p561
sg33
S'--'
p562
sg35
S'--'
p563
sg37
S'CHI'
p564
sg39
S'--'
p565
sg41
S'--'
p566
sg43
S'--'
p567
ssg67
(dp568
g5
g47
sg7
g47
sg9
g47
sg11
g47
sg13
g47
sg15
g47
sg17
S'2014'
p569
sg19
g67
sg21
g47
sg23
S'Bye'
p570
sg25
g47
sg27
S'Patrick DiMarco'
p571
sg29
g47
sg31
g47
sg33
g47
sg35
g47
sg37
g47
sg39
g47
sg41
g47
sg43
g47
ssg297
(dp572
g5
S'0.0'
p573
sg7
S'--'
p574
sg9
g14
sg11
S'--'
p575
sg13
g14
sg15
g10
sg17
S'2014'
p576
sg19
g297
sg21
S'--'
p577
sg23
S'10/26'
p578
sg25
S'--'
p579
sg27
S'Patrick DiMarco'
p580
sg29
S'--'
p581
sg31
S'L21-22'
p582
sg33
g10
sg35
g14
sg37
S'DET'
p583
sg39
g10
sg41
S'--'
p584
sg43
S'--'
p585
sssS'2013'
p586
(dp587
g3
(dp588
g5
S'--'
p589
sg7
S'--'
p590
sg9
g10
sg11
S'--'
p591
sg13
g14
sg15
S'--'
p592
sg17
S'2013'
p593
sg19
S'11'
p594
sg21
S'--'
p595
sg23
S'11/17'
p596
sg25
S'--'
p597
sg27
S'Patrick DiMarco'
p598
sg29
S'--'
p599
sg31
S'L28-41'
p600
sg33
S'--'
p601
sg35
S'--'
p602
sg37
S'@TB'
p603
sg39
S'--'
p604
sg41
S'--'
p605
sg43
S'--'
p606
ssg45
(dp607
g5
S'--'
p608
sg7
S'--'
p609
sg9
g14
sg11
S'--'
p610
sg13
g14
sg15
S'--'
p611
sg17
S'2013'
p612
sg19
S'10'
p613
sg21
S'--'
p614
sg23
S'11/10'
p615
sg25
S'--'
p616
sg27
S'Patrick DiMarco'
p617
sg29
S'--'
p618
sg31
S'L10-33'
p619
sg33
S'--'
p620
sg35
S'--'
p621
sg37
S'SEA'
p622
sg39
S'--'
p623
sg41
S'--'
p624
sg43
S'--'
p625
ssg52
(dp626
g5
S'5.0'
p627
sg7
S'--'
p628
sg9
g10
sg11
S'--'
p629
sg13
g14
sg15
g10
sg17
S'2013'
p630
sg19
S'13'
p631
sg21
S'--'
p632
sg23
S'12/01'
p633
sg25
S'--'
p634
sg27
S'Patrick DiMarco'
p635
sg29
S'--'
p636
sg31
S'W34-31'
p637
sg33
g214
sg35
g14
sg37
S'@BUF'
p638
sg39
g214
sg41
S'--'
p639
sg43
S'--'
p640
ssg70
(dp641
g5
S'--'
p642
sg7
S'--'
p643
sg9
g10
sg11
S'--'
p644
sg13
g14
sg15
S'--'
p645
sg17
S'2013'
p646
sg19
S'12'
p647
sg21
S'--'
p648
sg23
S'11/21'
p649
sg25
S'--'
p650
sg27
S'Patrick DiMarco'
p651
sg29
S'--'
p652
sg31
S'L13-17'
p653
sg33
S'--'
p654
sg35
S'--'
p655
sg37
S'NO'
p656
sg39
S'--'
p657
sg41
S'--'
p658
sg43
S'--'
p659
ssg90
(dp660
g5
S'7.0'
p661
sg7
S'--'
p662
sg9
g10
sg11
S'--'
p663
sg13
g14
sg15
g10
sg17
S'2013'
p664
sg19
S'15'
p665
sg21
S'--'
p666
sg23
S'12/15'
p667
sg25
S'--'
p668
sg27
S'Patrick DiMarco'
p669
sg29
S'--'
p670
sg31
S'W27-26'
p671
sg33
g141
sg35
g14
sg37
S'WAS'
p672
sg39
g141
sg41
S'--'
p673
sg43
S'--'
p674
ssg110
(dp675
g5
S'7.0'
p676
sg7
S'--'
p677
sg9
g14
sg11
S'--'
p678
sg13
g14
sg15
g10
sg17
S'2013'
p679
sg19
S'14'
p680
sg21
S'--'
p681
sg23
S'12/08'
p682
sg25
S'--'
p683
sg27
S'Patrick DiMarco'
p684
sg29
S'--'
p685
sg31
S'L21-22'
p686
sg33
g141
sg35
g14
sg37
S'@GB'
p687
sg39
g141
sg41
S'--'
p688
sg43
S'--'
p689
ssg128
(dp690
g5
S'3.0'
p691
sg7
S'--'
p692
sg9
g10
sg11
S'--'
p693
sg13
g14
sg15
g10
sg17
S'2013'
p694
sg19
S'17'
p695
sg21
S'--'
p696
sg23
S'12/29'
p697
sg25
S'--'
p698
sg27
S'Patrick DiMarco'
p699
sg29
S'--'
p700
sg31
S'L20-21'
p701
sg33
g36
sg35
g14
sg37
S'CAR'
p702
sg39
g36
sg41
S'--'
p703
sg43
S'--'
p704
ssg145
(dp705
g5
S'2.0'
p706
sg7
S'--'
p707
sg9
g14
sg11
S'--'
p708
sg13
g14
sg15
g10
sg17
S'2013'
p709
sg19
S'16'
p710
sg21
S'--'
p711
sg23
S'12/23'
p712
sg25
S'--'
p713
sg27
S'Patrick DiMarco'
p714
sg29
S'--'
p715
sg31
S'L24-34'
p716
sg33
g16
sg35
g14
sg37
S'@SF'
p717
sg39
g16
sg41
S'--'
p718
sg43
S'--'
p719
ssg36
(dp720
g5
S'--'
p721
sg7
S'--'
p722
sg9
g10
sg11
S'--'
p723
sg13
g14
sg15
S'--'
p724
sg17
S'2013'
p725
sg19
g36
sg21
S'--'
p726
sg23
S'09/22'
p727
sg25
S'--'
p728
sg27
S'Patrick DiMarco'
p729
sg29
S'--'
p730
sg31
S'L23-27'
p731
sg33
S'--'
p732
sg35
S'--'
p733
sg37
S'@MIA'
p734
sg39
S'--'
p735
sg41
S'--'
p736
sg43
S'--'
p737
ssg214
(dp738
g5
S'12.0'
p739
sg7
S'--'
p740
sg9
g14
sg11
S'--'
p741
sg13
g14
sg15
g10
sg17
S'2013'
p742
sg19
g214
sg21
S'--'
p743
sg23
S'10/07'
p744
sg25
S'--'
p745
sg27
S'Patrick DiMarco'
p746
sg29
S'--'
p747
sg31
S'L28-30'
p748
sg33
S'12'
p749
sg35
g14
sg37
S'NYJ'
p750
sg39
S'12'
p751
sg41
S'--'
p752
sg43
S'--'
p753
ssg194
(dp754
g5
S'--'
p755
sg7
S'--'
p756
sg9
g10
sg11
S'--'
p757
sg13
g14
sg15
S'--'
p758
sg17
S'2013'
p759
sg19
g194
sg21
S'--'
p760
sg23
S'09/29'
p761
sg25
S'--'
p762
sg27
S'Patrick DiMarco'
p763
sg29
S'--'
p764
sg31
S'L23-30'
p765
sg33
S'--'
p766
sg35
S'--'
p767
sg37
S'NE'
p768
sg39
S'--'
p769
sg41
S'--'
p770
sg43
S'--'
p771
ssg141
(dp772
g5
S'--'
p773
sg7
S'--'
p774
sg9
g14
sg11
S'--'
p775
sg13
g14
sg15
S'--'
p776
sg17
S'2013'
p777
sg19
g141
sg21
S'--'
p778
sg23
S'10/20'
p779
sg25
S'--'
p780
sg27
S'Patrick DiMarco'
p781
sg29
S'--'
p782
sg31
S'W31-23'
p783
sg33
S'--'
p784
sg35
S'--'
p785
sg37
S'TB'
p786
sg39
S'--'
p787
sg41
S'--'
p788
sg43
S'--'
p789
ssg262
(dp790
g5
g47
sg7
g47
sg9
g47
sg11
g47
sg13
g47
sg15
g47
sg17
S'2013'
p791
sg19
g262
sg21
g47
sg23
S'Bye'
p792
sg25
g47
sg27
S'Patrick DiMarco'
p793
sg29
g47
sg31
g47
sg33
g47
sg35
g47
sg37
g47
sg39
g47
sg41
g47
sg43
g47
ssg67
(dp794
g5
S'--'
p795
sg7
S'--'
p796
sg9
g14
sg11
S'--'
p797
sg13
g14
sg15
g10
sg17
S'2013'
p798
sg19
g67
sg21
S'--'
p799
sg23
S'11/03'
p800
sg25
S'--'
p801
sg27
S'Patrick DiMarco'
p802
sg29
S'--'
p803
sg31
S'L10-34'
p804
sg33
g10
sg35
g10
sg37
S'@CAR'
p805
sg39
S'--'
p806
sg41
S'--'
p807
sg43
S'--'
p808
ssg297
(dp809
g5
S'6.5'
p810
sg7
S'--'
p811
sg9
g14
sg11
S'--'
p812
sg13
g14
sg15
g10
sg17
S'2013'
p813
sg19
g297
sg21
S'--'
p814
sg23
S'10/27'
p815
sg25
S'--'
p816
sg27
S'Patrick DiMarco'
p817
sg29
S'--'
p818
sg31
S'L13-27'
p819
sg33
S'13'
p820
sg35
g16
sg37
S'@ARI'
p821
sg39
S'11'
p822
sg41
S'--'
p823
sg43
S'--'
p824
sssS'2012'
p825
(dp826
g52
(dp827
g5
S'--'
p828
sg7
S'--'
p829
sg9
g14
sg11
S'--'
p830
sg13
g14
sg15
g10
sg17
S'2012'
p831
sg19
S'13'
p832
sg21
S'--'
p833
sg23
S'12/02'
p834
sg25
S'--'
p835
sg27
S'Patrick DiMarco'
p836
sg29
S'--'
p837
sg31
S'W27-21'
p838
sg33
g10
sg35
g10
sg37
S'CAR'
p839
sg39
S'--'
p840
sg41
S'--'
p841
sg43
S'--'
p842
ssg90
(dp843
g5
S'--'
p844
sg7
S'--'
p845
sg9
g10
sg11
S'--'
p846
sg13
g14
sg15
S'--'
p847
sg17
S'2012'
p848
sg19
S'15'
p849
sg21
S'--'
p850
sg23
S'12/16'
p851
sg25
S'--'
p852
sg27
S'Patrick DiMarco'
p853
sg29
S'--'
p854
sg31
S'L0-15'
p855
sg33
S'--'
p856
sg35
S'--'
p857
sg37
S'@OAK'
p858
sg39
S'--'
p859
sg41
S'--'
p860
sg43
S'--'
p861
ssg110
(dp862
g5
S'--'
p863
sg7
S'--'
p864
sg9
g14
sg11
S'--'
p865
sg13
g14
sg15
S'--'
p866
sg17
S'2012'
p867
sg19
S'14'
p868
sg21
S'--'
p869
sg23
S'12/09'
p870
sg25
S'--'
p871
sg27
S'Patrick DiMarco'
p872
sg29
S'--'
p873
sg31
S'L7-30'
p874
sg33
S'--'
p875
sg35
S'--'
p876
sg37
S'@CLE'
p877
sg39
S'--'
p878
sg41
S'--'
p879
sg43
S'--'
p880
ssg128
(dp881
g5
S'--'
p882
sg7
S'--'
p883
sg9
g14
sg11
S'--'
p884
sg13
g14
sg15
S'--'
p885
sg17
S'2012'
p886
sg19
S'17'
p887
sg21
S'--'
p888
sg23
S'12/30'
p889
sg25
S'--'
p890
sg27
S'Patrick DiMarco'
p891
sg29
S'--'
p892
sg31
S'L3-38'
p893
sg33
S'--'
p894
sg35
S'--'
p895
sg37
S'@DEN'
p896
sg39
S'--'
p897
sg41
S'--'
p898
sg43
S'--'
p899
ssg145
(dp900
g5
S'--'
p901
sg7
S'--'
p902
sg9
g14
sg11
S'--'
p903
sg13
g14
sg15
S'--'
p904
sg17
S'2012'
p905
sg19
S'16'
p906
sg21
S'--'
p907
sg23
S'12/23'
p908
sg25
S'--'
p909
sg27
S'Patrick DiMarco'
p910
sg29
S'--'
p911
sg31
S'L13-20'
p912
sg33
S'--'
p913
sg35
S'--'
p914
sg37
S'IND'
p915
sg39
S'--'
p916
sg41
S'--'
p917
sg43
S'--'
p918
sss.