(dp0
S'2015'
p1
(dp2
S'11'
p3
(dp4
S'RecAvg'
p5
S'--'
p6
sS'FUM'
p7
S'--'
p8
sS'GS'
p9
S'0'
p10
sS'Lost'
p11
S'--'
p12
sS'G'
p13
S'1'
p14
sS'RecTD'
p15
S'--'
p16
sS'Year'
p17
S'2015'
p18
sS'WK'
p19
S'11'
p20
sS'RushAvg'
p21
S'--'
p22
sS'Game Date'
p23
S'11/22'
p24
sS'RushTD'
p25
S'--'
p26
sS'Player'
p27
S'Raheem Mostert'
p28
sS'RushAtt'
p29
S'--'
p30
sS'Result'
p31
S'W16-13'
p32
sS'RecYds'
p33
S'--'
p34
sS'Rec'
p35
S'--'
p36
sS'Opp'
p37
S'STL'
p38
sS'RecLng'
p39
S'--'
p40
sS'RushYds'
p41
S'--'
p42
sS'RushLng'
p43
S'--'
p44
ssS'10'
p45
(dp46
g5
S'--'
p47
sg7
S'--'
p48
sg9
g10
sg11
S'--'
p49
sg13
g14
sg15
S'--'
p50
sg17
S'2015'
p51
sg19
S'10'
p52
sg21
S'--'
p53
sg23
S'11/15'
p54
sg25
S'--'
p55
sg27
S'Raheem Mostert'
p56
sg29
S'--'
p57
sg31
S'L20-22'
p58
sg33
S'--'
p59
sg35
S'--'
p60
sg37
S'JAC'
p61
sg39
S'--'
p62
sg41
S'--'
p63
sg43
S'--'
p64
ssS'13'
p65
(dp66
g5
S'--'
p67
sg7
S'--'
p68
sg9
g10
sg11
S'--'
p69
sg13
g14
sg15
S'--'
p70
sg17
S'2015'
p71
sg19
S'13'
p72
sg21
S'--'
p73
sg23
S'12/06'
p74
sg25
S'--'
p75
sg27
S'Raheem Mostert'
p76
sg29
S'--'
p77
sg31
S'L13-15'
p78
sg33
S'--'
p79
sg35
S'--'
p80
sg37
S'@MIA'
p81
sg39
S'--'
p82
sg41
S'--'
p83
sg43
S'--'
p84
ssS'12'
p85
(dp86
g5
S'--'
p87
sg7
S'--'
p88
sg9
g10
sg11
S'--'
p89
sg13
g14
sg15
S'--'
p90
sg17
S'2015'
p91
sg19
S'12'
p92
sg21
S'--'
p93
sg23
S'11/30'
p94
sg25
S'--'
p95
sg27
S'Raheem Mostert'
p96
sg29
S'--'
p97
sg31
S'W33-27'
p98
sg33
S'--'
p99
sg35
S'--'
p100
sg37
S'@CLE'
p101
sg39
S'--'
p102
sg41
S'--'
p103
sg43
S'--'
p104
ssS'15'
p105
(dp106
g5
S'--'
p107
sg7
S'--'
p108
sg9
g10
sg11
S'--'
p109
sg13
g14
sg15
S'--'
p110
sg17
S'2015'
p111
sg19
S'15'
p112
sg21
S'--'
p113
sg23
S'12/20'
p114
sg25
S'--'
p115
sg27
S'Raheem Mostert'
p116
sg29
S'--'
p117
sg31
S'L13-30'
p118
sg33
S'--'
p119
sg35
S'--'
p120
sg37
S'@SEA'
p121
sg39
S'--'
p122
sg41
S'--'
p123
sg43
S'--'
p124
ssS'14'
p125
(dp126
g5
S'--'
p127
sg7
S'--'
p128
sg9
g10
sg11
S'--'
p129
sg13
g14
sg15
S'--'
p130
sg17
S'2015'
p131
sg19
S'14'
p132
sg21
S'--'
p133
sg23
S'12/13'
p134
sg25
S'--'
p135
sg27
S'Raheem Mostert'
p136
sg29
S'--'
p137
sg31
S'L6-35'
p138
sg33
S'--'
p139
sg35
S'--'
p140
sg37
S'SEA'
p141
sg39
S'--'
p142
sg41
S'--'
p143
sg43
S'--'
p144
ssS'17'
p145
(dp146
g5
S'--'
p147
sg7
g14
sg9
g10
sg11
g14
sg13
g14
sg15
S'--'
p148
sg17
S'2015'
p149
sg19
S'17'
p150
sg21
S'--'
p151
sg23
S'01/03'
p152
sg25
S'--'
p153
sg27
S'Raheem Mostert'
p154
sg29
S'--'
p155
sg31
S'L12-28'
p156
sg33
S'--'
p157
sg35
S'--'
p158
sg37
S'PIT'
p159
sg39
S'--'
p160
sg41
S'--'
p161
sg43
S'--'
p162
ssS'16'
p163
(dp164
g5
S'--'
p165
sg7
S'--'
p166
sg9
g10
sg11
S'--'
p167
sg13
g14
sg15
S'--'
p168
sg17
S'2015'
p169
sg19
S'16'
p170
sg21
S'--'
p171
sg23
S'12/27'
p172
sg25
S'--'
p173
sg27
S'Raheem Mostert'
p174
sg29
S'--'
p175
sg31
S'L13-17'
p176
sg33
S'--'
p177
sg35
S'--'
p178
sg37
S'@KC'
p179
sg39
S'--'
p180
sg41
S'--'
p181
sg43
S'--'
p182
ssS'3'
p183
(dp184
g5
S'--'
p185
sg7
S'--'
p186
sg9
g10
sg11
S'--'
p187
sg13
g10
sg15
S'--'
p188
sg17
S'2015'
p189
sg19
g183
sg21
S'--'
p190
sg23
S'09/27'
p191
sg25
S'--'
p192
sg27
S'Raheem Mostert'
p193
sg29
S'--'
p194
sg31
S'L14-41'
p195
sg33
S'--'
p196
sg35
S'--'
p197
sg37
S'BUF'
p198
sg39
S'--'
p199
sg41
S'--'
p200
sg43
S'--'
p201
ssS'2'
p202
(dp203
g5
S'--'
p204
sg7
S'--'
p205
sg9
g10
sg11
S'--'
p206
sg13
g14
sg15
S'--'
p207
sg17
S'2015'
p208
sg19
g202
sg21
S'--'
p209
sg23
S'09/20'
p210
sg25
S'--'
p211
sg27
S'Raheem Mostert'
p212
sg29
S'--'
p213
sg31
S'L20-23'
p214
sg33
S'--'
p215
sg35
S'--'
p216
sg37
S'@JAC'
p217
sg39
S'--'
p218
sg41
S'--'
p219
sg43
S'--'
p220
ssS'4'
p221
(dp222
g5
S'--'
p223
sg7
S'--'
p224
sg9
g10
sg11
S'--'
p225
sg13
g10
sg15
S'--'
p226
sg17
S'2015'
p227
sg19
g221
sg21
S'--'
p228
sg23
S'10/04'
p229
sg25
S'--'
p230
sg27
S'Raheem Mostert'
p231
sg29
S'--'
p232
sg31
S'L14-27'
p233
sg33
S'--'
p234
sg35
S'--'
p235
sg37
S'NYJ'
p236
sg39
S'--'
p237
sg41
S'--'
p238
sg43
S'--'
p239
ssS'7'
p240
(dp241
g5
S'--'
p242
sg7
S'--'
p243
sg9
g10
sg11
S'--'
p244
sg13
g14
sg15
S'--'
p245
sg17
S'2015'
p246
sg19
g240
sg21
S'--'
p247
sg23
S'10/26'
p248
sg25
S'--'
p249
sg27
S'Raheem Mostert'
p250
sg29
S'--'
p251
sg31
S'L18-26'
p252
sg33
S'--'
p253
sg35
S'--'
p254
sg37
S'@ARI'
p255
sg39
S'--'
p256
sg41
S'--'
p257
sg43
S'--'
p258
ssS'6'
p259
(dp260
g5
S'--'
p261
sg7
S'--'
p262
sg9
g10
sg11
S'--'
p263
sg13
g10
sg15
S'--'
p264
sg17
S'2015'
p265
sg19
g259
sg21
S'--'
p266
sg23
S'10/18'
p267
sg25
S'--'
p268
sg27
S'Raheem Mostert'
p269
sg29
S'--'
p270
sg31
S'L20-25'
p271
sg33
S'--'
p272
sg35
S'--'
p273
sg37
S'@SF'
p274
sg39
S'--'
p275
sg41
S'--'
p276
sg43
S'--'
p277
ssS'9'
p278
(dp279
g5
S''
p280
sg7
g280
sg9
g280
sg11
g280
sg13
g280
sg15
g280
sg17
S'2015'
p281
sg19
g278
sg21
g280
sg23
S'Bye'
p282
sg25
g280
sg27
S'Raheem Mostert'
p283
sg29
g280
sg31
g280
sg33
g280
sg35
g280
sg37
g280
sg39
g280
sg41
g280
sg43
g280
ssS'8'
p284
(dp285
g5
S'--'
p286
sg7
S'--'
p287
sg9
g10
sg11
S'--'
p288
sg13
g14
sg15
S'--'
p289
sg17
S'2015'
p290
sg19
g284
sg21
S'--'
p291
sg23
S'11/01'
p292
sg25
S'--'
p293
sg27
S'Raheem Mostert'
p294
sg29
S'--'
p295
sg31
S'W29-26'
p296
sg33
S'--'
p297
sg35
S'--'
p298
sg37
S'SD'
p299
sg39
S'--'
p300
sg41
S'--'
p301
sg43
S'--'
p302
sss.