(dp0
S'2015'
p1
(dp2
S'11'
p3
(dp4
S'RecAvg'
p5
S''
p6
sS'FUM'
p7
g6
sS'GS'
p8
g6
sS'Lost'
p9
g6
sS'G'
p10
g6
sS'RecTD'
p11
g6
sS'Year'
p12
S'2015'
p13
sS'WK'
p14
S'11'
p15
sS'RushAvg'
p16
g6
sS'Game Date'
p17
S'Bye'
p18
sS'RushTD'
p19
g6
sS'Player'
p20
S'Rashad Jennings'
p21
sS'RushAtt'
p22
g6
sS'Result'
p23
g6
sS'RecYds'
p24
g6
sS'Rec'
p25
g6
sS'Opp'
p26
g6
sS'RecLng'
p27
g6
sS'RushYds'
p28
g6
sS'RushLng'
p29
g6
ssS'10'
p30
(dp31
g5
S'6.0'
p32
sg7
S'1'
p33
sg8
g33
sg9
S'0'
p34
sg10
g33
sg11
g34
sg12
S'2015'
p35
sg14
S'10'
p36
sg16
S'3.5'
p37
sg17
S'11/15'
p38
sg19
g34
sg20
S'Rashad Jennings'
p39
sg22
S'11'
p40
sg23
S'L26-27'
p41
sg24
S'12'
p42
sg25
S'2'
p43
sg26
S'NE'
p44
sg27
S'7'
p45
sg28
S'39'
p46
sg29
S'6'
p47
ssS'13'
p48
(dp49
g5
S'19.0'
p50
sg7
S'--'
p51
sg8
g33
sg9
S'--'
p52
sg10
g33
sg11
g34
sg12
S'2015'
p53
sg14
S'13'
p54
sg16
S'2.8'
p55
sg17
S'12/06'
p56
sg19
g34
sg20
S'Rashad Jennings'
p57
sg22
S'5'
p58
sg23
S'L20-23'
p59
sg24
S'19'
p60
sg25
g33
sg26
S'NYJ'
p61
sg27
S'19'
p62
sg28
S'14'
p63
sg29
g58
ssS'12'
p64
(dp65
g5
S'7.0'
p66
sg7
S'--'
p67
sg8
g33
sg9
S'--'
p68
sg10
g33
sg11
g34
sg12
S'2015'
p69
sg14
S'12'
p70
sg16
S'2.3'
p71
sg17
S'11/29'
p72
sg19
g34
sg20
S'Rashad Jennings'
p73
sg22
g47
sg23
S'L14-20'
p74
sg24
S'14'
p75
sg25
g43
sg26
S'@WAS'
p76
sg27
S'9'
p77
sg28
S'14'
p78
sg29
g58
ssS'15'
p79
(dp80
g5
S'0.0'
p81
sg7
g33
sg8
g33
sg9
g33
sg10
g33
sg11
g34
sg12
S'2015'
p82
sg14
S'15'
p83
sg16
S'6.7'
p84
sg17
S'12/20'
p85
sg19
g33
sg20
S'Rashad Jennings'
p86
sg22
S'16'
p87
sg23
S'L35-38'
p88
sg24
g34
sg25
g33
sg26
S'CAR'
p89
sg27
g34
sg28
S'107'
p90
sg29
S'38T'
p91
ssS'14'
p92
(dp93
g5
S'10.5'
p94
sg7
S'--'
p95
sg8
g33
sg9
S'--'
p96
sg10
g33
sg11
g34
sg12
S'2015'
p97
sg14
S'14'
p98
sg16
S'3.7'
p99
sg17
S'12/14'
p100
sg19
g34
sg20
S'Rashad Jennings'
p101
sg22
S'22'
p102
sg23
S'W31-24'
p103
sg24
S'21'
p104
sg25
g43
sg26
S'@MIA'
p105
sg27
S'19'
p106
sg28
S'81'
p107
sg29
S'21'
p108
ssS'17'
p109
(dp110
g5
S'3.0'
p111
sg7
S'--'
p112
sg8
g33
sg9
S'--'
p113
sg10
g33
sg11
g34
sg12
S'2015'
p114
sg14
S'17'
p115
sg16
S'6.3'
p116
sg17
S'01/03'
p117
sg19
g33
sg20
S'Rashad Jennings'
p118
sg22
S'27'
p119
sg23
S'L30-35'
p120
sg24
g47
sg25
g43
sg26
S'PHI'
p121
sg27
S'3'
p122
sg28
S'170'
p123
sg29
S'35'
p124
ssS'16'
p125
(dp126
g5
S'31.0'
p127
sg7
S'--'
p128
sg8
g33
sg9
S'--'
p129
sg10
g33
sg11
g34
sg12
S'2015'
p130
sg14
S'16'
p131
sg16
S'5.3'
p132
sg17
S'12/27'
p133
sg19
g34
sg20
S'Rashad Jennings'
p134
sg22
S'14'
p135
sg23
S'L17-49'
p136
sg24
S'62'
p137
sg25
g43
sg26
S'@MIN'
p138
sg27
S'50'
p139
sg28
S'74'
p140
sg29
S'16'
p141
ssg33
(dp142
g5
S'--'
p143
sg7
S'--'
p144
sg8
g33
sg9
S'--'
p145
sg10
g33
sg11
g34
sg12
S'2015'
p146
sg14
g33
sg16
S'4.0'
p147
sg17
S'09/13'
p148
sg19
g33
sg20
S'Rashad Jennings'
p149
sg22
S'13'
p150
sg23
S'L26-27'
p151
sg24
g34
sg25
g34
sg26
S'@DAL'
p152
sg27
S'--'
p153
sg28
S'52'
p154
sg29
S'27'
p155
ssg122
(dp156
g5
S'8.3'
p157
sg7
S'--'
p158
sg8
g33
sg9
S'--'
p159
sg10
g33
sg11
g34
sg12
S'2015'
p160
sg14
g122
sg16
S'2.9'
p161
sg17
S'09/24'
p162
sg19
g34
sg20
S'Rashad Jennings'
p163
sg22
S'11'
p164
sg23
S'W32-21'
p165
sg24
S'25'
p166
sg25
g122
sg26
S'WAS'
p167
sg27
S'18'
p168
sg28
S'32'
p169
sg29
g77
ssg43
(dp170
g5
S'6.0'
p171
sg7
S'--'
p172
sg8
g33
sg9
S'--'
p173
sg10
g33
sg11
g34
sg12
S'2015'
p174
sg14
g43
sg16
S'1.3'
p175
sg17
S'09/20'
p176
sg19
g34
sg20
S'Rashad Jennings'
p177
sg22
g77
sg23
S'L20-24'
p178
sg24
S'12'
p179
sg25
g43
sg26
S'ATL'
p180
sg27
g77
sg28
S'12'
p181
sg29
g47
ssg58
(dp182
g5
S'5.3'
p183
sg7
S'--'
p184
sg8
g33
sg9
S'--'
p185
sg10
g33
sg11
g34
sg12
S'2015'
p186
sg14
g58
sg16
S'4.2'
p187
sg17
S'10/11'
p188
sg19
g34
sg20
S'Rashad Jennings'
p189
sg22
S'11'
p190
sg23
S'W30-27'
p191
sg24
S'21'
p192
sg25
S'4'
p193
sg26
S'SF'
p194
sg27
g47
sg28
S'46'
p195
sg29
g45
ssg193
(dp196
g5
S'27.0'
p197
sg7
S'--'
p198
sg8
g33
sg9
S'--'
p199
sg10
g33
sg11
g33
sg12
S'2015'
p200
sg14
g193
sg16
S'4.2'
p201
sg17
S'10/04'
p202
sg19
g34
sg20
S'Rashad Jennings'
p203
sg22
g77
sg23
S'W24-10'
p204
sg24
S'54'
p205
sg25
g43
sg26
S'@BUF'
p206
sg27
S'51T'
p207
sg28
S'38'
p208
sg29
S'14'
p209
ssg45
(dp210
g5
S'--'
p211
sg7
S'--'
p212
sg8
g33
sg9
S'--'
p213
sg10
g33
sg11
S'--'
p214
sg12
S'2015'
p215
sg14
g45
sg16
S'3.8'
p216
sg17
S'10/25'
p217
sg19
g34
sg20
S'Rashad Jennings'
p218
sg22
g58
sg23
S'W27-20'
p219
sg24
S'--'
p220
sg25
S'--'
p221
sg26
S'DAL'
p222
sg27
S'--'
p223
sg28
S'19'
p224
sg29
S'8'
p225
ssg47
(dp226
g5
S'6.7'
p227
sg7
g33
sg8
g33
sg9
g33
sg10
g33
sg11
g34
sg12
S'2015'
p228
sg14
g47
sg16
S'4.8'
p229
sg17
S'10/19'
p230
sg19
g34
sg20
S'Rashad Jennings'
p231
sg22
S'13'
p232
sg23
S'L7-27'
p233
sg24
S'20'
p234
sg25
g122
sg26
S'@PHI'
p235
sg27
g225
sg28
S'63'
p236
sg29
S'14'
p237
ssg77
(dp238
g5
S'-1.0'
p239
sg7
S'--'
p240
sg8
g33
sg9
S'--'
p241
sg10
g33
sg11
g34
sg12
S'2015'
p242
sg14
g77
sg16
S'3.7'
p243
sg17
S'11/08'
p244
sg19
g34
sg20
S'Rashad Jennings'
p245
sg22
S'13'
p246
sg23
S'W32-18'
p247
sg24
S'-1'
p248
sg25
g33
sg26
S'@TB'
p249
sg27
S'-1'
p250
sg28
S'48'
p251
sg29
g77
ssg225
(dp252
g5
S'15.5'
p253
sg7
S'--'
p254
sg8
g33
sg9
S'--'
p255
sg10
g33
sg11
g34
sg12
S'2015'
p256
sg14
g225
sg16
S'5.4'
p257
sg17
S'11/01'
p258
sg19
g34
sg20
S'Rashad Jennings'
p259
sg22
S'10'
p260
sg23
S'L49-52'
p261
sg24
S'31'
p262
sg25
g43
sg26
S'@NO'
p263
sg27
S'25'
p264
sg28
S'54'
p265
sg29
S'17'
p266
sssS'2014'
p267
(dp268
g3
(dp269
g5
S'2.0'
p270
sg7
S'--'
p271
sg8
g33
sg9
S'--'
p272
sg10
g33
sg11
g34
sg12
S'2014'
p273
sg14
S'11'
p274
sg16
S'3.3'
p275
sg17
S'11/16'
p276
sg19
g34
sg20
S'Rashad Jennings'
p277
sg22
S'18'
p278
sg23
S'L10-16'
p279
sg24
g225
sg25
g193
sg26
S'SF'
p280
sg27
g58
sg28
S'59'
p281
sg29
S'15'
p282
ssg30
(dp283
g5
S'--'
p284
sg7
S'--'
p285
sg8
g34
sg9
S'--'
p286
sg10
g34
sg11
S'--'
p287
sg12
S'2014'
p288
sg14
S'10'
p289
sg16
S'--'
p290
sg17
S'11/09'
p291
sg19
S'--'
p292
sg20
S'Rashad Jennings'
p293
sg22
S'--'
p294
sg23
S'L17-38'
p295
sg24
S'--'
p296
sg25
S'--'
p297
sg26
S'@SEA'
p298
sg27
S'--'
p299
sg28
S'--'
p300
sg29
S'--'
p301
ssg48
(dp302
g5
S'1.0'
p303
sg7
S'--'
p304
sg8
g33
sg9
S'--'
p305
sg10
g33
sg11
g34
sg12
S'2014'
p306
sg14
S'13'
p307
sg16
S'3.5'
p308
sg17
S'11/30'
p309
sg19
g43
sg20
S'Rashad Jennings'
p310
sg22
S'26'
p311
sg23
S'L24-25'
p312
sg24
g122
sg25
g122
sg26
S'@JAC'
p313
sg27
g122
sg28
S'91'
p314
sg29
S'17T'
p315
ssg64
(dp316
g5
S'8.5'
p317
sg7
S'--'
p318
sg8
g33
sg9
S'--'
p319
sg10
g33
sg11
g34
sg12
S'2014'
p320
sg14
S'12'
p321
sg16
S'2.7'
p322
sg17
S'11/23'
p323
sg19
g34
sg20
S'Rashad Jennings'
p324
sg22
S'19'
p325
sg23
S'L28-31'
p326
sg24
S'68'
p327
sg25
g225
sg26
S'DAL'
p328
sg27
S'27'
p329
sg28
S'52'
p330
sg29
S'12'
p331
ssg79
(dp332
g5
S'--'
p333
sg7
S'--'
p334
sg8
g33
sg9
S'--'
p335
sg10
g33
sg11
S'--'
p336
sg12
S'2014'
p337
sg14
S'15'
p338
sg16
S'3.0'
p339
sg17
S'12/14'
p340
sg19
g34
sg20
S'Rashad Jennings'
p341
sg22
g33
sg23
S'W24-13'
p342
sg24
S'--'
p343
sg25
S'--'
p344
sg26
S'WAS'
p345
sg27
S'--'
p346
sg28
g122
sg29
g122
ssg92
(dp347
g5
S'17.0'
p348
sg7
S'--'
p349
sg8
g34
sg9
S'--'
p350
sg10
g33
sg11
g34
sg12
S'2014'
p351
sg14
S'14'
p352
sg16
S'2.5'
p353
sg17
S'12/07'
p354
sg19
g34
sg20
S'Rashad Jennings'
p355
sg22
g43
sg23
S'W36-7'
p356
sg24
S'17'
p357
sg25
g33
sg26
S'@TEN'
p358
sg27
S'17'
p359
sg28
g58
sg29
g193
ssg109
(dp360
g5
S'7.0'
p361
sg7
S'--'
p362
sg8
g34
sg9
S'--'
p363
sg10
g33
sg11
g34
sg12
S'2014'
p364
sg14
S'17'
p365
sg16
S'3.3'
p366
sg17
S'12/28'
p367
sg19
g34
sg20
S'Rashad Jennings'
p368
sg22
S'10'
p369
sg23
S'L26-34'
p370
sg24
S'21'
p371
sg25
g122
sg26
S'PHI'
p372
sg27
S'16'
p373
sg28
S'33'
p374
sg29
S'18'
p375
ssg125
(dp376
g5
S'--'
p377
sg7
S'--'
p378
sg8
g34
sg9
S'--'
p379
sg10
g34
sg11
S'--'
p380
sg12
S'2014'
p381
sg14
S'16'
p382
sg16
S'--'
p383
sg17
S'12/21'
p384
sg19
S'--'
p385
sg20
S'Rashad Jennings'
p386
sg22
S'--'
p387
sg23
S'W37-27'
p388
sg24
S'--'
p389
sg25
S'--'
p390
sg26
S'@STL'
p391
sg27
S'--'
p392
sg28
S'--'
p393
sg29
S'--'
p394
ssg33
(dp395
g5
S'12.5'
p396
sg7
S'--'
p397
sg8
g33
sg9
S'--'
p398
sg10
g33
sg11
g34
sg12
S'2014'
p399
sg14
g33
sg16
S'2.9'
p400
sg17
S'09/08'
p401
sg19
g33
sg20
S'Rashad Jennings'
p402
sg22
S'16'
p403
sg23
S'L14-35'
p404
sg24
S'50'
p405
sg25
g193
sg26
S'@DET'
p406
sg27
S'21'
p407
sg28
S'46'
p408
sg29
S'14'
p409
ssg122
(dp410
g5
S'--'
p411
sg7
S'--'
p412
sg8
g33
sg9
S'--'
p413
sg10
g33
sg11
S'--'
p414
sg12
S'2014'
p415
sg14
g122
sg16
S'5.2'
p416
sg17
S'09/21'
p417
sg19
g33
sg20
S'Rashad Jennings'
p418
sg22
S'34'
p419
sg23
S'W30-17'
p420
sg24
S'--'
p421
sg25
S'--'
p422
sg26
S'HOU'
p423
sg27
S'--'
p424
sg28
S'176'
p425
sg29
S'18'
p426
ssg43
(dp427
g5
S'11.3'
p428
sg7
g33
sg8
g33
sg9
g33
sg10
g33
sg11
g34
sg12
S'2014'
p429
sg14
g43
sg16
S'3.6'
p430
sg17
S'09/14'
p431
sg19
g34
sg20
S'Rashad Jennings'
p432
sg22
S'18'
p433
sg23
S'L14-25'
p434
sg24
S'45'
p435
sg25
g193
sg26
S'ARI'
p436
sg27
S'19'
p437
sg28
S'64'
p438
sg29
S'13'
p439
ssg58
(dp440
g5
S'8.5'
p441
sg7
S'--'
p442
sg8
g33
sg9
S'--'
p443
sg10
g33
sg11
g34
sg12
S'2014'
p444
sg14
g58
sg16
S'5.5'
p445
sg17
S'10/05'
p446
sg19
g34
sg20
S'Rashad Jennings'
p447
sg22
S'10'
p448
sg23
S'W30-20'
p449
sg24
S'17'
p450
sg25
g43
sg26
S'ATL'
p451
sg27
S'10'
p452
sg28
S'55'
p453
sg29
S'16'
p454
ssg193
(dp455
g5
S'-3.0'
p456
sg7
S'--'
p457
sg8
g33
sg9
S'--'
p458
sg10
g33
sg11
g34
sg12
S'2014'
p459
sg14
g193
sg16
S'4.2'
p460
sg17
S'09/25'
p461
sg19
g34
sg20
S'Rashad Jennings'
p462
sg22
S'13'
p463
sg23
S'W45-14'
p464
sg24
S'-3'
p465
sg25
g33
sg26
S'@WAS'
p466
sg27
S'-3'
p467
sg28
S'55'
p468
sg29
S'12'
p469
ssg45
(dp470
g5
S'--'
p471
sg7
S'--'
p472
sg8
g34
sg9
S'--'
p473
sg10
g34
sg11
S'--'
p474
sg12
S'2014'
p475
sg14
g45
sg16
S'--'
p476
sg17
S'10/19'
p477
sg19
S'--'
p478
sg20
S'Rashad Jennings'
p479
sg22
S'--'
p480
sg23
S'L21-31'
p481
sg24
S'--'
p482
sg25
S'--'
p483
sg26
S'@DAL'
p484
sg27
S'--'
p485
sg28
S'--'
p486
sg29
S'--'
p487
ssg47
(dp488
g5
S'--'
p489
sg7
S'--'
p490
sg8
g34
sg9
S'--'
p491
sg10
g34
sg11
S'--'
p492
sg12
S'2014'
p493
sg14
g47
sg16
S'--'
p494
sg17
S'10/12'
p495
sg19
S'--'
p496
sg20
S'Rashad Jennings'
p497
sg22
S'--'
p498
sg23
S'L0-27'
p499
sg24
S'--'
p500
sg25
S'--'
p501
sg26
S'@PHI'
p502
sg27
S'--'
p503
sg28
S'--'
p504
sg29
S'--'
p505
ssg77
(dp506
g5
S'--'
p507
sg7
S'--'
p508
sg8
g34
sg9
S'--'
p509
sg10
g34
sg11
S'--'
p510
sg12
S'2014'
p511
sg14
g77
sg16
S'--'
p512
sg17
S'11/03'
p513
sg19
S'--'
p514
sg20
S'Rashad Jennings'
p515
sg22
S'--'
p516
sg23
S'L24-40'
p517
sg24
S'--'
p518
sg25
S'--'
p519
sg26
S'IND'
p520
sg27
S'--'
p521
sg28
S'--'
p522
sg29
S'--'
p523
ssg225
(dp524
g5
g6
sg7
g6
sg8
g6
sg9
g6
sg10
g6
sg11
g6
sg12
S'2014'
p525
sg14
g225
sg16
g6
sg17
S'Bye'
p526
sg19
g6
sg20
S'Rashad Jennings'
p527
sg22
g6
sg23
g6
sg24
g6
sg25
g6
sg26
g6
sg27
g6
sg28
g6
sg29
g6
sssS'2010'
p528
(dp529
g3
(dp530
g5
S'9.0'
p531
sg7
S'--'
p532
sg8
g34
sg9
S'--'
p533
sg10
g33
sg11
g34
sg12
S'2010'
p534
sg14
S'11'
p535
sg16
S'1.5'
p536
sg17
S'11/21'
p537
sg19
g34
sg20
S'Rashad Jennings'
p538
sg22
g43
sg23
S'W24-20'
p539
sg24
g77
sg25
g33
sg26
S'CLE'
p540
sg27
g77
sg28
g122
sg29
g122
ssg30
(dp541
g5
S'--'
p542
sg7
S'--'
p543
sg8
g34
sg9
S'--'
p544
sg10
g33
sg11
S'--'
p545
sg12
S'2010'
p546
sg14
S'10'
p547
sg16
S'8.0'
p548
sg17
S'11/14'
p549
sg19
g34
sg20
S'Rashad Jennings'
p550
sg22
g33
sg23
S'W31-24'
p551
sg24
S'--'
p552
sg25
S'--'
p553
sg26
S'HOU'
p554
sg27
S'--'
p555
sg28
g225
sg29
g225
ssg48
(dp556
g5
S'5.0'
p557
sg7
S'--'
p558
sg8
g34
sg9
S'--'
p559
sg10
g33
sg11
g34
sg12
S'2010'
p560
sg14
S'13'
p561
sg16
S'4.4'
p562
sg17
S'12/05'
p563
sg19
g33
sg20
S'Rashad Jennings'
p564
sg22
S'10'
p565
sg23
S'W17-6'
p566
sg24
S'10'
p567
sg25
g43
sg26
S'@TEN'
p568
sg27
g58
sg28
S'44'
p569
sg29
S'11T'
p570
ssg64
(dp571
g5
S'--'
p572
sg7
S'--'
p573
sg8
g34
sg9
S'--'
p574
sg10
g33
sg11
S'--'
p575
sg12
S'2010'
p576
sg14
S'12'
p577
sg16
S'7.6'
p578
sg17
S'11/28'
p579
sg19
g33
sg20
S'Rashad Jennings'
p580
sg22
g45
sg23
S'L20-24'
p581
sg24
S'--'
p582
sg25
S'--'
p583
sg26
S'@NYG'
p584
sg27
S'--'
p585
sg28
S'53'
p586
sg29
S'19'
p587
ssg79
(dp588
g5
S'9.1'
p589
sg7
S'--'
p590
sg8
g34
sg9
S'--'
p591
sg10
g33
sg11
g34
sg12
S'2010'
p592
sg14
S'15'
p593
sg16
S'4.3'
p594
sg17
S'12/19'
p595
sg19
g34
sg20
S'Rashad Jennings'
p596
sg22
g122
sg23
S'L24-34'
p597
sg24
S'64'
p598
sg25
g45
sg26
S'@IND'
p599
sg27
S'25'
p600
sg28
S'13'
p601
sg29
g47
ssg92
(dp602
g5
S'--'
p603
sg7
S'--'
p604
sg8
g34
sg9
S'--'
p605
sg10
g33
sg11
g34
sg12
S'2010'
p606
sg14
S'14'
p607
sg16
S'21.8'
p608
sg17
S'12/12'
p609
sg19
g33
sg20
S'Rashad Jennings'
p610
sg22
g58
sg23
S'W38-31'
p611
sg24
g34
sg25
g34
sg26
S'OAK'
p612
sg27
S'--'
p613
sg28
S'109'
p614
sg29
S'74T'
p615
ssg109
(dp616
g5
S'8.5'
p617
sg7
S'--'
p618
sg8
g33
sg9
S'--'
p619
sg10
g33
sg11
g34
sg12
S'2010'
p620
sg14
S'17'
p621
sg16
S'4.9'
p622
sg17
S'01/02'
p623
sg19
g33
sg20
S'Rashad Jennings'
p624
sg22
S'22'
p625
sg23
S'L17-34'
p626
sg24
S'34'
p627
sg25
g193
sg26
S'@HOU'
p628
sg27
S'16'
p629
sg28
S'108'
p630
sg29
S'16'
p631
ssg125
(dp632
g5
S'7.3'
p633
sg7
S'--'
p634
sg8
g33
sg9
S'--'
p635
sg10
g33
sg11
g34
sg12
S'2010'
p636
sg14
S'16'
p637
sg16
S'2.1'
p638
sg17
S'12/26'
p639
sg19
g34
sg20
S'Rashad Jennings'
p640
sg22
S'15'
p641
sg23
S'L17-20'
p642
sg24
S'29'
p643
sg25
g193
sg26
S'WAS'
p644
sg27
S'14'
p645
sg28
S'32'
p646
sg29
g225
ssg33
(dp647
g5
S'4.0'
p648
sg7
S'--'
p649
sg8
g34
sg9
S'--'
p650
sg10
g33
sg11
g34
sg12
S'2010'
p651
sg14
g33
sg16
S'6.5'
p652
sg17
S'09/12'
p653
sg19
g34
sg20
S'Rashad Jennings'
p654
sg22
g193
sg23
S'W24-17'
p655
sg24
g193
sg25
g33
sg26
S'DEN'
p656
sg27
g193
sg28
S'26'
p657
sg29
S'15'
p658
ssg122
(dp659
g5
S'14.0'
p660
sg7
S'--'
p661
sg8
g34
sg9
S'--'
p662
sg10
g33
sg11
g34
sg12
S'2010'
p663
sg14
g122
sg16
S'6.3'
p664
sg17
S'09/26'
p665
sg19
g34
sg20
S'Rashad Jennings'
p666
sg22
g122
sg23
S'L3-28'
p667
sg24
S'14'
p668
sg25
g33
sg26
S'PHI'
p669
sg27
S'14'
p670
sg28
S'19'
p671
sg29
S'13'
p672
ssg43
(dp673
g5
S'12.5'
p674
sg7
S'--'
p675
sg8
g33
sg9
S'--'
p676
sg10
g33
sg11
g34
sg12
S'2010'
p677
sg14
g43
sg16
S'4.2'
p678
sg17
S'09/19'
p679
sg19
g34
sg20
S'Rashad Jennings'
p680
sg22
g77
sg23
S'L13-38'
p681
sg24
S'50'
p682
sg25
g193
sg26
S'@SD'
p683
sg27
S'25'
p684
sg28
S'38'
p685
sg29
S'10'
p686
ssg58
(dp687
g5
S'--'
p688
sg7
S'--'
p689
sg8
g34
sg9
S'--'
p690
sg10
g34
sg11
S'--'
p691
sg12
S'2010'
p692
sg14
g58
sg16
S'--'
p693
sg17
S'10/10'
p694
sg19
S'--'
p695
sg20
S'Rashad Jennings'
p696
sg22
S'--'
p697
sg23
S'W36-26'
p698
sg24
S'--'
p699
sg25
S'--'
p700
sg26
S'@BUF'
p701
sg27
S'--'
p702
sg28
S'--'
p703
sg29
S'--'
p704
ssg193
(dp705
g5
S'4.5'
p706
sg7
S'--'
p707
sg8
g34
sg9
S'--'
p708
sg10
g33
sg11
g34
sg12
S'2010'
p709
sg14
g193
sg16
S'2.0'
p710
sg17
S'10/03'
p711
sg19
g34
sg20
S'Rashad Jennings'
p712
sg22
g122
sg23
S'W31-28'
p713
sg24
g77
sg25
g43
sg26
S'IND'
p714
sg27
g47
sg28
g47
sg29
g193
ssg45
(dp715
g5
S'--'
p716
sg7
S'--'
p717
sg8
g34
sg9
S'--'
p718
sg10
g34
sg11
S'--'
p719
sg12
S'2010'
p720
sg14
g45
sg16
S'--'
p721
sg17
S'10/24'
p722
sg19
S'--'
p723
sg20
S'Rashad Jennings'
p724
sg22
S'--'
p725
sg23
S'L20-42'
p726
sg24
S'--'
p727
sg25
S'--'
p728
sg26
S'@KC'
p729
sg27
S'--'
p730
sg28
S'--'
p731
sg29
S'--'
p732
ssg47
(dp733
g5
S'--'
p734
sg7
S'--'
p735
sg8
g34
sg9
S'--'
p736
sg10
g33
sg11
S'--'
p737
sg12
S'2010'
p738
sg14
g47
sg16
S'--'
p739
sg17
S'10/18'
p740
sg19
S'--'
p741
sg20
S'Rashad Jennings'
p742
sg22
S'--'
p743
sg23
S'L3-30'
p744
sg24
S'--'
p745
sg25
S'--'
p746
sg26
S'TEN'
p747
sg27
S'--'
p748
sg28
S'--'
p749
sg29
S'--'
p750
ssg77
(dp751
g5
g6
sg7
g6
sg8
g6
sg9
g6
sg10
g6
sg11
g6
sg12
S'2010'
p752
sg14
g77
sg16
g6
sg17
S'Bye'
p753
sg19
g6
sg20
S'Rashad Jennings'
p754
sg22
g6
sg23
g6
sg24
g6
sg25
g6
sg26
g6
sg27
g6
sg28
g6
sg29
g6
ssg225
(dp755
g5
S'--'
p756
sg7
S'--'
p757
sg8
g34
sg9
S'--'
p758
sg10
g34
sg11
S'--'
p759
sg12
S'2010'
p760
sg14
g225
sg16
S'--'
p761
sg17
S'10/31'
p762
sg19
S'--'
p763
sg20
S'Rashad Jennings'
p764
sg22
S'--'
p765
sg23
S'W35-17'
p766
sg24
S'--'
p767
sg25
S'--'
p768
sg26
S'@DAL'
p769
sg27
S'--'
p770
sg28
S'--'
p771
sg29
S'--'
p772
sssS'2013'
p773
(dp774
g3
(dp775
g5
S'-1.0'
p776
sg7
S'--'
p777
sg8
g33
sg9
S'--'
p778
sg10
g33
sg11
g34
sg12
S'2013'
p779
sg14
S'11'
p780
sg16
S'6.8'
p781
sg17
S'11/17'
p782
sg19
g33
sg20
S'Rashad Jennings'
p783
sg22
S'22'
p784
sg23
S'W28-23'
p785
sg24
S'-2'
p786
sg25
g43
sg26
S'@HOU'
p787
sg27
g34
sg28
S'150'
p788
sg29
S'80T'
p789
ssg30
(dp790
g5
S'9.5'
p791
sg7
S'--'
p792
sg8
g33
sg9
S'--'
p793
sg10
g33
sg11
g34
sg12
S'2013'
p794
sg14
S'10'
p795
sg16
S'4.4'
p796
sg17
S'11/10'
p797
sg19
g34
sg20
S'Rashad Jennings'
p798
sg22
S'20'
p799
sg23
S'L20-24'
p800
sg24
S'19'
p801
sg25
g43
sg26
S'@NYG'
p802
sg27
S'12'
p803
sg28
S'88'
p804
sg29
S'18'
p805
ssg48
(dp806
g5
S'8.0'
p807
sg7
S'--'
p808
sg8
g33
sg9
S'--'
p809
sg10
g33
sg11
g34
sg12
S'2013'
p810
sg14
S'13'
p811
sg16
S'2.1'
p812
sg17
S'11/28'
p813
sg19
g43
sg20
S'Rashad Jennings'
p814
sg22
S'17'
p815
sg23
S'L24-31'
p816
sg24
g225
sg25
g33
sg26
S'@DAL'
p817
sg27
g225
sg28
S'35'
p818
sg29
g77
ssg64
(dp819
g5
S'12.3'
p820
sg7
S'--'
p821
sg8
g33
sg9
S'--'
p822
sg10
g33
sg11
g34
sg12
S'2013'
p823
sg14
S'12'
p824
sg16
S'4.6'
p825
sg17
S'11/24'
p826
sg19
g34
sg20
S'Rashad Jennings'
p827
sg22
S'16'
p828
sg23
S'L19-23'
p829
sg24
S'49'
p830
sg25
g193
sg26
S'TEN'
p831
sg27
S'21'
p832
sg28
S'73'
p833
sg29
S'15'
p834
ssg79
(dp835
g5
S'4.0'
p836
sg7
S'--'
p837
sg8
g33
sg9
S'--'
p838
sg10
g33
sg11
g34
sg12
S'2013'
p839
sg14
S'15'
p840
sg16
S'4.0'
p841
sg17
S'12/15'
p842
sg19
g43
sg20
S'Rashad Jennings'
p843
sg22
S'23'
p844
sg23
S'L31-56'
p845
sg24
S'12'
p846
sg25
g122
sg26
S'KC'
p847
sg27
g193
sg28
S'91'
p848
sg29
S'21'
p849
ssg92
(dp850
g5
S'--'
p851
sg7
S'--'
p852
sg8
g34
sg9
S'--'
p853
sg10
g34
sg11
S'--'
p854
sg12
S'2013'
p855
sg14
S'14'
p856
sg16
S'--'
p857
sg17
S'12/08'
p858
sg19
S'--'
p859
sg20
S'Rashad Jennings'
p860
sg22
S'--'
p861
sg23
S'L27-37'
p862
sg24
S'--'
p863
sg25
S'--'
p864
sg26
S'@NYJ'
p865
sg27
S'--'
p866
sg28
S'--'
p867
sg29
S'--'
p868
ssg109
(dp869
g5
S'4.0'
p870
sg7
S'--'
p871
sg8
g33
sg9
S'--'
p872
sg10
g33
sg11
g34
sg12
S'2013'
p873
sg14
S'17'
p874
sg16
S'2.3'
p875
sg17
S'12/29'
p876
sg19
g34
sg20
S'Rashad Jennings'
p877
sg22
g193
sg23
S'L14-34'
p878
sg24
g225
sg25
g43
sg26
S'DEN'
p879
sg27
g77
sg28
g77
sg29
g122
ssg125
(dp880
g5
S'9.0'
p881
sg7
S'--'
p882
sg8
g33
sg9
S'--'
p883
sg10
g33
sg11
g34
sg12
S'2013'
p884
sg14
S'16'
p885
sg16
S'4.5'
p886
sg17
S'12/22'
p887
sg19
g34
sg20
S'Rashad Jennings'
p888
sg22
S'10'
p889
sg23
S'L13-26'
p890
sg24
S'27'
p891
sg25
g122
sg26
S'@SD'
p892
sg27
S'16'
p893
sg28
S'45'
p894
sg29
g77
ssg33
(dp895
g5
S'--'
p896
sg7
S'--'
p897
sg8
g34
sg9
S'--'
p898
sg10
g33
sg11
S'--'
p899
sg12
S'2013'
p900
sg14
g33
sg16
S'1.0'
p901
sg17
S'09/08'
p902
sg19
g34
sg20
S'Rashad Jennings'
p903
sg22
g43
sg23
S'L17-21'
p904
sg24
S'--'
p905
sg25
S'--'
p906
sg26
S'@IND'
p907
sg27
S'--'
p908
sg28
g43
sg29
g43
ssg122
(dp909
g5
S'7.5'
p910
sg7
S'--'
p911
sg8
g34
sg9
S'--'
p912
sg10
g33
sg11
g34
sg12
S'2013'
p913
sg14
g122
sg16
S'--'
p914
sg17
S'09/23'
p915
sg19
S'--'
p916
sg20
S'Rashad Jennings'
p917
sg22
S'--'
p918
sg23
S'L21-37'
p919
sg24
S'15'
p920
sg25
g43
sg26
S'@DEN'
p921
sg27
S'14'
p922
sg28
S'--'
p923
sg29
S'--'
p924
ssg43
(dp925
g5
S'2.0'
p926
sg7
S'--'
p927
sg8
g34
sg9
S'--'
p928
sg10
g33
sg11
g34
sg12
S'2013'
p929
sg14
g43
sg16
S'8.0'
p930
sg17
S'09/15'
p931
sg19
g34
sg20
S'Rashad Jennings'
p932
sg22
g193
sg23
S'W19-9'
p933
sg24
g43
sg25
g33
sg26
S'JAC'
p934
sg27
g43
sg28
S'32'
p935
sg29
S'28'
p936
ssg58
(dp937
g5
S'--'
p938
sg7
S'--'
p939
sg8
g33
sg9
S'--'
p940
sg10
g33
sg11
S'--'
p941
sg12
S'2013'
p942
sg14
g58
sg16
S'4.1'
p943
sg17
S'10/06'
p944
sg19
g34
sg20
S'Rashad Jennings'
p945
sg22
S'10'
p946
sg23
S'W27-17'
p947
sg24
S'--'
p948
sg25
S'--'
p949
sg26
S'SD'
p950
sg27
S'--'
p951
sg28
S'41'
p952
sg29
g77
ssg193
(dp953
g5
S'8.9'
p954
sg7
S'--'
p955
sg8
g34
sg9
S'--'
p956
sg10
g33
sg11
g34
sg12
S'2013'
p957
sg14
g193
sg16
S'3.2'
p958
sg17
S'09/29'
p959
sg19
g34
sg20
S'Rashad Jennings'
p960
sg22
S'14'
p961
sg23
S'L14-24'
p962
sg24
S'71'
p963
sg25
g225
sg26
S'WAS'
p964
sg27
S'17'
p965
sg28
S'45'
p966
sg29
g47
ssg45
(dp967
g5
g6
sg7
g6
sg8
g6
sg9
g6
sg10
g6
sg11
g6
sg12
S'2013'
p968
sg14
g45
sg16
g6
sg17
S'Bye'
p969
sg19
g6
sg20
S'Rashad Jennings'
p970
sg22
g6
sg23
g6
sg24
g6
sg25
g6
sg26
g6
sg27
g6
sg28
g6
sg29
g6
ssg47
(dp971
g5
S'9.0'
p972
sg7
S'--'
p973
sg8
g34
sg9
S'--'
p974
sg10
g33
sg11
g34
sg12
S'2013'
p975
sg14
g47
sg16
S'3.0'
p976
sg17
S'10/13'
p977
sg19
g34
sg20
S'Rashad Jennings'
p978
sg22
g193
sg23
S'L7-24'
p979
sg24
g77
sg25
g33
sg26
S'@KC'
p980
sg27
g77
sg28
S'12'
p981
sg29
g193
ssg77
(dp982
g5
S'10.6'
p983
sg7
S'--'
p984
sg8
g34
sg9
S'--'
p985
sg10
g33
sg11
g34
sg12
S'2013'
p986
sg14
g77
sg16
S'6.8'
p987
sg17
S'11/03'
p988
sg19
g33
sg20
S'Rashad Jennings'
p989
sg22
S'15'
p990
sg23
S'L20-49'
p991
sg24
S'74'
p992
sg25
g45
sg26
S'PHI'
p993
sg27
S'24'
p994
sg28
S'102'
p995
sg29
S'26'
p996
ssg225
(dp997
g5
S'--'
p998
sg7
S'--'
p999
sg8
g34
sg9
S'--'
p1000
sg10
g33
sg11
S'--'
p1001
sg12
S'2013'
p1002
sg14
g225
sg16
S'4.0'
p1003
sg17
S'10/27'
p1004
sg19
g34
sg20
S'Rashad Jennings'
p1005
sg22
g43
sg23
S'W21-18'
p1006
sg24
S'--'
p1007
sg25
S'--'
p1008
sg26
S'PIT'
p1009
sg27
S'--'
p1010
sg28
g225
sg29
g58
sssS'2012'
p1011
(dp1012
g3
(dp1013
g5
S'--'
p1014
sg7
S'--'
p1015
sg8
g33
sg9
S'--'
p1016
sg10
g33
sg11
g34
sg12
S'2012'
p1017
sg14
S'11'
p1018
sg16
S'-0.3'
p1019
sg17
S'11/18'
p1020
sg19
g34
sg20
S'Rashad Jennings'
p1021
sg22
g122
sg23
S'L37-43'
p1022
sg24
g34
sg25
g34
sg26
S'@HOU'
p1023
sg27
S'--'
p1024
sg28
S'-1'
p1025
sg29
g58
ssg30
(dp1026
g5
S'--'
p1027
sg7
S'--'
p1028
sg8
g33
sg9
S'--'
p1029
sg10
g33
sg11
g34
sg12
S'2012'
p1030
sg14
S'10'
p1031
sg16
S'2.5'
p1032
sg17
S'11/08'
p1033
sg19
g34
sg20
S'Rashad Jennings'
p1034
sg22
S'11'
p1035
sg23
S'L10-27'
p1036
sg24
g34
sg25
g34
sg26
S'IND'
p1037
sg27
S'--'
p1038
sg28
S'27'
p1039
sg29
g193
ssg48
(dp1040
g5
S'--'
p1041
sg7
g43
sg8
g33
sg9
g34
sg10
g33
sg11
S'--'
p1042
sg12
S'2012'
p1043
sg14
S'13'
p1044
sg16
S'2.5'
p1045
sg17
S'12/02'
p1046
sg19
g34
sg20
S'Rashad Jennings'
p1047
sg22
g225
sg23
S'L18-34'
p1048
sg24
S'--'
p1049
sg25
S'--'
p1050
sg26
S'@BUF'
p1051
sg27
S'--'
p1052
sg28
S'20'
p1053
sg29
S'12'
p1054
ssg64
(dp1055
g5
S'2.0'
p1056
sg7
S'--'
p1057
sg8
g34
sg9
S'--'
p1058
sg10
g33
sg11
g34
sg12
S'2012'
p1059
sg14
S'12'
p1060
sg16
S'2.7'
p1061
sg17
S'11/25'
p1062
sg19
g33
sg20
S'Rashad Jennings'
p1063
sg22
S'16'
p1064
sg23
S'W24-19'
p1065
sg24
g43
sg25
g33
sg26
S'TEN'
p1066
sg27
g43
sg28
S'43'
p1067
sg29
g77
ssg79
(dp1068
g5
S'--'
p1069
sg7
S'--'
p1070
sg8
g34
sg9
S'--'
p1071
sg10
g34
sg11
S'--'
p1072
sg12
S'2012'
p1073
sg14
S'15'
p1074
sg16
S'--'
p1075
sg17
S'12/16'
p1076
sg19
S'--'
p1077
sg20
S'Rashad Jennings'
p1078
sg22
S'--'
p1079
sg23
S'L3-24'
p1080
sg24
S'--'
p1081
sg25
S'--'
p1082
sg26
S'@MIA'
p1083
sg27
S'--'
p1084
sg28
S'--'
p1085
sg29
S'--'
p1086
ssg92
(dp1087
g5
S'--'
p1088
sg7
S'--'
p1089
sg8
g34
sg9
S'--'
p1090
sg10
g34
sg11
S'--'
p1091
sg12
S'2012'
p1092
sg14
S'14'
p1093
sg16
S'--'
p1094
sg17
S'12/09'
p1095
sg19
S'--'
p1096
sg20
S'Rashad Jennings'
p1097
sg22
S'--'
p1098
sg23
S'L10-17'
p1099
sg24
S'--'
p1100
sg25
S'--'
p1101
sg26
S'NYJ'
p1102
sg27
S'--'
p1103
sg28
S'--'
p1104
sg29
S'--'
p1105
ssg125
(dp1106
g5
S'--'
p1107
sg7
S'--'
p1108
sg8
g34
sg9
S'--'
p1109
sg10
g34
sg11
S'--'
p1110
sg12
S'2012'
p1111
sg14
S'16'
p1112
sg16
S'--'
p1113
sg17
S'12/23'
p1114
sg19
S'--'
p1115
sg20
S'Rashad Jennings'
p1116
sg22
S'--'
p1117
sg23
S'L16-23'
p1118
sg24
S'--'
p1119
sg25
S'--'
p1120
sg26
S'NE'
p1121
sg27
S'--'
p1122
sg28
S'--'
p1123
sg29
S'--'
p1124
ssg33
(dp1125
g5
S'9.0'
p1126
sg7
S'--'
p1127
sg8
g33
sg9
S'--'
p1128
sg10
g33
sg11
g34
sg12
S'2012'
p1129
sg14
g33
sg16
S'3.9'
p1130
sg17
S'09/09'
p1131
sg19
g34
sg20
S'Rashad Jennings'
p1132
sg22
g225
sg23
S'L23-26'
p1133
sg24
g77
sg25
g33
sg26
S'@MIN'
p1134
sg27
g77
sg28
S'31'
p1135
sg29
S'10'
p1136
ssg122
(dp1137
g5
S'--'
p1138
sg7
S'--'
p1139
sg8
g34
sg9
S'--'
p1140
sg10
g34
sg11
S'--'
p1141
sg12
S'2012'
p1142
sg14
g122
sg16
S'--'
p1143
sg17
S'09/23'
p1144
sg19
S'--'
p1145
sg20
S'Rashad Jennings'
p1146
sg22
S'--'
p1147
sg23
S'W22-17'
p1148
sg24
S'--'
p1149
sg25
S'--'
p1150
sg26
S'@IND'
p1151
sg27
S'--'
p1152
sg28
S'--'
p1153
sg29
S'--'
p1154
ssg43
(dp1155
g5
S'--'
p1156
sg7
S'--'
p1157
sg8
g34
sg9
S'--'
p1158
sg10
g34
sg11
S'--'
p1159
sg12
S'2012'
p1160
sg14
g43
sg16
S'--'
p1161
sg17
S'09/16'
p1162
sg19
S'--'
p1163
sg20
S'Rashad Jennings'
p1164
sg22
S'--'
p1165
sg23
S'L7-27'
p1166
sg24
S'--'
p1167
sg25
S'--'
p1168
sg26
S'HOU'
p1169
sg27
S'--'
p1170
sg28
S'--'
p1171
sg29
S'--'
p1172
ssg58
(dp1173
g5
S'--'
p1174
sg7
S'--'
p1175
sg8
g34
sg9
S'--'
p1176
sg10
g33
sg11
S'--'
p1177
sg12
S'2012'
p1178
sg14
g58
sg16
S'1.0'
p1179
sg17
S'10/07'
p1180
sg19
g34
sg20
S'Rashad Jennings'
p1181
sg22
g122
sg23
S'L3-41'
p1182
sg24
S'--'
p1183
sg25
S'--'
p1184
sg26
S'CHI'
p1185
sg27
S'--'
p1186
sg28
g122
sg29
g193
ssg193
(dp1187
g5
S'-2.0'
p1188
sg7
S'--'
p1189
sg8
g34
sg9
S'--'
p1190
sg10
g33
sg11
g34
sg12
S'2012'
p1191
sg14
g193
sg16
S'6.0'
p1192
sg17
S'09/30'
p1193
sg19
g34
sg20
S'Rashad Jennings'
p1194
sg22
g43
sg23
S'L10-27'
p1195
sg24
S'-2'
p1196
sg25
g33
sg26
S'CIN'
p1197
sg27
S'-2'
p1198
sg28
S'12'
p1199
sg29
g225
ssg45
(dp1200
g5
S'8.3'
p1201
sg7
S'--'
p1202
sg8
g34
sg9
S'--'
p1203
sg10
g33
sg11
g34
sg12
S'2012'
p1204
sg14
g45
sg16
S'2.1'
p1205
sg17
S'10/21'
p1206
sg19
g33
sg20
S'Rashad Jennings'
p1207
sg22
S'21'
p1208
sg23
S'L23-26'
p1209
sg24
S'58'
p1210
sg25
g45
sg26
S'@OAK'
p1211
sg27
S'26'
p1212
sg28
S'44'
p1213
sg29
g225
ssg47
(dp1214
g5
g6
sg7
g6
sg8
g6
sg9
g6
sg10
g6
sg11
g6
sg12
S'2012'
p1215
sg14
g47
sg16
g6
sg17
S'Bye'
p1216
sg19
g6
sg20
S'Rashad Jennings'
p1217
sg22
g6
sg23
g6
sg24
g6
sg25
g6
sg26
g6
sg27
g6
sg28
g6
sg29
g6
ssg77
(dp1218
g5
S'2.3'
p1219
sg7
S'--'
p1220
sg8
g33
sg9
S'--'
p1221
sg10
g33
sg11
g34
sg12
S'2012'
p1222
sg14
g77
sg16
S'3.8'
p1223
sg17
S'11/04'
p1224
sg19
g34
sg20
S'Rashad Jennings'
p1225
sg22
S'12'
p1226
sg23
S'L14-31'
p1227
sg24
g45
sg25
g122
sg26
S'DET'
p1228
sg27
g193
sg28
S'45'
p1229
sg29
g225
ssg225
(dp1230
g5
S'9.3'
p1231
sg7
g33
sg8
g33
sg9
g33
sg10
g33
sg11
g34
sg12
S'2012'
p1232
sg14
g225
sg16
S'3.5'
p1233
sg17
S'10/28'
p1234
sg19
g34
sg20
S'Rashad Jennings'
p1235
sg22
S'17'
p1236
sg23
S'L15-24'
p1237
sg24
S'56'
p1238
sg25
g47
sg26
S'@GB'
p1239
sg27
S'24'
p1240
sg28
S'59'
p1241
sg29
S'21'
p1242
sss.