(dp0
S'2015'
p1
(dp2
S'11'
p3
(dp4
S'RecAvg'
p5
S'7.0'
p6
sS'FUM'
p7
S'--'
p8
sS'GS'
p9
S'0'
p10
sS'Lost'
p11
S'--'
p12
sS'G'
p13
S'1'
p14
sS'RecTD'
p15
g10
sS'Year'
p16
S'2015'
p17
sS'WK'
p18
S'11'
p19
sS'RushAvg'
p20
S'--'
p21
sS'Game Date'
p22
S'11/22'
p23
sS'RushTD'
p24
S'--'
p25
sS'Player'
p26
S'Rex Burkhead'
p27
sS'RushAtt'
p28
S'--'
p29
sS'Result'
p30
S'L31-34'
p31
sS'RecYds'
p32
S'7'
p33
sS'Rec'
p34
g14
sS'Opp'
p35
S'@ARI'
p36
sS'RecLng'
p37
g33
sS'RushYds'
p38
S'--'
p39
sS'RushLng'
p40
S'--'
p41
ssS'10'
p42
(dp43
g5
S'--'
p44
sg7
S'--'
p45
sg9
g10
sg11
S'--'
p46
sg13
g14
sg15
g10
sg16
S'2015'
p47
sg18
S'10'
p48
sg20
S'--'
p49
sg22
S'11/16'
p50
sg24
S'--'
p51
sg26
S'Rex Burkhead'
p52
sg28
S'--'
p53
sg30
S'L6-10'
p54
sg32
g10
sg34
g10
sg35
S'HOU'
p55
sg37
S'--'
p56
sg38
S'--'
p57
sg40
S'--'
p58
ssS'13'
p59
(dp60
g5
S'4.0'
p61
sg7
S'--'
p62
sg9
g10
sg11
S'--'
p63
sg13
g14
sg15
g10
sg16
S'2015'
p64
sg18
S'13'
p65
sg20
S'2.0'
p66
sg22
S'12/06'
p67
sg24
g10
sg26
S'Rex Burkhead'
p68
sg28
g14
sg30
S'W37-3'
p69
sg32
S'4'
p70
sg34
g14
sg35
S'@CLE'
p71
sg37
g70
sg38
S'2'
p72
sg40
g72
ssS'12'
p73
(dp74
g5
S'2.0'
p75
sg7
S'--'
p76
sg9
g10
sg11
S'--'
p77
sg13
g14
sg15
g10
sg16
S'2015'
p78
sg18
S'12'
p79
sg20
S'2.0'
p80
sg22
S'11/29'
p81
sg24
g10
sg26
S'Rex Burkhead'
p82
sg28
g72
sg30
S'W31-7'
p83
sg32
g70
sg34
g72
sg35
S'STL'
p84
sg37
S'3'
p85
sg38
g70
sg40
g72
ssS'15'
p86
(dp87
g5
S'--'
p88
sg7
S'--'
p89
sg9
g10
sg11
S'--'
p90
sg13
g14
sg15
S'--'
p91
sg16
S'2015'
p92
sg18
S'15'
p93
sg20
S'--'
p94
sg22
S'12/20'
p95
sg24
S'--'
p96
sg26
S'Rex Burkhead'
p97
sg28
S'--'
p98
sg30
S'W24-14'
p99
sg32
S'--'
p100
sg34
S'--'
p101
sg35
S'@SF'
p102
sg37
S'--'
p103
sg38
S'--'
p104
sg40
S'--'
p105
ssS'14'
p106
(dp107
g5
S'5.0'
p108
sg7
S'--'
p109
sg9
g10
sg11
S'--'
p110
sg13
g14
sg15
g14
sg16
S'2015'
p111
sg18
S'14'
p112
sg20
S'--'
p113
sg22
S'12/13'
p114
sg24
S'--'
p115
sg26
S'Rex Burkhead'
p116
sg28
S'--'
p117
sg30
S'L20-33'
p118
sg32
S'5'
p119
sg34
g14
sg35
S'PIT'
p120
sg37
S'5T'
p121
sg38
S'--'
p122
sg40
S'--'
p123
ssS'17'
p124
(dp125
g5
S'--'
p126
sg7
S'--'
p127
sg9
g10
sg11
S'--'
p128
sg13
g14
sg15
g10
sg16
S'2015'
p129
sg18
S'17'
p130
sg20
S'--'
p131
sg22
S'01/03'
p132
sg24
S'--'
p133
sg26
S'Rex Burkhead'
p134
sg28
S'--'
p135
sg30
S'W24-16'
p136
sg32
g10
sg34
g10
sg35
S'BAL'
p137
sg37
S'--'
p138
sg38
S'--'
p139
sg40
S'--'
p140
ssS'16'
p141
(dp142
g5
S'8.0'
p143
sg7
S'--'
p144
sg9
g10
sg11
S'--'
p145
sg13
g14
sg15
g10
sg16
S'2015'
p146
sg18
S'16'
p147
sg20
S'--'
p148
sg22
S'12/28'
p149
sg24
S'--'
p150
sg26
S'Rex Burkhead'
p151
sg28
S'--'
p152
sg30
S'L17-20'
p153
sg32
S'8'
p154
sg34
g14
sg35
S'@DEN'
p155
sg37
g154
sg38
S'--'
p156
sg40
S'--'
p157
ssg14
(dp158
g5
S'24.0'
p159
sg7
S'--'
p160
sg9
g10
sg11
S'--'
p161
sg13
g14
sg15
g10
sg16
S'2015'
p162
sg18
g14
sg20
S'--'
p163
sg22
S'09/13'
p164
sg24
S'--'
p165
sg26
S'Rex Burkhead'
p166
sg28
S'--'
p167
sg30
S'W33-13'
p168
sg32
S'24'
p169
sg34
g14
sg35
S'@OAK'
p170
sg37
S'24'
p171
sg38
S'--'
p172
sg40
S'--'
p173
ssg85
(dp174
g5
S'--'
p175
sg7
S'--'
p176
sg9
g10
sg11
S'--'
p177
sg13
g14
sg15
S'--'
p178
sg16
S'2015'
p179
sg18
g85
sg20
S'--'
p180
sg22
S'09/27'
p181
sg24
S'--'
p182
sg26
S'Rex Burkhead'
p183
sg28
S'--'
p184
sg30
S'W28-24'
p185
sg32
S'--'
p186
sg34
S'--'
p187
sg35
S'@BAL'
p188
sg37
S'--'
p189
sg38
S'--'
p190
sg40
S'--'
p191
ssg72
(dp192
g5
S'8.0'
p193
sg7
S'--'
p194
sg9
g10
sg11
S'--'
p195
sg13
g14
sg15
g10
sg16
S'2015'
p196
sg18
g72
sg20
S'--'
p197
sg22
S'09/20'
p198
sg24
S'--'
p199
sg26
S'Rex Burkhead'
p200
sg28
S'--'
p201
sg30
S'W24-19'
p202
sg32
g154
sg34
g14
sg35
S'SD'
p203
sg37
g154
sg38
S'--'
p204
sg40
S'--'
p205
ssg119
(dp206
g5
S'--'
p207
sg7
g14
sg9
g10
sg11
g14
sg13
g14
sg15
S'--'
p208
sg16
S'2015'
p209
sg18
g119
sg20
S'-2.0'
p210
sg22
S'10/11'
p211
sg24
g10
sg26
S'Rex Burkhead'
p212
sg28
g14
sg30
S'W27-24'
p213
sg32
S'--'
p214
sg34
S'--'
p215
sg35
S'SEA'
p216
sg37
S'--'
p217
sg38
S'-2'
p218
sg40
S'-2'
p219
ssg70
(dp220
g5
S'27.0'
p221
sg7
S'--'
p222
sg9
g10
sg11
S'--'
p223
sg13
g14
sg15
g10
sg16
S'2015'
p224
sg18
g70
sg20
S'--'
p225
sg22
S'10/04'
p226
sg24
S'--'
p227
sg26
S'Rex Burkhead'
p228
sg28
S'--'
p229
sg30
S'W36-21'
p230
sg32
S'27'
p231
sg34
g14
sg35
S'KC'
p232
sg37
S'27'
p233
sg38
S'--'
p234
sg40
S'--'
p235
ssg33
(dp236
g5
S''
p237
sg7
g237
sg9
g237
sg11
g237
sg13
g237
sg15
g237
sg16
S'2015'
p238
sg18
g33
sg20
g237
sg22
S'Bye'
p239
sg24
g237
sg26
S'Rex Burkhead'
p240
sg28
g237
sg30
g237
sg32
g237
sg34
g237
sg35
g237
sg37
g237
sg38
g237
sg40
g237
ssS'6'
p241
(dp242
g5
S'--'
p243
sg7
S'--'
p244
sg9
g10
sg11
S'--'
p245
sg13
g14
sg15
S'--'
p246
sg16
S'2015'
p247
sg18
g241
sg20
S'--'
p248
sg22
S'10/18'
p249
sg24
S'--'
p250
sg26
S'Rex Burkhead'
p251
sg28
S'--'
p252
sg30
S'W34-21'
p253
sg32
S'--'
p254
sg34
S'--'
p255
sg35
S'@BUF'
p256
sg37
S'--'
p257
sg38
S'--'
p258
sg40
S'--'
p259
ssS'9'
p260
(dp261
g5
S'7.0'
p262
sg7
S'--'
p263
sg9
g10
sg11
S'--'
p264
sg13
g14
sg15
g10
sg16
S'2015'
p265
sg18
g260
sg20
S'--'
p266
sg22
S'11/05'
p267
sg24
S'--'
p268
sg26
S'Rex Burkhead'
p269
sg28
S'--'
p270
sg30
S'W31-10'
p271
sg32
g33
sg34
g14
sg35
S'CLE'
p272
sg37
g33
sg38
S'--'
p273
sg40
S'--'
p274
ssg154
(dp275
g5
S'--'
p276
sg7
S'--'
p277
sg9
g10
sg11
S'--'
p278
sg13
g14
sg15
S'--'
p279
sg16
S'2015'
p280
sg18
g154
sg20
S'--'
p281
sg22
S'11/01'
p282
sg24
S'--'
p283
sg26
S'Rex Burkhead'
p284
sg28
S'--'
p285
sg30
S'W16-10'
p286
sg32
S'--'
p287
sg34
S'--'
p288
sg35
S'@PIT'
p289
sg37
S'--'
p290
sg38
S'--'
p291
sg40
S'--'
p292
sssS'2014'
p293
(dp294
g3
(dp295
g5
S'12.0'
p296
sg7
S'--'
p297
sg9
g10
sg11
S'--'
p298
sg13
g14
sg15
g10
sg16
S'2014'
p299
sg18
S'11'
p300
sg20
S'0.5'
p301
sg22
S'11/16'
p302
sg24
g10
sg26
S'Rex Burkhead'
p303
sg28
g72
sg30
S'W27-10'
p304
sg32
S'36'
p305
sg34
g85
sg35
S'@NO'
p306
sg37
S'15'
p307
sg38
g14
sg40
g14
ssg42
(dp308
g5
S'1.5'
p309
sg7
S'--'
p310
sg9
g10
sg11
S'--'
p311
sg13
g14
sg15
g10
sg16
S'2014'
p312
sg18
S'10'
p313
sg20
S'3.0'
p314
sg22
S'11/06'
p315
sg24
g10
sg26
S'Rex Burkhead'
p316
sg28
g70
sg30
S'L3-24'
p317
sg32
g85
sg34
g72
sg35
S'CLE'
p318
sg37
g154
sg38
S'12'
p319
sg40
g33
ssg59
(dp320
g5
S'--'
p321
sg7
S'--'
p322
sg9
g10
sg11
S'--'
p323
sg13
g10
sg15
S'--'
p324
sg16
S'2014'
p325
sg18
S'13'
p326
sg20
S'--'
p327
sg22
S'11/30'
p328
sg24
S'--'
p329
sg26
S'Rex Burkhead'
p330
sg28
S'--'
p331
sg30
S'W14-13'
p332
sg32
S'--'
p333
sg34
S'--'
p334
sg35
S'@TB'
p335
sg37
S'--'
p336
sg38
S'--'
p337
sg40
S'--'
p338
ssg73
(dp339
g5
S'--'
p340
sg7
S'--'
p341
sg9
g10
sg11
S'--'
p342
sg13
g10
sg15
S'--'
p343
sg16
S'2014'
p344
sg18
S'12'
p345
sg20
S'--'
p346
sg22
S'11/23'
p347
sg24
S'--'
p348
sg26
S'Rex Burkhead'
p349
sg28
S'--'
p350
sg30
S'W22-13'
p351
sg32
S'--'
p352
sg34
S'--'
p353
sg35
S'@HOU'
p354
sg37
S'--'
p355
sg38
S'--'
p356
sg40
S'--'
p357
ssg86
(dp358
g5
S'--'
p359
sg7
S'--'
p360
sg9
g10
sg11
S'--'
p361
sg13
g14
sg15
S'--'
p362
sg16
S'2014'
p363
sg18
S'15'
p364
sg20
S'4.7'
p365
sg22
S'12/14'
p366
sg24
g14
sg26
S'Rex Burkhead'
p367
sg28
g85
sg30
S'W30-0'
p368
sg32
S'--'
p369
sg34
S'--'
p370
sg35
S'@CLE'
p371
sg37
S'--'
p372
sg38
S'14'
p373
sg40
S'10T'
p374
ssg106
(dp375
g5
S'--'
p376
sg7
S'--'
p377
sg9
g10
sg11
S'--'
p378
sg13
g14
sg15
S'--'
p379
sg16
S'2014'
p380
sg18
S'14'
p381
sg20
S'--'
p382
sg22
S'12/07'
p383
sg24
S'--'
p384
sg26
S'Rex Burkhead'
p385
sg28
S'--'
p386
sg30
S'L21-42'
p387
sg32
S'--'
p388
sg34
S'--'
p389
sg35
S'PIT'
p390
sg37
S'--'
p391
sg38
S'--'
p392
sg40
S'--'
p393
ssg124
(dp394
g5
S'--'
p395
sg7
S'--'
p396
sg9
g10
sg11
S'--'
p397
sg13
g14
sg15
S'--'
p398
sg16
S'2014'
p399
sg18
S'17'
p400
sg20
S'--'
p401
sg22
S'12/28'
p402
sg24
S'--'
p403
sg26
S'Rex Burkhead'
p404
sg28
S'--'
p405
sg30
S'L17-27'
p406
sg32
S'--'
p407
sg34
S'--'
p408
sg35
S'@PIT'
p409
sg37
S'--'
p410
sg38
S'--'
p411
sg40
S'--'
p412
ssg141
(dp413
g5
S'--'
p414
sg7
S'--'
p415
sg9
g10
sg11
S'--'
p416
sg13
g14
sg15
S'--'
p417
sg16
S'2014'
p418
sg18
S'16'
p419
sg20
S'--'
p420
sg22
S'12/22'
p421
sg24
S'--'
p422
sg26
S'Rex Burkhead'
p423
sg28
S'--'
p424
sg30
S'W37-28'
p425
sg32
S'--'
p426
sg34
S'--'
p427
sg35
S'DEN'
p428
sg37
S'--'
p429
sg38
S'--'
p430
sg40
S'--'
p431
ssg14
(dp432
g5
S'--'
p433
sg7
S'--'
p434
sg9
g10
sg11
S'--'
p435
sg13
g10
sg15
S'--'
p436
sg16
S'2014'
p437
sg18
g14
sg20
S'--'
p438
sg22
S'09/07'
p439
sg24
S'--'
p440
sg26
S'Rex Burkhead'
p441
sg28
S'--'
p442
sg30
S'W23-16'
p443
sg32
S'--'
p444
sg34
S'--'
p445
sg35
S'@BAL'
p446
sg37
S'--'
p447
sg38
S'--'
p448
sg40
S'--'
p449
ssg85
(dp450
g5
S'--'
p451
sg7
S'--'
p452
sg9
g10
sg11
S'--'
p453
sg13
g10
sg15
S'--'
p454
sg16
S'2014'
p455
sg18
g85
sg20
S'--'
p456
sg22
S'09/21'
p457
sg24
S'--'
p458
sg26
S'Rex Burkhead'
p459
sg28
S'--'
p460
sg30
S'W33-7'
p461
sg32
S'--'
p462
sg34
S'--'
p463
sg35
S'TEN'
p464
sg37
S'--'
p465
sg38
S'--'
p466
sg40
S'--'
p467
ssg72
(dp468
g5
S'--'
p469
sg7
S'--'
p470
sg9
g10
sg11
S'--'
p471
sg13
g10
sg15
S'--'
p472
sg16
S'2014'
p473
sg18
g72
sg20
S'--'
p474
sg22
S'09/14'
p475
sg24
S'--'
p476
sg26
S'Rex Burkhead'
p477
sg28
S'--'
p478
sg30
S'W24-10'
p479
sg32
S'--'
p480
sg34
S'--'
p481
sg35
S'ATL'
p482
sg37
S'--'
p483
sg38
S'--'
p484
sg40
S'--'
p485
ssg119
(dp486
g5
S'--'
p487
sg7
S'--'
p488
sg9
g10
sg11
S'--'
p489
sg13
g10
sg15
S'--'
p490
sg16
S'2014'
p491
sg18
g119
sg20
S'--'
p492
sg22
S'10/05'
p493
sg24
S'--'
p494
sg26
S'Rex Burkhead'
p495
sg28
S'--'
p496
sg30
S'L17-43'
p497
sg32
S'--'
p498
sg34
S'--'
p499
sg35
S'@NE'
p500
sg37
S'--'
p501
sg38
S'--'
p502
sg40
S'--'
p503
ssg70
(dp504
g5
g237
sg7
g237
sg9
g237
sg11
g237
sg13
g237
sg15
g237
sg16
S'2014'
p505
sg18
g70
sg20
g237
sg22
S'Bye'
p506
sg24
g237
sg26
S'Rex Burkhead'
p507
sg28
g237
sg30
g237
sg32
g237
sg34
g237
sg35
g237
sg37
g237
sg38
g237
sg40
g237
ssg33
(dp508
g5
S'--'
p509
sg7
S'--'
p510
sg9
g10
sg11
S'--'
p511
sg13
g14
sg15
S'--'
p512
sg16
S'2014'
p513
sg18
g33
sg20
S'--'
p514
sg22
S'10/19'
p515
sg24
S'--'
p516
sg26
S'Rex Burkhead'
p517
sg28
S'--'
p518
sg30
S'L0-27'
p519
sg32
S'--'
p520
sg34
S'--'
p521
sg35
S'@IND'
p522
sg37
S'--'
p523
sg38
S'--'
p524
sg40
S'--'
p525
ssg241
(dp526
g5
S'--'
p527
sg7
S'--'
p528
sg9
g10
sg11
S'--'
p529
sg13
g14
sg15
S'--'
p530
sg16
S'2014'
p531
sg18
g241
sg20
S'--'
p532
sg22
S'10/12'
p533
sg24
S'--'
p534
sg26
S'Rex Burkhead'
p535
sg28
S'--'
p536
sg30
S'T37-37'
p537
sg32
S'--'
p538
sg34
S'--'
p539
sg35
S'CAR'
p540
sg37
S'--'
p541
sg38
S'--'
p542
sg40
S'--'
p543
ssg260
(dp544
g5
S'5.0'
p545
sg7
S'--'
p546
sg9
g10
sg11
S'--'
p547
sg13
g14
sg15
g10
sg16
S'2014'
p548
sg18
g260
sg20
S'--'
p549
sg22
S'11/02'
p550
sg24
S'--'
p551
sg26
S'Rex Burkhead'
p552
sg28
S'--'
p553
sg30
S'W33-23'
p554
sg32
S'10'
p555
sg34
g72
sg35
S'JAC'
p556
sg37
g241
sg38
S'--'
p557
sg40
S'--'
p558
ssg154
(dp559
g5
S'--'
p560
sg7
S'--'
p561
sg9
g10
sg11
S'--'
p562
sg13
g10
sg15
S'--'
p563
sg16
S'2014'
p564
sg18
g154
sg20
S'--'
p565
sg22
S'10/26'
p566
sg24
S'--'
p567
sg26
S'Rex Burkhead'
p568
sg28
S'--'
p569
sg30
S'W27-24'
p570
sg32
S'--'
p571
sg34
S'--'
p572
sg35
S'BAL'
p573
sg37
S'--'
p574
sg38
S'--'
p575
sg40
S'--'
p576
sssS'2013'
p577
(dp578
g3
(dp579
g5
S'--'
p580
sg7
S'--'
p581
sg9
g10
sg11
S'--'
p582
sg13
g10
sg15
S'--'
p583
sg16
S'2013'
p584
sg18
S'11'
p585
sg20
S'--'
p586
sg22
S'11/17'
p587
sg24
S'--'
p588
sg26
S'Rex Burkhead'
p589
sg28
S'--'
p590
sg30
S'W41-20'
p591
sg32
S'--'
p592
sg34
S'--'
p593
sg35
S'CLE'
p594
sg37
S'--'
p595
sg38
S'--'
p596
sg40
S'--'
p597
ssg42
(dp598
g5
S'--'
p599
sg7
S'--'
p600
sg9
g10
sg11
S'--'
p601
sg13
g14
sg15
S'--'
p602
sg16
S'2013'
p603
sg18
S'10'
p604
sg20
S'--'
p605
sg22
S'11/10'
p606
sg24
S'--'
p607
sg26
S'Rex Burkhead'
p608
sg28
S'--'
p609
sg30
S'L17-20'
p610
sg32
S'--'
p611
sg34
S'--'
p612
sg35
S'@BAL'
p613
sg37
S'--'
p614
sg38
S'--'
p615
sg40
S'--'
p616
ssg59
(dp617
g5
S'--'
p618
sg7
S'--'
p619
sg9
g10
sg11
S'--'
p620
sg13
g10
sg15
S'--'
p621
sg16
S'2013'
p622
sg18
S'13'
p623
sg20
S'--'
p624
sg22
S'12/01'
p625
sg24
S'--'
p626
sg26
S'Rex Burkhead'
p627
sg28
S'--'
p628
sg30
S'W17-10'
p629
sg32
S'--'
p630
sg34
S'--'
p631
sg35
S'@SD'
p632
sg37
S'--'
p633
sg38
S'--'
p634
sg40
S'--'
p635
ssg73
(dp636
g5
g237
sg7
g237
sg9
g237
sg11
g237
sg13
g237
sg15
g237
sg16
S'2013'
p637
sg18
S'12'
p638
sg20
g237
sg22
S'Bye'
p639
sg24
g237
sg26
S'Rex Burkhead'
p640
sg28
g237
sg30
g237
sg32
g237
sg34
g237
sg35
g237
sg37
g237
sg38
g237
sg40
g237
ssg86
(dp641
g5
S'--'
p642
sg7
S'--'
p643
sg9
g10
sg11
S'--'
p644
sg13
g10
sg15
S'--'
p645
sg16
S'2013'
p646
sg18
S'15'
p647
sg20
S'--'
p648
sg22
S'12/15'
p649
sg24
S'--'
p650
sg26
S'Rex Burkhead'
p651
sg28
S'--'
p652
sg30
S'L20-30'
p653
sg32
S'--'
p654
sg34
S'--'
p655
sg35
S'@PIT'
p656
sg37
S'--'
p657
sg38
S'--'
p658
sg40
S'--'
p659
ssg106
(dp660
g5
S'--'
p661
sg7
S'--'
p662
sg9
g10
sg11
S'--'
p663
sg13
g10
sg15
S'--'
p664
sg16
S'2013'
p665
sg18
S'14'
p666
sg20
S'--'
p667
sg22
S'12/08'
p668
sg24
S'--'
p669
sg26
S'Rex Burkhead'
p670
sg28
S'--'
p671
sg30
S'W42-28'
p672
sg32
S'--'
p673
sg34
S'--'
p674
sg35
S'IND'
p675
sg37
S'--'
p676
sg38
S'--'
p677
sg40
S'--'
p678
ssg124
(dp679
g5
S'--'
p680
sg7
S'--'
p681
sg9
g10
sg11
S'--'
p682
sg13
g10
sg15
S'--'
p683
sg16
S'2013'
p684
sg18
S'17'
p685
sg20
S'--'
p686
sg22
S'12/29'
p687
sg24
S'--'
p688
sg26
S'Rex Burkhead'
p689
sg28
S'--'
p690
sg30
S'W34-17'
p691
sg32
S'--'
p692
sg34
S'--'
p693
sg35
S'BAL'
p694
sg37
S'--'
p695
sg38
S'--'
p696
sg40
S'--'
p697
ssg141
(dp698
g5
S'--'
p699
sg7
S'--'
p700
sg9
g10
sg11
S'--'
p701
sg13
g10
sg15
S'--'
p702
sg16
S'2013'
p703
sg18
S'16'
p704
sg20
S'--'
p705
sg22
S'12/22'
p706
sg24
S'--'
p707
sg26
S'Rex Burkhead'
p708
sg28
S'--'
p709
sg30
S'W42-14'
p710
sg32
S'--'
p711
sg34
S'--'
p712
sg35
S'MIN'
p713
sg37
S'--'
p714
sg38
S'--'
p715
sg40
S'--'
p716
ssg14
(dp717
g5
S'--'
p718
sg7
S'--'
p719
sg9
g10
sg11
S'--'
p720
sg13
g10
sg15
S'--'
p721
sg16
S'2013'
p722
sg18
g14
sg20
S'--'
p723
sg22
S'09/08'
p724
sg24
S'--'
p725
sg26
S'Rex Burkhead'
p726
sg28
S'--'
p727
sg30
S'L21-24'
p728
sg32
S'--'
p729
sg34
S'--'
p730
sg35
S'@CHI'
p731
sg37
S'--'
p732
sg38
S'--'
p733
sg40
S'--'
p734
ssg85
(dp735
g5
S'--'
p736
sg7
S'--'
p737
sg9
g10
sg11
S'--'
p738
sg13
g10
sg15
S'--'
p739
sg16
S'2013'
p740
sg18
g85
sg20
S'--'
p741
sg22
S'09/22'
p742
sg24
S'--'
p743
sg26
S'Rex Burkhead'
p744
sg28
S'--'
p745
sg30
S'W34-30'
p746
sg32
S'--'
p747
sg34
S'--'
p748
sg35
S'GB'
p749
sg37
S'--'
p750
sg38
S'--'
p751
sg40
S'--'
p752
ssg72
(dp753
g5
S'--'
p754
sg7
S'--'
p755
sg9
g10
sg11
S'--'
p756
sg13
g10
sg15
S'--'
p757
sg16
S'2013'
p758
sg18
g72
sg20
S'--'
p759
sg22
S'09/16'
p760
sg24
S'--'
p761
sg26
S'Rex Burkhead'
p762
sg28
S'--'
p763
sg30
S'W20-10'
p764
sg32
S'--'
p765
sg34
S'--'
p766
sg35
S'PIT'
p767
sg37
S'--'
p768
sg38
S'--'
p769
sg40
S'--'
p770
ssg119
(dp771
g5
S'--'
p772
sg7
S'--'
p773
sg9
g10
sg11
S'--'
p774
sg13
g10
sg15
S'--'
p775
sg16
S'2013'
p776
sg18
g119
sg20
S'--'
p777
sg22
S'10/06'
p778
sg24
S'--'
p779
sg26
S'Rex Burkhead'
p780
sg28
S'--'
p781
sg30
S'W13-6'
p782
sg32
S'--'
p783
sg34
S'--'
p784
sg35
S'NE'
p785
sg37
S'--'
p786
sg38
S'--'
p787
sg40
S'--'
p788
ssg70
(dp789
g5
S'--'
p790
sg7
S'--'
p791
sg9
g10
sg11
S'--'
p792
sg13
g10
sg15
S'--'
p793
sg16
S'2013'
p794
sg18
g70
sg20
S'--'
p795
sg22
S'09/29'
p796
sg24
S'--'
p797
sg26
S'Rex Burkhead'
p798
sg28
S'--'
p799
sg30
S'L6-17'
p800
sg32
S'--'
p801
sg34
S'--'
p802
sg35
S'@CLE'
p803
sg37
S'--'
p804
sg38
S'--'
p805
sg40
S'--'
p806
ssg33
(dp807
g5
S'--'
p808
sg7
S'--'
p809
sg9
g10
sg11
S'--'
p810
sg13
g10
sg15
S'--'
p811
sg16
S'2013'
p812
sg18
g33
sg20
S'--'
p813
sg22
S'10/20'
p814
sg24
S'--'
p815
sg26
S'Rex Burkhead'
p816
sg28
S'--'
p817
sg30
S'W27-24'
p818
sg32
S'--'
p819
sg34
S'--'
p820
sg35
S'@DET'
p821
sg37
S'--'
p822
sg38
S'--'
p823
sg40
S'--'
p824
ssg241
(dp825
g5
S'--'
p826
sg7
S'--'
p827
sg9
g10
sg11
S'--'
p828
sg13
g10
sg15
S'--'
p829
sg16
S'2013'
p830
sg18
g241
sg20
S'--'
p831
sg22
S'10/13'
p832
sg24
S'--'
p833
sg26
S'Rex Burkhead'
p834
sg28
S'--'
p835
sg30
S'W27-24'
p836
sg32
S'--'
p837
sg34
S'--'
p838
sg35
S'@BUF'
p839
sg37
S'--'
p840
sg38
S'--'
p841
sg40
S'--'
p842
ssg260
(dp843
g5
S'--'
p844
sg7
S'--'
p845
sg9
g10
sg11
S'--'
p846
sg13
g10
sg15
S'--'
p847
sg16
S'2013'
p848
sg18
g260
sg20
S'--'
p849
sg22
S'10/31'
p850
sg24
S'--'
p851
sg26
S'Rex Burkhead'
p852
sg28
S'--'
p853
sg30
S'L20-22'
p854
sg32
S'--'
p855
sg34
S'--'
p856
sg35
S'@MIA'
p857
sg37
S'--'
p858
sg38
S'--'
p859
sg40
S'--'
p860
ssg154
(dp861
g5
S'--'
p862
sg7
S'--'
p863
sg9
g10
sg11
S'--'
p864
sg13
g10
sg15
S'--'
p865
sg16
S'2013'
p866
sg18
g154
sg20
S'--'
p867
sg22
S'10/27'
p868
sg24
S'--'
p869
sg26
S'Rex Burkhead'
p870
sg28
S'--'
p871
sg30
S'W49-9'
p872
sg32
S'--'
p873
sg34
S'--'
p874
sg35
S'NYJ'
p875
sg37
S'--'
p876
sg38
S'--'
p877
sg40
S'--'
p878
sss.