(dp0
S'2015'
p1
(dp2
S'11'
p3
(dp4
S'RecAvg'
p5
S'3.0'
p6
sS'FUM'
p7
S'--'
p8
sS'GS'
p9
S'0'
p10
sS'Lost'
p11
S'--'
p12
sS'G'
p13
S'1'
p14
sS'RecTD'
p15
g10
sS'Year'
p16
S'2015'
p17
sS'WK'
p18
S'11'
p19
sS'RushAvg'
p20
S'5.0'
p21
sS'Game Date'
p22
S'11/22'
p23
sS'RushTD'
p24
g10
sS'Player'
p25
S'Robert Turbin'
p26
sS'RushAtt'
p27
S'7'
p28
sS'Result'
p29
S'W24-14'
p30
sS'RecYds'
p31
S'3'
p32
sS'Rec'
p33
g14
sS'Opp'
p34
S'@MIA'
p35
sS'RecLng'
p36
g32
sS'RushYds'
p37
S'35'
p38
sS'RushLng'
p39
S'17'
p40
ssS'13'
p41
(dp42
g5
S'6.0'
p43
sg7
S'--'
p44
sg9
g10
sg11
S'--'
p45
sg13
g14
sg15
g10
sg16
S'2015'
p46
sg18
S'13'
p47
sg20
S'2.0'
p48
sg22
S'12/07'
p49
sg24
g10
sg25
S'Robert Turbin'
p50
sg27
S'6'
p51
sg29
S'W19-16'
p52
sg31
S'12'
p53
sg33
S'2'
p54
sg34
S'@WAS'
p55
sg36
S'15'
p56
sg37
S'12'
p57
sg39
S'5'
p58
ssS'12'
p59
(dp60
g5
S'1.0'
p61
sg7
S'--'
p62
sg9
g10
sg11
S'--'
p63
sg13
g14
sg15
g10
sg16
S'2015'
p64
sg18
S'12'
p65
sg20
S'5.5'
p66
sg22
S'11/26'
p67
sg24
g10
sg25
S'Robert Turbin'
p68
sg27
g54
sg29
S'L14-33'
p69
sg31
g14
sg33
g14
sg34
S'CAR'
p70
sg36
g14
sg37
S'11'
p71
sg39
S'8'
p72
ssS'15'
p73
(dp74
g5
S'--'
p75
sg7
S'--'
p76
sg9
g10
sg11
S'--'
p77
sg13
g14
sg15
S'--'
p78
sg16
S'2015'
p79
sg18
S'15'
p80
sg20
S'0.3'
p81
sg22
S'12/19'
p82
sg24
g10
sg25
S'Robert Turbin'
p83
sg27
g32
sg29
S'L16-19'
p84
sg31
S'--'
p85
sg33
S'--'
p86
sg34
S'NYJ'
p87
sg36
S'--'
p88
sg37
g14
sg39
g54
ssS'14'
p89
(dp90
g5
S'--'
p91
sg7
S'--'
p92
sg9
g10
sg11
S'--'
p93
sg13
g14
sg15
S'--'
p94
sg16
S'2015'
p95
sg18
S'14'
p96
sg20
S'7.3'
p97
sg22
S'12/13'
p98
sg24
g14
sg25
S'Robert Turbin'
p99
sg27
g28
sg29
S'L7-28'
p100
sg31
S'--'
p101
sg33
S'--'
p102
sg34
S'@GB'
p103
sg36
S'--'
p104
sg37
S'51'
p105
sg39
S'22'
p106
ssS'17'
p107
(dp108
g5
S'-1.0'
p109
sg7
S'--'
p110
sg9
g10
sg11
S'--'
p111
sg13
g14
sg15
g10
sg16
S'2015'
p112
sg18
S'17'
p113
sg20
S'3.0'
p114
sg22
S'01/03'
p115
sg24
g10
sg25
S'Robert Turbin'
p116
sg27
g54
sg29
S'L23-34'
p117
sg31
S'-1'
p118
sg33
g14
sg34
S'WAS'
p119
sg36
S'-1'
p120
sg37
g51
sg39
g32
ssS'16'
p121
(dp122
g5
S'--'
p123
sg7
S'--'
p124
sg9
g10
sg11
S'--'
p125
sg13
g14
sg15
g10
sg16
S'2015'
p126
sg18
S'16'
p127
sg20
S'4.6'
p128
sg22
S'12/27'
p129
sg24
g10
sg25
S'Robert Turbin'
p130
sg27
g58
sg29
S'L6-16'
p131
sg31
g10
sg33
g10
sg34
S'@BUF'
p132
sg36
S'--'
p133
sg37
S'23'
p134
sg39
S'11'
p135
ssg14
(dp136
g5
S'--'
p137
sg7
S'--'
p138
sg9
g10
sg11
S'--'
p139
sg13
g10
sg15
S'--'
p140
sg16
S'2015'
p141
sg18
g14
sg20
S'--'
p142
sg22
S'09/13'
p143
sg24
S'--'
p144
sg25
S'Robert Turbin'
p145
sg27
S'--'
p146
sg29
S'L10-31'
p147
sg31
S'--'
p148
sg33
S'--'
p149
sg34
S'@NYJ'
p150
sg36
S'--'
p151
sg37
S'--'
p152
sg39
S'--'
p153
ssg32
(dp154
g5
S'--'
p155
sg7
S'--'
p156
sg9
g10
sg11
S'--'
p157
sg13
g10
sg15
S'--'
p158
sg16
S'2015'
p159
sg18
g32
sg20
S'--'
p160
sg22
S'09/27'
p161
sg24
S'--'
p162
sg25
S'Robert Turbin'
p163
sg27
S'--'
p164
sg29
S'L20-27'
p165
sg31
S'--'
p166
sg33
S'--'
p167
sg34
S'OAK'
p168
sg36
S'--'
p169
sg37
S'--'
p170
sg39
S'--'
p171
ssg54
(dp172
g5
S'--'
p173
sg7
S'--'
p174
sg9
g10
sg11
S'--'
p175
sg13
g10
sg15
S'--'
p176
sg16
S'2015'
p177
sg18
g54
sg20
S'--'
p178
sg22
S'09/20'
p179
sg24
S'--'
p180
sg25
S'Robert Turbin'
p181
sg27
S'--'
p182
sg29
S'W28-14'
p183
sg31
S'--'
p184
sg33
S'--'
p185
sg34
S'TEN'
p186
sg36
S'--'
p187
sg37
S'--'
p188
sg39
S'--'
p189
ssg58
(dp190
g5
S'--'
p191
sg7
S'--'
p192
sg9
g10
sg11
S'--'
p193
sg13
g10
sg15
S'--'
p194
sg16
S'2015'
p195
sg18
g58
sg20
S'--'
p196
sg22
S'10/11'
p197
sg24
S'--'
p198
sg25
S'Robert Turbin'
p199
sg27
S'--'
p200
sg29
S'W33-30'
p201
sg31
S'--'
p202
sg33
S'--'
p203
sg34
S'@BAL'
p204
sg36
S'--'
p205
sg37
S'--'
p206
sg39
S'--'
p207
ssS'4'
p208
(dp209
g5
S'--'
p210
sg7
S'--'
p211
sg9
g10
sg11
S'--'
p212
sg13
g10
sg15
S'--'
p213
sg16
S'2015'
p214
sg18
g208
sg20
S'--'
p215
sg22
S'10/04'
p216
sg24
S'--'
p217
sg25
S'Robert Turbin'
p218
sg27
S'--'
p219
sg29
S'L27-30'
p220
sg31
S'--'
p221
sg33
S'--'
p222
sg34
S'@SD'
p223
sg36
S'--'
p224
sg37
S'--'
p225
sg39
S'--'
p226
ssg28
(dp227
g5
S'4.0'
p228
sg7
S'--'
p229
sg9
g10
sg11
S'--'
p230
sg13
g14
sg15
g10
sg16
S'2015'
p231
sg18
g28
sg20
S'6.0'
p232
sg22
S'10/25'
p233
sg24
g10
sg25
S'Robert Turbin'
p234
sg27
g58
sg29
S'L6-24'
p235
sg31
g72
sg33
g54
sg34
S'@STL'
p236
sg36
g28
sg37
S'30'
p237
sg39
S'22'
p238
ssg51
(dp239
g5
S'--'
p240
sg7
S'--'
p241
sg9
g10
sg11
S'--'
p242
sg13
g14
sg15
g10
sg16
S'2015'
p243
sg18
g51
sg20
S'2.7'
p244
sg22
S'10/18'
p245
sg24
g10
sg25
S'Robert Turbin'
p246
sg27
S'10'
p247
sg29
S'L23-26'
p248
sg31
g10
sg33
g10
sg34
S'DEN'
p249
sg36
S'--'
p250
sg37
S'27'
p251
sg39
g72
ssS'9'
p252
(dp253
g5
S'--'
p254
sg7
S'--'
p255
sg9
g10
sg11
S'--'
p256
sg13
g10
sg15
S'--'
p257
sg16
S'2015'
p258
sg18
g252
sg20
S'--'
p259
sg22
S'11/05'
p260
sg24
S'--'
p261
sg25
S'Robert Turbin'
p262
sg27
S'--'
p263
sg29
S'L10-31'
p264
sg31
S'--'
p265
sg33
S'--'
p266
sg34
S'@CIN'
p267
sg36
S'--'
p268
sg37
S'--'
p269
sg39
S'--'
p270
ssg72
(dp271
g5
S'--'
p272
sg7
S'--'
p273
sg9
g10
sg11
S'--'
p274
sg13
g14
sg15
S'--'
p275
sg16
S'2015'
p276
sg18
g72
sg20
S'1.0'
p277
sg22
S'11/01'
p278
sg24
g10
sg25
S'Robert Turbin'
p279
sg27
g32
sg29
S'L20-34'
p280
sg31
S'--'
p281
sg33
S'--'
p282
sg34
S'ARI'
p283
sg36
S'--'
p284
sg37
g32
sg39
g32
sssS'2014'
p285
(dp286
g3
(dp287
g5
S'--'
p288
sg7
S'--'
p289
sg9
g10
sg11
S'--'
p290
sg13
g14
sg15
S'--'
p291
sg16
S'2014'
p292
sg18
S'11'
p293
sg20
S'2.8'
p294
sg22
S'11/16'
p295
sg24
g10
sg25
S'Robert Turbin'
p296
sg27
g208
sg29
S'L20-24'
p297
sg31
S'--'
p298
sg33
S'--'
p299
sg34
S'@KC'
p300
sg36
S'--'
p301
sg37
S'11'
p302
sg39
g208
ssS'10'
p303
(dp304
g5
S'--'
p305
sg7
g14
sg9
g10
sg11
g14
sg13
g14
sg15
S'--'
p306
sg16
S'2014'
p307
sg18
S'10'
p308
sg20
S'5.3'
p309
sg22
S'11/09'
p310
sg24
g10
sg25
S'Robert Turbin'
p311
sg27
g51
sg29
S'W38-17'
p312
sg31
S'--'
p313
sg33
S'--'
p314
sg34
S'NYG'
p315
sg36
S'--'
p316
sg37
S'32'
p317
sg39
g51
ssg41
(dp318
g5
S'23.5'
p319
sg7
S'--'
p320
sg9
g10
sg11
S'--'
p321
sg13
g14
sg15
g14
sg16
S'2014'
p322
sg18
S'13'
p323
sg20
S'2.0'
p324
sg22
S'11/27'
p325
sg24
g10
sg25
S'Robert Turbin'
p326
sg27
g208
sg29
S'W19-3'
p327
sg31
S'47'
p328
sg33
g54
sg34
S'@SF'
p329
sg36
S'34'
p330
sg37
g72
sg39
g58
ssg59
(dp331
g5
S'1.5'
p332
sg7
S'--'
p333
sg9
g10
sg11
S'--'
p334
sg13
g14
sg15
g10
sg16
S'2014'
p335
sg18
S'12'
p336
sg20
S'3.0'
p337
sg22
S'11/23'
p338
sg24
g10
sg25
S'Robert Turbin'
p339
sg27
g208
sg29
S'W19-3'
p340
sg31
g32
sg33
g54
sg34
S'ARI'
p341
sg36
g252
sg37
S'12'
p342
sg39
g51
ssg73
(dp343
g5
S'--'
p344
sg7
S'--'
p345
sg9
g10
sg11
S'--'
p346
sg13
g14
sg15
S'--'
p347
sg16
S'2014'
p348
sg18
S'15'
p349
sg20
S'6.6'
p350
sg22
S'12/14'
p351
sg24
g10
sg25
S'Robert Turbin'
p352
sg27
g58
sg29
S'W17-7'
p353
sg31
S'--'
p354
sg33
S'--'
p355
sg34
S'SF'
p356
sg36
S'--'
p357
sg37
S'33'
p358
sg39
S'15'
p359
ssg89
(dp360
g5
S'14.0'
p361
sg7
S'--'
p362
sg9
g10
sg11
S'--'
p363
sg13
g14
sg15
g10
sg16
S'2014'
p364
sg18
S'14'
p365
sg20
S'1.8'
p366
sg22
S'12/07'
p367
sg24
g10
sg25
S'Robert Turbin'
p368
sg27
g208
sg29
S'W24-14'
p369
sg31
S'14'
p370
sg33
g14
sg34
S'@PHI'
p371
sg36
S'14'
p372
sg37
g28
sg39
g58
ssg107
(dp373
g5
S'13.0'
p374
sg7
S'--'
p375
sg9
g10
sg11
S'--'
p376
sg13
g14
sg15
g10
sg16
S'2014'
p377
sg18
S'17'
p378
sg20
S'4.8'
p379
sg22
S'12/28'
p380
sg24
g10
sg25
S'Robert Turbin'
p381
sg27
S'11'
p382
sg29
S'W20-6'
p383
sg31
S'13'
p384
sg33
g14
sg34
S'STL'
p385
sg36
S'13'
p386
sg37
S'53'
p387
sg39
S'14'
p388
ssg121
(dp389
g5
S'--'
p390
sg7
S'--'
p391
sg9
g14
sg11
S'--'
p392
sg13
g14
sg15
S'--'
p393
sg16
S'2014'
p394
sg18
S'16'
p395
sg20
S'3.8'
p396
sg22
S'12/21'
p397
sg24
g10
sg25
S'Robert Turbin'
p398
sg27
S'10'
p399
sg29
S'W35-6'
p400
sg31
S'--'
p401
sg33
S'--'
p402
sg34
S'@ARI'
p403
sg36
S'--'
p404
sg37
S'38'
p405
sg39
S'11'
p406
ssg14
(dp407
g5
S'--'
p408
sg7
S'--'
p409
sg9
g10
sg11
S'--'
p410
sg13
g14
sg15
S'--'
p411
sg16
S'2014'
p412
sg18
g14
sg20
S'4.5'
p413
sg22
S'09/04'
p414
sg24
g10
sg25
S'Robert Turbin'
p415
sg27
g51
sg29
S'W36-16'
p416
sg31
S'--'
p417
sg33
S'--'
p418
sg34
S'GB'
p419
sg36
S'--'
p420
sg37
S'27'
p421
sg39
g28
ssg32
(dp422
g5
S'4.0'
p423
sg7
S'--'
p424
sg9
g10
sg11
S'--'
p425
sg13
g14
sg15
g10
sg16
S'2014'
p426
sg18
g32
sg20
S'0.5'
p427
sg22
S'09/21'
p428
sg24
g10
sg25
S'Robert Turbin'
p429
sg27
g54
sg29
S'W26-20'
p430
sg31
g208
sg33
g14
sg34
S'DEN'
p431
sg36
g208
sg37
g14
sg39
g14
ssg54
(dp432
g5
S'17.5'
p433
sg7
S'--'
p434
sg9
g10
sg11
S'--'
p435
sg13
g14
sg15
g14
sg16
S'2014'
p436
sg18
g54
sg20
S'3.5'
p437
sg22
S'09/14'
p438
sg24
g10
sg25
S'Robert Turbin'
p439
sg27
g54
sg29
S'L21-30'
p440
sg31
S'35'
p441
sg33
g54
sg34
S'@SD'
p442
sg36
S'32'
p443
sg37
g28
sg39
S'10'
p444
ssg58
(dp445
g5
S'--'
p446
sg7
S'--'
p447
sg9
g14
sg11
S'--'
p448
sg13
g14
sg15
S'--'
p449
sg16
S'2014'
p450
sg18
g58
sg20
S'3.8'
p451
sg22
S'10/06'
p452
sg24
g10
sg25
S'Robert Turbin'
p453
sg27
g58
sg29
S'W27-17'
p454
sg31
S'--'
p455
sg33
S'--'
p456
sg34
S'@WAS'
p457
sg36
S'--'
p458
sg37
S'19'
p459
sg39
g252
ssg208
(dp460
g5
S''
p461
sg7
g461
sg9
g461
sg11
g461
sg13
g461
sg15
g461
sg16
S'2014'
p462
sg18
g208
sg20
g461
sg22
S'Bye'
p463
sg24
g461
sg25
S'Robert Turbin'
p464
sg27
g461
sg29
g461
sg31
g461
sg33
g461
sg34
g461
sg36
g461
sg37
g461
sg39
g461
ssg28
(dp465
g5
S'8.0'
p466
sg7
S'--'
p467
sg9
g14
sg11
S'--'
p468
sg13
g14
sg15
g10
sg16
S'2014'
p469
sg18
g28
sg20
S'3.5'
p470
sg22
S'10/19'
p471
sg24
g10
sg25
S'Robert Turbin'
p472
sg27
g54
sg29
S'L26-28'
p473
sg31
S'24'
p474
sg33
g32
sg34
S'@STL'
p475
sg36
g252
sg37
g28
sg39
g51
ssg51
(dp476
g5
S'--'
p477
sg7
S'--'
p478
sg9
g10
sg11
S'--'
p479
sg13
g14
sg15
S'--'
p480
sg16
S'2014'
p481
sg18
g51
sg20
S'5.0'
p482
sg22
S'10/12'
p483
sg24
g10
sg25
S'Robert Turbin'
p484
sg27
g54
sg29
S'L23-30'
p485
sg31
S'--'
p486
sg33
S'--'
p487
sg34
S'DAL'
p488
sg36
S'--'
p489
sg37
S'10'
p490
sg39
g28
ssg252
(dp491
g5
S'14.0'
p492
sg7
S'--'
p493
sg9
g10
sg11
S'--'
p494
sg13
g14
sg15
g10
sg16
S'2014'
p495
sg18
g252
sg20
S'7.0'
p496
sg22
S'11/02'
p497
sg24
g10
sg25
S'Robert Turbin'
p498
sg27
g58
sg29
S'W30-24'
p499
sg31
S'14'
p500
sg33
g14
sg34
S'OAK'
p501
sg36
S'14'
p502
sg37
S'35'
p503
sg39
S'17'
p504
ssg72
(dp505
g5
S'10.7'
p506
sg7
S'--'
p507
sg9
g10
sg11
S'--'
p508
sg13
g14
sg15
g10
sg16
S'2014'
p509
sg18
g72
sg20
S'5.0'
p510
sg22
S'10/26'
p511
sg24
g10
sg25
S'Robert Turbin'
p512
sg27
g54
sg29
S'W13-9'
p513
sg31
S'32'
p514
sg33
g32
sg34
S'@CAR'
p515
sg36
S'21'
p516
sg37
S'10'
p517
sg39
g58
sssS'2013'
p518
(dp519
g3
(dp520
g5
S'12.0'
p521
sg7
S'--'
p522
sg9
g10
sg11
S'--'
p523
sg13
g14
sg15
g10
sg16
S'2013'
p524
sg18
S'11'
p525
sg20
S'2.4'
p526
sg22
S'11/17'
p527
sg24
g10
sg25
S'Robert Turbin'
p528
sg27
g28
sg29
S'W41-20'
p529
sg31
S'12'
p530
sg33
g14
sg34
S'MIN'
p531
sg36
S'12'
p532
sg37
S'17'
p533
sg39
g28
ssg303
(dp534
g5
S'-5.0'
p535
sg7
S'--'
p536
sg9
g10
sg11
S'--'
p537
sg13
g14
sg15
g10
sg16
S'2013'
p538
sg18
S'10'
p539
sg20
S'1.9'
p540
sg22
S'11/10'
p541
sg24
g10
sg25
S'Robert Turbin'
p542
sg27
g28
sg29
S'W33-10'
p543
sg31
S'-5'
p544
sg33
g14
sg34
S'@ATL'
p545
sg36
S'-5'
p546
sg37
S'13'
p547
sg39
g51
ssg41
(dp548
g5
S'--'
p549
sg7
S'--'
p550
sg9
g10
sg11
S'--'
p551
sg13
g14
sg15
S'--'
p552
sg16
S'2013'
p553
sg18
S'13'
p554
sg20
S'3.1'
p555
sg22
S'12/02'
p556
sg24
g10
sg25
S'Robert Turbin'
p557
sg27
S'11'
p558
sg29
S'W34-7'
p559
sg31
S'--'
p560
sg33
S'--'
p561
sg34
S'NO'
p562
sg36
S'--'
p563
sg37
S'34'
p564
sg39
S'12'
p565
ssg59
(dp566
g5
g461
sg7
g461
sg9
g461
sg11
g461
sg13
g461
sg15
g461
sg16
S'2013'
p567
sg18
S'12'
p568
sg20
g461
sg22
S'Bye'
p569
sg24
g461
sg25
S'Robert Turbin'
p570
sg27
g461
sg29
g461
sg31
g461
sg33
g461
sg34
g461
sg36
g461
sg37
g461
sg39
g461
ssg73
(dp571
g5
S'1.0'
p572
sg7
S'--'
p573
sg9
g10
sg11
S'--'
p574
sg13
g14
sg15
g10
sg16
S'2013'
p575
sg18
S'15'
p576
sg20
S'3.8'
p577
sg22
S'12/15'
p578
sg24
g10
sg25
S'Robert Turbin'
p579
sg27
g252
sg29
S'W23-0'
p580
sg31
g14
sg33
g14
sg34
S'@NYG'
p581
sg36
g14
sg37
S'34'
p582
sg39
S'11'
p583
ssg89
(dp584
g5
S'--'
p585
sg7
S'--'
p586
sg9
g10
sg11
S'--'
p587
sg13
g14
sg15
g10
sg16
S'2013'
p588
sg18
S'14'
p589
sg20
S'6.0'
p590
sg22
S'12/08'
p591
sg24
g10
sg25
S'Robert Turbin'
p592
sg27
g54
sg29
S'L17-19'
p593
sg31
g10
sg33
g10
sg34
S'@SF'
p594
sg36
S'--'
p595
sg37
S'12'
p596
sg39
g72
ssg107
(dp597
g5
S'--'
p598
sg7
S'--'
p599
sg9
g10
sg11
S'--'
p600
sg13
g14
sg15
S'--'
p601
sg16
S'2013'
p602
sg18
S'17'
p603
sg20
S'1.9'
p604
sg22
S'12/29'
p605
sg24
g10
sg25
S'Robert Turbin'
p606
sg27
g28
sg29
S'W27-9'
p607
sg31
S'--'
p608
sg33
S'--'
p609
sg34
S'STL'
p610
sg36
S'--'
p611
sg37
S'13'
p612
sg39
g28
ssg121
(dp613
g5
S'--'
p614
sg7
g14
sg9
g10
sg11
g14
sg13
g14
sg15
S'--'
p615
sg16
S'2013'
p616
sg18
S'16'
p617
sg20
S'--'
p618
sg22
S'12/22'
p619
sg24
S'--'
p620
sg25
S'Robert Turbin'
p621
sg27
S'--'
p622
sg29
S'L10-17'
p623
sg31
S'--'
p624
sg33
S'--'
p625
sg34
S'ARI'
p626
sg36
S'--'
p627
sg37
S'--'
p628
sg39
S'--'
p629
ssg14
(dp630
g5
S'6.5'
p631
sg7
S'--'
p632
sg9
g10
sg11
S'--'
p633
sg13
g14
sg15
g10
sg16
S'2013'
p634
sg18
g14
sg20
S'5.7'
p635
sg22
S'09/08'
p636
sg24
g10
sg25
S'Robert Turbin'
p637
sg27
g32
sg29
S'W12-7'
p638
sg31
S'13'
p639
sg33
g54
sg34
S'@CAR'
p640
sg36
g72
sg37
S'17'
p641
sg39
S'15'
p642
ssg32
(dp643
g5
S'--'
p644
sg7
S'--'
p645
sg9
g10
sg11
S'--'
p646
sg13
g14
sg15
g10
sg16
S'2013'
p647
sg18
g32
sg20
S'1.7'
p648
sg22
S'09/22'
p649
sg24
g10
sg25
S'Robert Turbin'
p650
sg27
g32
sg29
S'W45-17'
p651
sg31
g10
sg33
g10
sg34
S'JAC'
p652
sg36
S'--'
p653
sg37
g58
sg39
g58
ssg54
(dp654
g5
S'--'
p655
sg7
S'--'
p656
sg9
g10
sg11
S'--'
p657
sg13
g14
sg15
g10
sg16
S'2013'
p658
sg18
g54
sg20
S'5.2'
p659
sg22
S'09/15'
p660
sg24
g10
sg25
S'Robert Turbin'
p661
sg27
g51
sg29
S'W29-3'
p662
sg31
g10
sg33
g10
sg34
S'SF'
p663
sg36
S'--'
p664
sg37
S'31'
p665
sg39
S'13'
p666
ssg58
(dp667
g5
S'--'
p668
sg7
S'--'
p669
sg9
g10
sg11
S'--'
p670
sg13
g14
sg15
S'--'
p671
sg16
S'2013'
p672
sg18
g58
sg20
S'3.5'
p673
sg22
S'10/06'
p674
sg24
g10
sg25
S'Robert Turbin'
p675
sg27
g208
sg29
S'L28-34'
p676
sg31
S'--'
p677
sg33
S'--'
p678
sg34
S'@IND'
p679
sg36
S'--'
p680
sg37
S'14'
p681
sg39
g72
ssg208
(dp682
g5
S'--'
p683
sg7
S'--'
p684
sg9
g10
sg11
S'--'
p685
sg13
g14
sg15
S'--'
p686
sg16
S'2013'
p687
sg18
g208
sg20
S'1.3'
p688
sg22
S'09/29'
p689
sg24
g10
sg25
S'Robert Turbin'
p690
sg27
g32
sg29
S'W23-20'
p691
sg31
S'--'
p692
sg33
S'--'
p693
sg34
S'@HOU'
p694
sg36
S'--'
p695
sg37
g208
sg39
g28
ssg28
(dp696
g5
S'--'
p697
sg7
S'--'
p698
sg9
g10
sg11
S'--'
p699
sg13
g14
sg15
S'--'
p700
sg16
S'2013'
p701
sg18
g28
sg20
S'5.0'
p702
sg22
S'10/17'
p703
sg24
g10
sg25
S'Robert Turbin'
p704
sg27
g32
sg29
S'W34-22'
p705
sg31
S'--'
p706
sg33
S'--'
p707
sg34
S'@ARI'
p708
sg36
S'--'
p709
sg37
S'15'
p710
sg39
g28
ssg51
(dp711
g5
S'11.5'
p712
sg7
S'--'
p713
sg9
g10
sg11
S'--'
p714
sg13
g14
sg15
g10
sg16
S'2013'
p715
sg18
g51
sg20
S'13.0'
p716
sg22
S'10/13'
p717
sg24
g10
sg25
S'Robert Turbin'
p718
sg27
g14
sg29
S'W20-13'
p719
sg31
S'23'
p720
sg33
g54
sg34
S'TEN'
p721
sg36
S'19'
p722
sg37
S'13'
p723
sg39
S'13'
p724
ssg252
(dp725
g5
S'--'
p726
sg7
S'--'
p727
sg9
g10
sg11
S'--'
p728
sg13
g14
sg15
S'--'
p729
sg16
S'2013'
p730
sg18
g252
sg20
S'4.6'
p731
sg22
S'11/03'
p732
sg24
g10
sg25
S'Robert Turbin'
p733
sg27
g72
sg29
S'W27-24'
p734
sg31
S'--'
p735
sg33
S'--'
p736
sg34
S'TB'
p737
sg36
S'--'
p738
sg37
S'37'
p739
sg39
S'12'
p740
ssg72
(dp741
g5
S'16.0'
p742
sg7
S'--'
p743
sg9
g10
sg11
S'--'
p744
sg13
g14
sg15
g10
sg16
S'2013'
p745
sg18
g72
sg20
S'1.7'
p746
sg22
S'10/28'
p747
sg24
g10
sg25
S'Robert Turbin'
p748
sg27
g32
sg29
S'W14-9'
p749
sg31
S'16'
p750
sg33
g14
sg34
S'@STL'
p751
sg36
S'16'
p752
sg37
g58
sg39
g32
sssS'2012'
p753
(dp754
g3
(dp755
g5
g461
sg7
g461
sg9
g461
sg11
g461
sg13
g461
sg15
g461
sg16
S'2012'
p756
sg18
S'11'
p757
sg20
g461
sg22
S'Bye'
p758
sg24
g461
sg25
S'Robert Turbin'
p759
sg27
g461
sg29
g461
sg31
g461
sg33
g461
sg34
g461
sg36
g461
sg37
g461
sg39
g461
ssg303
(dp760
g5
S'--'
p761
sg7
S'--'
p762
sg9
g10
sg11
S'--'
p763
sg13
g14
sg15
S'--'
p764
sg16
S'2012'
p765
sg18
S'10'
p766
sg20
S'2.4'
p767
sg22
S'11/11'
p768
sg24
g10
sg25
S'Robert Turbin'
p769
sg27
g28
sg29
S'W28-7'
p770
sg31
S'--'
p771
sg33
S'--'
p772
sg34
S'NYJ'
p773
sg36
S'--'
p774
sg37
S'17'
p775
sg39
g58
ssg41
(dp776
g5
S'--'
p777
sg7
S'--'
p778
sg9
g10
sg11
S'--'
p779
sg13
g14
sg15
S'--'
p780
sg16
S'2012'
p781
sg18
S'13'
p782
sg20
S'6.0'
p783
sg22
S'12/02'
p784
sg24
g10
sg25
S'Robert Turbin'
p785
sg27
g14
sg29
S'W23-17'
p786
sg31
S'--'
p787
sg33
S'--'
p788
sg34
S'@CHI'
p789
sg36
S'--'
p790
sg37
g51
sg39
g51
ssg59
(dp791
g5
S'15.7'
p792
sg7
S'--'
p793
sg9
g10
sg11
S'--'
p794
sg13
g14
sg15
g10
sg16
S'2012'
p795
sg18
S'12'
p796
sg20
S'4.5'
p797
sg22
S'11/25'
p798
sg24
g10
sg25
S'Robert Turbin'
p799
sg27
g54
sg29
S'L21-24'
p800
sg31
S'47'
p801
sg33
g32
sg34
S'@MIA'
p802
sg36
S'20'
p803
sg37
g252
sg39
S'10'
p804
ssg73
(dp805
g5
S'-3.0'
p806
sg7
S'--'
p807
sg9
g10
sg11
S'--'
p808
sg13
g14
sg15
g10
sg16
S'2012'
p809
sg18
S'15'
p810
sg20
S'3.1'
p811
sg22
S'12/16'
p812
sg24
g10
sg25
S'Robert Turbin'
p813
sg27
S'10'
p814
sg29
S'W50-17'
p815
sg31
S'-3'
p816
sg33
g14
sg34
S'@BUF'
p817
sg36
S'-3'
p818
sg37
S'31'
p819
sg39
S'12'
p820
ssg89
(dp821
g5
S'--'
p822
sg7
S'--'
p823
sg9
g10
sg11
S'--'
p824
sg13
g14
sg15
g10
sg16
S'2012'
p825
sg18
S'14'
p826
sg20
S'5.4'
p827
sg22
S'12/09'
p828
sg24
g10
sg25
S'Robert Turbin'
p829
sg27
S'20'
p830
sg29
S'W58-0'
p831
sg31
g10
sg33
g10
sg34
S'ARI'
p832
sg36
S'--'
p833
sg37
S'108'
p834
sg39
S'26'
p835
ssg107
(dp836
g5
S'12.0'
p837
sg7
S'--'
p838
sg9
g10
sg11
S'--'
p839
sg13
g14
sg15
g10
sg16
S'2012'
p840
sg18
S'17'
p841
sg20
S'-2.5'
p842
sg22
S'12/30'
p843
sg24
g10
sg25
S'Robert Turbin'
p844
sg27
g54
sg29
S'W20-13'
p845
sg31
S'12'
p846
sg33
g14
sg34
S'STL'
p847
sg36
S'12'
p848
sg37
S'-5'
p849
sg39
g54
ssg121
(dp850
g5
S'10.0'
p851
sg7
S'--'
p852
sg9
g10
sg11
S'--'
p853
sg13
g14
sg15
g10
sg16
S'2012'
p854
sg18
S'16'
p855
sg20
S'12.7'
p856
sg22
S'12/23'
p857
sg24
g10
sg25
S'Robert Turbin'
p858
sg27
g32
sg29
S'W42-13'
p859
sg31
S'20'
p860
sg33
g54
sg34
S'SF'
p861
sg36
S'11'
p862
sg37
S'38'
p863
sg39
S'24'
p864
ssg14
(dp865
g5
S'2.0'
p866
sg7
S'--'
p867
sg9
g10
sg11
S'--'
p868
sg13
g14
sg15
g10
sg16
S'2012'
p869
sg18
g14
sg20
S'2.5'
p870
sg22
S'09/09'
p871
sg24
g10
sg25
S'Robert Turbin'
p872
sg27
g54
sg29
S'L16-20'
p873
sg31
g54
sg33
g14
sg34
S'@ARI'
p874
sg36
g54
sg37
g58
sg39
g208
ssg32
(dp875
g5
S'--'
p876
sg7
S'--'
p877
sg9
g10
sg11
S'--'
p878
sg13
g14
sg15
S'--'
p879
sg16
S'2012'
p880
sg18
g32
sg20
S'--'
p881
sg22
S'09/24'
p882
sg24
S'--'
p883
sg25
S'Robert Turbin'
p884
sg27
S'--'
p885
sg29
S'W14-12'
p886
sg31
S'--'
p887
sg33
S'--'
p888
sg34
S'GB'
p889
sg36
S'--'
p890
sg37
S'--'
p891
sg39
S'--'
p892
ssg54
(dp893
g5
S'12.0'
p894
sg7
S'--'
p895
sg9
g10
sg11
S'--'
p896
sg13
g14
sg15
g10
sg16
S'2012'
p897
sg18
g54
sg20
S'3.0'
p898
sg22
S'09/16'
p899
sg24
g10
sg25
S'Robert Turbin'
p900
sg27
g58
sg29
S'W27-7'
p901
sg31
S'24'
p902
sg33
g54
sg34
S'DAL'
p903
sg36
S'14'
p904
sg37
S'15'
p905
sg39
g51
ssg58
(dp906
g5
S'4.0'
p907
sg7
S'--'
p908
sg9
g10
sg11
S'--'
p909
sg13
g14
sg15
g10
sg16
S'2012'
p910
sg18
g58
sg20
S'1.5'
p911
sg22
S'10/07'
p912
sg24
g10
sg25
S'Robert Turbin'
p913
sg27
g208
sg29
S'W16-12'
p914
sg31
g72
sg33
g54
sg34
S'@CAR'
p915
sg36
g58
sg37
g51
sg39
g58
ssg208
(dp916
g5
S'6.5'
p917
sg7
S'--'
p918
sg9
g10
sg11
S'--'
p919
sg13
g14
sg15
g10
sg16
S'2012'
p920
sg18
g208
sg20
S'7.5'
p921
sg22
S'09/30'
p922
sg24
g10
sg25
S'Robert Turbin'
p923
sg27
g51
sg29
S'L13-19'
p924
sg31
S'13'
p925
sg33
g54
sg34
S'@STL'
p926
sg36
g28
sg37
S'45'
p927
sg39
S'13'
p928
ssg28
(dp929
g5
S'--'
p930
sg7
S'--'
p931
sg9
g10
sg11
S'--'
p932
sg13
g14
sg15
g10
sg16
S'2012'
p933
sg18
g28
sg20
S'4.3'
p934
sg22
S'10/18'
p935
sg24
g10
sg25
S'Robert Turbin'
p936
sg27
g208
sg29
S'L6-13'
p937
sg31
g10
sg33
g10
sg34
S'@SF'
p938
sg36
S'--'
p939
sg37
S'17'
p940
sg39
S'15'
p941
ssg51
(dp942
g5
S'10.5'
p943
sg7
S'--'
p944
sg9
g10
sg11
S'--'
p945
sg13
g14
sg15
g10
sg16
S'2012'
p946
sg18
g51
sg20
S'5.4'
p947
sg22
S'10/14'
p948
sg24
g10
sg25
S'Robert Turbin'
p949
sg27
g58
sg29
S'W24-23'
p950
sg31
S'21'
p951
sg33
g54
sg34
S'NE'
p952
sg36
S'15'
p953
sg37
S'27'
p954
sg39
S'11'
p955
ssg252
(dp956
g5
S'9.0'
p957
sg7
S'--'
p958
sg9
g10
sg11
S'--'
p959
sg13
g14
sg15
g10
sg16
S'2012'
p960
sg18
g252
sg20
S'4.2'
p961
sg22
S'11/04'
p962
sg24
g10
sg25
S'Robert Turbin'
p963
sg27
g58
sg29
S'W30-20'
p964
sg31
g252
sg33
g14
sg34
S'MIN'
p965
sg36
g252
sg37
S'21'
p966
sg39
S'12'
p967
ssg72
(dp968
g5
S'14.0'
p969
sg7
S'--'
p970
sg9
g10
sg11
S'--'
p971
sg13
g14
sg15
g10
sg16
S'2012'
p972
sg18
g72
sg20
S'3.5'
p973
sg22
S'10/28'
p974
sg24
g10
sg25
S'Robert Turbin'
p975
sg27
g208
sg29
S'L24-28'
p976
sg31
S'28'
p977
sg33
g54
sg34
S'@DET'
p978
sg36
S'16'
p979
sg37
S'14'
p980
sg39
S'11'
p981
sss.