(dp0
S'2015'
p1
(dp2
S'11'
p3
(dp4
S'RecAvg'
p5
S'--'
p6
sS'FUM'
p7
S'--'
p8
sS'GS'
p9
S'0'
p10
sS'Lost'
p11
S'--'
p12
sS'G'
p13
S'1'
p14
sS'RecTD'
p15
S'--'
p16
sS'Year'
p17
S'2015'
p18
sS'WK'
p19
S'11'
p20
sS'RushAvg'
p21
S'--'
p22
sS'Game Date'
p23
S'11/22'
p24
sS'RushTD'
p25
S'--'
p26
sS'Player'
p27
S'Rod Smith'
p28
sS'RushAtt'
p29
S'--'
p30
sS'Result'
p31
S'W24-14'
p32
sS'RecYds'
p33
S'--'
p34
sS'Rec'
p35
S'--'
p36
sS'Opp'
p37
S'@MIA'
p38
sS'RecLng'
p39
S'--'
p40
sS'RushYds'
p41
S'--'
p42
sS'RushLng'
p43
S'--'
p44
ssS'10'
p45
(dp46
g5
S'--'
p47
sg7
S'--'
p48
sg9
g10
sg11
S'--'
p49
sg13
g14
sg15
S'--'
p50
sg17
S'2015'
p51
sg19
S'10'
p52
sg21
S'--'
p53
sg23
S'11/15'
p54
sg25
S'--'
p55
sg27
S'Rod Smith'
p56
sg29
S'--'
p57
sg31
S'L6-10'
p58
sg33
S'--'
p59
sg35
S'--'
p60
sg37
S'@TB'
p61
sg39
S'--'
p62
sg41
S'--'
p63
sg43
S'--'
p64
ssS'13'
p65
(dp66
g5
S'--'
p67
sg7
S'--'
p68
sg9
g10
sg11
S'--'
p69
sg13
g14
sg15
S'--'
p70
sg17
S'2015'
p71
sg19
S'13'
p72
sg21
S'--'
p73
sg23
S'12/07'
p74
sg25
S'--'
p75
sg27
S'Rod Smith'
p76
sg29
S'--'
p77
sg31
S'W19-16'
p78
sg33
S'--'
p79
sg35
S'--'
p80
sg37
S'@WAS'
p81
sg39
S'--'
p82
sg41
S'--'
p83
sg43
S'--'
p84
ssS'12'
p85
(dp86
g5
S'6.0'
p87
sg7
S'--'
p88
sg9
g10
sg11
S'--'
p89
sg13
g14
sg15
g10
sg17
S'2015'
p90
sg19
S'12'
p91
sg21
S'--'
p92
sg23
S'11/26'
p93
sg25
S'--'
p94
sg27
S'Rod Smith'
p95
sg29
S'--'
p96
sg31
S'L14-33'
p97
sg33
S'6'
p98
sg35
g14
sg37
S'CAR'
p99
sg39
g98
sg41
S'--'
p100
sg43
S'--'
p101
ssS'15'
p102
(dp103
g5
S'--'
p104
sg7
S'--'
p105
sg9
g10
sg11
S'--'
p106
sg13
g14
sg15
S'--'
p107
sg17
S'2015'
p108
sg19
S'15'
p109
sg21
S'--'
p110
sg23
S'12/19'
p111
sg25
S'--'
p112
sg27
S'Rod Smith'
p113
sg29
S'--'
p114
sg31
S'L16-19'
p115
sg33
S'--'
p116
sg35
S'--'
p117
sg37
S'NYJ'
p118
sg39
S'--'
p119
sg41
S'--'
p120
sg43
S'--'
p121
ssS'14'
p122
(dp123
g5
S'--'
p124
sg7
S'--'
p125
sg9
g10
sg11
S'--'
p126
sg13
g14
sg15
S'--'
p127
sg17
S'2015'
p128
sg19
S'14'
p129
sg21
S'--'
p130
sg23
S'12/13'
p131
sg25
S'--'
p132
sg27
S'Rod Smith'
p133
sg29
S'--'
p134
sg31
S'L7-28'
p135
sg33
S'--'
p136
sg35
S'--'
p137
sg37
S'@GB'
p138
sg39
S'--'
p139
sg41
S'--'
p140
sg43
S'--'
p141
ssS'17'
p142
(dp143
g5
S'--'
p144
sg7
S'--'
p145
sg9
g10
sg11
S'--'
p146
sg13
g14
sg15
S'--'
p147
sg17
S'2015'
p148
sg19
S'17'
p149
sg21
S'--'
p150
sg23
S'01/03'
p151
sg25
S'--'
p152
sg27
S'Rod Smith'
p153
sg29
S'--'
p154
sg31
S'L23-34'
p155
sg33
S'--'
p156
sg35
S'--'
p157
sg37
S'WAS'
p158
sg39
S'--'
p159
sg41
S'--'
p160
sg43
S'--'
p161
ssS'16'
p162
(dp163
g5
S'--'
p164
sg7
S'--'
p165
sg9
g10
sg11
S'--'
p166
sg13
g14
sg15
S'--'
p167
sg17
S'2015'
p168
sg19
S'16'
p169
sg21
S'--'
p170
sg23
S'12/27'
p171
sg25
S'--'
p172
sg27
S'Rod Smith'
p173
sg29
S'--'
p174
sg31
S'L6-16'
p175
sg33
S'--'
p176
sg35
S'--'
p177
sg37
S'@BUF'
p178
sg39
S'--'
p179
sg41
S'--'
p180
sg43
S'--'
p181
ssS'5'
p182
(dp183
g5
S'--'
p184
sg7
S'--'
p185
sg9
g10
sg11
S'--'
p186
sg13
g14
sg15
S'--'
p187
sg17
S'2015'
p188
sg19
g182
sg21
S'2.5'
p189
sg23
S'10/11'
p190
sg25
g10
sg27
S'Rod Smith'
p191
sg29
S'2'
p192
sg31
S'L24-27'
p193
sg33
S'--'
p194
sg35
S'--'
p195
sg37
S'@CIN'
p196
sg39
S'--'
p197
sg41
g182
sg43
S'3'
p198
ssS'7'
p199
(dp200
g5
S'--'
p201
sg7
S'--'
p202
sg9
g10
sg11
S'--'
p203
sg13
g10
sg15
S'--'
p204
sg17
S'2015'
p205
sg19
g199
sg21
S'--'
p206
sg23
S'10/25'
p207
sg25
S'--'
p208
sg27
S'Rod Smith'
p209
sg29
S'--'
p210
sg31
S'L20-27'
p211
sg33
S'--'
p212
sg35
S'--'
p213
sg37
S'@NYG'
p214
sg39
S'--'
p215
sg41
S'--'
p216
sg43
S'--'
p217
ssg98
(dp218
g5
S''
p219
sg7
g219
sg9
g219
sg11
g219
sg13
g219
sg15
g219
sg17
S'2015'
p220
sg19
g98
sg21
g219
sg23
S'Bye'
p221
sg25
g219
sg27
S'Rod Smith'
p222
sg29
g219
sg31
g219
sg33
g219
sg35
g219
sg37
g219
sg39
g219
sg41
g219
sg43
g219
ssS'9'
p223
(dp224
g5
S'--'
p225
sg7
S'--'
p226
sg9
g10
sg11
S'--'
p227
sg13
g14
sg15
S'--'
p228
sg17
S'2015'
p229
sg19
g223
sg21
S'--'
p230
sg23
S'11/08'
p231
sg25
S'--'
p232
sg27
S'Rod Smith'
p233
sg29
S'--'
p234
sg31
S'L27-33'
p235
sg33
S'--'
p236
sg35
S'--'
p237
sg37
S'PHI'
p238
sg39
S'--'
p239
sg41
S'--'
p240
sg43
S'--'
p241
ssS'8'
p242
(dp243
g5
S'--'
p244
sg7
S'--'
p245
sg9
g10
sg11
S'--'
p246
sg13
g14
sg15
g10
sg17
S'2015'
p247
sg19
g242
sg21
S'--'
p248
sg23
S'11/01'
p249
sg25
S'--'
p250
sg27
S'Rod Smith'
p251
sg29
S'--'
p252
sg31
S'L12-13'
p253
sg33
g10
sg35
g10
sg37
S'SEA'
p254
sg39
S'--'
p255
sg41
S'--'
p256
sg43
S'--'
p257
sss.