(dp0
S'2015'
p1
(dp2
S'11'
p3
(dp4
S'RecAvg'
p5
S'2.0'
p6
sS'FUM'
p7
S'--'
p8
sS'GS'
p9
S'1'
p10
sS'Lost'
p11
S'--'
p12
sS'G'
p13
g10
sS'RecTD'
p14
S'0'
p15
sS'Year'
p16
S'2015'
p17
sS'WK'
p18
S'11'
p19
sS'RushAvg'
p20
S'4.9'
p21
sS'Game Date'
p22
S'11/22'
p23
sS'RushTD'
p24
g15
sS'Player'
p25
S'Ronnie Hillman'
p26
sS'RushAtt'
p27
S'21'
p28
sS'Result'
p29
S'W17-15'
p30
sS'RecYds'
p31
S'2'
p32
sS'Rec'
p33
g10
sS'Opp'
p34
S'@CHI'
p35
sS'RecLng'
p36
g32
sS'RushYds'
p37
S'102'
p38
sS'RushLng'
p39
S'15'
p40
ssS'10'
p41
(dp42
g5
S'4.5'
p43
sg7
S'--'
p44
sg9
g10
sg11
S'--'
p45
sg13
g10
sg14
g15
sg16
S'2015'
p46
sg18
S'10'
p47
sg20
S'3.8'
p48
sg22
S'11/15'
p49
sg24
g10
sg25
S'Ronnie Hillman'
p50
sg27
S'11'
p51
sg29
S'L13-29'
p52
sg31
S'9'
p53
sg33
g32
sg34
S'KC'
p54
sg36
S'5'
p55
sg37
S'42'
p56
sg39
S'19'
p57
ssS'13'
p58
(dp59
g5
S'--'
p60
sg7
S'--'
p61
sg9
g10
sg11
S'--'
p62
sg13
g10
sg14
g15
sg16
S'2015'
p63
sg18
S'13'
p64
sg20
S'2.9'
p65
sg22
S'12/06'
p66
sg24
g15
sg25
S'Ronnie Hillman'
p67
sg27
S'19'
p68
sg29
S'W17-3'
p69
sg31
g15
sg33
g15
sg34
S'@SD'
p70
sg36
S'--'
p71
sg37
S'56'
p72
sg39
S'11'
p73
ssS'12'
p74
(dp75
g5
S'0.0'
p76
sg7
g10
sg9
g10
sg11
g15
sg13
g10
sg14
g15
sg16
S'2015'
p77
sg18
S'12'
p78
sg20
S'4.2'
p79
sg22
S'11/29'
p80
sg24
g10
sg25
S'Ronnie Hillman'
p81
sg27
S'14'
p82
sg29
S'W30-24'
p83
sg31
g15
sg33
g10
sg34
S'NE'
p84
sg36
g15
sg37
S'59'
p85
sg39
S'19T'
p86
ssS'15'
p87
(dp88
g5
S'--'
p89
sg7
g10
sg9
g10
sg11
g10
sg13
g10
sg14
S'--'
p90
sg16
S'2015'
p91
sg18
S'15'
p92
sg20
S'3.4'
p93
sg22
S'12/20'
p94
sg24
g15
sg25
S'Ronnie Hillman'
p95
sg27
S'14'
p96
sg29
S'L27-34'
p97
sg31
S'--'
p98
sg33
S'--'
p99
sg34
S'@PIT'
p100
sg36
S'--'
p101
sg37
S'48'
p102
sg39
S'14'
p103
ssS'14'
p104
(dp105
g5
S'5.9'
p106
sg7
g10
sg9
g10
sg11
g15
sg13
g10
sg14
g15
sg16
S'2015'
p107
sg18
S'14'
p108
sg20
S'1.7'
p109
sg22
S'12/13'
p110
sg24
g15
sg25
S'Ronnie Hillman'
p111
sg27
S'12'
p112
sg29
S'L12-15'
p113
sg31
S'41'
p114
sg33
S'7'
p115
sg34
S'OAK'
p116
sg36
S'12'
p117
sg37
S'20'
p118
sg39
S'11'
p119
ssS'17'
p120
(dp121
g5
S'5.0'
p122
sg7
S'--'
p123
sg9
g10
sg11
S'--'
p124
sg13
g10
sg14
g15
sg16
S'2015'
p125
sg18
S'17'
p126
sg20
S'7.8'
p127
sg22
S'01/03'
p128
sg24
g10
sg25
S'Ronnie Hillman'
p129
sg27
S'15'
p130
sg29
S'W27-20'
p131
sg31
S'10'
p132
sg33
g32
sg34
S'SD'
p133
sg36
S'8'
p134
sg37
S'117'
p135
sg39
S'23T'
p136
ssS'16'
p137
(dp138
g5
S'9.3'
p139
sg7
S'--'
p140
sg9
g10
sg11
S'--'
p141
sg13
g10
sg14
g15
sg16
S'2015'
p142
sg18
S'16'
p143
sg20
S'3.9'
p144
sg22
S'12/28'
p145
sg24
g15
sg25
S'Ronnie Hillman'
p146
sg27
g53
sg29
S'W20-17'
p147
sg31
S'37'
p148
sg33
S'4'
p149
sg34
S'CIN'
p150
sg36
S'14'
p151
sg37
S'35'
p152
sg39
g134
ssg10
(dp153
g5
S'--'
p154
sg7
S'--'
p155
sg9
g15
sg11
S'--'
p156
sg13
g10
sg14
S'--'
p157
sg16
S'2015'
p158
sg18
g10
sg20
S'3.4'
p159
sg22
S'09/13'
p160
sg24
g15
sg25
S'Ronnie Hillman'
p161
sg27
S'12'
p162
sg29
S'W19-13'
p163
sg31
S'--'
p164
sg33
S'--'
p165
sg34
S'BAL'
p166
sg36
S'--'
p167
sg37
S'41'
p168
sg39
S'11'
p169
ssS'3'
p170
(dp171
g5
S'3.0'
p172
sg7
S'--'
p173
sg9
g15
sg11
S'--'
p174
sg13
g10
sg14
g15
sg16
S'2015'
p175
sg18
g170
sg20
S'1.9'
p176
sg22
S'09/27'
p177
sg24
g10
sg25
S'Ronnie Hillman'
p178
sg27
g115
sg29
S'W24-12'
p179
sg31
g170
sg33
g10
sg34
S'@DET'
p180
sg36
g170
sg37
S'13'
p181
sg39
g55
ssg32
(dp182
g5
S'--'
p183
sg7
S'--'
p184
sg9
g15
sg11
S'--'
p185
sg13
g10
sg14
g15
sg16
S'2015'
p186
sg18
g32
sg20
S'3.8'
p187
sg22
S'09/17'
p188
sg24
g15
sg25
S'Ronnie Hillman'
p189
sg27
g53
sg29
S'W31-24'
p190
sg31
g15
sg33
g15
sg34
S'@KC'
p191
sg36
S'--'
p192
sg37
S'34'
p193
sg39
S'16'
p194
ssg55
(dp195
g5
S'5.0'
p196
sg7
S'--'
p197
sg9
g15
sg11
S'--'
p198
sg13
g10
sg14
g15
sg16
S'2015'
p199
sg18
g55
sg20
S'3.0'
p200
sg22
S'10/11'
p201
sg24
g15
sg25
S'Ronnie Hillman'
p202
sg27
g115
sg29
S'W16-10'
p203
sg31
g55
sg33
g10
sg34
S'@OAK'
p204
sg36
g55
sg37
S'21'
p205
sg39
S'6'
p206
ssg149
(dp207
g5
S'5.0'
p208
sg7
S'--'
p209
sg9
g15
sg11
S'--'
p210
sg13
g10
sg14
g15
sg16
S'2015'
p211
sg18
g149
sg20
S'9.4'
p212
sg22
S'10/04'
p213
sg24
g10
sg25
S'Ronnie Hillman'
p214
sg27
S'11'
p215
sg29
S'W23-20'
p216
sg31
g55
sg33
g10
sg34
S'MIN'
p217
sg36
g55
sg37
S'103'
p218
sg39
S'72T'
p219
ssg115
(dp220
g5
S''
p221
sg7
g221
sg9
g221
sg11
g221
sg13
g221
sg14
g221
sg16
S'2015'
p222
sg18
g115
sg20
g221
sg22
S'Bye'
p223
sg24
g221
sg25
S'Ronnie Hillman'
p224
sg27
g221
sg29
g221
sg31
g221
sg33
g221
sg34
g221
sg36
g221
sg37
g221
sg39
g221
ssg206
(dp225
g5
S'1.3'
p226
sg7
S'--'
p227
sg9
g15
sg11
S'--'
p228
sg13
g10
sg14
g15
sg16
S'2015'
p229
sg18
g206
sg20
S'5.6'
p230
sg22
S'10/18'
p231
sg24
g15
sg25
S'Ronnie Hillman'
p232
sg27
S'20'
p233
sg29
S'W26-23'
p234
sg31
g149
sg33
g170
sg34
S'@CLE'
p235
sg36
g170
sg37
S'111'
p236
sg39
S'26'
p237
ssg53
(dp238
g5
S'--'
p239
sg7
S'--'
p240
sg9
g10
sg11
S'--'
p241
sg13
g10
sg14
S'--'
p242
sg16
S'2015'
p243
sg18
g53
sg20
S'0.1'
p244
sg22
S'11/08'
p245
sg24
g15
sg25
S'Ronnie Hillman'
p246
sg27
g115
sg29
S'L24-27'
p247
sg31
S'--'
p248
sg33
S'--'
p249
sg34
S'@IND'
p250
sg36
S'--'
p251
sg37
g10
sg39
g170
ssg134
(dp252
g5
S'-5.0'
p253
sg7
S'--'
p254
sg9
g10
sg11
S'--'
p255
sg13
g10
sg14
g15
sg16
S'2015'
p256
sg18
g134
sg20
S'3.2'
p257
sg22
S'11/01'
p258
sg24
g32
sg25
S'Ronnie Hillman'
p259
sg27
S'19'
p260
sg29
S'W29-10'
p261
sg31
S'-5'
p262
sg33
g10
sg34
S'GB'
p263
sg36
S'-5'
p264
sg37
S'60'
p265
sg39
S'16'
p266
sssS'2014'
p267
(dp268
g3
(dp269
g5
S'--'
p270
sg7
S'--'
p271
sg9
g15
sg11
S'--'
p272
sg13
g15
sg14
S'--'
p273
sg16
S'2014'
p274
sg18
S'11'
p275
sg20
S'--'
p276
sg22
S'11/16'
p277
sg24
S'--'
p278
sg25
S'Ronnie Hillman'
p279
sg27
S'--'
p280
sg29
S'L7-22'
p281
sg31
S'--'
p282
sg33
S'--'
p283
sg34
S'@STL'
p284
sg36
S'--'
p285
sg37
S'--'
p286
sg39
S'--'
p287
ssg41
(dp288
g5
S'4.5'
p289
sg7
S'--'
p290
sg9
g10
sg11
S'--'
p291
sg13
g10
sg14
g15
sg16
S'2014'
p292
sg18
S'10'
p293
sg20
S'2.2'
p294
sg22
S'11/09'
p295
sg24
g15
sg25
S'Ronnie Hillman'
p296
sg27
g206
sg29
S'W41-17'
p297
sg31
g53
sg33
g32
sg34
S'@OAK'
p298
sg36
g134
sg37
S'13'
p299
sg39
g206
ssg58
(dp300
g5
S'--'
p301
sg7
S'--'
p302
sg9
g15
sg11
S'--'
p303
sg13
g15
sg14
S'--'
p304
sg16
S'2014'
p305
sg18
S'13'
p306
sg20
S'--'
p307
sg22
S'11/30'
p308
sg24
S'--'
p309
sg25
S'Ronnie Hillman'
p310
sg27
S'--'
p311
sg29
S'W29-16'
p312
sg31
S'--'
p313
sg33
S'--'
p314
sg34
S'@KC'
p315
sg36
S'--'
p316
sg37
S'--'
p317
sg39
S'--'
p318
ssg74
(dp319
g5
S'--'
p320
sg7
S'--'
p321
sg9
g15
sg11
S'--'
p322
sg13
g15
sg14
S'--'
p323
sg16
S'2014'
p324
sg18
S'12'
p325
sg20
S'--'
p326
sg22
S'11/23'
p327
sg24
S'--'
p328
sg25
S'Ronnie Hillman'
p329
sg27
S'--'
p330
sg29
S'W39-36'
p331
sg31
S'--'
p332
sg33
S'--'
p333
sg34
S'MIA'
p334
sg36
S'--'
p335
sg37
S'--'
p336
sg39
S'--'
p337
ssg87
(dp338
g5
S'--'
p339
sg7
S'--'
p340
sg9
g15
sg11
S'--'
p341
sg13
g15
sg14
S'--'
p342
sg16
S'2014'
p343
sg18
S'15'
p344
sg20
S'--'
p345
sg22
S'12/14'
p346
sg24
S'--'
p347
sg25
S'Ronnie Hillman'
p348
sg27
S'--'
p349
sg29
S'W22-10'
p350
sg31
S'--'
p351
sg33
S'--'
p352
sg34
S'@SD'
p353
sg36
S'--'
p354
sg37
S'--'
p355
sg39
S'--'
p356
ssg104
(dp357
g5
S'--'
p358
sg7
S'--'
p359
sg9
g15
sg11
S'--'
p360
sg13
g15
sg14
S'--'
p361
sg16
S'2014'
p362
sg18
S'14'
p363
sg20
S'--'
p364
sg22
S'12/07'
p365
sg24
S'--'
p366
sg25
S'Ronnie Hillman'
p367
sg27
S'--'
p368
sg29
S'W24-17'
p369
sg31
S'--'
p370
sg33
S'--'
p371
sg34
S'BUF'
p372
sg36
S'--'
p373
sg37
S'--'
p374
sg39
S'--'
p375
ssg120
(dp376
g5
S'2.0'
p377
sg7
S'--'
p378
sg9
g15
sg11
S'--'
p379
sg13
g10
sg14
g15
sg16
S'2014'
p380
sg18
S'17'
p381
sg20
S'3.7'
p382
sg22
S'12/28'
p383
sg24
g15
sg25
S'Ronnie Hillman'
p384
sg27
S'15'
p385
sg29
S'W47-14'
p386
sg31
g32
sg33
g10
sg34
S'OAK'
p387
sg36
g32
sg37
S'56'
p388
sg39
S'13'
p389
ssg137
(dp390
g5
S'--'
p391
sg7
S'--'
p392
sg9
g15
sg11
S'--'
p393
sg13
g15
sg14
S'--'
p394
sg16
S'2014'
p395
sg18
S'16'
p396
sg20
S'--'
p397
sg22
S'12/22'
p398
sg24
S'--'
p399
sg25
S'Ronnie Hillman'
p400
sg27
S'--'
p401
sg29
S'L28-37'
p402
sg31
S'--'
p403
sg33
S'--'
p404
sg34
S'@CIN'
p405
sg36
S'--'
p406
sg37
S'--'
p407
sg39
S'--'
p408
ssg10
(dp409
g5
S'--'
p410
sg7
S'--'
p411
sg9
g15
sg11
S'--'
p412
sg13
g15
sg14
S'--'
p413
sg16
S'2014'
p414
sg18
g10
sg20
S'--'
p415
sg22
S'09/07'
p416
sg24
S'--'
p417
sg25
S'Ronnie Hillman'
p418
sg27
S'--'
p419
sg29
S'W31-24'
p420
sg31
S'--'
p421
sg33
S'--'
p422
sg34
S'IND'
p423
sg36
S'--'
p424
sg37
S'--'
p425
sg39
S'--'
p426
ssg170
(dp427
g5
S'7.0'
p428
sg7
S'--'
p429
sg9
g15
sg11
S'--'
p430
sg13
g10
sg14
g15
sg16
S'2014'
p431
sg18
g170
sg20
S'1.0'
p432
sg22
S'09/21'
p433
sg24
g15
sg25
S'Ronnie Hillman'
p434
sg27
g32
sg29
S'L20-26'
p435
sg31
g115
sg33
g10
sg34
S'@SEA'
p436
sg36
g115
sg37
g32
sg39
g32
ssg32
(dp437
g5
S'--'
p438
sg7
S'--'
p439
sg9
g15
sg11
S'--'
p440
sg13
g15
sg14
S'--'
p441
sg16
S'2014'
p442
sg18
g32
sg20
S'--'
p443
sg22
S'09/14'
p444
sg24
S'--'
p445
sg25
S'Ronnie Hillman'
p446
sg27
S'--'
p447
sg29
S'W24-17'
p448
sg31
S'--'
p449
sg33
S'--'
p450
sg34
S'KC'
p451
sg36
S'--'
p452
sg37
S'--'
p453
sg39
S'--'
p454
ssg55
(dp455
g5
S'--'
p456
sg7
S'--'
p457
sg9
g15
sg11
S'--'
p458
sg13
g10
sg14
g15
sg16
S'2014'
p459
sg18
g55
sg20
S'4.3'
p460
sg22
S'10/05'
p461
sg24
g15
sg25
S'Ronnie Hillman'
p462
sg27
S'15'
p463
sg29
S'W41-20'
p464
sg31
g15
sg33
g15
sg34
S'ARI'
p465
sg36
S'--'
p466
sg37
S'64'
p467
sg39
S'16'
p468
ssg149
(dp469
g5
g221
sg7
g221
sg9
g221
sg11
g221
sg13
g221
sg14
g221
sg16
S'2014'
p470
sg18
g149
sg20
g221
sg22
S'Bye'
p471
sg24
g221
sg25
S'Ronnie Hillman'
p472
sg27
g221
sg29
g221
sg31
g221
sg33
g221
sg34
g221
sg36
g221
sg37
g221
sg39
g221
ssg115
(dp473
g5
S'7.3'
p474
sg7
S'--'
p475
sg9
g10
sg11
S'--'
p476
sg13
g10
sg14
g15
sg16
S'2014'
p477
sg18
g115
sg20
S'5.3'
p478
sg22
S'10/19'
p479
sg24
g32
sg25
S'Ronnie Hillman'
p480
sg27
S'14'
p481
sg29
S'W42-17'
p482
sg31
S'29'
p483
sg33
g149
sg34
S'SF'
p484
sg36
S'11'
p485
sg37
S'74'
p486
sg39
S'37T'
p487
ssg206
(dp488
g5
S'5.3'
p489
sg7
g10
sg9
g10
sg11
g15
sg13
g10
sg14
g15
sg16
S'2014'
p490
sg18
g206
sg20
S'4.2'
p491
sg22
S'10/12'
p492
sg24
g15
sg25
S'Ronnie Hillman'
p493
sg27
S'24'
p494
sg29
S'W31-17'
p495
sg31
S'16'
p496
sg33
g170
sg34
S'@NYJ'
p497
sg36
g53
sg37
S'100'
p498
sg39
S'26'
p499
ssg53
(dp500
g5
S'6.7'
p501
sg7
S'--'
p502
sg9
g10
sg11
S'--'
p503
sg13
g10
sg14
g10
sg16
S'2014'
p504
sg18
g53
sg20
S'1.6'
p505
sg22
S'11/02'
p506
sg24
g10
sg25
S'Ronnie Hillman'
p507
sg27
S'10'
p508
sg29
S'L21-43'
p509
sg31
S'47'
p510
sg33
g115
sg34
S'@NE'
p511
sg36
S'15T'
p512
sg37
S'16'
p513
sg39
g149
ssg134
(dp514
g5
S'9.7'
p515
sg7
S'--'
p516
sg9
g15
sg11
S'--'
p517
sg13
g10
sg14
g15
sg16
S'2014'
p518
sg18
g134
sg20
S'5.5'
p519
sg22
S'10/23'
p520
sg24
g15
sg25
S'Ronnie Hillman'
p521
sg27
S'20'
p522
sg29
S'W35-21'
p523
sg31
S'29'
p524
sg33
g170
sg34
S'SD'
p525
sg36
S'16'
p526
sg37
S'109'
p527
sg39
S'37'
p528
sssS'2013'
p529
(dp530
g3
(dp531
g5
S'--'
p532
sg7
S'--'
p533
sg9
g15
sg11
S'--'
p534
sg13
g15
sg14
S'--'
p535
sg16
S'2013'
p536
sg18
S'11'
p537
sg20
S'--'
p538
sg22
S'11/17'
p539
sg24
S'--'
p540
sg25
S'Ronnie Hillman'
p541
sg27
S'--'
p542
sg29
S'W27-17'
p543
sg31
S'--'
p544
sg33
S'--'
p545
sg34
S'KC'
p546
sg36
S'--'
p547
sg37
S'--'
p548
sg39
S'--'
p549
ssg41
(dp550
g5
S'--'
p551
sg7
S'--'
p552
sg9
g15
sg11
S'--'
p553
sg13
g15
sg14
S'--'
p554
sg16
S'2013'
p555
sg18
S'10'
p556
sg20
S'--'
p557
sg22
S'11/10'
p558
sg24
S'--'
p559
sg25
S'Ronnie Hillman'
p560
sg27
S'--'
p561
sg29
S'W28-20'
p562
sg31
S'--'
p563
sg33
S'--'
p564
sg34
S'@SD'
p565
sg36
S'--'
p566
sg37
S'--'
p567
sg39
S'--'
p568
ssg58
(dp569
g5
S'--'
p570
sg7
S'--'
p571
sg9
g15
sg11
S'--'
p572
sg13
g10
sg14
S'--'
p573
sg16
S'2013'
p574
sg18
S'13'
p575
sg20
S'--'
p576
sg22
S'12/01'
p577
sg24
S'--'
p578
sg25
S'Ronnie Hillman'
p579
sg27
S'--'
p580
sg29
S'W35-28'
p581
sg31
S'--'
p582
sg33
S'--'
p583
sg34
S'@KC'
p584
sg36
S'--'
p585
sg37
S'--'
p586
sg39
S'--'
p587
ssg74
(dp588
g5
S'--'
p589
sg7
S'--'
p590
sg9
g15
sg11
S'--'
p591
sg13
g15
sg14
S'--'
p592
sg16
S'2013'
p593
sg18
S'12'
p594
sg20
S'--'
p595
sg22
S'11/24'
p596
sg24
S'--'
p597
sg25
S'Ronnie Hillman'
p598
sg27
S'--'
p599
sg29
S'L31-34'
p600
sg31
S'--'
p601
sg33
S'--'
p602
sg34
S'@NE'
p603
sg36
S'--'
p604
sg37
S'--'
p605
sg39
S'--'
p606
ssg87
(dp607
g5
S'--'
p608
sg7
S'--'
p609
sg9
g15
sg11
S'--'
p610
sg13
g15
sg14
S'--'
p611
sg16
S'2013'
p612
sg18
S'15'
p613
sg20
S'--'
p614
sg22
S'12/12'
p615
sg24
S'--'
p616
sg25
S'Ronnie Hillman'
p617
sg27
S'--'
p618
sg29
S'L20-27'
p619
sg31
S'--'
p620
sg33
S'--'
p621
sg34
S'SD'
p622
sg36
S'--'
p623
sg37
S'--'
p624
sg39
S'--'
p625
ssg104
(dp626
g5
S'--'
p627
sg7
S'--'
p628
sg9
g15
sg11
S'--'
p629
sg13
g15
sg14
S'--'
p630
sg16
S'2013'
p631
sg18
S'14'
p632
sg20
S'--'
p633
sg22
S'12/08'
p634
sg24
S'--'
p635
sg25
S'Ronnie Hillman'
p636
sg27
S'--'
p637
sg29
S'W51-28'
p638
sg31
S'--'
p639
sg33
S'--'
p640
sg34
S'TEN'
p641
sg36
S'--'
p642
sg37
S'--'
p643
sg39
S'--'
p644
ssg120
(dp645
g5
S'--'
p646
sg7
S'--'
p647
sg9
g15
sg11
S'--'
p648
sg13
g10
sg14
g15
sg16
S'2013'
p649
sg18
S'17'
p650
sg20
S'2.5'
p651
sg22
S'12/29'
p652
sg24
g15
sg25
S'Ronnie Hillman'
p653
sg27
S'12'
p654
sg29
S'W34-14'
p655
sg31
g15
sg33
g15
sg34
S'@OAK'
p656
sg36
S'--'
p657
sg37
S'30'
p658
sg39
g134
ssg137
(dp659
g5
S'--'
p660
sg7
S'--'
p661
sg9
g15
sg11
S'--'
p662
sg13
g10
sg14
S'--'
p663
sg16
S'2013'
p664
sg18
S'16'
p665
sg20
S'2.0'
p666
sg22
S'12/22'
p667
sg24
g15
sg25
S'Ronnie Hillman'
p668
sg27
g170
sg29
S'W37-13'
p669
sg31
S'--'
p670
sg33
S'--'
p671
sg34
S'@HOU'
p672
sg36
S'--'
p673
sg37
g206
sg39
g170
ssg10
(dp674
g5
S'13.5'
p675
sg7
S'--'
p676
sg9
g15
sg11
S'--'
p677
sg13
g10
sg14
g15
sg16
S'2013'
p678
sg18
g10
sg20
S'3.8'
p679
sg22
S'09/05'
p680
sg24
g15
sg25
S'Ronnie Hillman'
p681
sg27
g149
sg29
S'W49-27'
p682
sg31
S'27'
p683
sg33
g32
sg34
S'BAL'
p684
sg36
S'17'
p685
sg37
S'15'
p686
sg39
g115
ssg170
(dp687
g5
S'12.0'
p688
sg7
S'--'
p689
sg9
g15
sg11
S'--'
p690
sg13
g10
sg14
g15
sg16
S'2013'
p691
sg18
g170
sg20
S'7.3'
p692
sg22
S'09/23'
p693
sg24
g10
sg25
S'Ronnie Hillman'
p694
sg27
g53
sg29
S'W37-21'
p695
sg31
S'12'
p696
sg33
g10
sg34
S'OAK'
p697
sg36
S'12'
p698
sg37
S'66'
p699
sg39
S'19'
p700
ssg32
(dp701
g5
S'--'
p702
sg7
S'--'
p703
sg9
g15
sg11
S'--'
p704
sg13
g10
sg14
S'--'
p705
sg16
S'2013'
p706
sg18
g32
sg20
S'3.0'
p707
sg22
S'09/15'
p708
sg24
g15
sg25
S'Ronnie Hillman'
p709
sg27
g10
sg29
S'W41-23'
p710
sg31
S'--'
p711
sg33
S'--'
p712
sg34
S'@NYG'
p713
sg36
S'--'
p714
sg37
g170
sg39
g170
ssg55
(dp715
g5
S'10.5'
p716
sg7
S'--'
p717
sg9
g15
sg11
S'--'
p718
sg13
g10
sg14
g15
sg16
S'2013'
p719
sg18
g55
sg20
S'2.4'
p720
sg22
S'10/06'
p721
sg24
g15
sg25
S'Ronnie Hillman'
p722
sg27
g115
sg29
S'W51-48'
p723
sg31
S'42'
p724
sg33
g149
sg34
S'@DAL'
p725
sg36
S'19'
p726
sg37
S'17'
p727
sg39
S'17'
p728
ssg149
(dp729
g5
S'10.5'
p730
sg7
S'--'
p731
sg9
g15
sg11
S'--'
p732
sg13
g10
sg14
g15
sg16
S'2013'
p733
sg18
g149
sg20
S'3.3'
p734
sg22
S'09/29'
p735
sg24
g15
sg25
S'Ronnie Hillman'
p736
sg27
S'11'
p737
sg29
S'W52-20'
p738
sg31
S'21'
p739
sg33
g32
sg34
S'PHI'
p740
sg36
S'14'
p741
sg37
S'36'
p742
sg39
S'10'
p743
ssg115
(dp744
g5
S'1.0'
p745
sg7
g10
sg9
g15
sg11
g10
sg13
g10
sg14
g15
sg16
S'2013'
p746
sg18
g115
sg20
S'6.3'
p747
sg22
S'10/20'
p748
sg24
g15
sg25
S'Ronnie Hillman'
p749
sg27
g149
sg29
S'L33-39'
p750
sg31
g10
sg33
g10
sg34
S'@IND'
p751
sg36
g10
sg37
S'25'
p752
sg39
S'14'
p753
ssg206
(dp754
g5
S'8.0'
p755
sg7
g10
sg9
g15
sg11
g15
sg13
g10
sg14
g15
sg16
S'2013'
p756
sg18
g206
sg20
S'5.0'
p757
sg22
S'10/13'
p758
sg24
g15
sg25
S'Ronnie Hillman'
p759
sg27
g149
sg29
S'W35-19'
p760
sg31
S'16'
p761
sg33
g32
sg34
S'JAC'
p762
sg36
S'11'
p763
sg37
S'20'
p764
sg39
S'11'
p765
ssg53
(dp766
g5
g221
sg7
g221
sg9
g221
sg11
g221
sg13
g221
sg14
g221
sg16
S'2013'
p767
sg18
g53
sg20
g221
sg22
S'Bye'
p768
sg24
g221
sg25
S'Ronnie Hillman'
p769
sg27
g221
sg29
g221
sg31
g221
sg33
g221
sg34
g221
sg36
g221
sg37
g221
sg39
g221
ssg134
(dp770
g5
S'--'
p771
sg7
S'--'
p772
sg9
g15
sg11
S'--'
p773
sg13
g15
sg14
S'--'
p774
sg16
S'2013'
p775
sg18
g134
sg20
S'--'
p776
sg22
S'10/27'
p777
sg24
S'--'
p778
sg25
S'Ronnie Hillman'
p779
sg27
S'--'
p780
sg29
S'W45-21'
p781
sg31
S'--'
p782
sg33
S'--'
p783
sg34
S'WAS'
p784
sg36
S'--'
p785
sg37
S'--'
p786
sg39
S'--'
p787
sssS'2012'
p788
(dp789
g3
(dp790
g5
S'8.0'
p791
sg7
S'--'
p792
sg9
g15
sg11
S'--'
p793
sg13
g10
sg14
g15
sg16
S'2012'
p794
sg18
S'11'
p795
sg20
S'3.6'
p796
sg22
S'11/18'
p797
sg24
g15
sg25
S'Ronnie Hillman'
p798
sg27
S'12'
p799
sg29
S'W30-23'
p800
sg31
S'16'
p801
sg33
g32
sg34
S'SD'
p802
sg36
S'12'
p803
sg37
S'43'
p804
sg39
S'21'
p805
ssg41
(dp806
g5
S'4.0'
p807
sg7
S'--'
p808
sg9
g15
sg11
S'--'
p809
sg13
g10
sg14
g15
sg16
S'2012'
p810
sg18
S'10'
p811
sg20
S'1.0'
p812
sg22
S'11/11'
p813
sg24
g10
sg25
S'Ronnie Hillman'
p814
sg27
g55
sg29
S'W36-14'
p815
sg31
g134
sg33
g32
sg34
S'@CAR'
p816
sg36
g115
sg37
g55
sg39
S'5T'
p817
ssg58
(dp818
g5
S'--'
p819
sg7
S'--'
p820
sg9
g15
sg11
S'--'
p821
sg13
g10
sg14
S'--'
p822
sg16
S'2012'
p823
sg18
S'13'
p824
sg20
S'5.8'
p825
sg22
S'12/02'
p826
sg24
g15
sg25
S'Ronnie Hillman'
p827
sg27
g55
sg29
S'W31-23'
p828
sg31
S'--'
p829
sg33
S'--'
p830
sg34
S'TB'
p831
sg36
S'--'
p832
sg37
S'29'
p833
sg39
g53
ssg74
(dp834
g5
S'--'
p835
sg7
S'--'
p836
sg9
g15
sg11
S'--'
p837
sg13
g10
sg14
S'--'
p838
sg16
S'2012'
p839
sg18
S'12'
p840
sg20
S'3.0'
p841
sg22
S'11/25'
p842
sg24
g15
sg25
S'Ronnie Hillman'
p843
sg27
g170
sg29
S'W17-9'
p844
sg31
S'--'
p845
sg33
S'--'
p846
sg34
S'@KC'
p847
sg36
S'--'
p848
sg37
g53
sg39
S'10'
p849
ssg87
(dp850
g5
S'--'
p851
sg7
S'--'
p852
sg9
g15
sg11
S'--'
p853
sg13
g10
sg14
S'--'
p854
sg16
S'2012'
p855
sg18
S'15'
p856
sg20
S'2.1'
p857
sg22
S'12/16'
p858
sg24
g15
sg25
S'Ronnie Hillman'
p859
sg27
S'15'
p860
sg29
S'W34-17'
p861
sg31
S'--'
p862
sg33
S'--'
p863
sg34
S'@BAL'
p864
sg36
S'--'
p865
sg37
S'32'
p866
sg39
g134
ssg104
(dp867
g5
S'--'
p868
sg7
S'--'
p869
sg9
g15
sg11
S'--'
p870
sg13
g10
sg14
g15
sg16
S'2012'
p871
sg18
S'14'
p872
sg20
S'6.0'
p873
sg22
S'12/06'
p874
sg24
g15
sg25
S'Ronnie Hillman'
p875
sg27
g149
sg29
S'W26-13'
p876
sg31
g15
sg33
g15
sg34
S'@OAK'
p877
sg36
S'--'
p878
sg37
S'24'
p879
sg39
S'12'
p880
ssg120
(dp881
g5
S'--'
p882
sg7
g10
sg9
g15
sg11
g10
sg13
g10
sg14
S'--'
p883
sg16
S'2012'
p884
sg18
S'17'
p885
sg20
S'4.3'
p886
sg22
S'12/30'
p887
sg24
g15
sg25
S'Ronnie Hillman'
p888
sg27
g170
sg29
S'W38-3'
p889
sg31
S'--'
p890
sg33
S'--'
p891
sg34
S'KC'
p892
sg36
S'--'
p893
sg37
S'13'
p894
sg39
g55
ssg137
(dp895
g5
S'--'
p896
sg7
S'--'
p897
sg9
g15
sg11
S'--'
p898
sg13
g10
sg14
g15
sg16
S'2012'
p899
sg18
S'16'
p900
sg20
S'5.8'
p901
sg22
S'12/23'
p902
sg24
g15
sg25
S'Ronnie Hillman'
p903
sg27
g206
sg29
S'W34-12'
p904
sg31
g15
sg33
g15
sg34
S'CLE'
p905
sg36
S'--'
p906
sg37
S'35'
p907
sg39
S'12'
p908
ssg10
(dp909
g5
S'--'
p910
sg7
S'--'
p911
sg9
g15
sg11
S'--'
p912
sg13
g15
sg14
S'--'
p913
sg16
S'2012'
p914
sg18
g10
sg20
S'--'
p915
sg22
S'09/09'
p916
sg24
S'--'
p917
sg25
S'Ronnie Hillman'
p918
sg27
S'--'
p919
sg29
S'W31-19'
p920
sg31
S'--'
p921
sg33
S'--'
p922
sg34
S'PIT'
p923
sg36
S'--'
p924
sg37
S'--'
p925
sg39
S'--'
p926
ssg170
(dp927
g5
S'1.0'
p928
sg7
S'--'
p929
sg9
g15
sg11
S'--'
p930
sg13
g10
sg14
g15
sg16
S'2012'
p931
sg18
g170
sg20
S'3.5'
p932
sg22
S'09/23'
p933
sg24
g15
sg25
S'Ronnie Hillman'
p934
sg27
g32
sg29
S'L25-31'
p935
sg31
g10
sg33
g10
sg34
S'HOU'
p936
sg36
g10
sg37
g115
sg39
g149
ssg32
(dp937
g5
S'--'
p938
sg7
S'--'
p939
sg9
g15
sg11
S'--'
p940
sg13
g15
sg14
S'--'
p941
sg16
S'2012'
p942
sg18
g32
sg20
S'--'
p943
sg22
S'09/17'
p944
sg24
S'--'
p945
sg25
S'Ronnie Hillman'
p946
sg27
S'--'
p947
sg29
S'L21-27'
p948
sg31
S'--'
p949
sg33
S'--'
p950
sg34
S'@ATL'
p951
sg36
S'--'
p952
sg37
S'--'
p953
sg39
S'--'
p954
ssg55
(dp955
g5
S'4.0'
p956
sg7
S'--'
p957
sg9
g15
sg11
S'--'
p958
sg13
g10
sg14
g15
sg16
S'2012'
p959
sg18
g55
sg20
S'3.0'
p960
sg22
S'10/07'
p961
sg24
g15
sg25
S'Ronnie Hillman'
p962
sg27
g170
sg29
S'L21-31'
p963
sg31
g149
sg33
g10
sg34
S'@NE'
p964
sg36
g149
sg37
g53
sg39
g115
ssg149
(dp965
g5
S'16.0'
p966
sg7
S'--'
p967
sg9
g15
sg11
S'--'
p968
sg13
g10
sg14
g15
sg16
S'2012'
p969
sg18
g149
sg20
S'3.1'
p970
sg22
S'09/30'
p971
sg24
g15
sg25
S'Ronnie Hillman'
p972
sg27
S'10'
p973
sg29
S'W37-6'
p974
sg31
S'32'
p975
sg33
g32
sg34
S'OAK'
p976
sg36
S'29'
p977
sg37
S'31'
p978
sg39
S'12'
p979
ssg115
(dp980
g5
g221
sg7
g221
sg9
g221
sg11
g221
sg13
g221
sg14
g221
sg16
S'2012'
p981
sg18
g115
sg20
g221
sg22
S'Bye'
p982
sg24
g221
sg25
S'Ronnie Hillman'
p983
sg27
g221
sg29
g221
sg31
g221
sg33
g221
sg34
g221
sg36
g221
sg37
g221
sg39
g221
ssg206
(dp984
g5
S'--'
p985
sg7
S'--'
p986
sg9
g15
sg11
S'--'
p987
sg13
g10
sg14
S'--'
p988
sg16
S'2012'
p989
sg18
g206
sg20
S'1.5'
p990
sg22
S'10/15'
p991
sg24
g15
sg25
S'Ronnie Hillman'
p992
sg27
g32
sg29
S'W35-24'
p993
sg31
S'--'
p994
sg33
S'--'
p995
sg34
S'@SD'
p996
sg36
S'--'
p997
sg37
g170
sg39
g170
ssg53
(dp998
g5
S'5.0'
p999
sg7
S'--'
p1000
sg9
g15
sg11
S'--'
p1001
sg13
g10
sg14
g15
sg16
S'2012'
p1002
sg18
g53
sg20
S'4.0'
p1003
sg22
S'11/04'
p1004
sg24
g15
sg25
S'Ronnie Hillman'
p1005
sg27
g10
sg29
S'W31-23'
p1006
sg31
g55
sg33
g10
sg34
S'@CIN'
p1007
sg36
g55
sg37
g149
sg39
g149
ssg134
(dp1008
g5
S'-4.0'
p1009
sg7
g10
sg9
g15
sg11
g15
sg13
g10
sg14
g15
sg16
S'2012'
p1010
sg18
g134
sg20
S'6.1'
p1011
sg22
S'10/28'
p1012
sg24
g15
sg25
S'Ronnie Hillman'
p1013
sg27
S'14'
p1014
sg29
S'W34-14'
p1015
sg31
S'-4'
p1016
sg33
g10
sg34
S'NO'
p1017
sg36
S'-4'
p1018
sg37
S'86'
p1019
sg39
S'31'
p1020
sss.