(dp0
S'2015'
p1
(dp2
S'11'
p3
(dp4
S'RecAvg'
p5
S'--'
p6
sS'FUM'
p7
S'--'
p8
sS'GS'
p9
S'0'
p10
sS'Lost'
p11
S'--'
p12
sS'G'
p13
g10
sS'RecTD'
p14
S'--'
p15
sS'Year'
p16
S'2015'
p17
sS'WK'
p18
S'11'
p19
sS'RushAvg'
p20
S'--'
p21
sS'Game Date'
p22
S'11/22'
p23
sS'RushTD'
p24
S'--'
p25
sS'Player'
p26
S'Roy Helu'
p27
sS'RushAtt'
p28
S'--'
p29
sS'Result'
p30
S'L13-18'
p31
sS'RecYds'
p32
S'--'
p33
sS'Rec'
p34
S'--'
p35
sS'Opp'
p36
S'@DET'
p37
sS'RecLng'
p38
S'--'
p39
sS'RushYds'
p40
S'--'
p41
sS'RushLng'
p42
S'--'
p43
ssS'10'
p44
(dp45
g5
S'--'
p46
sg7
S'--'
p47
sg9
g10
sg11
S'--'
p48
sg13
g10
sg14
S'--'
p49
sg16
S'2015'
p50
sg18
S'10'
p51
sg20
S'--'
p52
sg22
S'11/15'
p53
sg24
S'--'
p54
sg26
S'Roy Helu'
p55
sg28
S'--'
p56
sg30
S'L14-30'
p57
sg32
S'--'
p58
sg34
S'--'
p59
sg36
S'MIN'
p60
sg38
S'--'
p61
sg40
S'--'
p62
sg42
S'--'
p63
ssS'13'
p64
(dp65
g5
S'15.0'
p66
sg7
S'--'
p67
sg9
g10
sg11
S'--'
p68
sg13
S'1'
p69
sg14
g10
sg16
S'2015'
p70
sg18
S'13'
p71
sg20
S'--'
p72
sg22
S'12/06'
p73
sg24
S'--'
p74
sg26
S'Roy Helu'
p75
sg28
S'--'
p76
sg30
S'L20-34'
p77
sg32
S'15'
p78
sg34
g69
sg36
S'KC'
p79
sg38
S'15'
p80
sg40
S'--'
p81
sg42
S'--'
p82
ssS'12'
p83
(dp84
g5
S'--'
p85
sg7
S'--'
p86
sg9
g10
sg11
S'--'
p87
sg13
g69
sg14
S'--'
p88
sg16
S'2015'
p89
sg18
S'12'
p90
sg20
S'1.5'
p91
sg22
S'11/29'
p92
sg24
g10
sg26
S'Roy Helu'
p93
sg28
S'2'
p94
sg30
S'W24-21'
p95
sg32
S'--'
p96
sg34
S'--'
p97
sg36
S'@TEN'
p98
sg38
S'--'
p99
sg40
S'3'
p100
sg42
g94
ssS'15'
p101
(dp102
g5
S'--'
p103
sg7
S'--'
p104
sg9
g10
sg11
S'--'
p105
sg13
g10
sg14
S'--'
p106
sg16
S'2015'
p107
sg18
S'15'
p108
sg20
S'--'
p109
sg22
S'12/20'
p110
sg24
S'--'
p111
sg26
S'Roy Helu'
p112
sg28
S'--'
p113
sg30
S'L20-30'
p114
sg32
S'--'
p115
sg34
S'--'
p116
sg36
S'GB'
p117
sg38
S'--'
p118
sg40
S'--'
p119
sg42
S'--'
p120
ssS'14'
p121
(dp122
g5
S'--'
p123
sg7
S'--'
p124
sg9
g10
sg11
S'--'
p125
sg13
g10
sg14
S'--'
p126
sg16
S'2015'
p127
sg18
S'14'
p128
sg20
S'--'
p129
sg22
S'12/13'
p130
sg24
S'--'
p131
sg26
S'Roy Helu'
p132
sg28
S'--'
p133
sg30
S'W15-12'
p134
sg32
S'--'
p135
sg34
S'--'
p136
sg36
S'@DEN'
p137
sg38
S'--'
p138
sg40
S'--'
p139
sg42
S'--'
p140
ssS'17'
p141
(dp142
g5
S'11.5'
p143
sg7
S'--'
p144
sg9
g10
sg11
S'--'
p145
sg13
g69
sg14
g10
sg16
S'2015'
p146
sg18
S'17'
p147
sg20
S'1.7'
p148
sg22
S'01/03'
p149
sg24
g10
sg26
S'Roy Helu'
p150
sg28
g100
sg30
S'L17-23'
p151
sg32
S'23'
p152
sg34
g94
sg36
S'@KC'
p153
sg38
S'14'
p154
sg40
S'5'
p155
sg42
g100
ssS'16'
p156
(dp157
g5
S'--'
p158
sg7
S'--'
p159
sg9
g10
sg11
S'--'
p160
sg13
g10
sg14
S'--'
p161
sg16
S'2015'
p162
sg18
S'16'
p163
sg20
S'--'
p164
sg22
S'12/24'
p165
sg24
S'--'
p166
sg26
S'Roy Helu'
p167
sg28
S'--'
p168
sg30
S'W23-20'
p169
sg32
S'--'
p170
sg34
S'--'
p171
sg36
S'SD'
p172
sg38
S'--'
p173
sg40
S'--'
p174
sg42
S'--'
p175
ssg69
(dp176
g5
S'--'
p177
sg7
S'--'
p178
sg9
g10
sg11
S'--'
p179
sg13
g10
sg14
S'--'
p180
sg16
S'2015'
p181
sg18
g69
sg20
S'--'
p182
sg22
S'09/13'
p183
sg24
S'--'
p184
sg26
S'Roy Helu'
p185
sg28
S'--'
p186
sg30
S'L13-33'
p187
sg32
S'--'
p188
sg34
S'--'
p189
sg36
S'CIN'
p190
sg38
S'--'
p191
sg40
S'--'
p192
sg42
S'--'
p193
ssg100
(dp194
g5
S'12.0'
p195
sg7
S'--'
p196
sg9
g10
sg11
S'--'
p197
sg13
g69
sg14
g10
sg16
S'2015'
p198
sg18
g100
sg20
S'--'
p199
sg22
S'09/27'
p200
sg24
S'--'
p201
sg26
S'Roy Helu'
p202
sg28
S'--'
p203
sg30
S'W27-20'
p204
sg32
S'12'
p205
sg34
g69
sg36
S'@CLE'
p206
sg38
S'12'
p207
sg40
S'--'
p208
sg42
S'--'
p209
ssg94
(dp210
g5
S'--'
p211
sg7
S'--'
p212
sg9
g10
sg11
S'--'
p213
sg13
g69
sg14
S'--'
p214
sg16
S'2015'
p215
sg18
g94
sg20
S'--'
p216
sg22
S'09/20'
p217
sg24
S'--'
p218
sg26
S'Roy Helu'
p219
sg28
S'--'
p220
sg30
S'W37-33'
p221
sg32
S'--'
p222
sg34
S'--'
p223
sg36
S'BAL'
p224
sg38
S'--'
p225
sg40
S'--'
p226
sg42
S'--'
p227
ssg155
(dp228
g5
S'4.0'
p229
sg7
S'--'
p230
sg9
g10
sg11
S'--'
p231
sg13
g69
sg14
g10
sg16
S'2015'
p232
sg18
g155
sg20
S'2.0'
p233
sg22
S'10/11'
p234
sg24
g10
sg26
S'Roy Helu'
p235
sg28
g100
sg30
S'L10-16'
p236
sg32
S'12'
p237
sg34
g100
sg36
S'DEN'
p238
sg38
S'9'
p239
sg40
S'6'
p240
sg42
S'4'
p241
ssg241
(dp242
g5
S'6.5'
p243
sg7
S'--'
p244
sg9
g10
sg11
S'--'
p245
sg13
g69
sg14
g69
sg16
S'2015'
p246
sg18
g241
sg20
S'4.4'
p247
sg22
S'10/04'
p248
sg24
g10
sg26
S'Roy Helu'
p249
sg28
g155
sg30
S'L20-22'
p250
sg32
S'13'
p251
sg34
g94
sg36
S'@CHI'
p252
sg38
g239
sg40
S'22'
p253
sg42
S'12'
p254
ssS'7'
p255
(dp256
g5
S'--'
p257
sg7
S'--'
p258
sg9
g10
sg11
S'--'
p259
sg13
g69
sg14
S'--'
p260
sg16
S'2015'
p261
sg18
g255
sg20
S'0.8'
p262
sg22
S'10/25'
p263
sg24
g10
sg26
S'Roy Helu'
p264
sg28
g241
sg30
S'W37-29'
p265
sg32
S'--'
p266
sg34
S'--'
p267
sg36
S'@SD'
p268
sg38
S'--'
p269
sg40
g100
sg42
g100
ssg240
(dp270
g5
S''
p271
sg7
g271
sg9
g271
sg11
g271
sg13
g271
sg14
g271
sg16
S'2015'
p272
sg18
g240
sg20
g271
sg22
S'Bye'
p273
sg24
g271
sg26
S'Roy Helu'
p274
sg28
g271
sg30
g271
sg32
g271
sg34
g271
sg36
g271
sg38
g271
sg40
g271
sg42
g271
ssg239
(dp275
g5
S'--'
p276
sg7
S'--'
p277
sg9
g10
sg11
S'--'
p278
sg13
g10
sg14
S'--'
p279
sg16
S'2015'
p280
sg18
g239
sg20
S'--'
p281
sg22
S'11/08'
p282
sg24
S'--'
p283
sg26
S'Roy Helu'
p284
sg28
S'--'
p285
sg30
S'L35-38'
p286
sg32
S'--'
p287
sg34
S'--'
p288
sg36
S'@PIT'
p289
sg38
S'--'
p290
sg40
S'--'
p291
sg42
S'--'
p292
ssS'8'
p293
(dp294
g5
S'--'
p295
sg7
S'--'
p296
sg9
g10
sg11
S'--'
p297
sg13
g69
sg14
g10
sg16
S'2015'
p298
sg18
g293
sg20
S'--'
p299
sg22
S'11/01'
p300
sg24
S'--'
p301
sg26
S'Roy Helu'
p302
sg28
S'--'
p303
sg30
S'W34-20'
p304
sg32
g10
sg34
g10
sg36
S'NYJ'
p305
sg38
S'--'
p306
sg40
S'--'
p307
sg42
S'--'
p308
sssS'2014'
p309
(dp310
g3
(dp311
g5
S'9.5'
p312
sg7
g94
sg9
g10
sg11
g69
sg13
g69
sg14
g69
sg16
S'2014'
p313
sg18
S'11'
p314
sg20
S'--'
p315
sg22
S'11/16'
p316
sg24
S'--'
p317
sg26
S'Roy Helu'
p318
sg28
S'--'
p319
sg30
S'L7-27'
p320
sg32
S'57'
p321
sg34
g240
sg36
S'TB'
p322
sg38
S'30T'
p323
sg40
S'--'
p324
sg42
S'--'
p325
ssg44
(dp326
g5
g271
sg7
g271
sg9
g271
sg11
g271
sg13
g271
sg14
g271
sg16
S'2014'
p327
sg18
S'10'
p328
sg20
g271
sg22
S'Bye'
p329
sg24
g271
sg26
S'Roy Helu'
p330
sg28
g271
sg30
g271
sg32
g271
sg34
g271
sg36
g271
sg38
g271
sg40
g271
sg42
g271
ssg64
(dp331
g5
S'15.3'
p332
sg7
S'--'
p333
sg9
g10
sg11
S'--'
p334
sg13
g69
sg14
g69
sg16
S'2014'
p335
sg18
S'13'
p336
sg20
S'5.0'
p337
sg22
S'11/30'
p338
sg24
g10
sg26
S'Roy Helu'
p339
sg28
g69
sg30
S'L27-49'
p340
sg32
S'61'
p341
sg34
g241
sg36
S'@IND'
p342
sg38
S'31'
p343
sg40
g155
sg42
g155
ssg83
(dp344
g5
S'4.5'
p345
sg7
S'--'
p346
sg9
g10
sg11
S'--'
p347
sg13
g69
sg14
g10
sg16
S'2014'
p348
sg18
S'12'
p349
sg20
S'--'
p350
sg22
S'11/23'
p351
sg24
S'--'
p352
sg26
S'Roy Helu'
p353
sg28
S'--'
p354
sg30
S'L13-17'
p355
sg32
g239
sg34
g94
sg36
S'@SF'
p356
sg38
g255
sg40
S'--'
p357
sg42
S'--'
p358
ssg101
(dp359
g5
S'--'
p360
sg7
S'--'
p361
sg9
g10
sg11
S'--'
p362
sg13
g10
sg14
S'--'
p363
sg16
S'2014'
p364
sg18
S'15'
p365
sg20
S'--'
p366
sg22
S'12/14'
p367
sg24
S'--'
p368
sg26
S'Roy Helu'
p369
sg28
S'--'
p370
sg30
S'L13-24'
p371
sg32
S'--'
p372
sg34
S'--'
p373
sg36
S'@NYG'
p374
sg38
S'--'
p375
sg40
S'--'
p376
sg42
S'--'
p377
ssg121
(dp378
g5
S'--'
p379
sg7
S'--'
p380
sg9
g10
sg11
S'--'
p381
sg13
g69
sg14
S'--'
p382
sg16
S'2014'
p383
sg18
S'14'
p384
sg20
S'--'
p385
sg22
S'12/07'
p386
sg24
S'--'
p387
sg26
S'Roy Helu'
p388
sg28
S'--'
p389
sg30
S'L0-24'
p390
sg32
S'--'
p391
sg34
S'--'
p392
sg36
S'STL'
p393
sg38
S'--'
p394
sg40
S'--'
p395
sg42
S'--'
p396
ssg141
(dp397
g5
S'10.3'
p398
sg7
S'--'
p399
sg9
g10
sg11
S'--'
p400
sg13
g69
sg14
g10
sg16
S'2014'
p401
sg18
S'17'
p402
sg20
S'7.0'
p403
sg22
S'12/28'
p404
sg24
g10
sg26
S'Roy Helu'
p405
sg28
g240
sg30
S'L17-44'
p406
sg32
S'41'
p407
sg34
g241
sg36
S'DAL'
p408
sg38
S'19'
p409
sg40
S'42'
p410
sg42
S'15'
p411
ssg156
(dp412
g5
S'--'
p413
sg7
S'--'
p414
sg9
g10
sg11
S'--'
p415
sg13
g10
sg14
S'--'
p416
sg16
S'2014'
p417
sg18
S'16'
p418
sg20
S'--'
p419
sg22
S'12/20'
p420
sg24
S'--'
p421
sg26
S'Roy Helu'
p422
sg28
S'--'
p423
sg30
S'W27-24'
p424
sg32
S'--'
p425
sg34
S'--'
p426
sg36
S'PHI'
p427
sg38
S'--'
p428
sg40
S'--'
p429
sg42
S'--'
p430
ssg69
(dp431
g5
S'7.5'
p432
sg7
S'--'
p433
sg9
g10
sg11
S'--'
p434
sg13
g69
sg14
g10
sg16
S'2014'
p435
sg18
g69
sg20
S'11.5'
p436
sg22
S'09/07'
p437
sg24
g10
sg26
S'Roy Helu'
p438
sg28
g241
sg30
S'L6-17'
p439
sg32
S'15'
p440
sg34
g94
sg36
S'@HOU'
p441
sg38
g239
sg40
S'46'
p442
sg42
S'16'
p443
ssg100
(dp444
g5
S'55.0'
p445
sg7
S'--'
p446
sg9
g10
sg11
S'--'
p447
sg13
g69
sg14
g10
sg16
S'2014'
p448
sg18
g100
sg20
S'1.0'
p449
sg22
S'09/21'
p450
sg24
g69
sg26
S'Roy Helu'
p451
sg28
g69
sg30
S'L34-37'
p452
sg32
S'55'
p453
sg34
g69
sg36
S'@PHI'
p454
sg38
S'55'
p455
sg40
g69
sg42
S'1T'
p456
ssg94
(dp457
g5
S'5.5'
p458
sg7
S'--'
p459
sg9
g10
sg11
S'--'
p460
sg13
g69
sg14
g10
sg16
S'2014'
p461
sg18
g94
sg20
S'3.1'
p462
sg22
S'09/14'
p463
sg24
g10
sg26
S'Roy Helu'
p464
sg28
g293
sg30
S'W41-10'
p465
sg32
S'11'
p466
sg34
g94
sg36
S'JAC'
p467
sg38
g240
sg40
S'25'
p468
sg42
g239
ssg155
(dp469
g5
S'11.8'
p470
sg7
S'--'
p471
sg9
g10
sg11
S'--'
p472
sg13
g69
sg14
g10
sg16
S'2014'
p473
sg18
g155
sg20
S'-0.5'
p474
sg22
S'10/06'
p475
sg24
g10
sg26
S'Roy Helu'
p476
sg28
g94
sg30
S'L17-27'
p477
sg32
S'59'
p478
sg34
g155
sg36
S'SEA'
p479
sg38
S'22'
p480
sg40
S'-1'
p481
sg42
g241
ssg241
(dp482
g5
S'15.6'
p483
sg7
S'--'
p484
sg9
g10
sg11
S'--'
p485
sg13
g69
sg14
g10
sg16
S'2014'
p486
sg18
g241
sg20
S'4.0'
p487
sg22
S'09/25'
p488
sg24
g10
sg26
S'Roy Helu'
p489
sg28
g94
sg30
S'L14-45'
p490
sg32
S'78'
p491
sg34
g155
sg36
S'NYG'
p492
sg38
S'36'
p493
sg40
g293
sg42
g240
ssg255
(dp494
g5
S'-3.0'
p495
sg7
S'--'
p496
sg9
g10
sg11
S'--'
p497
sg13
g69
sg14
g10
sg16
S'2014'
p498
sg18
g255
sg20
S'5.8'
p499
sg22
S'10/19'
p500
sg24
g10
sg26
S'Roy Helu'
p501
sg28
g155
sg30
S'W19-17'
p502
sg32
S'-9'
p503
sg34
g100
sg36
S'TEN'
p504
sg38
g69
sg40
S'29'
p505
sg42
S'15'
p506
ssg240
(dp507
g5
S'20.0'
p508
sg7
S'--'
p509
sg9
g10
sg11
S'--'
p510
sg13
g69
sg14
g10
sg16
S'2014'
p511
sg18
g240
sg20
S'8.7'
p512
sg22
S'10/12'
p513
sg24
g10
sg26
S'Roy Helu'
p514
sg28
g100
sg30
S'L20-30'
p515
sg32
S'40'
p516
sg34
g94
sg36
S'@ARI'
p517
sg38
S'33'
p518
sg40
S'26'
p519
sg42
S'16'
p520
ssg239
(dp521
g5
S'11.5'
p522
sg7
S'--'
p523
sg9
g10
sg11
S'--'
p524
sg13
g69
sg14
g10
sg16
S'2014'
p525
sg18
g239
sg20
S'2.0'
p526
sg22
S'11/02'
p527
sg24
g10
sg26
S'Roy Helu'
p528
sg28
g100
sg30
S'L26-29'
p529
sg32
S'46'
p530
sg34
g241
sg36
S'@MIN'
p531
sg38
S'24'
p532
sg40
g240
sg42
g155
ssg293
(dp533
g5
S'7.0'
p534
sg7
S'--'
p535
sg9
g10
sg11
S'--'
p536
sg13
g69
sg14
g10
sg16
S'2014'
p537
sg18
g293
sg20
S'5.8'
p538
sg22
S'10/27'
p539
sg24
g10
sg26
S'Roy Helu'
p540
sg28
g155
sg30
S'W20-17'
p541
sg32
S'14'
p542
sg34
g94
sg36
S'@DAL'
p543
sg38
g255
sg40
S'29'
p544
sg42
S'18'
p545
sssS'2011'
p546
(dp547
g3
(dp548
g5
S'1.5'
p549
sg7
S'--'
p550
sg9
g10
sg11
S'--'
p551
sg13
g69
sg14
g10
sg16
S'2011'
p552
sg18
S'11'
p553
sg20
S'4.4'
p554
sg22
S'11/20'
p555
sg24
g10
sg26
S'Roy Helu'
p556
sg28
g293
sg30
S'L24-27'
p557
sg32
g100
sg34
g94
sg36
S'DAL'
p558
sg38
g155
sg40
S'35'
p559
sg42
S'13'
p560
ssg44
(dp561
g5
S'4.3'
p562
sg7
S'--'
p563
sg9
g10
sg11
S'--'
p564
sg13
g69
sg14
g10
sg16
S'2011'
p565
sg18
S'10'
p566
sg20
S'6.8'
p567
sg22
S'11/13'
p568
sg24
g10
sg26
S'Roy Helu'
p569
sg28
g240
sg30
S'L9-20'
p570
sg32
S'13'
p571
sg34
g100
sg36
S'@MIA'
p572
sg38
g240
sg40
S'41'
p573
sg42
S'21'
p574
ssg64
(dp575
g5
S'10.5'
p576
sg7
g69
sg9
g69
sg11
g69
sg13
g69
sg14
g10
sg16
S'2011'
p577
sg18
S'13'
p578
sg20
S'4.3'
p579
sg22
S'12/04'
p580
sg24
g69
sg26
S'Roy Helu'
p581
sg28
S'23'
p582
sg30
S'L19-34'
p583
sg32
S'42'
p584
sg34
g241
sg36
S'NYJ'
p585
sg38
S'26'
p586
sg40
S'100'
p587
sg42
S'22'
p588
ssg83
(dp589
g5
S'7.7'
p590
sg7
S'--'
p591
sg9
g69
sg11
S'--'
p592
sg13
g69
sg14
g10
sg16
S'2011'
p593
sg18
S'12'
p594
sg20
S'4.7'
p595
sg22
S'11/27'
p596
sg24
g69
sg26
S'Roy Helu'
p597
sg28
S'23'
p598
sg30
S'W23-17'
p599
sg32
S'54'
p600
sg34
g255
sg36
S'@SEA'
p601
sg38
S'14'
p602
sg40
S'108'
p603
sg42
S'28T'
p604
ssg101
(dp605
g5
S'5.3'
p606
sg7
S'--'
p607
sg9
g69
sg11
S'--'
p608
sg13
g69
sg14
g10
sg16
S'2011'
p609
sg18
S'15'
p610
sg20
S'2.3'
p611
sg22
S'12/18'
p612
sg24
g10
sg26
S'Roy Helu'
p613
sg28
S'23'
p614
sg30
S'W23-10'
p615
sg32
S'16'
p616
sg34
g100
sg36
S'@NYG'
p617
sg38
g239
sg40
S'53'
p618
sg42
g293
ssg121
(dp619
g5
S'3.0'
p620
sg7
S'--'
p621
sg9
g69
sg11
S'--'
p622
sg13
g69
sg14
g10
sg16
S'2011'
p623
sg18
S'14'
p624
sg20
S'4.7'
p625
sg22
S'12/11'
p626
sg24
g10
sg26
S'Roy Helu'
p627
sg28
S'27'
p628
sg30
S'L27-34'
p629
sg32
g240
sg34
g94
sg36
S'NE'
p630
sg38
g293
sg40
S'126'
p631
sg42
S'26'
p632
ssg141
(dp633
g5
S'24.0'
p634
sg7
S'--'
p635
sg9
g10
sg11
S'--'
p636
sg13
g69
sg14
g69
sg16
S'2011'
p637
sg18
S'17'
p638
sg20
S'1.3'
p639
sg22
S'01/01'
p640
sg24
g10
sg26
S'Roy Helu'
p641
sg28
g241
sg30
S'L10-34'
p642
sg32
S'48'
p643
sg34
g94
sg36
S'@PHI'
p644
sg38
S'47T'
p645
sg40
g155
sg42
g255
ssg156
(dp646
g5
S'--'
p647
sg7
S'--'
p648
sg9
g10
sg11
S'--'
p649
sg13
g10
sg14
S'--'
p650
sg16
S'2011'
p651
sg18
S'16'
p652
sg20
S'--'
p653
sg22
S'12/24'
p654
sg24
S'--'
p655
sg26
S'Roy Helu'
p656
sg28
S'--'
p657
sg30
S'L26-33'
p658
sg32
S'--'
p659
sg34
S'--'
p660
sg36
S'MIN'
p661
sg38
S'--'
p662
sg40
S'--'
p663
sg42
S'--'
p664
ssg69
(dp665
g5
S'--'
p666
sg7
S'--'
p667
sg9
g10
sg11
S'--'
p668
sg13
g69
sg14
S'--'
p669
sg16
S'2011'
p670
sg18
g69
sg20
S'2.0'
p671
sg22
S'09/11'
p672
sg24
g10
sg26
S'Roy Helu'
p673
sg28
g69
sg30
S'W28-14'
p674
sg32
S'--'
p675
sg34
S'--'
p676
sg36
S'NYG'
p677
sg38
S'--'
p678
sg40
g94
sg42
g94
ssg100
(dp679
g5
S'8.5'
p680
sg7
S'--'
p681
sg9
g10
sg11
S'--'
p682
sg13
g69
sg14
g10
sg16
S'2011'
p683
sg18
g100
sg20
S'3.0'
p684
sg22
S'09/26'
p685
sg24
g10
sg26
S'Roy Helu'
p686
sg28
g155
sg30
S'L16-18'
p687
sg32
S'17'
p688
sg34
g94
sg36
S'@DAL'
p689
sg38
S'14'
p690
sg40
S'15'
p691
sg42
g255
ssg94
(dp692
g5
S'12.7'
p693
sg7
S'--'
p694
sg9
g10
sg11
S'--'
p695
sg13
g69
sg14
g10
sg16
S'2011'
p696
sg18
g94
sg20
S'7.4'
p697
sg22
S'09/18'
p698
sg24
g10
sg26
S'Roy Helu'
p699
sg28
S'10'
p700
sg30
S'W22-21'
p701
sg32
S'38'
p702
sg34
g100
sg36
S'ARI'
p703
sg38
S'33'
p704
sg40
S'74'
p705
sg42
S'18'
p706
ssg155
(dp707
g5
g271
sg7
g271
sg9
g271
sg11
g271
sg13
g271
sg14
g271
sg16
S'2011'
p708
sg18
g155
sg20
g271
sg22
S'Bye'
p709
sg24
g271
sg26
S'Roy Helu'
p710
sg28
g271
sg30
g271
sg32
g271
sg34
g271
sg36
g271
sg38
g271
sg40
g271
sg42
g271
ssg241
(dp711
g5
S'--'
p712
sg7
S'--'
p713
sg9
g10
sg11
S'--'
p714
sg13
g69
sg14
S'--'
p715
sg16
S'2011'
p716
sg18
g241
sg20
S'4.4'
p717
sg22
S'10/02'
p718
sg24
g10
sg26
S'Roy Helu'
p719
sg28
g293
sg30
S'W17-10'
p720
sg32
S'--'
p721
sg34
S'--'
p722
sg36
S'@STL'
p723
sg38
S'--'
p724
sg40
S'35'
p725
sg42
g239
ssg255
(dp726
g5
S'3.0'
p727
sg7
S'--'
p728
sg9
g10
sg11
S'--'
p729
sg13
g69
sg14
g10
sg16
S'2011'
p730
sg18
g255
sg20
S'-1.0'
p731
sg22
S'10/23'
p732
sg24
g10
sg26
S'Roy Helu'
p733
sg28
g69
sg30
S'L20-33'
p734
sg32
g240
sg34
g94
sg36
S'@CAR'
p735
sg38
g241
sg40
S'-1'
p736
sg42
S'-1'
p737
ssg240
(dp738
g5
S'5.5'
p739
sg7
S'--'
p740
sg9
g10
sg11
S'--'
p741
sg13
g69
sg14
g10
sg16
S'2011'
p742
sg18
g240
sg20
S'3.0'
p743
sg22
S'10/16'
p744
sg24
g10
sg26
S'Roy Helu'
p745
sg28
g94
sg30
S'L13-20'
p746
sg32
S'11'
p747
sg34
g94
sg36
S'PHI'
p748
sg38
g293
sg40
g240
sg42
g241
ssg239
(dp749
g5
S'7.5'
p750
sg7
g69
sg9
g69
sg11
g69
sg13
g69
sg14
g10
sg16
S'2011'
p751
sg18
g239
sg20
S'4.1'
p752
sg22
S'11/06'
p753
sg24
g10
sg26
S'Roy Helu'
p754
sg28
S'10'
p755
sg30
S'L11-19'
p756
sg32
S'105'
p757
sg34
S'14'
p758
sg36
S'SF'
p759
sg38
S'17'
p760
sg40
S'41'
p761
sg42
S'16'
p762
ssg293
(dp763
g5
S'6.7'
p764
sg7
S'--'
p765
sg9
g10
sg11
S'--'
p766
sg13
g69
sg14
g10
sg16
S'2011'
p767
sg18
g293
sg20
S'--'
p768
sg22
S'10/30'
p769
sg24
S'--'
p770
sg26
S'Roy Helu'
p771
sg28
S'--'
p772
sg30
S'L0-23'
p773
sg32
S'20'
p774
sg34
g100
sg36
S'@BUF'
p775
sg38
g293
sg40
S'--'
p776
sg42
S'--'
p777
sssS'2013'
p778
(dp779
g3
(dp780
g5
S'3.7'
p781
sg7
g69
sg9
g10
sg11
g10
sg13
g69
sg14
g10
sg16
S'2013'
p782
sg18
S'11'
p783
sg20
S'13.0'
p784
sg22
S'11/17'
p785
sg24
g10
sg26
S'Roy Helu'
p786
sg28
g100
sg30
S'L16-24'
p787
sg32
S'11'
p788
sg34
g100
sg36
S'@PHI'
p789
sg38
g155
sg40
S'39'
p790
sg42
S'24'
p791
ssg44
(dp792
g5
S'7.7'
p793
sg7
S'--'
p794
sg9
g10
sg11
S'--'
p795
sg13
g69
sg14
g10
sg16
S'2013'
p796
sg18
S'10'
p797
sg20
S'4.0'
p798
sg22
S'11/07'
p799
sg24
g10
sg26
S'Roy Helu'
p800
sg28
g94
sg30
S'L27-34'
p801
sg32
S'23'
p802
sg34
g100
sg36
S'@MIN'
p803
sg38
g239
sg40
g293
sg42
g241
ssg64
(dp804
g5
S'8.5'
p805
sg7
S'--'
p806
sg9
g10
sg11
S'--'
p807
sg13
g69
sg14
g10
sg16
S'2013'
p808
sg18
S'13'
p809
sg20
S'1.5'
p810
sg22
S'12/01'
p811
sg24
g10
sg26
S'Roy Helu'
p812
sg28
g241
sg30
S'L17-24'
p813
sg32
S'34'
p814
sg34
g241
sg36
S'NYG'
p815
sg38
S'20'
p816
sg40
g240
sg42
g100
ssg83
(dp817
g5
S'7.0'
p818
sg7
S'--'
p819
sg9
g10
sg11
S'--'
p820
sg13
g69
sg14
g10
sg16
S'2013'
p821
sg18
S'12'
p822
sg20
S'3.7'
p823
sg22
S'11/25'
p824
sg24
g10
sg26
S'Roy Helu'
p825
sg28
g255
sg30
S'L6-27'
p826
sg32
g255
sg34
g69
sg36
S'SF'
p827
sg38
g255
sg40
S'26'
p828
sg42
S'12'
p829
ssg101
(dp830
g5
S'4.0'
p831
sg7
S'--'
p832
sg9
g10
sg11
S'--'
p833
sg13
g69
sg14
g10
sg16
S'2013'
p834
sg18
S'15'
p835
sg20
S'1.7'
p836
sg22
S'12/15'
p837
sg24
g10
sg26
S'Roy Helu'
p838
sg28
g100
sg30
S'L26-27'
p839
sg32
g241
sg34
g69
sg36
S'@ATL'
p840
sg38
g241
sg40
g155
sg42
g155
ssg121
(dp841
g5
S'2.0'
p842
sg7
S'--'
p843
sg9
g10
sg11
S'--'
p844
sg13
g69
sg14
g10
sg16
S'2013'
p845
sg18
S'14'
p846
sg20
S'5.0'
p847
sg22
S'12/08'
p848
sg24
g10
sg26
S'Roy Helu'
p849
sg28
g69
sg30
S'L10-45'
p850
sg32
g94
sg34
g69
sg36
S'KC'
p851
sg38
g94
sg40
g155
sg42
g155
ssg141
(dp852
g5
S'7.0'
p853
sg7
g69
sg9
g10
sg11
g10
sg13
g69
sg14
g10
sg16
S'2013'
p854
sg18
S'17'
p855
sg20
S'8.0'
p856
sg22
S'12/29'
p857
sg24
g10
sg26
S'Roy Helu'
p858
sg28
g100
sg30
S'L6-20'
p859
sg32
S'14'
p860
sg34
g94
sg36
S'@NYG'
p861
sg38
g239
sg40
S'24'
p862
sg42
S'19'
p863
ssg156
(dp864
g5
S'2.5'
p865
sg7
S'--'
p866
sg9
g10
sg11
S'--'
p867
sg13
g69
sg14
g10
sg16
S'2013'
p868
sg18
S'16'
p869
sg20
S'-2.0'
p870
sg22
S'12/22'
p871
sg24
g10
sg26
S'Roy Helu'
p872
sg28
g69
sg30
S'L23-24'
p873
sg32
g155
sg34
g94
sg36
S'DAL'
p874
sg38
g241
sg40
S'-2'
p875
sg42
S'-2'
p876
ssg69
(dp877
g5
S'11.0'
p878
sg7
S'--'
p879
sg9
g10
sg11
S'--'
p880
sg13
g69
sg14
g10
sg16
S'2013'
p881
sg18
g69
sg20
S'5.0'
p882
sg22
S'09/09'
p883
sg24
g10
sg26
S'Roy Helu'
p884
sg28
g69
sg30
S'L27-33'
p885
sg32
S'11'
p886
sg34
g69
sg36
S'PHI'
p887
sg38
S'11'
p888
sg40
g155
sg42
g155
ssg100
(dp889
g5
S'11.7'
p890
sg7
S'--'
p891
sg9
g10
sg11
S'--'
p892
sg13
g69
sg14
g10
sg16
S'2013'
p893
sg18
g100
sg20
S'--'
p894
sg22
S'09/22'
p895
sg24
S'--'
p896
sg26
S'Roy Helu'
p897
sg28
S'--'
p898
sg30
S'L20-27'
p899
sg32
S'35'
p900
sg34
g100
sg36
S'DET'
p901
sg38
S'15'
p902
sg40
S'--'
p903
sg42
S'--'
p904
ssg94
(dp905
g5
S'2.0'
p906
sg7
S'--'
p907
sg9
g10
sg11
S'--'
p908
sg13
g69
sg14
g10
sg16
S'2013'
p909
sg18
g94
sg20
S'--'
p910
sg22
S'09/15'
p911
sg24
S'--'
p912
sg26
S'Roy Helu'
p913
sg28
S'--'
p914
sg30
S'L20-38'
p915
sg32
g94
sg34
g69
sg36
S'@GB'
p916
sg38
g94
sg40
S'--'
p917
sg42
S'--'
p918
ssg155
(dp919
g5
g271
sg7
g271
sg9
g271
sg11
g271
sg13
g271
sg14
g271
sg16
S'2013'
p920
sg18
g155
sg20
g271
sg22
S'Bye'
p921
sg24
g271
sg26
S'Roy Helu'
p922
sg28
g271
sg30
g271
sg32
g271
sg34
g271
sg36
g271
sg38
g271
sg40
g271
sg42
g271
ssg241
(dp923
g5
S'21.5'
p924
sg7
S'--'
p925
sg9
g10
sg11
S'--'
p926
sg13
g69
sg14
g10
sg16
S'2013'
p927
sg18
g241
sg20
S'3.2'
p928
sg22
S'09/29'
p929
sg24
g69
sg26
S'Roy Helu'
p930
sg28
S'13'
p931
sg30
S'W24-14'
p932
sg32
S'43'
p933
sg34
g94
sg36
S'@OAK'
p934
sg38
S'28'
p935
sg40
S'41'
p936
sg42
S'14T'
p937
ssg255
(dp938
g5
S'5.0'
p939
sg7
S'--'
p940
sg9
g10
sg11
S'--'
p941
sg13
g69
sg14
g10
sg16
S'2013'
p942
sg18
g255
sg20
S'3.7'
p943
sg22
S'10/20'
p944
sg24
g100
sg26
S'Roy Helu'
p945
sg28
S'11'
p946
sg30
S'W45-41'
p947
sg32
g155
sg34
g69
sg36
S'CHI'
p948
sg38
g155
sg40
S'41'
p949
sg42
S'14T'
p950
ssg240
(dp951
g5
S'8.8'
p952
sg7
S'--'
p953
sg9
g10
sg11
S'--'
p954
sg13
g69
sg14
g10
sg16
S'2013'
p955
sg18
g240
sg20
S'7.0'
p956
sg22
S'10/13'
p957
sg24
g10
sg26
S'Roy Helu'
p958
sg28
g240
sg30
S'L16-31'
p959
sg32
S'35'
p960
sg34
g241
sg36
S'@DAL'
p961
sg38
S'18'
p962
sg40
S'42'
p963
sg42
S'17'
p964
ssg239
(dp965
g5
S'6.0'
p966
sg7
S'--'
p967
sg9
g10
sg11
S'--'
p968
sg13
g69
sg14
g10
sg16
S'2013'
p969
sg18
g239
sg20
S'11.5'
p970
sg22
S'11/03'
p971
sg24
g10
sg26
S'Roy Helu'
p972
sg28
g94
sg30
S'W30-24'
p973
sg32
g240
sg34
g69
sg36
S'SD'
p974
sg38
g240
sg40
S'23'
p975
sg42
S'21'
p976
ssg293
(dp977
g5
S'14.0'
p978
sg7
S'--'
p979
sg9
g10
sg11
S'--'
p980
sg13
g69
sg14
g10
sg16
S'2013'
p981
sg18
g293
sg20
S'2.2'
p982
sg22
S'10/27'
p983
sg24
g10
sg26
S'Roy Helu'
p984
sg28
g155
sg30
S'L21-45'
p985
sg32
S'14'
p986
sg34
g69
sg36
S'@DEN'
p987
sg38
S'14'
p988
sg40
S'11'
p989
sg42
g241
sssS'2012'
p990
(dp991
g69
(dp992
g5
S'8.3'
p993
sg7
S'--'
p994
sg9
g10
sg11
S'--'
p995
sg13
g69
sg14
g10
sg16
S'2012'
p996
sg18
g69
sg20
S'1.0'
p997
sg22
S'09/09'
p998
sg24
g10
sg26
S'Roy Helu'
p999
sg28
g94
sg30
S'W40-32'
p1000
sg32
S'25'
p1001
sg34
g100
sg36
S'@NO'
p1002
sg38
S'21'
p1003
sg40
g94
sg42
g69
ssg100
(dp1004
g5
S'6.7'
p1005
sg7
S'--'
p1006
sg9
g10
sg11
S'--'
p1007
sg13
g69
sg14
g10
sg16
S'2012'
p1008
sg18
g100
sg20
S'--'
p1009
sg22
S'09/23'
p1010
sg24
S'--'
p1011
sg26
S'Roy Helu'
p1012
sg28
S'--'
p1013
sg30
S'L31-38'
p1014
sg32
S'20'
p1015
sg34
g100
sg36
S'CIN'
p1016
sg38
g239
sg40
S'--'
p1017
sg42
S'--'
p1018
ssg94
(dp1019
g5
S'0.0'
p1020
sg7
S'--'
p1021
sg9
g10
sg11
S'--'
p1022
sg13
g69
sg14
g10
sg16
S'2012'
p1023
sg18
g94
sg20
S'--'
p1024
sg22
S'09/16'
p1025
sg24
S'--'
p1026
sg26
S'Roy Helu'
p1027
sg28
S'--'
p1028
sg30
S'L28-31'
p1029
sg32
g10
sg34
g69
sg36
S'@STL'
p1030
sg38
g10
sg40
S'--'
p1031
sg42
S'--'
p1032
sss.