(dp0
S'2015'
p1
(dp2
S'11'
p3
(dp4
S'RecAvg'
p5
S'--'
p6
sS'FUM'
p7
S'--'
p8
sS'GS'
p9
S'0'
p10
sS'Lost'
p11
S'--'
p12
sS'G'
p13
g10
sS'RecTD'
p14
S'--'
p15
sS'Year'
p16
S'2015'
p17
sS'WK'
p18
S'11'
p19
sS'RushAvg'
p20
S'--'
p21
sS'Game Date'
p22
S'11/22'
p23
sS'RushTD'
p24
S'--'
p25
sS'Player'
p26
S'Ryan Mathews'
p27
sS'RushAtt'
p28
S'--'
p29
sS'Result'
p30
S'L17-45'
p31
sS'RecYds'
p32
S'--'
p33
sS'Rec'
p34
S'--'
p35
sS'Opp'
p36
S'TB'
p37
sS'RecLng'
p38
S'--'
p39
sS'RushYds'
p40
S'--'
p41
sS'RushLng'
p42
S'--'
p43
ssS'10'
p44
(dp45
g5
S'11.0'
p46
sg7
S'--'
p47
sg9
g10
sg11
S'--'
p48
sg13
S'1'
p49
sg14
g10
sg16
S'2015'
p50
sg18
S'10'
p51
sg20
S'2.6'
p52
sg22
S'11/15'
p53
sg24
g49
sg26
S'Ryan Mathews'
p54
sg28
S'7'
p55
sg30
S'L19-20'
p56
sg32
S'22'
p57
sg34
S'2'
p58
sg36
S'MIA'
p59
sg38
S'17'
p60
sg40
S'18'
p61
sg42
S'12'
p62
ssS'13'
p63
(dp64
g5
S'--'
p65
sg7
S'--'
p66
sg9
g10
sg11
S'--'
p67
sg13
g10
sg14
S'--'
p68
sg16
S'2015'
p69
sg18
S'13'
p70
sg20
S'--'
p71
sg22
S'12/06'
p72
sg24
S'--'
p73
sg26
S'Ryan Mathews'
p74
sg28
S'--'
p75
sg30
S'W35-28'
p76
sg32
S'--'
p77
sg34
S'--'
p78
sg36
S'@NE'
p79
sg38
S'--'
p80
sg40
S'--'
p81
sg42
S'--'
p82
ssS'12'
p83
(dp84
g5
S'--'
p85
sg7
S'--'
p86
sg9
g10
sg11
S'--'
p87
sg13
g10
sg14
S'--'
p88
sg16
S'2015'
p89
sg18
S'12'
p90
sg20
S'--'
p91
sg22
S'11/26'
p92
sg24
S'--'
p93
sg26
S'Ryan Mathews'
p94
sg28
S'--'
p95
sg30
S'L14-45'
p96
sg32
S'--'
p97
sg34
S'--'
p98
sg36
S'@DET'
p99
sg38
S'--'
p100
sg40
S'--'
p101
sg42
S'--'
p102
ssS'15'
p103
(dp104
g5
S'3.0'
p105
sg7
g49
sg9
g49
sg11
g49
sg13
g49
sg14
g10
sg16
S'2015'
p106
sg18
S'15'
p107
sg20
S'5.3'
p108
sg22
S'12/20'
p109
sg24
g10
sg26
S'Ryan Mathews'
p110
sg28
S'11'
p111
sg30
S'L17-40'
p112
sg32
S'3'
p113
sg34
g49
sg36
S'ARI'
p114
sg38
g113
sg40
S'58'
p115
sg42
S'20'
p116
ssS'14'
p117
(dp118
g5
S'2.0'
p119
sg7
S'--'
p120
sg9
g49
sg11
S'--'
p121
sg13
g49
sg14
g10
sg16
S'2015'
p122
sg18
S'14'
p123
sg20
S'2.9'
p124
sg22
S'12/13'
p125
sg24
g10
sg26
S'Ryan Mathews'
p126
sg28
S'13'
p127
sg30
S'W23-20'
p128
sg32
S'4'
p129
sg34
g58
sg36
S'BUF'
p130
sg38
g113
sg40
S'38'
p131
sg42
S'9'
p132
ssS'17'
p133
(dp134
g5
S'7.0'
p135
sg7
S'--'
p136
sg9
g49
sg11
S'--'
p137
sg13
g49
sg14
g10
sg16
S'2015'
p138
sg18
S'17'
p139
sg20
S'2.8'
p140
sg22
S'01/03'
p141
sg24
g10
sg26
S'Ryan Mathews'
p142
sg28
g129
sg30
S'W35-30'
p143
sg32
g55
sg34
g49
sg36
S'@NYG'
p144
sg38
g55
sg40
S'11'
p145
sg42
g55
ssS'16'
p146
(dp147
g5
S'6.5'
p148
sg7
S'--'
p149
sg9
g49
sg11
S'--'
p150
sg13
g49
sg14
g10
sg16
S'2015'
p151
sg18
S'16'
p152
sg20
S'1.3'
p153
sg22
S'12/26'
p154
sg24
g49
sg26
S'Ryan Mathews'
p155
sg28
g129
sg30
S'L24-38'
p156
sg32
S'13'
p157
sg34
g58
sg36
S'WAS'
p158
sg38
S'11'
p159
sg40
S'5'
p160
sg42
g58
ssg49
(dp161
g5
S'8.0'
p162
sg7
S'--'
p163
sg9
g10
sg11
S'--'
p164
sg13
g49
sg14
g10
sg16
S'2015'
p165
sg18
g49
sg20
S'1.3'
p166
sg22
S'09/14'
p167
sg24
g49
sg26
S'Ryan Mathews'
p168
sg28
g113
sg30
S'L24-26'
p169
sg32
S'24'
p170
sg34
g113
sg36
S'@ATL'
p171
sg38
S'12'
p172
sg40
g129
sg42
g113
ssg113
(dp173
g5
S'10.0'
p174
sg7
g49
sg9
g10
sg11
g49
sg13
g49
sg14
g49
sg16
S'2015'
p175
sg18
g113
sg20
S'4.5'
p176
sg22
S'09/27'
p177
sg24
g10
sg26
S'Ryan Mathews'
p178
sg28
S'24'
p179
sg30
S'W24-17'
p180
sg32
S'20'
p181
sg34
g58
sg36
S'@NYJ'
p182
sg38
S'23T'
p183
sg40
S'108'
p184
sg42
S'27'
p185
ssg58
(dp186
g5
S'--'
p187
sg7
S'--'
p188
sg9
g10
sg11
S'--'
p189
sg13
g49
sg14
S'--'
p190
sg16
S'2015'
p191
sg18
g58
sg20
S'0.0'
p192
sg22
S'09/20'
p193
sg24
g10
sg26
S'Ryan Mathews'
p194
sg28
g49
sg30
S'L10-20'
p195
sg32
S'--'
p196
sg34
S'--'
p197
sg36
S'DAL'
p198
sg38
S'--'
p199
sg40
g10
sg42
g10
ssg160
(dp200
g5
S'7.7'
p201
sg7
S'--'
p202
sg9
g10
sg11
S'--'
p203
sg13
g49
sg14
g10
sg16
S'2015'
p204
sg18
g160
sg20
S'9.1'
p205
sg22
S'10/11'
p206
sg24
g49
sg26
S'Ryan Mathews'
p207
sg28
S'8'
p208
sg30
S'W39-17'
p209
sg32
S'23'
p210
sg34
g113
sg36
S'NO'
p211
sg38
S'13'
p212
sg40
S'73'
p213
sg42
S'33'
p214
ssg129
(dp215
g5
S'--'
p216
sg7
g49
sg9
g49
sg11
g49
sg13
g49
sg14
S'--'
p217
sg16
S'2015'
p218
sg18
g129
sg20
S'4.0'
p219
sg22
S'10/04'
p220
sg24
g10
sg26
S'Ryan Mathews'
p221
sg28
g160
sg30
S'L20-23'
p222
sg32
S'--'
p223
sg34
S'--'
p224
sg36
S'@WAS'
p225
sg38
S'--'
p226
sg40
S'20'
p227
sg42
g132
ssg55
(dp228
g5
S'8.0'
p229
sg7
S'--'
p230
sg9
g10
sg11
S'--'
p231
sg13
g49
sg14
g10
sg16
S'2015'
p232
sg18
g55
sg20
S'16.2'
p233
sg22
S'10/25'
p234
sg24
g49
sg26
S'Ryan Mathews'
p235
sg28
S'6'
p236
sg30
S'L16-27'
p237
sg32
S'24'
p238
sg34
g113
sg36
S'@CAR'
p239
sg38
S'20'
p240
sg40
S'97'
p241
sg42
S'63T'
p242
ssg236
(dp243
g5
S'6.0'
p244
sg7
S'--'
p245
sg9
g49
sg11
S'--'
p246
sg13
g49
sg14
g10
sg16
S'2015'
p247
sg18
g236
sg20
S'4.4'
p248
sg22
S'10/19'
p249
sg24
g10
sg26
S'Ryan Mathews'
p250
sg28
g132
sg30
S'W27-7'
p251
sg32
g236
sg34
g49
sg36
S'NYG'
p252
sg38
g236
sg40
S'40'
p253
sg42
g132
ssg132
(dp254
g5
S'--'
p255
sg7
S'--'
p256
sg9
g10
sg11
S'--'
p257
sg13
g49
sg14
g10
sg16
S'2015'
p258
sg18
g132
sg20
S'6.1'
p259
sg22
S'11/08'
p260
sg24
g49
sg26
S'Ryan Mathews'
p261
sg28
S'11'
p262
sg30
S'W33-27'
p263
sg32
g10
sg34
g10
sg36
S'@DAL'
p264
sg38
S'--'
p265
sg40
S'67'
p266
sg42
S'21'
p267
ssg208
(dp268
g5
S''
p269
sg7
g269
sg9
g269
sg11
g269
sg13
g269
sg14
g269
sg16
S'2015'
p270
sg18
g208
sg20
g269
sg22
S'Bye'
p271
sg24
g269
sg26
S'Ryan Mathews'
p272
sg28
g269
sg30
g269
sg32
g269
sg34
g269
sg36
g269
sg38
g269
sg40
g269
sg42
g269
sssS'2014'
p273
(dp274
g3
(dp275
g5
S'5.0'
p276
sg7
S'--'
p277
sg9
g49
sg11
S'--'
p278
sg13
g49
sg14
g10
sg16
S'2014'
p279
sg18
S'11'
p280
sg20
S'4.4'
p281
sg22
S'11/16'
p282
sg24
g10
sg26
S'Ryan Mathews'
p283
sg28
S'16'
p284
sg30
S'W13-6'
p285
sg32
g160
sg34
g49
sg36
S'OAK'
p286
sg38
g160
sg40
S'70'
p287
sg42
S'20'
p288
ssg44
(dp289
g5
g269
sg7
g269
sg9
g269
sg11
g269
sg13
g269
sg14
g269
sg16
S'2014'
p290
sg18
S'10'
p291
sg20
g269
sg22
S'Bye'
p292
sg24
g269
sg26
S'Ryan Mathews'
p293
sg28
g269
sg30
g269
sg32
g269
sg34
g269
sg36
g269
sg38
g269
sg40
g269
sg42
g269
ssg63
(dp294
g5
S'6.0'
p295
sg7
S'--'
p296
sg9
g49
sg11
S'--'
p297
sg13
g49
sg14
g10
sg16
S'2014'
p298
sg18
S'13'
p299
sg20
S'3.3'
p300
sg22
S'11/30'
p301
sg24
g49
sg26
S'Ryan Mathews'
p302
sg28
S'12'
p303
sg30
S'W34-33'
p304
sg32
g236
sg34
g49
sg36
S'@BAL'
p305
sg38
g236
sg40
S'40'
p306
sg42
S'14T'
p307
ssg83
(dp308
g5
S'4.0'
p309
sg7
S'--'
p310
sg9
g49
sg11
S'--'
p311
sg13
g49
sg14
g10
sg16
S'2014'
p312
sg18
S'12'
p313
sg20
S'8.8'
p314
sg22
S'11/23'
p315
sg24
g49
sg26
S'Ryan Mathews'
p316
sg28
S'12'
p317
sg30
S'W27-24'
p318
sg32
g208
sg34
g58
sg36
S'STL'
p319
sg38
S'10'
p320
sg40
S'105'
p321
sg42
S'32T'
p322
ssg103
(dp323
g5
S'--'
p324
sg7
S'--'
p325
sg9
g10
sg11
S'--'
p326
sg13
g10
sg14
S'--'
p327
sg16
S'2014'
p328
sg18
S'15'
p329
sg20
S'--'
p330
sg22
S'12/14'
p331
sg24
S'--'
p332
sg26
S'Ryan Mathews'
p333
sg28
S'--'
p334
sg30
S'L10-22'
p335
sg32
S'--'
p336
sg34
S'--'
p337
sg36
S'DEN'
p338
sg38
S'--'
p339
sg40
S'--'
p340
sg42
S'--'
p341
ssg117
(dp342
g5
S'4.0'
p343
sg7
S'--'
p344
sg9
g49
sg11
S'--'
p345
sg13
g49
sg14
g10
sg16
S'2014'
p346
sg18
S'14'
p347
sg20
S'4.0'
p348
sg22
S'12/07'
p349
sg24
g10
sg26
S'Ryan Mathews'
p350
sg28
S'11'
p351
sg30
S'L14-23'
p352
sg32
g129
sg34
g49
sg36
S'NE'
p353
sg38
g129
sg40
S'44'
p354
sg42
S'17'
p355
ssg133
(dp356
g5
S'--'
p357
sg7
S'--'
p358
sg9
g10
sg11
S'--'
p359
sg13
g10
sg14
S'--'
p360
sg16
S'2014'
p361
sg18
S'17'
p362
sg20
S'--'
p363
sg22
S'12/28'
p364
sg24
S'--'
p365
sg26
S'Ryan Mathews'
p366
sg28
S'--'
p367
sg30
S'L7-19'
p368
sg32
S'--'
p369
sg34
S'--'
p370
sg36
S'@KC'
p371
sg38
S'--'
p372
sg40
S'--'
p373
sg42
S'--'
p374
ssg146
(dp375
g5
S'--'
p376
sg7
S'--'
p377
sg9
g10
sg11
S'--'
p378
sg13
g10
sg14
S'--'
p379
sg16
S'2014'
p380
sg18
S'16'
p381
sg20
S'--'
p382
sg22
S'12/20'
p383
sg24
S'--'
p384
sg26
S'Ryan Mathews'
p385
sg28
S'--'
p386
sg30
S'W38-35'
p387
sg32
S'--'
p388
sg34
S'--'
p389
sg36
S'@SF'
p390
sg38
S'--'
p391
sg40
S'--'
p392
sg42
S'--'
p393
ssg49
(dp394
g5
S'10.0'
p395
sg7
S'--'
p396
sg9
g49
sg11
S'--'
p397
sg13
g49
sg14
g10
sg16
S'2014'
p398
sg18
g49
sg20
S'3.3'
p399
sg22
S'09/08'
p400
sg24
g49
sg26
S'Ryan Mathews'
p401
sg28
S'12'
p402
sg30
S'L17-18'
p403
sg32
S'20'
p404
sg34
g58
sg36
S'@ARI'
p405
sg38
S'12'
p406
sg40
S'40'
p407
sg42
S'20T'
p408
ssg113
(dp409
g5
S'--'
p410
sg7
S'--'
p411
sg9
g10
sg11
S'--'
p412
sg13
g10
sg14
S'--'
p413
sg16
S'2014'
p414
sg18
g113
sg20
S'--'
p415
sg22
S'09/21'
p416
sg24
S'--'
p417
sg26
S'Ryan Mathews'
p418
sg28
S'--'
p419
sg30
S'W22-10'
p420
sg32
S'--'
p421
sg34
S'--'
p422
sg36
S'@BUF'
p423
sg38
S'--'
p424
sg40
S'--'
p425
sg42
S'--'
p426
ssg58
(dp427
g5
S'13.0'
p428
sg7
g49
sg9
g49
sg11
g10
sg13
g49
sg14
g10
sg16
S'2014'
p429
sg18
g58
sg20
S'2.8'
p430
sg22
S'09/14'
p431
sg24
g10
sg26
S'Ryan Mathews'
p432
sg28
S'11'
p433
sg30
S'W30-21'
p434
sg32
S'26'
p435
sg34
g58
sg36
S'SEA'
p436
sg38
S'16'
p437
sg40
S'31'
p438
sg42
g236
ssg160
(dp439
g5
S'--'
p440
sg7
S'--'
p441
sg9
g10
sg11
S'--'
p442
sg13
g10
sg14
S'--'
p443
sg16
S'2014'
p444
sg18
g160
sg20
S'--'
p445
sg22
S'10/05'
p446
sg24
S'--'
p447
sg26
S'Ryan Mathews'
p448
sg28
S'--'
p449
sg30
S'W31-0'
p450
sg32
S'--'
p451
sg34
S'--'
p452
sg36
S'NYJ'
p453
sg38
S'--'
p454
sg40
S'--'
p455
sg42
S'--'
p456
ssg129
(dp457
g5
S'--'
p458
sg7
S'--'
p459
sg9
g10
sg11
S'--'
p460
sg13
g10
sg14
S'--'
p461
sg16
S'2014'
p462
sg18
g129
sg20
S'--'
p463
sg22
S'09/28'
p464
sg24
S'--'
p465
sg26
S'Ryan Mathews'
p466
sg28
S'--'
p467
sg30
S'W33-14'
p468
sg32
S'--'
p469
sg34
S'--'
p470
sg36
S'JAC'
p471
sg38
S'--'
p472
sg40
S'--'
p473
sg42
S'--'
p474
ssg55
(dp475
g5
S'--'
p476
sg7
S'--'
p477
sg9
g10
sg11
S'--'
p478
sg13
g10
sg14
S'--'
p479
sg16
S'2014'
p480
sg18
g55
sg20
S'--'
p481
sg22
S'10/19'
p482
sg24
S'--'
p483
sg26
S'Ryan Mathews'
p484
sg28
S'--'
p485
sg30
S'L20-23'
p486
sg32
S'--'
p487
sg34
S'--'
p488
sg36
S'KC'
p489
sg38
S'--'
p490
sg40
S'--'
p491
sg42
S'--'
p492
ssg236
(dp493
g5
S'--'
p494
sg7
S'--'
p495
sg9
g10
sg11
S'--'
p496
sg13
g10
sg14
S'--'
p497
sg16
S'2014'
p498
sg18
g236
sg20
S'--'
p499
sg22
S'10/12'
p500
sg24
S'--'
p501
sg26
S'Ryan Mathews'
p502
sg28
S'--'
p503
sg30
S'W31-28'
p504
sg32
S'--'
p505
sg34
S'--'
p506
sg36
S'@OAK'
p507
sg38
S'--'
p508
sg40
S'--'
p509
sg42
S'--'
p510
ssg132
(dp511
g5
S'--'
p512
sg7
S'--'
p513
sg9
g10
sg11
S'--'
p514
sg13
g10
sg14
S'--'
p515
sg16
S'2014'
p516
sg18
g132
sg20
S'--'
p517
sg22
S'11/02'
p518
sg24
S'--'
p519
sg26
S'Ryan Mathews'
p520
sg28
S'--'
p521
sg30
S'L0-37'
p522
sg32
S'--'
p523
sg34
S'--'
p524
sg36
S'@MIA'
p525
sg38
S'--'
p526
sg40
S'--'
p527
sg42
S'--'
p528
ssg208
(dp529
g5
S'--'
p530
sg7
S'--'
p531
sg9
g10
sg11
S'--'
p532
sg13
g10
sg14
S'--'
p533
sg16
S'2014'
p534
sg18
g208
sg20
S'--'
p535
sg22
S'10/23'
p536
sg24
S'--'
p537
sg26
S'Ryan Mathews'
p538
sg28
S'--'
p539
sg30
S'L21-35'
p540
sg32
S'--'
p541
sg34
S'--'
p542
sg36
S'@DEN'
p543
sg38
S'--'
p544
sg40
S'--'
p545
sg42
S'--'
p546
sssS'2011'
p547
(dp548
g3
(dp549
g5
S'7.0'
p550
sg7
g58
sg9
g49
sg11
g49
sg13
g49
sg14
g10
sg16
S'2011'
p551
sg18
S'11'
p552
sg20
S'2.8'
p553
sg22
S'11/20'
p554
sg24
g10
sg26
S'Ryan Mathews'
p555
sg28
S'13'
p556
sg30
S'L20-31'
p557
sg32
S'14'
p558
sg34
g58
sg36
S'@CHI'
p559
sg38
S'10'
p560
sg40
S'37'
p561
sg42
S'23'
p562
ssg44
(dp563
g5
S'7.7'
p564
sg7
S'--'
p565
sg9
g49
sg11
S'--'
p566
sg13
g49
sg14
g10
sg16
S'2011'
p567
sg18
S'10'
p568
sg20
S'5.7'
p569
sg22
S'11/10'
p570
sg24
g10
sg26
S'Ryan Mathews'
p571
sg28
g236
sg30
S'L17-24'
p572
sg32
S'23'
p573
sg34
g113
sg36
S'OAK'
p574
sg38
S'19'
p575
sg40
S'34'
p576
sg42
S'16'
p577
ssg63
(dp578
g5
S'0.7'
p579
sg7
S'--'
p580
sg9
g49
sg11
S'--'
p581
sg13
g49
sg14
g10
sg16
S'2011'
p582
sg18
S'13'
p583
sg20
S'8.6'
p584
sg22
S'12/05'
p585
sg24
g49
sg26
S'Ryan Mathews'
p586
sg28
S'13'
p587
sg30
S'W38-14'
p588
sg32
g58
sg34
g113
sg36
S'@JAC'
p589
sg38
g236
sg40
S'112'
p590
sg42
S'31T'
p591
ssg83
(dp592
g5
S'5.0'
p593
sg7
S'--'
p594
sg9
g49
sg11
S'--'
p595
sg13
g49
sg14
g10
sg16
S'2011'
p596
sg18
S'12'
p597
sg20
S'6.2'
p598
sg22
S'11/27'
p599
sg24
g10
sg26
S'Ryan Mathews'
p600
sg28
S'22'
p601
sg30
S'L13-16'
p602
sg32
g160
sg34
g49
sg36
S'DEN'
p603
sg38
g160
sg40
S'137'
p604
sg42
S'39'
p605
ssg103
(dp606
g5
S'9.5'
p607
sg7
g49
sg9
g49
sg11
g10
sg13
g49
sg14
g10
sg16
S'2011'
p608
sg18
S'15'
p609
sg20
S'3.5'
p610
sg22
S'12/18'
p611
sg24
g58
sg26
S'Ryan Mathews'
p612
sg28
S'26'
p613
sg30
S'W34-14'
p614
sg32
S'19'
p615
sg34
g58
sg36
S'BAL'
p616
sg38
S'13'
p617
sg40
S'90'
p618
sg42
S'24'
p619
ssg117
(dp620
g5
S'5.7'
p621
sg7
S'--'
p622
sg9
g49
sg11
S'--'
p623
sg13
g49
sg14
g10
sg16
S'2011'
p624
sg18
S'14'
p625
sg20
S'5.7'
p626
sg22
S'12/11'
p627
sg24
g10
sg26
S'Ryan Mathews'
p628
sg28
S'20'
p629
sg30
S'W37-10'
p630
sg32
S'34'
p631
sg34
g236
sg36
S'BUF'
p632
sg38
S'10'
p633
sg40
S'114'
p634
sg42
S'37'
p635
ssg133
(dp636
g5
S'--'
p637
sg7
S'--'
p638
sg9
g10
sg11
S'--'
p639
sg13
g10
sg14
S'--'
p640
sg16
S'2011'
p641
sg18
S'17'
p642
sg20
S'--'
p643
sg22
S'01/01'
p644
sg24
S'--'
p645
sg26
S'Ryan Mathews'
p646
sg28
S'--'
p647
sg30
S'W38-26'
p648
sg32
S'--'
p649
sg34
S'--'
p650
sg36
S'@OAK'
p651
sg38
S'--'
p652
sg40
S'--'
p653
sg42
S'--'
p654
ssg146
(dp655
g5
S'5.3'
p656
sg7
S'--'
p657
sg9
g49
sg11
S'--'
p658
sg13
g49
sg14
g10
sg16
S'2011'
p659
sg18
S'16'
p660
sg20
S'5.3'
p661
sg22
S'12/24'
p662
sg24
g10
sg26
S'Ryan Mathews'
p663
sg28
S'11'
p664
sg30
S'L10-38'
p665
sg32
S'16'
p666
sg34
g113
sg36
S'@DET'
p667
sg38
g208
sg40
S'58'
p668
sg42
S'11'
p669
ssg49
(dp670
g5
S'24.3'
p671
sg7
S'--'
p672
sg9
g49
sg11
S'--'
p673
sg13
g49
sg14
g10
sg16
S'2011'
p674
sg18
g49
sg20
S'3.8'
p675
sg22
S'09/11'
p676
sg24
g10
sg26
S'Ryan Mathews'
p677
sg28
S'12'
p678
sg30
S'W24-17'
p679
sg32
S'73'
p680
sg34
g113
sg36
S'MIN'
p681
sg38
S'37'
p682
sg40
S'45'
p683
sg42
S'21'
p684
ssg113
(dp685
g5
S'12.8'
p686
sg7
S'--'
p687
sg9
g49
sg11
S'--'
p688
sg13
g49
sg14
g10
sg16
S'2011'
p689
sg18
g113
sg20
S'4.7'
p690
sg22
S'09/25'
p691
sg24
g58
sg26
S'Ryan Mathews'
p692
sg28
S'21'
p693
sg30
S'W20-17'
p694
sg32
S'51'
p695
sg34
g129
sg36
S'KC'
p696
sg38
S'24'
p697
sg40
S'98'
p698
sg42
S'14'
p699
ssg58
(dp700
g5
S'8.9'
p701
sg7
S'--'
p702
sg9
g49
sg11
S'--'
p703
sg13
g49
sg14
g10
sg16
S'2011'
p704
sg18
g58
sg20
S'5.3'
p705
sg22
S'09/18'
p706
sg24
g49
sg26
S'Ryan Mathews'
p707
sg28
S'12'
p708
sg30
S'L21-35'
p709
sg32
S'62'
p710
sg34
g55
sg36
S'@NE'
p711
sg38
S'14'
p712
sg40
S'64'
p713
sg42
S'14'
p714
ssg160
(dp715
g5
S'7.0'
p716
sg7
S'--'
p717
sg9
g49
sg11
S'--'
p718
sg13
g49
sg14
g10
sg16
S'2011'
p719
sg18
g160
sg20
S'5.2'
p720
sg22
S'10/09'
p721
sg24
g10
sg26
S'Ryan Mathews'
p722
sg28
S'24'
p723
sg30
S'W29-24'
p724
sg32
g55
sg34
g49
sg36
S'@DEN'
p725
sg38
g55
sg40
S'125'
p726
sg42
S'36'
p727
ssg129
(dp728
g5
S'13.6'
p729
sg7
g49
sg9
g49
sg11
g10
sg13
g49
sg14
g10
sg16
S'2011'
p730
sg18
g129
sg20
S'5.1'
p731
sg22
S'10/02'
p732
sg24
g10
sg26
S'Ryan Mathews'
p733
sg28
S'16'
p734
sg30
S'W26-16'
p735
sg32
S'68'
p736
sg34
g160
sg36
S'MIA'
p737
sg38
S'42'
p738
sg40
S'81'
p739
sg42
S'20'
p740
ssg55
(dp741
g5
S'6.5'
p742
sg7
S'--'
p743
sg9
g49
sg11
S'--'
p744
sg13
g49
sg14
g10
sg16
S'2011'
p745
sg18
g55
sg20
S'3.0'
p746
sg22
S'10/23'
p747
sg24
g10
sg26
S'Ryan Mathews'
p748
sg28
S'13'
p749
sg30
S'L21-27'
p750
sg32
S'26'
p751
sg34
g129
sg36
S'@NYJ'
p752
sg38
g132
sg40
S'39'
p753
sg42
g132
ssg236
(dp754
g5
g269
sg7
g269
sg9
g269
sg11
g269
sg13
g269
sg14
g269
sg16
S'2011'
p755
sg18
g236
sg20
g269
sg22
S'Bye'
p756
sg24
g269
sg26
S'Ryan Mathews'
p757
sg28
g269
sg30
g269
sg32
g269
sg34
g269
sg36
g269
sg38
g269
sg40
g269
sg42
g269
ssg132
(dp758
g5
S'--'
p759
sg7
S'--'
p760
sg9
g10
sg11
S'--'
p761
sg13
g10
sg14
S'--'
p762
sg16
S'2011'
p763
sg18
g132
sg20
S'--'
p764
sg22
S'11/06'
p765
sg24
S'--'
p766
sg26
S'Ryan Mathews'
p767
sg28
S'--'
p768
sg30
S'L38-45'
p769
sg32
S'--'
p770
sg34
S'--'
p771
sg36
S'GB'
p772
sg38
S'--'
p773
sg40
S'--'
p774
sg42
S'--'
p775
ssg208
(dp776
g5
S'9.2'
p777
sg7
g49
sg9
g49
sg11
g49
sg13
g49
sg14
g10
sg16
S'2011'
p778
sg18
g208
sg20
S'4.4'
p779
sg22
S'10/31'
p780
sg24
g10
sg26
S'Ryan Mathews'
p781
sg28
S'13'
p782
sg30
S'L20-23'
p783
sg32
S'55'
p784
sg34
g236
sg36
S'@KC'
p785
sg38
S'14'
p786
sg40
S'57'
p787
sg42
S'18'
p788
sssS'2010'
p789
(dp790
g3
(dp791
g5
S'--'
p792
sg7
S'--'
p793
sg9
g10
sg11
S'--'
p794
sg13
g10
sg14
S'--'
p795
sg16
S'2010'
p796
sg18
S'11'
p797
sg20
S'--'
p798
sg22
S'11/22'
p799
sg24
S'--'
p800
sg26
S'Ryan Mathews'
p801
sg28
S'--'
p802
sg30
S'W35-14'
p803
sg32
S'--'
p804
sg34
S'--'
p805
sg36
S'DEN'
p806
sg38
S'--'
p807
sg40
S'--'
p808
sg42
S'--'
p809
ssg44
(dp810
g5
g269
sg7
g269
sg9
g269
sg11
g269
sg13
g269
sg14
g269
sg16
S'2010'
p811
sg18
S'10'
p812
sg20
g269
sg22
S'Bye'
p813
sg24
g269
sg26
S'Ryan Mathews'
p814
sg28
g269
sg30
g269
sg32
g269
sg34
g269
sg36
g269
sg38
g269
sg40
g269
sg42
g269
ssg63
(dp815
g5
S'--'
p816
sg7
S'--'
p817
sg9
g10
sg11
S'--'
p818
sg13
g10
sg14
S'--'
p819
sg16
S'2010'
p820
sg18
S'13'
p821
sg20
S'--'
p822
sg22
S'12/05'
p823
sg24
S'--'
p824
sg26
S'Ryan Mathews'
p825
sg28
S'--'
p826
sg30
S'L13-28'
p827
sg32
S'--'
p828
sg34
S'--'
p829
sg36
S'OAK'
p830
sg38
S'--'
p831
sg40
S'--'
p832
sg42
S'--'
p833
ssg83
(dp834
g5
S'--'
p835
sg7
S'--'
p836
sg9
g10
sg11
S'--'
p837
sg13
g10
sg14
S'--'
p838
sg16
S'2010'
p839
sg18
S'12'
p840
sg20
S'--'
p841
sg22
S'11/28'
p842
sg24
S'--'
p843
sg26
S'Ryan Mathews'
p844
sg28
S'--'
p845
sg30
S'W36-14'
p846
sg32
S'--'
p847
sg34
S'--'
p848
sg36
S'@IND'
p849
sg38
S'--'
p850
sg40
S'--'
p851
sg42
S'--'
p852
ssg103
(dp853
g5
S'--'
p854
sg7
S'--'
p855
sg9
g49
sg11
S'--'
p856
sg13
g49
sg14
S'--'
p857
sg16
S'2010'
p858
sg18
S'15'
p859
sg20
S'3.3'
p860
sg22
S'12/16'
p861
sg24
g10
sg26
S'Ryan Mathews'
p862
sg28
S'17'
p863
sg30
S'W34-7'
p864
sg32
S'--'
p865
sg34
S'--'
p866
sg36
S'SF'
p867
sg38
S'--'
p868
sg40
S'56'
p869
sg42
S'14'
p870
ssg117
(dp871
g5
S'6.0'
p872
sg7
S'--'
p873
sg9
g49
sg11
S'--'
p874
sg13
g49
sg14
g10
sg16
S'2010'
p875
sg18
S'14'
p876
sg20
S'4.1'
p877
sg22
S'12/12'
p878
sg24
g49
sg26
S'Ryan Mathews'
p879
sg28
S'16'
p880
sg30
S'W31-0'
p881
sg32
g236
sg34
g49
sg36
S'KC'
p882
sg38
g236
sg40
S'65'
p883
sg42
S'15T'
p884
ssg133
(dp885
g5
S'6.3'
p886
sg7
g58
sg9
g49
sg11
g10
sg13
g49
sg14
g10
sg16
S'2010'
p887
sg18
S'17'
p888
sg20
S'4.6'
p889
sg22
S'01/02'
p890
sg24
g113
sg26
S'Ryan Mathews'
p891
sg28
S'26'
p892
sg30
S'W33-28'
p893
sg32
S'19'
p894
sg34
g113
sg36
S'@DEN'
p895
sg38
S'16'
p896
sg40
S'120'
p897
sg42
S'31T'
p898
ssg146
(dp899
g5
S'9.3'
p900
sg7
S'--'
p901
sg9
g10
sg11
S'--'
p902
sg13
g49
sg14
g10
sg16
S'2010'
p903
sg18
S'16'
p904
sg20
S'4.6'
p905
sg22
S'12/26'
p906
sg24
g49
sg26
S'Ryan Mathews'
p907
sg28
S'12'
p908
sg30
S'L20-34'
p909
sg32
S'28'
p910
sg34
g113
sg36
S'@CIN'
p911
sg38
S'16'
p912
sg40
S'55'
p913
sg42
S'23T'
p914
ssg49
(dp915
g5
S'2.0'
p916
sg7
g49
sg9
g49
sg11
g49
sg13
g49
sg14
g10
sg16
S'2010'
p917
sg18
g49
sg20
S'3.9'
p918
sg22
S'09/13'
p919
sg24
g10
sg26
S'Ryan Mathews'
p920
sg28
S'20'
p921
sg30
S'L14-21'
p922
sg32
g58
sg34
g49
sg36
S'@KC'
p923
sg38
g58
sg40
S'78'
p924
sg42
S'15'
p925
ssg113
(dp926
g5
S'--'
p927
sg7
S'--'
p928
sg9
g10
sg11
S'--'
p929
sg13
g10
sg14
S'--'
p930
sg16
S'2010'
p931
sg18
g113
sg20
S'--'
p932
sg22
S'09/26'
p933
sg24
S'--'
p934
sg26
S'Ryan Mathews'
p935
sg28
S'--'
p936
sg30
S'L20-27'
p937
sg32
S'--'
p938
sg34
S'--'
p939
sg36
S'@SEA'
p940
sg38
S'--'
p941
sg40
S'--'
p942
sg42
S'--'
p943
ssg58
(dp944
g5
S'14.5'
p945
sg7
g49
sg9
g49
sg11
g49
sg13
g49
sg14
g10
sg16
S'2010'
p946
sg18
g58
sg20
S'5.2'
p947
sg22
S'09/19'
p948
sg24
g10
sg26
S'Ryan Mathews'
p949
sg28
g160
sg30
S'W38-13'
p950
sg32
S'29'
p951
sg34
g58
sg36
S'JAC'
p952
sg38
S'17'
p953
sg40
S'26'
p954
sg42
S'15'
p955
ssg160
(dp956
g5
S'0.0'
p957
sg7
S'--'
p958
sg9
g10
sg11
S'--'
p959
sg13
g49
sg14
g10
sg16
S'2010'
p960
sg18
g160
sg20
S'6.6'
p961
sg22
S'10/10'
p962
sg24
g10
sg26
S'Ryan Mathews'
p963
sg28
g132
sg30
S'L27-35'
p964
sg32
g10
sg34
g49
sg36
S'@OAK'
p965
sg38
g10
sg40
S'59'
p966
sg42
S'17'
p967
ssg129
(dp968
g5
S'13.0'
p969
sg7
S'--'
p970
sg9
g10
sg11
S'--'
p971
sg13
g49
sg14
g10
sg16
S'2010'
p972
sg18
g129
sg20
S'6.1'
p973
sg22
S'10/03'
p974
sg24
g49
sg26
S'Ryan Mathews'
p975
sg28
g132
sg30
S'W41-10'
p976
sg32
S'13'
p977
sg34
g49
sg36
S'ARI'
p978
sg38
S'13'
p979
sg40
S'55'
p980
sg42
S'20'
p981
ssg55
(dp982
g5
S'3.5'
p983
sg7
S'--'
p984
sg9
g49
sg11
S'--'
p985
sg13
g49
sg14
g10
sg16
S'2010'
p986
sg18
g55
sg20
S'1.9'
p987
sg22
S'10/24'
p988
sg24
g10
sg26
S'Ryan Mathews'
p989
sg28
g208
sg30
S'L20-23'
p990
sg32
g55
sg34
g58
sg36
S'NE'
p991
sg38
g129
sg40
S'15'
p992
sg42
g160
ssg236
(dp993
g5
S'4.0'
p994
sg7
S'--'
p995
sg9
g49
sg11
S'--'
p996
sg13
g49
sg14
g10
sg16
S'2010'
p997
sg18
g236
sg20
S'5.3'
p998
sg22
S'10/17'
p999
sg24
g10
sg26
S'Ryan Mathews'
p1000
sg28
S'12'
p1001
sg30
S'L17-20'
p1002
sg32
S'12'
p1003
sg34
g113
sg36
S'@STL'
p1004
sg38
S'11'
p1005
sg40
S'64'
p1006
sg42
S'19'
p1007
ssg132
(dp1008
g5
S'9.0'
p1009
sg7
g49
sg9
g49
sg11
g49
sg13
g49
sg14
g10
sg16
S'2010'
p1010
sg18
g132
sg20
S'4.7'
p1011
sg22
S'11/07'
p1012
sg24
g10
sg26
S'Ryan Mathews'
p1013
sg28
g132
sg30
S'W29-23'
p1014
sg32
S'18'
p1015
sg34
g58
sg36
S'@HOU'
p1016
sg38
S'13'
p1017
sg40
S'42'
p1018
sg42
S'11'
p1019
ssg208
(dp1020
g5
S'3.7'
p1021
sg7
S'--'
p1022
sg9
g49
sg11
S'--'
p1023
sg13
g49
sg14
g10
sg16
S'2010'
p1024
sg18
g208
sg20
S'2.9'
p1025
sg22
S'10/31'
p1026
sg24
g49
sg26
S'Ryan Mathews'
p1027
sg28
S'15'
p1028
sg30
S'W33-25'
p1029
sg32
S'11'
p1030
sg34
g113
sg36
S'TEN'
p1031
sg38
S'13'
p1032
sg40
S'43'
p1033
sg42
g132
sssS'2013'
p1034
(dp1035
g3
(dp1036
g5
S'8.0'
p1037
sg7
S'--'
p1038
sg9
g49
sg11
S'--'
p1039
sg13
g49
sg14
g10
sg16
S'2013'
p1040
sg18
S'11'
p1041
sg20
S'6.7'
p1042
sg22
S'11/17'
p1043
sg24
g10
sg26
S'Ryan Mathews'
p1044
sg28
S'19'
p1045
sg30
S'L16-20'
p1046
sg32
S'16'
p1047
sg34
g58
sg36
S'@MIA'
p1048
sg38
S'11'
p1049
sg40
S'127'
p1050
sg42
S'51'
p1051
ssg44
(dp1052
g5
S'2.0'
p1053
sg7
S'--'
p1054
sg9
g49
sg11
S'--'
p1055
sg13
g49
sg14
g10
sg16
S'2013'
p1056
sg18
S'10'
p1057
sg20
S'4.2'
p1058
sg22
S'11/10'
p1059
sg24
g49
sg26
S'Ryan Mathews'
p1060
sg28
S'14'
p1061
sg30
S'L20-28'
p1062
sg32
g58
sg34
g49
sg36
S'DEN'
p1063
sg38
g58
sg40
S'59'
p1064
sg42
S'35'
p1065
ssg63
(dp1066
g5
S'6.2'
p1067
sg7
S'--'
p1068
sg9
g49
sg11
S'--'
p1069
sg13
g49
sg14
g10
sg16
S'2013'
p1070
sg18
S'13'
p1071
sg20
S'4.4'
p1072
sg22
S'12/01'
p1073
sg24
g10
sg26
S'Ryan Mathews'
p1074
sg28
S'14'
p1075
sg30
S'L10-17'
p1076
sg32
S'31'
p1077
sg34
g160
sg36
S'CIN'
p1078
sg38
S'17'
p1079
sg40
S'61'
p1080
sg42
S'13'
p1081
ssg83
(dp1082
g5
S'5.0'
p1083
sg7
g49
sg9
g49
sg11
g10
sg13
g49
sg14
g10
sg16
S'2013'
p1084
sg18
S'12'
p1085
sg20
S'3.9'
p1086
sg22
S'11/24'
p1087
sg24
g49
sg26
S'Ryan Mathews'
p1088
sg28
S'14'
p1089
sg30
S'W41-38'
p1090
sg32
S'10'
p1091
sg34
g58
sg36
S'@KC'
p1092
sg38
g132
sg40
S'55'
p1093
sg42
S'13'
p1094
ssg103
(dp1095
g5
S'1.0'
p1096
sg7
S'--'
p1097
sg9
g49
sg11
S'--'
p1098
sg13
g49
sg14
g10
sg16
S'2013'
p1099
sg18
S'15'
p1100
sg20
S'4.4'
p1101
sg22
S'12/12'
p1102
sg24
g49
sg26
S'Ryan Mathews'
p1103
sg28
S'29'
p1104
sg30
S'W27-20'
p1105
sg32
g49
sg34
g49
sg36
S'@DEN'
p1106
sg38
g49
sg40
S'127'
p1107
sg42
S'23T'
p1108
ssg117
(dp1109
g5
S'10.7'
p1110
sg7
S'--'
p1111
sg9
g49
sg11
S'--'
p1112
sg13
g49
sg14
g10
sg16
S'2013'
p1113
sg18
S'14'
p1114
sg20
S'3.6'
p1115
sg22
S'12/08'
p1116
sg24
g49
sg26
S'Ryan Mathews'
p1117
sg28
S'29'
p1118
sg30
S'W37-14'
p1119
sg32
S'32'
p1120
sg34
g113
sg36
S'NYG'
p1121
sg38
S'12'
p1122
sg40
S'103'
p1123
sg42
S'16'
p1124
ssg133
(dp1125
g5
S'5.5'
p1126
sg7
S'--'
p1127
sg9
g49
sg11
S'--'
p1128
sg13
g49
sg14
g10
sg16
S'2013'
p1129
sg18
S'17'
p1130
sg20
S'6.0'
p1131
sg22
S'12/29'
p1132
sg24
g10
sg26
S'Ryan Mathews'
p1133
sg28
S'24'
p1134
sg30
S'W27-24'
p1135
sg32
S'11'
p1136
sg34
g58
sg36
S'KC'
p1137
sg38
g236
sg40
S'144'
p1138
sg42
S'44'
p1139
ssg146
(dp1140
g5
S'6.7'
p1141
sg7
S'--'
p1142
sg9
g49
sg11
S'--'
p1143
sg13
g49
sg14
g10
sg16
S'2013'
p1144
sg18
S'16'
p1145
sg20
S'4.0'
p1146
sg22
S'12/22'
p1147
sg24
g49
sg26
S'Ryan Mathews'
p1148
sg28
S'25'
p1149
sg30
S'W26-13'
p1150
sg32
S'20'
p1151
sg34
g113
sg36
S'OAK'
p1152
sg38
g132
sg40
S'99'
p1153
sg42
S'34'
p1154
ssg49
(dp1155
g5
S'11.0'
p1156
sg7
S'--'
p1157
sg9
g49
sg11
S'--'
p1158
sg13
g49
sg14
g49
sg16
S'2013'
p1159
sg18
g49
sg20
S'2.5'
p1160
sg22
S'09/09'
p1161
sg24
g10
sg26
S'Ryan Mathews'
p1162
sg28
S'13'
p1163
sg30
S'L28-31'
p1164
sg32
S'22'
p1165
sg34
g58
sg36
S'HOU'
p1166
sg38
S'14T'
p1167
sg40
S'33'
p1168
sg42
g208
ssg113
(dp1169
g5
S'--'
p1170
sg7
S'--'
p1171
sg9
g10
sg11
S'--'
p1172
sg13
g49
sg14
S'--'
p1173
sg16
S'2013'
p1174
sg18
g113
sg20
S'3.6'
p1175
sg22
S'09/22'
p1176
sg24
g10
sg26
S'Ryan Mathews'
p1177
sg28
S'16'
p1178
sg30
S'L17-20'
p1179
sg32
S'--'
p1180
sg34
S'--'
p1181
sg36
S'@TEN'
p1182
sg38
S'--'
p1183
sg40
S'58'
p1184
sg42
g208
ssg58
(dp1185
g5
S'3.0'
p1186
sg7
g49
sg9
g49
sg11
g49
sg13
g49
sg14
g10
sg16
S'2013'
p1187
sg18
g58
sg20
S'4.6'
p1188
sg22
S'09/15'
p1189
sg24
g10
sg26
S'Ryan Mathews'
p1190
sg28
S'16'
p1191
sg30
S'W33-30'
p1192
sg32
g113
sg34
g49
sg36
S'@PHI'
p1193
sg38
g113
sg40
S'73'
p1194
sg42
S'20'
p1195
ssg160
(dp1196
g5
S'--'
p1197
sg7
S'--'
p1198
sg9
g10
sg11
S'--'
p1199
sg13
g49
sg14
S'--'
p1200
sg16
S'2013'
p1201
sg18
g160
sg20
S'2.7'
p1202
sg22
S'10/06'
p1203
sg24
g10
sg26
S'Ryan Mathews'
p1204
sg28
g113
sg30
S'L17-27'
p1205
sg32
S'--'
p1206
sg34
S'--'
p1207
sg36
S'@OAK'
p1208
sg38
S'--'
p1209
sg40
g208
sg42
g160
ssg129
(dp1210
g5
S'10.3'
p1211
sg7
S'--'
p1212
sg9
g49
sg11
S'--'
p1213
sg13
g49
sg14
g10
sg16
S'2013'
p1214
sg18
g129
sg20
S'3.3'
p1215
sg22
S'09/29'
p1216
sg24
g10
sg26
S'Ryan Mathews'
p1217
sg28
S'19'
p1218
sg30
S'W30-21'
p1219
sg32
S'41'
p1220
sg34
g129
sg36
S'DAL'
p1221
sg38
S'14'
p1222
sg40
S'62'
p1223
sg42
g55
ssg55
(dp1224
g5
S'--'
p1225
sg7
S'--'
p1226
sg9
g49
sg11
S'--'
p1227
sg13
g49
sg14
S'--'
p1228
sg16
S'2013'
p1229
sg18
g55
sg20
S'5.2'
p1230
sg22
S'10/20'
p1231
sg24
g49
sg26
S'Ryan Mathews'
p1232
sg28
S'21'
p1233
sg30
S'W24-6'
p1234
sg32
S'--'
p1235
sg34
S'--'
p1236
sg36
S'@JAC'
p1237
sg38
S'--'
p1238
sg40
S'110'
p1239
sg42
S'14'
p1240
ssg236
(dp1241
g5
S'--'
p1242
sg7
S'--'
p1243
sg9
g49
sg11
S'--'
p1244
sg13
g49
sg14
g10
sg16
S'2013'
p1245
sg18
g236
sg20
S'4.6'
p1246
sg22
S'10/14'
p1247
sg24
g10
sg26
S'Ryan Mathews'
p1248
sg28
S'22'
p1249
sg30
S'W19-9'
p1250
sg32
g10
sg34
g10
sg36
S'IND'
p1251
sg38
S'--'
p1252
sg40
S'102'
p1253
sg42
S'15'
p1254
ssg132
(dp1255
g5
S'--'
p1256
sg7
S'--'
p1257
sg9
g49
sg11
S'--'
p1258
sg13
g49
sg14
S'--'
p1259
sg16
S'2013'
p1260
sg18
g132
sg20
S'4.9'
p1261
sg22
S'11/03'
p1262
sg24
g10
sg26
S'Ryan Mathews'
p1263
sg28
g55
sg30
S'L24-30'
p1264
sg32
S'--'
p1265
sg34
S'--'
p1266
sg36
S'@WAS'
p1267
sg38
S'--'
p1268
sg40
S'34'
p1269
sg42
S'11'
p1270
ssg208
(dp1271
g5
g269
sg7
g269
sg9
g269
sg11
g269
sg13
g269
sg14
g269
sg16
S'2013'
p1272
sg18
g208
sg20
g269
sg22
S'Bye'
p1273
sg24
g269
sg26
S'Ryan Mathews'
p1274
sg28
g269
sg30
g269
sg32
g269
sg34
g269
sg36
g269
sg38
g269
sg40
g269
sg42
g269
sssS'2012'
p1275
(dp1276
g3
(dp1277
g5
S'9.0'
p1278
sg7
S'--'
p1279
sg9
g10
sg11
S'--'
p1280
sg13
g49
sg14
g10
sg16
S'2012'
p1281
sg18
S'11'
p1282
sg20
S'3.1'
p1283
sg22
S'11/18'
p1284
sg24
g10
sg26
S'Ryan Mathews'
p1285
sg28
S'15'
p1286
sg30
S'L23-30'
p1287
sg32
S'36'
p1288
sg34
g129
sg36
S'@DEN'
p1289
sg38
S'24'
p1290
sg40
S'47'
p1291
sg42
S'11'
p1292
ssg44
(dp1293
g5
S'4.4'
p1294
sg7
S'--'
p1295
sg9
g49
sg11
S'--'
p1296
sg13
g49
sg14
g10
sg16
S'2012'
p1297
sg18
S'10'
p1298
sg20
S'3.2'
p1299
sg22
S'11/11'
p1300
sg24
g10
sg26
S'Ryan Mathews'
p1301
sg28
S'17'
p1302
sg30
S'L24-34'
p1303
sg32
S'22'
p1304
sg34
g160
sg36
S'@TB'
p1305
sg38
g208
sg40
S'54'
p1306
sg42
S'10'
p1307
ssg63
(dp1308
g5
S'8.3'
p1309
sg7
S'--'
p1310
sg9
g49
sg11
S'--'
p1311
sg13
g49
sg14
g10
sg16
S'2012'
p1312
sg18
S'13'
p1313
sg20
S'2.9'
p1314
sg22
S'12/02'
p1315
sg24
g10
sg26
S'Ryan Mathews'
p1316
sg28
g132
sg30
S'L13-20'
p1317
sg32
S'25'
p1318
sg34
g113
sg36
S'CIN'
p1319
sg38
S'10'
p1320
sg40
S'26'
p1321
sg42
g236
ssg83
(dp1322
g5
S'5.3'
p1323
sg7
S'--'
p1324
sg9
g49
sg11
S'--'
p1325
sg13
g49
sg14
g10
sg16
S'2012'
p1326
sg18
S'12'
p1327
sg20
S'3.8'
p1328
sg22
S'11/25'
p1329
sg24
g10
sg26
S'Ryan Mathews'
p1330
sg28
S'19'
p1331
sg30
S'L13-16'
p1332
sg32
S'16'
p1333
sg34
g113
sg36
S'BAL'
p1334
sg38
g132
sg40
S'72'
p1335
sg42
S'10'
p1336
ssg103
(dp1337
g5
S'2.7'
p1338
sg7
S'--'
p1339
sg9
g49
sg11
S'--'
p1340
sg13
g49
sg14
g10
sg16
S'2012'
p1341
sg18
S'15'
p1342
sg20
S'5.5'
p1343
sg22
S'12/16'
p1344
sg24
g10
sg26
S'Ryan Mathews'
p1345
sg28
g129
sg30
S'L7-31'
p1346
sg32
g208
sg34
g113
sg36
S'CAR'
p1347
sg38
g132
sg40
S'22'
p1348
sg42
g132
ssg117
(dp1349
g5
S'--'
p1350
sg7
S'--'
p1351
sg9
g49
sg11
S'--'
p1352
sg13
g49
sg14
g10
sg16
S'2012'
p1353
sg18
S'14'
p1354
sg20
S'2.6'
p1355
sg22
S'12/09'
p1356
sg24
g10
sg26
S'Ryan Mathews'
p1357
sg28
S'25'
p1358
sg30
S'W34-24'
p1359
sg32
g10
sg34
g10
sg36
S'@PIT'
p1360
sg38
S'--'
p1361
sg40
S'65'
p1362
sg42
g132
ssg49
(dp1363
g5
S'--'
p1364
sg7
S'--'
p1365
sg9
g10
sg11
S'--'
p1366
sg13
g10
sg14
S'--'
p1367
sg16
S'2012'
p1368
sg18
g49
sg20
S'--'
p1369
sg22
S'09/10'
p1370
sg24
S'--'
p1371
sg26
S'Ryan Mathews'
p1372
sg28
S'--'
p1373
sg30
S'W22-14'
p1374
sg32
S'--'
p1375
sg34
S'--'
p1376
sg36
S'@OAK'
p1377
sg38
S'--'
p1378
sg40
S'--'
p1379
sg42
S'--'
p1380
ssg113
(dp1381
g5
S'6.4'
p1382
sg7
g49
sg9
g49
sg11
g49
sg13
g49
sg14
g10
sg16
S'2012'
p1383
sg18
g113
sg20
S'4.4'
p1384
sg22
S'09/23'
p1385
sg24
g10
sg26
S'Ryan Mathews'
p1386
sg28
S'10'
p1387
sg30
S'L3-27'
p1388
sg32
S'32'
p1389
sg34
g160
sg36
S'ATL'
p1390
sg38
S'11'
p1391
sg40
S'44'
p1392
sg42
g55
ssg58
(dp1393
g5
S'--'
p1394
sg7
S'--'
p1395
sg9
g10
sg11
S'--'
p1396
sg13
g10
sg14
S'--'
p1397
sg16
S'2012'
p1398
sg18
g58
sg20
S'--'
p1399
sg22
S'09/16'
p1400
sg24
S'--'
p1401
sg26
S'Ryan Mathews'
p1402
sg28
S'--'
p1403
sg30
S'W38-10'
p1404
sg32
S'--'
p1405
sg34
S'--'
p1406
sg36
S'TEN'
p1407
sg38
S'--'
p1408
sg40
S'--'
p1409
sg42
S'--'
p1410
ssg160
(dp1411
g5
S'9.8'
p1412
sg7
S'--'
p1413
sg9
g10
sg11
S'--'
p1414
sg13
g49
sg14
g10
sg16
S'2012'
p1415
sg18
g160
sg20
S'6.7'
p1416
sg22
S'10/07'
p1417
sg24
g49
sg26
S'Ryan Mathews'
p1418
sg28
S'12'
p1419
sg30
S'L24-31'
p1420
sg32
S'59'
p1421
sg34
g236
sg36
S'@NO'
p1422
sg38
S'14'
p1423
sg40
S'80'
p1424
sg42
S'18'
p1425
ssg129
(dp1426
g5
S'10.5'
p1427
sg7
S'--'
p1428
sg9
g10
sg11
S'--'
p1429
sg13
g49
sg14
g10
sg16
S'2012'
p1430
sg18
g129
sg20
S'4.4'
p1431
sg22
S'09/30'
p1432
sg24
g10
sg26
S'Ryan Mathews'
p1433
sg28
S'14'
p1434
sg30
S'W37-20'
p1435
sg32
S'21'
p1436
sg34
g58
sg36
S'@KC'
p1437
sg38
S'13'
p1438
sg40
S'61'
p1439
sg42
S'14'
p1440
ssg55
(dp1441
g5
g269
sg7
g269
sg9
g269
sg11
g269
sg13
g269
sg14
g269
sg16
S'2012'
p1442
sg18
g55
sg20
g269
sg22
S'Bye'
p1443
sg24
g269
sg26
S'Ryan Mathews'
p1444
sg28
g269
sg30
g269
sg32
g269
sg34
g269
sg36
g269
sg38
g269
sg40
g269
sg42
g269
ssg236
(dp1445
g5
S'4.8'
p1446
sg7
S'--'
p1447
sg9
g49
sg11
S'--'
p1448
sg13
g49
sg14
g10
sg16
S'2012'
p1449
sg18
g236
sg20
S'3.4'
p1450
sg22
S'10/15'
p1451
sg24
g10
sg26
S'Ryan Mathews'
p1452
sg28
S'22'
p1453
sg30
S'L24-35'
p1454
sg32
S'19'
p1455
sg34
g129
sg36
S'DEN'
p1456
sg38
g132
sg40
S'74'
p1457
sg42
S'13'
p1458
ssg132
(dp1459
g5
S'2.5'
p1460
sg7
S'--'
p1461
sg9
g49
sg11
S'--'
p1462
sg13
g49
sg14
g10
sg16
S'2012'
p1463
sg18
g132
sg20
S'5.2'
p1464
sg22
S'11/01'
p1465
sg24
g10
sg26
S'Ryan Mathews'
p1466
sg28
S'13'
p1467
sg30
S'W31-13'
p1468
sg32
g160
sg34
g58
sg36
S'KC'
p1469
sg38
g236
sg40
S'67'
p1470
sg42
S'31'
p1471
ssg208
(dp1472
g5
S'4.5'
p1473
sg7
g49
sg9
g49
sg11
g49
sg13
g49
sg14
g10
sg16
S'2012'
p1474
sg18
g208
sg20
S'4.0'
p1475
sg22
S'10/28'
p1476
sg24
g10
sg26
S'Ryan Mathews'
p1477
sg28
S'24'
p1478
sg30
S'L6-7'
p1479
sg32
g132
sg34
g58
sg36
S'@CLE'
p1480
sg38
g236
sg40
S'95'
p1481
sg42
S'11'
p1482
sss.