(dp0
S'2014'
p1
(dp2
S'11'
p3
(dp4
S'RecAvg'
p5
S'--'
p6
sS'FUM'
p7
S'--'
p8
sS'GS'
p9
S'0'
p10
sS'Lost'
p11
S'--'
p12
sS'G'
p13
S'1'
p14
sS'RecTD'
p15
S'--'
p16
sS'Year'
p17
S'2014'
p18
sS'WK'
p19
S'11'
p20
sS'RushAvg'
p21
S'--'
p22
sS'Game Date'
p23
S'11/16'
p24
sS'RushTD'
p25
S'--'
p26
sS'Player'
p27
S'Senorise Perry'
p28
sS'RushAtt'
p29
S'--'
p30
sS'Result'
p31
S'W21-13'
p32
sS'RecYds'
p33
S'--'
p34
sS'Rec'
p35
S'--'
p36
sS'Opp'
p37
S'MIN'
p38
sS'RecLng'
p39
S'--'
p40
sS'RushYds'
p41
S'--'
p42
sS'RushLng'
p43
S'--'
p44
ssS'10'
p45
(dp46
g5
S'--'
p47
sg7
S'--'
p48
sg9
g10
sg11
S'--'
p49
sg13
g14
sg15
S'--'
p50
sg17
S'2014'
p51
sg19
S'10'
p52
sg21
S'--'
p53
sg23
S'11/09'
p54
sg25
S'--'
p55
sg27
S'Senorise Perry'
p56
sg29
S'--'
p57
sg31
S'L14-55'
p58
sg33
S'--'
p59
sg35
S'--'
p60
sg37
S'@GB'
p61
sg39
S'--'
p62
sg41
S'--'
p63
sg43
S'--'
p64
ssS'13'
p65
(dp66
g5
S'-1.0'
p67
sg7
S'--'
p68
sg9
g10
sg11
S'--'
p69
sg13
g14
sg15
g10
sg17
S'2014'
p70
sg19
S'13'
p71
sg21
S'--'
p72
sg23
S'11/27'
p73
sg25
S'--'
p74
sg27
S'Senorise Perry'
p75
sg29
S'--'
p76
sg31
S'L17-34'
p77
sg33
S'-1'
p78
sg35
g14
sg37
S'@DET'
p79
sg39
S'-1'
p80
sg41
S'--'
p81
sg43
S'--'
p82
ssS'12'
p83
(dp84
g5
S'--'
p85
sg7
S'--'
p86
sg9
g10
sg11
S'--'
p87
sg13
g14
sg15
S'--'
p88
sg17
S'2014'
p89
sg19
S'12'
p90
sg21
S'--'
p91
sg23
S'11/23'
p92
sg25
S'--'
p93
sg27
S'Senorise Perry'
p94
sg29
S'--'
p95
sg31
S'W21-13'
p96
sg33
S'--'
p97
sg35
S'--'
p98
sg37
S'TB'
p99
sg39
S'--'
p100
sg41
S'--'
p101
sg43
S'--'
p102
ssS'15'
p103
(dp104
g5
S'--'
p105
sg7
S'--'
p106
sg9
g10
sg11
S'--'
p107
sg13
g14
sg15
S'--'
p108
sg17
S'2014'
p109
sg19
S'15'
p110
sg21
S'--'
p111
sg23
S'12/15'
p112
sg25
S'--'
p113
sg27
S'Senorise Perry'
p114
sg29
S'--'
p115
sg31
S'L15-31'
p116
sg33
S'--'
p117
sg35
S'--'
p118
sg37
S'NO'
p119
sg39
S'--'
p120
sg41
S'--'
p121
sg43
S'--'
p122
ssS'14'
p123
(dp124
g5
S'--'
p125
sg7
S'--'
p126
sg9
g10
sg11
S'--'
p127
sg13
g14
sg15
S'--'
p128
sg17
S'2014'
p129
sg19
S'14'
p130
sg21
S'--'
p131
sg23
S'12/04'
p132
sg25
S'--'
p133
sg27
S'Senorise Perry'
p134
sg29
S'--'
p135
sg31
S'L28-41'
p136
sg33
S'--'
p137
sg35
S'--'
p138
sg37
S'DAL'
p139
sg39
S'--'
p140
sg41
S'--'
p141
sg43
S'--'
p142
ssS'17'
p143
(dp144
g5
S'--'
p145
sg7
S'--'
p146
sg9
g10
sg11
S'--'
p147
sg13
g14
sg15
S'--'
p148
sg17
S'2014'
p149
sg19
S'17'
p150
sg21
S'--'
p151
sg23
S'12/28'
p152
sg25
S'--'
p153
sg27
S'Senorise Perry'
p154
sg29
S'--'
p155
sg31
S'L9-13'
p156
sg33
S'--'
p157
sg35
S'--'
p158
sg37
S'@MIN'
p159
sg39
S'--'
p160
sg41
S'--'
p161
sg43
S'--'
p162
ssS'16'
p163
(dp164
g5
S'--'
p165
sg7
S'--'
p166
sg9
g10
sg11
S'--'
p167
sg13
g14
sg15
S'--'
p168
sg17
S'2014'
p169
sg19
S'16'
p170
sg21
S'--'
p171
sg23
S'12/21'
p172
sg25
S'--'
p173
sg27
S'Senorise Perry'
p174
sg29
S'--'
p175
sg31
S'L14-20'
p176
sg33
S'--'
p177
sg35
S'--'
p178
sg37
S'DET'
p179
sg39
S'--'
p180
sg41
S'--'
p181
sg43
S'--'
p182
ssg14
(dp183
g5
S'--'
p184
sg7
S'--'
p185
sg9
g10
sg11
S'--'
p186
sg13
g14
sg15
S'--'
p187
sg17
S'2014'
p188
sg19
g14
sg21
S'--'
p189
sg23
S'09/07'
p190
sg25
S'--'
p191
sg27
S'Senorise Perry'
p192
sg29
S'--'
p193
sg31
S'L20-23'
p194
sg33
S'--'
p195
sg35
S'--'
p196
sg37
S'BUF'
p197
sg39
S'--'
p198
sg41
S'--'
p199
sg43
S'--'
p200
ssS'3'
p201
(dp202
g5
S'--'
p203
sg7
S'--'
p204
sg9
g10
sg11
S'--'
p205
sg13
g14
sg15
S'--'
p206
sg17
S'2014'
p207
sg19
g201
sg21
S'--'
p208
sg23
S'09/22'
p209
sg25
S'--'
p210
sg27
S'Senorise Perry'
p211
sg29
S'--'
p212
sg31
S'W27-19'
p213
sg33
S'--'
p214
sg35
S'--'
p215
sg37
S'@NYJ'
p216
sg39
S'--'
p217
sg41
S'--'
p218
sg43
S'--'
p219
ssS'2'
p220
(dp221
g5
S'--'
p222
sg7
S'--'
p223
sg9
g10
sg11
S'--'
p224
sg13
g14
sg15
S'--'
p225
sg17
S'2014'
p226
sg19
g220
sg21
S'--'
p227
sg23
S'09/14'
p228
sg25
S'--'
p229
sg27
S'Senorise Perry'
p230
sg29
S'--'
p231
sg31
S'W28-20'
p232
sg33
S'--'
p233
sg35
S'--'
p234
sg37
S'@SF'
p235
sg39
S'--'
p236
sg41
S'--'
p237
sg43
S'--'
p238
ssS'5'
p239
(dp240
g5
S'--'
p241
sg7
S'--'
p242
sg9
g10
sg11
S'--'
p243
sg13
g14
sg15
S'--'
p244
sg17
S'2014'
p245
sg19
g239
sg21
S'--'
p246
sg23
S'10/05'
p247
sg25
S'--'
p248
sg27
S'Senorise Perry'
p249
sg29
S'--'
p250
sg31
S'L24-31'
p251
sg33
S'--'
p252
sg35
S'--'
p253
sg37
S'@CAR'
p254
sg39
S'--'
p255
sg41
S'--'
p256
sg43
S'--'
p257
ssS'4'
p258
(dp259
g5
S'--'
p260
sg7
S'--'
p261
sg9
g10
sg11
S'--'
p262
sg13
g14
sg15
S'--'
p263
sg17
S'2014'
p264
sg19
g258
sg21
S'--'
p265
sg23
S'09/28'
p266
sg25
S'--'
p267
sg27
S'Senorise Perry'
p268
sg29
S'--'
p269
sg31
S'L17-38'
p270
sg33
S'--'
p271
sg35
S'--'
p272
sg37
S'GB'
p273
sg39
S'--'
p274
sg41
S'--'
p275
sg43
S'--'
p276
ssS'7'
p277
(dp278
g5
S'--'
p279
sg7
S'--'
p280
sg9
g10
sg11
S'--'
p281
sg13
g14
sg15
S'--'
p282
sg17
S'2014'
p283
sg19
g277
sg21
S'--'
p284
sg23
S'10/19'
p285
sg25
S'--'
p286
sg27
S'Senorise Perry'
p287
sg29
S'--'
p288
sg31
S'L14-27'
p289
sg33
S'--'
p290
sg35
S'--'
p291
sg37
S'MIA'
p292
sg39
S'--'
p293
sg41
S'--'
p294
sg43
S'--'
p295
ssS'6'
p296
(dp297
g5
S'--'
p298
sg7
S'--'
p299
sg9
g10
sg11
S'--'
p300
sg13
g14
sg15
S'--'
p301
sg17
S'2014'
p302
sg19
g296
sg21
S'--'
p303
sg23
S'10/12'
p304
sg25
S'--'
p305
sg27
S'Senorise Perry'
p306
sg29
S'--'
p307
sg31
S'W27-13'
p308
sg33
S'--'
p309
sg35
S'--'
p310
sg37
S'@ATL'
p311
sg39
S'--'
p312
sg41
S'--'
p313
sg43
S'--'
p314
ssS'9'
p315
(dp316
g5
S''
p317
sg7
g317
sg9
g317
sg11
g317
sg13
g317
sg15
g317
sg17
S'2014'
p318
sg19
g315
sg21
g317
sg23
S'Bye'
p319
sg25
g317
sg27
S'Senorise Perry'
p320
sg29
g317
sg31
g317
sg33
g317
sg35
g317
sg37
g317
sg39
g317
sg41
g317
sg43
g317
ssS'8'
p321
(dp322
g5
S'--'
p323
sg7
S'--'
p324
sg9
g10
sg11
S'--'
p325
sg13
g14
sg15
S'--'
p326
sg17
S'2014'
p327
sg19
g321
sg21
S'--'
p328
sg23
S'10/26'
p329
sg25
S'--'
p330
sg27
S'Senorise Perry'
p331
sg29
S'--'
p332
sg31
S'L23-51'
p333
sg33
S'--'
p334
sg35
S'--'
p335
sg37
S'@NE'
p336
sg39
S'--'
p337
sg41
S'--'
p338
sg43
S'--'
p339
sss.