(dp0
S'2014'
p1
(dp2
S'11'
p3
(dp4
S'RecAvg'
p5
S'4.5'
p6
sS'FUM'
p7
S'--'
p8
sS'GS'
p9
S'0'
p10
sS'Lost'
p11
S'--'
p12
sS'G'
p13
S'1'
p14
sS'RecTD'
p15
g10
sS'Year'
p16
S'2014'
p17
sS'WK'
p18
S'11'
p19
sS'RushAvg'
p20
S'4.0'
p21
sS'Game Date'
p22
S'11/16'
p23
sS'RushTD'
p24
g10
sS'Player'
p25
S'Silas Redd'
p26
sS'RushAtt'
p27
S'4'
p28
sS'Result'
p29
S'L7-27'
p30
sS'RecYds'
p31
S'9'
p32
sS'Rec'
p33
S'2'
p34
sS'Opp'
p35
S'TB'
p36
sS'RecLng'
p37
S'5'
p38
sS'RushYds'
p39
S'16'
p40
sS'RushLng'
p41
S'14'
p42
ssS'10'
p43
(dp44
g5
S''
p45
sg7
g45
sg9
g45
sg11
g45
sg13
g45
sg15
g45
sg16
S'2014'
p46
sg18
S'10'
p47
sg20
g45
sg22
S'Bye'
p48
sg24
g45
sg25
S'Silas Redd'
p49
sg27
g45
sg29
g45
sg31
g45
sg33
g45
sg35
g45
sg37
g45
sg39
g45
sg41
g45
ssS'13'
p50
(dp51
g5
S'--'
p52
sg7
S'--'
p53
sg9
g10
sg11
S'--'
p54
sg13
g14
sg15
S'--'
p55
sg16
S'2014'
p56
sg18
S'13'
p57
sg20
S'--'
p58
sg22
S'11/30'
p59
sg24
S'--'
p60
sg25
S'Silas Redd'
p61
sg27
S'--'
p62
sg29
S'L27-49'
p63
sg31
S'--'
p64
sg33
S'--'
p65
sg35
S'@IND'
p66
sg37
S'--'
p67
sg39
S'--'
p68
sg41
S'--'
p69
ssS'12'
p70
(dp71
g5
S'--'
p72
sg7
S'--'
p73
sg9
g10
sg11
S'--'
p74
sg13
g14
sg15
S'--'
p75
sg16
S'2014'
p76
sg18
S'12'
p77
sg20
S'--'
p78
sg22
S'11/23'
p79
sg24
S'--'
p80
sg25
S'Silas Redd'
p81
sg27
S'--'
p82
sg29
S'L13-17'
p83
sg31
S'--'
p84
sg33
S'--'
p85
sg35
S'@SF'
p86
sg37
S'--'
p87
sg39
S'--'
p88
sg41
S'--'
p89
ssS'15'
p90
(dp91
g5
S'20.7'
p92
sg7
S'--'
p93
sg9
g10
sg11
S'--'
p94
sg13
g14
sg15
g10
sg16
S'2014'
p95
sg18
S'15'
p96
sg20
S'1.0'
p97
sg22
S'12/14'
p98
sg24
g10
sg25
S'Silas Redd'
p99
sg27
g14
sg29
S'L13-24'
p100
sg31
S'62'
p101
sg33
S'3'
p102
sg35
S'@NYG'
p103
sg37
S'37'
p104
sg39
g14
sg41
g14
ssS'14'
p105
(dp106
g5
S'12.0'
p107
sg7
g14
sg9
g10
sg11
g10
sg13
g14
sg15
g10
sg16
S'2014'
p108
sg18
S'14'
p109
sg20
S'8.0'
p110
sg22
S'12/07'
p111
sg24
g10
sg25
S'Silas Redd'
p112
sg27
g14
sg29
S'L0-24'
p113
sg31
S'36'
p114
sg33
g102
sg35
S'STL'
p115
sg37
S'16'
p116
sg39
S'8'
p117
sg41
g117
ssS'17'
p118
(dp119
g5
S'--'
p120
sg7
S'--'
p121
sg9
g10
sg11
S'--'
p122
sg13
g14
sg15
S'--'
p123
sg16
S'2014'
p124
sg18
S'17'
p125
sg20
S'--'
p126
sg22
S'12/28'
p127
sg24
S'--'
p128
sg25
S'Silas Redd'
p129
sg27
S'--'
p130
sg29
S'L17-44'
p131
sg31
S'--'
p132
sg33
S'--'
p133
sg35
S'DAL'
p134
sg37
S'--'
p135
sg39
S'--'
p136
sg41
S'--'
p137
ssS'16'
p138
(dp139
g5
S'--'
p140
sg7
S'--'
p141
sg9
g10
sg11
S'--'
p142
sg13
g14
sg15
S'--'
p143
sg16
S'2014'
p144
sg18
S'16'
p145
sg20
S'4.0'
p146
sg22
S'12/20'
p147
sg24
g10
sg25
S'Silas Redd'
p148
sg27
g14
sg29
S'W27-24'
p149
sg31
S'--'
p150
sg33
S'--'
p151
sg35
S'PHI'
p152
sg37
S'--'
p153
sg39
g28
sg41
g28
ssg14
(dp154
g5
S'--'
p155
sg7
S'--'
p156
sg9
g10
sg11
S'--'
p157
sg13
g14
sg15
S'--'
p158
sg16
S'2014'
p159
sg18
g14
sg20
S'--'
p160
sg22
S'09/07'
p161
sg24
S'--'
p162
sg25
S'Silas Redd'
p163
sg27
S'--'
p164
sg29
S'L6-17'
p165
sg31
S'--'
p166
sg33
S'--'
p167
sg35
S'@HOU'
p168
sg37
S'--'
p169
sg39
S'--'
p170
sg41
S'--'
p171
ssg102
(dp172
g5
S'--'
p173
sg7
S'--'
p174
sg9
g10
sg11
S'--'
p175
sg13
g14
sg15
S'--'
p176
sg16
S'2014'
p177
sg18
g102
sg20
S'--'
p178
sg22
S'09/21'
p179
sg24
S'--'
p180
sg25
S'Silas Redd'
p181
sg27
S'--'
p182
sg29
S'L34-37'
p183
sg31
S'--'
p184
sg33
S'--'
p185
sg35
S'@PHI'
p186
sg37
S'--'
p187
sg39
S'--'
p188
sg41
S'--'
p189
ssg34
(dp190
g5
S'--'
p191
sg7
S'--'
p192
sg9
g10
sg11
S'--'
p193
sg13
g14
sg15
S'--'
p194
sg16
S'2014'
p195
sg18
g34
sg20
S'5.1'
p196
sg22
S'09/14'
p197
sg24
g14
sg25
S'Silas Redd'
p198
sg27
g117
sg29
S'W41-10'
p199
sg31
S'--'
p200
sg33
S'--'
p201
sg35
S'JAC'
p202
sg37
S'--'
p203
sg39
S'41'
p204
sg41
S'14T'
p205
ssg38
(dp206
g5
S'--'
p207
sg7
S'--'
p208
sg9
g10
sg11
S'--'
p209
sg13
g14
sg15
S'--'
p210
sg16
S'2014'
p211
sg18
g38
sg20
S'--'
p212
sg22
S'10/06'
p213
sg24
S'--'
p214
sg25
S'Silas Redd'
p215
sg27
S'--'
p216
sg29
S'L17-27'
p217
sg31
S'--'
p218
sg33
S'--'
p219
sg35
S'SEA'
p220
sg37
S'--'
p221
sg39
S'--'
p222
sg41
S'--'
p223
ssg28
(dp224
g5
S'--'
p225
sg7
S'--'
p226
sg9
g10
sg11
S'--'
p227
sg13
g14
sg15
S'--'
p228
sg16
S'2014'
p229
sg18
g28
sg20
S'--'
p230
sg22
S'09/25'
p231
sg24
S'--'
p232
sg25
S'Silas Redd'
p233
sg27
S'--'
p234
sg29
S'L14-45'
p235
sg31
S'--'
p236
sg33
S'--'
p237
sg35
S'NYG'
p238
sg37
S'--'
p239
sg39
S'--'
p240
sg41
S'--'
p241
ssS'7'
p242
(dp243
g5
S'--'
p244
sg7
S'--'
p245
sg9
g10
sg11
S'--'
p246
sg13
g14
sg15
S'--'
p247
sg16
S'2014'
p248
sg18
g242
sg20
S'--'
p249
sg22
S'10/19'
p250
sg24
S'--'
p251
sg25
S'Silas Redd'
p252
sg27
S'--'
p253
sg29
S'W19-17'
p254
sg31
S'--'
p255
sg33
S'--'
p256
sg35
S'TEN'
p257
sg37
S'--'
p258
sg39
S'--'
p259
sg41
S'--'
p260
ssS'6'
p261
(dp262
g5
S'--'
p263
sg7
S'--'
p264
sg9
g10
sg11
S'--'
p265
sg13
g14
sg15
S'--'
p266
sg16
S'2014'
p267
sg18
g261
sg20
S'--'
p268
sg22
S'10/12'
p269
sg24
S'--'
p270
sg25
S'Silas Redd'
p271
sg27
S'--'
p272
sg29
S'L20-30'
p273
sg31
S'--'
p274
sg33
S'--'
p275
sg35
S'@ARI'
p276
sg37
S'--'
p277
sg39
S'--'
p278
sg41
S'--'
p279
ssg32
(dp280
g5
S'--'
p281
sg7
S'--'
p282
sg9
g10
sg11
S'--'
p283
sg13
g10
sg15
S'--'
p284
sg16
S'2014'
p285
sg18
g32
sg20
S'--'
p286
sg22
S'11/02'
p287
sg24
S'--'
p288
sg25
S'Silas Redd'
p289
sg27
S'--'
p290
sg29
S'L26-29'
p291
sg31
S'--'
p292
sg33
S'--'
p293
sg35
S'@MIN'
p294
sg37
S'--'
p295
sg39
S'--'
p296
sg41
S'--'
p297
ssg117
(dp298
g5
S'--'
p299
sg7
S'--'
p300
sg9
g10
sg11
S'--'
p301
sg13
g14
sg15
S'--'
p302
sg16
S'2014'
p303
sg18
g117
sg20
S'5.0'
p304
sg22
S'10/27'
p305
sg24
g10
sg25
S'Silas Redd'
p306
sg27
g14
sg29
S'W20-17'
p307
sg31
S'--'
p308
sg33
S'--'
p309
sg35
S'@DAL'
p310
sg37
S'--'
p311
sg39
g38
sg41
g38
sss.