(dp0
S'2015'
p1
(dp2
S'11'
p3
(dp4
S'RecAvg'
p5
S'5.0'
p6
sS'FUM'
p7
S'--'
p8
sS'GS'
p9
S'0'
p10
sS'Lost'
p11
S'--'
p12
sS'G'
p13
S'1'
p14
sS'RecTD'
p15
g10
sS'Year'
p16
S'2015'
p17
sS'WK'
p18
S'11'
p19
sS'RushAvg'
p20
S'8.7'
p21
sS'Game Date'
p22
S'11/22'
p23
sS'RushTD'
p24
S'2'
p25
sS'Player'
p26
S'Spencer Ware'
p27
sS'RushAtt'
p28
S'11'
p29
sS'Result'
p30
S'W33-3'
p31
sS'RecYds'
p32
S'5'
p33
sS'Rec'
p34
g14
sS'Opp'
p35
S'@SD'
p36
sS'RecLng'
p37
g33
sS'RushYds'
p38
S'96'
p39
sS'RushLng'
p40
S'52'
p41
ssS'10'
p42
(dp43
g5
S'--'
p44
sg7
S'--'
p45
sg9
g10
sg11
S'--'
p46
sg13
g14
sg15
S'--'
p47
sg16
S'2015'
p48
sg18
S'10'
p49
sg20
S'2.0'
p50
sg22
S'11/15'
p51
sg24
g10
sg26
S'Spencer Ware'
p52
sg28
g25
sg30
S'W29-13'
p53
sg32
S'--'
p54
sg34
S'--'
p55
sg35
S'@DEN'
p56
sg37
S'--'
p57
sg38
S'4'
p58
sg40
g58
ssS'13'
p59
(dp60
g5
S'-0.5'
p61
sg7
S'--'
p62
sg9
g10
sg11
S'--'
p63
sg13
g14
sg15
g10
sg16
S'2015'
p64
sg18
S'13'
p65
sg20
S'3.7'
p66
sg22
S'12/06'
p67
sg24
g14
sg26
S'Spencer Ware'
p68
sg28
S'7'
p69
sg30
S'W34-20'
p70
sg32
S'-1'
p71
sg34
g25
sg35
S'@OAK'
p72
sg37
S'3'
p73
sg38
S'26'
p74
sg40
S'10T'
p75
ssS'12'
p76
(dp77
g5
S'0.3'
p78
sg7
S'--'
p79
sg9
g14
sg11
S'--'
p80
sg13
g14
sg15
g10
sg16
S'2015'
p81
sg18
S'12'
p82
sg20
S'6.0'
p83
sg22
S'11/29'
p84
sg24
g14
sg26
S'Spencer Ware'
p85
sg28
S'19'
p86
sg30
S'W30-22'
p87
sg32
g14
sg34
g73
sg35
S'BUF'
p88
sg37
g25
sg38
S'114'
p89
sg40
S'35'
p90
ssS'15'
p91
(dp92
g5
S'--'
p93
sg7
S'--'
p94
sg9
g10
sg11
S'--'
p95
sg13
g14
sg15
S'--'
p96
sg16
S'2015'
p97
sg18
S'15'
p98
sg20
S'--'
p99
sg22
S'12/20'
p100
sg24
S'--'
p101
sg26
S'Spencer Ware'
p102
sg28
S'--'
p103
sg30
S'W34-14'
p104
sg32
S'--'
p105
sg34
S'--'
p106
sg35
S'@BAL'
p107
sg37
S'--'
p108
sg38
S'--'
p109
sg40
S'--'
p110
ssS'14'
p111
(dp112
g5
S'--'
p113
sg7
S'--'
p114
sg9
g14
sg11
S'--'
p115
sg13
g14
sg15
S'--'
p116
sg16
S'2015'
p117
sg18
S'14'
p118
sg20
S'6.5'
p119
sg22
S'12/13'
p120
sg24
g10
sg26
S'Spencer Ware'
p121
sg28
S'8'
p122
sg30
S'W10-3'
p123
sg32
S'--'
p124
sg34
S'--'
p125
sg35
S'SD'
p126
sg37
S'--'
p127
sg38
S'52'
p128
sg40
S'20'
p129
ssS'17'
p130
(dp131
g5
S'--'
p132
sg7
S'--'
p133
sg9
g10
sg11
S'--'
p134
sg13
g14
sg15
S'--'
p135
sg16
S'2015'
p136
sg18
S'17'
p137
sg20
S'4.8'
p138
sg22
S'01/03'
p139
sg24
g14
sg26
S'Spencer Ware'
p140
sg28
S'16'
p141
sg30
S'W23-17'
p142
sg32
S'--'
p143
sg34
S'--'
p144
sg35
S'OAK'
p145
sg37
S'--'
p146
sg38
S'76'
p147
sg40
S'15'
p148
ssS'16'
p149
(dp150
g5
S'--'
p151
sg7
S'--'
p152
sg9
g10
sg11
S'--'
p153
sg13
g14
sg15
S'--'
p154
sg16
S'2015'
p155
sg18
S'16'
p156
sg20
S'3.0'
p157
sg22
S'12/27'
p158
sg24
g10
sg26
S'Spencer Ware'
p159
sg28
g33
sg30
S'W17-13'
p160
sg32
S'--'
p161
sg34
S'--'
p162
sg35
S'CLE'
p163
sg37
S'--'
p164
sg38
S'15'
p165
sg40
g33
ssg69
(dp166
g5
S'--'
p167
sg7
S'--'
p168
sg9
g10
sg11
S'--'
p169
sg13
g14
sg15
S'--'
p170
sg16
S'2015'
p171
sg18
g69
sg20
S'4.0'
p172
sg22
S'10/25'
p173
sg24
g10
sg26
S'Spencer Ware'
p174
sg28
g25
sg30
S'W23-13'
p175
sg32
S'--'
p176
sg34
S'--'
p177
sg35
S'PIT'
p178
sg37
S'--'
p179
sg38
g122
sg40
g33
ssS'6'
p180
(dp181
g5
S'--'
p182
sg7
S'--'
p183
sg9
g10
sg11
S'--'
p184
sg13
g14
sg15
S'--'
p185
sg16
S'2015'
p186
sg18
g180
sg20
S'--'
p187
sg22
S'10/18'
p188
sg24
S'--'
p189
sg26
S'Spencer Ware'
p190
sg28
S'--'
p191
sg30
S'L10-16'
p192
sg32
S'--'
p193
sg34
S'--'
p194
sg35
S'@MIN'
p195
sg37
S'--'
p196
sg38
S'--'
p197
sg40
S'--'
p198
ssS'9'
p199
(dp200
g5
S''
p201
sg7
g201
sg9
g201
sg11
g201
sg13
g201
sg15
g201
sg16
S'2015'
p202
sg18
g199
sg20
g201
sg22
S'Bye'
p203
sg24
g201
sg26
S'Spencer Ware'
p204
sg28
g201
sg30
g201
sg32
g201
sg34
g201
sg35
g201
sg37
g201
sg38
g201
sg40
g201
ssg122
(dp205
g5
S'--'
p206
sg7
S'--'
p207
sg9
g10
sg11
S'--'
p208
sg13
g14
sg15
S'--'
p209
sg16
S'2015'
p210
sg18
g122
sg20
S'6.0'
p211
sg22
S'11/01'
p212
sg24
g14
sg26
S'Spencer Ware'
p213
sg28
g25
sg30
S'W45-10'
p214
sg32
S'--'
p215
sg34
S'--'
p216
sg35
S'DET'
p217
sg37
S'--'
p218
sg38
S'12'
p219
sg40
g122
sssS'2013'
p220
(dp221
g14
(dp222
g5
S'--'
p223
sg7
S'--'
p224
sg9
g10
sg11
S'--'
p225
sg13
g14
sg15
S'--'
p226
sg16
S'2013'
p227
sg18
g14
sg20
S'--'
p228
sg22
S'09/08'
p229
sg24
S'--'
p230
sg26
S'Spencer Ware'
p231
sg28
S'--'
p232
sg30
S'W12-7'
p233
sg32
S'--'
p234
sg34
S'--'
p235
sg35
S'@CAR'
p236
sg37
S'--'
p237
sg38
S'--'
p238
sg40
S'--'
p239
ssg73
(dp240
g5
S'--'
p241
sg7
S'--'
p242
sg9
g10
sg11
S'--'
p243
sg13
g10
sg15
S'--'
p244
sg16
S'2013'
p245
sg18
g73
sg20
S'--'
p246
sg22
S'09/22'
p247
sg24
S'--'
p248
sg26
S'Spencer Ware'
p249
sg28
S'--'
p250
sg30
S'W45-17'
p251
sg32
S'--'
p252
sg34
S'--'
p253
sg35
S'JAC'
p254
sg37
S'--'
p255
sg38
S'--'
p256
sg40
S'--'
p257
ssg25
(dp258
g5
S'--'
p259
sg7
S'--'
p260
sg9
g10
sg11
S'--'
p261
sg13
g14
sg15
S'--'
p262
sg16
S'2013'
p263
sg18
g25
sg20
S'3.3'
p264
sg22
S'09/15'
p265
sg24
g10
sg26
S'Spencer Ware'
p266
sg28
g73
sg30
S'W29-3'
p267
sg32
S'--'
p268
sg34
S'--'
p269
sg35
S'SF'
p270
sg37
S'--'
p271
sg38
S'10'
p272
sg40
g33
ssg33
(dp273
g5
S'--'
p274
sg7
S'--'
p275
sg9
g10
sg11
S'--'
p276
sg13
g10
sg15
S'--'
p277
sg16
S'2013'
p278
sg18
g33
sg20
S'--'
p279
sg22
S'10/06'
p280
sg24
S'--'
p281
sg26
S'Spencer Ware'
p282
sg28
S'--'
p283
sg30
S'L28-34'
p284
sg32
S'--'
p285
sg34
S'--'
p286
sg35
S'@IND'
p287
sg37
S'--'
p288
sg38
S'--'
p289
sg40
S'--'
p290
ssg58
(dp291
g5
S'--'
p292
sg7
S'--'
p293
sg9
g10
sg11
S'--'
p294
sg13
g10
sg15
S'--'
p295
sg16
S'2013'
p296
sg18
g58
sg20
S'--'
p297
sg22
S'09/29'
p298
sg24
S'--'
p299
sg26
S'Spencer Ware'
p300
sg28
S'--'
p301
sg30
S'W23-20'
p302
sg32
S'--'
p303
sg34
S'--'
p304
sg35
S'@HOU'
p305
sg37
S'--'
p306
sg38
S'--'
p307
sg40
S'--'
p308
ssg69
(dp309
g5
S'--'
p310
sg7
S'--'
p311
sg9
g10
sg11
S'--'
p312
sg13
g10
sg15
S'--'
p313
sg16
S'2013'
p314
sg18
g69
sg20
S'--'
p315
sg22
S'10/17'
p316
sg24
S'--'
p317
sg26
S'Spencer Ware'
p318
sg28
S'--'
p319
sg30
S'W34-22'
p320
sg32
S'--'
p321
sg34
S'--'
p322
sg35
S'@ARI'
p323
sg37
S'--'
p324
sg38
S'--'
p325
sg40
S'--'
p326
ssg180
(dp327
g5
S'--'
p328
sg7
S'--'
p329
sg9
g10
sg11
S'--'
p330
sg13
g10
sg15
S'--'
p331
sg16
S'2013'
p332
sg18
g180
sg20
S'--'
p333
sg22
S'10/13'
p334
sg24
S'--'
p335
sg26
S'Spencer Ware'
p336
sg28
S'--'
p337
sg30
S'W20-13'
p338
sg32
S'--'
p339
sg34
S'--'
p340
sg35
S'TEN'
p341
sg37
S'--'
p342
sg38
S'--'
p343
sg40
S'--'
p344
sss.