(dp0
S'2015'
p1
(dp2
S'11'
p3
(dp4
S'RecAvg'
p5
S'--'
p6
sS'FUM'
p7
S'--'
p8
sS'GS'
p9
S'0'
p10
sS'Lost'
p11
S'--'
p12
sS'G'
p13
S'1'
p14
sS'RecTD'
p15
S'--'
p16
sS'Year'
p17
S'2015'
p18
sS'WK'
p19
S'11'
p20
sS'RushAvg'
p21
S'--'
p22
sS'Game Date'
p23
S'11/22'
p24
sS'RushTD'
p25
S'--'
p26
sS'Player'
p27
S'Stepfan Taylor'
p28
sS'RushAtt'
p29
S'--'
p30
sS'Result'
p31
S'W34-31'
p32
sS'RecYds'
p33
S'--'
p34
sS'Rec'
p35
S'--'
p36
sS'Opp'
p37
S'CIN'
p38
sS'RecLng'
p39
S'--'
p40
sS'RushYds'
p41
S'--'
p42
sS'RushLng'
p43
S'--'
p44
ssS'10'
p45
(dp46
g5
S'--'
p47
sg7
S'--'
p48
sg9
g10
sg11
S'--'
p49
sg13
g14
sg15
S'--'
p50
sg17
S'2015'
p51
sg19
S'10'
p52
sg21
S'--'
p53
sg23
S'11/15'
p54
sg25
S'--'
p55
sg27
S'Stepfan Taylor'
p56
sg29
S'--'
p57
sg31
S'W39-32'
p58
sg33
S'--'
p59
sg35
S'--'
p60
sg37
S'@SEA'
p61
sg39
S'--'
p62
sg41
S'--'
p63
sg43
S'--'
p64
ssS'13'
p65
(dp66
g5
S'--'
p67
sg7
S'--'
p68
sg9
g10
sg11
S'--'
p69
sg13
g14
sg15
g10
sg17
S'2015'
p70
sg19
S'13'
p71
sg21
S'4.0'
p72
sg23
S'12/06'
p73
sg25
g10
sg27
S'Stepfan Taylor'
p74
sg29
S'5'
p75
sg31
S'W27-3'
p76
sg33
g10
sg35
g10
sg37
S'@STL'
p77
sg39
S'--'
p78
sg41
S'20'
p79
sg43
S'9'
p80
ssS'12'
p81
(dp82
g5
S'--'
p83
sg7
S'--'
p84
sg9
g10
sg11
S'--'
p85
sg13
g14
sg15
S'--'
p86
sg17
S'2015'
p87
sg19
S'12'
p88
sg21
S'2.0'
p89
sg23
S'11/29'
p90
sg25
g10
sg27
S'Stepfan Taylor'
p91
sg29
g14
sg31
S'W19-13'
p92
sg33
S'--'
p93
sg35
S'--'
p94
sg37
S'@SF'
p95
sg39
S'--'
p96
sg41
S'2'
p97
sg43
g97
ssS'15'
p98
(dp99
g5
S'--'
p100
sg7
S'--'
p101
sg9
g10
sg11
S'--'
p102
sg13
g14
sg15
S'--'
p103
sg17
S'2015'
p104
sg19
S'15'
p105
sg21
S'5.5'
p106
sg23
S'12/20'
p107
sg25
g10
sg27
S'Stepfan Taylor'
p108
sg29
g97
sg31
S'W40-17'
p109
sg33
S'--'
p110
sg35
S'--'
p111
sg37
S'@PHI'
p112
sg39
S'--'
p113
sg41
S'11'
p114
sg43
S'10'
p115
ssS'14'
p116
(dp117
g5
S'4.0'
p118
sg7
S'--'
p119
sg9
g10
sg11
S'--'
p120
sg13
g14
sg15
g10
sg17
S'2015'
p121
sg19
S'14'
p122
sg21
S'0.0'
p123
sg23
S'12/10'
p124
sg25
g10
sg27
S'Stepfan Taylor'
p125
sg29
g14
sg31
S'W23-20'
p126
sg33
S'4'
p127
sg35
g14
sg37
S'MIN'
p128
sg39
g127
sg41
g10
sg43
g10
ssS'17'
p129
(dp130
g5
S'--'
p131
sg7
S'--'
p132
sg9
g10
sg11
S'--'
p133
sg13
g14
sg15
S'--'
p134
sg17
S'2015'
p135
sg19
S'17'
p136
sg21
S'--'
p137
sg23
S'01/03'
p138
sg25
S'--'
p139
sg27
S'Stepfan Taylor'
p140
sg29
S'--'
p141
sg31
S'L6-36'
p142
sg33
S'--'
p143
sg35
S'--'
p144
sg37
S'SEA'
p145
sg39
S'--'
p146
sg41
S'--'
p147
sg43
S'--'
p148
ssS'16'
p149
(dp150
g5
S'--'
p151
sg7
S'--'
p152
sg9
g10
sg11
S'--'
p153
sg13
g14
sg15
S'--'
p154
sg17
S'2015'
p155
sg19
S'16'
p156
sg21
S'--'
p157
sg23
S'12/27'
p158
sg25
S'--'
p159
sg27
S'Stepfan Taylor'
p160
sg29
S'--'
p161
sg31
S'W38-8'
p162
sg33
S'--'
p163
sg35
S'--'
p164
sg37
S'GB'
p165
sg39
S'--'
p166
sg41
S'--'
p167
sg43
S'--'
p168
ssg14
(dp169
g5
S'--'
p170
sg7
S'--'
p171
sg9
g10
sg11
S'--'
p172
sg13
g14
sg15
S'--'
p173
sg17
S'2015'
p174
sg19
g14
sg21
S'--'
p175
sg23
S'09/13'
p176
sg25
S'--'
p177
sg27
S'Stepfan Taylor'
p178
sg29
S'--'
p179
sg31
S'W31-19'
p180
sg33
S'--'
p181
sg35
S'--'
p182
sg37
S'NO'
p183
sg39
S'--'
p184
sg41
S'--'
p185
sg43
S'--'
p186
ssS'3'
p187
(dp188
g5
S'--'
p189
sg7
S'--'
p190
sg9
g10
sg11
S'--'
p191
sg13
g14
sg15
S'--'
p192
sg17
S'2015'
p193
sg19
g187
sg21
S'1.5'
p194
sg23
S'09/27'
p195
sg25
g10
sg27
S'Stepfan Taylor'
p196
sg29
g127
sg31
S'W47-7'
p197
sg33
S'--'
p198
sg35
S'--'
p199
sg37
S'SF'
p200
sg39
S'--'
p201
sg41
S'6'
p202
sg43
g97
ssg97
(dp203
g5
S'--'
p204
sg7
S'--'
p205
sg9
g10
sg11
S'--'
p206
sg13
g14
sg15
S'--'
p207
sg17
S'2015'
p208
sg19
g97
sg21
S'--'
p209
sg23
S'09/20'
p210
sg25
S'--'
p211
sg27
S'Stepfan Taylor'
p212
sg29
S'--'
p213
sg31
S'W48-23'
p214
sg33
S'--'
p215
sg35
S'--'
p216
sg37
S'@CHI'
p217
sg39
S'--'
p218
sg41
S'--'
p219
sg43
S'--'
p220
ssg75
(dp221
g5
S'--'
p222
sg7
S'--'
p223
sg9
g10
sg11
S'--'
p224
sg13
g14
sg15
g10
sg17
S'2015'
p225
sg19
g75
sg21
S'4.8'
p226
sg23
S'10/11'
p227
sg25
g10
sg27
S'Stepfan Taylor'
p228
sg29
g127
sg31
S'W42-17'
p229
sg33
g10
sg35
g10
sg37
S'@DET'
p230
sg39
S'--'
p231
sg41
S'19'
p232
sg43
S'16'
p233
ssg127
(dp234
g5
S'--'
p235
sg7
S'--'
p236
sg9
g10
sg11
S'--'
p237
sg13
g14
sg15
S'--'
p238
sg17
S'2015'
p239
sg19
g127
sg21
S'--'
p240
sg23
S'10/04'
p241
sg25
S'--'
p242
sg27
S'Stepfan Taylor'
p243
sg29
S'--'
p244
sg31
S'L22-24'
p245
sg33
S'--'
p246
sg35
S'--'
p247
sg37
S'STL'
p248
sg39
S'--'
p249
sg41
S'--'
p250
sg43
S'--'
p251
ssS'7'
p252
(dp253
g5
S'--'
p254
sg7
S'--'
p255
sg9
g10
sg11
S'--'
p256
sg13
g14
sg15
S'--'
p257
sg17
S'2015'
p258
sg19
g252
sg21
S'--'
p259
sg23
S'10/26'
p260
sg25
S'--'
p261
sg27
S'Stepfan Taylor'
p262
sg29
S'--'
p263
sg31
S'W26-18'
p264
sg33
S'--'
p265
sg35
S'--'
p266
sg37
S'BAL'
p267
sg39
S'--'
p268
sg41
S'--'
p269
sg43
S'--'
p270
ssg202
(dp271
g5
S'--'
p272
sg7
S'--'
p273
sg9
g10
sg11
S'--'
p274
sg13
g14
sg15
S'--'
p275
sg17
S'2015'
p276
sg19
g202
sg21
S'--'
p277
sg23
S'10/18'
p278
sg25
S'--'
p279
sg27
S'Stepfan Taylor'
p280
sg29
S'--'
p281
sg31
S'L13-25'
p282
sg33
S'--'
p283
sg35
S'--'
p284
sg37
S'@PIT'
p285
sg39
S'--'
p286
sg41
S'--'
p287
sg43
S'--'
p288
ssg80
(dp289
g5
S''
p290
sg7
g290
sg9
g290
sg11
g290
sg13
g290
sg15
g290
sg17
S'2015'
p291
sg19
g80
sg21
g290
sg23
S'Bye'
p292
sg25
g290
sg27
S'Stepfan Taylor'
p293
sg29
g290
sg31
g290
sg33
g290
sg35
g290
sg37
g290
sg39
g290
sg41
g290
sg43
g290
ssS'8'
p294
(dp295
g5
S'--'
p296
sg7
S'--'
p297
sg9
g10
sg11
S'--'
p298
sg13
g14
sg15
S'--'
p299
sg17
S'2015'
p300
sg19
g294
sg21
S'--'
p301
sg23
S'11/01'
p302
sg25
S'--'
p303
sg27
S'Stepfan Taylor'
p304
sg29
S'--'
p305
sg31
S'W34-20'
p306
sg33
S'--'
p307
sg35
S'--'
p308
sg37
S'@CLE'
p309
sg39
S'--'
p310
sg41
S'--'
p311
sg43
S'--'
p312
sssS'2014'
p313
(dp314
g3
(dp315
g5
S'4.0'
p316
sg7
S'--'
p317
sg9
g10
sg11
S'--'
p318
sg13
g14
sg15
g10
sg17
S'2014'
p319
sg19
S'11'
p320
sg21
S'3.0'
p321
sg23
S'11/16'
p322
sg25
g10
sg27
S'Stepfan Taylor'
p323
sg29
g97
sg31
S'W14-6'
p324
sg33
g127
sg35
g14
sg37
S'DET'
p325
sg39
g127
sg41
g202
sg43
g75
ssg45
(dp326
g5
S'--'
p327
sg7
S'--'
p328
sg9
g10
sg11
S'--'
p329
sg13
g10
sg15
S'--'
p330
sg17
S'2014'
p331
sg19
S'10'
p332
sg21
S'--'
p333
sg23
S'11/09'
p334
sg25
S'--'
p335
sg27
S'Stepfan Taylor'
p336
sg29
S'--'
p337
sg31
S'W31-14'
p338
sg33
S'--'
p339
sg35
S'--'
p340
sg37
S'STL'
p341
sg39
S'--'
p342
sg41
S'--'
p343
sg43
S'--'
p344
ssg65
(dp345
g5
S'3.0'
p346
sg7
S'--'
p347
sg9
g10
sg11
S'--'
p348
sg13
g14
sg15
g14
sg17
S'2014'
p349
sg19
S'13'
p350
sg21
S'--'
p351
sg23
S'11/30'
p352
sg25
S'--'
p353
sg27
S'Stepfan Taylor'
p354
sg29
S'--'
p355
sg31
S'L18-29'
p356
sg33
g187
sg35
g14
sg37
S'@ATL'
p357
sg39
S'3T'
p358
sg41
S'--'
p359
sg43
S'--'
p360
ssg81
(dp361
g5
S'--'
p362
sg7
S'--'
p363
sg9
g10
sg11
S'--'
p364
sg13
g14
sg15
S'--'
p365
sg17
S'2014'
p366
sg19
S'12'
p367
sg21
S'2.8'
p368
sg23
S'11/23'
p369
sg25
g10
sg27
S'Stepfan Taylor'
p370
sg29
g75
sg31
S'L3-19'
p371
sg33
S'--'
p372
sg35
S'--'
p373
sg37
S'@SEA'
p374
sg39
S'--'
p375
sg41
S'14'
p376
sg43
g75
ssg98
(dp377
g5
S'--'
p378
sg7
S'--'
p379
sg9
g14
sg11
S'--'
p380
sg13
g14
sg15
S'--'
p381
sg17
S'2014'
p382
sg19
S'15'
p383
sg21
S'4.4'
p384
sg23
S'12/11'
p385
sg25
g10
sg27
S'Stepfan Taylor'
p386
sg29
S'14'
p387
sg31
S'W12-6'
p388
sg33
S'--'
p389
sg35
S'--'
p390
sg37
S'@STL'
p391
sg39
S'--'
p392
sg41
S'61'
p393
sg43
S'21'
p394
ssg116
(dp395
g5
S'7.0'
p396
sg7
S'--'
p397
sg9
g14
sg11
S'--'
p398
sg13
g14
sg15
g10
sg17
S'2014'
p399
sg19
S'14'
p400
sg21
S'3.2'
p401
sg23
S'12/07'
p402
sg25
g10
sg27
S'Stepfan Taylor'
p403
sg29
g202
sg31
S'W17-14'
p404
sg33
g252
sg35
g14
sg37
S'KC'
p405
sg39
g252
sg41
S'19'
p406
sg43
S'12'
p407
ssg129
(dp408
g5
S'--'
p409
sg7
S'--'
p410
sg9
g14
sg11
S'--'
p411
sg13
g14
sg15
g10
sg17
S'2014'
p412
sg19
S'17'
p413
sg21
S'3.7'
p414
sg23
S'12/28'
p415
sg25
g10
sg27
S'Stepfan Taylor'
p416
sg29
g252
sg31
S'L17-20'
p417
sg33
g10
sg35
g10
sg37
S'@SF'
p418
sg39
S'--'
p419
sg41
S'26'
p420
sg43
g202
ssg149
(dp421
g5
S'12.5'
p422
sg7
S'--'
p423
sg9
g14
sg11
S'--'
p424
sg13
g14
sg15
g10
sg17
S'2014'
p425
sg19
S'16'
p426
sg21
S'1.7'
p427
sg23
S'12/21'
p428
sg25
g10
sg27
S'Stepfan Taylor'
p429
sg29
S'11'
p430
sg31
S'L6-35'
p431
sg33
S'25'
p432
sg35
g97
sg37
S'SEA'
p433
sg39
S'18'
p434
sg41
S'19'
p435
sg43
g127
ssg14
(dp436
g5
S'7.0'
p437
sg7
S'--'
p438
sg9
g10
sg11
S'--'
p439
sg13
g14
sg15
g14
sg17
S'2014'
p440
sg19
g14
sg21
S'5.0'
p441
sg23
S'09/08'
p442
sg25
g10
sg27
S'Stepfan Taylor'
p443
sg29
g14
sg31
S'W18-17'
p444
sg33
S'21'
p445
sg35
g187
sg37
S'SD'
p446
sg39
S'11'
p447
sg41
g75
sg43
g75
ssg187
(dp448
g5
S'--'
p449
sg7
S'--'
p450
sg9
g10
sg11
S'--'
p451
sg13
g14
sg15
S'--'
p452
sg17
S'2014'
p453
sg19
g187
sg21
S'2.0'
p454
sg23
S'09/21'
p455
sg25
g10
sg27
S'Stepfan Taylor'
p456
sg29
g14
sg31
S'W23-14'
p457
sg33
S'--'
p458
sg35
S'--'
p459
sg37
S'SF'
p460
sg39
S'--'
p461
sg41
g97
sg43
g97
ssg97
(dp462
g5
S'--'
p463
sg7
S'--'
p464
sg9
g10
sg11
S'--'
p465
sg13
g14
sg15
S'--'
p466
sg17
S'2014'
p467
sg19
g97
sg21
S'--'
p468
sg23
S'09/14'
p469
sg25
S'--'
p470
sg27
S'Stepfan Taylor'
p471
sg29
S'--'
p472
sg31
S'W25-14'
p473
sg33
S'--'
p474
sg35
S'--'
p475
sg37
S'@NYG'
p476
sg39
S'--'
p477
sg41
S'--'
p478
sg43
S'--'
p479
ssg75
(dp480
g5
S'--'
p481
sg7
S'--'
p482
sg9
g10
sg11
S'--'
p483
sg13
g14
sg15
S'--'
p484
sg17
S'2014'
p485
sg19
g75
sg21
S'6.0'
p486
sg23
S'10/05'
p487
sg25
g10
sg27
S'Stepfan Taylor'
p488
sg29
g14
sg31
S'L20-41'
p489
sg33
S'--'
p490
sg35
S'--'
p491
sg37
S'@DEN'
p492
sg39
S'--'
p493
sg41
g202
sg43
g202
ssg127
(dp494
g5
g290
sg7
g290
sg9
g290
sg11
g290
sg13
g290
sg15
g290
sg17
S'2014'
p495
sg19
g127
sg21
g290
sg23
S'Bye'
p496
sg25
g290
sg27
S'Stepfan Taylor'
p497
sg29
g290
sg31
g290
sg33
g290
sg35
g290
sg37
g290
sg39
g290
sg41
g290
sg43
g290
ssg252
(dp498
g5
S'9.5'
p499
sg7
S'--'
p500
sg9
g10
sg11
S'--'
p501
sg13
g14
sg15
g14
sg17
S'2014'
p502
sg19
g252
sg21
S'3.3'
p503
sg23
S'10/19'
p504
sg25
g14
sg27
S'Stepfan Taylor'
p505
sg29
S'12'
p506
sg31
S'W24-13'
p507
sg33
S'19'
p508
sg35
g97
sg37
S'@OAK'
p509
sg39
S'17'
p510
sg41
S'40'
p511
sg43
S'13'
p512
ssg202
(dp513
g5
S'0.0'
p514
sg7
S'--'
p515
sg9
g10
sg11
S'--'
p516
sg13
g14
sg15
g10
sg17
S'2014'
p517
sg19
g202
sg21
S'3.3'
p518
sg23
S'10/12'
p519
sg25
g10
sg27
S'Stepfan Taylor'
p520
sg29
g187
sg31
S'W30-20'
p521
sg33
g10
sg35
g14
sg37
S'WAS'
p522
sg39
g10
sg41
S'10'
p523
sg43
g294
ssg80
(dp524
g5
S'--'
p525
sg7
S'--'
p526
sg9
g10
sg11
S'--'
p527
sg13
g10
sg15
S'--'
p528
sg17
S'2014'
p529
sg19
g80
sg21
S'--'
p530
sg23
S'11/02'
p531
sg25
S'--'
p532
sg27
S'Stepfan Taylor'
p533
sg29
S'--'
p534
sg31
S'W28-17'
p535
sg33
S'--'
p536
sg35
S'--'
p537
sg37
S'@DAL'
p538
sg39
S'--'
p539
sg41
S'--'
p540
sg43
S'--'
p541
ssg294
(dp542
g5
S'--'
p543
sg7
S'--'
p544
sg9
g10
sg11
S'--'
p545
sg13
g14
sg15
S'--'
p546
sg17
S'2014'
p547
sg19
g294
sg21
S'--'
p548
sg23
S'10/26'
p549
sg25
S'--'
p550
sg27
S'Stepfan Taylor'
p551
sg29
S'--'
p552
sg31
S'W24-20'
p553
sg33
S'--'
p554
sg35
S'--'
p555
sg37
S'PHI'
p556
sg39
S'--'
p557
sg41
S'--'
p558
sg43
S'--'
p559
sssS'2013'
p560
(dp561
g3
(dp562
g5
S'--'
p563
sg7
S'--'
p564
sg9
g10
sg11
S'--'
p565
sg13
g14
sg15
S'--'
p566
sg17
S'2013'
p567
sg19
S'11'
p568
sg21
S'--'
p569
sg23
S'11/17'
p570
sg25
S'--'
p571
sg27
S'Stepfan Taylor'
p572
sg29
S'--'
p573
sg31
S'W27-14'
p574
sg33
S'--'
p575
sg35
S'--'
p576
sg37
S'@JAC'
p577
sg39
S'--'
p578
sg41
S'--'
p579
sg43
S'--'
p580
ssg45
(dp581
g5
S'--'
p582
sg7
S'--'
p583
sg9
g10
sg11
S'--'
p584
sg13
g14
sg15
S'--'
p585
sg17
S'2013'
p586
sg19
S'10'
p587
sg21
S'3.0'
p588
sg23
S'11/10'
p589
sg25
g10
sg27
S'Stepfan Taylor'
p590
sg29
g97
sg31
S'W27-24'
p591
sg33
S'--'
p592
sg35
S'--'
p593
sg37
S'HOU'
p594
sg39
S'--'
p595
sg41
g202
sg43
g127
ssg65
(dp596
g5
S'22.5'
p597
sg7
S'--'
p598
sg9
g10
sg11
S'--'
p599
sg13
g14
sg15
g10
sg17
S'2013'
p600
sg19
S'13'
p601
sg21
S'5.0'
p602
sg23
S'12/01'
p603
sg25
g10
sg27
S'Stepfan Taylor'
p604
sg29
g187
sg31
S'L21-24'
p605
sg33
S'45'
p606
sg35
g97
sg37
S'@PHI'
p607
sg39
S'29'
p608
sg41
S'15'
p609
sg43
g252
ssg81
(dp610
g5
S'1.0'
p611
sg7
S'--'
p612
sg9
g10
sg11
S'--'
p613
sg13
g14
sg15
g10
sg17
S'2013'
p614
sg19
S'12'
p615
sg21
S'2.0'
p616
sg23
S'11/24'
p617
sg25
g10
sg27
S'Stepfan Taylor'
p618
sg29
g75
sg31
S'W40-11'
p619
sg33
g14
sg35
g14
sg37
S'IND'
p620
sg39
g14
sg41
S'10'
p621
sg43
g187
ssg98
(dp622
g5
S'--'
p623
sg7
S'--'
p624
sg9
g10
sg11
S'--'
p625
sg13
g14
sg15
S'--'
p626
sg17
S'2013'
p627
sg19
S'15'
p628
sg21
S'2.0'
p629
sg23
S'12/15'
p630
sg25
g10
sg27
S'Stepfan Taylor'
p631
sg29
g187
sg31
S'W37-34'
p632
sg33
S'--'
p633
sg35
S'--'
p634
sg37
S'@TEN'
p635
sg39
S'--'
p636
sg41
g202
sg43
g187
ssg116
(dp637
g5
S'5.3'
p638
sg7
S'--'
p639
sg9
g10
sg11
S'--'
p640
sg13
g14
sg15
g10
sg17
S'2013'
p641
sg19
S'14'
p642
sg21
S'4.5'
p643
sg23
S'12/08'
p644
sg25
g10
sg27
S'Stepfan Taylor'
p645
sg29
g97
sg31
S'W30-10'
p646
sg33
S'16'
p647
sg35
g187
sg37
S'STL'
p648
sg39
g80
sg41
g80
sg43
g202
ssg129
(dp649
g5
S'7.0'
p650
sg7
S'--'
p651
sg9
g10
sg11
S'--'
p652
sg13
g14
sg15
g10
sg17
S'2013'
p653
sg19
S'17'
p654
sg21
S'3.5'
p655
sg23
S'12/29'
p656
sg25
g10
sg27
S'Stepfan Taylor'
p657
sg29
g97
sg31
S'L20-23'
p658
sg33
g252
sg35
g14
sg37
S'SF'
p659
sg39
g252
sg41
g252
sg43
g127
ssg149
(dp660
g5
S'--'
p661
sg7
S'--'
p662
sg9
g10
sg11
S'--'
p663
sg13
g14
sg15
S'--'
p664
sg17
S'2013'
p665
sg19
S'16'
p666
sg21
S'7.5'
p667
sg23
S'12/22'
p668
sg25
g10
sg27
S'Stepfan Taylor'
p669
sg29
g97
sg31
S'W17-10'
p670
sg33
S'--'
p671
sg35
S'--'
p672
sg37
S'@SEA'
p673
sg39
S'--'
p674
sg41
S'15'
p675
sg43
S'11'
p676
ssg14
(dp677
g5
S'--'
p678
sg7
S'--'
p679
sg9
g10
sg11
S'--'
p680
sg13
g14
sg15
S'--'
p681
sg17
S'2013'
p682
sg19
g14
sg21
S'--'
p683
sg23
S'09/08'
p684
sg25
S'--'
p685
sg27
S'Stepfan Taylor'
p686
sg29
S'--'
p687
sg31
S'L24-27'
p688
sg33
S'--'
p689
sg35
S'--'
p690
sg37
S'@STL'
p691
sg39
S'--'
p692
sg41
S'--'
p693
sg43
S'--'
p694
ssg187
(dp695
g5
S'2.0'
p696
sg7
S'--'
p697
sg9
g10
sg11
S'--'
p698
sg13
g14
sg15
g10
sg17
S'2013'
p699
sg19
g187
sg21
S'--'
p700
sg23
S'09/22'
p701
sg25
S'--'
p702
sg27
S'Stepfan Taylor'
p703
sg29
S'--'
p704
sg31
S'L7-31'
p705
sg33
g97
sg35
g14
sg37
S'@NO'
p706
sg39
g97
sg41
S'--'
p707
sg43
S'--'
p708
ssg97
(dp709
g5
S'--'
p710
sg7
S'--'
p711
sg9
g10
sg11
S'--'
p712
sg13
g14
sg15
S'--'
p713
sg17
S'2013'
p714
sg19
g97
sg21
S'2.0'
p715
sg23
S'09/15'
p716
sg25
g10
sg27
S'Stepfan Taylor'
p717
sg29
g14
sg31
S'W25-21'
p718
sg33
S'--'
p719
sg35
S'--'
p720
sg37
S'DET'
p721
sg39
S'--'
p722
sg41
g97
sg43
g97
ssg75
(dp723
g5
S'--'
p724
sg7
S'--'
p725
sg9
g10
sg11
S'--'
p726
sg13
g14
sg15
S'--'
p727
sg17
S'2013'
p728
sg19
g75
sg21
S'--'
p729
sg23
S'10/06'
p730
sg25
S'--'
p731
sg27
S'Stepfan Taylor'
p732
sg29
S'--'
p733
sg31
S'W22-6'
p734
sg33
S'--'
p735
sg35
S'--'
p736
sg37
S'CAR'
p737
sg39
S'--'
p738
sg41
S'--'
p739
sg43
S'--'
p740
ssg127
(dp741
g5
S'--'
p742
sg7
S'--'
p743
sg9
g10
sg11
S'--'
p744
sg13
g14
sg15
S'--'
p745
sg17
S'2013'
p746
sg19
g127
sg21
S'--'
p747
sg23
S'09/29'
p748
sg25
S'--'
p749
sg27
S'Stepfan Taylor'
p750
sg29
S'--'
p751
sg31
S'W13-10'
p752
sg33
S'--'
p753
sg35
S'--'
p754
sg37
S'@TB'
p755
sg39
S'--'
p756
sg41
S'--'
p757
sg43
S'--'
p758
ssg252
(dp759
g5
S'--'
p760
sg7
S'--'
p761
sg9
g10
sg11
S'--'
p762
sg13
g14
sg15
S'--'
p763
sg17
S'2013'
p764
sg19
g252
sg21
S'--'
p765
sg23
S'10/17'
p766
sg25
S'--'
p767
sg27
S'Stepfan Taylor'
p768
sg29
S'--'
p769
sg31
S'L22-34'
p770
sg33
S'--'
p771
sg35
S'--'
p772
sg37
S'SEA'
p773
sg39
S'--'
p774
sg41
S'--'
p775
sg43
S'--'
p776
ssg202
(dp777
g5
S'--'
p778
sg7
S'--'
p779
sg9
g10
sg11
S'--'
p780
sg13
g14
sg15
S'--'
p781
sg17
S'2013'
p782
sg19
g202
sg21
S'3.5'
p783
sg23
S'10/13'
p784
sg25
g10
sg27
S'Stepfan Taylor'
p785
sg29
g97
sg31
S'L20-32'
p786
sg33
S'--'
p787
sg35
S'--'
p788
sg37
S'@SF'
p789
sg39
S'--'
p790
sg41
g252
sg43
g75
ssg80
(dp791
g5
g290
sg7
g290
sg9
g290
sg11
g290
sg13
g290
sg15
g290
sg17
S'2013'
p792
sg19
g80
sg21
g290
sg23
S'Bye'
p793
sg25
g290
sg27
S'Stepfan Taylor'
p794
sg29
g290
sg31
g290
sg33
g290
sg35
g290
sg37
g290
sg39
g290
sg41
g290
sg43
g290
ssg294
(dp795
g5
S'--'
p796
sg7
S'--'
p797
sg9
g10
sg11
S'--'
p798
sg13
g14
sg15
S'--'
p799
sg17
S'2013'
p800
sg19
g294
sg21
S'2.7'
p801
sg23
S'10/27'
p802
sg25
g10
sg27
S'Stepfan Taylor'
p803
sg29
S'14'
p804
sg31
S'W27-13'
p805
sg33
S'--'
p806
sg35
S'--'
p807
sg37
S'ATL'
p808
sg39
S'--'
p809
sg41
S'38'
p810
sg43
S'15'
p811
sss.