(dp0
S'2015'
p1
(dp2
S'11'
p3
(dp4
S'RecAvg'
p5
S'-5.0'
p6
sS'FUM'
p7
S'--'
p8
sS'GS'
p9
S'0'
p10
sS'Lost'
p11
S'--'
p12
sS'G'
p13
S'1'
p14
sS'RecTD'
p15
g10
sS'Year'
p16
S'2015'
p17
sS'WK'
p18
S'11'
p19
sS'RushAvg'
p20
S'0.0'
p21
sS'Game Date'
p22
S'11/22'
p23
sS'RushTD'
p24
g10
sS'Player'
p25
S'Stevan Ridley'
p26
sS'RushAtt'
p27
S'4'
p28
sS'Result'
p29
S'L17-24'
p30
sS'RecYds'
p31
S'-5'
p32
sS'Rec'
p33
g14
sS'Opp'
p34
S'@HOU'
p35
sS'RecLng'
p36
S'-5'
p37
sS'RushYds'
p38
g10
sS'RushLng'
p39
S'7'
p40
ssS'10'
p41
(dp42
g5
S'--'
p43
sg7
S'--'
p44
sg9
g10
sg11
S'--'
p45
sg13
g14
sg15
S'--'
p46
sg16
S'2015'
p47
sg18
S'10'
p48
sg20
S'-0.3'
p49
sg22
S'11/12'
p50
sg24
g10
sg25
S'Stevan Ridley'
p51
sg27
S'3'
p52
sg29
S'L17-22'
p53
sg31
S'--'
p54
sg33
S'--'
p55
sg34
S'BUF'
p56
sg36
S'--'
p57
sg38
S'-1'
p58
sg39
g52
ssS'13'
p59
(dp60
g5
S'--'
p61
sg7
S'--'
p62
sg9
g10
sg11
S'--'
p63
sg13
g14
sg15
S'--'
p64
sg16
S'2015'
p65
sg18
S'13'
p66
sg20
S'1.3'
p67
sg22
S'12/06'
p68
sg24
g10
sg25
S'Stevan Ridley'
p69
sg27
g52
sg29
S'W23-20'
p70
sg31
S'--'
p71
sg33
S'--'
p72
sg34
S'@NYG'
p73
sg36
S'--'
p74
sg38
g28
sg39
g52
ssS'12'
p75
(dp76
g5
S'--'
p77
sg7
S'--'
p78
sg9
g10
sg11
S'--'
p79
sg13
g14
sg15
S'--'
p80
sg16
S'2015'
p81
sg18
S'12'
p82
sg20
S'0.5'
p83
sg22
S'11/29'
p84
sg24
g10
sg25
S'Stevan Ridley'
p85
sg27
S'2'
p86
sg29
S'W38-20'
p87
sg31
S'--'
p88
sg33
S'--'
p89
sg34
S'MIA'
p90
sg36
S'--'
p91
sg38
g14
sg39
g86
ssS'15'
p92
(dp93
g5
S'3.0'
p94
sg7
S'--'
p95
sg9
g10
sg11
S'--'
p96
sg13
g14
sg15
g10
sg16
S'2015'
p97
sg18
S'15'
p98
sg20
S'-1.0'
p99
sg22
S'12/19'
p100
sg24
g10
sg25
S'Stevan Ridley'
p101
sg27
g86
sg29
S'W19-16'
p102
sg31
g52
sg33
g14
sg34
S'@DAL'
p103
sg36
g52
sg38
S'-2'
p104
sg39
g10
ssS'14'
p105
(dp106
g5
S'--'
p107
sg7
S'--'
p108
sg9
g10
sg11
S'--'
p109
sg13
g14
sg15
S'--'
p110
sg16
S'2015'
p111
sg18
S'14'
p112
sg20
S'3.8'
p113
sg22
S'12/13'
p114
sg24
g10
sg25
S'Stevan Ridley'
p115
sg27
S'6'
p116
sg29
S'W30-8'
p117
sg31
S'--'
p118
sg33
S'--'
p119
sg34
S'TEN'
p120
sg36
S'--'
p121
sg38
S'23'
p122
sg39
S'11'
p123
ssS'17'
p124
(dp125
g5
S'0.0'
p126
sg7
S'--'
p127
sg9
g14
sg11
S'--'
p128
sg13
g14
sg15
g10
sg16
S'2015'
p129
sg18
S'17'
p130
sg20
S'3.2'
p131
sg22
S'01/03'
p132
sg24
g10
sg25
S'Stevan Ridley'
p133
sg27
S'9'
p134
sg29
S'L17-22'
p135
sg31
g10
sg33
g86
sg34
S'@BUF'
p136
sg36
g86
sg38
S'29'
p137
sg39
S'13'
p138
ssS'16'
p139
(dp140
g5
S'--'
p141
sg7
S'--'
p142
sg9
g10
sg11
S'--'
p143
sg13
g14
sg15
S'--'
p144
sg16
S'2015'
p145
sg18
S'16'
p146
sg20
S'5.1'
p147
sg22
S'12/27'
p148
sg24
g10
sg25
S'Stevan Ridley'
p149
sg27
g40
sg29
S'W26-20'
p150
sg31
S'--'
p151
sg33
S'--'
p152
sg34
S'NE'
p153
sg36
S'--'
p154
sg38
S'36'
p155
sg39
S'13'
p156
ssg134
(dp157
g5
S'--'
p158
sg7
S'--'
p159
sg9
g10
sg11
S'--'
p160
sg13
g10
sg15
S'--'
p161
sg16
S'2015'
p162
sg18
g134
sg20
S'--'
p163
sg22
S'11/08'
p164
sg24
S'--'
p165
sg25
S'Stevan Ridley'
p166
sg27
S'--'
p167
sg29
S'W28-23'
p168
sg31
S'--'
p169
sg33
S'--'
p170
sg34
S'JAC'
p171
sg36
S'--'
p172
sg38
S'--'
p173
sg39
S'--'
p174
ssS'8'
p175
(dp176
g5
S'--'
p177
sg7
S'--'
p178
sg9
g10
sg11
S'--'
p179
sg13
g10
sg15
S'--'
p180
sg16
S'2015'
p181
sg18
g175
sg20
S'--'
p182
sg22
S'11/01'
p183
sg24
S'--'
p184
sg25
S'Stevan Ridley'
p185
sg27
S'--'
p186
sg29
S'L20-34'
p187
sg31
S'--'
p188
sg33
S'--'
p189
sg34
S'@OAK'
p190
sg36
S'--'
p191
sg38
S'--'
p192
sg39
S'--'
p193
sssS'2014'
p194
(dp195
g14
(dp196
g5
S'3.5'
p197
sg7
S'--'
p198
sg9
g14
sg11
S'--'
p199
sg13
g14
sg15
g10
sg16
S'2014'
p200
sg18
g14
sg20
S'2.6'
p201
sg22
S'09/07'
p202
sg24
g10
sg25
S'Stevan Ridley'
p203
sg27
g175
sg29
S'L20-33'
p204
sg31
g40
sg33
g86
sg34
S'@MIA'
p205
sg36
g28
sg38
S'21'
p206
sg39
S'11'
p207
ssg52
(dp208
g5
S'7.0'
p209
sg7
S'--'
p210
sg9
g14
sg11
S'--'
p211
sg13
g14
sg15
g10
sg16
S'2014'
p212
sg18
g52
sg20
S'2.8'
p213
sg22
S'09/21'
p214
sg24
g10
sg25
S'Stevan Ridley'
p215
sg27
S'19'
p216
sg29
S'W16-9'
p217
sg31
g40
sg33
g14
sg34
S'OAK'
p218
sg36
g40
sg38
S'54'
p219
sg39
g134
ssg86
(dp220
g5
S'--'
p221
sg7
S'--'
p222
sg9
g14
sg11
S'--'
p223
sg13
g14
sg15
S'--'
p224
sg16
S'2014'
p225
sg18
g86
sg20
S'4.0'
p226
sg22
S'09/14'
p227
sg24
g14
sg25
S'Stevan Ridley'
p228
sg27
S'25'
p229
sg29
S'W30-7'
p230
sg31
S'--'
p231
sg33
S'--'
p232
sg34
S'@MIN'
p233
sg36
S'--'
p234
sg38
S'101'
p235
sg39
S'16'
p236
ssS'5'
p237
(dp238
g5
S'--'
p239
sg7
S'--'
p240
sg9
g14
sg11
S'--'
p241
sg13
g14
sg15
S'--'
p242
sg16
S'2014'
p243
sg18
g237
sg20
S'4.2'
p244
sg22
S'10/05'
p245
sg24
g14
sg25
S'Stevan Ridley'
p246
sg27
S'27'
p247
sg29
S'W43-17'
p248
sg31
S'--'
p249
sg33
S'--'
p250
sg34
S'CIN'
p251
sg36
S'--'
p252
sg38
S'113'
p253
sg39
S'43'
p254
ssg28
(dp255
g5
S'--'
p256
sg7
S'--'
p257
sg9
g10
sg11
S'--'
p258
sg13
g14
sg15
g10
sg16
S'2014'
p259
sg18
g28
sg20
S'5.6'
p260
sg22
S'09/29'
p261
sg24
g10
sg25
S'Stevan Ridley'
p262
sg27
g237
sg29
S'L14-41'
p263
sg31
g10
sg33
g10
sg34
S'@KC'
p264
sg36
S'--'
p265
sg38
S'28'
p266
sg39
g175
ssg116
(dp267
g5
S'6.0'
p268
sg7
S'--'
p269
sg9
g14
sg11
S'--'
p270
sg13
g14
sg15
g10
sg16
S'2014'
p271
sg18
g116
sg20
S'2.3'
p272
sg22
S'10/12'
p273
sg24
g10
sg25
S'Stevan Ridley'
p274
sg27
S'10'
p275
sg29
S'W37-22'
p276
sg31
g116
sg33
g14
sg34
S'@BUF'
p277
sg36
g116
sg38
S'23'
p278
sg39
S'10'
p279
sssS'2011'
p280
(dp281
g3
(dp282
g5
S'--'
p283
sg7
S'--'
p284
sg9
g10
sg11
S'--'
p285
sg13
g14
sg15
S'--'
p286
sg16
S'2011'
p287
sg18
S'11'
p288
sg20
S'--'
p289
sg22
S'11/21'
p290
sg24
S'--'
p291
sg25
S'Stevan Ridley'
p292
sg27
S'--'
p293
sg29
S'W34-3'
p294
sg31
S'--'
p295
sg33
S'--'
p296
sg34
S'KC'
p297
sg36
S'--'
p298
sg38
S'--'
p299
sg39
S'--'
p300
ssg41
(dp301
g5
S'--'
p302
sg7
S'--'
p303
sg9
g10
sg11
S'--'
p304
sg13
g14
sg15
S'--'
p305
sg16
S'2011'
p306
sg18
S'10'
p307
sg20
S'0.8'
p308
sg22
S'11/13'
p309
sg24
g10
sg25
S'Stevan Ridley'
p310
sg27
g237
sg29
S'W37-16'
p311
sg31
S'--'
p312
sg33
S'--'
p313
sg34
S'@NYJ'
p314
sg36
S'--'
p315
sg38
g28
sg39
g52
ssg59
(dp316
g5
S'--'
p317
sg7
S'--'
p318
sg9
g10
sg11
S'--'
p319
sg13
g14
sg15
S'--'
p320
sg16
S'2011'
p321
sg18
S'13'
p322
sg20
S'4.1'
p323
sg22
S'12/04'
p324
sg24
g10
sg25
S'Stevan Ridley'
p325
sg27
g175
sg29
S'W31-24'
p326
sg31
S'--'
p327
sg33
S'--'
p328
sg34
S'IND'
p329
sg36
S'--'
p330
sg38
S'33'
p331
sg39
g175
ssg75
(dp332
g5
S'--'
p333
sg7
S'--'
p334
sg9
g10
sg11
S'--'
p335
sg13
g14
sg15
S'--'
p336
sg16
S'2011'
p337
sg18
S'12'
p338
sg20
S'1.0'
p339
sg22
S'11/27'
p340
sg24
g10
sg25
S'Stevan Ridley'
p341
sg27
g28
sg29
S'W38-20'
p342
sg31
S'--'
p343
sg33
S'--'
p344
sg34
S'@PHI'
p345
sg36
S'--'
p346
sg38
g28
sg39
g116
ssg92
(dp347
g5
S'--'
p348
sg7
S'--'
p349
sg9
g10
sg11
S'--'
p350
sg13
g14
sg15
S'--'
p351
sg16
S'2011'
p352
sg18
S'15'
p353
sg20
S'5.9'
p354
sg22
S'12/18'
p355
sg24
g10
sg25
S'Stevan Ridley'
p356
sg27
S'11'
p357
sg29
S'W41-23'
p358
sg31
S'--'
p359
sg33
S'--'
p360
sg34
S'@DEN'
p361
sg36
S'--'
p362
sg38
S'65'
p363
sg39
S'24'
p364
ssg105
(dp365
g5
S'--'
p366
sg7
S'--'
p367
sg9
g10
sg11
S'--'
p368
sg13
g14
sg15
S'--'
p369
sg16
S'2011'
p370
sg18
S'14'
p371
sg20
S'--'
p372
sg22
S'12/11'
p373
sg24
S'--'
p374
sg25
S'Stevan Ridley'
p375
sg27
S'--'
p376
sg29
S'W34-27'
p377
sg31
S'--'
p378
sg33
S'--'
p379
sg34
S'@WAS'
p380
sg36
S'--'
p381
sg38
S'--'
p382
sg39
S'--'
p383
ssg124
(dp384
g5
S'--'
p385
sg7
g14
sg9
g14
sg11
g10
sg13
g14
sg15
S'--'
p386
sg16
S'2011'
p387
sg18
S'17'
p388
sg20
S'5.4'
p389
sg22
S'01/01'
p390
sg24
g10
sg25
S'Stevan Ridley'
p391
sg27
S'15'
p392
sg29
S'W49-21'
p393
sg31
S'--'
p394
sg33
S'--'
p395
sg34
S'BUF'
p396
sg36
S'--'
p397
sg38
S'81'
p398
sg39
S'21'
p399
ssg139
(dp400
g5
S'--'
p401
sg7
S'--'
p402
sg9
g10
sg11
S'--'
p403
sg13
g14
sg15
g10
sg16
S'2011'
p404
sg18
S'16'
p405
sg20
S'4.9'
p406
sg22
S'12/24'
p407
sg24
g10
sg25
S'Stevan Ridley'
p408
sg27
S'13'
p409
sg29
S'W27-24'
p410
sg31
g10
sg33
g10
sg34
S'MIA'
p411
sg36
S'--'
p412
sg38
S'64'
p413
sg39
S'18'
p414
ssg14
(dp415
g5
S'--'
p416
sg7
S'--'
p417
sg9
g10
sg11
S'--'
p418
sg13
g14
sg15
S'--'
p419
sg16
S'2011'
p420
sg18
g14
sg20
S'--'
p421
sg22
S'09/12'
p422
sg24
S'--'
p423
sg25
S'Stevan Ridley'
p424
sg27
S'--'
p425
sg29
S'W38-24'
p426
sg31
S'--'
p427
sg33
S'--'
p428
sg34
S'@MIA'
p429
sg36
S'--'
p430
sg38
S'--'
p431
sg39
S'--'
p432
ssg52
(dp433
g5
S'8.0'
p434
sg7
S'--'
p435
sg9
g10
sg11
S'--'
p436
sg13
g14
sg15
g10
sg16
S'2011'
p437
sg18
g52
sg20
S'7.0'
p438
sg22
S'09/25'
p439
sg24
g10
sg25
S'Stevan Ridley'
p440
sg27
g116
sg29
S'L31-34'
p441
sg31
g175
sg33
g14
sg34
S'@BUF'
p442
sg36
g175
sg38
S'42'
p443
sg39
S'16'
p444
ssg86
(dp445
g5
S'--'
p446
sg7
S'--'
p447
sg9
g10
sg11
S'--'
p448
sg13
g14
sg15
S'--'
p449
sg16
S'2011'
p450
sg18
g86
sg20
S'4.5'
p451
sg22
S'09/18'
p452
sg24
g10
sg25
S'Stevan Ridley'
p453
sg27
g86
sg29
S'W35-21'
p454
sg31
S'--'
p455
sg33
S'--'
p456
sg34
S'SD'
p457
sg36
S'--'
p458
sg38
g134
sg39
g116
ssg237
(dp459
g5
S'--'
p460
sg7
S'--'
p461
sg9
g10
sg11
S'--'
p462
sg13
g14
sg15
S'--'
p463
sg16
S'2011'
p464
sg18
g237
sg20
S'1.9'
p465
sg22
S'10/09'
p466
sg24
g10
sg25
S'Stevan Ridley'
p467
sg27
g40
sg29
S'W30-21'
p468
sg31
S'--'
p469
sg33
S'--'
p470
sg34
S'NYJ'
p471
sg36
S'--'
p472
sg38
S'13'
p473
sg39
g237
ssg28
(dp474
g5
S'3.0'
p475
sg7
S'--'
p476
sg9
g10
sg11
S'--'
p477
sg13
g14
sg15
g10
sg16
S'2011'
p478
sg18
g28
sg20
S'9.7'
p479
sg22
S'10/02'
p480
sg24
g14
sg25
S'Stevan Ridley'
p481
sg27
S'10'
p482
sg29
S'W31-19'
p483
sg31
g52
sg33
g14
sg34
S'@OAK'
p484
sg36
g52
sg38
S'97'
p485
sg39
S'33T'
p486
ssg40
(dp487
g5
S''
p488
sg7
g488
sg9
g488
sg11
g488
sg13
g488
sg15
g488
sg16
S'2011'
p489
sg18
g40
sg20
g488
sg22
S'Bye'
p490
sg24
g488
sg25
S'Stevan Ridley'
p491
sg27
g488
sg29
g488
sg31
g488
sg33
g488
sg34
g488
sg36
g488
sg38
g488
sg39
g488
ssg116
(dp492
g5
S'--'
p493
sg7
S'--'
p494
sg9
g14
sg11
S'--'
p495
sg13
g14
sg15
S'--'
p496
sg16
S'2011'
p497
sg18
g116
sg20
S'6.3'
p498
sg22
S'10/16'
p499
sg24
g10
sg25
S'Stevan Ridley'
p500
sg27
g52
sg29
S'W20-16'
p501
sg31
S'--'
p502
sg33
S'--'
p503
sg34
S'DAL'
p504
sg36
S'--'
p505
sg38
S'19'
p506
sg39
S'16'
p507
ssg134
(dp508
g5
S'2.0'
p509
sg7
S'--'
p510
sg9
g10
sg11
S'--'
p511
sg13
g14
sg15
g10
sg16
S'2011'
p512
sg18
g134
sg20
S'3.3'
p513
sg22
S'11/06'
p514
sg24
g10
sg25
S'Stevan Ridley'
p515
sg27
g52
sg29
S'L20-24'
p516
sg31
g86
sg33
g14
sg34
S'NYG'
p517
sg36
g86
sg38
S'10'
p518
sg39
g116
ssg175
(dp519
g5
S'--'
p520
sg7
S'--'
p521
sg9
g10
sg11
S'--'
p522
sg13
g14
sg15
S'--'
p523
sg16
S'2011'
p524
sg18
g175
sg20
S'--'
p525
sg22
S'10/30'
p526
sg24
S'--'
p527
sg25
S'Stevan Ridley'
p528
sg27
S'--'
p529
sg29
S'L17-25'
p530
sg31
S'--'
p531
sg33
S'--'
p532
sg34
S'@PIT'
p533
sg36
S'--'
p534
sg38
S'--'
p535
sg39
S'--'
p536
sssS'2013'
p537
(dp538
g3
(dp539
g5
S'--'
p540
sg7
g14
sg9
g14
sg11
g14
sg13
g14
sg15
S'--'
p541
sg16
S'2013'
p542
sg18
S'11'
p543
sg20
S'3.7'
p544
sg22
S'11/18'
p545
sg24
g14
sg25
S'Stevan Ridley'
p546
sg27
S'13'
p547
sg29
S'L20-24'
p548
sg31
S'--'
p549
sg33
S'--'
p550
sg34
S'@CAR'
p551
sg36
S'--'
p552
sg38
S'48'
p553
sg39
S'13'
p554
ssg41
(dp555
g5
g488
sg7
g488
sg9
g488
sg11
g488
sg13
g488
sg15
g488
sg16
S'2013'
p556
sg18
S'10'
p557
sg20
g488
sg22
S'Bye'
p558
sg24
g488
sg25
S'Stevan Ridley'
p559
sg27
g488
sg29
g488
sg31
g488
sg33
g488
sg34
g488
sg36
g488
sg38
g488
sg39
g488
ssg59
(dp560
g5
S'--'
p561
sg7
S'--'
p562
sg9
g10
sg11
S'--'
p563
sg13
g10
sg15
S'--'
p564
sg16
S'2013'
p565
sg18
S'13'
p566
sg20
S'--'
p567
sg22
S'12/01'
p568
sg24
S'--'
p569
sg25
S'Stevan Ridley'
p570
sg27
S'--'
p571
sg29
S'W34-31'
p572
sg31
S'--'
p573
sg33
S'--'
p574
sg34
S'@HOU'
p575
sg36
S'--'
p576
sg38
S'--'
p577
sg39
S'--'
p578
ssg75
(dp579
g5
S'--'
p580
sg7
g14
sg9
g14
sg11
g14
sg13
g14
sg15
S'--'
p581
sg16
S'2013'
p582
sg18
S'12'
p583
sg20
S'3.5'
p584
sg22
S'11/24'
p585
sg24
g10
sg25
S'Stevan Ridley'
p586
sg27
g28
sg29
S'W34-31'
p587
sg31
S'--'
p588
sg33
S'--'
p589
sg34
S'DEN'
p590
sg36
S'--'
p591
sg38
S'14'
p592
sg39
g40
ssg92
(dp593
g5
S'--'
p594
sg7
S'--'
p595
sg9
g10
sg11
S'--'
p596
sg13
g14
sg15
S'--'
p597
sg16
S'2013'
p598
sg18
S'15'
p599
sg20
S'4.3'
p600
sg22
S'12/15'
p601
sg24
g10
sg25
S'Stevan Ridley'
p602
sg27
g175
sg29
S'L20-24'
p603
sg31
S'--'
p604
sg33
S'--'
p605
sg34
S'@MIA'
p606
sg36
S'--'
p607
sg38
S'34'
p608
sg39
S'11'
p609
ssg105
(dp610
g5
S'2.0'
p611
sg7
S'--'
p612
sg9
g10
sg11
S'--'
p613
sg13
g14
sg15
g10
sg16
S'2013'
p614
sg18
S'14'
p615
sg20
S'4.4'
p616
sg22
S'12/08'
p617
sg24
g10
sg25
S'Stevan Ridley'
p618
sg27
g175
sg29
S'W27-26'
p619
sg31
g86
sg33
g14
sg34
S'CLE'
p620
sg36
g86
sg38
S'35'
p621
sg39
S'12'
p622
ssg124
(dp623
g5
S'--'
p624
sg7
S'--'
p625
sg9
g10
sg11
S'--'
p626
sg13
g14
sg15
S'--'
p627
sg16
S'2013'
p628
sg18
S'17'
p629
sg20
S'6.2'
p630
sg22
S'12/29'
p631
sg24
g10
sg25
S'Stevan Ridley'
p632
sg27
S'12'
p633
sg29
S'W34-20'
p634
sg31
S'--'
p635
sg33
S'--'
p636
sg34
S'BUF'
p637
sg36
S'--'
p638
sg38
S'74'
p639
sg39
S'29'
p640
ssg139
(dp641
g5
S'--'
p642
sg7
S'--'
p643
sg9
g10
sg11
S'--'
p644
sg13
g14
sg15
g10
sg16
S'2013'
p645
sg18
S'16'
p646
sg20
S'3.6'
p647
sg22
S'12/22'
p648
sg24
g10
sg25
S'Stevan Ridley'
p649
sg27
S'15'
p650
sg29
S'W41-7'
p651
sg31
g10
sg33
g10
sg34
S'@BAL'
p652
sg36
S'--'
p653
sg38
S'54'
p654
sg39
g175
ssg14
(dp655
g5
S'--'
p656
sg7
g14
sg9
g14
sg11
g14
sg13
g14
sg15
S'--'
p657
sg16
S'2013'
p658
sg18
g14
sg20
S'5.1'
p659
sg22
S'09/08'
p660
sg24
g10
sg25
S'Stevan Ridley'
p661
sg27
g134
sg29
S'W23-21'
p662
sg31
S'--'
p663
sg33
S'--'
p664
sg34
S'@BUF'
p665
sg36
S'--'
p666
sg38
S'46'
p667
sg39
S'20'
p668
ssg52
(dp669
g5
S'8.0'
p670
sg7
S'--'
p671
sg9
g10
sg11
S'--'
p672
sg13
g14
sg15
g10
sg16
S'2013'
p673
sg18
g52
sg20
S'3.2'
p674
sg22
S'09/22'
p675
sg24
g10
sg25
S'Stevan Ridley'
p676
sg27
S'11'
p677
sg29
S'W23-3'
p678
sg31
g175
sg33
g14
sg34
S'TB'
p679
sg36
g175
sg38
S'35'
p680
sg39
g134
ssg86
(dp681
g5
S'--'
p682
sg7
S'--'
p683
sg9
g14
sg11
S'--'
p684
sg13
g14
sg15
S'--'
p685
sg16
S'2013'
p686
sg18
g86
sg20
S'2.5'
p687
sg22
S'09/12'
p688
sg24
g10
sg25
S'Stevan Ridley'
p689
sg27
S'16'
p690
sg29
S'W13-10'
p691
sg31
S'--'
p692
sg33
S'--'
p693
sg34
S'NYJ'
p694
sg36
S'--'
p695
sg38
S'40'
p696
sg39
g134
ssg237
(dp697
g5
S'--'
p698
sg7
S'--'
p699
sg9
g10
sg11
S'--'
p700
sg13
g10
sg15
S'--'
p701
sg16
S'2013'
p702
sg18
g237
sg20
S'--'
p703
sg22
S'10/06'
p704
sg24
S'--'
p705
sg25
S'Stevan Ridley'
p706
sg27
S'--'
p707
sg29
S'L6-13'
p708
sg31
S'--'
p709
sg33
S'--'
p710
sg34
S'@CIN'
p711
sg36
S'--'
p712
sg38
S'--'
p713
sg39
S'--'
p714
ssg28
(dp715
g5
S'13.0'
p716
sg7
S'--'
p717
sg9
g14
sg11
S'--'
p718
sg13
g14
sg15
g10
sg16
S'2013'
p719
sg18
g28
sg20
S'4.8'
p720
sg22
S'09/29'
p721
sg24
g10
sg25
S'Stevan Ridley'
p722
sg27
S'11'
p723
sg29
S'W30-23'
p724
sg31
S'26'
p725
sg33
g86
sg34
S'@ATL'
p726
sg36
S'24'
p727
sg38
S'53'
p728
sg39
S'14'
p729
ssg40
(dp730
g5
S'1.5'
p731
sg7
S'--'
p732
sg9
g10
sg11
S'--'
p733
sg13
g14
sg15
g10
sg16
S'2013'
p734
sg18
g40
sg20
S'4.5'
p735
sg22
S'10/20'
p736
sg24
g14
sg25
S'Stevan Ridley'
p737
sg27
S'11'
p738
sg29
S'L27-30'
p739
sg31
g52
sg33
g86
sg34
S'@NYJ'
p740
sg36
g237
sg38
S'50'
p741
sg39
S'17T'
p742
ssg116
(dp743
g5
S'14.0'
p744
sg7
S'--'
p745
sg9
g10
sg11
S'--'
p746
sg13
g14
sg15
g10
sg16
S'2013'
p747
sg18
g116
sg20
S'4.8'
p748
sg22
S'10/13'
p749
sg24
g86
sg25
S'Stevan Ridley'
p750
sg27
S'20'
p751
sg29
S'W30-27'
p752
sg31
S'14'
p753
sg33
g14
sg34
S'NO'
p754
sg36
S'14'
p755
sg38
S'96'
p756
sg39
S'19'
p757
ssg134
(dp758
g5
S'3.0'
p759
sg7
g14
sg9
g14
sg11
g14
sg13
g14
sg15
g10
sg16
S'2013'
p760
sg18
g134
sg20
S'4.4'
p761
sg22
S'11/03'
p762
sg24
g86
sg25
S'Stevan Ridley'
p763
sg27
S'26'
p764
sg29
S'W55-31'
p765
sg31
g134
sg33
g52
sg34
S'PIT'
p766
sg36
g237
sg38
S'115'
p767
sg39
S'13'
p768
ssg175
(dp769
g5
S'--'
p770
sg7
S'--'
p771
sg9
g10
sg11
S'--'
p772
sg13
g14
sg15
S'--'
p773
sg16
S'2013'
p774
sg18
g175
sg20
S'5.6'
p775
sg22
S'10/27'
p776
sg24
g14
sg25
S'Stevan Ridley'
p777
sg27
S'14'
p778
sg29
S'W27-17'
p779
sg31
S'--'
p780
sg33
S'--'
p781
sg34
S'MIA'
p782
sg36
S'--'
p783
sg38
S'79'
p784
sg39
S'23'
p785
sssS'2012'
p786
(dp787
g3
(dp788
g5
S'--'
p789
sg7
S'--'
p790
sg9
g14
sg11
S'--'
p791
sg13
g14
sg15
S'--'
p792
sg16
S'2012'
p793
sg18
S'11'
p794
sg20
S'2.2'
p795
sg22
S'11/18'
p796
sg24
g14
sg25
S'Stevan Ridley'
p797
sg27
S'13'
p798
sg29
S'W59-24'
p799
sg31
S'--'
p800
sg33
S'--'
p801
sg34
S'IND'
p802
sg36
S'--'
p803
sg38
S'28'
p804
sg39
S'11'
p805
ssg41
(dp806
g5
S'--'
p807
sg7
S'--'
p808
sg9
g14
sg11
S'--'
p809
sg13
g14
sg15
g10
sg16
S'2012'
p810
sg18
S'10'
p811
sg20
S'4.5'
p812
sg22
S'11/11'
p813
sg24
g14
sg25
S'Stevan Ridley'
p814
sg27
S'22'
p815
sg29
S'W37-31'
p816
sg31
g10
sg33
g10
sg34
S'BUF'
p817
sg36
S'--'
p818
sg38
S'98'
p819
sg39
S'24'
p820
ssg59
(dp821
g5
S'--'
p822
sg7
S'--'
p823
sg9
g14
sg11
S'--'
p824
sg13
g14
sg15
S'--'
p825
sg16
S'2012'
p826
sg18
S'13'
p827
sg20
S'3.7'
p828
sg22
S'12/02'
p829
sg24
g14
sg25
S'Stevan Ridley'
p830
sg27
S'19'
p831
sg29
S'W23-16'
p832
sg31
S'--'
p833
sg33
S'--'
p834
sg34
S'@MIA'
p835
sg36
S'--'
p836
sg38
S'71'
p837
sg39
S'11'
p838
ssg75
(dp839
g5
S'--'
p840
sg7
S'--'
p841
sg9
g14
sg11
S'--'
p842
sg13
g14
sg15
S'--'
p843
sg16
S'2012'
p844
sg18
S'12'
p845
sg20
S'4.6'
p846
sg22
S'11/22'
p847
sg24
g14
sg25
S'Stevan Ridley'
p848
sg27
S'21'
p849
sg29
S'W49-19'
p850
sg31
S'--'
p851
sg33
S'--'
p852
sg34
S'@NYJ'
p853
sg36
S'--'
p854
sg38
S'97'
p855
sg39
S'9T'
p856
ssg92
(dp857
g5
S'--'
p858
sg7
g14
sg9
g14
sg11
g14
sg13
g14
sg15
g10
sg16
S'2012'
p859
sg18
S'15'
p860
sg20
S'2.6'
p861
sg22
S'12/16'
p862
sg24
g10
sg25
S'Stevan Ridley'
p863
sg27
g134
sg29
S'L34-41'
p864
sg31
g10
sg33
g10
sg34
S'SF'
p865
sg36
S'--'
p866
sg38
S'23'
p867
sg39
g134
ssg105
(dp868
g5
S'--'
p869
sg7
g14
sg9
g14
sg11
g10
sg13
g14
sg15
S'--'
p870
sg16
S'2012'
p871
sg18
S'14'
p872
sg20
S'4.0'
p873
sg22
S'12/10'
p874
sg24
g14
sg25
S'Stevan Ridley'
p875
sg27
S'18'
p876
sg29
S'W42-14'
p877
sg31
S'--'
p878
sg33
S'--'
p879
sg34
S'HOU'
p880
sg36
S'--'
p881
sg38
S'72'
p882
sg39
S'14T'
p883
ssg124
(dp884
g5
S'--'
p885
sg7
S'--'
p886
sg9
g10
sg11
S'--'
p887
sg13
g14
sg15
S'--'
p888
sg16
S'2012'
p889
sg18
S'17'
p890
sg20
S'3.7'
p891
sg22
S'12/30'
p892
sg24
g86
sg25
S'Stevan Ridley'
p893
sg27
S'20'
p894
sg29
S'W28-0'
p895
sg31
S'--'
p896
sg33
S'--'
p897
sg34
S'MIA'
p898
sg36
S'--'
p899
sg38
S'74'
p900
sg39
S'13'
p901
ssg139
(dp902
g5
S'--'
p903
sg7
S'--'
p904
sg9
g14
sg11
S'--'
p905
sg13
g14
sg15
g10
sg16
S'2012'
p906
sg18
S'16'
p907
sg20
S'4.7'
p908
sg22
S'12/23'
p909
sg24
g10
sg25
S'Stevan Ridley'
p910
sg27
S'18'
p911
sg29
S'W23-16'
p912
sg31
g10
sg33
g10
sg34
S'@JAC'
p913
sg36
S'--'
p914
sg38
S'84'
p915
sg39
S'16'
p916
ssg14
(dp917
g5
S'13.5'
p918
sg7
S'--'
p919
sg9
g14
sg11
S'--'
p920
sg13
g14
sg15
g10
sg16
S'2012'
p921
sg18
g14
sg20
S'6.0'
p922
sg22
S'09/09'
p923
sg24
g14
sg25
S'Stevan Ridley'
p924
sg27
S'21'
p925
sg29
S'W34-13'
p926
sg31
S'27'
p927
sg33
g86
sg34
S'@TEN'
p928
sg36
S'20'
p929
sg38
S'125'
p930
sg39
S'17'
p931
ssg52
(dp932
g5
S'--'
p933
sg7
S'--'
p934
sg9
g14
sg11
S'--'
p935
sg13
g14
sg15
g10
sg16
S'2012'
p936
sg18
g52
sg20
S'2.8'
p937
sg22
S'09/23'
p938
sg24
g10
sg25
S'Stevan Ridley'
p939
sg27
S'13'
p940
sg29
S'L30-31'
p941
sg31
g10
sg33
g10
sg34
S'@BAL'
p942
sg36
S'--'
p943
sg38
S'37'
p944
sg39
S'14'
p945
ssg86
(dp946
g5
S'8.0'
p947
sg7
S'--'
p948
sg9
g14
sg11
S'--'
p949
sg13
g14
sg15
g10
sg16
S'2012'
p950
sg18
g86
sg20
S'3.9'
p951
sg22
S'09/16'
p952
sg24
g10
sg25
S'Stevan Ridley'
p953
sg27
S'18'
p954
sg29
S'L18-20'
p955
sg31
S'24'
p956
sg33
g52
sg34
S'ARI'
p957
sg36
S'16'
p958
sg38
S'71'
p959
sg39
S'20'
p960
ssg237
(dp961
g5
S'--'
p962
sg7
g14
sg9
g10
sg11
g14
sg13
g14
sg15
S'--'
p963
sg16
S'2012'
p964
sg18
g237
sg20
S'5.4'
p965
sg22
S'10/07'
p966
sg24
g14
sg25
S'Stevan Ridley'
p967
sg27
S'28'
p968
sg29
S'W31-21'
p969
sg31
S'--'
p970
sg33
S'--'
p971
sg34
S'DEN'
p972
sg36
S'--'
p973
sg38
S'151'
p974
sg39
S'20'
p975
ssg28
(dp976
g5
S'--'
p977
sg7
g14
sg9
g14
sg11
g10
sg13
g14
sg15
S'--'
p978
sg16
S'2012'
p979
sg18
g28
sg20
S'4.8'
p980
sg22
S'09/30'
p981
sg24
g86
sg25
S'Stevan Ridley'
p982
sg27
S'22'
p983
sg29
S'W52-28'
p984
sg31
S'--'
p985
sg33
S'--'
p986
sg34
S'@BUF'
p987
sg36
S'--'
p988
sg38
S'106'
p989
sg39
S'13'
p990
ssg40
(dp991
g5
S'--'
p992
sg7
S'--'
p993
sg9
g10
sg11
S'--'
p994
sg13
g14
sg15
S'--'
p995
sg16
S'2012'
p996
sg18
g40
sg20
S'3.8'
p997
sg22
S'10/21'
p998
sg24
g10
sg25
S'Stevan Ridley'
p999
sg27
S'17'
p1000
sg29
S'W29-26'
p1001
sg31
S'--'
p1002
sg33
S'--'
p1003
sg34
S'NYJ'
p1004
sg36
S'--'
p1005
sg38
S'65'
p1006
sg39
S'12'
p1007
ssg116
(dp1008
g5
S'0.0'
p1009
sg7
S'--'
p1010
sg9
g10
sg11
S'--'
p1011
sg13
g14
sg15
g10
sg16
S'2012'
p1012
sg18
g116
sg20
S'2.1'
p1013
sg22
S'10/14'
p1014
sg24
g10
sg25
S'Stevan Ridley'
p1015
sg27
S'16'
p1016
sg29
S'L23-24'
p1017
sg31
g10
sg33
g14
sg34
S'@SEA'
p1018
sg36
g10
sg38
S'34'
p1019
sg39
g116
ssg134
(dp1020
g5
g488
sg7
g488
sg9
g488
sg11
g488
sg13
g488
sg15
g488
sg16
S'2012'
p1021
sg18
g134
sg20
g488
sg22
S'Bye'
p1022
sg24
g488
sg25
S'Stevan Ridley'
p1023
sg27
g488
sg29
g488
sg31
g488
sg33
g488
sg34
g488
sg36
g488
sg38
g488
sg39
g488
ssg175
(dp1024
g5
S'--'
p1025
sg7
S'--'
p1026
sg9
g14
sg11
S'--'
p1027
sg13
g14
sg15
S'--'
p1028
sg16
S'2012'
p1029
sg18
g175
sg20
S'8.5'
p1030
sg22
S'10/28'
p1031
sg24
g14
sg25
S'Stevan Ridley'
p1032
sg27
S'15'
p1033
sg29
S'W45-7'
p1034
sg31
S'--'
p1035
sg33
S'--'
p1036
sg34
S'@STL'
p1037
sg36
S'--'
p1038
sg38
S'127'
p1039
sg39
S'41'
p1040
sss.