(dp0
S'2014'
p1
(dp2
S'11'
p3
(dp4
S'RecAvg'
p5
S''
p6
sS'FUM'
p7
g6
sS'GS'
p8
g6
sS'Lost'
p9
g6
sS'G'
p10
g6
sS'RecTD'
p11
g6
sS'Year'
p12
S'2014'
p13
sS'WK'
p14
S'11'
p15
sS'RushAvg'
p16
g6
sS'Game Date'
p17
S'Bye'
p18
sS'RushTD'
p19
g6
sS'Player'
p20
S'Storm Johnson'
p21
sS'RushAtt'
p22
g6
sS'Result'
p23
g6
sS'RecYds'
p24
g6
sS'Rec'
p25
g6
sS'Opp'
p26
g6
sS'RecLng'
p27
g6
sS'RushYds'
p28
g6
sS'RushLng'
p29
g6
ssS'10'
p30
(dp31
g5
S'--'
p32
sg7
S'--'
p33
sg8
S'0'
p34
sg9
S'--'
p35
sg10
g34
sg11
S'--'
p36
sg12
S'2014'
p37
sg14
S'10'
p38
sg16
S'--'
p39
sg17
S'11/09'
p40
sg19
S'--'
p41
sg20
S'Storm Johnson'
p42
sg22
S'--'
p43
sg23
S'L17-31'
p44
sg24
S'--'
p45
sg25
S'--'
p46
sg26
S'DAL'
p47
sg27
S'--'
p48
sg28
S'--'
p49
sg29
S'--'
p50
ssS'13'
p51
(dp52
g5
S'--'
p53
sg7
S'--'
p54
sg8
g34
sg9
S'--'
p55
sg10
g34
sg11
S'--'
p56
sg12
S'2014'
p57
sg14
S'13'
p58
sg16
S'--'
p59
sg17
S'11/30'
p60
sg19
S'--'
p61
sg20
S'Storm Johnson'
p62
sg22
S'--'
p63
sg23
S'W25-24'
p64
sg24
S'--'
p65
sg25
S'--'
p66
sg26
S'NYG'
p67
sg27
S'--'
p68
sg28
S'--'
p69
sg29
S'--'
p70
ssS'12'
p71
(dp72
g5
S'--'
p73
sg7
S'--'
p74
sg8
g34
sg9
S'--'
p75
sg10
g34
sg11
S'--'
p76
sg12
S'2014'
p77
sg14
S'12'
p78
sg16
S'--'
p79
sg17
S'11/23'
p80
sg19
S'--'
p81
sg20
S'Storm Johnson'
p82
sg22
S'--'
p83
sg23
S'L3-23'
p84
sg24
S'--'
p85
sg25
S'--'
p86
sg26
S'@IND'
p87
sg27
S'--'
p88
sg28
S'--'
p89
sg29
S'--'
p90
ssS'15'
p91
(dp92
g5
S'--'
p93
sg7
S'--'
p94
sg8
g34
sg9
S'--'
p95
sg10
S'1'
p96
sg11
S'--'
p97
sg12
S'2014'
p98
sg14
S'15'
p99
sg16
S'3.2'
p100
sg17
S'12/14'
p101
sg19
g34
sg20
S'Storm Johnson'
p102
sg22
S'6'
p103
sg23
S'L12-20'
p104
sg24
S'--'
p105
sg25
S'--'
p106
sg26
S'@BAL'
p107
sg27
S'--'
p108
sg28
S'19'
p109
sg29
S'17'
p110
ssS'14'
p111
(dp112
g5
S'--'
p113
sg7
S'--'
p114
sg8
g34
sg9
S'--'
p115
sg10
g34
sg11
S'--'
p116
sg12
S'2014'
p117
sg14
S'14'
p118
sg16
S'--'
p119
sg17
S'12/07'
p120
sg19
S'--'
p121
sg20
S'Storm Johnson'
p122
sg22
S'--'
p123
sg23
S'L13-27'
p124
sg24
S'--'
p125
sg25
S'--'
p126
sg26
S'HOU'
p127
sg27
S'--'
p128
sg28
S'--'
p129
sg29
S'--'
p130
ssS'17'
p131
(dp132
g5
S'--'
p133
sg7
S'--'
p134
sg8
g34
sg9
S'--'
p135
sg10
g96
sg11
S'--'
p136
sg12
S'2014'
p137
sg14
S'17'
p138
sg16
S'--'
p139
sg17
S'12/28'
p140
sg19
S'--'
p141
sg20
S'Storm Johnson'
p142
sg22
S'--'
p143
sg23
S'L17-23'
p144
sg24
S'--'
p145
sg25
S'--'
p146
sg26
S'@HOU'
p147
sg27
S'--'
p148
sg28
S'--'
p149
sg29
S'--'
p150
ssS'16'
p151
(dp152
g5
S'--'
p153
sg7
S'--'
p154
sg8
g34
sg9
S'--'
p155
sg10
g96
sg11
S'--'
p156
sg12
S'2014'
p157
sg14
S'16'
p158
sg16
S'1.0'
p159
sg17
S'12/18'
p160
sg19
g34
sg20
S'Storm Johnson'
p161
sg22
S'3'
p162
sg23
S'W21-13'
p163
sg24
S'--'
p164
sg25
S'--'
p165
sg26
S'TEN'
p166
sg27
S'--'
p167
sg28
g162
sg29
S'2'
p168
ssg96
(dp169
g5
S'--'
p170
sg7
S'--'
p171
sg8
g34
sg9
S'--'
p172
sg10
g34
sg11
S'--'
p173
sg12
S'2014'
p174
sg14
g96
sg16
S'--'
p175
sg17
S'09/07'
p176
sg19
S'--'
p177
sg20
S'Storm Johnson'
p178
sg22
S'--'
p179
sg23
S'L17-34'
p180
sg24
S'--'
p181
sg25
S'--'
p182
sg26
S'@PHI'
p183
sg27
S'--'
p184
sg28
S'--'
p185
sg29
S'--'
p186
ssg162
(dp187
g5
S'--'
p188
sg7
S'--'
p189
sg8
g34
sg9
S'--'
p190
sg10
g34
sg11
S'--'
p191
sg12
S'2014'
p192
sg14
g162
sg16
S'--'
p193
sg17
S'09/21'
p194
sg19
S'--'
p195
sg20
S'Storm Johnson'
p196
sg22
S'--'
p197
sg23
S'L17-44'
p198
sg24
S'--'
p199
sg25
S'--'
p200
sg26
S'IND'
p201
sg27
S'--'
p202
sg28
S'--'
p203
sg29
S'--'
p204
ssg168
(dp205
g5
S'--'
p206
sg7
S'--'
p207
sg8
g34
sg9
S'--'
p208
sg10
g34
sg11
S'--'
p209
sg12
S'2014'
p210
sg14
g168
sg16
S'--'
p211
sg17
S'09/14'
p212
sg19
S'--'
p213
sg20
S'Storm Johnson'
p214
sg22
S'--'
p215
sg23
S'L10-41'
p216
sg24
S'--'
p217
sg25
S'--'
p218
sg26
S'@WAS'
p219
sg27
S'--'
p220
sg28
S'--'
p221
sg29
S'--'
p222
ssS'5'
p223
(dp224
g5
S'--'
p225
sg7
S'--'
p226
sg8
g34
sg9
S'--'
p227
sg10
g96
sg11
S'--'
p228
sg12
S'2014'
p229
sg14
g223
sg16
S'6.8'
p230
sg17
S'10/05'
p231
sg19
g34
sg20
S'Storm Johnson'
p232
sg22
S'4'
p233
sg23
S'L9-17'
p234
sg24
S'--'
p235
sg25
S'--'
p236
sg26
S'PIT'
p237
sg27
S'--'
p238
sg28
S'27'
p239
sg29
S'20'
p240
ssg233
(dp241
g5
S'--'
p242
sg7
S'--'
p243
sg8
g34
sg9
S'--'
p244
sg10
g34
sg11
S'--'
p245
sg12
S'2014'
p246
sg14
g233
sg16
S'--'
p247
sg17
S'09/28'
p248
sg19
S'--'
p249
sg20
S'Storm Johnson'
p250
sg22
S'--'
p251
sg23
S'L14-33'
p252
sg24
S'--'
p253
sg25
S'--'
p254
sg26
S'@SD'
p255
sg27
S'--'
p256
sg28
S'--'
p257
sg29
S'--'
p258
ssS'7'
p259
(dp260
g5
S'--'
p261
sg7
S'--'
p262
sg8
g34
sg9
S'--'
p263
sg10
g96
sg11
S'--'
p264
sg12
S'2014'
p265
sg14
g259
sg16
S'2.7'
p266
sg17
S'10/19'
p267
sg19
g96
sg20
S'Storm Johnson'
p268
sg22
g103
sg23
S'W24-6'
p269
sg24
S'--'
p270
sg25
S'--'
p271
sg26
S'CLE'
p272
sg27
S'--'
p273
sg28
S'16'
p274
sg29
g223
ssg103
(dp275
g5
S'-4.0'
p276
sg7
S'--'
p277
sg8
g96
sg9
S'--'
p278
sg10
g96
sg11
g34
sg12
S'2014'
p279
sg14
g103
sg16
S'2.1'
p280
sg17
S'10/12'
p281
sg19
g96
sg20
S'Storm Johnson'
p282
sg22
S'10'
p283
sg23
S'L14-16'
p284
sg24
S'-4'
p285
sg25
g96
sg26
S'@TEN'
p286
sg27
S'-4'
p287
sg28
S'21'
p288
sg29
g259
ssS'9'
p289
(dp290
g5
S'--'
p291
sg7
S'--'
p292
sg8
g34
sg9
S'--'
p293
sg10
g34
sg11
S'--'
p294
sg12
S'2014'
p295
sg14
g289
sg16
S'--'
p296
sg17
S'11/02'
p297
sg19
S'--'
p298
sg20
S'Storm Johnson'
p299
sg22
S'--'
p300
sg23
S'L23-33'
p301
sg24
S'--'
p302
sg25
S'--'
p303
sg26
S'@CIN'
p304
sg27
S'--'
p305
sg28
S'--'
p306
sg29
S'--'
p307
ssS'8'
p308
(dp309
g5
S'--'
p310
sg7
S'--'
p311
sg8
g34
sg9
S'--'
p312
sg10
g34
sg11
S'--'
p313
sg12
S'2014'
p314
sg14
g308
sg16
S'--'
p315
sg17
S'10/26'
p316
sg19
S'--'
p317
sg20
S'Storm Johnson'
p318
sg22
S'--'
p319
sg23
S'L13-27'
p320
sg24
S'--'
p321
sg25
S'--'
p322
sg26
S'MIA'
p323
sg27
S'--'
p324
sg28
S'--'
p325
sg29
S'--'
p326
sss.