(dp0
S'2015'
p1
(dp2
S'11'
p3
(dp4
S'RecAvg'
p5
S'9.3'
p6
sS'FUM'
p7
S'--'
p8
sS'GS'
p9
S'1'
p10
sS'Lost'
p11
S'--'
p12
sS'G'
p13
g10
sS'RecTD'
p14
S'0'
p15
sS'Year'
p16
S'2015'
p17
sS'WK'
p18
S'11'
p19
sS'RushAvg'
p20
S'3.9'
p21
sS'Game Date'
p22
S'11/19'
p23
sS'RushTD'
p24
g15
sS'Player'
p25
S'T.J. Yeldon'
p26
sS'RushAtt'
p27
S'14'
p28
sS'Result'
p29
S'W19-13'
p30
sS'RecYds'
p31
S'28'
p32
sS'Rec'
p33
S'3'
p34
sS'Opp'
p35
S'TEN'
p36
sS'RecLng'
p37
S'13'
p38
sS'RushYds'
p39
S'54'
p40
sS'RushLng'
p41
S'15'
p42
ssS'10'
p43
(dp44
g5
S'1.2'
p45
sg7
S'--'
p46
sg9
g10
sg11
S'--'
p47
sg13
g10
sg14
g15
sg16
S'2015'
p48
sg18
S'10'
p49
sg20
S'3.4'
p50
sg22
S'11/15'
p51
sg24
g15
sg25
S'T.J. Yeldon'
p52
sg27
S'18'
p53
sg29
S'W22-20'
p54
sg31
S'6'
p55
sg33
S'5'
p56
sg35
S'@BAL'
p57
sg37
S'7'
p58
sg39
S'61'
p59
sg41
S'16'
p60
ssS'13'
p61
(dp62
g5
S'19.8'
p63
sg7
S'--'
p64
sg9
g10
sg11
S'--'
p65
sg13
g10
sg14
g15
sg16
S'2015'
p66
sg18
S'13'
p67
sg20
S'3.8'
p68
sg22
S'12/06'
p69
sg24
g10
sg25
S'T.J. Yeldon'
p70
sg27
S'15'
p71
sg29
S'L39-42'
p72
sg31
S'79'
p73
sg33
S'4'
p74
sg35
S'@TEN'
p75
sg37
S'67'
p76
sg39
S'57'
p77
sg41
S'9'
p78
ssS'12'
p79
(dp80
g5
S'11.5'
p81
sg7
S'--'
p82
sg9
g10
sg11
S'--'
p83
sg13
g10
sg14
g15
sg16
S'2015'
p84
sg18
S'12'
p85
sg20
S'4.0'
p86
sg22
S'11/29'
p87
sg24
g15
sg25
S'T.J. Yeldon'
p88
sg27
g78
sg29
S'L25-31'
p89
sg31
S'46'
p90
sg33
g74
sg35
S'SD'
p91
sg37
S'20'
p92
sg39
S'36'
p93
sg41
S'21'
p94
ssS'15'
p95
(dp96
g5
S'--'
p97
sg7
S'--'
p98
sg9
g15
sg11
S'--'
p99
sg13
g15
sg14
S'--'
p100
sg16
S'2015'
p101
sg18
S'15'
p102
sg20
S'--'
p103
sg22
S'12/20'
p104
sg24
S'--'
p105
sg25
S'T.J. Yeldon'
p106
sg27
S'--'
p107
sg29
S'L17-23'
p108
sg31
S'--'
p109
sg33
S'--'
p110
sg35
S'ATL'
p111
sg37
S'--'
p112
sg39
S'--'
p113
sg41
S'--'
p114
ssS'14'
p115
(dp116
g5
S'1.0'
p117
sg7
S'--'
p118
sg9
g10
sg11
S'--'
p119
sg13
g10
sg14
g15
sg16
S'2015'
p120
sg18
S'14'
p121
sg20
S'5.6'
p122
sg22
S'12/13'
p123
sg24
g15
sg25
S'T.J. Yeldon'
p124
sg27
S'11'
p125
sg29
S'W51-16'
p126
sg31
g10
sg33
g10
sg35
S'IND'
p127
sg37
g10
sg39
S'62'
p128
sg41
S'14'
p129
ssS'17'
p130
(dp131
g5
S'--'
p132
sg7
S'--'
p133
sg9
g15
sg11
S'--'
p134
sg13
g15
sg14
S'--'
p135
sg16
S'2015'
p136
sg18
S'17'
p137
sg20
S'--'
p138
sg22
S'01/03'
p139
sg24
S'--'
p140
sg25
S'T.J. Yeldon'
p141
sg27
S'--'
p142
sg29
S'L6-30'
p143
sg31
S'--'
p144
sg33
S'--'
p145
sg35
S'@HOU'
p146
sg37
S'--'
p147
sg39
S'--'
p148
sg41
S'--'
p149
ssS'16'
p150
(dp151
g5
S'--'
p152
sg7
S'--'
p153
sg9
g15
sg11
S'--'
p154
sg13
g15
sg14
S'--'
p155
sg16
S'2015'
p156
sg18
S'16'
p157
sg20
S'--'
p158
sg22
S'12/27'
p159
sg24
S'--'
p160
sg25
S'T.J. Yeldon'
p161
sg27
S'--'
p162
sg29
S'L27-38'
p163
sg31
S'--'
p164
sg33
S'--'
p165
sg35
S'@NO'
p166
sg37
S'--'
p167
sg39
S'--'
p168
sg41
S'--'
p169
ssg10
(dp170
g5
S'5.3'
p171
sg7
S'--'
p172
sg9
g10
sg11
S'--'
p173
sg13
g10
sg14
g15
sg16
S'2015'
p174
sg18
g10
sg20
S'4.3'
p175
sg22
S'09/13'
p176
sg24
g15
sg25
S'T.J. Yeldon'
p177
sg27
S'12'
p178
sg29
S'L9-20'
p179
sg31
S'16'
p180
sg33
g34
sg35
S'CAR'
p181
sg37
g58
sg39
S'51'
p182
sg41
S'14'
p183
ssg34
(dp184
g5
S'4.5'
p185
sg7
S'--'
p186
sg9
g10
sg11
S'--'
p187
sg13
g10
sg14
g15
sg16
S'2015'
p188
sg18
g34
sg20
S'3.0'
p189
sg22
S'09/27'
p190
sg24
g15
sg25
S'T.J. Yeldon'
p191
sg27
S'11'
p192
sg29
S'L17-51'
p193
sg31
g78
sg33
S'2'
p194
sg35
S'@NE'
p195
sg37
g78
sg39
S'33'
p196
sg41
S'8'
p197
ssg194
(dp198
g5
S'4.3'
p199
sg7
S'--'
p200
sg9
g10
sg11
S'--'
p201
sg13
g10
sg14
g15
sg16
S'2015'
p202
sg18
g194
sg20
S'2.8'
p203
sg22
S'09/20'
p204
sg24
g15
sg25
S'T.J. Yeldon'
p205
sg27
S'25'
p206
sg29
S'W23-20'
p207
sg31
S'13'
p208
sg33
g34
sg35
S'MIA'
p209
sg37
S'11'
p210
sg39
S'70'
p211
sg41
S'12'
p212
ssg56
(dp213
g5
S'6.2'
p214
sg7
S'--'
p215
sg9
g10
sg11
S'--'
p216
sg13
g10
sg14
g10
sg16
S'2015'
p217
sg18
g56
sg20
S'2.9'
p218
sg22
S'10/11'
p219
sg24
g15
sg25
S'T.J. Yeldon'
p220
sg27
S'11'
p221
sg29
S'L31-38'
p222
sg31
S'31'
p223
sg33
g56
sg35
S'@TB'
p224
sg37
S'13'
p225
sg39
S'32'
p226
sg41
S'10'
p227
ssg74
(dp228
g5
S'2.0'
p229
sg7
S'--'
p230
sg9
g10
sg11
S'--'
p231
sg13
g10
sg14
g15
sg16
S'2015'
p232
sg18
g74
sg20
S'4.8'
p233
sg22
S'10/04'
p234
sg24
g15
sg25
S'T.J. Yeldon'
p235
sg27
S'22'
p236
sg29
S'L13-16'
p237
sg31
g74
sg33
g194
sg35
S'@IND'
p238
sg37
g56
sg39
S'105'
p239
sg41
S'36'
p240
ssg58
(dp241
g5
S'9.0'
p242
sg7
S'--'
p243
sg9
g10
sg11
S'--'
p244
sg13
g10
sg14
g15
sg16
S'2015'
p245
sg18
g58
sg20
S'5.8'
p246
sg22
S'10/25'
p247
sg24
g10
sg25
S'T.J. Yeldon'
p248
sg27
S'20'
p249
sg29
S'W34-31'
p250
sg31
g78
sg33
g10
sg35
S'BUF'
p251
sg37
g78
sg39
S'115'
p252
sg41
S'28T'
p253
ssg55
(dp254
g5
S'--'
p255
sg7
S'--'
p256
sg9
g15
sg11
S'--'
p257
sg13
g15
sg14
S'--'
p258
sg16
S'2015'
p259
sg18
g55
sg20
S'--'
p260
sg22
S'10/18'
p261
sg24
S'--'
p262
sg25
S'T.J. Yeldon'
p263
sg27
S'--'
p264
sg29
S'L20-31'
p265
sg31
S'--'
p266
sg33
S'--'
p267
sg35
S'HOU'
p268
sg37
S'--'
p269
sg39
S'--'
p270
sg41
S'--'
p271
ssg78
(dp272
g5
S'12.3'
p273
sg7
S'--'
p274
sg9
g10
sg11
S'--'
p275
sg13
g10
sg14
g15
sg16
S'2015'
p276
sg18
g78
sg20
S'4.6'
p277
sg22
S'11/08'
p278
sg24
g15
sg25
S'T.J. Yeldon'
p279
sg27
S'14'
p280
sg29
S'L23-28'
p281
sg31
S'37'
p282
sg33
g34
sg35
S'@NYJ'
p283
sg37
S'21'
p284
sg39
S'64'
p285
sg41
S'45'
p286
ssg197
(dp287
g5
S''
p288
sg7
g288
sg9
g288
sg11
g288
sg13
g288
sg14
g288
sg16
S'2015'
p289
sg18
g197
sg20
g288
sg22
S'Bye'
p290
sg24
g288
sg25
S'T.J. Yeldon'
p291
sg27
g288
sg29
g288
sg31
g288
sg33
g288
sg35
g288
sg37
g288
sg39
g288
sg41
g288
sss.