(dp0
S'2015'
p1
(dp2
S'11'
p3
(dp4
S'RecAvg'
p5
S'--'
p6
sS'FUM'
p7
S'--'
p8
sS'GS'
p9
S'0'
p10
sS'Lost'
p11
S'--'
p12
sS'G'
p13
S'1'
p14
sS'RecTD'
p15
S'--'
p16
sS'Year'
p17
S'2015'
p18
sS'WK'
p19
S'11'
p20
sS'RushAvg'
p21
S'2.0'
p22
sS'Game Date'
p23
S'11/22'
p24
sS'RushTD'
p25
g10
sS'Player'
p26
S'Taiwan Jones'
p27
sS'RushAtt'
p28
g14
sS'Result'
p29
S'L13-18'
p30
sS'RecYds'
p31
S'--'
p32
sS'Rec'
p33
S'--'
p34
sS'Opp'
p35
S'@DET'
p36
sS'RecLng'
p37
S'--'
p38
sS'RushYds'
p39
S'2'
p40
sS'RushLng'
p41
g40
ssS'10'
p42
(dp43
g5
S'--'
p44
sg7
S'--'
p45
sg9
g10
sg11
S'--'
p46
sg13
g14
sg15
S'--'
p47
sg17
S'2015'
p48
sg19
S'10'
p49
sg21
S'--'
p50
sg23
S'11/15'
p51
sg25
S'--'
p52
sg26
S'Taiwan Jones'
p53
sg28
S'--'
p54
sg29
S'L14-30'
p55
sg31
S'--'
p56
sg33
S'--'
p57
sg35
S'MIN'
p58
sg37
S'--'
p59
sg39
S'--'
p60
sg41
S'--'
p61
ssS'13'
p62
(dp63
g5
S'--'
p64
sg7
S'--'
p65
sg9
g10
sg11
S'--'
p66
sg13
g10
sg15
S'--'
p67
sg17
S'2015'
p68
sg19
S'13'
p69
sg21
S'--'
p70
sg23
S'12/06'
p71
sg25
S'--'
p72
sg26
S'Taiwan Jones'
p73
sg28
S'--'
p74
sg29
S'L20-34'
p75
sg31
S'--'
p76
sg33
S'--'
p77
sg35
S'KC'
p78
sg37
S'--'
p79
sg39
S'--'
p80
sg41
S'--'
p81
ssS'12'
p82
(dp83
g5
S'--'
p84
sg7
S'--'
p85
sg9
g10
sg11
S'--'
p86
sg13
g10
sg15
S'--'
p87
sg17
S'2015'
p88
sg19
S'12'
p89
sg21
S'--'
p90
sg23
S'11/29'
p91
sg25
S'--'
p92
sg26
S'Taiwan Jones'
p93
sg28
S'--'
p94
sg29
S'W24-21'
p95
sg31
S'--'
p96
sg33
S'--'
p97
sg35
S'@TEN'
p98
sg37
S'--'
p99
sg39
S'--'
p100
sg41
S'--'
p101
ssS'15'
p102
(dp103
g5
S'--'
p104
sg7
S'--'
p105
sg9
g10
sg11
S'--'
p106
sg13
g14
sg15
S'--'
p107
sg17
S'2015'
p108
sg19
S'15'
p109
sg21
S'--'
p110
sg23
S'12/20'
p111
sg25
S'--'
p112
sg26
S'Taiwan Jones'
p113
sg28
S'--'
p114
sg29
S'L20-30'
p115
sg31
S'--'
p116
sg33
S'--'
p117
sg35
S'GB'
p118
sg37
S'--'
p119
sg39
S'--'
p120
sg41
S'--'
p121
ssS'14'
p122
(dp123
g5
S'--'
p124
sg7
S'--'
p125
sg9
g10
sg11
S'--'
p126
sg13
g14
sg15
S'--'
p127
sg17
S'2015'
p128
sg19
S'14'
p129
sg21
S'2.0'
p130
sg23
S'12/13'
p131
sg25
g10
sg26
S'Taiwan Jones'
p132
sg28
g14
sg29
S'W15-12'
p133
sg31
S'--'
p134
sg33
S'--'
p135
sg35
S'@DEN'
p136
sg37
S'--'
p137
sg39
g40
sg41
g40
ssS'17'
p138
(dp139
g5
S'--'
p140
sg7
S'--'
p141
sg9
g10
sg11
S'--'
p142
sg13
g14
sg15
S'--'
p143
sg17
S'2015'
p144
sg19
S'17'
p145
sg21
S'--'
p146
sg23
S'01/03'
p147
sg25
S'--'
p148
sg26
S'Taiwan Jones'
p149
sg28
S'--'
p150
sg29
S'L17-23'
p151
sg31
S'--'
p152
sg33
S'--'
p153
sg35
S'@KC'
p154
sg37
S'--'
p155
sg39
S'--'
p156
sg41
S'--'
p157
ssS'16'
p158
(dp159
g5
S'5.0'
p160
sg7
S'--'
p161
sg9
g10
sg11
S'--'
p162
sg13
g14
sg15
g10
sg17
S'2015'
p163
sg19
S'16'
p164
sg21
S'--'
p165
sg23
S'12/24'
p166
sg25
S'--'
p167
sg26
S'Taiwan Jones'
p168
sg28
S'--'
p169
sg29
S'W23-20'
p170
sg31
S'5'
p171
sg33
g14
sg35
S'SD'
p172
sg37
g171
sg39
S'--'
p173
sg41
S'--'
p174
ssg14
(dp175
g5
S'13.0'
p176
sg7
S'--'
p177
sg9
g10
sg11
S'--'
p178
sg13
g14
sg15
g10
sg17
S'2015'
p179
sg19
g14
sg21
S'1.7'
p180
sg23
S'09/13'
p181
sg25
g10
sg26
S'Taiwan Jones'
p182
sg28
S'3'
p183
sg29
S'L13-33'
p184
sg31
S'13'
p185
sg33
g14
sg35
S'CIN'
p186
sg37
S'13'
p187
sg39
g171
sg41
S'4'
p188
ssg183
(dp189
g5
S'--'
p190
sg7
S'--'
p191
sg9
g10
sg11
S'--'
p192
sg13
g14
sg15
S'--'
p193
sg17
S'2015'
p194
sg19
g183
sg21
S'8.0'
p195
sg23
S'09/27'
p196
sg25
g10
sg26
S'Taiwan Jones'
p197
sg28
g40
sg29
S'W27-20'
p198
sg31
S'--'
p199
sg33
S'--'
p200
sg35
S'@CLE'
p201
sg37
S'--'
p202
sg39
S'16'
p203
sg41
S'9'
p204
ssg40
(dp205
g5
S'6.0'
p206
sg7
S'--'
p207
sg9
g10
sg11
S'--'
p208
sg13
g14
sg15
g10
sg17
S'2015'
p209
sg19
g40
sg21
S'4.5'
p210
sg23
S'09/20'
p211
sg25
g10
sg26
S'Taiwan Jones'
p212
sg28
g40
sg29
S'W37-33'
p213
sg31
S'6'
p214
sg33
g14
sg35
S'BAL'
p215
sg37
g214
sg39
g204
sg41
S'7'
p216
ssg171
(dp217
g5
S'--'
p218
sg7
S'--'
p219
sg9
g10
sg11
S'--'
p220
sg13
g10
sg15
S'--'
p221
sg17
S'2015'
p222
sg19
g171
sg21
S'--'
p223
sg23
S'10/11'
p224
sg25
S'--'
p225
sg26
S'Taiwan Jones'
p226
sg28
S'--'
p227
sg29
S'L10-16'
p228
sg31
S'--'
p229
sg33
S'--'
p230
sg35
S'DEN'
p231
sg37
S'--'
p232
sg39
S'--'
p233
sg41
S'--'
p234
ssg188
(dp235
g5
S'--'
p236
sg7
S'--'
p237
sg9
g10
sg11
S'--'
p238
sg13
g10
sg15
S'--'
p239
sg17
S'2015'
p240
sg19
g188
sg21
S'--'
p241
sg23
S'10/04'
p242
sg25
S'--'
p243
sg26
S'Taiwan Jones'
p244
sg28
S'--'
p245
sg29
S'L20-22'
p246
sg31
S'--'
p247
sg33
S'--'
p248
sg35
S'@CHI'
p249
sg37
S'--'
p250
sg39
S'--'
p251
sg41
S'--'
p252
ssg216
(dp253
g5
S'8.5'
p254
sg7
S'--'
p255
sg9
g10
sg11
S'--'
p256
sg13
g14
sg15
g10
sg17
S'2015'
p257
sg19
g216
sg21
S'11.7'
p258
sg23
S'10/25'
p259
sg25
g10
sg26
S'Taiwan Jones'
p260
sg28
g183
sg29
S'W37-29'
p261
sg31
S'17'
p262
sg33
g40
sg35
S'@SD'
p263
sg37
S'16'
p264
sg39
S'35'
p265
sg41
S'19'
p266
ssg214
(dp267
g5
S''
p268
sg7
g268
sg9
g268
sg11
g268
sg13
g268
sg15
g268
sg17
S'2015'
p269
sg19
g214
sg21
g268
sg23
S'Bye'
p270
sg25
g268
sg26
S'Taiwan Jones'
p271
sg28
g268
sg29
g268
sg31
g268
sg33
g268
sg35
g268
sg37
g268
sg39
g268
sg41
g268
ssg204
(dp272
g5
S'6.0'
p273
sg7
g40
sg9
g10
sg11
g14
sg13
g14
sg15
g10
sg17
S'2015'
p274
sg19
g204
sg21
S'0.0'
p275
sg23
S'11/08'
p276
sg25
g10
sg26
S'Taiwan Jones'
p277
sg28
g40
sg29
S'L35-38'
p278
sg31
g214
sg33
g14
sg35
S'@PIT'
p279
sg37
g214
sg39
g10
sg41
g14
ssS'8'
p280
(dp281
g5
S'59.0'
p282
sg7
S'--'
p283
sg9
g10
sg11
S'--'
p284
sg13
g14
sg15
g14
sg17
S'2015'
p285
sg19
g280
sg21
S'2.5'
p286
sg23
S'11/01'
p287
sg25
g10
sg26
S'Taiwan Jones'
p288
sg28
g40
sg29
S'W34-20'
p289
sg31
S'59'
p290
sg33
g14
sg35
S'NYJ'
p291
sg37
S'59T'
p292
sg39
g171
sg41
g183
sssS'2014'
p293
(dp294
g14
(dp295
g5
S'--'
p296
sg7
S'--'
p297
sg9
g10
sg11
S'--'
p298
sg13
g14
sg15
S'--'
p299
sg17
S'2014'
p300
sg19
g14
sg21
S'--'
p301
sg23
S'09/07'
p302
sg25
S'--'
p303
sg26
S'Taiwan Jones'
p304
sg28
S'--'
p305
sg29
S'L14-19'
p306
sg31
S'--'
p307
sg33
S'--'
p308
sg35
S'@NYJ'
p309
sg37
S'--'
p310
sg39
S'--'
p311
sg41
S'--'
p312
sssS'2011'
p313
(dp314
g3
(dp315
g5
S'--'
p316
sg7
S'--'
p317
sg9
g10
sg11
S'--'
p318
sg13
g14
sg15
S'--'
p319
sg17
S'2011'
p320
sg19
S'11'
p321
sg21
S'1.5'
p322
sg23
S'11/20'
p323
sg25
g10
sg26
S'Taiwan Jones'
p324
sg28
g40
sg29
S'W27-21'
p325
sg31
S'--'
p326
sg33
S'--'
p327
sg35
S'@MIN'
p328
sg37
S'--'
p329
sg39
g183
sg41
g40
ssg42
(dp330
g5
S'--'
p331
sg7
S'--'
p332
sg9
g10
sg11
S'--'
p333
sg13
g14
sg15
S'--'
p334
sg17
S'2011'
p335
sg19
S'10'
p336
sg21
S'5.6'
p337
sg23
S'11/10'
p338
sg25
g10
sg26
S'Taiwan Jones'
p339
sg28
g216
sg29
S'W24-17'
p340
sg31
S'--'
p341
sg33
S'--'
p342
sg35
S'@SD'
p343
sg37
S'--'
p344
sg39
S'39'
p345
sg41
S'12'
p346
ssg62
(dp347
g5
S'--'
p348
sg7
S'--'
p349
sg9
g10
sg11
S'--'
p350
sg13
g10
sg15
S'--'
p351
sg17
S'2011'
p352
sg19
S'13'
p353
sg21
S'--'
p354
sg23
S'12/04'
p355
sg25
S'--'
p356
sg26
S'Taiwan Jones'
p357
sg28
S'--'
p358
sg29
S'L14-34'
p359
sg31
S'--'
p360
sg33
S'--'
p361
sg35
S'@MIA'
p362
sg37
S'--'
p363
sg39
S'--'
p364
sg41
S'--'
p365
ssg82
(dp366
g5
S'--'
p367
sg7
S'--'
p368
sg9
g10
sg11
S'--'
p369
sg13
g10
sg15
S'--'
p370
sg17
S'2011'
p371
sg19
S'12'
p372
sg21
S'--'
p373
sg23
S'11/27'
p374
sg25
S'--'
p375
sg26
S'Taiwan Jones'
p376
sg28
S'--'
p377
sg29
S'W25-20'
p378
sg31
S'--'
p379
sg33
S'--'
p380
sg35
S'CHI'
p381
sg37
S'--'
p382
sg39
S'--'
p383
sg41
S'--'
p384
ssg102
(dp385
g5
S'--'
p386
sg7
S'--'
p387
sg9
g10
sg11
S'--'
p388
sg13
g10
sg15
S'--'
p389
sg17
S'2011'
p390
sg19
S'15'
p391
sg21
S'--'
p392
sg23
S'12/18'
p393
sg25
S'--'
p394
sg26
S'Taiwan Jones'
p395
sg28
S'--'
p396
sg29
S'L27-28'
p397
sg31
S'--'
p398
sg33
S'--'
p399
sg35
S'DET'
p400
sg37
S'--'
p401
sg39
S'--'
p402
sg41
S'--'
p403
ssg122
(dp404
g5
S'--'
p405
sg7
S'--'
p406
sg9
g10
sg11
S'--'
p407
sg13
g10
sg15
S'--'
p408
sg17
S'2011'
p409
sg19
S'14'
p410
sg21
S'--'
p411
sg23
S'12/11'
p412
sg25
S'--'
p413
sg26
S'Taiwan Jones'
p414
sg28
S'--'
p415
sg29
S'L16-46'
p416
sg31
S'--'
p417
sg33
S'--'
p418
sg35
S'@GB'
p419
sg37
S'--'
p420
sg39
S'--'
p421
sg41
S'--'
p422
ssg138
(dp423
g5
S'--'
p424
sg7
S'--'
p425
sg9
g10
sg11
S'--'
p426
sg13
g10
sg15
S'--'
p427
sg17
S'2011'
p428
sg19
S'17'
p429
sg21
S'--'
p430
sg23
S'01/01'
p431
sg25
S'--'
p432
sg26
S'Taiwan Jones'
p433
sg28
S'--'
p434
sg29
S'L26-38'
p435
sg31
S'--'
p436
sg33
S'--'
p437
sg35
S'SD'
p438
sg37
S'--'
p439
sg39
S'--'
p440
sg41
S'--'
p441
ssg158
(dp442
g5
S'--'
p443
sg7
S'--'
p444
sg9
g10
sg11
S'--'
p445
sg13
g10
sg15
S'--'
p446
sg17
S'2011'
p447
sg19
S'16'
p448
sg21
S'--'
p449
sg23
S'12/24'
p450
sg25
S'--'
p451
sg26
S'Taiwan Jones'
p452
sg28
S'--'
p453
sg29
S'W16-13'
p454
sg31
S'--'
p455
sg33
S'--'
p456
sg35
S'@KC'
p457
sg37
S'--'
p458
sg39
S'--'
p459
sg41
S'--'
p460
ssg14
(dp461
g5
S'--'
p462
sg7
S'--'
p463
sg9
g10
sg11
S'--'
p464
sg13
g14
sg15
S'--'
p465
sg17
S'2011'
p466
sg19
g14
sg21
S'--'
p467
sg23
S'09/12'
p468
sg25
S'--'
p469
sg26
S'Taiwan Jones'
p470
sg28
S'--'
p471
sg29
S'W23-20'
p472
sg31
S'--'
p473
sg33
S'--'
p474
sg35
S'@DEN'
p475
sg37
S'--'
p476
sg39
S'--'
p477
sg41
S'--'
p478
ssg183
(dp479
g5
S'-5.0'
p480
sg7
S'--'
p481
sg9
g10
sg11
S'--'
p482
sg13
g14
sg15
g10
sg17
S'2011'
p483
sg19
g183
sg21
S'8.0'
p484
sg23
S'09/25'
p485
sg25
g10
sg26
S'Taiwan Jones'
p486
sg28
g14
sg29
S'W34-24'
p487
sg31
S'-5'
p488
sg33
g14
sg35
S'NYJ'
p489
sg37
S'-5'
p490
sg39
g280
sg41
g280
ssg40
(dp491
g5
S'--'
p492
sg7
S'--'
p493
sg9
g10
sg11
S'--'
p494
sg13
g14
sg15
S'--'
p495
sg17
S'2011'
p496
sg19
g40
sg21
S'4.0'
p497
sg23
S'09/18'
p498
sg25
g10
sg26
S'Taiwan Jones'
p499
sg28
g14
sg29
S'L35-38'
p500
sg31
S'--'
p501
sg33
S'--'
p502
sg35
S'@BUF'
p503
sg37
S'--'
p504
sg39
g188
sg41
g188
ssg171
(dp505
g5
S'--'
p506
sg7
S'--'
p507
sg9
g10
sg11
S'--'
p508
sg13
g14
sg15
S'--'
p509
sg17
S'2011'
p510
sg19
g171
sg21
S'--'
p511
sg23
S'10/09'
p512
sg25
S'--'
p513
sg26
S'Taiwan Jones'
p514
sg28
S'--'
p515
sg29
S'W25-20'
p516
sg31
S'--'
p517
sg33
S'--'
p518
sg35
S'@HOU'
p519
sg37
S'--'
p520
sg39
S'--'
p521
sg41
S'--'
p522
ssg188
(dp523
g5
S'--'
p524
sg7
S'--'
p525
sg9
g10
sg11
S'--'
p526
sg13
g14
sg15
S'--'
p527
sg17
S'2011'
p528
sg19
g188
sg21
S'--'
p529
sg23
S'10/02'
p530
sg25
S'--'
p531
sg26
S'Taiwan Jones'
p532
sg28
S'--'
p533
sg29
S'L19-31'
p534
sg31
S'--'
p535
sg33
S'--'
p536
sg35
S'NE'
p537
sg37
S'--'
p538
sg39
S'--'
p539
sg41
S'--'
p540
ssg216
(dp541
g5
S'30.0'
p542
sg7
S'--'
p543
sg9
g10
sg11
S'--'
p544
sg13
g14
sg15
g10
sg17
S'2011'
p545
sg19
g216
sg21
S'6.0'
p546
sg23
S'10/23'
p547
sg25
g10
sg26
S'Taiwan Jones'
p548
sg28
g183
sg29
S'L0-28'
p549
sg31
S'30'
p550
sg33
g14
sg35
S'KC'
p551
sg37
S'30'
p552
sg39
S'18'
p553
sg41
S'14'
p554
ssg214
(dp555
g5
S'--'
p556
sg7
S'--'
p557
sg9
g10
sg11
S'--'
p558
sg13
g14
sg15
S'--'
p559
sg17
S'2011'
p560
sg19
g214
sg21
S'--'
p561
sg23
S'10/16'
p562
sg25
S'--'
p563
sg26
S'Taiwan Jones'
p564
sg28
S'--'
p565
sg29
S'W24-17'
p566
sg31
S'--'
p567
sg33
S'--'
p568
sg35
S'CLE'
p569
sg37
S'--'
p570
sg39
S'--'
p571
sg41
S'--'
p572
ssg204
(dp573
g5
S'--'
p574
sg7
S'--'
p575
sg9
g10
sg11
S'--'
p576
sg13
g14
sg15
S'--'
p577
sg17
S'2011'
p578
sg19
g204
sg21
S'0.5'
p579
sg23
S'11/06'
p580
sg25
g10
sg26
S'Taiwan Jones'
p581
sg28
g40
sg29
S'L24-38'
p582
sg31
S'--'
p583
sg33
S'--'
p584
sg35
S'DEN'
p585
sg37
S'--'
p586
sg39
g14
sg41
g40
ssg280
(dp587
g5
g268
sg7
g268
sg9
g268
sg11
g268
sg13
g268
sg15
g268
sg17
S'2011'
p588
sg19
g280
sg21
g268
sg23
S'Bye'
p589
sg25
g268
sg26
S'Taiwan Jones'
p590
sg28
g268
sg29
g268
sg31
g268
sg33
g268
sg35
g268
sg37
g268
sg39
g268
sg41
g268
sssS'2013'
p591
(dp592
g3
(dp593
g5
S'--'
p594
sg7
S'--'
p595
sg9
g10
sg11
S'--'
p596
sg13
g14
sg15
S'--'
p597
sg17
S'2013'
p598
sg19
S'11'
p599
sg21
S'--'
p600
sg23
S'11/17'
p601
sg25
S'--'
p602
sg26
S'Taiwan Jones'
p603
sg28
S'--'
p604
sg29
S'W28-23'
p605
sg31
S'--'
p606
sg33
S'--'
p607
sg35
S'@HOU'
p608
sg37
S'--'
p609
sg39
S'--'
p610
sg41
S'--'
p611
ssg42
(dp612
g5
S'--'
p613
sg7
S'--'
p614
sg9
g10
sg11
S'--'
p615
sg13
g14
sg15
S'--'
p616
sg17
S'2013'
p617
sg19
S'10'
p618
sg21
S'--'
p619
sg23
S'11/10'
p620
sg25
S'--'
p621
sg26
S'Taiwan Jones'
p622
sg28
S'--'
p623
sg29
S'L20-24'
p624
sg31
S'--'
p625
sg33
S'--'
p626
sg35
S'@NYG'
p627
sg37
S'--'
p628
sg39
S'--'
p629
sg41
S'--'
p630
ssg62
(dp631
g5
S'--'
p632
sg7
S'--'
p633
sg9
g10
sg11
S'--'
p634
sg13
g14
sg15
S'--'
p635
sg17
S'2013'
p636
sg19
S'13'
p637
sg21
S'--'
p638
sg23
S'11/28'
p639
sg25
S'--'
p640
sg26
S'Taiwan Jones'
p641
sg28
S'--'
p642
sg29
S'L24-31'
p643
sg31
S'--'
p644
sg33
S'--'
p645
sg35
S'@DAL'
p646
sg37
S'--'
p647
sg39
S'--'
p648
sg41
S'--'
p649
ssg82
(dp650
g5
S'--'
p651
sg7
S'--'
p652
sg9
g10
sg11
S'--'
p653
sg13
g14
sg15
S'--'
p654
sg17
S'2013'
p655
sg19
S'12'
p656
sg21
S'--'
p657
sg23
S'11/24'
p658
sg25
S'--'
p659
sg26
S'Taiwan Jones'
p660
sg28
S'--'
p661
sg29
S'L19-23'
p662
sg31
S'--'
p663
sg33
S'--'
p664
sg35
S'TEN'
p665
sg37
S'--'
p666
sg39
S'--'
p667
sg41
S'--'
p668
ssg102
(dp669
g5
S'52.0'
p670
sg7
g14
sg9
g10
sg11
g14
sg13
g14
sg15
g10
sg17
S'2013'
p671
sg19
S'15'
p672
sg21
S'--'
p673
sg23
S'12/15'
p674
sg25
S'--'
p675
sg26
S'Taiwan Jones'
p676
sg28
S'--'
p677
sg29
S'L31-56'
p678
sg31
S'52'
p679
sg33
g14
sg35
S'KC'
p680
sg37
S'52'
p681
sg39
S'--'
p682
sg41
S'--'
p683
ssg122
(dp684
g5
S'3.0'
p685
sg7
S'--'
p686
sg9
g10
sg11
S'--'
p687
sg13
g14
sg15
g10
sg17
S'2013'
p688
sg19
S'14'
p689
sg21
S'1.5'
p690
sg23
S'12/08'
p691
sg25
g10
sg26
S'Taiwan Jones'
p692
sg28
g40
sg29
S'L27-37'
p693
sg31
g183
sg33
g14
sg35
S'@NYJ'
p694
sg37
g183
sg39
g183
sg41
g40
ssg138
(dp695
g5
S'--'
p696
sg7
g14
sg9
g10
sg11
g10
sg13
g14
sg15
S'--'
p697
sg17
S'2013'
p698
sg19
S'17'
p699
sg21
S'--'
p700
sg23
S'12/29'
p701
sg25
S'--'
p702
sg26
S'Taiwan Jones'
p703
sg28
S'--'
p704
sg29
S'L14-34'
p705
sg31
S'--'
p706
sg33
S'--'
p707
sg35
S'DEN'
p708
sg37
S'--'
p709
sg39
S'--'
p710
sg41
S'--'
p711
ssg158
(dp712
g5
S'--'
p713
sg7
S'--'
p714
sg9
g10
sg11
S'--'
p715
sg13
g14
sg15
S'--'
p716
sg17
S'2013'
p717
sg19
S'16'
p718
sg21
S'0.5'
p719
sg23
S'12/22'
p720
sg25
g10
sg26
S'Taiwan Jones'
p721
sg28
g40
sg29
S'L13-26'
p722
sg31
S'--'
p723
sg33
S'--'
p724
sg35
S'@SD'
p725
sg37
S'--'
p726
sg39
g14
sg41
g14
ssg14
(dp727
g5
S'--'
p728
sg7
S'--'
p729
sg9
g10
sg11
S'--'
p730
sg13
g14
sg15
S'--'
p731
sg17
S'2013'
p732
sg19
g14
sg21
S'--'
p733
sg23
S'09/08'
p734
sg25
S'--'
p735
sg26
S'Taiwan Jones'
p736
sg28
S'--'
p737
sg29
S'L17-21'
p738
sg31
S'--'
p739
sg33
S'--'
p740
sg35
S'@IND'
p741
sg37
S'--'
p742
sg39
S'--'
p743
sg41
S'--'
p744
ssg183
(dp745
g5
S'--'
p746
sg7
S'--'
p747
sg9
g10
sg11
S'--'
p748
sg13
g14
sg15
S'--'
p749
sg17
S'2013'
p750
sg19
g183
sg21
S'--'
p751
sg23
S'09/23'
p752
sg25
S'--'
p753
sg26
S'Taiwan Jones'
p754
sg28
S'--'
p755
sg29
S'L21-37'
p756
sg31
S'--'
p757
sg33
S'--'
p758
sg35
S'@DEN'
p759
sg37
S'--'
p760
sg39
S'--'
p761
sg41
S'--'
p762
ssg40
(dp763
g5
S'--'
p764
sg7
S'--'
p765
sg9
g10
sg11
S'--'
p766
sg13
g14
sg15
S'--'
p767
sg17
S'2013'
p768
sg19
g40
sg21
S'--'
p769
sg23
S'09/15'
p770
sg25
S'--'
p771
sg26
S'Taiwan Jones'
p772
sg28
S'--'
p773
sg29
S'W19-9'
p774
sg31
S'--'
p775
sg33
S'--'
p776
sg35
S'JAC'
p777
sg37
S'--'
p778
sg39
S'--'
p779
sg41
S'--'
p780
ssg171
(dp781
g5
S'--'
p782
sg7
S'--'
p783
sg9
g10
sg11
S'--'
p784
sg13
g14
sg15
S'--'
p785
sg17
S'2013'
p786
sg19
g171
sg21
S'--'
p787
sg23
S'10/06'
p788
sg25
S'--'
p789
sg26
S'Taiwan Jones'
p790
sg28
S'--'
p791
sg29
S'W27-17'
p792
sg31
S'--'
p793
sg33
S'--'
p794
sg35
S'SD'
p795
sg37
S'--'
p796
sg39
S'--'
p797
sg41
S'--'
p798
ssg188
(dp799
g5
S'--'
p800
sg7
S'--'
p801
sg9
g10
sg11
S'--'
p802
sg13
g14
sg15
S'--'
p803
sg17
S'2013'
p804
sg19
g188
sg21
S'19.0'
p805
sg23
S'09/29'
p806
sg25
g10
sg26
S'Taiwan Jones'
p807
sg28
g14
sg29
S'L14-24'
p808
sg31
S'--'
p809
sg33
S'--'
p810
sg35
S'WAS'
p811
sg37
S'--'
p812
sg39
S'19'
p813
sg41
S'19'
p814
ssg216
(dp815
g5
g268
sg7
g268
sg9
g268
sg11
g268
sg13
g268
sg15
g268
sg17
S'2013'
p816
sg19
g216
sg21
g268
sg23
S'Bye'
p817
sg25
g268
sg26
S'Taiwan Jones'
p818
sg28
g268
sg29
g268
sg31
g268
sg33
g268
sg35
g268
sg37
g268
sg39
g268
sg41
g268
ssg214
(dp819
g5
S'--'
p820
sg7
S'--'
p821
sg9
g10
sg11
S'--'
p822
sg13
g14
sg15
S'--'
p823
sg17
S'2013'
p824
sg19
g214
sg21
S'--'
p825
sg23
S'10/13'
p826
sg25
S'--'
p827
sg26
S'Taiwan Jones'
p828
sg28
S'--'
p829
sg29
S'L7-24'
p830
sg31
S'--'
p831
sg33
S'--'
p832
sg35
S'@KC'
p833
sg37
S'--'
p834
sg39
S'--'
p835
sg41
S'--'
p836
ssg204
(dp837
g5
S'--'
p838
sg7
S'--'
p839
sg9
g10
sg11
S'--'
p840
sg13
g14
sg15
S'--'
p841
sg17
S'2013'
p842
sg19
g204
sg21
S'--'
p843
sg23
S'11/03'
p844
sg25
S'--'
p845
sg26
S'Taiwan Jones'
p846
sg28
S'--'
p847
sg29
S'L20-49'
p848
sg31
S'--'
p849
sg33
S'--'
p850
sg35
S'PHI'
p851
sg37
S'--'
p852
sg39
S'--'
p853
sg41
S'--'
p854
ssg280
(dp855
g5
S'--'
p856
sg7
S'--'
p857
sg9
g10
sg11
S'--'
p858
sg13
g14
sg15
S'--'
p859
sg17
S'2013'
p860
sg19
g280
sg21
S'--'
p861
sg23
S'10/27'
p862
sg25
S'--'
p863
sg26
S'Taiwan Jones'
p864
sg28
S'--'
p865
sg29
S'W21-18'
p866
sg31
S'--'
p867
sg33
S'--'
p868
sg35
S'PIT'
p869
sg37
S'--'
p870
sg39
S'--'
p871
sg41
S'--'
p872
sssS'2012'
p873
(dp874
g3
(dp875
g5
S'--'
p876
sg7
S'--'
p877
sg9
g10
sg11
S'--'
p878
sg13
g14
sg15
S'--'
p879
sg17
S'2012'
p880
sg19
S'11'
p881
sg21
S'4.3'
p882
sg23
S'11/18'
p883
sg25
g10
sg26
S'Taiwan Jones'
p884
sg28
g183
sg29
S'L17-38'
p885
sg31
S'--'
p886
sg33
S'--'
p887
sg35
S'NO'
p888
sg37
S'--'
p889
sg39
S'13'
p890
sg41
g216
ssg42
(dp891
g5
S'7.0'
p892
sg7
S'--'
p893
sg9
g10
sg11
S'--'
p894
sg13
g14
sg15
g10
sg17
S'2012'
p895
sg19
S'10'
p896
sg21
S'3.0'
p897
sg23
S'11/11'
p898
sg25
g10
sg26
S'Taiwan Jones'
p899
sg28
g40
sg29
S'L20-55'
p900
sg31
g216
sg33
g14
sg35
S'@BAL'
p901
sg37
g216
sg39
g214
sg41
g183
ssg62
(dp902
g5
S'--'
p903
sg7
S'--'
p904
sg9
g10
sg11
S'--'
p905
sg13
g14
sg15
S'--'
p906
sg17
S'2012'
p907
sg19
S'13'
p908
sg21
S'--'
p909
sg23
S'12/02'
p910
sg25
S'--'
p911
sg26
S'Taiwan Jones'
p912
sg28
S'--'
p913
sg29
S'L17-20'
p914
sg31
S'--'
p915
sg33
S'--'
p916
sg35
S'CLE'
p917
sg37
S'--'
p918
sg39
S'--'
p919
sg41
S'--'
p920
ssg82
(dp921
g5
S'--'
p922
sg7
S'--'
p923
sg9
g10
sg11
S'--'
p924
sg13
g14
sg15
S'--'
p925
sg17
S'2012'
p926
sg19
S'12'
p927
sg21
S'--'
p928
sg23
S'11/25'
p929
sg25
S'--'
p930
sg26
S'Taiwan Jones'
p931
sg28
S'--'
p932
sg29
S'L10-34'
p933
sg31
S'--'
p934
sg33
S'--'
p935
sg35
S'@CIN'
p936
sg37
S'--'
p937
sg39
S'--'
p938
sg41
S'--'
p939
ssg102
(dp940
g5
S'--'
p941
sg7
S'--'
p942
sg9
g10
sg11
S'--'
p943
sg13
g14
sg15
S'--'
p944
sg17
S'2012'
p945
sg19
S'15'
p946
sg21
S'--'
p947
sg23
S'12/16'
p948
sg25
S'--'
p949
sg26
S'Taiwan Jones'
p950
sg28
S'--'
p951
sg29
S'W15-0'
p952
sg31
S'--'
p953
sg33
S'--'
p954
sg35
S'KC'
p955
sg37
S'--'
p956
sg39
S'--'
p957
sg41
S'--'
p958
ssg122
(dp959
g5
S'--'
p960
sg7
S'--'
p961
sg9
g10
sg11
S'--'
p962
sg13
g14
sg15
S'--'
p963
sg17
S'2012'
p964
sg19
S'14'
p965
sg21
S'--'
p966
sg23
S'12/06'
p967
sg25
S'--'
p968
sg26
S'Taiwan Jones'
p969
sg28
S'--'
p970
sg29
S'L13-26'
p971
sg31
S'--'
p972
sg33
S'--'
p973
sg35
S'DEN'
p974
sg37
S'--'
p975
sg39
S'--'
p976
sg41
S'--'
p977
ssg138
(dp978
g5
S'--'
p979
sg7
S'--'
p980
sg9
g10
sg11
S'--'
p981
sg13
g14
sg15
S'--'
p982
sg17
S'2012'
p983
sg19
S'17'
p984
sg21
S'--'
p985
sg23
S'12/30'
p986
sg25
S'--'
p987
sg26
S'Taiwan Jones'
p988
sg28
S'--'
p989
sg29
S'L21-24'
p990
sg31
S'--'
p991
sg33
S'--'
p992
sg35
S'@SD'
p993
sg37
S'--'
p994
sg39
S'--'
p995
sg41
S'--'
p996
ssg158
(dp997
g5
S'--'
p998
sg7
S'--'
p999
sg9
g10
sg11
S'--'
p1000
sg13
g14
sg15
S'--'
p1001
sg17
S'2012'
p1002
sg19
S'16'
p1003
sg21
S'--'
p1004
sg23
S'12/23'
p1005
sg25
S'--'
p1006
sg26
S'Taiwan Jones'
p1007
sg28
S'--'
p1008
sg29
S'L6-17'
p1009
sg31
S'--'
p1010
sg33
S'--'
p1011
sg35
S'@CAR'
p1012
sg37
S'--'
p1013
sg39
S'--'
p1014
sg41
S'--'
p1015
ssg14
(dp1016
g5
S'--'
p1017
sg7
S'--'
p1018
sg9
g10
sg11
S'--'
p1019
sg13
g14
sg15
S'--'
p1020
sg17
S'2012'
p1021
sg19
g14
sg21
S'--'
p1022
sg23
S'09/10'
p1023
sg25
S'--'
p1024
sg26
S'Taiwan Jones'
p1025
sg28
S'--'
p1026
sg29
S'L14-22'
p1027
sg31
S'--'
p1028
sg33
S'--'
p1029
sg35
S'SD'
p1030
sg37
S'--'
p1031
sg39
S'--'
p1032
sg41
S'--'
p1033
ssg183
(dp1034
g5
S'--'
p1035
sg7
S'--'
p1036
sg9
g10
sg11
S'--'
p1037
sg13
g14
sg15
S'--'
p1038
sg17
S'2012'
p1039
sg19
g183
sg21
S'--'
p1040
sg23
S'09/23'
p1041
sg25
S'--'
p1042
sg26
S'Taiwan Jones'
p1043
sg28
S'--'
p1044
sg29
S'W34-31'
p1045
sg31
S'--'
p1046
sg33
S'--'
p1047
sg35
S'PIT'
p1048
sg37
S'--'
p1049
sg39
S'--'
p1050
sg41
S'--'
p1051
ssg40
(dp1052
g5
S'--'
p1053
sg7
S'--'
p1054
sg9
g10
sg11
S'--'
p1055
sg13
g14
sg15
S'--'
p1056
sg17
S'2012'
p1057
sg19
g40
sg21
S'--'
p1058
sg23
S'09/16'
p1059
sg25
S'--'
p1060
sg26
S'Taiwan Jones'
p1061
sg28
S'--'
p1062
sg29
S'L13-35'
p1063
sg31
S'--'
p1064
sg33
S'--'
p1065
sg35
S'@MIA'
p1066
sg37
S'--'
p1067
sg39
S'--'
p1068
sg41
S'--'
p1069
ssg171
(dp1070
g5
g268
sg7
g268
sg9
g268
sg11
g268
sg13
g268
sg15
g268
sg17
S'2012'
p1071
sg19
g171
sg21
g268
sg23
S'Bye'
p1072
sg25
g268
sg26
S'Taiwan Jones'
p1073
sg28
g268
sg29
g268
sg31
g268
sg33
g268
sg35
g268
sg37
g268
sg39
g268
sg41
g268
ssg188
(dp1074
g5
S'--'
p1075
sg7
S'--'
p1076
sg9
g10
sg11
S'--'
p1077
sg13
g14
sg15
S'--'
p1078
sg17
S'2012'
p1079
sg19
g188
sg21
S'--'
p1080
sg23
S'09/30'
p1081
sg25
S'--'
p1082
sg26
S'Taiwan Jones'
p1083
sg28
S'--'
p1084
sg29
S'L6-37'
p1085
sg31
S'--'
p1086
sg33
S'--'
p1087
sg35
S'@DEN'
p1088
sg37
S'--'
p1089
sg39
S'--'
p1090
sg41
S'--'
p1091
ssg216
(dp1092
g5
S'--'
p1093
sg7
S'--'
p1094
sg9
g10
sg11
S'--'
p1095
sg13
g10
sg15
S'--'
p1096
sg17
S'2012'
p1097
sg19
g216
sg21
S'--'
p1098
sg23
S'10/21'
p1099
sg25
S'--'
p1100
sg26
S'Taiwan Jones'
p1101
sg28
S'--'
p1102
sg29
S'W26-23'
p1103
sg31
S'--'
p1104
sg33
S'--'
p1105
sg35
S'JAC'
p1106
sg37
S'--'
p1107
sg39
S'--'
p1108
sg41
S'--'
p1109
ssg214
(dp1110
g5
S'--'
p1111
sg7
S'--'
p1112
sg9
g10
sg11
S'--'
p1113
sg13
g14
sg15
S'--'
p1114
sg17
S'2012'
p1115
sg19
g214
sg21
S'--'
p1116
sg23
S'10/14'
p1117
sg25
S'--'
p1118
sg26
S'Taiwan Jones'
p1119
sg28
S'--'
p1120
sg29
S'L20-23'
p1121
sg31
S'--'
p1122
sg33
S'--'
p1123
sg35
S'@ATL'
p1124
sg37
S'--'
p1125
sg39
S'--'
p1126
sg41
S'--'
p1127
ssg204
(dp1128
g5
S'4.0'
p1129
sg7
g14
sg9
g10
sg11
g10
sg13
g14
sg15
g10
sg17
S'2012'
p1130
sg19
g204
sg21
S'2.0'
p1131
sg23
S'11/04'
p1132
sg25
g10
sg26
S'Taiwan Jones'
p1133
sg28
g14
sg29
S'L32-42'
p1134
sg31
g188
sg33
g14
sg35
S'TB'
p1135
sg37
g188
sg39
g40
sg41
g40
ssg280
(dp1136
g5
S'--'
p1137
sg7
S'--'
p1138
sg9
g10
sg11
S'--'
p1139
sg13
g10
sg15
S'--'
p1140
sg17
S'2012'
p1141
sg19
g280
sg21
S'--'
p1142
sg23
S'10/28'
p1143
sg25
S'--'
p1144
sg26
S'Taiwan Jones'
p1145
sg28
S'--'
p1146
sg29
S'W26-16'
p1147
sg31
S'--'
p1148
sg33
S'--'
p1149
sg35
S'@KC'
p1150
sg37
S'--'
p1151
sg39
S'--'
p1152
sg41
S'--'
p1153
sss.