(dp0
S'2015'
p1
(dp2
S'15'
p3
(dp4
S'RecAvg'
p5
S'2.0'
p6
sS'FUM'
p7
S'--'
p8
sS'GS'
p9
S'0'
p10
sS'Lost'
p11
S'--'
p12
sS'G'
p13
S'1'
p14
sS'RecTD'
p15
g10
sS'Year'
p16
S'2015'
p17
sS'WK'
p18
S'15'
p19
sS'RushAvg'
p20
S'2.5'
p21
sS'Game Date'
p22
S'12/20'
p23
sS'RushTD'
p24
g10
sS'Player'
p25
S'Terrence Magee'
p26
sS'RushAtt'
p27
S'2'
p28
sS'Result'
p29
S'L14-34'
p30
sS'RecYds'
p31
g28
sS'Rec'
p32
g14
sS'Opp'
p33
S'KC'
p34
sS'RecLng'
p35
g28
sS'RushYds'
p36
S'5'
p37
sS'RushLng'
p38
S'4'
p39
ssS'17'
p40
(dp41
g5
S'--'
p42
sg7
S'--'
p43
sg9
g10
sg11
S'--'
p44
sg13
g14
sg15
S'--'
p45
sg16
S'2015'
p46
sg18
S'17'
p47
sg20
S'--'
p48
sg22
S'01/03'
p49
sg24
S'--'
p50
sg25
S'Terrence Magee'
p51
sg27
S'--'
p52
sg29
S'L16-24'
p53
sg31
S'--'
p54
sg32
S'--'
p55
sg33
S'@CIN'
p56
sg35
S'--'
p57
sg36
S'--'
p58
sg38
S'--'
p59
ssS'16'
p60
(dp61
g5
S'--'
p62
sg7
S'--'
p63
sg9
g10
sg11
S'--'
p64
sg13
g10
sg15
S'--'
p65
sg16
S'2015'
p66
sg18
S'16'
p67
sg20
S'--'
p68
sg22
S'12/27'
p69
sg24
S'--'
p70
sg25
S'Terrence Magee'
p71
sg27
S'--'
p72
sg29
S'W20-17'
p73
sg31
S'--'
p74
sg32
S'--'
p75
sg33
S'PIT'
p76
sg35
S'--'
p77
sg36
S'--'
p78
sg38
S'--'
p79
ssg14
(dp80
g5
S'--'
p81
sg7
S'--'
p82
sg9
g10
sg11
S'--'
p83
sg13
g14
sg15
S'--'
p84
sg16
S'2015'
p85
sg18
g14
sg20
S'--'
p86
sg22
S'09/13'
p87
sg24
S'--'
p88
sg25
S'Terrence Magee'
p89
sg27
S'--'
p90
sg29
S'L13-19'
p91
sg31
S'--'
p92
sg32
S'--'
p93
sg33
S'@DEN'
p94
sg35
S'--'
p95
sg36
S'--'
p96
sg38
S'--'
p97
ssg28
(dp98
g5
S'--'
p99
sg7
S'--'
p100
sg9
g10
sg11
S'--'
p101
sg13
g10
sg15
S'--'
p102
sg16
S'2015'
p103
sg18
g28
sg20
S'--'
p104
sg22
S'09/20'
p105
sg24
S'--'
p106
sg25
S'Terrence Magee'
p107
sg27
S'--'
p108
sg29
S'L33-37'
p109
sg31
S'--'
p110
sg32
S'--'
p111
sg33
S'@OAK'
p112
sg35
S'--'
p113
sg36
S'--'
p114
sg38
S'--'
p115
ssS'6'
p116
(dp117
g5
S'--'
p118
sg7
S'--'
p119
sg9
g10
sg11
S'--'
p120
sg13
g14
sg15
S'--'
p121
sg16
S'2015'
p122
sg18
g116
sg20
S'--'
p123
sg22
S'10/18'
p124
sg24
S'--'
p125
sg25
S'Terrence Magee'
p126
sg27
S'--'
p127
sg29
S'L20-25'
p128
sg31
S'--'
p129
sg32
S'--'
p130
sg33
S'@SF'
p131
sg35
S'--'
p132
sg36
S'--'
p133
sg38
S'--'
p134
sss.