(dp0
S'2015'
p1
(dp2
S'11'
p3
(dp4
S'RecAvg'
p5
S'--'
p6
sS'FUM'
p7
S'1'
p8
sS'GS'
p9
S'0'
p10
sS'Lost'
p11
g8
sS'G'
p12
g8
sS'RecTD'
p13
g10
sS'Year'
p14
S'2015'
p15
sS'WK'
p16
S'11'
p17
sS'RushAvg'
p18
S'2.8'
p19
sS'Game Date'
p20
S'11/22'
p21
sS'RushTD'
p22
g10
sS'Player'
p23
S'Tevin Coleman'
p24
sS'RushAtt'
p25
S'17'
p26
sS'Result'
p27
S'L21-24'
p28
sS'RecYds'
p29
g10
sS'Rec'
p30
g10
sS'Opp'
p31
S'IND'
p32
sS'RecLng'
p33
S'--'
p34
sS'RushYds'
p35
S'48'
p36
sS'RushLng'
p37
S'10'
p38
ssS'10'
p39
(dp40
g5
S''
p41
sg7
g41
sg9
g41
sg11
g41
sg12
g41
sg13
g41
sg14
S'2015'
p42
sg16
S'10'
p43
sg18
g41
sg20
S'Bye'
p44
sg22
g41
sg23
S'Tevin Coleman'
p45
sg25
g41
sg27
g41
sg29
g41
sg30
g41
sg31
g41
sg33
g41
sg35
g41
sg37
g41
ssS'13'
p46
(dp47
g5
S'4.0'
p48
sg7
S'--'
p49
sg9
g10
sg11
S'--'
p50
sg12
g8
sg13
g10
sg14
S'2015'
p51
sg16
S'13'
p52
sg18
S'4.3'
p53
sg20
S'12/06'
p54
sg22
g10
sg23
S'Tevin Coleman'
p55
sg25
S'3'
p56
sg27
S'L19-23'
p57
sg29
S'4'
p58
sg30
g8
sg31
S'@TB'
p59
sg33
g58
sg35
S'13'
p60
sg37
S'10'
p61
ssS'12'
p62
(dp63
g5
S'--'
p64
sg7
g8
sg9
g8
sg11
g8
sg12
g8
sg13
g10
sg14
S'2015'
p65
sg16
S'12'
p66
sg18
S'6.1'
p67
sg20
S'11/29'
p68
sg22
g10
sg23
S'Tevin Coleman'
p69
sg25
S'18'
p70
sg27
S'L10-20'
p71
sg29
g10
sg30
g10
sg31
S'MIN'
p72
sg33
S'--'
p73
sg35
S'110'
p74
sg37
S'46'
p75
ssS'15'
p76
(dp77
g5
S'--'
p78
sg7
S'--'
p79
sg9
g10
sg11
S'--'
p80
sg12
g8
sg13
S'--'
p81
sg14
S'2015'
p82
sg16
S'15'
p83
sg18
S'5.8'
p84
sg20
S'12/20'
p85
sg22
g10
sg23
S'Tevin Coleman'
p86
sg25
g58
sg27
S'W23-17'
p87
sg29
S'--'
p88
sg30
S'--'
p89
sg31
S'@JAC'
p90
sg33
S'--'
p91
sg35
S'23'
p92
sg37
S'9'
p93
ssS'14'
p94
(dp95
g5
S'--'
p96
sg7
S'--'
p97
sg9
g10
sg11
S'--'
p98
sg12
g8
sg13
g10
sg14
S'2015'
p99
sg16
S'14'
p100
sg18
S'5.0'
p101
sg20
S'12/13'
p102
sg22
g10
sg23
S'Tevin Coleman'
p103
sg25
g56
sg27
S'L0-38'
p104
sg29
g10
sg30
g10
sg31
S'@CAR'
p105
sg33
S'--'
p106
sg35
S'15'
p107
sg37
S'11'
p108
ssS'17'
p109
(dp110
g5
S'--'
p111
sg7
S'--'
p112
sg9
g10
sg11
S'--'
p113
sg12
g10
sg13
S'--'
p114
sg14
S'2015'
p115
sg16
S'17'
p116
sg18
S'--'
p117
sg20
S'01/03'
p118
sg22
S'--'
p119
sg23
S'Tevin Coleman'
p120
sg25
S'--'
p121
sg27
S'L17-20'
p122
sg29
S'--'
p123
sg30
S'--'
p124
sg31
S'NO'
p125
sg33
S'--'
p126
sg35
S'--'
p127
sg37
S'--'
p128
ssS'16'
p129
(dp130
g5
S'--'
p131
sg7
S'--'
p132
sg9
g10
sg11
S'--'
p133
sg12
g10
sg13
S'--'
p134
sg14
S'2015'
p135
sg16
S'16'
p136
sg18
S'--'
p137
sg20
S'12/27'
p138
sg22
S'--'
p139
sg23
S'Tevin Coleman'
p140
sg25
S'--'
p141
sg27
S'W20-13'
p142
sg29
S'--'
p143
sg30
S'--'
p144
sg31
S'CAR'
p145
sg33
S'--'
p146
sg35
S'--'
p147
sg37
S'--'
p148
ssg8
(dp149
g5
S'--'
p150
sg7
S'--'
p151
sg9
g8
sg11
S'--'
p152
sg12
g8
sg13
g10
sg14
S'2015'
p153
sg16
g8
sg18
S'4.0'
p154
sg20
S'09/14'
p155
sg22
g10
sg23
S'Tevin Coleman'
p156
sg25
S'20'
p157
sg27
S'W26-24'
p158
sg29
g10
sg30
g10
sg31
S'PHI'
p159
sg33
S'--'
p160
sg35
S'80'
p161
sg37
S'20'
p162
ssg56
(dp163
g5
S'--'
p164
sg7
S'--'
p165
sg9
g10
sg11
S'--'
p166
sg12
g10
sg13
S'--'
p167
sg14
S'2015'
p168
sg16
g56
sg18
S'--'
p169
sg20
S'09/27'
p170
sg22
S'--'
p171
sg23
S'Tevin Coleman'
p172
sg25
S'--'
p173
sg27
S'W39-28'
p174
sg29
S'--'
p175
sg30
S'--'
p176
sg31
S'@DAL'
p177
sg33
S'--'
p178
sg35
S'--'
p179
sg37
S'--'
p180
ssS'2'
p181
(dp182
g5
S'--'
p183
sg7
S'--'
p184
sg9
g8
sg11
S'--'
p185
sg12
g8
sg13
g10
sg14
S'2015'
p186
sg16
g181
sg18
S'3.6'
p187
sg20
S'09/20'
p188
sg22
g8
sg23
S'Tevin Coleman'
p189
sg25
g93
sg27
S'W24-20'
p190
sg29
g10
sg30
g10
sg31
S'@NYG'
p191
sg33
S'--'
p192
sg35
S'32'
p193
sg37
S'11'
p194
ssS'5'
p195
(dp196
g5
S'--'
p197
sg7
S'--'
p198
sg9
g10
sg11
S'--'
p199
sg12
g8
sg13
S'--'
p200
sg14
S'2015'
p201
sg16
g195
sg18
S'1.5'
p202
sg20
S'10/11'
p203
sg22
g10
sg23
S'Tevin Coleman'
p204
sg25
g181
sg27
S'W25-19'
p205
sg29
S'--'
p206
sg30
S'--'
p207
sg31
S'WAS'
p208
sg33
S'--'
p209
sg35
g56
sg37
g181
ssg58
(dp210
g5
S'--'
p211
sg7
S'--'
p212
sg9
g10
sg11
S'--'
p213
sg12
g10
sg13
S'--'
p214
sg14
S'2015'
p215
sg16
g58
sg18
S'--'
p216
sg20
S'10/04'
p217
sg22
S'--'
p218
sg23
S'Tevin Coleman'
p219
sg25
S'--'
p220
sg27
S'W48-21'
p221
sg29
S'--'
p222
sg30
S'--'
p223
sg31
S'HOU'
p224
sg33
S'--'
p225
sg35
S'--'
p226
sg37
S'--'
p227
ssS'7'
p228
(dp229
g5
S'--'
p230
sg7
S'--'
p231
sg9
g10
sg11
S'--'
p232
sg12
g8
sg13
g10
sg14
S'2015'
p233
sg16
g228
sg18
S'4.7'
p234
sg20
S'10/25'
p235
sg22
g10
sg23
S'Tevin Coleman'
p236
sg25
g56
sg27
S'W10-7'
p237
sg29
g10
sg30
g10
sg31
S'@TEN'
p238
sg33
S'--'
p239
sg35
S'14'
p240
sg37
S'10'
p241
ssS'6'
p242
(dp243
g5
S'--'
p244
sg7
g8
sg9
g10
sg11
g8
sg12
g8
sg13
S'--'
p245
sg14
S'2015'
p246
sg16
g242
sg18
S'10.0'
p247
sg20
S'10/15'
p248
sg22
g10
sg23
S'Tevin Coleman'
p249
sg25
g58
sg27
S'L21-31'
p250
sg29
S'--'
p251
sg30
S'--'
p252
sg31
S'@NO'
p253
sg33
S'--'
p254
sg35
S'40'
p255
sg37
S'18'
p256
ssg93
(dp257
g5
S'--'
p258
sg7
S'--'
p259
sg9
g10
sg11
S'--'
p260
sg12
g8
sg13
S'--'
p261
sg14
S'2015'
p262
sg16
g93
sg18
S'3.0'
p263
sg20
S'11/08'
p264
sg22
g10
sg23
S'Tevin Coleman'
p265
sg25
g8
sg27
S'L16-17'
p266
sg29
S'--'
p267
sg30
S'--'
p268
sg31
S'@SF'
p269
sg33
S'--'
p270
sg35
g56
sg37
g56
ssS'8'
p271
(dp272
g5
S'10.0'
p273
sg7
S'--'
p274
sg9
g10
sg11
S'--'
p275
sg12
g8
sg13
g10
sg14
S'2015'
p276
sg16
g271
sg18
S'3.7'
p277
sg20
S'11/01'
p278
sg22
g10
sg23
S'Tevin Coleman'
p279
sg25
g56
sg27
S'L20-23'
p280
sg29
S'10'
p281
sg30
g8
sg31
S'TB'
p282
sg33
S'10'
p283
sg35
S'11'
p284
sg37
g228
sss.