(dp0
S'2015'
p1
(dp2
S'11'
p3
(dp4
S'RecAvg'
p5
S'14.4'
p6
sS'FUM'
p7
S'--'
p8
sS'GS'
p9
S'1'
p10
sS'Lost'
p11
S'--'
p12
sS'G'
p13
g10
sS'RecTD'
p14
S'0'
p15
sS'Year'
p16
S'2015'
p17
sS'WK'
p18
S'11'
p19
sS'RushAvg'
p20
S'2.3'
p21
sS'Game Date'
p22
S'11/22'
p23
sS'RushTD'
p24
g15
sS'Player'
p25
S'Theo Riddick'
p26
sS'RushAtt'
p27
S'6'
p28
sS'Result'
p29
S'W18-13'
p30
sS'RecYds'
p31
S'72'
p32
sS'Rec'
p33
S'5'
p34
sS'Opp'
p35
S'OAK'
p36
sS'RecLng'
p37
S'21'
p38
sS'RushYds'
p39
S'14'
p40
sS'RushLng'
p41
g34
ssS'10'
p42
(dp43
g5
S'8.3'
p44
sg7
S'--'
p45
sg9
g15
sg11
S'--'
p46
sg13
g10
sg14
g15
sg16
S'2015'
p47
sg18
S'10'
p48
sg20
S'0.3'
p49
sg22
S'11/15'
p50
sg24
g15
sg25
S'Theo Riddick'
p51
sg27
S'3'
p52
sg29
S'W18-16'
p53
sg31
S'25'
p54
sg33
g52
sg35
S'@GB'
p55
sg37
S'11'
p56
sg39
g10
sg41
g10
ssS'13'
p57
(dp58
g5
S'5.4'
p59
sg7
S'--'
p60
sg9
g15
sg11
S'--'
p61
sg13
g10
sg14
g15
sg16
S'2015'
p62
sg18
S'13'
p63
sg20
S'4.0'
p64
sg22
S'12/03'
p65
sg24
g15
sg25
S'Theo Riddick'
p66
sg27
g10
sg29
S'L23-27'
p67
sg31
S'27'
p68
sg33
g34
sg35
S'GB'
p69
sg37
S'9'
p70
sg39
S'4'
p71
sg41
g71
ssS'12'
p72
(dp73
g5
S'12.4'
p74
sg7
S'--'
p75
sg9
g15
sg11
S'--'
p76
sg13
g10
sg14
g10
sg16
S'2015'
p77
sg18
S'12'
p78
sg20
S'3.0'
p79
sg22
S'11/26'
p80
sg24
g15
sg25
S'Theo Riddick'
p81
sg27
S'2'
p82
sg29
S'W45-14'
p83
sg31
S'62'
p84
sg33
g34
sg35
S'PHI'
p85
sg37
S'23'
p86
sg39
g28
sg41
g52
ssS'15'
p87
(dp88
g5
S'13.5'
p89
sg7
S'--'
p90
sg9
g15
sg11
S'--'
p91
sg13
g10
sg14
g15
sg16
S'2015'
p92
sg18
S'15'
p93
sg20
S'1.5'
p94
sg22
S'12/21'
p95
sg24
g15
sg25
S'Theo Riddick'
p96
sg27
g82
sg29
S'W35-27'
p97
sg31
S'27'
p98
sg33
g82
sg35
S'@NO'
p99
sg37
S'21'
p100
sg39
g52
sg41
g52
ssS'14'
p101
(dp102
g5
S'6.3'
p103
sg7
S'--'
p104
sg9
g15
sg11
S'--'
p105
sg13
g10
sg14
g15
sg16
S'2015'
p106
sg18
S'14'
p107
sg20
S'6.0'
p108
sg22
S'12/13'
p109
sg24
g15
sg25
S'Theo Riddick'
p110
sg27
g52
sg29
S'L14-21'
p111
sg31
S'44'
p112
sg33
S'7'
p113
sg35
S'@STL'
p114
sg37
S'16'
p115
sg39
S'18'
p116
sg41
S'16'
p117
ssS'17'
p118
(dp119
g5
S'7.3'
p120
sg7
S'--'
p121
sg9
g15
sg11
S'--'
p122
sg13
g10
sg14
g15
sg16
S'2015'
p123
sg18
S'17'
p124
sg20
S'2.0'
p125
sg22
S'01/03'
p126
sg24
g15
sg25
S'Theo Riddick'
p127
sg27
g82
sg29
S'W24-20'
p128
sg31
S'29'
p129
sg33
g71
sg35
S'@CHI'
p130
sg37
S'18'
p131
sg39
g71
sg41
g52
ssS'16'
p132
(dp133
g5
S'9.0'
p134
sg7
S'--'
p135
sg9
g15
sg11
S'--'
p136
sg13
g10
sg14
g15
sg16
S'2015'
p137
sg18
S'16'
p138
sg20
S'2.9'
p139
sg22
S'12/27'
p140
sg24
g15
sg25
S'Theo Riddick'
p141
sg27
g113
sg29
S'W32-17'
p142
sg31
S'63'
p143
sg33
g113
sg35
S'SF'
p144
sg37
S'16'
p145
sg39
S'20'
p146
sg41
g28
ssg10
(dp147
g5
S'18.5'
p148
sg7
S'--'
p149
sg9
g15
sg11
S'--'
p150
sg13
g10
sg14
g10
sg16
S'2015'
p151
sg18
g10
sg20
S'--'
p152
sg22
S'09/13'
p153
sg24
S'--'
p154
sg25
S'Theo Riddick'
p155
sg27
S'--'
p156
sg29
S'L28-33'
p157
sg31
S'37'
p158
sg33
g82
sg35
S'@SD'
p159
sg37
S'21T'
p160
sg39
S'--'
p161
sg41
S'--'
p162
ssg52
(dp163
g5
S'8.3'
p164
sg7
S'--'
p165
sg9
g15
sg11
S'--'
p166
sg13
g10
sg14
g15
sg16
S'2015'
p167
sg18
g52
sg20
S'--'
p168
sg22
S'09/27'
p169
sg24
S'--'
p170
sg25
S'Theo Riddick'
p171
sg27
S'--'
p172
sg29
S'L12-24'
p173
sg31
S'66'
p174
sg33
S'8'
p175
sg35
S'DEN'
p176
sg37
S'17'
p177
sg39
S'--'
p178
sg41
S'--'
p179
ssg82
(dp180
g5
S'8.2'
p181
sg7
g10
sg9
g15
sg11
g10
sg13
g10
sg14
g15
sg16
S'2015'
p182
sg18
g82
sg20
S'5.0'
p183
sg22
S'09/20'
p184
sg24
g15
sg25
S'Theo Riddick'
p185
sg27
g10
sg29
S'L16-26'
p186
sg31
S'41'
p187
sg33
g34
sg35
S'@MIN'
p188
sg37
S'11'
p189
sg39
g34
sg41
g34
ssg34
(dp190
g5
S'5.3'
p191
sg7
S'--'
p192
sg9
g15
sg11
S'--'
p193
sg13
g10
sg14
g10
sg16
S'2015'
p194
sg18
g34
sg20
S'--'
p195
sg22
S'10/11'
p196
sg24
S'--'
p197
sg25
S'Theo Riddick'
p198
sg27
S'--'
p199
sg29
S'L17-42'
p200
sg31
S'53'
p201
sg33
S'10'
p202
sg35
S'ARI'
p203
sg37
S'20'
p204
sg39
S'--'
p205
sg41
S'--'
p206
ssg71
(dp207
g5
S'6.2'
p208
sg7
S'--'
p209
sg9
g15
sg11
S'--'
p210
sg13
g10
sg14
g15
sg16
S'2015'
p211
sg18
g71
sg20
S'5.0'
p212
sg22
S'10/05'
p213
sg24
g15
sg25
S'Theo Riddick'
p214
sg27
g10
sg29
S'L10-13'
p215
sg31
S'31'
p216
sg33
g34
sg35
S'@SEA'
p217
sg37
S'13'
p218
sg39
g34
sg41
g34
ssg113
(dp219
g5
S'13.3'
p220
sg7
S'--'
p221
sg9
g15
sg11
S'--'
p222
sg13
g10
sg14
g15
sg16
S'2015'
p223
sg18
g113
sg20
S'2.7'
p224
sg22
S'10/25'
p225
sg24
g15
sg25
S'Theo Riddick'
p226
sg27
g52
sg29
S'L19-28'
p227
sg31
S'40'
p228
sg33
g52
sg35
S'MIN'
p229
sg37
S'31'
p230
sg39
g175
sg41
g175
ssg28
(dp231
g5
S'16.7'
p232
sg7
S'--'
p233
sg9
g15
sg11
S'--'
p234
sg13
g10
sg14
g15
sg16
S'2015'
p235
sg18
g28
sg20
S'4.0'
p236
sg22
S'10/18'
p237
sg24
g15
sg25
S'Theo Riddick'
p238
sg27
g113
sg29
S'W37-34'
p239
sg31
S'50'
p240
sg33
g52
sg35
S'CHI'
p241
sg37
S'34'
p242
sg39
S'28'
p243
sg41
g70
ssg70
(dp244
g5
S''
p245
sg7
g245
sg9
g245
sg11
g245
sg13
g245
sg14
g245
sg16
S'2015'
p246
sg18
g70
sg20
g245
sg22
S'Bye'
p247
sg24
g245
sg25
S'Theo Riddick'
p248
sg27
g245
sg29
g245
sg31
g245
sg33
g245
sg35
g245
sg37
g245
sg39
g245
sg41
g245
ssg175
(dp249
g5
S'5.0'
p250
sg7
S'--'
p251
sg9
g15
sg11
S'--'
p252
sg13
g10
sg14
g15
sg16
S'2015'
p253
sg18
g175
sg20
S'3.4'
p254
sg22
S'11/01'
p255
sg24
g15
sg25
S'Theo Riddick'
p256
sg27
g34
sg29
S'L10-45'
p257
sg31
S'30'
p258
sg33
g28
sg35
S'@KC'
p259
sg37
S'10'
p260
sg39
S'17'
p261
sg41
g28
sssS'2014'
p262
(dp263
g3
(dp264
g5
S'8.0'
p265
sg7
S'--'
p266
sg9
g15
sg11
S'--'
p267
sg13
g10
sg14
g15
sg16
S'2014'
p268
sg18
S'11'
p269
sg20
S'1.0'
p270
sg22
S'11/16'
p271
sg24
g15
sg25
S'Theo Riddick'
p272
sg27
g82
sg29
S'L6-14'
p273
sg31
S'24'
p274
sg33
g52
sg35
S'@ARI'
p275
sg37
S'16'
p276
sg39
g82
sg41
g82
ssg42
(dp277
g5
S'2.5'
p278
sg7
S'--'
p279
sg9
g10
sg11
S'--'
p280
sg13
g10
sg14
g10
sg16
S'2014'
p281
sg18
S'10'
p282
sg20
S'0.0'
p283
sg22
S'11/09'
p284
sg24
g15
sg25
S'Theo Riddick'
p285
sg27
g52
sg29
S'W20-16'
p286
sg31
g34
sg33
g82
sg35
S'MIA'
p287
sg37
S'11T'
p288
sg39
g15
sg41
g52
ssg57
(dp289
g5
S'9.0'
p290
sg7
S'--'
p291
sg9
g15
sg11
S'--'
p292
sg13
g10
sg14
g15
sg16
S'2014'
p293
sg18
S'13'
p294
sg20
S'--'
p295
sg22
S'11/27'
p296
sg24
S'--'
p297
sg25
S'Theo Riddick'
p298
sg27
S'--'
p299
sg29
S'W34-17'
p300
sg31
S'54'
p301
sg33
g28
sg35
S'CHI'
p302
sg37
S'19'
p303
sg39
S'--'
p304
sg41
S'--'
p305
ssg72
(dp306
g5
S'13.3'
p307
sg7
S'--'
p308
sg9
g15
sg11
S'--'
p309
sg13
g10
sg14
g15
sg16
S'2014'
p310
sg18
S'12'
p311
sg20
S'6.0'
p312
sg22
S'11/23'
p313
sg24
g15
sg25
S'Theo Riddick'
p314
sg27
g82
sg29
S'L9-34'
p315
sg31
S'40'
p316
sg33
g52
sg35
S'@NE'
p317
sg37
S'18'
p318
sg39
S'12'
p319
sg41
g70
ssg87
(dp320
g5
S'--'
p321
sg7
S'--'
p322
sg9
g10
sg11
S'--'
p323
sg13
g10
sg14
S'--'
p324
sg16
S'2014'
p325
sg18
S'15'
p326
sg20
S'4.0'
p327
sg22
S'12/14'
p328
sg24
g15
sg25
S'Theo Riddick'
p329
sg27
g10
sg29
S'W16-14'
p330
sg31
S'--'
p331
sg33
S'--'
p332
sg35
S'MIN'
p333
sg37
S'--'
p334
sg39
g71
sg41
g71
ssg101
(dp335
g5
S'--'
p336
sg7
S'--'
p337
sg9
g15
sg11
S'--'
p338
sg13
g10
sg14
S'--'
p339
sg16
S'2014'
p340
sg18
S'14'
p341
sg20
S'--'
p342
sg22
S'12/07'
p343
sg24
S'--'
p344
sg25
S'Theo Riddick'
p345
sg27
S'--'
p346
sg29
S'W34-17'
p347
sg31
S'--'
p348
sg33
S'--'
p349
sg35
S'TB'
p350
sg37
S'--'
p351
sg39
S'--'
p352
sg41
S'--'
p353
ssg118
(dp354
g5
S'6.8'
p355
sg7
S'--'
p356
sg9
g15
sg11
S'--'
p357
sg13
g10
sg14
g10
sg16
S'2014'
p358
sg18
S'17'
p359
sg20
S'--'
p360
sg22
S'12/28'
p361
sg24
S'--'
p362
sg25
S'Theo Riddick'
p363
sg27
S'--'
p364
sg29
S'L20-30'
p365
sg31
S'34'
p366
sg33
g34
sg35
S'@GB'
p367
sg37
S'21'
p368
sg39
S'--'
p369
sg41
S'--'
p370
ssg132
(dp371
g5
S'5.0'
p372
sg7
S'--'
p373
sg9
g15
sg11
S'--'
p374
sg13
g10
sg14
g15
sg16
S'2014'
p375
sg18
S'16'
p376
sg20
S'--'
p377
sg22
S'12/21'
p378
sg24
S'--'
p379
sg25
S'Theo Riddick'
p380
sg27
S'--'
p381
sg29
S'W20-14'
p382
sg31
S'10'
p383
sg33
g82
sg35
S'@CHI'
p384
sg37
S'10'
p385
sg39
S'--'
p386
sg41
S'--'
p387
ssg10
(dp388
g5
S'--'
p389
sg7
S'--'
p390
sg9
g15
sg11
S'--'
p391
sg13
g10
sg14
S'--'
p392
sg16
S'2014'
p393
sg18
g10
sg20
S'4.0'
p394
sg22
S'09/08'
p395
sg24
g15
sg25
S'Theo Riddick'
p396
sg27
g10
sg29
S'W35-14'
p397
sg31
S'--'
p398
sg33
S'--'
p399
sg35
S'NYG'
p400
sg37
S'--'
p401
sg39
g71
sg41
g71
ssg52
(dp402
g5
S'--'
p403
sg7
S'--'
p404
sg9
g15
sg11
S'--'
p405
sg13
g10
sg14
S'--'
p406
sg16
S'2014'
p407
sg18
g52
sg20
S'5.3'
p408
sg22
S'09/21'
p409
sg24
g15
sg25
S'Theo Riddick'
p410
sg27
g52
sg29
S'W19-7'
p411
sg31
S'--'
p412
sg33
S'--'
p413
sg35
S'GB'
p414
sg37
S'--'
p415
sg39
S'16'
p416
sg41
g28
ssg82
(dp417
g5
S'--'
p418
sg7
S'--'
p419
sg9
g15
sg11
S'--'
p420
sg13
g10
sg14
S'--'
p421
sg16
S'2014'
p422
sg18
g82
sg20
S'0.0'
p423
sg22
S'09/14'
p424
sg24
g15
sg25
S'Theo Riddick'
p425
sg27
g10
sg29
S'L7-24'
p426
sg31
S'--'
p427
sg33
S'--'
p428
sg35
S'@CAR'
p429
sg37
S'--'
p430
sg39
g15
sg41
g15
ssg34
(dp431
g5
S'--'
p432
sg7
S'--'
p433
sg9
g15
sg11
S'--'
p434
sg13
g15
sg14
S'--'
p435
sg16
S'2014'
p436
sg18
g34
sg20
S'--'
p437
sg22
S'10/05'
p438
sg24
S'--'
p439
sg25
S'Theo Riddick'
p440
sg27
S'--'
p441
sg29
S'L14-17'
p442
sg31
S'--'
p443
sg33
S'--'
p444
sg35
S'BUF'
p445
sg37
S'--'
p446
sg39
S'--'
p447
sg41
S'--'
p448
ssg71
(dp449
g5
S'--'
p450
sg7
S'--'
p451
sg9
g15
sg11
S'--'
p452
sg13
g10
sg14
S'--'
p453
sg16
S'2014'
p454
sg18
g71
sg20
S'2.0'
p455
sg22
S'09/28'
p456
sg24
g15
sg25
S'Theo Riddick'
p457
sg27
g10
sg29
S'W24-17'
p458
sg31
S'--'
p459
sg33
S'--'
p460
sg35
S'@NYJ'
p461
sg37
S'--'
p462
sg39
g82
sg41
g82
ssg113
(dp463
g5
S'--'
p464
sg7
S'--'
p465
sg9
g15
sg11
S'--'
p466
sg13
g15
sg14
S'--'
p467
sg16
S'2014'
p468
sg18
g113
sg20
S'--'
p469
sg22
S'10/19'
p470
sg24
S'--'
p471
sg25
S'Theo Riddick'
p472
sg27
S'--'
p473
sg29
S'W24-23'
p474
sg31
S'--'
p475
sg33
S'--'
p476
sg35
S'NO'
p477
sg37
S'--'
p478
sg39
S'--'
p479
sg41
S'--'
p480
ssg28
(dp481
g5
S'15.0'
p482
sg7
S'--'
p483
sg9
g15
sg11
S'--'
p484
sg13
g10
sg14
g10
sg16
S'2014'
p485
sg18
g28
sg20
S'2.0'
p486
sg22
S'10/12'
p487
sg24
g15
sg25
S'Theo Riddick'
p488
sg27
g52
sg29
S'W17-3'
p489
sg31
S'75'
p490
sg33
g34
sg35
S'@MIN'
p491
sg37
S'41'
p492
sg39
g28
sg41
g52
ssg70
(dp493
g5
g245
sg7
g245
sg9
g245
sg11
g245
sg13
g245
sg14
g245
sg16
S'2014'
p494
sg18
g70
sg20
g245
sg22
S'Bye'
p495
sg24
g245
sg25
S'Theo Riddick'
p496
sg27
g245
sg29
g245
sg31
g245
sg33
g245
sg35
g245
sg37
g245
sg39
g245
sg41
g245
ssg175
(dp497
g5
S'9.3'
p498
sg7
S'--'
p499
sg9
g15
sg11
S'--'
p500
sg13
g10
sg14
g10
sg16
S'2014'
p501
sg18
g175
sg20
S'1.7'
p502
sg22
S'10/26'
p503
sg24
g15
sg25
S'Theo Riddick'
p504
sg27
g52
sg29
S'W22-21'
p505
sg31
S'74'
p506
sg33
g175
sg35
S'@ATL'
p507
sg37
S'20'
p508
sg39
g34
sg41
g34
sssS'2013'
p509
(dp510
g3
(dp511
g5
S'--'
p512
sg7
S'--'
p513
sg9
g15
sg11
S'--'
p514
sg13
g10
sg14
g15
sg16
S'2013'
p515
sg18
S'11'
p516
sg20
S'--'
p517
sg22
S'11/17'
p518
sg24
S'--'
p519
sg25
S'Theo Riddick'
p520
sg27
S'--'
p521
sg29
S'L27-37'
p522
sg31
g15
sg33
g15
sg35
S'@PIT'
p523
sg37
S'--'
p524
sg39
S'--'
p525
sg41
S'--'
p526
ssg42
(dp527
g5
S'--'
p528
sg7
S'--'
p529
sg9
g15
sg11
S'--'
p530
sg13
g10
sg14
S'--'
p531
sg16
S'2013'
p532
sg18
S'10'
p533
sg20
S'--'
p534
sg22
S'11/10'
p535
sg24
S'--'
p536
sg25
S'Theo Riddick'
p537
sg27
S'--'
p538
sg29
S'W21-19'
p539
sg31
S'--'
p540
sg33
S'--'
p541
sg35
S'@CHI'
p542
sg37
S'--'
p543
sg39
S'--'
p544
sg41
S'--'
p545
ssg57
(dp546
g5
S'5.0'
p547
sg7
S'--'
p548
sg9
g15
sg11
S'--'
p549
sg13
g10
sg14
g15
sg16
S'2013'
p550
sg18
S'13'
p551
sg20
S'--'
p552
sg22
S'11/28'
p553
sg24
S'--'
p554
sg25
S'Theo Riddick'
p555
sg27
S'--'
p556
sg29
S'W40-10'
p557
sg31
g34
sg33
g10
sg35
S'GB'
p558
sg37
g34
sg39
S'--'
p559
sg41
S'--'
p560
ssg72
(dp561
g5
S'--'
p562
sg7
S'--'
p563
sg9
g15
sg11
S'--'
p564
sg13
g10
sg14
S'--'
p565
sg16
S'2013'
p566
sg18
S'12'
p567
sg20
S'--'
p568
sg22
S'11/24'
p569
sg24
S'--'
p570
sg25
S'Theo Riddick'
p571
sg27
S'--'
p572
sg29
S'L21-24'
p573
sg31
S'--'
p574
sg33
S'--'
p575
sg35
S'TB'
p576
sg37
S'--'
p577
sg39
S'--'
p578
sg41
S'--'
p579
ssg87
(dp580
g5
S'6.0'
p581
sg7
S'--'
p582
sg9
g15
sg11
S'--'
p583
sg13
g10
sg14
g15
sg16
S'2013'
p584
sg18
S'15'
p585
sg20
S'--'
p586
sg22
S'12/16'
p587
sg24
S'--'
p588
sg25
S'Theo Riddick'
p589
sg27
S'--'
p590
sg29
S'L16-18'
p591
sg31
g28
sg33
g10
sg35
S'BAL'
p592
sg37
g28
sg39
S'--'
p593
sg41
S'--'
p594
ssg101
(dp595
g5
S'--'
p596
sg7
S'--'
p597
sg9
g15
sg11
S'--'
p598
sg13
g10
sg14
S'--'
p599
sg16
S'2013'
p600
sg18
S'14'
p601
sg20
S'3.0'
p602
sg22
S'12/08'
p603
sg24
g15
sg25
S'Theo Riddick'
p604
sg27
g71
sg29
S'L20-34'
p605
sg31
S'--'
p606
sg33
S'--'
p607
sg35
S'@PHI'
p608
sg37
S'--'
p609
sg39
S'12'
p610
sg41
g113
ssg118
(dp611
g5
S'--'
p612
sg7
S'--'
p613
sg9
g15
sg11
S'--'
p614
sg13
g10
sg14
S'--'
p615
sg16
S'2013'
p616
sg18
S'17'
p617
sg20
S'--'
p618
sg22
S'12/29'
p619
sg24
S'--'
p620
sg25
S'Theo Riddick'
p621
sg27
S'--'
p622
sg29
S'L13-14'
p623
sg31
S'--'
p624
sg33
S'--'
p625
sg35
S'@MIN'
p626
sg37
S'--'
p627
sg39
S'--'
p628
sg41
S'--'
p629
ssg132
(dp630
g5
S'--'
p631
sg7
S'--'
p632
sg9
g15
sg11
S'--'
p633
sg13
g10
sg14
S'--'
p634
sg16
S'2013'
p635
sg18
S'16'
p636
sg20
S'4.0'
p637
sg22
S'12/22'
p638
sg24
g10
sg25
S'Theo Riddick'
p639
sg27
g82
sg29
S'L20-23'
p640
sg31
S'--'
p641
sg33
S'--'
p642
sg35
S'NYG'
p643
sg37
S'--'
p644
sg39
g175
sg41
g28
ssg10
(dp645
g5
S'--'
p646
sg7
S'--'
p647
sg9
g15
sg11
S'--'
p648
sg13
g10
sg14
S'--'
p649
sg16
S'2013'
p650
sg18
g10
sg20
S'--'
p651
sg22
S'09/08'
p652
sg24
S'--'
p653
sg25
S'Theo Riddick'
p654
sg27
S'--'
p655
sg29
S'W34-24'
p656
sg31
S'--'
p657
sg33
S'--'
p658
sg35
S'MIN'
p659
sg37
S'--'
p660
sg39
S'--'
p661
sg41
S'--'
p662
ssg52
(dp663
g5
S'8.0'
p664
sg7
S'--'
p665
sg9
g15
sg11
S'--'
p666
sg13
g10
sg14
g15
sg16
S'2013'
p667
sg18
g52
sg20
S'-1.0'
p668
sg22
S'09/22'
p669
sg24
g15
sg25
S'Theo Riddick'
p670
sg27
g82
sg29
S'W27-20'
p671
sg31
g175
sg33
g10
sg35
S'@WAS'
p672
sg37
g175
sg39
S'-2'
p673
sg41
g82
ssg82
(dp674
g5
S'--'
p675
sg7
S'--'
p676
sg9
g15
sg11
S'--'
p677
sg13
g10
sg14
g15
sg16
S'2013'
p678
sg18
g82
sg20
S'--'
p679
sg22
S'09/15'
p680
sg24
S'--'
p681
sg25
S'Theo Riddick'
p682
sg27
S'--'
p683
sg29
S'L21-25'
p684
sg31
g15
sg33
g15
sg35
S'@ARI'
p685
sg37
S'--'
p686
sg39
S'--'
p687
sg41
S'--'
p688
ssg34
(dp689
g5
S'--'
p690
sg7
S'--'
p691
sg9
g15
sg11
S'--'
p692
sg13
g10
sg14
S'--'
p693
sg16
S'2013'
p694
sg18
g34
sg20
S'--'
p695
sg22
S'10/06'
p696
sg24
S'--'
p697
sg25
S'Theo Riddick'
p698
sg27
S'--'
p699
sg29
S'L9-22'
p700
sg31
S'--'
p701
sg33
S'--'
p702
sg35
S'@GB'
p703
sg37
S'--'
p704
sg39
S'--'
p705
sg41
S'--'
p706
ssg71
(dp707
g5
S'--'
p708
sg7
S'--'
p709
sg9
g15
sg11
S'--'
p710
sg13
g10
sg14
g15
sg16
S'2013'
p711
sg18
g71
sg20
S'--'
p712
sg22
S'09/29'
p713
sg24
S'--'
p714
sg25
S'Theo Riddick'
p715
sg27
S'--'
p716
sg29
S'W40-32'
p717
sg31
g15
sg33
g15
sg35
S'CHI'
p718
sg37
S'--'
p719
sg39
S'--'
p720
sg41
S'--'
p721
ssg113
(dp722
g5
S'--'
p723
sg7
S'--'
p724
sg9
g15
sg11
S'--'
p725
sg13
g15
sg14
S'--'
p726
sg16
S'2013'
p727
sg18
g113
sg20
S'--'
p728
sg22
S'10/20'
p729
sg24
S'--'
p730
sg25
S'Theo Riddick'
p731
sg27
S'--'
p732
sg29
S'L24-27'
p733
sg31
S'--'
p734
sg33
S'--'
p735
sg35
S'CIN'
p736
sg37
S'--'
p737
sg39
S'--'
p738
sg41
S'--'
p739
ssg28
(dp740
g5
S'--'
p741
sg7
S'--'
p742
sg9
g15
sg11
S'--'
p743
sg13
g15
sg14
S'--'
p744
sg16
S'2013'
p745
sg18
g28
sg20
S'--'
p746
sg22
S'10/13'
p747
sg24
S'--'
p748
sg25
S'Theo Riddick'
p749
sg27
S'--'
p750
sg29
S'W31-17'
p751
sg31
S'--'
p752
sg33
S'--'
p753
sg35
S'@CLE'
p754
sg37
S'--'
p755
sg39
S'--'
p756
sg41
S'--'
p757
ssg70
(dp758
g5
g245
sg7
g245
sg9
g245
sg11
g245
sg13
g245
sg14
g245
sg16
S'2013'
p759
sg18
g70
sg20
g245
sg22
S'Bye'
p760
sg24
g245
sg25
S'Theo Riddick'
p761
sg27
g245
sg29
g245
sg31
g245
sg33
g245
sg35
g245
sg37
g245
sg39
g245
sg41
g245
ssg175
(dp762
g5
S'7.0'
p763
sg7
S'--'
p764
sg9
g15
sg11
S'--'
p765
sg13
g10
sg14
g15
sg16
S'2013'
p766
sg18
g175
sg20
S'7.0'
p767
sg22
S'10/27'
p768
sg24
g15
sg25
S'Theo Riddick'
p769
sg27
g10
sg29
S'W31-30'
p770
sg31
g113
sg33
g10
sg35
S'DAL'
p771
sg37
g113
sg39
g113
sg41
g113
sss.