(dp0
S'2015'
p1
(dp2
S'11'
p3
(dp4
S'RecAvg'
p5
S'15.3'
p6
sS'FUM'
p7
S'--'
p8
sS'GS'
p9
S'1'
p10
sS'Lost'
p11
S'--'
p12
sS'G'
p13
g10
sS'RecTD'
p14
g10
sS'Year'
p15
S'2015'
p16
sS'WK'
p17
S'11'
p18
sS'RushAvg'
p19
S'7.0'
p20
sS'Game Date'
p21
S'11/22'
p22
sS'RushTD'
p23
g10
sS'Player'
p24
S'Thomas Rawls'
p25
sS'RushAtt'
p26
S'30'
p27
sS'Result'
p28
S'W29-13'
p29
sS'RecYds'
p30
S'46'
p31
sS'Rec'
p32
S'3'
p33
sS'Opp'
p34
S'SF'
p35
sS'RecLng'
p36
S'31T'
p37
sS'RushYds'
p38
S'209'
p39
sS'RushLng'
p40
S'30'
p41
ssS'10'
p42
(dp43
g5
S'--'
p44
sg7
S'--'
p45
sg9
S'0'
p46
sg11
S'--'
p47
sg13
g10
sg14
S'--'
p48
sg15
S'2015'
p49
sg17
S'10'
p50
sg19
S'9.5'
p51
sg21
S'11/15'
p52
sg23
g46
sg24
S'Thomas Rawls'
p53
sg26
S'2'
p54
sg28
S'L32-39'
p55
sg30
S'--'
p56
sg32
S'--'
p57
sg34
S'ARI'
p58
sg36
S'--'
p59
sg38
S'19'
p60
sg40
S'13'
p61
ssS'13'
p62
(dp63
g5
S'7.3'
p64
sg7
g10
sg9
g10
sg11
g10
sg13
g10
sg14
g46
sg15
S'2015'
p65
sg17
S'13'
p66
sg19
S'5.3'
p67
sg21
S'12/06'
p68
sg23
g10
sg24
S'Thomas Rawls'
p69
sg26
S'19'
p70
sg28
S'W38-7'
p71
sg30
S'22'
p72
sg32
g33
sg34
S'@MIN'
p73
sg36
S'9'
p74
sg38
S'101'
p75
sg40
S'20'
p76
ssS'12'
p77
(dp78
g5
S'--'
p79
sg7
S'--'
p80
sg9
g10
sg11
S'--'
p81
sg13
g10
sg14
g46
sg15
S'2015'
p82
sg17
S'12'
p83
sg19
S'3.9'
p84
sg21
S'11/29'
p85
sg23
g10
sg24
S'Thomas Rawls'
p86
sg26
S'21'
p87
sg28
S'W39-30'
p88
sg30
g46
sg32
g46
sg34
S'PIT'
p89
sg36
S'--'
p90
sg38
S'81'
p91
sg40
S'17'
p92
ssS'14'
p93
(dp94
g5
S'--'
p95
sg7
S'--'
p96
sg9
g10
sg11
S'--'
p97
sg13
g10
sg14
S'--'
p98
sg15
S'2015'
p99
sg17
S'14'
p100
sg19
S'7.3'
p101
sg21
S'12/13'
p102
sg23
g46
sg24
S'Thomas Rawls'
p103
sg26
S'6'
p104
sg28
S'W35-6'
p105
sg30
S'--'
p106
sg32
S'--'
p107
sg34
S'@BAL'
p108
sg36
S'--'
p109
sg38
S'44'
p110
sg40
S'16'
p111
ssg10
(dp112
g5
S'--'
p113
sg7
S'--'
p114
sg9
g46
sg11
S'--'
p115
sg13
g10
sg14
S'--'
p116
sg15
S'2015'
p117
sg17
g10
sg19
S'2.5'
p118
sg21
S'09/13'
p119
sg23
g46
sg24
S'Thomas Rawls'
p120
sg26
g54
sg28
S'L31-34'
p121
sg30
S'--'
p122
sg32
S'--'
p123
sg34
S'@STL'
p124
sg36
S'--'
p125
sg38
S'5'
p126
sg40
S'4'
p127
ssg33
(dp128
g5
S'--'
p129
sg7
S'--'
p130
sg9
g10
sg11
S'--'
p131
sg13
g10
sg14
g46
sg15
S'2015'
p132
sg17
g33
sg19
S'6.5'
p133
sg21
S'09/27'
p134
sg23
g46
sg24
S'Thomas Rawls'
p135
sg26
S'16'
p136
sg28
S'W26-0'
p137
sg30
g46
sg32
g46
sg34
S'CHI'
p138
sg36
S'--'
p139
sg38
S'104'
p140
sg40
S'21'
p141
ssg54
(dp142
g5
S'--'
p143
sg7
S'--'
p144
sg9
g46
sg11
S'--'
p145
sg13
g10
sg14
S'--'
p146
sg15
S'2015'
p147
sg17
g54
sg19
S'--'
p148
sg21
S'09/20'
p149
sg23
S'--'
p150
sg24
S'Thomas Rawls'
p151
sg26
S'--'
p152
sg28
S'L17-27'
p153
sg30
S'--'
p154
sg32
S'--'
p155
sg34
S'@GB'
p156
sg36
S'--'
p157
sg38
S'--'
p158
sg40
S'--'
p159
ssg126
(dp160
g5
S'--'
p161
sg7
S'--'
p162
sg9
g10
sg11
S'--'
p163
sg13
g10
sg14
S'--'
p164
sg15
S'2015'
p165
sg17
g126
sg19
S'7.3'
p166
sg21
S'10/11'
p167
sg23
g10
sg24
S'Thomas Rawls'
p168
sg26
S'23'
p169
sg28
S'L24-27'
p170
sg30
S'--'
p171
sg32
S'--'
p172
sg34
S'@CIN'
p173
sg36
S'--'
p174
sg38
S'169'
p175
sg40
S'69T'
p176
ssg127
(dp177
g5
S'-1.0'
p178
sg7
S'--'
p179
sg9
g10
sg11
S'--'
p180
sg13
g10
sg14
g46
sg15
S'2015'
p181
sg17
g127
sg19
S'2.8'
p182
sg21
S'10/05'
p183
sg23
g46
sg24
S'Thomas Rawls'
p184
sg26
S'17'
p185
sg28
S'W13-10'
p186
sg30
S'-1'
p187
sg32
g10
sg34
S'DET'
p188
sg36
S'-1'
p189
sg38
S'48'
p190
sg40
S'10'
p191
ssS'7'
p192
(dp193
g5
S'4.5'
p194
sg7
S'--'
p195
sg9
g46
sg11
S'--'
p196
sg13
g10
sg14
g46
sg15
S'2015'
p197
sg17
g192
sg19
S'5.3'
p198
sg21
S'10/22'
p199
sg23
g46
sg24
S'Thomas Rawls'
p200
sg26
g104
sg28
S'W20-3'
p201
sg30
g74
sg32
g54
sg34
S'@SF'
p202
sg36
g126
sg38
S'32'
p203
sg40
S'17'
p204
ssg104
(dp205
g5
S'--'
p206
sg7
S'--'
p207
sg9
g46
sg11
S'--'
p208
sg13
g10
sg14
S'--'
p209
sg15
S'2015'
p210
sg17
g104
sg19
S'8.0'
p211
sg21
S'10/18'
p212
sg23
g46
sg24
S'Thomas Rawls'
p213
sg26
g10
sg28
S'L23-27'
p214
sg30
S'--'
p215
sg32
S'--'
p216
sg34
S'CAR'
p217
sg36
S'--'
p218
sg38
S'8'
p219
sg40
g219
ssg74
(dp220
g5
S''
p221
sg7
g221
sg9
g221
sg11
g221
sg13
g221
sg14
g221
sg15
S'2015'
p222
sg17
g74
sg19
g221
sg21
S'Bye'
p223
sg23
g221
sg24
S'Thomas Rawls'
p224
sg26
g221
sg28
g221
sg30
g221
sg32
g221
sg34
g221
sg36
g221
sg38
g221
sg40
g221
ssg219
(dp225
g5
S'--'
p226
sg7
S'--'
p227
sg9
g46
sg11
S'--'
p228
sg13
g10
sg14
S'--'
p229
sg15
S'2015'
p230
sg17
g219
sg19
S'2.5'
p231
sg21
S'11/01'
p232
sg23
g46
sg24
S'Thomas Rawls'
p233
sg26
g127
sg28
S'W13-12'
p234
sg30
S'--'
p235
sg32
S'--'
p236
sg34
S'@DAL'
p237
sg36
S'--'
p238
sg38
S'10'
p239
sg40
g192
sss.