(dp0
S'2015'
p1
(dp2
S'11'
p3
(dp4
S'RecAvg'
p5
S''
p6
sS'FUM'
p7
g6
sS'GS'
p8
g6
sS'Lost'
p9
g6
sS'G'
p10
g6
sS'RecTD'
p11
g6
sS'Year'
p12
S'2015'
p13
sS'WK'
p14
S'11'
p15
sS'RushAvg'
p16
g6
sS'Game Date'
p17
S'Bye'
p18
sS'RushTD'
p19
g6
sS'Player'
p20
S'Tim Hightower'
p21
sS'RushAtt'
p22
g6
sS'Result'
p23
g6
sS'RecYds'
p24
g6
sS'Rec'
p25
g6
sS'Opp'
p26
g6
sS'RecLng'
p27
g6
sS'RushYds'
p28
g6
sS'RushLng'
p29
g6
ssS'10'
p30
(dp31
g5
S'--'
p32
sg7
S'--'
p33
sg8
S'0'
p34
sg9
S'--'
p35
sg10
S'1'
p36
sg11
S'--'
p37
sg12
S'2015'
p38
sg14
S'10'
p39
sg16
S'4.2'
p40
sg17
S'11/15'
p41
sg19
g34
sg20
S'Tim Hightower'
p42
sg22
S'11'
p43
sg23
S'L14-47'
p44
sg24
S'--'
p45
sg25
S'--'
p46
sg26
S'@WAS'
p47
sg27
S'--'
p48
sg28
S'46'
p49
sg29
S'9'
p50
ssS'13'
p51
(dp52
g5
S'--'
p53
sg7
S'--'
p54
sg8
g34
sg9
S'--'
p55
sg10
g36
sg11
S'--'
p56
sg12
S'2015'
p57
sg14
S'13'
p58
sg16
S'2.0'
p59
sg17
S'12/06'
p60
sg19
g34
sg20
S'Tim Hightower'
p61
sg22
g36
sg23
S'L38-41'
p62
sg24
S'--'
p63
sg25
S'--'
p64
sg26
S'CAR'
p65
sg27
S'--'
p66
sg28
S'2'
p67
sg29
g67
ssS'12'
p68
(dp69
g5
S'--'
p70
sg7
S'--'
p71
sg8
g34
sg9
S'--'
p72
sg10
g36
sg11
S'--'
p73
sg12
S'2015'
p74
sg14
S'12'
p75
sg16
S'--'
p76
sg17
S'11/29'
p77
sg19
S'--'
p78
sg20
S'Tim Hightower'
p79
sg22
S'--'
p80
sg23
S'L6-24'
p81
sg24
S'--'
p82
sg25
S'--'
p83
sg26
S'@HOU'
p84
sg27
S'--'
p85
sg28
S'--'
p86
sg29
S'--'
p87
ssS'15'
p88
(dp89
g5
S'10.3'
p90
sg7
S'--'
p91
sg8
g36
sg9
S'--'
p92
sg10
g36
sg11
g34
sg12
S'2015'
p93
sg14
S'15'
p94
sg16
S'4.2'
p95
sg17
S'12/21'
p96
sg19
g34
sg20
S'Tim Hightower'
p97
sg22
S'13'
p98
sg23
S'L27-35'
p99
sg24
S'31'
p100
sg25
S'3'
p101
sg26
S'DET'
p102
sg27
S'18'
p103
sg28
S'54'
p104
sg29
S'17'
p105
ssS'14'
p106
(dp107
g5
S'10.0'
p108
sg7
S'--'
p109
sg8
g36
sg9
S'--'
p110
sg10
g36
sg11
g34
sg12
S'2015'
p111
sg14
S'14'
p112
sg16
S'3.0'
p113
sg17
S'12/13'
p114
sg19
g36
sg20
S'Tim Hightower'
p115
sg22
S'28'
p116
sg23
S'W24-17'
p117
sg24
S'10'
p118
sg25
g36
sg26
S'@TB'
p119
sg27
S'10'
p120
sg28
S'85'
p121
sg29
S'12'
p122
ssS'17'
p123
(dp124
g5
S'8.2'
p125
sg7
S'--'
p126
sg8
g36
sg9
S'--'
p127
sg10
g36
sg11
g34
sg12
S'2015'
p128
sg14
S'17'
p129
sg16
S'4.1'
p130
sg17
S'01/03'
p131
sg19
g36
sg20
S'Tim Hightower'
p132
sg22
S'16'
p133
sg23
S'W20-17'
p134
sg24
S'41'
p135
sg25
S'5'
p136
sg26
S'@ATL'
p137
sg27
S'21'
p138
sg28
S'66'
p139
sg29
S'11'
p140
ssS'16'
p141
(dp142
g5
S'15.7'
p143
sg7
S'--'
p144
sg8
g34
sg9
S'--'
p145
sg10
g36
sg11
g34
sg12
S'2015'
p146
sg14
S'16'
p147
sg16
S'4.5'
p148
sg17
S'12/27'
p149
sg19
g67
sg20
S'Tim Hightower'
p150
sg22
S'27'
p151
sg23
S'W38-27'
p152
sg24
S'47'
p153
sg25
g101
sg26
S'JAC'
p154
sg27
S'27'
p155
sg28
S'122'
p156
sg29
S'26'
p157
ssg50
(dp158
g5
S'--'
p159
sg7
S'--'
p160
sg8
g34
sg9
S'--'
p161
sg10
g36
sg11
S'--'
p162
sg12
S'2015'
p163
sg14
g50
sg16
S'--'
p164
sg17
S'11/08'
p165
sg19
S'--'
p166
sg20
S'Tim Hightower'
p167
sg22
S'--'
p168
sg23
S'L28-34'
p169
sg24
S'--'
p170
sg25
S'--'
p171
sg26
S'TEN'
p172
sg27
S'--'
p173
sg28
S'--'
p174
sg29
S'--'
p175
sssS'2011'
p176
(dp177
g36
(dp178
g5
S'8.3'
p179
sg7
S'--'
p180
sg8
g36
sg9
S'--'
p181
sg10
g36
sg11
g34
sg12
S'2011'
p182
sg14
g36
sg16
S'2.9'
p183
sg17
S'09/11'
p184
sg19
g36
sg20
S'Tim Hightower'
p185
sg22
S'25'
p186
sg23
S'W28-14'
p187
sg24
S'25'
p188
sg25
g101
sg26
S'NYG'
p189
sg27
S'10'
p190
sg28
S'72'
p191
sg29
S'22'
p192
ssg101
(dp193
g5
S'7.8'
p194
sg7
S'--'
p195
sg8
g36
sg9
S'--'
p196
sg10
g36
sg11
g36
sg12
S'2011'
p197
sg14
g101
sg16
S'2.9'
p198
sg17
S'09/26'
p199
sg19
g34
sg20
S'Tim Hightower'
p200
sg22
S'14'
p201
sg23
S'L16-18'
p202
sg24
S'39'
p203
sg25
g136
sg26
S'@DAL'
p204
sg27
S'19'
p205
sg28
S'41'
p206
sg29
g50
ssg67
(dp207
g5
S'10.0'
p208
sg7
S'--'
p209
sg8
g36
sg9
S'--'
p210
sg10
g36
sg11
g34
sg12
S'2011'
p211
sg14
g67
sg16
S'4.8'
p212
sg17
S'09/18'
p213
sg19
g34
sg20
S'Tim Hightower'
p214
sg22
S'20'
p215
sg23
S'W22-21'
p216
sg24
S'10'
p217
sg25
g36
sg26
S'ARI'
p218
sg27
S'10'
p219
sg28
S'96'
p220
sg29
S'20'
p221
ssg136
(dp222
g5
g6
sg7
g6
sg8
g6
sg9
g6
sg10
g6
sg11
g6
sg12
S'2011'
p223
sg14
g136
sg16
g6
sg17
S'Bye'
p224
sg19
g6
sg20
S'Tim Hightower'
p225
sg22
g6
sg23
g6
sg24
g6
sg25
g6
sg26
g6
sg27
g6
sg28
g6
sg29
g6
ssS'4'
p226
(dp227
g5
S'4.0'
p228
sg7
S'--'
p229
sg8
g36
sg9
S'--'
p230
sg10
g36
sg11
g34
sg12
S'2011'
p231
sg14
g226
sg16
S'3.0'
p232
sg17
S'10/02'
p233
sg19
g34
sg20
S'Tim Hightower'
p234
sg22
S'8'
p235
sg23
S'W17-10'
p236
sg24
g226
sg25
g36
sg26
S'@STL'
p237
sg27
g226
sg28
S'24'
p238
sg29
g50
ssS'7'
p239
(dp240
g5
S'--'
p241
sg7
S'--'
p242
sg8
g36
sg9
S'--'
p243
sg10
g36
sg11
g34
sg12
S'2011'
p244
sg14
g239
sg16
S'5.2'
p245
sg17
S'10/23'
p246
sg19
g34
sg20
S'Tim Hightower'
p247
sg22
S'17'
p248
sg23
S'L20-33'
p249
sg24
g34
sg25
g34
sg26
S'@CAR'
p250
sg27
S'--'
p251
sg28
S'88'
p252
sg29
S'17'
p253
ssS'6'
p254
(dp255
g5
S'--'
p256
sg7
S'--'
p257
sg8
g34
sg9
S'--'
p258
sg10
g34
sg11
S'--'
p259
sg12
S'2011'
p260
sg14
g254
sg16
S'--'
p261
sg17
S'10/16'
p262
sg19
S'--'
p263
sg20
S'Tim Hightower'
p264
sg22
S'--'
p265
sg23
S'L13-20'
p266
sg24
S'--'
p267
sg25
S'--'
p268
sg26
S'PHI'
p269
sg27
S'--'
p270
sg28
S'--'
p271
sg29
S'--'
p272
sssS'2010'
p273
(dp274
g3
(dp275
g5
S'8.0'
p276
sg7
S'--'
p277
sg8
g36
sg9
S'--'
p278
sg10
g36
sg11
g34
sg12
S'2010'
p279
sg14
S'11'
p280
sg16
S'5.2'
p281
sg17
S'11/21'
p282
sg19
g34
sg20
S'Tim Hightower'
p283
sg22
S'12'
p284
sg23
S'L13-31'
p285
sg24
S'24'
p286
sg25
g101
sg26
S'@KC'
p287
sg27
g50
sg28
S'62'
p288
sg29
S'16'
p289
ssg30
(dp290
g5
S'11.5'
p291
sg7
S'--'
p292
sg8
g36
sg9
S'--'
p293
sg10
g36
sg11
g34
sg12
S'2010'
p294
sg14
S'10'
p295
sg16
S'3.0'
p296
sg17
S'11/14'
p297
sg19
g36
sg20
S'Tim Hightower'
p298
sg22
S'13'
p299
sg23
S'L18-36'
p300
sg24
S'23'
p301
sg25
g67
sg26
S'SEA'
p302
sg27
S'20'
p303
sg28
S'39'
p304
sg29
S'11'
p305
ssg51
(dp306
g5
S'5.0'
p307
sg7
S'--'
p308
sg8
g36
sg9
S'--'
p309
sg10
g36
sg11
g34
sg12
S'2010'
p310
sg14
S'13'
p311
sg16
S'5.4'
p312
sg17
S'12/05'
p313
sg19
g34
sg20
S'Tim Hightower'
p314
sg22
S'15'
p315
sg23
S'L6-19'
p316
sg24
g136
sg25
g36
sg26
S'STL'
p317
sg27
g136
sg28
S'81'
p318
sg29
S'32'
p319
ssg68
(dp320
g5
S'--'
p321
sg7
S'--'
p322
sg8
g36
sg9
S'--'
p323
sg10
g36
sg11
g34
sg12
S'2010'
p324
sg14
S'12'
p325
sg16
S'0.0'
p326
sg17
S'11/29'
p327
sg19
g34
sg20
S'Tim Hightower'
p328
sg22
g136
sg23
S'L6-27'
p329
sg24
g34
sg25
g34
sg26
S'SF'
p330
sg27
S'--'
p331
sg28
g34
sg29
g136
ssg88
(dp332
g5
S'4.0'
p333
sg7
g36
sg8
g34
sg9
g34
sg10
g36
sg11
g34
sg12
S'2010'
p334
sg14
S'15'
p335
sg16
S'2.7'
p336
sg17
S'12/19'
p337
sg19
g34
sg20
S'Tim Hightower'
p338
sg22
g254
sg23
S'L12-19'
p339
sg24
S'12'
p340
sg25
g101
sg26
S'@CAR'
p341
sg27
g136
sg28
S'16'
p342
sg29
g226
ssg106
(dp343
g5
S'--'
p344
sg7
g36
sg8
g36
sg9
g36
sg10
g36
sg11
g34
sg12
S'2010'
p345
sg14
S'14'
p346
sg16
S'8.2'
p347
sg17
S'12/12'
p348
sg19
g67
sg20
S'Tim Hightower'
p349
sg22
S'18'
p350
sg23
S'W43-13'
p351
sg24
g34
sg25
g34
sg26
S'DEN'
p352
sg27
S'--'
p353
sg28
S'148'
p354
sg29
S'41'
p355
ssg123
(dp356
g5
S'1.0'
p357
sg7
S'--'
p358
sg8
g36
sg9
S'--'
p359
sg10
g36
sg11
g34
sg12
S'2010'
p360
sg14
S'17'
p361
sg16
S'2.5'
p362
sg17
S'01/02'
p363
sg19
g34
sg20
S'Tim Hightower'
p364
sg22
S'12'
p365
sg23
S'L7-38'
p366
sg24
g67
sg25
g67
sg26
S'@SF'
p367
sg27
g254
sg28
S'30'
p368
sg29
S'10'
p369
ssg141
(dp370
g5
S'6.0'
p371
sg7
S'--'
p372
sg8
g36
sg9
S'--'
p373
sg10
g36
sg11
g34
sg12
S'2010'
p374
sg14
S'16'
p375
sg16
S'3.8'
p376
sg17
S'12/25'
p377
sg19
g34
sg20
S'Tim Hightower'
p378
sg22
g254
sg23
S'W27-26'
p379
sg24
g254
sg25
g36
sg26
S'DAL'
p380
sg27
g254
sg28
S'23'
p381
sg29
g239
ssg36
(dp382
g5
S'10.0'
p383
sg7
g67
sg8
g36
sg9
g67
sg10
g36
sg11
g34
sg12
S'2010'
p384
sg14
g36
sg16
S'4.2'
p385
sg17
S'09/12'
p386
sg19
g36
sg20
S'Tim Hightower'
p387
sg22
S'13'
p388
sg23
S'W17-13'
p389
sg24
S'40'
p390
sg25
g226
sg26
S'@STL'
p391
sg27
S'17'
p392
sg28
S'54'
p393
sg29
S'20'
p394
ssg101
(dp395
g5
S'0.0'
p396
sg7
S'--'
p397
sg8
g36
sg9
S'--'
p398
sg10
g36
sg11
g34
sg12
S'2010'
p399
sg14
g101
sg16
S'3.6'
p400
sg17
S'09/26'
p401
sg19
g34
sg20
S'Tim Hightower'
p402
sg22
S'11'
p403
sg23
S'W24-23'
p404
sg24
g34
sg25
g36
sg26
S'OAK'
p405
sg27
g34
sg28
S'40'
p406
sg29
S'13'
p407
ssg67
(dp408
g5
S'4.5'
p409
sg7
S'--'
p410
sg8
g36
sg9
S'--'
p411
sg10
g36
sg11
g34
sg12
S'2010'
p412
sg14
g67
sg16
S'10.5'
p413
sg17
S'09/19'
p414
sg19
g36
sg20
S'Tim Hightower'
p415
sg22
S'11'
p416
sg23
S'L7-41'
p417
sg24
g50
sg25
g67
sg26
S'@ATL'
p418
sg27
g239
sg28
S'115'
p419
sg29
S'80T'
p420
ssg136
(dp421
g5
S'--'
p422
sg7
S'--'
p423
sg8
g36
sg9
S'--'
p424
sg10
g36
sg11
g34
sg12
S'2010'
p425
sg14
g136
sg16
S'1.5'
p426
sg17
S'10/10'
p427
sg19
g34
sg20
S'Tim Hightower'
p428
sg22
g226
sg23
S'W30-20'
p429
sg24
g34
sg25
g34
sg26
S'NO'
p430
sg27
S'--'
p431
sg28
g254
sg29
g101
ssg226
(dp432
g5
S'--'
p433
sg7
S'--'
p434
sg8
g36
sg9
S'--'
p435
sg10
g36
sg11
g34
sg12
S'2010'
p436
sg14
g226
sg16
S'3.4'
p437
sg17
S'10/03'
p438
sg19
g34
sg20
S'Tim Hightower'
p439
sg22
g239
sg23
S'L10-41'
p440
sg24
g34
sg25
g34
sg26
S'@SD'
p441
sg27
S'--'
p442
sg28
S'24'
p443
sg29
g239
ssg239
(dp444
g5
S'4.0'
p445
sg7
g36
sg8
g34
sg9
g36
sg10
g36
sg11
g34
sg12
S'2010'
p446
sg14
g239
sg16
S'9.8'
p447
sg17
S'10/24'
p448
sg19
g34
sg20
S'Tim Hightower'
p449
sg22
g254
sg23
S'L10-22'
p450
sg24
g226
sg25
g36
sg26
S'@SEA'
p451
sg27
g226
sg28
S'59'
p452
sg29
S'24'
p453
ssg254
(dp454
g5
g6
sg7
g6
sg8
g6
sg9
g6
sg10
g6
sg11
g6
sg12
S'2010'
p455
sg14
g254
sg16
g6
sg17
S'Bye'
p456
sg19
g6
sg20
S'Tim Hightower'
p457
sg22
g6
sg23
g6
sg24
g6
sg25
g6
sg26
g6
sg27
g6
sg28
g6
sg29
g6
ssg50
(dp458
g5
S'--'
p459
sg7
S'--'
p460
sg8
g36
sg9
S'--'
p461
sg10
g36
sg11
g34
sg12
S'2010'
p462
sg14
g50
sg16
S'3.0'
p463
sg17
S'11/07'
p464
sg19
g34
sg20
S'Tim Hightower'
p465
sg22
S'13'
p466
sg23
S'L24-27'
p467
sg24
g34
sg25
g34
sg26
S'@MIN'
p468
sg27
S'--'
p469
sg28
S'39'
p470
sg29
S'11'
p471
ssg235
(dp472
g5
S'11.0'
p473
sg7
S'--'
p474
sg8
g34
sg9
S'--'
p475
sg10
g36
sg11
g34
sg12
S'2010'
p476
sg14
g235
sg16
S'0.0'
p477
sg17
S'10/31'
p478
sg19
g34
sg20
S'Tim Hightower'
p479
sg22
g36
sg23
S'L35-38'
p480
sg24
S'11'
p481
sg25
g36
sg26
S'TB'
p482
sg27
S'11'
p483
sg28
g34
sg29
g34
sss.