(dp0
S'2015'
p1
(dp2
S'11'
p3
(dp4
S'RecAvg'
p5
S'--'
p6
sS'FUM'
p7
S'--'
p8
sS'GS'
p9
S'0'
p10
sS'Lost'
p11
S'--'
p12
sS'G'
p13
S'1'
p14
sS'RecTD'
p15
S'--'
p16
sS'Year'
p17
S'2015'
p18
sS'WK'
p19
S'11'
p20
sS'RushAvg'
p21
S'--'
p22
sS'Game Date'
p23
S'11/19'
p24
sS'RushTD'
p25
S'--'
p26
sS'Player'
p27
S'Toby Gerhart'
p28
sS'RushAtt'
p29
S'--'
p30
sS'Result'
p31
S'W19-13'
p32
sS'RecYds'
p33
S'--'
p34
sS'Rec'
p35
S'--'
p36
sS'Opp'
p37
S'TEN'
p38
sS'RecLng'
p39
S'--'
p40
sS'RushYds'
p41
S'--'
p42
sS'RushLng'
p43
S'--'
p44
ssS'10'
p45
(dp46
g5
S'--'
p47
sg7
S'--'
p48
sg9
g10
sg11
S'--'
p49
sg13
g10
sg15
S'--'
p50
sg17
S'2015'
p51
sg19
S'10'
p52
sg21
S'--'
p53
sg23
S'11/15'
p54
sg25
S'--'
p55
sg27
S'Toby Gerhart'
p56
sg29
S'--'
p57
sg31
S'W22-20'
p58
sg33
S'--'
p59
sg35
S'--'
p60
sg37
S'@BAL'
p61
sg39
S'--'
p62
sg41
S'--'
p63
sg43
S'--'
p64
ssS'12'
p65
(dp66
g5
S'--'
p67
sg7
S'--'
p68
sg9
g10
sg11
S'--'
p69
sg13
g14
sg15
S'--'
p70
sg17
S'2015'
p71
sg19
S'12'
p72
sg21
S'--'
p73
sg23
S'11/29'
p74
sg25
S'--'
p75
sg27
S'Toby Gerhart'
p76
sg29
S'--'
p77
sg31
S'L25-31'
p78
sg33
S'--'
p79
sg35
S'--'
p80
sg37
S'SD'
p81
sg39
S'--'
p82
sg41
S'--'
p83
sg43
S'--'
p84
ssg14
(dp85
g5
S'--'
p86
sg7
S'--'
p87
sg9
g10
sg11
S'--'
p88
sg13
g10
sg15
S'--'
p89
sg17
S'2015'
p90
sg19
g14
sg21
S'--'
p91
sg23
S'09/13'
p92
sg25
S'--'
p93
sg27
S'Toby Gerhart'
p94
sg29
S'--'
p95
sg31
S'L9-20'
p96
sg33
S'--'
p97
sg35
S'--'
p98
sg37
S'CAR'
p99
sg39
S'--'
p100
sg41
S'--'
p101
sg43
S'--'
p102
ssS'3'
p103
(dp104
g5
S'--'
p105
sg7
S'--'
p106
sg9
g10
sg11
S'--'
p107
sg13
g14
sg15
S'--'
p108
sg17
S'2015'
p109
sg19
g103
sg21
S'3.3'
p110
sg23
S'09/27'
p111
sg25
g10
sg27
S'Toby Gerhart'
p112
sg29
g103
sg31
S'L17-51'
p113
sg33
S'--'
p114
sg35
S'--'
p115
sg37
S'@NE'
p116
sg39
S'--'
p117
sg41
S'10'
p118
sg43
S'5'
p119
ssS'2'
p120
(dp121
g5
S'--'
p122
sg7
S'--'
p123
sg9
g10
sg11
S'--'
p124
sg13
g10
sg15
S'--'
p125
sg17
S'2015'
p126
sg19
g120
sg21
S'--'
p127
sg23
S'09/20'
p128
sg25
S'--'
p129
sg27
S'Toby Gerhart'
p130
sg29
S'--'
p131
sg31
S'W23-20'
p132
sg33
S'--'
p133
sg35
S'--'
p134
sg37
S'MIA'
p135
sg39
S'--'
p136
sg41
S'--'
p137
sg43
S'--'
p138
ssg119
(dp139
g5
S'--'
p140
sg7
S'--'
p141
sg9
g10
sg11
S'--'
p142
sg13
g14
sg15
g10
sg17
S'2015'
p143
sg19
g119
sg21
S'2.0'
p144
sg23
S'10/11'
p145
sg25
g10
sg27
S'Toby Gerhart'
p146
sg29
g14
sg31
S'L31-38'
p147
sg33
g10
sg35
g10
sg37
S'@TB'
p148
sg39
S'--'
p149
sg41
g120
sg43
g120
ssS'4'
p150
(dp151
g5
S'--'
p152
sg7
S'--'
p153
sg9
g10
sg11
S'--'
p154
sg13
g14
sg15
S'--'
p155
sg17
S'2015'
p156
sg19
g150
sg21
S'-2.0'
p157
sg23
S'10/04'
p158
sg25
g10
sg27
S'Toby Gerhart'
p159
sg29
g14
sg31
S'L13-16'
p160
sg33
S'--'
p161
sg35
S'--'
p162
sg37
S'@IND'
p163
sg39
S'--'
p164
sg41
S'-2'
p165
sg43
S'-2'
p166
ssS'7'
p167
(dp168
g5
S'--'
p169
sg7
S'--'
p170
sg9
g10
sg11
S'--'
p171
sg13
g14
sg15
S'--'
p172
sg17
S'2015'
p173
sg19
g167
sg21
S'1.3'
p174
sg23
S'10/25'
p175
sg25
g10
sg27
S'Toby Gerhart'
p176
sg29
S'6'
p177
sg31
S'W34-31'
p178
sg33
S'--'
p179
sg35
S'--'
p180
sg37
S'BUF'
p181
sg39
S'--'
p182
sg41
S'8'
p183
sg43
g150
ssg177
(dp184
g5
S'7.7'
p185
sg7
S'--'
p186
sg9
g14
sg11
S'--'
p187
sg13
g14
sg15
g10
sg17
S'2015'
p188
sg19
g177
sg21
S'2.9'
p189
sg23
S'10/18'
p190
sg25
g10
sg27
S'Toby Gerhart'
p191
sg29
S'9'
p192
sg31
S'L20-31'
p193
sg33
S'23'
p194
sg35
g103
sg37
S'HOU'
p195
sg39
g183
sg41
S'26'
p196
sg43
g177
ssg192
(dp197
g5
S'--'
p198
sg7
S'--'
p199
sg9
g10
sg11
S'--'
p200
sg13
g10
sg15
S'--'
p201
sg17
S'2015'
p202
sg19
g192
sg21
S'--'
p203
sg23
S'11/08'
p204
sg25
S'--'
p205
sg27
S'Toby Gerhart'
p206
sg29
S'--'
p207
sg31
S'L23-28'
p208
sg33
S'--'
p209
sg35
S'--'
p210
sg37
S'@NYJ'
p211
sg39
S'--'
p212
sg41
S'--'
p213
sg43
S'--'
p214
ssg183
(dp215
g5
S''
p216
sg7
g216
sg9
g216
sg11
g216
sg13
g216
sg15
g216
sg17
S'2015'
p217
sg19
g183
sg21
g216
sg23
S'Bye'
p218
sg25
g216
sg27
S'Toby Gerhart'
p219
sg29
g216
sg31
g216
sg33
g216
sg35
g216
sg37
g216
sg39
g216
sg41
g216
sg43
g216
sssS'2014'
p220
(dp221
g3
(dp222
g5
g216
sg7
g216
sg9
g216
sg11
g216
sg13
g216
sg15
g216
sg17
S'2014'
p223
sg19
S'11'
p224
sg21
g216
sg23
S'Bye'
p225
sg25
g216
sg27
S'Toby Gerhart'
p226
sg29
g216
sg31
g216
sg33
g216
sg35
g216
sg37
g216
sg39
g216
sg41
g216
sg43
g216
ssg45
(dp227
g5
S'--'
p228
sg7
S'--'
p229
sg9
g10
sg11
S'--'
p230
sg13
g14
sg15
S'--'
p231
sg17
S'2014'
p232
sg19
S'10'
p233
sg21
S'0.5'
p234
sg23
S'11/09'
p235
sg25
g10
sg27
S'Toby Gerhart'
p236
sg29
g150
sg31
S'L17-31'
p237
sg33
S'--'
p238
sg35
S'--'
p239
sg37
S'DAL'
p240
sg39
S'--'
p241
sg41
g120
sg43
g120
ssS'13'
p242
(dp243
g5
S'--'
p244
sg7
S'--'
p245
sg9
g10
sg11
S'--'
p246
sg13
g14
sg15
S'--'
p247
sg17
S'2014'
p248
sg19
S'13'
p249
sg21
S'1.4'
p250
sg23
S'11/30'
p251
sg25
g10
sg27
S'Toby Gerhart'
p252
sg29
g119
sg31
S'W25-24'
p253
sg33
S'--'
p254
sg35
S'--'
p255
sg37
S'NYG'
p256
sg39
S'--'
p257
sg41
g167
sg43
g150
ssg65
(dp258
g5
S'6.3'
p259
sg7
S'--'
p260
sg9
g10
sg11
S'--'
p261
sg13
g14
sg15
g10
sg17
S'2014'
p262
sg19
S'12'
p263
sg21
S'7.8'
p264
sg23
S'11/23'
p265
sg25
g10
sg27
S'Toby Gerhart'
p266
sg29
g150
sg31
S'L3-23'
p267
sg33
S'19'
p268
sg35
g103
sg37
S'@IND'
p269
sg39
g183
sg41
S'31'
p270
sg43
S'23'
p271
ssS'15'
p272
(dp273
g5
S'4.5'
p274
sg7
S'--'
p275
sg9
g14
sg11
S'--'
p276
sg13
g14
sg15
g10
sg17
S'2014'
p277
sg19
S'15'
p278
sg21
S'4.2'
p279
sg23
S'12/14'
p280
sg25
g10
sg27
S'Toby Gerhart'
p281
sg29
S'13'
p282
sg31
S'L12-20'
p283
sg33
g192
sg35
g120
sg37
S'@BAL'
p284
sg39
g177
sg41
S'54'
p285
sg43
S'10'
p286
ssS'14'
p287
(dp288
g5
S'8.0'
p289
sg7
S'--'
p290
sg9
g10
sg11
S'--'
p291
sg13
g14
sg15
g10
sg17
S'2014'
p292
sg19
S'14'
p293
sg21
S'3.8'
p294
sg23
S'12/07'
p295
sg25
g10
sg27
S'Toby Gerhart'
p296
sg29
g119
sg31
S'L13-27'
p297
sg33
S'16'
p298
sg35
g120
sg37
S'HOU'
p299
sg39
S'13'
p300
sg41
S'19'
p301
sg43
g192
ssS'17'
p302
(dp303
g5
S'--'
p304
sg7
S'--'
p305
sg9
g10
sg11
S'--'
p306
sg13
g14
sg15
S'--'
p307
sg17
S'2014'
p308
sg19
S'17'
p309
sg21
S'2.0'
p310
sg23
S'12/28'
p311
sg25
g10
sg27
S'Toby Gerhart'
p312
sg29
g150
sg31
S'L17-23'
p313
sg33
S'--'
p314
sg35
S'--'
p315
sg37
S'@HOU'
p316
sg39
S'--'
p317
sg41
g183
sg43
g192
ssS'16'
p318
(dp319
g5
S'7.0'
p320
sg7
S'--'
p321
sg9
g14
sg11
S'--'
p322
sg13
g14
sg15
g10
sg17
S'2014'
p323
sg19
S'16'
p324
sg21
S'4.4'
p325
sg23
S'12/18'
p326
sg25
g14
sg27
S'Toby Gerhart'
p327
sg29
S'12'
p328
sg31
S'W21-13'
p329
sg33
g167
sg35
g14
sg37
S'TEN'
p330
sg39
g167
sg41
S'53'
p331
sg43
S'14'
p332
ssg14
(dp333
g5
S'7.5'
p334
sg7
S'--'
p335
sg9
g14
sg11
S'--'
p336
sg13
g14
sg15
g10
sg17
S'2014'
p337
sg19
g14
sg21
S'2.5'
p338
sg23
S'09/07'
p339
sg25
g10
sg27
S'Toby Gerhart'
p340
sg29
S'17'
p341
sg31
S'L17-34'
p342
sg33
S'15'
p343
sg35
g120
sg37
S'@PHI'
p344
sg39
S'11'
p345
sg41
S'42'
p346
sg43
S'11'
p347
ssg103
(dp348
g5
S'15.5'
p349
sg7
S'--'
p350
sg9
g14
sg11
S'--'
p351
sg13
g14
sg15
g10
sg17
S'2014'
p352
sg19
g103
sg21
S'3.6'
p353
sg23
S'09/21'
p354
sg25
g10
sg27
S'Toby Gerhart'
p355
sg29
g192
sg31
S'L17-44'
p356
sg33
S'31'
p357
sg35
g120
sg37
S'IND'
p358
sg39
S'26'
p359
sg41
S'32'
p360
sg43
S'13'
p361
ssg120
(dp362
g5
S'4.5'
p363
sg7
S'--'
p364
sg9
g14
sg11
S'--'
p365
sg13
g14
sg15
g10
sg17
S'2014'
p366
sg19
g120
sg21
S'1.1'
p367
sg23
S'09/14'
p368
sg25
g10
sg27
S'Toby Gerhart'
p369
sg29
g167
sg31
S'L10-41'
p370
sg33
g192
sg35
g120
sg37
S'@WAS'
p371
sg39
g177
sg41
g183
sg43
g103
ssg119
(dp372
g5
S'20.0'
p373
sg7
S'--'
p374
sg9
g14
sg11
S'--'
p375
sg13
g14
sg15
g10
sg17
S'2014'
p376
sg19
g119
sg21
S'2.3'
p377
sg23
S'10/05'
p378
sg25
g10
sg27
S'Toby Gerhart'
p379
sg29
g150
sg31
S'L9-17'
p380
sg33
S'20'
p381
sg35
g14
sg37
S'PIT'
p382
sg39
S'20'
p383
sg41
g192
sg43
g103
ssg150
(dp384
g5
S'8.0'
p385
sg7
g14
sg9
g14
sg11
g14
sg13
g14
sg15
g10
sg17
S'2014'
p386
sg19
g150
sg21
S'3.2'
p387
sg23
S'09/28'
p388
sg25
g14
sg27
S'Toby Gerhart'
p389
sg29
S'10'
p390
sg31
S'L14-33'
p391
sg33
g183
sg35
g14
sg37
S'@SD'
p392
sg39
g183
sg41
S'32'
p393
sg43
S'10'
p394
ssg167
(dp395
g5
S'--'
p396
sg7
S'--'
p397
sg9
g10
sg11
S'--'
p398
sg13
g10
sg15
S'--'
p399
sg17
S'2014'
p400
sg19
g167
sg21
S'--'
p401
sg23
S'10/19'
p402
sg25
S'--'
p403
sg27
S'Toby Gerhart'
p404
sg29
S'--'
p405
sg31
S'W24-6'
p406
sg33
S'--'
p407
sg35
S'--'
p408
sg37
S'CLE'
p409
sg39
S'--'
p410
sg41
S'--'
p411
sg43
S'--'
p412
ssg177
(dp413
g5
S'--'
p414
sg7
S'--'
p415
sg9
g10
sg11
S'--'
p416
sg13
g10
sg15
S'--'
p417
sg17
S'2014'
p418
sg19
g177
sg21
S'--'
p419
sg23
S'10/12'
p420
sg25
S'--'
p421
sg27
S'Toby Gerhart'
p422
sg29
S'--'
p423
sg31
S'L14-16'
p424
sg33
S'--'
p425
sg35
S'--'
p426
sg37
S'@TEN'
p427
sg39
S'--'
p428
sg41
S'--'
p429
sg43
S'--'
p430
ssg192
(dp431
g5
S'16.3'
p432
sg7
S'--'
p433
sg9
g10
sg11
S'--'
p434
sg13
g14
sg15
g10
sg17
S'2014'
p435
sg19
g192
sg21
S'6.3'
p436
sg23
S'11/02'
p437
sg25
g10
sg27
S'Toby Gerhart'
p438
sg29
g103
sg31
S'L23-33'
p439
sg33
S'49'
p440
sg35
g103
sg37
S'@CIN'
p441
sg39
S'19'
p442
sg41
S'19'
p443
sg43
S'12'
p444
ssg183
(dp445
g5
S'3.0'
p446
sg7
S'--'
p447
sg9
g10
sg11
S'--'
p448
sg13
g14
sg15
g10
sg17
S'2014'
p449
sg19
g183
sg21
S'2.5'
p450
sg23
S'10/26'
p451
sg25
g10
sg27
S'Toby Gerhart'
p452
sg29
g150
sg31
S'L13-27'
p453
sg33
g103
sg35
g14
sg37
S'MIA'
p454
sg39
g103
sg41
S'10'
p455
sg43
g150
sssS'2011'
p456
(dp457
g3
(dp458
g5
S'7.0'
p459
sg7
S'--'
p460
sg9
g10
sg11
S'--'
p461
sg13
g14
sg15
g10
sg17
S'2011'
p462
sg19
S'11'
p463
sg21
S'2.6'
p464
sg23
S'11/20'
p465
sg25
g10
sg27
S'Toby Gerhart'
p466
sg29
g167
sg31
S'L21-27'
p467
sg33
g167
sg35
g14
sg37
S'OAK'
p468
sg39
g167
sg41
S'18'
p469
sg43
g183
ssg45
(dp470
g5
S'--'
p471
sg7
S'--'
p472
sg9
g10
sg11
S'--'
p473
sg13
g14
sg15
S'--'
p474
sg17
S'2011'
p475
sg19
S'10'
p476
sg21
S'--'
p477
sg23
S'11/14'
p478
sg25
S'--'
p479
sg27
S'Toby Gerhart'
p480
sg29
S'--'
p481
sg31
S'L7-45'
p482
sg33
S'--'
p483
sg35
S'--'
p484
sg37
S'@GB'
p485
sg39
S'--'
p486
sg41
S'--'
p487
sg43
S'--'
p488
ssg242
(dp489
g5
S'5.3'
p490
sg7
S'--'
p491
sg9
g14
sg11
S'--'
p492
sg13
g14
sg15
g10
sg17
S'2011'
p493
sg19
S'13'
p494
sg21
S'4.3'
p495
sg23
S'12/04'
p496
sg25
g10
sg27
S'Toby Gerhart'
p497
sg29
S'21'
p498
sg31
S'L32-35'
p499
sg33
S'42'
p500
sg35
g183
sg37
S'DEN'
p501
sg39
S'14'
p502
sg41
S'91'
p503
sg43
S'16'
p504
ssg65
(dp505
g5
S'9.5'
p506
sg7
S'--'
p507
sg9
g14
sg11
S'--'
p508
sg13
g14
sg15
g10
sg17
S'2011'
p509
sg19
S'12'
p510
sg21
S'2.6'
p511
sg23
S'11/27'
p512
sg25
g14
sg27
S'Toby Gerhart'
p513
sg29
S'17'
p514
sg31
S'L14-24'
p515
sg33
S'19'
p516
sg35
g120
sg37
S'@ATL'
p517
sg39
S'11'
p518
sg41
S'44'
p519
sg43
S'12'
p520
ssg272
(dp521
g5
S'11.5'
p522
sg7
S'--'
p523
sg9
g10
sg11
S'--'
p524
sg13
g14
sg15
g120
sg17
S'2011'
p525
sg19
S'15'
p526
sg21
S'6.0'
p527
sg23
S'12/18'
p528
sg25
g10
sg27
S'Toby Gerhart'
p529
sg29
g120
sg31
S'L20-42'
p530
sg33
S'46'
p531
sg35
g150
sg37
S'NO'
p532
sg39
S'16T'
p533
sg41
S'12'
p534
sg43
g192
ssg287
(dp535
g5
S'6.3'
p536
sg7
S'--'
p537
sg9
g14
sg11
S'--'
p538
sg13
g14
sg15
g14
sg17
S'2011'
p539
sg19
S'14'
p540
sg21
S'4.7'
p541
sg23
S'12/11'
p542
sg25
g10
sg27
S'Toby Gerhart'
p543
sg29
S'19'
p544
sg31
S'L28-34'
p545
sg33
S'19'
p546
sg35
g103
sg37
S'@DET'
p547
sg39
g192
sg41
S'90'
p548
sg43
S'15'
p549
ssg302
(dp550
g5
S'3.0'
p551
sg7
S'--'
p552
sg9
g14
sg11
S'--'
p553
sg13
g14
sg15
g10
sg17
S'2011'
p554
sg19
S'17'
p555
sg21
S'4.5'
p556
sg23
S'01/01'
p557
sg25
g10
sg27
S'Toby Gerhart'
p558
sg29
S'15'
p559
sg31
S'L13-17'
p560
sg33
g103
sg35
g14
sg37
S'CHI'
p561
sg39
g103
sg41
S'67'
p562
sg43
S'24'
p563
ssg318
(dp564
g5
S'--'
p565
sg7
g14
sg9
g10
sg11
g10
sg13
g14
sg15
g10
sg17
S'2011'
p566
sg19
S'16'
p567
sg21
S'9.9'
p568
sg23
S'12/24'
p569
sg25
g10
sg27
S'Toby Gerhart'
p570
sg29
S'11'
p571
sg31
S'W33-26'
p572
sg33
g10
sg35
g10
sg37
S'@WAS'
p573
sg39
S'--'
p574
sg41
S'109'
p575
sg43
S'67'
p576
ssg14
(dp577
g5
S'--'
p578
sg7
S'--'
p579
sg9
g10
sg11
S'--'
p580
sg13
g14
sg15
S'--'
p581
sg17
S'2011'
p582
sg19
g14
sg21
S'8.0'
p583
sg23
S'09/11'
p584
sg25
g10
sg27
S'Toby Gerhart'
p585
sg29
g120
sg31
S'L17-24'
p586
sg33
S'--'
p587
sg35
S'--'
p588
sg37
S'@SD'
p589
sg39
S'--'
p590
sg41
S'16'
p591
sg43
S'12'
p592
ssg103
(dp593
g5
S'5.0'
p594
sg7
S'--'
p595
sg9
g10
sg11
S'--'
p596
sg13
g14
sg15
g10
sg17
S'2011'
p597
sg19
g103
sg21
S'1.0'
p598
sg23
S'09/25'
p599
sg25
g10
sg27
S'Toby Gerhart'
p600
sg29
g120
sg31
S'L23-26'
p601
sg33
g119
sg35
g14
sg37
S'DET'
p602
sg39
g119
sg41
g120
sg43
g120
ssg120
(dp603
g5
S'42.0'
p604
sg7
S'--'
p605
sg9
g14
sg11
S'--'
p606
sg13
g14
sg15
g10
sg17
S'2011'
p607
sg19
g120
sg21
S'18.0'
p608
sg23
S'09/18'
p609
sg25
g10
sg27
S'Toby Gerhart'
p610
sg29
g120
sg31
S'L20-24'
p611
sg33
S'42'
p612
sg35
g14
sg37
S'TB'
p613
sg39
S'42'
p614
sg41
S'36'
p615
sg43
S'31'
p616
ssg119
(dp617
g5
S'--'
p618
sg7
S'--'
p619
sg9
g10
sg11
S'--'
p620
sg13
g14
sg15
S'--'
p621
sg17
S'2011'
p622
sg19
g119
sg21
S'4.5'
p623
sg23
S'10/09'
p624
sg25
g10
sg27
S'Toby Gerhart'
p625
sg29
g120
sg31
S'W34-10'
p626
sg33
S'--'
p627
sg35
S'--'
p628
sg37
S'ARI'
p629
sg39
S'--'
p630
sg41
g192
sg43
g119
ssg150
(dp631
g5
S'--'
p632
sg7
S'--'
p633
sg9
g10
sg11
S'--'
p634
sg13
g14
sg15
g10
sg17
S'2011'
p635
sg19
g150
sg21
S'2.0'
p636
sg23
S'10/02'
p637
sg25
g10
sg27
S'Toby Gerhart'
p638
sg29
g120
sg31
S'L17-22'
p639
sg33
g10
sg35
g10
sg37
S'@KC'
p640
sg39
S'--'
p641
sg41
g150
sg43
g103
ssg167
(dp642
g5
S'--'
p643
sg7
S'--'
p644
sg9
g10
sg11
S'--'
p645
sg13
g14
sg15
S'--'
p646
sg17
S'2011'
p647
sg19
g167
sg21
S'4.0'
p648
sg23
S'10/23'
p649
sg25
g10
sg27
S'Toby Gerhart'
p650
sg29
g14
sg31
S'L27-33'
p651
sg33
S'--'
p652
sg35
S'--'
p653
sg37
S'GB'
p654
sg39
S'--'
p655
sg41
g150
sg43
g150
ssg177
(dp656
g5
S'3.5'
p657
sg7
S'--'
p658
sg9
g10
sg11
S'--'
p659
sg13
g14
sg15
g10
sg17
S'2011'
p660
sg19
g177
sg21
S'3.0'
p661
sg23
S'10/16'
p662
sg25
g10
sg27
S'Toby Gerhart'
p663
sg29
g14
sg31
S'L10-39'
p664
sg33
g167
sg35
g120
sg37
S'@CHI'
p665
sg39
g150
sg41
g103
sg43
g103
ssg192
(dp666
g5
g216
sg7
g216
sg9
g216
sg11
g216
sg13
g216
sg15
g216
sg17
S'2011'
p667
sg19
g192
sg21
g216
sg23
S'Bye'
p668
sg25
g216
sg27
S'Toby Gerhart'
p669
sg29
g216
sg31
g216
sg33
g216
sg35
g216
sg37
g216
sg39
g216
sg41
g216
sg43
g216
ssg183
(dp670
g5
S'--'
p671
sg7
S'--'
p672
sg9
g10
sg11
S'--'
p673
sg13
g14
sg15
S'--'
p674
sg17
S'2011'
p675
sg19
g183
sg21
S'5.2'
p676
sg23
S'10/30'
p677
sg25
g10
sg27
S'Toby Gerhart'
p678
sg29
g119
sg31
S'W24-21'
p679
sg33
S'--'
p680
sg35
S'--'
p681
sg37
S'@CAR'
p682
sg39
S'--'
p683
sg41
S'26'
p684
sg43
S'11'
p685
sssS'2010'
p686
(dp687
g3
(dp688
g5
S'13.7'
p689
sg7
g14
sg9
g10
sg11
g14
sg13
g14
sg15
g10
sg17
S'2010'
p690
sg19
S'11'
p691
sg21
S'3.0'
p692
sg23
S'11/21'
p693
sg25
g10
sg27
S'Toby Gerhart'
p694
sg29
g14
sg31
S'L3-31'
p695
sg33
S'41'
p696
sg35
g103
sg37
S'GB'
p697
sg39
S'19'
p698
sg41
g103
sg43
g103
ssg45
(dp699
g5
S'8.5'
p700
sg7
S'--'
p701
sg9
g10
sg11
S'--'
p702
sg13
g14
sg15
g10
sg17
S'2010'
p703
sg19
S'10'
p704
sg21
S'5.0'
p705
sg23
S'11/14'
p706
sg25
g10
sg27
S'Toby Gerhart'
p707
sg29
g150
sg31
S'L13-27'
p708
sg33
S'17'
p709
sg35
g120
sg37
S'@CHI'
p710
sg39
g192
sg41
S'20'
p711
sg43
S'11'
p712
ssg242
(dp713
g5
S'-2.0'
p714
sg7
S'--'
p715
sg9
g10
sg11
S'--'
p716
sg13
g14
sg15
g10
sg17
S'2010'
p717
sg19
S'13'
p718
sg21
S'4.5'
p719
sg23
S'12/05'
p720
sg25
g10
sg27
S'Toby Gerhart'
p721
sg29
S'12'
p722
sg31
S'W38-14'
p723
sg33
S'-2'
p724
sg35
g14
sg37
S'BUF'
p725
sg39
S'-2'
p726
sg41
S'54'
p727
sg43
S'13'
p728
ssg65
(dp729
g5
S'2.5'
p730
sg7
S'--'
p731
sg9
g10
sg11
S'--'
p732
sg13
g14
sg15
g10
sg17
S'2010'
p733
sg19
S'12'
p734
sg21
S'3.5'
p735
sg23
S'11/28'
p736
sg25
g14
sg27
S'Toby Gerhart'
p737
sg29
S'22'
p738
sg31
S'W17-13'
p739
sg33
g119
sg35
g120
sg37
S'@WAS'
p740
sg39
g183
sg41
S'76'
p741
sg43
g177
ssg272
(dp742
g5
S'6.0'
p743
sg7
g14
sg9
g14
sg11
g14
sg13
g14
sg15
g10
sg17
S'2010'
p744
sg19
S'15'
p745
sg21
S'4.8'
p746
sg23
S'12/20'
p747
sg25
g10
sg27
S'Toby Gerhart'
p748
sg29
S'16'
p749
sg31
S'L14-40'
p750
sg33
S'18'
p751
sg35
g103
sg37
S'CHI'
p752
sg39
S'12'
p753
sg41
S'77'
p754
sg43
S'21'
p755
ssg287
(dp756
g5
S'1.0'
p757
sg7
S'--'
p758
sg9
g10
sg11
S'--'
p759
sg13
g14
sg15
g10
sg17
S'2010'
p760
sg19
S'14'
p761
sg21
S'3.7'
p762
sg23
S'12/13'
p763
sg25
g10
sg27
S'Toby Gerhart'
p764
sg29
g103
sg31
S'L3-21'
p765
sg33
g14
sg35
g14
sg37
S'NYG'
p766
sg39
g14
sg41
S'11'
p767
sg43
g119
ssg302
(dp768
g5
S'6.0'
p769
sg7
S'--'
p770
sg9
g10
sg11
S'--'
p771
sg13
g14
sg15
g10
sg17
S'2010'
p772
sg19
S'17'
p773
sg21
S'4.0'
p774
sg23
S'01/02'
p775
sg25
g10
sg27
S'Toby Gerhart'
p776
sg29
g103
sg31
S'L13-20'
p777
sg33
g177
sg35
g14
sg37
S'@DET'
p778
sg39
g177
sg41
S'12'
p779
sg43
g177
ssg318
(dp780
g5
S'--'
p781
sg7
S'--'
p782
sg9
g10
sg11
S'--'
p783
sg13
g14
sg15
S'--'
p784
sg17
S'2010'
p785
sg19
S'16'
p786
sg21
S'6.0'
p787
sg23
S'12/28'
p788
sg25
g10
sg27
S'Toby Gerhart'
p789
sg29
g14
sg31
S'W24-14'
p790
sg33
S'--'
p791
sg35
S'--'
p792
sg37
S'@PHI'
p793
sg39
S'--'
p794
sg41
g177
sg43
g177
ssg14
(dp795
g5
S'--'
p796
sg7
S'--'
p797
sg9
g10
sg11
S'--'
p798
sg13
g10
sg15
S'--'
p799
sg17
S'2010'
p800
sg19
g14
sg21
S'--'
p801
sg23
S'09/09'
p802
sg25
S'--'
p803
sg27
S'Toby Gerhart'
p804
sg29
S'--'
p805
sg31
S'L9-14'
p806
sg33
S'--'
p807
sg35
S'--'
p808
sg37
S'@NO'
p809
sg39
S'--'
p810
sg41
S'--'
p811
sg43
S'--'
p812
ssg103
(dp813
g5
S'--'
p814
sg7
g14
sg9
g10
sg11
g14
sg13
g14
sg15
g10
sg17
S'2010'
p815
sg19
g103
sg21
S'4.0'
p816
sg23
S'09/26'
p817
sg25
g10
sg27
S'Toby Gerhart'
p818
sg29
g103
sg31
S'W24-10'
p819
sg33
g10
sg35
g10
sg37
S'DET'
p820
sg39
S'--'
p821
sg41
S'12'
p822
sg43
g183
ssg120
(dp823
g5
S'5.0'
p824
sg7
S'--'
p825
sg9
g10
sg11
S'--'
p826
sg13
g14
sg15
g10
sg17
S'2010'
p827
sg19
g120
sg21
S'2.5'
p828
sg23
S'09/19'
p829
sg25
g10
sg27
S'Toby Gerhart'
p830
sg29
g150
sg31
S'L10-14'
p831
sg33
g119
sg35
g14
sg37
S'MIA'
p832
sg39
g119
sg41
S'10'
p833
sg43
g177
ssg119
(dp834
g5
S'--'
p835
sg7
S'--'
p836
sg9
g10
sg11
S'--'
p837
sg13
g14
sg15
g10
sg17
S'2010'
p838
sg19
g119
sg21
S'3.5'
p839
sg23
S'10/11'
p840
sg25
g10
sg27
S'Toby Gerhart'
p841
sg29
g120
sg31
S'L20-29'
p842
sg33
g10
sg35
g10
sg37
S'@NYJ'
p843
sg39
S'--'
p844
sg41
g167
sg43
g177
ssg150
(dp845
g5
g216
sg7
g216
sg9
g216
sg11
g216
sg13
g216
sg15
g216
sg17
S'2010'
p846
sg19
g150
sg21
g216
sg23
S'Bye'
p847
sg25
g216
sg27
S'Toby Gerhart'
p848
sg29
g216
sg31
g216
sg33
g216
sg35
g216
sg37
g216
sg39
g216
sg41
g216
sg43
g216
ssg167
(dp849
g5
S'6.0'
p850
sg7
S'--'
p851
sg9
g10
sg11
S'--'
p852
sg13
g14
sg15
g10
sg17
S'2010'
p853
sg19
g167
sg21
S'4.8'
p854
sg23
S'10/24'
p855
sg25
g10
sg27
S'Toby Gerhart'
p856
sg29
g119
sg31
S'L24-28'
p857
sg33
g177
sg35
g14
sg37
S'@GB'
p858
sg39
g177
sg41
S'24'
p859
sg43
S'11'
p860
ssg177
(dp861
g5
S'--'
p862
sg7
S'--'
p863
sg9
g10
sg11
S'--'
p864
sg13
g14
sg15
S'--'
p865
sg17
S'2010'
p866
sg19
g177
sg21
S'4.0'
p867
sg23
S'10/17'
p868
sg25
g10
sg27
S'Toby Gerhart'
p869
sg29
g14
sg31
S'W24-21'
p870
sg33
S'--'
p871
sg35
S'--'
p872
sg37
S'DAL'
p873
sg39
S'--'
p874
sg41
g150
sg43
g150
ssg192
(dp875
g5
S'3.0'
p876
sg7
S'--'
p877
sg9
g10
sg11
S'--'
p878
sg13
g14
sg15
g10
sg17
S'2010'
p879
sg19
g192
sg21
S'3.0'
p880
sg23
S'11/07'
p881
sg25
g10
sg27
S'Toby Gerhart'
p882
sg29
g120
sg31
S'W27-24'
p883
sg33
g103
sg35
g14
sg37
S'ARI'
p884
sg39
g103
sg41
g177
sg43
g177
ssg183
(dp885
g5
S'13.4'
p886
sg7
S'--'
p887
sg9
g10
sg11
S'--'
p888
sg13
g14
sg15
g10
sg17
S'2010'
p889
sg19
g183
sg21
S'0.0'
p890
sg23
S'10/31'
p891
sg25
g10
sg27
S'Toby Gerhart'
p892
sg29
g120
sg31
S'L18-28'
p893
sg33
S'67'
p894
sg35
g119
sg37
S'@NE'
p895
sg39
S'23'
p896
sg41
g10
sg43
g10
sssS'2013'
p897
(dp898
g3
(dp899
g5
S'7.0'
p900
sg7
S'--'
p901
sg9
g10
sg11
S'--'
p902
sg13
g14
sg15
g10
sg17
S'2013'
p903
sg19
S'11'
p904
sg21
S'9.6'
p905
sg23
S'11/17'
p906
sg25
g10
sg27
S'Toby Gerhart'
p907
sg29
g167
sg31
S'L20-41'
p908
sg33
g167
sg35
g14
sg37
S'@SEA'
p909
sg39
g167
sg41
S'67'
p910
sg43
S'32'
p911
ssg45
(dp912
g5
S'--'
p913
sg7
S'--'
p914
sg9
g10
sg11
S'--'
p915
sg13
g14
sg15
S'--'
p916
sg17
S'2013'
p917
sg19
S'10'
p918
sg21
S'4.0'
p919
sg23
S'11/07'
p920
sg25
g10
sg27
S'Toby Gerhart'
p921
sg29
g14
sg31
S'W34-27'
p922
sg33
S'--'
p923
sg35
S'--'
p924
sg37
S'WAS'
p925
sg39
S'--'
p926
sg41
g150
sg43
g150
ssg242
(dp927
g5
S'4.0'
p928
sg7
S'--'
p929
sg9
g10
sg11
S'--'
p930
sg13
g14
sg15
g10
sg17
S'2013'
p931
sg19
S'13'
p932
sg21
S'4.0'
p933
sg23
S'12/01'
p934
sg25
g10
sg27
S'Toby Gerhart'
p935
sg29
g120
sg31
S'W23-20'
p936
sg33
g150
sg35
g14
sg37
S'CHI'
p937
sg39
g150
sg41
g183
sg43
g177
ssg65
(dp938
g5
S'5.0'
p939
sg7
S'--'
p940
sg9
g10
sg11
S'--'
p941
sg13
g14
sg15
g10
sg17
S'2013'
p942
sg19
S'12'
p943
sg21
S'11.4'
p944
sg23
S'11/24'
p945
sg25
g10
sg27
S'Toby Gerhart'
p946
sg29
g183
sg31
S'T26-26'
p947
sg33
g119
sg35
g14
sg37
S'@GB'
p948
sg39
g119
sg41
S'91'
p949
sg43
S'26'
p950
ssg272
(dp951
g5
S'--'
p952
sg7
S'--'
p953
sg9
g10
sg11
S'--'
p954
sg13
g10
sg15
S'--'
p955
sg17
S'2013'
p956
sg19
S'15'
p957
sg21
S'--'
p958
sg23
S'12/15'
p959
sg25
S'--'
p960
sg27
S'Toby Gerhart'
p961
sg29
S'--'
p962
sg31
S'W48-30'
p963
sg33
S'--'
p964
sg35
S'--'
p965
sg37
S'PHI'
p966
sg39
S'--'
p967
sg41
S'--'
p968
sg43
S'--'
p969
ssg287
(dp970
g5
S'--'
p971
sg7
g14
sg9
g10
sg11
g14
sg13
g14
sg15
g10
sg17
S'2013'
p972
sg19
S'14'
p973
sg21
S'5.9'
p974
sg23
S'12/08'
p975
sg25
g14
sg27
S'Toby Gerhart'
p976
sg29
S'15'
p977
sg31
S'L26-29'
p978
sg33
g10
sg35
g10
sg37
S'@BAL'
p979
sg39
S'--'
p980
sg41
S'89'
p981
sg43
S'41T'
p982
ssg302
(dp983
g5
S'--'
p984
sg7
S'--'
p985
sg9
g10
sg11
S'--'
p986
sg13
g10
sg15
S'--'
p987
sg17
S'2013'
p988
sg19
S'17'
p989
sg21
S'--'
p990
sg23
S'12/29'
p991
sg25
S'--'
p992
sg27
S'Toby Gerhart'
p993
sg29
S'--'
p994
sg31
S'W14-13'
p995
sg33
S'--'
p996
sg35
S'--'
p997
sg37
S'DET'
p998
sg39
S'--'
p999
sg41
S'--'
p1000
sg43
S'--'
p1001
ssg318
(dp1002
g5
S'--'
p1003
sg7
S'--'
p1004
sg9
g10
sg11
S'--'
p1005
sg13
g14
sg15
S'--'
p1006
sg17
S'2013'
p1007
sg19
S'16'
p1008
sg21
S'--'
p1009
sg23
S'12/22'
p1010
sg25
S'--'
p1011
sg27
S'Toby Gerhart'
p1012
sg29
S'--'
p1013
sg31
S'L14-42'
p1014
sg33
S'--'
p1015
sg35
S'--'
p1016
sg37
S'@CIN'
p1017
sg39
S'--'
p1018
sg41
S'--'
p1019
sg43
S'--'
p1020
ssg14
(dp1021
g5
S'--'
p1022
sg7
S'--'
p1023
sg9
g10
sg11
S'--'
p1024
sg13
g14
sg15
S'--'
p1025
sg17
S'2013'
p1026
sg19
g14
sg21
S'--'
p1027
sg23
S'09/08'
p1028
sg25
S'--'
p1029
sg27
S'Toby Gerhart'
p1030
sg29
S'--'
p1031
sg31
S'L24-34'
p1032
sg33
S'--'
p1033
sg35
S'--'
p1034
sg37
S'@DET'
p1035
sg39
S'--'
p1036
sg41
S'--'
p1037
sg43
S'--'
p1038
ssg103
(dp1039
g5
S'7.0'
p1040
sg7
S'--'
p1041
sg9
g10
sg11
S'--'
p1042
sg13
g14
sg15
g10
sg17
S'2013'
p1043
sg19
g103
sg21
S'--'
p1044
sg23
S'09/22'
p1045
sg25
S'--'
p1046
sg27
S'Toby Gerhart'
p1047
sg29
S'--'
p1048
sg31
S'L27-31'
p1049
sg33
S'14'
p1050
sg35
g120
sg37
S'CLE'
p1051
sg39
g192
sg41
S'--'
p1052
sg43
S'--'
p1053
ssg120
(dp1054
g5
S'3.0'
p1055
sg7
S'--'
p1056
sg9
g10
sg11
S'--'
p1057
sg13
g14
sg15
g10
sg17
S'2013'
p1058
sg19
g120
sg21
S'5.0'
p1059
sg23
S'09/15'
p1060
sg25
g10
sg27
S'Toby Gerhart'
p1061
sg29
g14
sg31
S'L30-31'
p1062
sg33
g103
sg35
g14
sg37
S'@CHI'
p1063
sg39
g103
sg41
g119
sg43
g119
ssg119
(dp1064
g5
g216
sg7
g216
sg9
g216
sg11
g216
sg13
g216
sg15
g216
sg17
S'2013'
p1065
sg19
g119
sg21
g216
sg23
S'Bye'
p1066
sg25
g216
sg27
S'Toby Gerhart'
p1067
sg29
g216
sg31
g216
sg33
g216
sg35
g216
sg37
g216
sg39
g216
sg41
g216
sg43
g216
ssg150
(dp1068
g5
S'7.0'
p1069
sg7
S'--'
p1070
sg9
g10
sg11
S'--'
p1071
sg13
g14
sg15
g10
sg17
S'2013'
p1072
sg19
g150
sg21
S'--'
p1073
sg23
S'09/29'
p1074
sg25
S'--'
p1075
sg27
S'Toby Gerhart'
p1076
sg29
S'--'
p1077
sg31
S'W34-27'
p1078
sg33
g167
sg35
g14
sg37
S'PIT'
p1079
sg39
g167
sg41
S'--'
p1080
sg43
S'--'
p1081
ssg167
(dp1082
g5
S'8.5'
p1083
sg7
S'--'
p1084
sg9
g10
sg11
S'--'
p1085
sg13
g14
sg15
g10
sg17
S'2013'
p1086
sg19
g167
sg21
S'--'
p1087
sg23
S'10/21'
p1088
sg25
S'--'
p1089
sg27
S'Toby Gerhart'
p1090
sg29
S'--'
p1091
sg31
S'L7-23'
p1092
sg33
S'17'
p1093
sg35
g120
sg37
S'@NYG'
p1094
sg39
S'11'
p1095
sg41
S'--'
p1096
sg43
S'--'
p1097
ssg177
(dp1098
g5
S'10.0'
p1099
sg7
S'--'
p1100
sg9
g10
sg11
S'--'
p1101
sg13
g14
sg15
g10
sg17
S'2013'
p1102
sg19
g177
sg21
S'6.0'
p1103
sg23
S'10/13'
p1104
sg25
g10
sg27
S'Toby Gerhart'
p1105
sg29
g14
sg31
S'L10-35'
p1106
sg33
S'10'
p1107
sg35
g14
sg37
S'CAR'
p1108
sg39
S'10'
p1109
sg41
g177
sg43
g177
ssg192
(dp1110
g5
S'6.0'
p1111
sg7
S'--'
p1112
sg9
g10
sg11
S'--'
p1113
sg13
g14
sg15
g10
sg17
S'2013'
p1114
sg19
g192
sg21
S'--'
p1115
sg23
S'11/03'
p1116
sg25
S'--'
p1117
sg27
S'Toby Gerhart'
p1118
sg29
S'--'
p1119
sg31
S'L23-27'
p1120
sg33
g177
sg35
g14
sg37
S'@DAL'
p1121
sg39
g177
sg41
S'--'
p1122
sg43
S'--'
p1123
ssg183
(dp1124
g5
S'7.5'
p1125
sg7
S'--'
p1126
sg9
g10
sg11
S'--'
p1127
sg13
g14
sg15
g10
sg17
S'2013'
p1128
sg19
g183
sg21
S'13.0'
p1129
sg23
S'10/27'
p1130
sg25
g14
sg27
S'Toby Gerhart'
p1131
sg29
g14
sg31
S'L31-44'
p1132
sg33
S'15'
p1133
sg35
g120
sg37
S'GB'
p1134
sg39
S'13'
p1135
sg41
S'13'
p1136
sg43
S'13T'
p1137
sssS'2012'
p1138
(dp1139
g3
(dp1140
g5
g216
sg7
g216
sg9
g216
sg11
g216
sg13
g216
sg15
g216
sg17
S'2012'
p1141
sg19
S'11'
p1142
sg21
g216
sg23
S'Bye'
p1143
sg25
g216
sg27
S'Toby Gerhart'
p1144
sg29
g216
sg31
g216
sg33
g216
sg35
g216
sg37
g216
sg39
g216
sg41
g216
sg43
g216
ssg45
(dp1145
g5
S'7.5'
p1146
sg7
S'--'
p1147
sg9
g10
sg11
S'--'
p1148
sg13
g14
sg15
g10
sg17
S'2012'
p1149
sg19
S'10'
p1150
sg21
S'--'
p1151
sg23
S'11/11'
p1152
sg25
S'--'
p1153
sg27
S'Toby Gerhart'
p1154
sg29
S'--'
p1155
sg31
S'W34-24'
p1156
sg33
S'15'
p1157
sg35
g120
sg37
S'DET'
p1158
sg39
S'10'
p1159
sg41
S'--'
p1160
sg43
S'--'
p1161
ssg242
(dp1162
g5
S'7.0'
p1163
sg7
S'--'
p1164
sg9
g10
sg11
S'--'
p1165
sg13
g14
sg15
g10
sg17
S'2012'
p1166
sg19
S'13'
p1167
sg21
S'2.0'
p1168
sg23
S'12/02'
p1169
sg25
g10
sg27
S'Toby Gerhart'
p1170
sg29
g14
sg31
S'L14-23'
p1171
sg33
g167
sg35
g14
sg37
S'@GB'
p1172
sg39
g167
sg41
g120
sg43
g120
ssg65
(dp1173
g5
S'--'
p1174
sg7
S'--'
p1175
sg9
g10
sg11
S'--'
p1176
sg13
g14
sg15
S'--'
p1177
sg17
S'2012'
p1178
sg19
S'12'
p1179
sg21
S'--'
p1180
sg23
S'11/25'
p1181
sg25
S'--'
p1182
sg27
S'Toby Gerhart'
p1183
sg29
S'--'
p1184
sg31
S'L10-28'
p1185
sg33
S'--'
p1186
sg35
S'--'
p1187
sg37
S'@CHI'
p1188
sg39
S'--'
p1189
sg41
S'--'
p1190
sg43
S'--'
p1191
ssg272
(dp1192
g5
S'10.5'
p1193
sg7
S'--'
p1194
sg9
g10
sg11
S'--'
p1195
sg13
g14
sg15
g10
sg17
S'2012'
p1196
sg19
S'15'
p1197
sg21
S'-1.0'
p1198
sg23
S'12/16'
p1199
sg25
g10
sg27
S'Toby Gerhart'
p1200
sg29
g119
sg31
S'W36-22'
p1201
sg33
S'21'
p1202
sg35
g120
sg37
S'@STL'
p1203
sg39
S'12'
p1204
sg41
S'-5'
p1205
sg43
g120
ssg287
(dp1206
g5
S'-1.0'
p1207
sg7
S'--'
p1208
sg9
g10
sg11
S'--'
p1209
sg13
g14
sg15
g10
sg17
S'2012'
p1210
sg19
S'14'
p1211
sg21
S'5.7'
p1212
sg23
S'12/09'
p1213
sg25
g10
sg27
S'Toby Gerhart'
p1214
sg29
g103
sg31
S'W21-14'
p1215
sg33
S'-1'
p1216
sg35
g14
sg37
S'CHI'
p1217
sg39
S'-1'
p1218
sg41
S'17'
p1219
sg43
g177
ssg302
(dp1220
g5
S'11.0'
p1221
sg7
S'--'
p1222
sg9
g10
sg11
S'--'
p1223
sg13
g14
sg15
g10
sg17
S'2012'
p1224
sg19
S'17'
p1225
sg21
S'2.0'
p1226
sg23
S'12/30'
p1227
sg25
g10
sg27
S'Toby Gerhart'
p1228
sg29
g14
sg31
S'W37-34'
p1229
sg33
S'22'
p1230
sg35
g120
sg37
S'GB'
p1231
sg39
S'21'
p1232
sg41
g120
sg43
g120
ssg318
(dp1233
g5
S'5.0'
p1234
sg7
S'--'
p1235
sg9
g10
sg11
S'--'
p1236
sg13
g14
sg15
g10
sg17
S'2012'
p1237
sg19
S'16'
p1238
sg21
S'3.9'
p1239
sg23
S'12/23'
p1240
sg25
g14
sg27
S'Toby Gerhart'
p1241
sg29
g183
sg31
S'W23-6'
p1242
sg33
g119
sg35
g14
sg37
S'@HOU'
p1243
sg39
g119
sg41
S'31'
p1244
sg43
g177
ssg14
(dp1245
g5
S'8.0'
p1246
sg7
S'--'
p1247
sg9
g10
sg11
S'--'
p1248
sg13
g14
sg15
g10
sg17
S'2012'
p1249
sg19
g14
sg21
S'3.0'
p1250
sg23
S'09/09'
p1251
sg25
g10
sg27
S'Toby Gerhart'
p1252
sg29
g177
sg31
S'W26-23'
p1253
sg33
g183
sg35
g14
sg37
S'JAC'
p1254
sg39
g183
sg41
S'18'
p1255
sg43
g167
ssg103
(dp1256
g5
S'10.0'
p1257
sg7
g120
sg9
g10
sg11
g120
sg13
g14
sg15
g10
sg17
S'2012'
p1258
sg19
g103
sg21
S'2.3'
p1259
sg23
S'09/23'
p1260
sg25
g10
sg27
S'Toby Gerhart'
p1261
sg29
g183
sg31
S'W24-13'
p1262
sg33
S'20'
p1263
sg35
g120
sg37
S'SF'
p1264
sg39
S'14'
p1265
sg41
S'18'
p1266
sg43
g192
ssg120
(dp1267
g5
S'8.5'
p1268
sg7
S'--'
p1269
sg9
g10
sg11
S'--'
p1270
sg13
g14
sg15
g10
sg17
S'2012'
p1271
sg19
g120
sg21
S'3.0'
p1272
sg23
S'09/16'
p1273
sg25
g10
sg27
S'Toby Gerhart'
p1274
sg29
g119
sg31
S'L20-23'
p1275
sg33
S'17'
p1276
sg35
g120
sg37
S'@IND'
p1277
sg39
S'12'
p1278
sg41
S'15'
p1279
sg43
g183
ssg119
(dp1280
g5
S'--'
p1281
sg7
S'--'
p1282
sg9
g10
sg11
S'--'
p1283
sg13
g14
sg15
S'--'
p1284
sg17
S'2012'
p1285
sg19
g119
sg21
S'6.8'
p1286
sg23
S'10/07'
p1287
sg25
g10
sg27
S'Toby Gerhart'
p1288
sg29
g177
sg31
S'W30-7'
p1289
sg33
S'--'
p1290
sg35
S'--'
p1291
sg37
S'TEN'
p1292
sg39
S'--'
p1293
sg41
S'41'
p1294
sg43
S'22'
p1295
ssg150
(dp1296
g5
S'8.0'
p1297
sg7
S'--'
p1298
sg9
g10
sg11
S'--'
p1299
sg13
g14
sg15
g10
sg17
S'2012'
p1300
sg19
g150
sg21
S'2.7'
p1301
sg23
S'09/30'
p1302
sg25
g10
sg27
S'Toby Gerhart'
p1303
sg29
g103
sg31
S'W20-13'
p1304
sg33
g183
sg35
g14
sg37
S'@DET'
p1305
sg39
g183
sg41
g183
sg43
g150
ssg167
(dp1306
g5
S'--'
p1307
sg7
S'--'
p1308
sg9
g10
sg11
S'--'
p1309
sg13
g14
sg15
S'--'
p1310
sg17
S'2012'
p1311
sg19
g167
sg21
S'1.0'
p1312
sg23
S'10/21'
p1313
sg25
g10
sg27
S'Toby Gerhart'
p1314
sg29
g14
sg31
S'W21-14'
p1315
sg33
S'--'
p1316
sg35
S'--'
p1317
sg37
S'ARI'
p1318
sg39
S'--'
p1319
sg41
g14
sg43
g14
ssg177
(dp1320
g5
S'5.0'
p1321
sg7
S'--'
p1322
sg9
g10
sg11
S'--'
p1323
sg13
g14
sg15
g10
sg17
S'2012'
p1324
sg19
g177
sg21
S'1.0'
p1325
sg23
S'10/14'
p1326
sg25
g10
sg27
S'Toby Gerhart'
p1327
sg29
g14
sg31
S'L26-38'
p1328
sg33
S'10'
p1329
sg35
g120
sg37
S'@WAS'
p1330
sg39
g167
sg41
g14
sg43
g14
ssg192
(dp1331
g5
S'3.0'
p1332
sg7
S'--'
p1333
sg9
g10
sg11
S'--'
p1334
sg13
g14
sg15
g10
sg17
S'2012'
p1335
sg19
g192
sg21
S'14.0'
p1336
sg23
S'11/04'
p1337
sg25
g10
sg27
S'Toby Gerhart'
p1338
sg29
g14
sg31
S'L20-30'
p1339
sg33
g103
sg35
g14
sg37
S'@SEA'
p1340
sg39
g103
sg41
S'14'
p1341
sg43
S'14'
p1342
ssg183
(dp1343
g5
S'10.0'
p1344
sg7
S'--'
p1345
sg9
g10
sg11
S'--'
p1346
sg13
g14
sg15
g10
sg17
S'2012'
p1347
sg19
g183
sg21
S'6.0'
p1348
sg23
S'10/25'
p1349
sg25
g10
sg27
S'Toby Gerhart'
p1350
sg29
g14
sg31
S'L17-36'
p1351
sg33
S'20'
p1352
sg35
g120
sg37
S'TB'
p1353
sg39
S'10'
p1354
sg41
g177
sg43
g177
sss.