(dp0
S'2015'
p1
(dp2
S'11'
p3
(dp4
S'RecAvg'
p5
S'--'
p6
sS'FUM'
p7
S'1'
p8
sS'GS'
p9
g8
sS'Lost'
p10
g8
sS'G'
p11
g8
sS'RecTD'
p12
S'--'
p13
sS'Year'
p14
S'2015'
p15
sS'WK'
p16
S'11'
p17
sS'RushAvg'
p18
S'2.6'
p19
sS'Game Date'
p20
S'11/22'
p21
sS'RushTD'
p22
g8
sS'Player'
p23
S'Todd Gurley'
p24
sS'RushAtt'
p25
S'25'
p26
sS'Result'
p27
S'L13-16'
p28
sS'RecYds'
p29
S'--'
p30
sS'Rec'
p31
S'--'
p32
sS'Opp'
p33
S'@BAL'
p34
sS'RecLng'
p35
S'--'
p36
sS'RushYds'
p37
S'66'
p38
sS'RushLng'
p39
S'7'
p40
ssS'10'
p41
(dp42
g5
S'14.7'
p43
sg7
S'--'
p44
sg9
g8
sg10
S'--'
p45
sg11
g8
sg12
S'0'
p46
sg14
S'2015'
p47
sg16
S'10'
p48
sg18
S'3.8'
p49
sg20
S'11/15'
p50
sg22
g8
sg23
S'Todd Gurley'
p51
sg25
S'12'
p52
sg27
S'L13-37'
p53
sg29
S'44'
p54
sg31
S'3'
p55
sg33
S'CHI'
p56
sg35
S'31'
p57
sg37
S'45'
p58
sg39
S'9'
p59
ssS'13'
p60
(dp61
g5
S'--'
p62
sg7
S'--'
p63
sg9
g8
sg10
S'--'
p64
sg11
g8
sg12
S'--'
p65
sg14
S'2015'
p66
sg16
S'13'
p67
sg18
S'4.6'
p68
sg20
S'12/06'
p69
sg22
g46
sg23
S'Todd Gurley'
p70
sg25
g59
sg27
S'L3-27'
p71
sg29
S'--'
p72
sg31
S'--'
p73
sg33
S'ARI'
p74
sg35
S'--'
p75
sg37
S'41'
p76
sg39
S'34'
p77
ssS'12'
p78
(dp79
g5
S'11.0'
p80
sg7
S'--'
p81
sg9
g8
sg10
S'--'
p82
sg11
g8
sg12
g46
sg14
S'2015'
p83
sg16
S'12'
p84
sg18
S'2.1'
p85
sg20
S'11/29'
p86
sg22
g46
sg23
S'Todd Gurley'
p87
sg25
g59
sg27
S'L7-31'
p88
sg29
S'11'
p89
sg31
g8
sg33
S'@CIN'
p90
sg35
S'11'
p91
sg37
S'19'
p92
sg39
S'8'
p93
ssS'15'
p94
(dp95
g5
S'15.5'
p96
sg7
S'--'
p97
sg9
g8
sg10
S'--'
p98
sg11
g8
sg12
g46
sg14
S'2015'
p99
sg16
S'15'
p100
sg18
S'2.3'
p101
sg20
S'12/17'
p102
sg22
g8
sg23
S'Todd Gurley'
p103
sg25
S'21'
p104
sg27
S'W31-23'
p105
sg29
S'31'
p106
sg31
S'2'
p107
sg33
S'TB'
p108
sg35
S'19'
p109
sg37
S'48'
p110
sg39
g59
ssS'14'
p111
(dp112
g5
S'7.0'
p113
sg7
S'--'
p114
sg9
g8
sg10
S'--'
p115
sg11
g8
sg12
g46
sg14
S'2015'
p116
sg16
S'14'
p117
sg18
S'8.8'
p118
sg20
S'12/13'
p119
sg22
g107
sg23
S'Todd Gurley'
p120
sg25
S'16'
p121
sg27
S'W21-14'
p122
sg29
g40
sg31
g8
sg33
S'DET'
p123
sg35
g40
sg37
S'140'
p124
sg39
S'49'
p125
ssS'17'
p126
(dp127
g5
S'--'
p128
sg7
S'--'
p129
sg9
g46
sg10
S'--'
p130
sg11
g46
sg12
S'--'
p131
sg14
S'2015'
p132
sg16
S'17'
p133
sg18
S'--'
p134
sg20
S'01/03'
p135
sg22
S'--'
p136
sg23
S'Todd Gurley'
p137
sg25
S'--'
p138
sg27
S'L16-19'
p139
sg29
S'--'
p140
sg31
S'--'
p141
sg33
S'@SF'
p142
sg35
S'--'
p143
sg37
S'--'
p144
sg39
S'--'
p145
ssS'16'
p146
(dp147
g5
S'7.0'
p148
sg7
g8
sg9
g8
sg10
g46
sg11
g8
sg12
g46
sg14
S'2015'
p149
sg16
S'16'
p150
sg18
S'4.4'
p151
sg20
S'12/27'
p152
sg22
g8
sg23
S'Todd Gurley'
p153
sg25
S'19'
p154
sg27
S'W23-17'
p155
sg29
g40
sg31
g8
sg33
S'@SEA'
p156
sg35
g40
sg37
S'83'
p157
sg39
S'18'
p158
ssg8
(dp159
g5
S'--'
p160
sg7
S'--'
p161
sg9
g46
sg10
S'--'
p162
sg11
g46
sg12
S'--'
p163
sg14
S'2015'
p164
sg16
g8
sg18
S'--'
p165
sg20
S'09/13'
p166
sg22
S'--'
p167
sg23
S'Todd Gurley'
p168
sg25
S'--'
p169
sg27
S'W34-31'
p170
sg29
S'--'
p171
sg31
S'--'
p172
sg33
S'SEA'
p173
sg35
S'--'
p174
sg37
S'--'
p175
sg39
S'--'
p176
ssg55
(dp177
g5
S'5.0'
p178
sg7
S'--'
p179
sg9
g46
sg10
S'--'
p180
sg11
g8
sg12
g46
sg14
S'2015'
p181
sg16
g55
sg18
S'1.5'
p182
sg20
S'09/27'
p183
sg22
g46
sg23
S'Todd Gurley'
p184
sg25
S'6'
p185
sg27
S'L6-12'
p186
sg29
S'5'
p187
sg31
g8
sg33
S'PIT'
p188
sg35
g187
sg37
g59
sg39
S'4'
p189
ssg107
(dp190
g5
S'--'
p191
sg7
S'--'
p192
sg9
g46
sg10
S'--'
p193
sg11
g46
sg12
S'--'
p194
sg14
S'2015'
p195
sg16
g107
sg18
S'--'
p196
sg20
S'09/20'
p197
sg22
S'--'
p198
sg23
S'Todd Gurley'
p199
sg25
S'--'
p200
sg27
S'L10-24'
p201
sg29
S'--'
p202
sg31
S'--'
p203
sg33
S'@WAS'
p204
sg35
S'--'
p205
sg37
S'--'
p206
sg39
S'--'
p207
ssg187
(dp208
g5
S'--'
p209
sg7
S'--'
p210
sg9
g8
sg10
S'--'
p211
sg11
g8
sg12
S'--'
p212
sg14
S'2015'
p213
sg16
g187
sg18
S'5.3'
p214
sg20
S'10/11'
p215
sg22
g46
sg23
S'Todd Gurley'
p216
sg25
S'30'
p217
sg27
S'L10-24'
p218
sg29
S'--'
p219
sg31
S'--'
p220
sg33
S'@GB'
p221
sg35
S'--'
p222
sg37
S'159'
p223
sg39
S'55'
p224
ssg189
(dp225
g5
S'7.5'
p226
sg7
g8
sg9
g8
sg10
g46
sg11
g8
sg12
g46
sg14
S'2015'
p227
sg16
g189
sg18
S'7.7'
p228
sg20
S'10/04'
p229
sg22
g46
sg23
S'Todd Gurley'
p230
sg25
S'19'
p231
sg27
S'W24-22'
p232
sg29
S'15'
p233
sg31
g107
sg33
S'@ARI'
p234
sg35
g93
sg37
S'146'
p235
sg39
S'52'
p236
ssg40
(dp237
g5
S'8.8'
p238
sg7
S'--'
p239
sg9
g8
sg10
S'--'
p240
sg11
g8
sg12
g46
sg14
S'2015'
p241
sg16
g40
sg18
S'6.7'
p242
sg20
S'10/25'
p243
sg22
g107
sg23
S'Todd Gurley'
p244
sg25
S'19'
p245
sg27
S'W24-6'
p246
sg29
S'35'
p247
sg31
g189
sg33
S'CLE'
p248
sg35
S'24'
p249
sg37
S'128'
p250
sg39
S'48'
p251
ssg185
(dp252
g5
S''
p253
sg7
g253
sg9
g253
sg10
g253
sg11
g253
sg12
g253
sg14
S'2015'
p254
sg16
g185
sg18
g253
sg20
S'Bye'
p255
sg22
g253
sg23
S'Todd Gurley'
p256
sg25
g253
sg27
g253
sg29
g253
sg31
g253
sg33
g253
sg35
g253
sg37
g253
sg39
g253
ssg59
(dp257
g5
S'6.7'
p258
sg7
S'--'
p259
sg9
g8
sg10
S'--'
p260
sg11
g8
sg12
g46
sg14
S'2015'
p261
sg16
g59
sg18
S'3.7'
p262
sg20
S'11/08'
p263
sg22
g8
sg23
S'Todd Gurley'
p264
sg25
S'24'
p265
sg27
S'L18-21'
p266
sg29
S'20'
p267
sg31
g55
sg33
S'@MIN'
p268
sg35
S'11'
p269
sg37
S'89'
p270
sg39
S'16'
p271
ssg93
(dp272
g5
S'4.3'
p273
sg7
S'--'
p274
sg9
g8
sg10
S'--'
p275
sg11
g8
sg12
g46
sg14
S'2015'
p276
sg16
g93
sg18
S'6.6'
p277
sg20
S'11/01'
p278
sg22
g8
sg23
S'Todd Gurley'
p279
sg25
S'20'
p280
sg27
S'W27-6'
p281
sg29
S'13'
p282
sg31
g55
sg33
S'SF'
p283
sg35
S'15'
p284
sg37
S'133'
p285
sg39
S'71T'
p286
sss.