(dp0
S'2015'
p1
(dp2
S'11'
p3
(dp4
S'RecAvg'
p5
S'--'
p6
sS'FUM'
p7
S'--'
p8
sS'GS'
p9
S'0'
p10
sS'Lost'
p11
S'--'
p12
sS'G'
p13
S'1'
p14
sS'RecTD'
p15
S'--'
p16
sS'Year'
p17
S'2015'
p18
sS'WK'
p19
S'11'
p20
sS'RushAvg'
p21
S'--'
p22
sS'Game Date'
p23
S'11/22'
p24
sS'RushTD'
p25
S'--'
p26
sS'Player'
p27
S'Tommy Bohanon'
p28
sS'RushAtt'
p29
S'--'
p30
sS'Result'
p31
S'L17-24'
p32
sS'RecYds'
p33
S'--'
p34
sS'Rec'
p35
S'--'
p36
sS'Opp'
p37
S'@HOU'
p38
sS'RecLng'
p39
S'--'
p40
sS'RushYds'
p41
S'--'
p42
sS'RushLng'
p43
S'--'
p44
ssS'10'
p45
(dp46
g5
S'18.0'
p47
sg7
S'--'
p48
sg9
g10
sg11
S'--'
p49
sg13
g14
sg15
g10
sg17
S'2015'
p50
sg19
S'10'
p51
sg21
S'--'
p52
sg23
S'11/12'
p53
sg25
S'--'
p54
sg27
S'Tommy Bohanon'
p55
sg29
S'--'
p56
sg31
S'L17-22'
p57
sg33
S'18'
p58
sg35
g14
sg37
S'BUF'
p59
sg39
S'18'
p60
sg41
S'--'
p61
sg43
S'--'
p62
ssS'13'
p63
(dp64
g5
S'--'
p65
sg7
S'--'
p66
sg9
g10
sg11
S'--'
p67
sg13
g14
sg15
S'--'
p68
sg17
S'2015'
p69
sg19
S'13'
p70
sg21
S'--'
p71
sg23
S'12/06'
p72
sg25
S'--'
p73
sg27
S'Tommy Bohanon'
p74
sg29
S'--'
p75
sg31
S'W23-20'
p76
sg33
S'--'
p77
sg35
S'--'
p78
sg37
S'@NYG'
p79
sg39
S'--'
p80
sg41
S'--'
p81
sg43
S'--'
p82
ssS'12'
p83
(dp84
g5
S'--'
p85
sg7
S'--'
p86
sg9
g10
sg11
S'--'
p87
sg13
g14
sg15
g10
sg17
S'2015'
p88
sg19
S'12'
p89
sg21
S'--'
p90
sg23
S'11/29'
p91
sg25
S'--'
p92
sg27
S'Tommy Bohanon'
p93
sg29
S'--'
p94
sg31
S'W38-20'
p95
sg33
g10
sg35
g10
sg37
S'MIA'
p96
sg39
S'--'
p97
sg41
S'--'
p98
sg43
S'--'
p99
ssS'15'
p100
(dp101
g5
S'--'
p102
sg7
S'--'
p103
sg9
g10
sg11
S'--'
p104
sg13
g14
sg15
S'--'
p105
sg17
S'2015'
p106
sg19
S'15'
p107
sg21
S'--'
p108
sg23
S'12/19'
p109
sg25
S'--'
p110
sg27
S'Tommy Bohanon'
p111
sg29
S'--'
p112
sg31
S'W19-16'
p113
sg33
S'--'
p114
sg35
S'--'
p115
sg37
S'@DAL'
p116
sg39
S'--'
p117
sg41
S'--'
p118
sg43
S'--'
p119
ssS'14'
p120
(dp121
g5
S'2.0'
p122
sg7
S'--'
p123
sg9
g10
sg11
S'--'
p124
sg13
g14
sg15
g10
sg17
S'2015'
p125
sg19
S'14'
p126
sg21
S'--'
p127
sg23
S'12/13'
p128
sg25
S'--'
p129
sg27
S'Tommy Bohanon'
p130
sg29
S'--'
p131
sg31
S'W30-8'
p132
sg33
S'2'
p133
sg35
g14
sg37
S'TEN'
p134
sg39
g133
sg41
S'--'
p135
sg43
S'--'
p136
ssS'17'
p137
(dp138
g5
S'--'
p139
sg7
S'--'
p140
sg9
g10
sg11
S'--'
p141
sg13
g14
sg15
S'--'
p142
sg17
S'2015'
p143
sg19
S'17'
p144
sg21
S'--'
p145
sg23
S'01/03'
p146
sg25
S'--'
p147
sg27
S'Tommy Bohanon'
p148
sg29
S'--'
p149
sg31
S'L17-22'
p150
sg33
S'--'
p151
sg35
S'--'
p152
sg37
S'@BUF'
p153
sg39
S'--'
p154
sg41
S'--'
p155
sg43
S'--'
p156
ssS'16'
p157
(dp158
g5
S'--'
p159
sg7
S'--'
p160
sg9
g10
sg11
S'--'
p161
sg13
g14
sg15
S'--'
p162
sg17
S'2015'
p163
sg19
S'16'
p164
sg21
S'--'
p165
sg23
S'12/27'
p166
sg25
S'--'
p167
sg27
S'Tommy Bohanon'
p168
sg29
S'--'
p169
sg31
S'W26-20'
p170
sg33
S'--'
p171
sg35
S'--'
p172
sg37
S'NE'
p173
sg39
S'--'
p174
sg41
S'--'
p175
sg43
S'--'
p176
ssg14
(dp177
g5
S'--'
p178
sg7
S'--'
p179
sg9
g10
sg11
S'--'
p180
sg13
g14
sg15
S'--'
p181
sg17
S'2015'
p182
sg19
g14
sg21
S'1.0'
p183
sg23
S'09/13'
p184
sg25
g10
sg27
S'Tommy Bohanon'
p185
sg29
g133
sg31
S'W31-10'
p186
sg33
S'--'
p187
sg35
S'--'
p188
sg37
S'CLE'
p189
sg39
S'--'
p190
sg41
g133
sg43
g133
ssS'3'
p191
(dp192
g5
S'--'
p193
sg7
S'--'
p194
sg9
g10
sg11
S'--'
p195
sg13
g14
sg15
S'--'
p196
sg17
S'2015'
p197
sg19
g191
sg21
S'--'
p198
sg23
S'09/27'
p199
sg25
S'--'
p200
sg27
S'Tommy Bohanon'
p201
sg29
S'--'
p202
sg31
S'L17-24'
p203
sg33
S'--'
p204
sg35
S'--'
p205
sg37
S'PHI'
p206
sg39
S'--'
p207
sg41
S'--'
p208
sg43
S'--'
p209
ssg133
(dp210
g5
S'--'
p211
sg7
S'--'
p212
sg9
g14
sg11
S'--'
p213
sg13
g14
sg15
S'--'
p214
sg17
S'2015'
p215
sg19
g133
sg21
S'--'
p216
sg23
S'09/21'
p217
sg25
S'--'
p218
sg27
S'Tommy Bohanon'
p219
sg29
S'--'
p220
sg31
S'W20-7'
p221
sg33
S'--'
p222
sg35
S'--'
p223
sg37
S'@IND'
p224
sg39
S'--'
p225
sg41
S'--'
p226
sg43
S'--'
p227
ssS'5'
p228
(dp229
g5
S''
p230
sg7
g230
sg9
g230
sg11
g230
sg13
g230
sg15
g230
sg17
S'2015'
p231
sg19
g228
sg21
g230
sg23
S'Bye'
p232
sg25
g230
sg27
S'Tommy Bohanon'
p233
sg29
g230
sg31
g230
sg33
g230
sg35
g230
sg37
g230
sg39
g230
sg41
g230
sg43
g230
ssS'4'
p234
(dp235
g5
S'--'
p236
sg7
S'--'
p237
sg9
g14
sg11
S'--'
p238
sg13
g14
sg15
S'--'
p239
sg17
S'2015'
p240
sg19
g234
sg21
S'--'
p241
sg23
S'10/04'
p242
sg25
S'--'
p243
sg27
S'Tommy Bohanon'
p244
sg29
S'--'
p245
sg31
S'W27-14'
p246
sg33
S'--'
p247
sg35
S'--'
p248
sg37
S'@MIA'
p249
sg39
S'--'
p250
sg41
S'--'
p251
sg43
S'--'
p252
ssS'7'
p253
(dp254
g5
S'18.0'
p255
sg7
S'--'
p256
sg9
g14
sg11
S'--'
p257
sg13
g14
sg15
g10
sg17
S'2015'
p258
sg19
g253
sg21
S'--'
p259
sg23
S'10/25'
p260
sg25
S'--'
p261
sg27
S'Tommy Bohanon'
p262
sg29
S'--'
p263
sg31
S'L23-30'
p264
sg33
S'36'
p265
sg35
g133
sg37
S'@NE'
p266
sg39
S'23'
p267
sg41
S'--'
p268
sg43
S'--'
p269
ssS'6'
p270
(dp271
g5
S'--'
p272
sg7
S'--'
p273
sg9
g10
sg11
S'--'
p274
sg13
g14
sg15
S'--'
p275
sg17
S'2015'
p276
sg19
g270
sg21
S'--'
p277
sg23
S'10/18'
p278
sg25
S'--'
p279
sg27
S'Tommy Bohanon'
p280
sg29
S'--'
p281
sg31
S'W34-20'
p282
sg33
S'--'
p283
sg35
S'--'
p284
sg37
S'WAS'
p285
sg39
S'--'
p286
sg41
S'--'
p287
sg43
S'--'
p288
ssS'9'
p289
(dp290
g5
S'--'
p291
sg7
S'--'
p292
sg9
g14
sg11
S'--'
p293
sg13
g14
sg15
S'--'
p294
sg17
S'2015'
p295
sg19
g289
sg21
S'--'
p296
sg23
S'11/08'
p297
sg25
S'--'
p298
sg27
S'Tommy Bohanon'
p299
sg29
S'--'
p300
sg31
S'W28-23'
p301
sg33
S'--'
p302
sg35
S'--'
p303
sg37
S'JAC'
p304
sg39
S'--'
p305
sg41
S'--'
p306
sg43
S'--'
p307
ssS'8'
p308
(dp309
g5
S'--'
p310
sg7
S'--'
p311
sg9
g10
sg11
S'--'
p312
sg13
g14
sg15
S'--'
p313
sg17
S'2015'
p314
sg19
g308
sg21
S'--'
p315
sg23
S'11/01'
p316
sg25
S'--'
p317
sg27
S'Tommy Bohanon'
p318
sg29
S'--'
p319
sg31
S'L20-34'
p320
sg33
S'--'
p321
sg35
S'--'
p322
sg37
S'@OAK'
p323
sg39
S'--'
p324
sg41
S'--'
p325
sg43
S'--'
p326
sssS'2014'
p327
(dp328
g14
(dp329
g5
S'--'
p330
sg7
S'--'
p331
sg9
g10
sg11
S'--'
p332
sg13
g14
sg15
S'--'
p333
sg17
S'2014'
p334
sg19
g14
sg21
S'--'
p335
sg23
S'09/07'
p336
sg25
S'--'
p337
sg27
S'Tommy Bohanon'
p338
sg29
S'--'
p339
sg31
S'W19-14'
p340
sg33
S'--'
p341
sg35
S'--'
p342
sg37
S'OAK'
p343
sg39
S'--'
p344
sg41
S'--'
p345
sg43
S'--'
p346
ssg191
(dp347
g5
S'--'
p348
sg7
S'--'
p349
sg9
g14
sg11
S'--'
p350
sg13
g14
sg15
S'--'
p351
sg17
S'2014'
p352
sg19
g191
sg21
S'--'
p353
sg23
S'09/22'
p354
sg25
S'--'
p355
sg27
S'Tommy Bohanon'
p356
sg29
S'--'
p357
sg31
S'L19-27'
p358
sg33
S'--'
p359
sg35
S'--'
p360
sg37
S'CHI'
p361
sg39
S'--'
p362
sg41
S'--'
p363
sg43
S'--'
p364
ssg133
(dp365
g5
S'15.0'
p366
sg7
S'--'
p367
sg9
g10
sg11
S'--'
p368
sg13
g14
sg15
g10
sg17
S'2014'
p369
sg19
g133
sg21
S'3.0'
p370
sg23
S'09/14'
p371
sg25
g10
sg27
S'Tommy Bohanon'
p372
sg29
g14
sg31
S'L24-31'
p373
sg33
S'30'
p374
sg35
g133
sg37
S'@GB'
p375
sg39
S'16'
p376
sg41
g191
sg43
g191
ssg234
(dp377
g5
S'--'
p378
sg7
S'--'
p379
sg9
g14
sg11
S'--'
p380
sg13
g14
sg15
S'--'
p381
sg17
S'2014'
p382
sg19
g234
sg21
S'--'
p383
sg23
S'09/28'
p384
sg25
S'--'
p385
sg27
S'Tommy Bohanon'
p386
sg29
S'--'
p387
sg31
S'L17-24'
p388
sg33
S'--'
p389
sg35
S'--'
p390
sg37
S'DET'
p391
sg39
S'--'
p392
sg41
S'--'
p393
sg43
S'--'
p394
sssS'2013'
p395
(dp396
g3
(dp397
g5
S'2.5'
p398
sg7
S'--'
p399
sg9
g14
sg11
S'--'
p400
sg13
g14
sg15
g10
sg17
S'2013'
p401
sg19
S'11'
p402
sg21
S'--'
p403
sg23
S'11/17'
p404
sg25
S'--'
p405
sg27
S'Tommy Bohanon'
p406
sg29
S'--'
p407
sg31
S'L14-37'
p408
sg33
g228
sg35
g133
sg37
S'@BUF'
p409
sg39
g234
sg41
S'--'
p410
sg43
S'--'
p411
ssg45
(dp412
g5
g230
sg7
g230
sg9
g230
sg11
g230
sg13
g230
sg15
g230
sg17
S'2013'
p413
sg19
S'10'
p414
sg21
g230
sg23
S'Bye'
p415
sg25
g230
sg27
S'Tommy Bohanon'
p416
sg29
g230
sg31
g230
sg33
g230
sg35
g230
sg37
g230
sg39
g230
sg41
g230
sg43
g230
ssg63
(dp417
g5
S'--'
p418
sg7
S'--'
p419
sg9
g14
sg11
S'--'
p420
sg13
g14
sg15
S'--'
p421
sg17
S'2013'
p422
sg19
S'13'
p423
sg21
S'--'
p424
sg23
S'12/01'
p425
sg25
S'--'
p426
sg27
S'Tommy Bohanon'
p427
sg29
S'--'
p428
sg31
S'L3-23'
p429
sg33
S'--'
p430
sg35
S'--'
p431
sg37
S'MIA'
p432
sg39
S'--'
p433
sg41
S'--'
p434
sg43
S'--'
p435
ssg83
(dp436
g5
S'--'
p437
sg7
S'--'
p438
sg9
g14
sg11
S'--'
p439
sg13
g14
sg15
S'--'
p440
sg17
S'2013'
p441
sg19
S'12'
p442
sg21
S'--'
p443
sg23
S'11/24'
p444
sg25
S'--'
p445
sg27
S'Tommy Bohanon'
p446
sg29
S'--'
p447
sg31
S'L3-19'
p448
sg33
S'--'
p449
sg35
S'--'
p450
sg37
S'@BAL'
p451
sg39
S'--'
p452
sg41
S'--'
p453
sg43
S'--'
p454
ssg100
(dp455
g5
S'3.0'
p456
sg7
S'--'
p457
sg9
g14
sg11
S'--'
p458
sg13
g14
sg15
g10
sg17
S'2013'
p459
sg19
S'15'
p460
sg21
S'--'
p461
sg23
S'12/15'
p462
sg25
S'--'
p463
sg27
S'Tommy Bohanon'
p464
sg29
S'--'
p465
sg31
S'L20-30'
p466
sg33
g191
sg35
g14
sg37
S'@CAR'
p467
sg39
g191
sg41
S'--'
p468
sg43
S'--'
p469
ssg120
(dp470
g5
S'6.0'
p471
sg7
S'--'
p472
sg9
g14
sg11
S'--'
p473
sg13
g14
sg15
g10
sg17
S'2013'
p474
sg19
S'14'
p475
sg21
S'--'
p476
sg23
S'12/08'
p477
sg25
S'--'
p478
sg27
S'Tommy Bohanon'
p479
sg29
S'--'
p480
sg31
S'W37-27'
p481
sg33
g270
sg35
g14
sg37
S'OAK'
p482
sg39
g270
sg41
S'--'
p483
sg43
S'--'
p484
ssg137
(dp485
g5
S'--'
p486
sg7
S'--'
p487
sg9
g10
sg11
S'--'
p488
sg13
g14
sg15
S'--'
p489
sg17
S'2013'
p490
sg19
S'17'
p491
sg21
S'6.0'
p492
sg23
S'12/29'
p493
sg25
g10
sg27
S'Tommy Bohanon'
p494
sg29
g133
sg31
S'W20-7'
p495
sg33
S'--'
p496
sg35
S'--'
p497
sg37
S'@MIA'
p498
sg39
S'--'
p499
sg41
S'12'
p500
sg43
g308
ssg157
(dp501
g5
S'--'
p502
sg7
S'--'
p503
sg9
g10
sg11
S'--'
p504
sg13
g14
sg15
g10
sg17
S'2013'
p505
sg19
S'16'
p506
sg21
S'--'
p507
sg23
S'12/22'
p508
sg25
S'--'
p509
sg27
S'Tommy Bohanon'
p510
sg29
S'--'
p511
sg31
S'W24-13'
p512
sg33
g10
sg35
g10
sg37
S'CLE'
p513
sg39
S'--'
p514
sg41
S'--'
p515
sg43
S'--'
p516
ssg14
(dp517
g5
S'21.0'
p518
sg7
S'--'
p519
sg9
g10
sg11
S'--'
p520
sg13
g14
sg15
g10
sg17
S'2013'
p521
sg19
g14
sg21
S'--'
p522
sg23
S'09/08'
p523
sg25
S'--'
p524
sg27
S'Tommy Bohanon'
p525
sg29
S'--'
p526
sg31
S'W18-17'
p527
sg33
S'21'
p528
sg35
g14
sg37
S'TB'
p529
sg39
S'21'
p530
sg41
S'--'
p531
sg43
S'--'
p532
ssg191
(dp533
g5
S'9.0'
p534
sg7
S'--'
p535
sg9
g14
sg11
S'--'
p536
sg13
g14
sg15
g10
sg17
S'2013'
p537
sg19
g191
sg21
S'0.0'
p538
sg23
S'09/22'
p539
sg25
g10
sg27
S'Tommy Bohanon'
p540
sg29
g14
sg31
S'W27-20'
p541
sg33
g289
sg35
g14
sg37
S'BUF'
p542
sg39
g289
sg41
g10
sg43
g10
ssg133
(dp543
g5
S'-3.0'
p544
sg7
S'--'
p545
sg9
g10
sg11
S'--'
p546
sg13
g14
sg15
g10
sg17
S'2013'
p547
sg19
g133
sg21
S'3.0'
p548
sg23
S'09/12'
p549
sg25
g10
sg27
S'Tommy Bohanon'
p550
sg29
g234
sg31
S'L10-13'
p551
sg33
S'-3'
p552
sg35
g14
sg37
S'@NE'
p553
sg39
S'-3'
p554
sg41
S'12'
p555
sg43
g270
ssg228
(dp556
g5
S'--'
p557
sg7
S'--'
p558
sg9
g14
sg11
S'--'
p559
sg13
g14
sg15
S'--'
p560
sg17
S'2013'
p561
sg19
g228
sg21
S'--'
p562
sg23
S'10/07'
p563
sg25
S'--'
p564
sg27
S'Tommy Bohanon'
p565
sg29
S'--'
p566
sg31
S'W30-28'
p567
sg33
S'--'
p568
sg35
S'--'
p569
sg37
S'@ATL'
p570
sg39
S'--'
p571
sg41
S'--'
p572
sg43
S'--'
p573
ssg234
(dp574
g5
S'5.7'
p575
sg7
S'--'
p576
sg9
g10
sg11
S'--'
p577
sg13
g14
sg15
g10
sg17
S'2013'
p578
sg19
g234
sg21
S'4.3'
p579
sg23
S'09/29'
p580
sg25
g10
sg27
S'Tommy Bohanon'
p581
sg29
g234
sg31
S'L13-38'
p582
sg33
S'17'
p583
sg35
g191
sg37
S'@TEN'
p584
sg39
g253
sg41
S'17'
p585
sg43
g308
ssg253
(dp586
g5
S'--'
p587
sg7
S'--'
p588
sg9
g10
sg11
S'--'
p589
sg13
g14
sg15
S'--'
p590
sg17
S'2013'
p591
sg19
g253
sg21
S'3.5'
p592
sg23
S'10/20'
p593
sg25
g10
sg27
S'Tommy Bohanon'
p594
sg29
g270
sg31
S'W30-27'
p595
sg33
S'--'
p596
sg35
S'--'
p597
sg37
S'NE'
p598
sg39
S'--'
p599
sg41
S'21'
p600
sg43
g228
ssg270
(dp601
g5
S'--'
p602
sg7
S'--'
p603
sg9
g10
sg11
S'--'
p604
sg13
g14
sg15
S'--'
p605
sg17
S'2013'
p606
sg19
g270
sg21
S'--'
p607
sg23
S'10/13'
p608
sg25
S'--'
p609
sg27
S'Tommy Bohanon'
p610
sg29
S'--'
p611
sg31
S'L6-19'
p612
sg33
S'--'
p613
sg35
S'--'
p614
sg37
S'PIT'
p615
sg39
S'--'
p616
sg41
S'--'
p617
sg43
S'--'
p618
ssg289
(dp619
g5
S'11.0'
p620
sg7
S'--'
p621
sg9
g14
sg11
S'--'
p622
sg13
g14
sg15
g10
sg17
S'2013'
p623
sg19
g289
sg21
S'--'
p624
sg23
S'11/03'
p625
sg25
S'--'
p626
sg27
S'Tommy Bohanon'
p627
sg29
S'--'
p628
sg31
S'W26-20'
p629
sg33
S'11'
p630
sg35
g14
sg37
S'NO'
p631
sg39
S'11'
p632
sg41
S'--'
p633
sg43
S'--'
p634
ssg308
(dp635
g5
S'--'
p636
sg7
S'--'
p637
sg9
g10
sg11
S'--'
p638
sg13
g14
sg15
S'--'
p639
sg17
S'2013'
p640
sg19
g308
sg21
S'--'
p641
sg23
S'10/27'
p642
sg25
S'--'
p643
sg27
S'Tommy Bohanon'
p644
sg29
S'--'
p645
sg31
S'L9-49'
p646
sg33
S'--'
p647
sg35
S'--'
p648
sg37
S'@CIN'
p649
sg39
S'--'
p650
sg41
S'--'
p651
sg43
S'--'
p652
sss.