(dp0
S'2015'
p1
(dp2
S'11'
p3
(dp4
S'RecAvg'
p5
S'--'
p6
sS'FUM'
p7
S'--'
p8
sS'GS'
p9
S'0'
p10
sS'Lost'
p11
S'--'
p12
sS'G'
p13
S'1'
p14
sS'RecTD'
p15
S'--'
p16
sS'Year'
p17
S'2015'
p18
sS'WK'
p19
S'11'
p20
sS'RushAvg'
p21
S'--'
p22
sS'Game Date'
p23
S'11/22'
p24
sS'RushTD'
p25
S'--'
p26
sS'Player'
p27
S'Travaris Cadet'
p28
sS'RushAtt'
p29
S'--'
p30
sS'Result'
p31
S'L13-29'
p32
sS'RecYds'
p33
S'--'
p34
sS'Rec'
p35
S'--'
p36
sS'Opp'
p37
S'@SEA'
p38
sS'RecLng'
p39
S'--'
p40
sS'RushYds'
p41
S'--'
p42
sS'RushLng'
p43
S'--'
p44
ssS'10'
p45
(dp46
g5
S''
p47
sg7
g47
sg9
g47
sg11
g47
sg13
g47
sg15
g47
sg17
S'2015'
p48
sg19
S'10'
p49
sg21
g47
sg23
S'Bye'
p50
sg25
g47
sg27
S'Travaris Cadet'
p51
sg29
g47
sg31
g47
sg33
g47
sg35
g47
sg37
g47
sg39
g47
sg41
g47
sg43
g47
ssS'13'
p52
(dp53
g5
S'6.0'
p54
sg7
S'--'
p55
sg9
g10
sg11
S'--'
p56
sg13
g14
sg15
g10
sg17
S'2015'
p57
sg19
S'13'
p58
sg21
S'2.0'
p59
sg23
S'12/06'
p60
sg25
g10
sg27
S'Travaris Cadet'
p61
sg29
S'3'
p62
sg31
S'W26-20'
p63
sg33
S'6'
p64
sg35
g14
sg37
S'@CHI'
p65
sg39
g64
sg41
g64
sg43
g62
ssS'12'
p66
(dp67
g5
S'--'
p68
sg7
S'--'
p69
sg9
g10
sg11
S'--'
p70
sg13
g10
sg15
S'--'
p71
sg17
S'2015'
p72
sg19
S'12'
p73
sg21
S'--'
p74
sg23
S'11/29'
p75
sg25
S'--'
p76
sg27
S'Travaris Cadet'
p77
sg29
S'--'
p78
sg31
S'L13-19'
p79
sg33
S'--'
p80
sg35
S'--'
p81
sg37
S'ARI'
p82
sg39
S'--'
p83
sg41
S'--'
p84
sg43
S'--'
p85
ssS'15'
p86
(dp87
g5
S'8.0'
p88
sg7
S'--'
p89
sg9
g10
sg11
S'--'
p90
sg13
g14
sg15
g10
sg17
S'2015'
p91
sg19
S'15'
p92
sg21
S'2.0'
p93
sg23
S'12/20'
p94
sg25
g10
sg27
S'Travaris Cadet'
p95
sg29
S'2'
p96
sg31
S'L14-24'
p97
sg33
S'32'
p98
sg35
S'4'
p99
sg37
S'CIN'
p100
sg39
S'12'
p101
sg41
g99
sg43
g96
ssS'14'
p102
(dp103
g5
S'14.0'
p104
sg7
S'--'
p105
sg9
g10
sg11
S'--'
p106
sg13
g14
sg15
g10
sg17
S'2015'
p107
sg19
S'14'
p108
sg21
S'3.0'
p109
sg23
S'12/13'
p110
sg25
g10
sg27
S'Travaris Cadet'
p111
sg29
g96
sg31
S'L10-24'
p112
sg33
S'28'
p113
sg35
g96
sg37
S'@CLE'
p114
sg39
S'16'
p115
sg41
g64
sg43
g99
ssS'17'
p116
(dp117
g5
S'12.8'
p118
sg7
g14
sg9
g10
sg11
g14
sg13
g14
sg15
g10
sg17
S'2015'
p119
sg19
S'17'
p120
sg21
S'2.0'
p121
sg23
S'01/03'
p122
sg25
g10
sg27
S'Travaris Cadet'
p123
sg29
g62
sg31
S'W20-17'
p124
sg33
S'77'
p125
sg35
g64
sg37
S'@ATL'
p126
sg39
S'36'
p127
sg41
g64
sg43
g64
ssS'16'
p128
(dp129
g5
S'23.0'
p130
sg7
S'--'
p131
sg9
g14
sg11
S'--'
p132
sg13
g14
sg15
g14
sg17
S'2015'
p133
sg19
S'16'
p134
sg21
S'6.0'
p135
sg23
S'12/27'
p136
sg25
g10
sg27
S'Travaris Cadet'
p137
sg29
g14
sg31
S'W38-27'
p138
sg33
S'69'
p139
sg35
g62
sg37
S'JAC'
p140
sg39
S'44T'
p141
sg41
g64
sg43
g64
ssg14
(dp142
g5
S'--'
p143
sg7
S'--'
p144
sg9
g10
sg11
S'--'
p145
sg13
g10
sg15
S'--'
p146
sg17
S'2015'
p147
sg19
g14
sg21
S'--'
p148
sg23
S'09/10'
p149
sg25
S'--'
p150
sg27
S'Travaris Cadet'
p151
sg29
S'--'
p152
sg31
S'W28-21'
p153
sg33
S'--'
p154
sg35
S'--'
p155
sg37
S'PIT'
p156
sg39
S'--'
p157
sg41
S'--'
p158
sg43
S'--'
p159
ssg62
(dp160
g5
S'--'
p161
sg7
S'--'
p162
sg9
g10
sg11
S'--'
p163
sg13
g10
sg15
S'--'
p164
sg17
S'2015'
p165
sg19
g62
sg21
S'--'
p166
sg23
S'09/27'
p167
sg25
S'--'
p168
sg27
S'Travaris Cadet'
p169
sg29
S'--'
p170
sg31
S'W51-17'
p171
sg33
S'--'
p172
sg35
S'--'
p173
sg37
S'JAC'
p174
sg39
S'--'
p175
sg41
S'--'
p176
sg43
S'--'
p177
ssg96
(dp178
g5
S'2.0'
p179
sg7
S'--'
p180
sg9
g10
sg11
S'--'
p181
sg13
g14
sg15
g10
sg17
S'2015'
p182
sg19
g96
sg21
S'--'
p183
sg23
S'09/20'
p184
sg25
S'--'
p185
sg27
S'Travaris Cadet'
p186
sg29
S'--'
p187
sg31
S'W40-32'
p188
sg33
g96
sg35
g14
sg37
S'@BUF'
p189
sg39
g96
sg41
S'--'
p190
sg43
S'--'
p191
sssS'2014'
p192
(dp193
g3
(dp194
g5
S'7.8'
p195
sg7
g14
sg9
g10
sg11
g14
sg13
g14
sg15
g10
sg17
S'2014'
p196
sg19
S'11'
p197
sg21
S'0.0'
p198
sg23
S'11/16'
p199
sg25
g10
sg27
S'Travaris Cadet'
p200
sg29
g14
sg31
S'L10-27'
p201
sg33
S'31'
p202
sg35
g99
sg37
S'CIN'
p203
sg39
S'12'
p204
sg41
g10
sg43
g10
ssg45
(dp205
g5
S'6.0'
p206
sg7
S'--'
p207
sg9
g10
sg11
S'--'
p208
sg13
g14
sg15
g10
sg17
S'2014'
p209
sg19
S'10'
p210
sg21
S'4.5'
p211
sg23
S'11/09'
p212
sg25
g10
sg27
S'Travaris Cadet'
p213
sg29
g96
sg31
S'L24-27'
p214
sg33
S'18'
p215
sg35
g62
sg37
S'SF'
p216
sg39
S'13'
p217
sg41
S'9'
p218
sg43
S'8'
p219
ssg52
(dp220
g5
S'5.5'
p221
sg7
S'--'
p222
sg9
g10
sg11
S'--'
p223
sg13
g14
sg15
g10
sg17
S'2014'
p224
sg19
S'13'
p225
sg21
S'--'
p226
sg23
S'11/30'
p227
sg25
S'--'
p228
sg27
S'Travaris Cadet'
p229
sg29
S'--'
p230
sg31
S'W35-32'
p231
sg33
S'11'
p232
sg35
g96
sg37
S'@PIT'
p233
sg39
g64
sg41
S'--'
p234
sg43
S'--'
p235
ssg66
(dp236
g5
S'5.5'
p237
sg7
S'--'
p238
sg9
g10
sg11
S'--'
p239
sg13
g14
sg15
g10
sg17
S'2014'
p240
sg19
S'12'
p241
sg21
S'--'
p242
sg23
S'11/24'
p243
sg25
S'--'
p244
sg27
S'Travaris Cadet'
p245
sg29
S'--'
p246
sg31
S'L27-34'
p247
sg33
S'11'
p248
sg35
g96
sg37
S'BAL'
p249
sg39
g64
sg41
S'--'
p250
sg43
S'--'
p251
ssg86
(dp252
g5
S'--'
p253
sg7
S'--'
p254
sg9
g10
sg11
S'--'
p255
sg13
g14
sg15
S'--'
p256
sg17
S'2014'
p257
sg19
S'15'
p258
sg21
S'--'
p259
sg23
S'12/15'
p260
sg25
S'--'
p261
sg27
S'Travaris Cadet'
p262
sg29
S'--'
p263
sg31
S'W31-15'
p264
sg33
S'--'
p265
sg35
S'--'
p266
sg37
S'@CHI'
p267
sg39
S'--'
p268
sg41
S'--'
p269
sg43
S'--'
p270
ssg102
(dp271
g5
S'6.5'
p272
sg7
S'--'
p273
sg9
g10
sg11
S'--'
p274
sg13
g14
sg15
g10
sg17
S'2014'
p275
sg19
S'14'
p276
sg21
S'5.0'
p277
sg23
S'12/07'
p278
sg25
g10
sg27
S'Travaris Cadet'
p279
sg29
g14
sg31
S'L10-41'
p280
sg33
S'13'
p281
sg35
g96
sg37
S'CAR'
p282
sg39
g218
sg41
S'5'
p283
sg43
g283
ssg116
(dp284
g5
S'4.5'
p285
sg7
S'--'
p286
sg9
g10
sg11
S'--'
p287
sg13
g14
sg15
g10
sg17
S'2014'
p288
sg19
S'17'
p289
sg21
S'--'
p290
sg23
S'12/28'
p291
sg25
S'--'
p292
sg27
S'Travaris Cadet'
p293
sg29
S'--'
p294
sg31
S'W23-20'
p295
sg33
g218
sg35
g96
sg37
S'@TB'
p296
sg39
g283
sg41
S'--'
p297
sg43
S'--'
p298
ssg128
(dp299
g5
S'--'
p300
sg7
S'--'
p301
sg9
g10
sg11
S'--'
p302
sg13
g10
sg15
S'--'
p303
sg17
S'2014'
p304
sg19
S'16'
p305
sg21
S'--'
p306
sg23
S'12/21'
p307
sg25
S'--'
p308
sg27
S'Travaris Cadet'
p309
sg29
S'--'
p310
sg31
S'L14-30'
p311
sg33
S'--'
p312
sg35
S'--'
p313
sg37
S'ATL'
p314
sg39
S'--'
p315
sg41
S'--'
p316
sg43
S'--'
p317
ssg14
(dp318
g5
S'5.0'
p319
sg7
S'--'
p320
sg9
g14
sg11
S'--'
p321
sg13
g14
sg15
g10
sg17
S'2014'
p322
sg19
g14
sg21
S'--'
p323
sg23
S'09/07'
p324
sg25
S'--'
p325
sg27
S'Travaris Cadet'
p326
sg29
S'--'
p327
sg31
S'L34-37'
p328
sg33
g283
sg35
g14
sg37
S'@ATL'
p329
sg39
g283
sg41
S'--'
p330
sg43
S'--'
p331
ssg62
(dp332
g5
S'--'
p333
sg7
S'--'
p334
sg9
g10
sg11
S'--'
p335
sg13
g14
sg15
S'--'
p336
sg17
S'2014'
p337
sg19
g62
sg21
S'4.5'
p338
sg23
S'09/21'
p339
sg25
g10
sg27
S'Travaris Cadet'
p340
sg29
g96
sg31
S'W20-9'
p341
sg33
S'--'
p342
sg35
S'--'
p343
sg37
S'MIN'
p344
sg39
S'--'
p345
sg41
g218
sg43
g64
ssg96
(dp346
g5
S'--'
p347
sg7
S'--'
p348
sg9
g10
sg11
S'--'
p349
sg13
g14
sg15
S'--'
p350
sg17
S'2014'
p351
sg19
g96
sg21
S'--'
p352
sg23
S'09/14'
p353
sg25
S'--'
p354
sg27
S'Travaris Cadet'
p355
sg29
S'--'
p356
sg31
S'L24-26'
p357
sg33
S'--'
p358
sg35
S'--'
p359
sg37
S'@CLE'
p360
sg39
S'--'
p361
sg41
S'--'
p362
sg43
S'--'
p363
ssg283
(dp364
g5
S'6.3'
p365
sg7
S'--'
p366
sg9
g10
sg11
S'--'
p367
sg13
g14
sg15
g14
sg17
S'2014'
p368
sg19
g283
sg21
S'--'
p369
sg23
S'10/05'
p370
sg25
S'--'
p371
sg27
S'Travaris Cadet'
p372
sg29
S'--'
p373
sg31
S'W37-31'
p374
sg33
S'19'
p375
sg35
g62
sg37
S'TB'
p376
sg39
g219
sg41
S'--'
p377
sg43
S'--'
p378
ssg99
(dp379
g5
S'9.8'
p380
sg7
g14
sg9
g10
sg11
g14
sg13
g14
sg15
g10
sg17
S'2014'
p381
sg19
g99
sg21
S'1.0'
p382
sg23
S'09/28'
p383
sg25
g10
sg27
S'Travaris Cadet'
p384
sg29
g14
sg31
S'L17-38'
p385
sg33
S'59'
p386
sg35
g64
sg37
S'@DAL'
p387
sg39
S'31'
p388
sg41
g14
sg43
g14
ssS'7'
p389
(dp390
g5
S'8.5'
p391
sg7
S'--'
p392
sg9
g10
sg11
S'--'
p393
sg13
g14
sg15
g10
sg17
S'2014'
p394
sg19
g389
sg21
S'--'
p395
sg23
S'10/19'
p396
sg25
S'--'
p397
sg27
S'Travaris Cadet'
p398
sg29
S'--'
p399
sg31
S'L23-24'
p400
sg33
S'51'
p401
sg35
g64
sg37
S'@DET'
p402
sg39
S'25'
p403
sg41
S'--'
p404
sg43
S'--'
p405
ssg64
(dp406
g5
g47
sg7
g47
sg9
g47
sg11
g47
sg13
g47
sg15
g47
sg17
S'2014'
p407
sg19
g64
sg21
g47
sg23
S'Bye'
p408
sg25
g47
sg27
S'Travaris Cadet'
p409
sg29
g47
sg31
g47
sg33
g47
sg35
g47
sg37
g47
sg39
g47
sg41
g47
sg43
g47
ssg218
(dp410
g5
S'9.7'
p411
sg7
S'--'
p412
sg9
g10
sg11
S'--'
p413
sg13
g14
sg15
g10
sg17
S'2014'
p414
sg19
g218
sg21
S'0.5'
p415
sg23
S'10/30'
p416
sg25
g10
sg27
S'Travaris Cadet'
p417
sg29
g96
sg31
S'W28-10'
p418
sg33
S'29'
p419
sg35
g62
sg37
S'@CAR'
p420
sg39
S'20'
p421
sg41
g14
sg43
g62
ssg219
(dp422
g5
S'10.0'
p423
sg7
S'--'
p424
sg9
g10
sg11
S'--'
p425
sg13
g14
sg15
g10
sg17
S'2014'
p426
sg19
g219
sg21
S'7.0'
p427
sg23
S'10/26'
p428
sg25
g10
sg27
S'Travaris Cadet'
p429
sg29
g14
sg31
S'W44-23'
p430
sg33
S'40'
p431
sg35
g99
sg37
S'GB'
p432
sg39
S'16'
p433
sg41
g389
sg43
g389
sssS'2013'
p434
(dp435
g3
(dp436
g5
S'--'
p437
sg7
S'--'
p438
sg9
g10
sg11
S'--'
p439
sg13
g14
sg15
S'--'
p440
sg17
S'2013'
p441
sg19
S'11'
p442
sg21
S'--'
p443
sg23
S'11/17'
p444
sg25
S'--'
p445
sg27
S'Travaris Cadet'
p446
sg29
S'--'
p447
sg31
S'W23-20'
p448
sg33
S'--'
p449
sg35
S'--'
p450
sg37
S'SF'
p451
sg39
S'--'
p452
sg41
S'--'
p453
sg43
S'--'
p454
ssg45
(dp455
g5
S'--'
p456
sg7
S'--'
p457
sg9
g10
sg11
S'--'
p458
sg13
g14
sg15
S'--'
p459
sg17
S'2013'
p460
sg19
S'10'
p461
sg21
S'--'
p462
sg23
S'11/10'
p463
sg25
S'--'
p464
sg27
S'Travaris Cadet'
p465
sg29
S'--'
p466
sg31
S'W49-17'
p467
sg33
S'--'
p468
sg35
S'--'
p469
sg37
S'DAL'
p470
sg39
S'--'
p471
sg41
S'--'
p472
sg43
S'--'
p473
ssg52
(dp474
g5
S'--'
p475
sg7
S'--'
p476
sg9
g10
sg11
S'--'
p477
sg13
g14
sg15
S'--'
p478
sg17
S'2013'
p479
sg19
S'13'
p480
sg21
S'--'
p481
sg23
S'12/02'
p482
sg25
S'--'
p483
sg27
S'Travaris Cadet'
p484
sg29
S'--'
p485
sg31
S'L7-34'
p486
sg33
S'--'
p487
sg35
S'--'
p488
sg37
S'@SEA'
p489
sg39
S'--'
p490
sg41
S'--'
p491
sg43
S'--'
p492
ssg66
(dp493
g5
S'2.0'
p494
sg7
S'--'
p495
sg9
g10
sg11
S'--'
p496
sg13
g14
sg15
g10
sg17
S'2013'
p497
sg19
S'12'
p498
sg21
S'--'
p499
sg23
S'11/21'
p500
sg25
S'--'
p501
sg27
S'Travaris Cadet'
p502
sg29
S'--'
p503
sg31
S'W17-13'
p504
sg33
g96
sg35
g14
sg37
S'@ATL'
p505
sg39
g96
sg41
S'--'
p506
sg43
S'--'
p507
ssg86
(dp508
g5
S'--'
p509
sg7
S'--'
p510
sg9
g10
sg11
S'--'
p511
sg13
g14
sg15
S'--'
p512
sg17
S'2013'
p513
sg19
S'15'
p514
sg21
S'--'
p515
sg23
S'12/15'
p516
sg25
S'--'
p517
sg27
S'Travaris Cadet'
p518
sg29
S'--'
p519
sg31
S'L16-27'
p520
sg33
S'--'
p521
sg35
S'--'
p522
sg37
S'@STL'
p523
sg39
S'--'
p524
sg41
S'--'
p525
sg43
S'--'
p526
ssg102
(dp527
g5
S'--'
p528
sg7
S'--'
p529
sg9
g10
sg11
S'--'
p530
sg13
g14
sg15
S'--'
p531
sg17
S'2013'
p532
sg19
S'14'
p533
sg21
S'--'
p534
sg23
S'12/08'
p535
sg25
S'--'
p536
sg27
S'Travaris Cadet'
p537
sg29
S'--'
p538
sg31
S'W31-13'
p539
sg33
S'--'
p540
sg35
S'--'
p541
sg37
S'CAR'
p542
sg39
S'--'
p543
sg41
S'--'
p544
sg43
S'--'
p545
ssg116
(dp546
g5
S'--'
p547
sg7
S'--'
p548
sg9
g10
sg11
S'--'
p549
sg13
g10
sg15
S'--'
p550
sg17
S'2013'
p551
sg19
S'17'
p552
sg21
S'--'
p553
sg23
S'12/29'
p554
sg25
S'--'
p555
sg27
S'Travaris Cadet'
p556
sg29
S'--'
p557
sg31
S'W42-17'
p558
sg33
S'--'
p559
sg35
S'--'
p560
sg37
S'TB'
p561
sg39
S'--'
p562
sg41
S'--'
p563
sg43
S'--'
p564
ssg128
(dp565
g5
S'--'
p566
sg7
S'--'
p567
sg9
g10
sg11
S'--'
p568
sg13
g10
sg15
S'--'
p569
sg17
S'2013'
p570
sg19
S'16'
p571
sg21
S'--'
p572
sg23
S'12/22'
p573
sg25
S'--'
p574
sg27
S'Travaris Cadet'
p575
sg29
S'--'
p576
sg31
S'L13-17'
p577
sg33
S'--'
p578
sg35
S'--'
p579
sg37
S'@CAR'
p580
sg39
S'--'
p581
sg41
S'--'
p582
sg43
S'--'
p583
ssg14
(dp584
g5
S'--'
p585
sg7
S'--'
p586
sg9
g10
sg11
S'--'
p587
sg13
g14
sg15
S'--'
p588
sg17
S'2013'
p589
sg19
g14
sg21
S'--'
p590
sg23
S'09/08'
p591
sg25
S'--'
p592
sg27
S'Travaris Cadet'
p593
sg29
S'--'
p594
sg31
S'W23-17'
p595
sg33
S'--'
p596
sg35
S'--'
p597
sg37
S'ATL'
p598
sg39
S'--'
p599
sg41
S'--'
p600
sg43
S'--'
p601
ssg62
(dp602
g5
S'--'
p603
sg7
S'--'
p604
sg9
g10
sg11
S'--'
p605
sg13
g14
sg15
S'--'
p606
sg17
S'2013'
p607
sg19
g62
sg21
S'--'
p608
sg23
S'09/22'
p609
sg25
S'--'
p610
sg27
S'Travaris Cadet'
p611
sg29
S'--'
p612
sg31
S'W31-7'
p613
sg33
S'--'
p614
sg35
S'--'
p615
sg37
S'ARI'
p616
sg39
S'--'
p617
sg41
S'--'
p618
sg43
S'--'
p619
ssg96
(dp620
g5
S'--'
p621
sg7
S'--'
p622
sg9
g10
sg11
S'--'
p623
sg13
g14
sg15
S'--'
p624
sg17
S'2013'
p625
sg19
g96
sg21
S'--'
p626
sg23
S'09/15'
p627
sg25
S'--'
p628
sg27
S'Travaris Cadet'
p629
sg29
S'--'
p630
sg31
S'W16-14'
p631
sg33
S'--'
p632
sg35
S'--'
p633
sg37
S'@TB'
p634
sg39
S'--'
p635
sg41
S'--'
p636
sg43
S'--'
p637
ssg283
(dp638
g5
S'--'
p639
sg7
S'--'
p640
sg9
g10
sg11
S'--'
p641
sg13
g14
sg15
S'--'
p642
sg17
S'2013'
p643
sg19
g283
sg21
S'--'
p644
sg23
S'10/06'
p645
sg25
S'--'
p646
sg27
S'Travaris Cadet'
p647
sg29
S'--'
p648
sg31
S'W26-18'
p649
sg33
S'--'
p650
sg35
S'--'
p651
sg37
S'@CHI'
p652
sg39
S'--'
p653
sg41
S'--'
p654
sg43
S'--'
p655
ssg99
(dp656
g5
S'--'
p657
sg7
S'--'
p658
sg9
g10
sg11
S'--'
p659
sg13
g14
sg15
S'--'
p660
sg17
S'2013'
p661
sg19
g99
sg21
S'--'
p662
sg23
S'09/30'
p663
sg25
S'--'
p664
sg27
S'Travaris Cadet'
p665
sg29
S'--'
p666
sg31
S'W38-17'
p667
sg33
S'--'
p668
sg35
S'--'
p669
sg37
S'MIA'
p670
sg39
S'--'
p671
sg41
S'--'
p672
sg43
S'--'
p673
ssg389
(dp674
g5
g47
sg7
g47
sg9
g47
sg11
g47
sg13
g47
sg15
g47
sg17
S'2013'
p675
sg19
g389
sg21
g47
sg23
S'Bye'
p676
sg25
g47
sg27
S'Travaris Cadet'
p677
sg29
g47
sg31
g47
sg33
g47
sg35
g47
sg37
g47
sg39
g47
sg41
g47
sg43
g47
ssg64
(dp678
g5
S'3.0'
p679
sg7
S'--'
p680
sg9
g10
sg11
S'--'
p681
sg13
g14
sg15
g14
sg17
S'2013'
p682
sg19
g64
sg21
S'--'
p683
sg23
S'10/13'
p684
sg25
S'--'
p685
sg27
S'Travaris Cadet'
p686
sg29
S'--'
p687
sg31
S'L27-30'
p688
sg33
g62
sg35
g14
sg37
S'@NE'
p689
sg39
S'3T'
p690
sg41
S'--'
p691
sg43
S'--'
p692
ssg218
(dp693
g5
S'--'
p694
sg7
S'--'
p695
sg9
g10
sg11
S'--'
p696
sg13
g14
sg15
S'--'
p697
sg17
S'2013'
p698
sg19
g218
sg21
S'--'
p699
sg23
S'11/03'
p700
sg25
S'--'
p701
sg27
S'Travaris Cadet'
p702
sg29
S'--'
p703
sg31
S'L20-26'
p704
sg33
S'--'
p705
sg35
S'--'
p706
sg37
S'@NYJ'
p707
sg39
S'--'
p708
sg41
S'--'
p709
sg43
S'--'
p710
ssg219
(dp711
g5
S'--'
p712
sg7
S'--'
p713
sg9
g10
sg11
S'--'
p714
sg13
g10
sg15
S'--'
p715
sg17
S'2013'
p716
sg19
g219
sg21
S'--'
p717
sg23
S'10/27'
p718
sg25
S'--'
p719
sg27
S'Travaris Cadet'
p720
sg29
S'--'
p721
sg31
S'W35-17'
p722
sg33
S'--'
p723
sg35
S'--'
p724
sg37
S'BUF'
p725
sg39
S'--'
p726
sg41
S'--'
p727
sg43
S'--'
p728
sssS'2012'
p729
(dp730
g3
(dp731
g5
S'12.5'
p732
sg7
S'--'
p733
sg9
g10
sg11
S'--'
p734
sg13
g14
sg15
g10
sg17
S'2012'
p735
sg19
S'11'
p736
sg21
S'--'
p737
sg23
S'11/18'
p738
sg25
S'--'
p739
sg27
S'Travaris Cadet'
p740
sg29
S'--'
p741
sg31
S'W38-17'
p742
sg33
S'25'
p743
sg35
g96
sg37
S'@OAK'
p744
sg39
S'17'
p745
sg41
S'--'
p746
sg43
S'--'
p747
ssg45
(dp748
g5
S'8.0'
p749
sg7
S'--'
p750
sg9
g10
sg11
S'--'
p751
sg13
g14
sg15
g10
sg17
S'2012'
p752
sg19
S'10'
p753
sg21
S'--'
p754
sg23
S'11/11'
p755
sg25
S'--'
p756
sg27
S'Travaris Cadet'
p757
sg29
S'--'
p758
sg31
S'W31-27'
p759
sg33
S'16'
p760
sg35
g96
sg37
S'ATL'
p761
sg39
S'10'
p762
sg41
S'--'
p763
sg43
S'--'
p764
ssg52
(dp765
g5
S'--'
p766
sg7
S'--'
p767
sg9
g10
sg11
S'--'
p768
sg13
g14
sg15
S'--'
p769
sg17
S'2012'
p770
sg19
S'13'
p771
sg21
S'--'
p772
sg23
S'11/29'
p773
sg25
S'--'
p774
sg27
S'Travaris Cadet'
p775
sg29
S'--'
p776
sg31
S'L13-23'
p777
sg33
S'--'
p778
sg35
S'--'
p779
sg37
S'@ATL'
p780
sg39
S'--'
p781
sg41
S'--'
p782
sg43
S'--'
p783
ssg66
(dp784
g5
S'--'
p785
sg7
S'--'
p786
sg9
g10
sg11
S'--'
p787
sg13
g14
sg15
S'--'
p788
sg17
S'2012'
p789
sg19
S'12'
p790
sg21
S'--'
p791
sg23
S'11/25'
p792
sg25
S'--'
p793
sg27
S'Travaris Cadet'
p794
sg29
S'--'
p795
sg31
S'L21-31'
p796
sg33
S'--'
p797
sg35
S'--'
p798
sg37
S'SF'
p799
sg39
S'--'
p800
sg41
S'--'
p801
sg43
S'--'
p802
ssg86
(dp803
g5
S'3.0'
p804
sg7
S'--'
p805
sg9
g10
sg11
S'--'
p806
sg13
g14
sg15
g10
sg17
S'2012'
p807
sg19
S'15'
p808
sg21
S'--'
p809
sg23
S'12/16'
p810
sg25
S'--'
p811
sg27
S'Travaris Cadet'
p812
sg29
S'--'
p813
sg31
S'W41-0'
p814
sg33
g62
sg35
g14
sg37
S'TB'
p815
sg39
g62
sg41
S'--'
p816
sg43
S'--'
p817
ssg102
(dp818
g5
S'--'
p819
sg7
S'--'
p820
sg9
g10
sg11
S'--'
p821
sg13
g14
sg15
S'--'
p822
sg17
S'2012'
p823
sg19
S'14'
p824
sg21
S'--'
p825
sg23
S'12/09'
p826
sg25
S'--'
p827
sg27
S'Travaris Cadet'
p828
sg29
S'--'
p829
sg31
S'L27-52'
p830
sg33
S'--'
p831
sg35
S'--'
p832
sg37
S'@NYG'
p833
sg39
S'--'
p834
sg41
S'--'
p835
sg43
S'--'
p836
ssg116
(dp837
g5
S'--'
p838
sg7
S'--'
p839
sg9
g10
sg11
S'--'
p840
sg13
g14
sg15
S'--'
p841
sg17
S'2012'
p842
sg19
S'17'
p843
sg21
S'--'
p844
sg23
S'12/30'
p845
sg25
S'--'
p846
sg27
S'Travaris Cadet'
p847
sg29
S'--'
p848
sg31
S'L38-44'
p849
sg33
S'--'
p850
sg35
S'--'
p851
sg37
S'CAR'
p852
sg39
S'--'
p853
sg41
S'--'
p854
sg43
S'--'
p855
ssg128
(dp856
g5
S'--'
p857
sg7
S'--'
p858
sg9
g10
sg11
S'--'
p859
sg13
g14
sg15
S'--'
p860
sg17
S'2012'
p861
sg19
S'16'
p862
sg21
S'--'
p863
sg23
S'12/23'
p864
sg25
S'--'
p865
sg27
S'Travaris Cadet'
p866
sg29
S'--'
p867
sg31
S'W34-31'
p868
sg33
S'--'
p869
sg35
S'--'
p870
sg37
S'@DAL'
p871
sg39
S'--'
p872
sg41
S'--'
p873
sg43
S'--'
p874
ssg14
(dp875
g5
S'--'
p876
sg7
S'--'
p877
sg9
g10
sg11
S'--'
p878
sg13
g14
sg15
S'--'
p879
sg17
S'2012'
p880
sg19
g14
sg21
S'--'
p881
sg23
S'09/09'
p882
sg25
S'--'
p883
sg27
S'Travaris Cadet'
p884
sg29
S'--'
p885
sg31
S'L32-40'
p886
sg33
S'--'
p887
sg35
S'--'
p888
sg37
S'WAS'
p889
sg39
S'--'
p890
sg41
S'--'
p891
sg43
S'--'
p892
ssg62
(dp893
g5
S'--'
p894
sg7
S'--'
p895
sg9
g10
sg11
S'--'
p896
sg13
g10
sg15
S'--'
p897
sg17
S'2012'
p898
sg19
g62
sg21
S'--'
p899
sg23
S'09/23'
p900
sg25
S'--'
p901
sg27
S'Travaris Cadet'
p902
sg29
S'--'
p903
sg31
S'L24-27'
p904
sg33
S'--'
p905
sg35
S'--'
p906
sg37
S'KC'
p907
sg39
S'--'
p908
sg41
S'--'
p909
sg43
S'--'
p910
ssg96
(dp911
g5
S'--'
p912
sg7
S'--'
p913
sg9
g10
sg11
S'--'
p914
sg13
g10
sg15
S'--'
p915
sg17
S'2012'
p916
sg19
g96
sg21
S'--'
p917
sg23
S'09/16'
p918
sg25
S'--'
p919
sg27
S'Travaris Cadet'
p920
sg29
S'--'
p921
sg31
S'L27-35'
p922
sg33
S'--'
p923
sg35
S'--'
p924
sg37
S'@CAR'
p925
sg39
S'--'
p926
sg41
S'--'
p927
sg43
S'--'
p928
ssg283
(dp929
g5
S'--'
p930
sg7
S'--'
p931
sg9
g10
sg11
S'--'
p932
sg13
g10
sg15
S'--'
p933
sg17
S'2012'
p934
sg19
g283
sg21
S'--'
p935
sg23
S'10/07'
p936
sg25
S'--'
p937
sg27
S'Travaris Cadet'
p938
sg29
S'--'
p939
sg31
S'W31-24'
p940
sg33
S'--'
p941
sg35
S'--'
p942
sg37
S'SD'
p943
sg39
S'--'
p944
sg41
S'--'
p945
sg43
S'--'
p946
ssg99
(dp947
g5
S'--'
p948
sg7
S'--'
p949
sg9
g10
sg11
S'--'
p950
sg13
g14
sg15
S'--'
p951
sg17
S'2012'
p952
sg19
g99
sg21
S'--'
p953
sg23
S'09/30'
p954
sg25
S'--'
p955
sg27
S'Travaris Cadet'
p956
sg29
S'--'
p957
sg31
S'L27-28'
p958
sg33
S'--'
p959
sg35
S'--'
p960
sg37
S'@GB'
p961
sg39
S'--'
p962
sg41
S'--'
p963
sg43
S'--'
p964
ssg389
(dp965
g5
S'--'
p966
sg7
S'--'
p967
sg9
g10
sg11
S'--'
p968
sg13
g14
sg15
S'--'
p969
sg17
S'2012'
p970
sg19
g389
sg21
S'--'
p971
sg23
S'10/21'
p972
sg25
S'--'
p973
sg27
S'Travaris Cadet'
p974
sg29
S'--'
p975
sg31
S'W35-28'
p976
sg33
S'--'
p977
sg35
S'--'
p978
sg37
S'@TB'
p979
sg39
S'--'
p980
sg41
S'--'
p981
sg43
S'--'
p982
ssg64
(dp983
g5
g47
sg7
g47
sg9
g47
sg11
g47
sg13
g47
sg15
g47
sg17
S'2012'
p984
sg19
g64
sg21
g47
sg23
S'Bye'
p985
sg25
g47
sg27
S'Travaris Cadet'
p986
sg29
g47
sg31
g47
sg33
g47
sg35
g47
sg37
g47
sg39
g47
sg41
g47
sg43
g47
ssg218
(dp987
g5
S'--'
p988
sg7
g14
sg9
g10
sg11
g14
sg13
g14
sg15
S'--'
p989
sg17
S'2012'
p990
sg19
g218
sg21
S'5.0'
p991
sg23
S'11/05'
p992
sg25
g10
sg27
S'Travaris Cadet'
p993
sg29
g14
sg31
S'W28-13'
p994
sg33
S'--'
p995
sg35
S'--'
p996
sg37
S'PHI'
p997
sg39
S'--'
p998
sg41
g283
sg43
g283
ssg219
(dp999
g5
S'--'
p1000
sg7
S'--'
p1001
sg9
g10
sg11
S'--'
p1002
sg13
g14
sg15
S'--'
p1003
sg17
S'2012'
p1004
sg19
g219
sg21
S'--'
p1005
sg23
S'10/28'
p1006
sg25
S'--'
p1007
sg27
S'Travaris Cadet'
p1008
sg29
S'--'
p1009
sg31
S'L14-34'
p1010
sg33
S'--'
p1011
sg35
S'--'
p1012
sg37
S'@DEN'
p1013
sg39
S'--'
p1014
sg41
S'--'
p1015
sg43
S'--'
p1016
sss.