(dp0
S'2015'
p1
(dp2
S'11'
p3
(dp4
S'RecAvg'
p5
S'--'
p6
sS'FUM'
p7
S'--'
p8
sS'GS'
p9
S'0'
p10
sS'Lost'
p11
S'--'
p12
sS'G'
p13
g10
sS'RecTD'
p14
S'--'
p15
sS'Year'
p16
S'2015'
p17
sS'WK'
p18
S'11'
p19
sS'RushAvg'
p20
S'--'
p21
sS'Game Date'
p22
S'11/22'
p23
sS'RushTD'
p24
S'--'
p25
sS'Player'
p26
S'Tre Mason'
p27
sS'RushAtt'
p28
S'--'
p29
sS'Result'
p30
S'L13-16'
p31
sS'RecYds'
p32
S'--'
p33
sS'Rec'
p34
S'--'
p35
sS'Opp'
p36
S'@BAL'
p37
sS'RecLng'
p38
S'--'
p39
sS'RushYds'
p40
S'--'
p41
sS'RushLng'
p42
S'--'
p43
ssS'10'
p44
(dp45
g5
S'16.0'
p46
sg7
S'1'
p47
sg9
g10
sg11
g47
sg13
g47
sg14
g10
sg16
S'2015'
p48
sg18
S'10'
p49
sg20
S'5.2'
p50
sg22
S'11/15'
p51
sg24
g10
sg26
S'Tre Mason'
p52
sg28
S'6'
p53
sg30
S'L13-37'
p54
sg32
S'16'
p55
sg34
g47
sg36
S'CHI'
p56
sg38
S'16'
p57
sg40
S'31'
p58
sg42
S'11'
p59
ssS'13'
p60
(dp61
g5
S'5.0'
p62
sg7
S'--'
p63
sg9
g10
sg11
S'--'
p64
sg13
g47
sg14
g10
sg16
S'2015'
p65
sg18
S'13'
p66
sg20
S'6.5'
p67
sg22
S'12/06'
p68
sg24
g10
sg26
S'Tre Mason'
p69
sg28
S'2'
p70
sg30
S'L3-27'
p71
sg32
S'10'
p72
sg34
g70
sg36
S'ARI'
p73
sg38
S'7'
p74
sg40
S'13'
p75
sg42
S'15'
p76
ssS'12'
p77
(dp78
g5
S'5.3'
p79
sg7
S'--'
p80
sg9
g10
sg11
S'--'
p81
sg13
g47
sg14
g10
sg16
S'2015'
p82
sg18
S'12'
p83
sg20
S'-2.0'
p84
sg22
S'11/29'
p85
sg24
g10
sg26
S'Tre Mason'
p86
sg28
g47
sg30
S'L7-31'
p87
sg32
S'37'
p88
sg34
g74
sg36
S'@CIN'
p89
sg38
S'11'
p90
sg40
S'-2'
p91
sg42
S'-2'
p92
ssS'15'
p93
(dp94
g5
S'--'
p95
sg7
S'--'
p96
sg9
g10
sg11
S'--'
p97
sg13
g47
sg14
S'--'
p98
sg16
S'2015'
p99
sg18
S'15'
p100
sg20
S'4.3'
p101
sg22
S'12/17'
p102
sg24
g10
sg26
S'Tre Mason'
p103
sg28
S'3'
p104
sg30
S'W31-23'
p105
sg32
S'--'
p106
sg34
S'--'
p107
sg36
S'TB'
p108
sg38
S'--'
p109
sg40
S'13'
p110
sg42
g74
ssS'14'
p111
(dp112
g5
S'0.5'
p113
sg7
S'--'
p114
sg9
g10
sg11
S'--'
p115
sg13
g47
sg14
g10
sg16
S'2015'
p116
sg18
S'14'
p117
sg20
S'1.8'
p118
sg22
S'12/13'
p119
sg24
g10
sg26
S'Tre Mason'
p120
sg28
S'4'
p121
sg30
S'W21-14'
p122
sg32
g47
sg34
g70
sg36
S'DET'
p123
sg38
g121
sg40
g74
sg42
g53
ssS'17'
p124
(dp125
g5
S'--'
p126
sg7
g47
sg9
g47
sg11
g10
sg13
g47
sg14
S'--'
p127
sg16
S'2015'
p128
sg18
S'17'
p129
sg20
S'2.4'
p130
sg22
S'01/03'
p131
sg24
g47
sg26
S'Tre Mason'
p132
sg28
S'18'
p133
sg30
S'L16-19'
p134
sg32
S'--'
p135
sg34
S'--'
p136
sg36
S'@SF'
p137
sg38
S'--'
p138
sg40
S'44'
p139
sg42
S'11'
p140
ssS'16'
p141
(dp142
g5
S'3.0'
p143
sg7
S'--'
p144
sg9
g10
sg11
S'--'
p145
sg13
g47
sg14
g10
sg16
S'2015'
p146
sg18
S'16'
p147
sg20
S'1.0'
p148
sg22
S'12/27'
p149
sg24
g10
sg26
S'Tre Mason'
p150
sg28
g104
sg30
S'W23-17'
p151
sg32
g104
sg34
g47
sg36
S'@SEA'
p152
sg38
g104
sg40
g104
sg42
S'5'
p153
ssg47
(dp154
g5
S'--'
p155
sg7
S'--'
p156
sg9
g10
sg11
S'--'
p157
sg13
g10
sg14
S'--'
p158
sg16
S'2015'
p159
sg18
g47
sg20
S'--'
p160
sg22
S'09/13'
p161
sg24
S'--'
p162
sg26
S'Tre Mason'
p163
sg28
S'--'
p164
sg30
S'W34-31'
p165
sg32
S'--'
p166
sg34
S'--'
p167
sg36
S'SEA'
p168
sg38
S'--'
p169
sg40
S'--'
p170
sg42
S'--'
p171
ssg104
(dp172
g5
S'15.0'
p173
sg7
S'--'
p174
sg9
g47
sg11
S'--'
p175
sg13
g47
sg14
g10
sg16
S'2015'
p176
sg18
g104
sg20
S'1.8'
p177
sg22
S'09/27'
p178
sg24
g10
sg26
S'Tre Mason'
p179
sg28
S'9'
p180
sg30
S'L6-12'
p181
sg32
S'15'
p182
sg34
g47
sg36
S'PIT'
p183
sg38
S'15'
p184
sg40
S'16'
p185
sg42
g74
ssg70
(dp186
g5
S'2.0'
p187
sg7
g47
sg9
g47
sg11
g10
sg13
g47
sg14
g10
sg16
S'2015'
p188
sg18
g70
sg20
S'3.7'
p189
sg22
S'09/20'
p190
sg24
g10
sg26
S'Tre Mason'
p191
sg28
g74
sg30
S'L10-24'
p192
sg32
g121
sg34
g70
sg36
S'@WAS'
p193
sg38
g104
sg40
S'26'
p194
sg42
S'13'
p195
ssg153
(dp196
g5
S'--'
p197
sg7
S'--'
p198
sg9
g10
sg11
S'--'
p199
sg13
g47
sg14
S'--'
p200
sg16
S'2015'
p201
sg18
g153
sg20
S'4.0'
p202
sg22
S'10/11'
p203
sg24
g10
sg26
S'Tre Mason'
p204
sg28
g70
sg30
S'L10-24'
p205
sg32
S'--'
p206
sg34
S'--'
p207
sg36
S'@GB'
p208
sg38
S'--'
p209
sg40
S'8'
p210
sg42
g53
ssg121
(dp211
g5
S'--'
p212
sg7
S'--'
p213
sg9
g10
sg11
S'--'
p214
sg13
g47
sg14
S'--'
p215
sg16
S'2015'
p216
sg18
g121
sg20
S'-0.5'
p217
sg22
S'10/04'
p218
sg24
g10
sg26
S'Tre Mason'
p219
sg28
g70
sg30
S'W24-22'
p220
sg32
S'--'
p221
sg34
S'--'
p222
sg36
S'@ARI'
p223
sg38
S'--'
p224
sg40
S'-1'
p225
sg42
g70
ssg74
(dp226
g5
S'--'
p227
sg7
S'--'
p228
sg9
g10
sg11
S'--'
p229
sg13
g10
sg14
S'--'
p230
sg16
S'2015'
p231
sg18
g74
sg20
S'--'
p232
sg22
S'10/25'
p233
sg24
S'--'
p234
sg26
S'Tre Mason'
p235
sg28
S'--'
p236
sg30
S'W24-6'
p237
sg32
S'--'
p238
sg34
S'--'
p239
sg36
S'CLE'
p240
sg38
S'--'
p241
sg40
S'--'
p242
sg42
S'--'
p243
ssg53
(dp244
g5
S''
p245
sg7
g245
sg9
g245
sg11
g245
sg13
g245
sg14
g245
sg16
S'2015'
p246
sg18
g53
sg20
g245
sg22
S'Bye'
p247
sg24
g245
sg26
S'Tre Mason'
p248
sg28
g245
sg30
g245
sg32
g245
sg34
g245
sg36
g245
sg38
g245
sg40
g245
sg42
g245
ssg180
(dp249
g5
S'-4.0'
p250
sg7
S'--'
p251
sg9
g10
sg11
S'--'
p252
sg13
g47
sg14
g10
sg16
S'2015'
p253
sg18
g180
sg20
S'1.0'
p254
sg22
S'11/08'
p255
sg24
g10
sg26
S'Tre Mason'
p256
sg28
g104
sg30
S'L18-21'
p257
sg32
S'-4'
p258
sg34
g47
sg36
S'@MIN'
p259
sg38
S'-4'
p260
sg40
g104
sg42
g70
ssg210
(dp261
g5
S'6.0'
p262
sg7
S'--'
p263
sg9
g10
sg11
S'--'
p264
sg13
g47
sg14
g10
sg16
S'2015'
p265
sg18
g210
sg20
S'3.1'
p266
sg22
S'11/01'
p267
sg24
g10
sg26
S'Tre Mason'
p268
sg28
S'15'
p269
sg30
S'W27-6'
p270
sg32
g53
sg34
g47
sg36
S'SF'
p271
sg38
g53
sg40
S'46'
p272
sg42
g180
sssS'2014'
p273
(dp274
g3
(dp275
g5
S'1.0'
p276
sg7
S'--'
p277
sg9
g47
sg11
S'--'
p278
sg13
g47
sg14
g10
sg16
S'2014'
p279
sg18
S'11'
p280
sg20
S'3.9'
p281
sg22
S'11/16'
p282
sg24
g10
sg26
S'Tre Mason'
p283
sg28
S'29'
p284
sg30
S'W22-7'
p285
sg32
g47
sg34
g47
sg36
S'DEN'
p286
sg38
g47
sg40
S'113'
p287
sg42
S'27'
p288
ssg44
(dp289
g5
S'8.3'
p290
sg7
S'--'
p291
sg9
g47
sg11
S'--'
p292
sg13
g47
sg14
g10
sg16
S'2014'
p293
sg18
S'10'
p294
sg20
S'3.4'
p295
sg22
S'11/09'
p296
sg24
g10
sg26
S'Tre Mason'
p297
sg28
S'14'
p298
sg30
S'L14-31'
p299
sg32
S'33'
p300
sg34
g121
sg36
S'@ARI'
p301
sg38
S'14'
p302
sg40
S'48'
p303
sg42
S'16'
p304
ssg60
(dp305
g5
S'15.7'
p306
sg7
S'--'
p307
sg9
g47
sg11
S'--'
p308
sg13
g47
sg14
g47
sg16
S'2014'
p309
sg18
S'13'
p310
sg20
S'8.4'
p311
sg22
S'11/30'
p312
sg24
g70
sg26
S'Tre Mason'
p313
sg28
S'14'
p314
sg30
S'W52-0'
p315
sg32
S'47'
p316
sg34
g104
sg36
S'OAK'
p317
sg38
S'35T'
p318
sg40
S'117'
p319
sg42
S'89T'
p320
ssg77
(dp321
g5
S'26.0'
p322
sg7
S'--'
p323
sg9
g47
sg11
S'--'
p324
sg13
g47
sg14
g10
sg16
S'2014'
p325
sg18
S'12'
p326
sg20
S'3.9'
p327
sg22
S'11/23'
p328
sg24
g10
sg26
S'Tre Mason'
p329
sg28
S'16'
p330
sg30
S'L24-27'
p331
sg32
S'26'
p332
sg34
g47
sg36
S'@SD'
p333
sg38
S'26'
p334
sg40
S'62'
p335
sg42
S'21'
p336
ssg93
(dp337
g5
S'--'
p338
sg7
g47
sg9
g47
sg11
g47
sg13
g47
sg14
g10
sg16
S'2014'
p339
sg18
S'15'
p340
sg20
S'2.5'
p341
sg22
S'12/11'
p342
sg24
g10
sg26
S'Tre Mason'
p343
sg28
S'13'
p344
sg30
S'L6-12'
p345
sg32
g10
sg34
g10
sg36
S'ARI'
p346
sg38
S'--'
p347
sg40
S'33'
p348
sg42
S'10'
p349
ssg111
(dp350
g5
S'--'
p351
sg7
S'--'
p352
sg9
g47
sg11
S'--'
p353
sg13
g47
sg14
g10
sg16
S'2014'
p354
sg18
S'14'
p355
sg20
S'3.3'
p356
sg22
S'12/07'
p357
sg24
g10
sg26
S'Tre Mason'
p358
sg28
S'20'
p359
sg30
S'W24-0'
p360
sg32
g10
sg34
g10
sg36
S'@WAS'
p361
sg38
S'--'
p362
sg40
S'66'
p363
sg42
S'15'
p364
ssg124
(dp365
g5
S'9.7'
p366
sg7
S'--'
p367
sg9
g47
sg11
S'--'
p368
sg13
g47
sg14
g10
sg16
S'2014'
p369
sg18
S'17'
p370
sg20
S'2.5'
p371
sg22
S'12/28'
p372
sg24
g10
sg26
S'Tre Mason'
p373
sg28
S'11'
p374
sg30
S'L6-20'
p375
sg32
S'29'
p376
sg34
g104
sg36
S'@SEA'
p377
sg38
S'12'
p378
sg40
S'28'
p379
sg42
S'13'
p380
ssg141
(dp381
g5
S'7.0'
p382
sg7
S'--'
p383
sg9
g47
sg11
S'--'
p384
sg13
g47
sg14
g10
sg16
S'2014'
p385
sg18
S'16'
p386
sg20
S'5.8'
p387
sg22
S'12/21'
p388
sg24
g47
sg26
S'Tre Mason'
p389
sg28
S'13'
p390
sg30
S'L27-37'
p391
sg32
g74
sg34
g47
sg36
S'NYG'
p392
sg38
g74
sg40
S'76'
p393
sg42
S'16'
p394
ssg47
(dp395
g5
S'--'
p396
sg7
S'--'
p397
sg9
g10
sg11
S'--'
p398
sg13
g10
sg14
S'--'
p399
sg16
S'2014'
p400
sg18
g47
sg20
S'--'
p401
sg22
S'09/07'
p402
sg24
S'--'
p403
sg26
S'Tre Mason'
p404
sg28
S'--'
p405
sg30
S'L6-34'
p406
sg32
S'--'
p407
sg34
S'--'
p408
sg36
S'MIN'
p409
sg38
S'--'
p410
sg40
S'--'
p411
sg42
S'--'
p412
ssg104
(dp413
g5
S'--'
p414
sg7
S'--'
p415
sg9
g10
sg11
S'--'
p416
sg13
g10
sg14
S'--'
p417
sg16
S'2014'
p418
sg18
g104
sg20
S'--'
p419
sg22
S'09/21'
p420
sg24
S'--'
p421
sg26
S'Tre Mason'
p422
sg28
S'--'
p423
sg30
S'L31-34'
p424
sg32
S'--'
p425
sg34
S'--'
p426
sg36
S'DAL'
p427
sg38
S'--'
p428
sg40
S'--'
p429
sg42
S'--'
p430
ssg70
(dp431
g5
S'--'
p432
sg7
S'--'
p433
sg9
g10
sg11
S'--'
p434
sg13
g10
sg14
S'--'
p435
sg16
S'2014'
p436
sg18
g70
sg20
S'--'
p437
sg22
S'09/14'
p438
sg24
S'--'
p439
sg26
S'Tre Mason'
p440
sg28
S'--'
p441
sg30
S'W19-17'
p442
sg32
S'--'
p443
sg34
S'--'
p444
sg36
S'@TB'
p445
sg38
S'--'
p446
sg40
S'--'
p447
sg42
S'--'
p448
ssg153
(dp449
g5
S'--'
p450
sg7
S'--'
p451
sg9
g10
sg11
S'--'
p452
sg13
g10
sg14
S'--'
p453
sg16
S'2014'
p454
sg18
g153
sg20
S'--'
p455
sg22
S'10/05'
p456
sg24
S'--'
p457
sg26
S'Tre Mason'
p458
sg28
S'--'
p459
sg30
S'L28-34'
p460
sg32
S'--'
p461
sg34
S'--'
p462
sg36
S'@PHI'
p463
sg38
S'--'
p464
sg40
S'--'
p465
sg42
S'--'
p466
ssg121
(dp467
g5
g245
sg7
g245
sg9
g245
sg11
g245
sg13
g245
sg14
g245
sg16
S'2014'
p468
sg18
g121
sg20
g245
sg22
S'Bye'
p469
sg24
g245
sg26
S'Tre Mason'
p470
sg28
g245
sg30
g245
sg32
g245
sg34
g245
sg36
g245
sg38
g245
sg40
g245
sg42
g245
ssg74
(dp471
g5
S'--'
p472
sg7
g47
sg9
g10
sg11
g10
sg13
g47
sg14
S'--'
p473
sg16
S'2014'
p474
sg18
g74
sg20
S'4.7'
p475
sg22
S'10/19'
p476
sg24
g47
sg26
S'Tre Mason'
p477
sg28
S'18'
p478
sg30
S'W28-26'
p479
sg32
S'--'
p480
sg34
S'--'
p481
sg36
S'SEA'
p482
sg38
S'--'
p483
sg40
S'85'
p484
sg42
S'28'
p485
ssg53
(dp486
g5
S'12.0'
p487
sg7
S'--'
p488
sg9
g10
sg11
S'--'
p489
sg13
g47
sg14
g10
sg16
S'2014'
p490
sg18
g53
sg20
S'8.0'
p491
sg22
S'10/13'
p492
sg24
g10
sg26
S'Tre Mason'
p493
sg28
g153
sg30
S'L17-31'
p494
sg32
S'12'
p495
sg34
g47
sg36
S'SF'
p496
sg38
S'12'
p497
sg40
S'40'
p498
sg42
S'24'
p499
ssg180
(dp500
g5
S'-8.0'
p501
sg7
S'--'
p502
sg9
g47
sg11
S'--'
p503
sg13
g47
sg14
g10
sg16
S'2014'
p504
sg18
g180
sg20
S'3.4'
p505
sg22
S'11/02'
p506
sg24
g10
sg26
S'Tre Mason'
p507
sg28
S'19'
p508
sg30
S'W13-10'
p509
sg32
S'-8'
p510
sg34
g47
sg36
S'@SF'
p511
sg38
S'-8'
p512
sg40
S'65'
p513
sg42
S'21'
p514
ssg210
(dp515
g5
S'1.0'
p516
sg7
S'--'
p517
sg9
g10
sg11
S'--'
p518
sg13
g47
sg14
g10
sg16
S'2014'
p519
sg18
g210
sg20
S'4.6'
p520
sg22
S'10/26'
p521
sg24
g10
sg26
S'Tre Mason'
p522
sg28
g74
sg30
S'L7-34'
p523
sg32
g47
sg34
g47
sg36
S'@KC'
p524
sg38
g47
sg40
S'32'
p525
sg42
S'14'
p526
sss.