(dp0
S'2014'
p1
(dp2
S'11'
p3
(dp4
S'RecAvg'
p5
S'21.0'
p6
sS'FUM'
p7
S'--'
p8
sS'GS'
p9
S'1'
p10
sS'Lost'
p11
S'--'
p12
sS'G'
p13
g10
sS'RecTD'
p14
S'0'
p15
sS'Year'
p16
S'2014'
p17
sS'WK'
p18
S'11'
p19
sS'RushAvg'
p20
S'0.0'
p21
sS'Game Date'
p22
S'11/16'
p23
sS'RushTD'
p24
g15
sS'Player'
p25
S'Trent Richardson'
p26
sS'RushAtt'
p27
S'6'
p28
sS'Result'
p29
S'L20-42'
p30
sS'RecYds'
p31
S'21'
p32
sS'Rec'
p33
g10
sS'Opp'
p34
S'NE'
p35
sS'RecLng'
p36
S'21'
p37
sS'RushYds'
p38
g15
sS'RushLng'
p39
S'2'
p40
ssS'10'
p41
(dp42
g5
S''
p43
sg7
g43
sg9
g43
sg11
g43
sg13
g43
sg14
g43
sg16
S'2014'
p44
sg18
S'10'
p45
sg20
g43
sg22
S'Bye'
p46
sg24
g43
sg25
S'Trent Richardson'
p47
sg27
g43
sg29
g43
sg31
g43
sg33
g43
sg34
g43
sg36
g43
sg38
g43
sg39
g43
ssS'13'
p48
(dp49
g5
S'--'
p50
sg7
S'--'
p51
sg9
g10
sg11
S'--'
p52
sg13
g10
sg14
S'--'
p53
sg16
S'2014'
p54
sg18
S'13'
p55
sg20
S'1.5'
p56
sg22
S'11/30'
p57
sg24
g15
sg25
S'Trent Richardson'
p58
sg27
S'8'
p59
sg29
S'W49-27'
p60
sg31
S'--'
p61
sg33
S'--'
p62
sg34
S'WAS'
p63
sg36
S'--'
p64
sg38
S'12'
p65
sg39
S'3'
p66
ssS'12'
p67
(dp68
g5
S'--'
p69
sg7
S'--'
p70
sg9
g15
sg11
S'--'
p71
sg13
g10
sg14
g15
sg16
S'2014'
p72
sg18
S'12'
p73
sg20
S'3.2'
p74
sg22
S'11/23'
p75
sg24
g10
sg25
S'Trent Richardson'
p76
sg27
S'13'
p77
sg29
S'W23-3'
p78
sg31
g15
sg33
g15
sg34
S'JAC'
p79
sg36
S'--'
p80
sg38
S'42'
p81
sg39
S'12'
p82
ssS'15'
p83
(dp84
g5
S'4.5'
p85
sg7
S'--'
p86
sg9
g10
sg11
S'--'
p87
sg13
g10
sg14
g15
sg16
S'2014'
p88
sg18
S'15'
p89
sg20
S'3.6'
p90
sg22
S'12/14'
p91
sg24
g15
sg25
S'Trent Richardson'
p92
sg27
S'9'
p93
sg29
S'W17-10'
p94
sg31
g93
sg33
g40
sg34
S'HOU'
p95
sg36
S'16'
p96
sg38
S'32'
p97
sg39
g93
ssS'14'
p98
(dp99
g5
S'--'
p100
sg7
S'--'
p101
sg9
g10
sg11
S'--'
p102
sg13
g10
sg14
S'--'
p103
sg16
S'2014'
p104
sg18
S'14'
p105
sg20
S'4.3'
p106
sg22
S'12/07'
p107
sg24
g15
sg25
S'Trent Richardson'
p108
sg27
S'7'
p109
sg29
S'W25-24'
p110
sg31
S'--'
p111
sg33
S'--'
p112
sg34
S'@CLE'
p113
sg36
S'--'
p114
sg38
S'30'
p115
sg39
g59
ssS'17'
p116
(dp117
g5
S'9.0'
p118
sg7
S'--'
p119
sg9
g15
sg11
S'--'
p120
sg13
g10
sg14
g15
sg16
S'2014'
p121
sg18
S'17'
p122
sg20
S'1.8'
p123
sg22
S'12/28'
p124
sg24
g15
sg25
S'Trent Richardson'
p125
sg27
g28
sg29
S'W27-10'
p126
sg31
g93
sg33
g10
sg34
S'@TEN'
p127
sg36
g93
sg38
S'11'
p128
sg39
S'4'
p129
ssS'16'
p130
(dp131
g5
S'4.0'
p132
sg7
S'--'
p133
sg9
g15
sg11
S'--'
p134
sg13
g10
sg14
g15
sg16
S'2014'
p135
sg18
S'16'
p136
sg20
S'0.5'
p137
sg22
S'12/21'
p138
sg24
g15
sg25
S'Trent Richardson'
p139
sg27
g40
sg29
S'L7-42'
p140
sg31
g59
sg33
g40
sg34
S'@DAL'
p141
sg36
g93
sg38
g10
sg39
g66
ssg10
(dp142
g5
S'10.3'
p143
sg7
S'--'
p144
sg9
g10
sg11
S'--'
p145
sg13
g10
sg14
g15
sg16
S'2014'
p146
sg18
g10
sg20
S'3.3'
p147
sg22
S'09/07'
p148
sg24
g15
sg25
S'Trent Richardson'
p149
sg27
g28
sg29
S'L24-31'
p150
sg31
S'31'
p151
sg33
g66
sg34
S'@DEN'
p152
sg36
S'16'
p153
sg38
S'20'
p154
sg39
g109
ssg66
(dp155
g5
S'7.7'
p156
sg7
S'--'
p157
sg9
g10
sg11
S'--'
p158
sg13
g10
sg14
g15
sg16
S'2014'
p159
sg18
g66
sg20
S'4.1'
p160
sg22
S'09/21'
p161
sg24
g15
sg25
S'Trent Richardson'
p162
sg27
S'14'
p163
sg29
S'W44-17'
p164
sg31
S'23'
p165
sg33
g66
sg34
S'@JAC'
p166
sg36
S'15'
p167
sg38
S'57'
p168
sg39
S'27'
p169
ssg40
(dp170
g5
S'16.0'
p171
sg7
g40
sg9
g10
sg11
g10
sg13
g10
sg14
g15
sg16
S'2014'
p172
sg18
g40
sg20
S'3.8'
p173
sg22
S'09/15'
p174
sg24
g15
sg25
S'Trent Richardson'
p175
sg27
S'21'
p176
sg29
S'L27-30'
p177
sg31
S'16'
p178
sg33
g10
sg34
S'PHI'
p179
sg36
S'16'
p180
sg38
S'79'
p181
sg39
S'15'
p182
ssS'5'
p183
(dp184
g5
S'2.5'
p185
sg7
S'--'
p186
sg9
g10
sg11
S'--'
p187
sg13
g10
sg14
g15
sg16
S'2014'
p188
sg18
g183
sg20
S'4.1'
p189
sg22
S'10/05'
p190
sg24
g15
sg25
S'Trent Richardson'
p191
sg27
g93
sg29
S'W20-13'
p192
sg31
S'10'
p193
sg33
g129
sg34
S'BAL'
p194
sg36
g28
sg38
S'37'
p195
sg39
S'14'
p196
ssg129
(dp197
g5
S'13.0'
p198
sg7
S'--'
p199
sg9
g10
sg11
S'--'
p200
sg13
g10
sg14
g15
sg16
S'2014'
p201
sg18
g129
sg20
S'2.4'
p202
sg22
S'09/28'
p203
sg24
g10
sg25
S'Trent Richardson'
p204
sg27
S'20'
p205
sg29
S'W41-17'
p206
sg31
S'52'
p207
sg33
g129
sg34
S'TEN'
p208
sg36
S'24'
p209
sg38
S'47'
p210
sg39
S'10'
p211
ssg109
(dp212
g5
S'10.3'
p213
sg7
S'--'
p214
sg9
g10
sg11
S'--'
p215
sg13
g10
sg14
g15
sg16
S'2014'
p216
sg18
g109
sg20
S'5.5'
p217
sg22
S'10/19'
p218
sg24
g15
sg25
S'Trent Richardson'
p219
sg27
S'14'
p220
sg29
S'W27-0'
p221
sg31
S'41'
p222
sg33
g129
sg34
S'CIN'
p223
sg36
S'20'
p224
sg38
S'77'
p225
sg39
S'11'
p226
ssg28
(dp227
g5
S'--'
p228
sg7
S'--'
p229
sg9
g10
sg11
S'--'
p230
sg13
g10
sg14
S'--'
p231
sg16
S'2014'
p232
sg18
g28
sg20
S'2.4'
p233
sg22
S'10/09'
p234
sg24
g10
sg25
S'Trent Richardson'
p235
sg27
S'17'
p236
sg29
S'W33-28'
p237
sg31
S'--'
p238
sg33
S'--'
p239
sg34
S'@HOU'
p240
sg36
S'--'
p241
sg38
S'41'
p242
sg39
g93
ssg93
(dp243
g5
S'4.5'
p244
sg7
S'--'
p245
sg9
g10
sg11
S'--'
p246
sg13
g10
sg14
g15
sg16
S'2014'
p247
sg18
g93
sg20
S'4.7'
p248
sg22
S'11/03'
p249
sg24
g15
sg25
S'Trent Richardson'
p250
sg27
g109
sg29
S'W40-24'
p251
sg31
g93
sg33
g40
sg34
S'@NYG'
p252
sg36
g28
sg38
S'33'
p253
sg39
g93
ssg59
(dp254
g5
S'--'
p255
sg7
S'--'
p256
sg9
g15
sg11
S'--'
p257
sg13
g15
sg14
S'--'
p258
sg16
S'2014'
p259
sg18
g59
sg20
S'--'
p260
sg22
S'10/26'
p261
sg24
S'--'
p262
sg25
S'Trent Richardson'
p263
sg27
S'--'
p264
sg29
S'L34-51'
p265
sg31
S'--'
p266
sg33
S'--'
p267
sg34
S'@PIT'
p268
sg36
S'--'
p269
sg38
S'--'
p270
sg39
S'--'
p271
sssS'2013'
p272
(dp273
g3
(dp274
g5
S'6.2'
p275
sg7
S'--'
p276
sg9
g10
sg11
S'--'
p277
sg13
g10
sg14
g15
sg16
S'2013'
p278
sg18
S'11'
p279
sg20
S'2.8'
p280
sg22
S'11/14'
p281
sg24
g15
sg25
S'Trent Richardson'
p282
sg27
g59
sg29
S'W30-27'
p283
sg31
S'31'
p284
sg33
g183
sg34
S'@TEN'
p285
sg36
S'14'
p286
sg38
S'22'
p287
sg39
g109
ssg41
(dp288
g5
S'11.0'
p289
sg7
S'--'
p290
sg9
g10
sg11
S'--'
p291
sg13
g10
sg14
g15
sg16
S'2013'
p292
sg18
S'10'
p293
sg20
S'0.4'
p294
sg22
S'11/10'
p295
sg24
g15
sg25
S'Trent Richardson'
p296
sg27
g183
sg29
S'L8-38'
p297
sg31
S'33'
p298
sg33
g66
sg34
S'STL'
p299
sg36
S'20'
p300
sg38
g40
sg39
g183
ssg48
(dp301
g5
S'--'
p302
sg7
S'--'
p303
sg9
g15
sg11
S'--'
p304
sg13
g10
sg14
S'--'
p305
sg16
S'2013'
p306
sg18
S'13'
p307
sg20
S'3.8'
p308
sg22
S'12/01'
p309
sg24
g15
sg25
S'Trent Richardson'
p310
sg27
g183
sg29
S'W22-14'
p311
sg31
S'--'
p312
sg33
S'--'
p313
sg34
S'TEN'
p314
sg36
S'--'
p315
sg38
S'19'
p316
sg39
S'11'
p317
ssg67
(dp318
g5
S'5.5'
p319
sg7
S'--'
p320
sg9
g10
sg11
S'--'
p321
sg13
g10
sg14
g15
sg16
S'2013'
p322
sg18
S'12'
p323
sg20
S'2.1'
p324
sg22
S'11/24'
p325
sg24
g15
sg25
S'Trent Richardson'
p326
sg27
g109
sg29
S'L11-40'
p327
sg31
S'11'
p328
sg33
g40
sg34
S'@ARI'
p329
sg36
g59
sg38
S'15'
p330
sg39
g59
ssg83
(dp331
g5
S'9.5'
p332
sg7
g10
sg9
g15
sg11
g15
sg13
g10
sg14
g10
sg16
S'2013'
p333
sg18
S'15'
p334
sg20
S'3.4'
p335
sg22
S'12/15'
p336
sg24
g15
sg25
S'Trent Richardson'
p337
sg27
S'19'
p338
sg29
S'W25-3'
p339
sg31
S'38'
p340
sg33
g129
sg34
S'HOU'
p341
sg36
S'18'
p342
sg38
S'64'
p343
sg39
S'22'
p344
ssg98
(dp345
g5
S'13.6'
p346
sg7
S'--'
p347
sg9
g15
sg11
S'--'
p348
sg13
g10
sg14
g15
sg16
S'2013'
p349
sg18
S'14'
p350
sg20
S'3.3'
p351
sg22
S'12/08'
p352
sg24
g15
sg25
S'Trent Richardson'
p353
sg27
g28
sg29
S'L28-42'
p354
sg31
S'68'
p355
sg33
g183
sg34
S'@CIN'
p356
sg36
S'22'
p357
sg38
S'20'
p358
sg39
g59
ssg116
(dp359
g5
S'8.5'
p360
sg7
S'--'
p361
sg9
g15
sg11
S'--'
p362
sg13
g10
sg14
g15
sg16
S'2013'
p363
sg18
S'17'
p364
sg20
S'3.1'
p365
sg22
S'12/29'
p366
sg24
g10
sg25
S'Trent Richardson'
p367
sg27
g59
sg29
S'W30-10'
p368
sg31
S'17'
p369
sg33
g40
sg34
S'JAC'
p370
sg36
S'11'
p371
sg38
S'25'
p372
sg39
g93
ssg130
(dp373
g5
S'5.0'
p374
sg7
S'--'
p375
sg9
g15
sg11
S'--'
p376
sg13
g10
sg14
g15
sg16
S'2013'
p377
sg18
S'16'
p378
sg20
S'2.7'
p379
sg22
S'12/22'
p380
sg24
g15
sg25
S'Trent Richardson'
p381
sg27
S'16'
p382
sg29
S'W23-7'
p383
sg31
S'15'
p384
sg33
g66
sg34
S'@KC'
p385
sg36
g93
sg38
S'43'
p386
sg39
g28
ssg10
(dp387
g5
S'15.0'
p388
sg7
S'--'
p389
sg9
g10
sg11
S'--'
p390
sg13
g10
sg14
g15
sg16
S'2013'
p391
sg18
g10
sg20
S'3.6'
p392
sg22
S'09/08'
p393
sg24
g15
sg25
S'Trent Richardson'
p394
sg27
S'13'
p395
sg29
S'L10-23'
p396
sg31
S'30'
p397
sg33
g40
sg34
S'MIA'
p398
sg36
S'18'
p399
sg38
S'47'
p400
sg39
S'10'
p401
ssg66
(dp402
g5
S'--'
p403
sg7
S'--'
p404
sg9
g15
sg11
S'--'
p405
sg13
g10
sg14
g15
sg16
S'2013'
p406
sg18
g66
sg20
S'2.7'
p407
sg22
S'09/22'
p408
sg24
g10
sg25
S'Trent Richardson'
p409
sg27
S'13'
p410
sg29
S'W27-7'
p411
sg31
g15
sg33
g15
sg34
S'@SF'
p412
sg36
S'--'
p413
sg38
S'35'
p414
sg39
g109
ssg40
(dp415
g5
S'4.2'
p416
sg7
S'--'
p417
sg9
g10
sg11
S'--'
p418
sg13
g10
sg14
g15
sg16
S'2013'
p419
sg18
g40
sg20
S'3.2'
p420
sg22
S'09/15'
p421
sg24
g15
sg25
S'Trent Richardson'
p422
sg27
S'18'
p423
sg29
S'L6-14'
p424
sg31
S'21'
p425
sg33
g183
sg34
S'@BAL'
p426
sg36
g93
sg38
S'58'
p427
sg39
g93
ssg183
(dp428
g5
S'--'
p429
sg7
S'--'
p430
sg9
g10
sg11
S'--'
p431
sg13
g10
sg14
g15
sg16
S'2013'
p432
sg18
g183
sg20
S'3.1'
p433
sg22
S'10/06'
p434
sg24
g15
sg25
S'Trent Richardson'
p435
sg27
S'18'
p436
sg29
S'W34-28'
p437
sg31
g15
sg33
g15
sg34
S'SEA'
p438
sg36
S'--'
p439
sg38
S'56'
p440
sg39
S'16'
p441
ssg129
(dp442
g5
S'6.0'
p443
sg7
S'--'
p444
sg9
g10
sg11
S'--'
p445
sg13
g10
sg14
g15
sg16
S'2013'
p446
sg18
g129
sg20
S'3.0'
p447
sg22
S'09/29'
p448
sg24
g10
sg25
S'Trent Richardson'
p449
sg27
S'20'
p450
sg29
S'W37-3'
p451
sg31
g28
sg33
g10
sg34
S'@JAC'
p452
sg36
g28
sg38
S'60'
p453
sg39
S'12'
p454
ssg109
(dp455
g5
S'--'
p456
sg7
g10
sg9
g10
sg11
g10
sg13
g10
sg14
S'--'
p457
sg16
S'2013'
p458
sg18
g109
sg20
S'2.6'
p459
sg22
S'10/20'
p460
sg24
g15
sg25
S'Trent Richardson'
p461
sg27
S'14'
p462
sg29
S'W39-33'
p463
sg31
S'--'
p464
sg33
S'--'
p465
sg34
S'DEN'
p466
sg36
S'--'
p467
sg38
S'37'
p468
sg39
g59
ssg28
(dp469
g5
S'13.0'
p470
sg7
S'--'
p471
sg9
g10
sg11
S'--'
p472
sg13
g10
sg14
g15
sg16
S'2013'
p473
sg18
g28
sg20
S'4.0'
p474
sg22
S'10/14'
p475
sg24
g15
sg25
S'Trent Richardson'
p476
sg27
S'10'
p477
sg29
S'L9-19'
p478
sg31
S'13'
p479
sg33
g10
sg34
S'@SD'
p480
sg36
S'13'
p481
sg38
S'40'
p482
sg39
S'12'
p483
ssg93
(dp484
g5
S'16.5'
p485
sg7
S'--'
p486
sg9
g10
sg11
S'--'
p487
sg13
g10
sg14
g15
sg16
S'2013'
p488
sg18
g93
sg20
S'2.5'
p489
sg22
S'11/03'
p490
sg24
g15
sg25
S'Trent Richardson'
p491
sg27
g59
sg29
S'W27-24'
p492
sg31
S'33'
p493
sg33
g40
sg34
S'@HOU'
p494
sg36
S'24'
p495
sg38
S'20'
p496
sg39
g109
ssg59
(dp497
g5
g43
sg7
g43
sg9
g43
sg11
g43
sg13
g43
sg14
g43
sg16
S'2013'
p498
sg18
g59
sg20
g43
sg22
S'Bye'
p499
sg24
g43
sg25
S'Trent Richardson'
p500
sg27
g43
sg29
g43
sg31
g43
sg33
g43
sg34
g43
sg36
g43
sg38
g43
sg39
g43
sssS'2012'
p501
(dp502
g3
(dp503
g5
S'8.2'
p504
sg7
g10
sg9
g10
sg11
g15
sg13
g10
sg14
g15
sg16
S'2012'
p505
sg18
S'11'
p506
sg20
S'3.4'
p507
sg22
S'11/18'
p508
sg24
g15
sg25
S'Trent Richardson'
p509
sg27
S'28'
p510
sg29
S'L20-23'
p511
sg31
S'49'
p512
sg33
g28
sg34
S'@DAL'
p513
sg36
S'27'
p514
sg38
S'95'
p515
sg39
g93
ssg41
(dp516
g5
g43
sg7
g43
sg9
g43
sg11
g43
sg13
g43
sg14
g43
sg16
S'2012'
p517
sg18
S'10'
p518
sg20
g43
sg22
S'Bye'
p519
sg24
g43
sg25
S'Trent Richardson'
p520
sg27
g43
sg29
g43
sg31
g43
sg33
g43
sg34
g43
sg36
g43
sg38
g43
sg39
g43
ssg48
(dp521
g5
S'7.7'
p522
sg7
S'--'
p523
sg9
g10
sg11
S'--'
p524
sg13
g10
sg14
g15
sg16
S'2012'
p525
sg18
S'13'
p526
sg20
S'3.6'
p527
sg22
S'12/02'
p528
sg24
g10
sg25
S'Trent Richardson'
p529
sg27
S'20'
p530
sg29
S'W20-17'
p531
sg31
S'23'
p532
sg33
g66
sg34
S'@OAK'
p533
sg36
S'21'
p534
sg38
S'72'
p535
sg39
g93
ssg67
(dp536
g5
S'6.8'
p537
sg7
S'--'
p538
sg9
g10
sg11
S'--'
p539
sg13
g10
sg14
g15
sg16
S'2012'
p540
sg18
S'12'
p541
sg20
S'2.9'
p542
sg22
S'11/25'
p543
sg24
g10
sg25
S'Trent Richardson'
p544
sg27
S'29'
p545
sg29
S'W20-14'
p546
sg31
S'27'
p547
sg33
g129
sg34
S'PIT'
p548
sg36
S'18'
p549
sg38
S'85'
p550
sg39
S'15T'
p551
ssg83
(dp552
g5
S'1.3'
p553
sg7
S'--'
p554
sg9
g10
sg11
S'--'
p555
sg13
g10
sg14
g15
sg16
S'2012'
p556
sg18
S'15'
p557
sg20
S'2.5'
p558
sg22
S'12/16'
p559
sg24
g40
sg25
S'Trent Richardson'
p560
sg27
S'11'
p561
sg29
S'L21-38'
p562
sg31
g129
sg33
g66
sg34
S'WAS'
p563
sg36
g93
sg38
S'28'
p564
sg39
S'14'
p565
ssg98
(dp566
g5
S'9.0'
p567
sg7
S'--'
p568
sg9
g10
sg11
S'--'
p569
sg13
g10
sg14
g15
sg16
S'2012'
p570
sg18
S'14'
p571
sg20
S'2.3'
p572
sg22
S'12/09'
p573
sg24
g40
sg25
S'Trent Richardson'
p574
sg27
S'18'
p575
sg29
S'W30-7'
p576
sg31
g93
sg33
g10
sg34
S'KC'
p577
sg36
g93
sg38
S'42'
p578
sg39
g59
ssg116
(dp579
g5
S'--'
p580
sg7
S'--'
p581
sg9
g15
sg11
S'--'
p582
sg13
g15
sg14
S'--'
p583
sg16
S'2012'
p584
sg18
S'17'
p585
sg20
S'--'
p586
sg22
S'12/30'
p587
sg24
S'--'
p588
sg25
S'Trent Richardson'
p589
sg27
S'--'
p590
sg29
S'L10-24'
p591
sg31
S'--'
p592
sg33
S'--'
p593
sg34
S'@PIT'
p594
sg36
S'--'
p595
sg38
S'--'
p596
sg39
S'--'
p597
ssg130
(dp598
g5
S'5.0'
p599
sg7
S'--'
p600
sg9
g10
sg11
S'--'
p601
sg13
g10
sg14
g15
sg16
S'2012'
p602
sg18
S'16'
p603
sg20
S'5.9'
p604
sg22
S'12/23'
p605
sg24
g15
sg25
S'Trent Richardson'
p606
sg27
g93
sg29
S'L12-34'
p607
sg31
S'15'
p608
sg33
g66
sg34
S'@DEN'
p609
sg36
g28
sg38
S'53'
p610
sg39
S'14'
p611
ssg10
(dp612
g5
S'5.0'
p613
sg7
S'--'
p614
sg9
g10
sg11
S'--'
p615
sg13
g10
sg14
g15
sg16
S'2012'
p616
sg18
g10
sg20
S'2.1'
p617
sg22
S'09/09'
p618
sg24
g15
sg25
S'Trent Richardson'
p619
sg27
S'19'
p620
sg29
S'L16-17'
p621
sg31
g183
sg33
g10
sg34
S'PHI'
p622
sg36
g183
sg38
S'39'
p623
sg39
g93
ssg66
(dp624
g5
S'4.0'
p625
sg7
S'--'
p626
sg9
g10
sg11
S'--'
p627
sg13
g10
sg14
g15
sg16
S'2012'
p628
sg18
g66
sg20
S'2.3'
p629
sg22
S'09/23'
p630
sg24
g10
sg25
S'Trent Richardson'
p631
sg27
S'12'
p632
sg29
S'L14-24'
p633
sg31
S'24'
p634
sg33
g28
sg34
S'BUF'
p635
sg36
S'10'
p636
sg38
S'27'
p637
sg39
S'6T'
p638
ssg40
(dp639
g5
S'9.0'
p640
sg7
S'--'
p641
sg9
g10
sg11
S'--'
p642
sg13
g10
sg14
g10
sg16
S'2012'
p643
sg18
g40
sg20
S'5.7'
p644
sg22
S'09/16'
p645
sg24
g10
sg25
S'Trent Richardson'
p646
sg27
S'19'
p647
sg29
S'L27-34'
p648
sg31
S'36'
p649
sg33
g129
sg34
S'@CIN'
p650
sg36
S'23T'
p651
sg38
S'109'
p652
sg39
S'32T'
p653
ssg183
(dp654
g5
S'9.4'
p655
sg7
S'--'
p656
sg9
g10
sg11
S'--'
p657
sg13
g10
sg14
g15
sg16
S'2012'
p658
sg18
g183
sg20
S'4.8'
p659
sg22
S'10/07'
p660
sg24
g10
sg25
S'Trent Richardson'
p661
sg27
S'17'
p662
sg29
S'L27-41'
p663
sg31
S'47'
p664
sg33
g183
sg34
S'@NYG'
p665
sg36
S'22'
p666
sg38
S'81'
p667
sg39
S'15T'
p668
ssg129
(dp669
g5
S'14.3'
p670
sg7
S'--'
p671
sg9
g10
sg11
S'--'
p672
sg13
g10
sg14
g15
sg16
S'2012'
p673
sg18
g129
sg20
S'3.4'
p674
sg22
S'09/27'
p675
sg24
g10
sg25
S'Trent Richardson'
p676
sg27
S'14'
p677
sg29
S'L16-23'
p678
sg31
S'57'
p679
sg33
g129
sg34
S'@BAL'
p680
sg36
S'20'
p681
sg38
S'47'
p682
sg39
g109
ssg109
(dp683
g5
S'5.5'
p684
sg7
S'--'
p685
sg9
g10
sg11
S'--'
p686
sg13
g10
sg14
g15
sg16
S'2012'
p687
sg18
g109
sg20
S'1.0'
p688
sg22
S'10/21'
p689
sg24
g15
sg25
S'Trent Richardson'
p690
sg27
g59
sg29
S'L13-17'
p691
sg31
S'11'
p692
sg33
g40
sg34
S'@IND'
p693
sg36
g93
sg38
g59
sg39
g183
ssg28
(dp694
g5
S'8.5'
p695
sg7
g10
sg9
g10
sg11
g15
sg13
g10
sg14
g15
sg16
S'2012'
p696
sg18
g28
sg20
S'2.6'
p697
sg22
S'10/14'
p698
sg24
g15
sg25
S'Trent Richardson'
p699
sg27
S'14'
p700
sg29
S'W34-24'
p701
sg31
S'17'
p702
sg33
g40
sg34
S'CIN'
p703
sg36
S'12'
p704
sg38
S'37'
p705
sg39
g59
ssg93
(dp706
g5
S'5.2'
p707
sg7
g10
sg9
g10
sg11
g15
sg13
g10
sg14
g15
sg16
S'2012'
p708
sg18
g93
sg20
S'4.2'
p709
sg22
S'11/04'
p710
sg24
g15
sg25
S'Trent Richardson'
p711
sg27
S'25'
p712
sg29
S'L15-25'
p713
sg31
S'31'
p714
sg33
g28
sg34
S'BAL'
p715
sg36
g93
sg38
S'105'
p716
sg39
S'19'
p717
ssg59
(dp718
g5
S'12.0'
p719
sg7
S'--'
p720
sg9
g10
sg11
S'--'
p721
sg13
g10
sg14
g15
sg16
S'2012'
p722
sg18
g59
sg20
S'5.1'
p723
sg22
S'10/28'
p724
sg24
g10
sg25
S'Trent Richardson'
p725
sg27
S'24'
p726
sg29
S'W7-6'
p727
sg31
S'12'
p728
sg33
g10
sg34
S'SD'
p729
sg36
S'12'
p730
sg38
S'122'
p731
sg39
S'26T'
p732
sss.