(dp0
S'2015'
p1
(dp2
S'11'
p3
(dp4
S'RecAvg'
p5
S'--'
p6
sS'FUM'
p7
S'--'
p8
sS'GS'
p9
S'0'
p10
sS'Lost'
p11
S'--'
p12
sS'G'
p13
g10
sS'RecTD'
p14
S'--'
p15
sS'Year'
p16
S'2015'
p17
sS'WK'
p18
S'11'
p19
sS'RushAvg'
p20
S'--'
p21
sS'Game Date'
p22
S'11/22'
p23
sS'RushTD'
p24
S'--'
p25
sS'Player'
p26
S'Trey Williams'
p27
sS'RushAtt'
p28
S'--'
p29
sS'Result'
p30
S'W24-14'
p31
sS'RecYds'
p32
S'--'
p33
sS'Rec'
p34
S'--'
p35
sS'Opp'
p36
S'@MIA'
p37
sS'RecLng'
p38
S'--'
p39
sS'RushYds'
p40
S'--'
p41
sS'RushLng'
p42
S'--'
p43
ssS'10'
p44
(dp45
g5
S'--'
p46
sg7
S'--'
p47
sg9
g10
sg11
S'--'
p48
sg13
g10
sg14
S'--'
p49
sg16
S'2015'
p50
sg18
S'10'
p51
sg20
S'--'
p52
sg22
S'11/15'
p53
sg24
S'--'
p54
sg26
S'Trey Williams'
p55
sg28
S'--'
p56
sg30
S'L6-10'
p57
sg32
S'--'
p58
sg34
S'--'
p59
sg36
S'@TB'
p60
sg38
S'--'
p61
sg40
S'--'
p62
sg42
S'--'
p63
ssS'13'
p64
(dp65
g5
S'--'
p66
sg7
S'--'
p67
sg9
g10
sg11
S'--'
p68
sg13
g10
sg14
S'--'
p69
sg16
S'2015'
p70
sg18
S'13'
p71
sg20
S'--'
p72
sg22
S'12/06'
p73
sg24
S'--'
p74
sg26
S'Trey Williams'
p75
sg28
S'--'
p76
sg30
S'L28-35'
p77
sg32
S'--'
p78
sg34
S'--'
p79
sg36
S'PHI'
p80
sg38
S'--'
p81
sg40
S'--'
p82
sg42
S'--'
p83
ssS'12'
p84
(dp85
g5
S'--'
p86
sg7
S'--'
p87
sg9
g10
sg11
S'--'
p88
sg13
g10
sg14
S'--'
p89
sg16
S'2015'
p90
sg18
S'12'
p91
sg20
S'--'
p92
sg22
S'11/26'
p93
sg24
S'--'
p94
sg26
S'Trey Williams'
p95
sg28
S'--'
p96
sg30
S'L14-33'
p97
sg32
S'--'
p98
sg34
S'--'
p99
sg36
S'CAR'
p100
sg38
S'--'
p101
sg40
S'--'
p102
sg42
S'--'
p103
ssS'17'
p104
(dp105
g5
S'--'
p106
sg7
S'--'
p107
sg9
g10
sg11
S'--'
p108
sg13
S'1'
p109
sg14
S'--'
p110
sg16
S'2015'
p111
sg18
S'17'
p112
sg20
S'6.0'
p113
sg22
S'01/03'
p114
sg24
g10
sg26
S'Trey Williams'
p115
sg28
S'2'
p116
sg30
S'W30-24'
p117
sg32
S'--'
p118
sg34
S'--'
p119
sg36
S'TEN'
p120
sg38
S'--'
p121
sg40
S'12'
p122
sg42
S'12'
p123
ssS'16'
p124
(dp125
g5
S'--'
p126
sg7
S'--'
p127
sg9
g10
sg11
S'--'
p128
sg13
g109
sg14
S'--'
p129
sg16
S'2015'
p130
sg18
S'16'
p131
sg20
S'--'
p132
sg22
S'12/27'
p133
sg24
S'--'
p134
sg26
S'Trey Williams'
p135
sg28
S'--'
p136
sg30
S'W18-12'
p137
sg32
S'--'
p138
sg34
S'--'
p139
sg36
S'@MIA'
p140
sg38
S'--'
p141
sg40
S'--'
p142
sg42
S'--'
p143
ssS'9'
p144
(dp145
g5
S'--'
p146
sg7
S'--'
p147
sg9
g10
sg11
S'--'
p148
sg13
g10
sg14
S'--'
p149
sg16
S'2015'
p150
sg18
g144
sg20
S'--'
p151
sg22
S'11/08'
p152
sg24
S'--'
p153
sg26
S'Trey Williams'
p154
sg28
S'--'
p155
sg30
S'L27-33'
p156
sg32
S'--'
p157
sg34
S'--'
p158
sg36
S'PHI'
p159
sg38
S'--'
p160
sg40
S'--'
p161
sg42
S'--'
p162
sss.