(dp0
S'2015'
p1
(dp2
S'1'
p3
(dp4
S'RecAvg'
p5
S'18.0'
p6
sS'FUM'
p7
S'--'
p8
sS'GS'
p9
S'0'
p10
sS'Lost'
p11
S'--'
p12
sS'G'
p13
g3
sS'RecTD'
p14
g10
sS'Year'
p15
S'2015'
p16
sS'WK'
p17
g3
sS'RushAvg'
p18
S'2.0'
p19
sS'Game Date'
p20
S'09/13'
p21
sS'RushTD'
p22
g10
sS'Player'
p23
S'Tyler Varga'
p24
sS'RushAtt'
p25
g3
sS'Result'
p26
S'L14-27'
p27
sS'RecYds'
p28
S'18'
p29
sS'Rec'
p30
g3
sS'Opp'
p31
S'@BUF'
p32
sS'RecLng'
p33
S'18'
p34
sS'RushYds'
p35
S'2'
p36
sS'RushLng'
p37
g36
ssS'3'
p38
(dp39
g5
S'--'
p40
sg7
S'--'
p41
sg9
g10
sg11
S'--'
p42
sg13
g3
sg14
g10
sg15
S'2015'
p43
sg17
g38
sg18
S'--'
p44
sg20
S'09/27'
p45
sg22
S'--'
p46
sg23
S'Tyler Varga'
p47
sg25
S'--'
p48
sg26
S'W35-33'
p49
sg28
g10
sg30
g10
sg31
S'@TEN'
p50
sg33
S'--'
p51
sg35
S'--'
p52
sg37
S'--'
p53
ssg36
(dp54
g5
S'--'
p55
sg7
S'--'
p56
sg9
g10
sg11
S'--'
p57
sg13
g3
sg14
S'--'
p58
sg15
S'2015'
p59
sg17
g36
sg18
S'--'
p60
sg20
S'09/21'
p61
sg22
S'--'
p62
sg23
S'Tyler Varga'
p63
sg25
S'--'
p64
sg26
S'L7-20'
p65
sg28
S'--'
p66
sg30
S'--'
p67
sg31
S'NYJ'
p68
sg33
S'--'
p69
sg35
S'--'
p70
sg37
S'--'
p71
ssS'5'
p72
(dp73
g5
S'--'
p74
sg7
S'--'
p75
sg9
g10
sg11
S'--'
p76
sg13
g10
sg14
S'--'
p77
sg15
S'2015'
p78
sg17
g72
sg18
S'--'
p79
sg20
S'10/08'
p80
sg22
S'--'
p81
sg23
S'Tyler Varga'
p82
sg25
S'--'
p83
sg26
S'W27-20'
p84
sg28
S'--'
p85
sg30
S'--'
p86
sg31
S'@HOU'
p87
sg33
S'--'
p88
sg35
S'--'
p89
sg37
S'--'
p90
ssS'4'
p91
(dp92
g5
S'--'
p93
sg7
S'--'
p94
sg9
g10
sg11
S'--'
p95
sg13
g10
sg14
S'--'
p96
sg15
S'2015'
p97
sg17
g91
sg18
S'--'
p98
sg20
S'10/04'
p99
sg22
S'--'
p100
sg23
S'Tyler Varga'
p101
sg25
S'--'
p102
sg26
S'W16-13'
p103
sg28
S'--'
p104
sg30
S'--'
p105
sg31
S'JAC'
p106
sg33
S'--'
p107
sg35
S'--'
p108
sg37
S'--'
p109
sss.