(dp0
S'2015'
p1
(dp2
S'11'
p3
(dp4
S'RecAvg'
p5
S'--'
p6
sS'FUM'
p7
S'--'
p8
sS'GS'
p9
S'0'
p10
sS'Lost'
p11
S'--'
p12
sS'G'
p13
S'1'
p14
sS'RecTD'
p15
S'--'
p16
sS'Year'
p17
S'2015'
p18
sS'WK'
p19
S'11'
p20
sS'RushAvg'
p21
S'--'
p22
sS'Game Date'
p23
S'11/22'
p24
sS'RushTD'
p25
S'--'
p26
sS'Player'
p27
S'Will Tukuafu'
p28
sS'RushAtt'
p29
S'--'
p30
sS'Result'
p31
S'W29-13'
p32
sS'RecYds'
p33
S'--'
p34
sS'Rec'
p35
S'--'
p36
sS'Opp'
p37
S'SF'
p38
sS'RecLng'
p39
S'--'
p40
sS'RushYds'
p41
S'--'
p42
sS'RushLng'
p43
S'--'
p44
ssS'10'
p45
(dp46
g5
S'--'
p47
sg7
S'--'
p48
sg9
g10
sg11
S'--'
p49
sg13
g14
sg15
S'--'
p50
sg17
S'2015'
p51
sg19
S'10'
p52
sg21
S'1.0'
p53
sg23
S'11/15'
p54
sg25
g14
sg27
S'Will Tukuafu'
p55
sg29
S'2'
p56
sg31
S'L32-39'
p57
sg33
S'--'
p58
sg35
S'--'
p59
sg37
S'ARI'
p60
sg39
S'--'
p61
sg41
g56
sg43
S'1T'
p62
ssS'13'
p63
(dp64
g5
S'--'
p65
sg7
S'--'
p66
sg9
g10
sg11
S'--'
p67
sg13
g14
sg15
S'--'
p68
sg17
S'2015'
p69
sg19
S'13'
p70
sg21
S'4.0'
p71
sg23
S'12/06'
p72
sg25
g10
sg27
S'Will Tukuafu'
p73
sg29
g14
sg31
S'W38-7'
p74
sg33
S'--'
p75
sg35
S'--'
p76
sg37
S'@MIN'
p77
sg39
S'--'
p78
sg41
S'4'
p79
sg43
g79
ssS'12'
p80
(dp81
g5
S'--'
p82
sg7
S'--'
p83
sg9
g10
sg11
S'--'
p84
sg13
g14
sg15
S'--'
p85
sg17
S'2015'
p86
sg19
S'12'
p87
sg21
S'--'
p88
sg23
S'11/29'
p89
sg25
S'--'
p90
sg27
S'Will Tukuafu'
p91
sg29
S'--'
p92
sg31
S'W39-30'
p93
sg33
S'--'
p94
sg35
S'--'
p95
sg37
S'PIT'
p96
sg39
S'--'
p97
sg41
S'--'
p98
sg43
S'--'
p99
ssS'15'
p100
(dp101
g5
S'--'
p102
sg7
S'--'
p103
sg9
g10
sg11
S'--'
p104
sg13
g14
sg15
S'--'
p105
sg17
S'2015'
p106
sg19
S'15'
p107
sg21
S'--'
p108
sg23
S'12/20'
p109
sg25
S'--'
p110
sg27
S'Will Tukuafu'
p111
sg29
S'--'
p112
sg31
S'W30-13'
p113
sg33
S'--'
p114
sg35
S'--'
p115
sg37
S'CLE'
p116
sg39
S'--'
p117
sg41
S'--'
p118
sg43
S'--'
p119
ssS'14'
p120
(dp121
g5
S'--'
p122
sg7
S'--'
p123
sg9
g10
sg11
S'--'
p124
sg13
g14
sg15
S'--'
p125
sg17
S'2015'
p126
sg19
S'14'
p127
sg21
S'--'
p128
sg23
S'12/13'
p129
sg25
S'--'
p130
sg27
S'Will Tukuafu'
p131
sg29
S'--'
p132
sg31
S'W35-6'
p133
sg33
S'--'
p134
sg35
S'--'
p135
sg37
S'@BAL'
p136
sg39
S'--'
p137
sg41
S'--'
p138
sg43
S'--'
p139
ssS'17'
p140
(dp141
g5
S'7.0'
p142
sg7
S'--'
p143
sg9
g10
sg11
S'--'
p144
sg13
g14
sg15
g14
sg17
S'2015'
p145
sg19
S'17'
p146
sg21
S'--'
p147
sg23
S'01/03'
p148
sg25
S'--'
p149
sg27
S'Will Tukuafu'
p150
sg29
S'--'
p151
sg31
S'W36-6'
p152
sg33
S'7'
p153
sg35
g14
sg37
S'@ARI'
p154
sg39
S'7T'
p155
sg41
S'--'
p156
sg43
S'--'
p157
ssS'16'
p158
(dp159
g5
S'--'
p160
sg7
g14
sg9
g10
sg11
g14
sg13
g14
sg15
S'--'
p161
sg17
S'2015'
p162
sg19
S'16'
p163
sg21
S'-5.0'
p164
sg23
S'12/27'
p165
sg25
g10
sg27
S'Will Tukuafu'
p166
sg29
g14
sg31
S'L17-23'
p167
sg33
S'--'
p168
sg35
S'--'
p169
sg37
S'STL'
p170
sg39
S'--'
p171
sg41
S'-5'
p172
sg43
S'-5'
p173
ssg14
(dp174
g5
S'--'
p175
sg7
S'--'
p176
sg9
g10
sg11
S'--'
p177
sg13
g10
sg15
S'--'
p178
sg17
S'2015'
p179
sg19
g14
sg21
S'--'
p180
sg23
S'09/13'
p181
sg25
S'--'
p182
sg27
S'Will Tukuafu'
p183
sg29
S'--'
p184
sg31
S'L31-34'
p185
sg33
S'--'
p186
sg35
S'--'
p187
sg37
S'@STL'
p188
sg39
S'--'
p189
sg41
S'--'
p190
sg43
S'--'
p191
ssS'3'
p192
(dp193
g5
S'--'
p194
sg7
S'--'
p195
sg9
g10
sg11
S'--'
p196
sg13
g14
sg15
S'--'
p197
sg17
S'2015'
p198
sg19
g192
sg21
S'--'
p199
sg23
S'09/27'
p200
sg25
S'--'
p201
sg27
S'Will Tukuafu'
p202
sg29
S'--'
p203
sg31
S'W26-0'
p204
sg33
S'--'
p205
sg35
S'--'
p206
sg37
S'CHI'
p207
sg39
S'--'
p208
sg41
S'--'
p209
sg43
S'--'
p210
ssg56
(dp211
g5
S'--'
p212
sg7
S'--'
p213
sg9
g10
sg11
S'--'
p214
sg13
g10
sg15
S'--'
p215
sg17
S'2015'
p216
sg19
g56
sg21
S'--'
p217
sg23
S'09/20'
p218
sg25
S'--'
p219
sg27
S'Will Tukuafu'
p220
sg29
S'--'
p221
sg31
S'L17-27'
p222
sg33
S'--'
p223
sg35
S'--'
p224
sg37
S'@GB'
p225
sg39
S'--'
p226
sg41
S'--'
p227
sg43
S'--'
p228
ssS'5'
p229
(dp230
g5
S'--'
p231
sg7
S'--'
p232
sg9
g10
sg11
S'--'
p233
sg13
g14
sg15
S'--'
p234
sg17
S'2015'
p235
sg19
g229
sg21
S'--'
p236
sg23
S'10/11'
p237
sg25
S'--'
p238
sg27
S'Will Tukuafu'
p239
sg29
S'--'
p240
sg31
S'L24-27'
p241
sg33
S'--'
p242
sg35
S'--'
p243
sg37
S'@CIN'
p244
sg39
S'--'
p245
sg41
S'--'
p246
sg43
S'--'
p247
ssg79
(dp248
g5
S'--'
p249
sg7
S'--'
p250
sg9
g10
sg11
S'--'
p251
sg13
g14
sg15
S'--'
p252
sg17
S'2015'
p253
sg19
g79
sg21
S'--'
p254
sg23
S'10/05'
p255
sg25
S'--'
p256
sg27
S'Will Tukuafu'
p257
sg29
S'--'
p258
sg31
S'W13-10'
p259
sg33
S'--'
p260
sg35
S'--'
p261
sg37
S'DET'
p262
sg39
S'--'
p263
sg41
S'--'
p264
sg43
S'--'
p265
ssg153
(dp266
g5
S'--'
p267
sg7
S'--'
p268
sg9
g10
sg11
S'--'
p269
sg13
g14
sg15
S'--'
p270
sg17
S'2015'
p271
sg19
g153
sg21
S'--'
p272
sg23
S'10/22'
p273
sg25
S'--'
p274
sg27
S'Will Tukuafu'
p275
sg29
S'--'
p276
sg31
S'W20-3'
p277
sg33
S'--'
p278
sg35
S'--'
p279
sg37
S'@SF'
p280
sg39
S'--'
p281
sg41
S'--'
p282
sg43
S'--'
p283
ssS'6'
p284
(dp285
g5
S'--'
p286
sg7
S'--'
p287
sg9
g10
sg11
S'--'
p288
sg13
g14
sg15
S'--'
p289
sg17
S'2015'
p290
sg19
g284
sg21
S'--'
p291
sg23
S'10/18'
p292
sg25
S'--'
p293
sg27
S'Will Tukuafu'
p294
sg29
S'--'
p295
sg31
S'L23-27'
p296
sg33
S'--'
p297
sg35
S'--'
p298
sg37
S'CAR'
p299
sg39
S'--'
p300
sg41
S'--'
p301
sg43
S'--'
p302
ssS'9'
p303
(dp304
g5
S''
p305
sg7
g305
sg9
g305
sg11
g305
sg13
g305
sg15
g305
sg17
S'2015'
p306
sg19
g303
sg21
g305
sg23
S'Bye'
p307
sg25
g305
sg27
S'Will Tukuafu'
p308
sg29
g305
sg31
g305
sg33
g305
sg35
g305
sg37
g305
sg39
g305
sg41
g305
sg43
g305
ssS'8'
p309
(dp310
g5
S'--'
p311
sg7
S'--'
p312
sg9
g14
sg11
S'--'
p313
sg13
g14
sg15
S'--'
p314
sg17
S'2015'
p315
sg19
g309
sg21
S'--'
p316
sg23
S'11/01'
p317
sg25
S'--'
p318
sg27
S'Will Tukuafu'
p319
sg29
S'--'
p320
sg31
S'W13-12'
p321
sg33
S'--'
p322
sg35
S'--'
p323
sg37
S'@DAL'
p324
sg39
S'--'
p325
sg41
S'--'
p326
sg43
S'--'
p327
sssS'2014'
p328
(dp329
g3
(dp330
g5
S'--'
p331
sg7
S'--'
p332
sg9
g10
sg11
S'--'
p333
sg13
g14
sg15
S'--'
p334
sg17
S'2014'
p335
sg19
S'11'
p336
sg21
S'--'
p337
sg23
S'11/16'
p338
sg25
S'--'
p339
sg27
S'Will Tukuafu'
p340
sg29
S'--'
p341
sg31
S'L20-24'
p342
sg33
S'--'
p343
sg35
S'--'
p344
sg37
S'@KC'
p345
sg39
S'--'
p346
sg41
S'--'
p347
sg43
S'--'
p348
ssg45
(dp349
g5
S'--'
p350
sg7
S'--'
p351
sg9
g10
sg11
S'--'
p352
sg13
g14
sg15
S'--'
p353
sg17
S'2014'
p354
sg19
S'10'
p355
sg21
S'--'
p356
sg23
S'11/09'
p357
sg25
S'--'
p358
sg27
S'Will Tukuafu'
p359
sg29
S'--'
p360
sg31
S'W38-17'
p361
sg33
S'--'
p362
sg35
S'--'
p363
sg37
S'NYG'
p364
sg39
S'--'
p365
sg41
S'--'
p366
sg43
S'--'
p367
ssg63
(dp368
g5
S'--'
p369
sg7
S'--'
p370
sg9
g10
sg11
S'--'
p371
sg13
g14
sg15
S'--'
p372
sg17
S'2014'
p373
sg19
S'13'
p374
sg21
S'--'
p375
sg23
S'11/27'
p376
sg25
S'--'
p377
sg27
S'Will Tukuafu'
p378
sg29
S'--'
p379
sg31
S'W19-3'
p380
sg33
S'--'
p381
sg35
S'--'
p382
sg37
S'@SF'
p383
sg39
S'--'
p384
sg41
S'--'
p385
sg43
S'--'
p386
ssg80
(dp387
g5
S'--'
p388
sg7
S'--'
p389
sg9
g10
sg11
S'--'
p390
sg13
g14
sg15
S'--'
p391
sg17
S'2014'
p392
sg19
S'12'
p393
sg21
S'--'
p394
sg23
S'11/23'
p395
sg25
S'--'
p396
sg27
S'Will Tukuafu'
p397
sg29
S'--'
p398
sg31
S'W19-3'
p399
sg33
S'--'
p400
sg35
S'--'
p401
sg37
S'ARI'
p402
sg39
S'--'
p403
sg41
S'--'
p404
sg43
S'--'
p405
ssg100
(dp406
g5
S'--'
p407
sg7
S'--'
p408
sg9
g10
sg11
S'--'
p409
sg13
g14
sg15
S'--'
p410
sg17
S'2014'
p411
sg19
S'15'
p412
sg21
S'--'
p413
sg23
S'12/14'
p414
sg25
S'--'
p415
sg27
S'Will Tukuafu'
p416
sg29
S'--'
p417
sg31
S'W17-7'
p418
sg33
S'--'
p419
sg35
S'--'
p420
sg37
S'SF'
p421
sg39
S'--'
p422
sg41
S'--'
p423
sg43
S'--'
p424
ssg120
(dp425
g5
S'4.0'
p426
sg7
S'--'
p427
sg9
g10
sg11
S'--'
p428
sg13
g14
sg15
g10
sg17
S'2014'
p429
sg19
S'14'
p430
sg21
S'--'
p431
sg23
S'12/07'
p432
sg25
S'--'
p433
sg27
S'Will Tukuafu'
p434
sg29
S'--'
p435
sg31
S'W24-14'
p436
sg33
g79
sg35
g14
sg37
S'@PHI'
p437
sg39
g79
sg41
S'--'
p438
sg43
S'--'
p439
ssg140
(dp440
g5
S'--'
p441
sg7
S'--'
p442
sg9
g10
sg11
S'--'
p443
sg13
g14
sg15
S'--'
p444
sg17
S'2014'
p445
sg19
S'17'
p446
sg21
S'2.0'
p447
sg23
S'12/28'
p448
sg25
g10
sg27
S'Will Tukuafu'
p449
sg29
g14
sg31
S'W20-6'
p450
sg33
S'--'
p451
sg35
S'--'
p452
sg37
S'STL'
p453
sg39
S'--'
p454
sg41
g56
sg43
g56
ssg158
(dp455
g5
S'--'
p456
sg7
S'--'
p457
sg9
g14
sg11
S'--'
p458
sg13
g14
sg15
S'--'
p459
sg17
S'2014'
p460
sg19
S'16'
p461
sg21
S'--'
p462
sg23
S'12/21'
p463
sg25
S'--'
p464
sg27
S'Will Tukuafu'
p465
sg29
S'--'
p466
sg31
S'W35-6'
p467
sg33
S'--'
p468
sg35
S'--'
p469
sg37
S'@ARI'
p470
sg39
S'--'
p471
sg41
S'--'
p472
sg43
S'--'
p473
ssg303
(dp474
g5
S'--'
p475
sg7
S'--'
p476
sg9
g14
sg11
S'--'
p477
sg13
g14
sg15
g10
sg17
S'2014'
p478
sg19
g303
sg21
S'--'
p479
sg23
S'11/02'
p480
sg25
S'--'
p481
sg27
S'Will Tukuafu'
p482
sg29
S'--'
p483
sg31
S'W30-24'
p484
sg33
g10
sg35
g10
sg37
S'OAK'
p485
sg39
S'--'
p486
sg41
S'--'
p487
sg43
S'--'
p488
sssS'2011'
p489
(dp490
g14
(dp491
g5
S'--'
p492
sg7
S'--'
p493
sg9
g10
sg11
S'--'
p494
sg13
g14
sg15
S'--'
p495
sg17
S'2011'
p496
sg19
g14
sg21
S'--'
p497
sg23
S'09/11'
p498
sg25
S'--'
p499
sg27
S'Will Tukuafu'
p500
sg29
S'--'
p501
sg31
S'W33-17'
p502
sg33
S'--'
p503
sg35
S'--'
p504
sg37
S'SEA'
p505
sg39
S'--'
p506
sg41
S'--'
p507
sg43
S'--'
p508
ssg192
(dp509
g5
S'--'
p510
sg7
S'--'
p511
sg9
g10
sg11
S'--'
p512
sg13
g14
sg15
S'--'
p513
sg17
S'2011'
p514
sg19
g192
sg21
S'--'
p515
sg23
S'09/25'
p516
sg25
S'--'
p517
sg27
S'Will Tukuafu'
p518
sg29
S'--'
p519
sg31
S'W13-8'
p520
sg33
S'--'
p521
sg35
S'--'
p522
sg37
S'@CIN'
p523
sg39
S'--'
p524
sg41
S'--'
p525
sg43
S'--'
p526
ssg56
(dp527
g5
S'--'
p528
sg7
S'--'
p529
sg9
g10
sg11
S'--'
p530
sg13
g14
sg15
S'--'
p531
sg17
S'2011'
p532
sg19
g56
sg21
S'--'
p533
sg23
S'09/18'
p534
sg25
S'--'
p535
sg27
S'Will Tukuafu'
p536
sg29
S'--'
p537
sg31
S'L24-27'
p538
sg33
S'--'
p539
sg35
S'--'
p540
sg37
S'DAL'
p541
sg39
S'--'
p542
sg41
S'--'
p543
sg43
S'--'
p544
ssg79
(dp545
g5
S'--'
p546
sg7
S'--'
p547
sg9
g10
sg11
S'--'
p548
sg13
g14
sg15
S'--'
p549
sg17
S'2011'
p550
sg19
g79
sg21
S'--'
p551
sg23
S'10/02'
p552
sg25
S'--'
p553
sg27
S'Will Tukuafu'
p554
sg29
S'--'
p555
sg31
S'W24-23'
p556
sg33
S'--'
p557
sg35
S'--'
p558
sg37
S'@PHI'
p559
sg39
S'--'
p560
sg41
S'--'
p561
sg43
S'--'
p562
sssS'2010'
p563
(dp564
g140
(dp565
g5
S'--'
p566
sg7
S'--'
p567
sg9
g10
sg11
S'--'
p568
sg13
g10
sg15
S'--'
p569
sg17
S'2010'
p570
sg19
S'17'
p571
sg21
S'--'
p572
sg23
S'01/02'
p573
sg25
S'--'
p574
sg27
S'Will Tukuafu'
p575
sg29
S'--'
p576
sg31
S'W38-7'
p577
sg33
S'--'
p578
sg35
S'--'
p579
sg37
S'ARI'
p580
sg39
S'--'
p581
sg41
S'--'
p582
sg43
S'--'
p583
ssg158
(dp584
g5
S'--'
p585
sg7
S'--'
p586
sg9
g10
sg11
S'--'
p587
sg13
g10
sg15
S'--'
p588
sg17
S'2010'
p589
sg19
S'16'
p590
sg21
S'--'
p591
sg23
S'12/26'
p592
sg25
S'--'
p593
sg27
S'Will Tukuafu'
p594
sg29
S'--'
p595
sg31
S'L17-25'
p596
sg33
S'--'
p597
sg35
S'--'
p598
sg37
S'@STL'
p599
sg39
S'--'
p600
sg41
S'--'
p601
sg43
S'--'
p602
sssS'2013'
p603
(dp604
g140
(dp605
g5
S'--'
p606
sg7
S'--'
p607
sg9
g10
sg11
S'--'
p608
sg13
g14
sg15
S'--'
p609
sg17
S'2013'
p610
sg19
S'17'
p611
sg21
S'--'
p612
sg23
S'12/29'
p613
sg25
S'--'
p614
sg27
S'Will Tukuafu'
p615
sg29
S'--'
p616
sg31
S'W23-20'
p617
sg33
S'--'
p618
sg35
S'--'
p619
sg37
S'@ARI'
p620
sg39
S'--'
p621
sg41
S'--'
p622
sg43
S'--'
p623
ssg158
(dp624
g5
S'--'
p625
sg7
S'--'
p626
sg9
g10
sg11
S'--'
p627
sg13
g14
sg15
S'--'
p628
sg17
S'2013'
p629
sg19
S'16'
p630
sg21
S'--'
p631
sg23
S'12/23'
p632
sg25
S'--'
p633
sg27
S'Will Tukuafu'
p634
sg29
S'--'
p635
sg31
S'W34-24'
p636
sg33
S'--'
p637
sg35
S'--'
p638
sg37
S'ATL'
p639
sg39
S'--'
p640
sg41
S'--'
p641
sg43
S'--'
p642
ssg14
(dp643
g5
S'--'
p644
sg7
S'--'
p645
sg9
g10
sg11
S'--'
p646
sg13
g10
sg15
S'--'
p647
sg17
S'2013'
p648
sg19
g14
sg21
S'--'
p649
sg23
S'09/08'
p650
sg25
S'--'
p651
sg27
S'Will Tukuafu'
p652
sg29
S'--'
p653
sg31
S'W34-28'
p654
sg33
S'--'
p655
sg35
S'--'
p656
sg37
S'GB'
p657
sg39
S'--'
p658
sg41
S'--'
p659
sg43
S'--'
p660
sssS'2012'
p661
(dp662
g3
(dp663
g5
S'--'
p664
sg7
S'--'
p665
sg9
g10
sg11
S'--'
p666
sg13
g14
sg15
S'--'
p667
sg17
S'2012'
p668
sg19
S'11'
p669
sg21
S'--'
p670
sg23
S'11/19'
p671
sg25
S'--'
p672
sg27
S'Will Tukuafu'
p673
sg29
S'--'
p674
sg31
S'W32-7'
p675
sg33
S'--'
p676
sg35
S'--'
p677
sg37
S'CHI'
p678
sg39
S'--'
p679
sg41
S'--'
p680
sg43
S'--'
p681
ssg45
(dp682
g5
S'--'
p683
sg7
S'--'
p684
sg9
g10
sg11
S'--'
p685
sg13
g14
sg15
S'--'
p686
sg17
S'2012'
p687
sg19
S'10'
p688
sg21
S'--'
p689
sg23
S'11/11'
p690
sg25
S'--'
p691
sg27
S'Will Tukuafu'
p692
sg29
S'--'
p693
sg31
S'T24-24'
p694
sg33
S'--'
p695
sg35
S'--'
p696
sg37
S'STL'
p697
sg39
S'--'
p698
sg41
S'--'
p699
sg43
S'--'
p700
ssg63
(dp701
g5
S'--'
p702
sg7
S'--'
p703
sg9
g10
sg11
S'--'
p704
sg13
g14
sg15
S'--'
p705
sg17
S'2012'
p706
sg19
S'13'
p707
sg21
S'--'
p708
sg23
S'12/02'
p709
sg25
S'--'
p710
sg27
S'Will Tukuafu'
p711
sg29
S'--'
p712
sg31
S'L13-16'
p713
sg33
S'--'
p714
sg35
S'--'
p715
sg37
S'@STL'
p716
sg39
S'--'
p717
sg41
S'--'
p718
sg43
S'--'
p719
ssg80
(dp720
g5
S'--'
p721
sg7
S'--'
p722
sg9
g10
sg11
S'--'
p723
sg13
g10
sg15
S'--'
p724
sg17
S'2012'
p725
sg19
S'12'
p726
sg21
S'--'
p727
sg23
S'11/25'
p728
sg25
S'--'
p729
sg27
S'Will Tukuafu'
p730
sg29
S'--'
p731
sg31
S'W31-21'
p732
sg33
S'--'
p733
sg35
S'--'
p734
sg37
S'@NO'
p735
sg39
S'--'
p736
sg41
S'--'
p737
sg43
S'--'
p738
ssg100
(dp739
g5
S'--'
p740
sg7
S'--'
p741
sg9
g10
sg11
S'--'
p742
sg13
g14
sg15
S'--'
p743
sg17
S'2012'
p744
sg19
S'15'
p745
sg21
S'--'
p746
sg23
S'12/16'
p747
sg25
S'--'
p748
sg27
S'Will Tukuafu'
p749
sg29
S'--'
p750
sg31
S'W41-34'
p751
sg33
S'--'
p752
sg35
S'--'
p753
sg37
S'@NE'
p754
sg39
S'--'
p755
sg41
S'--'
p756
sg43
S'--'
p757
ssg120
(dp758
g5
S'--'
p759
sg7
S'--'
p760
sg9
g10
sg11
S'--'
p761
sg13
g14
sg15
S'--'
p762
sg17
S'2012'
p763
sg19
S'14'
p764
sg21
S'--'
p765
sg23
S'12/09'
p766
sg25
S'--'
p767
sg27
S'Will Tukuafu'
p768
sg29
S'--'
p769
sg31
S'W27-13'
p770
sg33
S'--'
p771
sg35
S'--'
p772
sg37
S'MIA'
p773
sg39
S'--'
p774
sg41
S'--'
p775
sg43
S'--'
p776
ssg140
(dp777
g5
S'--'
p778
sg7
S'--'
p779
sg9
g10
sg11
S'--'
p780
sg13
g10
sg15
S'--'
p781
sg17
S'2012'
p782
sg19
S'17'
p783
sg21
S'--'
p784
sg23
S'12/30'
p785
sg25
S'--'
p786
sg27
S'Will Tukuafu'
p787
sg29
S'--'
p788
sg31
S'W27-13'
p789
sg33
S'--'
p790
sg35
S'--'
p791
sg37
S'ARI'
p792
sg39
S'--'
p793
sg41
S'--'
p794
sg43
S'--'
p795
ssg158
(dp796
g5
S'--'
p797
sg7
S'--'
p798
sg9
g10
sg11
S'--'
p799
sg13
g14
sg15
S'--'
p800
sg17
S'2012'
p801
sg19
S'16'
p802
sg21
S'--'
p803
sg23
S'12/23'
p804
sg25
S'--'
p805
sg27
S'Will Tukuafu'
p806
sg29
S'--'
p807
sg31
S'L13-42'
p808
sg33
S'--'
p809
sg35
S'--'
p810
sg37
S'@SEA'
p811
sg39
S'--'
p812
sg41
S'--'
p813
sg43
S'--'
p814
ssg14
(dp815
g5
S'--'
p816
sg7
S'--'
p817
sg9
g10
sg11
S'--'
p818
sg13
g14
sg15
S'--'
p819
sg17
S'2012'
p820
sg19
g14
sg21
S'--'
p821
sg23
S'09/09'
p822
sg25
S'--'
p823
sg27
S'Will Tukuafu'
p824
sg29
S'--'
p825
sg31
S'W30-22'
p826
sg33
S'--'
p827
sg35
S'--'
p828
sg37
S'@GB'
p829
sg39
S'--'
p830
sg41
S'--'
p831
sg43
S'--'
p832
ssg192
(dp833
g5
S'--'
p834
sg7
S'--'
p835
sg9
g10
sg11
S'--'
p836
sg13
g14
sg15
S'--'
p837
sg17
S'2012'
p838
sg19
g192
sg21
S'--'
p839
sg23
S'09/23'
p840
sg25
S'--'
p841
sg27
S'Will Tukuafu'
p842
sg29
S'--'
p843
sg31
S'L13-24'
p844
sg33
S'--'
p845
sg35
S'--'
p846
sg37
S'@MIN'
p847
sg39
S'--'
p848
sg41
S'--'
p849
sg43
S'--'
p850
ssg56
(dp851
g5
S'--'
p852
sg7
S'--'
p853
sg9
g10
sg11
S'--'
p854
sg13
g14
sg15
S'--'
p855
sg17
S'2012'
p856
sg19
g56
sg21
S'--'
p857
sg23
S'09/16'
p858
sg25
S'--'
p859
sg27
S'Will Tukuafu'
p860
sg29
S'--'
p861
sg31
S'W27-19'
p862
sg33
S'--'
p863
sg35
S'--'
p864
sg37
S'DET'
p865
sg39
S'--'
p866
sg41
S'--'
p867
sg43
S'--'
p868
ssg229
(dp869
g5
S'--'
p870
sg7
S'--'
p871
sg9
g10
sg11
S'--'
p872
sg13
g14
sg15
S'--'
p873
sg17
S'2012'
p874
sg19
g229
sg21
S'--'
p875
sg23
S'10/07'
p876
sg25
S'--'
p877
sg27
S'Will Tukuafu'
p878
sg29
S'--'
p879
sg31
S'W45-3'
p880
sg33
S'--'
p881
sg35
S'--'
p882
sg37
S'BUF'
p883
sg39
S'--'
p884
sg41
S'--'
p885
sg43
S'--'
p886
ssg79
(dp887
g5
S'--'
p888
sg7
S'--'
p889
sg9
g10
sg11
S'--'
p890
sg13
g14
sg15
S'--'
p891
sg17
S'2012'
p892
sg19
g79
sg21
S'--'
p893
sg23
S'09/30'
p894
sg25
S'--'
p895
sg27
S'Will Tukuafu'
p896
sg29
S'--'
p897
sg31
S'W34-0'
p898
sg33
S'--'
p899
sg35
S'--'
p900
sg37
S'@NYJ'
p901
sg39
S'--'
p902
sg41
S'--'
p903
sg43
S'--'
p904
ssg153
(dp905
g5
S'--'
p906
sg7
S'--'
p907
sg9
g10
sg11
S'--'
p908
sg13
g14
sg15
S'--'
p909
sg17
S'2012'
p910
sg19
g153
sg21
S'--'
p911
sg23
S'10/18'
p912
sg25
S'--'
p913
sg27
S'Will Tukuafu'
p914
sg29
S'--'
p915
sg31
S'W13-6'
p916
sg33
S'--'
p917
sg35
S'--'
p918
sg37
S'SEA'
p919
sg39
S'--'
p920
sg41
S'--'
p921
sg43
S'--'
p922
ssg284
(dp923
g5
S'--'
p924
sg7
S'--'
p925
sg9
g10
sg11
S'--'
p926
sg13
g14
sg15
S'--'
p927
sg17
S'2012'
p928
sg19
g284
sg21
S'--'
p929
sg23
S'10/14'
p930
sg25
S'--'
p931
sg27
S'Will Tukuafu'
p932
sg29
S'--'
p933
sg31
S'L3-26'
p934
sg33
S'--'
p935
sg35
S'--'
p936
sg37
S'NYG'
p937
sg39
S'--'
p938
sg41
S'--'
p939
sg43
S'--'
p940
ssg303
(dp941
g5
g305
sg7
g305
sg9
g305
sg11
g305
sg13
g305
sg15
g305
sg17
S'2012'
p942
sg19
g303
sg21
g305
sg23
S'Bye'
p943
sg25
g305
sg27
S'Will Tukuafu'
p944
sg29
g305
sg31
g305
sg33
g305
sg35
g305
sg37
g305
sg39
g305
sg41
g305
sg43
g305
ssg309
(dp945
g5
S'--'
p946
sg7
S'--'
p947
sg9
g10
sg11
S'--'
p948
sg13
g14
sg15
S'--'
p949
sg17
S'2012'
p950
sg19
g309
sg21
S'--'
p951
sg23
S'10/29'
p952
sg25
S'--'
p953
sg27
S'Will Tukuafu'
p954
sg29
S'--'
p955
sg31
S'W24-3'
p956
sg33
S'--'
p957
sg35
S'--'
p958
sg37
S'@ARI'
p959
sg39
S'--'
p960
sg41
S'--'
p961
sg43
S'--'
p962
sss.