(dp0
S'2015'
p1
(dp2
S'11'
p3
(dp4
S'RecAvg'
p5
S''
p6
sS'FUM'
p7
g6
sS'GS'
p8
g6
sS'Lost'
p9
g6
sS'G'
p10
g6
sS'RecTD'
p11
g6
sS'Year'
p12
S'2015'
p13
sS'WK'
p14
S'11'
p15
sS'RushAvg'
p16
g6
sS'Game Date'
p17
S'Bye'
p18
sS'RushTD'
p19
g6
sS'Player'
p20
S'Will Johnson'
p21
sS'RushAtt'
p22
g6
sS'Result'
p23
g6
sS'RecYds'
p24
g6
sS'Rec'
p25
g6
sS'Opp'
p26
g6
sS'RecLng'
p27
g6
sS'RushYds'
p28
g6
sS'RushLng'
p29
g6
ssS'10'
p30
(dp31
g5
S'--'
p32
sg7
S'--'
p33
sg8
S'0'
p34
sg9
S'--'
p35
sg10
S'1'
p36
sg11
S'--'
p37
sg12
S'2015'
p38
sg14
S'10'
p39
sg16
S'--'
p40
sg17
S'11/15'
p41
sg19
S'--'
p42
sg20
S'Will Johnson'
p43
sg22
S'--'
p44
sg23
S'W30-9'
p45
sg24
S'--'
p46
sg25
S'--'
p47
sg26
S'CLE'
p48
sg27
S'--'
p49
sg28
S'--'
p50
sg29
S'--'
p51
ssS'13'
p52
(dp53
g5
S'--'
p54
sg7
S'--'
p55
sg8
g34
sg9
S'--'
p56
sg10
g36
sg11
S'--'
p57
sg12
S'2015'
p58
sg14
S'13'
p59
sg16
S'--'
p60
sg17
S'12/06'
p61
sg19
S'--'
p62
sg20
S'Will Johnson'
p63
sg22
S'--'
p64
sg23
S'W45-10'
p65
sg24
S'--'
p66
sg25
S'--'
p67
sg26
S'IND'
p68
sg27
S'--'
p69
sg28
S'--'
p70
sg29
S'--'
p71
ssS'12'
p72
(dp73
g5
S'8.0'
p74
sg7
S'--'
p75
sg8
g36
sg9
S'--'
p76
sg10
g36
sg11
g34
sg12
S'2015'
p77
sg14
S'12'
p78
sg16
S'--'
p79
sg17
S'11/29'
p80
sg19
S'--'
p81
sg20
S'Will Johnson'
p82
sg22
S'--'
p83
sg23
S'L30-39'
p84
sg24
S'16'
p85
sg25
S'2'
p86
sg26
S'@SEA'
p87
sg27
S'11'
p88
sg28
S'--'
p89
sg29
S'--'
p90
ssS'15'
p91
(dp92
g5
S'--'
p93
sg7
S'--'
p94
sg8
g34
sg9
S'--'
p95
sg10
g36
sg11
S'--'
p96
sg12
S'2015'
p97
sg14
S'15'
p98
sg16
S'--'
p99
sg17
S'12/20'
p100
sg19
S'--'
p101
sg20
S'Will Johnson'
p102
sg22
S'--'
p103
sg23
S'W34-27'
p104
sg24
S'--'
p105
sg25
S'--'
p106
sg26
S'DEN'
p107
sg27
S'--'
p108
sg28
S'--'
p109
sg29
S'--'
p110
ssS'14'
p111
(dp112
g5
S'--'
p113
sg7
S'--'
p114
sg8
g34
sg9
S'--'
p115
sg10
g36
sg11
S'--'
p116
sg12
S'2015'
p117
sg14
S'14'
p118
sg16
S'--'
p119
sg17
S'12/13'
p120
sg19
S'--'
p121
sg20
S'Will Johnson'
p122
sg22
S'--'
p123
sg23
S'W33-20'
p124
sg24
S'--'
p125
sg25
S'--'
p126
sg26
S'@CIN'
p127
sg27
S'--'
p128
sg28
S'--'
p129
sg29
S'--'
p130
ssS'17'
p131
(dp132
g5
S'--'
p133
sg7
S'--'
p134
sg8
g34
sg9
S'--'
p135
sg10
g36
sg11
S'--'
p136
sg12
S'2015'
p137
sg14
S'17'
p138
sg16
S'--'
p139
sg17
S'01/03'
p140
sg19
S'--'
p141
sg20
S'Will Johnson'
p142
sg22
S'--'
p143
sg23
S'W28-12'
p144
sg24
S'--'
p145
sg25
S'--'
p146
sg26
S'@CLE'
p147
sg27
S'--'
p148
sg28
S'--'
p149
sg29
S'--'
p150
ssS'16'
p151
(dp152
g5
S'--'
p153
sg7
S'--'
p154
sg8
g34
sg9
S'--'
p155
sg10
g36
sg11
g34
sg12
S'2015'
p156
sg14
S'16'
p157
sg16
S'--'
p158
sg17
S'12/27'
p159
sg19
S'--'
p160
sg20
S'Will Johnson'
p161
sg22
S'--'
p162
sg23
S'L17-20'
p163
sg24
g34
sg25
g34
sg26
S'@BAL'
p164
sg27
S'--'
p165
sg28
S'--'
p166
sg29
S'--'
p167
ssg36
(dp168
g5
S'--'
p169
sg7
S'--'
p170
sg8
g34
sg9
S'--'
p171
sg10
g36
sg11
S'--'
p172
sg12
S'2015'
p173
sg14
g36
sg16
S'1.8'
p174
sg17
S'09/10'
p175
sg19
g36
sg20
S'Will Johnson'
p176
sg22
S'4'
p177
sg23
S'L21-28'
p178
sg24
S'--'
p179
sg25
S'--'
p180
sg26
S'@NE'
p181
sg27
S'--'
p182
sg28
S'7'
p183
sg29
S'6'
p184
ssS'3'
p185
(dp186
g5
S'--'
p187
sg7
S'--'
p188
sg8
g34
sg9
S'--'
p189
sg10
g36
sg11
S'--'
p190
sg12
S'2015'
p191
sg14
g185
sg16
S'--'
p192
sg17
S'09/27'
p193
sg19
S'--'
p194
sg20
S'Will Johnson'
p195
sg22
S'--'
p196
sg23
S'W12-6'
p197
sg24
S'--'
p198
sg25
S'--'
p199
sg26
S'@STL'
p200
sg27
S'--'
p201
sg28
S'--'
p202
sg29
S'--'
p203
ssg86
(dp204
g5
S'--'
p205
sg7
S'--'
p206
sg8
g36
sg9
S'--'
p207
sg10
g36
sg11
S'--'
p208
sg12
S'2015'
p209
sg14
g86
sg16
S'--'
p210
sg17
S'09/20'
p211
sg19
S'--'
p212
sg20
S'Will Johnson'
p213
sg22
S'--'
p214
sg23
S'W43-18'
p215
sg24
S'--'
p216
sg25
S'--'
p217
sg26
S'SF'
p218
sg27
S'--'
p219
sg28
S'--'
p220
sg29
S'--'
p221
ssS'5'
p222
(dp223
g5
S'--'
p224
sg7
S'--'
p225
sg8
g36
sg9
S'--'
p226
sg10
g36
sg11
S'--'
p227
sg12
S'2015'
p228
sg14
g222
sg16
S'--'
p229
sg17
S'10/12'
p230
sg19
S'--'
p231
sg20
S'Will Johnson'
p232
sg22
S'--'
p233
sg23
S'W24-20'
p234
sg24
S'--'
p235
sg25
S'--'
p236
sg26
S'@SD'
p237
sg27
S'--'
p238
sg28
S'--'
p239
sg29
S'--'
p240
ssg177
(dp241
g5
S'--'
p242
sg7
S'--'
p243
sg8
g34
sg9
S'--'
p244
sg10
g36
sg11
S'--'
p245
sg12
S'2015'
p246
sg14
g177
sg16
S'--'
p247
sg17
S'10/01'
p248
sg19
S'--'
p249
sg20
S'Will Johnson'
p250
sg22
S'--'
p251
sg23
S'L20-23'
p252
sg24
S'--'
p253
sg25
S'--'
p254
sg26
S'BAL'
p255
sg27
S'--'
p256
sg28
S'--'
p257
sg29
S'--'
p258
ssg183
(dp259
g5
S'--'
p260
sg7
S'--'
p261
sg8
g34
sg9
S'--'
p262
sg10
g36
sg11
S'--'
p263
sg12
S'2015'
p264
sg14
g183
sg16
S'--'
p265
sg17
S'10/25'
p266
sg19
S'--'
p267
sg20
S'Will Johnson'
p268
sg22
S'--'
p269
sg23
S'L13-23'
p270
sg24
S'--'
p271
sg25
S'--'
p272
sg26
S'@KC'
p273
sg27
S'--'
p274
sg28
S'--'
p275
sg29
S'--'
p276
ssg184
(dp277
g5
S'--'
p278
sg7
S'--'
p279
sg8
g34
sg9
S'--'
p280
sg10
g36
sg11
S'--'
p281
sg12
S'2015'
p282
sg14
g184
sg16
S'--'
p283
sg17
S'10/18'
p284
sg19
S'--'
p285
sg20
S'Will Johnson'
p286
sg22
S'--'
p287
sg23
S'W25-13'
p288
sg24
S'--'
p289
sg25
S'--'
p290
sg26
S'ARI'
p291
sg27
S'--'
p292
sg28
S'--'
p293
sg29
S'--'
p294
ssS'9'
p295
(dp296
g5
S'--'
p297
sg7
S'--'
p298
sg8
g34
sg9
S'--'
p299
sg10
g36
sg11
S'--'
p300
sg12
S'2015'
p301
sg14
g295
sg16
S'--'
p302
sg17
S'11/08'
p303
sg19
S'--'
p304
sg20
S'Will Johnson'
p305
sg22
S'--'
p306
sg23
S'W38-35'
p307
sg24
S'--'
p308
sg25
S'--'
p309
sg26
S'OAK'
p310
sg27
S'--'
p311
sg28
S'--'
p312
sg29
S'--'
p313
ssS'8'
p314
(dp315
g5
S'--'
p316
sg7
S'--'
p317
sg8
g34
sg9
S'--'
p318
sg10
g36
sg11
g34
sg12
S'2015'
p319
sg14
g314
sg16
S'--'
p320
sg17
S'11/01'
p321
sg19
S'--'
p322
sg20
S'Will Johnson'
p323
sg22
S'--'
p324
sg23
S'L10-16'
p325
sg24
g34
sg25
g34
sg26
S'CIN'
p326
sg27
S'--'
p327
sg28
S'--'
p328
sg29
S'--'
p329
sssS'2014'
p330
(dp331
g3
(dp332
g5
S'--'
p333
sg7
S'--'
p334
sg8
g34
sg9
S'--'
p335
sg10
g36
sg11
S'--'
p336
sg12
S'2014'
p337
sg14
S'11'
p338
sg16
S'--'
p339
sg17
S'11/17'
p340
sg19
S'--'
p341
sg20
S'Will Johnson'
p342
sg22
S'--'
p343
sg23
S'W27-24'
p344
sg24
S'--'
p345
sg25
S'--'
p346
sg26
S'@TEN'
p347
sg27
S'--'
p348
sg28
S'--'
p349
sg29
S'--'
p350
ssg30
(dp351
g5
S'-5.0'
p352
sg7
S'--'
p353
sg8
g34
sg9
S'--'
p354
sg10
g36
sg11
g34
sg12
S'2014'
p355
sg14
S'10'
p356
sg16
S'--'
p357
sg17
S'11/09'
p358
sg19
S'--'
p359
sg20
S'Will Johnson'
p360
sg22
S'--'
p361
sg23
S'L13-20'
p362
sg24
S'-5'
p363
sg25
g36
sg26
S'@NYJ'
p364
sg27
S'-5'
p365
sg28
S'--'
p366
sg29
S'--'
p367
ssg52
(dp368
g5
S'--'
p369
sg7
S'--'
p370
sg8
g34
sg9
S'--'
p371
sg10
g36
sg11
S'--'
p372
sg12
S'2014'
p373
sg14
S'13'
p374
sg16
S'--'
p375
sg17
S'11/30'
p376
sg19
S'--'
p377
sg20
S'Will Johnson'
p378
sg22
S'--'
p379
sg23
S'L32-35'
p380
sg24
S'--'
p381
sg25
S'--'
p382
sg26
S'NO'
p383
sg27
S'--'
p384
sg28
S'--'
p385
sg29
S'--'
p386
ssg72
(dp387
g5
g6
sg7
g6
sg8
g6
sg9
g6
sg10
g6
sg11
g6
sg12
S'2014'
p388
sg14
S'12'
p389
sg16
g6
sg17
S'Bye'
p390
sg19
g6
sg20
S'Will Johnson'
p391
sg22
g6
sg23
g6
sg24
g6
sg25
g6
sg26
g6
sg27
g6
sg28
g6
sg29
g6
ssg91
(dp392
g5
S'--'
p393
sg7
S'--'
p394
sg8
g36
sg9
S'--'
p395
sg10
g36
sg11
S'--'
p396
sg12
S'2014'
p397
sg14
S'15'
p398
sg16
S'--'
p399
sg17
S'12/14'
p400
sg19
S'--'
p401
sg20
S'Will Johnson'
p402
sg22
S'--'
p403
sg23
S'W27-20'
p404
sg24
S'--'
p405
sg25
S'--'
p406
sg26
S'@ATL'
p407
sg27
S'--'
p408
sg28
S'--'
p409
sg29
S'--'
p410
ssg111
(dp411
g5
S'--'
p412
sg7
S'--'
p413
sg8
g36
sg9
S'--'
p414
sg10
g36
sg11
S'--'
p415
sg12
S'2014'
p416
sg14
S'14'
p417
sg16
S'--'
p418
sg17
S'12/07'
p419
sg19
S'--'
p420
sg20
S'Will Johnson'
p421
sg22
S'--'
p422
sg23
S'W42-21'
p423
sg24
S'--'
p424
sg25
S'--'
p425
sg26
S'@CIN'
p426
sg27
S'--'
p427
sg28
S'--'
p428
sg29
S'--'
p429
ssg131
(dp430
g5
S'11.0'
p431
sg7
S'--'
p432
sg8
g34
sg9
S'--'
p433
sg10
g36
sg11
g34
sg12
S'2014'
p434
sg14
S'17'
p435
sg16
S'--'
p436
sg17
S'12/28'
p437
sg19
S'--'
p438
sg20
S'Will Johnson'
p439
sg22
S'--'
p440
sg23
S'W27-17'
p441
sg24
S'11'
p442
sg25
g36
sg26
S'CIN'
p443
sg27
S'11'
p444
sg28
S'--'
p445
sg29
S'--'
p446
ssg151
(dp447
g5
S'--'
p448
sg7
S'--'
p449
sg8
g36
sg9
S'--'
p450
sg10
g36
sg11
S'--'
p451
sg12
S'2014'
p452
sg14
S'16'
p453
sg16
S'--'
p454
sg17
S'12/21'
p455
sg19
S'--'
p456
sg20
S'Will Johnson'
p457
sg22
S'--'
p458
sg23
S'W20-12'
p459
sg24
S'--'
p460
sg25
S'--'
p461
sg26
S'KC'
p462
sg27
S'--'
p463
sg28
S'--'
p464
sg29
S'--'
p465
ssg36
(dp466
g5
S'--'
p467
sg7
S'--'
p468
sg8
g34
sg9
S'--'
p469
sg10
g36
sg11
g34
sg12
S'2014'
p470
sg14
g36
sg16
S'--'
p471
sg17
S'09/07'
p472
sg19
S'--'
p473
sg20
S'Will Johnson'
p474
sg22
S'--'
p475
sg23
S'W30-27'
p476
sg24
g34
sg25
g34
sg26
S'CLE'
p477
sg27
S'--'
p478
sg28
S'--'
p479
sg29
S'--'
p480
ssg185
(dp481
g5
S'--'
p482
sg7
S'--'
p483
sg8
g34
sg9
S'--'
p484
sg10
g36
sg11
g34
sg12
S'2014'
p485
sg14
g185
sg16
S'--'
p486
sg17
S'09/21'
p487
sg19
S'--'
p488
sg20
S'Will Johnson'
p489
sg22
S'--'
p490
sg23
S'W37-19'
p491
sg24
g34
sg25
g34
sg26
S'@CAR'
p492
sg27
S'--'
p493
sg28
S'--'
p494
sg29
S'--'
p495
ssg86
(dp496
g5
S'--'
p497
sg7
S'--'
p498
sg8
g36
sg9
S'--'
p499
sg10
g36
sg11
S'--'
p500
sg12
S'2014'
p501
sg14
g86
sg16
S'--'
p502
sg17
S'09/11'
p503
sg19
S'--'
p504
sg20
S'Will Johnson'
p505
sg22
S'--'
p506
sg23
S'L6-26'
p507
sg24
S'--'
p508
sg25
S'--'
p509
sg26
S'@BAL'
p510
sg27
S'--'
p511
sg28
S'--'
p512
sg29
S'--'
p513
ssg222
(dp514
g5
S'12.0'
p515
sg7
S'--'
p516
sg8
g34
sg9
S'--'
p517
sg10
g36
sg11
g34
sg12
S'2014'
p518
sg14
g222
sg16
S'0.0'
p519
sg17
S'10/05'
p520
sg19
g34
sg20
S'Will Johnson'
p521
sg22
g36
sg23
S'W17-9'
p522
sg24
S'12'
p523
sg25
g36
sg26
S'@JAC'
p524
sg27
S'12'
p525
sg28
g34
sg29
g34
ssg177
(dp526
g5
S'--'
p527
sg7
S'--'
p528
sg8
g36
sg9
S'--'
p529
sg10
g36
sg11
g34
sg12
S'2014'
p530
sg14
g177
sg16
S'0.0'
p531
sg17
S'09/28'
p532
sg19
g34
sg20
S'Will Johnson'
p533
sg22
g36
sg23
S'L24-27'
p534
sg24
g34
sg25
g34
sg26
S'TB'
p535
sg27
S'--'
p536
sg28
g34
sg29
g34
ssg183
(dp537
g5
S'--'
p538
sg7
S'--'
p539
sg8
g34
sg9
S'--'
p540
sg10
g36
sg11
g34
sg12
S'2014'
p541
sg14
g183
sg16
S'--'
p542
sg17
S'10/20'
p543
sg19
S'--'
p544
sg20
S'Will Johnson'
p545
sg22
S'--'
p546
sg23
S'W30-23'
p547
sg24
g34
sg25
g34
sg26
S'HOU'
p548
sg27
S'--'
p549
sg28
S'--'
p550
sg29
S'--'
p551
ssg184
(dp552
g5
S'--'
p553
sg7
S'--'
p554
sg8
g34
sg9
S'--'
p555
sg10
g36
sg11
S'--'
p556
sg12
S'2014'
p557
sg14
g184
sg16
S'--'
p558
sg17
S'10/12'
p559
sg19
S'--'
p560
sg20
S'Will Johnson'
p561
sg22
S'--'
p562
sg23
S'L10-31'
p563
sg24
S'--'
p564
sg25
S'--'
p565
sg26
S'@CLE'
p566
sg27
S'--'
p567
sg28
S'--'
p568
sg29
S'--'
p569
ssg295
(dp570
g5
S'1.0'
p571
sg7
S'--'
p572
sg8
g34
sg9
S'--'
p573
sg10
g36
sg11
g34
sg12
S'2014'
p574
sg14
g295
sg16
S'--'
p575
sg17
S'11/02'
p576
sg19
S'--'
p577
sg20
S'Will Johnson'
p578
sg22
S'--'
p579
sg23
S'W43-23'
p580
sg24
g36
sg25
g36
sg26
S'BAL'
p581
sg27
g36
sg28
S'--'
p582
sg29
S'--'
p583
ssg314
(dp584
g5
S'11.0'
p585
sg7
S'--'
p586
sg8
g34
sg9
S'--'
p587
sg10
g36
sg11
g34
sg12
S'2014'
p588
sg14
g314
sg16
S'--'
p589
sg17
S'10/26'
p590
sg19
S'--'
p591
sg20
S'Will Johnson'
p592
sg22
S'--'
p593
sg23
S'W51-34'
p594
sg24
S'22'
p595
sg25
g86
sg26
S'IND'
p596
sg27
S'18'
p597
sg28
S'--'
p598
sg29
S'--'
p599
sssS'2013'
p600
(dp601
g3
(dp602
g5
S'1.0'
p603
sg7
S'--'
p604
sg8
g34
sg9
S'--'
p605
sg10
g36
sg11
g36
sg12
S'2013'
p606
sg14
S'11'
p607
sg16
S'--'
p608
sg17
S'11/17'
p609
sg19
S'--'
p610
sg20
S'Will Johnson'
p611
sg22
S'--'
p612
sg23
S'W37-27'
p613
sg24
g36
sg25
g36
sg26
S'DET'
p614
sg27
S'1T'
p615
sg28
S'--'
p616
sg29
S'--'
p617
ssg30
(dp618
g5
S'--'
p619
sg7
S'--'
p620
sg8
g36
sg9
S'--'
p621
sg10
g36
sg11
S'--'
p622
sg12
S'2013'
p623
sg14
S'10'
p624
sg16
S'--'
p625
sg17
S'11/10'
p626
sg19
S'--'
p627
sg20
S'Will Johnson'
p628
sg22
S'--'
p629
sg23
S'W23-10'
p630
sg24
S'--'
p631
sg25
S'--'
p632
sg26
S'BUF'
p633
sg27
S'--'
p634
sg28
S'--'
p635
sg29
S'--'
p636
ssg52
(dp637
g5
S'--'
p638
sg7
S'--'
p639
sg8
g36
sg9
S'--'
p640
sg10
g36
sg11
g34
sg12
S'2013'
p641
sg14
S'13'
p642
sg16
S'--'
p643
sg17
S'11/28'
p644
sg19
S'--'
p645
sg20
S'Will Johnson'
p646
sg22
S'--'
p647
sg23
S'L20-22'
p648
sg24
g34
sg25
g34
sg26
S'@BAL'
p649
sg27
S'--'
p650
sg28
S'--'
p651
sg29
S'--'
p652
ssg72
(dp653
g5
S'9.0'
p654
sg7
S'--'
p655
sg8
g34
sg9
S'--'
p656
sg10
g36
sg11
g34
sg12
S'2013'
p657
sg14
S'12'
p658
sg16
S'--'
p659
sg17
S'11/24'
p660
sg19
S'--'
p661
sg20
S'Will Johnson'
p662
sg22
S'--'
p663
sg23
S'W27-11'
p664
sg24
g295
sg25
g36
sg26
S'@CLE'
p665
sg27
g295
sg28
S'--'
p666
sg29
S'--'
p667
ssg91
(dp668
g5
S'--'
p669
sg7
S'--'
p670
sg8
g34
sg9
S'--'
p671
sg10
g36
sg11
S'--'
p672
sg12
S'2013'
p673
sg14
S'15'
p674
sg16
S'--'
p675
sg17
S'12/15'
p676
sg19
S'--'
p677
sg20
S'Will Johnson'
p678
sg22
S'--'
p679
sg23
S'W30-20'
p680
sg24
S'--'
p681
sg25
S'--'
p682
sg26
S'CIN'
p683
sg27
S'--'
p684
sg28
S'--'
p685
sg29
S'--'
p686
ssg111
(dp687
g5
S'9.0'
p688
sg7
S'--'
p689
sg8
g34
sg9
S'--'
p690
sg10
g36
sg11
g34
sg12
S'2013'
p691
sg14
S'14'
p692
sg16
S'--'
p693
sg17
S'12/08'
p694
sg19
S'--'
p695
sg20
S'Will Johnson'
p696
sg22
S'--'
p697
sg23
S'L28-34'
p698
sg24
g295
sg25
g36
sg26
S'MIA'
p699
sg27
g295
sg28
S'--'
p700
sg29
S'--'
p701
ssg131
(dp702
g5
S'9.0'
p703
sg7
S'--'
p704
sg8
g34
sg9
S'--'
p705
sg10
g36
sg11
g34
sg12
S'2013'
p706
sg14
S'17'
p707
sg16
S'--'
p708
sg17
S'12/29'
p709
sg19
S'--'
p710
sg20
S'Will Johnson'
p711
sg22
S'--'
p712
sg23
S'W20-7'
p713
sg24
g295
sg25
g36
sg26
S'CLE'
p714
sg27
g295
sg28
S'--'
p715
sg29
S'--'
p716
ssg151
(dp717
g5
S'6.0'
p718
sg7
S'--'
p719
sg8
g34
sg9
S'--'
p720
sg10
g36
sg11
g34
sg12
S'2013'
p721
sg14
S'16'
p722
sg16
S'--'
p723
sg17
S'12/22'
p724
sg19
S'--'
p725
sg20
S'Will Johnson'
p726
sg22
S'--'
p727
sg23
S'W38-31'
p728
sg24
g184
sg25
g36
sg26
S'@GB'
p729
sg27
g184
sg28
S'--'
p730
sg29
S'--'
p731
ssg36
(dp732
g5
S'--'
p733
sg7
S'--'
p734
sg8
g34
sg9
S'--'
p735
sg10
g34
sg11
S'--'
p736
sg12
S'2013'
p737
sg14
g36
sg16
S'--'
p738
sg17
S'09/08'
p739
sg19
S'--'
p740
sg20
S'Will Johnson'
p741
sg22
S'--'
p742
sg23
S'L9-16'
p743
sg24
S'--'
p744
sg25
S'--'
p745
sg26
S'TEN'
p746
sg27
S'--'
p747
sg28
S'--'
p748
sg29
S'--'
p749
ssg185
(dp750
g5
S'5.0'
p751
sg7
S'--'
p752
sg8
g36
sg9
S'--'
p753
sg10
g36
sg11
g34
sg12
S'2013'
p754
sg14
g185
sg16
S'--'
p755
sg17
S'09/22'
p756
sg19
S'--'
p757
sg20
S'Will Johnson'
p758
sg22
S'--'
p759
sg23
S'L23-40'
p760
sg24
g222
sg25
g36
sg26
S'CHI'
p761
sg27
g222
sg28
S'--'
p762
sg29
S'--'
p763
ssg86
(dp764
g5
S'--'
p765
sg7
S'--'
p766
sg8
g34
sg9
S'--'
p767
sg10
g36
sg11
S'--'
p768
sg12
S'2013'
p769
sg14
g86
sg16
S'--'
p770
sg17
S'09/16'
p771
sg19
S'--'
p772
sg20
S'Will Johnson'
p773
sg22
S'--'
p774
sg23
S'L10-20'
p775
sg24
S'--'
p776
sg25
S'--'
p777
sg26
S'@CIN'
p778
sg27
S'--'
p779
sg28
S'--'
p780
sg29
S'--'
p781
ssg222
(dp782
g5
g6
sg7
g6
sg8
g6
sg9
g6
sg10
g6
sg11
g6
sg12
S'2013'
p783
sg14
g222
sg16
g6
sg17
S'Bye'
p784
sg19
g6
sg20
S'Will Johnson'
p785
sg22
g6
sg23
g6
sg24
g6
sg25
g6
sg26
g6
sg27
g6
sg28
g6
sg29
g6
ssg177
(dp786
g5
S'--'
p787
sg7
S'--'
p788
sg8
g36
sg9
S'--'
p789
sg10
g36
sg11
S'--'
p790
sg12
S'2013'
p791
sg14
g177
sg16
S'--'
p792
sg17
S'09/29'
p793
sg19
S'--'
p794
sg20
S'Will Johnson'
p795
sg22
S'--'
p796
sg23
S'L27-34'
p797
sg24
S'--'
p798
sg25
S'--'
p799
sg26
S'@MIN'
p800
sg27
S'--'
p801
sg28
S'--'
p802
sg29
S'--'
p803
ssg183
(dp804
g5
S'--'
p805
sg7
S'--'
p806
sg8
g36
sg9
S'--'
p807
sg10
g36
sg11
g34
sg12
S'2013'
p808
sg14
g183
sg16
S'--'
p809
sg17
S'10/20'
p810
sg19
S'--'
p811
sg20
S'Will Johnson'
p812
sg22
S'--'
p813
sg23
S'W19-16'
p814
sg24
g34
sg25
g34
sg26
S'BAL'
p815
sg27
S'--'
p816
sg28
S'--'
p817
sg29
S'--'
p818
ssg184
(dp819
g5
S'1.0'
p820
sg7
S'--'
p821
sg8
g34
sg9
S'--'
p822
sg10
g36
sg11
g34
sg12
S'2013'
p823
sg14
g184
sg16
S'--'
p824
sg17
S'10/13'
p825
sg19
S'--'
p826
sg20
S'Will Johnson'
p827
sg22
S'--'
p828
sg23
S'W19-6'
p829
sg24
g86
sg25
g86
sg26
S'@NYJ'
p830
sg27
g86
sg28
S'--'
p831
sg29
S'--'
p832
ssg295
(dp833
g5
S'--'
p834
sg7
S'--'
p835
sg8
g34
sg9
S'--'
p836
sg10
g36
sg11
S'--'
p837
sg12
S'2013'
p838
sg14
g295
sg16
S'--'
p839
sg17
S'11/03'
p840
sg19
S'--'
p841
sg20
S'Will Johnson'
p842
sg22
S'--'
p843
sg23
S'L31-55'
p844
sg24
S'--'
p845
sg25
S'--'
p846
sg26
S'@NE'
p847
sg27
S'--'
p848
sg28
S'--'
p849
sg29
S'--'
p850
ssg314
(dp851
g5
S'--'
p852
sg7
S'--'
p853
sg8
g34
sg9
S'--'
p854
sg10
g36
sg11
S'--'
p855
sg12
S'2013'
p856
sg14
g314
sg16
S'--'
p857
sg17
S'10/27'
p858
sg19
S'--'
p859
sg20
S'Will Johnson'
p860
sg22
S'--'
p861
sg23
S'L18-21'
p862
sg24
S'--'
p863
sg25
S'--'
p864
sg26
S'@OAK'
p865
sg27
S'--'
p866
sg28
S'--'
p867
sg29
S'--'
p868
sssS'2012'
p869
(dp870
g3
(dp871
g5
S'--'
p872
sg7
S'--'
p873
sg8
g36
sg9
S'--'
p874
sg10
g36
sg11
g34
sg12
S'2012'
p875
sg14
S'11'
p876
sg16
S'--'
p877
sg17
S'11/18'
p878
sg19
S'--'
p879
sg20
S'Will Johnson'
p880
sg22
S'--'
p881
sg23
S'L10-13'
p882
sg24
g34
sg25
g34
sg26
S'BAL'
p883
sg27
S'--'
p884
sg28
S'--'
p885
sg29
S'--'
p886
ssg30
(dp887
g5
S'7.0'
p888
sg7
S'--'
p889
sg8
g36
sg9
S'--'
p890
sg10
g36
sg11
g34
sg12
S'2012'
p891
sg14
S'10'
p892
sg16
S'--'
p893
sg17
S'11/12'
p894
sg19
S'--'
p895
sg20
S'Will Johnson'
p896
sg22
S'--'
p897
sg23
S'W16-13'
p898
sg24
g183
sg25
g36
sg26
S'KC'
p899
sg27
g183
sg28
S'--'
p900
sg29
S'--'
p901
ssg52
(dp902
g5
S'4.5'
p903
sg7
S'--'
p904
sg8
g34
sg9
S'--'
p905
sg10
g36
sg11
g34
sg12
S'2012'
p906
sg14
S'13'
p907
sg16
S'--'
p908
sg17
S'12/02'
p909
sg19
S'--'
p910
sg20
S'Will Johnson'
p911
sg22
S'--'
p912
sg23
S'W23-20'
p913
sg24
g295
sg25
g86
sg26
S'@BAL'
p914
sg27
g184
sg28
S'--'
p915
sg29
S'--'
p916
ssg72
(dp917
g5
S'13.0'
p918
sg7
S'--'
p919
sg8
g34
sg9
S'--'
p920
sg10
g36
sg11
g34
sg12
S'2012'
p921
sg14
S'12'
p922
sg16
S'--'
p923
sg17
S'11/25'
p924
sg19
S'--'
p925
sg20
S'Will Johnson'
p926
sg22
S'--'
p927
sg23
S'L14-20'
p928
sg24
S'13'
p929
sg25
g36
sg26
S'@CLE'
p930
sg27
S'13'
p931
sg28
S'--'
p932
sg29
S'--'
p933
ssg91
(dp934
g5
S'17.0'
p935
sg7
S'--'
p936
sg8
g34
sg9
S'--'
p937
sg10
g36
sg11
g34
sg12
S'2012'
p938
sg14
S'15'
p939
sg16
S'--'
p940
sg17
S'12/16'
p941
sg19
S'--'
p942
sg20
S'Will Johnson'
p943
sg22
S'--'
p944
sg23
S'L24-27'
p945
sg24
S'34'
p946
sg25
g86
sg26
S'@DAL'
p947
sg27
S'21'
p948
sg28
S'--'
p949
sg29
S'--'
p950
ssg111
(dp951
g5
S'--'
p952
sg7
S'--'
p953
sg8
g34
sg9
S'--'
p954
sg10
g36
sg11
S'--'
p955
sg12
S'2012'
p956
sg14
S'14'
p957
sg16
S'--'
p958
sg17
S'12/09'
p959
sg19
S'--'
p960
sg20
S'Will Johnson'
p961
sg22
S'--'
p962
sg23
S'L24-34'
p963
sg24
S'--'
p964
sg25
S'--'
p965
sg26
S'SD'
p966
sg27
S'--'
p967
sg28
S'--'
p968
sg29
S'--'
p969
ssg131
(dp970
g5
S'8.5'
p971
sg7
S'--'
p972
sg8
g36
sg9
S'--'
p973
sg10
g36
sg11
g34
sg12
S'2012'
p974
sg14
S'17'
p975
sg16
S'--'
p976
sg17
S'12/30'
p977
sg19
S'--'
p978
sg20
S'Will Johnson'
p979
sg22
S'--'
p980
sg23
S'W24-10'
p981
sg24
S'17'
p982
sg25
g86
sg26
S'CLE'
p983
sg27
g295
sg28
S'--'
p984
sg29
S'--'
p985
ssg151
(dp986
g5
S'--'
p987
sg7
S'--'
p988
sg8
g36
sg9
S'--'
p989
sg10
g36
sg11
S'--'
p990
sg12
S'2012'
p991
sg14
S'16'
p992
sg16
S'--'
p993
sg17
S'12/23'
p994
sg19
S'--'
p995
sg20
S'Will Johnson'
p996
sg22
S'--'
p997
sg23
S'L10-13'
p998
sg24
S'--'
p999
sg25
S'--'
p1000
sg26
S'CIN'
p1001
sg27
S'--'
p1002
sg28
S'--'
p1003
sg29
S'--'
p1004
ssg36
(dp1005
g5
S'12.0'
p1006
sg7
S'--'
p1007
sg8
g36
sg9
S'--'
p1008
sg10
g36
sg11
g34
sg12
S'2012'
p1009
sg14
g36
sg16
S'--'
p1010
sg17
S'09/09'
p1011
sg19
S'--'
p1012
sg20
S'Will Johnson'
p1013
sg22
S'--'
p1014
sg23
S'L19-31'
p1015
sg24
S'12'
p1016
sg25
g36
sg26
S'@DEN'
p1017
sg27
S'12'
p1018
sg28
S'--'
p1019
sg29
S'--'
p1020
ssg185
(dp1021
g5
S'4.0'
p1022
sg7
S'--'
p1023
sg8
g34
sg9
S'--'
p1024
sg10
g36
sg11
g34
sg12
S'2012'
p1025
sg14
g185
sg16
S'--'
p1026
sg17
S'09/23'
p1027
sg19
S'--'
p1028
sg20
S'Will Johnson'
p1029
sg22
S'--'
p1030
sg23
S'L31-34'
p1031
sg24
g177
sg25
g36
sg26
S'@OAK'
p1032
sg27
g177
sg28
S'--'
p1033
sg29
S'--'
p1034
ssg86
(dp1035
g5
S'26.0'
p1036
sg7
S'--'
p1037
sg8
g34
sg9
S'--'
p1038
sg10
g36
sg11
g34
sg12
S'2012'
p1039
sg14
g86
sg16
S'--'
p1040
sg17
S'09/16'
p1041
sg19
S'--'
p1042
sg20
S'Will Johnson'
p1043
sg22
S'--'
p1044
sg23
S'W27-10'
p1045
sg24
S'26'
p1046
sg25
g36
sg26
S'NYJ'
p1047
sg27
S'26'
p1048
sg28
S'--'
p1049
sg29
S'--'
p1050
ssg222
(dp1051
g5
S'--'
p1052
sg7
S'--'
p1053
sg8
g34
sg9
S'--'
p1054
sg10
g36
sg11
S'--'
p1055
sg12
S'2012'
p1056
sg14
g222
sg16
S'--'
p1057
sg17
S'10/07'
p1058
sg19
S'--'
p1059
sg20
S'Will Johnson'
p1060
sg22
S'--'
p1061
sg23
S'W16-14'
p1062
sg24
S'--'
p1063
sg25
S'--'
p1064
sg26
S'PHI'
p1065
sg27
S'--'
p1066
sg28
S'--'
p1067
sg29
S'--'
p1068
ssg177
(dp1069
g5
g6
sg7
g6
sg8
g6
sg9
g6
sg10
g6
sg11
g6
sg12
S'2012'
p1070
sg14
g177
sg16
g6
sg17
S'Bye'
p1071
sg19
g6
sg20
S'Will Johnson'
p1072
sg22
g6
sg23
g6
sg24
g6
sg25
g6
sg26
g6
sg27
g6
sg28
g6
sg29
g6
ssg183
(dp1073
g5
S'2.0'
p1074
sg7
S'--'
p1075
sg8
g34
sg9
S'--'
p1076
sg10
g36
sg11
g34
sg12
S'2012'
p1077
sg14
g183
sg16
S'5.0'
p1078
sg17
S'10/21'
p1079
sg19
g34
sg20
S'Will Johnson'
p1080
sg22
g36
sg23
S'W24-17'
p1081
sg24
g86
sg25
g36
sg26
S'@CIN'
p1082
sg27
g86
sg28
g222
sg29
g222
ssg184
(dp1083
g5
S'--'
p1084
sg7
S'--'
p1085
sg8
g36
sg9
S'--'
p1086
sg10
g36
sg11
g34
sg12
S'2012'
p1087
sg14
g184
sg16
S'--'
p1088
sg17
S'10/11'
p1089
sg19
S'--'
p1090
sg20
S'Will Johnson'
p1091
sg22
S'--'
p1092
sg23
S'L23-26'
p1093
sg24
g34
sg25
g34
sg26
S'@TEN'
p1094
sg27
S'--'
p1095
sg28
S'--'
p1096
sg29
S'--'
p1097
ssg295
(dp1098
g5
S'5.0'
p1099
sg7
S'--'
p1100
sg8
g36
sg9
S'--'
p1101
sg10
g36
sg11
g34
sg12
S'2012'
p1102
sg14
g295
sg16
S'2.0'
p1103
sg17
S'11/04'
p1104
sg19
g34
sg20
S'Will Johnson'
p1105
sg22
g36
sg23
S'W24-20'
p1106
sg24
g222
sg25
g36
sg26
S'@NYG'
p1107
sg27
g222
sg28
g86
sg29
g86
ssg314
(dp1108
g5
S'4.0'
p1109
sg7
S'--'
p1110
sg8
g34
sg9
S'--'
p1111
sg10
g36
sg11
g36
sg12
S'2012'
p1112
sg14
g314
sg16
S'--'
p1113
sg17
S'10/28'
p1114
sg19
S'--'
p1115
sg20
S'Will Johnson'
p1116
sg22
S'--'
p1117
sg23
S'W27-12'
p1118
sg24
g314
sg25
g86
sg26
S'WAS'
p1119
sg27
g183
sg28
S'--'
p1120
sg29
S'--'
p1121
sss.