(dp0
S'2015'
p1
(dp2
S'10'
p3
(dp4
S'RecAvg'
p5
S'--'
p6
sS'FUM'
p7
S'--'
p8
sS'GS'
p9
S'0'
p10
sS'Lost'
p11
S'--'
p12
sS'G'
p13
S'1'
p14
sS'RecTD'
p15
S'--'
p16
sS'Year'
p17
S'2015'
p18
sS'WK'
p19
S'10'
p20
sS'RushAvg'
p21
S'--'
p22
sS'Game Date'
p23
S'11/12'
p24
sS'RushTD'
p25
S'--'
p26
sS'Player'
p27
S'Zac Stacy'
p28
sS'RushAtt'
p29
S'--'
p30
sS'Result'
p31
S'L17-22'
p32
sS'RecYds'
p33
S'--'
p34
sS'Rec'
p35
S'--'
p36
sS'Opp'
p37
S'BUF'
p38
sS'RecLng'
p39
S'--'
p40
sS'RushYds'
p41
S'--'
p42
sS'RushLng'
p43
S'--'
p44
ssg14
(dp45
g5
S'--'
p46
sg7
S'--'
p47
sg9
g10
sg11
S'--'
p48
sg13
g10
sg15
S'--'
p49
sg17
S'2015'
p50
sg19
g14
sg21
S'--'
p51
sg23
S'09/13'
p52
sg25
S'--'
p53
sg27
S'Zac Stacy'
p54
sg29
S'--'
p55
sg31
S'W31-10'
p56
sg33
S'--'
p57
sg35
S'--'
p58
sg37
S'CLE'
p59
sg39
S'--'
p60
sg41
S'--'
p61
sg43
S'--'
p62
ssS'3'
p63
(dp64
g5
S'-1.0'
p65
sg7
S'--'
p66
sg9
g10
sg11
S'--'
p67
sg13
g14
sg15
g10
sg17
S'2015'
p68
sg19
g63
sg21
S'1.5'
p69
sg23
S'09/27'
p70
sg25
g10
sg27
S'Zac Stacy'
p71
sg29
S'2'
p72
sg31
S'L17-24'
p73
sg33
S'-2'
p74
sg35
g72
sg37
S'PHI'
p75
sg39
g63
sg41
g63
sg43
g72
ssg72
(dp76
g5
S'--'
p77
sg7
S'--'
p78
sg9
g10
sg11
S'--'
p79
sg13
g14
sg15
S'--'
p80
sg17
S'2015'
p81
sg19
g72
sg21
S'--'
p82
sg23
S'09/21'
p83
sg25
S'--'
p84
sg27
S'Zac Stacy'
p85
sg29
S'--'
p86
sg31
S'W20-7'
p87
sg33
S'--'
p88
sg35
S'--'
p89
sg37
S'@IND'
p90
sg39
S'--'
p91
sg41
S'--'
p92
sg43
S'--'
p93
ssS'5'
p94
(dp95
g5
S''
p96
sg7
g96
sg9
g96
sg11
g96
sg13
g96
sg15
g96
sg17
S'2015'
p97
sg19
g94
sg21
g96
sg23
S'Bye'
p98
sg25
g96
sg27
S'Zac Stacy'
p99
sg29
g96
sg31
g96
sg33
g96
sg35
g96
sg37
g96
sg39
g96
sg41
g96
sg43
g96
ssS'4'
p100
(dp101
g5
S'9.0'
p102
sg7
S'--'
p103
sg9
g10
sg11
S'--'
p104
sg13
g14
sg15
g10
sg17
S'2015'
p105
sg19
g100
sg21
S'1.4'
p106
sg23
S'10/04'
p107
sg25
g14
sg27
S'Zac Stacy'
p108
sg29
g94
sg31
S'W27-14'
p109
sg33
S'18'
p110
sg35
g72
sg37
S'@MIA'
p111
sg39
S'12'
p112
sg41
S'7'
p113
sg43
S'11'
p114
ssg113
(dp115
g5
S'11.0'
p116
sg7
S'--'
p117
sg9
g10
sg11
S'--'
p118
sg13
g14
sg15
g10
sg17
S'2015'
p119
sg19
g113
sg21
S'2.7'
p120
sg23
S'10/25'
p121
sg25
g10
sg27
S'Zac Stacy'
p122
sg29
g113
sg31
S'L23-30'
p123
sg33
S'11'
p124
sg35
g14
sg37
S'@NE'
p125
sg39
S'11'
p126
sg41
S'19'
p127
sg43
S'6'
p128
ssg128
(dp129
g5
S'7.5'
p130
sg7
S'--'
p131
sg9
g10
sg11
S'--'
p132
sg13
g14
sg15
g10
sg17
S'2015'
p133
sg19
g128
sg21
S'3.5'
p134
sg23
S'10/18'
p135
sg25
g10
sg27
S'Zac Stacy'
p136
sg29
S'13'
p137
sg31
S'W34-20'
p138
sg33
S'15'
p139
sg35
g72
sg37
S'WAS'
p140
sg39
S'12'
p141
sg41
S'46'
p142
sg43
S'18'
p143
ssS'9'
p144
(dp145
g5
S'16.0'
p146
sg7
S'--'
p147
sg9
g10
sg11
S'--'
p148
sg13
g14
sg15
g10
sg17
S'2015'
p149
sg19
g144
sg21
S'3.0'
p150
sg23
S'11/08'
p151
sg25
g10
sg27
S'Zac Stacy'
p152
sg29
g14
sg31
S'W28-23'
p153
sg33
S'16'
p154
sg35
g14
sg37
S'JAC'
p155
sg39
S'16'
p156
sg41
g63
sg43
g63
ssS'8'
p157
(dp158
g5
S'7.0'
p159
sg7
S'--'
p160
sg9
g10
sg11
S'--'
p161
sg13
g14
sg15
g10
sg17
S'2015'
p162
sg19
g157
sg21
S'3.7'
p163
sg23
S'11/01'
p164
sg25
g10
sg27
S'Zac Stacy'
p165
sg29
g63
sg31
S'L20-34'
p166
sg33
g113
sg35
g14
sg37
S'@OAK'
p167
sg39
g113
sg41
S'11'
p168
sg43
g128
sssS'2014'
p169
(dp170
S'11'
p171
(dp172
g5
S'--'
p173
sg7
S'--'
p174
sg9
g10
sg11
S'--'
p175
sg13
g10
sg15
S'--'
p176
sg17
S'2014'
p177
sg19
S'11'
p178
sg21
S'--'
p179
sg23
S'11/16'
p180
sg25
S'--'
p181
sg27
S'Zac Stacy'
p182
sg29
S'--'
p183
sg31
S'W22-7'
p184
sg33
S'--'
p185
sg35
S'--'
p186
sg37
S'DEN'
p187
sg39
S'--'
p188
sg41
S'--'
p189
sg43
S'--'
p190
ssg3
(dp191
g5
S'--'
p192
sg7
S'--'
p193
sg9
g10
sg11
S'--'
p194
sg13
g14
sg15
S'--'
p195
sg17
S'2014'
p196
sg19
S'10'
p197
sg21
S'--'
p198
sg23
S'11/09'
p199
sg25
S'--'
p200
sg27
S'Zac Stacy'
p201
sg29
S'--'
p202
sg31
S'L14-31'
p203
sg33
S'--'
p204
sg35
S'--'
p205
sg37
S'@ARI'
p206
sg39
S'--'
p207
sg41
S'--'
p208
sg43
S'--'
p209
ssS'13'
p210
(dp211
g5
S'--'
p212
sg7
S'--'
p213
sg9
g10
sg11
S'--'
p214
sg13
g14
sg15
S'--'
p215
sg17
S'2014'
p216
sg19
S'13'
p217
sg21
S'4.5'
p218
sg23
S'11/30'
p219
sg25
g10
sg27
S'Zac Stacy'
p220
sg29
g128
sg31
S'W52-0'
p221
sg33
S'--'
p222
sg35
S'--'
p223
sg37
S'OAK'
p224
sg39
S'--'
p225
sg41
S'27'
p226
sg43
S'11'
p227
ssS'12'
p228
(dp229
g5
S'--'
p230
sg7
S'--'
p231
sg9
g10
sg11
S'--'
p232
sg13
g14
sg15
S'--'
p233
sg17
S'2014'
p234
sg19
S'12'
p235
sg21
S'--'
p236
sg23
S'11/23'
p237
sg25
S'--'
p238
sg27
S'Zac Stacy'
p239
sg29
S'--'
p240
sg31
S'L24-27'
p241
sg33
S'--'
p242
sg35
S'--'
p243
sg37
S'@SD'
p244
sg39
S'--'
p245
sg41
S'--'
p246
sg43
S'--'
p247
ssS'15'
p248
(dp249
g5
S'--'
p250
sg7
S'--'
p251
sg9
g10
sg11
S'--'
p252
sg13
g10
sg15
S'--'
p253
sg17
S'2014'
p254
sg19
S'15'
p255
sg21
S'--'
p256
sg23
S'12/11'
p257
sg25
S'--'
p258
sg27
S'Zac Stacy'
p259
sg29
S'--'
p260
sg31
S'L6-12'
p261
sg33
S'--'
p262
sg35
S'--'
p263
sg37
S'ARI'
p264
sg39
S'--'
p265
sg41
S'--'
p266
sg43
S'--'
p267
ssS'14'
p268
(dp269
g5
S'--'
p270
sg7
S'--'
p271
sg9
g10
sg11
S'--'
p272
sg13
g14
sg15
S'--'
p273
sg17
S'2014'
p274
sg19
S'14'
p275
sg21
S'--'
p276
sg23
S'12/07'
p277
sg25
S'--'
p278
sg27
S'Zac Stacy'
p279
sg29
S'--'
p280
sg31
S'W24-0'
p281
sg33
S'--'
p282
sg35
S'--'
p283
sg37
S'@WAS'
p284
sg39
S'--'
p285
sg41
S'--'
p286
sg43
S'--'
p287
ssS'17'
p288
(dp289
g5
S'5.7'
p290
sg7
S'--'
p291
sg9
g10
sg11
S'--'
p292
sg13
g14
sg15
g10
sg17
S'2014'
p293
sg19
S'17'
p294
sg21
S'1.5'
p295
sg23
S'12/28'
p296
sg25
g10
sg27
S'Zac Stacy'
p297
sg29
g72
sg31
S'L6-20'
p298
sg33
S'17'
p299
sg35
g63
sg37
S'@SEA'
p300
sg39
g128
sg41
g63
sg43
g100
ssS'16'
p301
(dp302
g5
S'--'
p303
sg7
S'--'
p304
sg9
g10
sg11
S'--'
p305
sg13
g14
sg15
S'--'
p306
sg17
S'2014'
p307
sg19
S'16'
p308
sg21
S'3.0'
p309
sg23
S'12/21'
p310
sg25
g10
sg27
S'Zac Stacy'
p311
sg29
g72
sg31
S'L27-37'
p312
sg33
S'--'
p313
sg35
S'--'
p314
sg37
S'NYG'
p315
sg39
S'--'
p316
sg41
g128
sg43
g94
ssg14
(dp317
g5
S'8.0'
p318
sg7
S'--'
p319
sg9
g14
sg11
S'--'
p320
sg13
g14
sg15
g10
sg17
S'2014'
p321
sg19
g14
sg21
S'3.9'
p322
sg23
S'09/07'
p323
sg25
g10
sg27
S'Zac Stacy'
p324
sg29
S'11'
p325
sg31
S'L6-34'
p326
sg33
g157
sg35
g14
sg37
S'MIN'
p327
sg39
g157
sg41
S'43'
p328
sg43
g113
ssg63
(dp329
g5
S'10.8'
p330
sg7
S'--'
p331
sg9
g14
sg11
S'--'
p332
sg13
g14
sg15
g10
sg17
S'2014'
p333
sg19
g63
sg21
S'5.6'
p334
sg23
S'09/21'
p335
sg25
g10
sg27
S'Zac Stacy'
p336
sg29
S'12'
p337
sg31
S'L31-34'
p338
sg33
S'54'
p339
sg35
g94
sg37
S'DAL'
p340
sg39
S'17'
p341
sg41
S'67'
p342
sg43
S'16'
p343
ssg72
(dp344
g5
S'--'
p345
sg7
g14
sg9
g14
sg11
g14
sg13
g14
sg15
S'--'
p346
sg17
S'2014'
p347
sg19
g72
sg21
S'3.7'
p348
sg23
S'09/14'
p349
sg25
g14
sg27
S'Zac Stacy'
p350
sg29
S'19'
p351
sg31
S'W19-17'
p352
sg33
S'--'
p353
sg35
S'--'
p354
sg37
S'@TB'
p355
sg39
S'--'
p356
sg41
S'71'
p357
sg43
S'12'
p358
ssg94
(dp359
g5
S'9.0'
p360
sg7
g14
sg9
g14
sg11
g14
sg13
g14
sg15
g10
sg17
S'2014'
p361
sg19
g94
sg21
S'3.8'
p362
sg23
S'10/05'
p363
sg25
g10
sg27
S'Zac Stacy'
p364
sg29
S'11'
p365
sg31
S'L28-34'
p366
sg33
S'36'
p367
sg35
g100
sg37
S'@PHI'
p368
sg39
S'15'
p369
sg41
S'42'
p370
sg43
S'14'
p371
ssg100
(dp372
g5
g96
sg7
g96
sg9
g96
sg11
g96
sg13
g96
sg15
g96
sg17
S'2014'
p373
sg19
g100
sg21
g96
sg23
S'Bye'
p374
sg25
g96
sg27
S'Zac Stacy'
p375
sg29
g96
sg31
g96
sg33
g96
sg35
g96
sg37
g96
sg39
g96
sg41
g96
sg43
g96
ssg113
(dp376
g5
S'--'
p377
sg7
S'--'
p378
sg9
g10
sg11
S'--'
p379
sg13
g14
sg15
S'--'
p380
sg17
S'2014'
p381
sg19
g113
sg21
S'--'
p382
sg23
S'10/19'
p383
sg25
S'--'
p384
sg27
S'Zac Stacy'
p385
sg29
S'--'
p386
sg31
S'W28-26'
p387
sg33
S'--'
p388
sg35
S'--'
p389
sg37
S'SEA'
p390
sg39
S'--'
p391
sg41
S'--'
p392
sg43
S'--'
p393
ssg128
(dp394
g5
S'8.5'
p395
sg7
S'--'
p396
sg9
g14
sg11
S'--'
p397
sg13
g14
sg15
g10
sg17
S'2014'
p398
sg19
g128
sg21
S'2.1'
p399
sg23
S'10/13'
p400
sg25
g10
sg27
S'Zac Stacy'
p401
sg29
g157
sg31
S'L17-31'
p402
sg33
S'17'
p403
sg35
g72
sg37
S'SF'
p404
sg39
S'15'
p405
sg41
S'17'
p406
sg43
g128
ssg144
(dp407
g5
S'--'
p408
sg7
S'--'
p409
sg9
g10
sg11
S'--'
p410
sg13
g10
sg15
S'--'
p411
sg17
S'2014'
p412
sg19
g144
sg21
S'--'
p413
sg23
S'11/02'
p414
sg25
S'--'
p415
sg27
S'Zac Stacy'
p416
sg29
S'--'
p417
sg31
S'W13-10'
p418
sg33
S'--'
p419
sg35
S'--'
p420
sg37
S'@SF'
p421
sg39
S'--'
p422
sg41
S'--'
p423
sg43
S'--'
p424
ssg157
(dp425
g5
S'6.7'
p426
sg7
S'--'
p427
sg9
g10
sg11
S'--'
p428
sg13
g14
sg15
g10
sg17
S'2014'
p429
sg19
g157
sg21
S'3.4'
p430
sg23
S'10/26'
p431
sg25
g10
sg27
S'Zac Stacy'
p432
sg29
g94
sg31
S'L7-34'
p433
sg33
S'20'
p434
sg35
g63
sg37
S'@KC'
p435
sg39
g157
sg41
S'17'
p436
sg43
g144
sssS'2013'
p437
(dp438
g171
(dp439
g5
g96
sg7
g96
sg9
g96
sg11
g96
sg13
g96
sg15
g96
sg17
S'2013'
p440
sg19
S'11'
p441
sg21
g96
sg23
S'Bye'
p442
sg25
g96
sg27
S'Zac Stacy'
p443
sg29
g96
sg31
g96
sg33
g96
sg35
g96
sg37
g96
sg39
g96
sg41
g96
sg43
g96
ssg3
(dp444
g5
S'3.0'
p445
sg7
S'--'
p446
sg9
g14
sg11
S'--'
p447
sg13
g14
sg15
g10
sg17
S'2013'
p448
sg19
S'10'
p449
sg21
S'2.4'
p450
sg23
S'11/10'
p451
sg25
g14
sg27
S'Zac Stacy'
p452
sg29
S'26'
p453
sg31
S'W38-8'
p454
sg33
g128
sg35
g72
sg37
S'@IND'
p455
sg39
g100
sg41
S'62'
p456
sg43
g144
ssg210
(dp457
g5
S'-1.0'
p458
sg7
S'--'
p459
sg9
g14
sg11
S'--'
p460
sg13
g14
sg15
g10
sg17
S'2013'
p461
sg19
S'13'
p462
sg21
S'3.8'
p463
sg23
S'12/01'
p464
sg25
g10
sg27
S'Zac Stacy'
p465
sg29
S'19'
p466
sg31
S'L13-23'
p467
sg33
S'-1'
p468
sg35
g14
sg37
S'@SF'
p469
sg39
S'-1'
p470
sg41
S'72'
p471
sg43
S'11'
p472
ssg228
(dp473
g5
S'10.0'
p474
sg7
S'--'
p475
sg9
g14
sg11
S'--'
p476
sg13
g14
sg15
g10
sg17
S'2013'
p477
sg19
S'12'
p478
sg21
S'7.3'
p479
sg23
S'11/24'
p480
sg25
g14
sg27
S'Zac Stacy'
p481
sg29
S'12'
p482
sg31
S'W42-21'
p483
sg33
S'10'
p484
sg35
g14
sg37
S'CHI'
p485
sg39
S'10'
p486
sg41
S'87'
p487
sg43
S'35'
p488
ssg248
(dp489
g5
S'10.0'
p490
sg7
S'--'
p491
sg9
g14
sg11
S'--'
p492
sg13
g14
sg15
g10
sg17
S'2013'
p493
sg19
S'15'
p494
sg21
S'4.8'
p495
sg23
S'12/15'
p496
sg25
g14
sg27
S'Zac Stacy'
p497
sg29
S'28'
p498
sg31
S'W27-16'
p499
sg33
S'10'
p500
sg35
g14
sg37
S'NO'
p501
sg39
S'10'
p502
sg41
S'133'
p503
sg43
S'40T'
p504
ssg268
(dp505
g5
S'-1.0'
p506
sg7
S'--'
p507
sg9
g14
sg11
S'--'
p508
sg13
g14
sg15
g10
sg17
S'2013'
p509
sg19
S'14'
p510
sg21
S'1.8'
p511
sg23
S'12/08'
p512
sg25
g14
sg27
S'Zac Stacy'
p513
sg29
S'14'
p514
sg31
S'L10-30'
p515
sg33
S'-3'
p516
sg35
g63
sg37
S'@ARI'
p517
sg39
g63
sg41
S'25'
p518
sg43
g144
ssg288
(dp519
g5
S'5.8'
p520
sg7
S'--'
p521
sg9
g14
sg11
S'--'
p522
sg13
g14
sg15
g10
sg17
S'2013'
p523
sg19
S'17'
p524
sg21
S'1.0'
p525
sg23
S'12/29'
p526
sg25
g10
sg27
S'Zac Stacy'
p527
sg29
S'15'
p528
sg31
S'L9-27'
p529
sg33
S'23'
p530
sg35
g100
sg37
S'@SEA'
p531
sg39
g157
sg41
S'15'
p532
sg43
g113
ssg301
(dp533
g5
S'5.0'
p534
sg7
g14
sg9
g14
sg11
g14
sg13
g14
sg15
g10
sg17
S'2013'
p535
sg19
S'16'
p536
sg21
S'3.2'
p537
sg23
S'12/22'
p538
sg25
g14
sg27
S'Zac Stacy'
p539
sg29
S'33'
p540
sg31
S'W23-13'
p541
sg33
g94
sg35
g14
sg37
S'TB'
p542
sg39
g94
sg41
S'104'
p543
sg43
S'19'
p544
ssg14
(dp545
g5
S'--'
p546
sg7
S'--'
p547
sg9
g10
sg11
S'--'
p548
sg13
g14
sg15
S'--'
p549
sg17
S'2013'
p550
sg19
g14
sg21
S'4.0'
p551
sg23
S'09/08'
p552
sg25
g10
sg27
S'Zac Stacy'
p553
sg29
g14
sg31
S'W27-24'
p554
sg33
S'--'
p555
sg35
S'--'
p556
sg37
S'ARI'
p557
sg39
S'--'
p558
sg41
g100
sg43
g100
ssg63
(dp559
g5
S'--'
p560
sg7
S'--'
p561
sg9
g10
sg11
S'--'
p562
sg13
g10
sg15
S'--'
p563
sg17
S'2013'
p564
sg19
g63
sg21
S'--'
p565
sg23
S'09/22'
p566
sg25
S'--'
p567
sg27
S'Zac Stacy'
p568
sg29
S'--'
p569
sg31
S'L7-31'
p570
sg33
S'--'
p571
sg35
S'--'
p572
sg37
S'@DAL'
p573
sg39
S'--'
p574
sg41
S'--'
p575
sg43
S'--'
p576
ssg72
(dp577
g5
S'--'
p578
sg7
S'--'
p579
sg9
g10
sg11
S'--'
p580
sg13
g10
sg15
S'--'
p581
sg17
S'2013'
p582
sg19
g72
sg21
S'--'
p583
sg23
S'09/15'
p584
sg25
S'--'
p585
sg27
S'Zac Stacy'
p586
sg29
S'--'
p587
sg31
S'L24-31'
p588
sg33
S'--'
p589
sg35
S'--'
p590
sg37
S'@ATL'
p591
sg39
S'--'
p592
sg41
S'--'
p593
sg43
S'--'
p594
ssg94
(dp595
g5
S'--'
p596
sg7
S'--'
p597
sg9
g14
sg11
S'--'
p598
sg13
g14
sg15
g10
sg17
S'2013'
p599
sg19
g94
sg21
S'5.6'
p600
sg23
S'10/06'
p601
sg25
g10
sg27
S'Zac Stacy'
p602
sg29
S'14'
p603
sg31
S'W34-20'
p604
sg33
g10
sg35
g10
sg37
S'JAC'
p605
sg39
S'--'
p606
sg41
S'78'
p607
sg43
S'12'
p608
ssg100
(dp609
g5
S'--'
p610
sg7
S'--'
p611
sg9
g10
sg11
S'--'
p612
sg13
g14
sg15
S'--'
p613
sg17
S'2013'
p614
sg19
g100
sg21
S'--'
p615
sg23
S'09/26'
p616
sg25
S'--'
p617
sg27
S'Zac Stacy'
p618
sg29
S'--'
p619
sg31
S'L11-35'
p620
sg33
S'--'
p621
sg35
S'--'
p622
sg37
S'SF'
p623
sg39
S'--'
p624
sg41
S'--'
p625
sg43
S'--'
p626
ssg113
(dp627
g5
S'8.5'
p628
sg7
S'--'
p629
sg9
g14
sg11
S'--'
p630
sg13
g14
sg15
g14
sg17
S'2013'
p631
sg19
g113
sg21
S'3.1'
p632
sg23
S'10/20'
p633
sg25
g10
sg27
S'Zac Stacy'
p634
sg29
S'17'
p635
sg31
S'L15-30'
p636
sg33
S'34'
p637
sg35
g100
sg37
S'@CAR'
p638
sg39
S'25'
p639
sg41
S'53'
p640
sg43
S'21'
p641
ssg128
(dp642
g5
S'5.5'
p643
sg7
S'--'
p644
sg9
g14
sg11
S'--'
p645
sg13
g14
sg15
g10
sg17
S'2013'
p646
sg19
g128
sg21
S'4.4'
p647
sg23
S'10/13'
p648
sg25
g10
sg27
S'Zac Stacy'
p649
sg29
S'18'
p650
sg31
S'W38-13'
p651
sg33
S'11'
p652
sg35
g72
sg37
S'@HOU'
p653
sg39
g128
sg41
S'79'
p654
sg43
S'18'
p655
ssg144
(dp656
g5
S'8.5'
p657
sg7
S'--'
p658
sg9
g14
sg11
S'--'
p659
sg13
g14
sg15
g10
sg17
S'2013'
p660
sg19
g144
sg21
S'4.7'
p661
sg23
S'11/03'
p662
sg25
g72
sg27
S'Zac Stacy'
p663
sg29
S'27'
p664
sg31
S'L21-28'
p665
sg33
S'51'
p666
sg35
g128
sg37
S'TEN'
p667
sg39
S'13'
p668
sg41
S'127'
p669
sg43
S'32'
p670
ssg157
(dp671
g5
S'-5.0'
p672
sg7
S'--'
p673
sg9
g14
sg11
S'--'
p674
sg13
g14
sg15
g10
sg17
S'2013'
p675
sg19
g157
sg21
S'5.2'
p676
sg23
S'10/28'
p677
sg25
g10
sg27
S'Zac Stacy'
p678
sg29
S'26'
p679
sg31
S'L9-14'
p680
sg33
S'-5'
p681
sg35
g14
sg37
S'SEA'
p682
sg39
S'-5'
p683
sg41
S'134'
p684
sg43
S'18'
p685
sss.