(dp0
S'2015'
p1
(dp2
S'1'
p3
(dp4
S'RecAvg'
p5
S'--'
p6
sS'FUM'
p7
S'--'
p8
sS'GS'
p9
S'0'
p10
sS'Lost'
p11
S'--'
p12
sS'G'
p13
g3
sS'RecTD'
p14
S'--'
p15
sS'Year'
p16
S'2015'
p17
sS'WK'
p18
g3
sS'RushAvg'
p19
S'3.0'
p20
sS'Game Date'
p21
S'09/13'
p22
sS'RushTD'
p23
g10
sS'Player'
p24
S'Zach Zenner'
p25
sS'RushAtt'
p26
S'2'
p27
sS'Result'
p28
S'L28-33'
p29
sS'RecYds'
p30
S'--'
p31
sS'Rec'
p32
S'--'
p33
sS'Opp'
p34
S'@SD'
p35
sS'RecLng'
p36
S'--'
p37
sS'RushYds'
p38
S'6'
p39
sS'RushLng'
p40
S'4'
p41
ssS'3'
p42
(dp43
g5
S'--'
p44
sg7
S'--'
p45
sg9
g10
sg11
S'--'
p46
sg13
g3
sg14
S'--'
p47
sg16
S'2015'
p48
sg18
g42
sg19
S'--'
p49
sg21
S'09/27'
p50
sg23
S'--'
p51
sg24
S'Zach Zenner'
p52
sg26
S'--'
p53
sg28
S'L12-24'
p54
sg30
S'--'
p55
sg32
S'--'
p56
sg34
S'DEN'
p57
sg36
S'--'
p58
sg38
S'--'
p59
sg40
S'--'
p60
ssg27
(dp61
g5
S'--'
p62
sg7
S'--'
p63
sg9
g10
sg11
S'--'
p64
sg13
g3
sg14
S'--'
p65
sg16
S'2015'
p66
sg18
g27
sg19
S'--'
p67
sg21
S'09/20'
p68
sg23
S'--'
p69
sg24
S'Zach Zenner'
p70
sg26
S'--'
p71
sg28
S'L16-26'
p72
sg30
S'--'
p73
sg32
S'--'
p74
sg34
S'@MIN'
p75
sg36
S'--'
p76
sg38
S'--'
p77
sg40
S'--'
p78
ssS'5'
p79
(dp80
g5
S'7.0'
p81
sg7
S'--'
p82
sg9
g3
sg11
S'--'
p83
sg13
g3
sg14
g10
sg16
S'2015'
p84
sg18
g79
sg19
S'3.0'
p85
sg21
S'10/11'
p86
sg23
g10
sg24
S'Zach Zenner'
p87
sg26
S'10'
p88
sg28
S'L17-42'
p89
sg30
S'7'
p90
sg32
g3
sg34
S'ARI'
p91
sg36
g90
sg38
S'30'
p92
sg40
S'12'
p93
ssg41
(dp94
g5
S'4.0'
p95
sg7
S'--'
p96
sg9
g10
sg11
S'--'
p97
sg13
g3
sg14
g10
sg16
S'2015'
p98
sg18
g41
sg19
S'4.5'
p99
sg21
S'10/05'
p100
sg23
g10
sg24
S'Zach Zenner'
p101
sg26
g27
sg28
S'L10-13'
p102
sg30
g41
sg32
g3
sg34
S'@SEA'
p103
sg36
g41
sg38
S'9'
p104
sg40
g39
ssg39
(dp105
g5
S'--'
p106
sg7
S'--'
p107
sg9
g10
sg11
S'--'
p108
sg13
g3
sg14
S'--'
p109
sg16
S'2015'
p110
sg18
g39
sg19
S'5.0'
p111
sg21
S'10/18'
p112
sg23
g10
sg24
S'Zach Zenner'
p113
sg26
g42
sg28
S'W37-34'
p114
sg30
S'--'
p115
sg32
S'--'
p116
sg34
S'CHI'
p117
sg36
S'--'
p118
sg38
S'15'
p119
sg40
g90
sss.