(dp0
S'2015'
p1
(dp2
S'11'
p3
(dp4
S'RecAvg'
p5
S'7.0'
p6
sS'FUM'
p7
S'--'
p8
sS'GS'
p9
S'1'
p10
sS'Lost'
p11
S'--'
p12
sS'G'
p13
g10
sS'RecTD'
p14
S'0'
p15
sS'Year'
p16
S'2015'
p17
sS'WK'
p18
S'11'
p19
sS'RushAvg'
p20
S'--'
p21
sS'Game Date'
p22
S'11/22'
p23
sS'RushTD'
p24
S'--'
p25
sS'Player'
p26
S'Zach Line'
p27
sS'RushAtt'
p28
S'--'
p29
sS'Result'
p30
S'L13-30'
p31
sS'RecYds'
p32
S'7'
p33
sS'Rec'
p34
g10
sS'Opp'
p35
S'GB'
p36
sS'RecLng'
p37
g33
sS'RushYds'
p38
S'--'
p39
sS'RushLng'
p40
S'--'
p41
ssS'10'
p42
(dp43
g5
S'--'
p44
sg7
S'--'
p45
sg9
g15
sg11
S'--'
p46
sg13
g10
sg14
S'--'
p47
sg16
S'2015'
p48
sg18
S'10'
p49
sg20
S'--'
p50
sg22
S'11/15'
p51
sg24
S'--'
p52
sg26
S'Zach Line'
p53
sg28
S'--'
p54
sg30
S'W30-14'
p55
sg32
S'--'
p56
sg34
S'--'
p57
sg35
S'@OAK'
p58
sg37
S'--'
p59
sg38
S'--'
p60
sg40
S'--'
p61
ssS'13'
p62
(dp63
g5
S'--'
p64
sg7
S'--'
p65
sg9
g10
sg11
S'--'
p66
sg13
g10
sg14
S'--'
p67
sg16
S'2015'
p68
sg18
S'13'
p69
sg20
S'--'
p70
sg22
S'12/06'
p71
sg24
S'--'
p72
sg26
S'Zach Line'
p73
sg28
S'--'
p74
sg30
S'L7-38'
p75
sg32
S'--'
p76
sg34
S'--'
p77
sg35
S'SEA'
p78
sg37
S'--'
p79
sg38
S'--'
p80
sg40
S'--'
p81
ssS'12'
p82
(dp83
g5
S'8.0'
p84
sg7
S'--'
p85
sg9
g15
sg11
S'--'
p86
sg13
g10
sg14
g15
sg16
S'2015'
p87
sg18
S'12'
p88
sg20
S'--'
p89
sg22
S'11/29'
p90
sg24
S'--'
p91
sg26
S'Zach Line'
p92
sg28
S'--'
p93
sg30
S'W20-10'
p94
sg32
S'8'
p95
sg34
g10
sg35
S'@ATL'
p96
sg37
g95
sg38
S'--'
p97
sg40
S'--'
p98
ssS'15'
p99
(dp100
g5
S'4.0'
p101
sg7
S'--'
p102
sg9
g15
sg11
S'--'
p103
sg13
g10
sg14
g10
sg16
S'2015'
p104
sg18
S'15'
p105
sg20
S'3.0'
p106
sg22
S'12/20'
p107
sg24
g15
sg26
S'Zach Line'
p108
sg28
g10
sg30
S'W38-17'
p109
sg32
S'4'
p110
sg34
g10
sg35
S'CHI'
p111
sg37
S'4T'
p112
sg38
S'3'
p113
sg40
g113
ssS'14'
p114
(dp115
g5
S'24.0'
p116
sg7
S'--'
p117
sg9
g15
sg11
S'--'
p118
sg13
g10
sg14
g15
sg16
S'2015'
p119
sg18
S'14'
p120
sg20
S'--'
p121
sg22
S'12/10'
p122
sg24
S'--'
p123
sg26
S'Zach Line'
p124
sg28
S'--'
p125
sg30
S'L20-23'
p126
sg32
S'24'
p127
sg34
g10
sg35
S'@ARI'
p128
sg37
S'24'
p129
sg38
S'--'
p130
sg40
S'--'
p131
ssS'17'
p132
(dp133
g5
S'--'
p134
sg7
S'--'
p135
sg9
g15
sg11
S'--'
p136
sg13
g10
sg14
S'--'
p137
sg16
S'2015'
p138
sg18
S'17'
p139
sg20
S'--'
p140
sg22
S'01/03'
p141
sg24
S'--'
p142
sg26
S'Zach Line'
p143
sg28
S'--'
p144
sg30
S'W20-13'
p145
sg32
S'--'
p146
sg34
S'--'
p147
sg35
S'@GB'
p148
sg37
S'--'
p149
sg38
S'--'
p150
sg40
S'--'
p151
ssS'16'
p152
(dp153
g5
S'--'
p154
sg7
S'--'
p155
sg9
g15
sg11
S'--'
p156
sg13
g10
sg14
S'--'
p157
sg16
S'2015'
p158
sg18
S'16'
p159
sg20
S'3.0'
p160
sg22
S'12/27'
p161
sg24
g15
sg26
S'Zach Line'
p162
sg28
g10
sg30
S'W49-17'
p163
sg32
S'--'
p164
sg34
S'--'
p165
sg35
S'NYG'
p166
sg37
S'--'
p167
sg38
g113
sg40
g113
ssg10
(dp168
g5
S'--'
p169
sg7
S'--'
p170
sg9
g15
sg11
S'--'
p171
sg13
g10
sg14
S'--'
p172
sg16
S'2015'
p173
sg18
g10
sg20
S'--'
p174
sg22
S'09/14'
p175
sg24
S'--'
p176
sg26
S'Zach Line'
p177
sg28
S'--'
p178
sg30
S'L3-20'
p179
sg32
S'--'
p180
sg34
S'--'
p181
sg35
S'@SF'
p182
sg37
S'--'
p183
sg38
S'--'
p184
sg40
S'--'
p185
ssg113
(dp186
g5
S'--'
p187
sg7
S'--'
p188
sg9
g15
sg11
S'--'
p189
sg13
g10
sg14
S'--'
p190
sg16
S'2015'
p191
sg18
g113
sg20
S'1.0'
p192
sg22
S'09/27'
p193
sg24
g10
sg26
S'Zach Line'
p194
sg28
g10
sg30
S'W31-14'
p195
sg32
S'--'
p196
sg34
S'--'
p197
sg35
S'SD'
p198
sg37
S'--'
p199
sg38
g10
sg40
S'1T'
p200
ssS'2'
p201
(dp202
g5
S'--'
p203
sg7
S'--'
p204
sg9
g10
sg11
S'--'
p205
sg13
g10
sg14
S'--'
p206
sg16
S'2015'
p207
sg18
g201
sg20
S'1.0'
p208
sg22
S'09/20'
p209
sg24
g10
sg26
S'Zach Line'
p210
sg28
g10
sg30
S'W26-16'
p211
sg32
S'--'
p212
sg34
S'--'
p213
sg35
S'DET'
p214
sg37
S'--'
p215
sg38
g10
sg40
S'1T'
p216
ssS'5'
p217
(dp218
g5
S''
p219
sg7
g219
sg9
g219
sg11
g219
sg13
g219
sg14
g219
sg16
S'2015'
p220
sg18
g217
sg20
g219
sg22
S'Bye'
p221
sg24
g219
sg26
S'Zach Line'
p222
sg28
g219
sg30
g219
sg32
g219
sg34
g219
sg35
g219
sg37
g219
sg38
g219
sg40
g219
ssg110
(dp223
g5
S'--'
p224
sg7
S'--'
p225
sg9
g10
sg11
S'--'
p226
sg13
g10
sg14
g15
sg16
S'2015'
p227
sg18
g110
sg20
S'--'
p228
sg22
S'10/04'
p229
sg24
S'--'
p230
sg26
S'Zach Line'
p231
sg28
S'--'
p232
sg30
S'L20-23'
p233
sg32
g15
sg34
g15
sg35
S'@DEN'
p234
sg37
S'--'
p235
sg38
S'--'
p236
sg40
S'--'
p237
ssg33
(dp238
g5
S'49.0'
p239
sg7
S'--'
p240
sg9
g15
sg11
S'--'
p241
sg13
g10
sg14
g15
sg16
S'2015'
p242
sg18
g33
sg20
S'1.0'
p243
sg22
S'10/25'
p244
sg24
g15
sg26
S'Zach Line'
p245
sg28
g201
sg30
S'W28-19'
p246
sg32
S'49'
p247
sg34
g10
sg35
S'@DET'
p248
sg37
S'49'
p249
sg38
g201
sg40
g201
ssS'6'
p250
(dp251
g5
S'3.0'
p252
sg7
S'--'
p253
sg9
g15
sg11
S'--'
p254
sg13
g10
sg14
g15
sg16
S'2015'
p255
sg18
g250
sg20
S'--'
p256
sg22
S'10/18'
p257
sg24
S'--'
p258
sg26
S'Zach Line'
p259
sg28
S'--'
p260
sg30
S'W16-10'
p261
sg32
g113
sg34
g10
sg35
S'KC'
p262
sg37
g113
sg38
S'--'
p263
sg40
S'--'
p264
ssS'9'
p265
(dp266
g5
S'--'
p267
sg7
S'--'
p268
sg9
g15
sg11
S'--'
p269
sg13
g10
sg14
S'--'
p270
sg16
S'2015'
p271
sg18
g265
sg20
S'--'
p272
sg22
S'11/08'
p273
sg24
S'--'
p274
sg26
S'Zach Line'
p275
sg28
S'--'
p276
sg30
S'W21-18'
p277
sg32
S'--'
p278
sg34
S'--'
p279
sg35
S'STL'
p280
sg37
S'--'
p281
sg38
S'--'
p282
sg40
S'--'
p283
ssg95
(dp284
g5
S'--'
p285
sg7
S'--'
p286
sg9
g10
sg11
S'--'
p287
sg13
g10
sg14
S'--'
p288
sg16
S'2015'
p289
sg18
g95
sg20
S'--'
p290
sg22
S'11/01'
p291
sg24
S'--'
p292
sg26
S'Zach Line'
p293
sg28
S'--'
p294
sg30
S'W23-20'
p295
sg32
S'--'
p296
sg34
S'--'
p297
sg35
S'@CHI'
p298
sg37
S'--'
p299
sg38
S'--'
p300
sg40
S'--'
p301
sssS'2014'
p302
(dp303
g3
(dp304
g5
S'--'
p305
sg7
S'--'
p306
sg9
g15
sg11
S'--'
p307
sg13
g15
sg14
S'--'
p308
sg16
S'2014'
p309
sg18
S'11'
p310
sg20
S'--'
p311
sg22
S'11/16'
p312
sg24
S'--'
p313
sg26
S'Zach Line'
p314
sg28
S'--'
p315
sg30
S'L13-21'
p316
sg32
S'--'
p317
sg34
S'--'
p318
sg35
S'@CHI'
p319
sg37
S'--'
p320
sg38
S'--'
p321
sg40
S'--'
p322
ssg42
(dp323
g5
g219
sg7
g219
sg9
g219
sg11
g219
sg13
g219
sg14
g219
sg16
S'2014'
p324
sg18
S'10'
p325
sg20
g219
sg22
S'Bye'
p326
sg24
g219
sg26
S'Zach Line'
p327
sg28
g219
sg30
g219
sg32
g219
sg34
g219
sg35
g219
sg37
g219
sg38
g219
sg40
g219
ssg62
(dp328
g5
S'--'
p329
sg7
S'--'
p330
sg9
g15
sg11
S'--'
p331
sg13
g15
sg14
S'--'
p332
sg16
S'2014'
p333
sg18
S'13'
p334
sg20
S'--'
p335
sg22
S'11/30'
p336
sg24
S'--'
p337
sg26
S'Zach Line'
p338
sg28
S'--'
p339
sg30
S'W31-13'
p340
sg32
S'--'
p341
sg34
S'--'
p342
sg35
S'CAR'
p343
sg37
S'--'
p344
sg38
S'--'
p345
sg40
S'--'
p346
ssg82
(dp347
g5
S'--'
p348
sg7
S'--'
p349
sg9
g15
sg11
S'--'
p350
sg13
g15
sg14
S'--'
p351
sg16
S'2014'
p352
sg18
S'12'
p353
sg20
S'--'
p354
sg22
S'11/23'
p355
sg24
S'--'
p356
sg26
S'Zach Line'
p357
sg28
S'--'
p358
sg30
S'L21-24'
p359
sg32
S'--'
p360
sg34
S'--'
p361
sg35
S'GB'
p362
sg37
S'--'
p363
sg38
S'--'
p364
sg40
S'--'
p365
ssg99
(dp366
g5
S'--'
p367
sg7
S'--'
p368
sg9
g15
sg11
S'--'
p369
sg13
g15
sg14
S'--'
p370
sg16
S'2014'
p371
sg18
S'15'
p372
sg20
S'--'
p373
sg22
S'12/14'
p374
sg24
S'--'
p375
sg26
S'Zach Line'
p376
sg28
S'--'
p377
sg30
S'L14-16'
p378
sg32
S'--'
p379
sg34
S'--'
p380
sg35
S'@DET'
p381
sg37
S'--'
p382
sg38
S'--'
p383
sg40
S'--'
p384
ssg114
(dp385
g5
S'--'
p386
sg7
S'--'
p387
sg9
g15
sg11
S'--'
p388
sg13
g15
sg14
S'--'
p389
sg16
S'2014'
p390
sg18
S'14'
p391
sg20
S'--'
p392
sg22
S'12/07'
p393
sg24
S'--'
p394
sg26
S'Zach Line'
p395
sg28
S'--'
p396
sg30
S'W30-24'
p397
sg32
S'--'
p398
sg34
S'--'
p399
sg35
S'NYJ'
p400
sg37
S'--'
p401
sg38
S'--'
p402
sg40
S'--'
p403
ssg132
(dp404
g5
S'--'
p405
sg7
S'--'
p406
sg9
g15
sg11
S'--'
p407
sg13
g10
sg14
S'--'
p408
sg16
S'2014'
p409
sg18
S'17'
p410
sg20
S'--'
p411
sg22
S'12/28'
p412
sg24
S'--'
p413
sg26
S'Zach Line'
p414
sg28
S'--'
p415
sg30
S'W13-9'
p416
sg32
S'--'
p417
sg34
S'--'
p418
sg35
S'CHI'
p419
sg37
S'--'
p420
sg38
S'--'
p421
sg40
S'--'
p422
ssg152
(dp423
g5
S'--'
p424
sg7
S'--'
p425
sg9
g15
sg11
S'--'
p426
sg13
g15
sg14
S'--'
p427
sg16
S'2014'
p428
sg18
S'16'
p429
sg20
S'--'
p430
sg22
S'12/21'
p431
sg24
S'--'
p432
sg26
S'Zach Line'
p433
sg28
S'--'
p434
sg30
S'L35-37'
p435
sg32
S'--'
p436
sg34
S'--'
p437
sg35
S'@MIA'
p438
sg37
S'--'
p439
sg38
S'--'
p440
sg40
S'--'
p441
ssg10
(dp442
g5
S'--'
p443
sg7
S'--'
p444
sg9
g15
sg11
S'--'
p445
sg13
g15
sg14
S'--'
p446
sg16
S'2014'
p447
sg18
g10
sg20
S'--'
p448
sg22
S'09/07'
p449
sg24
S'--'
p450
sg26
S'Zach Line'
p451
sg28
S'--'
p452
sg30
S'W34-6'
p453
sg32
S'--'
p454
sg34
S'--'
p455
sg35
S'@STL'
p456
sg37
S'--'
p457
sg38
S'--'
p458
sg40
S'--'
p459
ssg33
(dp460
g5
S'--'
p461
sg7
S'--'
p462
sg9
g15
sg11
S'--'
p463
sg13
g15
sg14
S'--'
p464
sg16
S'2014'
p465
sg18
g33
sg20
S'--'
p466
sg22
S'10/19'
p467
sg24
S'--'
p468
sg26
S'Zach Line'
p469
sg28
S'--'
p470
sg30
S'L16-17'
p471
sg32
S'--'
p472
sg34
S'--'
p473
sg35
S'@BUF'
p474
sg37
S'--'
p475
sg38
S'--'
p476
sg40
S'--'
p477
ssg250
(dp478
g5
S'--'
p479
sg7
S'--'
p480
sg9
g15
sg11
S'--'
p481
sg13
g15
sg14
S'--'
p482
sg16
S'2014'
p483
sg18
g250
sg20
S'--'
p484
sg22
S'10/12'
p485
sg24
S'--'
p486
sg26
S'Zach Line'
p487
sg28
S'--'
p488
sg30
S'L3-17'
p489
sg32
S'--'
p490
sg34
S'--'
p491
sg35
S'DET'
p492
sg37
S'--'
p493
sg38
S'--'
p494
sg40
S'--'
p495
ssg265
(dp496
g5
S'--'
p497
sg7
S'--'
p498
sg9
g15
sg11
S'--'
p499
sg13
g15
sg14
S'--'
p500
sg16
S'2014'
p501
sg18
g265
sg20
S'--'
p502
sg22
S'11/02'
p503
sg24
S'--'
p504
sg26
S'Zach Line'
p505
sg28
S'--'
p506
sg30
S'W29-26'
p507
sg32
S'--'
p508
sg34
S'--'
p509
sg35
S'WAS'
p510
sg37
S'--'
p511
sg38
S'--'
p512
sg40
S'--'
p513
ssg95
(dp514
g5
S'--'
p515
sg7
S'--'
p516
sg9
g15
sg11
S'--'
p517
sg13
g15
sg14
S'--'
p518
sg16
S'2014'
p519
sg18
g95
sg20
S'--'
p520
sg22
S'10/26'
p521
sg24
S'--'
p522
sg26
S'Zach Line'
p523
sg28
S'--'
p524
sg30
S'W19-13'
p525
sg32
S'--'
p526
sg34
S'--'
p527
sg35
S'@TB'
p528
sg37
S'--'
p529
sg38
S'--'
p530
sg40
S'--'
p531
sssS'2013'
p532
(dp533
g10
(dp534
g5
S'8.0'
p535
sg7
S'--'
p536
sg9
g15
sg11
S'--'
p537
sg13
g10
sg14
g15
sg16
S'2013'
p538
sg18
g10
sg20
S'--'
p539
sg22
S'09/08'
p540
sg24
S'--'
p541
sg26
S'Zach Line'
p542
sg28
S'--'
p543
sg30
S'L24-34'
p544
sg32
g95
sg34
g10
sg35
S'@DET'
p545
sg37
g95
sg38
S'--'
p546
sg40
S'--'
p547
ssg113
(dp548
g5
S'--'
p549
sg7
S'--'
p550
sg9
g10
sg11
S'--'
p551
sg13
g10
sg14
g15
sg16
S'2013'
p552
sg18
g113
sg20
S'--'
p553
sg22
S'09/22'
p554
sg24
S'--'
p555
sg26
S'Zach Line'
p556
sg28
S'--'
p557
sg30
S'L27-31'
p558
sg32
g15
sg34
g15
sg35
S'CLE'
p559
sg37
S'--'
p560
sg38
S'--'
p561
sg40
S'--'
p562
ssg201
(dp563
g5
S'--'
p564
sg7
S'--'
p565
sg9
g15
sg11
S'--'
p566
sg13
g10
sg14
g15
sg16
S'2013'
p567
sg18
g201
sg20
S'--'
p568
sg22
S'09/15'
p569
sg24
S'--'
p570
sg26
S'Zach Line'
p571
sg28
S'--'
p572
sg30
S'L30-31'
p573
sg32
g15
sg34
g15
sg35
S'@CHI'
p574
sg37
S'--'
p575
sg38
S'--'
p576
sg40
S'--'
p577
sss.