(dp0
S'2015'
p1
(dp2
S'11'
p3
(dp4
S'RushTD'
p5
S'--'
p6
sS'RushYds'
p7
S'--'
p8
sS'GS'
p9
S'1'
p10
sS'Lost'
p11
S'--'
p12
sS'G'
p13
g10
sS'Player'
p14
S'Aaron Dobson'
p15
sS'Year'
p16
S'2015'
p17
sS'WK'
p18
S'11'
p19
sS'RushAvg'
p20
S'--'
p21
sS'Game Date'
p22
S'11/23'
p23
sS'RecAvg'
p24
S'17.0'
p25
sS'FUM'
p26
S'--'
p27
sS'RushAtt'
p28
S'--'
p29
sS'Result'
p30
S'W20-13'
p31
sS'RecYds'
p32
S'17'
p33
sS'Rec'
p34
g10
sS'Opp'
p35
S'BUF'
p36
sS'RecLng'
p37
S'17'
p38
sS'RecTD'
p39
S'0'
p40
sS'RushLng'
p41
S'--'
p42
ssS'10'
p43
(dp44
g5
S'--'
p45
sg7
S'--'
p46
sg9
g40
sg11
S'--'
p47
sg13
g10
sg14
S'Aaron Dobson'
p48
sg16
S'2015'
p49
sg18
S'10'
p50
sg20
S'--'
p51
sg22
S'11/15'
p52
sg24
S'5.0'
p53
sg26
S'--'
p54
sg28
S'--'
p55
sg30
S'W27-26'
p56
sg32
S'5'
p57
sg34
g10
sg35
S'@NYG'
p58
sg37
g57
sg39
g40
sg41
S'--'
p59
ssg10
(dp60
g5
S'--'
p61
sg7
S'--'
p62
sg9
g40
sg11
S'--'
p63
sg13
g10
sg14
S'Aaron Dobson'
p64
sg16
S'2015'
p65
sg18
g10
sg20
S'--'
p66
sg22
S'09/10'
p67
sg24
S'9.0'
p68
sg26
S'--'
p69
sg28
S'--'
p70
sg30
S'W28-21'
p71
sg32
S'9'
p72
sg34
g10
sg35
S'PIT'
p73
sg37
g72
sg39
g40
sg41
S'--'
p74
ssS'3'
p75
(dp76
g5
S'--'
p77
sg7
S'--'
p78
sg9
g10
sg11
S'--'
p79
sg13
g10
sg14
S'Aaron Dobson'
p80
sg16
S'2015'
p81
sg18
g75
sg20
S'--'
p82
sg22
S'09/27'
p83
sg24
S'5.0'
p84
sg26
S'--'
p85
sg28
S'--'
p86
sg30
S'W51-17'
p87
sg32
g57
sg34
g10
sg35
S'JAC'
p88
sg37
g57
sg39
g40
sg41
S'--'
p89
ssS'2'
p90
(dp91
g5
S'--'
p92
sg7
S'--'
p93
sg9
g10
sg11
S'--'
p94
sg13
g10
sg14
S'Aaron Dobson'
p95
sg16
S'2015'
p96
sg18
g90
sg20
S'--'
p97
sg22
S'09/20'
p98
sg24
S'12.4'
p99
sg26
S'--'
p100
sg28
S'--'
p101
sg30
S'W40-32'
p102
sg32
S'87'
p103
sg34
S'7'
p104
sg35
S'@BUF'
p105
sg37
S'24'
p106
sg39
g40
sg41
S'--'
p107
ssg57
(dp108
g5
S'--'
p109
sg7
S'--'
p110
sg9
g40
sg11
S'--'
p111
sg13
g40
sg14
S'Aaron Dobson'
p112
sg16
S'2015'
p113
sg18
g57
sg20
S'--'
p114
sg22
S'10/11'
p115
sg24
S'--'
p116
sg26
S'--'
p117
sg28
S'--'
p118
sg30
S'W30-6'
p119
sg32
S'--'
p120
sg34
S'--'
p121
sg35
S'@DAL'
p122
sg37
S'--'
p123
sg39
S'--'
p124
sg41
S'--'
p125
ssS'4'
p126
(dp127
g5
S''
p128
sg7
g128
sg9
g128
sg11
g128
sg13
g128
sg14
S'Aaron Dobson'
p129
sg16
S'2015'
p130
sg18
g126
sg20
g128
sg22
S'Bye'
p131
sg24
g128
sg26
g128
sg28
g128
sg30
g128
sg32
g128
sg34
g128
sg35
g128
sg37
g128
sg39
g128
sg41
g128
ssg104
(dp132
g5
S'--'
p133
sg7
S'--'
p134
sg9
g40
sg11
S'--'
p135
sg13
g10
sg14
S'Aaron Dobson'
p136
sg16
S'2015'
p137
sg18
g104
sg20
S'--'
p138
sg22
S'10/25'
p139
sg24
S'9.0'
p140
sg26
S'--'
p141
sg28
S'--'
p142
sg30
S'W30-23'
p143
sg32
S'18'
p144
sg34
g90
sg35
S'NYJ'
p145
sg37
S'11'
p146
sg39
g40
sg41
S'--'
p147
ssS'6'
p148
(dp149
g5
S'--'
p150
sg7
S'--'
p151
sg9
g40
sg11
S'--'
p152
sg13
g40
sg14
S'Aaron Dobson'
p153
sg16
S'2015'
p154
sg18
g148
sg20
S'--'
p155
sg22
S'10/18'
p156
sg24
S'--'
p157
sg26
S'--'
p158
sg28
S'--'
p159
sg30
S'W34-27'
p160
sg32
S'--'
p161
sg34
S'--'
p162
sg35
S'@IND'
p163
sg37
S'--'
p164
sg39
S'--'
p165
sg41
S'--'
p166
ssg72
(dp167
g5
S'--'
p168
sg7
S'--'
p169
sg9
g40
sg11
S'--'
p170
sg13
g10
sg14
S'Aaron Dobson'
p171
sg16
S'2015'
p172
sg18
g72
sg20
S'--'
p173
sg22
S'11/08'
p174
sg24
S'--'
p175
sg26
S'--'
p176
sg28
S'--'
p177
sg30
S'W27-10'
p178
sg32
S'--'
p179
sg34
S'--'
p180
sg35
S'WAS'
p181
sg37
S'--'
p182
sg39
S'--'
p183
sg41
S'--'
p184
ssS'8'
p185
(dp186
g5
S'--'
p187
sg7
S'--'
p188
sg9
g40
sg11
S'--'
p189
sg13
g10
sg14
S'Aaron Dobson'
p190
sg16
S'2015'
p191
sg18
g185
sg20
S'--'
p192
sg22
S'10/29'
p193
sg24
S'--'
p194
sg26
S'--'
p195
sg28
S'--'
p196
sg30
S'W36-7'
p197
sg32
S'--'
p198
sg34
S'--'
p199
sg35
S'MIA'
p200
sg37
S'--'
p201
sg39
S'--'
p202
sg41
S'--'
p203
sssS'2014'
p204
(dp205
g3
(dp206
g5
S'--'
p207
sg7
S'--'
p208
sg9
g40
sg11
S'--'
p209
sg13
g40
sg14
S'Aaron Dobson'
p210
sg16
S'2014'
p211
sg18
S'11'
p212
sg20
S'--'
p213
sg22
S'11/16'
p214
sg24
S'--'
p215
sg26
S'--'
p216
sg28
S'--'
p217
sg30
S'W42-20'
p218
sg32
S'--'
p219
sg34
S'--'
p220
sg35
S'@IND'
p221
sg37
S'--'
p222
sg39
S'--'
p223
sg41
S'--'
p224
ssg43
(dp225
g5
g128
sg7
g128
sg9
g128
sg11
g128
sg13
g128
sg14
S'Aaron Dobson'
p226
sg16
S'2014'
p227
sg18
S'10'
p228
sg20
g128
sg22
S'Bye'
p229
sg24
g128
sg26
g128
sg28
g128
sg30
g128
sg32
g128
sg34
g128
sg35
g128
sg37
g128
sg39
g128
sg41
g128
ssS'13'
p230
(dp231
g5
S'--'
p232
sg7
S'--'
p233
sg9
g40
sg11
S'--'
p234
sg13
g10
sg14
S'Aaron Dobson'
p235
sg16
S'2014'
p236
sg18
S'13'
p237
sg20
S'--'
p238
sg22
S'11/30'
p239
sg24
S'--'
p240
sg26
S'--'
p241
sg28
S'--'
p242
sg30
S'L21-26'
p243
sg32
g40
sg34
g40
sg35
S'@GB'
p244
sg37
S'--'
p245
sg39
g40
sg41
S'--'
p246
ssS'12'
p247
(dp248
g5
S'--'
p249
sg7
S'--'
p250
sg9
g40
sg11
S'--'
p251
sg13
g40
sg14
S'Aaron Dobson'
p252
sg16
S'2014'
p253
sg18
S'12'
p254
sg20
S'--'
p255
sg22
S'11/23'
p256
sg24
S'--'
p257
sg26
S'--'
p258
sg28
S'--'
p259
sg30
S'W34-9'
p260
sg32
S'--'
p261
sg34
S'--'
p262
sg35
S'DET'
p263
sg37
S'--'
p264
sg39
S'--'
p265
sg41
S'--'
p266
ssg10
(dp267
g5
S'--'
p268
sg7
S'--'
p269
sg9
g40
sg11
S'--'
p270
sg13
g40
sg14
S'Aaron Dobson'
p271
sg16
S'2014'
p272
sg18
g10
sg20
S'--'
p273
sg22
S'09/07'
p274
sg24
S'--'
p275
sg26
S'--'
p276
sg28
S'--'
p277
sg30
S'L20-33'
p278
sg32
S'--'
p279
sg34
S'--'
p280
sg35
S'@MIA'
p281
sg37
S'--'
p282
sg39
S'--'
p283
sg41
S'--'
p284
ssg75
(dp285
g5
S'--'
p286
sg7
S'--'
p287
sg9
g40
sg11
S'--'
p288
sg13
g40
sg14
S'Aaron Dobson'
p289
sg16
S'2014'
p290
sg18
g75
sg20
S'--'
p291
sg22
S'09/21'
p292
sg24
S'--'
p293
sg26
S'--'
p294
sg28
S'--'
p295
sg30
S'W16-9'
p296
sg32
S'--'
p297
sg34
S'--'
p298
sg35
S'OAK'
p299
sg37
S'--'
p300
sg39
S'--'
p301
sg41
S'--'
p302
ssg90
(dp303
g5
S'--'
p304
sg7
S'--'
p305
sg9
g10
sg11
S'--'
p306
sg13
g10
sg14
S'Aaron Dobson'
p307
sg16
S'2014'
p308
sg18
g90
sg20
S'--'
p309
sg22
S'09/14'
p310
sg24
S'13.0'
p311
sg26
S'--'
p312
sg28
S'--'
p313
sg30
S'W30-7'
p314
sg32
S'13'
p315
sg34
g10
sg35
S'@MIN'
p316
sg37
S'13'
p317
sg39
g40
sg41
S'--'
p318
ssg57
(dp319
g5
S'--'
p320
sg7
S'--'
p321
sg9
g40
sg11
S'--'
p322
sg13
g10
sg14
S'Aaron Dobson'
p323
sg16
S'2014'
p324
sg18
g57
sg20
S'--'
p325
sg22
S'10/05'
p326
sg24
S'16.0'
p327
sg26
S'--'
p328
sg28
S'--'
p329
sg30
S'W43-17'
p330
sg32
S'16'
p331
sg34
g10
sg35
S'CIN'
p332
sg37
S'16'
p333
sg39
g40
sg41
S'--'
p334
ssg126
(dp335
g5
S'--'
p336
sg7
S'--'
p337
sg9
g40
sg11
S'--'
p338
sg13
g40
sg14
S'Aaron Dobson'
p339
sg16
S'2014'
p340
sg18
g126
sg20
S'--'
p341
sg22
S'09/29'
p342
sg24
S'--'
p343
sg26
S'--'
p344
sg28
S'--'
p345
sg30
S'L14-41'
p346
sg32
S'--'
p347
sg34
S'--'
p348
sg35
S'@KC'
p349
sg37
S'--'
p350
sg39
S'--'
p351
sg41
S'--'
p352
ssg104
(dp353
g5
S'--'
p354
sg7
S'--'
p355
sg9
g40
sg11
S'--'
p356
sg13
g40
sg14
S'Aaron Dobson'
p357
sg16
S'2014'
p358
sg18
g104
sg20
S'--'
p359
sg22
S'10/16'
p360
sg24
S'--'
p361
sg26
S'--'
p362
sg28
S'--'
p363
sg30
S'W27-25'
p364
sg32
S'--'
p365
sg34
S'--'
p366
sg35
S'NYJ'
p367
sg37
S'--'
p368
sg39
S'--'
p369
sg41
S'--'
p370
ssg148
(dp371
g5
S'--'
p372
sg7
S'--'
p373
sg9
g40
sg11
S'--'
p374
sg13
g10
sg14
S'Aaron Dobson'
p375
sg16
S'2014'
p376
sg18
g148
sg20
S'--'
p377
sg22
S'10/12'
p378
sg24
S'9.0'
p379
sg26
S'--'
p380
sg28
S'--'
p381
sg30
S'W37-22'
p382
sg32
g72
sg34
g10
sg35
S'@BUF'
p383
sg37
g72
sg39
g40
sg41
S'--'
p384
ssg72
(dp385
g5
S'--'
p386
sg7
S'--'
p387
sg9
g40
sg11
S'--'
p388
sg13
g40
sg14
S'Aaron Dobson'
p389
sg16
S'2014'
p390
sg18
g72
sg20
S'--'
p391
sg22
S'11/02'
p392
sg24
S'--'
p393
sg26
S'--'
p394
sg28
S'--'
p395
sg30
S'W43-21'
p396
sg32
S'--'
p397
sg34
S'--'
p398
sg35
S'DEN'
p399
sg37
S'--'
p400
sg39
S'--'
p401
sg41
S'--'
p402
ssg185
(dp403
g5
S'--'
p404
sg7
S'--'
p405
sg9
g40
sg11
S'--'
p406
sg13
g40
sg14
S'Aaron Dobson'
p407
sg16
S'2014'
p408
sg18
g185
sg20
S'--'
p409
sg22
S'10/26'
p410
sg24
S'--'
p411
sg26
S'--'
p412
sg28
S'--'
p413
sg30
S'W51-23'
p414
sg32
S'--'
p415
sg34
S'--'
p416
sg35
S'CHI'
p417
sg37
S'--'
p418
sg39
S'--'
p419
sg41
S'--'
p420
sssS'2013'
p421
(dp422
g3
(dp423
g5
S'--'
p424
sg7
S'--'
p425
sg9
g10
sg11
S'--'
p426
sg13
g10
sg14
S'Aaron Dobson'
p427
sg16
S'2013'
p428
sg18
S'11'
p429
sg20
S'--'
p430
sg22
S'11/18'
p431
sg24
S'9.5'
p432
sg26
S'--'
p433
sg28
S'--'
p434
sg30
S'L20-24'
p435
sg32
S'38'
p436
sg34
g126
sg35
S'@CAR'
p437
sg37
S'11'
p438
sg39
g40
sg41
S'--'
p439
ssg43
(dp440
g5
g128
sg7
g128
sg9
g128
sg11
g128
sg13
g128
sg14
S'Aaron Dobson'
p441
sg16
S'2013'
p442
sg18
S'10'
p443
sg20
g128
sg22
S'Bye'
p444
sg24
g128
sg26
g128
sg28
g128
sg30
g128
sg32
g128
sg34
g128
sg35
g128
sg37
g128
sg39
g128
sg41
g128
ssg230
(dp445
g5
S'--'
p446
sg7
S'--'
p447
sg9
g40
sg11
S'--'
p448
sg13
g40
sg14
S'Aaron Dobson'
p449
sg16
S'2013'
p450
sg18
S'13'
p451
sg20
S'--'
p452
sg22
S'12/01'
p453
sg24
S'--'
p454
sg26
S'--'
p455
sg28
S'--'
p456
sg30
S'W34-31'
p457
sg32
S'--'
p458
sg34
S'--'
p459
sg35
S'@HOU'
p460
sg37
S'--'
p461
sg39
S'--'
p462
sg41
S'--'
p463
ssg247
(dp464
g5
S'--'
p465
sg7
S'--'
p466
sg9
g10
sg11
S'--'
p467
sg13
g10
sg14
S'Aaron Dobson'
p468
sg16
S'2013'
p469
sg18
S'12'
p470
sg20
S'--'
p471
sg22
S'11/24'
p472
sg24
S'--'
p473
sg26
S'--'
p474
sg28
S'--'
p475
sg30
S'W34-31'
p476
sg32
S'--'
p477
sg34
S'--'
p478
sg35
S'DEN'
p479
sg37
S'--'
p480
sg39
S'--'
p481
sg41
S'--'
p482
ssS'15'
p483
(dp484
g5
S'--'
p485
sg7
S'--'
p486
sg9
g40
sg11
S'--'
p487
sg13
g40
sg14
S'Aaron Dobson'
p488
sg16
S'2013'
p489
sg18
S'15'
p490
sg20
S'--'
p491
sg22
S'12/15'
p492
sg24
S'--'
p493
sg26
S'--'
p494
sg28
S'--'
p495
sg30
S'L20-24'
p496
sg32
S'--'
p497
sg34
S'--'
p498
sg35
S'@MIA'
p499
sg37
S'--'
p500
sg39
S'--'
p501
sg41
S'--'
p502
ssS'14'
p503
(dp504
g5
S'--'
p505
sg7
S'--'
p506
sg9
g40
sg11
S'--'
p507
sg13
g40
sg14
S'Aaron Dobson'
p508
sg16
S'2013'
p509
sg18
S'14'
p510
sg20
S'--'
p511
sg22
S'12/08'
p512
sg24
S'--'
p513
sg26
S'--'
p514
sg28
S'--'
p515
sg30
S'W27-26'
p516
sg32
S'--'
p517
sg34
S'--'
p518
sg35
S'CLE'
p519
sg37
S'--'
p520
sg39
S'--'
p521
sg41
S'--'
p522
ssS'17'
p523
(dp524
g5
S'--'
p525
sg7
S'--'
p526
sg9
g10
sg11
S'--'
p527
sg13
g10
sg14
S'Aaron Dobson'
p528
sg16
S'2013'
p529
sg18
S'17'
p530
sg20
S'--'
p531
sg22
S'12/29'
p532
sg24
S'6.0'
p533
sg26
S'--'
p534
sg28
S'--'
p535
sg30
S'W34-20'
p536
sg32
g148
sg34
g10
sg35
S'BUF'
p537
sg37
g148
sg39
g40
sg41
S'--'
p538
ssS'16'
p539
(dp540
g5
S'--'
p541
sg7
S'--'
p542
sg9
g10
sg11
S'--'
p543
sg13
g10
sg14
S'Aaron Dobson'
p544
sg16
S'2013'
p545
sg18
S'16'
p546
sg20
S'--'
p547
sg22
S'12/22'
p548
sg24
S'21.0'
p549
sg26
S'--'
p550
sg28
S'--'
p551
sg30
S'W41-7'
p552
sg32
S'21'
p553
sg34
g10
sg35
S'@BAL'
p554
sg37
S'21'
p555
sg39
g40
sg41
S'--'
p556
ssg10
(dp557
g5
S'--'
p558
sg7
S'--'
p559
sg9
g40
sg11
S'--'
p560
sg13
g40
sg14
S'Aaron Dobson'
p561
sg16
S'2013'
p562
sg18
g10
sg20
S'--'
p563
sg22
S'09/08'
p564
sg24
S'--'
p565
sg26
S'--'
p566
sg28
S'--'
p567
sg30
S'W23-21'
p568
sg32
S'--'
p569
sg34
S'--'
p570
sg35
S'@BUF'
p571
sg37
S'--'
p572
sg39
S'--'
p573
sg41
S'--'
p574
ssg75
(dp575
g5
S'--'
p576
sg7
S'--'
p577
sg9
g10
sg11
S'--'
p578
sg13
g10
sg14
S'Aaron Dobson'
p579
sg16
S'2013'
p580
sg18
g75
sg20
S'--'
p581
sg22
S'09/22'
p582
sg24
S'7.4'
p583
sg26
S'--'
p584
sg28
S'--'
p585
sg30
S'W23-3'
p586
sg32
S'52'
p587
sg34
g104
sg35
S'TB'
p588
sg37
S'15'
p589
sg39
g40
sg41
S'--'
p590
ssg90
(dp591
g5
S'--'
p592
sg7
S'--'
p593
sg9
g40
sg11
S'--'
p594
sg13
g10
sg14
S'Aaron Dobson'
p595
sg16
S'2013'
p596
sg18
g90
sg20
S'--'
p597
sg22
S'09/12'
p598
sg24
S'18.7'
p599
sg26
S'--'
p600
sg28
S'--'
p601
sg30
S'W13-10'
p602
sg32
S'56'
p603
sg34
g75
sg35
S'NYJ'
p604
sg37
S'39T'
p605
sg39
g10
sg41
S'--'
p606
ssg57
(dp607
g5
S'--'
p608
sg7
S'--'
p609
sg9
g40
sg11
g40
sg13
g10
sg14
S'Aaron Dobson'
p610
sg16
S'2013'
p611
sg18
g57
sg20
S'--'
p612
sg22
S'10/06'
p613
sg24
S'24.5'
p614
sg26
g10
sg28
S'--'
p615
sg30
S'L6-13'
p616
sg32
S'49'
p617
sg34
g90
sg35
S'@CIN'
p618
sg37
S'53'
p619
sg39
g40
sg41
S'--'
p620
ssg126
(dp621
g5
S'--'
p622
sg7
S'--'
p623
sg9
g40
sg11
S'--'
p624
sg13
g10
sg14
S'Aaron Dobson'
p625
sg16
S'2013'
p626
sg18
g126
sg20
S'--'
p627
sg22
S'09/29'
p628
sg24
S'10.0'
p629
sg26
S'--'
p630
sg28
S'--'
p631
sg30
S'W30-23'
p632
sg32
S'10'
p633
sg34
g10
sg35
S'@ATL'
p634
sg37
S'10'
p635
sg39
g40
sg41
S'--'
p636
ssg104
(dp637
g5
S'--'
p638
sg7
S'--'
p639
sg9
g10
sg11
S'--'
p640
sg13
g10
sg14
S'Aaron Dobson'
p641
sg16
S'2013'
p642
sg18
g104
sg20
S'--'
p643
sg22
S'10/20'
p644
sg24
S'11.3'
p645
sg26
S'--'
p646
sg28
S'--'
p647
sg30
S'L27-30'
p648
sg32
S'34'
p649
sg34
g75
sg35
S'@NYJ'
p650
sg37
S'14'
p651
sg39
g40
sg41
S'--'
p652
ssg148
(dp653
g5
S'--'
p654
sg7
S'--'
p655
sg9
g10
sg11
S'--'
p656
sg13
g10
sg14
S'Aaron Dobson'
p657
sg16
S'2013'
p658
sg18
g148
sg20
S'--'
p659
sg22
S'10/13'
p660
sg24
S'10.5'
p661
sg26
S'--'
p662
sg28
S'--'
p663
sg30
S'W30-27'
p664
sg32
S'63'
p665
sg34
g148
sg35
S'NO'
p666
sg37
S'20'
p667
sg39
g40
sg41
S'--'
p668
ssg72
(dp669
g5
S'--'
p670
sg7
S'--'
p671
sg9
g10
sg11
S'--'
p672
sg13
g10
sg14
S'Aaron Dobson'
p673
sg16
S'2013'
p674
sg18
g72
sg20
S'--'
p675
sg22
S'11/03'
p676
sg24
S'26.0'
p677
sg26
S'--'
p678
sg28
S'--'
p679
sg30
S'W55-31'
p680
sg32
S'130'
p681
sg34
g57
sg35
S'PIT'
p682
sg37
S'81T'
p683
sg39
g90
sg41
S'--'
p684
ssg185
(dp685
g5
S'--'
p686
sg7
S'--'
p687
sg9
g10
sg11
S'--'
p688
sg13
g10
sg14
S'Aaron Dobson'
p689
sg16
S'2013'
p690
sg18
g185
sg20
S'--'
p691
sg22
S'10/27'
p692
sg24
S'15.0'
p693
sg26
S'--'
p694
sg28
S'--'
p695
sg30
S'W27-17'
p696
sg32
S'60'
p697
sg34
g126
sg35
S'MIA'
p698
sg37
S'26'
p699
sg39
g10
sg41
S'--'
p700
sss.