(dp0
S'2015'
p1
(dp2
S'11'
p3
(dp4
S'RushTD'
p5
S'--'
p6
sS'RushYds'
p7
S'--'
p8
sS'GS'
p9
S'0'
p10
sS'Lost'
p11
S'--'
p12
sS'G'
p13
S'1'
p14
sS'Player'
p15
S'Adam Humphries'
p16
sS'Year'
p17
S'2015'
p18
sS'WK'
p19
S'11'
p20
sS'RushAvg'
p21
S'--'
p22
sS'Game Date'
p23
S'11/22'
p24
sS'RecAvg'
p25
S'12.5'
p26
sS'FUM'
p27
S'--'
p28
sS'RushAtt'
p29
S'--'
p30
sS'Result'
p31
S'W45-17'
p32
sS'RecYds'
p33
S'50'
p34
sS'Rec'
p35
S'4'
p36
sS'Opp'
p37
S'@PHI'
p38
sS'RecLng'
p39
S'27'
p40
sS'RecTD'
p41
g10
sS'RushLng'
p42
S'--'
p43
ssS'10'
p44
(dp45
g5
S'--'
p46
sg7
S'--'
p47
sg9
g10
sg11
S'--'
p48
sg13
g14
sg15
S'Adam Humphries'
p49
sg17
S'2015'
p50
sg19
S'10'
p51
sg21
S'--'
p52
sg23
S'11/15'
p53
sg25
S'12.5'
p54
sg27
S'--'
p55
sg29
S'--'
p56
sg31
S'W10-6'
p57
sg33
S'25'
p58
sg35
S'2'
p59
sg37
S'DAL'
p60
sg39
S'19'
p61
sg41
g10
sg42
S'--'
p62
ssS'13'
p63
(dp64
g5
S'--'
p65
sg7
S'--'
p66
sg9
g10
sg11
S'--'
p67
sg13
g14
sg15
S'Adam Humphries'
p68
sg17
S'2015'
p69
sg19
S'13'
p70
sg21
S'--'
p71
sg23
S'12/06'
p72
sg25
S'6.0'
p73
sg27
S'--'
p74
sg29
S'--'
p75
sg31
S'W23-19'
p76
sg33
S'6'
p77
sg35
g14
sg37
S'ATL'
p78
sg39
g77
sg41
g10
sg42
S'--'
p79
ssS'12'
p80
(dp81
g5
S'--'
p82
sg7
S'--'
p83
sg9
g10
sg11
S'--'
p84
sg13
g14
sg15
S'Adam Humphries'
p85
sg17
S'2015'
p86
sg19
S'12'
p87
sg21
S'--'
p88
sg23
S'11/29'
p89
sg25
S'10.0'
p90
sg27
S'--'
p91
sg29
S'--'
p92
sg31
S'L12-25'
p93
sg33
S'20'
p94
sg35
g59
sg37
S'@IND'
p95
sg39
S'11'
p96
sg41
g10
sg42
S'--'
p97
ssS'15'
p98
(dp99
g5
S'--'
p100
sg7
S'--'
p101
sg9
g10
sg11
S'--'
p102
sg13
g14
sg15
S'Adam Humphries'
p103
sg17
S'2015'
p104
sg19
S'15'
p105
sg21
S'--'
p106
sg23
S'12/17'
p107
sg25
S'10.0'
p108
sg27
S'--'
p109
sg29
S'--'
p110
sg31
S'L23-31'
p111
sg33
S'60'
p112
sg35
g77
sg37
S'@STL'
p113
sg39
S'14'
p114
sg41
g10
sg42
S'--'
p115
ssS'14'
p116
(dp117
g5
S'--'
p118
sg7
S'--'
p119
sg9
g10
sg11
S'--'
p120
sg13
g14
sg15
S'Adam Humphries'
p121
sg17
S'2015'
p122
sg19
S'14'
p123
sg21
S'--'
p124
sg23
S'12/13'
p125
sg25
S'6.0'
p126
sg27
S'--'
p127
sg29
S'--'
p128
sg31
S'L17-24'
p129
sg33
g77
sg35
g14
sg37
S'NO'
p130
sg39
S'6T'
p131
sg41
g14
sg42
S'--'
p132
ssS'17'
p133
(dp134
g5
S'--'
p135
sg7
S'--'
p136
sg9
g10
sg11
S'--'
p137
sg13
g14
sg15
S'Adam Humphries'
p138
sg17
S'2015'
p139
sg19
S'17'
p140
sg21
S'--'
p141
sg23
S'01/03'
p142
sg25
S'--'
p143
sg27
S'--'
p144
sg29
S'--'
p145
sg31
S'L10-38'
p146
sg33
g10
sg35
g10
sg37
S'@CAR'
p147
sg39
S'--'
p148
sg41
g10
sg42
S'--'
p149
ssS'16'
p150
(dp151
g5
S'--'
p152
sg7
S'--'
p153
sg9
g10
sg11
S'--'
p154
sg13
g14
sg15
S'Adam Humphries'
p155
sg17
S'2015'
p156
sg19
S'16'
p157
sg21
S'--'
p158
sg23
S'12/27'
p159
sg25
S'10.0'
p160
sg27
S'--'
p161
sg29
S'--'
p162
sg31
S'L21-26'
p163
sg33
S'10'
p164
sg35
g14
sg37
S'CHI'
p165
sg39
S'10'
p166
sg41
g10
sg42
S'--'
p167
ssg14
(dp168
g5
S'--'
p169
sg7
S'--'
p170
sg9
g10
sg11
S'--'
p171
sg13
g14
sg15
S'Adam Humphries'
p172
sg17
S'2015'
p173
sg19
g14
sg21
S'--'
p174
sg23
S'09/13'
p175
sg25
S'7.0'
p176
sg27
S'--'
p177
sg29
S'--'
p178
sg31
S'L14-42'
p179
sg33
S'14'
p180
sg35
g59
sg37
S'TEN'
p181
sg39
S'12'
p182
sg41
g10
sg42
S'--'
p183
ssS'3'
p184
(dp185
g5
S'--'
p186
sg7
S'--'
p187
sg9
g10
sg11
S'--'
p188
sg13
g10
sg15
S'Adam Humphries'
p189
sg17
S'2015'
p190
sg19
g184
sg21
S'--'
p191
sg23
S'09/27'
p192
sg25
S'--'
p193
sg27
S'--'
p194
sg29
S'--'
p195
sg31
S'L9-19'
p196
sg33
S'--'
p197
sg35
S'--'
p198
sg37
S'@HOU'
p199
sg39
S'--'
p200
sg41
S'--'
p201
sg42
S'--'
p202
ssg59
(dp203
g5
S'--'
p204
sg7
S'--'
p205
sg9
g10
sg11
S'--'
p206
sg13
g14
sg15
S'Adam Humphries'
p207
sg17
S'2015'
p208
sg19
g59
sg21
S'--'
p209
sg23
S'09/20'
p210
sg25
S'--'
p211
sg27
S'--'
p212
sg29
S'--'
p213
sg31
S'W26-19'
p214
sg33
S'--'
p215
sg35
S'--'
p216
sg37
S'@NO'
p217
sg39
S'--'
p218
sg41
S'--'
p219
sg42
S'--'
p220
ssg36
(dp221
g5
S'--'
p222
sg7
S'--'
p223
sg9
g10
sg11
S'--'
p224
sg13
g14
sg15
S'Adam Humphries'
p225
sg17
S'2015'
p226
sg19
g36
sg21
S'--'
p227
sg23
S'10/04'
p228
sg25
S'--'
p229
sg27
S'--'
p230
sg29
S'--'
p231
sg31
S'L23-37'
p232
sg33
S'--'
p233
sg35
S'--'
p234
sg37
S'CAR'
p235
sg39
S'--'
p236
sg41
S'--'
p237
sg42
S'--'
p238
ssS'9'
p239
(dp240
g5
S'--'
p241
sg7
S'--'
p242
sg9
g10
sg11
S'--'
p243
sg13
g14
sg15
S'Adam Humphries'
p244
sg17
S'2015'
p245
sg19
g239
sg21
S'--'
p246
sg23
S'11/08'
p247
sg25
S'11.0'
p248
sg27
S'--'
p249
sg29
S'--'
p250
sg31
S'L18-32'
p251
sg33
S'55'
p252
sg35
S'5'
p253
sg37
S'NYG'
p254
sg39
S'16'
p255
sg41
g10
sg42
S'--'
p256
ssS'8'
p257
(dp258
g5
S'--'
p259
sg7
S'--'
p260
sg9
g10
sg11
S'--'
p261
sg13
g14
sg15
S'Adam Humphries'
p262
sg17
S'2015'
p263
sg19
g257
sg21
S'--'
p264
sg23
S'11/01'
p265
sg25
S'4.7'
p266
sg27
S'--'
p267
sg29
S'--'
p268
sg31
S'W23-20'
p269
sg33
S'14'
p270
sg35
g184
sg37
S'@ATL'
p271
sg39
g77
sg41
g10
sg42
S'--'
p272
sss.