(dp0
S'2014'
p1
(dp2
S'11'
p3
(dp4
S'RushTD'
p5
S'--'
p6
sS'RushYds'
p7
S'--'
p8
sS'GS'
p9
S'0'
p10
sS'Lost'
p11
S'--'
p12
sS'G'
p13
g10
sS'Player'
p14
S'Aldrick Robinson'
p15
sS'Year'
p16
S'2014'
p17
sS'WK'
p18
S'11'
p19
sS'RushAvg'
p20
S'--'
p21
sS'Game Date'
p22
S'11/16'
p23
sS'RecAvg'
p24
S'--'
p25
sS'FUM'
p26
S'--'
p27
sS'RushAtt'
p28
S'--'
p29
sS'Result'
p30
S'L7-27'
p31
sS'RecYds'
p32
S'--'
p33
sS'Rec'
p34
S'--'
p35
sS'Opp'
p36
S'TB'
p37
sS'RecLng'
p38
S'--'
p39
sS'RecTD'
p40
S'--'
p41
sS'RushLng'
p42
S'--'
p43
ssS'10'
p44
(dp45
g5
S''
p46
sg7
g46
sg9
g46
sg11
g46
sg13
g46
sg14
S'Aldrick Robinson'
p47
sg16
S'2014'
p48
sg18
S'10'
p49
sg20
g46
sg22
S'Bye'
p50
sg24
g46
sg26
g46
sg28
g46
sg30
g46
sg32
g46
sg34
g46
sg36
g46
sg38
g46
sg40
g46
sg42
g46
ssS'13'
p51
(dp52
g5
S'--'
p53
sg7
S'--'
p54
sg9
g10
sg11
S'--'
p55
sg13
g10
sg14
S'Aldrick Robinson'
p56
sg16
S'2014'
p57
sg18
S'13'
p58
sg20
S'--'
p59
sg22
S'11/30'
p60
sg24
S'--'
p61
sg26
S'--'
p62
sg28
S'--'
p63
sg30
S'L27-49'
p64
sg32
S'--'
p65
sg34
S'--'
p66
sg36
S'@IND'
p67
sg38
S'--'
p68
sg40
S'--'
p69
sg42
S'--'
p70
ssS'12'
p71
(dp72
g5
S'--'
p73
sg7
S'--'
p74
sg9
g10
sg11
S'--'
p75
sg13
g10
sg14
S'Aldrick Robinson'
p76
sg16
S'2014'
p77
sg18
S'12'
p78
sg20
S'--'
p79
sg22
S'11/23'
p80
sg24
S'--'
p81
sg26
S'--'
p82
sg28
S'--'
p83
sg30
S'L13-17'
p84
sg32
S'--'
p85
sg34
S'--'
p86
sg36
S'@SF'
p87
sg38
S'--'
p88
sg40
S'--'
p89
sg42
S'--'
p90
ssS'1'
p91
(dp92
g5
S'--'
p93
sg7
S'--'
p94
sg9
g10
sg11
S'--'
p95
sg13
g91
sg14
S'Aldrick Robinson'
p96
sg16
S'2014'
p97
sg18
g91
sg20
S'--'
p98
sg22
S'09/07'
p99
sg24
S'--'
p100
sg26
S'--'
p101
sg28
S'--'
p102
sg30
S'L6-17'
p103
sg32
S'--'
p104
sg34
S'--'
p105
sg36
S'@HOU'
p106
sg38
S'--'
p107
sg40
S'--'
p108
sg42
S'--'
p109
ssS'3'
p110
(dp111
g5
S'--'
p112
sg7
S'--'
p113
sg9
g10
sg11
S'--'
p114
sg13
g91
sg14
S'Aldrick Robinson'
p115
sg16
S'2014'
p116
sg18
g110
sg20
S'--'
p117
sg22
S'09/21'
p118
sg24
S'--'
p119
sg26
S'--'
p120
sg28
S'--'
p121
sg30
S'L34-37'
p122
sg32
S'--'
p123
sg34
S'--'
p124
sg36
S'@PHI'
p125
sg38
S'--'
p126
sg40
S'--'
p127
sg42
S'--'
p128
ssS'2'
p129
(dp130
g5
S'--'
p131
sg7
S'--'
p132
sg9
g10
sg11
S'--'
p133
sg13
g91
sg14
S'Aldrick Robinson'
p134
sg16
S'2014'
p135
sg18
g129
sg20
S'--'
p136
sg22
S'09/14'
p137
sg24
S'6.0'
p138
sg26
S'--'
p139
sg28
S'--'
p140
sg30
S'W41-10'
p141
sg32
S'6'
p142
sg34
g91
sg36
S'JAC'
p143
sg38
g142
sg40
g10
sg42
S'--'
p144
ssS'5'
p145
(dp146
g5
S'--'
p147
sg7
S'--'
p148
sg9
g10
sg11
S'--'
p149
sg13
g91
sg14
S'Aldrick Robinson'
p150
sg16
S'2014'
p151
sg18
g145
sg20
S'--'
p152
sg22
S'10/06'
p153
sg24
S'--'
p154
sg26
S'--'
p155
sg28
S'--'
p156
sg30
S'L17-27'
p157
sg32
S'--'
p158
sg34
S'--'
p159
sg36
S'SEA'
p160
sg38
S'--'
p161
sg40
S'--'
p162
sg42
S'--'
p163
ssS'4'
p164
(dp165
g5
S'--'
p166
sg7
S'--'
p167
sg9
g10
sg11
S'--'
p168
sg13
g91
sg14
S'Aldrick Robinson'
p169
sg16
S'2014'
p170
sg18
g164
sg20
S'--'
p171
sg22
S'09/25'
p172
sg24
S'--'
p173
sg26
S'--'
p174
sg28
S'--'
p175
sg30
S'L14-45'
p176
sg32
g10
sg34
g10
sg36
S'NYG'
p177
sg38
S'--'
p178
sg40
g10
sg42
S'--'
p179
ssS'7'
p180
(dp181
g5
S'--'
p182
sg7
S'--'
p183
sg9
g10
sg11
S'--'
p184
sg13
g10
sg14
S'Aldrick Robinson'
p185
sg16
S'2014'
p186
sg18
g180
sg20
S'--'
p187
sg22
S'10/19'
p188
sg24
S'--'
p189
sg26
S'--'
p190
sg28
S'--'
p191
sg30
S'W19-17'
p192
sg32
S'--'
p193
sg34
S'--'
p194
sg36
S'TEN'
p195
sg38
S'--'
p196
sg40
S'--'
p197
sg42
S'--'
p198
ssg142
(dp199
g5
S'--'
p200
sg7
S'--'
p201
sg9
g10
sg11
S'--'
p202
sg13
g10
sg14
S'Aldrick Robinson'
p203
sg16
S'2014'
p204
sg18
g142
sg20
S'--'
p205
sg22
S'10/12'
p206
sg24
S'--'
p207
sg26
S'--'
p208
sg28
S'--'
p209
sg30
S'L20-30'
p210
sg32
S'--'
p211
sg34
S'--'
p212
sg36
S'@ARI'
p213
sg38
S'--'
p214
sg40
S'--'
p215
sg42
S'--'
p216
ssS'9'
p217
(dp218
g5
S'--'
p219
sg7
S'--'
p220
sg9
g10
sg11
S'--'
p221
sg13
g10
sg14
S'Aldrick Robinson'
p222
sg16
S'2014'
p223
sg18
g217
sg20
S'--'
p224
sg22
S'11/02'
p225
sg24
S'--'
p226
sg26
S'--'
p227
sg28
S'--'
p228
sg30
S'L26-29'
p229
sg32
S'--'
p230
sg34
S'--'
p231
sg36
S'@MIN'
p232
sg38
S'--'
p233
sg40
S'--'
p234
sg42
S'--'
p235
ssS'8'
p236
(dp237
g5
S'--'
p238
sg7
S'--'
p239
sg9
g10
sg11
S'--'
p240
sg13
g10
sg14
S'Aldrick Robinson'
p241
sg16
S'2014'
p242
sg18
g236
sg20
S'--'
p243
sg22
S'10/27'
p244
sg24
S'--'
p245
sg26
S'--'
p246
sg28
S'--'
p247
sg30
S'W20-17'
p248
sg32
S'--'
p249
sg34
S'--'
p250
sg36
S'@DAL'
p251
sg38
S'--'
p252
sg40
S'--'
p253
sg42
S'--'
p254
sssS'2011'
p255
(dp256
S'17'
p257
(dp258
g5
S'--'
p259
sg7
S'--'
p260
sg9
g10
sg11
S'--'
p261
sg13
g10
sg14
S'Aldrick Robinson'
p262
sg16
S'2011'
p263
sg18
S'17'
p264
sg20
S'--'
p265
sg22
S'01/01'
p266
sg24
S'--'
p267
sg26
S'--'
p268
sg28
S'--'
p269
sg30
S'L10-34'
p270
sg32
S'--'
p271
sg34
S'--'
p272
sg36
S'@PHI'
p273
sg38
S'--'
p274
sg40
S'--'
p275
sg42
S'--'
p276
sssS'2013'
p277
(dp278
g3
(dp279
g5
S'--'
p280
sg7
S'--'
p281
sg9
g10
sg11
S'--'
p282
sg13
g91
sg14
S'Aldrick Robinson'
p283
sg16
S'2013'
p284
sg18
S'11'
p285
sg20
S'--'
p286
sg22
S'11/17'
p287
sg24
S'30.0'
p288
sg26
S'--'
p289
sg28
S'--'
p290
sg30
S'L16-24'
p291
sg32
S'60'
p292
sg34
g129
sg36
S'@PHI'
p293
sg38
S'41T'
p294
sg40
g91
sg42
S'--'
p295
ssg44
(dp296
g5
S'--'
p297
sg7
S'--'
p298
sg9
g10
sg11
S'--'
p299
sg13
g91
sg14
S'Aldrick Robinson'
p300
sg16
S'2013'
p301
sg18
S'10'
p302
sg20
S'--'
p303
sg22
S'11/07'
p304
sg24
S'--'
p305
sg26
S'--'
p306
sg28
S'--'
p307
sg30
S'L27-34'
p308
sg32
S'--'
p309
sg34
S'--'
p310
sg36
S'@MIN'
p311
sg38
S'--'
p312
sg40
S'--'
p313
sg42
S'--'
p314
ssg51
(dp315
g5
g10
sg7
g217
sg9
g10
sg11
S'--'
p316
sg13
g91
sg14
S'Aldrick Robinson'
p317
sg16
S'2013'
p318
sg18
S'13'
p319
sg20
S'9.0'
p320
sg22
S'12/01'
p321
sg24
S'--'
p322
sg26
S'--'
p323
sg28
g91
sg30
S'L17-24'
p324
sg32
g10
sg34
g10
sg36
S'NYG'
p325
sg38
S'--'
p326
sg40
g10
sg42
g217
ssg71
(dp327
g5
S'--'
p328
sg7
S'--'
p329
sg9
g10
sg11
S'--'
p330
sg13
g91
sg14
S'Aldrick Robinson'
p331
sg16
S'2013'
p332
sg18
S'12'
p333
sg20
S'--'
p334
sg22
S'11/25'
p335
sg24
S'--'
p336
sg26
S'--'
p337
sg28
S'--'
p338
sg30
S'L6-27'
p339
sg32
g10
sg34
g10
sg36
S'SF'
p340
sg38
S'--'
p341
sg40
g10
sg42
S'--'
p342
ssS'15'
p343
(dp344
g5
S'--'
p345
sg7
S'--'
p346
sg9
g10
sg11
S'--'
p347
sg13
g91
sg14
S'Aldrick Robinson'
p348
sg16
S'2013'
p349
sg18
S'15'
p350
sg20
S'--'
p351
sg22
S'12/15'
p352
sg24
S'24.8'
p353
sg26
S'--'
p354
sg28
S'--'
p355
sg30
S'L26-27'
p356
sg32
S'99'
p357
sg34
g164
sg36
S'@ATL'
p358
sg38
S'62'
p359
sg40
g10
sg42
S'--'
p360
ssS'14'
p361
(dp362
g5
S'--'
p363
sg7
S'--'
p364
sg9
g10
sg11
S'--'
p365
sg13
g91
sg14
S'Aldrick Robinson'
p366
sg16
S'2013'
p367
sg18
S'14'
p368
sg20
S'--'
p369
sg22
S'12/08'
p370
sg24
S'16.8'
p371
sg26
S'--'
p372
sg28
S'--'
p373
sg30
S'L10-45'
p374
sg32
S'67'
p375
sg34
g164
sg36
S'KC'
p376
sg38
S'30'
p377
sg40
g10
sg42
S'--'
p378
ssg257
(dp379
g5
g10
sg7
S'-2'
p380
sg9
g91
sg11
S'--'
p381
sg13
g91
sg14
S'Aldrick Robinson'
p382
sg16
S'2013'
p383
sg18
S'17'
p384
sg20
S'-2.0'
p385
sg22
S'12/29'
p386
sg24
S'11.0'
p387
sg26
S'--'
p388
sg28
g91
sg30
S'L6-20'
p389
sg32
S'33'
p390
sg34
g110
sg36
S'@NYG'
p391
sg38
S'14'
p392
sg40
g10
sg42
S'-2'
p393
ssS'16'
p394
(dp395
g5
S'--'
p396
sg7
S'--'
p397
sg9
g10
sg11
S'--'
p398
sg13
g91
sg14
S'Aldrick Robinson'
p399
sg16
S'2013'
p400
sg18
S'16'
p401
sg20
S'--'
p402
sg22
S'12/22'
p403
sg24
S'14.0'
p404
sg26
S'--'
p405
sg28
S'--'
p406
sg30
S'L23-24'
p407
sg32
S'14'
p408
sg34
g91
sg36
S'DAL'
p409
sg38
S'14'
p410
sg40
g10
sg42
S'--'
p411
ssg91
(dp412
g5
S'--'
p413
sg7
S'--'
p414
sg9
g10
sg11
S'--'
p415
sg13
g91
sg14
S'Aldrick Robinson'
p416
sg16
S'2013'
p417
sg18
g91
sg20
S'--'
p418
sg22
S'09/09'
p419
sg24
S'--'
p420
sg26
S'--'
p421
sg28
S'--'
p422
sg30
S'L27-33'
p423
sg32
g10
sg34
g10
sg36
S'PHI'
p424
sg38
S'--'
p425
sg40
g10
sg42
S'--'
p426
ssg110
(dp427
g5
S'--'
p428
sg7
S'--'
p429
sg9
g10
sg11
S'--'
p430
sg13
g91
sg14
S'Aldrick Robinson'
p431
sg16
S'2013'
p432
sg18
g110
sg20
S'--'
p433
sg22
S'09/22'
p434
sg24
S'--'
p435
sg26
S'--'
p436
sg28
S'--'
p437
sg30
S'L20-27'
p438
sg32
g10
sg34
g10
sg36
S'DET'
p439
sg38
S'--'
p440
sg40
g10
sg42
S'--'
p441
ssg129
(dp442
g5
S'--'
p443
sg7
S'--'
p444
sg9
g10
sg11
S'--'
p445
sg13
g91
sg14
S'Aldrick Robinson'
p446
sg16
S'2013'
p447
sg18
g129
sg20
S'--'
p448
sg22
S'09/15'
p449
sg24
S'13.0'
p450
sg26
S'--'
p451
sg28
S'--'
p452
sg30
S'L20-38'
p453
sg32
S'13'
p454
sg34
g91
sg36
S'@GB'
p455
sg38
S'13'
p456
sg40
g10
sg42
S'--'
p457
ssg145
(dp458
g5
g46
sg7
g46
sg9
g46
sg11
g46
sg13
g46
sg14
S'Aldrick Robinson'
p459
sg16
S'2013'
p460
sg18
g145
sg20
g46
sg22
S'Bye'
p461
sg24
g46
sg26
g46
sg28
g46
sg30
g46
sg32
g46
sg34
g46
sg36
g46
sg38
g46
sg40
g46
sg42
g46
ssg164
(dp462
g5
S'--'
p463
sg7
S'--'
p464
sg9
g10
sg11
S'--'
p465
sg13
g91
sg14
S'Aldrick Robinson'
p466
sg16
S'2013'
p467
sg18
g164
sg20
S'--'
p468
sg22
S'09/29'
p469
sg24
S'--'
p470
sg26
S'--'
p471
sg28
S'--'
p472
sg30
S'W24-14'
p473
sg32
S'--'
p474
sg34
S'--'
p475
sg36
S'@OAK'
p476
sg38
S'--'
p477
sg40
S'--'
p478
sg42
S'--'
p479
ssg180
(dp480
g5
g10
sg7
S'-11'
p481
sg9
g10
sg11
S'--'
p482
sg13
g91
sg14
S'Aldrick Robinson'
p483
sg16
S'2013'
p484
sg18
g180
sg20
S'-11.0'
p485
sg22
S'10/20'
p486
sg24
S'37.5'
p487
sg26
S'--'
p488
sg28
g91
sg30
S'W45-41'
p489
sg32
S'75'
p490
sg34
g129
sg36
S'CHI'
p491
sg38
S'45T'
p492
sg40
g91
sg42
S'-11'
p493
ssg142
(dp494
g5
S'--'
p495
sg7
S'--'
p496
sg9
g10
sg11
S'--'
p497
sg13
g91
sg14
S'Aldrick Robinson'
p498
sg16
S'2013'
p499
sg18
g142
sg20
S'--'
p500
sg22
S'10/13'
p501
sg24
S'--'
p502
sg26
S'--'
p503
sg28
S'--'
p504
sg30
S'L16-31'
p505
sg32
S'--'
p506
sg34
S'--'
p507
sg36
S'@DAL'
p508
sg38
S'--'
p509
sg40
S'--'
p510
sg42
S'--'
p511
ssg217
(dp512
g5
S'--'
p513
sg7
S'--'
p514
sg9
g10
sg11
S'--'
p515
sg13
g91
sg14
S'Aldrick Robinson'
p516
sg16
S'2013'
p517
sg18
g217
sg20
S'--'
p518
sg22
S'11/03'
p519
sg24
S'4.0'
p520
sg26
S'--'
p521
sg28
S'--'
p522
sg30
S'W30-24'
p523
sg32
g164
sg34
g91
sg36
S'SD'
p524
sg38
g164
sg40
g10
sg42
S'--'
p525
ssg236
(dp526
g5
S'--'
p527
sg7
S'--'
p528
sg9
g10
sg11
S'--'
p529
sg13
g91
sg14
S'Aldrick Robinson'
p530
sg16
S'2013'
p531
sg18
g236
sg20
S'--'
p532
sg22
S'10/27'
p533
sg24
S'--'
p534
sg26
S'--'
p535
sg28
S'--'
p536
sg30
S'L21-45'
p537
sg32
g10
sg34
g10
sg36
S'@DEN'
p538
sg38
S'--'
p539
sg40
g10
sg42
S'--'
p540
sssS'2012'
p541
(dp542
g3
(dp543
g5
S'--'
p544
sg7
S'--'
p545
sg9
g10
sg11
S'--'
p546
sg13
g91
sg14
S'Aldrick Robinson'
p547
sg16
S'2012'
p548
sg18
S'11'
p549
sg20
S'--'
p550
sg22
S'11/18'
p551
sg24
S'49.0'
p552
sg26
S'--'
p553
sg28
S'--'
p554
sg30
S'W31-6'
p555
sg32
S'49'
p556
sg34
g91
sg36
S'PHI'
p557
sg38
S'49T'
p558
sg40
g91
sg42
S'--'
p559
ssg44
(dp560
g5
g46
sg7
g46
sg9
g46
sg11
g46
sg13
g46
sg14
S'Aldrick Robinson'
p561
sg16
S'2012'
p562
sg18
S'10'
p563
sg20
g46
sg22
S'Bye'
p564
sg24
g46
sg26
g46
sg28
g46
sg30
g46
sg32
g46
sg34
g46
sg36
g46
sg38
g46
sg40
g46
sg42
g46
ssg51
(dp565
g5
S'--'
p566
sg7
S'--'
p567
sg9
g10
sg11
S'--'
p568
sg13
g91
sg14
S'Aldrick Robinson'
p569
sg16
S'2012'
p570
sg18
S'13'
p571
sg20
S'--'
p572
sg22
S'12/03'
p573
sg24
S'--'
p574
sg26
S'--'
p575
sg28
S'--'
p576
sg30
S'W17-16'
p577
sg32
S'--'
p578
sg34
S'--'
p579
sg36
S'NYG'
p580
sg38
S'--'
p581
sg40
S'--'
p582
sg42
S'--'
p583
ssg71
(dp584
g5
S'--'
p585
sg7
S'--'
p586
sg9
g10
sg11
S'--'
p587
sg13
g91
sg14
S'Aldrick Robinson'
p588
sg16
S'2012'
p589
sg18
S'12'
p590
sg20
S'--'
p591
sg22
S'11/22'
p592
sg24
S'68.0'
p593
sg26
S'--'
p594
sg28
S'--'
p595
sg30
S'W38-31'
p596
sg32
S'68'
p597
sg34
g91
sg36
S'@DAL'
p598
sg38
S'68T'
p599
sg40
g91
sg42
S'--'
p600
ssg343
(dp601
g5
S'--'
p602
sg7
S'--'
p603
sg9
g10
sg11
S'--'
p604
sg13
g91
sg14
S'Aldrick Robinson'
p605
sg16
S'2012'
p606
sg18
S'15'
p607
sg20
S'--'
p608
sg22
S'12/16'
p609
sg24
S'--'
p610
sg26
S'--'
p611
sg28
S'--'
p612
sg30
S'W38-21'
p613
sg32
S'--'
p614
sg34
S'--'
p615
sg36
S'@CLE'
p616
sg38
S'--'
p617
sg40
S'--'
p618
sg42
S'--'
p619
ssg361
(dp620
g5
S'--'
p621
sg7
S'--'
p622
sg9
g10
sg11
S'--'
p623
sg13
g91
sg14
S'Aldrick Robinson'
p624
sg16
S'2012'
p625
sg18
S'14'
p626
sg20
S'--'
p627
sg22
S'12/09'
p628
sg24
S'--'
p629
sg26
S'--'
p630
sg28
S'--'
p631
sg30
S'W31-28'
p632
sg32
S'--'
p633
sg34
S'--'
p634
sg36
S'BAL'
p635
sg38
S'--'
p636
sg40
S'--'
p637
sg42
S'--'
p638
ssg257
(dp639
g5
S'--'
p640
sg7
S'--'
p641
sg9
g10
sg11
S'--'
p642
sg13
g91
sg14
S'Aldrick Robinson'
p643
sg16
S'2012'
p644
sg18
S'17'
p645
sg20
S'--'
p646
sg22
S'12/30'
p647
sg24
S'--'
p648
sg26
S'--'
p649
sg28
S'--'
p650
sg30
S'W28-18'
p651
sg32
S'--'
p652
sg34
S'--'
p653
sg36
S'DAL'
p654
sg38
S'--'
p655
sg40
S'--'
p656
sg42
S'--'
p657
ssg394
(dp658
g5
S'--'
p659
sg7
S'--'
p660
sg9
g10
sg11
S'--'
p661
sg13
g91
sg14
S'Aldrick Robinson'
p662
sg16
S'2012'
p663
sg18
S'16'
p664
sg20
S'--'
p665
sg22
S'12/23'
p666
sg24
S'--'
p667
sg26
S'--'
p668
sg28
S'--'
p669
sg30
S'W27-20'
p670
sg32
S'--'
p671
sg34
S'--'
p672
sg36
S'@PHI'
p673
sg38
S'--'
p674
sg40
S'--'
p675
sg42
S'--'
p676
ssg91
(dp677
g5
S'--'
p678
sg7
S'--'
p679
sg9
g10
sg11
S'--'
p680
sg13
g91
sg14
S'Aldrick Robinson'
p681
sg16
S'2012'
p682
sg18
g91
sg20
S'--'
p683
sg22
S'09/09'
p684
sg24
S'13.0'
p685
sg26
S'--'
p686
sg28
S'--'
p687
sg30
S'W40-32'
p688
sg32
S'52'
p689
sg34
g164
sg36
S'@NO'
p690
sg38
S'29'
p691
sg40
g91
sg42
S'--'
p692
ssg110
(dp693
g5
S'--'
p694
sg7
S'--'
p695
sg9
g10
sg11
S'--'
p696
sg13
g91
sg14
S'Aldrick Robinson'
p697
sg16
S'2012'
p698
sg18
g110
sg20
S'--'
p699
sg22
S'09/23'
p700
sg24
S'12.0'
p701
sg26
S'--'
p702
sg28
S'--'
p703
sg30
S'L31-38'
p704
sg32
S'12'
p705
sg34
g91
sg36
S'CIN'
p706
sg38
S'12'
p707
sg40
g10
sg42
S'--'
p708
ssg129
(dp709
g5
S'--'
p710
sg7
S'--'
p711
sg9
g91
sg11
S'--'
p712
sg13
g91
sg14
S'Aldrick Robinson'
p713
sg16
S'2012'
p714
sg18
g129
sg20
S'--'
p715
sg22
S'09/16'
p716
sg24
S'20.0'
p717
sg26
S'--'
p718
sg28
S'--'
p719
sg30
S'L28-31'
p720
sg32
S'40'
p721
sg34
g129
sg36
S'@STL'
p722
sg38
S'28'
p723
sg40
g10
sg42
S'--'
p724
ssg145
(dp725
g5
S'--'
p726
sg7
S'--'
p727
sg9
g10
sg11
S'--'
p728
sg13
g91
sg14
S'Aldrick Robinson'
p729
sg16
S'2012'
p730
sg18
g145
sg20
S'--'
p731
sg22
S'10/07'
p732
sg24
S'10.0'
p733
sg26
S'--'
p734
sg28
S'--'
p735
sg30
S'L17-24'
p736
sg32
S'10'
p737
sg34
g91
sg36
S'ATL'
p738
sg38
S'10'
p739
sg40
g10
sg42
S'--'
p740
ssg164
(dp741
g5
S'--'
p742
sg7
S'--'
p743
sg9
g10
sg11
S'--'
p744
sg13
g10
sg14
S'Aldrick Robinson'
p745
sg16
S'2012'
p746
sg18
g164
sg20
S'--'
p747
sg22
S'09/30'
p748
sg24
S'--'
p749
sg26
S'--'
p750
sg28
S'--'
p751
sg30
S'W24-22'
p752
sg32
S'--'
p753
sg34
S'--'
p754
sg36
S'@TB'
p755
sg38
S'--'
p756
sg40
S'--'
p757
sg42
S'--'
p758
ssg180
(dp759
g5
g10
sg7
S'14'
p760
sg9
g10
sg11
S'--'
p761
sg13
g91
sg14
S'Aldrick Robinson'
p762
sg16
S'2012'
p763
sg18
g180
sg20
S'14.0'
p764
sg22
S'10/21'
p765
sg24
S'--'
p766
sg26
S'--'
p767
sg28
g91
sg30
S'L23-27'
p768
sg32
g10
sg34
g10
sg36
S'@NYG'
p769
sg38
S'--'
p770
sg40
g10
sg42
S'14'
p771
ssg142
(dp772
g5
S'--'
p773
sg7
S'--'
p774
sg9
g10
sg11
S'--'
p775
sg13
g91
sg14
S'Aldrick Robinson'
p776
sg16
S'2012'
p777
sg18
g142
sg20
S'--'
p778
sg22
S'10/14'
p779
sg24
S'--'
p780
sg26
S'--'
p781
sg28
S'--'
p782
sg30
S'W38-26'
p783
sg32
S'--'
p784
sg34
S'--'
p785
sg36
S'MIN'
p786
sg38
S'--'
p787
sg40
S'--'
p788
sg42
S'--'
p789
ssg217
(dp790
g5
S'--'
p791
sg7
S'--'
p792
sg9
g91
sg11
S'--'
p793
sg13
g91
sg14
S'Aldrick Robinson'
p794
sg16
S'2012'
p795
sg18
g217
sg20
S'--'
p796
sg22
S'11/04'
p797
sg24
S'6.0'
p798
sg26
S'--'
p799
sg28
S'--'
p800
sg30
S'L13-21'
p801
sg32
g142
sg34
g91
sg36
S'CAR'
p802
sg38
g142
sg40
g10
sg42
S'--'
p803
ssg236
(dp804
g5
S'--'
p805
sg7
S'--'
p806
sg9
g10
sg11
S'--'
p807
sg13
g91
sg14
S'Aldrick Robinson'
p808
sg16
S'2012'
p809
sg18
g236
sg20
S'--'
p810
sg22
S'10/28'
p811
sg24
S'--'
p812
sg26
S'--'
p813
sg28
S'--'
p814
sg30
S'L12-27'
p815
sg32
g10
sg34
g10
sg36
S'@PIT'
p816
sg38
S'--'
p817
sg40
g10
sg42
S'--'
p818
sss.