(dp0
S'2015'
p1
(dp2
S'11'
p3
(dp4
S'RushTD'
p5
S'--'
p6
sS'RushYds'
p7
S'--'
p8
sS'GS'
p9
S'1'
p10
sS'Lost'
p11
S'--'
p12
sS'G'
p13
g10
sS'Player'
p14
S'Allen Hurns'
p15
sS'Year'
p16
S'2015'
p17
sS'WK'
p18
S'11'
p19
sS'RushAvg'
p20
S'--'
p21
sS'Game Date'
p22
S'11/19'
p23
sS'RecAvg'
p24
S'6.3'
p25
sS'FUM'
p26
S'--'
p27
sS'RushAtt'
p28
S'--'
p29
sS'Result'
p30
S'W19-13'
p31
sS'RecYds'
p32
S'19'
p33
sS'Rec'
p34
S'3'
p35
sS'Opp'
p36
S'TEN'
p37
sS'RecLng'
p38
S'7'
p39
sS'RecTD'
p40
S'0'
p41
sS'RushLng'
p42
S'--'
p43
ssS'10'
p44
(dp45
g5
S'--'
p46
sg7
S'--'
p47
sg9
g10
sg11
S'--'
p48
sg13
g10
sg14
S'Allen Hurns'
p49
sg16
S'2015'
p50
sg18
S'10'
p51
sg20
S'--'
p52
sg22
S'11/15'
p53
sg24
S'12.4'
p54
sg26
S'--'
p55
sg28
S'--'
p56
sg30
S'W22-20'
p57
sg32
S'62'
p58
sg34
S'5'
p59
sg36
S'@BAL'
p60
sg38
S'21'
p61
sg40
g10
sg42
S'--'
p62
ssS'13'
p63
(dp64
g5
S'--'
p65
sg7
S'--'
p66
sg9
g41
sg11
S'--'
p67
sg13
g41
sg14
S'Allen Hurns'
p68
sg16
S'2015'
p69
sg18
S'13'
p70
sg20
S'--'
p71
sg22
S'12/06'
p72
sg24
S'--'
p73
sg26
S'--'
p74
sg28
S'--'
p75
sg30
S'L39-42'
p76
sg32
S'--'
p77
sg34
S'--'
p78
sg36
S'@TEN'
p79
sg38
S'--'
p80
sg40
S'--'
p81
sg42
S'--'
p82
ssS'12'
p83
(dp84
g5
S'--'
p85
sg7
S'--'
p86
sg9
g10
sg11
S'--'
p87
sg13
g10
sg14
S'Allen Hurns'
p88
sg16
S'2015'
p89
sg18
S'12'
p90
sg20
S'--'
p91
sg22
S'11/29'
p92
sg24
S'10.5'
p93
sg26
S'--'
p94
sg28
S'--'
p95
sg30
S'L25-31'
p96
sg32
S'42'
p97
sg34
S'4'
p98
sg36
S'SD'
p99
sg38
S'29'
p100
sg40
g41
sg42
S'--'
p101
ssS'15'
p102
(dp103
g5
S'--'
p104
sg7
S'--'
p105
sg9
g10
sg11
S'--'
p106
sg13
g10
sg14
S'Allen Hurns'
p107
sg16
S'2015'
p108
sg18
S'15'
p109
sg20
S'--'
p110
sg22
S'12/20'
p111
sg24
S'22.0'
p112
sg26
S'--'
p113
sg28
S'--'
p114
sg30
S'L17-23'
p115
sg32
S'44'
p116
sg34
S'2'
p117
sg36
S'ATL'
p118
sg38
S'22'
p119
sg40
g41
sg42
S'--'
p120
ssS'14'
p121
(dp122
g5
S'--'
p123
sg7
S'--'
p124
sg9
g10
sg11
S'--'
p125
sg13
g10
sg14
S'Allen Hurns'
p126
sg16
S'2015'
p127
sg18
S'14'
p128
sg20
S'--'
p129
sg22
S'12/13'
p130
sg24
S'35.0'
p131
sg26
S'--'
p132
sg28
S'--'
p133
sg30
S'W51-16'
p134
sg32
S'105'
p135
sg34
g35
sg36
S'IND'
p136
sg38
S'80T'
p137
sg40
g10
sg42
S'--'
p138
ssS'17'
p139
(dp140
g5
S'--'
p141
sg7
S'--'
p142
sg9
g10
sg11
S'--'
p143
sg13
g10
sg14
S'Allen Hurns'
p144
sg16
S'2015'
p145
sg18
S'17'
p146
sg20
S'--'
p147
sg22
S'01/03'
p148
sg24
S'5.7'
p149
sg26
S'--'
p150
sg28
S'--'
p151
sg30
S'L6-30'
p152
sg32
S'17'
p153
sg34
g35
sg36
S'@HOU'
p154
sg38
S'6'
p155
sg40
g41
sg42
S'--'
p156
ssS'16'
p157
(dp158
g5
S'--'
p159
sg7
S'--'
p160
sg9
g10
sg11
S'--'
p161
sg13
g10
sg14
S'Allen Hurns'
p162
sg16
S'2015'
p163
sg18
S'16'
p164
sg20
S'--'
p165
sg22
S'12/27'
p166
sg24
S'13.4'
p167
sg26
S'--'
p168
sg28
S'--'
p169
sg30
S'L27-38'
p170
sg32
S'107'
p171
sg34
S'8'
p172
sg36
S'@NO'
p173
sg38
S'24'
p174
sg40
g117
sg42
S'--'
p175
ssg10
(dp176
g5
S'--'
p177
sg7
S'--'
p178
sg9
g10
sg11
g10
sg13
g10
sg14
S'Allen Hurns'
p179
sg16
S'2015'
p180
sg18
g10
sg20
S'--'
p181
sg22
S'09/13'
p182
sg24
S'12.0'
p183
sg26
g10
sg28
S'--'
p184
sg30
S'L9-20'
p185
sg32
S'60'
p186
sg34
g59
sg36
S'CAR'
p187
sg38
S'24'
p188
sg40
g41
sg42
S'--'
p189
ssg35
(dp190
g5
S'--'
p191
sg7
S'--'
p192
sg9
g10
sg11
S'--'
p193
sg13
g10
sg14
S'Allen Hurns'
p194
sg16
S'2015'
p195
sg18
g35
sg20
S'--'
p196
sg22
S'09/27'
p197
sg24
S'35.0'
p198
sg26
S'--'
p199
sg28
S'--'
p200
sg30
S'L17-51'
p201
sg32
S'70'
p202
sg34
g117
sg36
S'@NE'
p203
sg38
S'59T'
p204
sg40
g10
sg42
S'--'
p205
ssg117
(dp206
g5
S'--'
p207
sg7
S'--'
p208
sg9
g10
sg11
S'--'
p209
sg13
g10
sg14
S'Allen Hurns'
p210
sg16
S'2015'
p211
sg18
g117
sg20
S'--'
p212
sg22
S'09/20'
p213
sg24
S'17.0'
p214
sg26
S'--'
p215
sg28
S'--'
p216
sg30
S'W23-20'
p217
sg32
S'68'
p218
sg34
g98
sg36
S'MIA'
p219
sg38
S'24'
p220
sg40
g41
sg42
S'--'
p221
ssg59
(dp222
g5
S'--'
p223
sg7
S'--'
p224
sg9
g10
sg11
S'--'
p225
sg13
g10
sg14
S'Allen Hurns'
p226
sg16
S'2015'
p227
sg18
g59
sg20
S'--'
p228
sg22
S'10/11'
p229
sg24
S'23.2'
p230
sg26
S'--'
p231
sg28
S'--'
p232
sg30
S'L31-38'
p233
sg32
S'116'
p234
sg34
g59
sg36
S'@TB'
p235
sg38
S'59'
p236
sg40
g10
sg42
S'--'
p237
ssg98
(dp238
g5
S'--'
p239
sg7
S'--'
p240
sg9
g10
sg11
g41
sg13
g10
sg14
S'Allen Hurns'
p241
sg16
S'2015'
p242
sg18
g98
sg20
S'--'
p243
sg22
S'10/04'
p244
sg24
S'10.5'
p245
sg26
g10
sg28
S'--'
p246
sg30
S'L13-16'
p247
sg32
S'116'
p248
sg34
S'11'
p249
sg36
S'@IND'
p250
sg38
S'26'
p251
sg40
g10
sg42
S'--'
p252
ssg39
(dp253
g5
S'--'
p254
sg7
S'--'
p255
sg9
g10
sg11
S'--'
p256
sg13
g10
sg14
S'Allen Hurns'
p257
sg16
S'2015'
p258
sg18
g39
sg20
S'--'
p259
sg22
S'10/25'
p260
sg24
S'26.5'
p261
sg26
S'--'
p262
sg28
S'--'
p263
sg30
S'W34-31'
p264
sg32
S'53'
p265
sg34
g117
sg36
S'BUF'
p266
sg38
S'31T'
p267
sg40
g10
sg42
S'--'
p268
ssg155
(dp269
g5
S'--'
p270
sg7
S'--'
p271
sg9
g10
sg11
S'--'
p272
sg13
g10
sg14
S'Allen Hurns'
p273
sg16
S'2015'
p274
sg18
g155
sg20
S'--'
p275
sg22
S'10/18'
p276
sg24
S'15.0'
p277
sg26
S'--'
p278
sg28
S'--'
p279
sg30
S'L20-31'
p280
sg32
S'30'
p281
sg34
g117
sg36
S'HOU'
p282
sg38
S'19'
p283
sg40
g10
sg42
S'--'
p284
ssS'9'
p285
(dp286
g5
S'--'
p287
sg7
S'--'
p288
sg9
g10
sg11
S'--'
p289
sg13
g10
sg14
S'Allen Hurns'
p290
sg16
S'2015'
p291
sg18
g285
sg20
S'--'
p292
sg22
S'11/08'
p293
sg24
S'24.4'
p294
sg26
S'--'
p295
sg28
S'--'
p296
sg30
S'L23-28'
p297
sg32
S'122'
p298
sg34
g59
sg36
S'@NYJ'
p299
sg38
S'30T'
p300
sg40
g10
sg42
S'--'
p301
ssg172
(dp302
g5
S''
p303
sg7
g303
sg9
g303
sg11
g303
sg13
g303
sg14
S'Allen Hurns'
p304
sg16
S'2015'
p305
sg18
g172
sg20
g303
sg22
S'Bye'
p306
sg24
g303
sg26
g303
sg28
g303
sg30
g303
sg32
g303
sg34
g303
sg36
g303
sg38
g303
sg40
g303
sg42
g303
sssS'2014'
p307
(dp308
g3
(dp309
g5
g303
sg7
g303
sg9
g303
sg11
g303
sg13
g303
sg14
S'Allen Hurns'
p310
sg16
S'2014'
p311
sg18
S'11'
p312
sg20
g303
sg22
S'Bye'
p313
sg24
g303
sg26
g303
sg28
g303
sg30
g303
sg32
g303
sg34
g303
sg36
g303
sg38
g303
sg40
g303
sg42
g303
ssg44
(dp314
g5
S'--'
p315
sg7
S'--'
p316
sg9
g41
sg11
S'--'
p317
sg13
g10
sg14
S'Allen Hurns'
p318
sg16
S'2014'
p319
sg18
S'10'
p320
sg20
S'--'
p321
sg22
S'11/09'
p322
sg24
S'9.0'
p323
sg26
S'--'
p324
sg28
S'--'
p325
sg30
S'L17-31'
p326
sg32
g285
sg34
g10
sg36
S'DAL'
p327
sg38
g285
sg40
g41
sg42
S'--'
p328
ssg63
(dp329
g5
S'--'
p330
sg7
S'--'
p331
sg9
g10
sg11
S'--'
p332
sg13
g10
sg14
S'Allen Hurns'
p333
sg16
S'2014'
p334
sg18
S'13'
p335
sg20
S'--'
p336
sg22
S'11/30'
p337
sg24
S'10.5'
p338
sg26
S'--'
p339
sg28
S'--'
p340
sg30
S'W25-24'
p341
sg32
S'42'
p342
sg34
g98
sg36
S'NYG'
p343
sg38
S'14'
p344
sg40
g41
sg42
S'--'
p345
ssg83
(dp346
g5
S'--'
p347
sg7
S'--'
p348
sg9
g10
sg11
S'--'
p349
sg13
g10
sg14
S'Allen Hurns'
p350
sg16
S'2014'
p351
sg18
S'12'
p352
sg20
S'--'
p353
sg22
S'11/23'
p354
sg24
S'13.0'
p355
sg26
S'--'
p356
sg28
S'--'
p357
sg30
S'L3-23'
p358
sg32
S'13'
p359
sg34
g10
sg36
S'@IND'
p360
sg38
S'13'
p361
sg40
g41
sg42
S'--'
p362
ssg102
(dp363
g5
S'--'
p364
sg7
S'--'
p365
sg9
g41
sg11
S'--'
p366
sg13
g10
sg14
S'Allen Hurns'
p367
sg16
S'2014'
p368
sg18
S'15'
p369
sg20
S'--'
p370
sg22
S'12/14'
p371
sg24
S'11.7'
p372
sg26
S'--'
p373
sg28
S'--'
p374
sg30
S'L12-20'
p375
sg32
S'70'
p376
sg34
g155
sg36
S'@BAL'
p377
sg38
S'27'
p378
sg40
g41
sg42
S'--'
p379
ssg121
(dp380
g5
S'--'
p381
sg7
S'--'
p382
sg9
g41
sg11
S'--'
p383
sg13
g10
sg14
S'Allen Hurns'
p384
sg16
S'2014'
p385
sg18
S'14'
p386
sg20
S'--'
p387
sg22
S'12/07'
p388
sg24
S'7.2'
p389
sg26
S'--'
p390
sg28
S'--'
p391
sg30
S'L13-27'
p392
sg32
S'36'
p393
sg34
g59
sg36
S'HOU'
p394
sg38
S'16'
p395
sg40
g10
sg42
S'--'
p396
ssg139
(dp397
g5
S'--'
p398
sg7
S'--'
p399
sg9
g10
sg11
S'--'
p400
sg13
g10
sg14
S'Allen Hurns'
p401
sg16
S'2014'
p402
sg18
S'17'
p403
sg20
S'--'
p404
sg22
S'12/28'
p405
sg24
S'7.5'
p406
sg26
S'--'
p407
sg28
S'--'
p408
sg30
S'L17-23'
p409
sg32
S'15'
p410
sg34
g117
sg36
S'@HOU'
p411
sg38
S'10'
p412
sg40
g41
sg42
S'--'
p413
ssg157
(dp414
g5
S'--'
p415
sg7
S'--'
p416
sg9
g41
sg11
S'--'
p417
sg13
g10
sg14
S'Allen Hurns'
p418
sg16
S'2014'
p419
sg18
S'16'
p420
sg20
S'--'
p421
sg22
S'12/18'
p422
sg24
S'8.7'
p423
sg26
S'--'
p424
sg28
S'--'
p425
sg30
S'W21-13'
p426
sg32
S'26'
p427
sg34
g35
sg36
S'TEN'
p428
sg38
S'15'
p429
sg40
g41
sg42
S'--'
p430
ssg10
(dp431
g5
S'--'
p432
sg7
S'--'
p433
sg9
g10
sg11
S'--'
p434
sg13
g10
sg14
S'Allen Hurns'
p435
sg16
S'2014'
p436
sg18
g10
sg20
S'--'
p437
sg22
S'09/07'
p438
sg24
S'27.5'
p439
sg26
S'--'
p440
sg28
S'--'
p441
sg30
S'L17-34'
p442
sg32
S'110'
p443
sg34
g98
sg36
S'@PHI'
p444
sg38
S'46'
p445
sg40
g117
sg42
S'--'
p446
ssg35
(dp447
g5
S'--'
p448
sg7
S'--'
p449
sg9
g41
sg11
S'--'
p450
sg13
g10
sg14
S'Allen Hurns'
p451
sg16
S'2014'
p452
sg18
g35
sg20
S'--'
p453
sg22
S'09/21'
p454
sg24
S'63.0'
p455
sg26
S'--'
p456
sg28
S'--'
p457
sg30
S'L17-44'
p458
sg32
S'63'
p459
sg34
g10
sg36
S'IND'
p460
sg38
S'63T'
p461
sg40
g10
sg42
S'--'
p462
ssg117
(dp463
g5
S'--'
p464
sg7
S'--'
p465
sg9
g10
sg11
S'--'
p466
sg13
g10
sg14
S'Allen Hurns'
p467
sg16
S'2014'
p468
sg18
g117
sg20
S'--'
p469
sg22
S'09/14'
p470
sg24
S'6.5'
p471
sg26
S'--'
p472
sg28
S'--'
p473
sg30
S'L10-41'
p474
sg32
S'13'
p475
sg34
g117
sg36
S'@WAS'
p476
sg38
S'10'
p477
sg40
g41
sg42
S'--'
p478
ssg59
(dp479
g5
S'--'
p480
sg7
S'--'
p481
sg9
g10
sg11
S'--'
p482
sg13
g10
sg14
S'Allen Hurns'
p483
sg16
S'2014'
p484
sg18
g59
sg20
S'--'
p485
sg22
S'10/05'
p486
sg24
S'6.5'
p487
sg26
S'--'
p488
sg28
S'--'
p489
sg30
S'L9-17'
p490
sg32
S'26'
p491
sg34
g98
sg36
S'PIT'
p492
sg38
g285
sg40
g41
sg42
S'--'
p493
ssg98
(dp494
g5
S'--'
p495
sg7
S'--'
p496
sg9
g10
sg11
S'--'
p497
sg13
g10
sg14
S'Allen Hurns'
p498
sg16
S'2014'
p499
sg18
g98
sg20
S'--'
p500
sg22
S'09/28'
p501
sg24
S'13.6'
p502
sg26
S'--'
p503
sg28
S'--'
p504
sg30
S'L14-33'
p505
sg32
S'68'
p506
sg34
g59
sg36
S'@SD'
p507
sg38
S'44'
p508
sg40
g41
sg42
S'--'
p509
ssg39
(dp510
g5
S'--'
p511
sg7
S'--'
p512
sg9
g10
sg11
S'--'
p513
sg13
g10
sg14
S'Allen Hurns'
p514
sg16
S'2014'
p515
sg18
g39
sg20
S'--'
p516
sg22
S'10/19'
p517
sg24
S'7.0'
p518
sg26
S'--'
p519
sg28
S'--'
p520
sg30
S'W24-6'
p521
sg32
g39
sg34
g10
sg36
S'CLE'
p522
sg38
g39
sg40
g41
sg42
S'--'
p523
ssg155
(dp524
g5
S'--'
p525
sg7
S'--'
p526
sg9
g41
sg11
S'--'
p527
sg13
g10
sg14
S'Allen Hurns'
p528
sg16
S'2014'
p529
sg18
g155
sg20
S'--'
p530
sg22
S'10/12'
p531
sg24
S'9.0'
p532
sg26
S'--'
p533
sg28
S'--'
p534
sg30
S'L14-16'
p535
sg32
S'18'
p536
sg34
g117
sg36
S'@TEN'
p537
sg38
S'10'
p538
sg40
g41
sg42
S'--'
p539
ssg285
(dp540
g5
S'--'
p541
sg7
S'--'
p542
sg9
g41
sg11
S'--'
p543
sg13
g10
sg14
S'Allen Hurns'
p544
sg16
S'2014'
p545
sg18
g285
sg20
S'--'
p546
sg22
S'11/02'
p547
sg24
S'16.0'
p548
sg26
S'--'
p549
sg28
S'--'
p550
sg30
S'L23-33'
p551
sg32
S'112'
p552
sg34
g39
sg36
S'@CIN'
p553
sg38
S'40T'
p554
sg40
g117
sg42
S'--'
p555
ssg172
(dp556
g5
S'--'
p557
sg7
S'--'
p558
sg9
g41
sg11
S'--'
p559
sg13
g10
sg14
S'Allen Hurns'
p560
sg16
S'2014'
p561
sg18
g172
sg20
S'--'
p562
sg22
S'10/26'
p563
sg24
S'16.3'
p564
sg26
S'--'
p565
sg28
S'--'
p566
sg30
S'L13-27'
p567
sg32
S'49'
p568
sg34
g35
sg36
S'MIA'
p569
sg38
S'20'
p570
sg40
g41
sg42
S'--'
p571
sss.