(dp0
S'2015'
p1
(dp2
S'11'
p3
(dp4
S'RushTD'
p5
S'--'
p6
sS'RushYds'
p7
S'--'
p8
sS'GS'
p9
S'1'
p10
sS'Lost'
p11
S'--'
p12
sS'G'
p13
g10
sS'Player'
p14
S'Allen Robinson'
p15
sS'Year'
p16
S'2015'
p17
sS'WK'
p18
S'11'
p19
sS'RushAvg'
p20
S'--'
p21
sS'Game Date'
p22
S'11/19'
p23
sS'RecAvg'
p24
S'22.6'
p25
sS'FUM'
p26
S'--'
p27
sS'RushAtt'
p28
S'--'
p29
sS'Result'
p30
S'W19-13'
p31
sS'RecYds'
p32
S'113'
p33
sS'Rec'
p34
S'5'
p35
sS'Opp'
p36
S'TEN'
p37
sS'RecLng'
p38
S'38'
p39
sS'RecTD'
p40
S'0'
p41
sS'RushLng'
p42
S'--'
p43
ssS'10'
p44
(dp45
g5
S'--'
p46
sg7
S'--'
p47
sg9
g10
sg11
S'--'
p48
sg13
g10
sg14
S'Allen Robinson'
p49
sg16
S'2015'
p50
sg18
S'10'
p51
sg20
S'--'
p52
sg22
S'11/15'
p53
sg24
S'10.2'
p54
sg26
S'--'
p55
sg28
S'--'
p56
sg30
S'W22-20'
p57
sg32
S'51'
p58
sg34
g35
sg36
S'@BAL'
p59
sg38
S'16'
p60
sg40
g10
sg42
S'--'
p61
ssS'13'
p62
(dp63
g5
S'--'
p64
sg7
S'--'
p65
sg9
g10
sg11
S'--'
p66
sg13
g10
sg14
S'Allen Robinson'
p67
sg16
S'2015'
p68
sg18
S'13'
p69
sg20
S'--'
p70
sg22
S'12/06'
p71
sg24
S'15.3'
p72
sg26
S'--'
p73
sg28
S'--'
p74
sg30
S'L39-42'
p75
sg32
S'153'
p76
sg34
S'10'
p77
sg36
S'@TEN'
p78
sg38
S'44'
p79
sg40
S'3'
p80
sg42
S'--'
p81
ssS'12'
p82
(dp83
g5
S'--'
p84
sg7
S'--'
p85
sg9
g10
sg11
S'--'
p86
sg13
g10
sg14
S'Allen Robinson'
p87
sg16
S'2015'
p88
sg18
S'12'
p89
sg20
S'--'
p90
sg22
S'11/29'
p91
sg24
S'11.2'
p92
sg26
S'--'
p93
sg28
S'--'
p94
sg30
S'L25-31'
p95
sg32
S'56'
p96
sg34
g35
sg36
S'SD'
p97
sg38
S'25'
p98
sg40
g10
sg42
S'--'
p99
ssS'15'
p100
(dp101
g5
S'--'
p102
sg7
S'--'
p103
sg9
g10
sg11
S'--'
p104
sg13
g10
sg14
S'Allen Robinson'
p105
sg16
S'2015'
p106
sg18
S'15'
p107
sg20
S'--'
p108
sg22
S'12/20'
p109
sg24
S'19.0'
p110
sg26
S'--'
p111
sg28
S'--'
p112
sg30
S'L17-23'
p113
sg32
S'57'
p114
sg34
g80
sg36
S'ATL'
p115
sg38
S'25'
p116
sg40
g10
sg42
S'--'
p117
ssS'14'
p118
(dp119
g5
S'--'
p120
sg7
S'--'
p121
sg9
g10
sg11
S'--'
p122
sg13
g10
sg14
S'Allen Robinson'
p123
sg16
S'2015'
p124
sg18
S'14'
p125
sg20
S'--'
p126
sg22
S'12/13'
p127
sg24
S'4.0'
p128
sg26
S'--'
p129
sg28
S'--'
p130
sg30
S'W51-16'
p131
sg32
S'4'
p132
sg34
g10
sg36
S'IND'
p133
sg38
S'4T'
p134
sg40
g10
sg42
S'--'
p135
ssS'17'
p136
(dp137
g5
S'--'
p138
sg7
S'--'
p139
sg9
g10
sg11
S'--'
p140
sg13
g10
sg14
S'Allen Robinson'
p141
sg16
S'2015'
p142
sg18
S'17'
p143
sg20
S'--'
p144
sg22
S'01/03'
p145
sg24
S'21.6'
p146
sg26
S'--'
p147
sg28
S'--'
p148
sg30
S'L6-30'
p149
sg32
S'108'
p150
sg34
g35
sg36
S'@HOU'
p151
sg38
S'36'
p152
sg40
g41
sg42
S'--'
p153
ssS'16'
p154
(dp155
g5
S'--'
p156
sg7
S'--'
p157
sg9
g10
sg11
S'--'
p158
sg13
g10
sg14
S'Allen Robinson'
p159
sg16
S'2015'
p160
sg18
S'16'
p161
sg20
S'--'
p162
sg22
S'12/27'
p163
sg24
S'25.2'
p164
sg26
S'--'
p165
sg28
S'--'
p166
sg30
S'L27-38'
p167
sg32
S'151'
p168
sg34
S'6'
p169
sg36
S'@NO'
p170
sg38
S'90T'
p171
sg40
g10
sg42
S'--'
p172
ssg10
(dp173
g5
S'--'
p174
sg7
S'--'
p175
sg9
g10
sg11
S'--'
p176
sg13
g10
sg14
S'Allen Robinson'
p177
sg16
S'2015'
p178
sg18
g10
sg20
S'--'
p179
sg22
S'09/13'
p180
sg24
S'27.0'
p181
sg26
S'--'
p182
sg28
S'--'
p183
sg30
S'L9-20'
p184
sg32
S'27'
p185
sg34
g10
sg36
S'CAR'
p186
sg38
S'27'
p187
sg40
g41
sg42
S'--'
p188
ssg80
(dp189
g5
S'--'
p190
sg7
S'--'
p191
sg9
g10
sg11
S'--'
p192
sg13
g10
sg14
S'Allen Robinson'
p193
sg16
S'2015'
p194
sg18
g80
sg20
S'--'
p195
sg22
S'09/27'
p196
sg24
S'17.0'
p197
sg26
S'--'
p198
sg28
S'--'
p199
sg30
S'L17-51'
p200
sg32
S'68'
p201
sg34
g132
sg36
S'@NE'
p202
sg38
S'37'
p203
sg40
g41
sg42
S'--'
p204
ssS'2'
p205
(dp206
g5
S'--'
p207
sg7
S'--'
p208
sg9
g10
sg11
S'--'
p209
sg13
g10
sg14
S'Allen Robinson'
p210
sg16
S'2015'
p211
sg18
g205
sg20
S'--'
p212
sg22
S'09/20'
p213
sg24
S'25.8'
p214
sg26
S'--'
p215
sg28
S'--'
p216
sg30
S'W23-20'
p217
sg32
S'155'
p218
sg34
g169
sg36
S'MIA'
p219
sg38
S'52'
p220
sg40
g205
sg42
S'--'
p221
ssg35
(dp222
g5
S'--'
p223
sg7
S'--'
p224
sg9
g10
sg11
S'--'
p225
sg13
g10
sg14
S'Allen Robinson'
p226
sg16
S'2015'
p227
sg18
g35
sg20
S'--'
p228
sg22
S'10/11'
p229
sg24
S'10.3'
p230
sg26
S'--'
p231
sg28
S'--'
p232
sg30
S'L31-38'
p233
sg32
S'72'
p234
sg34
S'7'
p235
sg36
S'@TB'
p236
sg38
S'21'
p237
sg40
g205
sg42
S'--'
p238
ssg132
(dp239
g5
S'--'
p240
sg7
S'--'
p241
sg9
g10
sg11
S'--'
p242
sg13
g10
sg14
S'Allen Robinson'
p243
sg16
S'2015'
p244
sg18
g132
sg20
S'--'
p245
sg22
S'10/04'
p246
sg24
S'20.0'
p247
sg26
S'--'
p248
sg28
S'--'
p249
sg30
S'L13-16'
p250
sg32
S'80'
p251
sg34
g132
sg36
S'@IND'
p252
sg38
S'48'
p253
sg40
g41
sg42
S'--'
p254
ssg235
(dp255
g5
S'--'
p256
sg7
S'--'
p257
sg9
g10
sg11
S'--'
p258
sg13
g10
sg14
S'Allen Robinson'
p259
sg16
S'2015'
p260
sg18
g235
sg20
S'--'
p261
sg22
S'10/25'
p262
sg24
S'16.3'
p263
sg26
S'--'
p264
sg28
S'--'
p265
sg30
S'W34-31'
p266
sg32
S'98'
p267
sg34
g169
sg36
S'BUF'
p268
sg38
S'23'
p269
sg40
g10
sg42
S'--'
p270
ssg169
(dp271
g5
S'--'
p272
sg7
S'--'
p273
sg9
g10
sg11
S'--'
p274
sg13
g10
sg14
S'Allen Robinson'
p275
sg16
S'2015'
p276
sg18
g169
sg20
S'--'
p277
sg22
S'10/18'
p278
sg24
S'14.3'
p279
sg26
S'--'
p280
sg28
S'--'
p281
sg30
S'L20-31'
p282
sg32
S'86'
p283
sg34
g169
sg36
S'HOU'
p284
sg38
S'25'
p285
sg40
g10
sg42
S'--'
p286
ssS'9'
p287
(dp288
g5
S'--'
p289
sg7
S'--'
p290
sg9
g10
sg11
S'--'
p291
sg13
g10
sg14
S'Allen Robinson'
p292
sg16
S'2015'
p293
sg18
g287
sg20
S'--'
p294
sg22
S'11/08'
p295
sg24
S'20.2'
p296
sg26
S'--'
p297
sg28
S'--'
p298
sg30
S'L23-28'
p299
sg32
S'121'
p300
sg34
g169
sg36
S'@NYJ'
p301
sg38
S'44'
p302
sg40
g41
sg42
S'--'
p303
ssS'8'
p304
(dp305
g5
S''
p306
sg7
g306
sg9
g306
sg11
g306
sg13
g306
sg14
S'Allen Robinson'
p307
sg16
S'2015'
p308
sg18
g304
sg20
g306
sg22
S'Bye'
p309
sg24
g306
sg26
g306
sg28
g306
sg30
g306
sg32
g306
sg34
g306
sg36
g306
sg38
g306
sg40
g306
sg42
g306
sssS'2014'
p310
(dp311
g44
(dp312
g5
S'--'
p313
sg7
S'--'
p314
sg9
g10
sg11
S'--'
p315
sg13
g10
sg14
S'Allen Robinson'
p316
sg16
S'2014'
p317
sg18
S'10'
p318
sg20
S'--'
p319
sg22
S'11/09'
p320
sg24
S'12.0'
p321
sg26
S'--'
p322
sg28
S'--'
p323
sg30
S'L17-31'
p324
sg32
S'60'
p325
sg34
g35
sg36
S'DAL'
p326
sg38
S'31'
p327
sg40
g41
sg42
S'--'
p328
ssg10
(dp329
g5
S'--'
p330
sg7
S'--'
p331
sg9
g41
sg11
S'--'
p332
sg13
g10
sg14
S'Allen Robinson'
p333
sg16
S'2014'
p334
sg18
g10
sg20
S'--'
p335
sg22
S'09/07'
p336
sg24
S'0.0'
p337
sg26
S'--'
p338
sg28
S'--'
p339
sg30
S'L17-34'
p340
sg32
g41
sg34
g10
sg36
S'@PHI'
p341
sg38
g41
sg40
g41
sg42
S'--'
p342
ssg80
(dp343
g5
S'--'
p344
sg7
S'--'
p345
sg9
g10
sg11
S'--'
p346
sg13
g10
sg14
S'Allen Robinson'
p347
sg16
S'2014'
p348
sg18
g80
sg20
S'--'
p349
sg22
S'09/21'
p350
sg24
S'11.3'
p351
sg26
S'--'
p352
sg28
S'--'
p353
sg30
S'L17-44'
p354
sg32
S'79'
p355
sg34
g235
sg36
S'IND'
p356
sg38
S'21'
p357
sg40
g41
sg42
S'--'
p358
ssg205
(dp359
g5
S'--'
p360
sg7
S'--'
p361
sg9
g41
sg11
S'--'
p362
sg13
g10
sg14
S'Allen Robinson'
p363
sg16
S'2014'
p364
sg18
g205
sg20
S'--'
p365
sg22
S'09/14'
p366
sg24
S'18.8'
p367
sg26
S'--'
p368
sg28
S'--'
p369
sg30
S'L10-41'
p370
sg32
S'75'
p371
sg34
g132
sg36
S'@WAS'
p372
sg38
S'54'
p373
sg40
g41
sg42
S'--'
p374
ssg35
(dp375
g5
S'--'
p376
sg7
S'--'
p377
sg9
g10
sg11
S'--'
p378
sg13
g10
sg14
S'Allen Robinson'
p379
sg16
S'2014'
p380
sg18
g35
sg20
S'--'
p381
sg22
S'10/05'
p382
sg24
S'10.2'
p383
sg26
S'--'
p384
sg28
S'--'
p385
sg30
S'L9-17'
p386
sg32
S'51'
p387
sg34
g35
sg36
S'PIT'
p388
sg38
S'17'
p389
sg40
g41
sg42
S'--'
p390
ssg132
(dp391
g5
S'--'
p392
sg7
S'--'
p393
sg9
g10
sg11
S'--'
p394
sg13
g10
sg14
S'Allen Robinson'
p395
sg16
S'2014'
p396
sg18
g132
sg20
S'--'
p397
sg22
S'09/28'
p398
sg24
S'7.6'
p399
sg26
S'--'
p400
sg28
S'--'
p401
sg30
S'L14-33'
p402
sg32
S'38'
p403
sg34
g35
sg36
S'@SD'
p404
sg38
S'14'
p405
sg40
g41
sg42
S'--'
p406
ssg235
(dp407
g5
S'--'
p408
sg7
S'--'
p409
sg9
g10
sg11
S'--'
p410
sg13
g10
sg14
S'Allen Robinson'
p411
sg16
S'2014'
p412
sg18
g235
sg20
S'--'
p413
sg22
S'10/19'
p414
sg24
S'15.0'
p415
sg26
S'--'
p416
sg28
S'--'
p417
sg30
S'W24-6'
p418
sg32
S'60'
p419
sg34
g132
sg36
S'CLE'
p420
sg38
S'31T'
p421
sg40
g10
sg42
S'--'
p422
ssg169
(dp423
g5
S'--'
p424
sg7
S'--'
p425
sg9
g10
sg11
S'--'
p426
sg13
g10
sg14
S'Allen Robinson'
p427
sg16
S'2014'
p428
sg18
g169
sg20
S'--'
p429
sg22
S'10/12'
p430
sg24
S'8.5'
p431
sg26
S'--'
p432
sg28
S'--'
p433
sg30
S'L14-16'
p434
sg32
S'68'
p435
sg34
g304
sg36
S'@TEN'
p436
sg38
S'15'
p437
sg40
g41
sg42
S'--'
p438
ssg287
(dp439
g5
S'--'
p440
sg7
S'--'
p441
sg9
g10
sg11
S'--'
p442
sg13
g10
sg14
S'Allen Robinson'
p443
sg16
S'2014'
p444
sg18
g287
sg20
S'--'
p445
sg22
S'11/02'
p446
sg24
S'8.8'
p447
sg26
S'--'
p448
sg28
S'--'
p449
sg30
S'L23-33'
p450
sg32
S'35'
p451
sg34
g132
sg36
S'@CIN'
p452
sg38
S'13'
p453
sg40
g41
sg42
S'--'
p454
ssg304
(dp455
g5
S'--'
p456
sg7
S'--'
p457
sg9
g10
sg11
S'--'
p458
sg13
g10
sg14
S'Allen Robinson'
p459
sg16
S'2014'
p460
sg18
g304
sg20
S'--'
p461
sg22
S'10/26'
p462
sg24
S'16.4'
p463
sg26
S'--'
p464
sg28
S'--'
p465
sg30
S'L13-27'
p466
sg32
S'82'
p467
sg34
g35
sg36
S'MIA'
p468
sg38
S'48T'
p469
sg40
g10
sg42
S'--'
p470
sss.