(dp0
S'2015'
p1
(dp2
S'11'
p3
(dp4
S'RushTD'
p5
S'--'
p6
sS'RushYds'
p7
S'--'
p8
sS'GS'
p9
S'1'
p10
sS'Lost'
p11
S'--'
p12
sS'G'
p13
g10
sS'Player'
p14
S'Amari Cooper'
p15
sS'Year'
p16
S'2015'
p17
sS'WK'
p18
S'11'
p19
sS'RushAvg'
p20
S'--'
p21
sS'Game Date'
p22
S'11/22'
p23
sS'RecAvg'
p24
S'4.0'
p25
sS'FUM'
p26
S'--'
p27
sS'RushAtt'
p28
S'--'
p29
sS'Result'
p30
S'L13-18'
p31
sS'RecYds'
p32
S'4'
p33
sS'Rec'
p34
g10
sS'Opp'
p35
S'@DET'
p36
sS'RecLng'
p37
g33
sS'RecTD'
p38
S'0'
p39
sS'RushLng'
p40
S'--'
p41
ssS'10'
p42
(dp43
g5
S'--'
p44
sg7
S'--'
p45
sg9
g10
sg11
S'--'
p46
sg13
g10
sg14
S'Amari Cooper'
p47
sg16
S'2015'
p48
sg18
S'10'
p49
sg20
S'--'
p50
sg22
S'11/15'
p51
sg24
S'15.8'
p52
sg26
S'--'
p53
sg28
S'--'
p54
sg30
S'L14-30'
p55
sg32
S'79'
p56
sg34
S'5'
p57
sg35
S'MIN'
p58
sg37
S'38'
p59
sg38
g39
sg40
S'--'
p60
ssS'13'
p61
(dp62
g5
g39
sg7
S'-7'
p63
sg9
g10
sg11
S'--'
p64
sg13
g10
sg14
S'Amari Cooper'
p65
sg16
S'2015'
p66
sg18
S'13'
p67
sg20
S'-7.0'
p68
sg22
S'12/06'
p69
sg24
S'17.3'
p70
sg26
S'--'
p71
sg28
g10
sg30
S'L20-34'
p72
sg32
S'69'
p73
sg34
g33
sg35
S'KC'
p74
sg37
S'23'
p75
sg38
g39
sg40
S'-7'
p76
ssS'12'
p77
(dp78
g5
S'--'
p79
sg7
S'--'
p80
sg9
g10
sg11
S'--'
p81
sg13
g10
sg14
S'Amari Cooper'
p82
sg16
S'2015'
p83
sg18
S'12'
p84
sg20
S'--'
p85
sg22
S'11/29'
p86
sg24
S'16.4'
p87
sg26
S'--'
p88
sg28
S'--'
p89
sg30
S'W24-21'
p90
sg32
S'115'
p91
sg34
S'7'
p92
sg35
S'@TEN'
p93
sg37
S'41'
p94
sg38
g39
sg40
S'--'
p95
ssS'15'
p96
(dp97
g5
S'--'
p98
sg7
S'--'
p99
sg9
g10
sg11
S'--'
p100
sg13
g10
sg14
S'Amari Cooper'
p101
sg16
S'2015'
p102
sg18
S'15'
p103
sg20
S'--'
p104
sg22
S'12/20'
p105
sg24
S'20.0'
p106
sg26
S'--'
p107
sg28
S'--'
p108
sg30
S'L20-30'
p109
sg32
S'120'
p110
sg34
S'6'
p111
sg35
S'GB'
p112
sg37
S'41'
p113
sg38
S'2'
p114
sg40
S'--'
p115
ssS'14'
p116
(dp117
g5
S'--'
p118
sg7
S'--'
p119
sg9
g10
sg11
S'--'
p120
sg13
g10
sg14
S'Amari Cooper'
p121
sg16
S'2015'
p122
sg18
S'14'
p123
sg20
S'--'
p124
sg22
S'12/13'
p125
sg24
S'--'
p126
sg26
S'--'
p127
sg28
S'--'
p128
sg30
S'W15-12'
p129
sg32
g39
sg34
g39
sg35
S'@DEN'
p130
sg37
S'--'
p131
sg38
g39
sg40
S'--'
p132
ssS'17'
p133
(dp134
g5
S'--'
p135
sg7
S'--'
p136
sg9
g10
sg11
S'--'
p137
sg13
g10
sg14
S'Amari Cooper'
p138
sg16
S'2015'
p139
sg18
S'17'
p140
sg20
S'--'
p141
sg22
S'01/03'
p142
sg24
S'10.0'
p143
sg26
S'--'
p144
sg28
S'--'
p145
sg30
S'L17-23'
p146
sg32
S'20'
p147
sg34
g114
sg35
S'@KC'
p148
sg37
S'14'
p149
sg38
g39
sg40
S'--'
p150
ssS'16'
p151
(dp152
g5
S'--'
p153
sg7
S'--'
p154
sg9
g10
sg11
S'--'
p155
sg13
g10
sg14
S'Amari Cooper'
p156
sg16
S'2015'
p157
sg18
S'16'
p158
sg20
S'--'
p159
sg22
S'12/24'
p160
sg24
S'5.0'
p161
sg26
S'--'
p162
sg28
S'--'
p163
sg30
S'W23-20'
p164
sg32
S'10'
p165
sg34
g114
sg35
S'SD'
p166
sg37
g92
sg38
g39
sg40
S'--'
p167
ssg10
(dp168
g5
S'--'
p169
sg7
S'--'
p170
sg9
g10
sg11
S'--'
p171
sg13
g10
sg14
S'Amari Cooper'
p172
sg16
S'2015'
p173
sg18
g10
sg20
S'--'
p174
sg22
S'09/13'
p175
sg24
S'9.4'
p176
sg26
S'--'
p177
sg28
S'--'
p178
sg30
S'L13-33'
p179
sg32
S'47'
p180
sg34
g57
sg35
S'CIN'
p181
sg37
S'24'
p182
sg38
g39
sg40
S'--'
p183
ssS'3'
p184
(dp185
g5
S'--'
p186
sg7
S'--'
p187
sg9
g10
sg11
g10
sg13
g10
sg14
S'Amari Cooper'
p188
sg16
S'2015'
p189
sg18
g184
sg20
S'--'
p190
sg22
S'09/27'
p191
sg24
S'16.8'
p192
sg26
g10
sg28
S'--'
p193
sg30
S'W27-20'
p194
sg32
S'134'
p195
sg34
S'8'
p196
sg35
S'@CLE'
p197
sg37
S'40'
p198
sg38
g39
sg40
S'--'
p199
ssg114
(dp200
g5
S'--'
p201
sg7
S'--'
p202
sg9
g10
sg11
S'--'
p203
sg13
g10
sg14
S'Amari Cooper'
p204
sg16
S'2015'
p205
sg18
g114
sg20
S'--'
p206
sg22
S'09/20'
p207
sg24
S'15.6'
p208
sg26
S'--'
p209
sg28
S'--'
p210
sg30
S'W37-33'
p211
sg32
S'109'
p212
sg34
g92
sg35
S'BAL'
p213
sg37
S'68T'
p214
sg38
g10
sg40
S'--'
p215
ssg57
(dp216
g5
g39
sg7
g114
sg9
g10
sg11
S'--'
p217
sg13
g10
sg14
S'Amari Cooper'
p218
sg16
S'2015'
p219
sg18
g57
sg20
S'2.0'
p220
sg22
S'10/11'
p221
sg24
S'11.8'
p222
sg26
S'--'
p223
sg28
g10
sg30
S'L10-16'
p224
sg32
S'47'
p225
sg34
g33
sg35
S'DEN'
p226
sg37
S'21'
p227
sg38
g39
sg40
g114
ssg33
(dp228
g5
S'--'
p229
sg7
S'--'
p230
sg9
g10
sg11
S'--'
p231
sg13
g10
sg14
S'Amari Cooper'
p232
sg16
S'2015'
p233
sg18
g33
sg20
S'--'
p234
sg22
S'10/04'
p235
sg24
S'12.3'
p236
sg26
S'--'
p237
sg28
S'--'
p238
sg30
S'L20-22'
p239
sg32
S'49'
p240
sg34
g33
sg35
S'@CHI'
p241
sg37
S'26T'
p242
sg38
g10
sg40
S'--'
p243
ssg92
(dp244
g5
S'--'
p245
sg7
S'--'
p246
sg9
g39
sg11
S'--'
p247
sg13
g10
sg14
S'Amari Cooper'
p248
sg16
S'2015'
p249
sg18
g92
sg20
S'--'
p250
sg22
S'10/25'
p251
sg24
S'26.6'
p252
sg26
S'--'
p253
sg28
S'--'
p254
sg30
S'W37-29'
p255
sg32
S'133'
p256
sg34
g57
sg35
S'@SD'
p257
sg37
S'52T'
p258
sg38
g10
sg40
S'--'
p259
ssg111
(dp260
g5
S''
p261
sg7
g261
sg9
g261
sg11
g261
sg13
g261
sg14
S'Amari Cooper'
p262
sg16
S'2015'
p263
sg18
g111
sg20
g261
sg22
S'Bye'
p264
sg24
g261
sg26
g261
sg28
g261
sg30
g261
sg32
g261
sg34
g261
sg35
g261
sg37
g261
sg38
g261
sg40
g261
ssS'9'
p265
(dp266
g5
S'--'
p267
sg7
S'--'
p268
sg9
g10
sg11
S'--'
p269
sg13
g10
sg14
S'Amari Cooper'
p270
sg16
S'2015'
p271
sg18
g265
sg20
S'--'
p272
sg22
S'11/08'
p273
sg24
S'12.6'
p274
sg26
S'--'
p275
sg28
S'--'
p276
sg30
S'L35-38'
p277
sg32
S'88'
p278
sg34
g92
sg35
S'@PIT'
p279
sg37
S'21'
p280
sg38
g10
sg40
S'--'
p281
ssg196
(dp282
g5
g39
sg7
g114
sg9
g10
sg11
S'--'
p283
sg13
g10
sg14
S'Amari Cooper'
p284
sg16
S'2015'
p285
sg18
g196
sg20
S'2.0'
p286
sg22
S'11/01'
p287
sg24
S'9.2'
p288
sg26
S'--'
p289
sg28
g10
sg30
S'W34-20'
p290
sg32
S'46'
p291
sg34
g57
sg35
S'NYJ'
p292
sg37
S'13'
p293
sg38
g39
sg40
g114
sss.