(dp0
S'2015'
p1
(dp2
S'11'
p3
(dp4
S'RushTD'
p5
S'--'
p6
sS'RushYds'
p7
S'--'
p8
sS'GS'
p9
S'0'
p10
sS'Lost'
p11
S'--'
p12
sS'G'
p13
S'1'
p14
sS'Player'
p15
S'Andre Holmes'
p16
sS'Year'
p17
S'2015'
p18
sS'WK'
p19
S'11'
p20
sS'RushAvg'
p21
S'--'
p22
sS'Game Date'
p23
S'11/22'
p24
sS'RecAvg'
p25
S'--'
p26
sS'FUM'
p27
S'--'
p28
sS'RushAtt'
p29
S'--'
p30
sS'Result'
p31
S'L13-18'
p32
sS'RecYds'
p33
g10
sS'Rec'
p34
g10
sS'Opp'
p35
S'@DET'
p36
sS'RecLng'
p37
S'--'
p38
sS'RecTD'
p39
g10
sS'RushLng'
p40
S'--'
p41
ssS'10'
p42
(dp43
g5
S'--'
p44
sg7
S'--'
p45
sg9
g14
sg11
S'--'
p46
sg13
g14
sg15
S'Andre Holmes'
p47
sg17
S'2015'
p48
sg19
S'10'
p49
sg21
S'--'
p50
sg23
S'11/15'
p51
sg25
S'34.0'
p52
sg27
S'--'
p53
sg29
S'--'
p54
sg31
S'L14-30'
p55
sg33
S'34'
p56
sg34
g14
sg35
S'MIN'
p57
sg37
S'34T'
p58
sg39
g14
sg40
S'--'
p59
ssS'13'
p60
(dp61
g5
S'--'
p62
sg7
S'--'
p63
sg9
g10
sg11
S'--'
p64
sg13
g14
sg15
S'Andre Holmes'
p65
sg17
S'2015'
p66
sg19
S'13'
p67
sg21
S'--'
p68
sg23
S'12/06'
p69
sg25
S'1.0'
p70
sg27
S'--'
p71
sg29
S'--'
p72
sg31
S'L20-34'
p73
sg33
g14
sg34
g14
sg35
S'KC'
p74
sg37
g14
sg39
g10
sg40
S'--'
p75
ssS'12'
p76
(dp77
g5
S'--'
p78
sg7
S'--'
p79
sg9
g10
sg11
S'--'
p80
sg13
g14
sg15
S'Andre Holmes'
p81
sg17
S'2015'
p82
sg19
S'12'
p83
sg21
S'--'
p84
sg23
S'11/29'
p85
sg25
S'9.0'
p86
sg27
S'--'
p87
sg29
S'--'
p88
sg31
S'W24-21'
p89
sg33
S'9'
p90
sg34
g14
sg35
S'@TEN'
p91
sg37
g90
sg39
g10
sg40
S'--'
p92
ssS'15'
p93
(dp94
g5
S'--'
p95
sg7
S'--'
p96
sg9
g10
sg11
S'--'
p97
sg13
g14
sg15
S'Andre Holmes'
p98
sg17
S'2015'
p99
sg19
S'15'
p100
sg21
S'--'
p101
sg23
S'12/20'
p102
sg25
S'8.5'
p103
sg27
S'--'
p104
sg29
S'--'
p105
sg31
S'L20-30'
p106
sg33
S'17'
p107
sg34
S'2'
p108
sg35
S'GB'
p109
sg37
S'11'
p110
sg39
g10
sg40
S'--'
p111
ssS'14'
p112
(dp113
g5
S'--'
p114
sg7
S'--'
p115
sg9
g10
sg11
S'--'
p116
sg13
g14
sg15
S'Andre Holmes'
p117
sg17
S'2015'
p118
sg19
S'14'
p119
sg21
S'--'
p120
sg23
S'12/13'
p121
sg25
S'--'
p122
sg27
S'--'
p123
sg29
S'--'
p124
sg31
S'W15-12'
p125
sg33
S'--'
p126
sg34
S'--'
p127
sg35
S'@DEN'
p128
sg37
S'--'
p129
sg39
S'--'
p130
sg40
S'--'
p131
ssS'17'
p132
(dp133
g5
S'--'
p134
sg7
S'--'
p135
sg9
g10
sg11
S'--'
p136
sg13
g14
sg15
S'Andre Holmes'
p137
sg17
S'2015'
p138
sg19
S'17'
p139
sg21
S'--'
p140
sg23
S'01/03'
p141
sg25
S'--'
p142
sg27
S'--'
p143
sg29
S'--'
p144
sg31
S'L17-23'
p145
sg33
S'--'
p146
sg34
S'--'
p147
sg35
S'@KC'
p148
sg37
S'--'
p149
sg39
S'--'
p150
sg40
S'--'
p151
ssS'16'
p152
(dp153
g5
S'--'
p154
sg7
S'--'
p155
sg9
g10
sg11
S'--'
p156
sg13
g14
sg15
S'Andre Holmes'
p157
sg17
S'2015'
p158
sg19
S'16'
p159
sg21
S'--'
p160
sg23
S'12/24'
p161
sg25
S'11.0'
p162
sg27
S'--'
p163
sg29
S'--'
p164
sg31
S'W23-20'
p165
sg33
S'33'
p166
sg34
S'3'
p167
sg35
S'SD'
p168
sg37
S'16'
p169
sg39
g10
sg40
S'--'
p170
ssg14
(dp171
g5
S'--'
p172
sg7
S'--'
p173
sg9
g10
sg11
S'--'
p174
sg13
g14
sg15
S'Andre Holmes'
p175
sg17
S'2015'
p176
sg19
g14
sg21
S'--'
p177
sg23
S'09/13'
p178
sg25
S'--'
p179
sg27
S'--'
p180
sg29
S'--'
p181
sg31
S'L13-33'
p182
sg33
S'--'
p183
sg34
S'--'
p184
sg35
S'CIN'
p185
sg37
S'--'
p186
sg39
S'--'
p187
sg40
S'--'
p188
ssg167
(dp189
g5
S'--'
p190
sg7
S'--'
p191
sg9
g10
sg11
S'--'
p192
sg13
g14
sg15
S'Andre Holmes'
p193
sg17
S'2015'
p194
sg19
g167
sg21
S'--'
p195
sg23
S'09/27'
p196
sg25
S'3.0'
p197
sg27
S'--'
p198
sg29
S'--'
p199
sg31
S'W27-20'
p200
sg33
g167
sg34
g14
sg35
S'@CLE'
p201
sg37
S'3T'
p202
sg39
g14
sg40
S'--'
p203
ssg108
(dp204
g5
S'--'
p205
sg7
S'--'
p206
sg9
g10
sg11
S'--'
p207
sg13
g14
sg15
S'Andre Holmes'
p208
sg17
S'2015'
p209
sg19
g108
sg21
S'--'
p210
sg23
S'09/20'
p211
sg25
S'16.7'
p212
sg27
S'--'
p213
sg29
S'--'
p214
sg31
S'W37-33'
p215
sg33
S'50'
p216
sg34
g167
sg35
S'BAL'
p217
sg37
S'21'
p218
sg39
g10
sg40
S'--'
p219
ssS'5'
p220
(dp221
g5
S'--'
p222
sg7
S'--'
p223
sg9
g10
sg11
S'--'
p224
sg13
g14
sg15
S'Andre Holmes'
p225
sg17
S'2015'
p226
sg19
g220
sg21
S'--'
p227
sg23
S'10/11'
p228
sg25
S'--'
p229
sg27
S'--'
p230
sg29
S'--'
p231
sg31
S'L10-16'
p232
sg33
g10
sg34
g10
sg35
S'DEN'
p233
sg37
S'--'
p234
sg39
g10
sg40
S'--'
p235
ssS'4'
p236
(dp237
g5
S'--'
p238
sg7
S'--'
p239
sg9
g10
sg11
S'--'
p240
sg13
g14
sg15
S'Andre Holmes'
p241
sg17
S'2015'
p242
sg19
g236
sg21
S'--'
p243
sg23
S'10/04'
p244
sg25
S'--'
p245
sg27
S'--'
p246
sg29
S'--'
p247
sg31
S'L20-22'
p248
sg33
g10
sg34
g10
sg35
S'@CHI'
p249
sg37
S'--'
p250
sg39
g10
sg40
S'--'
p251
ssS'7'
p252
(dp253
g5
S'--'
p254
sg7
S'--'
p255
sg9
g10
sg11
S'--'
p256
sg13
g14
sg15
S'Andre Holmes'
p257
sg17
S'2015'
p258
sg19
g252
sg21
S'--'
p259
sg23
S'10/25'
p260
sg25
S'--'
p261
sg27
S'--'
p262
sg29
S'--'
p263
sg31
S'W37-29'
p264
sg33
g10
sg34
g10
sg35
S'@SD'
p265
sg37
S'--'
p266
sg39
g10
sg40
S'--'
p267
ssS'6'
p268
(dp269
g5
S''
p270
sg7
g270
sg9
g270
sg11
g270
sg13
g270
sg15
S'Andre Holmes'
p271
sg17
S'2015'
p272
sg19
g268
sg21
g270
sg23
S'Bye'
p273
sg25
g270
sg27
g270
sg29
g270
sg31
g270
sg33
g270
sg34
g270
sg35
g270
sg37
g270
sg39
g270
sg40
g270
ssg90
(dp274
g5
S'--'
p275
sg7
S'--'
p276
sg9
g10
sg11
S'--'
p277
sg13
g14
sg15
S'Andre Holmes'
p278
sg17
S'2015'
p279
sg19
g90
sg21
S'--'
p280
sg23
S'11/08'
p281
sg25
S'--'
p282
sg27
S'--'
p283
sg29
S'--'
p284
sg31
S'L35-38'
p285
sg33
g10
sg34
g10
sg35
S'@PIT'
p286
sg37
S'--'
p287
sg39
g10
sg40
S'--'
p288
ssS'8'
p289
(dp290
g5
S'--'
p291
sg7
S'--'
p292
sg9
g10
sg11
S'--'
p293
sg13
g14
sg15
S'Andre Holmes'
p294
sg17
S'2015'
p295
sg19
g289
sg21
S'--'
p296
sg23
S'11/01'
p297
sg25
S'27.0'
p298
sg27
S'--'
p299
sg29
S'--'
p300
sg31
S'W34-20'
p301
sg33
S'54'
p302
sg34
g108
sg35
S'NYJ'
p303
sg37
S'49T'
p304
sg39
g108
sg40
S'--'
p305
sssS'2014'
p306
(dp307
g3
(dp308
g5
S'--'
p309
sg7
S'--'
p310
sg9
g14
sg11
S'--'
p311
sg13
g14
sg15
S'Andre Holmes'
p312
sg17
S'2014'
p313
sg19
S'11'
p314
sg21
S'--'
p315
sg23
S'11/16'
p316
sg25
S'9.5'
p317
sg27
S'--'
p318
sg29
S'--'
p319
sg31
S'L6-13'
p320
sg33
S'19'
p321
sg34
g108
sg35
S'@SD'
p322
sg37
S'10'
p323
sg39
g10
sg40
S'--'
p324
ssg42
(dp325
g5
S'--'
p326
sg7
S'--'
p327
sg9
g14
sg11
S'--'
p328
sg13
g14
sg15
S'Andre Holmes'
p329
sg17
S'2014'
p330
sg19
S'10'
p331
sg21
S'--'
p332
sg23
S'11/09'
p333
sg25
S'--'
p334
sg27
S'--'
p335
sg29
S'--'
p336
sg31
S'L17-41'
p337
sg33
g10
sg34
g10
sg35
S'DEN'
p338
sg37
S'--'
p339
sg39
g10
sg40
S'--'
p340
ssg60
(dp341
g5
S'--'
p342
sg7
S'--'
p343
sg9
g14
sg11
S'--'
p344
sg13
g14
sg15
S'Andre Holmes'
p345
sg17
S'2014'
p346
sg19
S'13'
p347
sg21
S'--'
p348
sg23
S'11/30'
p349
sg25
S'9.3'
p350
sg27
S'--'
p351
sg29
S'--'
p352
sg31
S'L0-52'
p353
sg33
S'28'
p354
sg34
g167
sg35
S'@STL'
p355
sg37
S'16'
p356
sg39
g10
sg40
S'--'
p357
ssg76
(dp358
g5
S'--'
p359
sg7
S'--'
p360
sg9
g14
sg11
S'--'
p361
sg13
g14
sg15
S'Andre Holmes'
p362
sg17
S'2014'
p363
sg19
S'12'
p364
sg21
S'--'
p365
sg23
S'11/20'
p366
sg25
S'11.0'
p367
sg27
S'--'
p368
sg29
S'--'
p369
sg31
S'W24-20'
p370
sg33
S'55'
p371
sg34
g220
sg35
S'KC'
p372
sg37
S'37'
p373
sg39
g10
sg40
S'--'
p374
ssg93
(dp375
g5
S'--'
p376
sg7
S'--'
p377
sg9
g14
sg11
S'--'
p378
sg13
g14
sg15
S'Andre Holmes'
p379
sg17
S'2014'
p380
sg19
S'15'
p381
sg21
S'--'
p382
sg23
S'12/14'
p383
sg25
S'14.0'
p384
sg27
S'--'
p385
sg29
S'--'
p386
sg31
S'L13-31'
p387
sg33
S'70'
p388
sg34
g220
sg35
S'@KC'
p389
sg37
S'33'
p390
sg39
g10
sg40
S'--'
p391
ssg112
(dp392
g5
S'--'
p393
sg7
S'--'
p394
sg9
g14
sg11
S'--'
p395
sg13
g14
sg15
S'Andre Holmes'
p396
sg17
S'2014'
p397
sg19
S'14'
p398
sg21
S'--'
p399
sg23
S'12/07'
p400
sg25
S'19.0'
p401
sg27
S'--'
p402
sg29
S'--'
p403
sg31
S'W24-13'
p404
sg33
S'38'
p405
sg34
g108
sg35
S'SF'
p406
sg37
S'22'
p407
sg39
g10
sg40
S'--'
p408
ssg132
(dp409
g5
S'--'
p410
sg7
S'--'
p411
sg9
g14
sg11
S'--'
p412
sg13
g14
sg15
S'Andre Holmes'
p413
sg17
S'2014'
p414
sg19
S'17'
p415
sg21
S'--'
p416
sg23
S'12/28'
p417
sg25
S'5.0'
p418
sg27
S'--'
p419
sg29
S'--'
p420
sg31
S'L14-47'
p421
sg33
S'10'
p422
sg34
g108
sg35
S'@DEN'
p423
sg37
g252
sg39
g10
sg40
S'--'
p424
ssg152
(dp425
g5
S'--'
p426
sg7
S'--'
p427
sg9
g14
sg11
S'--'
p428
sg13
g14
sg15
S'Andre Holmes'
p429
sg17
S'2014'
p430
sg19
S'16'
p431
sg21
S'--'
p432
sg23
S'12/21'
p433
sg25
S'24.3'
p434
sg27
S'--'
p435
sg29
S'--'
p436
sg31
S'W26-24'
p437
sg33
S'73'
p438
sg34
g167
sg35
S'BUF'
p439
sg37
S'51'
p440
sg39
g10
sg40
S'--'
p441
ssg14
(dp442
g5
S'--'
p443
sg7
S'--'
p444
sg9
g10
sg11
S'--'
p445
sg13
g14
sg15
S'Andre Holmes'
p446
sg17
S'2014'
p447
sg19
g14
sg21
S'--'
p448
sg23
S'09/07'
p449
sg25
S'--'
p450
sg27
S'--'
p451
sg29
S'--'
p452
sg31
S'L14-19'
p453
sg33
S'--'
p454
sg34
S'--'
p455
sg35
S'@NYJ'
p456
sg37
S'--'
p457
sg39
S'--'
p458
sg40
S'--'
p459
ssg167
(dp460
g5
S'--'
p461
sg7
S'--'
p462
sg9
g10
sg11
S'--'
p463
sg13
g14
sg15
S'Andre Holmes'
p464
sg17
S'2014'
p465
sg19
g167
sg21
S'--'
p466
sg23
S'09/21'
p467
sg25
S'29.0'
p468
sg27
S'--'
p469
sg29
S'--'
p470
sg31
S'L9-16'
p471
sg33
S'29'
p472
sg34
g14
sg35
S'@NE'
p473
sg37
S'29'
p474
sg39
g10
sg40
S'--'
p475
ssg108
(dp476
g5
S'--'
p477
sg7
S'--'
p478
sg9
g10
sg11
S'--'
p479
sg13
g14
sg15
S'Andre Holmes'
p480
sg17
S'2014'
p481
sg19
g108
sg21
S'--'
p482
sg23
S'09/14'
p483
sg25
S'9.0'
p484
sg27
S'--'
p485
sg29
S'--'
p486
sg31
S'L14-30'
p487
sg33
S'45'
p488
sg34
g220
sg35
S'HOU'
p489
sg37
S'15'
p490
sg39
g10
sg40
S'--'
p491
ssg220
(dp492
g5
g270
sg7
g270
sg9
g270
sg11
g270
sg13
g270
sg15
S'Andre Holmes'
p493
sg17
S'2014'
p494
sg19
g220
sg21
g270
sg23
S'Bye'
p495
sg25
g270
sg27
g270
sg29
g270
sg31
g270
sg33
g270
sg34
g270
sg35
g270
sg37
g270
sg39
g270
sg40
g270
ssg236
(dp496
g5
S'--'
p497
sg7
S'--'
p498
sg9
g14
sg11
S'--'
p499
sg13
g14
sg15
S'Andre Holmes'
p500
sg17
S'2014'
p501
sg19
g236
sg21
S'--'
p502
sg23
S'09/28'
p503
sg25
S'14.8'
p504
sg27
S'--'
p505
sg29
S'--'
p506
sg31
S'L14-38'
p507
sg33
S'74'
p508
sg34
g220
sg35
S'MIA'
p509
sg37
S'22T'
p510
sg39
g14
sg40
S'--'
p511
ssg252
(dp512
g5
S'--'
p513
sg7
S'--'
p514
sg9
g14
sg11
S'--'
p515
sg13
g14
sg15
S'Andre Holmes'
p516
sg17
S'2014'
p517
sg19
g252
sg21
S'--'
p518
sg23
S'10/19'
p519
sg25
S'11.3'
p520
sg27
S'--'
p521
sg29
S'--'
p522
sg31
S'L13-24'
p523
sg33
S'34'
p524
sg34
g167
sg35
S'ARI'
p525
sg37
S'18'
p526
sg39
g10
sg40
S'--'
p527
ssg268
(dp528
g5
S'--'
p529
sg7
S'--'
p530
sg9
g14
sg11
S'--'
p531
sg13
g14
sg15
S'Andre Holmes'
p532
sg17
S'2014'
p533
sg19
g268
sg21
S'--'
p534
sg23
S'10/12'
p535
sg25
S'30.3'
p536
sg27
S'--'
p537
sg29
S'--'
p538
sg31
S'L28-31'
p539
sg33
S'121'
p540
sg34
g236
sg35
S'SD'
p541
sg37
S'77T'
p542
sg39
g108
sg40
S'--'
p543
ssg90
(dp544
g5
S'--'
p545
sg7
S'--'
p546
sg9
g14
sg11
S'--'
p547
sg13
g14
sg15
S'Andre Holmes'
p548
sg17
S'2014'
p549
sg19
g90
sg21
S'--'
p550
sg23
S'11/02'
p551
sg25
S'14.0'
p552
sg27
S'--'
p553
sg29
S'--'
p554
sg31
S'L24-30'
p555
sg33
S'28'
p556
sg34
g108
sg35
S'@SEA'
p557
sg37
S'17'
p558
sg39
g10
sg40
S'--'
p559
ssg289
(dp560
g5
S'--'
p561
sg7
S'--'
p562
sg9
g14
sg11
S'--'
p563
sg13
g14
sg15
S'Andre Holmes'
p564
sg17
S'2014'
p565
sg19
g289
sg21
S'--'
p566
sg23
S'10/26'
p567
sg25
S'13.8'
p568
sg27
S'--'
p569
sg29
S'--'
p570
sg31
S'L13-23'
p571
sg33
S'69'
p572
sg34
g220
sg35
S'@CLE'
p573
sg37
S'31'
p574
sg39
g14
sg40
S'--'
p575
sssS'2011'
p576
(dp577
g93
(dp578
g5
S'--'
p579
sg7
S'--'
p580
sg9
g10
sg11
S'--'
p581
sg13
g10
sg15
S'Andre Holmes'
p582
sg17
S'2011'
p583
sg19
S'15'
p584
sg21
S'--'
p585
sg23
S'12/17'
p586
sg25
S'--'
p587
sg27
S'--'
p588
sg29
S'--'
p589
sg31
S'W31-15'
p590
sg33
S'--'
p591
sg34
S'--'
p592
sg35
S'@TB'
p593
sg37
S'--'
p594
sg39
S'--'
p595
sg40
S'--'
p596
ssg112
(dp597
g5
S'--'
p598
sg7
S'--'
p599
sg9
g10
sg11
S'--'
p600
sg13
g10
sg15
S'Andre Holmes'
p601
sg17
S'2011'
p602
sg19
S'14'
p603
sg21
S'--'
p604
sg23
S'12/11'
p605
sg25
S'--'
p606
sg27
S'--'
p607
sg29
S'--'
p608
sg31
S'L34-37'
p609
sg33
S'--'
p610
sg34
S'--'
p611
sg35
S'NYG'
p612
sg37
S'--'
p613
sg39
S'--'
p614
sg40
S'--'
p615
ssg132
(dp616
g5
S'--'
p617
sg7
S'--'
p618
sg9
g10
sg11
S'--'
p619
sg13
g10
sg15
S'Andre Holmes'
p620
sg17
S'2011'
p621
sg19
S'17'
p622
sg21
S'--'
p623
sg23
S'01/01'
p624
sg25
S'--'
p625
sg27
S'--'
p626
sg29
S'--'
p627
sg31
S'L14-31'
p628
sg33
S'--'
p629
sg34
S'--'
p630
sg35
S'@NYG'
p631
sg37
S'--'
p632
sg39
S'--'
p633
sg40
S'--'
p634
ssg152
(dp635
g5
S'--'
p636
sg7
S'--'
p637
sg9
g10
sg11
S'--'
p638
sg13
g10
sg15
S'Andre Holmes'
p639
sg17
S'2011'
p640
sg19
S'16'
p641
sg21
S'--'
p642
sg23
S'12/24'
p643
sg25
S'--'
p644
sg27
S'--'
p645
sg29
S'--'
p646
sg31
S'L7-20'
p647
sg33
S'--'
p648
sg34
S'--'
p649
sg35
S'PHI'
p650
sg37
S'--'
p651
sg39
S'--'
p652
sg40
S'--'
p653
sssS'2013'
p654
(dp655
g3
(dp656
g5
S'--'
p657
sg7
S'--'
p658
sg9
g10
sg11
S'--'
p659
sg13
g14
sg15
S'Andre Holmes'
p660
sg17
S'2013'
p661
sg19
S'11'
p662
sg21
S'--'
p663
sg23
S'11/17'
p664
sg25
S'33.0'
p665
sg27
S'--'
p666
sg29
S'--'
p667
sg31
S'W28-23'
p668
sg33
S'33'
p669
sg34
g14
sg35
S'@HOU'
p670
sg37
S'33'
p671
sg39
g10
sg40
S'--'
p672
ssg42
(dp673
g5
S'--'
p674
sg7
S'--'
p675
sg9
g10
sg11
S'--'
p676
sg13
g14
sg15
S'Andre Holmes'
p677
sg17
S'2013'
p678
sg19
S'10'
p679
sg21
S'--'
p680
sg23
S'11/10'
p681
sg25
S'--'
p682
sg27
S'--'
p683
sg29
S'--'
p684
sg31
S'L20-24'
p685
sg33
g10
sg34
g10
sg35
S'@NYG'
p686
sg37
S'--'
p687
sg39
g10
sg40
S'--'
p688
ssg60
(dp689
g5
S'--'
p690
sg7
S'--'
p691
sg9
g10
sg11
S'--'
p692
sg13
g14
sg15
S'Andre Holmes'
p693
sg17
S'2013'
p694
sg19
S'13'
p695
sg21
S'--'
p696
sg23
S'11/28'
p697
sg25
S'19.4'
p698
sg27
S'--'
p699
sg29
S'--'
p700
sg31
S'L24-31'
p701
sg33
S'136'
p702
sg34
g252
sg35
S'@DAL'
p703
sg37
S'35'
p704
sg39
g10
sg40
S'--'
p705
ssg76
(dp706
g5
S'--'
p707
sg7
S'--'
p708
sg9
g14
sg11
S'--'
p709
sg13
g14
sg15
S'Andre Holmes'
p710
sg17
S'2013'
p711
sg19
S'12'
p712
sg21
S'--'
p713
sg23
S'11/24'
p714
sg25
S'16.0'
p715
sg27
S'--'
p716
sg29
S'--'
p717
sg31
S'L19-23'
p718
sg33
S'32'
p719
sg34
g108
sg35
S'TEN'
p720
sg37
S'16'
p721
sg39
g10
sg40
S'--'
p722
ssg93
(dp723
g5
S'--'
p724
sg7
S'--'
p725
sg9
g14
sg11
S'--'
p726
sg13
g14
sg15
S'Andre Holmes'
p727
sg17
S'2013'
p728
sg19
S'15'
p729
sg21
S'--'
p730
sg23
S'12/15'
p731
sg25
S'14.5'
p732
sg27
S'--'
p733
sg29
S'--'
p734
sg31
S'L31-56'
p735
sg33
S'58'
p736
sg34
g236
sg35
S'KC'
p737
sg37
S'28'
p738
sg39
g14
sg40
S'--'
p739
ssg112
(dp740
g5
S'--'
p741
sg7
S'--'
p742
sg9
g14
sg11
S'--'
p743
sg13
g14
sg15
S'Andre Holmes'
p744
sg17
S'2013'
p745
sg19
S'14'
p746
sg21
S'--'
p747
sg23
S'12/08'
p748
sg25
S'21.0'
p749
sg27
S'--'
p750
sg29
S'--'
p751
sg31
S'L27-37'
p752
sg33
S'63'
p753
sg34
g167
sg35
S'@NYJ'
p754
sg37
S'40'
p755
sg39
g10
sg40
S'--'
p756
ssg132
(dp757
g5
S'--'
p758
sg7
S'--'
p759
sg9
g14
sg11
S'--'
p760
sg13
g14
sg15
S'Andre Holmes'
p761
sg17
S'2013'
p762
sg19
S'17'
p763
sg21
S'--'
p764
sg23
S'12/29'
p765
sg25
S'12.7'
p766
sg27
S'--'
p767
sg29
S'--'
p768
sg31
S'L14-34'
p769
sg33
S'38'
p770
sg34
g167
sg35
S'DEN'
p771
sg37
S'22'
p772
sg39
g10
sg40
S'--'
p773
ssg152
(dp774
g5
S'--'
p775
sg7
S'--'
p776
sg9
g10
sg11
S'--'
p777
sg13
g14
sg15
S'Andre Holmes'
p778
sg17
S'2013'
p779
sg19
S'16'
p780
sg21
S'--'
p781
sg23
S'12/22'
p782
sg25
S'14.2'
p783
sg27
S'--'
p784
sg29
S'--'
p785
sg31
S'L13-26'
p786
sg33
S'71'
p787
sg34
g220
sg35
S'@SD'
p788
sg37
S'24'
p789
sg39
g10
sg40
S'--'
p790
ssg252
(dp791
g5
g270
sg7
g270
sg9
g270
sg11
g270
sg13
g270
sg15
S'Andre Holmes'
p792
sg17
S'2013'
p793
sg19
g252
sg21
g270
sg23
S'Bye'
p794
sg25
g270
sg27
g270
sg29
g270
sg31
g270
sg33
g270
sg34
g270
sg35
g270
sg37
g270
sg39
g270
sg40
g270
ssg268
(dp795
g5
S'--'
p796
sg7
S'--'
p797
sg9
g10
sg11
S'--'
p798
sg13
g14
sg15
S'Andre Holmes'
p799
sg17
S'2013'
p800
sg19
g268
sg21
S'--'
p801
sg23
S'10/13'
p802
sg25
S'--'
p803
sg27
S'--'
p804
sg29
S'--'
p805
sg31
S'L7-24'
p806
sg33
g10
sg34
g10
sg35
S'@KC'
p807
sg37
S'--'
p808
sg39
g10
sg40
S'--'
p809
ssg90
(dp810
g5
S'--'
p811
sg7
S'--'
p812
sg9
g10
sg11
S'--'
p813
sg13
g10
sg15
S'Andre Holmes'
p814
sg17
S'2013'
p815
sg19
g90
sg21
S'--'
p816
sg23
S'11/03'
p817
sg25
S'--'
p818
sg27
S'--'
p819
sg29
S'--'
p820
sg31
S'L20-49'
p821
sg33
S'--'
p822
sg34
S'--'
p823
sg35
S'PHI'
p824
sg37
S'--'
p825
sg39
S'--'
p826
sg40
S'--'
p827
ssg289
(dp828
g5
S'--'
p829
sg7
S'--'
p830
sg9
g10
sg11
S'--'
p831
sg13
g14
sg15
S'Andre Holmes'
p832
sg17
S'2013'
p833
sg19
g289
sg21
S'--'
p834
sg23
S'10/27'
p835
sg25
S'--'
p836
sg27
S'--'
p837
sg29
S'--'
p838
sg31
S'W21-18'
p839
sg33
g10
sg34
g10
sg35
S'PIT'
p840
sg37
S'--'
p841
sg39
g10
sg40
S'--'
p842
sssS'2012'
p843
(dp844
g3
(dp845
g5
S'--'
p846
sg7
S'--'
p847
sg9
g10
sg11
S'--'
p848
sg13
g10
sg15
S'Andre Holmes'
p849
sg17
S'2012'
p850
sg19
S'11'
p851
sg21
S'--'
p852
sg23
S'11/18'
p853
sg25
S'--'
p854
sg27
S'--'
p855
sg29
S'--'
p856
sg31
S'W23-20'
p857
sg33
S'--'
p858
sg34
S'--'
p859
sg35
S'CLE'
p860
sg37
S'--'
p861
sg39
S'--'
p862
sg40
S'--'
p863
ssg42
(dp864
g5
S'--'
p865
sg7
S'--'
p866
sg9
g10
sg11
S'--'
p867
sg13
g14
sg15
S'Andre Holmes'
p868
sg17
S'2012'
p869
sg19
S'10'
p870
sg21
S'--'
p871
sg23
S'11/11'
p872
sg25
S'--'
p873
sg27
S'--'
p874
sg29
S'--'
p875
sg31
S'W38-23'
p876
sg33
S'--'
p877
sg34
S'--'
p878
sg35
S'@PHI'
p879
sg37
S'--'
p880
sg39
S'--'
p881
sg40
S'--'
p882
ssg76
(dp883
g5
S'--'
p884
sg7
S'--'
p885
sg9
g10
sg11
S'--'
p886
sg13
g14
sg15
S'Andre Holmes'
p887
sg17
S'2012'
p888
sg19
S'12'
p889
sg21
S'--'
p890
sg23
S'11/22'
p891
sg25
S'4.0'
p892
sg27
S'--'
p893
sg29
S'--'
p894
sg31
S'L31-38'
p895
sg33
g236
sg34
g14
sg35
S'WAS'
p896
sg37
g236
sg39
g10
sg40
S'--'
p897
ssg14
(dp898
g5
S'--'
p899
sg7
S'--'
p900
sg9
g10
sg11
S'--'
p901
sg13
g14
sg15
S'Andre Holmes'
p902
sg17
S'2012'
p903
sg19
g14
sg21
S'--'
p904
sg23
S'09/05'
p905
sg25
S'--'
p906
sg27
S'--'
p907
sg29
S'--'
p908
sg31
S'W24-17'
p909
sg33
S'--'
p910
sg34
S'--'
p911
sg35
S'@NYG'
p912
sg37
S'--'
p913
sg39
S'--'
p914
sg40
S'--'
p915
ssg167
(dp916
g5
S'--'
p917
sg7
S'--'
p918
sg9
g10
sg11
S'--'
p919
sg13
g14
sg15
S'Andre Holmes'
p920
sg17
S'2012'
p921
sg19
g167
sg21
S'--'
p922
sg23
S'09/23'
p923
sg25
S'--'
p924
sg27
S'--'
p925
sg29
S'--'
p926
sg31
S'W16-10'
p927
sg33
S'--'
p928
sg34
S'--'
p929
sg35
S'TB'
p930
sg37
S'--'
p931
sg39
S'--'
p932
sg40
S'--'
p933
ssg108
(dp934
g5
S'--'
p935
sg7
S'--'
p936
sg9
g10
sg11
S'--'
p937
sg13
g10
sg15
S'Andre Holmes'
p938
sg17
S'2012'
p939
sg19
g108
sg21
S'--'
p940
sg23
S'09/16'
p941
sg25
S'--'
p942
sg27
S'--'
p943
sg29
S'--'
p944
sg31
S'L7-27'
p945
sg33
S'--'
p946
sg34
S'--'
p947
sg35
S'@SEA'
p948
sg37
S'--'
p949
sg39
S'--'
p950
sg40
S'--'
p951
ssg220
(dp952
g5
g270
sg7
g270
sg9
g270
sg11
g270
sg13
g270
sg15
S'Andre Holmes'
p953
sg17
S'2012'
p954
sg19
g220
sg21
g270
sg23
S'Bye'
p955
sg25
g270
sg27
g270
sg29
g270
sg31
g270
sg33
g270
sg34
g270
sg35
g270
sg37
g270
sg39
g270
sg40
g270
ssg236
(dp956
g5
S'--'
p957
sg7
S'--'
p958
sg9
g10
sg11
S'--'
p959
sg13
g14
sg15
S'Andre Holmes'
p960
sg17
S'2012'
p961
sg19
g236
sg21
S'--'
p962
sg23
S'10/01'
p963
sg25
S'7.0'
p964
sg27
S'--'
p965
sg29
S'--'
p966
sg31
S'L18-34'
p967
sg33
g252
sg34
g14
sg35
S'CHI'
p968
sg37
g252
sg39
g10
sg40
S'--'
p969
ssg252
(dp970
g5
S'--'
p971
sg7
S'--'
p972
sg9
g10
sg11
S'--'
p973
sg13
g14
sg15
S'Andre Holmes'
p974
sg17
S'2012'
p975
sg19
g252
sg21
S'--'
p976
sg23
S'10/21'
p977
sg25
S'--'
p978
sg27
S'--'
p979
sg29
S'--'
p980
sg31
S'W19-14'
p981
sg33
S'--'
p982
sg34
S'--'
p983
sg35
S'@CAR'
p984
sg37
S'--'
p985
sg39
S'--'
p986
sg40
S'--'
p987
ssg268
(dp988
g5
S'--'
p989
sg7
S'--'
p990
sg9
g10
sg11
S'--'
p991
sg13
g14
sg15
S'Andre Holmes'
p992
sg17
S'2012'
p993
sg19
g268
sg21
S'--'
p994
sg23
S'10/14'
p995
sg25
S'--'
p996
sg27
S'--'
p997
sg29
S'--'
p998
sg31
S'L29-31'
p999
sg33
S'--'
p1000
sg34
S'--'
p1001
sg35
S'@BAL'
p1002
sg37
S'--'
p1003
sg39
S'--'
p1004
sg40
S'--'
p1005
ssg90
(dp1006
g5
S'--'
p1007
sg7
S'--'
p1008
sg9
g10
sg11
S'--'
p1009
sg13
g10
sg15
S'Andre Holmes'
p1010
sg17
S'2012'
p1011
sg19
g90
sg21
S'--'
p1012
sg23
S'11/04'
p1013
sg25
S'--'
p1014
sg27
S'--'
p1015
sg29
S'--'
p1016
sg31
S'L13-19'
p1017
sg33
S'--'
p1018
sg34
S'--'
p1019
sg35
S'@ATL'
p1020
sg37
S'--'
p1021
sg39
S'--'
p1022
sg40
S'--'
p1023
ssg289
(dp1024
g5
S'--'
p1025
sg7
S'--'
p1026
sg9
g10
sg11
S'--'
p1027
sg13
g10
sg15
S'Andre Holmes'
p1028
sg17
S'2012'
p1029
sg19
g289
sg21
S'--'
p1030
sg23
S'10/28'
p1031
sg25
S'--'
p1032
sg27
S'--'
p1033
sg29
S'--'
p1034
sg31
S'L24-29'
p1035
sg33
S'--'
p1036
sg34
S'--'
p1037
sg35
S'NYG'
p1038
sg37
S'--'
p1039
sg39
S'--'
p1040
sg40
S'--'
p1041
sss.