(dp0
S'2015'
p1
(dp2
S'11'
p3
(dp4
S'RushTD'
p5
S''
p6
sS'RushYds'
p7
g6
sS'GS'
p8
g6
sS'Lost'
p9
g6
sS'G'
p10
g6
sS'Player'
p11
S'Andrew Hawkins'
p12
sS'Year'
p13
S'2015'
p14
sS'WK'
p15
S'11'
p16
sS'RushAvg'
p17
g6
sS'Game Date'
p18
S'Bye'
p19
sS'RecAvg'
p20
g6
sS'FUM'
p21
g6
sS'RushAtt'
p22
g6
sS'Result'
p23
g6
sS'RecYds'
p24
g6
sS'Rec'
p25
g6
sS'Opp'
p26
g6
sS'RecLng'
p27
g6
sS'RecTD'
p28
g6
sS'RushLng'
p29
g6
ssS'10'
p30
(dp31
g5
S'--'
p32
sg7
S'--'
p33
sg8
S'1'
p34
sg9
g34
sg10
g34
sg11
S'Andrew Hawkins'
p35
sg13
S'2015'
p36
sg15
S'10'
p37
sg17
S'--'
p38
sg18
S'11/15'
p39
sg20
S'9.9'
p40
sg21
g34
sg22
S'--'
p41
sg23
S'L9-30'
p42
sg24
S'69'
p43
sg25
S'7'
p44
sg26
S'@PIT'
p45
sg27
S'16'
p46
sg28
S'0'
p47
sg29
S'--'
p48
ssS'13'
p49
(dp50
g5
S'--'
p51
sg7
S'--'
p52
sg8
g47
sg9
S'--'
p53
sg10
g47
sg11
S'Andrew Hawkins'
p54
sg13
S'2015'
p55
sg15
S'13'
p56
sg17
S'--'
p57
sg18
S'12/06'
p58
sg20
S'--'
p59
sg21
S'--'
p60
sg22
S'--'
p61
sg23
S'L3-37'
p62
sg24
S'--'
p63
sg25
S'--'
p64
sg26
S'CIN'
p65
sg27
S'--'
p66
sg28
S'--'
p67
sg29
S'--'
p68
ssS'12'
p69
(dp70
g5
S'--'
p71
sg7
S'--'
p72
sg8
g47
sg9
S'--'
p73
sg10
g47
sg11
S'Andrew Hawkins'
p74
sg13
S'2015'
p75
sg15
S'12'
p76
sg17
S'--'
p77
sg18
S'11/30'
p78
sg20
S'--'
p79
sg21
S'--'
p80
sg22
S'--'
p81
sg23
S'L27-33'
p82
sg24
S'--'
p83
sg25
S'--'
p84
sg26
S'BAL'
p85
sg27
S'--'
p86
sg28
S'--'
p87
sg29
S'--'
p88
ssS'15'
p89
(dp90
g5
S'--'
p91
sg7
S'--'
p92
sg8
g47
sg9
S'--'
p93
sg10
g47
sg11
S'Andrew Hawkins'
p94
sg13
S'2015'
p95
sg15
S'15'
p96
sg17
S'--'
p97
sg18
S'12/20'
p98
sg20
S'--'
p99
sg21
S'--'
p100
sg22
S'--'
p101
sg23
S'L13-30'
p102
sg24
S'--'
p103
sg25
S'--'
p104
sg26
S'@SEA'
p105
sg27
S'--'
p106
sg28
S'--'
p107
sg29
S'--'
p108
ssS'14'
p109
(dp110
g5
S'--'
p111
sg7
S'--'
p112
sg8
g47
sg9
S'--'
p113
sg10
g47
sg11
S'Andrew Hawkins'
p114
sg13
S'2015'
p115
sg15
S'14'
p116
sg17
S'--'
p117
sg18
S'12/13'
p118
sg20
S'--'
p119
sg21
S'--'
p120
sg22
S'--'
p121
sg23
S'W24-10'
p122
sg24
S'--'
p123
sg25
S'--'
p124
sg26
S'SF'
p125
sg27
S'--'
p126
sg28
S'--'
p127
sg29
S'--'
p128
ssg34
(dp129
g5
S'--'
p130
sg7
S'--'
p131
sg8
g34
sg9
S'--'
p132
sg10
g34
sg11
S'Andrew Hawkins'
p133
sg13
S'2015'
p134
sg15
g34
sg17
S'--'
p135
sg18
S'09/13'
p136
sg20
S'8.0'
p137
sg21
S'--'
p138
sg22
S'--'
p139
sg23
S'L10-31'
p140
sg24
S'24'
p141
sg25
S'3'
p142
sg26
S'@NYJ'
p143
sg27
S'11'
p144
sg28
g47
sg29
S'--'
p145
ssg142
(dp146
g5
S'--'
p147
sg7
S'--'
p148
sg8
g34
sg9
S'--'
p149
sg10
g34
sg11
S'Andrew Hawkins'
p150
sg13
S'2015'
p151
sg15
g142
sg17
S'--'
p152
sg18
S'09/27'
p153
sg20
S'9.0'
p154
sg21
S'--'
p155
sg22
S'--'
p156
sg23
S'L20-27'
p157
sg24
S'18'
p158
sg25
S'2'
p159
sg26
S'OAK'
p160
sg27
S'10'
p161
sg28
g47
sg29
S'--'
p162
ssg159
(dp163
g5
S'--'
p164
sg7
S'--'
p165
sg8
g34
sg9
S'--'
p166
sg10
g34
sg11
S'Andrew Hawkins'
p167
sg13
S'2015'
p168
sg15
g159
sg17
S'--'
p169
sg18
S'09/20'
p170
sg20
S'14.3'
p171
sg21
S'--'
p172
sg22
S'--'
p173
sg23
S'W28-14'
p174
sg24
S'43'
p175
sg25
g142
sg26
S'TEN'
p176
sg27
S'18'
p177
sg28
g47
sg29
S'--'
p178
ssS'5'
p179
(dp180
g5
S'--'
p181
sg7
S'--'
p182
sg8
g34
sg9
S'--'
p183
sg10
g34
sg11
S'Andrew Hawkins'
p184
sg13
S'2015'
p185
sg15
g179
sg17
S'--'
p186
sg18
S'10/11'
p187
sg20
S'7.0'
p188
sg21
S'--'
p189
sg22
S'--'
p190
sg23
S'W33-30'
p191
sg24
S'49'
p192
sg25
g44
sg26
S'@BAL'
p193
sg27
S'22'
p194
sg28
g47
sg29
S'--'
p195
ssS'4'
p196
(dp197
g5
S'--'
p198
sg7
S'--'
p199
sg8
g34
sg9
S'--'
p200
sg10
g34
sg11
S'Andrew Hawkins'
p201
sg13
S'2015'
p202
sg15
g196
sg17
S'--'
p203
sg18
S'10/04'
p204
sg20
S'13.5'
p205
sg21
S'--'
p206
sg22
S'--'
p207
sg23
S'L27-30'
p208
sg24
S'27'
p209
sg25
g159
sg26
S'@SD'
p210
sg27
S'18'
p211
sg28
g47
sg29
S'--'
p212
ssg44
(dp213
g5
S'--'
p214
sg7
S'--'
p215
sg8
g34
sg9
S'--'
p216
sg10
g34
sg11
S'Andrew Hawkins'
p217
sg13
S'2015'
p218
sg15
g44
sg17
S'--'
p219
sg18
S'10/25'
p220
sg20
S'10.5'
p221
sg21
S'--'
p222
sg22
S'--'
p223
sg23
S'L6-24'
p224
sg24
S'21'
p225
sg25
g159
sg26
S'@STL'
p226
sg27
S'19'
p227
sg28
g47
sg29
S'--'
p228
ssS'6'
p229
(dp230
g5
S'--'
p231
sg7
S'--'
p232
sg8
g34
sg9
S'--'
p233
sg10
g34
sg11
S'Andrew Hawkins'
p234
sg13
S'2015'
p235
sg15
g229
sg17
S'--'
p236
sg18
S'10/18'
p237
sg20
S'25.0'
p238
sg21
S'--'
p239
sg22
S'--'
p240
sg23
S'L23-26'
p241
sg24
S'25'
p242
sg25
g34
sg26
S'DEN'
p243
sg27
S'25'
p244
sg28
g47
sg29
S'--'
p245
ssS'9'
p246
(dp247
g5
S'--'
p248
sg7
S'--'
p249
sg8
g47
sg9
S'--'
p250
sg10
g47
sg11
S'Andrew Hawkins'
p251
sg13
S'2015'
p252
sg15
g246
sg17
S'--'
p253
sg18
S'11/05'
p254
sg20
S'--'
p255
sg21
S'--'
p256
sg22
S'--'
p257
sg23
S'L10-31'
p258
sg24
S'--'
p259
sg25
S'--'
p260
sg26
S'@CIN'
p261
sg27
S'--'
p262
sg28
S'--'
p263
sg29
S'--'
p264
ssS'8'
p265
(dp266
g5
S'--'
p267
sg7
S'--'
p268
sg8
g47
sg9
S'--'
p269
sg10
g47
sg11
S'Andrew Hawkins'
p270
sg13
S'2015'
p271
sg15
g265
sg17
S'--'
p272
sg18
S'11/01'
p273
sg20
S'--'
p274
sg21
S'--'
p275
sg22
S'--'
p276
sg23
S'L20-34'
p277
sg24
S'--'
p278
sg25
S'--'
p279
sg26
S'ARI'
p280
sg27
S'--'
p281
sg28
S'--'
p282
sg29
S'--'
p283
sssS'2014'
p284
(dp285
g3
(dp286
g5
S'--'
p287
sg7
S'--'
p288
sg8
g34
sg9
S'--'
p289
sg10
g34
sg11
S'Andrew Hawkins'
p290
sg13
S'2014'
p291
sg15
S'11'
p292
sg17
S'--'
p293
sg18
S'11/16'
p294
sg20
S'16.2'
p295
sg21
S'--'
p296
sg22
S'--'
p297
sg23
S'L7-23'
p298
sg24
S'97'
p299
sg25
g229
sg26
S'HOU'
p300
sg27
S'32T'
p301
sg28
g34
sg29
S'--'
p302
ssg30
(dp303
g5
S'--'
p304
sg7
S'--'
p305
sg8
g47
sg9
S'--'
p306
sg10
g47
sg11
S'Andrew Hawkins'
p307
sg13
S'2014'
p308
sg15
S'10'
p309
sg17
S'--'
p310
sg18
S'11/06'
p311
sg20
S'--'
p312
sg21
S'--'
p313
sg22
S'--'
p314
sg23
S'W24-3'
p315
sg24
S'--'
p316
sg25
S'--'
p317
sg26
S'@CIN'
p318
sg27
S'--'
p319
sg28
S'--'
p320
sg29
S'--'
p321
ssg49
(dp322
g5
S'--'
p323
sg7
S'--'
p324
sg8
g34
sg9
S'--'
p325
sg10
g34
sg11
S'Andrew Hawkins'
p326
sg13
S'2014'
p327
sg15
S'13'
p328
sg17
S'--'
p329
sg18
S'11/30'
p330
sg20
S'12.0'
p331
sg21
S'--'
p332
sg22
S'--'
p333
sg23
S'L10-26'
p334
sg24
S'24'
p335
sg25
g159
sg26
S'@BUF'
p336
sg27
S'15'
p337
sg28
g47
sg29
S'--'
p338
ssg69
(dp339
g5
S'--'
p340
sg7
S'--'
p341
sg8
g34
sg9
S'--'
p342
sg10
g34
sg11
S'Andrew Hawkins'
p343
sg13
S'2014'
p344
sg15
S'12'
p345
sg17
S'--'
p346
sg18
S'11/23'
p347
sg20
S'18.6'
p348
sg21
S'--'
p349
sg22
S'--'
p350
sg23
S'W26-24'
p351
sg24
S'93'
p352
sg25
g179
sg26
S'@ATL'
p353
sg27
S'40'
p354
sg28
g47
sg29
S'--'
p355
ssg89
(dp356
g5
S'--'
p357
sg7
S'--'
p358
sg8
g34
sg9
S'--'
p359
sg10
g34
sg11
S'Andrew Hawkins'
p360
sg13
S'2014'
p361
sg15
S'15'
p362
sg17
S'--'
p363
sg18
S'12/14'
p364
sg20
S'3.5'
p365
sg21
S'--'
p366
sg22
S'--'
p367
sg23
S'L0-30'
p368
sg24
g44
sg25
g159
sg26
S'CIN'
p369
sg27
g196
sg28
g47
sg29
S'--'
p370
ssg109
(dp371
g5
S'--'
p372
sg7
S'--'
p373
sg8
g34
sg9
S'--'
p374
sg10
g34
sg11
S'Andrew Hawkins'
p375
sg13
S'2014'
p376
sg15
S'14'
p377
sg17
S'--'
p378
sg18
S'12/07'
p379
sg20
S'9.5'
p380
sg21
S'--'
p381
sg22
S'--'
p382
sg23
S'L24-25'
p383
sg24
S'38'
p384
sg25
g196
sg26
S'IND'
p385
sg27
S'20'
p386
sg28
g47
sg29
S'--'
p387
ssS'17'
p388
(dp389
g5
S'--'
p390
sg7
S'--'
p391
sg8
g34
sg9
S'--'
p392
sg10
g34
sg11
S'Andrew Hawkins'
p393
sg13
S'2014'
p394
sg15
S'17'
p395
sg17
S'--'
p396
sg18
S'12/28'
p397
sg20
S'8.3'
p398
sg21
S'--'
p399
sg22
S'--'
p400
sg23
S'L10-20'
p401
sg24
S'33'
p402
sg25
g196
sg26
S'@BAL'
p403
sg27
S'15'
p404
sg28
g47
sg29
S'--'
p405
ssS'16'
p406
(dp407
g5
g47
sg7
g44
sg8
g34
sg9
S'--'
p408
sg10
g34
sg11
S'Andrew Hawkins'
p409
sg13
S'2014'
p410
sg15
S'16'
p411
sg17
S'3.5'
p412
sg18
S'12/21'
p413
sg20
S'28.0'
p414
sg21
S'--'
p415
sg22
g159
sg23
S'L13-17'
p416
sg24
S'28'
p417
sg25
g34
sg26
S'@CAR'
p418
sg27
S'28'
p419
sg28
g47
sg29
g179
ssg34
(dp420
g5
S'--'
p421
sg7
S'--'
p422
sg8
g34
sg9
S'--'
p423
sg10
g34
sg11
S'Andrew Hawkins'
p424
sg13
S'2014'
p425
sg15
g34
sg17
S'--'
p426
sg18
S'09/07'
p427
sg20
S'10.9'
p428
sg21
S'--'
p429
sg22
S'--'
p430
sg23
S'L27-30'
p431
sg24
S'87'
p432
sg25
g265
sg26
S'@PIT'
p433
sg27
S'25'
p434
sg28
g47
sg29
S'--'
p435
ssg142
(dp436
g5
S'--'
p437
sg7
S'--'
p438
sg8
g34
sg9
S'--'
p439
sg10
g34
sg11
S'Andrew Hawkins'
p440
sg13
S'2014'
p441
sg15
g142
sg17
S'--'
p442
sg18
S'09/21'
p443
sg20
S'12.4'
p444
sg21
S'--'
p445
sg22
S'--'
p446
sg23
S'L21-23'
p447
sg24
S'87'
p448
sg25
g44
sg26
S'BAL'
p449
sg27
S'29'
p450
sg28
g47
sg29
S'--'
p451
ssg159
(dp452
g5
S'--'
p453
sg7
S'--'
p454
sg8
g34
sg9
S'--'
p455
sg10
g34
sg11
S'Andrew Hawkins'
p456
sg13
S'2014'
p457
sg15
g159
sg17
S'--'
p458
sg18
S'09/14'
p459
sg20
S'11.7'
p460
sg21
S'--'
p461
sg22
S'--'
p462
sg23
S'W26-24'
p463
sg24
S'70'
p464
sg25
g229
sg26
S'NO'
p465
sg27
S'28'
p466
sg28
g47
sg29
S'--'
p467
ssg179
(dp468
g5
S'--'
p469
sg7
S'--'
p470
sg8
g34
sg9
S'--'
p471
sg10
g34
sg11
S'Andrew Hawkins'
p472
sg13
S'2014'
p473
sg15
g179
sg17
S'--'
p474
sg18
S'10/05'
p475
sg20
S'8.7'
p476
sg21
S'--'
p477
sg22
S'--'
p478
sg23
S'W29-28'
p479
sg24
S'26'
p480
sg25
g142
sg26
S'@TEN'
p481
sg27
S'10'
p482
sg28
g47
sg29
S'--'
p483
ssg196
(dp484
g5
g6
sg7
g6
sg8
g6
sg9
g6
sg10
g6
sg11
S'Andrew Hawkins'
p485
sg13
S'2014'
p486
sg15
g196
sg17
g6
sg18
S'Bye'
p487
sg20
g6
sg21
g6
sg22
g6
sg23
g6
sg24
g6
sg25
g6
sg26
g6
sg27
g6
sg28
g6
sg29
g6
ssg44
(dp488
g5
g47
sg7
g265
sg8
g34
sg9
S'--'
p489
sg10
g34
sg11
S'Andrew Hawkins'
p490
sg13
S'2014'
p491
sg15
g44
sg17
S'8.0'
p492
sg18
S'10/19'
p493
sg20
S'22.4'
p494
sg21
S'--'
p495
sg22
g34
sg23
S'L6-24'
p496
sg24
S'112'
p497
sg25
g179
sg26
S'@JAC'
p498
sg27
S'65'
p499
sg28
g47
sg29
g265
ssg229
(dp500
g5
S'--'
p501
sg7
S'--'
p502
sg8
g34
sg9
S'--'
p503
sg10
g34
sg11
S'Andrew Hawkins'
p504
sg13
S'2014'
p505
sg15
g229
sg17
S'--'
p506
sg18
S'10/12'
p507
sg20
S'--'
p508
sg21
S'--'
p509
sg22
S'--'
p510
sg23
S'W31-10'
p511
sg24
g47
sg25
g47
sg26
S'PIT'
p512
sg27
S'--'
p513
sg28
g47
sg29
S'--'
p514
ssg246
(dp515
g5
S'--'
p516
sg7
S'--'
p517
sg8
g34
sg9
S'--'
p518
sg10
g34
sg11
S'Andrew Hawkins'
p519
sg13
S'2014'
p520
sg15
g246
sg17
S'--'
p521
sg18
S'11/02'
p522
sg20
S'11.3'
p523
sg21
S'--'
p524
sg22
S'--'
p525
sg23
S'W22-17'
p526
sg24
S'34'
p527
sg25
g142
sg26
S'TB'
p528
sg27
S'20'
p529
sg28
g47
sg29
S'--'
p530
ssg265
(dp531
g5
S'--'
p532
sg7
S'--'
p533
sg8
g34
sg9
S'--'
p534
sg10
g34
sg11
S'Andrew Hawkins'
p535
sg13
S'2014'
p536
sg15
g265
sg17
S'--'
p537
sg18
S'10/26'
p538
sg20
S'12.6'
p539
sg21
S'--'
p540
sg22
S'--'
p541
sg23
S'W23-13'
p542
sg24
S'88'
p543
sg25
g44
sg26
S'OAK'
p544
sg27
S'32'
p545
sg28
g34
sg29
S'--'
p546
sssS'2011'
p547
(dp548
g3
(dp549
g5
S'--'
p550
sg7
S'--'
p551
sg8
g47
sg9
S'--'
p552
sg10
g34
sg11
S'Andrew Hawkins'
p553
sg13
S'2011'
p554
sg15
S'11'
p555
sg17
S'--'
p556
sg18
S'11/20'
p557
sg20
S'11.8'
p558
sg21
S'--'
p559
sg22
S'--'
p560
sg23
S'L24-31'
p561
sg24
S'47'
p562
sg25
g196
sg26
S'@BAL'
p563
sg27
S'19'
p564
sg28
g47
sg29
S'--'
p565
ssg30
(dp566
g5
g47
sg7
g196
sg8
g47
sg9
S'--'
p567
sg10
g34
sg11
S'Andrew Hawkins'
p568
sg13
S'2011'
p569
sg15
S'10'
p570
sg17
S'4.0'
p571
sg18
S'11/13'
p572
sg20
S'11.2'
p573
sg21
S'--'
p574
sg22
g34
sg23
S'L17-24'
p575
sg24
S'56'
p576
sg25
g179
sg26
S'PIT'
p577
sg27
S'25'
p578
sg28
g47
sg29
g196
ssg49
(dp579
g5
S'--'
p580
sg7
S'--'
p581
sg8
g47
sg9
S'--'
p582
sg10
g34
sg11
S'Andrew Hawkins'
p583
sg13
S'2011'
p584
sg15
S'13'
p585
sg17
S'--'
p586
sg18
S'12/04'
p587
sg20
S'8.0'
p588
sg21
S'--'
p589
sg22
S'--'
p590
sg23
S'L7-35'
p591
sg24
g265
sg25
g34
sg26
S'@PIT'
p592
sg27
g265
sg28
g47
sg29
S'--'
p593
ssg69
(dp594
g5
S'--'
p595
sg7
S'--'
p596
sg8
g47
sg9
S'--'
p597
sg10
g34
sg11
S'Andrew Hawkins'
p598
sg13
S'2011'
p599
sg15
S'12'
p600
sg17
S'--'
p601
sg18
S'11/27'
p602
sg20
S'13.5'
p603
sg21
S'--'
p604
sg22
S'--'
p605
sg23
S'W23-20'
p606
sg24
S'27'
p607
sg25
g159
sg26
S'CLE'
p608
sg27
S'19'
p609
sg28
g47
sg29
S'--'
p610
ssg89
(dp611
g5
g47
sg7
g265
sg8
g47
sg9
S'--'
p612
sg10
g34
sg11
S'Andrew Hawkins'
p613
sg13
S'2011'
p614
sg15
S'15'
p615
sg17
S'8.0'
p616
sg18
S'12/18'
p617
sg20
S'10.0'
p618
sg21
S'--'
p619
sg22
g34
sg23
S'W20-13'
p620
sg24
S'10'
p621
sg25
g34
sg26
S'@STL'
p622
sg27
S'10'
p623
sg28
g47
sg29
g265
ssg109
(dp624
g5
g47
sg7
g196
sg8
g47
sg9
S'--'
p625
sg10
g34
sg11
S'Andrew Hawkins'
p626
sg13
S'2011'
p627
sg15
S'14'
p628
sg17
S'4.0'
p629
sg18
S'12/11'
p630
sg20
S'22.0'
p631
sg21
S'--'
p632
sg22
g34
sg23
S'L19-20'
p633
sg24
S'22'
p634
sg25
g34
sg26
S'HOU'
p635
sg27
S'22'
p636
sg28
g47
sg29
g196
ssg388
(dp637
g5
g47
sg7
g142
sg8
g47
sg9
S'--'
p638
sg10
g34
sg11
S'Andrew Hawkins'
p639
sg13
S'2011'
p640
sg15
S'17'
p641
sg17
S'3.0'
p642
sg18
S'01/01'
p643
sg20
S'11.3'
p644
sg21
S'--'
p645
sg22
g34
sg23
S'L16-24'
p646
sg24
S'34'
p647
sg25
g142
sg26
S'BAL'
p648
sg27
S'26'
p649
sg28
g47
sg29
g142
ssg406
(dp650
g5
S'--'
p651
sg7
S'--'
p652
sg8
g47
sg9
S'--'
p653
sg10
g34
sg11
S'Andrew Hawkins'
p654
sg13
S'2011'
p655
sg15
S'16'
p656
sg17
S'--'
p657
sg18
S'12/24'
p658
sg20
S'3.0'
p659
sg21
S'--'
p660
sg22
S'--'
p661
sg23
S'W23-16'
p662
sg24
g142
sg25
g34
sg26
S'ARI'
p663
sg27
g142
sg28
g47
sg29
S'--'
p664
ssg142
(dp665
g5
S'--'
p666
sg7
S'--'
p667
sg8
g47
sg9
S'--'
p668
sg10
g47
sg11
S'Andrew Hawkins'
p669
sg13
S'2011'
p670
sg15
g142
sg17
S'--'
p671
sg18
S'09/25'
p672
sg20
S'--'
p673
sg21
S'--'
p674
sg22
S'--'
p675
sg23
S'L8-13'
p676
sg24
S'--'
p677
sg25
S'--'
p678
sg26
S'SF'
p679
sg27
S'--'
p680
sg28
S'--'
p681
sg29
S'--'
p682
ssg179
(dp683
g5
S'--'
p684
sg7
S'--'
p685
sg8
g47
sg9
S'--'
p686
sg10
g34
sg11
S'Andrew Hawkins'
p687
sg13
S'2011'
p688
sg15
g179
sg17
S'--'
p689
sg18
S'10/09'
p690
sg20
S'3.0'
p691
sg21
S'--'
p692
sg22
S'--'
p693
sg23
S'W30-20'
p694
sg24
g229
sg25
g159
sg26
S'@JAC'
p695
sg27
g246
sg28
g47
sg29
S'--'
p696
ssg196
(dp697
g5
S'--'
p698
sg7
S'--'
p699
sg8
g47
sg9
S'--'
p700
sg10
g34
sg11
S'Andrew Hawkins'
p701
sg13
S'2011'
p702
sg15
g196
sg17
S'--'
p703
sg18
S'10/02'
p704
sg20
S'21.5'
p705
sg21
S'--'
p706
sg22
S'--'
p707
sg23
S'W23-20'
p708
sg24
S'43'
p709
sg25
g159
sg26
S'BUF'
p710
sg27
S'25'
p711
sg28
g47
sg29
S'--'
p712
ssg44
(dp713
g5
g6
sg7
g6
sg8
g6
sg9
g6
sg10
g6
sg11
S'Andrew Hawkins'
p714
sg13
S'2011'
p715
sg15
g44
sg17
g6
sg18
S'Bye'
p716
sg20
g6
sg21
g6
sg22
g6
sg23
g6
sg24
g6
sg25
g6
sg26
g6
sg27
g6
sg28
g6
sg29
g6
ssg229
(dp717
g5
S'--'
p718
sg7
S'--'
p719
sg8
g47
sg9
S'--'
p720
sg10
g34
sg11
S'Andrew Hawkins'
p721
sg13
S'2011'
p722
sg15
g229
sg17
S'--'
p723
sg18
S'10/16'
p724
sg20
S'7.0'
p725
sg21
S'--'
p726
sg22
S'--'
p727
sg23
S'W27-17'
p728
sg24
g44
sg25
g34
sg26
S'IND'
p729
sg27
g44
sg28
g47
sg29
S'--'
p730
ssg246
(dp731
g5
S'--'
p732
sg7
S'--'
p733
sg8
g47
sg9
S'--'
p734
sg10
g34
sg11
S'Andrew Hawkins'
p735
sg13
S'2011'
p736
sg15
g246
sg17
S'--'
p737
sg18
S'11/06'
p738
sg20
S'--'
p739
sg21
S'--'
p740
sg22
S'--'
p741
sg23
S'W24-17'
p742
sg24
S'--'
p743
sg25
S'--'
p744
sg26
S'@TEN'
p745
sg27
S'--'
p746
sg28
S'--'
p747
sg29
S'--'
p748
ssg265
(dp749
g5
g47
sg7
g229
sg8
g47
sg9
S'--'
p750
sg10
g34
sg11
S'Andrew Hawkins'
p751
sg13
S'2011'
p752
sg15
g265
sg17
S'6.0'
p753
sg18
S'10/30'
p754
sg20
S'--'
p755
sg21
S'--'
p756
sg22
g34
sg23
S'W34-12'
p757
sg24
S'--'
p758
sg25
S'--'
p759
sg26
S'@SEA'
p760
sg27
S'--'
p761
sg28
S'--'
p762
sg29
g229
sssS'2013'
p763
(dp764
g3
(dp765
g5
S'--'
p766
sg7
S'--'
p767
sg8
g47
sg9
S'--'
p768
sg10
g34
sg11
S'Andrew Hawkins'
p769
sg13
S'2013'
p770
sg15
S'11'
p771
sg17
S'--'
p772
sg18
S'11/17'
p773
sg20
S'6.0'
p774
sg21
S'--'
p775
sg22
S'--'
p776
sg23
S'W41-20'
p777
sg24
g229
sg25
g34
sg26
S'CLE'
p778
sg27
g229
sg28
g47
sg29
S'--'
p779
ssg30
(dp780
g5
g47
sg7
S'-3'
p781
sg8
g47
sg9
g47
sg10
g34
sg11
S'Andrew Hawkins'
p782
sg13
S'2013'
p783
sg15
S'10'
p784
sg17
S'-3.0'
p785
sg18
S'11/10'
p786
sg20
S'--'
p787
sg21
g34
sg22
g34
sg23
S'L17-20'
p788
sg24
S'--'
p789
sg25
S'--'
p790
sg26
S'@BAL'
p791
sg27
S'--'
p792
sg28
S'--'
p793
sg29
S'-3'
p794
ssg49
(dp795
g5
g47
sg7
g229
sg8
g47
sg9
S'--'
p796
sg10
g34
sg11
S'Andrew Hawkins'
p797
sg13
S'2013'
p798
sg15
S'13'
p799
sg17
S'6.0'
p800
sg18
S'12/01'
p801
sg20
S'21.7'
p802
sg21
S'--'
p803
sg22
g34
sg23
S'W17-10'
p804
sg24
S'65'
p805
sg25
g142
sg26
S'@SD'
p806
sg27
S'50'
p807
sg28
g47
sg29
g229
ssg69
(dp808
g5
g6
sg7
g6
sg8
g6
sg9
g6
sg10
g6
sg11
S'Andrew Hawkins'
p809
sg13
S'2013'
p810
sg15
S'12'
p811
sg17
g6
sg18
S'Bye'
p812
sg20
g6
sg21
g6
sg22
g6
sg23
g6
sg24
g6
sg25
g6
sg26
g6
sg27
g6
sg28
g6
sg29
g6
ssg89
(dp813
g5
S'--'
p814
sg7
S'--'
p815
sg8
g47
sg9
S'--'
p816
sg10
g34
sg11
S'Andrew Hawkins'
p817
sg13
S'2013'
p818
sg15
S'15'
p819
sg17
S'--'
p820
sg18
S'12/15'
p821
sg20
S'--'
p822
sg21
S'--'
p823
sg22
S'--'
p824
sg23
S'L20-30'
p825
sg24
g47
sg25
g47
sg26
S'@PIT'
p826
sg27
S'--'
p827
sg28
g47
sg29
S'--'
p828
ssg109
(dp829
g5
S'--'
p830
sg7
S'--'
p831
sg8
g47
sg9
S'--'
p832
sg10
g34
sg11
S'Andrew Hawkins'
p833
sg13
S'2013'
p834
sg15
S'14'
p835
sg17
S'--'
p836
sg18
S'12/08'
p837
sg20
S'7.0'
p838
sg21
S'--'
p839
sg22
S'--'
p840
sg23
S'W42-28'
p841
sg24
g44
sg25
g34
sg26
S'IND'
p842
sg27
g44
sg28
g47
sg29
S'--'
p843
ssg388
(dp844
g5
S'--'
p845
sg7
S'--'
p846
sg8
g47
sg9
S'--'
p847
sg10
g34
sg11
S'Andrew Hawkins'
p848
sg13
S'2013'
p849
sg15
S'17'
p850
sg17
S'--'
p851
sg18
S'12/29'
p852
sg20
S'24.7'
p853
sg21
S'--'
p854
sg22
S'--'
p855
sg23
S'W34-17'
p856
sg24
S'74'
p857
sg25
g142
sg26
S'BAL'
p858
sg27
S'38'
p859
sg28
g47
sg29
S'--'
p860
ssg406
(dp861
g5
S'--'
p862
sg7
S'--'
p863
sg8
g47
sg9
S'--'
p864
sg10
g34
sg11
S'Andrew Hawkins'
p865
sg13
S'2013'
p866
sg15
S'16'
p867
sg17
S'--'
p868
sg18
S'12/22'
p869
sg20
S'12.3'
p870
sg21
S'--'
p871
sg22
S'--'
p872
sg23
S'W42-14'
p873
sg24
S'37'
p874
sg25
g142
sg26
S'MIN'
p875
sg27
S'34'
p876
sg28
g47
sg29
S'--'
p877
ssg246
(dp878
g5
S'--'
p879
sg7
S'--'
p880
sg8
g47
sg9
S'--'
p881
sg10
g34
sg11
S'Andrew Hawkins'
p882
sg13
S'2013'
p883
sg15
g246
sg17
S'--'
p884
sg18
S'10/31'
p885
sg20
S'10.0'
p886
sg21
S'--'
p887
sg22
S'--'
p888
sg23
S'L20-22'
p889
sg24
S'10'
p890
sg25
g34
sg26
S'@MIA'
p891
sg27
S'10'
p892
sg28
g47
sg29
S'--'
p893
sssS'2012'
p894
(dp895
g3
(dp896
g5
S'--'
p897
sg7
S'--'
p898
sg8
g47
sg9
S'--'
p899
sg10
g47
sg11
S'Andrew Hawkins'
p900
sg13
S'2012'
p901
sg15
S'11'
p902
sg17
S'--'
p903
sg18
S'11/18'
p904
sg20
S'--'
p905
sg21
S'--'
p906
sg22
S'--'
p907
sg23
S'W28-6'
p908
sg24
S'--'
p909
sg25
S'--'
p910
sg26
S'@KC'
p911
sg27
S'--'
p912
sg28
S'--'
p913
sg29
S'--'
p914
ssg30
(dp915
g5
S'--'
p916
sg7
S'--'
p917
sg8
g34
sg9
S'--'
p918
sg10
g34
sg11
S'Andrew Hawkins'
p919
sg13
S'2012'
p920
sg15
S'10'
p921
sg17
S'--'
p922
sg18
S'11/11'
p923
sg20
S'5.3'
p924
sg21
S'--'
p925
sg22
S'--'
p926
sg23
S'W31-13'
p927
sg24
S'16'
p928
sg25
g142
sg26
S'NYG'
p929
sg27
S'11T'
p930
sg28
g34
sg29
S'--'
p931
ssg49
(dp932
g5
S'--'
p933
sg7
S'--'
p934
sg8
g34
sg9
g47
sg10
g34
sg11
S'Andrew Hawkins'
p935
sg13
S'2012'
p936
sg15
S'13'
p937
sg17
S'--'
p938
sg18
S'12/02'
p939
sg20
S'9.4'
p940
sg21
g34
sg22
S'--'
p941
sg23
S'W20-13'
p942
sg24
S'47'
p943
sg25
g179
sg26
S'@SD'
p944
sg27
S'17'
p945
sg28
g47
sg29
S'--'
p946
ssg69
(dp947
g5
S'--'
p948
sg7
S'--'
p949
sg8
g47
sg9
S'--'
p950
sg10
g47
sg11
S'Andrew Hawkins'
p951
sg13
S'2012'
p952
sg15
S'12'
p953
sg17
S'--'
p954
sg18
S'11/25'
p955
sg20
S'--'
p956
sg21
S'--'
p957
sg22
S'--'
p958
sg23
S'W34-10'
p959
sg24
S'--'
p960
sg25
S'--'
p961
sg26
S'OAK'
p962
sg27
S'--'
p963
sg28
S'--'
p964
sg29
S'--'
p965
ssg89
(dp966
g5
g47
sg7
g246
sg8
g47
sg9
S'--'
p967
sg10
g34
sg11
S'Andrew Hawkins'
p968
sg13
S'2012'
p969
sg15
S'15'
p970
sg17
S'9.0'
p971
sg18
S'12/13'
p972
sg20
S'--'
p973
sg21
S'--'
p974
sg22
g34
sg23
S'W34-13'
p975
sg24
g47
sg25
g47
sg26
S'@PHI'
p976
sg27
S'--'
p977
sg28
g47
sg29
g246
ssg109
(dp978
g5
S'--'
p979
sg7
S'--'
p980
sg8
g47
sg9
S'--'
p981
sg10
g34
sg11
S'Andrew Hawkins'
p982
sg13
S'2012'
p983
sg15
S'14'
p984
sg17
S'--'
p985
sg18
S'12/09'
p986
sg20
S'7.3'
p987
sg21
S'--'
p988
sg22
S'--'
p989
sg23
S'L19-20'
p990
sg24
S'44'
p991
sg25
g229
sg26
S'DAL'
p992
sg27
S'11'
p993
sg28
g34
sg29
S'--'
p994
ssg388
(dp995
g5
S'--'
p996
sg7
S'--'
p997
sg8
g47
sg9
S'--'
p998
sg10
g34
sg11
S'Andrew Hawkins'
p999
sg13
S'2012'
p1000
sg15
S'17'
p1001
sg17
S'--'
p1002
sg18
S'12/30'
p1003
sg20
S'6.0'
p1004
sg21
S'--'
p1005
sg22
S'--'
p1006
sg23
S'W23-17'
p1007
sg24
S'18'
p1008
sg25
g142
sg26
S'BAL'
p1009
sg27
g265
sg28
g47
sg29
S'--'
p1010
ssg406
(dp1011
g5
S'--'
p1012
sg7
S'--'
p1013
sg8
g47
sg9
S'--'
p1014
sg10
g34
sg11
S'Andrew Hawkins'
p1015
sg13
S'2012'
p1016
sg15
S'16'
p1017
sg17
S'--'
p1018
sg18
S'12/23'
p1019
sg20
S'10.0'
p1020
sg21
S'--'
p1021
sg22
S'--'
p1022
sg23
S'W13-10'
p1023
sg24
S'30'
p1024
sg25
g142
sg26
S'@PIT'
p1025
sg27
S'19'
p1026
sg28
g47
sg29
S'--'
p1027
ssg34
(dp1028
g5
S'--'
p1029
sg7
S'--'
p1030
sg8
g47
sg9
S'--'
p1031
sg10
g34
sg11
S'Andrew Hawkins'
p1032
sg13
S'2012'
p1033
sg15
g34
sg17
S'--'
p1034
sg18
S'09/10'
p1035
sg20
S'10.8'
p1036
sg21
S'--'
p1037
sg22
S'--'
p1038
sg23
S'L13-44'
p1039
sg24
S'86'
p1040
sg25
g265
sg26
S'@BAL'
p1041
sg27
S'27'
p1042
sg28
g47
sg29
S'--'
p1043
ssg142
(dp1044
g5
g47
sg7
S'16'
p1045
sg8
g47
sg9
S'--'
p1046
sg10
g34
sg11
S'Andrew Hawkins'
p1047
sg13
S'2012'
p1048
sg15
g142
sg17
S'8.0'
p1049
sg18
S'09/23'
p1050
sg20
S'33.0'
p1051
sg21
S'--'
p1052
sg22
g159
sg23
S'W38-31'
p1053
sg24
S'66'
p1054
sg25
g159
sg26
S'@WAS'
p1055
sg27
S'59T'
p1056
sg28
g34
sg29
S'11'
p1057
ssg159
(dp1058
g5
S'--'
p1059
sg7
S'--'
p1060
sg8
g47
sg9
S'--'
p1061
sg10
g34
sg11
S'Andrew Hawkins'
p1062
sg13
S'2012'
p1063
sg15
g159
sg17
S'--'
p1064
sg18
S'09/16'
p1065
sg20
S'28.0'
p1066
sg21
S'--'
p1067
sg22
S'--'
p1068
sg23
S'W34-27'
p1069
sg24
S'56'
p1070
sg25
g159
sg26
S'CLE'
p1071
sg27
S'50T'
p1072
sg28
g34
sg29
S'--'
p1073
ssg179
(dp1074
g5
g47
sg7
g179
sg8
g47
sg9
S'--'
p1075
sg10
g34
sg11
S'Andrew Hawkins'
p1076
sg13
S'2012'
p1077
sg15
g179
sg17
S'5.0'
p1078
sg18
S'10/07'
p1079
sg20
S'9.4'
p1080
sg21
S'--'
p1081
sg22
g34
sg23
S'L13-17'
p1082
sg24
S'47'
p1083
sg25
g179
sg26
S'MIA'
p1084
sg27
S'24'
p1085
sg28
g47
sg29
g179
ssg196
(dp1086
g5
S'--'
p1087
sg7
S'--'
p1088
sg8
g47
sg9
S'--'
p1089
sg10
g34
sg11
S'Andrew Hawkins'
p1090
sg13
S'2012'
p1091
sg15
g196
sg17
S'--'
p1092
sg18
S'09/30'
p1093
sg20
S'13.0'
p1094
sg21
S'--'
p1095
sg22
S'--'
p1096
sg23
S'W27-10'
p1097
sg24
S'39'
p1098
sg25
g142
sg26
S'@JAC'
p1099
sg27
S'31'
p1100
sg28
g47
sg29
S'--'
p1101
ssg44
(dp1102
g5
S'--'
p1103
sg7
S'--'
p1104
sg8
g47
sg9
S'--'
p1105
sg10
g34
sg11
S'Andrew Hawkins'
p1106
sg13
S'2012'
p1107
sg15
g44
sg17
S'--'
p1108
sg18
S'10/21'
p1109
sg20
S'8.5'
p1110
sg21
S'--'
p1111
sg22
S'--'
p1112
sg23
S'L17-24'
p1113
sg24
S'17'
p1114
sg25
g159
sg26
S'PIT'
p1115
sg27
S'13'
p1116
sg28
g47
sg29
S'--'
p1117
ssg229
(dp1118
g5
g47
sg7
g159
sg8
g47
sg9
S'--'
p1119
sg10
g34
sg11
S'Andrew Hawkins'
p1120
sg13
S'2012'
p1121
sg15
g229
sg17
S'2.0'
p1122
sg18
S'10/14'
p1123
sg20
S'7.0'
p1124
sg21
S'--'
p1125
sg22
g34
sg23
S'L24-34'
p1126
sg24
S'35'
p1127
sg25
g179
sg26
S'@CLE'
p1128
sg27
S'11'
p1129
sg28
g47
sg29
g159
ssg246
(dp1130
g5
g47
sg7
S'-2'
p1131
sg8
g47
sg9
S'--'
p1132
sg10
g34
sg11
S'Andrew Hawkins'
p1133
sg13
S'2012'
p1134
sg15
g246
sg17
S'-2.0'
p1135
sg18
S'11/04'
p1136
sg20
S'8.0'
p1137
sg21
S'--'
p1138
sg22
g34
sg23
S'L23-31'
p1139
sg24
S'32'
p1140
sg25
g196
sg26
S'DEN'
p1141
sg27
S'18'
p1142
sg28
g47
sg29
S'-2'
p1143
ssg265
(dp1144
g5
g6
sg7
g6
sg8
g6
sg9
g6
sg10
g6
sg11
S'Andrew Hawkins'
p1145
sg13
S'2012'
p1146
sg15
g265
sg17
g6
sg18
S'Bye'
p1147
sg20
g6
sg21
g6
sg22
g6
sg23
g6
sg24
g6
sg25
g6
sg26
g6
sg27
g6
sg28
g6
sg29
g6
sss.