(dp0
S'2015'
p1
(dp2
S'11'
p3
(dp4
S'RushTD'
p5
S'--'
p6
sS'RushYds'
p7
S'--'
p8
sS'GS'
p9
S'0'
p10
sS'Lost'
p11
S'--'
p12
sS'G'
p13
S'1'
p14
sS'Player'
p15
S'Andre Roberts'
p16
sS'Year'
p17
S'2015'
p18
sS'WK'
p19
S'11'
p20
sS'RushAvg'
p21
S'--'
p22
sS'Game Date'
p23
S'11/22'
p24
sS'RecAvg'
p25
S'--'
p26
sS'FUM'
p27
S'--'
p28
sS'RushAtt'
p29
S'--'
p30
sS'Result'
p31
S'L16-44'
p32
sS'RecYds'
p33
S'--'
p34
sS'Rec'
p35
S'--'
p36
sS'Opp'
p37
S'@CAR'
p38
sS'RecLng'
p39
S'--'
p40
sS'RecTD'
p41
S'--'
p42
sS'RushLng'
p43
S'--'
p44
ssS'10'
p45
(dp46
g5
S'--'
p47
sg7
S'--'
p48
sg9
g10
sg11
S'--'
p49
sg13
g10
sg15
S'Andre Roberts'
p50
sg17
S'2015'
p51
sg19
S'10'
p52
sg21
S'--'
p53
sg23
S'11/15'
p54
sg25
S'--'
p55
sg27
S'--'
p56
sg29
S'--'
p57
sg31
S'W47-14'
p58
sg33
S'--'
p59
sg35
S'--'
p60
sg37
S'NO'
p61
sg39
S'--'
p62
sg41
S'--'
p63
sg43
S'--'
p64
ssS'13'
p65
(dp66
g5
S'--'
p67
sg7
S'--'
p68
sg9
g10
sg11
S'--'
p69
sg13
g10
sg15
S'Andre Roberts'
p70
sg17
S'2015'
p71
sg19
S'13'
p72
sg21
S'--'
p73
sg23
S'12/07'
p74
sg25
S'--'
p75
sg27
S'--'
p76
sg29
S'--'
p77
sg31
S'L16-19'
p78
sg33
S'--'
p79
sg35
S'--'
p80
sg37
S'DAL'
p81
sg39
S'--'
p82
sg41
S'--'
p83
sg43
S'--'
p84
ssS'12'
p85
(dp86
g5
S'--'
p87
sg7
S'--'
p88
sg9
g10
sg11
S'--'
p89
sg13
g14
sg15
S'Andre Roberts'
p90
sg17
S'2015'
p91
sg19
S'12'
p92
sg21
S'--'
p93
sg23
S'11/29'
p94
sg25
S'--'
p95
sg27
S'--'
p96
sg29
S'--'
p97
sg31
S'W20-14'
p98
sg33
g10
sg35
g10
sg37
S'NYG'
p99
sg39
S'--'
p100
sg41
g10
sg43
S'--'
p101
ssS'15'
p102
(dp103
g5
S'--'
p104
sg7
S'--'
p105
sg9
g10
sg11
S'--'
p106
sg13
g10
sg15
S'Andre Roberts'
p107
sg17
S'2015'
p108
sg19
S'15'
p109
sg21
S'--'
p110
sg23
S'12/20'
p111
sg25
S'--'
p112
sg27
S'--'
p113
sg29
S'--'
p114
sg31
S'W35-25'
p115
sg33
S'--'
p116
sg35
S'--'
p117
sg37
S'BUF'
p118
sg39
S'--'
p119
sg41
S'--'
p120
sg43
S'--'
p121
ssS'14'
p122
(dp123
g5
S'--'
p124
sg7
S'--'
p125
sg9
g10
sg11
S'--'
p126
sg13
g10
sg15
S'Andre Roberts'
p127
sg17
S'2015'
p128
sg19
S'14'
p129
sg21
S'--'
p130
sg23
S'12/13'
p131
sg25
S'--'
p132
sg27
S'--'
p133
sg29
S'--'
p134
sg31
S'W24-21'
p135
sg33
S'--'
p136
sg35
S'--'
p137
sg37
S'@CHI'
p138
sg39
S'--'
p139
sg41
S'--'
p140
sg43
S'--'
p141
ssg14
(dp142
g5
S'--'
p143
sg7
S'--'
p144
sg9
g10
sg11
S'--'
p145
sg13
g14
sg15
S'Andre Roberts'
p146
sg17
S'2015'
p147
sg19
g14
sg21
S'--'
p148
sg23
S'09/13'
p149
sg25
S'12.0'
p150
sg27
S'--'
p151
sg29
S'--'
p152
sg31
S'L10-17'
p153
sg33
S'36'
p154
sg35
S'3'
p155
sg37
S'MIA'
p156
sg39
S'18'
p157
sg41
g10
sg43
S'--'
p158
ssg155
(dp159
g5
S'--'
p160
sg7
S'--'
p161
sg9
g10
sg11
S'--'
p162
sg13
g14
sg15
S'Andre Roberts'
p163
sg17
S'2015'
p164
sg19
g155
sg21
S'--'
p165
sg23
S'09/24'
p166
sg25
S'18.0'
p167
sg27
S'--'
p168
sg29
S'--'
p169
sg31
S'L21-32'
p170
sg33
S'18'
p171
sg35
g14
sg37
S'@NYG'
p172
sg39
S'18'
p173
sg41
g10
sg43
S'--'
p174
ssS'2'
p175
(dp176
g5
S'--'
p177
sg7
S'--'
p178
sg9
g10
sg11
S'--'
p179
sg13
g14
sg15
S'Andre Roberts'
p180
sg17
S'2015'
p181
sg19
g175
sg21
S'--'
p182
sg23
S'09/20'
p183
sg25
S'0.0'
p184
sg27
S'--'
p185
sg29
S'--'
p186
sg31
S'W24-10'
p187
sg33
g10
sg35
g14
sg37
S'STL'
p188
sg39
g10
sg41
g10
sg43
S'--'
p189
ssS'5'
p190
(dp191
g5
S'--'
p192
sg7
S'--'
p193
sg9
g10
sg11
S'--'
p194
sg13
g14
sg15
S'Andre Roberts'
p195
sg17
S'2015'
p196
sg19
g190
sg21
S'--'
p197
sg23
S'10/11'
p198
sg25
S'--'
p199
sg27
S'--'
p200
sg29
S'--'
p201
sg31
S'L19-25'
p202
sg33
S'--'
p203
sg35
S'--'
p204
sg37
S'@ATL'
p205
sg39
S'--'
p206
sg41
S'--'
p207
sg43
S'--'
p208
ssS'4'
p209
(dp210
g5
S'--'
p211
sg7
S'--'
p212
sg9
g10
sg11
S'--'
p213
sg13
g10
sg15
S'Andre Roberts'
p214
sg17
S'2015'
p215
sg19
g209
sg21
S'--'
p216
sg23
S'10/04'
p217
sg25
S'--'
p218
sg27
S'--'
p219
sg29
S'--'
p220
sg31
S'W23-20'
p221
sg33
S'--'
p222
sg35
S'--'
p223
sg37
S'PHI'
p224
sg39
S'--'
p225
sg41
S'--'
p226
sg43
S'--'
p227
ssS'7'
p228
(dp229
g5
S'--'
p230
sg7
S'--'
p231
sg9
g10
sg11
S'--'
p232
sg13
g14
sg15
S'Andre Roberts'
p233
sg17
S'2015'
p234
sg19
g228
sg21
S'--'
p235
sg23
S'10/25'
p236
sg25
S'16.3'
p237
sg27
S'--'
p238
sg29
S'--'
p239
sg31
S'W31-30'
p240
sg33
S'49'
p241
sg35
g155
sg37
S'TB'
p242
sg39
S'38'
p243
sg41
g10
sg43
S'--'
p244
ssS'6'
p245
(dp246
g5
S'--'
p247
sg7
S'--'
p248
sg9
g10
sg11
S'--'
p249
sg13
g14
sg15
S'Andre Roberts'
p250
sg17
S'2015'
p251
sg19
g245
sg21
S'--'
p252
sg23
S'10/18'
p253
sg25
S'6.0'
p254
sg27
S'--'
p255
sg29
S'--'
p256
sg31
S'L20-34'
p257
sg33
g245
sg35
g14
sg37
S'@NYJ'
p258
sg39
g245
sg41
g10
sg43
S'--'
p259
ssS'9'
p260
(dp261
g5
S'--'
p262
sg7
S'--'
p263
sg9
g10
sg11
S'--'
p264
sg13
g14
sg15
S'Andre Roberts'
p265
sg17
S'2015'
p266
sg19
g260
sg21
S'--'
p267
sg23
S'11/08'
p268
sg25
S'13.0'
p269
sg27
S'--'
p270
sg29
S'--'
p271
sg31
S'L10-27'
p272
sg33
S'26'
p273
sg35
g175
sg37
S'@NE'
p274
sg39
S'18'
p275
sg41
g10
sg43
S'--'
p276
ssS'8'
p277
(dp278
g5
S''
p279
sg7
g279
sg9
g279
sg11
g279
sg13
g279
sg15
S'Andre Roberts'
p280
sg17
S'2015'
p281
sg19
g277
sg21
g279
sg23
S'Bye'
p282
sg25
g279
sg27
g279
sg29
g279
sg31
g279
sg33
g279
sg35
g279
sg37
g279
sg39
g279
sg41
g279
sg43
g279
sssS'2014'
p283
(dp284
g3
(dp285
g5
S'--'
p286
sg7
S'--'
p287
sg9
g10
sg11
g10
sg13
g14
sg15
S'Andre Roberts'
p288
sg17
S'2014'
p289
sg19
S'11'
p290
sg21
S'--'
p291
sg23
S'11/16'
p292
sg25
S'10.5'
p293
sg27
g14
sg29
S'--'
p294
sg31
S'L7-27'
p295
sg33
S'21'
p296
sg35
g175
sg37
S'TB'
p297
sg39
S'13'
p298
sg41
g10
sg43
S'--'
p299
ssg45
(dp300
g5
g279
sg7
g279
sg9
g279
sg11
g279
sg13
g279
sg15
S'Andre Roberts'
p301
sg17
S'2014'
p302
sg19
S'10'
p303
sg21
g279
sg23
S'Bye'
p304
sg25
g279
sg27
g279
sg29
g279
sg31
g279
sg33
g279
sg35
g279
sg37
g279
sg39
g279
sg41
g279
sg43
g279
ssg65
(dp305
g5
S'--'
p306
sg7
S'--'
p307
sg9
g10
sg11
S'--'
p308
sg13
g14
sg15
S'Andre Roberts'
p309
sg17
S'2014'
p310
sg19
S'13'
p311
sg21
S'--'
p312
sg23
S'11/30'
p313
sg25
S'23.0'
p314
sg27
S'--'
p315
sg29
S'--'
p316
sg31
S'L27-49'
p317
sg33
S'46'
p318
sg35
g175
sg37
S'@IND'
p319
sg39
S'24'
p320
sg41
g10
sg43
S'--'
p321
ssg85
(dp322
g5
S'--'
p323
sg7
S'--'
p324
sg9
g14
sg11
S'--'
p325
sg13
g14
sg15
S'Andre Roberts'
p326
sg17
S'2014'
p327
sg19
S'12'
p328
sg21
S'--'
p329
sg23
S'11/23'
p330
sg25
S'7.0'
p331
sg27
S'--'
p332
sg29
S'--'
p333
sg31
S'L13-17'
p334
sg33
g228
sg35
g14
sg37
S'@SF'
p335
sg39
g228
sg41
g10
sg43
S'--'
p336
ssg102
(dp337
g5
S'--'
p338
sg7
S'--'
p339
sg9
g10
sg11
S'--'
p340
sg13
g14
sg15
S'Andre Roberts'
p341
sg17
S'2014'
p342
sg19
S'15'
p343
sg21
S'--'
p344
sg23
S'12/14'
p345
sg25
S'40.5'
p346
sg27
S'--'
p347
sg29
S'--'
p348
sg31
S'L13-24'
p349
sg33
S'81'
p350
sg35
g175
sg37
S'@NYG'
p351
sg39
S'61'
p352
sg41
g10
sg43
S'--'
p353
ssg122
(dp354
g5
S'--'
p355
sg7
S'--'
p356
sg9
g14
sg11
S'--'
p357
sg13
g14
sg15
S'Andre Roberts'
p358
sg17
S'2014'
p359
sg19
S'14'
p360
sg21
S'--'
p361
sg23
S'12/07'
p362
sg25
S'5.5'
p363
sg27
S'--'
p364
sg29
S'--'
p365
sg31
S'L0-24'
p366
sg33
S'11'
p367
sg35
g175
sg37
S'STL'
p368
sg39
g245
sg41
g10
sg43
S'--'
p369
ssS'17'
p370
(dp371
g5
S'--'
p372
sg7
S'--'
p373
sg9
g10
sg11
S'--'
p374
sg13
g14
sg15
S'Andre Roberts'
p375
sg17
S'2014'
p376
sg19
S'17'
p377
sg21
S'--'
p378
sg23
S'12/28'
p379
sg25
S'7.0'
p380
sg27
S'--'
p381
sg29
S'--'
p382
sg31
S'L17-44'
p383
sg33
g228
sg35
g14
sg37
S'DAL'
p384
sg39
g228
sg41
g10
sg43
S'--'
p385
ssS'16'
p386
(dp387
g5
S'--'
p388
sg7
S'--'
p389
sg9
g10
sg11
g14
sg13
g14
sg15
S'Andre Roberts'
p390
sg17
S'2014'
p391
sg19
S'16'
p392
sg21
S'--'
p393
sg23
S'12/20'
p394
sg25
S'14.0'
p395
sg27
g14
sg29
S'--'
p396
sg31
S'W27-24'
p397
sg33
S'14'
p398
sg35
g14
sg37
S'PHI'
p399
sg39
S'14'
p400
sg41
g10
sg43
S'--'
p401
ssg14
(dp402
g5
S'--'
p403
sg7
S'--'
p404
sg9
g10
sg11
S'--'
p405
sg13
g14
sg15
S'Andre Roberts'
p406
sg17
S'2014'
p407
sg19
g14
sg21
S'--'
p408
sg23
S'09/07'
p409
sg25
S'22.0'
p410
sg27
S'--'
p411
sg29
S'--'
p412
sg31
S'L6-17'
p413
sg33
S'22'
p414
sg35
g14
sg37
S'@HOU'
p415
sg39
S'22'
p416
sg41
g10
sg43
S'--'
p417
ssg155
(dp418
g5
S'--'
p419
sg7
S'--'
p420
sg9
g10
sg11
S'--'
p421
sg13
g14
sg15
S'Andre Roberts'
p422
sg17
S'2014'
p423
sg19
g155
sg21
S'--'
p424
sg23
S'09/21'
p425
sg25
S'9.5'
p426
sg27
S'--'
p427
sg29
S'--'
p428
sg31
S'L34-37'
p429
sg33
S'38'
p430
sg35
g209
sg37
S'@PHI'
p431
sg39
S'13'
p432
sg41
g10
sg43
S'--'
p433
ssg175
(dp434
g5
g10
sg7
S'19'
p435
sg9
g10
sg11
S'--'
p436
sg13
g14
sg15
S'Andre Roberts'
p437
sg17
S'2014'
p438
sg19
g175
sg21
S'19.0'
p439
sg23
S'09/14'
p440
sg25
S'14.3'
p441
sg27
S'--'
p442
sg29
g14
sg31
S'W41-10'
p443
sg33
S'57'
p444
sg35
g209
sg37
S'JAC'
p445
sg39
S'31'
p446
sg41
g10
sg43
S'19'
p447
ssg190
(dp448
g5
S'--'
p449
sg7
S'--'
p450
sg9
g10
sg11
S'--'
p451
sg13
g14
sg15
S'Andre Roberts'
p452
sg17
S'2014'
p453
sg19
g190
sg21
S'--'
p454
sg23
S'10/06'
p455
sg25
S'5.8'
p456
sg27
S'--'
p457
sg29
S'--'
p458
sg31
S'L17-27'
p459
sg33
S'29'
p460
sg35
g190
sg37
S'SEA'
p461
sg39
g228
sg41
g14
sg43
S'--'
p462
ssg209
(dp463
g5
g10
sg7
g175
sg9
g14
sg11
S'--'
p464
sg13
g14
sg15
S'Andre Roberts'
p465
sg17
S'2014'
p466
sg19
g209
sg21
S'2.0'
p467
sg23
S'09/25'
p468
sg25
S'18.0'
p469
sg27
S'--'
p470
sg29
g14
sg31
S'L14-45'
p471
sg33
S'18'
p472
sg35
g14
sg37
S'NYG'
p473
sg39
S'18T'
p474
sg41
g14
sg43
g175
ssg228
(dp475
g5
S'--'
p476
sg7
S'--'
p477
sg9
g10
sg11
S'--'
p478
sg13
g14
sg15
S'Andre Roberts'
p479
sg17
S'2014'
p480
sg19
g228
sg21
S'--'
p481
sg23
S'10/19'
p482
sg25
S'9.0'
p483
sg27
S'--'
p484
sg29
S'--'
p485
sg31
S'W19-17'
p486
sg33
S'18'
p487
sg35
g175
sg37
S'TEN'
p488
sg39
S'10'
p489
sg41
g10
sg43
S'--'
p490
ssg245
(dp491
g5
S'--'
p492
sg7
S'--'
p493
sg9
g14
sg11
g14
sg13
g14
sg15
S'Andre Roberts'
p494
sg17
S'2014'
p495
sg19
g245
sg21
S'--'
p496
sg23
S'10/12'
p497
sg25
S'11.0'
p498
sg27
g14
sg29
S'--'
p499
sg31
S'L20-30'
p500
sg33
S'55'
p501
sg35
g190
sg37
S'@ARI'
p502
sg39
S'22'
p503
sg41
g10
sg43
S'--'
p504
ssg260
(dp505
g5
S'--'
p506
sg7
S'--'
p507
sg9
g10
sg11
g10
sg13
g14
sg15
S'Andre Roberts'
p508
sg17
S'2014'
p509
sg19
g260
sg21
S'--'
p510
sg23
S'11/02'
p511
sg25
S'9.0'
p512
sg27
g14
sg29
S'--'
p513
sg31
S'L26-29'
p514
sg33
S'18'
p515
sg35
g175
sg37
S'@MIN'
p516
sg39
g260
sg41
g10
sg43
S'--'
p517
ssg277
(dp518
g5
S'--'
p519
sg7
S'--'
p520
sg9
g10
sg11
S'--'
p521
sg13
g14
sg15
S'Andre Roberts'
p522
sg17
S'2014'
p523
sg19
g277
sg21
S'--'
p524
sg23
S'10/27'
p525
sg25
S'11.0'
p526
sg27
S'--'
p527
sg29
S'--'
p528
sg31
S'W20-17'
p529
sg33
S'11'
p530
sg35
g14
sg37
S'@DAL'
p531
sg39
S'11'
p532
sg41
g10
sg43
S'--'
p533
sssS'2011'
p534
(dp535
g3
(dp536
g5
S'--'
p537
sg7
S'--'
p538
sg9
g14
sg11
S'--'
p539
sg13
g14
sg15
S'Andre Roberts'
p540
sg17
S'2011'
p541
sg19
S'11'
p542
sg21
S'--'
p543
sg23
S'11/20'
p544
sg25
S'17.0'
p545
sg27
S'--'
p546
sg29
S'--'
p547
sg31
S'L7-23'
p548
sg33
S'51'
p549
sg35
g155
sg37
S'@SF'
p550
sg39
S'45'
p551
sg41
g10
sg43
S'--'
p552
ssg45
(dp553
g5
g10
sg7
S'12'
p554
sg9
g14
sg11
S'--'
p555
sg13
g14
sg15
S'Andre Roberts'
p556
sg17
S'2011'
p557
sg19
S'10'
p558
sg21
S'12.0'
p559
sg23
S'11/13'
p560
sg25
S'13.8'
p561
sg27
S'--'
p562
sg29
g14
sg31
S'W21-17'
p563
sg33
S'55'
p564
sg35
g209
sg37
S'@PHI'
p565
sg39
S'20'
p566
sg41
g10
sg43
S'12'
p567
ssg65
(dp568
g5
S'--'
p569
sg7
S'--'
p570
sg9
g14
sg11
S'--'
p571
sg13
g14
sg15
S'Andre Roberts'
p572
sg17
S'2011'
p573
sg19
S'13'
p574
sg21
S'--'
p575
sg23
S'12/04'
p576
sg25
S'18.5'
p577
sg27
S'--'
p578
sg29
S'--'
p579
sg31
S'W19-13'
p580
sg33
S'111'
p581
sg35
g245
sg37
S'DAL'
p582
sg39
S'40'
p583
sg41
g10
sg43
S'--'
p584
ssg85
(dp585
g5
S'--'
p586
sg7
S'--'
p587
sg9
g14
sg11
S'--'
p588
sg13
g14
sg15
S'Andre Roberts'
p589
sg17
S'2011'
p590
sg19
S'12'
p591
sg21
S'--'
p592
sg23
S'11/27'
p593
sg25
S'7.0'
p594
sg27
S'--'
p595
sg29
S'--'
p596
sg31
S'W23-20'
p597
sg33
S'14'
p598
sg35
g175
sg37
S'@STL'
p599
sg39
g260
sg41
g10
sg43
S'--'
p600
ssg102
(dp601
g5
g10
sg7
g228
sg9
g14
sg11
S'--'
p602
sg13
g14
sg15
S'Andre Roberts'
p603
sg17
S'2011'
p604
sg19
S'15'
p605
sg21
S'7.0'
p606
sg23
S'12/18'
p607
sg25
S'10.0'
p608
sg27
S'--'
p609
sg29
g14
sg31
S'W20-17'
p610
sg33
S'60'
p611
sg35
g245
sg37
S'CLE'
p612
sg39
S'21'
p613
sg41
g14
sg43
g228
ssg122
(dp614
g5
S'--'
p615
sg7
S'--'
p616
sg9
g14
sg11
S'--'
p617
sg13
g14
sg15
S'Andre Roberts'
p618
sg17
S'2011'
p619
sg19
S'14'
p620
sg21
S'--'
p621
sg23
S'12/11'
p622
sg25
S'4.0'
p623
sg27
S'--'
p624
sg29
S'--'
p625
sg31
S'W21-19'
p626
sg33
g277
sg35
g175
sg37
S'SF'
p627
sg39
g190
sg41
g14
sg43
S'--'
p628
ssg370
(dp629
g5
g10
sg7
g277
sg9
g14
sg11
S'--'
p630
sg13
g14
sg15
S'Andre Roberts'
p631
sg17
S'2011'
p632
sg19
S'17'
p633
sg21
S'8.0'
p634
sg23
S'01/01'
p635
sg25
S'6.0'
p636
sg27
S'--'
p637
sg29
g14
sg31
S'W23-20'
p638
sg33
S'24'
p639
sg35
g209
sg37
S'SEA'
p640
sg39
g277
sg41
g10
sg43
g277
ssg386
(dp641
g5
S'--'
p642
sg7
S'--'
p643
sg9
g14
sg11
S'--'
p644
sg13
g14
sg15
S'Andre Roberts'
p645
sg17
S'2011'
p646
sg19
S'16'
p647
sg21
S'--'
p648
sg23
S'12/24'
p649
sg25
S'12.5'
p650
sg27
S'--'
p651
sg29
S'--'
p652
sg31
S'L16-23'
p653
sg33
S'75'
p654
sg35
g245
sg37
S'@CIN'
p655
sg39
S'22'
p656
sg41
g10
sg43
S'--'
p657
ssg14
(dp658
g5
S'--'
p659
sg7
S'--'
p660
sg9
g14
sg11
S'--'
p661
sg13
g14
sg15
S'Andre Roberts'
p662
sg17
S'2011'
p663
sg19
g14
sg21
S'--'
p664
sg23
S'09/11'
p665
sg25
S'10.5'
p666
sg27
S'--'
p667
sg29
S'--'
p668
sg31
S'W28-21'
p669
sg33
S'21'
p670
sg35
g175
sg37
S'CAR'
p671
sg39
S'17'
p672
sg41
g10
sg43
S'--'
p673
ssg155
(dp674
g5
S'--'
p675
sg7
S'--'
p676
sg9
g14
sg11
g10
sg13
g14
sg15
S'Andre Roberts'
p677
sg17
S'2011'
p678
sg19
g155
sg21
S'--'
p679
sg23
S'09/25'
p680
sg25
S'9.5'
p681
sg27
g14
sg29
S'--'
p682
sg31
S'L10-13'
p683
sg33
S'38'
p684
sg35
g209
sg37
S'@SEA'
p685
sg39
S'16'
p686
sg41
g10
sg43
S'--'
p687
ssg175
(dp688
g5
S'--'
p689
sg7
S'--'
p690
sg9
g14
sg11
S'--'
p691
sg13
g14
sg15
S'Andre Roberts'
p692
sg17
S'2011'
p693
sg19
g175
sg21
S'--'
p694
sg23
S'09/18'
p695
sg25
S'10.0'
p696
sg27
S'--'
p697
sg29
S'--'
p698
sg31
S'L21-22'
p699
sg33
S'30'
p700
sg35
g155
sg37
S'@WAS'
p701
sg39
S'16'
p702
sg41
g10
sg43
S'--'
p703
ssg190
(dp704
g5
S'--'
p705
sg7
S'--'
p706
sg9
g14
sg11
S'--'
p707
sg13
g14
sg15
S'Andre Roberts'
p708
sg17
S'2011'
p709
sg19
g190
sg21
S'--'
p710
sg23
S'10/09'
p711
sg25
S'12.0'
p712
sg27
S'--'
p713
sg29
S'--'
p714
sg31
S'L10-34'
p715
sg33
S'36'
p716
sg35
g155
sg37
S'@MIN'
p717
sg39
S'13'
p718
sg41
g10
sg43
S'--'
p719
ssg209
(dp720
g5
S'--'
p721
sg7
S'--'
p722
sg9
g14
sg11
S'--'
p723
sg13
g14
sg15
S'Andre Roberts'
p724
sg17
S'2011'
p725
sg19
g209
sg21
S'--'
p726
sg23
S'10/02'
p727
sg25
S'--'
p728
sg27
S'--'
p729
sg29
S'--'
p730
sg31
S'L27-31'
p731
sg33
S'--'
p732
sg35
S'--'
p733
sg37
S'NYG'
p734
sg39
S'--'
p735
sg41
S'--'
p736
sg43
S'--'
p737
ssg228
(dp738
g5
S'--'
p739
sg7
S'--'
p740
sg9
g14
sg11
S'--'
p741
sg13
g14
sg15
S'Andre Roberts'
p742
sg17
S'2011'
p743
sg19
g228
sg21
S'--'
p744
sg23
S'10/23'
p745
sg25
S'8.0'
p746
sg27
S'--'
p747
sg29
S'--'
p748
sg31
S'L20-32'
p749
sg33
g277
sg35
g14
sg37
S'PIT'
p750
sg39
g277
sg41
g10
sg43
S'--'
p751
ssg245
(dp752
g5
g279
sg7
g279
sg9
g279
sg11
g279
sg13
g279
sg15
S'Andre Roberts'
p753
sg17
S'2011'
p754
sg19
g245
sg21
g279
sg23
S'Bye'
p755
sg25
g279
sg27
g279
sg29
g279
sg31
g279
sg33
g279
sg35
g279
sg37
g279
sg39
g279
sg41
g279
sg43
g279
ssg260
(dp756
g5
S'--'
p757
sg7
S'--'
p758
sg9
g14
sg11
S'--'
p759
sg13
g14
sg15
S'Andre Roberts'
p760
sg17
S'2011'
p761
sg19
g260
sg21
S'--'
p762
sg23
S'11/06'
p763
sg25
S'11.0'
p764
sg27
S'--'
p765
sg29
S'--'
p766
sg31
S'W19-13'
p767
sg33
S'55'
p768
sg35
g190
sg37
S'STL'
p769
sg39
S'20'
p770
sg41
g10
sg43
S'--'
p771
ssg277
(dp772
g5
S'--'
p773
sg7
S'--'
p774
sg9
g14
sg11
S'--'
p775
sg13
g14
sg15
S'Andre Roberts'
p776
sg17
S'2011'
p777
sg19
g277
sg21
S'--'
p778
sg23
S'10/30'
p779
sg25
S'--'
p780
sg27
S'--'
p781
sg29
S'--'
p782
sg31
S'L27-30'
p783
sg33
g10
sg35
g10
sg37
S'@BAL'
p784
sg39
S'--'
p785
sg41
g10
sg43
S'--'
p786
sssS'2010'
p787
(dp788
g3
(dp789
g5
S'--'
p790
sg7
S'--'
p791
sg9
g10
sg11
S'--'
p792
sg13
g14
sg15
S'Andre Roberts'
p793
sg17
S'2010'
p794
sg19
S'11'
p795
sg21
S'--'
p796
sg23
S'11/21'
p797
sg25
S'8.7'
p798
sg27
S'--'
p799
sg29
S'--'
p800
sg31
S'L13-31'
p801
sg33
S'52'
p802
sg35
g245
sg37
S'@KC'
p803
sg39
S'13'
p804
sg41
g10
sg43
S'--'
p805
ssg45
(dp806
g5
S'--'
p807
sg7
S'--'
p808
sg9
g10
sg11
S'--'
p809
sg13
g14
sg15
S'Andre Roberts'
p810
sg17
S'2010'
p811
sg19
S'10'
p812
sg21
S'--'
p813
sg23
S'11/14'
p814
sg25
S'--'
p815
sg27
S'--'
p816
sg29
S'--'
p817
sg31
S'L18-36'
p818
sg33
g10
sg35
g10
sg37
S'SEA'
p819
sg39
S'--'
p820
sg41
g10
sg43
S'--'
p821
ssg65
(dp822
g5
S'--'
p823
sg7
S'--'
p824
sg9
g10
sg11
S'--'
p825
sg13
g14
sg15
S'Andre Roberts'
p826
sg17
S'2010'
p827
sg19
S'13'
p828
sg21
S'--'
p829
sg23
S'12/05'
p830
sg25
S'--'
p831
sg27
S'--'
p832
sg29
S'--'
p833
sg31
S'L6-19'
p834
sg33
g10
sg35
g10
sg37
S'STL'
p835
sg39
S'--'
p836
sg41
g10
sg43
S'--'
p837
ssg85
(dp838
g5
S'--'
p839
sg7
S'--'
p840
sg9
g10
sg11
S'--'
p841
sg13
g14
sg15
S'Andre Roberts'
p842
sg17
S'2010'
p843
sg19
S'12'
p844
sg21
S'--'
p845
sg23
S'11/29'
p846
sg25
S'10.5'
p847
sg27
S'--'
p848
sg29
S'--'
p849
sg31
S'L6-27'
p850
sg33
S'21'
p851
sg35
g175
sg37
S'SF'
p852
sg39
S'12'
p853
sg41
g10
sg43
S'--'
p854
ssg102
(dp855
g5
S'--'
p856
sg7
S'--'
p857
sg9
g10
sg11
S'--'
p858
sg13
g14
sg15
S'Andre Roberts'
p859
sg17
S'2010'
p860
sg19
S'15'
p861
sg21
S'--'
p862
sg23
S'12/19'
p863
sg25
S'--'
p864
sg27
S'--'
p865
sg29
S'--'
p866
sg31
S'L12-19'
p867
sg33
g10
sg35
g10
sg37
S'@CAR'
p868
sg39
S'--'
p869
sg41
g10
sg43
S'--'
p870
ssg122
(dp871
g5
S'--'
p872
sg7
S'--'
p873
sg9
g10
sg11
S'--'
p874
sg13
g14
sg15
S'Andre Roberts'
p875
sg17
S'2010'
p876
sg19
S'14'
p877
sg21
S'--'
p878
sg23
S'12/12'
p879
sg25
S'5.0'
p880
sg27
S'--'
p881
sg29
S'--'
p882
sg31
S'W43-13'
p883
sg33
g190
sg35
g14
sg37
S'DEN'
p884
sg39
g190
sg41
g10
sg43
S'--'
p885
ssg370
(dp886
g5
S'--'
p887
sg7
S'--'
p888
sg9
g14
sg11
g10
sg13
g14
sg15
S'Andre Roberts'
p889
sg17
S'2010'
p890
sg19
S'17'
p891
sg21
S'--'
p892
sg23
S'01/02'
p893
sg25
S'5.8'
p894
sg27
g14
sg29
S'--'
p895
sg31
S'L7-38'
p896
sg33
S'23'
p897
sg35
g209
sg37
S'@SF'
p898
sg39
g277
sg41
g10
sg43
S'--'
p899
ssg386
(dp900
g5
S'--'
p901
sg7
S'--'
p902
sg9
g10
sg11
S'--'
p903
sg13
g14
sg15
S'Andre Roberts'
p904
sg17
S'2010'
p905
sg19
S'16'
p906
sg21
S'--'
p907
sg23
S'12/25'
p908
sg25
S'22.0'
p909
sg27
S'--'
p910
sg29
S'--'
p911
sg31
S'W27-26'
p912
sg33
S'110'
p913
sg35
g190
sg37
S'DAL'
p914
sg39
S'74T'
p915
sg41
g14
sg43
S'--'
p916
ssg14
(dp917
g5
S'--'
p918
sg7
S'--'
p919
sg9
g10
sg11
S'--'
p920
sg13
g10
sg15
S'Andre Roberts'
p921
sg17
S'2010'
p922
sg19
g14
sg21
S'--'
p923
sg23
S'09/12'
p924
sg25
S'--'
p925
sg27
S'--'
p926
sg29
S'--'
p927
sg31
S'W17-13'
p928
sg33
S'--'
p929
sg35
S'--'
p930
sg37
S'@STL'
p931
sg39
S'--'
p932
sg41
S'--'
p933
sg43
S'--'
p934
ssg155
(dp935
g5
S'--'
p936
sg7
S'--'
p937
sg9
g10
sg11
S'--'
p938
sg13
g14
sg15
S'Andre Roberts'
p939
sg17
S'2010'
p940
sg19
g155
sg21
S'--'
p941
sg23
S'09/26'
p942
sg25
S'--'
p943
sg27
S'--'
p944
sg29
S'--'
p945
sg31
S'W24-23'
p946
sg33
S'--'
p947
sg35
S'--'
p948
sg37
S'OAK'
p949
sg39
S'--'
p950
sg41
S'--'
p951
sg43
S'--'
p952
ssg175
(dp953
g5
S'--'
p954
sg7
S'--'
p955
sg9
g10
sg11
S'--'
p956
sg13
g14
sg15
S'Andre Roberts'
p957
sg17
S'2010'
p958
sg19
g175
sg21
S'--'
p959
sg23
S'09/19'
p960
sg25
S'--'
p961
sg27
S'--'
p962
sg29
S'--'
p963
sg31
S'L7-41'
p964
sg33
S'--'
p965
sg35
S'--'
p966
sg37
S'@ATL'
p967
sg39
S'--'
p968
sg41
S'--'
p969
sg43
S'--'
p970
ssg190
(dp971
g5
S'--'
p972
sg7
S'--'
p973
sg9
g10
sg11
S'--'
p974
sg13
g14
sg15
S'Andre Roberts'
p975
sg17
S'2010'
p976
sg19
g190
sg21
S'--'
p977
sg23
S'10/10'
p978
sg25
S'13.5'
p979
sg27
S'--'
p980
sg29
S'--'
p981
sg31
S'W30-20'
p982
sg33
S'27'
p983
sg35
g175
sg37
S'NO'
p984
sg39
S'14'
p985
sg41
g10
sg43
S'--'
p986
ssg209
(dp987
g5
S'--'
p988
sg7
S'--'
p989
sg9
g10
sg11
S'--'
p990
sg13
g14
sg15
S'Andre Roberts'
p991
sg17
S'2010'
p992
sg19
g209
sg21
S'--'
p993
sg23
S'10/03'
p994
sg25
S'--'
p995
sg27
S'--'
p996
sg29
S'--'
p997
sg31
S'L10-41'
p998
sg33
S'--'
p999
sg35
S'--'
p1000
sg37
S'@SD'
p1001
sg39
S'--'
p1002
sg41
S'--'
p1003
sg43
S'--'
p1004
ssg228
(dp1005
g5
S'--'
p1006
sg7
S'--'
p1007
sg9
g14
sg11
g14
sg13
g14
sg15
S'Andre Roberts'
p1008
sg17
S'2010'
p1009
sg19
g228
sg21
S'--'
p1010
sg23
S'10/24'
p1011
sg25
S'20.0'
p1012
sg27
g14
sg29
S'--'
p1013
sg31
S'L10-22'
p1014
sg33
S'40'
p1015
sg35
g175
sg37
S'@SEA'
p1016
sg39
S'25'
p1017
sg41
g10
sg43
S'--'
p1018
ssg245
(dp1019
g5
g279
sg7
g279
sg9
g279
sg11
g279
sg13
g279
sg15
S'Andre Roberts'
p1020
sg17
S'2010'
p1021
sg19
g245
sg21
g279
sg23
S'Bye'
p1022
sg25
g279
sg27
g279
sg29
g279
sg31
g279
sg33
g279
sg35
g279
sg37
g279
sg39
g279
sg41
g279
sg43
g279
ssg260
(dp1023
g5
S'--'
p1024
sg7
S'--'
p1025
sg9
g10
sg11
S'--'
p1026
sg13
g14
sg15
S'Andre Roberts'
p1027
sg17
S'2010'
p1028
sg19
g260
sg21
S'--'
p1029
sg23
S'11/07'
p1030
sg25
S'14.5'
p1031
sg27
S'--'
p1032
sg29
S'--'
p1033
sg31
S'L24-27'
p1034
sg33
S'29'
p1035
sg35
g175
sg37
S'@MIN'
p1036
sg39
S'30T'
p1037
sg41
g14
sg43
S'--'
p1038
ssg277
(dp1039
g5
S'--'
p1040
sg7
S'--'
p1041
sg9
g10
sg11
S'--'
p1042
sg13
g14
sg15
S'Andre Roberts'
p1043
sg17
S'2010'
p1044
sg19
g277
sg21
S'--'
p1045
sg23
S'10/31'
p1046
sg25
S'--'
p1047
sg27
S'--'
p1048
sg29
S'--'
p1049
sg31
S'L35-38'
p1050
sg33
S'--'
p1051
sg35
S'--'
p1052
sg37
S'TB'
p1053
sg39
S'--'
p1054
sg41
S'--'
p1055
sg43
S'--'
p1056
sssS'2013'
p1057
(dp1058
g3
(dp1059
g5
S'--'
p1060
sg7
S'--'
p1061
sg9
g10
sg11
S'--'
p1062
sg13
g14
sg15
S'Andre Roberts'
p1063
sg17
S'2013'
p1064
sg19
S'11'
p1065
sg21
S'--'
p1066
sg23
S'11/17'
p1067
sg25
S'4.7'
p1068
sg27
S'--'
p1069
sg29
S'--'
p1070
sg31
S'W27-14'
p1071
sg33
S'14'
p1072
sg35
g155
sg37
S'@JAC'
p1073
sg39
g277
sg41
g10
sg43
S'--'
p1074
ssg45
(dp1075
g5
S'--'
p1076
sg7
S'--'
p1077
sg9
g10
sg11
S'--'
p1078
sg13
g14
sg15
S'Andre Roberts'
p1079
sg17
S'2013'
p1080
sg19
S'10'
p1081
sg21
S'--'
p1082
sg23
S'11/10'
p1083
sg25
S'14.4'
p1084
sg27
S'--'
p1085
sg29
S'--'
p1086
sg31
S'W27-24'
p1087
sg33
S'72'
p1088
sg35
g190
sg37
S'HOU'
p1089
sg39
S'19T'
p1090
sg41
g14
sg43
S'--'
p1091
ssg65
(dp1092
g5
S'--'
p1093
sg7
S'--'
p1094
sg9
g10
sg11
S'--'
p1095
sg13
g14
sg15
S'Andre Roberts'
p1096
sg17
S'2013'
p1097
sg19
S'13'
p1098
sg21
S'--'
p1099
sg23
S'12/01'
p1100
sg25
S'7.3'
p1101
sg27
S'--'
p1102
sg29
S'--'
p1103
sg31
S'L21-24'
p1104
sg33
S'29'
p1105
sg35
g209
sg37
S'@PHI'
p1106
sg39
S'17'
p1107
sg41
g10
sg43
S'--'
p1108
ssg85
(dp1109
g5
S'--'
p1110
sg7
S'--'
p1111
sg9
g10
sg11
S'--'
p1112
sg13
g14
sg15
S'Andre Roberts'
p1113
sg17
S'2013'
p1114
sg19
S'12'
p1115
sg21
S'--'
p1116
sg23
S'11/24'
p1117
sg25
S'14.3'
p1118
sg27
S'--'
p1119
sg29
S'--'
p1120
sg31
S'W40-11'
p1121
sg33
S'43'
p1122
sg35
g155
sg37
S'IND'
p1123
sg39
S'32'
p1124
sg41
g10
sg43
S'--'
p1125
ssg102
(dp1126
g5
S'--'
p1127
sg7
S'--'
p1128
sg9
g10
sg11
S'--'
p1129
sg13
g14
sg15
S'Andre Roberts'
p1130
sg17
S'2013'
p1131
sg19
S'15'
p1132
sg21
S'--'
p1133
sg23
S'12/15'
p1134
sg25
S'7.5'
p1135
sg27
S'--'
p1136
sg29
S'--'
p1137
sg31
S'W37-34'
p1138
sg33
S'15'
p1139
sg35
g175
sg37
S'@TEN'
p1140
sg39
S'12'
p1141
sg41
g10
sg43
S'--'
p1142
ssg122
(dp1143
g5
S'--'
p1144
sg7
S'--'
p1145
sg9
g10
sg11
S'--'
p1146
sg13
g14
sg15
S'Andre Roberts'
p1147
sg17
S'2013'
p1148
sg19
S'14'
p1149
sg21
S'--'
p1150
sg23
S'12/08'
p1151
sg25
S'8.0'
p1152
sg27
S'--'
p1153
sg29
S'--'
p1154
sg31
S'W30-10'
p1155
sg33
g277
sg35
g14
sg37
S'STL'
p1156
sg39
g277
sg41
g10
sg43
S'--'
p1157
ssg370
(dp1158
g5
S'--'
p1159
sg7
S'--'
p1160
sg9
g10
sg11
S'--'
p1161
sg13
g14
sg15
S'Andre Roberts'
p1162
sg17
S'2013'
p1163
sg19
S'17'
p1164
sg21
S'--'
p1165
sg23
S'12/29'
p1166
sg25
S'24.7'
p1167
sg27
S'--'
p1168
sg29
S'--'
p1169
sg31
S'L20-23'
p1170
sg33
S'74'
p1171
sg35
g155
sg37
S'SF'
p1172
sg39
S'34T'
p1173
sg41
g14
sg43
S'--'
p1174
ssg386
(dp1175
g5
S'--'
p1176
sg7
S'--'
p1177
sg9
g10
sg11
S'--'
p1178
sg13
g14
sg15
S'Andre Roberts'
p1179
sg17
S'2013'
p1180
sg19
S'16'
p1181
sg21
S'--'
p1182
sg23
S'12/22'
p1183
sg25
S'12.5'
p1184
sg27
S'--'
p1185
sg29
S'--'
p1186
sg31
S'W17-10'
p1187
sg33
S'25'
p1188
sg35
g175
sg37
S'@SEA'
p1189
sg39
S'17'
p1190
sg41
g10
sg43
S'--'
p1191
ssg14
(dp1192
g5
S'--'
p1193
sg7
S'--'
p1194
sg9
g10
sg11
S'--'
p1195
sg13
g14
sg15
S'Andre Roberts'
p1196
sg17
S'2013'
p1197
sg19
g14
sg21
S'--'
p1198
sg23
S'09/08'
p1199
sg25
S'12.1'
p1200
sg27
S'--'
p1201
sg29
S'--'
p1202
sg31
S'L24-27'
p1203
sg33
S'97'
p1204
sg35
g277
sg37
S'@STL'
p1205
sg39
S'19'
p1206
sg41
g10
sg43
S'--'
p1207
ssg155
(dp1208
g5
S'--'
p1209
sg7
S'--'
p1210
sg9
g10
sg11
S'--'
p1211
sg13
g14
sg15
S'Andre Roberts'
p1212
sg17
S'2013'
p1213
sg19
g155
sg21
S'--'
p1214
sg23
S'09/22'
p1215
sg25
S'6.0'
p1216
sg27
S'--'
p1217
sg29
S'--'
p1218
sg31
S'L7-31'
p1219
sg33
g245
sg35
g14
sg37
S'@NO'
p1220
sg39
g245
sg41
g10
sg43
S'--'
p1221
ssg175
(dp1222
g5
S'--'
p1223
sg7
S'--'
p1224
sg9
g10
sg11
S'--'
p1225
sg13
g14
sg15
S'Andre Roberts'
p1226
sg17
S'2013'
p1227
sg19
g175
sg21
S'--'
p1228
sg23
S'09/15'
p1229
sg25
S'12.0'
p1230
sg27
S'--'
p1231
sg29
S'--'
p1232
sg31
S'W25-21'
p1233
sg33
S'36'
p1234
sg35
g155
sg37
S'DET'
p1235
sg39
S'19'
p1236
sg41
g10
sg43
S'--'
p1237
ssg190
(dp1238
g5
S'--'
p1239
sg7
S'--'
p1240
sg9
g10
sg11
S'--'
p1241
sg13
g14
sg15
S'Andre Roberts'
p1242
sg17
S'2013'
p1243
sg19
g190
sg21
S'--'
p1244
sg23
S'10/06'
p1245
sg25
S'--'
p1246
sg27
S'--'
p1247
sg29
S'--'
p1248
sg31
S'W22-6'
p1249
sg33
g10
sg35
g10
sg37
S'CAR'
p1250
sg39
S'--'
p1251
sg41
g10
sg43
S'--'
p1252
ssg209
(dp1253
g5
S'--'
p1254
sg7
S'--'
p1255
sg9
g14
sg11
S'--'
p1256
sg13
g14
sg15
S'Andre Roberts'
p1257
sg17
S'2013'
p1258
sg19
g209
sg21
S'--'
p1259
sg23
S'09/29'
p1260
sg25
S'6.0'
p1261
sg27
S'--'
p1262
sg29
S'--'
p1263
sg31
S'W13-10'
p1264
sg33
g245
sg35
g14
sg37
S'@TB'
p1265
sg39
g245
sg41
g10
sg43
S'--'
p1266
ssg228
(dp1267
g5
S'--'
p1268
sg7
S'--'
p1269
sg9
g14
sg11
S'--'
p1270
sg13
g14
sg15
S'Andre Roberts'
p1271
sg17
S'2013'
p1272
sg19
g228
sg21
S'--'
p1273
sg23
S'10/17'
p1274
sg25
S'6.6'
p1275
sg27
S'--'
p1276
sg29
S'--'
p1277
sg31
S'L22-34'
p1278
sg33
S'33'
p1279
sg35
g190
sg37
S'SEA'
p1280
sg39
S'11'
p1281
sg41
g10
sg43
S'--'
p1282
ssg245
(dp1283
g5
S'--'
p1284
sg7
S'--'
p1285
sg9
g10
sg11
S'--'
p1286
sg13
g14
sg15
S'Andre Roberts'
p1287
sg17
S'2013'
p1288
sg19
g245
sg21
S'--'
p1289
sg23
S'10/13'
p1290
sg25
S'5.0'
p1291
sg27
S'--'
p1292
sg29
S'--'
p1293
sg31
S'L20-32'
p1294
sg33
g190
sg35
g14
sg37
S'@SF'
p1295
sg39
g190
sg41
g10
sg43
S'--'
p1296
ssg260
(dp1297
g5
g279
sg7
g279
sg9
g279
sg11
g279
sg13
g279
sg15
S'Andre Roberts'
p1298
sg17
S'2013'
p1299
sg19
g260
sg21
g279
sg23
S'Bye'
p1300
sg25
g279
sg27
g279
sg29
g279
sg31
g279
sg33
g279
sg35
g279
sg37
g279
sg39
g279
sg41
g279
sg43
g279
ssg277
(dp1301
g5
S'--'
p1302
sg7
S'--'
p1303
sg9
g10
sg11
S'--'
p1304
sg13
g14
sg15
S'Andre Roberts'
p1305
sg17
S'2013'
p1306
sg19
g277
sg21
S'--'
p1307
sg23
S'10/27'
p1308
sg25
S'8.0'
p1309
sg27
S'--'
p1310
sg29
S'--'
p1311
sg31
S'W27-13'
p1312
sg33
g277
sg35
g14
sg37
S'ATL'
p1313
sg39
g277
sg41
g10
sg43
S'--'
p1314
sssS'2012'
p1315
(dp1316
g3
(dp1317
g5
S'--'
p1318
sg7
S'--'
p1319
sg9
g14
sg11
S'--'
p1320
sg13
g14
sg15
S'Andre Roberts'
p1321
sg17
S'2012'
p1322
sg19
S'11'
p1323
sg21
S'--'
p1324
sg23
S'11/18'
p1325
sg25
S'7.0'
p1326
sg27
S'--'
p1327
sg29
S'--'
p1328
sg31
S'L19-23'
p1329
sg33
g228
sg35
g14
sg37
S'@ATL'
p1330
sg39
g228
sg41
g10
sg43
S'--'
p1331
ssg45
(dp1332
g5
g279
sg7
g279
sg9
g279
sg11
g279
sg13
g279
sg15
S'Andre Roberts'
p1333
sg17
S'2012'
p1334
sg19
S'10'
p1335
sg21
g279
sg23
S'Bye'
p1336
sg25
g279
sg27
g279
sg29
g279
sg31
g279
sg33
g279
sg35
g279
sg37
g279
sg39
g279
sg41
g279
sg43
g279
ssg65
(dp1337
g5
S'--'
p1338
sg7
S'--'
p1339
sg9
g10
sg11
S'--'
p1340
sg13
g10
sg15
S'Andre Roberts'
p1341
sg17
S'2012'
p1342
sg19
S'13'
p1343
sg21
S'--'
p1344
sg23
S'12/02'
p1345
sg25
S'--'
p1346
sg27
S'--'
p1347
sg29
S'--'
p1348
sg31
S'L6-7'
p1349
sg33
S'--'
p1350
sg35
S'--'
p1351
sg37
S'@NYJ'
p1352
sg39
S'--'
p1353
sg41
S'--'
p1354
sg43
S'--'
p1355
ssg85
(dp1356
g5
g10
sg7
S'13'
p1357
sg9
g14
sg11
S'--'
p1358
sg13
g14
sg15
S'Andre Roberts'
p1359
sg17
S'2012'
p1360
sg19
S'12'
p1361
sg21
S'13.0'
p1362
sg23
S'11/25'
p1363
sg25
S'10.2'
p1364
sg27
S'--'
p1365
sg29
g14
sg31
S'L17-31'
p1366
sg33
S'92'
p1367
sg35
g260
sg37
S'STL'
p1368
sg39
S'21'
p1369
sg41
g10
sg43
S'13'
p1370
ssg102
(dp1371
g5
S'--'
p1372
sg7
S'--'
p1373
sg9
g14
sg11
S'--'
p1374
sg13
g14
sg15
S'Andre Roberts'
p1375
sg17
S'2012'
p1376
sg19
S'15'
p1377
sg21
S'--'
p1378
sg23
S'12/16'
p1379
sg25
S'7.3'
p1380
sg27
S'--'
p1381
sg29
S'--'
p1382
sg31
S'W38-10'
p1383
sg33
S'22'
p1384
sg35
g155
sg37
S'DET'
p1385
sg39
S'14'
p1386
sg41
g10
sg43
S'--'
p1387
ssg122
(dp1388
g5
S'--'
p1389
sg7
S'--'
p1390
sg9
g14
sg11
S'--'
p1391
sg13
g14
sg15
S'Andre Roberts'
p1392
sg17
S'2012'
p1393
sg19
S'14'
p1394
sg21
S'--'
p1395
sg23
S'12/09'
p1396
sg25
S'12.0'
p1397
sg27
S'--'
p1398
sg29
S'--'
p1399
sg31
S'L0-58'
p1400
sg33
S'36'
p1401
sg35
g155
sg37
S'@SEA'
p1402
sg39
S'24'
p1403
sg41
g10
sg43
S'--'
p1404
ssg370
(dp1405
g5
g10
sg7
S'-2'
p1406
sg9
g14
sg11
S'--'
p1407
sg13
g14
sg15
S'Andre Roberts'
p1408
sg17
S'2012'
p1409
sg19
S'17'
p1410
sg21
S'-2.0'
p1411
sg23
S'12/30'
p1412
sg25
S'6.0'
p1413
sg27
S'--'
p1414
sg29
g14
sg31
S'L13-27'
p1415
sg33
S'18'
p1416
sg35
g155
sg37
S'@SF'
p1417
sg39
S'12'
p1418
sg41
g10
sg43
S'-2'
p1419
ssg386
(dp1420
g5
S'--'
p1421
sg7
S'--'
p1422
sg9
g14
sg11
S'--'
p1423
sg13
g14
sg15
S'Andre Roberts'
p1424
sg17
S'2012'
p1425
sg19
S'16'
p1426
sg21
S'--'
p1427
sg23
S'12/23'
p1428
sg25
S'8.8'
p1429
sg27
S'--'
p1430
sg29
S'--'
p1431
sg31
S'L13-28'
p1432
sg33
S'44'
p1433
sg35
g190
sg37
S'CHI'
p1434
sg39
S'15'
p1435
sg41
g10
sg43
S'--'
p1436
ssg14
(dp1437
g5
g10
sg7
S'15'
p1438
sg9
g14
sg11
S'--'
p1439
sg13
g14
sg15
S'Andre Roberts'
p1440
sg17
S'2012'
p1441
sg19
g14
sg21
S'15.0'
p1442
sg23
S'09/09'
p1443
sg25
S'10.8'
p1444
sg27
S'--'
p1445
sg29
g14
sg31
S'W20-16'
p1446
sg33
S'54'
p1447
sg35
g190
sg37
S'SEA'
p1448
sg39
S'19'
p1449
sg41
g14
sg43
S'15'
p1450
ssg155
(dp1451
g5
S'--'
p1452
sg7
S'--'
p1453
sg9
g14
sg11
S'--'
p1454
sg13
g14
sg15
S'Andre Roberts'
p1455
sg17
S'2012'
p1456
sg19
g155
sg21
S'--'
p1457
sg23
S'09/23'
p1458
sg25
S'18.3'
p1459
sg27
S'--'
p1460
sg29
S'--'
p1461
sg31
S'W27-6'
p1462
sg33
S'55'
p1463
sg35
g155
sg37
S'PHI'
p1464
sg39
S'29'
p1465
sg41
g10
sg43
S'--'
p1466
ssg175
(dp1467
g5
S'--'
p1468
sg7
S'--'
p1469
sg9
g14
sg11
S'--'
p1470
sg13
g14
sg15
S'Andre Roberts'
p1471
sg17
S'2012'
p1472
sg19
g175
sg21
S'--'
p1473
sg23
S'09/16'
p1474
sg25
S'2.0'
p1475
sg27
S'--'
p1476
sg29
S'--'
p1477
sg31
S'W20-18'
p1478
sg33
g175
sg35
g14
sg37
S'@NE'
p1479
sg39
S'2T'
p1480
sg41
g14
sg43
S'--'
p1481
ssg190
(dp1482
g5
g10
sg7
g155
sg9
g14
sg11
S'--'
p1483
sg13
g14
sg15
S'Andre Roberts'
p1484
sg17
S'2012'
p1485
sg19
g190
sg21
S'3.0'
p1486
sg23
S'10/04'
p1487
sg25
S'7.8'
p1488
sg27
S'--'
p1489
sg29
g14
sg31
S'L3-17'
p1490
sg33
S'39'
p1491
sg35
g190
sg37
S'@STL'
p1492
sg39
S'11'
p1493
sg41
g10
sg43
g155
ssg209
(dp1494
g5
S'--'
p1495
sg7
S'--'
p1496
sg9
g14
sg11
S'--'
p1497
sg13
g14
sg15
S'Andre Roberts'
p1498
sg17
S'2012'
p1499
sg19
g209
sg21
S'--'
p1500
sg23
S'09/30'
p1501
sg25
S'19.7'
p1502
sg27
S'--'
p1503
sg29
S'--'
p1504
sg31
S'W24-21'
p1505
sg33
S'118'
p1506
sg35
g245
sg37
S'MIA'
p1507
sg39
S'46T'
p1508
sg41
g175
sg43
S'--'
p1509
ssg228
(dp1510
g5
S'--'
p1511
sg7
S'--'
p1512
sg9
g14
sg11
S'--'
p1513
sg13
g14
sg15
S'Andre Roberts'
p1514
sg17
S'2012'
p1515
sg19
g228
sg21
S'--'
p1516
sg23
S'10/21'
p1517
sg25
S'14.7'
p1518
sg27
S'--'
p1519
sg29
S'--'
p1520
sg31
S'L14-21'
p1521
sg33
S'103'
p1522
sg35
g228
sg37
S'@MIN'
p1523
sg39
S'21'
p1524
sg41
g14
sg43
S'--'
p1525
ssg245
(dp1526
g5
S'--'
p1527
sg7
S'--'
p1528
sg9
g14
sg11
S'--'
p1529
sg13
g14
sg15
S'Andre Roberts'
p1530
sg17
S'2012'
p1531
sg19
g245
sg21
S'--'
p1532
sg23
S'10/14'
p1533
sg25
S'9.0'
p1534
sg27
S'--'
p1535
sg29
S'--'
p1536
sg31
S'L16-19'
p1537
sg33
S'18'
p1538
sg35
g175
sg37
S'BUF'
p1539
sg39
S'16'
p1540
sg41
g10
sg43
S'--'
p1541
ssg260
(dp1542
g5
S'--'
p1543
sg7
S'--'
p1544
sg9
g14
sg11
g10
sg13
g14
sg15
S'Andre Roberts'
p1545
sg17
S'2012'
p1546
sg19
g260
sg21
S'--'
p1547
sg23
S'11/04'
p1548
sg25
S'21.5'
p1549
sg27
g14
sg29
S'--'
p1550
sg31
S'L17-31'
p1551
sg33
S'86'
p1552
sg35
g209
sg37
S'@GB'
p1553
sg39
S'40'
p1554
sg41
g10
sg43
S'--'
p1555
ssg277
(dp1556
g5
S'--'
p1557
sg7
S'--'
p1558
sg9
g14
sg11
S'--'
p1559
sg13
g14
sg15
S'Andre Roberts'
p1560
sg17
S'2012'
p1561
sg19
g277
sg21
S'--'
p1562
sg23
S'10/29'
p1563
sg25
S'9.3'
p1564
sg27
S'--'
p1565
sg29
S'--'
p1566
sg31
S'L3-24'
p1567
sg33
S'65'
p1568
sg35
g228
sg37
S'SF'
p1569
sg39
S'20'
p1570
sg41
g10
sg43
S'--'
p1571
sss.