(dp0
S'2015'
p1
(dp2
S'11'
p3
(dp4
S'RushTD'
p5
S'--'
p6
sS'RushYds'
p7
S'--'
p8
sS'GS'
p9
S'0'
p10
sS'Lost'
p11
S'--'
p12
sS'G'
p13
S'1'
p14
sS'Player'
p15
S'Andre Johnson'
p16
sS'Year'
p17
S'2015'
p18
sS'WK'
p19
S'11'
p20
sS'RushAvg'
p21
S'--'
p22
sS'Game Date'
p23
S'11/22'
p24
sS'RecAvg'
p25
S'13.0'
p26
sS'FUM'
p27
S'--'
p28
sS'RushAtt'
p29
S'--'
p30
sS'Result'
p31
S'W24-21'
p32
sS'RecYds'
p33
S'13'
p34
sS'Rec'
p35
g14
sS'Opp'
p36
S'@ATL'
p37
sS'RecLng'
p38
S'13'
p39
sS'RecTD'
p40
g10
sS'RushLng'
p41
S'--'
p42
ssS'10'
p43
(dp44
g5
S''
p45
sg7
g45
sg9
g45
sg11
g45
sg13
g45
sg15
S'Andre Johnson'
p46
sg17
S'2015'
p47
sg19
S'10'
p48
sg21
g45
sg23
S'Bye'
p49
sg25
g45
sg27
g45
sg29
g45
sg31
g45
sg33
g45
sg35
g45
sg36
g45
sg38
g45
sg40
g45
sg41
g45
ssS'13'
p50
(dp51
g5
S'--'
p52
sg7
S'--'
p53
sg9
g14
sg11
S'--'
p54
sg13
g14
sg15
S'Andre Johnson'
p55
sg17
S'2015'
p56
sg19
S'13'
p57
sg21
S'--'
p58
sg23
S'12/06'
p59
sg25
S'22.0'
p60
sg27
S'--'
p61
sg29
S'--'
p62
sg31
S'L10-45'
p63
sg33
S'44'
p64
sg35
S'2'
p65
sg36
S'@PIT'
p66
sg38
S'28'
p67
sg40
g10
sg41
S'--'
p68
ssS'12'
p69
(dp70
g5
S'--'
p71
sg7
S'--'
p72
sg9
g14
sg11
S'--'
p73
sg13
g14
sg15
S'Andre Johnson'
p74
sg17
S'2015'
p75
sg19
S'12'
p76
sg21
S'--'
p77
sg23
S'11/29'
p78
sg25
S'22.0'
p79
sg27
S'--'
p80
sg29
S'--'
p81
sg31
S'W25-12'
p82
sg33
S'22'
p83
sg35
g14
sg36
S'TB'
p84
sg38
S'22'
p85
sg40
g10
sg41
S'--'
p86
ssS'15'
p87
(dp88
g5
S'--'
p89
sg7
S'--'
p90
sg9
g14
sg11
S'--'
p91
sg13
g14
sg15
S'Andre Johnson'
p92
sg17
S'2015'
p93
sg19
S'15'
p94
sg21
S'--'
p95
sg23
S'12/20'
p96
sg25
S'10.7'
p97
sg27
S'--'
p98
sg29
S'--'
p99
sg31
S'L10-16'
p100
sg33
S'32'
p101
sg35
S'3'
p102
sg36
S'HOU'
p103
sg38
S'18'
p104
sg40
g10
sg41
S'--'
p105
ssS'14'
p106
(dp107
g5
S'--'
p108
sg7
S'--'
p109
sg9
g14
sg11
S'--'
p110
sg13
g14
sg15
S'Andre Johnson'
p111
sg17
S'2015'
p112
sg19
S'14'
p113
sg21
S'--'
p114
sg23
S'12/13'
p115
sg25
S'6.3'
p116
sg27
S'--'
p117
sg29
S'--'
p118
sg31
S'L16-51'
p119
sg33
S'19'
p120
sg35
g102
sg36
S'@JAC'
p121
sg38
S'8'
p122
sg40
g10
sg41
S'--'
p123
ssS'17'
p124
(dp125
g5
S'--'
p126
sg7
S'--'
p127
sg9
g14
sg11
S'--'
p128
sg13
g14
sg15
S'Andre Johnson'
p129
sg17
S'2015'
p130
sg19
S'17'
p131
sg21
S'--'
p132
sg23
S'01/03'
p133
sg25
S'11.5'
p134
sg27
S'--'
p135
sg29
S'--'
p136
sg31
S'W30-24'
p137
sg33
S'46'
p138
sg35
S'4'
p139
sg36
S'TEN'
p140
sg38
S'18T'
p141
sg40
g14
sg41
S'--'
p142
ssS'16'
p143
(dp144
g5
S'--'
p145
sg7
S'--'
p146
sg9
g14
sg11
S'--'
p147
sg13
g14
sg15
S'Andre Johnson'
p148
sg17
S'2015'
p149
sg19
S'16'
p150
sg21
S'--'
p151
sg23
S'12/27'
p152
sg25
S'13.0'
p153
sg27
S'--'
p154
sg29
S'--'
p155
sg31
S'W18-12'
p156
sg33
S'39'
p157
sg35
g102
sg36
S'@MIA'
p158
sg38
S'16'
p159
sg40
g10
sg41
S'--'
p160
ssg14
(dp161
g5
S'--'
p162
sg7
S'--'
p163
sg9
g14
sg11
S'--'
p164
sg13
g14
sg15
S'Andre Johnson'
p165
sg17
S'2015'
p166
sg19
g14
sg21
S'--'
p167
sg23
S'09/13'
p168
sg25
S'6.0'
p169
sg27
S'--'
p170
sg29
S'--'
p171
sg31
S'L14-27'
p172
sg33
S'24'
p173
sg35
g139
sg36
S'@BUF'
p174
sg38
S'9'
p175
sg40
g10
sg41
S'--'
p176
ssg102
(dp177
g5
S'--'
p178
sg7
S'--'
p179
sg9
g14
sg11
S'--'
p180
sg13
g14
sg15
S'Andre Johnson'
p181
sg17
S'2015'
p182
sg19
g102
sg21
S'--'
p183
sg23
S'09/27'
p184
sg25
S'--'
p185
sg27
S'--'
p186
sg29
S'--'
p187
sg31
S'W35-33'
p188
sg33
g10
sg35
g10
sg36
S'@TEN'
p189
sg38
S'--'
p190
sg40
g10
sg41
S'--'
p191
ssg65
(dp192
g5
S'--'
p193
sg7
S'--'
p194
sg9
g14
sg11
S'--'
p195
sg13
g14
sg15
S'Andre Johnson'
p196
sg17
S'2015'
p197
sg19
g65
sg21
S'--'
p198
sg23
S'09/21'
p199
sg25
S'9.0'
p200
sg27
S'--'
p201
sg29
S'--'
p202
sg31
S'L7-20'
p203
sg33
S'27'
p204
sg35
g102
sg36
S'NYJ'
p205
sg38
S'12'
p206
sg40
g10
sg41
S'--'
p207
ssS'5'
p208
(dp209
g5
S'--'
p210
sg7
S'--'
p211
sg9
g14
sg11
S'--'
p212
sg13
g14
sg15
S'Andre Johnson'
p213
sg17
S'2015'
p214
sg19
g208
sg21
S'--'
p215
sg23
S'10/08'
p216
sg25
S'12.8'
p217
sg27
S'--'
p218
sg29
S'--'
p219
sg31
S'W27-20'
p220
sg33
S'77'
p221
sg35
S'6'
p222
sg36
S'@HOU'
p223
sg38
S'24'
p224
sg40
g65
sg41
S'--'
p225
ssg139
(dp226
g5
S'--'
p227
sg7
S'--'
p228
sg9
g14
sg11
S'--'
p229
sg13
g14
sg15
S'Andre Johnson'
p230
sg17
S'2015'
p231
sg19
g139
sg21
S'--'
p232
sg23
S'10/04'
p233
sg25
S'--'
p234
sg27
S'--'
p235
sg29
S'--'
p236
sg31
S'W16-13'
p237
sg33
g10
sg35
g10
sg36
S'JAC'
p238
sg38
S'--'
p239
sg40
g10
sg41
S'--'
p240
ssS'7'
p241
(dp242
g5
S'--'
p243
sg7
S'--'
p244
sg9
g14
sg11
S'--'
p245
sg13
g14
sg15
S'Andre Johnson'
p246
sg17
S'2015'
p247
sg19
g241
sg21
S'--'
p248
sg23
S'10/25'
p249
sg25
S'11.0'
p250
sg27
S'--'
p251
sg29
S'--'
p252
sg31
S'L21-27'
p253
sg33
S'44'
p254
sg35
g139
sg36
S'NO'
p255
sg38
S'35'
p256
sg40
g10
sg41
S'--'
p257
ssg222
(dp258
g5
S'--'
p259
sg7
S'--'
p260
sg9
g14
sg11
S'--'
p261
sg13
g14
sg15
S'Andre Johnson'
p262
sg17
S'2015'
p263
sg19
g222
sg21
S'--'
p264
sg23
S'10/18'
p265
sg25
S'11.7'
p266
sg27
S'--'
p267
sg29
S'--'
p268
sg31
S'L27-34'
p269
sg33
S'35'
p270
sg35
g102
sg36
S'NE'
p271
sg38
S'16'
p272
sg40
g10
sg41
S'--'
p273
ssg175
(dp274
g5
S'--'
p275
sg7
S'--'
p276
sg9
g14
sg11
S'--'
p277
sg13
g14
sg15
S'Andre Johnson'
p278
sg17
S'2015'
p279
sg19
g175
sg21
S'--'
p280
sg23
S'11/08'
p281
sg25
S'--'
p282
sg27
S'--'
p283
sg29
S'--'
p284
sg31
S'W27-24'
p285
sg33
g10
sg35
g10
sg36
S'DEN'
p286
sg38
S'--'
p287
sg40
g10
sg41
S'--'
p288
ssg122
(dp289
g5
S'--'
p290
sg7
S'--'
p291
sg9
g10
sg11
S'--'
p292
sg13
g14
sg15
S'Andre Johnson'
p293
sg17
S'2015'
p294
sg19
g122
sg21
S'--'
p295
sg23
S'11/02'
p296
sg25
S'20.3'
p297
sg27
S'--'
p298
sg29
S'--'
p299
sg31
S'L26-29'
p300
sg33
S'81'
p301
sg35
g139
sg36
S'@CAR'
p302
sg38
S'30'
p303
sg40
g14
sg41
S'--'
p304
sssS'2014'
p305
(dp306
g3
(dp307
g5
S'--'
p308
sg7
S'--'
p309
sg9
g14
sg11
S'--'
p310
sg13
g14
sg15
S'Andre Johnson'
p311
sg17
S'2014'
p312
sg19
S'11'
p313
sg21
S'--'
p314
sg23
S'11/16'
p315
sg25
S'9.7'
p316
sg27
S'--'
p317
sg29
S'--'
p318
sg31
S'W23-7'
p319
sg33
S'68'
p320
sg35
g241
sg36
S'@CLE'
p321
sg38
S'16'
p322
sg40
g10
sg41
S'--'
p323
ssg43
(dp324
g5
g45
sg7
g45
sg9
g45
sg11
g45
sg13
g45
sg15
S'Andre Johnson'
p325
sg17
S'2014'
p326
sg19
S'10'
p327
sg21
g45
sg23
S'Bye'
p328
sg25
g45
sg27
g45
sg29
g45
sg31
g45
sg33
g45
sg35
g45
sg36
g45
sg38
g45
sg40
g45
sg41
g45
ssg50
(dp329
g5
S'--'
p330
sg7
S'--'
p331
sg9
g14
sg11
g14
sg13
g14
sg15
S'Andre Johnson'
p332
sg17
S'2014'
p333
sg19
S'13'
p334
sg21
S'--'
p335
sg23
S'11/30'
p336
sg25
S'7.6'
p337
sg27
g14
sg29
S'--'
p338
sg31
S'W45-21'
p339
sg33
S'53'
p340
sg35
g241
sg36
S'TEN'
p341
sg38
S'17'
p342
sg40
g14
sg41
S'--'
p343
ssg69
(dp344
g5
S'--'
p345
sg7
S'--'
p346
sg9
g14
sg11
S'--'
p347
sg13
g14
sg15
S'Andre Johnson'
p348
sg17
S'2014'
p349
sg19
S'12'
p350
sg21
S'--'
p351
sg23
S'11/23'
p352
sg25
S'12.0'
p353
sg27
S'--'
p354
sg29
S'--'
p355
sg31
S'L13-22'
p356
sg33
S'36'
p357
sg35
g102
sg36
S'CIN'
p358
sg38
S'22'
p359
sg40
g10
sg41
S'--'
p360
ssg87
(dp361
g5
S'--'
p362
sg7
S'--'
p363
sg9
g10
sg11
S'--'
p364
sg13
g10
sg15
S'Andre Johnson'
p365
sg17
S'2014'
p366
sg19
S'15'
p367
sg21
S'--'
p368
sg23
S'12/14'
p369
sg25
S'--'
p370
sg27
S'--'
p371
sg29
S'--'
p372
sg31
S'L10-17'
p373
sg33
S'--'
p374
sg35
S'--'
p375
sg36
S'@IND'
p376
sg38
S'--'
p377
sg40
S'--'
p378
sg41
S'--'
p379
ssg106
(dp380
g5
S'--'
p381
sg7
S'--'
p382
sg9
g14
sg11
S'--'
p383
sg13
g14
sg15
S'Andre Johnson'
p384
sg17
S'2014'
p385
sg19
S'14'
p386
sg21
S'--'
p387
sg23
S'12/07'
p388
sg25
S'4.3'
p389
sg27
S'--'
p390
sg29
S'--'
p391
sg31
S'W27-13'
p392
sg33
S'17'
p393
sg35
g139
sg36
S'@JAC'
p394
sg38
S'19'
p395
sg40
g10
sg41
S'--'
p396
ssg124
(dp397
g5
S'--'
p398
sg7
S'--'
p399
sg9
g14
sg11
S'--'
p400
sg13
g14
sg15
S'Andre Johnson'
p401
sg17
S'2014'
p402
sg19
S'17'
p403
sg21
S'--'
p404
sg23
S'12/28'
p405
sg25
S'13.4'
p406
sg27
S'--'
p407
sg29
S'--'
p408
sg31
S'W23-17'
p409
sg33
S'134'
p410
sg35
S'10'
p411
sg36
S'JAC'
p412
sg38
S'29'
p413
sg40
g14
sg41
S'--'
p414
ssg143
(dp415
g5
S'--'
p416
sg7
S'--'
p417
sg9
g14
sg11
S'--'
p418
sg13
g14
sg15
S'Andre Johnson'
p419
sg17
S'2014'
p420
sg19
S'16'
p421
sg21
S'--'
p422
sg23
S'12/21'
p423
sg25
S'10.8'
p424
sg27
S'--'
p425
sg29
S'--'
p426
sg31
S'W25-13'
p427
sg33
S'65'
p428
sg35
g222
sg36
S'BAL'
p429
sg38
S'35'
p430
sg40
g10
sg41
S'--'
p431
ssg14
(dp432
g5
S'--'
p433
sg7
S'--'
p434
sg9
g14
sg11
S'--'
p435
sg13
g14
sg15
S'Andre Johnson'
p436
sg17
S'2014'
p437
sg19
g14
sg21
S'--'
p438
sg23
S'09/07'
p439
sg25
S'15.5'
p440
sg27
S'--'
p441
sg29
S'--'
p442
sg31
S'W17-6'
p443
sg33
S'93'
p444
sg35
g222
sg36
S'WAS'
p445
sg38
S'23'
p446
sg40
g10
sg41
S'--'
p447
ssg102
(dp448
g5
S'--'
p449
sg7
S'--'
p450
sg9
g14
sg11
S'--'
p451
sg13
g14
sg15
S'Andre Johnson'
p452
sg17
S'2014'
p453
sg19
g102
sg21
S'--'
p454
sg23
S'09/21'
p455
sg25
S'6.0'
p456
sg27
S'--'
p457
sg29
S'--'
p458
sg31
S'L17-30'
p459
sg33
S'24'
p460
sg35
g139
sg36
S'@NYG'
p461
sg38
S'11'
p462
sg40
g10
sg41
S'--'
p463
ssg65
(dp464
g5
S'--'
p465
sg7
S'--'
p466
sg9
g14
sg11
S'--'
p467
sg13
g14
sg15
S'Andre Johnson'
p468
sg17
S'2014'
p469
sg19
g65
sg21
S'--'
p470
sg23
S'09/14'
p471
sg25
S'12.3'
p472
sg27
S'--'
p473
sg29
S'--'
p474
sg31
S'W30-14'
p475
sg33
S'74'
p476
sg35
g222
sg36
S'@OAK'
p477
sg38
S'20'
p478
sg40
g10
sg41
S'--'
p479
ssg208
(dp480
g5
S'--'
p481
sg7
S'--'
p482
sg9
g14
sg11
S'--'
p483
sg13
g14
sg15
S'Andre Johnson'
p484
sg17
S'2014'
p485
sg19
g208
sg21
S'--'
p486
sg23
S'10/05'
p487
sg25
S'11.6'
p488
sg27
S'--'
p489
sg29
S'--'
p490
sg31
S'L17-20'
p491
sg33
S'58'
p492
sg35
g208
sg36
S'@DAL'
p493
sg38
S'20'
p494
sg40
g10
sg41
S'--'
p495
ssg139
(dp496
g5
S'--'
p497
sg7
S'--'
p498
sg9
g14
sg11
g14
sg13
g14
sg15
S'Andre Johnson'
p499
sg17
S'2014'
p500
sg19
g139
sg21
S'--'
p501
sg23
S'09/28'
p502
sg25
S'11.8'
p503
sg27
g14
sg29
S'--'
p504
sg31
S'W23-17'
p505
sg33
S'71'
p506
sg35
g222
sg36
S'BUF'
p507
sg38
S'25'
p508
sg40
g10
sg41
S'--'
p509
ssg241
(dp510
g5
S'--'
p511
sg7
S'--'
p512
sg9
g14
sg11
S'--'
p513
sg13
g14
sg15
S'Andre Johnson'
p514
sg17
S'2014'
p515
sg19
g241
sg21
S'--'
p516
sg23
S'10/20'
p517
sg25
S'15.4'
p518
sg27
S'--'
p519
sg29
S'--'
p520
sg31
S'L23-30'
p521
sg33
S'77'
p522
sg35
g208
sg36
S'@PIT'
p523
sg38
S'24'
p524
sg40
g10
sg41
S'--'
p525
ssg222
(dp526
g5
S'--'
p527
sg7
S'--'
p528
sg9
g14
sg11
g14
sg13
g14
sg15
S'Andre Johnson'
p529
sg17
S'2014'
p530
sg19
g222
sg21
S'--'
p531
sg23
S'10/09'
p532
sg25
S'14.1'
p533
sg27
g14
sg29
S'--'
p534
sg31
S'L28-33'
p535
sg33
S'99'
p536
sg35
g241
sg36
S'IND'
p537
sg38
S'26'
p538
sg40
g14
sg41
S'--'
p539
ssg175
(dp540
g5
S'--'
p541
sg7
S'--'
p542
sg9
g14
sg11
S'--'
p543
sg13
g14
sg15
S'Andre Johnson'
p544
sg17
S'2014'
p545
sg19
g175
sg21
S'--'
p546
sg23
S'11/02'
p547
sg25
S'6.0'
p548
sg27
S'--'
p549
sg29
S'--'
p550
sg31
S'L21-31'
p551
sg33
S'12'
p552
sg35
g65
sg36
S'PHI'
p553
sg38
g175
sg40
g10
sg41
S'--'
p554
ssg122
(dp555
g5
S'--'
p556
sg7
S'--'
p557
sg9
g14
sg11
S'--'
p558
sg13
g14
sg15
S'Andre Johnson'
p559
sg17
S'2014'
p560
sg19
g122
sg21
S'--'
p561
sg23
S'10/26'
p562
sg25
S'7.9'
p563
sg27
S'--'
p564
sg29
S'--'
p565
sg31
S'W30-16'
p566
sg33
S'55'
p567
sg35
g241
sg36
S'@TEN'
p568
sg38
S'13'
p569
sg40
g10
sg41
S'--'
p570
sssS'2011'
p571
(dp572
g3
(dp573
g5
g45
sg7
g45
sg9
g45
sg11
g45
sg13
g45
sg15
S'Andre Johnson'
p574
sg17
S'2011'
p575
sg19
S'11'
p576
sg21
g45
sg23
S'Bye'
p577
sg25
g45
sg27
g45
sg29
g45
sg31
g45
sg33
g45
sg35
g45
sg36
g45
sg38
g45
sg40
g45
sg41
g45
ssg43
(dp578
g5
S'--'
p579
sg7
S'--'
p580
sg9
g10
sg11
S'--'
p581
sg13
g10
sg15
S'Andre Johnson'
p582
sg17
S'2011'
p583
sg19
S'10'
p584
sg21
S'--'
p585
sg23
S'11/13'
p586
sg25
S'--'
p587
sg27
S'--'
p588
sg29
S'--'
p589
sg31
S'W37-9'
p590
sg33
S'--'
p591
sg35
S'--'
p592
sg36
S'@TB'
p593
sg38
S'--'
p594
sg40
S'--'
p595
sg41
S'--'
p596
ssg50
(dp597
g5
S'--'
p598
sg7
S'--'
p599
sg9
g14
sg11
S'--'
p600
sg13
g14
sg15
S'Andre Johnson'
p601
sg17
S'2011'
p602
sg19
S'13'
p603
sg21
S'--'
p604
sg23
S'12/04'
p605
sg25
S'24.3'
p606
sg27
S'--'
p607
sg29
S'--'
p608
sg31
S'W17-10'
p609
sg33
S'97'
p610
sg35
g139
sg36
S'ATL'
p611
sg38
S'50'
p612
sg40
g10
sg41
S'--'
p613
ssg69
(dp614
g5
S'--'
p615
sg7
S'--'
p616
sg9
g14
sg11
S'--'
p617
sg13
g14
sg15
S'Andre Johnson'
p618
sg17
S'2011'
p619
sg19
S'12'
p620
sg21
S'--'
p621
sg23
S'11/27'
p622
sg25
S'11.0'
p623
sg27
S'--'
p624
sg29
S'--'
p625
sg31
S'W20-13'
p626
sg33
S'22'
p627
sg35
g65
sg36
S'@JAC'
p628
sg38
S'14'
p629
sg40
g10
sg41
S'--'
p630
ssg87
(dp631
g5
S'--'
p632
sg7
S'--'
p633
sg9
g10
sg11
S'--'
p634
sg13
g10
sg15
S'Andre Johnson'
p635
sg17
S'2011'
p636
sg19
S'15'
p637
sg21
S'--'
p638
sg23
S'12/18'
p639
sg25
S'--'
p640
sg27
S'--'
p641
sg29
S'--'
p642
sg31
S'L13-28'
p643
sg33
S'--'
p644
sg35
S'--'
p645
sg36
S'CAR'
p646
sg38
S'--'
p647
sg40
S'--'
p648
sg41
S'--'
p649
ssg106
(dp650
g5
S'--'
p651
sg7
S'--'
p652
sg9
g10
sg11
S'--'
p653
sg13
g10
sg15
S'Andre Johnson'
p654
sg17
S'2011'
p655
sg19
S'14'
p656
sg21
S'--'
p657
sg23
S'12/11'
p658
sg25
S'--'
p659
sg27
S'--'
p660
sg29
S'--'
p661
sg31
S'W20-19'
p662
sg33
S'--'
p663
sg35
S'--'
p664
sg36
S'@CIN'
p665
sg38
S'--'
p666
sg40
S'--'
p667
sg41
S'--'
p668
ssg124
(dp669
g5
S'--'
p670
sg7
S'--'
p671
sg9
g14
sg11
S'--'
p672
sg13
g14
sg15
S'Andre Johnson'
p673
sg17
S'2011'
p674
sg19
S'17'
p675
sg21
S'--'
p676
sg23
S'01/01'
p677
sg25
S'10.5'
p678
sg27
S'--'
p679
sg29
S'--'
p680
sg31
S'L22-23'
p681
sg33
S'21'
p682
sg35
g65
sg36
S'TEN'
p683
sg38
S'16'
p684
sg40
g10
sg41
S'--'
p685
ssg143
(dp686
g5
S'--'
p687
sg7
S'--'
p688
sg9
g10
sg11
S'--'
p689
sg13
g10
sg15
S'Andre Johnson'
p690
sg17
S'2011'
p691
sg19
S'16'
p692
sg21
S'--'
p693
sg23
S'12/22'
p694
sg25
S'--'
p695
sg27
S'--'
p696
sg29
S'--'
p697
sg31
S'L16-19'
p698
sg33
S'--'
p699
sg35
S'--'
p700
sg36
S'@IND'
p701
sg38
S'--'
p702
sg40
S'--'
p703
sg41
S'--'
p704
ssg14
(dp705
g5
S'--'
p706
sg7
S'--'
p707
sg9
g14
sg11
S'--'
p708
sg13
g14
sg15
S'Andre Johnson'
p709
sg17
S'2011'
p710
sg19
g14
sg21
S'--'
p711
sg23
S'09/11'
p712
sg25
S'13.6'
p713
sg27
S'--'
p714
sg29
S'--'
p715
sg31
S'W34-7'
p716
sg33
S'95'
p717
sg35
g241
sg36
S'IND'
p718
sg38
S'21'
p719
sg40
g14
sg41
S'--'
p720
ssg102
(dp721
g5
g10
sg7
g122
sg9
g14
sg11
S'--'
p722
sg13
g14
sg15
S'Andre Johnson'
p723
sg17
S'2011'
p724
sg19
g102
sg21
S'8.0'
p725
sg23
S'09/25'
p726
sg25
S'18.3'
p727
sg27
S'--'
p728
sg29
g14
sg31
S'L33-40'
p729
sg33
S'128'
p730
sg35
g241
sg36
S'@NO'
p731
sg38
S'48'
p732
sg40
g10
sg41
g122
ssg65
(dp733
g5
S'--'
p734
sg7
S'--'
p735
sg9
g14
sg11
S'--'
p736
sg13
g14
sg15
S'Andre Johnson'
p737
sg17
S'2011'
p738
sg19
g65
sg21
S'--'
p739
sg23
S'09/18'
p740
sg25
S'13.3'
p741
sg27
S'--'
p742
sg29
S'--'
p743
sg31
S'W23-13'
p744
sg33
S'93'
p745
sg35
g241
sg36
S'@MIA'
p746
sg38
S'43'
p747
sg40
g14
sg41
S'--'
p748
ssg208
(dp749
g5
S'--'
p750
sg7
S'--'
p751
sg9
g10
sg11
S'--'
p752
sg13
g10
sg15
S'Andre Johnson'
p753
sg17
S'2011'
p754
sg19
g208
sg21
S'--'
p755
sg23
S'10/09'
p756
sg25
S'--'
p757
sg27
S'--'
p758
sg29
S'--'
p759
sg31
S'L20-25'
p760
sg33
S'--'
p761
sg35
S'--'
p762
sg36
S'OAK'
p763
sg38
S'--'
p764
sg40
S'--'
p765
sg41
S'--'
p766
ssg139
(dp767
g5
S'--'
p768
sg7
S'--'
p769
sg9
g14
sg11
S'--'
p770
sg13
g14
sg15
S'Andre Johnson'
p771
sg17
S'2011'
p772
sg19
g139
sg21
S'--'
p773
sg23
S'10/02'
p774
sg25
S'9.0'
p775
sg27
S'--'
p776
sg29
S'--'
p777
sg31
S'W17-10'
p778
sg33
S'36'
p779
sg35
g139
sg36
S'PIT'
p780
sg38
S'13'
p781
sg40
g10
sg41
S'--'
p782
ssg241
(dp783
g5
S'--'
p784
sg7
S'--'
p785
sg9
g10
sg11
S'--'
p786
sg13
g10
sg15
S'Andre Johnson'
p787
sg17
S'2011'
p788
sg19
g241
sg21
S'--'
p789
sg23
S'10/23'
p790
sg25
S'--'
p791
sg27
S'--'
p792
sg29
S'--'
p793
sg31
S'W41-7'
p794
sg33
S'--'
p795
sg35
S'--'
p796
sg36
S'@TEN'
p797
sg38
S'--'
p798
sg40
S'--'
p799
sg41
S'--'
p800
ssg222
(dp801
g5
S'--'
p802
sg7
S'--'
p803
sg9
g10
sg11
S'--'
p804
sg13
g10
sg15
S'Andre Johnson'
p805
sg17
S'2011'
p806
sg19
g222
sg21
S'--'
p807
sg23
S'10/16'
p808
sg25
S'--'
p809
sg27
S'--'
p810
sg29
S'--'
p811
sg31
S'L14-29'
p812
sg33
S'--'
p813
sg35
S'--'
p814
sg36
S'@BAL'
p815
sg38
S'--'
p816
sg40
S'--'
p817
sg41
S'--'
p818
ssg175
(dp819
g5
S'--'
p820
sg7
S'--'
p821
sg9
g10
sg11
S'--'
p822
sg13
g10
sg15
S'Andre Johnson'
p823
sg17
S'2011'
p824
sg19
g175
sg21
S'--'
p825
sg23
S'11/06'
p826
sg25
S'--'
p827
sg27
S'--'
p828
sg29
S'--'
p829
sg31
S'W30-12'
p830
sg33
S'--'
p831
sg35
S'--'
p832
sg36
S'CLE'
p833
sg38
S'--'
p834
sg40
S'--'
p835
sg41
S'--'
p836
ssg122
(dp837
g5
S'--'
p838
sg7
S'--'
p839
sg9
g10
sg11
S'--'
p840
sg13
g10
sg15
S'Andre Johnson'
p841
sg17
S'2011'
p842
sg19
g122
sg21
S'--'
p843
sg23
S'10/30'
p844
sg25
S'--'
p845
sg27
S'--'
p846
sg29
S'--'
p847
sg31
S'W24-14'
p848
sg33
S'--'
p849
sg35
S'--'
p850
sg36
S'JAC'
p851
sg38
S'--'
p852
sg40
S'--'
p853
sg41
S'--'
p854
sssS'2010'
p855
(dp856
g3
(dp857
g5
S'--'
p858
sg7
S'--'
p859
sg9
g14
sg11
S'--'
p860
sg13
g14
sg15
S'Andre Johnson'
p861
sg17
S'2010'
p862
sg19
S'11'
p863
sg21
S'--'
p864
sg23
S'11/21'
p865
sg25
S'8.0'
p866
sg27
S'--'
p867
sg29
S'--'
p868
sg31
S'L27-30'
p869
sg33
S'32'
p870
sg35
g139
sg36
S'@NYJ'
p871
sg38
S'20'
p872
sg40
g10
sg41
S'--'
p873
ssg43
(dp874
g5
S'--'
p875
sg7
S'--'
p876
sg9
g14
sg11
S'--'
p877
sg13
g14
sg15
S'Andre Johnson'
p878
sg17
S'2010'
p879
sg19
S'10'
p880
sg21
S'--'
p881
sg23
S'11/14'
p882
sg25
S'16.2'
p883
sg27
S'--'
p884
sg29
S'--'
p885
sg31
S'L24-31'
p886
sg33
S'146'
p887
sg35
g175
sg36
S'@JAC'
p888
sg38
S'60'
p889
sg40
g14
sg41
S'--'
p890
ssg50
(dp891
g5
g10
sg7
S'10'
p892
sg9
g14
sg11
S'--'
p893
sg13
g14
sg15
S'Andre Johnson'
p894
sg17
S'2010'
p895
sg19
S'13'
p896
sg21
S'5.0'
p897
sg23
S'12/02'
p898
sg25
S'24.8'
p899
sg27
S'--'
p900
sg29
g65
sg31
S'L24-34'
p901
sg33
S'149'
p902
sg35
g222
sg36
S'@PHI'
p903
sg38
S'42'
p904
sg40
g10
sg41
g241
ssg69
(dp905
g5
S'--'
p906
sg7
S'--'
p907
sg9
g14
sg11
S'--'
p908
sg13
g14
sg15
S'Andre Johnson'
p909
sg17
S'2010'
p910
sg19
S'12'
p911
sg21
S'--'
p912
sg23
S'11/28'
p913
sg25
S'6.2'
p914
sg27
S'--'
p915
sg29
S'--'
p916
sg31
S'W20-0'
p917
sg33
S'56'
p918
sg35
g175
sg36
S'TEN'
p919
sg38
S'21'
p920
sg40
g14
sg41
S'--'
p921
ssg87
(dp922
g5
S'--'
p923
sg7
S'--'
p924
sg9
g14
sg11
g10
sg13
g14
sg15
S'Andre Johnson'
p925
sg17
S'2010'
p926
sg19
S'15'
p927
sg21
S'--'
p928
sg23
S'12/19'
p929
sg25
S'9.7'
p930
sg27
g14
sg29
S'--'
p931
sg31
S'L17-31'
p932
sg33
S'58'
p933
sg35
g222
sg36
S'@TEN'
p934
sg38
S'19'
p935
sg40
g14
sg41
S'--'
p936
ssg106
(dp937
g5
S'--'
p938
sg7
S'--'
p939
sg9
g14
sg11
S'--'
p940
sg13
g14
sg15
S'Andre Johnson'
p941
sg17
S'2010'
p942
sg19
S'14'
p943
sg21
S'--'
p944
sg23
S'12/13'
p945
sg25
S'15.6'
p946
sg27
S'--'
p947
sg29
S'--'
p948
sg31
S'L28-34'
p949
sg33
S'140'
p950
sg35
g175
sg36
S'BAL'
p951
sg38
S'46T'
p952
sg40
g65
sg41
S'--'
p953
ssg124
(dp954
g5
S'--'
p955
sg7
S'--'
p956
sg9
g10
sg11
S'--'
p957
sg13
g10
sg15
S'Andre Johnson'
p958
sg17
S'2010'
p959
sg19
S'17'
p960
sg21
S'--'
p961
sg23
S'01/02'
p962
sg25
S'--'
p963
sg27
S'--'
p964
sg29
S'--'
p965
sg31
S'W34-17'
p966
sg33
S'--'
p967
sg35
S'--'
p968
sg36
S'JAC'
p969
sg38
S'--'
p970
sg40
S'--'
p971
sg41
S'--'
p972
ssg143
(dp973
g5
S'--'
p974
sg7
S'--'
p975
sg9
g10
sg11
S'--'
p976
sg13
g10
sg15
S'Andre Johnson'
p977
sg17
S'2010'
p978
sg19
S'16'
p979
sg21
S'--'
p980
sg23
S'12/26'
p981
sg25
S'--'
p982
sg27
S'--'
p983
sg29
S'--'
p984
sg31
S'L23-24'
p985
sg33
S'--'
p986
sg35
S'--'
p987
sg36
S'@DEN'
p988
sg38
S'--'
p989
sg40
S'--'
p990
sg41
S'--'
p991
ssg14
(dp992
g5
S'--'
p993
sg7
S'--'
p994
sg9
g14
sg11
S'--'
p995
sg13
g14
sg15
S'Andre Johnson'
p996
sg17
S'2010'
p997
sg19
g14
sg21
S'--'
p998
sg23
S'09/12'
p999
sg25
S'11.0'
p1000
sg27
S'--'
p1001
sg29
S'--'
p1002
sg31
S'W34-24'
p1003
sg33
S'33'
p1004
sg35
g102
sg36
S'IND'
p1005
sg38
S'21'
p1006
sg40
g10
sg41
S'--'
p1007
ssg102
(dp1008
g5
S'--'
p1009
sg7
S'--'
p1010
sg9
g14
sg11
S'--'
p1011
sg13
g14
sg15
S'Andre Johnson'
p1012
sg17
S'2010'
p1013
sg19
g102
sg21
S'--'
p1014
sg23
S'09/26'
p1015
sg25
S'16.0'
p1016
sg27
S'--'
p1017
sg29
S'--'
p1018
sg31
S'L13-27'
p1019
sg33
S'64'
p1020
sg35
g139
sg36
S'DAL'
p1021
sg38
S'26'
p1022
sg40
g10
sg41
S'--'
p1023
ssg65
(dp1024
g5
S'--'
p1025
sg7
S'--'
p1026
sg9
g14
sg11
S'--'
p1027
sg13
g14
sg15
S'Andre Johnson'
p1028
sg17
S'2010'
p1029
sg19
g65
sg21
S'--'
p1030
sg23
S'09/19'
p1031
sg25
S'13.2'
p1032
sg27
S'--'
p1033
sg29
S'--'
p1034
sg31
S'W30-27'
p1035
sg33
S'158'
p1036
sg35
S'12'
p1037
sg36
S'@WAS'
p1038
sg38
S'34T'
p1039
sg40
g14
sg41
S'--'
p1040
ssg208
(dp1041
g5
S'--'
p1042
sg7
S'--'
p1043
sg9
g14
sg11
S'--'
p1044
sg13
g14
sg15
S'Andre Johnson'
p1045
sg17
S'2010'
p1046
sg19
g208
sg21
S'--'
p1047
sg23
S'10/10'
p1048
sg25
S'19.0'
p1049
sg27
S'--'
p1050
sg29
S'--'
p1051
sg31
S'L10-34'
p1052
sg33
S'95'
p1053
sg35
g208
sg36
S'NYG'
p1054
sg38
S'48'
p1055
sg40
g10
sg41
S'--'
p1056
ssg139
(dp1057
g5
S'--'
p1058
sg7
S'--'
p1059
sg9
g10
sg11
S'--'
p1060
sg13
g10
sg15
S'Andre Johnson'
p1061
sg17
S'2010'
p1062
sg19
g139
sg21
S'--'
p1063
sg23
S'10/03'
p1064
sg25
S'--'
p1065
sg27
S'--'
p1066
sg29
S'--'
p1067
sg31
S'W31-24'
p1068
sg33
S'--'
p1069
sg35
S'--'
p1070
sg36
S'@OAK'
p1071
sg38
S'--'
p1072
sg40
S'--'
p1073
sg41
S'--'
p1074
ssg241
(dp1075
g5
g45
sg7
g45
sg9
g45
sg11
g45
sg13
g45
sg15
S'Andre Johnson'
p1076
sg17
S'2010'
p1077
sg19
g241
sg21
g45
sg23
S'Bye'
p1078
sg25
g45
sg27
g45
sg29
g45
sg31
g45
sg33
g45
sg35
g45
sg36
g45
sg38
g45
sg40
g45
sg41
g45
ssg222
(dp1079
g5
S'--'
p1080
sg7
S'--'
p1081
sg9
g14
sg11
S'--'
p1082
sg13
g14
sg15
S'Andre Johnson'
p1083
sg17
S'2010'
p1084
sg19
g222
sg21
S'--'
p1085
sg23
S'10/17'
p1086
sg25
S'17.3'
p1087
sg27
S'--'
p1088
sg29
S'--'
p1089
sg31
S'W35-31'
p1090
sg33
S'138'
p1091
sg35
g122
sg36
S'KC'
p1092
sg38
S'44'
p1093
sg40
g14
sg41
S'--'
p1094
ssg175
(dp1095
g5
S'--'
p1096
sg7
S'--'
p1097
sg9
g14
sg11
S'--'
p1098
sg13
g14
sg15
S'Andre Johnson'
p1099
sg17
S'2010'
p1100
sg19
g175
sg21
S'--'
p1101
sg23
S'11/07'
p1102
sg25
S'10.3'
p1103
sg27
S'--'
p1104
sg29
S'--'
p1105
sg31
S'L23-29'
p1106
sg33
S'41'
p1107
sg35
g139
sg36
S'SD'
p1108
sg38
S'17'
p1109
sg40
g10
sg41
S'--'
p1110
ssg122
(dp1111
g5
S'--'
p1112
sg7
S'--'
p1113
sg9
g14
sg11
S'--'
p1114
sg13
g14
sg15
S'Andre Johnson'
p1115
sg17
S'2010'
p1116
sg19
g122
sg21
S'--'
p1117
sg23
S'11/01'
p1118
sg25
S'15.1'
p1119
sg27
S'--'
p1120
sg29
S'--'
p1121
sg31
S'L17-30'
p1122
sg33
S'106'
p1123
sg35
g241
sg36
S'@IND'
p1124
sg38
S'28T'
p1125
sg40
g14
sg41
S'--'
p1126
sssS'2013'
p1127
(dp1128
g3
(dp1129
g5
S'--'
p1130
sg7
S'--'
p1131
sg9
g14
sg11
S'--'
p1132
sg13
g14
sg15
S'Andre Johnson'
p1133
sg17
S'2013'
p1134
sg19
S'11'
p1135
sg21
S'--'
p1136
sg23
S'11/17'
p1137
sg25
S'11.6'
p1138
sg27
S'--'
p1139
sg29
S'--'
p1140
sg31
S'L23-28'
p1141
sg33
S'116'
p1142
sg35
S'10'
p1143
sg36
S'OAK'
p1144
sg38
S'34'
p1145
sg40
g10
sg41
S'--'
p1146
ssg43
(dp1147
g5
S'--'
p1148
sg7
S'--'
p1149
sg9
g14
sg11
S'--'
p1150
sg13
g14
sg15
S'Andre Johnson'
p1151
sg17
S'2013'
p1152
sg19
S'10'
p1153
sg21
S'--'
p1154
sg23
S'11/10'
p1155
sg25
S'7.4'
p1156
sg27
S'--'
p1157
sg29
S'--'
p1158
sg31
S'L24-27'
p1159
sg33
S'37'
p1160
sg35
g208
sg36
S'@ARI'
p1161
sg38
S'14'
p1162
sg40
g65
sg41
S'--'
p1163
ssg50
(dp1164
g5
S'--'
p1165
sg7
S'--'
p1166
sg9
g14
sg11
S'--'
p1167
sg13
g14
sg15
S'Andre Johnson'
p1168
sg17
S'2013'
p1169
sg19
S'13'
p1170
sg21
S'--'
p1171
sg23
S'12/01'
p1172
sg25
S'15.1'
p1173
sg27
S'--'
p1174
sg29
S'--'
p1175
sg31
S'L31-34'
p1176
sg33
S'121'
p1177
sg35
g122
sg36
S'NE'
p1178
sg38
S'29'
p1179
sg40
g10
sg41
S'--'
p1180
ssg69
(dp1181
g5
S'--'
p1182
sg7
S'--'
p1183
sg9
g14
sg11
S'--'
p1184
sg13
g14
sg15
S'Andre Johnson'
p1185
sg17
S'2013'
p1186
sg19
S'12'
p1187
sg21
S'--'
p1188
sg23
S'11/24'
p1189
sg25
S'18.0'
p1190
sg27
S'--'
p1191
sg29
S'--'
p1192
sg31
S'L6-13'
p1193
sg33
S'36'
p1194
sg35
g65
sg36
S'JAC'
p1195
sg38
S'21'
p1196
sg40
g10
sg41
S'--'
p1197
ssg87
(dp1198
g5
S'--'
p1199
sg7
S'--'
p1200
sg9
g14
sg11
S'--'
p1201
sg13
g14
sg15
S'Andre Johnson'
p1202
sg17
S'2013'
p1203
sg19
S'15'
p1204
sg21
S'--'
p1205
sg23
S'12/15'
p1206
sg25
S'4.5'
p1207
sg27
S'--'
p1208
sg29
S'--'
p1209
sg31
S'L3-25'
p1210
sg33
S'18'
p1211
sg35
g139
sg36
S'@IND'
p1212
sg38
g175
sg40
g10
sg41
S'--'
p1213
ssg106
(dp1214
g5
S'--'
p1215
sg7
S'--'
p1216
sg9
g14
sg11
S'--'
p1217
sg13
g14
sg15
S'Andre Johnson'
p1218
sg17
S'2013'
p1219
sg19
S'14'
p1220
sg21
S'--'
p1221
sg23
S'12/05'
p1222
sg25
S'11.8'
p1223
sg27
S'--'
p1224
sg29
S'--'
p1225
sg31
S'L20-27'
p1226
sg33
S'154'
p1227
sg35
S'13'
p1228
sg36
S'@JAC'
p1229
sg38
S'27'
p1230
sg40
g10
sg41
S'--'
p1231
ssg124
(dp1232
g5
S'--'
p1233
sg7
S'--'
p1234
sg9
g14
sg11
S'--'
p1235
sg13
g14
sg15
S'Andre Johnson'
p1236
sg17
S'2013'
p1237
sg19
S'17'
p1238
sg21
S'--'
p1239
sg23
S'12/29'
p1240
sg25
S'8.2'
p1241
sg27
S'--'
p1242
sg29
S'--'
p1243
sg31
S'L10-16'
p1244
sg33
S'49'
p1245
sg35
g222
sg36
S'@TEN'
p1246
sg38
S'13'
p1247
sg40
g10
sg41
S'--'
p1248
ssg143
(dp1249
g5
S'--'
p1250
sg7
S'--'
p1251
sg9
g14
sg11
S'--'
p1252
sg13
g14
sg15
S'Andre Johnson'
p1253
sg17
S'2013'
p1254
sg19
S'16'
p1255
sg21
S'--'
p1256
sg23
S'12/22'
p1257
sg25
S'15.8'
p1258
sg27
S'--'
p1259
sg29
S'--'
p1260
sg31
S'L13-37'
p1261
sg33
S'63'
p1262
sg35
g139
sg36
S'DEN'
p1263
sg38
S'33'
p1264
sg40
g10
sg41
S'--'
p1265
ssg14
(dp1266
g5
S'--'
p1267
sg7
S'--'
p1268
sg9
g14
sg11
S'--'
p1269
sg13
g14
sg15
S'Andre Johnson'
p1270
sg17
S'2013'
p1271
sg19
g14
sg21
S'--'
p1272
sg23
S'09/09'
p1273
sg25
S'12.2'
p1274
sg27
S'--'
p1275
sg29
S'--'
p1276
sg31
S'W31-28'
p1277
sg33
S'146'
p1278
sg35
S'12'
p1279
sg36
S'@SD'
p1280
sg38
S'27'
p1281
sg40
g10
sg41
S'--'
p1282
ssg102
(dp1283
g5
S'--'
p1284
sg7
S'--'
p1285
sg9
g14
sg11
S'--'
p1286
sg13
g14
sg15
S'Andre Johnson'
p1287
sg17
S'2013'
p1288
sg19
g102
sg21
S'--'
p1289
sg23
S'09/22'
p1290
sg25
S'7.2'
p1291
sg27
S'--'
p1292
sg29
S'--'
p1293
sg31
S'L9-30'
p1294
sg33
S'36'
p1295
sg35
g208
sg36
S'@BAL'
p1296
sg38
S'12'
p1297
sg40
g10
sg41
S'--'
p1298
ssg65
(dp1299
g5
S'--'
p1300
sg7
S'--'
p1301
sg9
g14
sg11
S'--'
p1302
sg13
g14
sg15
S'Andre Johnson'
p1303
sg17
S'2013'
p1304
sg19
g65
sg21
S'--'
p1305
sg23
S'09/15'
p1306
sg25
S'9.5'
p1307
sg27
S'--'
p1308
sg29
S'--'
p1309
sg31
S'W30-24'
p1310
sg33
S'76'
p1311
sg35
g122
sg36
S'TEN'
p1312
sg38
S'21'
p1313
sg40
g10
sg41
S'--'
p1314
ssg208
(dp1315
g5
S'--'
p1316
sg7
S'--'
p1317
sg9
g14
sg11
S'--'
p1318
sg13
g14
sg15
S'Andre Johnson'
p1319
sg17
S'2013'
p1320
sg19
g208
sg21
S'--'
p1321
sg23
S'10/06'
p1322
sg25
S'13.0'
p1323
sg27
S'--'
p1324
sg29
S'--'
p1325
sg31
S'L3-34'
p1326
sg33
S'39'
p1327
sg35
g102
sg36
S'@SF'
p1328
sg38
S'19'
p1329
sg40
g10
sg41
S'--'
p1330
ssg139
(dp1331
g5
S'--'
p1332
sg7
S'--'
p1333
sg9
g14
sg11
S'--'
p1334
sg13
g14
sg15
S'Andre Johnson'
p1335
sg17
S'2013'
p1336
sg19
g139
sg21
S'--'
p1337
sg23
S'09/29'
p1338
sg25
S'12.2'
p1339
sg27
S'--'
p1340
sg29
S'--'
p1341
sg31
S'L20-23'
p1342
sg33
S'110'
p1343
sg35
g175
sg36
S'SEA'
p1344
sg38
S'17'
p1345
sg40
g10
sg41
S'--'
p1346
ssg241
(dp1347
g5
S'--'
p1348
sg7
S'--'
p1349
sg9
g14
sg11
S'--'
p1350
sg13
g14
sg15
S'Andre Johnson'
p1351
sg17
S'2013'
p1352
sg19
g241
sg21
S'--'
p1353
sg23
S'10/20'
p1354
sg25
S'22.3'
p1355
sg27
S'--'
p1356
sg29
S'--'
p1357
sg31
S'L16-17'
p1358
sg33
S'89'
p1359
sg35
g139
sg36
S'@KC'
p1360
sg38
S'42'
p1361
sg40
g10
sg41
S'--'
p1362
ssg222
(dp1363
g5
S'--'
p1364
sg7
S'--'
p1365
sg9
g14
sg11
S'--'
p1366
sg13
g14
sg15
S'Andre Johnson'
p1367
sg17
S'2013'
p1368
sg19
g222
sg21
S'--'
p1369
sg23
S'10/13'
p1370
sg25
S'12.6'
p1371
sg27
S'--'
p1372
sg29
S'--'
p1373
sg31
S'L13-38'
p1374
sg33
S'88'
p1375
sg35
g241
sg36
S'STL'
p1376
sg38
S'19'
p1377
sg40
g10
sg41
S'--'
p1378
ssg175
(dp1379
g5
S'--'
p1380
sg7
S'--'
p1381
sg9
g14
sg11
S'--'
p1382
sg13
g14
sg15
S'Andre Johnson'
p1383
sg17
S'2013'
p1384
sg19
g175
sg21
S'--'
p1385
sg23
S'11/03'
p1386
sg25
S'25.4'
p1387
sg27
S'--'
p1388
sg29
S'--'
p1389
sg31
S'L24-27'
p1390
sg33
S'229'
p1391
sg35
g175
sg36
S'IND'
p1392
sg38
S'62T'
p1393
sg40
g102
sg41
S'--'
p1394
ssg122
(dp1395
g5
g45
sg7
g45
sg9
g45
sg11
g45
sg13
g45
sg15
S'Andre Johnson'
p1396
sg17
S'2013'
p1397
sg19
g122
sg21
g45
sg23
S'Bye'
p1398
sg25
g45
sg27
g45
sg29
g45
sg31
g45
sg33
g45
sg35
g45
sg36
g45
sg38
g45
sg40
g45
sg41
g45
sssS'2012'
p1399
(dp1400
g3
(dp1401
g5
S'--'
p1402
sg7
S'--'
p1403
sg9
g14
sg11
S'--'
p1404
sg13
g14
sg15
S'Andre Johnson'
p1405
sg17
S'2012'
p1406
sg19
S'11'
p1407
sg21
S'--'
p1408
sg23
S'11/18'
p1409
sg25
S'19.5'
p1410
sg27
S'--'
p1411
sg29
S'--'
p1412
sg31
S'W43-37'
p1413
sg33
S'273'
p1414
sg35
S'14'
p1415
sg36
S'JAC'
p1416
sg38
S'48T'
p1417
sg40
g14
sg41
S'--'
p1418
ssg43
(dp1419
g5
S'--'
p1420
sg7
S'--'
p1421
sg9
g14
sg11
S'--'
p1422
sg13
g14
sg15
S'Andre Johnson'
p1423
sg17
S'2012'
p1424
sg19
S'10'
p1425
sg21
S'--'
p1426
sg23
S'11/11'
p1427
sg25
S'8.8'
p1428
sg27
S'--'
p1429
sg29
S'--'
p1430
sg31
S'W13-6'
p1431
sg33
S'35'
p1432
sg35
g139
sg36
S'@CHI'
p1433
sg38
S'11'
p1434
sg40
g10
sg41
S'--'
p1435
ssg50
(dp1436
g5
S'--'
p1437
sg7
S'--'
p1438
sg9
g14
sg11
S'--'
p1439
sg13
g14
sg15
S'Andre Johnson'
p1440
sg17
S'2012'
p1441
sg19
S'13'
p1442
sg21
S'--'
p1443
sg23
S'12/02'
p1444
sg25
S'11.2'
p1445
sg27
S'--'
p1446
sg29
S'--'
p1447
sg31
S'W24-10'
p1448
sg33
S'56'
p1449
sg35
g208
sg36
S'@TEN'
p1450
sg38
S'21'
p1451
sg40
g10
sg41
S'--'
p1452
ssg69
(dp1453
g5
S'--'
p1454
sg7
S'--'
p1455
sg9
g14
sg11
S'--'
p1456
sg13
g14
sg15
S'Andre Johnson'
p1457
sg17
S'2012'
p1458
sg19
S'12'
p1459
sg21
S'--'
p1460
sg23
S'11/22'
p1461
sg25
S'20.9'
p1462
sg27
S'--'
p1463
sg29
S'--'
p1464
sg31
S'W34-31'
p1465
sg33
S'188'
p1466
sg35
g175
sg36
S'@DET'
p1467
sg38
S'43'
p1468
sg40
g10
sg41
S'--'
p1469
ssg87
(dp1470
g5
S'--'
p1471
sg7
S'--'
p1472
sg9
g14
sg11
S'--'
p1473
sg13
g14
sg15
S'Andre Johnson'
p1474
sg17
S'2012'
p1475
sg19
S'15'
p1476
sg21
S'--'
p1477
sg23
S'12/16'
p1478
sg25
S'13.7'
p1479
sg27
S'--'
p1480
sg29
S'--'
p1481
sg31
S'W29-17'
p1482
sg33
S'151'
p1483
sg35
S'11'
p1484
sg36
S'IND'
p1485
sg38
S'52'
p1486
sg40
g14
sg41
S'--'
p1487
ssg106
(dp1488
g5
S'--'
p1489
sg7
S'--'
p1490
sg9
g14
sg11
S'--'
p1491
sg13
g14
sg15
S'Andre Johnson'
p1492
sg17
S'2012'
p1493
sg19
S'14'
p1494
sg21
S'--'
p1495
sg23
S'12/10'
p1496
sg25
S'11.9'
p1497
sg27
S'--'
p1498
sg29
S'--'
p1499
sg31
S'L14-42'
p1500
sg33
S'95'
p1501
sg35
g122
sg36
S'@NE'
p1502
sg38
S'25'
p1503
sg40
g10
sg41
S'--'
p1504
ssg124
(dp1505
g5
S'--'
p1506
sg7
S'--'
p1507
sg9
g14
sg11
S'--'
p1508
sg13
g14
sg15
S'Andre Johnson'
p1509
sg17
S'2012'
p1510
sg19
S'17'
p1511
sg21
S'--'
p1512
sg23
S'12/30'
p1513
sg25
S'11.8'
p1514
sg27
S'--'
p1515
sg29
S'--'
p1516
sg31
S'L16-28'
p1517
sg33
S'141'
p1518
sg35
S'12'
p1519
sg36
S'@IND'
p1520
sg38
S'39'
p1521
sg40
g10
sg41
S'--'
p1522
ssg143
(dp1523
g5
S'--'
p1524
sg7
S'--'
p1525
sg9
g14
sg11
S'--'
p1526
sg13
g14
sg15
S'Andre Johnson'
p1527
sg17
S'2012'
p1528
sg19
S'16'
p1529
sg21
S'--'
p1530
sg23
S'12/23'
p1531
sg25
S'13.9'
p1532
sg27
S'--'
p1533
sg29
S'--'
p1534
sg31
S'L6-23'
p1535
sg33
S'97'
p1536
sg35
g241
sg36
S'MIN'
p1537
sg38
S'19'
p1538
sg40
g10
sg41
S'--'
p1539
ssg14
(dp1540
g5
S'--'
p1541
sg7
S'--'
p1542
sg9
g14
sg11
S'--'
p1543
sg13
g14
sg15
S'Andre Johnson'
p1544
sg17
S'2012'
p1545
sg19
g14
sg21
S'--'
p1546
sg23
S'09/09'
p1547
sg25
S'14.9'
p1548
sg27
S'--'
p1549
sg29
S'--'
p1550
sg31
S'W30-10'
p1551
sg33
S'119'
p1552
sg35
g122
sg36
S'MIA'
p1553
sg38
S'29'
p1554
sg40
g14
sg41
S'--'
p1555
ssg102
(dp1556
g5
S'--'
p1557
sg7
S'--'
p1558
sg9
g14
sg11
S'--'
p1559
sg13
g14
sg15
S'Andre Johnson'
p1560
sg17
S'2012'
p1561
sg19
g102
sg21
S'--'
p1562
sg23
S'09/23'
p1563
sg25
S'36.0'
p1564
sg27
S'--'
p1565
sg29
S'--'
p1566
sg31
S'W31-25'
p1567
sg33
S'72'
p1568
sg35
g65
sg36
S'@DEN'
p1569
sg38
S'60T'
p1570
sg40
g14
sg41
S'--'
p1571
ssg65
(dp1572
g5
S'--'
p1573
sg7
S'--'
p1574
sg9
g14
sg11
S'--'
p1575
sg13
g14
sg15
S'Andre Johnson'
p1576
sg17
S'2012'
p1577
sg19
g65
sg21
S'--'
p1578
sg23
S'09/16'
p1579
sg25
S'7.0'
p1580
sg27
S'--'
p1581
sg29
S'--'
p1582
sg31
S'W27-7'
p1583
sg33
S'21'
p1584
sg35
g102
sg36
S'@JAC'
p1585
sg38
S'11'
p1586
sg40
g10
sg41
S'--'
p1587
ssg208
(dp1588
g5
S'--'
p1589
sg7
S'--'
p1590
sg9
g14
sg11
S'--'
p1591
sg13
g14
sg15
S'Andre Johnson'
p1592
sg17
S'2012'
p1593
sg19
g208
sg21
S'--'
p1594
sg23
S'10/08'
p1595
sg25
S'15.0'
p1596
sg27
S'--'
p1597
sg29
S'--'
p1598
sg31
S'W23-17'
p1599
sg33
S'15'
p1600
sg35
g14
sg36
S'@NYJ'
p1601
sg38
S'15'
p1602
sg40
g10
sg41
S'--'
p1603
ssg139
(dp1604
g5
S'--'
p1605
sg7
S'--'
p1606
sg9
g14
sg11
S'--'
p1607
sg13
g14
sg15
S'Andre Johnson'
p1608
sg17
S'2012'
p1609
sg19
g139
sg21
S'--'
p1610
sg23
S'09/30'
p1611
sg25
S'18.7'
p1612
sg27
S'--'
p1613
sg29
S'--'
p1614
sg31
S'W38-14'
p1615
sg33
S'56'
p1616
sg35
g102
sg36
S'TEN'
p1617
sg38
S'33'
p1618
sg40
g10
sg41
S'--'
p1619
ssg241
(dp1620
g5
S'--'
p1621
sg7
S'--'
p1622
sg9
g14
sg11
S'--'
p1623
sg13
g14
sg15
S'Andre Johnson'
p1624
sg17
S'2012'
p1625
sg19
g241
sg21
S'--'
p1626
sg23
S'10/21'
p1627
sg25
S'9.6'
p1628
sg27
S'--'
p1629
sg29
S'--'
p1630
sg31
S'W43-13'
p1631
sg33
S'86'
p1632
sg35
g175
sg36
S'BAL'
p1633
sg38
S'14'
p1634
sg40
g10
sg41
S'--'
p1635
ssg222
(dp1636
g5
S'--'
p1637
sg7
S'--'
p1638
sg9
g14
sg11
S'--'
p1639
sg13
g14
sg15
S'Andre Johnson'
p1640
sg17
S'2012'
p1641
sg19
g222
sg21
S'--'
p1642
sg23
S'10/14'
p1643
sg25
S'9.4'
p1644
sg27
S'--'
p1645
sg29
S'--'
p1646
sg31
S'L24-42'
p1647
sg33
S'75'
p1648
sg35
g122
sg36
S'GB'
p1649
sg38
S'15'
p1650
sg40
g10
sg41
S'--'
p1651
ssg175
(dp1652
g5
S'--'
p1653
sg7
S'--'
p1654
sg9
g14
sg11
S'--'
p1655
sg13
g14
sg15
S'Andre Johnson'
p1656
sg17
S'2012'
p1657
sg19
g175
sg21
S'--'
p1658
sg23
S'11/04'
p1659
sg25
S'14.8'
p1660
sg27
S'--'
p1661
sg29
S'--'
p1662
sg31
S'W21-9'
p1663
sg33
S'118'
p1664
sg35
g122
sg36
S'BUF'
p1665
sg38
S'34'
p1666
sg40
g10
sg41
S'--'
p1667
ssg122
(dp1668
g5
g45
sg7
g45
sg9
g45
sg11
g45
sg13
g45
sg15
S'Andre Johnson'
p1669
sg17
S'2012'
p1670
sg19
g122
sg21
g45
sg23
S'Bye'
p1671
sg25
g45
sg27
g45
sg29
g45
sg31
g45
sg33
g45
sg35
g45
sg36
g45
sg38
g45
sg40
g45
sg41
g45
sss.