(dp0
S'2015'
p1
(dp2
S'11'
p3
(dp4
S'RushTD'
p5
S'--'
p6
sS'RushYds'
p7
S'--'
p8
sS'GS'
p9
S'0'
p10
sS'Lost'
p11
S'--'
p12
sS'G'
p13
g10
sS'Player'
p14
S'Andrew Turzilli'
p15
sS'Year'
p16
S'2015'
p17
sS'WK'
p18
S'11'
p19
sS'RushAvg'
p20
S'--'
p21
sS'Game Date'
p22
S'11/19'
p23
sS'RecAvg'
p24
S'--'
p25
sS'FUM'
p26
S'--'
p27
sS'RushAtt'
p28
S'--'
p29
sS'Result'
p30
S'L13-19'
p31
sS'RecYds'
p32
S'--'
p33
sS'Rec'
p34
S'--'
p35
sS'Opp'
p36
S'@JAC'
p37
sS'RecLng'
p38
S'--'
p39
sS'RecTD'
p40
S'--'
p41
sS'RushLng'
p42
S'--'
p43
ssS'13'
p44
(dp45
g5
S'--'
p46
sg7
S'--'
p47
sg9
g10
sg11
S'--'
p48
sg13
g10
sg14
S'Andrew Turzilli'
p49
sg16
S'2015'
p50
sg18
S'13'
p51
sg20
S'--'
p52
sg22
S'12/06'
p53
sg24
S'--'
p54
sg26
S'--'
p55
sg28
S'--'
p56
sg30
S'W42-39'
p57
sg32
S'--'
p58
sg34
S'--'
p59
sg36
S'JAC'
p60
sg38
S'--'
p61
sg40
S'--'
p62
sg42
S'--'
p63
ssS'12'
p64
(dp65
g5
S'--'
p66
sg7
S'--'
p67
sg9
g10
sg11
S'--'
p68
sg13
g10
sg14
S'Andrew Turzilli'
p69
sg16
S'2015'
p70
sg18
S'12'
p71
sg20
S'--'
p72
sg22
S'11/29'
p73
sg24
S'--'
p74
sg26
S'--'
p75
sg28
S'--'
p76
sg30
S'L21-24'
p77
sg32
S'--'
p78
sg34
S'--'
p79
sg36
S'OAK'
p80
sg38
S'--'
p81
sg40
S'--'
p82
sg42
S'--'
p83
ssS'15'
p84
(dp85
g5
S'--'
p86
sg7
S'--'
p87
sg9
g10
sg11
S'--'
p88
sg13
S'1'
p89
sg14
S'Andrew Turzilli'
p90
sg16
S'2015'
p91
sg18
S'15'
p92
sg20
S'--'
p93
sg22
S'12/20'
p94
sg24
S'--'
p95
sg26
S'--'
p96
sg28
S'--'
p97
sg30
S'L16-33'
p98
sg32
S'--'
p99
sg34
S'--'
p100
sg36
S'@NE'
p101
sg38
S'--'
p102
sg40
S'--'
p103
sg42
S'--'
p104
ssS'14'
p105
(dp106
g5
S'--'
p107
sg7
S'--'
p108
sg9
g10
sg11
S'--'
p109
sg13
g89
sg14
S'Andrew Turzilli'
p110
sg16
S'2015'
p111
sg18
S'14'
p112
sg20
S'--'
p113
sg22
S'12/13'
p114
sg24
S'12.5'
p115
sg26
S'--'
p116
sg28
S'--'
p117
sg30
S'L8-30'
p118
sg32
S'25'
p119
sg34
S'2'
p120
sg36
S'@NYJ'
p121
sg38
S'18'
p122
sg40
g10
sg42
S'--'
p123
ssS'17'
p124
(dp125
g5
S'--'
p126
sg7
S'--'
p127
sg9
g10
sg11
S'--'
p128
sg13
g89
sg14
S'Andrew Turzilli'
p129
sg16
S'2015'
p130
sg18
S'17'
p131
sg20
S'--'
p132
sg22
S'01/03'
p133
sg24
S'--'
p134
sg26
S'--'
p135
sg28
S'--'
p136
sg30
S'L24-30'
p137
sg32
S'--'
p138
sg34
S'--'
p139
sg36
S'@IND'
p140
sg38
S'--'
p141
sg40
S'--'
p142
sg42
S'--'
p143
ssS'16'
p144
(dp145
g5
S'--'
p146
sg7
S'--'
p147
sg9
g10
sg11
S'--'
p148
sg13
g10
sg14
S'Andrew Turzilli'
p149
sg16
S'2015'
p150
sg18
S'16'
p151
sg20
S'--'
p152
sg22
S'12/27'
p153
sg24
S'--'
p154
sg26
S'--'
p155
sg28
S'--'
p156
sg30
S'L6-34'
p157
sg32
S'--'
p158
sg34
S'--'
p159
sg36
S'HOU'
p160
sg38
S'--'
p161
sg40
S'--'
p162
sg42
S'--'
p163
sss.