(dp0
S'2015'
p1
(dp2
S'11'
p3
(dp4
S'RushTD'
p5
S'--'
p6
sS'RushYds'
p7
S'--'
p8
sS'GS'
p9
S'1'
p10
sS'Lost'
p11
S'--'
p12
sS'G'
p13
g10
sS'Player'
p14
S'Anquan Boldin'
p15
sS'Year'
p16
S'2015'
p17
sS'WK'
p18
S'11'
p19
sS'RushAvg'
p20
S'--'
p21
sS'Game Date'
p22
S'11/22'
p23
sS'RecAvg'
p24
S'18.6'
p25
sS'FUM'
p26
S'--'
p27
sS'RushAtt'
p28
S'--'
p29
sS'Result'
p30
S'L13-29'
p31
sS'RecYds'
p32
S'93'
p33
sS'Rec'
p34
S'5'
p35
sS'Opp'
p36
S'@SEA'
p37
sS'RecLng'
p38
S'28'
p39
sS'RecTD'
p40
S'0'
p41
sS'RushLng'
p42
S'--'
p43
ssS'10'
p44
(dp45
g5
S''
p46
sg7
g46
sg9
g46
sg11
g46
sg13
g46
sg14
S'Anquan Boldin'
p47
sg16
S'2015'
p48
sg18
S'10'
p49
sg20
g46
sg22
S'Bye'
p50
sg24
g46
sg26
g46
sg28
g46
sg30
g46
sg32
g46
sg34
g46
sg36
g46
sg38
g46
sg40
g46
sg42
g46
ssS'13'
p51
(dp52
g5
S'--'
p53
sg7
S'--'
p54
sg9
g10
sg11
S'--'
p55
sg13
g10
sg14
S'Anquan Boldin'
p56
sg16
S'2015'
p57
sg18
S'13'
p58
sg20
S'--'
p59
sg22
S'12/06'
p60
sg24
S'7.4'
p61
sg26
S'--'
p62
sg28
S'--'
p63
sg30
S'W26-20'
p64
sg32
S'37'
p65
sg34
g35
sg36
S'@CHI'
p66
sg38
S'11'
p67
sg40
g41
sg42
S'--'
p68
ssS'12'
p69
(dp70
g5
S'--'
p71
sg7
S'--'
p72
sg9
g10
sg11
S'--'
p73
sg13
g10
sg14
S'Anquan Boldin'
p74
sg16
S'2015'
p75
sg18
S'12'
p76
sg20
S'--'
p77
sg22
S'11/29'
p78
sg24
S'11.6'
p79
sg26
S'--'
p80
sg28
S'--'
p81
sg30
S'L13-19'
p82
sg32
S'93'
p83
sg34
S'8'
p84
sg36
S'ARI'
p85
sg38
S'18'
p86
sg40
g41
sg42
S'--'
p87
ssS'15'
p88
(dp89
g5
S'--'
p90
sg7
S'--'
p91
sg9
g10
sg11
g10
sg13
g10
sg14
S'Anquan Boldin'
p92
sg16
S'2015'
p93
sg18
S'15'
p94
sg20
S'--'
p95
sg22
S'12/20'
p96
sg24
S'9.3'
p97
sg26
g10
sg28
S'--'
p98
sg30
S'L14-24'
p99
sg32
S'74'
p100
sg34
g84
sg36
S'CIN'
p101
sg38
S'29'
p102
sg40
g10
sg42
S'--'
p103
ssS'14'
p104
(dp105
g5
S'--'
p106
sg7
S'--'
p107
sg9
g10
sg11
S'--'
p108
sg13
g10
sg14
S'Anquan Boldin'
p109
sg16
S'2015'
p110
sg18
S'14'
p111
sg20
S'--'
p112
sg22
S'12/13'
p113
sg24
S'11.0'
p114
sg26
S'--'
p115
sg28
S'--'
p116
sg30
S'L10-24'
p117
sg32
S'22'
p118
sg34
S'2'
p119
sg36
S'@CLE'
p120
sg38
S'14'
p121
sg40
g41
sg42
S'--'
p122
ssS'17'
p123
(dp124
g5
S'--'
p125
sg7
S'--'
p126
sg9
g10
sg11
S'--'
p127
sg13
g10
sg14
S'Anquan Boldin'
p128
sg16
S'2015'
p129
sg18
S'17'
p130
sg20
S'--'
p131
sg22
S'01/03'
p132
sg24
S'14.2'
p133
sg26
S'--'
p134
sg28
S'--'
p135
sg30
S'W19-16'
p136
sg32
S'71'
p137
sg34
g35
sg36
S'STL'
p138
sg38
S'33T'
p139
sg40
g10
sg42
S'--'
p140
ssS'16'
p141
(dp142
g5
S'--'
p143
sg7
S'--'
p144
sg9
g10
sg11
S'--'
p145
sg13
g10
sg14
S'Anquan Boldin'
p146
sg16
S'2015'
p147
sg18
S'16'
p148
sg20
S'--'
p149
sg22
S'12/27'
p150
sg24
S'5.4'
p151
sg26
S'--'
p152
sg28
S'--'
p153
sg30
S'L17-32'
p154
sg32
S'27'
p155
sg34
g35
sg36
S'@DET'
p156
sg38
S'9'
p157
sg40
g41
sg42
S'--'
p158
ssg10
(dp159
g5
S'--'
p160
sg7
S'--'
p161
sg9
g10
sg11
S'--'
p162
sg13
g10
sg14
S'Anquan Boldin'
p163
sg16
S'2015'
p164
sg18
g10
sg20
S'--'
p165
sg22
S'09/14'
p166
sg24
S'9.0'
p167
sg26
S'--'
p168
sg28
S'--'
p169
sg30
S'W20-3'
p170
sg32
S'36'
p171
sg34
S'4'
p172
sg36
S'MIN'
p173
sg38
S'15'
p174
sg40
g41
sg42
S'--'
p175
ssS'3'
p176
(dp177
g5
S'--'
p178
sg7
S'--'
p179
sg9
g10
sg11
S'--'
p180
sg13
g10
sg14
S'Anquan Boldin'
p181
sg16
S'2015'
p182
sg18
g176
sg20
S'--'
p183
sg22
S'09/27'
p184
sg24
S'8.0'
p185
sg26
S'--'
p186
sg28
S'--'
p187
sg30
S'L7-47'
p188
sg32
S'16'
p189
sg34
g119
sg36
S'@ARI'
p190
sg38
S'14'
p191
sg40
g41
sg42
S'--'
p192
ssg119
(dp193
g5
S'--'
p194
sg7
S'--'
p195
sg9
g10
sg11
S'--'
p196
sg13
g10
sg14
S'Anquan Boldin'
p197
sg16
S'2015'
p198
sg18
g119
sg20
S'--'
p199
sg22
S'09/20'
p200
sg24
S'10.0'
p201
sg26
S'--'
p202
sg28
S'--'
p203
sg30
S'L18-43'
p204
sg32
S'60'
p205
sg34
S'6'
p206
sg36
S'@PIT'
p207
sg38
S'14T'
p208
sg40
g10
sg42
S'--'
p209
ssg35
(dp210
g5
S'--'
p211
sg7
S'--'
p212
sg9
g10
sg11
S'--'
p213
sg13
g10
sg14
S'Anquan Boldin'
p214
sg16
S'2015'
p215
sg18
g35
sg20
S'--'
p216
sg22
S'10/11'
p217
sg24
S'13.4'
p218
sg26
S'--'
p219
sg28
S'--'
p220
sg30
S'L27-30'
p221
sg32
S'107'
p222
sg34
g84
sg36
S'@NYG'
p223
sg38
S'37'
p224
sg40
g10
sg42
S'--'
p225
ssg172
(dp226
g5
S'--'
p227
sg7
S'--'
p228
sg9
g10
sg11
S'--'
p229
sg13
g10
sg14
S'Anquan Boldin'
p230
sg16
S'2015'
p231
sg18
g172
sg20
S'--'
p232
sg22
S'10/04'
p233
sg24
S'4.0'
p234
sg26
S'--'
p235
sg28
S'--'
p236
sg30
S'L3-17'
p237
sg32
S'12'
p238
sg34
g176
sg36
S'GB'
p239
sg38
g84
sg40
g41
sg42
S'--'
p240
ssS'7'
p241
(dp242
g5
S'--'
p243
sg7
S'--'
p244
sg9
g41
sg11
S'--'
p245
sg13
g10
sg14
S'Anquan Boldin'
p246
sg16
S'2015'
p247
sg18
g241
sg20
S'--'
p248
sg22
S'10/22'
p249
sg24
S'13.0'
p250
sg26
S'--'
p251
sg28
S'--'
p252
sg30
S'L3-20'
p253
sg32
S'39'
p254
sg34
g176
sg36
S'SEA'
p255
sg38
S'27'
p256
sg40
g41
sg42
S'--'
p257
ssg206
(dp258
g5
S'--'
p259
sg7
S'--'
p260
sg9
g10
sg11
S'--'
p261
sg13
g10
sg14
S'Anquan Boldin'
p262
sg16
S'2015'
p263
sg18
g206
sg20
S'--'
p264
sg22
S'10/18'
p265
sg24
S'20.4'
p266
sg26
S'--'
p267
sg28
S'--'
p268
sg30
S'W25-20'
p269
sg32
S'102'
p270
sg34
g35
sg36
S'BAL'
p271
sg38
S'51'
p272
sg40
g41
sg42
S'--'
p273
ssg157
(dp274
g5
S'--'
p275
sg7
S'--'
p276
sg9
g41
sg11
S'--'
p277
sg13
g41
sg14
S'Anquan Boldin'
p278
sg16
S'2015'
p279
sg18
g157
sg20
S'--'
p280
sg22
S'11/08'
p281
sg24
S'--'
p282
sg26
S'--'
p283
sg28
S'--'
p284
sg30
S'W17-16'
p285
sg32
S'--'
p286
sg34
S'--'
p287
sg36
S'ATL'
p288
sg38
S'--'
p289
sg40
S'--'
p290
sg42
S'--'
p291
ssg84
(dp292
g5
S'--'
p293
sg7
S'--'
p294
sg9
g41
sg11
S'--'
p295
sg13
g41
sg14
S'Anquan Boldin'
p296
sg16
S'2015'
p297
sg18
g84
sg20
S'--'
p298
sg22
S'11/01'
p299
sg24
S'--'
p300
sg26
S'--'
p301
sg28
S'--'
p302
sg30
S'L6-27'
p303
sg32
S'--'
p304
sg34
S'--'
p305
sg36
S'@STL'
p306
sg38
S'--'
p307
sg40
S'--'
p308
sg42
S'--'
p309
sssS'2014'
p310
(dp311
g3
(dp312
g5
S'--'
p313
sg7
S'--'
p314
sg9
g10
sg11
S'--'
p315
sg13
g10
sg14
S'Anquan Boldin'
p316
sg16
S'2014'
p317
sg18
S'11'
p318
sg20
S'--'
p319
sg22
S'11/16'
p320
sg24
S'10.6'
p321
sg26
S'--'
p322
sg28
S'--'
p323
sg30
S'W16-10'
p324
sg32
S'53'
p325
sg34
g35
sg36
S'@NYG'
p326
sg38
S'16'
p327
sg40
g41
sg42
S'--'
p328
ssg44
(dp329
g5
S'--'
p330
sg7
S'--'
p331
sg9
g10
sg11
S'--'
p332
sg13
g10
sg14
S'Anquan Boldin'
p333
sg16
S'2014'
p334
sg18
S'10'
p335
sg20
S'--'
p336
sg22
S'11/09'
p337
sg24
S'15.8'
p338
sg26
S'--'
p339
sg28
S'--'
p340
sg30
S'W27-24'
p341
sg32
S'95'
p342
sg34
g206
sg36
S'@NO'
p343
sg38
S'25'
p344
sg40
g10
sg42
S'--'
p345
ssg51
(dp346
g5
S'--'
p347
sg7
S'--'
p348
sg9
g10
sg11
S'--'
p349
sg13
g10
sg14
S'Anquan Boldin'
p350
sg16
S'2014'
p351
sg18
S'13'
p352
sg20
S'--'
p353
sg22
S'11/27'
p354
sg24
S'6.0'
p355
sg26
S'--'
p356
sg28
S'--'
p357
sg30
S'L3-19'
p358
sg32
S'18'
p359
sg34
g176
sg36
S'SEA'
p360
sg38
S'10'
p361
sg40
g41
sg42
S'--'
p362
ssg69
(dp363
g5
S'--'
p364
sg7
S'--'
p365
sg9
g10
sg11
S'--'
p366
sg13
g10
sg14
S'Anquan Boldin'
p367
sg16
S'2014'
p368
sg18
S'12'
p369
sg20
S'--'
p370
sg22
S'11/23'
p371
sg24
S'15.2'
p372
sg26
S'--'
p373
sg28
S'--'
p374
sg30
S'W17-13'
p375
sg32
S'137'
p376
sg34
g157
sg36
S'WAS'
p377
sg38
S'30T'
p378
sg40
g10
sg42
S'--'
p379
ssg88
(dp380
g5
S'--'
p381
sg7
S'--'
p382
sg9
g10
sg11
S'--'
p383
sg13
g10
sg14
S'Anquan Boldin'
p384
sg16
S'2014'
p385
sg18
S'15'
p386
sg20
S'--'
p387
sg22
S'12/14'
p388
sg24
S'11.5'
p389
sg26
S'--'
p390
sg28
S'--'
p391
sg30
S'L7-17'
p392
sg32
S'23'
p393
sg34
g119
sg36
S'@SEA'
p394
sg38
S'15'
p395
sg40
g41
sg42
S'--'
p396
ssg104
(dp397
g5
g41
sg7
g172
sg9
g10
sg11
S'--'
p398
sg13
g10
sg14
S'Anquan Boldin'
p399
sg16
S'2014'
p400
sg18
S'14'
p401
sg20
S'4.0'
p402
sg22
S'12/07'
p403
sg24
S'13.5'
p404
sg26
S'--'
p405
sg28
g10
sg30
S'L13-24'
p406
sg32
S'54'
p407
sg34
g172
sg36
S'@OAK'
p408
sg38
S'20'
p409
sg40
g41
sg42
g172
ssg123
(dp410
g5
S'--'
p411
sg7
S'--'
p412
sg9
g10
sg11
S'--'
p413
sg13
g10
sg14
S'Anquan Boldin'
p414
sg16
S'2014'
p415
sg18
S'17'
p416
sg20
S'--'
p417
sg22
S'12/28'
p418
sg24
S'40.5'
p419
sg26
S'--'
p420
sg28
S'--'
p421
sg30
S'W20-17'
p422
sg32
S'81'
p423
sg34
g119
sg36
S'ARI'
p424
sg38
S'76T'
p425
sg40
g10
sg42
S'--'
p426
ssg141
(dp427
g5
S'--'
p428
sg7
S'--'
p429
sg9
g10
sg11
S'--'
p430
sg13
g10
sg14
S'Anquan Boldin'
p431
sg16
S'2014'
p432
sg18
S'16'
p433
sg20
S'--'
p434
sg22
S'12/20'
p435
sg24
S'8.7'
p436
sg26
S'--'
p437
sg28
S'--'
p438
sg30
S'L35-38'
p439
sg32
S'61'
p440
sg34
g241
sg36
S'SD'
p441
sg38
S'20'
p442
sg40
g41
sg42
S'--'
p443
ssg10
(dp444
g5
S'--'
p445
sg7
S'--'
p446
sg9
g10
sg11
S'--'
p447
sg13
g10
sg14
S'Anquan Boldin'
p448
sg16
S'2014'
p449
sg18
g10
sg20
S'--'
p450
sg22
S'09/07'
p451
sg24
S'12.4'
p452
sg26
S'--'
p453
sg28
S'--'
p454
sg30
S'W28-17'
p455
sg32
S'99'
p456
sg34
g84
sg36
S'@DAL'
p457
sg38
S'37'
p458
sg40
g41
sg42
S'--'
p459
ssg176
(dp460
g5
S'--'
p461
sg7
S'--'
p462
sg9
g10
sg11
S'--'
p463
sg13
g10
sg14
S'Anquan Boldin'
p464
sg16
S'2014'
p465
sg18
g176
sg20
S'--'
p466
sg22
S'09/21'
p467
sg24
S'6.0'
p468
sg26
S'--'
p469
sg28
S'--'
p470
sg30
S'L14-23'
p471
sg32
S'36'
p472
sg34
g206
sg36
S'@ARI'
p473
sg38
g241
sg40
g41
sg42
S'--'
p474
ssg119
(dp475
g5
S'--'
p476
sg7
S'--'
p477
sg9
g10
sg11
S'--'
p478
sg13
g10
sg14
S'Anquan Boldin'
p479
sg16
S'2014'
p480
sg18
g119
sg20
S'--'
p481
sg22
S'09/14'
p482
sg24
S'17.0'
p483
sg26
S'--'
p484
sg28
S'--'
p485
sg30
S'L20-28'
p486
sg32
S'34'
p487
sg34
g119
sg36
S'CHI'
p488
sg38
S'21'
p489
sg40
g41
sg42
S'--'
p490
ssg35
(dp491
g5
S'--'
p492
sg7
S'--'
p493
sg9
g10
sg11
S'--'
p494
sg13
g10
sg14
S'Anquan Boldin'
p495
sg16
S'2014'
p496
sg18
g35
sg20
S'--'
p497
sg22
S'10/05'
p498
sg24
S'18.0'
p499
sg26
S'--'
p500
sg28
S'--'
p501
sg30
S'W22-17'
p502
sg32
S'72'
p503
sg34
g172
sg36
S'KC'
p504
sg38
S'27'
p505
sg40
g41
sg42
S'--'
p506
ssg172
(dp507
g5
S'--'
p508
sg7
S'--'
p509
sg9
g10
sg11
S'--'
p510
sg13
g10
sg14
S'Anquan Boldin'
p511
sg16
S'2014'
p512
sg18
g172
sg20
S'--'
p513
sg22
S'09/28'
p514
sg24
S'12.4'
p515
sg26
S'--'
p516
sg28
S'--'
p517
sg30
S'W26-21'
p518
sg32
S'62'
p519
sg34
g35
sg36
S'PHI'
p520
sg38
S'23'
p521
sg40
g41
sg42
S'--'
p522
ssg241
(dp523
g5
S'--'
p524
sg7
S'--'
p525
sg9
g10
sg11
S'--'
p526
sg13
g10
sg14
S'Anquan Boldin'
p527
sg16
S'2014'
p528
sg18
g241
sg20
S'--'
p529
sg22
S'10/19'
p530
sg24
S'7.1'
p531
sg26
S'--'
p532
sg28
S'--'
p533
sg30
S'L17-42'
p534
sg32
S'50'
p535
sg34
g241
sg36
S'@DEN'
p536
sg38
S'18'
p537
sg40
g41
sg42
S'--'
p538
ssg206
(dp539
g5
S'--'
p540
sg7
S'--'
p541
sg9
g10
sg11
S'--'
p542
sg13
g10
sg14
S'Anquan Boldin'
p543
sg16
S'2014'
p544
sg18
g206
sg20
S'--'
p545
sg22
S'10/13'
p546
sg24
S'13.4'
p547
sg26
S'--'
p548
sg28
S'--'
p549
sg30
S'W31-17'
p550
sg32
S'94'
p551
sg34
g241
sg36
S'@STL'
p552
sg38
S'28'
p553
sg40
g10
sg42
S'--'
p554
ssg157
(dp555
g5
S'--'
p556
sg7
S'--'
p557
sg9
g10
sg11
S'--'
p558
sg13
g10
sg14
S'Anquan Boldin'
p559
sg16
S'2014'
p560
sg18
g157
sg20
S'--'
p561
sg22
S'11/02'
p562
sg24
S'15.5'
p563
sg26
S'--'
p564
sg28
S'--'
p565
sg30
S'L10-13'
p566
sg32
S'93'
p567
sg34
g206
sg36
S'STL'
p568
sg38
S'27T'
p569
sg40
g10
sg42
S'--'
p570
ssg84
(dp571
g5
g46
sg7
g46
sg9
g46
sg11
g46
sg13
g46
sg14
S'Anquan Boldin'
p572
sg16
S'2014'
p573
sg18
g84
sg20
g46
sg22
S'Bye'
p574
sg24
g46
sg26
g46
sg28
g46
sg30
g46
sg32
g46
sg34
g46
sg36
g46
sg38
g46
sg40
g46
sg42
g46
sssS'2011'
p575
(dp576
g3
(dp577
g5
S'--'
p578
sg7
S'--'
p579
sg9
g10
sg11
S'--'
p580
sg13
g10
sg14
S'Anquan Boldin'
p581
sg16
S'2011'
p582
sg18
S'11'
p583
sg20
S'--'
p584
sg22
S'11/20'
p585
sg24
S'35.0'
p586
sg26
S'--'
p587
sg28
S'--'
p588
sg30
S'W31-24'
p589
sg32
S'35'
p590
sg34
g10
sg36
S'CIN'
p591
sg38
S'35T'
p592
sg40
g10
sg42
S'--'
p593
ssg44
(dp594
g5
S'--'
p595
sg7
S'--'
p596
sg9
g10
sg11
S'--'
p597
sg13
g10
sg14
S'Anquan Boldin'
p598
sg16
S'2011'
p599
sg18
S'10'
p600
sg20
S'--'
p601
sg22
S'11/13'
p602
sg24
S'11.0'
p603
sg26
S'--'
p604
sg28
S'--'
p605
sg30
S'L17-22'
p606
sg32
S'22'
p607
sg34
g119
sg36
S'@SEA'
p608
sg38
S'17'
p609
sg40
g41
sg42
S'--'
p610
ssg51
(dp611
g5
S'--'
p612
sg7
S'--'
p613
sg9
g10
sg11
S'--'
p614
sg13
g10
sg14
S'Anquan Boldin'
p615
sg16
S'2011'
p616
sg18
S'13'
p617
sg20
S'--'
p618
sg22
S'12/04'
p619
sg24
S'16.0'
p620
sg26
S'--'
p621
sg28
S'--'
p622
sg30
S'W24-10'
p623
sg32
S'32'
p624
sg34
g119
sg36
S'@CLE'
p625
sg38
S'16'
p626
sg40
g41
sg42
S'--'
p627
ssg69
(dp628
g5
S'--'
p629
sg7
S'--'
p630
sg9
g10
sg11
S'--'
p631
sg13
g10
sg14
S'Anquan Boldin'
p632
sg16
S'2011'
p633
sg18
S'12'
p634
sg20
S'--'
p635
sg22
S'11/24'
p636
sg24
S'15.8'
p637
sg26
S'--'
p638
sg28
S'--'
p639
sg30
S'W16-6'
p640
sg32
S'63'
p641
sg34
g172
sg36
S'SF'
p642
sg38
S'22'
p643
sg40
g41
sg42
S'--'
p644
ssg88
(dp645
g5
S'--'
p646
sg7
S'--'
p647
sg9
g10
sg11
S'--'
p648
sg13
g10
sg14
S'Anquan Boldin'
p649
sg16
S'2011'
p650
sg18
S'15'
p651
sg20
S'--'
p652
sg22
S'12/18'
p653
sg24
S'25.5'
p654
sg26
S'--'
p655
sg28
S'--'
p656
sg30
S'L14-34'
p657
sg32
S'51'
p658
sg34
g119
sg36
S'@SD'
p659
sg38
S'33'
p660
sg40
g41
sg42
S'--'
p661
ssg104
(dp662
g5
S'--'
p663
sg7
S'--'
p664
sg9
g10
sg11
S'--'
p665
sg13
g10
sg14
S'Anquan Boldin'
p666
sg16
S'2011'
p667
sg18
S'14'
p668
sg20
S'--'
p669
sg22
S'12/11'
p670
sg24
S'11.4'
p671
sg26
S'--'
p672
sg28
S'--'
p673
sg30
S'W24-10'
p674
sg32
S'57'
p675
sg34
g35
sg36
S'IND'
p676
sg38
S'26'
p677
sg40
g41
sg42
S'--'
p678
ssg123
(dp679
g5
S'--'
p680
sg7
S'--'
p681
sg9
g41
sg11
S'--'
p682
sg13
g41
sg14
S'Anquan Boldin'
p683
sg16
S'2011'
p684
sg18
S'17'
p685
sg20
S'--'
p686
sg22
S'01/01'
p687
sg24
S'--'
p688
sg26
S'--'
p689
sg28
S'--'
p690
sg30
S'W24-16'
p691
sg32
S'--'
p692
sg34
S'--'
p693
sg36
S'@CIN'
p694
sg38
S'--'
p695
sg40
S'--'
p696
sg42
S'--'
p697
ssg141
(dp698
g5
S'--'
p699
sg7
S'--'
p700
sg9
g41
sg11
S'--'
p701
sg13
g41
sg14
S'Anquan Boldin'
p702
sg16
S'2011'
p703
sg18
S'16'
p704
sg20
S'--'
p705
sg22
S'12/24'
p706
sg24
S'--'
p707
sg26
S'--'
p708
sg28
S'--'
p709
sg30
S'W20-14'
p710
sg32
S'--'
p711
sg34
S'--'
p712
sg36
S'CLE'
p713
sg38
S'--'
p714
sg40
S'--'
p715
sg42
S'--'
p716
ssg10
(dp717
g5
S'--'
p718
sg7
S'--'
p719
sg9
g10
sg11
S'--'
p720
sg13
g10
sg14
S'Anquan Boldin'
p721
sg16
S'2011'
p722
sg18
g10
sg20
S'--'
p723
sg22
S'09/11'
p724
sg24
S'18.5'
p725
sg26
S'--'
p726
sg28
S'--'
p727
sg30
S'W35-7'
p728
sg32
S'74'
p729
sg34
g172
sg36
S'PIT'
p730
sg38
S'27T'
p731
sg40
g10
sg42
S'--'
p732
ssg176
(dp733
g5
S'--'
p734
sg7
S'--'
p735
sg9
g10
sg11
S'--'
p736
sg13
g10
sg14
S'Anquan Boldin'
p737
sg16
S'2011'
p738
sg18
g176
sg20
S'--'
p739
sg22
S'09/25'
p740
sg24
S'10.6'
p741
sg26
S'--'
p742
sg28
S'--'
p743
sg30
S'W37-7'
p744
sg32
S'74'
p745
sg34
g241
sg36
S'@STL'
p746
sg38
S'21'
p747
sg40
g41
sg42
S'--'
p748
ssg119
(dp749
g5
S'--'
p750
sg7
S'--'
p751
sg9
g10
sg11
S'--'
p752
sg13
g10
sg14
S'Anquan Boldin'
p753
sg16
S'2011'
p754
sg18
g119
sg20
S'--'
p755
sg22
S'09/18'
p756
sg24
S'15.3'
p757
sg26
S'--'
p758
sg28
S'--'
p759
sg30
S'L13-26'
p760
sg32
S'46'
p761
sg34
g176
sg36
S'@TEN'
p762
sg38
S'20'
p763
sg40
g41
sg42
S'--'
p764
ssg35
(dp765
g5
g46
sg7
g46
sg9
g46
sg11
g46
sg13
g46
sg14
S'Anquan Boldin'
p766
sg16
S'2011'
p767
sg18
g35
sg20
g46
sg22
S'Bye'
p768
sg24
g46
sg26
g46
sg28
g46
sg30
g46
sg32
g46
sg34
g46
sg36
g46
sg38
g46
sg40
g46
sg42
g46
ssg172
(dp769
g5
S'--'
p770
sg7
S'--'
p771
sg9
g10
sg11
S'--'
p772
sg13
g10
sg14
S'Anquan Boldin'
p773
sg16
S'2011'
p774
sg18
g172
sg20
S'--'
p775
sg22
S'10/02'
p776
sg24
S'28.0'
p777
sg26
S'--'
p778
sg28
S'--'
p779
sg30
S'W34-17'
p780
sg32
S'28'
p781
sg34
g10
sg36
S'NYJ'
p782
sg38
S'28'
p783
sg40
g41
sg42
S'--'
p784
ssg241
(dp785
g5
S'--'
p786
sg7
S'--'
p787
sg9
g10
sg11
S'--'
p788
sg13
g10
sg14
S'Anquan Boldin'
p789
sg16
S'2011'
p790
sg18
g241
sg20
S'--'
p791
sg22
S'10/24'
p792
sg24
S'10.0'
p793
sg26
S'--'
p794
sg28
S'--'
p795
sg30
S'L7-12'
p796
sg32
S'40'
p797
sg34
g172
sg36
S'@JAC'
p798
sg38
S'14'
p799
sg40
g10
sg42
S'--'
p800
ssg206
(dp801
g5
S'--'
p802
sg7
S'--'
p803
sg9
g10
sg11
S'--'
p804
sg13
g10
sg14
S'Anquan Boldin'
p805
sg16
S'2011'
p806
sg18
g206
sg20
S'--'
p807
sg22
S'10/16'
p808
sg24
S'16.5'
p809
sg26
S'--'
p810
sg28
S'--'
p811
sg30
S'W29-14'
p812
sg32
S'132'
p813
sg34
g84
sg36
S'HOU'
p814
sg38
S'56'
p815
sg40
g41
sg42
S'--'
p816
ssg157
(dp817
g5
S'--'
p818
sg7
S'--'
p819
sg9
g10
sg11
S'--'
p820
sg13
g10
sg14
S'Anquan Boldin'
p821
sg16
S'2011'
p822
sg18
g157
sg20
S'--'
p823
sg22
S'11/06'
p824
sg24
S'12.6'
p825
sg26
S'--'
p826
sg28
S'--'
p827
sg30
S'W23-20'
p828
sg32
S'88'
p829
sg34
g241
sg36
S'@PIT'
p830
sg38
S'21'
p831
sg40
g41
sg42
S'--'
p832
ssg84
(dp833
g5
S'--'
p834
sg7
S'--'
p835
sg9
g10
sg11
S'--'
p836
sg13
g10
sg14
S'Anquan Boldin'
p837
sg16
S'2011'
p838
sg18
g84
sg20
S'--'
p839
sg22
S'10/30'
p840
sg24
S'20.7'
p841
sg26
S'--'
p842
sg28
S'--'
p843
sg30
S'W30-27'
p844
sg32
S'145'
p845
sg34
g241
sg36
S'ARI'
p846
sg38
S'37'
p847
sg40
g41
sg42
S'--'
p848
sssS'2010'
p849
(dp850
g3
(dp851
g5
S'--'
p852
sg7
S'--'
p853
sg9
g10
sg11
g10
sg13
g10
sg14
S'Anquan Boldin'
p854
sg16
S'2010'
p855
sg18
S'11'
p856
sg20
S'--'
p857
sg22
S'11/21'
p858
sg24
S'9.7'
p859
sg26
g10
sg28
S'--'
p860
sg30
S'W37-13'
p861
sg32
S'29'
p862
sg34
g176
sg36
S'@CAR'
p863
sg38
S'16'
p864
sg40
g41
sg42
S'--'
p865
ssg44
(dp866
g5
S'--'
p867
sg7
S'--'
p868
sg9
g10
sg11
S'--'
p869
sg13
g10
sg14
S'Anquan Boldin'
p870
sg16
S'2010'
p871
sg18
S'10'
p872
sg20
S'--'
p873
sg22
S'11/11'
p874
sg24
S'10.0'
p875
sg26
S'--'
p876
sg28
S'--'
p877
sg30
S'L21-26'
p878
sg32
S'50'
p879
sg34
g35
sg36
S'@ATL'
p880
sg38
S'16'
p881
sg40
g10
sg42
S'--'
p882
ssg51
(dp883
g5
S'--'
p884
sg7
S'--'
p885
sg9
g10
sg11
S'--'
p886
sg13
g10
sg14
S'Anquan Boldin'
p887
sg16
S'2010'
p888
sg18
S'13'
p889
sg20
S'--'
p890
sg22
S'12/05'
p891
sg24
S'23.6'
p892
sg26
S'--'
p893
sg28
S'--'
p894
sg30
S'L10-13'
p895
sg32
S'118'
p896
sg34
g35
sg36
S'PIT'
p897
sg38
S'61'
p898
sg40
g10
sg42
S'--'
p899
ssg69
(dp900
g5
S'--'
p901
sg7
S'--'
p902
sg9
g10
sg11
S'--'
p903
sg13
g10
sg14
S'Anquan Boldin'
p904
sg16
S'2010'
p905
sg18
S'12'
p906
sg20
S'--'
p907
sg22
S'11/28'
p908
sg24
S'9.0'
p909
sg26
S'--'
p910
sg28
S'--'
p911
sg30
S'W17-10'
p912
sg32
S'27'
p913
sg34
g176
sg36
S'TB'
p914
sg38
S'22'
p915
sg40
g41
sg42
S'--'
p916
ssg88
(dp917
g5
S'--'
p918
sg7
S'--'
p919
sg9
g10
sg11
S'--'
p920
sg13
g10
sg14
S'Anquan Boldin'
p921
sg16
S'2010'
p922
sg18
S'15'
p923
sg20
S'--'
p924
sg22
S'12/19'
p925
sg24
S'2.0'
p926
sg26
S'--'
p927
sg28
S'--'
p928
sg30
S'W30-24'
p929
sg32
g119
sg34
g10
sg36
S'NO'
p930
sg38
g119
sg40
g41
sg42
S'--'
p931
ssg104
(dp932
g5
S'--'
p933
sg7
S'--'
p934
sg9
g10
sg11
S'--'
p935
sg13
g10
sg14
S'Anquan Boldin'
p936
sg16
S'2010'
p937
sg18
S'14'
p938
sg20
S'--'
p939
sg22
S'12/13'
p940
sg24
S'13.7'
p941
sg26
S'--'
p942
sg28
S'--'
p943
sg30
S'W34-28'
p944
sg32
S'41'
p945
sg34
g176
sg36
S'@HOU'
p946
sg38
S'16'
p947
sg40
g41
sg42
S'--'
p948
ssg123
(dp949
g5
S'--'
p950
sg7
S'--'
p951
sg9
g10
sg11
S'--'
p952
sg13
g10
sg14
S'Anquan Boldin'
p953
sg16
S'2010'
p954
sg18
S'17'
p955
sg20
S'--'
p956
sg22
S'01/02'
p957
sg24
S'4.5'
p958
sg26
S'--'
p959
sg28
S'--'
p960
sg30
S'W13-7'
p961
sg32
g157
sg34
g119
sg36
S'CIN'
p962
sg38
g84
sg40
g41
sg42
S'--'
p963
ssg141
(dp964
g5
S'--'
p965
sg7
S'--'
p966
sg9
g10
sg11
S'--'
p967
sg13
g10
sg14
S'Anquan Boldin'
p968
sg16
S'2010'
p969
sg18
S'16'
p970
sg20
S'--'
p971
sg22
S'12/26'
p972
sg24
S'7.5'
p973
sg26
S'--'
p974
sg28
S'--'
p975
sg30
S'W20-10'
p976
sg32
S'15'
p977
sg34
g119
sg36
S'@CLE'
p978
sg38
g157
sg40
g41
sg42
S'--'
p979
ssg10
(dp980
g5
S'--'
p981
sg7
S'--'
p982
sg9
g10
sg11
S'--'
p983
sg13
g10
sg14
S'Anquan Boldin'
p984
sg16
S'2010'
p985
sg18
g10
sg20
S'--'
p986
sg22
S'09/13'
p987
sg24
S'15.7'
p988
sg26
S'--'
p989
sg28
S'--'
p990
sg30
S'W10-9'
p991
sg32
S'110'
p992
sg34
g241
sg36
S'@NYJ'
p993
sg38
S'38'
p994
sg40
g41
sg42
S'--'
p995
ssg176
(dp996
g5
S'--'
p997
sg7
S'--'
p998
sg9
g10
sg11
S'--'
p999
sg13
g10
sg14
S'Anquan Boldin'
p1000
sg16
S'2010'
p1001
sg18
g176
sg20
S'--'
p1002
sg22
S'09/26'
p1003
sg24
S'17.8'
p1004
sg26
S'--'
p1005
sg28
S'--'
p1006
sg30
S'W24-17'
p1007
sg32
S'142'
p1008
sg34
g84
sg36
S'CLE'
p1009
sg38
S'34'
p1010
sg40
g176
sg42
S'--'
p1011
ssg119
(dp1012
g5
S'--'
p1013
sg7
S'--'
p1014
sg9
g10
sg11
S'--'
p1015
sg13
g10
sg14
S'Anquan Boldin'
p1016
sg16
S'2010'
p1017
sg18
g119
sg20
S'--'
p1018
sg22
S'09/19'
p1019
sg24
S'7.0'
p1020
sg26
S'--'
p1021
sg28
S'--'
p1022
sg30
S'L10-15'
p1023
sg32
S'35'
p1024
sg34
g35
sg36
S'@CIN'
p1025
sg38
S'13'
p1026
sg40
g41
sg42
S'--'
p1027
ssg35
(dp1028
g5
S'--'
p1029
sg7
S'--'
p1030
sg9
g10
sg11
S'--'
p1031
sg13
g10
sg14
S'Anquan Boldin'
p1032
sg16
S'2010'
p1033
sg18
g35
sg20
S'--'
p1034
sg22
S'10/10'
p1035
sg24
S'8.0'
p1036
sg26
S'--'
p1037
sg28
S'--'
p1038
sg30
S'W31-17'
p1039
sg32
g84
sg34
g10
sg36
S'DEN'
p1040
sg38
g84
sg40
g41
sg42
S'--'
p1041
ssg172
(dp1042
g5
g41
sg7
g176
sg9
g10
sg11
S'--'
p1043
sg13
g10
sg14
S'Anquan Boldin'
p1044
sg16
S'2010'
p1045
sg18
g172
sg20
S'3.0'
p1046
sg22
S'10/03'
p1047
sg24
S'9.7'
p1048
sg26
S'--'
p1049
sg28
g10
sg30
S'W17-14'
p1050
sg32
S'68'
p1051
sg34
g241
sg36
S'@PIT'
p1052
sg38
S'18'
p1053
sg40
g41
sg42
g176
ssg241
(dp1054
g5
S'--'
p1055
sg7
S'--'
p1056
sg9
g10
sg11
S'--'
p1057
sg13
g10
sg14
S'Anquan Boldin'
p1058
sg16
S'2010'
p1059
sg18
g241
sg20
S'--'
p1060
sg22
S'10/24'
p1061
sg24
S'15.3'
p1062
sg26
S'--'
p1063
sg28
S'--'
p1064
sg30
S'W37-34'
p1065
sg32
S'92'
p1066
sg34
g206
sg36
S'BUF'
p1067
sg38
S'34T'
p1068
sg40
g10
sg42
S'--'
p1069
ssg206
(dp1070
g5
g41
sg7
S'-1'
p1071
sg9
g10
sg11
S'--'
p1072
sg13
g10
sg14
S'Anquan Boldin'
p1073
sg16
S'2010'
p1074
sg18
g206
sg20
S'-1.0'
p1075
sg22
S'10/17'
p1076
sg24
S'15.8'
p1077
sg26
S'--'
p1078
sg28
g10
sg30
S'L20-23'
p1079
sg32
S'63'
p1080
sg34
g172
sg36
S'@NE'
p1081
sg38
S'25T'
p1082
sg40
g10
sg42
S'-1'
p1083
ssg157
(dp1084
g5
S'--'
p1085
sg7
S'--'
p1086
sg9
g10
sg11
S'--'
p1087
sg13
g10
sg14
S'Anquan Boldin'
p1088
sg16
S'2010'
p1089
sg18
g157
sg20
S'--'
p1090
sg22
S'11/07'
p1091
sg24
S'14.0'
p1092
sg26
S'--'
p1093
sg28
S'--'
p1094
sg30
S'W26-10'
p1095
sg32
S'28'
p1096
sg34
g119
sg36
S'MIA'
p1097
sg38
S'20'
p1098
sg40
g41
sg42
S'--'
p1099
ssg84
(dp1100
g5
g46
sg7
g46
sg9
g46
sg11
g46
sg13
g46
sg14
S'Anquan Boldin'
p1101
sg16
S'2010'
p1102
sg18
g84
sg20
g46
sg22
S'Bye'
p1103
sg24
g46
sg26
g46
sg28
g46
sg30
g46
sg32
g46
sg34
g46
sg36
g46
sg38
g46
sg40
g46
sg42
g46
sssS'2013'
p1104
(dp1105
g3
(dp1106
g5
S'--'
p1107
sg7
S'--'
p1108
sg9
g10
sg11
S'--'
p1109
sg13
g10
sg14
S'Anquan Boldin'
p1110
sg16
S'2013'
p1111
sg18
S'11'
p1112
sg20
S'--'
p1113
sg22
S'11/17'
p1114
sg24
S'9.3'
p1115
sg26
S'--'
p1116
sg28
S'--'
p1117
sg30
S'L20-23'
p1118
sg32
S'56'
p1119
sg34
g206
sg36
S'@NO'
p1120
sg38
S'14'
p1121
sg40
g10
sg42
S'--'
p1122
ssg44
(dp1123
g5
S'--'
p1124
sg7
S'--'
p1125
sg9
g10
sg11
S'--'
p1126
sg13
g10
sg14
S'Anquan Boldin'
p1127
sg16
S'2013'
p1128
sg18
S'10'
p1129
sg20
S'--'
p1130
sg22
S'11/10'
p1131
sg24
S'7.7'
p1132
sg26
S'--'
p1133
sg28
S'--'
p1134
sg30
S'L9-10'
p1135
sg32
S'23'
p1136
sg34
g176
sg36
S'CAR'
p1137
sg38
g157
sg40
g41
sg42
S'--'
p1138
ssg51
(dp1139
g5
S'--'
p1140
sg7
S'--'
p1141
sg9
g10
sg11
S'--'
p1142
sg13
g10
sg14
S'Anquan Boldin'
p1143
sg16
S'2013'
p1144
sg18
S'13'
p1145
sg20
S'--'
p1146
sg22
S'12/01'
p1147
sg24
S'10.9'
p1148
sg26
S'--'
p1149
sg28
S'--'
p1150
sg30
S'W23-13'
p1151
sg32
S'98'
p1152
sg34
g157
sg36
S'STL'
p1153
sg38
S'21'
p1154
sg40
g41
sg42
S'--'
p1155
ssg69
(dp1156
g5
S'--'
p1157
sg7
S'--'
p1158
sg9
g10
sg11
S'--'
p1159
sg13
g10
sg14
S'Anquan Boldin'
p1160
sg16
S'2013'
p1161
sg18
S'12'
p1162
sg20
S'--'
p1163
sg22
S'11/25'
p1164
sg24
S'18.8'
p1165
sg26
S'--'
p1166
sg28
S'--'
p1167
sg30
S'W27-6'
p1168
sg32
S'94'
p1169
sg34
g35
sg36
S'@WAS'
p1170
sg38
S'32'
p1171
sg40
g119
sg42
S'--'
p1172
ssg88
(dp1173
g5
g41
sg7
g41
sg9
g10
sg11
S'--'
p1174
sg13
g10
sg14
S'Anquan Boldin'
p1175
sg16
S'2013'
p1176
sg18
S'15'
p1177
sg20
S'0.0'
p1178
sg22
S'12/15'
p1179
sg24
S'14.3'
p1180
sg26
S'--'
p1181
sg28
g10
sg30
S'W33-14'
p1182
sg32
S'43'
p1183
sg34
g176
sg36
S'@TB'
p1184
sg38
S'25'
p1185
sg40
g41
sg42
g41
ssg104
(dp1186
g5
S'--'
p1187
sg7
S'--'
p1188
sg9
g10
sg11
S'--'
p1189
sg13
g10
sg14
S'Anquan Boldin'
p1190
sg16
S'2013'
p1191
sg18
S'14'
p1192
sg20
S'--'
p1193
sg22
S'12/08'
p1194
sg24
S'15.5'
p1195
sg26
S'--'
p1196
sg28
S'--'
p1197
sg30
S'W19-17'
p1198
sg32
S'93'
p1199
sg34
g206
sg36
S'SEA'
p1200
sg38
S'27'
p1201
sg40
g41
sg42
S'--'
p1202
ssg123
(dp1203
g5
g41
sg7
S'11'
p1204
sg9
g10
sg11
S'--'
p1205
sg13
g10
sg14
S'Anquan Boldin'
p1206
sg16
S'2013'
p1207
sg18
S'17'
p1208
sg20
S'11.0'
p1209
sg22
S'12/29'
p1210
sg24
S'16.6'
p1211
sg26
S'--'
p1212
sg28
g10
sg30
S'W23-20'
p1213
sg32
S'149'
p1214
sg34
g157
sg36
S'@ARI'
p1215
sg38
S'63'
p1216
sg40
g10
sg42
S'11'
p1217
ssg141
(dp1218
g5
S'--'
p1219
sg7
S'--'
p1220
sg9
g10
sg11
S'--'
p1221
sg13
g10
sg14
S'Anquan Boldin'
p1222
sg16
S'2013'
p1223
sg18
S'16'
p1224
sg20
S'--'
p1225
sg22
S'12/23'
p1226
sg24
S'12.0'
p1227
sg26
S'--'
p1228
sg28
S'--'
p1229
sg30
S'W34-24'
p1230
sg32
S'72'
p1231
sg34
g206
sg36
S'ATL'
p1232
sg38
S'22'
p1233
sg40
g10
sg42
S'--'
p1234
ssg10
(dp1235
g5
S'--'
p1236
sg7
S'--'
p1237
sg9
g10
sg11
S'--'
p1238
sg13
g10
sg14
S'Anquan Boldin'
p1239
sg16
S'2013'
p1240
sg18
g10
sg20
S'--'
p1241
sg22
S'09/08'
p1242
sg24
S'16.0'
p1243
sg26
S'--'
p1244
sg28
S'--'
p1245
sg30
S'W34-28'
p1246
sg32
S'208'
p1247
sg34
S'13'
p1248
sg36
S'GB'
p1249
sg38
S'43'
p1250
sg40
g10
sg42
S'--'
p1251
ssg176
(dp1252
g5
S'--'
p1253
sg7
S'--'
p1254
sg9
g10
sg11
S'--'
p1255
sg13
g10
sg14
S'Anquan Boldin'
p1256
sg16
S'2013'
p1257
sg18
g176
sg20
S'--'
p1258
sg22
S'09/22'
p1259
sg24
S'13.4'
p1260
sg26
S'--'
p1261
sg28
S'--'
p1262
sg30
S'L7-27'
p1263
sg32
S'67'
p1264
sg34
g35
sg36
S'IND'
p1265
sg38
S'24'
p1266
sg40
g41
sg42
S'--'
p1267
ssg119
(dp1268
g5
S'--'
p1269
sg7
S'--'
p1270
sg9
g10
sg11
S'--'
p1271
sg13
g10
sg14
S'Anquan Boldin'
p1272
sg16
S'2013'
p1273
sg18
g119
sg20
S'--'
p1274
sg22
S'09/15'
p1275
sg24
S'7.0'
p1276
sg26
S'--'
p1277
sg28
S'--'
p1278
sg30
S'L3-29'
p1279
sg32
g241
sg34
g10
sg36
S'@SEA'
p1280
sg38
g241
sg40
g41
sg42
S'--'
p1281
ssg35
(dp1282
g5
S'--'
p1283
sg7
S'--'
p1284
sg9
g10
sg11
S'--'
p1285
sg13
g10
sg14
S'Anquan Boldin'
p1286
sg16
S'2013'
p1287
sg18
g35
sg20
S'--'
p1288
sg22
S'10/06'
p1289
sg24
S'10.5'
p1290
sg26
S'--'
p1291
sg28
S'--'
p1292
sg30
S'W34-3'
p1293
sg32
S'21'
p1294
sg34
g119
sg36
S'HOU'
p1295
sg38
S'12'
p1296
sg40
g41
sg42
S'--'
p1297
ssg172
(dp1298
g5
S'--'
p1299
sg7
S'--'
p1300
sg9
g10
sg11
S'--'
p1301
sg13
g10
sg14
S'Anquan Boldin'
p1302
sg16
S'2013'
p1303
sg18
g172
sg20
S'--'
p1304
sg22
S'09/26'
p1305
sg24
S'18.0'
p1306
sg26
S'--'
p1307
sg28
S'--'
p1308
sg30
S'W35-11'
p1309
sg32
S'90'
p1310
sg34
g35
sg36
S'@STL'
p1311
sg38
S'42'
p1312
sg40
g10
sg42
S'--'
p1313
ssg241
(dp1314
g5
S'--'
p1315
sg7
S'--'
p1316
sg9
g10
sg11
S'--'
p1317
sg13
g10
sg14
S'Anquan Boldin'
p1318
sg16
S'2013'
p1319
sg18
g241
sg20
S'--'
p1320
sg22
S'10/20'
p1321
sg24
S'14.8'
p1322
sg26
S'--'
p1323
sg28
S'--'
p1324
sg30
S'W31-17'
p1325
sg32
S'74'
p1326
sg34
g35
sg36
S'@TEN'
p1327
sg38
S'25'
p1328
sg40
g41
sg42
S'--'
p1329
ssg206
(dp1330
g5
S'--'
p1331
sg7
S'--'
p1332
sg9
g10
sg11
S'--'
p1333
sg13
g10
sg14
S'Anquan Boldin'
p1334
sg16
S'2013'
p1335
sg18
g206
sg20
S'--'
p1336
sg22
S'10/13'
p1337
sg24
S'9.3'
p1338
sg26
S'--'
p1339
sg28
S'--'
p1340
sg30
S'W32-20'
p1341
sg32
S'28'
p1342
sg34
g176
sg36
S'ARI'
p1343
sg38
S'15'
p1344
sg40
g41
sg42
S'--'
p1345
ssg157
(dp1346
g5
g46
sg7
g46
sg9
g46
sg11
g46
sg13
g46
sg14
S'Anquan Boldin'
p1347
sg16
S'2013'
p1348
sg18
g157
sg20
g46
sg22
S'Bye'
p1349
sg24
g46
sg26
g46
sg28
g46
sg30
g46
sg32
g46
sg34
g46
sg36
g46
sg38
g46
sg40
g46
sg42
g46
ssg84
(dp1350
g5
S'--'
p1351
sg7
S'--'
p1352
sg9
g10
sg11
S'--'
p1353
sg13
g10
sg14
S'Anquan Boldin'
p1354
sg16
S'2013'
p1355
sg18
g84
sg20
S'--'
p1356
sg22
S'10/27'
p1357
sg24
S'14.0'
p1358
sg26
S'--'
p1359
sg28
S'--'
p1360
sg30
S'W42-10'
p1361
sg32
S'56'
p1362
sg34
g172
sg36
S'@JAC'
p1363
sg38
S'21'
p1364
sg40
g41
sg42
S'--'
p1365
sssS'2012'
p1366
(dp1367
g3
(dp1368
g5
S'--'
p1369
sg7
S'--'
p1370
sg9
g10
sg11
S'--'
p1371
sg13
g10
sg14
S'Anquan Boldin'
p1372
sg16
S'2012'
p1373
sg18
S'11'
p1374
sg20
S'--'
p1375
sg22
S'11/18'
p1376
sg24
S'9.9'
p1377
sg26
S'--'
p1378
sg28
S'--'
p1379
sg30
S'W13-10'
p1380
sg32
S'79'
p1381
sg34
g84
sg36
S'@PIT'
p1382
sg38
S'23'
p1383
sg40
g41
sg42
S'--'
p1384
ssg44
(dp1385
g5
S'--'
p1386
sg7
S'--'
p1387
sg9
g10
sg11
S'--'
p1388
sg13
g10
sg14
S'Anquan Boldin'
p1389
sg16
S'2012'
p1390
sg18
S'10'
p1391
sg20
S'--'
p1392
sg22
S'11/11'
p1393
sg24
S'9.5'
p1394
sg26
S'--'
p1395
sg28
S'--'
p1396
sg30
S'W55-20'
p1397
sg32
S'38'
p1398
sg34
g172
sg36
S'OAK'
p1399
sg38
S'19'
p1400
sg40
g41
sg42
S'--'
p1401
ssg51
(dp1402
g5
S'--'
p1403
sg7
S'--'
p1404
sg9
g10
sg11
S'--'
p1405
sg13
g10
sg14
S'Anquan Boldin'
p1406
sg16
S'2012'
p1407
sg18
S'13'
p1408
sg20
S'--'
p1409
sg22
S'12/02'
p1410
sg24
S'16.2'
p1411
sg26
S'--'
p1412
sg28
S'--'
p1413
sg30
S'L20-23'
p1414
sg32
S'81'
p1415
sg34
g35
sg36
S'PIT'
p1416
sg38
S'31'
p1417
sg40
g10
sg42
S'--'
p1418
ssg69
(dp1419
g5
S'--'
p1420
sg7
S'--'
p1421
sg9
g10
sg11
S'--'
p1422
sg13
g10
sg14
S'Anquan Boldin'
p1423
sg16
S'2012'
p1424
sg18
S'12'
p1425
sg20
S'--'
p1426
sg22
S'11/25'
p1427
sg24
S'21.0'
p1428
sg26
S'--'
p1429
sg28
S'--'
p1430
sg30
S'W16-13'
p1431
sg32
S'42'
p1432
sg34
g119
sg36
S'@SD'
p1433
sg38
S'23'
p1434
sg40
g41
sg42
S'--'
p1435
ssg88
(dp1436
g5
S'--'
p1437
sg7
S'--'
p1438
sg9
g10
sg11
S'--'
p1439
sg13
g10
sg14
S'Anquan Boldin'
p1440
sg16
S'2012'
p1441
sg18
S'15'
p1442
sg20
S'--'
p1443
sg22
S'12/16'
p1444
sg24
S'--'
p1445
sg26
S'--'
p1446
sg28
S'--'
p1447
sg30
S'L17-34'
p1448
sg32
g41
sg34
g41
sg36
S'DEN'
p1449
sg38
S'--'
p1450
sg40
g41
sg42
S'--'
p1451
ssg104
(dp1452
g5
S'--'
p1453
sg7
S'--'
p1454
sg9
g10
sg11
S'--'
p1455
sg13
g10
sg14
S'Anquan Boldin'
p1456
sg16
S'2012'
p1457
sg18
S'14'
p1458
sg20
S'--'
p1459
sg22
S'12/09'
p1460
sg24
S'26.0'
p1461
sg26
S'--'
p1462
sg28
S'--'
p1463
sg30
S'L28-31'
p1464
sg32
S'78'
p1465
sg34
g176
sg36
S'@WAS'
p1466
sg38
S'31T'
p1467
sg40
g119
sg42
S'--'
p1468
ssg123
(dp1469
g5
S'--'
p1470
sg7
S'--'
p1471
sg9
g41
sg11
S'--'
p1472
sg13
g41
sg14
S'Anquan Boldin'
p1473
sg16
S'2012'
p1474
sg18
S'17'
p1475
sg20
S'--'
p1476
sg22
S'12/30'
p1477
sg24
S'--'
p1478
sg26
S'--'
p1479
sg28
S'--'
p1480
sg30
S'L17-23'
p1481
sg32
S'--'
p1482
sg34
S'--'
p1483
sg36
S'@CIN'
p1484
sg38
S'--'
p1485
sg40
S'--'
p1486
sg42
S'--'
p1487
ssg141
(dp1488
g5
S'--'
p1489
sg7
S'--'
p1490
sg9
g10
sg11
S'--'
p1491
sg13
g10
sg14
S'Anquan Boldin'
p1492
sg16
S'2012'
p1493
sg18
S'16'
p1494
sg20
S'--'
p1495
sg22
S'12/23'
p1496
sg24
S'13.3'
p1497
sg26
S'--'
p1498
sg28
S'--'
p1499
sg30
S'W33-14'
p1500
sg32
S'93'
p1501
sg34
g241
sg36
S'NYG'
p1502
sg38
S'39'
p1503
sg40
g41
sg42
S'--'
p1504
ssg10
(dp1505
g5
g41
sg7
g176
sg9
g10
sg11
S'--'
p1506
sg13
g10
sg14
S'Anquan Boldin'
p1507
sg16
S'2012'
p1508
sg18
g10
sg20
S'3.0'
p1509
sg22
S'09/10'
p1510
sg24
S'15.8'
p1511
sg26
S'--'
p1512
sg28
g10
sg30
S'W44-13'
p1513
sg32
S'63'
p1514
sg34
g172
sg36
S'CIN'
p1515
sg38
S'34T'
p1516
sg40
g10
sg42
g176
ssg176
(dp1517
g5
S'--'
p1518
sg7
S'--'
p1519
sg9
g10
sg11
S'--'
p1520
sg13
g10
sg14
S'Anquan Boldin'
p1521
sg16
S'2012'
p1522
sg18
g176
sg20
S'--'
p1523
sg22
S'09/23'
p1524
sg24
S'12.0'
p1525
sg26
S'--'
p1526
sg28
S'--'
p1527
sg30
S'W31-30'
p1528
sg32
S'48'
p1529
sg34
g172
sg36
S'NE'
p1530
sg38
S'24'
p1531
sg40
g41
sg42
S'--'
p1532
ssg119
(dp1533
g5
S'--'
p1534
sg7
S'--'
p1535
sg9
g10
sg11
S'--'
p1536
sg13
g10
sg14
S'Anquan Boldin'
p1537
sg16
S'2012'
p1538
sg18
g119
sg20
S'--'
p1539
sg22
S'09/16'
p1540
sg24
S'3.5'
p1541
sg26
S'--'
p1542
sg28
S'--'
p1543
sg30
S'L23-24'
p1544
sg32
g241
sg34
g119
sg36
S'@PHI'
p1545
sg38
g241
sg40
g41
sg42
S'--'
p1546
ssg35
(dp1547
g5
S'--'
p1548
sg7
S'--'
p1549
sg9
g10
sg11
S'--'
p1550
sg13
g10
sg14
S'Anquan Boldin'
p1551
sg16
S'2012'
p1552
sg18
g35
sg20
S'--'
p1553
sg22
S'10/07'
p1554
sg24
S'20.5'
p1555
sg26
S'--'
p1556
sg28
S'--'
p1557
sg30
S'W9-6'
p1558
sg32
S'82'
p1559
sg34
g172
sg36
S'@KC'
p1560
sg38
S'43'
p1561
sg40
g41
sg42
S'--'
p1562
ssg172
(dp1563
g5
S'--'
p1564
sg7
S'--'
p1565
sg9
g10
sg11
S'--'
p1566
sg13
g10
sg14
S'Anquan Boldin'
p1567
sg16
S'2012'
p1568
sg18
g172
sg20
S'--'
p1569
sg22
S'09/27'
p1570
sg24
S'14.6'
p1571
sg26
S'--'
p1572
sg28
S'--'
p1573
sg30
S'W23-16'
p1574
sg32
S'131'
p1575
sg34
g157
sg36
S'CLE'
p1576
sg38
S'28'
p1577
sg40
g41
sg42
S'--'
p1578
ssg241
(dp1579
g5
S'--'
p1580
sg7
S'--'
p1581
sg9
g10
sg11
S'--'
p1582
sg13
g10
sg14
S'Anquan Boldin'
p1583
sg16
S'2012'
p1584
sg18
g241
sg20
S'--'
p1585
sg22
S'10/21'
p1586
sg24
S'8.0'
p1587
sg26
S'--'
p1588
sg28
S'--'
p1589
sg30
S'L13-43'
p1590
sg32
S'24'
p1591
sg34
g176
sg36
S'@HOU'
p1592
sg38
S'10'
p1593
sg40
g41
sg42
S'--'
p1594
ssg206
(dp1595
g5
S'--'
p1596
sg7
S'--'
p1597
sg9
g10
sg11
S'--'
p1598
sg13
g10
sg14
S'Anquan Boldin'
p1599
sg16
S'2012'
p1600
sg18
g206
sg20
S'--'
p1601
sg22
S'10/14'
p1602
sg24
S'19.6'
p1603
sg26
S'--'
p1604
sg28
S'--'
p1605
sg30
S'W31-29'
p1606
sg32
S'98'
p1607
sg34
g35
sg36
S'DAL'
p1608
sg38
S'31'
p1609
sg40
g41
sg42
S'--'
p1610
ssg157
(dp1611
g5
S'--'
p1612
sg7
S'--'
p1613
sg9
g10
sg11
S'--'
p1614
sg13
g10
sg14
S'Anquan Boldin'
p1615
sg16
S'2012'
p1616
sg18
g157
sg20
S'--'
p1617
sg22
S'11/04'
p1618
sg24
S'11.4'
p1619
sg26
S'--'
p1620
sg28
S'--'
p1621
sg30
S'W25-15'
p1622
sg32
S'57'
p1623
sg34
g35
sg36
S'@CLE'
p1624
sg38
S'21'
p1625
sg40
g41
sg42
S'--'
p1626
ssg84
(dp1627
g5
g46
sg7
g46
sg9
g46
sg11
g46
sg13
g46
sg14
S'Anquan Boldin'
p1628
sg16
S'2012'
p1629
sg18
g84
sg20
g46
sg22
S'Bye'
p1630
sg24
g46
sg26
g46
sg28
g46
sg30
g46
sg32
g46
sg34
g46
sg36
g46
sg38
g46
sg40
g46
sg42
g46
sss.