(dp0
S'2011'
p1
(dp2
S'11'
p3
(dp4
S'RushTD'
p5
S'0'
p6
sS'RushYds'
p7
S'9'
p8
sS'GS'
p9
S'1'
p10
sS'Lost'
p11
S'--'
p12
sS'G'
p13
g10
sS'Player'
p14
S'Arrelious Benn'
p15
sS'Year'
p16
S'2011'
p17
sS'WK'
p18
S'11'
p19
sS'RushAvg'
p20
S'9.0'
p21
sS'Game Date'
p22
S'11/20'
p23
sS'RecAvg'
p24
S'15.0'
p25
sS'FUM'
p26
S'--'
p27
sS'RushAtt'
p28
g10
sS'Result'
p29
S'L26-35'
p30
sS'RecYds'
p31
S'75'
p32
sS'Rec'
p33
S'5'
p34
sS'Opp'
p35
S'@GB'
p36
sS'RecLng'
p37
S'37'
p38
sS'RecTD'
p39
g6
sS'RushLng'
p40
g8
ssS'10'
p41
(dp42
g5
S'--'
p43
sg7
S'--'
p44
sg9
g10
sg11
S'--'
p45
sg13
g10
sg14
S'Arrelious Benn'
p46
sg16
S'2011'
p47
sg18
S'10'
p48
sg20
S'--'
p49
sg22
S'11/13'
p50
sg24
S'23.5'
p51
sg26
S'--'
p52
sg28
S'--'
p53
sg29
S'L9-37'
p54
sg31
S'47'
p55
sg33
S'2'
p56
sg35
S'HOU'
p57
sg37
S'33'
p58
sg39
g6
sg40
S'--'
p59
ssS'13'
p60
(dp61
g5
g6
sg7
S'-12'
p62
sg9
g10
sg11
S'--'
p63
sg13
g10
sg14
S'Arrelious Benn'
p64
sg16
S'2011'
p65
sg18
S'13'
p66
sg20
S'-12.0'
p67
sg22
S'12/04'
p68
sg24
S'15.3'
p69
sg26
S'--'
p70
sg28
g10
sg29
S'L19-38'
p71
sg31
S'46'
p72
sg33
S'3'
p73
sg35
S'CAR'
p74
sg37
S'38'
p75
sg39
g6
sg40
S'-12'
p76
ssS'12'
p77
(dp78
g5
S'--'
p79
sg7
S'--'
p80
sg9
g10
sg11
S'--'
p81
sg13
g10
sg14
S'Arrelious Benn'
p82
sg16
S'2011'
p83
sg18
S'12'
p84
sg20
S'--'
p85
sg22
S'11/27'
p86
sg24
S'-3.0'
p87
sg26
S'--'
p88
sg28
S'--'
p89
sg29
S'L17-23'
p90
sg31
S'-3'
p91
sg33
g10
sg35
S'@TEN'
p92
sg37
S'-3'
p93
sg39
g6
sg40
S'--'
p94
ssS'15'
p95
(dp96
g5
S'--'
p97
sg7
S'--'
p98
sg9
g6
sg11
S'--'
p99
sg13
g6
sg14
S'Arrelious Benn'
p100
sg16
S'2011'
p101
sg18
S'15'
p102
sg20
S'--'
p103
sg22
S'12/17'
p104
sg24
S'--'
p105
sg26
S'--'
p106
sg28
S'--'
p107
sg29
S'L15-31'
p108
sg31
S'--'
p109
sg33
S'--'
p110
sg35
S'DAL'
p111
sg37
S'--'
p112
sg39
S'--'
p113
sg40
S'--'
p114
ssS'14'
p115
(dp116
g5
S'--'
p117
sg7
S'--'
p118
sg9
g10
sg11
S'--'
p119
sg13
g10
sg14
S'Arrelious Benn'
p120
sg16
S'2011'
p121
sg18
S'14'
p122
sg20
S'--'
p123
sg22
S'12/11'
p124
sg24
S'7.0'
p125
sg26
S'--'
p126
sg28
S'--'
p127
sg29
S'L14-41'
p128
sg31
S'7'
p129
sg33
g10
sg35
S'@JAC'
p130
sg37
g129
sg39
g6
sg40
S'--'
p131
ssS'17'
p132
(dp133
g5
S'--'
p134
sg7
S'--'
p135
sg9
g6
sg11
S'--'
p136
sg13
g6
sg14
S'Arrelious Benn'
p137
sg16
S'2011'
p138
sg18
S'17'
p139
sg20
S'--'
p140
sg22
S'01/01'
p141
sg24
S'--'
p142
sg26
S'--'
p143
sg28
S'--'
p144
sg29
S'L24-45'
p145
sg31
S'--'
p146
sg33
S'--'
p147
sg35
S'@ATL'
p148
sg37
S'--'
p149
sg39
S'--'
p150
sg40
S'--'
p151
ssS'16'
p152
(dp153
g5
S'--'
p154
sg7
S'--'
p155
sg9
g10
sg11
S'--'
p156
sg13
g10
sg14
S'Arrelious Benn'
p157
sg16
S'2011'
p158
sg18
S'16'
p159
sg20
S'--'
p160
sg22
S'12/24'
p161
sg24
S'4.0'
p162
sg26
S'--'
p163
sg28
S'--'
p164
sg29
S'L16-48'
p165
sg31
S'4'
p166
sg33
g10
sg35
S'@CAR'
p167
sg37
S'4T'
p168
sg39
g10
sg40
S'--'
p169
ssg10
(dp170
g5
S'--'
p171
sg7
S'--'
p172
sg9
g10
sg11
S'--'
p173
sg13
g10
sg14
S'Arrelious Benn'
p174
sg16
S'2011'
p175
sg18
g10
sg20
S'--'
p176
sg22
S'09/11'
p177
sg24
S'6.8'
p178
sg26
S'--'
p179
sg28
S'--'
p180
sg29
S'L20-27'
p181
sg31
S'27'
p182
sg33
g166
sg35
S'DET'
p183
sg37
S'10'
p184
sg39
g6
sg40
S'--'
p185
ssg73
(dp186
g5
S'--'
p187
sg7
S'--'
p188
sg9
g10
sg11
S'--'
p189
sg13
g10
sg14
S'Arrelious Benn'
p190
sg16
S'2011'
p191
sg18
g73
sg20
S'--'
p192
sg22
S'09/25'
p193
sg24
S'6.3'
p194
sg26
S'--'
p195
sg28
S'--'
p196
sg29
S'W16-13'
p197
sg31
S'19'
p198
sg33
g73
sg35
S'ATL'
p199
sg37
S'13'
p200
sg39
g6
sg40
S'--'
p201
ssg56
(dp202
g5
S'--'
p203
sg7
S'--'
p204
sg9
g10
sg11
S'--'
p205
sg13
g10
sg14
S'Arrelious Benn'
p206
sg16
S'2011'
p207
sg18
g56
sg20
S'--'
p208
sg22
S'09/18'
p209
sg24
S'25.0'
p210
sg26
S'--'
p211
sg28
S'--'
p212
sg29
S'W24-20'
p213
sg31
S'25'
p214
sg33
g10
sg35
S'@MIN'
p215
sg37
S'25T'
p216
sg39
g10
sg40
S'--'
p217
ssg34
(dp218
g5
S'--'
p219
sg7
S'--'
p220
sg9
g10
sg11
S'--'
p221
sg13
g10
sg14
S'Arrelious Benn'
p222
sg16
S'2011'
p223
sg18
g34
sg20
S'--'
p224
sg22
S'10/09'
p225
sg24
S'15.3'
p226
sg26
S'--'
p227
sg28
S'--'
p228
sg29
S'L3-48'
p229
sg31
S'46'
p230
sg33
g73
sg35
S'@SF'
p231
sg37
S'33'
p232
sg39
g6
sg40
S'--'
p233
ssg166
(dp234
g5
g6
sg7
g73
sg9
g10
sg11
S'--'
p235
sg13
g10
sg14
S'Arrelious Benn'
p236
sg16
S'2011'
p237
sg18
g166
sg20
S'3.0'
p238
sg22
S'10/03'
p239
sg24
S'43.0'
p240
sg26
S'--'
p241
sg28
g10
sg29
S'W24-17'
p242
sg31
S'43'
p243
sg33
g10
sg35
S'IND'
p244
sg37
S'43'
p245
sg39
g6
sg40
g73
ssg129
(dp246
g5
g6
sg7
g56
sg9
g10
sg11
S'--'
p247
sg13
g10
sg14
S'Arrelious Benn'
p248
sg16
S'2011'
p249
sg18
g129
sg20
S'2.0'
p250
sg22
S'10/23'
p251
sg24
S'--'
p252
sg26
S'--'
p253
sg28
g10
sg29
S'L18-24'
p254
sg31
g6
sg33
g6
sg35
S'CHI'
p255
sg37
S'--'
p256
sg39
g6
sg40
g56
ssS'6'
p257
(dp258
g5
g6
sg7
S'-5'
p259
sg9
g10
sg11
S'--'
p260
sg13
g10
sg14
S'Arrelious Benn'
p261
sg16
S'2011'
p262
sg18
g257
sg20
S'-5.0'
p263
sg22
S'10/16'
p264
sg24
S'27.7'
p265
sg26
S'--'
p266
sg28
g10
sg29
S'W26-20'
p267
sg31
S'83'
p268
sg33
g73
sg35
S'NO'
p269
sg37
S'65T'
p270
sg39
g10
sg40
S'-5'
p271
ssg8
(dp272
g5
g6
sg7
S'-4'
p273
sg9
g10
sg11
S'--'
p274
sg13
g10
sg14
S'Arrelious Benn'
p275
sg16
S'2011'
p276
sg18
g8
sg20
S'-4.0'
p277
sg22
S'11/06'
p278
sg24
S'11.0'
p279
sg26
S'--'
p280
sg28
g10
sg29
S'L16-27'
p281
sg31
S'22'
p282
sg33
g56
sg35
S'@NO'
p283
sg37
S'16'
p284
sg39
g6
sg40
S'-4'
p285
ssS'8'
p286
(dp287
g5
S''
p288
sg7
g288
sg9
g288
sg11
g288
sg13
g288
sg14
S'Arrelious Benn'
p289
sg16
S'2011'
p290
sg18
g286
sg20
g288
sg22
S'Bye'
p291
sg24
g288
sg26
g288
sg28
g288
sg29
g288
sg31
g288
sg33
g288
sg35
g288
sg37
g288
sg39
g288
sg40
g288
sssS'2010'
p292
(dp293
g3
(dp294
g5
S'--'
p295
sg7
S'--'
p296
sg9
g10
sg11
S'--'
p297
sg13
g10
sg14
S'Arrelious Benn'
p298
sg16
S'2010'
p299
sg18
S'11'
p300
sg20
S'--'
p301
sg22
S'11/21'
p302
sg24
S'7.0'
p303
sg26
S'--'
p304
sg28
S'--'
p305
sg29
S'W21-0'
p306
sg31
S'14'
p307
sg33
g56
sg35
S'@SF'
p308
sg37
g129
sg39
g6
sg40
S'--'
p309
ssg41
(dp310
g5
S'--'
p311
sg7
S'--'
p312
sg9
g10
sg11
S'--'
p313
sg13
g10
sg14
S'Arrelious Benn'
p314
sg16
S'2010'
p315
sg18
S'10'
p316
sg20
S'--'
p317
sg22
S'11/14'
p318
sg24
S'14.5'
p319
sg26
S'--'
p320
sg28
S'--'
p321
sg29
S'W31-16'
p322
sg31
S'29'
p323
sg33
g56
sg35
S'CAR'
p324
sg37
S'21'
p325
sg39
g10
sg40
S'--'
p326
ssg60
(dp327
g5
g6
sg7
S'10'
p328
sg9
g10
sg11
S'--'
p329
sg13
g10
sg14
S'Arrelious Benn'
p330
sg16
S'2010'
p331
sg18
S'13'
p332
sg20
S'5.0'
p333
sg22
S'12/05'
p334
sg24
S'28.0'
p335
sg26
S'--'
p336
sg28
g56
sg29
S'L24-28'
p337
sg31
S'28'
p338
sg33
g10
sg35
S'ATL'
p339
sg37
S'28'
p340
sg39
g6
sg40
g129
ssg77
(dp341
g5
S'--'
p342
sg7
S'--'
p343
sg9
g6
sg11
S'--'
p344
sg13
g10
sg14
S'Arrelious Benn'
p345
sg16
S'2010'
p346
sg18
S'12'
p347
sg20
S'--'
p348
sg22
S'11/28'
p349
sg24
S'3.0'
p350
sg26
S'--'
p351
sg28
S'--'
p352
sg29
S'L10-17'
p353
sg31
g8
sg33
g73
sg35
S'@BAL'
p354
sg37
g8
sg39
g6
sg40
S'--'
p355
ssg95
(dp356
g5
S'--'
p357
sg7
S'--'
p358
sg9
g6
sg11
S'--'
p359
sg13
g10
sg14
S'Arrelious Benn'
p360
sg16
S'2010'
p361
sg18
S'15'
p362
sg20
S'--'
p363
sg22
S'12/19'
p364
sg24
S'11.3'
p365
sg26
S'--'
p366
sg28
S'--'
p367
sg29
S'L20-23'
p368
sg31
S'34'
p369
sg33
g73
sg35
S'DET'
p370
sg37
S'13'
p371
sg39
g6
sg40
S'--'
p372
ssg115
(dp373
g5
g6
sg7
S'17'
p374
sg9
g10
sg11
S'--'
p375
sg13
g10
sg14
S'Arrelious Benn'
p376
sg16
S'2010'
p377
sg18
S'14'
p378
sg20
S'17.0'
p379
sg22
S'12/12'
p380
sg24
S'30.5'
p381
sg26
S'--'
p382
sg28
g10
sg29
S'W17-16'
p383
sg31
S'122'
p384
sg33
g166
sg35
S'@WAS'
p385
sg37
S'64'
p386
sg39
g6
sg40
S'17'
p387
ssg152
(dp388
g5
S'--'
p389
sg7
S'--'
p390
sg9
g10
sg11
S'--'
p391
sg13
g10
sg14
S'Arrelious Benn'
p392
sg16
S'2010'
p393
sg18
S'16'
p394
sg20
S'--'
p395
sg22
S'12/26'
p396
sg24
S'16.0'
p397
sg26
S'--'
p398
sg28
S'--'
p399
sg29
S'W38-15'
p400
sg31
S'16'
p401
sg33
g10
sg35
S'SEA'
p402
sg37
S'16'
p403
sg39
g6
sg40
S'--'
p404
ssg10
(dp405
g5
S'--'
p406
sg7
S'--'
p407
sg9
g6
sg11
S'--'
p408
sg13
g10
sg14
S'Arrelious Benn'
p409
sg16
S'2010'
p410
sg18
g10
sg20
S'--'
p411
sg22
S'09/12'
p412
sg24
S'--'
p413
sg26
S'--'
p414
sg28
S'--'
p415
sg29
S'W17-14'
p416
sg31
S'--'
p417
sg33
S'--'
p418
sg35
S'CLE'
p419
sg37
S'--'
p420
sg39
S'--'
p421
sg40
S'--'
p422
ssg73
(dp423
g5
S'--'
p424
sg7
S'--'
p425
sg9
g6
sg11
S'--'
p426
sg13
g10
sg14
S'Arrelious Benn'
p427
sg16
S'2010'
p428
sg18
g73
sg20
S'--'
p429
sg22
S'09/26'
p430
sg24
S'11.0'
p431
sg26
S'--'
p432
sg28
S'--'
p433
sg29
S'L13-38'
p434
sg31
S'33'
p435
sg33
g73
sg35
S'PIT'
p436
sg37
S'13'
p437
sg39
g6
sg40
S'--'
p438
ssg56
(dp439
g5
S'--'
p440
sg7
S'--'
p441
sg9
g6
sg11
S'--'
p442
sg13
g10
sg14
S'Arrelious Benn'
p443
sg16
S'2010'
p444
sg18
g56
sg20
S'--'
p445
sg22
S'09/19'
p446
sg24
S'--'
p447
sg26
S'--'
p448
sg28
S'--'
p449
sg29
S'W20-7'
p450
sg31
S'--'
p451
sg33
S'--'
p452
sg35
S'@CAR'
p453
sg37
S'--'
p454
sg39
S'--'
p455
sg40
S'--'
p456
ssg34
(dp457
g5
S'--'
p458
sg7
S'--'
p459
sg9
g10
sg11
S'--'
p460
sg13
g10
sg14
S'Arrelious Benn'
p461
sg16
S'2010'
p462
sg18
g34
sg20
S'--'
p463
sg22
S'10/10'
p464
sg24
S'12.5'
p465
sg26
S'--'
p466
sg28
S'--'
p467
sg29
S'W24-21'
p468
sg31
S'25'
p469
sg33
g56
sg35
S'@CIN'
p470
sg37
S'18'
p471
sg39
g6
sg40
S'--'
p472
ssg166
(dp473
g5
g288
sg7
g288
sg9
g288
sg11
g288
sg13
g288
sg14
S'Arrelious Benn'
p474
sg16
S'2010'
p475
sg18
g166
sg20
g288
sg22
S'Bye'
p476
sg24
g288
sg26
g288
sg28
g288
sg29
g288
sg31
g288
sg33
g288
sg35
g288
sg37
g288
sg39
g288
sg40
g288
ssg129
(dp477
g5
S'--'
p478
sg7
S'--'
p479
sg9
g10
sg11
S'--'
p480
sg13
g10
sg14
S'Arrelious Benn'
p481
sg16
S'2010'
p482
sg18
g129
sg20
S'--'
p483
sg22
S'10/24'
p484
sg24
S'9.0'
p485
sg26
S'--'
p486
sg28
S'--'
p487
sg29
S'W18-17'
p488
sg31
g8
sg33
g10
sg35
S'STL'
p489
sg37
g8
sg39
g6
sg40
S'--'
p490
ssg257
(dp491
g5
g6
sg7
g166
sg9
g6
sg11
g6
sg13
g10
sg14
S'Arrelious Benn'
p492
sg16
S'2010'
p493
sg18
g257
sg20
S'4.0'
p494
sg22
S'10/17'
p495
sg24
S'9.0'
p496
sg26
g10
sg28
g10
sg29
S'L6-31'
p497
sg31
g8
sg33
g10
sg35
S'NO'
p498
sg37
g8
sg39
g6
sg40
g166
ssg8
(dp499
g5
g6
sg7
g166
sg9
g10
sg11
S'--'
p500
sg13
g10
sg14
S'Arrelious Benn'
p501
sg16
S'2010'
p502
sg18
g8
sg20
S'4.0'
p503
sg22
S'11/07'
p504
sg24
S'14.0'
p505
sg26
S'--'
p506
sg28
g10
sg29
S'L21-27'
p507
sg31
S'14'
p508
sg33
g10
sg35
S'@ATL'
p509
sg37
S'14T'
p510
sg39
g10
sg40
g166
ssg286
(dp511
g5
g6
sg7
g6
sg9
g10
sg11
S'--'
p512
sg13
g10
sg14
S'Arrelious Benn'
p513
sg16
S'2010'
p514
sg18
g286
sg20
S'0.0'
p515
sg22
S'10/31'
p516
sg24
S'53.0'
p517
sg26
S'--'
p518
sg28
g10
sg29
S'W38-35'
p519
sg31
S'53'
p520
sg33
g10
sg35
S'@ARI'
p521
sg37
S'53'
p522
sg39
g6
sg40
g6
sssS'2012'
p523
(dp524
g3
(dp525
g5
S'--'
p526
sg7
S'--'
p527
sg9
g6
sg11
S'--'
p528
sg13
g10
sg14
S'Arrelious Benn'
p529
sg16
S'2012'
p530
sg18
S'11'
p531
sg20
S'--'
p532
sg22
S'11/18'
p533
sg24
S'--'
p534
sg26
S'--'
p535
sg28
S'--'
p536
sg29
S'W27-21'
p537
sg31
S'--'
p538
sg33
S'--'
p539
sg35
S'@CAR'
p540
sg37
S'--'
p541
sg39
S'--'
p542
sg40
S'--'
p543
ssg41
(dp544
g5
S'--'
p545
sg7
S'--'
p546
sg9
g6
sg11
S'--'
p547
sg13
g6
sg14
S'Arrelious Benn'
p548
sg16
S'2012'
p549
sg18
S'10'
p550
sg20
S'--'
p551
sg22
S'11/11'
p552
sg24
S'--'
p553
sg26
S'--'
p554
sg28
S'--'
p555
sg29
S'W34-24'
p556
sg31
S'--'
p557
sg33
S'--'
p558
sg35
S'SD'
p559
sg37
S'--'
p560
sg39
S'--'
p561
sg40
S'--'
p562
ssg10
(dp563
g5
S'--'
p564
sg7
S'--'
p565
sg9
g6
sg11
S'--'
p566
sg13
g6
sg14
S'Arrelious Benn'
p567
sg16
S'2012'
p568
sg18
g10
sg20
S'--'
p569
sg22
S'09/09'
p570
sg24
S'--'
p571
sg26
S'--'
p572
sg28
S'--'
p573
sg29
S'W16-10'
p574
sg31
S'--'
p575
sg33
S'--'
p576
sg35
S'CAR'
p577
sg37
S'--'
p578
sg39
S'--'
p579
sg40
S'--'
p580
ssg73
(dp581
g5
S'--'
p582
sg7
S'--'
p583
sg9
g10
sg11
S'--'
p584
sg13
g10
sg14
S'Arrelious Benn'
p585
sg16
S'2012'
p586
sg18
g73
sg20
S'--'
p587
sg22
S'09/23'
p588
sg24
S'8.0'
p589
sg26
S'--'
p590
sg28
S'--'
p591
sg29
S'L10-16'
p592
sg31
g286
sg33
g10
sg35
S'@DAL'
p593
sg37
g286
sg39
g6
sg40
S'--'
p594
ssg56
(dp595
g5
S'--'
p596
sg7
S'--'
p597
sg9
g6
sg11
g6
sg13
g10
sg14
S'Arrelious Benn'
p598
sg16
S'2012'
p599
sg18
g56
sg20
S'--'
p600
sg22
S'09/16'
p601
sg24
S'--'
p602
sg26
g10
sg28
S'--'
p603
sg29
S'L34-41'
p604
sg31
S'--'
p605
sg33
S'--'
p606
sg35
S'@NYG'
p607
sg37
S'--'
p608
sg39
S'--'
p609
sg40
S'--'
p610
ssg34
(dp611
g5
g288
sg7
g288
sg9
g288
sg11
g288
sg13
g288
sg14
S'Arrelious Benn'
p612
sg16
S'2012'
p613
sg18
g34
sg20
g288
sg22
S'Bye'
p614
sg24
g288
sg26
g288
sg28
g288
sg29
g288
sg31
g288
sg33
g288
sg35
g288
sg37
g288
sg39
g288
sg40
g288
ssg166
(dp615
g5
g6
sg7
g34
sg9
g6
sg11
S'--'
p616
sg13
g10
sg14
S'Arrelious Benn'
p617
sg16
S'2012'
p618
sg18
g166
sg20
S'5.0'
p619
sg22
S'09/30'
p620
sg24
S'6.0'
p621
sg26
S'--'
p622
sg28
g10
sg29
S'L22-24'
p623
sg31
S'18'
p624
sg33
g73
sg35
S'WAS'
p625
sg37
g8
sg39
g6
sg40
g34
ssg129
(dp626
g5
g6
sg7
g56
sg9
g6
sg11
S'--'
p627
sg13
g10
sg14
S'Arrelious Benn'
p628
sg16
S'2012'
p629
sg18
g129
sg20
S'2.0'
p630
sg22
S'10/21'
p631
sg24
S'--'
p632
sg26
S'--'
p633
sg28
g10
sg29
S'L28-35'
p634
sg31
S'--'
p635
sg33
S'--'
p636
sg35
S'NO'
p637
sg37
S'--'
p638
sg39
S'--'
p639
sg40
g56
ssg257
(dp640
g5
S'--'
p641
sg7
S'--'
p642
sg9
g6
sg11
S'--'
p643
sg13
g10
sg14
S'Arrelious Benn'
p644
sg16
S'2012'
p645
sg18
g257
sg20
S'--'
p646
sg22
S'10/14'
p647
sg24
S'--'
p648
sg26
S'--'
p649
sg28
S'--'
p650
sg29
S'W38-10'
p651
sg31
S'--'
p652
sg33
S'--'
p653
sg35
S'KC'
p654
sg37
S'--'
p655
sg39
S'--'
p656
sg40
S'--'
p657
ssg8
(dp658
g5
S'--'
p659
sg7
S'--'
p660
sg9
g6
sg11
S'--'
p661
sg13
g10
sg14
S'Arrelious Benn'
p662
sg16
S'2012'
p663
sg18
g8
sg20
S'--'
p664
sg22
S'11/04'
p665
sg24
S'--'
p666
sg26
S'--'
p667
sg28
S'--'
p668
sg29
S'W42-32'
p669
sg31
S'--'
p670
sg33
S'--'
p671
sg35
S'@OAK'
p672
sg37
S'--'
p673
sg39
S'--'
p674
sg40
S'--'
p675
ssg286
(dp676
g5
g6
sg7
g8
sg9
g6
sg11
S'--'
p677
sg13
g10
sg14
S'Arrelious Benn'
p678
sg16
S'2012'
p679
sg18
g286
sg20
S'9.0'
p680
sg22
S'10/25'
p681
sg24
S'--'
p682
sg26
S'--'
p683
sg28
g10
sg29
S'W36-17'
p684
sg31
g6
sg33
g6
sg35
S'@MIN'
p685
sg37
S'--'
p686
sg39
g6
sg40
g8
sss.