(dp0
S'2015'
p1
(dp2
S'11'
p3
(dp4
S'RushTD'
p5
S'--'
p6
sS'RushYds'
p7
S'--'
p8
sS'GS'
p9
S'0'
p10
sS'Lost'
p11
S'--'
p12
sS'G'
p13
S'1'
p14
sS'Player'
p15
S'Bennie Fowler'
p16
sS'Year'
p17
S'2015'
p18
sS'WK'
p19
S'11'
p20
sS'RushAvg'
p21
S'--'
p22
sS'Game Date'
p23
S'11/22'
p24
sS'RecAvg'
p25
S'--'
p26
sS'FUM'
p27
S'--'
p28
sS'RushAtt'
p29
S'--'
p30
sS'Result'
p31
S'W17-15'
p32
sS'RecYds'
p33
S'--'
p34
sS'Rec'
p35
S'--'
p36
sS'Opp'
p37
S'@CHI'
p38
sS'RecLng'
p39
S'--'
p40
sS'RecTD'
p41
S'--'
p42
sS'RushLng'
p43
S'--'
p44
ssS'10'
p45
(dp46
g5
S'--'
p47
sg7
S'--'
p48
sg9
g10
sg11
S'--'
p49
sg13
g14
sg15
S'Bennie Fowler'
p50
sg17
S'2015'
p51
sg19
S'10'
p52
sg21
S'--'
p53
sg23
S'11/15'
p54
sg25
S'17.0'
p55
sg27
S'--'
p56
sg29
S'--'
p57
sg31
S'L13-29'
p58
sg33
S'17'
p59
sg35
g14
sg37
S'KC'
p60
sg39
S'17'
p61
sg41
g10
sg43
S'--'
p62
ssS'13'
p63
(dp64
g5
S'--'
p65
sg7
S'--'
p66
sg9
g10
sg11
S'--'
p67
sg13
g14
sg15
S'Bennie Fowler'
p68
sg17
S'2015'
p69
sg19
S'13'
p70
sg21
S'--'
p71
sg23
S'12/06'
p72
sg25
S'--'
p73
sg27
S'--'
p74
sg29
S'--'
p75
sg31
S'W17-3'
p76
sg33
g10
sg35
g10
sg37
S'@SD'
p77
sg39
S'--'
p78
sg41
g10
sg43
S'--'
p79
ssS'12'
p80
(dp81
g5
S'--'
p82
sg7
S'--'
p83
sg9
g10
sg11
S'--'
p84
sg13
g14
sg15
S'Bennie Fowler'
p85
sg17
S'2015'
p86
sg19
S'12'
p87
sg21
S'--'
p88
sg23
S'11/29'
p89
sg25
S'8.0'
p90
sg27
S'--'
p91
sg29
S'--'
p92
sg31
S'W30-24'
p93
sg33
S'8'
p94
sg35
g14
sg37
S'NE'
p95
sg39
g94
sg41
g10
sg43
S'--'
p96
ssS'15'
p97
(dp98
g5
S'--'
p99
sg7
S'--'
p100
sg9
g14
sg11
S'--'
p101
sg13
g14
sg15
S'Bennie Fowler'
p102
sg17
S'2015'
p103
sg19
S'15'
p104
sg21
S'--'
p105
sg23
S'12/20'
p106
sg25
S'--'
p107
sg27
S'--'
p108
sg29
S'--'
p109
sg31
S'L27-34'
p110
sg33
g10
sg35
g10
sg37
S'@PIT'
p111
sg39
S'--'
p112
sg41
g10
sg43
S'--'
p113
ssS'14'
p114
(dp115
g5
S'--'
p116
sg7
S'--'
p117
sg9
g10
sg11
S'--'
p118
sg13
g14
sg15
S'Bennie Fowler'
p119
sg17
S'2015'
p120
sg19
S'14'
p121
sg21
S'--'
p122
sg23
S'12/13'
p123
sg25
S'12.0'
p124
sg27
S'--'
p125
sg29
S'--'
p126
sg31
S'L12-15'
p127
sg33
S'12'
p128
sg35
g14
sg37
S'OAK'
p129
sg39
S'12'
p130
sg41
g10
sg43
S'--'
p131
ssS'17'
p132
(dp133
g5
S'--'
p134
sg7
S'--'
p135
sg9
g10
sg11
S'--'
p136
sg13
g14
sg15
S'Bennie Fowler'
p137
sg17
S'2015'
p138
sg19
S'17'
p139
sg21
S'--'
p140
sg23
S'01/03'
p141
sg25
S'3.0'
p142
sg27
S'--'
p143
sg29
S'--'
p144
sg31
S'W27-20'
p145
sg33
S'3'
p146
sg35
g14
sg37
S'SD'
p147
sg39
g146
sg41
g10
sg43
S'--'
p148
ssS'16'
p149
(dp150
g5
S'--'
p151
sg7
S'--'
p152
sg9
g10
sg11
S'--'
p153
sg13
g14
sg15
S'Bennie Fowler'
p154
sg17
S'2015'
p155
sg19
S'16'
p156
sg21
S'--'
p157
sg23
S'12/28'
p158
sg25
S'13.0'
p159
sg27
S'--'
p160
sg29
S'--'
p161
sg31
S'W20-17'
p162
sg33
S'13'
p163
sg35
g14
sg37
S'CIN'
p164
sg39
S'13'
p165
sg41
g10
sg43
S'--'
p166
ssg14
(dp167
g5
S'--'
p168
sg7
S'--'
p169
sg9
g10
sg11
S'--'
p170
sg13
g14
sg15
S'Bennie Fowler'
p171
sg17
S'2015'
p172
sg19
g14
sg21
S'--'
p173
sg23
S'09/13'
p174
sg25
S'--'
p175
sg27
S'--'
p176
sg29
S'--'
p177
sg31
S'W19-13'
p178
sg33
S'--'
p179
sg35
S'--'
p180
sg37
S'BAL'
p181
sg39
S'--'
p182
sg41
S'--'
p183
sg43
S'--'
p184
ssg146
(dp185
g5
S'--'
p186
sg7
S'--'
p187
sg9
g10
sg11
S'--'
p188
sg13
g14
sg15
S'Bennie Fowler'
p189
sg17
S'2015'
p190
sg19
g146
sg21
S'--'
p191
sg23
S'09/27'
p192
sg25
S'12.5'
p193
sg27
S'--'
p194
sg29
S'--'
p195
sg31
S'W24-12'
p196
sg33
S'50'
p197
sg35
S'4'
p198
sg37
S'@DET'
p199
sg39
S'13'
p200
sg41
g10
sg43
S'--'
p201
ssS'2'
p202
(dp203
g5
S'--'
p204
sg7
S'--'
p205
sg9
g10
sg11
S'--'
p206
sg13
g14
sg15
S'Bennie Fowler'
p207
sg17
S'2015'
p208
sg19
g202
sg21
S'--'
p209
sg23
S'09/17'
p210
sg25
S'--'
p211
sg27
S'--'
p212
sg29
S'--'
p213
sg31
S'W31-24'
p214
sg33
S'--'
p215
sg35
S'--'
p216
sg37
S'@KC'
p217
sg39
S'--'
p218
sg41
S'--'
p219
sg43
S'--'
p220
ssS'5'
p221
(dp222
g5
S'--'
p223
sg7
S'--'
p224
sg9
g10
sg11
S'--'
p225
sg13
g14
sg15
S'Bennie Fowler'
p226
sg17
S'2015'
p227
sg19
g221
sg21
S'--'
p228
sg23
S'10/11'
p229
sg25
S'23.0'
p230
sg27
S'--'
p231
sg29
S'--'
p232
sg31
S'W16-10'
p233
sg33
S'46'
p234
sg35
g202
sg37
S'@OAK'
p235
sg39
S'41'
p236
sg41
g10
sg43
S'--'
p237
ssg198
(dp238
g5
S'--'
p239
sg7
S'--'
p240
sg9
g10
sg11
S'--'
p241
sg13
g14
sg15
S'Bennie Fowler'
p242
sg17
S'2015'
p243
sg19
g198
sg21
S'--'
p244
sg23
S'10/04'
p245
sg25
S'11.0'
p246
sg27
S'--'
p247
sg29
S'--'
p248
sg31
S'W23-20'
p249
sg33
S'11'
p250
sg35
g14
sg37
S'MIN'
p251
sg39
S'11'
p252
sg41
g10
sg43
S'--'
p253
ssS'7'
p254
(dp255
g5
S''
p256
sg7
g256
sg9
g256
sg11
g256
sg13
g256
sg15
S'Bennie Fowler'
p257
sg17
S'2015'
p258
sg19
g254
sg21
g256
sg23
S'Bye'
p259
sg25
g256
sg27
g256
sg29
g256
sg31
g256
sg33
g256
sg35
g256
sg37
g256
sg39
g256
sg41
g256
sg43
g256
ssS'6'
p260
(dp261
g5
S'--'
p262
sg7
S'--'
p263
sg9
g10
sg11
S'--'
p264
sg13
g14
sg15
S'Bennie Fowler'
p265
sg17
S'2015'
p266
sg19
g260
sg21
S'--'
p267
sg23
S'10/18'
p268
sg25
S'--'
p269
sg27
S'--'
p270
sg29
S'--'
p271
sg31
S'W26-23'
p272
sg33
S'--'
p273
sg35
S'--'
p274
sg37
S'@CLE'
p275
sg39
S'--'
p276
sg41
S'--'
p277
sg43
S'--'
p278
ssS'9'
p279
(dp280
g5
S'--'
p281
sg7
S'--'
p282
sg9
g10
sg11
S'--'
p283
sg13
g14
sg15
S'Bennie Fowler'
p284
sg17
S'2015'
p285
sg19
g279
sg21
S'--'
p286
sg23
S'11/08'
p287
sg25
S'11.0'
p288
sg27
S'--'
p289
sg29
S'--'
p290
sg31
S'L24-27'
p291
sg33
S'22'
p292
sg35
g202
sg37
S'@IND'
p293
sg39
S'13'
p294
sg41
g10
sg43
S'--'
p295
ssg94
(dp296
g5
S'--'
p297
sg7
S'--'
p298
sg9
g10
sg11
S'--'
p299
sg13
g14
sg15
S'Bennie Fowler'
p300
sg17
S'2015'
p301
sg19
g94
sg21
S'--'
p302
sg23
S'11/01'
p303
sg25
S'10.5'
p304
sg27
S'--'
p305
sg29
S'--'
p306
sg31
S'W29-10'
p307
sg33
S'21'
p308
sg35
g202
sg37
S'GB'
p309
sg39
S'15'
p310
sg41
g10
sg43
S'--'
p311
sss.