(dp0
S'2015'
p1
(dp2
S'11'
p3
(dp4
S'RushTD'
p5
S'--'
p6
sS'RushYds'
p7
S'--'
p8
sS'GS'
p9
S'0'
p10
sS'Lost'
p11
S'--'
p12
sS'G'
p13
S'1'
p14
sS'Player'
p15
S'Bradley Marquez'
p16
sS'Year'
p17
S'2015'
p18
sS'WK'
p19
S'11'
p20
sS'RushAvg'
p21
S'--'
p22
sS'Game Date'
p23
S'11/22'
p24
sS'RecAvg'
p25
S'--'
p26
sS'FUM'
p27
S'--'
p28
sS'RushAtt'
p29
S'--'
p30
sS'Result'
p31
S'L13-16'
p32
sS'RecYds'
p33
S'--'
p34
sS'Rec'
p35
S'--'
p36
sS'Opp'
p37
S'@BAL'
p38
sS'RecLng'
p39
S'--'
p40
sS'RecTD'
p41
S'--'
p42
sS'RushLng'
p43
S'--'
p44
ssS'10'
p45
(dp46
g5
S'--'
p47
sg7
S'--'
p48
sg9
g10
sg11
S'--'
p49
sg13
g14
sg15
S'Bradley Marquez'
p50
sg17
S'2015'
p51
sg19
S'10'
p52
sg21
S'--'
p53
sg23
S'11/15'
p54
sg25
S'9.5'
p55
sg27
S'--'
p56
sg29
S'--'
p57
sg31
S'L13-37'
p58
sg33
S'19'
p59
sg35
S'2'
p60
sg37
S'CHI'
p61
sg39
S'11'
p62
sg41
g10
sg43
S'--'
p63
ssS'13'
p64
(dp65
g5
S'--'
p66
sg7
S'--'
p67
sg9
g10
sg11
S'--'
p68
sg13
g14
sg15
S'Bradley Marquez'
p69
sg17
S'2015'
p70
sg19
S'13'
p71
sg21
S'--'
p72
sg23
S'12/06'
p73
sg25
S'5.3'
p74
sg27
S'--'
p75
sg29
S'--'
p76
sg31
S'L3-27'
p77
sg33
S'16'
p78
sg35
S'3'
p79
sg37
S'ARI'
p80
sg39
S'6'
p81
sg41
g10
sg43
S'--'
p82
ssS'12'
p83
(dp84
g5
S'--'
p85
sg7
S'--'
p86
sg9
g10
sg11
S'--'
p87
sg13
g14
sg15
S'Bradley Marquez'
p88
sg17
S'2015'
p89
sg19
S'12'
p90
sg21
S'--'
p91
sg23
S'11/29'
p92
sg25
S'4.3'
p93
sg27
S'--'
p94
sg29
S'--'
p95
sg31
S'L7-31'
p96
sg33
S'13'
p97
sg35
g79
sg37
S'@CIN'
p98
sg39
S'7'
p99
sg41
g10
sg43
S'--'
p100
ssS'15'
p101
(dp102
g5
S'--'
p103
sg7
S'--'
p104
sg9
g10
sg11
S'--'
p105
sg13
g14
sg15
S'Bradley Marquez'
p106
sg17
S'2015'
p107
sg19
S'15'
p108
sg21
S'--'
p109
sg23
S'12/17'
p110
sg25
S'--'
p111
sg27
S'--'
p112
sg29
S'--'
p113
sg31
S'W31-23'
p114
sg33
g10
sg35
g10
sg37
S'TB'
p115
sg39
S'--'
p116
sg41
g10
sg43
S'--'
p117
ssS'14'
p118
(dp119
g5
S'--'
p120
sg7
S'--'
p121
sg9
g14
sg11
S'--'
p122
sg13
g14
sg15
S'Bradley Marquez'
p123
sg17
S'2015'
p124
sg19
S'14'
p125
sg21
S'--'
p126
sg23
S'12/13'
p127
sg25
S'10.7'
p128
sg27
S'--'
p129
sg29
S'--'
p130
sg31
S'W21-14'
p131
sg33
S'32'
p132
sg35
g79
sg37
S'DET'
p133
sg39
S'14'
p134
sg41
g10
sg43
S'--'
p135
ssS'17'
p136
(dp137
g5
S'--'
p138
sg7
S'--'
p139
sg9
g10
sg11
S'--'
p140
sg13
g14
sg15
S'Bradley Marquez'
p141
sg17
S'2015'
p142
sg19
S'17'
p143
sg21
S'--'
p144
sg23
S'01/03'
p145
sg25
S'--'
p146
sg27
S'--'
p147
sg29
S'--'
p148
sg31
S'L16-19'
p149
sg33
g10
sg35
g10
sg37
S'@SF'
p150
sg39
S'--'
p151
sg41
g10
sg43
S'--'
p152
ssS'16'
p153
(dp154
g5
S'--'
p155
sg7
S'--'
p156
sg9
g10
sg11
S'--'
p157
sg13
g14
sg15
S'Bradley Marquez'
p158
sg17
S'2015'
p159
sg19
S'16'
p160
sg21
S'--'
p161
sg23
S'12/27'
p162
sg25
S'--'
p163
sg27
S'--'
p164
sg29
S'--'
p165
sg31
S'W23-17'
p166
sg33
g10
sg35
g10
sg37
S'@SEA'
p167
sg39
S'--'
p168
sg41
g10
sg43
S'--'
p169
ssg14
(dp170
g5
S'--'
p171
sg7
S'--'
p172
sg9
g10
sg11
S'--'
p173
sg13
g14
sg15
S'Bradley Marquez'
p174
sg17
S'2015'
p175
sg19
g14
sg21
S'--'
p176
sg23
S'09/13'
p177
sg25
S'--'
p178
sg27
S'--'
p179
sg29
S'--'
p180
sg31
S'W34-31'
p181
sg33
S'--'
p182
sg35
S'--'
p183
sg37
S'SEA'
p184
sg39
S'--'
p185
sg41
S'--'
p186
sg43
S'--'
p187
ssg79
(dp188
g5
S'--'
p189
sg7
S'--'
p190
sg9
g10
sg11
S'--'
p191
sg13
g14
sg15
S'Bradley Marquez'
p192
sg17
S'2015'
p193
sg19
g79
sg21
S'--'
p194
sg23
S'09/27'
p195
sg25
S'--'
p196
sg27
S'--'
p197
sg29
S'--'
p198
sg31
S'L6-12'
p199
sg33
S'--'
p200
sg35
S'--'
p201
sg37
S'PIT'
p202
sg39
S'--'
p203
sg41
S'--'
p204
sg43
S'--'
p205
ssg60
(dp206
g5
S'--'
p207
sg7
S'--'
p208
sg9
g10
sg11
S'--'
p209
sg13
g14
sg15
S'Bradley Marquez'
p210
sg17
S'2015'
p211
sg19
g60
sg21
S'--'
p212
sg23
S'09/20'
p213
sg25
S'--'
p214
sg27
S'--'
p215
sg29
S'--'
p216
sg31
S'L10-24'
p217
sg33
S'--'
p218
sg35
S'--'
p219
sg37
S'@WAS'
p220
sg39
S'--'
p221
sg41
S'--'
p222
sg43
S'--'
p223
ssS'5'
p224
(dp225
g5
S'--'
p226
sg7
S'--'
p227
sg9
g10
sg11
S'--'
p228
sg13
g14
sg15
S'Bradley Marquez'
p229
sg17
S'2015'
p230
sg19
g224
sg21
S'--'
p231
sg23
S'10/11'
p232
sg25
S'--'
p233
sg27
S'--'
p234
sg29
S'--'
p235
sg31
S'L10-24'
p236
sg33
S'--'
p237
sg35
S'--'
p238
sg37
S'@GB'
p239
sg39
S'--'
p240
sg41
S'--'
p241
sg43
S'--'
p242
ssS'4'
p243
(dp244
g5
S'--'
p245
sg7
S'--'
p246
sg9
g10
sg11
S'--'
p247
sg13
g14
sg15
S'Bradley Marquez'
p248
sg17
S'2015'
p249
sg19
g243
sg21
S'--'
p250
sg23
S'10/04'
p251
sg25
S'--'
p252
sg27
S'--'
p253
sg29
S'--'
p254
sg31
S'W24-22'
p255
sg33
S'--'
p256
sg35
S'--'
p257
sg37
S'@ARI'
p258
sg39
S'--'
p259
sg41
S'--'
p260
sg43
S'--'
p261
ssg99
(dp262
g5
S'--'
p263
sg7
S'--'
p264
sg9
g10
sg11
S'--'
p265
sg13
g14
sg15
S'Bradley Marquez'
p266
sg17
S'2015'
p267
sg19
g99
sg21
S'--'
p268
sg23
S'10/25'
p269
sg25
S'--'
p270
sg27
S'--'
p271
sg29
S'--'
p272
sg31
S'W24-6'
p273
sg33
S'--'
p274
sg35
S'--'
p275
sg37
S'CLE'
p276
sg39
S'--'
p277
sg41
S'--'
p278
sg43
S'--'
p279
ssg81
(dp280
g5
S''
p281
sg7
g281
sg9
g281
sg11
g281
sg13
g281
sg15
S'Bradley Marquez'
p282
sg17
S'2015'
p283
sg19
g81
sg21
g281
sg23
S'Bye'
p284
sg25
g281
sg27
g281
sg29
g281
sg31
g281
sg33
g281
sg35
g281
sg37
g281
sg39
g281
sg41
g281
sg43
g281
ssS'9'
p285
(dp286
g5
S'--'
p287
sg7
S'--'
p288
sg9
g10
sg11
S'--'
p289
sg13
g14
sg15
S'Bradley Marquez'
p290
sg17
S'2015'
p291
sg19
g285
sg21
S'--'
p292
sg23
S'11/08'
p293
sg25
S'3.0'
p294
sg27
S'--'
p295
sg29
S'--'
p296
sg31
S'L18-21'
p297
sg33
g79
sg35
g14
sg37
S'@MIN'
p298
sg39
g79
sg41
g10
sg43
S'--'
p299
ssS'8'
p300
(dp301
g5
S'--'
p302
sg7
S'--'
p303
sg9
g10
sg11
S'--'
p304
sg13
g14
sg15
S'Bradley Marquez'
p305
sg17
S'2015'
p306
sg19
g300
sg21
S'--'
p307
sg23
S'11/01'
p308
sg25
S'5.0'
p309
sg27
S'--'
p310
sg29
S'--'
p311
sg31
S'W27-6'
p312
sg33
g224
sg35
g14
sg37
S'SF'
p313
sg39
g224
sg41
g10
sg43
S'--'
p314
sss.