(dp0
S'2015'
p1
(dp2
S'11'
p3
(dp4
S'RushTD'
p5
S''
p6
sS'RushYds'
p7
g6
sS'GS'
p8
g6
sS'Lost'
p9
g6
sS'G'
p10
g6
sS'Player'
p11
S'Brandon Coleman'
p12
sS'Year'
p13
S'2015'
p14
sS'WK'
p15
S'11'
p16
sS'RushAvg'
p17
g6
sS'Game Date'
p18
S'Bye'
p19
sS'RecAvg'
p20
g6
sS'FUM'
p21
g6
sS'RushAtt'
p22
g6
sS'Result'
p23
g6
sS'RecYds'
p24
g6
sS'Rec'
p25
g6
sS'Opp'
p26
g6
sS'RecLng'
p27
g6
sS'RecTD'
p28
g6
sS'RushLng'
p29
g6
ssS'10'
p30
(dp31
g5
S'--'
p32
sg7
S'--'
p33
sg8
S'0'
p34
sg9
S'--'
p35
sg10
S'1'
p36
sg11
S'Brandon Coleman'
p37
sg13
S'2015'
p38
sg15
S'10'
p39
sg17
S'--'
p40
sg18
S'11/15'
p41
sg20
S'14.0'
p42
sg21
S'--'
p43
sg22
S'--'
p44
sg23
S'L14-47'
p45
sg24
S'14'
p46
sg25
g36
sg26
S'@WAS'
p47
sg27
S'14'
p48
sg28
g34
sg29
S'--'
p49
ssS'13'
p50
(dp51
g5
S'--'
p52
sg7
S'--'
p53
sg8
g34
sg9
S'--'
p54
sg10
g36
sg11
S'Brandon Coleman'
p55
sg13
S'2015'
p56
sg15
S'13'
p57
sg17
S'--'
p58
sg18
S'12/06'
p59
sg20
S'18.3'
p60
sg21
S'--'
p61
sg22
S'--'
p62
sg23
S'L38-41'
p63
sg24
S'73'
p64
sg25
S'4'
p65
sg26
S'CAR'
p66
sg27
S'31'
p67
sg28
g36
sg29
S'--'
p68
ssS'12'
p69
(dp70
g5
S'--'
p71
sg7
S'--'
p72
sg8
g34
sg9
S'--'
p73
sg10
g36
sg11
S'Brandon Coleman'
p74
sg13
S'2015'
p75
sg15
S'12'
p76
sg17
S'--'
p77
sg18
S'11/29'
p78
sg20
S'--'
p79
sg21
S'--'
p80
sg22
S'--'
p81
sg23
S'L6-24'
p82
sg24
g34
sg25
g34
sg26
S'@HOU'
p83
sg27
S'--'
p84
sg28
g34
sg29
S'--'
p85
ssS'15'
p86
(dp87
g5
S'--'
p88
sg7
S'--'
p89
sg8
g34
sg9
S'--'
p90
sg10
g36
sg11
S'Brandon Coleman'
p91
sg13
S'2015'
p92
sg15
S'15'
p93
sg17
S'--'
p94
sg18
S'12/21'
p95
sg20
S'--'
p96
sg21
S'--'
p97
sg22
S'--'
p98
sg23
S'L27-35'
p99
sg24
g34
sg25
g34
sg26
S'DET'
p100
sg27
S'--'
p101
sg28
g34
sg29
S'--'
p102
ssS'14'
p103
(dp104
g5
S'--'
p105
sg7
S'--'
p106
sg8
g34
sg9
S'--'
p107
sg10
g36
sg11
S'Brandon Coleman'
p108
sg13
S'2015'
p109
sg15
S'14'
p110
sg17
S'--'
p111
sg18
S'12/13'
p112
sg20
S'10.7'
p113
sg21
S'--'
p114
sg22
S'--'
p115
sg23
S'W24-17'
p116
sg24
S'32'
p117
sg25
S'3'
p118
sg26
S'@TB'
p119
sg27
S'20'
p120
sg28
g34
sg29
S'--'
p121
ssS'17'
p122
(dp123
g5
S'--'
p124
sg7
S'--'
p125
sg8
g34
sg9
S'--'
p126
sg10
g36
sg11
S'Brandon Coleman'
p127
sg13
S'2015'
p128
sg15
S'17'
p129
sg17
S'--'
p130
sg18
S'01/03'
p131
sg20
S'16.2'
p132
sg21
S'--'
p133
sg22
S'--'
p134
sg23
S'W20-17'
p135
sg24
S'81'
p136
sg25
S'5'
p137
sg26
S'@ATL'
p138
sg27
S'22'
p139
sg28
g34
sg29
S'--'
p140
ssS'16'
p141
(dp142
g5
S'--'
p143
sg7
S'--'
p144
sg8
g34
sg9
S'--'
p145
sg10
g36
sg11
S'Brandon Coleman'
p146
sg13
S'2015'
p147
sg15
S'16'
p148
sg17
S'--'
p149
sg18
S'12/27'
p150
sg20
S'11.3'
p151
sg21
S'--'
p152
sg22
S'--'
p153
sg23
S'W38-27'
p154
sg24
S'45'
p155
sg25
g65
sg26
S'JAC'
p156
sg27
S'21'
p157
sg28
g34
sg29
S'--'
p158
ssg36
(dp159
g5
S'--'
p160
sg7
S'--'
p161
sg8
g36
sg9
S'--'
p162
sg10
g36
sg11
S'Brandon Coleman'
p163
sg13
S'2015'
p164
sg15
g36
sg17
S'--'
p165
sg18
S'09/13'
p166
sg20
S'10.3'
p167
sg21
S'--'
p168
sg22
S'--'
p169
sg23
S'L19-31'
p170
sg24
S'41'
p171
sg25
g65
sg26
S'@ARI'
p172
sg27
S'19'
p173
sg28
g36
sg29
S'--'
p174
ssg118
(dp175
g5
S'--'
p176
sg7
S'--'
p177
sg8
g36
sg9
S'--'
p178
sg10
g36
sg11
S'Brandon Coleman'
p179
sg13
S'2015'
p180
sg15
g118
sg17
S'--'
p181
sg18
S'09/27'
p182
sg20
S'9.0'
p183
sg21
S'--'
p184
sg22
S'--'
p185
sg23
S'L22-27'
p186
sg24
S'9'
p187
sg25
g36
sg26
S'@CAR'
p188
sg27
g187
sg28
g34
sg29
S'--'
p189
ssS'2'
p190
(dp191
g5
S'--'
p192
sg7
S'--'
p193
sg8
g34
sg9
S'--'
p194
sg10
g36
sg11
S'Brandon Coleman'
p195
sg13
S'2015'
p196
sg15
g190
sg17
S'--'
p197
sg18
S'09/20'
p198
sg20
S'11.0'
p199
sg21
S'--'
p200
sg22
S'--'
p201
sg23
S'L19-26'
p202
sg24
S'33'
p203
sg25
g118
sg26
S'TB'
p204
sg27
S'22'
p205
sg28
g34
sg29
S'--'
p206
ssg137
(dp207
g5
S'--'
p208
sg7
S'--'
p209
sg8
g34
sg9
S'--'
p210
sg10
g36
sg11
S'Brandon Coleman'
p211
sg13
S'2015'
p212
sg15
g137
sg17
S'--'
p213
sg18
S'10/11'
p214
sg20
S'--'
p215
sg21
S'--'
p216
sg22
S'--'
p217
sg23
S'L17-39'
p218
sg24
g34
sg25
g34
sg26
S'@PHI'
p219
sg27
S'--'
p220
sg28
g34
sg29
S'--'
p221
ssg65
(dp222
g5
S'--'
p223
sg7
S'--'
p224
sg8
g36
sg9
S'--'
p225
sg10
g36
sg11
S'Brandon Coleman'
p226
sg13
S'2015'
p227
sg15
g65
sg17
S'--'
p228
sg18
S'10/04'
p229
sg20
S'30.0'
p230
sg21
S'--'
p231
sg22
S'--'
p232
sg23
S'W26-20'
p233
sg24
S'30'
p234
sg25
g36
sg26
S'DAL'
p235
sg27
S'30'
p236
sg28
g34
sg29
S'--'
p237
ssS'7'
p238
(dp239
g5
S'--'
p240
sg7
S'--'
p241
sg8
g34
sg9
S'--'
p242
sg10
g36
sg11
S'Brandon Coleman'
p243
sg13
S'2015'
p244
sg15
g238
sg17
S'--'
p245
sg18
S'10/25'
p246
sg20
S'24.0'
p247
sg21
S'--'
p248
sg22
S'--'
p249
sg23
S'W27-21'
p250
sg24
S'24'
p251
sg25
g36
sg26
S'@IND'
p252
sg27
S'24'
p253
sg28
g34
sg29
S'--'
p254
ssS'6'
p255
(dp256
g5
S'--'
p257
sg7
S'--'
p258
sg8
g36
sg9
S'--'
p259
sg10
g36
sg11
S'Brandon Coleman'
p260
sg13
S'2015'
p261
sg15
g255
sg17
S'--'
p262
sg18
S'10/15'
p263
sg20
S'--'
p264
sg21
S'--'
p265
sg22
S'--'
p266
sg23
S'W31-21'
p267
sg24
g34
sg25
g34
sg26
S'ATL'
p268
sg27
S'--'
p269
sg28
g34
sg29
S'--'
p270
ssg187
(dp271
g5
S'--'
p272
sg7
S'--'
p273
sg8
g34
sg9
S'--'
p274
sg10
g36
sg11
S'Brandon Coleman'
p275
sg13
S'2015'
p276
sg15
g187
sg17
S'--'
p277
sg18
S'11/08'
p278
sg20
S'29.0'
p279
sg21
S'--'
p280
sg22
S'--'
p281
sg23
S'L28-34'
p282
sg24
S'58'
p283
sg25
g190
sg26
S'TEN'
p284
sg27
S'30'
p285
sg28
g34
sg29
S'--'
p286
ssS'8'
p287
(dp288
g5
S'--'
p289
sg7
S'--'
p290
sg8
g34
sg9
S'--'
p291
sg10
g36
sg11
S'Brandon Coleman'
p292
sg13
S'2015'
p293
sg15
g287
sg17
S'--'
p294
sg18
S'11/01'
p295
sg20
S'14.0'
p296
sg21
S'--'
p297
sg22
S'--'
p298
sg23
S'W52-49'
p299
sg24
S'14'
p300
sg25
g36
sg26
S'NYG'
p301
sg27
S'14'
p302
sg28
g34
sg29
S'--'
p303
sssS'2014'
p304
(dp305
g122
(dp306
g5
S'--'
p307
sg7
S'--'
p308
sg8
g34
sg9
S'--'
p309
sg10
g34
sg11
S'Brandon Coleman'
p310
sg13
S'2014'
p311
sg15
S'17'
p312
sg17
S'--'
p313
sg18
S'12/28'
p314
sg20
S'--'
p315
sg21
S'--'
p316
sg22
S'--'
p317
sg23
S'W23-20'
p318
sg24
S'--'
p319
sg25
S'--'
p320
sg26
S'@TB'
p321
sg27
S'--'
p322
sg28
S'--'
p323
sg29
S'--'
p324
sss.