(dp0
S'2015'
p1
(dp2
S'11'
p3
(dp4
S'RushTD'
p5
S'--'
p6
sS'RushYds'
p7
S'--'
p8
sS'GS'
p9
S'1'
p10
sS'Lost'
p11
S'--'
p12
sS'G'
p13
g10
sS'Player'
p14
S'Brandon Marshall'
p15
sS'Year'
p16
S'2015'
p17
sS'WK'
p18
S'11'
p19
sS'RushAvg'
p20
S'--'
p21
sS'Game Date'
p22
S'11/22'
p23
sS'RecAvg'
p24
S'9.4'
p25
sS'FUM'
p26
S'--'
p27
sS'RushAtt'
p28
S'--'
p29
sS'Result'
p30
S'L17-24'
p31
sS'RecYds'
p32
S'47'
p33
sS'Rec'
p34
S'5'
p35
sS'Opp'
p36
S'@HOU'
p37
sS'RecLng'
p38
S'21T'
p39
sS'RecTD'
p40
g10
sS'RushLng'
p41
S'--'
p42
ssS'10'
p43
(dp44
g5
S'--'
p45
sg7
S'--'
p46
sg9
g10
sg11
S'--'
p47
sg13
g10
sg14
S'Brandon Marshall'
p48
sg16
S'2015'
p49
sg18
S'10'
p50
sg20
S'--'
p51
sg22
S'11/12'
p52
sg24
S'7.7'
p53
sg26
S'--'
p54
sg28
S'--'
p55
sg30
S'L17-22'
p56
sg32
S'23'
p57
sg34
S'3'
p58
sg36
S'BUF'
p59
sg38
S'14T'
p60
sg40
g10
sg41
S'--'
p61
ssS'13'
p62
(dp63
g5
S'--'
p64
sg7
S'--'
p65
sg9
g10
sg11
S'--'
p66
sg13
g10
sg14
S'Brandon Marshall'
p67
sg16
S'2015'
p68
sg18
S'13'
p69
sg20
S'--'
p70
sg22
S'12/06'
p71
sg24
S'10.9'
p72
sg26
S'--'
p73
sg28
S'--'
p74
sg30
S'W23-20'
p75
sg32
S'131'
p76
sg34
S'12'
p77
sg36
S'@NYG'
p78
sg38
S'25'
p79
sg40
g10
sg41
S'--'
p80
ssS'12'
p81
(dp82
g5
S'--'
p83
sg7
S'--'
p84
sg9
g10
sg11
S'--'
p85
sg13
g10
sg14
S'Brandon Marshall'
p86
sg16
S'2015'
p87
sg18
S'12'
p88
sg20
S'--'
p89
sg22
S'11/29'
p90
sg24
S'14.6'
p91
sg26
S'--'
p92
sg28
S'--'
p93
sg30
S'W38-20'
p94
sg32
S'131'
p95
sg34
S'9'
p96
sg36
S'MIA'
p97
sg38
S'47'
p98
sg40
S'2'
p99
sg41
S'--'
p100
ssS'15'
p101
(dp102
g5
S'--'
p103
sg7
S'--'
p104
sg9
g10
sg11
S'--'
p105
sg13
g10
sg14
S'Brandon Marshall'
p106
sg16
S'2015'
p107
sg18
S'15'
p108
sg20
S'--'
p109
sg22
S'12/19'
p110
sg24
S'18.5'
p111
sg26
S'--'
p112
sg28
S'--'
p113
sg30
S'W19-16'
p114
sg32
S'74'
p115
sg34
S'4'
p116
sg36
S'@DAL'
p117
sg38
S'25'
p118
sg40
S'0'
p119
sg41
S'--'
p120
ssS'14'
p121
(dp122
g5
S'--'
p123
sg7
S'--'
p124
sg9
g10
sg11
S'--'
p125
sg13
g10
sg14
S'Brandon Marshall'
p126
sg16
S'2015'
p127
sg18
S'14'
p128
sg20
S'--'
p129
sg22
S'12/13'
p130
sg24
S'20.8'
p131
sg26
S'--'
p132
sg28
S'--'
p133
sg30
S'W30-8'
p134
sg32
S'125'
p135
sg34
S'6'
p136
sg36
S'TEN'
p137
sg38
S'69T'
p138
sg40
g10
sg41
S'--'
p139
ssS'17'
p140
(dp141
g5
S'--'
p142
sg7
S'--'
p143
sg9
g10
sg11
S'--'
p144
sg13
g10
sg14
S'Brandon Marshall'
p145
sg16
S'2015'
p146
sg18
S'17'
p147
sg20
S'--'
p148
sg22
S'01/03'
p149
sg24
S'15.8'
p150
sg26
S'--'
p151
sg28
S'--'
p152
sg30
S'L17-22'
p153
sg32
S'126'
p154
sg34
S'8'
p155
sg36
S'@BUF'
p156
sg38
S'41'
p157
sg40
g10
sg41
S'--'
p158
ssS'16'
p159
(dp160
g5
S'--'
p161
sg7
S'--'
p162
sg9
g10
sg11
S'--'
p163
sg13
g10
sg14
S'Brandon Marshall'
p164
sg16
S'2015'
p165
sg18
S'16'
p166
sg20
S'--'
p167
sg22
S'12/27'
p168
sg24
S'14.4'
p169
sg26
S'--'
p170
sg28
S'--'
p171
sg30
S'W26-20'
p172
sg32
S'115'
p173
sg34
g155
sg36
S'NE'
p174
sg38
S'33T'
p175
sg40
g99
sg41
S'--'
p176
ssg10
(dp177
g5
S'--'
p178
sg7
S'--'
p179
sg9
g10
sg11
S'--'
p180
sg13
g10
sg14
S'Brandon Marshall'
p181
sg16
S'2015'
p182
sg18
g10
sg20
S'--'
p183
sg22
S'09/13'
p184
sg24
S'10.3'
p185
sg26
S'--'
p186
sg28
S'--'
p187
sg30
S'W31-10'
p188
sg32
S'62'
p189
sg34
g136
sg36
S'CLE'
p190
sg38
S'18'
p191
sg40
g10
sg41
S'--'
p192
ssg58
(dp193
g5
S'--'
p194
sg7
S'--'
p195
sg9
g10
sg11
g10
sg13
g10
sg14
S'Brandon Marshall'
p196
sg16
S'2015'
p197
sg18
g58
sg20
S'--'
p198
sg22
S'09/27'
p199
sg24
S'10.9'
p200
sg26
g99
sg28
S'--'
p201
sg30
S'L17-24'
p202
sg32
S'109'
p203
sg34
S'10'
p204
sg36
S'PHI'
p205
sg38
S'20'
p206
sg40
g10
sg41
S'--'
p207
ssg99
(dp208
g5
S'--'
p209
sg7
S'--'
p210
sg9
g10
sg11
S'--'
p211
sg13
g10
sg14
S'Brandon Marshall'
p212
sg16
S'2015'
p213
sg18
g99
sg20
S'--'
p214
sg22
S'09/21'
p215
sg24
S'14.4'
p216
sg26
S'--'
p217
sg28
S'--'
p218
sg30
S'W20-7'
p219
sg32
S'101'
p220
sg34
S'7'
p221
sg36
S'@IND'
p222
sg38
S'42'
p223
sg40
g10
sg41
S'--'
p224
ssg35
(dp225
g5
S''
p226
sg7
g226
sg9
g226
sg11
g226
sg13
g226
sg14
S'Brandon Marshall'
p227
sg16
S'2015'
p228
sg18
g35
sg20
g226
sg22
S'Bye'
p229
sg24
g226
sg26
g226
sg28
g226
sg30
g226
sg32
g226
sg34
g226
sg36
g226
sg38
g226
sg40
g226
sg41
g226
ssg116
(dp230
g5
S'--'
p231
sg7
S'--'
p232
sg9
g10
sg11
S'--'
p233
sg13
g10
sg14
S'Brandon Marshall'
p234
sg16
S'2015'
p235
sg18
g116
sg20
S'--'
p236
sg22
S'10/04'
p237
sg24
S'18.3'
p238
sg26
S'--'
p239
sg28
S'--'
p240
sg30
S'W27-14'
p241
sg32
S'128'
p242
sg34
g221
sg36
S'@MIA'
p243
sg38
S'58'
p244
sg40
g119
sg41
S'--'
p245
ssg221
(dp246
g5
S'--'
p247
sg7
S'--'
p248
sg9
g10
sg11
S'--'
p249
sg13
g10
sg14
S'Brandon Marshall'
p250
sg16
S'2015'
p251
sg18
g221
sg20
S'--'
p252
sg22
S'10/25'
p253
sg24
S'16.8'
p254
sg26
S'--'
p255
sg28
S'--'
p256
sg30
S'L23-30'
p257
sg32
S'67'
p258
sg34
g116
sg36
S'@NE'
p259
sg38
S'29'
p260
sg40
g119
sg41
S'--'
p261
ssg136
(dp262
g5
S'--'
p263
sg7
S'--'
p264
sg9
g10
sg11
g10
sg13
g10
sg14
S'Brandon Marshall'
p265
sg16
S'2015'
p266
sg18
g136
sg20
S'--'
p267
sg22
S'10/18'
p268
sg24
S'15.9'
p269
sg26
g10
sg28
S'--'
p270
sg30
S'W34-20'
p271
sg32
S'111'
p272
sg34
g221
sg36
S'WAS'
p273
sg38
S'35T'
p274
sg40
g10
sg41
S'--'
p275
ssg96
(dp276
g5
S'--'
p277
sg7
S'--'
p278
sg9
g10
sg11
S'--'
p279
sg13
g10
sg14
S'Brandon Marshall'
p280
sg16
S'2015'
p281
sg18
g96
sg20
S'--'
p282
sg22
S'11/08'
p283
sg24
S'11.0'
p284
sg26
S'--'
p285
sg28
S'--'
p286
sg30
S'W28-23'
p287
sg32
S'44'
p288
sg34
g116
sg36
S'JAC'
p289
sg38
S'20T'
p290
sg40
g10
sg41
S'--'
p291
ssg155
(dp292
g5
S'--'
p293
sg7
S'--'
p294
sg9
g10
sg11
S'--'
p295
sg13
g10
sg14
S'Brandon Marshall'
p296
sg16
S'2015'
p297
sg18
g155
sg20
S'--'
p298
sg22
S'11/01'
p299
sg24
S'12.0'
p300
sg26
S'--'
p301
sg28
S'--'
p302
sg30
S'L20-34'
p303
sg32
S'108'
p304
sg34
g96
sg36
S'@OAK'
p305
sg38
S'28'
p306
sg40
g119
sg41
S'--'
p307
sssS'2014'
p308
(dp309
g3
(dp310
g5
S'--'
p311
sg7
S'--'
p312
sg9
g10
sg11
S'--'
p313
sg13
g10
sg14
S'Brandon Marshall'
p314
sg16
S'2014'
p315
sg18
S'11'
p316
sg20
S'--'
p317
sg22
S'11/16'
p318
sg24
S'12.9'
p319
sg26
S'--'
p320
sg28
S'--'
p321
sg30
S'W21-13'
p322
sg32
S'90'
p323
sg34
g221
sg36
S'MIN'
p324
sg38
S'44T'
p325
sg40
g99
sg41
S'--'
p326
ssg43
(dp327
g5
S'--'
p328
sg7
S'--'
p329
sg9
g10
sg11
S'--'
p330
sg13
g10
sg14
S'Brandon Marshall'
p331
sg16
S'2014'
p332
sg18
S'10'
p333
sg20
S'--'
p334
sg22
S'11/09'
p335
sg24
S'14.0'
p336
sg26
S'--'
p337
sg28
S'--'
p338
sg30
S'L14-55'
p339
sg32
S'112'
p340
sg34
g155
sg36
S'@GB'
p341
sg38
S'45T'
p342
sg40
g10
sg41
S'--'
p343
ssg62
(dp344
g5
S'--'
p345
sg7
S'--'
p346
sg9
g10
sg11
S'--'
p347
sg13
g10
sg14
S'Brandon Marshall'
p348
sg16
S'2014'
p349
sg18
S'13'
p350
sg20
S'--'
p351
sg22
S'11/27'
p352
sg24
S'7.0'
p353
sg26
S'--'
p354
sg28
S'--'
p355
sg30
S'L17-34'
p356
sg32
S'42'
p357
sg34
g136
sg36
S'@DET'
p358
sg38
S'12'
p359
sg40
g119
sg41
S'--'
p360
ssg81
(dp361
g5
S'--'
p362
sg7
S'--'
p363
sg9
g10
sg11
S'--'
p364
sg13
g10
sg14
S'Brandon Marshall'
p365
sg16
S'2014'
p366
sg18
S'12'
p367
sg20
S'--'
p368
sg22
S'11/23'
p369
sg24
S'10.7'
p370
sg26
S'--'
p371
sg28
S'--'
p372
sg30
S'W21-13'
p373
sg32
S'32'
p374
sg34
g58
sg36
S'TB'
p375
sg38
S'15'
p376
sg40
g119
sg41
S'--'
p377
ssg121
(dp378
g5
S'--'
p379
sg7
S'--'
p380
sg9
g10
sg11
S'--'
p381
sg13
g10
sg14
S'Brandon Marshall'
p382
sg16
S'2014'
p383
sg18
S'14'
p384
sg20
S'--'
p385
sg22
S'12/04'
p386
sg24
S'20.3'
p387
sg26
S'--'
p388
sg28
S'--'
p389
sg30
S'L28-41'
p390
sg32
S'61'
p391
sg34
g58
sg36
S'DAL'
p392
sg38
S'42'
p393
sg40
g119
sg41
S'--'
p394
ssg10
(dp395
g5
S'--'
p396
sg7
S'--'
p397
sg9
g10
sg11
g10
sg13
g10
sg14
S'Brandon Marshall'
p398
sg16
S'2014'
p399
sg18
g10
sg20
S'--'
p400
sg22
S'09/07'
p401
sg24
S'8.9'
p402
sg26
g10
sg28
S'--'
p403
sg30
S'L20-23'
p404
sg32
S'71'
p405
sg34
g155
sg36
S'BUF'
p406
sg38
S'15'
p407
sg40
g10
sg41
S'--'
p408
ssg58
(dp409
g5
S'--'
p410
sg7
S'--'
p411
sg9
g10
sg11
S'--'
p412
sg13
g10
sg14
S'Brandon Marshall'
p413
sg16
S'2014'
p414
sg18
g58
sg20
S'--'
p415
sg22
S'09/22'
p416
sg24
S'6.0'
p417
sg26
S'--'
p418
sg28
S'--'
p419
sg30
S'W27-19'
p420
sg32
g136
sg34
g10
sg36
S'@NYJ'
p421
sg38
g136
sg40
g119
sg41
S'--'
p422
ssg99
(dp423
g5
S'--'
p424
sg7
S'--'
p425
sg9
g10
sg11
S'--'
p426
sg13
g10
sg14
S'Brandon Marshall'
p427
sg16
S'2014'
p428
sg18
g99
sg20
S'--'
p429
sg22
S'09/14'
p430
sg24
S'9.6'
p431
sg26
S'--'
p432
sg28
S'--'
p433
sg30
S'W28-20'
p434
sg32
S'48'
p435
sg34
g35
sg36
S'@SF'
p436
sg38
S'17T'
p437
sg40
g58
sg41
S'--'
p438
ssg35
(dp439
g5
S'--'
p440
sg7
S'--'
p441
sg9
g10
sg11
S'--'
p442
sg13
g10
sg14
S'Brandon Marshall'
p443
sg16
S'2014'
p444
sg18
g35
sg20
S'--'
p445
sg22
S'10/05'
p446
sg24
S'14.7'
p447
sg26
S'--'
p448
sg28
S'--'
p449
sg30
S'L24-31'
p450
sg32
S'44'
p451
sg34
g58
sg36
S'@CAR'
p452
sg38
S'18'
p453
sg40
g119
sg41
S'--'
p454
ssg116
(dp455
g5
S'--'
p456
sg7
S'--'
p457
sg9
g10
sg11
S'--'
p458
sg13
g10
sg14
S'Brandon Marshall'
p459
sg16
S'2014'
p460
sg18
g116
sg20
S'--'
p461
sg22
S'09/28'
p462
sg24
S'9.5'
p463
sg26
S'--'
p464
sg28
S'--'
p465
sg30
S'L17-38'
p466
sg32
S'19'
p467
sg34
g99
sg36
S'GB'
p468
sg38
S'13'
p469
sg40
g10
sg41
S'--'
p470
ssg221
(dp471
g5
S'--'
p472
sg7
S'--'
p473
sg9
g10
sg11
S'--'
p474
sg13
g10
sg14
S'Brandon Marshall'
p475
sg16
S'2014'
p476
sg18
g221
sg20
S'--'
p477
sg22
S'10/19'
p478
sg24
S'8.0'
p479
sg26
S'--'
p480
sg28
S'--'
p481
sg30
S'L14-27'
p482
sg32
S'48'
p483
sg34
g136
sg36
S'MIA'
p484
sg38
S'15'
p485
sg40
g119
sg41
S'--'
p486
ssg136
(dp487
g5
S'--'
p488
sg7
S'--'
p489
sg9
g10
sg11
S'--'
p490
sg13
g10
sg14
S'Brandon Marshall'
p491
sg16
S'2014'
p492
sg18
g136
sg20
S'--'
p493
sg22
S'10/12'
p494
sg24
S'18.8'
p495
sg26
S'--'
p496
sg28
S'--'
p497
sg30
S'W27-13'
p498
sg32
S'113'
p499
sg34
g136
sg36
S'@ATL'
p500
sg38
S'47'
p501
sg40
g119
sg41
S'--'
p502
ssg96
(dp503
g5
g226
sg7
g226
sg9
g226
sg11
g226
sg13
g226
sg14
S'Brandon Marshall'
p504
sg16
S'2014'
p505
sg18
g96
sg20
g226
sg22
S'Bye'
p506
sg24
g226
sg26
g226
sg28
g226
sg30
g226
sg32
g226
sg34
g226
sg36
g226
sg38
g226
sg40
g226
sg41
g226
ssg155
(dp507
g5
S'--'
p508
sg7
S'--'
p509
sg9
g10
sg11
S'--'
p510
sg13
g10
sg14
S'Brandon Marshall'
p511
sg16
S'2014'
p512
sg18
g155
sg20
S'--'
p513
sg22
S'10/26'
p514
sg24
S'11.7'
p515
sg26
S'--'
p516
sg28
S'--'
p517
sg30
S'L23-51'
p518
sg32
S'35'
p519
sg34
g58
sg36
S'@NE'
p520
sg38
S'17'
p521
sg40
g119
sg41
S'--'
p522
sssS'2011'
p523
(dp524
g3
(dp525
g5
S'--'
p526
sg7
S'--'
p527
sg9
g10
sg11
S'--'
p528
sg13
g10
sg14
S'Brandon Marshall'
p529
sg16
S'2011'
p530
sg18
S'11'
p531
sg20
S'--'
p532
sg22
S'11/20'
p533
sg24
S'5.0'
p534
sg26
S'--'
p535
sg28
S'--'
p536
sg30
S'W35-8'
p537
sg32
g35
sg34
g10
sg36
S'BUF'
p538
sg38
g35
sg40
g119
sg41
S'--'
p539
ssg43
(dp540
g5
S'--'
p541
sg7
S'--'
p542
sg9
g10
sg11
S'--'
p543
sg13
g10
sg14
S'Brandon Marshall'
p544
sg16
S'2011'
p545
sg18
S'10'
p546
sg20
S'--'
p547
sg22
S'11/13'
p548
sg24
S'14.0'
p549
sg26
S'--'
p550
sg28
S'--'
p551
sg30
S'W20-9'
p552
sg32
S'98'
p553
sg34
g221
sg36
S'WAS'
p554
sg38
S'26'
p555
sg40
g119
sg41
S'--'
p556
ssg62
(dp557
g5
S'--'
p558
sg7
S'--'
p559
sg9
g10
sg11
S'--'
p560
sg13
g10
sg14
S'Brandon Marshall'
p561
sg16
S'2011'
p562
sg18
S'13'
p563
sg20
S'--'
p564
sg22
S'12/04'
p565
sg24
S'15.0'
p566
sg26
S'--'
p567
sg28
S'--'
p568
sg30
S'W34-14'
p569
sg32
S'60'
p570
sg34
g116
sg36
S'OAK'
p571
sg38
S'38'
p572
sg40
g119
sg41
S'--'
p573
ssg81
(dp574
g5
S'--'
p575
sg7
S'--'
p576
sg9
g10
sg11
S'--'
p577
sg13
g10
sg14
S'Brandon Marshall'
p578
sg16
S'2011'
p579
sg18
S'12'
p580
sg20
S'--'
p581
sg22
S'11/24'
p582
sg24
S'20.6'
p583
sg26
S'--'
p584
sg28
S'--'
p585
sg30
S'L19-20'
p586
sg32
S'103'
p587
sg34
g35
sg36
S'@DAL'
p588
sg38
S'39'
p589
sg40
g10
sg41
S'--'
p590
ssg101
(dp591
g5
S'--'
p592
sg7
S'--'
p593
sg9
g10
sg11
g10
sg13
g10
sg14
S'Brandon Marshall'
p594
sg16
S'2011'
p595
sg18
S'15'
p596
sg20
S'--'
p597
sg22
S'12/18'
p598
sg24
S'28.0'
p599
sg26
g10
sg28
S'--'
p600
sg30
S'W30-23'
p601
sg32
S'84'
p602
sg34
g58
sg36
S'@BUF'
p603
sg38
S'65T'
p604
sg40
g10
sg41
S'--'
p605
ssg121
(dp606
g5
S'--'
p607
sg7
S'--'
p608
sg9
g10
sg11
S'--'
p609
sg13
g10
sg14
S'Brandon Marshall'
p610
sg16
S'2011'
p611
sg18
S'14'
p612
sg20
S'--'
p613
sg22
S'12/11'
p614
sg24
S'6.8'
p615
sg26
S'--'
p616
sg28
S'--'
p617
sg30
S'L10-26'
p618
sg32
S'27'
p619
sg34
g116
sg36
S'PHI'
p620
sg38
S'16T'
p621
sg40
g10
sg41
S'--'
p622
ssg140
(dp623
g5
S'--'
p624
sg7
S'--'
p625
sg9
g10
sg11
S'--'
p626
sg13
g10
sg14
S'Brandon Marshall'
p627
sg16
S'2011'
p628
sg18
S'17'
p629
sg20
S'--'
p630
sg22
S'01/01'
p631
sg24
S'10.0'
p632
sg26
S'--'
p633
sg28
S'--'
p634
sg30
S'W19-17'
p635
sg32
S'50'
p636
sg34
g35
sg36
S'NYJ'
p637
sg38
S'19'
p638
sg40
g119
sg41
S'--'
p639
ssg159
(dp640
g5
g119
sg7
S'13'
p641
sg9
g10
sg11
S'--'
p642
sg13
g10
sg14
S'Brandon Marshall'
p643
sg16
S'2011'
p644
sg18
S'16'
p645
sg20
S'13.0'
p646
sg22
S'12/24'
p647
sg24
S'23.8'
p648
sg26
S'--'
p649
sg28
g10
sg30
S'L24-27'
p650
sg32
S'143'
p651
sg34
g136
sg36
S'@NE'
p652
sg38
S'47'
p653
sg40
g10
sg41
S'13'
p654
ssg10
(dp655
g5
S'--'
p656
sg7
S'--'
p657
sg9
g10
sg11
S'--'
p658
sg13
g10
sg14
S'Brandon Marshall'
p659
sg16
S'2011'
p660
sg18
g10
sg20
S'--'
p661
sg22
S'09/12'
p662
sg24
S'19.9'
p663
sg26
S'--'
p664
sg28
S'--'
p665
sg30
S'L24-38'
p666
sg32
S'139'
p667
sg34
g221
sg36
S'NE'
p668
sg38
S'31'
p669
sg40
g119
sg41
S'--'
p670
ssg58
(dp671
g5
S'--'
p672
sg7
S'--'
p673
sg9
g10
sg11
S'--'
p674
sg13
g10
sg14
S'Brandon Marshall'
p675
sg16
S'2011'
p676
sg18
g58
sg20
S'--'
p677
sg22
S'09/25'
p678
sg24
S'10.8'
p679
sg26
S'--'
p680
sg28
S'--'
p681
sg30
S'L16-17'
p682
sg32
S'43'
p683
sg34
g116
sg36
S'@CLE'
p684
sg38
S'15'
p685
sg40
g119
sg41
S'--'
p686
ssg99
(dp687
g5
S'--'
p688
sg7
S'--'
p689
sg9
g10
sg11
S'--'
p690
sg13
g10
sg14
S'Brandon Marshall'
p691
sg16
S'2011'
p692
sg18
g99
sg20
S'--'
p693
sg22
S'09/18'
p694
sg24
S'13.2'
p695
sg26
S'--'
p696
sg28
S'--'
p697
sg30
S'L13-23'
p698
sg32
S'79'
p699
sg34
g136
sg36
S'HOU'
p700
sg38
S'29'
p701
sg40
g10
sg41
S'--'
p702
ssg35
(dp703
g5
g226
sg7
g226
sg9
g226
sg11
g226
sg13
g226
sg14
S'Brandon Marshall'
p704
sg16
S'2011'
p705
sg18
g35
sg20
g226
sg22
S'Bye'
p706
sg24
g226
sg26
g226
sg28
g226
sg30
g226
sg32
g226
sg34
g226
sg36
g226
sg38
g226
sg40
g226
sg41
g226
ssg116
(dp707
g5
S'--'
p708
sg7
S'--'
p709
sg9
g10
sg11
S'--'
p710
sg13
g10
sg14
S'Brandon Marshall'
p711
sg16
S'2011'
p712
sg18
g116
sg20
S'--'
p713
sg22
S'10/02'
p714
sg24
S'10.4'
p715
sg26
S'--'
p716
sg28
S'--'
p717
sg30
S'L16-26'
p718
sg32
S'52'
p719
sg34
g35
sg36
S'@SD'
p720
sg38
S'14'
p721
sg40
g119
sg41
S'--'
p722
ssg221
(dp723
g5
S'--'
p724
sg7
S'--'
p725
sg9
g10
sg11
S'--'
p726
sg13
g10
sg14
S'Brandon Marshall'
p727
sg16
S'2011'
p728
sg18
g221
sg20
S'--'
p729
sg22
S'10/23'
p730
sg24
S'10.2'
p731
sg26
S'--'
p732
sg28
S'--'
p733
sg30
S'L15-18'
p734
sg32
S'61'
p735
sg34
g136
sg36
S'DEN'
p736
sg38
S'16'
p737
sg40
g119
sg41
S'--'
p738
ssg136
(dp739
g5
S'--'
p740
sg7
S'--'
p741
sg9
g10
sg11
S'--'
p742
sg13
g10
sg14
S'Brandon Marshall'
p743
sg16
S'2011'
p744
sg18
g136
sg20
S'--'
p745
sg22
S'10/17'
p746
sg24
S'18.2'
p747
sg26
S'--'
p748
sg28
S'--'
p749
sg30
S'L6-24'
p750
sg32
S'109'
p751
sg34
g136
sg36
S'@NYJ'
p752
sg38
S'46'
p753
sg40
g119
sg41
S'--'
p754
ssg96
(dp755
g5
S'--'
p756
sg7
S'--'
p757
sg9
g10
sg11
S'--'
p758
sg13
g10
sg14
S'Brandon Marshall'
p759
sg16
S'2011'
p760
sg18
g96
sg20
S'--'
p761
sg22
S'11/06'
p762
sg24
S'13.3'
p763
sg26
S'--'
p764
sg28
S'--'
p765
sg30
S'W31-3'
p766
sg32
S'106'
p767
sg34
g155
sg36
S'@KC'
p768
sg38
S'30'
p769
sg40
g10
sg41
S'--'
p770
ssg155
(dp771
g5
S'--'
p772
sg7
S'--'
p773
sg9
g10
sg11
S'--'
p774
sg13
g10
sg14
S'Brandon Marshall'
p775
sg16
S'2011'
p776
sg18
g155
sg20
S'--'
p777
sg22
S'10/30'
p778
sg24
S'13.8'
p779
sg26
S'--'
p780
sg28
S'--'
p781
sg30
S'L17-20'
p782
sg32
S'55'
p783
sg34
g116
sg36
S'@NYG'
p784
sg38
S'20'
p785
sg40
g119
sg41
S'--'
p786
sssS'2010'
p787
(dp788
g3
(dp789
g5
S'--'
p790
sg7
S'--'
p791
sg9
g10
sg11
S'--'
p792
sg13
g10
sg14
S'Brandon Marshall'
p793
sg16
S'2010'
p794
sg18
S'11'
p795
sg20
S'--'
p796
sg22
S'11/18'
p797
sg24
S'13.7'
p798
sg26
S'--'
p799
sg28
S'--'
p800
sg30
S'L0-16'
p801
sg32
S'41'
p802
sg34
g58
sg36
S'CHI'
p803
sg38
S'18'
p804
sg40
g119
sg41
S'--'
p805
ssg43
(dp806
g5
S'--'
p807
sg7
S'--'
p808
sg9
g10
sg11
S'--'
p809
sg13
g10
sg14
S'Brandon Marshall'
p810
sg16
S'2010'
p811
sg18
S'10'
p812
sg20
S'--'
p813
sg22
S'11/14'
p814
sg24
S'11.3'
p815
sg26
S'--'
p816
sg28
S'--'
p817
sg30
S'W29-17'
p818
sg32
S'34'
p819
sg34
g58
sg36
S'TEN'
p820
sg38
S'16'
p821
sg40
g119
sg41
S'--'
p822
ssg62
(dp823
g5
S'--'
p824
sg7
S'--'
p825
sg9
g119
sg11
S'--'
p826
sg13
g119
sg14
S'Brandon Marshall'
p827
sg16
S'2010'
p828
sg18
S'13'
p829
sg20
S'--'
p830
sg22
S'12/05'
p831
sg24
S'--'
p832
sg26
S'--'
p833
sg28
S'--'
p834
sg30
S'L10-13'
p835
sg32
S'--'
p836
sg34
S'--'
p837
sg36
S'CLE'
p838
sg38
S'--'
p839
sg40
S'--'
p840
sg41
S'--'
p841
ssg81
(dp842
g5
S'--'
p843
sg7
S'--'
p844
sg9
g119
sg11
S'--'
p845
sg13
g119
sg14
S'Brandon Marshall'
p846
sg16
S'2010'
p847
sg18
S'12'
p848
sg20
S'--'
p849
sg22
S'11/28'
p850
sg24
S'--'
p851
sg26
S'--'
p852
sg28
S'--'
p853
sg30
S'W33-17'
p854
sg32
S'--'
p855
sg34
S'--'
p856
sg36
S'@OAK'
p857
sg38
S'--'
p858
sg40
S'--'
p859
sg41
S'--'
p860
ssg101
(dp861
g5
S'--'
p862
sg7
S'--'
p863
sg9
g10
sg11
g10
sg13
g10
sg14
S'Brandon Marshall'
p864
sg16
S'2010'
p865
sg18
S'15'
p866
sg20
S'--'
p867
sg22
S'12/19'
p868
sg24
S'9.6'
p869
sg26
g10
sg28
S'--'
p870
sg30
S'L14-17'
p871
sg32
S'106'
p872
sg34
S'11'
p873
sg36
S'BUF'
p874
sg38
S'16'
p875
sg40
g10
sg41
S'--'
p876
ssg121
(dp877
g5
S'--'
p878
sg7
S'--'
p879
sg9
g10
sg11
S'--'
p880
sg13
g10
sg14
S'Brandon Marshall'
p881
sg16
S'2010'
p882
sg18
S'14'
p883
sg20
S'--'
p884
sg22
S'12/12'
p885
sg24
S'8.0'
p886
sg26
S'--'
p887
sg28
S'--'
p888
sg30
S'W10-6'
p889
sg32
S'16'
p890
sg34
g99
sg36
S'@NYJ'
p891
sg38
S'10'
p892
sg40
g10
sg41
S'--'
p893
ssg140
(dp894
g5
S'--'
p895
sg7
S'--'
p896
sg9
g10
sg11
S'--'
p897
sg13
g10
sg14
S'Brandon Marshall'
p898
sg16
S'2010'
p899
sg18
S'17'
p900
sg20
S'--'
p901
sg22
S'01/02'
p902
sg24
S'19.4'
p903
sg26
S'--'
p904
sg28
S'--'
p905
sg30
S'L7-38'
p906
sg32
S'97'
p907
sg34
g35
sg36
S'@NE'
p908
sg38
S'35'
p909
sg40
g119
sg41
S'--'
p910
ssg159
(dp911
g5
S'--'
p912
sg7
S'--'
p913
sg9
g10
sg11
S'--'
p914
sg13
g10
sg14
S'Brandon Marshall'
p915
sg16
S'2010'
p916
sg18
S'16'
p917
sg20
S'--'
p918
sg22
S'12/26'
p919
sg24
S'10.2'
p920
sg26
S'--'
p921
sg28
S'--'
p922
sg30
S'L27-34'
p923
sg32
S'102'
p924
sg34
S'10'
p925
sg36
S'DET'
p926
sg38
S'14'
p927
sg40
g119
sg41
S'--'
p928
ssg10
(dp929
g5
S'--'
p930
sg7
S'--'
p931
sg9
g10
sg11
S'--'
p932
sg13
g10
sg14
S'Brandon Marshall'
p933
sg16
S'2010'
p934
sg18
g10
sg20
S'--'
p935
sg22
S'09/12'
p936
sg24
S'6.6'
p937
sg26
S'--'
p938
sg28
S'--'
p939
sg30
S'W15-10'
p940
sg32
S'53'
p941
sg34
g155
sg36
S'@BUF'
p942
sg38
S'13'
p943
sg40
g119
sg41
S'--'
p944
ssg58
(dp945
g5
g119
sg7
g58
sg9
g10
sg11
S'--'
p946
sg13
g10
sg14
S'Brandon Marshall'
p947
sg16
S'2010'
p948
sg18
g58
sg20
S'1.5'
p949
sg22
S'09/26'
p950
sg24
S'16.6'
p951
sg26
S'--'
p952
sg28
g99
sg30
S'L23-31'
p953
sg32
S'166'
p954
sg34
S'10'
p955
sg36
S'NYJ'
p956
sg38
S'40'
p957
sg40
g10
sg41
g116
ssg99
(dp958
g5
S'--'
p959
sg7
S'--'
p960
sg9
g10
sg11
S'--'
p961
sg13
g10
sg14
S'Brandon Marshall'
p962
sg16
S'2010'
p963
sg18
g99
sg20
S'--'
p964
sg22
S'09/19'
p965
sg24
S'17.8'
p966
sg26
S'--'
p967
sg28
S'--'
p968
sg30
S'W14-10'
p969
sg32
S'71'
p970
sg34
g116
sg36
S'@MIN'
p971
sg38
S'46'
p972
sg40
g119
sg41
S'--'
p973
ssg35
(dp974
g5
g226
sg7
g226
sg9
g226
sg11
g226
sg13
g226
sg14
S'Brandon Marshall'
p975
sg16
S'2010'
p976
sg18
g35
sg20
g226
sg22
S'Bye'
p977
sg24
g226
sg26
g226
sg28
g226
sg30
g226
sg32
g226
sg34
g226
sg36
g226
sg38
g226
sg40
g226
sg41
g226
ssg116
(dp978
g5
S'--'
p979
sg7
S'--'
p980
sg9
g10
sg11
S'--'
p981
sg13
g10
sg14
S'Brandon Marshall'
p982
sg16
S'2010'
p983
sg18
g116
sg20
S'--'
p984
sg22
S'10/04'
p985
sg24
S'10.0'
p986
sg26
S'--'
p987
sg28
S'--'
p988
sg30
S'L14-41'
p989
sg32
S'50'
p990
sg34
g35
sg36
S'NE'
p991
sg38
S'19'
p992
sg40
g119
sg41
S'--'
p993
ssg221
(dp994
g5
S'--'
p995
sg7
S'--'
p996
sg9
g10
sg11
S'--'
p997
sg13
g10
sg14
S'Brandon Marshall'
p998
sg16
S'2010'
p999
sg18
g221
sg20
S'--'
p1000
sg22
S'10/24'
p1001
sg24
S'11.4'
p1002
sg26
S'--'
p1003
sg28
S'--'
p1004
sg30
S'L22-23'
p1005
sg32
S'57'
p1006
sg34
g35
sg36
S'PIT'
p1007
sg38
S'19'
p1008
sg40
g119
sg41
S'--'
p1009
ssg136
(dp1010
g5
S'--'
p1011
sg7
S'--'
p1012
sg9
g10
sg11
S'--'
p1013
sg13
g10
sg14
S'Brandon Marshall'
p1014
sg16
S'2010'
p1015
sg18
g136
sg20
S'--'
p1016
sg22
S'10/17'
p1017
sg24
S'12.7'
p1018
sg26
S'--'
p1019
sg28
S'--'
p1020
sg30
S'W23-20'
p1021
sg32
S'127'
p1022
sg34
S'10'
p1023
sg36
S'@GB'
p1024
sg38
S'23'
p1025
sg40
g119
sg41
S'--'
p1026
ssg96
(dp1027
g5
S'--'
p1028
sg7
S'--'
p1029
sg9
g10
sg11
g119
sg13
g10
sg14
S'Brandon Marshall'
p1030
sg16
S'2010'
p1031
sg18
g96
sg20
S'--'
p1032
sg22
S'11/07'
p1033
sg24
S'6.0'
p1034
sg26
g10
sg28
S'--'
p1035
sg30
S'L10-26'
p1036
sg32
S'30'
p1037
sg34
g35
sg36
S'@BAL'
p1038
sg38
S'21'
p1039
sg40
g119
sg41
S'--'
p1040
ssg155
(dp1041
g5
S'--'
p1042
sg7
S'--'
p1043
sg9
g10
sg11
S'--'
p1044
sg13
g10
sg14
S'Brandon Marshall'
p1045
sg16
S'2010'
p1046
sg18
g155
sg20
S'--'
p1047
sg22
S'10/31'
p1048
sg24
S'12.8'
p1049
sg26
S'--'
p1050
sg28
S'--'
p1051
sg30
S'W22-14'
p1052
sg32
S'64'
p1053
sg34
g35
sg36
S'@CIN'
p1054
sg38
S'25'
p1055
sg40
g119
sg41
S'--'
p1056
sssS'2013'
p1057
(dp1058
g3
(dp1059
g5
S'--'
p1060
sg7
S'--'
p1061
sg9
g10
sg11
S'--'
p1062
sg13
g10
sg14
S'Brandon Marshall'
p1063
sg16
S'2013'
p1064
sg18
S'11'
p1065
sg20
S'--'
p1066
sg22
S'11/17'
p1067
sg24
S'10.5'
p1068
sg26
S'--'
p1069
sg28
S'--'
p1070
sg30
S'W23-20'
p1071
sg32
S'42'
p1072
sg34
g116
sg36
S'BAL'
p1073
sg38
S'16'
p1074
sg40
g119
sg41
S'--'
p1075
ssg43
(dp1076
g5
S'--'
p1077
sg7
S'--'
p1078
sg9
g10
sg11
S'--'
p1079
sg13
g10
sg14
S'Brandon Marshall'
p1080
sg16
S'2013'
p1081
sg18
S'10'
p1082
sg20
S'--'
p1083
sg22
S'11/10'
p1084
sg24
S'19.9'
p1085
sg26
S'--'
p1086
sg28
S'--'
p1087
sg30
S'L19-21'
p1088
sg32
S'139'
p1089
sg34
g221
sg36
S'DET'
p1090
sg38
S'44'
p1091
sg40
g99
sg41
S'--'
p1092
ssg62
(dp1093
g5
S'--'
p1094
sg7
S'--'
p1095
sg9
g10
sg11
S'--'
p1096
sg13
g10
sg14
S'Brandon Marshall'
p1097
sg16
S'2013'
p1098
sg18
S'13'
p1099
sg20
S'--'
p1100
sg22
S'12/01'
p1101
sg24
S'11.3'
p1102
sg26
S'--'
p1103
sg28
S'--'
p1104
sg30
S'L20-23'
p1105
sg32
S'45'
p1106
sg34
g116
sg36
S'@MIN'
p1107
sg38
S'15'
p1108
sg40
g119
sg41
S'--'
p1109
ssg81
(dp1110
g5
S'--'
p1111
sg7
S'--'
p1112
sg9
g10
sg11
S'--'
p1113
sg13
g10
sg14
S'Brandon Marshall'
p1114
sg16
S'2013'
p1115
sg18
S'12'
p1116
sg20
S'--'
p1117
sg22
S'11/24'
p1118
sg24
S'11.7'
p1119
sg26
S'--'
p1120
sg28
S'--'
p1121
sg30
S'L21-42'
p1122
sg32
S'117'
p1123
sg34
S'10'
p1124
sg36
S'@STL'
p1125
sg38
S'23'
p1126
sg40
g10
sg41
S'--'
p1127
ssg101
(dp1128
g5
S'--'
p1129
sg7
S'--'
p1130
sg9
g10
sg11
S'--'
p1131
sg13
g10
sg14
S'Brandon Marshall'
p1132
sg16
S'2013'
p1133
sg18
S'15'
p1134
sg20
S'--'
p1135
sg22
S'12/15'
p1136
sg24
S'15.8'
p1137
sg26
S'--'
p1138
sg28
S'--'
p1139
sg30
S'W38-31'
p1140
sg32
S'95'
p1141
sg34
g136
sg36
S'@CLE'
p1142
sg38
S'41'
p1143
sg40
g10
sg41
S'--'
p1144
ssg121
(dp1145
g5
S'--'
p1146
sg7
S'--'
p1147
sg9
g10
sg11
S'--'
p1148
sg13
g10
sg14
S'Brandon Marshall'
p1149
sg16
S'2013'
p1150
sg18
S'14'
p1151
sg20
S'--'
p1152
sg22
S'12/09'
p1153
sg24
S'16.7'
p1154
sg26
S'--'
p1155
sg28
S'--'
p1156
sg30
S'W45-28'
p1157
sg32
S'100'
p1158
sg34
g136
sg36
S'DAL'
p1159
sg38
S'22'
p1160
sg40
g119
sg41
S'--'
p1161
ssg140
(dp1162
g5
S'--'
p1163
sg7
S'--'
p1164
sg9
g10
sg11
S'--'
p1165
sg13
g10
sg14
S'Brandon Marshall'
p1166
sg16
S'2013'
p1167
sg18
S'17'
p1168
sg20
S'--'
p1169
sg22
S'12/29'
p1170
sg24
S'12.3'
p1171
sg26
S'--'
p1172
sg28
S'--'
p1173
sg30
S'L28-33'
p1174
sg32
S'74'
p1175
sg34
g136
sg36
S'GB'
p1176
sg38
S'37'
p1177
sg40
g10
sg41
S'--'
p1178
ssg159
(dp1179
g5
S'--'
p1180
sg7
S'--'
p1181
sg9
g10
sg11
S'--'
p1182
sg13
g10
sg14
S'Brandon Marshall'
p1183
sg16
S'2013'
p1184
sg18
S'16'
p1185
sg20
S'--'
p1186
sg22
S'12/22'
p1187
sg24
S'9.0'
p1188
sg26
S'--'
p1189
sg28
S'--'
p1190
sg30
S'L11-54'
p1191
sg32
S'36'
p1192
sg34
g116
sg36
S'@PHI'
p1193
sg38
S'14'
p1194
sg40
g10
sg41
S'--'
p1195
ssg10
(dp1196
g5
S'--'
p1197
sg7
S'--'
p1198
sg9
g10
sg11
S'--'
p1199
sg13
g10
sg14
S'Brandon Marshall'
p1200
sg16
S'2013'
p1201
sg18
g10
sg20
S'--'
p1202
sg22
S'09/08'
p1203
sg24
S'13.0'
p1204
sg26
S'--'
p1205
sg28
S'--'
p1206
sg30
S'W24-21'
p1207
sg32
S'104'
p1208
sg34
g155
sg36
S'CIN'
p1209
sg38
S'38'
p1210
sg40
g10
sg41
S'--'
p1211
ssg58
(dp1212
g5
S'--'
p1213
sg7
S'--'
p1214
sg9
g10
sg11
S'--'
p1215
sg13
g10
sg14
S'Brandon Marshall'
p1216
sg16
S'2013'
p1217
sg18
g58
sg20
S'--'
p1218
sg22
S'09/22'
p1219
sg24
S'10.4'
p1220
sg26
S'--'
p1221
sg28
S'--'
p1222
sg30
S'W40-23'
p1223
sg32
S'52'
p1224
sg34
g35
sg36
S'@PIT'
p1225
sg38
S'41'
p1226
sg40
g119
sg41
S'--'
p1227
ssg99
(dp1228
g5
S'--'
p1229
sg7
S'--'
p1230
sg9
g10
sg11
S'--'
p1231
sg13
g10
sg14
S'Brandon Marshall'
p1232
sg16
S'2013'
p1233
sg18
g99
sg20
S'--'
p1234
sg22
S'09/15'
p1235
sg24
S'16.1'
p1236
sg26
S'--'
p1237
sg28
S'--'
p1238
sg30
S'W31-30'
p1239
sg32
S'113'
p1240
sg34
g221
sg36
S'MIN'
p1241
sg38
S'34T'
p1242
sg40
g10
sg41
S'--'
p1243
ssg35
(dp1244
g5
S'--'
p1245
sg7
S'--'
p1246
sg9
g10
sg11
S'--'
p1247
sg13
g10
sg14
S'Brandon Marshall'
p1248
sg16
S'2013'
p1249
sg18
g35
sg20
S'--'
p1250
sg22
S'10/06'
p1251
sg24
S'7.5'
p1252
sg26
S'--'
p1253
sg28
S'--'
p1254
sg30
S'L18-26'
p1255
sg32
S'30'
p1256
sg34
g116
sg36
S'NO'
p1257
sg38
S'12'
p1258
sg40
g10
sg41
S'--'
p1259
ssg116
(dp1260
g5
S'--'
p1261
sg7
S'--'
p1262
sg9
g10
sg11
S'--'
p1263
sg13
g10
sg14
S'Brandon Marshall'
p1264
sg16
S'2013'
p1265
sg18
g116
sg20
S'--'
p1266
sg22
S'09/29'
p1267
sg24
S'11.3'
p1268
sg26
S'--'
p1269
sg28
S'--'
p1270
sg30
S'L32-40'
p1271
sg32
S'79'
p1272
sg34
g221
sg36
S'@DET'
p1273
sg38
S'24'
p1274
sg40
g119
sg41
S'--'
p1275
ssg221
(dp1276
g5
S'--'
p1277
sg7
S'--'
p1278
sg9
g10
sg11
S'--'
p1279
sg13
g10
sg14
S'Brandon Marshall'
p1280
sg16
S'2013'
p1281
sg18
g221
sg20
S'--'
p1282
sg22
S'10/20'
p1283
sg24
S'12.5'
p1284
sg26
S'--'
p1285
sg28
S'--'
p1286
sg30
S'L41-45'
p1287
sg32
S'75'
p1288
sg34
g136
sg36
S'@WAS'
p1289
sg38
S'28'
p1290
sg40
g119
sg41
S'--'
p1291
ssg136
(dp1292
g5
S'--'
p1293
sg7
S'--'
p1294
sg9
g10
sg11
S'--'
p1295
sg13
g10
sg14
S'Brandon Marshall'
p1296
sg16
S'2013'
p1297
sg18
g136
sg20
S'--'
p1298
sg22
S'10/10'
p1299
sg24
S'9.7'
p1300
sg26
S'--'
p1301
sg28
S'--'
p1302
sg30
S'W27-21'
p1303
sg32
S'87'
p1304
sg34
g96
sg36
S'NYG'
p1305
sg38
S'20'
p1306
sg40
g99
sg41
S'--'
p1307
ssg96
(dp1308
g5
S'--'
p1309
sg7
S'--'
p1310
sg9
g10
sg11
S'--'
p1311
sg13
g10
sg14
S'Brandon Marshall'
p1312
sg16
S'2013'
p1313
sg18
g96
sg20
S'--'
p1314
sg22
S'11/04'
p1315
sg24
S'15.3'
p1316
sg26
S'--'
p1317
sg28
S'--'
p1318
sg30
S'W27-20'
p1319
sg32
S'107'
p1320
sg34
g221
sg36
S'@GB'
p1321
sg38
S'23T'
p1322
sg40
g10
sg41
S'--'
p1323
ssg155
(dp1324
g5
g226
sg7
g226
sg9
g226
sg11
g226
sg13
g226
sg14
S'Brandon Marshall'
p1325
sg16
S'2013'
p1326
sg18
g155
sg20
g226
sg22
S'Bye'
p1327
sg24
g226
sg26
g226
sg28
g226
sg30
g226
sg32
g226
sg34
g226
sg36
g226
sg38
g226
sg40
g226
sg41
g226
sssS'2012'
p1328
(dp1329
g3
(dp1330
g5
S'--'
p1331
sg7
S'--'
p1332
sg9
g10
sg11
S'--'
p1333
sg13
g10
sg14
S'Brandon Marshall'
p1334
sg16
S'2012'
p1335
sg18
S'11'
p1336
sg20
S'--'
p1337
sg22
S'11/19'
p1338
sg24
S'10.5'
p1339
sg26
S'--'
p1340
sg28
S'--'
p1341
sg30
S'L7-32'
p1342
sg32
S'21'
p1343
sg34
g99
sg36
S'@SF'
p1344
sg38
S'13T'
p1345
sg40
g10
sg41
S'--'
p1346
ssg43
(dp1347
g5
S'--'
p1348
sg7
S'--'
p1349
sg9
g10
sg11
S'--'
p1350
sg13
g10
sg14
S'Brandon Marshall'
p1351
sg16
S'2012'
p1352
sg18
S'10'
p1353
sg20
S'--'
p1354
sg22
S'11/11'
p1355
sg24
S'13.4'
p1356
sg26
S'--'
p1357
sg28
S'--'
p1358
sg30
S'L6-13'
p1359
sg32
S'107'
p1360
sg34
g155
sg36
S'HOU'
p1361
sg38
S'45'
p1362
sg40
g119
sg41
S'--'
p1363
ssg62
(dp1364
g5
S'--'
p1365
sg7
S'--'
p1366
sg9
g10
sg11
g119
sg13
g10
sg14
S'Brandon Marshall'
p1367
sg16
S'2012'
p1368
sg18
S'13'
p1369
sg20
S'--'
p1370
sg22
S'12/02'
p1371
sg24
S'16.5'
p1372
sg26
g10
sg28
S'--'
p1373
sg30
S'L17-23'
p1374
sg32
S'165'
p1375
sg34
S'10'
p1376
sg36
S'SEA'
p1377
sg38
S'56'
p1378
sg40
g119
sg41
S'--'
p1379
ssg81
(dp1380
g5
S'--'
p1381
sg7
S'--'
p1382
sg9
g10
sg11
S'--'
p1383
sg13
g10
sg14
S'Brandon Marshall'
p1384
sg16
S'2012'
p1385
sg18
S'12'
p1386
sg20
S'--'
p1387
sg22
S'11/25'
p1388
sg24
S'7.7'
p1389
sg26
S'--'
p1390
sg28
S'--'
p1391
sg30
S'W28-10'
p1392
sg32
S'92'
p1393
sg34
S'12'
p1394
sg36
S'MIN'
p1395
sg38
S'17'
p1396
sg40
g119
sg41
S'--'
p1397
ssg101
(dp1398
g5
S'--'
p1399
sg7
S'--'
p1400
sg9
g10
sg11
g119
sg13
g10
sg14
S'Brandon Marshall'
p1401
sg16
S'2012'
p1402
sg18
S'15'
p1403
sg20
S'--'
p1404
sg22
S'12/16'
p1405
sg24
S'9.3'
p1406
sg26
g10
sg28
S'--'
p1407
sg30
S'L13-21'
p1408
sg32
S'56'
p1409
sg34
g136
sg36
S'GB'
p1410
sg38
S'15T'
p1411
sg40
g10
sg41
S'--'
p1412
ssg121
(dp1413
g5
S'--'
p1414
sg7
S'--'
p1415
sg9
g10
sg11
S'--'
p1416
sg13
g10
sg14
S'Brandon Marshall'
p1417
sg16
S'2012'
p1418
sg18
S'14'
p1419
sg20
S'--'
p1420
sg22
S'12/09'
p1421
sg24
S'16.0'
p1422
sg26
S'--'
p1423
sg28
S'--'
p1424
sg30
S'L14-21'
p1425
sg32
S'160'
p1426
sg34
S'10'
p1427
sg36
S'@MIN'
p1428
sg38
S'39'
p1429
sg40
g10
sg41
S'--'
p1430
ssg140
(dp1431
g5
g119
sg7
S'-2'
p1432
sg9
g10
sg11
S'--'
p1433
sg13
g10
sg14
S'Brandon Marshall'
p1434
sg16
S'2012'
p1435
sg18
S'17'
p1436
sg20
S'-2.0'
p1437
sg22
S'12/30'
p1438
sg24
S'8.4'
p1439
sg26
S'--'
p1440
sg28
g10
sg30
S'W26-24'
p1441
sg32
S'42'
p1442
sg34
g35
sg36
S'@DET'
p1443
sg38
S'19'
p1444
sg40
g119
sg41
S'-2'
p1445
ssg159
(dp1446
g5
S'--'
p1447
sg7
S'--'
p1448
sg9
g10
sg11
S'--'
p1449
sg13
g10
sg14
S'Brandon Marshall'
p1450
sg16
S'2012'
p1451
sg18
S'16'
p1452
sg20
S'--'
p1453
sg22
S'12/23'
p1454
sg24
S'11.3'
p1455
sg26
S'--'
p1456
sg28
S'--'
p1457
sg30
S'W28-13'
p1458
sg32
S'68'
p1459
sg34
g136
sg36
S'@ARI'
p1460
sg38
S'30'
p1461
sg40
g10
sg41
S'--'
p1462
ssg10
(dp1463
g5
S'--'
p1464
sg7
S'--'
p1465
sg9
g10
sg11
S'--'
p1466
sg13
g10
sg14
S'Brandon Marshall'
p1467
sg16
S'2012'
p1468
sg18
g10
sg20
S'--'
p1469
sg22
S'09/09'
p1470
sg24
S'13.2'
p1471
sg26
S'--'
p1472
sg28
S'--'
p1473
sg30
S'W41-21'
p1474
sg32
S'119'
p1475
sg34
g96
sg36
S'IND'
p1476
sg38
S'24'
p1477
sg40
g10
sg41
S'--'
p1478
ssg58
(dp1479
g5
S'--'
p1480
sg7
S'--'
p1481
sg9
g10
sg11
S'--'
p1482
sg13
g10
sg14
S'Brandon Marshall'
p1483
sg16
S'2012'
p1484
sg18
g58
sg20
S'--'
p1485
sg22
S'09/23'
p1486
sg24
S'14.2'
p1487
sg26
S'--'
p1488
sg28
S'--'
p1489
sg30
S'W23-6'
p1490
sg32
S'71'
p1491
sg34
g35
sg36
S'STL'
p1492
sg38
S'34'
p1493
sg40
g119
sg41
S'--'
p1494
ssg99
(dp1495
g5
S'--'
p1496
sg7
S'--'
p1497
sg9
g10
sg11
S'--'
p1498
sg13
g10
sg14
S'Brandon Marshall'
p1499
sg16
S'2012'
p1500
sg18
g99
sg20
S'--'
p1501
sg22
S'09/13'
p1502
sg24
S'12.0'
p1503
sg26
S'--'
p1504
sg28
S'--'
p1505
sg30
S'L10-23'
p1506
sg32
S'24'
p1507
sg34
g99
sg36
S'@GB'
p1508
sg38
S'14'
p1509
sg40
g119
sg41
S'--'
p1510
ssg35
(dp1511
g5
S'--'
p1512
sg7
S'--'
p1513
sg9
g10
sg11
S'--'
p1514
sg13
g10
sg14
S'Brandon Marshall'
p1515
sg16
S'2012'
p1516
sg18
g35
sg20
S'--'
p1517
sg22
S'10/07'
p1518
sg24
S'12.0'
p1519
sg26
S'--'
p1520
sg28
S'--'
p1521
sg30
S'W41-3'
p1522
sg32
S'144'
p1523
sg34
S'12'
p1524
sg36
S'@JAC'
p1525
sg38
S'24T'
p1526
sg40
g10
sg41
S'--'
p1527
ssg116
(dp1528
g5
S'--'
p1529
sg7
S'--'
p1530
sg9
g10
sg11
S'--'
p1531
sg13
g10
sg14
S'Brandon Marshall'
p1532
sg16
S'2012'
p1533
sg18
g116
sg20
S'--'
p1534
sg22
S'10/01'
p1535
sg24
S'19.7'
p1536
sg26
S'--'
p1537
sg28
S'--'
p1538
sg30
S'W34-18'
p1539
sg32
S'138'
p1540
sg34
g221
sg36
S'@DAL'
p1541
sg38
S'31T'
p1542
sg40
g10
sg41
S'--'
p1543
ssg221
(dp1544
g5
S'--'
p1545
sg7
S'--'
p1546
sg9
g10
sg11
S'--'
p1547
sg13
g10
sg14
S'Brandon Marshall'
p1548
sg16
S'2012'
p1549
sg18
g221
sg20
S'--'
p1550
sg22
S'10/22'
p1551
sg24
S'13.5'
p1552
sg26
S'--'
p1553
sg28
S'--'
p1554
sg30
S'W13-7'
p1555
sg32
S'81'
p1556
sg34
g136
sg36
S'DET'
p1557
sg38
S'20'
p1558
sg40
g10
sg41
S'--'
p1559
ssg136
(dp1560
g5
g226
sg7
g226
sg9
g226
sg11
g226
sg13
g226
sg14
S'Brandon Marshall'
p1561
sg16
S'2012'
p1562
sg18
g136
sg20
g226
sg22
S'Bye'
p1563
sg24
g226
sg26
g226
sg28
g226
sg30
g226
sg32
g226
sg34
g226
sg36
g226
sg38
g226
sg40
g226
sg41
g226
ssg96
(dp1564
g5
S'--'
p1565
sg7
S'--'
p1566
sg9
g10
sg11
S'--'
p1567
sg13
g10
sg14
S'Brandon Marshall'
p1568
sg16
S'2012'
p1569
sg18
g96
sg20
S'--'
p1570
sg22
S'11/04'
p1571
sg24
S'13.6'
p1572
sg26
S'--'
p1573
sg28
S'--'
p1574
sg30
S'W51-20'
p1575
sg32
S'122'
p1576
sg34
g96
sg36
S'@TEN'
p1577
sg38
S'39T'
p1578
sg40
g58
sg41
S'--'
p1579
ssg155
(dp1580
g5
S'--'
p1581
sg7
S'--'
p1582
sg9
g10
sg11
S'--'
p1583
sg13
g10
sg14
S'Brandon Marshall'
p1584
sg16
S'2012'
p1585
sg18
g155
sg20
S'--'
p1586
sg22
S'10/28'
p1587
sg24
S'10.9'
p1588
sg26
S'--'
p1589
sg28
S'--'
p1590
sg30
S'W23-22'
p1591
sg32
S'98'
p1592
sg34
g96
sg36
S'CAR'
p1593
sg38
S'18'
p1594
sg40
g119
sg41
S'--'
p1595
sss.