(dp0
S'2015'
p1
(dp2
S'11'
p3
(dp4
S'RushTD'
p5
S''
p6
sS'RushYds'
p7
g6
sS'GS'
p8
g6
sS'Lost'
p9
g6
sS'G'
p10
g6
sS'Player'
p11
S'Brandin Cooks'
p12
sS'Year'
p13
S'2015'
p14
sS'WK'
p15
S'11'
p16
sS'RushAvg'
p17
g6
sS'Game Date'
p18
S'Bye'
p19
sS'RecAvg'
p20
g6
sS'FUM'
p21
g6
sS'RushAtt'
p22
g6
sS'Result'
p23
g6
sS'RecYds'
p24
g6
sS'Rec'
p25
g6
sS'Opp'
p26
g6
sS'RecLng'
p27
g6
sS'RecTD'
p28
g6
sS'RushLng'
p29
g6
ssS'10'
p30
(dp31
g5
S'0'
p32
sg7
S'11'
p33
sg8
S'1'
p34
sg9
S'--'
p35
sg10
g34
sg11
S'Brandin Cooks'
p36
sg13
S'2015'
p37
sg15
S'10'
p38
sg17
S'11.0'
p39
sg18
S'11/15'
p40
sg20
S'19.6'
p41
sg21
S'--'
p42
sg22
g34
sg23
S'L14-47'
p43
sg24
S'98'
p44
sg25
S'5'
p45
sg26
S'@WAS'
p46
sg27
S'60T'
p47
sg28
S'2'
p48
sg29
S'11'
p49
ssS'13'
p50
(dp51
g5
S'--'
p52
sg7
S'--'
p53
sg8
g34
sg9
S'--'
p54
sg10
g34
sg11
S'Brandin Cooks'
p55
sg13
S'2015'
p56
sg15
S'13'
p57
sg17
S'--'
p58
sg18
S'12/06'
p59
sg20
S'17.3'
p60
sg21
S'--'
p61
sg22
S'--'
p62
sg23
S'L38-41'
p63
sg24
S'104'
p64
sg25
S'6'
p65
sg26
S'CAR'
p66
sg27
S'54T'
p67
sg28
g34
sg29
S'--'
p68
ssS'12'
p69
(dp70
g5
S'--'
p71
sg7
S'--'
p72
sg8
g34
sg9
S'--'
p73
sg10
g34
sg11
S'Brandin Cooks'
p74
sg13
S'2015'
p75
sg15
S'12'
p76
sg17
S'--'
p77
sg18
S'11/29'
p78
sg20
S'7.0'
p79
sg21
S'--'
p80
sg22
S'--'
p81
sg23
S'L6-24'
p82
sg24
S'35'
p83
sg25
g45
sg26
S'@HOU'
p84
sg27
S'11'
p85
sg28
g32
sg29
S'--'
p86
ssS'15'
p87
(dp88
g5
S'--'
p89
sg7
S'--'
p90
sg8
g32
sg9
S'--'
p91
sg10
g34
sg11
S'Brandin Cooks'
p92
sg13
S'2015'
p93
sg15
S'15'
p94
sg17
S'--'
p95
sg18
S'12/21'
p96
sg20
S'12.4'
p97
sg21
S'--'
p98
sg22
S'--'
p99
sg23
S'L27-35'
p100
sg24
S'124'
p101
sg25
S'10'
p102
sg26
S'DET'
p103
sg27
S'28'
p104
sg28
g34
sg29
S'--'
p105
ssS'14'
p106
(dp107
g5
S'--'
p108
sg7
S'--'
p109
sg8
g32
sg9
S'--'
p110
sg10
g34
sg11
S'Brandin Cooks'
p111
sg13
S'2015'
p112
sg15
S'14'
p113
sg17
S'--'
p114
sg18
S'12/13'
p115
sg20
S'9.7'
p116
sg21
S'--'
p117
sg22
S'--'
p118
sg23
S'W24-17'
p119
sg24
S'29'
p120
sg25
S'3'
p121
sg26
S'@TB'
p122
sg27
S'14'
p123
sg28
g32
sg29
S'--'
p124
ssS'17'
p125
(dp126
g5
S'--'
p127
sg7
S'--'
p128
sg8
g34
sg9
S'--'
p129
sg10
g34
sg11
S'Brandin Cooks'
p130
sg13
S'2015'
p131
sg15
S'17'
p132
sg17
S'--'
p133
sg18
S'01/03'
p134
sg20
S'4.4'
p135
sg21
S'--'
p136
sg22
S'--'
p137
sg23
S'W20-17'
p138
sg24
S'22'
p139
sg25
g45
sg26
S'@ATL'
p140
sg27
S'12'
p141
sg28
g32
sg29
S'--'
p142
ssS'16'
p143
(dp144
g5
g32
sg7
S'10'
p145
sg8
g34
sg9
S'--'
p146
sg10
g34
sg11
S'Brandin Cooks'
p147
sg13
S'2015'
p148
sg15
S'16'
p149
sg17
S'2.5'
p150
sg18
S'12/27'
p151
sg20
S'24.6'
p152
sg21
S'--'
p153
sg22
S'4'
p154
sg23
S'W38-27'
p155
sg24
S'123'
p156
sg25
g45
sg26
S'JAC'
p157
sg27
S'71T'
p158
sg28
g34
sg29
g45
ssg34
(dp159
g5
g32
sg7
g154
sg8
g34
sg9
S'--'
p160
sg10
g34
sg11
S'Brandin Cooks'
p161
sg13
S'2015'
p162
sg15
g34
sg17
S'4.0'
p163
sg18
S'09/13'
p164
sg20
S'12.3'
p165
sg21
S'--'
p166
sg22
g34
sg23
S'L19-31'
p167
sg24
S'49'
p168
sg25
g154
sg26
S'@ARI'
p169
sg27
S'30'
p170
sg28
g32
sg29
g154
ssg121
(dp171
g5
S'--'
p172
sg7
S'--'
p173
sg8
g34
sg9
S'--'
p174
sg10
g34
sg11
S'Brandin Cooks'
p175
sg13
S'2015'
p176
sg15
g121
sg17
S'--'
p177
sg18
S'09/27'
p178
sg20
S'11.3'
p179
sg21
S'--'
p180
sg22
S'--'
p181
sg23
S'L22-27'
p182
sg24
S'79'
p183
sg25
S'7'
p184
sg26
S'@CAR'
p185
sg27
S'16'
p186
sg28
g32
sg29
S'--'
p187
ssg48
(dp188
g5
g32
sg7
S'-4'
p189
sg8
g34
sg9
S'--'
p190
sg10
g34
sg11
S'Brandin Cooks'
p191
sg13
S'2015'
p192
sg15
g48
sg17
S'-4.0'
p193
sg18
S'09/20'
p194
sg20
S'12.4'
p195
sg21
S'--'
p196
sg22
g34
sg23
S'L19-26'
p197
sg24
S'62'
p198
sg25
g45
sg26
S'TB'
p199
sg27
S'21'
p200
sg28
g32
sg29
S'-4'
p201
ssg45
(dp202
g5
S'--'
p203
sg7
S'--'
p204
sg8
g34
sg9
S'--'
p205
sg10
g34
sg11
S'Brandin Cooks'
p206
sg13
S'2015'
p207
sg15
g45
sg17
S'--'
p208
sg18
S'10/11'
p209
sg20
S'21.4'
p210
sg21
S'--'
p211
sg22
S'--'
p212
sg23
S'L17-39'
p213
sg24
S'107'
p214
sg25
g45
sg26
S'@PHI'
p215
sg27
S'46'
p216
sg28
g34
sg29
S'--'
p217
ssg154
(dp218
g5
S'--'
p219
sg7
S'--'
p220
sg8
g34
sg9
S'--'
p221
sg10
g34
sg11
S'Brandin Cooks'
p222
sg13
S'2015'
p223
sg15
g154
sg17
S'--'
p224
sg18
S'10/04'
p225
sg20
S'6.3'
p226
sg21
S'--'
p227
sg22
S'--'
p228
sg23
S'W26-20'
p229
sg24
S'25'
p230
sg25
g154
sg26
S'DAL'
p231
sg27
S'13'
p232
sg28
g32
sg29
S'--'
p233
ssg184
(dp234
g5
S'--'
p235
sg7
S'--'
p236
sg8
g34
sg9
g32
sg10
g34
sg11
S'Brandin Cooks'
p237
sg13
S'2015'
p238
sg15
g184
sg17
S'--'
p239
sg18
S'10/25'
p240
sg20
S'13.5'
p241
sg21
g34
sg22
S'--'
p242
sg23
S'W27-21'
p243
sg24
S'81'
p244
sg25
g65
sg26
S'@IND'
p245
sg27
S'47'
p246
sg28
g32
sg29
S'--'
p247
ssg65
(dp248
g5
S'--'
p249
sg7
S'--'
p250
sg8
g32
sg9
S'--'
p251
sg10
g34
sg11
S'Brandin Cooks'
p252
sg13
S'2015'
p253
sg15
g65
sg17
S'--'
p254
sg18
S'10/15'
p255
sg20
S'10.3'
p256
sg21
S'--'
p257
sg22
S'--'
p258
sg23
S'W31-21'
p259
sg24
S'41'
p260
sg25
g154
sg26
S'ATL'
p261
sg27
S'26'
p262
sg28
g32
sg29
S'--'
p263
ssS'9'
p264
(dp265
g5
S'--'
p266
sg7
S'--'
p267
sg8
g34
sg9
S'--'
p268
sg10
g34
sg11
S'Brandin Cooks'
p269
sg13
S'2015'
p270
sg15
g264
sg17
S'--'
p271
sg18
S'11/08'
p272
sg20
S'17.8'
p273
sg21
S'--'
p274
sg22
S'--'
p275
sg23
S'L28-34'
p276
sg24
S'71'
p277
sg25
g154
sg26
S'TEN'
p278
sg27
S'38T'
p279
sg28
g34
sg29
S'--'
p280
ssS'8'
p281
(dp282
g5
g32
sg7
S'-3'
p283
sg8
g32
sg9
S'--'
p284
sg10
g34
sg11
S'Brandin Cooks'
p285
sg13
S'2015'
p286
sg15
g281
sg17
S'-3.0'
p287
sg18
S'11/01'
p288
sg20
S'14.7'
p289
sg21
S'--'
p290
sg22
g34
sg23
S'W52-49'
p291
sg24
S'88'
p292
sg25
g65
sg26
S'NYG'
p293
sg27
S'26T'
p294
sg28
g48
sg29
S'-3'
p295
sssS'2014'
p296
(dp297
g3
(dp298
g5
g32
sg7
g45
sg8
g32
sg9
g32
sg10
g34
sg11
S'Brandin Cooks'
p299
sg13
S'2014'
p300
sg15
S'11'
p301
sg17
S'5.0'
p302
sg18
S'11/16'
p303
sg20
S'10.0'
p304
sg21
g34
sg22
g34
sg23
S'L10-27'
p305
sg24
S'50'
p306
sg25
g45
sg26
S'CIN'
p307
sg27
S'14'
p308
sg28
g32
sg29
g45
ssg30
(dp309
g5
S'--'
p310
sg7
S'--'
p311
sg8
g32
sg9
S'--'
p312
sg10
g34
sg11
S'Brandin Cooks'
p313
sg13
S'2014'
p314
sg15
S'10'
p315
sg17
S'--'
p316
sg18
S'11/09'
p317
sg20
S'18.0'
p318
sg21
S'--'
p319
sg22
S'--'
p320
sg23
S'L24-27'
p321
sg24
S'90'
p322
sg25
g45
sg26
S'SF'
p323
sg27
S'40'
p324
sg28
g34
sg29
S'--'
p325
ssg34
(dp326
g5
g32
sg7
S'18'
p327
sg8
g32
sg9
S'--'
p328
sg10
g34
sg11
S'Brandin Cooks'
p329
sg13
S'2014'
p330
sg15
g34
sg17
S'18.0'
p331
sg18
S'09/07'
p332
sg20
S'11.0'
p333
sg21
S'--'
p334
sg22
g34
sg23
S'L34-37'
p335
sg24
S'77'
p336
sg25
g184
sg26
S'@ATL'
p337
sg27
S'32'
p338
sg28
g34
sg29
S'18'
p339
ssg121
(dp340
g5
S'--'
p341
sg7
S'--'
p342
sg8
g34
sg9
S'--'
p343
sg10
g34
sg11
S'Brandin Cooks'
p344
sg13
S'2014'
p345
sg15
g121
sg17
S'--'
p346
sg18
S'09/21'
p347
sg20
S'9.3'
p348
sg21
S'--'
p349
sg22
S'--'
p350
sg23
S'W20-9'
p351
sg24
S'74'
p352
sg25
g281
sg26
S'MIN'
p353
sg27
S'19'
p354
sg28
g32
sg29
S'--'
p355
ssg48
(dp356
g5
g32
sg7
S'31'
p357
sg8
g34
sg9
S'--'
p358
sg10
g34
sg11
S'Brandin Cooks'
p359
sg13
S'2014'
p360
sg15
g48
sg17
S'15.5'
p361
sg18
S'09/14'
p362
sg20
S'5.7'
p363
sg21
S'--'
p364
sg22
g48
sg23
S'L24-26'
p365
sg24
S'17'
p366
sg25
g121
sg26
S'@CLE'
p367
sg27
S'13'
p368
sg28
g32
sg29
S'28'
p369
ssg45
(dp370
g5
g32
sg7
S'15'
p371
sg8
g34
sg9
S'--'
p372
sg10
g34
sg11
S'Brandin Cooks'
p373
sg13
S'2014'
p374
sg15
g45
sg17
S'7.5'
p375
sg18
S'10/05'
p376
sg20
S'6.2'
p377
sg21
S'--'
p378
sg22
g48
sg23
S'W37-31'
p379
sg24
S'56'
p380
sg25
g264
sg26
S'TB'
p381
sg27
S'16'
p382
sg28
g32
sg29
S'12'
p383
ssg154
(dp384
g5
S'--'
p385
sg7
S'--'
p386
sg8
g34
sg9
S'--'
p387
sg10
g34
sg11
S'Brandin Cooks'
p388
sg13
S'2014'
p389
sg15
g154
sg17
S'--'
p390
sg18
S'09/28'
p391
sg20
S'6.2'
p392
sg21
S'--'
p393
sg22
S'--'
p394
sg23
S'L17-38'
p395
sg24
S'31'
p396
sg25
g45
sg26
S'@DAL'
p397
sg27
S'12'
p398
sg28
g32
sg29
S'--'
p399
ssg184
(dp400
g5
S'--'
p401
sg7
S'--'
p402
sg8
g34
sg9
S'--'
p403
sg10
g34
sg11
S'Brandin Cooks'
p404
sg13
S'2014'
p405
sg15
g184
sg17
S'--'
p406
sg18
S'10/19'
p407
sg20
S'11.5'
p408
sg21
S'--'
p409
sg22
S'--'
p410
sg23
S'L23-24'
p411
sg24
S'23'
p412
sg25
g48
sg26
S'@DET'
p413
sg27
S'14'
p414
sg28
g32
sg29
S'--'
p415
ssg65
(dp416
g5
g6
sg7
g6
sg8
g6
sg9
g6
sg10
g6
sg11
S'Brandin Cooks'
p417
sg13
S'2014'
p418
sg15
g65
sg17
g6
sg18
S'Bye'
p419
sg20
g6
sg21
g6
sg22
g6
sg23
g6
sg24
g6
sg25
g6
sg26
g6
sg27
g6
sg28
g6
sg29
g6
ssg264
(dp420
g5
S'--'
p421
sg7
S'--'
p422
sg8
g34
sg9
S'--'
p423
sg10
g34
sg11
S'Brandin Cooks'
p424
sg13
S'2014'
p425
sg15
g264
sg17
S'--'
p426
sg18
S'10/30'
p427
sg20
S'12.7'
p428
sg21
S'--'
p429
sg22
S'--'
p430
sg23
S'W28-10'
p431
sg24
S'38'
p432
sg25
g121
sg26
S'@CAR'
p433
sg27
S'18'
p434
sg28
g32
sg29
S'--'
p435
ssg281
(dp436
g5
g34
sg7
g154
sg8
g34
sg9
S'--'
p437
sg10
g34
sg11
S'Brandin Cooks'
p438
sg13
S'2014'
p439
sg15
g281
sg17
S'4.0'
p440
sg18
S'10/26'
p441
sg20
S'15.7'
p442
sg21
S'--'
p443
sg22
g34
sg23
S'W44-23'
p444
sg24
S'94'
p445
sg25
g65
sg26
S'GB'
p446
sg27
S'50T'
p447
sg28
g34
sg29
S'4T'
p448
sss.