(dp0
S'2015'
p1
(dp2
S'11'
p3
(dp4
S'RushTD'
p5
S'--'
p6
sS'RushYds'
p7
S'--'
p8
sS'GS'
p9
S'0'
p10
sS'Lost'
p11
S'--'
p12
sS'G'
p13
S'1'
p14
sS'Player'
p15
S'Brandon LaFell'
p16
sS'Year'
p17
S'2015'
p18
sS'WK'
p19
S'11'
p20
sS'RushAvg'
p21
S'--'
p22
sS'Game Date'
p23
S'11/23'
p24
sS'RecAvg'
p25
S'16.5'
p26
sS'FUM'
p27
S'--'
p28
sS'RushAtt'
p29
S'--'
p30
sS'Result'
p31
S'W20-13'
p32
sS'RecYds'
p33
S'66'
p34
sS'Rec'
p35
S'4'
p36
sS'Opp'
p37
S'BUF'
p38
sS'RecLng'
p39
S'27'
p40
sS'RecTD'
p41
g10
sS'RushLng'
p42
S'--'
p43
ssS'10'
p44
(dp45
g5
S'--'
p46
sg7
S'--'
p47
sg9
g10
sg11
S'--'
p48
sg13
g14
sg15
S'Brandon LaFell'
p49
sg17
S'2015'
p50
sg19
S'10'
p51
sg21
S'--'
p52
sg23
S'11/15'
p53
sg25
S'33.0'
p54
sg27
S'--'
p55
sg29
S'--'
p56
sg31
S'W27-26'
p57
sg33
S'66'
p58
sg35
S'2'
p59
sg37
S'@NYG'
p60
sg39
S'54'
p61
sg41
g10
sg42
S'--'
p62
ssS'13'
p63
(dp64
g5
S'--'
p65
sg7
S'--'
p66
sg9
g14
sg11
S'--'
p67
sg13
g14
sg15
S'Brandon LaFell'
p68
sg17
S'2015'
p69
sg19
S'13'
p70
sg21
S'--'
p71
sg23
S'12/06'
p72
sg25
S'6.8'
p73
sg27
S'--'
p74
sg29
S'--'
p75
sg31
S'L28-35'
p76
sg33
S'27'
p77
sg35
g36
sg37
S'PHI'
p78
sg39
S'12'
p79
sg41
g10
sg42
S'--'
p80
ssS'12'
p81
(dp82
g5
S'--'
p83
sg7
S'--'
p84
sg9
g14
sg11
S'--'
p85
sg13
g14
sg15
S'Brandon LaFell'
p86
sg17
S'2015'
p87
sg19
S'12'
p88
sg21
S'--'
p89
sg23
S'11/29'
p90
sg25
S'9.0'
p91
sg27
S'--'
p92
sg29
S'--'
p93
sg31
S'L24-30'
p94
sg33
S'36'
p95
sg35
g36
sg37
S'@DEN'
p96
sg39
S'14'
p97
sg41
g10
sg42
S'--'
p98
ssS'15'
p99
(dp100
g5
g10
sg7
g10
sg9
g14
sg11
S'--'
p101
sg13
g14
sg15
S'Brandon LaFell'
p102
sg17
S'2015'
p103
sg19
S'15'
p104
sg21
S'0.0'
p105
sg23
S'12/20'
p106
sg25
S'22.0'
p107
sg27
S'--'
p108
sg29
g14
sg31
S'W33-16'
p109
sg33
S'88'
p110
sg35
g36
sg37
S'TEN'
p111
sg39
S'31'
p112
sg41
g10
sg42
g10
ssS'14'
p113
(dp114
g5
S'--'
p115
sg7
S'--'
p116
sg9
g14
sg11
S'--'
p117
sg13
g14
sg15
S'Brandon LaFell'
p118
sg17
S'2015'
p119
sg19
S'14'
p120
sg21
S'--'
p121
sg23
S'12/13'
p122
sg25
S'6.4'
p123
sg27
S'--'
p124
sg29
S'--'
p125
sg31
S'W27-6'
p126
sg33
S'32'
p127
sg35
S'5'
p128
sg37
S'@HOU'
p129
sg39
S'10'
p130
sg41
g10
sg42
S'--'
p131
ssS'17'
p132
(dp133
g5
S'--'
p134
sg7
S'--'
p135
sg9
g14
sg11
S'--'
p136
sg13
g14
sg15
S'Brandon LaFell'
p137
sg17
S'2015'
p138
sg19
S'17'
p139
sg21
S'--'
p140
sg23
S'01/03'
p141
sg25
S'3.5'
p142
sg27
S'--'
p143
sg29
S'--'
p144
sg31
S'L10-20'
p145
sg33
S'7'
p146
sg35
g59
sg37
S'@MIA'
p147
sg39
S'8'
p148
sg41
g10
sg42
S'--'
p149
ssS'16'
p150
(dp151
g5
g10
sg7
S'9'
p152
sg9
g14
sg11
S'--'
p153
sg13
g14
sg15
S'Brandon LaFell'
p154
sg17
S'2015'
p155
sg19
S'16'
p156
sg21
S'9.0'
p157
sg23
S'12/27'
p158
sg25
S'19.0'
p159
sg27
S'--'
p160
sg29
g14
sg31
S'L20-26'
p161
sg33
S'19'
p162
sg35
g14
sg37
S'@NYJ'
p163
sg39
S'19'
p164
sg41
g10
sg42
g152
ssg146
(dp165
g5
S'--'
p166
sg7
S'--'
p167
sg9
g14
sg11
S'--'
p168
sg13
g14
sg15
S'Brandon LaFell'
p169
sg17
S'2015'
p170
sg19
g146
sg21
S'--'
p171
sg23
S'10/25'
p172
sg25
S'12.5'
p173
sg27
S'--'
p174
sg29
S'--'
p175
sg31
S'W30-23'
p176
sg33
S'25'
p177
sg35
g59
sg37
S'NYJ'
p178
sg39
S'19'
p179
sg41
g10
sg42
S'--'
p180
ssg152
(dp181
g5
S'--'
p182
sg7
S'--'
p183
sg9
g10
sg11
S'--'
p184
sg13
g14
sg15
S'Brandon LaFell'
p185
sg17
S'2015'
p186
sg19
g152
sg21
S'--'
p187
sg23
S'11/08'
p188
sg25
S'20.4'
p189
sg27
S'--'
p190
sg29
S'--'
p191
sg31
S'W27-10'
p192
sg33
S'102'
p193
sg35
g128
sg37
S'WAS'
p194
sg39
S'48'
p195
sg41
g10
sg42
S'--'
p196
ssg148
(dp197
g5
S'--'
p198
sg7
S'--'
p199
sg9
g10
sg11
S'--'
p200
sg13
g14
sg15
S'Brandon LaFell'
p201
sg17
S'2015'
p202
sg19
g148
sg21
S'--'
p203
sg23
S'10/29'
p204
sg25
S'11.8'
p205
sg27
S'--'
p206
sg29
S'--'
p207
sg31
S'W36-7'
p208
sg33
S'47'
p209
sg35
g36
sg37
S'MIA'
p210
sg39
S'25'
p211
sg41
g10
sg42
S'--'
p212
sssS'2014'
p213
(dp214
g3
(dp215
g5
S'--'
p216
sg7
S'--'
p217
sg9
g10
sg11
S'--'
p218
sg13
g14
sg15
S'Brandon LaFell'
p219
sg17
S'2014'
p220
sg19
S'11'
p221
sg21
S'--'
p222
sg23
S'11/16'
p223
sg25
S'20.7'
p224
sg27
S'--'
p225
sg29
S'--'
p226
sg31
S'W42-20'
p227
sg33
S'62'
p228
sg35
S'3'
p229
sg37
S'@IND'
p230
sg39
S'26'
p231
sg41
g10
sg42
S'--'
p232
ssg44
(dp233
g5
S''
p234
sg7
g234
sg9
g234
sg11
g234
sg13
g234
sg15
S'Brandon LaFell'
p235
sg17
S'2014'
p236
sg19
S'10'
p237
sg21
g234
sg23
S'Bye'
p238
sg25
g234
sg27
g234
sg29
g234
sg31
g234
sg33
g234
sg35
g234
sg37
g234
sg39
g234
sg41
g234
sg42
g234
ssg63
(dp239
g5
S'--'
p240
sg7
S'--'
p241
sg9
g14
sg11
S'--'
p242
sg13
g14
sg15
S'Brandon LaFell'
p243
sg17
S'2014'
p244
sg19
S'13'
p245
sg21
S'--'
p246
sg23
S'11/30'
p247
sg25
S'7.6'
p248
sg27
S'--'
p249
sg29
S'--'
p250
sg31
S'L21-26'
p251
sg33
S'38'
p252
sg35
g128
sg37
S'@GB'
p253
sg39
S'15T'
p254
sg41
g59
sg42
S'--'
p255
ssg81
(dp256
g5
S'--'
p257
sg7
S'--'
p258
sg9
g14
sg11
S'--'
p259
sg13
g14
sg15
S'Brandon LaFell'
p260
sg17
S'2014'
p261
sg19
S'12'
p262
sg21
S'--'
p263
sg23
S'11/23'
p264
sg25
S'10.9'
p265
sg27
S'--'
p266
sg29
S'--'
p267
sg31
S'W34-9'
p268
sg33
S'98'
p269
sg35
g152
sg37
S'DET'
p270
sg39
S'16'
p271
sg41
g10
sg42
S'--'
p272
ssg99
(dp273
g5
S'--'
p274
sg7
S'--'
p275
sg9
g14
sg11
S'--'
p276
sg13
g14
sg15
S'Brandon LaFell'
p277
sg17
S'2014'
p278
sg19
S'15'
p279
sg21
S'--'
p280
sg23
S'12/14'
p281
sg25
S'11.0'
p282
sg27
S'--'
p283
sg29
S'--'
p284
sg31
S'W41-13'
p285
sg33
S'66'
p286
sg35
S'6'
p287
sg37
S'MIA'
p288
sg39
S'19'
p289
sg41
g10
sg42
S'--'
p290
ssg113
(dp291
g5
S'--'
p292
sg7
S'--'
p293
sg9
g14
sg11
g14
sg13
g14
sg15
S'Brandon LaFell'
p294
sg17
S'2014'
p295
sg19
S'14'
p296
sg21
S'--'
p297
sg23
S'12/07'
p298
sg25
S'10.3'
p299
sg27
g14
sg29
S'--'
p300
sg31
S'W23-14'
p301
sg33
S'41'
p302
sg35
g36
sg37
S'@SD'
p303
sg39
S'19'
p304
sg41
g10
sg42
S'--'
p305
ssg132
(dp306
g5
g10
sg7
S'13'
p307
sg9
g14
sg11
S'--'
p308
sg13
g14
sg15
S'Brandon LaFell'
p309
sg17
S'2014'
p310
sg19
S'17'
p311
sg21
S'6.5'
p312
sg23
S'12/28'
p313
sg25
S'17.5'
p314
sg27
S'--'
p315
sg29
g59
sg31
S'L9-17'
p316
sg33
S'70'
p317
sg35
g36
sg37
S'BUF'
p318
sg39
S'27'
p319
sg41
g10
sg42
g152
ssg150
(dp320
g5
S'--'
p321
sg7
S'--'
p322
sg9
g14
sg11
S'--'
p323
sg13
g14
sg15
S'Brandon LaFell'
p324
sg17
S'2014'
p325
sg19
S'16'
p326
sg21
S'--'
p327
sg23
S'12/21'
p328
sg25
S'9.1'
p329
sg27
S'--'
p330
sg29
S'--'
p331
sg31
S'W17-16'
p332
sg33
S'64'
p333
sg35
g146
sg37
S'@NYJ'
p334
sg39
S'14'
p335
sg41
g10
sg42
S'--'
p336
ssg14
(dp337
g5
S'--'
p338
sg7
S'--'
p339
sg9
g10
sg11
S'--'
p340
sg13
g14
sg15
S'Brandon LaFell'
p341
sg17
S'2014'
p342
sg19
g14
sg21
S'--'
p343
sg23
S'09/07'
p344
sg25
S'--'
p345
sg27
S'--'
p346
sg29
S'--'
p347
sg31
S'L20-33'
p348
sg33
g10
sg35
g10
sg37
S'@MIA'
p349
sg39
S'--'
p350
sg41
g10
sg42
S'--'
p351
ssg229
(dp352
g5
S'--'
p353
sg7
S'--'
p354
sg9
g14
sg11
S'--'
p355
sg13
g14
sg15
S'Brandon LaFell'
p356
sg17
S'2014'
p357
sg19
g229
sg21
S'--'
p358
sg23
S'09/21'
p359
sg25
S'11.5'
p360
sg27
S'--'
p361
sg29
S'--'
p362
sg31
S'W16-9'
p363
sg33
S'46'
p364
sg35
g36
sg37
S'OAK'
p365
sg39
S'15'
p366
sg41
g10
sg42
S'--'
p367
ssg59
(dp368
g5
S'--'
p369
sg7
S'--'
p370
sg9
g10
sg11
S'--'
p371
sg13
g14
sg15
S'Brandon LaFell'
p372
sg17
S'2014'
p373
sg19
g59
sg21
S'--'
p374
sg23
S'09/14'
p375
sg25
S'--'
p376
sg27
S'--'
p377
sg29
S'--'
p378
sg31
S'W30-7'
p379
sg33
S'--'
p380
sg35
S'--'
p381
sg37
S'@MIN'
p382
sg39
S'--'
p383
sg41
S'--'
p384
sg42
S'--'
p385
ssg128
(dp386
g5
S'--'
p387
sg7
S'--'
p388
sg9
g14
sg11
S'--'
p389
sg13
g14
sg15
S'Brandon LaFell'
p390
sg17
S'2014'
p391
sg19
g128
sg21
S'--'
p392
sg23
S'10/05'
p393
sg25
S'20.0'
p394
sg27
S'--'
p395
sg29
S'--'
p396
sg31
S'W43-17'
p397
sg33
S'20'
p398
sg35
g14
sg37
S'CIN'
p399
sg39
S'20'
p400
sg41
g10
sg42
S'--'
p401
ssg36
(dp402
g5
S'--'
p403
sg7
S'--'
p404
sg9
g14
sg11
S'--'
p405
sg13
g14
sg15
S'Brandon LaFell'
p406
sg17
S'2014'
p407
sg19
g36
sg21
S'--'
p408
sg23
S'09/29'
p409
sg25
S'19.8'
p410
sg27
S'--'
p411
sg29
S'--'
p412
sg31
S'L14-41'
p413
sg33
S'119'
p414
sg35
g287
sg37
S'@KC'
p415
sg39
S'44T'
p416
sg41
g14
sg42
S'--'
p417
ssg146
(dp418
g5
S'--'
p419
sg7
S'--'
p420
sg9
g14
sg11
S'--'
p421
sg13
g14
sg15
S'Brandon LaFell'
p422
sg17
S'2014'
p423
sg19
g146
sg21
S'--'
p424
sg23
S'10/16'
p425
sg25
S'13.8'
p426
sg27
S'--'
p427
sg29
S'--'
p428
sg31
S'W27-25'
p429
sg33
S'55'
p430
sg35
g36
sg37
S'NYJ'
p431
sg39
S'24'
p432
sg41
g10
sg42
S'--'
p433
ssg287
(dp434
g5
S'--'
p435
sg7
S'--'
p436
sg9
g14
sg11
S'--'
p437
sg13
g14
sg15
S'Brandon LaFell'
p438
sg17
S'2014'
p439
sg19
g287
sg21
S'--'
p440
sg23
S'10/12'
p441
sg25
S'24.3'
p442
sg27
S'--'
p443
sg29
S'--'
p444
sg31
S'W37-22'
p445
sg33
S'97'
p446
sg35
g36
sg37
S'@BUF'
p447
sg39
S'56T'
p448
sg41
g59
sg42
S'--'
p449
ssg152
(dp450
g5
S'--'
p451
sg7
S'--'
p452
sg9
g14
sg11
S'--'
p453
sg13
g14
sg15
S'Brandon LaFell'
p454
sg17
S'2014'
p455
sg19
g152
sg21
S'--'
p456
sg23
S'11/02'
p457
sg25
S'8.8'
p458
sg27
S'--'
p459
sg29
S'--'
p460
sg31
S'W43-21'
p461
sg33
S'53'
p462
sg35
g287
sg37
S'DEN'
p463
sg39
S'18'
p464
sg41
g14
sg42
S'--'
p465
ssg148
(dp466
g5
S'--'
p467
sg7
S'--'
p468
sg9
g14
sg11
S'--'
p469
sg13
g14
sg15
S'Brandon LaFell'
p470
sg17
S'2014'
p471
sg19
g148
sg21
S'--'
p472
sg23
S'10/26'
p473
sg25
S'11.3'
p474
sg27
S'--'
p475
sg29
S'--'
p476
sg31
S'W51-23'
p477
sg33
S'124'
p478
sg35
S'11'
p479
sg37
S'CHI'
p480
sg39
S'19'
p481
sg41
g14
sg42
S'--'
p482
sssS'2011'
p483
(dp484
g3
(dp485
g5
S'--'
p486
sg7
S'--'
p487
sg9
g10
sg11
S'--'
p488
sg13
g14
sg15
S'Brandon LaFell'
p489
sg17
S'2011'
p490
sg19
S'11'
p491
sg21
S'--'
p492
sg23
S'11/20'
p493
sg25
S'17.0'
p494
sg27
S'--'
p495
sg29
S'--'
p496
sg31
S'L35-49'
p497
sg33
S'51'
p498
sg35
g229
sg37
S'@DET'
p499
sg39
S'22'
p500
sg41
g10
sg42
S'--'
p501
ssg44
(dp502
g5
S'--'
p503
sg7
S'--'
p504
sg9
g10
sg11
S'--'
p505
sg13
g14
sg15
S'Brandon LaFell'
p506
sg17
S'2011'
p507
sg19
S'10'
p508
sg21
S'--'
p509
sg23
S'11/13'
p510
sg25
S'18.0'
p511
sg27
S'--'
p512
sg29
S'--'
p513
sg31
S'L3-30'
p514
sg33
S'18'
p515
sg35
g14
sg37
S'TEN'
p516
sg39
S'18'
p517
sg41
g10
sg42
S'--'
p518
ssg63
(dp519
g5
S'--'
p520
sg7
S'--'
p521
sg9
g14
sg11
S'--'
p522
sg13
g14
sg15
S'Brandon LaFell'
p523
sg17
S'2011'
p524
sg19
S'13'
p525
sg21
S'--'
p526
sg23
S'12/04'
p527
sg25
S'21.3'
p528
sg27
S'--'
p529
sg29
S'--'
p530
sg31
S'W38-19'
p531
sg33
S'64'
p532
sg35
g229
sg37
S'@TB'
p533
sg39
S'31'
p534
sg41
g10
sg42
S'--'
p535
ssg81
(dp536
g5
S'--'
p537
sg7
S'--'
p538
sg9
g14
sg11
S'--'
p539
sg13
g14
sg15
S'Brandon LaFell'
p540
sg17
S'2011'
p541
sg19
S'12'
p542
sg21
S'--'
p543
sg23
S'11/27'
p544
sg25
S'9.2'
p545
sg27
S'--'
p546
sg29
S'--'
p547
sg31
S'W27-19'
p548
sg33
S'46'
p549
sg35
g128
sg37
S'@IND'
p550
sg39
S'23'
p551
sg41
g10
sg42
S'--'
p552
ssg99
(dp553
g5
S'--'
p554
sg7
S'--'
p555
sg9
g14
sg11
S'--'
p556
sg13
g14
sg15
S'Brandon LaFell'
p557
sg17
S'2011'
p558
sg19
S'15'
p559
sg21
S'--'
p560
sg23
S'12/18'
p561
sg25
S'--'
p562
sg27
S'--'
p563
sg29
S'--'
p564
sg31
S'W28-13'
p565
sg33
g10
sg35
g10
sg37
S'@HOU'
p566
sg39
S'--'
p567
sg41
g10
sg42
S'--'
p568
ssg113
(dp569
g5
S'--'
p570
sg7
S'--'
p571
sg9
g14
sg11
S'--'
p572
sg13
g14
sg15
S'Brandon LaFell'
p573
sg17
S'2011'
p574
sg19
S'14'
p575
sg21
S'--'
p576
sg23
S'12/11'
p577
sg25
S'14.0'
p578
sg27
S'--'
p579
sg29
S'--'
p580
sg31
S'L23-31'
p581
sg33
S'28'
p582
sg35
g59
sg37
S'ATL'
p583
sg39
S'17'
p584
sg41
g10
sg42
S'--'
p585
ssg132
(dp586
g5
S'--'
p587
sg7
S'--'
p588
sg9
g14
sg11
S'--'
p589
sg13
g14
sg15
S'Brandon LaFell'
p590
sg17
S'2011'
p591
sg19
S'17'
p592
sg21
S'--'
p593
sg23
S'01/01'
p594
sg25
S'13.5'
p595
sg27
S'--'
p596
sg29
S'--'
p597
sg31
S'L17-45'
p598
sg33
S'27'
p599
sg35
g59
sg37
S'@NO'
p600
sg39
S'14'
p601
sg41
g10
sg42
S'--'
p602
ssg150
(dp603
g5
S'--'
p604
sg7
S'--'
p605
sg9
g14
sg11
S'--'
p606
sg13
g14
sg15
S'Brandon LaFell'
p607
sg17
S'2011'
p608
sg19
S'16'
p609
sg21
S'--'
p610
sg23
S'12/24'
p611
sg25
S'34.3'
p612
sg27
S'--'
p613
sg29
S'--'
p614
sg31
S'W48-16'
p615
sg33
S'103'
p616
sg35
g229
sg37
S'TB'
p617
sg39
S'91T'
p618
sg41
g14
sg42
S'--'
p619
ssg14
(dp620
g5
S'--'
p621
sg7
S'--'
p622
sg9
g10
sg11
S'--'
p623
sg13
g14
sg15
S'Brandon LaFell'
p624
sg17
S'2011'
p625
sg19
g14
sg21
S'--'
p626
sg23
S'09/11'
p627
sg25
S'17.5'
p628
sg27
S'--'
p629
sg29
S'--'
p630
sg31
S'L21-28'
p631
sg33
S'70'
p632
sg35
g36
sg37
S'@ARI'
p633
sg39
S'27'
p634
sg41
g10
sg42
S'--'
p635
ssg229
(dp636
g5
S'--'
p637
sg7
S'--'
p638
sg9
g10
sg11
S'--'
p639
sg13
g14
sg15
S'Brandon LaFell'
p640
sg17
S'2011'
p641
sg19
g229
sg21
S'--'
p642
sg23
S'09/25'
p643
sg25
S'--'
p644
sg27
S'--'
p645
sg29
S'--'
p646
sg31
S'W16-10'
p647
sg33
S'--'
p648
sg35
S'--'
p649
sg37
S'JAC'
p650
sg39
S'--'
p651
sg41
S'--'
p652
sg42
S'--'
p653
ssg59
(dp654
g5
S'--'
p655
sg7
S'--'
p656
sg9
g10
sg11
S'--'
p657
sg13
g14
sg15
S'Brandon LaFell'
p658
sg17
S'2011'
p659
sg19
g59
sg21
S'--'
p660
sg23
S'09/18'
p661
sg25
S'12.3'
p662
sg27
S'--'
p663
sg29
S'--'
p664
sg31
S'L23-30'
p665
sg33
S'49'
p666
sg35
g36
sg37
S'GB'
p667
sg39
S'32'
p668
sg41
g14
sg42
S'--'
p669
ssg128
(dp670
g5
S'--'
p671
sg7
S'--'
p672
sg9
g10
sg11
S'--'
p673
sg13
g14
sg15
S'Brandon LaFell'
p674
sg17
S'2011'
p675
sg19
g128
sg21
S'--'
p676
sg23
S'10/09'
p677
sg25
S'20.0'
p678
sg27
S'--'
p679
sg29
S'--'
p680
sg31
S'L27-30'
p681
sg33
S'20'
p682
sg35
g14
sg37
S'NO'
p683
sg39
S'20'
p684
sg41
g10
sg42
S'--'
p685
ssg36
(dp686
g5
S'--'
p687
sg7
S'--'
p688
sg9
g10
sg11
S'--'
p689
sg13
g14
sg15
S'Brandon LaFell'
p690
sg17
S'2011'
p691
sg19
g36
sg21
S'--'
p692
sg23
S'10/02'
p693
sg25
S'10.5'
p694
sg27
S'--'
p695
sg29
S'--'
p696
sg31
S'L29-34'
p697
sg33
S'42'
p698
sg35
g36
sg37
S'@CHI'
p699
sg39
S'21'
p700
sg41
g10
sg42
S'--'
p701
ssg146
(dp702
g5
S'--'
p703
sg7
S'--'
p704
sg9
g10
sg11
S'--'
p705
sg13
g14
sg15
S'Brandon LaFell'
p706
sg17
S'2011'
p707
sg19
g146
sg21
S'--'
p708
sg23
S'10/23'
p709
sg25
S'19.5'
p710
sg27
S'--'
p711
sg29
S'--'
p712
sg31
S'W33-20'
p713
sg33
S'39'
p714
sg35
g59
sg37
S'WAS'
p715
sg39
S'37'
p716
sg41
g14
sg42
S'--'
p717
ssg287
(dp718
g5
S'--'
p719
sg7
S'--'
p720
sg9
g10
sg11
S'--'
p721
sg13
g14
sg15
S'Brandon LaFell'
p722
sg17
S'2011'
p723
sg19
g287
sg21
S'--'
p724
sg23
S'10/16'
p725
sg25
S'12.0'
p726
sg27
S'--'
p727
sg29
S'--'
p728
sg31
S'L17-31'
p729
sg33
S'12'
p730
sg35
g14
sg37
S'@ATL'
p731
sg39
S'12'
p732
sg41
g10
sg42
S'--'
p733
ssg152
(dp734
g5
g234
sg7
g234
sg9
g234
sg11
g234
sg13
g234
sg15
S'Brandon LaFell'
p735
sg17
S'2011'
p736
sg19
g152
sg21
g234
sg23
S'Bye'
p737
sg25
g234
sg27
g234
sg29
g234
sg31
g234
sg33
g234
sg35
g234
sg37
g234
sg39
g234
sg41
g234
sg42
g234
ssg148
(dp738
g5
S'--'
p739
sg7
S'--'
p740
sg9
g10
sg11
S'--'
p741
sg13
g14
sg15
S'Brandon LaFell'
p742
sg17
S'2011'
p743
sg19
g148
sg21
S'--'
p744
sg23
S'10/30'
p745
sg25
S'44.0'
p746
sg27
S'--'
p747
sg29
S'--'
p748
sg31
S'L21-24'
p749
sg33
S'44'
p750
sg35
g14
sg37
S'MIN'
p751
sg39
S'44'
p752
sg41
g10
sg42
S'--'
p753
sssS'2010'
p754
(dp755
g3
(dp756
g5
S'--'
p757
sg7
S'--'
p758
sg9
g10
sg11
S'--'
p759
sg13
g10
sg15
S'Brandon LaFell'
p760
sg17
S'2010'
p761
sg19
S'11'
p762
sg21
S'--'
p763
sg23
S'11/21'
p764
sg25
S'--'
p765
sg27
S'--'
p766
sg29
S'--'
p767
sg31
S'L13-37'
p768
sg33
S'--'
p769
sg35
S'--'
p770
sg37
S'BAL'
p771
sg39
S'--'
p772
sg41
S'--'
p773
sg42
S'--'
p774
ssg44
(dp775
g5
S'--'
p776
sg7
S'--'
p777
sg9
g10
sg11
S'--'
p778
sg13
g14
sg15
S'Brandon LaFell'
p779
sg17
S'2010'
p780
sg19
S'10'
p781
sg21
S'--'
p782
sg23
S'11/14'
p783
sg25
S'12.0'
p784
sg27
S'--'
p785
sg29
S'--'
p786
sg31
S'L16-31'
p787
sg33
S'36'
p788
sg35
g229
sg37
S'@TB'
p789
sg39
S'15'
p790
sg41
g10
sg42
S'--'
p791
ssg63
(dp792
g5
S'--'
p793
sg7
S'--'
p794
sg9
g10
sg11
S'--'
p795
sg13
g14
sg15
S'Brandon LaFell'
p796
sg17
S'2010'
p797
sg19
S'13'
p798
sg21
S'--'
p799
sg23
S'12/05'
p800
sg25
S'11.0'
p801
sg27
S'--'
p802
sg29
S'--'
p803
sg31
S'L14-31'
p804
sg33
S'33'
p805
sg35
g229
sg37
S'@SEA'
p806
sg39
S'14'
p807
sg41
g10
sg42
S'--'
p808
ssg81
(dp809
g5
S'--'
p810
sg7
S'--'
p811
sg9
g10
sg11
S'--'
p812
sg13
g14
sg15
S'Brandon LaFell'
p813
sg17
S'2010'
p814
sg19
S'12'
p815
sg21
S'--'
p816
sg23
S'11/28'
p817
sg25
S'18.5'
p818
sg27
S'--'
p819
sg29
S'--'
p820
sg31
S'L23-24'
p821
sg33
S'37'
p822
sg35
g59
sg37
S'@CLE'
p823
sg39
S'28'
p824
sg41
g10
sg42
S'--'
p825
ssg99
(dp826
g5
S'--'
p827
sg7
S'--'
p828
sg9
g10
sg11
S'--'
p829
sg13
g14
sg15
S'Brandon LaFell'
p830
sg17
S'2010'
p831
sg19
S'15'
p832
sg21
S'--'
p833
sg23
S'12/19'
p834
sg25
S'11.0'
p835
sg27
S'--'
p836
sg29
S'--'
p837
sg31
S'W19-12'
p838
sg33
S'33'
p839
sg35
g229
sg37
S'ARI'
p840
sg39
S'17'
p841
sg41
g10
sg42
S'--'
p842
ssg113
(dp843
g5
S'--'
p844
sg7
S'--'
p845
sg9
g10
sg11
S'--'
p846
sg13
g14
sg15
S'Brandon LaFell'
p847
sg17
S'2010'
p848
sg19
S'14'
p849
sg21
S'--'
p850
sg23
S'12/12'
p851
sg25
S'6.3'
p852
sg27
S'--'
p853
sg29
S'--'
p854
sg31
S'L10-31'
p855
sg33
S'38'
p856
sg35
g287
sg37
S'ATL'
p857
sg39
S'17'
p858
sg41
g10
sg42
S'--'
p859
ssg132
(dp860
g5
g10
sg7
S'60'
p861
sg9
g10
sg11
S'--'
p862
sg13
g14
sg15
S'Brandon LaFell'
p863
sg17
S'2010'
p864
sg19
S'17'
p865
sg21
S'60.0'
p866
sg23
S'01/02'
p867
sg25
S'15.8'
p868
sg27
S'--'
p869
sg29
g14
sg31
S'L10-31'
p870
sg33
S'63'
p871
sg35
g36
sg37
S'@ATL'
p872
sg39
S'28'
p873
sg41
g10
sg42
S'60'
p874
ssg150
(dp875
g5
S'--'
p876
sg7
S'--'
p877
sg9
g10
sg11
S'--'
p878
sg13
g14
sg15
S'Brandon LaFell'
p879
sg17
S'2010'
p880
sg19
S'16'
p881
sg21
S'--'
p882
sg23
S'12/23'
p883
sg25
S'--'
p884
sg27
S'--'
p885
sg29
S'--'
p886
sg31
S'L3-27'
p887
sg33
g10
sg35
g10
sg37
S'@PIT'
p888
sg39
S'--'
p889
sg41
g10
sg42
S'--'
p890
ssg14
(dp891
g5
S'--'
p892
sg7
S'--'
p893
sg9
g14
sg11
S'--'
p894
sg13
g14
sg15
S'Brandon LaFell'
p895
sg17
S'2010'
p896
sg19
g14
sg21
S'--'
p897
sg23
S'09/12'
p898
sg25
S'11.0'
p899
sg27
S'--'
p900
sg29
S'--'
p901
sg31
S'L18-31'
p902
sg33
S'22'
p903
sg35
g59
sg37
S'@NYG'
p904
sg39
S'14'
p905
sg41
g10
sg42
S'--'
p906
ssg229
(dp907
g5
S'--'
p908
sg7
S'--'
p909
sg9
g10
sg11
S'--'
p910
sg13
g14
sg15
S'Brandon LaFell'
p911
sg17
S'2010'
p912
sg19
g229
sg21
S'--'
p913
sg23
S'09/26'
p914
sg25
S'44.0'
p915
sg27
S'--'
p916
sg29
S'--'
p917
sg31
S'L7-20'
p918
sg33
S'44'
p919
sg35
g14
sg37
S'CIN'
p920
sg39
S'44'
p921
sg41
g10
sg42
S'--'
p922
ssg59
(dp923
g5
S'--'
p924
sg7
S'--'
p925
sg9
g10
sg11
S'--'
p926
sg13
g10
sg15
S'Brandon LaFell'
p927
sg17
S'2010'
p928
sg19
g59
sg21
S'--'
p929
sg23
S'09/19'
p930
sg25
S'--'
p931
sg27
S'--'
p932
sg29
S'--'
p933
sg31
S'L7-20'
p934
sg33
S'--'
p935
sg35
S'--'
p936
sg37
S'TB'
p937
sg39
S'--'
p938
sg41
S'--'
p939
sg42
S'--'
p940
ssg128
(dp941
g5
S'--'
p942
sg7
S'--'
p943
sg9
g14
sg11
S'--'
p944
sg13
g14
sg15
S'Brandon LaFell'
p945
sg17
S'2010'
p946
sg19
g128
sg21
S'--'
p947
sg23
S'10/10'
p948
sg25
S'16.0'
p949
sg27
S'--'
p950
sg29
S'--'
p951
sg31
S'L6-23'
p952
sg33
S'16'
p953
sg35
g14
sg37
S'CHI'
p954
sg39
S'16'
p955
sg41
g10
sg42
S'--'
p956
ssg36
(dp957
g5
S'--'
p958
sg7
S'--'
p959
sg9
g10
sg11
S'--'
p960
sg13
g14
sg15
S'Brandon LaFell'
p961
sg17
S'2010'
p962
sg19
g36
sg21
S'--'
p963
sg23
S'10/03'
p964
sg25
S'1.0'
p965
sg27
S'--'
p966
sg29
S'--'
p967
sg31
S'L14-16'
p968
sg33
g14
sg35
g14
sg37
S'@NO'
p969
sg39
g14
sg41
g10
sg42
S'--'
p970
ssg146
(dp971
g5
S'--'
p972
sg7
S'--'
p973
sg9
g10
sg11
S'--'
p974
sg13
g14
sg15
S'Brandon LaFell'
p975
sg17
S'2010'
p976
sg19
g146
sg21
S'--'
p977
sg23
S'10/24'
p978
sg25
S'15.2'
p979
sg27
S'--'
p980
sg29
S'--'
p981
sg31
S'W23-20'
p982
sg33
S'91'
p983
sg35
g287
sg37
S'SF'
p984
sg39
S'35'
p985
sg41
g10
sg42
S'--'
p986
ssg287
(dp987
g5
g234
sg7
g234
sg9
g234
sg11
g234
sg13
g234
sg15
S'Brandon LaFell'
p988
sg17
S'2010'
p989
sg19
g287
sg21
g234
sg23
S'Bye'
p990
sg25
g234
sg27
g234
sg29
g234
sg31
g234
sg33
g234
sg35
g234
sg37
g234
sg39
g234
sg41
g234
sg42
g234
ssg152
(dp991
g5
S'--'
p992
sg7
S'--'
p993
sg9
g10
sg11
S'--'
p994
sg13
g14
sg15
S'Brandon LaFell'
p995
sg17
S'2010'
p996
sg19
g152
sg21
S'--'
p997
sg23
S'11/07'
p998
sg25
S'7.0'
p999
sg27
S'--'
p1000
sg29
S'--'
p1001
sg31
S'L3-34'
p1002
sg33
S'14'
p1003
sg35
g59
sg37
S'NO'
p1004
sg39
S'11'
p1005
sg41
g10
sg42
S'--'
p1006
ssg148
(dp1007
g5
S'--'
p1008
sg7
S'--'
p1009
sg9
g10
sg11
S'--'
p1010
sg13
g14
sg15
S'Brandon LaFell'
p1011
sg17
S'2010'
p1012
sg19
g148
sg21
S'--'
p1013
sg23
S'10/31'
p1014
sg25
S'10.0'
p1015
sg27
S'--'
p1016
sg29
S'--'
p1017
sg31
S'L10-20'
p1018
sg33
S'40'
p1019
sg35
g36
sg37
S'@STL'
p1020
sg39
S'17T'
p1021
sg41
g14
sg42
S'--'
p1022
sssS'2013'
p1023
(dp1024
g3
(dp1025
g5
S'--'
p1026
sg7
S'--'
p1027
sg9
g14
sg11
S'--'
p1028
sg13
g14
sg15
S'Brandon LaFell'
p1029
sg17
S'2013'
p1030
sg19
S'11'
p1031
sg21
S'--'
p1032
sg23
S'11/18'
p1033
sg25
S'8.4'
p1034
sg27
S'--'
p1035
sg29
S'--'
p1036
sg31
S'W24-20'
p1037
sg33
S'59'
p1038
sg35
g146
sg37
S'NE'
p1039
sg39
S'17'
p1040
sg41
g14
sg42
S'--'
p1041
ssg44
(dp1042
g5
S'--'
p1043
sg7
S'--'
p1044
sg9
g14
sg11
S'--'
p1045
sg13
g14
sg15
S'Brandon LaFell'
p1046
sg17
S'2013'
p1047
sg19
S'10'
p1048
sg21
S'--'
p1049
sg23
S'11/10'
p1050
sg25
S'12.0'
p1051
sg27
S'--'
p1052
sg29
S'--'
p1053
sg31
S'W10-9'
p1054
sg33
S'48'
p1055
sg35
g36
sg37
S'@SF'
p1056
sg39
S'17'
p1057
sg41
g10
sg42
S'--'
p1058
ssg63
(dp1059
g5
S'--'
p1060
sg7
S'--'
p1061
sg9
g14
sg11
S'--'
p1062
sg13
g14
sg15
S'Brandon LaFell'
p1063
sg17
S'2013'
p1064
sg19
S'13'
p1065
sg21
S'--'
p1066
sg23
S'12/01'
p1067
sg25
S'12.0'
p1068
sg27
S'--'
p1069
sg29
S'--'
p1070
sg31
S'W27-6'
p1071
sg33
S'36'
p1072
sg35
g229
sg37
S'TB'
p1073
sg39
S'16T'
p1074
sg41
g14
sg42
S'--'
p1075
ssg81
(dp1076
g5
S'--'
p1077
sg7
S'--'
p1078
sg9
g14
sg11
S'--'
p1079
sg13
g14
sg15
S'Brandon LaFell'
p1080
sg17
S'2013'
p1081
sg19
S'12'
p1082
sg21
S'--'
p1083
sg23
S'11/24'
p1084
sg25
S'18.0'
p1085
sg27
S'--'
p1086
sg29
S'--'
p1087
sg31
S'W20-16'
p1088
sg33
S'36'
p1089
sg35
g59
sg37
S'@MIA'
p1090
sg39
S'29'
p1091
sg41
g10
sg42
S'--'
p1092
ssg99
(dp1093
g5
g10
sg7
g287
sg9
g14
sg11
S'--'
p1094
sg13
g14
sg15
S'Brandon LaFell'
p1095
sg17
S'2013'
p1096
sg19
S'15'
p1097
sg21
S'6.0'
p1098
sg23
S'12/15'
p1099
sg25
S'20.3'
p1100
sg27
S'--'
p1101
sg29
g14
sg31
S'W30-20'
p1102
sg33
S'61'
p1103
sg35
g229
sg37
S'NYJ'
p1104
sg39
S'36'
p1105
sg41
g10
sg42
g287
ssg113
(dp1106
g5
S'--'
p1107
sg7
S'--'
p1108
sg9
g14
sg11
S'--'
p1109
sg13
g14
sg15
S'Brandon LaFell'
p1110
sg17
S'2013'
p1111
sg19
S'14'
p1112
sg21
S'--'
p1113
sg23
S'12/08'
p1114
sg25
S'11.0'
p1115
sg27
S'--'
p1116
sg29
S'--'
p1117
sg31
S'L13-31'
p1118
sg33
S'22'
p1119
sg35
g59
sg37
S'@NO'
p1120
sg39
S'11'
p1121
sg41
g10
sg42
S'--'
p1122
ssg132
(dp1123
g5
S'--'
p1124
sg7
S'--'
p1125
sg9
g14
sg11
S'--'
p1126
sg13
g14
sg15
S'Brandon LaFell'
p1127
sg17
S'2013'
p1128
sg19
S'17'
p1129
sg21
S'--'
p1130
sg23
S'12/29'
p1131
sg25
S'--'
p1132
sg27
S'--'
p1133
sg29
S'--'
p1134
sg31
S'W21-20'
p1135
sg33
g10
sg35
g10
sg37
S'@ATL'
p1136
sg39
S'--'
p1137
sg41
g10
sg42
S'--'
p1138
ssg150
(dp1139
g5
S'--'
p1140
sg7
S'--'
p1141
sg9
g14
sg11
S'--'
p1142
sg13
g14
sg15
S'Brandon LaFell'
p1143
sg17
S'2013'
p1144
sg19
S'16'
p1145
sg21
S'--'
p1146
sg23
S'12/22'
p1147
sg25
S'13.0'
p1148
sg27
S'--'
p1149
sg29
S'--'
p1150
sg31
S'W17-13'
p1151
sg33
S'13'
p1152
sg35
g14
sg37
S'NO'
p1153
sg39
S'13'
p1154
sg41
g10
sg42
S'--'
p1155
ssg14
(dp1156
g5
S'--'
p1157
sg7
S'--'
p1158
sg9
g14
sg11
S'--'
p1159
sg13
g14
sg15
S'Brandon LaFell'
p1160
sg17
S'2013'
p1161
sg19
g14
sg21
S'--'
p1162
sg23
S'09/08'
p1163
sg25
S'--'
p1164
sg27
S'--'
p1165
sg29
S'--'
p1166
sg31
S'L7-12'
p1167
sg33
S'--'
p1168
sg35
S'--'
p1169
sg37
S'SEA'
p1170
sg39
S'--'
p1171
sg41
S'--'
p1172
sg42
S'--'
p1173
ssg229
(dp1174
g5
S'--'
p1175
sg7
S'--'
p1176
sg9
g14
sg11
S'--'
p1177
sg13
g14
sg15
S'Brandon LaFell'
p1178
sg17
S'2013'
p1179
sg19
g229
sg21
S'--'
p1180
sg23
S'09/22'
p1181
sg25
S'17.7'
p1182
sg27
S'--'
p1183
sg29
S'--'
p1184
sg31
S'W38-0'
p1185
sg33
S'53'
p1186
sg35
g229
sg37
S'NYG'
p1187
sg39
S'20T'
p1188
sg41
g59
sg42
S'--'
p1189
ssg59
(dp1190
g5
S'--'
p1191
sg7
S'--'
p1192
sg9
g14
sg11
S'--'
p1193
sg13
g14
sg15
S'Brandon LaFell'
p1194
sg17
S'2013'
p1195
sg19
g59
sg21
S'--'
p1196
sg23
S'09/15'
p1197
sg25
S'3.3'
p1198
sg27
S'--'
p1199
sg29
S'--'
p1200
sg31
S'L23-24'
p1201
sg33
S'13'
p1202
sg35
g36
sg37
S'@BUF'
p1203
sg39
S'12'
p1204
sg41
g10
sg42
S'--'
p1205
ssg128
(dp1206
g5
S'--'
p1207
sg7
S'--'
p1208
sg9
g14
sg11
S'--'
p1209
sg13
g14
sg15
S'Brandon LaFell'
p1210
sg17
S'2013'
p1211
sg19
g128
sg21
S'--'
p1212
sg23
S'10/06'
p1213
sg25
S'11.8'
p1214
sg27
S'--'
p1215
sg29
S'--'
p1216
sg31
S'L6-22'
p1217
sg33
S'47'
p1218
sg35
g36
sg37
S'@ARI'
p1219
sg39
S'16'
p1220
sg41
g10
sg42
S'--'
p1221
ssg36
(dp1222
g5
g234
sg7
g234
sg9
g234
sg11
g234
sg13
g234
sg15
S'Brandon LaFell'
p1223
sg17
S'2013'
p1224
sg19
g36
sg21
g234
sg23
S'Bye'
p1225
sg25
g234
sg27
g234
sg29
g234
sg31
g234
sg33
g234
sg35
g234
sg37
g234
sg39
g234
sg41
g234
sg42
g234
ssg146
(dp1226
g5
S'--'
p1227
sg7
S'--'
p1228
sg9
g14
sg11
S'--'
p1229
sg13
g14
sg15
S'Brandon LaFell'
p1230
sg17
S'2013'
p1231
sg19
g146
sg21
S'--'
p1232
sg23
S'10/20'
p1233
sg25
S'11.7'
p1234
sg27
S'--'
p1235
sg29
S'--'
p1236
sg31
S'W30-15'
p1237
sg33
S'35'
p1238
sg35
g229
sg37
S'STL'
p1239
sg39
S'18'
p1240
sg41
g10
sg42
S'--'
p1241
ssg287
(dp1242
g5
g10
sg7
g152
sg9
g14
sg11
S'--'
p1243
sg13
g14
sg15
S'Brandon LaFell'
p1244
sg17
S'2013'
p1245
sg19
g287
sg21
S'9.0'
p1246
sg23
S'10/13'
p1247
sg25
S'26.8'
p1248
sg27
S'--'
p1249
sg29
g14
sg31
S'W35-10'
p1250
sg33
S'107'
p1251
sg35
g36
sg37
S'@MIN'
p1252
sg39
S'79T'
p1253
sg41
g14
sg42
g152
ssg152
(dp1254
g5
S'--'
p1255
sg7
S'--'
p1256
sg9
g14
sg11
g10
sg13
g14
sg15
S'Brandon LaFell'
p1257
sg17
S'2013'
p1258
sg19
g152
sg21
S'--'
p1259
sg23
S'11/03'
p1260
sg25
S'12.3'
p1261
sg27
g14
sg29
S'--'
p1262
sg31
S'W34-10'
p1263
sg33
S'74'
p1264
sg35
g287
sg37
S'ATL'
p1265
sg39
S'30'
p1266
sg41
g10
sg42
S'--'
p1267
ssg148
(dp1268
g5
S'--'
p1269
sg7
S'--'
p1270
sg9
g14
sg11
S'--'
p1271
sg13
g14
sg15
S'Brandon LaFell'
p1272
sg17
S'2013'
p1273
sg19
g148
sg21
S'--'
p1274
sg23
S'10/24'
p1275
sg25
S'7.7'
p1276
sg27
S'--'
p1277
sg29
S'--'
p1278
sg31
S'W31-13'
p1279
sg33
S'23'
p1280
sg35
g229
sg37
S'@TB'
p1281
sg39
S'13'
p1282
sg41
g10
sg42
S'--'
p1283
sssS'2012'
p1284
(dp1285
g3
(dp1286
g5
S'--'
p1287
sg7
S'--'
p1288
sg9
g14
sg11
S'--'
p1289
sg13
g14
sg15
S'Brandon LaFell'
p1290
sg17
S'2012'
p1291
sg19
S'11'
p1292
sg21
S'--'
p1293
sg23
S'11/18'
p1294
sg25
S'18.6'
p1295
sg27
S'--'
p1296
sg29
S'--'
p1297
sg31
S'L21-27'
p1298
sg33
S'93'
p1299
sg35
g128
sg37
S'TB'
p1300
sg39
S'29T'
p1301
sg41
g14
sg42
S'--'
p1302
ssg44
(dp1303
g5
S'--'
p1304
sg7
S'--'
p1305
sg9
g14
sg11
S'--'
p1306
sg13
g14
sg15
S'Brandon LaFell'
p1307
sg17
S'2012'
p1308
sg19
S'10'
p1309
sg21
S'--'
p1310
sg23
S'11/11'
p1311
sg25
S'7.3'
p1312
sg27
S'--'
p1313
sg29
S'--'
p1314
sg31
S'L14-36'
p1315
sg33
S'29'
p1316
sg35
g36
sg37
S'DEN'
p1317
sg39
S'21'
p1318
sg41
g10
sg42
S'--'
p1319
ssg63
(dp1320
g5
S'--'
p1321
sg7
S'--'
p1322
sg9
g14
sg11
g10
sg13
g14
sg15
S'Brandon LaFell'
p1323
sg17
S'2012'
p1324
sg19
S'13'
p1325
sg21
S'--'
p1326
sg23
S'12/02'
p1327
sg25
S'7.0'
p1328
sg27
g14
sg29
S'--'
p1329
sg31
S'L21-27'
p1330
sg33
S'14'
p1331
sg35
g59
sg37
S'@KC'
p1332
sg39
S'10'
p1333
sg41
g10
sg42
S'--'
p1334
ssg81
(dp1335
g5
g10
sg7
g287
sg9
g14
sg11
S'--'
p1336
sg13
g14
sg15
S'Brandon LaFell'
p1337
sg17
S'2012'
p1338
sg19
S'12'
p1339
sg21
S'6.0'
p1340
sg23
S'11/26'
p1341
sg25
S'24.7'
p1342
sg27
S'--'
p1343
sg29
g14
sg31
S'W30-22'
p1344
sg33
S'74'
p1345
sg35
g229
sg37
S'@PHI'
p1346
sg39
S'43T'
p1347
sg41
g14
sg42
g287
ssg99
(dp1348
g5
S'--'
p1349
sg7
S'--'
p1350
sg9
g10
sg11
S'--'
p1351
sg13
g14
sg15
S'Brandon LaFell'
p1352
sg17
S'2012'
p1353
sg19
S'15'
p1354
sg21
S'--'
p1355
sg23
S'12/16'
p1356
sg25
S'--'
p1357
sg27
S'--'
p1358
sg29
S'--'
p1359
sg31
S'W31-7'
p1360
sg33
S'--'
p1361
sg35
S'--'
p1362
sg37
S'@SD'
p1363
sg39
S'--'
p1364
sg41
S'--'
p1365
sg42
S'--'
p1366
ssg113
(dp1367
g5
S'--'
p1368
sg7
S'--'
p1369
sg9
g10
sg11
S'--'
p1370
sg13
g10
sg15
S'Brandon LaFell'
p1371
sg17
S'2012'
p1372
sg19
S'14'
p1373
sg21
S'--'
p1374
sg23
S'12/09'
p1375
sg25
S'--'
p1376
sg27
S'--'
p1377
sg29
S'--'
p1378
sg31
S'W30-20'
p1379
sg33
S'--'
p1380
sg35
S'--'
p1381
sg37
S'ATL'
p1382
sg39
S'--'
p1383
sg41
S'--'
p1384
sg42
S'--'
p1385
ssg132
(dp1386
g5
g10
sg7
g36
sg9
g14
sg11
S'--'
p1387
sg13
g14
sg15
S'Brandon LaFell'
p1388
sg17
S'2012'
p1389
sg19
S'17'
p1390
sg21
S'4.0'
p1391
sg23
S'12/30'
p1392
sg25
S'12.4'
p1393
sg27
S'--'
p1394
sg29
g14
sg31
S'W44-38'
p1395
sg33
S'62'
p1396
sg35
g128
sg37
S'@NO'
p1397
sg39
S'19'
p1398
sg41
g10
sg42
g36
ssg150
(dp1399
g5
S'--'
p1400
sg7
S'--'
p1401
sg9
g14
sg11
S'--'
p1402
sg13
g14
sg15
S'Brandon LaFell'
p1403
sg17
S'2012'
p1404
sg19
S'16'
p1405
sg21
S'--'
p1406
sg23
S'12/23'
p1407
sg25
S'7.6'
p1408
sg27
S'--'
p1409
sg29
S'--'
p1410
sg31
S'W17-6'
p1411
sg33
S'38'
p1412
sg35
g128
sg37
S'OAK'
p1413
sg39
S'14'
p1414
sg41
g10
sg42
S'--'
p1415
ssg14
(dp1416
g5
S'--'
p1417
sg7
S'--'
p1418
sg9
g14
sg11
S'--'
p1419
sg13
g14
sg15
S'Brandon LaFell'
p1420
sg17
S'2012'
p1421
sg19
g14
sg21
S'--'
p1422
sg23
S'09/09'
p1423
sg25
S'21.7'
p1424
sg27
S'--'
p1425
sg29
S'--'
p1426
sg31
S'L10-16'
p1427
sg33
S'65'
p1428
sg35
g229
sg37
S'@TB'
p1429
sg39
S'24'
p1430
sg41
g14
sg42
S'--'
p1431
ssg229
(dp1432
g5
S'--'
p1433
sg7
S'--'
p1434
sg9
g10
sg11
S'--'
p1435
sg13
g14
sg15
S'Brandon LaFell'
p1436
sg17
S'2012'
p1437
sg19
g229
sg21
S'--'
p1438
sg23
S'09/20'
p1439
sg25
S'27.0'
p1440
sg27
S'--'
p1441
sg29
S'--'
p1442
sg31
S'L7-36'
p1443
sg33
S'27'
p1444
sg35
g14
sg37
S'NYG'
p1445
sg39
S'27'
p1446
sg41
g10
sg42
S'--'
p1447
ssg59
(dp1448
g5
g10
sg7
S'25'
p1449
sg9
g14
sg11
S'--'
p1450
sg13
g14
sg15
S'Brandon LaFell'
p1451
sg17
S'2012'
p1452
sg19
g59
sg21
S'25.0'
p1453
sg23
S'09/16'
p1454
sg25
S'15.0'
p1455
sg27
S'--'
p1456
sg29
g14
sg31
S'W35-27'
p1457
sg33
S'90'
p1458
sg35
g287
sg37
S'NO'
p1459
sg39
S'27'
p1460
sg41
g10
sg42
S'25'
p1461
ssg128
(dp1462
g5
S'--'
p1463
sg7
S'--'
p1464
sg9
g14
sg11
S'--'
p1465
sg13
g14
sg15
S'Brandon LaFell'
p1466
sg17
S'2012'
p1467
sg19
g128
sg21
S'--'
p1468
sg23
S'10/07'
p1469
sg25
S'14.7'
p1470
sg27
S'--'
p1471
sg29
S'--'
p1472
sg31
S'L12-16'
p1473
sg33
S'44'
p1474
sg35
g229
sg37
S'SEA'
p1475
sg39
S'21'
p1476
sg41
g10
sg42
S'--'
p1477
ssg36
(dp1478
g5
S'--'
p1479
sg7
S'--'
p1480
sg9
g14
sg11
S'--'
p1481
sg13
g14
sg15
S'Brandon LaFell'
p1482
sg17
S'2012'
p1483
sg19
g36
sg21
S'--'
p1484
sg23
S'09/30'
p1485
sg25
S'--'
p1486
sg27
S'--'
p1487
sg29
S'--'
p1488
sg31
S'L28-30'
p1489
sg33
g10
sg35
g10
sg37
S'@ATL'
p1490
sg39
S'--'
p1491
sg41
g10
sg42
S'--'
p1492
ssg146
(dp1493
g5
S'--'
p1494
sg7
S'--'
p1495
sg9
g14
sg11
S'--'
p1496
sg13
g14
sg15
S'Brandon LaFell'
p1497
sg17
S'2012'
p1498
sg19
g146
sg21
S'--'
p1499
sg23
S'10/21'
p1500
sg25
S'13.3'
p1501
sg27
S'--'
p1502
sg29
S'--'
p1503
sg31
S'L14-19'
p1504
sg33
S'53'
p1505
sg35
g36
sg37
S'DAL'
p1506
sg39
S'32'
p1507
sg41
g14
sg42
S'--'
p1508
ssg287
(dp1509
g5
g234
sg7
g234
sg9
g234
sg11
g234
sg13
g234
sg15
S'Brandon LaFell'
p1510
sg17
S'2012'
p1511
sg19
g287
sg21
g234
sg23
S'Bye'
p1512
sg25
g234
sg27
g234
sg29
g234
sg31
g234
sg33
g234
sg35
g234
sg37
g234
sg39
g234
sg41
g234
sg42
g234
ssg152
(dp1513
g5
S'--'
p1514
sg7
S'--'
p1515
sg9
g10
sg11
S'--'
p1516
sg13
g10
sg15
S'Brandon LaFell'
p1517
sg17
S'2012'
p1518
sg19
g152
sg21
S'--'
p1519
sg23
S'11/04'
p1520
sg25
S'--'
p1521
sg27
S'--'
p1522
sg29
S'--'
p1523
sg31
S'W21-13'
p1524
sg33
S'--'
p1525
sg35
S'--'
p1526
sg37
S'@WAS'
p1527
sg39
S'--'
p1528
sg41
S'--'
p1529
sg42
S'--'
p1530
ssg148
(dp1531
g5
S'--'
p1532
sg7
S'--'
p1533
sg9
g14
sg11
S'--'
p1534
sg13
g14
sg15
S'Brandon LaFell'
p1535
sg17
S'2012'
p1536
sg19
g148
sg21
S'--'
p1537
sg23
S'10/28'
p1538
sg25
S'29.3'
p1539
sg27
S'--'
p1540
sg29
S'--'
p1541
sg31
S'L22-23'
p1542
sg33
S'88'
p1543
sg35
g229
sg37
S'@CHI'
p1544
sg39
S'62'
p1545
sg41
g10
sg42
S'--'
p1546
sss.