(dp0
S'2015'
p1
(dp2
S'10'
p3
(dp4
S'RushTD'
p5
S'--'
p6
sS'RushYds'
p7
S'--'
p8
sS'GS'
p9
S'0'
p10
sS'Lost'
p11
S'--'
p12
sS'G'
p13
g10
sS'Player'
p14
S'Breshad Perriman'
p15
sS'Year'
p16
S'2015'
p17
sS'WK'
p18
S'10'
p19
sS'RushAvg'
p20
S'--'
p21
sS'Game Date'
p22
S'11/15'
p23
sS'RecAvg'
p24
S'--'
p25
sS'FUM'
p26
S'--'
p27
sS'RushAtt'
p28
S'--'
p29
sS'Result'
p30
S'L20-22'
p31
sS'RecYds'
p32
S'--'
p33
sS'Rec'
p34
S'--'
p35
sS'Opp'
p36
S'JAC'
p37
sS'RecLng'
p38
S'--'
p39
sS'RecTD'
p40
S'--'
p41
sS'RushLng'
p42
S'--'
p43
ssS'1'
p44
(dp45
g5
S'--'
p46
sg7
S'--'
p47
sg9
g10
sg11
S'--'
p48
sg13
g10
sg14
S'Breshad Perriman'
p49
sg16
S'2015'
p50
sg18
g44
sg20
S'--'
p51
sg22
S'09/13'
p52
sg24
S'--'
p53
sg26
S'--'
p54
sg28
S'--'
p55
sg30
S'L13-19'
p56
sg32
S'--'
p57
sg34
S'--'
p58
sg36
S'@DEN'
p59
sg38
S'--'
p60
sg40
S'--'
p61
sg42
S'--'
p62
ssS'3'
p63
(dp64
g5
S'--'
p65
sg7
S'--'
p66
sg9
g10
sg11
S'--'
p67
sg13
g10
sg14
S'Breshad Perriman'
p68
sg16
S'2015'
p69
sg18
g63
sg20
S'--'
p70
sg22
S'09/27'
p71
sg24
S'--'
p72
sg26
S'--'
p73
sg28
S'--'
p74
sg30
S'L24-28'
p75
sg32
S'--'
p76
sg34
S'--'
p77
sg36
S'CIN'
p78
sg38
S'--'
p79
sg40
S'--'
p80
sg42
S'--'
p81
ssS'2'
p82
(dp83
g5
S'--'
p84
sg7
S'--'
p85
sg9
g10
sg11
S'--'
p86
sg13
g10
sg14
S'Breshad Perriman'
p87
sg16
S'2015'
p88
sg18
g82
sg20
S'--'
p89
sg22
S'09/20'
p90
sg24
S'--'
p91
sg26
S'--'
p92
sg28
S'--'
p93
sg30
S'L33-37'
p94
sg32
S'--'
p95
sg34
S'--'
p96
sg36
S'@OAK'
p97
sg38
S'--'
p98
sg40
S'--'
p99
sg42
S'--'
p100
ssS'5'
p101
(dp102
g5
S'--'
p103
sg7
S'--'
p104
sg9
g10
sg11
S'--'
p105
sg13
g10
sg14
S'Breshad Perriman'
p106
sg16
S'2015'
p107
sg18
g101
sg20
S'--'
p108
sg22
S'10/11'
p109
sg24
S'--'
p110
sg26
S'--'
p111
sg28
S'--'
p112
sg30
S'L30-33'
p113
sg32
S'--'
p114
sg34
S'--'
p115
sg36
S'CLE'
p116
sg38
S'--'
p117
sg40
S'--'
p118
sg42
S'--'
p119
ssS'4'
p120
(dp121
g5
S'--'
p122
sg7
S'--'
p123
sg9
g10
sg11
S'--'
p124
sg13
g10
sg14
S'Breshad Perriman'
p125
sg16
S'2015'
p126
sg18
g120
sg20
S'--'
p127
sg22
S'10/01'
p128
sg24
S'--'
p129
sg26
S'--'
p130
sg28
S'--'
p131
sg30
S'W23-20'
p132
sg32
S'--'
p133
sg34
S'--'
p134
sg36
S'@PIT'
p135
sg38
S'--'
p136
sg40
S'--'
p137
sg42
S'--'
p138
ssS'7'
p139
(dp140
g5
S'--'
p141
sg7
S'--'
p142
sg9
g10
sg11
S'--'
p143
sg13
g10
sg14
S'Breshad Perriman'
p144
sg16
S'2015'
p145
sg18
g139
sg20
S'--'
p146
sg22
S'10/26'
p147
sg24
S'--'
p148
sg26
S'--'
p149
sg28
S'--'
p150
sg30
S'L18-26'
p151
sg32
S'--'
p152
sg34
S'--'
p153
sg36
S'@ARI'
p154
sg38
S'--'
p155
sg40
S'--'
p156
sg42
S'--'
p157
ssS'6'
p158
(dp159
g5
S'--'
p160
sg7
S'--'
p161
sg9
g10
sg11
S'--'
p162
sg13
g10
sg14
S'Breshad Perriman'
p163
sg16
S'2015'
p164
sg18
g158
sg20
S'--'
p165
sg22
S'10/18'
p166
sg24
S'--'
p167
sg26
S'--'
p168
sg28
S'--'
p169
sg30
S'L20-25'
p170
sg32
S'--'
p171
sg34
S'--'
p172
sg36
S'@SF'
p173
sg38
S'--'
p174
sg40
S'--'
p175
sg42
S'--'
p176
ssS'9'
p177
(dp178
g5
S''
p179
sg7
g179
sg9
g179
sg11
g179
sg13
g179
sg14
S'Breshad Perriman'
p180
sg16
S'2015'
p181
sg18
g177
sg20
g179
sg22
S'Bye'
p182
sg24
g179
sg26
g179
sg28
g179
sg30
g179
sg32
g179
sg34
g179
sg36
g179
sg38
g179
sg40
g179
sg42
g179
ssS'8'
p183
(dp184
g5
S'--'
p185
sg7
S'--'
p186
sg9
g10
sg11
S'--'
p187
sg13
g10
sg14
S'Breshad Perriman'
p188
sg16
S'2015'
p189
sg18
g183
sg20
S'--'
p190
sg22
S'11/01'
p191
sg24
S'--'
p192
sg26
S'--'
p193
sg28
S'--'
p194
sg30
S'W29-26'
p195
sg32
S'--'
p196
sg34
S'--'
p197
sg36
S'SD'
p198
sg38
S'--'
p199
sg40
S'--'
p200
sg42
S'--'
p201
sss.