(dp0
S'2014'
p1
(dp2
S'11'
p3
(dp4
S'RushTD'
p5
S'--'
p6
sS'RushYds'
p7
S'--'
p8
sS'GS'
p9
S'1'
p10
sS'Lost'
p11
S'--'
p12
sS'G'
p13
g10
sS'Player'
p14
S'Brian Tyms'
p15
sS'Year'
p16
S'2014'
p17
sS'WK'
p18
S'11'
p19
sS'RushAvg'
p20
S'--'
p21
sS'Game Date'
p22
S'11/16'
p23
sS'RecAvg'
p24
S'--'
p25
sS'FUM'
p26
S'--'
p27
sS'RushAtt'
p28
S'--'
p29
sS'Result'
p30
S'W42-20'
p31
sS'RecYds'
p32
S'0'
p33
sS'Rec'
p34
g33
sS'Opp'
p35
S'@IND'
p36
sS'RecLng'
p37
S'--'
p38
sS'RecTD'
p39
g33
sS'RushLng'
p40
S'--'
p41
ssS'10'
p42
(dp43
g5
S''
p44
sg7
g44
sg9
g44
sg11
g44
sg13
g44
sg14
S'Brian Tyms'
p45
sg16
S'2014'
p46
sg18
S'10'
p47
sg20
g44
sg22
S'Bye'
p48
sg24
g44
sg26
g44
sg28
g44
sg30
g44
sg32
g44
sg34
g44
sg35
g44
sg37
g44
sg39
g44
sg40
g44
ssS'13'
p49
(dp50
g5
S'--'
p51
sg7
S'--'
p52
sg9
g33
sg11
S'--'
p53
sg13
g10
sg14
S'Brian Tyms'
p54
sg16
S'2014'
p55
sg18
S'13'
p56
sg20
S'--'
p57
sg22
S'11/30'
p58
sg24
S'--'
p59
sg26
S'--'
p60
sg28
S'--'
p61
sg30
S'L21-26'
p62
sg32
S'--'
p63
sg34
S'--'
p64
sg35
S'@GB'
p65
sg37
S'--'
p66
sg39
S'--'
p67
sg40
S'--'
p68
ssS'12'
p69
(dp70
g5
S'--'
p71
sg7
S'--'
p72
sg9
g33
sg11
S'--'
p73
sg13
g10
sg14
S'Brian Tyms'
p74
sg16
S'2014'
p75
sg18
S'12'
p76
sg20
S'--'
p77
sg22
S'11/23'
p78
sg24
S'--'
p79
sg26
S'--'
p80
sg28
S'--'
p81
sg30
S'W34-9'
p82
sg32
S'--'
p83
sg34
S'--'
p84
sg35
S'DET'
p85
sg37
S'--'
p86
sg39
S'--'
p87
sg40
S'--'
p88
ssS'15'
p89
(dp90
g5
S'--'
p91
sg7
S'--'
p92
sg9
g33
sg11
S'--'
p93
sg13
g10
sg14
S'Brian Tyms'
p94
sg16
S'2014'
p95
sg18
S'15'
p96
sg20
S'--'
p97
sg22
S'12/14'
p98
sg24
S'--'
p99
sg26
S'--'
p100
sg28
S'--'
p101
sg30
S'W41-13'
p102
sg32
g33
sg34
g33
sg35
S'MIA'
p103
sg37
S'--'
p104
sg39
g33
sg40
S'--'
p105
ssS'14'
p106
(dp107
g5
S'--'
p108
sg7
S'--'
p109
sg9
g33
sg11
S'--'
p110
sg13
g10
sg14
S'Brian Tyms'
p111
sg16
S'2014'
p112
sg18
S'14'
p113
sg20
S'--'
p114
sg22
S'12/07'
p115
sg24
S'--'
p116
sg26
S'--'
p117
sg28
S'--'
p118
sg30
S'W23-14'
p119
sg32
S'--'
p120
sg34
S'--'
p121
sg35
S'@SD'
p122
sg37
S'--'
p123
sg39
S'--'
p124
sg40
S'--'
p125
ssS'17'
p126
(dp127
g5
S'--'
p128
sg7
S'--'
p129
sg9
g10
sg11
S'--'
p130
sg13
g10
sg14
S'Brian Tyms'
p131
sg16
S'2014'
p132
sg18
S'17'
p133
sg20
S'--'
p134
sg22
S'12/28'
p135
sg24
S'9.8'
p136
sg26
S'--'
p137
sg28
S'--'
p138
sg30
S'L9-17'
p139
sg32
S'39'
p140
sg34
S'4'
p141
sg35
S'BUF'
p142
sg37
S'18'
p143
sg39
g33
sg40
S'--'
p144
ssS'16'
p145
(dp146
g5
S'--'
p147
sg7
S'--'
p148
sg9
g33
sg11
S'--'
p149
sg13
g10
sg14
S'Brian Tyms'
p150
sg16
S'2014'
p151
sg18
S'16'
p152
sg20
S'--'
p153
sg22
S'12/21'
p154
sg24
S'--'
p155
sg26
S'--'
p156
sg28
S'--'
p157
sg30
S'W17-16'
p158
sg32
S'--'
p159
sg34
S'--'
p160
sg35
S'@NYJ'
p161
sg37
S'--'
p162
sg39
S'--'
p163
sg40
S'--'
p164
ssS'7'
p165
(dp166
g5
S'--'
p167
sg7
S'--'
p168
sg9
g33
sg11
S'--'
p169
sg13
g10
sg14
S'Brian Tyms'
p170
sg16
S'2014'
p171
sg18
g165
sg20
S'--'
p172
sg22
S'10/16'
p173
sg24
S'--'
p174
sg26
S'--'
p175
sg28
S'--'
p176
sg30
S'W27-25'
p177
sg32
S'--'
p178
sg34
S'--'
p179
sg35
S'NYJ'
p180
sg37
S'--'
p181
sg39
S'--'
p182
sg40
S'--'
p183
ssS'6'
p184
(dp185
g5
S'--'
p186
sg7
S'--'
p187
sg9
g33
sg11
S'--'
p188
sg13
g10
sg14
S'Brian Tyms'
p189
sg16
S'2014'
p190
sg18
g184
sg20
S'--'
p191
sg22
S'10/12'
p192
sg24
S'43.0'
p193
sg26
S'--'
p194
sg28
S'--'
p195
sg30
S'W37-22'
p196
sg32
S'43'
p197
sg34
g10
sg35
S'@BUF'
p198
sg37
S'43T'
p199
sg39
g10
sg40
S'--'
p200
ssS'9'
p201
(dp202
g5
S'--'
p203
sg7
S'--'
p204
sg9
g33
sg11
S'--'
p205
sg13
g10
sg14
S'Brian Tyms'
p206
sg16
S'2014'
p207
sg18
g201
sg20
S'--'
p208
sg22
S'11/02'
p209
sg24
S'--'
p210
sg26
S'--'
p211
sg28
S'--'
p212
sg30
S'W43-21'
p213
sg32
g33
sg34
g33
sg35
S'DEN'
p214
sg37
S'--'
p215
sg39
g33
sg40
S'--'
p216
ssS'8'
p217
(dp218
g5
S'--'
p219
sg7
S'--'
p220
sg9
g33
sg11
S'--'
p221
sg13
g10
sg14
S'Brian Tyms'
p222
sg16
S'2014'
p223
sg18
g217
sg20
S'--'
p224
sg22
S'10/26'
p225
sg24
S'--'
p226
sg26
S'--'
p227
sg28
S'--'
p228
sg30
S'W51-23'
p229
sg32
S'--'
p230
sg34
S'--'
p231
sg35
S'CHI'
p232
sg37
S'--'
p233
sg39
S'--'
p234
sg40
S'--'
p235
sssS'2013'
p236
(dp237
g3
(dp238
g5
S'--'
p239
sg7
S'--'
p240
sg9
g33
sg11
S'--'
p241
sg13
g10
sg14
S'Brian Tyms'
p242
sg16
S'2013'
p243
sg18
S'11'
p244
sg20
S'--'
p245
sg22
S'11/17'
p246
sg24
S'--'
p247
sg26
S'--'
p248
sg28
S'--'
p249
sg30
S'L20-41'
p250
sg32
g33
sg34
g33
sg35
S'@CIN'
p251
sg37
S'--'
p252
sg39
g33
sg40
S'--'
p253
ssg42
(dp254
g5
g44
sg7
g44
sg9
g44
sg11
g44
sg13
g44
sg14
S'Brian Tyms'
p255
sg16
S'2013'
p256
sg18
S'10'
p257
sg20
g44
sg22
S'Bye'
p258
sg24
g44
sg26
g44
sg28
g44
sg30
g44
sg32
g44
sg34
g44
sg35
g44
sg37
g44
sg39
g44
sg40
g44
ssg69
(dp259
g5
S'--'
p260
sg7
S'--'
p261
sg9
g33
sg11
S'--'
p262
sg13
g10
sg14
S'Brian Tyms'
p263
sg16
S'2013'
p264
sg18
S'12'
p265
sg20
S'--'
p266
sg22
S'11/24'
p267
sg24
S'--'
p268
sg26
S'--'
p269
sg28
S'--'
p270
sg30
S'L11-27'
p271
sg32
S'--'
p272
sg34
S'--'
p273
sg35
S'PIT'
p274
sg37
S'--'
p275
sg39
S'--'
p276
sg40
S'--'
p277
ssg89
(dp278
g5
S'--'
p279
sg7
S'--'
p280
sg9
g33
sg11
S'--'
p281
sg13
g10
sg14
S'Brian Tyms'
p282
sg16
S'2013'
p283
sg18
S'15'
p284
sg20
S'--'
p285
sg22
S'12/15'
p286
sg24
S'--'
p287
sg26
S'--'
p288
sg28
S'--'
p289
sg30
S'L31-38'
p290
sg32
S'--'
p291
sg34
S'--'
p292
sg35
S'CHI'
p293
sg37
S'--'
p294
sg39
S'--'
p295
sg40
S'--'
p296
ssg106
(dp297
g5
S'--'
p298
sg7
S'--'
p299
sg9
g33
sg11
S'--'
p300
sg13
g10
sg14
S'Brian Tyms'
p301
sg16
S'2013'
p302
sg18
S'14'
p303
sg20
S'--'
p304
sg22
S'12/08'
p305
sg24
S'--'
p306
sg26
S'--'
p307
sg28
S'--'
p308
sg30
S'L26-27'
p309
sg32
g33
sg34
g33
sg35
S'@NE'
p310
sg37
S'--'
p311
sg39
g33
sg40
S'--'
p312
ssg126
(dp313
g5
S'--'
p314
sg7
S'--'
p315
sg9
g33
sg11
S'--'
p316
sg13
g10
sg14
S'Brian Tyms'
p317
sg16
S'2013'
p318
sg18
S'17'
p319
sg20
S'--'
p320
sg22
S'12/29'
p321
sg24
S'--'
p322
sg26
S'--'
p323
sg28
S'--'
p324
sg30
S'L7-20'
p325
sg32
g33
sg34
g33
sg35
S'@PIT'
p326
sg37
S'--'
p327
sg39
g33
sg40
S'--'
p328
ssg145
(dp329
g5
S'--'
p330
sg7
S'--'
p331
sg9
g33
sg11
S'--'
p332
sg13
g10
sg14
S'Brian Tyms'
p333
sg16
S'2013'
p334
sg18
S'16'
p335
sg20
S'--'
p336
sg22
S'12/22'
p337
sg24
S'6.0'
p338
sg26
S'--'
p339
sg28
S'--'
p340
sg30
S'L13-24'
p341
sg32
S'12'
p342
sg34
S'2'
p343
sg35
S'@NYJ'
p344
sg37
g184
sg39
g33
sg40
S'--'
p345
ssg201
(dp346
g5
S'--'
p347
sg7
S'--'
p348
sg9
g33
sg11
S'--'
p349
sg13
g33
sg14
S'Brian Tyms'
p350
sg16
S'2013'
p351
sg18
g201
sg20
S'--'
p352
sg22
S'11/03'
p353
sg24
S'--'
p354
sg26
S'--'
p355
sg28
S'--'
p356
sg30
S'W24-18'
p357
sg32
S'--'
p358
sg34
S'--'
p359
sg35
S'BAL'
p360
sg37
S'--'
p361
sg39
S'--'
p362
sg40
S'--'
p363
ssg217
(dp364
g5
S'--'
p365
sg7
S'--'
p366
sg9
g33
sg11
S'--'
p367
sg13
g10
sg14
S'Brian Tyms'
p368
sg16
S'2013'
p369
sg18
g217
sg20
S'--'
p370
sg22
S'10/27'
p371
sg24
S'--'
p372
sg26
S'--'
p373
sg28
S'--'
p374
sg30
S'L17-23'
p375
sg32
S'--'
p376
sg34
S'--'
p377
sg35
S'@KC'
p378
sg37
S'--'
p379
sg39
S'--'
p380
sg40
S'--'
p381
sss.