(dp0
S'2015'
p1
(dp2
S'11'
p3
(dp4
S'RushTD'
p5
S'--'
p6
sS'RushYds'
p7
S'--'
p8
sS'GS'
p9
S'0'
p10
sS'Lost'
p11
S'--'
p12
sS'G'
p13
S'1'
p14
sS'Player'
p15
S'Brian Quick'
p16
sS'Year'
p17
S'2015'
p18
sS'WK'
p19
S'11'
p20
sS'RushAvg'
p21
S'--'
p22
sS'Game Date'
p23
S'11/22'
p24
sS'RecAvg'
p25
S'--'
p26
sS'FUM'
p27
S'--'
p28
sS'RushAtt'
p29
S'--'
p30
sS'Result'
p31
S'L13-16'
p32
sS'RecYds'
p33
S'--'
p34
sS'Rec'
p35
S'--'
p36
sS'Opp'
p37
S'@BAL'
p38
sS'RecLng'
p39
S'--'
p40
sS'RecTD'
p41
S'--'
p42
sS'RushLng'
p43
S'--'
p44
ssS'10'
p45
(dp46
g5
S'--'
p47
sg7
S'--'
p48
sg9
g10
sg11
S'--'
p49
sg13
g14
sg15
S'Brian Quick'
p50
sg17
S'2015'
p51
sg19
S'10'
p52
sg21
S'--'
p53
sg23
S'11/15'
p54
sg25
S'37.0'
p55
sg27
S'--'
p56
sg29
S'--'
p57
sg31
S'L13-37'
p58
sg33
S'37'
p59
sg35
g14
sg37
S'CHI'
p60
sg39
S'37'
p61
sg41
g10
sg43
S'--'
p62
ssS'13'
p63
(dp64
g5
S'--'
p65
sg7
S'--'
p66
sg9
g10
sg11
S'--'
p67
sg13
g14
sg15
S'Brian Quick'
p68
sg17
S'2015'
p69
sg19
S'13'
p70
sg21
S'--'
p71
sg23
S'12/06'
p72
sg25
S'14.0'
p73
sg27
S'--'
p74
sg29
S'--'
p75
sg31
S'L3-27'
p76
sg33
S'14'
p77
sg35
g14
sg37
S'ARI'
p78
sg39
S'14'
p79
sg41
g10
sg43
S'--'
p80
ssS'12'
p81
(dp82
g5
S'--'
p83
sg7
S'--'
p84
sg9
g10
sg11
S'--'
p85
sg13
g14
sg15
S'Brian Quick'
p86
sg17
S'2015'
p87
sg19
S'12'
p88
sg21
S'--'
p89
sg23
S'11/29'
p90
sg25
S'4.0'
p91
sg27
S'--'
p92
sg29
S'--'
p93
sg31
S'L7-31'
p94
sg33
S'8'
p95
sg35
S'2'
p96
sg37
S'@CIN'
p97
sg39
S'5'
p98
sg41
g10
sg43
S'--'
p99
ssS'15'
p100
(dp101
g5
S'--'
p102
sg7
S'--'
p103
sg9
g14
sg11
S'--'
p104
sg13
g14
sg15
S'Brian Quick'
p105
sg17
S'2015'
p106
sg19
S'15'
p107
sg21
S'--'
p108
sg23
S'12/17'
p109
sg25
S'--'
p110
sg27
S'--'
p111
sg29
S'--'
p112
sg31
S'W31-23'
p113
sg33
S'--'
p114
sg35
S'--'
p115
sg37
S'TB'
p116
sg39
S'--'
p117
sg41
S'--'
p118
sg43
S'--'
p119
ssS'14'
p120
(dp121
g5
S'--'
p122
sg7
S'--'
p123
sg9
g10
sg11
S'--'
p124
sg13
g14
sg15
S'Brian Quick'
p125
sg17
S'2015'
p126
sg19
S'14'
p127
sg21
S'--'
p128
sg23
S'12/13'
p129
sg25
S'--'
p130
sg27
S'--'
p131
sg29
S'--'
p132
sg31
S'W21-14'
p133
sg33
S'--'
p134
sg35
S'--'
p135
sg37
S'DET'
p136
sg39
S'--'
p137
sg41
S'--'
p138
sg43
S'--'
p139
ssS'17'
p140
(dp141
g5
S'--'
p142
sg7
S'--'
p143
sg9
g10
sg11
S'--'
p144
sg13
g14
sg15
S'Brian Quick'
p145
sg17
S'2015'
p146
sg19
S'17'
p147
sg21
S'--'
p148
sg23
S'01/03'
p149
sg25
S'11.5'
p150
sg27
S'--'
p151
sg29
S'--'
p152
sg31
S'L16-19'
p153
sg33
S'23'
p154
sg35
g96
sg37
S'@SF'
p155
sg39
S'12'
p156
sg41
g10
sg43
S'--'
p157
ssS'16'
p158
(dp159
g5
S'--'
p160
sg7
S'--'
p161
sg9
g14
sg11
S'--'
p162
sg13
g14
sg15
S'Brian Quick'
p163
sg17
S'2015'
p164
sg19
S'16'
p165
sg21
S'--'
p166
sg23
S'12/27'
p167
sg25
S'6.0'
p168
sg27
S'--'
p169
sg29
S'--'
p170
sg31
S'W23-17'
p171
sg33
S'6'
p172
sg35
g14
sg37
S'@SEA'
p173
sg39
g172
sg41
g10
sg43
S'--'
p174
ssg14
(dp175
g5
S'--'
p176
sg7
S'--'
p177
sg9
g10
sg11
S'--'
p178
sg13
g10
sg15
S'Brian Quick'
p179
sg17
S'2015'
p180
sg19
g14
sg21
S'--'
p181
sg23
S'09/13'
p182
sg25
S'--'
p183
sg27
S'--'
p184
sg29
S'--'
p185
sg31
S'W34-31'
p186
sg33
S'--'
p187
sg35
S'--'
p188
sg37
S'SEA'
p189
sg39
S'--'
p190
sg41
S'--'
p191
sg43
S'--'
p192
ssS'3'
p193
(dp194
g5
S'--'
p195
sg7
S'--'
p196
sg9
g10
sg11
S'--'
p197
sg13
g10
sg15
S'Brian Quick'
p198
sg17
S'2015'
p199
sg19
g193
sg21
S'--'
p200
sg23
S'09/27'
p201
sg25
S'--'
p202
sg27
S'--'
p203
sg29
S'--'
p204
sg31
S'L6-12'
p205
sg33
S'--'
p206
sg35
S'--'
p207
sg37
S'PIT'
p208
sg39
S'--'
p209
sg41
S'--'
p210
sg43
S'--'
p211
ssg96
(dp212
g5
S'--'
p213
sg7
S'--'
p214
sg9
g10
sg11
S'--'
p215
sg13
g10
sg15
S'Brian Quick'
p216
sg17
S'2015'
p217
sg19
g96
sg21
S'--'
p218
sg23
S'09/20'
p219
sg25
S'--'
p220
sg27
S'--'
p221
sg29
S'--'
p222
sg31
S'L10-24'
p223
sg33
S'--'
p224
sg35
S'--'
p225
sg37
S'@WAS'
p226
sg39
S'--'
p227
sg41
S'--'
p228
sg43
S'--'
p229
ssg98
(dp230
g5
S'--'
p231
sg7
S'--'
p232
sg9
g10
sg11
S'--'
p233
sg13
g14
sg15
S'Brian Quick'
p234
sg17
S'2015'
p235
sg19
g98
sg21
S'--'
p236
sg23
S'10/11'
p237
sg25
S'10.0'
p238
sg27
S'--'
p239
sg29
S'--'
p240
sg31
S'L10-24'
p241
sg33
S'10'
p242
sg35
g14
sg37
S'@GB'
p243
sg39
S'10'
p244
sg41
g10
sg43
S'--'
p245
ssS'4'
p246
(dp247
g5
S'--'
p248
sg7
S'--'
p249
sg9
g10
sg11
S'--'
p250
sg13
g14
sg15
S'Brian Quick'
p251
sg17
S'2015'
p252
sg19
g246
sg21
S'--'
p253
sg23
S'10/04'
p254
sg25
S'--'
p255
sg27
S'--'
p256
sg29
S'--'
p257
sg31
S'W24-22'
p258
sg33
S'--'
p259
sg35
S'--'
p260
sg37
S'@ARI'
p261
sg39
S'--'
p262
sg41
S'--'
p263
sg43
S'--'
p264
ssS'7'
p265
(dp266
g5
S'--'
p267
sg7
S'--'
p268
sg9
g10
sg11
S'--'
p269
sg13
g14
sg15
S'Brian Quick'
p270
sg17
S'2015'
p271
sg19
g265
sg21
S'--'
p272
sg23
S'10/25'
p273
sg25
S'--'
p274
sg27
S'--'
p275
sg29
S'--'
p276
sg31
S'W24-6'
p277
sg33
g10
sg35
g10
sg37
S'CLE'
p278
sg39
S'--'
p279
sg41
g10
sg43
S'--'
p280
ssg172
(dp281
g5
S''
p282
sg7
g282
sg9
g282
sg11
g282
sg13
g282
sg15
S'Brian Quick'
p283
sg17
S'2015'
p284
sg19
g172
sg21
g282
sg23
S'Bye'
p285
sg25
g282
sg27
g282
sg29
g282
sg31
g282
sg33
g282
sg35
g282
sg37
g282
sg39
g282
sg41
g282
sg43
g282
ssS'9'
p286
(dp287
g5
S'--'
p288
sg7
S'--'
p289
sg9
g10
sg11
S'--'
p290
sg13
g14
sg15
S'Brian Quick'
p291
sg17
S'2015'
p292
sg19
g286
sg21
S'--'
p293
sg23
S'11/08'
p294
sg25
S'-1.0'
p295
sg27
S'--'
p296
sg29
S'--'
p297
sg31
S'L18-21'
p298
sg33
S'-1'
p299
sg35
g14
sg37
S'@MIN'
p300
sg39
S'-1'
p301
sg41
g10
sg43
S'--'
p302
ssg95
(dp303
g5
S'--'
p304
sg7
S'--'
p305
sg9
g10
sg11
S'--'
p306
sg13
g14
sg15
S'Brian Quick'
p307
sg17
S'2015'
p308
sg19
g95
sg21
S'--'
p309
sg23
S'11/01'
p310
sg25
S'5.0'
p311
sg27
S'--'
p312
sg29
S'--'
p313
sg31
S'W27-6'
p314
sg33
g98
sg35
g14
sg37
S'SF'
p315
sg39
g98
sg41
g10
sg43
S'--'
p316
sssS'2014'
p317
(dp318
g14
(dp319
g5
S'--'
p320
sg7
S'--'
p321
sg9
g14
sg11
S'--'
p322
sg13
g14
sg15
S'Brian Quick'
p323
sg17
S'2014'
p324
sg19
g14
sg21
S'--'
p325
sg23
S'09/07'
p326
sg25
S'14.1'
p327
sg27
S'--'
p328
sg29
S'--'
p329
sg31
S'L6-34'
p330
sg33
S'99'
p331
sg35
g265
sg37
S'MIN'
p332
sg39
S'23'
p333
sg41
g10
sg43
S'--'
p334
ssg193
(dp335
g5
S'--'
p336
sg7
S'--'
p337
sg9
g14
sg11
S'--'
p338
sg13
g14
sg15
S'Brian Quick'
p339
sg17
S'2014'
p340
sg19
g193
sg21
S'--'
p341
sg23
S'09/21'
p342
sg25
S'31.0'
p343
sg27
S'--'
p344
sg29
S'--'
p345
sg31
S'L31-34'
p346
sg33
S'62'
p347
sg35
g96
sg37
S'DAL'
p348
sg39
S'51T'
p349
sg41
g14
sg43
S'--'
p350
ssg96
(dp351
g5
S'--'
p352
sg7
S'--'
p353
sg9
g14
sg11
S'--'
p354
sg13
g14
sg15
S'Brian Quick'
p355
sg17
S'2014'
p356
sg19
g96
sg21
S'--'
p357
sg23
S'09/14'
p358
sg25
S'10.6'
p359
sg27
S'--'
p360
sg29
S'--'
p361
sg31
S'W19-17'
p362
sg33
S'74'
p363
sg35
g265
sg37
S'@TB'
p364
sg39
S'16'
p365
sg41
g10
sg43
S'--'
p366
ssg98
(dp367
g5
S'--'
p368
sg7
S'--'
p369
sg9
g14
sg11
S'--'
p370
sg13
g14
sg15
S'Brian Quick'
p371
sg17
S'2014'
p372
sg19
g98
sg21
S'--'
p373
sg23
S'10/05'
p374
sg25
S'17.4'
p375
sg27
S'--'
p376
sg29
S'--'
p377
sg31
S'L28-34'
p378
sg33
S'87'
p379
sg35
g98
sg37
S'@PHI'
p380
sg39
S'43'
p381
sg41
g96
sg43
S'--'
p382
ssg246
(dp383
g5
g282
sg7
g282
sg9
g282
sg11
g282
sg13
g282
sg15
S'Brian Quick'
p384
sg17
S'2014'
p385
sg19
g246
sg21
g282
sg23
S'Bye'
p386
sg25
g282
sg27
g282
sg29
g282
sg31
g282
sg33
g282
sg35
g282
sg37
g282
sg39
g282
sg41
g282
sg43
g282
ssg265
(dp387
g5
S'--'
p388
sg7
S'--'
p389
sg9
g14
sg11
S'--'
p390
sg13
g14
sg15
S'Brian Quick'
p391
sg17
S'2014'
p392
sg19
g265
sg21
S'--'
p393
sg23
S'10/19'
p394
sg25
S'16.5'
p395
sg27
S'--'
p396
sg29
S'--'
p397
sg31
S'W28-26'
p398
sg33
S'33'
p399
sg35
g96
sg37
S'SEA'
p400
sg39
S'19'
p401
sg41
g10
sg43
S'--'
p402
ssg172
(dp403
g5
S'--'
p404
sg7
S'--'
p405
sg9
g14
sg11
S'--'
p406
sg13
g14
sg15
S'Brian Quick'
p407
sg17
S'2014'
p408
sg19
g172
sg21
S'--'
p409
sg23
S'10/13'
p410
sg25
S'10.0'
p411
sg27
S'--'
p412
sg29
S'--'
p413
sg31
S'L17-31'
p414
sg33
S'10'
p415
sg35
g14
sg37
S'SF'
p416
sg39
S'10'
p417
sg41
g10
sg43
S'--'
p418
ssg95
(dp419
g5
S'--'
p420
sg7
S'--'
p421
sg9
g14
sg11
S'--'
p422
sg13
g14
sg15
S'Brian Quick'
p423
sg17
S'2014'
p424
sg19
g95
sg21
S'--'
p425
sg23
S'10/26'
p426
sg25
S'10.0'
p427
sg27
S'--'
p428
sg29
S'--'
p429
sg31
S'L7-34'
p430
sg33
S'10'
p431
sg35
g14
sg37
S'@KC'
p432
sg39
S'10'
p433
sg41
g10
sg43
S'--'
p434
sssS'2013'
p435
(dp436
g3
(dp437
g5
g282
sg7
g282
sg9
g282
sg11
g282
sg13
g282
sg15
S'Brian Quick'
p438
sg17
S'2013'
p439
sg19
S'11'
p440
sg21
g282
sg23
S'Bye'
p441
sg25
g282
sg27
g282
sg29
g282
sg31
g282
sg33
g282
sg35
g282
sg37
g282
sg39
g282
sg41
g282
sg43
g282
ssg45
(dp442
g5
S'--'
p443
sg7
S'--'
p444
sg9
g14
sg11
S'--'
p445
sg13
g14
sg15
S'Brian Quick'
p446
sg17
S'2013'
p447
sg19
S'10'
p448
sg21
S'--'
p449
sg23
S'11/10'
p450
sg25
S'--'
p451
sg27
S'--'
p452
sg29
S'--'
p453
sg31
S'W38-8'
p454
sg33
S'--'
p455
sg35
S'--'
p456
sg37
S'@IND'
p457
sg39
S'--'
p458
sg41
S'--'
p459
sg43
S'--'
p460
ssg63
(dp461
g5
S'--'
p462
sg7
S'--'
p463
sg9
g10
sg11
S'--'
p464
sg13
g14
sg15
S'Brian Quick'
p465
sg17
S'2013'
p466
sg19
S'13'
p467
sg21
S'--'
p468
sg23
S'12/01'
p469
sg25
S'13.7'
p470
sg27
S'--'
p471
sg29
S'--'
p472
sg31
S'L13-23'
p473
sg33
S'41'
p474
sg35
g193
sg37
S'@SF'
p475
sg39
S'29'
p476
sg41
g14
sg43
S'--'
p477
ssg81
(dp478
g5
S'--'
p479
sg7
S'--'
p480
sg9
g10
sg11
S'--'
p481
sg13
g14
sg15
S'Brian Quick'
p482
sg17
S'2013'
p483
sg19
S'12'
p484
sg21
S'--'
p485
sg23
S'11/24'
p486
sg25
S'9.5'
p487
sg27
S'--'
p488
sg29
S'--'
p489
sg31
S'W42-21'
p490
sg33
S'19'
p491
sg35
g96
sg37
S'CHI'
p492
sg39
S'16'
p493
sg41
g10
sg43
S'--'
p494
ssg100
(dp495
g5
S'--'
p496
sg7
S'--'
p497
sg9
g14
sg11
S'--'
p498
sg13
g14
sg15
S'Brian Quick'
p499
sg17
S'2013'
p500
sg19
S'15'
p501
sg21
S'--'
p502
sg23
S'12/15'
p503
sg25
S'--'
p504
sg27
S'--'
p505
sg29
S'--'
p506
sg31
S'W27-16'
p507
sg33
g10
sg35
g10
sg37
S'NO'
p508
sg39
S'--'
p509
sg41
g10
sg43
S'--'
p510
ssg120
(dp511
g5
S'--'
p512
sg7
S'--'
p513
sg9
g10
sg11
S'--'
p514
sg13
g14
sg15
S'Brian Quick'
p515
sg17
S'2013'
p516
sg19
S'14'
p517
sg21
S'--'
p518
sg23
S'12/08'
p519
sg25
S'--'
p520
sg27
S'--'
p521
sg29
S'--'
p522
sg31
S'L10-30'
p523
sg33
S'--'
p524
sg35
S'--'
p525
sg37
S'@ARI'
p526
sg39
S'--'
p527
sg41
S'--'
p528
sg43
S'--'
p529
ssg140
(dp530
g5
S'--'
p531
sg7
S'--'
p532
sg9
g10
sg11
S'--'
p533
sg13
g14
sg15
S'Brian Quick'
p534
sg17
S'2013'
p535
sg19
S'17'
p536
sg21
S'--'
p537
sg23
S'12/29'
p538
sg25
S'--'
p539
sg27
S'--'
p540
sg29
S'--'
p541
sg31
S'L9-27'
p542
sg33
g10
sg35
g10
sg37
S'@SEA'
p543
sg39
S'--'
p544
sg41
g10
sg43
S'--'
p545
ssg158
(dp546
g5
S'--'
p547
sg7
S'--'
p548
sg9
g14
sg11
S'--'
p549
sg13
g14
sg15
S'Brian Quick'
p550
sg17
S'2013'
p551
sg19
S'16'
p552
sg21
S'--'
p553
sg23
S'12/22'
p554
sg25
S'8.0'
p555
sg27
S'--'
p556
sg29
S'--'
p557
sg31
S'W23-13'
p558
sg33
S'16'
p559
sg35
g96
sg37
S'TB'
p560
sg39
g286
sg41
g10
sg43
S'--'
p561
ssg14
(dp562
g5
S'--'
p563
sg7
S'--'
p564
sg9
g10
sg11
S'--'
p565
sg13
g14
sg15
S'Brian Quick'
p566
sg17
S'2013'
p567
sg19
g14
sg21
S'--'
p568
sg23
S'09/08'
p569
sg25
S'16.0'
p570
sg27
S'--'
p571
sg29
S'--'
p572
sg31
S'W27-24'
p573
sg33
S'16'
p574
sg35
g14
sg37
S'ARI'
p575
sg39
S'16'
p576
sg41
g10
sg43
S'--'
p577
ssg193
(dp578
g5
S'--'
p579
sg7
S'--'
p580
sg9
g10
sg11
S'--'
p581
sg13
g14
sg15
S'Brian Quick'
p582
sg17
S'2013'
p583
sg19
g193
sg21
S'--'
p584
sg23
S'09/22'
p585
sg25
S'7.0'
p586
sg27
S'--'
p587
sg29
S'--'
p588
sg31
S'L7-31'
p589
sg33
g265
sg35
g14
sg37
S'@DAL'
p590
sg39
g265
sg41
g10
sg43
S'--'
p591
ssg96
(dp592
g5
S'--'
p593
sg7
S'--'
p594
sg9
g10
sg11
S'--'
p595
sg13
g14
sg15
S'Brian Quick'
p596
sg17
S'2013'
p597
sg19
g96
sg21
S'--'
p598
sg23
S'09/15'
p599
sg25
S'15.0'
p600
sg27
S'--'
p601
sg29
S'--'
p602
sg31
S'L24-31'
p603
sg33
S'15'
p604
sg35
g14
sg37
S'@ATL'
p605
sg39
S'15'
p606
sg41
g10
sg43
S'--'
p607
ssg98
(dp608
g5
S'--'
p609
sg7
S'--'
p610
sg9
g10
sg11
S'--'
p611
sg13
g14
sg15
S'Brian Quick'
p612
sg17
S'2013'
p613
sg19
g98
sg21
S'--'
p614
sg23
S'10/06'
p615
sg25
S'22.5'
p616
sg27
S'--'
p617
sg29
S'--'
p618
sg31
S'W34-20'
p619
sg33
S'45'
p620
sg35
g96
sg37
S'JAC'
p621
sg39
S'28'
p622
sg41
g10
sg43
S'--'
p623
ssg246
(dp624
g5
S'--'
p625
sg7
S'--'
p626
sg9
g10
sg11
S'--'
p627
sg13
g14
sg15
S'Brian Quick'
p628
sg17
S'2013'
p629
sg19
g246
sg21
S'--'
p630
sg23
S'09/26'
p631
sg25
S'12.0'
p632
sg27
S'--'
p633
sg29
S'--'
p634
sg31
S'L11-35'
p635
sg33
S'12'
p636
sg35
g14
sg37
S'SF'
p637
sg39
S'12'
p638
sg41
g10
sg43
S'--'
p639
ssg265
(dp640
g5
S'--'
p641
sg7
S'--'
p642
sg9
g14
sg11
S'--'
p643
sg13
g14
sg15
S'Brian Quick'
p644
sg17
S'2013'
p645
sg19
g265
sg21
S'--'
p646
sg23
S'10/20'
p647
sg25
S'48.5'
p648
sg27
S'--'
p649
sg29
S'--'
p650
sg31
S'L15-30'
p651
sg33
S'97'
p652
sg35
g96
sg37
S'@CAR'
p653
sg39
S'73'
p654
sg41
g10
sg43
S'--'
p655
ssg172
(dp656
g5
S'--'
p657
sg7
S'--'
p658
sg9
g14
sg11
S'--'
p659
sg13
g14
sg15
S'Brian Quick'
p660
sg17
S'2013'
p661
sg19
g172
sg21
S'--'
p662
sg23
S'10/13'
p663
sg25
S'4.0'
p664
sg27
S'--'
p665
sg29
S'--'
p666
sg31
S'W38-13'
p667
sg33
g246
sg35
g14
sg37
S'@HOU'
p668
sg39
S'4T'
p669
sg41
g14
sg43
S'--'
p670
ssg286
(dp671
g5
S'--'
p672
sg7
S'--'
p673
sg9
g10
sg11
S'--'
p674
sg13
g14
sg15
S'Brian Quick'
p675
sg17
S'2013'
p676
sg19
g286
sg21
S'--'
p677
sg23
S'11/03'
p678
sg25
S'15.0'
p679
sg27
S'--'
p680
sg29
S'--'
p681
sg31
S'L21-28'
p682
sg33
S'30'
p683
sg35
g96
sg37
S'TEN'
p684
sg39
S'20'
p685
sg41
g10
sg43
S'--'
p686
ssg95
(dp687
g5
S'--'
p688
sg7
S'--'
p689
sg9
g10
sg11
S'--'
p690
sg13
g14
sg15
S'Brian Quick'
p691
sg17
S'2013'
p692
sg19
g95
sg21
S'--'
p693
sg23
S'10/28'
p694
sg25
S'--'
p695
sg27
S'--'
p696
sg29
S'--'
p697
sg31
S'L9-14'
p698
sg33
g10
sg35
g10
sg37
S'SEA'
p699
sg39
S'--'
p700
sg41
g10
sg43
S'--'
p701
sssS'2012'
p702
(dp703
g3
(dp704
g5
S'--'
p705
sg7
S'--'
p706
sg9
g10
sg11
S'--'
p707
sg13
g14
sg15
S'Brian Quick'
p708
sg17
S'2012'
p709
sg19
S'11'
p710
sg21
S'--'
p711
sg23
S'11/18'
p712
sg25
S'9.0'
p713
sg27
S'--'
p714
sg29
S'--'
p715
sg31
S'L13-27'
p716
sg33
g286
sg35
g14
sg37
S'NYJ'
p717
sg39
g286
sg41
g10
sg43
S'--'
p718
ssg45
(dp719
g5
S'--'
p720
sg7
S'--'
p721
sg9
g14
sg11
S'--'
p722
sg13
g14
sg15
S'Brian Quick'
p723
sg17
S'2012'
p724
sg19
S'10'
p725
sg21
S'--'
p726
sg23
S'11/11'
p727
sg25
S'36.0'
p728
sg27
S'--'
p729
sg29
S'--'
p730
sg31
S'T24-24'
p731
sg33
S'36'
p732
sg35
g14
sg37
S'@SF'
p733
sg39
S'36T'
p734
sg41
g14
sg43
S'--'
p735
ssg63
(dp736
g5
S'--'
p737
sg7
S'--'
p738
sg9
g10
sg11
S'--'
p739
sg13
g14
sg15
S'Brian Quick'
p740
sg17
S'2012'
p741
sg19
S'13'
p742
sg21
S'--'
p743
sg23
S'12/02'
p744
sg25
S'3.0'
p745
sg27
S'--'
p746
sg29
S'--'
p747
sg31
S'W16-13'
p748
sg33
g193
sg35
g14
sg37
S'SF'
p749
sg39
g193
sg41
g10
sg43
S'--'
p750
ssg81
(dp751
g5
S'--'
p752
sg7
S'--'
p753
sg9
g10
sg11
S'--'
p754
sg13
g14
sg15
S'Brian Quick'
p755
sg17
S'2012'
p756
sg19
S'12'
p757
sg21
S'--'
p758
sg23
S'11/25'
p759
sg25
S'--'
p760
sg27
S'--'
p761
sg29
S'--'
p762
sg31
S'W31-17'
p763
sg33
g10
sg35
g10
sg37
S'@ARI'
p764
sg39
S'--'
p765
sg41
g10
sg43
S'--'
p766
ssg100
(dp767
g5
S'--'
p768
sg7
S'--'
p769
sg9
g10
sg11
S'--'
p770
sg13
g14
sg15
S'Brian Quick'
p771
sg17
S'2012'
p772
sg19
S'15'
p773
sg21
S'--'
p774
sg23
S'12/16'
p775
sg25
S'6.0'
p776
sg27
S'--'
p777
sg29
S'--'
p778
sg31
S'L22-36'
p779
sg33
S'12'
p780
sg35
g96
sg37
S'MIN'
p781
sg39
g95
sg41
g14
sg43
S'--'
p782
ssg120
(dp783
g5
S'--'
p784
sg7
S'--'
p785
sg9
g10
sg11
S'--'
p786
sg13
g14
sg15
S'Brian Quick'
p787
sg17
S'2012'
p788
sg19
S'14'
p789
sg21
S'--'
p790
sg23
S'12/09'
p791
sg25
S'6.0'
p792
sg27
S'--'
p793
sg29
S'--'
p794
sg31
S'W15-12'
p795
sg33
g172
sg35
g14
sg37
S'@BUF'
p796
sg39
g172
sg41
g10
sg43
S'--'
p797
ssg140
(dp798
g5
S'--'
p799
sg7
S'--'
p800
sg9
g10
sg11
S'--'
p801
sg13
g14
sg15
S'Brian Quick'
p802
sg17
S'2012'
p803
sg19
S'17'
p804
sg21
S'--'
p805
sg23
S'12/30'
p806
sg25
S'--'
p807
sg27
S'--'
p808
sg29
S'--'
p809
sg31
S'L13-20'
p810
sg33
g10
sg35
g10
sg37
S'@SEA'
p811
sg39
S'--'
p812
sg41
g10
sg43
S'--'
p813
ssg158
(dp814
g5
S'--'
p815
sg7
S'--'
p816
sg9
g10
sg11
S'--'
p817
sg13
g14
sg15
S'Brian Quick'
p818
sg17
S'2012'
p819
sg19
S'16'
p820
sg21
S'--'
p821
sg23
S'12/23'
p822
sg25
S'--'
p823
sg27
S'--'
p824
sg29
S'--'
p825
sg31
S'W28-13'
p826
sg33
g10
sg35
g10
sg37
S'@TB'
p827
sg39
S'--'
p828
sg41
g10
sg43
S'--'
p829
ssg14
(dp830
g5
S'--'
p831
sg7
S'--'
p832
sg9
g10
sg11
S'--'
p833
sg13
g14
sg15
S'Brian Quick'
p834
sg17
S'2012'
p835
sg19
g14
sg21
S'--'
p836
sg23
S'09/09'
p837
sg25
S'--'
p838
sg27
S'--'
p839
sg29
S'--'
p840
sg31
S'L23-27'
p841
sg33
S'--'
p842
sg35
S'--'
p843
sg37
S'@DET'
p844
sg39
S'--'
p845
sg41
S'--'
p846
sg43
S'--'
p847
ssg193
(dp848
g5
S'--'
p849
sg7
S'--'
p850
sg9
g10
sg11
S'--'
p851
sg13
g10
sg15
S'Brian Quick'
p852
sg17
S'2012'
p853
sg19
g193
sg21
S'--'
p854
sg23
S'09/23'
p855
sg25
S'--'
p856
sg27
S'--'
p857
sg29
S'--'
p858
sg31
S'L6-23'
p859
sg33
S'--'
p860
sg35
S'--'
p861
sg37
S'@CHI'
p862
sg39
S'--'
p863
sg41
S'--'
p864
sg43
S'--'
p865
ssg96
(dp866
g5
S'--'
p867
sg7
S'--'
p868
sg9
g10
sg11
S'--'
p869
sg13
g14
sg15
S'Brian Quick'
p870
sg17
S'2012'
p871
sg19
g96
sg21
S'--'
p872
sg23
S'09/16'
p873
sg25
S'--'
p874
sg27
S'--'
p875
sg29
S'--'
p876
sg31
S'W31-28'
p877
sg33
g10
sg35
g10
sg37
S'WAS'
p878
sg39
S'--'
p879
sg41
g10
sg43
S'--'
p880
ssg98
(dp881
g5
S'--'
p882
sg7
S'--'
p883
sg9
g10
sg11
S'--'
p884
sg13
g14
sg15
S'Brian Quick'
p885
sg17
S'2012'
p886
sg19
g98
sg21
S'--'
p887
sg23
S'10/04'
p888
sg25
S'--'
p889
sg27
S'--'
p890
sg29
S'--'
p891
sg31
S'W17-3'
p892
sg33
g10
sg35
g10
sg37
S'ARI'
p893
sg39
S'--'
p894
sg41
g10
sg43
S'--'
p895
ssg246
(dp896
g5
S'--'
p897
sg7
S'--'
p898
sg9
g10
sg11
S'--'
p899
sg13
g14
sg15
S'Brian Quick'
p900
sg17
S'2012'
p901
sg19
g246
sg21
S'--'
p902
sg23
S'09/30'
p903
sg25
S'19.0'
p904
sg27
S'--'
p905
sg29
S'--'
p906
sg31
S'W19-13'
p907
sg33
S'19'
p908
sg35
g14
sg37
S'SEA'
p909
sg39
S'19'
p910
sg41
g10
sg43
S'--'
p911
ssg265
(dp912
g5
S'--'
p913
sg7
S'--'
p914
sg9
g10
sg11
S'--'
p915
sg13
g14
sg15
S'Brian Quick'
p916
sg17
S'2012'
p917
sg19
g265
sg21
S'--'
p918
sg23
S'10/21'
p919
sg25
S'15.5'
p920
sg27
S'--'
p921
sg29
S'--'
p922
sg31
S'L20-30'
p923
sg33
S'31'
p924
sg35
g96
sg37
S'GB'
p925
sg39
S'22'
p926
sg41
g10
sg43
S'--'
p927
ssg172
(dp928
g5
S'--'
p929
sg7
S'--'
p930
sg9
g10
sg11
S'--'
p931
sg13
g14
sg15
S'Brian Quick'
p932
sg17
S'2012'
p933
sg19
g172
sg21
S'--'
p934
sg23
S'10/14'
p935
sg25
S'1.0'
p936
sg27
S'--'
p937
sg29
S'--'
p938
sg31
S'L14-17'
p939
sg33
g14
sg35
g14
sg37
S'@MIA'
p940
sg39
g14
sg41
g10
sg43
S'--'
p941
ssg286
(dp942
g5
g282
sg7
g282
sg9
g282
sg11
g282
sg13
g282
sg15
S'Brian Quick'
p943
sg17
S'2012'
p944
sg19
g286
sg21
g282
sg23
S'Bye'
p945
sg25
g282
sg27
g282
sg29
g282
sg31
g282
sg33
g282
sg35
g282
sg37
g282
sg39
g282
sg41
g282
sg43
g282
ssg95
(dp946
g5
S'--'
p947
sg7
S'--'
p948
sg9
g10
sg11
S'--'
p949
sg13
g14
sg15
S'Brian Quick'
p950
sg17
S'2012'
p951
sg19
g95
sg21
S'--'
p952
sg23
S'10/28'
p953
sg25
S'39.0'
p954
sg27
S'--'
p955
sg29
S'--'
p956
sg31
S'L7-45'
p957
sg33
S'39'
p958
sg35
g14
sg37
S'NE'
p959
sg39
S'39'
p960
sg41
g10
sg43
S'--'
p961
sss.