(dp0
S'2015'
p1
(dp2
S'11'
p3
(dp4
S'RushTD'
p5
S''
p6
sS'RushYds'
p7
g6
sS'GS'
p8
g6
sS'Lost'
p9
g6
sS'G'
p10
g6
sS'Player'
p11
S'Brian Hartline'
p12
sS'Year'
p13
S'2015'
p14
sS'WK'
p15
S'11'
p16
sS'RushAvg'
p17
g6
sS'Game Date'
p18
S'Bye'
p19
sS'RecAvg'
p20
g6
sS'FUM'
p21
g6
sS'RushAtt'
p22
g6
sS'Result'
p23
g6
sS'RecYds'
p24
g6
sS'Rec'
p25
g6
sS'Opp'
p26
g6
sS'RecLng'
p27
g6
sS'RecTD'
p28
g6
sS'RushLng'
p29
g6
ssS'10'
p30
(dp31
g5
S'--'
p32
sg7
S'--'
p33
sg8
S'0'
p34
sg9
S'--'
p35
sg10
S'1'
p36
sg11
S'Brian Hartline'
p37
sg13
S'2015'
p38
sg15
S'10'
p39
sg17
S'--'
p40
sg18
S'11/15'
p41
sg20
S'12.8'
p42
sg21
S'--'
p43
sg22
S'--'
p44
sg23
S'L9-30'
p45
sg24
S'77'
p46
sg25
S'6'
p47
sg26
S'@PIT'
p48
sg27
S'21'
p49
sg28
g34
sg29
S'--'
p50
ssS'13'
p51
(dp52
g5
S'--'
p53
sg7
S'--'
p54
sg8
g36
sg9
S'--'
p55
sg10
g36
sg11
S'Brian Hartline'
p56
sg13
S'2015'
p57
sg15
S'13'
p58
sg17
S'--'
p59
sg18
S'12/06'
p60
sg20
S'10.4'
p61
sg21
S'--'
p62
sg22
S'--'
p63
sg23
S'L3-37'
p64
sg24
S'83'
p65
sg25
S'8'
p66
sg26
S'CIN'
p67
sg27
S'18'
p68
sg28
g34
sg29
S'--'
p69
ssS'12'
p70
(dp71
g5
S'--'
p72
sg7
S'--'
p73
sg8
g36
sg9
S'--'
p74
sg10
g36
sg11
S'Brian Hartline'
p75
sg13
S'2015'
p76
sg15
S'12'
p77
sg17
S'--'
p78
sg18
S'11/30'
p79
sg20
S'9.3'
p80
sg21
S'--'
p81
sg22
S'--'
p82
sg23
S'L27-33'
p83
sg24
S'74'
p84
sg25
g66
sg26
S'BAL'
p85
sg27
S'16'
p86
sg28
g34
sg29
S'--'
p87
ssS'14'
p88
(dp89
g5
S'--'
p90
sg7
S'--'
p91
sg8
g36
sg9
g34
sg10
g36
sg11
S'Brian Hartline'
p92
sg13
S'2015'
p93
sg15
S'14'
p94
sg17
S'--'
p95
sg18
S'12/13'
p96
sg20
S'13.4'
p97
sg21
g36
sg22
S'--'
p98
sg23
S'W24-10'
p99
sg24
S'107'
p100
sg25
g66
sg26
S'SF'
p101
sg27
S'34'
p102
sg28
g34
sg29
S'--'
p103
ssg36
(dp104
g5
S'--'
p105
sg7
S'--'
p106
sg8
g34
sg9
S'--'
p107
sg10
g36
sg11
S'Brian Hartline'
p108
sg13
S'2015'
p109
sg15
g36
sg17
S'--'
p110
sg18
S'09/13'
p111
sg20
S'10.0'
p112
sg21
S'--'
p113
sg22
S'--'
p114
sg23
S'L10-31'
p115
sg24
S'20'
p116
sg25
S'2'
p117
sg26
S'@NYJ'
p118
sg27
S'11'
p119
sg28
g34
sg29
S'--'
p120
ssS'3'
p121
(dp122
g5
S'--'
p123
sg7
S'--'
p124
sg8
g34
sg9
S'--'
p125
sg10
g36
sg11
S'Brian Hartline'
p126
sg13
S'2015'
p127
sg15
g121
sg17
S'--'
p128
sg18
S'09/27'
p129
sg20
S'19.2'
p130
sg21
S'--'
p131
sg22
S'--'
p132
sg23
S'L20-27'
p133
sg24
S'96'
p134
sg25
S'5'
p135
sg26
S'OAK'
p136
sg27
S'41'
p137
sg28
g34
sg29
S'--'
p138
ssg117
(dp139
g5
S'--'
p140
sg7
S'--'
p141
sg8
g34
sg9
S'--'
p142
sg10
g36
sg11
S'Brian Hartline'
p143
sg13
S'2015'
p144
sg15
g117
sg17
S'--'
p145
sg18
S'09/20'
p146
sg20
S'--'
p147
sg21
S'--'
p148
sg22
S'--'
p149
sg23
S'W28-14'
p150
sg24
g34
sg25
g34
sg26
S'TEN'
p151
sg27
S'--'
p152
sg28
g34
sg29
S'--'
p153
ssg135
(dp154
g5
S'--'
p155
sg7
S'--'
p156
sg8
g34
sg9
S'--'
p157
sg10
g36
sg11
S'Brian Hartline'
p158
sg13
S'2015'
p159
sg15
g135
sg17
S'--'
p160
sg18
S'10/11'
p161
sg20
S'5.0'
p162
sg21
S'--'
p163
sg22
S'--'
p164
sg23
S'W33-30'
p165
sg24
g135
sg25
g36
sg26
S'@BAL'
p166
sg27
g135
sg28
g34
sg29
S'--'
p167
ssS'4'
p168
(dp169
g5
S'--'
p170
sg7
S'--'
p171
sg8
g34
sg9
S'--'
p172
sg10
g36
sg11
S'Brian Hartline'
p173
sg13
S'2015'
p174
sg15
g168
sg17
S'--'
p175
sg18
S'10/04'
p176
sg20
S'7.0'
p177
sg21
S'--'
p178
sg22
S'--'
p179
sg23
S'L27-30'
p180
sg24
S'7'
p181
sg25
g36
sg26
S'@SD'
p182
sg27
g181
sg28
g34
sg29
S'--'
p183
ssg181
(dp184
g5
S'--'
p185
sg7
S'--'
p186
sg8
g34
sg9
S'--'
p187
sg10
g36
sg11
S'Brian Hartline'
p188
sg13
S'2015'
p189
sg15
g181
sg17
S'--'
p190
sg18
S'10/25'
p191
sg20
S'7.3'
p192
sg21
S'--'
p193
sg22
S'--'
p194
sg23
S'L6-24'
p195
sg24
S'22'
p196
sg25
g121
sg26
S'@STL'
p197
sg27
S'13'
p198
sg28
g34
sg29
S'--'
p199
ssg47
(dp200
g5
S'--'
p201
sg7
S'--'
p202
sg8
g34
sg9
S'--'
p203
sg10
g36
sg11
S'Brian Hartline'
p204
sg13
S'2015'
p205
sg15
g47
sg17
S'--'
p206
sg18
S'10/18'
p207
sg20
S'--'
p208
sg21
S'--'
p209
sg22
S'--'
p210
sg23
S'L23-26'
p211
sg24
g34
sg25
g34
sg26
S'DEN'
p212
sg27
S'--'
p213
sg28
g34
sg29
S'--'
p214
ssS'9'
p215
(dp216
g5
S'--'
p217
sg7
S'--'
p218
sg8
g34
sg9
S'--'
p219
sg10
g34
sg11
S'Brian Hartline'
p220
sg13
S'2015'
p221
sg15
g215
sg17
S'--'
p222
sg18
S'11/05'
p223
sg20
S'--'
p224
sg21
S'--'
p225
sg22
S'--'
p226
sg23
S'L10-31'
p227
sg24
S'--'
p228
sg25
S'--'
p229
sg26
S'@CIN'
p230
sg27
S'--'
p231
sg28
S'--'
p232
sg29
S'--'
p233
ssg66
(dp234
g5
S'--'
p235
sg7
S'--'
p236
sg8
g36
sg9
S'--'
p237
sg10
g36
sg11
S'Brian Hartline'
p238
sg13
S'2015'
p239
sg15
g66
sg17
S'--'
p240
sg18
S'11/01'
p241
sg20
S'8.0'
p242
sg21
S'--'
p243
sg22
S'--'
p244
sg23
S'L20-34'
p245
sg24
S'32'
p246
sg25
g168
sg26
S'ARI'
p247
sg27
S'14'
p248
sg28
g117
sg29
S'--'
p249
sssS'2014'
p250
(dp251
g3
(dp252
g5
S'--'
p253
sg7
S'--'
p254
sg8
g36
sg9
S'--'
p255
sg10
g36
sg11
S'Brian Hartline'
p256
sg13
S'2014'
p257
sg15
S'11'
p258
sg17
S'--'
p259
sg18
S'11/13'
p260
sg20
S'18.3'
p261
sg21
S'--'
p262
sg22
S'--'
p263
sg23
S'W22-9'
p264
sg24
S'55'
p265
sg25
g121
sg26
S'BUF'
p266
sg27
S'31'
p267
sg28
g34
sg29
S'--'
p268
ssg30
(dp269
g5
S'--'
p270
sg7
S'--'
p271
sg8
g36
sg9
g34
sg10
g36
sg11
S'Brian Hartline'
p272
sg13
S'2014'
p273
sg15
S'10'
p274
sg17
S'--'
p275
sg18
S'11/09'
p276
sg20
S'1.0'
p277
sg21
g36
sg22
S'--'
p278
sg23
S'L16-20'
p279
sg24
g36
sg25
g36
sg26
S'@DET'
p280
sg27
S'12'
p281
sg28
g34
sg29
S'--'
p282
ssg51
(dp283
g5
S'--'
p284
sg7
S'--'
p285
sg8
g36
sg9
S'--'
p286
sg10
g36
sg11
S'Brian Hartline'
p287
sg13
S'2014'
p288
sg15
S'13'
p289
sg17
S'--'
p290
sg18
S'12/01'
p291
sg20
S'9.0'
p292
sg21
S'--'
p293
sg22
S'--'
p294
sg23
S'W16-13'
p295
sg24
g215
sg25
g36
sg26
S'@NYJ'
p296
sg27
g215
sg28
g34
sg29
S'--'
p297
ssg70
(dp298
g5
S'--'
p299
sg7
S'--'
p300
sg8
g36
sg9
S'--'
p301
sg10
g36
sg11
S'Brian Hartline'
p302
sg13
S'2014'
p303
sg15
S'12'
p304
sg17
S'--'
p305
sg18
S'11/23'
p306
sg20
S'19.5'
p307
sg21
S'--'
p308
sg22
S'--'
p309
sg23
S'L36-39'
p310
sg24
S'39'
p311
sg25
g117
sg26
S'@DEN'
p312
sg27
S'21'
p313
sg28
g34
sg29
S'--'
p314
ssS'15'
p315
(dp316
g5
S'--'
p317
sg7
S'--'
p318
sg8
g36
sg9
S'--'
p319
sg10
g36
sg11
S'Brian Hartline'
p320
sg13
S'2014'
p321
sg15
S'15'
p322
sg17
S'--'
p323
sg18
S'12/14'
p324
sg20
S'--'
p325
sg21
S'--'
p326
sg22
S'--'
p327
sg23
S'L13-41'
p328
sg24
g34
sg25
g34
sg26
S'@NE'
p329
sg27
S'--'
p330
sg28
g34
sg29
S'--'
p331
ssg88
(dp332
g5
S'--'
p333
sg7
S'--'
p334
sg8
g36
sg9
S'--'
p335
sg10
g36
sg11
S'Brian Hartline'
p336
sg13
S'2014'
p337
sg15
S'14'
p338
sg17
S'--'
p339
sg18
S'12/07'
p340
sg20
S'5.5'
p341
sg21
S'--'
p342
sg22
S'--'
p343
sg23
S'L13-28'
p344
sg24
S'11'
p345
sg25
g117
sg26
S'BAL'
p346
sg27
g66
sg28
g36
sg29
S'--'
p347
ssS'17'
p348
(dp349
g5
S'--'
p350
sg7
S'--'
p351
sg8
g36
sg9
S'--'
p352
sg10
g36
sg11
S'Brian Hartline'
p353
sg13
S'2014'
p354
sg15
S'17'
p355
sg17
S'--'
p356
sg18
S'12/28'
p357
sg20
S'18.8'
p358
sg21
S'--'
p359
sg22
S'--'
p360
sg23
S'L24-37'
p361
sg24
S'94'
p362
sg25
g135
sg26
S'NYJ'
p363
sg27
S'33'
p364
sg28
g34
sg29
S'--'
p365
ssS'16'
p366
(dp367
g5
S'--'
p368
sg7
S'--'
p369
sg8
g36
sg9
S'--'
p370
sg10
g36
sg11
S'Brian Hartline'
p371
sg13
S'2014'
p372
sg15
S'16'
p373
sg17
S'--'
p374
sg18
S'12/21'
p375
sg20
S'--'
p376
sg21
S'--'
p377
sg22
S'--'
p378
sg23
S'W37-35'
p379
sg24
g34
sg25
g34
sg26
S'MIN'
p380
sg27
S'--'
p381
sg28
g34
sg29
S'--'
p382
ssg36
(dp383
g5
S'--'
p384
sg7
S'--'
p385
sg8
g36
sg9
S'--'
p386
sg10
g36
sg11
S'Brian Hartline'
p387
sg13
S'2014'
p388
sg15
g36
sg17
S'--'
p389
sg18
S'09/07'
p390
sg20
S'13.0'
p391
sg21
S'--'
p392
sg22
S'--'
p393
sg23
S'W33-20'
p394
sg24
S'26'
p395
sg25
g117
sg26
S'NE'
p396
sg27
S'15'
p397
sg28
g34
sg29
S'--'
p398
ssg121
(dp399
g5
S'--'
p400
sg7
S'--'
p401
sg8
g36
sg9
S'--'
p402
sg10
g36
sg11
S'Brian Hartline'
p403
sg13
S'2014'
p404
sg15
g121
sg17
S'--'
p405
sg18
S'09/21'
p406
sg20
S'8.3'
p407
sg21
S'--'
p408
sg22
S'--'
p409
sg23
S'L15-34'
p410
sg24
S'25'
p411
sg25
g121
sg26
S'KC'
p412
sg27
S'15'
p413
sg28
g36
sg29
S'--'
p414
ssg117
(dp415
g5
S'--'
p416
sg7
S'--'
p417
sg8
g36
sg9
S'--'
p418
sg10
g36
sg11
S'Brian Hartline'
p419
sg13
S'2014'
p420
sg15
g117
sg17
S'--'
p421
sg18
S'09/14'
p422
sg20
S'7.2'
p423
sg21
S'--'
p424
sg22
S'--'
p425
sg23
S'L10-29'
p426
sg24
S'36'
p427
sg25
g135
sg26
S'@BUF'
p428
sg27
S'11'
p429
sg28
g34
sg29
S'--'
p430
ssg135
(dp431
g5
g6
sg7
g6
sg8
g6
sg9
g6
sg10
g6
sg11
S'Brian Hartline'
p432
sg13
S'2014'
p433
sg15
g135
sg17
g6
sg18
S'Bye'
p434
sg20
g6
sg21
g6
sg22
g6
sg23
g6
sg24
g6
sg25
g6
sg26
g6
sg27
g6
sg28
g6
sg29
g6
ssg168
(dp435
g5
S'--'
p436
sg7
S'--'
p437
sg8
g36
sg9
S'--'
p438
sg10
g36
sg11
S'Brian Hartline'
p439
sg13
S'2014'
p440
sg15
g168
sg17
S'--'
p441
sg18
S'09/28'
p442
sg20
S'12.3'
p443
sg21
S'--'
p444
sg22
S'--'
p445
sg23
S'W38-14'
p446
sg24
S'74'
p447
sg25
g47
sg26
S'@OAK'
p448
sg27
S'35'
p449
sg28
g34
sg29
S'--'
p450
ssg181
(dp451
g5
S'--'
p452
sg7
S'--'
p453
sg8
g36
sg9
S'--'
p454
sg10
g36
sg11
S'Brian Hartline'
p455
sg13
S'2014'
p456
sg15
g181
sg17
S'--'
p457
sg18
S'10/19'
p458
sg20
S'11.7'
p459
sg21
S'--'
p460
sg22
S'--'
p461
sg23
S'W27-14'
p462
sg24
S'35'
p463
sg25
g121
sg26
S'@CHI'
p464
sg27
S'17'
p465
sg28
g34
sg29
S'--'
p466
ssg47
(dp467
g5
S'--'
p468
sg7
S'--'
p469
sg8
g36
sg9
S'--'
p470
sg10
g36
sg11
S'Brian Hartline'
p471
sg13
S'2014'
p472
sg15
g47
sg17
S'--'
p473
sg18
S'10/12'
p474
sg20
S'--'
p475
sg21
S'--'
p476
sg22
S'--'
p477
sg23
S'L24-27'
p478
sg24
g34
sg25
g34
sg26
S'GB'
p479
sg27
g34
sg28
g34
sg29
S'--'
p480
ssg215
(dp481
g5
S'--'
p482
sg7
S'--'
p483
sg8
g36
sg9
S'--'
p484
sg10
g36
sg11
S'Brian Hartline'
p485
sg13
S'2014'
p486
sg15
g215
sg17
S'--'
p487
sg18
S'11/02'
p488
sg20
S'10.0'
p489
sg21
S'--'
p490
sg22
S'--'
p491
sg23
S'W37-0'
p492
sg24
S'50'
p493
sg25
g135
sg26
S'SD'
p494
sg27
S'18'
p495
sg28
g34
sg29
S'--'
p496
ssg66
(dp497
g5
S'--'
p498
sg7
S'--'
p499
sg8
g36
sg9
S'--'
p500
sg10
g36
sg11
S'Brian Hartline'
p501
sg13
S'2014'
p502
sg15
g66
sg17
S'--'
p503
sg18
S'10/26'
p504
sg20
S'19.0'
p505
sg21
S'--'
p506
sg22
S'--'
p507
sg23
S'W27-13'
p508
sg24
S'19'
p509
sg25
g36
sg26
S'@JAC'
p510
sg27
S'19'
p511
sg28
g34
sg29
S'--'
p512
sssS'2011'
p513
(dp514
g3
(dp515
g5
g34
sg7
g215
sg8
g36
sg9
S'--'
p516
sg10
g36
sg11
S'Brian Hartline'
p517
sg13
S'2011'
p518
sg15
S'11'
p519
sg17
S'9.0'
p520
sg18
S'11/20'
p521
sg20
S'19.0'
p522
sg21
S'--'
p523
sg22
g36
sg23
S'W35-8'
p524
sg24
S'19'
p525
sg25
g36
sg26
S'BUF'
p526
sg27
S'19'
p527
sg28
g34
sg29
g215
ssg30
(dp528
g5
S'--'
p529
sg7
S'--'
p530
sg8
g34
sg9
S'--'
p531
sg10
g36
sg11
S'Brian Hartline'
p532
sg13
S'2011'
p533
sg15
S'10'
p534
sg17
S'--'
p535
sg18
S'11/13'
p536
sg20
S'6.0'
p537
sg21
S'--'
p538
sg22
S'--'
p539
sg23
S'W20-9'
p540
sg24
g47
sg25
g36
sg26
S'WAS'
p541
sg27
g47
sg28
g34
sg29
S'--'
p542
ssg51
(dp543
g5
S'--'
p544
sg7
S'--'
p545
sg8
g36
sg9
S'--'
p546
sg10
g36
sg11
S'Brian Hartline'
p547
sg13
S'2011'
p548
sg15
S'13'
p549
sg17
S'--'
p550
sg18
S'12/04'
p551
sg20
S'9.0'
p552
sg21
S'--'
p553
sg22
S'--'
p554
sg23
S'W34-14'
p555
sg24
g215
sg25
g36
sg26
S'OAK'
p556
sg27
g215
sg28
g34
sg29
S'--'
p557
ssg70
(dp558
g5
S'--'
p559
sg7
S'--'
p560
sg8
g36
sg9
S'--'
p561
sg10
g36
sg11
S'Brian Hartline'
p562
sg13
S'2011'
p563
sg15
S'12'
p564
sg17
S'--'
p565
sg18
S'11/24'
p566
sg20
S'19.3'
p567
sg21
S'--'
p568
sg22
S'--'
p569
sg23
S'L19-20'
p570
sg24
S'77'
p571
sg25
g168
sg26
S'@DAL'
p572
sg27
S'41'
p573
sg28
g34
sg29
S'--'
p574
ssg315
(dp575
g5
S'--'
p576
sg7
S'--'
p577
sg8
g36
sg9
S'--'
p578
sg10
g36
sg11
S'Brian Hartline'
p579
sg13
S'2011'
p580
sg15
S'15'
p581
sg17
S'--'
p582
sg18
S'12/18'
p583
sg20
S'23.0'
p584
sg21
S'--'
p585
sg22
S'--'
p586
sg23
S'W30-23'
p587
sg24
S'69'
p588
sg25
g121
sg26
S'@BUF'
p589
sg27
S'33'
p590
sg28
g34
sg29
S'--'
p591
ssg88
(dp592
g5
S'--'
p593
sg7
S'--'
p594
sg8
g34
sg9
S'--'
p595
sg10
g36
sg11
S'Brian Hartline'
p596
sg13
S'2011'
p597
sg15
S'14'
p598
sg17
S'--'
p599
sg18
S'12/11'
p600
sg20
S'24.0'
p601
sg21
S'--'
p602
sg22
S'--'
p603
sg23
S'L10-26'
p604
sg24
S'24'
p605
sg25
g36
sg26
S'PHI'
p606
sg27
S'24'
p607
sg28
g34
sg29
S'--'
p608
ssg348
(dp609
g5
S'--'
p610
sg7
S'--'
p611
sg8
g34
sg9
S'--'
p612
sg10
g36
sg11
S'Brian Hartline'
p613
sg13
S'2011'
p614
sg15
S'17'
p615
sg17
S'--'
p616
sg18
S'01/01'
p617
sg20
S'8.0'
p618
sg21
S'--'
p619
sg22
S'--'
p620
sg23
S'W19-17'
p621
sg24
S'16'
p622
sg25
g117
sg26
S'NYJ'
p623
sg27
S'11'
p624
sg28
g34
sg29
S'--'
p625
ssg366
(dp626
g5
S'--'
p627
sg7
S'--'
p628
sg8
g36
sg9
S'--'
p629
sg10
g36
sg11
S'Brian Hartline'
p630
sg13
S'2011'
p631
sg15
S'16'
p632
sg17
S'--'
p633
sg18
S'12/24'
p634
sg20
S'18.0'
p635
sg21
S'--'
p636
sg22
S'--'
p637
sg23
S'L24-27'
p638
sg24
S'72'
p639
sg25
g168
sg26
S'@NE'
p640
sg27
S'39'
p641
sg28
g34
sg29
S'--'
p642
ssg36
(dp643
g5
S'--'
p644
sg7
S'--'
p645
sg8
g36
sg9
S'--'
p646
sg10
g36
sg11
S'Brian Hartline'
p647
sg13
S'2011'
p648
sg15
g36
sg17
S'--'
p649
sg18
S'09/12'
p650
sg20
S'11.8'
p651
sg21
S'--'
p652
sg22
S'--'
p653
sg23
S'L24-38'
p654
sg24
S'47'
p655
sg25
g168
sg26
S'NE'
p656
sg27
S'16'
p657
sg28
g36
sg29
S'--'
p658
ssg121
(dp659
g5
S'--'
p660
sg7
S'--'
p661
sg8
g34
sg9
S'--'
p662
sg10
g36
sg11
S'Brian Hartline'
p663
sg13
S'2011'
p664
sg15
g121
sg17
S'--'
p665
sg18
S'09/25'
p666
sg20
S'21.8'
p667
sg21
S'--'
p668
sg22
S'--'
p669
sg23
S'L16-17'
p670
sg24
S'87'
p671
sg25
g168
sg26
S'@CLE'
p672
sg27
S'38'
p673
sg28
g34
sg29
S'--'
p674
ssg117
(dp675
g5
S'--'
p676
sg7
S'--'
p677
sg8
g36
sg9
S'--'
p678
sg10
g36
sg11
S'Brian Hartline'
p679
sg13
S'2011'
p680
sg15
g117
sg17
S'--'
p681
sg18
S'09/18'
p682
sg20
S'18.0'
p683
sg21
S'--'
p684
sg22
S'--'
p685
sg23
S'L13-23'
p686
sg24
S'36'
p687
sg25
g117
sg26
S'HOU'
p688
sg27
S'25'
p689
sg28
g34
sg29
S'--'
p690
ssg135
(dp691
g5
g6
sg7
g6
sg8
g6
sg9
g6
sg10
g6
sg11
S'Brian Hartline'
p692
sg13
S'2011'
p693
sg15
g135
sg17
g6
sg18
S'Bye'
p694
sg20
g6
sg21
g6
sg22
g6
sg23
g6
sg24
g6
sg25
g6
sg26
g6
sg27
g6
sg28
g6
sg29
g6
ssg168
(dp695
g5
S'--'
p696
sg7
S'--'
p697
sg8
g36
sg9
S'--'
p698
sg10
g36
sg11
S'Brian Hartline'
p699
sg13
S'2011'
p700
sg15
g168
sg17
S'--'
p701
sg18
S'10/02'
p702
sg20
S'10.3'
p703
sg21
S'--'
p704
sg22
S'--'
p705
sg23
S'L16-26'
p706
sg24
S'31'
p707
sg25
g121
sg26
S'@SD'
p708
sg27
S'18'
p709
sg28
g34
sg29
S'--'
p710
ssg181
(dp711
g5
S'--'
p712
sg7
S'--'
p713
sg8
g36
sg9
S'--'
p714
sg10
g36
sg11
S'Brian Hartline'
p715
sg13
S'2011'
p716
sg15
g181
sg17
S'--'
p717
sg18
S'10/23'
p718
sg20
S'14.5'
p719
sg21
S'--'
p720
sg22
S'--'
p721
sg23
S'L15-18'
p722
sg24
S'29'
p723
sg25
g117
sg26
S'DEN'
p724
sg27
S'15'
p725
sg28
g34
sg29
S'--'
p726
ssg47
(dp727
g5
S'--'
p728
sg7
S'--'
p729
sg8
g34
sg9
S'--'
p730
sg10
g36
sg11
S'Brian Hartline'
p731
sg13
S'2011'
p732
sg15
g47
sg17
S'--'
p733
sg18
S'10/17'
p734
sg20
S'9.0'
p735
sg21
S'--'
p736
sg22
S'--'
p737
sg23
S'L6-24'
p738
sg24
S'27'
p739
sg25
g121
sg26
S'@NYJ'
p740
sg27
S'11'
p741
sg28
g34
sg29
S'--'
p742
ssg215
(dp743
g5
S'--'
p744
sg7
S'--'
p745
sg8
g36
sg9
S'--'
p746
sg10
g36
sg11
S'Brian Hartline'
p747
sg13
S'2011'
p748
sg15
g215
sg17
S'--'
p749
sg18
S'11/06'
p750
sg20
S'--'
p751
sg21
S'--'
p752
sg22
S'--'
p753
sg23
S'W31-3'
p754
sg24
g34
sg25
g34
sg26
S'@KC'
p755
sg27
S'--'
p756
sg28
g34
sg29
S'--'
p757
ssg66
(dp758
g5
S'--'
p759
sg7
S'--'
p760
sg8
g34
sg9
S'--'
p761
sg10
g36
sg11
S'Brian Hartline'
p762
sg13
S'2011'
p763
sg15
g66
sg17
S'--'
p764
sg18
S'10/30'
p765
sg20
S'--'
p766
sg21
S'--'
p767
sg22
S'--'
p768
sg23
S'L17-20'
p769
sg24
g34
sg25
g34
sg26
S'@NYG'
p770
sg27
S'--'
p771
sg28
g34
sg29
S'--'
p772
sssS'2010'
p773
(dp774
g3
(dp775
g5
S'--'
p776
sg7
S'--'
p777
sg8
g36
sg9
S'--'
p778
sg10
g36
sg11
S'Brian Hartline'
p779
sg13
S'2010'
p780
sg15
S'11'
p781
sg17
S'--'
p782
sg18
S'11/18'
p783
sg20
S'14.0'
p784
sg21
S'--'
p785
sg22
S'--'
p786
sg23
S'L0-16'
p787
sg24
S'70'
p788
sg25
g135
sg26
S'CHI'
p789
sg27
S'24'
p790
sg28
g34
sg29
S'--'
p791
ssg30
(dp792
g5
S'--'
p793
sg7
S'--'
p794
sg8
g36
sg9
S'--'
p795
sg10
g36
sg11
S'Brian Hartline'
p796
sg13
S'2010'
p797
sg15
S'10'
p798
sg17
S'--'
p799
sg18
S'11/14'
p800
sg20
S'19.6'
p801
sg21
S'--'
p802
sg22
S'--'
p803
sg23
S'W29-17'
p804
sg24
S'98'
p805
sg25
g135
sg26
S'TEN'
p806
sg27
S'54'
p807
sg28
g34
sg29
S'--'
p808
ssg51
(dp809
g5
S'--'
p810
sg7
S'--'
p811
sg8
g36
sg9
S'--'
p812
sg10
g36
sg11
S'Brian Hartline'
p813
sg13
S'2010'
p814
sg15
S'13'
p815
sg17
S'--'
p816
sg18
S'12/05'
p817
sg20
S'--'
p818
sg21
S'--'
p819
sg22
S'--'
p820
sg23
S'L10-13'
p821
sg24
g34
sg25
g34
sg26
S'CLE'
p822
sg27
S'--'
p823
sg28
g34
sg29
S'--'
p824
ssg70
(dp825
g5
S'--'
p826
sg7
S'--'
p827
sg8
g36
sg9
S'--'
p828
sg10
g36
sg11
S'Brian Hartline'
p829
sg13
S'2010'
p830
sg15
S'12'
p831
sg17
S'--'
p832
sg18
S'11/28'
p833
sg20
S'18.8'
p834
sg21
S'--'
p835
sg22
S'--'
p836
sg23
S'W33-17'
p837
sg24
S'75'
p838
sg25
g168
sg26
S'@OAK'
p839
sg27
S'26'
p840
sg28
g34
sg29
S'--'
p841
ssg36
(dp842
g5
S'--'
p843
sg7
S'--'
p844
sg8
g36
sg9
S'--'
p845
sg10
g36
sg11
S'Brian Hartline'
p846
sg13
S'2010'
p847
sg15
g36
sg17
S'--'
p848
sg18
S'09/12'
p849
sg20
S'--'
p850
sg21
S'--'
p851
sg22
S'--'
p852
sg23
S'W15-10'
p853
sg24
g34
sg25
g34
sg26
S'@BUF'
p854
sg27
S'--'
p855
sg28
g34
sg29
S'--'
p856
ssg121
(dp857
g5
S'--'
p858
sg7
S'--'
p859
sg8
g36
sg9
S'--'
p860
sg10
g36
sg11
S'Brian Hartline'
p861
sg13
S'2010'
p862
sg15
g121
sg17
S'--'
p863
sg18
S'09/26'
p864
sg20
S'16.8'
p865
sg21
S'--'
p866
sg22
S'--'
p867
sg23
S'L23-31'
p868
sg24
S'84'
p869
sg25
g135
sg26
S'NYJ'
p870
sg27
S'28'
p871
sg28
g34
sg29
S'--'
p872
ssg117
(dp873
g5
S'--'
p874
sg7
S'--'
p875
sg8
g36
sg9
S'--'
p876
sg10
g36
sg11
S'Brian Hartline'
p877
sg13
S'2010'
p878
sg15
g117
sg17
S'--'
p879
sg18
S'09/19'
p880
sg20
S'9.3'
p881
sg21
S'--'
p882
sg22
S'--'
p883
sg23
S'W14-10'
p884
sg24
S'28'
p885
sg25
g121
sg26
S'@MIN'
p886
sg27
S'19'
p887
sg28
g36
sg29
S'--'
p888
ssg135
(dp889
g5
g6
sg7
g6
sg8
g6
sg9
g6
sg10
g6
sg11
S'Brian Hartline'
p890
sg13
S'2010'
p891
sg15
g135
sg17
g6
sg18
S'Bye'
p892
sg20
g6
sg21
g6
sg22
g6
sg23
g6
sg24
g6
sg25
g6
sg26
g6
sg27
g6
sg28
g6
sg29
g6
ssg168
(dp893
g5
S'--'
p894
sg7
S'--'
p895
sg8
g36
sg9
S'--'
p896
sg10
g36
sg11
S'Brian Hartline'
p897
sg13
S'2010'
p898
sg15
g168
sg17
S'--'
p899
sg18
S'10/04'
p900
sg20
S'7.0'
p901
sg21
S'--'
p902
sg22
S'--'
p903
sg23
S'L14-41'
p904
sg24
S'21'
p905
sg25
g121
sg26
S'NE'
p906
sg27
S'10'
p907
sg28
g34
sg29
S'--'
p908
ssg181
(dp909
g5
S'--'
p910
sg7
S'--'
p911
sg8
g36
sg9
g36
sg10
g36
sg11
S'Brian Hartline'
p912
sg13
S'2010'
p913
sg15
g181
sg17
S'--'
p914
sg18
S'10/24'
p915
sg20
S'11.4'
p916
sg21
g36
sg22
S'--'
p917
sg23
S'L22-23'
p918
sg24
S'57'
p919
sg25
g135
sg26
S'PIT'
p920
sg27
S'24'
p921
sg28
g34
sg29
S'--'
p922
ssg47
(dp923
g5
g34
sg7
S'-3'
p924
sg8
g36
sg9
S'--'
p925
sg10
g36
sg11
S'Brian Hartline'
p926
sg13
S'2010'
p927
sg15
g47
sg17
S'-3.0'
p928
sg18
S'10/17'
p929
sg20
S'11.0'
p930
sg21
S'--'
p931
sg22
g36
sg23
S'W23-20'
p932
sg24
S'44'
p933
sg25
g168
sg26
S'@GB'
p934
sg27
S'19'
p935
sg28
g34
sg29
S'-3'
p936
ssg215
(dp937
g5
S'--'
p938
sg7
S'--'
p939
sg8
g36
sg9
S'--'
p940
sg10
g36
sg11
S'Brian Hartline'
p941
sg13
S'2010'
p942
sg15
g215
sg17
S'--'
p943
sg18
S'11/07'
p944
sg20
S'21.3'
p945
sg21
S'--'
p946
sg22
S'--'
p947
sg23
S'L10-26'
p948
sg24
S'85'
p949
sg25
g168
sg26
S'@BAL'
p950
sg27
S'34'
p951
sg28
g34
sg29
S'--'
p952
ssg66
(dp953
g5
g34
sg7
S'30'
p954
sg8
g34
sg9
S'--'
p955
sg10
g36
sg11
S'Brian Hartline'
p956
sg13
S'2010'
p957
sg15
g66
sg17
S'30.0'
p958
sg18
S'10/31'
p959
sg20
S'10.6'
p960
sg21
S'--'
p961
sg22
g36
sg23
S'W22-14'
p962
sg24
S'53'
p963
sg25
g135
sg26
S'@CIN'
p964
sg27
S'24'
p965
sg28
g34
sg29
S'30'
p966
sssS'2013'
p967
(dp968
g3
(dp969
g5
S'--'
p970
sg7
S'--'
p971
sg8
g36
sg9
S'--'
p972
sg10
g36
sg11
S'Brian Hartline'
p973
sg13
S'2013'
p974
sg15
S'11'
p975
sg17
S'--'
p976
sg18
S'11/17'
p977
sg20
S'13.0'
p978
sg21
S'--'
p979
sg22
S'--'
p980
sg23
S'W20-16'
p981
sg24
S'65'
p982
sg25
g135
sg26
S'SD'
p983
sg27
S'16'
p984
sg28
g34
sg29
S'--'
p985
ssg30
(dp986
g5
S'--'
p987
sg7
S'--'
p988
sg8
g36
sg9
S'--'
p989
sg10
g36
sg11
S'Brian Hartline'
p990
sg13
S'2013'
p991
sg15
S'10'
p992
sg17
S'--'
p993
sg18
S'11/11'
p994
sg20
S'11.4'
p995
sg21
S'--'
p996
sg22
S'--'
p997
sg23
S'L19-22'
p998
sg24
S'57'
p999
sg25
g135
sg26
S'@TB'
p1000
sg27
S'19'
p1001
sg28
g34
sg29
S'--'
p1002
ssg51
(dp1003
g5
S'--'
p1004
sg7
S'--'
p1005
sg8
g36
sg9
S'--'
p1006
sg10
g36
sg11
S'Brian Hartline'
p1007
sg13
S'2013'
p1008
sg15
S'13'
p1009
sg17
S'--'
p1010
sg18
S'12/01'
p1011
sg20
S'14.1'
p1012
sg21
S'--'
p1013
sg22
S'--'
p1014
sg23
S'W23-3'
p1015
sg24
S'127'
p1016
sg25
g215
sg26
S'@NYJ'
p1017
sg27
S'31T'
p1018
sg28
g36
sg29
S'--'
p1019
ssg70
(dp1020
g5
S'--'
p1021
sg7
S'--'
p1022
sg8
g36
sg9
S'--'
p1023
sg10
g36
sg11
S'Brian Hartline'
p1024
sg13
S'2013'
p1025
sg15
S'12'
p1026
sg17
S'--'
p1027
sg18
S'11/24'
p1028
sg20
S'15.6'
p1029
sg21
S'--'
p1030
sg22
S'--'
p1031
sg23
S'L16-20'
p1032
sg24
S'78'
p1033
sg25
g135
sg26
S'CAR'
p1034
sg27
S'26'
p1035
sg28
g34
sg29
S'--'
p1036
ssg315
(dp1037
g5
S'--'
p1038
sg7
S'--'
p1039
sg8
g36
sg9
S'--'
p1040
sg10
g36
sg11
S'Brian Hartline'
p1041
sg13
S'2013'
p1042
sg15
S'15'
p1043
sg17
S'--'
p1044
sg18
S'12/15'
p1045
sg20
S'14.0'
p1046
sg21
S'--'
p1047
sg22
S'--'
p1048
sg23
S'W24-20'
p1049
sg24
S'70'
p1050
sg25
g135
sg26
S'NE'
p1051
sg27
S'19'
p1052
sg28
g34
sg29
S'--'
p1053
ssg88
(dp1054
g5
S'--'
p1055
sg7
S'--'
p1056
sg8
g36
sg9
S'--'
p1057
sg10
g36
sg11
S'Brian Hartline'
p1058
sg13
S'2013'
p1059
sg15
S'14'
p1060
sg17
S'--'
p1061
sg18
S'12/08'
p1062
sg20
S'10.2'
p1063
sg21
S'--'
p1064
sg22
S'--'
p1065
sg23
S'W34-28'
p1066
sg24
S'51'
p1067
sg25
g135
sg26
S'@PIT'
p1068
sg27
S'18'
p1069
sg28
g36
sg29
S'--'
p1070
ssg348
(dp1071
g5
S'--'
p1072
sg7
S'--'
p1073
sg8
g36
sg9
S'--'
p1074
sg10
g36
sg11
S'Brian Hartline'
p1075
sg13
S'2013'
p1076
sg15
S'17'
p1077
sg17
S'--'
p1078
sg18
S'12/29'
p1079
sg20
S'19.0'
p1080
sg21
S'--'
p1081
sg22
S'--'
p1082
sg23
S'L7-20'
p1083
sg24
S'38'
p1084
sg25
g117
sg26
S'NYJ'
p1085
sg27
S'25'
p1086
sg28
g34
sg29
S'--'
p1087
ssg366
(dp1088
g5
S'--'
p1089
sg7
S'--'
p1090
sg8
g36
sg9
S'--'
p1091
sg10
g36
sg11
S'Brian Hartline'
p1092
sg13
S'2013'
p1093
sg15
S'16'
p1094
sg17
S'--'
p1095
sg18
S'12/22'
p1096
sg20
S'26.5'
p1097
sg21
S'--'
p1098
sg22
S'--'
p1099
sg23
S'L0-19'
p1100
sg24
S'53'
p1101
sg25
g117
sg26
S'@BUF'
p1102
sg27
S'50'
p1103
sg28
g34
sg29
S'--'
p1104
ssg36
(dp1105
g5
S'--'
p1106
sg7
S'--'
p1107
sg8
g34
sg9
S'--'
p1108
sg10
g36
sg11
S'Brian Hartline'
p1109
sg13
S'2013'
p1110
sg15
g36
sg17
S'--'
p1111
sg18
S'09/08'
p1112
sg20
S'12.7'
p1113
sg21
S'--'
p1114
sg22
S'--'
p1115
sg23
S'W23-10'
p1116
sg24
S'114'
p1117
sg25
g215
sg26
S'@CLE'
p1118
sg27
S'34T'
p1119
sg28
g36
sg29
S'--'
p1120
ssg121
(dp1121
g5
S'--'
p1122
sg7
S'--'
p1123
sg8
g36
sg9
S'--'
p1124
sg10
g36
sg11
S'Brian Hartline'
p1125
sg13
S'2013'
p1126
sg15
g121
sg17
S'--'
p1127
sg18
S'09/22'
p1128
sg20
S'14.0'
p1129
sg21
S'--'
p1130
sg22
S'--'
p1131
sg23
S'W27-23'
p1132
sg24
S'56'
p1133
sg25
g168
sg26
S'ATL'
p1134
sg27
S'20'
p1135
sg28
g36
sg29
S'--'
p1136
ssg117
(dp1137
g5
S'--'
p1138
sg7
S'--'
p1139
sg8
g36
sg9
S'--'
p1140
sg10
g36
sg11
S'Brian Hartline'
p1141
sg13
S'2013'
p1142
sg15
g117
sg17
S'--'
p1143
sg18
S'09/15'
p1144
sg20
S'13.6'
p1145
sg21
S'--'
p1146
sg22
S'--'
p1147
sg23
S'W24-20'
p1148
sg24
S'68'
p1149
sg25
g135
sg26
S'@IND'
p1150
sg27
S'24'
p1151
sg28
g34
sg29
S'--'
p1152
ssg135
(dp1153
g5
S'--'
p1154
sg7
S'--'
p1155
sg8
g36
sg9
S'--'
p1156
sg10
g36
sg11
S'Brian Hartline'
p1157
sg13
S'2013'
p1158
sg15
g135
sg17
S'--'
p1159
sg18
S'10/06'
p1160
sg20
S'15.0'
p1161
sg21
S'--'
p1162
sg22
S'--'
p1163
sg23
S'L23-26'
p1164
sg24
S'60'
p1165
sg25
g168
sg26
S'BAL'
p1166
sg27
S'30'
p1167
sg28
g34
sg29
S'--'
p1168
ssg168
(dp1169
g5
S'--'
p1170
sg7
S'--'
p1171
sg8
g36
sg9
S'--'
p1172
sg10
g36
sg11
S'Brian Hartline'
p1173
sg13
S'2013'
p1174
sg15
g168
sg17
S'--'
p1175
sg18
S'09/30'
p1176
sg20
S'11.3'
p1177
sg21
S'--'
p1178
sg22
S'--'
p1179
sg23
S'L17-38'
p1180
sg24
S'34'
p1181
sg25
g121
sg26
S'@NO'
p1182
sg27
S'13'
p1183
sg28
g34
sg29
S'--'
p1184
ssg181
(dp1185
g5
S'--'
p1186
sg7
S'--'
p1187
sg8
g36
sg9
S'--'
p1188
sg10
g36
sg11
S'Brian Hartline'
p1189
sg13
S'2013'
p1190
sg15
g181
sg17
S'--'
p1191
sg18
S'10/20'
p1192
sg20
S'11.5'
p1193
sg21
S'--'
p1194
sg22
S'--'
p1195
sg23
S'L21-23'
p1196
sg24
S'69'
p1197
sg25
g47
sg26
S'BUF'
p1198
sg27
S'19'
p1199
sg28
g34
sg29
S'--'
p1200
ssg47
(dp1201
g5
g6
sg7
g6
sg8
g6
sg9
g6
sg10
g6
sg11
S'Brian Hartline'
p1202
sg13
S'2013'
p1203
sg15
g47
sg17
g6
sg18
S'Bye'
p1204
sg20
g6
sg21
g6
sg22
g6
sg23
g6
sg24
g6
sg25
g6
sg26
g6
sg27
g6
sg28
g6
sg29
g6
ssg215
(dp1205
g5
S'--'
p1206
sg7
S'--'
p1207
sg8
g36
sg9
S'--'
p1208
sg10
g36
sg11
S'Brian Hartline'
p1209
sg13
S'2013'
p1210
sg15
g215
sg17
S'--'
p1211
sg18
S'10/31'
p1212
sg20
S'13.0'
p1213
sg21
S'--'
p1214
sg22
S'--'
p1215
sg23
S'W22-20'
p1216
sg24
S'39'
p1217
sg25
g121
sg26
S'CIN'
p1218
sg27
S'21'
p1219
sg28
g34
sg29
S'--'
p1220
ssg66
(dp1221
g5
S'--'
p1222
sg7
S'--'
p1223
sg8
g36
sg9
S'--'
p1224
sg10
g36
sg11
S'Brian Hartline'
p1225
sg13
S'2013'
p1226
sg15
g66
sg17
S'--'
p1227
sg18
S'10/27'
p1228
sg20
S'9.3'
p1229
sg21
S'--'
p1230
sg22
S'--'
p1231
sg23
S'L17-27'
p1232
sg24
S'37'
p1233
sg25
g168
sg26
S'@NE'
p1234
sg27
S'15'
p1235
sg28
g34
sg29
S'--'
p1236
sssS'2012'
p1237
(dp1238
g3
(dp1239
g5
S'--'
p1240
sg7
S'--'
p1241
sg8
g36
sg9
g36
sg10
g36
sg11
S'Brian Hartline'
p1242
sg13
S'2012'
p1243
sg15
S'11'
p1244
sg17
S'--'
p1245
sg18
S'11/15'
p1246
sg20
S'12.3'
p1247
sg21
g36
sg22
S'--'
p1248
sg23
S'L14-19'
p1249
sg24
S'49'
p1250
sg25
g168
sg26
S'@BUF'
p1251
sg27
S'17'
p1252
sg28
g34
sg29
S'--'
p1253
ssg30
(dp1254
g5
S'--'
p1255
sg7
S'--'
p1256
sg8
g36
sg9
S'--'
p1257
sg10
g36
sg11
S'Brian Hartline'
p1258
sg13
S'2012'
p1259
sg15
S'10'
p1260
sg17
S'--'
p1261
sg18
S'11/11'
p1262
sg20
S'9.9'
p1263
sg21
S'--'
p1264
sg22
S'--'
p1265
sg23
S'L3-37'
p1266
sg24
S'79'
p1267
sg25
g66
sg26
S'TEN'
p1268
sg27
S'14'
p1269
sg28
g34
sg29
S'--'
p1270
ssg51
(dp1271
g5
S'--'
p1272
sg7
S'--'
p1273
sg8
g36
sg9
S'--'
p1274
sg10
g36
sg11
S'Brian Hartline'
p1275
sg13
S'2012'
p1276
sg15
S'13'
p1277
sg17
S'--'
p1278
sg18
S'12/02'
p1279
sg20
S'16.8'
p1280
sg21
S'--'
p1281
sg22
S'--'
p1282
sg23
S'L16-23'
p1283
sg24
S'84'
p1284
sg25
g135
sg26
S'NE'
p1285
sg27
S'28'
p1286
sg28
g34
sg29
S'--'
p1287
ssg70
(dp1288
g5
S'--'
p1289
sg7
S'--'
p1290
sg8
g36
sg9
S'--'
p1291
sg10
g36
sg11
S'Brian Hartline'
p1292
sg13
S'2012'
p1293
sg15
S'12'
p1294
sg17
S'--'
p1295
sg18
S'11/25'
p1296
sg20
S'8.5'
p1297
sg21
S'--'
p1298
sg22
S'--'
p1299
sg23
S'W24-21'
p1300
sg24
S'17'
p1301
sg25
g117
sg26
S'SEA'
p1302
sg27
S'10'
p1303
sg28
g34
sg29
S'--'
p1304
ssg315
(dp1305
g5
S'--'
p1306
sg7
S'--'
p1307
sg8
g36
sg9
S'--'
p1308
sg10
g36
sg11
S'Brian Hartline'
p1309
sg13
S'2012'
p1310
sg15
S'15'
p1311
sg17
S'--'
p1312
sg18
S'12/16'
p1313
sg20
S'15.4'
p1314
sg21
S'--'
p1315
sg22
S'--'
p1316
sg23
S'W24-3'
p1317
sg24
S'77'
p1318
sg25
g135
sg26
S'JAC'
p1319
sg27
S'37'
p1320
sg28
g34
sg29
S'--'
p1321
ssg88
(dp1322
g5
S'--'
p1323
sg7
S'--'
p1324
sg8
g36
sg9
S'--'
p1325
sg10
g36
sg11
S'Brian Hartline'
p1326
sg13
S'2012'
p1327
sg15
S'14'
p1328
sg17
S'--'
p1329
sg18
S'12/09'
p1330
sg20
S'17.0'
p1331
sg21
S'--'
p1332
sg22
S'--'
p1333
sg23
S'L13-27'
p1334
sg24
S'34'
p1335
sg25
g117
sg26
S'@SF'
p1336
sg27
S'28'
p1337
sg28
g34
sg29
S'--'
p1338
ssg348
(dp1339
g5
S'--'
p1340
sg7
S'--'
p1341
sg8
g36
sg9
S'--'
p1342
sg10
g36
sg11
S'Brian Hartline'
p1343
sg13
S'2012'
p1344
sg15
S'17'
p1345
sg17
S'--'
p1346
sg18
S'12/30'
p1347
sg20
S'13.8'
p1348
sg21
S'--'
p1349
sg22
S'--'
p1350
sg23
S'L0-28'
p1351
sg24
S'69'
p1352
sg25
g135
sg26
S'@NE'
p1353
sg27
S'22'
p1354
sg28
g34
sg29
S'--'
p1355
ssg366
(dp1356
g5
S'--'
p1357
sg7
S'--'
p1358
sg8
g36
sg9
S'--'
p1359
sg10
g36
sg11
S'Brian Hartline'
p1360
sg13
S'2012'
p1361
sg15
S'16'
p1362
sg17
S'--'
p1363
sg18
S'12/23'
p1364
sg20
S'6.0'
p1365
sg21
S'--'
p1366
sg22
S'--'
p1367
sg23
S'W24-10'
p1368
sg24
S'12'
p1369
sg25
g117
sg26
S'BUF'
p1370
sg27
S'10'
p1371
sg28
g34
sg29
S'--'
p1372
ssg36
(dp1373
g5
S'--'
p1374
sg7
S'--'
p1375
sg8
g34
sg9
S'--'
p1376
sg10
g36
sg11
S'Brian Hartline'
p1377
sg13
S'2012'
p1378
sg15
g36
sg17
S'--'
p1379
sg18
S'09/09'
p1380
sg20
S'16.7'
p1381
sg21
S'--'
p1382
sg22
S'--'
p1383
sg23
S'L10-30'
p1384
sg24
S'50'
p1385
sg25
g121
sg26
S'@HOU'
p1386
sg27
S'34'
p1387
sg28
g34
sg29
S'--'
p1388
ssg121
(dp1389
g5
S'--'
p1390
sg7
S'--'
p1391
sg8
g36
sg9
S'--'
p1392
sg10
g36
sg11
S'Brian Hartline'
p1393
sg13
S'2012'
p1394
sg15
g121
sg17
S'--'
p1395
sg18
S'09/23'
p1396
sg20
S'41.0'
p1397
sg21
S'--'
p1398
sg22
S'--'
p1399
sg23
S'L20-23'
p1400
sg24
S'41'
p1401
sg25
g36
sg26
S'NYJ'
p1402
sg27
S'41'
p1403
sg28
g34
sg29
S'--'
p1404
ssg117
(dp1405
g5
S'--'
p1406
sg7
S'--'
p1407
sg8
g36
sg9
S'--'
p1408
sg10
g36
sg11
S'Brian Hartline'
p1409
sg13
S'2012'
p1410
sg15
g117
sg17
S'--'
p1411
sg18
S'09/16'
p1412
sg20
S'12.3'
p1413
sg21
S'--'
p1414
sg22
S'--'
p1415
sg23
S'W35-13'
p1416
sg24
S'111'
p1417
sg25
g215
sg26
S'OAK'
p1418
sg27
S'21'
p1419
sg28
g34
sg29
S'--'
p1420
ssg135
(dp1421
g5
S'--'
p1422
sg7
S'--'
p1423
sg8
g36
sg9
S'--'
p1424
sg10
g36
sg11
S'Brian Hartline'
p1425
sg13
S'2012'
p1426
sg15
g135
sg17
S'--'
p1427
sg18
S'10/07'
p1428
sg20
S'14.8'
p1429
sg21
S'--'
p1430
sg22
S'--'
p1431
sg23
S'W17-13'
p1432
sg24
S'59'
p1433
sg25
g168
sg26
S'@CIN'
p1434
sg27
S'30'
p1435
sg28
g34
sg29
S'--'
p1436
ssg168
(dp1437
g5
S'--'
p1438
sg7
S'--'
p1439
sg8
g36
sg9
S'--'
p1440
sg10
g36
sg11
S'Brian Hartline'
p1441
sg13
S'2012'
p1442
sg15
g168
sg17
S'--'
p1443
sg18
S'09/30'
p1444
sg20
S'21.1'
p1445
sg21
S'--'
p1446
sg22
S'--'
p1447
sg23
S'L21-24'
p1448
sg24
S'253'
p1449
sg25
S'12'
p1450
sg26
S'@ARI'
p1451
sg27
S'80T'
p1452
sg28
g36
sg29
S'--'
p1453
ssg181
(dp1454
g5
g6
sg7
g6
sg8
g6
sg9
g6
sg10
g6
sg11
S'Brian Hartline'
p1455
sg13
S'2012'
p1456
sg15
g181
sg17
g6
sg18
S'Bye'
p1457
sg20
g6
sg21
g6
sg22
g6
sg23
g6
sg24
g6
sg25
g6
sg26
g6
sg27
g6
sg28
g6
sg29
g6
ssg47
(dp1458
g5
S'--'
p1459
sg7
S'--'
p1460
sg8
g36
sg9
S'--'
p1461
sg10
g36
sg11
S'Brian Hartline'
p1462
sg13
S'2012'
p1463
sg15
g47
sg17
S'--'
p1464
sg18
S'10/14'
p1465
sg20
S'--'
p1466
sg21
S'--'
p1467
sg22
S'--'
p1468
sg23
S'W17-14'
p1469
sg24
S'--'
p1470
sg25
S'--'
p1471
sg26
S'STL'
p1472
sg27
S'--'
p1473
sg28
S'--'
p1474
sg29
S'--'
p1475
ssg215
(dp1476
g5
S'--'
p1477
sg7
S'--'
p1478
sg8
g36
sg9
S'--'
p1479
sg10
g36
sg11
S'Brian Hartline'
p1480
sg13
S'2012'
p1481
sg15
g215
sg17
S'--'
p1482
sg18
S'11/04'
p1483
sg20
S'13.4'
p1484
sg21
S'--'
p1485
sg22
S'--'
p1486
sg23
S'L20-23'
p1487
sg24
S'107'
p1488
sg25
g66
sg26
S'@IND'
p1489
sg27
S'35'
p1490
sg28
g34
sg29
S'--'
p1491
ssg66
(dp1492
g5
S'--'
p1493
sg7
S'--'
p1494
sg8
g36
sg9
S'--'
p1495
sg10
g36
sg11
S'Brian Hartline'
p1496
sg13
S'2012'
p1497
sg15
g66
sg17
S'--'
p1498
sg18
S'10/28'
p1499
sg20
S'10.3'
p1500
sg21
S'--'
p1501
sg22
S'--'
p1502
sg23
S'W30-9'
p1503
sg24
S'41'
p1504
sg25
g168
sg26
S'@NYJ'
p1505
sg27
S'17'
p1506
sg28
g34
sg29
S'--'
p1507
sss.