(dp0
S'2015'
p1
(dp2
S'11'
p3
(dp4
S'RushTD'
p5
S'--'
p6
sS'RushYds'
p7
S'--'
p8
sS'GS'
p9
S'0'
p10
sS'Lost'
p11
S'--'
p12
sS'G'
p13
g10
sS'Player'
p14
S'Brice Butler'
p15
sS'Year'
p16
S'2015'
p17
sS'WK'
p18
S'11'
p19
sS'RushAvg'
p20
S'--'
p21
sS'Game Date'
p22
S'11/22'
p23
sS'RecAvg'
p24
S'--'
p25
sS'FUM'
p26
S'--'
p27
sS'RushAtt'
p28
S'--'
p29
sS'Result'
p30
S'W24-14'
p31
sS'RecYds'
p32
S'--'
p33
sS'Rec'
p34
S'--'
p35
sS'Opp'
p36
S'@MIA'
p37
sS'RecLng'
p38
S'--'
p39
sS'RecTD'
p40
S'--'
p41
sS'RushLng'
p42
S'--'
p43
ssS'10'
p44
(dp45
g5
S'--'
p46
sg7
S'--'
p47
sg9
g10
sg11
S'--'
p48
sg13
g10
sg14
S'Brice Butler'
p49
sg16
S'2015'
p50
sg18
S'10'
p51
sg20
S'--'
p52
sg22
S'11/15'
p53
sg24
S'--'
p54
sg26
S'--'
p55
sg28
S'--'
p56
sg30
S'L6-10'
p57
sg32
S'--'
p58
sg34
S'--'
p59
sg36
S'@TB'
p60
sg38
S'--'
p61
sg40
S'--'
p62
sg42
S'--'
p63
ssS'13'
p64
(dp65
g5
S'--'
p66
sg7
S'--'
p67
sg9
g10
sg11
S'--'
p68
sg13
g10
sg14
S'Brice Butler'
p69
sg16
S'2015'
p70
sg18
S'13'
p71
sg20
S'--'
p72
sg22
S'12/07'
p73
sg24
S'--'
p74
sg26
S'--'
p75
sg28
S'--'
p76
sg30
S'W19-16'
p77
sg32
S'--'
p78
sg34
S'--'
p79
sg36
S'@WAS'
p80
sg38
S'--'
p81
sg40
S'--'
p82
sg42
S'--'
p83
ssS'12'
p84
(dp85
g5
S'--'
p86
sg7
S'--'
p87
sg9
g10
sg11
S'--'
p88
sg13
g10
sg14
S'Brice Butler'
p89
sg16
S'2015'
p90
sg18
S'12'
p91
sg20
S'--'
p92
sg22
S'11/26'
p93
sg24
S'--'
p94
sg26
S'--'
p95
sg28
S'--'
p96
sg30
S'L14-33'
p97
sg32
S'--'
p98
sg34
S'--'
p99
sg36
S'CAR'
p100
sg38
S'--'
p101
sg40
S'--'
p102
sg42
S'--'
p103
ssS'15'
p104
(dp105
g5
S'--'
p106
sg7
S'--'
p107
sg9
g10
sg11
S'--'
p108
sg13
S'1'
p109
sg14
S'Brice Butler'
p110
sg16
S'2015'
p111
sg18
S'15'
p112
sg20
S'--'
p113
sg22
S'12/19'
p114
sg24
S'16.0'
p115
sg26
S'--'
p116
sg28
S'--'
p117
sg30
S'L16-19'
p118
sg32
S'16'
p119
sg34
g109
sg36
S'NYJ'
p120
sg38
S'16'
p121
sg40
g10
sg42
S'--'
p122
ssS'14'
p123
(dp124
g5
S'--'
p125
sg7
S'--'
p126
sg9
g10
sg11
S'--'
p127
sg13
g10
sg14
S'Brice Butler'
p128
sg16
S'2015'
p129
sg18
S'14'
p130
sg20
S'--'
p131
sg22
S'12/13'
p132
sg24
S'--'
p133
sg26
S'--'
p134
sg28
S'--'
p135
sg30
S'L7-28'
p136
sg32
S'--'
p137
sg34
S'--'
p138
sg36
S'@GB'
p139
sg38
S'--'
p140
sg40
S'--'
p141
sg42
S'--'
p142
ssS'17'
p143
(dp144
g5
S'--'
p145
sg7
S'--'
p146
sg9
g109
sg11
S'--'
p147
sg13
g109
sg14
S'Brice Butler'
p148
sg16
S'2015'
p149
sg18
S'17'
p150
sg20
S'--'
p151
sg22
S'01/03'
p152
sg24
S'15.0'
p153
sg26
S'--'
p154
sg28
S'--'
p155
sg30
S'L23-34'
p156
sg32
S'60'
p157
sg34
S'4'
p158
sg36
S'WAS'
p159
sg38
S'24'
p160
sg40
g10
sg42
S'--'
p161
ssS'16'
p162
(dp163
g5
S'--'
p164
sg7
S'--'
p165
sg9
g10
sg11
S'--'
p166
sg13
g109
sg14
S'Brice Butler'
p167
sg16
S'2015'
p168
sg18
S'16'
p169
sg20
S'--'
p170
sg22
S'12/27'
p171
sg24
S'18.5'
p172
sg26
S'--'
p173
sg28
S'--'
p174
sg30
S'L6-16'
p175
sg32
S'74'
p176
sg34
g158
sg36
S'@BUF'
p177
sg38
S'34'
p178
sg40
g10
sg42
S'--'
p179
ssg109
(dp180
g5
S'--'
p181
sg7
S'--'
p182
sg9
g10
sg11
S'--'
p183
sg13
g10
sg14
S'Brice Butler'
p184
sg16
S'2015'
p185
sg18
g109
sg20
S'--'
p186
sg22
S'09/13'
p187
sg24
S'--'
p188
sg26
S'--'
p189
sg28
S'--'
p190
sg30
S'L13-33'
p191
sg32
S'--'
p192
sg34
S'--'
p193
sg36
S'CIN'
p194
sg38
S'--'
p195
sg40
S'--'
p196
sg42
S'--'
p197
ssS'3'
p198
(dp199
g5
S'--'
p200
sg7
S'--'
p201
sg9
g10
sg11
S'--'
p202
sg13
g109
sg14
S'Brice Butler'
p203
sg16
S'2015'
p204
sg18
g198
sg20
S'--'
p205
sg22
S'09/27'
p206
sg24
S'--'
p207
sg26
S'--'
p208
sg28
S'--'
p209
sg30
S'L28-39'
p210
sg32
S'--'
p211
sg34
S'--'
p212
sg36
S'ATL'
p213
sg38
S'--'
p214
sg40
S'--'
p215
sg42
S'--'
p216
ssS'2'
p217
(dp218
g5
S'--'
p219
sg7
S'--'
p220
sg9
g10
sg11
S'--'
p221
sg13
g109
sg14
S'Brice Butler'
p222
sg16
S'2015'
p223
sg18
g217
sg20
S'--'
p224
sg22
S'09/20'
p225
sg24
S'--'
p226
sg26
S'--'
p227
sg28
S'--'
p228
sg30
S'W20-10'
p229
sg32
S'--'
p230
sg34
S'--'
p231
sg36
S'@PHI'
p232
sg38
S'--'
p233
sg40
S'--'
p234
sg42
S'--'
p235
ssS'5'
p236
(dp237
g5
S'--'
p238
sg7
S'--'
p239
sg9
g10
sg11
S'--'
p240
sg13
g10
sg14
S'Brice Butler'
p241
sg16
S'2015'
p242
sg18
g236
sg20
S'--'
p243
sg22
S'10/11'
p244
sg24
S'--'
p245
sg26
S'--'
p246
sg28
S'--'
p247
sg30
S'L6-30'
p248
sg32
S'--'
p249
sg34
S'--'
p250
sg36
S'NE'
p251
sg38
S'--'
p252
sg40
S'--'
p253
sg42
S'--'
p254
ssg158
(dp255
g5
S'--'
p256
sg7
S'--'
p257
sg9
g10
sg11
S'--'
p258
sg13
g109
sg14
S'Brice Butler'
p259
sg16
S'2015'
p260
sg18
g158
sg20
S'--'
p261
sg22
S'10/04'
p262
sg24
S'67.0'
p263
sg26
S'--'
p264
sg28
S'--'
p265
sg30
S'L20-26'
p266
sg32
S'67'
p267
sg34
g109
sg36
S'@NO'
p268
sg38
S'67'
p269
sg40
g10
sg42
S'--'
p270
ssS'7'
p271
(dp272
g5
S'--'
p273
sg7
S'--'
p274
sg9
g109
sg11
S'--'
p275
sg13
g109
sg14
S'Brice Butler'
p276
sg16
S'2015'
p277
sg18
g271
sg20
S'--'
p278
sg22
S'10/25'
p279
sg24
S'20.5'
p280
sg26
S'--'
p281
sg28
S'--'
p282
sg30
S'L20-27'
p283
sg32
S'41'
p284
sg34
g217
sg36
S'@NYG'
p285
sg38
S'26'
p286
sg40
g10
sg42
S'--'
p287
ssS'6'
p288
(dp289
g5
S''
p290
sg7
g290
sg9
g290
sg11
g290
sg13
g290
sg14
S'Brice Butler'
p291
sg16
S'2015'
p292
sg18
g288
sg20
g290
sg22
S'Bye'
p293
sg24
g290
sg26
g290
sg28
g290
sg30
g290
sg32
g290
sg34
g290
sg36
g290
sg38
g290
sg40
g290
sg42
g290
ssS'9'
p294
(dp295
g5
S'--'
p296
sg7
S'--'
p297
sg9
g10
sg11
S'--'
p298
sg13
g10
sg14
S'Brice Butler'
p299
sg16
S'2015'
p300
sg18
g294
sg20
S'--'
p301
sg22
S'11/08'
p302
sg24
S'--'
p303
sg26
S'--'
p304
sg28
S'--'
p305
sg30
S'L27-33'
p306
sg32
S'--'
p307
sg34
S'--'
p308
sg36
S'PHI'
p309
sg38
S'--'
p310
sg40
S'--'
p311
sg42
S'--'
p312
ssS'8'
p313
(dp314
g5
S'--'
p315
sg7
S'--'
p316
sg9
g10
sg11
S'--'
p317
sg13
g10
sg14
S'Brice Butler'
p318
sg16
S'2015'
p319
sg18
g313
sg20
S'--'
p320
sg22
S'11/01'
p321
sg24
S'--'
p322
sg26
S'--'
p323
sg28
S'--'
p324
sg30
S'L12-13'
p325
sg32
S'--'
p326
sg34
S'--'
p327
sg36
S'SEA'
p328
sg38
S'--'
p329
sg40
S'--'
p330
sg42
S'--'
p331
sssS'2014'
p332
(dp333
g3
(dp334
g5
S'--'
p335
sg7
S'--'
p336
sg9
g10
sg11
S'--'
p337
sg13
g109
sg14
S'Brice Butler'
p338
sg16
S'2014'
p339
sg18
S'11'
p340
sg20
S'--'
p341
sg22
S'11/16'
p342
sg24
S'15.0'
p343
sg26
S'--'
p344
sg28
S'--'
p345
sg30
S'L6-13'
p346
sg32
S'15'
p347
sg34
g109
sg36
S'@SD'
p348
sg38
S'15'
p349
sg40
g10
sg42
S'--'
p350
ssg44
(dp351
g5
S'--'
p352
sg7
S'--'
p353
sg9
g10
sg11
S'--'
p354
sg13
g109
sg14
S'Brice Butler'
p355
sg16
S'2014'
p356
sg18
S'10'
p357
sg20
S'--'
p358
sg22
S'11/09'
p359
sg24
S'6.0'
p360
sg26
S'--'
p361
sg28
S'--'
p362
sg30
S'L17-41'
p363
sg32
S'12'
p364
sg34
g217
sg36
S'DEN'
p365
sg38
g271
sg40
g109
sg42
S'--'
p366
ssg64
(dp367
g5
S'--'
p368
sg7
S'--'
p369
sg9
g10
sg11
S'--'
p370
sg13
g109
sg14
S'Brice Butler'
p371
sg16
S'2014'
p372
sg18
S'13'
p373
sg20
S'--'
p374
sg22
S'11/30'
p375
sg24
S'13.5'
p376
sg26
S'--'
p377
sg28
S'--'
p378
sg30
S'L0-52'
p379
sg32
S'27'
p380
sg34
g217
sg36
S'@STL'
p381
sg38
S'17'
p382
sg40
g10
sg42
S'--'
p383
ssg84
(dp384
g5
S'--'
p385
sg7
S'--'
p386
sg9
g10
sg11
S'--'
p387
sg13
g109
sg14
S'Brice Butler'
p388
sg16
S'2014'
p389
sg18
S'12'
p390
sg20
S'--'
p391
sg22
S'11/20'
p392
sg24
S'10.5'
p393
sg26
S'--'
p394
sg28
S'--'
p395
sg30
S'W24-20'
p396
sg32
S'21'
p397
sg34
g217
sg36
S'KC'
p398
sg38
S'11'
p399
sg40
g10
sg42
S'--'
p400
ssg104
(dp401
g5
S'--'
p402
sg7
S'--'
p403
sg9
g10
sg11
S'--'
p404
sg13
g109
sg14
S'Brice Butler'
p405
sg16
S'2014'
p406
sg18
S'15'
p407
sg20
S'--'
p408
sg22
S'12/14'
p409
sg24
S'7.7'
p410
sg26
S'--'
p411
sg28
S'--'
p412
sg30
S'L13-31'
p413
sg32
S'23'
p414
sg34
g198
sg36
S'@KC'
p415
sg38
S'13'
p416
sg40
g10
sg42
S'--'
p417
ssg123
(dp418
g5
S'--'
p419
sg7
S'--'
p420
sg9
g10
sg11
S'--'
p421
sg13
g109
sg14
S'Brice Butler'
p422
sg16
S'2014'
p423
sg18
S'14'
p424
sg20
S'--'
p425
sg22
S'12/07'
p426
sg24
S'--'
p427
sg26
S'--'
p428
sg28
S'--'
p429
sg30
S'W24-13'
p430
sg32
g10
sg34
g10
sg36
S'SF'
p431
sg38
S'--'
p432
sg40
g10
sg42
S'--'
p433
ssg143
(dp434
g5
S'--'
p435
sg7
S'--'
p436
sg9
g10
sg11
S'--'
p437
sg13
g109
sg14
S'Brice Butler'
p438
sg16
S'2014'
p439
sg18
S'17'
p440
sg20
S'--'
p441
sg22
S'12/28'
p442
sg24
S'6.0'
p443
sg26
S'--'
p444
sg28
S'--'
p445
sg30
S'L14-47'
p446
sg32
g288
sg34
g109
sg36
S'@DEN'
p447
sg38
g288
sg40
g10
sg42
S'--'
p448
ssg162
(dp449
g5
S'--'
p450
sg7
S'--'
p451
sg9
g10
sg11
S'--'
p452
sg13
g109
sg14
S'Brice Butler'
p453
sg16
S'2014'
p454
sg18
S'16'
p455
sg20
S'--'
p456
sg22
S'12/21'
p457
sg24
S'--'
p458
sg26
S'--'
p459
sg28
S'--'
p460
sg30
S'W26-24'
p461
sg32
g10
sg34
g10
sg36
S'BUF'
p462
sg38
S'--'
p463
sg40
g10
sg42
S'--'
p464
ssg109
(dp465
g5
S'--'
p466
sg7
S'--'
p467
sg9
g10
sg11
S'--'
p468
sg13
g10
sg14
S'Brice Butler'
p469
sg16
S'2014'
p470
sg18
g109
sg20
S'--'
p471
sg22
S'09/07'
p472
sg24
S'--'
p473
sg26
S'--'
p474
sg28
S'--'
p475
sg30
S'L14-19'
p476
sg32
S'--'
p477
sg34
S'--'
p478
sg36
S'@NYJ'
p479
sg38
S'--'
p480
sg40
S'--'
p481
sg42
S'--'
p482
ssg198
(dp483
g5
S'--'
p484
sg7
S'--'
p485
sg9
g10
sg11
S'--'
p486
sg13
g109
sg14
S'Brice Butler'
p487
sg16
S'2014'
p488
sg18
g198
sg20
S'--'
p489
sg22
S'09/21'
p490
sg24
S'--'
p491
sg26
S'--'
p492
sg28
S'--'
p493
sg30
S'L9-16'
p494
sg32
S'--'
p495
sg34
S'--'
p496
sg36
S'@NE'
p497
sg38
S'--'
p498
sg40
S'--'
p499
sg42
S'--'
p500
ssg217
(dp501
g5
S'--'
p502
sg7
S'--'
p503
sg9
g10
sg11
S'--'
p504
sg13
g109
sg14
S'Brice Butler'
p505
sg16
S'2014'
p506
sg18
g217
sg20
S'--'
p507
sg22
S'09/14'
p508
sg24
S'-2.0'
p509
sg26
S'--'
p510
sg28
S'--'
p511
sg30
S'L14-30'
p512
sg32
S'-2'
p513
sg34
g109
sg36
S'HOU'
p514
sg38
S'-2'
p515
sg40
g10
sg42
S'--'
p516
ssg236
(dp517
g5
g290
sg7
g290
sg9
g290
sg11
g290
sg13
g290
sg14
S'Brice Butler'
p518
sg16
S'2014'
p519
sg18
g236
sg20
g290
sg22
S'Bye'
p520
sg24
g290
sg26
g290
sg28
g290
sg30
g290
sg32
g290
sg34
g290
sg36
g290
sg38
g290
sg40
g290
sg42
g290
ssg158
(dp521
g5
S'--'
p522
sg7
S'--'
p523
sg9
g10
sg11
S'--'
p524
sg13
g109
sg14
S'Brice Butler'
p525
sg16
S'2014'
p526
sg18
g158
sg20
S'--'
p527
sg22
S'09/28'
p528
sg24
S'15.0'
p529
sg26
S'--'
p530
sg28
S'--'
p531
sg30
S'L14-38'
p532
sg32
S'30'
p533
sg34
g217
sg36
S'MIA'
p534
sg38
S'15'
p535
sg40
g10
sg42
S'--'
p536
ssg271
(dp537
g5
S'--'
p538
sg7
S'--'
p539
sg9
g10
sg11
S'--'
p540
sg13
g109
sg14
S'Brice Butler'
p541
sg16
S'2014'
p542
sg18
g271
sg20
S'--'
p543
sg22
S'10/19'
p544
sg24
S'55.0'
p545
sg26
S'--'
p546
sg28
S'--'
p547
sg30
S'L13-24'
p548
sg32
S'55'
p549
sg34
g109
sg36
S'ARI'
p550
sg38
S'55'
p551
sg40
g10
sg42
S'--'
p552
ssg288
(dp553
g5
S'--'
p554
sg7
S'--'
p555
sg9
g10
sg11
S'--'
p556
sg13
g109
sg14
S'Brice Butler'
p557
sg16
S'2014'
p558
sg18
g288
sg20
S'--'
p559
sg22
S'10/12'
p560
sg24
S'21.3'
p561
sg26
S'--'
p562
sg28
S'--'
p563
sg30
S'L28-31'
p564
sg32
S'64'
p565
sg34
g198
sg36
S'SD'
p566
sg38
S'47T'
p567
sg40
g109
sg42
S'--'
p568
ssg294
(dp569
g5
S'--'
p570
sg7
S'--'
p571
sg9
g10
sg11
S'--'
p572
sg13
g109
sg14
S'Brice Butler'
p573
sg16
S'2014'
p574
sg18
g294
sg20
S'--'
p575
sg22
S'11/02'
p576
sg24
S'10.0'
p577
sg26
S'--'
p578
sg28
S'--'
p579
sg30
S'L24-30'
p580
sg32
S'20'
p581
sg34
g217
sg36
S'@SEA'
p582
sg38
S'12'
p583
sg40
g10
sg42
S'--'
p584
ssg313
(dp585
g5
S'--'
p586
sg7
S'--'
p587
sg9
g10
sg11
S'--'
p588
sg13
g109
sg14
S'Brice Butler'
p589
sg16
S'2014'
p590
sg18
g313
sg20
S'--'
p591
sg22
S'10/26'
p592
sg24
S'9.0'
p593
sg26
S'--'
p594
sg28
S'--'
p595
sg30
S'L13-23'
p596
sg32
g294
sg34
g109
sg36
S'@CLE'
p597
sg38
g294
sg40
g10
sg42
S'--'
p598
sssS'2013'
p599
(dp600
g3
(dp601
g5
S'--'
p602
sg7
S'--'
p603
sg9
g10
sg11
S'--'
p604
sg13
g109
sg14
S'Brice Butler'
p605
sg16
S'2013'
p606
sg18
S'11'
p607
sg20
S'--'
p608
sg22
S'11/17'
p609
sg24
S'--'
p610
sg26
S'--'
p611
sg28
S'--'
p612
sg30
S'W28-23'
p613
sg32
S'--'
p614
sg34
S'--'
p615
sg36
S'@HOU'
p616
sg38
S'--'
p617
sg40
S'--'
p618
sg42
S'--'
p619
ssg44
(dp620
g5
S'--'
p621
sg7
S'--'
p622
sg9
g10
sg11
S'--'
p623
sg13
g10
sg14
S'Brice Butler'
p624
sg16
S'2013'
p625
sg18
S'10'
p626
sg20
S'--'
p627
sg22
S'11/10'
p628
sg24
S'--'
p629
sg26
S'--'
p630
sg28
S'--'
p631
sg30
S'L20-24'
p632
sg32
S'--'
p633
sg34
S'--'
p634
sg36
S'@NYG'
p635
sg38
S'--'
p636
sg40
S'--'
p637
sg42
S'--'
p638
ssg64
(dp639
g5
S'--'
p640
sg7
S'--'
p641
sg9
g10
sg11
S'--'
p642
sg13
g10
sg14
S'Brice Butler'
p643
sg16
S'2013'
p644
sg18
S'13'
p645
sg20
S'--'
p646
sg22
S'11/28'
p647
sg24
S'--'
p648
sg26
S'--'
p649
sg28
S'--'
p650
sg30
S'L24-31'
p651
sg32
S'--'
p652
sg34
S'--'
p653
sg36
S'@DAL'
p654
sg38
S'--'
p655
sg40
S'--'
p656
sg42
S'--'
p657
ssg84
(dp658
g5
S'--'
p659
sg7
S'--'
p660
sg9
g10
sg11
S'--'
p661
sg13
g109
sg14
S'Brice Butler'
p662
sg16
S'2013'
p663
sg18
S'12'
p664
sg20
S'--'
p665
sg22
S'11/24'
p666
sg24
S'--'
p667
sg26
S'--'
p668
sg28
S'--'
p669
sg30
S'L19-23'
p670
sg32
g10
sg34
g10
sg36
S'TEN'
p671
sg38
S'--'
p672
sg40
g10
sg42
S'--'
p673
ssg104
(dp674
g5
S'--'
p675
sg7
S'--'
p676
sg9
g10
sg11
S'--'
p677
sg13
g10
sg14
S'Brice Butler'
p678
sg16
S'2013'
p679
sg18
S'15'
p680
sg20
S'--'
p681
sg22
S'12/15'
p682
sg24
S'--'
p683
sg26
S'--'
p684
sg28
S'--'
p685
sg30
S'L31-56'
p686
sg32
S'--'
p687
sg34
S'--'
p688
sg36
S'KC'
p689
sg38
S'--'
p690
sg40
S'--'
p691
sg42
S'--'
p692
ssg123
(dp693
g5
S'--'
p694
sg7
S'--'
p695
sg9
g10
sg11
S'--'
p696
sg13
g109
sg14
S'Brice Butler'
p697
sg16
S'2013'
p698
sg18
S'14'
p699
sg20
S'--'
p700
sg22
S'12/08'
p701
sg24
S'--'
p702
sg26
S'--'
p703
sg28
S'--'
p704
sg30
S'L27-37'
p705
sg32
S'--'
p706
sg34
S'--'
p707
sg36
S'@NYJ'
p708
sg38
S'--'
p709
sg40
S'--'
p710
sg42
S'--'
p711
ssg143
(dp712
g5
S'--'
p713
sg7
S'--'
p714
sg9
g10
sg11
S'--'
p715
sg13
g10
sg14
S'Brice Butler'
p716
sg16
S'2013'
p717
sg18
S'17'
p718
sg20
S'--'
p719
sg22
S'12/29'
p720
sg24
S'--'
p721
sg26
S'--'
p722
sg28
S'--'
p723
sg30
S'L14-34'
p724
sg32
S'--'
p725
sg34
S'--'
p726
sg36
S'DEN'
p727
sg38
S'--'
p728
sg40
S'--'
p729
sg42
S'--'
p730
ssg162
(dp731
g5
S'--'
p732
sg7
S'--'
p733
sg9
g10
sg11
S'--'
p734
sg13
g10
sg14
S'Brice Butler'
p735
sg16
S'2013'
p736
sg18
S'16'
p737
sg20
S'--'
p738
sg22
S'12/22'
p739
sg24
S'--'
p740
sg26
S'--'
p741
sg28
S'--'
p742
sg30
S'L13-26'
p743
sg32
S'--'
p744
sg34
S'--'
p745
sg36
S'@SD'
p746
sg38
S'--'
p747
sg40
S'--'
p748
sg42
S'--'
p749
ssg109
(dp750
g5
S'--'
p751
sg7
S'--'
p752
sg9
g10
sg11
S'--'
p753
sg13
g109
sg14
S'Brice Butler'
p754
sg16
S'2013'
p755
sg18
g109
sg20
S'--'
p756
sg22
S'09/08'
p757
sg24
S'8.0'
p758
sg26
S'--'
p759
sg28
S'--'
p760
sg30
S'L17-21'
p761
sg32
g313
sg34
g109
sg36
S'@IND'
p762
sg38
g313
sg40
g10
sg42
S'--'
p763
ssg198
(dp764
g5
S'--'
p765
sg7
S'--'
p766
sg9
g109
sg11
S'--'
p767
sg13
g109
sg14
S'Brice Butler'
p768
sg16
S'2013'
p769
sg18
g198
sg20
S'--'
p770
sg22
S'09/23'
p771
sg24
S'18.0'
p772
sg26
S'--'
p773
sg28
S'--'
p774
sg30
S'L21-37'
p775
sg32
S'54'
p776
sg34
g198
sg36
S'@DEN'
p777
sg38
S'29'
p778
sg40
g10
sg42
S'--'
p779
ssg217
(dp780
g5
S'--'
p781
sg7
S'--'
p782
sg9
g10
sg11
S'--'
p783
sg13
g109
sg14
S'Brice Butler'
p784
sg16
S'2013'
p785
sg18
g217
sg20
S'--'
p786
sg22
S'09/15'
p787
sg24
S'5.0'
p788
sg26
S'--'
p789
sg28
S'--'
p790
sg30
S'W19-9'
p791
sg32
S'10'
p792
sg34
g217
sg36
S'JAC'
p793
sg38
g294
sg40
g10
sg42
S'--'
p794
ssg236
(dp795
g5
S'--'
p796
sg7
S'--'
p797
sg9
g10
sg11
S'--'
p798
sg13
g109
sg14
S'Brice Butler'
p799
sg16
S'2013'
p800
sg18
g236
sg20
S'--'
p801
sg22
S'10/06'
p802
sg24
S'20.0'
p803
sg26
S'--'
p804
sg28
S'--'
p805
sg30
S'W27-17'
p806
sg32
S'20'
p807
sg34
g109
sg36
S'SD'
p808
sg38
S'20'
p809
sg40
g10
sg42
S'--'
p810
ssg158
(dp811
g5
S'--'
p812
sg7
S'--'
p813
sg9
g109
sg11
S'--'
p814
sg13
g109
sg14
S'Brice Butler'
p815
sg16
S'2013'
p816
sg18
g158
sg20
S'--'
p817
sg22
S'09/29'
p818
sg24
S'6.0'
p819
sg26
S'--'
p820
sg28
S'--'
p821
sg30
S'L14-24'
p822
sg32
g288
sg34
g109
sg36
S'WAS'
p823
sg38
g288
sg40
g10
sg42
S'--'
p824
ssg271
(dp825
g5
g290
sg7
g290
sg9
g290
sg11
g290
sg13
g290
sg14
S'Brice Butler'
p826
sg16
S'2013'
p827
sg18
g271
sg20
g290
sg22
S'Bye'
p828
sg24
g290
sg26
g290
sg28
g290
sg30
g290
sg32
g290
sg34
g290
sg36
g290
sg38
g290
sg40
g290
sg42
g290
ssg288
(dp829
g5
S'--'
p830
sg7
S'--'
p831
sg9
g10
sg11
S'--'
p832
sg13
g109
sg14
S'Brice Butler'
p833
sg16
S'2013'
p834
sg18
g288
sg20
S'--'
p835
sg22
S'10/13'
p836
sg24
S'5.0'
p837
sg26
S'--'
p838
sg28
S'--'
p839
sg30
S'L7-24'
p840
sg32
g236
sg34
g109
sg36
S'@KC'
p841
sg38
g236
sg40
g10
sg42
S'--'
p842
ssg294
(dp843
g5
S'--'
p844
sg7
S'--'
p845
sg9
g10
sg11
S'--'
p846
sg13
g10
sg14
S'Brice Butler'
p847
sg16
S'2013'
p848
sg18
g294
sg20
S'--'
p849
sg22
S'11/03'
p850
sg24
S'--'
p851
sg26
S'--'
p852
sg28
S'--'
p853
sg30
S'L20-49'
p854
sg32
S'--'
p855
sg34
S'--'
p856
sg36
S'PHI'
p857
sg38
S'--'
p858
sg40
S'--'
p859
sg42
S'--'
p860
ssg313
(dp861
g5
S'--'
p862
sg7
S'--'
p863
sg9
g10
sg11
S'--'
p864
sg13
g109
sg14
S'Brice Butler'
p865
sg16
S'2013'
p866
sg18
g313
sg20
S'--'
p867
sg22
S'10/27'
p868
sg24
S'--'
p869
sg26
S'--'
p870
sg28
S'--'
p871
sg30
S'W21-18'
p872
sg32
g10
sg34
g10
sg36
S'PIT'
p873
sg38
S'--'
p874
sg40
g10
sg42
S'--'
p875
sss.