(dp0
S'2015'
p1
(dp2
S'11'
p3
(dp4
S'RushTD'
p5
S'--'
p6
sS'RushYds'
p7
S'--'
p8
sS'GS'
p9
S'0'
p10
sS'Lost'
p11
S'--'
p12
sS'G'
p13
S'1'
p14
sS'Player'
p15
S'Brittan Golden'
p16
sS'Year'
p17
S'2015'
p18
sS'WK'
p19
S'11'
p20
sS'RushAvg'
p21
S'--'
p22
sS'Game Date'
p23
S'11/22'
p24
sS'RecAvg'
p25
S'--'
p26
sS'FUM'
p27
S'--'
p28
sS'RushAtt'
p29
S'--'
p30
sS'Result'
p31
S'W34-31'
p32
sS'RecYds'
p33
S'--'
p34
sS'Rec'
p35
S'--'
p36
sS'Opp'
p37
S'CIN'
p38
sS'RecLng'
p39
S'--'
p40
sS'RecTD'
p41
S'--'
p42
sS'RushLng'
p43
S'--'
p44
ssS'10'
p45
(dp46
g5
S'--'
p47
sg7
S'--'
p48
sg9
g10
sg11
S'--'
p49
sg13
g14
sg15
S'Brittan Golden'
p50
sg17
S'2015'
p51
sg19
S'10'
p52
sg21
S'--'
p53
sg23
S'11/15'
p54
sg25
S'--'
p55
sg27
S'--'
p56
sg29
S'--'
p57
sg31
S'W39-32'
p58
sg33
S'--'
p59
sg35
S'--'
p60
sg37
S'@SEA'
p61
sg39
S'--'
p62
sg41
S'--'
p63
sg43
S'--'
p64
ssS'13'
p65
(dp66
g5
S'--'
p67
sg7
S'--'
p68
sg9
g10
sg11
S'--'
p69
sg13
g14
sg15
S'Brittan Golden'
p70
sg17
S'2015'
p71
sg19
S'13'
p72
sg21
S'--'
p73
sg23
S'12/06'
p74
sg25
S'--'
p75
sg27
S'--'
p76
sg29
S'--'
p77
sg31
S'W27-3'
p78
sg33
S'--'
p79
sg35
S'--'
p80
sg37
S'@STL'
p81
sg39
S'--'
p82
sg41
S'--'
p83
sg43
S'--'
p84
ssS'12'
p85
(dp86
g5
S'--'
p87
sg7
S'--'
p88
sg9
g10
sg11
S'--'
p89
sg13
g14
sg15
S'Brittan Golden'
p90
sg17
S'2015'
p91
sg19
S'12'
p92
sg21
S'--'
p93
sg23
S'11/29'
p94
sg25
S'--'
p95
sg27
S'--'
p96
sg29
S'--'
p97
sg31
S'W19-13'
p98
sg33
S'--'
p99
sg35
S'--'
p100
sg37
S'@SF'
p101
sg39
S'--'
p102
sg41
S'--'
p103
sg43
S'--'
p104
ssS'15'
p105
(dp106
g5
S'--'
p107
sg7
S'--'
p108
sg9
g10
sg11
S'--'
p109
sg13
g14
sg15
S'Brittan Golden'
p110
sg17
S'2015'
p111
sg19
S'15'
p112
sg21
S'--'
p113
sg23
S'12/20'
p114
sg25
S'--'
p115
sg27
S'--'
p116
sg29
S'--'
p117
sg31
S'W40-17'
p118
sg33
S'--'
p119
sg35
S'--'
p120
sg37
S'@PHI'
p121
sg39
S'--'
p122
sg41
S'--'
p123
sg43
S'--'
p124
ssS'14'
p125
(dp126
g5
S'--'
p127
sg7
S'--'
p128
sg9
g10
sg11
S'--'
p129
sg13
g14
sg15
S'Brittan Golden'
p130
sg17
S'2015'
p131
sg19
S'14'
p132
sg21
S'--'
p133
sg23
S'12/10'
p134
sg25
S'--'
p135
sg27
S'--'
p136
sg29
S'--'
p137
sg31
S'W23-20'
p138
sg33
S'--'
p139
sg35
S'--'
p140
sg37
S'MIN'
p141
sg39
S'--'
p142
sg41
S'--'
p143
sg43
S'--'
p144
ssS'17'
p145
(dp146
g5
S'--'
p147
sg7
S'--'
p148
sg9
g10
sg11
S'--'
p149
sg13
g14
sg15
S'Brittan Golden'
p150
sg17
S'2015'
p151
sg19
S'17'
p152
sg21
S'--'
p153
sg23
S'01/03'
p154
sg25
S'5.0'
p155
sg27
S'--'
p156
sg29
S'--'
p157
sg31
S'L6-36'
p158
sg33
S'5'
p159
sg35
g14
sg37
S'SEA'
p160
sg39
g159
sg41
g10
sg43
S'--'
p161
ssS'16'
p162
(dp163
g5
S'--'
p164
sg7
S'--'
p165
sg9
g10
sg11
S'--'
p166
sg13
g14
sg15
S'Brittan Golden'
p167
sg17
S'2015'
p168
sg19
S'16'
p169
sg21
S'--'
p170
sg23
S'12/27'
p171
sg25
S'--'
p172
sg27
S'--'
p173
sg29
S'--'
p174
sg31
S'W38-8'
p175
sg33
S'--'
p176
sg35
S'--'
p177
sg37
S'GB'
p178
sg39
S'--'
p179
sg41
S'--'
p180
sg43
S'--'
p181
ssg14
(dp182
g5
S'--'
p183
sg7
S'--'
p184
sg9
g10
sg11
S'--'
p185
sg13
g10
sg15
S'Brittan Golden'
p186
sg17
S'2015'
p187
sg19
g14
sg21
S'--'
p188
sg23
S'09/13'
p189
sg25
S'--'
p190
sg27
S'--'
p191
sg29
S'--'
p192
sg31
S'W31-19'
p193
sg33
S'--'
p194
sg35
S'--'
p195
sg37
S'NO'
p196
sg39
S'--'
p197
sg41
S'--'
p198
sg43
S'--'
p199
ssS'3'
p200
(dp201
g5
S'--'
p202
sg7
S'--'
p203
sg9
g10
sg11
S'--'
p204
sg13
g14
sg15
S'Brittan Golden'
p205
sg17
S'2015'
p206
sg19
g200
sg21
S'--'
p207
sg23
S'09/27'
p208
sg25
S'--'
p209
sg27
S'--'
p210
sg29
S'--'
p211
sg31
S'W47-7'
p212
sg33
S'--'
p213
sg35
S'--'
p214
sg37
S'SF'
p215
sg39
S'--'
p216
sg41
S'--'
p217
sg43
S'--'
p218
ssS'2'
p219
(dp220
g5
S'--'
p221
sg7
S'--'
p222
sg9
g10
sg11
S'--'
p223
sg13
g10
sg15
S'Brittan Golden'
p224
sg17
S'2015'
p225
sg19
g219
sg21
S'--'
p226
sg23
S'09/20'
p227
sg25
S'--'
p228
sg27
S'--'
p229
sg29
S'--'
p230
sg31
S'W48-23'
p231
sg33
S'--'
p232
sg35
S'--'
p233
sg37
S'@CHI'
p234
sg39
S'--'
p235
sg41
S'--'
p236
sg43
S'--'
p237
ssg159
(dp238
g5
S'--'
p239
sg7
S'--'
p240
sg9
g10
sg11
S'--'
p241
sg13
g14
sg15
S'Brittan Golden'
p242
sg17
S'2015'
p243
sg19
g159
sg21
S'--'
p244
sg23
S'10/11'
p245
sg25
S'--'
p246
sg27
S'--'
p247
sg29
S'--'
p248
sg31
S'W42-17'
p249
sg33
S'--'
p250
sg35
S'--'
p251
sg37
S'@DET'
p252
sg39
S'--'
p253
sg41
S'--'
p254
sg43
S'--'
p255
ssS'4'
p256
(dp257
g5
S'--'
p258
sg7
S'--'
p259
sg9
g10
sg11
S'--'
p260
sg13
g14
sg15
S'Brittan Golden'
p261
sg17
S'2015'
p262
sg19
g256
sg21
S'--'
p263
sg23
S'10/04'
p264
sg25
S'--'
p265
sg27
S'--'
p266
sg29
S'--'
p267
sg31
S'L22-24'
p268
sg33
S'--'
p269
sg35
S'--'
p270
sg37
S'STL'
p271
sg39
S'--'
p272
sg41
S'--'
p273
sg43
S'--'
p274
ssS'7'
p275
(dp276
g5
S'--'
p277
sg7
S'--'
p278
sg9
g10
sg11
g10
sg13
g14
sg15
S'Brittan Golden'
p279
sg17
S'2015'
p280
sg19
g275
sg21
S'--'
p281
sg23
S'10/26'
p282
sg25
S'--'
p283
sg27
g14
sg29
S'--'
p284
sg31
S'W26-18'
p285
sg33
S'--'
p286
sg35
S'--'
p287
sg37
S'BAL'
p288
sg39
S'--'
p289
sg41
S'--'
p290
sg43
S'--'
p291
ssS'6'
p292
(dp293
g5
S'--'
p294
sg7
S'--'
p295
sg9
g10
sg11
S'--'
p296
sg13
g14
sg15
S'Brittan Golden'
p297
sg17
S'2015'
p298
sg19
g292
sg21
S'--'
p299
sg23
S'10/18'
p300
sg25
S'--'
p301
sg27
S'--'
p302
sg29
S'--'
p303
sg31
S'L13-25'
p304
sg33
S'--'
p305
sg35
S'--'
p306
sg37
S'@PIT'
p307
sg39
S'--'
p308
sg41
S'--'
p309
sg43
S'--'
p310
ssS'9'
p311
(dp312
g5
S''
p313
sg7
g313
sg9
g313
sg11
g313
sg13
g313
sg15
S'Brittan Golden'
p314
sg17
S'2015'
p315
sg19
g311
sg21
g313
sg23
S'Bye'
p316
sg25
g313
sg27
g313
sg29
g313
sg31
g313
sg33
g313
sg35
g313
sg37
g313
sg39
g313
sg41
g313
sg43
g313
ssS'8'
p317
(dp318
g5
S'--'
p319
sg7
S'--'
p320
sg9
g10
sg11
S'--'
p321
sg13
g14
sg15
S'Brittan Golden'
p322
sg17
S'2015'
p323
sg19
g317
sg21
S'--'
p324
sg23
S'11/01'
p325
sg25
S'--'
p326
sg27
S'--'
p327
sg29
S'--'
p328
sg31
S'W34-20'
p329
sg33
S'--'
p330
sg35
S'--'
p331
sg37
S'@CLE'
p332
sg39
S'--'
p333
sg41
S'--'
p334
sg43
S'--'
p335
sssS'2014'
p336
(dp337
g145
(dp338
g5
S'--'
p339
sg7
S'--'
p340
sg9
g10
sg11
S'--'
p341
sg13
g10
sg15
S'Brittan Golden'
p342
sg17
S'2014'
p343
sg19
S'17'
p344
sg21
S'--'
p345
sg23
S'12/28'
p346
sg25
S'--'
p347
sg27
S'--'
p348
sg29
S'--'
p349
sg31
S'L17-20'
p350
sg33
S'--'
p351
sg35
S'--'
p352
sg37
S'@SF'
p353
sg39
S'--'
p354
sg41
S'--'
p355
sg43
S'--'
p356
ssg162
(dp357
g5
S'--'
p358
sg7
S'--'
p359
sg9
g10
sg11
S'--'
p360
sg13
g10
sg15
S'Brittan Golden'
p361
sg17
S'2014'
p362
sg19
S'16'
p363
sg21
S'--'
p364
sg23
S'12/21'
p365
sg25
S'--'
p366
sg27
S'--'
p367
sg29
S'--'
p368
sg31
S'L6-35'
p369
sg33
S'--'
p370
sg35
S'--'
p371
sg37
S'SEA'
p372
sg39
S'--'
p373
sg41
S'--'
p374
sg43
S'--'
p375
sssS'2013'
p376
(dp377
g3
(dp378
g5
S'--'
p379
sg7
S'--'
p380
sg9
g10
sg11
S'--'
p381
sg13
g10
sg15
S'Brittan Golden'
p382
sg17
S'2013'
p383
sg19
S'11'
p384
sg21
S'--'
p385
sg23
S'11/17'
p386
sg25
S'--'
p387
sg27
S'--'
p388
sg29
S'--'
p389
sg31
S'W27-14'
p390
sg33
S'--'
p391
sg35
S'--'
p392
sg37
S'@JAC'
p393
sg39
S'--'
p394
sg41
S'--'
p395
sg43
S'--'
p396
ssg45
(dp397
g5
S'--'
p398
sg7
S'--'
p399
sg9
g10
sg11
S'--'
p400
sg13
g10
sg15
S'Brittan Golden'
p401
sg17
S'2013'
p402
sg19
S'10'
p403
sg21
S'--'
p404
sg23
S'11/10'
p405
sg25
S'--'
p406
sg27
S'--'
p407
sg29
S'--'
p408
sg31
S'W27-24'
p409
sg33
S'--'
p410
sg35
S'--'
p411
sg37
S'HOU'
p412
sg39
S'--'
p413
sg41
S'--'
p414
sg43
S'--'
p415
ssg65
(dp416
g5
S'--'
p417
sg7
S'--'
p418
sg9
g10
sg11
S'--'
p419
sg13
g14
sg15
S'Brittan Golden'
p420
sg17
S'2013'
p421
sg19
S'13'
p422
sg21
S'--'
p423
sg23
S'12/01'
p424
sg25
S'4.0'
p425
sg27
S'--'
p426
sg29
S'--'
p427
sg31
S'L21-24'
p428
sg33
g256
sg35
g14
sg37
S'@PHI'
p429
sg39
g256
sg41
g10
sg43
S'--'
p430
ssg85
(dp431
g5
S'--'
p432
sg7
S'--'
p433
sg9
g10
sg11
S'--'
p434
sg13
g10
sg15
S'Brittan Golden'
p435
sg17
S'2013'
p436
sg19
S'12'
p437
sg21
S'--'
p438
sg23
S'11/24'
p439
sg25
S'--'
p440
sg27
S'--'
p441
sg29
S'--'
p442
sg31
S'W40-11'
p443
sg33
S'--'
p444
sg35
S'--'
p445
sg37
S'IND'
p446
sg39
S'--'
p447
sg41
S'--'
p448
sg43
S'--'
p449
ssg105
(dp450
g5
S'--'
p451
sg7
S'--'
p452
sg9
g10
sg11
S'--'
p453
sg13
g14
sg15
S'Brittan Golden'
p454
sg17
S'2013'
p455
sg19
S'15'
p456
sg21
S'--'
p457
sg23
S'12/15'
p458
sg25
S'16.0'
p459
sg27
S'--'
p460
sg29
S'--'
p461
sg31
S'W37-34'
p462
sg33
S'16'
p463
sg35
g14
sg37
S'@TEN'
p464
sg39
S'16'
p465
sg41
g10
sg43
S'--'
p466
ssg125
(dp467
g5
S'--'
p468
sg7
S'--'
p469
sg9
g10
sg11
S'--'
p470
sg13
g10
sg15
S'Brittan Golden'
p471
sg17
S'2013'
p472
sg19
S'14'
p473
sg21
S'--'
p474
sg23
S'12/08'
p475
sg25
S'--'
p476
sg27
S'--'
p477
sg29
S'--'
p478
sg31
S'W30-10'
p479
sg33
S'--'
p480
sg35
S'--'
p481
sg37
S'STL'
p482
sg39
S'--'
p483
sg41
S'--'
p484
sg43
S'--'
p485
ssg145
(dp486
g5
S'--'
p487
sg7
S'--'
p488
sg9
g10
sg11
S'--'
p489
sg13
g14
sg15
S'Brittan Golden'
p490
sg17
S'2013'
p491
sg19
S'17'
p492
sg21
S'--'
p493
sg23
S'12/29'
p494
sg25
S'--'
p495
sg27
S'--'
p496
sg29
S'--'
p497
sg31
S'L20-23'
p498
sg33
g10
sg35
g10
sg37
S'SF'
p499
sg39
S'--'
p500
sg41
g10
sg43
S'--'
p501
ssg162
(dp502
g5
S'--'
p503
sg7
S'--'
p504
sg9
g10
sg11
S'--'
p505
sg13
g14
sg15
S'Brittan Golden'
p506
sg17
S'2013'
p507
sg19
S'16'
p508
sg21
S'--'
p509
sg23
S'12/22'
p510
sg25
S'63.0'
p511
sg27
S'--'
p512
sg29
S'--'
p513
sg31
S'W17-10'
p514
sg33
S'63'
p515
sg35
g14
sg37
S'@SEA'
p516
sg39
S'63'
p517
sg41
g10
sg43
S'--'
p518
ssg275
(dp519
g5
S'--'
p520
sg7
S'--'
p521
sg9
g10
sg11
S'--'
p522
sg13
g10
sg15
S'Brittan Golden'
p523
sg17
S'2013'
p524
sg19
g275
sg21
S'--'
p525
sg23
S'10/17'
p526
sg25
S'--'
p527
sg27
S'--'
p528
sg29
S'--'
p529
sg31
S'L22-34'
p530
sg33
S'--'
p531
sg35
S'--'
p532
sg37
S'SEA'
p533
sg39
S'--'
p534
sg41
S'--'
p535
sg43
S'--'
p536
ssg292
(dp537
g5
S'--'
p538
sg7
S'--'
p539
sg9
g10
sg11
S'--'
p540
sg13
g14
sg15
S'Brittan Golden'
p541
sg17
S'2013'
p542
sg19
g292
sg21
S'--'
p543
sg23
S'10/13'
p544
sg25
S'53.0'
p545
sg27
S'--'
p546
sg29
S'--'
p547
sg31
S'L20-32'
p548
sg33
S'53'
p549
sg35
g14
sg37
S'@SF'
p550
sg39
S'53'
p551
sg41
g10
sg43
S'--'
p552
ssg311
(dp553
g5
g313
sg7
g313
sg9
g313
sg11
g313
sg13
g313
sg15
S'Brittan Golden'
p554
sg17
S'2013'
p555
sg19
g311
sg21
g313
sg23
S'Bye'
p556
sg25
g313
sg27
g313
sg29
g313
sg31
g313
sg33
g313
sg35
g313
sg37
g313
sg39
g313
sg41
g313
sg43
g313
ssg317
(dp557
g5
S'--'
p558
sg7
S'--'
p559
sg9
g10
sg11
S'--'
p560
sg13
g10
sg15
S'Brittan Golden'
p561
sg17
S'2013'
p562
sg19
g317
sg21
S'--'
p563
sg23
S'10/27'
p564
sg25
S'--'
p565
sg27
S'--'
p566
sg29
S'--'
p567
sg31
S'W27-13'
p568
sg33
S'--'
p569
sg35
S'--'
p570
sg37
S'ATL'
p571
sg39
S'--'
p572
sg41
S'--'
p573
sg43
S'--'
p574
sss.