(dp0
S'2015'
p1
(dp2
S'11'
p3
(dp4
S'RushTD'
p5
S'--'
p6
sS'RushYds'
p7
S'--'
p8
sS'GS'
p9
S'0'
p10
sS'Lost'
p11
g10
sS'G'
p12
S'1'
p13
sS'Player'
p14
S'Bruce Ellington'
p15
sS'Year'
p16
S'2015'
p17
sS'WK'
p18
S'11'
p19
sS'RushAvg'
p20
S'--'
p21
sS'Game Date'
p22
S'11/22'
p23
sS'RecAvg'
p24
S'--'
p25
sS'FUM'
p26
g13
sS'RushAtt'
p27
S'--'
p28
sS'Result'
p29
S'L13-29'
p30
sS'RecYds'
p31
g10
sS'Rec'
p32
g10
sS'Opp'
p33
S'@SEA'
p34
sS'RecLng'
p35
S'--'
p36
sS'RecTD'
p37
g10
sS'RushLng'
p38
S'--'
p39
ssS'10'
p40
(dp41
g5
S''
p42
sg7
g42
sg9
g42
sg11
g42
sg12
g42
sg14
S'Bruce Ellington'
p43
sg16
S'2015'
p44
sg18
S'10'
p45
sg20
g42
sg22
S'Bye'
p46
sg24
g42
sg26
g42
sg27
g42
sg29
g42
sg31
g42
sg32
g42
sg33
g42
sg35
g42
sg37
g42
sg38
g42
ssS'13'
p47
(dp48
g5
S'--'
p49
sg7
S'--'
p50
sg9
g10
sg11
S'--'
p51
sg12
g13
sg14
S'Bruce Ellington'
p52
sg16
S'2015'
p53
sg18
S'13'
p54
sg20
S'--'
p55
sg22
S'12/06'
p56
sg24
S'0.0'
p57
sg26
S'--'
p58
sg27
S'--'
p59
sg29
S'W26-20'
p60
sg31
g10
sg32
g13
sg33
S'@CHI'
p61
sg35
g10
sg37
g10
sg38
S'--'
p62
ssS'12'
p63
(dp64
g5
S'--'
p65
sg7
S'--'
p66
sg9
g10
sg11
g13
sg12
g13
sg14
S'Bruce Ellington'
p67
sg16
S'2015'
p68
sg18
S'12'
p69
sg20
S'--'
p70
sg22
S'11/29'
p71
sg24
S'--'
p72
sg26
g13
sg27
S'--'
p73
sg29
S'L13-19'
p74
sg31
S'--'
p75
sg32
S'--'
p76
sg33
S'ARI'
p77
sg35
S'--'
p78
sg37
S'--'
p79
sg38
S'--'
p80
ssS'15'
p81
(dp82
g5
S'--'
p83
sg7
S'--'
p84
sg9
g10
sg11
S'--'
p85
sg12
g13
sg14
S'Bruce Ellington'
p86
sg16
S'2015'
p87
sg18
S'15'
p88
sg20
S'--'
p89
sg22
S'12/20'
p90
sg24
S'--'
p91
sg26
S'--'
p92
sg27
S'--'
p93
sg29
S'L14-24'
p94
sg31
g10
sg32
g10
sg33
S'CIN'
p95
sg35
S'--'
p96
sg37
g10
sg38
S'--'
p97
ssS'14'
p98
(dp99
g5
S'--'
p100
sg7
S'--'
p101
sg9
g10
sg11
S'--'
p102
sg12
g13
sg14
S'Bruce Ellington'
p103
sg16
S'2015'
p104
sg18
S'14'
p105
sg20
S'--'
p106
sg22
S'12/13'
p107
sg24
S'--'
p108
sg26
S'--'
p109
sg27
S'--'
p110
sg29
S'L10-24'
p111
sg31
g10
sg32
g10
sg33
S'@CLE'
p112
sg35
S'--'
p113
sg37
g10
sg38
S'--'
p114
ssS'17'
p115
(dp116
g5
S'--'
p117
sg7
S'--'
p118
sg9
g10
sg11
S'--'
p119
sg12
g13
sg14
S'Bruce Ellington'
p120
sg16
S'2015'
p121
sg18
S'17'
p122
sg20
S'--'
p123
sg22
S'01/03'
p124
sg24
S'44.0'
p125
sg26
S'--'
p126
sg27
S'--'
p127
sg29
S'W19-16'
p128
sg31
S'44'
p129
sg32
g13
sg33
S'STL'
p130
sg35
S'44'
p131
sg37
g10
sg38
S'--'
p132
ssS'16'
p133
(dp134
g5
S'--'
p135
sg7
S'--'
p136
sg9
g10
sg11
S'--'
p137
sg12
g13
sg14
S'Bruce Ellington'
p138
sg16
S'2015'
p139
sg18
S'16'
p140
sg20
S'--'
p141
sg22
S'12/27'
p142
sg24
S'18.3'
p143
sg26
S'--'
p144
sg27
S'--'
p145
sg29
S'L17-32'
p146
sg31
S'55'
p147
sg32
S'3'
p148
sg33
S'@DET'
p149
sg35
S'38'
p150
sg37
g10
sg38
S'--'
p151
ssg13
(dp152
g5
S'--'
p153
sg7
S'--'
p154
sg9
g10
sg11
S'--'
p155
sg12
g13
sg14
S'Bruce Ellington'
p156
sg16
S'2015'
p157
sg18
g13
sg20
S'--'
p158
sg22
S'09/14'
p159
sg24
S'2.5'
p160
sg26
S'--'
p161
sg27
S'--'
p162
sg29
S'W20-3'
p163
sg31
S'5'
p164
sg32
S'2'
p165
sg33
S'MIN'
p166
sg35
S'4'
p167
sg37
g10
sg38
S'--'
p168
ssg148
(dp169
g5
S'--'
p170
sg7
S'--'
p171
sg9
g10
sg11
S'--'
p172
sg12
g10
sg14
S'Bruce Ellington'
p173
sg16
S'2015'
p174
sg18
g148
sg20
S'--'
p175
sg22
S'09/27'
p176
sg24
S'--'
p177
sg26
S'--'
p178
sg27
S'--'
p179
sg29
S'L7-47'
p180
sg31
S'--'
p181
sg32
S'--'
p182
sg33
S'@ARI'
p183
sg35
S'--'
p184
sg37
S'--'
p185
sg38
S'--'
p186
ssg165
(dp187
g5
S'--'
p188
sg7
S'--'
p189
sg9
g10
sg11
S'--'
p190
sg12
g10
sg14
S'Bruce Ellington'
p191
sg16
S'2015'
p192
sg18
g165
sg20
S'--'
p193
sg22
S'09/20'
p194
sg24
S'--'
p195
sg26
S'--'
p196
sg27
S'--'
p197
sg29
S'L18-43'
p198
sg31
S'--'
p199
sg32
S'--'
p200
sg33
S'@PIT'
p201
sg35
S'--'
p202
sg37
S'--'
p203
sg38
S'--'
p204
ssg164
(dp205
g5
S'--'
p206
sg7
S'--'
p207
sg9
g10
sg11
g10
sg12
g13
sg14
S'Bruce Ellington'
p208
sg16
S'2015'
p209
sg18
g164
sg20
S'--'
p210
sg22
S'10/11'
p211
sg24
S'19.5'
p212
sg26
g13
sg27
S'--'
p213
sg29
S'L27-30'
p214
sg31
S'39'
p215
sg32
g165
sg33
S'@NYG'
p216
sg35
S'30'
p217
sg37
g10
sg38
S'--'
p218
ssg167
(dp219
g5
S'--'
p220
sg7
S'--'
p221
sg9
g10
sg11
S'--'
p222
sg12
g13
sg14
S'Bruce Ellington'
p223
sg16
S'2015'
p224
sg18
g167
sg20
S'--'
p225
sg22
S'10/04'
p226
sg24
S'--'
p227
sg26
S'--'
p228
sg27
S'--'
p229
sg29
S'L3-17'
p230
sg31
S'--'
p231
sg32
S'--'
p232
sg33
S'GB'
p233
sg35
S'--'
p234
sg37
S'--'
p235
sg38
S'--'
p236
ssS'7'
p237
(dp238
g5
S'--'
p239
sg7
S'--'
p240
sg9
g10
sg11
S'--'
p241
sg12
g13
sg14
S'Bruce Ellington'
p242
sg16
S'2015'
p243
sg18
g237
sg20
S'--'
p244
sg22
S'10/22'
p245
sg24
S'--'
p246
sg26
S'--'
p247
sg27
S'--'
p248
sg29
S'L3-20'
p249
sg31
S'--'
p250
sg32
S'--'
p251
sg33
S'SEA'
p252
sg35
S'--'
p253
sg37
S'--'
p254
sg38
S'--'
p255
ssS'6'
p256
(dp257
g5
S'--'
p258
sg7
S'--'
p259
sg9
g10
sg11
S'--'
p260
sg12
g10
sg14
S'Bruce Ellington'
p261
sg16
S'2015'
p262
sg18
g256
sg20
S'--'
p263
sg22
S'10/18'
p264
sg24
S'--'
p265
sg26
S'--'
p266
sg27
S'--'
p267
sg29
S'W25-20'
p268
sg31
S'--'
p269
sg32
S'--'
p270
sg33
S'BAL'
p271
sg35
S'--'
p272
sg37
S'--'
p273
sg38
S'--'
p274
ssS'9'
p275
(dp276
g5
g10
sg7
g237
sg9
g10
sg11
S'--'
p277
sg12
g13
sg14
S'Bruce Ellington'
p278
sg16
S'2015'
p279
sg18
g275
sg20
S'7.0'
p280
sg22
S'11/08'
p281
sg24
S'1.0'
p282
sg26
S'--'
p283
sg27
g13
sg29
S'W17-16'
p284
sg31
g165
sg32
g165
sg33
S'ATL'
p285
sg35
g13
sg37
g10
sg38
g237
ssS'8'
p286
(dp287
g5
S'--'
p288
sg7
S'--'
p289
sg9
g10
sg11
S'--'
p290
sg12
g13
sg14
S'Bruce Ellington'
p291
sg16
S'2015'
p292
sg18
g286
sg20
S'--'
p293
sg22
S'11/01'
p294
sg24
S'4.0'
p295
sg26
S'--'
p296
sg27
S'--'
p297
sg29
S'L6-27'
p298
sg31
g286
sg32
g165
sg33
S'@STL'
p299
sg35
g167
sg37
g10
sg38
S'--'
p300
sssS'2014'
p301
(dp302
g3
(dp303
g5
S'--'
p304
sg7
S'--'
p305
sg9
g10
sg11
S'--'
p306
sg12
g10
sg14
S'Bruce Ellington'
p307
sg16
S'2014'
p308
sg18
S'11'
p309
sg20
S'--'
p310
sg22
S'11/16'
p311
sg24
S'--'
p312
sg26
S'--'
p313
sg27
S'--'
p314
sg29
S'W16-10'
p315
sg31
S'--'
p316
sg32
S'--'
p317
sg33
S'@NYG'
p318
sg35
S'--'
p319
sg37
S'--'
p320
sg38
S'--'
p321
ssg40
(dp322
g5
S'--'
p323
sg7
S'--'
p324
sg9
g10
sg11
S'--'
p325
sg12
g13
sg14
S'Bruce Ellington'
p326
sg16
S'2014'
p327
sg18
S'10'
p328
sg20
S'--'
p329
sg22
S'11/09'
p330
sg24
S'--'
p331
sg26
S'--'
p332
sg27
S'--'
p333
sg29
S'W27-24'
p334
sg31
S'--'
p335
sg32
S'--'
p336
sg33
S'@NO'
p337
sg35
S'--'
p338
sg37
S'--'
p339
sg38
S'--'
p340
ssg47
(dp341
g5
S'--'
p342
sg7
S'--'
p343
sg9
g10
sg11
S'--'
p344
sg12
g10
sg14
S'Bruce Ellington'
p345
sg16
S'2014'
p346
sg18
S'13'
p347
sg20
S'--'
p348
sg22
S'11/27'
p349
sg24
S'--'
p350
sg26
S'--'
p351
sg27
S'--'
p352
sg29
S'L3-19'
p353
sg31
S'--'
p354
sg32
S'--'
p355
sg33
S'SEA'
p356
sg35
S'--'
p357
sg37
S'--'
p358
sg38
S'--'
p359
ssg63
(dp360
g5
S'--'
p361
sg7
S'--'
p362
sg9
g10
sg11
S'--'
p363
sg12
g10
sg14
S'Bruce Ellington'
p364
sg16
S'2014'
p365
sg18
S'12'
p366
sg20
S'--'
p367
sg22
S'11/23'
p368
sg24
S'--'
p369
sg26
S'--'
p370
sg27
S'--'
p371
sg29
S'W17-13'
p372
sg31
S'--'
p373
sg32
S'--'
p374
sg33
S'WAS'
p375
sg35
S'--'
p376
sg37
S'--'
p377
sg38
S'--'
p378
ssg81
(dp379
g5
S'--'
p380
sg7
S'--'
p381
sg9
g10
sg11
S'--'
p382
sg12
g13
sg14
S'Bruce Ellington'
p383
sg16
S'2014'
p384
sg18
S'15'
p385
sg20
S'--'
p386
sg22
S'12/14'
p387
sg24
S'--'
p388
sg26
S'--'
p389
sg27
S'--'
p390
sg29
S'L7-17'
p391
sg31
S'--'
p392
sg32
S'--'
p393
sg33
S'@SEA'
p394
sg35
S'--'
p395
sg37
S'--'
p396
sg38
S'--'
p397
ssg98
(dp398
g5
S'--'
p399
sg7
S'--'
p400
sg9
g10
sg11
S'--'
p401
sg12
g13
sg14
S'Bruce Ellington'
p402
sg16
S'2014'
p403
sg18
S'14'
p404
sg20
S'--'
p405
sg22
S'12/07'
p406
sg24
S'--'
p407
sg26
S'--'
p408
sg27
S'--'
p409
sg29
S'L13-24'
p410
sg31
S'--'
p411
sg32
S'--'
p412
sg33
S'@OAK'
p413
sg35
S'--'
p414
sg37
S'--'
p415
sg38
S'--'
p416
ssg115
(dp417
g5
S'--'
p418
sg7
S'--'
p419
sg9
g10
sg11
S'--'
p420
sg12
g13
sg14
S'Bruce Ellington'
p421
sg16
S'2014'
p422
sg18
S'17'
p423
sg20
S'--'
p424
sg22
S'12/28'
p425
sg24
S'--'
p426
sg26
S'--'
p427
sg27
S'--'
p428
sg29
S'W20-17'
p429
sg31
S'--'
p430
sg32
S'--'
p431
sg33
S'ARI'
p432
sg35
S'--'
p433
sg37
S'--'
p434
sg38
S'--'
p435
ssg133
(dp436
g5
g13
sg7
S'12'
p437
sg9
g10
sg11
S'--'
p438
sg12
g13
sg14
S'Bruce Ellington'
p439
sg16
S'2014'
p440
sg18
S'16'
p441
sg20
S'4.0'
p442
sg22
S'12/20'
p443
sg24
S'8.0'
p444
sg26
S'--'
p445
sg27
g148
sg29
S'L35-38'
p446
sg31
g286
sg32
g13
sg33
S'SD'
p447
sg35
S'8T'
p448
sg37
g13
sg38
g237
ssg13
(dp449
g5
S'--'
p450
sg7
S'--'
p451
sg9
g10
sg11
S'--'
p452
sg12
g13
sg14
S'Bruce Ellington'
p453
sg16
S'2014'
p454
sg18
g13
sg20
S'--'
p455
sg22
S'09/07'
p456
sg24
S'--'
p457
sg26
S'--'
p458
sg27
S'--'
p459
sg29
S'W28-17'
p460
sg31
S'--'
p461
sg32
S'--'
p462
sg33
S'@DAL'
p463
sg35
S'--'
p464
sg37
S'--'
p465
sg38
S'--'
p466
ssg148
(dp467
g5
g10
sg7
g13
sg9
g10
sg11
S'--'
p468
sg12
g13
sg14
S'Bruce Ellington'
p469
sg16
S'2014'
p470
sg18
g148
sg20
S'1.0'
p471
sg22
S'09/21'
p472
sg24
S'--'
p473
sg26
S'--'
p474
sg27
g13
sg29
S'L14-23'
p475
sg31
g10
sg32
g10
sg33
S'@ARI'
p476
sg35
S'--'
p477
sg37
g10
sg38
g13
ssg165
(dp478
g5
S'--'
p479
sg7
S'--'
p480
sg9
g10
sg11
g10
sg12
g13
sg14
S'Bruce Ellington'
p481
sg16
S'2014'
p482
sg18
g165
sg20
S'--'
p483
sg22
S'09/14'
p484
sg24
S'--'
p485
sg26
g13
sg27
S'--'
p486
sg29
S'L20-28'
p487
sg31
g10
sg32
g10
sg33
S'CHI'
p488
sg35
S'--'
p489
sg37
g10
sg38
S'--'
p490
ssg164
(dp491
g5
g10
sg7
g10
sg9
g10
sg11
S'--'
p492
sg12
g13
sg14
S'Bruce Ellington'
p493
sg16
S'2014'
p494
sg18
g164
sg20
S'0.0'
p495
sg22
S'10/05'
p496
sg24
S'1.0'
p497
sg26
S'--'
p498
sg27
g13
sg29
S'W22-17'
p499
sg31
g13
sg32
g13
sg33
S'KC'
p500
sg35
g13
sg37
g10
sg38
g10
ssg167
(dp501
g5
g10
sg7
S'15'
p502
sg9
g10
sg11
S'--'
p503
sg12
g13
sg14
S'Bruce Ellington'
p504
sg16
S'2014'
p505
sg18
g167
sg20
S'15.0'
p506
sg22
S'09/28'
p507
sg24
S'--'
p508
sg26
S'--'
p509
sg27
g13
sg29
S'W26-21'
p510
sg31
S'--'
p511
sg32
S'--'
p512
sg33
S'PHI'
p513
sg35
S'--'
p514
sg37
S'--'
p515
sg38
S'15'
p516
ssg237
(dp517
g5
S'--'
p518
sg7
S'--'
p519
sg9
g10
sg11
S'--'
p520
sg12
g13
sg14
S'Bruce Ellington'
p521
sg16
S'2014'
p522
sg18
g237
sg20
S'--'
p523
sg22
S'10/19'
p524
sg24
S'14.7'
p525
sg26
S'--'
p526
sg27
S'--'
p527
sg29
S'L17-42'
p528
sg31
S'44'
p529
sg32
g148
sg33
S'@DEN'
p530
sg35
S'20T'
p531
sg37
g13
sg38
S'--'
p532
ssg256
(dp533
g5
S'--'
p534
sg7
S'--'
p535
sg9
g10
sg11
S'--'
p536
sg12
g13
sg14
S'Bruce Ellington'
p537
sg16
S'2014'
p538
sg18
g256
sg20
S'--'
p539
sg22
S'10/13'
p540
sg24
S'--'
p541
sg26
S'--'
p542
sg27
S'--'
p543
sg29
S'W31-17'
p544
sg31
S'--'
p545
sg32
S'--'
p546
sg33
S'@STL'
p547
sg35
S'--'
p548
sg37
S'--'
p549
sg38
S'--'
p550
ssg275
(dp551
g5
S'--'
p552
sg7
S'--'
p553
sg9
g10
sg11
S'--'
p554
sg12
g13
sg14
S'Bruce Ellington'
p555
sg16
S'2014'
p556
sg18
g275
sg20
S'--'
p557
sg22
S'11/02'
p558
sg24
S'9.0'
p559
sg26
S'--'
p560
sg27
S'--'
p561
sg29
S'L10-13'
p562
sg31
g275
sg32
g13
sg33
S'STL'
p563
sg35
g275
sg37
g10
sg38
S'--'
p564
ssg286
(dp565
g5
g42
sg7
g42
sg9
g42
sg11
g42
sg12
g42
sg14
S'Bruce Ellington'
p566
sg16
S'2014'
p567
sg18
g286
sg20
g42
sg22
S'Bye'
p568
sg24
g42
sg26
g42
sg27
g42
sg29
g42
sg31
g42
sg32
g42
sg33
g42
sg35
g42
sg37
g42
sg38
g42
sss.