(dp0
S'2015'
p1
(dp2
S'11'
p3
(dp4
S'RushTD'
p5
S'--'
p6
sS'RushYds'
p7
S'--'
p8
sS'GS'
p9
S'0'
p10
sS'Lost'
p11
S'--'
p12
sS'G'
p13
S'1'
p14
sS'Player'
p15
S'Cameron Meredith'
p16
sS'Year'
p17
S'2015'
p18
sS'WK'
p19
S'11'
p20
sS'RushAvg'
p21
S'--'
p22
sS'Game Date'
p23
S'11/22'
p24
sS'RecAvg'
p25
S'6.0'
p26
sS'FUM'
p27
S'--'
p28
sS'RushAtt'
p29
S'--'
p30
sS'Result'
p31
S'L15-17'
p32
sS'RecYds'
p33
S'6'
p34
sS'Rec'
p35
g14
sS'Opp'
p36
S'DEN'
p37
sS'RecLng'
p38
g34
sS'RecTD'
p39
g10
sS'RushLng'
p40
S'--'
p41
ssS'10'
p42
(dp43
g5
S'--'
p44
sg7
S'--'
p45
sg9
g10
sg11
S'--'
p46
sg13
g14
sg15
S'Cameron Meredith'
p47
sg17
S'2015'
p48
sg19
S'10'
p49
sg21
S'--'
p50
sg23
S'11/15'
p51
sg25
S'--'
p52
sg27
S'--'
p53
sg29
S'--'
p54
sg31
S'W37-13'
p55
sg33
S'--'
p56
sg35
S'--'
p57
sg36
S'@STL'
p58
sg38
S'--'
p59
sg39
S'--'
p60
sg40
S'--'
p61
ssS'13'
p62
(dp63
g5
S'--'
p64
sg7
S'--'
p65
sg9
g10
sg11
S'--'
p66
sg13
g14
sg15
S'Cameron Meredith'
p67
sg17
S'2015'
p68
sg19
S'13'
p69
sg21
S'--'
p70
sg23
S'12/06'
p71
sg25
S'--'
p72
sg27
S'--'
p73
sg29
S'--'
p74
sg31
S'L20-26'
p75
sg33
S'--'
p76
sg35
S'--'
p77
sg36
S'SF'
p78
sg38
S'--'
p79
sg39
S'--'
p80
sg40
S'--'
p81
ssS'12'
p82
(dp83
g5
S'--'
p84
sg7
S'--'
p85
sg9
g10
sg11
S'--'
p86
sg13
g10
sg15
S'Cameron Meredith'
p87
sg17
S'2015'
p88
sg19
S'12'
p89
sg21
S'--'
p90
sg23
S'11/26'
p91
sg25
S'--'
p92
sg27
S'--'
p93
sg29
S'--'
p94
sg31
S'W17-13'
p95
sg33
S'--'
p96
sg35
S'--'
p97
sg36
S'@GB'
p98
sg38
S'--'
p99
sg39
S'--'
p100
sg40
S'--'
p101
ssS'15'
p102
(dp103
g5
S'--'
p104
sg7
S'--'
p105
sg9
g10
sg11
S'--'
p106
sg13
g10
sg15
S'Cameron Meredith'
p107
sg17
S'2015'
p108
sg19
S'15'
p109
sg21
S'--'
p110
sg23
S'12/20'
p111
sg25
S'--'
p112
sg27
S'--'
p113
sg29
S'--'
p114
sg31
S'L17-38'
p115
sg33
S'--'
p116
sg35
S'--'
p117
sg36
S'@MIN'
p118
sg38
S'--'
p119
sg39
S'--'
p120
sg40
S'--'
p121
ssS'14'
p122
(dp123
g5
S'--'
p124
sg7
S'--'
p125
sg9
g10
sg11
S'--'
p126
sg13
g10
sg15
S'Cameron Meredith'
p127
sg17
S'2015'
p128
sg19
S'14'
p129
sg21
S'--'
p130
sg23
S'12/13'
p131
sg25
S'--'
p132
sg27
S'--'
p133
sg29
S'--'
p134
sg31
S'L21-24'
p135
sg33
S'--'
p136
sg35
S'--'
p137
sg36
S'WAS'
p138
sg38
S'--'
p139
sg39
S'--'
p140
sg40
S'--'
p141
ssS'17'
p142
(dp143
g5
S'--'
p144
sg7
S'--'
p145
sg9
g10
sg11
S'--'
p146
sg13
g14
sg15
S'Cameron Meredith'
p147
sg17
S'2015'
p148
sg19
S'17'
p149
sg21
S'--'
p150
sg23
S'01/03'
p151
sg25
S'9.5'
p152
sg27
S'--'
p153
sg29
S'--'
p154
sg31
S'L20-24'
p155
sg33
S'19'
p156
sg35
S'2'
p157
sg36
S'DET'
p158
sg38
S'16'
p159
sg39
g10
sg40
S'--'
p160
ssS'16'
p161
(dp162
g5
S'--'
p163
sg7
S'--'
p164
sg9
g10
sg11
S'--'
p165
sg13
g14
sg15
S'Cameron Meredith'
p166
sg17
S'2015'
p167
sg19
S'16'
p168
sg21
S'--'
p169
sg23
S'12/27'
p170
sg25
S'--'
p171
sg27
S'--'
p172
sg29
S'--'
p173
sg31
S'W26-21'
p174
sg33
S'--'
p175
sg35
S'--'
p176
sg36
S'@TB'
p177
sg38
S'--'
p178
sg39
S'--'
p179
sg40
S'--'
p180
ssg14
(dp181
g5
S'--'
p182
sg7
S'--'
p183
sg9
g10
sg11
S'--'
p184
sg13
g10
sg15
S'Cameron Meredith'
p185
sg17
S'2015'
p186
sg19
g14
sg21
S'--'
p187
sg23
S'09/13'
p188
sg25
S'--'
p189
sg27
S'--'
p190
sg29
S'--'
p191
sg31
S'L23-31'
p192
sg33
S'--'
p193
sg35
S'--'
p194
sg36
S'GB'
p195
sg38
S'--'
p196
sg39
S'--'
p197
sg40
S'--'
p198
ssS'3'
p199
(dp200
g5
S'--'
p201
sg7
S'--'
p202
sg9
g10
sg11
S'--'
p203
sg13
g14
sg15
S'Cameron Meredith'
p204
sg17
S'2015'
p205
sg19
g199
sg21
S'--'
p206
sg23
S'09/27'
p207
sg25
S'--'
p208
sg27
S'--'
p209
sg29
S'--'
p210
sg31
S'L0-26'
p211
sg33
S'--'
p212
sg35
S'--'
p213
sg36
S'@SEA'
p214
sg38
S'--'
p215
sg39
S'--'
p216
sg40
S'--'
p217
ssg157
(dp218
g5
S'--'
p219
sg7
S'--'
p220
sg9
g10
sg11
S'--'
p221
sg13
g14
sg15
S'Cameron Meredith'
p222
sg17
S'2015'
p223
sg19
g157
sg21
S'--'
p224
sg23
S'09/20'
p225
sg25
S'12.0'
p226
sg27
S'--'
p227
sg29
S'--'
p228
sg31
S'L23-48'
p229
sg33
S'36'
p230
sg35
g199
sg36
S'ARI'
p231
sg38
S'22'
p232
sg39
g10
sg40
S'--'
p233
ssS'5'
p234
(dp235
g5
S'--'
p236
sg7
S'--'
p237
sg9
g10
sg11
S'--'
p238
sg13
g14
sg15
S'Cameron Meredith'
p239
sg17
S'2015'
p240
sg19
g234
sg21
S'--'
p241
sg23
S'10/11'
p242
sg25
S'13.0'
p243
sg27
S'--'
p244
sg29
S'--'
p245
sg31
S'W18-17'
p246
sg33
S'52'
p247
sg35
S'4'
p248
sg36
S'@KC'
p249
sg38
S'20'
p250
sg39
g10
sg40
S'--'
p251
ssg248
(dp252
g5
S'--'
p253
sg7
S'--'
p254
sg9
g10
sg11
S'--'
p255
sg13
g14
sg15
S'Cameron Meredith'
p256
sg17
S'2015'
p257
sg19
g248
sg21
S'--'
p258
sg23
S'10/04'
p259
sg25
S'--'
p260
sg27
S'--'
p261
sg29
S'--'
p262
sg31
S'W22-20'
p263
sg33
g10
sg35
g10
sg36
S'OAK'
p264
sg38
S'--'
p265
sg39
g10
sg40
S'--'
p266
ssS'7'
p267
(dp268
g5
S''
p269
sg7
g269
sg9
g269
sg11
g269
sg13
g269
sg15
S'Cameron Meredith'
p270
sg17
S'2015'
p271
sg19
g267
sg21
g269
sg23
S'Bye'
p272
sg25
g269
sg27
g269
sg29
g269
sg31
g269
sg33
g269
sg35
g269
sg36
g269
sg38
g269
sg39
g269
sg40
g269
ssg34
(dp273
g5
S'--'
p274
sg7
S'--'
p275
sg9
g10
sg11
S'--'
p276
sg13
g14
sg15
S'Cameron Meredith'
p277
sg17
S'2015'
p278
sg19
g34
sg21
S'--'
p279
sg23
S'10/18'
p280
sg25
S'7.0'
p281
sg27
S'--'
p282
sg29
S'--'
p283
sg31
S'L34-37'
p284
sg33
g267
sg35
g14
sg36
S'@DET'
p285
sg38
g267
sg39
g10
sg40
S'--'
p286
ssS'9'
p287
(dp288
g5
S'--'
p289
sg7
S'--'
p290
sg9
g10
sg11
S'--'
p291
sg13
g14
sg15
S'Cameron Meredith'
p292
sg17
S'2015'
p293
sg19
g287
sg21
S'--'
p294
sg23
S'11/09'
p295
sg25
S'--'
p296
sg27
S'--'
p297
sg29
S'--'
p298
sg31
S'W22-19'
p299
sg33
S'--'
p300
sg35
S'--'
p301
sg36
S'@SD'
p302
sg38
S'--'
p303
sg39
S'--'
p304
sg40
S'--'
p305
ssS'8'
p306
(dp307
g5
S'--'
p308
sg7
S'--'
p309
sg9
g10
sg11
S'--'
p310
sg13
g10
sg15
S'Cameron Meredith'
p311
sg17
S'2015'
p312
sg19
g306
sg21
S'--'
p313
sg23
S'11/01'
p314
sg25
S'--'
p315
sg27
S'--'
p316
sg29
S'--'
p317
sg31
S'L20-23'
p318
sg33
S'--'
p319
sg35
S'--'
p320
sg36
S'MIN'
p321
sg38
S'--'
p322
sg39
S'--'
p323
sg40
S'--'
p324
sss.