(dp0
S'2015'
p1
(dp2
S'11'
p3
(dp4
S'RushTD'
p5
S'0'
p6
sS'RushYds'
p7
S'26'
p8
sS'GS'
p9
g6
sS'Lost'
p10
S'--'
p11
sS'G'
p12
S'1'
p13
sS'Player'
p14
S'Cecil Shorts'
p15
sS'Year'
p16
S'2015'
p17
sS'WK'
p18
S'11'
p19
sS'RushAvg'
p20
S'6.5'
p21
sS'Game Date'
p22
S'11/22'
p23
sS'RecAvg'
p24
S'25.5'
p25
sS'FUM'
p26
S'--'
p27
sS'RushAtt'
p28
S'4'
p29
sS'Result'
p30
S'W24-17'
p31
sS'RecYds'
p32
S'51'
p33
sS'Rec'
p34
S'2'
p35
sS'Opp'
p36
S'NYJ'
p37
sS'RecLng'
p38
S'35'
p39
sS'RecTD'
p40
g6
sS'RushLng'
p41
S'12'
p42
ssS'10'
p43
(dp44
g5
S'--'
p45
sg7
S'--'
p46
sg9
g13
sg10
S'--'
p47
sg12
g13
sg14
S'Cecil Shorts'
p48
sg16
S'2015'
p49
sg18
S'10'
p50
sg20
S'--'
p51
sg22
S'11/16'
p52
sg24
S'5.3'
p53
sg26
S'--'
p54
sg28
S'--'
p55
sg30
S'W10-6'
p56
sg32
S'16'
p57
sg34
S'3'
p58
sg36
S'@CIN'
p59
sg38
S'13'
p60
sg40
g6
sg41
S'--'
p61
ssS'13'
p62
(dp63
g5
g6
sg7
g13
sg9
g6
sg10
S'--'
p64
sg12
g13
sg14
S'Cecil Shorts'
p65
sg16
S'2015'
p66
sg18
S'13'
p67
sg20
S'1.0'
p68
sg22
S'12/06'
p69
sg24
S'15.2'
p70
sg26
S'--'
p71
sg28
g13
sg30
S'L21-30'
p72
sg32
S'91'
p73
sg34
S'6'
p74
sg36
S'@BUF'
p75
sg38
S'23'
p76
sg40
g6
sg41
g13
ssS'12'
p77
(dp78
g5
g6
sg7
S'20'
p79
sg9
g13
sg10
g6
sg12
g13
sg14
S'Cecil Shorts'
p80
sg16
S'2015'
p81
sg18
S'12'
p82
sg20
S'6.7'
p83
sg22
S'11/29'
p84
sg24
S'6.0'
p85
sg26
g13
sg28
g58
sg30
S'W24-6'
p86
sg32
S'18'
p87
sg34
g58
sg36
S'NO'
p88
sg38
S'8'
p89
sg40
g13
sg41
S'7'
p90
ssS'15'
p91
(dp92
g5
S'--'
p93
sg7
S'--'
p94
sg9
g6
sg10
S'--'
p95
sg12
g13
sg14
S'Cecil Shorts'
p96
sg16
S'2015'
p97
sg18
S'15'
p98
sg20
S'--'
p99
sg22
S'12/20'
p100
sg24
S'--'
p101
sg26
S'--'
p102
sg28
S'--'
p103
sg30
S'W16-10'
p104
sg32
g6
sg34
g6
sg36
S'@IND'
p105
sg38
S'--'
p106
sg40
g6
sg41
S'--'
p107
ssS'14'
p108
(dp109
g5
g6
sg7
g6
sg9
g13
sg10
S'--'
p110
sg12
g13
sg14
S'Cecil Shorts'
p111
sg16
S'2015'
p112
sg18
S'14'
p113
sg20
S'0.0'
p114
sg22
S'12/13'
p115
sg24
S'4.5'
p116
sg26
S'--'
p117
sg28
g35
sg30
S'L6-27'
p118
sg32
S'9'
p119
sg34
g35
sg36
S'NE'
p120
sg38
S'10'
p121
sg40
g6
sg41
g6
ssS'17'
p122
(dp123
g5
S'--'
p124
sg7
S'--'
p125
sg9
g6
sg10
S'--'
p126
sg12
g6
sg14
S'Cecil Shorts'
p127
sg16
S'2015'
p128
sg18
S'17'
p129
sg20
S'--'
p130
sg22
S'01/03'
p131
sg24
S'--'
p132
sg26
S'--'
p133
sg28
S'--'
p134
sg30
S'W30-6'
p135
sg32
S'--'
p136
sg34
S'--'
p137
sg36
S'JAC'
p138
sg38
S'--'
p139
sg40
S'--'
p140
sg41
S'--'
p141
ssS'16'
p142
(dp143
g5
S'--'
p144
sg7
S'--'
p145
sg9
g6
sg10
S'--'
p146
sg12
g6
sg14
S'Cecil Shorts'
p147
sg16
S'2015'
p148
sg18
S'16'
p149
sg20
S'--'
p150
sg22
S'12/27'
p151
sg24
S'--'
p152
sg26
S'--'
p153
sg28
S'--'
p154
sg30
S'W34-6'
p155
sg32
S'--'
p156
sg34
S'--'
p157
sg36
S'@TEN'
p158
sg38
S'--'
p159
sg40
S'--'
p160
sg41
S'--'
p161
ssg13
(dp162
g5
S'--'
p163
sg7
S'--'
p164
sg9
g6
sg10
S'--'
p165
sg12
g13
sg14
S'Cecil Shorts'
p166
sg16
S'2015'
p167
sg18
g13
sg20
S'--'
p168
sg22
S'09/13'
p169
sg24
S'14.3'
p170
sg26
S'--'
p171
sg28
S'--'
p172
sg30
S'L20-27'
p173
sg32
S'57'
p174
sg34
g29
sg36
S'KC'
p175
sg38
S'20'
p176
sg40
g6
sg41
S'--'
p177
ssg58
(dp178
g5
S'--'
p179
sg7
S'--'
p180
sg9
g6
sg10
S'--'
p181
sg12
g13
sg14
S'Cecil Shorts'
p182
sg16
S'2015'
p183
sg18
g58
sg20
S'--'
p184
sg22
S'09/27'
p185
sg24
S'9.7'
p186
sg26
S'--'
p187
sg28
S'--'
p188
sg30
S'W19-9'
p189
sg32
S'58'
p190
sg34
g74
sg36
S'TB'
p191
sg38
S'18'
p192
sg40
g6
sg41
S'--'
p193
ssg35
(dp194
g5
S'--'
p195
sg7
S'--'
p196
sg9
g6
sg10
S'--'
p197
sg12
g13
sg14
S'Cecil Shorts'
p198
sg16
S'2015'
p199
sg18
g35
sg20
S'--'
p200
sg22
S'09/20'
p201
sg24
S'5.7'
p202
sg26
S'--'
p203
sg28
S'--'
p204
sg30
S'L17-24'
p205
sg32
S'34'
p206
sg34
g74
sg36
S'@CAR'
p207
sg38
S'16'
p208
sg40
g6
sg41
S'--'
p209
ssS'5'
p210
(dp211
g5
S'--'
p212
sg7
S'--'
p213
sg9
g6
sg10
S'--'
p214
sg12
g6
sg14
S'Cecil Shorts'
p215
sg16
S'2015'
p216
sg18
g210
sg20
S'--'
p217
sg22
S'10/08'
p218
sg24
S'--'
p219
sg26
S'--'
p220
sg28
S'--'
p221
sg30
S'L20-27'
p222
sg32
S'--'
p223
sg34
S'--'
p224
sg36
S'IND'
p225
sg38
S'--'
p226
sg40
S'--'
p227
sg41
S'--'
p228
ssg29
(dp229
g5
S'--'
p230
sg7
S'--'
p231
sg9
g6
sg10
g13
sg12
g13
sg14
S'Cecil Shorts'
p232
sg16
S'2015'
p233
sg18
g29
sg20
S'--'
p234
sg22
S'10/04'
p235
sg24
S'14.5'
p236
sg26
g13
sg28
S'--'
p237
sg30
S'L21-48'
p238
sg32
S'87'
p239
sg34
g74
sg36
S'@ATL'
p240
sg38
S'42'
p241
sg40
g13
sg41
S'--'
p242
ssg90
(dp243
g5
S'--'
p244
sg7
S'--'
p245
sg9
g6
sg10
S'--'
p246
sg12
g6
sg14
S'Cecil Shorts'
p247
sg16
S'2015'
p248
sg18
g90
sg20
S'--'
p249
sg22
S'10/25'
p250
sg24
S'--'
p251
sg26
S'--'
p252
sg28
S'--'
p253
sg30
S'L26-44'
p254
sg32
S'--'
p255
sg34
S'--'
p256
sg36
S'@MIA'
p257
sg38
S'--'
p258
sg40
S'--'
p259
sg41
S'--'
p260
ssg74
(dp261
g5
S'--'
p262
sg7
S'--'
p263
sg9
g13
sg10
S'--'
p264
sg12
g13
sg14
S'Cecil Shorts'
p265
sg16
S'2015'
p266
sg18
g74
sg20
S'--'
p267
sg22
S'10/18'
p268
sg24
S'15.8'
p269
sg26
S'--'
p270
sg28
S'--'
p271
sg30
S'W31-20'
p272
sg32
S'63'
p273
sg34
g29
sg36
S'@JAC'
p274
sg38
S'31'
p275
sg40
g6
sg41
S'--'
p276
ssg119
(dp277
g5
S''
p278
sg7
g278
sg9
g278
sg10
g278
sg12
g278
sg14
S'Cecil Shorts'
p279
sg16
S'2015'
p280
sg18
g119
sg20
g278
sg22
S'Bye'
p281
sg24
g278
sg26
g278
sg28
g278
sg30
g278
sg32
g278
sg34
g278
sg36
g278
sg38
g278
sg40
g278
sg41
g278
ssg89
(dp282
g5
S'--'
p283
sg7
S'--'
p284
sg9
g6
sg10
S'--'
p285
sg12
g6
sg14
S'Cecil Shorts'
p286
sg16
S'2015'
p287
sg18
g89
sg20
S'--'
p288
sg22
S'11/01'
p289
sg24
S'--'
p290
sg26
S'--'
p291
sg28
S'--'
p292
sg30
S'W20-6'
p293
sg32
S'--'
p294
sg34
S'--'
p295
sg36
S'TEN'
p296
sg38
S'--'
p297
sg40
S'--'
p298
sg41
S'--'
p299
sssS'2014'
p300
(dp301
g3
(dp302
g5
g278
sg7
g278
sg9
g278
sg10
g278
sg12
g278
sg14
S'Cecil Shorts'
p303
sg16
S'2014'
p304
sg18
S'11'
p305
sg20
g278
sg22
S'Bye'
p306
sg24
g278
sg26
g278
sg28
g278
sg30
g278
sg32
g278
sg34
g278
sg36
g278
sg38
g278
sg40
g278
sg41
g278
ssg43
(dp307
g5
S'--'
p308
sg7
S'--'
p309
sg9
g13
sg10
S'--'
p310
sg12
g13
sg14
S'Cecil Shorts'
p311
sg16
S'2014'
p312
sg18
S'10'
p313
sg20
S'--'
p314
sg22
S'11/09'
p315
sg24
S'23.8'
p316
sg26
S'--'
p317
sg28
S'--'
p318
sg30
S'L17-31'
p319
sg32
S'119'
p320
sg34
g210
sg36
S'DAL'
p321
sg38
S'53'
p322
sg40
g6
sg41
S'--'
p323
ssg62
(dp324
g5
S'--'
p325
sg7
S'--'
p326
sg9
g13
sg10
S'--'
p327
sg12
g13
sg14
S'Cecil Shorts'
p328
sg16
S'2014'
p329
sg18
S'13'
p330
sg20
S'--'
p331
sg22
S'11/30'
p332
sg24
S'8.8'
p333
sg26
S'--'
p334
sg28
S'--'
p335
sg30
S'W25-24'
p336
sg32
S'35'
p337
sg34
g29
sg36
S'NYG'
p338
sg38
S'12'
p339
sg40
g6
sg41
S'--'
p340
ssg77
(dp341
g5
S'--'
p342
sg7
S'--'
p343
sg9
g13
sg10
S'--'
p344
sg12
g13
sg14
S'Cecil Shorts'
p345
sg16
S'2014'
p346
sg18
S'12'
p347
sg20
S'--'
p348
sg22
S'11/23'
p349
sg24
S'6.0'
p350
sg26
S'--'
p351
sg28
S'--'
p352
sg30
S'L3-23'
p353
sg32
g74
sg34
g13
sg36
S'@IND'
p354
sg38
g74
sg40
g6
sg41
S'--'
p355
ssg91
(dp356
g5
S'--'
p357
sg7
S'--'
p358
sg9
g13
sg10
S'--'
p359
sg12
g13
sg14
S'Cecil Shorts'
p360
sg16
S'2014'
p361
sg18
S'15'
p362
sg20
S'--'
p363
sg22
S'12/14'
p364
sg24
S'12.7'
p365
sg26
S'--'
p366
sg28
S'--'
p367
sg30
S'L12-20'
p368
sg32
S'76'
p369
sg34
g74
sg36
S'@BAL'
p370
sg38
S'30'
p371
sg40
g6
sg41
S'--'
p372
ssg108
(dp373
g5
S'--'
p374
sg7
S'--'
p375
sg9
g13
sg10
S'--'
p376
sg12
g13
sg14
S'Cecil Shorts'
p377
sg16
S'2014'
p378
sg18
S'14'
p379
sg20
S'--'
p380
sg22
S'12/07'
p381
sg24
S'1.5'
p382
sg26
S'--'
p383
sg28
S'--'
p384
sg30
S'L13-27'
p385
sg32
g58
sg34
g35
sg36
S'HOU'
p386
sg38
g74
sg40
g6
sg41
S'--'
p387
ssg122
(dp388
g5
S'--'
p389
sg7
S'--'
p390
sg9
g13
sg10
S'--'
p391
sg12
g13
sg14
S'Cecil Shorts'
p392
sg16
S'2014'
p393
sg18
S'17'
p394
sg20
S'--'
p395
sg22
S'12/28'
p396
sg24
S'9.4'
p397
sg26
S'--'
p398
sg28
S'--'
p399
sg30
S'L17-23'
p400
sg32
S'47'
p401
sg34
g210
sg36
S'@HOU'
p402
sg38
S'18'
p403
sg40
g6
sg41
S'--'
p404
ssg142
(dp405
g5
S'--'
p406
sg7
S'--'
p407
sg9
g13
sg10
S'--'
p408
sg12
g13
sg14
S'Cecil Shorts'
p409
sg16
S'2014'
p410
sg18
S'16'
p411
sg20
S'--'
p412
sg22
S'12/18'
p413
sg24
S'7.5'
p414
sg26
S'--'
p415
sg28
S'--'
p416
sg30
S'W21-13'
p417
sg32
S'15'
p418
sg34
g35
sg36
S'TEN'
p419
sg38
g119
sg40
g6
sg41
S'--'
p420
ssg13
(dp421
g5
S'--'
p422
sg7
S'--'
p423
sg9
g6
sg10
S'--'
p424
sg12
g6
sg14
S'Cecil Shorts'
p425
sg16
S'2014'
p426
sg18
g13
sg20
S'--'
p427
sg22
S'09/07'
p428
sg24
S'--'
p429
sg26
S'--'
p430
sg28
S'--'
p431
sg30
S'L17-34'
p432
sg32
S'--'
p433
sg34
S'--'
p434
sg36
S'@PHI'
p435
sg38
S'--'
p436
sg40
S'--'
p437
sg41
S'--'
p438
ssg58
(dp439
g5
S'--'
p440
sg7
S'--'
p441
sg9
g13
sg10
S'--'
p442
sg12
g13
sg14
S'Cecil Shorts'
p443
sg16
S'2014'
p444
sg18
g58
sg20
S'--'
p445
sg22
S'09/21'
p446
sg24
S'7.0'
p447
sg26
S'--'
p448
sg28
S'--'
p449
sg30
S'L17-44'
p450
sg32
S'35'
p451
sg34
g210
sg36
S'IND'
p452
sg38
S'10T'
p453
sg40
g13
sg41
S'--'
p454
ssg35
(dp455
g5
S'--'
p456
sg7
S'--'
p457
sg9
g6
sg10
S'--'
p458
sg12
g6
sg14
S'Cecil Shorts'
p459
sg16
S'2014'
p460
sg18
g35
sg20
S'--'
p461
sg22
S'09/14'
p462
sg24
S'--'
p463
sg26
S'--'
p464
sg28
S'--'
p465
sg30
S'L10-41'
p466
sg32
S'--'
p467
sg34
S'--'
p468
sg36
S'@WAS'
p469
sg38
S'--'
p470
sg40
S'--'
p471
sg41
S'--'
p472
ssg210
(dp473
g5
S'--'
p474
sg7
S'--'
p475
sg9
g6
sg10
S'--'
p476
sg12
g6
sg14
S'Cecil Shorts'
p477
sg16
S'2014'
p478
sg18
g210
sg20
S'--'
p479
sg22
S'10/05'
p480
sg24
S'--'
p481
sg26
S'--'
p482
sg28
S'--'
p483
sg30
S'L9-17'
p484
sg32
S'--'
p485
sg34
S'--'
p486
sg36
S'PIT'
p487
sg38
S'--'
p488
sg40
S'--'
p489
sg41
S'--'
p490
ssg29
(dp491
g5
S'--'
p492
sg7
S'--'
p493
sg9
g13
sg10
S'--'
p494
sg12
g13
sg14
S'Cecil Shorts'
p495
sg16
S'2014'
p496
sg18
g29
sg20
S'--'
p497
sg22
S'09/28'
p498
sg24
S'12.5'
p499
sg26
S'--'
p500
sg28
S'--'
p501
sg30
S'L14-33'
p502
sg32
S'25'
p503
sg34
g35
sg36
S'@SD'
p504
sg38
S'13'
p505
sg40
g6
sg41
S'--'
p506
ssg90
(dp507
g5
S'--'
p508
sg7
S'--'
p509
sg9
g13
sg10
S'--'
p510
sg12
g13
sg14
S'Cecil Shorts'
p511
sg16
S'2014'
p512
sg18
g90
sg20
S'--'
p513
sg22
S'10/19'
p514
sg24
S'4.0'
p515
sg26
S'--'
p516
sg28
S'--'
p517
sg30
S'W24-6'
p518
sg32
S'12'
p519
sg34
g58
sg36
S'CLE'
p520
sg38
g210
sg40
g6
sg41
S'--'
p521
ssg74
(dp522
g5
S'--'
p523
sg7
S'--'
p524
sg9
g6
sg10
g13
sg12
g13
sg14
S'Cecil Shorts'
p525
sg16
S'2014'
p526
sg18
g74
sg20
S'--'
p527
sg22
S'10/12'
p528
sg24
S'10.3'
p529
sg26
g13
sg28
S'--'
p530
sg30
S'L14-16'
p531
sg32
S'103'
p532
sg34
S'10'
p533
sg36
S'@TEN'
p534
sg38
S'23'
p535
sg40
g6
sg41
S'--'
p536
ssg119
(dp537
g5
S'--'
p538
sg7
S'--'
p539
sg9
g13
sg10
S'--'
p540
sg12
g13
sg14
S'Cecil Shorts'
p541
sg16
S'2014'
p542
sg18
g119
sg20
S'--'
p543
sg22
S'11/02'
p544
sg24
S'8.0'
p545
sg26
S'--'
p546
sg28
S'--'
p547
sg30
S'L23-33'
p548
sg32
S'40'
p549
sg34
g210
sg36
S'@CIN'
p550
sg38
S'20'
p551
sg40
g6
sg41
S'--'
p552
ssg89
(dp553
g5
S'--'
p554
sg7
S'--'
p555
sg9
g13
sg10
S'--'
p556
sg12
g13
sg14
S'Cecil Shorts'
p557
sg16
S'2014'
p558
sg18
g89
sg20
S'--'
p559
sg22
S'10/26'
p560
sg24
S'13.7'
p561
sg26
S'--'
p562
sg28
S'--'
p563
sg30
S'L13-27'
p564
sg32
S'41'
p565
sg34
g58
sg36
S'MIA'
p566
sg38
S'22'
p567
sg40
g6
sg41
S'--'
p568
sssS'2011'
p569
(dp570
g3
(dp571
g5
S'--'
p572
sg7
S'--'
p573
sg9
g6
sg10
S'--'
p574
sg12
g6
sg14
S'Cecil Shorts'
p575
sg16
S'2011'
p576
sg18
S'11'
p577
sg20
S'--'
p578
sg22
S'11/20'
p579
sg24
S'--'
p580
sg26
S'--'
p581
sg28
S'--'
p582
sg30
S'L10-14'
p583
sg32
S'--'
p584
sg34
S'--'
p585
sg36
S'@CLE'
p586
sg38
S'--'
p587
sg40
S'--'
p588
sg41
S'--'
p589
ssg43
(dp590
g5
S'--'
p591
sg7
S'--'
p592
sg9
g6
sg10
S'--'
p593
sg12
g6
sg14
S'Cecil Shorts'
p594
sg16
S'2011'
p595
sg18
S'10'
p596
sg20
S'--'
p597
sg22
S'11/13'
p598
sg24
S'--'
p599
sg26
S'--'
p600
sg28
S'--'
p601
sg30
S'W17-3'
p602
sg32
S'--'
p603
sg34
S'--'
p604
sg36
S'@IND'
p605
sg38
S'--'
p606
sg40
S'--'
p607
sg41
S'--'
p608
ssg62
(dp609
g5
S'--'
p610
sg7
S'--'
p611
sg9
g6
sg10
S'--'
p612
sg12
g13
sg14
S'Cecil Shorts'
p613
sg16
S'2011'
p614
sg18
S'13'
p615
sg20
S'--'
p616
sg22
S'12/05'
p617
sg24
S'5.0'
p618
sg26
S'--'
p619
sg28
S'--'
p620
sg30
S'L14-38'
p621
sg32
g210
sg34
g13
sg36
S'SD'
p622
sg38
S'5T'
p623
sg40
g13
sg41
S'--'
p624
ssg77
(dp625
g5
S'--'
p626
sg7
S'--'
p627
sg9
g6
sg10
S'--'
p628
sg12
g13
sg14
S'Cecil Shorts'
p629
sg16
S'2011'
p630
sg18
S'12'
p631
sg20
S'--'
p632
sg22
S'11/27'
p633
sg24
S'25.0'
p634
sg26
S'--'
p635
sg28
S'--'
p636
sg30
S'L13-20'
p637
sg32
S'25'
p638
sg34
g13
sg36
S'HOU'
p639
sg38
S'25'
p640
sg40
g6
sg41
S'--'
p641
ssg91
(dp642
g5
S'--'
p643
sg7
S'--'
p644
sg9
g6
sg10
S'--'
p645
sg12
g6
sg14
S'Cecil Shorts'
p646
sg16
S'2011'
p647
sg18
S'15'
p648
sg20
S'--'
p649
sg22
S'12/15'
p650
sg24
S'--'
p651
sg26
S'--'
p652
sg28
S'--'
p653
sg30
S'L14-41'
p654
sg32
S'--'
p655
sg34
S'--'
p656
sg36
S'@ATL'
p657
sg38
S'--'
p658
sg40
S'--'
p659
sg41
S'--'
p660
ssg108
(dp661
g5
S'--'
p662
sg7
S'--'
p663
sg9
g6
sg10
S'--'
p664
sg12
g13
sg14
S'Cecil Shorts'
p665
sg16
S'2011'
p666
sg18
S'14'
p667
sg20
S'--'
p668
sg22
S'12/11'
p669
sg24
S'--'
p670
sg26
S'--'
p671
sg28
S'--'
p672
sg30
S'W41-14'
p673
sg32
g6
sg34
g6
sg36
S'TB'
p674
sg38
S'--'
p675
sg40
g6
sg41
S'--'
p676
ssg122
(dp677
g5
S'--'
p678
sg7
S'--'
p679
sg9
g6
sg10
S'--'
p680
sg12
g6
sg14
S'Cecil Shorts'
p681
sg16
S'2011'
p682
sg18
S'17'
p683
sg20
S'--'
p684
sg22
S'01/01'
p685
sg24
S'--'
p686
sg26
S'--'
p687
sg28
S'--'
p688
sg30
S'W19-13'
p689
sg32
S'--'
p690
sg34
S'--'
p691
sg36
S'IND'
p692
sg38
S'--'
p693
sg40
S'--'
p694
sg41
S'--'
p695
ssg142
(dp696
g5
S'--'
p697
sg7
S'--'
p698
sg9
g6
sg10
S'--'
p699
sg12
g6
sg14
S'Cecil Shorts'
p700
sg16
S'2011'
p701
sg18
S'16'
p702
sg20
S'--'
p703
sg22
S'12/24'
p704
sg24
S'--'
p705
sg26
S'--'
p706
sg28
S'--'
p707
sg30
S'L17-23'
p708
sg32
S'--'
p709
sg34
S'--'
p710
sg36
S'@TEN'
p711
sg38
S'--'
p712
sg40
S'--'
p713
sg41
S'--'
p714
ssg13
(dp715
g5
S'--'
p716
sg7
S'--'
p717
sg9
g6
sg10
S'--'
p718
sg12
g13
sg14
S'Cecil Shorts'
p719
sg16
S'2011'
p720
sg18
g13
sg20
S'--'
p721
sg22
S'09/11'
p722
sg24
S'--'
p723
sg26
S'--'
p724
sg28
S'--'
p725
sg30
S'W16-14'
p726
sg32
S'--'
p727
sg34
S'--'
p728
sg36
S'TEN'
p729
sg38
S'--'
p730
sg40
S'--'
p731
sg41
S'--'
p732
ssg58
(dp733
g5
S'--'
p734
sg7
S'--'
p735
sg9
g6
sg10
S'--'
p736
sg12
g13
sg14
S'Cecil Shorts'
p737
sg16
S'2011'
p738
sg18
g58
sg20
S'--'
p739
sg22
S'09/25'
p740
sg24
S'--'
p741
sg26
S'--'
p742
sg28
S'--'
p743
sg30
S'L10-16'
p744
sg32
g6
sg34
g6
sg36
S'@CAR'
p745
sg38
S'--'
p746
sg40
g6
sg41
S'--'
p747
ssg35
(dp748
g5
S'--'
p749
sg7
S'--'
p750
sg9
g6
sg10
S'--'
p751
sg12
g13
sg14
S'Cecil Shorts'
p752
sg16
S'2011'
p753
sg18
g35
sg20
S'--'
p754
sg22
S'09/18'
p755
sg24
S'--'
p756
sg26
S'--'
p757
sg28
S'--'
p758
sg30
S'L3-32'
p759
sg32
g6
sg34
g6
sg36
S'@NYJ'
p760
sg38
S'--'
p761
sg40
g6
sg41
S'--'
p762
ssg210
(dp763
g5
S'--'
p764
sg7
S'--'
p765
sg9
g6
sg10
S'--'
p766
sg12
g13
sg14
S'Cecil Shorts'
p767
sg16
S'2011'
p768
sg18
g210
sg20
S'--'
p769
sg22
S'10/09'
p770
sg24
S'--'
p771
sg26
S'--'
p772
sg28
S'--'
p773
sg30
S'L20-30'
p774
sg32
g6
sg34
g6
sg36
S'CIN'
p775
sg38
S'--'
p776
sg40
g6
sg41
S'--'
p777
ssg29
(dp778
g5
S'--'
p779
sg7
S'--'
p780
sg9
g6
sg10
S'--'
p781
sg12
g13
sg14
S'Cecil Shorts'
p782
sg16
S'2011'
p783
sg18
g29
sg20
S'--'
p784
sg22
S'10/02'
p785
sg24
S'--'
p786
sg26
S'--'
p787
sg28
S'--'
p788
sg30
S'L10-23'
p789
sg32
g6
sg34
g6
sg36
S'NO'
p790
sg38
S'--'
p791
sg40
g6
sg41
S'--'
p792
ssg90
(dp793
g5
S'--'
p794
sg7
S'--'
p795
sg9
g6
sg10
S'--'
p796
sg12
g13
sg14
S'Cecil Shorts'
p797
sg16
S'2011'
p798
sg18
g90
sg20
S'--'
p799
sg22
S'10/24'
p800
sg24
S'--'
p801
sg26
S'--'
p802
sg28
S'--'
p803
sg30
S'W12-7'
p804
sg32
g6
sg34
g6
sg36
S'BAL'
p805
sg38
S'--'
p806
sg40
g6
sg41
S'--'
p807
ssg74
(dp808
g5
S'--'
p809
sg7
S'--'
p810
sg9
g6
sg10
S'--'
p811
sg12
g13
sg14
S'Cecil Shorts'
p812
sg16
S'2011'
p813
sg18
g74
sg20
S'--'
p814
sg22
S'10/16'
p815
sg24
S'--'
p816
sg26
S'--'
p817
sg28
S'--'
p818
sg30
S'L13-17'
p819
sg32
S'--'
p820
sg34
S'--'
p821
sg36
S'@PIT'
p822
sg38
S'--'
p823
sg40
S'--'
p824
sg41
S'--'
p825
ssg119
(dp826
g5
g278
sg7
g278
sg9
g278
sg10
g278
sg12
g278
sg14
S'Cecil Shorts'
p827
sg16
S'2011'
p828
sg18
g119
sg20
g278
sg22
S'Bye'
p829
sg24
g278
sg26
g278
sg28
g278
sg30
g278
sg32
g278
sg34
g278
sg36
g278
sg38
g278
sg40
g278
sg41
g278
ssg89
(dp830
g5
S'--'
p831
sg7
S'--'
p832
sg9
g6
sg10
S'--'
p833
sg12
g6
sg14
S'Cecil Shorts'
p834
sg16
S'2011'
p835
sg18
g89
sg20
S'--'
p836
sg22
S'10/30'
p837
sg24
S'--'
p838
sg26
S'--'
p839
sg28
S'--'
p840
sg30
S'L14-24'
p841
sg32
S'--'
p842
sg34
S'--'
p843
sg36
S'@HOU'
p844
sg38
S'--'
p845
sg40
S'--'
p846
sg41
S'--'
p847
sssS'2013'
p848
(dp849
g3
(dp850
g5
S'--'
p851
sg7
S'--'
p852
sg9
g13
sg10
S'--'
p853
sg12
g13
sg14
S'Cecil Shorts'
p854
sg16
S'2013'
p855
sg18
S'11'
p856
sg20
S'--'
p857
sg22
S'11/17'
p858
sg24
S'11.0'
p859
sg26
S'--'
p860
sg28
S'--'
p861
sg30
S'L14-27'
p862
sg32
S'22'
p863
sg34
g35
sg36
S'ARI'
p864
sg38
S'11'
p865
sg40
g6
sg41
S'--'
p866
ssg43
(dp867
g5
S'--'
p868
sg7
S'--'
p869
sg9
g13
sg10
S'--'
p870
sg12
g13
sg14
S'Cecil Shorts'
p871
sg16
S'2013'
p872
sg18
S'10'
p873
sg20
S'--'
p874
sg22
S'11/10'
p875
sg24
S'21.0'
p876
sg26
S'--'
p877
sg28
S'--'
p878
sg30
S'W29-27'
p879
sg32
S'42'
p880
sg34
g35
sg36
S'@TEN'
p881
sg38
S'22'
p882
sg40
g6
sg41
S'--'
p883
ssg62
(dp884
g5
S'--'
p885
sg7
S'--'
p886
sg9
g13
sg10
S'--'
p887
sg12
g13
sg14
S'Cecil Shorts'
p888
sg16
S'2013'
p889
sg18
S'13'
p890
sg20
S'--'
p891
sg22
S'12/01'
p892
sg24
S'10.7'
p893
sg26
S'--'
p894
sg28
S'--'
p895
sg30
S'W32-28'
p896
sg32
S'64'
p897
sg34
g74
sg36
S'@CLE'
p898
sg38
S'20T'
p899
sg40
g13
sg41
S'--'
p900
ssg77
(dp901
g5
S'--'
p902
sg7
S'--'
p903
sg9
g13
sg10
S'--'
p904
sg12
g13
sg14
S'Cecil Shorts'
p905
sg16
S'2013'
p906
sg18
S'12'
p907
sg20
S'--'
p908
sg22
S'11/24'
p909
sg24
S'8.9'
p910
sg26
S'--'
p911
sg28
S'--'
p912
sg30
S'W13-6'
p913
sg32
S'71'
p914
sg34
g89
sg36
S'@HOU'
p915
sg38
S'16'
p916
sg40
g6
sg41
S'--'
p917
ssg91
(dp918
g5
S'--'
p919
sg7
S'--'
p920
sg9
g6
sg10
S'--'
p921
sg12
g6
sg14
S'Cecil Shorts'
p922
sg16
S'2013'
p923
sg18
S'15'
p924
sg20
S'--'
p925
sg22
S'12/15'
p926
sg24
S'--'
p927
sg26
S'--'
p928
sg28
S'--'
p929
sg30
S'L20-27'
p930
sg32
S'--'
p931
sg34
S'--'
p932
sg36
S'BUF'
p933
sg38
S'--'
p934
sg40
S'--'
p935
sg41
S'--'
p936
ssg108
(dp937
g5
S'--'
p938
sg7
S'--'
p939
sg9
g13
sg10
S'--'
p940
sg12
g13
sg14
S'Cecil Shorts'
p941
sg16
S'2013'
p942
sg18
S'14'
p943
sg20
S'--'
p944
sg22
S'12/05'
p945
sg24
S'6.5'
p946
sg26
S'--'
p947
sg28
S'--'
p948
sg30
S'W27-20'
p949
sg32
S'13'
p950
sg34
g35
sg36
S'HOU'
p951
sg38
g90
sg40
g13
sg41
S'--'
p952
ssg13
(dp953
g5
S'--'
p954
sg7
S'--'
p955
sg9
g13
sg10
S'--'
p956
sg12
g13
sg14
S'Cecil Shorts'
p957
sg16
S'2013'
p958
sg18
g13
sg20
S'--'
p959
sg22
S'09/08'
p960
sg24
S'13.3'
p961
sg26
S'--'
p962
sg28
S'--'
p963
sg30
S'L2-28'
p964
sg32
S'40'
p965
sg34
g58
sg36
S'KC'
p966
sg38
S'24'
p967
sg40
g6
sg41
S'--'
p968
ssg58
(dp969
g5
S'--'
p970
sg7
S'--'
p971
sg9
g13
sg10
S'--'
p972
sg12
g13
sg14
S'Cecil Shorts'
p973
sg16
S'2013'
p974
sg18
g58
sg20
S'--'
p975
sg22
S'09/22'
p976
sg24
S'17.9'
p977
sg26
S'--'
p978
sg28
S'--'
p979
sg30
S'L17-45'
p980
sg32
S'143'
p981
sg34
g89
sg36
S'@SEA'
p982
sg38
S'59'
p983
sg40
g6
sg41
S'--'
p984
ssg35
(dp985
g5
S'--'
p986
sg7
S'--'
p987
sg9
g13
sg10
S'--'
p988
sg12
g13
sg14
S'Cecil Shorts'
p989
sg16
S'2013'
p990
sg18
g35
sg20
S'--'
p991
sg22
S'09/15'
p992
sg24
S'11.6'
p993
sg26
S'--'
p994
sg28
S'--'
p995
sg30
S'L9-19'
p996
sg32
S'93'
p997
sg34
g89
sg36
S'@OAK'
p998
sg38
S'22'
p999
sg40
g6
sg41
S'--'
p1000
ssg210
(dp1001
g5
S'--'
p1002
sg7
S'--'
p1003
sg9
g13
sg10
S'--'
p1004
sg12
g13
sg14
S'Cecil Shorts'
p1005
sg16
S'2013'
p1006
sg18
g210
sg20
S'--'
p1007
sg22
S'10/06'
p1008
sg24
S'14.8'
p1009
sg26
S'--'
p1010
sg28
S'--'
p1011
sg30
S'L20-34'
p1012
sg32
S'74'
p1013
sg34
g210
sg36
S'@STL'
p1014
sg38
S'28'
p1015
sg40
g13
sg41
S'--'
p1016
ssg29
(dp1017
g5
S'--'
p1018
sg7
S'--'
p1019
sg9
g13
sg10
S'--'
p1020
sg12
g13
sg14
S'Cecil Shorts'
p1021
sg16
S'2013'
p1022
sg18
g29
sg20
S'--'
p1023
sg22
S'09/29'
p1024
sg24
S'8.7'
p1025
sg26
S'--'
p1026
sg28
S'--'
p1027
sg30
S'L3-37'
p1028
sg32
S'61'
p1029
sg34
g90
sg36
S'IND'
p1030
sg38
S'15'
p1031
sg40
g6
sg41
S'--'
p1032
ssg90
(dp1033
g5
S'--'
p1034
sg7
S'--'
p1035
sg9
g13
sg10
S'--'
p1036
sg12
g13
sg14
S'Cecil Shorts'
p1037
sg16
S'2013'
p1038
sg18
g90
sg20
S'--'
p1039
sg22
S'10/20'
p1040
sg24
S'10.0'
p1041
sg26
S'--'
p1042
sg28
S'--'
p1043
sg30
S'L6-24'
p1044
sg32
S'80'
p1045
sg34
g89
sg36
S'SD'
p1046
sg38
S'22'
p1047
sg40
g6
sg41
S'--'
p1048
ssg74
(dp1049
g5
S'--'
p1050
sg7
S'--'
p1051
sg9
g13
sg10
S'--'
p1052
sg12
g13
sg14
S'Cecil Shorts'
p1053
sg16
S'2013'
p1054
sg18
g74
sg20
S'--'
p1055
sg22
S'10/13'
p1056
sg24
S'--'
p1057
sg26
S'--'
p1058
sg28
S'--'
p1059
sg30
S'L19-35'
p1060
sg32
g6
sg34
g6
sg36
S'@DEN'
p1061
sg38
S'--'
p1062
sg40
g6
sg41
S'--'
p1063
ssg119
(dp1064
g5
g278
sg7
g278
sg9
g278
sg10
g278
sg12
g278
sg14
S'Cecil Shorts'
p1065
sg16
S'2013'
p1066
sg18
g119
sg20
g278
sg22
S'Bye'
p1067
sg24
g278
sg26
g278
sg28
g278
sg30
g278
sg32
g278
sg34
g278
sg36
g278
sg38
g278
sg40
g278
sg41
g278
ssg89
(dp1068
g5
S'--'
p1069
sg7
S'--'
p1070
sg9
g13
sg10
S'--'
p1071
sg12
g13
sg14
S'Cecil Shorts'
p1072
sg16
S'2013'
p1073
sg18
g89
sg20
S'--'
p1074
sg22
S'10/27'
p1075
sg24
S'10.6'
p1076
sg26
S'--'
p1077
sg28
S'--'
p1078
sg30
S'L10-42'
p1079
sg32
S'74'
p1080
sg34
g90
sg36
S'SF'
p1081
sg38
S'15'
p1082
sg40
g6
sg41
S'--'
p1083
sssS'2012'
p1084
(dp1085
g3
(dp1086
g5
S'--'
p1087
sg7
S'--'
p1088
sg9
g13
sg10
S'--'
p1089
sg12
g13
sg14
S'Cecil Shorts'
p1090
sg16
S'2012'
p1091
sg18
S'11'
p1092
sg20
S'--'
p1093
sg22
S'11/18'
p1094
sg24
S'27.0'
p1095
sg26
S'--'
p1096
sg28
S'--'
p1097
sg30
S'L37-43'
p1098
sg32
S'81'
p1099
sg34
g58
sg36
S'@HOU'
p1100
sg38
S'67T'
p1101
sg40
g13
sg41
S'--'
p1102
ssg43
(dp1103
g5
S'--'
p1104
sg7
S'--'
p1105
sg9
g13
sg10
S'--'
p1106
sg12
g13
sg14
S'Cecil Shorts'
p1107
sg16
S'2012'
p1108
sg18
S'10'
p1109
sg20
S'--'
p1110
sg22
S'11/08'
p1111
sg24
S'17.5'
p1112
sg26
S'--'
p1113
sg28
S'--'
p1114
sg30
S'L10-27'
p1115
sg32
S'105'
p1116
sg34
g74
sg36
S'IND'
p1117
sg38
S'52'
p1118
sg40
g13
sg41
S'--'
p1119
ssg62
(dp1120
g5
S'--'
p1121
sg7
S'--'
p1122
sg9
g13
sg10
S'--'
p1123
sg12
g13
sg14
S'Cecil Shorts'
p1124
sg16
S'2012'
p1125
sg18
S'13'
p1126
sg20
S'--'
p1127
sg22
S'12/02'
p1128
sg24
S'11.0'
p1129
sg26
S'--'
p1130
sg28
S'--'
p1131
sg30
S'L18-34'
p1132
sg32
S'77'
p1133
sg34
g90
sg36
S'@BUF'
p1134
sg38
S'24'
p1135
sg40
g13
sg41
S'--'
p1136
ssg77
(dp1137
g5
S'--'
p1138
sg7
S'--'
p1139
sg9
g13
sg10
S'--'
p1140
sg12
g13
sg14
S'Cecil Shorts'
p1141
sg16
S'2012'
p1142
sg18
S'12'
p1143
sg20
S'--'
p1144
sg22
S'11/25'
p1145
sg24
S'26.3'
p1146
sg26
S'--'
p1147
sg28
S'--'
p1148
sg30
S'W24-19'
p1149
sg32
S'105'
p1150
sg34
g29
sg36
S'TEN'
p1151
sg38
S'59T'
p1152
sg40
g13
sg41
S'--'
p1153
ssg91
(dp1154
g5
S'--'
p1155
sg7
S'--'
p1156
sg9
g13
sg10
S'--'
p1157
sg12
g13
sg14
S'Cecil Shorts'
p1158
sg16
S'2012'
p1159
sg18
S'15'
p1160
sg20
S'--'
p1161
sg22
S'12/16'
p1162
sg24
S'16.8'
p1163
sg26
S'--'
p1164
sg28
S'--'
p1165
sg30
S'L3-24'
p1166
sg32
S'101'
p1167
sg34
g74
sg36
S'@MIA'
p1168
sg38
S'30'
p1169
sg40
g6
sg41
S'--'
p1170
ssg108
(dp1171
g5
S'--'
p1172
sg7
S'--'
p1173
sg9
g6
sg10
S'--'
p1174
sg12
g6
sg14
S'Cecil Shorts'
p1175
sg16
S'2012'
p1176
sg18
S'14'
p1177
sg20
S'--'
p1178
sg22
S'12/09'
p1179
sg24
S'--'
p1180
sg26
S'--'
p1181
sg28
S'--'
p1182
sg30
S'L10-17'
p1183
sg32
S'--'
p1184
sg34
S'--'
p1185
sg36
S'NYJ'
p1186
sg38
S'--'
p1187
sg40
S'--'
p1188
sg41
S'--'
p1189
ssg142
(dp1190
g5
S'--'
p1191
sg7
S'--'
p1192
sg9
g13
sg10
S'--'
p1193
sg12
g13
sg14
S'Cecil Shorts'
p1194
sg16
S'2012'
p1195
sg18
S'16'
p1196
sg20
S'--'
p1197
sg22
S'12/23'
p1198
sg24
S'9.0'
p1199
sg26
S'--'
p1200
sg28
S'--'
p1201
sg30
S'L16-23'
p1202
sg32
S'54'
p1203
sg34
g74
sg36
S'NE'
p1204
sg38
S'18'
p1205
sg40
g6
sg41
S'--'
p1206
ssg13
(dp1207
g5
S'--'
p1208
sg7
S'--'
p1209
sg9
g6
sg10
S'--'
p1210
sg12
g13
sg14
S'Cecil Shorts'
p1211
sg16
S'2012'
p1212
sg18
g13
sg20
S'--'
p1213
sg22
S'09/09'
p1214
sg24
S'18.5'
p1215
sg26
S'--'
p1216
sg28
S'--'
p1217
sg30
S'L23-26'
p1218
sg32
S'74'
p1219
sg34
g29
sg36
S'@MIN'
p1220
sg38
S'39T'
p1221
sg40
g13
sg41
S'--'
p1222
ssg58
(dp1223
g5
g6
sg7
S'-4'
p1224
sg9
g6
sg10
S'--'
p1225
sg12
g13
sg14
S'Cecil Shorts'
p1226
sg16
S'2012'
p1227
sg18
g58
sg20
S'-4.0'
p1228
sg22
S'09/23'
p1229
sg24
S'80.0'
p1230
sg26
S'--'
p1231
sg28
g13
sg30
S'W22-17'
p1232
sg32
S'80'
p1233
sg34
g13
sg36
S'@IND'
p1234
sg38
S'80T'
p1235
sg40
g13
sg41
S'-4'
p1236
ssg35
(dp1237
g5
S'--'
p1238
sg7
S'--'
p1239
sg9
g6
sg10
S'--'
p1240
sg12
g13
sg14
S'Cecil Shorts'
p1241
sg16
S'2012'
p1242
sg18
g35
sg20
S'--'
p1243
sg22
S'09/16'
p1244
sg24
S'--'
p1245
sg26
S'--'
p1246
sg28
S'--'
p1247
sg30
S'L7-27'
p1248
sg32
g6
sg34
g6
sg36
S'HOU'
p1249
sg38
S'--'
p1250
sg40
g6
sg41
S'--'
p1251
ssg210
(dp1252
g5
S'--'
p1253
sg7
S'--'
p1254
sg9
g6
sg10
S'--'
p1255
sg12
g13
sg14
S'Cecil Shorts'
p1256
sg16
S'2012'
p1257
sg18
g210
sg20
S'--'
p1258
sg22
S'10/07'
p1259
sg24
S'21.5'
p1260
sg26
S'--'
p1261
sg28
S'--'
p1262
sg30
S'L3-41'
p1263
sg32
S'43'
p1264
sg34
g35
sg36
S'CHI'
p1265
sg38
S'34'
p1266
sg40
g6
sg41
S'--'
p1267
ssg29
(dp1268
g5
S'--'
p1269
sg7
S'--'
p1270
sg9
g6
sg10
S'--'
p1271
sg12
g13
sg14
S'Cecil Shorts'
p1272
sg16
S'2012'
p1273
sg18
g29
sg20
S'--'
p1274
sg22
S'09/30'
p1275
sg24
S'8.0'
p1276
sg26
S'--'
p1277
sg28
S'--'
p1278
sg30
S'L10-27'
p1279
sg32
g89
sg34
g13
sg36
S'CIN'
p1280
sg38
g89
sg40
g6
sg41
S'--'
p1281
ssg90
(dp1282
g5
S'--'
p1283
sg7
S'--'
p1284
sg9
g13
sg10
g13
sg12
g13
sg14
S'Cecil Shorts'
p1285
sg16
S'2012'
p1286
sg18
g90
sg20
S'--'
p1287
sg22
S'10/21'
p1288
sg24
S'19.8'
p1289
sg26
g13
sg28
S'--'
p1290
sg30
S'L23-26'
p1291
sg32
S'79'
p1292
sg34
g29
sg36
S'@OAK'
p1293
sg38
S'42T'
p1294
sg40
g13
sg41
S'--'
p1295
ssg74
(dp1296
g5
g278
sg7
g278
sg9
g278
sg10
g278
sg12
g278
sg14
S'Cecil Shorts'
p1297
sg16
S'2012'
p1298
sg18
g74
sg20
g278
sg22
S'Bye'
p1299
sg24
g278
sg26
g278
sg28
g278
sg30
g278
sg32
g278
sg34
g278
sg36
g278
sg38
g278
sg40
g278
sg41
g278
ssg119
(dp1300
g5
S'--'
p1301
sg7
S'--'
p1302
sg9
g13
sg10
S'--'
p1303
sg12
g13
sg14
S'Cecil Shorts'
p1304
sg16
S'2012'
p1305
sg18
g119
sg20
S'--'
p1306
sg22
S'11/04'
p1307
sg24
S'18.7'
p1308
sg26
S'--'
p1309
sg28
S'--'
p1310
sg30
S'L14-31'
p1311
sg32
S'56'
p1312
sg34
g58
sg36
S'DET'
p1313
sg38
S'25'
p1314
sg40
g6
sg41
S'--'
p1315
ssg89
(dp1316
g5
S'--'
p1317
sg7
S'--'
p1318
sg9
g13
sg10
S'--'
p1319
sg12
g13
sg14
S'Cecil Shorts'
p1320
sg16
S'2012'
p1321
sg18
g89
sg20
S'--'
p1322
sg22
S'10/28'
p1323
sg24
S'14.5'
p1324
sg26
S'--'
p1325
sg28
S'--'
p1326
sg30
S'L15-24'
p1327
sg32
S'116'
p1328
sg34
g89
sg36
S'@GB'
p1329
sg38
S'35'
p1330
sg40
g6
sg41
S'--'
p1331
sss.