(dp0
S'2015'
p1
(dp2
S'3'
p3
(dp4
S'RushTD'
p5
S'--'
p6
sS'RushYds'
p7
S'--'
p8
sS'GS'
p9
S'0'
p10
sS'Lost'
p11
g10
sS'G'
p12
S'1'
p13
sS'Player'
p14
S'Chandler Worthy'
p15
sS'Year'
p16
S'2015'
p17
sS'WK'
p18
g3
sS'RushAvg'
p19
S'--'
p20
sS'Game Date'
p21
S'09/27'
p22
sS'RecAvg'
p23
S'-1.0'
p24
sS'FUM'
p25
g13
sS'RushAtt'
p26
S'--'
p27
sS'Result'
p28
S'W19-9'
p29
sS'RecYds'
p30
S'-1'
p31
sS'Rec'
p32
g13
sS'Opp'
p33
S'TB'
p34
sS'RecLng'
p35
S'-1'
p36
sS'RecTD'
p37
g10
sS'RushLng'
p38
S'--'
p39
ssS'2'
p40
(dp41
g5
S'--'
p42
sg7
S'--'
p43
sg9
g10
sg11
S'--'
p44
sg12
g13
sg14
S'Chandler Worthy'
p45
sg16
S'2015'
p46
sg18
g40
sg19
S'--'
p47
sg21
S'09/20'
p48
sg23
S'7.5'
p49
sg25
S'--'
p50
sg26
S'--'
p51
sg28
S'L17-24'
p52
sg30
S'15'
p53
sg32
g40
sg33
S'@CAR'
p54
sg35
S'12'
p55
sg37
g10
sg38
S'--'
p56
ssS'5'
p57
(dp58
g5
S'--'
p59
sg7
S'--'
p60
sg9
g10
sg11
S'--'
p61
sg12
g13
sg14
S'Chandler Worthy'
p62
sg16
S'2015'
p63
sg18
g57
sg19
S'--'
p64
sg21
S'10/08'
p65
sg23
S'--'
p66
sg25
S'--'
p67
sg26
S'--'
p68
sg28
S'L20-27'
p69
sg30
g10
sg32
g10
sg33
S'IND'
p70
sg35
S'--'
p71
sg37
g10
sg38
S'--'
p72
ssS'4'
p73
(dp74
g5
S'--'
p75
sg7
S'--'
p76
sg9
g10
sg11
S'--'
p77
sg12
g10
sg14
S'Chandler Worthy'
p78
sg16
S'2015'
p79
sg18
g73
sg19
S'--'
p80
sg21
S'10/04'
p81
sg23
S'--'
p82
sg25
S'--'
p83
sg26
S'--'
p84
sg28
S'L21-48'
p85
sg30
S'--'
p86
sg32
S'--'
p87
sg33
S'@ATL'
p88
sg35
S'--'
p89
sg37
S'--'
p90
sg38
S'--'
p91
sss.