(dp0
S'2015'
p1
(dp2
S'11'
p3
(dp4
S'RushTD'
p5
S'--'
p6
sS'RushYds'
p7
S'--'
p8
sS'GS'
p9
S'0'
p10
sS'Lost'
p11
S'--'
p12
sS'G'
p13
S'1'
p14
sS'Player'
p15
S'Charles Johnson'
p16
sS'Year'
p17
S'2015'
p18
sS'WK'
p19
S'11'
p20
sS'RushAvg'
p21
S'--'
p22
sS'Game Date'
p23
S'11/22'
p24
sS'RecAvg'
p25
S'--'
p26
sS'FUM'
p27
S'--'
p28
sS'RushAtt'
p29
S'--'
p30
sS'Result'
p31
S'L13-30'
p32
sS'RecYds'
p33
S'--'
p34
sS'Rec'
p35
S'--'
p36
sS'Opp'
p37
S'GB'
p38
sS'RecLng'
p39
S'--'
p40
sS'RecTD'
p41
S'--'
p42
sS'RushLng'
p43
S'--'
p44
ssS'10'
p45
(dp46
g5
S'--'
p47
sg7
S'--'
p48
sg9
g10
sg11
S'--'
p49
sg13
g14
sg15
S'Charles Johnson'
p50
sg17
S'2015'
p51
sg19
S'10'
p52
sg21
S'--'
p53
sg23
S'11/15'
p54
sg25
S'--'
p55
sg27
S'--'
p56
sg29
S'--'
p57
sg31
S'W30-14'
p58
sg33
S'--'
p59
sg35
S'--'
p60
sg37
S'@OAK'
p61
sg39
S'--'
p62
sg41
S'--'
p63
sg43
S'--'
p64
ssS'13'
p65
(dp66
g5
S'--'
p67
sg7
S'--'
p68
sg9
g14
sg11
S'--'
p69
sg13
g14
sg15
S'Charles Johnson'
p70
sg17
S'2015'
p71
sg19
S'13'
p72
sg21
S'--'
p73
sg23
S'12/06'
p74
sg25
S'--'
p75
sg27
S'--'
p76
sg29
S'--'
p77
sg31
S'L7-38'
p78
sg33
S'--'
p79
sg35
S'--'
p80
sg37
S'SEA'
p81
sg39
S'--'
p82
sg41
S'--'
p83
sg43
S'--'
p84
ssS'12'
p85
(dp86
g5
S'--'
p87
sg7
S'--'
p88
sg9
g10
sg11
S'--'
p89
sg13
g14
sg15
S'Charles Johnson'
p90
sg17
S'2015'
p91
sg19
S'12'
p92
sg21
S'--'
p93
sg23
S'11/29'
p94
sg25
S'--'
p95
sg27
S'--'
p96
sg29
S'--'
p97
sg31
S'W20-10'
p98
sg33
S'--'
p99
sg35
S'--'
p100
sg37
S'@ATL'
p101
sg39
S'--'
p102
sg41
S'--'
p103
sg43
S'--'
p104
ssS'15'
p105
(dp106
g5
S'--'
p107
sg7
S'--'
p108
sg9
g10
sg11
S'--'
p109
sg13
g10
sg15
S'Charles Johnson'
p110
sg17
S'2015'
p111
sg19
S'15'
p112
sg21
S'--'
p113
sg23
S'12/20'
p114
sg25
S'--'
p115
sg27
S'--'
p116
sg29
S'--'
p117
sg31
S'W38-17'
p118
sg33
S'--'
p119
sg35
S'--'
p120
sg37
S'CHI'
p121
sg39
S'--'
p122
sg41
S'--'
p123
sg43
S'--'
p124
ssS'14'
p125
(dp126
g5
S'--'
p127
sg7
S'--'
p128
sg9
g10
sg11
S'--'
p129
sg13
g14
sg15
S'Charles Johnson'
p130
sg17
S'2015'
p131
sg19
S'14'
p132
sg21
S'--'
p133
sg23
S'12/10'
p134
sg25
S'--'
p135
sg27
S'--'
p136
sg29
S'--'
p137
sg31
S'L20-23'
p138
sg33
S'--'
p139
sg35
S'--'
p140
sg37
S'@ARI'
p141
sg39
S'--'
p142
sg41
S'--'
p143
sg43
S'--'
p144
ssS'17'
p145
(dp146
g5
S'--'
p147
sg7
S'--'
p148
sg9
g10
sg11
S'--'
p149
sg13
g10
sg15
S'Charles Johnson'
p150
sg17
S'2015'
p151
sg19
S'17'
p152
sg21
S'--'
p153
sg23
S'01/03'
p154
sg25
S'--'
p155
sg27
S'--'
p156
sg29
S'--'
p157
sg31
S'W20-13'
p158
sg33
S'--'
p159
sg35
S'--'
p160
sg37
S'@GB'
p161
sg39
S'--'
p162
sg41
S'--'
p163
sg43
S'--'
p164
ssS'16'
p165
(dp166
g5
S'--'
p167
sg7
S'--'
p168
sg9
g10
sg11
S'--'
p169
sg13
g10
sg15
S'Charles Johnson'
p170
sg17
S'2015'
p171
sg19
S'16'
p172
sg21
S'--'
p173
sg23
S'12/27'
p174
sg25
S'--'
p175
sg27
S'--'
p176
sg29
S'--'
p177
sg31
S'W49-17'
p178
sg33
S'--'
p179
sg35
S'--'
p180
sg37
S'NYG'
p181
sg39
S'--'
p182
sg41
S'--'
p183
sg43
S'--'
p184
ssg14
(dp185
g5
S'--'
p186
sg7
S'--'
p187
sg9
g14
sg11
S'--'
p188
sg13
g14
sg15
S'Charles Johnson'
p189
sg17
S'2015'
p190
sg19
g14
sg21
S'--'
p191
sg23
S'09/14'
p192
sg25
S'13.5'
p193
sg27
S'--'
p194
sg29
S'--'
p195
sg31
S'L3-20'
p196
sg33
S'27'
p197
sg35
S'2'
p198
sg37
S'@SF'
p199
sg39
S'18'
p200
sg41
g10
sg43
S'--'
p201
ssS'3'
p202
(dp203
g5
S'--'
p204
sg7
S'--'
p205
sg9
g14
sg11
S'--'
p206
sg13
g14
sg15
S'Charles Johnson'
p207
sg17
S'2015'
p208
sg19
g202
sg21
S'--'
p209
sg23
S'09/27'
p210
sg25
S'9.0'
p211
sg27
S'--'
p212
sg29
S'--'
p213
sg31
S'W31-14'
p214
sg33
S'9'
p215
sg35
g14
sg37
S'SD'
p216
sg39
g215
sg41
g10
sg43
S'--'
p217
ssg198
(dp218
g5
S'--'
p219
sg7
S'--'
p220
sg9
g14
sg11
S'--'
p221
sg13
g14
sg15
S'Charles Johnson'
p222
sg17
S'2015'
p223
sg19
g198
sg21
S'--'
p224
sg23
S'09/20'
p225
sg25
S'3.3'
p226
sg27
S'--'
p227
sg29
S'--'
p228
sg31
S'W26-16'
p229
sg33
S'10'
p230
sg35
g202
sg37
S'DET'
p231
sg39
S'4'
p232
sg41
g10
sg43
S'--'
p233
ssS'5'
p234
(dp235
g5
S''
p236
sg7
g236
sg9
g236
sg11
g236
sg13
g236
sg15
S'Charles Johnson'
p237
sg17
S'2015'
p238
sg19
g234
sg21
g236
sg23
S'Bye'
p239
sg25
g236
sg27
g236
sg29
g236
sg31
g236
sg33
g236
sg35
g236
sg37
g236
sg39
g236
sg41
g236
sg43
g236
ssg232
(dp240
g5
S'--'
p241
sg7
S'--'
p242
sg9
g10
sg11
S'--'
p243
sg13
g10
sg15
S'Charles Johnson'
p244
sg17
S'2015'
p245
sg19
g232
sg21
S'--'
p246
sg23
S'10/04'
p247
sg25
S'--'
p248
sg27
S'--'
p249
sg29
S'--'
p250
sg31
S'L20-23'
p251
sg33
S'--'
p252
sg35
S'--'
p253
sg37
S'@DEN'
p254
sg39
S'--'
p255
sg41
S'--'
p256
sg43
S'--'
p257
ssS'7'
p258
(dp259
g5
S'--'
p260
sg7
S'--'
p261
sg9
g10
sg11
S'--'
p262
sg13
g14
sg15
S'Charles Johnson'
p263
sg17
S'2015'
p264
sg19
g258
sg21
S'--'
p265
sg23
S'10/25'
p266
sg25
S'21.0'
p267
sg27
S'--'
p268
sg29
S'--'
p269
sg31
S'W28-19'
p270
sg33
S'21'
p271
sg35
g14
sg37
S'@DET'
p272
sg39
S'21'
p273
sg41
g10
sg43
S'--'
p274
ssS'6'
p275
(dp276
g5
S'--'
p277
sg7
S'--'
p278
sg9
g10
sg11
S'--'
p279
sg13
g10
sg15
S'Charles Johnson'
p280
sg17
S'2015'
p281
sg19
g275
sg21
S'--'
p282
sg23
S'10/18'
p283
sg25
S'--'
p284
sg27
S'--'
p285
sg29
S'--'
p286
sg31
S'W16-10'
p287
sg33
S'--'
p288
sg35
S'--'
p289
sg37
S'KC'
p290
sg39
S'--'
p291
sg41
S'--'
p292
sg43
S'--'
p293
ssg215
(dp294
g5
S'--'
p295
sg7
S'--'
p296
sg9
g10
sg11
S'--'
p297
sg13
g14
sg15
S'Charles Johnson'
p298
sg17
S'2015'
p299
sg19
g215
sg21
S'--'
p300
sg23
S'11/08'
p301
sg25
S'25.0'
p302
sg27
S'--'
p303
sg29
S'--'
p304
sg31
S'W21-18'
p305
sg33
S'25'
p306
sg35
g14
sg37
S'STL'
p307
sg39
S'25'
p308
sg41
g10
sg43
S'--'
p309
ssS'8'
p310
(dp311
g5
S'--'
p312
sg7
S'--'
p313
sg9
g10
sg11
S'--'
p314
sg13
g14
sg15
S'Charles Johnson'
p315
sg17
S'2015'
p316
sg19
g310
sg21
S'--'
p317
sg23
S'11/01'
p318
sg25
S'35.0'
p319
sg27
S'--'
p320
sg29
S'--'
p321
sg31
S'W23-20'
p322
sg33
S'35'
p323
sg35
g14
sg37
S'@CHI'
p324
sg39
S'35'
p325
sg41
g10
sg43
S'--'
p326
sssS'2014'
p327
(dp328
g3
(dp329
g5
S'--'
p330
sg7
S'--'
p331
sg9
g10
sg11
S'--'
p332
sg13
g14
sg15
S'Charles Johnson'
p333
sg17
S'2014'
p334
sg19
S'11'
p335
sg21
S'--'
p336
sg23
S'11/16'
p337
sg25
S'14.5'
p338
sg27
S'--'
p339
sg29
S'--'
p340
sg31
S'L13-21'
p341
sg33
S'87'
p342
sg35
g275
sg37
S'@CHI'
p343
sg39
S'24'
p344
sg41
g10
sg43
S'--'
p345
ssg45
(dp346
g5
g236
sg7
g236
sg9
g236
sg11
g236
sg13
g236
sg15
S'Charles Johnson'
p347
sg17
S'2014'
p348
sg19
S'10'
p349
sg21
g236
sg23
S'Bye'
p350
sg25
g236
sg27
g236
sg29
g236
sg31
g236
sg33
g236
sg35
g236
sg37
g236
sg39
g236
sg41
g236
sg43
g236
ssg65
(dp351
g5
S'--'
p352
sg7
S'--'
p353
sg9
g14
sg11
S'--'
p354
sg13
g14
sg15
S'Charles Johnson'
p355
sg17
S'2014'
p356
sg19
S'13'
p357
sg21
S'--'
p358
sg23
S'11/30'
p359
sg25
S'20.5'
p360
sg27
S'--'
p361
sg29
S'--'
p362
sg31
S'W31-13'
p363
sg33
S'41'
p364
sg35
g198
sg37
S'CAR'
p365
sg39
S'24'
p366
sg41
g10
sg43
S'--'
p367
ssg85
(dp368
g5
S'--'
p369
sg7
S'--'
p370
sg9
g14
sg11
S'--'
p371
sg13
g14
sg15
S'Charles Johnson'
p372
sg17
S'2014'
p373
sg19
S'12'
p374
sg21
S'--'
p375
sg23
S'11/23'
p376
sg25
S'17.3'
p377
sg27
S'--'
p378
sg29
S'--'
p379
sg31
S'L21-24'
p380
sg33
S'52'
p381
sg35
g202
sg37
S'GB'
p382
sg39
S'22T'
p383
sg41
g14
sg43
S'--'
p384
ssg105
(dp385
g5
S'--'
p386
sg7
S'--'
p387
sg9
g14
sg11
S'--'
p388
sg13
g14
sg15
S'Charles Johnson'
p389
sg17
S'2014'
p390
sg19
S'15'
p391
sg21
S'--'
p392
sg23
S'12/14'
p393
sg25
S'14.4'
p394
sg27
S'--'
p395
sg29
S'--'
p396
sg31
S'L14-16'
p397
sg33
S'72'
p398
sg35
g234
sg37
S'@DET'
p399
sg39
S'40'
p400
sg41
g10
sg43
S'--'
p401
ssg125
(dp402
g5
S'--'
p403
sg7
S'--'
p404
sg9
g14
sg11
g10
sg13
g14
sg15
S'Charles Johnson'
p405
sg17
S'2014'
p406
sg19
S'14'
p407
sg21
S'--'
p408
sg23
S'12/07'
p409
sg25
S'25.8'
p410
sg27
g14
sg29
S'--'
p411
sg31
S'W30-24'
p412
sg33
S'103'
p413
sg35
g232
sg37
S'NYJ'
p414
sg39
S'56T'
p415
sg41
g14
sg43
S'--'
p416
ssg145
(dp417
g5
g10
sg7
S'-11'
p418
sg9
g14
sg11
S'--'
p419
sg13
g14
sg15
S'Charles Johnson'
p420
sg17
S'2014'
p421
sg19
S'17'
p422
sg21
S'-11.0'
p423
sg23
S'12/28'
p424
sg25
S'11.0'
p425
sg27
S'--'
p426
sg29
g14
sg31
S'W13-9'
p427
sg33
S'22'
p428
sg35
g198
sg37
S'CHI'
p429
sg39
S'18'
p430
sg41
g10
sg43
S'-11'
p431
ssg165
(dp432
g5
S'--'
p433
sg7
S'--'
p434
sg9
g14
sg11
S'--'
p435
sg13
g14
sg15
S'Charles Johnson'
p436
sg17
S'2014'
p437
sg19
S'16'
p438
sg21
S'--'
p439
sg23
S'12/21'
p440
sg25
S'12.7'
p441
sg27
S'--'
p442
sg29
S'--'
p443
sg31
S'L35-37'
p444
sg33
S'38'
p445
sg35
g202
sg37
S'@MIA'
p446
sg39
S'25'
p447
sg41
g10
sg43
S'--'
p448
ssg202
(dp449
g5
S'--'
p450
sg7
S'--'
p451
sg9
g10
sg11
S'--'
p452
sg13
g10
sg15
S'Charles Johnson'
p453
sg17
S'2014'
p454
sg19
g202
sg21
S'--'
p455
sg23
S'09/21'
p456
sg25
S'--'
p457
sg27
S'--'
p458
sg29
S'--'
p459
sg31
S'L9-20'
p460
sg33
S'--'
p461
sg35
S'--'
p462
sg37
S'@NO'
p463
sg39
S'--'
p464
sg41
S'--'
p465
sg43
S'--'
p466
ssg234
(dp467
g5
S'--'
p468
sg7
S'--'
p469
sg9
g10
sg11
S'--'
p470
sg13
g14
sg15
S'Charles Johnson'
p471
sg17
S'2014'
p472
sg19
g234
sg21
S'--'
p473
sg23
S'10/02'
p474
sg25
S'7.0'
p475
sg27
S'--'
p476
sg29
S'--'
p477
sg31
S'L10-42'
p478
sg33
g258
sg35
g14
sg37
S'@GB'
p479
sg39
g258
sg41
g10
sg43
S'--'
p480
ssg232
(dp481
g5
S'--'
p482
sg7
S'--'
p483
sg9
g10
sg11
S'--'
p484
sg13
g10
sg15
S'Charles Johnson'
p485
sg17
S'2014'
p486
sg19
g232
sg21
S'--'
p487
sg23
S'09/28'
p488
sg25
S'--'
p489
sg27
S'--'
p490
sg29
S'--'
p491
sg31
S'W41-28'
p492
sg33
S'--'
p493
sg35
S'--'
p494
sg37
S'ATL'
p495
sg39
S'--'
p496
sg41
S'--'
p497
sg43
S'--'
p498
ssg258
(dp499
g5
S'--'
p500
sg7
S'--'
p501
sg9
g10
sg11
S'--'
p502
sg13
g14
sg15
S'Charles Johnson'
p503
sg17
S'2014'
p504
sg19
g258
sg21
S'--'
p505
sg23
S'10/19'
p506
sg25
S'--'
p507
sg27
S'--'
p508
sg29
S'--'
p509
sg31
S'L16-17'
p510
sg33
S'--'
p511
sg35
S'--'
p512
sg37
S'@BUF'
p513
sg39
S'--'
p514
sg41
S'--'
p515
sg43
S'--'
p516
ssg275
(dp517
g5
S'--'
p518
sg7
S'--'
p519
sg9
g10
sg11
S'--'
p520
sg13
g14
sg15
S'Charles Johnson'
p521
sg17
S'2014'
p522
sg19
g275
sg21
S'--'
p523
sg23
S'10/12'
p524
sg25
S'11.0'
p525
sg27
S'--'
p526
sg29
S'--'
p527
sg31
S'L3-17'
p528
sg33
S'22'
p529
sg35
g198
sg37
S'DET'
p530
sg39
S'15'
p531
sg41
g10
sg43
S'--'
p532
ssg215
(dp533
g5
S'--'
p534
sg7
S'--'
p535
sg9
g10
sg11
S'--'
p536
sg13
g14
sg15
S'Charles Johnson'
p537
sg17
S'2014'
p538
sg19
g215
sg21
S'--'
p539
sg23
S'11/02'
p540
sg25
S'13.0'
p541
sg27
S'--'
p542
sg29
S'--'
p543
sg31
S'W29-26'
p544
sg33
S'13'
p545
sg35
g14
sg37
S'WAS'
p546
sg39
S'13'
p547
sg41
g10
sg43
S'--'
p548
ssg310
(dp549
g5
S'--'
p550
sg7
S'--'
p551
sg9
g10
sg11
S'--'
p552
sg13
g14
sg15
S'Charles Johnson'
p553
sg17
S'2014'
p554
sg19
g310
sg21
S'--'
p555
sg23
S'10/26'
p556
sg25
S'9.0'
p557
sg27
S'--'
p558
sg29
S'--'
p559
sg31
S'W19-13'
p560
sg33
S'18'
p561
sg35
g198
sg37
S'@TB'
p562
sg39
S'12'
p563
sg41
g10
sg43
S'--'
p564
sssS'2013'
p565
(dp566
g275
(dp567
g5
S'--'
p568
sg7
S'--'
p569
sg9
g10
sg11
S'--'
p570
sg13
g10
sg15
S'Charles Johnson'
p571
sg17
S'2013'
p572
sg19
g275
sg21
S'--'
p573
sg23
S'10/13'
p574
sg25
S'--'
p575
sg27
S'--'
p576
sg29
S'--'
p577
sg31
S'L17-31'
p578
sg33
S'--'
p579
sg35
S'--'
p580
sg37
S'DET'
p581
sg39
S'--'
p582
sg41
S'--'
p583
sg43
S'--'
p584
sss.