(dp0
S'2015'
p1
(dp2
S'10'
p3
(dp4
S'RushTD'
p5
S'--'
p6
sS'RushYds'
p7
S'--'
p8
sS'GS'
p9
S'0'
p10
sS'Lost'
p11
S'--'
p12
sS'G'
p13
S'1'
p14
sS'Player'
p15
S'Chris Matthews'
p16
sS'Year'
p17
S'2015'
p18
sS'WK'
p19
S'10'
p20
sS'RushAvg'
p21
S'--'
p22
sS'Game Date'
p23
S'11/15'
p24
sS'RecAvg'
p25
S'--'
p26
sS'FUM'
p27
S'--'
p28
sS'RushAtt'
p29
S'--'
p30
sS'Result'
p31
S'L32-39'
p32
sS'RecYds'
p33
g10
sS'Rec'
p34
g10
sS'Opp'
p35
S'ARI'
p36
sS'RecLng'
p37
S'--'
p38
sS'RecTD'
p39
g10
sS'RushLng'
p40
S'--'
p41
ssS'15'
p42
(dp43
g5
S'--'
p44
sg7
S'--'
p45
sg9
g10
sg11
S'--'
p46
sg13
g14
sg15
S'Chris Matthews'
p47
sg17
S'2015'
p48
sg19
S'15'
p49
sg21
S'--'
p50
sg23
S'12/20'
p51
sg25
S'6.0'
p52
sg27
S'--'
p53
sg29
S'--'
p54
sg31
S'L14-34'
p55
sg33
S'6'
p56
sg34
g14
sg35
S'KC'
p57
sg37
g56
sg39
g10
sg40
S'--'
p58
ssS'14'
p59
(dp60
g5
S'--'
p61
sg7
S'--'
p62
sg9
g10
sg11
S'--'
p63
sg13
g14
sg15
S'Chris Matthews'
p64
sg17
S'2015'
p65
sg19
S'14'
p66
sg21
S'--'
p67
sg23
S'12/13'
p68
sg25
S'21.0'
p69
sg27
S'--'
p70
sg29
S'--'
p71
sg31
S'L6-35'
p72
sg33
S'21'
p73
sg34
g14
sg35
S'SEA'
p74
sg37
S'21'
p75
sg39
g10
sg40
S'--'
p76
ssS'17'
p77
(dp78
g5
S'--'
p79
sg7
S'--'
p80
sg9
g10
sg11
S'--'
p81
sg13
g14
sg15
S'Chris Matthews'
p82
sg17
S'2015'
p83
sg19
S'17'
p84
sg21
S'--'
p85
sg23
S'01/03'
p86
sg25
S'12.8'
p87
sg27
S'--'
p88
sg29
S'--'
p89
sg31
S'L16-24'
p90
sg33
S'51'
p91
sg34
S'4'
p92
sg35
S'@CIN'
p93
sg37
S'21'
p94
sg39
g10
sg40
S'--'
p95
ssS'16'
p96
(dp97
g5
S'--'
p98
sg7
S'--'
p99
sg9
g10
sg11
S'--'
p100
sg13
g14
sg15
S'Chris Matthews'
p101
sg17
S'2015'
p102
sg19
S'16'
p103
sg21
S'--'
p104
sg23
S'12/27'
p105
sg25
S'6.3'
p106
sg27
S'--'
p107
sg29
S'--'
p108
sg31
S'W20-17'
p109
sg33
S'19'
p110
sg34
S'3'
p111
sg35
S'PIT'
p112
sg37
S'8T'
p113
sg39
g14
sg40
S'--'
p114
ssg14
(dp115
g5
S'--'
p116
sg7
S'--'
p117
sg9
g10
sg11
S'--'
p118
sg13
g14
sg15
S'Chris Matthews'
p119
sg17
S'2015'
p120
sg19
g14
sg21
S'--'
p121
sg23
S'09/13'
p122
sg25
S'8.0'
p123
sg27
S'--'
p124
sg29
S'--'
p125
sg31
S'L31-34'
p126
sg33
S'8'
p127
sg34
g14
sg35
S'@STL'
p128
sg37
g127
sg39
g10
sg40
S'--'
p129
ssg111
(dp130
g5
S'--'
p131
sg7
S'--'
p132
sg9
g10
sg11
S'--'
p133
sg13
g14
sg15
S'Chris Matthews'
p134
sg17
S'2015'
p135
sg19
g111
sg21
S'--'
p136
sg23
S'09/27'
p137
sg25
S'--'
p138
sg27
S'--'
p139
sg29
S'--'
p140
sg31
S'W26-0'
p141
sg33
g10
sg34
g10
sg35
S'CHI'
p142
sg37
S'--'
p143
sg39
g10
sg40
S'--'
p144
ssS'2'
p145
(dp146
g5
S'--'
p147
sg7
S'--'
p148
sg9
g10
sg11
S'--'
p149
sg13
g14
sg15
S'Chris Matthews'
p150
sg17
S'2015'
p151
sg19
g145
sg21
S'--'
p152
sg23
S'09/20'
p153
sg25
S'13.0'
p154
sg27
S'--'
p155
sg29
S'--'
p156
sg31
S'L17-27'
p157
sg33
S'13'
p158
sg34
g14
sg35
S'@GB'
p159
sg37
S'13'
p160
sg39
g10
sg40
S'--'
p161
ssS'5'
p162
(dp163
g5
S'--'
p164
sg7
S'--'
p165
sg9
g10
sg11
S'--'
p166
sg13
g14
sg15
S'Chris Matthews'
p167
sg17
S'2015'
p168
sg19
g162
sg21
S'--'
p169
sg23
S'10/11'
p170
sg25
S'--'
p171
sg27
S'--'
p172
sg29
S'--'
p173
sg31
S'L24-27'
p174
sg33
S'--'
p175
sg34
S'--'
p176
sg35
S'@CIN'
p177
sg37
S'--'
p178
sg39
S'--'
p179
sg40
S'--'
p180
ssg92
(dp181
g5
S'--'
p182
sg7
S'--'
p183
sg9
g10
sg11
S'--'
p184
sg13
g14
sg15
S'Chris Matthews'
p185
sg17
S'2015'
p186
sg19
g92
sg21
S'--'
p187
sg23
S'10/05'
p188
sg25
S'21.0'
p189
sg27
S'--'
p190
sg29
S'--'
p191
sg31
S'W13-10'
p192
sg33
S'21'
p193
sg34
g14
sg35
S'DET'
p194
sg37
S'21'
p195
sg39
g10
sg40
S'--'
p196
ssS'7'
p197
(dp198
g5
S'--'
p199
sg7
S'--'
p200
sg9
g10
sg11
S'--'
p201
sg13
g14
sg15
S'Chris Matthews'
p202
sg17
S'2015'
p203
sg19
g197
sg21
S'--'
p204
sg23
S'10/22'
p205
sg25
S'--'
p206
sg27
S'--'
p207
sg29
S'--'
p208
sg31
S'W20-3'
p209
sg33
S'--'
p210
sg34
S'--'
p211
sg35
S'@SF'
p212
sg37
S'--'
p213
sg39
S'--'
p214
sg40
S'--'
p215
ssg56
(dp216
g5
S'--'
p217
sg7
S'--'
p218
sg9
g10
sg11
S'--'
p219
sg13
g14
sg15
S'Chris Matthews'
p220
sg17
S'2015'
p221
sg19
g56
sg21
S'--'
p222
sg23
S'10/18'
p223
sg25
S'12.0'
p224
sg27
S'--'
p225
sg29
S'--'
p226
sg31
S'L23-27'
p227
sg33
S'12'
p228
sg34
g14
sg35
S'CAR'
p229
sg37
S'12'
p230
sg39
g10
sg40
S'--'
p231
ssS'9'
p232
(dp233
g5
S''
p234
sg7
g234
sg9
g234
sg11
g234
sg13
g234
sg15
S'Chris Matthews'
p235
sg17
S'2015'
p236
sg19
g232
sg21
g234
sg23
S'Bye'
p237
sg25
g234
sg27
g234
sg29
g234
sg31
g234
sg33
g234
sg34
g234
sg35
g234
sg37
g234
sg39
g234
sg40
g234
ssg127
(dp238
g5
S'--'
p239
sg7
S'--'
p240
sg9
g10
sg11
S'--'
p241
sg13
g14
sg15
S'Chris Matthews'
p242
sg17
S'2015'
p243
sg19
g127
sg21
S'--'
p244
sg23
S'11/01'
p245
sg25
S'--'
p246
sg27
S'--'
p247
sg29
S'--'
p248
sg31
S'W13-12'
p249
sg33
g10
sg34
g10
sg35
S'@DAL'
p250
sg37
S'--'
p251
sg39
g10
sg40
S'--'
p252
sssS'2014'
p253
(dp254
g42
(dp255
g5
S'--'
p256
sg7
S'--'
p257
sg9
g10
sg11
S'--'
p258
sg13
g14
sg15
S'Chris Matthews'
p259
sg17
S'2014'
p260
sg19
S'15'
p261
sg21
S'--'
p262
sg23
S'12/14'
p263
sg25
S'--'
p264
sg27
S'--'
p265
sg29
S'--'
p266
sg31
S'W17-7'
p267
sg33
S'--'
p268
sg34
S'--'
p269
sg35
S'SF'
p270
sg37
S'--'
p271
sg39
S'--'
p272
sg40
S'--'
p273
ssg59
(dp274
g5
S'--'
p275
sg7
S'--'
p276
sg9
g10
sg11
S'--'
p277
sg13
g14
sg15
S'Chris Matthews'
p278
sg17
S'2014'
p279
sg19
S'14'
p280
sg21
S'--'
p281
sg23
S'12/07'
p282
sg25
S'--'
p283
sg27
S'--'
p284
sg29
S'--'
p285
sg31
S'W24-14'
p286
sg33
S'--'
p287
sg34
S'--'
p288
sg35
S'@PHI'
p289
sg37
S'--'
p290
sg39
S'--'
p291
sg40
S'--'
p292
ssg77
(dp293
g5
S'--'
p294
sg7
S'--'
p295
sg9
g10
sg11
S'--'
p296
sg13
g14
sg15
S'Chris Matthews'
p297
sg17
S'2014'
p298
sg19
S'17'
p299
sg21
S'--'
p300
sg23
S'12/28'
p301
sg25
S'--'
p302
sg27
S'--'
p303
sg29
S'--'
p304
sg31
S'W20-6'
p305
sg33
S'--'
p306
sg34
S'--'
p307
sg35
S'STL'
p308
sg37
S'--'
p309
sg39
S'--'
p310
sg40
S'--'
p311
ssg96
(dp312
g5
S'--'
p313
sg7
S'--'
p314
sg9
g10
sg11
S'--'
p315
sg13
g10
sg15
S'Chris Matthews'
p316
sg17
S'2014'
p317
sg19
S'16'
p318
sg21
S'--'
p319
sg23
S'12/21'
p320
sg25
S'--'
p321
sg27
S'--'
p322
sg29
S'--'
p323
sg31
S'W35-6'
p324
sg33
S'--'
p325
sg34
S'--'
p326
sg35
S'@ARI'
p327
sg37
S'--'
p328
sg39
S'--'
p329
sg40
S'--'
p330
sss.