(dp0
S'2015'
p1
(dp2
S'11'
p3
(dp4
S'RushTD'
p5
S'--'
p6
sS'RushYds'
p7
S'--'
p8
sS'GS'
p9
S'0'
p10
sS'Lost'
p11
S'--'
p12
sS'G'
p13
S'1'
p14
sS'Player'
p15
S'Chris Givens'
p16
sS'Year'
p17
S'2015'
p18
sS'WK'
p19
S'11'
p20
sS'RushAvg'
p21
S'--'
p22
sS'Game Date'
p23
S'11/22'
p24
sS'RecAvg'
p25
S'12.5'
p26
sS'FUM'
p27
S'--'
p28
sS'RushAtt'
p29
S'--'
p30
sS'Result'
p31
S'W16-13'
p32
sS'RecYds'
p33
S'25'
p34
sS'Rec'
p35
S'2'
p36
sS'Opp'
p37
S'STL'
p38
sS'RecLng'
p39
S'20'
p40
sS'RecTD'
p41
g10
sS'RushLng'
p42
S'--'
p43
ssS'10'
p44
(dp45
g5
S'--'
p46
sg7
S'--'
p47
sg9
g14
sg11
S'--'
p48
sg13
g14
sg15
S'Chris Givens'
p49
sg17
S'2015'
p50
sg19
S'10'
p51
sg21
S'--'
p52
sg23
S'11/15'
p53
sg25
S'9.3'
p54
sg27
S'--'
p55
sg29
S'--'
p56
sg31
S'L20-22'
p57
sg33
S'37'
p58
sg35
S'4'
p59
sg37
S'JAC'
p60
sg39
S'14T'
p61
sg41
g14
sg42
S'--'
p62
ssS'13'
p63
(dp64
g5
S'--'
p65
sg7
S'--'
p66
sg9
g14
sg11
S'--'
p67
sg13
g14
sg15
S'Chris Givens'
p68
sg17
S'2015'
p69
sg19
S'13'
p70
sg21
S'--'
p71
sg23
S'12/06'
p72
sg25
S'22.7'
p73
sg27
S'--'
p74
sg29
S'--'
p75
sg31
S'L13-15'
p76
sg33
S'68'
p77
sg35
S'3'
p78
sg37
S'@MIA'
p79
sg39
S'36'
p80
sg41
g10
sg42
S'--'
p81
ssS'12'
p82
(dp83
g5
g10
sg7
g36
sg9
g14
sg11
S'--'
p84
sg13
g14
sg15
S'Chris Givens'
p85
sg17
S'2015'
p86
sg19
S'12'
p87
sg21
S'2.0'
p88
sg23
S'11/30'
p89
sg25
S'48.0'
p90
sg27
S'--'
p91
sg29
g14
sg31
S'W33-27'
p92
sg33
S'48'
p93
sg35
g14
sg37
S'@CLE'
p94
sg39
S'48'
p95
sg41
g10
sg42
g36
ssS'15'
p96
(dp97
g5
g10
sg7
S'-2'
p98
sg9
g14
sg11
S'--'
p99
sg13
g14
sg15
S'Chris Givens'
p100
sg17
S'2015'
p101
sg19
S'15'
p102
sg21
S'-2.0'
p103
sg23
S'12/20'
p104
sg25
S'17.0'
p105
sg27
S'--'
p106
sg29
g14
sg31
S'L14-34'
p107
sg33
S'17'
p108
sg35
g14
sg37
S'KC'
p109
sg39
S'17'
p110
sg41
g10
sg42
S'-2'
p111
ssS'14'
p112
(dp113
g5
S'--'
p114
sg7
S'--'
p115
sg9
g14
sg11
S'--'
p116
sg13
g14
sg15
S'Chris Givens'
p117
sg17
S'2015'
p118
sg19
S'14'
p119
sg21
S'--'
p120
sg23
S'12/13'
p121
sg25
S'--'
p122
sg27
S'--'
p123
sg29
S'--'
p124
sg31
S'L6-35'
p125
sg33
g10
sg35
g10
sg37
S'SEA'
p126
sg39
S'--'
p127
sg41
g10
sg42
S'--'
p128
ssS'17'
p129
(dp130
g5
S'--'
p131
sg7
S'--'
p132
sg9
g14
sg11
S'--'
p133
sg13
g14
sg15
S'Chris Givens'
p134
sg17
S'2015'
p135
sg19
S'17'
p136
sg21
S'--'
p137
sg23
S'01/03'
p138
sg25
S'--'
p139
sg27
S'--'
p140
sg29
S'--'
p141
sg31
S'L16-24'
p142
sg33
g10
sg35
g10
sg37
S'@CIN'
p143
sg39
S'--'
p144
sg41
g10
sg42
S'--'
p145
ssS'16'
p146
(dp147
g5
S'--'
p148
sg7
S'--'
p149
sg9
g10
sg11
S'--'
p150
sg13
g14
sg15
S'Chris Givens'
p151
sg17
S'2015'
p152
sg19
S'16'
p153
sg21
S'--'
p154
sg23
S'12/27'
p155
sg25
S'22.5'
p156
sg27
S'--'
p157
sg29
S'--'
p158
sg31
S'W20-17'
p159
sg33
S'45'
p160
sg35
g36
sg37
S'PIT'
p161
sg39
S'39'
p162
sg41
g10
sg42
S'--'
p163
ssg14
(dp164
g5
S'--'
p165
sg7
S'--'
p166
sg9
g10
sg11
S'--'
p167
sg13
g14
sg15
S'Chris Givens'
p168
sg17
S'2015'
p169
sg19
g14
sg21
S'--'
p170
sg23
S'09/13'
p171
sg25
S'--'
p172
sg27
S'--'
p173
sg29
S'--'
p174
sg31
S'W34-31'
p175
sg33
S'--'
p176
sg35
S'--'
p177
sg37
S'SEA'
p178
sg39
S'--'
p179
sg41
S'--'
p180
sg42
S'--'
p181
ssg78
(dp182
g5
g10
sg7
S'24'
p183
sg9
g10
sg11
S'--'
p184
sg13
g14
sg15
S'Chris Givens'
p185
sg17
S'2015'
p186
sg19
g78
sg21
S'24.0'
p187
sg23
S'09/27'
p188
sg25
S'--'
p189
sg27
S'--'
p190
sg29
g14
sg31
S'L6-12'
p191
sg33
S'--'
p192
sg35
S'--'
p193
sg37
S'PIT'
p194
sg39
S'--'
p195
sg41
S'--'
p196
sg42
S'24'
p197
ssg36
(dp198
g5
S'--'
p199
sg7
S'--'
p200
sg9
g10
sg11
S'--'
p201
sg13
g14
sg15
S'Chris Givens'
p202
sg17
S'2015'
p203
sg19
g36
sg21
S'--'
p204
sg23
S'09/20'
p205
sg25
S'7.0'
p206
sg27
S'--'
p207
sg29
S'--'
p208
sg31
S'L10-24'
p209
sg33
S'7'
p210
sg35
g14
sg37
S'@WAS'
p211
sg39
g210
sg41
g10
sg42
S'--'
p212
ssS'5'
p213
(dp214
g5
S'--'
p215
sg7
S'--'
p216
sg9
g10
sg11
S'--'
p217
sg13
g14
sg15
S'Chris Givens'
p218
sg17
S'2015'
p219
sg19
g213
sg21
S'--'
p220
sg23
S'10/11'
p221
sg25
S'--'
p222
sg27
S'--'
p223
sg29
S'--'
p224
sg31
S'L30-33'
p225
sg33
g10
sg35
g10
sg37
S'CLE'
p226
sg39
S'--'
p227
sg41
g10
sg42
S'--'
p228
ssg210
(dp229
g5
g10
sg7
S'-6'
p230
sg9
g10
sg11
S'--'
p231
sg13
g14
sg15
S'Chris Givens'
p232
sg17
S'2015'
p233
sg19
g210
sg21
S'-6.0'
p234
sg23
S'10/26'
p235
sg25
S'31.0'
p236
sg27
S'--'
p237
sg29
g14
sg31
S'L18-26'
p238
sg33
S'31'
p239
sg35
g14
sg37
S'@ARI'
p240
sg39
S'31'
p241
sg41
g10
sg42
S'-6'
p242
ssS'6'
p243
(dp244
g5
S'--'
p245
sg7
S'--'
p246
sg9
g10
sg11
S'--'
p247
sg13
g14
sg15
S'Chris Givens'
p248
sg17
S'2015'
p249
sg19
g243
sg21
S'--'
p250
sg23
S'10/18'
p251
sg25
S'9.0'
p252
sg27
S'--'
p253
sg29
S'--'
p254
sg31
S'L20-25'
p255
sg33
S'18'
p256
sg35
g36
sg37
S'@SF'
p257
sg39
S'11'
p258
sg41
g10
sg42
S'--'
p259
ssS'9'
p260
(dp261
g5
S''
p262
sg7
g262
sg9
g262
sg11
g262
sg13
g262
sg15
S'Chris Givens'
p263
sg17
S'2015'
p264
sg19
g260
sg21
g262
sg23
S'Bye'
p265
sg25
g262
sg27
g262
sg29
g262
sg31
g262
sg33
g262
sg35
g262
sg37
g262
sg39
g262
sg41
g262
sg42
g262
ssS'8'
p266
(dp267
g5
S'--'
p268
sg7
S'--'
p269
sg9
g10
sg11
S'--'
p270
sg13
g14
sg15
S'Chris Givens'
p271
sg17
S'2015'
p272
sg19
g266
sg21
S'--'
p273
sg23
S'11/01'
p274
sg25
S'19.0'
p275
sg27
S'--'
p276
sg29
S'--'
p277
sg31
S'W29-26'
p278
sg33
S'57'
p279
sg35
g78
sg37
S'SD'
p280
sg39
S'39'
p281
sg41
g10
sg42
S'--'
p282
sssS'2014'
p283
(dp284
g3
(dp285
g5
S'--'
p286
sg7
S'--'
p287
sg9
g10
sg11
S'--'
p288
sg13
g14
sg15
S'Chris Givens'
p289
sg17
S'2014'
p290
sg19
S'11'
p291
sg21
S'--'
p292
sg23
S'11/16'
p293
sg25
S'--'
p294
sg27
S'--'
p295
sg29
S'--'
p296
sg31
S'W22-7'
p297
sg33
S'--'
p298
sg35
S'--'
p299
sg37
S'DEN'
p300
sg39
S'--'
p301
sg41
S'--'
p302
sg42
S'--'
p303
ssg44
(dp304
g5
S'--'
p305
sg7
S'--'
p306
sg9
g10
sg11
S'--'
p307
sg13
g14
sg15
S'Chris Givens'
p308
sg17
S'2014'
p309
sg19
S'10'
p310
sg21
S'--'
p311
sg23
S'11/09'
p312
sg25
S'1.0'
p313
sg27
S'--'
p314
sg29
S'--'
p315
sg31
S'L14-31'
p316
sg33
g36
sg35
g36
sg37
S'@ARI'
p317
sg39
g213
sg41
g10
sg42
S'--'
p318
ssg63
(dp319
g5
S'--'
p320
sg7
S'--'
p321
sg9
g10
sg11
S'--'
p322
sg13
g14
sg15
S'Chris Givens'
p323
sg17
S'2014'
p324
sg19
S'13'
p325
sg21
S'--'
p326
sg23
S'11/30'
p327
sg25
S'--'
p328
sg27
S'--'
p329
sg29
S'--'
p330
sg31
S'W52-0'
p331
sg33
S'--'
p332
sg35
S'--'
p333
sg37
S'OAK'
p334
sg39
S'--'
p335
sg41
S'--'
p336
sg42
S'--'
p337
ssg82
(dp338
g5
S'--'
p339
sg7
S'--'
p340
sg9
g10
sg11
S'--'
p341
sg13
g14
sg15
S'Chris Givens'
p342
sg17
S'2014'
p343
sg19
S'12'
p344
sg21
S'--'
p345
sg23
S'11/23'
p346
sg25
S'--'
p347
sg27
S'--'
p348
sg29
S'--'
p349
sg31
S'L24-27'
p350
sg33
S'--'
p351
sg35
S'--'
p352
sg37
S'@SD'
p353
sg39
S'--'
p354
sg41
S'--'
p355
sg42
S'--'
p356
ssg96
(dp357
g5
S'--'
p358
sg7
S'--'
p359
sg9
g10
sg11
S'--'
p360
sg13
g14
sg15
S'Chris Givens'
p361
sg17
S'2014'
p362
sg19
S'15'
p363
sg21
S'--'
p364
sg23
S'12/11'
p365
sg25
S'--'
p366
sg27
S'--'
p367
sg29
S'--'
p368
sg31
S'L6-12'
p369
sg33
g10
sg35
g10
sg37
S'ARI'
p370
sg39
S'--'
p371
sg41
g10
sg42
S'--'
p372
ssg112
(dp373
g5
S'--'
p374
sg7
S'--'
p375
sg9
g10
sg11
S'--'
p376
sg13
g14
sg15
S'Chris Givens'
p377
sg17
S'2014'
p378
sg19
S'14'
p379
sg21
S'--'
p380
sg23
S'12/07'
p381
sg25
S'--'
p382
sg27
S'--'
p383
sg29
S'--'
p384
sg31
S'W24-0'
p385
sg33
S'--'
p386
sg35
S'--'
p387
sg37
S'@WAS'
p388
sg39
S'--'
p389
sg41
S'--'
p390
sg42
S'--'
p391
ssg129
(dp392
g5
S'--'
p393
sg7
S'--'
p394
sg9
g10
sg11
S'--'
p395
sg13
g14
sg15
S'Chris Givens'
p396
sg17
S'2014'
p397
sg19
S'17'
p398
sg21
S'--'
p399
sg23
S'12/28'
p400
sg25
S'9.0'
p401
sg27
S'--'
p402
sg29
S'--'
p403
sg31
S'L6-20'
p404
sg33
S'18'
p405
sg35
g36
sg37
S'@SEA'
p406
sg39
S'12'
p407
sg41
g10
sg42
S'--'
p408
ssg146
(dp409
g5
S'--'
p410
sg7
S'--'
p411
sg9
g10
sg11
S'--'
p412
sg13
g14
sg15
S'Chris Givens'
p413
sg17
S'2014'
p414
sg19
S'16'
p415
sg21
S'--'
p416
sg23
S'12/21'
p417
sg25
S'47.0'
p418
sg27
S'--'
p419
sg29
S'--'
p420
sg31
S'L27-37'
p421
sg33
S'47'
p422
sg35
g14
sg37
S'NYG'
p423
sg39
S'47T'
p424
sg41
g14
sg42
S'--'
p425
ssg14
(dp426
g5
g10
sg7
g59
sg9
g10
sg11
S'--'
p427
sg13
g14
sg15
S'Chris Givens'
p428
sg17
S'2014'
p429
sg19
g14
sg21
S'4.0'
p430
sg23
S'09/07'
p431
sg25
S'15.0'
p432
sg27
S'--'
p433
sg29
g14
sg31
S'L6-34'
p434
sg33
S'30'
p435
sg35
g36
sg37
S'MIN'
p436
sg39
S'27'
p437
sg41
g10
sg42
g59
ssg78
(dp438
g5
S'--'
p439
sg7
S'--'
p440
sg9
g10
sg11
S'--'
p441
sg13
g14
sg15
S'Chris Givens'
p442
sg17
S'2014'
p443
sg19
g78
sg21
S'--'
p444
sg23
S'09/21'
p445
sg25
S'5.0'
p446
sg27
S'--'
p447
sg29
S'--'
p448
sg31
S'L31-34'
p449
sg33
g213
sg35
g14
sg37
S'DAL'
p450
sg39
g213
sg41
g10
sg42
S'--'
p451
ssg36
(dp452
g5
S'--'
p453
sg7
S'--'
p454
sg9
g10
sg11
S'--'
p455
sg13
g14
sg15
S'Chris Givens'
p456
sg17
S'2014'
p457
sg19
g36
sg21
S'--'
p458
sg23
S'09/14'
p459
sg25
S'15.0'
p460
sg27
S'--'
p461
sg29
S'--'
p462
sg31
S'W19-17'
p463
sg33
S'15'
p464
sg35
g14
sg37
S'@TB'
p465
sg39
S'15'
p466
sg41
g10
sg42
S'--'
p467
ssg213
(dp468
g5
S'--'
p469
sg7
S'--'
p470
sg9
g10
sg11
S'--'
p471
sg13
g10
sg15
S'Chris Givens'
p472
sg17
S'2014'
p473
sg19
g213
sg21
S'--'
p474
sg23
S'10/05'
p475
sg25
S'--'
p476
sg27
S'--'
p477
sg29
S'--'
p478
sg31
S'L28-34'
p479
sg33
S'--'
p480
sg35
S'--'
p481
sg37
S'@PHI'
p482
sg39
S'--'
p483
sg41
S'--'
p484
sg42
S'--'
p485
ssg59
(dp486
g5
g262
sg7
g262
sg9
g262
sg11
g262
sg13
g262
sg15
S'Chris Givens'
p487
sg17
S'2014'
p488
sg19
g59
sg21
g262
sg23
S'Bye'
p489
sg25
g262
sg27
g262
sg29
g262
sg31
g262
sg33
g262
sg35
g262
sg37
g262
sg39
g262
sg41
g262
sg42
g262
ssg210
(dp490
g5
S'--'
p491
sg7
S'--'
p492
sg9
g10
sg11
S'--'
p493
sg13
g14
sg15
S'Chris Givens'
p494
sg17
S'2014'
p495
sg19
g210
sg21
S'--'
p496
sg23
S'10/19'
p497
sg25
S'30.0'
p498
sg27
S'--'
p499
sg29
S'--'
p500
sg31
S'W28-26'
p501
sg33
S'30'
p502
sg35
g14
sg37
S'SEA'
p503
sg39
S'30'
p504
sg41
g10
sg42
S'--'
p505
ssg243
(dp506
g5
S'--'
p507
sg7
S'--'
p508
sg9
g10
sg11
S'--'
p509
sg13
g10
sg15
S'Chris Givens'
p510
sg17
S'2014'
p511
sg19
g243
sg21
S'--'
p512
sg23
S'10/13'
p513
sg25
S'--'
p514
sg27
S'--'
p515
sg29
S'--'
p516
sg31
S'L17-31'
p517
sg33
S'--'
p518
sg35
S'--'
p519
sg37
S'SF'
p520
sg39
S'--'
p521
sg41
S'--'
p522
sg42
S'--'
p523
ssg260
(dp524
g5
S'--'
p525
sg7
S'--'
p526
sg9
g10
sg11
S'--'
p527
sg13
g14
sg15
S'Chris Givens'
p528
sg17
S'2014'
p529
sg19
g260
sg21
S'--'
p530
sg23
S'11/02'
p531
sg25
S'--'
p532
sg27
S'--'
p533
sg29
S'--'
p534
sg31
S'W13-10'
p535
sg33
g10
sg35
g10
sg37
S'@SF'
p536
sg39
S'--'
p537
sg41
g10
sg42
S'--'
p538
ssg266
(dp539
g5
S'--'
p540
sg7
S'--'
p541
sg9
g10
sg11
S'--'
p542
sg13
g14
sg15
S'Chris Givens'
p543
sg17
S'2014'
p544
sg19
g266
sg21
S'--'
p545
sg23
S'10/26'
p546
sg25
S'12.0'
p547
sg27
S'--'
p548
sg29
S'--'
p549
sg31
S'L7-34'
p550
sg33
S'12'
p551
sg35
g14
sg37
S'@KC'
p552
sg39
S'12'
p553
sg41
g10
sg42
S'--'
p554
sssS'2013'
p555
(dp556
g3
(dp557
g5
g262
sg7
g262
sg9
g262
sg11
g262
sg13
g262
sg15
S'Chris Givens'
p558
sg17
S'2013'
p559
sg19
S'11'
p560
sg21
g262
sg23
S'Bye'
p561
sg25
g262
sg27
g262
sg29
g262
sg31
g262
sg33
g262
sg35
g262
sg37
g262
sg39
g262
sg41
g262
sg42
g262
ssg44
(dp562
g5
S'--'
p563
sg7
S'--'
p564
sg9
g14
sg11
S'--'
p565
sg13
g14
sg15
S'Chris Givens'
p566
sg17
S'2013'
p567
sg19
S'10'
p568
sg21
S'--'
p569
sg23
S'11/10'
p570
sg25
S'27.0'
p571
sg27
S'--'
p572
sg29
S'--'
p573
sg31
S'W38-8'
p574
sg33
S'54'
p575
sg35
g36
sg37
S'@IND'
p576
sg39
S'35'
p577
sg41
g10
sg42
S'--'
p578
ssg63
(dp579
g5
S'--'
p580
sg7
S'--'
p581
sg9
g10
sg11
S'--'
p582
sg13
g14
sg15
S'Chris Givens'
p583
sg17
S'2013'
p584
sg19
S'13'
p585
sg21
S'--'
p586
sg23
S'12/01'
p587
sg25
S'15.0'
p588
sg27
S'--'
p589
sg29
S'--'
p590
sg31
S'L13-23'
p591
sg33
S'30'
p592
sg35
g36
sg37
S'@SF'
p593
sg39
S'16'
p594
sg41
g10
sg42
S'--'
p595
ssg82
(dp596
g5
S'--'
p597
sg7
S'--'
p598
sg9
g14
sg11
S'--'
p599
sg13
g14
sg15
S'Chris Givens'
p600
sg17
S'2013'
p601
sg19
S'12'
p602
sg21
S'--'
p603
sg23
S'11/24'
p604
sg25
S'--'
p605
sg27
S'--'
p606
sg29
S'--'
p607
sg31
S'W42-21'
p608
sg33
g10
sg35
g10
sg37
S'CHI'
p609
sg39
S'--'
p610
sg41
g10
sg42
S'--'
p611
ssg96
(dp612
g5
S'--'
p613
sg7
S'--'
p614
sg9
g10
sg11
S'--'
p615
sg13
g14
sg15
S'Chris Givens'
p616
sg17
S'2013'
p617
sg19
S'15'
p618
sg21
S'--'
p619
sg23
S'12/15'
p620
sg25
S'31.0'
p621
sg27
S'--'
p622
sg29
S'--'
p623
sg31
S'W27-16'
p624
sg33
S'31'
p625
sg35
g14
sg37
S'NO'
p626
sg39
S'31'
p627
sg41
g10
sg42
S'--'
p628
ssg112
(dp629
g5
S'--'
p630
sg7
S'--'
p631
sg9
g14
sg11
S'--'
p632
sg13
g14
sg15
S'Chris Givens'
p633
sg17
S'2013'
p634
sg19
S'14'
p635
sg21
S'--'
p636
sg23
S'12/08'
p637
sg25
S'21.0'
p638
sg27
S'--'
p639
sg29
S'--'
p640
sg31
S'L10-30'
p641
sg33
S'21'
p642
sg35
g14
sg37
S'@ARI'
p643
sg39
S'21'
p644
sg41
g10
sg42
S'--'
p645
ssg129
(dp646
g5
g10
sg7
S'-4'
p647
sg9
g10
sg11
S'--'
p648
sg13
g14
sg15
S'Chris Givens'
p649
sg17
S'2013'
p650
sg19
S'17'
p651
sg21
S'-4.0'
p652
sg23
S'12/29'
p653
sg25
S'--'
p654
sg27
S'--'
p655
sg29
g14
sg31
S'L9-27'
p656
sg33
g10
sg35
g10
sg37
S'@SEA'
p657
sg39
S'--'
p658
sg41
g10
sg42
S'-4'
p659
ssg146
(dp660
g5
S'--'
p661
sg7
S'--'
p662
sg9
g14
sg11
S'--'
p663
sg13
g14
sg15
S'Chris Givens'
p664
sg17
S'2013'
p665
sg19
S'16'
p666
sg21
S'--'
p667
sg23
S'12/22'
p668
sg25
S'12.0'
p669
sg27
S'--'
p670
sg29
S'--'
p671
sg31
S'W23-13'
p672
sg33
S'24'
p673
sg35
g36
sg37
S'TB'
p674
sg39
S'21'
p675
sg41
g10
sg42
S'--'
p676
ssg14
(dp677
g5
S'--'
p678
sg7
S'--'
p679
sg9
g14
sg11
S'--'
p680
sg13
g14
sg15
S'Chris Givens'
p681
sg17
S'2013'
p682
sg19
g14
sg21
S'--'
p683
sg23
S'09/08'
p684
sg25
S'13.5'
p685
sg27
S'--'
p686
sg29
S'--'
p687
sg31
S'W27-24'
p688
sg33
S'27'
p689
sg35
g36
sg37
S'ARI'
p690
sg39
S'15'
p691
sg41
g10
sg42
S'--'
p692
ssg78
(dp693
g5
g10
sg7
S'-4'
p694
sg9
g14
sg11
g14
sg13
g14
sg15
S'Chris Givens'
p695
sg17
S'2013'
p696
sg19
g78
sg21
S'-4.0'
p697
sg23
S'09/22'
p698
sg25
S'27.0'
p699
sg27
g14
sg29
g14
sg31
S'L7-31'
p700
sg33
S'54'
p701
sg35
g36
sg37
S'@DAL'
p702
sg39
S'29'
p703
sg41
g10
sg42
S'-4'
p704
ssg36
(dp705
g5
S'--'
p706
sg7
S'--'
p707
sg9
g14
sg11
S'--'
p708
sg13
g14
sg15
S'Chris Givens'
p709
sg17
S'2013'
p710
sg19
g36
sg21
S'--'
p711
sg23
S'09/15'
p712
sg25
S'21.0'
p713
sg27
S'--'
p714
sg29
S'--'
p715
sg31
S'L24-31'
p716
sg33
S'105'
p717
sg35
g213
sg37
S'@ATL'
p718
sg39
S'47'
p719
sg41
g10
sg42
S'--'
p720
ssg213
(dp721
g5
S'--'
p722
sg7
S'--'
p723
sg9
g14
sg11
S'--'
p724
sg13
g14
sg15
S'Chris Givens'
p725
sg17
S'2013'
p726
sg19
g213
sg21
S'--'
p727
sg23
S'10/06'
p728
sg25
S'8.0'
p729
sg27
S'--'
p730
sg29
S'--'
p731
sg31
S'W34-20'
p732
sg33
S'16'
p733
sg35
g36
sg37
S'JAC'
p734
sg39
S'15'
p735
sg41
g10
sg42
S'--'
p736
ssg59
(dp737
g5
S'--'
p738
sg7
S'--'
p739
sg9
g14
sg11
S'--'
p740
sg13
g14
sg15
S'Chris Givens'
p741
sg17
S'2013'
p742
sg19
g59
sg21
S'--'
p743
sg23
S'09/26'
p744
sg25
S'12.3'
p745
sg27
S'--'
p746
sg29
S'--'
p747
sg31
S'L11-35'
p748
sg33
S'49'
p749
sg35
g59
sg37
S'SF'
p750
sg39
S'20'
p751
sg41
g10
sg42
S'--'
p752
ssg210
(dp753
g5
S'--'
p754
sg7
S'--'
p755
sg9
g14
sg11
S'--'
p756
sg13
g14
sg15
S'Chris Givens'
p757
sg17
S'2013'
p758
sg19
g210
sg21
S'--'
p759
sg23
S'10/20'
p760
sg25
S'24.0'
p761
sg27
S'--'
p762
sg29
S'--'
p763
sg31
S'L15-30'
p764
sg33
S'24'
p765
sg35
g14
sg37
S'@CAR'
p766
sg39
S'24'
p767
sg41
g10
sg42
S'--'
p768
ssg243
(dp769
g5
S'--'
p770
sg7
S'--'
p771
sg9
g14
sg11
S'--'
p772
sg13
g14
sg15
S'Chris Givens'
p773
sg17
S'2013'
p774
sg19
g243
sg21
S'--'
p775
sg23
S'10/13'
p776
sg25
S'10.0'
p777
sg27
S'--'
p778
sg29
S'--'
p779
sg31
S'W38-13'
p780
sg33
S'20'
p781
sg35
g36
sg37
S'@HOU'
p782
sg39
S'13'
p783
sg41
g10
sg42
S'--'
p784
ssg260
(dp785
g5
S'--'
p786
sg7
S'--'
p787
sg9
g14
sg11
S'--'
p788
sg13
g14
sg15
S'Chris Givens'
p789
sg17
S'2013'
p790
sg19
g260
sg21
S'--'
p791
sg23
S'11/03'
p792
sg25
S'13.8'
p793
sg27
S'--'
p794
sg29
S'--'
p795
sg31
S'L21-28'
p796
sg33
S'55'
p797
sg35
g59
sg37
S'TEN'
p798
sg39
S'25'
p799
sg41
g10
sg42
S'--'
p800
ssg266
(dp801
g5
g10
sg7
S'16'
p802
sg9
g14
sg11
S'--'
p803
sg13
g14
sg15
S'Chris Givens'
p804
sg17
S'2013'
p805
sg19
g266
sg21
S'16.0'
p806
sg23
S'10/28'
p807
sg25
S'14.8'
p808
sg27
S'--'
p809
sg29
g14
sg31
S'L9-14'
p810
sg33
S'59'
p811
sg35
g59
sg37
S'SEA'
p812
sg39
S'23'
p813
sg41
g10
sg42
S'16'
p814
sssS'2012'
p815
(dp816
g3
(dp817
g5
S'--'
p818
sg7
S'--'
p819
sg9
g14
sg11
S'--'
p820
sg13
g14
sg15
S'Chris Givens'
p821
sg17
S'2012'
p822
sg19
S'11'
p823
sg21
S'--'
p824
sg23
S'11/18'
p825
sg25
S'4.8'
p826
sg27
S'--'
p827
sg29
S'--'
p828
sg31
S'L13-27'
p829
sg33
S'19'
p830
sg35
g59
sg37
S'NYJ'
p831
sg39
g260
sg41
g10
sg42
S'--'
p832
ssg44
(dp833
g5
S'--'
p834
sg7
S'--'
p835
sg9
g10
sg11
S'--'
p836
sg13
g10
sg15
S'Chris Givens'
p837
sg17
S'2012'
p838
sg19
S'10'
p839
sg21
S'--'
p840
sg23
S'11/11'
p841
sg25
S'--'
p842
sg27
S'--'
p843
sg29
S'--'
p844
sg31
S'T24-24'
p845
sg33
S'--'
p846
sg35
S'--'
p847
sg37
S'@SF'
p848
sg39
S'--'
p849
sg41
S'--'
p850
sg42
S'--'
p851
ssg63
(dp852
g5
S'--'
p853
sg7
S'--'
p854
sg9
g14
sg11
S'--'
p855
sg13
g14
sg15
S'Chris Givens'
p856
sg17
S'2012'
p857
sg19
S'13'
p858
sg21
S'--'
p859
sg23
S'12/02'
p860
sg25
S'8.4'
p861
sg27
S'--'
p862
sg29
S'--'
p863
sg31
S'W16-13'
p864
sg33
S'92'
p865
sg35
S'11'
p866
sg37
S'SF'
p867
sg39
S'16'
p868
sg41
g10
sg42
S'--'
p869
ssg82
(dp870
g5
g10
sg7
g14
sg9
g14
sg11
S'--'
p871
sg13
g14
sg15
S'Chris Givens'
p872
sg17
S'2012'
p873
sg19
S'12'
p874
sg21
S'1.0'
p875
sg23
S'11/25'
p876
sg25
S'23.0'
p877
sg27
S'--'
p878
sg29
g14
sg31
S'W31-17'
p879
sg33
S'115'
p880
sg35
g213
sg37
S'@ARI'
p881
sg39
S'37T'
p882
sg41
g14
sg42
g14
ssg96
(dp883
g5
S'--'
p884
sg7
S'--'
p885
sg9
g14
sg11
S'--'
p886
sg13
g14
sg15
S'Chris Givens'
p887
sg17
S'2012'
p888
sg19
S'15'
p889
sg21
S'--'
p890
sg23
S'12/16'
p891
sg25
S'22.0'
p892
sg27
S'--'
p893
sg29
S'--'
p894
sg31
S'L22-36'
p895
sg33
S'22'
p896
sg35
g14
sg37
S'MIN'
p897
sg39
S'22'
p898
sg41
g10
sg42
S'--'
p899
ssg112
(dp900
g5
g10
sg7
S'-3'
p901
sg9
g14
sg11
S'--'
p902
sg13
g14
sg15
S'Chris Givens'
p903
sg17
S'2012'
p904
sg19
S'14'
p905
sg21
S'-3.0'
p906
sg23
S'12/09'
p907
sg25
S'8.3'
p908
sg27
S'--'
p909
sg29
g14
sg31
S'W15-12'
p910
sg33
S'25'
p911
sg35
g78
sg37
S'@BUF'
p912
sg39
S'13'
p913
sg41
g10
sg42
S'-3'
p914
ssg129
(dp915
g5
S'--'
p916
sg7
S'--'
p917
sg9
g14
sg11
S'--'
p918
sg13
g14
sg15
S'Chris Givens'
p919
sg17
S'2012'
p920
sg19
S'17'
p921
sg21
S'--'
p922
sg23
S'12/30'
p923
sg25
S'27.0'
p924
sg27
S'--'
p925
sg29
S'--'
p926
sg31
S'L13-20'
p927
sg33
S'54'
p928
sg35
g36
sg37
S'@SEA'
p929
sg39
S'37'
p930
sg41
g10
sg42
S'--'
p931
ssg146
(dp932
g5
S'--'
p933
sg7
S'--'
p934
sg9
g14
sg11
S'--'
p935
sg13
g14
sg15
S'Chris Givens'
p936
sg17
S'2012'
p937
sg19
S'16'
p938
sg21
S'--'
p939
sg23
S'12/23'
p940
sg25
S'12.7'
p941
sg27
S'--'
p942
sg29
S'--'
p943
sg31
S'W28-13'
p944
sg33
S'38'
p945
sg35
g78
sg37
S'@TB'
p946
sg39
S'14'
p947
sg41
g10
sg42
S'--'
p948
ssg14
(dp949
g5
S'--'
p950
sg7
S'--'
p951
sg9
g10
sg11
S'--'
p952
sg13
g14
sg15
S'Chris Givens'
p953
sg17
S'2012'
p954
sg19
g14
sg21
S'--'
p955
sg23
S'09/09'
p956
sg25
S'--'
p957
sg27
S'--'
p958
sg29
S'--'
p959
sg31
S'L23-27'
p960
sg33
g10
sg35
g10
sg37
S'@DET'
p961
sg39
S'--'
p962
sg41
g10
sg42
S'--'
p963
ssg78
(dp964
g5
S'--'
p965
sg7
S'--'
p966
sg9
g14
sg11
S'--'
p967
sg13
g14
sg15
S'Chris Givens'
p968
sg17
S'2012'
p969
sg19
g78
sg21
S'--'
p970
sg23
S'09/23'
p971
sg25
S'4.5'
p972
sg27
S'--'
p973
sg29
S'--'
p974
sg31
S'L6-23'
p975
sg33
g260
sg35
g36
sg37
S'@CHI'
p976
sg39
g260
sg41
g10
sg42
S'--'
p977
ssg36
(dp978
g5
S'--'
p979
sg7
S'--'
p980
sg9
g10
sg11
S'--'
p981
sg13
g14
sg15
S'Chris Givens'
p982
sg17
S'2012'
p983
sg19
g36
sg21
S'--'
p984
sg23
S'09/16'
p985
sg25
S'--'
p986
sg27
S'--'
p987
sg29
S'--'
p988
sg31
S'W31-28'
p989
sg33
g10
sg35
g10
sg37
S'WAS'
p990
sg39
S'--'
p991
sg41
g10
sg42
S'--'
p992
ssg213
(dp993
g5
S'--'
p994
sg7
S'--'
p995
sg9
g14
sg11
S'--'
p996
sg13
g14
sg15
S'Chris Givens'
p997
sg17
S'2012'
p998
sg19
g213
sg21
S'--'
p999
sg23
S'10/04'
p1000
sg25
S'51.0'
p1001
sg27
S'--'
p1002
sg29
S'--'
p1003
sg31
S'W17-3'
p1004
sg33
S'51'
p1005
sg35
g14
sg37
S'ARI'
p1006
sg39
S'51T'
p1007
sg41
g14
sg42
S'--'
p1008
ssg59
(dp1009
g5
S'--'
p1010
sg7
S'--'
p1011
sg9
g10
sg11
S'--'
p1012
sg13
g14
sg15
S'Chris Givens'
p1013
sg17
S'2012'
p1014
sg19
g59
sg21
S'--'
p1015
sg23
S'09/30'
p1016
sg25
S'52.0'
p1017
sg27
S'--'
p1018
sg29
S'--'
p1019
sg31
S'W19-13'
p1020
sg33
S'52'
p1021
sg35
g14
sg37
S'SEA'
p1022
sg39
S'52'
p1023
sg41
g10
sg42
S'--'
p1024
ssg210
(dp1025
g5
g10
sg7
S'14'
p1026
sg9
g14
sg11
S'--'
p1027
sg13
g14
sg15
S'Chris Givens'
p1028
sg17
S'2012'
p1029
sg19
g210
sg21
S'14.0'
p1030
sg23
S'10/21'
p1031
sg25
S'24.3'
p1032
sg27
S'--'
p1033
sg29
g14
sg31
S'L20-30'
p1034
sg33
S'73'
p1035
sg35
g78
sg37
S'GB'
p1036
sg39
S'56'
p1037
sg41
g10
sg42
S'14'
p1038
ssg243
(dp1039
g5
S'--'
p1040
sg7
S'--'
p1041
sg9
g14
sg11
S'--'
p1042
sg13
g14
sg15
S'Chris Givens'
p1043
sg17
S'2012'
p1044
sg19
g243
sg21
S'--'
p1045
sg23
S'10/14'
p1046
sg25
S'28.3'
p1047
sg27
S'--'
p1048
sg29
S'--'
p1049
sg31
S'L14-17'
p1050
sg33
S'85'
p1051
sg35
g78
sg37
S'@MIA'
p1052
sg39
S'65'
p1053
sg41
g10
sg42
S'--'
p1054
ssg260
(dp1055
g5
g262
sg7
g262
sg9
g262
sg11
g262
sg13
g262
sg15
S'Chris Givens'
p1056
sg17
S'2012'
p1057
sg19
g260
sg21
g262
sg23
S'Bye'
p1058
sg25
g262
sg27
g262
sg29
g262
sg31
g262
sg33
g262
sg35
g262
sg37
g262
sg39
g262
sg41
g262
sg42
g262
ssg266
(dp1059
g5
S'--'
p1060
sg7
S'--'
p1061
sg9
g14
sg11
S'--'
p1062
sg13
g14
sg15
S'Chris Givens'
p1063
sg17
S'2012'
p1064
sg19
g266
sg21
S'--'
p1065
sg23
S'10/28'
p1066
sg25
S'21.0'
p1067
sg27
S'--'
p1068
sg29
S'--'
p1069
sg31
S'L7-45'
p1070
sg33
S'63'
p1071
sg35
g78
sg37
S'NE'
p1072
sg39
S'50T'
p1073
sg41
g14
sg42
S'--'
p1074
sss.