(dp0
S'2015'
p1
(dp2
S'1'
p3
(dp4
S'RushTD'
p5
S'--'
p6
sS'RushYds'
p7
S'--'
p8
sS'GS'
p9
g3
sS'Lost'
p10
S'--'
p11
sS'G'
p12
g3
sS'Player'
p13
S'Chris Owusu'
p14
sS'Year'
p15
S'2015'
p16
sS'WK'
p17
g3
sS'RushAvg'
p18
S'--'
p19
sS'Game Date'
p20
S'09/13'
p21
sS'RecAvg'
p22
S'13.8'
p23
sS'FUM'
p24
S'--'
p25
sS'RushAtt'
p26
S'--'
p27
sS'Result'
p28
S'W31-10'
p29
sS'RecYds'
p30
S'55'
p31
sS'Rec'
p32
S'4'
p33
sS'Opp'
p34
S'CLE'
p35
sS'RecLng'
p36
S'43'
p37
sS'RecTD'
p38
S'0'
p39
sS'RushLng'
p40
S'--'
p41
ssS'3'
p42
(dp43
g5
S'--'
p44
sg7
S'--'
p45
sg9
g39
sg10
S'--'
p46
sg12
g39
sg13
S'Chris Owusu'
p47
sg15
S'2015'
p48
sg17
g42
sg18
S'--'
p49
sg20
S'09/27'
p50
sg22
S'--'
p51
sg24
S'--'
p52
sg26
S'--'
p53
sg28
S'L17-24'
p54
sg30
S'--'
p55
sg32
S'--'
p56
sg34
S'PHI'
p57
sg36
S'--'
p58
sg38
S'--'
p59
sg40
S'--'
p60
ssS'2'
p61
(dp62
g5
S'--'
p63
sg7
S'--'
p64
sg9
g3
sg10
S'--'
p65
sg12
g3
sg13
S'Chris Owusu'
p66
sg15
S'2015'
p67
sg17
g61
sg18
S'--'
p68
sg20
S'09/21'
p69
sg22
S'--'
p70
sg24
S'--'
p71
sg26
S'--'
p72
sg28
S'W20-7'
p73
sg30
g39
sg32
g39
sg34
S'@IND'
p74
sg36
S'--'
p75
sg38
g39
sg40
S'--'
p76
ssS'5'
p77
(dp78
g5
S''
p79
sg7
g79
sg9
g79
sg10
g79
sg12
g79
sg13
S'Chris Owusu'
p80
sg15
S'2015'
p81
sg17
g77
sg18
g79
sg20
S'Bye'
p82
sg22
g79
sg24
g79
sg26
g79
sg28
g79
sg30
g79
sg32
g79
sg34
g79
sg36
g79
sg38
g79
sg40
g79
ssg33
(dp83
g5
S'--'
p84
sg7
S'--'
p85
sg9
g39
sg10
S'--'
p86
sg12
g39
sg13
S'Chris Owusu'
p87
sg15
S'2015'
p88
sg17
g33
sg18
S'--'
p89
sg20
S'10/04'
p90
sg22
S'--'
p91
sg24
S'--'
p92
sg26
S'--'
p93
sg28
S'W27-14'
p94
sg30
S'--'
p95
sg32
S'--'
p96
sg34
S'@MIA'
p97
sg36
S'--'
p98
sg38
S'--'
p99
sg40
S'--'
p100
ssS'7'
p101
(dp102
g5
S'--'
p103
sg7
S'--'
p104
sg9
g39
sg10
S'--'
p105
sg12
g3
sg13
S'Chris Owusu'
p106
sg15
S'2015'
p107
sg17
g101
sg18
S'--'
p108
sg20
S'10/25'
p109
sg22
S'12.5'
p110
sg24
S'--'
p111
sg26
S'--'
p112
sg28
S'L23-30'
p113
sg30
S'25'
p114
sg32
g61
sg34
S'@NE'
p115
sg36
S'21'
p116
sg38
g39
sg40
S'--'
p117
ssS'6'
p118
(dp119
g5
S'--'
p120
sg7
S'--'
p121
sg9
g39
sg10
S'--'
p122
sg12
g39
sg13
S'Chris Owusu'
p123
sg15
S'2015'
p124
sg17
g118
sg18
S'--'
p125
sg20
S'10/18'
p126
sg22
S'--'
p127
sg24
S'--'
p128
sg26
S'--'
p129
sg28
S'W34-20'
p130
sg30
S'--'
p131
sg32
S'--'
p132
sg34
S'WAS'
p133
sg36
S'--'
p134
sg38
S'--'
p135
sg40
S'--'
p136
sssS'2014'
p137
(dp138
S'15'
p139
(dp140
g5
S'--'
p141
sg7
S'--'
p142
sg9
g39
sg10
S'--'
p143
sg12
g3
sg13
S'Chris Owusu'
p144
sg15
S'2014'
p145
sg17
S'15'
p146
sg18
S'--'
p147
sg20
S'12/14'
p148
sg22
S'8.0'
p149
sg24
S'--'
p150
sg26
S'--'
p151
sg28
S'W16-11'
p152
sg30
S'8'
p153
sg32
g3
sg34
S'@TEN'
p154
sg36
g153
sg38
g39
sg40
S'--'
p155
ssS'14'
p156
(dp157
g5
S'--'
p158
sg7
S'--'
p159
sg9
g39
sg10
S'--'
p160
sg12
g3
sg13
S'Chris Owusu'
p161
sg15
S'2014'
p162
sg17
S'14'
p163
sg18
S'--'
p164
sg20
S'12/07'
p165
sg22
S'7.0'
p166
sg24
S'--'
p167
sg26
S'--'
p168
sg28
S'L24-30'
p169
sg30
g101
sg32
g3
sg34
S'@MIN'
p170
sg36
g101
sg38
g39
sg40
S'--'
p171
ssS'17'
p172
(dp173
g5
g3
sg7
S'23'
p174
sg9
g39
sg10
S'--'
p175
sg12
g3
sg13
S'Chris Owusu'
p176
sg15
S'2014'
p177
sg17
S'17'
p178
sg18
S'23.0'
p179
sg20
S'12/28'
p180
sg22
S'36.0'
p181
sg24
S'--'
p182
sg26
g3
sg28
S'W37-24'
p183
sg30
S'36'
p184
sg32
g3
sg34
S'@MIA'
p185
sg36
S'36'
p186
sg38
g39
sg40
S'23T'
p187
ssS'16'
p188
(dp189
g5
S'--'
p190
sg7
S'--'
p191
sg9
g39
sg10
S'--'
p192
sg12
g3
sg13
S'Chris Owusu'
p193
sg15
S'2014'
p194
sg17
S'16'
p195
sg18
S'--'
p196
sg20
S'12/21'
p197
sg22
S'--'
p198
sg24
S'--'
p199
sg26
S'--'
p200
sg28
S'L16-17'
p201
sg30
S'--'
p202
sg32
S'--'
p203
sg34
S'NE'
p204
sg36
S'--'
p205
sg38
S'--'
p206
sg40
S'--'
p207
ssg3
(dp208
g5
S'--'
p209
sg7
S'--'
p210
sg9
g39
sg10
S'--'
p211
sg12
g3
sg13
S'Chris Owusu'
p212
sg15
S'2014'
p213
sg17
g3
sg18
S'--'
p214
sg20
S'09/07'
p215
sg22
S'10.0'
p216
sg24
S'--'
p217
sg26
S'--'
p218
sg28
S'L14-20'
p219
sg30
S'20'
p220
sg32
g61
sg34
S'CAR'
p221
sg36
S'19T'
p222
sg38
g3
sg40
S'--'
p223
ssg42
(dp224
g5
S'--'
p225
sg7
S'--'
p226
sg9
g39
sg10
S'--'
p227
sg12
g3
sg13
S'Chris Owusu'
p228
sg15
S'2014'
p229
sg17
g42
sg18
S'--'
p230
sg20
S'09/18'
p231
sg22
S'--'
p232
sg24
S'--'
p233
sg26
S'--'
p234
sg28
S'L14-56'
p235
sg30
S'--'
p236
sg32
S'--'
p237
sg34
S'@ATL'
p238
sg36
S'--'
p239
sg38
S'--'
p240
sg40
S'--'
p241
ssg61
(dp242
g5
S'--'
p243
sg7
S'--'
p244
sg9
g39
sg10
S'--'
p245
sg12
g3
sg13
S'Chris Owusu'
p246
sg15
S'2014'
p247
sg17
g61
sg18
S'--'
p248
sg20
S'09/14'
p249
sg22
S'--'
p250
sg24
S'--'
p251
sg26
S'--'
p252
sg28
S'L17-19'
p253
sg30
S'--'
p254
sg32
S'--'
p255
sg34
S'STL'
p256
sg36
S'--'
p257
sg38
S'--'
p258
sg40
S'--'
p259
ssg77
(dp260
g5
S'--'
p261
sg7
S'--'
p262
sg9
g39
sg10
S'--'
p263
sg12
g39
sg13
S'Chris Owusu'
p264
sg15
S'2014'
p265
sg17
g77
sg18
S'--'
p266
sg20
S'10/05'
p267
sg22
S'--'
p268
sg24
S'--'
p269
sg26
S'--'
p270
sg28
S'L0-31'
p271
sg30
S'--'
p272
sg32
S'--'
p273
sg34
S'@SD'
p274
sg36
S'--'
p275
sg38
S'--'
p276
sg40
S'--'
p277
ssg101
(dp278
g5
S'--'
p279
sg7
S'--'
p280
sg9
g39
sg10
S'--'
p281
sg12
g39
sg13
S'Chris Owusu'
p282
sg15
S'2014'
p283
sg17
g101
sg18
S'--'
p284
sg20
S'10/16'
p285
sg22
S'--'
p286
sg24
S'--'
p287
sg26
S'--'
p288
sg28
S'L25-27'
p289
sg30
S'--'
p290
sg32
S'--'
p291
sg34
S'@NE'
p292
sg36
S'--'
p293
sg38
S'--'
p294
sg40
S'--'
p295
ssg118
(dp296
g5
S'--'
p297
sg7
S'--'
p298
sg9
g39
sg10
S'--'
p299
sg12
g39
sg13
S'Chris Owusu'
p300
sg15
S'2014'
p301
sg17
g118
sg18
S'--'
p302
sg20
S'10/12'
p303
sg22
S'--'
p304
sg24
S'--'
p305
sg26
S'--'
p306
sg28
S'L17-31'
p307
sg30
S'--'
p308
sg32
S'--'
p309
sg34
S'DEN'
p310
sg36
S'--'
p311
sg38
S'--'
p312
sg40
S'--'
p313
ssg153
(dp314
g5
S'--'
p315
sg7
S'--'
p316
sg9
g39
sg10
S'--'
p317
sg12
g3
sg13
S'Chris Owusu'
p318
sg15
S'2014'
p319
sg17
g153
sg18
S'--'
p320
sg20
S'10/26'
p321
sg22
S'7.0'
p322
sg24
S'--'
p323
sg26
S'--'
p324
sg28
S'L23-43'
p325
sg30
g101
sg32
g3
sg34
S'BUF'
p326
sg36
g101
sg38
g39
sg40
S'--'
p327
sssS'2013'
p328
(dp329
S'11'
p330
(dp331
g5
S'--'
p332
sg7
S'--'
p333
sg9
g3
sg10
S'--'
p334
sg12
g3
sg13
S'Chris Owusu'
p335
sg15
S'2013'
p336
sg17
S'11'
p337
sg18
S'--'
p338
sg20
S'11/17'
p339
sg22
S'--'
p340
sg24
S'--'
p341
sg26
S'--'
p342
sg28
S'W41-28'
p343
sg30
S'--'
p344
sg32
S'--'
p345
sg34
S'ATL'
p346
sg36
S'--'
p347
sg38
S'--'
p348
sg40
S'--'
p349
ssS'10'
p350
(dp351
g5
S'--'
p352
sg7
S'--'
p353
sg9
g39
sg10
S'--'
p354
sg12
g39
sg13
S'Chris Owusu'
p355
sg15
S'2013'
p356
sg17
S'10'
p357
sg18
S'--'
p358
sg20
S'11/11'
p359
sg22
S'--'
p360
sg24
S'--'
p361
sg26
S'--'
p362
sg28
S'W22-19'
p363
sg30
S'--'
p364
sg32
S'--'
p365
sg34
S'MIA'
p366
sg36
S'--'
p367
sg38
S'--'
p368
sg40
S'--'
p369
ssS'13'
p370
(dp371
g5
S'--'
p372
sg7
S'--'
p373
sg9
g3
sg10
S'--'
p374
sg12
g3
sg13
S'Chris Owusu'
p375
sg15
S'2013'
p376
sg17
S'13'
p377
sg18
S'--'
p378
sg20
S'12/01'
p379
sg22
S'20.0'
p380
sg24
S'--'
p381
sg26
S'--'
p382
sg28
S'L6-27'
p383
sg30
S'20'
p384
sg32
g3
sg34
S'@CAR'
p385
sg36
S'20'
p386
sg38
g39
sg40
S'--'
p387
ssS'12'
p388
(dp389
g5
S'--'
p390
sg7
S'--'
p391
sg9
g39
sg10
S'--'
p392
sg12
g3
sg13
S'Chris Owusu'
p393
sg15
S'2013'
p394
sg17
S'12'
p395
sg18
S'--'
p396
sg20
S'11/24'
p397
sg22
S'--'
p398
sg24
S'--'
p399
sg26
S'--'
p400
sg28
S'W24-21'
p401
sg30
S'--'
p402
sg32
S'--'
p403
sg34
S'@DET'
p404
sg36
S'--'
p405
sg38
S'--'
p406
sg40
S'--'
p407
ssg139
(dp408
g5
S'--'
p409
sg7
S'--'
p410
sg9
g39
sg10
S'--'
p411
sg12
g3
sg13
S'Chris Owusu'
p412
sg15
S'2013'
p413
sg17
S'15'
p414
sg18
S'--'
p415
sg20
S'12/15'
p416
sg22
S'7.0'
p417
sg24
S'--'
p418
sg26
S'--'
p419
sg28
S'L14-33'
p420
sg30
S'21'
p421
sg32
g42
sg34
S'SF'
p422
sg36
g153
sg38
g39
sg40
S'--'
p423
ssg156
(dp424
g5
S'--'
p425
sg7
S'--'
p426
sg9
g39
sg10
S'--'
p427
sg12
g3
sg13
S'Chris Owusu'
p428
sg15
S'2013'
p429
sg17
S'14'
p430
sg18
S'--'
p431
sg20
S'12/08'
p432
sg22
S'--'
p433
sg24
S'--'
p434
sg26
S'--'
p435
sg28
S'W27-6'
p436
sg30
S'--'
p437
sg32
S'--'
p438
sg34
S'BUF'
p439
sg36
S'--'
p440
sg38
S'--'
p441
sg40
S'--'
p442
ssg172
(dp443
g5
S'--'
p444
sg7
S'--'
p445
sg9
g3
sg10
S'--'
p446
sg12
g3
sg13
S'Chris Owusu'
p447
sg15
S'2013'
p448
sg17
S'17'
p449
sg18
S'--'
p450
sg20
S'12/29'
p451
sg22
S'5.0'
p452
sg24
S'--'
p453
sg26
S'--'
p454
sg28
S'L17-42'
p455
sg30
g77
sg32
g3
sg34
S'@NO'
p456
sg36
g77
sg38
g39
sg40
S'--'
p457
ssg188
(dp458
g5
S'--'
p459
sg7
S'--'
p460
sg9
g3
sg10
S'--'
p461
sg12
g3
sg13
S'Chris Owusu'
p462
sg15
S'2013'
p463
sg17
S'16'
p464
sg18
S'--'
p465
sg20
S'12/22'
p466
sg22
S'6.5'
p467
sg24
S'--'
p468
sg26
S'--'
p469
sg28
S'L13-23'
p470
sg30
S'13'
p471
sg32
g61
sg34
S'@STL'
p472
sg36
S'9'
p473
sg38
g39
sg40
S'--'
p474
ssg77
(dp475
g5
g79
sg7
g79
sg9
g79
sg10
g79
sg12
g79
sg13
S'Chris Owusu'
p476
sg15
S'2013'
p477
sg17
g77
sg18
g79
sg20
S'Bye'
p478
sg22
g79
sg24
g79
sg26
g79
sg28
g79
sg30
g79
sg32
g79
sg34
g79
sg36
g79
sg38
g79
sg40
g79
ssg101
(dp479
g5
S'--'
p480
sg7
S'--'
p481
sg9
g39
sg10
S'--'
p482
sg12
g3
sg13
S'Chris Owusu'
p483
sg15
S'2013'
p484
sg17
g101
sg18
S'--'
p485
sg20
S'10/20'
p486
sg22
S'9.0'
p487
sg24
S'--'
p488
sg26
S'--'
p489
sg28
S'L23-31'
p490
sg30
S'27'
p491
sg32
g42
sg34
S'@ATL'
p492
sg36
S'11'
p493
sg38
g39
sg40
S'--'
p494
ssg118
(dp495
g5
S'--'
p496
sg7
S'--'
p497
sg9
g39
sg10
S'--'
p498
sg12
g3
sg13
S'Chris Owusu'
p499
sg15
S'2013'
p500
sg17
g118
sg18
S'--'
p501
sg20
S'10/13'
p502
sg22
S'9.3'
p503
sg24
S'--'
p504
sg26
S'--'
p505
sg28
S'L20-31'
p506
sg30
S'28'
p507
sg32
g42
sg34
S'PHI'
p508
sg36
S'14'
p509
sg38
g39
sg40
S'--'
p510
ssg473
(dp511
g5
S'--'
p512
sg7
S'--'
p513
sg9
g39
sg10
S'--'
p514
sg12
g39
sg13
S'Chris Owusu'
p515
sg15
S'2013'
p516
sg17
g473
sg18
S'--'
p517
sg20
S'11/03'
p518
sg22
S'--'
p519
sg24
S'--'
p520
sg26
S'--'
p521
sg28
S'L24-27'
p522
sg30
S'--'
p523
sg32
S'--'
p524
sg34
S'@SEA'
p525
sg36
S'--'
p526
sg38
S'--'
p527
sg40
S'--'
p528
ssg153
(dp529
g5
S'--'
p530
sg7
S'--'
p531
sg9
g39
sg10
S'--'
p532
sg12
g39
sg13
S'Chris Owusu'
p533
sg15
S'2013'
p534
sg17
g153
sg18
S'--'
p535
sg20
S'10/24'
p536
sg22
S'--'
p537
sg24
S'--'
p538
sg26
S'--'
p539
sg28
S'L13-31'
p540
sg30
S'--'
p541
sg32
S'--'
p542
sg34
S'CAR'
p543
sg36
S'--'
p544
sg38
S'--'
p545
sg40
S'--'
p546
sssS'2012'
p547
(dp548
g330
(dp549
g5
S'--'
p550
sg7
S'--'
p551
sg9
g39
sg10
S'--'
p552
sg12
g39
sg13
S'Chris Owusu'
p553
sg15
S'2012'
p554
sg17
S'11'
p555
sg18
S'--'
p556
sg20
S'11/18'
p557
sg22
S'--'
p558
sg24
S'--'
p559
sg26
S'--'
p560
sg28
S'W27-21'
p561
sg30
S'--'
p562
sg32
S'--'
p563
sg34
S'@CAR'
p564
sg36
S'--'
p565
sg38
S'--'
p566
sg40
S'--'
p567
ssg350
(dp568
g5
S'--'
p569
sg7
S'--'
p570
sg9
g39
sg10
S'--'
p571
sg12
g3
sg13
S'Chris Owusu'
p572
sg15
S'2012'
p573
sg17
S'10'
p574
sg18
S'--'
p575
sg20
S'11/11'
p576
sg22
S'--'
p577
sg24
S'--'
p578
sg26
S'--'
p579
sg28
S'W34-24'
p580
sg30
g39
sg32
g39
sg34
S'SD'
p581
sg36
S'--'
p582
sg38
g39
sg40
S'--'
p583
ssg370
(dp584
g5
S'--'
p585
sg7
S'--'
p586
sg9
g39
sg10
S'--'
p587
sg12
g3
sg13
S'Chris Owusu'
p588
sg15
S'2012'
p589
sg17
S'13'
p590
sg18
S'--'
p591
sg20
S'12/02'
p592
sg22
S'--'
p593
sg24
S'--'
p594
sg26
S'--'
p595
sg28
S'L23-31'
p596
sg30
S'--'
p597
sg32
S'--'
p598
sg34
S'@DEN'
p599
sg36
S'--'
p600
sg38
S'--'
p601
sg40
S'--'
p602
ssg388
(dp603
g5
S'--'
p604
sg7
S'--'
p605
sg9
g39
sg10
S'--'
p606
sg12
g3
sg13
S'Chris Owusu'
p607
sg15
S'2012'
p608
sg17
S'12'
p609
sg18
S'--'
p610
sg20
S'11/25'
p611
sg22
S'--'
p612
sg24
S'--'
p613
sg26
S'--'
p614
sg28
S'L23-24'
p615
sg30
g39
sg32
g39
sg34
S'ATL'
p616
sg36
S'--'
p617
sg38
g39
sg40
S'--'
p618
ssg139
(dp619
g5
S'--'
p620
sg7
S'--'
p621
sg9
g39
sg10
S'--'
p622
sg12
g3
sg13
S'Chris Owusu'
p623
sg15
S'2012'
p624
sg17
S'15'
p625
sg18
S'--'
p626
sg20
S'12/16'
p627
sg22
S'24.0'
p628
sg24
S'--'
p629
sg26
S'--'
p630
sg28
S'L0-41'
p631
sg30
S'24'
p632
sg32
g3
sg34
S'@NO'
p633
sg36
S'24'
p634
sg38
g39
sg40
S'--'
p635
ssg156
(dp636
g5
S'--'
p637
sg7
S'--'
p638
sg9
g39
sg10
S'--'
p639
sg12
g3
sg13
S'Chris Owusu'
p640
sg15
S'2012'
p641
sg17
S'14'
p642
sg18
S'--'
p643
sg20
S'12/09'
p644
sg22
S'--'
p645
sg24
S'--'
p646
sg26
S'--'
p647
sg28
S'L21-23'
p648
sg30
S'--'
p649
sg32
S'--'
p650
sg34
S'PHI'
p651
sg36
S'--'
p652
sg38
S'--'
p653
sg40
S'--'
p654
ssg172
(dp655
g5
S'--'
p656
sg7
S'--'
p657
sg9
g39
sg10
S'--'
p658
sg12
g39
sg13
S'Chris Owusu'
p659
sg15
S'2012'
p660
sg17
S'17'
p661
sg18
S'--'
p662
sg20
S'12/30'
p663
sg22
S'--'
p664
sg24
S'--'
p665
sg26
S'--'
p666
sg28
S'W22-17'
p667
sg30
S'--'
p668
sg32
S'--'
p669
sg34
S'@ATL'
p670
sg36
S'--'
p671
sg38
S'--'
p672
sg40
S'--'
p673
ssg188
(dp674
g5
S'--'
p675
sg7
S'--'
p676
sg9
g39
sg10
S'--'
p677
sg12
g39
sg13
S'Chris Owusu'
p678
sg15
S'2012'
p679
sg17
S'16'
p680
sg18
S'--'
p681
sg20
S'12/23'
p682
sg22
S'--'
p683
sg24
S'--'
p684
sg26
S'--'
p685
sg28
S'L13-28'
p686
sg30
S'--'
p687
sg32
S'--'
p688
sg34
S'STL'
p689
sg36
S'--'
p690
sg38
S'--'
p691
sg40
S'--'
p692
ssg42
(dp693
g5
S'--'
p694
sg7
S'--'
p695
sg9
g39
sg10
S'--'
p696
sg12
g39
sg13
S'Chris Owusu'
p697
sg15
S'2012'
p698
sg17
g42
sg18
S'--'
p699
sg20
S'09/23'
p700
sg22
S'--'
p701
sg24
S'--'
p702
sg26
S'--'
p703
sg28
S'L10-16'
p704
sg30
S'--'
p705
sg32
S'--'
p706
sg34
S'@DAL'
p707
sg36
S'--'
p708
sg38
S'--'
p709
sg40
S'--'
p710
ssg77
(dp711
g5
g79
sg7
g79
sg9
g79
sg10
g79
sg12
g79
sg13
S'Chris Owusu'
p712
sg15
S'2012'
p713
sg17
g77
sg18
g79
sg20
S'Bye'
p714
sg22
g79
sg24
g79
sg26
g79
sg28
g79
sg30
g79
sg32
g79
sg34
g79
sg36
g79
sg38
g79
sg40
g79
ssg33
(dp715
g5
S'--'
p716
sg7
S'--'
p717
sg9
g39
sg10
S'--'
p718
sg12
g39
sg13
S'Chris Owusu'
p719
sg15
S'2012'
p720
sg17
g33
sg18
S'--'
p721
sg20
S'09/30'
p722
sg22
S'--'
p723
sg24
S'--'
p724
sg26
S'--'
p725
sg28
S'L22-24'
p726
sg30
S'--'
p727
sg32
S'--'
p728
sg34
S'WAS'
p729
sg36
S'--'
p730
sg38
S'--'
p731
sg40
S'--'
p732
ssg101
(dp733
g5
S'--'
p734
sg7
S'--'
p735
sg9
g39
sg10
S'--'
p736
sg12
g39
sg13
S'Chris Owusu'
p737
sg15
S'2012'
p738
sg17
g101
sg18
S'--'
p739
sg20
S'10/21'
p740
sg22
S'--'
p741
sg24
S'--'
p742
sg26
S'--'
p743
sg28
S'L28-35'
p744
sg30
S'--'
p745
sg32
S'--'
p746
sg34
S'NO'
p747
sg36
S'--'
p748
sg38
S'--'
p749
sg40
S'--'
p750
ssg118
(dp751
g5
S'--'
p752
sg7
S'--'
p753
sg9
g39
sg10
S'--'
p754
sg12
g39
sg13
S'Chris Owusu'
p755
sg15
S'2012'
p756
sg17
g118
sg18
S'--'
p757
sg20
S'10/14'
p758
sg22
S'--'
p759
sg24
S'--'
p760
sg26
S'--'
p761
sg28
S'W38-10'
p762
sg30
S'--'
p763
sg32
S'--'
p764
sg34
S'KC'
p765
sg36
S'--'
p766
sg38
S'--'
p767
sg40
S'--'
p768
ssg473
(dp769
g5
S'--'
p770
sg7
S'--'
p771
sg9
g39
sg10
S'--'
p772
sg12
g39
sg13
S'Chris Owusu'
p773
sg15
S'2012'
p774
sg17
g473
sg18
S'--'
p775
sg20
S'11/04'
p776
sg22
S'--'
p777
sg24
S'--'
p778
sg26
S'--'
p779
sg28
S'W42-32'
p780
sg30
S'--'
p781
sg32
S'--'
p782
sg34
S'@OAK'
p783
sg36
S'--'
p784
sg38
S'--'
p785
sg40
S'--'
p786
ssg153
(dp787
g5
S'--'
p788
sg7
S'--'
p789
sg9
g39
sg10
S'--'
p790
sg12
g39
sg13
S'Chris Owusu'
p791
sg15
S'2012'
p792
sg17
g153
sg18
S'--'
p793
sg20
S'10/25'
p794
sg22
S'--'
p795
sg24
S'--'
p796
sg26
S'--'
p797
sg28
S'W36-17'
p798
sg30
S'--'
p799
sg32
S'--'
p800
sg34
S'@MIN'
p801
sg36
S'--'
p802
sg38
S'--'
p803
sg40
S'--'
p804
sss.