(dp0
S'2015'
p1
(dp2
S'11'
p3
(dp4
S'RushTD'
p5
S'--'
p6
sS'RushYds'
p7
S'--'
p8
sS'GS'
p9
S'0'
p10
sS'Lost'
p11
S'--'
p12
sS'G'
p13
S'1'
p14
sS'Player'
p15
S'Chris Hogan'
p16
sS'Year'
p17
S'2015'
p18
sS'WK'
p19
S'11'
p20
sS'RushAvg'
p21
S'--'
p22
sS'Game Date'
p23
S'11/23'
p24
sS'RecAvg'
p25
S'15.8'
p26
sS'FUM'
p27
S'--'
p28
sS'RushAtt'
p29
S'--'
p30
sS'Result'
p31
S'L13-20'
p32
sS'RecYds'
p33
S'95'
p34
sS'Rec'
p35
S'6'
p36
sS'Opp'
p37
S'@NE'
p38
sS'RecLng'
p39
S'42'
p40
sS'RecTD'
p41
g10
sS'RushLng'
p42
S'--'
p43
ssS'10'
p44
(dp45
g5
S'--'
p46
sg7
S'--'
p47
sg9
g10
sg11
S'--'
p48
sg13
g14
sg15
S'Chris Hogan'
p49
sg17
S'2015'
p50
sg19
S'10'
p51
sg21
S'--'
p52
sg23
S'11/12'
p53
sg25
S'--'
p54
sg27
S'--'
p55
sg29
S'--'
p56
sg31
S'W22-17'
p57
sg33
S'--'
p58
sg35
S'--'
p59
sg37
S'@NYJ'
p60
sg39
S'--'
p61
sg41
S'--'
p62
sg42
S'--'
p63
ssS'13'
p64
(dp65
g5
S'--'
p66
sg7
S'--'
p67
sg9
g10
sg11
S'--'
p68
sg13
g14
sg15
S'Chris Hogan'
p69
sg17
S'2015'
p70
sg19
S'13'
p71
sg21
S'--'
p72
sg23
S'12/06'
p73
sg25
S'12.0'
p74
sg27
S'--'
p75
sg29
S'--'
p76
sg31
S'W30-21'
p77
sg33
S'12'
p78
sg35
g14
sg37
S'HOU'
p79
sg39
S'12'
p80
sg41
g10
sg42
S'--'
p81
ssS'12'
p82
(dp83
g5
S'--'
p84
sg7
S'--'
p85
sg9
g10
sg11
S'--'
p86
sg13
g14
sg15
S'Chris Hogan'
p87
sg17
S'2015'
p88
sg19
S'12'
p89
sg21
S'--'
p90
sg23
S'11/29'
p91
sg25
S'11.3'
p92
sg27
S'--'
p93
sg29
S'--'
p94
sg31
S'L22-30'
p95
sg33
S'34'
p96
sg35
S'3'
p97
sg37
S'@KC'
p98
sg39
S'13'
p99
sg41
g10
sg42
S'--'
p100
ssS'15'
p101
(dp102
g5
S'--'
p103
sg7
S'--'
p104
sg9
g10
sg11
S'--'
p105
sg13
g14
sg15
S'Chris Hogan'
p106
sg17
S'2015'
p107
sg19
S'15'
p108
sg21
S'--'
p109
sg23
S'12/20'
p110
sg25
S'13.0'
p111
sg27
S'--'
p112
sg29
S'--'
p113
sg31
S'L25-35'
p114
sg33
S'13'
p115
sg35
g14
sg37
S'@WAS'
p116
sg39
S'13'
p117
sg41
g10
sg42
S'--'
p118
ssS'14'
p119
(dp120
g5
S'--'
p121
sg7
S'--'
p122
sg9
g10
sg11
S'--'
p123
sg13
g14
sg15
S'Chris Hogan'
p124
sg17
S'2015'
p125
sg19
S'14'
p126
sg21
S'--'
p127
sg23
S'12/13'
p128
sg25
S'10.0'
p129
sg27
S'--'
p130
sg29
S'--'
p131
sg31
S'L20-23'
p132
sg33
S'20'
p133
sg35
S'2'
p134
sg37
S'@PHI'
p135
sg39
S'14'
p136
sg41
g10
sg42
S'--'
p137
ssS'17'
p138
(dp139
g5
g10
sg7
S'4'
p140
sg9
g14
sg11
S'--'
p141
sg13
g14
sg15
S'Chris Hogan'
p142
sg17
S'2015'
p143
sg19
S'17'
p144
sg21
S'4.0'
p145
sg23
S'01/03'
p146
sg25
S'2.0'
p147
sg27
S'--'
p148
sg29
g14
sg31
S'W22-17'
p149
sg33
g134
sg35
g14
sg37
S'NYJ'
p150
sg39
g134
sg41
g10
sg42
g140
ssS'16'
p151
(dp152
g5
S'--'
p153
sg7
S'--'
p154
sg9
g14
sg11
S'--'
p155
sg13
g14
sg15
S'Chris Hogan'
p156
sg17
S'2015'
p157
sg19
S'16'
p158
sg21
S'--'
p159
sg23
S'12/27'
p160
sg25
S'19.5'
p161
sg27
S'--'
p162
sg29
S'--'
p163
sg31
S'W16-6'
p164
sg33
S'39'
p165
sg35
g134
sg37
S'DAL'
p166
sg39
S'20'
p167
sg41
g10
sg42
S'--'
p168
ssg14
(dp169
g5
S'--'
p170
sg7
S'--'
p171
sg9
g10
sg11
S'--'
p172
sg13
g14
sg15
S'Chris Hogan'
p173
sg17
S'2015'
p174
sg19
g14
sg21
S'--'
p175
sg23
S'09/13'
p176
sg25
S'--'
p177
sg27
S'--'
p178
sg29
S'--'
p179
sg31
S'W27-14'
p180
sg33
S'--'
p181
sg35
S'--'
p182
sg37
S'IND'
p183
sg39
S'--'
p184
sg41
S'--'
p185
sg42
S'--'
p186
ssg97
(dp187
g5
S'--'
p188
sg7
S'--'
p189
sg9
g10
sg11
S'--'
p190
sg13
g14
sg15
S'Chris Hogan'
p191
sg17
S'2015'
p192
sg19
g97
sg21
S'--'
p193
sg23
S'09/27'
p194
sg25
S'14.0'
p195
sg27
S'--'
p196
sg29
S'--'
p197
sg31
S'W41-14'
p198
sg33
S'42'
p199
sg35
g97
sg37
S'@MIA'
p200
sg39
S'38T'
p201
sg41
g14
sg42
S'--'
p202
ssg134
(dp203
g5
S'--'
p204
sg7
S'--'
p205
sg9
g10
sg11
S'--'
p206
sg13
g14
sg15
S'Chris Hogan'
p207
sg17
S'2015'
p208
sg19
g134
sg21
S'--'
p209
sg23
S'09/20'
p210
sg25
S'11.0'
p211
sg27
S'--'
p212
sg29
S'--'
p213
sg31
S'L32-40'
p214
sg33
S'11'
p215
sg35
g14
sg37
S'NE'
p216
sg39
S'11'
p217
sg41
g10
sg42
S'--'
p218
ssS'5'
p219
(dp220
g5
S'--'
p221
sg7
S'--'
p222
sg9
g10
sg11
S'--'
p223
sg13
g14
sg15
S'Chris Hogan'
p224
sg17
S'2015'
p225
sg19
g219
sg21
S'--'
p226
sg23
S'10/11'
p227
sg25
S'17.3'
p228
sg27
S'--'
p229
sg29
S'--'
p230
sg31
S'W14-13'
p231
sg33
S'52'
p232
sg35
g97
sg37
S'@TEN'
p233
sg39
S'46'
p234
sg41
g14
sg42
S'--'
p235
ssg140
(dp236
g5
S'--'
p237
sg7
S'--'
p238
sg9
g14
sg11
S'--'
p239
sg13
g14
sg15
S'Chris Hogan'
p240
sg17
S'2015'
p241
sg19
g140
sg21
S'--'
p242
sg23
S'10/04'
p243
sg25
S'8.6'
p244
sg27
S'--'
p245
sg29
S'--'
p246
sg31
S'L10-24'
p247
sg33
S'43'
p248
sg35
g219
sg37
S'NYG'
p249
sg39
S'13'
p250
sg41
g10
sg42
S'--'
p251
ssS'7'
p252
(dp253
g5
S'--'
p254
sg7
S'--'
p255
sg9
g14
sg11
S'--'
p256
sg13
g14
sg15
S'Chris Hogan'
p257
sg17
S'2015'
p258
sg19
g252
sg21
S'--'
p259
sg23
S'10/25'
p260
sg25
S'9.3'
p261
sg27
S'--'
p262
sg29
S'--'
p263
sg31
S'L31-34'
p264
sg33
S'56'
p265
sg35
g36
sg37
S'@JAC'
p266
sg39
S'14'
p267
sg41
g10
sg42
S'--'
p268
ssg36
(dp269
g5
S'--'
p270
sg7
S'--'
p271
sg9
g10
sg11
S'--'
p272
sg13
g14
sg15
S'Chris Hogan'
p273
sg17
S'2015'
p274
sg19
g36
sg21
S'--'
p275
sg23
S'10/18'
p276
sg25
S'15.5'
p277
sg27
S'--'
p278
sg29
S'--'
p279
sg31
S'L21-34'
p280
sg33
S'31'
p281
sg35
g134
sg37
S'CIN'
p282
sg39
S'23'
p283
sg41
g10
sg42
S'--'
p284
ssS'9'
p285
(dp286
g5
S'--'
p287
sg7
S'--'
p288
sg9
g10
sg11
S'--'
p289
sg13
g14
sg15
S'Chris Hogan'
p290
sg17
S'2015'
p291
sg19
g285
sg21
S'--'
p292
sg23
S'11/08'
p293
sg25
S'--'
p294
sg27
S'--'
p295
sg29
S'--'
p296
sg31
S'W33-17'
p297
sg33
S'--'
p298
sg35
S'--'
p299
sg37
S'MIA'
p300
sg39
S'--'
p301
sg41
S'--'
p302
sg42
S'--'
p303
ssS'8'
p304
(dp305
g5
S''
p306
sg7
g306
sg9
g306
sg11
g306
sg13
g306
sg15
S'Chris Hogan'
p307
sg17
S'2015'
p308
sg19
g304
sg21
g306
sg23
S'Bye'
p309
sg25
g306
sg27
g306
sg29
g306
sg31
g306
sg33
g306
sg35
g306
sg37
g306
sg39
g306
sg41
g306
sg42
g306
sssS'2014'
p310
(dp311
g3
(dp312
g5
S'--'
p313
sg7
S'--'
p314
sg9
g14
sg11
S'--'
p315
sg13
g14
sg15
S'Chris Hogan'
p316
sg17
S'2014'
p317
sg19
S'11'
p318
sg21
S'--'
p319
sg23
S'11/13'
p320
sg25
S'10.6'
p321
sg27
S'--'
p322
sg29
S'--'
p323
sg31
S'L9-22'
p324
sg33
S'74'
p325
sg35
g252
sg37
S'@MIA'
p326
sg39
S'17'
p327
sg41
g10
sg42
S'--'
p328
ssg44
(dp329
g5
S'--'
p330
sg7
S'--'
p331
sg9
g14
sg11
g14
sg13
g14
sg15
S'Chris Hogan'
p332
sg17
S'2014'
p333
sg19
S'10'
p334
sg21
S'--'
p335
sg23
S'11/09'
p336
sg25
S'11.4'
p337
sg27
g14
sg29
S'--'
p338
sg31
S'L13-17'
p339
sg33
S'57'
p340
sg35
g219
sg37
S'KC'
p341
sg39
S'25T'
p342
sg41
g14
sg42
S'--'
p343
ssg64
(dp344
g5
S'--'
p345
sg7
S'--'
p346
sg9
g10
sg11
S'--'
p347
sg13
g14
sg15
S'Chris Hogan'
p348
sg17
S'2014'
p349
sg19
S'13'
p350
sg21
S'--'
p351
sg23
S'11/30'
p352
sg25
S'4.0'
p353
sg27
S'--'
p354
sg29
S'--'
p355
sg31
S'W26-10'
p356
sg33
g304
sg35
g134
sg37
S'CLE'
p357
sg39
g219
sg41
g14
sg42
S'--'
p358
ssg82
(dp359
g5
S'--'
p360
sg7
S'--'
p361
sg9
g10
sg11
S'--'
p362
sg13
g14
sg15
S'Chris Hogan'
p363
sg17
S'2014'
p364
sg19
S'12'
p365
sg21
S'--'
p366
sg23
S'11/24'
p367
sg25
S'2.5'
p368
sg27
S'--'
p369
sg29
S'--'
p370
sg31
S'W38-3'
p371
sg33
g219
sg35
g134
sg37
S'NYJ'
p372
sg39
g97
sg41
g10
sg42
S'--'
p373
ssg101
(dp374
g5
S'--'
p375
sg7
S'--'
p376
sg9
g10
sg11
S'--'
p377
sg13
g14
sg15
S'Chris Hogan'
p378
sg17
S'2014'
p379
sg19
S'15'
p380
sg21
S'--'
p381
sg23
S'12/14'
p382
sg25
S'6.0'
p383
sg27
S'--'
p384
sg29
S'--'
p385
sg31
S'W21-13'
p386
sg33
g36
sg35
g14
sg37
S'GB'
p387
sg39
g36
sg41
g10
sg42
S'--'
p388
ssg119
(dp389
g5
S'--'
p390
sg7
S'--'
p391
sg9
g10
sg11
S'--'
p392
sg13
g14
sg15
S'Chris Hogan'
p393
sg17
S'2014'
p394
sg19
S'14'
p395
sg21
S'--'
p396
sg23
S'12/07'
p397
sg25
S'7.7'
p398
sg27
S'--'
p399
sg29
S'--'
p400
sg31
S'L17-24'
p401
sg33
S'54'
p402
sg35
g252
sg37
S'@DEN'
p403
sg39
S'14T'
p404
sg41
g14
sg42
S'--'
p405
ssg138
(dp406
g5
S'--'
p407
sg7
S'--'
p408
sg9
g10
sg11
S'--'
p409
sg13
g14
sg15
S'Chris Hogan'
p410
sg17
S'2014'
p411
sg19
S'17'
p412
sg21
S'--'
p413
sg23
S'12/28'
p414
sg25
S'3.0'
p415
sg27
S'--'
p416
sg29
S'--'
p417
sg31
S'W17-9'
p418
sg33
g97
sg35
g14
sg37
S'@NE'
p419
sg39
g97
sg41
g10
sg42
S'--'
p420
ssg151
(dp421
g5
S'--'
p422
sg7
S'--'
p423
sg9
g10
sg11
S'--'
p424
sg13
g14
sg15
S'Chris Hogan'
p425
sg17
S'2014'
p426
sg19
S'16'
p427
sg21
S'--'
p428
sg23
S'12/21'
p429
sg25
S'14.3'
p430
sg27
S'--'
p431
sg29
S'--'
p432
sg31
S'L24-26'
p433
sg33
S'43'
p434
sg35
g97
sg37
S'@OAK'
p435
sg39
S'31'
p436
sg41
g10
sg42
S'--'
p437
ssg14
(dp438
g5
S'--'
p439
sg7
S'--'
p440
sg9
g10
sg11
S'--'
p441
sg13
g14
sg15
S'Chris Hogan'
p442
sg17
S'2014'
p443
sg19
g14
sg21
S'--'
p444
sg23
S'09/07'
p445
sg25
S'--'
p446
sg27
S'--'
p447
sg29
S'--'
p448
sg31
S'W23-20'
p449
sg33
S'--'
p450
sg35
S'--'
p451
sg37
S'@CHI'
p452
sg39
S'--'
p453
sg41
S'--'
p454
sg42
S'--'
p455
ssg97
(dp456
g5
S'--'
p457
sg7
S'--'
p458
sg9
g10
sg11
S'--'
p459
sg13
g14
sg15
S'Chris Hogan'
p460
sg17
S'2014'
p461
sg19
g97
sg21
S'--'
p462
sg23
S'09/21'
p463
sg25
S'--'
p464
sg27
S'--'
p465
sg29
S'--'
p466
sg31
S'L10-22'
p467
sg33
S'--'
p468
sg35
S'--'
p469
sg37
S'SD'
p470
sg39
S'--'
p471
sg41
S'--'
p472
sg42
S'--'
p473
ssg134
(dp474
g5
S'--'
p475
sg7
S'--'
p476
sg9
g10
sg11
S'--'
p477
sg13
g14
sg15
S'Chris Hogan'
p478
sg17
S'2014'
p479
sg19
g134
sg21
S'--'
p480
sg23
S'09/14'
p481
sg25
S'--'
p482
sg27
S'--'
p483
sg29
S'--'
p484
sg31
S'W29-10'
p485
sg33
S'--'
p486
sg35
S'--'
p487
sg37
S'MIA'
p488
sg39
S'--'
p489
sg41
S'--'
p490
sg42
S'--'
p491
ssg219
(dp492
g5
S'--'
p493
sg7
S'--'
p494
sg9
g10
sg11
S'--'
p495
sg13
g14
sg15
S'Chris Hogan'
p496
sg17
S'2014'
p497
sg19
g219
sg21
S'--'
p498
sg23
S'10/05'
p499
sg25
S'13.5'
p500
sg27
S'--'
p501
sg29
S'--'
p502
sg31
S'W17-14'
p503
sg33
S'27'
p504
sg35
g134
sg37
S'@DET'
p505
sg39
S'21'
p506
sg41
g10
sg42
S'--'
p507
ssg140
(dp508
g5
S'--'
p509
sg7
S'--'
p510
sg9
g10
sg11
S'--'
p511
sg13
g14
sg15
S'Chris Hogan'
p512
sg17
S'2014'
p513
sg19
g140
sg21
S'--'
p514
sg23
S'09/28'
p515
sg25
S'--'
p516
sg27
S'--'
p517
sg29
S'--'
p518
sg31
S'L17-23'
p519
sg33
S'--'
p520
sg35
S'--'
p521
sg37
S'@HOU'
p522
sg39
S'--'
p523
sg41
S'--'
p524
sg42
S'--'
p525
ssg252
(dp526
g5
S'--'
p527
sg7
S'--'
p528
sg9
g10
sg11
g14
sg13
g14
sg15
S'Chris Hogan'
p529
sg17
S'2014'
p530
sg19
g252
sg21
S'--'
p531
sg23
S'10/19'
p532
sg25
S'12.6'
p533
sg27
g14
sg29
S'--'
p534
sg31
S'W17-16'
p535
sg33
S'63'
p536
sg35
g219
sg37
S'MIN'
p537
sg39
S'28'
p538
sg41
g10
sg42
S'--'
p539
ssg36
(dp540
g5
S'--'
p541
sg7
S'--'
p542
sg9
g10
sg11
S'--'
p543
sg13
g14
sg15
S'Chris Hogan'
p544
sg17
S'2014'
p545
sg19
g36
sg21
S'--'
p546
sg23
S'10/12'
p547
sg25
S'14.4'
p548
sg27
S'--'
p549
sg29
S'--'
p550
sg31
S'L22-37'
p551
sg33
S'72'
p552
sg35
g219
sg37
S'NE'
p553
sg39
S'24'
p554
sg41
g14
sg42
S'--'
p555
ssg285
(dp556
g5
g306
sg7
g306
sg9
g306
sg11
g306
sg13
g306
sg15
S'Chris Hogan'
p557
sg17
S'2014'
p558
sg19
g285
sg21
g306
sg23
S'Bye'
p559
sg25
g306
sg27
g306
sg29
g306
sg31
g306
sg33
g306
sg35
g306
sg37
g306
sg39
g306
sg41
g306
sg42
g306
ssg304
(dp560
g5
S'--'
p561
sg7
S'--'
p562
sg9
g10
sg11
S'--'
p563
sg13
g14
sg15
S'Chris Hogan'
p564
sg17
S'2014'
p565
sg19
g304
sg21
S'--'
p566
sg23
S'10/26'
p567
sg25
S'14.0'
p568
sg27
S'--'
p569
sg29
S'--'
p570
sg31
S'W43-23'
p571
sg33
S'14'
p572
sg35
g14
sg37
S'@NYJ'
p573
sg39
S'14'
p574
sg41
g10
sg42
S'--'
p575
sssS'2013'
p576
(dp577
g3
(dp578
g5
S'--'
p579
sg7
S'--'
p580
sg9
g10
sg11
S'--'
p581
sg13
g14
sg15
S'Chris Hogan'
p582
sg17
S'2013'
p583
sg19
S'11'
p584
sg21
S'--'
p585
sg23
S'11/17'
p586
sg25
S'9.7'
p587
sg27
S'--'
p588
sg29
S'--'
p589
sg31
S'W37-14'
p590
sg33
S'29'
p591
sg35
g97
sg37
S'NYJ'
p592
sg39
S'12'
p593
sg41
g10
sg42
S'--'
p594
ssg44
(dp595
g5
S'--'
p596
sg7
S'--'
p597
sg9
g10
sg11
S'--'
p598
sg13
g14
sg15
S'Chris Hogan'
p599
sg17
S'2013'
p600
sg19
S'10'
p601
sg21
S'--'
p602
sg23
S'11/10'
p603
sg25
S'16.0'
p604
sg27
S'--'
p605
sg29
S'--'
p606
sg31
S'L10-23'
p607
sg33
S'16'
p608
sg35
g14
sg37
S'@PIT'
p609
sg39
S'16'
p610
sg41
g10
sg42
S'--'
p611
ssg64
(dp612
g5
S'--'
p613
sg7
S'--'
p614
sg9
g10
sg11
S'--'
p615
sg13
g14
sg15
S'Chris Hogan'
p616
sg17
S'2013'
p617
sg19
S'13'
p618
sg21
S'--'
p619
sg23
S'12/01'
p620
sg25
S'--'
p621
sg27
S'--'
p622
sg29
S'--'
p623
sg31
S'L31-34'
p624
sg33
S'--'
p625
sg35
S'--'
p626
sg37
S'ATL'
p627
sg39
S'--'
p628
sg41
S'--'
p629
sg42
S'--'
p630
ssg82
(dp631
g5
g306
sg7
g306
sg9
g306
sg11
g306
sg13
g306
sg15
S'Chris Hogan'
p632
sg17
S'2013'
p633
sg19
S'12'
p634
sg21
g306
sg23
S'Bye'
p635
sg25
g306
sg27
g306
sg29
g306
sg31
g306
sg33
g306
sg35
g306
sg37
g306
sg39
g306
sg41
g306
sg42
g306
ssg101
(dp636
g5
S'--'
p637
sg7
S'--'
p638
sg9
g10
sg11
S'--'
p639
sg13
g14
sg15
S'Chris Hogan'
p640
sg17
S'2013'
p641
sg19
S'15'
p642
sg21
S'--'
p643
sg23
S'12/15'
p644
sg25
S'--'
p645
sg27
S'--'
p646
sg29
S'--'
p647
sg31
S'W27-20'
p648
sg33
S'--'
p649
sg35
S'--'
p650
sg37
S'@JAC'
p651
sg39
S'--'
p652
sg41
S'--'
p653
sg42
S'--'
p654
ssg119
(dp655
g5
S'--'
p656
sg7
S'--'
p657
sg9
g10
sg11
S'--'
p658
sg13
g14
sg15
S'Chris Hogan'
p659
sg17
S'2013'
p660
sg19
S'14'
p661
sg21
S'--'
p662
sg23
S'12/08'
p663
sg25
S'12.0'
p664
sg27
S'--'
p665
sg29
S'--'
p666
sg31
S'L6-27'
p667
sg33
S'12'
p668
sg35
g14
sg37
S'@TB'
p669
sg39
S'12'
p670
sg41
g10
sg42
S'--'
p671
ssg138
(dp672
g5
S'--'
p673
sg7
S'--'
p674
sg9
g10
sg11
S'--'
p675
sg13
g14
sg15
S'Chris Hogan'
p676
sg17
S'2013'
p677
sg19
S'17'
p678
sg21
S'--'
p679
sg23
S'12/29'
p680
sg25
S'--'
p681
sg27
S'--'
p682
sg29
S'--'
p683
sg31
S'L20-34'
p684
sg33
S'--'
p685
sg35
S'--'
p686
sg37
S'@NE'
p687
sg39
S'--'
p688
sg41
S'--'
p689
sg42
S'--'
p690
ssg151
(dp691
g5
S'--'
p692
sg7
S'--'
p693
sg9
g10
sg11
S'--'
p694
sg13
g14
sg15
S'Chris Hogan'
p695
sg17
S'2013'
p696
sg19
S'16'
p697
sg21
S'--'
p698
sg23
S'12/22'
p699
sg25
S'4.0'
p700
sg27
S'--'
p701
sg29
S'--'
p702
sg31
S'W19-0'
p703
sg33
g304
sg35
g134
sg37
S'MIA'
p704
sg39
g140
sg41
g10
sg42
S'--'
p705
ssg14
(dp706
g5
S'--'
p707
sg7
S'--'
p708
sg9
g10
sg11
S'--'
p709
sg13
g14
sg15
S'Chris Hogan'
p710
sg17
S'2013'
p711
sg19
g14
sg21
S'--'
p712
sg23
S'09/08'
p713
sg25
S'--'
p714
sg27
S'--'
p715
sg29
S'--'
p716
sg31
S'L21-23'
p717
sg33
S'--'
p718
sg35
S'--'
p719
sg37
S'NE'
p720
sg39
S'--'
p721
sg41
S'--'
p722
sg42
S'--'
p723
ssg97
(dp724
g5
S'--'
p725
sg7
S'--'
p726
sg9
g10
sg11
S'--'
p727
sg13
g14
sg15
S'Chris Hogan'
p728
sg17
S'2013'
p729
sg19
g97
sg21
S'--'
p730
sg23
S'09/22'
p731
sg25
S'--'
p732
sg27
S'--'
p733
sg29
S'--'
p734
sg31
S'L20-27'
p735
sg33
S'--'
p736
sg35
S'--'
p737
sg37
S'@NYJ'
p738
sg39
S'--'
p739
sg41
S'--'
p740
sg42
S'--'
p741
ssg134
(dp742
g5
S'--'
p743
sg7
S'--'
p744
sg9
g10
sg11
S'--'
p745
sg13
g14
sg15
S'Chris Hogan'
p746
sg17
S'2013'
p747
sg19
g134
sg21
S'--'
p748
sg23
S'09/15'
p749
sg25
S'--'
p750
sg27
S'--'
p751
sg29
S'--'
p752
sg31
S'W24-23'
p753
sg33
S'--'
p754
sg35
S'--'
p755
sg37
S'CAR'
p756
sg39
S'--'
p757
sg41
S'--'
p758
sg42
S'--'
p759
ssg219
(dp760
g5
S'--'
p761
sg7
S'--'
p762
sg9
g10
sg11
S'--'
p763
sg13
g14
sg15
S'Chris Hogan'
p764
sg17
S'2013'
p765
sg19
g219
sg21
S'--'
p766
sg23
S'10/03'
p767
sg25
S'8.0'
p768
sg27
S'--'
p769
sg29
S'--'
p770
sg31
S'L24-37'
p771
sg33
S'16'
p772
sg35
g134
sg37
S'@CLE'
p773
sg39
g285
sg41
g10
sg42
S'--'
p774
ssg140
(dp775
g5
S'--'
p776
sg7
S'--'
p777
sg9
g10
sg11
S'--'
p778
sg13
g14
sg15
S'Chris Hogan'
p779
sg17
S'2013'
p780
sg19
g140
sg21
S'--'
p781
sg23
S'09/29'
p782
sg25
S'--'
p783
sg27
S'--'
p784
sg29
S'--'
p785
sg31
S'W23-20'
p786
sg33
S'--'
p787
sg35
S'--'
p788
sg37
S'BAL'
p789
sg39
S'--'
p790
sg41
S'--'
p791
sg42
S'--'
p792
ssg252
(dp793
g5
S'--'
p794
sg7
S'--'
p795
sg9
g10
sg11
S'--'
p796
sg13
g14
sg15
S'Chris Hogan'
p797
sg17
S'2013'
p798
sg19
g252
sg21
S'--'
p799
sg23
S'10/20'
p800
sg25
S'--'
p801
sg27
S'--'
p802
sg29
S'--'
p803
sg31
S'W23-21'
p804
sg33
S'--'
p805
sg35
S'--'
p806
sg37
S'@MIA'
p807
sg39
S'--'
p808
sg41
S'--'
p809
sg42
S'--'
p810
ssg36
(dp811
g5
S'--'
p812
sg7
S'--'
p813
sg9
g10
sg11
S'--'
p814
sg13
g14
sg15
S'Chris Hogan'
p815
sg17
S'2013'
p816
sg19
g36
sg21
S'--'
p817
sg23
S'10/13'
p818
sg25
S'2.0'
p819
sg27
S'--'
p820
sg29
S'--'
p821
sg31
S'L24-27'
p822
sg33
g134
sg35
g14
sg37
S'CIN'
p823
sg39
g134
sg41
g10
sg42
S'--'
p824
ssg285
(dp825
g5
S'--'
p826
sg7
S'--'
p827
sg9
g10
sg11
S'--'
p828
sg13
g14
sg15
S'Chris Hogan'
p829
sg17
S'2013'
p830
sg19
g285
sg21
S'--'
p831
sg23
S'11/03'
p832
sg25
S'--'
p833
sg27
S'--'
p834
sg29
S'--'
p835
sg31
S'L13-23'
p836
sg33
S'--'
p837
sg35
S'--'
p838
sg37
S'KC'
p839
sg39
S'--'
p840
sg41
S'--'
p841
sg42
S'--'
p842
ssg304
(dp843
g5
S'--'
p844
sg7
S'--'
p845
sg9
g10
sg11
S'--'
p846
sg13
g14
sg15
S'Chris Hogan'
p847
sg17
S'2013'
p848
sg19
g304
sg21
S'--'
p849
sg23
S'10/27'
p850
sg25
S'--'
p851
sg27
S'--'
p852
sg29
S'--'
p853
sg31
S'L17-35'
p854
sg33
S'--'
p855
sg35
S'--'
p856
sg37
S'@NO'
p857
sg39
S'--'
p858
sg41
S'--'
p859
sg42
S'--'
p860
sssS'2012'
p861
(dp862
g138
(dp863
g5
S'--'
p864
sg7
S'--'
p865
sg9
g10
sg11
S'--'
p866
sg13
g10
sg15
S'Chris Hogan'
p867
sg17
S'2012'
p868
sg19
S'17'
p869
sg21
S'--'
p870
sg23
S'12/30'
p871
sg25
S'--'
p872
sg27
S'--'
p873
sg29
S'--'
p874
sg31
S'W28-9'
p875
sg33
S'--'
p876
sg35
S'--'
p877
sg37
S'NYJ'
p878
sg39
S'--'
p879
sg41
S'--'
p880
sg42
S'--'
p881
ssg151
(dp882
g5
S'--'
p883
sg7
S'--'
p884
sg9
g10
sg11
S'--'
p885
sg13
g10
sg15
S'Chris Hogan'
p886
sg17
S'2012'
p887
sg19
S'16'
p888
sg21
S'--'
p889
sg23
S'12/23'
p890
sg25
S'--'
p891
sg27
S'--'
p892
sg29
S'--'
p893
sg31
S'L10-24'
p894
sg33
S'--'
p895
sg35
S'--'
p896
sg37
S'@MIA'
p897
sg39
S'--'
p898
sg41
S'--'
p899
sg42
S'--'
p900
sss.