(dp0
S'2015'
p1
(dp2
S'11'
p3
(dp4
S'RushTD'
p5
S'--'
p6
sS'RushYds'
p7
S'--'
p8
sS'GS'
p9
S'0'
p10
sS'Lost'
p11
S'--'
p12
sS'G'
p13
S'1'
p14
sS'Player'
p15
S'Chris Harper'
p16
sS'Year'
p17
S'2015'
p18
sS'WK'
p19
S'11'
p20
sS'RushAvg'
p21
S'--'
p22
sS'Game Date'
p23
S'11/23'
p24
sS'RecAvg'
p25
S'--'
p26
sS'FUM'
p27
S'--'
p28
sS'RushAtt'
p29
S'--'
p30
sS'Result'
p31
S'W20-13'
p32
sS'RecYds'
p33
g10
sS'Rec'
p34
g10
sS'Opp'
p35
S'BUF'
p36
sS'RecLng'
p37
S'--'
p38
sS'RecTD'
p39
g10
sS'RushLng'
p40
S'--'
p41
ssS'12'
p42
(dp43
g5
S'--'
p44
sg7
S'--'
p45
sg9
g10
sg11
g14
sg13
g14
sg15
S'Chris Harper'
p46
sg17
S'2015'
p47
sg19
S'12'
p48
sg21
S'--'
p49
sg23
S'11/29'
p50
sg25
S'--'
p51
sg27
g14
sg29
S'--'
p52
sg31
S'L24-30'
p53
sg33
g10
sg34
g10
sg35
S'@DEN'
p54
sg37
S'--'
p55
sg39
g10
sg40
S'--'
p56
ssS'17'
p57
(dp58
g5
S'--'
p59
sg7
S'--'
p60
sg9
g10
sg11
S'--'
p61
sg13
g14
sg15
S'Chris Harper'
p62
sg17
S'2015'
p63
sg19
S'17'
p64
sg21
S'--'
p65
sg23
S'01/03'
p66
sg25
S'6.0'
p67
sg27
S'--'
p68
sg29
S'--'
p69
sg31
S'L10-20'
p70
sg33
S'6'
p71
sg34
g14
sg35
S'@MIA'
p72
sg37
g71
sg39
g10
sg40
S'--'
p73
ssS'16'
p74
(dp75
g5
S'--'
p76
sg7
S'--'
p77
sg9
g10
sg11
S'--'
p78
sg13
g14
sg15
S'Chris Harper'
p79
sg17
S'2015'
p80
sg19
S'16'
p81
sg21
S'--'
p82
sg23
S'12/27'
p83
sg25
S'--'
p84
sg27
S'--'
p85
sg29
S'--'
p86
sg31
S'L20-26'
p87
sg33
S'--'
p88
sg34
S'--'
p89
sg35
S'@NYJ'
p90
sg37
S'--'
p91
sg39
S'--'
p92
sg40
S'--'
p93
ssg14
(dp94
g5
S'--'
p95
sg7
S'--'
p96
sg9
g10
sg11
S'--'
p97
sg13
g14
sg15
S'Chris Harper'
p98
sg17
S'2015'
p99
sg19
g14
sg21
S'--'
p100
sg23
S'09/10'
p101
sg25
S'--'
p102
sg27
S'--'
p103
sg29
S'--'
p104
sg31
S'W28-21'
p105
sg33
S'--'
p106
sg34
S'--'
p107
sg35
S'PIT'
p108
sg37
S'--'
p109
sg39
S'--'
p110
sg40
S'--'
p111
sss.