(dp0
S'2015'
p1
(dp2
S'11'
p3
(dp4
S'RushTD'
p5
S'0'
p6
sS'RushYds'
p7
S'5'
p8
sS'GS'
p9
S'1'
p10
sS'Lost'
p11
S'--'
p12
sS'G'
p13
g10
sS'Player'
p14
S'Cody Latimer'
p15
sS'Year'
p16
S'2015'
p17
sS'WK'
p18
S'11'
p19
sS'RushAvg'
p20
S'5.0'
p21
sS'Game Date'
p22
S'11/22'
p23
sS'RecAvg'
p24
S'11.0'
p25
sS'FUM'
p26
S'--'
p27
sS'RushAtt'
p28
g10
sS'Result'
p29
S'W17-15'
p30
sS'RecYds'
p31
S'22'
p32
sS'Rec'
p33
S'2'
p34
sS'Opp'
p35
S'@CHI'
p36
sS'RecLng'
p37
S'12'
p38
sS'RecTD'
p39
g10
sS'RushLng'
p40
g8
ssS'10'
p41
(dp42
g5
S'--'
p43
sg7
S'--'
p44
sg9
g6
sg11
S'--'
p45
sg13
g10
sg14
S'Cody Latimer'
p46
sg16
S'2015'
p47
sg18
S'10'
p48
sg20
S'--'
p49
sg22
S'11/15'
p50
sg24
S'10.0'
p51
sg26
S'--'
p52
sg28
S'--'
p53
sg29
S'L13-29'
p54
sg31
S'30'
p55
sg33
S'3'
p56
sg35
S'KC'
p57
sg37
S'15'
p58
sg39
g6
sg40
S'--'
p59
ssS'13'
p60
(dp61
g5
S'--'
p62
sg7
S'--'
p63
sg9
g6
sg11
S'--'
p64
sg13
g10
sg14
S'Cody Latimer'
p65
sg16
S'2015'
p66
sg18
S'13'
p67
sg20
S'--'
p68
sg22
S'12/06'
p69
sg24
S'--'
p70
sg26
S'--'
p71
sg28
S'--'
p72
sg29
S'W17-3'
p73
sg31
S'--'
p74
sg33
S'--'
p75
sg35
S'@SD'
p76
sg37
S'--'
p77
sg39
S'--'
p78
sg40
S'--'
p79
ssS'12'
p80
(dp81
g5
S'--'
p82
sg7
S'--'
p83
sg9
g6
sg11
S'--'
p84
sg13
g10
sg14
S'Cody Latimer'
p85
sg16
S'2015'
p86
sg18
S'12'
p87
sg20
S'--'
p88
sg22
S'11/29'
p89
sg24
S'7.0'
p90
sg26
S'--'
p91
sg28
S'--'
p92
sg29
S'W30-24'
p93
sg31
S'7'
p94
sg33
g10
sg35
S'NE'
p95
sg37
g94
sg39
g6
sg40
S'--'
p96
ssS'15'
p97
(dp98
g5
S'--'
p99
sg7
S'--'
p100
sg9
g6
sg11
S'--'
p101
sg13
g10
sg14
S'Cody Latimer'
p102
sg16
S'2015'
p103
sg18
S'15'
p104
sg20
S'--'
p105
sg22
S'12/20'
p106
sg24
S'--'
p107
sg26
S'--'
p108
sg28
S'--'
p109
sg29
S'L27-34'
p110
sg31
S'--'
p111
sg33
S'--'
p112
sg35
S'@PIT'
p113
sg37
S'--'
p114
sg39
S'--'
p115
sg40
S'--'
p116
ssS'14'
p117
(dp118
g5
g6
sg7
S'-4'
p119
sg9
g6
sg11
S'--'
p120
sg13
g10
sg14
S'Cody Latimer'
p121
sg16
S'2015'
p122
sg18
S'14'
p123
sg20
S'-4.0'
p124
sg22
S'12/13'
p125
sg24
S'--'
p126
sg26
S'--'
p127
sg28
g10
sg29
S'L12-15'
p128
sg31
S'--'
p129
sg33
S'--'
p130
sg35
S'OAK'
p131
sg37
S'--'
p132
sg39
S'--'
p133
sg40
S'-4'
p134
ssS'17'
p135
(dp136
g5
S'--'
p137
sg7
S'--'
p138
sg9
g6
sg11
S'--'
p139
sg13
g10
sg14
S'Cody Latimer'
p140
sg16
S'2015'
p141
sg18
S'17'
p142
sg20
S'--'
p143
sg22
S'01/03'
p144
sg24
S'--'
p145
sg26
S'--'
p146
sg28
S'--'
p147
sg29
S'W27-20'
p148
sg31
g6
sg33
g6
sg35
S'SD'
p149
sg37
S'--'
p150
sg39
g6
sg40
S'--'
p151
ssS'16'
p152
(dp153
g5
S'--'
p154
sg7
S'--'
p155
sg9
g6
sg11
S'--'
p156
sg13
g6
sg14
S'Cody Latimer'
p157
sg16
S'2015'
p158
sg18
S'16'
p159
sg20
S'--'
p160
sg22
S'12/28'
p161
sg24
S'--'
p162
sg26
S'--'
p163
sg28
S'--'
p164
sg29
S'W20-17'
p165
sg31
S'--'
p166
sg33
S'--'
p167
sg35
S'CIN'
p168
sg37
S'--'
p169
sg39
S'--'
p170
sg40
S'--'
p171
ssg10
(dp172
g5
S'--'
p173
sg7
S'--'
p174
sg9
g6
sg11
S'--'
p175
sg13
g10
sg14
S'Cody Latimer'
p176
sg16
S'2015'
p177
sg18
g10
sg20
S'--'
p178
sg22
S'09/13'
p179
sg24
S'--'
p180
sg26
S'--'
p181
sg28
S'--'
p182
sg29
S'W19-13'
p183
sg31
S'--'
p184
sg33
S'--'
p185
sg35
S'BAL'
p186
sg37
S'--'
p187
sg39
S'--'
p188
sg40
S'--'
p189
ssg56
(dp190
g5
S'--'
p191
sg7
S'--'
p192
sg9
g6
sg11
S'--'
p193
sg13
g10
sg14
S'Cody Latimer'
p194
sg16
S'2015'
p195
sg18
g56
sg20
S'--'
p196
sg22
S'09/27'
p197
sg24
S'--'
p198
sg26
S'--'
p199
sg28
S'--'
p200
sg29
S'W24-12'
p201
sg31
S'--'
p202
sg33
S'--'
p203
sg35
S'@DET'
p204
sg37
S'--'
p205
sg39
S'--'
p206
sg40
S'--'
p207
ssg34
(dp208
g5
S'--'
p209
sg7
S'--'
p210
sg9
g6
sg11
S'--'
p211
sg13
g10
sg14
S'Cody Latimer'
p212
sg16
S'2015'
p213
sg18
g34
sg20
S'--'
p214
sg22
S'09/17'
p215
sg24
S'--'
p216
sg26
S'--'
p217
sg28
S'--'
p218
sg29
S'W31-24'
p219
sg31
S'--'
p220
sg33
S'--'
p221
sg35
S'@KC'
p222
sg37
S'--'
p223
sg39
S'--'
p224
sg40
S'--'
p225
ssg8
(dp226
g5
S'--'
p227
sg7
S'--'
p228
sg9
g6
sg11
S'--'
p229
sg13
g6
sg14
S'Cody Latimer'
p230
sg16
S'2015'
p231
sg18
g8
sg20
S'--'
p232
sg22
S'10/11'
p233
sg24
S'--'
p234
sg26
S'--'
p235
sg28
S'--'
p236
sg29
S'W16-10'
p237
sg31
S'--'
p238
sg33
S'--'
p239
sg35
S'@OAK'
p240
sg37
S'--'
p241
sg39
S'--'
p242
sg40
S'--'
p243
ssS'4'
p244
(dp245
g5
S'--'
p246
sg7
S'--'
p247
sg9
g6
sg11
S'--'
p248
sg13
g10
sg14
S'Cody Latimer'
p249
sg16
S'2015'
p250
sg18
g244
sg20
S'--'
p251
sg22
S'10/04'
p252
sg24
S'--'
p253
sg26
S'--'
p254
sg28
S'--'
p255
sg29
S'W23-20'
p256
sg31
S'--'
p257
sg33
S'--'
p258
sg35
S'MIN'
p259
sg37
S'--'
p260
sg39
S'--'
p261
sg40
S'--'
p262
ssg94
(dp263
g5
S''
p264
sg7
g264
sg9
g264
sg11
g264
sg13
g264
sg14
S'Cody Latimer'
p265
sg16
S'2015'
p266
sg18
g94
sg20
g264
sg22
S'Bye'
p267
sg24
g264
sg26
g264
sg28
g264
sg29
g264
sg31
g264
sg33
g264
sg35
g264
sg37
g264
sg39
g264
sg40
g264
ssS'6'
p268
(dp269
g5
S'--'
p270
sg7
S'--'
p271
sg9
g6
sg11
S'--'
p272
sg13
g10
sg14
S'Cody Latimer'
p273
sg16
S'2015'
p274
sg18
g268
sg20
S'--'
p275
sg22
S'10/18'
p276
sg24
S'--'
p277
sg26
S'--'
p278
sg28
S'--'
p279
sg29
S'W26-23'
p280
sg31
g6
sg33
g6
sg35
S'@CLE'
p281
sg37
S'--'
p282
sg39
g6
sg40
S'--'
p283
ssS'9'
p284
(dp285
g5
S'--'
p286
sg7
S'--'
p287
sg9
g6
sg11
S'--'
p288
sg13
g10
sg14
S'Cody Latimer'
p289
sg16
S'2015'
p290
sg18
g284
sg20
S'--'
p291
sg22
S'11/08'
p292
sg24
S'--'
p293
sg26
S'--'
p294
sg28
S'--'
p295
sg29
S'L24-27'
p296
sg31
S'--'
p297
sg33
S'--'
p298
sg35
S'@IND'
p299
sg37
S'--'
p300
sg39
S'--'
p301
sg40
S'--'
p302
ssS'8'
p303
(dp304
g5
S'--'
p305
sg7
S'--'
p306
sg9
g6
sg11
S'--'
p307
sg13
g10
sg14
S'Cody Latimer'
p308
sg16
S'2015'
p309
sg18
g303
sg20
S'--'
p310
sg22
S'11/01'
p311
sg24
S'--'
p312
sg26
S'--'
p313
sg28
S'--'
p314
sg29
S'W29-10'
p315
sg31
S'--'
p316
sg33
S'--'
p317
sg35
S'GB'
p318
sg37
S'--'
p319
sg39
S'--'
p320
sg40
S'--'
p321
sssS'2014'
p322
(dp323
g3
(dp324
g5
S'--'
p325
sg7
S'--'
p326
sg9
g6
sg11
S'--'
p327
sg13
g6
sg14
S'Cody Latimer'
p328
sg16
S'2014'
p329
sg18
S'11'
p330
sg20
S'--'
p331
sg22
S'11/16'
p332
sg24
S'--'
p333
sg26
S'--'
p334
sg28
S'--'
p335
sg29
S'L7-22'
p336
sg31
S'--'
p337
sg33
S'--'
p338
sg35
S'@STL'
p339
sg37
S'--'
p340
sg39
S'--'
p341
sg40
S'--'
p342
ssg41
(dp343
g5
S'--'
p344
sg7
S'--'
p345
sg9
g6
sg11
S'--'
p346
sg13
g10
sg14
S'Cody Latimer'
p347
sg16
S'2014'
p348
sg18
S'10'
p349
sg20
S'--'
p350
sg22
S'11/09'
p351
sg24
S'9.0'
p352
sg26
S'--'
p353
sg28
S'--'
p354
sg29
S'W41-17'
p355
sg31
g284
sg33
g10
sg35
S'@OAK'
p356
sg37
g284
sg39
g6
sg40
S'--'
p357
ssg60
(dp358
g5
S'--'
p359
sg7
S'--'
p360
sg9
g6
sg11
S'--'
p361
sg13
g10
sg14
S'Cody Latimer'
p362
sg16
S'2014'
p363
sg18
S'13'
p364
sg20
S'--'
p365
sg22
S'11/30'
p366
sg24
S'--'
p367
sg26
S'--'
p368
sg28
S'--'
p369
sg29
S'W29-16'
p370
sg31
g6
sg33
g6
sg35
S'@KC'
p371
sg37
S'--'
p372
sg39
g6
sg40
S'--'
p373
ssg80
(dp374
g5
S'--'
p375
sg7
S'--'
p376
sg9
g6
sg11
S'--'
p377
sg13
g10
sg14
S'Cody Latimer'
p378
sg16
S'2014'
p379
sg18
S'12'
p380
sg20
S'--'
p381
sg22
S'11/23'
p382
sg24
S'--'
p383
sg26
S'--'
p384
sg28
S'--'
p385
sg29
S'W39-36'
p386
sg31
S'--'
p387
sg33
S'--'
p388
sg35
S'MIA'
p389
sg37
S'--'
p390
sg39
S'--'
p391
sg40
S'--'
p392
ssg97
(dp393
g5
S'--'
p394
sg7
S'--'
p395
sg9
g6
sg11
S'--'
p396
sg13
g6
sg14
S'Cody Latimer'
p397
sg16
S'2014'
p398
sg18
S'15'
p399
sg20
S'--'
p400
sg22
S'12/14'
p401
sg24
S'--'
p402
sg26
S'--'
p403
sg28
S'--'
p404
sg29
S'W22-10'
p405
sg31
S'--'
p406
sg33
S'--'
p407
sg35
S'@SD'
p408
sg37
S'--'
p409
sg39
S'--'
p410
sg40
S'--'
p411
ssg117
(dp412
g5
S'--'
p413
sg7
S'--'
p414
sg9
g6
sg11
S'--'
p415
sg13
g6
sg14
S'Cody Latimer'
p416
sg16
S'2014'
p417
sg18
S'14'
p418
sg20
S'--'
p419
sg22
S'12/07'
p420
sg24
S'--'
p421
sg26
S'--'
p422
sg28
S'--'
p423
sg29
S'W24-17'
p424
sg31
S'--'
p425
sg33
S'--'
p426
sg35
S'BUF'
p427
sg37
S'--'
p428
sg39
S'--'
p429
sg40
S'--'
p430
ssg135
(dp431
g5
S'--'
p432
sg7
S'--'
p433
sg9
g6
sg11
S'--'
p434
sg13
g10
sg14
S'Cody Latimer'
p435
sg16
S'2014'
p436
sg18
S'17'
p437
sg20
S'--'
p438
sg22
S'12/28'
p439
sg24
S'14.0'
p440
sg26
S'--'
p441
sg28
S'--'
p442
sg29
S'W47-14'
p443
sg31
S'14'
p444
sg33
g10
sg35
S'OAK'
p445
sg37
S'14'
p446
sg39
g6
sg40
S'--'
p447
ssg152
(dp448
g5
S'--'
p449
sg7
S'--'
p450
sg9
g6
sg11
S'--'
p451
sg13
g10
sg14
S'Cody Latimer'
p452
sg16
S'2014'
p453
sg18
S'16'
p454
sg20
S'--'
p455
sg22
S'12/22'
p456
sg24
S'--'
p457
sg26
S'--'
p458
sg28
S'--'
p459
sg29
S'L28-37'
p460
sg31
S'--'
p461
sg33
S'--'
p462
sg35
S'@CIN'
p463
sg37
S'--'
p464
sg39
S'--'
p465
sg40
S'--'
p466
ssg10
(dp467
g5
S'--'
p468
sg7
S'--'
p469
sg9
g6
sg11
S'--'
p470
sg13
g10
sg14
S'Cody Latimer'
p471
sg16
S'2014'
p472
sg18
g10
sg20
S'--'
p473
sg22
S'09/07'
p474
sg24
S'--'
p475
sg26
S'--'
p476
sg28
S'--'
p477
sg29
S'W31-24'
p478
sg31
S'--'
p479
sg33
S'--'
p480
sg35
S'IND'
p481
sg37
S'--'
p482
sg39
S'--'
p483
sg40
S'--'
p484
ssg56
(dp485
g5
S'--'
p486
sg7
S'--'
p487
sg9
g6
sg11
S'--'
p488
sg13
g6
sg14
S'Cody Latimer'
p489
sg16
S'2014'
p490
sg18
g56
sg20
S'--'
p491
sg22
S'09/21'
p492
sg24
S'--'
p493
sg26
S'--'
p494
sg28
S'--'
p495
sg29
S'L20-26'
p496
sg31
S'--'
p497
sg33
S'--'
p498
sg35
S'@SEA'
p499
sg37
S'--'
p500
sg39
S'--'
p501
sg40
S'--'
p502
ssg34
(dp503
g5
S'--'
p504
sg7
S'--'
p505
sg9
g6
sg11
S'--'
p506
sg13
g6
sg14
S'Cody Latimer'
p507
sg16
S'2014'
p508
sg18
g34
sg20
S'--'
p509
sg22
S'09/14'
p510
sg24
S'--'
p511
sg26
S'--'
p512
sg28
S'--'
p513
sg29
S'W24-17'
p514
sg31
S'--'
p515
sg33
S'--'
p516
sg35
S'KC'
p517
sg37
S'--'
p518
sg39
S'--'
p519
sg40
S'--'
p520
ssg8
(dp521
g5
S'--'
p522
sg7
S'--'
p523
sg9
g6
sg11
S'--'
p524
sg13
g6
sg14
S'Cody Latimer'
p525
sg16
S'2014'
p526
sg18
g8
sg20
S'--'
p527
sg22
S'10/05'
p528
sg24
S'--'
p529
sg26
S'--'
p530
sg28
S'--'
p531
sg29
S'W41-20'
p532
sg31
S'--'
p533
sg33
S'--'
p534
sg35
S'ARI'
p535
sg37
S'--'
p536
sg39
S'--'
p537
sg40
S'--'
p538
ssg244
(dp539
g5
g264
sg7
g264
sg9
g264
sg11
g264
sg13
g264
sg14
S'Cody Latimer'
p540
sg16
S'2014'
p541
sg18
g244
sg20
g264
sg22
S'Bye'
p542
sg24
g264
sg26
g264
sg28
g264
sg29
g264
sg31
g264
sg33
g264
sg35
g264
sg37
g264
sg39
g264
sg40
g264
ssg94
(dp543
g5
S'--'
p544
sg7
S'--'
p545
sg9
g6
sg11
S'--'
p546
sg13
g6
sg14
S'Cody Latimer'
p547
sg16
S'2014'
p548
sg18
g94
sg20
S'--'
p549
sg22
S'10/19'
p550
sg24
S'--'
p551
sg26
S'--'
p552
sg28
S'--'
p553
sg29
S'W42-17'
p554
sg31
S'--'
p555
sg33
S'--'
p556
sg35
S'SF'
p557
sg37
S'--'
p558
sg39
S'--'
p559
sg40
S'--'
p560
ssg268
(dp561
g5
S'--'
p562
sg7
S'--'
p563
sg9
g6
sg11
S'--'
p564
sg13
g6
sg14
S'Cody Latimer'
p565
sg16
S'2014'
p566
sg18
g268
sg20
S'--'
p567
sg22
S'10/12'
p568
sg24
S'--'
p569
sg26
S'--'
p570
sg28
S'--'
p571
sg29
S'W31-17'
p572
sg31
S'--'
p573
sg33
S'--'
p574
sg35
S'@NYJ'
p575
sg37
S'--'
p576
sg39
S'--'
p577
sg40
S'--'
p578
ssg284
(dp579
g5
S'--'
p580
sg7
S'--'
p581
sg9
g6
sg11
S'--'
p582
sg13
g10
sg14
S'Cody Latimer'
p583
sg16
S'2014'
p584
sg18
g284
sg20
S'--'
p585
sg22
S'11/02'
p586
sg24
S'--'
p587
sg26
S'--'
p588
sg28
S'--'
p589
sg29
S'L21-43'
p590
sg31
S'--'
p591
sg33
S'--'
p592
sg35
S'@NE'
p593
sg37
S'--'
p594
sg39
S'--'
p595
sg40
S'--'
p596
ssg303
(dp597
g5
S'--'
p598
sg7
S'--'
p599
sg9
g6
sg11
S'--'
p600
sg13
g10
sg14
S'Cody Latimer'
p601
sg16
S'2014'
p602
sg18
g303
sg20
S'--'
p603
sg22
S'10/23'
p604
sg24
S'--'
p605
sg26
S'--'
p606
sg28
S'--'
p607
sg29
S'W35-21'
p608
sg31
S'--'
p609
sg33
S'--'
p610
sg35
S'SD'
p611
sg37
S'--'
p612
sg39
S'--'
p613
sg40
S'--'
p614
sss.