(dp0
S'2015'
p1
(dp2
S'11'
p3
(dp4
S'RushTD'
p5
S'--'
p6
sS'RushYds'
p7
S'--'
p8
sS'GS'
p9
S'0'
p10
sS'Lost'
p11
S'--'
p12
sS'G'
p13
S'1'
p14
sS'Player'
p15
S'Cole Beasley'
p16
sS'Year'
p17
S'2015'
p18
sS'WK'
p19
S'11'
p20
sS'RushAvg'
p21
S'--'
p22
sS'Game Date'
p23
S'11/22'
p24
sS'RecAvg'
p25
S'14.0'
p26
sS'FUM'
p27
S'--'
p28
sS'RushAtt'
p29
S'--'
p30
sS'Result'
p31
S'W24-14'
p32
sS'RecYds'
p33
S'14'
p34
sS'Rec'
p35
g14
sS'Opp'
p36
S'@MIA'
p37
sS'RecLng'
p38
S'14'
p39
sS'RecTD'
p40
g10
sS'RushLng'
p41
S'--'
p42
ssS'10'
p43
(dp44
g5
S'--'
p45
sg7
S'--'
p46
sg9
g14
sg11
S'--'
p47
sg13
g14
sg15
S'Cole Beasley'
p48
sg17
S'2015'
p49
sg19
S'10'
p50
sg21
S'--'
p51
sg23
S'11/15'
p52
sg25
S'8.0'
p53
sg27
S'--'
p54
sg29
S'--'
p55
sg31
S'L6-10'
p56
sg33
S'8'
p57
sg35
g14
sg36
S'@TB'
p58
sg38
g57
sg40
g10
sg41
S'--'
p59
ssS'13'
p60
(dp61
g5
S'--'
p62
sg7
S'--'
p63
sg9
g10
sg11
S'--'
p64
sg13
g14
sg15
S'Cole Beasley'
p65
sg17
S'2015'
p66
sg19
S'13'
p67
sg21
S'--'
p68
sg23
S'12/07'
p69
sg25
S'--'
p70
sg27
S'--'
p71
sg29
S'--'
p72
sg31
S'W19-16'
p73
sg33
g10
sg35
g10
sg36
S'@WAS'
p74
sg38
S'--'
p75
sg40
g10
sg41
S'--'
p76
ssS'12'
p77
(dp78
g5
S'--'
p79
sg7
S'--'
p80
sg9
g10
sg11
S'--'
p81
sg13
g14
sg15
S'Cole Beasley'
p82
sg17
S'2015'
p83
sg19
S'12'
p84
sg21
S'--'
p85
sg23
S'11/26'
p86
sg25
S'7.3'
p87
sg27
S'--'
p88
sg29
S'--'
p89
sg31
S'L14-33'
p90
sg33
S'44'
p91
sg35
S'6'
p92
sg36
S'CAR'
p93
sg38
S'17'
p94
sg40
g14
sg41
S'--'
p95
ssS'15'
p96
(dp97
g5
S'--'
p98
sg7
S'--'
p99
sg9
g14
sg11
S'--'
p100
sg13
g14
sg15
S'Cole Beasley'
p101
sg17
S'2015'
p102
sg19
S'15'
p103
sg21
S'--'
p104
sg23
S'12/19'
p105
sg25
S'12.3'
p106
sg27
S'--'
p107
sg29
S'--'
p108
sg31
S'L16-19'
p109
sg33
S'37'
p110
sg35
S'3'
p111
sg36
S'NYJ'
p112
sg38
S'23'
p113
sg40
g10
sg41
S'--'
p114
ssS'14'
p115
(dp116
g5
S'--'
p117
sg7
S'--'
p118
sg9
g10
sg11
S'--'
p119
sg13
g14
sg15
S'Cole Beasley'
p120
sg17
S'2015'
p121
sg19
S'14'
p122
sg21
S'--'
p123
sg23
S'12/13'
p124
sg25
S'8.3'
p125
sg27
S'--'
p126
sg29
S'--'
p127
sg31
S'L7-28'
p128
sg33
S'25'
p129
sg35
g111
sg36
S'@GB'
p130
sg38
S'12'
p131
sg40
g10
sg41
S'--'
p132
ssS'17'
p133
(dp134
g5
S'--'
p135
sg7
S'--'
p136
sg9
g10
sg11
S'--'
p137
sg13
g14
sg15
S'Cole Beasley'
p138
sg17
S'2015'
p139
sg19
S'17'
p140
sg21
S'--'
p141
sg23
S'01/03'
p142
sg25
S'10.6'
p143
sg27
S'--'
p144
sg29
S'--'
p145
sg31
S'L23-34'
p146
sg33
S'53'
p147
sg35
S'5'
p148
sg36
S'WAS'
p149
sg38
S'22'
p150
sg40
S'2'
p151
sg41
S'--'
p152
ssS'16'
p153
(dp154
g5
S'--'
p155
sg7
S'--'
p156
sg9
g14
sg11
S'--'
p157
sg13
g14
sg15
S'Cole Beasley'
p158
sg17
S'2015'
p159
sg19
S'16'
p160
sg21
S'--'
p161
sg23
S'12/27'
p162
sg25
S'14.5'
p163
sg27
S'--'
p164
sg29
S'--'
p165
sg31
S'L6-16'
p166
sg33
S'29'
p167
sg35
g151
sg36
S'@BUF'
p168
sg38
S'25'
p169
sg40
g10
sg41
S'--'
p170
ssg14
(dp171
g5
S'--'
p172
sg7
S'--'
p173
sg9
g10
sg11
g14
sg13
g14
sg15
S'Cole Beasley'
p174
sg17
S'2015'
p175
sg19
g14
sg21
S'--'
p176
sg23
S'09/13'
p177
sg25
S'12.3'
p178
sg27
g14
sg29
S'--'
p179
sg31
S'W27-26'
p180
sg33
S'49'
p181
sg35
S'4'
p182
sg36
S'NYG'
p183
sg38
S'16'
p184
sg40
g10
sg41
S'--'
p185
ssg111
(dp186
g5
S'--'
p187
sg7
S'--'
p188
sg9
g10
sg11
S'--'
p189
sg13
g14
sg15
S'Cole Beasley'
p190
sg17
S'2015'
p191
sg19
g111
sg21
S'--'
p192
sg23
S'09/27'
p193
sg25
S'12.3'
p194
sg27
S'--'
p195
sg29
S'--'
p196
sg31
S'L28-39'
p197
sg33
S'49'
p198
sg35
g182
sg36
S'ATL'
p199
sg38
S'20'
p200
sg40
g10
sg41
S'--'
p201
ssg151
(dp202
g5
S'--'
p203
sg7
S'--'
p204
sg9
g10
sg11
S'--'
p205
sg13
g14
sg15
S'Cole Beasley'
p206
sg17
S'2015'
p207
sg19
g151
sg21
S'--'
p208
sg23
S'09/20'
p209
sg25
S'3.5'
p210
sg27
S'--'
p211
sg29
S'--'
p212
sg31
S'W20-10'
p213
sg33
S'14'
p214
sg35
g182
sg36
S'@PHI'
p215
sg38
S'9'
p216
sg40
g10
sg41
S'--'
p217
ssg148
(dp218
g5
S'--'
p219
sg7
S'--'
p220
sg9
g10
sg11
S'--'
p221
sg13
g14
sg15
S'Cole Beasley'
p222
sg17
S'2015'
p223
sg19
g148
sg21
S'--'
p224
sg23
S'10/11'
p225
sg25
S'10.0'
p226
sg27
S'--'
p227
sg29
S'--'
p228
sg31
S'L6-30'
p229
sg33
S'40'
p230
sg35
g182
sg36
S'NE'
p231
sg38
S'21'
p232
sg40
g10
sg41
S'--'
p233
ssg182
(dp234
g5
S'--'
p235
sg7
S'--'
p236
sg9
g10
sg11
S'--'
p237
sg13
g14
sg15
S'Cole Beasley'
p238
sg17
S'2015'
p239
sg19
g182
sg21
S'--'
p240
sg23
S'10/04'
p241
sg25
S'10.3'
p242
sg27
S'--'
p243
sg29
S'--'
p244
sg31
S'L20-26'
p245
sg33
S'62'
p246
sg35
g92
sg36
S'@NO'
p247
sg38
S'19'
p248
sg40
g10
sg41
S'--'
p249
ssS'7'
p250
(dp251
g5
S'--'
p252
sg7
S'--'
p253
sg9
g10
sg11
g14
sg13
g14
sg15
S'Cole Beasley'
p254
sg17
S'2015'
p255
sg19
g250
sg21
S'--'
p256
sg23
S'10/25'
p257
sg25
S'--'
p258
sg27
g14
sg29
S'--'
p259
sg31
S'L20-27'
p260
sg33
g10
sg35
g10
sg36
S'@NYG'
p261
sg38
S'--'
p262
sg40
g10
sg41
S'--'
p263
ssg92
(dp264
g5
S''
p265
sg7
g265
sg9
g265
sg11
g265
sg13
g265
sg15
S'Cole Beasley'
p266
sg17
S'2015'
p267
sg19
g92
sg21
g265
sg23
S'Bye'
p268
sg25
g265
sg27
g265
sg29
g265
sg31
g265
sg33
g265
sg35
g265
sg36
g265
sg38
g265
sg40
g265
sg41
g265
ssg216
(dp269
g5
S'--'
p270
sg7
S'--'
p271
sg9
g10
sg11
S'--'
p272
sg13
g14
sg15
S'Cole Beasley'
p273
sg17
S'2015'
p274
sg19
g216
sg21
S'--'
p275
sg23
S'11/08'
p276
sg25
S'12.4'
p277
sg27
S'--'
p278
sg29
S'--'
p279
sg31
S'L27-33'
p280
sg33
S'112'
p281
sg35
g216
sg36
S'PHI'
p282
sg38
S'30'
p283
sg40
g151
sg41
S'--'
p284
ssg57
(dp285
g5
S'--'
p286
sg7
S'--'
p287
sg9
g10
sg11
S'--'
p288
sg13
g14
sg15
S'Cole Beasley'
p289
sg17
S'2015'
p290
sg19
g57
sg21
S'--'
p291
sg23
S'11/01'
p292
sg25
S'--'
p293
sg27
S'--'
p294
sg29
S'--'
p295
sg31
S'L12-13'
p296
sg33
g10
sg35
g10
sg36
S'SEA'
p297
sg38
S'--'
p298
sg40
g10
sg41
S'--'
p299
sssS'2014'
p300
(dp301
g3
(dp302
g5
g265
sg7
g265
sg9
g265
sg11
g265
sg13
g265
sg15
S'Cole Beasley'
p303
sg17
S'2014'
p304
sg19
S'11'
p305
sg21
g265
sg23
S'Bye'
p306
sg25
g265
sg27
g265
sg29
g265
sg31
g265
sg33
g265
sg35
g265
sg36
g265
sg38
g265
sg40
g265
sg41
g265
ssg43
(dp307
g5
S'--'
p308
sg7
S'--'
p309
sg9
g10
sg11
g14
sg13
g14
sg15
S'Cole Beasley'
p310
sg17
S'2014'
p311
sg19
S'10'
p312
sg21
S'--'
p313
sg23
S'11/09'
p314
sg25
S'11.0'
p315
sg27
g14
sg29
S'--'
p316
sg31
S'W31-17'
p317
sg33
S'11'
p318
sg35
g14
sg36
S'@JAC'
p319
sg38
S'11'
p320
sg40
g10
sg41
S'--'
p321
ssg60
(dp322
g5
S'--'
p323
sg7
S'--'
p324
sg9
g10
sg11
g14
sg13
g14
sg15
S'Cole Beasley'
p325
sg17
S'2014'
p326
sg19
S'13'
p327
sg21
S'--'
p328
sg23
S'11/27'
p329
sg25
S'10.3'
p330
sg27
g14
sg29
S'--'
p331
sg31
S'L10-33'
p332
sg33
S'41'
p333
sg35
g182
sg36
S'PHI'
p334
sg38
S'16'
p335
sg40
g10
sg41
S'--'
p336
ssg77
(dp337
g5
S'--'
p338
sg7
S'--'
p339
sg9
g10
sg11
S'--'
p340
sg13
g14
sg15
S'Cole Beasley'
p341
sg17
S'2014'
p342
sg19
S'12'
p343
sg21
S'--'
p344
sg23
S'11/23'
p345
sg25
S'33.0'
p346
sg27
S'--'
p347
sg29
S'--'
p348
sg31
S'W31-28'
p349
sg33
S'66'
p350
sg35
g151
sg36
S'@NYG'
p351
sg38
S'45T'
p352
sg40
g14
sg41
S'--'
p353
ssg96
(dp354
g5
S'--'
p355
sg7
S'--'
p356
sg9
g10
sg11
S'--'
p357
sg13
g14
sg15
S'Cole Beasley'
p358
sg17
S'2014'
p359
sg19
S'15'
p360
sg21
S'--'
p361
sg23
S'12/14'
p362
sg25
S'10.5'
p363
sg27
S'--'
p364
sg29
S'--'
p365
sg31
S'W38-27'
p366
sg33
S'42'
p367
sg35
g182
sg36
S'@PHI'
p368
sg38
S'13'
p369
sg40
g10
sg41
S'--'
p370
ssg115
(dp371
g5
S'--'
p372
sg7
S'--'
p373
sg9
g10
sg11
S'--'
p374
sg13
g14
sg15
S'Cole Beasley'
p375
sg17
S'2014'
p376
sg19
S'14'
p377
sg21
S'--'
p378
sg23
S'12/04'
p379
sg25
S'14.0'
p380
sg27
S'--'
p381
sg29
S'--'
p382
sg31
S'W41-28'
p383
sg33
S'42'
p384
sg35
g111
sg36
S'@CHI'
p385
sg38
S'24T'
p386
sg40
g151
sg41
S'--'
p387
ssg133
(dp388
g5
S'--'
p389
sg7
S'--'
p390
sg9
g10
sg11
S'--'
p391
sg13
g14
sg15
S'Cole Beasley'
p392
sg17
S'2014'
p393
sg19
S'17'
p394
sg21
S'--'
p395
sg23
S'12/28'
p396
sg25
S'9.5'
p397
sg27
S'--'
p398
sg29
S'--'
p399
sg31
S'W44-17'
p400
sg33
S'57'
p401
sg35
g92
sg36
S'@WAS'
p402
sg38
S'19'
p403
sg40
g10
sg41
S'--'
p404
ssg153
(dp405
g5
S'--'
p406
sg7
S'--'
p407
sg9
g10
sg11
S'--'
p408
sg13
g14
sg15
S'Cole Beasley'
p409
sg17
S'2014'
p410
sg19
S'16'
p411
sg21
S'--'
p412
sg23
S'12/21'
p413
sg25
S'14.5'
p414
sg27
S'--'
p415
sg29
S'--'
p416
sg31
S'W42-7'
p417
sg33
S'29'
p418
sg35
g151
sg36
S'IND'
p419
sg38
S'24T'
p420
sg40
g14
sg41
S'--'
p421
ssg14
(dp422
g5
S'--'
p423
sg7
S'--'
p424
sg9
g10
sg11
S'--'
p425
sg13
g14
sg15
S'Cole Beasley'
p426
sg17
S'2014'
p427
sg19
g14
sg21
S'--'
p428
sg23
S'09/07'
p429
sg25
S'10.5'
p430
sg27
S'--'
p431
sg29
S'--'
p432
sg31
S'L17-28'
p433
sg33
S'42'
p434
sg35
g182
sg36
S'SF'
p435
sg38
S'13'
p436
sg40
g10
sg41
S'--'
p437
ssg111
(dp438
g5
S'--'
p439
sg7
S'--'
p440
sg9
g10
sg11
S'--'
p441
sg13
g14
sg15
S'Cole Beasley'
p442
sg17
S'2014'
p443
sg19
g111
sg21
S'--'
p444
sg23
S'09/21'
p445
sg25
S'9.0'
p446
sg27
S'--'
p447
sg29
S'--'
p448
sg31
S'W34-31'
p449
sg33
g216
sg35
g14
sg36
S'@STL'
p450
sg38
g216
sg40
g10
sg41
S'--'
p451
ssg151
(dp452
g5
S'--'
p453
sg7
S'--'
p454
sg9
g10
sg11
S'--'
p455
sg13
g14
sg15
S'Cole Beasley'
p456
sg17
S'2014'
p457
sg19
g151
sg21
S'--'
p458
sg23
S'09/14'
p459
sg25
S'10.0'
p460
sg27
S'--'
p461
sg29
S'--'
p462
sg31
S'W26-10'
p463
sg33
S'10'
p464
sg35
g14
sg36
S'@TEN'
p465
sg38
S'10'
p466
sg40
g10
sg41
S'--'
p467
ssg148
(dp468
g5
S'--'
p469
sg7
S'--'
p470
sg9
g10
sg11
S'--'
p471
sg13
g14
sg15
S'Cole Beasley'
p472
sg17
S'2014'
p473
sg19
g148
sg21
S'--'
p474
sg23
S'10/05'
p475
sg25
S'5.8'
p476
sg27
S'--'
p477
sg29
S'--'
p478
sg31
S'W20-17'
p479
sg33
S'23'
p480
sg35
g182
sg36
S'HOU'
p481
sg38
g57
sg40
g10
sg41
S'--'
p482
ssg182
(dp483
g5
S'--'
p484
sg7
S'--'
p485
sg9
g14
sg11
S'--'
p486
sg13
g14
sg15
S'Cole Beasley'
p487
sg17
S'2014'
p488
sg19
g182
sg21
S'--'
p489
sg23
S'09/28'
p490
sg25
S'7.0'
p491
sg27
S'--'
p492
sg29
S'--'
p493
sg31
S'W38-17'
p494
sg33
S'14'
p495
sg35
g151
sg36
S'NO'
p496
sg38
S'10'
p497
sg40
g10
sg41
S'--'
p498
ssg250
(dp499
g5
S'--'
p500
sg7
S'--'
p501
sg9
g10
sg11
S'--'
p502
sg13
g14
sg15
S'Cole Beasley'
p503
sg17
S'2014'
p504
sg19
g250
sg21
S'--'
p505
sg23
S'10/19'
p506
sg25
S'--'
p507
sg27
S'--'
p508
sg29
S'--'
p509
sg31
S'W31-21'
p510
sg33
S'--'
p511
sg35
S'--'
p512
sg36
S'NYG'
p513
sg38
S'--'
p514
sg40
S'--'
p515
sg41
S'--'
p516
ssg92
(dp517
g5
S'--'
p518
sg7
S'--'
p519
sg9
g10
sg11
S'--'
p520
sg13
g14
sg15
S'Cole Beasley'
p521
sg17
S'2014'
p522
sg19
g92
sg21
S'--'
p523
sg23
S'10/12'
p524
sg25
S'11.0'
p525
sg27
S'--'
p526
sg29
S'--'
p527
sg31
S'W30-23'
p528
sg33
S'11'
p529
sg35
g14
sg36
S'@SEA'
p530
sg38
S'11'
p531
sg40
g10
sg41
S'--'
p532
ssg216
(dp533
g5
S'--'
p534
sg7
S'--'
p535
sg9
g14
sg11
S'--'
p536
sg13
g14
sg15
S'Cole Beasley'
p537
sg17
S'2014'
p538
sg19
g216
sg21
S'--'
p539
sg23
S'11/02'
p540
sg25
S'12.0'
p541
sg27
S'--'
p542
sg29
S'--'
p543
sg31
S'L17-28'
p544
sg33
S'12'
p545
sg35
g14
sg36
S'ARI'
p546
sg38
S'12'
p547
sg40
g10
sg41
S'--'
p548
ssg57
(dp549
g5
S'--'
p550
sg7
S'--'
p551
sg9
g10
sg11
S'--'
p552
sg13
g14
sg15
S'Cole Beasley'
p553
sg17
S'2014'
p554
sg19
g57
sg21
S'--'
p555
sg23
S'10/27'
p556
sg25
S'11.0'
p557
sg27
S'--'
p558
sg29
S'--'
p559
sg31
S'L17-20'
p560
sg33
S'11'
p561
sg35
g14
sg36
S'WAS'
p562
sg38
S'11'
p563
sg40
g10
sg41
S'--'
p564
sssS'2013'
p565
(dp566
g3
(dp567
g5
g265
sg7
g265
sg9
g265
sg11
g265
sg13
g265
sg15
S'Cole Beasley'
p568
sg17
S'2013'
p569
sg19
S'11'
p570
sg21
g265
sg23
S'Bye'
p571
sg25
g265
sg27
g265
sg29
g265
sg31
g265
sg33
g265
sg35
g265
sg36
g265
sg38
g265
sg40
g265
sg41
g265
ssg43
(dp572
g5
S'--'
p573
sg7
S'--'
p574
sg9
g10
sg11
S'--'
p575
sg13
g14
sg15
S'Cole Beasley'
p576
sg17
S'2013'
p577
sg19
S'10'
p578
sg21
S'--'
p579
sg23
S'11/10'
p580
sg25
S'18.0'
p581
sg27
S'--'
p582
sg29
S'--'
p583
sg31
S'L17-49'
p584
sg33
S'18'
p585
sg35
g14
sg36
S'@NO'
p586
sg38
S'18'
p587
sg40
g10
sg41
S'--'
p588
ssg60
(dp589
g5
S'--'
p590
sg7
S'--'
p591
sg9
g10
sg11
S'--'
p592
sg13
g14
sg15
S'Cole Beasley'
p593
sg17
S'2013'
p594
sg19
S'13'
p595
sg21
S'--'
p596
sg23
S'11/28'
p597
sg25
S'6.3'
p598
sg27
S'--'
p599
sg29
S'--'
p600
sg31
S'W31-24'
p601
sg33
S'19'
p602
sg35
g111
sg36
S'OAK'
p603
sg38
g216
sg40
g10
sg41
S'--'
p604
ssg77
(dp605
g5
S'--'
p606
sg7
S'--'
p607
sg9
g10
sg11
S'--'
p608
sg13
g14
sg15
S'Cole Beasley'
p609
sg17
S'2013'
p610
sg19
S'12'
p611
sg21
S'--'
p612
sg23
S'11/24'
p613
sg25
S'6.5'
p614
sg27
S'--'
p615
sg29
S'--'
p616
sg31
S'W24-21'
p617
sg33
S'13'
p618
sg35
g151
sg36
S'@NYG'
p619
sg38
S'13'
p620
sg40
g10
sg41
S'--'
p621
ssg96
(dp622
g5
S'--'
p623
sg7
S'--'
p624
sg9
g10
sg11
S'--'
p625
sg13
g14
sg15
S'Cole Beasley'
p626
sg17
S'2013'
p627
sg19
S'15'
p628
sg21
S'--'
p629
sg23
S'12/15'
p630
sg25
S'6.3'
p631
sg27
S'--'
p632
sg29
S'--'
p633
sg31
S'L36-37'
p634
sg33
S'19'
p635
sg35
g111
sg36
S'GB'
p636
sg38
g216
sg40
g10
sg41
S'--'
p637
ssg115
(dp638
g5
S'--'
p639
sg7
S'--'
p640
sg9
g10
sg11
S'--'
p641
sg13
g14
sg15
S'Cole Beasley'
p642
sg17
S'2013'
p643
sg19
S'14'
p644
sg21
S'--'
p645
sg23
S'12/09'
p646
sg25
S'10.0'
p647
sg27
S'--'
p648
sg29
S'--'
p649
sg31
S'L28-45'
p650
sg33
S'20'
p651
sg35
g151
sg36
S'@CHI'
p652
sg38
S'11'
p653
sg40
g14
sg41
S'--'
p654
ssg133
(dp655
g5
S'--'
p656
sg7
S'--'
p657
sg9
g10
sg11
S'--'
p658
sg13
g14
sg15
S'Cole Beasley'
p659
sg17
S'2013'
p660
sg19
S'17'
p661
sg21
S'--'
p662
sg23
S'12/29'
p663
sg25
S'7.0'
p664
sg27
S'--'
p665
sg29
S'--'
p666
sg31
S'L22-24'
p667
sg33
g250
sg35
g14
sg36
S'PHI'
p668
sg38
g250
sg40
g10
sg41
S'--'
p669
ssg153
(dp670
g5
S'--'
p671
sg7
S'--'
p672
sg9
g14
sg11
S'--'
p673
sg13
g14
sg15
S'Cole Beasley'
p674
sg17
S'2013'
p675
sg19
S'16'
p676
sg21
S'--'
p677
sg23
S'12/22'
p678
sg25
S'14.5'
p679
sg27
S'--'
p680
sg29
S'--'
p681
sg31
S'W24-23'
p682
sg33
S'29'
p683
sg35
g151
sg36
S'@WAS'
p684
sg38
S'20'
p685
sg40
g10
sg41
S'--'
p686
ssg14
(dp687
g5
S'--'
p688
sg7
S'--'
p689
sg9
g10
sg11
S'--'
p690
sg13
g10
sg15
S'Cole Beasley'
p691
sg17
S'2013'
p692
sg19
g14
sg21
S'--'
p693
sg23
S'09/08'
p694
sg25
S'--'
p695
sg27
S'--'
p696
sg29
S'--'
p697
sg31
S'W36-31'
p698
sg33
S'--'
p699
sg35
S'--'
p700
sg36
S'NYG'
p701
sg38
S'--'
p702
sg40
S'--'
p703
sg41
S'--'
p704
ssg111
(dp705
g5
S'--'
p706
sg7
S'--'
p707
sg9
g10
sg11
S'--'
p708
sg13
g14
sg15
S'Cole Beasley'
p709
sg17
S'2013'
p710
sg19
g111
sg21
S'--'
p711
sg23
S'09/22'
p712
sg25
S'7.0'
p713
sg27
S'--'
p714
sg29
S'--'
p715
sg31
S'W31-7'
p716
sg33
g250
sg35
g14
sg36
S'STL'
p717
sg38
g250
sg40
g10
sg41
S'--'
p718
ssg151
(dp719
g5
S'--'
p720
sg7
S'--'
p721
sg9
g10
sg11
S'--'
p722
sg13
g10
sg15
S'Cole Beasley'
p723
sg17
S'2013'
p724
sg19
g151
sg21
S'--'
p725
sg23
S'09/15'
p726
sg25
S'--'
p727
sg27
S'--'
p728
sg29
S'--'
p729
sg31
S'L16-17'
p730
sg33
S'--'
p731
sg35
S'--'
p732
sg36
S'@KC'
p733
sg38
S'--'
p734
sg40
S'--'
p735
sg41
S'--'
p736
ssg148
(dp737
g5
S'--'
p738
sg7
S'--'
p739
sg9
g10
sg11
S'--'
p740
sg13
g14
sg15
S'Cole Beasley'
p741
sg17
S'2013'
p742
sg19
g148
sg21
S'--'
p743
sg23
S'10/06'
p744
sg25
S'11.8'
p745
sg27
S'--'
p746
sg29
S'--'
p747
sg31
S'L48-51'
p748
sg33
S'47'
p749
sg35
g182
sg36
S'DEN'
p750
sg38
S'23'
p751
sg40
g14
sg41
S'--'
p752
ssg182
(dp753
g5
S'--'
p754
sg7
S'--'
p755
sg9
g10
sg11
S'--'
p756
sg13
g14
sg15
S'Cole Beasley'
p757
sg17
S'2013'
p758
sg19
g182
sg21
S'--'
p759
sg23
S'09/29'
p760
sg25
S'5.3'
p761
sg27
S'--'
p762
sg29
S'--'
p763
sg31
S'L21-30'
p764
sg33
S'16'
p765
sg35
g111
sg36
S'@SD'
p766
sg38
g92
sg40
g10
sg41
S'--'
p767
ssg250
(dp768
g5
S'--'
p769
sg7
S'--'
p770
sg9
g14
sg11
S'--'
p771
sg13
g14
sg15
S'Cole Beasley'
p772
sg17
S'2013'
p773
sg19
g250
sg21
S'--'
p774
sg23
S'10/20'
p775
sg25
S'8.8'
p776
sg27
S'--'
p777
sg29
S'--'
p778
sg31
S'W17-3'
p779
sg33
S'53'
p780
sg35
g92
sg36
S'@PHI'
p781
sg38
S'14'
p782
sg40
g10
sg41
S'--'
p783
ssg92
(dp784
g5
S'--'
p785
sg7
S'--'
p786
sg9
g10
sg11
S'--'
p787
sg13
g14
sg15
S'Cole Beasley'
p788
sg17
S'2013'
p789
sg19
g92
sg21
S'--'
p790
sg23
S'10/13'
p791
sg25
S'11.0'
p792
sg27
S'--'
p793
sg29
S'--'
p794
sg31
S'W31-16'
p795
sg33
S'44'
p796
sg35
g182
sg36
S'WAS'
p797
sg38
S'14'
p798
sg40
g10
sg41
S'--'
p799
ssg216
(dp800
g5
S'--'
p801
sg7
S'--'
p802
sg9
g10
sg11
S'--'
p803
sg13
g14
sg15
S'Cole Beasley'
p804
sg17
S'2013'
p805
sg19
g216
sg21
S'--'
p806
sg23
S'11/03'
p807
sg25
S'11.3'
p808
sg27
S'--'
p809
sg29
S'--'
p810
sg31
S'W27-23'
p811
sg33
S'68'
p812
sg35
g92
sg36
S'MIN'
p813
sg38
S'18'
p814
sg40
g10
sg41
S'--'
p815
ssg57
(dp816
g5
S'--'
p817
sg7
S'--'
p818
sg9
g14
sg11
g10
sg13
g14
sg15
S'Cole Beasley'
p819
sg17
S'2013'
p820
sg19
g57
sg21
S'--'
p821
sg23
S'10/27'
p822
sg25
S'8.0'
p823
sg27
g14
sg29
S'--'
p824
sg31
S'L30-31'
p825
sg33
g57
sg35
g14
sg36
S'@DET'
p826
sg38
g57
sg40
g10
sg41
S'--'
p827
sssS'2012'
p828
(dp829
g3
(dp830
g5
S'--'
p831
sg7
S'--'
p832
sg9
g10
sg11
S'--'
p833
sg13
g14
sg15
S'Cole Beasley'
p834
sg17
S'2012'
p835
sg19
S'11'
p836
sg21
S'--'
p837
sg23
S'11/18'
p838
sg25
S'8.0'
p839
sg27
S'--'
p840
sg29
S'--'
p841
sg31
S'W23-20'
p842
sg33
g57
sg35
g14
sg36
S'CLE'
p843
sg38
g57
sg40
g10
sg41
S'--'
p844
ssg43
(dp845
g5
S'--'
p846
sg7
S'--'
p847
sg9
g10
sg11
S'--'
p848
sg13
g14
sg15
S'Cole Beasley'
p849
sg17
S'2012'
p850
sg19
S'10'
p851
sg21
S'--'
p852
sg23
S'11/11'
p853
sg25
S'3.0'
p854
sg27
S'--'
p855
sg29
S'--'
p856
sg31
S'W38-23'
p857
sg33
g111
sg35
g14
sg36
S'@PHI'
p858
sg38
g111
sg40
g10
sg41
S'--'
p859
ssg60
(dp860
g5
S'--'
p861
sg7
S'--'
p862
sg9
g10
sg11
S'--'
p863
sg13
g14
sg15
S'Cole Beasley'
p864
sg17
S'2012'
p865
sg19
S'13'
p866
sg21
S'--'
p867
sg23
S'12/02'
p868
sg25
S'13.0'
p869
sg27
S'--'
p870
sg29
S'--'
p871
sg31
S'W38-33'
p872
sg33
S'13'
p873
sg35
g14
sg36
S'PHI'
p874
sg38
S'13'
p875
sg40
g10
sg41
S'--'
p876
ssg77
(dp877
g5
S'--'
p878
sg7
S'--'
p879
sg9
g10
sg11
S'--'
p880
sg13
g14
sg15
S'Cole Beasley'
p881
sg17
S'2012'
p882
sg19
S'12'
p883
sg21
S'--'
p884
sg23
S'11/22'
p885
sg25
S'9.7'
p886
sg27
S'--'
p887
sg29
S'--'
p888
sg31
S'L31-38'
p889
sg33
S'68'
p890
sg35
g250
sg36
S'WAS'
p891
sg38
S'20'
p892
sg40
g10
sg41
S'--'
p893
ssg96
(dp894
g5
S'--'
p895
sg7
S'--'
p896
sg9
g10
sg11
S'--'
p897
sg13
g14
sg15
S'Cole Beasley'
p898
sg17
S'2012'
p899
sg19
S'15'
p900
sg21
S'--'
p901
sg23
S'12/16'
p902
sg25
S'7.0'
p903
sg27
S'--'
p904
sg29
S'--'
p905
sg31
S'W27-24'
p906
sg33
S'14'
p907
sg35
g151
sg36
S'PIT'
p908
sg38
g57
sg40
g10
sg41
S'--'
p909
ssg115
(dp910
g5
S'--'
p911
sg7
S'--'
p912
sg9
g10
sg11
S'--'
p913
sg13
g10
sg15
S'Cole Beasley'
p914
sg17
S'2012'
p915
sg19
S'14'
p916
sg21
S'--'
p917
sg23
S'12/09'
p918
sg25
S'--'
p919
sg27
S'--'
p920
sg29
S'--'
p921
sg31
S'W20-19'
p922
sg33
S'--'
p923
sg35
S'--'
p924
sg36
S'@CIN'
p925
sg38
S'--'
p926
sg40
S'--'
p927
sg41
S'--'
p928
ssg133
(dp929
g5
S'--'
p930
sg7
S'--'
p931
sg9
g10
sg11
S'--'
p932
sg13
g14
sg15
S'Cole Beasley'
p933
sg17
S'2012'
p934
sg19
S'17'
p935
sg21
S'--'
p936
sg23
S'12/30'
p937
sg25
S'--'
p938
sg27
S'--'
p939
sg29
S'--'
p940
sg31
S'L18-28'
p941
sg33
g10
sg35
g10
sg36
S'@WAS'
p942
sg38
S'--'
p943
sg40
g10
sg41
S'--'
p944
ssg153
(dp945
g5
S'--'
p946
sg7
S'--'
p947
sg9
g10
sg11
S'--'
p948
sg13
g10
sg15
S'Cole Beasley'
p949
sg17
S'2012'
p950
sg19
S'16'
p951
sg21
S'--'
p952
sg23
S'12/23'
p953
sg25
S'--'
p954
sg27
S'--'
p955
sg29
S'--'
p956
sg31
S'L31-34'
p957
sg33
S'--'
p958
sg35
S'--'
p959
sg36
S'NO'
p960
sg38
S'--'
p961
sg40
S'--'
p962
sg41
S'--'
p963
ssg14
(dp964
g5
S'--'
p965
sg7
S'--'
p966
sg9
g10
sg11
S'--'
p967
sg13
g14
sg15
S'Cole Beasley'
p968
sg17
S'2012'
p969
sg19
g14
sg21
S'--'
p970
sg23
S'09/05'
p971
sg25
S'--'
p972
sg27
S'--'
p973
sg29
S'--'
p974
sg31
S'W24-17'
p975
sg33
S'--'
p976
sg35
S'--'
p977
sg36
S'@NYG'
p978
sg38
S'--'
p979
sg40
S'--'
p980
sg41
S'--'
p981
ssg111
(dp982
g5
S'--'
p983
sg7
S'--'
p984
sg9
g10
sg11
S'--'
p985
sg13
g10
sg15
S'Cole Beasley'
p986
sg17
S'2012'
p987
sg19
g111
sg21
S'--'
p988
sg23
S'09/23'
p989
sg25
S'--'
p990
sg27
S'--'
p991
sg29
S'--'
p992
sg31
S'W16-10'
p993
sg33
S'--'
p994
sg35
S'--'
p995
sg36
S'TB'
p996
sg38
S'--'
p997
sg40
S'--'
p998
sg41
S'--'
p999
ssg151
(dp1000
g5
S'--'
p1001
sg7
S'--'
p1002
sg9
g10
sg11
S'--'
p1003
sg13
g10
sg15
S'Cole Beasley'
p1004
sg17
S'2012'
p1005
sg19
g151
sg21
S'--'
p1006
sg23
S'09/16'
p1007
sg25
S'--'
p1008
sg27
S'--'
p1009
sg29
S'--'
p1010
sg31
S'L7-27'
p1011
sg33
S'--'
p1012
sg35
S'--'
p1013
sg36
S'@SEA'
p1014
sg38
S'--'
p1015
sg40
S'--'
p1016
sg41
S'--'
p1017
ssg148
(dp1018
g5
g265
sg7
g265
sg9
g265
sg11
g265
sg13
g265
sg15
S'Cole Beasley'
p1019
sg17
S'2012'
p1020
sg19
g148
sg21
g265
sg23
S'Bye'
p1021
sg25
g265
sg27
g265
sg29
g265
sg31
g265
sg33
g265
sg35
g265
sg36
g265
sg38
g265
sg40
g265
sg41
g265
ssg182
(dp1022
g5
S'--'
p1023
sg7
S'--'
p1024
sg9
g10
sg11
S'--'
p1025
sg13
g14
sg15
S'Cole Beasley'
p1026
sg17
S'2012'
p1027
sg19
g182
sg21
S'--'
p1028
sg23
S'10/01'
p1029
sg25
S'7.0'
p1030
sg27
S'--'
p1031
sg29
S'--'
p1032
sg31
S'L18-34'
p1033
sg33
S'14'
p1034
sg35
g151
sg36
S'CHI'
p1035
sg38
g250
sg40
g10
sg41
S'--'
p1036
ssg250
(dp1037
g5
S'--'
p1038
sg7
S'--'
p1039
sg9
g10
sg11
S'--'
p1040
sg13
g10
sg15
S'Cole Beasley'
p1041
sg17
S'2012'
p1042
sg19
g250
sg21
S'--'
p1043
sg23
S'10/21'
p1044
sg25
S'--'
p1045
sg27
S'--'
p1046
sg29
S'--'
p1047
sg31
S'W19-14'
p1048
sg33
S'--'
p1049
sg35
S'--'
p1050
sg36
S'@CAR'
p1051
sg38
S'--'
p1052
sg40
S'--'
p1053
sg41
S'--'
p1054
ssg92
(dp1055
g5
S'--'
p1056
sg7
S'--'
p1057
sg9
g10
sg11
S'--'
p1058
sg13
g10
sg15
S'Cole Beasley'
p1059
sg17
S'2012'
p1060
sg19
g92
sg21
S'--'
p1061
sg23
S'10/14'
p1062
sg25
S'--'
p1063
sg27
S'--'
p1064
sg29
S'--'
p1065
sg31
S'L29-31'
p1066
sg33
S'--'
p1067
sg35
S'--'
p1068
sg36
S'@BAL'
p1069
sg38
S'--'
p1070
sg40
S'--'
p1071
sg41
S'--'
p1072
ssg216
(dp1073
g5
S'--'
p1074
sg7
S'--'
p1075
sg9
g10
sg11
S'--'
p1076
sg13
g14
sg15
S'Cole Beasley'
p1077
sg17
S'2012'
p1078
sg19
g216
sg21
S'--'
p1079
sg23
S'11/04'
p1080
sg25
S'8.0'
p1081
sg27
S'--'
p1082
sg29
S'--'
p1083
sg31
S'L13-19'
p1084
sg33
g57
sg35
g14
sg36
S'@ATL'
p1085
sg38
g57
sg40
g10
sg41
S'--'
p1086
ssg57
(dp1087
g5
S'--'
p1088
sg7
S'--'
p1089
sg9
g10
sg11
S'--'
p1090
sg13
g14
sg15
S'Cole Beasley'
p1091
sg17
S'2012'
p1092
sg19
g57
sg21
S'--'
p1093
sg23
S'10/28'
p1094
sg25
S'--'
p1095
sg27
S'--'
p1096
sg29
S'--'
p1097
sg31
S'L24-29'
p1098
sg33
S'--'
p1099
sg35
S'--'
p1100
sg36
S'NYG'
p1101
sg38
S'--'
p1102
sg40
S'--'
p1103
sg41
S'--'
p1104
sss.