(dp0
S'2015'
p1
(dp2
S'11'
p3
(dp4
S'RushTD'
p5
S'--'
p6
sS'RushYds'
p7
S'--'
p8
sS'GS'
p9
S'0'
p10
sS'Lost'
p11
S'--'
p12
sS'G'
p13
S'1'
p14
sS'Player'
p15
S'Cordarrelle Patterson'
p16
sS'Year'
p17
S'2015'
p18
sS'WK'
p19
S'11'
p20
sS'RushAvg'
p21
S'--'
p22
sS'Game Date'
p23
S'11/22'
p24
sS'RecAvg'
p25
S'--'
p26
sS'FUM'
p27
S'--'
p28
sS'RushAtt'
p29
S'--'
p30
sS'Result'
p31
S'L13-30'
p32
sS'RecYds'
p33
S'--'
p34
sS'Rec'
p35
S'--'
p36
sS'Opp'
p37
S'GB'
p38
sS'RecLng'
p39
S'--'
p40
sS'RecTD'
p41
S'--'
p42
sS'RushLng'
p43
S'--'
p44
ssS'10'
p45
(dp46
g5
g10
sg7
S'6'
p47
sg9
g10
sg11
S'--'
p48
sg13
g14
sg15
S'Cordarrelle Patterson'
p49
sg17
S'2015'
p50
sg19
S'10'
p51
sg21
S'6.0'
p52
sg23
S'11/15'
p53
sg25
S'--'
p54
sg27
S'--'
p55
sg29
g14
sg31
S'W30-14'
p56
sg33
S'--'
p57
sg35
S'--'
p58
sg37
S'@OAK'
p59
sg39
S'--'
p60
sg41
S'--'
p61
sg43
g47
ssS'13'
p62
(dp63
g5
S'--'
p64
sg7
S'--'
p65
sg9
g10
sg11
S'--'
p66
sg13
g14
sg15
S'Cordarrelle Patterson'
p67
sg17
S'2015'
p68
sg19
S'13'
p69
sg21
S'--'
p70
sg23
S'12/06'
p71
sg25
S'--'
p72
sg27
S'--'
p73
sg29
S'--'
p74
sg31
S'L7-38'
p75
sg33
S'--'
p76
sg35
S'--'
p77
sg37
S'SEA'
p78
sg39
S'--'
p79
sg41
S'--'
p80
sg43
S'--'
p81
ssS'12'
p82
(dp83
g5
S'--'
p84
sg7
S'--'
p85
sg9
g10
sg11
S'--'
p86
sg13
g14
sg15
S'Cordarrelle Patterson'
p87
sg17
S'2015'
p88
sg19
S'12'
p89
sg21
S'--'
p90
sg23
S'11/29'
p91
sg25
S'--'
p92
sg27
S'--'
p93
sg29
S'--'
p94
sg31
S'W20-10'
p95
sg33
S'--'
p96
sg35
S'--'
p97
sg37
S'@ATL'
p98
sg39
S'--'
p99
sg41
S'--'
p100
sg43
S'--'
p101
ssS'15'
p102
(dp103
g5
S'--'
p104
sg7
S'--'
p105
sg9
g10
sg11
S'--'
p106
sg13
g14
sg15
S'Cordarrelle Patterson'
p107
sg17
S'2015'
p108
sg19
S'15'
p109
sg21
S'--'
p110
sg23
S'12/20'
p111
sg25
S'--'
p112
sg27
S'--'
p113
sg29
S'--'
p114
sg31
S'W38-17'
p115
sg33
S'--'
p116
sg35
S'--'
p117
sg37
S'CHI'
p118
sg39
S'--'
p119
sg41
S'--'
p120
sg43
S'--'
p121
ssS'14'
p122
(dp123
g5
S'--'
p124
sg7
S'--'
p125
sg9
g10
sg11
S'--'
p126
sg13
g14
sg15
S'Cordarrelle Patterson'
p127
sg17
S'2015'
p128
sg19
S'14'
p129
sg21
S'--'
p130
sg23
S'12/10'
p131
sg25
S'--'
p132
sg27
S'--'
p133
sg29
S'--'
p134
sg31
S'L20-23'
p135
sg33
S'--'
p136
sg35
S'--'
p137
sg37
S'@ARI'
p138
sg39
S'--'
p139
sg41
S'--'
p140
sg43
S'--'
p141
ssS'17'
p142
(dp143
g5
S'--'
p144
sg7
S'--'
p145
sg9
g10
sg11
g14
sg13
g14
sg15
S'Cordarrelle Patterson'
p146
sg17
S'2015'
p147
sg19
S'17'
p148
sg21
S'--'
p149
sg23
S'01/03'
p150
sg25
S'--'
p151
sg27
g14
sg29
S'--'
p152
sg31
S'W20-13'
p153
sg33
S'--'
p154
sg35
S'--'
p155
sg37
S'@GB'
p156
sg39
S'--'
p157
sg41
S'--'
p158
sg43
S'--'
p159
ssS'16'
p160
(dp161
g5
S'--'
p162
sg7
S'--'
p163
sg9
g10
sg11
S'--'
p164
sg13
g14
sg15
S'Cordarrelle Patterson'
p165
sg17
S'2015'
p166
sg19
S'16'
p167
sg21
S'--'
p168
sg23
S'12/27'
p169
sg25
S'--'
p170
sg27
S'--'
p171
sg29
S'--'
p172
sg31
S'W49-17'
p173
sg33
S'--'
p174
sg35
S'--'
p175
sg37
S'NYG'
p176
sg39
S'--'
p177
sg41
S'--'
p178
sg43
S'--'
p179
ssg14
(dp180
g5
S'--'
p181
sg7
S'--'
p182
sg9
g10
sg11
S'--'
p183
sg13
g14
sg15
S'Cordarrelle Patterson'
p184
sg17
S'2015'
p185
sg19
g14
sg21
S'--'
p186
sg23
S'09/14'
p187
sg25
S'1.0'
p188
sg27
S'--'
p189
sg29
S'--'
p190
sg31
S'L3-20'
p191
sg33
g14
sg35
g14
sg37
S'@SF'
p192
sg39
g14
sg41
g10
sg43
S'--'
p193
ssS'3'
p194
(dp195
g5
g10
sg7
S'9'
p196
sg9
g10
sg11
S'--'
p197
sg13
g14
sg15
S'Cordarrelle Patterson'
p198
sg17
S'2015'
p199
sg19
g194
sg21
S'9.0'
p200
sg23
S'09/27'
p201
sg25
S'--'
p202
sg27
S'--'
p203
sg29
g14
sg31
S'W31-14'
p204
sg33
S'--'
p205
sg35
S'--'
p206
sg37
S'SD'
p207
sg39
S'--'
p208
sg41
S'--'
p209
sg43
g196
ssS'2'
p210
(dp211
g5
S'--'
p212
sg7
S'--'
p213
sg9
g10
sg11
S'--'
p214
sg13
g14
sg15
S'Cordarrelle Patterson'
p215
sg17
S'2015'
p216
sg19
g210
sg21
S'--'
p217
sg23
S'09/20'
p218
sg25
S'--'
p219
sg27
S'--'
p220
sg29
S'--'
p221
sg31
S'W26-16'
p222
sg33
S'--'
p223
sg35
S'--'
p224
sg37
S'DET'
p225
sg39
S'--'
p226
sg41
S'--'
p227
sg43
S'--'
p228
ssS'5'
p229
(dp230
g5
S''
p231
sg7
g231
sg9
g231
sg11
g231
sg13
g231
sg15
S'Cordarrelle Patterson'
p232
sg17
S'2015'
p233
sg19
g229
sg21
g231
sg23
S'Bye'
p234
sg25
g231
sg27
g231
sg29
g231
sg31
g231
sg33
g231
sg35
g231
sg37
g231
sg39
g231
sg41
g231
sg43
g231
ssS'4'
p235
(dp236
g5
S'--'
p237
sg7
S'--'
p238
sg9
g14
sg11
S'--'
p239
sg13
g14
sg15
S'Cordarrelle Patterson'
p240
sg17
S'2015'
p241
sg19
g235
sg21
S'--'
p242
sg23
S'10/04'
p243
sg25
S'9.0'
p244
sg27
S'--'
p245
sg29
S'--'
p246
sg31
S'L20-23'
p247
sg33
g196
sg35
g14
sg37
S'@DEN'
p248
sg39
g196
sg41
g10
sg43
S'--'
p249
ssS'7'
p250
(dp251
g5
S'--'
p252
sg7
S'--'
p253
sg9
g10
sg11
S'--'
p254
sg13
g14
sg15
S'Cordarrelle Patterson'
p255
sg17
S'2015'
p256
sg19
g250
sg21
S'--'
p257
sg23
S'10/25'
p258
sg25
S'--'
p259
sg27
S'--'
p260
sg29
S'--'
p261
sg31
S'W28-19'
p262
sg33
S'--'
p263
sg35
S'--'
p264
sg37
S'@DET'
p265
sg39
S'--'
p266
sg41
S'--'
p267
sg43
S'--'
p268
ssg47
(dp269
g5
S'--'
p270
sg7
S'--'
p271
sg9
g10
sg11
S'--'
p272
sg13
g14
sg15
S'Cordarrelle Patterson'
p273
sg17
S'2015'
p274
sg19
g47
sg21
S'--'
p275
sg23
S'10/18'
p276
sg25
S'--'
p277
sg27
S'--'
p278
sg29
S'--'
p279
sg31
S'W16-10'
p280
sg33
S'--'
p281
sg35
S'--'
p282
sg37
S'KC'
p283
sg39
S'--'
p284
sg41
S'--'
p285
sg43
S'--'
p286
ssg196
(dp287
g5
S'--'
p288
sg7
S'--'
p289
sg9
g10
sg11
S'--'
p290
sg13
g14
sg15
S'Cordarrelle Patterson'
p291
sg17
S'2015'
p292
sg19
g196
sg21
S'--'
p293
sg23
S'11/08'
p294
sg25
S'--'
p295
sg27
S'--'
p296
sg29
S'--'
p297
sg31
S'W21-18'
p298
sg33
S'--'
p299
sg35
S'--'
p300
sg37
S'STL'
p301
sg39
S'--'
p302
sg41
S'--'
p303
sg43
S'--'
p304
ssS'8'
p305
(dp306
g5
S'--'
p307
sg7
S'--'
p308
sg9
g10
sg11
S'--'
p309
sg13
g14
sg15
S'Cordarrelle Patterson'
p310
sg17
S'2015'
p311
sg19
g305
sg21
S'--'
p312
sg23
S'11/01'
p313
sg25
S'--'
p314
sg27
S'--'
p315
sg29
S'--'
p316
sg31
S'W23-20'
p317
sg33
S'--'
p318
sg35
S'--'
p319
sg37
S'@CHI'
p320
sg39
S'--'
p321
sg41
S'--'
p322
sg43
S'--'
p323
sssS'2014'
p324
(dp325
g3
(dp326
g5
g10
sg7
g194
sg9
g10
sg11
S'--'
p327
sg13
g14
sg15
S'Cordarrelle Patterson'
p328
sg17
S'2014'
p329
sg19
S'11'
p330
sg21
S'3.0'
p331
sg23
S'11/16'
p332
sg25
S'12.0'
p333
sg27
S'--'
p334
sg29
g14
sg31
S'L13-21'
p335
sg33
S'24'
p336
sg35
g210
sg37
S'@CHI'
p337
sg39
S'17'
p338
sg41
g10
sg43
g194
ssg45
(dp339
g5
g231
sg7
g231
sg9
g231
sg11
g231
sg13
g231
sg15
S'Cordarrelle Patterson'
p340
sg17
S'2014'
p341
sg19
S'10'
p342
sg21
g231
sg23
S'Bye'
p343
sg25
g231
sg27
g231
sg29
g231
sg31
g231
sg33
g231
sg35
g231
sg37
g231
sg39
g231
sg41
g231
sg43
g231
ssg62
(dp344
g5
S'--'
p345
sg7
S'--'
p346
sg9
g10
sg11
S'--'
p347
sg13
g14
sg15
S'Cordarrelle Patterson'
p348
sg17
S'2014'
p349
sg19
S'13'
p350
sg21
S'--'
p351
sg23
S'11/30'
p352
sg25
S'--'
p353
sg27
S'--'
p354
sg29
S'--'
p355
sg31
S'W31-13'
p356
sg33
g10
sg35
g10
sg37
S'CAR'
p357
sg39
S'--'
p358
sg41
g10
sg43
S'--'
p359
ssg82
(dp360
g5
S'--'
p361
sg7
S'--'
p362
sg9
g10
sg11
S'--'
p363
sg13
g14
sg15
S'Cordarrelle Patterson'
p364
sg17
S'2014'
p365
sg19
S'12'
p366
sg21
S'--'
p367
sg23
S'11/23'
p368
sg25
S'9.0'
p369
sg27
S'--'
p370
sg29
S'--'
p371
sg31
S'L21-24'
p372
sg33
S'18'
p373
sg35
g210
sg37
S'GB'
p374
sg39
S'10'
p375
sg41
g10
sg43
S'--'
p376
ssg102
(dp377
g5
S'--'
p378
sg7
S'--'
p379
sg9
g10
sg11
S'--'
p380
sg13
g14
sg15
S'Cordarrelle Patterson'
p381
sg17
S'2014'
p382
sg19
S'15'
p383
sg21
S'--'
p384
sg23
S'12/14'
p385
sg25
S'8.0'
p386
sg27
S'--'
p387
sg29
S'--'
p388
sg31
S'L14-16'
p389
sg33
S'16'
p390
sg35
g210
sg37
S'@DET'
p391
sg39
g196
sg41
g10
sg43
S'--'
p392
ssg122
(dp393
g5
g10
sg7
g47
sg9
g10
sg11
g14
sg13
g14
sg15
S'Cordarrelle Patterson'
p394
sg17
S'2014'
p395
sg19
S'14'
p396
sg21
S'6.0'
p397
sg23
S'12/07'
p398
sg25
S'--'
p399
sg27
g14
sg29
g14
sg31
S'W30-24'
p400
sg33
S'--'
p401
sg35
S'--'
p402
sg37
S'NYJ'
p403
sg39
S'--'
p404
sg41
S'--'
p405
sg43
g47
ssg142
(dp406
g5
S'--'
p407
sg7
S'--'
p408
sg9
g10
sg11
S'--'
p409
sg13
g14
sg15
S'Cordarrelle Patterson'
p410
sg17
S'2014'
p411
sg19
S'17'
p412
sg21
S'--'
p413
sg23
S'12/28'
p414
sg25
S'--'
p415
sg27
S'--'
p416
sg29
S'--'
p417
sg31
S'W13-9'
p418
sg33
g10
sg35
g10
sg37
S'CHI'
p419
sg39
S'--'
p420
sg41
g10
sg43
S'--'
p421
ssg160
(dp422
g5
g10
sg7
S'-2'
p423
sg9
g10
sg11
S'--'
p424
sg13
g14
sg15
S'Cordarrelle Patterson'
p425
sg17
S'2014'
p426
sg19
S'16'
p427
sg21
S'-2.0'
p428
sg23
S'12/21'
p429
sg25
S'18.0'
p430
sg27
S'--'
p431
sg29
g14
sg31
S'L35-37'
p432
sg33
S'18'
p433
sg35
g14
sg37
S'@MIA'
p434
sg39
S'18'
p435
sg41
g10
sg43
S'-2'
p436
ssg14
(dp437
g5
g14
sg7
S'102'
p438
sg9
g14
sg11
S'--'
p439
sg13
g14
sg15
S'Cordarrelle Patterson'
p440
sg17
S'2014'
p441
sg19
g14
sg21
S'34.0'
p442
sg23
S'09/07'
p443
sg25
S'8.7'
p444
sg27
S'--'
p445
sg29
g194
sg31
S'W34-6'
p446
sg33
S'26'
p447
sg35
g194
sg37
S'@STL'
p448
sg39
S'13'
p449
sg41
g10
sg43
S'67T'
p450
ssg194
(dp451
g5
g10
sg7
S'-7'
p452
sg9
g10
sg11
S'--'
p453
sg13
g14
sg15
S'Cordarrelle Patterson'
p454
sg17
S'2014'
p455
sg19
g194
sg21
S'-7.0'
p456
sg23
S'09/21'
p457
sg25
S'15.3'
p458
sg27
S'--'
p459
sg29
g14
sg31
S'L9-20'
p460
sg33
S'61'
p461
sg35
g235
sg37
S'@NO'
p462
sg39
S'28'
p463
sg41
g10
sg43
S'-7'
p464
ssg210
(dp465
g5
S'--'
p466
sg7
S'--'
p467
sg9
g14
sg11
S'--'
p468
sg13
g14
sg15
S'Cordarrelle Patterson'
p469
sg17
S'2014'
p470
sg19
g210
sg21
S'--'
p471
sg23
S'09/14'
p472
sg25
S'14.0'
p473
sg27
S'--'
p474
sg29
S'--'
p475
sg31
S'L7-30'
p476
sg33
S'56'
p477
sg35
g235
sg37
S'NE'
p478
sg39
S'26'
p479
sg41
g10
sg43
S'--'
p480
ssg229
(dp481
g5
S'--'
p482
sg7
S'--'
p483
sg9
g14
sg11
S'--'
p484
sg13
g14
sg15
S'Cordarrelle Patterson'
p485
sg17
S'2014'
p486
sg19
g229
sg21
S'--'
p487
sg23
S'10/02'
p488
sg25
S'4.0'
p489
sg27
S'--'
p490
sg29
S'--'
p491
sg31
S'L10-42'
p492
sg33
g305
sg35
g210
sg37
S'@GB'
p493
sg39
g47
sg41
g10
sg43
S'--'
p494
ssg235
(dp495
g5
S'--'
p496
sg7
S'--'
p497
sg9
g14
sg11
S'--'
p498
sg13
g14
sg15
S'Cordarrelle Patterson'
p499
sg17
S'2014'
p500
sg19
g235
sg21
S'--'
p501
sg23
S'09/28'
p502
sg25
S'19.0'
p503
sg27
S'--'
p504
sg29
S'--'
p505
sg31
S'W41-28'
p506
sg33
S'38'
p507
sg35
g210
sg37
S'ATL'
p508
sg39
S'22'
p509
sg41
g10
sg43
S'--'
p510
ssg250
(dp511
g5
g10
sg7
g194
sg9
g10
sg11
S'--'
p512
sg13
g14
sg15
S'Cordarrelle Patterson'
p513
sg17
S'2014'
p514
sg19
g250
sg21
S'3.0'
p515
sg23
S'10/19'
p516
sg25
S'4.5'
p517
sg27
S'--'
p518
sg29
g14
sg31
S'L16-17'
p519
sg33
g196
sg35
g210
sg37
S'@BUF'
p520
sg39
g229
sg41
g14
sg43
g194
ssg47
(dp521
g5
g10
sg7
g210
sg9
g14
sg11
S'--'
p522
sg13
g14
sg15
S'Cordarrelle Patterson'
p523
sg17
S'2014'
p524
sg19
g47
sg21
S'2.0'
p525
sg23
S'10/12'
p526
sg25
S'7.5'
p527
sg27
S'--'
p528
sg29
g14
sg31
S'L3-17'
p529
sg33
S'15'
p530
sg35
g210
sg37
S'DET'
p531
sg39
g196
sg41
g10
sg43
g210
ssg196
(dp532
g5
S'--'
p533
sg7
S'--'
p534
sg9
g14
sg11
S'--'
p535
sg13
g14
sg15
S'Cordarrelle Patterson'
p536
sg17
S'2014'
p537
sg19
g196
sg21
S'--'
p538
sg23
S'11/02'
p539
sg25
S'9.0'
p540
sg27
S'--'
p541
sg29
S'--'
p542
sg31
S'W29-26'
p543
sg33
g196
sg35
g14
sg37
S'WAS'
p544
sg39
g196
sg41
g10
sg43
S'--'
p545
ssg305
(dp546
g5
g10
sg7
S'10'
p547
sg9
g14
sg11
S'--'
p548
sg13
g14
sg15
S'Cordarrelle Patterson'
p549
sg17
S'2014'
p550
sg19
g305
sg21
S'10.0'
p551
sg23
S'10/26'
p552
sg25
S'14.3'
p553
sg27
S'--'
p554
sg29
g14
sg31
S'W19-13'
p555
sg33
S'86'
p556
sg35
g47
sg37
S'@TB'
p557
sg39
S'28'
p558
sg41
g10
sg43
S'10'
p559
sssS'2013'
p560
(dp561
g3
(dp562
g5
S'--'
p563
sg7
S'--'
p564
sg9
g14
sg11
S'--'
p565
sg13
g14
sg15
S'Cordarrelle Patterson'
p566
sg17
S'2013'
p567
sg19
S'11'
p568
sg21
S'--'
p569
sg23
S'11/17'
p570
sg25
S'9.3'
p571
sg27
S'--'
p572
sg29
S'--'
p573
sg31
S'L20-41'
p574
sg33
S'28'
p575
sg35
g194
sg37
S'@SEA'
p576
sg39
S'15'
p577
sg41
g10
sg43
S'--'
p578
ssg45
(dp579
g5
S'--'
p580
sg7
S'--'
p581
sg9
g10
sg11
S'--'
p582
sg13
g14
sg15
S'Cordarrelle Patterson'
p583
sg17
S'2013'
p584
sg19
S'10'
p585
sg21
S'--'
p586
sg23
S'11/07'
p587
sg25
S'11.0'
p588
sg27
S'--'
p589
sg29
S'--'
p590
sg31
S'W34-27'
p591
sg33
S'22'
p592
sg35
g210
sg37
S'WAS'
p593
sg39
S'20'
p594
sg41
g14
sg43
S'--'
p595
ssg62
(dp596
g5
g14
sg7
S'27'
p597
sg9
g14
sg11
S'--'
p598
sg13
g14
sg15
S'Cordarrelle Patterson'
p599
sg17
S'2013'
p600
sg19
S'13'
p601
sg21
S'13.5'
p602
sg23
S'12/01'
p603
sg25
S'4.0'
p604
sg27
S'--'
p605
sg29
g210
sg31
S'W23-20'
p606
sg33
g235
sg35
g14
sg37
S'CHI'
p607
sg39
g235
sg41
g10
sg43
S'33T'
p608
ssg82
(dp609
g5
S'--'
p610
sg7
S'--'
p611
sg9
g10
sg11
S'--'
p612
sg13
g14
sg15
S'Cordarrelle Patterson'
p613
sg17
S'2013'
p614
sg19
S'12'
p615
sg21
S'--'
p616
sg23
S'11/24'
p617
sg25
S'6.8'
p618
sg27
S'--'
p619
sg29
S'--'
p620
sg31
S'T26-26'
p621
sg33
S'54'
p622
sg35
g305
sg37
S'@GB'
p623
sg39
S'21'
p624
sg41
g10
sg43
S'--'
p625
ssg102
(dp626
g5
g10
sg7
S'15'
p627
sg9
g14
sg11
S'--'
p628
sg13
g14
sg15
S'Cordarrelle Patterson'
p629
sg17
S'2013'
p630
sg19
S'15'
p631
sg21
S'7.5'
p632
sg23
S'12/15'
p633
sg25
S'7.0'
p634
sg27
S'--'
p635
sg29
g210
sg31
S'W48-30'
p636
sg33
S'35'
p637
sg35
g229
sg37
S'PHI'
p638
sg39
S'11'
p639
sg41
g14
sg43
S'12'
p640
ssg122
(dp641
g5
g10
sg7
g47
sg9
g14
sg11
S'--'
p642
sg13
g14
sg15
S'Cordarrelle Patterson'
p643
sg17
S'2013'
p644
sg19
S'14'
p645
sg21
S'6.0'
p646
sg23
S'12/08'
p647
sg25
S'28.2'
p648
sg27
S'--'
p649
sg29
g14
sg31
S'L26-29'
p650
sg33
S'141'
p651
sg35
g229
sg37
S'@BAL'
p652
sg39
S'79T'
p653
sg41
g14
sg43
g47
ssg142
(dp654
g5
g14
sg7
S'54'
p655
sg9
g14
sg11
S'--'
p656
sg13
g14
sg15
S'Cordarrelle Patterson'
p657
sg17
S'2013'
p658
sg19
S'17'
p659
sg21
S'27.0'
p660
sg23
S'12/29'
p661
sg25
S'15.5'
p662
sg27
S'--'
p663
sg29
g210
sg31
S'W14-13'
p664
sg33
S'31'
p665
sg35
g210
sg37
S'DET'
p666
sg39
S'23'
p667
sg41
g14
sg43
S'50T'
p668
ssg160
(dp669
g5
g14
sg7
S'54'
p670
sg9
g14
sg11
S'--'
p671
sg13
g14
sg15
S'Cordarrelle Patterson'
p672
sg17
S'2013'
p673
sg19
S'16'
p674
sg21
S'18.0'
p675
sg23
S'12/22'
p676
sg25
S'2.7'
p677
sg27
S'--'
p678
sg29
g194
sg31
S'L14-42'
p679
sg33
g305
sg35
g194
sg37
S'@CIN'
p680
sg39
S'11'
p681
sg41
g10
sg43
S'35T'
p682
ssg14
(dp683
g5
S'--'
p684
sg7
S'--'
p685
sg9
g10
sg11
S'--'
p686
sg13
g14
sg15
S'Cordarrelle Patterson'
p687
sg17
S'2013'
p688
sg19
g14
sg21
S'--'
p689
sg23
S'09/08'
p690
sg25
S'10.0'
p691
sg27
S'--'
p692
sg29
S'--'
p693
sg31
S'L24-34'
p694
sg33
S'10'
p695
sg35
g14
sg37
S'@DET'
p696
sg39
S'10'
p697
sg41
g10
sg43
S'--'
p698
ssg194
(dp699
g5
g10
sg7
g10
sg9
g10
sg11
S'--'
p700
sg13
g14
sg15
S'Cordarrelle Patterson'
p701
sg17
S'2013'
p702
sg19
g194
sg21
S'0.0'
p703
sg23
S'09/22'
p704
sg25
S'24.5'
p705
sg27
S'--'
p706
sg29
g14
sg31
S'L27-31'
p707
sg33
S'49'
p708
sg35
g210
sg37
S'CLE'
p709
sg39
S'37'
p710
sg41
g10
sg43
g10
ssg210
(dp711
g5
S'--'
p712
sg7
S'--'
p713
sg9
g10
sg11
S'--'
p714
sg13
g14
sg15
S'Cordarrelle Patterson'
p715
sg17
S'2013'
p716
sg19
g210
sg21
S'--'
p717
sg23
S'09/15'
p718
sg25
S'7.0'
p719
sg27
S'--'
p720
sg29
S'--'
p721
sg31
S'L30-31'
p722
sg33
S'14'
p723
sg35
g210
sg37
S'@CHI'
p724
sg39
S'14'
p725
sg41
g10
sg43
S'--'
p726
ssg229
(dp727
g5
g231
sg7
g231
sg9
g231
sg11
g231
sg13
g231
sg15
S'Cordarrelle Patterson'
p728
sg17
S'2013'
p729
sg19
g229
sg21
g231
sg23
S'Bye'
p730
sg25
g231
sg27
g231
sg29
g231
sg31
g231
sg33
g231
sg35
g231
sg37
g231
sg39
g231
sg41
g231
sg43
g231
ssg235
(dp731
g5
S'--'
p732
sg7
S'--'
p733
sg9
g10
sg11
S'--'
p734
sg13
g14
sg15
S'Cordarrelle Patterson'
p735
sg17
S'2013'
p736
sg19
g235
sg21
S'--'
p737
sg23
S'09/29'
p738
sg25
S'9.0'
p739
sg27
S'--'
p740
sg29
S'--'
p741
sg31
S'W34-27'
p742
sg33
g196
sg35
g14
sg37
S'PIT'
p743
sg39
g196
sg41
g10
sg43
S'--'
p744
ssg250
(dp745
g5
g10
sg7
g210
sg9
g10
sg11
S'--'
p746
sg13
g14
sg15
S'Cordarrelle Patterson'
p747
sg17
S'2013'
p748
sg19
g250
sg21
S'2.0'
p749
sg23
S'10/21'
p750
sg25
S'7.3'
p751
sg27
S'--'
p752
sg29
g14
sg31
S'L7-23'
p753
sg33
S'22'
p754
sg35
g194
sg37
S'@NYG'
p755
sg39
S'15'
p756
sg41
g10
sg43
g210
ssg47
(dp757
g5
S'--'
p758
sg7
S'--'
p759
sg9
g10
sg11
S'--'
p760
sg13
g14
sg15
S'Cordarrelle Patterson'
p761
sg17
S'2013'
p762
sg19
g47
sg21
S'--'
p763
sg23
S'10/13'
p764
sg25
S'1.5'
p765
sg27
S'--'
p766
sg29
S'--'
p767
sg31
S'L10-35'
p768
sg33
g194
sg35
g210
sg37
S'CAR'
p769
sg39
g229
sg41
g10
sg43
S'--'
p770
ssg196
(dp771
g5
S'--'
p772
sg7
S'--'
p773
sg9
g10
sg11
S'--'
p774
sg13
g14
sg15
S'Cordarrelle Patterson'
p775
sg17
S'2013'
p776
sg19
g196
sg21
S'--'
p777
sg23
S'11/03'
p778
sg25
S'4.3'
p779
sg27
S'--'
p780
sg29
S'--'
p781
sg31
S'L23-27'
p782
sg33
S'13'
p783
sg35
g194
sg37
S'@DAL'
p784
sg39
g229
sg41
g10
sg43
S'--'
p785
ssg305
(dp786
g5
S'--'
p787
sg7
S'--'
p788
sg9
g10
sg11
S'--'
p789
sg13
g14
sg15
S'Cordarrelle Patterson'
p790
sg17
S'2013'
p791
sg19
g305
sg21
S'--'
p792
sg23
S'10/27'
p793
sg25
S'13.0'
p794
sg27
S'--'
p795
sg29
S'--'
p796
sg31
S'L31-44'
p797
sg33
S'26'
p798
sg35
g210
sg37
S'GB'
p799
sg39
S'17'
p800
sg41
g10
sg43
S'--'
p801
sss.