(dp0
S'2015'
p1
(dp2
S'13'
p3
(dp4
S'RushTD'
p5
S'--'
p6
sS'RushYds'
p7
S'--'
p8
sS'GS'
p9
S'0'
p10
sS'Lost'
p11
S'--'
p12
sS'G'
p13
S'1'
p14
sS'Player'
p15
S'Daniel Brown'
p16
sS'Year'
p17
S'2015'
p18
sS'WK'
p19
S'13'
p20
sS'RushAvg'
p21
S'--'
p22
sS'Game Date'
p23
S'12/06'
p24
sS'RecAvg'
p25
S'17.0'
p26
sS'FUM'
p27
S'--'
p28
sS'RushAtt'
p29
S'--'
p30
sS'Result'
p31
S'L13-15'
p32
sS'RecYds'
p33
S'17'
p34
sS'Rec'
p35
g14
sS'Opp'
p36
S'@MIA'
p37
sS'RecLng'
p38
S'17'
p39
sS'RecTD'
p40
g10
sS'RushLng'
p41
S'--'
p42
ssS'12'
p43
(dp44
g5
S'--'
p45
sg7
S'--'
p46
sg9
g10
sg11
S'--'
p47
sg13
g14
sg15
S'Daniel Brown'
p48
sg17
S'2015'
p49
sg19
S'12'
p50
sg21
S'--'
p51
sg23
S'11/30'
p52
sg25
S'--'
p53
sg27
S'--'
p54
sg29
S'--'
p55
sg31
S'W33-27'
p56
sg33
g10
sg35
g10
sg36
S'@CLE'
p57
sg38
S'--'
p58
sg40
g10
sg41
S'--'
p59
ssS'15'
p60
(dp61
g5
S'--'
p62
sg7
S'--'
p63
sg9
g10
sg11
S'--'
p64
sg13
g14
sg15
S'Daniel Brown'
p65
sg17
S'2015'
p66
sg19
S'15'
p67
sg21
S'--'
p68
sg23
S'12/20'
p69
sg25
S'--'
p70
sg27
S'--'
p71
sg29
S'--'
p72
sg31
S'L14-34'
p73
sg33
g10
sg35
g10
sg36
S'KC'
p74
sg38
S'--'
p75
sg40
g10
sg41
S'--'
p76
ssS'14'
p77
(dp78
g5
S'--'
p79
sg7
S'--'
p80
sg9
g14
sg11
S'--'
p81
sg13
g14
sg15
S'Daniel Brown'
p82
sg17
S'2015'
p83
sg19
S'14'
p84
sg21
S'--'
p85
sg23
S'12/13'
p86
sg25
S'9.4'
p87
sg27
S'--'
p88
sg29
S'--'
p89
sg31
S'L6-35'
p90
sg33
S'47'
p91
sg35
S'5'
p92
sg36
S'SEA'
p93
sg38
S'31'
p94
sg40
g10
sg41
S'--'
p95
ssS'17'
p96
(dp97
g5
S'--'
p98
sg7
S'--'
p99
sg9
g10
sg11
S'--'
p100
sg13
g14
sg15
S'Daniel Brown'
p101
sg17
S'2015'
p102
sg19
S'17'
p103
sg21
S'--'
p104
sg23
S'01/03'
p105
sg25
S'--'
p106
sg27
S'--'
p107
sg29
S'--'
p108
sg31
S'L16-24'
p109
sg33
S'--'
p110
sg35
S'--'
p111
sg36
S'@CIN'
p112
sg38
S'--'
p113
sg40
S'--'
p114
sg41
S'--'
p115
ssS'16'
p116
(dp117
g5
S'--'
p118
sg7
S'--'
p119
sg9
g10
sg11
S'--'
p120
sg13
g14
sg15
S'Daniel Brown'
p121
sg17
S'2015'
p122
sg19
S'16'
p123
sg21
S'--'
p124
sg23
S'12/27'
p125
sg25
S'--'
p126
sg27
S'--'
p127
sg29
S'--'
p128
sg31
S'W20-17'
p129
sg33
S'--'
p130
sg35
S'--'
p131
sg36
S'PIT'
p132
sg38
S'--'
p133
sg40
S'--'
p134
sg41
S'--'
p135
sss.