(dp0
S'2015'
p1
(dp2
S'11'
p3
(dp4
S'RushTD'
p5
S'--'
p6
sS'RushYds'
p7
S'--'
p8
sS'GS'
p9
S'1'
p10
sS'Lost'
p11
S'--'
p12
sS'G'
p13
g10
sS'Player'
p14
S'Danny Amendola'
p15
sS'Year'
p16
S'2015'
p17
sS'WK'
p18
S'11'
p19
sS'RushAvg'
p20
S'--'
p21
sS'Game Date'
p22
S'11/23'
p23
sS'RecAvg'
p24
S'13.0'
p25
sS'FUM'
p26
S'--'
p27
sS'RushAtt'
p28
S'--'
p29
sS'Result'
p30
S'W20-13'
p31
sS'RecYds'
p32
S'117'
p33
sS'Rec'
p34
S'9'
p35
sS'Opp'
p36
S'BUF'
p37
sS'RecLng'
p38
S'41'
p39
sS'RecTD'
p40
S'0'
p41
sS'RushLng'
p42
S'--'
p43
ssS'10'
p44
(dp45
g5
S'--'
p46
sg7
S'--'
p47
sg9
g41
sg11
S'--'
p48
sg13
g10
sg14
S'Danny Amendola'
p49
sg16
S'2015'
p50
sg18
S'10'
p51
sg20
S'--'
p52
sg22
S'11/15'
p53
sg24
S'7.9'
p54
sg26
S'--'
p55
sg28
S'--'
p56
sg30
S'W27-26'
p57
sg32
S'79'
p58
sg34
S'10'
p59
sg36
S'@NYG'
p60
sg38
S'12'
p61
sg40
g41
sg42
S'--'
p62
ssS'13'
p63
(dp64
g5
S'--'
p65
sg7
S'--'
p66
sg9
g41
sg11
S'--'
p67
sg13
g10
sg14
S'Danny Amendola'
p68
sg16
S'2015'
p69
sg18
S'13'
p70
sg20
S'--'
p71
sg22
S'12/06'
p72
sg24
S'8.9'
p73
sg26
S'--'
p74
sg28
S'--'
p75
sg30
S'L28-35'
p76
sg32
S'62'
p77
sg34
S'7'
p78
sg36
S'PHI'
p79
sg38
S'14'
p80
sg40
g10
sg42
S'--'
p81
ssS'12'
p82
(dp83
g5
S'--'
p84
sg7
S'--'
p85
sg9
g41
sg11
S'--'
p86
sg13
g41
sg14
S'Danny Amendola'
p87
sg16
S'2015'
p88
sg18
S'12'
p89
sg20
S'--'
p90
sg22
S'11/29'
p91
sg24
S'--'
p92
sg26
S'--'
p93
sg28
S'--'
p94
sg30
S'L24-30'
p95
sg32
S'--'
p96
sg34
S'--'
p97
sg36
S'@DEN'
p98
sg38
S'--'
p99
sg40
S'--'
p100
sg42
S'--'
p101
ssS'15'
p102
(dp103
g5
S'--'
p104
sg7
S'--'
p105
sg9
g41
sg11
g10
sg13
g10
sg14
S'Danny Amendola'
p106
sg16
S'2015'
p107
sg18
S'15'
p108
sg20
S'--'
p109
sg22
S'12/20'
p110
sg24
S'3.0'
p111
sg26
g10
sg28
S'--'
p112
sg30
S'W33-16'
p113
sg32
S'3'
p114
sg34
g10
sg36
S'TEN'
p115
sg38
g114
sg40
g41
sg42
S'--'
p116
ssS'14'
p117
(dp118
g5
S'--'
p119
sg7
S'--'
p120
sg9
g41
sg11
S'--'
p121
sg13
g10
sg14
S'Danny Amendola'
p122
sg16
S'2015'
p123
sg18
S'14'
p124
sg20
S'--'
p125
sg22
S'12/13'
p126
sg24
S'7.7'
p127
sg26
S'--'
p128
sg28
S'--'
p129
sg30
S'W27-6'
p130
sg32
S'46'
p131
sg34
S'6'
p132
sg36
S'@HOU'
p133
sg38
S'10'
p134
sg40
g41
sg42
S'--'
p135
ssS'17'
p136
(dp137
g5
S'--'
p138
sg7
S'--'
p139
sg9
g41
sg11
S'--'
p140
sg13
g10
sg14
S'Danny Amendola'
p141
sg16
S'2015'
p142
sg18
S'17'
p143
sg20
S'--'
p144
sg22
S'01/03'
p145
sg24
S'8.5'
p146
sg26
S'--'
p147
sg28
S'--'
p148
sg30
S'L10-20'
p149
sg32
S'17'
p150
sg34
S'2'
p151
sg36
S'@MIA'
p152
sg38
g35
sg40
g41
sg42
S'--'
p153
ssS'16'
p154
(dp155
g5
S'--'
p156
sg7
S'--'
p157
sg9
g41
sg11
S'--'
p158
sg13
g41
sg14
S'Danny Amendola'
p159
sg16
S'2015'
p160
sg18
S'16'
p161
sg20
S'--'
p162
sg22
S'12/27'
p163
sg24
S'--'
p164
sg26
S'--'
p165
sg28
S'--'
p166
sg30
S'L20-26'
p167
sg32
S'--'
p168
sg34
S'--'
p169
sg36
S'@NYJ'
p170
sg38
S'--'
p171
sg40
S'--'
p172
sg42
S'--'
p173
ssg10
(dp174
g5
S'--'
p175
sg7
S'--'
p176
sg9
g10
sg11
S'--'
p177
sg13
g10
sg14
S'Danny Amendola'
p178
sg16
S'2015'
p179
sg18
g10
sg20
S'--'
p180
sg22
S'09/10'
p181
sg24
S'12.0'
p182
sg26
S'--'
p183
sg28
S'--'
p184
sg30
S'W28-21'
p185
sg32
S'24'
p186
sg34
g151
sg36
S'PIT'
p187
sg38
S'18'
p188
sg40
g41
sg42
S'--'
p189
ssg114
(dp190
g5
S'--'
p191
sg7
S'--'
p192
sg9
g10
sg11
S'--'
p193
sg13
g10
sg14
S'Danny Amendola'
p194
sg16
S'2015'
p195
sg18
g114
sg20
S'--'
p196
sg22
S'09/27'
p197
sg24
S'7.8'
p198
sg26
S'--'
p199
sg28
S'--'
p200
sg30
S'W51-17'
p201
sg32
S'39'
p202
sg34
S'5'
p203
sg36
S'JAC'
p204
sg38
S'12'
p205
sg40
g10
sg42
S'--'
p206
ssg151
(dp207
g5
g41
sg7
g114
sg9
g10
sg11
S'--'
p208
sg13
g10
sg14
S'Danny Amendola'
p209
sg16
S'2015'
p210
sg18
g151
sg20
S'3.0'
p211
sg22
S'09/20'
p212
sg24
S'29.0'
p213
sg26
S'--'
p214
sg28
g10
sg30
S'W40-32'
p215
sg32
S'29'
p216
sg34
g10
sg36
S'@BUF'
p217
sg38
S'29'
p218
sg40
g41
sg42
g114
ssg203
(dp219
g5
S'--'
p220
sg7
S'--'
p221
sg9
g41
sg11
S'--'
p222
sg13
g10
sg14
S'Danny Amendola'
p223
sg16
S'2015'
p224
sg18
g203
sg20
S'--'
p225
sg22
S'10/11'
p226
sg24
S'3.0'
p227
sg26
S'--'
p228
sg28
S'--'
p229
sg30
S'W30-6'
p230
sg32
g132
sg34
g151
sg36
S'@DAL'
p231
sg38
S'4'
p232
sg40
g41
sg42
S'--'
p233
ssg232
(dp234
g5
S''
p235
sg7
g235
sg9
g235
sg11
g235
sg13
g235
sg14
S'Danny Amendola'
p236
sg16
S'2015'
p237
sg18
g232
sg20
g235
sg22
S'Bye'
p238
sg24
g235
sg26
g235
sg28
g235
sg30
g235
sg32
g235
sg34
g235
sg36
g235
sg38
g235
sg40
g235
sg42
g235
ssg78
(dp239
g5
S'--'
p240
sg7
S'--'
p241
sg9
g10
sg11
S'--'
p242
sg13
g10
sg14
S'Danny Amendola'
p243
sg16
S'2015'
p244
sg18
g78
sg20
S'--'
p245
sg22
S'10/25'
p246
sg24
S'10.8'
p247
sg26
S'--'
p248
sg28
S'--'
p249
sg30
S'W30-23'
p250
sg32
S'86'
p251
sg34
S'8'
p252
sg36
S'NYJ'
p253
sg38
S'23'
p254
sg40
g10
sg42
S'--'
p255
ssg132
(dp256
g5
S'--'
p257
sg7
S'--'
p258
sg9
g41
sg11
S'--'
p259
sg13
g10
sg14
S'Danny Amendola'
p260
sg16
S'2015'
p261
sg18
g132
sg20
S'--'
p262
sg22
S'10/18'
p263
sg24
S'15.0'
p264
sg26
S'--'
p265
sg28
S'--'
p266
sg30
S'W34-27'
p267
sg32
S'105'
p268
sg34
g78
sg36
S'@IND'
p269
sg38
S'35'
p270
sg40
g41
sg42
S'--'
p271
ssg35
(dp272
g5
g41
sg7
g252
sg9
g10
sg11
S'--'
p273
sg13
g10
sg14
S'Danny Amendola'
p274
sg16
S'2015'
p275
sg18
g35
sg20
S'8.0'
p276
sg22
S'11/08'
p277
sg24
S'6.0'
p278
sg26
S'--'
p279
sg28
g10
sg30
S'W27-10'
p280
sg32
S'24'
p281
sg34
g232
sg36
S'WAS'
p282
sg38
S'11'
p283
sg40
g41
sg42
g252
ssg252
(dp284
g5
S'--'
p285
sg7
S'--'
p286
sg9
g10
sg11
S'--'
p287
sg13
g10
sg14
S'Danny Amendola'
p288
sg16
S'2015'
p289
sg18
g252
sg20
S'--'
p290
sg22
S'10/29'
p291
sg24
S'11.0'
p292
sg26
S'--'
p293
sg28
S'--'
p294
sg30
S'W36-7'
p295
sg32
S'11'
p296
sg34
g10
sg36
S'MIA'
p297
sg38
S'11'
p298
sg40
g41
sg42
S'--'
p299
sssS'2014'
p300
(dp301
g3
(dp302
g5
S'--'
p303
sg7
S'--'
p304
sg9
g41
sg11
S'--'
p305
sg13
g10
sg14
S'Danny Amendola'
p306
sg16
S'2014'
p307
sg18
S'11'
p308
sg20
S'--'
p309
sg22
S'11/16'
p310
sg24
S'6.5'
p311
sg26
S'--'
p312
sg28
S'--'
p313
sg30
S'W42-20'
p314
sg32
S'13'
p315
sg34
g151
sg36
S'@IND'
p316
sg38
g35
sg40
g41
sg42
S'--'
p317
ssg44
(dp318
g5
g235
sg7
g235
sg9
g235
sg11
g235
sg13
g235
sg14
S'Danny Amendola'
p319
sg16
S'2014'
p320
sg18
S'10'
p321
sg20
g235
sg22
S'Bye'
p322
sg24
g235
sg26
g235
sg28
g235
sg30
g235
sg32
g235
sg34
g235
sg36
g235
sg38
g235
sg40
g235
sg42
g235
ssg63
(dp323
g5
S'--'
p324
sg7
S'--'
p325
sg9
g41
sg11
S'--'
p326
sg13
g10
sg14
S'Danny Amendola'
p327
sg16
S'2014'
p328
sg18
S'13'
p329
sg20
S'--'
p330
sg22
S'11/30'
p331
sg24
S'--'
p332
sg26
S'--'
p333
sg28
S'--'
p334
sg30
S'L21-26'
p335
sg32
g41
sg34
g41
sg36
S'@GB'
p336
sg38
S'--'
p337
sg40
g41
sg42
S'--'
p338
ssg82
(dp339
g5
S'--'
p340
sg7
S'--'
p341
sg9
g41
sg11
S'--'
p342
sg13
g10
sg14
S'Danny Amendola'
p343
sg16
S'2014'
p344
sg18
S'12'
p345
sg20
S'--'
p346
sg22
S'11/23'
p347
sg24
S'--'
p348
sg26
S'--'
p349
sg28
S'--'
p350
sg30
S'W34-9'
p351
sg32
g41
sg34
g41
sg36
S'DET'
p352
sg38
S'--'
p353
sg40
g41
sg42
S'--'
p354
ssg102
(dp355
g5
S'--'
p356
sg7
S'--'
p357
sg9
g41
sg11
S'--'
p358
sg13
g10
sg14
S'Danny Amendola'
p359
sg16
S'2014'
p360
sg18
S'15'
p361
sg20
S'--'
p362
sg22
S'12/14'
p363
sg24
S'11.0'
p364
sg26
S'--'
p365
sg28
S'--'
p366
sg30
S'W41-13'
p367
sg32
S'11'
p368
sg34
g10
sg36
S'MIA'
p369
sg38
S'11'
p370
sg40
g41
sg42
S'--'
p371
ssg117
(dp372
g5
S'--'
p373
sg7
S'--'
p374
sg9
g41
sg11
S'--'
p375
sg13
g10
sg14
S'Danny Amendola'
p376
sg16
S'2014'
p377
sg18
S'14'
p378
sg20
S'--'
p379
sg22
S'12/07'
p380
sg24
S'2.3'
p381
sg26
S'--'
p382
sg28
S'--'
p383
sg30
S'W23-14'
p384
sg32
g78
sg34
g114
sg36
S'@SD'
p385
sg38
g203
sg40
g41
sg42
S'--'
p386
ssg136
(dp387
g5
S'--'
p388
sg7
S'--'
p389
sg9
g10
sg11
S'--'
p390
sg13
g10
sg14
S'Danny Amendola'
p391
sg16
S'2014'
p392
sg18
S'17'
p393
sg20
S'--'
p394
sg22
S'12/28'
p395
sg24
S'6.0'
p396
sg26
S'--'
p397
sg28
S'--'
p398
sg30
S'L9-17'
p399
sg32
S'24'
p400
sg34
g232
sg36
S'BUF'
p401
sg38
S'12'
p402
sg40
g41
sg42
S'--'
p403
ssg154
(dp404
g5
S'--'
p405
sg7
S'--'
p406
sg9
g10
sg11
S'--'
p407
sg13
g10
sg14
S'Danny Amendola'
p408
sg16
S'2014'
p409
sg18
S'16'
p410
sg20
S'--'
p411
sg22
S'12/21'
p412
sg24
S'7.9'
p413
sg26
S'--'
p414
sg28
S'--'
p415
sg30
S'W17-16'
p416
sg32
S'63'
p417
sg34
g252
sg36
S'@NYJ'
p418
sg38
S'12'
p419
sg40
g41
sg42
S'--'
p420
ssg10
(dp421
g5
S'--'
p422
sg7
S'--'
p423
sg9
g41
sg11
S'--'
p424
sg13
g10
sg14
S'Danny Amendola'
p425
sg16
S'2014'
p426
sg18
g10
sg20
S'--'
p427
sg22
S'09/07'
p428
sg24
S'5.3'
p429
sg26
S'--'
p430
sg28
S'--'
p431
sg30
S'L20-33'
p432
sg32
S'16'
p433
sg34
g114
sg36
S'@MIA'
p434
sg38
g252
sg40
g41
sg42
S'--'
p435
ssg114
(dp436
g5
S'--'
p437
sg7
S'--'
p438
sg9
g41
sg11
S'--'
p439
sg13
g10
sg14
S'Danny Amendola'
p440
sg16
S'2014'
p441
sg18
g114
sg20
S'--'
p442
sg22
S'09/21'
p443
sg24
S'--'
p444
sg26
S'--'
p445
sg28
S'--'
p446
sg30
S'W16-9'
p447
sg32
g41
sg34
g41
sg36
S'OAK'
p448
sg38
S'--'
p449
sg40
g41
sg42
S'--'
p450
ssg151
(dp451
g5
S'--'
p452
sg7
S'--'
p453
sg9
g41
sg11
S'--'
p454
sg13
g10
sg14
S'Danny Amendola'
p455
sg16
S'2014'
p456
sg18
g151
sg20
S'--'
p457
sg22
S'09/14'
p458
sg24
S'--'
p459
sg26
S'--'
p460
sg28
S'--'
p461
sg30
S'W30-7'
p462
sg32
g41
sg34
g41
sg36
S'@MIN'
p463
sg38
S'--'
p464
sg40
g41
sg42
S'--'
p465
ssg203
(dp466
g5
S'--'
p467
sg7
S'--'
p468
sg9
g41
sg11
S'--'
p469
sg13
g10
sg14
S'Danny Amendola'
p470
sg16
S'2014'
p471
sg18
g203
sg20
S'--'
p472
sg22
S'10/05'
p473
sg24
S'7.0'
p474
sg26
S'--'
p475
sg28
S'--'
p476
sg30
S'W43-17'
p477
sg32
g78
sg34
g10
sg36
S'CIN'
p478
sg38
g78
sg40
g41
sg42
S'--'
p479
ssg232
(dp480
g5
S'--'
p481
sg7
S'--'
p482
sg9
g10
sg11
S'--'
p483
sg13
g10
sg14
S'Danny Amendola'
p484
sg16
S'2014'
p485
sg18
g232
sg20
S'--'
p486
sg22
S'09/29'
p487
sg24
S'--'
p488
sg26
S'--'
p489
sg28
S'--'
p490
sg30
S'L14-41'
p491
sg32
g41
sg34
g41
sg36
S'@KC'
p492
sg38
S'--'
p493
sg40
g41
sg42
S'--'
p494
ssg78
(dp495
g5
S'--'
p496
sg7
S'--'
p497
sg9
g41
sg11
S'--'
p498
sg13
g10
sg14
S'Danny Amendola'
p499
sg16
S'2014'
p500
sg18
g78
sg20
S'--'
p501
sg22
S'10/16'
p502
sg24
S'19.0'
p503
sg26
S'--'
p504
sg28
S'--'
p505
sg30
S'W27-25'
p506
sg32
S'19'
p507
sg34
g10
sg36
S'NYJ'
p508
sg38
S'19T'
p509
sg40
g10
sg42
S'--'
p510
ssg132
(dp511
g5
S'--'
p512
sg7
S'--'
p513
sg9
g41
sg11
S'--'
p514
sg13
g10
sg14
S'Danny Amendola'
p515
sg16
S'2014'
p516
sg18
g132
sg20
S'--'
p517
sg22
S'10/12'
p518
sg24
S'--'
p519
sg26
S'--'
p520
sg28
S'--'
p521
sg30
S'W37-22'
p522
sg32
S'--'
p523
sg34
S'--'
p524
sg36
S'@BUF'
p525
sg38
S'--'
p526
sg40
S'--'
p527
sg42
S'--'
p528
ssg35
(dp529
g5
S'--'
p530
sg7
S'--'
p531
sg9
g41
sg11
S'--'
p532
sg13
g10
sg14
S'Danny Amendola'
p533
sg16
S'2014'
p534
sg18
g35
sg20
S'--'
p535
sg22
S'11/02'
p536
sg24
S'17.5'
p537
sg26
S'--'
p538
sg28
S'--'
p539
sg30
S'W43-21'
p540
sg32
S'35'
p541
sg34
g151
sg36
S'DEN'
p542
sg38
S'21'
p543
sg40
g41
sg42
S'--'
p544
ssg252
(dp545
g5
S'--'
p546
sg7
S'--'
p547
sg9
g10
sg11
S'--'
p548
sg13
g10
sg14
S'Danny Amendola'
p549
sg16
S'2014'
p550
sg18
g252
sg20
S'--'
p551
sg22
S'10/26'
p552
sg24
S'2.5'
p553
sg26
S'--'
p554
sg28
S'--'
p555
sg30
S'W51-23'
p556
sg32
g203
sg34
g151
sg36
S'CHI'
p557
sg38
g132
sg40
g41
sg42
S'--'
p558
sssS'2011'
p559
(dp560
g10
(dp561
g5
S'--'
p562
sg7
S'--'
p563
sg9
g10
sg11
g41
sg13
g10
sg14
S'Danny Amendola'
p564
sg16
S'2011'
p565
sg18
g10
sg20
S'--'
p566
sg22
S'09/11'
p567
sg24
S'9.0'
p568
sg26
g10
sg28
S'--'
p569
sg30
S'L13-31'
p570
sg32
S'45'
p571
sg34
g203
sg36
S'PHI'
p572
sg38
S'18'
p573
sg40
g41
sg42
S'--'
p574
ssg114
(dp575
g5
S'--'
p576
sg7
S'--'
p577
sg9
g41
sg11
S'--'
p578
sg13
g41
sg14
S'Danny Amendola'
p579
sg16
S'2011'
p580
sg18
g114
sg20
S'--'
p581
sg22
S'09/25'
p582
sg24
S'--'
p583
sg26
S'--'
p584
sg28
S'--'
p585
sg30
S'L7-37'
p586
sg32
S'--'
p587
sg34
S'--'
p588
sg36
S'BAL'
p589
sg38
S'--'
p590
sg40
S'--'
p591
sg42
S'--'
p592
ssg151
(dp593
g5
S'--'
p594
sg7
S'--'
p595
sg9
g41
sg11
S'--'
p596
sg13
g41
sg14
S'Danny Amendola'
p597
sg16
S'2011'
p598
sg18
g151
sg20
S'--'
p599
sg22
S'09/19'
p600
sg24
S'--'
p601
sg26
S'--'
p602
sg28
S'--'
p603
sg30
S'L16-28'
p604
sg32
S'--'
p605
sg34
S'--'
p606
sg36
S'@NYG'
p607
sg38
S'--'
p608
sg40
S'--'
p609
sg42
S'--'
p610
ssg232
(dp611
g5
S'--'
p612
sg7
S'--'
p613
sg9
g41
sg11
S'--'
p614
sg13
g41
sg14
S'Danny Amendola'
p615
sg16
S'2011'
p616
sg18
g232
sg20
S'--'
p617
sg22
S'10/02'
p618
sg24
S'--'
p619
sg26
S'--'
p620
sg28
S'--'
p621
sg30
S'L10-17'
p622
sg32
S'--'
p623
sg34
S'--'
p624
sg36
S'WAS'
p625
sg38
S'--'
p626
sg40
S'--'
p627
sg42
S'--'
p628
sssS'2010'
p629
(dp630
g3
(dp631
g5
S'--'
p632
sg7
S'--'
p633
sg9
g10
sg11
S'--'
p634
sg13
g10
sg14
S'Danny Amendola'
p635
sg16
S'2010'
p636
sg18
S'11'
p637
sg20
S'--'
p638
sg22
S'11/21'
p639
sg24
S'7.9'
p640
sg26
S'--'
p641
sg28
S'--'
p642
sg30
S'L17-34'
p643
sg32
S'63'
p644
sg34
g252
sg36
S'ATL'
p645
sg38
S'18'
p646
sg40
g41
sg42
S'--'
p647
ssg44
(dp648
g5
g41
sg7
S'12'
p649
sg9
g10
sg11
S'--'
p650
sg13
g10
sg14
S'Danny Amendola'
p651
sg16
S'2010'
p652
sg18
S'10'
p653
sg20
S'6.0'
p654
sg22
S'11/14'
p655
sg24
S'7.3'
p656
sg26
S'--'
p657
sg28
g151
sg30
S'L20-23'
p658
sg32
S'51'
p659
sg34
g78
sg36
S'@SF'
p660
sg38
S'25'
p661
sg40
g10
sg42
S'10'
p662
ssg63
(dp663
g5
g41
sg7
g41
sg9
g41
sg11
S'--'
p664
sg13
g10
sg14
S'Danny Amendola'
p665
sg16
S'2010'
p666
sg18
S'13'
p667
sg20
S'0.0'
p668
sg22
S'12/05'
p669
sg24
S'17.0'
p670
sg26
S'--'
p671
sg28
g10
sg30
S'W19-6'
p672
sg32
S'17'
p673
sg34
g10
sg36
S'@ARI'
p674
sg38
S'17'
p675
sg40
g41
sg42
g41
ssg82
(dp676
g5
g41
sg7
S'48'
p677
sg9
g41
sg11
S'--'
p678
sg13
g10
sg14
S'Danny Amendola'
p679
sg16
S'2010'
p680
sg18
S'12'
p681
sg20
S'16.0'
p682
sg22
S'11/28'
p683
sg24
S'10.3'
p684
sg26
S'--'
p685
sg28
g114
sg30
S'W36-33'
p686
sg32
S'41'
p687
sg34
g232
sg36
S'@DEN'
p688
sg38
S'17'
p689
sg40
g41
sg42
S'30'
p690
ssg102
(dp691
g5
S'--'
p692
sg7
S'--'
p693
sg9
g41
sg11
S'--'
p694
sg13
g10
sg14
S'Danny Amendola'
p695
sg16
S'2010'
p696
sg18
S'15'
p697
sg20
S'--'
p698
sg22
S'12/19'
p699
sg24
S'8.6'
p700
sg26
S'--'
p701
sg28
S'--'
p702
sg30
S'L13-27'
p703
sg32
S'60'
p704
sg34
g78
sg36
S'KC'
p705
sg38
S'16'
p706
sg40
g41
sg42
S'--'
p707
ssg117
(dp708
g5
S'--'
p709
sg7
S'--'
p710
sg9
g41
sg11
S'--'
p711
sg13
g10
sg14
S'Danny Amendola'
p712
sg16
S'2010'
p713
sg18
S'14'
p714
sg20
S'--'
p715
sg22
S'12/12'
p716
sg24
S'5.3'
p717
sg26
S'--'
p718
sg28
S'--'
p719
sg30
S'L13-31'
p720
sg32
S'16'
p721
sg34
g114
sg36
S'@NO'
p722
sg38
S'10'
p723
sg40
g41
sg42
S'--'
p724
ssg136
(dp725
g5
S'--'
p726
sg7
S'--'
p727
sg9
g41
sg11
S'--'
p728
sg13
g10
sg14
S'Danny Amendola'
p729
sg16
S'2010'
p730
sg18
S'17'
p731
sg20
S'--'
p732
sg22
S'01/02'
p733
sg24
S'4.5'
p734
sg26
S'--'
p735
sg28
S'--'
p736
sg30
S'L6-16'
p737
sg32
g35
sg34
g151
sg36
S'@SEA'
p738
sg38
g132
sg40
g41
sg42
S'--'
p739
ssg154
(dp740
g5
S'--'
p741
sg7
S'--'
p742
sg9
g10
sg11
g41
sg13
g10
sg14
S'Danny Amendola'
p743
sg16
S'2010'
p744
sg18
S'16'
p745
sg20
S'--'
p746
sg22
S'12/26'
p747
sg24
S'6.6'
p748
sg26
g10
sg28
S'--'
p749
sg30
S'W25-17'
p750
sg32
S'53'
p751
sg34
g252
sg36
S'SF'
p752
sg38
S'10'
p753
sg40
g41
sg42
S'--'
p754
ssg10
(dp755
g5
S'--'
p756
sg7
S'--'
p757
sg9
g10
sg11
S'--'
p758
sg13
g10
sg14
S'Danny Amendola'
p759
sg16
S'2010'
p760
sg18
g10
sg20
S'--'
p761
sg22
S'09/12'
p762
sg24
S'11.2'
p763
sg26
S'--'
p764
sg28
S'--'
p765
sg30
S'L13-17'
p766
sg32
S'67'
p767
sg34
g132
sg36
S'ARI'
p768
sg38
S'36'
p769
sg40
g41
sg42
S'--'
p770
ssg114
(dp771
g5
S'--'
p772
sg7
S'--'
p773
sg9
g41
sg11
S'--'
p774
sg13
g10
sg14
S'Danny Amendola'
p775
sg16
S'2010'
p776
sg18
g114
sg20
S'--'
p777
sg22
S'09/26'
p778
sg24
S'9.3'
p779
sg26
S'--'
p780
sg28
S'--'
p781
sg30
S'W30-16'
p782
sg32
S'56'
p783
sg34
g132
sg36
S'WAS'
p784
sg38
S'18'
p785
sg40
g41
sg42
S'--'
p786
ssg151
(dp787
g5
S'--'
p788
sg7
S'--'
p789
sg9
g10
sg11
S'--'
p790
sg13
g10
sg14
S'Danny Amendola'
p791
sg16
S'2010'
p792
sg18
g151
sg20
S'--'
p793
sg22
S'09/19'
p794
sg24
S'9.8'
p795
sg26
S'--'
p796
sg28
S'--'
p797
sg30
S'L14-16'
p798
sg32
S'39'
p799
sg34
g232
sg36
S'@OAK'
p800
sg38
S'16'
p801
sg40
g41
sg42
S'--'
p802
ssg203
(dp803
g5
S'--'
p804
sg7
S'--'
p805
sg9
g10
sg11
g10
sg13
g10
sg14
S'Danny Amendola'
p806
sg16
S'2010'
p807
sg18
g203
sg20
S'--'
p808
sg22
S'10/10'
p809
sg24
S'7.9'
p810
sg26
g10
sg28
S'--'
p811
sg30
S'L6-44'
p812
sg32
S'95'
p813
sg34
S'12'
p814
sg36
S'@DET'
p815
sg38
S'18'
p816
sg40
g41
sg42
S'--'
p817
ssg232
(dp818
g5
S'--'
p819
sg7
S'--'
p820
sg9
g41
sg11
S'--'
p821
sg13
g10
sg14
S'Danny Amendola'
p822
sg16
S'2010'
p823
sg18
g232
sg20
S'--'
p824
sg22
S'10/03'
p825
sg24
S'9.2'
p826
sg26
S'--'
p827
sg28
S'--'
p828
sg30
S'W20-3'
p829
sg32
S'46'
p830
sg34
g203
sg36
S'SEA'
p831
sg38
S'14'
p832
sg40
g41
sg42
S'--'
p833
ssg78
(dp834
g5
g41
sg7
S'21'
p835
sg9
g41
sg11
S'--'
p836
sg13
g10
sg14
S'Danny Amendola'
p837
sg16
S'2010'
p838
sg18
g78
sg20
S'21.0'
p839
sg22
S'10/24'
p840
sg24
S'9.7'
p841
sg26
S'--'
p842
sg28
g10
sg30
S'L17-18'
p843
sg32
S'29'
p844
sg34
g114
sg36
S'@TB'
p845
sg38
S'18'
p846
sg40
g10
sg42
S'21'
p847
ssg132
(dp848
g5
S'--'
p849
sg7
S'--'
p850
sg9
g41
sg11
S'--'
p851
sg13
g10
sg14
S'Danny Amendola'
p852
sg16
S'2010'
p853
sg18
g132
sg20
S'--'
p854
sg22
S'10/17'
p855
sg24
S'6.3'
p856
sg26
S'--'
p857
sg28
S'--'
p858
sg30
S'W20-17'
p859
sg32
S'19'
p860
sg34
g114
sg36
S'SD'
p861
sg38
S'11'
p862
sg40
g41
sg42
S'--'
p863
ssg35
(dp864
g5
g235
sg7
g235
sg9
g235
sg11
g235
sg13
g235
sg14
S'Danny Amendola'
p865
sg16
S'2010'
p866
sg18
g35
sg20
g235
sg22
S'Bye'
p867
sg24
g235
sg26
g235
sg28
g235
sg30
g235
sg32
g235
sg34
g235
sg36
g235
sg38
g235
sg40
g235
sg42
g235
ssg252
(dp868
g5
S'--'
p869
sg7
S'--'
p870
sg9
g41
sg11
S'--'
p871
sg13
g10
sg14
S'Danny Amendola'
p872
sg16
S'2010'
p873
sg18
g252
sg20
S'--'
p874
sg22
S'10/31'
p875
sg24
S'4.7'
p876
sg26
S'--'
p877
sg28
S'--'
p878
sg30
S'W20-10'
p879
sg32
S'28'
p880
sg34
g132
sg36
S'CAR'
p881
sg38
g35
sg40
g10
sg42
S'--'
p882
sssS'2013'
p883
(dp884
g3
(dp885
g5
S'--'
p886
sg7
S'--'
p887
sg9
g10
sg11
S'--'
p888
sg13
g10
sg14
S'Danny Amendola'
p889
sg16
S'2013'
p890
sg18
S'11'
p891
sg20
S'--'
p892
sg22
S'11/18'
p893
sg24
S'7.5'
p894
sg26
S'--'
p895
sg28
S'--'
p896
sg30
S'L20-24'
p897
sg32
S'45'
p898
sg34
g132
sg36
S'@CAR'
p899
sg38
S'13'
p900
sg40
g41
sg42
S'--'
p901
ssg44
(dp902
g5
g235
sg7
g235
sg9
g235
sg11
g235
sg13
g235
sg14
S'Danny Amendola'
p903
sg16
S'2013'
p904
sg18
S'10'
p905
sg20
g235
sg22
S'Bye'
p906
sg24
g235
sg26
g235
sg28
g235
sg30
g235
sg32
g235
sg34
g235
sg36
g235
sg38
g235
sg40
g235
sg42
g235
ssg63
(dp907
g5
S'--'
p908
sg7
S'--'
p909
sg9
g41
sg11
S'--'
p910
sg13
g10
sg14
S'Danny Amendola'
p911
sg16
S'2013'
p912
sg18
S'13'
p913
sg20
S'--'
p914
sg22
S'12/01'
p915
sg24
S'10.8'
p916
sg26
S'--'
p917
sg28
S'--'
p918
sg30
S'W34-31'
p919
sg32
S'54'
p920
sg34
g203
sg36
S'@HOU'
p921
sg38
S'17'
p922
sg40
g41
sg42
S'--'
p923
ssg82
(dp924
g5
S'--'
p925
sg7
S'--'
p926
sg9
g41
sg11
S'--'
p927
sg13
g10
sg14
S'Danny Amendola'
p928
sg16
S'2013'
p929
sg18
S'12'
p930
sg20
S'--'
p931
sg22
S'11/24'
p932
sg24
S'5.7'
p933
sg26
S'--'
p934
sg28
S'--'
p935
sg30
S'W34-31'
p936
sg32
S'17'
p937
sg34
g114
sg36
S'DEN'
p938
sg38
g252
sg40
g41
sg42
S'--'
p939
ssg102
(dp940
g5
S'--'
p941
sg7
S'--'
p942
sg9
g10
sg11
S'--'
p943
sg13
g10
sg14
S'Danny Amendola'
p944
sg16
S'2013'
p945
sg18
S'15'
p946
sg20
S'--'
p947
sg22
S'12/15'
p948
sg24
S'13.1'
p949
sg26
S'--'
p950
sg28
S'--'
p951
sg30
S'L20-24'
p952
sg32
S'131'
p953
sg34
S'10'
p954
sg36
S'@MIA'
p955
sg38
S'30'
p956
sg40
g41
sg42
S'--'
p957
ssg117
(dp958
g5
S'--'
p959
sg7
S'--'
p960
sg9
g41
sg11
S'--'
p961
sg13
g10
sg14
S'Danny Amendola'
p962
sg16
S'2013'
p963
sg18
S'14'
p964
sg20
S'--'
p965
sg22
S'12/08'
p966
sg24
S'9.0'
p967
sg26
S'--'
p968
sg28
S'--'
p969
sg30
S'W27-26'
p970
sg32
S'36'
p971
sg34
g232
sg36
S'CLE'
p972
sg38
S'13'
p973
sg40
g10
sg42
S'--'
p974
ssg136
(dp975
g5
S'--'
p976
sg7
S'--'
p977
sg9
g41
sg11
S'--'
p978
sg13
g10
sg14
S'Danny Amendola'
p979
sg16
S'2013'
p980
sg18
S'17'
p981
sg20
S'--'
p982
sg22
S'12/29'
p983
sg24
S'9.0'
p984
sg26
S'--'
p985
sg28
S'--'
p986
sg30
S'W34-20'
p987
sg32
g35
sg34
g10
sg36
S'BUF'
p988
sg38
g35
sg40
g41
sg42
S'--'
p989
ssg154
(dp990
g5
S'--'
p991
sg7
S'--'
p992
sg9
g41
sg11
S'--'
p993
sg13
g10
sg14
S'Danny Amendola'
p994
sg16
S'2013'
p995
sg18
S'16'
p996
sg20
S'--'
p997
sg22
S'12/22'
p998
sg24
S'22.5'
p999
sg26
S'--'
p1000
sg28
S'--'
p1001
sg30
S'W41-7'
p1002
sg32
S'45'
p1003
sg34
g151
sg36
S'@BAL'
p1004
sg38
S'34'
p1005
sg40
g41
sg42
S'--'
p1006
ssg10
(dp1007
g5
S'--'
p1008
sg7
S'--'
p1009
sg9
g10
sg11
S'--'
p1010
sg13
g10
sg14
S'Danny Amendola'
p1011
sg16
S'2013'
p1012
sg18
g10
sg20
S'--'
p1013
sg22
S'09/08'
p1014
sg24
S'10.4'
p1015
sg26
S'--'
p1016
sg28
S'--'
p1017
sg30
S'W23-21'
p1018
sg32
S'104'
p1019
sg34
S'10'
p1020
sg36
S'@BUF'
p1021
sg38
S'24'
p1022
sg40
g41
sg42
S'--'
p1023
ssg114
(dp1024
g5
S'--'
p1025
sg7
S'--'
p1026
sg9
g41
sg11
S'--'
p1027
sg13
g41
sg14
S'Danny Amendola'
p1028
sg16
S'2013'
p1029
sg18
g114
sg20
S'--'
p1030
sg22
S'09/22'
p1031
sg24
S'--'
p1032
sg26
S'--'
p1033
sg28
S'--'
p1034
sg30
S'W23-3'
p1035
sg32
S'--'
p1036
sg34
S'--'
p1037
sg36
S'TB'
p1038
sg38
S'--'
p1039
sg40
S'--'
p1040
sg42
S'--'
p1041
ssg151
(dp1042
g5
S'--'
p1043
sg7
S'--'
p1044
sg9
g41
sg11
S'--'
p1045
sg13
g41
sg14
S'Danny Amendola'
p1046
sg16
S'2013'
p1047
sg18
g151
sg20
S'--'
p1048
sg22
S'09/12'
p1049
sg24
S'--'
p1050
sg26
S'--'
p1051
sg28
S'--'
p1052
sg30
S'W13-10'
p1053
sg32
S'--'
p1054
sg34
S'--'
p1055
sg36
S'NYJ'
p1056
sg38
S'--'
p1057
sg40
S'--'
p1058
sg42
S'--'
p1059
ssg203
(dp1060
g5
S'--'
p1061
sg7
S'--'
p1062
sg9
g41
sg11
S'--'
p1063
sg13
g10
sg14
S'Danny Amendola'
p1064
sg16
S'2013'
p1065
sg18
g203
sg20
S'--'
p1066
sg22
S'10/06'
p1067
sg24
S'13.8'
p1068
sg26
S'--'
p1069
sg28
S'--'
p1070
sg30
S'L6-13'
p1071
sg32
S'55'
p1072
sg34
g232
sg36
S'@CIN'
p1073
sg38
S'21'
p1074
sg40
g41
sg42
S'--'
p1075
ssg232
(dp1076
g5
S'--'
p1077
sg7
S'--'
p1078
sg9
g41
sg11
S'--'
p1079
sg13
g41
sg14
S'Danny Amendola'
p1080
sg16
S'2013'
p1081
sg18
g232
sg20
S'--'
p1082
sg22
S'09/29'
p1083
sg24
S'--'
p1084
sg26
S'--'
p1085
sg28
S'--'
p1086
sg30
S'W30-23'
p1087
sg32
S'--'
p1088
sg34
S'--'
p1089
sg36
S'@ATL'
p1090
sg38
S'--'
p1091
sg40
S'--'
p1092
sg42
S'--'
p1093
ssg78
(dp1094
g5
S'--'
p1095
sg7
S'--'
p1096
sg9
g41
sg11
S'--'
p1097
sg13
g41
sg14
S'Danny Amendola'
p1098
sg16
S'2013'
p1099
sg18
g78
sg20
S'--'
p1100
sg22
S'10/20'
p1101
sg24
S'--'
p1102
sg26
S'--'
p1103
sg28
S'--'
p1104
sg30
S'L27-30'
p1105
sg32
S'--'
p1106
sg34
S'--'
p1107
sg36
S'@NYJ'
p1108
sg38
S'--'
p1109
sg40
S'--'
p1110
sg42
S'--'
p1111
ssg132
(dp1112
g5
g41
sg7
g10
sg9
g10
sg11
S'--'
p1113
sg13
g10
sg14
S'Danny Amendola'
p1114
sg16
S'2013'
p1115
sg18
g132
sg20
S'1.0'
p1116
sg22
S'10/13'
p1117
sg24
S'0.0'
p1118
sg26
S'--'
p1119
sg28
g10
sg30
S'W30-27'
p1120
sg32
g41
sg34
g151
sg36
S'NO'
p1121
sg38
g10
sg40
g41
sg42
g10
ssg35
(dp1122
g5
S'--'
p1123
sg7
S'--'
p1124
sg9
g10
sg11
S'--'
p1125
sg13
g10
sg14
S'Danny Amendola'
p1126
sg16
S'2013'
p1127
sg18
g35
sg20
S'--'
p1128
sg22
S'11/03'
p1129
sg24
S'30.5'
p1130
sg26
S'--'
p1131
sg28
S'--'
p1132
sg30
S'W55-31'
p1133
sg32
S'122'
p1134
sg34
g232
sg36
S'PIT'
p1135
sg38
S'57'
p1136
sg40
g10
sg42
S'--'
p1137
ssg252
(dp1138
g5
S'--'
p1139
sg7
S'--'
p1140
sg9
g10
sg11
S'--'
p1141
sg13
g10
sg14
S'Danny Amendola'
p1142
sg16
S'2013'
p1143
sg18
g252
sg20
S'--'
p1144
sg22
S'10/27'
p1145
sg24
S'5.0'
p1146
sg26
S'--'
p1147
sg28
S'--'
p1148
sg30
S'W27-17'
p1149
sg32
S'15'
p1150
sg34
g114
sg36
S'MIA'
p1151
sg38
g252
sg40
g41
sg42
S'--'
p1152
sssS'2012'
p1153
(dp1154
g3
(dp1155
g5
S'--'
p1156
sg7
S'--'
p1157
sg9
g10
sg11
S'--'
p1158
sg13
g10
sg14
S'Danny Amendola'
p1159
sg16
S'2012'
p1160
sg18
S'11'
p1161
sg20
S'--'
p1162
sg22
S'11/18'
p1163
sg24
S'5.9'
p1164
sg26
S'--'
p1165
sg28
S'--'
p1166
sg30
S'L13-27'
p1167
sg32
S'41'
p1168
sg34
g78
sg36
S'NYJ'
p1169
sg38
S'10'
p1170
sg40
g41
sg42
S'--'
p1171
ssg44
(dp1172
g5
S'--'
p1173
sg7
S'--'
p1174
sg9
g10
sg11
S'--'
p1175
sg13
g10
sg14
S'Danny Amendola'
p1176
sg16
S'2012'
p1177
sg18
S'10'
p1178
sg20
S'--'
p1179
sg22
S'11/11'
p1180
sg24
S'9.3'
p1181
sg26
S'--'
p1182
sg28
S'--'
p1183
sg30
S'T24-24'
p1184
sg32
S'102'
p1185
sg34
S'11'
p1186
sg36
S'@SF'
p1187
sg38
S'16'
p1188
sg40
g41
sg42
S'--'
p1189
ssg63
(dp1190
g5
S'--'
p1191
sg7
S'--'
p1192
sg9
g41
sg11
S'--'
p1193
sg13
g41
sg14
S'Danny Amendola'
p1194
sg16
S'2012'
p1195
sg18
S'13'
p1196
sg20
S'--'
p1197
sg22
S'12/02'
p1198
sg24
S'--'
p1199
sg26
S'--'
p1200
sg28
S'--'
p1201
sg30
S'W16-13'
p1202
sg32
S'--'
p1203
sg34
S'--'
p1204
sg36
S'SF'
p1205
sg38
S'--'
p1206
sg40
S'--'
p1207
sg42
S'--'
p1208
ssg82
(dp1209
g5
S'--'
p1210
sg7
S'--'
p1211
sg9
g41
sg11
S'--'
p1212
sg13
g10
sg14
S'Danny Amendola'
p1213
sg16
S'2012'
p1214
sg18
S'12'
p1215
sg20
S'--'
p1216
sg22
S'11/25'
p1217
sg24
S'38.0'
p1218
sg26
S'--'
p1219
sg28
S'--'
p1220
sg30
S'W31-17'
p1221
sg32
S'38'
p1222
sg34
g10
sg36
S'@ARI'
p1223
sg38
S'38'
p1224
sg40
g41
sg42
S'--'
p1225
ssg102
(dp1226
g5
S'--'
p1227
sg7
S'--'
p1228
sg9
g10
sg11
S'--'
p1229
sg13
g10
sg14
S'Danny Amendola'
p1230
sg16
S'2012'
p1231
sg18
S'15'
p1232
sg20
S'--'
p1233
sg22
S'12/16'
p1234
sg24
S'9.7'
p1235
sg26
S'--'
p1236
sg28
S'--'
p1237
sg30
S'L22-36'
p1238
sg32
S'58'
p1239
sg34
g132
sg36
S'MIN'
p1240
sg38
S'26'
p1241
sg40
g10
sg42
S'--'
p1242
ssg117
(dp1243
g5
S'--'
p1244
sg7
S'--'
p1245
sg9
g41
sg11
S'--'
p1246
sg13
g41
sg14
S'Danny Amendola'
p1247
sg16
S'2012'
p1248
sg18
S'14'
p1249
sg20
S'--'
p1250
sg22
S'12/09'
p1251
sg24
S'--'
p1252
sg26
S'--'
p1253
sg28
S'--'
p1254
sg30
S'W15-12'
p1255
sg32
S'--'
p1256
sg34
S'--'
p1257
sg36
S'@BUF'
p1258
sg38
S'--'
p1259
sg40
S'--'
p1260
sg42
S'--'
p1261
ssg136
(dp1262
g5
S'--'
p1263
sg7
S'--'
p1264
sg9
g41
sg11
g41
sg13
g10
sg14
S'Danny Amendola'
p1265
sg16
S'2012'
p1266
sg18
S'17'
p1267
sg20
S'--'
p1268
sg22
S'12/30'
p1269
sg24
S'6.8'
p1270
sg26
g10
sg28
S'--'
p1271
sg30
S'L13-20'
p1272
sg32
S'27'
p1273
sg34
g232
sg36
S'@SEA'
p1274
sg38
g35
sg40
g41
sg42
S'--'
p1275
ssg154
(dp1276
g5
S'--'
p1277
sg7
S'--'
p1278
sg9
g10
sg11
g10
sg13
g10
sg14
S'Danny Amendola'
p1279
sg16
S'2012'
p1280
sg18
S'16'
p1281
sg20
S'--'
p1282
sg22
S'12/23'
p1283
sg24
S'2.5'
p1284
sg26
g10
sg28
S'--'
p1285
sg30
S'W28-13'
p1286
sg32
g203
sg34
g151
sg36
S'@TB'
p1287
sg38
g252
sg40
g41
sg42
S'--'
p1288
ssg10
(dp1289
g5
g41
sg7
g151
sg9
g10
sg11
S'--'
p1290
sg13
g10
sg14
S'Danny Amendola'
p1291
sg16
S'2012'
p1292
sg18
g10
sg20
S'2.0'
p1293
sg22
S'09/09'
p1294
sg24
S'14.0'
p1295
sg26
S'--'
p1296
sg28
g10
sg30
S'L23-27'
p1297
sg32
S'70'
p1298
sg34
g203
sg36
S'@DET'
p1299
sg38
S'17'
p1300
sg40
g41
sg42
g151
ssg114
(dp1301
g5
S'--'
p1302
sg7
S'--'
p1303
sg9
g10
sg11
S'--'
p1304
sg13
g10
sg14
S'Danny Amendola'
p1305
sg16
S'2012'
p1306
sg18
g114
sg20
S'--'
p1307
sg22
S'09/23'
p1308
sg24
S'13.2'
p1309
sg26
S'--'
p1310
sg28
S'--'
p1311
sg30
S'L6-23'
p1312
sg32
S'66'
p1313
sg34
g203
sg36
S'@CHI'
p1314
sg38
S'30'
p1315
sg40
g41
sg42
S'--'
p1316
ssg151
(dp1317
g5
S'--'
p1318
sg7
S'--'
p1319
sg9
g10
sg11
g10
sg13
g10
sg14
S'Danny Amendola'
p1320
sg16
S'2012'
p1321
sg18
g151
sg20
S'--'
p1322
sg22
S'09/16'
p1323
sg24
S'10.7'
p1324
sg26
g10
sg28
S'--'
p1325
sg30
S'W31-28'
p1326
sg32
S'160'
p1327
sg34
S'15'
p1328
sg36
S'WAS'
p1329
sg38
S'56'
p1330
sg40
g10
sg42
S'--'
p1331
ssg203
(dp1332
g5
S'--'
p1333
sg7
S'--'
p1334
sg9
g41
sg11
S'--'
p1335
sg13
g10
sg14
S'Danny Amendola'
p1336
sg16
S'2012'
p1337
sg18
g203
sg20
S'--'
p1338
sg22
S'10/04'
p1339
sg24
S'44.0'
p1340
sg26
S'--'
p1341
sg28
S'--'
p1342
sg30
S'W17-3'
p1343
sg32
S'44'
p1344
sg34
g10
sg36
S'ARI'
p1345
sg38
S'44'
p1346
sg40
g41
sg42
S'--'
p1347
ssg232
(dp1348
g5
g41
sg7
g132
sg9
g10
sg11
S'--'
p1349
sg13
g10
sg14
S'Danny Amendola'
p1350
sg16
S'2012'
p1351
sg18
g232
sg20
S'6.0'
p1352
sg22
S'09/30'
p1353
sg24
S'9.2'
p1354
sg26
S'--'
p1355
sg28
g10
sg30
S'W19-13'
p1356
sg32
S'55'
p1357
sg34
g132
sg36
S'SEA'
p1358
sg38
S'15'
p1359
sg40
g10
sg42
g132
ssg78
(dp1360
g5
S'--'
p1361
sg7
S'--'
p1362
sg9
g41
sg11
S'--'
p1363
sg13
g41
sg14
S'Danny Amendola'
p1364
sg16
S'2012'
p1365
sg18
g78
sg20
S'--'
p1366
sg22
S'10/21'
p1367
sg24
S'--'
p1368
sg26
S'--'
p1369
sg28
S'--'
p1370
sg30
S'L20-30'
p1371
sg32
S'--'
p1372
sg34
S'--'
p1373
sg36
S'GB'
p1374
sg38
S'--'
p1375
sg40
S'--'
p1376
sg42
S'--'
p1377
ssg132
(dp1378
g5
S'--'
p1379
sg7
S'--'
p1380
sg9
g41
sg11
S'--'
p1381
sg13
g41
sg14
S'Danny Amendola'
p1382
sg16
S'2012'
p1383
sg18
g132
sg20
S'--'
p1384
sg22
S'10/14'
p1385
sg24
S'--'
p1386
sg26
S'--'
p1387
sg28
S'--'
p1388
sg30
S'L14-17'
p1389
sg32
S'--'
p1390
sg34
S'--'
p1391
sg36
S'@MIA'
p1392
sg38
S'--'
p1393
sg40
S'--'
p1394
sg42
S'--'
p1395
ssg35
(dp1396
g5
g235
sg7
g235
sg9
g235
sg11
g235
sg13
g235
sg14
S'Danny Amendola'
p1397
sg16
S'2012'
p1398
sg18
g35
sg20
g235
sg22
S'Bye'
p1399
sg24
g235
sg26
g235
sg28
g235
sg30
g235
sg32
g235
sg34
g235
sg36
g235
sg38
g235
sg40
g235
sg42
g235
ssg252
(dp1400
g5
S'--'
p1401
sg7
S'--'
p1402
sg9
g41
sg11
S'--'
p1403
sg13
g41
sg14
S'Danny Amendola'
p1404
sg16
S'2012'
p1405
sg18
g252
sg20
S'--'
p1406
sg22
S'10/28'
p1407
sg24
S'--'
p1408
sg26
S'--'
p1409
sg28
S'--'
p1410
sg30
S'L7-45'
p1411
sg32
S'--'
p1412
sg34
S'--'
p1413
sg36
S'NE'
p1414
sg38
S'--'
p1415
sg40
S'--'
p1416
sg42
S'--'
p1417
sss.