(dp0
S'2015'
p1
(dp2
S'13'
p3
(dp4
S'RushTD'
p5
S'--'
p6
sS'RushYds'
p7
S'--'
p8
sS'GS'
p9
S'0'
p10
sS'Lost'
p11
S'--'
p12
sS'G'
p13
S'1'
p14
sS'Player'
p15
S'Darius Jennings'
p16
sS'Year'
p17
S'2015'
p18
sS'WK'
p19
S'13'
p20
sS'RushAvg'
p21
S'--'
p22
sS'Game Date'
p23
S'12/06'
p24
sS'RecAvg'
p25
S'7.0'
p26
sS'FUM'
p27
S'--'
p28
sS'RushAtt'
p29
S'--'
p30
sS'Result'
p31
S'L3-37'
p32
sS'RecYds'
p33
S'35'
p34
sS'Rec'
p35
S'5'
p36
sS'Opp'
p37
S'CIN'
p38
sS'RecLng'
p39
S'16'
p40
sS'RecTD'
p41
g10
sS'RushLng'
p42
S'--'
p43
ssS'14'
p44
(dp45
g5
S'--'
p46
sg7
S'--'
p47
sg9
g10
sg11
S'--'
p48
sg13
g14
sg15
S'Darius Jennings'
p49
sg17
S'2015'
p50
sg19
S'14'
p51
sg21
S'--'
p52
sg23
S'12/13'
p53
sg25
S'--'
p54
sg27
S'--'
p55
sg29
S'--'
p56
sg31
S'W24-10'
p57
sg33
S'--'
p58
sg35
S'--'
p59
sg37
S'SF'
p60
sg39
S'--'
p61
sg41
S'--'
p62
sg42
S'--'
p63
ssS'17'
p64
(dp65
g5
S'--'
p66
sg7
S'--'
p67
sg9
g14
sg11
g10
sg13
g14
sg15
S'Darius Jennings'
p68
sg17
S'2015'
p69
sg19
S'17'
p70
sg21
S'--'
p71
sg23
S'01/03'
p72
sg25
S'7.5'
p73
sg27
g14
sg29
S'--'
p74
sg31
S'L12-28'
p75
sg33
S'45'
p76
sg35
S'6'
p77
sg37
S'PIT'
p78
sg39
S'14'
p79
sg41
g10
sg42
S'--'
p80
ssS'16'
p81
(dp82
g5
S'--'
p83
sg7
S'--'
p84
sg9
g10
sg11
S'--'
p85
sg13
g14
sg15
S'Darius Jennings'
p86
sg17
S'2015'
p87
sg19
S'16'
p88
sg21
S'--'
p89
sg23
S'12/27'
p90
sg25
S'12.3'
p91
sg27
S'--'
p92
sg29
S'--'
p93
sg31
S'L13-17'
p94
sg33
S'37'
p95
sg35
S'3'
p96
sg37
S'@KC'
p97
sg39
S'15'
p98
sg41
g10
sg42
S'--'
p99
sss.