(dp0
S'2015'
p1
(dp2
S'1'
p3
(dp4
S'RushTD'
p5
S'--'
p6
sS'RushYds'
p7
S'--'
p8
sS'GS'
p9
S'0'
p10
sS'Lost'
p11
S'--'
p12
sS'G'
p13
g3
sS'Player'
p14
S'Darren Waller'
p15
sS'Year'
p16
S'2015'
p17
sS'WK'
p18
g3
sS'RushAvg'
p19
S'--'
p20
sS'Game Date'
p21
S'09/13'
p22
sS'RecAvg'
p23
S'--'
p24
sS'FUM'
p25
S'--'
p26
sS'RushAtt'
p27
S'--'
p28
sS'Result'
p29
S'L13-19'
p30
sS'RecYds'
p31
S'--'
p32
sS'Rec'
p33
S'--'
p34
sS'Opp'
p35
S'@DEN'
p36
sS'RecLng'
p37
S'--'
p38
sS'RecTD'
p39
S'--'
p40
sS'RushLng'
p41
S'--'
p42
ssS'3'
p43
(dp44
g5
S'--'
p45
sg7
S'--'
p46
sg9
g10
sg11
S'--'
p47
sg13
g3
sg14
S'Darren Waller'
p48
sg16
S'2015'
p49
sg18
g43
sg19
S'--'
p50
sg21
S'09/27'
p51
sg23
S'--'
p52
sg25
S'--'
p53
sg27
S'--'
p54
sg29
S'L24-28'
p55
sg31
S'--'
p56
sg33
S'--'
p57
sg35
S'CIN'
p58
sg37
S'--'
p59
sg39
S'--'
p60
sg41
S'--'
p61
ssS'2'
p62
(dp63
g5
S'--'
p64
sg7
S'--'
p65
sg9
g10
sg11
S'--'
p66
sg13
g3
sg14
S'Darren Waller'
p67
sg16
S'2015'
p68
sg18
g62
sg19
S'--'
p69
sg21
S'09/20'
p70
sg23
S'--'
p71
sg25
S'--'
p72
sg27
S'--'
p73
sg29
S'L33-37'
p74
sg31
g10
sg33
g10
sg35
S'@OAK'
p75
sg37
S'--'
p76
sg39
g10
sg41
S'--'
p77
ssS'5'
p78
(dp79
g5
S'--'
p80
sg7
S'--'
p81
sg9
g3
sg11
S'--'
p82
sg13
g3
sg14
S'Darren Waller'
p83
sg16
S'2015'
p84
sg18
g78
sg19
S'--'
p85
sg21
S'10/11'
p86
sg23
S'1.0'
p87
sg25
S'--'
p88
sg27
S'--'
p89
sg29
S'L30-33'
p90
sg31
g3
sg33
g3
sg35
S'CLE'
p91
sg37
g3
sg39
g10
sg41
S'--'
p92
ssS'4'
p93
(dp94
g5
S'--'
p95
sg7
S'--'
p96
sg9
g10
sg11
S'--'
p97
sg13
g3
sg14
S'Darren Waller'
p98
sg16
S'2015'
p99
sg18
g93
sg19
S'--'
p100
sg21
S'10/01'
p101
sg23
S'17.0'
p102
sg25
S'--'
p103
sg27
S'--'
p104
sg29
S'W23-20'
p105
sg31
S'17'
p106
sg33
g3
sg35
S'@PIT'
p107
sg37
S'17'
p108
sg39
g10
sg41
S'--'
p109
ssS'7'
p110
(dp111
g5
S'--'
p112
sg7
S'--'
p113
sg9
g10
sg11
S'--'
p114
sg13
g3
sg14
S'Darren Waller'
p115
sg16
S'2015'
p116
sg18
g110
sg19
S'--'
p117
sg21
S'10/26'
p118
sg23
S'--'
p119
sg25
S'--'
p120
sg27
S'--'
p121
sg29
S'L18-26'
p122
sg31
S'--'
p123
sg33
S'--'
p124
sg35
S'@ARI'
p125
sg37
S'--'
p126
sg39
S'--'
p127
sg41
S'--'
p128
ssS'6'
p129
(dp130
g5
S'--'
p131
sg7
S'--'
p132
sg9
g10
sg11
S'--'
p133
sg13
g10
sg14
S'Darren Waller'
p134
sg16
S'2015'
p135
sg18
g129
sg19
S'--'
p136
sg21
S'10/18'
p137
sg23
S'--'
p138
sg25
S'--'
p139
sg27
S'--'
p140
sg29
S'L20-25'
p141
sg31
S'--'
p142
sg33
S'--'
p143
sg35
S'@SF'
p144
sg37
S'--'
p145
sg39
S'--'
p146
sg41
S'--'
p147
sss.