(dp0
S'2015'
p1
(dp2
S'11'
p3
(dp4
S'RushTD'
p5
S''
p6
sS'RushYds'
p7
g6
sS'GS'
p8
g6
sS'Lost'
p9
g6
sS'G'
p10
g6
sS'Player'
p11
S'Darrius Heyward-Bey'
p12
sS'Year'
p13
S'2015'
p14
sS'WK'
p15
S'11'
p16
sS'RushAvg'
p17
g6
sS'Game Date'
p18
S'Bye'
p19
sS'RecAvg'
p20
g6
sS'FUM'
p21
g6
sS'RushAtt'
p22
g6
sS'Result'
p23
g6
sS'RecYds'
p24
g6
sS'Rec'
p25
g6
sS'Opp'
p26
g6
sS'RecLng'
p27
g6
sS'RecTD'
p28
g6
sS'RushLng'
p29
g6
ssS'10'
p30
(dp31
g5
S'--'
p32
sg7
S'--'
p33
sg8
S'0'
p34
sg9
S'--'
p35
sg10
S'1'
p36
sg11
S'Darrius Heyward-Bey'
p37
sg13
S'2015'
p38
sg15
S'10'
p39
sg17
S'--'
p40
sg18
S'11/15'
p41
sg20
S'--'
p42
sg21
S'--'
p43
sg22
S'--'
p44
sg23
S'W30-9'
p45
sg24
S'--'
p46
sg25
S'--'
p47
sg26
S'CLE'
p48
sg27
S'--'
p49
sg28
S'--'
p50
sg29
S'--'
p51
ssS'13'
p52
(dp53
g5
S'--'
p54
sg7
S'--'
p55
sg8
g34
sg9
S'--'
p56
sg10
g36
sg11
S'Darrius Heyward-Bey'
p57
sg13
S'2015'
p58
sg15
S'13'
p59
sg17
S'--'
p60
sg18
S'12/06'
p61
sg20
S'21.0'
p62
sg21
S'--'
p63
sg22
S'--'
p64
sg23
S'W45-10'
p65
sg24
S'21'
p66
sg25
g36
sg26
S'IND'
p67
sg27
S'21'
p68
sg28
g34
sg29
S'--'
p69
ssS'12'
p70
(dp71
g5
S'--'
p72
sg7
S'--'
p73
sg8
g34
sg9
S'--'
p74
sg10
g36
sg11
S'Darrius Heyward-Bey'
p75
sg13
S'2015'
p76
sg15
S'12'
p77
sg17
S'--'
p78
sg18
S'11/29'
p79
sg20
S'--'
p80
sg21
S'--'
p81
sg22
S'--'
p82
sg23
S'L30-39'
p83
sg24
S'--'
p84
sg25
S'--'
p85
sg26
S'@SEA'
p86
sg27
S'--'
p87
sg28
S'--'
p88
sg29
S'--'
p89
ssS'15'
p90
(dp91
g5
S'--'
p92
sg7
S'--'
p93
sg8
g34
sg9
S'--'
p94
sg10
g36
sg11
S'Darrius Heyward-Bey'
p95
sg13
S'2015'
p96
sg15
S'15'
p97
sg17
S'--'
p98
sg18
S'12/20'
p99
sg20
S'--'
p100
sg21
S'--'
p101
sg22
S'--'
p102
sg23
S'W34-27'
p103
sg24
S'--'
p104
sg25
S'--'
p105
sg26
S'DEN'
p106
sg27
S'--'
p107
sg28
S'--'
p108
sg29
S'--'
p109
ssS'14'
p110
(dp111
g5
S'--'
p112
sg7
S'--'
p113
sg8
g34
sg9
S'--'
p114
sg10
g36
sg11
S'Darrius Heyward-Bey'
p115
sg13
S'2015'
p116
sg15
S'14'
p117
sg17
S'--'
p118
sg18
S'12/13'
p119
sg20
S'--'
p120
sg21
S'--'
p121
sg22
S'--'
p122
sg23
S'W33-20'
p123
sg24
S'--'
p124
sg25
S'--'
p125
sg26
S'@CIN'
p126
sg27
S'--'
p127
sg28
S'--'
p128
sg29
S'--'
p129
ssS'17'
p130
(dp131
g5
S'--'
p132
sg7
S'--'
p133
sg8
g36
sg9
S'--'
p134
sg10
g36
sg11
S'Darrius Heyward-Bey'
p135
sg13
S'2015'
p136
sg15
S'17'
p137
sg17
S'--'
p138
sg18
S'01/03'
p139
sg20
S'37.0'
p140
sg21
S'--'
p141
sg22
S'--'
p142
sg23
S'W28-12'
p143
sg24
S'74'
p144
sg25
S'2'
p145
sg26
S'@CLE'
p146
sg27
S'66'
p147
sg28
g34
sg29
S'--'
p148
ssS'16'
p149
(dp150
g5
S'--'
p151
sg7
S'--'
p152
sg8
g36
sg9
S'--'
p153
sg10
g36
sg11
S'Darrius Heyward-Bey'
p154
sg13
S'2015'
p155
sg15
S'16'
p156
sg17
S'--'
p157
sg18
S'12/27'
p158
sg20
S'10.0'
p159
sg21
S'--'
p160
sg22
S'--'
p161
sg23
S'L17-20'
p162
sg24
S'10'
p163
sg25
g36
sg26
S'@BAL'
p164
sg27
S'10'
p165
sg28
g34
sg29
S'--'
p166
ssg36
(dp167
g5
S'--'
p168
sg7
S'--'
p169
sg8
g34
sg9
S'--'
p170
sg10
g36
sg11
S'Darrius Heyward-Bey'
p171
sg13
S'2015'
p172
sg15
g36
sg17
S'--'
p173
sg18
S'09/10'
p174
sg20
S'14.5'
p175
sg21
S'--'
p176
sg22
S'--'
p177
sg23
S'L21-28'
p178
sg24
S'58'
p179
sg25
S'4'
p180
sg26
S'@NE'
p181
sg27
S'43'
p182
sg28
g34
sg29
S'--'
p183
ssS'3'
p184
(dp185
g5
S'--'
p186
sg7
S'--'
p187
sg8
g34
sg9
S'--'
p188
sg10
g36
sg11
S'Darrius Heyward-Bey'
p189
sg13
S'2015'
p190
sg15
g184
sg17
S'--'
p191
sg18
S'09/27'
p192
sg20
S'6.3'
p193
sg21
S'--'
p194
sg22
S'--'
p195
sg23
S'W12-6'
p196
sg24
S'19'
p197
sg25
g184
sg26
S'@STL'
p198
sg27
S'7'
p199
sg28
g34
sg29
S'--'
p200
ssg145
(dp201
g5
S'--'
p202
sg7
S'--'
p203
sg8
g34
sg9
S'--'
p204
sg10
g36
sg11
S'Darrius Heyward-Bey'
p205
sg13
S'2015'
p206
sg15
g145
sg17
S'--'
p207
sg18
S'09/20'
p208
sg20
S'19.3'
p209
sg21
S'--'
p210
sg22
S'--'
p211
sg23
S'W43-18'
p212
sg24
S'77'
p213
sg25
g180
sg26
S'SF'
p214
sg27
S'41'
p215
sg28
g36
sg29
S'--'
p216
ssS'5'
p217
(dp218
g5
S'--'
p219
sg7
S'--'
p220
sg8
g34
sg9
S'--'
p221
sg10
g36
sg11
S'Darrius Heyward-Bey'
p222
sg13
S'2015'
p223
sg15
g217
sg17
S'--'
p224
sg18
S'10/12'
p225
sg20
S'12.0'
p226
sg21
S'--'
p227
sg22
S'--'
p228
sg23
S'W24-20'
p229
sg24
S'24'
p230
sg25
g145
sg26
S'@SD'
p231
sg27
S'15'
p232
sg28
g34
sg29
S'--'
p233
ssg180
(dp234
g5
S'--'
p235
sg7
S'--'
p236
sg8
g36
sg9
S'--'
p237
sg10
g36
sg11
S'Darrius Heyward-Bey'
p238
sg13
S'2015'
p239
sg15
g180
sg17
S'--'
p240
sg18
S'10/01'
p241
sg20
S'7.8'
p242
sg21
S'--'
p243
sg22
S'--'
p244
sg23
S'L20-23'
p245
sg24
S'31'
p246
sg25
g180
sg26
S'BAL'
p247
sg27
S'12'
p248
sg28
g36
sg29
S'--'
p249
ssg199
(dp250
g5
S'--'
p251
sg7
S'--'
p252
sg8
g34
sg9
S'--'
p253
sg10
g36
sg11
S'Darrius Heyward-Bey'
p254
sg13
S'2015'
p255
sg15
g199
sg17
S'--'
p256
sg18
S'10/25'
p257
sg20
S'--'
p258
sg21
S'--'
p259
sg22
S'--'
p260
sg23
S'L13-23'
p261
sg24
S'--'
p262
sg25
S'--'
p263
sg26
S'@KC'
p264
sg27
S'--'
p265
sg28
S'--'
p266
sg29
S'--'
p267
ssS'6'
p268
(dp269
g5
S'--'
p270
sg7
S'--'
p271
sg8
g34
sg9
S'--'
p272
sg10
g36
sg11
S'Darrius Heyward-Bey'
p273
sg13
S'2015'
p274
sg15
g268
sg17
S'--'
p275
sg18
S'10/18'
p276
sg20
S'--'
p277
sg21
S'--'
p278
sg22
S'--'
p279
sg23
S'W25-13'
p280
sg24
g34
sg25
g34
sg26
S'ARI'
p281
sg27
S'--'
p282
sg28
g34
sg29
S'--'
p283
ssS'9'
p284
(dp285
g5
S'--'
p286
sg7
S'--'
p287
sg8
g36
sg9
S'--'
p288
sg10
g36
sg11
S'Darrius Heyward-Bey'
p289
sg13
S'2015'
p290
sg15
g284
sg17
S'--'
p291
sg18
S'11/08'
p292
sg20
S'--'
p293
sg21
S'--'
p294
sg22
S'--'
p295
sg23
S'W38-35'
p296
sg24
g34
sg25
g34
sg26
S'OAK'
p297
sg27
S'--'
p298
sg28
g34
sg29
S'--'
p299
ssS'8'
p300
(dp301
g5
S'--'
p302
sg7
S'--'
p303
sg8
g34
sg9
S'--'
p304
sg10
g36
sg11
S'Darrius Heyward-Bey'
p305
sg13
S'2015'
p306
sg15
g300
sg17
S'--'
p307
sg18
S'11/01'
p308
sg20
S'--'
p309
sg21
S'--'
p310
sg22
S'--'
p311
sg23
S'L10-16'
p312
sg24
g34
sg25
g34
sg26
S'CIN'
p313
sg27
S'--'
p314
sg28
g34
sg29
S'--'
p315
sssS'2014'
p316
(dp317
g3
(dp318
g5
S'--'
p319
sg7
S'--'
p320
sg8
g34
sg9
S'--'
p321
sg10
g36
sg11
S'Darrius Heyward-Bey'
p322
sg13
S'2014'
p323
sg15
S'11'
p324
sg17
S'--'
p325
sg18
S'11/17'
p326
sg20
S'--'
p327
sg21
S'--'
p328
sg22
S'--'
p329
sg23
S'W27-24'
p330
sg24
S'--'
p331
sg25
S'--'
p332
sg26
S'@TEN'
p333
sg27
S'--'
p334
sg28
S'--'
p335
sg29
S'--'
p336
ssg30
(dp337
g5
S'--'
p338
sg7
S'--'
p339
sg8
g36
sg9
S'--'
p340
sg10
g36
sg11
S'Darrius Heyward-Bey'
p341
sg13
S'2014'
p342
sg15
S'10'
p343
sg17
S'--'
p344
sg18
S'11/09'
p345
sg20
S'--'
p346
sg21
S'--'
p347
sg22
S'--'
p348
sg23
S'L13-20'
p349
sg24
g34
sg25
g34
sg26
S'@NYJ'
p350
sg27
S'--'
p351
sg28
g34
sg29
S'--'
p352
ssg52
(dp353
g5
S'--'
p354
sg7
S'--'
p355
sg8
g34
sg9
S'--'
p356
sg10
g36
sg11
S'Darrius Heyward-Bey'
p357
sg13
S'2014'
p358
sg15
S'13'
p359
sg17
S'--'
p360
sg18
S'11/30'
p361
sg20
S'--'
p362
sg21
S'--'
p363
sg22
S'--'
p364
sg23
S'L32-35'
p365
sg24
g34
sg25
g34
sg26
S'NO'
p366
sg27
S'--'
p367
sg28
g34
sg29
S'--'
p368
ssg70
(dp369
g5
g6
sg7
g6
sg8
g6
sg9
g6
sg10
g6
sg11
S'Darrius Heyward-Bey'
p370
sg13
S'2014'
p371
sg15
S'12'
p372
sg17
g6
sg18
S'Bye'
p373
sg20
g6
sg21
g6
sg22
g6
sg23
g6
sg24
g6
sg25
g6
sg26
g6
sg27
g6
sg28
g6
sg29
g6
ssg90
(dp374
g5
S'--'
p375
sg7
S'--'
p376
sg8
g34
sg9
S'--'
p377
sg10
g36
sg11
S'Darrius Heyward-Bey'
p378
sg13
S'2014'
p379
sg15
S'15'
p380
sg17
S'--'
p381
sg18
S'12/14'
p382
sg20
S'--'
p383
sg21
S'--'
p384
sg22
S'--'
p385
sg23
S'W27-20'
p386
sg24
S'--'
p387
sg25
S'--'
p388
sg26
S'@ATL'
p389
sg27
S'--'
p390
sg28
S'--'
p391
sg29
S'--'
p392
ssg110
(dp393
g5
S'--'
p394
sg7
S'--'
p395
sg8
g34
sg9
S'--'
p396
sg10
g36
sg11
S'Darrius Heyward-Bey'
p397
sg13
S'2014'
p398
sg15
S'14'
p399
sg17
S'--'
p400
sg18
S'12/07'
p401
sg20
S'--'
p402
sg21
S'--'
p403
sg22
S'--'
p404
sg23
S'W42-21'
p405
sg24
S'--'
p406
sg25
S'--'
p407
sg26
S'@CIN'
p408
sg27
S'--'
p409
sg28
S'--'
p410
sg29
S'--'
p411
ssg130
(dp412
g5
S'--'
p413
sg7
S'--'
p414
sg8
g34
sg9
S'--'
p415
sg10
g36
sg11
S'Darrius Heyward-Bey'
p416
sg13
S'2014'
p417
sg15
S'17'
p418
sg17
S'--'
p419
sg18
S'12/28'
p420
sg20
S'--'
p421
sg21
S'--'
p422
sg22
S'--'
p423
sg23
S'W27-17'
p424
sg24
S'--'
p425
sg25
S'--'
p426
sg26
S'CIN'
p427
sg27
S'--'
p428
sg28
S'--'
p429
sg29
S'--'
p430
ssg149
(dp431
g5
S'--'
p432
sg7
S'--'
p433
sg8
g34
sg9
S'--'
p434
sg10
g36
sg11
S'Darrius Heyward-Bey'
p435
sg13
S'2014'
p436
sg15
S'16'
p437
sg17
S'--'
p438
sg18
S'12/21'
p439
sg20
S'--'
p440
sg21
S'--'
p441
sg22
S'--'
p442
sg23
S'W20-12'
p443
sg24
S'--'
p444
sg25
S'--'
p445
sg26
S'KC'
p446
sg27
S'--'
p447
sg28
S'--'
p448
sg29
S'--'
p449
ssg36
(dp450
g5
S'--'
p451
sg7
S'--'
p452
sg8
g34
sg9
S'--'
p453
sg10
g36
sg11
S'Darrius Heyward-Bey'
p454
sg13
S'2014'
p455
sg15
g36
sg17
S'--'
p456
sg18
S'09/07'
p457
sg20
S'--'
p458
sg21
S'--'
p459
sg22
S'--'
p460
sg23
S'W30-27'
p461
sg24
S'--'
p462
sg25
S'--'
p463
sg26
S'CLE'
p464
sg27
S'--'
p465
sg28
S'--'
p466
sg29
S'--'
p467
ssg184
(dp468
g5
S'--'
p469
sg7
S'--'
p470
sg8
g34
sg9
S'--'
p471
sg10
g36
sg11
S'Darrius Heyward-Bey'
p472
sg13
S'2014'
p473
sg15
g184
sg17
S'--'
p474
sg18
S'09/21'
p475
sg20
S'--'
p476
sg21
S'--'
p477
sg22
S'--'
p478
sg23
S'W37-19'
p479
sg24
S'--'
p480
sg25
S'--'
p481
sg26
S'@CAR'
p482
sg27
S'--'
p483
sg28
S'--'
p484
sg29
S'--'
p485
ssg145
(dp486
g5
S'--'
p487
sg7
S'--'
p488
sg8
g34
sg9
S'--'
p489
sg10
g36
sg11
S'Darrius Heyward-Bey'
p490
sg13
S'2014'
p491
sg15
g145
sg17
S'--'
p492
sg18
S'09/11'
p493
sg20
S'--'
p494
sg21
S'--'
p495
sg22
S'--'
p496
sg23
S'L6-26'
p497
sg24
S'--'
p498
sg25
S'--'
p499
sg26
S'@BAL'
p500
sg27
S'--'
p501
sg28
S'--'
p502
sg29
S'--'
p503
ssg217
(dp504
g5
S'--'
p505
sg7
S'--'
p506
sg8
g34
sg9
S'--'
p507
sg10
g36
sg11
S'Darrius Heyward-Bey'
p508
sg13
S'2014'
p509
sg15
g217
sg17
S'--'
p510
sg18
S'10/05'
p511
sg20
S'0.0'
p512
sg21
S'--'
p513
sg22
S'--'
p514
sg23
S'W17-9'
p515
sg24
g34
sg25
g36
sg26
S'@JAC'
p516
sg27
g34
sg28
g34
sg29
S'--'
p517
ssg180
(dp518
g5
S'--'
p519
sg7
S'--'
p520
sg8
g34
sg9
S'--'
p521
sg10
g36
sg11
S'Darrius Heyward-Bey'
p522
sg13
S'2014'
p523
sg15
g180
sg17
S'--'
p524
sg18
S'09/28'
p525
sg20
S'--'
p526
sg21
S'--'
p527
sg22
S'--'
p528
sg23
S'L24-27'
p529
sg24
S'--'
p530
sg25
S'--'
p531
sg26
S'TB'
p532
sg27
S'--'
p533
sg28
S'--'
p534
sg29
S'--'
p535
ssg199
(dp536
g5
S'--'
p537
sg7
S'--'
p538
sg8
g34
sg9
S'--'
p539
sg10
g36
sg11
S'Darrius Heyward-Bey'
p540
sg13
S'2014'
p541
sg15
g199
sg17
S'--'
p542
sg18
S'10/20'
p543
sg20
S'17.0'
p544
sg21
S'--'
p545
sg22
S'--'
p546
sg23
S'W30-23'
p547
sg24
S'17'
p548
sg25
g36
sg26
S'HOU'
p549
sg27
S'17'
p550
sg28
g34
sg29
S'--'
p551
ssg268
(dp552
g5
S'--'
p553
sg7
S'--'
p554
sg8
g34
sg9
S'--'
p555
sg10
g36
sg11
S'Darrius Heyward-Bey'
p556
sg13
S'2014'
p557
sg15
g268
sg17
S'--'
p558
sg18
S'10/12'
p559
sg20
S'--'
p560
sg21
S'--'
p561
sg22
S'--'
p562
sg23
S'L10-31'
p563
sg24
S'--'
p564
sg25
S'--'
p565
sg26
S'@CLE'
p566
sg27
S'--'
p567
sg28
S'--'
p568
sg29
S'--'
p569
ssg284
(dp570
g5
S'--'
p571
sg7
S'--'
p572
sg8
g34
sg9
S'--'
p573
sg10
g36
sg11
S'Darrius Heyward-Bey'
p574
sg13
S'2014'
p575
sg15
g284
sg17
S'--'
p576
sg18
S'11/02'
p577
sg20
S'--'
p578
sg21
S'--'
p579
sg22
S'--'
p580
sg23
S'W43-23'
p581
sg24
S'--'
p582
sg25
S'--'
p583
sg26
S'BAL'
p584
sg27
S'--'
p585
sg28
S'--'
p586
sg29
S'--'
p587
ssg300
(dp588
g5
S'--'
p589
sg7
S'--'
p590
sg8
g34
sg9
g36
sg10
g36
sg11
S'Darrius Heyward-Bey'
p591
sg13
S'2014'
p592
sg15
g300
sg17
S'--'
p593
sg18
S'10/26'
p594
sg20
S'16.0'
p595
sg21
g36
sg22
S'--'
p596
sg23
S'W51-34'
p597
sg24
S'16'
p598
sg25
g36
sg26
S'IND'
p599
sg27
S'16'
p600
sg28
g34
sg29
S'--'
p601
sssS'2011'
p602
(dp603
g3
(dp604
g5
S'--'
p605
sg7
S'--'
p606
sg8
g36
sg9
S'--'
p607
sg10
g36
sg11
S'Darrius Heyward-Bey'
p608
sg13
S'2011'
p609
sg15
S'11'
p610
sg17
S'--'
p611
sg18
S'11/20'
p612
sg20
S'10.8'
p613
sg21
S'--'
p614
sg22
S'--'
p615
sg23
S'W27-21'
p616
sg24
S'43'
p617
sg25
g180
sg26
S'@MIN'
p618
sg27
S'20'
p619
sg28
g34
sg29
S'--'
p620
ssg30
(dp621
g5
S'--'
p622
sg7
S'--'
p623
sg8
g36
sg9
S'--'
p624
sg10
g36
sg11
S'Darrius Heyward-Bey'
p625
sg13
S'2011'
p626
sg15
S'10'
p627
sg17
S'--'
p628
sg18
S'11/10'
p629
sg20
S'--'
p630
sg21
S'--'
p631
sg22
S'--'
p632
sg23
S'W24-17'
p633
sg24
S'--'
p634
sg25
S'--'
p635
sg26
S'@SD'
p636
sg27
S'--'
p637
sg28
S'--'
p638
sg29
S'--'
p639
ssg52
(dp640
g5
S'--'
p641
sg7
S'--'
p642
sg8
g36
sg9
S'--'
p643
sg10
g36
sg11
S'Darrius Heyward-Bey'
p644
sg13
S'2011'
p645
sg15
S'13'
p646
sg17
S'--'
p647
sg18
S'12/04'
p648
sg20
S'7.7'
p649
sg21
S'--'
p650
sg22
S'--'
p651
sg23
S'L14-34'
p652
sg24
S'23'
p653
sg25
g184
sg26
S'@MIA'
p654
sg27
S'14'
p655
sg28
g36
sg29
S'--'
p656
ssg70
(dp657
g5
S'--'
p658
sg7
S'--'
p659
sg8
g36
sg9
S'--'
p660
sg10
g36
sg11
S'Darrius Heyward-Bey'
p661
sg13
S'2011'
p662
sg15
S'12'
p663
sg17
S'--'
p664
sg18
S'11/27'
p665
sg20
S'10.5'
p666
sg21
S'--'
p667
sg22
S'--'
p668
sg23
S'W25-20'
p669
sg24
S'42'
p670
sg25
g180
sg26
S'CHI'
p671
sg27
S'19'
p672
sg28
g34
sg29
S'--'
p673
ssg90
(dp674
g5
S'--'
p675
sg7
S'--'
p676
sg8
g36
sg9
g36
sg10
g36
sg11
S'Darrius Heyward-Bey'
p677
sg13
S'2011'
p678
sg15
S'15'
p679
sg17
S'--'
p680
sg18
S'12/18'
p681
sg20
S'19.4'
p682
sg21
g36
sg22
S'--'
p683
sg23
S'L27-28'
p684
sg24
S'155'
p685
sg25
g300
sg26
S'DET'
p686
sg27
S'43T'
p687
sg28
g36
sg29
S'--'
p688
ssg110
(dp689
g5
S'--'
p690
sg7
S'--'
p691
sg8
g36
sg9
S'--'
p692
sg10
g36
sg11
S'Darrius Heyward-Bey'
p693
sg13
S'2011'
p694
sg15
S'14'
p695
sg17
S'--'
p696
sg18
S'12/11'
p697
sg20
S'15.6'
p698
sg21
S'--'
p699
sg22
S'--'
p700
sg23
S'L16-46'
p701
sg24
S'78'
p702
sg25
g217
sg26
S'@GB'
p703
sg27
S'34'
p704
sg28
g34
sg29
S'--'
p705
ssg130
(dp706
g5
S'--'
p707
sg7
S'--'
p708
sg8
g36
sg9
S'--'
p709
sg10
g36
sg11
S'Darrius Heyward-Bey'
p710
sg13
S'2011'
p711
sg15
S'17'
p712
sg17
S'--'
p713
sg18
S'01/01'
p714
sg20
S'14.4'
p715
sg21
S'--'
p716
sg22
S'--'
p717
sg23
S'L26-38'
p718
sg24
S'130'
p719
sg25
g284
sg26
S'SD'
p720
sg27
S'39'
p721
sg28
g36
sg29
S'--'
p722
ssg149
(dp723
g5
S'--'
p724
sg7
S'--'
p725
sg8
g36
sg9
S'--'
p726
sg10
g36
sg11
S'Darrius Heyward-Bey'
p727
sg13
S'2011'
p728
sg15
S'16'
p729
sg17
S'--'
p730
sg18
S'12/24'
p731
sg20
S'17.5'
p732
sg21
S'--'
p733
sg22
S'--'
p734
sg23
S'W16-13'
p735
sg24
S'70'
p736
sg25
g180
sg26
S'@KC'
p737
sg27
S'53'
p738
sg28
g34
sg29
S'--'
p739
ssg36
(dp740
g5
S'--'
p741
sg7
S'--'
p742
sg8
g36
sg9
S'--'
p743
sg10
g36
sg11
S'Darrius Heyward-Bey'
p744
sg13
S'2011'
p745
sg15
g36
sg17
S'--'
p746
sg18
S'09/12'
p747
sg20
S'11.0'
p748
sg21
S'--'
p749
sg22
S'--'
p750
sg23
S'W23-20'
p751
sg24
S'44'
p752
sg25
g180
sg26
S'@DEN'
p753
sg27
S'17'
p754
sg28
g34
sg29
S'--'
p755
ssg184
(dp756
g5
S'--'
p757
sg7
S'--'
p758
sg8
g36
sg9
S'--'
p759
sg10
g36
sg11
S'Darrius Heyward-Bey'
p760
sg13
S'2011'
p761
sg15
g184
sg17
S'--'
p762
sg18
S'09/25'
p763
sg20
S'5.0'
p764
sg21
S'--'
p765
sg22
S'--'
p766
sg23
S'W34-24'
p767
sg24
g217
sg25
g36
sg26
S'NYJ'
p768
sg27
g217
sg28
g34
sg29
S'--'
p769
ssg145
(dp770
g5
S'--'
p771
sg7
S'--'
p772
sg8
g34
sg9
S'--'
p773
sg10
g34
sg11
S'Darrius Heyward-Bey'
p774
sg13
S'2011'
p775
sg15
g145
sg17
S'--'
p776
sg18
S'09/18'
p777
sg20
S'--'
p778
sg21
S'--'
p779
sg22
S'--'
p780
sg23
S'L35-38'
p781
sg24
S'--'
p782
sg25
S'--'
p783
sg26
S'@BUF'
p784
sg27
S'--'
p785
sg28
S'--'
p786
sg29
S'--'
p787
ssg217
(dp788
g5
S'--'
p789
sg7
S'--'
p790
sg8
g36
sg9
S'--'
p791
sg10
g36
sg11
S'Darrius Heyward-Bey'
p792
sg13
S'2011'
p793
sg15
g217
sg17
S'--'
p794
sg18
S'10/09'
p795
sg20
S'14.1'
p796
sg21
S'--'
p797
sg22
S'--'
p798
sg23
S'W25-20'
p799
sg24
S'99'
p800
sg25
g199
sg26
S'@HOU'
p801
sg27
S'34T'
p802
sg28
g36
sg29
S'--'
p803
ssg180
(dp804
g5
S'--'
p805
sg7
S'--'
p806
sg8
g36
sg9
S'--'
p807
sg10
g36
sg11
S'Darrius Heyward-Bey'
p808
sg13
S'2011'
p809
sg15
g180
sg17
S'--'
p810
sg18
S'10/02'
p811
sg20
S'28.8'
p812
sg21
S'--'
p813
sg22
S'--'
p814
sg23
S'L19-31'
p815
sg24
S'115'
p816
sg25
g180
sg26
S'NE'
p817
sg27
S'58'
p818
sg28
g34
sg29
S'--'
p819
ssg199
(dp820
g5
S'--'
p821
sg7
S'--'
p822
sg8
g36
sg9
S'--'
p823
sg10
g36
sg11
S'Darrius Heyward-Bey'
p824
sg13
S'2011'
p825
sg15
g199
sg17
S'--'
p826
sg18
S'10/23'
p827
sg20
S'17.8'
p828
sg21
S'--'
p829
sg22
S'--'
p830
sg23
S'L0-28'
p831
sg24
S'89'
p832
sg25
g217
sg26
S'KC'
p833
sg27
S'21'
p834
sg28
g34
sg29
S'--'
p835
ssg268
(dp836
g5
S'--'
p837
sg7
S'--'
p838
sg8
g36
sg9
S'--'
p839
sg10
g36
sg11
S'Darrius Heyward-Bey'
p840
sg13
S'2011'
p841
sg15
g268
sg17
S'--'
p842
sg18
S'10/16'
p843
sg20
S'13.7'
p844
sg21
S'--'
p845
sg22
S'--'
p846
sg23
S'W24-17'
p847
sg24
S'82'
p848
sg25
g268
sg26
S'CLE'
p849
sg27
S'21'
p850
sg28
g34
sg29
S'--'
p851
ssg284
(dp852
g5
S'--'
p853
sg7
S'--'
p854
sg8
g34
sg9
S'--'
p855
sg10
g36
sg11
S'Darrius Heyward-Bey'
p856
sg13
S'2011'
p857
sg15
g284
sg17
S'--'
p858
sg18
S'11/06'
p859
sg20
S'--'
p860
sg21
S'--'
p861
sg22
S'--'
p862
sg23
S'L24-38'
p863
sg24
g34
sg25
g34
sg26
S'DEN'
p864
sg27
S'--'
p865
sg28
g34
sg29
S'--'
p866
ssg300
(dp867
g5
g6
sg7
g6
sg8
g6
sg9
g6
sg10
g6
sg11
S'Darrius Heyward-Bey'
p868
sg13
S'2011'
p869
sg15
g300
sg17
g6
sg18
S'Bye'
p870
sg20
g6
sg21
g6
sg22
g6
sg23
g6
sg24
g6
sg25
g6
sg26
g6
sg27
g6
sg28
g6
sg29
g6
sssS'2010'
p871
(dp872
g3
(dp873
g5
S'--'
p874
sg7
S'--'
p875
sg8
g34
sg9
S'--'
p876
sg10
g34
sg11
S'Darrius Heyward-Bey'
p877
sg13
S'2010'
p878
sg15
S'11'
p879
sg17
S'--'
p880
sg18
S'11/21'
p881
sg20
S'--'
p882
sg21
S'--'
p883
sg22
S'--'
p884
sg23
S'L3-35'
p885
sg24
S'--'
p886
sg25
S'--'
p887
sg26
S'@PIT'
p888
sg27
S'--'
p889
sg28
S'--'
p890
sg29
S'--'
p891
ssg30
(dp892
g5
g6
sg7
g6
sg8
g6
sg9
g6
sg10
g6
sg11
S'Darrius Heyward-Bey'
p893
sg13
S'2010'
p894
sg15
S'10'
p895
sg17
g6
sg18
S'Bye'
p896
sg20
g6
sg21
g6
sg22
g6
sg23
g6
sg24
g6
sg25
g6
sg26
g6
sg27
g6
sg28
g6
sg29
g6
ssg52
(dp897
g5
g34
sg7
S'14'
p898
sg8
g36
sg9
S'--'
p899
sg10
g36
sg11
S'Darrius Heyward-Bey'
p900
sg13
S'2010'
p901
sg15
S'13'
p902
sg17
S'14.0'
p903
sg18
S'12/05'
p904
sg20
S'--'
p905
sg21
S'--'
p906
sg22
g36
sg23
S'W28-13'
p907
sg24
S'--'
p908
sg25
S'--'
p909
sg26
S'@SD'
p910
sg27
S'--'
p911
sg28
S'--'
p912
sg29
S'14'
p913
ssg70
(dp914
g5
g34
sg7
g145
sg8
g34
sg9
S'--'
p915
sg10
g36
sg11
S'Darrius Heyward-Bey'
p916
sg13
S'2010'
p917
sg15
S'12'
p918
sg17
S'2.0'
p919
sg18
S'11/28'
p920
sg20
S'--'
p921
sg21
S'--'
p922
sg22
g36
sg23
S'L17-33'
p923
sg24
S'--'
p924
sg25
S'--'
p925
sg26
S'MIA'
p926
sg27
S'--'
p927
sg28
S'--'
p928
sg29
g145
ssg90
(dp929
g5
S'--'
p930
sg7
S'--'
p931
sg8
g36
sg9
S'--'
p932
sg10
g36
sg11
S'Darrius Heyward-Bey'
p933
sg13
S'2010'
p934
sg15
S'15'
p935
sg17
S'--'
p936
sg18
S'12/19'
p937
sg20
S'20.0'
p938
sg21
S'--'
p939
sg22
S'--'
p940
sg23
S'W39-23'
p941
sg24
S'20'
p942
sg25
g36
sg26
S'DEN'
p943
sg27
S'20'
p944
sg28
g34
sg29
S'--'
p945
ssg110
(dp946
g5
S'--'
p947
sg7
S'--'
p948
sg8
g36
sg9
S'--'
p949
sg10
g36
sg11
S'Darrius Heyward-Bey'
p950
sg13
S'2010'
p951
sg15
S'14'
p952
sg17
S'--'
p953
sg18
S'12/12'
p954
sg20
S'20.0'
p955
sg21
S'--'
p956
sg22
S'--'
p957
sg23
S'L31-38'
p958
sg24
S'40'
p959
sg25
g145
sg26
S'@JAC'
p960
sg27
S'24'
p961
sg28
g34
sg29
S'--'
p962
ssg130
(dp963
g5
g34
sg7
g145
sg8
g36
sg9
g36
sg10
g36
sg11
S'Darrius Heyward-Bey'
p964
sg13
S'2010'
p965
sg15
S'17'
p966
sg17
S'2.0'
p967
sg18
S'01/02'
p968
sg20
S'--'
p969
sg21
g36
sg22
g36
sg23
S'W31-10'
p970
sg24
g34
sg25
g34
sg26
S'@KC'
p971
sg27
S'--'
p972
sg28
g34
sg29
g145
ssg149
(dp973
g5
S'--'
p974
sg7
S'--'
p975
sg8
g36
sg9
S'--'
p976
sg10
g36
sg11
S'Darrius Heyward-Bey'
p977
sg13
S'2010'
p978
sg15
S'16'
p979
sg17
S'--'
p980
sg18
S'12/26'
p981
sg20
S'10.0'
p982
sg21
S'--'
p983
sg22
S'--'
p984
sg23
S'L26-31'
p985
sg24
S'40'
p986
sg25
g180
sg26
S'IND'
p987
sg27
S'11'
p988
sg28
g34
sg29
S'--'
p989
ssg36
(dp990
g5
S'--'
p991
sg7
S'--'
p992
sg8
g36
sg9
S'--'
p993
sg10
g36
sg11
S'Darrius Heyward-Bey'
p994
sg13
S'2010'
p995
sg15
g36
sg17
S'--'
p996
sg18
S'09/12'
p997
sg20
S'11.0'
p998
sg21
S'--'
p999
sg22
S'--'
p1000
sg23
S'L13-38'
p1001
sg24
S'11'
p1002
sg25
g36
sg26
S'@TEN'
p1003
sg27
S'11'
p1004
sg28
g34
sg29
S'--'
p1005
ssg184
(dp1006
g5
S'--'
p1007
sg7
S'--'
p1008
sg8
g36
sg9
S'--'
p1009
sg10
g36
sg11
S'Darrius Heyward-Bey'
p1010
sg13
S'2010'
p1011
sg15
g184
sg17
S'--'
p1012
sg18
S'09/26'
p1013
sg20
S'16.3'
p1014
sg21
S'--'
p1015
sg22
S'--'
p1016
sg23
S'L23-24'
p1017
sg24
S'49'
p1018
sg25
g184
sg26
S'@ARI'
p1019
sg27
S'21'
p1020
sg28
g34
sg29
S'--'
p1021
ssg145
(dp1022
g5
S'--'
p1023
sg7
S'--'
p1024
sg8
g36
sg9
S'--'
p1025
sg10
g36
sg11
S'Darrius Heyward-Bey'
p1026
sg13
S'2010'
p1027
sg15
g145
sg17
S'--'
p1028
sg18
S'09/19'
p1029
sg20
S'13.3'
p1030
sg21
S'--'
p1031
sg22
S'--'
p1032
sg23
S'W16-14'
p1033
sg24
S'80'
p1034
sg25
g268
sg26
S'STL'
p1035
sg27
S'33'
p1036
sg28
g34
sg29
S'--'
p1037
ssg217
(dp1038
g5
S'--'
p1039
sg7
S'--'
p1040
sg8
g36
sg9
S'--'
p1041
sg10
g36
sg11
S'Darrius Heyward-Bey'
p1042
sg13
S'2010'
p1043
sg15
g217
sg17
S'--'
p1044
sg18
S'10/10'
p1045
sg20
S'--'
p1046
sg21
S'--'
p1047
sg22
S'--'
p1048
sg23
S'W35-27'
p1049
sg24
g34
sg25
g34
sg26
S'SD'
p1050
sg27
S'--'
p1051
sg28
g34
sg29
S'--'
p1052
ssg180
(dp1053
g5
S'--'
p1054
sg7
S'--'
p1055
sg8
g36
sg9
S'--'
p1056
sg10
g36
sg11
S'Darrius Heyward-Bey'
p1057
sg13
S'2010'
p1058
sg15
g180
sg17
S'--'
p1059
sg18
S'10/03'
p1060
sg20
S'2.0'
p1061
sg21
S'--'
p1062
sg22
S'--'
p1063
sg23
S'L24-31'
p1064
sg24
g145
sg25
g36
sg26
S'HOU'
p1065
sg27
g145
sg28
g34
sg29
S'--'
p1066
ssg199
(dp1067
g5
S'--'
p1068
sg7
S'--'
p1069
sg8
g36
sg9
S'--'
p1070
sg10
g36
sg11
S'Darrius Heyward-Bey'
p1071
sg13
S'2010'
p1072
sg15
g199
sg17
S'--'
p1073
sg18
S'10/24'
p1074
sg20
S'--'
p1075
sg21
S'--'
p1076
sg22
S'--'
p1077
sg23
S'W59-14'
p1078
sg24
S'--'
p1079
sg25
S'--'
p1080
sg26
S'@DEN'
p1081
sg27
S'--'
p1082
sg28
S'--'
p1083
sg29
S'--'
p1084
ssg268
(dp1085
g5
S'--'
p1086
sg7
S'--'
p1087
sg8
g36
sg9
S'--'
p1088
sg10
g36
sg11
S'Darrius Heyward-Bey'
p1089
sg13
S'2010'
p1090
sg15
g268
sg17
S'--'
p1091
sg18
S'10/17'
p1092
sg20
S'6.3'
p1093
sg21
S'--'
p1094
sg22
S'--'
p1095
sg23
S'L9-17'
p1096
sg24
S'19'
p1097
sg25
g184
sg26
S'@SF'
p1098
sg27
g300
sg28
g34
sg29
S'--'
p1099
ssg284
(dp1100
g5
S'--'
p1101
sg7
S'--'
p1102
sg8
g36
sg9
S'--'
p1103
sg10
g36
sg11
S'Darrius Heyward-Bey'
p1104
sg13
S'2010'
p1105
sg15
g284
sg17
S'--'
p1106
sg18
S'11/07'
p1107
sg20
S'--'
p1108
sg21
S'--'
p1109
sg22
S'--'
p1110
sg23
S'W23-20'
p1111
sg24
g34
sg25
g34
sg26
S'KC'
p1112
sg27
S'--'
p1113
sg28
g34
sg29
S'--'
p1114
ssg300
(dp1115
g5
g34
sg7
S'30'
p1116
sg8
g36
sg9
S'--'
p1117
sg10
g36
sg11
S'Darrius Heyward-Bey'
p1118
sg13
S'2010'
p1119
sg15
g300
sg17
S'30.0'
p1120
sg18
S'10/31'
p1121
sg20
S'21.0'
p1122
sg21
S'--'
p1123
sg22
g36
sg23
S'W33-3'
p1124
sg24
S'105'
p1125
sg25
g217
sg26
S'SEA'
p1126
sg27
S'69T'
p1127
sg28
g36
sg29
S'30'
p1128
sssS'2013'
p1129
(dp1130
g3
(dp1131
g5
S'--'
p1132
sg7
S'--'
p1133
sg8
g36
sg9
S'--'
p1134
sg10
g36
sg11
S'Darrius Heyward-Bey'
p1135
sg13
S'2013'
p1136
sg15
S'11'
p1137
sg17
S'--'
p1138
sg18
S'11/14'
p1139
sg20
S'10.0'
p1140
sg21
S'--'
p1141
sg22
S'--'
p1142
sg23
S'W30-27'
p1143
sg24
S'10'
p1144
sg25
g36
sg26
S'@TEN'
p1145
sg27
S'10'
p1146
sg28
g34
sg29
S'--'
p1147
ssg30
(dp1148
g5
S'--'
p1149
sg7
S'--'
p1150
sg8
g36
sg9
S'--'
p1151
sg10
g36
sg11
S'Darrius Heyward-Bey'
p1152
sg13
S'2013'
p1153
sg15
S'10'
p1154
sg17
S'--'
p1155
sg18
S'11/10'
p1156
sg20
S'10.0'
p1157
sg21
S'--'
p1158
sg22
S'--'
p1159
sg23
S'L8-38'
p1160
sg24
S'30'
p1161
sg25
g184
sg26
S'STL'
p1162
sg27
S'13'
p1163
sg28
g34
sg29
S'--'
p1164
ssg52
(dp1165
g5
g34
sg7
S'-11'
p1166
sg8
g36
sg9
S'--'
p1167
sg10
g36
sg11
S'Darrius Heyward-Bey'
p1168
sg13
S'2013'
p1169
sg15
S'13'
p1170
sg17
S'-11.0'
p1171
sg18
S'12/01'
p1172
sg20
S'23.0'
p1173
sg21
S'--'
p1174
sg22
g36
sg23
S'W22-14'
p1175
sg24
S'23'
p1176
sg25
g36
sg26
S'TEN'
p1177
sg27
S'23'
p1178
sg28
g34
sg29
S'-11'
p1179
ssg70
(dp1180
g5
S'--'
p1181
sg7
S'--'
p1182
sg8
g34
sg9
S'--'
p1183
sg10
g36
sg11
S'Darrius Heyward-Bey'
p1184
sg13
S'2013'
p1185
sg15
S'12'
p1186
sg17
S'--'
p1187
sg18
S'11/24'
p1188
sg20
S'7.3'
p1189
sg21
S'--'
p1190
sg22
S'--'
p1191
sg23
S'L11-40'
p1192
sg24
S'22'
p1193
sg25
g184
sg26
S'@ARI'
p1194
sg27
S'10'
p1195
sg28
g34
sg29
S'--'
p1196
ssg90
(dp1197
g5
S'--'
p1198
sg7
S'--'
p1199
sg8
g34
sg9
S'--'
p1200
sg10
g36
sg11
S'Darrius Heyward-Bey'
p1201
sg13
S'2013'
p1202
sg15
S'15'
p1203
sg17
S'--'
p1204
sg18
S'12/15'
p1205
sg20
S'--'
p1206
sg21
S'--'
p1207
sg22
S'--'
p1208
sg23
S'W25-3'
p1209
sg24
S'--'
p1210
sg25
S'--'
p1211
sg26
S'HOU'
p1212
sg27
S'--'
p1213
sg28
S'--'
p1214
sg29
S'--'
p1215
ssg110
(dp1216
g5
S'--'
p1217
sg7
S'--'
p1218
sg8
g34
sg9
S'--'
p1219
sg10
g36
sg11
S'Darrius Heyward-Bey'
p1220
sg13
S'2013'
p1221
sg15
S'14'
p1222
sg17
S'--'
p1223
sg18
S'12/08'
p1224
sg20
S'11.5'
p1225
sg21
S'--'
p1226
sg22
S'--'
p1227
sg23
S'L28-42'
p1228
sg24
S'23'
p1229
sg25
g145
sg26
S'@CIN'
p1230
sg27
S'12'
p1231
sg28
g34
sg29
S'--'
p1232
ssg130
(dp1233
g5
S'--'
p1234
sg7
S'--'
p1235
sg8
g34
sg9
S'--'
p1236
sg10
g36
sg11
S'Darrius Heyward-Bey'
p1237
sg13
S'2013'
p1238
sg15
S'17'
p1239
sg17
S'--'
p1240
sg18
S'12/29'
p1241
sg20
S'--'
p1242
sg21
S'--'
p1243
sg22
S'--'
p1244
sg23
S'W30-10'
p1245
sg24
S'--'
p1246
sg25
S'--'
p1247
sg26
S'JAC'
p1248
sg27
S'--'
p1249
sg28
S'--'
p1250
sg29
S'--'
p1251
ssg149
(dp1252
g5
S'--'
p1253
sg7
S'--'
p1254
sg8
g34
sg9
S'--'
p1255
sg10
g36
sg11
S'Darrius Heyward-Bey'
p1256
sg13
S'2013'
p1257
sg15
S'16'
p1258
sg17
S'--'
p1259
sg18
S'12/22'
p1260
sg20
S'--'
p1261
sg21
S'--'
p1262
sg22
S'--'
p1263
sg23
S'W23-7'
p1264
sg24
S'--'
p1265
sg25
S'--'
p1266
sg26
S'@KC'
p1267
sg27
S'--'
p1268
sg28
S'--'
p1269
sg29
S'--'
p1270
ssg36
(dp1271
g5
S'--'
p1272
sg7
S'--'
p1273
sg8
g36
sg9
S'--'
p1274
sg10
g36
sg11
S'Darrius Heyward-Bey'
p1275
sg13
S'2013'
p1276
sg15
g36
sg17
S'--'
p1277
sg18
S'09/08'
p1278
sg20
S'11.0'
p1279
sg21
S'--'
p1280
sg22
S'--'
p1281
sg23
S'W21-17'
p1282
sg24
S'33'
p1283
sg25
g184
sg26
S'OAK'
p1284
sg27
S'16'
p1285
sg28
g34
sg29
S'--'
p1286
ssg184
(dp1287
g5
S'--'
p1288
sg7
S'--'
p1289
sg8
g36
sg9
S'--'
p1290
sg10
g36
sg11
S'Darrius Heyward-Bey'
p1291
sg13
S'2013'
p1292
sg15
g184
sg17
S'--'
p1293
sg18
S'09/22'
p1294
sg20
S'11.8'
p1295
sg21
S'--'
p1296
sg22
S'--'
p1297
sg23
S'W27-7'
p1298
sg24
S'59'
p1299
sg25
g217
sg26
S'@SF'
p1300
sg27
S'19'
p1301
sg28
g34
sg29
S'--'
p1302
ssg145
(dp1303
g5
S'--'
p1304
sg7
S'--'
p1305
sg8
g36
sg9
S'--'
p1306
sg10
g36
sg11
S'Darrius Heyward-Bey'
p1307
sg13
S'2013'
p1308
sg15
g145
sg17
S'--'
p1309
sg18
S'09/15'
p1310
sg20
S'5.0'
p1311
sg21
S'--'
p1312
sg22
S'--'
p1313
sg23
S'L20-24'
p1314
sg24
S'10'
p1315
sg25
g145
sg26
S'MIA'
p1316
sg27
g268
sg28
g34
sg29
S'--'
p1317
ssg217
(dp1318
g5
g34
sg7
g199
sg8
g36
sg9
S'--'
p1319
sg10
g36
sg11
S'Darrius Heyward-Bey'
p1320
sg13
S'2013'
p1321
sg15
g217
sg17
S'7.0'
p1322
sg18
S'10/06'
p1323
sg20
S'--'
p1324
sg21
S'--'
p1325
sg22
g36
sg23
S'W34-28'
p1326
sg24
g34
sg25
g34
sg26
S'SEA'
p1327
sg27
S'--'
p1328
sg28
g34
sg29
g199
ssg180
(dp1329
g5
S'--'
p1330
sg7
S'--'
p1331
sg8
g36
sg9
S'--'
p1332
sg10
g36
sg11
S'Darrius Heyward-Bey'
p1333
sg13
S'2013'
p1334
sg15
g180
sg17
S'--'
p1335
sg18
S'09/29'
p1336
sg20
S'11.0'
p1337
sg21
S'--'
p1338
sg22
S'--'
p1339
sg23
S'W37-3'
p1340
sg24
S'33'
p1341
sg25
g184
sg26
S'@JAC'
p1342
sg27
S'16'
p1343
sg28
g34
sg29
S'--'
p1344
ssg199
(dp1345
g5
g34
sg7
S'30'
p1346
sg8
g36
sg9
S'--'
p1347
sg10
g36
sg11
S'Darrius Heyward-Bey'
p1348
sg13
S'2013'
p1349
sg15
g199
sg17
S'30.0'
p1350
sg18
S'10/20'
p1351
sg20
S'11.0'
p1352
sg21
S'--'
p1353
sg22
g36
sg23
S'W39-33'
p1354
sg24
S'44'
p1355
sg25
g180
sg26
S'DEN'
p1356
sg27
S'27'
p1357
sg28
g36
sg29
S'30'
p1358
ssg268
(dp1359
g5
S'--'
p1360
sg7
S'--'
p1361
sg8
g36
sg9
S'--'
p1362
sg10
g36
sg11
S'Darrius Heyward-Bey'
p1363
sg13
S'2013'
p1364
sg15
g268
sg17
S'--'
p1365
sg18
S'10/14'
p1366
sg20
S'11.0'
p1367
sg21
S'--'
p1368
sg22
S'--'
p1369
sg23
S'L9-19'
p1370
sg24
S'11'
p1371
sg25
g36
sg26
S'@SD'
p1372
sg27
S'11'
p1373
sg28
g34
sg29
S'--'
p1374
ssg284
(dp1375
g5
S'--'
p1376
sg7
S'--'
p1377
sg8
g36
sg9
S'--'
p1378
sg10
g36
sg11
S'Darrius Heyward-Bey'
p1379
sg13
S'2013'
p1380
sg15
g284
sg17
S'--'
p1381
sg18
S'11/03'
p1382
sg20
S'11.0'
p1383
sg21
S'--'
p1384
sg22
S'--'
p1385
sg23
S'W27-24'
p1386
sg24
S'11'
p1387
sg25
g36
sg26
S'@HOU'
p1388
sg27
S'11'
p1389
sg28
g34
sg29
S'--'
p1390
ssg300
(dp1391
g5
g6
sg7
g6
sg8
g6
sg9
g6
sg10
g6
sg11
S'Darrius Heyward-Bey'
p1392
sg13
S'2013'
p1393
sg15
g300
sg17
g6
sg18
S'Bye'
p1394
sg20
g6
sg21
g6
sg22
g6
sg23
g6
sg24
g6
sg25
g6
sg26
g6
sg27
g6
sg28
g6
sg29
g6
sssS'2012'
p1395
(dp1396
g3
(dp1397
g5
S'--'
p1398
sg7
S'--'
p1399
sg8
g34
sg9
S'--'
p1400
sg10
g36
sg11
S'Darrius Heyward-Bey'
p1401
sg13
S'2012'
p1402
sg15
S'11'
p1403
sg17
S'--'
p1404
sg18
S'11/18'
p1405
sg20
S'17.3'
p1406
sg21
S'--'
p1407
sg22
S'--'
p1408
sg23
S'L17-38'
p1409
sg24
S'69'
p1410
sg25
g180
sg26
S'NO'
p1411
sg27
S'22'
p1412
sg28
g34
sg29
S'--'
p1413
ssg30
(dp1414
g5
g34
sg7
S'-4'
p1415
sg8
g36
sg9
S'--'
p1416
sg10
g36
sg11
S'Darrius Heyward-Bey'
p1417
sg13
S'2012'
p1418
sg15
S'10'
p1419
sg17
S'-4.0'
p1420
sg18
S'11/11'
p1421
sg20
S'16.4'
p1422
sg21
S'--'
p1423
sg22
g36
sg23
S'L20-55'
p1424
sg24
S'82'
p1425
sg25
g217
sg26
S'@BAL'
p1426
sg27
S'55T'
p1427
sg28
g36
sg29
S'-4'
p1428
ssg52
(dp1429
g5
S'--'
p1430
sg7
S'--'
p1431
sg8
g36
sg9
S'--'
p1432
sg10
g36
sg11
S'Darrius Heyward-Bey'
p1433
sg13
S'2012'
p1434
sg15
S'13'
p1435
sg17
S'--'
p1436
sg18
S'12/02'
p1437
sg20
S'10.0'
p1438
sg21
S'--'
p1439
sg22
S'--'
p1440
sg23
S'L17-20'
p1441
sg24
S'40'
p1442
sg25
g180
sg26
S'CLE'
p1443
sg27
S'11'
p1444
sg28
g34
sg29
S'--'
p1445
ssg70
(dp1446
g5
S'--'
p1447
sg7
S'--'
p1448
sg8
g36
sg9
S'--'
p1449
sg10
g36
sg11
S'Darrius Heyward-Bey'
p1450
sg13
S'2012'
p1451
sg15
S'12'
p1452
sg17
S'--'
p1453
sg18
S'11/25'
p1454
sg20
S'--'
p1455
sg21
S'--'
p1456
sg22
S'--'
p1457
sg23
S'L10-34'
p1458
sg24
g34
sg25
g34
sg26
S'@CIN'
p1459
sg27
S'--'
p1460
sg28
g34
sg29
S'--'
p1461
ssg90
(dp1462
g5
S'--'
p1463
sg7
S'--'
p1464
sg8
g36
sg9
S'--'
p1465
sg10
g36
sg11
S'Darrius Heyward-Bey'
p1466
sg13
S'2012'
p1467
sg15
S'15'
p1468
sg17
S'--'
p1469
sg18
S'12/16'
p1470
sg20
S'--'
p1471
sg21
S'--'
p1472
sg22
S'--'
p1473
sg23
S'W15-0'
p1474
sg24
g34
sg25
g34
sg26
S'KC'
p1475
sg27
S'--'
p1476
sg28
g34
sg29
S'--'
p1477
ssg110
(dp1478
g5
S'--'
p1479
sg7
S'--'
p1480
sg8
g36
sg9
S'--'
p1481
sg10
g36
sg11
S'Darrius Heyward-Bey'
p1482
sg13
S'2012'
p1483
sg15
S'14'
p1484
sg17
S'--'
p1485
sg18
S'12/06'
p1486
sg20
S'16.4'
p1487
sg21
S'--'
p1488
sg22
S'--'
p1489
sg23
S'L13-26'
p1490
sg24
S'82'
p1491
sg25
g217
sg26
S'DEN'
p1492
sg27
S'56T'
p1493
sg28
g36
sg29
S'--'
p1494
ssg130
(dp1495
g5
S'--'
p1496
sg7
S'--'
p1497
sg8
g36
sg9
S'--'
p1498
sg10
g36
sg11
S'Darrius Heyward-Bey'
p1499
sg13
S'2012'
p1500
sg15
S'17'
p1501
sg17
S'--'
p1502
sg18
S'12/30'
p1503
sg20
S'6.5'
p1504
sg21
S'--'
p1505
sg22
S'--'
p1506
sg23
S'L21-24'
p1507
sg24
S'13'
p1508
sg25
g145
sg26
S'@SD'
p1509
sg27
S'9T'
p1510
sg28
g36
sg29
S'--'
p1511
ssg149
(dp1512
g5
S'--'
p1513
sg7
S'--'
p1514
sg8
g36
sg9
S'--'
p1515
sg10
g36
sg11
S'Darrius Heyward-Bey'
p1516
sg13
S'2012'
p1517
sg15
S'16'
p1518
sg17
S'--'
p1519
sg18
S'12/23'
p1520
sg20
S'15.5'
p1521
sg21
S'--'
p1522
sg22
S'--'
p1523
sg23
S'L6-17'
p1524
sg24
S'31'
p1525
sg25
g145
sg26
S'@CAR'
p1526
sg27
S'20'
p1527
sg28
g34
sg29
S'--'
p1528
ssg36
(dp1529
g5
S'--'
p1530
sg7
S'--'
p1531
sg8
g36
sg9
S'--'
p1532
sg10
g36
sg11
S'Darrius Heyward-Bey'
p1533
sg13
S'2012'
p1534
sg15
g36
sg17
S'--'
p1535
sg18
S'09/10'
p1536
sg20
S'14.3'
p1537
sg21
S'--'
p1538
sg22
S'--'
p1539
sg23
S'L14-22'
p1540
sg24
S'43'
p1541
sg25
g184
sg26
S'SD'
p1542
sg27
S'21'
p1543
sg28
g34
sg29
S'--'
p1544
ssg184
(dp1545
g5
S'--'
p1546
sg7
S'--'
p1547
sg8
g36
sg9
S'--'
p1548
sg10
g36
sg11
S'Darrius Heyward-Bey'
p1549
sg13
S'2012'
p1550
sg15
g184
sg17
S'--'
p1551
sg18
S'09/23'
p1552
sg20
S'7.0'
p1553
sg21
S'--'
p1554
sg22
S'--'
p1555
sg23
S'W34-31'
p1556
sg24
S'14'
p1557
sg25
g145
sg26
S'PIT'
p1558
sg27
S'11'
p1559
sg28
g36
sg29
S'--'
p1560
ssg145
(dp1561
g5
S'--'
p1562
sg7
S'--'
p1563
sg8
g36
sg9
S'--'
p1564
sg10
g36
sg11
S'Darrius Heyward-Bey'
p1565
sg13
S'2012'
p1566
sg15
g145
sg17
S'--'
p1567
sg18
S'09/16'
p1568
sg20
S'10.3'
p1569
sg21
S'--'
p1570
sg22
S'--'
p1571
sg23
S'L13-35'
p1572
sg24
S'41'
p1573
sg25
g180
sg26
S'@MIA'
p1574
sg27
S'19'
p1575
sg28
g34
sg29
S'--'
p1576
ssg217
(dp1577
g5
g6
sg7
g6
sg8
g6
sg9
g6
sg10
g6
sg11
S'Darrius Heyward-Bey'
p1578
sg13
S'2012'
p1579
sg15
g217
sg17
g6
sg18
S'Bye'
p1580
sg20
g6
sg21
g6
sg22
g6
sg23
g6
sg24
g6
sg25
g6
sg26
g6
sg27
g6
sg28
g6
sg29
g6
ssg180
(dp1581
g5
S'--'
p1582
sg7
S'--'
p1583
sg8
g34
sg9
S'--'
p1584
sg10
g34
sg11
S'Darrius Heyward-Bey'
p1585
sg13
S'2012'
p1586
sg15
g180
sg17
S'--'
p1587
sg18
S'09/30'
p1588
sg20
S'--'
p1589
sg21
S'--'
p1590
sg22
S'--'
p1591
sg23
S'L6-37'
p1592
sg24
S'--'
p1593
sg25
S'--'
p1594
sg26
S'@DEN'
p1595
sg27
S'--'
p1596
sg28
S'--'
p1597
sg29
S'--'
p1598
ssg199
(dp1599
g5
S'--'
p1600
sg7
S'--'
p1601
sg8
g36
sg9
S'--'
p1602
sg10
g36
sg11
S'Darrius Heyward-Bey'
p1603
sg13
S'2012'
p1604
sg15
g199
sg17
S'--'
p1605
sg18
S'10/21'
p1606
sg20
S'21.3'
p1607
sg21
S'--'
p1608
sg22
S'--'
p1609
sg23
S'W26-23'
p1610
sg24
S'85'
p1611
sg25
g180
sg26
S'JAC'
p1612
sg27
S'59'
p1613
sg28
g34
sg29
S'--'
p1614
ssg268
(dp1615
g5
g34
sg7
S'20'
p1616
sg8
g36
sg9
S'--'
p1617
sg10
g36
sg11
S'Darrius Heyward-Bey'
p1618
sg13
S'2012'
p1619
sg15
g268
sg17
S'20.0'
p1620
sg18
S'10/14'
p1621
sg20
S'--'
p1622
sg21
S'--'
p1623
sg22
g36
sg23
S'L20-23'
p1624
sg24
g34
sg25
g34
sg26
S'@ATL'
p1625
sg27
S'--'
p1626
sg28
g34
sg29
S'20'
p1627
ssg284
(dp1628
g5
S'--'
p1629
sg7
S'--'
p1630
sg8
g36
sg9
S'--'
p1631
sg10
g36
sg11
S'Darrius Heyward-Bey'
p1632
sg13
S'2012'
p1633
sg15
g284
sg17
S'--'
p1634
sg18
S'11/04'
p1635
sg20
S'14.8'
p1636
sg21
S'--'
p1637
sg22
S'--'
p1638
sg23
S'L32-42'
p1639
sg24
S'74'
p1640
sg25
g217
sg26
S'TB'
p1641
sg27
S'46'
p1642
sg28
g34
sg29
S'--'
p1643
ssg300
(dp1644
g5
S'--'
p1645
sg7
S'--'
p1646
sg8
g36
sg9
S'--'
p1647
sg10
g36
sg11
S'Darrius Heyward-Bey'
p1648
sg13
S'2012'
p1649
sg15
g300
sg17
S'--'
p1650
sg18
S'10/28'
p1651
sg20
S'32.0'
p1652
sg21
S'--'
p1653
sg22
S'--'
p1654
sg23
S'W26-16'
p1655
sg24
S'32'
p1656
sg25
g36
sg26
S'@KC'
p1657
sg27
S'32T'
p1658
sg28
g36
sg29
S'--'
p1659
sss.