(dp0
S'2015'
p1
(dp2
S'11'
p3
(dp4
S'RushTD'
p5
S'--'
p6
sS'RushYds'
p7
S'--'
p8
sS'GS'
p9
S'1'
p10
sS'Lost'
p11
S'--'
p12
sS'G'
p13
g10
sS'Player'
p14
S'Davante Adams'
p15
sS'Year'
p16
S'2015'
p17
sS'WK'
p18
S'11'
p19
sS'RushAvg'
p20
S'--'
p21
sS'Game Date'
p22
S'11/22'
p23
sS'RecAvg'
p24
S'12.0'
p25
sS'FUM'
p26
S'--'
p27
sS'RushAtt'
p28
S'--'
p29
sS'Result'
p30
S'W30-13'
p31
sS'RecYds'
p32
S'36'
p33
sS'Rec'
p34
S'3'
p35
sS'Opp'
p36
S'@MIN'
p37
sS'RecLng'
p38
S'16'
p39
sS'RecTD'
p40
S'0'
p41
sS'RushLng'
p42
S'--'
p43
ssS'10'
p44
(dp45
g5
S'--'
p46
sg7
S'--'
p47
sg9
g10
sg11
S'--'
p48
sg13
g10
sg14
S'Davante Adams'
p49
sg16
S'2015'
p50
sg18
S'10'
p51
sg20
S'--'
p52
sg22
S'11/15'
p53
sg24
S'7.9'
p54
sg26
S'--'
p55
sg28
S'--'
p56
sg30
S'L16-18'
p57
sg32
S'79'
p58
sg34
S'10'
p59
sg36
S'DET'
p60
sg38
S'18'
p61
sg40
g41
sg42
S'--'
p62
ssS'13'
p63
(dp64
g5
S'--'
p65
sg7
S'--'
p66
sg9
g10
sg11
S'--'
p67
sg13
g10
sg14
S'Davante Adams'
p68
sg16
S'2015'
p69
sg18
S'13'
p70
sg20
S'--'
p71
sg22
S'12/03'
p72
sg24
S'5.3'
p73
sg26
S'--'
p74
sg28
S'--'
p75
sg30
S'W27-23'
p76
sg32
S'21'
p77
sg34
S'4'
p78
sg36
S'@DET'
p79
sg38
S'8T'
p80
sg40
g10
sg42
S'--'
p81
ssS'12'
p82
(dp83
g5
S'--'
p84
sg7
S'--'
p85
sg9
g10
sg11
S'--'
p86
sg13
g10
sg14
S'Davante Adams'
p87
sg16
S'2015'
p88
sg18
S'12'
p89
sg20
S'--'
p90
sg22
S'11/26'
p91
sg24
S'7.0'
p92
sg26
S'--'
p93
sg28
S'--'
p94
sg30
S'L13-17'
p95
sg32
S'14'
p96
sg34
S'2'
p97
sg36
S'CHI'
p98
sg38
S'8'
p99
sg40
g41
sg42
S'--'
p100
ssS'15'
p101
(dp102
g5
S'--'
p103
sg7
S'--'
p104
sg9
g10
sg11
S'--'
p105
sg13
g10
sg14
S'Davante Adams'
p106
sg16
S'2015'
p107
sg18
S'15'
p108
sg20
S'--'
p109
sg22
S'12/20'
p110
sg24
S'6.4'
p111
sg26
S'--'
p112
sg28
S'--'
p113
sg30
S'W30-20'
p114
sg32
S'32'
p115
sg34
S'5'
p116
sg36
S'@OAK'
p117
sg38
g99
sg40
g41
sg42
S'--'
p118
ssS'14'
p119
(dp120
g5
S'--'
p121
sg7
S'--'
p122
sg9
g10
sg11
S'--'
p123
sg13
g10
sg14
S'Davante Adams'
p124
sg16
S'2015'
p125
sg18
S'14'
p126
sg20
S'--'
p127
sg22
S'12/13'
p128
sg24
S'6.0'
p129
sg26
S'--'
p130
sg28
S'--'
p131
sg30
S'W28-7'
p132
sg32
S'12'
p133
sg34
g97
sg36
S'DAL'
p134
sg38
g99
sg40
g41
sg42
S'--'
p135
ssS'17'
p136
(dp137
g5
S'--'
p138
sg7
S'--'
p139
sg9
g41
sg11
S'--'
p140
sg13
g10
sg14
S'Davante Adams'
p141
sg16
S'2015'
p142
sg18
S'17'
p143
sg20
S'--'
p144
sg22
S'01/03'
p145
sg24
S'13.5'
p146
sg26
S'--'
p147
sg28
S'--'
p148
sg30
S'L13-20'
p149
sg32
S'54'
p150
sg34
g78
sg36
S'MIN'
p151
sg38
S'24'
p152
sg40
g41
sg42
S'--'
p153
ssS'16'
p154
(dp155
g5
S'--'
p156
sg7
S'--'
p157
sg9
g10
sg11
S'--'
p158
sg13
g10
sg14
S'Davante Adams'
p159
sg16
S'2015'
p160
sg18
S'16'
p161
sg20
S'--'
p162
sg22
S'12/27'
p163
sg24
S'14.0'
p164
sg26
S'--'
p165
sg28
S'--'
p166
sg30
S'L8-38'
p167
sg32
S'42'
p168
sg34
g35
sg36
S'@ARI'
p169
sg38
S'38'
p170
sg40
g41
sg42
S'--'
p171
ssg10
(dp172
g5
S'--'
p173
sg7
S'--'
p174
sg9
g10
sg11
S'--'
p175
sg13
g10
sg14
S'Davante Adams'
p176
sg16
S'2015'
p177
sg18
g10
sg20
S'--'
p178
sg22
S'09/13'
p179
sg24
S'14.8'
p180
sg26
S'--'
p181
sg28
S'--'
p182
sg30
S'W31-23'
p183
sg32
S'59'
p184
sg34
g78
sg36
S'@CHI'
p185
sg38
S'25'
p186
sg40
g41
sg42
S'--'
p187
ssg35
(dp188
g5
S'--'
p189
sg7
S'--'
p190
sg9
g10
sg11
S'--'
p191
sg13
g10
sg14
S'Davante Adams'
p192
sg16
S'2015'
p193
sg18
g35
sg20
S'--'
p194
sg22
S'09/28'
p195
sg24
S'--'
p196
sg26
S'--'
p197
sg28
S'--'
p198
sg30
S'W38-28'
p199
sg32
g41
sg34
g41
sg36
S'KC'
p200
sg38
S'--'
p201
sg40
g41
sg42
S'--'
p202
ssg97
(dp203
g5
S'--'
p204
sg7
S'--'
p205
sg9
g10
sg11
S'--'
p206
sg13
g10
sg14
S'Davante Adams'
p207
sg16
S'2015'
p208
sg18
g97
sg20
S'--'
p209
sg22
S'09/20'
p210
sg24
S'6.6'
p211
sg26
S'--'
p212
sg28
S'--'
p213
sg30
S'W27-17'
p214
sg32
S'33'
p215
sg34
g116
sg36
S'SEA'
p216
sg38
S'13'
p217
sg40
g41
sg42
S'--'
p218
ssg116
(dp219
g5
S'--'
p220
sg7
S'--'
p221
sg9
g41
sg11
S'--'
p222
sg13
g41
sg14
S'Davante Adams'
p223
sg16
S'2015'
p224
sg18
g116
sg20
S'--'
p225
sg22
S'10/11'
p226
sg24
S'--'
p227
sg26
S'--'
p228
sg28
S'--'
p229
sg30
S'W24-10'
p230
sg32
S'--'
p231
sg34
S'--'
p232
sg36
S'STL'
p233
sg38
S'--'
p234
sg40
S'--'
p235
sg42
S'--'
p236
ssg78
(dp237
g5
S'--'
p238
sg7
S'--'
p239
sg9
g41
sg11
S'--'
p240
sg13
g41
sg14
S'Davante Adams'
p241
sg16
S'2015'
p242
sg18
g78
sg20
S'--'
p243
sg22
S'10/04'
p244
sg24
S'--'
p245
sg26
S'--'
p246
sg28
S'--'
p247
sg30
S'W17-3'
p248
sg32
S'--'
p249
sg34
S'--'
p250
sg36
S'@SF'
p251
sg38
S'--'
p252
sg40
S'--'
p253
sg42
S'--'
p254
ssS'7'
p255
(dp256
g5
S''
p257
sg7
g257
sg9
g257
sg11
g257
sg13
g257
sg14
S'Davante Adams'
p258
sg16
S'2015'
p259
sg18
g255
sg20
g257
sg22
S'Bye'
p260
sg24
g257
sg26
g257
sg28
g257
sg30
g257
sg32
g257
sg34
g257
sg36
g257
sg38
g257
sg40
g257
sg42
g257
ssS'6'
p261
(dp262
g5
S'--'
p263
sg7
S'--'
p264
sg9
g41
sg11
S'--'
p265
sg13
g41
sg14
S'Davante Adams'
p266
sg16
S'2015'
p267
sg18
g261
sg20
S'--'
p268
sg22
S'10/18'
p269
sg24
S'--'
p270
sg26
S'--'
p271
sg28
S'--'
p272
sg30
S'W27-20'
p273
sg32
S'--'
p274
sg34
S'--'
p275
sg36
S'SD'
p276
sg38
S'--'
p277
sg40
S'--'
p278
sg42
S'--'
p279
ssS'9'
p280
(dp281
g5
S'--'
p282
sg7
S'--'
p283
sg9
g10
sg11
S'--'
p284
sg13
g10
sg14
S'Davante Adams'
p285
sg16
S'2015'
p286
sg18
g280
sg20
S'--'
p287
sg22
S'11/08'
p288
sg24
S'13.3'
p289
sg26
S'--'
p290
sg28
S'--'
p291
sg30
S'L29-37'
p292
sg32
S'93'
p293
sg34
g255
sg36
S'@CAR'
p294
sg38
S'40'
p295
sg40
g41
sg42
S'--'
p296
ssg99
(dp297
g5
S'--'
p298
sg7
S'--'
p299
sg9
g10
sg11
S'--'
p300
sg13
g10
sg14
S'Davante Adams'
p301
sg16
S'2015'
p302
sg18
g99
sg20
S'--'
p303
sg22
S'11/01'
p304
sg24
S'8.0'
p305
sg26
S'--'
p306
sg28
S'--'
p307
sg30
S'L10-29'
p308
sg32
g99
sg34
g10
sg36
S'@DEN'
p309
sg38
g99
sg40
g41
sg42
S'--'
p310
sssS'2014'
p311
(dp312
g3
(dp313
g5
S'--'
p314
sg7
S'--'
p315
sg9
g10
sg11
S'--'
p316
sg13
g10
sg14
S'Davante Adams'
p317
sg16
S'2014'
p318
sg18
S'11'
p319
sg20
S'--'
p320
sg22
S'11/16'
p321
sg24
S'6.5'
p322
sg26
S'--'
p323
sg28
S'--'
p324
sg30
S'W53-20'
p325
sg32
S'13'
p326
sg34
g97
sg36
S'PHI'
p327
sg38
g255
sg40
g10
sg42
S'--'
p328
ssg44
(dp329
g5
S'--'
p330
sg7
S'--'
p331
sg9
g41
sg11
S'--'
p332
sg13
g10
sg14
S'Davante Adams'
p333
sg16
S'2014'
p334
sg18
S'10'
p335
sg20
S'--'
p336
sg22
S'11/09'
p337
sg24
S'10.0'
p338
sg26
S'--'
p339
sg28
S'--'
p340
sg30
S'W55-14'
p341
sg32
S'10'
p342
sg34
g10
sg36
S'CHI'
p343
sg38
S'10'
p344
sg40
g41
sg42
S'--'
p345
ssg63
(dp346
g5
S'--'
p347
sg7
S'--'
p348
sg9
g10
sg11
S'--'
p349
sg13
g10
sg14
S'Davante Adams'
p350
sg16
S'2014'
p351
sg18
S'13'
p352
sg20
S'--'
p353
sg22
S'11/30'
p354
sg24
S'20.2'
p355
sg26
S'--'
p356
sg28
S'--'
p357
sg30
S'W26-21'
p358
sg32
S'121'
p359
sg34
g261
sg36
S'NE'
p360
sg38
S'45'
p361
sg40
g41
sg42
S'--'
p362
ssg82
(dp363
g5
S'--'
p364
sg7
S'--'
p365
sg9
g10
sg11
S'--'
p366
sg13
g10
sg14
S'Davante Adams'
p367
sg16
S'2014'
p368
sg18
S'12'
p369
sg20
S'--'
p370
sg22
S'11/23'
p371
sg24
S'10.0'
p372
sg26
S'--'
p373
sg28
S'--'
p374
sg30
S'W24-21'
p375
sg32
S'10'
p376
sg34
g10
sg36
S'@MIN'
p377
sg38
S'10'
p378
sg40
g41
sg42
S'--'
p379
ssg101
(dp380
g5
S'--'
p381
sg7
S'--'
p382
sg9
g10
sg11
S'--'
p383
sg13
g10
sg14
S'Davante Adams'
p384
sg16
S'2014'
p385
sg18
S'15'
p386
sg20
S'--'
p387
sg22
S'12/14'
p388
sg24
S'6.0'
p389
sg26
S'--'
p390
sg28
S'--'
p391
sg30
S'L13-21'
p392
sg32
g261
sg34
g10
sg36
S'@BUF'
p393
sg38
g261
sg40
g41
sg42
S'--'
p394
ssg119
(dp395
g5
S'--'
p396
sg7
S'--'
p397
sg9
g10
sg11
S'--'
p398
sg13
g10
sg14
S'Davante Adams'
p399
sg16
S'2014'
p400
sg18
S'14'
p401
sg20
S'--'
p402
sg22
S'12/08'
p403
sg24
S'6.0'
p404
sg26
S'--'
p405
sg28
S'--'
p406
sg30
S'W43-37'
p407
sg32
g261
sg34
g10
sg36
S'ATL'
p408
sg38
g261
sg40
g41
sg42
S'--'
p409
ssg136
(dp410
g5
S'--'
p411
sg7
S'--'
p412
sg9
g10
sg11
S'--'
p413
sg13
g10
sg14
S'Davante Adams'
p414
sg16
S'2014'
p415
sg18
S'17'
p416
sg20
S'--'
p417
sg22
S'12/28'
p418
sg24
S'--'
p419
sg26
S'--'
p420
sg28
S'--'
p421
sg30
S'W30-20'
p422
sg32
S'--'
p423
sg34
S'--'
p424
sg36
S'DET'
p425
sg38
S'--'
p426
sg40
S'--'
p427
sg42
S'--'
p428
ssg154
(dp429
g5
S'--'
p430
sg7
S'--'
p431
sg9
g10
sg11
S'--'
p432
sg13
g10
sg14
S'Davante Adams'
p433
sg16
S'2014'
p434
sg18
S'16'
p435
sg20
S'--'
p436
sg22
S'12/21'
p437
sg24
S'8.5'
p438
sg26
S'--'
p439
sg28
S'--'
p440
sg30
S'W20-3'
p441
sg32
S'17'
p442
sg34
g97
sg36
S'@TB'
p443
sg38
g280
sg40
g41
sg42
S'--'
p444
ssg10
(dp445
g5
S'--'
p446
sg7
S'--'
p447
sg9
g41
sg11
S'--'
p448
sg13
g10
sg14
S'Davante Adams'
p449
sg16
S'2014'
p450
sg18
g10
sg20
S'--'
p451
sg22
S'09/04'
p452
sg24
S'--'
p453
sg26
S'--'
p454
sg28
S'--'
p455
sg30
S'L16-36'
p456
sg32
S'--'
p457
sg34
S'--'
p458
sg36
S'@SEA'
p459
sg38
S'--'
p460
sg40
S'--'
p461
sg42
S'--'
p462
ssg35
(dp463
g5
S'--'
p464
sg7
S'--'
p465
sg9
g41
sg11
S'--'
p466
sg13
g10
sg14
S'Davante Adams'
p467
sg16
S'2014'
p468
sg18
g35
sg20
S'--'
p469
sg22
S'09/21'
p470
sg24
S'5.5'
p471
sg26
S'--'
p472
sg28
S'--'
p473
sg30
S'L7-19'
p474
sg32
S'11'
p475
sg34
g97
sg36
S'@DET'
p476
sg38
g280
sg40
g41
sg42
S'--'
p477
ssg97
(dp478
g5
S'--'
p479
sg7
S'--'
p480
sg9
g41
sg11
S'--'
p481
sg13
g10
sg14
S'Davante Adams'
p482
sg16
S'2014'
p483
sg18
g97
sg20
S'--'
p484
sg22
S'09/14'
p485
sg24
S'10.0'
p486
sg26
S'--'
p487
sg28
S'--'
p488
sg30
S'W31-24'
p489
sg32
S'50'
p490
sg34
g116
sg36
S'NYJ'
p491
sg38
S'24'
p492
sg40
g41
sg42
S'--'
p493
ssg116
(dp494
g5
S'--'
p495
sg7
S'--'
p496
sg9
g10
sg11
S'--'
p497
sg13
g10
sg14
S'Davante Adams'
p498
sg16
S'2014'
p499
sg18
g116
sg20
S'--'
p500
sg22
S'10/02'
p501
sg24
S'11.0'
p502
sg26
S'--'
p503
sg28
S'--'
p504
sg30
S'W42-10'
p505
sg32
S'11'
p506
sg34
g10
sg36
S'MIN'
p507
sg38
S'11T'
p508
sg40
g10
sg42
S'--'
p509
ssg78
(dp510
g5
S'--'
p511
sg7
S'--'
p512
sg9
g41
sg11
S'--'
p513
sg13
g10
sg14
S'Davante Adams'
p514
sg16
S'2014'
p515
sg18
g78
sg20
S'--'
p516
sg22
S'09/28'
p517
sg24
S'9.0'
p518
sg26
S'--'
p519
sg28
S'--'
p520
sg30
S'W38-17'
p521
sg32
S'18'
p522
sg34
g97
sg36
S'@CHI'
p523
sg38
S'15'
p524
sg40
g41
sg42
S'--'
p525
ssg255
(dp526
g5
S'--'
p527
sg7
S'--'
p528
sg9
g10
sg11
S'--'
p529
sg13
g10
sg14
S'Davante Adams'
p530
sg16
S'2014'
p531
sg18
g255
sg20
S'--'
p532
sg22
S'10/19'
p533
sg24
S'21.0'
p534
sg26
S'--'
p535
sg28
S'--'
p536
sg30
S'W38-17'
p537
sg32
S'21'
p538
sg34
g10
sg36
S'CAR'
p539
sg38
S'21T'
p540
sg40
g10
sg42
S'--'
p541
ssg261
(dp542
g5
S'--'
p543
sg7
S'--'
p544
sg9
g10
sg11
S'--'
p545
sg13
g10
sg14
S'Davante Adams'
p546
sg16
S'2014'
p547
sg18
g261
sg20
S'--'
p548
sg22
S'10/12'
p549
sg24
S'12.8'
p550
sg26
S'--'
p551
sg28
S'--'
p552
sg30
S'W27-24'
p553
sg32
S'77'
p554
sg34
g261
sg36
S'@MIA'
p555
sg38
S'24'
p556
sg40
g41
sg42
S'--'
p557
ssg280
(dp558
g5
g257
sg7
g257
sg9
g257
sg11
g257
sg13
g257
sg14
S'Davante Adams'
p559
sg16
S'2014'
p560
sg18
g280
sg20
g257
sg22
S'Bye'
p561
sg24
g257
sg26
g257
sg28
g257
sg30
g257
sg32
g257
sg34
g257
sg36
g257
sg38
g257
sg40
g257
sg42
g257
ssg99
(dp562
g5
S'--'
p563
sg7
S'--'
p564
sg9
g10
sg11
S'--'
p565
sg13
g10
sg14
S'Davante Adams'
p566
sg16
S'2014'
p567
sg18
g99
sg20
S'--'
p568
sg22
S'10/26'
p569
sg24
S'10.7'
p570
sg26
S'--'
p571
sg28
S'--'
p572
sg30
S'L23-44'
p573
sg32
S'75'
p574
sg34
g255
sg36
S'@NO'
p575
sg38
S'16'
p576
sg40
g41
sg42
S'--'
p577
sss.