(dp0
S'2015'
p1
(dp2
S'11'
p3
(dp4
S'RushTD'
p5
S'0'
p6
sS'RushYds'
p7
S'7'
p8
sS'GS'
p9
g6
sS'Lost'
p10
S'--'
p11
sS'G'
p12
S'1'
p13
sS'Player'
p14
S"De'Anthony Thomas"
p15
sS'Year'
p16
S'2015'
p17
sS'WK'
p18
S'11'
p19
sS'RushAvg'
p20
S'7.0'
p21
sS'Game Date'
p22
S'11/22'
p23
sS'RecAvg'
p24
S'--'
p25
sS'FUM'
p26
S'--'
p27
sS'RushAtt'
p28
g13
sS'Result'
p29
S'W33-3'
p30
sS'RecYds'
p31
S'--'
p32
sS'Rec'
p33
S'--'
p34
sS'Opp'
p35
S'@SD'
p36
sS'RecLng'
p37
S'--'
p38
sS'RecTD'
p39
S'--'
p40
sS'RushLng'
p41
g8
ssS'10'
p42
(dp43
g5
S'--'
p44
sg7
S'--'
p45
sg9
g6
sg10
S'--'
p46
sg12
g13
sg14
S"De'Anthony Thomas"
p47
sg16
S'2015'
p48
sg18
S'10'
p49
sg20
S'--'
p50
sg22
S'11/15'
p51
sg24
S'9.3'
p52
sg26
S'--'
p53
sg28
S'--'
p54
sg29
S'W29-13'
p55
sg31
S'37'
p56
sg33
S'4'
p57
sg35
S'@DEN'
p58
sg37
S'36'
p59
sg39
g6
sg41
S'--'
p60
ssS'13'
p61
(dp62
g5
S'--'
p63
sg7
S'--'
p64
sg9
g6
sg10
S'--'
p65
sg12
g6
sg14
S"De'Anthony Thomas"
p66
sg16
S'2015'
p67
sg18
S'13'
p68
sg20
S'--'
p69
sg22
S'12/06'
p70
sg24
S'--'
p71
sg26
S'--'
p72
sg28
S'--'
p73
sg29
S'W34-20'
p74
sg31
S'--'
p75
sg33
S'--'
p76
sg35
S'@OAK'
p77
sg37
S'--'
p78
sg39
S'--'
p79
sg41
S'--'
p80
ssS'12'
p81
(dp82
g5
S'--'
p83
sg7
S'--'
p84
sg9
g6
sg10
S'--'
p85
sg12
g6
sg14
S"De'Anthony Thomas"
p86
sg16
S'2015'
p87
sg18
S'12'
p88
sg20
S'--'
p89
sg22
S'11/29'
p90
sg24
S'--'
p91
sg26
S'--'
p92
sg28
S'--'
p93
sg29
S'W30-22'
p94
sg31
S'--'
p95
sg33
S'--'
p96
sg35
S'BUF'
p97
sg37
S'--'
p98
sg39
S'--'
p99
sg41
S'--'
p100
ssS'15'
p101
(dp102
g5
S'--'
p103
sg7
S'--'
p104
sg9
g6
sg10
S'--'
p105
sg12
g6
sg14
S"De'Anthony Thomas"
p106
sg16
S'2015'
p107
sg18
S'15'
p108
sg20
S'--'
p109
sg22
S'12/20'
p110
sg24
S'--'
p111
sg26
S'--'
p112
sg28
S'--'
p113
sg29
S'W34-14'
p114
sg31
S'--'
p115
sg33
S'--'
p116
sg35
S'@BAL'
p117
sg37
S'--'
p118
sg39
S'--'
p119
sg41
S'--'
p120
ssS'14'
p121
(dp122
g5
S'--'
p123
sg7
S'--'
p124
sg9
g6
sg10
S'--'
p125
sg12
g6
sg14
S"De'Anthony Thomas"
p126
sg16
S'2015'
p127
sg18
S'14'
p128
sg20
S'--'
p129
sg22
S'12/13'
p130
sg24
S'--'
p131
sg26
S'--'
p132
sg28
S'--'
p133
sg29
S'W10-3'
p134
sg31
S'--'
p135
sg33
S'--'
p136
sg35
S'SD'
p137
sg37
S'--'
p138
sg39
S'--'
p139
sg41
S'--'
p140
ssS'16'
p141
(dp142
g5
S'--'
p143
sg7
S'--'
p144
sg9
g6
sg10
S'--'
p145
sg12
g6
sg14
S"De'Anthony Thomas"
p146
sg16
S'2015'
p147
sg18
S'16'
p148
sg20
S'--'
p149
sg22
S'12/27'
p150
sg24
S'--'
p151
sg26
S'--'
p152
sg28
S'--'
p153
sg29
S'W17-13'
p154
sg31
S'--'
p155
sg33
S'--'
p156
sg35
S'CLE'
p157
sg37
S'--'
p158
sg39
S'--'
p159
sg41
S'--'
p160
ssg13
(dp161
g5
g6
sg7
S'9'
p162
sg9
g6
sg10
g6
sg12
g13
sg14
S"De'Anthony Thomas"
p163
sg16
S'2015'
p164
sg18
g13
sg20
S'9.0'
p165
sg22
S'09/13'
p166
sg24
S'2.0'
p167
sg26
g13
sg28
g13
sg29
S'W27-20'
p168
sg31
S'2'
p169
sg33
g13
sg35
S'@HOU'
p170
sg37
g169
sg39
g6
sg41
g162
ssS'3'
p171
(dp172
g5
g6
sg7
S'-7'
p173
sg9
g6
sg10
S'--'
p174
sg12
g13
sg14
S"De'Anthony Thomas"
p175
sg16
S'2015'
p176
sg18
g171
sg20
S'-7.0'
p177
sg22
S'09/28'
p178
sg24
S'6.0'
p179
sg26
S'--'
p180
sg28
g13
sg29
S'L28-38'
p181
sg31
S'12'
p182
sg33
g169
sg35
S'@GB'
p183
sg37
g162
sg39
g6
sg41
S'-7'
p184
ssg169
(dp185
g5
S'--'
p186
sg7
S'--'
p187
sg9
g6
sg10
g13
sg12
g13
sg14
S"De'Anthony Thomas"
p188
sg16
S'2015'
p189
sg18
g169
sg20
S'--'
p190
sg22
S'09/17'
p191
sg24
S'10.0'
p192
sg26
g13
sg28
S'--'
p193
sg29
S'L24-31'
p194
sg31
S'20'
p195
sg33
g169
sg35
S'DEN'
p196
sg37
S'12'
p197
sg39
g6
sg41
S'--'
p198
ssS'5'
p199
(dp200
g5
g6
sg7
g199
sg9
g13
sg10
S'--'
p201
sg12
g13
sg14
S"De'Anthony Thomas"
p202
sg16
S'2015'
p203
sg18
g199
sg20
S'5.0'
p204
sg22
S'10/11'
p205
sg24
S'12.0'
p206
sg26
S'--'
p207
sg28
g13
sg29
S'L17-18'
p208
sg31
S'24'
p209
sg33
g169
sg35
S'CHI'
p210
sg37
S'19T'
p211
sg39
g13
sg41
g199
ssg57
(dp212
g5
g6
sg7
S'-4'
p213
sg9
g6
sg10
S'--'
p214
sg12
g13
sg14
S"De'Anthony Thomas"
p215
sg16
S'2015'
p216
sg18
g57
sg20
S'-2.0'
p217
sg22
S'10/04'
p218
sg24
S'11.0'
p219
sg26
S'--'
p220
sg28
g169
sg29
S'L21-36'
p221
sg31
S'11'
p222
sg33
g13
sg35
S'@CIN'
p223
sg37
S'11'
p224
sg39
g6
sg41
g57
ssg8
(dp225
g5
g6
sg7
S'13'
p226
sg9
g6
sg10
S'--'
p227
sg12
g13
sg14
S"De'Anthony Thomas"
p228
sg16
S'2015'
p229
sg18
g8
sg20
S'13.0'
p230
sg22
S'10/25'
p231
sg24
S'6.0'
p232
sg26
S'--'
p233
sg28
g13
sg29
S'W23-13'
p234
sg31
S'12'
p235
sg33
g169
sg35
S'PIT'
p236
sg37
g8
sg39
g6
sg41
S'13'
p237
ssS'6'
p238
(dp239
g5
g6
sg7
g13
sg9
g6
sg10
S'--'
p240
sg12
g13
sg14
S"De'Anthony Thomas"
p241
sg16
S'2015'
p242
sg18
g238
sg20
S'1.0'
p243
sg22
S'10/18'
p244
sg24
S'--'
p245
sg26
S'--'
p246
sg28
g13
sg29
S'L10-16'
p247
sg31
g6
sg33
g6
sg35
S'@MIN'
p248
sg37
S'--'
p249
sg39
g6
sg41
g13
ssg162
(dp250
g5
S''
p251
sg7
g251
sg9
g251
sg10
g251
sg12
g251
sg14
S"De'Anthony Thomas"
p252
sg16
S'2015'
p253
sg18
g162
sg20
g251
sg22
S'Bye'
p254
sg24
g251
sg26
g251
sg28
g251
sg29
g251
sg31
g251
sg33
g251
sg35
g251
sg37
g251
sg39
g251
sg41
g251
ssS'8'
p255
(dp256
g5
g13
sg7
S'10'
p257
sg9
g6
sg10
S'--'
p258
sg12
g13
sg14
S"De'Anthony Thomas"
p259
sg16
S'2015'
p260
sg18
g255
sg20
S'10.0'
p261
sg22
S'11/01'
p262
sg24
S'7.3'
p263
sg26
S'--'
p264
sg28
g13
sg29
S'W45-10'
p265
sg31
S'22'
p266
sg33
g171
sg35
S'DET'
p267
sg37
S'23'
p268
sg39
g6
sg41
S'10T'
p269
sssS'2014'
p270
(dp271
g3
(dp272
g5
g6
sg7
S'22'
p273
sg9
g6
sg10
S'--'
p274
sg12
g13
sg14
S"De'Anthony Thomas"
p275
sg16
S'2014'
p276
sg18
S'11'
p277
sg20
S'7.3'
p278
sg22
S'11/16'
p279
sg24
S'10.0'
p280
sg26
S'--'
p281
sg28
g171
sg29
S'W24-20'
p282
sg31
S'10'
p283
sg33
g13
sg35
S'SEA'
p284
sg37
S'10'
p285
sg39
g6
sg41
g255
ssg42
(dp286
g5
g6
sg7
g171
sg9
g6
sg10
S'--'
p287
sg12
g13
sg14
S"De'Anthony Thomas"
p288
sg16
S'2014'
p289
sg18
S'10'
p290
sg20
S'3.0'
p291
sg22
S'11/09'
p292
sg24
S'--'
p293
sg26
S'--'
p294
sg28
g13
sg29
S'W17-13'
p295
sg31
S'--'
p296
sg33
S'--'
p297
sg35
S'@BUF'
p298
sg37
S'--'
p299
sg39
S'--'
p300
sg41
g171
ssg61
(dp301
g5
S'--'
p302
sg7
S'--'
p303
sg9
g13
sg10
S'--'
p304
sg12
g13
sg14
S"De'Anthony Thomas"
p305
sg16
S'2014'
p306
sg18
S'13'
p307
sg20
S'--'
p308
sg22
S'11/30'
p309
sg24
S'2.5'
p310
sg26
S'--'
p311
sg28
S'--'
p312
sg29
S'L16-29'
p313
sg31
g199
sg33
g169
sg35
S'DEN'
p314
sg37
g199
sg39
g6
sg41
S'--'
p315
ssg81
(dp316
g5
g6
sg7
g162
sg9
g13
sg10
S'--'
p317
sg12
g13
sg14
S"De'Anthony Thomas"
p318
sg16
S'2014'
p319
sg18
S'12'
p320
sg20
S'9.0'
p321
sg22
S'11/20'
p322
sg24
S'7.5'
p323
sg26
S'--'
p324
sg28
g13
sg29
S'L20-24'
p325
sg31
S'15'
p326
sg33
g169
sg35
S'@OAK'
p327
sg37
S'10'
p328
sg39
g6
sg41
g162
ssg101
(dp329
g5
g6
sg7
S'14'
p330
sg9
g6
sg10
S'--'
p331
sg12
g13
sg14
S"De'Anthony Thomas"
p332
sg16
S'2014'
p333
sg18
S'15'
p334
sg20
S'7.0'
p335
sg22
S'12/14'
p336
sg24
S'5.0'
p337
sg26
S'--'
p338
sg28
g169
sg29
S'W31-13'
p339
sg31
g199
sg33
g13
sg35
S'OAK'
p340
sg37
g199
sg39
g6
sg41
g255
ssg121
(dp341
g5
g6
sg7
g199
sg9
g6
sg10
S'--'
p342
sg12
g13
sg14
S"De'Anthony Thomas"
p343
sg16
S'2014'
p344
sg18
S'14'
p345
sg20
S'2.5'
p346
sg22
S'12/07'
p347
sg24
S'6.0'
p348
sg26
S'--'
p349
sg28
g169
sg29
S'L14-17'
p350
sg31
g238
sg33
g13
sg35
S'@ARI'
p351
sg37
g238
sg39
g6
sg41
g162
ssS'17'
p352
(dp353
g5
g6
sg7
S'18'
p354
sg9
g6
sg10
S'--'
p355
sg12
g13
sg14
S"De'Anthony Thomas"
p356
sg16
S'2014'
p357
sg18
S'17'
p358
sg20
S'18.0'
p359
sg22
S'12/28'
p360
sg24
S'9.3'
p361
sg26
S'--'
p362
sg28
g13
sg29
S'W19-7'
p363
sg31
S'28'
p364
sg33
g171
sg35
S'SD'
p365
sg37
S'30'
p366
sg39
g6
sg41
S'18'
p367
ssg141
(dp368
g5
g6
sg7
S'-6'
p369
sg9
g6
sg10
S'--'
p370
sg12
g13
sg14
S"De'Anthony Thomas"
p371
sg16
S'2014'
p372
sg18
S'16'
p373
sg20
S'-6.0'
p374
sg22
S'12/21'
p375
sg24
S'7.8'
p376
sg26
S'--'
p377
sg28
g13
sg29
S'L12-20'
p378
sg31
S'47'
p379
sg33
g238
sg35
S'@PIT'
p380
sg37
S'19'
p381
sg39
g6
sg41
S'-6'
p382
ssg13
(dp383
g5
S'--'
p384
sg7
S'--'
p385
sg9
g6
sg10
S'--'
p386
sg12
g6
sg14
S"De'Anthony Thomas"
p387
sg16
S'2014'
p388
sg18
g13
sg20
S'--'
p389
sg22
S'09/07'
p390
sg24
S'--'
p391
sg26
S'--'
p392
sg28
S'--'
p393
sg29
S'L10-26'
p394
sg31
S'--'
p395
sg33
S'--'
p396
sg35
S'TEN'
p397
sg37
S'--'
p398
sg39
S'--'
p399
sg41
S'--'
p400
ssg171
(dp401
g5
S'--'
p402
sg7
S'--'
p403
sg9
g6
sg10
S'--'
p404
sg12
g6
sg14
S"De'Anthony Thomas"
p405
sg16
S'2014'
p406
sg18
g171
sg20
S'--'
p407
sg22
S'09/21'
p408
sg24
S'--'
p409
sg26
S'--'
p410
sg28
S'--'
p411
sg29
S'W34-15'
p412
sg31
S'--'
p413
sg33
S'--'
p414
sg35
S'@MIA'
p415
sg37
S'--'
p416
sg39
S'--'
p417
sg41
S'--'
p418
ssg169
(dp419
g5
S'--'
p420
sg7
S'--'
p421
sg9
g6
sg10
S'--'
p422
sg12
g6
sg14
S"De'Anthony Thomas"
p423
sg16
S'2014'
p424
sg18
g169
sg20
S'--'
p425
sg22
S'09/14'
p426
sg24
S'--'
p427
sg26
S'--'
p428
sg28
S'--'
p429
sg29
S'L17-24'
p430
sg31
S'--'
p431
sg33
S'--'
p432
sg35
S'@DEN'
p433
sg37
S'--'
p434
sg39
S'--'
p435
sg41
S'--'
p436
ssg199
(dp437
g5
g13
sg7
S'17'
p438
sg9
g6
sg10
S'--'
p439
sg12
g13
sg14
S"De'Anthony Thomas"
p440
sg16
S'2014'
p441
sg18
g199
sg20
S'17.0'
p442
sg22
S'10/05'
p443
sg24
S'--'
p444
sg26
S'--'
p445
sg28
g13
sg29
S'L17-22'
p446
sg31
S'--'
p447
sg33
S'--'
p448
sg35
S'@SF'
p449
sg37
S'--'
p450
sg39
S'--'
p451
sg41
S'17T'
p452
ssg57
(dp453
g5
S'--'
p454
sg7
S'--'
p455
sg9
g6
sg10
S'--'
p456
sg12
g6
sg14
S"De'Anthony Thomas"
p457
sg16
S'2014'
p458
sg18
g57
sg20
S'--'
p459
sg22
S'09/29'
p460
sg24
S'--'
p461
sg26
S'--'
p462
sg28
S'--'
p463
sg29
S'W41-14'
p464
sg31
S'--'
p465
sg33
S'--'
p466
sg35
S'NE'
p467
sg37
S'--'
p468
sg39
S'--'
p469
sg41
S'--'
p470
ssg8
(dp471
g5
g6
sg7
g199
sg9
g13
sg10
S'--'
p472
sg12
g13
sg14
S"De'Anthony Thomas"
p473
sg16
S'2014'
p474
sg18
g8
sg20
S'5.0'
p475
sg22
S'10/19'
p476
sg24
S'10.5'
p477
sg26
S'--'
p478
sg28
g13
sg29
S'W23-20'
p479
sg31
S'21'
p480
sg33
g169
sg35
S'@SD'
p481
sg37
S'15'
p482
sg39
g6
sg41
g199
ssg238
(dp483
g5
g251
sg7
g251
sg9
g251
sg10
g251
sg12
g251
sg14
S"De'Anthony Thomas"
p484
sg16
S'2014'
p485
sg18
g238
sg20
g251
sg22
S'Bye'
p486
sg24
g251
sg26
g251
sg28
g251
sg29
g251
sg31
g251
sg33
g251
sg35
g251
sg37
g251
sg39
g251
sg41
g251
ssg162
(dp487
g5
g6
sg7
S'26'
p488
sg9
g6
sg10
S'--'
p489
sg12
g13
sg14
S"De'Anthony Thomas"
p490
sg16
S'2014'
p491
sg18
g162
sg20
S'26.0'
p492
sg22
S'11/02'
p493
sg24
S'5.0'
p494
sg26
S'--'
p495
sg28
g13
sg29
S'W24-10'
p496
sg31
g199
sg33
g13
sg35
S'NYJ'
p497
sg37
g199
sg39
g6
sg41
S'26'
p498
ssg255
(dp499
g5
S'--'
p500
sg7
S'--'
p501
sg9
g6
sg10
S'--'
p502
sg12
g13
sg14
S"De'Anthony Thomas"
p503
sg16
S'2014'
p504
sg18
g255
sg20
S'--'
p505
sg22
S'10/26'
p506
sg24
S'3.5'
p507
sg26
S'--'
p508
sg28
S'--'
p509
sg29
S'W34-7'
p510
sg31
S'14'
p511
sg33
g57
sg35
S'STL'
p512
sg37
S'17'
p513
sg39
g6
sg41
S'--'
p514
sss.