(dp0
S'2015'
p1
(dp2
S'11'
p3
(dp4
S'RushTD'
p5
S'--'
p6
sS'RushYds'
p7
S'--'
p8
sS'GS'
p9
S'1'
p10
sS'Lost'
p11
S'--'
p12
sS'G'
p13
g10
sS'Player'
p14
S'DeAndre Hopkins'
p15
sS'Year'
p16
S'2015'
p17
sS'WK'
p18
S'11'
p19
sS'RushAvg'
p20
S'--'
p21
sS'Game Date'
p22
S'11/22'
p23
sS'RecAvg'
p24
S'23.6'
p25
sS'FUM'
p26
S'--'
p27
sS'RushAtt'
p28
S'--'
p29
sS'Result'
p30
S'W24-17'
p31
sS'RecYds'
p32
S'118'
p33
sS'Rec'
p34
S'5'
p35
sS'Opp'
p36
S'NYJ'
p37
sS'RecLng'
p38
S'61T'
p39
sS'RecTD'
p40
S'2'
p41
sS'RushLng'
p42
S'--'
p43
ssS'10'
p44
(dp45
g5
S'--'
p46
sg7
S'--'
p47
sg9
g10
sg11
S'--'
p48
sg13
g10
sg14
S'DeAndre Hopkins'
p49
sg16
S'2015'
p50
sg18
S'10'
p51
sg20
S'--'
p52
sg22
S'11/16'
p53
sg24
S'11.4'
p54
sg26
S'--'
p55
sg28
S'--'
p56
sg30
S'W10-6'
p57
sg32
S'57'
p58
sg34
g35
sg36
S'@CIN'
p59
sg38
S'22T'
p60
sg40
g10
sg42
S'--'
p61
ssS'13'
p62
(dp63
g5
S'--'
p64
sg7
S'--'
p65
sg9
g10
sg11
S'--'
p66
sg13
g10
sg14
S'DeAndre Hopkins'
p67
sg16
S'2015'
p68
sg18
S'13'
p69
sg20
S'--'
p70
sg22
S'12/06'
p71
sg24
S'17.6'
p72
sg26
S'--'
p73
sg28
S'--'
p74
sg30
S'L21-30'
p75
sg32
S'88'
p76
sg34
g35
sg36
S'@BUF'
p77
sg38
S'29'
p78
sg40
g10
sg42
S'--'
p79
ssS'12'
p80
(dp81
g5
S'--'
p82
sg7
S'--'
p83
sg9
g10
sg11
S'--'
p84
sg13
g10
sg14
S'DeAndre Hopkins'
p85
sg16
S'2015'
p86
sg18
S'12'
p87
sg20
S'--'
p88
sg22
S'11/29'
p89
sg24
S'7.2'
p90
sg26
S'--'
p91
sg28
S'--'
p92
sg30
S'W24-6'
p93
sg32
S'36'
p94
sg34
g35
sg36
S'NO'
p95
sg38
S'13'
p96
sg40
S'0'
p97
sg42
S'--'
p98
ssS'15'
p99
(dp100
g5
S'--'
p101
sg7
S'--'
p102
sg9
g10
sg11
S'--'
p103
sg13
g10
sg14
S'DeAndre Hopkins'
p104
sg16
S'2015'
p105
sg18
S'15'
p106
sg20
S'--'
p107
sg22
S'12/20'
p108
sg24
S'11.8'
p109
sg26
S'--'
p110
sg28
S'--'
p111
sg30
S'W16-10'
p112
sg32
S'94'
p113
sg34
S'8'
p114
sg36
S'@IND'
p115
sg38
S'28'
p116
sg40
g97
sg42
S'--'
p117
ssS'14'
p118
(dp119
g5
S'--'
p120
sg7
S'--'
p121
sg9
g10
sg11
S'--'
p122
sg13
g10
sg14
S'DeAndre Hopkins'
p123
sg16
S'2015'
p124
sg18
S'14'
p125
sg20
S'--'
p126
sg22
S'12/13'
p127
sg24
S'17.3'
p128
sg26
S'--'
p129
sg28
S'--'
p130
sg30
S'L6-27'
p131
sg32
S'52'
p132
sg34
S'3'
p133
sg36
S'NE'
p134
sg38
S'40'
p135
sg40
g97
sg42
S'--'
p136
ssS'17'
p137
(dp138
g5
S'--'
p139
sg7
S'--'
p140
sg9
g10
sg11
S'--'
p141
sg13
g10
sg14
S'DeAndre Hopkins'
p142
sg16
S'2015'
p143
sg18
S'17'
p144
sg20
S'--'
p145
sg22
S'01/03'
p146
sg24
S'12.7'
p147
sg26
S'--'
p148
sg28
S'--'
p149
sg30
S'W30-6'
p150
sg32
S'89'
p151
sg34
S'7'
p152
sg36
S'JAC'
p153
sg38
S'20'
p154
sg40
g97
sg42
S'--'
p155
ssS'16'
p156
(dp157
g5
S'--'
p158
sg7
S'--'
p159
sg9
g10
sg11
S'--'
p160
sg13
g10
sg14
S'DeAndre Hopkins'
p161
sg16
S'2015'
p162
sg18
S'16'
p163
sg20
S'--'
p164
sg22
S'12/27'
p165
sg24
S'16.7'
p166
sg26
S'--'
p167
sg28
S'--'
p168
sg30
S'W34-6'
p169
sg32
S'117'
p170
sg34
g152
sg36
S'@TEN'
p171
sg38
S'44'
p172
sg40
g10
sg42
S'--'
p173
ssg10
(dp174
g5
S'--'
p175
sg7
S'--'
p176
sg9
g10
sg11
S'--'
p177
sg13
g10
sg14
S'DeAndre Hopkins'
p178
sg16
S'2015'
p179
sg18
g10
sg20
S'--'
p180
sg22
S'09/13'
p181
sg24
S'10.9'
p182
sg26
S'--'
p183
sg28
S'--'
p184
sg30
S'L20-27'
p185
sg32
S'98'
p186
sg34
S'9'
p187
sg36
S'KC'
p188
sg38
S'17'
p189
sg40
g41
sg42
S'--'
p190
ssg133
(dp191
g5
S'--'
p192
sg7
S'--'
p193
sg9
g10
sg11
S'--'
p194
sg13
g10
sg14
S'DeAndre Hopkins'
p195
sg16
S'2015'
p196
sg18
g133
sg20
S'--'
p197
sg22
S'09/27'
p198
sg24
S'12.6'
p199
sg26
S'--'
p200
sg28
S'--'
p201
sg30
S'W19-9'
p202
sg32
S'101'
p203
sg34
g114
sg36
S'TB'
p204
sg38
S'29'
p205
sg40
g10
sg42
S'--'
p206
ssg41
(dp207
g5
S'--'
p208
sg7
S'--'
p209
sg9
g10
sg11
S'--'
p210
sg13
g10
sg14
S'DeAndre Hopkins'
p211
sg16
S'2015'
p212
sg18
g41
sg20
S'--'
p213
sg22
S'09/20'
p214
sg24
S'10.6'
p215
sg26
S'--'
p216
sg28
S'--'
p217
sg30
S'L17-24'
p218
sg32
S'53'
p219
sg34
g35
sg36
S'@CAR'
p220
sg38
S'16'
p221
sg40
g97
sg42
S'--'
p222
ssg35
(dp223
g5
S'--'
p224
sg7
S'--'
p225
sg9
g10
sg11
S'--'
p226
sg13
g10
sg14
S'DeAndre Hopkins'
p227
sg16
S'2015'
p228
sg18
g35
sg20
S'--'
p229
sg22
S'10/08'
p230
sg24
S'15.4'
p231
sg26
S'--'
p232
sg28
S'--'
p233
sg30
S'L20-27'
p234
sg32
S'169'
p235
sg34
S'11'
p236
sg36
S'IND'
p237
sg38
S'34'
p238
sg40
g97
sg42
S'--'
p239
ssS'4'
p240
(dp241
g5
S'--'
p242
sg7
S'--'
p243
sg9
g10
sg11
S'--'
p244
sg13
g10
sg14
S'DeAndre Hopkins'
p245
sg16
S'2015'
p246
sg18
g240
sg20
S'--'
p247
sg22
S'10/04'
p248
sg24
S'17.4'
p249
sg26
S'--'
p250
sg28
S'--'
p251
sg30
S'L21-48'
p252
sg32
S'157'
p253
sg34
g187
sg36
S'@ATL'
p254
sg38
S'28'
p255
sg40
g97
sg42
S'--'
p256
ssg152
(dp257
g5
S'--'
p258
sg7
S'--'
p259
sg9
g10
sg11
g97
sg13
g10
sg14
S'DeAndre Hopkins'
p260
sg16
S'2015'
p261
sg18
g152
sg20
S'--'
p262
sg22
S'10/25'
p263
sg24
S'8.3'
p264
sg26
g10
sg28
S'--'
p265
sg30
S'L26-44'
p266
sg32
S'50'
p267
sg34
S'6'
p268
sg36
S'@MIA'
p269
sg38
S'11'
p270
sg40
g97
sg42
S'--'
p271
ssg268
(dp272
g5
S'--'
p273
sg7
S'--'
p274
sg9
g10
sg11
S'--'
p275
sg13
g10
sg14
S'DeAndre Hopkins'
p276
sg16
S'2015'
p277
sg18
g268
sg20
S'--'
p278
sg22
S'10/18'
p279
sg24
S'14.8'
p280
sg26
S'--'
p281
sg28
S'--'
p282
sg30
S'W31-20'
p283
sg32
S'148'
p284
sg34
S'10'
p285
sg36
S'@JAC'
p286
sg38
S'29'
p287
sg40
g41
sg42
S'--'
p288
ssg187
(dp289
g5
S''
p290
sg7
g290
sg9
g290
sg11
g290
sg13
g290
sg14
S'DeAndre Hopkins'
p291
sg16
S'2015'
p292
sg18
g187
sg20
g290
sg22
S'Bye'
p293
sg24
g290
sg26
g290
sg28
g290
sg30
g290
sg32
g290
sg34
g290
sg36
g290
sg38
g290
sg40
g290
sg42
g290
ssg114
(dp294
g5
S'--'
p295
sg7
S'--'
p296
sg9
g10
sg11
S'--'
p297
sg13
g10
sg14
S'DeAndre Hopkins'
p298
sg16
S'2015'
p299
sg18
g114
sg20
S'--'
p300
sg22
S'11/01'
p301
sg24
S'11.8'
p302
sg26
S'--'
p303
sg28
S'--'
p304
sg30
S'W20-6'
p305
sg32
S'94'
p306
sg34
g114
sg36
S'TEN'
p307
sg38
S'21T'
p308
sg40
g10
sg42
S'--'
p309
sssS'2014'
p310
(dp311
g3
(dp312
g5
S'--'
p313
sg7
S'--'
p314
sg9
g10
sg11
S'--'
p315
sg13
g10
sg14
S'DeAndre Hopkins'
p316
sg16
S'2014'
p317
sg18
S'11'
p318
sg20
S'--'
p319
sg22
S'11/16'
p320
sg24
S'20.0'
p321
sg26
S'--'
p322
sg28
S'--'
p323
sg30
S'W23-7'
p324
sg32
S'80'
p325
sg34
g240
sg36
S'@CLE'
p326
sg38
S'41'
p327
sg40
g97
sg42
S'--'
p328
ssg44
(dp329
g5
g290
sg7
g290
sg9
g290
sg11
g290
sg13
g290
sg14
S'DeAndre Hopkins'
p330
sg16
S'2014'
p331
sg18
S'10'
p332
sg20
g290
sg22
S'Bye'
p333
sg24
g290
sg26
g290
sg28
g290
sg30
g290
sg32
g290
sg34
g290
sg36
g290
sg38
g290
sg40
g290
sg42
g290
ssg62
(dp334
g5
S'--'
p335
sg7
S'--'
p336
sg9
g10
sg11
S'--'
p337
sg13
g10
sg14
S'DeAndre Hopkins'
p338
sg16
S'2014'
p339
sg18
S'13'
p340
sg20
S'--'
p341
sg22
S'11/30'
p342
sg24
S'26.4'
p343
sg26
S'--'
p344
sg28
S'--'
p345
sg30
S'W45-21'
p346
sg32
S'238'
p347
sg34
g187
sg36
S'TEN'
p348
sg38
S'58T'
p349
sg40
g41
sg42
S'--'
p350
ssg80
(dp351
g5
S'--'
p352
sg7
S'--'
p353
sg9
g10
sg11
S'--'
p354
sg13
g10
sg14
S'DeAndre Hopkins'
p355
sg16
S'2014'
p356
sg18
S'12'
p357
sg20
S'--'
p358
sg22
S'11/23'
p359
sg24
S'7.8'
p360
sg26
S'--'
p361
sg28
S'--'
p362
sg30
S'L13-22'
p363
sg32
S'39'
p364
sg34
g35
sg36
S'CIN'
p365
sg38
S'13'
p366
sg40
g97
sg42
S'--'
p367
ssg99
(dp368
g5
S'--'
p369
sg7
S'--'
p370
sg9
g10
sg11
S'--'
p371
sg13
g10
sg14
S'DeAndre Hopkins'
p372
sg16
S'2014'
p373
sg18
S'15'
p374
sg20
S'--'
p375
sg22
S'12/14'
p376
sg24
S'15.4'
p377
sg26
S'--'
p378
sg28
S'--'
p379
sg30
S'L10-17'
p380
sg32
S'77'
p381
sg34
g35
sg36
S'@IND'
p382
sg38
S'35'
p383
sg40
g97
sg42
S'--'
p384
ssg118
(dp385
g5
S'--'
p386
sg7
S'--'
p387
sg9
g10
sg11
S'--'
p388
sg13
g10
sg14
S'DeAndre Hopkins'
p389
sg16
S'2014'
p390
sg18
S'14'
p391
sg20
S'--'
p392
sg22
S'12/07'
p393
sg24
S'12.3'
p394
sg26
S'--'
p395
sg28
S'--'
p396
sg30
S'W27-13'
p397
sg32
S'49'
p398
sg34
g240
sg36
S'@JAC'
p399
sg38
S'28'
p400
sg40
g97
sg42
S'--'
p401
ssg137
(dp402
g5
S'--'
p403
sg7
S'--'
p404
sg9
g10
sg11
S'--'
p405
sg13
g10
sg14
S'DeAndre Hopkins'
p406
sg16
S'2014'
p407
sg18
S'17'
p408
sg20
S'--'
p409
sg22
S'12/28'
p410
sg24
S'2.5'
p411
sg26
S'--'
p412
sg28
S'--'
p413
sg30
S'W23-17'
p414
sg32
g35
sg34
g41
sg36
S'JAC'
p415
sg38
g152
sg40
g97
sg42
S'--'
p416
ssg156
(dp417
g5
S'--'
p418
sg7
S'--'
p419
sg9
g10
sg11
g97
sg13
g10
sg14
S'DeAndre Hopkins'
p420
sg16
S'2014'
p421
sg18
S'16'
p422
sg20
S'--'
p423
sg22
S'12/21'
p424
sg24
S'7.6'
p425
sg26
g10
sg28
S'--'
p426
sg30
S'W25-13'
p427
sg32
S'38'
p428
sg34
g35
sg36
S'BAL'
p429
sg38
g187
sg40
g97
sg42
S'--'
p430
ssg10
(dp431
g5
S'--'
p432
sg7
S'--'
p433
sg9
g10
sg11
S'--'
p434
sg13
g10
sg14
S'DeAndre Hopkins'
p435
sg16
S'2014'
p436
sg18
g10
sg20
S'--'
p437
sg22
S'09/07'
p438
sg24
S'22.3'
p439
sg26
S'--'
p440
sg28
S'--'
p441
sg30
S'W17-6'
p442
sg32
S'89'
p443
sg34
g240
sg36
S'WAS'
p444
sg38
S'76T'
p445
sg40
g10
sg42
S'--'
p446
ssg133
(dp447
g5
S'--'
p448
sg7
S'--'
p449
sg9
g10
sg11
S'--'
p450
sg13
g10
sg14
S'DeAndre Hopkins'
p451
sg16
S'2014'
p452
sg18
g133
sg20
S'--'
p453
sg22
S'09/21'
p454
sg24
S'19.3'
p455
sg26
S'--'
p456
sg28
S'--'
p457
sg30
S'L17-30'
p458
sg32
S'116'
p459
sg34
g268
sg36
S'@NYG'
p460
sg38
S'49'
p461
sg40
g97
sg42
S'--'
p462
ssg41
(dp463
g5
S'--'
p464
sg7
S'--'
p465
sg9
g10
sg11
S'--'
p466
sg13
g10
sg14
S'DeAndre Hopkins'
p467
sg16
S'2014'
p468
sg18
g41
sg20
S'--'
p469
sg22
S'09/14'
p470
sg24
S'7.3'
p471
sg26
S'--'
p472
sg28
S'--'
p473
sg30
S'W30-14'
p474
sg32
S'22'
p475
sg34
g133
sg36
S'@OAK'
p476
sg38
S'12T'
p477
sg40
g10
sg42
S'--'
p478
ssg35
(dp479
g5
S'--'
p480
sg7
S'--'
p481
sg9
g10
sg11
S'--'
p482
sg13
g10
sg14
S'DeAndre Hopkins'
p483
sg16
S'2014'
p484
sg18
g35
sg20
S'--'
p485
sg22
S'10/05'
p486
sg24
S'10.5'
p487
sg26
S'--'
p488
sg28
S'--'
p489
sg30
S'L17-20'
p490
sg32
S'63'
p491
sg34
g268
sg36
S'@DAL'
p492
sg38
S'19'
p493
sg40
g97
sg42
S'--'
p494
ssg240
(dp495
g5
S'--'
p496
sg7
S'--'
p497
sg9
g10
sg11
S'--'
p498
sg13
g10
sg14
S'DeAndre Hopkins'
p499
sg16
S'2014'
p500
sg18
g240
sg20
S'--'
p501
sg22
S'09/28'
p502
sg24
S'12.8'
p503
sg26
S'--'
p504
sg28
S'--'
p505
sg30
S'W23-17'
p506
sg32
S'64'
p507
sg34
g35
sg36
S'BUF'
p508
sg38
S'35T'
p509
sg40
g10
sg42
S'--'
p510
ssg152
(dp511
g5
S'--'
p512
sg7
S'--'
p513
sg9
g10
sg11
g10
sg13
g10
sg14
S'DeAndre Hopkins'
p514
sg16
S'2014'
p515
sg18
g152
sg20
S'--'
p516
sg22
S'10/20'
p517
sg24
S'18.0'
p518
sg26
g10
sg28
S'--'
p519
sg30
S'L23-30'
p520
sg32
S'108'
p521
sg34
g268
sg36
S'@PIT'
p522
sg38
S'32'
p523
sg40
g97
sg42
S'--'
p524
ssg268
(dp525
g5
S'--'
p526
sg7
S'--'
p527
sg9
g10
sg11
S'--'
p528
sg13
g10
sg14
S'DeAndre Hopkins'
p529
sg16
S'2014'
p530
sg18
g268
sg20
S'--'
p531
sg22
S'10/09'
p532
sg24
S'12.0'
p533
sg26
S'--'
p534
sg28
S'--'
p535
sg30
S'L28-33'
p536
sg32
S'12'
p537
sg34
g10
sg36
S'IND'
p538
sg38
S'12'
p539
sg40
g97
sg42
S'--'
p540
ssg187
(dp541
g5
S'--'
p542
sg7
S'--'
p543
sg9
g10
sg11
S'--'
p544
sg13
g10
sg14
S'DeAndre Hopkins'
p545
sg16
S'2014'
p546
sg18
g187
sg20
S'--'
p547
sg22
S'11/02'
p548
sg24
S'19.2'
p549
sg26
S'--'
p550
sg28
S'--'
p551
sg30
S'L21-31'
p552
sg32
S'115'
p553
sg34
g268
sg36
S'PHI'
p554
sg38
S'45'
p555
sg40
g10
sg42
S'--'
p556
ssg114
(dp557
g5
S'--'
p558
sg7
S'--'
p559
sg9
g10
sg11
S'--'
p560
sg13
g10
sg14
S'DeAndre Hopkins'
p561
sg16
S'2014'
p562
sg18
g114
sg20
S'--'
p563
sg22
S'10/26'
p564
sg24
S'19.0'
p565
sg26
S'--'
p566
sg28
S'--'
p567
sg30
S'W30-16'
p568
sg32
S'95'
p569
sg34
g35
sg36
S'@TEN'
p570
sg38
S'23'
p571
sg40
g97
sg42
S'--'
p572
sssS'2013'
p573
(dp574
g3
(dp575
g5
S'--'
p576
sg7
S'--'
p577
sg9
g10
sg11
S'--'
p578
sg13
g10
sg14
S'DeAndre Hopkins'
p579
sg16
S'2013'
p580
sg18
S'11'
p581
sg20
S'--'
p582
sg22
S'11/17'
p583
sg24
S'7.0'
p584
sg26
S'--'
p585
sg28
S'--'
p586
sg30
S'L23-28'
p587
sg32
g152
sg34
g10
sg36
S'OAK'
p588
sg38
g152
sg40
g97
sg42
S'--'
p589
ssg44
(dp590
g5
S'--'
p591
sg7
S'--'
p592
sg9
g10
sg11
S'--'
p593
sg13
g10
sg14
S'DeAndre Hopkins'
p594
sg16
S'2013'
p595
sg18
S'10'
p596
sg20
S'--'
p597
sg22
S'11/10'
p598
sg24
S'11.5'
p599
sg26
S'--'
p600
sg28
S'--'
p601
sg30
S'L24-27'
p602
sg32
S'69'
p603
sg34
g268
sg36
S'@ARI'
p604
sg38
S'22'
p605
sg40
g97
sg42
S'--'
p606
ssg62
(dp607
g5
S'--'
p608
sg7
S'--'
p609
sg9
g10
sg11
S'--'
p610
sg13
g10
sg14
S'DeAndre Hopkins'
p611
sg16
S'2013'
p612
sg18
S'13'
p613
sg20
S'--'
p614
sg22
S'12/01'
p615
sg24
S'38.5'
p616
sg26
S'--'
p617
sg28
S'--'
p618
sg30
S'L31-34'
p619
sg32
S'77'
p620
sg34
g41
sg36
S'NE'
p621
sg38
S'66'
p622
sg40
g97
sg42
S'--'
p623
ssg80
(dp624
g5
S'--'
p625
sg7
S'--'
p626
sg9
g10
sg11
S'--'
p627
sg13
g10
sg14
S'DeAndre Hopkins'
p628
sg16
S'2013'
p629
sg18
S'12'
p630
sg20
S'--'
p631
sg22
S'11/24'
p632
sg24
S'8.0'
p633
sg26
S'--'
p634
sg28
S'--'
p635
sg30
S'L6-13'
p636
sg32
g114
sg34
g10
sg36
S'JAC'
p637
sg38
g114
sg40
g97
sg42
S'--'
p638
ssg99
(dp639
g5
S'--'
p640
sg7
S'--'
p641
sg9
g10
sg11
S'--'
p642
sg13
g10
sg14
S'DeAndre Hopkins'
p643
sg16
S'2013'
p644
sg18
S'15'
p645
sg20
S'--'
p646
sg22
S'12/15'
p647
sg24
S'17.3'
p648
sg26
S'--'
p649
sg28
S'--'
p650
sg30
S'L3-25'
p651
sg32
S'52'
p652
sg34
g133
sg36
S'@IND'
p653
sg38
S'39'
p654
sg40
g97
sg42
S'--'
p655
ssg118
(dp656
g5
S'--'
p657
sg7
S'--'
p658
sg9
g10
sg11
S'--'
p659
sg13
g10
sg14
S'DeAndre Hopkins'
p660
sg16
S'2013'
p661
sg18
S'14'
p662
sg20
S'--'
p663
sg22
S'12/05'
p664
sg24
S'25.3'
p665
sg26
S'--'
p666
sg28
S'--'
p667
sg30
S'L20-27'
p668
sg32
S'76'
p669
sg34
g133
sg36
S'@JAC'
p670
sg38
S'46'
p671
sg40
g97
sg42
S'--'
p672
ssg137
(dp673
g5
S'--'
p674
sg7
S'--'
p675
sg9
g10
sg11
S'--'
p676
sg13
g10
sg14
S'DeAndre Hopkins'
p677
sg16
S'2013'
p678
sg18
S'17'
p679
sg20
S'--'
p680
sg22
S'12/29'
p681
sg24
S'8.8'
p682
sg26
S'--'
p683
sg28
S'--'
p684
sg30
S'L10-16'
p685
sg32
S'35'
p686
sg34
g240
sg36
S'@TEN'
p687
sg38
S'19'
p688
sg40
g97
sg42
S'--'
p689
ssg156
(dp690
g5
S'--'
p691
sg7
S'--'
p692
sg9
g10
sg11
S'--'
p693
sg13
g10
sg14
S'DeAndre Hopkins'
p694
sg16
S'2013'
p695
sg18
S'16'
p696
sg20
S'--'
p697
sg22
S'12/22'
p698
sg24
S'8.0'
p699
sg26
S'--'
p700
sg28
S'--'
p701
sg30
S'L13-37'
p702
sg32
g114
sg34
g10
sg36
S'DEN'
p703
sg38
g114
sg40
g97
sg42
S'--'
p704
ssg10
(dp705
g5
S'--'
p706
sg7
S'--'
p707
sg9
g10
sg11
S'--'
p708
sg13
g10
sg14
S'DeAndre Hopkins'
p709
sg16
S'2013'
p710
sg18
g10
sg20
S'--'
p711
sg22
S'09/09'
p712
sg24
S'13.2'
p713
sg26
S'--'
p714
sg28
S'--'
p715
sg30
S'W31-28'
p716
sg32
S'66'
p717
sg34
g35
sg36
S'@SD'
p718
sg38
S'30'
p719
sg40
g97
sg42
S'--'
p720
ssg133
(dp721
g5
S'--'
p722
sg7
S'--'
p723
sg9
g10
sg11
S'--'
p724
sg13
g10
sg14
S'DeAndre Hopkins'
p725
sg16
S'2013'
p726
sg18
g133
sg20
S'--'
p727
sg22
S'09/22'
p728
sg24
S'10.0'
p729
sg26
S'--'
p730
sg28
S'--'
p731
sg30
S'L9-30'
p732
sg32
S'60'
p733
sg34
g268
sg36
S'@BAL'
p734
sg38
S'18'
p735
sg40
g97
sg42
S'--'
p736
ssg41
(dp737
g5
S'--'
p738
sg7
S'--'
p739
sg9
g10
sg11
S'--'
p740
sg13
g10
sg14
S'DeAndre Hopkins'
p741
sg16
S'2013'
p742
sg18
g41
sg20
S'--'
p743
sg22
S'09/15'
p744
sg24
S'16.7'
p745
sg26
S'--'
p746
sg28
S'--'
p747
sg30
S'W30-24'
p748
sg32
S'117'
p749
sg34
g152
sg36
S'TEN'
p750
sg38
S'28'
p751
sg40
g10
sg42
S'--'
p752
ssg35
(dp753
g5
S'--'
p754
sg7
S'--'
p755
sg9
g10
sg11
S'--'
p756
sg13
g10
sg14
S'DeAndre Hopkins'
p757
sg16
S'2013'
p758
sg18
g35
sg20
S'--'
p759
sg22
S'10/06'
p760
sg24
S'11.5'
p761
sg26
S'--'
p762
sg28
S'--'
p763
sg30
S'L3-34'
p764
sg32
S'23'
p765
sg34
g41
sg36
S'@SF'
p766
sg38
S'18'
p767
sg40
g97
sg42
S'--'
p768
ssg240
(dp769
g5
S'--'
p770
sg7
S'--'
p771
sg9
g10
sg11
S'--'
p772
sg13
g10
sg14
S'DeAndre Hopkins'
p773
sg16
S'2013'
p774
sg18
g240
sg20
S'--'
p775
sg22
S'09/29'
p776
sg24
S'13.5'
p777
sg26
S'--'
p778
sg28
S'--'
p779
sg30
S'L20-23'
p780
sg32
S'27'
p781
sg34
g41
sg36
S'SEA'
p782
sg38
S'16'
p783
sg40
g97
sg42
S'--'
p784
ssg152
(dp785
g5
S'--'
p786
sg7
S'--'
p787
sg9
g10
sg11
S'--'
p788
sg13
g10
sg14
S'DeAndre Hopkins'
p789
sg16
S'2013'
p790
sg18
g152
sg20
S'--'
p791
sg22
S'10/20'
p792
sg24
S'25.3'
p793
sg26
S'--'
p794
sg28
S'--'
p795
sg30
S'L16-17'
p796
sg32
S'76'
p797
sg34
g133
sg36
S'@KC'
p798
sg38
S'35'
p799
sg40
g10
sg42
S'--'
p800
ssg268
(dp801
g5
S'--'
p802
sg7
S'--'
p803
sg9
g10
sg11
g10
sg13
g10
sg14
S'DeAndre Hopkins'
p804
sg16
S'2013'
p805
sg18
g268
sg20
S'--'
p806
sg22
S'10/13'
p807
sg24
S'15.7'
p808
sg26
g10
sg28
S'--'
p809
sg30
S'L13-38'
p810
sg32
S'47'
p811
sg34
g133
sg36
S'STL'
p812
sg38
S'22'
p813
sg40
g97
sg42
S'--'
p814
ssg187
(dp815
g5
S'--'
p816
sg7
S'--'
p817
sg9
g10
sg11
S'--'
p818
sg13
g10
sg14
S'DeAndre Hopkins'
p819
sg16
S'2013'
p820
sg18
g187
sg20
S'--'
p821
sg22
S'11/03'
p822
sg24
S'18.0'
p823
sg26
S'--'
p824
sg28
S'--'
p825
sg30
S'L24-27'
p826
sg32
S'54'
p827
sg34
g133
sg36
S'IND'
p828
sg38
S'31'
p829
sg40
g97
sg42
S'--'
p830
ssg114
(dp831
g5
g290
sg7
g290
sg9
g290
sg11
g290
sg13
g290
sg14
S'DeAndre Hopkins'
p832
sg16
S'2013'
p833
sg18
g114
sg20
g290
sg22
S'Bye'
p834
sg24
g290
sg26
g290
sg28
g290
sg30
g290
sg32
g290
sg34
g290
sg36
g290
sg38
g290
sg40
g290
sg42
g290
sss.