(dp0
S'2015'
p1
(dp2
S'11'
p3
(dp4
S'RushTD'
p5
S'--'
p6
sS'RushYds'
p7
S'--'
p8
sS'GS'
p9
S'1'
p10
sS'Lost'
p11
S'--'
p12
sS'G'
p13
g10
sS'Player'
p14
S'Demaryius Thomas'
p15
sS'Year'
p16
S'2015'
p17
sS'WK'
p18
S'11'
p19
sS'RushAvg'
p20
S'--'
p21
sS'Game Date'
p22
S'11/22'
p23
sS'RecAvg'
p24
S'19.7'
p25
sS'FUM'
p26
S'--'
p27
sS'RushAtt'
p28
S'--'
p29
sS'Result'
p30
S'W17-15'
p31
sS'RecYds'
p32
S'59'
p33
sS'Rec'
p34
S'3'
p35
sS'Opp'
p36
S'@CHI'
p37
sS'RecLng'
p38
S'48T'
p39
sS'RecTD'
p40
g10
sS'RushLng'
p41
S'--'
p42
ssS'10'
p43
(dp44
g5
S'--'
p45
sg7
S'--'
p46
sg9
g10
sg11
S'--'
p47
sg13
g10
sg14
S'Demaryius Thomas'
p48
sg16
S'2015'
p49
sg18
S'10'
p50
sg20
S'--'
p51
sg22
S'11/15'
p52
sg24
S'10.1'
p53
sg26
S'--'
p54
sg28
S'--'
p55
sg30
S'L13-29'
p56
sg32
S'71'
p57
sg34
S'7'
p58
sg36
S'KC'
p59
sg38
S'17'
p60
sg40
S'0'
p61
sg41
S'--'
p62
ssS'13'
p63
(dp64
g5
S'--'
p65
sg7
S'--'
p66
sg9
g10
sg11
S'--'
p67
sg13
g10
sg14
S'Demaryius Thomas'
p68
sg16
S'2015'
p69
sg18
S'13'
p70
sg20
S'--'
p71
sg22
S'12/06'
p72
sg24
S'10.2'
p73
sg26
S'--'
p74
sg28
S'--'
p75
sg30
S'W17-3'
p76
sg32
S'61'
p77
sg34
S'6'
p78
sg36
S'@SD'
p79
sg38
S'21'
p80
sg40
g10
sg41
S'--'
p81
ssS'12'
p82
(dp83
g5
S'--'
p84
sg7
S'--'
p85
sg9
g10
sg11
S'--'
p86
sg13
g10
sg14
S'Demaryius Thomas'
p87
sg16
S'2015'
p88
sg18
S'12'
p89
sg20
S'--'
p90
sg22
S'11/29'
p91
sg24
S'36.0'
p92
sg26
S'--'
p93
sg28
S'--'
p94
sg30
S'W30-24'
p95
sg32
S'36'
p96
sg34
g10
sg36
S'NE'
p97
sg38
S'36'
p98
sg40
g61
sg41
S'--'
p99
ssS'15'
p100
(dp101
g5
S'--'
p102
sg7
S'--'
p103
sg9
g10
sg11
S'--'
p104
sg13
g10
sg14
S'Demaryius Thomas'
p105
sg16
S'2015'
p106
sg18
S'15'
p107
sg20
S'--'
p108
sg22
S'12/20'
p109
sg24
S'12.2'
p110
sg26
S'--'
p111
sg28
S'--'
p112
sg30
S'L27-34'
p113
sg32
S'61'
p114
sg34
S'5'
p115
sg36
S'@PIT'
p116
sg38
S'18T'
p117
sg40
S'2'
p118
sg41
S'--'
p119
ssS'14'
p120
(dp121
g5
S'--'
p122
sg7
S'--'
p123
sg9
g10
sg11
g10
sg13
g10
sg14
S'Demaryius Thomas'
p124
sg16
S'2015'
p125
sg18
S'14'
p126
sg20
S'--'
p127
sg22
S'12/13'
p128
sg24
S'9.5'
p129
sg26
g10
sg28
S'--'
p130
sg30
S'L12-15'
p131
sg32
S'95'
p132
sg34
S'10'
p133
sg36
S'OAK'
p134
sg38
S'17'
p135
sg40
g61
sg41
S'--'
p136
ssS'17'
p137
(dp138
g5
S'--'
p139
sg7
S'--'
p140
sg9
g10
sg11
S'--'
p141
sg13
g10
sg14
S'Demaryius Thomas'
p142
sg16
S'2015'
p143
sg18
S'17'
p144
sg20
S'--'
p145
sg22
S'01/03'
p146
sg24
S'23.4'
p147
sg26
S'--'
p148
sg28
S'--'
p149
sg30
S'W27-20'
p150
sg32
S'117'
p151
sg34
g115
sg36
S'SD'
p152
sg38
S'72T'
p153
sg40
g10
sg41
S'--'
p154
ssS'16'
p155
(dp156
g5
S'--'
p157
sg7
S'--'
p158
sg9
g10
sg11
S'--'
p159
sg13
g10
sg14
S'Demaryius Thomas'
p160
sg16
S'2015'
p161
sg18
S'16'
p162
sg20
S'--'
p163
sg22
S'12/28'
p164
sg24
S'8.4'
p165
sg26
S'--'
p166
sg28
S'--'
p167
sg30
S'W20-17'
p168
sg32
S'59'
p169
sg34
g58
sg36
S'CIN'
p170
sg38
S'13'
p171
sg40
g61
sg41
S'--'
p172
ssg10
(dp173
g5
S'--'
p174
sg7
S'--'
p175
sg9
g10
sg11
S'--'
p176
sg13
g10
sg14
S'Demaryius Thomas'
p177
sg16
S'2015'
p178
sg18
g10
sg20
S'--'
p179
sg22
S'09/13'
p180
sg24
S'8.6'
p181
sg26
S'--'
p182
sg28
S'--'
p183
sg30
S'W19-13'
p184
sg32
S'60'
p185
sg34
g58
sg36
S'BAL'
p186
sg38
S'11'
p187
sg40
g61
sg41
S'--'
p188
ssg35
(dp189
g5
S'--'
p190
sg7
S'--'
p191
sg9
g10
sg11
g10
sg13
g10
sg14
S'Demaryius Thomas'
p192
sg16
S'2015'
p193
sg18
g35
sg20
S'--'
p194
sg22
S'09/27'
p195
sg24
S'10.2'
p196
sg26
g10
sg28
S'--'
p197
sg30
S'W24-12'
p198
sg32
S'92'
p199
sg34
S'9'
p200
sg36
S'@DET'
p201
sg38
S'45T'
p202
sg40
g10
sg41
S'--'
p203
ssg118
(dp204
g5
S'--'
p205
sg7
S'--'
p206
sg9
g10
sg11
S'--'
p207
sg13
g10
sg14
S'Demaryius Thomas'
p208
sg16
S'2015'
p209
sg18
g118
sg20
S'--'
p210
sg22
S'09/17'
p211
sg24
S'14.5'
p212
sg26
S'--'
p213
sg28
S'--'
p214
sg30
S'W31-24'
p215
sg32
S'116'
p216
sg34
S'8'
p217
sg36
S'@KC'
p218
sg38
S'22'
p219
sg40
g61
sg41
S'--'
p220
ssg115
(dp221
g5
S'--'
p222
sg7
S'--'
p223
sg9
g10
sg11
S'--'
p224
sg13
g10
sg14
S'Demaryius Thomas'
p225
sg16
S'2015'
p226
sg18
g115
sg20
S'--'
p227
sg22
S'10/11'
p228
sg24
S'11.0'
p229
sg26
S'--'
p230
sg28
S'--'
p231
sg30
S'W16-10'
p232
sg32
S'55'
p233
sg34
g115
sg36
S'@OAK'
p234
sg38
S'17'
p235
sg40
g61
sg41
S'--'
p236
ssS'4'
p237
(dp238
g5
S'--'
p239
sg7
S'--'
p240
sg9
g10
sg11
S'--'
p241
sg13
g10
sg14
S'Demaryius Thomas'
p242
sg16
S'2015'
p243
sg18
g237
sg20
S'--'
p244
sg22
S'10/04'
p245
sg24
S'10.3'
p246
sg26
S'--'
p247
sg28
S'--'
p248
sg30
S'W23-20'
p249
sg32
S'93'
p250
sg34
g200
sg36
S'MIN'
p251
sg38
S'30'
p252
sg40
g61
sg41
S'--'
p253
ssg58
(dp254
g5
S''
p255
sg7
g255
sg9
g255
sg11
g255
sg13
g255
sg14
S'Demaryius Thomas'
p256
sg16
S'2015'
p257
sg18
g58
sg20
g255
sg22
S'Bye'
p258
sg24
g255
sg26
g255
sg28
g255
sg30
g255
sg32
g255
sg34
g255
sg36
g255
sg38
g255
sg40
g255
sg41
g255
ssg78
(dp259
g5
S'--'
p260
sg7
S'--'
p261
sg9
g10
sg11
S'--'
p262
sg13
g10
sg14
S'Demaryius Thomas'
p263
sg16
S'2015'
p264
sg18
g78
sg20
S'--'
p265
sg22
S'10/18'
p266
sg24
S'11.1'
p267
sg26
S'--'
p268
sg28
S'--'
p269
sg30
S'W26-23'
p270
sg32
S'111'
p271
sg34
S'10'
p272
sg36
S'@CLE'
p273
sg38
S'20'
p274
sg40
g61
sg41
S'--'
p275
ssg200
(dp276
g5
S'--'
p277
sg7
S'--'
p278
sg9
g10
sg11
S'--'
p279
sg13
g10
sg14
S'Demaryius Thomas'
p280
sg16
S'2015'
p281
sg18
g200
sg20
S'--'
p282
sg22
S'11/08'
p283
sg24
S'10.0'
p284
sg26
S'--'
p285
sg28
S'--'
p286
sg30
S'L24-27'
p287
sg32
S'50'
p288
sg34
g115
sg36
S'@IND'
p289
sg38
S'17'
p290
sg40
g61
sg41
S'--'
p291
ssg217
(dp292
g5
S'--'
p293
sg7
S'--'
p294
sg9
g10
sg11
S'--'
p295
sg13
g10
sg14
S'Demaryius Thomas'
p296
sg16
S'2015'
p297
sg18
g217
sg20
S'--'
p298
sg22
S'11/01'
p299
sg24
S'21.0'
p300
sg26
S'--'
p301
sg28
S'--'
p302
sg30
S'W29-10'
p303
sg32
S'168'
p304
sg34
g217
sg36
S'GB'
p305
sg38
S'47'
p306
sg40
g61
sg41
S'--'
p307
sssS'2014'
p308
(dp309
g3
(dp310
g5
S'--'
p311
sg7
S'--'
p312
sg9
g10
sg11
S'--'
p313
sg13
g10
sg14
S'Demaryius Thomas'
p314
sg16
S'2014'
p315
sg18
S'11'
p316
sg20
S'--'
p317
sg22
S'11/16'
p318
sg24
S'14.7'
p319
sg26
S'--'
p320
sg28
S'--'
p321
sg30
S'L7-22'
p322
sg32
S'103'
p323
sg34
g58
sg36
S'@STL'
p324
sg38
S'23'
p325
sg40
g61
sg41
S'--'
p326
ssg43
(dp327
g5
S'--'
p328
sg7
S'--'
p329
sg9
g10
sg11
S'--'
p330
sg13
g10
sg14
S'Demaryius Thomas'
p331
sg16
S'2014'
p332
sg18
S'10'
p333
sg20
S'--'
p334
sg22
S'11/09'
p335
sg24
S'9.8'
p336
sg26
S'--'
p337
sg28
S'--'
p338
sg30
S'W41-17'
p339
sg32
S'108'
p340
sg34
S'11'
p341
sg36
S'@OAK'
p342
sg38
S'21'
p343
sg40
g61
sg41
S'--'
p344
ssg63
(dp345
g5
S'--'
p346
sg7
S'--'
p347
sg9
g10
sg11
S'--'
p348
sg13
g10
sg14
S'Demaryius Thomas'
p349
sg16
S'2014'
p350
sg18
S'13'
p351
sg20
S'--'
p352
sg22
S'11/30'
p353
sg24
S'10.5'
p354
sg26
S'--'
p355
sg28
S'--'
p356
sg30
S'W29-16'
p357
sg32
S'63'
p358
sg34
g78
sg36
S'@KC'
p359
sg38
S'23T'
p360
sg40
g10
sg41
S'--'
p361
ssg82
(dp362
g5
S'--'
p363
sg7
S'--'
p364
sg9
g10
sg11
S'--'
p365
sg13
g10
sg14
S'Demaryius Thomas'
p366
sg16
S'2014'
p367
sg18
S'12'
p368
sg20
S'--'
p369
sg22
S'11/23'
p370
sg24
S'8.7'
p371
sg26
S'--'
p372
sg28
S'--'
p373
sg30
S'W39-36'
p374
sg32
S'87'
p375
sg34
S'10'
p376
sg36
S'MIA'
p377
sg38
S'21'
p378
sg40
g35
sg41
S'--'
p379
ssg100
(dp380
g5
S'--'
p381
sg7
S'--'
p382
sg9
g10
sg11
S'--'
p383
sg13
g10
sg14
S'Demaryius Thomas'
p384
sg16
S'2014'
p385
sg18
S'15'
p386
sg20
S'--'
p387
sg22
S'12/14'
p388
sg24
S'20.5'
p389
sg26
S'--'
p390
sg28
S'--'
p391
sg30
S'W22-10'
p392
sg32
S'123'
p393
sg34
g78
sg36
S'@SD'
p394
sg38
S'36'
p395
sg40
g10
sg41
S'--'
p396
ssg120
(dp397
g5
S'--'
p398
sg7
S'--'
p399
sg9
g10
sg11
S'--'
p400
sg13
g10
sg14
S'Demaryius Thomas'
p401
sg16
S'2014'
p402
sg18
S'14'
p403
sg20
S'--'
p404
sg22
S'12/07'
p405
sg24
S'5.5'
p406
sg26
S'--'
p407
sg28
S'--'
p408
sg30
S'W24-17'
p409
sg32
S'11'
p410
sg34
g118
sg36
S'BUF'
p411
sg38
g78
sg40
g61
sg41
S'--'
p412
ssg137
(dp413
g5
S'--'
p414
sg7
S'--'
p415
sg9
g10
sg11
S'--'
p416
sg13
g10
sg14
S'Demaryius Thomas'
p417
sg16
S'2014'
p418
sg18
S'17'
p419
sg20
S'--'
p420
sg22
S'12/28'
p421
sg24
S'14.4'
p422
sg26
S'--'
p423
sg28
S'--'
p424
sg30
S'W47-14'
p425
sg32
S'115'
p426
sg34
g217
sg36
S'OAK'
p427
sg38
S'27'
p428
sg40
g61
sg41
S'--'
p429
ssg155
(dp430
g5
S'--'
p431
sg7
S'--'
p432
sg9
g10
sg11
S'--'
p433
sg13
g10
sg14
S'Demaryius Thomas'
p434
sg16
S'2014'
p435
sg18
S'16'
p436
sg20
S'--'
p437
sg22
S'12/22'
p438
sg24
S'16.4'
p439
sg26
S'--'
p440
sg28
S'--'
p441
sg30
S'L28-37'
p442
sg32
S'115'
p443
sg34
g58
sg36
S'@CIN'
p444
sg38
S'46'
p445
sg40
g61
sg41
S'--'
p446
ssg10
(dp447
g5
S'--'
p448
sg7
S'--'
p449
sg9
g10
sg11
S'--'
p450
sg13
g10
sg14
S'Demaryius Thomas'
p451
sg16
S'2014'
p452
sg18
g10
sg20
S'--'
p453
sg22
S'09/07'
p454
sg24
S'12.0'
p455
sg26
S'--'
p456
sg28
S'--'
p457
sg30
S'W31-24'
p458
sg32
S'48'
p459
sg34
g237
sg36
S'IND'
p460
sg38
S'26'
p461
sg40
g61
sg41
S'--'
p462
ssg35
(dp463
g5
S'--'
p464
sg7
S'--'
p465
sg9
g10
sg11
S'--'
p466
sg13
g10
sg14
S'Demaryius Thomas'
p467
sg16
S'2014'
p468
sg18
g35
sg20
S'--'
p469
sg22
S'09/21'
p470
sg24
S'7.8'
p471
sg26
S'--'
p472
sg28
S'--'
p473
sg30
S'L20-26'
p474
sg32
S'31'
p475
sg34
g237
sg36
S'@SEA'
p476
sg38
S'12'
p477
sg40
g61
sg41
S'--'
p478
ssg118
(dp479
g5
S'--'
p480
sg7
S'--'
p481
sg9
g10
sg11
S'--'
p482
sg13
g10
sg14
S'Demaryius Thomas'
p483
sg16
S'2014'
p484
sg18
g118
sg20
S'--'
p485
sg22
S'09/14'
p486
sg24
S'12.4'
p487
sg26
S'--'
p488
sg28
S'--'
p489
sg30
S'W24-17'
p490
sg32
S'62'
p491
sg34
g115
sg36
S'KC'
p492
sg38
S'21'
p493
sg40
g10
sg41
S'--'
p494
ssg115
(dp495
g5
S'--'
p496
sg7
S'--'
p497
sg9
g10
sg11
S'--'
p498
sg13
g10
sg14
S'Demaryius Thomas'
p499
sg16
S'2014'
p500
sg18
g115
sg20
S'--'
p501
sg22
S'10/05'
p502
sg24
S'28.3'
p503
sg26
S'--'
p504
sg28
S'--'
p505
sg30
S'W41-20'
p506
sg32
S'226'
p507
sg34
g217
sg36
S'ARI'
p508
sg38
S'86T'
p509
sg40
g118
sg41
S'--'
p510
ssg237
(dp511
g5
g255
sg7
g255
sg9
g255
sg11
g255
sg13
g255
sg14
S'Demaryius Thomas'
p512
sg16
S'2014'
p513
sg18
g237
sg20
g255
sg22
S'Bye'
p514
sg24
g255
sg26
g255
sg28
g255
sg30
g255
sg32
g255
sg34
g255
sg36
g255
sg38
g255
sg40
g255
sg41
g255
ssg58
(dp515
g5
S'--'
p516
sg7
S'--'
p517
sg9
g10
sg11
S'--'
p518
sg13
g10
sg14
S'Demaryius Thomas'
p519
sg16
S'2014'
p520
sg18
g58
sg20
S'--'
p521
sg22
S'10/19'
p522
sg24
S'21.4'
p523
sg26
S'--'
p524
sg28
S'--'
p525
sg30
S'W42-17'
p526
sg32
S'171'
p527
sg34
g217
sg36
S'SF'
p528
sg38
S'49'
p529
sg40
g118
sg41
S'--'
p530
ssg78
(dp531
g5
S'--'
p532
sg7
S'--'
p533
sg9
g10
sg11
S'--'
p534
sg13
g10
sg14
S'Demaryius Thomas'
p535
sg16
S'2014'
p536
sg18
g78
sg20
S'--'
p537
sg22
S'10/12'
p538
sg24
S'12.4'
p539
sg26
S'--'
p540
sg28
S'--'
p541
sg30
S'W31-17'
p542
sg32
S'124'
p543
sg34
S'10'
p544
sg36
S'@NYJ'
p545
sg38
S'54'
p546
sg40
g10
sg41
S'--'
p547
ssg200
(dp548
g5
S'--'
p549
sg7
S'--'
p550
sg9
g10
sg11
S'--'
p551
sg13
g10
sg14
S'Demaryius Thomas'
p552
sg16
S'2014'
p553
sg18
g200
sg20
S'--'
p554
sg22
S'11/02'
p555
sg24
S'18.1'
p556
sg26
S'--'
p557
sg28
S'--'
p558
sg30
S'L21-43'
p559
sg32
S'127'
p560
sg34
g58
sg36
S'@NE'
p561
sg38
S'41'
p562
sg40
g61
sg41
S'--'
p563
ssg217
(dp564
g5
S'--'
p565
sg7
S'--'
p566
sg9
g10
sg11
S'--'
p567
sg13
g10
sg14
S'Demaryius Thomas'
p568
sg16
S'2014'
p569
sg18
g217
sg20
S'--'
p570
sg22
S'10/23'
p571
sg24
S'13.1'
p572
sg26
S'--'
p573
sg28
S'--'
p574
sg30
S'W35-21'
p575
sg32
S'105'
p576
sg34
g217
sg36
S'SD'
p577
sg38
S'23'
p578
sg40
g61
sg41
S'--'
p579
sssS'2011'
p580
(dp581
g3
(dp582
g5
S'--'
p583
sg7
S'--'
p584
sg9
g10
sg11
S'--'
p585
sg13
g10
sg14
S'Demaryius Thomas'
p586
sg16
S'2011'
p587
sg18
S'11'
p588
sg20
S'--'
p589
sg22
S'11/17'
p590
sg24
S'18.5'
p591
sg26
S'--'
p592
sg28
S'--'
p593
sg30
S'W17-13'
p594
sg32
S'37'
p595
sg34
g118
sg36
S'NYJ'
p596
sg38
S'28'
p597
sg40
g61
sg41
S'--'
p598
ssg43
(dp599
g5
S'--'
p600
sg7
S'--'
p601
sg9
g61
sg11
S'--'
p602
sg13
g10
sg14
S'Demaryius Thomas'
p603
sg16
S'2011'
p604
sg18
S'10'
p605
sg20
S'--'
p606
sg22
S'11/13'
p607
sg24
S'--'
p608
sg26
S'--'
p609
sg28
S'--'
p610
sg30
S'W17-10'
p611
sg32
S'--'
p612
sg34
S'--'
p613
sg36
S'@KC'
p614
sg38
S'--'
p615
sg40
S'--'
p616
sg41
S'--'
p617
ssg63
(dp618
g5
S'--'
p619
sg7
S'--'
p620
sg9
g61
sg11
S'--'
p621
sg13
g10
sg14
S'Demaryius Thomas'
p622
sg16
S'2011'
p623
sg18
S'13'
p624
sg20
S'--'
p625
sg22
S'12/04'
p626
sg24
S'36.0'
p627
sg26
S'--'
p628
sg28
S'--'
p629
sg30
S'W35-32'
p630
sg32
S'144'
p631
sg34
g237
sg36
S'@MIN'
p632
sg38
S'42'
p633
sg40
g118
sg41
S'--'
p634
ssg82
(dp635
g5
S'--'
p636
sg7
S'--'
p637
sg9
g61
sg11
S'--'
p638
sg13
g10
sg14
S'Demaryius Thomas'
p639
sg16
S'2011'
p640
sg18
S'12'
p641
sg20
S'--'
p642
sg22
S'11/27'
p643
sg24
S'--'
p644
sg26
S'--'
p645
sg28
S'--'
p646
sg30
S'W16-13'
p647
sg32
g61
sg34
g61
sg36
S'@SD'
p648
sg38
S'--'
p649
sg40
g61
sg41
S'--'
p650
ssg100
(dp651
g5
S'--'
p652
sg7
S'--'
p653
sg9
g10
sg11
S'--'
p654
sg13
g10
sg14
S'Demaryius Thomas'
p655
sg16
S'2011'
p656
sg18
S'15'
p657
sg20
S'--'
p658
sg22
S'12/18'
p659
sg24
S'16.6'
p660
sg26
S'--'
p661
sg28
S'--'
p662
sg30
S'L23-41'
p663
sg32
S'116'
p664
sg34
g58
sg36
S'NE'
p665
sg38
S'39'
p666
sg40
g61
sg41
S'--'
p667
ssg120
(dp668
g5
g61
sg7
g115
sg9
g10
sg11
S'--'
p669
sg13
g10
sg14
S'Demaryius Thomas'
p670
sg16
S'2011'
p671
sg18
S'14'
p672
sg20
S'5.0'
p673
sg22
S'12/11'
p674
sg24
S'11.1'
p675
sg26
S'--'
p676
sg28
g10
sg30
S'W13-10'
p677
sg32
S'78'
p678
sg34
g58
sg36
S'CHI'
p679
sg38
S'16'
p680
sg40
g10
sg41
g115
ssg137
(dp681
g5
S'--'
p682
sg7
S'--'
p683
sg9
g61
sg11
S'--'
p684
sg13
g10
sg14
S'Demaryius Thomas'
p685
sg16
S'2011'
p686
sg18
S'17'
p687
sg20
S'--'
p688
sg22
S'01/01'
p689
sg24
S'11.3'
p690
sg26
S'--'
p691
sg28
S'--'
p692
sg30
S'L3-7'
p693
sg32
S'34'
p694
sg34
g35
sg36
S'KC'
p695
sg38
S'17'
p696
sg40
g61
sg41
S'--'
p697
ssg155
(dp698
g5
S'--'
p699
sg7
S'--'
p700
sg9
g10
sg11
S'--'
p701
sg13
g10
sg14
S'Demaryius Thomas'
p702
sg16
S'2011'
p703
sg18
S'16'
p704
sg20
S'--'
p705
sg22
S'12/24'
p706
sg24
S'19.0'
p707
sg26
S'--'
p708
sg28
S'--'
p709
sg30
S'L14-40'
p710
sg32
S'76'
p711
sg34
g237
sg36
S'@BUF'
p712
sg38
S'47'
p713
sg40
g61
sg41
S'--'
p714
ssg10
(dp715
g5
S'--'
p716
sg7
S'--'
p717
sg9
g61
sg11
S'--'
p718
sg13
g61
sg14
S'Demaryius Thomas'
p719
sg16
S'2011'
p720
sg18
g10
sg20
S'--'
p721
sg22
S'09/12'
p722
sg24
S'--'
p723
sg26
S'--'
p724
sg28
S'--'
p725
sg30
S'L20-23'
p726
sg32
S'--'
p727
sg34
S'--'
p728
sg36
S'OAK'
p729
sg38
S'--'
p730
sg40
S'--'
p731
sg41
S'--'
p732
ssg35
(dp733
g5
S'--'
p734
sg7
S'--'
p735
sg9
g61
sg11
S'--'
p736
sg13
g61
sg14
S'Demaryius Thomas'
p737
sg16
S'2011'
p738
sg18
g35
sg20
S'--'
p739
sg22
S'09/25'
p740
sg24
S'--'
p741
sg26
S'--'
p742
sg28
S'--'
p743
sg30
S'L14-17'
p744
sg32
S'--'
p745
sg34
S'--'
p746
sg36
S'@TEN'
p747
sg38
S'--'
p748
sg40
S'--'
p749
sg41
S'--'
p750
ssg118
(dp751
g5
S'--'
p752
sg7
S'--'
p753
sg9
g61
sg11
S'--'
p754
sg13
g61
sg14
S'Demaryius Thomas'
p755
sg16
S'2011'
p756
sg18
g118
sg20
S'--'
p757
sg22
S'09/18'
p758
sg24
S'--'
p759
sg26
S'--'
p760
sg28
S'--'
p761
sg30
S'W24-22'
p762
sg32
S'--'
p763
sg34
S'--'
p764
sg36
S'CIN'
p765
sg38
S'--'
p766
sg40
S'--'
p767
sg41
S'--'
p768
ssg115
(dp769
g5
S'--'
p770
sg7
S'--'
p771
sg9
g61
sg11
S'--'
p772
sg13
g61
sg14
S'Demaryius Thomas'
p773
sg16
S'2011'
p774
sg18
g115
sg20
S'--'
p775
sg22
S'10/09'
p776
sg24
S'--'
p777
sg26
S'--'
p778
sg28
S'--'
p779
sg30
S'L24-29'
p780
sg32
S'--'
p781
sg34
S'--'
p782
sg36
S'SD'
p783
sg38
S'--'
p784
sg40
S'--'
p785
sg41
S'--'
p786
ssg237
(dp787
g5
S'--'
p788
sg7
S'--'
p789
sg9
g61
sg11
S'--'
p790
sg13
g61
sg14
S'Demaryius Thomas'
p791
sg16
S'2011'
p792
sg18
g237
sg20
S'--'
p793
sg22
S'10/02'
p794
sg24
S'--'
p795
sg26
S'--'
p796
sg28
S'--'
p797
sg30
S'L23-49'
p798
sg32
S'--'
p799
sg34
S'--'
p800
sg36
S'@GB'
p801
sg38
S'--'
p802
sg40
S'--'
p803
sg41
S'--'
p804
ssg58
(dp805
g5
S'--'
p806
sg7
S'--'
p807
sg9
g61
sg11
S'--'
p808
sg13
g10
sg14
S'Demaryius Thomas'
p809
sg16
S'2011'
p810
sg18
g58
sg20
S'--'
p811
sg22
S'10/23'
p812
sg24
S'9.0'
p813
sg26
S'--'
p814
sg28
S'--'
p815
sg30
S'W18-15'
p816
sg32
S'27'
p817
sg34
g35
sg36
S'@MIA'
p818
sg38
S'15'
p819
sg40
g10
sg41
S'--'
p820
ssg78
(dp821
g5
g255
sg7
g255
sg9
g255
sg11
g255
sg13
g255
sg14
S'Demaryius Thomas'
p822
sg16
S'2011'
p823
sg18
g78
sg20
g255
sg22
S'Bye'
p824
sg24
g255
sg26
g255
sg28
g255
sg30
g255
sg32
g255
sg34
g255
sg36
g255
sg38
g255
sg40
g255
sg41
g255
ssg200
(dp825
g5
S'--'
p826
sg7
S'--'
p827
sg9
g61
sg11
S'--'
p828
sg13
g10
sg14
S'Demaryius Thomas'
p829
sg16
S'2011'
p830
sg18
g200
sg20
S'--'
p831
sg22
S'11/06'
p832
sg24
S'29.0'
p833
sg26
S'--'
p834
sg28
S'--'
p835
sg30
S'W38-24'
p836
sg32
S'29'
p837
sg34
g10
sg36
S'@OAK'
p838
sg38
S'29'
p839
sg40
g61
sg41
S'--'
p840
ssg217
(dp841
g5
S'--'
p842
sg7
S'--'
p843
sg9
g10
sg11
S'--'
p844
sg13
g10
sg14
S'Demaryius Thomas'
p845
sg16
S'2011'
p846
sg18
g217
sg20
S'--'
p847
sg22
S'10/30'
p848
sg24
S'10.0'
p849
sg26
S'--'
p850
sg28
S'--'
p851
sg30
S'L10-45'
p852
sg32
S'10'
p853
sg34
g10
sg36
S'DET'
p854
sg38
S'10'
p855
sg40
g61
sg41
S'--'
p856
sssS'2010'
p857
(dp858
g3
(dp859
g5
S'--'
p860
sg7
S'--'
p861
sg9
g10
sg11
S'--'
p862
sg13
g10
sg14
S'Demaryius Thomas'
p863
sg16
S'2010'
p864
sg18
S'11'
p865
sg20
S'--'
p866
sg22
S'11/22'
p867
sg24
S'5.7'
p868
sg26
S'--'
p869
sg28
S'--'
p870
sg30
S'L14-35'
p871
sg32
S'17'
p872
sg34
g35
sg36
S'@SD'
p873
sg38
S'12'
p874
sg40
g61
sg41
S'--'
p875
ssg43
(dp876
g5
S'--'
p877
sg7
S'--'
p878
sg9
g61
sg11
S'--'
p879
sg13
g10
sg14
S'Demaryius Thomas'
p880
sg16
S'2010'
p881
sg18
S'10'
p882
sg20
S'--'
p883
sg22
S'11/14'
p884
sg24
S'17.0'
p885
sg26
S'--'
p886
sg28
S'--'
p887
sg30
S'W49-29'
p888
sg32
S'51'
p889
sg34
g35
sg36
S'KC'
p890
sg38
S'22'
p891
sg40
g61
sg41
S'--'
p892
ssg63
(dp893
g5
S'--'
p894
sg7
S'--'
p895
sg9
g61
sg11
S'--'
p896
sg13
g61
sg14
S'Demaryius Thomas'
p897
sg16
S'2010'
p898
sg18
S'13'
p899
sg20
S'--'
p900
sg22
S'12/05'
p901
sg24
S'--'
p902
sg26
S'--'
p903
sg28
S'--'
p904
sg30
S'L6-10'
p905
sg32
S'--'
p906
sg34
S'--'
p907
sg36
S'@KC'
p908
sg38
S'--'
p909
sg40
S'--'
p910
sg41
S'--'
p911
ssg82
(dp912
g5
S'--'
p913
sg7
S'--'
p914
sg9
g61
sg11
S'--'
p915
sg13
g61
sg14
S'Demaryius Thomas'
p916
sg16
S'2010'
p917
sg18
S'12'
p918
sg20
S'--'
p919
sg22
S'11/28'
p920
sg24
S'--'
p921
sg26
S'--'
p922
sg28
S'--'
p923
sg30
S'L33-36'
p924
sg32
S'--'
p925
sg34
S'--'
p926
sg36
S'STL'
p927
sg38
S'--'
p928
sg40
S'--'
p929
sg41
S'--'
p930
ssg100
(dp931
g5
S'--'
p932
sg7
S'--'
p933
sg9
g61
sg11
S'--'
p934
sg13
g61
sg14
S'Demaryius Thomas'
p935
sg16
S'2010'
p936
sg18
S'15'
p937
sg20
S'--'
p938
sg22
S'12/19'
p939
sg24
S'--'
p940
sg26
S'--'
p941
sg28
S'--'
p942
sg30
S'L23-39'
p943
sg32
S'--'
p944
sg34
S'--'
p945
sg36
S'@OAK'
p946
sg38
S'--'
p947
sg40
S'--'
p948
sg41
S'--'
p949
ssg120
(dp950
g5
S'--'
p951
sg7
S'--'
p952
sg9
g61
sg11
S'--'
p953
sg13
g61
sg14
S'Demaryius Thomas'
p954
sg16
S'2010'
p955
sg18
S'14'
p956
sg20
S'--'
p957
sg22
S'12/12'
p958
sg24
S'--'
p959
sg26
S'--'
p960
sg28
S'--'
p961
sg30
S'L13-43'
p962
sg32
S'--'
p963
sg34
S'--'
p964
sg36
S'@ARI'
p965
sg38
S'--'
p966
sg40
S'--'
p967
sg41
S'--'
p968
ssg137
(dp969
g5
S'--'
p970
sg7
S'--'
p971
sg9
g61
sg11
S'--'
p972
sg13
g10
sg14
S'Demaryius Thomas'
p973
sg16
S'2010'
p974
sg18
S'17'
p975
sg20
S'--'
p976
sg22
S'01/02'
p977
sg24
S'--'
p978
sg26
S'--'
p979
sg28
S'--'
p980
sg30
S'L28-33'
p981
sg32
g61
sg34
g61
sg36
S'SD'
p982
sg38
S'--'
p983
sg40
g61
sg41
S'--'
p984
ssg155
(dp985
g5
S'--'
p986
sg7
S'--'
p987
sg9
g61
sg11
S'--'
p988
sg13
g61
sg14
S'Demaryius Thomas'
p989
sg16
S'2010'
p990
sg18
S'16'
p991
sg20
S'--'
p992
sg22
S'12/26'
p993
sg24
S'--'
p994
sg26
S'--'
p995
sg28
S'--'
p996
sg30
S'W24-23'
p997
sg32
S'--'
p998
sg34
S'--'
p999
sg36
S'HOU'
p1000
sg38
S'--'
p1001
sg40
S'--'
p1002
sg41
S'--'
p1003
ssg10
(dp1004
g5
S'--'
p1005
sg7
S'--'
p1006
sg9
g61
sg11
S'--'
p1007
sg13
g61
sg14
S'Demaryius Thomas'
p1008
sg16
S'2010'
p1009
sg18
g10
sg20
S'--'
p1010
sg22
S'09/12'
p1011
sg24
S'--'
p1012
sg26
S'--'
p1013
sg28
S'--'
p1014
sg30
S'L17-24'
p1015
sg32
S'--'
p1016
sg34
S'--'
p1017
sg36
S'@JAC'
p1018
sg38
S'--'
p1019
sg40
S'--'
p1020
sg41
S'--'
p1021
ssg35
(dp1022
g5
S'--'
p1023
sg7
S'--'
p1024
sg9
g61
sg11
g61
sg13
g10
sg14
S'Demaryius Thomas'
p1025
sg16
S'2010'
p1026
sg18
g35
sg20
S'--'
p1027
sg22
S'09/26'
p1028
sg24
S'21.5'
p1029
sg26
g10
sg28
S'--'
p1030
sg30
S'L13-27'
p1031
sg32
S'43'
p1032
sg34
g118
sg36
S'IND'
p1033
sg38
S'27'
p1034
sg40
g61
sg41
S'--'
p1035
ssg118
(dp1036
g5
S'--'
p1037
sg7
S'--'
p1038
sg9
g61
sg11
S'--'
p1039
sg13
g10
sg14
S'Demaryius Thomas'
p1040
sg16
S'2010'
p1041
sg18
g118
sg20
S'--'
p1042
sg22
S'09/19'
p1043
sg24
S'12.1'
p1044
sg26
S'--'
p1045
sg28
S'--'
p1046
sg30
S'W31-14'
p1047
sg32
S'97'
p1048
sg34
g217
sg36
S'SEA'
p1049
sg38
S'21T'
p1050
sg40
g10
sg41
S'--'
p1051
ssg115
(dp1052
g5
S'--'
p1053
sg7
S'--'
p1054
sg9
g10
sg11
g10
sg13
g10
sg14
S'Demaryius Thomas'
p1055
sg16
S'2010'
p1056
sg18
g115
sg20
S'--'
p1057
sg22
S'10/10'
p1058
sg24
S'6.0'
p1059
sg26
g10
sg28
S'--'
p1060
sg30
S'L17-31'
p1061
sg32
S'12'
p1062
sg34
g118
sg36
S'@BAL'
p1063
sg38
S'10'
p1064
sg40
g61
sg41
S'--'
p1065
ssg237
(dp1066
g5
S'--'
p1067
sg7
S'--'
p1068
sg9
g61
sg11
S'--'
p1069
sg13
g10
sg14
S'Demaryius Thomas'
p1070
sg16
S'2010'
p1071
sg18
g237
sg20
S'--'
p1072
sg22
S'10/03'
p1073
sg24
S'9.0'
p1074
sg26
S'--'
p1075
sg28
S'--'
p1076
sg30
S'W26-20'
p1077
sg32
g200
sg34
g10
sg36
S'@TEN'
p1078
sg38
g200
sg40
g61
sg41
S'--'
p1079
ssg58
(dp1080
g5
g61
sg7
g10
sg9
g61
sg11
g10
sg13
g10
sg14
S'Demaryius Thomas'
p1081
sg16
S'2010'
p1082
sg18
g58
sg20
S'1.0'
p1083
sg22
S'10/24'
p1084
sg24
S'6.0'
p1085
sg26
g10
sg28
g10
sg30
S'L14-59'
p1086
sg32
g78
sg34
g10
sg36
S'OAK'
p1087
sg38
g78
sg40
g61
sg41
g10
ssg78
(dp1088
g5
S'--'
p1089
sg7
S'--'
p1090
sg9
g61
sg11
S'--'
p1091
sg13
g10
sg14
S'Demaryius Thomas'
p1092
sg16
S'2010'
p1093
sg18
g78
sg20
S'--'
p1094
sg22
S'10/17'
p1095
sg24
S'17.0'
p1096
sg26
S'--'
p1097
sg28
S'--'
p1098
sg30
S'L20-24'
p1099
sg32
S'17'
p1100
sg34
g10
sg36
S'NYJ'
p1101
sg38
S'17T'
p1102
sg40
g10
sg41
S'--'
p1103
ssg200
(dp1104
g5
g255
sg7
g255
sg9
g255
sg11
g255
sg13
g255
sg14
S'Demaryius Thomas'
p1105
sg16
S'2010'
p1106
sg18
g200
sg20
g255
sg22
S'Bye'
p1107
sg24
g255
sg26
g255
sg28
g255
sg30
g255
sg32
g255
sg34
g255
sg36
g255
sg38
g255
sg40
g255
sg41
g255
ssg217
(dp1108
g5
g61
sg7
g61
sg9
g61
sg11
S'--'
p1109
sg13
g10
sg14
S'Demaryius Thomas'
p1110
sg16
S'2010'
p1111
sg18
g217
sg20
S'0.0'
p1112
sg22
S'10/31'
p1113
sg24
S'31.0'
p1114
sg26
S'--'
p1115
sg28
g10
sg30
S'L16-24'
p1116
sg32
S'31'
p1117
sg34
g10
sg36
S'@SF'
p1118
sg38
S'31'
p1119
sg40
g61
sg41
g61
sssS'2013'
p1120
(dp1121
g3
(dp1122
g5
S'--'
p1123
sg7
S'--'
p1124
sg9
g10
sg11
S'--'
p1125
sg13
g10
sg14
S'Demaryius Thomas'
p1126
sg16
S'2013'
p1127
sg18
S'11'
p1128
sg20
S'--'
p1129
sg22
S'11/17'
p1130
sg24
S'24.2'
p1131
sg26
S'--'
p1132
sg28
S'--'
p1133
sg30
S'W27-17'
p1134
sg32
S'121'
p1135
sg34
g115
sg36
S'KC'
p1136
sg38
S'70'
p1137
sg40
g61
sg41
S'--'
p1138
ssg43
(dp1139
g5
S'--'
p1140
sg7
S'--'
p1141
sg9
g10
sg11
S'--'
p1142
sg13
g10
sg14
S'Demaryius Thomas'
p1143
sg16
S'2013'
p1144
sg18
S'10'
p1145
sg20
S'--'
p1146
sg22
S'11/10'
p1147
sg24
S'15.4'
p1148
sg26
S'--'
p1149
sg28
S'--'
p1150
sg30
S'W28-20'
p1151
sg32
S'108'
p1152
sg34
g58
sg36
S'@SD'
p1153
sg38
S'34T'
p1154
sg40
g35
sg41
S'--'
p1155
ssg63
(dp1156
g5
S'--'
p1157
sg7
S'--'
p1158
sg9
g10
sg11
S'--'
p1159
sg13
g10
sg14
S'Demaryius Thomas'
p1160
sg16
S'2013'
p1161
sg18
S'13'
p1162
sg20
S'--'
p1163
sg22
S'12/01'
p1164
sg24
S'35.3'
p1165
sg26
S'--'
p1166
sg28
S'--'
p1167
sg30
S'W35-28'
p1168
sg32
S'106'
p1169
sg34
g35
sg36
S'@KC'
p1170
sg38
S'77'
p1171
sg40
g61
sg41
S'--'
p1172
ssg82
(dp1173
g5
S'--'
p1174
sg7
S'--'
p1175
sg9
g10
sg11
S'--'
p1176
sg13
g10
sg14
S'Demaryius Thomas'
p1177
sg16
S'2013'
p1178
sg18
S'12'
p1179
sg20
S'--'
p1180
sg22
S'11/24'
p1181
sg24
S'10.3'
p1182
sg26
S'--'
p1183
sg28
S'--'
p1184
sg30
S'L31-34'
p1185
sg32
S'41'
p1186
sg34
g237
sg36
S'@NE'
p1187
sg38
S'15'
p1188
sg40
g10
sg41
S'--'
p1189
ssg100
(dp1190
g5
S'--'
p1191
sg7
S'--'
p1192
sg9
g10
sg11
S'--'
p1193
sg13
g10
sg14
S'Demaryius Thomas'
p1194
sg16
S'2013'
p1195
sg18
S'15'
p1196
sg20
S'--'
p1197
sg22
S'12/12'
p1198
sg24
S'11.3'
p1199
sg26
S'--'
p1200
sg28
S'--'
p1201
sg30
S'L20-27'
p1202
sg32
S'45'
p1203
sg34
g237
sg36
S'SD'
p1204
sg38
S'21'
p1205
sg40
g61
sg41
S'--'
p1206
ssg120
(dp1207
g5
S'--'
p1208
sg7
S'--'
p1209
sg9
g10
sg11
S'--'
p1210
sg13
g10
sg14
S'Demaryius Thomas'
p1211
sg16
S'2013'
p1212
sg18
S'14'
p1213
sg20
S'--'
p1214
sg22
S'12/08'
p1215
sg24
S'12.6'
p1216
sg26
S'--'
p1217
sg28
S'--'
p1218
sg30
S'W51-28'
p1219
sg32
S'88'
p1220
sg34
g58
sg36
S'TEN'
p1221
sg38
S'38'
p1222
sg40
g10
sg41
S'--'
p1223
ssg137
(dp1224
g5
S'--'
p1225
sg7
S'--'
p1226
sg9
g10
sg11
S'--'
p1227
sg13
g10
sg14
S'Demaryius Thomas'
p1228
sg16
S'2013'
p1229
sg18
S'17'
p1230
sg20
S'--'
p1231
sg22
S'12/29'
p1232
sg24
S'18.8'
p1233
sg26
S'--'
p1234
sg28
S'--'
p1235
sg30
S'W34-14'
p1236
sg32
S'113'
p1237
sg34
g78
sg36
S'@OAK'
p1238
sg38
S'63T'
p1239
sg40
g118
sg41
S'--'
p1240
ssg155
(dp1241
g5
S'--'
p1242
sg7
S'--'
p1243
sg9
g10
sg11
S'--'
p1244
sg13
g10
sg14
S'Demaryius Thomas'
p1245
sg16
S'2013'
p1246
sg18
S'16'
p1247
sg20
S'--'
p1248
sg22
S'12/22'
p1249
sg24
S'15.4'
p1250
sg26
S'--'
p1251
sg28
S'--'
p1252
sg30
S'W37-13'
p1253
sg32
S'123'
p1254
sg34
g217
sg36
S'@HOU'
p1255
sg38
S'36T'
p1256
sg40
g10
sg41
S'--'
p1257
ssg10
(dp1258
g5
S'--'
p1259
sg7
S'--'
p1260
sg9
g10
sg11
S'--'
p1261
sg13
g10
sg14
S'Demaryius Thomas'
p1262
sg16
S'2013'
p1263
sg18
g10
sg20
S'--'
p1264
sg22
S'09/05'
p1265
sg24
S'32.2'
p1266
sg26
S'--'
p1267
sg28
S'--'
p1268
sg30
S'W49-27'
p1269
sg32
S'161'
p1270
sg34
g115
sg36
S'BAL'
p1271
sg38
S'78T'
p1272
sg40
g118
sg41
S'--'
p1273
ssg35
(dp1274
g5
S'--'
p1275
sg7
S'--'
p1276
sg9
g10
sg11
S'--'
p1277
sg13
g10
sg14
S'Demaryius Thomas'
p1278
sg16
S'2013'
p1279
sg18
g35
sg20
S'--'
p1280
sg22
S'09/23'
p1281
sg24
S'9.4'
p1282
sg26
S'--'
p1283
sg28
S'--'
p1284
sg30
S'W37-21'
p1285
sg32
S'94'
p1286
sg34
S'10'
p1287
sg36
S'OAK'
p1288
sg38
S'22'
p1289
sg40
g61
sg41
S'--'
p1290
ssg118
(dp1291
g5
S'--'
p1292
sg7
S'--'
p1293
sg9
g10
sg11
g61
sg13
g10
sg14
S'Demaryius Thomas'
p1294
sg16
S'2013'
p1295
sg18
g118
sg20
S'--'
p1296
sg22
S'09/15'
p1297
sg24
S'10.4'
p1298
sg26
g10
sg28
S'--'
p1299
sg30
S'W41-23'
p1300
sg32
S'52'
p1301
sg34
g115
sg36
S'@NYG'
p1302
sg38
S'18'
p1303
sg40
g61
sg41
S'--'
p1304
ssg115
(dp1305
g5
S'--'
p1306
sg7
S'--'
p1307
sg9
g10
sg11
S'--'
p1308
sg13
g10
sg14
S'Demaryius Thomas'
p1309
sg16
S'2013'
p1310
sg18
g115
sg20
S'--'
p1311
sg22
S'10/06'
p1312
sg24
S'11.4'
p1313
sg26
S'--'
p1314
sg28
S'--'
p1315
sg30
S'W51-48'
p1316
sg32
S'57'
p1317
sg34
g115
sg36
S'@DAL'
p1318
sg38
S'26'
p1319
sg40
g61
sg41
S'--'
p1320
ssg237
(dp1321
g5
S'--'
p1322
sg7
S'--'
p1323
sg9
g10
sg11
S'--'
p1324
sg13
g10
sg14
S'Demaryius Thomas'
p1325
sg16
S'2013'
p1326
sg18
g237
sg20
S'--'
p1327
sg22
S'09/29'
p1328
sg24
S'9.6'
p1329
sg26
S'--'
p1330
sg28
S'--'
p1331
sg30
S'W52-20'
p1332
sg32
S'86'
p1333
sg34
g200
sg36
S'PHI'
p1334
sg38
S'15T'
p1335
sg40
g118
sg41
S'--'
p1336
ssg58
(dp1337
g5
S'--'
p1338
sg7
S'--'
p1339
sg9
g10
sg11
S'--'
p1340
sg13
g10
sg14
S'Demaryius Thomas'
p1341
sg16
S'2013'
p1342
sg18
g58
sg20
S'--'
p1343
sg22
S'10/20'
p1344
sg24
S'20.5'
p1345
sg26
S'--'
p1346
sg28
S'--'
p1347
sg30
S'L33-39'
p1348
sg32
S'82'
p1349
sg34
g237
sg36
S'@IND'
p1350
sg38
S'31T'
p1351
sg40
g10
sg41
S'--'
p1352
ssg78
(dp1353
g5
S'--'
p1354
sg7
S'--'
p1355
sg9
g10
sg11
S'--'
p1356
sg13
g10
sg14
S'Demaryius Thomas'
p1357
sg16
S'2013'
p1358
sg18
g78
sg20
S'--'
p1359
sg22
S'10/13'
p1360
sg24
S'26.0'
p1361
sg26
S'--'
p1362
sg28
S'--'
p1363
sg30
S'W35-19'
p1364
sg32
S'78'
p1365
sg34
g35
sg36
S'JAC'
p1366
sg38
S'42'
p1367
sg40
g61
sg41
S'--'
p1368
ssg200
(dp1369
g5
g255
sg7
g255
sg9
g255
sg11
g255
sg13
g255
sg14
S'Demaryius Thomas'
p1370
sg16
S'2013'
p1371
sg18
g200
sg20
g255
sg22
S'Bye'
p1372
sg24
g255
sg26
g255
sg28
g255
sg30
g255
sg32
g255
sg34
g255
sg36
g255
sg38
g255
sg40
g255
sg41
g255
ssg217
(dp1373
g5
S'--'
p1374
sg7
S'--'
p1375
sg9
g10
sg11
S'--'
p1376
sg13
g10
sg14
S'Demaryius Thomas'
p1377
sg16
S'2013'
p1378
sg18
g217
sg20
S'--'
p1379
sg22
S'10/27'
p1380
sg24
S'10.7'
p1381
sg26
S'--'
p1382
sg28
S'--'
p1383
sg30
S'W45-21'
p1384
sg32
S'75'
p1385
sg34
g58
sg36
S'WAS'
p1386
sg38
S'35T'
p1387
sg40
g10
sg41
S'--'
p1388
sssS'2012'
p1389
(dp1390
g3
(dp1391
g5
S'--'
p1392
sg7
S'--'
p1393
sg9
g10
sg11
S'--'
p1394
sg13
g10
sg14
S'Demaryius Thomas'
p1395
sg16
S'2012'
p1396
sg18
S'11'
p1397
sg20
S'--'
p1398
sg22
S'11/18'
p1399
sg24
S'14.0'
p1400
sg26
S'--'
p1401
sg28
S'--'
p1402
sg30
S'W30-23'
p1403
sg32
S'42'
p1404
sg34
g35
sg36
S'SD'
p1405
sg38
S'17'
p1406
sg40
g10
sg41
S'--'
p1407
ssg43
(dp1408
g5
S'--'
p1409
sg7
S'--'
p1410
sg9
g10
sg11
S'--'
p1411
sg13
g10
sg14
S'Demaryius Thomas'
p1412
sg16
S'2012'
p1413
sg18
S'10'
p1414
sg20
S'--'
p1415
sg22
S'11/11'
p1416
sg24
S'15.0'
p1417
sg26
S'--'
p1418
sg28
S'--'
p1419
sg30
S'W36-14'
p1420
sg32
S'135'
p1421
sg34
g200
sg36
S'@CAR'
p1422
sg38
S'46'
p1423
sg40
g61
sg41
S'--'
p1424
ssg63
(dp1425
g5
S'--'
p1426
sg7
S'--'
p1427
sg9
g10
sg11
S'--'
p1428
sg13
g10
sg14
S'Demaryius Thomas'
p1429
sg16
S'2012'
p1430
sg18
S'13'
p1431
sg20
S'--'
p1432
sg22
S'12/02'
p1433
sg24
S'12.4'
p1434
sg26
S'--'
p1435
sg28
S'--'
p1436
sg30
S'W31-23'
p1437
sg32
S'99'
p1438
sg34
g217
sg36
S'TB'
p1439
sg38
S'28'
p1440
sg40
g118
sg41
S'--'
p1441
ssg82
(dp1442
g5
S'--'
p1443
sg7
S'--'
p1444
sg9
g10
sg11
S'--'
p1445
sg13
g10
sg14
S'Demaryius Thomas'
p1446
sg16
S'2012'
p1447
sg18
S'12'
p1448
sg20
S'--'
p1449
sg22
S'11/25'
p1450
sg24
S'20.5'
p1451
sg26
S'--'
p1452
sg28
S'--'
p1453
sg30
S'W17-9'
p1454
sg32
S'82'
p1455
sg34
g237
sg36
S'@KC'
p1456
sg38
S'30T'
p1457
sg40
g10
sg41
S'--'
p1458
ssg100
(dp1459
g5
S'--'
p1460
sg7
S'--'
p1461
sg9
g10
sg11
S'--'
p1462
sg13
g10
sg14
S'Demaryius Thomas'
p1463
sg16
S'2012'
p1464
sg18
S'15'
p1465
sg20
S'--'
p1466
sg22
S'12/16'
p1467
sg24
S'3.3'
p1468
sg26
S'--'
p1469
sg28
S'--'
p1470
sg30
S'W34-17'
p1471
sg32
S'13'
p1472
sg34
g237
sg36
S'@BAL'
p1473
sg38
g115
sg40
g61
sg41
S'--'
p1474
ssg120
(dp1475
g5
S'--'
p1476
sg7
S'--'
p1477
sg9
g10
sg11
S'--'
p1478
sg13
g10
sg14
S'Demaryius Thomas'
p1479
sg16
S'2012'
p1480
sg18
S'14'
p1481
sg20
S'--'
p1482
sg22
S'12/06'
p1483
sg24
S'16.6'
p1484
sg26
S'--'
p1485
sg28
S'--'
p1486
sg30
S'W26-13'
p1487
sg32
S'83'
p1488
sg34
g115
sg36
S'@OAK'
p1489
sg38
S'22'
p1490
sg40
g61
sg41
S'--'
p1491
ssg137
(dp1492
g5
S'--'
p1493
sg7
S'--'
p1494
sg9
g10
sg11
S'--'
p1495
sg13
g10
sg14
S'Demaryius Thomas'
p1496
sg16
S'2012'
p1497
sg18
S'17'
p1498
sg20
S'--'
p1499
sg22
S'12/30'
p1500
sg24
S'17.4'
p1501
sg26
S'--'
p1502
sg28
S'--'
p1503
sg30
S'W38-3'
p1504
sg32
S'122'
p1505
sg34
g58
sg36
S'KC'
p1506
sg38
S'36'
p1507
sg40
g10
sg41
S'--'
p1508
ssg155
(dp1509
g5
S'--'
p1510
sg7
S'--'
p1511
sg9
g10
sg11
S'--'
p1512
sg13
g10
sg14
S'Demaryius Thomas'
p1513
sg16
S'2012'
p1514
sg18
S'16'
p1515
sg20
S'--'
p1516
sg22
S'12/23'
p1517
sg24
S'11.3'
p1518
sg26
S'--'
p1519
sg28
S'--'
p1520
sg30
S'W34-12'
p1521
sg32
S'102'
p1522
sg34
g200
sg36
S'CLE'
p1523
sg38
S'23'
p1524
sg40
g10
sg41
S'--'
p1525
ssg10
(dp1526
g5
S'--'
p1527
sg7
S'--'
p1528
sg9
g10
sg11
S'--'
p1529
sg13
g10
sg14
S'Demaryius Thomas'
p1530
sg16
S'2012'
p1531
sg18
g10
sg20
S'--'
p1532
sg22
S'09/09'
p1533
sg24
S'22.0'
p1534
sg26
S'--'
p1535
sg28
S'--'
p1536
sg30
S'W31-19'
p1537
sg32
S'110'
p1538
sg34
g115
sg36
S'PIT'
p1539
sg38
S'71T'
p1540
sg40
g10
sg41
S'--'
p1541
ssg35
(dp1542
g5
S'--'
p1543
sg7
S'--'
p1544
sg9
g10
sg11
g10
sg13
g10
sg14
S'Demaryius Thomas'
p1545
sg16
S'2012'
p1546
sg18
g35
sg20
S'--'
p1547
sg22
S'09/23'
p1548
sg24
S'11.3'
p1549
sg26
g10
sg28
S'--'
p1550
sg30
S'L25-31'
p1551
sg32
S'34'
p1552
sg34
g35
sg36
S'HOU'
p1553
sg38
S'23'
p1554
sg40
g61
sg41
S'--'
p1555
ssg118
(dp1556
g5
S'--'
p1557
sg7
S'--'
p1558
sg9
g10
sg11
S'--'
p1559
sg13
g10
sg14
S'Demaryius Thomas'
p1560
sg16
S'2012'
p1561
sg18
g118
sg20
S'--'
p1562
sg22
S'09/17'
p1563
sg24
S'9.8'
p1564
sg26
S'--'
p1565
sg28
S'--'
p1566
sg30
S'L21-27'
p1567
sg32
S'78'
p1568
sg34
g217
sg36
S'@ATL'
p1569
sg38
S'17T'
p1570
sg40
g10
sg41
S'--'
p1571
ssg115
(dp1572
g5
S'--'
p1573
sg7
S'--'
p1574
sg9
g10
sg11
g10
sg13
g10
sg14
S'Demaryius Thomas'
p1575
sg16
S'2012'
p1576
sg18
g115
sg20
S'--'
p1577
sg22
S'10/07'
p1578
sg24
S'20.0'
p1579
sg26
g10
sg28
S'--'
p1580
sg30
S'L21-31'
p1581
sg32
S'180'
p1582
sg34
g200
sg36
S'@NE'
p1583
sg38
S'38'
p1584
sg40
g61
sg41
S'--'
p1585
ssg237
(dp1586
g5
S'--'
p1587
sg7
S'--'
p1588
sg9
g10
sg11
g10
sg13
g10
sg14
S'Demaryius Thomas'
p1589
sg16
S'2012'
p1590
sg18
g237
sg20
S'--'
p1591
sg22
S'09/30'
p1592
sg24
S'20.6'
p1593
sg26
g10
sg28
S'--'
p1594
sg30
S'W37-6'
p1595
sg32
S'103'
p1596
sg34
g115
sg36
S'OAK'
p1597
sg38
S'40'
p1598
sg40
g61
sg41
S'--'
p1599
ssg58
(dp1600
g5
g255
sg7
g255
sg9
g255
sg11
g255
sg13
g255
sg14
S'Demaryius Thomas'
p1601
sg16
S'2012'
p1602
sg18
g58
sg20
g255
sg22
S'Bye'
p1603
sg24
g255
sg26
g255
sg28
g255
sg30
g255
sg32
g255
sg34
g255
sg36
g255
sg38
g255
sg40
g255
sg41
g255
ssg78
(dp1604
g5
S'--'
p1605
sg7
S'--'
p1606
sg9
g10
sg11
S'--'
p1607
sg13
g10
sg14
S'Demaryius Thomas'
p1608
sg16
S'2012'
p1609
sg18
g78
sg20
S'--'
p1610
sg22
S'10/15'
p1611
sg24
S'18.5'
p1612
sg26
S'--'
p1613
sg28
S'--'
p1614
sg30
S'W35-24'
p1615
sg32
S'37'
p1616
sg34
g118
sg36
S'@SD'
p1617
sg38
S'29T'
p1618
sg40
g10
sg41
S'--'
p1619
ssg200
(dp1620
g5
S'--'
p1621
sg7
S'--'
p1622
sg9
g10
sg11
S'--'
p1623
sg13
g10
sg14
S'Demaryius Thomas'
p1624
sg16
S'2012'
p1625
sg18
g200
sg20
S'--'
p1626
sg22
S'11/04'
p1627
sg24
S'12.8'
p1628
sg26
S'--'
p1629
sg28
S'--'
p1630
sg30
S'W31-23'
p1631
sg32
S'77'
p1632
sg34
g78
sg36
S'@CIN'
p1633
sg38
S'45'
p1634
sg40
g61
sg41
S'--'
p1635
ssg217
(dp1636
g5
S'--'
p1637
sg7
S'--'
p1638
sg9
g10
sg11
S'--'
p1639
sg13
g10
sg14
S'Demaryius Thomas'
p1640
sg16
S'2012'
p1641
sg18
g217
sg20
S'--'
p1642
sg22
S'10/28'
p1643
sg24
S'19.6'
p1644
sg26
S'--'
p1645
sg28
S'--'
p1646
sg30
S'W34-14'
p1647
sg32
S'137'
p1648
sg34
g58
sg36
S'NO'
p1649
sg38
S'41'
p1650
sg40
g10
sg41
S'--'
p1651
sss.