(dp0
S'2015'
p1
(dp2
S'11'
p3
(dp4
S'RushTD'
p5
S'--'
p6
sS'RushYds'
p7
S'--'
p8
sS'GS'
p9
S'0'
p10
sS'Lost'
p11
S'--'
p12
sS'G'
p13
S'1'
p14
sS'Player'
p15
S'Deonte Thompson'
p16
sS'Year'
p17
S'2015'
p18
sS'WK'
p19
S'11'
p20
sS'RushAvg'
p21
S'--'
p22
sS'Game Date'
p23
S'11/22'
p24
sS'RecAvg'
p25
S'--'
p26
sS'FUM'
p27
S'--'
p28
sS'RushAtt'
p29
S'--'
p30
sS'Result'
p31
S'L15-17'
p32
sS'RecYds'
p33
S'--'
p34
sS'Rec'
p35
S'--'
p36
sS'Opp'
p37
S'DEN'
p38
sS'RecLng'
p39
S'--'
p40
sS'RecTD'
p41
S'--'
p42
sS'RushLng'
p43
S'--'
p44
ssS'10'
p45
(dp46
g5
S'--'
p47
sg7
S'--'
p48
sg9
g10
sg11
S'--'
p49
sg13
g10
sg15
S'Deonte Thompson'
p50
sg17
S'2015'
p51
sg19
S'10'
p52
sg21
S'--'
p53
sg23
S'11/15'
p54
sg25
S'--'
p55
sg27
S'--'
p56
sg29
S'--'
p57
sg31
S'W37-13'
p58
sg33
S'--'
p59
sg35
S'--'
p60
sg37
S'@STL'
p61
sg39
S'--'
p62
sg41
S'--'
p63
sg43
S'--'
p64
ssS'13'
p65
(dp66
g5
S'--'
p67
sg7
S'--'
p68
sg9
g10
sg11
S'--'
p69
sg13
g14
sg15
S'Deonte Thompson'
p70
sg17
S'2015'
p71
sg19
S'13'
p72
sg21
S'--'
p73
sg23
S'12/06'
p74
sg25
S'--'
p75
sg27
S'--'
p76
sg29
S'--'
p77
sg31
S'L20-26'
p78
sg33
S'--'
p79
sg35
S'--'
p80
sg37
S'SF'
p81
sg39
S'--'
p82
sg41
S'--'
p83
sg43
S'--'
p84
ssS'12'
p85
(dp86
g5
S'--'
p87
sg7
S'--'
p88
sg9
g10
sg11
S'--'
p89
sg13
g14
sg15
S'Deonte Thompson'
p90
sg17
S'2015'
p91
sg19
S'12'
p92
sg21
S'--'
p93
sg23
S'11/26'
p94
sg25
S'--'
p95
sg27
S'--'
p96
sg29
S'--'
p97
sg31
S'W17-13'
p98
sg33
S'--'
p99
sg35
S'--'
p100
sg37
S'@GB'
p101
sg39
S'--'
p102
sg41
S'--'
p103
sg43
S'--'
p104
ssS'15'
p105
(dp106
g5
S'--'
p107
sg7
S'--'
p108
sg9
g10
sg11
S'--'
p109
sg13
g14
sg15
S'Deonte Thompson'
p110
sg17
S'2015'
p111
sg19
S'15'
p112
sg21
S'--'
p113
sg23
S'12/20'
p114
sg25
S'--'
p115
sg27
S'--'
p116
sg29
S'--'
p117
sg31
S'L17-38'
p118
sg33
S'--'
p119
sg35
S'--'
p120
sg37
S'@MIN'
p121
sg39
S'--'
p122
sg41
S'--'
p123
sg43
S'--'
p124
ssS'14'
p125
(dp126
g5
S'--'
p127
sg7
S'--'
p128
sg9
g10
sg11
S'--'
p129
sg13
g14
sg15
S'Deonte Thompson'
p130
sg17
S'2015'
p131
sg19
S'14'
p132
sg21
S'--'
p133
sg23
S'12/13'
p134
sg25
S'36.0'
p135
sg27
S'--'
p136
sg29
S'--'
p137
sg31
S'L21-24'
p138
sg33
S'36'
p139
sg35
g14
sg37
S'WAS'
p140
sg39
S'36'
p141
sg41
g10
sg43
S'--'
p142
ssS'17'
p143
(dp144
g5
S'--'
p145
sg7
S'--'
p146
sg9
g10
sg11
S'--'
p147
sg13
g14
sg15
S'Deonte Thompson'
p148
sg17
S'2015'
p149
sg19
S'17'
p150
sg21
S'--'
p151
sg23
S'01/03'
p152
sg25
S'45.0'
p153
sg27
S'--'
p154
sg29
S'--'
p155
sg31
S'L20-24'
p156
sg33
S'45'
p157
sg35
g14
sg37
S'DET'
p158
sg39
S'45'
p159
sg41
g10
sg43
S'--'
p160
ssS'16'
p161
(dp162
g5
S'--'
p163
sg7
S'--'
p164
sg9
g10
sg11
S'--'
p165
sg13
g14
sg15
S'Deonte Thompson'
p166
sg17
S'2015'
p167
sg19
S'16'
p168
sg21
S'--'
p169
sg23
S'12/27'
p170
sg25
S'--'
p171
sg27
S'--'
p172
sg29
S'--'
p173
sg31
S'W26-21'
p174
sg33
S'--'
p175
sg35
S'--'
p176
sg37
S'@TB'
p177
sg39
S'--'
p178
sg41
S'--'
p179
sg43
S'--'
p180
sssS'2014'
p181
(dp182
g105
(dp183
g5
S'--'
p184
sg7
S'--'
p185
sg9
g10
sg11
S'--'
p186
sg13
g10
sg15
S'Deonte Thompson'
p187
sg17
S'2014'
p188
sg19
S'15'
p189
sg21
S'--'
p190
sg23
S'12/14'
p191
sg25
S'--'
p192
sg27
S'--'
p193
sg29
S'--'
p194
sg31
S'W21-13'
p195
sg33
S'--'
p196
sg35
S'--'
p197
sg37
S'GB'
p198
sg39
S'--'
p199
sg41
S'--'
p200
sg43
S'--'
p201
ssg143
(dp202
g5
S'--'
p203
sg7
S'--'
p204
sg9
g10
sg11
S'--'
p205
sg13
g14
sg15
S'Deonte Thompson'
p206
sg17
S'2014'
p207
sg19
S'17'
p208
sg21
S'--'
p209
sg23
S'12/28'
p210
sg25
S'--'
p211
sg27
S'--'
p212
sg29
S'--'
p213
sg31
S'W17-9'
p214
sg33
S'--'
p215
sg35
S'--'
p216
sg37
S'@NE'
p217
sg39
S'--'
p218
sg41
S'--'
p219
sg43
S'--'
p220
ssg161
(dp221
g5
S'--'
p222
sg7
S'--'
p223
sg9
g10
sg11
S'--'
p224
sg13
g10
sg15
S'Deonte Thompson'
p225
sg17
S'2014'
p226
sg19
S'16'
p227
sg21
S'--'
p228
sg23
S'12/21'
p229
sg25
S'--'
p230
sg27
S'--'
p231
sg29
S'--'
p232
sg31
S'L24-26'
p233
sg33
S'--'
p234
sg35
S'--'
p235
sg37
S'@OAK'
p236
sg39
S'--'
p237
sg41
S'--'
p238
sg43
S'--'
p239
ssg14
(dp240
g5
S'--'
p241
sg7
S'--'
p242
sg9
g10
sg11
S'--'
p243
sg13
g10
sg15
S'Deonte Thompson'
p244
sg17
S'2014'
p245
sg19
g14
sg21
S'--'
p246
sg23
S'09/07'
p247
sg25
S'--'
p248
sg27
S'--'
p249
sg29
S'--'
p250
sg31
S'L16-23'
p251
sg33
S'--'
p252
sg35
S'--'
p253
sg37
S'CIN'
p254
sg39
S'--'
p255
sg41
S'--'
p256
sg43
S'--'
p257
ssS'2'
p258
(dp259
g5
S'--'
p260
sg7
S'--'
p261
sg9
g10
sg11
S'--'
p262
sg13
g10
sg15
S'Deonte Thompson'
p263
sg17
S'2014'
p264
sg19
g258
sg21
S'--'
p265
sg23
S'09/11'
p266
sg25
S'--'
p267
sg27
S'--'
p268
sg29
S'--'
p269
sg31
S'W26-6'
p270
sg33
S'--'
p271
sg35
S'--'
p272
sg37
S'PIT'
p273
sg39
S'--'
p274
sg41
S'--'
p275
sg43
S'--'
p276
sssS'2013'
p277
(dp278
g3
(dp279
g5
S'--'
p280
sg7
S'--'
p281
sg9
g10
sg11
S'--'
p282
sg13
g14
sg15
S'Deonte Thompson'
p283
sg17
S'2013'
p284
sg19
S'11'
p285
sg21
S'--'
p286
sg23
S'11/17'
p287
sg25
S'11.0'
p288
sg27
S'--'
p289
sg29
S'--'
p290
sg31
S'L20-23'
p291
sg33
S'11'
p292
sg35
g14
sg37
S'@CHI'
p293
sg39
S'11'
p294
sg41
g10
sg43
S'--'
p295
ssg45
(dp296
g5
S'--'
p297
sg7
S'--'
p298
sg9
g10
sg11
S'--'
p299
sg13
g14
sg15
S'Deonte Thompson'
p300
sg17
S'2013'
p301
sg19
S'10'
p302
sg21
S'--'
p303
sg23
S'11/10'
p304
sg25
S'--'
p305
sg27
S'--'
p306
sg29
S'--'
p307
sg31
S'W20-17'
p308
sg33
g10
sg35
g10
sg37
S'CIN'
p309
sg39
S'--'
p310
sg41
g10
sg43
S'--'
p311
ssg65
(dp312
g5
S'--'
p313
sg7
S'--'
p314
sg9
g10
sg11
S'--'
p315
sg13
g10
sg15
S'Deonte Thompson'
p316
sg17
S'2013'
p317
sg19
S'13'
p318
sg21
S'--'
p319
sg23
S'11/28'
p320
sg25
S'--'
p321
sg27
S'--'
p322
sg29
S'--'
p323
sg31
S'W22-20'
p324
sg33
S'--'
p325
sg35
S'--'
p326
sg37
S'PIT'
p327
sg39
S'--'
p328
sg41
S'--'
p329
sg43
S'--'
p330
ssg85
(dp331
g5
S'--'
p332
sg7
S'--'
p333
sg9
g10
sg11
S'--'
p334
sg13
g10
sg15
S'Deonte Thompson'
p335
sg17
S'2013'
p336
sg19
S'12'
p337
sg21
S'--'
p338
sg23
S'11/24'
p339
sg25
S'--'
p340
sg27
S'--'
p341
sg29
S'--'
p342
sg31
S'W19-3'
p343
sg33
S'--'
p344
sg35
S'--'
p345
sg37
S'NYJ'
p346
sg39
S'--'
p347
sg41
S'--'
p348
sg43
S'--'
p349
ssg105
(dp350
g5
S'--'
p351
sg7
S'--'
p352
sg9
g10
sg11
S'--'
p353
sg13
g10
sg15
S'Deonte Thompson'
p354
sg17
S'2013'
p355
sg19
S'15'
p356
sg21
S'--'
p357
sg23
S'12/16'
p358
sg25
S'--'
p359
sg27
S'--'
p360
sg29
S'--'
p361
sg31
S'W18-16'
p362
sg33
S'--'
p363
sg35
S'--'
p364
sg37
S'@DET'
p365
sg39
S'--'
p366
sg41
S'--'
p367
sg43
S'--'
p368
ssg125
(dp369
g5
S'--'
p370
sg7
S'--'
p371
sg9
g10
sg11
S'--'
p372
sg13
g10
sg15
S'Deonte Thompson'
p373
sg17
S'2013'
p374
sg19
S'14'
p375
sg21
S'--'
p376
sg23
S'12/08'
p377
sg25
S'--'
p378
sg27
S'--'
p379
sg29
S'--'
p380
sg31
S'W29-26'
p381
sg33
S'--'
p382
sg35
S'--'
p383
sg37
S'MIN'
p384
sg39
S'--'
p385
sg41
S'--'
p386
sg43
S'--'
p387
ssg143
(dp388
g5
S'--'
p389
sg7
S'--'
p390
sg9
g10
sg11
S'--'
p391
sg13
g10
sg15
S'Deonte Thompson'
p392
sg17
S'2013'
p393
sg19
S'17'
p394
sg21
S'--'
p395
sg23
S'12/29'
p396
sg25
S'--'
p397
sg27
S'--'
p398
sg29
S'--'
p399
sg31
S'L17-34'
p400
sg33
S'--'
p401
sg35
S'--'
p402
sg37
S'@CIN'
p403
sg39
S'--'
p404
sg41
S'--'
p405
sg43
S'--'
p406
ssg161
(dp407
g5
S'--'
p408
sg7
S'--'
p409
sg9
g10
sg11
S'--'
p410
sg13
g10
sg15
S'Deonte Thompson'
p411
sg17
S'2013'
p412
sg19
S'16'
p413
sg21
S'--'
p414
sg23
S'12/22'
p415
sg25
S'--'
p416
sg27
S'--'
p417
sg29
S'--'
p418
sg31
S'L7-41'
p419
sg33
S'--'
p420
sg35
S'--'
p421
sg37
S'NE'
p422
sg39
S'--'
p423
sg41
S'--'
p424
sg43
S'--'
p425
ssg14
(dp426
g5
S'--'
p427
sg7
S'--'
p428
sg9
g10
sg11
S'--'
p429
sg13
g10
sg15
S'Deonte Thompson'
p430
sg17
S'2013'
p431
sg19
g14
sg21
S'--'
p432
sg23
S'09/05'
p433
sg25
S'--'
p434
sg27
S'--'
p435
sg29
S'--'
p436
sg31
S'L27-49'
p437
sg33
S'--'
p438
sg35
S'--'
p439
sg37
S'@DEN'
p440
sg39
S'--'
p441
sg41
S'--'
p442
sg43
S'--'
p443
ssS'3'
p444
(dp445
g5
S'--'
p446
sg7
S'--'
p447
sg9
g10
sg11
S'--'
p448
sg13
g10
sg15
S'Deonte Thompson'
p449
sg17
S'2013'
p450
sg19
g444
sg21
S'--'
p451
sg23
S'09/22'
p452
sg25
S'--'
p453
sg27
S'--'
p454
sg29
S'--'
p455
sg31
S'W30-9'
p456
sg33
S'--'
p457
sg35
S'--'
p458
sg37
S'HOU'
p459
sg39
S'--'
p460
sg41
S'--'
p461
sg43
S'--'
p462
ssg258
(dp463
g5
S'--'
p464
sg7
S'--'
p465
sg9
g10
sg11
S'--'
p466
sg13
g10
sg15
S'Deonte Thompson'
p467
sg17
S'2013'
p468
sg19
g258
sg21
S'--'
p469
sg23
S'09/15'
p470
sg25
S'--'
p471
sg27
S'--'
p472
sg29
S'--'
p473
sg31
S'W14-6'
p474
sg33
S'--'
p475
sg35
S'--'
p476
sg37
S'CLE'
p477
sg39
S'--'
p478
sg41
S'--'
p479
sg43
S'--'
p480
ssS'5'
p481
(dp482
g5
S'--'
p483
sg7
S'--'
p484
sg9
g10
sg11
S'--'
p485
sg13
g14
sg15
S'Deonte Thompson'
p486
sg17
S'2013'
p487
sg19
g481
sg21
S'--'
p488
sg23
S'10/06'
p489
sg25
S'5.5'
p490
sg27
S'--'
p491
sg29
S'--'
p492
sg31
S'W26-23'
p493
sg33
S'11'
p494
sg35
g258
sg37
S'@MIA'
p495
sg39
S'6'
p496
sg41
g10
sg43
S'--'
p497
ssS'4'
p498
(dp499
g5
S'--'
p500
sg7
S'--'
p501
sg9
g10
sg11
S'--'
p502
sg13
g14
sg15
S'Deonte Thompson'
p503
sg17
S'2013'
p504
sg19
g498
sg21
S'--'
p505
sg23
S'09/29'
p506
sg25
S'12.5'
p507
sg27
S'--'
p508
sg29
S'--'
p509
sg31
S'L20-23'
p510
sg33
S'50'
p511
sg35
g498
sg37
S'@BUF'
p512
sg39
S'33'
p513
sg41
g10
sg43
S'--'
p514
ssS'7'
p515
(dp516
g5
S'--'
p517
sg7
S'--'
p518
sg9
g10
sg11
S'--'
p519
sg13
g14
sg15
S'Deonte Thompson'
p520
sg17
S'2013'
p521
sg19
g515
sg21
S'--'
p522
sg23
S'10/20'
p523
sg25
S'--'
p524
sg27
S'--'
p525
sg29
S'--'
p526
sg31
S'L16-19'
p527
sg33
S'--'
p528
sg35
S'--'
p529
sg37
S'@PIT'
p530
sg39
S'--'
p531
sg41
S'--'
p532
sg43
S'--'
p533
ssg496
(dp534
g5
S'--'
p535
sg7
S'--'
p536
sg9
g10
sg11
S'--'
p537
sg13
g14
sg15
S'Deonte Thompson'
p538
sg17
S'2013'
p539
sg19
g496
sg21
S'--'
p540
sg23
S'10/13'
p541
sg25
S'--'
p542
sg27
S'--'
p543
sg29
S'--'
p544
sg31
S'L17-19'
p545
sg33
S'--'
p546
sg35
S'--'
p547
sg37
S'GB'
p548
sg39
S'--'
p549
sg41
S'--'
p550
sg43
S'--'
p551
ssS'9'
p552
(dp553
g5
S'--'
p554
sg7
S'--'
p555
sg9
g10
sg11
S'--'
p556
sg13
g14
sg15
S'Deonte Thompson'
p557
sg17
S'2013'
p558
sg19
g552
sg21
S'--'
p559
sg23
S'11/03'
p560
sg25
S'8.0'
p561
sg27
S'--'
p562
sg29
S'--'
p563
sg31
S'L18-24'
p564
sg33
S'24'
p565
sg35
g444
sg37
S'@CLE'
p566
sg39
S'10'
p567
sg41
g10
sg43
S'--'
p568
ssS'8'
p569
(dp570
g5
S''
p571
sg7
g571
sg9
g571
sg11
g571
sg13
g571
sg15
S'Deonte Thompson'
p572
sg17
S'2013'
p573
sg19
g569
sg21
g571
sg23
S'Bye'
p574
sg25
g571
sg27
g571
sg29
g571
sg31
g571
sg33
g571
sg35
g571
sg37
g571
sg39
g571
sg41
g571
sg43
g571
sssS'2012'
p575
(dp576
g3
(dp577
g5
S'--'
p578
sg7
S'--'
p579
sg9
g10
sg11
S'--'
p580
sg13
g10
sg15
S'Deonte Thompson'
p581
sg17
S'2012'
p582
sg19
S'11'
p583
sg21
S'--'
p584
sg23
S'11/18'
p585
sg25
S'--'
p586
sg27
S'--'
p587
sg29
S'--'
p588
sg31
S'W13-10'
p589
sg33
S'--'
p590
sg35
S'--'
p591
sg37
S'@PIT'
p592
sg39
S'--'
p593
sg41
S'--'
p594
sg43
S'--'
p595
ssg45
(dp596
g5
S'--'
p597
sg7
S'--'
p598
sg9
g10
sg11
S'--'
p599
sg13
g10
sg15
S'Deonte Thompson'
p600
sg17
S'2012'
p601
sg19
S'10'
p602
sg21
S'--'
p603
sg23
S'11/11'
p604
sg25
S'--'
p605
sg27
S'--'
p606
sg29
S'--'
p607
sg31
S'W55-20'
p608
sg33
S'--'
p609
sg35
S'--'
p610
sg37
S'OAK'
p611
sg39
S'--'
p612
sg41
S'--'
p613
sg43
S'--'
p614
ssg65
(dp615
g5
S'--'
p616
sg7
S'--'
p617
sg9
g10
sg11
S'--'
p618
sg13
g10
sg15
S'Deonte Thompson'
p619
sg17
S'2012'
p620
sg19
S'13'
p621
sg21
S'--'
p622
sg23
S'12/02'
p623
sg25
S'--'
p624
sg27
S'--'
p625
sg29
S'--'
p626
sg31
S'L20-23'
p627
sg33
S'--'
p628
sg35
S'--'
p629
sg37
S'PIT'
p630
sg39
S'--'
p631
sg41
S'--'
p632
sg43
S'--'
p633
ssg85
(dp634
g5
S'--'
p635
sg7
S'--'
p636
sg9
g10
sg11
S'--'
p637
sg13
g10
sg15
S'Deonte Thompson'
p638
sg17
S'2012'
p639
sg19
S'12'
p640
sg21
S'--'
p641
sg23
S'11/25'
p642
sg25
S'--'
p643
sg27
S'--'
p644
sg29
S'--'
p645
sg31
S'W16-13'
p646
sg33
S'--'
p647
sg35
S'--'
p648
sg37
S'@SD'
p649
sg39
S'--'
p650
sg41
S'--'
p651
sg43
S'--'
p652
ssg105
(dp653
g5
S'--'
p654
sg7
S'--'
p655
sg9
g10
sg11
S'--'
p656
sg13
g10
sg15
S'Deonte Thompson'
p657
sg17
S'2012'
p658
sg19
S'15'
p659
sg21
S'--'
p660
sg23
S'12/16'
p661
sg25
S'--'
p662
sg27
S'--'
p663
sg29
S'--'
p664
sg31
S'L17-34'
p665
sg33
S'--'
p666
sg35
S'--'
p667
sg37
S'DEN'
p668
sg39
S'--'
p669
sg41
S'--'
p670
sg43
S'--'
p671
ssg125
(dp672
g5
S'--'
p673
sg7
S'--'
p674
sg9
g10
sg11
S'--'
p675
sg13
g10
sg15
S'Deonte Thompson'
p676
sg17
S'2012'
p677
sg19
S'14'
p678
sg21
S'--'
p679
sg23
S'12/09'
p680
sg25
S'--'
p681
sg27
S'--'
p682
sg29
S'--'
p683
sg31
S'L28-31'
p684
sg33
S'--'
p685
sg35
S'--'
p686
sg37
S'@WAS'
p687
sg39
S'--'
p688
sg41
S'--'
p689
sg43
S'--'
p690
ssg143
(dp691
g5
S'--'
p692
sg7
S'--'
p693
sg9
g10
sg11
S'--'
p694
sg13
g14
sg15
S'Deonte Thompson'
p695
sg17
S'2012'
p696
sg19
S'17'
p697
sg21
S'--'
p698
sg23
S'12/30'
p699
sg25
S'6.5'
p700
sg27
S'--'
p701
sg29
S'--'
p702
sg31
S'L17-23'
p703
sg33
S'26'
p704
sg35
g498
sg37
S'@CIN'
p705
sg39
S'11'
p706
sg41
g10
sg43
S'--'
p707
ssg161
(dp708
g5
S'--'
p709
sg7
S'--'
p710
sg9
g10
sg11
S'--'
p711
sg13
g10
sg15
S'Deonte Thompson'
p712
sg17
S'2012'
p713
sg19
S'16'
p714
sg21
S'--'
p715
sg23
S'12/23'
p716
sg25
S'--'
p717
sg27
S'--'
p718
sg29
S'--'
p719
sg31
S'W33-14'
p720
sg33
S'--'
p721
sg35
S'--'
p722
sg37
S'NYG'
p723
sg39
S'--'
p724
sg41
S'--'
p725
sg43
S'--'
p726
ssg14
(dp727
g5
S'--'
p728
sg7
S'--'
p729
sg9
g10
sg11
S'--'
p730
sg13
g14
sg15
S'Deonte Thompson'
p731
sg17
S'2012'
p732
sg19
g14
sg21
S'--'
p733
sg23
S'09/10'
p734
sg25
S'25.0'
p735
sg27
S'--'
p736
sg29
S'--'
p737
sg31
S'W44-13'
p738
sg33
S'25'
p739
sg35
g14
sg37
S'CIN'
p740
sg39
S'25'
p741
sg41
g10
sg43
S'--'
p742
ssg444
(dp743
g5
S'--'
p744
sg7
S'--'
p745
sg9
g10
sg11
S'--'
p746
sg13
g14
sg15
S'Deonte Thompson'
p747
sg17
S'2012'
p748
sg19
g444
sg21
S'--'
p749
sg23
S'09/23'
p750
sg25
S'--'
p751
sg27
S'--'
p752
sg29
S'--'
p753
sg31
S'W31-30'
p754
sg33
S'--'
p755
sg35
S'--'
p756
sg37
S'NE'
p757
sg39
S'--'
p758
sg41
S'--'
p759
sg43
S'--'
p760
ssg258
(dp761
g5
S'--'
p762
sg7
S'--'
p763
sg9
g10
sg11
S'--'
p764
sg13
g14
sg15
S'Deonte Thompson'
p765
sg17
S'2012'
p766
sg19
g258
sg21
S'--'
p767
sg23
S'09/16'
p768
sg25
S'--'
p769
sg27
S'--'
p770
sg29
S'--'
p771
sg31
S'L23-24'
p772
sg33
S'--'
p773
sg35
S'--'
p774
sg37
S'@PHI'
p775
sg39
S'--'
p776
sg41
S'--'
p777
sg43
S'--'
p778
ssg481
(dp779
g5
S'--'
p780
sg7
S'--'
p781
sg9
g10
sg11
g14
sg13
g14
sg15
S'Deonte Thompson'
p782
sg17
S'2012'
p783
sg19
g481
sg21
S'--'
p784
sg23
S'10/07'
p785
sg25
S'--'
p786
sg27
g14
sg29
S'--'
p787
sg31
S'W9-6'
p788
sg33
S'--'
p789
sg35
S'--'
p790
sg37
S'@KC'
p791
sg39
S'--'
p792
sg41
S'--'
p793
sg43
S'--'
p794
ssg498
(dp795
g5
S'--'
p796
sg7
S'--'
p797
sg9
g10
sg11
S'--'
p798
sg13
g14
sg15
S'Deonte Thompson'
p799
sg17
S'2012'
p800
sg19
g498
sg21
S'--'
p801
sg23
S'09/27'
p802
sg25
S'--'
p803
sg27
S'--'
p804
sg29
S'--'
p805
sg31
S'W23-16'
p806
sg33
S'--'
p807
sg35
S'--'
p808
sg37
S'CLE'
p809
sg39
S'--'
p810
sg41
S'--'
p811
sg43
S'--'
p812
ssg515
(dp813
g5
S'--'
p814
sg7
S'--'
p815
sg9
g10
sg11
S'--'
p816
sg13
g10
sg15
S'Deonte Thompson'
p817
sg17
S'2012'
p818
sg19
g515
sg21
S'--'
p819
sg23
S'10/21'
p820
sg25
S'--'
p821
sg27
S'--'
p822
sg29
S'--'
p823
sg31
S'L13-43'
p824
sg33
S'--'
p825
sg35
S'--'
p826
sg37
S'@HOU'
p827
sg39
S'--'
p828
sg41
S'--'
p829
sg43
S'--'
p830
ssg496
(dp831
g5
S'--'
p832
sg7
S'--'
p833
sg9
g10
sg11
S'--'
p834
sg13
g10
sg15
S'Deonte Thompson'
p835
sg17
S'2012'
p836
sg19
g496
sg21
S'--'
p837
sg23
S'10/14'
p838
sg25
S'--'
p839
sg27
S'--'
p840
sg29
S'--'
p841
sg31
S'W31-29'
p842
sg33
S'--'
p843
sg35
S'--'
p844
sg37
S'DAL'
p845
sg39
S'--'
p846
sg41
S'--'
p847
sg43
S'--'
p848
ssg552
(dp849
g5
S'--'
p850
sg7
S'--'
p851
sg9
g10
sg11
S'--'
p852
sg13
g10
sg15
S'Deonte Thompson'
p853
sg17
S'2012'
p854
sg19
g552
sg21
S'--'
p855
sg23
S'11/04'
p856
sg25
S'--'
p857
sg27
S'--'
p858
sg29
S'--'
p859
sg31
S'W25-15'
p860
sg33
S'--'
p861
sg35
S'--'
p862
sg37
S'@CLE'
p863
sg39
S'--'
p864
sg41
S'--'
p865
sg43
S'--'
p866
ssg569
(dp867
g5
g571
sg7
g571
sg9
g571
sg11
g571
sg13
g571
sg15
S'Deonte Thompson'
p868
sg17
S'2012'
p869
sg19
g569
sg21
g571
sg23
S'Bye'
p870
sg25
g571
sg27
g571
sg29
g571
sg31
g571
sg33
g571
sg35
g571
sg37
g571
sg39
g571
sg41
g571
sg43
g571
sss.