(dp0
S'2015'
p1
(dp2
S'11'
p3
(dp4
S'RushTD'
p5
S'--'
p6
sS'RushYds'
p7
S'--'
p8
sS'GS'
p9
S'0'
p10
sS'Lost'
p11
S'--'
p12
sS'G'
p13
S'1'
p14
sS'Player'
p15
S'DeVante Parker'
p16
sS'Year'
p17
S'2015'
p18
sS'WK'
p19
S'11'
p20
sS'RushAvg'
p21
S'--'
p22
sS'Game Date'
p23
S'11/22'
p24
sS'RecAvg'
p25
S'--'
p26
sS'FUM'
p27
S'--'
p28
sS'RushAtt'
p29
S'--'
p30
sS'Result'
p31
S'L14-24'
p32
sS'RecYds'
p33
S'--'
p34
sS'Rec'
p35
S'--'
p36
sS'Opp'
p37
S'DAL'
p38
sS'RecLng'
p39
S'--'
p40
sS'RecTD'
p41
S'--'
p42
sS'RushLng'
p43
S'--'
p44
ssS'10'
p45
(dp46
g5
S'--'
p47
sg7
S'--'
p48
sg9
g10
sg11
S'--'
p49
sg13
g10
sg15
S'DeVante Parker'
p50
sg17
S'2015'
p51
sg19
S'10'
p52
sg21
S'--'
p53
sg23
S'11/15'
p54
sg25
S'--'
p55
sg27
S'--'
p56
sg29
S'--'
p57
sg31
S'W20-19'
p58
sg33
S'--'
p59
sg35
S'--'
p60
sg37
S'@PHI'
p61
sg39
S'--'
p62
sg41
S'--'
p63
sg43
S'--'
p64
ssS'13'
p65
(dp66
g5
S'--'
p67
sg7
S'--'
p68
sg9
g14
sg11
S'--'
p69
sg13
g14
sg15
S'DeVante Parker'
p70
sg17
S'2015'
p71
sg19
S'13'
p72
sg21
S'--'
p73
sg23
S'12/06'
p74
sg25
S'21.0'
p75
sg27
S'--'
p76
sg29
S'--'
p77
sg31
S'W15-13'
p78
sg33
S'63'
p79
sg35
S'3'
p80
sg37
S'BAL'
p81
sg39
S'38T'
p82
sg41
g14
sg43
S'--'
p83
ssS'12'
p84
(dp85
g5
S'--'
p86
sg7
S'--'
p87
sg9
g10
sg11
S'--'
p88
sg13
g14
sg15
S'DeVante Parker'
p89
sg17
S'2015'
p90
sg19
S'12'
p91
sg21
S'--'
p92
sg23
S'11/29'
p93
sg25
S'20.0'
p94
sg27
S'--'
p95
sg29
S'--'
p96
sg31
S'L20-38'
p97
sg33
S'80'
p98
sg35
S'4'
p99
sg37
S'@NYJ'
p100
sg39
S'33T'
p101
sg41
g14
sg43
S'--'
p102
ssS'15'
p103
(dp104
g5
S'--'
p105
sg7
S'--'
p106
sg9
g10
sg11
S'--'
p107
sg13
g14
sg15
S'DeVante Parker'
p108
sg17
S'2015'
p109
sg19
S'15'
p110
sg21
S'--'
p111
sg23
S'12/20'
p112
sg25
S'21.8'
p113
sg27
S'--'
p114
sg29
S'--'
p115
sg31
S'L14-30'
p116
sg33
S'87'
p117
sg35
g99
sg37
S'@SD'
p118
sg39
S'35'
p119
sg41
g10
sg43
S'--'
p120
ssS'14'
p121
(dp122
g5
S'--'
p123
sg7
S'--'
p124
sg9
g14
sg11
S'--'
p125
sg13
g14
sg15
S'DeVante Parker'
p126
sg17
S'2015'
p127
sg19
S'14'
p128
sg21
S'--'
p129
sg23
S'12/14'
p130
sg25
S'8.0'
p131
sg27
S'--'
p132
sg29
S'--'
p133
sg31
S'L24-31'
p134
sg33
S'16'
p135
sg35
S'2'
p136
sg37
S'NYG'
p137
sg39
S'14'
p138
sg41
g10
sg43
S'--'
p139
ssS'17'
p140
(dp141
g5
S'--'
p142
sg7
S'--'
p143
sg9
g14
sg11
S'--'
p144
sg13
g14
sg15
S'DeVante Parker'
p145
sg17
S'2015'
p146
sg19
S'17'
p147
sg21
S'--'
p148
sg23
S'01/03'
p149
sg25
S'21.2'
p150
sg27
S'--'
p151
sg29
S'--'
p152
sg31
S'W20-10'
p153
sg33
S'106'
p154
sg35
S'5'
p155
sg37
S'NE'
p156
sg39
S'46'
p157
sg41
g14
sg43
S'--'
p158
ssS'16'
p159
(dp160
g5
S'--'
p161
sg7
S'--'
p162
sg9
g14
sg11
S'--'
p163
sg13
g14
sg15
S'DeVante Parker'
p164
sg17
S'2015'
p165
sg19
S'16'
p166
sg21
S'--'
p167
sg23
S'12/27'
p168
sg25
S'23.3'
p169
sg27
S'--'
p170
sg29
S'--'
p171
sg31
S'L12-18'
p172
sg33
S'93'
p173
sg35
g99
sg37
S'IND'
p174
sg39
S'49'
p175
sg41
g10
sg43
S'--'
p176
ssg14
(dp177
g5
S'--'
p178
sg7
S'--'
p179
sg9
g10
sg11
S'--'
p180
sg13
g14
sg15
S'DeVante Parker'
p181
sg17
S'2015'
p182
sg19
g14
sg21
S'--'
p183
sg23
S'09/13'
p184
sg25
S'--'
p185
sg27
S'--'
p186
sg29
S'--'
p187
sg31
S'W17-10'
p188
sg33
S'--'
p189
sg35
S'--'
p190
sg37
S'@WAS'
p191
sg39
S'--'
p192
sg41
S'--'
p193
sg43
S'--'
p194
ssg80
(dp195
g5
S'--'
p196
sg7
S'--'
p197
sg9
g10
sg11
S'--'
p198
sg13
g14
sg15
S'DeVante Parker'
p199
sg17
S'2015'
p200
sg19
g80
sg21
S'--'
p201
sg23
S'09/27'
p202
sg25
S'15.3'
p203
sg27
S'--'
p204
sg29
S'--'
p205
sg31
S'L14-41'
p206
sg33
S'46'
p207
sg35
g80
sg37
S'BUF'
p208
sg39
S'19'
p209
sg41
g10
sg43
S'--'
p210
ssg136
(dp211
g5
S'--'
p212
sg7
S'--'
p213
sg9
g10
sg11
S'--'
p214
sg13
g14
sg15
S'DeVante Parker'
p215
sg17
S'2015'
p216
sg19
g136
sg21
S'--'
p217
sg23
S'09/20'
p218
sg25
S'3.0'
p219
sg27
S'--'
p220
sg29
S'--'
p221
sg31
S'L20-23'
p222
sg33
g80
sg35
g14
sg37
S'@JAC'
p223
sg39
g80
sg41
g10
sg43
S'--'
p224
ssg155
(dp225
g5
S''
p226
sg7
g226
sg9
g226
sg11
g226
sg13
g226
sg15
S'DeVante Parker'
p227
sg17
S'2015'
p228
sg19
g155
sg21
g226
sg23
S'Bye'
p229
sg25
g226
sg27
g226
sg29
g226
sg31
g226
sg33
g226
sg35
g226
sg37
g226
sg39
g226
sg41
g226
sg43
g226
ssg99
(dp230
g5
S'--'
p231
sg7
S'--'
p232
sg9
g10
sg11
S'--'
p233
sg13
g14
sg15
S'DeVante Parker'
p234
sg17
S'2015'
p235
sg19
g99
sg21
S'--'
p236
sg23
S'10/04'
p237
sg25
S'--'
p238
sg27
S'--'
p239
sg29
S'--'
p240
sg31
S'L14-27'
p241
sg33
S'--'
p242
sg35
S'--'
p243
sg37
S'NYJ'
p244
sg39
S'--'
p245
sg41
S'--'
p246
sg43
S'--'
p247
ssS'7'
p248
(dp249
g5
S'--'
p250
sg7
S'--'
p251
sg9
g10
sg11
S'--'
p252
sg13
g14
sg15
S'DeVante Parker'
p253
sg17
S'2015'
p254
sg19
g248
sg21
S'--'
p255
sg23
S'10/25'
p256
sg25
S'--'
p257
sg27
S'--'
p258
sg29
S'--'
p259
sg31
S'W44-26'
p260
sg33
S'--'
p261
sg35
S'--'
p262
sg37
S'HOU'
p263
sg39
S'--'
p264
sg41
S'--'
p265
sg43
S'--'
p266
ssS'6'
p267
(dp268
g5
S'--'
p269
sg7
S'--'
p270
sg9
g10
sg11
S'--'
p271
sg13
g14
sg15
S'DeVante Parker'
p272
sg17
S'2015'
p273
sg19
g267
sg21
S'--'
p274
sg23
S'10/18'
p275
sg25
S'--'
p276
sg27
S'--'
p277
sg29
S'--'
p278
sg31
S'W38-10'
p279
sg33
S'--'
p280
sg35
S'--'
p281
sg37
S'@TEN'
p282
sg39
S'--'
p283
sg41
S'--'
p284
sg43
S'--'
p285
ssS'9'
p286
(dp287
g5
S'--'
p288
sg7
S'--'
p289
sg9
g10
sg11
S'--'
p290
sg13
g10
sg15
S'DeVante Parker'
p291
sg17
S'2015'
p292
sg19
g286
sg21
S'--'
p293
sg23
S'11/08'
p294
sg25
S'--'
p295
sg27
S'--'
p296
sg29
S'--'
p297
sg31
S'L17-33'
p298
sg33
S'--'
p299
sg35
S'--'
p300
sg37
S'@BUF'
p301
sg39
S'--'
p302
sg41
S'--'
p303
sg43
S'--'
p304
ssS'8'
p305
(dp306
g5
S'--'
p307
sg7
S'--'
p308
sg9
g10
sg11
S'--'
p309
sg13
g14
sg15
S'DeVante Parker'
p310
sg17
S'2015'
p311
sg19
g305
sg21
S'--'
p312
sg23
S'10/29'
p313
sg25
S'--'
p314
sg27
S'--'
p315
sg29
S'--'
p316
sg31
S'L7-36'
p317
sg33
S'--'
p318
sg35
S'--'
p319
sg37
S'@NE'
p320
sg39
S'--'
p321
sg41
S'--'
p322
sg43
S'--'
p323
sss.