(dp0
S'2015'
p1
(dp2
S'11'
p3
(dp4
S'RushTD'
p5
S'--'
p6
sS'RushYds'
p7
S'--'
p8
sS'GS'
p9
S'0'
p10
sS'Lost'
p11
S'--'
p12
sS'G'
p13
S'1'
p14
sS'Player'
p15
S'Devin Smith'
p16
sS'Year'
p17
S'2015'
p18
sS'WK'
p19
S'11'
p20
sS'RushAvg'
p21
S'--'
p22
sS'Game Date'
p23
S'11/22'
p24
sS'RecAvg'
p25
S'--'
p26
sS'FUM'
p27
S'--'
p28
sS'RushAtt'
p29
S'--'
p30
sS'Result'
p31
S'L17-24'
p32
sS'RecYds'
p33
g10
sS'Rec'
p34
g10
sS'Opp'
p35
S'@HOU'
p36
sS'RecLng'
p37
S'--'
p38
sS'RecTD'
p39
g10
sS'RushLng'
p40
S'--'
p41
ssS'10'
p42
(dp43
g5
S'--'
p44
sg7
S'--'
p45
sg9
g10
sg11
g14
sg13
g14
sg15
S'Devin Smith'
p46
sg17
S'2015'
p47
sg19
S'10'
p48
sg21
S'--'
p49
sg23
S'11/12'
p50
sg25
S'22.0'
p51
sg27
g14
sg29
S'--'
p52
sg31
S'L17-22'
p53
sg33
S'22'
p54
sg34
g14
sg35
S'BUF'
p55
sg37
S'22'
p56
sg39
g10
sg40
S'--'
p57
ssS'13'
p58
(dp59
g5
S'--'
p60
sg7
S'--'
p61
sg9
g10
sg11
S'--'
p62
sg13
g14
sg15
S'Devin Smith'
p63
sg17
S'2015'
p64
sg19
S'13'
p65
sg21
S'--'
p66
sg23
S'12/06'
p67
sg25
S'--'
p68
sg27
S'--'
p69
sg29
S'--'
p70
sg31
S'W23-20'
p71
sg33
S'--'
p72
sg34
S'--'
p73
sg35
S'@NYG'
p74
sg37
S'--'
p75
sg39
S'--'
p76
sg40
S'--'
p77
ssS'12'
p78
(dp79
g5
S'--'
p80
sg7
S'--'
p81
sg9
g10
sg11
S'--'
p82
sg13
g14
sg15
S'Devin Smith'
p83
sg17
S'2015'
p84
sg19
S'12'
p85
sg21
S'--'
p86
sg23
S'11/29'
p87
sg25
S'16.5'
p88
sg27
S'--'
p89
sg29
S'--'
p90
sg31
S'W38-20'
p91
sg33
S'33'
p92
sg34
S'2'
p93
sg35
S'MIA'
p94
sg37
S'17'
p95
sg39
g14
sg40
S'--'
p96
ssS'14'
p97
(dp98
g5
S'--'
p99
sg7
S'--'
p100
sg9
g14
sg11
S'--'
p101
sg13
g14
sg15
S'Devin Smith'
p102
sg17
S'2015'
p103
sg19
S'14'
p104
sg21
S'--'
p105
sg23
S'12/13'
p106
sg25
S'--'
p107
sg27
S'--'
p108
sg29
S'--'
p109
sg31
S'W30-8'
p110
sg33
g10
sg34
g10
sg35
S'TEN'
p111
sg37
S'--'
p112
sg39
g10
sg40
S'--'
p113
ssg14
(dp114
g5
S'--'
p115
sg7
S'--'
p116
sg9
g10
sg11
S'--'
p117
sg13
g10
sg15
S'Devin Smith'
p118
sg17
S'2015'
p119
sg19
g14
sg21
S'--'
p120
sg23
S'09/13'
p121
sg25
S'--'
p122
sg27
S'--'
p123
sg29
S'--'
p124
sg31
S'W31-10'
p125
sg33
S'--'
p126
sg34
S'--'
p127
sg35
S'CLE'
p128
sg37
S'--'
p129
sg39
S'--'
p130
sg40
S'--'
p131
ssS'3'
p132
(dp133
g5
S'--'
p134
sg7
S'--'
p135
sg9
g14
sg11
S'--'
p136
sg13
g14
sg15
S'Devin Smith'
p137
sg17
S'2015'
p138
sg19
g132
sg21
S'--'
p139
sg23
S'09/27'
p140
sg25
S'13.0'
p141
sg27
S'--'
p142
sg29
S'--'
p143
sg31
S'L17-24'
p144
sg33
S'39'
p145
sg34
g132
sg35
S'PHI'
p146
sg37
S'16'
p147
sg39
g10
sg40
S'--'
p148
ssg93
(dp149
g5
S'--'
p150
sg7
S'--'
p151
sg9
g10
sg11
S'--'
p152
sg13
g10
sg15
S'Devin Smith'
p153
sg17
S'2015'
p154
sg19
g93
sg21
S'--'
p155
sg23
S'09/21'
p156
sg25
S'--'
p157
sg27
S'--'
p158
sg29
S'--'
p159
sg31
S'W20-7'
p160
sg33
S'--'
p161
sg34
S'--'
p162
sg35
S'@IND'
p163
sg37
S'--'
p164
sg39
S'--'
p165
sg40
S'--'
p166
ssS'5'
p167
(dp168
g5
S''
p169
sg7
g169
sg9
g169
sg11
g169
sg13
g169
sg15
S'Devin Smith'
p170
sg17
S'2015'
p171
sg19
g167
sg21
g169
sg23
S'Bye'
p172
sg25
g169
sg27
g169
sg29
g169
sg31
g169
sg33
g169
sg34
g169
sg35
g169
sg37
g169
sg39
g169
sg40
g169
ssS'4'
p173
(dp174
g5
S'--'
p175
sg7
S'--'
p176
sg9
g14
sg11
S'--'
p177
sg13
g14
sg15
S'Devin Smith'
p178
sg17
S'2015'
p179
sg19
g173
sg21
S'--'
p180
sg23
S'10/04'
p181
sg25
S'7.0'
p182
sg27
S'--'
p183
sg29
S'--'
p184
sg31
S'W27-14'
p185
sg33
S'14'
p186
sg34
g93
sg35
S'@MIA'
p187
sg37
S'7'
p188
sg39
g10
sg40
S'--'
p189
ssg188
(dp190
g5
S'--'
p191
sg7
S'--'
p192
sg9
g10
sg11
S'--'
p193
sg13
g14
sg15
S'Devin Smith'
p194
sg17
S'2015'
p195
sg19
g188
sg21
S'--'
p196
sg23
S'10/25'
p197
sg25
S'7.0'
p198
sg27
S'--'
p199
sg29
S'--'
p200
sg31
S'L23-30'
p201
sg33
g188
sg34
g14
sg35
S'@NE'
p202
sg37
g188
sg39
g10
sg40
S'--'
p203
ssS'6'
p204
(dp205
g5
S'--'
p206
sg7
S'--'
p207
sg9
g10
sg11
S'--'
p208
sg13
g14
sg15
S'Devin Smith'
p209
sg17
S'2015'
p210
sg19
g204
sg21
S'--'
p211
sg23
S'10/18'
p212
sg25
S'--'
p213
sg27
S'--'
p214
sg29
S'--'
p215
sg31
S'W34-20'
p216
sg33
S'--'
p217
sg34
S'--'
p218
sg35
S'WAS'
p219
sg37
S'--'
p220
sg39
S'--'
p221
sg40
S'--'
p222
ssS'9'
p223
(dp224
g5
S'--'
p225
sg7
S'--'
p226
sg9
g10
sg11
S'--'
p227
sg13
g14
sg15
S'Devin Smith'
p228
sg17
S'2015'
p229
sg19
g223
sg21
S'--'
p230
sg23
S'11/08'
p231
sg25
S'--'
p232
sg27
S'--'
p233
sg29
S'--'
p234
sg31
S'W28-23'
p235
sg33
S'--'
p236
sg34
S'--'
p237
sg35
S'JAC'
p238
sg37
S'--'
p239
sg39
S'--'
p240
sg40
S'--'
p241
ssS'8'
p242
(dp243
g5
S'--'
p244
sg7
S'--'
p245
sg9
g10
sg11
S'--'
p246
sg13
g10
sg15
S'Devin Smith'
p247
sg17
S'2015'
p248
sg19
g242
sg21
S'--'
p249
sg23
S'11/01'
p250
sg25
S'--'
p251
sg27
S'--'
p252
sg29
S'--'
p253
sg31
S'L20-34'
p254
sg33
S'--'
p255
sg34
S'--'
p256
sg35
S'@OAK'
p257
sg37
S'--'
p258
sg39
S'--'
p259
sg40
S'--'
p260
sss.