(dp0
S'2015'
p1
(dp2
S'13'
p3
(dp4
S'RushTD'
p5
S'--'
p6
sS'RushYds'
p7
S'--'
p8
sS'GS'
p9
S'0'
p10
sS'Lost'
p11
S'--'
p12
sS'G'
p13
S'1'
p14
sS'Player'
p15
S'Devin Hester'
p16
sS'Year'
p17
S'2015'
p18
sS'WK'
p19
S'13'
p20
sS'RushAvg'
p21
S'--'
p22
sS'Game Date'
p23
S'12/06'
p24
sS'RecAvg'
p25
S'--'
p26
sS'FUM'
p27
S'--'
p28
sS'RushAtt'
p29
S'--'
p30
sS'Result'
p31
S'L19-23'
p32
sS'RecYds'
p33
S'--'
p34
sS'Rec'
p35
S'--'
p36
sS'Opp'
p37
S'@TB'
p38
sS'RecLng'
p39
S'--'
p40
sS'RecTD'
p41
S'--'
p42
sS'RushLng'
p43
S'--'
p44
ssS'15'
p45
(dp46
g5
S'--'
p47
sg7
S'--'
p48
sg9
g10
sg11
S'--'
p49
sg13
g14
sg15
S'Devin Hester'
p50
sg17
S'2015'
p51
sg19
S'15'
p52
sg21
S'--'
p53
sg23
S'12/20'
p54
sg25
S'--'
p55
sg27
S'--'
p56
sg29
S'--'
p57
sg31
S'W23-17'
p58
sg33
S'--'
p59
sg35
S'--'
p60
sg37
S'@JAC'
p61
sg39
S'--'
p62
sg41
S'--'
p63
sg43
S'--'
p64
ssS'14'
p65
(dp66
g5
S'--'
p67
sg7
S'--'
p68
sg9
g10
sg11
S'--'
p69
sg13
g14
sg15
S'Devin Hester'
p70
sg17
S'2015'
p71
sg19
S'14'
p72
sg21
S'--'
p73
sg23
S'12/13'
p74
sg25
S'--'
p75
sg27
S'--'
p76
sg29
S'--'
p77
sg31
S'L0-38'
p78
sg33
S'--'
p79
sg35
S'--'
p80
sg37
S'@CAR'
p81
sg39
S'--'
p82
sg41
S'--'
p83
sg43
S'--'
p84
ssS'17'
p85
(dp86
g5
S'--'
p87
sg7
S'--'
p88
sg9
g10
sg11
S'--'
p89
sg13
g14
sg15
S'Devin Hester'
p90
sg17
S'2015'
p91
sg19
S'17'
p92
sg21
S'--'
p93
sg23
S'01/03'
p94
sg25
S'--'
p95
sg27
S'--'
p96
sg29
S'--'
p97
sg31
S'L17-20'
p98
sg33
S'--'
p99
sg35
S'--'
p100
sg37
S'NO'
p101
sg39
S'--'
p102
sg41
S'--'
p103
sg43
S'--'
p104
ssS'16'
p105
(dp106
g5
S'--'
p107
sg7
S'--'
p108
sg9
g10
sg11
S'--'
p109
sg13
g14
sg15
S'Devin Hester'
p110
sg17
S'2015'
p111
sg19
S'16'
p112
sg21
S'--'
p113
sg23
S'12/27'
p114
sg25
S'--'
p115
sg27
S'--'
p116
sg29
S'--'
p117
sg31
S'W20-13'
p118
sg33
S'--'
p119
sg35
S'--'
p120
sg37
S'CAR'
p121
sg39
S'--'
p122
sg41
S'--'
p123
sg43
S'--'
p124
ssg14
(dp125
g5
S'--'
p126
sg7
S'--'
p127
sg9
g10
sg11
S'--'
p128
sg13
g10
sg15
S'Devin Hester'
p129
sg17
S'2015'
p130
sg19
g14
sg21
S'--'
p131
sg23
S'09/14'
p132
sg25
S'--'
p133
sg27
S'--'
p134
sg29
S'--'
p135
sg31
S'W26-24'
p136
sg33
S'--'
p137
sg35
S'--'
p138
sg37
S'PHI'
p139
sg39
S'--'
p140
sg41
S'--'
p141
sg43
S'--'
p142
ssS'3'
p143
(dp144
g5
S'--'
p145
sg7
S'--'
p146
sg9
g10
sg11
S'--'
p147
sg13
g10
sg15
S'Devin Hester'
p148
sg17
S'2015'
p149
sg19
g143
sg21
S'--'
p150
sg23
S'09/27'
p151
sg25
S'--'
p152
sg27
S'--'
p153
sg29
S'--'
p154
sg31
S'W39-28'
p155
sg33
S'--'
p156
sg35
S'--'
p157
sg37
S'@DAL'
p158
sg39
S'--'
p159
sg41
S'--'
p160
sg43
S'--'
p161
ssS'2'
p162
(dp163
g5
S'--'
p164
sg7
S'--'
p165
sg9
g10
sg11
S'--'
p166
sg13
g10
sg15
S'Devin Hester'
p167
sg17
S'2015'
p168
sg19
g162
sg21
S'--'
p169
sg23
S'09/20'
p170
sg25
S'--'
p171
sg27
S'--'
p172
sg29
S'--'
p173
sg31
S'W24-20'
p174
sg33
S'--'
p175
sg35
S'--'
p176
sg37
S'@NYG'
p177
sg39
S'--'
p178
sg41
S'--'
p179
sg43
S'--'
p180
ssS'4'
p181
(dp182
g5
S'--'
p183
sg7
S'--'
p184
sg9
g10
sg11
S'--'
p185
sg13
g10
sg15
S'Devin Hester'
p186
sg17
S'2015'
p187
sg19
g181
sg21
S'--'
p188
sg23
S'10/04'
p189
sg25
S'--'
p190
sg27
S'--'
p191
sg29
S'--'
p192
sg31
S'W48-21'
p193
sg33
S'--'
p194
sg35
S'--'
p195
sg37
S'HOU'
p196
sg39
S'--'
p197
sg41
S'--'
p198
sg43
S'--'
p199
sssS'2014'
p200
(dp201
S'11'
p202
(dp203
g5
g10
sg7
S'9'
p204
sg9
g10
sg11
g14
sg13
g14
sg15
S'Devin Hester'
p205
sg17
S'2014'
p206
sg19
S'11'
p207
sg21
S'9.0'
p208
sg23
S'11/16'
p209
sg25
S'11.3'
p210
sg27
g14
sg29
g14
sg31
S'W19-17'
p211
sg33
S'34'
p212
sg35
g143
sg37
S'@CAR'
p213
sg39
S'18'
p214
sg41
g10
sg43
g204
ssS'10'
p215
(dp216
g5
g10
sg7
g10
sg9
g10
sg11
S'--'
p217
sg13
g14
sg15
S'Devin Hester'
p218
sg17
S'2014'
p219
sg19
S'10'
p220
sg21
S'0.0'
p221
sg23
S'11/09'
p222
sg25
S'5.0'
p223
sg27
S'--'
p224
sg29
g14
sg31
S'W27-17'
p225
sg33
S'5'
p226
sg35
g14
sg37
S'@TB'
p227
sg39
g226
sg41
g10
sg43
g10
ssg3
(dp228
g5
g10
sg7
g181
sg9
g14
sg11
S'--'
p229
sg13
g14
sg15
S'Devin Hester'
p230
sg17
S'2014'
p231
sg19
S'13'
p232
sg21
S'4.0'
p233
sg23
S'11/30'
p234
sg25
S'10.0'
p235
sg27
S'--'
p236
sg29
g14
sg31
S'W29-18'
p237
sg33
S'10'
p238
sg35
g14
sg37
S'ARI'
p239
sg39
S'10'
p240
sg41
g10
sg43
g181
ssS'12'
p241
(dp242
g5
S'--'
p243
sg7
S'--'
p244
sg9
g10
sg11
S'--'
p245
sg13
g14
sg15
S'Devin Hester'
p246
sg17
S'2014'
p247
sg19
S'12'
p248
sg21
S'--'
p249
sg23
S'11/23'
p250
sg25
S'12.5'
p251
sg27
S'--'
p252
sg29
S'--'
p253
sg31
S'L24-26'
p254
sg33
S'50'
p255
sg35
g181
sg37
S'CLE'
p256
sg39
S'16'
p257
sg41
g10
sg43
S'--'
p258
ssg45
(dp259
g5
S'--'
p260
sg7
S'--'
p261
sg9
g10
sg11
S'--'
p262
sg13
g14
sg15
S'Devin Hester'
p263
sg17
S'2014'
p264
sg19
S'15'
p265
sg21
S'--'
p266
sg23
S'12/14'
p267
sg25
S'17.0'
p268
sg27
S'--'
p269
sg29
S'--'
p270
sg31
S'L20-27'
p271
sg33
S'85'
p272
sg35
g226
sg37
S'PIT'
p273
sg39
S'46'
p274
sg41
g14
sg43
S'--'
p275
ssg65
(dp276
g5
g10
sg7
g10
sg9
g10
sg11
S'--'
p277
sg13
g14
sg15
S'Devin Hester'
p278
sg17
S'2014'
p279
sg19
S'14'
p280
sg21
S'0.0'
p281
sg23
S'12/08'
p282
sg25
S'--'
p283
sg27
S'--'
p284
sg29
g14
sg31
S'L37-43'
p285
sg33
g10
sg35
g10
sg37
S'@GB'
p286
sg39
S'--'
p287
sg41
g10
sg43
g10
ssg85
(dp288
g5
S'--'
p289
sg7
S'--'
p290
sg9
g10
sg11
S'--'
p291
sg13
g14
sg15
S'Devin Hester'
p292
sg17
S'2014'
p293
sg19
S'17'
p294
sg21
S'--'
p295
sg23
S'12/28'
p296
sg25
S'8.0'
p297
sg27
S'--'
p298
sg29
S'--'
p299
sg31
S'L3-34'
p300
sg33
S'32'
p301
sg35
g181
sg37
S'CAR'
p302
sg39
S'15'
p303
sg41
g10
sg43
S'--'
p304
ssg105
(dp305
g5
S'--'
p306
sg7
S'--'
p307
sg9
g10
sg11
S'--'
p308
sg13
g14
sg15
S'Devin Hester'
p309
sg17
S'2014'
p310
sg19
S'16'
p311
sg21
S'--'
p312
sg23
S'12/21'
p313
sg25
S'12.5'
p314
sg27
S'--'
p315
sg29
S'--'
p316
sg31
S'W30-14'
p317
sg33
S'25'
p318
sg35
g162
sg37
S'@NO'
p319
sg39
S'16'
p320
sg41
g10
sg43
S'--'
p321
ssg14
(dp322
g5
S'--'
p323
sg7
S'--'
p324
sg9
g10
sg11
S'--'
p325
sg13
g14
sg15
S'Devin Hester'
p326
sg17
S'2014'
p327
sg19
g14
sg21
S'--'
p328
sg23
S'09/07'
p329
sg25
S'19.8'
p330
sg27
S'--'
p331
sg29
S'--'
p332
sg31
S'W37-34'
p333
sg33
S'99'
p334
sg35
g226
sg37
S'NO'
p335
sg39
S'35'
p336
sg41
g10
sg43
S'--'
p337
ssg143
(dp338
g5
g14
sg7
S'20'
p339
sg9
g10
sg11
g10
sg13
g14
sg15
S'Devin Hester'
p340
sg17
S'2014'
p341
sg19
g143
sg21
S'20.0'
p342
sg23
S'09/18'
p343
sg25
S'25.0'
p344
sg27
g14
sg29
g14
sg31
S'W56-14'
p345
sg33
S'25'
p346
sg35
g14
sg37
S'TB'
p347
sg39
S'25'
p348
sg41
g10
sg43
S'20T'
p349
ssg162
(dp350
g5
S'--'
p351
sg7
S'--'
p352
sg9
g10
sg11
S'--'
p353
sg13
g14
sg15
S'Devin Hester'
p354
sg17
S'2014'
p355
sg19
g162
sg21
S'--'
p356
sg23
S'09/14'
p357
sg25
S'2.0'
p358
sg27
S'--'
p359
sg29
S'--'
p360
sg31
S'L10-24'
p361
sg33
g162
sg35
g14
sg37
S'@CIN'
p362
sg39
g162
sg41
g10
sg43
S'--'
p363
ssg226
(dp364
g5
g10
sg7
g143
sg9
g10
sg11
S'--'
p365
sg13
g14
sg15
S'Devin Hester'
p366
sg17
S'2014'
p367
sg19
g226
sg21
S'3.0'
p368
sg23
S'10/05'
p369
sg25
S'8.0'
p370
sg27
S'--'
p371
sg29
g14
sg31
S'L20-30'
p372
sg33
S'16'
p373
sg35
g162
sg37
S'@NYG'
p374
sg39
S'10'
p375
sg41
g10
sg43
g143
ssg181
(dp376
g5
S'--'
p377
sg7
S'--'
p378
sg9
g10
sg11
S'--'
p379
sg13
g14
sg15
S'Devin Hester'
p380
sg17
S'2014'
p381
sg19
g181
sg21
S'--'
p382
sg23
S'09/28'
p383
sg25
S'14.0'
p384
sg27
S'--'
p385
sg29
S'--'
p386
sg31
S'L28-41'
p387
sg33
S'70'
p388
sg35
g226
sg37
S'@MIN'
p389
sg39
S'36T'
p390
sg41
g14
sg43
S'--'
p391
ssS'7'
p392
(dp393
g5
S'--'
p394
sg7
S'--'
p395
sg9
g10
sg11
S'--'
p396
sg13
g14
sg15
S'Devin Hester'
p397
sg17
S'2014'
p398
sg19
g392
sg21
S'--'
p399
sg23
S'10/19'
p400
sg25
S'9.3'
p401
sg27
S'--'
p402
sg29
S'--'
p403
sg31
S'L7-29'
p404
sg33
S'28'
p405
sg35
g143
sg37
S'@BAL'
p406
sg39
S'20'
p407
sg41
g10
sg43
S'--'
p408
ssS'6'
p409
(dp410
g5
S'--'
p411
sg7
S'--'
p412
sg9
g10
sg11
S'--'
p413
sg13
g14
sg15
S'Devin Hester'
p414
sg17
S'2014'
p415
sg19
g409
sg21
S'--'
p416
sg23
S'10/12'
p417
sg25
S'23.0'
p418
sg27
S'--'
p419
sg29
S'--'
p420
sg31
S'L13-27'
p421
sg33
S'23'
p422
sg35
g14
sg37
S'CHI'
p423
sg39
S'23'
p424
sg41
g10
sg43
S'--'
p425
ssg204
(dp426
g5
S''
p427
sg7
g427
sg9
g427
sg11
g427
sg13
g427
sg15
S'Devin Hester'
p428
sg17
S'2014'
p429
sg19
g204
sg21
g427
sg23
S'Bye'
p430
sg25
g427
sg27
g427
sg29
g427
sg31
g427
sg33
g427
sg35
g427
sg37
g427
sg39
g427
sg41
g427
sg43
g427
ssS'8'
p431
(dp432
g5
S'--'
p433
sg7
S'--'
p434
sg9
g10
sg11
S'--'
p435
sg13
g14
sg15
S'Devin Hester'
p436
sg17
S'2014'
p437
sg19
g431
sg21
S'--'
p438
sg23
S'10/26'
p439
sg25
S'--'
p440
sg27
S'--'
p441
sg29
S'--'
p442
sg31
S'L21-22'
p443
sg33
S'--'
p444
sg35
S'--'
p445
sg37
S'DET'
p446
sg39
S'--'
p447
sg41
S'--'
p448
sg43
S'--'
p449
sssS'2011'
p450
(dp451
g202
(dp452
g5
S'--'
p453
sg7
S'--'
p454
sg9
g10
sg11
S'--'
p455
sg13
g14
sg15
S'Devin Hester'
p456
sg17
S'2011'
p457
sg19
S'11'
p458
sg21
S'--'
p459
sg23
S'11/20'
p460
sg25
S'--'
p461
sg27
S'--'
p462
sg29
S'--'
p463
sg31
S'W31-20'
p464
sg33
S'--'
p465
sg35
S'--'
p466
sg37
S'SD'
p467
sg39
S'--'
p468
sg41
S'--'
p469
sg43
S'--'
p470
ssg215
(dp471
g5
S'--'
p472
sg7
S'--'
p473
sg9
g10
sg11
g10
sg13
g14
sg15
S'Devin Hester'
p474
sg17
S'2011'
p475
sg19
S'10'
p476
sg21
S'--'
p477
sg23
S'11/13'
p478
sg25
S'--'
p479
sg27
g14
sg29
S'--'
p480
sg31
S'W37-13'
p481
sg33
S'--'
p482
sg35
S'--'
p483
sg37
S'DET'
p484
sg39
S'--'
p485
sg41
S'--'
p486
sg43
S'--'
p487
ssg3
(dp488
g5
S'--'
p489
sg7
S'--'
p490
sg9
g10
sg11
g10
sg13
g14
sg15
S'Devin Hester'
p491
sg17
S'2011'
p492
sg19
S'13'
p493
sg21
S'--'
p494
sg23
S'12/04'
p495
sg25
S'11.7'
p496
sg27
g14
sg29
S'--'
p497
sg31
S'L3-10'
p498
sg33
S'35'
p499
sg35
g143
sg37
S'KC'
p500
sg39
S'17'
p501
sg41
g10
sg43
S'--'
p502
ssg241
(dp503
g5
S'--'
p504
sg7
S'--'
p505
sg9
g10
sg11
S'--'
p506
sg13
g14
sg15
S'Devin Hester'
p507
sg17
S'2011'
p508
sg19
S'12'
p509
sg21
S'--'
p510
sg23
S'11/27'
p511
sg25
S'--'
p512
sg27
S'--'
p513
sg29
S'--'
p514
sg31
S'L20-25'
p515
sg33
S'--'
p516
sg35
S'--'
p517
sg37
S'@OAK'
p518
sg39
S'--'
p519
sg41
S'--'
p520
sg43
S'--'
p521
ssg45
(dp522
g5
S'--'
p523
sg7
S'--'
p524
sg9
g10
sg11
S'--'
p525
sg13
g14
sg15
S'Devin Hester'
p526
sg17
S'2011'
p527
sg19
S'15'
p528
sg21
S'--'
p529
sg23
S'12/18'
p530
sg25
S'--'
p531
sg27
S'--'
p532
sg29
S'--'
p533
sg31
S'L14-38'
p534
sg33
S'--'
p535
sg35
S'--'
p536
sg37
S'SEA'
p537
sg39
S'--'
p538
sg41
S'--'
p539
sg43
S'--'
p540
ssg65
(dp541
g5
S'--'
p542
sg7
S'--'
p543
sg9
g14
sg11
S'--'
p544
sg13
g14
sg15
S'Devin Hester'
p545
sg17
S'2011'
p546
sg19
S'14'
p547
sg21
S'--'
p548
sg23
S'12/11'
p549
sg25
S'--'
p550
sg27
S'--'
p551
sg29
S'--'
p552
sg31
S'L10-13'
p553
sg33
g10
sg35
g10
sg37
S'@DEN'
p554
sg39
S'--'
p555
sg41
g10
sg43
S'--'
p556
ssg85
(dp557
g5
S'--'
p558
sg7
S'--'
p559
sg9
g10
sg11
S'--'
p560
sg13
g14
sg15
S'Devin Hester'
p561
sg17
S'2011'
p562
sg19
S'17'
p563
sg21
S'--'
p564
sg23
S'01/01'
p565
sg25
S'14.0'
p566
sg27
S'--'
p567
sg29
S'--'
p568
sg31
S'W17-13'
p569
sg33
S'14'
p570
sg35
g14
sg37
S'@MIN'
p571
sg39
S'14'
p572
sg41
g10
sg43
S'--'
p573
ssg105
(dp574
g5
S'--'
p575
sg7
S'--'
p576
sg9
g10
sg11
S'--'
p577
sg13
g14
sg15
S'Devin Hester'
p578
sg17
S'2011'
p579
sg19
S'16'
p580
sg21
S'--'
p581
sg23
S'12/25'
p582
sg25
S'--'
p583
sg27
S'--'
p584
sg29
S'--'
p585
sg31
S'L21-35'
p586
sg33
S'--'
p587
sg35
S'--'
p588
sg37
S'@GB'
p589
sg39
S'--'
p590
sg41
S'--'
p591
sg43
S'--'
p592
ssg14
(dp593
g5
S'--'
p594
sg7
S'--'
p595
sg9
g10
sg11
g10
sg13
g14
sg15
S'Devin Hester'
p596
sg17
S'2011'
p597
sg19
g14
sg21
S'--'
p598
sg23
S'09/11'
p599
sg25
S'20.0'
p600
sg27
g162
sg29
S'--'
p601
sg31
S'W30-12'
p602
sg33
S'60'
p603
sg35
g143
sg37
S'ATL'
p604
sg39
S'53'
p605
sg41
g10
sg43
S'--'
p606
ssg143
(dp607
g5
S'--'
p608
sg7
S'--'
p609
sg9
g14
sg11
S'--'
p610
sg13
g14
sg15
S'Devin Hester'
p611
sg17
S'2011'
p612
sg19
g143
sg21
S'--'
p613
sg23
S'09/25'
p614
sg25
S'20.7'
p615
sg27
S'--'
p616
sg29
S'--'
p617
sg31
S'L17-27'
p618
sg33
S'62'
p619
sg35
g143
sg37
S'GB'
p620
sg39
S'37'
p621
sg41
g10
sg43
S'--'
p622
ssg162
(dp623
g5
S'--'
p624
sg7
S'--'
p625
sg9
g14
sg11
g10
sg13
g14
sg15
S'Devin Hester'
p626
sg17
S'2011'
p627
sg19
g162
sg21
S'--'
p628
sg23
S'09/18'
p629
sg25
S'17.0'
p630
sg27
g14
sg29
S'--'
p631
sg31
S'L13-30'
p632
sg33
S'17'
p633
sg35
g14
sg37
S'@NO'
p634
sg39
S'17'
p635
sg41
g10
sg43
S'--'
p636
ssg226
(dp637
g5
S'--'
p638
sg7
S'--'
p639
sg9
g14
sg11
S'--'
p640
sg13
g14
sg15
S'Devin Hester'
p641
sg17
S'2011'
p642
sg19
g226
sg21
S'--'
p643
sg23
S'10/10'
p644
sg25
S'6.4'
p645
sg27
S'--'
p646
sg29
S'--'
p647
sg31
S'L13-24'
p648
sg33
S'32'
p649
sg35
g226
sg37
S'@DET'
p650
sg39
S'26'
p651
sg41
g10
sg43
S'--'
p652
ssg181
(dp653
g5
S'--'
p654
sg7
S'--'
p655
sg9
g14
sg11
S'--'
p656
sg13
g14
sg15
S'Devin Hester'
p657
sg17
S'2011'
p658
sg19
g181
sg21
S'--'
p659
sg23
S'10/02'
p660
sg25
S'--'
p661
sg27
S'--'
p662
sg29
S'--'
p663
sg31
S'W34-29'
p664
sg33
g10
sg35
g10
sg37
S'CAR'
p665
sg39
S'--'
p666
sg41
g10
sg43
S'--'
p667
ssg392
(dp668
g5
g10
sg7
S'-6'
p669
sg9
g14
sg11
S'--'
p670
sg13
g14
sg15
S'Devin Hester'
p671
sg17
S'2011'
p672
sg19
g392
sg21
S'-6.0'
p673
sg23
S'10/23'
p674
sg25
S'11.5'
p675
sg27
S'--'
p676
sg29
g14
sg31
S'W24-18'
p677
sg33
S'46'
p678
sg35
g181
sg37
S'@TB'
p679
sg39
S'15'
p680
sg41
g10
sg43
S'-6'
p681
ssg409
(dp682
g5
S'--'
p683
sg7
S'--'
p684
sg9
g14
sg11
S'--'
p685
sg13
g14
sg15
S'Devin Hester'
p686
sg17
S'2011'
p687
sg19
g409
sg21
S'--'
p688
sg23
S'10/16'
p689
sg25
S'18.2'
p690
sg27
S'--'
p691
sg29
S'--'
p692
sg31
S'W39-10'
p693
sg33
S'91'
p694
sg35
g226
sg37
S'MIN'
p695
sg39
S'48T'
p696
sg41
g14
sg43
S'--'
p697
ssg204
(dp698
g5
S'--'
p699
sg7
S'--'
p700
sg9
g14
sg11
S'--'
p701
sg13
g14
sg15
S'Devin Hester'
p702
sg17
S'2011'
p703
sg19
g204
sg21
S'--'
p704
sg23
S'11/07'
p705
sg25
S'12.0'
p706
sg27
S'--'
p707
sg29
S'--'
p708
sg31
S'W30-24'
p709
sg33
S'12'
p710
sg35
g14
sg37
S'@PHI'
p711
sg39
S'12'
p712
sg41
g10
sg43
S'--'
p713
ssg431
(dp714
g5
g427
sg7
g427
sg9
g427
sg11
g427
sg13
g427
sg15
S'Devin Hester'
p715
sg17
S'2011'
p716
sg19
g431
sg21
g427
sg23
S'Bye'
p717
sg25
g427
sg27
g427
sg29
g427
sg31
g427
sg33
g427
sg35
g427
sg37
g427
sg39
g427
sg41
g427
sg43
g427
sssS'2010'
p718
(dp719
g202
(dp720
g5
S'--'
p721
sg7
S'--'
p722
sg9
g14
sg11
S'--'
p723
sg13
g14
sg15
S'Devin Hester'
p724
sg17
S'2010'
p725
sg19
S'11'
p726
sg21
S'--'
p727
sg23
S'11/18'
p728
sg25
S'10.3'
p729
sg27
S'--'
p730
sg29
S'--'
p731
sg31
S'W16-0'
p732
sg33
S'41'
p733
sg35
g181
sg37
S'@MIA'
p734
sg39
S'14'
p735
sg41
g10
sg43
S'--'
p736
ssg215
(dp737
g5
S'--'
p738
sg7
S'--'
p739
sg9
g14
sg11
S'--'
p740
sg13
g14
sg15
S'Devin Hester'
p741
sg17
S'2010'
p742
sg19
S'10'
p743
sg21
S'--'
p744
sg23
S'11/14'
p745
sg25
S'9.5'
p746
sg27
S'--'
p747
sg29
S'--'
p748
sg31
S'W27-13'
p749
sg33
S'38'
p750
sg35
g181
sg37
S'MIN'
p751
sg39
S'19T'
p752
sg41
g14
sg43
S'--'
p753
ssg3
(dp754
g5
g10
sg7
g226
sg9
g10
sg11
S'--'
p755
sg13
g14
sg15
S'Devin Hester'
p756
sg17
S'2010'
p757
sg19
S'13'
p758
sg21
S'5.0'
p759
sg23
S'12/05'
p760
sg25
S'1.0'
p761
sg27
S'--'
p762
sg29
g14
sg31
S'W24-20'
p763
sg33
g14
sg35
g14
sg37
S'@DET'
p764
sg39
g14
sg41
g10
sg43
g226
ssg241
(dp765
g5
g10
sg7
g10
sg9
g14
sg11
S'--'
p766
sg13
g14
sg15
S'Devin Hester'
p767
sg17
S'2010'
p768
sg19
S'12'
p769
sg21
S'0.0'
p770
sg23
S'11/28'
p771
sg25
S'28.7'
p772
sg27
S'--'
p773
sg29
g14
sg31
S'W31-26'
p774
sg33
S'86'
p775
sg35
g143
sg37
S'PHI'
p776
sg39
S'39'
p777
sg41
g10
sg43
g10
ssg45
(dp778
g5
S'--'
p779
sg7
S'--'
p780
sg9
g14
sg11
S'--'
p781
sg13
g14
sg15
S'Devin Hester'
p782
sg17
S'2010'
p783
sg19
S'15'
p784
sg21
S'--'
p785
sg23
S'12/20'
p786
sg25
S'11.5'
p787
sg27
S'--'
p788
sg29
S'--'
p789
sg31
S'W40-14'
p790
sg33
S'23'
p791
sg35
g162
sg37
S'@MIN'
p792
sg39
S'15T'
p793
sg41
g14
sg43
S'--'
p794
ssg65
(dp795
g5
S'--'
p796
sg7
S'--'
p797
sg9
g14
sg11
S'--'
p798
sg13
g14
sg15
S'Devin Hester'
p799
sg17
S'2010'
p800
sg19
S'14'
p801
sg21
S'--'
p802
sg23
S'12/12'
p803
sg25
S'8.5'
p804
sg27
S'--'
p805
sg29
S'--'
p806
sg31
S'L7-36'
p807
sg33
S'17'
p808
sg35
g162
sg37
S'NE'
p809
sg39
S'12'
p810
sg41
g10
sg43
S'--'
p811
ssg85
(dp812
g5
S'--'
p813
sg7
S'--'
p814
sg9
g14
sg11
S'--'
p815
sg13
g14
sg15
S'Devin Hester'
p816
sg17
S'2010'
p817
sg19
S'17'
p818
sg21
S'--'
p819
sg23
S'01/02'
p820
sg25
S'16.0'
p821
sg27
S'--'
p822
sg29
S'--'
p823
sg31
S'L3-10'
p824
sg33
S'16'
p825
sg35
g14
sg37
S'@GB'
p826
sg39
S'16'
p827
sg41
g10
sg43
S'--'
p828
ssg105
(dp829
g5
S'--'
p830
sg7
S'--'
p831
sg9
g14
sg11
S'--'
p832
sg13
g14
sg15
S'Devin Hester'
p833
sg17
S'2010'
p834
sg19
S'16'
p835
sg21
S'--'
p836
sg23
S'12/26'
p837
sg25
S'16.0'
p838
sg27
S'--'
p839
sg29
S'--'
p840
sg31
S'W38-34'
p841
sg33
S'48'
p842
sg35
g143
sg37
S'NYJ'
p843
sg39
S'25T'
p844
sg41
g14
sg43
S'--'
p845
ssg14
(dp846
g5
S'--'
p847
sg7
S'--'
p848
sg9
g14
sg11
S'--'
p849
sg13
g14
sg15
S'Devin Hester'
p850
sg17
S'2010'
p851
sg19
g14
sg21
S'--'
p852
sg23
S'09/12'
p853
sg25
S'17.0'
p854
sg27
S'--'
p855
sg29
S'--'
p856
sg31
S'W19-14'
p857
sg33
S'17'
p858
sg35
g14
sg37
S'DET'
p859
sg39
S'17'
p860
sg41
g10
sg43
S'--'
p861
ssg143
(dp862
g5
S'--'
p863
sg7
S'--'
p864
sg9
g14
sg11
S'--'
p865
sg13
g14
sg15
S'Devin Hester'
p866
sg17
S'2010'
p867
sg19
g143
sg21
S'--'
p868
sg23
S'09/27'
p869
sg25
S'16.0'
p870
sg27
S'--'
p871
sg29
S'--'
p872
sg31
S'W20-17'
p873
sg33
S'16'
p874
sg35
g14
sg37
S'GB'
p875
sg39
S'16'
p876
sg41
g10
sg43
S'--'
p877
ssg162
(dp878
g5
S'--'
p879
sg7
S'--'
p880
sg9
g14
sg11
S'--'
p881
sg13
g14
sg15
S'Devin Hester'
p882
sg17
S'2010'
p883
sg19
g162
sg21
S'--'
p884
sg23
S'09/19'
p885
sg25
S'19.3'
p886
sg27
S'--'
p887
sg29
S'--'
p888
sg31
S'W27-20'
p889
sg33
S'77'
p890
sg35
g181
sg37
S'@DAL'
p891
sg39
S'38'
p892
sg41
g14
sg43
S'--'
p893
ssg226
(dp894
g5
g10
sg7
S'10'
p895
sg9
g14
sg11
S'--'
p896
sg13
g14
sg15
S'Devin Hester'
p897
sg17
S'2010'
p898
sg19
g226
sg21
S'10.0'
p899
sg23
S'10/10'
p900
sg25
S'0.0'
p901
sg27
S'--'
p902
sg29
g14
sg31
S'W23-6'
p903
sg33
g10
sg35
g162
sg37
S'@CAR'
p904
sg39
g226
sg41
g10
sg43
S'10'
p905
ssg181
(dp906
g5
g10
sg7
S'11'
p907
sg9
g14
sg11
S'--'
p908
sg13
g14
sg15
S'Devin Hester'
p909
sg17
S'2010'
p910
sg19
g181
sg21
S'11.0'
p911
sg23
S'10/03'
p912
sg25
S'5.3'
p913
sg27
S'--'
p914
sg29
g14
sg31
S'L3-17'
p915
sg33
S'16'
p916
sg35
g143
sg37
S'@NYG'
p917
sg39
g431
sg41
g10
sg43
S'11'
p918
ssg392
(dp919
g5
g10
sg7
g226
sg9
g10
sg11
S'--'
p920
sg13
g14
sg15
S'Devin Hester'
p921
sg17
S'2010'
p922
sg19
g392
sg21
S'2.5'
p923
sg23
S'10/24'
p924
sg25
S'6.0'
p925
sg27
S'--'
p926
sg29
g162
sg31
S'L14-17'
p927
sg33
S'30'
p928
sg35
g226
sg37
S'WAS'
p929
sg39
g204
sg41
g10
sg43
g409
ssg409
(dp930
g5
S'--'
p931
sg7
S'--'
p932
sg9
g14
sg11
S'--'
p933
sg13
g14
sg15
S'Devin Hester'
p934
sg17
S'2010'
p935
sg19
g409
sg21
S'--'
p936
sg23
S'10/17'
p937
sg25
S'13.0'
p938
sg27
S'--'
p939
sg29
S'--'
p940
sg31
S'L20-23'
p941
sg33
S'26'
p942
sg35
g162
sg37
S'SEA'
p943
sg39
S'19'
p944
sg41
g10
sg43
S'--'
p945
ssg204
(dp946
g5
g10
sg7
S'-1'
p947
sg9
g10
sg11
S'--'
p948
sg13
g14
sg15
S'Devin Hester'
p949
sg17
S'2010'
p950
sg19
g204
sg21
S'-1.0'
p951
sg23
S'11/07'
p952
sg25
S'11.5'
p953
sg27
S'--'
p954
sg29
g14
sg31
S'W22-19'
p955
sg33
S'23'
p956
sg35
g162
sg37
S'@BUF'
p957
sg39
S'16'
p958
sg41
g10
sg43
S'-1'
p959
ssg431
(dp960
g5
g427
sg7
g427
sg9
g427
sg11
g427
sg13
g427
sg15
S'Devin Hester'
p961
sg17
S'2010'
p962
sg19
g431
sg21
g427
sg23
S'Bye'
p963
sg25
g427
sg27
g427
sg29
g427
sg31
g427
sg33
g427
sg35
g427
sg37
g427
sg39
g427
sg41
g427
sg43
g427
sssS'2013'
p964
(dp965
g202
(dp966
g5
S'--'
p967
sg7
S'--'
p968
sg9
g10
sg11
S'--'
p969
sg13
g14
sg15
S'Devin Hester'
p970
sg17
S'2013'
p971
sg19
S'11'
p972
sg21
S'--'
p973
sg23
S'11/17'
p974
sg25
S'--'
p975
sg27
S'--'
p976
sg29
S'--'
p977
sg31
S'W23-20'
p978
sg33
S'--'
p979
sg35
S'--'
p980
sg37
S'BAL'
p981
sg39
S'--'
p982
sg41
S'--'
p983
sg43
S'--'
p984
ssg215
(dp985
g5
S'--'
p986
sg7
S'--'
p987
sg9
g10
sg11
S'--'
p988
sg13
g14
sg15
S'Devin Hester'
p989
sg17
S'2013'
p990
sg19
S'10'
p991
sg21
S'--'
p992
sg23
S'11/10'
p993
sg25
S'--'
p994
sg27
S'--'
p995
sg29
S'--'
p996
sg31
S'L19-21'
p997
sg33
S'--'
p998
sg35
S'--'
p999
sg37
S'DET'
p1000
sg39
S'--'
p1001
sg41
S'--'
p1002
sg43
S'--'
p1003
ssg3
(dp1004
g5
S'--'
p1005
sg7
S'--'
p1006
sg9
g10
sg11
S'--'
p1007
sg13
g14
sg15
S'Devin Hester'
p1008
sg17
S'2013'
p1009
sg19
S'13'
p1010
sg21
S'--'
p1011
sg23
S'12/01'
p1012
sg25
S'--'
p1013
sg27
S'--'
p1014
sg29
S'--'
p1015
sg31
S'L20-23'
p1016
sg33
S'--'
p1017
sg35
S'--'
p1018
sg37
S'@MIN'
p1019
sg39
S'--'
p1020
sg41
S'--'
p1021
sg43
S'--'
p1022
ssg241
(dp1023
g5
S'--'
p1024
sg7
S'--'
p1025
sg9
g10
sg11
g10
sg13
g14
sg15
S'Devin Hester'
p1026
sg17
S'2013'
p1027
sg19
S'12'
p1028
sg21
S'--'
p1029
sg23
S'11/24'
p1030
sg25
S'--'
p1031
sg27
g14
sg29
S'--'
p1032
sg31
S'L21-42'
p1033
sg33
S'--'
p1034
sg35
S'--'
p1035
sg37
S'@STL'
p1036
sg39
S'--'
p1037
sg41
S'--'
p1038
sg43
S'--'
p1039
ssg45
(dp1040
g5
S'--'
p1041
sg7
S'--'
p1042
sg9
g10
sg11
S'--'
p1043
sg13
g14
sg15
S'Devin Hester'
p1044
sg17
S'2013'
p1045
sg19
S'15'
p1046
sg21
S'--'
p1047
sg23
S'12/15'
p1048
sg25
S'--'
p1049
sg27
S'--'
p1050
sg29
S'--'
p1051
sg31
S'W38-31'
p1052
sg33
S'--'
p1053
sg35
S'--'
p1054
sg37
S'@CLE'
p1055
sg39
S'--'
p1056
sg41
S'--'
p1057
sg43
S'--'
p1058
ssg65
(dp1059
g5
S'--'
p1060
sg7
S'--'
p1061
sg9
g10
sg11
S'--'
p1062
sg13
g14
sg15
S'Devin Hester'
p1063
sg17
S'2013'
p1064
sg19
S'14'
p1065
sg21
S'--'
p1066
sg23
S'12/09'
p1067
sg25
S'--'
p1068
sg27
S'--'
p1069
sg29
S'--'
p1070
sg31
S'W45-28'
p1071
sg33
S'--'
p1072
sg35
S'--'
p1073
sg37
S'DAL'
p1074
sg39
S'--'
p1075
sg41
S'--'
p1076
sg43
S'--'
p1077
ssg85
(dp1078
g5
S'--'
p1079
sg7
S'--'
p1080
sg9
g10
sg11
g10
sg13
g14
sg15
S'Devin Hester'
p1081
sg17
S'2013'
p1082
sg19
S'17'
p1083
sg21
S'--'
p1084
sg23
S'12/29'
p1085
sg25
S'--'
p1086
sg27
g14
sg29
S'--'
p1087
sg31
S'L28-33'
p1088
sg33
S'--'
p1089
sg35
S'--'
p1090
sg37
S'GB'
p1091
sg39
S'--'
p1092
sg41
S'--'
p1093
sg43
S'--'
p1094
ssg105
(dp1095
g5
S'--'
p1096
sg7
S'--'
p1097
sg9
g10
sg11
g14
sg13
g14
sg15
S'Devin Hester'
p1098
sg17
S'2013'
p1099
sg19
S'16'
p1100
sg21
S'--'
p1101
sg23
S'12/22'
p1102
sg25
S'--'
p1103
sg27
g14
sg29
S'--'
p1104
sg31
S'L11-54'
p1105
sg33
S'--'
p1106
sg35
S'--'
p1107
sg37
S'@PHI'
p1108
sg39
S'--'
p1109
sg41
S'--'
p1110
sg43
S'--'
p1111
ssg14
(dp1112
g5
S'--'
p1113
sg7
S'--'
p1114
sg9
g10
sg11
S'--'
p1115
sg13
g14
sg15
S'Devin Hester'
p1116
sg17
S'2013'
p1117
sg19
g14
sg21
S'--'
p1118
sg23
S'09/08'
p1119
sg25
S'--'
p1120
sg27
S'--'
p1121
sg29
S'--'
p1122
sg31
S'W24-21'
p1123
sg33
S'--'
p1124
sg35
S'--'
p1125
sg37
S'CIN'
p1126
sg39
S'--'
p1127
sg41
S'--'
p1128
sg43
S'--'
p1129
ssg143
(dp1130
g5
S'--'
p1131
sg7
S'--'
p1132
sg9
g10
sg11
S'--'
p1133
sg13
g14
sg15
S'Devin Hester'
p1134
sg17
S'2013'
p1135
sg19
g143
sg21
S'--'
p1136
sg23
S'09/22'
p1137
sg25
S'--'
p1138
sg27
S'--'
p1139
sg29
S'--'
p1140
sg31
S'W40-23'
p1141
sg33
S'--'
p1142
sg35
S'--'
p1143
sg37
S'@PIT'
p1144
sg39
S'--'
p1145
sg41
S'--'
p1146
sg43
S'--'
p1147
ssg162
(dp1148
g5
S'--'
p1149
sg7
S'--'
p1150
sg9
g10
sg11
S'--'
p1151
sg13
g14
sg15
S'Devin Hester'
p1152
sg17
S'2013'
p1153
sg19
g162
sg21
S'--'
p1154
sg23
S'09/15'
p1155
sg25
S'--'
p1156
sg27
S'--'
p1157
sg29
S'--'
p1158
sg31
S'W31-30'
p1159
sg33
S'--'
p1160
sg35
S'--'
p1161
sg37
S'MIN'
p1162
sg39
S'--'
p1163
sg41
S'--'
p1164
sg43
S'--'
p1165
ssg226
(dp1166
g5
S'--'
p1167
sg7
S'--'
p1168
sg9
g10
sg11
S'--'
p1169
sg13
g14
sg15
S'Devin Hester'
p1170
sg17
S'2013'
p1171
sg19
g226
sg21
S'--'
p1172
sg23
S'10/06'
p1173
sg25
S'--'
p1174
sg27
S'--'
p1175
sg29
S'--'
p1176
sg31
S'L18-26'
p1177
sg33
S'--'
p1178
sg35
S'--'
p1179
sg37
S'NO'
p1180
sg39
S'--'
p1181
sg41
S'--'
p1182
sg43
S'--'
p1183
ssg181
(dp1184
g5
S'--'
p1185
sg7
S'--'
p1186
sg9
g10
sg11
g10
sg13
g14
sg15
S'Devin Hester'
p1187
sg17
S'2013'
p1188
sg19
g181
sg21
S'--'
p1189
sg23
S'09/29'
p1190
sg25
S'--'
p1191
sg27
g14
sg29
S'--'
p1192
sg31
S'L32-40'
p1193
sg33
S'--'
p1194
sg35
S'--'
p1195
sg37
S'@DET'
p1196
sg39
S'--'
p1197
sg41
S'--'
p1198
sg43
S'--'
p1199
ssg392
(dp1200
g5
S'--'
p1201
sg7
S'--'
p1202
sg9
g10
sg11
S'--'
p1203
sg13
g14
sg15
S'Devin Hester'
p1204
sg17
S'2013'
p1205
sg19
g392
sg21
S'--'
p1206
sg23
S'10/20'
p1207
sg25
S'--'
p1208
sg27
S'--'
p1209
sg29
S'--'
p1210
sg31
S'L41-45'
p1211
sg33
S'--'
p1212
sg35
S'--'
p1213
sg37
S'@WAS'
p1214
sg39
S'--'
p1215
sg41
S'--'
p1216
sg43
S'--'
p1217
ssg409
(dp1218
g5
S'--'
p1219
sg7
S'--'
p1220
sg9
g10
sg11
g10
sg13
g14
sg15
S'Devin Hester'
p1221
sg17
S'2013'
p1222
sg19
g409
sg21
S'--'
p1223
sg23
S'10/10'
p1224
sg25
S'--'
p1225
sg27
g14
sg29
S'--'
p1226
sg31
S'W27-21'
p1227
sg33
S'--'
p1228
sg35
S'--'
p1229
sg37
S'NYG'
p1230
sg39
S'--'
p1231
sg41
S'--'
p1232
sg43
S'--'
p1233
ssg204
(dp1234
g5
S'--'
p1235
sg7
S'--'
p1236
sg9
g10
sg11
S'--'
p1237
sg13
g14
sg15
S'Devin Hester'
p1238
sg17
S'2013'
p1239
sg19
g204
sg21
S'--'
p1240
sg23
S'11/04'
p1241
sg25
S'--'
p1242
sg27
S'--'
p1243
sg29
S'--'
p1244
sg31
S'W27-20'
p1245
sg33
S'--'
p1246
sg35
S'--'
p1247
sg37
S'@GB'
p1248
sg39
S'--'
p1249
sg41
S'--'
p1250
sg43
S'--'
p1251
ssg431
(dp1252
g5
g427
sg7
g427
sg9
g427
sg11
g427
sg13
g427
sg15
S'Devin Hester'
p1253
sg17
S'2013'
p1254
sg19
g431
sg21
g427
sg23
S'Bye'
p1255
sg25
g427
sg27
g427
sg29
g427
sg31
g427
sg33
g427
sg35
g427
sg37
g427
sg39
g427
sg41
g427
sg43
g427
sssS'2012'
p1256
(dp1257
g202
(dp1258
g5
S'--'
p1259
sg7
S'--'
p1260
sg9
g10
sg11
g10
sg13
g14
sg15
S'Devin Hester'
p1261
sg17
S'2012'
p1262
sg19
S'11'
p1263
sg21
S'--'
p1264
sg23
S'11/19'
p1265
sg25
S'7.7'
p1266
sg27
g14
sg29
S'--'
p1267
sg31
S'L7-32'
p1268
sg33
S'23'
p1269
sg35
g143
sg37
S'@SF'
p1270
sg39
g204
sg41
g10
sg43
S'--'
p1271
ssg215
(dp1272
g5
S'--'
p1273
sg7
S'--'
p1274
sg9
g14
sg11
S'--'
p1275
sg13
g14
sg15
S'Devin Hester'
p1276
sg17
S'2012'
p1277
sg19
S'10'
p1278
sg21
S'--'
p1279
sg23
S'11/11'
p1280
sg25
S'2.0'
p1281
sg27
S'--'
p1282
sg29
S'--'
p1283
sg31
S'L6-13'
p1284
sg33
g181
sg35
g162
sg37
S'HOU'
p1285
sg39
g181
sg41
g10
sg43
S'--'
p1286
ssg3
(dp1287
g5
S'--'
p1288
sg7
S'--'
p1289
sg9
g10
sg11
S'--'
p1290
sg13
g10
sg15
S'Devin Hester'
p1291
sg17
S'2012'
p1292
sg19
S'13'
p1293
sg21
S'--'
p1294
sg23
S'12/02'
p1295
sg25
S'--'
p1296
sg27
S'--'
p1297
sg29
S'--'
p1298
sg31
S'L17-23'
p1299
sg33
S'--'
p1300
sg35
S'--'
p1301
sg37
S'SEA'
p1302
sg39
S'--'
p1303
sg41
S'--'
p1304
sg43
S'--'
p1305
ssg241
(dp1306
g5
S'--'
p1307
sg7
S'--'
p1308
sg9
g10
sg11
S'--'
p1309
sg13
g14
sg15
S'Devin Hester'
p1310
sg17
S'2012'
p1311
sg19
S'12'
p1312
sg21
S'--'
p1313
sg23
S'11/25'
p1314
sg25
S'--'
p1315
sg27
S'--'
p1316
sg29
S'--'
p1317
sg31
S'W28-10'
p1318
sg33
S'--'
p1319
sg35
S'--'
p1320
sg37
S'MIN'
p1321
sg39
S'--'
p1322
sg41
S'--'
p1323
sg43
S'--'
p1324
ssg45
(dp1325
g5
S'--'
p1326
sg7
S'--'
p1327
sg9
g10
sg11
S'--'
p1328
sg13
g14
sg15
S'Devin Hester'
p1329
sg17
S'2012'
p1330
sg19
S'15'
p1331
sg21
S'--'
p1332
sg23
S'12/16'
p1333
sg25
S'--'
p1334
sg27
S'--'
p1335
sg29
S'--'
p1336
sg31
S'L13-21'
p1337
sg33
g10
sg35
g10
sg37
S'GB'
p1338
sg39
S'--'
p1339
sg41
g10
sg43
S'--'
p1340
ssg65
(dp1341
g5
S'--'
p1342
sg7
S'--'
p1343
sg9
g10
sg11
S'--'
p1344
sg13
g14
sg15
S'Devin Hester'
p1345
sg17
S'2012'
p1346
sg19
S'14'
p1347
sg21
S'--'
p1348
sg23
S'12/09'
p1349
sg25
S'7.8'
p1350
sg27
S'--'
p1351
sg29
S'--'
p1352
sg31
S'L14-21'
p1353
sg33
S'39'
p1354
sg35
g226
sg37
S'@MIN'
p1355
sg39
S'14'
p1356
sg41
g10
sg43
S'--'
p1357
ssg85
(dp1358
g5
g10
sg7
g162
sg9
g10
sg11
S'--'
p1359
sg13
g14
sg15
S'Devin Hester'
p1360
sg17
S'2012'
p1361
sg19
S'17'
p1362
sg21
S'2.0'
p1363
sg23
S'12/30'
p1364
sg25
S'--'
p1365
sg27
S'--'
p1366
sg29
g14
sg31
S'W26-24'
p1367
sg33
S'--'
p1368
sg35
S'--'
p1369
sg37
S'@DET'
p1370
sg39
S'--'
p1371
sg41
S'--'
p1372
sg43
g162
ssg105
(dp1373
g5
S'--'
p1374
sg7
S'--'
p1375
sg9
g10
sg11
S'--'
p1376
sg13
g14
sg15
S'Devin Hester'
p1377
sg17
S'2012'
p1378
sg19
S'16'
p1379
sg21
S'--'
p1380
sg23
S'12/23'
p1381
sg25
S'--'
p1382
sg27
S'--'
p1383
sg29
S'--'
p1384
sg31
S'W28-13'
p1385
sg33
S'--'
p1386
sg35
S'--'
p1387
sg37
S'@ARI'
p1388
sg39
S'--'
p1389
sg41
S'--'
p1390
sg43
S'--'
p1391
ssg14
(dp1392
g5
g10
sg7
S'-4'
p1393
sg9
g14
sg11
S'--'
p1394
sg13
g14
sg15
S'Devin Hester'
p1395
sg17
S'2012'
p1396
sg19
g14
sg21
S'-4.0'
p1397
sg23
S'09/09'
p1398
sg25
S'13.5'
p1399
sg27
S'--'
p1400
sg29
g14
sg31
S'W41-21'
p1401
sg33
S'27'
p1402
sg35
g162
sg37
S'IND'
p1403
sg39
S'29'
p1404
sg41
g10
sg43
S'-4'
p1405
ssg143
(dp1406
g5
g10
sg7
g431
sg9
g10
sg11
S'--'
p1407
sg13
g14
sg15
S'Devin Hester'
p1408
sg17
S'2012'
p1409
sg19
g143
sg21
S'8.0'
p1410
sg23
S'09/23'
p1411
sg25
S'--'
p1412
sg27
S'--'
p1413
sg29
g14
sg31
S'W23-6'
p1414
sg33
g10
sg35
g10
sg37
S'STL'
p1415
sg39
S'--'
p1416
sg41
g10
sg43
g431
ssg162
(dp1417
g5
S'--'
p1418
sg7
S'--'
p1419
sg9
g14
sg11
S'--'
p1420
sg13
g14
sg15
S'Devin Hester'
p1421
sg17
S'2012'
p1422
sg19
g162
sg21
S'--'
p1423
sg23
S'09/13'
p1424
sg25
S'--'
p1425
sg27
S'--'
p1426
sg29
S'--'
p1427
sg31
S'L10-23'
p1428
sg33
g10
sg35
g10
sg37
S'@GB'
p1429
sg39
S'--'
p1430
sg41
g10
sg43
S'--'
p1431
ssg226
(dp1432
g5
S'--'
p1433
sg7
S'--'
p1434
sg9
g10
sg11
S'--'
p1435
sg13
g14
sg15
S'Devin Hester'
p1436
sg17
S'2012'
p1437
sg19
g226
sg21
S'--'
p1438
sg23
S'10/07'
p1439
sg25
S'24.5'
p1440
sg27
S'--'
p1441
sg29
S'--'
p1442
sg31
S'W41-3'
p1443
sg33
S'49'
p1444
sg35
g162
sg37
S'@JAC'
p1445
sg39
S'39'
p1446
sg41
g10
sg43
S'--'
p1447
ssg181
(dp1448
g5
S'--'
p1449
sg7
S'--'
p1450
sg9
g10
sg11
S'--'
p1451
sg13
g14
sg15
S'Devin Hester'
p1452
sg17
S'2012'
p1453
sg19
g181
sg21
S'--'
p1454
sg23
S'10/01'
p1455
sg25
S'12.7'
p1456
sg27
S'--'
p1457
sg29
S'--'
p1458
sg31
S'W34-18'
p1459
sg33
S'38'
p1460
sg35
g143
sg37
S'@DAL'
p1461
sg39
S'34T'
p1462
sg41
g14
sg43
S'--'
p1463
ssg392
(dp1464
g5
S'--'
p1465
sg7
S'--'
p1466
sg9
g14
sg11
S'--'
p1467
sg13
g14
sg15
S'Devin Hester'
p1468
sg17
S'2012'
p1469
sg19
g392
sg21
S'--'
p1470
sg23
S'10/22'
p1471
sg25
S'12.7'
p1472
sg27
S'--'
p1473
sg29
S'--'
p1474
sg31
S'W13-7'
p1475
sg33
S'38'
p1476
sg35
g143
sg37
S'DET'
p1477
sg39
S'23'
p1478
sg41
g10
sg43
S'--'
p1479
ssg409
(dp1480
g5
g427
sg7
g427
sg9
g427
sg11
g427
sg13
g427
sg15
S'Devin Hester'
p1481
sg17
S'2012'
p1482
sg19
g409
sg21
g427
sg23
S'Bye'
p1483
sg25
g427
sg27
g427
sg29
g427
sg31
g427
sg33
g427
sg35
g427
sg37
g427
sg39
g427
sg41
g427
sg43
g427
ssg204
(dp1484
g5
S'--'
p1485
sg7
S'--'
p1486
sg9
g14
sg11
S'--'
p1487
sg13
g14
sg15
S'Devin Hester'
p1488
sg17
S'2012'
p1489
sg19
g204
sg21
S'--'
p1490
sg23
S'11/04'
p1491
sg25
S'9.5'
p1492
sg27
S'--'
p1493
sg29
S'--'
p1494
sg31
S'W51-20'
p1495
sg33
S'19'
p1496
sg35
g162
sg37
S'@TEN'
p1497
sg39
S'14'
p1498
sg41
g10
sg43
S'--'
p1499
ssg431
(dp1500
g5
S'--'
p1501
sg7
S'--'
p1502
sg9
g10
sg11
S'--'
p1503
sg13
g14
sg15
S'Devin Hester'
p1504
sg17
S'2012'
p1505
sg19
g431
sg21
S'--'
p1506
sg23
S'10/28'
p1507
sg25
S'5.0'
p1508
sg27
S'--'
p1509
sg29
S'--'
p1510
sg31
S'W23-22'
p1511
sg33
g226
sg35
g14
sg37
S'CAR'
p1512
sg39
g226
sg41
g10
sg43
S'--'
p1513
sss.