(dp0
S'2014'
p1
(dp2
S'11'
p3
(dp4
S'RushTD'
p5
S'--'
p6
sS'RushYds'
p7
S'--'
p8
sS'GS'
p9
S'0'
p10
sS'Lost'
p11
S'--'
p12
sS'G'
p13
g10
sS'Player'
p14
S'DeVier Posey'
p15
sS'Year'
p16
S'2014'
p17
sS'WK'
p18
S'11'
p19
sS'RushAvg'
p20
S'--'
p21
sS'Game Date'
p22
S'11/16'
p23
sS'RecAvg'
p24
S'--'
p25
sS'FUM'
p26
S'--'
p27
sS'RushAtt'
p28
S'--'
p29
sS'Result'
p30
S'W23-7'
p31
sS'RecYds'
p32
S'--'
p33
sS'Rec'
p34
S'--'
p35
sS'Opp'
p36
S'@CLE'
p37
sS'RecLng'
p38
S'--'
p39
sS'RecTD'
p40
S'--'
p41
sS'RushLng'
p42
S'--'
p43
ssS'10'
p44
(dp45
g5
S''
p46
sg7
g46
sg9
g46
sg11
g46
sg13
g46
sg14
S'DeVier Posey'
p47
sg16
S'2014'
p48
sg18
S'10'
p49
sg20
g46
sg22
S'Bye'
p50
sg24
g46
sg26
g46
sg28
g46
sg30
g46
sg32
g46
sg34
g46
sg36
g46
sg38
g46
sg40
g46
sg42
g46
ssS'13'
p51
(dp52
g5
S'--'
p53
sg7
S'--'
p54
sg9
g10
sg11
S'--'
p55
sg13
g10
sg14
S'DeVier Posey'
p56
sg16
S'2014'
p57
sg18
S'13'
p58
sg20
S'--'
p59
sg22
S'11/30'
p60
sg24
S'--'
p61
sg26
S'--'
p62
sg28
S'--'
p63
sg30
S'W45-21'
p64
sg32
S'--'
p65
sg34
S'--'
p66
sg36
S'TEN'
p67
sg38
S'--'
p68
sg40
S'--'
p69
sg42
S'--'
p70
ssS'12'
p71
(dp72
g5
S'--'
p73
sg7
S'--'
p74
sg9
g10
sg11
S'--'
p75
sg13
g10
sg14
S'DeVier Posey'
p76
sg16
S'2014'
p77
sg18
S'12'
p78
sg20
S'--'
p79
sg22
S'11/23'
p80
sg24
S'--'
p81
sg26
S'--'
p82
sg28
S'--'
p83
sg30
S'L13-22'
p84
sg32
S'--'
p85
sg34
S'--'
p86
sg36
S'CIN'
p87
sg38
S'--'
p88
sg40
S'--'
p89
sg42
S'--'
p90
ssS'15'
p91
(dp92
g5
S'--'
p93
sg7
S'--'
p94
sg9
S'1'
p95
sg11
S'--'
p96
sg13
g95
sg14
S'DeVier Posey'
p97
sg16
S'2014'
p98
sg18
S'15'
p99
sg20
S'--'
p100
sg22
S'12/14'
p101
sg24
S'30.0'
p102
sg26
S'--'
p103
sg28
S'--'
p104
sg30
S'L10-17'
p105
sg32
S'30'
p106
sg34
g95
sg36
S'@IND'
p107
sg38
S'30'
p108
sg40
g10
sg42
S'--'
p109
ssS'14'
p110
(dp111
g5
S'--'
p112
sg7
S'--'
p113
sg9
g10
sg11
S'--'
p114
sg13
g10
sg14
S'DeVier Posey'
p115
sg16
S'2014'
p116
sg18
S'14'
p117
sg20
S'--'
p118
sg22
S'12/07'
p119
sg24
S'--'
p120
sg26
S'--'
p121
sg28
S'--'
p122
sg30
S'W27-13'
p123
sg32
S'--'
p124
sg34
S'--'
p125
sg36
S'@JAC'
p126
sg38
S'--'
p127
sg40
S'--'
p128
sg42
S'--'
p129
ssS'17'
p130
(dp131
g5
S'--'
p132
sg7
S'--'
p133
sg9
g10
sg11
S'--'
p134
sg13
g10
sg14
S'DeVier Posey'
p135
sg16
S'2014'
p136
sg18
S'17'
p137
sg20
S'--'
p138
sg22
S'12/28'
p139
sg24
S'--'
p140
sg26
S'--'
p141
sg28
S'--'
p142
sg30
S'W23-17'
p143
sg32
S'--'
p144
sg34
S'--'
p145
sg36
S'JAC'
p146
sg38
S'--'
p147
sg40
S'--'
p148
sg42
S'--'
p149
ssS'16'
p150
(dp151
g5
S'--'
p152
sg7
S'--'
p153
sg9
g10
sg11
S'--'
p154
sg13
g10
sg14
S'DeVier Posey'
p155
sg16
S'2014'
p156
sg18
S'16'
p157
sg20
S'--'
p158
sg22
S'12/21'
p159
sg24
S'--'
p160
sg26
S'--'
p161
sg28
S'--'
p162
sg30
S'W25-13'
p163
sg32
S'--'
p164
sg34
S'--'
p165
sg36
S'BAL'
p166
sg38
S'--'
p167
sg40
S'--'
p168
sg42
S'--'
p169
ssg95
(dp170
g5
S'--'
p171
sg7
S'--'
p172
sg9
g10
sg11
S'--'
p173
sg13
g10
sg14
S'DeVier Posey'
p174
sg16
S'2014'
p175
sg18
g95
sg20
S'--'
p176
sg22
S'09/07'
p177
sg24
S'--'
p178
sg26
S'--'
p179
sg28
S'--'
p180
sg30
S'W17-6'
p181
sg32
S'--'
p182
sg34
S'--'
p183
sg36
S'WAS'
p184
sg38
S'--'
p185
sg40
S'--'
p186
sg42
S'--'
p187
ssS'3'
p188
(dp189
g5
S'--'
p190
sg7
S'--'
p191
sg9
g10
sg11
S'--'
p192
sg13
g10
sg14
S'DeVier Posey'
p193
sg16
S'2014'
p194
sg18
g188
sg20
S'--'
p195
sg22
S'09/21'
p196
sg24
S'--'
p197
sg26
S'--'
p198
sg28
S'--'
p199
sg30
S'L17-30'
p200
sg32
S'--'
p201
sg34
S'--'
p202
sg36
S'@NYG'
p203
sg38
S'--'
p204
sg40
S'--'
p205
sg42
S'--'
p206
ssS'2'
p207
(dp208
g5
S'--'
p209
sg7
S'--'
p210
sg9
g10
sg11
S'--'
p211
sg13
g10
sg14
S'DeVier Posey'
p212
sg16
S'2014'
p213
sg18
g207
sg20
S'--'
p214
sg22
S'09/14'
p215
sg24
S'--'
p216
sg26
S'--'
p217
sg28
S'--'
p218
sg30
S'W30-14'
p219
sg32
S'--'
p220
sg34
S'--'
p221
sg36
S'@OAK'
p222
sg38
S'--'
p223
sg40
S'--'
p224
sg42
S'--'
p225
ssS'5'
p226
(dp227
g5
S'--'
p228
sg7
S'--'
p229
sg9
g10
sg11
S'--'
p230
sg13
g10
sg14
S'DeVier Posey'
p231
sg16
S'2014'
p232
sg18
g226
sg20
S'--'
p233
sg22
S'10/05'
p234
sg24
S'--'
p235
sg26
S'--'
p236
sg28
S'--'
p237
sg30
S'L17-20'
p238
sg32
S'--'
p239
sg34
S'--'
p240
sg36
S'@DAL'
p241
sg38
S'--'
p242
sg40
S'--'
p243
sg42
S'--'
p244
ssS'4'
p245
(dp246
g5
S'--'
p247
sg7
S'--'
p248
sg9
g10
sg11
S'--'
p249
sg13
g10
sg14
S'DeVier Posey'
p250
sg16
S'2014'
p251
sg18
g245
sg20
S'--'
p252
sg22
S'09/28'
p253
sg24
S'--'
p254
sg26
S'--'
p255
sg28
S'--'
p256
sg30
S'W23-17'
p257
sg32
S'--'
p258
sg34
S'--'
p259
sg36
S'BUF'
p260
sg38
S'--'
p261
sg40
S'--'
p262
sg42
S'--'
p263
ssS'7'
p264
(dp265
g5
S'--'
p266
sg7
S'--'
p267
sg9
g10
sg11
S'--'
p268
sg13
g10
sg14
S'DeVier Posey'
p269
sg16
S'2014'
p270
sg18
g264
sg20
S'--'
p271
sg22
S'10/20'
p272
sg24
S'--'
p273
sg26
S'--'
p274
sg28
S'--'
p275
sg30
S'L23-30'
p276
sg32
S'--'
p277
sg34
S'--'
p278
sg36
S'@PIT'
p279
sg38
S'--'
p280
sg40
S'--'
p281
sg42
S'--'
p282
ssS'6'
p283
(dp284
g5
S'--'
p285
sg7
S'--'
p286
sg9
g10
sg11
S'--'
p287
sg13
g10
sg14
S'DeVier Posey'
p288
sg16
S'2014'
p289
sg18
g283
sg20
S'--'
p290
sg22
S'10/09'
p291
sg24
S'--'
p292
sg26
S'--'
p293
sg28
S'--'
p294
sg30
S'L28-33'
p295
sg32
S'--'
p296
sg34
S'--'
p297
sg36
S'IND'
p298
sg38
S'--'
p299
sg40
S'--'
p300
sg42
S'--'
p301
ssS'9'
p302
(dp303
g5
S'--'
p304
sg7
S'--'
p305
sg9
g10
sg11
S'--'
p306
sg13
g10
sg14
S'DeVier Posey'
p307
sg16
S'2014'
p308
sg18
g302
sg20
S'--'
p309
sg22
S'11/02'
p310
sg24
S'--'
p311
sg26
S'--'
p312
sg28
S'--'
p313
sg30
S'L21-31'
p314
sg32
S'--'
p315
sg34
S'--'
p316
sg36
S'PHI'
p317
sg38
S'--'
p318
sg40
S'--'
p319
sg42
S'--'
p320
ssS'8'
p321
(dp322
g5
S'--'
p323
sg7
S'--'
p324
sg9
g10
sg11
S'--'
p325
sg13
g10
sg14
S'DeVier Posey'
p326
sg16
S'2014'
p327
sg18
g321
sg20
S'--'
p328
sg22
S'10/26'
p329
sg24
S'--'
p330
sg26
S'--'
p331
sg28
S'--'
p332
sg30
S'W30-16'
p333
sg32
S'--'
p334
sg34
S'--'
p335
sg36
S'@TEN'
p336
sg38
S'--'
p337
sg40
S'--'
p338
sg42
S'--'
p339
sssS'2013'
p340
(dp341
g3
(dp342
g5
S'--'
p343
sg7
S'--'
p344
sg9
g10
sg11
S'--'
p345
sg13
g95
sg14
S'DeVier Posey'
p346
sg16
S'2013'
p347
sg18
S'11'
p348
sg20
S'--'
p349
sg22
S'11/17'
p350
sg24
S'5.0'
p351
sg26
S'--'
p352
sg28
S'--'
p353
sg30
S'L23-28'
p354
sg32
g226
sg34
g95
sg36
S'OAK'
p355
sg38
g226
sg40
g10
sg42
S'--'
p356
ssg44
(dp357
g5
S'--'
p358
sg7
S'--'
p359
sg9
g10
sg11
S'--'
p360
sg13
g95
sg14
S'DeVier Posey'
p361
sg16
S'2013'
p362
sg18
S'10'
p363
sg20
S'--'
p364
sg22
S'11/10'
p365
sg24
S'11.3'
p366
sg26
S'--'
p367
sg28
S'--'
p368
sg30
S'L24-27'
p369
sg32
S'34'
p370
sg34
g188
sg36
S'@ARI'
p371
sg38
S'12'
p372
sg40
g10
sg42
S'--'
p373
ssg51
(dp374
g5
S'--'
p375
sg7
S'--'
p376
sg9
g10
sg11
S'--'
p377
sg13
g95
sg14
S'DeVier Posey'
p378
sg16
S'2013'
p379
sg18
S'13'
p380
sg20
S'--'
p381
sg22
S'12/01'
p382
sg24
S'--'
p383
sg26
S'--'
p384
sg28
S'--'
p385
sg30
S'L31-34'
p386
sg32
S'--'
p387
sg34
S'--'
p388
sg36
S'NE'
p389
sg38
S'--'
p390
sg40
S'--'
p391
sg42
S'--'
p392
ssg71
(dp393
g5
S'--'
p394
sg7
S'--'
p395
sg9
g10
sg11
S'--'
p396
sg13
g95
sg14
S'DeVier Posey'
p397
sg16
S'2013'
p398
sg18
S'12'
p399
sg20
S'--'
p400
sg22
S'11/24'
p401
sg24
S'5.0'
p402
sg26
S'--'
p403
sg28
S'--'
p404
sg30
S'L6-13'
p405
sg32
g226
sg34
g95
sg36
S'JAC'
p406
sg38
g226
sg40
g10
sg42
S'--'
p407
ssg91
(dp408
g5
S'--'
p409
sg7
S'--'
p410
sg9
g10
sg11
S'--'
p411
sg13
g95
sg14
S'DeVier Posey'
p412
sg16
S'2013'
p413
sg18
S'15'
p414
sg20
S'--'
p415
sg22
S'12/15'
p416
sg24
S'--'
p417
sg26
S'--'
p418
sg28
S'--'
p419
sg30
S'L3-25'
p420
sg32
S'--'
p421
sg34
S'--'
p422
sg36
S'@IND'
p423
sg38
S'--'
p424
sg40
S'--'
p425
sg42
S'--'
p426
ssg110
(dp427
g5
S'--'
p428
sg7
S'--'
p429
sg9
g10
sg11
S'--'
p430
sg13
g95
sg14
S'DeVier Posey'
p431
sg16
S'2013'
p432
sg18
S'14'
p433
sg20
S'--'
p434
sg22
S'12/05'
p435
sg24
S'9.0'
p436
sg26
S'--'
p437
sg28
S'--'
p438
sg30
S'L20-27'
p439
sg32
g302
sg34
g95
sg36
S'@JAC'
p440
sg38
g302
sg40
g10
sg42
S'--'
p441
ssg130
(dp442
g5
S'--'
p443
sg7
S'--'
p444
sg9
g10
sg11
S'--'
p445
sg13
g10
sg14
S'DeVier Posey'
p446
sg16
S'2013'
p447
sg18
S'17'
p448
sg20
S'--'
p449
sg22
S'12/29'
p450
sg24
S'--'
p451
sg26
S'--'
p452
sg28
S'--'
p453
sg30
S'L10-16'
p454
sg32
S'--'
p455
sg34
S'--'
p456
sg36
S'@TEN'
p457
sg38
S'--'
p458
sg40
S'--'
p459
sg42
S'--'
p460
ssg150
(dp461
g5
S'--'
p462
sg7
S'--'
p463
sg9
g10
sg11
S'--'
p464
sg13
g10
sg14
S'DeVier Posey'
p465
sg16
S'2013'
p466
sg18
S'16'
p467
sg20
S'--'
p468
sg22
S'12/22'
p469
sg24
S'--'
p470
sg26
S'--'
p471
sg28
S'--'
p472
sg30
S'L13-37'
p473
sg32
S'--'
p474
sg34
S'--'
p475
sg36
S'DEN'
p476
sg38
S'--'
p477
sg40
S'--'
p478
sg42
S'--'
p479
ssg95
(dp480
g5
S'--'
p481
sg7
S'--'
p482
sg9
g10
sg11
S'--'
p483
sg13
g95
sg14
S'DeVier Posey'
p484
sg16
S'2013'
p485
sg18
g95
sg20
S'--'
p486
sg22
S'09/09'
p487
sg24
S'--'
p488
sg26
S'--'
p489
sg28
S'--'
p490
sg30
S'W31-28'
p491
sg32
S'--'
p492
sg34
S'--'
p493
sg36
S'@SD'
p494
sg38
S'--'
p495
sg40
S'--'
p496
sg42
S'--'
p497
ssg188
(dp498
g5
S'--'
p499
sg7
S'--'
p500
sg9
g10
sg11
S'--'
p501
sg13
g95
sg14
S'DeVier Posey'
p502
sg16
S'2013'
p503
sg18
g188
sg20
S'--'
p504
sg22
S'09/22'
p505
sg24
S'9.7'
p506
sg26
S'--'
p507
sg28
S'--'
p508
sg30
S'L9-30'
p509
sg32
S'29'
p510
sg34
g188
sg36
S'@BAL'
p511
sg38
S'14'
p512
sg40
g10
sg42
S'--'
p513
ssg207
(dp514
g5
S'--'
p515
sg7
S'--'
p516
sg9
g10
sg11
S'--'
p517
sg13
g95
sg14
S'DeVier Posey'
p518
sg16
S'2013'
p519
sg18
g207
sg20
S'--'
p520
sg22
S'09/15'
p521
sg24
S'--'
p522
sg26
S'--'
p523
sg28
S'--'
p524
sg30
S'W30-24'
p525
sg32
S'--'
p526
sg34
S'--'
p527
sg36
S'TEN'
p528
sg38
S'--'
p529
sg40
S'--'
p530
sg42
S'--'
p531
ssg226
(dp532
g5
S'--'
p533
sg7
S'--'
p534
sg9
g10
sg11
S'--'
p535
sg13
g95
sg14
S'DeVier Posey'
p536
sg16
S'2013'
p537
sg18
g226
sg20
S'--'
p538
sg22
S'10/06'
p539
sg24
S'5.0'
p540
sg26
S'--'
p541
sg28
S'--'
p542
sg30
S'L3-34'
p543
sg32
g226
sg34
g95
sg36
S'@SF'
p544
sg38
g226
sg40
g10
sg42
S'--'
p545
ssg245
(dp546
g5
S'--'
p547
sg7
S'--'
p548
sg9
g10
sg11
S'--'
p549
sg13
g95
sg14
S'DeVier Posey'
p550
sg16
S'2013'
p551
sg18
g245
sg20
S'--'
p552
sg22
S'09/29'
p553
sg24
S'--'
p554
sg26
S'--'
p555
sg28
S'--'
p556
sg30
S'L20-23'
p557
sg32
S'--'
p558
sg34
S'--'
p559
sg36
S'SEA'
p560
sg38
S'--'
p561
sg40
S'--'
p562
sg42
S'--'
p563
ssg264
(dp564
g5
S'--'
p565
sg7
S'--'
p566
sg9
g10
sg11
S'--'
p567
sg13
g95
sg14
S'DeVier Posey'
p568
sg16
S'2013'
p569
sg18
g264
sg20
S'--'
p570
sg22
S'10/20'
p571
sg24
S'42.0'
p572
sg26
S'--'
p573
sg28
S'--'
p574
sg30
S'L16-17'
p575
sg32
S'42'
p576
sg34
g95
sg36
S'@KC'
p577
sg38
S'42'
p578
sg40
g10
sg42
S'--'
p579
ssg283
(dp580
g5
S'--'
p581
sg7
S'--'
p582
sg9
g10
sg11
S'--'
p583
sg13
g95
sg14
S'DeVier Posey'
p584
sg16
S'2013'
p585
sg18
g283
sg20
S'--'
p586
sg22
S'10/13'
p587
sg24
S'3.0'
p588
sg26
S'--'
p589
sg28
S'--'
p590
sg30
S'L13-38'
p591
sg32
g188
sg34
g95
sg36
S'STL'
p592
sg38
g188
sg40
g10
sg42
S'--'
p593
ssg302
(dp594
g5
S'--'
p595
sg7
S'--'
p596
sg9
g10
sg11
S'--'
p597
sg13
g95
sg14
S'DeVier Posey'
p598
sg16
S'2013'
p599
sg18
g302
sg20
S'--'
p600
sg22
S'11/03'
p601
sg24
S'7.7'
p602
sg26
S'--'
p603
sg28
S'--'
p604
sg30
S'L24-27'
p605
sg32
S'23'
p606
sg34
g188
sg36
S'IND'
p607
sg38
S'12'
p608
sg40
g10
sg42
S'--'
p609
ssg321
(dp610
g5
g46
sg7
g46
sg9
g46
sg11
g46
sg13
g46
sg14
S'DeVier Posey'
p611
sg16
S'2013'
p612
sg18
g321
sg20
g46
sg22
S'Bye'
p613
sg24
g46
sg26
g46
sg28
g46
sg30
g46
sg32
g46
sg34
g46
sg36
g46
sg38
g46
sg40
g46
sg42
g46
sssS'2012'
p614
(dp615
g3
(dp616
g5
S'--'
p617
sg7
S'--'
p618
sg9
g10
sg11
S'--'
p619
sg13
g95
sg14
S'DeVier Posey'
p620
sg16
S'2012'
p621
sg18
S'11'
p622
sg20
S'--'
p623
sg22
S'11/18'
p624
sg24
S'--'
p625
sg26
S'--'
p626
sg28
S'--'
p627
sg30
S'W43-37'
p628
sg32
S'--'
p629
sg34
S'--'
p630
sg36
S'JAC'
p631
sg38
S'--'
p632
sg40
S'--'
p633
sg42
S'--'
p634
ssg44
(dp635
g5
S'--'
p636
sg7
S'--'
p637
sg9
g10
sg11
S'--'
p638
sg13
g95
sg14
S'DeVier Posey'
p639
sg16
S'2012'
p640
sg18
S'10'
p641
sg20
S'--'
p642
sg22
S'11/11'
p643
sg24
S'--'
p644
sg26
S'--'
p645
sg28
S'--'
p646
sg30
S'W13-6'
p647
sg32
S'--'
p648
sg34
S'--'
p649
sg36
S'@CHI'
p650
sg38
S'--'
p651
sg40
S'--'
p652
sg42
S'--'
p653
ssg51
(dp654
g5
S'--'
p655
sg7
S'--'
p656
sg9
g10
sg11
S'--'
p657
sg13
g95
sg14
S'DeVier Posey'
p658
sg16
S'2012'
p659
sg18
S'13'
p660
sg20
S'--'
p661
sg22
S'12/02'
p662
sg24
S'--'
p663
sg26
S'--'
p664
sg28
S'--'
p665
sg30
S'W24-10'
p666
sg32
S'--'
p667
sg34
S'--'
p668
sg36
S'@TEN'
p669
sg38
S'--'
p670
sg40
S'--'
p671
sg42
S'--'
p672
ssg71
(dp673
g5
S'--'
p674
sg7
S'--'
p675
sg9
g10
sg11
S'--'
p676
sg13
g10
sg14
S'DeVier Posey'
p677
sg16
S'2012'
p678
sg18
S'12'
p679
sg20
S'--'
p680
sg22
S'11/22'
p681
sg24
S'--'
p682
sg26
S'--'
p683
sg28
S'--'
p684
sg30
S'W34-31'
p685
sg32
S'--'
p686
sg34
S'--'
p687
sg36
S'@DET'
p688
sg38
S'--'
p689
sg40
S'--'
p690
sg42
S'--'
p691
ssg91
(dp692
g5
S'--'
p693
sg7
S'--'
p694
sg9
g10
sg11
S'--'
p695
sg13
g95
sg14
S'DeVier Posey'
p696
sg16
S'2012'
p697
sg18
S'15'
p698
sg20
S'--'
p699
sg22
S'12/16'
p700
sg24
S'15.3'
p701
sg26
S'--'
p702
sg28
S'--'
p703
sg30
S'W29-17'
p704
sg32
S'46'
p705
sg34
g188
sg36
S'IND'
p706
sg38
S'36'
p707
sg40
g10
sg42
S'--'
p708
ssg110
(dp709
g5
S'--'
p710
sg7
S'--'
p711
sg9
g10
sg11
S'--'
p712
sg13
g95
sg14
S'DeVier Posey'
p713
sg16
S'2012'
p714
sg18
S'14'
p715
sg20
S'--'
p716
sg22
S'12/10'
p717
sg24
S'19.0'
p718
sg26
S'--'
p719
sg28
S'--'
p720
sg30
S'L14-42'
p721
sg32
S'19'
p722
sg34
g95
sg36
S'@NE'
p723
sg38
S'19'
p724
sg40
g10
sg42
S'--'
p725
ssg130
(dp726
g5
S'--'
p727
sg7
S'--'
p728
sg9
g10
sg11
S'--'
p729
sg13
g95
sg14
S'DeVier Posey'
p730
sg16
S'2012'
p731
sg18
S'17'
p732
sg20
S'--'
p733
sg22
S'12/30'
p734
sg24
S'16.0'
p735
sg26
S'--'
p736
sg28
S'--'
p737
sg30
S'L16-28'
p738
sg32
S'16'
p739
sg34
g95
sg36
S'@IND'
p740
sg38
S'16'
p741
sg40
g10
sg42
S'--'
p742
ssg150
(dp743
g5
S'--'
p744
sg7
S'--'
p745
sg9
g10
sg11
S'--'
p746
sg13
g95
sg14
S'DeVier Posey'
p747
sg16
S'2012'
p748
sg18
S'16'
p749
sg20
S'--'
p750
sg22
S'12/23'
p751
sg24
S'6.0'
p752
sg26
S'--'
p753
sg28
S'--'
p754
sg30
S'L6-23'
p755
sg32
g283
sg34
g95
sg36
S'MIN'
p756
sg38
g283
sg40
g10
sg42
S'--'
p757
ssg95
(dp758
g5
S'--'
p759
sg7
S'--'
p760
sg9
g10
sg11
S'--'
p761
sg13
g10
sg14
S'DeVier Posey'
p762
sg16
S'2012'
p763
sg18
g95
sg20
S'--'
p764
sg22
S'09/09'
p765
sg24
S'--'
p766
sg26
S'--'
p767
sg28
S'--'
p768
sg30
S'W30-10'
p769
sg32
S'--'
p770
sg34
S'--'
p771
sg36
S'MIA'
p772
sg38
S'--'
p773
sg40
S'--'
p774
sg42
S'--'
p775
ssg188
(dp776
g5
S'--'
p777
sg7
S'--'
p778
sg9
g10
sg11
S'--'
p779
sg13
g10
sg14
S'DeVier Posey'
p780
sg16
S'2012'
p781
sg18
g188
sg20
S'--'
p782
sg22
S'09/23'
p783
sg24
S'--'
p784
sg26
S'--'
p785
sg28
S'--'
p786
sg30
S'W31-25'
p787
sg32
S'--'
p788
sg34
S'--'
p789
sg36
S'@DEN'
p790
sg38
S'--'
p791
sg40
S'--'
p792
sg42
S'--'
p793
ssg207
(dp794
g5
S'--'
p795
sg7
S'--'
p796
sg9
g10
sg11
S'--'
p797
sg13
g10
sg14
S'DeVier Posey'
p798
sg16
S'2012'
p799
sg18
g207
sg20
S'--'
p800
sg22
S'09/16'
p801
sg24
S'--'
p802
sg26
S'--'
p803
sg28
S'--'
p804
sg30
S'W27-7'
p805
sg32
S'--'
p806
sg34
S'--'
p807
sg36
S'@JAC'
p808
sg38
S'--'
p809
sg40
S'--'
p810
sg42
S'--'
p811
ssg226
(dp812
g5
g10
sg7
S'-3'
p813
sg9
g10
sg11
S'--'
p814
sg13
g95
sg14
S'DeVier Posey'
p815
sg16
S'2012'
p816
sg18
g226
sg20
S'-3.0'
p817
sg22
S'10/08'
p818
sg24
S'--'
p819
sg26
S'--'
p820
sg28
g95
sg30
S'W23-17'
p821
sg32
S'--'
p822
sg34
S'--'
p823
sg36
S'@NYJ'
p824
sg38
S'--'
p825
sg40
S'--'
p826
sg42
S'-3'
p827
ssg245
(dp828
g5
S'--'
p829
sg7
S'--'
p830
sg9
g10
sg11
S'--'
p831
sg13
g95
sg14
S'DeVier Posey'
p832
sg16
S'2012'
p833
sg18
g245
sg20
S'--'
p834
sg22
S'09/30'
p835
sg24
S'--'
p836
sg26
S'--'
p837
sg28
S'--'
p838
sg30
S'W38-14'
p839
sg32
S'--'
p840
sg34
S'--'
p841
sg36
S'TEN'
p842
sg38
S'--'
p843
sg40
S'--'
p844
sg42
S'--'
p845
ssg264
(dp846
g5
S'--'
p847
sg7
S'--'
p848
sg9
g10
sg11
S'--'
p849
sg13
g95
sg14
S'DeVier Posey'
p850
sg16
S'2012'
p851
sg18
g264
sg20
S'--'
p852
sg22
S'10/21'
p853
sg24
S'--'
p854
sg26
S'--'
p855
sg28
S'--'
p856
sg30
S'W43-13'
p857
sg32
S'--'
p858
sg34
S'--'
p859
sg36
S'BAL'
p860
sg38
S'--'
p861
sg40
S'--'
p862
sg42
S'--'
p863
ssg283
(dp864
g5
S'--'
p865
sg7
S'--'
p866
sg9
g10
sg11
S'--'
p867
sg13
g95
sg14
S'DeVier Posey'
p868
sg16
S'2012'
p869
sg18
g283
sg20
S'--'
p870
sg22
S'10/14'
p871
sg24
S'--'
p872
sg26
S'--'
p873
sg28
S'--'
p874
sg30
S'L24-42'
p875
sg32
g10
sg34
g10
sg36
S'GB'
p876
sg38
S'--'
p877
sg40
g10
sg42
S'--'
p878
ssg302
(dp879
g5
S'--'
p880
sg7
S'--'
p881
sg9
g10
sg11
S'--'
p882
sg13
g10
sg14
S'DeVier Posey'
p883
sg16
S'2012'
p884
sg18
g302
sg20
S'--'
p885
sg22
S'11/04'
p886
sg24
S'--'
p887
sg26
S'--'
p888
sg28
S'--'
p889
sg30
S'W21-9'
p890
sg32
S'--'
p891
sg34
S'--'
p892
sg36
S'BUF'
p893
sg38
S'--'
p894
sg40
S'--'
p895
sg42
S'--'
p896
ssg321
(dp897
g5
g46
sg7
g46
sg9
g46
sg11
g46
sg13
g46
sg14
S'DeVier Posey'
p898
sg16
S'2012'
p899
sg18
g321
sg20
g46
sg22
S'Bye'
p900
sg24
g46
sg26
g46
sg28
g46
sg30
g46
sg32
g46
sg34
g46
sg36
g46
sg38
g46
sg40
g46
sg42
g46
sss.