(dp0
S'2015'
p1
(dp2
S'11'
p3
(dp4
S'RushTD'
p5
S'--'
p6
sS'RushYds'
p7
S'--'
p8
sS'GS'
p9
S'1'
p10
sS'Lost'
p11
S'--'
p12
sS'G'
p13
g10
sS'Player'
p14
S'Devin Funchess'
p15
sS'Year'
p16
S'2015'
p17
sS'WK'
p18
S'11'
p19
sS'RushAvg'
p20
S'--'
p21
sS'Game Date'
p22
S'11/22'
p23
sS'RecAvg'
p24
S'16.0'
p25
sS'FUM'
p26
S'--'
p27
sS'RushAtt'
p28
S'--'
p29
sS'Result'
p30
S'W44-16'
p31
sS'RecYds'
p32
S'64'
p33
sS'Rec'
p34
S'4'
p35
sS'Opp'
p36
S'WAS'
p37
sS'RecLng'
p38
S'35'
p39
sS'RecTD'
p40
g10
sS'RushLng'
p41
S'--'
p42
ssS'10'
p43
(dp44
g5
S'--'
p45
sg7
S'--'
p46
sg9
S'0'
p47
sg11
S'--'
p48
sg13
g10
sg14
S'Devin Funchess'
p49
sg16
S'2015'
p50
sg18
S'10'
p51
sg20
S'--'
p52
sg22
S'11/15'
p53
sg24
S'20.5'
p54
sg26
S'--'
p55
sg28
S'--'
p56
sg30
S'W27-10'
p57
sg32
S'41'
p58
sg34
S'2'
p59
sg36
S'@TEN'
p60
sg38
S'27'
p61
sg40
g47
sg41
S'--'
p62
ssS'13'
p63
(dp64
g5
S'--'
p65
sg7
S'--'
p66
sg9
g10
sg11
S'--'
p67
sg13
g10
sg14
S'Devin Funchess'
p68
sg16
S'2015'
p69
sg18
S'13'
p70
sg20
S'--'
p71
sg22
S'12/06'
p72
sg24
S'13.0'
p73
sg26
S'--'
p74
sg28
S'--'
p75
sg30
S'W41-38'
p76
sg32
S'13'
p77
sg34
g10
sg36
S'@NO'
p78
sg38
S'13T'
p79
sg40
g10
sg41
S'--'
p80
ssS'12'
p81
(dp82
g5
S'--'
p83
sg7
S'--'
p84
sg9
g10
sg11
S'--'
p85
sg13
g10
sg14
S'Devin Funchess'
p86
sg16
S'2015'
p87
sg18
S'12'
p88
sg20
S'--'
p89
sg22
S'11/26'
p90
sg24
S'9.5'
p91
sg26
S'--'
p92
sg28
S'--'
p93
sg30
S'W33-14'
p94
sg32
S'19'
p95
sg34
g59
sg36
S'@DAL'
p96
sg38
S'15'
p97
sg40
g47
sg41
S'--'
p98
ssS'15'
p99
(dp100
g5
S'--'
p101
sg7
S'--'
p102
sg9
g10
sg11
S'--'
p103
sg13
g10
sg14
S'Devin Funchess'
p104
sg16
S'2015'
p105
sg18
S'15'
p106
sg20
S'--'
p107
sg22
S'12/20'
p108
sg24
S'15.0'
p109
sg26
S'--'
p110
sg28
S'--'
p111
sg30
S'W38-35'
p112
sg32
S'30'
p113
sg34
g59
sg36
S'@NYG'
p114
sg38
S'16'
p115
sg40
g10
sg41
S'--'
p116
ssS'14'
p117
(dp118
g5
S'--'
p119
sg7
S'--'
p120
sg9
g47
sg11
S'--'
p121
sg13
g10
sg14
S'Devin Funchess'
p122
sg16
S'2015'
p123
sg18
S'14'
p124
sg20
S'--'
p125
sg22
S'12/13'
p126
sg24
S'8.3'
p127
sg26
S'--'
p128
sg28
S'--'
p129
sg30
S'W38-0'
p130
sg32
S'25'
p131
sg34
S'3'
p132
sg36
S'ATL'
p133
sg38
S'11'
p134
sg40
g47
sg41
S'--'
p135
ssS'17'
p136
(dp137
g5
S'--'
p138
sg7
S'--'
p139
sg9
g10
sg11
g10
sg13
g10
sg14
S'Devin Funchess'
p140
sg16
S'2015'
p141
sg18
S'17'
p142
sg20
S'--'
p143
sg22
S'01/03'
p144
sg24
S'17.1'
p145
sg26
g10
sg28
S'--'
p146
sg30
S'W38-10'
p147
sg32
S'120'
p148
sg34
S'7'
p149
sg36
S'TB'
p150
sg38
S'41'
p151
sg40
g10
sg41
S'--'
p152
ssS'16'
p153
(dp154
g5
S'--'
p155
sg7
S'--'
p156
sg9
g47
sg11
S'--'
p157
sg13
g10
sg14
S'Devin Funchess'
p158
sg16
S'2015'
p159
sg18
S'16'
p160
sg20
S'--'
p161
sg22
S'12/27'
p162
sg24
S'--'
p163
sg26
S'--'
p164
sg28
S'--'
p165
sg30
S'L13-20'
p166
sg32
g47
sg34
g47
sg36
S'@ATL'
p167
sg38
S'--'
p168
sg40
g47
sg41
S'--'
p169
ssg10
(dp170
g5
S'--'
p171
sg7
S'--'
p172
sg9
g47
sg11
S'--'
p173
sg13
g10
sg14
S'Devin Funchess'
p174
sg16
S'2015'
p175
sg18
g10
sg20
S'--'
p176
sg22
S'09/13'
p177
sg24
S'9.0'
p178
sg26
S'--'
p179
sg28
S'--'
p180
sg30
S'W20-9'
p181
sg32
S'9'
p182
sg34
g10
sg36
S'@JAC'
p183
sg38
g182
sg40
g47
sg41
S'--'
p184
ssg132
(dp185
g5
S'--'
p186
sg7
S'--'
p187
sg9
g47
sg11
S'--'
p188
sg13
g10
sg14
S'Devin Funchess'
p189
sg16
S'2015'
p190
sg18
g132
sg20
S'--'
p191
sg22
S'09/27'
p192
sg24
S'14.0'
p193
sg26
S'--'
p194
sg28
S'--'
p195
sg30
S'W27-22'
p196
sg32
S'14'
p197
sg34
g10
sg36
S'NO'
p198
sg38
S'14'
p199
sg40
g47
sg41
S'--'
p200
ssg59
(dp201
g5
S'--'
p202
sg7
S'--'
p203
sg9
g47
sg11
S'--'
p204
sg13
g10
sg14
S'Devin Funchess'
p205
sg16
S'2015'
p206
sg18
g59
sg20
S'--'
p207
sg22
S'09/20'
p208
sg24
S'15.0'
p209
sg26
S'--'
p210
sg28
S'--'
p211
sg30
S'W24-17'
p212
sg32
S'15'
p213
sg34
g10
sg36
S'HOU'
p214
sg38
S'15'
p215
sg40
g47
sg41
S'--'
p216
ssS'5'
p217
(dp218
g5
S''
p219
sg7
g219
sg9
g219
sg11
g219
sg13
g219
sg14
S'Devin Funchess'
p220
sg16
S'2015'
p221
sg18
g217
sg20
g219
sg22
S'Bye'
p222
sg24
g219
sg26
g219
sg28
g219
sg30
g219
sg32
g219
sg34
g219
sg36
g219
sg38
g219
sg40
g219
sg41
g219
ssg35
(dp223
g5
S'--'
p224
sg7
S'--'
p225
sg9
g47
sg11
S'--'
p226
sg13
g10
sg14
S'Devin Funchess'
p227
sg16
S'2015'
p228
sg18
g35
sg20
S'--'
p229
sg22
S'10/04'
p230
sg24
S'--'
p231
sg26
S'--'
p232
sg28
S'--'
p233
sg30
S'W37-23'
p234
sg32
g47
sg34
g47
sg36
S'@TB'
p235
sg38
S'--'
p236
sg40
g47
sg41
S'--'
p237
ssg149
(dp238
g5
S'--'
p239
sg7
S'--'
p240
sg9
g47
sg11
S'--'
p241
sg13
g10
sg14
S'Devin Funchess'
p242
sg16
S'2015'
p243
sg18
g149
sg20
S'--'
p244
sg22
S'10/25'
p245
sg24
S'20.0'
p246
sg26
S'--'
p247
sg28
S'--'
p248
sg30
S'W27-16'
p249
sg32
S'20'
p250
sg34
g10
sg36
S'PHI'
p251
sg38
S'20'
p252
sg40
g47
sg41
S'--'
p253
ssS'6'
p254
(dp255
g5
S'--'
p256
sg7
S'--'
p257
sg9
g47
sg11
S'--'
p258
sg13
g10
sg14
S'Devin Funchess'
p259
sg16
S'2015'
p260
sg18
g254
sg20
S'--'
p261
sg22
S'10/18'
p262
sg24
S'12.0'
p263
sg26
S'--'
p264
sg28
S'--'
p265
sg30
S'W27-23'
p266
sg32
S'24'
p267
sg34
g59
sg36
S'@SEA'
p268
sg38
S'16'
p269
sg40
g47
sg41
S'--'
p270
ssg182
(dp271
g5
S'--'
p272
sg7
S'--'
p273
sg9
g47
sg11
S'--'
p274
sg13
g10
sg14
S'Devin Funchess'
p275
sg16
S'2015'
p276
sg18
g182
sg20
S'--'
p277
sg22
S'11/08'
p278
sg24
S'23.7'
p279
sg26
S'--'
p280
sg28
S'--'
p281
sg30
S'W37-29'
p282
sg32
S'71'
p283
sg34
g132
sg36
S'GB'
p284
sg38
S'52'
p285
sg40
g10
sg41
S'--'
p286
ssS'8'
p287
(dp288
g5
S'--'
p289
sg7
S'--'
p290
sg9
g47
sg11
S'--'
p291
sg13
g10
sg14
S'Devin Funchess'
p292
sg16
S'2015'
p293
sg18
g287
sg20
S'--'
p294
sg22
S'11/02'
p295
sg24
S'8.0'
p296
sg26
S'--'
p297
sg28
S'--'
p298
sg30
S'W29-26'
p299
sg32
g287
sg34
g10
sg36
S'IND'
p300
sg38
g287
sg40
g47
sg41
S'--'
p301
sss.