(dp0
S'2015'
p1
(dp2
S'11'
p3
(dp4
S'RushTD'
p5
S'--'
p6
sS'RushYds'
p7
S'--'
p8
sS'GS'
p9
S'1'
p10
sS'Lost'
p11
S'--'
p12
sS'G'
p13
g10
sS'Player'
p14
S'Dontrelle Inman'
p15
sS'Year'
p16
S'2015'
p17
sS'WK'
p18
S'11'
p19
sS'RushAvg'
p20
S'--'
p21
sS'Game Date'
p22
S'11/22'
p23
sS'RecAvg'
p24
S'17.0'
p25
sS'FUM'
p26
S'--'
p27
sS'RushAtt'
p28
S'--'
p29
sS'Result'
p30
S'L3-33'
p31
sS'RecYds'
p32
S'51'
p33
sS'Rec'
p34
S'3'
p35
sS'Opp'
p36
S'KC'
p37
sS'RecLng'
p38
S'27'
p39
sS'RecTD'
p40
S'0'
p41
sS'RushLng'
p42
S'--'
p43
ssS'10'
p44
(dp45
g5
S''
p46
sg7
g46
sg9
g46
sg11
g46
sg13
g46
sg14
S'Dontrelle Inman'
p47
sg16
S'2015'
p48
sg18
S'10'
p49
sg20
g46
sg22
S'Bye'
p50
sg24
g46
sg26
g46
sg28
g46
sg30
g46
sg32
g46
sg34
g46
sg36
g46
sg38
g46
sg40
g46
sg42
g46
ssS'13'
p51
(dp52
g5
S'--'
p53
sg7
S'--'
p54
sg9
g10
sg11
S'--'
p55
sg13
g10
sg14
S'Dontrelle Inman'
p56
sg16
S'2015'
p57
sg18
S'13'
p58
sg20
S'--'
p59
sg22
S'12/06'
p60
sg24
S'15.0'
p61
sg26
S'--'
p62
sg28
S'--'
p63
sg30
S'L3-17'
p64
sg32
S'15'
p65
sg34
g10
sg36
S'DEN'
p66
sg38
S'15'
p67
sg40
g41
sg42
S'--'
p68
ssS'12'
p69
(dp70
g5
S'--'
p71
sg7
S'--'
p72
sg9
g10
sg11
S'--'
p73
sg13
g10
sg14
S'Dontrelle Inman'
p74
sg16
S'2015'
p75
sg18
S'12'
p76
sg20
S'--'
p77
sg22
S'11/29'
p78
sg24
S'13.0'
p79
sg26
S'--'
p80
sg28
S'--'
p81
sg30
S'W31-25'
p82
sg32
S'65'
p83
sg34
S'5'
p84
sg36
S'@JAC'
p85
sg38
S'23'
p86
sg40
g10
sg42
S'--'
p87
ssS'15'
p88
(dp89
g5
S'--'
p90
sg7
S'--'
p91
sg9
g10
sg11
S'--'
p92
sg13
g10
sg14
S'Dontrelle Inman'
p93
sg16
S'2015'
p94
sg18
S'15'
p95
sg20
S'--'
p96
sg22
S'12/20'
p97
sg24
S'26.0'
p98
sg26
S'--'
p99
sg28
S'--'
p100
sg30
S'W30-14'
p101
sg32
S'78'
p102
sg34
g35
sg36
S'MIA'
p103
sg38
S'31'
p104
sg40
g41
sg42
S'--'
p105
ssS'14'
p106
(dp107
g5
S'--'
p108
sg7
S'--'
p109
sg9
g41
sg11
S'--'
p110
sg13
g41
sg14
S'Dontrelle Inman'
p111
sg16
S'2015'
p112
sg18
S'14'
p113
sg20
S'--'
p114
sg22
S'12/13'
p115
sg24
S'--'
p116
sg26
S'--'
p117
sg28
S'--'
p118
sg30
S'L3-10'
p119
sg32
S'--'
p120
sg34
S'--'
p121
sg36
S'@KC'
p122
sg38
S'--'
p123
sg40
S'--'
p124
sg42
S'--'
p125
ssS'17'
p126
(dp127
g5
S'--'
p128
sg7
S'--'
p129
sg9
g10
sg11
g41
sg13
g10
sg14
S'Dontrelle Inman'
p130
sg16
S'2015'
p131
sg18
S'17'
p132
sg20
S'--'
p133
sg22
S'01/03'
p134
sg24
S'8.3'
p135
sg26
g10
sg28
S'--'
p136
sg30
S'L20-27'
p137
sg32
S'25'
p138
sg34
g35
sg36
S'@DEN'
p139
sg38
S'9'
p140
sg40
g41
sg42
S'--'
p141
ssS'16'
p142
(dp143
g5
S'--'
p144
sg7
S'--'
p145
sg9
g10
sg11
S'--'
p146
sg13
g10
sg14
S'Dontrelle Inman'
p147
sg16
S'2015'
p148
sg18
S'16'
p149
sg20
S'--'
p150
sg22
S'12/24'
p151
sg24
S'10.3'
p152
sg26
S'--'
p153
sg28
S'--'
p154
sg30
S'L20-23'
p155
sg32
S'82'
p156
sg34
S'8'
p157
sg36
S'@OAK'
p158
sg38
S'20'
p159
sg40
g10
sg42
S'--'
p160
ssg10
(dp161
g5
S'--'
p162
sg7
S'--'
p163
sg9
g41
sg11
S'--'
p164
sg13
g41
sg14
S'Dontrelle Inman'
p165
sg16
S'2015'
p166
sg18
g10
sg20
S'--'
p167
sg22
S'09/13'
p168
sg24
S'--'
p169
sg26
S'--'
p170
sg28
S'--'
p171
sg30
S'W33-28'
p172
sg32
S'--'
p173
sg34
S'--'
p174
sg36
S'DET'
p175
sg38
S'--'
p176
sg40
S'--'
p177
sg42
S'--'
p178
ssg35
(dp179
g5
S'--'
p180
sg7
S'--'
p181
sg9
g41
sg11
S'--'
p182
sg13
g10
sg14
S'Dontrelle Inman'
p183
sg16
S'2015'
p184
sg18
g35
sg20
S'--'
p185
sg22
S'09/27'
p186
sg24
S'--'
p187
sg26
S'--'
p188
sg28
S'--'
p189
sg30
S'L14-31'
p190
sg32
S'--'
p191
sg34
S'--'
p192
sg36
S'@MIN'
p193
sg38
S'--'
p194
sg40
S'--'
p195
sg42
S'--'
p196
ssS'2'
p197
(dp198
g5
S'--'
p199
sg7
S'--'
p200
sg9
g41
sg11
S'--'
p201
sg13
g10
sg14
S'Dontrelle Inman'
p202
sg16
S'2015'
p203
sg18
g197
sg20
S'--'
p204
sg22
S'09/20'
p205
sg24
S'--'
p206
sg26
S'--'
p207
sg28
S'--'
p208
sg30
S'L19-24'
p209
sg32
S'--'
p210
sg34
S'--'
p211
sg36
S'@CIN'
p212
sg38
S'--'
p213
sg40
S'--'
p214
sg42
S'--'
p215
ssg84
(dp216
g5
S'--'
p217
sg7
S'--'
p218
sg9
g41
sg11
S'--'
p219
sg13
g10
sg14
S'Dontrelle Inman'
p220
sg16
S'2015'
p221
sg18
g84
sg20
S'--'
p222
sg22
S'10/12'
p223
sg24
S'--'
p224
sg26
S'--'
p225
sg28
S'--'
p226
sg30
S'L20-24'
p227
sg32
g41
sg34
g41
sg36
S'PIT'
p228
sg38
S'--'
p229
sg40
g41
sg42
S'--'
p230
ssS'4'
p231
(dp232
g5
S'--'
p233
sg7
S'--'
p234
sg9
g41
sg11
S'--'
p235
sg13
g10
sg14
S'Dontrelle Inman'
p236
sg16
S'2015'
p237
sg18
g231
sg20
S'--'
p238
sg22
S'10/04'
p239
sg24
S'29.3'
p240
sg26
S'--'
p241
sg28
S'--'
p242
sg30
S'W30-27'
p243
sg32
S'88'
p244
sg34
g35
sg36
S'CLE'
p245
sg38
S'68'
p246
sg40
g41
sg42
S'--'
p247
ssS'7'
p248
(dp249
g5
S'--'
p250
sg7
S'--'
p251
sg9
g41
sg11
S'--'
p252
sg13
g10
sg14
S'Dontrelle Inman'
p253
sg16
S'2015'
p254
sg18
g248
sg20
S'--'
p255
sg22
S'10/25'
p256
sg24
S'13.0'
p257
sg26
S'--'
p258
sg28
S'--'
p259
sg30
S'L29-37'
p260
sg32
S'26'
p261
sg34
g197
sg36
S'OAK'
p262
sg38
S'17'
p263
sg40
g41
sg42
S'--'
p264
ssS'6'
p265
(dp266
g5
S'--'
p267
sg7
S'--'
p268
sg9
g41
sg11
S'--'
p269
sg13
g10
sg14
S'Dontrelle Inman'
p270
sg16
S'2015'
p271
sg18
g265
sg20
S'--'
p272
sg22
S'10/18'
p273
sg24
S'6.0'
p274
sg26
S'--'
p275
sg28
S'--'
p276
sg30
S'L20-27'
p277
sg32
S'18'
p278
sg34
g35
sg36
S'@GB'
p279
sg38
g140
sg40
g10
sg42
S'--'
p280
ssg140
(dp281
g5
S'--'
p282
sg7
S'--'
p283
sg9
g10
sg11
g10
sg13
g10
sg14
S'Dontrelle Inman'
p284
sg16
S'2015'
p285
sg18
g140
sg20
S'--'
p286
sg22
S'11/09'
p287
sg24
S'9.3'
p288
sg26
g10
sg28
S'--'
p289
sg30
S'L19-22'
p290
sg32
S'28'
p291
sg34
g35
sg36
S'CHI'
p292
sg38
S'14'
p293
sg40
g41
sg42
S'--'
p294
ssg157
(dp295
g5
S'--'
p296
sg7
S'--'
p297
sg9
g41
sg11
S'--'
p298
sg13
g10
sg14
S'Dontrelle Inman'
p299
sg16
S'2015'
p300
sg18
g157
sg20
S'--'
p301
sg22
S'11/01'
p302
sg24
S'10.0'
p303
sg26
S'--'
p304
sg28
S'--'
p305
sg30
S'L26-29'
p306
sg32
S'10'
p307
sg34
g10
sg36
S'@BAL'
p308
sg38
S'10'
p309
sg40
g41
sg42
S'--'
p310
sssS'2014'
p311
(dp312
g3
(dp313
g5
S'--'
p314
sg7
S'--'
p315
sg9
g41
sg11
S'--'
p316
sg13
g41
sg14
S'Dontrelle Inman'
p317
sg16
S'2014'
p318
sg18
S'11'
p319
sg20
S'--'
p320
sg22
S'11/16'
p321
sg24
S'--'
p322
sg26
S'--'
p323
sg28
S'--'
p324
sg30
S'W13-6'
p325
sg32
S'--'
p326
sg34
S'--'
p327
sg36
S'OAK'
p328
sg38
S'--'
p329
sg40
S'--'
p330
sg42
S'--'
p331
ssg44
(dp332
g5
g46
sg7
g46
sg9
g46
sg11
g46
sg13
g46
sg14
S'Dontrelle Inman'
p333
sg16
S'2014'
p334
sg18
S'10'
p335
sg20
g46
sg22
S'Bye'
p336
sg24
g46
sg26
g46
sg28
g46
sg30
g46
sg32
g46
sg34
g46
sg36
g46
sg38
g46
sg40
g46
sg42
g46
ssg51
(dp337
g5
S'--'
p338
sg7
S'--'
p339
sg9
g41
sg11
S'--'
p340
sg13
g41
sg14
S'Dontrelle Inman'
p341
sg16
S'2014'
p342
sg18
S'13'
p343
sg20
S'--'
p344
sg22
S'11/30'
p345
sg24
S'--'
p346
sg26
S'--'
p347
sg28
S'--'
p348
sg30
S'W34-33'
p349
sg32
S'--'
p350
sg34
S'--'
p351
sg36
S'@BAL'
p352
sg38
S'--'
p353
sg40
S'--'
p354
sg42
S'--'
p355
ssg69
(dp356
g5
S'--'
p357
sg7
S'--'
p358
sg9
g41
sg11
S'--'
p359
sg13
g41
sg14
S'Dontrelle Inman'
p360
sg16
S'2014'
p361
sg18
S'12'
p362
sg20
S'--'
p363
sg22
S'11/23'
p364
sg24
S'--'
p365
sg26
S'--'
p366
sg28
S'--'
p367
sg30
S'W27-24'
p368
sg32
S'--'
p369
sg34
S'--'
p370
sg36
S'STL'
p371
sg38
S'--'
p372
sg40
S'--'
p373
sg42
S'--'
p374
ssg88
(dp375
g5
S'--'
p376
sg7
S'--'
p377
sg9
g41
sg11
S'--'
p378
sg13
g41
sg14
S'Dontrelle Inman'
p379
sg16
S'2014'
p380
sg18
S'15'
p381
sg20
S'--'
p382
sg22
S'12/14'
p383
sg24
S'--'
p384
sg26
S'--'
p385
sg28
S'--'
p386
sg30
S'L10-22'
p387
sg32
S'--'
p388
sg34
S'--'
p389
sg36
S'DEN'
p390
sg38
S'--'
p391
sg40
S'--'
p392
sg42
S'--'
p393
ssg106
(dp394
g5
S'--'
p395
sg7
S'--'
p396
sg9
g41
sg11
S'--'
p397
sg13
g41
sg14
S'Dontrelle Inman'
p398
sg16
S'2014'
p399
sg18
S'14'
p400
sg20
S'--'
p401
sg22
S'12/07'
p402
sg24
S'--'
p403
sg26
S'--'
p404
sg28
S'--'
p405
sg30
S'L14-23'
p406
sg32
S'--'
p407
sg34
S'--'
p408
sg36
S'NE'
p409
sg38
S'--'
p410
sg40
S'--'
p411
sg42
S'--'
p412
ssg126
(dp413
g5
S'--'
p414
sg7
S'--'
p415
sg9
g41
sg11
S'--'
p416
sg13
g10
sg14
S'Dontrelle Inman'
p417
sg16
S'2014'
p418
sg18
S'17'
p419
sg20
S'--'
p420
sg22
S'12/28'
p421
sg24
S'15.8'
p422
sg26
S'--'
p423
sg28
S'--'
p424
sg30
S'L7-19'
p425
sg32
S'79'
p426
sg34
g84
sg36
S'@KC'
p427
sg38
S'28'
p428
sg40
g41
sg42
S'--'
p429
ssg142
(dp430
g5
S'--'
p431
sg7
S'--'
p432
sg9
g41
sg11
S'--'
p433
sg13
g10
sg14
S'Dontrelle Inman'
p434
sg16
S'2014'
p435
sg18
S'16'
p436
sg20
S'--'
p437
sg22
S'12/20'
p438
sg24
S'11.3'
p439
sg26
S'--'
p440
sg28
S'--'
p441
sg30
S'W38-35'
p442
sg32
S'79'
p443
sg34
g248
sg36
S'@SF'
p444
sg38
S'19'
p445
sg40
g41
sg42
S'--'
p446
ssg10
(dp447
g5
S'--'
p448
sg7
S'--'
p449
sg9
g41
sg11
S'--'
p450
sg13
g41
sg14
S'Dontrelle Inman'
p451
sg16
S'2014'
p452
sg18
g10
sg20
S'--'
p453
sg22
S'09/08'
p454
sg24
S'--'
p455
sg26
S'--'
p456
sg28
S'--'
p457
sg30
S'L17-18'
p458
sg32
S'--'
p459
sg34
S'--'
p460
sg36
S'@ARI'
p461
sg38
S'--'
p462
sg40
S'--'
p463
sg42
S'--'
p464
ssg35
(dp465
g5
S'--'
p466
sg7
S'--'
p467
sg9
g41
sg11
S'--'
p468
sg13
g41
sg14
S'Dontrelle Inman'
p469
sg16
S'2014'
p470
sg18
g35
sg20
S'--'
p471
sg22
S'09/21'
p472
sg24
S'--'
p473
sg26
S'--'
p474
sg28
S'--'
p475
sg30
S'W22-10'
p476
sg32
S'--'
p477
sg34
S'--'
p478
sg36
S'@BUF'
p479
sg38
S'--'
p480
sg40
S'--'
p481
sg42
S'--'
p482
ssg197
(dp483
g5
S'--'
p484
sg7
S'--'
p485
sg9
g41
sg11
S'--'
p486
sg13
g10
sg14
S'Dontrelle Inman'
p487
sg16
S'2014'
p488
sg18
g197
sg20
S'--'
p489
sg22
S'09/14'
p490
sg24
S'--'
p491
sg26
S'--'
p492
sg28
S'--'
p493
sg30
S'W30-21'
p494
sg32
S'--'
p495
sg34
S'--'
p496
sg36
S'SEA'
p497
sg38
S'--'
p498
sg40
S'--'
p499
sg42
S'--'
p500
ssg84
(dp501
g5
S'--'
p502
sg7
S'--'
p503
sg9
g41
sg11
S'--'
p504
sg13
g41
sg14
S'Dontrelle Inman'
p505
sg16
S'2014'
p506
sg18
g84
sg20
S'--'
p507
sg22
S'10/05'
p508
sg24
S'--'
p509
sg26
S'--'
p510
sg28
S'--'
p511
sg30
S'W31-0'
p512
sg32
S'--'
p513
sg34
S'--'
p514
sg36
S'NYJ'
p515
sg38
S'--'
p516
sg40
S'--'
p517
sg42
S'--'
p518
ssg231
(dp519
g5
S'--'
p520
sg7
S'--'
p521
sg9
g41
sg11
S'--'
p522
sg13
g10
sg14
S'Dontrelle Inman'
p523
sg16
S'2014'
p524
sg18
g231
sg20
S'--'
p525
sg22
S'09/28'
p526
sg24
S'--'
p527
sg26
S'--'
p528
sg28
S'--'
p529
sg30
S'W33-14'
p530
sg32
S'--'
p531
sg34
S'--'
p532
sg36
S'JAC'
p533
sg38
S'--'
p534
sg40
S'--'
p535
sg42
S'--'
p536
ssg248
(dp537
g5
S'--'
p538
sg7
S'--'
p539
sg9
g41
sg11
S'--'
p540
sg13
g41
sg14
S'Dontrelle Inman'
p541
sg16
S'2014'
p542
sg18
g248
sg20
S'--'
p543
sg22
S'10/19'
p544
sg24
S'--'
p545
sg26
S'--'
p546
sg28
S'--'
p547
sg30
S'L20-23'
p548
sg32
S'--'
p549
sg34
S'--'
p550
sg36
S'KC'
p551
sg38
S'--'
p552
sg40
S'--'
p553
sg42
S'--'
p554
ssg265
(dp555
g5
S'--'
p556
sg7
S'--'
p557
sg9
g41
sg11
S'--'
p558
sg13
g10
sg14
S'Dontrelle Inman'
p559
sg16
S'2014'
p560
sg18
g265
sg20
S'--'
p561
sg22
S'10/12'
p562
sg24
S'--'
p563
sg26
S'--'
p564
sg28
S'--'
p565
sg30
S'W31-28'
p566
sg32
S'--'
p567
sg34
S'--'
p568
sg36
S'@OAK'
p569
sg38
S'--'
p570
sg40
S'--'
p571
sg42
S'--'
p572
ssg140
(dp573
g5
S'--'
p574
sg7
S'--'
p575
sg9
g41
sg11
S'--'
p576
sg13
g10
sg14
S'Dontrelle Inman'
p577
sg16
S'2014'
p578
sg18
g140
sg20
S'--'
p579
sg22
S'11/02'
p580
sg24
S'--'
p581
sg26
S'--'
p582
sg28
S'--'
p583
sg30
S'L0-37'
p584
sg32
S'--'
p585
sg34
S'--'
p586
sg36
S'@MIA'
p587
sg38
S'--'
p588
sg40
S'--'
p589
sg42
S'--'
p590
ssg157
(dp591
g5
S'--'
p592
sg7
S'--'
p593
sg9
g41
sg11
S'--'
p594
sg13
g10
sg14
S'Dontrelle Inman'
p595
sg16
S'2014'
p596
sg18
g157
sg20
S'--'
p597
sg22
S'10/23'
p598
sg24
S'--'
p599
sg26
S'--'
p600
sg28
S'--'
p601
sg30
S'L21-35'
p602
sg32
S'--'
p603
sg34
S'--'
p604
sg36
S'@DEN'
p605
sg38
S'--'
p606
sg40
S'--'
p607
sg42
S'--'
p608
sss.