(dp0
S'2015'
p1
(dp2
S'11'
p3
(dp4
S'RushTD'
p5
S'--'
p6
sS'RushYds'
p7
S'--'
p8
sS'GS'
p9
S'1'
p10
sS'Lost'
p11
S'--'
p12
sS'G'
p13
g10
sS'Player'
p14
S'Donte Moncrief'
p15
sS'Year'
p16
S'2015'
p17
sS'WK'
p18
S'11'
p19
sS'RushAvg'
p20
S'--'
p21
sS'Game Date'
p22
S'11/22'
p23
sS'RecAvg'
p24
S'8.2'
p25
sS'FUM'
p26
S'--'
p27
sS'RushAtt'
p28
S'--'
p29
sS'Result'
p30
S'W24-21'
p31
sS'RecYds'
p32
S'41'
p33
sS'Rec'
p34
S'5'
p35
sS'Opp'
p36
S'@ATL'
p37
sS'RecLng'
p38
S'11'
p39
sS'RecTD'
p40
S'0'
p41
sS'RushLng'
p42
S'--'
p43
ssS'10'
p44
(dp45
g5
S''
p46
sg7
g46
sg9
g46
sg11
g46
sg13
g46
sg14
S'Donte Moncrief'
p47
sg16
S'2015'
p48
sg18
S'10'
p49
sg20
g46
sg22
S'Bye'
p50
sg24
g46
sg26
g46
sg28
g46
sg30
g46
sg32
g46
sg34
g46
sg36
g46
sg38
g46
sg40
g46
sg42
g46
ssS'13'
p51
(dp52
g5
S'--'
p53
sg7
S'--'
p54
sg9
g10
sg11
S'--'
p55
sg13
g10
sg14
S'Donte Moncrief'
p56
sg16
S'2015'
p57
sg18
S'13'
p58
sg20
S'--'
p59
sg22
S'12/06'
p60
sg24
S'33.0'
p61
sg26
S'--'
p62
sg28
S'--'
p63
sg30
S'L10-45'
p64
sg32
S'33'
p65
sg34
g10
sg36
S'@PIT'
p66
sg38
S'33'
p67
sg40
g41
sg42
S'--'
p68
ssS'12'
p69
(dp70
g5
S'--'
p71
sg7
S'--'
p72
sg9
g41
sg11
S'--'
p73
sg13
g10
sg14
S'Donte Moncrief'
p74
sg16
S'2015'
p75
sg18
S'12'
p76
sg20
S'--'
p77
sg22
S'11/29'
p78
sg24
S'14.3'
p79
sg26
S'--'
p80
sg28
S'--'
p81
sg30
S'W25-12'
p82
sg32
S'114'
p83
sg34
S'8'
p84
sg36
S'TB'
p85
sg38
S'31'
p86
sg40
g41
sg42
S'--'
p87
ssS'15'
p88
(dp89
g5
S'--'
p90
sg7
S'--'
p91
sg9
g10
sg11
S'--'
p92
sg13
g10
sg14
S'Donte Moncrief'
p93
sg16
S'2015'
p94
sg18
S'15'
p95
sg20
S'--'
p96
sg22
S'12/20'
p97
sg24
S'10.2'
p98
sg26
S'--'
p99
sg28
S'--'
p100
sg30
S'L10-16'
p101
sg32
S'51'
p102
sg34
g35
sg36
S'HOU'
p103
sg38
S'21'
p104
sg40
g10
sg42
S'--'
p105
ssS'14'
p106
(dp107
g5
S'--'
p108
sg7
S'--'
p109
sg9
g41
sg11
S'--'
p110
sg13
g10
sg14
S'Donte Moncrief'
p111
sg16
S'2015'
p112
sg18
S'14'
p113
sg20
S'--'
p114
sg22
S'12/13'
p115
sg24
S'17.3'
p116
sg26
S'--'
p117
sg28
S'--'
p118
sg30
S'L16-51'
p119
sg32
S'52'
p120
sg34
S'3'
p121
sg36
S'@JAC'
p122
sg38
S'33'
p123
sg40
g41
sg42
S'--'
p124
ssS'17'
p125
(dp126
g5
S'--'
p127
sg7
S'--'
p128
sg9
g10
sg11
S'--'
p129
sg13
g10
sg14
S'Donte Moncrief'
p130
sg16
S'2015'
p131
sg18
S'17'
p132
sg20
S'--'
p133
sg22
S'01/03'
p134
sg24
S'-2.0'
p135
sg26
S'--'
p136
sg28
S'--'
p137
sg30
S'W30-24'
p138
sg32
S'-2'
p139
sg34
g10
sg36
S'TEN'
p140
sg38
S'-2'
p141
sg40
g41
sg42
S'--'
p142
ssS'16'
p143
(dp144
g5
S'--'
p145
sg7
S'--'
p146
sg9
g41
sg11
S'--'
p147
sg13
g10
sg14
S'Donte Moncrief'
p148
sg16
S'2015'
p149
sg18
S'16'
p150
sg20
S'--'
p151
sg22
S'12/27'
p152
sg24
S'7.5'
p153
sg26
S'--'
p154
sg28
S'--'
p155
sg30
S'W18-12'
p156
sg32
S'15'
p157
sg34
S'2'
p158
sg36
S'@MIA'
p159
sg38
g84
sg40
g41
sg42
S'--'
p160
ssg10
(dp161
g5
S'--'
p162
sg7
S'--'
p163
sg9
g10
sg11
S'--'
p164
sg13
g10
sg14
S'Donte Moncrief'
p165
sg16
S'2015'
p166
sg18
g10
sg20
S'--'
p167
sg22
S'09/13'
p168
sg24
S'7.7'
p169
sg26
S'--'
p170
sg28
S'--'
p171
sg30
S'L14-27'
p172
sg32
S'46'
p173
sg34
S'6'
p174
sg36
S'@BUF'
p175
sg38
S'15'
p176
sg40
g10
sg42
S'--'
p177
ssg121
(dp178
g5
S'--'
p179
sg7
S'--'
p180
sg9
g10
sg11
S'--'
p181
sg13
g10
sg14
S'Donte Moncrief'
p182
sg16
S'2015'
p183
sg18
g121
sg20
S'--'
p184
sg22
S'09/27'
p185
sg24
S'8.0'
p186
sg26
S'--'
p187
sg28
S'--'
p188
sg30
S'W35-33'
p189
sg32
S'32'
p190
sg34
S'4'
p191
sg36
S'@TEN'
p192
sg38
S'11T'
p193
sg40
g10
sg42
S'--'
p194
ssg158
(dp195
g5
S'--'
p196
sg7
S'--'
p197
sg9
g41
sg11
S'--'
p198
sg13
g10
sg14
S'Donte Moncrief'
p199
sg16
S'2015'
p200
sg18
g158
sg20
S'--'
p201
sg22
S'09/21'
p202
sg24
S'17.4'
p203
sg26
S'--'
p204
sg28
S'--'
p205
sg30
S'L7-20'
p206
sg32
S'122'
p207
sg34
S'7'
p208
sg36
S'NYJ'
p209
sg38
S'30'
p210
sg40
g10
sg42
S'--'
p211
ssg35
(dp212
g5
S'--'
p213
sg7
S'--'
p214
sg9
g10
sg11
S'--'
p215
sg13
g10
sg14
S'Donte Moncrief'
p216
sg16
S'2015'
p217
sg18
g35
sg20
S'--'
p218
sg22
S'10/08'
p219
sg24
S'3.0'
p220
sg26
S'--'
p221
sg28
S'--'
p222
sg30
S'W27-20'
p223
sg32
g121
sg34
g10
sg36
S'@HOU'
p224
sg38
g121
sg40
g41
sg42
S'--'
p225
ssg191
(dp226
g5
S'--'
p227
sg7
S'--'
p228
sg9
g10
sg11
S'--'
p229
sg13
g10
sg14
S'Donte Moncrief'
p230
sg16
S'2015'
p231
sg18
g191
sg20
S'--'
p232
sg22
S'10/04'
p233
sg24
S'12.5'
p234
sg26
S'--'
p235
sg28
S'--'
p236
sg30
S'W16-13'
p237
sg32
S'75'
p238
sg34
g174
sg36
S'JAC'
p239
sg38
S'21'
p240
sg40
g41
sg42
S'--'
p241
ssg208
(dp242
g5
S'--'
p243
sg7
S'--'
p244
sg9
g10
sg11
S'--'
p245
sg13
g10
sg14
S'Donte Moncrief'
p246
sg16
S'2015'
p247
sg18
g208
sg20
S'--'
p248
sg22
S'10/25'
p249
sg24
S'8.5'
p250
sg26
S'--'
p251
sg28
S'--'
p252
sg30
S'L21-27'
p253
sg32
S'34'
p254
sg34
g191
sg36
S'NO'
p255
sg38
S'12'
p256
sg40
g10
sg42
S'--'
p257
ssg174
(dp258
g5
S'--'
p259
sg7
S'--'
p260
sg9
g41
sg11
S'--'
p261
sg13
g10
sg14
S'Donte Moncrief'
p262
sg16
S'2015'
p263
sg18
g174
sg20
S'--'
p264
sg22
S'10/18'
p265
sg24
S'11.5'
p266
sg26
S'--'
p267
sg28
S'--'
p268
sg30
S'L27-34'
p269
sg32
S'69'
p270
sg34
g174
sg36
S'NE'
p271
sg38
S'20'
p272
sg40
g10
sg42
S'--'
p273
ssS'9'
p274
(dp275
g5
S'--'
p276
sg7
S'--'
p277
sg9
g41
sg11
S'--'
p278
sg13
g10
sg14
S'Donte Moncrief'
p279
sg16
S'2015'
p280
sg18
g274
sg20
S'--'
p281
sg22
S'11/08'
p282
sg24
S'10.0'
p283
sg26
S'--'
p284
sg28
S'--'
p285
sg30
S'W27-24'
p286
sg32
S'30'
p287
sg34
g121
sg36
S'DEN'
p288
sg38
S'15'
p289
sg40
g41
sg42
S'--'
p290
ssg84
(dp291
g5
S'--'
p292
sg7
S'--'
p293
sg9
g10
sg11
S'--'
p294
sg13
g10
sg14
S'Donte Moncrief'
p295
sg16
S'2015'
p296
sg18
g84
sg20
S'--'
p297
sg22
S'11/02'
p298
sg24
S'9.0'
p299
sg26
S'--'
p300
sg28
S'--'
p301
sg30
S'L26-29'
p302
sg32
S'18'
p303
sg34
g158
sg36
S'@CAR'
p304
sg38
S'13'
p305
sg40
g41
sg42
S'--'
p306
sssS'2014'
p307
(dp308
g3
(dp309
g5
S'--'
p310
sg7
S'--'
p311
sg9
g41
sg11
S'--'
p312
sg13
g10
sg14
S'Donte Moncrief'
p313
sg16
S'2014'
p314
sg18
S'11'
p315
sg20
S'--'
p316
sg22
S'11/16'
p317
sg24
S'--'
p318
sg26
S'--'
p319
sg28
S'--'
p320
sg30
S'L20-42'
p321
sg32
g41
sg34
g41
sg36
S'NE'
p322
sg38
S'--'
p323
sg40
g41
sg42
S'--'
p324
ssg44
(dp325
g5
g46
sg7
g46
sg9
g46
sg11
g46
sg13
g46
sg14
S'Donte Moncrief'
p326
sg16
S'2014'
p327
sg18
S'10'
p328
sg20
g46
sg22
S'Bye'
p329
sg24
g46
sg26
g46
sg28
g46
sg30
g46
sg32
g46
sg34
g46
sg36
g46
sg38
g46
sg40
g46
sg42
g46
ssg51
(dp330
g5
g41
sg7
g174
sg9
g10
sg11
S'--'
p331
sg13
g10
sg14
S'Donte Moncrief'
p332
sg16
S'2014'
p333
sg18
S'13'
p334
sg20
S'6.0'
p335
sg22
S'11/30'
p336
sg24
S'44.7'
p337
sg26
S'--'
p338
sg28
g10
sg30
S'W49-27'
p339
sg32
S'134'
p340
sg34
g121
sg36
S'WAS'
p341
sg38
S'79T'
p342
sg40
g158
sg42
g174
ssg69
(dp343
g5
g41
sg7
g191
sg9
g41
sg11
S'--'
p344
sg13
g10
sg14
S'Donte Moncrief'
p345
sg16
S'2014'
p346
sg18
S'12'
p347
sg20
S'4.0'
p348
sg22
S'11/23'
p349
sg24
S'9.5'
p350
sg26
S'--'
p351
sg28
g10
sg30
S'W23-3'
p352
sg32
S'38'
p353
sg34
g191
sg36
S'JAC'
p354
sg38
S'16'
p355
sg40
g41
sg42
g191
ssg88
(dp356
g5
S'--'
p357
sg7
S'--'
p358
sg9
g41
sg11
S'--'
p359
sg13
g10
sg14
S'Donte Moncrief'
p360
sg16
S'2014'
p361
sg18
S'15'
p362
sg20
S'--'
p363
sg22
S'12/14'
p364
sg24
S'--'
p365
sg26
S'--'
p366
sg28
S'--'
p367
sg30
S'W17-10'
p368
sg32
g41
sg34
g41
sg36
S'HOU'
p369
sg38
S'--'
p370
sg40
g41
sg42
S'--'
p371
ssg106
(dp372
g5
S'--'
p373
sg7
S'--'
p374
sg9
g41
sg11
S'--'
p375
sg13
g10
sg14
S'Donte Moncrief'
p376
sg16
S'2014'
p377
sg18
S'14'
p378
sg20
S'--'
p379
sg22
S'12/07'
p380
sg24
S'11.0'
p381
sg26
S'--'
p382
sg28
S'--'
p383
sg30
S'W25-24'
p384
sg32
S'33'
p385
sg34
g121
sg36
S'@CLE'
p386
sg38
S'27'
p387
sg40
g41
sg42
S'--'
p388
ssg125
(dp389
g5
S'--'
p390
sg7
S'--'
p391
sg9
g41
sg11
S'--'
p392
sg13
g10
sg14
S'Donte Moncrief'
p393
sg16
S'2014'
p394
sg18
S'17'
p395
sg20
S'--'
p396
sg22
S'12/28'
p397
sg24
S'5.3'
p398
sg26
S'--'
p399
sg28
S'--'
p400
sg30
S'W27-10'
p401
sg32
S'16'
p402
sg34
g121
sg36
S'@TEN'
p403
sg38
g274
sg40
g41
sg42
S'--'
p404
ssg143
(dp405
g5
S'--'
p406
sg7
S'--'
p407
sg9
g10
sg11
S'--'
p408
sg13
g10
sg14
S'Donte Moncrief'
p409
sg16
S'2014'
p410
sg18
S'16'
p411
sg20
S'--'
p412
sg22
S'12/21'
p413
sg24
S'2.5'
p414
sg26
S'--'
p415
sg28
S'--'
p416
sg30
S'L7-42'
p417
sg32
g35
sg34
g158
sg36
S'@DAL'
p418
sg38
g35
sg40
g41
sg42
S'--'
p419
ssg10
(dp420
g5
S'--'
p421
sg7
S'--'
p422
sg9
g41
sg11
S'--'
p423
sg13
g10
sg14
S'Donte Moncrief'
p424
sg16
S'2014'
p425
sg18
g10
sg20
S'--'
p426
sg22
S'09/07'
p427
sg24
S'9.0'
p428
sg26
S'--'
p429
sg28
S'--'
p430
sg30
S'L24-31'
p431
sg32
g274
sg34
g10
sg36
S'@DEN'
p432
sg38
g274
sg40
g41
sg42
S'--'
p433
ssg121
(dp434
g5
g41
sg7
g208
sg9
g41
sg11
S'--'
p435
sg13
g10
sg14
S'Donte Moncrief'
p436
sg16
S'2014'
p437
sg18
g121
sg20
S'7.0'
p438
sg22
S'09/21'
p439
sg24
S'13.8'
p440
sg26
S'--'
p441
sg28
g10
sg30
S'W44-17'
p442
sg32
S'55'
p443
sg34
g191
sg36
S'@JAC'
p444
sg38
S'22'
p445
sg40
g41
sg42
g208
ssg158
(dp446
g5
S'--'
p447
sg7
S'--'
p448
sg9
g41
sg11
S'--'
p449
sg13
g10
sg14
S'Donte Moncrief'
p450
sg16
S'2014'
p451
sg18
g158
sg20
S'--'
p452
sg22
S'09/15'
p453
sg24
S'16.0'
p454
sg26
S'--'
p455
sg28
S'--'
p456
sg30
S'L27-30'
p457
sg32
S'16'
p458
sg34
g10
sg36
S'PHI'
p459
sg38
S'16'
p460
sg40
g41
sg42
S'--'
p461
ssg35
(dp462
g5
S'--'
p463
sg7
S'--'
p464
sg9
g41
sg11
S'--'
p465
sg13
g10
sg14
S'Donte Moncrief'
p466
sg16
S'2014'
p467
sg18
g35
sg20
S'--'
p468
sg22
S'10/05'
p469
sg24
S'--'
p470
sg26
S'--'
p471
sg28
S'--'
p472
sg30
S'W20-13'
p473
sg32
S'--'
p474
sg34
S'--'
p475
sg36
S'BAL'
p476
sg38
S'--'
p477
sg40
S'--'
p478
sg42
S'--'
p479
ssg191
(dp480
g5
S'--'
p481
sg7
S'--'
p482
sg9
g41
sg11
S'--'
p483
sg13
g10
sg14
S'Donte Moncrief'
p484
sg16
S'2014'
p485
sg18
g191
sg20
S'--'
p486
sg22
S'09/28'
p487
sg24
S'7.0'
p488
sg26
S'--'
p489
sg28
S'--'
p490
sg30
S'W41-17'
p491
sg32
S'14'
p492
sg34
g158
sg36
S'TEN'
p493
sg38
S'10'
p494
sg40
g41
sg42
S'--'
p495
ssg208
(dp496
g5
g41
sg7
g41
sg9
g41
sg11
S'--'
p497
sg13
g10
sg14
S'Donte Moncrief'
p498
sg16
S'2014'
p499
sg18
g208
sg20
S'0.0'
p500
sg22
S'10/19'
p501
sg24
S'9.0'
p502
sg26
S'--'
p503
sg28
g10
sg30
S'W27-0'
p504
sg32
g274
sg34
g10
sg36
S'CIN'
p505
sg38
g274
sg40
g41
sg42
g41
ssg174
(dp506
g5
S'--'
p507
sg7
S'--'
p508
sg9
g41
sg11
S'--'
p509
sg13
g10
sg14
S'Donte Moncrief'
p510
sg16
S'2014'
p511
sg18
g174
sg20
S'--'
p512
sg22
S'10/09'
p513
sg24
S'--'
p514
sg26
S'--'
p515
sg28
S'--'
p516
sg30
S'W33-28'
p517
sg32
S'--'
p518
sg34
S'--'
p519
sg36
S'@HOU'
p520
sg38
S'--'
p521
sg40
S'--'
p522
sg42
S'--'
p523
ssg274
(dp524
g5
S'--'
p525
sg7
S'--'
p526
sg9
g41
sg11
S'--'
p527
sg13
g10
sg14
S'Donte Moncrief'
p528
sg16
S'2014'
p529
sg18
g274
sg20
S'--'
p530
sg22
S'11/03'
p531
sg24
S'2.0'
p532
sg26
S'--'
p533
sg28
S'--'
p534
sg30
S'W40-24'
p535
sg32
g158
sg34
g10
sg36
S'@NYG'
p536
sg38
g158
sg40
g41
sg42
S'--'
p537
ssg84
(dp538
g5
S'--'
p539
sg7
S'--'
p540
sg9
g41
sg11
S'--'
p541
sg13
g10
sg14
S'Donte Moncrief'
p542
sg16
S'2014'
p543
sg18
g84
sg20
S'--'
p544
sg22
S'10/26'
p545
sg24
S'16.1'
p546
sg26
S'--'
p547
sg28
S'--'
p548
sg30
S'L34-51'
p549
sg32
S'113'
p550
sg34
g208
sg36
S'@PIT'
p551
sg38
S'52'
p552
sg40
g10
sg42
S'--'
p553
sss.