(dp0
S'2015'
p1
(dp2
S'11'
p3
(dp4
S'RushTD'
p5
S'--'
p6
sS'RushYds'
p7
S'--'
p8
sS'GS'
p9
S'0'
p10
sS'Lost'
p11
S'--'
p12
sS'G'
p13
S'1'
p14
sS'Player'
p15
S'Dorial Green-Beckham'
p16
sS'Year'
p17
S'2015'
p18
sS'WK'
p19
S'11'
p20
sS'RushAvg'
p21
S'--'
p22
sS'Game Date'
p23
S'11/19'
p24
sS'RecAvg'
p25
S'13.3'
p26
sS'FUM'
p27
S'--'
p28
sS'RushAtt'
p29
S'--'
p30
sS'Result'
p31
S'L13-19'
p32
sS'RecYds'
p33
S'40'
p34
sS'Rec'
p35
S'3'
p36
sS'Opp'
p37
S'@JAC'
p38
sS'RecLng'
p39
S'17'
p40
sS'RecTD'
p41
g10
sS'RushLng'
p42
S'--'
p43
ssS'10'
p44
(dp45
g5
S'--'
p46
sg7
S'--'
p47
sg9
g10
sg11
S'--'
p48
sg13
g14
sg15
S'Dorial Green-Beckham'
p49
sg17
S'2015'
p50
sg19
S'10'
p51
sg21
S'--'
p52
sg23
S'11/15'
p53
sg25
S'--'
p54
sg27
S'--'
p55
sg29
S'--'
p56
sg31
S'L10-27'
p57
sg33
g10
sg35
g10
sg37
S'CAR'
p58
sg39
S'--'
p59
sg41
g10
sg42
S'--'
p60
ssS'13'
p61
(dp62
g5
S'--'
p63
sg7
S'--'
p64
sg9
g10
sg11
S'--'
p65
sg13
g14
sg15
S'Dorial Green-Beckham'
p66
sg17
S'2015'
p67
sg19
S'13'
p68
sg21
S'--'
p69
sg23
S'12/06'
p70
sg25
S'23.8'
p71
sg27
S'--'
p72
sg29
S'--'
p73
sg31
S'W42-39'
p74
sg33
S'119'
p75
sg35
S'5'
p76
sg37
S'JAC'
p77
sg39
S'47T'
p78
sg41
g14
sg42
S'--'
p79
ssS'12'
p80
(dp81
g5
S'--'
p82
sg7
S'--'
p83
sg9
g10
sg11
S'--'
p84
sg13
g14
sg15
S'Dorial Green-Beckham'
p85
sg17
S'2015'
p86
sg19
S'12'
p87
sg21
S'--'
p88
sg23
S'11/29'
p89
sg25
S'22.0'
p90
sg27
S'--'
p91
sg29
S'--'
p92
sg31
S'L21-24'
p93
sg33
S'22'
p94
sg35
g14
sg37
S'OAK'
p95
sg39
S'22'
p96
sg41
g10
sg42
S'--'
p97
ssS'15'
p98
(dp99
g5
S'--'
p100
sg7
S'--'
p101
sg9
g10
sg11
S'--'
p102
sg13
g14
sg15
S'Dorial Green-Beckham'
p103
sg17
S'2015'
p104
sg19
S'15'
p105
sg21
S'--'
p106
sg23
S'12/20'
p107
sg25
S'18.8'
p108
sg27
S'--'
p109
sg29
S'--'
p110
sg31
S'L16-33'
p111
sg33
S'113'
p112
sg35
S'6'
p113
sg37
S'@NE'
p114
sg39
S'30'
p115
sg41
g10
sg42
S'--'
p116
ssS'14'
p117
(dp118
g5
S'--'
p119
sg7
S'--'
p120
sg9
g14
sg11
S'--'
p121
sg13
g14
sg15
S'Dorial Green-Beckham'
p122
sg17
S'2015'
p123
sg19
S'14'
p124
sg21
S'--'
p125
sg23
S'12/13'
p126
sg25
S'17.7'
p127
sg27
S'--'
p128
sg29
S'--'
p129
sg31
S'L8-30'
p130
sg33
S'53'
p131
sg35
g36
sg37
S'@NYJ'
p132
sg39
S'27'
p133
sg41
g10
sg42
S'--'
p134
ssS'17'
p135
(dp136
g5
S'--'
p137
sg7
S'--'
p138
sg9
g14
sg11
S'--'
p139
sg13
g14
sg15
S'Dorial Green-Beckham'
p140
sg17
S'2015'
p141
sg19
S'17'
p142
sg21
S'--'
p143
sg23
S'01/03'
p144
sg25
S'10.5'
p145
sg27
S'--'
p146
sg29
S'--'
p147
sg31
S'L24-30'
p148
sg33
S'21'
p149
sg35
S'2'
p150
sg37
S'@IND'
p151
sg39
S'16'
p152
sg41
g14
sg42
S'--'
p153
ssS'16'
p154
(dp155
g5
S'--'
p156
sg7
S'--'
p157
sg9
g14
sg11
S'--'
p158
sg13
g14
sg15
S'Dorial Green-Beckham'
p159
sg17
S'2015'
p160
sg19
S'16'
p161
sg21
S'--'
p162
sg23
S'12/27'
p163
sg25
S'--'
p164
sg27
S'--'
p165
sg29
S'--'
p166
sg31
S'L6-34'
p167
sg33
g10
sg35
g10
sg37
S'HOU'
p168
sg39
S'--'
p169
sg41
g10
sg42
S'--'
p170
ssg14
(dp171
g5
S'--'
p172
sg7
S'--'
p173
sg9
g10
sg11
S'--'
p174
sg13
g14
sg15
S'Dorial Green-Beckham'
p175
sg17
S'2015'
p176
sg19
g14
sg21
S'--'
p177
sg23
S'09/13'
p178
sg25
S'--'
p179
sg27
S'--'
p180
sg29
S'--'
p181
sg31
S'W42-14'
p182
sg33
S'--'
p183
sg35
S'--'
p184
sg37
S'@TB'
p185
sg39
S'--'
p186
sg41
S'--'
p187
sg42
S'--'
p188
ssg36
(dp189
g5
S'--'
p190
sg7
S'--'
p191
sg9
g10
sg11
S'--'
p192
sg13
g14
sg15
S'Dorial Green-Beckham'
p193
sg17
S'2015'
p194
sg19
g36
sg21
S'--'
p195
sg23
S'09/27'
p196
sg25
S'11.0'
p197
sg27
S'--'
p198
sg29
S'--'
p199
sg31
S'L33-35'
p200
sg33
S'22'
p201
sg35
g150
sg37
S'IND'
p202
sg39
S'19'
p203
sg41
g14
sg42
S'--'
p204
ssg150
(dp205
g5
S'--'
p206
sg7
S'--'
p207
sg9
g10
sg11
S'--'
p208
sg13
g14
sg15
S'Dorial Green-Beckham'
p209
sg17
S'2015'
p210
sg19
g150
sg21
S'--'
p211
sg23
S'09/20'
p212
sg25
S'13.0'
p213
sg27
S'--'
p214
sg29
S'--'
p215
sg31
S'L14-28'
p216
sg33
S'13'
p217
sg35
g14
sg37
S'@CLE'
p218
sg39
S'13T'
p219
sg41
g14
sg42
S'--'
p220
ssg76
(dp221
g5
S'--'
p222
sg7
S'--'
p223
sg9
g10
sg11
S'--'
p224
sg13
g14
sg15
S'Dorial Green-Beckham'
p225
sg17
S'2015'
p226
sg19
g76
sg21
S'--'
p227
sg23
S'10/11'
p228
sg25
S'--'
p229
sg27
S'--'
p230
sg29
S'--'
p231
sg31
S'L13-14'
p232
sg33
S'--'
p233
sg35
S'--'
p234
sg37
S'BUF'
p235
sg39
S'--'
p236
sg41
S'--'
p237
sg42
S'--'
p238
ssS'4'
p239
(dp240
g5
S''
p241
sg7
g241
sg9
g241
sg11
g241
sg13
g241
sg15
S'Dorial Green-Beckham'
p242
sg17
S'2015'
p243
sg19
g239
sg21
g241
sg23
S'Bye'
p244
sg25
g241
sg27
g241
sg29
g241
sg31
g241
sg33
g241
sg35
g241
sg37
g241
sg39
g241
sg41
g241
sg42
g241
ssS'7'
p245
(dp246
g5
S'--'
p247
sg7
S'--'
p248
sg9
g14
sg11
S'--'
p249
sg13
g14
sg15
S'Dorial Green-Beckham'
p250
sg17
S'2015'
p251
sg19
g245
sg21
S'--'
p252
sg23
S'10/25'
p253
sg25
S'--'
p254
sg27
S'--'
p255
sg29
S'--'
p256
sg31
S'L7-10'
p257
sg33
g10
sg35
g10
sg37
S'ATL'
p258
sg39
S'--'
p259
sg41
g10
sg42
S'--'
p260
ssg113
(dp261
g5
S'--'
p262
sg7
S'--'
p263
sg9
g10
sg11
S'--'
p264
sg13
g14
sg15
S'Dorial Green-Beckham'
p265
sg17
S'2015'
p266
sg19
g113
sg21
S'--'
p267
sg23
S'10/18'
p268
sg25
S'19.0'
p269
sg27
S'--'
p270
sg29
S'--'
p271
sg31
S'L10-38'
p272
sg33
S'57'
p273
sg35
g36
sg37
S'MIA'
p274
sg39
S'32'
p275
sg41
g10
sg42
S'--'
p276
ssS'9'
p277
(dp278
g5
S'--'
p279
sg7
S'--'
p280
sg9
g14
sg11
S'--'
p281
sg13
g14
sg15
S'Dorial Green-Beckham'
p282
sg17
S'2015'
p283
sg19
g277
sg21
S'--'
p284
sg23
S'11/08'
p285
sg25
S'15.4'
p286
sg27
S'--'
p287
sg29
S'--'
p288
sg31
S'W34-28'
p289
sg33
S'77'
p290
sg35
g76
sg37
S'@NO'
p291
sg39
S'20'
p292
sg41
g10
sg42
S'--'
p293
ssS'8'
p294
(dp295
g5
S'--'
p296
sg7
S'--'
p297
sg9
g10
sg11
S'--'
p298
sg13
g14
sg15
S'Dorial Green-Beckham'
p299
sg17
S'2015'
p300
sg19
g294
sg21
S'--'
p301
sg23
S'11/01'
p302
sg25
S'12.0'
p303
sg27
S'--'
p304
sg29
S'--'
p305
sg31
S'L6-20'
p306
sg33
S'12'
p307
sg35
g14
sg37
S'@HOU'
p308
sg39
S'12'
p309
sg41
g10
sg42
S'--'
p310
sss.