(dp0
S'2015'
p1
(dp2
S'11'
p3
(dp4
S'RushTD'
p5
S'--'
p6
sS'RushYds'
p7
S'--'
p8
sS'GS'
p9
S'1'
p10
sS'Lost'
p11
S'--'
p12
sS'G'
p13
g10
sS'Player'
p14
S'Doug Baldwin'
p15
sS'Year'
p16
S'2015'
p17
sS'WK'
p18
S'11'
p19
sS'RushAvg'
p20
S'--'
p21
sS'Game Date'
p22
S'11/22'
p23
sS'RecAvg'
p24
S'10.0'
p25
sS'FUM'
p26
S'--'
p27
sS'RushAtt'
p28
S'--'
p29
sS'Result'
p30
S'W29-13'
p31
sS'RecYds'
p32
S'60'
p33
sS'Rec'
p34
S'6'
p35
sS'Opp'
p36
S'SF'
p37
sS'RecLng'
p38
S'21'
p39
sS'RecTD'
p40
S'0'
p41
sS'RushLng'
p42
S'--'
p43
ssS'10'
p44
(dp45
g5
S'--'
p46
sg7
S'--'
p47
sg9
g10
sg11
S'--'
p48
sg13
g10
sg14
S'Doug Baldwin'
p49
sg16
S'2015'
p50
sg18
S'10'
p51
sg20
S'--'
p52
sg22
S'11/15'
p53
sg24
S'19.1'
p54
sg26
S'--'
p55
sg28
S'--'
p56
sg30
S'L32-39'
p57
sg32
S'134'
p58
sg34
S'7'
p59
sg36
S'ARI'
p60
sg38
S'33'
p61
sg40
g10
sg42
S'--'
p62
ssS'13'
p63
(dp64
g5
S'--'
p65
sg7
S'--'
p66
sg9
g10
sg11
S'--'
p67
sg13
g10
sg14
S'Doug Baldwin'
p68
sg16
S'2015'
p69
sg18
S'13'
p70
sg20
S'--'
p71
sg22
S'12/06'
p72
sg24
S'18.8'
p73
sg26
S'--'
p74
sg28
S'--'
p75
sg30
S'W38-7'
p76
sg32
S'94'
p77
sg34
S'5'
p78
sg36
S'@MIN'
p79
sg38
S'53T'
p80
sg40
S'2'
p81
sg42
S'--'
p82
ssS'12'
p83
(dp84
g5
S'--'
p85
sg7
S'--'
p86
sg9
g10
sg11
S'--'
p87
sg13
g10
sg14
S'Doug Baldwin'
p88
sg16
S'2015'
p89
sg18
S'12'
p90
sg20
S'--'
p91
sg22
S'11/29'
p92
sg24
S'24.2'
p93
sg26
S'--'
p94
sg28
S'--'
p95
sg30
S'W39-30'
p96
sg32
S'145'
p97
sg34
g35
sg36
S'PIT'
p98
sg38
S'80T'
p99
sg40
S'3'
p100
sg42
S'--'
p101
ssS'15'
p102
(dp103
g5
S'--'
p104
sg7
S'--'
p105
sg9
g10
sg11
S'--'
p106
sg13
g10
sg14
S'Doug Baldwin'
p107
sg16
S'2015'
p108
sg18
S'15'
p109
sg20
S'--'
p110
sg22
S'12/20'
p111
sg24
S'11.3'
p112
sg26
S'--'
p113
sg28
S'--'
p114
sg30
S'W30-13'
p115
sg32
S'45'
p116
sg34
S'4'
p117
sg36
S'CLE'
p118
sg38
S'27'
p119
sg40
g81
sg42
S'--'
p120
ssS'14'
p121
(dp122
g5
S'--'
p123
sg7
S'--'
p124
sg9
g10
sg11
S'--'
p125
sg13
g10
sg14
S'Doug Baldwin'
p126
sg16
S'2015'
p127
sg18
S'14'
p128
sg20
S'--'
p129
sg22
S'12/13'
p130
sg24
S'13.7'
p131
sg26
S'--'
p132
sg28
S'--'
p133
sg30
S'W35-6'
p134
sg32
S'82'
p135
sg34
g35
sg36
S'@BAL'
p136
sg38
S'22T'
p137
sg40
g100
sg42
S'--'
p138
ssS'17'
p139
(dp140
g5
S'--'
p141
sg7
S'--'
p142
sg9
g10
sg11
S'--'
p143
sg13
g10
sg14
S'Doug Baldwin'
p144
sg16
S'2015'
p145
sg18
S'17'
p146
sg20
S'--'
p147
sg22
S'01/03'
p148
sg24
S'9.2'
p149
sg26
S'--'
p150
sg28
S'--'
p151
sg30
S'W36-6'
p152
sg32
S'46'
p153
sg34
g78
sg36
S'@ARI'
p154
sg38
S'15'
p155
sg40
g41
sg42
S'--'
p156
ssS'16'
p157
(dp158
g5
S'--'
p159
sg7
S'--'
p160
sg9
g10
sg11
g41
sg13
g10
sg14
S'Doug Baldwin'
p161
sg16
S'2015'
p162
sg18
S'16'
p163
sg20
S'--'
p164
sg22
S'12/27'
p165
sg24
S'14.8'
p166
sg26
g10
sg28
S'--'
p167
sg30
S'L17-23'
p168
sg32
S'118'
p169
sg34
S'8'
p170
sg36
S'STL'
p171
sg38
S'28'
p172
sg40
g10
sg42
S'--'
p173
ssg10
(dp174
g5
S'--'
p175
sg7
S'--'
p176
sg9
g10
sg11
S'--'
p177
sg13
g10
sg14
S'Doug Baldwin'
p178
sg16
S'2015'
p179
sg18
g10
sg20
S'--'
p180
sg22
S'09/13'
p181
sg24
S'5.0'
p182
sg26
S'--'
p183
sg28
S'--'
p184
sg30
S'L31-34'
p185
sg32
S'35'
p186
sg34
g59
sg36
S'@STL'
p187
sg38
g170
sg40
g41
sg42
S'--'
p188
ssg100
(dp189
g5
S'--'
p190
sg7
S'--'
p191
sg9
g10
sg11
S'--'
p192
sg13
g10
sg14
S'Doug Baldwin'
p193
sg16
S'2015'
p194
sg18
g100
sg20
S'--'
p195
sg22
S'09/27'
p196
sg24
S'11.7'
p197
sg26
S'--'
p198
sg28
S'--'
p199
sg30
S'W26-0'
p200
sg32
S'35'
p201
sg34
g100
sg36
S'CHI'
p202
sg38
S'22'
p203
sg40
g41
sg42
S'--'
p204
ssg81
(dp205
g5
S'--'
p206
sg7
S'--'
p207
sg9
g10
sg11
S'--'
p208
sg13
g10
sg14
S'Doug Baldwin'
p209
sg16
S'2015'
p210
sg18
g81
sg20
S'--'
p211
sg22
S'09/20'
p212
sg24
S'13.1'
p213
sg26
S'--'
p214
sg28
S'--'
p215
sg30
S'L17-27'
p216
sg32
S'92'
p217
sg34
g59
sg36
S'@GB'
p218
sg38
S'32'
p219
sg40
g10
sg42
S'--'
p220
ssg78
(dp221
g5
S'--'
p222
sg7
S'--'
p223
sg9
g10
sg11
S'--'
p224
sg13
g10
sg14
S'Doug Baldwin'
p225
sg16
S'2015'
p226
sg18
g78
sg20
S'--'
p227
sg22
S'10/11'
p228
sg24
S'23.3'
p229
sg26
S'--'
p230
sg28
S'--'
p231
sg30
S'L24-27'
p232
sg32
S'70'
p233
sg34
g100
sg36
S'@CIN'
p234
sg38
S'46'
p235
sg40
g41
sg42
S'--'
p236
ssg117
(dp237
g5
S'--'
p238
sg7
S'--'
p239
sg9
g10
sg11
S'--'
p240
sg13
g10
sg14
S'Doug Baldwin'
p241
sg16
S'2015'
p242
sg18
g117
sg20
S'--'
p243
sg22
S'10/05'
p244
sg24
S'12.0'
p245
sg26
S'--'
p246
sg28
S'--'
p247
sg30
S'W13-10'
p248
sg32
S'36'
p249
sg34
g100
sg36
S'DET'
p250
sg38
S'24T'
p251
sg40
g10
sg42
S'--'
p252
ssg59
(dp253
g5
S'--'
p254
sg7
S'--'
p255
sg9
g10
sg11
S'--'
p256
sg13
g10
sg14
S'Doug Baldwin'
p257
sg16
S'2015'
p258
sg18
g59
sg20
S'--'
p259
sg22
S'10/22'
p260
sg24
S'9.5'
p261
sg26
S'--'
p262
sg28
S'--'
p263
sg30
S'W20-3'
p264
sg32
S'19'
p265
sg34
g81
sg36
S'@SF'
p266
sg38
S'15'
p267
sg40
g41
sg42
S'--'
p268
ssg35
(dp269
g5
S'--'
p270
sg7
S'--'
p271
sg9
g10
sg11
S'--'
p272
sg13
g10
sg14
S'Doug Baldwin'
p273
sg16
S'2015'
p274
sg18
g35
sg20
S'--'
p275
sg22
S'10/18'
p276
sg24
S'7.7'
p277
sg26
S'--'
p278
sg28
S'--'
p279
sg30
S'L23-27'
p280
sg32
S'23'
p281
sg34
g100
sg36
S'CAR'
p282
sg38
S'14'
p283
sg40
g41
sg42
S'--'
p284
ssS'9'
p285
(dp286
g5
S''
p287
sg7
g287
sg9
g287
sg11
g287
sg13
g287
sg14
S'Doug Baldwin'
p288
sg16
S'2015'
p289
sg18
g285
sg20
g287
sg22
S'Bye'
p290
sg24
g287
sg26
g287
sg28
g287
sg30
g287
sg32
g287
sg34
g287
sg36
g287
sg38
g287
sg40
g287
sg42
g287
ssg170
(dp291
g5
S'--'
p292
sg7
S'--'
p293
sg9
g10
sg11
S'--'
p294
sg13
g10
sg14
S'Doug Baldwin'
p295
sg16
S'2015'
p296
sg18
g170
sg20
S'--'
p297
sg22
S'11/01'
p298
sg24
S'11.7'
p299
sg26
S'--'
p300
sg28
S'--'
p301
sg30
S'W13-12'
p302
sg32
S'35'
p303
sg34
g100
sg36
S'@DAL'
p304
sg38
S'15'
p305
sg40
g41
sg42
S'--'
p306
sssS'2014'
p307
(dp308
g3
(dp309
g5
S'--'
p310
sg7
S'--'
p311
sg9
g10
sg11
S'--'
p312
sg13
g10
sg14
S'Doug Baldwin'
p313
sg16
S'2014'
p314
sg18
S'11'
p315
sg20
S'--'
p316
sg22
S'11/16'
p317
sg24
S'7.5'
p318
sg26
S'--'
p319
sg28
S'--'
p320
sg30
S'L20-24'
p321
sg32
S'45'
p322
sg34
g35
sg36
S'@KC'
p323
sg38
S'23'
p324
sg40
g10
sg42
S'--'
p325
ssg44
(dp326
g5
S'--'
p327
sg7
S'--'
p328
sg9
g10
sg11
S'--'
p329
sg13
g10
sg14
S'Doug Baldwin'
p330
sg16
S'2014'
p331
sg18
S'10'
p332
sg20
S'--'
p333
sg22
S'11/09'
p334
sg24
S'7.8'
p335
sg26
S'--'
p336
sg28
S'--'
p337
sg30
S'W38-17'
p338
sg32
S'31'
p339
sg34
g117
sg36
S'NYG'
p340
sg38
S'14'
p341
sg40
g41
sg42
S'--'
p342
ssg63
(dp343
g5
S'--'
p344
sg7
S'--'
p345
sg9
g10
sg11
S'--'
p346
sg13
g10
sg14
S'Doug Baldwin'
p347
sg16
S'2014'
p348
sg18
S'13'
p349
sg20
S'--'
p350
sg22
S'11/27'
p351
sg24
S'14.0'
p352
sg26
S'--'
p353
sg28
S'--'
p354
sg30
S'W19-3'
p355
sg32
S'28'
p356
sg34
g81
sg36
S'@SF'
p357
sg38
S'24'
p358
sg40
g41
sg42
S'--'
p359
ssg83
(dp360
g5
S'--'
p361
sg7
S'--'
p362
sg9
g10
sg11
S'--'
p363
sg13
g10
sg14
S'Doug Baldwin'
p364
sg16
S'2014'
p365
sg18
S'12'
p366
sg20
S'--'
p367
sg22
S'11/23'
p368
sg24
S'3.0'
p369
sg26
S'--'
p370
sg28
S'--'
p371
sg30
S'W19-3'
p372
sg32
g35
sg34
g81
sg36
S'ARI'
p373
sg38
g100
sg40
g41
sg42
S'--'
p374
ssg102
(dp375
g5
S'--'
p376
sg7
S'--'
p377
sg9
g10
sg11
S'--'
p378
sg13
g10
sg14
S'Doug Baldwin'
p379
sg16
S'2014'
p380
sg18
S'15'
p381
sg20
S'--'
p382
sg22
S'12/14'
p383
sg24
S'17.7'
p384
sg26
S'--'
p385
sg28
S'--'
p386
sg30
S'W17-7'
p387
sg32
S'53'
p388
sg34
g100
sg36
S'SF'
p389
sg38
S'35'
p390
sg40
g41
sg42
S'--'
p391
ssg121
(dp392
g5
S'--'
p393
sg7
S'--'
p394
sg9
g10
sg11
S'--'
p395
sg13
g10
sg14
S'Doug Baldwin'
p396
sg16
S'2014'
p397
sg18
S'14'
p398
sg20
S'--'
p399
sg22
S'12/07'
p400
sg24
S'19.4'
p401
sg26
S'--'
p402
sg28
S'--'
p403
sg30
S'W24-14'
p404
sg32
S'97'
p405
sg34
g78
sg36
S'@PHI'
p406
sg38
S'25'
p407
sg40
g10
sg42
S'--'
p408
ssg139
(dp409
g5
g41
sg7
g170
sg9
g10
sg11
S'--'
p410
sg13
g10
sg14
S'Doug Baldwin'
p411
sg16
S'2014'
p412
sg18
S'17'
p413
sg20
S'8.0'
p414
sg22
S'12/28'
p415
sg24
S'14.3'
p416
sg26
S'--'
p417
sg28
g10
sg30
S'W20-6'
p418
sg32
S'43'
p419
sg34
g100
sg36
S'STL'
p420
sg38
S'38'
p421
sg40
g41
sg42
g170
ssg157
(dp422
g5
S'--'
p423
sg7
S'--'
p424
sg9
g10
sg11
S'--'
p425
sg13
g10
sg14
S'Doug Baldwin'
p426
sg16
S'2014'
p427
sg18
S'16'
p428
sg20
S'--'
p429
sg22
S'12/21'
p430
sg24
S'16.1'
p431
sg26
S'--'
p432
sg28
S'--'
p433
sg30
S'W35-6'
p434
sg32
S'113'
p435
sg34
g59
sg36
S'@ARI'
p436
sg38
S'49'
p437
sg40
g41
sg42
S'--'
p438
ssg10
(dp439
g5
S'--'
p440
sg7
S'--'
p441
sg9
g10
sg11
S'--'
p442
sg13
g10
sg14
S'Doug Baldwin'
p443
sg16
S'2014'
p444
sg18
g10
sg20
S'--'
p445
sg22
S'09/04'
p446
sg24
S'4.7'
p447
sg26
S'--'
p448
sg28
S'--'
p449
sg30
S'W36-16'
p450
sg32
S'14'
p451
sg34
g100
sg36
S'GB'
p452
sg38
g35
sg40
g41
sg42
S'--'
p453
ssg100
(dp454
g5
S'--'
p455
sg7
S'--'
p456
sg9
g10
sg11
S'--'
p457
sg13
g10
sg14
S'Doug Baldwin'
p458
sg16
S'2014'
p459
sg18
g100
sg20
S'--'
p460
sg22
S'09/21'
p461
sg24
S'14.0'
p462
sg26
S'--'
p463
sg28
S'--'
p464
sg30
S'W26-20'
p465
sg32
S'56'
p466
sg34
g117
sg36
S'DEN'
p467
sg38
S'16'
p468
sg40
g41
sg42
S'--'
p469
ssg81
(dp470
g5
S'--'
p471
sg7
S'--'
p472
sg9
g10
sg11
S'--'
p473
sg13
g10
sg14
S'Doug Baldwin'
p474
sg16
S'2014'
p475
sg18
g81
sg20
S'--'
p476
sg22
S'09/14'
p477
sg24
S'11.7'
p478
sg26
S'--'
p479
sg28
S'--'
p480
sg30
S'L21-30'
p481
sg32
S'35'
p482
sg34
g100
sg36
S'@SD'
p483
sg38
S'16'
p484
sg40
g41
sg42
S'--'
p485
ssg78
(dp486
g5
S'--'
p487
sg7
S'--'
p488
sg9
g10
sg11
S'--'
p489
sg13
g10
sg14
S'Doug Baldwin'
p490
sg16
S'2014'
p491
sg18
g78
sg20
S'--'
p492
sg22
S'10/06'
p493
sg24
S'12.5'
p494
sg26
S'--'
p495
sg28
S'--'
p496
sg30
S'W27-17'
p497
sg32
S'50'
p498
sg34
g117
sg36
S'@WAS'
p499
sg38
S'20'
p500
sg40
g41
sg42
S'--'
p501
ssg117
(dp502
g5
g287
sg7
g287
sg9
g287
sg11
g287
sg13
g287
sg14
S'Doug Baldwin'
p503
sg16
S'2014'
p504
sg18
g117
sg20
g287
sg22
S'Bye'
p505
sg24
g287
sg26
g287
sg28
g287
sg30
g287
sg32
g287
sg34
g287
sg36
g287
sg38
g287
sg40
g287
sg42
g287
ssg59
(dp506
g5
S'--'
p507
sg7
S'--'
p508
sg9
g10
sg11
S'--'
p509
sg13
g10
sg14
S'Doug Baldwin'
p510
sg16
S'2014'
p511
sg18
g59
sg20
S'--'
p512
sg22
S'10/19'
p513
sg24
S'17.6'
p514
sg26
S'--'
p515
sg28
S'--'
p516
sg30
S'L26-28'
p517
sg32
S'123'
p518
sg34
g59
sg36
S'@STL'
p519
sg38
S'49'
p520
sg40
g10
sg42
S'--'
p521
ssg35
(dp522
g5
S'--'
p523
sg7
S'--'
p524
sg9
g10
sg11
S'--'
p525
sg13
g10
sg14
S'Doug Baldwin'
p526
sg16
S'2014'
p527
sg18
g35
sg20
S'--'
p528
sg22
S'10/12'
p529
sg24
S'16.0'
p530
sg26
S'--'
p531
sg28
S'--'
p532
sg30
S'L23-30'
p533
sg32
S'32'
p534
sg34
g81
sg36
S'DAL'
p535
sg38
S'20'
p536
sg40
g41
sg42
S'--'
p537
ssg285
(dp538
g5
S'--'
p539
sg7
S'--'
p540
sg9
g10
sg11
S'--'
p541
sg13
g10
sg14
S'Doug Baldwin'
p542
sg16
S'2014'
p543
sg18
g285
sg20
S'--'
p544
sg22
S'11/02'
p545
sg24
S'7.6'
p546
sg26
S'--'
p547
sg28
S'--'
p548
sg30
S'W30-24'
p549
sg32
S'38'
p550
sg34
g78
sg36
S'OAK'
p551
sg38
S'20'
p552
sg40
g41
sg42
S'--'
p553
ssg170
(dp554
g5
S'--'
p555
sg7
S'--'
p556
sg9
g10
sg11
S'--'
p557
sg13
g10
sg14
S'Doug Baldwin'
p558
sg16
S'2014'
p559
sg18
g170
sg20
S'--'
p560
sg22
S'10/26'
p561
sg24
S'10.2'
p562
sg26
S'--'
p563
sg28
S'--'
p564
sg30
S'W13-9'
p565
sg32
S'61'
p566
sg34
g35
sg36
S'@CAR'
p567
sg38
S'18'
p568
sg40
g41
sg42
S'--'
p569
sssS'2011'
p570
(dp571
g3
(dp572
g5
S'--'
p573
sg7
S'--'
p574
sg9
g41
sg11
S'--'
p575
sg13
g10
sg14
S'Doug Baldwin'
p576
sg16
S'2011'
p577
sg18
S'11'
p578
sg20
S'--'
p579
sg22
S'11/20'
p580
sg24
S'20.0'
p581
sg26
S'--'
p582
sg28
S'--'
p583
sg30
S'W24-7'
p584
sg32
S'60'
p585
sg34
g100
sg36
S'@STL'
p586
sg38
S'35'
p587
sg40
g41
sg42
S'--'
p588
ssg44
(dp589
g5
S'--'
p590
sg7
S'--'
p591
sg9
g41
sg11
S'--'
p592
sg13
g10
sg14
S'Doug Baldwin'
p593
sg16
S'2011'
p594
sg18
S'10'
p595
sg20
S'--'
p596
sg22
S'11/13'
p597
sg24
S'50.0'
p598
sg26
S'--'
p599
sg28
S'--'
p600
sg30
S'W22-17'
p601
sg32
S'50'
p602
sg34
g10
sg36
S'BAL'
p603
sg38
S'50'
p604
sg40
g41
sg42
S'--'
p605
ssg63
(dp606
g5
S'--'
p607
sg7
S'--'
p608
sg9
g41
sg11
S'--'
p609
sg13
g10
sg14
S'Doug Baldwin'
p610
sg16
S'2011'
p611
sg18
S'13'
p612
sg20
S'--'
p613
sg22
S'12/01'
p614
sg24
S'21.0'
p615
sg26
S'--'
p616
sg28
S'--'
p617
sg30
S'W31-14'
p618
sg32
S'21'
p619
sg34
g10
sg36
S'PHI'
p620
sg38
S'21'
p621
sg40
g41
sg42
S'--'
p622
ssg83
(dp623
g5
S'--'
p624
sg7
S'--'
p625
sg9
g41
sg11
S'--'
p626
sg13
g10
sg14
S'Doug Baldwin'
p627
sg16
S'2011'
p628
sg18
S'12'
p629
sg20
S'--'
p630
sg22
S'11/27'
p631
sg24
S'12.0'
p632
sg26
S'--'
p633
sg28
S'--'
p634
sg30
S'L17-23'
p635
sg32
S'60'
p636
sg34
g78
sg36
S'WAS'
p637
sg38
S'24'
p638
sg40
g41
sg42
S'--'
p639
ssg102
(dp640
g5
S'--'
p641
sg7
S'--'
p642
sg9
g41
sg11
S'--'
p643
sg13
g10
sg14
S'Doug Baldwin'
p644
sg16
S'2011'
p645
sg18
S'15'
p646
sg20
S'--'
p647
sg22
S'12/18'
p648
sg24
S'13.0'
p649
sg26
S'--'
p650
sg28
S'--'
p651
sg30
S'W38-14'
p652
sg32
S'13'
p653
sg34
g10
sg36
S'@CHI'
p654
sg38
S'13'
p655
sg40
g41
sg42
S'--'
p656
ssg121
(dp657
g5
S'--'
p658
sg7
S'--'
p659
sg9
g41
sg11
S'--'
p660
sg13
g10
sg14
S'Doug Baldwin'
p661
sg16
S'2011'
p662
sg18
S'14'
p663
sg20
S'--'
p664
sg22
S'12/12'
p665
sg24
S'13.3'
p666
sg26
S'--'
p667
sg28
S'--'
p668
sg30
S'W30-13'
p669
sg32
S'93'
p670
sg34
g59
sg36
S'STL'
p671
sg38
S'29T'
p672
sg40
g10
sg42
S'--'
p673
ssg139
(dp674
g5
S'--'
p675
sg7
S'--'
p676
sg9
g41
sg11
S'--'
p677
sg13
g10
sg14
S'Doug Baldwin'
p678
sg16
S'2011'
p679
sg18
S'17'
p680
sg20
S'--'
p681
sg22
S'01/01'
p682
sg24
S'13.3'
p683
sg26
S'--'
p684
sg28
S'--'
p685
sg30
S'L20-23'
p686
sg32
S'40'
p687
sg34
g100
sg36
S'@ARI'
p688
sg38
S'21'
p689
sg40
g41
sg42
S'--'
p690
ssg157
(dp691
g5
S'--'
p692
sg7
S'--'
p693
sg9
g10
sg11
S'--'
p694
sg13
g10
sg14
S'Doug Baldwin'
p695
sg16
S'2011'
p696
sg18
S'16'
p697
sg20
S'--'
p698
sg22
S'12/24'
p699
sg24
S'8.5'
p700
sg26
S'--'
p701
sg28
S'--'
p702
sg30
S'L17-19'
p703
sg32
S'17'
p704
sg34
g81
sg36
S'SF'
p705
sg38
S'13T'
p706
sg40
g10
sg42
S'--'
p707
ssg10
(dp708
g5
S'--'
p709
sg7
S'--'
p710
sg9
g41
sg11
S'--'
p711
sg13
g10
sg14
S'Doug Baldwin'
p712
sg16
S'2011'
p713
sg18
g10
sg20
S'--'
p714
sg22
S'09/11'
p715
sg24
S'20.8'
p716
sg26
S'--'
p717
sg28
S'--'
p718
sg30
S'L17-33'
p719
sg32
S'83'
p720
sg34
g117
sg36
S'@SF'
p721
sg38
S'55T'
p722
sg40
g10
sg42
S'--'
p723
ssg100
(dp724
g5
g41
sg7
S'-2'
p725
sg9
g41
sg11
S'--'
p726
sg13
g10
sg14
S'Doug Baldwin'
p727
sg16
S'2011'
p728
sg18
g100
sg20
S'-2.0'
p729
sg22
S'09/25'
p730
sg24
S'11.5'
p731
sg26
S'--'
p732
sg28
g10
sg30
S'W13-10'
p733
sg32
S'23'
p734
sg34
g81
sg36
S'ARI'
p735
sg38
S'20'
p736
sg40
g41
sg42
S'-2'
p737
ssg81
(dp738
g5
S'--'
p739
sg7
S'--'
p740
sg9
g41
sg11
S'--'
p741
sg13
g10
sg14
S'Doug Baldwin'
p742
sg16
S'2011'
p743
sg18
g81
sg20
S'--'
p744
sg22
S'09/18'
p745
sg24
S'4.0'
p746
sg26
S'--'
p747
sg28
S'--'
p748
sg30
S'L0-24'
p749
sg32
g117
sg34
g10
sg36
S'@PIT'
p750
sg38
g117
sg40
g41
sg42
S'--'
p751
ssg78
(dp752
g5
S'--'
p753
sg7
S'--'
p754
sg9
g41
sg11
S'--'
p755
sg13
g10
sg14
S'Doug Baldwin'
p756
sg16
S'2011'
p757
sg18
g78
sg20
S'--'
p758
sg22
S'10/09'
p759
sg24
S'17.0'
p760
sg26
S'--'
p761
sg28
S'--'
p762
sg30
S'W36-25'
p763
sg32
S'136'
p764
sg34
g170
sg36
S'@NYG'
p765
sg38
S'27T'
p766
sg40
g10
sg42
S'--'
p767
ssg117
(dp768
g5
S'--'
p769
sg7
S'--'
p770
sg9
g41
sg11
S'--'
p771
sg13
g10
sg14
S'Doug Baldwin'
p772
sg16
S'2011'
p773
sg18
g117
sg20
S'--'
p774
sg22
S'10/02'
p775
sg24
S'16.8'
p776
sg26
S'--'
p777
sg28
S'--'
p778
sg30
S'L28-30'
p779
sg32
S'84'
p780
sg34
g78
sg36
S'ATL'
p781
sg38
S'30'
p782
sg40
g41
sg42
S'--'
p783
ssg59
(dp784
g5
S'--'
p785
sg7
S'--'
p786
sg9
g41
sg11
S'--'
p787
sg13
g10
sg14
S'Doug Baldwin'
p788
sg16
S'2011'
p789
sg18
g59
sg20
S'--'
p790
sg22
S'10/23'
p791
sg24
S'--'
p792
sg26
S'--'
p793
sg28
S'--'
p794
sg30
S'L3-6'
p795
sg32
g41
sg34
g41
sg36
S'@CLE'
p796
sg38
S'--'
p797
sg40
g41
sg42
S'--'
p798
ssg35
(dp799
g5
g287
sg7
g287
sg9
g287
sg11
g287
sg13
g287
sg14
S'Doug Baldwin'
p800
sg16
S'2011'
p801
sg18
g35
sg20
g287
sg22
S'Bye'
p802
sg24
g287
sg26
g287
sg28
g287
sg30
g287
sg32
g287
sg34
g287
sg36
g287
sg38
g287
sg40
g287
sg42
g287
ssg285
(dp803
g5
S'--'
p804
sg7
S'--'
p805
sg9
g41
sg11
S'--'
p806
sg13
g10
sg14
S'Doug Baldwin'
p807
sg16
S'2011'
p808
sg18
g285
sg20
S'--'
p809
sg22
S'11/06'
p810
sg24
S'10.3'
p811
sg26
S'--'
p812
sg28
S'--'
p813
sg30
S'L13-23'
p814
sg32
S'31'
p815
sg34
g100
sg36
S'@DAL'
p816
sg38
S'25'
p817
sg40
g41
sg42
S'--'
p818
ssg170
(dp819
g5
S'--'
p820
sg7
S'--'
p821
sg9
g41
sg11
S'--'
p822
sg13
g10
sg14
S'Doug Baldwin'
p823
sg16
S'2011'
p824
sg18
g170
sg20
S'--'
p825
sg22
S'10/30'
p826
sg24
S'14.6'
p827
sg26
S'--'
p828
sg28
S'--'
p829
sg30
S'L12-34'
p830
sg32
S'73'
p831
sg34
g78
sg36
S'CIN'
p832
sg38
S'31'
p833
sg40
g41
sg42
S'--'
p834
sssS'2013'
p835
(dp836
g3
(dp837
g5
S'--'
p838
sg7
S'--'
p839
sg9
g10
sg11
S'--'
p840
sg13
g10
sg14
S'Doug Baldwin'
p841
sg16
S'2013'
p842
sg18
S'11'
p843
sg20
S'--'
p844
sg22
S'11/17'
p845
sg24
S'31.5'
p846
sg26
S'--'
p847
sg28
S'--'
p848
sg30
S'W41-20'
p849
sg32
S'63'
p850
sg34
g81
sg36
S'MIN'
p851
sg38
S'44'
p852
sg40
g10
sg42
S'--'
p853
ssg44
(dp854
g5
S'--'
p855
sg7
S'--'
p856
sg9
g10
sg11
S'--'
p857
sg13
g10
sg14
S'Doug Baldwin'
p858
sg16
S'2013'
p859
sg18
S'10'
p860
sg20
S'--'
p861
sg22
S'11/10'
p862
sg24
S'15.2'
p863
sg26
S'--'
p864
sg28
S'--'
p865
sg30
S'W33-10'
p866
sg32
S'76'
p867
sg34
g78
sg36
S'@ATL'
p868
sg38
S'30'
p869
sg40
g41
sg42
S'--'
p870
ssg63
(dp871
g5
S'--'
p872
sg7
S'--'
p873
sg9
g10
sg11
S'--'
p874
sg13
g10
sg14
S'Doug Baldwin'
p875
sg16
S'2013'
p876
sg18
S'13'
p877
sg20
S'--'
p878
sg22
S'12/02'
p879
sg24
S'19.3'
p880
sg26
S'--'
p881
sg28
S'--'
p882
sg30
S'W34-7'
p883
sg32
S'77'
p884
sg34
g117
sg36
S'NO'
p885
sg38
S'52'
p886
sg40
g10
sg42
S'--'
p887
ssg83
(dp888
g5
g287
sg7
g287
sg9
g287
sg11
g287
sg13
g287
sg14
S'Doug Baldwin'
p889
sg16
S'2013'
p890
sg18
S'12'
p891
sg20
g287
sg22
S'Bye'
p892
sg24
g287
sg26
g287
sg28
g287
sg30
g287
sg32
g287
sg34
g287
sg36
g287
sg38
g287
sg40
g287
sg42
g287
ssg102
(dp893
g5
g41
sg7
g100
sg9
g10
sg11
S'--'
p894
sg13
g10
sg14
S'Doug Baldwin'
p895
sg16
S'2013'
p896
sg18
S'15'
p897
sg20
S'3.0'
p898
sg22
S'12/15'
p899
sg24
S'11.8'
p900
sg26
S'--'
p901
sg28
g10
sg30
S'W23-0'
p902
sg32
S'71'
p903
sg34
g35
sg36
S'@NYG'
p904
sg38
S'25'
p905
sg40
g10
sg42
g100
ssg121
(dp906
g5
S'--'
p907
sg7
S'--'
p908
sg9
g10
sg11
S'--'
p909
sg13
g10
sg14
S'Doug Baldwin'
p910
sg16
S'2013'
p911
sg18
S'14'
p912
sg20
S'--'
p913
sg22
S'12/08'
p914
sg24
S'12.0'
p915
sg26
S'--'
p916
sg28
S'--'
p917
sg30
S'L17-19'
p918
sg32
S'36'
p919
sg34
g100
sg36
S'@SF'
p920
sg38
S'14'
p921
sg40
g41
sg42
S'--'
p922
ssg139
(dp923
g5
S'--'
p924
sg7
S'--'
p925
sg9
g41
sg11
S'--'
p926
sg13
g10
sg14
S'Doug Baldwin'
p927
sg16
S'2013'
p928
sg18
S'17'
p929
sg20
S'--'
p930
sg22
S'12/29'
p931
sg24
S'--'
p932
sg26
S'--'
p933
sg28
S'--'
p934
sg30
S'W27-9'
p935
sg32
g41
sg34
g41
sg36
S'STL'
p936
sg38
S'--'
p937
sg40
g41
sg42
S'--'
p938
ssg157
(dp939
g5
S'--'
p940
sg7
S'--'
p941
sg9
g10
sg11
S'--'
p942
sg13
g10
sg14
S'Doug Baldwin'
p943
sg16
S'2013'
p944
sg18
S'16'
p945
sg20
S'--'
p946
sg22
S'12/22'
p947
sg24
S'8.0'
p948
sg26
S'--'
p949
sg28
S'--'
p950
sg30
S'L10-17'
p951
sg32
g170
sg34
g10
sg36
S'ARI'
p952
sg38
g170
sg40
g41
sg42
S'--'
p953
ssg10
(dp954
g5
g41
sg7
g100
sg9
g41
sg11
S'--'
p955
sg13
g10
sg14
S'Doug Baldwin'
p956
sg16
S'2013'
p957
sg18
g10
sg20
S'3.0'
p958
sg22
S'09/08'
p959
sg24
S'13.0'
p960
sg26
S'--'
p961
sg28
g10
sg30
S'W12-7'
p962
sg32
S'91'
p963
sg34
g59
sg36
S'@CAR'
p964
sg38
S'25'
p965
sg40
g41
sg42
g100
ssg100
(dp966
g5
S'--'
p967
sg7
S'--'
p968
sg9
g41
sg11
S'--'
p969
sg13
g10
sg14
S'Doug Baldwin'
p970
sg16
S'2013'
p971
sg18
g100
sg20
S'--'
p972
sg22
S'09/22'
p973
sg24
S'35.0'
p974
sg26
S'--'
p975
sg28
S'--'
p976
sg30
S'W45-17'
p977
sg32
S'35'
p978
sg34
g10
sg36
S'JAC'
p979
sg38
S'35T'
p980
sg40
g10
sg42
S'--'
p981
ssg81
(dp982
g5
S'--'
p983
sg7
S'--'
p984
sg9
g41
sg11
S'--'
p985
sg13
g10
sg14
S'Doug Baldwin'
p986
sg16
S'2013'
p987
sg18
g81
sg20
S'--'
p988
sg22
S'09/15'
p989
sg24
S'51.0'
p990
sg26
S'--'
p991
sg28
S'--'
p992
sg30
S'W29-3'
p993
sg32
S'51'
p994
sg34
g10
sg36
S'SF'
p995
sg38
S'51'
p996
sg40
g41
sg42
S'--'
p997
ssg78
(dp998
g5
S'--'
p999
sg7
S'--'
p1000
sg9
g10
sg11
S'--'
p1001
sg13
g10
sg14
S'Doug Baldwin'
p1002
sg16
S'2013'
p1003
sg18
g78
sg20
S'--'
p1004
sg22
S'10/06'
p1005
sg24
S'16.0'
p1006
sg26
S'--'
p1007
sg28
S'--'
p1008
sg30
S'L28-34'
p1009
sg32
S'80'
p1010
sg34
g78
sg36
S'@IND'
p1011
sg38
S'27'
p1012
sg40
g41
sg42
S'--'
p1013
ssg117
(dp1014
g5
S'--'
p1015
sg7
S'--'
p1016
sg9
g41
sg11
S'--'
p1017
sg13
g10
sg14
S'Doug Baldwin'
p1018
sg16
S'2013'
p1019
sg18
g117
sg20
S'--'
p1020
sg22
S'09/29'
p1021
sg24
S'13.0'
p1022
sg26
S'--'
p1023
sg28
S'--'
p1024
sg30
S'W23-20'
p1025
sg32
S'39'
p1026
sg34
g100
sg36
S'@HOU'
p1027
sg38
S'24'
p1028
sg40
g41
sg42
S'--'
p1029
ssg59
(dp1030
g5
S'--'
p1031
sg7
S'--'
p1032
sg9
g10
sg11
S'--'
p1033
sg13
g10
sg14
S'Doug Baldwin'
p1034
sg16
S'2013'
p1035
sg18
g59
sg20
S'--'
p1036
sg22
S'10/17'
p1037
sg24
S'16.0'
p1038
sg26
S'--'
p1039
sg28
S'--'
p1040
sg30
S'W34-22'
p1041
sg32
S'16'
p1042
sg34
g10
sg36
S'@ARI'
p1043
sg38
S'16'
p1044
sg40
g41
sg42
S'--'
p1045
ssg35
(dp1046
g5
S'--'
p1047
sg7
S'--'
p1048
sg9
g41
sg11
S'--'
p1049
sg13
g10
sg14
S'Doug Baldwin'
p1050
sg16
S'2013'
p1051
sg18
g35
sg20
S'--'
p1052
sg22
S'10/13'
p1053
sg24
S'12.0'
p1054
sg26
S'--'
p1055
sg28
S'--'
p1056
sg30
S'W20-13'
p1057
sg32
S'48'
p1058
sg34
g117
sg36
S'TEN'
p1059
sg38
S'28'
p1060
sg40
g41
sg42
S'--'
p1061
ssg285
(dp1062
g5
S'--'
p1063
sg7
S'--'
p1064
sg9
g10
sg11
S'--'
p1065
sg13
g10
sg14
S'Doug Baldwin'
p1066
sg16
S'2013'
p1067
sg18
g285
sg20
S'--'
p1068
sg22
S'11/03'
p1069
sg24
S'12.5'
p1070
sg26
S'--'
p1071
sg28
S'--'
p1072
sg30
S'W27-24'
p1073
sg32
S'75'
p1074
sg34
g35
sg36
S'TB'
p1075
sg38
S'28'
p1076
sg40
g10
sg42
S'--'
p1077
ssg170
(dp1078
g5
S'--'
p1079
sg7
S'--'
p1080
sg9
g41
sg11
S'--'
p1081
sg13
g10
sg14
S'Doug Baldwin'
p1082
sg16
S'2013'
p1083
sg18
g170
sg20
S'--'
p1084
sg22
S'10/28'
p1085
sg24
S'12.0'
p1086
sg26
S'--'
p1087
sg28
S'--'
p1088
sg30
S'W14-9'
p1089
sg32
S'12'
p1090
sg34
g10
sg36
S'@STL'
p1091
sg38
S'12'
p1092
sg40
g41
sg42
S'--'
p1093
sssS'2012'
p1094
(dp1095
g3
(dp1096
g5
g287
sg7
g287
sg9
g287
sg11
g287
sg13
g287
sg14
S'Doug Baldwin'
p1097
sg16
S'2012'
p1098
sg18
S'11'
p1099
sg20
g287
sg22
S'Bye'
p1100
sg24
g287
sg26
g287
sg28
g287
sg30
g287
sg32
g287
sg34
g287
sg36
g287
sg38
g287
sg40
g287
sg42
g287
ssg44
(dp1101
g5
S'--'
p1102
sg7
S'--'
p1103
sg9
g41
sg11
S'--'
p1104
sg13
g10
sg14
S'Doug Baldwin'
p1105
sg16
S'2012'
p1106
sg18
S'10'
p1107
sg20
S'--'
p1108
sg22
S'11/11'
p1109
sg24
S'14.0'
p1110
sg26
S'--'
p1111
sg28
S'--'
p1112
sg30
S'W28-7'
p1113
sg32
S'42'
p1114
sg34
g100
sg36
S'NYJ'
p1115
sg38
S'18'
p1116
sg40
g41
sg42
S'--'
p1117
ssg63
(dp1118
g5
S'--'
p1119
sg7
S'--'
p1120
sg9
g41
sg11
S'--'
p1121
sg13
g10
sg14
S'Doug Baldwin'
p1122
sg16
S'2012'
p1123
sg18
S'13'
p1124
sg20
S'--'
p1125
sg22
S'12/02'
p1126
sg24
S'11.5'
p1127
sg26
S'--'
p1128
sg28
S'--'
p1129
sg30
S'W23-17'
p1130
sg32
S'46'
p1131
sg34
g117
sg36
S'@CHI'
p1132
sg38
S'20'
p1133
sg40
g41
sg42
S'--'
p1134
ssg83
(dp1135
g5
S'--'
p1136
sg7
S'--'
p1137
sg9
g10
sg11
S'--'
p1138
sg13
g10
sg14
S'Doug Baldwin'
p1139
sg16
S'2012'
p1140
sg18
S'12'
p1141
sg20
S'--'
p1142
sg22
S'11/25'
p1143
sg24
S'14.0'
p1144
sg26
S'--'
p1145
sg28
S'--'
p1146
sg30
S'L21-24'
p1147
sg32
S'14'
p1148
sg34
g10
sg36
S'@MIA'
p1149
sg38
S'14'
p1150
sg40
g41
sg42
S'--'
p1151
ssg102
(dp1152
g5
S'--'
p1153
sg7
S'--'
p1154
sg9
g41
sg11
S'--'
p1155
sg13
g10
sg14
S'Doug Baldwin'
p1156
sg16
S'2012'
p1157
sg18
S'15'
p1158
sg20
S'--'
p1159
sg22
S'12/16'
p1160
sg24
S'8.0'
p1161
sg26
S'--'
p1162
sg28
S'--'
p1163
sg30
S'W50-17'
p1164
sg32
g170
sg34
g10
sg36
S'@BUF'
p1165
sg38
g170
sg40
g41
sg42
S'--'
p1166
ssg121
(dp1167
g5
S'--'
p1168
sg7
S'--'
p1169
sg9
g41
sg11
S'--'
p1170
sg13
g10
sg14
S'Doug Baldwin'
p1171
sg16
S'2012'
p1172
sg18
S'14'
p1173
sg20
S'--'
p1174
sg22
S'12/09'
p1175
sg24
S'14.5'
p1176
sg26
S'--'
p1177
sg28
S'--'
p1178
sg30
S'W58-0'
p1179
sg32
S'29'
p1180
sg34
g81
sg36
S'ARI'
p1181
sg38
S'27'
p1182
sg40
g41
sg42
S'--'
p1183
ssg139
(dp1184
g5
S'--'
p1185
sg7
S'--'
p1186
sg9
g10
sg11
S'--'
p1187
sg13
g10
sg14
S'Doug Baldwin'
p1188
sg16
S'2012'
p1189
sg18
S'17'
p1190
sg20
S'--'
p1191
sg22
S'12/30'
p1192
sg24
S'9.5'
p1193
sg26
S'--'
p1194
sg28
S'--'
p1195
sg30
S'W20-13'
p1196
sg32
S'19'
p1197
sg34
g81
sg36
S'STL'
p1198
sg38
S'12'
p1199
sg40
g41
sg42
S'--'
p1200
ssg157
(dp1201
g5
S'--'
p1202
sg7
S'--'
p1203
sg9
g10
sg11
S'--'
p1204
sg13
g10
sg14
S'Doug Baldwin'
p1205
sg16
S'2012'
p1206
sg18
S'16'
p1207
sg20
S'--'
p1208
sg22
S'12/23'
p1209
sg24
S'13.3'
p1210
sg26
S'--'
p1211
sg28
S'--'
p1212
sg30
S'W42-13'
p1213
sg32
S'53'
p1214
sg34
g117
sg36
S'SF'
p1215
sg38
S'43'
p1216
sg40
g81
sg42
S'--'
p1217
ssg10
(dp1218
g5
S'--'
p1219
sg7
S'--'
p1220
sg9
g41
sg11
S'--'
p1221
sg13
g10
sg14
S'Doug Baldwin'
p1222
sg16
S'2012'
p1223
sg18
g10
sg20
S'--'
p1224
sg22
S'09/09'
p1225
sg24
S'2.5'
p1226
sg26
S'--'
p1227
sg28
S'--'
p1228
sg30
S'L16-20'
p1229
sg32
g78
sg34
g81
sg36
S'@ARI'
p1230
sg38
g117
sg40
g41
sg42
S'--'
p1231
ssg100
(dp1232
g5
S'--'
p1233
sg7
S'--'
p1234
sg9
g41
sg11
S'--'
p1235
sg13
g41
sg14
S'Doug Baldwin'
p1236
sg16
S'2012'
p1237
sg18
g100
sg20
S'--'
p1238
sg22
S'09/24'
p1239
sg24
S'--'
p1240
sg26
S'--'
p1241
sg28
S'--'
p1242
sg30
S'W14-12'
p1243
sg32
S'--'
p1244
sg34
S'--'
p1245
sg36
S'GB'
p1246
sg38
S'--'
p1247
sg40
S'--'
p1248
sg42
S'--'
p1249
ssg81
(dp1250
g5
S'--'
p1251
sg7
S'--'
p1252
sg9
g41
sg11
S'--'
p1253
sg13
g10
sg14
S'Doug Baldwin'
p1254
sg16
S'2012'
p1255
sg18
g81
sg20
S'--'
p1256
sg22
S'09/16'
p1257
sg24
S'8.0'
p1258
sg26
S'--'
p1259
sg28
S'--'
p1260
sg30
S'W27-7'
p1261
sg32
g170
sg34
g10
sg36
S'DAL'
p1262
sg38
g170
sg40
g41
sg42
S'--'
p1263
ssg78
(dp1264
g5
S'--'
p1265
sg7
S'--'
p1266
sg9
g41
sg11
S'--'
p1267
sg13
g10
sg14
S'Doug Baldwin'
p1268
sg16
S'2012'
p1269
sg18
g78
sg20
S'--'
p1270
sg22
S'10/07'
p1271
sg24
S'12.3'
p1272
sg26
S'--'
p1273
sg28
S'--'
p1274
sg30
S'W16-12'
p1275
sg32
S'37'
p1276
sg34
g100
sg36
S'@CAR'
p1277
sg38
S'19'
p1278
sg40
g41
sg42
S'--'
p1279
ssg117
(dp1280
g5
S'--'
p1281
sg7
S'--'
p1282
sg9
g41
sg11
S'--'
p1283
sg13
g10
sg14
S'Doug Baldwin'
p1284
sg16
S'2012'
p1285
sg18
g117
sg20
S'--'
p1286
sg22
S'09/30'
p1287
sg24
S'10.0'
p1288
sg26
S'--'
p1289
sg28
S'--'
p1290
sg30
S'L13-19'
p1291
sg32
S'10'
p1292
sg34
g10
sg36
S'@STL'
p1293
sg38
S'10'
p1294
sg40
g41
sg42
S'--'
p1295
ssg59
(dp1296
g5
S'--'
p1297
sg7
S'--'
p1298
sg9
g41
sg11
S'--'
p1299
sg13
g10
sg14
S'Doug Baldwin'
p1300
sg16
S'2012'
p1301
sg18
g59
sg20
S'--'
p1302
sg22
S'10/18'
p1303
sg24
S'7.5'
p1304
sg26
S'--'
p1305
sg28
S'--'
p1306
sg30
S'L6-13'
p1307
sg32
S'15'
p1308
sg34
g81
sg36
S'@SF'
p1309
sg38
g170
sg40
g41
sg42
S'--'
p1310
ssg35
(dp1311
g5
S'--'
p1312
sg7
S'--'
p1313
sg9
g41
sg11
S'--'
p1314
sg13
g10
sg14
S'Doug Baldwin'
p1315
sg16
S'2012'
p1316
sg18
g35
sg20
S'--'
p1317
sg22
S'10/14'
p1318
sg24
S'37.0'
p1319
sg26
S'--'
p1320
sg28
S'--'
p1321
sg30
S'W24-23'
p1322
sg32
S'74'
p1323
sg34
g81
sg36
S'NE'
p1324
sg38
S'50'
p1325
sg40
g10
sg42
S'--'
p1326
ssg285
(dp1327
g5
S'--'
p1328
sg7
S'--'
p1329
sg9
g10
sg11
S'--'
p1330
sg13
g10
sg14
S'Doug Baldwin'
p1331
sg16
S'2012'
p1332
sg18
g285
sg20
S'--'
p1333
sg22
S'11/04'
p1334
sg24
S'6.0'
p1335
sg26
S'--'
p1336
sg28
S'--'
p1337
sg30
S'W30-20'
p1338
sg32
g35
sg34
g10
sg36
S'MIN'
p1339
sg38
g35
sg40
g41
sg42
S'--'
p1340
ssg170
(dp1341
g5
S'--'
p1342
sg7
S'--'
p1343
sg9
g41
sg11
S'--'
p1344
sg13
g41
sg14
S'Doug Baldwin'
p1345
sg16
S'2012'
p1346
sg18
g170
sg20
S'--'
p1347
sg22
S'10/28'
p1348
sg24
S'--'
p1349
sg26
S'--'
p1350
sg28
S'--'
p1351
sg30
S'L24-28'
p1352
sg32
S'--'
p1353
sg34
S'--'
p1354
sg36
S'@DET'
p1355
sg38
S'--'
p1356
sg40
S'--'
p1357
sg42
S'--'
p1358
sss.