(dp0
S'2015'
p1
(dp2
S'11'
p3
(dp4
S'RushTD'
p5
S''
p6
sS'RushYds'
p7
g6
sS'GS'
p8
g6
sS'Lost'
p9
g6
sS'G'
p10
g6
sS'Player'
p11
S'Dwayne Harris'
p12
sS'Year'
p13
S'2015'
p14
sS'WK'
p15
S'11'
p16
sS'RushAvg'
p17
g6
sS'Game Date'
p18
S'Bye'
p19
sS'RecAvg'
p20
g6
sS'FUM'
p21
g6
sS'RushAtt'
p22
g6
sS'Result'
p23
g6
sS'RecYds'
p24
g6
sS'Rec'
p25
g6
sS'Opp'
p26
g6
sS'RecLng'
p27
g6
sS'RecTD'
p28
g6
sS'RushLng'
p29
g6
ssS'10'
p30
(dp31
g5
S'--'
p32
sg7
S'--'
p33
sg8
S'0'
p34
sg9
S'--'
p35
sg10
S'1'
p36
sg11
S'Dwayne Harris'
p37
sg13
S'2015'
p38
sg15
S'10'
p39
sg17
S'--'
p40
sg18
S'11/15'
p41
sg20
S'13.7'
p42
sg21
S'--'
p43
sg22
S'--'
p44
sg23
S'L26-27'
p45
sg24
S'82'
p46
sg25
S'6'
p47
sg26
S'NE'
p48
sg27
S'30'
p49
sg28
g36
sg29
S'--'
p50
ssS'13'
p51
(dp52
g5
S'--'
p53
sg7
S'--'
p54
sg8
g34
sg9
S'--'
p55
sg10
g36
sg11
S'Dwayne Harris'
p56
sg13
S'2015'
p57
sg15
S'13'
p58
sg17
S'--'
p59
sg18
S'12/06'
p60
sg20
S'8.0'
p61
sg21
S'--'
p62
sg22
S'--'
p63
sg23
S'L20-23'
p64
sg24
S'8'
p65
sg25
g36
sg26
S'NYJ'
p66
sg27
g65
sg28
g34
sg29
S'--'
p67
ssS'12'
p68
(dp69
g5
g34
sg7
g36
sg8
g34
sg9
g34
sg10
g36
sg11
S'Dwayne Harris'
p70
sg13
S'2015'
p71
sg15
S'12'
p72
sg17
S'1.0'
p73
sg18
S'11/29'
p74
sg20
S'14.0'
p75
sg21
g36
sg22
g36
sg23
S'L14-20'
p76
sg24
S'28'
p77
sg25
S'2'
p78
sg26
S'@WAS'
p79
sg27
S'15'
p80
sg28
g34
sg29
g36
ssS'15'
p81
(dp82
g5
S'--'
p83
sg7
S'--'
p84
sg8
g36
sg9
S'--'
p85
sg10
g36
sg11
S'Dwayne Harris'
p86
sg13
S'2015'
p87
sg15
S'15'
p88
sg17
S'--'
p89
sg18
S'12/20'
p90
sg20
S'4.5'
p91
sg21
S'--'
p92
sg22
S'--'
p93
sg23
S'L35-38'
p94
sg24
S'9'
p95
sg25
g78
sg26
S'CAR'
p96
sg27
S'5'
p97
sg28
g34
sg29
S'--'
p98
ssS'14'
p99
(dp100
g5
S'--'
p101
sg7
S'--'
p102
sg8
g36
sg9
S'--'
p103
sg10
g36
sg11
S'Dwayne Harris'
p104
sg13
S'2015'
p105
sg15
S'14'
p106
sg17
S'--'
p107
sg18
S'12/14'
p108
sg20
S'8.2'
p109
sg21
S'--'
p110
sg22
S'--'
p111
sg23
S'W31-24'
p112
sg24
S'41'
p113
sg25
g97
sg26
S'@MIA'
p114
sg27
S'12'
p115
sg28
g34
sg29
S'--'
p116
ssS'17'
p117
(dp118
g5
S'--'
p119
sg7
S'--'
p120
sg8
g34
sg9
S'--'
p121
sg10
g34
sg11
S'Dwayne Harris'
p122
sg13
S'2015'
p123
sg15
S'17'
p124
sg17
S'--'
p125
sg18
S'01/03'
p126
sg20
S'--'
p127
sg21
S'--'
p128
sg22
S'--'
p129
sg23
S'L30-35'
p130
sg24
S'--'
p131
sg25
S'--'
p132
sg26
S'PHI'
p133
sg27
S'--'
p134
sg28
S'--'
p135
sg29
S'--'
p136
ssS'16'
p137
(dp138
g5
S'--'
p139
sg7
S'--'
p140
sg8
g36
sg9
g34
sg10
g36
sg11
S'Dwayne Harris'
p141
sg13
S'2015'
p142
sg15
S'16'
p143
sg17
S'--'
p144
sg18
S'12/27'
p145
sg20
S'6.0'
p146
sg21
g36
sg22
S'--'
p147
sg23
S'L17-49'
p148
sg24
g47
sg25
g36
sg26
S'@MIN'
p149
sg27
g47
sg28
g34
sg29
S'--'
p150
ssg36
(dp151
g5
g34
sg7
S'11'
p152
sg8
g34
sg9
S'--'
p153
sg10
g36
sg11
S'Dwayne Harris'
p154
sg13
S'2015'
p155
sg15
g36
sg17
S'11.0'
p156
sg18
S'09/13'
p157
sg20
S'--'
p158
sg21
S'--'
p159
sg22
g36
sg23
S'L26-27'
p160
sg24
S'--'
p161
sg25
S'--'
p162
sg26
S'@DAL'
p163
sg27
S'--'
p164
sg28
S'--'
p165
sg29
S'11'
p166
ssS'3'
p167
(dp168
g5
S'--'
p169
sg7
S'--'
p170
sg8
g36
sg9
g34
sg10
g36
sg11
S'Dwayne Harris'
p171
sg13
S'2015'
p172
sg15
g167
sg17
S'--'
p173
sg18
S'09/24'
p174
sg20
S'--'
p175
sg21
g36
sg22
S'--'
p176
sg23
S'W32-21'
p177
sg24
g34
sg25
g34
sg26
S'WAS'
p178
sg27
S'--'
p179
sg28
g34
sg29
S'--'
p180
ssg78
(dp181
g5
S'--'
p182
sg7
S'--'
p183
sg8
g34
sg9
S'--'
p184
sg10
g36
sg11
S'Dwayne Harris'
p185
sg13
S'2015'
p186
sg15
g78
sg17
S'--'
p187
sg18
S'09/20'
p188
sg20
S'--'
p189
sg21
S'--'
p190
sg22
S'--'
p191
sg23
S'L20-24'
p192
sg24
S'--'
p193
sg25
S'--'
p194
sg26
S'ATL'
p195
sg27
S'--'
p196
sg28
S'--'
p197
sg29
S'--'
p198
ssg97
(dp199
g5
S'--'
p200
sg7
S'--'
p201
sg8
g34
sg9
S'--'
p202
sg10
g36
sg11
S'Dwayne Harris'
p203
sg13
S'2015'
p204
sg15
g97
sg17
S'--'
p205
sg18
S'10/11'
p206
sg20
S'12.0'
p207
sg21
S'--'
p208
sg22
S'--'
p209
sg23
S'W30-27'
p210
sg24
S'72'
p211
sg25
g47
sg26
S'SF'
p212
sg27
S'24'
p213
sg28
g34
sg29
S'--'
p214
ssS'4'
p215
(dp216
g5
S'--'
p217
sg7
S'--'
p218
sg8
g36
sg9
S'--'
p219
sg10
g36
sg11
S'Dwayne Harris'
p220
sg13
S'2015'
p221
sg15
g215
sg17
S'--'
p222
sg18
S'10/04'
p223
sg20
S'10.2'
p224
sg21
S'--'
p225
sg22
S'--'
p226
sg23
S'W24-10'
p227
sg24
S'51'
p228
sg25
g97
sg26
S'@BUF'
p229
sg27
S'21T'
p230
sg28
g36
sg29
S'--'
p231
ssS'7'
p232
(dp233
g5
S'--'
p234
sg7
S'--'
p235
sg8
g34
sg9
S'--'
p236
sg10
g36
sg11
S'Dwayne Harris'
p237
sg13
S'2015'
p238
sg15
g232
sg17
S'--'
p239
sg18
S'10/25'
p240
sg20
S'21.5'
p241
sg21
S'--'
p242
sg22
S'--'
p243
sg23
S'W27-20'
p244
sg24
S'43'
p245
sg25
g78
sg26
S'DAL'
p246
sg27
S'38'
p247
sg28
g34
sg29
S'--'
p248
ssg47
(dp249
g5
S'--'
p250
sg7
S'--'
p251
sg8
g34
sg9
S'--'
p252
sg10
g36
sg11
S'Dwayne Harris'
p253
sg13
S'2015'
p254
sg15
g47
sg17
S'--'
p255
sg18
S'10/19'
p256
sg20
S'9.0'
p257
sg21
S'--'
p258
sg22
S'--'
p259
sg23
S'L7-27'
p260
sg24
S'18'
p261
sg25
g78
sg26
S'@PHI'
p262
sg27
S'11'
p263
sg28
g34
sg29
S'--'
p264
ssg95
(dp265
g5
S'--'
p266
sg7
S'--'
p267
sg8
g36
sg9
S'--'
p268
sg10
g36
sg11
S'Dwayne Harris'
p269
sg13
S'2015'
p270
sg15
g95
sg17
S'--'
p271
sg18
S'11/08'
p272
sg20
S'1.0'
p273
sg21
S'--'
p274
sg22
S'--'
p275
sg23
S'W32-18'
p276
sg24
g36
sg25
g36
sg26
S'@TB'
p277
sg27
g36
sg28
g34
sg29
S'--'
p278
ssg65
(dp279
g5
S'--'
p280
sg7
S'--'
p281
sg8
g34
sg9
S'--'
p282
sg10
g36
sg11
S'Dwayne Harris'
p283
sg13
S'2015'
p284
sg15
g65
sg17
S'--'
p285
sg18
S'11/01'
p286
sg20
S'12.3'
p287
sg21
S'--'
p288
sg22
S'--'
p289
sg23
S'L49-52'
p290
sg24
S'37'
p291
sg25
g167
sg26
S'@NO'
p292
sg27
S'20T'
p293
sg28
g78
sg29
S'--'
p294
sssS'2014'
p295
(dp296
g3
(dp297
g5
g6
sg7
g6
sg8
g6
sg9
g6
sg10
g6
sg11
S'Dwayne Harris'
p298
sg13
S'2014'
p299
sg15
S'11'
p300
sg17
g6
sg18
S'Bye'
p301
sg20
g6
sg21
g6
sg22
g6
sg23
g6
sg24
g6
sg25
g6
sg26
g6
sg27
g6
sg28
g6
sg29
g6
ssg30
(dp302
g5
g34
sg7
S'-2'
p303
sg8
g34
sg9
S'--'
p304
sg10
g36
sg11
S'Dwayne Harris'
p305
sg13
S'2014'
p306
sg15
S'10'
p307
sg17
S'-2.0'
p308
sg18
S'11/09'
p309
sg20
S'--'
p310
sg21
S'--'
p311
sg22
g36
sg23
S'W31-17'
p312
sg24
S'--'
p313
sg25
S'--'
p314
sg26
S'@JAC'
p315
sg27
S'--'
p316
sg28
S'--'
p317
sg29
S'-2'
p318
ssg51
(dp319
g5
S'--'
p320
sg7
S'--'
p321
sg8
g34
sg9
S'--'
p322
sg10
g36
sg11
S'Dwayne Harris'
p323
sg13
S'2014'
p324
sg15
S'13'
p325
sg17
S'--'
p326
sg18
S'11/27'
p327
sg20
S'--'
p328
sg21
S'--'
p329
sg22
S'--'
p330
sg23
S'L10-33'
p331
sg24
S'--'
p332
sg25
S'--'
p333
sg26
S'PHI'
p334
sg27
S'--'
p335
sg28
S'--'
p336
sg29
S'--'
p337
ssg68
(dp338
g5
S'--'
p339
sg7
S'--'
p340
sg8
g34
sg9
S'--'
p341
sg10
g36
sg11
S'Dwayne Harris'
p342
sg13
S'2014'
p343
sg15
S'12'
p344
sg17
S'--'
p345
sg18
S'11/23'
p346
sg20
S'--'
p347
sg21
S'--'
p348
sg22
S'--'
p349
sg23
S'W31-28'
p350
sg24
S'--'
p351
sg25
S'--'
p352
sg26
S'@NYG'
p353
sg27
S'--'
p354
sg28
S'--'
p355
sg29
S'--'
p356
ssg81
(dp357
g5
S'--'
p358
sg7
S'--'
p359
sg8
g34
sg9
S'--'
p360
sg10
g36
sg11
S'Dwayne Harris'
p361
sg13
S'2014'
p362
sg15
S'15'
p363
sg17
S'--'
p364
sg18
S'12/14'
p365
sg20
S'--'
p366
sg21
S'--'
p367
sg22
S'--'
p368
sg23
S'W38-27'
p369
sg24
g34
sg25
g34
sg26
S'@PHI'
p370
sg27
S'--'
p371
sg28
g34
sg29
S'--'
p372
ssg99
(dp373
g5
S'--'
p374
sg7
S'--'
p375
sg8
g34
sg9
S'--'
p376
sg10
g36
sg11
S'Dwayne Harris'
p377
sg13
S'2014'
p378
sg15
S'14'
p379
sg17
S'--'
p380
sg18
S'12/04'
p381
sg20
S'--'
p382
sg21
S'--'
p383
sg22
S'--'
p384
sg23
S'W41-28'
p385
sg24
g34
sg25
g34
sg26
S'@CHI'
p386
sg27
S'--'
p387
sg28
g34
sg29
S'--'
p388
ssg117
(dp389
g5
g34
sg7
g36
sg8
g34
sg9
S'--'
p390
sg10
g36
sg11
S'Dwayne Harris'
p391
sg13
S'2014'
p392
sg15
S'17'
p393
sg17
S'1.0'
p394
sg18
S'12/28'
p395
sg20
S'--'
p396
sg21
S'--'
p397
sg22
g36
sg23
S'W44-17'
p398
sg24
S'--'
p399
sg25
S'--'
p400
sg26
S'@WAS'
p401
sg27
S'--'
p402
sg28
S'--'
p403
sg29
g36
ssg137
(dp404
g5
S'--'
p405
sg7
S'--'
p406
sg8
g34
sg9
S'--'
p407
sg10
g36
sg11
S'Dwayne Harris'
p408
sg13
S'2014'
p409
sg15
S'16'
p410
sg17
S'--'
p411
sg18
S'12/21'
p412
sg20
S'--'
p413
sg21
S'--'
p414
sg22
S'--'
p415
sg23
S'W42-7'
p416
sg24
g34
sg25
g34
sg26
S'IND'
p417
sg27
S'--'
p418
sg28
g34
sg29
S'--'
p419
ssg36
(dp420
g5
g34
sg7
g95
sg8
g34
sg9
g34
sg10
g36
sg11
S'Dwayne Harris'
p421
sg13
S'2014'
p422
sg15
g36
sg17
S'9.0'
p423
sg18
S'09/07'
p424
sg20
S'56.0'
p425
sg21
g78
sg22
g36
sg23
S'L17-28'
p426
sg24
S'56'
p427
sg25
g36
sg26
S'SF'
p428
sg27
S'56'
p429
sg28
g34
sg29
g95
ssg167
(dp430
g5
S'--'
p431
sg7
S'--'
p432
sg8
g34
sg9
S'--'
p433
sg10
g36
sg11
S'Dwayne Harris'
p434
sg13
S'2014'
p435
sg15
g167
sg17
S'--'
p436
sg18
S'09/21'
p437
sg20
S'--'
p438
sg21
S'--'
p439
sg22
S'--'
p440
sg23
S'W34-31'
p441
sg24
S'--'
p442
sg25
S'--'
p443
sg26
S'@STL'
p444
sg27
S'--'
p445
sg28
S'--'
p446
sg29
S'--'
p447
ssg78
(dp448
g5
S'--'
p449
sg7
S'--'
p450
sg8
g34
sg9
S'--'
p451
sg10
g36
sg11
S'Dwayne Harris'
p452
sg13
S'2014'
p453
sg15
g78
sg17
S'--'
p454
sg18
S'09/14'
p455
sg20
S'--'
p456
sg21
S'--'
p457
sg22
S'--'
p458
sg23
S'W26-10'
p459
sg24
S'--'
p460
sg25
S'--'
p461
sg26
S'@TEN'
p462
sg27
S'--'
p463
sg28
S'--'
p464
sg29
S'--'
p465
ssg97
(dp466
g5
S'--'
p467
sg7
S'--'
p468
sg8
g34
sg9
g36
sg10
g36
sg11
S'Dwayne Harris'
p469
sg13
S'2014'
p470
sg15
g97
sg17
S'--'
p471
sg18
S'10/05'
p472
sg20
S'10.0'
p473
sg21
g36
sg22
S'--'
p474
sg23
S'W20-17'
p475
sg24
S'30'
p476
sg25
g167
sg26
S'HOU'
p477
sg27
S'18'
p478
sg28
g34
sg29
S'--'
p479
ssg215
(dp480
g5
g34
sg7
S'-1'
p481
sg8
g34
sg9
S'--'
p482
sg10
g36
sg11
S'Dwayne Harris'
p483
sg13
S'2014'
p484
sg15
g215
sg17
S'-1.0'
p485
sg18
S'09/28'
p486
sg20
S'9.0'
p487
sg21
S'--'
p488
sg22
g36
sg23
S'W38-17'
p489
sg24
S'18'
p490
sg25
g78
sg26
S'NO'
p491
sg27
S'10'
p492
sg28
g34
sg29
S'-1'
p493
ssg232
(dp494
g5
S'--'
p495
sg7
S'--'
p496
sg8
g34
sg9
S'--'
p497
sg10
g36
sg11
S'Dwayne Harris'
p498
sg13
S'2014'
p499
sg15
g232
sg17
S'--'
p500
sg18
S'10/19'
p501
sg20
S'--'
p502
sg21
S'--'
p503
sg22
S'--'
p504
sg23
S'W31-21'
p505
sg24
S'--'
p506
sg25
S'--'
p507
sg26
S'NYG'
p508
sg27
S'--'
p509
sg28
S'--'
p510
sg29
S'--'
p511
ssg47
(dp512
g5
S'--'
p513
sg7
S'--'
p514
sg8
g34
sg9
g36
sg10
g36
sg11
S'Dwayne Harris'
p515
sg13
S'2014'
p516
sg15
g47
sg17
S'--'
p517
sg18
S'10/12'
p518
sg20
S'--'
p519
sg21
g36
sg22
S'--'
p520
sg23
S'W30-23'
p521
sg24
S'--'
p522
sg25
S'--'
p523
sg26
S'@SEA'
p524
sg27
S'--'
p525
sg28
S'--'
p526
sg29
S'--'
p527
ssg95
(dp528
g5
S'--'
p529
sg7
S'--'
p530
sg8
g34
sg9
S'--'
p531
sg10
g36
sg11
S'Dwayne Harris'
p532
sg13
S'2014'
p533
sg15
g95
sg17
S'--'
p534
sg18
S'11/02'
p535
sg20
S'12.0'
p536
sg21
S'--'
p537
sg22
S'--'
p538
sg23
S'L17-28'
p539
sg24
S'12'
p540
sg25
g36
sg26
S'ARI'
p541
sg27
S'12'
p542
sg28
g34
sg29
S'--'
p543
ssg65
(dp544
g5
S'--'
p545
sg7
S'--'
p546
sg8
g34
sg9
S'--'
p547
sg10
g36
sg11
S'Dwayne Harris'
p548
sg13
S'2014'
p549
sg15
g65
sg17
S'--'
p550
sg18
S'10/27'
p551
sg20
S'--'
p552
sg21
S'--'
p553
sg22
S'--'
p554
sg23
S'L17-20'
p555
sg24
g34
sg25
g34
sg26
S'WAS'
p556
sg27
S'--'
p557
sg28
g34
sg29
S'--'
p558
sssS'2011'
p559
(dp560
g81
(dp561
g5
S'--'
p562
sg7
S'--'
p563
sg8
g34
sg9
S'--'
p564
sg10
g34
sg11
S'Dwayne Harris'
p565
sg13
S'2011'
p566
sg15
S'15'
p567
sg17
S'--'
p568
sg18
S'12/17'
p569
sg20
S'--'
p570
sg21
S'--'
p571
sg22
S'--'
p572
sg23
S'W31-15'
p573
sg24
S'--'
p574
sg25
S'--'
p575
sg26
S'@TB'
p576
sg27
S'--'
p577
sg28
S'--'
p578
sg29
S'--'
p579
ssg117
(dp580
g5
S'--'
p581
sg7
S'--'
p582
sg8
g34
sg9
S'--'
p583
sg10
g36
sg11
S'Dwayne Harris'
p584
sg13
S'2011'
p585
sg15
S'17'
p586
sg17
S'--'
p587
sg18
S'01/01'
p588
sg20
S'--'
p589
sg21
S'--'
p590
sg22
S'--'
p591
sg23
S'L14-31'
p592
sg24
S'--'
p593
sg25
S'--'
p594
sg26
S'@NYG'
p595
sg27
S'--'
p596
sg28
S'--'
p597
sg29
S'--'
p598
ssg137
(dp599
g5
S'--'
p600
sg7
S'--'
p601
sg8
g34
sg9
S'--'
p602
sg10
g36
sg11
S'Dwayne Harris'
p603
sg13
S'2011'
p604
sg15
S'16'
p605
sg17
S'--'
p606
sg18
S'12/24'
p607
sg20
S'--'
p608
sg21
S'--'
p609
sg22
S'--'
p610
sg23
S'L7-20'
p611
sg24
S'--'
p612
sg25
S'--'
p613
sg26
S'PHI'
p614
sg27
S'--'
p615
sg28
S'--'
p616
sg29
S'--'
p617
ssg36
(dp618
g5
S'--'
p619
sg7
S'--'
p620
sg8
g34
sg9
S'--'
p621
sg10
g36
sg11
S'Dwayne Harris'
p622
sg13
S'2011'
p623
sg15
g36
sg17
S'--'
p624
sg18
S'09/11'
p625
sg20
S'--'
p626
sg21
S'--'
p627
sg22
S'--'
p628
sg23
S'L24-27'
p629
sg24
S'--'
p630
sg25
S'--'
p631
sg26
S'@NYJ'
p632
sg27
S'--'
p633
sg28
S'--'
p634
sg29
S'--'
p635
ssg167
(dp636
g5
S'--'
p637
sg7
S'--'
p638
sg8
g34
sg9
S'--'
p639
sg10
g36
sg11
S'Dwayne Harris'
p640
sg13
S'2011'
p641
sg15
g167
sg17
S'--'
p642
sg18
S'09/26'
p643
sg20
S'--'
p644
sg21
S'--'
p645
sg22
S'--'
p646
sg23
S'W18-16'
p647
sg24
S'--'
p648
sg25
S'--'
p649
sg26
S'WAS'
p650
sg27
S'--'
p651
sg28
S'--'
p652
sg29
S'--'
p653
ssg78
(dp654
g5
S'--'
p655
sg7
S'--'
p656
sg8
g34
sg9
S'--'
p657
sg10
g36
sg11
S'Dwayne Harris'
p658
sg13
S'2011'
p659
sg15
g78
sg17
S'--'
p660
sg18
S'09/18'
p661
sg20
S'--'
p662
sg21
S'--'
p663
sg22
S'--'
p664
sg23
S'W27-24'
p665
sg24
S'--'
p666
sg25
S'--'
p667
sg26
S'@SF'
p668
sg27
S'--'
p669
sg28
S'--'
p670
sg29
S'--'
p671
ssg97
(dp672
g5
g6
sg7
g6
sg8
g6
sg9
g6
sg10
g6
sg11
S'Dwayne Harris'
p673
sg13
S'2011'
p674
sg15
g97
sg17
g6
sg18
S'Bye'
p675
sg20
g6
sg21
g6
sg22
g6
sg23
g6
sg24
g6
sg25
g6
sg26
g6
sg27
g6
sg28
g6
sg29
g6
ssg215
(dp676
g5
S'--'
p677
sg7
S'--'
p678
sg8
g34
sg9
S'--'
p679
sg10
g36
sg11
S'Dwayne Harris'
p680
sg13
S'2011'
p681
sg15
g215
sg17
S'--'
p682
sg18
S'10/02'
p683
sg20
S'--'
p684
sg21
S'--'
p685
sg22
S'--'
p686
sg23
S'L30-34'
p687
sg24
S'--'
p688
sg25
S'--'
p689
sg26
S'DET'
p690
sg27
S'--'
p691
sg28
S'--'
p692
sg29
S'--'
p693
ssg47
(dp694
g5
S'--'
p695
sg7
S'--'
p696
sg8
g34
sg9
S'--'
p697
sg10
g36
sg11
S'Dwayne Harris'
p698
sg13
S'2011'
p699
sg15
g47
sg17
S'--'
p700
sg18
S'10/16'
p701
sg20
S'--'
p702
sg21
S'--'
p703
sg22
S'--'
p704
sg23
S'L16-20'
p705
sg24
S'--'
p706
sg25
S'--'
p707
sg26
S'@NE'
p708
sg27
S'--'
p709
sg28
S'--'
p710
sg29
S'--'
p711
sssS'2013'
p712
(dp713
g3
(dp714
g5
g6
sg7
g6
sg8
g6
sg9
g6
sg10
g6
sg11
S'Dwayne Harris'
p715
sg13
S'2013'
p716
sg15
S'11'
p717
sg17
g6
sg18
S'Bye'
p718
sg20
g6
sg21
g6
sg22
g6
sg23
g6
sg24
g6
sg25
g6
sg26
g6
sg27
g6
sg28
g6
sg29
g6
ssg30
(dp719
g5
S'--'
p720
sg7
S'--'
p721
sg8
g34
sg9
S'--'
p722
sg10
g36
sg11
S'Dwayne Harris'
p723
sg13
S'2013'
p724
sg15
S'10'
p725
sg17
S'--'
p726
sg18
S'11/10'
p727
sg20
S'1.0'
p728
sg21
S'--'
p729
sg22
S'--'
p730
sg23
S'L17-49'
p731
sg24
g36
sg25
g36
sg26
S'@NO'
p732
sg27
g36
sg28
g34
sg29
S'--'
p733
ssg51
(dp734
g5
S'--'
p735
sg7
S'--'
p736
sg8
g34
sg9
S'--'
p737
sg10
g34
sg11
S'Dwayne Harris'
p738
sg13
S'2013'
p739
sg15
S'13'
p740
sg17
S'--'
p741
sg18
S'11/28'
p742
sg20
S'--'
p743
sg21
S'--'
p744
sg22
S'--'
p745
sg23
S'W31-24'
p746
sg24
S'--'
p747
sg25
S'--'
p748
sg26
S'OAK'
p749
sg27
S'--'
p750
sg28
S'--'
p751
sg29
S'--'
p752
ssg68
(dp753
g5
S'--'
p754
sg7
S'--'
p755
sg8
g34
sg9
S'--'
p756
sg10
g36
sg11
S'Dwayne Harris'
p757
sg13
S'2013'
p758
sg15
S'12'
p759
sg17
S'--'
p760
sg18
S'11/24'
p761
sg20
S'--'
p762
sg21
S'--'
p763
sg22
S'--'
p764
sg23
S'W24-21'
p765
sg24
S'--'
p766
sg25
S'--'
p767
sg26
S'@NYG'
p768
sg27
S'--'
p769
sg28
S'--'
p770
sg29
S'--'
p771
ssg81
(dp772
g5
S'--'
p773
sg7
S'--'
p774
sg8
g34
sg9
S'--'
p775
sg10
g34
sg11
S'Dwayne Harris'
p776
sg13
S'2013'
p777
sg15
S'15'
p778
sg17
S'--'
p779
sg18
S'12/15'
p780
sg20
S'--'
p781
sg21
S'--'
p782
sg22
S'--'
p783
sg23
S'L36-37'
p784
sg24
S'--'
p785
sg25
S'--'
p786
sg26
S'GB'
p787
sg27
S'--'
p788
sg28
S'--'
p789
sg29
S'--'
p790
ssg99
(dp791
g5
S'--'
p792
sg7
S'--'
p793
sg8
g34
sg9
S'--'
p794
sg10
g36
sg11
S'Dwayne Harris'
p795
sg13
S'2013'
p796
sg15
S'14'
p797
sg17
S'--'
p798
sg18
S'12/09'
p799
sg20
S'--'
p800
sg21
S'--'
p801
sg22
S'--'
p802
sg23
S'L28-45'
p803
sg24
S'--'
p804
sg25
S'--'
p805
sg26
S'@CHI'
p806
sg27
S'--'
p807
sg28
S'--'
p808
sg29
S'--'
p809
ssg117
(dp810
g5
S'--'
p811
sg7
S'--'
p812
sg8
g34
sg9
g34
sg10
g36
sg11
S'Dwayne Harris'
p813
sg13
S'2013'
p814
sg15
S'17'
p815
sg17
S'--'
p816
sg18
S'12/29'
p817
sg20
S'--'
p818
sg21
g36
sg22
S'--'
p819
sg23
S'L22-24'
p820
sg24
S'--'
p821
sg25
S'--'
p822
sg26
S'PHI'
p823
sg27
S'--'
p824
sg28
S'--'
p825
sg29
S'--'
p826
ssg137
(dp827
g5
S'--'
p828
sg7
S'--'
p829
sg8
g34
sg9
S'--'
p830
sg10
g34
sg11
S'Dwayne Harris'
p831
sg13
S'2013'
p832
sg15
S'16'
p833
sg17
S'--'
p834
sg18
S'12/22'
p835
sg20
S'--'
p836
sg21
S'--'
p837
sg22
S'--'
p838
sg23
S'W24-23'
p839
sg24
S'--'
p840
sg25
S'--'
p841
sg26
S'@WAS'
p842
sg27
S'--'
p843
sg28
S'--'
p844
sg29
S'--'
p845
ssg36
(dp846
g5
S'--'
p847
sg7
S'--'
p848
sg8
g34
sg9
S'--'
p849
sg10
g36
sg11
S'Dwayne Harris'
p850
sg13
S'2013'
p851
sg15
g36
sg17
S'--'
p852
sg18
S'09/08'
p853
sg20
S'6.0'
p854
sg21
S'--'
p855
sg22
S'--'
p856
sg23
S'W36-31'
p857
sg24
S'12'
p858
sg25
g78
sg26
S'NYG'
p859
sg27
S'12'
p860
sg28
g34
sg29
S'--'
p861
ssg167
(dp862
g5
S'--'
p863
sg7
S'--'
p864
sg8
g36
sg9
g36
sg10
g36
sg11
S'Dwayne Harris'
p865
sg13
S'2013'
p866
sg15
g167
sg17
S'--'
p867
sg18
S'09/22'
p868
sg20
S'24.0'
p869
sg21
g36
sg22
S'--'
p870
sg23
S'W31-7'
p871
sg24
S'24'
p872
sg25
g36
sg26
S'STL'
p873
sg27
S'24T'
p874
sg28
g36
sg29
S'--'
p875
ssg78
(dp876
g5
S'--'
p877
sg7
S'--'
p878
sg8
g34
sg9
S'--'
p879
sg10
g36
sg11
S'Dwayne Harris'
p880
sg13
S'2013'
p881
sg15
g78
sg17
S'--'
p882
sg18
S'09/15'
p883
sg20
S'4.0'
p884
sg21
S'--'
p885
sg22
S'--'
p886
sg23
S'L16-17'
p887
sg24
g215
sg25
g36
sg26
S'@KC'
p888
sg27
g215
sg28
g34
sg29
S'--'
p889
ssg97
(dp890
g5
S'--'
p891
sg7
S'--'
p892
sg8
g36
sg9
S'--'
p893
sg10
g36
sg11
S'Dwayne Harris'
p894
sg13
S'2013'
p895
sg15
g97
sg17
S'--'
p896
sg18
S'10/06'
p897
sg20
S'13.0'
p898
sg21
S'--'
p899
sg22
S'--'
p900
sg23
S'L48-51'
p901
sg24
S'13'
p902
sg25
g36
sg26
S'DEN'
p903
sg27
S'13'
p904
sg28
g34
sg29
S'--'
p905
ssg215
(dp906
g5
S'--'
p907
sg7
S'--'
p908
sg8
g36
sg9
S'--'
p909
sg10
g36
sg11
S'Dwayne Harris'
p910
sg13
S'2013'
p911
sg15
g215
sg17
S'--'
p912
sg18
S'09/29'
p913
sg20
S'13.0'
p914
sg21
S'--'
p915
sg22
S'--'
p916
sg23
S'L21-30'
p917
sg24
S'13'
p918
sg25
g36
sg26
S'@SD'
p919
sg27
S'13'
p920
sg28
g34
sg29
S'--'
p921
ssg232
(dp922
g5
g34
sg7
g47
sg8
g34
sg9
S'--'
p923
sg10
g36
sg11
S'Dwayne Harris'
p924
sg13
S'2013'
p925
sg15
g232
sg17
S'6.0'
p926
sg18
S'10/20'
p927
sg20
S'--'
p928
sg21
S'--'
p929
sg22
g36
sg23
S'W17-3'
p930
sg24
S'--'
p931
sg25
S'--'
p932
sg26
S'@PHI'
p933
sg27
S'--'
p934
sg28
S'--'
p935
sg29
g47
ssg47
(dp936
g5
S'--'
p937
sg7
S'--'
p938
sg8
g34
sg9
S'--'
p939
sg10
g36
sg11
S'Dwayne Harris'
p940
sg13
S'2013'
p941
sg15
g47
sg17
S'--'
p942
sg18
S'10/13'
p943
sg20
S'--'
p944
sg21
S'--'
p945
sg22
S'--'
p946
sg23
S'W31-16'
p947
sg24
S'--'
p948
sg25
S'--'
p949
sg26
S'WAS'
p950
sg27
S'--'
p951
sg28
S'--'
p952
sg29
S'--'
p953
ssg95
(dp954
g5
S'--'
p955
sg7
S'--'
p956
sg8
g34
sg9
S'--'
p957
sg10
g36
sg11
S'Dwayne Harris'
p958
sg13
S'2013'
p959
sg15
g95
sg17
S'--'
p960
sg18
S'11/03'
p961
sg20
S'6.5'
p962
sg21
S'--'
p963
sg22
S'--'
p964
sg23
S'W27-23'
p965
sg24
S'13'
p966
sg25
g78
sg26
S'MIN'
p967
sg27
S'7T'
p968
sg28
g36
sg29
S'--'
p969
ssg65
(dp970
g5
S'--'
p971
sg7
S'--'
p972
sg8
g34
sg9
S'--'
p973
sg10
g36
sg11
S'Dwayne Harris'
p974
sg13
S'2013'
p975
sg15
g65
sg17
S'--'
p976
sg18
S'10/27'
p977
sg20
S'--'
p978
sg21
S'--'
p979
sg22
S'--'
p980
sg23
S'L30-31'
p981
sg24
g34
sg25
g34
sg26
S'@DET'
p982
sg27
S'--'
p983
sg28
g34
sg29
S'--'
p984
sssS'2012'
p985
(dp986
g3
(dp987
g5
S'--'
p988
sg7
S'--'
p989
sg8
g34
sg9
S'--'
p990
sg10
g36
sg11
S'Dwayne Harris'
p991
sg13
S'2012'
p992
sg15
S'11'
p993
sg17
S'--'
p994
sg18
S'11/18'
p995
sg20
S'6.7'
p996
sg21
S'--'
p997
sg22
S'--'
p998
sg23
S'W23-20'
p999
sg24
S'20'
p1000
sg25
g167
sg26
S'CLE'
p1001
sg27
g65
sg28
g34
sg29
S'--'
p1002
ssg30
(dp1003
g5
S'--'
p1004
sg7
S'--'
p1005
sg8
g34
sg9
S'--'
p1006
sg10
g36
sg11
S'Dwayne Harris'
p1007
sg13
S'2012'
p1008
sg15
S'10'
p1009
sg17
S'--'
p1010
sg18
S'11/11'
p1011
sg20
S'--'
p1012
sg21
S'--'
p1013
sg22
S'--'
p1014
sg23
S'W38-23'
p1015
sg24
S'--'
p1016
sg25
S'--'
p1017
sg26
S'@PHI'
p1018
sg27
S'--'
p1019
sg28
S'--'
p1020
sg29
S'--'
p1021
ssg51
(dp1022
g5
S'--'
p1023
sg7
S'--'
p1024
sg8
g34
sg9
S'--'
p1025
sg10
g36
sg11
S'Dwayne Harris'
p1026
sg13
S'2012'
p1027
sg15
S'13'
p1028
sg17
S'--'
p1029
sg18
S'12/02'
p1030
sg20
S'11.0'
p1031
sg21
S'--'
p1032
sg22
S'--'
p1033
sg23
S'W38-33'
p1034
sg24
S'11'
p1035
sg25
g36
sg26
S'PHI'
p1036
sg27
S'11'
p1037
sg28
g34
sg29
S'--'
p1038
ssg68
(dp1039
g5
S'--'
p1040
sg7
S'--'
p1041
sg8
g34
sg9
S'--'
p1042
sg10
g36
sg11
S'Dwayne Harris'
p1043
sg13
S'2012'
p1044
sg15
S'12'
p1045
sg17
S'--'
p1046
sg18
S'11/22'
p1047
sg20
S'17.8'
p1048
sg21
S'--'
p1049
sg22
S'--'
p1050
sg23
S'L31-38'
p1051
sg24
S'71'
p1052
sg25
g215
sg26
S'WAS'
p1053
sg27
S'36'
p1054
sg28
g34
sg29
S'--'
p1055
ssg81
(dp1056
g5
S'--'
p1057
sg7
S'--'
p1058
sg8
g34
sg9
S'--'
p1059
sg10
g36
sg11
S'Dwayne Harris'
p1060
sg13
S'2012'
p1061
sg15
S'15'
p1062
sg17
S'--'
p1063
sg18
S'12/16'
p1064
sg20
S'11.5'
p1065
sg21
S'--'
p1066
sg22
S'--'
p1067
sg23
S'W27-24'
p1068
sg24
S'46'
p1069
sg25
g215
sg26
S'PIT'
p1070
sg27
S'18'
p1071
sg28
g34
sg29
S'--'
p1072
ssg99
(dp1073
g5
S'--'
p1074
sg7
S'--'
p1075
sg8
g34
sg9
S'--'
p1076
sg10
g36
sg11
S'Dwayne Harris'
p1077
sg13
S'2012'
p1078
sg15
S'14'
p1079
sg17
S'--'
p1080
sg18
S'12/09'
p1081
sg20
S'11.0'
p1082
sg21
S'--'
p1083
sg22
S'--'
p1084
sg23
S'W20-19'
p1085
sg24
S'33'
p1086
sg25
g167
sg26
S'@CIN'
p1087
sg27
S'21'
p1088
sg28
g34
sg29
S'--'
p1089
ssg117
(dp1090
g5
S'--'
p1091
sg7
S'--'
p1092
sg8
g34
sg9
S'--'
p1093
sg10
g36
sg11
S'Dwayne Harris'
p1094
sg13
S'2012'
p1095
sg15
S'17'
p1096
sg17
S'--'
p1097
sg18
S'12/30'
p1098
sg20
S'25.0'
p1099
sg21
S'--'
p1100
sg22
S'--'
p1101
sg23
S'L18-28'
p1102
sg24
S'25'
p1103
sg25
g36
sg26
S'@WAS'
p1104
sg27
S'25'
p1105
sg28
g34
sg29
S'--'
p1106
ssg137
(dp1107
g5
S'--'
p1108
sg7
S'--'
p1109
sg8
g34
sg9
g34
sg10
g36
sg11
S'Dwayne Harris'
p1110
sg13
S'2012'
p1111
sg15
S'16'
p1112
sg17
S'--'
p1113
sg18
S'12/23'
p1114
sg20
S'16.0'
p1115
sg21
g36
sg22
S'--'
p1116
sg23
S'L31-34'
p1117
sg24
S'16'
p1118
sg25
g36
sg26
S'NO'
p1119
sg27
S'16T'
p1120
sg28
g36
sg29
S'--'
p1121
ssg36
(dp1122
g5
S'--'
p1123
sg7
S'--'
p1124
sg8
g34
sg9
S'--'
p1125
sg10
g36
sg11
S'Dwayne Harris'
p1126
sg13
S'2012'
p1127
sg15
g36
sg17
S'--'
p1128
sg18
S'09/05'
p1129
sg20
S'--'
p1130
sg21
S'--'
p1131
sg22
S'--'
p1132
sg23
S'W24-17'
p1133
sg24
S'--'
p1134
sg25
S'--'
p1135
sg26
S'@NYG'
p1136
sg27
S'--'
p1137
sg28
S'--'
p1138
sg29
S'--'
p1139
ssg167
(dp1140
g5
S'--'
p1141
sg7
S'--'
p1142
sg8
g34
sg9
S'--'
p1143
sg10
g36
sg11
S'Dwayne Harris'
p1144
sg13
S'2012'
p1145
sg15
g167
sg17
S'--'
p1146
sg18
S'09/23'
p1147
sg20
S'--'
p1148
sg21
S'--'
p1149
sg22
S'--'
p1150
sg23
S'W16-10'
p1151
sg24
S'--'
p1152
sg25
S'--'
p1153
sg26
S'TB'
p1154
sg27
S'--'
p1155
sg28
S'--'
p1156
sg29
S'--'
p1157
ssg78
(dp1158
g5
S'--'
p1159
sg7
S'--'
p1160
sg8
g34
sg9
S'--'
p1161
sg10
g36
sg11
S'Dwayne Harris'
p1162
sg13
S'2012'
p1163
sg15
g78
sg17
S'--'
p1164
sg18
S'09/16'
p1165
sg20
S'--'
p1166
sg21
S'--'
p1167
sg22
S'--'
p1168
sg23
S'L7-27'
p1169
sg24
S'--'
p1170
sg25
S'--'
p1171
sg26
S'@SEA'
p1172
sg27
S'--'
p1173
sg28
S'--'
p1174
sg29
S'--'
p1175
ssg97
(dp1176
g5
g6
sg7
g6
sg8
g6
sg9
g6
sg10
g6
sg11
S'Dwayne Harris'
p1177
sg13
S'2012'
p1178
sg15
g97
sg17
g6
sg18
S'Bye'
p1179
sg20
g6
sg21
g6
sg22
g6
sg23
g6
sg24
g6
sg25
g6
sg26
g6
sg27
g6
sg28
g6
sg29
g6
ssg215
(dp1180
g5
S'--'
p1181
sg7
S'--'
p1182
sg8
g34
sg9
S'--'
p1183
sg10
g36
sg11
S'Dwayne Harris'
p1184
sg13
S'2012'
p1185
sg15
g215
sg17
S'--'
p1186
sg18
S'10/01'
p1187
sg20
S'--'
p1188
sg21
S'--'
p1189
sg22
S'--'
p1190
sg23
S'L18-34'
p1191
sg24
g34
sg25
g34
sg26
S'CHI'
p1192
sg27
S'--'
p1193
sg28
g34
sg29
S'--'
p1194
ssg232
(dp1195
g5
S'--'
p1196
sg7
S'--'
p1197
sg8
g34
sg9
S'--'
p1198
sg10
g36
sg11
S'Dwayne Harris'
p1199
sg13
S'2012'
p1200
sg15
g232
sg17
S'--'
p1201
sg18
S'10/21'
p1202
sg20
S'--'
p1203
sg21
S'--'
p1204
sg22
S'--'
p1205
sg23
S'W19-14'
p1206
sg24
S'--'
p1207
sg25
S'--'
p1208
sg26
S'@CAR'
p1209
sg27
S'--'
p1210
sg28
S'--'
p1211
sg29
S'--'
p1212
ssg47
(dp1213
g5
S'--'
p1214
sg7
S'--'
p1215
sg8
g34
sg9
S'--'
p1216
sg10
g36
sg11
S'Dwayne Harris'
p1217
sg13
S'2012'
p1218
sg15
g47
sg17
S'--'
p1219
sg18
S'10/14'
p1220
sg20
S'--'
p1221
sg21
S'--'
p1222
sg22
S'--'
p1223
sg23
S'L29-31'
p1224
sg24
S'--'
p1225
sg25
S'--'
p1226
sg26
S'@BAL'
p1227
sg27
S'--'
p1228
sg28
S'--'
p1229
sg29
S'--'
p1230
ssg95
(dp1231
g5
S'--'
p1232
sg7
S'--'
p1233
sg8
g34
sg9
S'--'
p1234
sg10
g36
sg11
S'Dwayne Harris'
p1235
sg13
S'2012'
p1236
sg15
g95
sg17
S'--'
p1237
sg18
S'11/04'
p1238
sg20
S'--'
p1239
sg21
S'--'
p1240
sg22
S'--'
p1241
sg23
S'L13-19'
p1242
sg24
S'--'
p1243
sg25
S'--'
p1244
sg26
S'@ATL'
p1245
sg27
S'--'
p1246
sg28
S'--'
p1247
sg29
S'--'
p1248
ssg65
(dp1249
g5
S'--'
p1250
sg7
S'--'
p1251
sg8
g34
sg9
S'--'
p1252
sg10
g36
sg11
S'Dwayne Harris'
p1253
sg13
S'2012'
p1254
sg15
g65
sg17
S'--'
p1255
sg18
S'10/28'
p1256
sg20
S'--'
p1257
sg21
S'--'
p1258
sg22
S'--'
p1259
sg23
S'L24-29'
p1260
sg24
S'--'
p1261
sg25
S'--'
p1262
sg26
S'NYG'
p1263
sg27
S'--'
p1264
sg28
S'--'
p1265
sg29
S'--'
p1266
sss.