(dp0
S'2015'
p1
(dp2
S'11'
p3
(dp4
S'RushTD'
p5
S''
p6
sS'RushYds'
p7
g6
sS'GS'
p8
g6
sS'Lost'
p9
g6
sS'G'
p10
g6
sS'Player'
p11
S'Dwayne Bowe'
p12
sS'Year'
p13
S'2015'
p14
sS'WK'
p15
S'11'
p16
sS'RushAvg'
p17
g6
sS'Game Date'
p18
S'Bye'
p19
sS'RecAvg'
p20
g6
sS'FUM'
p21
g6
sS'RushAtt'
p22
g6
sS'Result'
p23
g6
sS'RecYds'
p24
g6
sS'Rec'
p25
g6
sS'Opp'
p26
g6
sS'RecLng'
p27
g6
sS'RecTD'
p28
g6
sS'RushLng'
p29
g6
ssS'10'
p30
(dp31
g5
S'--'
p32
sg7
S'--'
p33
sg8
S'0'
p34
sg9
S'--'
p35
sg10
g34
sg11
S'Dwayne Bowe'
p36
sg13
S'2015'
p37
sg15
S'10'
p38
sg17
S'--'
p39
sg18
S'11/15'
p40
sg20
S'--'
p41
sg21
S'--'
p42
sg22
S'--'
p43
sg23
S'L9-30'
p44
sg24
S'--'
p45
sg25
S'--'
p46
sg26
S'@PIT'
p47
sg27
S'--'
p48
sg28
S'--'
p49
sg29
S'--'
p50
ssS'13'
p51
(dp52
g5
S'--'
p53
sg7
S'--'
p54
sg8
g34
sg9
S'--'
p55
sg10
g34
sg11
S'Dwayne Bowe'
p56
sg13
S'2015'
p57
sg15
S'13'
p58
sg17
S'--'
p59
sg18
S'12/06'
p60
sg20
S'--'
p61
sg21
S'--'
p62
sg22
S'--'
p63
sg23
S'L3-37'
p64
sg24
S'--'
p65
sg25
S'--'
p66
sg26
S'CIN'
p67
sg27
S'--'
p68
sg28
S'--'
p69
sg29
S'--'
p70
ssS'12'
p71
(dp72
g5
S'--'
p73
sg7
S'--'
p74
sg8
g34
sg9
S'--'
p75
sg10
S'1'
p76
sg11
S'Dwayne Bowe'
p77
sg13
S'2015'
p78
sg15
S'12'
p79
sg17
S'--'
p80
sg18
S'11/30'
p81
sg20
S'--'
p82
sg21
S'--'
p83
sg22
S'--'
p84
sg23
S'L27-33'
p85
sg24
g34
sg25
g34
sg26
S'BAL'
p86
sg27
S'--'
p87
sg28
g34
sg29
S'--'
p88
ssS'15'
p89
(dp90
g5
S'--'
p91
sg7
S'--'
p92
sg8
g34
sg9
S'--'
p93
sg10
g76
sg11
S'Dwayne Bowe'
p94
sg13
S'2015'
p95
sg15
S'15'
p96
sg17
S'--'
p97
sg18
S'12/20'
p98
sg20
S'11.0'
p99
sg21
S'--'
p100
sg22
S'--'
p101
sg23
S'L13-30'
p102
sg24
S'22'
p103
sg25
S'2'
p104
sg26
S'@SEA'
p105
sg27
S'15'
p106
sg28
g34
sg29
S'--'
p107
ssS'14'
p108
(dp109
g5
S'--'
p110
sg7
S'--'
p111
sg8
g34
sg9
S'--'
p112
sg10
g34
sg11
S'Dwayne Bowe'
p113
sg13
S'2015'
p114
sg15
S'14'
p115
sg17
S'--'
p116
sg18
S'12/13'
p117
sg20
S'--'
p118
sg21
S'--'
p119
sg22
S'--'
p120
sg23
S'W24-10'
p121
sg24
S'--'
p122
sg25
S'--'
p123
sg26
S'SF'
p124
sg27
S'--'
p125
sg28
S'--'
p126
sg29
S'--'
p127
ssS'17'
p128
(dp129
g5
S'--'
p130
sg7
S'--'
p131
sg8
g34
sg9
S'--'
p132
sg10
g34
sg11
S'Dwayne Bowe'
p133
sg13
S'2015'
p134
sg15
S'17'
p135
sg17
S'--'
p136
sg18
S'01/03'
p137
sg20
S'--'
p138
sg21
S'--'
p139
sg22
S'--'
p140
sg23
S'L12-28'
p141
sg24
S'--'
p142
sg25
S'--'
p143
sg26
S'PIT'
p144
sg27
S'--'
p145
sg28
S'--'
p146
sg29
S'--'
p147
ssS'16'
p148
(dp149
g5
S'--'
p150
sg7
S'--'
p151
sg8
g34
sg9
S'--'
p152
sg10
g76
sg11
S'Dwayne Bowe'
p153
sg13
S'2015'
p154
sg15
S'16'
p155
sg17
S'--'
p156
sg18
S'12/27'
p157
sg20
S'--'
p158
sg21
S'--'
p159
sg22
S'--'
p160
sg23
S'L13-17'
p161
sg24
g34
sg25
g34
sg26
S'@KC'
p162
sg27
S'--'
p163
sg28
g34
sg29
S'--'
p164
ssg76
(dp165
g5
S'--'
p166
sg7
S'--'
p167
sg8
g34
sg9
S'--'
p168
sg10
g34
sg11
S'Dwayne Bowe'
p169
sg13
S'2015'
p170
sg15
g76
sg17
S'--'
p171
sg18
S'09/13'
p172
sg20
S'--'
p173
sg21
S'--'
p174
sg22
S'--'
p175
sg23
S'L10-31'
p176
sg24
S'--'
p177
sg25
S'--'
p178
sg26
S'@NYJ'
p179
sg27
S'--'
p180
sg28
S'--'
p181
sg29
S'--'
p182
ssS'3'
p183
(dp184
g5
S'--'
p185
sg7
S'--'
p186
sg8
g34
sg9
S'--'
p187
sg10
g34
sg11
S'Dwayne Bowe'
p188
sg13
S'2015'
p189
sg15
g183
sg17
S'--'
p190
sg18
S'09/27'
p191
sg20
S'--'
p192
sg21
S'--'
p193
sg22
S'--'
p194
sg23
S'L20-27'
p195
sg24
S'--'
p196
sg25
S'--'
p197
sg26
S'OAK'
p198
sg27
S'--'
p199
sg28
S'--'
p200
sg29
S'--'
p201
ssg104
(dp202
g5
S'--'
p203
sg7
S'--'
p204
sg8
g34
sg9
S'--'
p205
sg10
g76
sg11
S'Dwayne Bowe'
p206
sg13
S'2015'
p207
sg15
g104
sg17
S'--'
p208
sg18
S'09/20'
p209
sg20
S'--'
p210
sg21
S'--'
p211
sg22
S'--'
p212
sg23
S'W28-14'
p213
sg24
g34
sg25
g34
sg26
S'TEN'
p214
sg27
S'--'
p215
sg28
g34
sg29
S'--'
p216
ssS'5'
p217
(dp218
g5
S'--'
p219
sg7
S'--'
p220
sg8
g34
sg9
S'--'
p221
sg10
g34
sg11
S'Dwayne Bowe'
p222
sg13
S'2015'
p223
sg15
g217
sg17
S'--'
p224
sg18
S'10/11'
p225
sg20
S'--'
p226
sg21
S'--'
p227
sg22
S'--'
p228
sg23
S'W33-30'
p229
sg24
S'--'
p230
sg25
S'--'
p231
sg26
S'@BAL'
p232
sg27
S'--'
p233
sg28
S'--'
p234
sg29
S'--'
p235
ssS'4'
p236
(dp237
g5
S'--'
p238
sg7
S'--'
p239
sg8
g34
sg9
S'--'
p240
sg10
g76
sg11
S'Dwayne Bowe'
p241
sg13
S'2015'
p242
sg15
g236
sg17
S'--'
p243
sg18
S'10/04'
p244
sg20
S'--'
p245
sg21
S'--'
p246
sg22
S'--'
p247
sg23
S'L27-30'
p248
sg24
g34
sg25
g34
sg26
S'@SD'
p249
sg27
S'--'
p250
sg28
g34
sg29
S'--'
p251
ssS'7'
p252
(dp253
g5
S'--'
p254
sg7
S'--'
p255
sg8
g34
sg9
S'--'
p256
sg10
g34
sg11
S'Dwayne Bowe'
p257
sg13
S'2015'
p258
sg15
g252
sg17
S'--'
p259
sg18
S'10/25'
p260
sg20
S'--'
p261
sg21
S'--'
p262
sg22
S'--'
p263
sg23
S'L6-24'
p264
sg24
S'--'
p265
sg25
S'--'
p266
sg26
S'@STL'
p267
sg27
S'--'
p268
sg28
S'--'
p269
sg29
S'--'
p270
ssS'6'
p271
(dp272
g5
S'--'
p273
sg7
S'--'
p274
sg8
g34
sg9
S'--'
p275
sg10
g34
sg11
S'Dwayne Bowe'
p276
sg13
S'2015'
p277
sg15
g271
sg17
S'--'
p278
sg18
S'10/18'
p279
sg20
S'--'
p280
sg21
S'--'
p281
sg22
S'--'
p282
sg23
S'L23-26'
p283
sg24
S'--'
p284
sg25
S'--'
p285
sg26
S'DEN'
p286
sg27
S'--'
p287
sg28
S'--'
p288
sg29
S'--'
p289
ssS'9'
p290
(dp291
g5
S'--'
p292
sg7
S'--'
p293
sg8
g34
sg9
S'--'
p294
sg10
g76
sg11
S'Dwayne Bowe'
p295
sg13
S'2015'
p296
sg15
g290
sg17
S'--'
p297
sg18
S'11/05'
p298
sg20
S'10.3'
p299
sg21
S'--'
p300
sg22
S'--'
p301
sg23
S'L10-31'
p302
sg24
S'31'
p303
sg25
g183
sg26
S'@CIN'
p304
sg27
S'16'
p305
sg28
g34
sg29
S'--'
p306
ssS'8'
p307
(dp308
g5
S'--'
p309
sg7
S'--'
p310
sg8
g34
sg9
S'--'
p311
sg10
g76
sg11
S'Dwayne Bowe'
p312
sg13
S'2015'
p313
sg15
g307
sg17
S'--'
p314
sg18
S'11/01'
p315
sg20
S'--'
p316
sg21
S'--'
p317
sg22
S'--'
p318
sg23
S'L20-34'
p319
sg24
g34
sg25
g34
sg26
S'ARI'
p320
sg27
S'--'
p321
sg28
g34
sg29
S'--'
p322
sssS'2014'
p323
(dp324
g3
(dp325
g5
S'--'
p326
sg7
S'--'
p327
sg8
g76
sg9
S'--'
p328
sg10
g76
sg11
S'Dwayne Bowe'
p329
sg13
S'2014'
p330
sg15
S'11'
p331
sg17
S'--'
p332
sg18
S'11/16'
p333
sg20
S'9.0'
p334
sg21
S'--'
p335
sg22
S'--'
p336
sg23
S'W24-20'
p337
sg24
S'18'
p338
sg25
g104
sg26
S'SEA'
p339
sg27
g290
sg28
g34
sg29
S'--'
p340
ssg30
(dp341
g5
S'--'
p342
sg7
S'--'
p343
sg8
g76
sg9
g34
sg10
g76
sg11
S'Dwayne Bowe'
p344
sg13
S'2014'
p345
sg15
S'10'
p346
sg17
S'--'
p347
sg18
S'11/09'
p348
sg20
S'11.6'
p349
sg21
g76
sg22
S'--'
p350
sg23
S'W17-13'
p351
sg24
S'93'
p352
sg25
g307
sg26
S'@BUF'
p353
sg27
S'23'
p354
sg28
g34
sg29
S'--'
p355
ssg51
(dp356
g5
S'--'
p357
sg7
S'--'
p358
sg8
g76
sg9
S'--'
p359
sg10
g76
sg11
S'Dwayne Bowe'
p360
sg13
S'2014'
p361
sg15
S'13'
p362
sg17
S'--'
p363
sg18
S'11/30'
p364
sg20
S'9.0'
p365
sg21
S'--'
p366
sg22
S'--'
p367
sg23
S'L16-29'
p368
sg24
S'18'
p369
sg25
g104
sg26
S'DEN'
p370
sg27
S'10'
p371
sg28
g34
sg29
S'--'
p372
ssg71
(dp373
g5
S'--'
p374
sg7
S'--'
p375
sg8
g76
sg9
S'--'
p376
sg10
g76
sg11
S'Dwayne Bowe'
p377
sg13
S'2014'
p378
sg15
S'12'
p379
sg17
S'--'
p380
sg18
S'11/20'
p381
sg20
S'14.0'
p382
sg21
S'--'
p383
sg22
S'--'
p384
sg23
S'L20-24'
p385
sg24
S'42'
p386
sg25
g183
sg26
S'@OAK'
p387
sg27
S'24'
p388
sg28
g34
sg29
S'--'
p389
ssg89
(dp390
g5
S'--'
p391
sg7
S'--'
p392
sg8
g76
sg9
S'--'
p393
sg10
g76
sg11
S'Dwayne Bowe'
p394
sg13
S'2014'
p395
sg15
S'15'
p396
sg17
S'--'
p397
sg18
S'12/14'
p398
sg20
S'23.0'
p399
sg21
S'--'
p400
sg22
S'--'
p401
sg23
S'W31-13'
p402
sg24
S'69'
p403
sg25
g183
sg26
S'OAK'
p404
sg27
S'37'
p405
sg28
g34
sg29
S'--'
p406
ssg108
(dp407
g5
S'--'
p408
sg7
S'--'
p409
sg8
g76
sg9
S'--'
p410
sg10
g76
sg11
S'Dwayne Bowe'
p411
sg13
S'2014'
p412
sg15
S'14'
p413
sg17
S'--'
p414
sg18
S'12/07'
p415
sg20
S'14.5'
p416
sg21
S'--'
p417
sg22
S'--'
p418
sg23
S'L14-17'
p419
sg24
S'29'
p420
sg25
g104
sg26
S'@ARI'
p421
sg27
S'22'
p422
sg28
g34
sg29
S'--'
p423
ssg128
(dp424
g5
S'--'
p425
sg7
S'--'
p426
sg8
g76
sg9
g34
sg10
g76
sg11
S'Dwayne Bowe'
p427
sg13
S'2014'
p428
sg15
S'17'
p429
sg17
S'--'
p430
sg18
S'12/28'
p431
sg20
S'10.0'
p432
sg21
g76
sg22
S'--'
p433
sg23
S'W19-7'
p434
sg24
S'30'
p435
sg25
g183
sg26
S'SD'
p436
sg27
S'12'
p437
sg28
g34
sg29
S'--'
p438
ssg148
(dp439
g5
S'--'
p440
sg7
S'--'
p441
sg8
g76
sg9
S'--'
p442
sg10
g76
sg11
S'Dwayne Bowe'
p443
sg13
S'2014'
p444
sg15
S'16'
p445
sg17
S'--'
p446
sg18
S'12/21'
p447
sg20
S'9.5'
p448
sg21
S'--'
p449
sg22
S'--'
p450
sg23
S'L12-20'
p451
sg24
S'57'
p452
sg25
g271
sg26
S'@PIT'
p453
sg27
S'13'
p454
sg28
g34
sg29
S'--'
p455
ssg183
(dp456
g5
S'--'
p457
sg7
S'--'
p458
sg8
g76
sg9
S'--'
p459
sg10
g76
sg11
S'Dwayne Bowe'
p460
sg13
S'2014'
p461
sg15
g183
sg17
S'--'
p462
sg18
S'09/21'
p463
sg20
S'10.7'
p464
sg21
S'--'
p465
sg22
S'--'
p466
sg23
S'W34-15'
p467
sg24
S'32'
p468
sg25
g183
sg26
S'@MIA'
p469
sg27
S'16'
p470
sg28
g34
sg29
S'--'
p471
ssg104
(dp472
g5
S'--'
p473
sg7
S'--'
p474
sg8
g76
sg9
S'--'
p475
sg10
g76
sg11
S'Dwayne Bowe'
p476
sg13
S'2014'
p477
sg15
g104
sg17
S'--'
p478
sg18
S'09/14'
p479
sg20
S'13.3'
p480
sg21
S'--'
p481
sg22
S'--'
p482
sg23
S'L17-24'
p483
sg24
S'40'
p484
sg25
g183
sg26
S'@DEN'
p485
sg27
S'21'
p486
sg28
g34
sg29
S'--'
p487
ssg217
(dp488
g5
S'--'
p489
sg7
S'--'
p490
sg8
g76
sg9
S'--'
p491
sg10
g76
sg11
S'Dwayne Bowe'
p492
sg13
S'2014'
p493
sg15
g217
sg17
S'--'
p494
sg18
S'10/05'
p495
sg20
S'14.0'
p496
sg21
S'--'
p497
sg22
S'--'
p498
sg23
S'L17-22'
p499
sg24
S'42'
p500
sg25
g183
sg26
S'@SF'
p501
sg27
S'18'
p502
sg28
g34
sg29
S'--'
p503
ssg236
(dp504
g5
S'--'
p505
sg7
S'--'
p506
sg8
g76
sg9
S'--'
p507
sg10
g76
sg11
S'Dwayne Bowe'
p508
sg13
S'2014'
p509
sg15
g236
sg17
S'--'
p510
sg18
S'09/29'
p511
sg20
S'16.2'
p512
sg21
S'--'
p513
sg22
S'--'
p514
sg23
S'W41-14'
p515
sg24
S'81'
p516
sg25
g217
sg26
S'NE'
p517
sg27
S'33'
p518
sg28
g34
sg29
S'--'
p519
ssg252
(dp520
g5
S'--'
p521
sg7
S'--'
p522
sg8
g76
sg9
S'--'
p523
sg10
g76
sg11
S'Dwayne Bowe'
p524
sg13
S'2014'
p525
sg15
g252
sg17
S'--'
p526
sg18
S'10/19'
p527
sg20
S'16.8'
p528
sg21
S'--'
p529
sg22
S'--'
p530
sg23
S'W23-20'
p531
sg24
S'84'
p532
sg25
g217
sg26
S'@SD'
p533
sg27
S'26'
p534
sg28
g34
sg29
S'--'
p535
ssg271
(dp536
g5
g6
sg7
g6
sg8
g6
sg9
g6
sg10
g6
sg11
S'Dwayne Bowe'
p537
sg13
S'2014'
p538
sg15
g271
sg17
g6
sg18
S'Bye'
p539
sg20
g6
sg21
g6
sg22
g6
sg23
g6
sg24
g6
sg25
g6
sg26
g6
sg27
g6
sg28
g6
sg29
g6
ssg290
(dp540
g5
S'--'
p541
sg7
S'--'
p542
sg8
g76
sg9
S'--'
p543
sg10
g76
sg11
S'Dwayne Bowe'
p544
sg13
S'2014'
p545
sg15
g290
sg17
S'--'
p546
sg18
S'11/02'
p547
sg20
S'9.2'
p548
sg21
S'--'
p549
sg22
S'--'
p550
sg23
S'W24-10'
p551
sg24
S'55'
p552
sg25
g271
sg26
S'NYJ'
p553
sg27
S'13'
p554
sg28
g34
sg29
S'--'
p555
ssg307
(dp556
g5
S'--'
p557
sg7
S'--'
p558
sg8
g76
sg9
S'--'
p559
sg10
g76
sg11
S'Dwayne Bowe'
p560
sg13
S'2014'
p561
sg15
g307
sg17
S'--'
p562
sg18
S'10/26'
p563
sg20
S'10.7'
p564
sg21
S'--'
p565
sg22
S'--'
p566
sg23
S'W34-7'
p567
sg24
S'64'
p568
sg25
g271
sg26
S'STL'
p569
sg27
S'16'
p570
sg28
g34
sg29
S'--'
p571
sssS'2011'
p572
(dp573
g3
(dp574
g5
S'--'
p575
sg7
S'--'
p576
sg8
g76
sg9
S'--'
p577
sg10
g76
sg11
S'Dwayne Bowe'
p578
sg13
S'2011'
p579
sg15
S'11'
p580
sg17
S'--'
p581
sg18
S'11/21'
p582
sg20
S'12.4'
p583
sg21
S'--'
p584
sg22
S'--'
p585
sg23
S'L3-34'
p586
sg24
S'87'
p587
sg25
g252
sg26
S'@NE'
p588
sg27
S'28'
p589
sg28
g34
sg29
S'--'
p590
ssg30
(dp591
g5
S'--'
p592
sg7
S'--'
p593
sg8
g76
sg9
S'--'
p594
sg10
g76
sg11
S'Dwayne Bowe'
p595
sg13
S'2011'
p596
sg15
S'10'
p597
sg17
S'--'
p598
sg18
S'11/13'
p599
sg20
S'8.5'
p600
sg21
S'--'
p601
sg22
S'--'
p602
sg23
S'L10-17'
p603
sg24
S'17'
p604
sg25
g104
sg26
S'DEN'
p605
sg27
S'10'
p606
sg28
g34
sg29
S'--'
p607
ssg51
(dp608
g5
S'--'
p609
sg7
S'--'
p610
sg8
g76
sg9
g34
sg10
g76
sg11
S'Dwayne Bowe'
p611
sg13
S'2011'
p612
sg15
S'13'
p613
sg17
S'--'
p614
sg18
S'12/04'
p615
sg20
S'12.3'
p616
sg21
g76
sg22
S'--'
p617
sg23
S'W10-3'
p618
sg24
S'49'
p619
sg25
g236
sg26
S'@CHI'
p620
sg27
S'14'
p621
sg28
g34
sg29
S'--'
p622
ssg71
(dp623
g5
S'--'
p624
sg7
S'--'
p625
sg8
g76
sg9
S'--'
p626
sg10
g76
sg11
S'Dwayne Bowe'
p627
sg13
S'2011'
p628
sg15
S'12'
p629
sg17
S'--'
p630
sg18
S'11/27'
p631
sg20
S'9.9'
p632
sg21
S'--'
p633
sg22
S'--'
p634
sg23
S'L9-13'
p635
sg24
S'69'
p636
sg25
g252
sg26
S'PIT'
p637
sg27
S'25'
p638
sg28
g34
sg29
S'--'
p639
ssg89
(dp640
g5
S'--'
p641
sg7
S'--'
p642
sg8
g34
sg9
S'--'
p643
sg10
g76
sg11
S'Dwayne Bowe'
p644
sg13
S'2011'
p645
sg15
S'15'
p646
sg17
S'--'
p647
sg18
S'12/18'
p648
sg20
S'12.3'
p649
sg21
S'--'
p650
sg22
S'--'
p651
sg23
S'W19-14'
p652
sg24
S'49'
p653
sg25
g236
sg26
S'GB'
p654
sg27
S'15'
p655
sg28
g34
sg29
S'--'
p656
ssg108
(dp657
g5
S'--'
p658
sg7
S'--'
p659
sg8
g76
sg9
S'--'
p660
sg10
g76
sg11
S'Dwayne Bowe'
p661
sg13
S'2011'
p662
sg15
S'14'
p663
sg17
S'--'
p664
sg18
S'12/11'
p665
sg20
S'11.5'
p666
sg21
S'--'
p667
sg22
S'--'
p668
sg23
S'L10-37'
p669
sg24
S'69'
p670
sg25
g271
sg26
S'@NYJ'
p671
sg27
S'21'
p672
sg28
g34
sg29
S'--'
p673
ssg128
(dp674
g5
S'--'
p675
sg7
S'--'
p676
sg8
g76
sg9
S'--'
p677
sg10
g76
sg11
S'Dwayne Bowe'
p678
sg13
S'2011'
p679
sg15
S'17'
p680
sg17
S'--'
p681
sg18
S'01/01'
p682
sg20
S'15.5'
p683
sg21
S'--'
p684
sg22
S'--'
p685
sg23
S'W7-3'
p686
sg24
S'93'
p687
sg25
g271
sg26
S'@DEN'
p688
sg27
S'22'
p689
sg28
g34
sg29
S'--'
p690
ssg148
(dp691
g5
S'--'
p692
sg7
S'--'
p693
sg8
g34
sg9
S'--'
p694
sg10
g76
sg11
S'Dwayne Bowe'
p695
sg13
S'2011'
p696
sg15
S'16'
p697
sg17
S'--'
p698
sg18
S'12/24'
p699
sg20
S'13.3'
p700
sg21
S'--'
p701
sg22
S'--'
p702
sg23
S'L13-16'
p703
sg24
S'80'
p704
sg25
g271
sg26
S'OAK'
p705
sg27
S'25'
p706
sg28
g76
sg29
S'--'
p707
ssg76
(dp708
g5
S'--'
p709
sg7
S'--'
p710
sg8
g76
sg9
S'--'
p711
sg10
g76
sg11
S'Dwayne Bowe'
p712
sg13
S'2011'
p713
sg15
g76
sg17
S'--'
p714
sg18
S'09/11'
p715
sg20
S'8.5'
p716
sg21
S'--'
p717
sg22
S'--'
p718
sg23
S'L7-41'
p719
sg24
S'17'
p720
sg25
g104
sg26
S'BUF'
p721
sg27
S'15'
p722
sg28
g34
sg29
S'--'
p723
ssg183
(dp724
g5
S'--'
p725
sg7
S'--'
p726
sg8
g76
sg9
S'--'
p727
sg10
g76
sg11
S'Dwayne Bowe'
p728
sg13
S'2011'
p729
sg15
g183
sg17
S'--'
p730
sg18
S'09/25'
p731
sg20
S'16.8'
p732
sg21
S'--'
p733
sg22
S'--'
p734
sg23
S'L17-20'
p735
sg24
S'67'
p736
sg25
g236
sg26
S'@SD'
p737
sg27
S'23'
p738
sg28
g76
sg29
S'--'
p739
ssg104
(dp740
g5
g34
sg7
S'12'
p741
sg8
g76
sg9
S'--'
p742
sg10
g76
sg11
S'Dwayne Bowe'
p743
sg13
S'2011'
p744
sg15
g104
sg17
S'12.0'
p745
sg18
S'09/18'
p746
sg20
S'20.2'
p747
sg21
S'--'
p748
sg22
g76
sg23
S'L3-48'
p749
sg24
S'101'
p750
sg25
g217
sg26
S'@DET'
p751
sg27
S'45'
p752
sg28
g34
sg29
S'12'
p753
ssg217
(dp754
g5
S'--'
p755
sg7
S'--'
p756
sg8
g76
sg9
S'--'
p757
sg10
g76
sg11
S'Dwayne Bowe'
p758
sg13
S'2011'
p759
sg15
g217
sg17
S'--'
p760
sg18
S'10/09'
p761
sg20
S'18.3'
p762
sg21
S'--'
p763
sg22
S'--'
p764
sg23
S'W28-24'
p765
sg24
S'128'
p766
sg25
g252
sg26
S'@IND'
p767
sg27
S'41T'
p768
sg28
g104
sg29
S'--'
p769
ssg236
(dp770
g5
S'--'
p771
sg7
S'--'
p772
sg8
g76
sg9
S'--'
p773
sg10
g76
sg11
S'Dwayne Bowe'
p774
sg13
S'2011'
p775
sg15
g236
sg17
S'--'
p776
sg18
S'10/02'
p777
sg20
S'21.4'
p778
sg21
S'--'
p779
sg22
S'--'
p780
sg23
S'W22-17'
p781
sg24
S'107'
p782
sg25
g217
sg26
S'MIN'
p783
sg27
S'52T'
p784
sg28
g76
sg29
S'--'
p785
ssg252
(dp786
g5
S'--'
p787
sg7
S'--'
p788
sg8
g76
sg9
S'--'
p789
sg10
g76
sg11
S'Dwayne Bowe'
p790
sg13
S'2011'
p791
sg15
g252
sg17
S'--'
p792
sg18
S'10/23'
p793
sg20
S'12.7'
p794
sg21
S'--'
p795
sg22
S'--'
p796
sg23
S'W28-0'
p797
sg24
S'76'
p798
sg25
g271
sg26
S'@OAK'
p799
sg27
S'21'
p800
sg28
g34
sg29
S'--'
p801
ssg271
(dp802
g5
g6
sg7
g6
sg8
g6
sg9
g6
sg10
g6
sg11
S'Dwayne Bowe'
p803
sg13
S'2011'
p804
sg15
g271
sg17
g6
sg18
S'Bye'
p805
sg20
g6
sg21
g6
sg22
g6
sg23
g6
sg24
g6
sg25
g6
sg26
g6
sg27
g6
sg28
g6
sg29
g6
ssg290
(dp806
g5
S'--'
p807
sg7
S'--'
p808
sg8
g76
sg9
S'--'
p809
sg10
g76
sg11
S'Dwayne Bowe'
p810
sg13
S'2011'
p811
sg15
g290
sg17
S'--'
p812
sg18
S'11/06'
p813
sg20
S'14.7'
p814
sg21
S'--'
p815
sg22
S'--'
p816
sg23
S'L3-31'
p817
sg24
S'88'
p818
sg25
g271
sg26
S'MIA'
p819
sg27
S'31'
p820
sg28
g34
sg29
S'--'
p821
ssg307
(dp822
g5
S'--'
p823
sg7
S'--'
p824
sg8
g76
sg9
S'--'
p825
sg10
g76
sg11
S'Dwayne Bowe'
p826
sg13
S'2011'
p827
sg15
g307
sg17
S'--'
p828
sg18
S'10/31'
p829
sg20
S'15.5'
p830
sg21
S'--'
p831
sg22
S'--'
p832
sg23
S'W23-20'
p833
sg24
S'62'
p834
sg25
g236
sg26
S'SD'
p835
sg27
S'26'
p836
sg28
g34
sg29
S'--'
p837
sssS'2010'
p838
(dp839
g3
(dp840
g5
S'--'
p841
sg7
S'--'
p842
sg8
g76
sg9
S'--'
p843
sg10
g76
sg11
S'Dwayne Bowe'
p844
sg13
S'2010'
p845
sg15
S'11'
p846
sg17
S'--'
p847
sg18
S'11/21'
p848
sg20
S'18.2'
p849
sg21
S'--'
p850
sg22
S'--'
p851
sg23
S'W31-13'
p852
sg24
S'109'
p853
sg25
g271
sg26
S'ARI'
p854
sg27
S'38T'
p855
sg28
g104
sg29
S'--'
p856
ssg30
(dp857
g5
S'--'
p858
sg7
S'--'
p859
sg8
g76
sg9
g34
sg10
g76
sg11
S'Dwayne Bowe'
p860
sg13
S'2010'
p861
sg15
S'10'
p862
sg17
S'--'
p863
sg18
S'11/14'
p864
sg20
S'14.3'
p865
sg21
g76
sg22
S'--'
p866
sg23
S'L29-49'
p867
sg24
S'186'
p868
sg25
S'13'
p869
sg26
S'@DEN'
p870
sg27
S'24'
p871
sg28
g104
sg29
S'--'
p872
ssg51
(dp873
g5
S'--'
p874
sg7
S'--'
p875
sg8
g76
sg9
S'--'
p876
sg10
g76
sg11
S'Dwayne Bowe'
p877
sg13
S'2010'
p878
sg15
S'13'
p879
sg17
S'--'
p880
sg18
S'12/05'
p881
sg20
S'--'
p882
sg21
S'--'
p883
sg22
S'--'
p884
sg23
S'W10-6'
p885
sg24
g34
sg25
g34
sg26
S'DEN'
p886
sg27
S'--'
p887
sg28
g34
sg29
S'--'
p888
ssg71
(dp889
g5
S'--'
p890
sg7
S'--'
p891
sg8
g76
sg9
S'--'
p892
sg10
g76
sg11
S'Dwayne Bowe'
p893
sg13
S'2010'
p894
sg15
S'12'
p895
sg17
S'--'
p896
sg18
S'11/28'
p897
sg20
S'13.1'
p898
sg21
S'--'
p899
sg22
S'--'
p900
sg23
S'W42-24'
p901
sg24
S'170'
p902
sg25
S'13'
p903
sg26
S'@SEA'
p904
sg27
S'36T'
p905
sg28
g183
sg29
S'--'
p906
ssg89
(dp907
g5
S'--'
p908
sg7
S'--'
p909
sg8
g76
sg9
S'--'
p910
sg10
g76
sg11
S'Dwayne Bowe'
p911
sg13
S'2010'
p912
sg15
S'15'
p913
sg17
S'--'
p914
sg18
S'12/19'
p915
sg20
S'26.5'
p916
sg21
S'--'
p917
sg22
S'--'
p918
sg23
S'W27-13'
p919
sg24
S'53'
p920
sg25
g104
sg26
S'@STL'
p921
sg27
S'28'
p922
sg28
g34
sg29
S'--'
p923
ssg108
(dp924
g5
S'--'
p925
sg7
S'--'
p926
sg8
g76
sg9
S'--'
p927
sg10
g76
sg11
S'Dwayne Bowe'
p928
sg13
S'2010'
p929
sg15
S'14'
p930
sg17
S'--'
p931
sg18
S'12/12'
p932
sg20
S'3.0'
p933
sg21
S'--'
p934
sg22
S'--'
p935
sg23
S'L0-31'
p936
sg24
g183
sg25
g76
sg26
S'@SD'
p937
sg27
g183
sg28
g34
sg29
S'--'
p938
ssg128
(dp939
g5
S'--'
p940
sg7
S'--'
p941
sg8
g76
sg9
S'--'
p942
sg10
g76
sg11
S'Dwayne Bowe'
p943
sg13
S'2010'
p944
sg15
S'17'
p945
sg17
S'--'
p946
sg18
S'01/02'
p947
sg20
S'13.6'
p948
sg21
S'--'
p949
sg22
S'--'
p950
sg23
S'L10-31'
p951
sg24
S'68'
p952
sg25
g217
sg26
S'OAK'
p953
sg27
S'19'
p954
sg28
g34
sg29
S'--'
p955
ssg148
(dp956
g5
S'--'
p957
sg7
S'--'
p958
sg8
g76
sg9
S'--'
p959
sg10
g76
sg11
S'Dwayne Bowe'
p960
sg13
S'2010'
p961
sg15
S'16'
p962
sg17
S'--'
p963
sg18
S'12/26'
p964
sg20
S'25.5'
p965
sg21
S'--'
p966
sg22
S'--'
p967
sg23
S'W34-14'
p968
sg24
S'153'
p969
sg25
g271
sg26
S'TEN'
p970
sg27
S'75T'
p971
sg28
g76
sg29
S'--'
p972
ssg76
(dp973
g5
S'--'
p974
sg7
S'--'
p975
sg8
g76
sg9
S'--'
p976
sg10
g76
sg11
S'Dwayne Bowe'
p977
sg13
S'2010'
p978
sg15
g76
sg17
S'--'
p979
sg18
S'09/13'
p980
sg20
S'13.0'
p981
sg21
S'--'
p982
sg22
S'--'
p983
sg23
S'W21-14'
p984
sg24
S'13'
p985
sg25
g76
sg26
S'SD'
p986
sg27
S'13'
p987
sg28
g34
sg29
S'--'
p988
ssg183
(dp989
g5
S'--'
p990
sg7
S'--'
p991
sg8
g76
sg9
S'--'
p992
sg10
g76
sg11
S'Dwayne Bowe'
p993
sg13
S'2010'
p994
sg15
g183
sg17
S'--'
p995
sg18
S'09/26'
p996
sg20
S'30.5'
p997
sg21
S'--'
p998
sg22
S'--'
p999
sg23
S'W31-10'
p1000
sg24
S'61'
p1001
sg25
g104
sg26
S'SF'
p1002
sg27
S'45T'
p1003
sg28
g76
sg29
S'--'
p1004
ssg104
(dp1005
g5
S'--'
p1006
sg7
S'--'
p1007
sg8
g76
sg9
S'--'
p1008
sg10
g76
sg11
S'Dwayne Bowe'
p1009
sg13
S'2010'
p1010
sg15
g104
sg17
S'--'
p1011
sg18
S'09/19'
p1012
sg20
S'11.3'
p1013
sg21
S'--'
p1014
sg22
S'--'
p1015
sg23
S'W16-14'
p1016
sg24
S'45'
p1017
sg25
g236
sg26
S'@CLE'
p1018
sg27
S'19'
p1019
sg28
g34
sg29
S'--'
p1020
ssg217
(dp1021
g5
S'--'
p1022
sg7
S'--'
p1023
sg8
g76
sg9
S'--'
p1024
sg10
g76
sg11
S'Dwayne Bowe'
p1025
sg13
S'2010'
p1026
sg15
g217
sg17
S'--'
p1027
sg18
S'10/10'
p1028
sg20
S'16.5'
p1029
sg21
S'--'
p1030
sg22
S'--'
p1031
sg23
S'L9-19'
p1032
sg24
S'33'
p1033
sg25
g104
sg26
S'@IND'
p1034
sg27
S'21'
p1035
sg28
g34
sg29
S'--'
p1036
ssg236
(dp1037
g5
g6
sg7
g6
sg8
g6
sg9
g6
sg10
g6
sg11
S'Dwayne Bowe'
p1038
sg13
S'2010'
p1039
sg15
g236
sg17
g6
sg18
S'Bye'
p1040
sg20
g6
sg21
g6
sg22
g6
sg23
g6
sg24
g6
sg25
g6
sg26
g6
sg27
g6
sg28
g6
sg29
g6
ssg252
(dp1041
g5
S'--'
p1042
sg7
S'--'
p1043
sg8
g76
sg9
S'--'
p1044
sg10
g76
sg11
S'Dwayne Bowe'
p1045
sg13
S'2010'
p1046
sg15
g252
sg17
S'--'
p1047
sg18
S'10/24'
p1048
sg20
S'27.0'
p1049
sg21
S'--'
p1050
sg22
S'--'
p1051
sg23
S'W42-20'
p1052
sg24
S'81'
p1053
sg25
g183
sg26
S'JAC'
p1054
sg27
S'53T'
p1055
sg28
g104
sg29
S'--'
p1056
ssg271
(dp1057
g5
S'--'
p1058
sg7
S'--'
p1059
sg8
g76
sg9
S'--'
p1060
sg10
g76
sg11
S'Dwayne Bowe'
p1061
sg13
S'2010'
p1062
sg15
g271
sg17
S'--'
p1063
sg18
S'10/17'
p1064
sg20
S'18.0'
p1065
sg21
S'--'
p1066
sg22
S'--'
p1067
sg23
S'L31-35'
p1068
sg24
S'108'
p1069
sg25
g271
sg26
S'@HOU'
p1070
sg27
S'42T'
p1071
sg28
g104
sg29
S'--'
p1072
ssg290
(dp1073
g5
S'--'
p1074
sg7
S'--'
p1075
sg8
g76
sg9
S'--'
p1076
sg10
g76
sg11
S'Dwayne Bowe'
p1077
sg13
S'2010'
p1078
sg15
g290
sg17
S'--'
p1079
sg18
S'11/07'
p1080
sg20
S'12.6'
p1081
sg21
S'--'
p1082
sg22
S'--'
p1083
sg23
S'L20-23'
p1084
sg24
S'63'
p1085
sg25
g217
sg26
S'@OAK'
p1086
sg27
S'20T'
p1087
sg28
g76
sg29
S'--'
p1088
ssg307
(dp1089
g5
g34
sg7
g236
sg8
g76
sg9
S'--'
p1090
sg10
g76
sg11
S'Dwayne Bowe'
p1091
sg13
S'2010'
p1092
sg15
g307
sg17
S'4.0'
p1093
sg18
S'10/31'
p1094
sg20
S'5.3'
p1095
sg21
S'--'
p1096
sg22
g76
sg23
S'W13-10'
p1097
sg24
S'16'
p1098
sg25
g183
sg26
S'BUF'
p1099
sg27
g307
sg28
g76
sg29
g236
sssS'2013'
p1100
(dp1101
g3
(dp1102
g5
S'--'
p1103
sg7
S'--'
p1104
sg8
g76
sg9
S'--'
p1105
sg10
g76
sg11
S'Dwayne Bowe'
p1106
sg13
S'2013'
p1107
sg15
S'11'
p1108
sg17
S'--'
p1109
sg18
S'11/17'
p1110
sg20
S'14.3'
p1111
sg21
S'--'
p1112
sg22
S'--'
p1113
sg23
S'L17-27'
p1114
sg24
S'57'
p1115
sg25
g236
sg26
S'@DEN'
p1116
sg27
S'26'
p1117
sg28
g76
sg29
S'--'
p1118
ssg30
(dp1119
g5
g6
sg7
g6
sg8
g6
sg9
g6
sg10
g6
sg11
S'Dwayne Bowe'
p1120
sg13
S'2013'
p1121
sg15
S'10'
p1122
sg17
g6
sg18
S'Bye'
p1123
sg20
g6
sg21
g6
sg22
g6
sg23
g6
sg24
g6
sg25
g6
sg26
g6
sg27
g6
sg28
g6
sg29
g6
ssg51
(dp1124
g5
S'--'
p1125
sg7
S'--'
p1126
sg8
g76
sg9
S'--'
p1127
sg10
g76
sg11
S'Dwayne Bowe'
p1128
sg13
S'2013'
p1129
sg15
S'13'
p1130
sg17
S'--'
p1131
sg18
S'12/01'
p1132
sg20
S'18.7'
p1133
sg21
S'--'
p1134
sg22
S'--'
p1135
sg23
S'L28-35'
p1136
sg24
S'56'
p1137
sg25
g183
sg26
S'DEN'
p1138
sg27
S'24'
p1139
sg28
g34
sg29
S'--'
p1140
ssg71
(dp1141
g5
S'--'
p1142
sg7
S'--'
p1143
sg8
g76
sg9
S'--'
p1144
sg10
g76
sg11
S'Dwayne Bowe'
p1145
sg13
S'2013'
p1146
sg15
S'12'
p1147
sg17
S'--'
p1148
sg18
S'11/24'
p1149
sg20
S'10.2'
p1150
sg21
S'--'
p1151
sg22
S'--'
p1152
sg23
S'L38-41'
p1153
sg24
S'51'
p1154
sg25
g217
sg26
S'SD'
p1155
sg27
S'22'
p1156
sg28
g76
sg29
S'--'
p1157
ssg89
(dp1158
g5
S'--'
p1159
sg7
S'--'
p1160
sg8
g76
sg9
S'--'
p1161
sg10
g76
sg11
S'Dwayne Bowe'
p1162
sg13
S'2013'
p1163
sg15
S'15'
p1164
sg17
S'--'
p1165
sg18
S'12/15'
p1166
sg20
S'8.0'
p1167
sg21
S'--'
p1168
sg22
S'--'
p1169
sg23
S'W56-31'
p1170
sg24
S'24'
p1171
sg25
g183
sg26
S'@OAK'
p1172
sg27
S'11'
p1173
sg28
g34
sg29
S'--'
p1174
ssg108
(dp1175
g5
S'--'
p1176
sg7
S'--'
p1177
sg8
g76
sg9
S'--'
p1178
sg10
g76
sg11
S'Dwayne Bowe'
p1179
sg13
S'2013'
p1180
sg15
S'14'
p1181
sg17
S'--'
p1182
sg18
S'12/08'
p1183
sg20
S'17.5'
p1184
sg21
S'--'
p1185
sg22
S'--'
p1186
sg23
S'W45-10'
p1187
sg24
S'70'
p1188
sg25
g236
sg26
S'@WAS'
p1189
sg27
S'22T'
p1190
sg28
g76
sg29
S'--'
p1191
ssg128
(dp1192
g5
S'--'
p1193
sg7
S'--'
p1194
sg8
g34
sg9
S'--'
p1195
sg10
g34
sg11
S'Dwayne Bowe'
p1196
sg13
S'2013'
p1197
sg15
S'17'
p1198
sg17
S'--'
p1199
sg18
S'12/29'
p1200
sg20
S'--'
p1201
sg21
S'--'
p1202
sg22
S'--'
p1203
sg23
S'L24-27'
p1204
sg24
S'--'
p1205
sg25
S'--'
p1206
sg26
S'@SD'
p1207
sg27
S'--'
p1208
sg28
S'--'
p1209
sg29
S'--'
p1210
ssg148
(dp1211
g5
S'--'
p1212
sg7
S'--'
p1213
sg8
g76
sg9
S'--'
p1214
sg10
g76
sg11
S'Dwayne Bowe'
p1215
sg13
S'2013'
p1216
sg15
S'16'
p1217
sg17
S'--'
p1218
sg18
S'12/22'
p1219
sg20
S'9.2'
p1220
sg21
S'--'
p1221
sg22
S'--'
p1222
sg23
S'L7-23'
p1223
sg24
S'46'
p1224
sg25
g217
sg26
S'IND'
p1225
sg27
S'16'
p1226
sg28
g34
sg29
S'--'
p1227
ssg76
(dp1228
g5
S'--'
p1229
sg7
S'--'
p1230
sg8
g76
sg9
S'--'
p1231
sg10
g76
sg11
S'Dwayne Bowe'
p1232
sg13
S'2013'
p1233
sg15
g76
sg17
S'--'
p1234
sg18
S'09/08'
p1235
sg20
S'7.5'
p1236
sg21
S'--'
p1237
sg22
S'--'
p1238
sg23
S'W28-2'
p1239
sg24
S'30'
p1240
sg25
g236
sg26
S'@JAC'
p1241
sg27
S'15'
p1242
sg28
g34
sg29
S'--'
p1243
ssg183
(dp1244
g5
S'--'
p1245
sg7
S'--'
p1246
sg8
g76
sg9
S'--'
p1247
sg10
g76
sg11
S'Dwayne Bowe'
p1248
sg13
S'2013'
p1249
sg15
g183
sg17
S'--'
p1250
sg18
S'09/19'
p1251
sg20
S'4.0'
p1252
sg21
S'--'
p1253
sg22
S'--'
p1254
sg23
S'W26-16'
p1255
sg24
g236
sg25
g76
sg26
S'@PHI'
p1256
sg27
g236
sg28
g34
sg29
S'--'
p1257
ssg104
(dp1258
g5
S'--'
p1259
sg7
S'--'
p1260
sg8
g76
sg9
S'--'
p1261
sg10
g76
sg11
S'Dwayne Bowe'
p1262
sg13
S'2013'
p1263
sg15
g104
sg17
S'--'
p1264
sg18
S'09/15'
p1265
sg20
S'14.0'
p1266
sg21
S'--'
p1267
sg22
S'--'
p1268
sg23
S'W17-16'
p1269
sg24
S'56'
p1270
sg25
g236
sg26
S'DAL'
p1271
sg27
S'27'
p1272
sg28
g76
sg29
S'--'
p1273
ssg217
(dp1274
g5
S'--'
p1275
sg7
S'--'
p1276
sg8
g76
sg9
S'--'
p1277
sg10
g76
sg11
S'Dwayne Bowe'
p1278
sg13
S'2013'
p1279
sg15
g217
sg17
S'--'
p1280
sg18
S'10/06'
p1281
sg20
S'8.8'
p1282
sg21
S'--'
p1283
sg22
S'--'
p1284
sg23
S'W26-17'
p1285
sg24
S'35'
p1286
sg25
g236
sg26
S'@TEN'
p1287
sg27
S'17'
p1288
sg28
g34
sg29
S'--'
p1289
ssg236
(dp1290
g5
S'--'
p1291
sg7
S'--'
p1292
sg8
g76
sg9
S'--'
p1293
sg10
g76
sg11
S'Dwayne Bowe'
p1294
sg13
S'2013'
p1295
sg15
g236
sg17
S'--'
p1296
sg18
S'09/29'
p1297
sg20
S'14.5'
p1298
sg21
S'--'
p1299
sg22
S'--'
p1300
sg23
S'W31-7'
p1301
sg24
S'58'
p1302
sg25
g236
sg26
S'NYG'
p1303
sg27
S'34T'
p1304
sg28
g76
sg29
S'--'
p1305
ssg252
(dp1306
g5
S'--'
p1307
sg7
S'--'
p1308
sg8
g76
sg9
S'--'
p1309
sg10
g76
sg11
S'Dwayne Bowe'
p1310
sg13
S'2013'
p1311
sg15
g252
sg17
S'--'
p1312
sg18
S'10/20'
p1313
sg20
S'13.2'
p1314
sg21
S'--'
p1315
sg22
S'--'
p1316
sg23
S'W17-16'
p1317
sg24
S'66'
p1318
sg25
g217
sg26
S'HOU'
p1319
sg27
S'21'
p1320
sg28
g34
sg29
S'--'
p1321
ssg271
(dp1322
g5
S'--'
p1323
sg7
S'--'
p1324
sg8
g76
sg9
S'--'
p1325
sg10
g76
sg11
S'Dwayne Bowe'
p1326
sg13
S'2013'
p1327
sg15
g271
sg17
S'--'
p1328
sg18
S'10/13'
p1329
sg20
S'15.3'
p1330
sg21
S'--'
p1331
sg22
S'--'
p1332
sg23
S'W24-7'
p1333
sg24
S'46'
p1334
sg25
g183
sg26
S'OAK'
p1335
sg27
S'18'
p1336
sg28
g34
sg29
S'--'
p1337
ssg290
(dp1338
g5
S'--'
p1339
sg7
S'--'
p1340
sg8
g76
sg9
S'--'
p1341
sg10
g76
sg11
S'Dwayne Bowe'
p1342
sg13
S'2013'
p1343
sg15
g290
sg17
S'--'
p1344
sg18
S'11/03'
p1345
sg20
S'9.6'
p1346
sg21
S'--'
p1347
sg22
S'--'
p1348
sg23
S'W23-13'
p1349
sg24
S'67'
p1350
sg25
g252
sg26
S'@BUF'
p1351
sg27
S'12'
p1352
sg28
g34
sg29
S'--'
p1353
ssg307
(dp1354
g5
S'--'
p1355
sg7
S'--'
p1356
sg8
g76
sg9
S'--'
p1357
sg10
g76
sg11
S'Dwayne Bowe'
p1358
sg13
S'2013'
p1359
sg15
g307
sg17
S'--'
p1360
sg18
S'10/27'
p1361
sg20
S'7.0'
p1362
sg21
S'--'
p1363
sg22
S'--'
p1364
sg23
S'W23-17'
p1365
sg24
g252
sg25
g76
sg26
S'CLE'
p1366
sg27
g252
sg28
g34
sg29
S'--'
p1367
sssS'2012'
p1368
(dp1369
g3
(dp1370
g5
S'--'
p1371
sg7
S'--'
p1372
sg8
g76
sg9
S'--'
p1373
sg10
g76
sg11
S'Dwayne Bowe'
p1374
sg13
S'2012'
p1375
sg15
S'11'
p1376
sg17
S'--'
p1377
sg18
S'11/18'
p1378
sg20
S'--'
p1379
sg21
S'--'
p1380
sg22
S'--'
p1381
sg23
S'L6-28'
p1382
sg24
g34
sg25
g34
sg26
S'CIN'
p1383
sg27
S'--'
p1384
sg28
g34
sg29
S'--'
p1385
ssg30
(dp1386
g5
S'--'
p1387
sg7
S'--'
p1388
sg8
g76
sg9
S'--'
p1389
sg10
g76
sg11
S'Dwayne Bowe'
p1390
sg13
S'2012'
p1391
sg15
S'10'
p1392
sg17
S'--'
p1393
sg18
S'11/12'
p1394
sg20
S'13.8'
p1395
sg21
S'--'
p1396
sg22
S'--'
p1397
sg23
S'L13-16'
p1398
sg24
S'55'
p1399
sg25
g236
sg26
S'@PIT'
p1400
sg27
S'27'
p1401
sg28
g34
sg29
S'--'
p1402
ssg51
(dp1403
g5
S'--'
p1404
sg7
S'--'
p1405
sg8
g76
sg9
S'--'
p1406
sg10
g76
sg11
S'Dwayne Bowe'
p1407
sg13
S'2012'
p1408
sg15
S'13'
p1409
sg17
S'--'
p1410
sg18
S'12/02'
p1411
sg20
S'16.0'
p1412
sg21
S'--'
p1413
sg22
S'--'
p1414
sg23
S'W27-21'
p1415
sg24
S'64'
p1416
sg25
g236
sg26
S'CAR'
p1417
sg27
S'21'
p1418
sg28
g34
sg29
S'--'
p1419
ssg71
(dp1420
g5
S'--'
p1421
sg7
S'--'
p1422
sg8
g76
sg9
S'--'
p1423
sg10
g76
sg11
S'Dwayne Bowe'
p1424
sg13
S'2012'
p1425
sg15
S'12'
p1426
sg17
S'--'
p1427
sg18
S'11/25'
p1428
sg20
S'10.3'
p1429
sg21
S'--'
p1430
sg22
S'--'
p1431
sg23
S'L9-17'
p1432
sg24
S'41'
p1433
sg25
g236
sg26
S'DEN'
p1434
sg27
S'13'
p1435
sg28
g34
sg29
S'--'
p1436
ssg108
(dp1437
g5
S'--'
p1438
sg7
S'--'
p1439
sg8
g76
sg9
S'--'
p1440
sg10
g76
sg11
S'Dwayne Bowe'
p1441
sg13
S'2012'
p1442
sg15
S'14'
p1443
sg17
S'--'
p1444
sg18
S'12/09'
p1445
sg20
S'35.0'
p1446
sg21
S'--'
p1447
sg22
S'--'
p1448
sg23
S'L7-30'
p1449
sg24
S'70'
p1450
sg25
g104
sg26
S'@CLE'
p1451
sg27
S'47'
p1452
sg28
g34
sg29
S'--'
p1453
ssg76
(dp1454
g5
S'--'
p1455
sg7
S'--'
p1456
sg8
g34
sg9
S'--'
p1457
sg10
g76
sg11
S'Dwayne Bowe'
p1458
sg13
S'2012'
p1459
sg15
g76
sg17
S'--'
p1460
sg18
S'09/09'
p1461
sg20
S'17.7'
p1462
sg21
S'--'
p1463
sg22
S'--'
p1464
sg23
S'L24-40'
p1465
sg24
S'53'
p1466
sg25
g183
sg26
S'ATL'
p1467
sg27
S'23'
p1468
sg28
g34
sg29
S'--'
p1469
ssg183
(dp1470
g5
S'--'
p1471
sg7
S'--'
p1472
sg8
g76
sg9
S'--'
p1473
sg10
g76
sg11
S'Dwayne Bowe'
p1474
sg13
S'2012'
p1475
sg15
g183
sg17
S'--'
p1476
sg18
S'09/23'
p1477
sg20
S'11.3'
p1478
sg21
S'--'
p1479
sg22
S'--'
p1480
sg23
S'W27-24'
p1481
sg24
S'79'
p1482
sg25
g252
sg26
S'@NO'
p1483
sg27
S'17'
p1484
sg28
g34
sg29
S'--'
p1485
ssg104
(dp1486
g5
S'--'
p1487
sg7
S'--'
p1488
sg8
g76
sg9
S'--'
p1489
sg10
g76
sg11
S'Dwayne Bowe'
p1490
sg13
S'2012'
p1491
sg15
g104
sg17
S'--'
p1492
sg18
S'09/16'
p1493
sg20
S'12.8'
p1494
sg21
S'--'
p1495
sg22
S'--'
p1496
sg23
S'L17-35'
p1497
sg24
S'102'
p1498
sg25
g307
sg26
S'@BUF'
p1499
sg27
S'33T'
p1500
sg28
g104
sg29
S'--'
p1501
ssg217
(dp1502
g5
S'--'
p1503
sg7
S'--'
p1504
sg8
g76
sg9
S'--'
p1505
sg10
g76
sg11
S'Dwayne Bowe'
p1506
sg13
S'2012'
p1507
sg15
g217
sg17
S'--'
p1508
sg18
S'10/07'
p1509
sg20
S'10.0'
p1510
sg21
S'--'
p1511
sg22
S'--'
p1512
sg23
S'L6-9'
p1513
sg24
S'60'
p1514
sg25
g271
sg26
S'BAL'
p1515
sg27
S'20'
p1516
sg28
g34
sg29
S'--'
p1517
ssg236
(dp1518
g5
S'--'
p1519
sg7
S'--'
p1520
sg8
g76
sg9
S'--'
p1521
sg10
g76
sg11
S'Dwayne Bowe'
p1522
sg13
S'2012'
p1523
sg15
g236
sg17
S'--'
p1524
sg18
S'09/30'
p1525
sg20
S'15.4'
p1526
sg21
S'--'
p1527
sg22
S'--'
p1528
sg23
S'L20-37'
p1529
sg24
S'108'
p1530
sg25
g252
sg26
S'SD'
p1531
sg27
S'29T'
p1532
sg28
g76
sg29
S'--'
p1533
ssg252
(dp1534
g5
g6
sg7
g6
sg8
g6
sg9
g6
sg10
g6
sg11
S'Dwayne Bowe'
p1535
sg13
S'2012'
p1536
sg15
g252
sg17
g6
sg18
S'Bye'
p1537
sg20
g6
sg21
g6
sg22
g6
sg23
g6
sg24
g6
sg25
g6
sg26
g6
sg27
g6
sg28
g6
sg29
g6
ssg271
(dp1538
g5
S'--'
p1539
sg7
S'--'
p1540
sg8
g76
sg9
S'--'
p1541
sg10
g76
sg11
S'Dwayne Bowe'
p1542
sg13
S'2012'
p1543
sg15
g271
sg17
S'--'
p1544
sg18
S'10/14'
p1545
sg20
S'8.3'
p1546
sg21
S'--'
p1547
sg22
S'--'
p1548
sg23
S'L10-38'
p1549
sg24
S'25'
p1550
sg25
g183
sg26
S'@TB'
p1551
sg27
S'12'
p1552
sg28
g34
sg29
S'--'
p1553
ssg290
(dp1554
g5
S'--'
p1555
sg7
S'--'
p1556
sg8
g76
sg9
g76
sg10
g76
sg11
S'Dwayne Bowe'
p1557
sg13
S'2012'
p1558
sg15
g290
sg17
S'--'
p1559
sg18
S'11/01'
p1560
sg20
S'9.9'
p1561
sg21
g76
sg22
S'--'
p1562
sg23
S'L13-31'
p1563
sg24
S'79'
p1564
sg25
g307
sg26
S'@SD'
p1565
sg27
S'14'
p1566
sg28
g34
sg29
S'--'
p1567
ssg307
(dp1568
g5
S'--'
p1569
sg7
S'--'
p1570
sg8
g76
sg9
S'--'
p1571
sg10
g76
sg11
S'Dwayne Bowe'
p1572
sg13
S'2012'
p1573
sg15
g307
sg17
S'--'
p1574
sg18
S'10/28'
p1575
sg20
S'21.7'
p1576
sg21
S'--'
p1577
sg22
S'--'
p1578
sg23
S'L16-26'
p1579
sg24
S'65'
p1580
sg25
g183
sg26
S'OAK'
p1581
sg27
S'46'
p1582
sg28
g34
sg29
S'--'
p1583
sss.