(dp0
S'2015'
p1
(dp2
S'11'
p3
(dp4
S'RushTD'
p5
S'--'
p6
sS'RushYds'
p7
S'--'
p8
sS'GS'
p9
S'0'
p10
sS'Lost'
p11
S'--'
p12
sS'G'
p13
g10
sS'Player'
p14
S'Eddie Royal'
p15
sS'Year'
p16
S'2015'
p17
sS'WK'
p18
S'11'
p19
sS'RushAvg'
p20
S'--'
p21
sS'Game Date'
p22
S'11/22'
p23
sS'RecAvg'
p24
S'--'
p25
sS'FUM'
p26
S'--'
p27
sS'RushAtt'
p28
S'--'
p29
sS'Result'
p30
S'L15-17'
p31
sS'RecYds'
p32
S'--'
p33
sS'Rec'
p34
S'--'
p35
sS'Opp'
p36
S'DEN'
p37
sS'RecLng'
p38
S'--'
p39
sS'RecTD'
p40
S'--'
p41
sS'RushLng'
p42
S'--'
p43
ssS'10'
p44
(dp45
g5
S'--'
p46
sg7
S'--'
p47
sg9
g10
sg11
S'--'
p48
sg13
g10
sg14
S'Eddie Royal'
p49
sg16
S'2015'
p50
sg18
S'10'
p51
sg20
S'--'
p52
sg22
S'11/15'
p53
sg24
S'--'
p54
sg26
S'--'
p55
sg28
S'--'
p56
sg30
S'W37-13'
p57
sg32
S'--'
p58
sg34
S'--'
p59
sg36
S'@STL'
p60
sg38
S'--'
p61
sg40
S'--'
p62
sg42
S'--'
p63
ssS'13'
p64
(dp65
g5
S'--'
p66
sg7
S'--'
p67
sg9
g10
sg11
S'--'
p68
sg13
g10
sg14
S'Eddie Royal'
p69
sg16
S'2015'
p70
sg18
S'13'
p71
sg20
S'--'
p72
sg22
S'12/06'
p73
sg24
S'--'
p74
sg26
S'--'
p75
sg28
S'--'
p76
sg30
S'L20-26'
p77
sg32
S'--'
p78
sg34
S'--'
p79
sg36
S'SF'
p80
sg38
S'--'
p81
sg40
S'--'
p82
sg42
S'--'
p83
ssS'12'
p84
(dp85
g5
S'--'
p86
sg7
S'--'
p87
sg9
g10
sg11
S'--'
p88
sg13
g10
sg14
S'Eddie Royal'
p89
sg16
S'2015'
p90
sg18
S'12'
p91
sg20
S'--'
p92
sg22
S'11/26'
p93
sg24
S'--'
p94
sg26
S'--'
p95
sg28
S'--'
p96
sg30
S'W17-13'
p97
sg32
S'--'
p98
sg34
S'--'
p99
sg36
S'@GB'
p100
sg38
S'--'
p101
sg40
S'--'
p102
sg42
S'--'
p103
ssS'15'
p104
(dp105
g5
S'--'
p106
sg7
S'--'
p107
sg9
S'1'
p108
sg11
S'--'
p109
sg13
g108
sg14
S'Eddie Royal'
p110
sg16
S'2015'
p111
sg18
S'15'
p112
sg20
S'--'
p113
sg22
S'12/20'
p114
sg24
S'6.2'
p115
sg26
S'--'
p116
sg28
S'--'
p117
sg30
S'L17-38'
p118
sg32
S'31'
p119
sg34
S'5'
p120
sg36
S'@MIN'
p121
sg38
S'10'
p122
sg40
g10
sg42
S'--'
p123
ssS'14'
p124
(dp125
g5
S'--'
p126
sg7
S'--'
p127
sg9
g108
sg11
S'--'
p128
sg13
g108
sg14
S'Eddie Royal'
p129
sg16
S'2015'
p130
sg18
S'14'
p131
sg20
S'--'
p132
sg22
S'12/13'
p133
sg24
S'15.0'
p134
sg26
S'--'
p135
sg28
S'--'
p136
sg30
S'L21-24'
p137
sg32
S'15'
p138
sg34
g108
sg36
S'WAS'
p139
sg38
S'15'
p140
sg40
g10
sg42
S'--'
p141
ssS'17'
p142
(dp143
g5
S'--'
p144
sg7
S'--'
p145
sg9
g10
sg11
S'--'
p146
sg13
g10
sg14
S'Eddie Royal'
p147
sg16
S'2015'
p148
sg18
S'17'
p149
sg20
S'--'
p150
sg22
S'01/03'
p151
sg24
S'--'
p152
sg26
S'--'
p153
sg28
S'--'
p154
sg30
S'L20-24'
p155
sg32
S'--'
p156
sg34
S'--'
p157
sg36
S'DET'
p158
sg38
S'--'
p159
sg40
S'--'
p160
sg42
S'--'
p161
ssS'16'
p162
(dp163
g5
S'--'
p164
sg7
S'--'
p165
sg9
g108
sg11
S'--'
p166
sg13
g108
sg14
S'Eddie Royal'
p167
sg16
S'2015'
p168
sg18
S'16'
p169
sg20
S'--'
p170
sg22
S'12/27'
p171
sg24
S'4.2'
p172
sg26
S'--'
p173
sg28
S'--'
p174
sg30
S'W26-21'
p175
sg32
S'21'
p176
sg34
g120
sg36
S'@TB'
p177
sg38
S'14'
p178
sg40
g10
sg42
S'--'
p179
ssg108
(dp180
g5
S'--'
p181
sg7
S'--'
p182
sg9
g108
sg11
S'--'
p183
sg13
g108
sg14
S'Eddie Royal'
p184
sg16
S'2015'
p185
sg18
g108
sg20
S'--'
p186
sg22
S'09/13'
p187
sg24
S'8.0'
p188
sg26
S'--'
p189
sg28
S'--'
p190
sg30
S'L23-31'
p191
sg32
S'8'
p192
sg34
g108
sg36
S'GB'
p193
sg38
g192
sg40
g10
sg42
S'--'
p194
ssS'3'
p195
(dp196
g5
S'--'
p197
sg7
S'--'
p198
sg9
g108
sg11
S'--'
p199
sg13
g108
sg14
S'Eddie Royal'
p200
sg16
S'2015'
p201
sg18
g195
sg20
S'--'
p202
sg22
S'09/27'
p203
sg24
S'5.7'
p204
sg26
S'--'
p205
sg28
S'--'
p206
sg30
S'L0-26'
p207
sg32
S'17'
p208
sg34
g195
sg36
S'@SEA'
p209
sg38
S'9'
p210
sg40
g10
sg42
S'--'
p211
ssS'2'
p212
(dp213
g5
S'--'
p214
sg7
S'--'
p215
sg9
g108
sg11
S'--'
p216
sg13
g108
sg14
S'Eddie Royal'
p217
sg16
S'2015'
p218
sg18
g212
sg20
S'--'
p219
sg22
S'09/20'
p220
sg24
S'5.9'
p221
sg26
S'--'
p222
sg28
S'--'
p223
sg30
S'L23-48'
p224
sg32
S'41'
p225
sg34
S'7'
p226
sg36
S'ARI'
p227
sg38
S'15'
p228
sg40
g10
sg42
S'--'
p229
ssg120
(dp230
g5
S'--'
p231
sg7
S'--'
p232
sg9
g10
sg11
S'--'
p233
sg13
g10
sg14
S'Eddie Royal'
p234
sg16
S'2015'
p235
sg18
g120
sg20
S'--'
p236
sg22
S'10/11'
p237
sg24
S'--'
p238
sg26
S'--'
p239
sg28
S'--'
p240
sg30
S'W18-17'
p241
sg32
S'--'
p242
sg34
S'--'
p243
sg36
S'@KC'
p244
sg38
S'--'
p245
sg40
S'--'
p246
sg42
S'--'
p247
ssS'4'
p248
(dp249
g5
S'--'
p250
sg7
S'--'
p251
sg9
g108
sg11
S'--'
p252
sg13
g108
sg14
S'Eddie Royal'
p253
sg16
S'2015'
p254
sg18
g248
sg20
S'--'
p255
sg22
S'10/04'
p256
sg24
S'7.7'
p257
sg26
S'--'
p258
sg28
S'--'
p259
sg30
S'W22-20'
p260
sg32
S'54'
p261
sg34
g226
sg36
S'OAK'
p262
sg38
S'21'
p263
sg40
g108
sg42
S'--'
p264
ssg226
(dp265
g5
S''
p266
sg7
g266
sg9
g266
sg11
g266
sg13
g266
sg14
S'Eddie Royal'
p267
sg16
S'2015'
p268
sg18
g226
sg20
g266
sg22
S'Bye'
p269
sg24
g266
sg26
g266
sg28
g266
sg30
g266
sg32
g266
sg34
g266
sg36
g266
sg38
g266
sg40
g266
sg42
g266
ssS'6'
p270
(dp271
g5
S'--'
p272
sg7
S'--'
p273
sg9
g108
sg11
S'--'
p274
sg13
g108
sg14
S'Eddie Royal'
p275
sg16
S'2015'
p276
sg18
g270
sg20
S'--'
p277
sg22
S'10/18'
p278
sg24
S'9.8'
p279
sg26
S'--'
p280
sg28
S'--'
p281
sg30
S'L34-37'
p282
sg32
S'49'
p283
sg34
g120
sg36
S'@DET'
p284
sg38
S'30'
p285
sg40
g10
sg42
S'--'
p286
ssg210
(dp287
g5
S'--'
p288
sg7
S'--'
p289
sg9
g10
sg11
S'--'
p290
sg13
g10
sg14
S'Eddie Royal'
p291
sg16
S'2015'
p292
sg18
g210
sg20
S'--'
p293
sg22
S'11/09'
p294
sg24
S'--'
p295
sg26
S'--'
p296
sg28
S'--'
p297
sg30
S'W22-19'
p298
sg32
S'--'
p299
sg34
S'--'
p300
sg36
S'@SD'
p301
sg38
S'--'
p302
sg40
S'--'
p303
sg42
S'--'
p304
ssg192
(dp305
g5
g10
sg7
S'-1'
p306
sg9
g108
sg11
S'--'
p307
sg13
g108
sg14
S'Eddie Royal'
p308
sg16
S'2015'
p309
sg18
g192
sg20
S'-1.0'
p310
sg22
S'11/01'
p311
sg24
S'0.7'
p312
sg26
S'--'
p313
sg28
g108
sg30
S'L20-23'
p314
sg32
g212
sg34
g195
sg36
S'MIN'
p315
sg38
g212
sg40
g10
sg42
S'-1'
p316
sssS'2014'
p317
(dp318
g3
(dp319
g5
g10
sg7
S'15'
p320
sg9
g10
sg11
S'--'
p321
sg13
g108
sg14
S'Eddie Royal'
p322
sg16
S'2014'
p323
sg18
S'11'
p324
sg20
S'15.0'
p325
sg22
S'11/16'
p326
sg24
S'13.5'
p327
sg26
S'--'
p328
sg28
g108
sg30
S'W13-6'
p329
sg32
S'27'
p330
sg34
g212
sg36
S'OAK'
p331
sg38
S'14'
p332
sg40
g10
sg42
S'15'
p333
ssg44
(dp334
g5
g266
sg7
g266
sg9
g266
sg11
g266
sg13
g266
sg14
S'Eddie Royal'
p335
sg16
S'2014'
p336
sg18
S'10'
p337
sg20
g266
sg22
S'Bye'
p338
sg24
g266
sg26
g266
sg28
g266
sg30
g266
sg32
g266
sg34
g266
sg36
g266
sg38
g266
sg40
g266
sg42
g266
ssg64
(dp339
g5
S'--'
p340
sg7
S'--'
p341
sg9
g108
sg11
g108
sg13
g108
sg14
S'Eddie Royal'
p342
sg16
S'2014'
p343
sg18
S'13'
p344
sg20
S'--'
p345
sg22
S'11/30'
p346
sg24
S'9.0'
p347
sg26
g108
sg28
S'--'
p348
sg30
S'W34-33'
p349
sg32
S'81'
p350
sg34
g210
sg36
S'@BAL'
p351
sg38
S'21'
p352
sg40
g108
sg42
S'--'
p353
ssg84
(dp354
g5
S'--'
p355
sg7
S'--'
p356
sg9
g108
sg11
S'--'
p357
sg13
g108
sg14
S'Eddie Royal'
p358
sg16
S'2014'
p359
sg18
S'12'
p360
sg20
S'--'
p361
sg22
S'11/23'
p362
sg24
S'8.3'
p363
sg26
S'--'
p364
sg28
S'--'
p365
sg30
S'W27-24'
p366
sg32
S'50'
p367
sg34
g270
sg36
S'STL'
p368
sg38
S'12'
p369
sg40
g10
sg42
S'--'
p370
ssg104
(dp371
g5
S'--'
p372
sg7
S'--'
p373
sg9
g10
sg11
S'--'
p374
sg13
g108
sg14
S'Eddie Royal'
p375
sg16
S'2014'
p376
sg18
S'15'
p377
sg20
S'--'
p378
sg22
S'12/14'
p379
sg24
S'9.0'
p380
sg26
S'--'
p381
sg28
S'--'
p382
sg30
S'L10-22'
p383
sg32
S'27'
p384
sg34
g195
sg36
S'DEN'
p385
sg38
S'20'
p386
sg40
g10
sg42
S'--'
p387
ssg124
(dp388
g5
S'--'
p389
sg7
S'--'
p390
sg9
g108
sg11
S'--'
p391
sg13
g108
sg14
S'Eddie Royal'
p392
sg16
S'2014'
p393
sg18
S'14'
p394
sg20
S'--'
p395
sg22
S'12/07'
p396
sg24
S'15.0'
p397
sg26
S'--'
p398
sg28
S'--'
p399
sg30
S'L14-23'
p400
sg32
S'30'
p401
sg34
g212
sg36
S'NE'
p402
sg38
S'22'
p403
sg40
g10
sg42
S'--'
p404
ssg142
(dp405
g5
S'--'
p406
sg7
S'--'
p407
sg9
g108
sg11
S'--'
p408
sg13
g108
sg14
S'Eddie Royal'
p409
sg16
S'2014'
p410
sg18
S'17'
p411
sg20
S'--'
p412
sg22
S'12/28'
p413
sg24
S'23.8'
p414
sg26
S'--'
p415
sg28
S'--'
p416
sg30
S'L7-19'
p417
sg32
S'95'
p418
sg34
g248
sg36
S'@KC'
p419
sg38
S'44'
p420
sg40
g10
sg42
S'--'
p421
ssg162
(dp422
g5
S'--'
p423
sg7
S'--'
p424
sg9
g108
sg11
S'--'
p425
sg13
g108
sg14
S'Eddie Royal'
p426
sg16
S'2014'
p427
sg18
S'16'
p428
sg20
S'--'
p429
sg22
S'12/20'
p430
sg24
S'9.4'
p431
sg26
S'--'
p432
sg28
S'--'
p433
sg30
S'W38-35'
p434
sg32
S'94'
p435
sg34
S'10'
p436
sg36
S'@SF'
p437
sg38
S'20'
p438
sg40
g108
sg42
S'--'
p439
ssg108
(dp440
g5
g10
sg7
S'-1'
p441
sg9
g108
sg11
S'--'
p442
sg13
g108
sg14
S'Eddie Royal'
p443
sg16
S'2014'
p444
sg18
g108
sg20
S'-0.5'
p445
sg22
S'09/08'
p446
sg24
S'20.0'
p447
sg26
S'--'
p448
sg28
g212
sg30
S'L17-18'
p449
sg32
S'20'
p450
sg34
g108
sg36
S'@ARI'
p451
sg38
S'20'
p452
sg40
g10
sg42
g212
ssg195
(dp453
g5
S'--'
p454
sg7
S'--'
p455
sg9
g108
sg11
S'--'
p456
sg13
g108
sg14
S'Eddie Royal'
p457
sg16
S'2014'
p458
sg18
g195
sg20
S'--'
p459
sg22
S'09/21'
p460
sg24
S'10.5'
p461
sg26
S'--'
p462
sg28
S'--'
p463
sg30
S'W22-10'
p464
sg32
S'42'
p465
sg34
g248
sg36
S'@BUF'
p466
sg38
S'23'
p467
sg40
g212
sg42
S'--'
p468
ssg212
(dp469
g5
S'--'
p470
sg7
S'--'
p471
sg9
g10
sg11
S'--'
p472
sg13
g108
sg14
S'Eddie Royal'
p473
sg16
S'2014'
p474
sg18
g212
sg20
S'--'
p475
sg22
S'09/14'
p476
sg24
S'9.9'
p477
sg26
S'--'
p478
sg28
S'--'
p479
sg30
S'W30-21'
p480
sg32
S'69'
p481
sg34
g226
sg36
S'SEA'
p482
sg38
S'16'
p483
sg40
g10
sg42
S'--'
p484
ssg120
(dp485
g5
S'--'
p486
sg7
S'--'
p487
sg9
g10
sg11
S'--'
p488
sg13
g108
sg14
S'Eddie Royal'
p489
sg16
S'2014'
p490
sg18
g120
sg20
S'--'
p491
sg22
S'10/05'
p492
sg24
S'13.3'
p493
sg26
S'--'
p494
sg28
S'--'
p495
sg30
S'W31-0'
p496
sg32
S'40'
p497
sg34
g195
sg36
S'NYJ'
p498
sg38
S'32'
p499
sg40
g10
sg42
S'--'
p500
ssg248
(dp501
g5
S'--'
p502
sg7
S'--'
p503
sg9
g108
sg11
S'--'
p504
sg13
g108
sg14
S'Eddie Royal'
p505
sg16
S'2014'
p506
sg18
g248
sg20
S'--'
p507
sg22
S'09/28'
p508
sg24
S'21.0'
p509
sg26
S'--'
p510
sg28
S'--'
p511
sg30
S'W33-14'
p512
sg32
S'105'
p513
sg34
g120
sg36
S'JAC'
p514
sg38
S'47T'
p515
sg40
g212
sg42
S'--'
p516
ssg226
(dp517
g5
S'--'
p518
sg7
S'--'
p519
sg9
g108
sg11
S'--'
p520
sg13
g108
sg14
S'Eddie Royal'
p521
sg16
S'2014'
p522
sg18
g226
sg20
S'--'
p523
sg22
S'10/19'
p524
sg24
S'20.0'
p525
sg26
S'--'
p526
sg28
S'--'
p527
sg30
S'L20-23'
p528
sg32
S'20'
p529
sg34
g108
sg36
S'KC'
p530
sg38
S'20'
p531
sg40
g10
sg42
S'--'
p532
ssg270
(dp533
g5
S'--'
p534
sg7
S'--'
p535
sg9
g108
sg11
S'--'
p536
sg13
g108
sg14
S'Eddie Royal'
p537
sg16
S'2014'
p538
sg18
g270
sg20
S'--'
p539
sg22
S'10/12'
p540
sg24
S'24.5'
p541
sg26
S'--'
p542
sg28
S'--'
p543
sg30
S'W31-28'
p544
sg32
S'49'
p545
sg34
g212
sg36
S'@OAK'
p546
sg38
S'29T'
p547
sg40
g108
sg42
S'--'
p548
ssg210
(dp549
g5
S'--'
p550
sg7
S'--'
p551
sg9
g10
sg11
S'--'
p552
sg13
g108
sg14
S'Eddie Royal'
p553
sg16
S'2014'
p554
sg18
g210
sg20
S'--'
p555
sg22
S'11/02'
p556
sg24
S'--'
p557
sg26
S'--'
p558
sg28
S'--'
p559
sg30
S'L0-37'
p560
sg32
g10
sg34
g10
sg36
S'@MIA'
p561
sg38
S'--'
p562
sg40
g10
sg42
S'--'
p563
ssg192
(dp564
g5
S'--'
p565
sg7
S'--'
p566
sg9
g108
sg11
S'--'
p567
sg13
g108
sg14
S'Eddie Royal'
p568
sg16
S'2014'
p569
sg18
g192
sg20
S'--'
p570
sg22
S'10/23'
p571
sg24
S'9.7'
p572
sg26
S'--'
p573
sg28
S'--'
p574
sg30
S'L21-35'
p575
sg32
S'29'
p576
sg34
g195
sg36
S'@DEN'
p577
sg38
S'15'
p578
sg40
g10
sg42
S'--'
p579
sssS'2011'
p580
(dp581
g3
(dp582
g5
g10
sg7
S'10'
p583
sg9
g108
sg11
S'--'
p584
sg13
g108
sg14
S'Eddie Royal'
p585
sg16
S'2011'
p586
sg18
S'11'
p587
sg20
S'10.0'
p588
sg22
S'11/17'
p589
sg24
S'5.0'
p590
sg26
S'--'
p591
sg28
g108
sg30
S'W17-13'
p592
sg32
S'15'
p593
sg34
g195
sg36
S'NYJ'
p594
sg38
g192
sg40
g10
sg42
S'10'
p595
ssg44
(dp596
g5
g10
sg7
S'19'
p597
sg9
g10
sg11
S'--'
p598
sg13
g108
sg14
S'Eddie Royal'
p599
sg16
S'2011'
p600
sg18
S'10'
p601
sg20
S'6.3'
p602
sg22
S'11/13'
p603
sg24
S'--'
p604
sg26
S'--'
p605
sg28
g195
sg30
S'W17-10'
p606
sg32
g10
sg34
g10
sg36
S'@KC'
p607
sg38
S'--'
p608
sg40
g10
sg42
S'11'
p609
ssg64
(dp610
g5
S'--'
p611
sg7
S'--'
p612
sg9
g10
sg11
S'--'
p613
sg13
g108
sg14
S'Eddie Royal'
p614
sg16
S'2011'
p615
sg18
S'13'
p616
sg20
S'--'
p617
sg22
S'12/04'
p618
sg24
S'7.0'
p619
sg26
S'--'
p620
sg28
S'--'
p621
sg30
S'W35-32'
p622
sg32
g226
sg34
g108
sg36
S'@MIN'
p623
sg38
g226
sg40
g10
sg42
S'--'
p624
ssg84
(dp625
g5
g10
sg7
g108
sg9
g108
sg11
S'--'
p626
sg13
g108
sg14
S'Eddie Royal'
p627
sg16
S'2011'
p628
sg18
S'12'
p629
sg20
S'1.0'
p630
sg22
S'11/27'
p631
sg24
S'--'
p632
sg26
S'--'
p633
sg28
g108
sg30
S'W16-13'
p634
sg32
g10
sg34
g10
sg36
S'@SD'
p635
sg38
S'--'
p636
sg40
g10
sg42
g108
ssg104
(dp637
g5
S'--'
p638
sg7
S'--'
p639
sg9
g10
sg11
S'--'
p640
sg13
g108
sg14
S'Eddie Royal'
p641
sg16
S'2011'
p642
sg18
S'15'
p643
sg20
S'--'
p644
sg22
S'12/18'
p645
sg24
S'--'
p646
sg26
S'--'
p647
sg28
S'--'
p648
sg30
S'L23-41'
p649
sg32
g10
sg34
g10
sg36
S'NE'
p650
sg38
S'--'
p651
sg40
g10
sg42
S'--'
p652
ssg124
(dp653
g5
S'--'
p654
sg7
S'--'
p655
sg9
g10
sg11
S'--'
p656
sg13
g10
sg14
S'Eddie Royal'
p657
sg16
S'2011'
p658
sg18
S'14'
p659
sg20
S'--'
p660
sg22
S'12/11'
p661
sg24
S'--'
p662
sg26
S'--'
p663
sg28
S'--'
p664
sg30
S'W13-10'
p665
sg32
S'--'
p666
sg34
S'--'
p667
sg36
S'CHI'
p668
sg38
S'--'
p669
sg40
S'--'
p670
sg42
S'--'
p671
ssg142
(dp672
g5
g10
sg7
S'18'
p673
sg9
g108
sg11
S'--'
p674
sg13
g108
sg14
S'Eddie Royal'
p675
sg16
S'2011'
p676
sg18
S'17'
p677
sg20
S'9.0'
p678
sg22
S'01/01'
p679
sg24
S'--'
p680
sg26
S'--'
p681
sg28
g212
sg30
S'L3-7'
p682
sg32
g10
sg34
g10
sg36
S'KC'
p683
sg38
S'--'
p684
sg40
g10
sg42
S'10'
p685
ssg162
(dp686
g5
S'--'
p687
sg7
S'--'
p688
sg9
g10
sg11
S'--'
p689
sg13
g108
sg14
S'Eddie Royal'
p690
sg16
S'2011'
p691
sg18
S'16'
p692
sg20
S'--'
p693
sg22
S'12/24'
p694
sg24
S'2.0'
p695
sg26
S'--'
p696
sg28
S'--'
p697
sg30
S'L14-40'
p698
sg32
g212
sg34
g108
sg36
S'@BUF'
p699
sg38
g212
sg40
g10
sg42
S'--'
p700
ssg108
(dp701
g5
S'--'
p702
sg7
S'--'
p703
sg9
g108
sg11
S'--'
p704
sg13
g108
sg14
S'Eddie Royal'
p705
sg16
S'2011'
p706
sg18
g108
sg20
S'--'
p707
sg22
S'09/12'
p708
sg24
S'16.5'
p709
sg26
S'--'
p710
sg28
S'--'
p711
sg30
S'L20-23'
p712
sg32
S'33'
p713
sg34
g212
sg36
S'OAK'
p714
sg38
S'18'
p715
sg40
g10
sg42
S'--'
p716
ssg195
(dp717
g5
S'--'
p718
sg7
S'--'
p719
sg9
g10
sg11
S'--'
p720
sg13
g10
sg14
S'Eddie Royal'
p721
sg16
S'2011'
p722
sg18
g195
sg20
S'--'
p723
sg22
S'09/25'
p724
sg24
S'--'
p725
sg26
S'--'
p726
sg28
S'--'
p727
sg30
S'L14-17'
p728
sg32
S'--'
p729
sg34
S'--'
p730
sg36
S'@TEN'
p731
sg38
S'--'
p732
sg40
S'--'
p733
sg42
S'--'
p734
ssg212
(dp735
g5
S'--'
p736
sg7
S'--'
p737
sg9
g108
sg11
S'--'
p738
sg13
g108
sg14
S'Eddie Royal'
p739
sg16
S'2011'
p740
sg18
g212
sg20
S'--'
p741
sg22
S'09/18'
p742
sg24
S'9.0'
p743
sg26
S'--'
p744
sg28
S'--'
p745
sg30
S'W24-22'
p746
sg32
S'18'
p747
sg34
g212
sg36
S'CIN'
p748
sg38
S'14'
p749
sg40
g10
sg42
S'--'
p750
ssg120
(dp751
g5
S'--'
p752
sg7
S'--'
p753
sg9
g10
sg11
S'--'
p754
sg13
g10
sg14
S'Eddie Royal'
p755
sg16
S'2011'
p756
sg18
g120
sg20
S'--'
p757
sg22
S'10/09'
p758
sg24
S'--'
p759
sg26
S'--'
p760
sg28
S'--'
p761
sg30
S'L24-29'
p762
sg32
S'--'
p763
sg34
S'--'
p764
sg36
S'SD'
p765
sg38
S'--'
p766
sg40
S'--'
p767
sg42
S'--'
p768
ssg248
(dp769
g5
S'--'
p770
sg7
S'--'
p771
sg9
g10
sg11
S'--'
p772
sg13
g10
sg14
S'Eddie Royal'
p773
sg16
S'2011'
p774
sg18
g248
sg20
S'--'
p775
sg22
S'10/02'
p776
sg24
S'--'
p777
sg26
S'--'
p778
sg28
S'--'
p779
sg30
S'L23-49'
p780
sg32
S'--'
p781
sg34
S'--'
p782
sg36
S'@GB'
p783
sg38
S'--'
p784
sg40
S'--'
p785
sg42
S'--'
p786
ssg226
(dp787
g5
S'--'
p788
sg7
S'--'
p789
sg9
g108
sg11
S'--'
p790
sg13
g108
sg14
S'Eddie Royal'
p791
sg16
S'2011'
p792
sg18
g226
sg20
S'--'
p793
sg22
S'10/23'
p794
sg24
S'7.0'
p795
sg26
S'--'
p796
sg28
S'--'
p797
sg30
S'W18-15'
p798
sg32
S'14'
p799
sg34
g212
sg36
S'@MIA'
p800
sg38
g226
sg40
g10
sg42
S'--'
p801
ssg270
(dp802
g5
g266
sg7
g266
sg9
g266
sg11
g266
sg13
g266
sg14
S'Eddie Royal'
p803
sg16
S'2011'
p804
sg18
g270
sg20
g266
sg22
S'Bye'
p805
sg24
g266
sg26
g266
sg28
g266
sg30
g266
sg32
g266
sg34
g266
sg36
g266
sg38
g266
sg40
g266
sg42
g266
ssg210
(dp806
g5
S'--'
p807
sg7
S'--'
p808
sg9
g108
sg11
S'--'
p809
sg13
g108
sg14
S'Eddie Royal'
p810
sg16
S'2011'
p811
sg18
g210
sg20
S'--'
p812
sg22
S'11/06'
p813
sg24
S'12.5'
p814
sg26
S'--'
p815
sg28
S'--'
p816
sg30
S'W38-24'
p817
sg32
S'25'
p818
sg34
g212
sg36
S'@OAK'
p819
sg38
S'26T'
p820
sg40
g108
sg42
S'--'
p821
ssg192
(dp822
g5
S'--'
p823
sg7
S'--'
p824
sg9
g108
sg11
S'--'
p825
sg13
g108
sg14
S'Eddie Royal'
p826
sg16
S'2011'
p827
sg18
g192
sg20
S'--'
p828
sg22
S'10/30'
p829
sg24
S'6.8'
p830
sg26
S'--'
p831
sg28
S'--'
p832
sg30
S'L10-45'
p833
sg32
S'41'
p834
sg34
g270
sg36
S'DET'
p835
sg38
S'11'
p836
sg40
g10
sg42
S'--'
p837
sssS'2010'
p838
(dp839
g3
(dp840
g5
S'--'
p841
sg7
S'--'
p842
sg9
g108
sg11
S'--'
p843
sg13
g108
sg14
S'Eddie Royal'
p844
sg16
S'2010'
p845
sg18
S'11'
p846
sg20
S'--'
p847
sg22
S'11/22'
p848
sg24
S'6.0'
p849
sg26
S'--'
p850
sg28
S'--'
p851
sg30
S'L14-35'
p852
sg32
S'12'
p853
sg34
g212
sg36
S'@SD'
p854
sg38
g192
sg40
g10
sg42
S'--'
p855
ssg44
(dp856
g5
g10
sg7
S'20'
p857
sg9
g10
sg11
S'--'
p858
sg13
g108
sg14
S'Eddie Royal'
p859
sg16
S'2010'
p860
sg18
S'10'
p861
sg20
S'10.0'
p862
sg22
S'11/14'
p863
sg24
S'7.8'
p864
sg26
S'--'
p865
sg28
g212
sg30
S'W49-29'
p866
sg32
S'39'
p867
sg34
g120
sg36
S'KC'
p868
sg38
S'12'
p869
sg40
g10
sg42
S'19'
p870
ssg64
(dp871
g5
S'--'
p872
sg7
S'--'
p873
sg9
g108
sg11
S'--'
p874
sg13
g108
sg14
S'Eddie Royal'
p875
sg16
S'2010'
p876
sg18
S'13'
p877
sg20
S'--'
p878
sg22
S'12/05'
p879
sg24
S'3.5'
p880
sg26
S'--'
p881
sg28
S'--'
p882
sg30
S'L6-10'
p883
sg32
g226
sg34
g212
sg36
S'@KC'
p884
sg38
g248
sg40
g10
sg42
S'--'
p885
ssg84
(dp886
g5
g10
sg7
S'20'
p887
sg9
g108
sg11
g108
sg13
g108
sg14
S'Eddie Royal'
p888
sg16
S'2010'
p889
sg18
S'12'
p890
sg20
S'20.0'
p891
sg22
S'11/28'
p892
sg24
S'12.3'
p893
sg26
g108
sg28
g108
sg30
S'L33-36'
p894
sg32
S'74'
p895
sg34
g270
sg36
S'STL'
p896
sg38
S'24'
p897
sg40
g108
sg42
S'20'
p898
ssg104
(dp899
g5
S'--'
p900
sg7
S'--'
p901
sg9
g108
sg11
S'--'
p902
sg13
g108
sg14
S'Eddie Royal'
p903
sg16
S'2010'
p904
sg18
S'15'
p905
sg20
S'--'
p906
sg22
S'12/19'
p907
sg24
S'--'
p908
sg26
S'--'
p909
sg28
S'--'
p910
sg30
S'L23-39'
p911
sg32
g10
sg34
g10
sg36
S'@OAK'
p912
sg38
S'--'
p913
sg40
g10
sg42
S'--'
p914
ssg124
(dp915
g5
g10
sg7
g192
sg9
g10
sg11
g108
sg13
g108
sg14
S'Eddie Royal'
p916
sg16
S'2010'
p917
sg18
S'14'
p918
sg20
S'4.0'
p919
sg22
S'12/12'
p920
sg24
S'11.5'
p921
sg26
g108
sg28
g212
sg30
S'L13-43'
p922
sg32
S'46'
p923
sg34
g248
sg36
S'@ARI'
p924
sg38
S'16'
p925
sg40
g10
sg42
S'18'
p926
ssg142
(dp927
g5
S'--'
p928
sg7
S'--'
p929
sg9
g10
sg11
S'--'
p930
sg13
g108
sg14
S'Eddie Royal'
p931
sg16
S'2010'
p932
sg18
S'17'
p933
sg20
S'--'
p934
sg22
S'01/02'
p935
sg24
S'--'
p936
sg26
S'--'
p937
sg28
S'--'
p938
sg30
S'L28-33'
p939
sg32
g10
sg34
g10
sg36
S'SD'
p940
sg38
S'--'
p941
sg40
g10
sg42
S'--'
p942
ssg162
(dp943
g5
S'--'
p944
sg7
S'--'
p945
sg9
g108
sg11
S'--'
p946
sg13
g108
sg14
S'Eddie Royal'
p947
sg16
S'2010'
p948
sg18
S'16'
p949
sg20
S'--'
p950
sg22
S'12/26'
p951
sg24
S'11.0'
p952
sg26
S'--'
p953
sg28
S'--'
p954
sg30
S'W24-23'
p955
sg32
S'22'
p956
sg34
g212
sg36
S'HOU'
p957
sg38
S'13'
p958
sg40
g10
sg42
S'--'
p959
ssg108
(dp960
g5
S'--'
p961
sg7
S'--'
p962
sg9
g10
sg11
S'--'
p963
sg13
g108
sg14
S'Eddie Royal'
p964
sg16
S'2010'
p965
sg18
g108
sg20
S'--'
p966
sg22
S'09/12'
p967
sg24
S'12.3'
p968
sg26
S'--'
p969
sg28
S'--'
p970
sg30
S'L17-24'
p971
sg32
S'98'
p972
sg34
g192
sg36
S'@JAC'
p973
sg38
S'25'
p974
sg40
g10
sg42
S'--'
p975
ssg195
(dp976
g5
S'--'
p977
sg7
S'--'
p978
sg9
g108
sg11
S'--'
p979
sg13
g108
sg14
S'Eddie Royal'
p980
sg16
S'2010'
p981
sg18
g195
sg20
S'--'
p982
sg22
S'09/26'
p983
sg24
S'5.8'
p984
sg26
S'--'
p985
sg28
S'--'
p986
sg30
S'L13-27'
p987
sg32
S'23'
p988
sg34
g248
sg36
S'IND'
p989
sg38
S'18'
p990
sg40
g10
sg42
S'--'
p991
ssg212
(dp992
g5
S'--'
p993
sg7
S'--'
p994
sg9
g10
sg11
S'--'
p995
sg13
g108
sg14
S'Eddie Royal'
p996
sg16
S'2010'
p997
sg18
g212
sg20
S'--'
p998
sg22
S'09/19'
p999
sg24
S'13.0'
p1000
sg26
S'--'
p1001
sg28
S'--'
p1002
sg30
S'W31-14'
p1003
sg32
S'65'
p1004
sg34
g120
sg36
S'SEA'
p1005
sg38
S'34'
p1006
sg40
g108
sg42
S'--'
p1007
ssg120
(dp1008
g5
S'--'
p1009
sg7
S'--'
p1010
sg9
g108
sg11
S'--'
p1011
sg13
g108
sg14
S'Eddie Royal'
p1012
sg16
S'2010'
p1013
sg18
g120
sg20
S'--'
p1014
sg22
S'10/10'
p1015
sg24
S'7.8'
p1016
sg26
S'--'
p1017
sg28
S'--'
p1018
sg30
S'L17-31'
p1019
sg32
S'31'
p1020
sg34
g248
sg36
S'@BAL'
p1021
sg38
S'13'
p1022
sg40
g10
sg42
S'--'
p1023
ssg248
(dp1024
g5
S'--'
p1025
sg7
S'--'
p1026
sg9
g108
sg11
S'--'
p1027
sg13
g108
sg14
S'Eddie Royal'
p1028
sg16
S'2010'
p1029
sg18
g248
sg20
S'--'
p1030
sg22
S'10/03'
p1031
sg24
S'14.1'
p1032
sg26
S'--'
p1033
sg28
S'--'
p1034
sg30
S'W26-20'
p1035
sg32
S'113'
p1036
sg34
g192
sg36
S'@TEN'
p1037
sg38
S'41'
p1038
sg40
g108
sg42
S'--'
p1039
ssg226
(dp1040
g5
S'--'
p1041
sg7
S'--'
p1042
sg9
g108
sg11
g10
sg13
g108
sg14
S'Eddie Royal'
p1043
sg16
S'2010'
p1044
sg18
g226
sg20
S'--'
p1045
sg22
S'10/24'
p1046
sg24
S'13.0'
p1047
sg26
g108
sg28
S'--'
p1048
sg30
S'L14-59'
p1049
sg32
S'26'
p1050
sg34
g212
sg36
S'OAK'
p1051
sg38
S'23'
p1052
sg40
g10
sg42
S'--'
p1053
ssg270
(dp1054
g5
g10
sg7
S'13'
p1055
sg9
g108
sg11
S'--'
p1056
sg13
g108
sg14
S'Eddie Royal'
p1057
sg16
S'2010'
p1058
sg18
g270
sg20
S'13.0'
p1059
sg22
S'10/17'
p1060
sg24
S'12.3'
p1061
sg26
S'--'
p1062
sg28
g108
sg30
S'L20-24'
p1063
sg32
S'37'
p1064
sg34
g195
sg36
S'NYJ'
p1065
sg38
S'24'
p1066
sg40
g10
sg42
S'13'
p1067
ssg210
(dp1068
g5
g266
sg7
g266
sg9
g266
sg11
g266
sg13
g266
sg14
S'Eddie Royal'
p1069
sg16
S'2010'
p1070
sg18
g210
sg20
g266
sg22
S'Bye'
p1071
sg24
g266
sg26
g266
sg28
g266
sg30
g266
sg32
g266
sg34
g266
sg36
g266
sg38
g266
sg40
g266
sg42
g266
ssg192
(dp1072
g5
S'--'
p1073
sg7
S'--'
p1074
sg9
g10
sg11
g10
sg13
g108
sg14
S'Eddie Royal'
p1075
sg16
S'2010'
p1076
sg18
g192
sg20
S'--'
p1077
sg22
S'10/31'
p1078
sg24
S'8.5'
p1079
sg26
g108
sg28
S'--'
p1080
sg30
S'L16-24'
p1081
sg32
S'34'
p1082
sg34
g248
sg36
S'@SF'
p1083
sg38
S'11'
p1084
sg40
g10
sg42
S'--'
p1085
sssS'2013'
p1086
(dp1087
g3
(dp1088
g5
S'--'
p1089
sg7
S'--'
p1090
sg9
g10
sg11
S'--'
p1091
sg13
g108
sg14
S'Eddie Royal'
p1092
sg16
S'2013'
p1093
sg18
S'11'
p1094
sg20
S'--'
p1095
sg22
S'11/17'
p1096
sg24
S'10.0'
p1097
sg26
S'--'
p1098
sg28
S'--'
p1099
sg30
S'L16-20'
p1100
sg32
S'20'
p1101
sg34
g212
sg36
S'@MIA'
p1102
sg38
S'16'
p1103
sg40
g10
sg42
S'--'
p1104
ssg44
(dp1105
g5
S'--'
p1106
sg7
S'--'
p1107
sg9
g108
sg11
S'--'
p1108
sg13
g108
sg14
S'Eddie Royal'
p1109
sg16
S'2013'
p1110
sg18
S'10'
p1111
sg20
S'--'
p1112
sg22
S'11/10'
p1113
sg24
S'18.0'
p1114
sg26
S'--'
p1115
sg28
S'--'
p1116
sg30
S'L20-28'
p1117
sg32
S'36'
p1118
sg34
g212
sg36
S'DEN'
p1119
sg38
S'30'
p1120
sg40
g10
sg42
S'--'
p1121
ssg64
(dp1122
g5
S'--'
p1123
sg7
S'--'
p1124
sg9
g10
sg11
S'--'
p1125
sg13
g10
sg14
S'Eddie Royal'
p1126
sg16
S'2013'
p1127
sg18
S'13'
p1128
sg20
S'--'
p1129
sg22
S'12/01'
p1130
sg24
S'--'
p1131
sg26
S'--'
p1132
sg28
S'--'
p1133
sg30
S'L10-17'
p1134
sg32
S'--'
p1135
sg34
S'--'
p1136
sg36
S'CIN'
p1137
sg38
S'--'
p1138
sg40
S'--'
p1139
sg42
S'--'
p1140
ssg84
(dp1141
g5
S'--'
p1142
sg7
S'--'
p1143
sg9
g10
sg11
S'--'
p1144
sg13
g108
sg14
S'Eddie Royal'
p1145
sg16
S'2013'
p1146
sg18
S'12'
p1147
sg20
S'--'
p1148
sg22
S'11/24'
p1149
sg24
S'21.8'
p1150
sg26
S'--'
p1151
sg28
S'--'
p1152
sg30
S'W41-38'
p1153
sg32
S'87'
p1154
sg34
g248
sg36
S'@KC'
p1155
sg38
S'54'
p1156
sg40
g10
sg42
S'--'
p1157
ssg104
(dp1158
g5
S'--'
p1159
sg7
S'--'
p1160
sg9
g10
sg11
S'--'
p1161
sg13
g108
sg14
S'Eddie Royal'
p1162
sg16
S'2013'
p1163
sg18
S'15'
p1164
sg20
S'--'
p1165
sg22
S'12/12'
p1166
sg24
S'15.3'
p1167
sg26
S'--'
p1168
sg28
S'--'
p1169
sg30
S'W27-20'
p1170
sg32
S'46'
p1171
sg34
g195
sg36
S'@DEN'
p1172
sg38
S'20'
p1173
sg40
g10
sg42
S'--'
p1174
ssg124
(dp1175
g5
S'--'
p1176
sg7
S'--'
p1177
sg9
g10
sg11
S'--'
p1178
sg13
g108
sg14
S'Eddie Royal'
p1179
sg16
S'2013'
p1180
sg18
S'14'
p1181
sg20
S'--'
p1182
sg22
S'12/08'
p1183
sg24
S'4.3'
p1184
sg26
S'--'
p1185
sg28
S'--'
p1186
sg30
S'W37-14'
p1187
sg32
S'13'
p1188
sg34
g195
sg36
S'NYG'
p1189
sg38
g226
sg40
g10
sg42
S'--'
p1190
ssg142
(dp1191
g5
g10
sg7
S'17'
p1192
sg9
g108
sg11
S'--'
p1193
sg13
g108
sg14
S'Eddie Royal'
p1194
sg16
S'2013'
p1195
sg18
S'17'
p1196
sg20
S'8.5'
p1197
sg22
S'12/29'
p1198
sg24
S'11.3'
p1199
sg26
S'--'
p1200
sg28
g212
sg30
S'W27-24'
p1201
sg32
S'34'
p1202
sg34
g195
sg36
S'KC'
p1203
sg38
S'30'
p1204
sg40
g108
sg42
S'15'
p1205
ssg162
(dp1206
g5
S'--'
p1207
sg7
S'--'
p1208
sg9
g10
sg11
S'--'
p1209
sg13
g108
sg14
S'Eddie Royal'
p1210
sg16
S'2013'
p1211
sg18
S'16'
p1212
sg20
S'--'
p1213
sg22
S'12/22'
p1214
sg24
S'13.5'
p1215
sg26
S'--'
p1216
sg28
S'--'
p1217
sg30
S'W26-13'
p1218
sg32
S'54'
p1219
sg34
g248
sg36
S'OAK'
p1220
sg38
S'22'
p1221
sg40
g10
sg42
S'--'
p1222
ssg108
(dp1223
g5
S'--'
p1224
sg7
S'--'
p1225
sg9
g10
sg11
S'--'
p1226
sg13
g108
sg14
S'Eddie Royal'
p1227
sg16
S'2013'
p1228
sg18
g108
sg20
S'--'
p1229
sg22
S'09/09'
p1230
sg24
S'8.0'
p1231
sg26
S'--'
p1232
sg28
S'--'
p1233
sg30
S'L28-31'
p1234
sg32
S'24'
p1235
sg34
g195
sg36
S'HOU'
p1236
sg38
S'17'
p1237
sg40
g212
sg42
S'--'
p1238
ssg195
(dp1239
g5
S'--'
p1240
sg7
S'--'
p1241
sg9
g10
sg11
S'--'
p1242
sg13
g108
sg14
S'Eddie Royal'
p1243
sg16
S'2013'
p1244
sg18
g195
sg20
S'--'
p1245
sg22
S'09/22'
p1246
sg24
S'17.0'
p1247
sg26
S'--'
p1248
sg28
S'--'
p1249
sg30
S'L17-20'
p1250
sg32
S'34'
p1251
sg34
g212
sg36
S'@TEN'
p1252
sg38
S'15'
p1253
sg40
g10
sg42
S'--'
p1254
ssg212
(dp1255
g5
S'--'
p1256
sg7
S'--'
p1257
sg9
g108
sg11
S'--'
p1258
sg13
g108
sg14
S'Eddie Royal'
p1259
sg16
S'2013'
p1260
sg18
g212
sg20
S'--'
p1261
sg22
S'09/15'
p1262
sg24
S'12.9'
p1263
sg26
S'--'
p1264
sg28
S'--'
p1265
sg30
S'W33-30'
p1266
sg32
S'90'
p1267
sg34
g226
sg36
S'@PHI'
p1268
sg38
S'24T'
p1269
sg40
g195
sg42
S'--'
p1270
ssg120
(dp1271
g5
S'--'
p1272
sg7
S'--'
p1273
sg9
g10
sg11
g108
sg13
g108
sg14
S'Eddie Royal'
p1274
sg16
S'2013'
p1275
sg18
g120
sg20
S'--'
p1276
sg22
S'10/06'
p1277
sg24
S'8.7'
p1278
sg26
g108
sg28
S'--'
p1279
sg30
S'L17-27'
p1280
sg32
S'26'
p1281
sg34
g195
sg36
S'@OAK'
p1282
sg38
S'13'
p1283
sg40
g10
sg42
S'--'
p1284
ssg248
(dp1285
g5
S'--'
p1286
sg7
S'--'
p1287
sg9
g10
sg11
S'--'
p1288
sg13
g108
sg14
S'Eddie Royal'
p1289
sg16
S'2013'
p1290
sg18
g248
sg20
S'--'
p1291
sg22
S'09/29'
p1292
sg24
S'14.0'
p1293
sg26
S'--'
p1294
sg28
S'--'
p1295
sg30
S'W30-21'
p1296
sg32
S'42'
p1297
sg34
g195
sg36
S'DAL'
p1298
sg38
S'28'
p1299
sg40
g10
sg42
S'--'
p1300
ssg226
(dp1301
g5
S'--'
p1302
sg7
S'--'
p1303
sg9
g10
sg11
S'--'
p1304
sg13
g108
sg14
S'Eddie Royal'
p1305
sg16
S'2013'
p1306
sg18
g226
sg20
S'--'
p1307
sg22
S'10/20'
p1308
sg24
S'17.3'
p1309
sg26
S'--'
p1310
sg28
S'--'
p1311
sg30
S'W24-6'
p1312
sg32
S'69'
p1313
sg34
g248
sg36
S'@JAC'
p1314
sg38
S'29'
p1315
sg40
g108
sg42
S'--'
p1316
ssg270
(dp1317
g5
g10
sg7
g248
sg9
g10
sg11
S'--'
p1318
sg13
g108
sg14
S'Eddie Royal'
p1319
sg16
S'2013'
p1320
sg18
g270
sg20
S'4.0'
p1321
sg22
S'10/14'
p1322
sg24
S'--'
p1323
sg26
S'--'
p1324
sg28
g108
sg30
S'W19-9'
p1325
sg32
S'--'
p1326
sg34
S'--'
p1327
sg36
S'IND'
p1328
sg38
S'--'
p1329
sg40
S'--'
p1330
sg42
g248
ssg210
(dp1331
g5
S'--'
p1332
sg7
S'--'
p1333
sg9
g10
sg11
S'--'
p1334
sg13
g108
sg14
S'Eddie Royal'
p1335
sg16
S'2013'
p1336
sg18
g210
sg20
S'--'
p1337
sg22
S'11/03'
p1338
sg24
S'14.0'
p1339
sg26
S'--'
p1340
sg28
S'--'
p1341
sg30
S'L24-30'
p1342
sg32
S'56'
p1343
sg34
g248
sg36
S'@WAS'
p1344
sg38
S'21'
p1345
sg40
g108
sg42
S'--'
p1346
ssg192
(dp1347
g5
g266
sg7
g266
sg9
g266
sg11
g266
sg13
g266
sg14
S'Eddie Royal'
p1348
sg16
S'2013'
p1349
sg18
g192
sg20
g266
sg22
S'Bye'
p1350
sg24
g266
sg26
g266
sg28
g266
sg30
g266
sg32
g266
sg34
g266
sg36
g266
sg38
g266
sg40
g266
sg42
g266
sssS'2012'
p1351
(dp1352
g3
(dp1353
g5
S'--'
p1354
sg7
S'--'
p1355
sg9
g10
sg11
S'--'
p1356
sg13
g108
sg14
S'Eddie Royal'
p1357
sg16
S'2012'
p1358
sg18
S'11'
p1359
sg20
S'--'
p1360
sg22
S'11/18'
p1361
sg24
S'--'
p1362
sg26
S'--'
p1363
sg28
S'--'
p1364
sg30
S'L23-30'
p1365
sg32
g10
sg34
g10
sg36
S'@DEN'
p1366
sg38
S'--'
p1367
sg40
g10
sg42
S'--'
p1368
ssg44
(dp1369
g5
S'--'
p1370
sg7
S'--'
p1371
sg9
g10
sg11
S'--'
p1372
sg13
g108
sg14
S'Eddie Royal'
p1373
sg16
S'2012'
p1374
sg18
S'10'
p1375
sg20
S'--'
p1376
sg22
S'11/11'
p1377
sg24
S'12.0'
p1378
sg26
S'--'
p1379
sg28
S'--'
p1380
sg30
S'L24-34'
p1381
sg32
S'36'
p1382
sg34
g195
sg36
S'@TB'
p1383
sg38
S'20'
p1384
sg40
g10
sg42
S'--'
p1385
ssg64
(dp1386
g5
S'--'
p1387
sg7
S'--'
p1388
sg9
g10
sg11
S'--'
p1389
sg13
g10
sg14
S'Eddie Royal'
p1390
sg16
S'2012'
p1391
sg18
S'13'
p1392
sg20
S'--'
p1393
sg22
S'12/02'
p1394
sg24
S'--'
p1395
sg26
S'--'
p1396
sg28
S'--'
p1397
sg30
S'L13-20'
p1398
sg32
S'--'
p1399
sg34
S'--'
p1400
sg36
S'CIN'
p1401
sg38
S'--'
p1402
sg40
S'--'
p1403
sg42
S'--'
p1404
ssg84
(dp1405
g5
S'--'
p1406
sg7
S'--'
p1407
sg9
g10
sg11
S'--'
p1408
sg13
g10
sg14
S'Eddie Royal'
p1409
sg16
S'2012'
p1410
sg18
S'12'
p1411
sg20
S'--'
p1412
sg22
S'11/25'
p1413
sg24
S'--'
p1414
sg26
S'--'
p1415
sg28
S'--'
p1416
sg30
S'L13-16'
p1417
sg32
S'--'
p1418
sg34
S'--'
p1419
sg36
S'BAL'
p1420
sg38
S'--'
p1421
sg40
S'--'
p1422
sg42
S'--'
p1423
ssg104
(dp1424
g5
S'--'
p1425
sg7
S'--'
p1426
sg9
g10
sg11
S'--'
p1427
sg13
g10
sg14
S'Eddie Royal'
p1428
sg16
S'2012'
p1429
sg18
S'15'
p1430
sg20
S'--'
p1431
sg22
S'12/16'
p1432
sg24
S'--'
p1433
sg26
S'--'
p1434
sg28
S'--'
p1435
sg30
S'L7-31'
p1436
sg32
S'--'
p1437
sg34
S'--'
p1438
sg36
S'CAR'
p1439
sg38
S'--'
p1440
sg40
S'--'
p1441
sg42
S'--'
p1442
ssg124
(dp1443
g5
S'--'
p1444
sg7
S'--'
p1445
sg9
g10
sg11
S'--'
p1446
sg13
g10
sg14
S'Eddie Royal'
p1447
sg16
S'2012'
p1448
sg18
S'14'
p1449
sg20
S'--'
p1450
sg22
S'12/09'
p1451
sg24
S'--'
p1452
sg26
S'--'
p1453
sg28
S'--'
p1454
sg30
S'W34-24'
p1455
sg32
S'--'
p1456
sg34
S'--'
p1457
sg36
S'@PIT'
p1458
sg38
S'--'
p1459
sg40
S'--'
p1460
sg42
S'--'
p1461
ssg142
(dp1462
g5
S'--'
p1463
sg7
S'--'
p1464
sg9
g108
sg11
S'--'
p1465
sg13
g108
sg14
S'Eddie Royal'
p1466
sg16
S'2012'
p1467
sg18
S'17'
p1468
sg20
S'--'
p1469
sg22
S'12/30'
p1470
sg24
S'15.3'
p1471
sg26
S'--'
p1472
sg28
S'--'
p1473
sg30
S'W24-21'
p1474
sg32
S'61'
p1475
sg34
g248
sg36
S'OAK'
p1476
sg38
S'31'
p1477
sg40
g10
sg42
S'--'
p1478
ssg162
(dp1479
g5
S'--'
p1480
sg7
S'--'
p1481
sg9
g108
sg11
S'--'
p1482
sg13
g108
sg14
S'Eddie Royal'
p1483
sg16
S'2012'
p1484
sg18
S'16'
p1485
sg20
S'--'
p1486
sg22
S'12/23'
p1487
sg24
S'13.0'
p1488
sg26
S'--'
p1489
sg28
S'--'
p1490
sg30
S'W27-17'
p1491
sg32
S'39'
p1492
sg34
g195
sg36
S'@NYJ'
p1493
sg38
S'14'
p1494
sg40
g10
sg42
S'--'
p1495
ssg108
(dp1496
g5
g10
sg7
S'12'
p1497
sg9
g10
sg11
S'--'
p1498
sg13
g108
sg14
S'Eddie Royal'
p1499
sg16
S'2012'
p1500
sg18
g108
sg20
S'6.0'
p1501
sg22
S'09/10'
p1502
sg24
S'2.0'
p1503
sg26
S'--'
p1504
sg28
g212
sg30
S'W22-14'
p1505
sg32
g248
sg34
g212
sg36
S'@OAK'
p1506
sg38
g226
sg40
g10
sg42
S'11'
p1507
ssg195
(dp1508
g5
g10
sg7
S'10'
p1509
sg9
g10
sg11
S'--'
p1510
sg13
g108
sg14
S'Eddie Royal'
p1511
sg16
S'2012'
p1512
sg18
g195
sg20
S'10.0'
p1513
sg22
S'09/23'
p1514
sg24
S'3.5'
p1515
sg26
S'--'
p1516
sg28
g108
sg30
S'L3-27'
p1517
sg32
g226
sg34
g212
sg36
S'ATL'
p1518
sg38
g248
sg40
g10
sg42
S'10'
p1519
ssg212
(dp1520
g5
S'--'
p1521
sg7
S'--'
p1522
sg9
g10
sg11
S'--'
p1523
sg13
g108
sg14
S'Eddie Royal'
p1524
sg16
S'2012'
p1525
sg18
g212
sg20
S'--'
p1526
sg22
S'09/16'
p1527
sg24
S'9.0'
p1528
sg26
S'--'
p1529
sg28
S'--'
p1530
sg30
S'W38-10'
p1531
sg32
S'18'
p1532
sg34
g212
sg36
S'TEN'
p1533
sg38
S'20'
p1534
sg40
g10
sg42
S'--'
p1535
ssg120
(dp1536
g5
S'--'
p1537
sg7
S'--'
p1538
sg9
g10
sg11
S'--'
p1539
sg13
g108
sg14
S'Eddie Royal'
p1540
sg16
S'2012'
p1541
sg18
g120
sg20
S'--'
p1542
sg22
S'10/07'
p1543
sg24
S'15.5'
p1544
sg26
S'--'
p1545
sg28
S'--'
p1546
sg30
S'L24-31'
p1547
sg32
S'31'
p1548
sg34
g212
sg36
S'@NO'
p1549
sg38
S'20'
p1550
sg40
g10
sg42
S'--'
p1551
ssg248
(dp1552
g5
S'--'
p1553
sg7
S'--'
p1554
sg9
g10
sg11
g10
sg13
g108
sg14
S'Eddie Royal'
p1555
sg16
S'2012'
p1556
sg18
g248
sg20
S'--'
p1557
sg22
S'09/30'
p1558
sg24
S'5.3'
p1559
sg26
g108
sg28
S'--'
p1560
sg30
S'W37-20'
p1561
sg32
S'16'
p1562
sg34
g195
sg36
S'@KC'
p1563
sg38
g192
sg40
g108
sg42
S'--'
p1564
ssg226
(dp1565
g5
g266
sg7
g266
sg9
g266
sg11
g266
sg13
g266
sg14
S'Eddie Royal'
p1566
sg16
S'2012'
p1567
sg18
g226
sg20
g266
sg22
S'Bye'
p1568
sg24
g266
sg26
g266
sg28
g266
sg30
g266
sg32
g266
sg34
g266
sg36
g266
sg38
g266
sg40
g266
sg42
g266
ssg270
(dp1569
g5
S'--'
p1570
sg7
S'--'
p1571
sg9
g10
sg11
S'--'
p1572
sg13
g108
sg14
S'Eddie Royal'
p1573
sg16
S'2012'
p1574
sg18
g270
sg20
S'--'
p1575
sg22
S'10/15'
p1576
sg24
S'11.0'
p1577
sg26
S'--'
p1578
sg28
S'--'
p1579
sg30
S'L24-35'
p1580
sg32
S'22'
p1581
sg34
g212
sg36
S'DEN'
p1582
sg38
S'12'
p1583
sg40
g10
sg42
S'--'
p1584
ssg210
(dp1585
g5
S'--'
p1586
sg7
S'--'
p1587
sg9
g10
sg11
S'--'
p1588
sg13
g10
sg14
S'Eddie Royal'
p1589
sg16
S'2012'
p1590
sg18
g210
sg20
S'--'
p1591
sg22
S'11/01'
p1592
sg24
S'--'
p1593
sg26
S'--'
p1594
sg28
S'--'
p1595
sg30
S'W31-13'
p1596
sg32
S'--'
p1597
sg34
S'--'
p1598
sg36
S'KC'
p1599
sg38
S'--'
p1600
sg40
S'--'
p1601
sg42
S'--'
p1602
ssg192
(dp1603
g5
S'--'
p1604
sg7
S'--'
p1605
sg9
g10
sg11
S'--'
p1606
sg13
g10
sg14
S'Eddie Royal'
p1607
sg16
S'2012'
p1608
sg18
g192
sg20
S'--'
p1609
sg22
S'10/28'
p1610
sg24
S'--'
p1611
sg26
S'--'
p1612
sg28
S'--'
p1613
sg30
S'L6-7'
p1614
sg32
S'--'
p1615
sg34
S'--'
p1616
sg36
S'@CLE'
p1617
sg38
S'--'
p1618
sg40
S'--'
p1619
sg42
S'--'
p1620
sss.