(dp0
S'2015'
p1
(dp2
S'11'
p3
(dp4
S'RushTD'
p5
S'--'
p6
sS'RushYds'
p7
S'--'
p8
sS'GS'
p9
S'0'
p10
sS'Lost'
p11
S'--'
p12
sS'G'
p13
S'1'
p14
sS'Player'
p15
S'Eric Weems'
p16
sS'Year'
p17
S'2015'
p18
sS'WK'
p19
S'11'
p20
sS'RushAvg'
p21
S'--'
p22
sS'Game Date'
p23
S'11/22'
p24
sS'RecAvg'
p25
S'--'
p26
sS'FUM'
p27
S'--'
p28
sS'RushAtt'
p29
S'--'
p30
sS'Result'
p31
S'L21-24'
p32
sS'RecYds'
p33
S'--'
p34
sS'Rec'
p35
S'--'
p36
sS'Opp'
p37
S'IND'
p38
sS'RecLng'
p39
S'--'
p40
sS'RecTD'
p41
S'--'
p42
sS'RushLng'
p43
S'--'
p44
ssS'10'
p45
(dp46
g5
S''
p47
sg7
g47
sg9
g47
sg11
g47
sg13
g47
sg15
S'Eric Weems'
p48
sg17
S'2015'
p49
sg19
S'10'
p50
sg21
g47
sg23
S'Bye'
p51
sg25
g47
sg27
g47
sg29
g47
sg31
g47
sg33
g47
sg35
g47
sg37
g47
sg39
g47
sg41
g47
sg43
g47
ssS'13'
p52
(dp53
g5
S'--'
p54
sg7
S'--'
p55
sg9
g10
sg11
S'--'
p56
sg13
g14
sg15
S'Eric Weems'
p57
sg17
S'2015'
p58
sg19
S'13'
p59
sg21
S'--'
p60
sg23
S'12/06'
p61
sg25
S'--'
p62
sg27
S'--'
p63
sg29
S'--'
p64
sg31
S'L19-23'
p65
sg33
S'--'
p66
sg35
S'--'
p67
sg37
S'@TB'
p68
sg39
S'--'
p69
sg41
S'--'
p70
sg43
S'--'
p71
ssS'12'
p72
(dp73
g5
S'--'
p74
sg7
S'--'
p75
sg9
g10
sg11
S'--'
p76
sg13
g14
sg15
S'Eric Weems'
p77
sg17
S'2015'
p78
sg19
S'12'
p79
sg21
S'--'
p80
sg23
S'11/29'
p81
sg25
S'--'
p82
sg27
S'--'
p83
sg29
S'--'
p84
sg31
S'L10-20'
p85
sg33
S'--'
p86
sg35
S'--'
p87
sg37
S'MIN'
p88
sg39
S'--'
p89
sg41
S'--'
p90
sg43
S'--'
p91
ssS'15'
p92
(dp93
g5
g10
sg7
S'4'
p94
sg9
g10
sg11
S'--'
p95
sg13
g14
sg15
S'Eric Weems'
p96
sg17
S'2015'
p97
sg19
S'15'
p98
sg21
S'4.0'
p99
sg23
S'12/20'
p100
sg25
S'--'
p101
sg27
S'--'
p102
sg29
g14
sg31
S'W23-17'
p103
sg33
S'--'
p104
sg35
S'--'
p105
sg37
S'@JAC'
p106
sg39
S'--'
p107
sg41
S'--'
p108
sg43
g94
ssS'14'
p109
(dp110
g5
S'--'
p111
sg7
S'--'
p112
sg9
g10
sg11
S'--'
p113
sg13
g14
sg15
S'Eric Weems'
p114
sg17
S'2015'
p115
sg19
S'14'
p116
sg21
S'--'
p117
sg23
S'12/13'
p118
sg25
S'--'
p119
sg27
S'--'
p120
sg29
S'--'
p121
sg31
S'L0-38'
p122
sg33
S'--'
p123
sg35
S'--'
p124
sg37
S'@CAR'
p125
sg39
S'--'
p126
sg41
S'--'
p127
sg43
S'--'
p128
ssS'17'
p129
(dp130
g5
S'--'
p131
sg7
S'--'
p132
sg9
g10
sg11
S'--'
p133
sg13
g14
sg15
S'Eric Weems'
p134
sg17
S'2015'
p135
sg19
S'17'
p136
sg21
S'--'
p137
sg23
S'01/03'
p138
sg25
S'--'
p139
sg27
S'--'
p140
sg29
S'--'
p141
sg31
S'L17-20'
p142
sg33
S'--'
p143
sg35
S'--'
p144
sg37
S'NO'
p145
sg39
S'--'
p146
sg41
S'--'
p147
sg43
S'--'
p148
ssS'16'
p149
(dp150
g5
S'--'
p151
sg7
S'--'
p152
sg9
g10
sg11
S'--'
p153
sg13
g14
sg15
S'Eric Weems'
p154
sg17
S'2015'
p155
sg19
S'16'
p156
sg21
S'--'
p157
sg23
S'12/27'
p158
sg25
S'--'
p159
sg27
S'--'
p160
sg29
S'--'
p161
sg31
S'W20-13'
p162
sg33
S'--'
p163
sg35
S'--'
p164
sg37
S'CAR'
p165
sg39
S'--'
p166
sg41
S'--'
p167
sg43
S'--'
p168
ssg14
(dp169
g5
S'--'
p170
sg7
S'--'
p171
sg9
g10
sg11
S'--'
p172
sg13
g14
sg15
S'Eric Weems'
p173
sg17
S'2015'
p174
sg19
g14
sg21
S'--'
p175
sg23
S'09/14'
p176
sg25
S'--'
p177
sg27
S'--'
p178
sg29
S'--'
p179
sg31
S'W26-24'
p180
sg33
S'--'
p181
sg35
S'--'
p182
sg37
S'PHI'
p183
sg39
S'--'
p184
sg41
S'--'
p185
sg43
S'--'
p186
ssS'3'
p187
(dp188
g5
S'--'
p189
sg7
S'--'
p190
sg9
g10
sg11
S'--'
p191
sg13
g14
sg15
S'Eric Weems'
p192
sg17
S'2015'
p193
sg19
g187
sg21
S'--'
p194
sg23
S'09/27'
p195
sg25
S'--'
p196
sg27
S'--'
p197
sg29
S'--'
p198
sg31
S'W39-28'
p199
sg33
S'--'
p200
sg35
S'--'
p201
sg37
S'@DAL'
p202
sg39
S'--'
p203
sg41
S'--'
p204
sg43
S'--'
p205
ssS'2'
p206
(dp207
g5
S'--'
p208
sg7
S'--'
p209
sg9
g10
sg11
S'--'
p210
sg13
g14
sg15
S'Eric Weems'
p211
sg17
S'2015'
p212
sg19
g206
sg21
S'--'
p213
sg23
S'09/20'
p214
sg25
S'--'
p215
sg27
S'--'
p216
sg29
S'--'
p217
sg31
S'W24-20'
p218
sg33
S'--'
p219
sg35
S'--'
p220
sg37
S'@NYG'
p221
sg39
S'--'
p222
sg41
S'--'
p223
sg43
S'--'
p224
ssS'5'
p225
(dp226
g5
S'--'
p227
sg7
S'--'
p228
sg9
g10
sg11
S'--'
p229
sg13
g14
sg15
S'Eric Weems'
p230
sg17
S'2015'
p231
sg19
g225
sg21
S'--'
p232
sg23
S'10/11'
p233
sg25
S'--'
p234
sg27
S'--'
p235
sg29
S'--'
p236
sg31
S'W25-19'
p237
sg33
S'--'
p238
sg35
S'--'
p239
sg37
S'WAS'
p240
sg39
S'--'
p241
sg41
S'--'
p242
sg43
S'--'
p243
ssg94
(dp244
g5
S'--'
p245
sg7
S'--'
p246
sg9
g10
sg11
S'--'
p247
sg13
g14
sg15
S'Eric Weems'
p248
sg17
S'2015'
p249
sg19
g94
sg21
S'--'
p250
sg23
S'10/04'
p251
sg25
S'--'
p252
sg27
S'--'
p253
sg29
S'--'
p254
sg31
S'W48-21'
p255
sg33
S'--'
p256
sg35
S'--'
p257
sg37
S'HOU'
p258
sg39
S'--'
p259
sg41
S'--'
p260
sg43
S'--'
p261
ssS'7'
p262
(dp263
g5
S'--'
p264
sg7
S'--'
p265
sg9
g10
sg11
S'--'
p266
sg13
g14
sg15
S'Eric Weems'
p267
sg17
S'2015'
p268
sg19
g262
sg21
S'--'
p269
sg23
S'10/25'
p270
sg25
S'--'
p271
sg27
S'--'
p272
sg29
S'--'
p273
sg31
S'W10-7'
p274
sg33
S'--'
p275
sg35
S'--'
p276
sg37
S'@TEN'
p277
sg39
S'--'
p278
sg41
S'--'
p279
sg43
S'--'
p280
ssS'6'
p281
(dp282
g5
S'--'
p283
sg7
S'--'
p284
sg9
g10
sg11
S'--'
p285
sg13
g14
sg15
S'Eric Weems'
p286
sg17
S'2015'
p287
sg19
g281
sg21
S'--'
p288
sg23
S'10/15'
p289
sg25
S'--'
p290
sg27
S'--'
p291
sg29
S'--'
p292
sg31
S'L21-31'
p293
sg33
S'--'
p294
sg35
S'--'
p295
sg37
S'@NO'
p296
sg39
S'--'
p297
sg41
S'--'
p298
sg43
S'--'
p299
ssS'9'
p300
(dp301
g5
S'--'
p302
sg7
S'--'
p303
sg9
g10
sg11
S'--'
p304
sg13
g14
sg15
S'Eric Weems'
p305
sg17
S'2015'
p306
sg19
g300
sg21
S'--'
p307
sg23
S'11/08'
p308
sg25
S'--'
p309
sg27
S'--'
p310
sg29
S'--'
p311
sg31
S'L16-17'
p312
sg33
S'--'
p313
sg35
S'--'
p314
sg37
S'@SF'
p315
sg39
S'--'
p316
sg41
S'--'
p317
sg43
S'--'
p318
ssS'8'
p319
(dp320
g5
S'--'
p321
sg7
S'--'
p322
sg9
g10
sg11
S'--'
p323
sg13
g14
sg15
S'Eric Weems'
p324
sg17
S'2015'
p325
sg19
g319
sg21
S'--'
p326
sg23
S'11/01'
p327
sg25
S'11.0'
p328
sg27
S'--'
p329
sg29
S'--'
p330
sg31
S'L20-23'
p331
sg33
S'11'
p332
sg35
g14
sg37
S'TB'
p333
sg39
S'11'
p334
sg41
g10
sg43
S'--'
p335
sssS'2014'
p336
(dp337
g3
(dp338
g5
S'--'
p339
sg7
S'--'
p340
sg9
g10
sg11
S'--'
p341
sg13
g14
sg15
S'Eric Weems'
p342
sg17
S'2014'
p343
sg19
S'11'
p344
sg21
S'--'
p345
sg23
S'11/16'
p346
sg25
S'--'
p347
sg27
S'--'
p348
sg29
S'--'
p349
sg31
S'W19-17'
p350
sg33
S'--'
p351
sg35
S'--'
p352
sg37
S'@CAR'
p353
sg39
S'--'
p354
sg41
S'--'
p355
sg43
S'--'
p356
ssg45
(dp357
g5
S'--'
p358
sg7
S'--'
p359
sg9
g10
sg11
S'--'
p360
sg13
g14
sg15
S'Eric Weems'
p361
sg17
S'2014'
p362
sg19
S'10'
p363
sg21
S'--'
p364
sg23
S'11/09'
p365
sg25
S'--'
p366
sg27
S'--'
p367
sg29
S'--'
p368
sg31
S'W27-17'
p369
sg33
S'--'
p370
sg35
S'--'
p371
sg37
S'@TB'
p372
sg39
S'--'
p373
sg41
S'--'
p374
sg43
S'--'
p375
ssg52
(dp376
g5
S'--'
p377
sg7
S'--'
p378
sg9
g10
sg11
S'--'
p379
sg13
g14
sg15
S'Eric Weems'
p380
sg17
S'2014'
p381
sg19
S'13'
p382
sg21
S'--'
p383
sg23
S'11/30'
p384
sg25
S'4.5'
p385
sg27
S'--'
p386
sg29
S'--'
p387
sg31
S'W29-18'
p388
sg33
g300
sg35
g206
sg37
S'ARI'
p389
sg39
g281
sg41
g10
sg43
S'--'
p390
ssg72
(dp391
g5
S'--'
p392
sg7
S'--'
p393
sg9
g10
sg11
S'--'
p394
sg13
g14
sg15
S'Eric Weems'
p395
sg17
S'2014'
p396
sg19
S'12'
p397
sg21
S'--'
p398
sg23
S'11/23'
p399
sg25
S'--'
p400
sg27
S'--'
p401
sg29
S'--'
p402
sg31
S'L24-26'
p403
sg33
S'--'
p404
sg35
S'--'
p405
sg37
S'CLE'
p406
sg39
S'--'
p407
sg41
S'--'
p408
sg43
S'--'
p409
ssg92
(dp410
g5
S'--'
p411
sg7
S'--'
p412
sg9
g10
sg11
S'--'
p413
sg13
g14
sg15
S'Eric Weems'
p414
sg17
S'2014'
p415
sg19
S'15'
p416
sg21
S'--'
p417
sg23
S'12/14'
p418
sg25
S'--'
p419
sg27
S'--'
p420
sg29
S'--'
p421
sg31
S'L20-27'
p422
sg33
S'--'
p423
sg35
S'--'
p424
sg37
S'PIT'
p425
sg39
S'--'
p426
sg41
S'--'
p427
sg43
S'--'
p428
ssg109
(dp429
g5
S'--'
p430
sg7
S'--'
p431
sg9
g10
sg11
S'--'
p432
sg13
g14
sg15
S'Eric Weems'
p433
sg17
S'2014'
p434
sg19
S'14'
p435
sg21
S'--'
p436
sg23
S'12/08'
p437
sg25
S'5.0'
p438
sg27
S'--'
p439
sg29
S'--'
p440
sg31
S'L37-43'
p441
sg33
g225
sg35
g14
sg37
S'@GB'
p442
sg39
S'5T'
p443
sg41
g14
sg43
S'--'
p444
ssg129
(dp445
g5
S'--'
p446
sg7
S'--'
p447
sg9
g10
sg11
S'--'
p448
sg13
g14
sg15
S'Eric Weems'
p449
sg17
S'2014'
p450
sg19
S'17'
p451
sg21
S'--'
p452
sg23
S'12/28'
p453
sg25
S'--'
p454
sg27
S'--'
p455
sg29
S'--'
p456
sg31
S'L3-34'
p457
sg33
S'--'
p458
sg35
S'--'
p459
sg37
S'CAR'
p460
sg39
S'--'
p461
sg41
S'--'
p462
sg43
S'--'
p463
ssg149
(dp464
g5
S'--'
p465
sg7
S'--'
p466
sg9
g10
sg11
S'--'
p467
sg13
g14
sg15
S'Eric Weems'
p468
sg17
S'2014'
p469
sg19
S'16'
p470
sg21
S'--'
p471
sg23
S'12/21'
p472
sg25
S'3.0'
p473
sg27
S'--'
p474
sg29
S'--'
p475
sg31
S'W30-14'
p476
sg33
g187
sg35
g14
sg37
S'@NO'
p477
sg39
S'3T'
p478
sg41
g14
sg43
S'--'
p479
ssg14
(dp480
g5
S'--'
p481
sg7
S'--'
p482
sg9
g10
sg11
S'--'
p483
sg13
g14
sg15
S'Eric Weems'
p484
sg17
S'2014'
p485
sg19
g14
sg21
S'--'
p486
sg23
S'09/07'
p487
sg25
S'--'
p488
sg27
S'--'
p489
sg29
S'--'
p490
sg31
S'W37-34'
p491
sg33
S'--'
p492
sg35
S'--'
p493
sg37
S'NO'
p494
sg39
S'--'
p495
sg41
S'--'
p496
sg43
S'--'
p497
ssg187
(dp498
g5
S'--'
p499
sg7
S'--'
p500
sg9
g10
sg11
S'--'
p501
sg13
g14
sg15
S'Eric Weems'
p502
sg17
S'2014'
p503
sg19
g187
sg21
S'--'
p504
sg23
S'09/18'
p505
sg25
S'17.3'
p506
sg27
S'--'
p507
sg29
S'--'
p508
sg31
S'W56-14'
p509
sg33
S'69'
p510
sg35
g94
sg37
S'TB'
p511
sg39
S'40'
p512
sg41
g10
sg43
S'--'
p513
ssg206
(dp514
g5
S'--'
p515
sg7
S'--'
p516
sg9
g10
sg11
S'--'
p517
sg13
g14
sg15
S'Eric Weems'
p518
sg17
S'2014'
p519
sg19
g206
sg21
S'--'
p520
sg23
S'09/14'
p521
sg25
S'--'
p522
sg27
S'--'
p523
sg29
S'--'
p524
sg31
S'L10-24'
p525
sg33
S'--'
p526
sg35
S'--'
p527
sg37
S'@CIN'
p528
sg39
S'--'
p529
sg41
S'--'
p530
sg43
S'--'
p531
ssg225
(dp532
g5
S'--'
p533
sg7
S'--'
p534
sg9
g10
sg11
S'--'
p535
sg13
g14
sg15
S'Eric Weems'
p536
sg17
S'2014'
p537
sg19
g225
sg21
S'--'
p538
sg23
S'10/05'
p539
sg25
S'--'
p540
sg27
S'--'
p541
sg29
S'--'
p542
sg31
S'L20-30'
p543
sg33
S'--'
p544
sg35
S'--'
p545
sg37
S'@NYG'
p546
sg39
S'--'
p547
sg41
S'--'
p548
sg43
S'--'
p549
ssg94
(dp550
g5
S'--'
p551
sg7
S'--'
p552
sg9
g10
sg11
S'--'
p553
sg13
g14
sg15
S'Eric Weems'
p554
sg17
S'2014'
p555
sg19
g94
sg21
S'--'
p556
sg23
S'09/28'
p557
sg25
S'--'
p558
sg27
S'--'
p559
sg29
S'--'
p560
sg31
S'L28-41'
p561
sg33
S'--'
p562
sg35
S'--'
p563
sg37
S'@MIN'
p564
sg39
S'--'
p565
sg41
S'--'
p566
sg43
S'--'
p567
ssg262
(dp568
g5
S'--'
p569
sg7
S'--'
p570
sg9
g10
sg11
S'--'
p571
sg13
g14
sg15
S'Eric Weems'
p572
sg17
S'2014'
p573
sg19
g262
sg21
S'--'
p574
sg23
S'10/19'
p575
sg25
S'2.0'
p576
sg27
S'--'
p577
sg29
S'--'
p578
sg31
S'L7-29'
p579
sg33
g206
sg35
g14
sg37
S'@BAL'
p580
sg39
g206
sg41
g10
sg43
S'--'
p581
ssg281
(dp582
g5
S'--'
p583
sg7
S'--'
p584
sg9
g10
sg11
S'--'
p585
sg13
g14
sg15
S'Eric Weems'
p586
sg17
S'2014'
p587
sg19
g281
sg21
S'--'
p588
sg23
S'10/12'
p589
sg25
S'14.0'
p590
sg27
S'--'
p591
sg29
S'--'
p592
sg31
S'L13-27'
p593
sg33
S'14'
p594
sg35
g14
sg37
S'CHI'
p595
sg39
S'14'
p596
sg41
g10
sg43
S'--'
p597
ssg300
(dp598
g5
g47
sg7
g47
sg9
g47
sg11
g47
sg13
g47
sg15
S'Eric Weems'
p599
sg17
S'2014'
p600
sg19
g300
sg21
g47
sg23
S'Bye'
p601
sg25
g47
sg27
g47
sg29
g47
sg31
g47
sg33
g47
sg35
g47
sg37
g47
sg39
g47
sg41
g47
sg43
g47
ssg319
(dp602
g5
S'--'
p603
sg7
S'--'
p604
sg9
g10
sg11
S'--'
p605
sg13
g14
sg15
S'Eric Weems'
p606
sg17
S'2014'
p607
sg19
g319
sg21
S'--'
p608
sg23
S'10/26'
p609
sg25
S'--'
p610
sg27
S'--'
p611
sg29
S'--'
p612
sg31
S'L21-22'
p613
sg33
S'--'
p614
sg35
S'--'
p615
sg37
S'DET'
p616
sg39
S'--'
p617
sg41
S'--'
p618
sg43
S'--'
p619
sssS'2011'
p620
(dp621
g3
(dp622
g5
S'--'
p623
sg7
S'--'
p624
sg9
g14
sg11
S'--'
p625
sg13
g14
sg15
S'Eric Weems'
p626
sg17
S'2011'
p627
sg19
S'11'
p628
sg21
S'--'
p629
sg23
S'11/20'
p630
sg25
S'6.7'
p631
sg27
S'--'
p632
sg29
S'--'
p633
sg31
S'W23-17'
p634
sg33
S'20'
p635
sg35
g187
sg37
S'TEN'
p636
sg39
g319
sg41
g10
sg43
S'--'
p637
ssg45
(dp638
g5
S'--'
p639
sg7
S'--'
p640
sg9
g10
sg11
S'--'
p641
sg13
g14
sg15
S'Eric Weems'
p642
sg17
S'2011'
p643
sg19
S'10'
p644
sg21
S'--'
p645
sg23
S'11/13'
p646
sg25
S'8.3'
p647
sg27
S'--'
p648
sg29
S'--'
p649
sg31
S'L23-26'
p650
sg33
S'25'
p651
sg35
g187
sg37
S'NO'
p652
sg39
S'11'
p653
sg41
g10
sg43
S'--'
p654
ssg52
(dp655
g5
S'--'
p656
sg7
S'--'
p657
sg9
g10
sg11
S'--'
p658
sg13
g14
sg15
S'Eric Weems'
p659
sg17
S'2011'
p660
sg19
S'13'
p661
sg21
S'--'
p662
sg23
S'12/04'
p663
sg25
S'--'
p664
sg27
S'--'
p665
sg29
S'--'
p666
sg31
S'L10-17'
p667
sg33
S'--'
p668
sg35
S'--'
p669
sg37
S'@HOU'
p670
sg39
S'--'
p671
sg41
S'--'
p672
sg43
S'--'
p673
ssg72
(dp674
g5
S'--'
p675
sg7
S'--'
p676
sg9
g10
sg11
S'--'
p677
sg13
g14
sg15
S'Eric Weems'
p678
sg17
S'2011'
p679
sg19
S'12'
p680
sg21
S'--'
p681
sg23
S'11/27'
p682
sg25
S'--'
p683
sg27
S'--'
p684
sg29
S'--'
p685
sg31
S'W24-14'
p686
sg33
S'--'
p687
sg35
S'--'
p688
sg37
S'MIN'
p689
sg39
S'--'
p690
sg41
S'--'
p691
sg43
S'--'
p692
ssg92
(dp693
g5
S'--'
p694
sg7
S'--'
p695
sg9
g10
sg11
S'--'
p696
sg13
g14
sg15
S'Eric Weems'
p697
sg17
S'2011'
p698
sg19
S'15'
p699
sg21
S'--'
p700
sg23
S'12/15'
p701
sg25
S'--'
p702
sg27
S'--'
p703
sg29
S'--'
p704
sg31
S'W41-14'
p705
sg33
S'--'
p706
sg35
S'--'
p707
sg37
S'JAC'
p708
sg39
S'--'
p709
sg41
S'--'
p710
sg43
S'--'
p711
ssg109
(dp712
g5
S'--'
p713
sg7
S'--'
p714
sg9
g10
sg11
S'--'
p715
sg13
g14
sg15
S'Eric Weems'
p716
sg17
S'2011'
p717
sg19
S'14'
p718
sg21
S'--'
p719
sg23
S'12/11'
p720
sg25
S'--'
p721
sg27
S'--'
p722
sg29
S'--'
p723
sg31
S'W31-23'
p724
sg33
S'--'
p725
sg35
S'--'
p726
sg37
S'@CAR'
p727
sg39
S'--'
p728
sg41
S'--'
p729
sg43
S'--'
p730
ssg129
(dp731
g5
S'--'
p732
sg7
S'--'
p733
sg9
g10
sg11
S'--'
p734
sg13
g14
sg15
S'Eric Weems'
p735
sg17
S'2011'
p736
sg19
S'17'
p737
sg21
S'--'
p738
sg23
S'01/01'
p739
sg25
S'8.0'
p740
sg27
S'--'
p741
sg29
S'--'
p742
sg31
S'W45-24'
p743
sg33
g319
sg35
g14
sg37
S'TB'
p744
sg39
g319
sg41
g10
sg43
S'--'
p745
ssg149
(dp746
g5
S'--'
p747
sg7
S'--'
p748
sg9
g14
sg11
S'--'
p749
sg13
g14
sg15
S'Eric Weems'
p750
sg17
S'2011'
p751
sg19
S'16'
p752
sg21
S'--'
p753
sg23
S'12/26'
p754
sg25
S'11.0'
p755
sg27
S'--'
p756
sg29
S'--'
p757
sg31
S'L16-45'
p758
sg33
S'33'
p759
sg35
g187
sg37
S'@NO'
p760
sg39
S'18'
p761
sg41
g10
sg43
S'--'
p762
ssg14
(dp763
g5
S'--'
p764
sg7
S'--'
p765
sg9
g10
sg11
S'--'
p766
sg13
g14
sg15
S'Eric Weems'
p767
sg17
S'2011'
p768
sg19
g14
sg21
S'--'
p769
sg23
S'09/11'
p770
sg25
S'--'
p771
sg27
S'--'
p772
sg29
S'--'
p773
sg31
S'L12-30'
p774
sg33
S'--'
p775
sg35
S'--'
p776
sg37
S'@CHI'
p777
sg39
S'--'
p778
sg41
S'--'
p779
sg43
S'--'
p780
ssg187
(dp781
g5
S'--'
p782
sg7
S'--'
p783
sg9
g10
sg11
S'--'
p784
sg13
g14
sg15
S'Eric Weems'
p785
sg17
S'2011'
p786
sg19
g187
sg21
S'--'
p787
sg23
S'09/25'
p788
sg25
S'--'
p789
sg27
S'--'
p790
sg29
S'--'
p791
sg31
S'L13-16'
p792
sg33
S'--'
p793
sg35
S'--'
p794
sg37
S'@TB'
p795
sg39
S'--'
p796
sg41
S'--'
p797
sg43
S'--'
p798
ssg206
(dp799
g5
S'--'
p800
sg7
S'--'
p801
sg9
g10
sg11
S'--'
p802
sg13
g14
sg15
S'Eric Weems'
p803
sg17
S'2011'
p804
sg19
g206
sg21
S'--'
p805
sg23
S'09/18'
p806
sg25
S'--'
p807
sg27
S'--'
p808
sg29
S'--'
p809
sg31
S'W35-31'
p810
sg33
S'--'
p811
sg35
S'--'
p812
sg37
S'PHI'
p813
sg39
S'--'
p814
sg41
S'--'
p815
sg43
S'--'
p816
ssg225
(dp817
g5
S'--'
p818
sg7
S'--'
p819
sg9
g10
sg11
S'--'
p820
sg13
g14
sg15
S'Eric Weems'
p821
sg17
S'2011'
p822
sg19
g225
sg21
S'--'
p823
sg23
S'10/09'
p824
sg25
S'4.0'
p825
sg27
S'--'
p826
sg29
S'--'
p827
sg31
S'L14-25'
p828
sg33
g94
sg35
g14
sg37
S'GB'
p829
sg39
g94
sg41
g10
sg43
S'--'
p830
ssg94
(dp831
g5
S'--'
p832
sg7
S'--'
p833
sg9
g10
sg11
S'--'
p834
sg13
g14
sg15
S'Eric Weems'
p835
sg17
S'2011'
p836
sg19
g94
sg21
S'--'
p837
sg23
S'10/02'
p838
sg25
S'--'
p839
sg27
S'--'
p840
sg29
S'--'
p841
sg31
S'W30-28'
p842
sg33
S'--'
p843
sg35
S'--'
p844
sg37
S'@SEA'
p845
sg39
S'--'
p846
sg41
S'--'
p847
sg43
S'--'
p848
ssg262
(dp849
g5
S'--'
p850
sg7
S'--'
p851
sg9
g10
sg11
S'--'
p852
sg13
g14
sg15
S'Eric Weems'
p853
sg17
S'2011'
p854
sg19
g262
sg21
S'--'
p855
sg23
S'10/23'
p856
sg25
S'--'
p857
sg27
S'--'
p858
sg29
S'--'
p859
sg31
S'W23-16'
p860
sg33
S'--'
p861
sg35
S'--'
p862
sg37
S'@DET'
p863
sg39
S'--'
p864
sg41
S'--'
p865
sg43
S'--'
p866
ssg281
(dp867
g5
S'--'
p868
sg7
S'--'
p869
sg9
g10
sg11
S'--'
p870
sg13
g14
sg15
S'Eric Weems'
p871
sg17
S'2011'
p872
sg19
g281
sg21
S'--'
p873
sg23
S'10/16'
p874
sg25
S'--'
p875
sg27
S'--'
p876
sg29
S'--'
p877
sg31
S'W31-17'
p878
sg33
S'--'
p879
sg35
S'--'
p880
sg37
S'CAR'
p881
sg39
S'--'
p882
sg41
S'--'
p883
sg43
S'--'
p884
ssg300
(dp885
g5
S'--'
p886
sg7
S'--'
p887
sg9
g10
sg11
S'--'
p888
sg13
g14
sg15
S'Eric Weems'
p889
sg17
S'2011'
p890
sg19
g300
sg21
S'--'
p891
sg23
S'11/06'
p892
sg25
S'--'
p893
sg27
S'--'
p894
sg29
S'--'
p895
sg31
S'W31-7'
p896
sg33
S'--'
p897
sg35
S'--'
p898
sg37
S'@IND'
p899
sg39
S'--'
p900
sg41
S'--'
p901
sg43
S'--'
p902
ssg319
(dp903
g5
g47
sg7
g47
sg9
g47
sg11
g47
sg13
g47
sg15
S'Eric Weems'
p904
sg17
S'2011'
p905
sg19
g319
sg21
g47
sg23
S'Bye'
p906
sg25
g47
sg27
g47
sg29
g47
sg31
g47
sg33
g47
sg35
g47
sg37
g47
sg39
g47
sg41
g47
sg43
g47
sssS'2010'
p907
(dp908
g3
(dp909
g5
S'--'
p910
sg7
S'--'
p911
sg9
g10
sg11
S'--'
p912
sg13
g14
sg15
S'Eric Weems'
p913
sg17
S'2010'
p914
sg19
S'11'
p915
sg21
S'--'
p916
sg23
S'11/21'
p917
sg25
S'18.0'
p918
sg27
S'--'
p919
sg29
S'--'
p920
sg31
S'W34-17'
p921
sg33
S'18'
p922
sg35
g14
sg37
S'@STL'
p923
sg39
S'18'
p924
sg41
g10
sg43
S'--'
p925
ssg45
(dp926
g5
S'--'
p927
sg7
S'--'
p928
sg9
g14
sg11
S'--'
p929
sg13
g14
sg15
S'Eric Weems'
p930
sg17
S'2010'
p931
sg19
S'10'
p932
sg21
S'--'
p933
sg23
S'11/11'
p934
sg25
S'--'
p935
sg27
S'--'
p936
sg29
S'--'
p937
sg31
S'W26-21'
p938
sg33
S'--'
p939
sg35
S'--'
p940
sg37
S'BAL'
p941
sg39
S'--'
p942
sg41
S'--'
p943
sg43
S'--'
p944
ssg52
(dp945
g5
S'--'
p946
sg7
S'--'
p947
sg9
g10
sg11
S'--'
p948
sg13
g14
sg15
S'Eric Weems'
p949
sg17
S'2010'
p950
sg19
S'13'
p951
sg21
S'--'
p952
sg23
S'12/05'
p953
sg25
S'--'
p954
sg27
S'--'
p955
sg29
S'--'
p956
sg31
S'W28-24'
p957
sg33
S'--'
p958
sg35
S'--'
p959
sg37
S'@TB'
p960
sg39
S'--'
p961
sg41
S'--'
p962
sg43
S'--'
p963
ssg72
(dp964
g5
S'--'
p965
sg7
S'--'
p966
sg9
g10
sg11
S'--'
p967
sg13
g14
sg15
S'Eric Weems'
p968
sg17
S'2010'
p969
sg19
S'12'
p970
sg21
S'--'
p971
sg23
S'11/28'
p972
sg25
S'--'
p973
sg27
S'--'
p974
sg29
S'--'
p975
sg31
S'W20-17'
p976
sg33
S'--'
p977
sg35
S'--'
p978
sg37
S'GB'
p979
sg39
S'--'
p980
sg41
S'--'
p981
sg43
S'--'
p982
ssg92
(dp983
g5
S'--'
p984
sg7
S'--'
p985
sg9
g10
sg11
S'--'
p986
sg13
g14
sg15
S'Eric Weems'
p987
sg17
S'2010'
p988
sg19
S'15'
p989
sg21
S'--'
p990
sg23
S'12/19'
p991
sg25
S'--'
p992
sg27
S'--'
p993
sg29
S'--'
p994
sg31
S'W34-18'
p995
sg33
S'--'
p996
sg35
S'--'
p997
sg37
S'@SEA'
p998
sg39
S'--'
p999
sg41
S'--'
p1000
sg43
S'--'
p1001
ssg109
(dp1002
g5
S'--'
p1003
sg7
S'--'
p1004
sg9
g14
sg11
S'--'
p1005
sg13
g14
sg15
S'Eric Weems'
p1006
sg17
S'2010'
p1007
sg19
S'14'
p1008
sg21
S'--'
p1009
sg23
S'12/12'
p1010
sg25
S'7.0'
p1011
sg27
S'--'
p1012
sg29
S'--'
p1013
sg31
S'W31-10'
p1014
sg33
g262
sg35
g14
sg37
S'@CAR'
p1015
sg39
g262
sg41
g10
sg43
S'--'
p1016
ssg129
(dp1017
g5
S'--'
p1018
sg7
S'--'
p1019
sg9
g10
sg11
S'--'
p1020
sg13
g14
sg15
S'Eric Weems'
p1021
sg17
S'2010'
p1022
sg19
S'17'
p1023
sg21
S'--'
p1024
sg23
S'01/02'
p1025
sg25
S'--'
p1026
sg27
S'--'
p1027
sg29
S'--'
p1028
sg31
S'W31-10'
p1029
sg33
S'--'
p1030
sg35
S'--'
p1031
sg37
S'CAR'
p1032
sg39
S'--'
p1033
sg41
S'--'
p1034
sg43
S'--'
p1035
ssg149
(dp1036
g5
S'--'
p1037
sg7
S'--'
p1038
sg9
g10
sg11
S'--'
p1039
sg13
g14
sg15
S'Eric Weems'
p1040
sg17
S'2010'
p1041
sg19
S'16'
p1042
sg21
S'--'
p1043
sg23
S'12/27'
p1044
sg25
S'--'
p1045
sg27
S'--'
p1046
sg29
S'--'
p1047
sg31
S'L14-17'
p1048
sg33
S'--'
p1049
sg35
S'--'
p1050
sg37
S'NO'
p1051
sg39
S'--'
p1052
sg41
S'--'
p1053
sg43
S'--'
p1054
ssg14
(dp1055
g5
S'--'
p1056
sg7
S'--'
p1057
sg9
g10
sg11
S'--'
p1058
sg13
g14
sg15
S'Eric Weems'
p1059
sg17
S'2010'
p1060
sg19
g14
sg21
S'--'
p1061
sg23
S'09/12'
p1062
sg25
S'9.0'
p1063
sg27
S'--'
p1064
sg29
S'--'
p1065
sg31
S'L9-15'
p1066
sg33
S'36'
p1067
sg35
g94
sg37
S'@PIT'
p1068
sg39
S'17'
p1069
sg41
g10
sg43
S'--'
p1070
ssg187
(dp1071
g5
S'--'
p1072
sg7
S'--'
p1073
sg9
g10
sg11
S'--'
p1074
sg13
g14
sg15
S'Eric Weems'
p1075
sg17
S'2010'
p1076
sg19
g187
sg21
S'--'
p1077
sg23
S'09/26'
p1078
sg25
S'--'
p1079
sg27
S'--'
p1080
sg29
S'--'
p1081
sg31
S'W27-24'
p1082
sg33
S'--'
p1083
sg35
S'--'
p1084
sg37
S'@NO'
p1085
sg39
S'--'
p1086
sg41
S'--'
p1087
sg43
S'--'
p1088
ssg206
(dp1089
g5
S'--'
p1090
sg7
S'--'
p1091
sg9
g14
sg11
S'--'
p1092
sg13
g14
sg15
S'Eric Weems'
p1093
sg17
S'2010'
p1094
sg19
g206
sg21
S'--'
p1095
sg23
S'09/19'
p1096
sg25
S'--'
p1097
sg27
S'--'
p1098
sg29
S'--'
p1099
sg31
S'W41-7'
p1100
sg33
S'--'
p1101
sg35
S'--'
p1102
sg37
S'ARI'
p1103
sg39
S'--'
p1104
sg41
S'--'
p1105
sg43
S'--'
p1106
ssg225
(dp1107
g5
S'--'
p1108
sg7
S'--'
p1109
sg9
g14
sg11
S'--'
p1110
sg13
g14
sg15
S'Eric Weems'
p1111
sg17
S'2010'
p1112
sg19
g225
sg21
S'--'
p1113
sg23
S'10/10'
p1114
sg25
S'--'
p1115
sg27
S'--'
p1116
sg29
S'--'
p1117
sg31
S'W20-10'
p1118
sg33
S'--'
p1119
sg35
S'--'
p1120
sg37
S'@CLE'
p1121
sg39
S'--'
p1122
sg41
S'--'
p1123
sg43
S'--'
p1124
ssg94
(dp1125
g5
S'--'
p1126
sg7
S'--'
p1127
sg9
g10
sg11
S'--'
p1128
sg13
g14
sg15
S'Eric Weems'
p1129
sg17
S'2010'
p1130
sg19
g94
sg21
S'--'
p1131
sg23
S'10/03'
p1132
sg25
S'--'
p1133
sg27
S'--'
p1134
sg29
S'--'
p1135
sg31
S'W16-14'
p1136
sg33
S'--'
p1137
sg35
S'--'
p1138
sg37
S'SF'
p1139
sg39
S'--'
p1140
sg41
S'--'
p1141
sg43
S'--'
p1142
ssg262
(dp1143
g5
S'--'
p1144
sg7
S'--'
p1145
sg9
g10
sg11
S'--'
p1146
sg13
g14
sg15
S'Eric Weems'
p1147
sg17
S'2010'
p1148
sg19
g262
sg21
S'--'
p1149
sg23
S'10/24'
p1150
sg25
S'--'
p1151
sg27
S'--'
p1152
sg29
S'--'
p1153
sg31
S'W39-32'
p1154
sg33
S'--'
p1155
sg35
S'--'
p1156
sg37
S'CIN'
p1157
sg39
S'--'
p1158
sg41
S'--'
p1159
sg43
S'--'
p1160
ssg281
(dp1161
g5
S'--'
p1162
sg7
S'--'
p1163
sg9
g10
sg11
S'--'
p1164
sg13
g14
sg15
S'Eric Weems'
p1165
sg17
S'2010'
p1166
sg19
g281
sg21
S'--'
p1167
sg23
S'10/17'
p1168
sg25
S'--'
p1169
sg27
S'--'
p1170
sg29
S'--'
p1171
sg31
S'L17-31'
p1172
sg33
S'--'
p1173
sg35
S'--'
p1174
sg37
S'@PHI'
p1175
sg39
S'--'
p1176
sg41
S'--'
p1177
sg43
S'--'
p1178
ssg300
(dp1179
g5
S'--'
p1180
sg7
S'--'
p1181
sg9
g10
sg11
S'--'
p1182
sg13
g14
sg15
S'Eric Weems'
p1183
sg17
S'2010'
p1184
sg19
g300
sg21
S'--'
p1185
sg23
S'11/07'
p1186
sg25
S'--'
p1187
sg27
S'--'
p1188
sg29
S'--'
p1189
sg31
S'W27-21'
p1190
sg33
S'--'
p1191
sg35
S'--'
p1192
sg37
S'TB'
p1193
sg39
S'--'
p1194
sg41
S'--'
p1195
sg43
S'--'
p1196
ssg319
(dp1197
g5
g47
sg7
g47
sg9
g47
sg11
g47
sg13
g47
sg15
S'Eric Weems'
p1198
sg17
S'2010'
p1199
sg19
g319
sg21
g47
sg23
S'Bye'
p1200
sg25
g47
sg27
g47
sg29
g47
sg31
g47
sg33
g47
sg35
g47
sg37
g47
sg39
g47
sg41
g47
sg43
g47
sssS'2013'
p1201
(dp1202
g3
(dp1203
g5
S'--'
p1204
sg7
S'--'
p1205
sg9
g10
sg11
S'--'
p1206
sg13
g14
sg15
S'Eric Weems'
p1207
sg17
S'2013'
p1208
sg19
S'11'
p1209
sg21
S'--'
p1210
sg23
S'11/17'
p1211
sg25
S'--'
p1212
sg27
S'--'
p1213
sg29
S'--'
p1214
sg31
S'W23-20'
p1215
sg33
S'--'
p1216
sg35
S'--'
p1217
sg37
S'BAL'
p1218
sg39
S'--'
p1219
sg41
S'--'
p1220
sg43
S'--'
p1221
ssg45
(dp1222
g5
S'--'
p1223
sg7
S'--'
p1224
sg9
g10
sg11
S'--'
p1225
sg13
g14
sg15
S'Eric Weems'
p1226
sg17
S'2013'
p1227
sg19
S'10'
p1228
sg21
S'--'
p1229
sg23
S'11/10'
p1230
sg25
S'--'
p1231
sg27
S'--'
p1232
sg29
S'--'
p1233
sg31
S'L19-21'
p1234
sg33
S'--'
p1235
sg35
S'--'
p1236
sg37
S'DET'
p1237
sg39
S'--'
p1238
sg41
S'--'
p1239
sg43
S'--'
p1240
ssg52
(dp1241
g5
S'--'
p1242
sg7
S'--'
p1243
sg9
g10
sg11
S'--'
p1244
sg13
g14
sg15
S'Eric Weems'
p1245
sg17
S'2013'
p1246
sg19
S'13'
p1247
sg21
S'--'
p1248
sg23
S'12/01'
p1249
sg25
S'--'
p1250
sg27
S'--'
p1251
sg29
S'--'
p1252
sg31
S'L20-23'
p1253
sg33
S'--'
p1254
sg35
S'--'
p1255
sg37
S'@MIN'
p1256
sg39
S'--'
p1257
sg41
S'--'
p1258
sg43
S'--'
p1259
ssg72
(dp1260
g5
S'--'
p1261
sg7
S'--'
p1262
sg9
g10
sg11
S'--'
p1263
sg13
g14
sg15
S'Eric Weems'
p1264
sg17
S'2013'
p1265
sg19
S'12'
p1266
sg21
S'--'
p1267
sg23
S'11/24'
p1268
sg25
S'--'
p1269
sg27
S'--'
p1270
sg29
S'--'
p1271
sg31
S'L21-42'
p1272
sg33
S'--'
p1273
sg35
S'--'
p1274
sg37
S'@STL'
p1275
sg39
S'--'
p1276
sg41
S'--'
p1277
sg43
S'--'
p1278
ssg92
(dp1279
g5
S'--'
p1280
sg7
S'--'
p1281
sg9
g10
sg11
S'--'
p1282
sg13
g14
sg15
S'Eric Weems'
p1283
sg17
S'2013'
p1284
sg19
S'15'
p1285
sg21
S'--'
p1286
sg23
S'12/15'
p1287
sg25
S'--'
p1288
sg27
S'--'
p1289
sg29
S'--'
p1290
sg31
S'W38-31'
p1291
sg33
S'--'
p1292
sg35
S'--'
p1293
sg37
S'@CLE'
p1294
sg39
S'--'
p1295
sg41
S'--'
p1296
sg43
S'--'
p1297
ssg109
(dp1298
g5
S'--'
p1299
sg7
S'--'
p1300
sg9
g10
sg11
S'--'
p1301
sg13
g14
sg15
S'Eric Weems'
p1302
sg17
S'2013'
p1303
sg19
S'14'
p1304
sg21
S'--'
p1305
sg23
S'12/09'
p1306
sg25
S'--'
p1307
sg27
S'--'
p1308
sg29
S'--'
p1309
sg31
S'W45-28'
p1310
sg33
S'--'
p1311
sg35
S'--'
p1312
sg37
S'DAL'
p1313
sg39
S'--'
p1314
sg41
S'--'
p1315
sg43
S'--'
p1316
ssg129
(dp1317
g5
S'--'
p1318
sg7
S'--'
p1319
sg9
g10
sg11
S'--'
p1320
sg13
g14
sg15
S'Eric Weems'
p1321
sg17
S'2013'
p1322
sg19
S'17'
p1323
sg21
S'--'
p1324
sg23
S'12/29'
p1325
sg25
S'--'
p1326
sg27
S'--'
p1327
sg29
S'--'
p1328
sg31
S'L28-33'
p1329
sg33
S'--'
p1330
sg35
S'--'
p1331
sg37
S'GB'
p1332
sg39
S'--'
p1333
sg41
S'--'
p1334
sg43
S'--'
p1335
ssg149
(dp1336
g5
S'--'
p1337
sg7
S'--'
p1338
sg9
g10
sg11
S'--'
p1339
sg13
g14
sg15
S'Eric Weems'
p1340
sg17
S'2013'
p1341
sg19
S'16'
p1342
sg21
S'--'
p1343
sg23
S'12/22'
p1344
sg25
S'8.0'
p1345
sg27
S'--'
p1346
sg29
S'--'
p1347
sg31
S'L11-54'
p1348
sg33
g319
sg35
g14
sg37
S'@PHI'
p1349
sg39
g319
sg41
g10
sg43
S'--'
p1350
ssg14
(dp1351
g5
S'--'
p1352
sg7
S'--'
p1353
sg9
g10
sg11
S'--'
p1354
sg13
g14
sg15
S'Eric Weems'
p1355
sg17
S'2013'
p1356
sg19
g14
sg21
S'--'
p1357
sg23
S'09/08'
p1358
sg25
S'--'
p1359
sg27
S'--'
p1360
sg29
S'--'
p1361
sg31
S'W24-21'
p1362
sg33
S'--'
p1363
sg35
S'--'
p1364
sg37
S'CIN'
p1365
sg39
S'--'
p1366
sg41
S'--'
p1367
sg43
S'--'
p1368
ssg187
(dp1369
g5
S'--'
p1370
sg7
S'--'
p1371
sg9
g10
sg11
S'--'
p1372
sg13
g14
sg15
S'Eric Weems'
p1373
sg17
S'2013'
p1374
sg19
g187
sg21
S'--'
p1375
sg23
S'09/22'
p1376
sg25
S'--'
p1377
sg27
S'--'
p1378
sg29
S'--'
p1379
sg31
S'W40-23'
p1380
sg33
S'--'
p1381
sg35
S'--'
p1382
sg37
S'@PIT'
p1383
sg39
S'--'
p1384
sg41
S'--'
p1385
sg43
S'--'
p1386
ssg206
(dp1387
g5
S'--'
p1388
sg7
S'--'
p1389
sg9
g10
sg11
S'--'
p1390
sg13
g14
sg15
S'Eric Weems'
p1391
sg17
S'2013'
p1392
sg19
g206
sg21
S'--'
p1393
sg23
S'09/15'
p1394
sg25
S'--'
p1395
sg27
S'--'
p1396
sg29
S'--'
p1397
sg31
S'W31-30'
p1398
sg33
S'--'
p1399
sg35
S'--'
p1400
sg37
S'MIN'
p1401
sg39
S'--'
p1402
sg41
S'--'
p1403
sg43
S'--'
p1404
ssg225
(dp1405
g5
S'--'
p1406
sg7
S'--'
p1407
sg9
g10
sg11
S'--'
p1408
sg13
g14
sg15
S'Eric Weems'
p1409
sg17
S'2013'
p1410
sg19
g225
sg21
S'--'
p1411
sg23
S'10/06'
p1412
sg25
S'--'
p1413
sg27
S'--'
p1414
sg29
S'--'
p1415
sg31
S'L18-26'
p1416
sg33
S'--'
p1417
sg35
S'--'
p1418
sg37
S'NO'
p1419
sg39
S'--'
p1420
sg41
S'--'
p1421
sg43
S'--'
p1422
ssg94
(dp1423
g5
S'--'
p1424
sg7
S'--'
p1425
sg9
g10
sg11
S'--'
p1426
sg13
g14
sg15
S'Eric Weems'
p1427
sg17
S'2013'
p1428
sg19
g94
sg21
S'--'
p1429
sg23
S'09/29'
p1430
sg25
S'--'
p1431
sg27
S'--'
p1432
sg29
S'--'
p1433
sg31
S'L32-40'
p1434
sg33
S'--'
p1435
sg35
S'--'
p1436
sg37
S'@DET'
p1437
sg39
S'--'
p1438
sg41
S'--'
p1439
sg43
S'--'
p1440
ssg262
(dp1441
g5
S'--'
p1442
sg7
S'--'
p1443
sg9
g10
sg11
S'--'
p1444
sg13
g14
sg15
S'Eric Weems'
p1445
sg17
S'2013'
p1446
sg19
g262
sg21
S'--'
p1447
sg23
S'10/20'
p1448
sg25
S'--'
p1449
sg27
S'--'
p1450
sg29
S'--'
p1451
sg31
S'L41-45'
p1452
sg33
S'--'
p1453
sg35
S'--'
p1454
sg37
S'@WAS'
p1455
sg39
S'--'
p1456
sg41
S'--'
p1457
sg43
S'--'
p1458
ssg281
(dp1459
g5
S'--'
p1460
sg7
S'--'
p1461
sg9
g10
sg11
S'--'
p1462
sg13
g14
sg15
S'Eric Weems'
p1463
sg17
S'2013'
p1464
sg19
g281
sg21
S'--'
p1465
sg23
S'10/10'
p1466
sg25
S'--'
p1467
sg27
S'--'
p1468
sg29
S'--'
p1469
sg31
S'W27-21'
p1470
sg33
S'--'
p1471
sg35
S'--'
p1472
sg37
S'NYG'
p1473
sg39
S'--'
p1474
sg41
S'--'
p1475
sg43
S'--'
p1476
ssg300
(dp1477
g5
S'--'
p1478
sg7
S'--'
p1479
sg9
g10
sg11
S'--'
p1480
sg13
g14
sg15
S'Eric Weems'
p1481
sg17
S'2013'
p1482
sg19
g300
sg21
S'--'
p1483
sg23
S'11/04'
p1484
sg25
S'--'
p1485
sg27
S'--'
p1486
sg29
S'--'
p1487
sg31
S'W27-20'
p1488
sg33
S'--'
p1489
sg35
S'--'
p1490
sg37
S'@GB'
p1491
sg39
S'--'
p1492
sg41
S'--'
p1493
sg43
S'--'
p1494
ssg319
(dp1495
g5
g47
sg7
g47
sg9
g47
sg11
g47
sg13
g47
sg15
S'Eric Weems'
p1496
sg17
S'2013'
p1497
sg19
g319
sg21
g47
sg23
S'Bye'
p1498
sg25
g47
sg27
g47
sg29
g47
sg31
g47
sg33
g47
sg35
g47
sg37
g47
sg39
g47
sg41
g47
sg43
g47
sssS'2012'
p1499
(dp1500
g3
(dp1501
g5
S'--'
p1502
sg7
S'--'
p1503
sg9
g10
sg11
S'--'
p1504
sg13
g14
sg15
S'Eric Weems'
p1505
sg17
S'2012'
p1506
sg19
S'11'
p1507
sg21
S'--'
p1508
sg23
S'11/19'
p1509
sg25
S'--'
p1510
sg27
S'--'
p1511
sg29
S'--'
p1512
sg31
S'L7-32'
p1513
sg33
S'--'
p1514
sg35
S'--'
p1515
sg37
S'@SF'
p1516
sg39
S'--'
p1517
sg41
S'--'
p1518
sg43
S'--'
p1519
ssg45
(dp1520
g5
S'--'
p1521
sg7
S'--'
p1522
sg9
g10
sg11
S'--'
p1523
sg13
g14
sg15
S'Eric Weems'
p1524
sg17
S'2012'
p1525
sg19
S'10'
p1526
sg21
S'--'
p1527
sg23
S'11/11'
p1528
sg25
S'--'
p1529
sg27
S'--'
p1530
sg29
S'--'
p1531
sg31
S'L6-13'
p1532
sg33
S'--'
p1533
sg35
S'--'
p1534
sg37
S'HOU'
p1535
sg39
S'--'
p1536
sg41
S'--'
p1537
sg43
S'--'
p1538
ssg52
(dp1539
g5
S'--'
p1540
sg7
S'--'
p1541
sg9
g10
sg11
g10
sg13
g14
sg15
S'Eric Weems'
p1542
sg17
S'2012'
p1543
sg19
S'13'
p1544
sg21
S'--'
p1545
sg23
S'12/02'
p1546
sg25
S'18.0'
p1547
sg27
g14
sg29
S'--'
p1548
sg31
S'L17-23'
p1549
sg33
S'18'
p1550
sg35
g14
sg37
S'SEA'
p1551
sg39
S'18'
p1552
sg41
g10
sg43
S'--'
p1553
ssg72
(dp1554
g5
S'--'
p1555
sg7
S'--'
p1556
sg9
g10
sg11
S'--'
p1557
sg13
g14
sg15
S'Eric Weems'
p1558
sg17
S'2012'
p1559
sg19
S'12'
p1560
sg21
S'--'
p1561
sg23
S'11/25'
p1562
sg25
S'9.0'
p1563
sg27
S'--'
p1564
sg29
S'--'
p1565
sg31
S'W28-10'
p1566
sg33
g300
sg35
g14
sg37
S'MIN'
p1567
sg39
g300
sg41
g10
sg43
S'--'
p1568
ssg92
(dp1569
g5
S'--'
p1570
sg7
S'--'
p1571
sg9
g10
sg11
S'--'
p1572
sg13
g14
sg15
S'Eric Weems'
p1573
sg17
S'2012'
p1574
sg19
S'15'
p1575
sg21
S'--'
p1576
sg23
S'12/16'
p1577
sg25
S'--'
p1578
sg27
S'--'
p1579
sg29
S'--'
p1580
sg31
S'L13-21'
p1581
sg33
S'--'
p1582
sg35
S'--'
p1583
sg37
S'GB'
p1584
sg39
S'--'
p1585
sg41
S'--'
p1586
sg43
S'--'
p1587
ssg109
(dp1588
g5
S'--'
p1589
sg7
S'--'
p1590
sg9
g14
sg11
S'--'
p1591
sg13
g14
sg15
S'Eric Weems'
p1592
sg17
S'2012'
p1593
sg19
S'14'
p1594
sg21
S'--'
p1595
sg23
S'12/09'
p1596
sg25
S'--'
p1597
sg27
S'--'
p1598
sg29
S'--'
p1599
sg31
S'L14-21'
p1600
sg33
S'--'
p1601
sg35
S'--'
p1602
sg37
S'@MIN'
p1603
sg39
S'--'
p1604
sg41
S'--'
p1605
sg43
S'--'
p1606
ssg129
(dp1607
g5
S'--'
p1608
sg7
S'--'
p1609
sg9
g10
sg11
S'--'
p1610
sg13
g14
sg15
S'Eric Weems'
p1611
sg17
S'2012'
p1612
sg19
S'17'
p1613
sg21
S'--'
p1614
sg23
S'12/30'
p1615
sg25
S'--'
p1616
sg27
S'--'
p1617
sg29
S'--'
p1618
sg31
S'W26-24'
p1619
sg33
S'--'
p1620
sg35
S'--'
p1621
sg37
S'@DET'
p1622
sg39
S'--'
p1623
sg41
S'--'
p1624
sg43
S'--'
p1625
ssg149
(dp1626
g5
S'--'
p1627
sg7
S'--'
p1628
sg9
g10
sg11
S'--'
p1629
sg13
g14
sg15
S'Eric Weems'
p1630
sg17
S'2012'
p1631
sg19
S'16'
p1632
sg21
S'--'
p1633
sg23
S'12/23'
p1634
sg25
S'--'
p1635
sg27
S'--'
p1636
sg29
S'--'
p1637
sg31
S'W28-13'
p1638
sg33
S'--'
p1639
sg35
S'--'
p1640
sg37
S'@ARI'
p1641
sg39
S'--'
p1642
sg41
S'--'
p1643
sg43
S'--'
p1644
ssg14
(dp1645
g5
S'--'
p1646
sg7
S'--'
p1647
sg9
g10
sg11
S'--'
p1648
sg13
g14
sg15
S'Eric Weems'
p1649
sg17
S'2012'
p1650
sg19
g14
sg21
S'--'
p1651
sg23
S'09/09'
p1652
sg25
S'--'
p1653
sg27
S'--'
p1654
sg29
S'--'
p1655
sg31
S'W41-21'
p1656
sg33
S'--'
p1657
sg35
S'--'
p1658
sg37
S'IND'
p1659
sg39
S'--'
p1660
sg41
S'--'
p1661
sg43
S'--'
p1662
ssg187
(dp1663
g5
S'--'
p1664
sg7
S'--'
p1665
sg9
g10
sg11
S'--'
p1666
sg13
g14
sg15
S'Eric Weems'
p1667
sg17
S'2012'
p1668
sg19
g187
sg21
S'--'
p1669
sg23
S'09/23'
p1670
sg25
S'--'
p1671
sg27
S'--'
p1672
sg29
S'--'
p1673
sg31
S'W23-6'
p1674
sg33
S'--'
p1675
sg35
S'--'
p1676
sg37
S'STL'
p1677
sg39
S'--'
p1678
sg41
S'--'
p1679
sg43
S'--'
p1680
ssg206
(dp1681
g5
S'--'
p1682
sg7
S'--'
p1683
sg9
g10
sg11
S'--'
p1684
sg13
g14
sg15
S'Eric Weems'
p1685
sg17
S'2012'
p1686
sg19
g206
sg21
S'--'
p1687
sg23
S'09/13'
p1688
sg25
S'--'
p1689
sg27
S'--'
p1690
sg29
S'--'
p1691
sg31
S'L10-23'
p1692
sg33
S'--'
p1693
sg35
S'--'
p1694
sg37
S'@GB'
p1695
sg39
S'--'
p1696
sg41
S'--'
p1697
sg43
S'--'
p1698
ssg225
(dp1699
g5
S'--'
p1700
sg7
S'--'
p1701
sg9
g10
sg11
S'--'
p1702
sg13
g14
sg15
S'Eric Weems'
p1703
sg17
S'2012'
p1704
sg19
g225
sg21
S'--'
p1705
sg23
S'10/07'
p1706
sg25
S'--'
p1707
sg27
S'--'
p1708
sg29
S'--'
p1709
sg31
S'W41-3'
p1710
sg33
S'--'
p1711
sg35
S'--'
p1712
sg37
S'@JAC'
p1713
sg39
S'--'
p1714
sg41
S'--'
p1715
sg43
S'--'
p1716
ssg94
(dp1717
g5
S'--'
p1718
sg7
S'--'
p1719
sg9
g10
sg11
S'--'
p1720
sg13
g14
sg15
S'Eric Weems'
p1721
sg17
S'2012'
p1722
sg19
g94
sg21
S'--'
p1723
sg23
S'10/01'
p1724
sg25
S'--'
p1725
sg27
S'--'
p1726
sg29
S'--'
p1727
sg31
S'W34-18'
p1728
sg33
S'--'
p1729
sg35
S'--'
p1730
sg37
S'@DAL'
p1731
sg39
S'--'
p1732
sg41
S'--'
p1733
sg43
S'--'
p1734
ssg262
(dp1735
g5
S'--'
p1736
sg7
S'--'
p1737
sg9
g10
sg11
S'--'
p1738
sg13
g14
sg15
S'Eric Weems'
p1739
sg17
S'2012'
p1740
sg19
g262
sg21
S'--'
p1741
sg23
S'10/22'
p1742
sg25
S'--'
p1743
sg27
S'--'
p1744
sg29
S'--'
p1745
sg31
S'W13-7'
p1746
sg33
S'--'
p1747
sg35
S'--'
p1748
sg37
S'DET'
p1749
sg39
S'--'
p1750
sg41
S'--'
p1751
sg43
S'--'
p1752
ssg281
(dp1753
g5
g47
sg7
g47
sg9
g47
sg11
g47
sg13
g47
sg15
S'Eric Weems'
p1754
sg17
S'2012'
p1755
sg19
g281
sg21
g47
sg23
S'Bye'
p1756
sg25
g47
sg27
g47
sg29
g47
sg31
g47
sg33
g47
sg35
g47
sg37
g47
sg39
g47
sg41
g47
sg43
g47
ssg300
(dp1757
g5
S'--'
p1758
sg7
S'--'
p1759
sg9
g10
sg11
S'--'
p1760
sg13
g14
sg15
S'Eric Weems'
p1761
sg17
S'2012'
p1762
sg19
g300
sg21
S'--'
p1763
sg23
S'11/04'
p1764
sg25
S'--'
p1765
sg27
S'--'
p1766
sg29
S'--'
p1767
sg31
S'W51-20'
p1768
sg33
g10
sg35
g10
sg37
S'@TEN'
p1769
sg39
S'--'
p1770
sg41
g10
sg43
S'--'
p1771
ssg319
(dp1772
g5
S'--'
p1773
sg7
S'--'
p1774
sg9
g10
sg11
S'--'
p1775
sg13
g14
sg15
S'Eric Weems'
p1776
sg17
S'2012'
p1777
sg19
g319
sg21
S'--'
p1778
sg23
S'10/28'
p1779
sg25
S'--'
p1780
sg27
S'--'
p1781
sg29
S'--'
p1782
sg31
S'W23-22'
p1783
sg33
S'--'
p1784
sg35
S'--'
p1785
sg37
S'CAR'
p1786
sg39
S'--'
p1787
sg41
S'--'
p1788
sg43
S'--'
p1789
sss.