(dp0
S'2015'
p1
(dp2
S'17'
p3
(dp4
S'RushTD'
p5
S'--'
p6
sS'RushYds'
p7
S'--'
p8
sS'GS'
p9
S'0'
p10
sS'Lost'
p11
S'--'
p12
sS'G'
p13
S'1'
p14
sS'Player'
p15
S'Evan Spencer'
p16
sS'Year'
p17
S'2015'
p18
sS'WK'
p19
S'17'
p20
sS'RushAvg'
p21
S'--'
p22
sS'Game Date'
p23
S'01/03'
p24
sS'RecAvg'
p25
S'--'
p26
sS'FUM'
p27
S'--'
p28
sS'RushAtt'
p29
S'--'
p30
sS'Result'
p31
S'L10-38'
p32
sS'RecYds'
p33
S'--'
p34
sS'Rec'
p35
S'--'
p36
sS'Opp'
p37
S'@CAR'
p38
sS'RecLng'
p39
S'--'
p40
sS'RecTD'
p41
S'--'
p42
sS'RushLng'
p43
S'--'
p44
ssS'16'
p45
(dp46
g5
S'--'
p47
sg7
S'--'
p48
sg9
g10
sg11
S'--'
p49
sg13
g10
sg15
S'Evan Spencer'
p50
sg17
S'2015'
p51
sg19
S'16'
p52
sg21
S'--'
p53
sg23
S'12/27'
p54
sg25
S'--'
p55
sg27
S'--'
p56
sg29
S'--'
p57
sg31
S'L21-26'
p58
sg33
S'--'
p59
sg35
S'--'
p60
sg37
S'CHI'
p61
sg39
S'--'
p62
sg41
S'--'
p63
sg43
S'--'
p64
sss.