(dp0
S'2015'
p1
(dp2
S'11'
p3
(dp4
S'RushTD'
p5
S''
p6
sS'RushYds'
p7
g6
sS'GS'
p8
g6
sS'Lost'
p9
g6
sS'G'
p10
g6
sS'Player'
p11
S'Geremy Davis'
p12
sS'Year'
p13
S'2015'
p14
sS'WK'
p15
S'11'
p16
sS'RushAvg'
p17
g6
sS'Game Date'
p18
S'Bye'
p19
sS'RecAvg'
p20
g6
sS'FUM'
p21
g6
sS'RushAtt'
p22
g6
sS'Result'
p23
g6
sS'RecYds'
p24
g6
sS'Rec'
p25
g6
sS'Opp'
p26
g6
sS'RecLng'
p27
g6
sS'RecTD'
p28
g6
sS'RushLng'
p29
g6
ssS'10'
p30
(dp31
g5
S'--'
p32
sg7
S'--'
p33
sg8
S'0'
p34
sg9
S'--'
p35
sg10
S'1'
p36
sg11
S'Geremy Davis'
p37
sg13
S'2015'
p38
sg15
S'10'
p39
sg17
S'--'
p40
sg18
S'11/15'
p41
sg20
S'--'
p42
sg21
S'--'
p43
sg22
S'--'
p44
sg23
S'L26-27'
p45
sg24
S'--'
p46
sg25
S'--'
p47
sg26
S'NE'
p48
sg27
S'--'
p49
sg28
S'--'
p50
sg29
S'--'
p51
ssS'13'
p52
(dp53
g5
S'--'
p54
sg7
S'--'
p55
sg8
g34
sg9
S'--'
p56
sg10
g34
sg11
S'Geremy Davis'
p57
sg13
S'2015'
p58
sg15
S'13'
p59
sg17
S'--'
p60
sg18
S'12/06'
p61
sg20
S'--'
p62
sg21
S'--'
p63
sg22
S'--'
p64
sg23
S'L20-23'
p65
sg24
S'--'
p66
sg25
S'--'
p67
sg26
S'NYJ'
p68
sg27
S'--'
p69
sg28
S'--'
p70
sg29
S'--'
p71
ssS'12'
p72
(dp73
g5
S'--'
p74
sg7
S'--'
p75
sg8
g34
sg9
S'--'
p76
sg10
g34
sg11
S'Geremy Davis'
p77
sg13
S'2015'
p78
sg15
S'12'
p79
sg17
S'--'
p80
sg18
S'11/29'
p81
sg20
S'--'
p82
sg21
S'--'
p83
sg22
S'--'
p84
sg23
S'L14-20'
p85
sg24
S'--'
p86
sg25
S'--'
p87
sg26
S'@WAS'
p88
sg27
S'--'
p89
sg28
S'--'
p90
sg29
S'--'
p91
ssS'15'
p92
(dp93
g5
S'--'
p94
sg7
S'--'
p95
sg8
g34
sg9
S'--'
p96
sg10
g34
sg11
S'Geremy Davis'
p97
sg13
S'2015'
p98
sg15
S'15'
p99
sg17
S'--'
p100
sg18
S'12/20'
p101
sg20
S'--'
p102
sg21
S'--'
p103
sg22
S'--'
p104
sg23
S'L35-38'
p105
sg24
S'--'
p106
sg25
S'--'
p107
sg26
S'CAR'
p108
sg27
S'--'
p109
sg28
S'--'
p110
sg29
S'--'
p111
ssS'14'
p112
(dp113
g5
S'--'
p114
sg7
S'--'
p115
sg8
g34
sg9
S'--'
p116
sg10
g34
sg11
S'Geremy Davis'
p117
sg13
S'2015'
p118
sg15
S'14'
p119
sg17
S'--'
p120
sg18
S'12/14'
p121
sg20
S'--'
p122
sg21
S'--'
p123
sg22
S'--'
p124
sg23
S'W31-24'
p125
sg24
S'--'
p126
sg25
S'--'
p127
sg26
S'@MIA'
p128
sg27
S'--'
p129
sg28
S'--'
p130
sg29
S'--'
p131
ssS'17'
p132
(dp133
g5
S'--'
p134
sg7
S'--'
p135
sg8
g34
sg9
S'--'
p136
sg10
g34
sg11
S'Geremy Davis'
p137
sg13
S'2015'
p138
sg15
S'17'
p139
sg17
S'--'
p140
sg18
S'01/03'
p141
sg20
S'--'
p142
sg21
S'--'
p143
sg22
S'--'
p144
sg23
S'L30-35'
p145
sg24
S'--'
p146
sg25
S'--'
p147
sg26
S'PHI'
p148
sg27
S'--'
p149
sg28
S'--'
p150
sg29
S'--'
p151
ssS'16'
p152
(dp153
g5
S'--'
p154
sg7
S'--'
p155
sg8
g34
sg9
S'--'
p156
sg10
g34
sg11
S'Geremy Davis'
p157
sg13
S'2015'
p158
sg15
S'16'
p159
sg17
S'--'
p160
sg18
S'12/27'
p161
sg20
S'--'
p162
sg21
S'--'
p163
sg22
S'--'
p164
sg23
S'L17-49'
p165
sg24
S'--'
p166
sg25
S'--'
p167
sg26
S'@MIN'
p168
sg27
S'--'
p169
sg28
S'--'
p170
sg29
S'--'
p171
ssg36
(dp172
g5
S'--'
p173
sg7
S'--'
p174
sg8
g34
sg9
S'--'
p175
sg10
g36
sg11
S'Geremy Davis'
p176
sg13
S'2015'
p177
sg15
g36
sg17
S'--'
p178
sg18
S'09/13'
p179
sg20
S'--'
p180
sg21
S'--'
p181
sg22
S'--'
p182
sg23
S'L26-27'
p183
sg24
S'--'
p184
sg25
S'--'
p185
sg26
S'@DAL'
p186
sg27
S'--'
p187
sg28
S'--'
p188
sg29
S'--'
p189
ssS'3'
p190
(dp191
g5
S'--'
p192
sg7
S'--'
p193
sg8
g34
sg9
S'--'
p194
sg10
g36
sg11
S'Geremy Davis'
p195
sg13
S'2015'
p196
sg15
g190
sg17
S'--'
p197
sg18
S'09/24'
p198
sg20
S'--'
p199
sg21
S'--'
p200
sg22
S'--'
p201
sg23
S'W32-21'
p202
sg24
S'--'
p203
sg25
S'--'
p204
sg26
S'WAS'
p205
sg27
S'--'
p206
sg28
S'--'
p207
sg29
S'--'
p208
ssS'2'
p209
(dp210
g5
S'--'
p211
sg7
S'--'
p212
sg8
g34
sg9
S'--'
p213
sg10
g36
sg11
S'Geremy Davis'
p214
sg13
S'2015'
p215
sg15
g209
sg17
S'--'
p216
sg18
S'09/20'
p217
sg20
S'5.0'
p218
sg21
S'--'
p219
sg22
S'--'
p220
sg23
S'L20-24'
p221
sg24
S'5'
p222
sg25
g36
sg26
S'ATL'
p223
sg27
g222
sg28
g34
sg29
S'--'
p224
ssg222
(dp225
g5
S'--'
p226
sg7
S'--'
p227
sg8
g34
sg9
S'--'
p228
sg10
g36
sg11
S'Geremy Davis'
p229
sg13
S'2015'
p230
sg15
g222
sg17
S'--'
p231
sg18
S'10/11'
p232
sg20
S'16.0'
p233
sg21
S'--'
p234
sg22
S'--'
p235
sg23
S'W30-27'
p236
sg24
S'16'
p237
sg25
g36
sg26
S'SF'
p238
sg27
S'16'
p239
sg28
g34
sg29
S'--'
p240
ssS'4'
p241
(dp242
g5
S'--'
p243
sg7
S'--'
p244
sg8
g34
sg9
S'--'
p245
sg10
g36
sg11
S'Geremy Davis'
p246
sg13
S'2015'
p247
sg15
g241
sg17
S'--'
p248
sg18
S'10/04'
p249
sg20
S'--'
p250
sg21
S'--'
p251
sg22
S'--'
p252
sg23
S'W24-10'
p253
sg24
S'--'
p254
sg25
S'--'
p255
sg26
S'@BUF'
p256
sg27
S'--'
p257
sg28
S'--'
p258
sg29
S'--'
p259
ssS'7'
p260
(dp261
g5
S'--'
p262
sg7
S'--'
p263
sg8
g34
sg9
S'--'
p264
sg10
g36
sg11
S'Geremy Davis'
p265
sg13
S'2015'
p266
sg15
g260
sg17
S'--'
p267
sg18
S'10/25'
p268
sg20
S'--'
p269
sg21
S'--'
p270
sg22
S'--'
p271
sg23
S'W27-20'
p272
sg24
S'--'
p273
sg25
S'--'
p274
sg26
S'DAL'
p275
sg27
S'--'
p276
sg28
S'--'
p277
sg29
S'--'
p278
ssS'6'
p279
(dp280
g5
S'--'
p281
sg7
S'--'
p282
sg8
g34
sg9
S'--'
p283
sg10
g36
sg11
S'Geremy Davis'
p284
sg13
S'2015'
p285
sg15
g279
sg17
S'--'
p286
sg18
S'10/19'
p287
sg20
S'--'
p288
sg21
S'--'
p289
sg22
S'--'
p290
sg23
S'L7-27'
p291
sg24
g34
sg25
g34
sg26
S'@PHI'
p292
sg27
S'--'
p293
sg28
g34
sg29
S'--'
p294
ssS'9'
p295
(dp296
g5
S'--'
p297
sg7
S'--'
p298
sg8
g34
sg9
S'--'
p299
sg10
g36
sg11
S'Geremy Davis'
p300
sg13
S'2015'
p301
sg15
g295
sg17
S'--'
p302
sg18
S'11/08'
p303
sg20
S'--'
p304
sg21
S'--'
p305
sg22
S'--'
p306
sg23
S'W32-18'
p307
sg24
S'--'
p308
sg25
S'--'
p309
sg26
S'@TB'
p310
sg27
S'--'
p311
sg28
S'--'
p312
sg29
S'--'
p313
ssS'8'
p314
(dp315
g5
S'--'
p316
sg7
S'--'
p317
sg8
g34
sg9
S'--'
p318
sg10
g36
sg11
S'Geremy Davis'
p319
sg13
S'2015'
p320
sg15
g314
sg17
S'--'
p321
sg18
S'11/01'
p322
sg20
S'--'
p323
sg21
S'--'
p324
sg22
S'--'
p325
sg23
S'L49-52'
p326
sg24
S'--'
p327
sg25
S'--'
p328
sg26
S'@NO'
p329
sg27
S'--'
p330
sg28
S'--'
p331
sg29
S'--'
p332
sss.