(dp0
S'2015'
p1
(dp2
S'11'
p3
(dp4
S'RushTD'
p5
S'0'
p6
sS'RushYds'
p7
S'-2'
p8
sS'GS'
p9
S'1'
p10
sS'Lost'
p11
S'--'
p12
sS'G'
p13
g10
sS'Player'
p14
S'Golden Tate'
p15
sS'Year'
p16
S'2015'
p17
sS'WK'
p18
S'11'
p19
sS'RushAvg'
p20
S'-2.0'
p21
sS'Game Date'
p22
S'11/22'
p23
sS'RecAvg'
p24
S'9.1'
p25
sS'FUM'
p26
S'--'
p27
sS'RushAtt'
p28
g10
sS'Result'
p29
S'W18-13'
p30
sS'RecYds'
p31
S'73'
p32
sS'Rec'
p33
S'8'
p34
sS'Opp'
p35
S'OAK'
p36
sS'RecLng'
p37
S'21'
p38
sS'RecTD'
p39
g6
sS'RushLng'
p40
S'-2'
p41
ssS'10'
p42
(dp43
g5
g6
sg7
S'11'
p44
sg9
g10
sg11
S'--'
p45
sg13
g10
sg14
S'Golden Tate'
p46
sg16
S'2015'
p47
sg18
S'10'
p48
sg20
S'11.0'
p49
sg22
S'11/15'
p50
sg24
S'13.0'
p51
sg26
S'--'
p52
sg28
g10
sg29
S'W18-16'
p53
sg31
S'52'
p54
sg33
S'4'
p55
sg35
S'@GB'
p56
sg37
S'43'
p57
sg39
g6
sg40
S'11'
p58
ssS'13'
p59
(dp60
g5
g6
sg7
S'3'
p61
sg9
g10
sg11
S'--'
p62
sg13
g10
sg14
S'Golden Tate'
p63
sg16
S'2015'
p64
sg18
S'13'
p65
sg20
S'3.0'
p66
sg22
S'12/03'
p67
sg24
S'7.9'
p68
sg26
S'--'
p69
sg28
g10
sg29
S'L23-27'
p70
sg31
S'63'
p71
sg33
g34
sg35
S'GB'
p72
sg37
S'13'
p73
sg39
g6
sg40
g61
ssS'12'
p74
(dp75
g5
S'--'
p76
sg7
S'--'
p77
sg9
g10
sg11
S'--'
p78
sg13
g10
sg14
S'Golden Tate'
p79
sg16
S'2015'
p80
sg18
S'12'
p81
sg20
S'--'
p82
sg22
S'11/26'
p83
sg24
S'7.1'
p84
sg26
S'--'
p85
sg28
S'--'
p86
sg29
S'W45-14'
p87
sg31
S'50'
p88
sg33
S'7'
p89
sg35
S'PHI'
p90
sg37
S'19'
p91
sg39
g10
sg40
S'--'
p92
ssS'15'
p93
(dp94
g5
S'--'
p95
sg7
S'--'
p96
sg9
g10
sg11
S'--'
p97
sg13
g10
sg14
S'Golden Tate'
p98
sg16
S'2015'
p99
sg18
S'15'
p100
sg20
S'--'
p101
sg22
S'12/21'
p102
sg24
S'7.5'
p103
sg26
S'--'
p104
sg28
S'--'
p105
sg29
S'W35-27'
p106
sg31
S'45'
p107
sg33
S'6'
p108
sg35
S'@NO'
p109
sg37
S'12'
p110
sg39
S'2'
p111
sg40
S'--'
p112
ssS'14'
p113
(dp114
g5
g6
sg7
S'15'
p115
sg9
g10
sg11
S'--'
p116
sg13
g10
sg14
S'Golden Tate'
p117
sg16
S'2015'
p118
sg18
S'14'
p119
sg20
S'15.0'
p120
sg22
S'12/13'
p121
sg24
S'6.7'
p122
sg26
S'--'
p123
sg28
g10
sg29
S'L14-21'
p124
sg31
S'60'
p125
sg33
S'9'
p126
sg35
S'@STL'
p127
sg37
S'16'
p128
sg39
g111
sg40
S'15'
p129
ssS'17'
p130
(dp131
g5
S'--'
p132
sg7
S'--'
p133
sg9
g10
sg11
S'--'
p134
sg13
g10
sg14
S'Golden Tate'
p135
sg16
S'2015'
p136
sg18
S'17'
p137
sg20
S'--'
p138
sg22
S'01/03'
p139
sg24
S'8.5'
p140
sg26
S'--'
p141
sg28
S'--'
p142
sg29
S'W24-20'
p143
sg31
S'34'
p144
sg33
g55
sg35
S'@CHI'
p145
sg37
S'12'
p146
sg39
g6
sg40
S'--'
p147
ssS'16'
p148
(dp149
g5
S'--'
p150
sg7
S'--'
p151
sg9
g10
sg11
S'--'
p152
sg13
g10
sg14
S'Golden Tate'
p153
sg16
S'2015'
p154
sg18
S'16'
p155
sg20
S'--'
p156
sg22
S'12/27'
p157
sg24
S'14.8'
p158
sg26
S'--'
p159
sg28
S'--'
p160
sg29
S'W32-17'
p161
sg31
S'59'
p162
sg33
g55
sg35
S'SF'
p163
sg37
S'36'
p164
sg39
g6
sg40
S'--'
p165
ssg10
(dp166
g5
S'--'
p167
sg7
S'--'
p168
sg9
g10
sg11
S'--'
p169
sg13
g10
sg14
S'Golden Tate'
p170
sg16
S'2015'
p171
sg18
g10
sg20
S'--'
p172
sg22
S'09/13'
p173
sg24
S'6.0'
p174
sg26
S'--'
p175
sg28
S'--'
p176
sg29
S'L28-33'
p177
sg31
S'24'
p178
sg33
g55
sg35
S'@SD'
p179
sg37
S'11'
p180
sg39
g6
sg40
S'--'
p181
ssg61
(dp182
g5
S'--'
p183
sg7
S'--'
p184
sg9
g10
sg11
S'--'
p185
sg13
g10
sg14
S'Golden Tate'
p186
sg16
S'2015'
p187
sg18
g61
sg20
S'--'
p188
sg22
S'09/27'
p189
sg24
S'11.4'
p190
sg26
S'--'
p191
sg28
S'--'
p192
sg29
S'L12-24'
p193
sg31
S'57'
p194
sg33
S'5'
p195
sg35
S'DEN'
p196
sg37
S'33'
p197
sg39
g6
sg40
S'--'
p198
ssg111
(dp199
g5
S'--'
p200
sg7
S'--'
p201
sg9
g10
sg11
S'--'
p202
sg13
g10
sg14
S'Golden Tate'
p203
sg16
S'2015'
p204
sg18
g111
sg20
S'--'
p205
sg22
S'09/20'
p206
sg24
S'13.3'
p207
sg26
S'--'
p208
sg28
S'--'
p209
sg29
S'L16-26'
p210
sg31
S'80'
p211
sg33
g108
sg35
S'@MIN'
p212
sg37
S'19'
p213
sg39
g6
sg40
S'--'
p214
ssg195
(dp215
g5
g6
sg7
g34
sg9
g10
sg11
g10
sg13
g10
sg14
S'Golden Tate'
p216
sg16
S'2015'
p217
sg18
g195
sg20
S'8.0'
p218
sg22
S'10/11'
p219
sg24
S'9.3'
p220
sg26
g10
sg28
g10
sg29
S'L17-42'
p221
sg31
S'74'
p222
sg33
g34
sg35
S'ARI'
p223
sg37
S'21'
p224
sg39
g6
sg40
g34
ssg55
(dp225
g5
g6
sg7
g108
sg9
g10
sg11
S'--'
p226
sg13
g10
sg14
S'Golden Tate'
p227
sg16
S'2015'
p228
sg18
g55
sg20
S'6.0'
p229
sg22
S'10/05'
p230
sg24
S'9.7'
p231
sg26
S'--'
p232
sg28
g10
sg29
S'L10-13'
p233
sg31
S'29'
p234
sg33
g61
sg35
S'@SEA'
p235
sg37
S'22'
p236
sg39
g6
sg40
g108
ssg89
(dp237
g5
S'--'
p238
sg7
S'--'
p239
sg9
g10
sg11
S'--'
p240
sg13
g10
sg14
S'Golden Tate'
p241
sg16
S'2015'
p242
sg18
g89
sg20
S'--'
p243
sg22
S'10/25'
p244
sg24
S'7.0'
p245
sg26
S'--'
p246
sg28
S'--'
p247
sg29
S'L19-28'
p248
sg31
S'14'
p249
sg33
g111
sg35
S'MIN'
p250
sg37
S'11'
p251
sg39
g6
sg40
S'--'
p252
ssg108
(dp253
g5
S'--'
p254
sg7
S'--'
p255
sg9
g10
sg11
S'--'
p256
sg13
g10
sg14
S'Golden Tate'
p257
sg16
S'2015'
p258
sg18
g108
sg20
S'--'
p259
sg22
S'10/18'
p260
sg24
S'6.7'
p261
sg26
S'--'
p262
sg28
S'--'
p263
sg29
S'W37-34'
p264
sg31
S'40'
p265
sg33
g108
sg35
S'CHI'
p266
sg37
S'22'
p267
sg39
g10
sg40
S'--'
p268
ssg126
(dp269
g5
S''
p270
sg7
g270
sg9
g270
sg11
g270
sg13
g270
sg14
S'Golden Tate'
p271
sg16
S'2015'
p272
sg18
g126
sg20
g270
sg22
S'Bye'
p273
sg24
g270
sg26
g270
sg28
g270
sg29
g270
sg31
g270
sg33
g270
sg35
g270
sg37
g270
sg39
g270
sg40
g270
ssg34
(dp274
g5
S'--'
p275
sg7
S'--'
p276
sg9
g10
sg11
S'--'
p277
sg13
g10
sg14
S'Golden Tate'
p278
sg16
S'2015'
p279
sg18
g34
sg20
S'--'
p280
sg22
S'11/01'
p281
sg24
S'9.8'
p282
sg26
S'--'
p283
sg28
S'--'
p284
sg29
S'L10-45'
p285
sg31
S'59'
p286
sg33
g108
sg35
S'@KC'
p287
sg37
S'16'
p288
sg39
g6
sg40
S'--'
p289
sssS'2014'
p290
(dp291
g3
(dp292
g5
g6
sg7
g34
sg9
g10
sg11
S'--'
p293
sg13
g10
sg14
S'Golden Tate'
p294
sg16
S'2014'
p295
sg18
S'11'
p296
sg20
S'8.0'
p297
sg22
S'11/16'
p298
sg24
S'20.5'
p299
sg26
S'--'
p300
sg28
g10
sg29
S'L6-14'
p301
sg31
S'41'
p302
sg33
g111
sg35
S'@ARI'
p303
sg37
S'30'
p304
sg39
g6
sg40
g34
ssg42
(dp305
g5
S'--'
p306
sg7
S'--'
p307
sg9
g10
sg11
S'--'
p308
sg13
g10
sg14
S'Golden Tate'
p309
sg16
S'2014'
p310
sg18
S'10'
p311
sg20
S'--'
p312
sg22
S'11/09'
p313
sg24
S'9.9'
p314
sg26
S'--'
p315
sg28
S'--'
p316
sg29
S'W20-16'
p317
sg31
S'109'
p318
sg33
S'11'
p319
sg35
S'MIA'
p320
sg37
S'28'
p321
sg39
g6
sg40
S'--'
p322
ssg59
(dp323
g5
S'--'
p324
sg7
S'--'
p325
sg9
g10
sg11
S'--'
p326
sg13
g10
sg14
S'Golden Tate'
p327
sg16
S'2014'
p328
sg18
S'13'
p329
sg20
S'--'
p330
sg22
S'11/27'
p331
sg24
S'11.1'
p332
sg26
S'--'
p333
sg28
S'--'
p334
sg29
S'W34-17'
p335
sg31
S'89'
p336
sg33
g34
sg35
S'CHI'
p337
sg37
S'24'
p338
sg39
g6
sg40
S'--'
p339
ssg74
(dp340
g5
g6
sg7
S'13'
p341
sg9
g10
sg11
S'--'
p342
sg13
g10
sg14
S'Golden Tate'
p343
sg16
S'2014'
p344
sg18
S'12'
p345
sg20
S'13.0'
p346
sg22
S'11/23'
p347
sg24
S'24.3'
p348
sg26
S'--'
p349
sg28
g10
sg29
S'L9-34'
p350
sg31
S'97'
p351
sg33
g55
sg35
S'@NE'
p352
sg37
S'42'
p353
sg39
g6
sg40
S'13'
p354
ssg93
(dp355
g5
g6
sg7
g195
sg9
g10
sg11
S'--'
p356
sg13
g10
sg14
S'Golden Tate'
p357
sg16
S'2014'
p358
sg18
S'15'
p359
sg20
S'2.5'
p360
sg22
S'12/14'
p361
sg24
S'5.4'
p362
sg26
S'--'
p363
sg28
g111
sg29
S'W16-14'
p364
sg31
S'38'
p365
sg33
g89
sg35
S'MIN'
p366
sg37
S'14'
p367
sg39
g10
sg40
g108
ssg113
(dp368
g5
S'--'
p369
sg7
S'--'
p370
sg9
g10
sg11
S'--'
p371
sg13
g10
sg14
S'Golden Tate'
p372
sg16
S'2014'
p373
sg18
S'14'
p374
sg20
S'--'
p375
sg22
S'12/07'
p376
sg24
S'12.5'
p377
sg26
S'--'
p378
sg28
S'--'
p379
sg29
S'W34-17'
p380
sg31
S'50'
p381
sg33
g55
sg35
S'TB'
p382
sg37
S'19'
p383
sg39
g6
sg40
S'--'
p384
ssg130
(dp385
g5
S'--'
p386
sg7
S'--'
p387
sg9
g10
sg11
S'--'
p388
sg13
g10
sg14
S'Golden Tate'
p389
sg16
S'2014'
p390
sg18
S'17'
p391
sg20
S'--'
p392
sg22
S'12/28'
p393
sg24
S'15.0'
p394
sg26
S'--'
p395
sg28
S'--'
p396
sg29
S'L20-30'
p397
sg31
S'45'
p398
sg33
g61
sg35
S'@GB'
p399
sg37
S'19'
p400
sg39
g6
sg40
S'--'
p401
ssg148
(dp402
g5
S'--'
p403
sg7
S'--'
p404
sg9
g10
sg11
S'--'
p405
sg13
g10
sg14
S'Golden Tate'
p406
sg16
S'2014'
p407
sg18
S'16'
p408
sg20
S'--'
p409
sg22
S'12/21'
p410
sg24
S'12.4'
p411
sg26
S'--'
p412
sg28
S'--'
p413
sg29
S'W20-14'
p414
sg31
S'62'
p415
sg33
g195
sg35
S'@CHI'
p416
sg37
S'34'
p417
sg39
g6
sg40
S'--'
p418
ssg10
(dp419
g5
g6
sg7
g55
sg9
g10
sg11
S'--'
p420
sg13
g10
sg14
S'Golden Tate'
p421
sg16
S'2014'
p422
sg18
g10
sg20
S'4.0'
p423
sg22
S'09/08'
p424
sg24
S'15.5'
p425
sg26
S'--'
p426
sg28
g10
sg29
S'W35-14'
p427
sg31
S'93'
p428
sg33
g108
sg35
S'NYG'
p429
sg37
S'44'
p430
sg39
g6
sg40
g55
ssg61
(dp431
g5
S'--'
p432
sg7
S'--'
p433
sg9
g10
sg11
S'--'
p434
sg13
g10
sg14
S'Golden Tate'
p435
sg16
S'2014'
p436
sg18
g61
sg20
S'--'
p437
sg22
S'09/21'
p438
sg24
S'10.2'
p439
sg26
S'--'
p440
sg28
S'--'
p441
sg29
S'W19-7'
p442
sg31
S'51'
p443
sg33
g195
sg35
S'GB'
p444
sg37
S'17'
p445
sg39
g6
sg40
S'--'
p446
ssg111
(dp447
g5
S'--'
p448
sg7
S'--'
p449
sg9
g10
sg11
g6
sg13
g10
sg14
S'Golden Tate'
p450
sg16
S'2014'
p451
sg18
g111
sg20
S'--'
p452
sg22
S'09/14'
p453
sg24
S'11.4'
p454
sg26
g10
sg28
S'--'
p455
sg29
S'L7-24'
p456
sg31
S'57'
p457
sg33
g195
sg35
S'@CAR'
p458
sg37
S'21'
p459
sg39
g6
sg40
S'--'
p460
ssg195
(dp461
g5
S'--'
p462
sg7
S'--'
p463
sg9
g10
sg11
S'--'
p464
sg13
g10
sg14
S'Golden Tate'
p465
sg16
S'2014'
p466
sg18
g195
sg20
S'--'
p467
sg22
S'10/05'
p468
sg24
S'19.1'
p469
sg26
S'--'
p470
sg28
S'--'
p471
sg29
S'L14-17'
p472
sg31
S'134'
p473
sg33
g89
sg35
S'BUF'
p474
sg37
S'55'
p475
sg39
g10
sg40
S'--'
p476
ssg55
(dp477
g5
S'--'
p478
sg7
S'--'
p479
sg9
g10
sg11
S'--'
p480
sg13
g10
sg14
S'Golden Tate'
p481
sg16
S'2014'
p482
sg18
g55
sg20
S'--'
p483
sg22
S'09/28'
p484
sg24
S'14.5'
p485
sg26
S'--'
p486
sg28
S'--'
p487
sg29
S'W24-17'
p488
sg31
S'116'
p489
sg33
g34
sg35
S'@NYJ'
p490
sg37
S'35'
p491
sg39
g6
sg40
S'--'
p492
ssg89
(dp493
g5
S'--'
p494
sg7
S'--'
p495
sg9
g10
sg11
S'--'
p496
sg13
g10
sg14
S'Golden Tate'
p497
sg16
S'2014'
p498
sg18
g89
sg20
S'--'
p499
sg22
S'10/19'
p500
sg24
S'15.4'
p501
sg26
S'--'
p502
sg28
S'--'
p503
sg29
S'W24-23'
p504
sg31
S'154'
p505
sg33
S'10'
p506
sg35
S'NO'
p507
sg37
S'73T'
p508
sg39
g10
sg40
S'--'
p509
ssg108
(dp510
g5
S'--'
p511
sg7
S'--'
p512
sg9
g10
sg11
S'--'
p513
sg13
g10
sg14
S'Golden Tate'
p514
sg16
S'2014'
p515
sg18
g108
sg20
S'--'
p516
sg22
S'10/12'
p517
sg24
S'6.3'
p518
sg26
S'--'
p519
sg28
S'--'
p520
sg29
S'W17-3'
p521
sg31
S'44'
p522
sg33
g89
sg35
S'@MIN'
p523
sg37
S'15'
p524
sg39
g6
sg40
S'--'
p525
ssg126
(dp526
g5
g270
sg7
g270
sg9
g270
sg11
g270
sg13
g270
sg14
S'Golden Tate'
p527
sg16
S'2014'
p528
sg18
g126
sg20
g270
sg22
S'Bye'
p529
sg24
g270
sg26
g270
sg28
g270
sg29
g270
sg31
g270
sg33
g270
sg35
g270
sg37
g270
sg39
g270
sg40
g270
ssg34
(dp530
g5
S'--'
p531
sg7
S'--'
p532
sg9
g10
sg11
S'--'
p533
sg13
g10
sg14
S'Golden Tate'
p534
sg16
S'2014'
p535
sg18
g34
sg20
S'--'
p536
sg22
S'10/26'
p537
sg24
S'21.6'
p538
sg26
S'--'
p539
sg28
S'--'
p540
sg29
S'W22-21'
p541
sg31
S'151'
p542
sg33
g89
sg35
S'@ATL'
p543
sg37
S'59T'
p544
sg39
g10
sg40
S'--'
p545
sssS'2011'
p546
(dp547
g3
(dp548
g5
S'--'
p549
sg7
S'--'
p550
sg9
g6
sg11
S'--'
p551
sg13
g10
sg14
S'Golden Tate'
p552
sg16
S'2011'
p553
sg18
S'11'
p554
sg20
S'--'
p555
sg22
S'11/20'
p556
sg24
S'16.0'
p557
sg26
S'--'
p558
sg28
S'--'
p559
sg29
S'W24-7'
p560
sg31
S'16'
p561
sg33
g10
sg35
S'@STL'
p562
sg37
S'16'
p563
sg39
g6
sg40
S'--'
p564
ssg42
(dp565
g5
g6
sg7
S'-5'
p566
sg9
g6
sg11
g6
sg13
g10
sg14
S'Golden Tate'
p567
sg16
S'2011'
p568
sg18
S'10'
p569
sg20
S'-5.0'
p570
sg22
S'11/13'
p571
sg24
S'15.3'
p572
sg26
g10
sg28
g10
sg29
S'W22-17'
p573
sg31
S'46'
p574
sg33
g61
sg35
S'BAL'
p575
sg37
S'24'
p576
sg39
g6
sg40
S'-5'
p577
ssg59
(dp578
g5
g6
sg7
g34
sg9
g10
sg11
S'--'
p579
sg13
g10
sg14
S'Golden Tate'
p580
sg16
S'2011'
p581
sg18
S'13'
p582
sg20
S'8.0'
p583
sg22
S'12/01'
p584
sg24
S'11.8'
p585
sg26
S'--'
p586
sg28
g10
sg29
S'W31-14'
p587
sg31
S'47'
p588
sg33
g55
sg35
S'PHI'
p589
sg37
S'25'
p590
sg39
g10
sg40
g34
ssg74
(dp591
g5
S'--'
p592
sg7
S'--'
p593
sg9
g6
sg11
S'--'
p594
sg13
g10
sg14
S'Golden Tate'
p595
sg16
S'2011'
p596
sg18
S'12'
p597
sg20
S'--'
p598
sg22
S'11/27'
p599
sg24
S'15.0'
p600
sg26
S'--'
p601
sg28
S'--'
p602
sg29
S'L17-23'
p603
sg31
S'15'
p604
sg33
g10
sg35
S'WAS'
p605
sg37
S'15T'
p606
sg39
g10
sg40
S'--'
p607
ssg93
(dp608
g5
g6
sg7
g111
sg9
g10
sg11
S'--'
p609
sg13
g10
sg14
S'Golden Tate'
p610
sg16
S'2011'
p611
sg18
S'15'
p612
sg20
S'2.0'
p613
sg22
S'12/18'
p614
sg24
S'15.3'
p615
sg26
S'--'
p616
sg28
g10
sg29
S'W38-14'
p617
sg31
S'61'
p618
sg33
g55
sg35
S'@CHI'
p619
sg37
S'33'
p620
sg39
g6
sg40
g111
ssg113
(dp621
g5
g6
sg7
S'14'
p622
sg9
g10
sg11
S'--'
p623
sg13
g10
sg14
S'Golden Tate'
p624
sg16
S'2011'
p625
sg18
S'14'
p626
sg20
S'14.0'
p627
sg22
S'12/12'
p628
sg24
S'13.0'
p629
sg26
S'--'
p630
sg28
g10
sg29
S'W30-13'
p631
sg31
S'39'
p632
sg33
g61
sg35
S'STL'
p633
sg37
S'22'
p634
sg39
g6
sg40
S'14'
p635
ssg130
(dp636
g5
g6
sg7
S'-5'
p637
sg9
g10
sg11
S'--'
p638
sg13
g10
sg14
S'Golden Tate'
p639
sg16
S'2011'
p640
sg18
S'17'
p641
sg20
S'-5.0'
p642
sg22
S'01/01'
p643
sg24
S'9.2'
p644
sg26
S'--'
p645
sg28
g10
sg29
S'L20-23'
p646
sg31
S'46'
p647
sg33
g195
sg35
S'@ARI'
p648
sg37
S'23'
p649
sg39
g6
sg40
S'-5'
p650
ssg148
(dp651
g5
S'--'
p652
sg7
S'--'
p653
sg9
g10
sg11
S'--'
p654
sg13
g10
sg14
S'Golden Tate'
p655
sg16
S'2011'
p656
sg18
S'16'
p657
sg20
S'--'
p658
sg22
S'12/24'
p659
sg24
S'5.3'
p660
sg26
S'--'
p661
sg28
S'--'
p662
sg29
S'L17-19'
p663
sg31
S'16'
p664
sg33
g61
sg35
S'SF'
p665
sg37
g34
sg39
g6
sg40
S'--'
p666
ssg10
(dp667
g5
S'--'
p668
sg7
S'--'
p669
sg9
g6
sg11
S'--'
p670
sg13
g10
sg14
S'Golden Tate'
p671
sg16
S'2011'
p672
sg18
g10
sg20
S'--'
p673
sg22
S'09/11'
p674
sg24
S'8.0'
p675
sg26
S'--'
p676
sg28
S'--'
p677
sg29
S'L17-33'
p678
sg31
g34
sg33
g10
sg35
S'@SF'
p679
sg37
S'8T'
p680
sg39
g10
sg40
S'--'
p681
ssg61
(dp682
g5
S'--'
p683
sg7
S'--'
p684
sg9
g6
sg11
S'--'
p685
sg13
g10
sg14
S'Golden Tate'
p686
sg16
S'2011'
p687
sg18
g61
sg20
S'--'
p688
sg22
S'09/25'
p689
sg24
S'7.5'
p690
sg26
S'--'
p691
sg28
S'--'
p692
sg29
S'W13-10'
p693
sg31
S'15'
p694
sg33
g111
sg35
S'ARI'
p695
sg37
g126
sg39
g6
sg40
S'--'
p696
ssg111
(dp697
g5
S'--'
p698
sg7
S'--'
p699
sg9
g6
sg11
S'--'
p700
sg13
g10
sg14
S'Golden Tate'
p701
sg16
S'2011'
p702
sg18
g111
sg20
S'--'
p703
sg22
S'09/18'
p704
sg24
S'6.0'
p705
sg26
S'--'
p706
sg28
S'--'
p707
sg29
S'L0-24'
p708
sg31
S'12'
p709
sg33
g111
sg35
S'@PIT'
p710
sg37
g89
sg39
g6
sg40
S'--'
p711
ssg195
(dp712
g5
S'--'
p713
sg7
S'--'
p714
sg9
g6
sg11
S'--'
p715
sg13
g10
sg14
S'Golden Tate'
p716
sg16
S'2011'
p717
sg18
g195
sg20
S'--'
p718
sg22
S'10/09'
p719
sg24
S'15.5'
p720
sg26
S'--'
p721
sg28
S'--'
p722
sg29
S'W36-25'
p723
sg31
S'31'
p724
sg33
g111
sg35
S'@NYG'
p725
sg37
S'17'
p726
sg39
g6
sg40
S'--'
p727
ssg55
(dp728
g5
S'--'
p729
sg7
S'--'
p730
sg9
g6
sg11
S'--'
p731
sg13
g10
sg14
S'Golden Tate'
p732
sg16
S'2011'
p733
sg18
g55
sg20
S'--'
p734
sg22
S'10/02'
p735
sg24
S'--'
p736
sg26
S'--'
p737
sg28
S'--'
p738
sg29
S'L28-30'
p739
sg31
S'--'
p740
sg33
S'--'
p741
sg35
S'ATL'
p742
sg37
S'--'
p743
sg39
S'--'
p744
sg40
S'--'
p745
ssg89
(dp746
g5
S'--'
p747
sg7
S'--'
p748
sg9
g6
sg11
S'--'
p749
sg13
g10
sg14
S'Golden Tate'
p750
sg16
S'2011'
p751
sg18
g89
sg20
S'--'
p752
sg22
S'10/23'
p753
sg24
S'11.0'
p754
sg26
S'--'
p755
sg28
S'--'
p756
sg29
S'L3-6'
p757
sg31
S'11'
p758
sg33
g10
sg35
S'@CLE'
p759
sg37
S'11'
p760
sg39
g6
sg40
S'--'
p761
ssg108
(dp762
g5
g270
sg7
g270
sg9
g270
sg11
g270
sg13
g270
sg14
S'Golden Tate'
p763
sg16
S'2011'
p764
sg18
g108
sg20
g270
sg22
S'Bye'
p765
sg24
g270
sg26
g270
sg28
g270
sg29
g270
sg31
g270
sg33
g270
sg35
g270
sg37
g270
sg39
g270
sg40
g270
ssg126
(dp766
g5
S'--'
p767
sg7
S'--'
p768
sg9
g6
sg11
S'--'
p769
sg13
g10
sg14
S'Golden Tate'
p770
sg16
S'2011'
p771
sg18
g126
sg20
S'--'
p772
sg22
S'11/06'
p773
sg24
S'8.0'
p774
sg26
S'--'
p775
sg28
S'--'
p776
sg29
S'L13-23'
p777
sg31
g34
sg33
g10
sg35
S'@DAL'
p778
sg37
g34
sg39
g6
sg40
S'--'
p779
ssg34
(dp780
g5
S'--'
p781
sg7
S'--'
p782
sg9
g6
sg11
S'--'
p783
sg13
g10
sg14
S'Golden Tate'
p784
sg16
S'2011'
p785
sg18
g34
sg20
S'--'
p786
sg22
S'10/30'
p787
sg24
S'5.5'
p788
sg26
S'--'
p789
sg28
S'--'
p790
sg29
S'L12-34'
p791
sg31
S'11'
p792
sg33
g111
sg35
S'CIN'
p793
sg37
g126
sg39
g6
sg40
S'--'
p794
sssS'2010'
p795
(dp796
g3
(dp797
g5
S'--'
p798
sg7
S'--'
p799
sg9
g6
sg11
S'--'
p800
sg13
g6
sg14
S'Golden Tate'
p801
sg16
S'2010'
p802
sg18
S'11'
p803
sg20
S'--'
p804
sg22
S'11/21'
p805
sg24
S'--'
p806
sg26
S'--'
p807
sg28
S'--'
p808
sg29
S'L19-34'
p809
sg31
S'--'
p810
sg33
S'--'
p811
sg35
S'@NO'
p812
sg37
S'--'
p813
sg39
S'--'
p814
sg40
S'--'
p815
ssg42
(dp816
g5
S'--'
p817
sg7
S'--'
p818
sg9
g6
sg11
S'--'
p819
sg13
g6
sg14
S'Golden Tate'
p820
sg16
S'2010'
p821
sg18
S'10'
p822
sg20
S'--'
p823
sg22
S'11/14'
p824
sg24
S'--'
p825
sg26
S'--'
p826
sg28
S'--'
p827
sg29
S'W36-18'
p828
sg31
S'--'
p829
sg33
S'--'
p830
sg35
S'@ARI'
p831
sg37
S'--'
p832
sg39
S'--'
p833
sg40
S'--'
p834
ssg59
(dp835
g5
S'--'
p836
sg7
S'--'
p837
sg9
g6
sg11
S'--'
p838
sg13
g10
sg14
S'Golden Tate'
p839
sg16
S'2010'
p840
sg18
S'13'
p841
sg20
S'--'
p842
sg22
S'12/05'
p843
sg24
S'6.5'
p844
sg26
S'--'
p845
sg28
S'--'
p846
sg29
S'W31-14'
p847
sg31
S'13'
p848
sg33
g111
sg35
S'CAR'
p849
sg37
g89
sg39
g6
sg40
S'--'
p850
ssg74
(dp851
g5
S'--'
p852
sg7
S'--'
p853
sg9
g6
sg11
S'--'
p854
sg13
g10
sg14
S'Golden Tate'
p855
sg16
S'2010'
p856
sg18
S'12'
p857
sg20
S'--'
p858
sg22
S'11/28'
p859
sg24
S'10.5'
p860
sg26
S'--'
p861
sg28
S'--'
p862
sg29
S'L24-42'
p863
sg31
S'21'
p864
sg33
g111
sg35
S'KC'
p865
sg37
S'12'
p866
sg39
g6
sg40
S'--'
p867
ssg93
(dp868
g5
S'--'
p869
sg7
S'--'
p870
sg9
g6
sg11
S'--'
p871
sg13
g6
sg14
S'Golden Tate'
p872
sg16
S'2010'
p873
sg18
S'15'
p874
sg20
S'--'
p875
sg22
S'12/19'
p876
sg24
S'--'
p877
sg26
S'--'
p878
sg28
S'--'
p879
sg29
S'L18-34'
p880
sg31
S'--'
p881
sg33
S'--'
p882
sg35
S'ATL'
p883
sg37
S'--'
p884
sg39
S'--'
p885
sg40
S'--'
p886
ssg113
(dp887
g5
S'--'
p888
sg7
S'--'
p889
sg9
g6
sg11
S'--'
p890
sg13
g10
sg14
S'Golden Tate'
p891
sg16
S'2010'
p892
sg18
S'14'
p893
sg20
S'--'
p894
sg22
S'12/12'
p895
sg24
S'9.7'
p896
sg26
S'--'
p897
sg28
S'--'
p898
sg29
S'L21-40'
p899
sg31
S'29'
p900
sg33
g61
sg35
S'@SF'
p901
sg37
S'14'
p902
sg39
g6
sg40
S'--'
p903
ssg130
(dp904
g5
g6
sg7
g61
sg9
g6
sg11
S'--'
p905
sg13
g10
sg14
S'Golden Tate'
p906
sg16
S'2010'
p907
sg18
S'17'
p908
sg20
S'3.0'
p909
sg22
S'01/02'
p910
sg24
S'3.0'
p911
sg26
S'--'
p912
sg28
g10
sg29
S'W16-6'
p913
sg31
g61
sg33
g10
sg35
S'STL'
p914
sg37
g61
sg39
g6
sg40
g61
ssg148
(dp915
g5
S'--'
p916
sg7
S'--'
p917
sg9
g6
sg11
S'--'
p918
sg13
g10
sg14
S'Golden Tate'
p919
sg16
S'2010'
p920
sg18
S'16'
p921
sg20
S'--'
p922
sg22
S'12/26'
p923
sg24
S'3.3'
p924
sg26
S'--'
p925
sg28
S'--'
p926
sg29
S'L15-38'
p927
sg31
S'10'
p928
sg33
g61
sg35
S'@TB'
p929
sg37
g195
sg39
g6
sg40
S'--'
p930
ssg10
(dp931
g5
S'--'
p932
sg7
S'--'
p933
sg9
g6
sg11
S'--'
p934
sg13
g6
sg14
S'Golden Tate'
p935
sg16
S'2010'
p936
sg18
g10
sg20
S'--'
p937
sg22
S'09/12'
p938
sg24
S'--'
p939
sg26
S'--'
p940
sg28
S'--'
p941
sg29
S'W31-6'
p942
sg31
S'--'
p943
sg33
S'--'
p944
sg35
S'SF'
p945
sg37
S'--'
p946
sg39
S'--'
p947
sg40
S'--'
p948
ssg61
(dp949
g5
S'--'
p950
sg7
S'--'
p951
sg9
g6
sg11
S'--'
p952
sg13
g10
sg14
S'Golden Tate'
p953
sg16
S'2010'
p954
sg18
g61
sg20
S'--'
p955
sg22
S'09/26'
p956
sg24
S'8.3'
p957
sg26
S'--'
p958
sg28
S'--'
p959
sg29
S'W27-20'
p960
sg31
S'33'
p961
sg33
g55
sg35
S'SD'
p962
sg37
S'11'
p963
sg39
g6
sg40
S'--'
p964
ssg111
(dp965
g5
S'--'
p966
sg7
S'--'
p967
sg9
g6
sg11
S'--'
p968
sg13
g10
sg14
S'Golden Tate'
p969
sg16
S'2010'
p970
sg18
g111
sg20
S'--'
p971
sg22
S'09/19'
p972
sg24
S'52.0'
p973
sg26
S'--'
p974
sg28
S'--'
p975
sg29
S'L14-31'
p976
sg31
S'52'
p977
sg33
g10
sg35
S'@DEN'
p978
sg37
S'52'
p979
sg39
g6
sg40
S'--'
p980
ssg195
(dp981
g5
g270
sg7
g270
sg9
g270
sg11
g270
sg13
g270
sg14
S'Golden Tate'
p982
sg16
S'2010'
p983
sg18
g195
sg20
g270
sg22
S'Bye'
p984
sg24
g270
sg26
g270
sg28
g270
sg29
g270
sg31
g270
sg33
g270
sg35
g270
sg37
g270
sg39
g270
sg40
g270
ssg55
(dp985
g5
g6
sg7
g10
sg9
g6
sg11
S'--'
p986
sg13
g10
sg14
S'Golden Tate'
p987
sg16
S'2010'
p988
sg18
g55
sg20
S'1.0'
p989
sg22
S'10/03'
p990
sg24
S'10.0'
p991
sg26
S'--'
p992
sg28
g10
sg29
S'L3-20'
p993
sg31
S'30'
p994
sg33
g61
sg35
S'@STL'
p995
sg37
S'13'
p996
sg39
g6
sg40
g10
ssg89
(dp997
g5
S'--'
p998
sg7
S'--'
p999
sg9
g6
sg11
S'--'
p1000
sg13
g10
sg14
S'Golden Tate'
p1001
sg16
S'2010'
p1002
sg18
g89
sg20
S'--'
p1003
sg22
S'10/24'
p1004
sg24
S'--'
p1005
sg26
S'--'
p1006
sg28
S'--'
p1007
sg29
S'W22-10'
p1008
sg31
g6
sg33
g6
sg35
S'ARI'
p1009
sg37
S'--'
p1010
sg39
g6
sg40
S'--'
p1011
ssg108
(dp1012
g5
S'--'
p1013
sg7
S'--'
p1014
sg9
g6
sg11
g6
sg13
g10
sg14
S'Golden Tate'
p1015
sg16
S'2010'
p1016
sg18
g108
sg20
S'--'
p1017
sg22
S'10/17'
p1018
sg24
S'--'
p1019
sg26
g10
sg28
S'--'
p1020
sg29
S'W23-20'
p1021
sg31
g6
sg33
g6
sg35
S'@CHI'
p1022
sg37
S'--'
p1023
sg39
g6
sg40
S'--'
p1024
ssg126
(dp1025
g5
S'--'
p1026
sg7
S'--'
p1027
sg9
g6
sg11
S'--'
p1028
sg13
g6
sg14
S'Golden Tate'
p1029
sg16
S'2010'
p1030
sg18
g126
sg20
S'--'
p1031
sg22
S'11/07'
p1032
sg24
S'--'
p1033
sg26
S'--'
p1034
sg28
S'--'
p1035
sg29
S'L7-41'
p1036
sg31
S'--'
p1037
sg33
S'--'
p1038
sg35
S'NYG'
p1039
sg37
S'--'
p1040
sg39
S'--'
p1041
sg40
S'--'
p1042
ssg34
(dp1043
g5
S'--'
p1044
sg7
S'--'
p1045
sg9
g6
sg11
S'--'
p1046
sg13
g10
sg14
S'Golden Tate'
p1047
sg16
S'2010'
p1048
sg18
g34
sg20
S'--'
p1049
sg22
S'10/31'
p1050
sg24
S'18.0'
p1051
sg26
S'--'
p1052
sg28
S'--'
p1053
sg29
S'L3-33'
p1054
sg31
S'36'
p1055
sg33
g111
sg35
S'@OAK'
p1056
sg37
S'24'
p1057
sg39
g6
sg40
S'--'
p1058
sssS'2013'
p1059
(dp1060
g3
(dp1061
g5
S'--'
p1062
sg7
S'--'
p1063
sg9
g10
sg11
S'--'
p1064
sg13
g10
sg14
S'Golden Tate'
p1065
sg16
S'2013'
p1066
sg18
S'11'
p1067
sg20
S'--'
p1068
sg22
S'11/17'
p1069
sg24
S'26.0'
p1070
sg26
S'--'
p1071
sg28
S'--'
p1072
sg29
S'W41-20'
p1073
sg31
S'26'
p1074
sg33
g10
sg35
S'MIN'
p1075
sg37
S'26'
p1076
sg39
g6
sg40
S'--'
p1077
ssg42
(dp1078
g5
S'--'
p1079
sg7
S'--'
p1080
sg9
g10
sg11
S'--'
p1081
sg13
g10
sg14
S'Golden Tate'
p1082
sg16
S'2013'
p1083
sg18
S'10'
p1084
sg20
S'--'
p1085
sg22
S'11/10'
p1086
sg24
S'17.7'
p1087
sg26
S'--'
p1088
sg28
S'--'
p1089
sg29
S'W33-10'
p1090
sg31
S'106'
p1091
sg33
g108
sg35
S'@ATL'
p1092
sg37
S'46'
p1093
sg39
g10
sg40
S'--'
p1094
ssg59
(dp1095
g5
S'--'
p1096
sg7
S'--'
p1097
sg9
g10
sg11
S'--'
p1098
sg13
g10
sg14
S'Golden Tate'
p1099
sg16
S'2013'
p1100
sg18
S'13'
p1101
sg20
S'--'
p1102
sg22
S'12/02'
p1103
sg24
S'11.3'
p1104
sg26
S'--'
p1105
sg28
S'--'
p1106
sg29
S'W34-7'
p1107
sg31
S'45'
p1108
sg33
g55
sg35
S'NO'
p1109
sg37
S'17'
p1110
sg39
g6
sg40
S'--'
p1111
ssg74
(dp1112
g5
g270
sg7
g270
sg9
g270
sg11
g270
sg13
g270
sg14
S'Golden Tate'
p1113
sg16
S'2013'
p1114
sg18
S'12'
p1115
sg20
g270
sg22
S'Bye'
p1116
sg24
g270
sg26
g270
sg28
g270
sg29
g270
sg31
g270
sg33
g270
sg35
g270
sg37
g270
sg39
g270
sg40
g270
ssg93
(dp1117
g5
S'--'
p1118
sg7
S'--'
p1119
sg9
g10
sg11
S'--'
p1120
sg13
g10
sg14
S'Golden Tate'
p1121
sg16
S'2013'
p1122
sg18
S'15'
p1123
sg20
S'--'
p1124
sg22
S'12/15'
p1125
sg24
S'12.5'
p1126
sg26
S'--'
p1127
sg28
S'--'
p1128
sg29
S'W23-0'
p1129
sg31
S'25'
p1130
sg33
g111
sg35
S'@NYG'
p1131
sg37
S'17'
p1132
sg39
g6
sg40
S'--'
p1133
ssg113
(dp1134
g5
S'--'
p1135
sg7
S'--'
p1136
sg9
g10
sg11
S'--'
p1137
sg13
g10
sg14
S'Golden Tate'
p1138
sg16
S'2013'
p1139
sg18
S'14'
p1140
sg20
S'--'
p1141
sg22
S'12/08'
p1142
sg24
S'10.8'
p1143
sg26
S'--'
p1144
sg28
S'--'
p1145
sg29
S'L17-19'
p1146
sg31
S'65'
p1147
sg33
g108
sg35
S'@SF'
p1148
sg37
S'25'
p1149
sg39
g6
sg40
S'--'
p1150
ssg130
(dp1151
g5
g6
sg7
g111
sg9
g6
sg11
S'--'
p1152
sg13
g10
sg14
S'Golden Tate'
p1153
sg16
S'2013'
p1154
sg18
S'17'
p1155
sg20
S'2.0'
p1156
sg22
S'12/29'
p1157
sg24
S'16.1'
p1158
sg26
S'--'
p1159
sg28
g10
sg29
S'W27-9'
p1160
sg31
S'129'
p1161
sg33
g34
sg35
S'STL'
p1162
sg37
S'47T'
p1163
sg39
g10
sg40
g111
ssg148
(dp1164
g5
S'--'
p1165
sg7
S'--'
p1166
sg9
g10
sg11
g6
sg13
g10
sg14
S'Golden Tate'
p1167
sg16
S'2013'
p1168
sg18
S'16'
p1169
sg20
S'--'
p1170
sg22
S'12/22'
p1171
sg24
S'17.0'
p1172
sg26
g10
sg28
S'--'
p1173
sg29
S'L10-17'
p1174
sg31
S'34'
p1175
sg33
g111
sg35
S'ARI'
p1176
sg37
S'28'
p1177
sg39
g6
sg40
S'--'
p1178
ssg10
(dp1179
g5
S'--'
p1180
sg7
S'--'
p1181
sg9
g10
sg11
S'--'
p1182
sg13
g10
sg14
S'Golden Tate'
p1183
sg16
S'2013'
p1184
sg18
g10
sg20
S'--'
p1185
sg22
S'09/08'
p1186
sg24
S'12.8'
p1187
sg26
S'--'
p1188
sg28
S'--'
p1189
sg29
S'W12-7'
p1190
sg31
S'51'
p1191
sg33
g55
sg35
S'@CAR'
p1192
sg37
S'18'
p1193
sg39
g6
sg40
S'--'
p1194
ssg61
(dp1195
g5
g6
sg7
S'29'
p1196
sg9
g6
sg11
S'--'
p1197
sg13
g10
sg14
S'Golden Tate'
p1198
sg16
S'2013'
p1199
sg18
g61
sg20
S'14.5'
p1200
sg22
S'09/22'
p1201
sg24
S'17.6'
p1202
sg26
S'--'
p1203
sg28
g111
sg29
S'W45-17'
p1204
sg31
S'88'
p1205
sg33
g195
sg35
S'JAC'
p1206
sg37
S'30'
p1207
sg39
g6
sg40
S'20'
p1208
ssg111
(dp1209
g5
S'--'
p1210
sg7
S'--'
p1211
sg9
g6
sg11
S'--'
p1212
sg13
g10
sg14
S'Golden Tate'
p1213
sg16
S'2013'
p1214
sg18
g111
sg20
S'--'
p1215
sg22
S'09/15'
p1216
sg24
S'19.0'
p1217
sg26
S'--'
p1218
sg28
S'--'
p1219
sg29
S'W29-3'
p1220
sg31
S'19'
p1221
sg33
g10
sg35
S'SF'
p1222
sg37
S'19'
p1223
sg39
g6
sg40
S'--'
p1224
ssg195
(dp1225
g5
S'--'
p1226
sg7
S'--'
p1227
sg9
g10
sg11
g6
sg13
g10
sg14
S'Golden Tate'
p1228
sg16
S'2013'
p1229
sg18
g195
sg20
S'--'
p1230
sg22
S'10/06'
p1231
sg24
S'12.2'
p1232
sg26
g10
sg28
S'--'
p1233
sg29
S'L28-34'
p1234
sg31
S'61'
p1235
sg33
g195
sg35
S'@IND'
p1236
sg37
S'27'
p1237
sg39
g10
sg40
S'--'
p1238
ssg55
(dp1239
g5
S'--'
p1240
sg7
S'--'
p1241
sg9
g10
sg11
S'--'
p1242
sg13
g10
sg14
S'Golden Tate'
p1243
sg16
S'2013'
p1244
sg18
g55
sg20
S'--'
p1245
sg22
S'09/29'
p1246
sg24
S'5.7'
p1247
sg26
S'--'
p1248
sg28
S'--'
p1249
sg29
S'W23-20'
p1250
sg31
S'17'
p1251
sg33
g61
sg35
S'@HOU'
p1252
sg37
S'10'
p1253
sg39
g6
sg40
S'--'
p1254
ssg89
(dp1255
g5
S'--'
p1256
sg7
S'--'
p1257
sg9
g10
sg11
S'--'
p1258
sg13
g10
sg14
S'Golden Tate'
p1259
sg16
S'2013'
p1260
sg18
g89
sg20
S'--'
p1261
sg22
S'10/17'
p1262
sg24
S'19.3'
p1263
sg26
S'--'
p1264
sg28
S'--'
p1265
sg29
S'W34-22'
p1266
sg31
S'77'
p1267
sg33
g55
sg35
S'@ARI'
p1268
sg37
S'32'
p1269
sg39
g6
sg40
S'--'
p1270
ssg108
(dp1271
g5
S'--'
p1272
sg7
S'--'
p1273
sg9
g10
sg11
S'--'
p1274
sg13
g10
sg14
S'Golden Tate'
p1275
sg16
S'2013'
p1276
sg18
g108
sg20
S'--'
p1277
sg22
S'10/13'
p1278
sg24
S'6.6'
p1279
sg26
S'--'
p1280
sg28
S'--'
p1281
sg29
S'W20-13'
p1282
sg31
S'33'
p1283
sg33
g195
sg35
S'TEN'
p1284
sg37
S'12'
p1285
sg39
g6
sg40
S'--'
p1286
ssg126
(dp1287
g5
S'--'
p1288
sg7
S'--'
p1289
sg9
g10
sg11
S'--'
p1290
sg13
g10
sg14
S'Golden Tate'
p1291
sg16
S'2013'
p1292
sg18
g126
sg20
S'--'
p1293
sg22
S'11/03'
p1294
sg24
S'9.7'
p1295
sg26
S'--'
p1296
sg28
S'--'
p1297
sg29
S'W27-24'
p1298
sg31
S'29'
p1299
sg33
g61
sg35
S'TB'
p1300
sg37
S'19'
p1301
sg39
g6
sg40
S'--'
p1302
ssg34
(dp1303
g5
S'--'
p1304
sg7
S'--'
p1305
sg9
g10
sg11
g6
sg13
g10
sg14
S'Golden Tate'
p1306
sg16
S'2013'
p1307
sg18
g34
sg20
S'--'
p1308
sg22
S'10/28'
p1309
sg24
S'18.6'
p1310
sg26
g10
sg28
S'--'
p1311
sg29
S'W14-9'
p1312
sg31
S'93'
p1313
sg33
g195
sg35
S'@STL'
p1314
sg37
S'80T'
p1315
sg39
g111
sg40
S'--'
p1316
sssS'2012'
p1317
(dp1318
g3
(dp1319
g5
g270
sg7
g270
sg9
g270
sg11
g270
sg13
g270
sg14
S'Golden Tate'
p1320
sg16
S'2012'
p1321
sg18
S'11'
p1322
sg20
g270
sg22
S'Bye'
p1323
sg24
g270
sg26
g270
sg28
g270
sg29
g270
sg31
g270
sg33
g270
sg35
g270
sg37
g270
sg39
g270
sg40
g270
ssg42
(dp1324
g5
S'--'
p1325
sg7
S'--'
p1326
sg9
g10
sg11
S'--'
p1327
sg13
g10
sg14
S'Golden Tate'
p1328
sg16
S'2012'
p1329
sg18
S'10'
p1330
sg20
S'--'
p1331
sg22
S'11/11'
p1332
sg24
S'25.5'
p1333
sg26
S'--'
p1334
sg28
S'--'
p1335
sg29
S'W28-7'
p1336
sg31
S'51'
p1337
sg33
g111
sg35
S'NYJ'
p1338
sg37
S'38T'
p1339
sg39
g10
sg40
S'--'
p1340
ssg59
(dp1341
g5
S'--'
p1342
sg7
S'--'
p1343
sg9
g10
sg11
S'--'
p1344
sg13
g10
sg14
S'Golden Tate'
p1345
sg16
S'2012'
p1346
sg18
S'13'
p1347
sg20
S'--'
p1348
sg22
S'12/02'
p1349
sg24
S'19.2'
p1350
sg26
S'--'
p1351
sg28
S'--'
p1352
sg29
S'W23-17'
p1353
sg31
S'96'
p1354
sg33
g195
sg35
S'@CHI'
p1355
sg37
S'49'
p1356
sg39
g10
sg40
S'--'
p1357
ssg74
(dp1358
g5
S'--'
p1359
sg7
S'--'
p1360
sg9
g10
sg11
S'--'
p1361
sg13
g10
sg14
S'Golden Tate'
p1362
sg16
S'2012'
p1363
sg18
S'12'
p1364
sg20
S'--'
p1365
sg22
S'11/25'
p1366
sg24
S'14.0'
p1367
sg26
S'--'
p1368
sg28
S'--'
p1369
sg29
S'L21-24'
p1370
sg31
S'56'
p1371
sg33
g55
sg35
S'@MIA'
p1372
sg37
S'32'
p1373
sg39
g6
sg40
S'--'
p1374
ssg93
(dp1375
g5
S'--'
p1376
sg7
S'--'
p1377
sg9
g10
sg11
S'--'
p1378
sg13
g10
sg14
S'Golden Tate'
p1379
sg16
S'2012'
p1380
sg18
S'15'
p1381
sg20
S'--'
p1382
sg22
S'12/16'
p1383
sg24
S'21.3'
p1384
sg26
S'--'
p1385
sg28
S'--'
p1386
sg29
S'W50-17'
p1387
sg31
S'64'
p1388
sg33
g61
sg35
S'@BUF'
p1389
sg37
S'44'
p1390
sg39
g6
sg40
S'--'
p1391
ssg113
(dp1392
g5
S'--'
p1393
sg7
S'--'
p1394
sg9
g10
sg11
S'--'
p1395
sg13
g10
sg14
S'Golden Tate'
p1396
sg16
S'2012'
p1397
sg18
S'14'
p1398
sg20
S'--'
p1399
sg22
S'12/09'
p1400
sg24
S'3.0'
p1401
sg26
S'--'
p1402
sg28
S'--'
p1403
sg29
S'W58-0'
p1404
sg31
g108
sg33
g111
sg35
S'ARI'
p1405
sg37
g108
sg39
g6
sg40
S'--'
p1406
ssg130
(dp1407
g5
S'--'
p1408
sg7
S'--'
p1409
sg9
g10
sg11
S'--'
p1410
sg13
g10
sg14
S'Golden Tate'
p1411
sg16
S'2012'
p1412
sg18
S'17'
p1413
sg20
S'--'
p1414
sg22
S'12/30'
p1415
sg24
S'35.0'
p1416
sg26
S'--'
p1417
sg28
S'--'
p1418
sg29
S'W20-13'
p1419
sg31
S'105'
p1420
sg33
g61
sg35
S'STL'
p1421
sg37
S'44'
p1422
sg39
g6
sg40
S'--'
p1423
ssg148
(dp1424
g5
S'--'
p1425
sg7
S'--'
p1426
sg9
g10
sg11
S'--'
p1427
sg13
g10
sg14
S'Golden Tate'
p1428
sg16
S'2012'
p1429
sg18
S'16'
p1430
sg20
S'--'
p1431
sg22
S'12/23'
p1432
sg24
S'13.5'
p1433
sg26
S'--'
p1434
sg28
S'--'
p1435
sg29
S'W42-13'
p1436
sg31
S'27'
p1437
sg33
g111
sg35
S'SF'
p1438
sg37
S'21'
p1439
sg39
g6
sg40
S'--'
p1440
ssg10
(dp1441
g5
S'--'
p1442
sg7
S'--'
p1443
sg9
g6
sg11
S'--'
p1444
sg13
g6
sg14
S'Golden Tate'
p1445
sg16
S'2012'
p1446
sg18
g10
sg20
S'--'
p1447
sg22
S'09/09'
p1448
sg24
S'--'
p1449
sg26
S'--'
p1450
sg28
S'--'
p1451
sg29
S'L16-20'
p1452
sg31
S'--'
p1453
sg33
S'--'
p1454
sg35
S'@ARI'
p1455
sg37
S'--'
p1456
sg39
S'--'
p1457
sg40
S'--'
p1458
ssg61
(dp1459
g5
S'--'
p1460
sg7
S'--'
p1461
sg9
g10
sg11
S'--'
p1462
sg13
g10
sg14
S'Golden Tate'
p1463
sg16
S'2012'
p1464
sg18
g61
sg20
S'--'
p1465
sg22
S'09/24'
p1466
sg24
S'22.7'
p1467
sg26
S'--'
p1468
sg28
S'--'
p1469
sg29
S'W14-12'
p1470
sg31
S'68'
p1471
sg33
g61
sg35
S'GB'
p1472
sg37
S'41T'
p1473
sg39
g111
sg40
S'--'
p1474
ssg111
(dp1475
g5
S'--'
p1476
sg7
S'--'
p1477
sg9
g10
sg11
S'--'
p1478
sg13
g10
sg14
S'Golden Tate'
p1479
sg16
S'2012'
p1480
sg18
g111
sg20
S'--'
p1481
sg22
S'09/16'
p1482
sg24
S'12.7'
p1483
sg26
S'--'
p1484
sg28
S'--'
p1485
sg29
S'W27-7'
p1486
sg31
S'38'
p1487
sg33
g61
sg35
S'DAL'
p1488
sg37
S'20'
p1489
sg39
g6
sg40
S'--'
p1490
ssg195
(dp1491
g5
g6
sg7
S'-1'
p1492
sg9
g10
sg11
S'--'
p1493
sg13
g10
sg14
S'Golden Tate'
p1494
sg16
S'2012'
p1495
sg18
g195
sg20
S'-1.0'
p1496
sg22
S'10/07'
p1497
sg24
S'10.3'
p1498
sg26
S'--'
p1499
sg28
g10
sg29
S'W16-12'
p1500
sg31
S'31'
p1501
sg33
g61
sg35
S'@CAR'
p1502
sg37
S'13T'
p1503
sg39
g10
sg40
S'-1'
p1504
ssg55
(dp1505
g5
S'--'
p1506
sg7
S'--'
p1507
sg9
g10
sg11
S'--'
p1508
sg13
g10
sg14
S'Golden Tate'
p1509
sg16
S'2012'
p1510
sg18
g55
sg20
S'--'
p1511
sg22
S'09/30'
p1512
sg24
S'7.0'
p1513
sg26
S'--'
p1514
sg28
S'--'
p1515
sg29
S'L13-19'
p1516
sg31
g89
sg33
g10
sg35
S'@STL'
p1517
sg37
g89
sg39
g6
sg40
S'--'
p1518
ssg89
(dp1519
g5
S'--'
p1520
sg7
S'--'
p1521
sg9
g10
sg11
S'--'
p1522
sg13
g10
sg14
S'Golden Tate'
p1523
sg16
S'2012'
p1524
sg18
g89
sg20
S'--'
p1525
sg22
S'10/18'
p1526
sg24
S'--'
p1527
sg26
S'--'
p1528
sg28
S'--'
p1529
sg29
S'L6-13'
p1530
sg31
g6
sg33
g6
sg35
S'@SF'
p1531
sg37
S'--'
p1532
sg39
g6
sg40
S'--'
p1533
ssg108
(dp1534
g5
S'--'
p1535
sg7
S'--'
p1536
sg9
g10
sg11
S'--'
p1537
sg13
g10
sg14
S'Golden Tate'
p1538
sg16
S'2012'
p1539
sg18
g108
sg20
S'--'
p1540
sg22
S'10/14'
p1541
sg24
S'15.7'
p1542
sg26
S'--'
p1543
sg28
S'--'
p1544
sg29
S'W24-23'
p1545
sg31
S'47'
p1546
sg33
g61
sg35
S'NE'
p1547
sg37
S'51'
p1548
sg39
g6
sg40
S'--'
p1549
ssg126
(dp1550
g5
g6
sg7
S'21'
p1551
sg9
g10
sg11
S'--'
p1552
sg13
g10
sg14
S'Golden Tate'
p1553
sg16
S'2012'
p1554
sg18
g126
sg20
S'10.5'
p1555
sg22
S'11/04'
p1556
sg24
S'7.0'
p1557
sg26
S'--'
p1558
sg28
g111
sg29
S'W30-20'
p1559
sg31
S'28'
p1560
sg33
g55
sg35
S'MIN'
p1561
sg37
S'11T'
p1562
sg39
g111
sg40
S'13'
p1563
ssg34
(dp1564
g5
S'--'
p1565
sg7
S'--'
p1566
sg9
g10
sg11
g10
sg13
g10
sg14
S'Golden Tate'
p1567
sg16
S'2012'
p1568
sg18
g34
sg20
S'--'
p1569
sg22
S'10/28'
p1570
sg24
S'9.1'
p1571
sg26
g10
sg28
S'--'
p1572
sg29
S'L24-28'
p1573
sg31
S'64'
p1574
sg33
g89
sg35
S'@DET'
p1575
sg37
S'18'
p1576
sg39
g6
sg40
S'--'
p1577
sss.