(dp0
S'2015'
p1
(dp2
S'17'
p3
(dp4
S'RushTD'
p5
S'--'
p6
sS'RushYds'
p7
S'--'
p8
sS'GS'
p9
S'0'
p10
sS'Lost'
p11
S'--'
p12
sS'G'
p13
S'1'
p14
sS'Player'
p15
S'Greg Salas'
p16
sS'Year'
p17
S'2015'
p18
sS'WK'
p19
S'17'
p20
sS'RushAvg'
p21
S'--'
p22
sS'Game Date'
p23
S'01/03'
p24
sS'RecAvg'
p25
S'13.7'
p26
sS'FUM'
p27
S'--'
p28
sS'RushAtt'
p29
S'--'
p30
sS'Result'
p31
S'W22-17'
p32
sS'RecYds'
p33
S'41'
p34
sS'Rec'
p35
S'3'
p36
sS'Opp'
p37
S'NYJ'
p38
sS'RecLng'
p39
S'20'
p40
sS'RecTD'
p41
g10
sS'RushLng'
p42
S'--'
p43
ssS'16'
p44
(dp45
g5
S'--'
p46
sg7
S'--'
p47
sg9
g10
sg11
S'--'
p48
sg13
g14
sg15
S'Greg Salas'
p49
sg17
S'2015'
p50
sg19
S'16'
p51
sg21
S'--'
p52
sg23
S'12/27'
p53
sg25
S'--'
p54
sg27
S'--'
p55
sg29
S'--'
p56
sg31
S'W16-6'
p57
sg33
S'--'
p58
sg35
S'--'
p59
sg37
S'DAL'
p60
sg39
S'--'
p61
sg41
S'--'
p62
sg42
S'--'
p63
sssS'2014'
p64
(dp65
S'11'
p66
(dp67
g5
S''
p68
sg7
g68
sg9
g68
sg11
g68
sg13
g68
sg15
S'Greg Salas'
p69
sg17
S'2014'
p70
sg19
S'11'
p71
sg21
g68
sg23
S'Bye'
p72
sg25
g68
sg27
g68
sg29
g68
sg31
g68
sg33
g68
sg35
g68
sg37
g68
sg39
g68
sg41
g68
sg42
g68
ssS'10'
p73
(dp74
g5
S'--'
p75
sg7
S'--'
p76
sg9
g10
sg11
S'--'
p77
sg13
g14
sg15
S'Greg Salas'
p78
sg17
S'2014'
p79
sg19
S'10'
p80
sg21
S'--'
p81
sg23
S'11/09'
p82
sg25
S'--'
p83
sg27
S'--'
p84
sg29
S'--'
p85
sg31
S'W20-13'
p86
sg33
S'--'
p87
sg35
S'--'
p88
sg37
S'PIT'
p89
sg39
S'--'
p90
sg41
S'--'
p91
sg42
S'--'
p92
ssS'13'
p93
(dp94
g5
g14
sg7
S'20'
p95
sg9
g10
sg11
S'--'
p96
sg13
g14
sg15
S'Greg Salas'
p97
sg17
S'2014'
p98
sg19
S'13'
p99
sg21
S'20.0'
p100
sg23
S'12/01'
p101
sg25
S'--'
p102
sg27
S'--'
p103
sg29
g14
sg31
S'L13-16'
p104
sg33
S'--'
p105
sg35
S'--'
p106
sg37
S'MIA'
p107
sg39
S'--'
p108
sg41
S'--'
p109
sg42
S'20T'
p110
ssS'12'
p111
(dp112
g5
S'--'
p113
sg7
S'--'
p114
sg9
g10
sg11
S'--'
p115
sg13
g14
sg15
S'Greg Salas'
p116
sg17
S'2014'
p117
sg19
S'12'
p118
sg21
S'--'
p119
sg23
S'11/24'
p120
sg25
S'--'
p121
sg27
S'--'
p122
sg29
S'--'
p123
sg31
S'L3-38'
p124
sg33
S'--'
p125
sg35
S'--'
p126
sg37
S'@BUF'
p127
sg39
S'--'
p128
sg41
S'--'
p129
sg42
S'--'
p130
ssg14
(dp131
g5
S'--'
p132
sg7
S'--'
p133
sg9
g10
sg11
S'--'
p134
sg13
g14
sg15
S'Greg Salas'
p135
sg17
S'2014'
p136
sg19
g14
sg21
S'--'
p137
sg23
S'09/07'
p138
sg25
S'12.0'
p139
sg27
S'--'
p140
sg29
S'--'
p141
sg31
S'W19-14'
p142
sg33
S'12'
p143
sg35
g14
sg37
S'OAK'
p144
sg39
S'12'
p145
sg41
g10
sg42
S'--'
p146
ssg36
(dp147
g5
S'--'
p148
sg7
S'--'
p149
sg9
g10
sg11
S'--'
p150
sg13
g14
sg15
S'Greg Salas'
p151
sg17
S'2014'
p152
sg19
g36
sg21
S'--'
p153
sg23
S'09/22'
p154
sg25
S'28.0'
p155
sg27
S'--'
p156
sg29
S'--'
p157
sg31
S'L19-27'
p158
sg33
S'56'
p159
sg35
S'2'
p160
sg37
S'CHI'
p161
sg39
S'51'
p162
sg41
g10
sg42
S'--'
p163
ssg160
(dp164
g5
S'--'
p165
sg7
S'--'
p166
sg9
g10
sg11
S'--'
p167
sg13
g14
sg15
S'Greg Salas'
p168
sg17
S'2014'
p169
sg19
g160
sg21
S'--'
p170
sg23
S'09/14'
p171
sg25
S'--'
p172
sg27
S'--'
p173
sg29
S'--'
p174
sg31
S'L24-31'
p175
sg33
g10
sg35
g10
sg37
S'@GB'
p176
sg39
S'--'
p177
sg41
g10
sg42
S'--'
p178
ssS'5'
p179
(dp180
g5
S'--'
p181
sg7
S'--'
p182
sg9
g14
sg11
S'--'
p183
sg13
g14
sg15
S'Greg Salas'
p184
sg17
S'2014'
p185
sg19
g179
sg21
S'--'
p186
sg23
S'10/05'
p187
sg25
S'6.0'
p188
sg27
S'--'
p189
sg29
S'--'
p190
sg31
S'L0-31'
p191
sg33
S'12'
p192
sg35
g160
sg37
S'@SD'
p193
sg39
S'7'
p194
sg41
g10
sg42
S'--'
p195
ssS'4'
p196
(dp197
g5
S'--'
p198
sg7
S'--'
p199
sg9
g10
sg11
S'--'
p200
sg13
g14
sg15
S'Greg Salas'
p201
sg17
S'2014'
p202
sg19
g196
sg21
S'--'
p203
sg23
S'09/28'
p204
sg25
S'30.0'
p205
sg27
S'--'
p206
sg29
S'--'
p207
sg31
S'L17-24'
p208
sg33
S'60'
p209
sg35
g160
sg37
S'DET'
p210
sg39
S'32'
p211
sg41
g10
sg42
S'--'
p212
ssg194
(dp213
g5
S'--'
p214
sg7
S'--'
p215
sg9
g10
sg11
S'--'
p216
sg13
g10
sg15
S'Greg Salas'
p217
sg17
S'2014'
p218
sg19
g194
sg21
S'--'
p219
sg23
S'10/16'
p220
sg25
S'--'
p221
sg27
S'--'
p222
sg29
S'--'
p223
sg31
S'L25-27'
p224
sg33
S'--'
p225
sg35
S'--'
p226
sg37
S'@NE'
p227
sg39
S'--'
p228
sg41
S'--'
p229
sg42
S'--'
p230
ssS'6'
p231
(dp232
g5
S'--'
p233
sg7
S'--'
p234
sg9
g14
sg11
S'--'
p235
sg13
g14
sg15
S'Greg Salas'
p236
sg17
S'2014'
p237
sg19
g231
sg21
S'--'
p238
sg23
S'10/12'
p239
sg25
S'27.0'
p240
sg27
S'--'
p241
sg29
S'--'
p242
sg31
S'L17-31'
p243
sg33
S'27'
p244
sg35
g14
sg37
S'DEN'
p245
sg39
S'27'
p246
sg41
g10
sg42
S'--'
p247
ssS'9'
p248
(dp249
g5
S'--'
p250
sg7
S'--'
p251
sg9
g10
sg11
S'--'
p252
sg13
g14
sg15
S'Greg Salas'
p253
sg17
S'2014'
p254
sg19
g248
sg21
S'--'
p255
sg23
S'11/02'
p256
sg25
S'--'
p257
sg27
S'--'
p258
sg29
S'--'
p259
sg31
S'L10-24'
p260
sg33
g10
sg35
g10
sg37
S'@KC'
p261
sg39
S'--'
p262
sg41
g10
sg42
S'--'
p263
ssS'8'
p264
(dp265
g5
S'--'
p266
sg7
S'--'
p267
sg9
g10
sg11
S'--'
p268
sg13
g10
sg15
S'Greg Salas'
p269
sg17
S'2014'
p270
sg19
g264
sg21
S'--'
p271
sg23
S'10/26'
p272
sg25
S'--'
p273
sg27
S'--'
p274
sg29
S'--'
p275
sg31
S'L23-43'
p276
sg33
S'--'
p277
sg35
S'--'
p278
sg37
S'BUF'
p279
sg39
S'--'
p280
sg41
S'--'
p281
sg42
S'--'
p282
sssS'2011'
p283
(dp284
g14
(dp285
g5
S'--'
p286
sg7
S'--'
p287
sg9
g10
sg11
S'--'
p288
sg13
g14
sg15
S'Greg Salas'
p289
sg17
S'2011'
p290
sg19
g14
sg21
S'--'
p291
sg23
S'09/11'
p292
sg25
S'21.0'
p293
sg27
S'--'
p294
sg29
S'--'
p295
sg31
S'L13-31'
p296
sg33
S'21'
p297
sg35
g14
sg37
S'PHI'
p298
sg39
S'21'
p299
sg41
g10
sg42
S'--'
p300
ssg36
(dp301
g5
S'--'
p302
sg7
S'--'
p303
sg9
g10
sg11
S'--'
p304
sg13
g10
sg15
S'Greg Salas'
p305
sg17
S'2011'
p306
sg19
g36
sg21
S'--'
p307
sg23
S'09/25'
p308
sg25
S'--'
p309
sg27
S'--'
p310
sg29
S'--'
p311
sg31
S'L7-37'
p312
sg33
S'--'
p313
sg35
S'--'
p314
sg37
S'BAL'
p315
sg39
S'--'
p316
sg41
S'--'
p317
sg42
S'--'
p318
ssg160
(dp319
g5
S'--'
p320
sg7
S'--'
p321
sg9
g10
sg11
g14
sg13
g14
sg15
S'Greg Salas'
p322
sg17
S'2011'
p323
sg19
g160
sg21
S'--'
p324
sg23
S'09/19'
p325
sg25
S'6.8'
p326
sg27
g160
sg29
S'--'
p327
sg31
S'L16-28'
p328
sg33
S'27'
p329
sg35
g196
sg37
S'@NYG'
p330
sg39
S'17'
p331
sg41
g10
sg42
S'--'
p332
ssg179
(dp333
g5
g68
sg7
g68
sg9
g68
sg11
g68
sg13
g68
sg15
S'Greg Salas'
p334
sg17
S'2011'
p335
sg19
g179
sg21
g68
sg23
S'Bye'
p336
sg25
g68
sg27
g68
sg29
g68
sg31
g68
sg33
g68
sg35
g68
sg37
g68
sg39
g68
sg41
g68
sg42
g68
ssg196
(dp337
g5
S'--'
p338
sg7
S'--'
p339
sg9
g10
sg11
S'--'
p340
sg13
g10
sg15
S'Greg Salas'
p341
sg17
S'2011'
p342
sg19
g196
sg21
S'--'
p343
sg23
S'10/02'
p344
sg25
S'--'
p345
sg27
S'--'
p346
sg29
S'--'
p347
sg31
S'L10-17'
p348
sg33
S'--'
p349
sg35
S'--'
p350
sg37
S'WAS'
p351
sg39
S'--'
p352
sg41
S'--'
p353
sg42
S'--'
p354
ssg194
(dp355
g5
S'--'
p356
sg7
S'--'
p357
sg9
g10
sg11
S'--'
p358
sg13
g14
sg15
S'Greg Salas'
p359
sg17
S'2011'
p360
sg19
g194
sg21
S'--'
p361
sg23
S'10/23'
p362
sg25
S'16.5'
p363
sg27
S'--'
p364
sg29
S'--'
p365
sg31
S'L7-34'
p366
sg33
S'33'
p367
sg35
g160
sg37
S'@DAL'
p368
sg39
S'21'
p369
sg41
g10
sg42
S'--'
p370
ssg231
(dp371
g5
S'--'
p372
sg7
S'--'
p373
sg9
g10
sg11
S'--'
p374
sg13
g14
sg15
S'Greg Salas'
p375
sg17
S'2011'
p376
sg19
g231
sg21
S'--'
p377
sg23
S'10/16'
p378
sg25
S'9.6'
p379
sg27
S'--'
p380
sg29
S'--'
p381
sg31
S'L3-24'
p382
sg33
S'77'
p383
sg35
g264
sg37
S'@GB'
p384
sg39
S'19'
p385
sg41
g10
sg42
S'--'
p386
ssg248
(dp387
g5
S'--'
p388
sg7
S'--'
p389
sg9
g10
sg11
S'--'
p390
sg13
g14
sg15
S'Greg Salas'
p391
sg17
S'2011'
p392
sg19
g248
sg21
S'--'
p393
sg23
S'11/06'
p394
sg25
S'8.4'
p395
sg27
S'--'
p396
sg29
S'--'
p397
sg31
S'L13-19'
p398
sg33
S'59'
p399
sg35
g194
sg37
S'@ARI'
p400
sg39
S'16'
p401
sg41
g10
sg42
S'--'
p402
ssg264
(dp403
g5
g10
sg7
g264
sg9
g10
sg11
g10
sg13
g14
sg15
S'Greg Salas'
p404
sg17
S'2011'
p405
sg19
g264
sg21
S'8.0'
p406
sg23
S'10/30'
p407
sg25
S'9.4'
p408
sg27
g14
sg29
g14
sg31
S'W31-21'
p409
sg33
S'47'
p410
sg35
g179
sg37
S'NO'
p411
sg39
S'17'
p412
sg41
g10
sg42
g264
sssS'2013'
p413
(dp414
g66
(dp415
g5
S'--'
p416
sg7
S'--'
p417
sg9
g10
sg11
S'--'
p418
sg13
g14
sg15
S'Greg Salas'
p419
sg17
S'2013'
p420
sg19
S'11'
p421
sg21
S'--'
p422
sg23
S'11/17'
p423
sg25
S'16.0'
p424
sg27
S'--'
p425
sg29
S'--'
p426
sg31
S'L14-37'
p427
sg33
S'32'
p428
sg35
g160
sg37
S'@BUF'
p429
sg39
S'25'
p430
sg41
g10
sg42
S'--'
p431
ssg73
(dp432
g5
g68
sg7
g68
sg9
g68
sg11
g68
sg13
g68
sg15
S'Greg Salas'
p433
sg17
S'2013'
p434
sg19
S'10'
p435
sg21
g68
sg23
S'Bye'
p436
sg25
g68
sg27
g68
sg29
g68
sg31
g68
sg33
g68
sg35
g68
sg37
g68
sg39
g68
sg41
g68
sg42
g68
ssg93
(dp437
g5
S'--'
p438
sg7
S'--'
p439
sg9
g10
sg11
S'--'
p440
sg13
g14
sg15
S'Greg Salas'
p441
sg17
S'2013'
p442
sg19
S'13'
p443
sg21
S'--'
p444
sg23
S'12/01'
p445
sg25
S'0.0'
p446
sg27
S'--'
p447
sg29
S'--'
p448
sg31
S'L3-23'
p449
sg33
g10
sg35
g14
sg37
S'MIA'
p450
sg39
g10
sg41
g10
sg42
S'--'
p451
ssg111
(dp452
g5
S'--'
p453
sg7
S'--'
p454
sg9
g10
sg11
S'--'
p455
sg13
g14
sg15
S'Greg Salas'
p456
sg17
S'2013'
p457
sg19
S'12'
p458
sg21
S'--'
p459
sg23
S'11/24'
p460
sg25
S'24.0'
p461
sg27
S'--'
p462
sg29
S'--'
p463
sg31
S'L3-19'
p464
sg33
S'48'
p465
sg35
g160
sg37
S'@BAL'
p466
sg39
S'30'
p467
sg41
g10
sg42
S'--'
p468
ssS'15'
p469
(dp470
g5
S'--'
p471
sg7
S'--'
p472
sg9
g10
sg11
S'--'
p473
sg13
g14
sg15
S'Greg Salas'
p474
sg17
S'2013'
p475
sg19
S'15'
p476
sg21
S'--'
p477
sg23
S'12/15'
p478
sg25
S'--'
p479
sg27
S'--'
p480
sg29
S'--'
p481
sg31
S'L20-30'
p482
sg33
S'--'
p483
sg35
S'--'
p484
sg37
S'@CAR'
p485
sg39
S'--'
p486
sg41
S'--'
p487
sg42
S'--'
p488
ssS'14'
p489
(dp490
g5
S'--'
p491
sg7
S'--'
p492
sg9
g10
sg11
S'--'
p493
sg13
g14
sg15
S'Greg Salas'
p494
sg17
S'2013'
p495
sg19
S'14'
p496
sg21
S'--'
p497
sg23
S'12/08'
p498
sg25
S'--'
p499
sg27
S'--'
p500
sg29
S'--'
p501
sg31
S'W37-27'
p502
sg33
S'--'
p503
sg35
S'--'
p504
sg37
S'OAK'
p505
sg39
S'--'
p506
sg41
S'--'
p507
sg42
S'--'
p508
ssg3
(dp509
g5
S'--'
p510
sg7
S'--'
p511
sg9
g10
sg11
S'--'
p512
sg13
g14
sg15
S'Greg Salas'
p513
sg17
S'2013'
p514
sg19
S'17'
p515
sg21
S'--'
p516
sg23
S'12/29'
p517
sg25
S'6.0'
p518
sg27
S'--'
p519
sg29
S'--'
p520
sg31
S'W20-7'
p521
sg33
g231
sg35
g14
sg37
S'@MIA'
p522
sg39
g231
sg41
g10
sg42
S'--'
p523
ssg44
(dp524
g5
S'--'
p525
sg7
S'--'
p526
sg9
g10
sg11
S'--'
p527
sg13
g14
sg15
S'Greg Salas'
p528
sg17
S'2013'
p529
sg19
S'16'
p530
sg21
S'--'
p531
sg23
S'12/22'
p532
sg25
S'--'
p533
sg27
S'--'
p534
sg29
S'--'
p535
sg31
S'W24-13'
p536
sg33
S'--'
p537
sg35
S'--'
p538
sg37
S'CLE'
p539
sg39
S'--'
p540
sg41
S'--'
p541
sg42
S'--'
p542
ssg194
(dp543
g5
S'--'
p544
sg7
S'--'
p545
sg9
g10
sg11
S'--'
p546
sg13
g10
sg15
S'Greg Salas'
p547
sg17
S'2013'
p548
sg19
g194
sg21
S'--'
p549
sg23
S'10/20'
p550
sg25
S'--'
p551
sg27
S'--'
p552
sg29
S'--'
p553
sg31
S'W30-27'
p554
sg33
S'--'
p555
sg35
S'--'
p556
sg37
S'NE'
p557
sg39
S'--'
p558
sg41
S'--'
p559
sg42
S'--'
p560
ssg248
(dp561
g5
S'--'
p562
sg7
S'--'
p563
sg9
g10
sg11
S'--'
p564
sg13
g14
sg15
S'Greg Salas'
p565
sg17
S'2013'
p566
sg19
g248
sg21
S'--'
p567
sg23
S'11/03'
p568
sg25
S'28.5'
p569
sg27
S'--'
p570
sg29
S'--'
p571
sg31
S'W26-20'
p572
sg33
S'57'
p573
sg35
g160
sg37
S'NO'
p574
sg39
S'44'
p575
sg41
g10
sg42
S'--'
p576
ssg264
(dp577
g5
S'--'
p578
sg7
S'--'
p579
sg9
g10
sg11
S'--'
p580
sg13
g10
sg15
S'Greg Salas'
p581
sg17
S'2013'
p582
sg19
g264
sg21
S'--'
p583
sg23
S'10/27'
p584
sg25
S'--'
p585
sg27
S'--'
p586
sg29
S'--'
p587
sg31
S'L9-49'
p588
sg33
S'--'
p589
sg35
S'--'
p590
sg37
S'@CIN'
p591
sg39
S'--'
p592
sg41
S'--'
p593
sg42
S'--'
p594
sssS'2012'
p595
(dp596
g66
(dp597
g5
S'--'
p598
sg7
S'--'
p599
sg9
g10
sg11
S'--'
p600
sg13
g14
sg15
S'Greg Salas'
p601
sg17
S'2012'
p602
sg19
S'11'
p603
sg21
S'--'
p604
sg23
S'11/18'
p605
sg25
S'--'
p606
sg27
S'--'
p607
sg29
S'--'
p608
sg31
S'W59-24'
p609
sg33
S'--'
p610
sg35
S'--'
p611
sg37
S'IND'
p612
sg39
S'--'
p613
sg41
S'--'
p614
sg42
S'--'
p615
ssg93
(dp616
g5
S'--'
p617
sg7
S'--'
p618
sg9
g10
sg11
S'--'
p619
sg13
g10
sg15
S'Greg Salas'
p620
sg17
S'2012'
p621
sg19
S'13'
p622
sg21
S'--'
p623
sg23
S'12/02'
p624
sg25
S'--'
p625
sg27
S'--'
p626
sg29
S'--'
p627
sg31
S'L33-38'
p628
sg33
S'--'
p629
sg35
S'--'
p630
sg37
S'@DAL'
p631
sg39
S'--'
p632
sg41
S'--'
p633
sg42
S'--'
p634
ssg111
(dp635
g5
S'--'
p636
sg7
S'--'
p637
sg9
g10
sg11
S'--'
p638
sg13
g10
sg15
S'Greg Salas'
p639
sg17
S'2012'
p640
sg19
S'12'
p641
sg21
S'--'
p642
sg23
S'11/26'
p643
sg25
S'--'
p644
sg27
S'--'
p645
sg29
S'--'
p646
sg31
S'L22-30'
p647
sg33
S'--'
p648
sg35
S'--'
p649
sg37
S'CAR'
p650
sg39
S'--'
p651
sg41
S'--'
p652
sg42
S'--'
p653
ssg469
(dp654
g5
S'--'
p655
sg7
S'--'
p656
sg9
g10
sg11
S'--'
p657
sg13
g10
sg15
S'Greg Salas'
p658
sg17
S'2012'
p659
sg19
S'15'
p660
sg21
S'--'
p661
sg23
S'12/13'
p662
sg25
S'--'
p663
sg27
S'--'
p664
sg29
S'--'
p665
sg31
S'L13-34'
p666
sg33
S'--'
p667
sg35
S'--'
p668
sg37
S'CIN'
p669
sg39
S'--'
p670
sg41
S'--'
p671
sg42
S'--'
p672
ssg489
(dp673
g5
S'--'
p674
sg7
S'--'
p675
sg9
g10
sg11
S'--'
p676
sg13
g10
sg15
S'Greg Salas'
p677
sg17
S'2012'
p678
sg19
S'14'
p679
sg21
S'--'
p680
sg23
S'12/09'
p681
sg25
S'--'
p682
sg27
S'--'
p683
sg29
S'--'
p684
sg31
S'W23-21'
p685
sg33
S'--'
p686
sg35
S'--'
p687
sg37
S'@TB'
p688
sg39
S'--'
p689
sg41
S'--'
p690
sg42
S'--'
p691
ssg3
(dp692
g5
S'--'
p693
sg7
S'--'
p694
sg9
g10
sg11
S'--'
p695
sg13
g10
sg15
S'Greg Salas'
p696
sg17
S'2012'
p697
sg19
S'17'
p698
sg21
S'--'
p699
sg23
S'12/30'
p700
sg25
S'--'
p701
sg27
S'--'
p702
sg29
S'--'
p703
sg31
S'L7-42'
p704
sg33
S'--'
p705
sg35
S'--'
p706
sg37
S'@NYG'
p707
sg39
S'--'
p708
sg41
S'--'
p709
sg42
S'--'
p710
ssg44
(dp711
g5
S'--'
p712
sg7
S'--'
p713
sg9
g10
sg11
S'--'
p714
sg13
g10
sg15
S'Greg Salas'
p715
sg17
S'2012'
p716
sg19
S'16'
p717
sg21
S'--'
p718
sg23
S'12/23'
p719
sg25
S'--'
p720
sg27
S'--'
p721
sg29
S'--'
p722
sg31
S'L20-27'
p723
sg33
S'--'
p724
sg35
S'--'
p725
sg37
S'WAS'
p726
sg39
S'--'
p727
sg41
S'--'
p728
sg42
S'--'
p729
ssg14
(dp730
g5
S'--'
p731
sg7
S'--'
p732
sg9
g10
sg11
S'--'
p733
sg13
g10
sg15
S'Greg Salas'
p734
sg17
S'2012'
p735
sg19
g14
sg21
S'--'
p736
sg23
S'09/09'
p737
sg25
S'--'
p738
sg27
S'--'
p739
sg29
S'--'
p740
sg31
S'W34-13'
p741
sg33
S'--'
p742
sg35
S'--'
p743
sg37
S'@TEN'
p744
sg39
S'--'
p745
sg41
S'--'
p746
sg42
S'--'
p747
ssg160
(dp748
g5
S'--'
p749
sg7
S'--'
p750
sg9
g10
sg11
S'--'
p751
sg13
g10
sg15
S'Greg Salas'
p752
sg17
S'2012'
p753
sg19
g160
sg21
S'--'
p754
sg23
S'09/16'
p755
sg25
S'--'
p756
sg27
S'--'
p757
sg29
S'--'
p758
sg31
S'L18-20'
p759
sg33
S'--'
p760
sg35
S'--'
p761
sg37
S'ARI'
p762
sg39
S'--'
p763
sg41
S'--'
p764
sg42
S'--'
p765
sss.