(dp0
S'2015'
p1
(dp2
S'11'
p3
(dp4
S'RushTD'
p5
S''
p6
sS'RushYds'
p7
g6
sS'GS'
p8
g6
sS'Lost'
p9
g6
sS'G'
p10
g6
sS'Player'
p11
S'Hakeem Nicks'
p12
sS'Year'
p13
S'2015'
p14
sS'WK'
p15
S'11'
p16
sS'RushAvg'
p17
g6
sS'Game Date'
p18
S'Bye'
p19
sS'RecAvg'
p20
g6
sS'FUM'
p21
g6
sS'RushAtt'
p22
g6
sS'Result'
p23
g6
sS'RecYds'
p24
g6
sS'Rec'
p25
g6
sS'Opp'
p26
g6
sS'RecLng'
p27
g6
sS'RecTD'
p28
g6
sS'RushLng'
p29
g6
ssS'13'
p30
(dp31
g5
S'--'
p32
sg7
S'--'
p33
sg8
S'0'
p34
sg9
S'--'
p35
sg10
S'1'
p36
sg11
S'Hakeem Nicks'
p37
sg13
S'2015'
p38
sg15
S'13'
p39
sg17
S'--'
p40
sg18
S'12/06'
p41
sg20
S'7.0'
p42
sg21
S'--'
p43
sg22
S'--'
p44
sg23
S'L20-23'
p45
sg24
S'7'
p46
sg25
g36
sg26
S'NYJ'
p47
sg27
g46
sg28
g34
sg29
S'--'
p48
ssS'12'
p49
(dp50
g5
S'--'
p51
sg7
S'--'
p52
sg8
g34
sg9
S'--'
p53
sg10
g36
sg11
S'Hakeem Nicks'
p54
sg13
S'2015'
p55
sg15
S'12'
p56
sg17
S'--'
p57
sg18
S'11/29'
p58
sg20
S'4.0'
p59
sg21
S'--'
p60
sg22
S'--'
p61
sg23
S'L14-20'
p62
sg24
S'4'
p63
sg25
g36
sg26
S'@WAS'
p64
sg27
g63
sg28
g34
sg29
S'--'
p65
ssS'15'
p66
(dp67
g5
S'--'
p68
sg7
S'--'
p69
sg8
g34
sg9
S'--'
p70
sg10
g36
sg11
S'Hakeem Nicks'
p71
sg13
S'2015'
p72
sg15
S'15'
p73
sg17
S'--'
p74
sg18
S'12/20'
p75
sg20
S'10.0'
p76
sg21
S'--'
p77
sg22
S'--'
p78
sg23
S'L35-38'
p79
sg24
S'10'
p80
sg25
g36
sg26
S'CAR'
p81
sg27
S'10'
p82
sg28
g34
sg29
S'--'
p83
ssS'14'
p84
(dp85
g5
S'--'
p86
sg7
S'--'
p87
sg8
g34
sg9
S'--'
p88
sg10
g36
sg11
S'Hakeem Nicks'
p89
sg13
S'2015'
p90
sg15
S'14'
p91
sg17
S'--'
p92
sg18
S'12/14'
p93
sg20
S'5.0'
p94
sg21
S'--'
p95
sg22
S'--'
p96
sg23
S'W31-24'
p97
sg24
S'5'
p98
sg25
g36
sg26
S'@MIA'
p99
sg27
g98
sg28
g34
sg29
S'--'
p100
ssS'17'
p101
(dp102
g5
S'--'
p103
sg7
S'--'
p104
sg8
g36
sg9
S'--'
p105
sg10
g36
sg11
S'Hakeem Nicks'
p106
sg13
S'2015'
p107
sg15
S'17'
p108
sg17
S'--'
p109
sg18
S'01/03'
p110
sg20
S'12.0'
p111
sg21
S'--'
p112
sg22
S'--'
p113
sg23
S'L30-35'
p114
sg24
S'24'
p115
sg25
S'2'
p116
sg26
S'PHI'
p117
sg27
S'19'
p118
sg28
g34
sg29
S'--'
p119
ssS'16'
p120
(dp121
g5
S'--'
p122
sg7
S'--'
p123
sg8
g36
sg9
S'--'
p124
sg10
g36
sg11
S'Hakeem Nicks'
p125
sg13
S'2015'
p126
sg15
S'16'
p127
sg17
S'--'
p128
sg18
S'12/27'
p129
sg20
S'4.0'
p130
sg21
S'--'
p131
sg22
S'--'
p132
sg23
S'L17-49'
p133
sg24
g63
sg25
g36
sg26
S'@MIN'
p134
sg27
g63
sg28
g34
sg29
S'--'
p135
sssS'2014'
p136
(dp137
g3
(dp138
g5
S'--'
p139
sg7
S'--'
p140
sg8
g34
sg9
S'--'
p141
sg10
g36
sg11
S'Hakeem Nicks'
p142
sg13
S'2014'
p143
sg15
S'11'
p144
sg17
S'--'
p145
sg18
S'11/16'
p146
sg20
S'7.5'
p147
sg21
S'--'
p148
sg22
S'--'
p149
sg23
S'L20-42'
p150
sg24
S'15'
p151
sg25
g116
sg26
S'NE'
p152
sg27
S'10T'
p153
sg28
g36
sg29
S'--'
p154
ssS'10'
p155
(dp156
g5
g6
sg7
g6
sg8
g6
sg9
g6
sg10
g6
sg11
S'Hakeem Nicks'
p157
sg13
S'2014'
p158
sg15
S'10'
p159
sg17
g6
sg18
S'Bye'
p160
sg20
g6
sg21
g6
sg22
g6
sg23
g6
sg24
g6
sg25
g6
sg26
g6
sg27
g6
sg28
g6
sg29
g6
ssg30
(dp161
g5
S'--'
p162
sg7
S'--'
p163
sg8
g34
sg9
S'--'
p164
sg10
g36
sg11
S'Hakeem Nicks'
p165
sg13
S'2014'
p166
sg15
S'13'
p167
sg17
S'--'
p168
sg18
S'11/30'
p169
sg20
S'--'
p170
sg21
S'--'
p171
sg22
S'--'
p172
sg23
S'W49-27'
p173
sg24
S'--'
p174
sg25
S'--'
p175
sg26
S'WAS'
p176
sg27
S'--'
p177
sg28
S'--'
p178
sg29
S'--'
p179
ssg49
(dp180
g5
S'--'
p181
sg7
S'--'
p182
sg8
g36
sg9
S'--'
p183
sg10
g36
sg11
S'Hakeem Nicks'
p184
sg13
S'2014'
p185
sg15
S'12'
p186
sg17
S'--'
p187
sg18
S'11/23'
p188
sg20
S'16.0'
p189
sg21
S'--'
p190
sg22
S'--'
p191
sg23
S'W23-3'
p192
sg24
S'16'
p193
sg25
g36
sg26
S'JAC'
p194
sg27
S'16'
p195
sg28
g34
sg29
S'--'
p196
ssg66
(dp197
g5
S'--'
p198
sg7
S'--'
p199
sg8
g34
sg9
S'--'
p200
sg10
g36
sg11
S'Hakeem Nicks'
p201
sg13
S'2014'
p202
sg15
S'15'
p203
sg17
S'--'
p204
sg18
S'12/14'
p205
sg20
S'22.0'
p206
sg21
S'--'
p207
sg22
S'--'
p208
sg23
S'W17-10'
p209
sg24
S'44'
p210
sg25
g116
sg26
S'HOU'
p211
sg27
S'26T'
p212
sg28
g36
sg29
S'--'
p213
ssg84
(dp214
g5
S'--'
p215
sg7
S'--'
p216
sg8
g34
sg9
S'--'
p217
sg10
g36
sg11
S'Hakeem Nicks'
p218
sg13
S'2014'
p219
sg15
S'14'
p220
sg17
S'--'
p221
sg18
S'12/07'
p222
sg20
S'--'
p223
sg21
S'--'
p224
sg22
S'--'
p225
sg23
S'W25-24'
p226
sg24
g34
sg25
g34
sg26
S'@CLE'
p227
sg27
S'--'
p228
sg28
g34
sg29
S'--'
p229
ssg101
(dp230
g5
S'--'
p231
sg7
S'--'
p232
sg8
g34
sg9
S'--'
p233
sg10
g36
sg11
S'Hakeem Nicks'
p234
sg13
S'2014'
p235
sg15
S'17'
p236
sg17
S'--'
p237
sg18
S'12/28'
p238
sg20
S'15.3'
p239
sg21
S'--'
p240
sg22
S'--'
p241
sg23
S'W27-10'
p242
sg24
S'46'
p243
sg25
S'3'
p244
sg26
S'@TEN'
p245
sg27
S'21'
p246
sg28
g34
sg29
S'--'
p247
ssg120
(dp248
g5
S'--'
p249
sg7
S'--'
p250
sg8
g34
sg9
S'--'
p251
sg10
g36
sg11
S'Hakeem Nicks'
p252
sg13
S'2014'
p253
sg15
S'16'
p254
sg17
S'--'
p255
sg18
S'12/21'
p256
sg20
S'8.0'
p257
sg21
S'--'
p258
sg22
S'--'
p259
sg23
S'L7-42'
p260
sg24
S'72'
p261
sg25
S'9'
p262
sg26
S'@DAL'
p263
sg27
S'21'
p264
sg28
g34
sg29
S'--'
p265
ssg36
(dp266
g5
S'--'
p267
sg7
S'--'
p268
sg8
g34
sg9
S'--'
p269
sg10
g36
sg11
S'Hakeem Nicks'
p270
sg13
S'2014'
p271
sg15
g36
sg17
S'--'
p272
sg18
S'09/07'
p273
sg20
S'7.2'
p274
sg21
S'--'
p275
sg22
S'--'
p276
sg23
S'L24-31'
p277
sg24
S'36'
p278
sg25
g98
sg26
S'@DEN'
p279
sg27
S'13'
p280
sg28
g36
sg29
S'--'
p281
ssg244
(dp282
g5
S'--'
p283
sg7
S'--'
p284
sg8
g34
sg9
S'--'
p285
sg10
g36
sg11
S'Hakeem Nicks'
p286
sg13
S'2014'
p287
sg15
g244
sg17
S'--'
p288
sg18
S'09/21'
p289
sg20
S'12.5'
p290
sg21
S'--'
p291
sg22
S'--'
p292
sg23
S'W44-17'
p293
sg24
S'50'
p294
sg25
g63
sg26
S'@JAC'
p295
sg27
S'29'
p296
sg28
g36
sg29
S'--'
p297
ssg116
(dp298
g5
S'--'
p299
sg7
S'--'
p300
sg8
g36
sg9
S'--'
p301
sg10
g36
sg11
S'Hakeem Nicks'
p302
sg13
S'2014'
p303
sg15
g116
sg17
S'--'
p304
sg18
S'09/15'
p305
sg20
S'-4.0'
p306
sg21
S'--'
p307
sg22
S'--'
p308
sg23
S'L27-30'
p309
sg24
S'-4'
p310
sg25
g36
sg26
S'PHI'
p311
sg27
S'-4'
p312
sg28
g34
sg29
S'--'
p313
ssg98
(dp314
g5
S'--'
p315
sg7
S'--'
p316
sg8
g34
sg9
S'--'
p317
sg10
g36
sg11
S'Hakeem Nicks'
p318
sg13
S'2014'
p319
sg15
g98
sg17
S'--'
p320
sg18
S'10/05'
p321
sg20
S'9.7'
p322
sg21
S'--'
p323
sg22
S'--'
p324
sg23
S'W20-13'
p325
sg24
S'29'
p326
sg25
g244
sg26
S'BAL'
p327
sg27
S'16'
p328
sg28
g34
sg29
S'--'
p329
ssg63
(dp330
g5
S'--'
p331
sg7
S'--'
p332
sg8
g36
sg9
S'--'
p333
sg10
g36
sg11
S'Hakeem Nicks'
p334
sg13
S'2014'
p335
sg15
g63
sg17
S'--'
p336
sg18
S'09/28'
p337
sg20
S'6.0'
p338
sg21
S'--'
p339
sg22
S'--'
p340
sg23
S'W41-17'
p341
sg24
S'12'
p342
sg25
g116
sg26
S'TEN'
p343
sg27
S'8'
p344
sg28
g34
sg29
S'--'
p345
ssg46
(dp346
g5
S'--'
p347
sg7
S'--'
p348
sg8
g34
sg9
S'--'
p349
sg10
g36
sg11
S'Hakeem Nicks'
p350
sg13
S'2014'
p351
sg15
g46
sg17
S'--'
p352
sg18
S'10/19'
p353
sg20
S'--'
p354
sg21
S'--'
p355
sg22
S'--'
p356
sg23
S'W27-0'
p357
sg24
g34
sg25
g34
sg26
S'CIN'
p358
sg27
S'--'
p359
sg28
g34
sg29
S'--'
p360
ssS'6'
p361
(dp362
g5
S'--'
p363
sg7
S'--'
p364
sg8
g36
sg9
S'--'
p365
sg10
g36
sg11
S'Hakeem Nicks'
p366
sg13
S'2014'
p367
sg15
g361
sg17
S'--'
p368
sg18
S'10/09'
p369
sg20
S'9.0'
p370
sg21
S'--'
p371
sg22
S'--'
p372
sg23
S'W33-28'
p373
sg24
S'18'
p374
sg25
g116
sg26
S'@HOU'
p375
sg27
S'12'
p376
sg28
g34
sg29
S'--'
p377
ssg262
(dp378
g5
S'--'
p379
sg7
S'--'
p380
sg8
g36
sg9
S'--'
p381
sg10
g36
sg11
S'Hakeem Nicks'
p382
sg13
S'2014'
p383
sg15
g262
sg17
S'--'
p384
sg18
S'11/03'
p385
sg20
S'14.7'
p386
sg21
S'--'
p387
sg22
S'--'
p388
sg23
S'W40-24'
p389
sg24
S'44'
p390
sg25
g244
sg26
S'@NYG'
p391
sg27
S'22'
p392
sg28
g34
sg29
S'--'
p393
ssg344
(dp394
g5
S'--'
p395
sg7
S'--'
p396
sg8
g36
sg9
S'--'
p397
sg10
g36
sg11
S'Hakeem Nicks'
p398
sg13
S'2014'
p399
sg15
g344
sg17
S'--'
p400
sg18
S'10/26'
p401
sg20
S'27.0'
p402
sg21
S'--'
p403
sg22
S'--'
p404
sg23
S'L34-51'
p405
sg24
S'27'
p406
sg25
g36
sg26
S'@PIT'
p407
sg27
S'27'
p408
sg28
g34
sg29
S'--'
p409
sssS'2011'
p410
(dp411
g3
(dp412
g5
S'--'
p413
sg7
S'--'
p414
sg8
g36
sg9
S'--'
p415
sg10
g36
sg11
S'Hakeem Nicks'
p416
sg13
S'2011'
p417
sg15
S'11'
p418
sg17
S'--'
p419
sg18
S'11/20'
p420
sg20
S'23.0'
p421
sg21
S'--'
p422
sg22
S'--'
p423
sg23
S'L10-17'
p424
sg24
S'69'
p425
sg25
g244
sg26
S'PHI'
p426
sg27
S'47'
p427
sg28
g34
sg29
S'--'
p428
ssg155
(dp429
g5
S'--'
p430
sg7
S'--'
p431
sg8
g36
sg9
S'--'
p432
sg10
g36
sg11
S'Hakeem Nicks'
p433
sg13
S'2011'
p434
sg15
S'10'
p435
sg17
S'--'
p436
sg18
S'11/13'
p437
sg20
S'20.5'
p438
sg21
S'--'
p439
sg22
S'--'
p440
sg23
S'L20-27'
p441
sg24
S'41'
p442
sg25
g116
sg26
S'@SF'
p443
sg27
S'32T'
p444
sg28
g36
sg29
S'--'
p445
ssg30
(dp446
g5
S'--'
p447
sg7
S'--'
p448
sg8
g36
sg9
S'--'
p449
sg10
g36
sg11
S'Hakeem Nicks'
p450
sg13
S'2011'
p451
sg15
S'13'
p452
sg17
S'--'
p453
sg18
S'12/04'
p454
sg20
S'12.6'
p455
sg21
S'--'
p456
sg22
S'--'
p457
sg23
S'L35-38'
p458
sg24
S'88'
p459
sg25
g46
sg26
S'GB'
p460
sg27
S'51'
p461
sg28
g116
sg29
S'--'
p462
ssg49
(dp463
g5
S'--'
p464
sg7
S'--'
p465
sg8
g36
sg9
S'--'
p466
sg10
g36
sg11
S'Hakeem Nicks'
p467
sg13
S'2011'
p468
sg15
S'12'
p469
sg17
S'--'
p470
sg18
S'11/28'
p471
sg20
S'12.4'
p472
sg21
S'--'
p473
sg22
S'--'
p474
sg23
S'L24-49'
p475
sg24
S'87'
p476
sg25
g46
sg26
S'@NO'
p477
sg27
S'23'
p478
sg28
g34
sg29
S'--'
p479
ssg66
(dp480
g5
S'--'
p481
sg7
S'--'
p482
sg8
g36
sg9
S'--'
p483
sg10
g36
sg11
S'Hakeem Nicks'
p484
sg13
S'2011'
p485
sg15
S'15'
p486
sg17
S'--'
p487
sg18
S'12/18'
p488
sg20
S'14.6'
p489
sg21
S'--'
p490
sg22
S'--'
p491
sg23
S'L10-23'
p492
sg24
S'73'
p493
sg25
g98
sg26
S'WAS'
p494
sg27
S'20'
p495
sg28
g34
sg29
S'--'
p496
ssg84
(dp497
g5
S'--'
p498
sg7
S'--'
p499
sg8
g36
sg9
S'--'
p500
sg10
g36
sg11
S'Hakeem Nicks'
p501
sg13
S'2011'
p502
sg15
S'14'
p503
sg17
S'--'
p504
sg18
S'12/11'
p505
sg20
S'20.4'
p506
sg21
S'--'
p507
sg22
S'--'
p508
sg23
S'W37-34'
p509
sg24
S'163'
p510
sg25
g344
sg26
S'@DAL'
p511
sg27
S'64'
p512
sg28
g34
sg29
S'--'
p513
ssg101
(dp514
g5
S'--'
p515
sg7
S'--'
p516
sg8
g36
sg9
S'--'
p517
sg10
g36
sg11
S'Hakeem Nicks'
p518
sg13
S'2011'
p519
sg15
S'17'
p520
sg17
S'--'
p521
sg18
S'01/01'
p522
sg20
S'15.2'
p523
sg21
S'--'
p524
sg22
S'--'
p525
sg23
S'W31-14'
p526
sg24
S'76'
p527
sg25
g98
sg26
S'DAL'
p528
sg27
S'36'
p529
sg28
g36
sg29
S'--'
p530
ssg120
(dp531
g5
S'--'
p532
sg7
S'--'
p533
sg8
g36
sg9
S'--'
p534
sg10
g36
sg11
S'Hakeem Nicks'
p535
sg13
S'2011'
p536
sg15
S'16'
p537
sg17
S'--'
p538
sg18
S'12/24'
p539
sg20
S'20.0'
p540
sg21
S'--'
p541
sg22
S'--'
p542
sg23
S'W29-14'
p543
sg24
S'20'
p544
sg25
g36
sg26
S'@NYJ'
p545
sg27
S'20'
p546
sg28
g34
sg29
S'--'
p547
ssg36
(dp548
g5
S'--'
p549
sg7
S'--'
p550
sg8
g36
sg9
S'--'
p551
sg10
g36
sg11
S'Hakeem Nicks'
p552
sg13
S'2011'
p553
sg15
g36
sg17
S'--'
p554
sg18
S'09/11'
p555
sg20
S'17.4'
p556
sg21
S'--'
p557
sg22
S'--'
p558
sg23
S'L14-28'
p559
sg24
S'122'
p560
sg25
g46
sg26
S'@WAS'
p561
sg27
S'68'
p562
sg28
g34
sg29
S'--'
p563
ssg244
(dp564
g5
S'--'
p565
sg7
S'--'
p566
sg8
g36
sg9
S'--'
p567
sg10
g36
sg11
S'Hakeem Nicks'
p568
sg13
S'2011'
p569
sg15
g244
sg17
S'--'
p570
sg18
S'09/25'
p571
sg20
S'8.3'
p572
sg21
S'--'
p573
sg22
S'--'
p574
sg23
S'W29-16'
p575
sg24
S'25'
p576
sg25
g244
sg26
S'@PHI'
p577
sg27
g262
sg28
g34
sg29
S'--'
p578
ssg116
(dp579
g5
S'--'
p580
sg7
S'--'
p581
sg8
g36
sg9
S'--'
p582
sg10
g36
sg11
S'Hakeem Nicks'
p583
sg13
S'2011'
p584
sg15
g116
sg17
S'--'
p585
sg18
S'09/19'
p586
sg20
S'9.5'
p587
sg21
S'--'
p588
sg22
S'--'
p589
sg23
S'W28-16'
p590
sg24
S'38'
p591
sg25
g63
sg26
S'STL'
p592
sg27
S'23'
p593
sg28
g36
sg29
S'--'
p594
ssg98
(dp595
g5
S'--'
p596
sg7
S'--'
p597
sg8
g36
sg9
S'--'
p598
sg10
g36
sg11
S'Hakeem Nicks'
p599
sg13
S'2011'
p600
sg15
g98
sg17
S'--'
p601
sg18
S'10/09'
p602
sg20
S'16.3'
p603
sg21
S'--'
p604
sg22
S'--'
p605
sg23
S'L25-36'
p606
sg24
S'65'
p607
sg25
g63
sg26
S'SEA'
p608
sg27
S'19T'
p609
sg28
g36
sg29
S'--'
p610
ssg63
(dp611
g5
S'--'
p612
sg7
S'--'
p613
sg8
g36
sg9
S'--'
p614
sg10
g36
sg11
S'Hakeem Nicks'
p615
sg13
S'2011'
p616
sg15
g63
sg17
S'--'
p617
sg18
S'10/02'
p618
sg20
S'16.2'
p619
sg21
S'--'
p620
sg22
S'--'
p621
sg23
S'W31-27'
p622
sg24
S'162'
p623
sg25
S'10'
p624
sg26
S'@ARI'
p625
sg27
S'29T'
p626
sg28
g36
sg29
S'--'
p627
ssg46
(dp628
g5
g6
sg7
g6
sg8
g6
sg9
g6
sg10
g6
sg11
S'Hakeem Nicks'
p629
sg13
S'2011'
p630
sg15
g46
sg17
g6
sg18
S'Bye'
p631
sg20
g6
sg21
g6
sg22
g6
sg23
g6
sg24
g6
sg25
g6
sg26
g6
sg27
g6
sg28
g6
sg29
g6
ssg361
(dp632
g5
S'--'
p633
sg7
S'--'
p634
sg8
g36
sg9
S'--'
p635
sg10
g36
sg11
S'Hakeem Nicks'
p636
sg13
S'2011'
p637
sg15
g361
sg17
S'--'
p638
sg18
S'10/16'
p639
sg20
S'24.0'
p640
sg21
S'--'
p641
sg22
S'--'
p642
sg23
S'W27-24'
p643
sg24
S'96'
p644
sg25
g63
sg26
S'BUF'
p645
sg27
S'60'
p646
sg28
g34
sg29
S'--'
p647
ssg262
(dp648
g5
S'--'
p649
sg7
S'--'
p650
sg8
g34
sg9
S'--'
p651
sg10
g34
sg11
S'Hakeem Nicks'
p652
sg13
S'2011'
p653
sg15
g262
sg17
S'--'
p654
sg18
S'11/06'
p655
sg20
S'--'
p656
sg21
S'--'
p657
sg22
S'--'
p658
sg23
S'W24-20'
p659
sg24
S'--'
p660
sg25
S'--'
p661
sg26
S'@NE'
p662
sg27
S'--'
p663
sg28
S'--'
p664
sg29
S'--'
p665
ssg344
(dp666
g5
S'--'
p667
sg7
S'--'
p668
sg8
g36
sg9
S'--'
p669
sg10
g36
sg11
S'Hakeem Nicks'
p670
sg13
S'2011'
p671
sg15
g344
sg17
S'--'
p672
sg18
S'10/30'
p673
sg20
S'11.2'
p674
sg21
S'--'
p675
sg22
S'--'
p676
sg23
S'W20-17'
p677
sg24
S'67'
p678
sg25
g361
sg26
S'MIA'
p679
sg27
S'17'
p680
sg28
g34
sg29
S'--'
p681
sssS'2010'
p682
(dp683
g3
(dp684
g5
S'--'
p685
sg7
S'--'
p686
sg8
g36
sg9
g34
sg10
g36
sg11
S'Hakeem Nicks'
p687
sg13
S'2010'
p688
sg15
S'11'
p689
sg17
S'--'
p690
sg18
S'11/21'
p691
sg20
S'10.8'
p692
sg21
g36
sg22
S'--'
p693
sg23
S'L17-27'
p694
sg24
S'65'
p695
sg25
g361
sg26
S'@PHI'
p696
sg27
S'18'
p697
sg28
g34
sg29
S'--'
p698
ssg155
(dp699
g5
S'--'
p700
sg7
S'--'
p701
sg8
g36
sg9
S'--'
p702
sg10
g36
sg11
S'Hakeem Nicks'
p703
sg13
S'2010'
p704
sg15
S'10'
p705
sg17
S'--'
p706
sg18
S'11/14'
p707
sg20
S'16.4'
p708
sg21
S'--'
p709
sg22
S'--'
p710
sg23
S'L20-33'
p711
sg24
S'82'
p712
sg25
g98
sg26
S'DAL'
p713
sg27
S'23'
p714
sg28
g34
sg29
S'--'
p715
ssg30
(dp716
g5
S'--'
p717
sg7
S'--'
p718
sg8
g34
sg9
S'--'
p719
sg10
g34
sg11
S'Hakeem Nicks'
p720
sg13
S'2010'
p721
sg15
S'13'
p722
sg17
S'--'
p723
sg18
S'12/05'
p724
sg20
S'--'
p725
sg21
S'--'
p726
sg22
S'--'
p727
sg23
S'W31-7'
p728
sg24
S'--'
p729
sg25
S'--'
p730
sg26
S'WAS'
p731
sg27
S'--'
p732
sg28
S'--'
p733
sg29
S'--'
p734
ssg49
(dp735
g5
S'--'
p736
sg7
S'--'
p737
sg8
g34
sg9
S'--'
p738
sg10
g34
sg11
S'Hakeem Nicks'
p739
sg13
S'2010'
p740
sg15
S'12'
p741
sg17
S'--'
p742
sg18
S'11/28'
p743
sg20
S'--'
p744
sg21
S'--'
p745
sg22
S'--'
p746
sg23
S'W24-20'
p747
sg24
S'--'
p748
sg25
S'--'
p749
sg26
S'JAC'
p750
sg27
S'--'
p751
sg28
S'--'
p752
sg29
S'--'
p753
ssg66
(dp754
g5
S'--'
p755
sg7
S'--'
p756
sg8
g36
sg9
S'--'
p757
sg10
g36
sg11
S'Hakeem Nicks'
p758
sg13
S'2010'
p759
sg15
S'15'
p760
sg17
S'--'
p761
sg18
S'12/19'
p762
sg20
S'10.5'
p763
sg21
S'--'
p764
sg22
S'--'
p765
sg23
S'L31-38'
p766
sg24
S'63'
p767
sg25
g361
sg26
S'PHI'
p768
sg27
S'22'
p769
sg28
g36
sg29
S'--'
p770
ssg84
(dp771
g5
S'--'
p772
sg7
S'--'
p773
sg8
g36
sg9
S'--'
p774
sg10
g36
sg11
S'Hakeem Nicks'
p775
sg13
S'2010'
p776
sg15
S'14'
p777
sg17
S'--'
p778
sg18
S'12/13'
p779
sg20
S'13.7'
p780
sg21
S'--'
p781
sg22
S'--'
p782
sg23
S'W21-3'
p783
sg24
S'96'
p784
sg25
g46
sg26
S'@MIN'
p785
sg27
S'30'
p786
sg28
g34
sg29
S'--'
p787
ssg101
(dp788
g5
S'--'
p789
sg7
S'--'
p790
sg8
g34
sg9
S'--'
p791
sg10
g34
sg11
S'Hakeem Nicks'
p792
sg13
S'2010'
p793
sg15
S'17'
p794
sg17
S'--'
p795
sg18
S'01/02'
p796
sg20
S'--'
p797
sg21
S'--'
p798
sg22
S'--'
p799
sg23
S'W17-14'
p800
sg24
S'--'
p801
sg25
S'--'
p802
sg26
S'@WAS'
p803
sg27
S'--'
p804
sg28
S'--'
p805
sg29
S'--'
p806
ssg120
(dp807
g5
S'--'
p808
sg7
S'--'
p809
sg8
g36
sg9
S'--'
p810
sg10
g36
sg11
S'Hakeem Nicks'
p811
sg13
S'2010'
p812
sg15
S'16'
p813
sg17
S'--'
p814
sg18
S'12/26'
p815
sg20
S'23.3'
p816
sg21
S'--'
p817
sg22
S'--'
p818
sg23
S'L17-45'
p819
sg24
S'93'
p820
sg25
g63
sg26
S'@GB'
p821
sg27
S'36T'
p822
sg28
g36
sg29
S'--'
p823
ssg36
(dp824
g5
S'--'
p825
sg7
S'--'
p826
sg8
g36
sg9
S'--'
p827
sg10
g36
sg11
S'Hakeem Nicks'
p828
sg13
S'2010'
p829
sg15
g36
sg17
S'--'
p830
sg18
S'09/12'
p831
sg20
S'18.8'
p832
sg21
S'--'
p833
sg22
S'--'
p834
sg23
S'W31-18'
p835
sg24
S'75'
p836
sg25
g63
sg26
S'CAR'
p837
sg27
S'26T'
p838
sg28
g244
sg29
S'--'
p839
ssg244
(dp840
g5
S'--'
p841
sg7
S'--'
p842
sg8
g36
sg9
S'--'
p843
sg10
g36
sg11
S'Hakeem Nicks'
p844
sg13
S'2010'
p845
sg15
g244
sg17
S'--'
p846
sg18
S'09/26'
p847
sg20
S'8.0'
p848
sg21
S'--'
p849
sg22
S'--'
p850
sg23
S'L10-29'
p851
sg24
S'56'
p852
sg25
g46
sg26
S'TEN'
p853
sg27
S'20'
p854
sg28
g34
sg29
S'--'
p855
ssg116
(dp856
g5
S'--'
p857
sg7
S'--'
p858
sg8
g34
sg9
S'--'
p859
sg10
g36
sg11
S'Hakeem Nicks'
p860
sg13
S'2010'
p861
sg15
g116
sg17
S'--'
p862
sg18
S'09/19'
p863
sg20
S'19.0'
p864
sg21
S'--'
p865
sg22
S'--'
p866
sg23
S'L14-38'
p867
sg24
S'38'
p868
sg25
g116
sg26
S'@IND'
p869
sg27
S'31T'
p870
sg28
g36
sg29
S'--'
p871
ssg98
(dp872
g5
S'--'
p873
sg7
S'--'
p874
sg8
g36
sg9
S'--'
p875
sg10
g36
sg11
S'Hakeem Nicks'
p876
sg13
S'2010'
p877
sg15
g98
sg17
S'--'
p878
sg18
S'10/10'
p879
sg20
S'10.8'
p880
sg21
S'--'
p881
sg22
S'--'
p882
sg23
S'W34-10'
p883
sg24
S'130'
p884
sg25
S'12'
p885
sg26
S'@HOU'
p886
sg27
S'27'
p887
sg28
g116
sg29
S'--'
p888
ssg63
(dp889
g5
S'--'
p890
sg7
S'--'
p891
sg8
g36
sg9
S'--'
p892
sg10
g36
sg11
S'Hakeem Nicks'
p893
sg13
S'2010'
p894
sg15
g63
sg17
S'--'
p895
sg18
S'10/03'
p896
sg20
S'13.8'
p897
sg21
S'--'
p898
sg22
S'--'
p899
sg23
S'W17-3'
p900
sg24
S'110'
p901
sg25
g344
sg26
S'CHI'
p902
sg27
S'30'
p903
sg28
g34
sg29
S'--'
p904
ssg46
(dp905
g5
S'--'
p906
sg7
S'--'
p907
sg8
g36
sg9
S'--'
p908
sg10
g36
sg11
S'Hakeem Nicks'
p909
sg13
S'2010'
p910
sg15
g46
sg17
S'--'
p911
sg18
S'10/25'
p912
sg20
S'12.0'
p913
sg21
S'--'
p914
sg22
S'--'
p915
sg23
S'W41-35'
p916
sg24
S'108'
p917
sg25
g262
sg26
S'@DAL'
p918
sg27
S'24'
p919
sg28
g116
sg29
S'--'
p920
ssg361
(dp921
g5
S'--'
p922
sg7
S'--'
p923
sg8
g36
sg9
S'--'
p924
sg10
g36
sg11
S'Hakeem Nicks'
p925
sg13
S'2010'
p926
sg15
g361
sg17
S'--'
p927
sg18
S'10/17'
p928
sg20
S'2.7'
p929
sg21
S'--'
p930
sg22
S'--'
p931
sg23
S'W28-20'
p932
sg24
g344
sg25
g244
sg26
S'DET'
p933
sg27
g46
sg28
g34
sg29
S'--'
p934
ssg262
(dp935
g5
S'--'
p936
sg7
S'--'
p937
sg8
g36
sg9
S'--'
p938
sg10
g36
sg11
S'Hakeem Nicks'
p939
sg13
S'2010'
p940
sg15
g262
sg17
S'--'
p941
sg18
S'11/07'
p942
sg20
S'21.3'
p943
sg21
S'--'
p944
sg22
S'--'
p945
sg23
S'W41-7'
p946
sg24
S'128'
p947
sg25
g361
sg26
S'@SEA'
p948
sg27
S'46T'
p949
sg28
g36
sg29
S'--'
p950
ssg344
(dp951
g5
g6
sg7
g6
sg8
g6
sg9
g6
sg10
g6
sg11
S'Hakeem Nicks'
p952
sg13
S'2010'
p953
sg15
g344
sg17
g6
sg18
S'Bye'
p954
sg20
g6
sg21
g6
sg22
g6
sg23
g6
sg24
g6
sg25
g6
sg26
g6
sg27
g6
sg28
g6
sg29
g6
sssS'2013'
p955
(dp956
g3
(dp957
g5
S'--'
p958
sg7
S'--'
p959
sg8
g36
sg9
S'--'
p960
sg10
g36
sg11
S'Hakeem Nicks'
p961
sg13
S'2013'
p962
sg15
S'11'
p963
sg17
S'--'
p964
sg18
S'11/17'
p965
sg20
S'12.5'
p966
sg21
S'--'
p967
sg22
S'--'
p968
sg23
S'W27-13'
p969
sg24
S'50'
p970
sg25
g63
sg26
S'GB'
p971
sg27
S'35'
p972
sg28
g34
sg29
S'--'
p973
ssg155
(dp974
g5
S'--'
p975
sg7
S'--'
p976
sg8
g36
sg9
S'--'
p977
sg10
g36
sg11
S'Hakeem Nicks'
p978
sg13
S'2013'
p979
sg15
S'10'
p980
sg17
S'--'
p981
sg18
S'11/10'
p982
sg20
S'12.3'
p983
sg21
S'--'
p984
sg22
S'--'
p985
sg23
S'W24-20'
p986
sg24
S'49'
p987
sg25
g63
sg26
S'OAK'
p988
sg27
S'25'
p989
sg28
g34
sg29
S'--'
p990
ssg30
(dp991
g5
S'--'
p992
sg7
S'--'
p993
sg8
g36
sg9
S'--'
p994
sg10
g36
sg11
S'Hakeem Nicks'
p995
sg13
S'2013'
p996
sg15
S'13'
p997
sg17
S'--'
p998
sg18
S'12/01'
p999
sg20
S'17.0'
p1000
sg21
S'--'
p1001
sg22
S'--'
p1002
sg23
S'W24-17'
p1003
sg24
S'34'
p1004
sg25
g116
sg26
S'@WAS'
p1005
sg27
S'19'
p1006
sg28
g34
sg29
S'--'
p1007
ssg49
(dp1008
g5
S'--'
p1009
sg7
S'--'
p1010
sg8
g34
sg9
S'--'
p1011
sg10
g34
sg11
S'Hakeem Nicks'
p1012
sg13
S'2013'
p1013
sg15
S'12'
p1014
sg17
S'--'
p1015
sg18
S'11/24'
p1016
sg20
S'--'
p1017
sg21
S'--'
p1018
sg22
S'--'
p1019
sg23
S'L21-24'
p1020
sg24
S'--'
p1021
sg25
S'--'
p1022
sg26
S'DAL'
p1023
sg27
S'--'
p1024
sg28
S'--'
p1025
sg29
S'--'
p1026
ssg66
(dp1027
g5
S'--'
p1028
sg7
S'--'
p1029
sg8
g36
sg9
S'--'
p1030
sg10
g36
sg11
S'Hakeem Nicks'
p1031
sg13
S'2013'
p1032
sg15
S'15'
p1033
sg17
S'--'
p1034
sg18
S'12/15'
p1035
sg20
S'5.0'
p1036
sg21
S'--'
p1037
sg22
S'--'
p1038
sg23
S'L0-23'
p1039
sg24
g98
sg25
g36
sg26
S'SEA'
p1040
sg27
g98
sg28
g34
sg29
S'--'
p1041
ssg84
(dp1042
g5
S'--'
p1043
sg7
S'--'
p1044
sg8
g36
sg9
S'--'
p1045
sg10
g36
sg11
S'Hakeem Nicks'
p1046
sg13
S'2013'
p1047
sg15
S'14'
p1048
sg17
S'--'
p1049
sg18
S'12/08'
p1050
sg20
S'27.0'
p1051
sg21
S'--'
p1052
sg22
S'--'
p1053
sg23
S'L14-37'
p1054
sg24
S'135'
p1055
sg25
g98
sg26
S'@SD'
p1056
sg27
S'51'
p1057
sg28
g34
sg29
S'--'
p1058
ssg101
(dp1059
g5
S'--'
p1060
sg7
S'--'
p1061
sg8
g36
sg9
S'--'
p1062
sg10
g36
sg11
S'Hakeem Nicks'
p1063
sg13
S'2013'
p1064
sg15
S'17'
p1065
sg17
S'--'
p1066
sg18
S'12/29'
p1067
sg20
S'25.0'
p1068
sg21
S'--'
p1069
sg22
S'--'
p1070
sg23
S'W20-6'
p1071
sg24
S'50'
p1072
sg25
g116
sg26
S'WAS'
p1073
sg27
S'35'
p1074
sg28
g34
sg29
S'--'
p1075
ssg120
(dp1076
g5
S'--'
p1077
sg7
S'--'
p1078
sg8
g36
sg9
S'--'
p1079
sg10
g36
sg11
S'Hakeem Nicks'
p1080
sg13
S'2013'
p1081
sg15
S'16'
p1082
sg17
S'--'
p1083
sg18
S'12/22'
p1084
sg20
S'13.0'
p1085
sg21
S'--'
p1086
sg22
S'--'
p1087
sg23
S'W23-20'
p1088
sg24
S'52'
p1089
sg25
g63
sg26
S'@DET'
p1090
sg27
S'16'
p1091
sg28
g34
sg29
S'--'
p1092
ssg36
(dp1093
g5
S'--'
p1094
sg7
S'--'
p1095
sg8
g36
sg9
S'--'
p1096
sg10
g36
sg11
S'Hakeem Nicks'
p1097
sg13
S'2013'
p1098
sg15
g36
sg17
S'--'
p1099
sg18
S'09/08'
p1100
sg20
S'22.8'
p1101
sg21
S'--'
p1102
sg22
S'--'
p1103
sg23
S'L31-36'
p1104
sg24
S'114'
p1105
sg25
g98
sg26
S'@DAL'
p1106
sg27
S'57'
p1107
sg28
g34
sg29
S'--'
p1108
ssg244
(dp1109
g5
S'--'
p1110
sg7
S'--'
p1111
sg8
g36
sg9
S'--'
p1112
sg10
g36
sg11
S'Hakeem Nicks'
p1113
sg13
S'2013'
p1114
sg15
g244
sg17
S'--'
p1115
sg18
S'09/22'
p1116
sg20
S'--'
p1117
sg21
S'--'
p1118
sg22
S'--'
p1119
sg23
S'L0-38'
p1120
sg24
g34
sg25
g34
sg26
S'@CAR'
p1121
sg27
S'--'
p1122
sg28
g34
sg29
S'--'
p1123
ssg116
(dp1124
g5
S'--'
p1125
sg7
S'--'
p1126
sg8
g36
sg9
S'--'
p1127
sg10
g36
sg11
S'Hakeem Nicks'
p1128
sg13
S'2013'
p1129
sg15
g116
sg17
S'--'
p1130
sg18
S'09/15'
p1131
sg20
S'20.8'
p1132
sg21
S'--'
p1133
sg22
S'--'
p1134
sg23
S'L23-41'
p1135
sg24
S'83'
p1136
sg25
g63
sg26
S'DEN'
p1137
sg27
S'34'
p1138
sg28
g34
sg29
S'--'
p1139
ssg98
(dp1140
g5
S'--'
p1141
sg7
S'--'
p1142
sg8
g36
sg9
S'--'
p1143
sg10
g36
sg11
S'Hakeem Nicks'
p1144
sg13
S'2013'
p1145
sg15
g98
sg17
S'--'
p1146
sg18
S'10/06'
p1147
sg20
S'15.8'
p1148
sg21
S'--'
p1149
sg22
S'--'
p1150
sg23
S'L21-36'
p1151
sg24
S'142'
p1152
sg25
g262
sg26
S'PHI'
p1153
sg27
S'49'
p1154
sg28
g34
sg29
S'--'
p1155
ssg63
(dp1156
g5
S'--'
p1157
sg7
S'--'
p1158
sg8
g36
sg9
S'--'
p1159
sg10
g36
sg11
S'Hakeem Nicks'
p1160
sg13
S'2013'
p1161
sg15
g63
sg17
S'--'
p1162
sg18
S'09/29'
p1163
sg20
S'11.0'
p1164
sg21
S'--'
p1165
sg22
S'--'
p1166
sg23
S'L7-31'
p1167
sg24
S'33'
p1168
sg25
g244
sg26
S'@KC'
p1169
sg27
S'16'
p1170
sg28
g34
sg29
S'--'
p1171
ssg46
(dp1172
g5
S'--'
p1173
sg7
S'--'
p1174
sg8
g36
sg9
S'--'
p1175
sg10
g36
sg11
S'Hakeem Nicks'
p1176
sg13
S'2013'
p1177
sg15
g46
sg17
S'--'
p1178
sg18
S'10/21'
p1179
sg20
S'14.0'
p1180
sg21
S'--'
p1181
sg22
S'--'
p1182
sg23
S'W23-7'
p1183
sg24
S'28'
p1184
sg25
g116
sg26
S'MIN'
p1185
sg27
S'21'
p1186
sg28
g34
sg29
S'--'
p1187
ssg361
(dp1188
g5
S'--'
p1189
sg7
S'--'
p1190
sg8
g36
sg9
S'--'
p1191
sg10
g36
sg11
S'Hakeem Nicks'
p1192
sg13
S'2013'
p1193
sg15
g361
sg17
S'--'
p1194
sg18
S'10/10'
p1195
sg20
S'17.5'
p1196
sg21
S'--'
p1197
sg22
S'--'
p1198
sg23
S'L21-27'
p1199
sg24
S'70'
p1200
sg25
g63
sg26
S'@CHI'
p1201
sg27
S'31'
p1202
sg28
g34
sg29
S'--'
p1203
ssg262
(dp1204
g5
g6
sg7
g6
sg8
g6
sg9
g6
sg10
g6
sg11
S'Hakeem Nicks'
p1205
sg13
S'2013'
p1206
sg15
g262
sg17
g6
sg18
S'Bye'
p1207
sg20
g6
sg21
g6
sg22
g6
sg23
g6
sg24
g6
sg25
g6
sg26
g6
sg27
g6
sg28
g6
sg29
g6
ssg344
(dp1208
g5
S'--'
p1209
sg7
S'--'
p1210
sg8
g36
sg9
S'--'
p1211
sg10
g36
sg11
S'Hakeem Nicks'
p1212
sg13
S'2013'
p1213
sg15
g344
sg17
S'--'
p1214
sg18
S'10/27'
p1215
sg20
S'7.3'
p1216
sg21
S'--'
p1217
sg22
S'--'
p1218
sg23
S'W15-7'
p1219
sg24
S'51'
p1220
sg25
g46
sg26
S'@PHI'
p1221
sg27
S'22'
p1222
sg28
g34
sg29
S'--'
p1223
sssS'2012'
p1224
(dp1225
g3
(dp1226
g5
g6
sg7
g6
sg8
g6
sg9
g6
sg10
g6
sg11
S'Hakeem Nicks'
p1227
sg13
S'2012'
p1228
sg15
S'11'
p1229
sg17
g6
sg18
S'Bye'
p1230
sg20
g6
sg21
g6
sg22
g6
sg23
g6
sg24
g6
sg25
g6
sg26
g6
sg27
g6
sg28
g6
sg29
g6
ssg155
(dp1231
g5
S'--'
p1232
sg7
S'--'
p1233
sg8
g36
sg9
S'--'
p1234
sg10
g36
sg11
S'Hakeem Nicks'
p1235
sg13
S'2012'
p1236
sg15
S'10'
p1237
sg17
S'--'
p1238
sg18
S'11/11'
p1239
sg20
S'8.3'
p1240
sg21
S'--'
p1241
sg22
S'--'
p1242
sg23
S'L13-31'
p1243
sg24
S'75'
p1244
sg25
g262
sg26
S'@CIN'
p1245
sg27
S'16'
p1246
sg28
g34
sg29
S'--'
p1247
ssg30
(dp1248
g5
S'--'
p1249
sg7
S'--'
p1250
sg8
g36
sg9
S'--'
p1251
sg10
g36
sg11
S'Hakeem Nicks'
p1252
sg13
S'2012'
p1253
sg15
S'13'
p1254
sg17
S'--'
p1255
sg18
S'12/03'
p1256
sg20
S'8.6'
p1257
sg21
S'--'
p1258
sg22
S'--'
p1259
sg23
S'L16-17'
p1260
sg24
S'43'
p1261
sg25
g98
sg26
S'@WAS'
p1262
sg27
S'16'
p1263
sg28
g34
sg29
S'--'
p1264
ssg49
(dp1265
g5
S'--'
p1266
sg7
S'--'
p1267
sg8
g34
sg9
S'--'
p1268
sg10
g36
sg11
S'Hakeem Nicks'
p1269
sg13
S'2012'
p1270
sg15
S'12'
p1271
sg17
S'--'
p1272
sg18
S'11/25'
p1273
sg20
S'15.4'
p1274
sg21
S'--'
p1275
sg22
S'--'
p1276
sg23
S'W38-10'
p1277
sg24
S'77'
p1278
sg25
g98
sg26
S'GB'
p1279
sg27
S'30'
p1280
sg28
g36
sg29
S'--'
p1281
ssg66
(dp1282
g5
S'--'
p1283
sg7
S'--'
p1284
sg8
g36
sg9
S'--'
p1285
sg10
g36
sg11
S'Hakeem Nicks'
p1286
sg13
S'2012'
p1287
sg15
S'15'
p1288
sg17
S'--'
p1289
sg18
S'12/16'
p1290
sg20
S'13.3'
p1291
sg21
S'--'
p1292
sg22
S'--'
p1293
sg23
S'L0-34'
p1294
sg24
S'40'
p1295
sg25
g244
sg26
S'@ATL'
p1296
sg27
S'24'
p1297
sg28
g34
sg29
S'--'
p1298
ssg84
(dp1299
g5
S'--'
p1300
sg7
S'--'
p1301
sg8
g36
sg9
S'--'
p1302
sg10
g36
sg11
S'Hakeem Nicks'
p1303
sg13
S'2012'
p1304
sg15
S'14'
p1305
sg17
S'--'
p1306
sg18
S'12/09'
p1307
sg20
S'16.8'
p1308
sg21
S'--'
p1309
sg22
S'--'
p1310
sg23
S'W52-27'
p1311
sg24
S'67'
p1312
sg25
g63
sg26
S'NO'
p1313
sg27
S'25T'
p1314
sg28
g36
sg29
S'--'
p1315
ssg101
(dp1316
g5
S'--'
p1317
sg7
S'--'
p1318
sg8
g34
sg9
S'--'
p1319
sg10
g36
sg11
S'Hakeem Nicks'
p1320
sg13
S'2012'
p1321
sg15
S'17'
p1322
sg17
S'--'
p1323
sg18
S'12/30'
p1324
sg20
S'--'
p1325
sg21
S'--'
p1326
sg22
S'--'
p1327
sg23
S'W42-7'
p1328
sg24
S'--'
p1329
sg25
S'--'
p1330
sg26
S'PHI'
p1331
sg27
S'--'
p1332
sg28
S'--'
p1333
sg29
S'--'
p1334
ssg120
(dp1335
g5
S'--'
p1336
sg7
S'--'
p1337
sg8
g36
sg9
S'--'
p1338
sg10
g36
sg11
S'Hakeem Nicks'
p1339
sg13
S'2012'
p1340
sg15
S'16'
p1341
sg17
S'--'
p1342
sg18
S'12/23'
p1343
sg20
S'--'
p1344
sg21
S'--'
p1345
sg22
S'--'
p1346
sg23
S'L14-33'
p1347
sg24
g34
sg25
g34
sg26
S'@BAL'
p1348
sg27
S'--'
p1349
sg28
g34
sg29
S'--'
p1350
ssg36
(dp1351
g5
S'--'
p1352
sg7
S'--'
p1353
sg8
g36
sg9
S'--'
p1354
sg10
g36
sg11
S'Hakeem Nicks'
p1355
sg13
S'2012'
p1356
sg15
g36
sg17
S'--'
p1357
sg18
S'09/05'
p1358
sg20
S'9.5'
p1359
sg21
S'--'
p1360
sg22
S'--'
p1361
sg23
S'L17-24'
p1362
sg24
S'38'
p1363
sg25
g63
sg26
S'DAL'
p1364
sg27
S'12'
p1365
sg28
g34
sg29
S'--'
p1366
ssg244
(dp1367
g5
S'--'
p1368
sg7
S'--'
p1369
sg8
g34
sg9
S'--'
p1370
sg10
g34
sg11
S'Hakeem Nicks'
p1371
sg13
S'2012'
p1372
sg15
g244
sg17
S'--'
p1373
sg18
S'09/20'
p1374
sg20
S'--'
p1375
sg21
S'--'
p1376
sg22
S'--'
p1377
sg23
S'W36-7'
p1378
sg24
S'--'
p1379
sg25
S'--'
p1380
sg26
S'@CAR'
p1381
sg27
S'--'
p1382
sg28
S'--'
p1383
sg29
S'--'
p1384
ssg116
(dp1385
g5
S'--'
p1386
sg7
S'--'
p1387
sg8
g36
sg9
S'--'
p1388
sg10
g36
sg11
S'Hakeem Nicks'
p1389
sg13
S'2012'
p1390
sg15
g116
sg17
S'--'
p1391
sg18
S'09/16'
p1392
sg20
S'19.9'
p1393
sg21
S'--'
p1394
sg22
S'--'
p1395
sg23
S'W41-34'
p1396
sg24
S'199'
p1397
sg25
S'10'
p1398
sg26
S'TB'
p1399
sg27
S'50'
p1400
sg28
g36
sg29
S'--'
p1401
ssg98
(dp1402
g5
S'--'
p1403
sg7
S'--'
p1404
sg8
g34
sg9
S'--'
p1405
sg10
g34
sg11
S'Hakeem Nicks'
p1406
sg13
S'2012'
p1407
sg15
g98
sg17
S'--'
p1408
sg18
S'10/07'
p1409
sg20
S'--'
p1410
sg21
S'--'
p1411
sg22
S'--'
p1412
sg23
S'W41-27'
p1413
sg24
S'--'
p1414
sg25
S'--'
p1415
sg26
S'CLE'
p1416
sg27
S'--'
p1417
sg28
S'--'
p1418
sg29
S'--'
p1419
ssg63
(dp1420
g5
S'--'
p1421
sg7
S'--'
p1422
sg8
g34
sg9
S'--'
p1423
sg10
g34
sg11
S'Hakeem Nicks'
p1424
sg13
S'2012'
p1425
sg15
g63
sg17
S'--'
p1426
sg18
S'09/30'
p1427
sg20
S'--'
p1428
sg21
S'--'
p1429
sg22
S'--'
p1430
sg23
S'L17-19'
p1431
sg24
S'--'
p1432
sg25
S'--'
p1433
sg26
S'@PHI'
p1434
sg27
S'--'
p1435
sg28
S'--'
p1436
sg29
S'--'
p1437
ssg46
(dp1438
g5
S'--'
p1439
sg7
S'--'
p1440
sg8
g36
sg9
S'--'
p1441
sg10
g36
sg11
S'Hakeem Nicks'
p1442
sg13
S'2012'
p1443
sg15
g46
sg17
S'--'
p1444
sg18
S'10/21'
p1445
sg20
S'10.6'
p1446
sg21
S'--'
p1447
sg22
S'--'
p1448
sg23
S'W27-23'
p1449
sg24
S'53'
p1450
sg25
g98
sg26
S'WAS'
p1451
sg27
S'21'
p1452
sg28
g34
sg29
S'--'
p1453
ssg361
(dp1454
g5
S'--'
p1455
sg7
S'--'
p1456
sg8
g36
sg9
S'--'
p1457
sg10
g36
sg11
S'Hakeem Nicks'
p1458
sg13
S'2012'
p1459
sg15
g361
sg17
S'--'
p1460
sg18
S'10/14'
p1461
sg20
S'14.7'
p1462
sg21
S'--'
p1463
sg22
S'--'
p1464
sg23
S'W26-3'
p1465
sg24
S'44'
p1466
sg25
g244
sg26
S'@SF'
p1467
sg27
S'26'
p1468
sg28
g34
sg29
S'--'
p1469
ssg262
(dp1470
g5
S'--'
p1471
sg7
S'--'
p1472
sg8
g36
sg9
S'--'
p1473
sg10
g36
sg11
S'Hakeem Nicks'
p1474
sg13
S'2012'
p1475
sg15
g262
sg17
S'--'
p1476
sg18
S'11/04'
p1477
sg20
S'10.0'
p1478
sg21
S'--'
p1479
sg22
S'--'
p1480
sg23
S'L20-24'
p1481
sg24
S'10'
p1482
sg25
g36
sg26
S'PIT'
p1483
sg27
S'10'
p1484
sg28
g34
sg29
S'--'
p1485
ssg344
(dp1486
g5
S'--'
p1487
sg7
S'--'
p1488
sg8
g36
sg9
S'--'
p1489
sg10
g36
sg11
S'Hakeem Nicks'
p1490
sg13
S'2012'
p1491
sg15
g344
sg17
S'--'
p1492
sg18
S'10/28'
p1493
sg20
S'11.5'
p1494
sg21
S'--'
p1495
sg22
S'--'
p1496
sg23
S'W29-24'
p1497
sg24
S'46'
p1498
sg25
g63
sg26
S'@DAL'
p1499
sg27
S'29'
p1500
sg28
g34
sg29
S'--'
p1501
sss.