(dp0
S'2014'
p1
(dp2
S'11'
p3
(dp4
S'RushTD'
p5
S'--'
p6
sS'RushYds'
p7
S'--'
p8
sS'GS'
p9
S'0'
p10
sS'Lost'
p11
S'--'
p12
sS'G'
p13
S'1'
p14
sS'Player'
p15
S'Isaiah Burse'
p16
sS'Year'
p17
S'2014'
p18
sS'WK'
p19
S'11'
p20
sS'RushAvg'
p21
S'--'
p22
sS'Game Date'
p23
S'11/16'
p24
sS'RecAvg'
p25
S'--'
p26
sS'FUM'
p27
S'--'
p28
sS'RushAtt'
p29
S'--'
p30
sS'Result'
p31
S'L7-22'
p32
sS'RecYds'
p33
S'--'
p34
sS'Rec'
p35
S'--'
p36
sS'Opp'
p37
S'@STL'
p38
sS'RecLng'
p39
S'--'
p40
sS'RecTD'
p41
S'--'
p42
sS'RushLng'
p43
S'--'
p44
ssS'10'
p45
(dp46
g5
S'--'
p47
sg7
S'--'
p48
sg9
g10
sg11
S'--'
p49
sg13
g14
sg15
S'Isaiah Burse'
p50
sg17
S'2014'
p51
sg19
S'10'
p52
sg21
S'--'
p53
sg23
S'11/09'
p54
sg25
S'--'
p55
sg27
S'--'
p56
sg29
S'--'
p57
sg31
S'W41-17'
p58
sg33
S'--'
p59
sg35
S'--'
p60
sg37
S'@OAK'
p61
sg39
S'--'
p62
sg41
S'--'
p63
sg43
S'--'
p64
ssS'13'
p65
(dp66
g5
S'--'
p67
sg7
S'--'
p68
sg9
g10
sg11
S'--'
p69
sg13
g14
sg15
S'Isaiah Burse'
p70
sg17
S'2014'
p71
sg19
S'13'
p72
sg21
S'--'
p73
sg23
S'11/30'
p74
sg25
S'--'
p75
sg27
S'--'
p76
sg29
S'--'
p77
sg31
S'W29-16'
p78
sg33
S'--'
p79
sg35
S'--'
p80
sg37
S'@KC'
p81
sg39
S'--'
p82
sg41
S'--'
p83
sg43
S'--'
p84
ssS'12'
p85
(dp86
g5
S'--'
p87
sg7
S'--'
p88
sg9
g10
sg11
g14
sg13
g14
sg15
S'Isaiah Burse'
p89
sg17
S'2014'
p90
sg19
S'12'
p91
sg21
S'--'
p92
sg23
S'11/23'
p93
sg25
S'--'
p94
sg27
g14
sg29
S'--'
p95
sg31
S'W39-36'
p96
sg33
S'--'
p97
sg35
S'--'
p98
sg37
S'MIA'
p99
sg39
S'--'
p100
sg41
S'--'
p101
sg43
S'--'
p102
ssg14
(dp103
g5
S'--'
p104
sg7
S'--'
p105
sg9
g10
sg11
g10
sg13
g14
sg15
S'Isaiah Burse'
p106
sg17
S'2014'
p107
sg19
g14
sg21
S'--'
p108
sg23
S'09/07'
p109
sg25
S'--'
p110
sg27
g14
sg29
S'--'
p111
sg31
S'W31-24'
p112
sg33
S'--'
p113
sg35
S'--'
p114
sg37
S'IND'
p115
sg39
S'--'
p116
sg41
S'--'
p117
sg43
S'--'
p118
ssS'3'
p119
(dp120
g5
S'--'
p121
sg7
S'--'
p122
sg9
g10
sg11
S'--'
p123
sg13
g14
sg15
S'Isaiah Burse'
p124
sg17
S'2014'
p125
sg19
g119
sg21
S'--'
p126
sg23
S'09/21'
p127
sg25
S'--'
p128
sg27
S'--'
p129
sg29
S'--'
p130
sg31
S'L20-26'
p131
sg33
S'--'
p132
sg35
S'--'
p133
sg37
S'@SEA'
p134
sg39
S'--'
p135
sg41
S'--'
p136
sg43
S'--'
p137
ssS'2'
p138
(dp139
g5
S'--'
p140
sg7
S'--'
p141
sg9
g10
sg11
S'--'
p142
sg13
g14
sg15
S'Isaiah Burse'
p143
sg17
S'2014'
p144
sg19
g138
sg21
S'--'
p145
sg23
S'09/14'
p146
sg25
S'--'
p147
sg27
S'--'
p148
sg29
S'--'
p149
sg31
S'W24-17'
p150
sg33
S'--'
p151
sg35
S'--'
p152
sg37
S'KC'
p153
sg39
S'--'
p154
sg41
S'--'
p155
sg43
S'--'
p156
ssS'5'
p157
(dp158
g5
S'--'
p159
sg7
S'--'
p160
sg9
g10
sg11
S'--'
p161
sg13
g14
sg15
S'Isaiah Burse'
p162
sg17
S'2014'
p163
sg19
g157
sg21
S'--'
p164
sg23
S'10/05'
p165
sg25
S'--'
p166
sg27
S'--'
p167
sg29
S'--'
p168
sg31
S'W41-20'
p169
sg33
S'--'
p170
sg35
S'--'
p171
sg37
S'ARI'
p172
sg39
S'--'
p173
sg41
S'--'
p174
sg43
S'--'
p175
ssS'4'
p176
(dp177
g5
S''
p178
sg7
g178
sg9
g178
sg11
g178
sg13
g178
sg15
S'Isaiah Burse'
p179
sg17
S'2014'
p180
sg19
g176
sg21
g178
sg23
S'Bye'
p181
sg25
g178
sg27
g178
sg29
g178
sg31
g178
sg33
g178
sg35
g178
sg37
g178
sg39
g178
sg41
g178
sg43
g178
ssS'7'
p182
(dp183
g5
S'--'
p184
sg7
S'--'
p185
sg9
g10
sg11
g10
sg13
g14
sg15
S'Isaiah Burse'
p186
sg17
S'2014'
p187
sg19
g182
sg21
S'--'
p188
sg23
S'10/19'
p189
sg25
S'--'
p190
sg27
g14
sg29
S'--'
p191
sg31
S'W42-17'
p192
sg33
g10
sg35
g10
sg37
S'SF'
p193
sg39
S'--'
p194
sg41
g10
sg43
S'--'
p195
ssS'6'
p196
(dp197
g5
S'--'
p198
sg7
S'--'
p199
sg9
g10
sg11
S'--'
p200
sg13
g14
sg15
S'Isaiah Burse'
p201
sg17
S'2014'
p202
sg19
g196
sg21
S'--'
p203
sg23
S'10/12'
p204
sg25
S'--'
p205
sg27
S'--'
p206
sg29
S'--'
p207
sg31
S'W31-17'
p208
sg33
S'--'
p209
sg35
S'--'
p210
sg37
S'@NYJ'
p211
sg39
S'--'
p212
sg41
S'--'
p213
sg43
S'--'
p214
ssS'9'
p215
(dp216
g5
S'--'
p217
sg7
S'--'
p218
sg9
g10
sg11
S'--'
p219
sg13
g14
sg15
S'Isaiah Burse'
p220
sg17
S'2014'
p221
sg19
g215
sg21
S'--'
p222
sg23
S'11/02'
p223
sg25
S'--'
p224
sg27
S'--'
p225
sg29
S'--'
p226
sg31
S'L21-43'
p227
sg33
S'--'
p228
sg35
S'--'
p229
sg37
S'@NE'
p230
sg39
S'--'
p231
sg41
S'--'
p232
sg43
S'--'
p233
ssS'8'
p234
(dp235
g5
S'--'
p236
sg7
S'--'
p237
sg9
g10
sg11
S'--'
p238
sg13
g14
sg15
S'Isaiah Burse'
p239
sg17
S'2014'
p240
sg19
g234
sg21
S'--'
p241
sg23
S'10/23'
p242
sg25
S'--'
p243
sg27
S'--'
p244
sg29
S'--'
p245
sg31
S'W35-21'
p246
sg33
S'--'
p247
sg35
S'--'
p248
sg37
S'SD'
p249
sg39
S'--'
p250
sg41
S'--'
p251
sg43
S'--'
p252
sss.