(dp0
S'2015'
p1
(dp2
S'11'
p3
(dp4
S'RushTD'
p5
S'--'
p6
sS'RushYds'
p7
S'--'
p8
sS'GS'
p9
S'0'
p10
sS'Lost'
p11
S'--'
p12
sS'G'
p13
S'1'
p14
sS'Player'
p15
S'J.J. Nelson'
p16
sS'Year'
p17
S'2015'
p18
sS'WK'
p19
S'11'
p20
sS'RushAvg'
p21
S'--'
p22
sS'Game Date'
p23
S'11/22'
p24
sS'RecAvg'
p25
S'35.5'
p26
sS'FUM'
p27
S'--'
p28
sS'RushAtt'
p29
S'--'
p30
sS'Result'
p31
S'W34-31'
p32
sS'RecYds'
p33
S'142'
p34
sS'Rec'
p35
S'4'
p36
sS'Opp'
p37
S'CIN'
p38
sS'RecLng'
p39
S'64T'
p40
sS'RecTD'
p41
g14
sS'RushLng'
p42
S'--'
p43
ssS'10'
p44
(dp45
g5
S'--'
p46
sg7
S'--'
p47
sg9
g10
sg11
S'--'
p48
sg13
g10
sg15
S'J.J. Nelson'
p49
sg17
S'2015'
p50
sg19
S'10'
p51
sg21
S'--'
p52
sg23
S'11/15'
p53
sg25
S'--'
p54
sg27
S'--'
p55
sg29
S'--'
p56
sg31
S'W39-32'
p57
sg33
S'--'
p58
sg35
S'--'
p59
sg37
S'@SEA'
p60
sg39
S'--'
p61
sg41
S'--'
p62
sg42
S'--'
p63
ssS'13'
p64
(dp65
g5
S'--'
p66
sg7
S'--'
p67
sg9
g10
sg11
S'--'
p68
sg13
g14
sg15
S'J.J. Nelson'
p69
sg17
S'2015'
p70
sg19
S'13'
p71
sg21
S'--'
p72
sg23
S'12/06'
p73
sg25
S'17.0'
p74
sg27
S'--'
p75
sg29
S'--'
p76
sg31
S'W27-3'
p77
sg33
S'34'
p78
sg35
S'2'
p79
sg37
S'@STL'
p80
sg39
S'22T'
p81
sg41
g14
sg42
S'--'
p82
ssS'12'
p83
(dp84
g5
S'--'
p85
sg7
S'--'
p86
sg9
g10
sg11
S'--'
p87
sg13
g14
sg15
S'J.J. Nelson'
p88
sg17
S'2015'
p89
sg19
S'12'
p90
sg21
S'--'
p91
sg23
S'11/29'
p92
sg25
S'26.5'
p93
sg27
S'--'
p94
sg29
S'--'
p95
sg31
S'W19-13'
p96
sg33
S'53'
p97
sg35
g79
sg37
S'@SF'
p98
sg39
S'34'
p99
sg41
g10
sg42
S'--'
p100
ssS'15'
p101
(dp102
g5
S'--'
p103
sg7
S'--'
p104
sg9
g10
sg11
S'--'
p105
sg13
g14
sg15
S'J.J. Nelson'
p106
sg17
S'2015'
p107
sg19
S'15'
p108
sg21
S'--'
p109
sg23
S'12/20'
p110
sg25
S'--'
p111
sg27
S'--'
p112
sg29
S'--'
p113
sg31
S'W40-17'
p114
sg33
g10
sg35
g10
sg37
S'@PHI'
p115
sg39
S'--'
p116
sg41
g10
sg42
S'--'
p117
ssS'14'
p118
(dp119
g5
S'--'
p120
sg7
S'--'
p121
sg9
g14
sg11
S'--'
p122
sg13
g14
sg15
S'J.J. Nelson'
p123
sg17
S'2015'
p124
sg19
S'14'
p125
sg21
S'--'
p126
sg23
S'12/10'
p127
sg25
S'--'
p128
sg27
S'--'
p129
sg29
S'--'
p130
sg31
S'W23-20'
p131
sg33
g10
sg35
g10
sg37
S'MIN'
p132
sg39
S'--'
p133
sg41
g10
sg42
S'--'
p134
ssS'17'
p135
(dp136
g5
S'--'
p137
sg7
S'--'
p138
sg9
g10
sg11
S'--'
p139
sg13
g14
sg15
S'J.J. Nelson'
p140
sg17
S'2015'
p141
sg19
S'17'
p142
sg21
S'--'
p143
sg23
S'01/03'
p144
sg25
S'--'
p145
sg27
S'--'
p146
sg29
S'--'
p147
sg31
S'L6-36'
p148
sg33
g10
sg35
g10
sg37
S'SEA'
p149
sg39
S'--'
p150
sg41
g10
sg42
S'--'
p151
ssS'16'
p152
(dp153
g5
S'--'
p154
sg7
S'--'
p155
sg9
g10
sg11
S'--'
p156
sg13
g14
sg15
S'J.J. Nelson'
p157
sg17
S'2015'
p158
sg19
S'16'
p159
sg21
S'--'
p160
sg23
S'12/27'
p161
sg25
S'--'
p162
sg27
S'--'
p163
sg29
S'--'
p164
sg31
S'W38-8'
p165
sg33
S'--'
p166
sg35
S'--'
p167
sg37
S'GB'
p168
sg39
S'--'
p169
sg41
S'--'
p170
sg42
S'--'
p171
ssg14
(dp172
g5
S'--'
p173
sg7
S'--'
p174
sg9
g10
sg11
S'--'
p175
sg13
g14
sg15
S'J.J. Nelson'
p176
sg17
S'2015'
p177
sg19
g14
sg21
S'--'
p178
sg23
S'09/13'
p179
sg25
S'--'
p180
sg27
S'--'
p181
sg29
S'--'
p182
sg31
S'W31-19'
p183
sg33
g10
sg35
g10
sg37
S'NO'
p184
sg39
S'--'
p185
sg41
g10
sg42
S'--'
p186
ssS'3'
p187
(dp188
g5
S'--'
p189
sg7
S'--'
p190
sg9
g10
sg11
S'--'
p191
sg13
g10
sg15
S'J.J. Nelson'
p192
sg17
S'2015'
p193
sg19
g187
sg21
S'--'
p194
sg23
S'09/27'
p195
sg25
S'--'
p196
sg27
S'--'
p197
sg29
S'--'
p198
sg31
S'W47-7'
p199
sg33
S'--'
p200
sg35
S'--'
p201
sg37
S'SF'
p202
sg39
S'--'
p203
sg41
S'--'
p204
sg42
S'--'
p205
ssg79
(dp206
g5
S'--'
p207
sg7
S'--'
p208
sg9
g10
sg11
g14
sg13
g14
sg15
S'J.J. Nelson'
p209
sg17
S'2015'
p210
sg19
g79
sg21
S'--'
p211
sg23
S'09/20'
p212
sg25
S'--'
p213
sg27
g14
sg29
S'--'
p214
sg31
S'W48-23'
p215
sg33
g10
sg35
g10
sg37
S'@CHI'
p216
sg39
S'--'
p217
sg41
g10
sg42
S'--'
p218
ssS'5'
p219
(dp220
g5
S'--'
p221
sg7
S'--'
p222
sg9
g10
sg11
S'--'
p223
sg13
g10
sg15
S'J.J. Nelson'
p224
sg17
S'2015'
p225
sg19
g219
sg21
S'--'
p226
sg23
S'10/11'
p227
sg25
S'--'
p228
sg27
S'--'
p229
sg29
S'--'
p230
sg31
S'W42-17'
p231
sg33
S'--'
p232
sg35
S'--'
p233
sg37
S'@DET'
p234
sg39
S'--'
p235
sg41
S'--'
p236
sg42
S'--'
p237
ssg36
(dp238
g5
S'--'
p239
sg7
S'--'
p240
sg9
g10
sg11
S'--'
p241
sg13
g10
sg15
S'J.J. Nelson'
p242
sg17
S'2015'
p243
sg19
g36
sg21
S'--'
p244
sg23
S'10/04'
p245
sg25
S'--'
p246
sg27
S'--'
p247
sg29
S'--'
p248
sg31
S'L22-24'
p249
sg33
S'--'
p250
sg35
S'--'
p251
sg37
S'STL'
p252
sg39
S'--'
p253
sg41
S'--'
p254
sg42
S'--'
p255
ssS'7'
p256
(dp257
g5
S'--'
p258
sg7
S'--'
p259
sg9
g10
sg11
S'--'
p260
sg13
g14
sg15
S'J.J. Nelson'
p261
sg17
S'2015'
p262
sg19
g256
sg21
S'--'
p263
sg23
S'10/26'
p264
sg25
S'--'
p265
sg27
S'--'
p266
sg29
S'--'
p267
sg31
S'W26-18'
p268
sg33
S'--'
p269
sg35
S'--'
p270
sg37
S'BAL'
p271
sg39
S'--'
p272
sg41
S'--'
p273
sg42
S'--'
p274
ssS'6'
p275
(dp276
g5
S'--'
p277
sg7
S'--'
p278
sg9
g10
sg11
S'--'
p279
sg13
g10
sg15
S'J.J. Nelson'
p280
sg17
S'2015'
p281
sg19
g275
sg21
S'--'
p282
sg23
S'10/18'
p283
sg25
S'--'
p284
sg27
S'--'
p285
sg29
S'--'
p286
sg31
S'L13-25'
p287
sg33
S'--'
p288
sg35
S'--'
p289
sg37
S'@PIT'
p290
sg39
S'--'
p291
sg41
S'--'
p292
sg42
S'--'
p293
ssS'9'
p294
(dp295
g5
S''
p296
sg7
g296
sg9
g296
sg11
g296
sg13
g296
sg15
S'J.J. Nelson'
p297
sg17
S'2015'
p298
sg19
g294
sg21
g296
sg23
S'Bye'
p299
sg25
g296
sg27
g296
sg29
g296
sg31
g296
sg33
g296
sg35
g296
sg37
g296
sg39
g296
sg41
g296
sg42
g296
ssS'8'
p300
(dp301
g5
g10
sg7
g10
sg9
g14
sg11
S'--'
p302
sg13
g14
sg15
S'J.J. Nelson'
p303
sg17
S'2015'
p304
sg19
g300
sg21
S'0.0'
p305
sg23
S'11/01'
p306
sg25
S'23.3'
p307
sg27
S'--'
p308
sg29
g14
sg31
S'W34-20'
p309
sg33
S'70'
p310
sg35
g187
sg37
S'@CLE'
p311
sg39
S'38'
p312
sg41
g10
sg42
g10
sss.