(dp0
S'2015'
p1
(dp2
S'11'
p3
(dp4
S'RushTD'
p5
S'--'
p6
sS'RushYds'
p7
S'--'
p8
sS'GS'
p9
S'0'
p10
sS'Lost'
p11
S'--'
p12
sS'G'
p13
S'1'
p14
sS'Player'
p15
S'Jaelen Strong'
p16
sS'Year'
p17
S'2015'
p18
sS'WK'
p19
S'11'
p20
sS'RushAvg'
p21
S'--'
p22
sS'Game Date'
p23
S'11/22'
p24
sS'RecAvg'
p25
S'--'
p26
sS'FUM'
p27
S'--'
p28
sS'RushAtt'
p29
S'--'
p30
sS'Result'
p31
S'W24-17'
p32
sS'RecYds'
p33
g10
sS'Rec'
p34
g10
sS'Opp'
p35
S'NYJ'
p36
sS'RecLng'
p37
S'--'
p38
sS'RecTD'
p39
g10
sS'RushLng'
p40
S'--'
p41
ssS'10'
p42
(dp43
g5
S'--'
p44
sg7
S'--'
p45
sg9
g10
sg11
S'--'
p46
sg13
g10
sg15
S'Jaelen Strong'
p47
sg17
S'2015'
p48
sg19
S'10'
p49
sg21
S'--'
p50
sg23
S'11/16'
p51
sg25
S'--'
p52
sg27
S'--'
p53
sg29
S'--'
p54
sg31
S'W10-6'
p55
sg33
S'--'
p56
sg34
S'--'
p57
sg35
S'@CIN'
p58
sg37
S'--'
p59
sg39
S'--'
p60
sg40
S'--'
p61
ssS'13'
p62
(dp63
g5
S'--'
p64
sg7
S'--'
p65
sg9
g10
sg11
S'--'
p66
sg13
g14
sg15
S'Jaelen Strong'
p67
sg17
S'2015'
p68
sg19
S'13'
p69
sg21
S'--'
p70
sg23
S'12/06'
p71
sg25
S'--'
p72
sg27
S'--'
p73
sg29
S'--'
p74
sg31
S'L21-30'
p75
sg33
g10
sg34
g10
sg35
S'@BUF'
p76
sg37
S'--'
p77
sg39
g10
sg40
S'--'
p78
ssS'12'
p79
(dp80
g5
S'--'
p81
sg7
S'--'
p82
sg9
g10
sg11
S'--'
p83
sg13
g10
sg15
S'Jaelen Strong'
p84
sg17
S'2015'
p85
sg19
S'12'
p86
sg21
S'--'
p87
sg23
S'11/29'
p88
sg25
S'--'
p89
sg27
S'--'
p90
sg29
S'--'
p91
sg31
S'W24-6'
p92
sg33
S'--'
p93
sg34
S'--'
p94
sg35
S'NO'
p95
sg37
S'--'
p96
sg39
S'--'
p97
sg40
S'--'
p98
ssS'15'
p99
(dp100
g5
S'--'
p101
sg7
S'--'
p102
sg9
g10
sg11
S'--'
p103
sg13
g14
sg15
S'Jaelen Strong'
p104
sg17
S'2015'
p105
sg19
S'15'
p106
sg21
S'--'
p107
sg23
S'12/20'
p108
sg25
S'11.5'
p109
sg27
S'--'
p110
sg29
S'--'
p111
sg31
S'W16-10'
p112
sg33
S'23'
p113
sg34
S'2'
p114
sg35
S'@IND'
p115
sg37
S'15'
p116
sg39
g14
sg40
S'--'
p117
ssS'14'
p118
(dp119
g5
S'--'
p120
sg7
S'--'
p121
sg9
g10
sg11
S'--'
p122
sg13
g14
sg15
S'Jaelen Strong'
p123
sg17
S'2015'
p124
sg19
S'14'
p125
sg21
S'--'
p126
sg23
S'12/13'
p127
sg25
S'6.0'
p128
sg27
S'--'
p129
sg29
S'--'
p130
sg31
S'L6-27'
p131
sg33
S'6'
p132
sg34
g14
sg35
S'NE'
p133
sg37
g132
sg39
g10
sg40
S'--'
p134
ssS'17'
p135
(dp136
g5
S'--'
p137
sg7
S'--'
p138
sg9
g14
sg11
S'--'
p139
sg13
g14
sg15
S'Jaelen Strong'
p140
sg17
S'2015'
p141
sg19
S'17'
p142
sg21
S'--'
p143
sg23
S'01/03'
p144
sg25
S'9.3'
p145
sg27
S'--'
p146
sg29
S'--'
p147
sg31
S'W30-6'
p148
sg33
S'56'
p149
sg34
g132
sg35
S'JAC'
p150
sg37
S'20'
p151
sg39
g10
sg40
S'--'
p152
ssS'16'
p153
(dp154
g5
S'--'
p155
sg7
S'--'
p156
sg9
g10
sg11
S'--'
p157
sg13
g14
sg15
S'Jaelen Strong'
p158
sg17
S'2015'
p159
sg19
S'16'
p160
sg21
S'--'
p161
sg23
S'12/27'
p162
sg25
S'9.0'
p163
sg27
S'--'
p164
sg29
S'--'
p165
sg31
S'W34-6'
p166
sg33
S'18'
p167
sg34
g114
sg35
S'@TEN'
p168
sg37
S'11'
p169
sg39
g10
sg40
S'--'
p170
ssg14
(dp171
g5
S'--'
p172
sg7
S'--'
p173
sg9
g10
sg11
S'--'
p174
sg13
g10
sg15
S'Jaelen Strong'
p175
sg17
S'2015'
p176
sg19
g14
sg21
S'--'
p177
sg23
S'09/13'
p178
sg25
S'--'
p179
sg27
S'--'
p180
sg29
S'--'
p181
sg31
S'L20-27'
p182
sg33
S'--'
p183
sg34
S'--'
p184
sg35
S'KC'
p185
sg37
S'--'
p186
sg39
S'--'
p187
sg40
S'--'
p188
ssS'3'
p189
(dp190
g5
S'--'
p191
sg7
S'--'
p192
sg9
g10
sg11
S'--'
p193
sg13
g10
sg15
S'Jaelen Strong'
p194
sg17
S'2015'
p195
sg19
g189
sg21
S'--'
p196
sg23
S'09/27'
p197
sg25
S'--'
p198
sg27
S'--'
p199
sg29
S'--'
p200
sg31
S'W19-9'
p201
sg33
S'--'
p202
sg34
S'--'
p203
sg35
S'TB'
p204
sg37
S'--'
p205
sg39
S'--'
p206
sg40
S'--'
p207
ssg114
(dp208
g5
S'--'
p209
sg7
S'--'
p210
sg9
g10
sg11
S'--'
p211
sg13
g10
sg15
S'Jaelen Strong'
p212
sg17
S'2015'
p213
sg19
g114
sg21
S'--'
p214
sg23
S'09/20'
p215
sg25
S'--'
p216
sg27
S'--'
p217
sg29
S'--'
p218
sg31
S'L17-24'
p219
sg33
S'--'
p220
sg34
S'--'
p221
sg35
S'@CAR'
p222
sg37
S'--'
p223
sg39
S'--'
p224
sg40
S'--'
p225
ssS'5'
p226
(dp227
g5
S'--'
p228
sg7
S'--'
p229
sg9
g10
sg11
S'--'
p230
sg13
g14
sg15
S'Jaelen Strong'
p231
sg17
S'2015'
p232
sg19
g226
sg21
S'--'
p233
sg23
S'10/08'
p234
sg25
S'26.5'
p235
sg27
S'--'
p236
sg29
S'--'
p237
sg31
S'L20-27'
p238
sg33
S'53'
p239
sg34
g114
sg35
S'IND'
p240
sg37
S'42T'
p241
sg39
g114
sg40
S'--'
p242
ssS'4'
p243
(dp244
g5
S'--'
p245
sg7
S'--'
p246
sg9
g10
sg11
S'--'
p247
sg13
g10
sg15
S'Jaelen Strong'
p248
sg17
S'2015'
p249
sg19
g243
sg21
S'--'
p250
sg23
S'10/04'
p251
sg25
S'--'
p252
sg27
S'--'
p253
sg29
S'--'
p254
sg31
S'L21-48'
p255
sg33
S'--'
p256
sg34
S'--'
p257
sg35
S'@ATL'
p258
sg37
S'--'
p259
sg39
S'--'
p260
sg40
S'--'
p261
ssS'7'
p262
(dp263
g5
S'--'
p264
sg7
S'--'
p265
sg9
g10
sg11
S'--'
p266
sg13
g14
sg15
S'Jaelen Strong'
p267
sg17
S'2015'
p268
sg19
g262
sg21
S'--'
p269
sg23
S'10/25'
p270
sg25
S'--'
p271
sg27
S'--'
p272
sg29
S'--'
p273
sg31
S'L26-44'
p274
sg33
g10
sg34
g10
sg35
S'@MIA'
p275
sg37
S'--'
p276
sg39
g10
sg40
S'--'
p277
ssg132
(dp278
g5
S'--'
p279
sg7
S'--'
p280
sg9
g10
sg11
S'--'
p281
sg13
g14
sg15
S'Jaelen Strong'
p282
sg17
S'2015'
p283
sg19
g132
sg21
S'--'
p284
sg23
S'10/18'
p285
sg25
S'5.0'
p286
sg27
S'--'
p287
sg29
S'--'
p288
sg31
S'W31-20'
p289
sg33
g226
sg34
g14
sg35
S'@JAC'
p290
sg37
g226
sg39
g10
sg40
S'--'
p291
ssS'9'
p292
(dp293
g5
S''
p294
sg7
g294
sg9
g294
sg11
g294
sg13
g294
sg15
S'Jaelen Strong'
p295
sg17
S'2015'
p296
sg19
g292
sg21
g294
sg23
S'Bye'
p297
sg25
g294
sg27
g294
sg29
g294
sg31
g294
sg33
g294
sg34
g294
sg35
g294
sg37
g294
sg39
g294
sg40
g294
ssS'8'
p298
(dp299
g5
S'--'
p300
sg7
S'--'
p301
sg9
g10
sg11
S'--'
p302
sg13
g14
sg15
S'Jaelen Strong'
p303
sg17
S'2015'
p304
sg19
g298
sg21
S'--'
p305
sg23
S'11/01'
p306
sg25
S'--'
p307
sg27
S'--'
p308
sg29
S'--'
p309
sg31
S'W20-6'
p310
sg33
g10
sg34
g10
sg35
S'TEN'
p311
sg37
S'--'
p312
sg39
g10
sg40
S'--'
p313
sss.