(dp0
S'2015'
p1
(dp2
S'11'
p3
(dp4
S'RushTD'
p5
S'--'
p6
sS'RushYds'
p7
S'--'
p8
sS'GS'
p9
S'0'
p10
sS'Lost'
p11
S'--'
p12
sS'G'
p13
S'1'
p14
sS'Player'
p15
S'James Wright'
p16
sS'Year'
p17
S'2015'
p18
sS'WK'
p19
S'11'
p20
sS'RushAvg'
p21
S'--'
p22
sS'Game Date'
p23
S'11/16'
p24
sS'RecAvg'
p25
S'8.0'
p26
sS'FUM'
p27
S'--'
p28
sS'RushAtt'
p29
S'--'
p30
sS'Result'
p31
S'W27-10'
p32
sS'RecYds'
p33
S'8'
p34
sS'Rec'
p35
g14
sS'Opp'
p36
S'@NO'
p37
sS'RecLng'
p38
g34
sS'RecTD'
p39
g10
sS'RushLng'
p40
S'--'
p41
ssS'10'
p42
(dp43
g5
g10
sg7
S'13'
p44
sg9
g10
sg11
S'--'
p45
sg13
g14
sg15
S'James Wright'
p46
sg17
S'2015'
p47
sg19
S'10'
p48
sg21
S'13.0'
p49
sg23
S'11/06'
p50
sg25
S'--'
p51
sg27
S'--'
p52
sg29
g14
sg31
S'L3-24'
p53
sg33
g10
sg35
g10
sg36
S'CLE'
p54
sg38
S'--'
p55
sg39
g10
sg40
S'13'
p56
ssS'13'
p57
(dp58
g5
g10
sg7
S'6'
p59
sg9
g10
sg11
S'--'
p60
sg13
g14
sg15
S'James Wright'
p61
sg17
S'2015'
p62
sg19
S'13'
p63
sg21
S'6.0'
p64
sg23
S'11/30'
p65
sg25
S'19.7'
p66
sg27
S'--'
p67
sg29
g14
sg31
S'W14-13'
p68
sg33
S'59'
p69
sg35
S'3'
p70
sg36
S'@TB'
p71
sg38
S'30'
p72
sg39
g10
sg40
g59
ssS'12'
p73
(dp74
g5
S'--'
p75
sg7
S'--'
p76
sg9
g10
sg11
S'--'
p77
sg13
g14
sg15
S'James Wright'
p78
sg17
S'2015'
p79
sg19
S'12'
p80
sg21
S'--'
p81
sg23
S'11/23'
p82
sg25
S'--'
p83
sg27
S'--'
p84
sg29
S'--'
p85
sg31
S'W22-13'
p86
sg33
g10
sg35
g10
sg36
S'@HOU'
p87
sg38
S'--'
p88
sg39
g10
sg40
S'--'
p89
ssS'15'
p90
(dp91
g5
S'--'
p92
sg7
S'--'
p93
sg9
g10
sg11
S'--'
p94
sg13
g10
sg15
S'James Wright'
p95
sg17
S'2015'
p96
sg19
S'15'
p97
sg21
S'--'
p98
sg23
S'12/14'
p99
sg25
S'--'
p100
sg27
S'--'
p101
sg29
S'--'
p102
sg31
S'W30-0'
p103
sg33
S'--'
p104
sg35
S'--'
p105
sg36
S'@CLE'
p106
sg38
S'--'
p107
sg39
S'--'
p108
sg40
S'--'
p109
ssS'14'
p110
(dp111
g5
S'--'
p112
sg7
S'--'
p113
sg9
g10
sg11
S'--'
p114
sg13
g10
sg15
S'James Wright'
p115
sg17
S'2015'
p116
sg19
S'14'
p117
sg21
S'--'
p118
sg23
S'12/07'
p119
sg25
S'--'
p120
sg27
S'--'
p121
sg29
S'--'
p122
sg31
S'L21-42'
p123
sg33
S'--'
p124
sg35
S'--'
p125
sg36
S'PIT'
p126
sg38
S'--'
p127
sg39
S'--'
p128
sg40
S'--'
p129
ssS'17'
p130
(dp131
g5
S'--'
p132
sg7
S'--'
p133
sg9
g10
sg11
S'--'
p134
sg13
g10
sg15
S'James Wright'
p135
sg17
S'2015'
p136
sg19
S'17'
p137
sg21
S'--'
p138
sg23
S'12/28'
p139
sg25
S'--'
p140
sg27
S'--'
p141
sg29
S'--'
p142
sg31
S'L17-27'
p143
sg33
S'--'
p144
sg35
S'--'
p145
sg36
S'@PIT'
p146
sg38
S'--'
p147
sg39
S'--'
p148
sg40
S'--'
p149
ssS'16'
p150
(dp151
g5
S'--'
p152
sg7
S'--'
p153
sg9
g10
sg11
S'--'
p154
sg13
g10
sg15
S'James Wright'
p155
sg17
S'2015'
p156
sg19
S'16'
p157
sg21
S'--'
p158
sg23
S'12/22'
p159
sg25
S'--'
p160
sg27
S'--'
p161
sg29
S'--'
p162
sg31
S'W37-28'
p163
sg33
S'--'
p164
sg35
S'--'
p165
sg36
S'DEN'
p166
sg38
S'--'
p167
sg39
S'--'
p168
sg40
S'--'
p169
ssg14
(dp170
g5
S'--'
p171
sg7
S'--'
p172
sg9
g10
sg11
S'--'
p173
sg13
g10
sg15
S'James Wright'
p174
sg17
S'2015'
p175
sg19
g14
sg21
S'--'
p176
sg23
S'09/07'
p177
sg25
S'--'
p178
sg27
S'--'
p179
sg29
S'--'
p180
sg31
S'W23-16'
p181
sg33
S'--'
p182
sg35
S'--'
p183
sg36
S'@BAL'
p184
sg38
S'--'
p185
sg39
S'--'
p186
sg40
S'--'
p187
ssg70
(dp188
g5
S'--'
p189
sg7
S'--'
p190
sg9
g10
sg11
S'--'
p191
sg13
g14
sg15
S'James Wright'
p192
sg17
S'2015'
p193
sg19
g70
sg21
S'--'
p194
sg23
S'09/21'
p195
sg25
S'--'
p196
sg27
S'--'
p197
sg29
S'--'
p198
sg31
S'W33-7'
p199
sg33
g10
sg35
g10
sg36
S'TEN'
p200
sg38
S'--'
p201
sg39
g10
sg40
S'--'
p202
ssS'2'
p203
(dp204
g5
S'--'
p205
sg7
S'--'
p206
sg9
g10
sg11
S'--'
p207
sg13
g14
sg15
S'James Wright'
p208
sg17
S'2015'
p209
sg19
g203
sg21
S'--'
p210
sg23
S'09/14'
p211
sg25
S'--'
p212
sg27
S'--'
p213
sg29
S'--'
p214
sg31
S'W24-10'
p215
sg33
g10
sg35
g10
sg36
S'ATL'
p216
sg38
S'--'
p217
sg39
g10
sg40
S'--'
p218
ssS'5'
p219
(dp220
g5
S'--'
p221
sg7
S'--'
p222
sg9
g10
sg11
S'--'
p223
sg13
g14
sg15
S'James Wright'
p224
sg17
S'2015'
p225
sg19
g219
sg21
S'--'
p226
sg23
S'10/05'
p227
sg25
S'--'
p228
sg27
S'--'
p229
sg29
S'--'
p230
sg31
S'L17-43'
p231
sg33
g10
sg35
g10
sg36
S'@NE'
p232
sg38
S'--'
p233
sg39
g10
sg40
S'--'
p234
ssS'4'
p235
(dp236
g5
S''
p237
sg7
g237
sg9
g237
sg11
g237
sg13
g237
sg15
S'James Wright'
p238
sg17
S'2015'
p239
sg19
g235
sg21
g237
sg23
S'Bye'
p240
sg25
g237
sg27
g237
sg29
g237
sg31
g237
sg33
g237
sg35
g237
sg36
g237
sg38
g237
sg39
g237
sg40
g237
ssS'7'
p241
(dp242
g5
S'--'
p243
sg7
S'--'
p244
sg9
g10
sg11
S'--'
p245
sg13
g14
sg15
S'James Wright'
p246
sg17
S'2015'
p247
sg19
g241
sg21
S'--'
p248
sg23
S'10/19'
p249
sg25
S'--'
p250
sg27
S'--'
p251
sg29
S'--'
p252
sg31
S'L0-27'
p253
sg33
g10
sg35
g10
sg36
S'@IND'
p254
sg38
S'--'
p255
sg39
g10
sg40
S'--'
p256
ssg59
(dp257
g5
S'--'
p258
sg7
S'--'
p259
sg9
g10
sg11
S'--'
p260
sg13
g14
sg15
S'James Wright'
p261
sg17
S'2015'
p262
sg19
g59
sg21
S'--'
p263
sg23
S'10/12'
p264
sg25
S'24.0'
p265
sg27
S'--'
p266
sg29
S'--'
p267
sg31
S'T37-37'
p268
sg33
S'24'
p269
sg35
g14
sg36
S'CAR'
p270
sg38
S'24'
p271
sg39
g10
sg40
S'--'
p272
ssS'9'
p273
(dp274
g5
g10
sg7
S'11'
p275
sg9
g10
sg11
S'--'
p276
sg13
g14
sg15
S'James Wright'
p277
sg17
S'2015'
p278
sg19
g273
sg21
S'11.0'
p279
sg23
S'11/02'
p280
sg25
S'--'
p281
sg27
S'--'
p282
sg29
g14
sg31
S'W33-23'
p283
sg33
S'--'
p284
sg35
S'--'
p285
sg36
S'JAC'
p286
sg38
S'--'
p287
sg39
S'--'
p288
sg40
S'11'
p289
ssg34
(dp290
g5
S'--'
p291
sg7
S'--'
p292
sg9
g10
sg11
S'--'
p293
sg13
g14
sg15
S'James Wright'
p294
sg17
S'2015'
p295
sg19
g34
sg21
S'--'
p296
sg23
S'10/26'
p297
sg25
S'--'
p298
sg27
S'--'
p299
sg29
S'--'
p300
sg31
S'W27-24'
p301
sg33
S'--'
p302
sg35
S'--'
p303
sg36
S'BAL'
p304
sg38
S'--'
p305
sg39
S'--'
p306
sg40
S'--'
p307
sssS'2014'
p308
(dp309
g3
(dp310
g5
S'--'
p311
sg7
S'--'
p312
sg9
g10
sg11
S'--'
p313
sg13
g14
sg15
S'James Wright'
p314
sg17
S'2014'
p315
sg19
S'11'
p316
sg21
S'--'
p317
sg23
S'11/16'
p318
sg25
S'8.0'
p319
sg27
S'--'
p320
sg29
S'--'
p321
sg31
S'W27-10'
p322
sg33
g34
sg35
g14
sg36
S'@NO'
p323
sg38
g34
sg39
g10
sg40
S'--'
p324
ssg42
(dp325
g5
g10
sg7
S'13'
p326
sg9
g10
sg11
S'--'
p327
sg13
g14
sg15
S'James Wright'
p328
sg17
S'2014'
p329
sg19
S'10'
p330
sg21
S'13.0'
p331
sg23
S'11/06'
p332
sg25
S'--'
p333
sg27
S'--'
p334
sg29
g14
sg31
S'L3-24'
p335
sg33
g10
sg35
g10
sg36
S'CLE'
p336
sg38
S'--'
p337
sg39
g10
sg40
S'13'
p338
ssg57
(dp339
g5
g10
sg7
g59
sg9
g10
sg11
S'--'
p340
sg13
g14
sg15
S'James Wright'
p341
sg17
S'2014'
p342
sg19
S'13'
p343
sg21
S'6.0'
p344
sg23
S'11/30'
p345
sg25
S'19.7'
p346
sg27
S'--'
p347
sg29
g14
sg31
S'W14-13'
p348
sg33
S'59'
p349
sg35
g70
sg36
S'@TB'
p350
sg38
S'30'
p351
sg39
g10
sg40
g59
ssg73
(dp352
g5
S'--'
p353
sg7
S'--'
p354
sg9
g10
sg11
S'--'
p355
sg13
g14
sg15
S'James Wright'
p356
sg17
S'2014'
p357
sg19
S'12'
p358
sg21
S'--'
p359
sg23
S'11/23'
p360
sg25
S'--'
p361
sg27
S'--'
p362
sg29
S'--'
p363
sg31
S'W22-13'
p364
sg33
g10
sg35
g10
sg36
S'@HOU'
p365
sg38
S'--'
p366
sg39
g10
sg40
S'--'
p367
ssg90
(dp368
g5
S'--'
p369
sg7
S'--'
p370
sg9
g10
sg11
S'--'
p371
sg13
g10
sg15
S'James Wright'
p372
sg17
S'2014'
p373
sg19
S'15'
p374
sg21
S'--'
p375
sg23
S'12/14'
p376
sg25
S'--'
p377
sg27
S'--'
p378
sg29
S'--'
p379
sg31
S'W30-0'
p380
sg33
S'--'
p381
sg35
S'--'
p382
sg36
S'@CLE'
p383
sg38
S'--'
p384
sg39
S'--'
p385
sg40
S'--'
p386
ssg110
(dp387
g5
S'--'
p388
sg7
S'--'
p389
sg9
g10
sg11
S'--'
p390
sg13
g10
sg15
S'James Wright'
p391
sg17
S'2014'
p392
sg19
S'14'
p393
sg21
S'--'
p394
sg23
S'12/07'
p395
sg25
S'--'
p396
sg27
S'--'
p397
sg29
S'--'
p398
sg31
S'L21-42'
p399
sg33
S'--'
p400
sg35
S'--'
p401
sg36
S'PIT'
p402
sg38
S'--'
p403
sg39
S'--'
p404
sg40
S'--'
p405
ssg130
(dp406
g5
S'--'
p407
sg7
S'--'
p408
sg9
g10
sg11
S'--'
p409
sg13
g10
sg15
S'James Wright'
p410
sg17
S'2014'
p411
sg19
S'17'
p412
sg21
S'--'
p413
sg23
S'12/28'
p414
sg25
S'--'
p415
sg27
S'--'
p416
sg29
S'--'
p417
sg31
S'L17-27'
p418
sg33
S'--'
p419
sg35
S'--'
p420
sg36
S'@PIT'
p421
sg38
S'--'
p422
sg39
S'--'
p423
sg40
S'--'
p424
ssg150
(dp425
g5
S'--'
p426
sg7
S'--'
p427
sg9
g10
sg11
S'--'
p428
sg13
g10
sg15
S'James Wright'
p429
sg17
S'2014'
p430
sg19
S'16'
p431
sg21
S'--'
p432
sg23
S'12/22'
p433
sg25
S'--'
p434
sg27
S'--'
p435
sg29
S'--'
p436
sg31
S'W37-28'
p437
sg33
S'--'
p438
sg35
S'--'
p439
sg36
S'DEN'
p440
sg38
S'--'
p441
sg39
S'--'
p442
sg40
S'--'
p443
ssg14
(dp444
g5
S'--'
p445
sg7
S'--'
p446
sg9
g10
sg11
S'--'
p447
sg13
g10
sg15
S'James Wright'
p448
sg17
S'2014'
p449
sg19
g14
sg21
S'--'
p450
sg23
S'09/07'
p451
sg25
S'--'
p452
sg27
S'--'
p453
sg29
S'--'
p454
sg31
S'W23-16'
p455
sg33
S'--'
p456
sg35
S'--'
p457
sg36
S'@BAL'
p458
sg38
S'--'
p459
sg39
S'--'
p460
sg40
S'--'
p461
ssg70
(dp462
g5
S'--'
p463
sg7
S'--'
p464
sg9
g10
sg11
S'--'
p465
sg13
g14
sg15
S'James Wright'
p466
sg17
S'2014'
p467
sg19
g70
sg21
S'--'
p468
sg23
S'09/21'
p469
sg25
S'--'
p470
sg27
S'--'
p471
sg29
S'--'
p472
sg31
S'W33-7'
p473
sg33
g10
sg35
g10
sg36
S'TEN'
p474
sg38
S'--'
p475
sg39
g10
sg40
S'--'
p476
ssg203
(dp477
g5
S'--'
p478
sg7
S'--'
p479
sg9
g10
sg11
S'--'
p480
sg13
g14
sg15
S'James Wright'
p481
sg17
S'2014'
p482
sg19
g203
sg21
S'--'
p483
sg23
S'09/14'
p484
sg25
S'--'
p485
sg27
S'--'
p486
sg29
S'--'
p487
sg31
S'W24-10'
p488
sg33
g10
sg35
g10
sg36
S'ATL'
p489
sg38
S'--'
p490
sg39
g10
sg40
S'--'
p491
ssg219
(dp492
g5
S'--'
p493
sg7
S'--'
p494
sg9
g10
sg11
S'--'
p495
sg13
g14
sg15
S'James Wright'
p496
sg17
S'2014'
p497
sg19
g219
sg21
S'--'
p498
sg23
S'10/05'
p499
sg25
S'--'
p500
sg27
S'--'
p501
sg29
S'--'
p502
sg31
S'L17-43'
p503
sg33
g10
sg35
g10
sg36
S'@NE'
p504
sg38
S'--'
p505
sg39
g10
sg40
S'--'
p506
ssg235
(dp507
g5
g237
sg7
g237
sg9
g237
sg11
g237
sg13
g237
sg15
S'James Wright'
p508
sg17
S'2014'
p509
sg19
g235
sg21
g237
sg23
S'Bye'
p510
sg25
g237
sg27
g237
sg29
g237
sg31
g237
sg33
g237
sg35
g237
sg36
g237
sg38
g237
sg39
g237
sg40
g237
ssg241
(dp511
g5
S'--'
p512
sg7
S'--'
p513
sg9
g10
sg11
S'--'
p514
sg13
g14
sg15
S'James Wright'
p515
sg17
S'2014'
p516
sg19
g241
sg21
S'--'
p517
sg23
S'10/19'
p518
sg25
S'--'
p519
sg27
S'--'
p520
sg29
S'--'
p521
sg31
S'L0-27'
p522
sg33
g10
sg35
g10
sg36
S'@IND'
p523
sg38
S'--'
p524
sg39
g10
sg40
S'--'
p525
ssg59
(dp526
g5
S'--'
p527
sg7
S'--'
p528
sg9
g10
sg11
S'--'
p529
sg13
g14
sg15
S'James Wright'
p530
sg17
S'2014'
p531
sg19
g59
sg21
S'--'
p532
sg23
S'10/12'
p533
sg25
S'24.0'
p534
sg27
S'--'
p535
sg29
S'--'
p536
sg31
S'T37-37'
p537
sg33
S'24'
p538
sg35
g14
sg36
S'CAR'
p539
sg38
S'24'
p540
sg39
g10
sg40
S'--'
p541
ssg273
(dp542
g5
g10
sg7
S'11'
p543
sg9
g10
sg11
S'--'
p544
sg13
g14
sg15
S'James Wright'
p545
sg17
S'2014'
p546
sg19
g273
sg21
S'11.0'
p547
sg23
S'11/02'
p548
sg25
S'--'
p549
sg27
S'--'
p550
sg29
g14
sg31
S'W33-23'
p551
sg33
S'--'
p552
sg35
S'--'
p553
sg36
S'JAC'
p554
sg38
S'--'
p555
sg39
S'--'
p556
sg40
S'11'
p557
ssg34
(dp558
g5
S'--'
p559
sg7
S'--'
p560
sg9
g10
sg11
S'--'
p561
sg13
g14
sg15
S'James Wright'
p562
sg17
S'2014'
p563
sg19
g34
sg21
S'--'
p564
sg23
S'10/26'
p565
sg25
S'--'
p566
sg27
S'--'
p567
sg29
S'--'
p568
sg31
S'W27-24'
p569
sg33
S'--'
p570
sg35
S'--'
p571
sg36
S'BAL'
p572
sg38
S'--'
p573
sg39
S'--'
p574
sg40
S'--'
p575
sss.