(dp0
S'2015'
p1
(dp2
S'11'
p3
(dp4
S'RushTD'
p5
S'--'
p6
sS'RushYds'
p7
S'--'
p8
sS'GS'
p9
S'0'
p10
sS'Lost'
p11
S'--'
p12
sS'G'
p13
g10
sS'Player'
p14
S'Jared Abbrederis'
p15
sS'Year'
p16
S'2015'
p17
sS'WK'
p18
S'11'
p19
sS'RushAvg'
p20
S'--'
p21
sS'Game Date'
p22
S'11/22'
p23
sS'RecAvg'
p24
S'--'
p25
sS'FUM'
p26
S'--'
p27
sS'RushAtt'
p28
S'--'
p29
sS'Result'
p30
S'W30-13'
p31
sS'RecYds'
p32
S'--'
p33
sS'Rec'
p34
S'--'
p35
sS'Opp'
p36
S'@MIN'
p37
sS'RecLng'
p38
S'--'
p39
sS'RecTD'
p40
S'--'
p41
sS'RushLng'
p42
S'--'
p43
ssS'10'
p44
(dp45
g5
S'--'
p46
sg7
S'--'
p47
sg9
g10
sg11
g10
sg13
S'1'
p48
sg14
S'Jared Abbrederis'
p49
sg16
S'2015'
p50
sg18
S'10'
p51
sg20
S'--'
p52
sg22
S'11/15'
p53
sg24
S'14.3'
p54
sg26
g48
sg28
S'--'
p55
sg30
S'L16-18'
p56
sg32
S'57'
p57
sg34
S'4'
p58
sg36
S'DET'
p59
sg38
S'32'
p60
sg40
g10
sg42
S'--'
p61
ssS'13'
p62
(dp63
g5
S'--'
p64
sg7
S'--'
p65
sg9
g10
sg11
S'--'
p66
sg13
g48
sg14
S'Jared Abbrederis'
p67
sg16
S'2015'
p68
sg18
S'13'
p69
sg20
S'--'
p70
sg22
S'12/03'
p71
sg24
S'16.0'
p72
sg26
S'--'
p73
sg28
S'--'
p74
sg30
S'W27-23'
p75
sg32
S'16'
p76
sg34
g48
sg36
S'@DET'
p77
sg38
S'16'
p78
sg40
g10
sg42
S'--'
p79
ssS'12'
p80
(dp81
g5
S'--'
p82
sg7
S'--'
p83
sg9
g10
sg11
S'--'
p84
sg13
g10
sg14
S'Jared Abbrederis'
p85
sg16
S'2015'
p86
sg18
S'12'
p87
sg20
S'--'
p88
sg22
S'11/26'
p89
sg24
S'--'
p90
sg26
S'--'
p91
sg28
S'--'
p92
sg30
S'L13-17'
p93
sg32
S'--'
p94
sg34
S'--'
p95
sg36
S'CHI'
p96
sg38
S'--'
p97
sg40
S'--'
p98
sg42
S'--'
p99
ssS'15'
p100
(dp101
g5
S'--'
p102
sg7
S'--'
p103
sg9
g10
sg11
S'--'
p104
sg13
g48
sg14
S'Jared Abbrederis'
p105
sg16
S'2015'
p106
sg18
S'15'
p107
sg20
S'--'
p108
sg22
S'12/20'
p109
sg24
S'11.0'
p110
sg26
S'--'
p111
sg28
S'--'
p112
sg30
S'W30-20'
p113
sg32
S'33'
p114
sg34
S'3'
p115
sg36
S'@OAK'
p116
sg38
S'15'
p117
sg40
g10
sg42
S'--'
p118
ssS'14'
p119
(dp120
g5
S'--'
p121
sg7
S'--'
p122
sg9
g10
sg11
S'--'
p123
sg13
g48
sg14
S'Jared Abbrederis'
p124
sg16
S'2015'
p125
sg18
S'14'
p126
sg20
S'--'
p127
sg22
S'12/13'
p128
sg24
S'--'
p129
sg26
S'--'
p130
sg28
S'--'
p131
sg30
S'W28-7'
p132
sg32
g10
sg34
g10
sg36
S'DAL'
p133
sg38
S'--'
p134
sg40
g10
sg42
S'--'
p135
ssS'17'
p136
(dp137
g5
S'--'
p138
sg7
S'--'
p139
sg9
g10
sg11
S'--'
p140
sg13
g48
sg14
S'Jared Abbrederis'
p141
sg16
S'2015'
p142
sg18
S'17'
p143
sg20
S'--'
p144
sg22
S'01/03'
p145
sg24
S'--'
p146
sg26
S'--'
p147
sg28
S'--'
p148
sg30
S'L13-20'
p149
sg32
S'--'
p150
sg34
S'--'
p151
sg36
S'MIN'
p152
sg38
S'--'
p153
sg40
S'--'
p154
sg42
S'--'
p155
ssS'16'
p156
(dp157
g5
S'--'
p158
sg7
S'--'
p159
sg9
g10
sg11
S'--'
p160
sg13
g48
sg14
S'Jared Abbrederis'
p161
sg16
S'2015'
p162
sg18
S'16'
p163
sg20
S'--'
p164
sg22
S'12/27'
p165
sg24
S'5.0'
p166
sg26
S'--'
p167
sg28
S'--'
p168
sg30
S'L8-38'
p169
sg32
S'5'
p170
sg34
g48
sg36
S'@ARI'
p171
sg38
g170
sg40
g10
sg42
S'--'
p172
ssg170
(dp173
g5
S'--'
p174
sg7
S'--'
p175
sg9
g10
sg11
S'--'
p176
sg13
g48
sg14
S'Jared Abbrederis'
p177
sg16
S'2015'
p178
sg18
g170
sg20
S'--'
p179
sg22
S'10/11'
p180
sg24
S'--'
p181
sg26
S'--'
p182
sg28
S'--'
p183
sg30
S'W24-10'
p184
sg32
S'--'
p185
sg34
S'--'
p186
sg36
S'STL'
p187
sg38
S'--'
p188
sg40
S'--'
p189
sg42
S'--'
p190
ssg58
(dp191
g5
S'--'
p192
sg7
S'--'
p193
sg9
g10
sg11
S'--'
p194
sg13
g10
sg14
S'Jared Abbrederis'
p195
sg16
S'2015'
p196
sg18
g58
sg20
S'--'
p197
sg22
S'10/04'
p198
sg24
S'--'
p199
sg26
S'--'
p200
sg28
S'--'
p201
sg30
S'W17-3'
p202
sg32
S'--'
p203
sg34
S'--'
p204
sg36
S'@SF'
p205
sg38
S'--'
p206
sg40
S'--'
p207
sg42
S'--'
p208
ssS'7'
p209
(dp210
g5
S''
p211
sg7
g211
sg9
g211
sg11
g211
sg13
g211
sg14
S'Jared Abbrederis'
p212
sg16
S'2015'
p213
sg18
g209
sg20
g211
sg22
S'Bye'
p214
sg24
g211
sg26
g211
sg28
g211
sg30
g211
sg32
g211
sg34
g211
sg36
g211
sg38
g211
sg40
g211
sg42
g211
ssS'6'
p215
(dp216
g5
S'--'
p217
sg7
S'--'
p218
sg9
g10
sg11
S'--'
p219
sg13
g48
sg14
S'Jared Abbrederis'
p220
sg16
S'2015'
p221
sg18
g215
sg20
S'--'
p222
sg22
S'10/18'
p223
sg24
S'--'
p224
sg26
S'--'
p225
sg28
S'--'
p226
sg30
S'W27-20'
p227
sg32
S'--'
p228
sg34
S'--'
p229
sg36
S'SD'
p230
sg38
S'--'
p231
sg40
S'--'
p232
sg42
S'--'
p233
ssS'9'
p234
(dp235
g5
S'--'
p236
sg7
S'--'
p237
sg9
g10
sg11
S'--'
p238
sg13
g48
sg14
S'Jared Abbrederis'
p239
sg16
S'2015'
p240
sg18
g234
sg20
S'--'
p241
sg22
S'11/08'
p242
sg24
S'--'
p243
sg26
S'--'
p244
sg28
S'--'
p245
sg30
S'L29-37'
p246
sg32
S'--'
p247
sg34
S'--'
p248
sg36
S'@CAR'
p249
sg38
S'--'
p250
sg40
S'--'
p251
sg42
S'--'
p252
ssS'8'
p253
(dp254
g5
S'--'
p255
sg7
S'--'
p256
sg9
g10
sg11
S'--'
p257
sg13
g48
sg14
S'Jared Abbrederis'
p258
sg16
S'2015'
p259
sg18
g253
sg20
S'--'
p260
sg22
S'11/01'
p261
sg24
S'--'
p262
sg26
S'--'
p263
sg28
S'--'
p264
sg30
S'L10-29'
p265
sg32
S'--'
p266
sg34
S'--'
p267
sg36
S'@DEN'
p268
sg38
S'--'
p269
sg40
S'--'
p270
sg42
S'--'
p271
sss.