(dp0
S'2015'
p1
(dp2
S'11'
p3
(dp4
S'RushTD'
p5
S'--'
p6
sS'RushYds'
p7
S'--'
p8
sS'GS'
p9
S'0'
p10
sS'Lost'
p11
S'--'
p12
sS'G'
p13
S'1'
p14
sS'Player'
p15
S'Jarius Wright'
p16
sS'Year'
p17
S'2015'
p18
sS'WK'
p19
S'11'
p20
sS'RushAvg'
p21
S'--'
p22
sS'Game Date'
p23
S'11/22'
p24
sS'RecAvg'
p25
S'12.5'
p26
sS'FUM'
p27
S'--'
p28
sS'RushAtt'
p29
S'--'
p30
sS'Result'
p31
S'L13-30'
p32
sS'RecYds'
p33
S'50'
p34
sS'Rec'
p35
S'4'
p36
sS'Opp'
p37
S'GB'
p38
sS'RecLng'
p39
S'18'
p40
sS'RecTD'
p41
g10
sS'RushLng'
p42
S'--'
p43
ssS'10'
p44
(dp45
g5
S'--'
p46
sg7
S'--'
p47
sg9
g10
sg11
S'--'
p48
sg13
g14
sg15
S'Jarius Wright'
p49
sg17
S'2015'
p50
sg19
S'10'
p51
sg21
S'--'
p52
sg23
S'11/15'
p53
sg25
S'2.0'
p54
sg27
S'--'
p55
sg29
S'--'
p56
sg31
S'W30-14'
p57
sg33
S'2'
p58
sg35
g14
sg37
S'@OAK'
p59
sg39
g58
sg41
g10
sg42
S'--'
p60
ssS'13'
p61
(dp62
g5
S'--'
p63
sg7
S'--'
p64
sg9
g10
sg11
S'--'
p65
sg13
g14
sg15
S'Jarius Wright'
p66
sg17
S'2015'
p67
sg19
S'13'
p68
sg21
S'--'
p69
sg23
S'12/06'
p70
sg25
S'12.0'
p71
sg27
S'--'
p72
sg29
S'--'
p73
sg31
S'L7-38'
p74
sg33
S'24'
p75
sg35
g58
sg37
S'SEA'
p76
sg39
S'17'
p77
sg41
g10
sg42
S'--'
p78
ssS'12'
p79
(dp80
g5
S'--'
p81
sg7
S'--'
p82
sg9
g10
sg11
S'--'
p83
sg13
g14
sg15
S'Jarius Wright'
p84
sg17
S'2015'
p85
sg19
S'12'
p86
sg21
S'--'
p87
sg23
S'11/29'
p88
sg25
S'6.5'
p89
sg27
S'--'
p90
sg29
S'--'
p91
sg31
S'W20-10'
p92
sg33
S'13'
p93
sg35
g58
sg37
S'@ATL'
p94
sg39
S'8'
p95
sg41
g10
sg42
S'--'
p96
ssS'15'
p97
(dp98
g5
S'--'
p99
sg7
S'--'
p100
sg9
g10
sg11
S'--'
p101
sg13
g14
sg15
S'Jarius Wright'
p102
sg17
S'2015'
p103
sg19
S'15'
p104
sg21
S'--'
p105
sg23
S'12/20'
p106
sg25
S'10.7'
p107
sg27
S'--'
p108
sg29
S'--'
p109
sg31
S'W38-17'
p110
sg33
S'32'
p111
sg35
S'3'
p112
sg37
S'CHI'
p113
sg39
S'15'
p114
sg41
g10
sg42
S'--'
p115
ssS'14'
p116
(dp117
g5
S'--'
p118
sg7
S'--'
p119
sg9
g10
sg11
g14
sg13
g14
sg15
S'Jarius Wright'
p120
sg17
S'2015'
p121
sg19
S'14'
p122
sg21
S'--'
p123
sg23
S'12/10'
p124
sg25
S'10.2'
p125
sg27
g14
sg29
S'--'
p126
sg31
S'L20-23'
p127
sg33
S'51'
p128
sg35
S'5'
p129
sg37
S'@ARI'
p130
sg39
S'22'
p131
sg41
g10
sg42
S'--'
p132
ssS'17'
p133
(dp134
g5
S'--'
p135
sg7
S'--'
p136
sg9
g10
sg11
S'--'
p137
sg13
g14
sg15
S'Jarius Wright'
p138
sg17
S'2015'
p139
sg19
S'17'
p140
sg21
S'--'
p141
sg23
S'01/03'
p142
sg25
S'10.5'
p143
sg27
S'--'
p144
sg29
S'--'
p145
sg31
S'W20-13'
p146
sg33
S'21'
p147
sg35
g58
sg37
S'@GB'
p148
sg39
S'11'
p149
sg41
g10
sg42
S'--'
p150
ssS'16'
p151
(dp152
g5
S'--'
p153
sg7
S'--'
p154
sg9
g10
sg11
S'--'
p155
sg13
g14
sg15
S'Jarius Wright'
p156
sg17
S'2015'
p157
sg19
S'16'
p158
sg21
S'--'
p159
sg23
S'12/27'
p160
sg25
S'19.0'
p161
sg27
S'--'
p162
sg29
S'--'
p163
sg31
S'W49-17'
p164
sg33
S'57'
p165
sg35
g112
sg37
S'NYG'
p166
sg39
S'21'
p167
sg41
g10
sg42
S'--'
p168
ssg14
(dp169
g5
S'--'
p170
sg7
S'--'
p171
sg9
g14
sg11
S'--'
p172
sg13
g14
sg15
S'Jarius Wright'
p173
sg17
S'2015'
p174
sg19
g14
sg21
S'--'
p175
sg23
S'09/14'
p176
sg25
S'27.0'
p177
sg27
S'--'
p178
sg29
S'--'
p179
sg31
S'L3-20'
p180
sg33
S'27'
p181
sg35
g14
sg37
S'@SF'
p182
sg39
S'27'
p183
sg41
g10
sg42
S'--'
p184
ssg112
(dp185
g5
S'--'
p186
sg7
S'--'
p187
sg9
g10
sg11
S'--'
p188
sg13
g14
sg15
S'Jarius Wright'
p189
sg17
S'2015'
p190
sg19
g112
sg21
S'--'
p191
sg23
S'09/27'
p192
sg25
S'9.3'
p193
sg27
S'--'
p194
sg29
S'--'
p195
sg31
S'W31-14'
p196
sg33
S'28'
p197
sg35
g112
sg37
S'SD'
p198
sg39
S'17'
p199
sg41
g10
sg42
S'--'
p200
ssg58
(dp201
g5
g10
sg7
S'29'
p202
sg9
g10
sg11
S'--'
p203
sg13
g14
sg15
S'Jarius Wright'
p204
sg17
S'2015'
p205
sg19
g58
sg21
S'29.0'
p206
sg23
S'09/20'
p207
sg25
S'17.0'
p208
sg27
S'--'
p209
sg29
g14
sg31
S'W26-16'
p210
sg33
S'17'
p211
sg35
g14
sg37
S'DET'
p212
sg39
S'17'
p213
sg41
g10
sg42
S'29'
p214
ssg129
(dp215
g5
S''
p216
sg7
g216
sg9
g216
sg11
g216
sg13
g216
sg15
S'Jarius Wright'
p217
sg17
S'2015'
p218
sg19
g129
sg21
g216
sg23
S'Bye'
p219
sg25
g216
sg27
g216
sg29
g216
sg31
g216
sg33
g216
sg35
g216
sg37
g216
sg39
g216
sg41
g216
sg42
g216
ssg36
(dp220
g5
S'--'
p221
sg7
S'--'
p222
sg9
g10
sg11
S'--'
p223
sg13
g14
sg15
S'Jarius Wright'
p224
sg17
S'2015'
p225
sg19
g36
sg21
S'--'
p226
sg23
S'10/04'
p227
sg25
S'--'
p228
sg27
S'--'
p229
sg29
S'--'
p230
sg31
S'L20-23'
p231
sg33
S'--'
p232
sg35
S'--'
p233
sg37
S'@DEN'
p234
sg39
S'--'
p235
sg41
S'--'
p236
sg42
S'--'
p237
ssS'7'
p238
(dp239
g5
S'--'
p240
sg7
S'--'
p241
sg9
g14
sg11
S'--'
p242
sg13
g14
sg15
S'Jarius Wright'
p243
sg17
S'2015'
p244
sg19
g238
sg21
S'--'
p245
sg23
S'10/25'
p246
sg25
S'10.3'
p247
sg27
S'--'
p248
sg29
S'--'
p249
sg31
S'W28-19'
p250
sg33
S'31'
p251
sg35
g112
sg37
S'@DET'
p252
sg39
S'16'
p253
sg41
g10
sg42
S'--'
p254
ssS'6'
p255
(dp256
g5
S'--'
p257
sg7
S'--'
p258
sg9
g14
sg11
S'--'
p259
sg13
g14
sg15
S'Jarius Wright'
p260
sg17
S'2015'
p261
sg19
g255
sg21
S'--'
p262
sg23
S'10/18'
p263
sg25
S'34.5'
p264
sg27
S'--'
p265
sg29
S'--'
p266
sg31
S'W16-10'
p267
sg33
S'69'
p268
sg35
g58
sg37
S'KC'
p269
sg39
S'52'
p270
sg41
g10
sg42
S'--'
p271
ssS'9'
p272
(dp273
g5
S'--'
p274
sg7
S'--'
p275
sg9
g10
sg11
S'--'
p276
sg13
g14
sg15
S'Jarius Wright'
p277
sg17
S'2015'
p278
sg19
g272
sg21
S'--'
p279
sg23
S'11/08'
p280
sg25
S'12.0'
p281
sg27
S'--'
p282
sg29
S'--'
p283
sg31
S'W21-18'
p284
sg33
S'12'
p285
sg35
g14
sg37
S'STL'
p286
sg39
S'12'
p287
sg41
g10
sg42
S'--'
p288
ssg95
(dp289
g5
S'--'
p290
sg7
S'--'
p291
sg9
g10
sg11
S'--'
p292
sg13
g14
sg15
S'Jarius Wright'
p293
sg17
S'2015'
p294
sg19
g95
sg21
S'--'
p295
sg23
S'11/01'
p296
sg25
S'8.0'
p297
sg27
S'--'
p298
sg29
S'--'
p299
sg31
S'W23-20'
p300
sg33
g95
sg35
g14
sg37
S'@CHI'
p301
sg39
g95
sg41
g10
sg42
S'--'
p302
sssS'2014'
p303
(dp304
g3
(dp305
g5
S'--'
p306
sg7
S'--'
p307
sg9
g14
sg11
S'--'
p308
sg13
g14
sg15
S'Jarius Wright'
p309
sg17
S'2014'
p310
sg19
S'11'
p311
sg21
S'--'
p312
sg23
S'11/16'
p313
sg25
S'--'
p314
sg27
S'--'
p315
sg29
S'--'
p316
sg31
S'L13-21'
p317
sg33
g10
sg35
g10
sg37
S'@CHI'
p318
sg39
S'--'
p319
sg41
g10
sg42
S'--'
p320
ssg44
(dp321
g5
g216
sg7
g216
sg9
g216
sg11
g216
sg13
g216
sg15
S'Jarius Wright'
p322
sg17
S'2014'
p323
sg19
S'10'
p324
sg21
g216
sg23
S'Bye'
p325
sg25
g216
sg27
g216
sg29
g216
sg31
g216
sg33
g216
sg35
g216
sg37
g216
sg39
g216
sg41
g216
sg42
g216
ssg61
(dp326
g5
g10
sg7
g129
sg9
g10
sg11
S'--'
p327
sg13
g14
sg15
S'Jarius Wright'
p328
sg17
S'2014'
p329
sg19
S'13'
p330
sg21
S'5.0'
p331
sg23
S'11/30'
p332
sg25
S'20.0'
p333
sg27
S'--'
p334
sg29
g14
sg31
S'W31-13'
p335
sg33
S'40'
p336
sg35
g58
sg37
S'CAR'
p337
sg39
S'35'
p338
sg41
g10
sg42
g129
ssg79
(dp339
g5
S'--'
p340
sg7
S'--'
p341
sg9
g10
sg11
S'--'
p342
sg13
g14
sg15
S'Jarius Wright'
p343
sg17
S'2014'
p344
sg19
S'12'
p345
sg21
S'--'
p346
sg23
S'11/23'
p347
sg25
S'--'
p348
sg27
S'--'
p349
sg29
S'--'
p350
sg31
S'L21-24'
p351
sg33
g10
sg35
g10
sg37
S'GB'
p352
sg39
S'--'
p353
sg41
g10
sg42
S'--'
p354
ssg97
(dp355
g5
S'--'
p356
sg7
S'--'
p357
sg9
g14
sg11
S'--'
p358
sg13
g14
sg15
S'Jarius Wright'
p359
sg17
S'2014'
p360
sg19
S'15'
p361
sg21
S'--'
p362
sg23
S'12/14'
p363
sg25
S'12.3'
p364
sg27
S'--'
p365
sg29
S'--'
p366
sg31
S'L14-16'
p367
sg33
S'49'
p368
sg35
g36
sg37
S'@DET'
p369
sg39
S'16'
p370
sg41
g10
sg42
S'--'
p371
ssg116
(dp372
g5
g10
sg7
S'23'
p373
sg9
g14
sg11
S'--'
p374
sg13
g14
sg15
S'Jarius Wright'
p375
sg17
S'2014'
p376
sg19
S'14'
p377
sg21
S'23.0'
p378
sg23
S'12/07'
p379
sg25
S'30.8'
p380
sg27
S'--'
p381
sg29
g14
sg31
S'W30-24'
p382
sg33
S'123'
p383
sg35
g36
sg37
S'NYJ'
p384
sg39
S'87T'
p385
sg41
g14
sg42
S'23'
p386
ssg133
(dp387
g5
S'--'
p388
sg7
S'--'
p389
sg9
g10
sg11
S'--'
p390
sg13
g14
sg15
S'Jarius Wright'
p391
sg17
S'2014'
p392
sg19
S'17'
p393
sg21
S'--'
p394
sg23
S'12/28'
p395
sg25
S'7.7'
p396
sg27
S'--'
p397
sg29
S'--'
p398
sg31
S'W13-9'
p399
sg33
S'23'
p400
sg35
g112
sg37
S'CHI'
p401
sg39
S'11'
p402
sg41
g10
sg42
S'--'
p403
ssg151
(dp404
g5
g10
sg7
S'27'
p405
sg9
g14
sg11
S'--'
p406
sg13
g14
sg15
S'Jarius Wright'
p407
sg17
S'2014'
p408
sg19
S'16'
p409
sg21
S'27.0'
p410
sg23
S'12/21'
p411
sg25
S'12.7'
p412
sg27
S'--'
p413
sg29
g14
sg31
S'L35-37'
p414
sg33
S'38'
p415
sg35
g112
sg37
S'@MIA'
p416
sg39
S'20'
p417
sg41
g14
sg42
S'27'
p418
ssg14
(dp419
g5
S'--'
p420
sg7
S'--'
p421
sg9
g10
sg11
S'--'
p422
sg13
g14
sg15
S'Jarius Wright'
p423
sg17
S'2014'
p424
sg19
g14
sg21
S'--'
p425
sg23
S'09/07'
p426
sg25
S'12.5'
p427
sg27
S'--'
p428
sg29
S'--'
p429
sg31
S'W34-6'
p430
sg33
S'25'
p431
sg35
g58
sg37
S'@STL'
p432
sg39
S'15'
p433
sg41
g10
sg42
S'--'
p434
ssg112
(dp435
g5
S'--'
p436
sg7
S'--'
p437
sg9
g10
sg11
S'--'
p438
sg13
g14
sg15
S'Jarius Wright'
p439
sg17
S'2014'
p440
sg19
g112
sg21
S'--'
p441
sg23
S'09/21'
p442
sg25
S'--'
p443
sg27
S'--'
p444
sg29
S'--'
p445
sg31
S'L9-20'
p446
sg33
S'--'
p447
sg35
S'--'
p448
sg37
S'@NO'
p449
sg39
S'--'
p450
sg41
S'--'
p451
sg42
S'--'
p452
ssg58
(dp453
g5
g10
sg7
S'-5'
p454
sg9
g10
sg11
S'--'
p455
sg13
g14
sg15
S'Jarius Wright'
p456
sg17
S'2014'
p457
sg19
g58
sg21
S'-5.0'
p458
sg23
S'09/14'
p459
sg25
S'12.0'
p460
sg27
S'--'
p461
sg29
g14
sg31
S'L7-30'
p462
sg33
S'12'
p463
sg35
g14
sg37
S'NE'
p464
sg39
S'12'
p465
sg41
g10
sg42
S'-5'
p466
ssg129
(dp467
g5
S'--'
p468
sg7
S'--'
p469
sg9
g14
sg11
S'--'
p470
sg13
g14
sg15
S'Jarius Wright'
p471
sg17
S'2014'
p472
sg19
g129
sg21
S'--'
p473
sg23
S'10/02'
p474
sg25
S'9.0'
p475
sg27
S'--'
p476
sg29
S'--'
p477
sg31
S'L10-42'
p478
sg33
S'27'
p479
sg35
g112
sg37
S'@GB'
p480
sg39
S'18'
p481
sg41
g10
sg42
S'--'
p482
ssg36
(dp483
g5
S'--'
p484
sg7
S'--'
p485
sg9
g10
sg11
S'--'
p486
sg13
g14
sg15
S'Jarius Wright'
p487
sg17
S'2014'
p488
sg19
g36
sg21
S'--'
p489
sg23
S'09/28'
p490
sg25
S'16.5'
p491
sg27
S'--'
p492
sg29
S'--'
p493
sg31
S'W41-28'
p494
sg33
S'132'
p495
sg35
g95
sg37
S'ATL'
p496
sg39
S'52'
p497
sg41
g10
sg42
S'--'
p498
ssg238
(dp499
g5
S'--'
p500
sg7
S'--'
p501
sg9
g10
sg11
S'--'
p502
sg13
g14
sg15
S'Jarius Wright'
p503
sg17
S'2014'
p504
sg19
g238
sg21
S'--'
p505
sg23
S'10/19'
p506
sg25
S'15.0'
p507
sg27
S'--'
p508
sg29
S'--'
p509
sg31
S'L16-17'
p510
sg33
S'60'
p511
sg35
g36
sg37
S'@BUF'
p512
sg39
S'28'
p513
sg41
g10
sg42
S'--'
p514
ssg255
(dp515
g5
g10
sg7
S'21'
p516
sg9
g10
sg11
S'--'
p517
sg13
g14
sg15
S'Jarius Wright'
p518
sg17
S'2014'
p519
sg19
g255
sg21
S'21.0'
p520
sg23
S'10/12'
p521
sg25
S'4.3'
p522
sg27
S'--'
p523
sg29
g14
sg31
S'L3-17'
p524
sg33
S'17'
p525
sg35
g36
sg37
S'DET'
p526
sg39
g255
sg41
g10
sg42
S'21'
p527
ssg272
(dp528
g5
S'--'
p529
sg7
S'--'
p530
sg9
g14
sg11
S'--'
p531
sg13
g14
sg15
S'Jarius Wright'
p532
sg17
S'2014'
p533
sg19
g272
sg21
S'--'
p534
sg23
S'11/02'
p535
sg25
S'14.5'
p536
sg27
S'--'
p537
sg29
S'--'
p538
sg31
S'W29-26'
p539
sg33
S'29'
p540
sg35
g58
sg37
S'WAS'
p541
sg39
S'21'
p542
sg41
g10
sg42
S'--'
p543
ssg95
(dp544
g5
S'--'
p545
sg7
S'--'
p546
sg9
g14
sg11
S'--'
p547
sg13
g14
sg15
S'Jarius Wright'
p548
sg17
S'2014'
p549
sg19
g95
sg21
S'--'
p550
sg23
S'10/26'
p551
sg25
S'6.5'
p552
sg27
S'--'
p553
sg29
S'--'
p554
sg31
S'W19-13'
p555
sg33
S'13'
p556
sg35
g58
sg37
S'@TB'
p557
sg39
S'17'
p558
sg41
g10
sg42
S'--'
p559
sssS'2013'
p560
(dp561
g3
(dp562
g5
S'--'
p563
sg7
S'--'
p564
sg9
g14
sg11
S'--'
p565
sg13
g14
sg15
S'Jarius Wright'
p566
sg17
S'2013'
p567
sg19
S'11'
p568
sg21
S'--'
p569
sg23
S'11/17'
p570
sg25
S'23.0'
p571
sg27
S'--'
p572
sg29
S'--'
p573
sg31
S'L20-41'
p574
sg33
S'69'
p575
sg35
g112
sg37
S'@SEA'
p576
sg39
S'38T'
p577
sg41
g58
sg42
S'--'
p578
ssg44
(dp579
g5
S'--'
p580
sg7
S'--'
p581
sg9
g10
sg11
S'--'
p582
sg13
g14
sg15
S'Jarius Wright'
p583
sg17
S'2013'
p584
sg19
S'10'
p585
sg21
S'--'
p586
sg23
S'11/07'
p587
sg25
S'17.0'
p588
sg27
S'--'
p589
sg29
S'--'
p590
sg31
S'W34-27'
p591
sg33
S'34'
p592
sg35
g58
sg37
S'WAS'
p593
sg39
S'28'
p594
sg41
g10
sg42
S'--'
p595
ssg61
(dp596
g5
S'--'
p597
sg7
S'--'
p598
sg9
g10
sg11
S'--'
p599
sg13
g14
sg15
S'Jarius Wright'
p600
sg17
S'2013'
p601
sg19
S'13'
p602
sg21
S'--'
p603
sg23
S'12/01'
p604
sg25
S'17.7'
p605
sg27
S'--'
p606
sg29
S'--'
p607
sg31
S'W23-20'
p608
sg33
S'53'
p609
sg35
g112
sg37
S'CHI'
p610
sg39
S'24'
p611
sg41
g10
sg42
S'--'
p612
ssg79
(dp613
g5
S'--'
p614
sg7
S'--'
p615
sg9
g10
sg11
S'--'
p616
sg13
g14
sg15
S'Jarius Wright'
p617
sg17
S'2013'
p618
sg19
S'12'
p619
sg21
S'--'
p620
sg23
S'11/24'
p621
sg25
S'--'
p622
sg27
S'--'
p623
sg29
S'--'
p624
sg31
S'T26-26'
p625
sg33
g10
sg35
g10
sg37
S'@GB'
p626
sg39
S'--'
p627
sg41
g10
sg42
S'--'
p628
ssg97
(dp629
g5
S'--'
p630
sg7
S'--'
p631
sg9
g10
sg11
S'--'
p632
sg13
g14
sg15
S'Jarius Wright'
p633
sg17
S'2013'
p634
sg19
S'15'
p635
sg21
S'--'
p636
sg23
S'12/15'
p637
sg25
S'23.8'
p638
sg27
S'--'
p639
sg29
S'--'
p640
sg31
S'W48-30'
p641
sg33
S'95'
p642
sg35
g36
sg37
S'PHI'
p643
sg39
S'42'
p644
sg41
g10
sg42
S'--'
p645
ssg116
(dp646
g5
S'--'
p647
sg7
S'--'
p648
sg9
g10
sg11
S'--'
p649
sg13
g14
sg15
S'Jarius Wright'
p650
sg17
S'2013'
p651
sg19
S'14'
p652
sg21
S'--'
p653
sg23
S'12/08'
p654
sg25
S'--'
p655
sg27
S'--'
p656
sg29
S'--'
p657
sg31
S'L26-29'
p658
sg33
g10
sg35
g10
sg37
S'@BAL'
p659
sg39
S'--'
p660
sg41
g10
sg42
S'--'
p661
ssg133
(dp662
g5
S'--'
p663
sg7
S'--'
p664
sg9
g14
sg11
S'--'
p665
sg13
g14
sg15
S'Jarius Wright'
p666
sg17
S'2013'
p667
sg19
S'17'
p668
sg21
S'--'
p669
sg23
S'12/29'
p670
sg25
S'15.5'
p671
sg27
S'--'
p672
sg29
S'--'
p673
sg31
S'W14-13'
p674
sg33
S'31'
p675
sg35
g58
sg37
S'DET'
p676
sg39
S'19'
p677
sg41
g10
sg42
S'--'
p678
ssg151
(dp679
g5
S'--'
p680
sg7
S'--'
p681
sg9
g10
sg11
S'--'
p682
sg13
g14
sg15
S'Jarius Wright'
p683
sg17
S'2013'
p684
sg19
S'16'
p685
sg21
S'--'
p686
sg23
S'12/22'
p687
sg25
S'36.0'
p688
sg27
S'--'
p689
sg29
S'--'
p690
sg31
S'L14-42'
p691
sg33
S'36'
p692
sg35
g14
sg37
S'@CIN'
p693
sg39
S'36T'
p694
sg41
g14
sg42
S'--'
p695
ssg14
(dp696
g5
S'--'
p697
sg7
S'--'
p698
sg9
g10
sg11
S'--'
p699
sg13
g14
sg15
S'Jarius Wright'
p700
sg17
S'2013'
p701
sg19
g14
sg21
S'--'
p702
sg23
S'09/08'
p703
sg25
S'--'
p704
sg27
S'--'
p705
sg29
S'--'
p706
sg31
S'L24-34'
p707
sg33
g10
sg35
g10
sg37
S'@DET'
p708
sg39
S'--'
p709
sg41
g10
sg42
S'--'
p710
ssg112
(dp711
g5
S'--'
p712
sg7
S'--'
p713
sg9
g10
sg11
S'--'
p714
sg13
g14
sg15
S'Jarius Wright'
p715
sg17
S'2013'
p716
sg19
g112
sg21
S'--'
p717
sg23
S'09/22'
p718
sg25
S'11.7'
p719
sg27
S'--'
p720
sg29
S'--'
p721
sg31
S'L27-31'
p722
sg33
S'35'
p723
sg35
g112
sg37
S'CLE'
p724
sg39
S'20'
p725
sg41
g10
sg42
S'--'
p726
ssg58
(dp727
g5
S'--'
p728
sg7
S'--'
p729
sg9
g14
sg11
S'--'
p730
sg13
g14
sg15
S'Jarius Wright'
p731
sg17
S'2013'
p732
sg19
g58
sg21
S'--'
p733
sg23
S'09/15'
p734
sg25
S'21.0'
p735
sg27
S'--'
p736
sg29
S'--'
p737
sg31
S'L30-31'
p738
sg33
S'21'
p739
sg35
g14
sg37
S'@CHI'
p740
sg39
S'21'
p741
sg41
g10
sg42
S'--'
p742
ssg129
(dp743
g5
g216
sg7
g216
sg9
g216
sg11
g216
sg13
g216
sg15
S'Jarius Wright'
p744
sg17
S'2013'
p745
sg19
g129
sg21
g216
sg23
S'Bye'
p746
sg25
g216
sg27
g216
sg29
g216
sg31
g216
sg33
g216
sg35
g216
sg37
g216
sg39
g216
sg41
g216
sg42
g216
ssg36
(dp747
g5
S'--'
p748
sg7
S'--'
p749
sg9
g10
sg11
S'--'
p750
sg13
g14
sg15
S'Jarius Wright'
p751
sg17
S'2013'
p752
sg19
g36
sg21
S'--'
p753
sg23
S'09/29'
p754
sg25
S'6.0'
p755
sg27
S'--'
p756
sg29
S'--'
p757
sg31
S'W34-27'
p758
sg33
g255
sg35
g14
sg37
S'PIT'
p759
sg39
g255
sg41
g10
sg42
S'--'
p760
ssg238
(dp761
g5
S'--'
p762
sg7
S'--'
p763
sg9
g10
sg11
S'--'
p764
sg13
g14
sg15
S'Jarius Wright'
p765
sg17
S'2013'
p766
sg19
g238
sg21
S'--'
p767
sg23
S'10/21'
p768
sg25
S'13.0'
p769
sg27
S'--'
p770
sg29
S'--'
p771
sg31
S'L7-23'
p772
sg33
S'13'
p773
sg35
g14
sg37
S'@NYG'
p774
sg39
S'13'
p775
sg41
g10
sg42
S'--'
p776
ssg255
(dp777
g5
S'--'
p778
sg7
S'--'
p779
sg9
g10
sg11
S'--'
p780
sg13
g14
sg15
S'Jarius Wright'
p781
sg17
S'2013'
p782
sg19
g255
sg21
S'--'
p783
sg23
S'10/13'
p784
sg25
S'5.0'
p785
sg27
S'--'
p786
sg29
S'--'
p787
sg31
S'L10-35'
p788
sg33
S'10'
p789
sg35
g58
sg37
S'CAR'
p790
sg39
g95
sg41
g10
sg42
S'--'
p791
ssg272
(dp792
g5
S'--'
p793
sg7
S'--'
p794
sg9
g10
sg11
S'--'
p795
sg13
g14
sg15
S'Jarius Wright'
p796
sg17
S'2013'
p797
sg19
g272
sg21
S'--'
p798
sg23
S'11/03'
p799
sg25
S'10.3'
p800
sg27
S'--'
p801
sg29
S'--'
p802
sg31
S'L23-27'
p803
sg33
S'31'
p804
sg35
g112
sg37
S'@DAL'
p805
sg39
S'13'
p806
sg41
g10
sg42
S'--'
p807
ssg95
(dp808
g5
S'--'
p809
sg7
S'--'
p810
sg9
g10
sg11
S'--'
p811
sg13
g14
sg15
S'Jarius Wright'
p812
sg17
S'2013'
p813
sg19
g95
sg21
S'--'
p814
sg23
S'10/27'
p815
sg25
S'--'
p816
sg27
S'--'
p817
sg29
S'--'
p818
sg31
S'L31-44'
p819
sg33
S'--'
p820
sg35
S'--'
p821
sg37
S'GB'
p822
sg39
S'--'
p823
sg41
S'--'
p824
sg42
S'--'
p825
sssS'2012'
p826
(dp827
g3
(dp828
g5
g216
sg7
g216
sg9
g216
sg11
g216
sg13
g216
sg15
S'Jarius Wright'
p829
sg17
S'2012'
p830
sg19
S'11'
p831
sg21
g216
sg23
S'Bye'
p832
sg25
g216
sg27
g216
sg29
g216
sg31
g216
sg33
g216
sg35
g216
sg37
g216
sg39
g216
sg41
g216
sg42
g216
ssg44
(dp833
g5
g10
sg7
g112
sg9
g10
sg11
S'--'
p834
sg13
g14
sg15
S'Jarius Wright'
p835
sg17
S'2012'
p836
sg19
S'10'
p837
sg21
S'3.0'
p838
sg23
S'11/11'
p839
sg25
S'21.7'
p840
sg27
S'--'
p841
sg29
g14
sg31
S'W34-24'
p842
sg33
S'65'
p843
sg35
g112
sg37
S'DET'
p844
sg39
S'54'
p845
sg41
g14
sg42
g112
ssg61
(dp846
g5
S'--'
p847
sg7
S'--'
p848
sg9
g10
sg11
S'--'
p849
sg13
g14
sg15
S'Jarius Wright'
p850
sg17
S'2012'
p851
sg19
S'13'
p852
sg21
S'--'
p853
sg23
S'12/02'
p854
sg25
S'13.0'
p855
sg27
S'--'
p856
sg29
S'--'
p857
sg31
S'L14-23'
p858
sg33
S'13'
p859
sg35
g14
sg37
S'@GB'
p860
sg39
S'13'
p861
sg41
g10
sg42
S'--'
p862
ssg79
(dp863
g5
S'--'
p864
sg7
S'--'
p865
sg9
g10
sg11
S'--'
p866
sg13
g14
sg15
S'Jarius Wright'
p867
sg17
S'2012'
p868
sg19
S'12'
p869
sg21
S'--'
p870
sg23
S'11/25'
p871
sg25
S'7.0'
p872
sg27
S'--'
p873
sg29
S'--'
p874
sg31
S'L10-28'
p875
sg33
S'49'
p876
sg35
g238
sg37
S'@CHI'
p877
sg39
S'12'
p878
sg41
g10
sg42
S'--'
p879
ssg97
(dp880
g5
S'--'
p881
sg7
S'--'
p882
sg9
g10
sg11
S'--'
p883
sg13
g14
sg15
S'Jarius Wright'
p884
sg17
S'2012'
p885
sg19
S'15'
p886
sg21
S'--'
p887
sg23
S'12/16'
p888
sg25
S'11.0'
p889
sg27
S'--'
p890
sg29
S'--'
p891
sg31
S'W36-22'
p892
sg33
S'11'
p893
sg35
g14
sg37
S'@STL'
p894
sg39
S'11'
p895
sg41
g10
sg42
S'--'
p896
ssg116
(dp897
g5
S'--'
p898
sg7
S'--'
p899
sg9
g14
sg11
S'--'
p900
sg13
g14
sg15
S'Jarius Wright'
p901
sg17
S'2012'
p902
sg19
S'14'
p903
sg21
S'--'
p904
sg23
S'12/09'
p905
sg25
S'14.5'
p906
sg27
S'--'
p907
sg29
S'--'
p908
sg31
S'W21-14'
p909
sg33
S'29'
p910
sg35
g58
sg37
S'CHI'
p911
sg39
S'16'
p912
sg41
g10
sg42
S'--'
p913
ssg133
(dp914
g5
S'--'
p915
sg7
S'--'
p916
sg9
g10
sg11
S'--'
p917
sg13
g14
sg15
S'Jarius Wright'
p918
sg17
S'2012'
p919
sg19
S'17'
p920
sg21
S'--'
p921
sg23
S'12/30'
p922
sg25
S'30.0'
p923
sg27
S'--'
p924
sg29
S'--'
p925
sg31
S'W37-34'
p926
sg33
S'90'
p927
sg35
g112
sg37
S'GB'
p928
sg39
S'65'
p929
sg41
g14
sg42
S'--'
p930
ssg151
(dp931
g5
g10
sg7
g95
sg9
g10
sg11
S'--'
p932
sg13
g14
sg15
S'Jarius Wright'
p933
sg17
S'2012'
p934
sg19
S'16'
p935
sg21
S'8.0'
p936
sg23
S'12/23'
p937
sg25
S'10.6'
p938
sg27
S'--'
p939
sg29
g14
sg31
S'W23-6'
p940
sg33
S'53'
p941
sg35
g129
sg37
S'@HOU'
p942
sg39
S'21'
p943
sg41
g10
sg42
g95
ssg14
(dp944
g5
S'--'
p945
sg7
S'--'
p946
sg9
g10
sg11
S'--'
p947
sg13
g10
sg15
S'Jarius Wright'
p948
sg17
S'2012'
p949
sg19
g14
sg21
S'--'
p950
sg23
S'09/09'
p951
sg25
S'--'
p952
sg27
S'--'
p953
sg29
S'--'
p954
sg31
S'W26-23'
p955
sg33
S'--'
p956
sg35
S'--'
p957
sg37
S'JAC'
p958
sg39
S'--'
p959
sg41
S'--'
p960
sg42
S'--'
p961
ssg112
(dp962
g5
S'--'
p963
sg7
S'--'
p964
sg9
g10
sg11
S'--'
p965
sg13
g10
sg15
S'Jarius Wright'
p966
sg17
S'2012'
p967
sg19
g112
sg21
S'--'
p968
sg23
S'09/23'
p969
sg25
S'--'
p970
sg27
S'--'
p971
sg29
S'--'
p972
sg31
S'W24-13'
p973
sg33
S'--'
p974
sg35
S'--'
p975
sg37
S'SF'
p976
sg39
S'--'
p977
sg41
S'--'
p978
sg42
S'--'
p979
ssg58
(dp980
g5
S'--'
p981
sg7
S'--'
p982
sg9
g10
sg11
S'--'
p983
sg13
g10
sg15
S'Jarius Wright'
p984
sg17
S'2012'
p985
sg19
g58
sg21
S'--'
p986
sg23
S'09/16'
p987
sg25
S'--'
p988
sg27
S'--'
p989
sg29
S'--'
p990
sg31
S'L20-23'
p991
sg33
S'--'
p992
sg35
S'--'
p993
sg37
S'@IND'
p994
sg39
S'--'
p995
sg41
S'--'
p996
sg42
S'--'
p997
ssg129
(dp998
g5
S'--'
p999
sg7
S'--'
p1000
sg9
g10
sg11
S'--'
p1001
sg13
g10
sg15
S'Jarius Wright'
p1002
sg17
S'2012'
p1003
sg19
g129
sg21
S'--'
p1004
sg23
S'10/07'
p1005
sg25
S'--'
p1006
sg27
S'--'
p1007
sg29
S'--'
p1008
sg31
S'W30-7'
p1009
sg33
S'--'
p1010
sg35
S'--'
p1011
sg37
S'TEN'
p1012
sg39
S'--'
p1013
sg41
S'--'
p1014
sg42
S'--'
p1015
ssg36
(dp1016
g5
S'--'
p1017
sg7
S'--'
p1018
sg9
g10
sg11
S'--'
p1019
sg13
g10
sg15
S'Jarius Wright'
p1020
sg17
S'2012'
p1021
sg19
g36
sg21
S'--'
p1022
sg23
S'09/30'
p1023
sg25
S'--'
p1024
sg27
S'--'
p1025
sg29
S'--'
p1026
sg31
S'W20-13'
p1027
sg33
S'--'
p1028
sg35
S'--'
p1029
sg37
S'@DET'
p1030
sg39
S'--'
p1031
sg41
S'--'
p1032
sg42
S'--'
p1033
ssg238
(dp1034
g5
S'--'
p1035
sg7
S'--'
p1036
sg9
g10
sg11
S'--'
p1037
sg13
g10
sg15
S'Jarius Wright'
p1038
sg17
S'2012'
p1039
sg19
g238
sg21
S'--'
p1040
sg23
S'10/21'
p1041
sg25
S'--'
p1042
sg27
S'--'
p1043
sg29
S'--'
p1044
sg31
S'W21-14'
p1045
sg33
S'--'
p1046
sg35
S'--'
p1047
sg37
S'ARI'
p1048
sg39
S'--'
p1049
sg41
S'--'
p1050
sg42
S'--'
p1051
ssg255
(dp1052
g5
S'--'
p1053
sg7
S'--'
p1054
sg9
g10
sg11
S'--'
p1055
sg13
g10
sg15
S'Jarius Wright'
p1056
sg17
S'2012'
p1057
sg19
g255
sg21
S'--'
p1058
sg23
S'10/14'
p1059
sg25
S'--'
p1060
sg27
S'--'
p1061
sg29
S'--'
p1062
sg31
S'L26-38'
p1063
sg33
S'--'
p1064
sg35
S'--'
p1065
sg37
S'@WAS'
p1066
sg39
S'--'
p1067
sg41
S'--'
p1068
sg42
S'--'
p1069
ssg272
(dp1070
g5
S'--'
p1071
sg7
S'--'
p1072
sg9
g10
sg11
S'--'
p1073
sg13
g10
sg15
S'Jarius Wright'
p1074
sg17
S'2012'
p1075
sg19
g272
sg21
S'--'
p1076
sg23
S'11/04'
p1077
sg25
S'--'
p1078
sg27
S'--'
p1079
sg29
S'--'
p1080
sg31
S'L20-30'
p1081
sg33
S'--'
p1082
sg35
S'--'
p1083
sg37
S'@SEA'
p1084
sg39
S'--'
p1085
sg41
S'--'
p1086
sg42
S'--'
p1087
ssg95
(dp1088
g5
S'--'
p1089
sg7
S'--'
p1090
sg9
g10
sg11
S'--'
p1091
sg13
g10
sg15
S'Jarius Wright'
p1092
sg17
S'2012'
p1093
sg19
g95
sg21
S'--'
p1094
sg23
S'10/25'
p1095
sg25
S'--'
p1096
sg27
S'--'
p1097
sg29
S'--'
p1098
sg31
S'L17-36'
p1099
sg33
S'--'
p1100
sg35
S'--'
p1101
sg37
S'TB'
p1102
sg39
S'--'
p1103
sg41
S'--'
p1104
sg42
S'--'
p1105
sss.