(dp0
S'2015'
p1
(dp2
S'11'
p3
(dp4
S'RushTD'
p5
S'--'
p6
sS'RushYds'
p7
S'--'
p8
sS'GS'
p9
S'0'
p10
sS'Lost'
p11
S'--'
p12
sS'G'
p13
S'1'
p14
sS'Player'
p15
S'Jaron Brown'
p16
sS'Year'
p17
S'2015'
p18
sS'WK'
p19
S'11'
p20
sS'RushAvg'
p21
S'--'
p22
sS'Game Date'
p23
S'11/22'
p24
sS'RecAvg'
p25
S'--'
p26
sS'FUM'
p27
S'--'
p28
sS'RushAtt'
p29
S'--'
p30
sS'Result'
p31
S'W34-31'
p32
sS'RecYds'
p33
S'--'
p34
sS'Rec'
p35
S'--'
p36
sS'Opp'
p37
S'CIN'
p38
sS'RecLng'
p39
S'--'
p40
sS'RecTD'
p41
S'--'
p42
sS'RushLng'
p43
S'--'
p44
ssS'10'
p45
(dp46
g5
S'--'
p47
sg7
S'--'
p48
sg9
g10
sg11
S'--'
p49
sg13
g14
sg15
S'Jaron Brown'
p50
sg17
S'2015'
p51
sg19
S'10'
p52
sg21
S'--'
p53
sg23
S'11/15'
p54
sg25
S'12.7'
p55
sg27
S'--'
p56
sg29
S'--'
p57
sg31
S'W39-32'
p58
sg33
S'38'
p59
sg35
S'3'
p60
sg37
S'@SEA'
p61
sg39
S'20'
p62
sg41
g10
sg43
S'--'
p63
ssS'13'
p64
(dp65
g5
S'--'
p66
sg7
S'--'
p67
sg9
g10
sg11
S'--'
p68
sg13
g14
sg15
S'Jaron Brown'
p69
sg17
S'2015'
p70
sg19
S'13'
p71
sg21
S'--'
p72
sg23
S'12/06'
p73
sg25
S'--'
p74
sg27
S'--'
p75
sg29
S'--'
p76
sg31
S'W27-3'
p77
sg33
S'--'
p78
sg35
S'--'
p79
sg37
S'@STL'
p80
sg39
S'--'
p81
sg41
S'--'
p82
sg43
S'--'
p83
ssS'12'
p84
(dp85
g5
S'--'
p86
sg7
S'--'
p87
sg9
g10
sg11
S'--'
p88
sg13
g14
sg15
S'Jaron Brown'
p89
sg17
S'2015'
p90
sg19
S'12'
p91
sg21
S'--'
p92
sg23
S'11/29'
p93
sg25
S'--'
p94
sg27
S'--'
p95
sg29
S'--'
p96
sg31
S'W19-13'
p97
sg33
S'--'
p98
sg35
S'--'
p99
sg37
S'@SF'
p100
sg39
S'--'
p101
sg41
S'--'
p102
sg43
S'--'
p103
ssS'15'
p104
(dp105
g5
S'--'
p106
sg7
S'--'
p107
sg9
g10
sg11
S'--'
p108
sg13
g14
sg15
S'Jaron Brown'
p109
sg17
S'2015'
p110
sg19
S'15'
p111
sg21
S'--'
p112
sg23
S'12/20'
p113
sg25
S'15.0'
p114
sg27
S'--'
p115
sg29
S'--'
p116
sg31
S'W40-17'
p117
sg33
S'15'
p118
sg35
g14
sg37
S'@PHI'
p119
sg39
S'15'
p120
sg41
g10
sg43
S'--'
p121
ssS'14'
p122
(dp123
g5
S'--'
p124
sg7
S'--'
p125
sg9
g10
sg11
S'--'
p126
sg13
g14
sg15
S'Jaron Brown'
p127
sg17
S'2015'
p128
sg19
S'14'
p129
sg21
S'--'
p130
sg23
S'12/10'
p131
sg25
S'1.0'
p132
sg27
S'--'
p133
sg29
S'--'
p134
sg31
S'W23-20'
p135
sg33
g14
sg35
g14
sg37
S'MIN'
p136
sg39
g14
sg41
g10
sg43
S'--'
p137
ssS'17'
p138
(dp139
g5
S'--'
p140
sg7
S'--'
p141
sg9
g10
sg11
S'--'
p142
sg13
g14
sg15
S'Jaron Brown'
p143
sg17
S'2015'
p144
sg19
S'17'
p145
sg21
S'--'
p146
sg23
S'01/03'
p147
sg25
S'--'
p148
sg27
S'--'
p149
sg29
S'--'
p150
sg31
S'L6-36'
p151
sg33
g10
sg35
g10
sg37
S'SEA'
p152
sg39
S'--'
p153
sg41
g10
sg43
S'--'
p154
ssS'16'
p155
(dp156
g5
S'--'
p157
sg7
S'--'
p158
sg9
g10
sg11
S'--'
p159
sg13
g14
sg15
S'Jaron Brown'
p160
sg17
S'2015'
p161
sg19
S'16'
p162
sg21
S'--'
p163
sg23
S'12/27'
p164
sg25
S'--'
p165
sg27
S'--'
p166
sg29
S'--'
p167
sg31
S'W38-8'
p168
sg33
S'--'
p169
sg35
S'--'
p170
sg37
S'GB'
p171
sg39
S'--'
p172
sg41
S'--'
p173
sg43
S'--'
p174
ssg14
(dp175
g5
S'--'
p176
sg7
S'--'
p177
sg9
g10
sg11
S'--'
p178
sg13
g14
sg15
S'Jaron Brown'
p179
sg17
S'2015'
p180
sg19
g14
sg21
S'--'
p181
sg23
S'09/13'
p182
sg25
S'8.0'
p183
sg27
S'--'
p184
sg29
S'--'
p185
sg31
S'W31-19'
p186
sg33
S'8'
p187
sg35
g14
sg37
S'NO'
p188
sg39
g187
sg41
g10
sg43
S'--'
p189
ssg60
(dp190
g5
S'--'
p191
sg7
S'--'
p192
sg9
g10
sg11
S'--'
p193
sg13
g14
sg15
S'Jaron Brown'
p194
sg17
S'2015'
p195
sg19
g60
sg21
S'--'
p196
sg23
S'09/27'
p197
sg25
S'--'
p198
sg27
S'--'
p199
sg29
S'--'
p200
sg31
S'W47-7'
p201
sg33
S'--'
p202
sg35
S'--'
p203
sg37
S'SF'
p204
sg39
S'--'
p205
sg41
S'--'
p206
sg43
S'--'
p207
ssS'2'
p208
(dp209
g5
S'--'
p210
sg7
S'--'
p211
sg9
g10
sg11
S'--'
p212
sg13
g14
sg15
S'Jaron Brown'
p213
sg17
S'2015'
p214
sg19
g208
sg21
S'--'
p215
sg23
S'09/20'
p216
sg25
S'10.0'
p217
sg27
S'--'
p218
sg29
S'--'
p219
sg31
S'W48-23'
p220
sg33
S'20'
p221
sg35
g208
sg37
S'@CHI'
p222
sg39
S'14'
p223
sg41
g14
sg43
S'--'
p224
ssS'5'
p225
(dp226
g5
S'--'
p227
sg7
S'--'
p228
sg9
g10
sg11
S'--'
p229
sg13
g14
sg15
S'Jaron Brown'
p230
sg17
S'2015'
p231
sg19
g225
sg21
S'--'
p232
sg23
S'10/11'
p233
sg25
S'--'
p234
sg27
S'--'
p235
sg29
S'--'
p236
sg31
S'W42-17'
p237
sg33
S'--'
p238
sg35
S'--'
p239
sg37
S'@DET'
p240
sg39
S'--'
p241
sg41
S'--'
p242
sg43
S'--'
p243
ssS'4'
p244
(dp245
g5
S'--'
p246
sg7
S'--'
p247
sg9
g10
sg11
S'--'
p248
sg13
g14
sg15
S'Jaron Brown'
p249
sg17
S'2015'
p250
sg19
g244
sg21
S'--'
p251
sg23
S'10/04'
p252
sg25
S'20.0'
p253
sg27
S'--'
p254
sg29
S'--'
p255
sg31
S'L22-24'
p256
sg33
S'20'
p257
sg35
g14
sg37
S'STL'
p258
sg39
S'20'
p259
sg41
g10
sg43
S'--'
p260
ssS'7'
p261
(dp262
g5
S'--'
p263
sg7
S'--'
p264
sg9
g10
sg11
S'--'
p265
sg13
g14
sg15
S'Jaron Brown'
p266
sg17
S'2015'
p267
sg19
g261
sg21
S'--'
p268
sg23
S'10/26'
p269
sg25
S'3.0'
p270
sg27
S'--'
p271
sg29
S'--'
p272
sg31
S'W26-18'
p273
sg33
g60
sg35
g14
sg37
S'BAL'
p274
sg39
g60
sg41
g10
sg43
S'--'
p275
ssS'6'
p276
(dp277
g5
S'--'
p278
sg7
S'--'
p279
sg9
g10
sg11
S'--'
p280
sg13
g14
sg15
S'Jaron Brown'
p281
sg17
S'2015'
p282
sg19
g276
sg21
S'--'
p283
sg23
S'10/18'
p284
sg25
S'--'
p285
sg27
S'--'
p286
sg29
S'--'
p287
sg31
S'L13-25'
p288
sg33
g10
sg35
g10
sg37
S'@PIT'
p289
sg39
S'--'
p290
sg41
g10
sg43
S'--'
p291
ssS'9'
p292
(dp293
g5
S''
p294
sg7
g294
sg9
g294
sg11
g294
sg13
g294
sg15
S'Jaron Brown'
p295
sg17
S'2015'
p296
sg19
g292
sg21
g294
sg23
S'Bye'
p297
sg25
g294
sg27
g294
sg29
g294
sg31
g294
sg33
g294
sg35
g294
sg37
g294
sg39
g294
sg41
g294
sg43
g294
ssg187
(dp298
g5
S'--'
p299
sg7
S'--'
p300
sg9
g10
sg11
S'--'
p301
sg13
g14
sg15
S'Jaron Brown'
p302
sg17
S'2015'
p303
sg19
g187
sg21
S'--'
p304
sg23
S'11/01'
p305
sg25
S'39.0'
p306
sg27
S'--'
p307
sg29
S'--'
p308
sg31
S'W34-20'
p309
sg33
S'39'
p310
sg35
g14
sg37
S'@CLE'
p311
sg39
S'39'
p312
sg41
g10
sg43
S'--'
p313
sssS'2014'
p314
(dp315
g3
(dp316
g5
S'--'
p317
sg7
S'--'
p318
sg9
g10
sg11
S'--'
p319
sg13
g14
sg15
S'Jaron Brown'
p320
sg17
S'2014'
p321
sg19
S'11'
p322
sg21
S'--'
p323
sg23
S'11/16'
p324
sg25
S'4.0'
p325
sg27
S'--'
p326
sg29
S'--'
p327
sg31
S'W14-6'
p328
sg33
g244
sg35
g14
sg37
S'DET'
p329
sg39
g244
sg41
g10
sg43
S'--'
p330
ssg45
(dp331
g5
S'--'
p332
sg7
S'--'
p333
sg9
g10
sg11
S'--'
p334
sg13
g14
sg15
S'Jaron Brown'
p335
sg17
S'2014'
p336
sg19
S'10'
p337
sg21
S'--'
p338
sg23
S'11/09'
p339
sg25
S'11.7'
p340
sg27
S'--'
p341
sg29
S'--'
p342
sg31
S'W31-14'
p343
sg33
S'35'
p344
sg35
g60
sg37
S'STL'
p345
sg39
S'15'
p346
sg41
g10
sg43
S'--'
p347
ssg64
(dp348
g5
S'--'
p349
sg7
S'--'
p350
sg9
g10
sg11
S'--'
p351
sg13
g14
sg15
S'Jaron Brown'
p352
sg17
S'2014'
p353
sg19
S'13'
p354
sg21
S'--'
p355
sg23
S'11/30'
p356
sg25
S'10.7'
p357
sg27
S'--'
p358
sg29
S'--'
p359
sg31
S'L18-29'
p360
sg33
S'75'
p361
sg35
g261
sg37
S'@ATL'
p362
sg39
S'23'
p363
sg41
g10
sg43
S'--'
p364
ssg84
(dp365
g5
S'--'
p366
sg7
S'--'
p367
sg9
g10
sg11
g10
sg13
g14
sg15
S'Jaron Brown'
p368
sg17
S'2014'
p369
sg19
S'12'
p370
sg21
S'--'
p371
sg23
S'11/23'
p372
sg25
S'8.0'
p373
sg27
g14
sg29
S'--'
p374
sg31
S'L3-19'
p375
sg33
S'24'
p376
sg35
g60
sg37
S'@SEA'
p377
sg39
S'22'
p378
sg41
g10
sg43
S'--'
p379
ssg104
(dp380
g5
S'--'
p381
sg7
S'--'
p382
sg9
g10
sg11
S'--'
p383
sg13
g14
sg15
S'Jaron Brown'
p384
sg17
S'2014'
p385
sg19
S'15'
p386
sg21
S'--'
p387
sg23
S'12/11'
p388
sg25
S'--'
p389
sg27
S'--'
p390
sg29
S'--'
p391
sg31
S'W12-6'
p392
sg33
S'--'
p393
sg35
S'--'
p394
sg37
S'@STL'
p395
sg39
S'--'
p396
sg41
S'--'
p397
sg43
S'--'
p398
ssg122
(dp399
g5
S'--'
p400
sg7
S'--'
p401
sg9
g10
sg11
S'--'
p402
sg13
g14
sg15
S'Jaron Brown'
p403
sg17
S'2014'
p404
sg19
S'14'
p405
sg21
S'--'
p406
sg23
S'12/07'
p407
sg25
S'24.0'
p408
sg27
S'--'
p409
sg29
S'--'
p410
sg31
S'W17-14'
p411
sg33
S'48'
p412
sg35
g208
sg37
S'KC'
p413
sg39
S'26T'
p414
sg41
g14
sg43
S'--'
p415
ssg138
(dp416
g5
S'--'
p417
sg7
S'--'
p418
sg9
g10
sg11
S'--'
p419
sg13
g14
sg15
S'Jaron Brown'
p420
sg17
S'2014'
p421
sg19
S'17'
p422
sg21
S'--'
p423
sg23
S'12/28'
p424
sg25
S'--'
p425
sg27
S'--'
p426
sg29
S'--'
p427
sg31
S'L17-20'
p428
sg33
S'--'
p429
sg35
S'--'
p430
sg37
S'@SF'
p431
sg39
S'--'
p432
sg41
S'--'
p433
sg43
S'--'
p434
ssg155
(dp435
g5
S'--'
p436
sg7
S'--'
p437
sg9
g10
sg11
S'--'
p438
sg13
g14
sg15
S'Jaron Brown'
p439
sg17
S'2014'
p440
sg19
S'16'
p441
sg21
S'--'
p442
sg23
S'12/21'
p443
sg25
S'6.0'
p444
sg27
S'--'
p445
sg29
S'--'
p446
sg31
S'L6-35'
p447
sg33
g276
sg35
g14
sg37
S'SEA'
p448
sg39
g276
sg41
g10
sg43
S'--'
p449
ssg14
(dp450
g5
S'--'
p451
sg7
S'--'
p452
sg9
g10
sg11
S'--'
p453
sg13
g14
sg15
S'Jaron Brown'
p454
sg17
S'2014'
p455
sg19
g14
sg21
S'--'
p456
sg23
S'09/08'
p457
sg25
S'6.0'
p458
sg27
S'--'
p459
sg29
S'--'
p460
sg31
S'W18-17'
p461
sg33
g276
sg35
g14
sg37
S'SD'
p462
sg39
g276
sg41
g10
sg43
S'--'
p463
ssg60
(dp464
g5
S'--'
p465
sg7
S'--'
p466
sg9
g10
sg11
S'--'
p467
sg13
g14
sg15
S'Jaron Brown'
p468
sg17
S'2014'
p469
sg19
g60
sg21
S'--'
p470
sg23
S'09/21'
p471
sg25
S'--'
p472
sg27
S'--'
p473
sg29
S'--'
p474
sg31
S'W23-14'
p475
sg33
g10
sg35
g10
sg37
S'SF'
p476
sg39
S'--'
p477
sg41
g10
sg43
S'--'
p478
ssg208
(dp479
g5
S'--'
p480
sg7
S'--'
p481
sg9
g10
sg11
S'--'
p482
sg13
g14
sg15
S'Jaron Brown'
p483
sg17
S'2014'
p484
sg19
g208
sg21
S'--'
p485
sg23
S'09/14'
p486
sg25
S'--'
p487
sg27
S'--'
p488
sg29
S'--'
p489
sg31
S'W25-14'
p490
sg33
S'--'
p491
sg35
S'--'
p492
sg37
S'@NYG'
p493
sg39
S'--'
p494
sg41
S'--'
p495
sg43
S'--'
p496
ssg225
(dp497
g5
S'--'
p498
sg7
S'--'
p499
sg9
g14
sg11
S'--'
p500
sg13
g14
sg15
S'Jaron Brown'
p501
sg17
S'2014'
p502
sg19
g225
sg21
S'--'
p503
sg23
S'10/05'
p504
sg25
S'--'
p505
sg27
S'--'
p506
sg29
S'--'
p507
sg31
S'L20-41'
p508
sg33
S'--'
p509
sg35
S'--'
p510
sg37
S'@DEN'
p511
sg39
S'--'
p512
sg41
S'--'
p513
sg43
S'--'
p514
ssg244
(dp515
g5
g294
sg7
g294
sg9
g294
sg11
g294
sg13
g294
sg15
S'Jaron Brown'
p516
sg17
S'2014'
p517
sg19
g244
sg21
g294
sg23
S'Bye'
p518
sg25
g294
sg27
g294
sg29
g294
sg31
g294
sg33
g294
sg35
g294
sg37
g294
sg39
g294
sg41
g294
sg43
g294
ssg261
(dp519
g5
S'--'
p520
sg7
S'--'
p521
sg9
g10
sg11
S'--'
p522
sg13
g14
sg15
S'Jaron Brown'
p523
sg17
S'2014'
p524
sg19
g261
sg21
S'--'
p525
sg23
S'10/19'
p526
sg25
S'9.0'
p527
sg27
S'--'
p528
sg29
S'--'
p529
sg31
S'W24-13'
p530
sg33
g292
sg35
g14
sg37
S'@OAK'
p531
sg39
g292
sg41
g10
sg43
S'--'
p532
ssg276
(dp533
g5
S'--'
p534
sg7
S'--'
p535
sg9
g10
sg11
S'--'
p536
sg13
g14
sg15
S'Jaron Brown'
p537
sg17
S'2014'
p538
sg19
g276
sg21
S'--'
p539
sg23
S'10/12'
p540
sg25
S'--'
p541
sg27
S'--'
p542
sg29
S'--'
p543
sg31
S'W30-20'
p544
sg33
g10
sg35
g10
sg37
S'WAS'
p545
sg39
S'--'
p546
sg41
g10
sg43
S'--'
p547
ssg292
(dp548
g5
S'--'
p549
sg7
S'--'
p550
sg9
g10
sg11
S'--'
p551
sg13
g14
sg15
S'Jaron Brown'
p552
sg17
S'2014'
p553
sg19
g292
sg21
S'--'
p554
sg23
S'11/02'
p555
sg25
S'7.5'
p556
sg27
S'--'
p557
sg29
S'--'
p558
sg31
S'W28-17'
p559
sg33
S'15'
p560
sg35
g208
sg37
S'@DAL'
p561
sg39
S'11T'
p562
sg41
g14
sg43
S'--'
p563
ssg187
(dp564
g5
S'--'
p565
sg7
S'--'
p566
sg9
g14
sg11
S'--'
p567
sg13
g14
sg15
S'Jaron Brown'
p568
sg17
S'2014'
p569
sg19
g187
sg21
S'--'
p570
sg23
S'10/26'
p571
sg25
S'7.0'
p572
sg27
S'--'
p573
sg29
S'--'
p574
sg31
S'W24-20'
p575
sg33
g261
sg35
g14
sg37
S'PHI'
p576
sg39
g261
sg41
g10
sg43
S'--'
p577
sssS'2013'
p578
(dp579
g3
(dp580
g5
S'--'
p581
sg7
S'--'
p582
sg9
g10
sg11
S'--'
p583
sg13
g14
sg15
S'Jaron Brown'
p584
sg17
S'2013'
p585
sg19
S'11'
p586
sg21
S'--'
p587
sg23
S'11/17'
p588
sg25
S'--'
p589
sg27
S'--'
p590
sg29
S'--'
p591
sg31
S'W27-14'
p592
sg33
S'--'
p593
sg35
S'--'
p594
sg37
S'@JAC'
p595
sg39
S'--'
p596
sg41
S'--'
p597
sg43
S'--'
p598
ssg45
(dp599
g5
S'--'
p600
sg7
S'--'
p601
sg9
g10
sg11
S'--'
p602
sg13
g14
sg15
S'Jaron Brown'
p603
sg17
S'2013'
p604
sg19
S'10'
p605
sg21
S'--'
p606
sg23
S'11/10'
p607
sg25
S'7.0'
p608
sg27
S'--'
p609
sg29
S'--'
p610
sg31
S'W27-24'
p611
sg33
g261
sg35
g14
sg37
S'HOU'
p612
sg39
g261
sg41
g10
sg43
S'--'
p613
ssg64
(dp614
g5
S'--'
p615
sg7
S'--'
p616
sg9
g10
sg11
S'--'
p617
sg13
g14
sg15
S'Jaron Brown'
p618
sg17
S'2013'
p619
sg19
S'13'
p620
sg21
S'--'
p621
sg23
S'12/01'
p622
sg25
S'6.0'
p623
sg27
S'--'
p624
sg29
S'--'
p625
sg31
S'L21-24'
p626
sg33
g276
sg35
g14
sg37
S'@PHI'
p627
sg39
g276
sg41
g10
sg43
S'--'
p628
ssg84
(dp629
g5
S'--'
p630
sg7
S'--'
p631
sg9
g10
sg11
S'--'
p632
sg13
g14
sg15
S'Jaron Brown'
p633
sg17
S'2013'
p634
sg19
S'12'
p635
sg21
S'--'
p636
sg23
S'11/24'
p637
sg25
S'16.0'
p638
sg27
S'--'
p639
sg29
S'--'
p640
sg31
S'W40-11'
p641
sg33
S'16'
p642
sg35
g14
sg37
S'IND'
p643
sg39
S'16'
p644
sg41
g10
sg43
S'--'
p645
ssg104
(dp646
g5
S'--'
p647
sg7
S'--'
p648
sg9
g10
sg11
S'--'
p649
sg13
g14
sg15
S'Jaron Brown'
p650
sg17
S'2013'
p651
sg19
S'15'
p652
sg21
S'--'
p653
sg23
S'12/15'
p654
sg25
S'--'
p655
sg27
S'--'
p656
sg29
S'--'
p657
sg31
S'W37-34'
p658
sg33
S'--'
p659
sg35
S'--'
p660
sg37
S'@TEN'
p661
sg39
S'--'
p662
sg41
S'--'
p663
sg43
S'--'
p664
ssg122
(dp665
g5
S'--'
p666
sg7
S'--'
p667
sg9
g10
sg11
S'--'
p668
sg13
g14
sg15
S'Jaron Brown'
p669
sg17
S'2013'
p670
sg19
S'14'
p671
sg21
S'--'
p672
sg23
S'12/08'
p673
sg25
S'32.0'
p674
sg27
S'--'
p675
sg29
S'--'
p676
sg31
S'W30-10'
p677
sg33
S'32'
p678
sg35
g14
sg37
S'STL'
p679
sg39
S'32'
p680
sg41
g10
sg43
S'--'
p681
ssg138
(dp682
g5
S'--'
p683
sg7
S'--'
p684
sg9
g10
sg11
S'--'
p685
sg13
g14
sg15
S'Jaron Brown'
p686
sg17
S'2013'
p687
sg19
S'17'
p688
sg21
S'--'
p689
sg23
S'12/29'
p690
sg25
S'--'
p691
sg27
S'--'
p692
sg29
S'--'
p693
sg31
S'L20-23'
p694
sg33
g10
sg35
g10
sg37
S'SF'
p695
sg39
S'--'
p696
sg41
g10
sg43
S'--'
p697
ssg155
(dp698
g5
S'--'
p699
sg7
S'--'
p700
sg9
g10
sg11
S'--'
p701
sg13
g14
sg15
S'Jaron Brown'
p702
sg17
S'2013'
p703
sg19
S'16'
p704
sg21
S'--'
p705
sg23
S'12/22'
p706
sg25
S'--'
p707
sg27
S'--'
p708
sg29
S'--'
p709
sg31
S'W17-10'
p710
sg33
S'--'
p711
sg35
S'--'
p712
sg37
S'@SEA'
p713
sg39
S'--'
p714
sg41
S'--'
p715
sg43
S'--'
p716
ssg14
(dp717
g5
S'--'
p718
sg7
S'--'
p719
sg9
g10
sg11
S'--'
p720
sg13
g14
sg15
S'Jaron Brown'
p721
sg17
S'2013'
p722
sg19
g14
sg21
S'--'
p723
sg23
S'09/08'
p724
sg25
S'14.0'
p725
sg27
S'--'
p726
sg29
S'--'
p727
sg31
S'L24-27'
p728
sg33
S'14'
p729
sg35
g14
sg37
S'@STL'
p730
sg39
S'14'
p731
sg41
g10
sg43
S'--'
p732
ssg60
(dp733
g5
S'--'
p734
sg7
S'--'
p735
sg9
g10
sg11
S'--'
p736
sg13
g14
sg15
S'Jaron Brown'
p737
sg17
S'2013'
p738
sg19
g60
sg21
S'--'
p739
sg23
S'09/22'
p740
sg25
S'--'
p741
sg27
S'--'
p742
sg29
S'--'
p743
sg31
S'L7-31'
p744
sg33
g10
sg35
g10
sg37
S'@NO'
p745
sg39
S'--'
p746
sg41
g10
sg43
S'--'
p747
ssg208
(dp748
g5
S'--'
p749
sg7
S'--'
p750
sg9
g10
sg11
S'--'
p751
sg13
g14
sg15
S'Jaron Brown'
p752
sg17
S'2013'
p753
sg19
g208
sg21
S'--'
p754
sg23
S'09/15'
p755
sg25
S'11.0'
p756
sg27
S'--'
p757
sg29
S'--'
p758
sg31
S'W25-21'
p759
sg33
S'11'
p760
sg35
g14
sg37
S'DET'
p761
sg39
S'11'
p762
sg41
g10
sg43
S'--'
p763
ssg225
(dp764
g5
S'--'
p765
sg7
S'--'
p766
sg9
g10
sg11
S'--'
p767
sg13
g14
sg15
S'Jaron Brown'
p768
sg17
S'2013'
p769
sg19
g225
sg21
S'--'
p770
sg23
S'10/06'
p771
sg25
S'--'
p772
sg27
S'--'
p773
sg29
S'--'
p774
sg31
S'W22-6'
p775
sg33
S'--'
p776
sg35
S'--'
p777
sg37
S'CAR'
p778
sg39
S'--'
p779
sg41
S'--'
p780
sg43
S'--'
p781
ssg244
(dp782
g5
S'--'
p783
sg7
S'--'
p784
sg9
g10
sg11
S'--'
p785
sg13
g14
sg15
S'Jaron Brown'
p786
sg17
S'2013'
p787
sg19
g244
sg21
S'--'
p788
sg23
S'09/29'
p789
sg25
S'19.0'
p790
sg27
S'--'
p791
sg29
S'--'
p792
sg31
S'W13-10'
p793
sg33
S'19'
p794
sg35
g14
sg37
S'@TB'
p795
sg39
S'19'
p796
sg41
g10
sg43
S'--'
p797
ssg261
(dp798
g5
S'--'
p799
sg7
S'--'
p800
sg9
g10
sg11
S'--'
p801
sg13
g14
sg15
S'Jaron Brown'
p802
sg17
S'2013'
p803
sg19
g261
sg21
S'--'
p804
sg23
S'10/17'
p805
sg25
S'10.0'
p806
sg27
S'--'
p807
sg29
S'--'
p808
sg31
S'L22-34'
p809
sg33
S'30'
p810
sg35
g60
sg37
S'SEA'
p811
sg39
S'13'
p812
sg41
g14
sg43
S'--'
p813
ssg276
(dp814
g5
S'--'
p815
sg7
S'--'
p816
sg9
g10
sg11
S'--'
p817
sg13
g14
sg15
S'Jaron Brown'
p818
sg17
S'2013'
p819
sg19
g276
sg21
S'--'
p820
sg23
S'10/13'
p821
sg25
S'5.0'
p822
sg27
S'--'
p823
sg29
S'--'
p824
sg31
S'L20-32'
p825
sg33
g225
sg35
g14
sg37
S'@SF'
p826
sg39
g225
sg41
g10
sg43
S'--'
p827
ssg292
(dp828
g5
g294
sg7
g294
sg9
g294
sg11
g294
sg13
g294
sg15
S'Jaron Brown'
p829
sg17
S'2013'
p830
sg19
g292
sg21
g294
sg23
S'Bye'
p831
sg25
g294
sg27
g294
sg29
g294
sg31
g294
sg33
g294
sg35
g294
sg37
g294
sg39
g294
sg41
g294
sg43
g294
ssg187
(dp832
g5
S'--'
p833
sg7
S'--'
p834
sg9
g10
sg11
S'--'
p835
sg13
g14
sg15
S'Jaron Brown'
p836
sg17
S'2013'
p837
sg19
g187
sg21
S'--'
p838
sg23
S'10/27'
p839
sg25
S'--'
p840
sg27
S'--'
p841
sg29
S'--'
p842
sg31
S'W27-13'
p843
sg33
S'--'
p844
sg35
S'--'
p845
sg37
S'ATL'
p846
sg39
S'--'
p847
sg41
S'--'
p848
sg43
S'--'
p849
sss.