(dp0
S'2015'
p1
(dp2
S'11'
p3
(dp4
S'RushTD'
p5
S'--'
p6
sS'RushYds'
p7
S'--'
p8
sS'GS'
p9
S'0'
p10
sS'Lost'
p11
S'--'
p12
sS'G'
p13
S'1'
p14
sS'Player'
p15
S'Jarvis Landry'
p16
sS'Year'
p17
S'2015'
p18
sS'WK'
p19
S'11'
p20
sS'RushAvg'
p21
S'--'
p22
sS'Game Date'
p23
S'11/22'
p24
sS'RecAvg'
p25
S'16.5'
p26
sS'FUM'
p27
S'--'
p28
sS'RushAtt'
p29
S'--'
p30
sS'Result'
p31
S'L14-24'
p32
sS'RecYds'
p33
S'66'
p34
sS'Rec'
p35
S'4'
p36
sS'Opp'
p37
S'DAL'
p38
sS'RecLng'
p39
S'47'
p40
sS'RecTD'
p41
g10
sS'RushLng'
p42
S'--'
p43
ssS'10'
p44
(dp45
g5
g10
sg7
S'6'
p46
sg9
g14
sg11
S'--'
p47
sg13
g14
sg15
S'Jarvis Landry'
p48
sg17
S'2015'
p49
sg19
S'10'
p50
sg21
S'6.0'
p51
sg23
S'11/15'
p52
sg25
S'7.4'
p53
sg27
S'--'
p54
sg29
g14
sg31
S'W20-19'
p55
sg33
S'52'
p56
sg35
S'7'
p57
sg37
S'@PHI'
p58
sg39
S'18'
p59
sg41
g14
sg42
g46
ssS'13'
p60
(dp61
g5
S'--'
p62
sg7
S'--'
p63
sg9
g14
sg11
S'--'
p64
sg13
g14
sg15
S'Jarvis Landry'
p65
sg17
S'2015'
p66
sg19
S'13'
p67
sg21
S'--'
p68
sg23
S'12/06'
p69
sg25
S'2.5'
p70
sg27
S'--'
p71
sg29
S'--'
p72
sg31
S'W15-13'
p73
sg33
S'5'
p74
sg35
S'2'
p75
sg37
S'BAL'
p76
sg39
g46
sg41
g10
sg42
S'--'
p77
ssS'12'
p78
(dp79
g5
g10
sg7
g36
sg9
g14
sg11
S'--'
p80
sg13
g14
sg15
S'Jarvis Landry'
p81
sg17
S'2015'
p82
sg19
S'12'
p83
sg21
S'4.0'
p84
sg23
S'11/29'
p85
sg25
S'12.7'
p86
sg27
S'--'
p87
sg29
g14
sg31
S'L20-38'
p88
sg33
S'165'
p89
sg35
S'13'
p90
sg37
S'@NYJ'
p91
sg39
S'40'
p92
sg41
g14
sg42
g36
ssS'15'
p93
(dp94
g5
S'--'
p95
sg7
S'--'
p96
sg9
g10
sg11
S'--'
p97
sg13
g14
sg15
S'Jarvis Landry'
p98
sg17
S'2015'
p99
sg19
S'15'
p100
sg21
S'--'
p101
sg23
S'12/20'
p102
sg25
S'6.8'
p103
sg27
S'--'
p104
sg29
S'--'
p105
sg31
S'L14-30'
p106
sg33
S'54'
p107
sg35
S'8'
p108
sg37
S'@SD'
p109
sg39
S'14'
p110
sg41
g10
sg42
S'--'
p111
ssS'14'
p112
(dp113
g5
g10
sg7
g10
sg9
g14
sg11
S'--'
p114
sg13
g14
sg15
S'Jarvis Landry'
p115
sg17
S'2015'
p116
sg19
S'14'
p117
sg21
S'0.0'
p118
sg23
S'12/14'
p119
sg25
S'9.0'
p120
sg27
S'--'
p121
sg29
g14
sg31
S'L24-31'
p122
sg33
S'99'
p123
sg35
S'11'
p124
sg37
S'NYG'
p125
sg39
S'25'
p126
sg41
g10
sg42
g10
ssS'17'
p127
(dp128
g5
g10
sg7
g46
sg9
g14
sg11
S'--'
p129
sg13
g14
sg15
S'Jarvis Landry'
p130
sg17
S'2015'
p131
sg19
S'17'
p132
sg21
S'3.0'
p133
sg23
S'01/03'
p134
sg25
S'12.0'
p135
sg27
S'--'
p136
sg29
g75
sg31
S'W20-10'
p137
sg33
S'72'
p138
sg35
g46
sg37
S'NE'
p139
sg39
S'19'
p140
sg41
g10
sg42
g74
ssS'16'
p141
(dp142
g5
S'--'
p143
sg7
S'--'
p144
sg9
g14
sg11
S'--'
p145
sg13
g14
sg15
S'Jarvis Landry'
p146
sg17
S'2015'
p147
sg19
S'16'
p148
sg21
S'--'
p149
sg23
S'12/27'
p150
sg25
S'15.9'
p151
sg27
S'--'
p152
sg29
S'--'
p153
sg31
S'L12-18'
p154
sg33
S'111'
p155
sg35
g57
sg37
S'IND'
p156
sg39
S'26'
p157
sg41
g10
sg42
S'--'
p158
ssg14
(dp159
g5
g10
sg7
S'14'
p160
sg9
g14
sg11
S'--'
p161
sg13
g14
sg15
S'Jarvis Landry'
p162
sg17
S'2015'
p163
sg19
g14
sg21
S'14.0'
p164
sg23
S'09/13'
p165
sg25
S'6.6'
p166
sg27
S'--'
p167
sg29
g14
sg31
S'W17-10'
p168
sg33
S'53'
p169
sg35
g108
sg37
S'@WAS'
p170
sg39
S'20'
p171
sg41
g10
sg42
S'14'
p172
ssS'3'
p173
(dp174
g5
g10
sg7
S'-1'
p175
sg9
g14
sg11
S'--'
p176
sg13
g14
sg15
S'Jarvis Landry'
p177
sg17
S'2015'
p178
sg19
g173
sg21
S'-1.0'
p179
sg23
S'09/27'
p180
sg25
S'8.4'
p181
sg27
S'--'
p182
sg29
g14
sg31
S'L14-41'
p183
sg33
S'67'
p184
sg35
g108
sg37
S'BUF'
p185
sg39
S'13'
p186
sg41
g10
sg42
S'-1'
p187
ssg75
(dp188
g5
g10
sg7
g46
sg9
g14
sg11
S'--'
p189
sg13
g14
sg15
S'Jarvis Landry'
p190
sg17
S'2015'
p191
sg19
g75
sg21
S'6.0'
p192
sg23
S'09/20'
p193
sg25
S'13.8'
p194
sg27
S'--'
p195
sg29
g14
sg31
S'L20-23'
p196
sg33
S'110'
p197
sg35
g108
sg37
S'@JAC'
p198
sg39
S'36'
p199
sg41
g10
sg42
g46
ssg74
(dp200
g5
S''
p201
sg7
g201
sg9
g201
sg11
g201
sg13
g201
sg15
S'Jarvis Landry'
p202
sg17
S'2015'
p203
sg19
g74
sg21
g201
sg23
S'Bye'
p204
sg25
g201
sg27
g201
sg29
g201
sg31
g201
sg33
g201
sg35
g201
sg37
g201
sg39
g201
sg41
g201
sg42
g201
ssg36
(dp205
g5
g10
sg7
S'29'
p206
sg9
g14
sg11
S'--'
p207
sg13
g14
sg15
S'Jarvis Landry'
p208
sg17
S'2015'
p209
sg19
g36
sg21
S'14.5'
p210
sg23
S'10/04'
p211
sg25
S'10.0'
p212
sg27
S'--'
p213
sg29
g75
sg31
S'L14-27'
p214
sg33
S'40'
p215
sg35
g36
sg37
S'NYJ'
p216
sg39
S'20'
p217
sg41
g10
sg42
S'15'
p218
ssg57
(dp219
g5
g10
sg7
g74
sg9
g14
sg11
S'--'
p220
sg13
g14
sg15
S'Jarvis Landry'
p221
sg17
S'2015'
p222
sg19
g57
sg21
S'5.0'
p223
sg23
S'10/25'
p224
sg25
S'16.6'
p225
sg27
S'--'
p226
sg29
g14
sg31
S'W44-26'
p227
sg33
S'83'
p228
sg35
g74
sg37
S'HOU'
p229
sg39
S'50T'
p230
sg41
g75
sg42
g74
ssg46
(dp231
g5
g14
sg7
S'24'
p232
sg9
g14
sg11
S'--'
p233
sg13
g14
sg15
S'Jarvis Landry'
p234
sg17
S'2015'
p235
sg19
g46
sg21
S'12.0'
p236
sg23
S'10/18'
p237
sg25
S'14.0'
p238
sg27
S'--'
p239
sg29
g75
sg31
S'W38-10'
p240
sg33
S'42'
p241
sg35
g173
sg37
S'@TEN'
p242
sg39
S'19'
p243
sg41
g10
sg42
S'22T'
p244
ssS'9'
p245
(dp246
g5
g10
sg7
S'20'
p247
sg9
g14
sg11
S'--'
p248
sg13
g14
sg15
S'Jarvis Landry'
p249
sg17
S'2015'
p250
sg19
g245
sg21
S'4.0'
p251
sg23
S'11/08'
p252
sg25
S'6.7'
p253
sg27
S'--'
p254
sg29
g74
sg31
S'L17-33'
p255
sg33
S'67'
p256
sg35
S'10'
p257
sg37
S'@BUF'
p258
sg39
S'24'
p259
sg41
g10
sg42
g245
ssg108
(dp260
g5
S'--'
p261
sg7
S'--'
p262
sg9
g14
sg11
g10
sg13
g14
sg15
S'Jarvis Landry'
p263
sg17
S'2015'
p264
sg19
g108
sg21
S'--'
p265
sg23
S'10/29'
p266
sg25
S'11.8'
p267
sg27
g14
sg29
S'--'
p268
sg31
S'L7-36'
p269
sg33
S'71'
p270
sg35
g46
sg37
S'@NE'
p271
sg39
S'18'
p272
sg41
g10
sg42
S'--'
p273
sssS'2014'
p274
(dp275
g3
(dp276
g5
S'--'
p277
sg7
S'--'
p278
sg9
g10
sg11
g14
sg13
g14
sg15
S'Jarvis Landry'
p279
sg17
S'2014'
p280
sg19
S'11'
p281
sg21
S'--'
p282
sg23
S'11/13'
p283
sg25
S'9.2'
p284
sg27
g14
sg29
S'--'
p285
sg31
S'W22-9'
p286
sg33
S'46'
p287
sg35
g74
sg37
S'BUF'
p288
sg39
S'12'
p289
sg41
g14
sg42
S'--'
p290
ssg44
(dp291
g5
g10
sg7
S'-8'
p292
sg9
g14
sg11
S'--'
p293
sg13
g14
sg15
S'Jarvis Landry'
p294
sg17
S'2014'
p295
sg19
S'10'
p296
sg21
S'-8.0'
p297
sg23
S'11/09'
p298
sg25
S'7.6'
p299
sg27
S'--'
p300
sg29
g14
sg31
S'L16-20'
p301
sg33
S'53'
p302
sg35
g57
sg37
S'@DET'
p303
sg39
S'12'
p304
sg41
g10
sg42
S'-8'
p305
ssg60
(dp306
g5
S'--'
p307
sg7
S'--'
p308
sg9
g14
sg11
S'--'
p309
sg13
g14
sg15
S'Jarvis Landry'
p310
sg17
S'2014'
p311
sg19
S'13'
p312
sg21
S'--'
p313
sg23
S'12/01'
p314
sg25
S'8.5'
p315
sg27
S'--'
p316
sg29
S'--'
p317
sg31
S'W16-13'
p318
sg33
S'68'
p319
sg35
g108
sg37
S'@NYJ'
p320
sg39
S'25'
p321
sg41
g10
sg42
S'--'
p322
ssg78
(dp323
g5
S'--'
p324
sg7
S'--'
p325
sg9
g14
sg11
S'--'
p326
sg13
g14
sg15
S'Jarvis Landry'
p327
sg17
S'2014'
p328
sg19
S'12'
p329
sg21
S'--'
p330
sg23
S'11/23'
p331
sg25
S'7.1'
p332
sg27
S'--'
p333
sg29
S'--'
p334
sg31
S'L36-39'
p335
sg33
S'50'
p336
sg35
g57
sg37
S'@DEN'
p337
sg39
S'20'
p338
sg41
g75
sg42
S'--'
p339
ssg93
(dp340
g5
S'--'
p341
sg7
S'--'
p342
sg9
g14
sg11
g10
sg13
g14
sg15
S'Jarvis Landry'
p343
sg17
S'2014'
p344
sg19
S'15'
p345
sg21
S'--'
p346
sg23
S'12/14'
p347
sg25
S'12.4'
p348
sg27
g14
sg29
S'--'
p349
sg31
S'L13-41'
p350
sg33
S'99'
p351
sg35
g108
sg37
S'@NE'
p352
sg39
S'25'
p353
sg41
g10
sg42
S'--'
p354
ssg112
(dp355
g5
S'--'
p356
sg7
S'--'
p357
sg9
g14
sg11
g10
sg13
g14
sg15
S'Jarvis Landry'
p358
sg17
S'2014'
p359
sg19
S'14'
p360
sg21
S'--'
p361
sg23
S'12/07'
p362
sg25
S'9.2'
p363
sg27
g14
sg29
S'--'
p364
sg31
S'L13-28'
p365
sg33
S'55'
p366
sg35
g46
sg37
S'BAL'
p367
sg39
S'20'
p368
sg41
g10
sg42
S'--'
p369
ssg127
(dp370
g5
S'--'
p371
sg7
S'--'
p372
sg9
g14
sg11
S'--'
p373
sg13
g14
sg15
S'Jarvis Landry'
p374
sg17
S'2014'
p375
sg19
S'17'
p376
sg21
S'--'
p377
sg23
S'12/28'
p378
sg25
S'11.0'
p379
sg27
S'--'
p380
sg29
S'--'
p381
sg31
S'L24-37'
p382
sg33
S'55'
p383
sg35
g74
sg37
S'NYJ'
p384
sg39
S'17'
p385
sg41
g10
sg42
S'--'
p386
ssg141
(dp387
g5
S'--'
p388
sg7
S'--'
p389
sg9
g14
sg11
g14
sg13
g14
sg15
S'Jarvis Landry'
p390
sg17
S'2014'
p391
sg19
S'16'
p392
sg21
S'--'
p393
sg23
S'12/21'
p394
sg25
S'3.9'
p395
sg27
g75
sg29
S'--'
p396
sg31
S'W37-35'
p397
sg33
S'31'
p398
sg35
g108
sg37
S'MIN'
p399
sg39
S'11'
p400
sg41
g10
sg42
S'--'
p401
ssg14
(dp402
g5
S'--'
p403
sg7
S'--'
p404
sg9
g10
sg11
S'--'
p405
sg13
g14
sg15
S'Jarvis Landry'
p406
sg17
S'2014'
p407
sg19
g14
sg21
S'--'
p408
sg23
S'09/07'
p409
sg25
S'--'
p410
sg27
S'--'
p411
sg29
S'--'
p412
sg31
S'W33-20'
p413
sg33
g10
sg35
g10
sg37
S'NE'
p414
sg39
S'--'
p415
sg41
g10
sg42
S'--'
p416
ssg173
(dp417
g5
S'--'
p418
sg7
S'--'
p419
sg9
g10
sg11
S'--'
p420
sg13
g14
sg15
S'Jarvis Landry'
p421
sg17
S'2014'
p422
sg19
g173
sg21
S'--'
p423
sg23
S'09/21'
p424
sg25
S'8.0'
p425
sg27
S'--'
p426
sg29
S'--'
p427
sg31
S'L15-34'
p428
sg33
S'24'
p429
sg35
g173
sg37
S'KC'
p430
sg39
S'16'
p431
sg41
g10
sg42
S'--'
p432
ssg75
(dp433
g5
S'--'
p434
sg7
S'--'
p435
sg9
g10
sg11
g14
sg13
g14
sg15
S'Jarvis Landry'
p436
sg17
S'2014'
p437
sg19
g75
sg21
S'--'
p438
sg23
S'09/14'
p439
sg25
S'9.8'
p440
sg27
g14
sg29
S'--'
p441
sg31
S'L10-29'
p442
sg33
S'49'
p443
sg35
g74
sg37
S'@BUF'
p444
sg39
S'16'
p445
sg41
g10
sg42
S'--'
p446
ssg74
(dp447
g5
g201
sg7
g201
sg9
g201
sg11
g201
sg13
g201
sg15
S'Jarvis Landry'
p448
sg17
S'2014'
p449
sg19
g74
sg21
g201
sg23
S'Bye'
p450
sg25
g201
sg27
g201
sg29
g201
sg31
g201
sg33
g201
sg35
g201
sg37
g201
sg39
g201
sg41
g201
sg42
g201
ssg36
(dp451
g5
S'--'
p452
sg7
S'--'
p453
sg9
g10
sg11
g14
sg13
g14
sg15
S'Jarvis Landry'
p454
sg17
S'2014'
p455
sg19
g36
sg21
S'--'
p456
sg23
S'09/28'
p457
sg25
S'9.5'
p458
sg27
g14
sg29
S'--'
p459
sg31
S'W38-14'
p460
sg33
S'38'
p461
sg35
g36
sg37
S'@OAK'
p462
sg39
S'18'
p463
sg41
g10
sg42
S'--'
p464
ssg57
(dp465
g5
S'--'
p466
sg7
S'--'
p467
sg9
g14
sg11
S'--'
p468
sg13
g14
sg15
S'Jarvis Landry'
p469
sg17
S'2014'
p470
sg19
g57
sg21
S'--'
p471
sg23
S'10/19'
p472
sg25
S'11.5'
p473
sg27
S'--'
p474
sg29
S'--'
p475
sg31
S'W27-14'
p476
sg33
S'46'
p477
sg35
g36
sg37
S'@CHI'
p478
sg39
S'15'
p479
sg41
g10
sg42
S'--'
p480
ssg46
(dp481
g5
S'--'
p482
sg7
S'--'
p483
sg9
g14
sg11
S'--'
p484
sg13
g14
sg15
S'Jarvis Landry'
p485
sg17
S'2014'
p486
sg19
g46
sg21
S'--'
p487
sg23
S'10/12'
p488
sg25
S'12.5'
p489
sg27
S'--'
p490
sg29
S'--'
p491
sg31
S'L24-27'
p492
sg33
S'75'
p493
sg35
g46
sg37
S'GB'
p494
sg39
S'21'
p495
sg41
g14
sg42
S'--'
p496
ssg245
(dp497
g5
S'--'
p498
sg7
S'--'
p499
sg9
g14
sg11
S'--'
p500
sg13
g14
sg15
S'Jarvis Landry'
p501
sg17
S'2014'
p502
sg19
g245
sg21
S'--'
p503
sg23
S'11/02'
p504
sg25
S'9.2'
p505
sg27
S'--'
p506
sg29
S'--'
p507
sg31
S'W37-0'
p508
sg33
S'46'
p509
sg35
g74
sg37
S'SD'
p510
sg39
S'14T'
p511
sg41
g14
sg42
S'--'
p512
ssg108
(dp513
g5
g10
sg7
g36
sg9
g14
sg11
S'--'
p514
sg13
g14
sg15
S'Jarvis Landry'
p515
sg17
S'2014'
p516
sg19
g108
sg21
S'4.0'
p517
sg23
S'10/26'
p518
sg25
S'7.7'
p519
sg27
S'--'
p520
sg29
g14
sg31
S'W27-13'
p521
sg33
S'23'
p522
sg35
g173
sg37
S'@JAC'
p523
sg39
S'11'
p524
sg41
g10
sg42
g36
sss.