(dp0
S'2015'
p1
(dp2
S'11'
p3
(dp4
S'RushTD'
p5
S'--'
p6
sS'RushYds'
p7
S'--'
p8
sS'GS'
p9
S'0'
p10
sS'Lost'
p11
S'1'
p12
sS'G'
p13
g12
sS'Player'
p14
S'Javontee Herndon'
p15
sS'Year'
p16
S'2015'
p17
sS'WK'
p18
S'11'
p19
sS'RushAvg'
p20
S'--'
p21
sS'Game Date'
p22
S'11/22'
p23
sS'RecAvg'
p24
S'7.4'
p25
sS'FUM'
p26
g12
sS'RushAtt'
p27
S'--'
p28
sS'Result'
p29
S'L3-33'
p30
sS'RecYds'
p31
S'37'
p32
sS'Rec'
p33
S'5'
p34
sS'Opp'
p35
S'KC'
p36
sS'RecLng'
p37
S'10'
p38
sS'RecTD'
p39
g10
sS'RushLng'
p40
S'--'
p41
ssS'10'
p42
(dp43
g5
S''
p44
sg7
g44
sg9
g44
sg11
g44
sg13
g44
sg14
S'Javontee Herndon'
p45
sg16
S'2015'
p46
sg18
S'10'
p47
sg20
g44
sg22
S'Bye'
p48
sg24
g44
sg26
g44
sg27
g44
sg29
g44
sg31
g44
sg33
g44
sg35
g44
sg37
g44
sg39
g44
sg40
g44
ssS'13'
p49
(dp50
g5
S'--'
p51
sg7
S'--'
p52
sg9
g10
sg11
S'--'
p53
sg13
g12
sg14
S'Javontee Herndon'
p54
sg16
S'2015'
p55
sg18
S'13'
p56
sg20
S'--'
p57
sg22
S'12/06'
p58
sg24
S'15.0'
p59
sg26
S'--'
p60
sg27
S'--'
p61
sg29
S'L3-17'
p62
sg31
S'30'
p63
sg33
S'2'
p64
sg35
S'DEN'
p65
sg37
S'16'
p66
sg39
g10
sg40
S'--'
p67
ssS'12'
p68
(dp69
g5
S'--'
p70
sg7
S'--'
p71
sg9
g10
sg11
S'--'
p72
sg13
g12
sg14
S'Javontee Herndon'
p73
sg16
S'2015'
p74
sg18
S'12'
p75
sg20
S'--'
p76
sg22
S'11/29'
p77
sg24
S'--'
p78
sg26
S'--'
p79
sg27
S'--'
p80
sg29
S'W31-25'
p81
sg31
S'--'
p82
sg33
S'--'
p83
sg35
S'@JAC'
p84
sg37
S'--'
p85
sg39
S'--'
p86
sg40
S'--'
p87
ssS'15'
p88
(dp89
g5
S'--'
p90
sg7
S'--'
p91
sg9
g12
sg11
S'--'
p92
sg13
g12
sg14
S'Javontee Herndon'
p93
sg16
S'2015'
p94
sg18
S'15'
p95
sg20
S'--'
p96
sg22
S'12/20'
p97
sg24
S'7.0'
p98
sg26
S'--'
p99
sg27
S'--'
p100
sg29
S'W30-14'
p101
sg31
S'35'
p102
sg33
g34
sg35
S'MIA'
p103
sg37
S'16'
p104
sg39
g10
sg40
S'--'
p105
ssS'14'
p106
(dp107
g5
S'--'
p108
sg7
S'--'
p109
sg9
g12
sg11
S'--'
p110
sg13
g12
sg14
S'Javontee Herndon'
p111
sg16
S'2015'
p112
sg18
S'14'
p113
sg20
S'--'
p114
sg22
S'12/13'
p115
sg24
S'9.4'
p116
sg26
S'--'
p117
sg27
S'--'
p118
sg29
S'L3-10'
p119
sg31
S'47'
p120
sg33
g34
sg35
S'@KC'
p121
sg37
S'21'
p122
sg39
g10
sg40
S'--'
p123
ssS'17'
p124
(dp125
g5
g10
sg7
S'13'
p126
sg9
g10
sg11
g10
sg13
g12
sg14
S'Javontee Herndon'
p127
sg16
S'2015'
p128
sg18
S'17'
p129
sg20
S'13.0'
p130
sg22
S'01/03'
p131
sg24
S'6.0'
p132
sg26
g12
sg27
g12
sg29
S'L20-27'
p133
sg31
S'18'
p134
sg33
S'3'
p135
sg35
S'@DEN'
p136
sg37
S'10'
p137
sg39
g10
sg40
S'13'
p138
ssS'16'
p139
(dp140
g5
S'--'
p141
sg7
S'--'
p142
sg9
g10
sg11
S'--'
p143
sg13
g12
sg14
S'Javontee Herndon'
p144
sg16
S'2015'
p145
sg18
S'16'
p146
sg20
S'--'
p147
sg22
S'12/24'
p148
sg24
S'5.3'
p149
sg26
S'--'
p150
sg27
S'--'
p151
sg29
S'L20-23'
p152
sg31
S'16'
p153
sg33
g135
sg35
S'@OAK'
p154
sg37
S'7'
p155
sg39
g10
sg40
S'--'
p156
ssS'9'
p157
(dp158
g5
S'--'
p159
sg7
S'--'
p160
sg9
g10
sg11
S'--'
p161
sg13
g12
sg14
S'Javontee Herndon'
p162
sg16
S'2015'
p163
sg18
g157
sg20
S'--'
p164
sg22
S'11/09'
p165
sg24
S'12.0'
p166
sg26
S'--'
p167
sg27
S'--'
p168
sg29
S'L19-22'
p169
sg31
S'12'
p170
sg33
g12
sg35
S'CHI'
p171
sg37
S'12'
p172
sg39
g10
sg40
S'--'
p173
sss.