(dp0
S'2015'
p1
(dp2
S'11'
p3
(dp4
S'RushTD'
p5
S'--'
p6
sS'RushYds'
p7
S'--'
p8
sS'GS'
p9
S'0'
p10
sS'Lost'
p11
S'--'
p12
sS'G'
p13
S'1'
p14
sS'Player'
p15
S'Jeff Janis'
p16
sS'Year'
p17
S'2015'
p18
sS'WK'
p19
S'11'
p20
sS'RushAvg'
p21
S'--'
p22
sS'Game Date'
p23
S'11/22'
p24
sS'RecAvg'
p25
S'--'
p26
sS'FUM'
p27
S'--'
p28
sS'RushAtt'
p29
S'--'
p30
sS'Result'
p31
S'W30-13'
p32
sS'RecYds'
p33
g10
sS'Rec'
p34
g10
sS'Opp'
p35
S'@MIN'
p36
sS'RecLng'
p37
S'--'
p38
sS'RecTD'
p39
g10
sS'RushLng'
p40
S'--'
p41
ssS'10'
p42
(dp43
g5
S'--'
p44
sg7
S'--'
p45
sg9
g10
sg11
S'--'
p46
sg13
g14
sg15
S'Jeff Janis'
p47
sg17
S'2015'
p48
sg19
S'10'
p49
sg21
S'--'
p50
sg23
S'11/15'
p51
sg25
S'--'
p52
sg27
S'--'
p53
sg29
S'--'
p54
sg31
S'L16-18'
p55
sg33
S'--'
p56
sg34
S'--'
p57
sg35
S'DET'
p58
sg37
S'--'
p59
sg39
S'--'
p60
sg40
S'--'
p61
ssS'13'
p62
(dp63
g5
S'--'
p64
sg7
S'--'
p65
sg9
g10
sg11
S'--'
p66
sg13
g14
sg15
S'Jeff Janis'
p67
sg17
S'2015'
p68
sg19
S'13'
p69
sg21
S'--'
p70
sg23
S'12/03'
p71
sg25
S'--'
p72
sg27
S'--'
p73
sg29
S'--'
p74
sg31
S'W27-23'
p75
sg33
g10
sg34
g10
sg35
S'@DET'
p76
sg37
S'--'
p77
sg39
g10
sg40
S'--'
p78
ssS'12'
p79
(dp80
g5
S'--'
p81
sg7
S'--'
p82
sg9
g10
sg11
S'--'
p83
sg13
g14
sg15
S'Jeff Janis'
p84
sg17
S'2015'
p85
sg19
S'12'
p86
sg21
S'--'
p87
sg23
S'11/26'
p88
sg25
S'--'
p89
sg27
S'--'
p90
sg29
S'--'
p91
sg31
S'L13-17'
p92
sg33
S'--'
p93
sg34
S'--'
p94
sg35
S'CHI'
p95
sg37
S'--'
p96
sg39
S'--'
p97
sg40
S'--'
p98
ssS'15'
p99
(dp100
g5
S'--'
p101
sg7
S'--'
p102
sg9
g10
sg11
S'--'
p103
sg13
g14
sg15
S'Jeff Janis'
p104
sg17
S'2015'
p105
sg19
S'15'
p106
sg21
S'--'
p107
sg23
S'12/20'
p108
sg25
S'--'
p109
sg27
S'--'
p110
sg29
S'--'
p111
sg31
S'W30-20'
p112
sg33
g10
sg34
g10
sg35
S'@OAK'
p113
sg37
S'--'
p114
sg39
g10
sg40
S'--'
p115
ssS'14'
p116
(dp117
g5
S'--'
p118
sg7
S'--'
p119
sg9
g10
sg11
S'--'
p120
sg13
g14
sg15
S'Jeff Janis'
p121
sg17
S'2015'
p122
sg19
S'14'
p123
sg21
S'--'
p124
sg23
S'12/13'
p125
sg25
S'--'
p126
sg27
S'--'
p127
sg29
S'--'
p128
sg31
S'W28-7'
p129
sg33
S'--'
p130
sg34
S'--'
p131
sg35
S'DAL'
p132
sg37
S'--'
p133
sg39
S'--'
p134
sg40
S'--'
p135
ssS'17'
p136
(dp137
g5
S'--'
p138
sg7
S'--'
p139
sg9
g10
sg11
S'--'
p140
sg13
g14
sg15
S'Jeff Janis'
p141
sg17
S'2015'
p142
sg19
S'17'
p143
sg21
S'--'
p144
sg23
S'01/03'
p145
sg25
S'--'
p146
sg27
S'--'
p147
sg29
S'--'
p148
sg31
S'L13-20'
p149
sg33
S'--'
p150
sg34
S'--'
p151
sg35
S'MIN'
p152
sg37
S'--'
p153
sg39
S'--'
p154
sg40
S'--'
p155
ssS'16'
p156
(dp157
g5
S'--'
p158
sg7
S'--'
p159
sg9
g10
sg11
S'--'
p160
sg13
g14
sg15
S'Jeff Janis'
p161
sg17
S'2015'
p162
sg19
S'16'
p163
sg21
S'--'
p164
sg23
S'12/27'
p165
sg25
S'--'
p166
sg27
S'--'
p167
sg29
S'--'
p168
sg31
S'L8-38'
p169
sg33
S'--'
p170
sg34
S'--'
p171
sg35
S'@ARI'
p172
sg37
S'--'
p173
sg39
S'--'
p174
sg40
S'--'
p175
ssg14
(dp176
g5
S'--'
p177
sg7
S'--'
p178
sg9
g10
sg11
S'--'
p179
sg13
g14
sg15
S'Jeff Janis'
p180
sg17
S'2015'
p181
sg19
g14
sg21
S'--'
p182
sg23
S'09/13'
p183
sg25
S'--'
p184
sg27
S'--'
p185
sg29
S'--'
p186
sg31
S'W31-23'
p187
sg33
S'--'
p188
sg34
S'--'
p189
sg35
S'@CHI'
p190
sg37
S'--'
p191
sg39
S'--'
p192
sg40
S'--'
p193
ssS'3'
p194
(dp195
g5
S'--'
p196
sg7
S'--'
p197
sg9
g10
sg11
S'--'
p198
sg13
g14
sg15
S'Jeff Janis'
p199
sg17
S'2015'
p200
sg19
g194
sg21
S'--'
p201
sg23
S'09/28'
p202
sg25
S'--'
p203
sg27
S'--'
p204
sg29
S'--'
p205
sg31
S'W38-28'
p206
sg33
g10
sg34
g10
sg35
S'KC'
p207
sg37
S'--'
p208
sg39
g10
sg40
S'--'
p209
ssS'2'
p210
(dp211
g5
S'--'
p212
sg7
S'--'
p213
sg9
g10
sg11
S'--'
p214
sg13
g14
sg15
S'Jeff Janis'
p215
sg17
S'2015'
p216
sg19
g210
sg21
S'--'
p217
sg23
S'09/20'
p218
sg25
S'--'
p219
sg27
S'--'
p220
sg29
S'--'
p221
sg31
S'W27-17'
p222
sg33
S'--'
p223
sg34
S'--'
p224
sg35
S'SEA'
p225
sg37
S'--'
p226
sg39
S'--'
p227
sg40
S'--'
p228
ssS'5'
p229
(dp230
g5
S'--'
p231
sg7
S'--'
p232
sg9
g10
sg11
S'--'
p233
sg13
g14
sg15
S'Jeff Janis'
p234
sg17
S'2015'
p235
sg19
g229
sg21
S'--'
p236
sg23
S'10/11'
p237
sg25
S'--'
p238
sg27
S'--'
p239
sg29
S'--'
p240
sg31
S'W24-10'
p241
sg33
S'--'
p242
sg34
S'--'
p243
sg35
S'STL'
p244
sg37
S'--'
p245
sg39
S'--'
p246
sg40
S'--'
p247
ssS'4'
p248
(dp249
g5
S'--'
p250
sg7
S'--'
p251
sg9
g10
sg11
S'--'
p252
sg13
g14
sg15
S'Jeff Janis'
p253
sg17
S'2015'
p254
sg19
g248
sg21
S'--'
p255
sg23
S'10/04'
p256
sg25
S'--'
p257
sg27
S'--'
p258
sg29
S'--'
p259
sg31
S'W17-3'
p260
sg33
S'--'
p261
sg34
S'--'
p262
sg35
S'@SF'
p263
sg37
S'--'
p264
sg39
S'--'
p265
sg40
S'--'
p266
ssS'7'
p267
(dp268
g5
S''
p269
sg7
g269
sg9
g269
sg11
g269
sg13
g269
sg15
S'Jeff Janis'
p270
sg17
S'2015'
p271
sg19
g267
sg21
g269
sg23
S'Bye'
p272
sg25
g269
sg27
g269
sg29
g269
sg31
g269
sg33
g269
sg34
g269
sg35
g269
sg37
g269
sg39
g269
sg40
g269
ssS'6'
p273
(dp274
g5
S'--'
p275
sg7
S'--'
p276
sg9
g10
sg11
S'--'
p277
sg13
g14
sg15
S'Jeff Janis'
p278
sg17
S'2015'
p279
sg19
g273
sg21
S'--'
p280
sg23
S'10/18'
p281
sg25
S'39.5'
p282
sg27
S'--'
p283
sg29
S'--'
p284
sg31
S'W27-20'
p285
sg33
S'79'
p286
sg34
g210
sg35
S'SD'
p287
sg37
S'46'
p288
sg39
g10
sg40
S'--'
p289
ssS'9'
p290
(dp291
g5
S'--'
p292
sg7
S'--'
p293
sg9
g10
sg11
S'--'
p294
sg13
g14
sg15
S'Jeff Janis'
p295
sg17
S'2015'
p296
sg19
g290
sg21
S'--'
p297
sg23
S'11/08'
p298
sg25
S'--'
p299
sg27
S'--'
p300
sg29
S'--'
p301
sg31
S'L29-37'
p302
sg33
S'--'
p303
sg34
S'--'
p304
sg35
S'@CAR'
p305
sg37
S'--'
p306
sg39
S'--'
p307
sg40
S'--'
p308
ssS'8'
p309
(dp310
g5
S'--'
p311
sg7
S'--'
p312
sg9
g10
sg11
S'--'
p313
sg13
g14
sg15
S'Jeff Janis'
p314
sg17
S'2015'
p315
sg19
g309
sg21
S'--'
p316
sg23
S'11/01'
p317
sg25
S'--'
p318
sg27
S'--'
p319
sg29
S'--'
p320
sg31
S'L10-29'
p321
sg33
S'--'
p322
sg34
S'--'
p323
sg35
S'@DEN'
p324
sg37
S'--'
p325
sg39
S'--'
p326
sg40
S'--'
p327
sssS'2014'
p328
(dp329
g3
(dp330
g5
S'--'
p331
sg7
S'--'
p332
sg9
g10
sg11
S'--'
p333
sg13
g10
sg15
S'Jeff Janis'
p334
sg17
S'2014'
p335
sg19
S'11'
p336
sg21
S'--'
p337
sg23
S'11/16'
p338
sg25
S'--'
p339
sg27
S'--'
p340
sg29
S'--'
p341
sg31
S'W53-20'
p342
sg33
S'--'
p343
sg34
S'--'
p344
sg35
S'PHI'
p345
sg37
S'--'
p346
sg39
S'--'
p347
sg40
S'--'
p348
ssg42
(dp349
g5
S'--'
p350
sg7
S'--'
p351
sg9
g10
sg11
S'--'
p352
sg13
g10
sg15
S'Jeff Janis'
p353
sg17
S'2014'
p354
sg19
S'10'
p355
sg21
S'--'
p356
sg23
S'11/09'
p357
sg25
S'--'
p358
sg27
S'--'
p359
sg29
S'--'
p360
sg31
S'W55-14'
p361
sg33
S'--'
p362
sg34
S'--'
p363
sg35
S'CHI'
p364
sg37
S'--'
p365
sg39
S'--'
p366
sg40
S'--'
p367
ssg62
(dp368
g5
S'--'
p369
sg7
S'--'
p370
sg9
g10
sg11
S'--'
p371
sg13
g10
sg15
S'Jeff Janis'
p372
sg17
S'2014'
p373
sg19
S'13'
p374
sg21
S'--'
p375
sg23
S'11/30'
p376
sg25
S'--'
p377
sg27
S'--'
p378
sg29
S'--'
p379
sg31
S'W26-21'
p380
sg33
S'--'
p381
sg34
S'--'
p382
sg35
S'NE'
p383
sg37
S'--'
p384
sg39
S'--'
p385
sg40
S'--'
p386
ssg79
(dp387
g5
S'--'
p388
sg7
S'--'
p389
sg9
g10
sg11
S'--'
p390
sg13
g10
sg15
S'Jeff Janis'
p391
sg17
S'2014'
p392
sg19
S'12'
p393
sg21
S'--'
p394
sg23
S'11/23'
p395
sg25
S'--'
p396
sg27
S'--'
p397
sg29
S'--'
p398
sg31
S'W24-21'
p399
sg33
S'--'
p400
sg34
S'--'
p401
sg35
S'@MIN'
p402
sg37
S'--'
p403
sg39
S'--'
p404
sg40
S'--'
p405
ssg99
(dp406
g5
S'--'
p407
sg7
S'--'
p408
sg9
g10
sg11
S'--'
p409
sg13
g10
sg15
S'Jeff Janis'
p410
sg17
S'2014'
p411
sg19
S'15'
p412
sg21
S'--'
p413
sg23
S'12/14'
p414
sg25
S'--'
p415
sg27
S'--'
p416
sg29
S'--'
p417
sg31
S'L13-21'
p418
sg33
S'--'
p419
sg34
S'--'
p420
sg35
S'@BUF'
p421
sg37
S'--'
p422
sg39
S'--'
p423
sg40
S'--'
p424
ssg116
(dp425
g5
S'--'
p426
sg7
S'--'
p427
sg9
g10
sg11
S'--'
p428
sg13
g10
sg15
S'Jeff Janis'
p429
sg17
S'2014'
p430
sg19
S'14'
p431
sg21
S'--'
p432
sg23
S'12/08'
p433
sg25
S'--'
p434
sg27
S'--'
p435
sg29
S'--'
p436
sg31
S'W43-37'
p437
sg33
S'--'
p438
sg34
S'--'
p439
sg35
S'ATL'
p440
sg37
S'--'
p441
sg39
S'--'
p442
sg40
S'--'
p443
ssg136
(dp444
g5
S'--'
p445
sg7
S'--'
p446
sg9
g10
sg11
S'--'
p447
sg13
g10
sg15
S'Jeff Janis'
p448
sg17
S'2014'
p449
sg19
S'17'
p450
sg21
S'--'
p451
sg23
S'12/28'
p452
sg25
S'--'
p453
sg27
S'--'
p454
sg29
S'--'
p455
sg31
S'W30-20'
p456
sg33
S'--'
p457
sg34
S'--'
p458
sg35
S'DET'
p459
sg37
S'--'
p460
sg39
S'--'
p461
sg40
S'--'
p462
ssg156
(dp463
g5
S'--'
p464
sg7
S'--'
p465
sg9
g10
sg11
S'--'
p466
sg13
g10
sg15
S'Jeff Janis'
p467
sg17
S'2014'
p468
sg19
S'16'
p469
sg21
S'--'
p470
sg23
S'12/21'
p471
sg25
S'--'
p472
sg27
S'--'
p473
sg29
S'--'
p474
sg31
S'W20-3'
p475
sg33
S'--'
p476
sg34
S'--'
p477
sg35
S'@TB'
p478
sg37
S'--'
p479
sg39
S'--'
p480
sg40
S'--'
p481
ssg14
(dp482
g5
S'--'
p483
sg7
S'--'
p484
sg9
g10
sg11
S'--'
p485
sg13
g10
sg15
S'Jeff Janis'
p486
sg17
S'2014'
p487
sg19
g14
sg21
S'--'
p488
sg23
S'09/04'
p489
sg25
S'--'
p490
sg27
S'--'
p491
sg29
S'--'
p492
sg31
S'L16-36'
p493
sg33
S'--'
p494
sg34
S'--'
p495
sg35
S'@SEA'
p496
sg37
S'--'
p497
sg39
S'--'
p498
sg40
S'--'
p499
ssg194
(dp500
g5
S'--'
p501
sg7
S'--'
p502
sg9
g10
sg11
S'--'
p503
sg13
g10
sg15
S'Jeff Janis'
p504
sg17
S'2014'
p505
sg19
g194
sg21
S'--'
p506
sg23
S'09/21'
p507
sg25
S'--'
p508
sg27
S'--'
p509
sg29
S'--'
p510
sg31
S'L7-19'
p511
sg33
S'--'
p512
sg34
S'--'
p513
sg35
S'@DET'
p514
sg37
S'--'
p515
sg39
S'--'
p516
sg40
S'--'
p517
ssg210
(dp518
g5
S'--'
p519
sg7
S'--'
p520
sg9
g10
sg11
S'--'
p521
sg13
g10
sg15
S'Jeff Janis'
p522
sg17
S'2014'
p523
sg19
g210
sg21
S'--'
p524
sg23
S'09/14'
p525
sg25
S'--'
p526
sg27
S'--'
p527
sg29
S'--'
p528
sg31
S'W31-24'
p529
sg33
S'--'
p530
sg34
S'--'
p531
sg35
S'NYJ'
p532
sg37
S'--'
p533
sg39
S'--'
p534
sg40
S'--'
p535
ssg229
(dp536
g5
S'--'
p537
sg7
S'--'
p538
sg9
g10
sg11
S'--'
p539
sg13
g14
sg15
S'Jeff Janis'
p540
sg17
S'2014'
p541
sg19
g229
sg21
S'--'
p542
sg23
S'10/02'
p543
sg25
S'8.0'
p544
sg27
S'--'
p545
sg29
S'--'
p546
sg31
S'W42-10'
p547
sg33
S'16'
p548
sg34
g210
sg35
S'MIN'
p549
sg37
g290
sg39
g10
sg40
S'--'
p550
ssg248
(dp551
g5
S'--'
p552
sg7
S'--'
p553
sg9
g10
sg11
S'--'
p554
sg13
g14
sg15
S'Jeff Janis'
p555
sg17
S'2014'
p556
sg19
g248
sg21
S'--'
p557
sg23
S'09/28'
p558
sg25
S'--'
p559
sg27
S'--'
p560
sg29
S'--'
p561
sg31
S'W38-17'
p562
sg33
S'--'
p563
sg34
S'--'
p564
sg35
S'@CHI'
p565
sg37
S'--'
p566
sg39
S'--'
p567
sg40
S'--'
p568
ssg267
(dp569
g5
S'--'
p570
sg7
S'--'
p571
sg9
g10
sg11
S'--'
p572
sg13
g10
sg15
S'Jeff Janis'
p573
sg17
S'2014'
p574
sg19
g267
sg21
S'--'
p575
sg23
S'10/19'
p576
sg25
S'--'
p577
sg27
S'--'
p578
sg29
S'--'
p579
sg31
S'W38-17'
p580
sg33
S'--'
p581
sg34
S'--'
p582
sg35
S'CAR'
p583
sg37
S'--'
p584
sg39
S'--'
p585
sg40
S'--'
p586
ssg273
(dp587
g5
S'--'
p588
sg7
S'--'
p589
sg9
g10
sg11
S'--'
p590
sg13
g14
sg15
S'Jeff Janis'
p591
sg17
S'2014'
p592
sg19
g273
sg21
S'--'
p593
sg23
S'10/12'
p594
sg25
S'--'
p595
sg27
S'--'
p596
sg29
S'--'
p597
sg31
S'W27-24'
p598
sg33
S'--'
p599
sg34
S'--'
p600
sg35
S'@MIA'
p601
sg37
S'--'
p602
sg39
S'--'
p603
sg40
S'--'
p604
ssg290
(dp605
g5
g269
sg7
g269
sg9
g269
sg11
g269
sg13
g269
sg15
S'Jeff Janis'
p606
sg17
S'2014'
p607
sg19
g290
sg21
g269
sg23
S'Bye'
p608
sg25
g269
sg27
g269
sg29
g269
sg31
g269
sg33
g269
sg34
g269
sg35
g269
sg37
g269
sg39
g269
sg40
g269
ssg309
(dp609
g5
S'--'
p610
sg7
S'--'
p611
sg9
g10
sg11
S'--'
p612
sg13
g10
sg15
S'Jeff Janis'
p613
sg17
S'2014'
p614
sg19
g309
sg21
S'--'
p615
sg23
S'10/26'
p616
sg25
S'--'
p617
sg27
S'--'
p618
sg29
S'--'
p619
sg31
S'L23-44'
p620
sg33
S'--'
p621
sg34
S'--'
p622
sg35
S'@NO'
p623
sg37
S'--'
p624
sg39
S'--'
p625
sg40
S'--'
p626
sss.