(dp0
S'2015'
p1
(dp2
S'11'
p3
(dp4
S'RushTD'
p5
S'--'
p6
sS'RushYds'
p7
S'--'
p8
sS'GS'
p9
S'0'
p10
sS'Lost'
p11
g10
sS'G'
p12
S'1'
p13
sS'Player'
p14
S'Jeremy Butler'
p15
sS'Year'
p16
S'2015'
p17
sS'WK'
p18
S'11'
p19
sS'RushAvg'
p20
S'--'
p21
sS'Game Date'
p22
S'11/22'
p23
sS'RecAvg'
p24
S'11.3'
p25
sS'FUM'
p26
g13
sS'RushAtt'
p27
S'--'
p28
sS'Result'
p29
S'W16-13'
p30
sS'RecYds'
p31
S'45'
p32
sS'Rec'
p33
S'4'
p34
sS'Opp'
p35
S'STL'
p36
sS'RecLng'
p37
S'25'
p38
sS'RecTD'
p39
g10
sS'RushLng'
p40
S'--'
p41
ssS'10'
p42
(dp43
g5
S'--'
p44
sg7
S'--'
p45
sg9
g10
sg11
S'--'
p46
sg12
g13
sg14
S'Jeremy Butler'
p47
sg16
S'2015'
p48
sg18
S'10'
p49
sg20
S'--'
p50
sg22
S'11/15'
p51
sg24
S'21.0'
p52
sg26
S'--'
p53
sg27
S'--'
p54
sg29
S'L20-22'
p55
sg31
S'21'
p56
sg33
g13
sg35
S'JAC'
p57
sg37
S'21'
p58
sg39
g10
sg40
S'--'
p59
ssS'13'
p60
(dp61
g5
S'--'
p62
sg7
S'--'
p63
sg9
g10
sg11
S'--'
p64
sg12
g13
sg14
S'Jeremy Butler'
p65
sg16
S'2015'
p66
sg18
S'13'
p67
sg20
S'--'
p68
sg22
S'12/06'
p69
sg24
S'10.8'
p70
sg26
S'--'
p71
sg27
S'--'
p72
sg29
S'L13-15'
p73
sg31
S'43'
p74
sg33
g34
sg35
S'@MIA'
p75
sg37
S'22'
p76
sg39
g10
sg40
S'--'
p77
ssS'12'
p78
(dp79
g5
S'--'
p80
sg7
S'--'
p81
sg9
g10
sg11
S'--'
p82
sg12
g13
sg14
S'Jeremy Butler'
p83
sg16
S'2015'
p84
sg18
S'12'
p85
sg20
S'--'
p86
sg22
S'11/30'
p87
sg24
S'9.0'
p88
sg26
S'--'
p89
sg27
S'--'
p90
sg29
S'W33-27'
p91
sg31
S'27'
p92
sg33
S'3'
p93
sg35
S'@CLE'
p94
sg37
S'9'
p95
sg39
g10
sg40
S'--'
p96
ssS'15'
p97
(dp98
g5
S'--'
p99
sg7
S'--'
p100
sg9
g10
sg11
S'--'
p101
sg12
g13
sg14
S'Jeremy Butler'
p102
sg16
S'2015'
p103
sg18
S'15'
p104
sg20
S'--'
p105
sg22
S'12/20'
p106
sg24
S'20.0'
p107
sg26
S'--'
p108
sg27
S'--'
p109
sg29
S'L14-34'
p110
sg31
S'60'
p111
sg33
g93
sg35
S'KC'
p112
sg37
S'41'
p113
sg39
g10
sg40
S'--'
p114
ssS'14'
p115
(dp116
g5
S'--'
p117
sg7
S'--'
p118
sg9
g10
sg11
S'--'
p119
sg12
g13
sg14
S'Jeremy Butler'
p120
sg16
S'2015'
p121
sg18
S'14'
p122
sg20
S'--'
p123
sg22
S'12/13'
p124
sg24
S'10.3'
p125
sg26
S'--'
p126
sg27
S'--'
p127
sg29
S'L6-35'
p128
sg31
S'72'
p129
sg33
S'7'
p130
sg35
S'SEA'
p131
sg37
S'23'
p132
sg39
g10
sg40
S'--'
p133
ssS'17'
p134
(dp135
g5
S'--'
p136
sg7
S'--'
p137
sg9
g10
sg11
S'--'
p138
sg12
g13
sg14
S'Jeremy Butler'
p139
sg16
S'2015'
p140
sg18
S'17'
p141
sg20
S'--'
p142
sg22
S'01/03'
p143
sg24
S'9.5'
p144
sg26
S'--'
p145
sg27
S'--'
p146
sg29
S'L16-24'
p147
sg31
S'57'
p148
sg33
S'6'
p149
sg35
S'@CIN'
p150
sg37
S'17'
p151
sg39
g10
sg40
S'--'
p152
ssS'16'
p153
(dp154
g5
S'--'
p155
sg7
S'--'
p156
sg9
g10
sg11
S'--'
p157
sg12
g13
sg14
S'Jeremy Butler'
p158
sg16
S'2015'
p159
sg18
S'16'
p160
sg20
S'--'
p161
sg22
S'12/27'
p162
sg24
S'12.7'
p163
sg26
S'--'
p164
sg27
S'--'
p165
sg29
S'W20-17'
p166
sg31
S'38'
p167
sg33
g93
sg35
S'PIT'
p168
sg37
S'17'
p169
sg39
g10
sg40
S'--'
p170
ssg130
(dp171
g5
S'--'
p172
sg7
S'--'
p173
sg9
g10
sg11
S'--'
p174
sg12
g10
sg14
S'Jeremy Butler'
p175
sg16
S'2015'
p176
sg18
g130
sg20
S'--'
p177
sg22
S'10/26'
p178
sg24
S'--'
p179
sg26
S'--'
p180
sg27
S'--'
p181
sg29
S'L18-26'
p182
sg31
S'--'
p183
sg33
S'--'
p184
sg35
S'@ARI'
p185
sg37
S'--'
p186
sg39
S'--'
p187
sg40
S'--'
p188
ssg95
(dp189
g5
S''
p190
sg7
g190
sg9
g190
sg11
g190
sg12
g190
sg14
S'Jeremy Butler'
p191
sg16
S'2015'
p192
sg18
g95
sg20
g190
sg22
S'Bye'
p193
sg24
g190
sg26
g190
sg27
g190
sg29
g190
sg31
g190
sg33
g190
sg35
g190
sg37
g190
sg39
g190
sg40
g190
ssS'8'
p194
(dp195
g5
S'--'
p196
sg7
S'--'
p197
sg9
g10
sg11
S'--'
p198
sg12
g10
sg14
S'Jeremy Butler'
p199
sg16
S'2015'
p200
sg18
g194
sg20
S'--'
p201
sg22
S'11/01'
p202
sg24
S'--'
p203
sg26
S'--'
p204
sg27
S'--'
p205
sg29
S'W29-26'
p206
sg31
S'--'
p207
sg33
S'--'
p208
sg35
S'SD'
p209
sg37
S'--'
p210
sg39
S'--'
p211
sg40
S'--'
p212
sss.