(dp0
S'2015'
p1
(dp2
S'10'
p3
(dp4
S'RushTD'
p5
S'--'
p6
sS'RushYds'
p7
S'--'
p8
sS'GS'
p9
S'0'
p10
sS'Lost'
p11
S'1'
p12
sS'G'
p13
g12
sS'Player'
p14
S'Jeremy Ross'
p15
sS'Year'
p16
S'2015'
p17
sS'WK'
p18
S'10'
p19
sS'RushAvg'
p20
S'--'
p21
sS'Game Date'
p22
S'11/15'
p23
sS'RecAvg'
p24
S'--'
p25
sS'FUM'
p26
g12
sS'RushAtt'
p27
S'--'
p28
sS'Result'
p29
S'L20-22'
p30
sS'RecYds'
p31
S'--'
p32
sS'Rec'
p33
S'--'
p34
sS'Opp'
p35
S'JAC'
p36
sS'RecLng'
p37
S'--'
p38
sS'RecTD'
p39
S'--'
p40
sS'RushLng'
p41
S'--'
p42
ssS'13'
p43
(dp44
g5
S'--'
p45
sg7
S'--'
p46
sg9
g10
sg11
S'--'
p47
sg13
g12
sg14
S'Jeremy Ross'
p48
sg16
S'2015'
p49
sg18
S'13'
p50
sg20
S'--'
p51
sg22
S'12/06'
p52
sg24
S'--'
p53
sg26
S'--'
p54
sg27
S'--'
p55
sg29
S'L20-34'
p56
sg31
S'--'
p57
sg33
S'--'
p58
sg35
S'KC'
p59
sg37
S'--'
p60
sg39
S'--'
p61
sg41
S'--'
p62
ssS'12'
p63
(dp64
g5
S'--'
p65
sg7
S'--'
p66
sg9
g10
sg11
g12
sg13
g12
sg14
S'Jeremy Ross'
p67
sg16
S'2015'
p68
sg18
S'12'
p69
sg20
S'--'
p70
sg22
S'11/29'
p71
sg24
S'--'
p72
sg26
g12
sg27
S'--'
p73
sg29
S'W24-21'
p74
sg31
S'--'
p75
sg33
S'--'
p76
sg35
S'@TEN'
p77
sg37
S'--'
p78
sg39
S'--'
p79
sg41
S'--'
p80
ssS'15'
p81
(dp82
g5
S'--'
p83
sg7
S'--'
p84
sg9
g10
sg11
S'--'
p85
sg13
g12
sg14
S'Jeremy Ross'
p86
sg16
S'2015'
p87
sg18
S'15'
p88
sg20
S'--'
p89
sg22
S'12/20'
p90
sg24
S'--'
p91
sg26
S'--'
p92
sg27
S'--'
p93
sg29
S'L20-30'
p94
sg31
S'--'
p95
sg33
S'--'
p96
sg35
S'GB'
p97
sg37
S'--'
p98
sg39
S'--'
p99
sg41
S'--'
p100
ssS'14'
p101
(dp102
g5
S'--'
p103
sg7
S'--'
p104
sg9
g10
sg11
g10
sg13
g12
sg14
S'Jeremy Ross'
p105
sg16
S'2015'
p106
sg18
S'14'
p107
sg20
S'--'
p108
sg22
S'12/13'
p109
sg24
S'--'
p110
sg26
g12
sg27
S'--'
p111
sg29
S'W15-12'
p112
sg31
S'--'
p113
sg33
S'--'
p114
sg35
S'@DEN'
p115
sg37
S'--'
p116
sg39
S'--'
p117
sg41
S'--'
p118
ssS'17'
p119
(dp120
g5
S'--'
p121
sg7
S'--'
p122
sg9
g10
sg11
S'--'
p123
sg13
g12
sg14
S'Jeremy Ross'
p124
sg16
S'2015'
p125
sg18
S'17'
p126
sg20
S'--'
p127
sg22
S'01/03'
p128
sg24
S'--'
p129
sg26
S'--'
p130
sg27
S'--'
p131
sg29
S'L17-23'
p132
sg31
S'--'
p133
sg33
S'--'
p134
sg35
S'@KC'
p135
sg37
S'--'
p136
sg39
S'--'
p137
sg41
S'--'
p138
ssS'16'
p139
(dp140
g5
S'--'
p141
sg7
S'--'
p142
sg9
g10
sg11
S'--'
p143
sg13
g12
sg14
S'Jeremy Ross'
p144
sg16
S'2015'
p145
sg18
S'16'
p146
sg20
S'--'
p147
sg22
S'12/24'
p148
sg24
S'--'
p149
sg26
S'--'
p150
sg27
S'--'
p151
sg29
S'W23-20'
p152
sg31
S'--'
p153
sg33
S'--'
p154
sg35
S'SD'
p155
sg37
S'--'
p156
sg39
S'--'
p157
sg41
S'--'
p158
ssS'5'
p159
(dp160
g5
S'--'
p161
sg7
S'--'
p162
sg9
g10
sg11
S'--'
p163
sg13
g12
sg14
S'Jeremy Ross'
p164
sg16
S'2015'
p165
sg18
g159
sg20
S'--'
p166
sg22
S'10/11'
p167
sg24
S'12.0'
p168
sg26
S'--'
p169
sg27
S'--'
p170
sg29
S'L30-33'
p171
sg31
S'24'
p172
sg33
S'2'
p173
sg35
S'CLE'
p174
sg37
S'18'
p175
sg39
g10
sg41
S'--'
p176
ssS'7'
p177
(dp178
g5
S'--'
p179
sg7
S'--'
p180
sg9
g10
sg11
g12
sg13
g12
sg14
S'Jeremy Ross'
p181
sg16
S'2015'
p182
sg18
g177
sg20
S'--'
p183
sg22
S'10/26'
p184
sg24
S'9.0'
p185
sg26
g12
sg27
S'--'
p186
sg29
S'L18-26'
p187
sg31
S'9'
p188
sg33
g12
sg35
S'@ARI'
p189
sg37
g188
sg39
g10
sg41
S'--'
p190
ssS'6'
p191
(dp192
g5
g10
sg7
g173
sg9
g10
sg11
S'--'
p193
sg13
g12
sg14
S'Jeremy Ross'
p194
sg16
S'2015'
p195
sg18
g191
sg20
S'2.0'
p196
sg22
S'10/18'
p197
sg24
S'11.3'
p198
sg26
S'--'
p199
sg27
g12
sg29
S'L20-25'
p200
sg31
S'34'
p201
sg33
S'3'
p202
sg35
S'@SF'
p203
sg37
S'18'
p204
sg39
g10
sg41
g173
ssg188
(dp205
g5
S''
p206
sg7
g206
sg9
g206
sg11
g206
sg13
g206
sg14
S'Jeremy Ross'
p207
sg16
S'2015'
p208
sg18
g188
sg20
g206
sg22
S'Bye'
p209
sg24
g206
sg26
g206
sg27
g206
sg29
g206
sg31
g206
sg33
g206
sg35
g206
sg37
g206
sg39
g206
sg41
g206
ssS'8'
p210
(dp211
g5
S'--'
p212
sg7
S'--'
p213
sg9
g10
sg11
S'--'
p214
sg13
g12
sg14
S'Jeremy Ross'
p215
sg16
S'2015'
p216
sg18
g210
sg20
S'--'
p217
sg22
S'11/01'
p218
sg24
S'7.0'
p219
sg26
S'--'
p220
sg27
S'--'
p221
sg29
S'W29-26'
p222
sg31
S'21'
p223
sg33
g202
sg35
S'SD'
p224
sg37
S'12'
p225
sg39
g10
sg41
S'--'
p226
sssS'2014'
p227
(dp228
S'11'
p229
(dp230
g5
S'--'
p231
sg7
S'--'
p232
sg9
g12
sg11
S'--'
p233
sg13
g12
sg14
S'Jeremy Ross'
p234
sg16
S'2014'
p235
sg18
S'11'
p236
sg20
S'--'
p237
sg22
S'11/16'
p238
sg24
S'7.0'
p239
sg26
S'--'
p240
sg27
S'--'
p241
sg29
S'L6-14'
p242
sg31
g177
sg33
g12
sg35
S'@ARI'
p243
sg37
g177
sg39
g10
sg41
S'--'
p244
ssg3
(dp245
g5
S'--'
p246
sg7
S'--'
p247
sg9
g12
sg11
S'--'
p248
sg13
g12
sg14
S'Jeremy Ross'
p249
sg16
S'2014'
p250
sg18
S'10'
p251
sg20
S'--'
p252
sg22
S'11/09'
p253
sg24
S'5.0'
p254
sg26
S'--'
p255
sg27
S'--'
p256
sg29
S'W20-16'
p257
sg31
g159
sg33
g12
sg35
S'MIA'
p258
sg37
g159
sg39
g10
sg41
S'--'
p259
ssg43
(dp260
g5
S'--'
p261
sg7
S'--'
p262
sg9
g10
sg11
g10
sg13
g12
sg14
S'Jeremy Ross'
p263
sg16
S'2014'
p264
sg18
S'13'
p265
sg20
S'--'
p266
sg22
S'11/27'
p267
sg24
S'31.0'
p268
sg26
g12
sg27
S'--'
p269
sg29
S'W34-17'
p270
sg31
S'31'
p271
sg33
g12
sg35
S'CHI'
p272
sg37
S'31'
p273
sg39
g10
sg41
S'--'
p274
ssg63
(dp275
g5
S'--'
p276
sg7
S'--'
p277
sg9
g12
sg11
S'--'
p278
sg13
g12
sg14
S'Jeremy Ross'
p279
sg16
S'2014'
p280
sg18
S'12'
p281
sg20
S'--'
p282
sg22
S'11/23'
p283
sg24
S'11.7'
p284
sg26
S'--'
p285
sg27
S'--'
p286
sg29
S'L9-34'
p287
sg31
S'35'
p288
sg33
g202
sg35
S'@NE'
p289
sg37
S'13'
p290
sg39
g10
sg41
S'--'
p291
ssg81
(dp292
g5
S'--'
p293
sg7
S'--'
p294
sg9
g12
sg11
S'--'
p295
sg13
g12
sg14
S'Jeremy Ross'
p296
sg16
S'2014'
p297
sg18
S'15'
p298
sg20
S'--'
p299
sg22
S'12/14'
p300
sg24
S'--'
p301
sg26
S'--'
p302
sg27
S'--'
p303
sg29
S'W16-14'
p304
sg31
g10
sg33
g10
sg35
S'MIN'
p305
sg37
S'--'
p306
sg39
g10
sg41
S'--'
p307
ssg101
(dp308
g5
g10
sg7
S'4'
p309
sg9
g10
sg11
S'--'
p310
sg13
g12
sg14
S'Jeremy Ross'
p311
sg16
S'2014'
p312
sg18
S'14'
p313
sg20
S'4.0'
p314
sg22
S'12/07'
p315
sg24
S'--'
p316
sg26
S'--'
p317
sg27
g12
sg29
S'W34-17'
p318
sg31
g10
sg33
g10
sg35
S'TB'
p319
sg37
S'--'
p320
sg39
g10
sg41
g309
ssg119
(dp321
g5
S'--'
p322
sg7
S'--'
p323
sg9
g12
sg11
S'--'
p324
sg13
g12
sg14
S'Jeremy Ross'
p325
sg16
S'2014'
p326
sg18
S'17'
p327
sg20
S'--'
p328
sg22
S'12/28'
p329
sg24
S'16.5'
p330
sg26
S'--'
p331
sg27
S'--'
p332
sg29
S'L20-30'
p333
sg31
S'33'
p334
sg33
g173
sg35
S'@GB'
p335
sg37
S'20'
p336
sg39
g10
sg41
S'--'
p337
ssg139
(dp338
g5
S'--'
p339
sg7
S'--'
p340
sg9
g12
sg11
g12
sg13
g12
sg14
S'Jeremy Ross'
p341
sg16
S'2014'
p342
sg18
S'16'
p343
sg20
S'--'
p344
sg22
S'12/21'
p345
sg24
S'11.0'
p346
sg26
g12
sg27
S'--'
p347
sg29
S'W20-14'
p348
sg31
S'11'
p349
sg33
g12
sg35
S'@CHI'
p350
sg37
S'11'
p351
sg39
g10
sg41
S'--'
p352
ssg12
(dp353
g5
S'--'
p354
sg7
S'--'
p355
sg9
g12
sg11
S'--'
p356
sg13
g12
sg14
S'Jeremy Ross'
p357
sg16
S'2014'
p358
sg18
g12
sg20
S'--'
p359
sg22
S'09/08'
p360
sg24
S'--'
p361
sg26
S'--'
p362
sg27
S'--'
p363
sg29
S'W35-14'
p364
sg31
S'--'
p365
sg33
S'--'
p366
sg35
S'NYG'
p367
sg37
S'--'
p368
sg39
S'--'
p369
sg41
S'--'
p370
ssg202
(dp371
g5
g10
sg7
S'-5'
p372
sg9
g10
sg11
S'--'
p373
sg13
g12
sg14
S'Jeremy Ross'
p374
sg16
S'2014'
p375
sg18
g202
sg20
S'-5.0'
p376
sg22
S'09/21'
p377
sg24
S'6.7'
p378
sg26
S'--'
p379
sg27
g12
sg29
S'W19-7'
p380
sg31
S'20'
p381
sg33
g202
sg35
S'GB'
p382
sg37
g210
sg39
g10
sg41
S'-5'
p383
ssg173
(dp384
g5
S'--'
p385
sg7
S'--'
p386
sg9
g12
sg11
g12
sg13
g12
sg14
S'Jeremy Ross'
p387
sg16
S'2014'
p388
sg18
g173
sg20
S'--'
p389
sg22
S'09/14'
p390
sg24
S'11.5'
p391
sg26
g12
sg27
S'--'
p392
sg29
S'L7-24'
p393
sg31
S'23'
p394
sg33
g173
sg35
S'@CAR'
p395
sg37
S'14'
p396
sg39
g10
sg41
S'--'
p397
ssg159
(dp398
g5
S'--'
p399
sg7
S'--'
p400
sg9
g12
sg11
S'--'
p401
sg13
g12
sg14
S'Jeremy Ross'
p402
sg16
S'2014'
p403
sg18
g159
sg20
S'--'
p404
sg22
S'10/05'
p405
sg24
S'13.0'
p406
sg26
S'--'
p407
sg27
S'--'
p408
sg29
S'L14-17'
p409
sg31
S'13'
p410
sg33
g12
sg35
S'BUF'
p411
sg37
S'13'
p412
sg39
g10
sg41
S'--'
p413
ssg309
(dp414
g5
S'--'
p415
sg7
S'--'
p416
sg9
g12
sg11
S'--'
p417
sg13
g12
sg14
S'Jeremy Ross'
p418
sg16
S'2014'
p419
sg18
g309
sg20
S'--'
p420
sg22
S'09/28'
p421
sg24
S'32.5'
p422
sg26
S'--'
p423
sg27
S'--'
p424
sg29
S'W24-17'
p425
sg31
S'65'
p426
sg33
g173
sg35
S'@NYJ'
p427
sg37
S'59T'
p428
sg39
g12
sg41
S'--'
p429
ssg177
(dp430
g5
S'--'
p431
sg7
S'--'
p432
sg9
g12
sg11
S'--'
p433
sg13
g12
sg14
S'Jeremy Ross'
p434
sg16
S'2014'
p435
sg18
g177
sg20
S'--'
p436
sg22
S'10/19'
p437
sg24
S'10.7'
p438
sg26
S'--'
p439
sg27
S'--'
p440
sg29
S'W24-23'
p441
sg31
S'32'
p442
sg33
g202
sg35
S'NO'
p443
sg37
S'26'
p444
sg39
g10
sg41
S'--'
p445
ssg191
(dp446
g5
S'--'
p447
sg7
S'--'
p448
sg9
g12
sg11
S'--'
p449
sg13
g12
sg14
S'Jeremy Ross'
p450
sg16
S'2014'
p451
sg18
g191
sg20
S'--'
p452
sg22
S'10/12'
p453
sg24
S'8.0'
p454
sg26
S'--'
p455
sg27
S'--'
p456
sg29
S'W17-3'
p457
sg31
g210
sg33
g12
sg35
S'@MIN'
p458
sg37
g210
sg39
g10
sg41
S'--'
p459
ssg188
(dp460
g5
g206
sg7
g206
sg9
g206
sg11
g206
sg13
g206
sg14
S'Jeremy Ross'
p461
sg16
S'2014'
p462
sg18
g188
sg20
g206
sg22
S'Bye'
p463
sg24
g206
sg26
g206
sg27
g206
sg29
g206
sg31
g206
sg33
g206
sg35
g206
sg37
g206
sg39
g206
sg41
g206
ssg210
(dp464
g5
S'--'
p465
sg7
S'--'
p466
sg9
g12
sg11
g10
sg13
g12
sg14
S'Jeremy Ross'
p467
sg16
S'2014'
p468
sg18
g210
sg20
S'--'
p469
sg22
S'10/26'
p470
sg24
S'10.3'
p471
sg26
g12
sg27
S'--'
p472
sg29
S'W22-21'
p473
sg31
S'31'
p474
sg33
g202
sg35
S'@ATL'
p475
sg37
S'15'
p476
sg39
g10
sg41
S'--'
p477
sssS'2013'
p478
(dp479
g229
(dp480
g5
S'--'
p481
sg7
S'--'
p482
sg9
g12
sg11
S'--'
p483
sg13
g12
sg14
S'Jeremy Ross'
p484
sg16
S'2013'
p485
sg18
S'11'
p486
sg20
S'--'
p487
sg22
S'11/17'
p488
sg24
S'19.0'
p489
sg26
S'--'
p490
sg27
S'--'
p491
sg29
S'L27-37'
p492
sg31
S'19'
p493
sg33
g12
sg35
S'@PIT'
p494
sg37
S'19'
p495
sg39
g10
sg41
S'--'
p496
ssg3
(dp497
g5
S'--'
p498
sg7
S'--'
p499
sg9
g12
sg11
S'--'
p500
sg13
g12
sg14
S'Jeremy Ross'
p501
sg16
S'2013'
p502
sg18
S'10'
p503
sg20
S'--'
p504
sg22
S'11/10'
p505
sg24
S'14.0'
p506
sg26
S'--'
p507
sg27
S'--'
p508
sg29
S'W21-19'
p509
sg31
S'28'
p510
sg33
g173
sg35
S'@CHI'
p511
sg37
S'17'
p512
sg39
g10
sg41
S'--'
p513
ssg43
(dp514
g5
g10
sg7
S'24'
p515
sg9
g10
sg11
S'--'
p516
sg13
g12
sg14
S'Jeremy Ross'
p517
sg16
S'2013'
p518
sg18
S'13'
p519
sg20
S'24.0'
p520
sg22
S'11/28'
p521
sg24
S'5.0'
p522
sg26
S'--'
p523
sg27
g12
sg29
S'W40-10'
p524
sg31
g159
sg33
g12
sg35
S'GB'
p525
sg37
S'5T'
p526
sg39
g12
sg41
S'24'
p527
ssg63
(dp528
g5
S'--'
p529
sg7
S'--'
p530
sg9
g10
sg11
g10
sg13
g12
sg14
S'Jeremy Ross'
p531
sg16
S'2013'
p532
sg18
S'12'
p533
sg20
S'--'
p534
sg22
S'11/24'
p535
sg24
S'--'
p536
sg26
g12
sg27
S'--'
p537
sg29
S'L21-24'
p538
sg31
S'--'
p539
sg33
S'--'
p540
sg35
S'TB'
p541
sg37
S'--'
p542
sg39
S'--'
p543
sg41
S'--'
p544
ssg81
(dp545
g5
S'--'
p546
sg7
S'--'
p547
sg9
g10
sg11
S'--'
p548
sg13
g12
sg14
S'Jeremy Ross'
p549
sg16
S'2013'
p550
sg18
S'15'
p551
sg20
S'--'
p552
sg22
S'12/16'
p553
sg24
S'--'
p554
sg26
S'--'
p555
sg27
S'--'
p556
sg29
S'L16-18'
p557
sg31
S'--'
p558
sg33
S'--'
p559
sg35
S'BAL'
p560
sg37
S'--'
p561
sg39
S'--'
p562
sg41
S'--'
p563
ssg101
(dp564
g5
S'--'
p565
sg7
S'--'
p566
sg9
g10
sg11
S'--'
p567
sg13
g12
sg14
S'Jeremy Ross'
p568
sg16
S'2013'
p569
sg18
S'14'
p570
sg20
S'--'
p571
sg22
S'12/08'
p572
sg24
S'--'
p573
sg26
S'--'
p574
sg27
S'--'
p575
sg29
S'L20-34'
p576
sg31
S'--'
p577
sg33
S'--'
p578
sg35
S'@PHI'
p579
sg37
S'--'
p580
sg39
S'--'
p581
sg41
S'--'
p582
ssg119
(dp583
g5
S'--'
p584
sg7
S'--'
p585
sg9
g10
sg11
S'--'
p586
sg13
g12
sg14
S'Jeremy Ross'
p587
sg16
S'2013'
p588
sg18
S'17'
p589
sg20
S'--'
p590
sg22
S'12/29'
p591
sg24
S'--'
p592
sg26
S'--'
p593
sg27
S'--'
p594
sg29
S'L13-14'
p595
sg31
S'--'
p596
sg33
S'--'
p597
sg35
S'@MIN'
p598
sg37
S'--'
p599
sg39
S'--'
p600
sg41
S'--'
p601
ssg139
(dp602
g5
g10
sg7
S'16'
p603
sg9
g10
sg11
S'--'
p604
sg13
g12
sg14
S'Jeremy Ross'
p605
sg16
S'2013'
p606
sg18
S'16'
p607
sg20
S'16.0'
p608
sg22
S'12/22'
p609
sg24
S'--'
p610
sg26
S'--'
p611
sg27
g12
sg29
S'L20-23'
p612
sg31
S'--'
p613
sg33
S'--'
p614
sg35
S'NYG'
p615
sg37
S'--'
p616
sg39
S'--'
p617
sg41
S'16'
p618
ssg12
(dp619
g5
S'--'
p620
sg7
S'--'
p621
sg9
g10
sg11
S'--'
p622
sg13
g12
sg14
S'Jeremy Ross'
p623
sg16
S'2013'
p624
sg18
g12
sg20
S'--'
p625
sg22
S'09/08'
p626
sg24
S'--'
p627
sg26
S'--'
p628
sg27
S'--'
p629
sg29
S'L28-34'
p630
sg31
S'--'
p631
sg33
S'--'
p632
sg35
S'@SF'
p633
sg37
S'--'
p634
sg39
S'--'
p635
sg41
S'--'
p636
ssg202
(dp637
g5
S'--'
p638
sg7
S'--'
p639
sg9
g10
sg11
g12
sg13
g12
sg14
S'Jeremy Ross'
p640
sg16
S'2013'
p641
sg18
g202
sg20
S'--'
p642
sg22
S'09/22'
p643
sg24
S'8.0'
p644
sg26
g12
sg27
S'--'
p645
sg29
S'L30-34'
p646
sg31
g210
sg33
g12
sg35
S'@CIN'
p647
sg37
g210
sg39
g10
sg41
S'--'
p648
ssg173
(dp649
g5
S'--'
p650
sg7
S'--'
p651
sg9
g10
sg11
S'--'
p652
sg13
g12
sg14
S'Jeremy Ross'
p653
sg16
S'2013'
p654
sg18
g173
sg20
S'--'
p655
sg22
S'09/15'
p656
sg24
S'--'
p657
sg26
S'--'
p658
sg27
S'--'
p659
sg29
S'W38-20'
p660
sg31
S'--'
p661
sg33
S'--'
p662
sg35
S'WAS'
p663
sg37
S'--'
p664
sg39
S'--'
p665
sg41
S'--'
p666
ssg177
(dp667
g5
S'--'
p668
sg7
S'--'
p669
sg9
g10
sg11
S'--'
p670
sg13
g12
sg14
S'Jeremy Ross'
p671
sg16
S'2013'
p672
sg18
g177
sg20
S'--'
p673
sg22
S'10/20'
p674
sg24
S'--'
p675
sg26
S'--'
p676
sg27
S'--'
p677
sg29
S'L24-27'
p678
sg31
S'--'
p679
sg33
S'--'
p680
sg35
S'CIN'
p681
sg37
S'--'
p682
sg39
S'--'
p683
sg41
S'--'
p684
ssg188
(dp685
g5
g206
sg7
g206
sg9
g206
sg11
g206
sg13
g206
sg14
S'Jeremy Ross'
p686
sg16
S'2013'
p687
sg18
g188
sg20
g206
sg22
S'Bye'
p688
sg24
g206
sg26
g206
sg27
g206
sg29
g206
sg31
g206
sg33
g206
sg35
g206
sg37
g206
sg39
g206
sg41
g206
ssg210
(dp689
g5
S'--'
p690
sg7
S'--'
p691
sg9
g10
sg11
S'--'
p692
sg13
g12
sg14
S'Jeremy Ross'
p693
sg16
S'2013'
p694
sg18
g210
sg20
S'--'
p695
sg22
S'10/27'
p696
sg24
S'7.0'
p697
sg26
S'--'
p698
sg27
S'--'
p699
sg29
S'W31-30'
p700
sg31
g177
sg33
g12
sg35
S'DAL'
p701
sg37
g177
sg39
g10
sg41
S'--'
p702
sssS'2012'
p703
(dp704
g43
(dp705
g5
S'--'
p706
sg7
S'--'
p707
sg9
g10
sg11
S'--'
p708
sg13
g12
sg14
S'Jeremy Ross'
p709
sg16
S'2012'
p710
sg18
S'13'
p711
sg20
S'--'
p712
sg22
S'12/02'
p713
sg24
S'--'
p714
sg26
S'--'
p715
sg27
S'--'
p716
sg29
S'W23-14'
p717
sg31
S'--'
p718
sg33
S'--'
p719
sg35
S'MIN'
p720
sg37
S'--'
p721
sg39
S'--'
p722
sg41
S'--'
p723
ssg81
(dp724
g5
S'--'
p725
sg7
S'--'
p726
sg9
g10
sg11
S'--'
p727
sg13
g12
sg14
S'Jeremy Ross'
p728
sg16
S'2012'
p729
sg18
S'15'
p730
sg20
S'--'
p731
sg22
S'12/16'
p732
sg24
S'--'
p733
sg26
S'--'
p734
sg27
S'--'
p735
sg29
S'W21-13'
p736
sg31
S'--'
p737
sg33
S'--'
p738
sg35
S'@CHI'
p739
sg37
S'--'
p740
sg39
S'--'
p741
sg41
S'--'
p742
ssg101
(dp743
g5
S'--'
p744
sg7
S'--'
p745
sg9
g10
sg11
S'--'
p746
sg13
g12
sg14
S'Jeremy Ross'
p747
sg16
S'2012'
p748
sg18
S'14'
p749
sg20
S'--'
p750
sg22
S'12/09'
p751
sg24
S'--'
p752
sg26
S'--'
p753
sg27
S'--'
p754
sg29
S'W27-20'
p755
sg31
S'--'
p756
sg33
S'--'
p757
sg35
S'DET'
p758
sg37
S'--'
p759
sg39
S'--'
p760
sg41
S'--'
p761
ssg119
(dp762
g5
S'--'
p763
sg7
S'--'
p764
sg9
g10
sg11
S'--'
p765
sg13
g12
sg14
S'Jeremy Ross'
p766
sg16
S'2012'
p767
sg18
S'17'
p768
sg20
S'--'
p769
sg22
S'12/30'
p770
sg24
S'--'
p771
sg26
S'--'
p772
sg27
S'--'
p773
sg29
S'L34-37'
p774
sg31
S'--'
p775
sg33
S'--'
p776
sg35
S'@MIN'
p777
sg37
S'--'
p778
sg39
S'--'
p779
sg41
S'--'
p780
ssg139
(dp781
g5
S'--'
p782
sg7
S'--'
p783
sg9
g10
sg11
S'--'
p784
sg13
g12
sg14
S'Jeremy Ross'
p785
sg16
S'2012'
p786
sg18
S'16'
p787
sg20
S'--'
p788
sg22
S'12/23'
p789
sg24
S'--'
p790
sg26
S'--'
p791
sg27
S'--'
p792
sg29
S'W55-7'
p793
sg31
S'--'
p794
sg33
S'--'
p795
sg35
S'TEN'
p796
sg37
S'--'
p797
sg39
S'--'
p798
sg41
S'--'
p799
sss.