(dp0
S'2015'
p1
(dp2
S'11'
p3
(dp4
S'RushTD'
p5
S'--'
p6
sS'RushYds'
p7
S'--'
p8
sS'GS'
p9
S'1'
p10
sS'Lost'
p11
S'--'
p12
sS'G'
p13
g10
sS'Player'
p14
S'Jermaine Kearse'
p15
sS'Year'
p16
S'2015'
p17
sS'WK'
p18
S'11'
p19
sS'RushAvg'
p20
S'--'
p21
sS'Game Date'
p22
S'11/22'
p23
sS'RecAvg'
p24
S'11.3'
p25
sS'FUM'
p26
S'--'
p27
sS'RushAtt'
p28
S'--'
p29
sS'Result'
p30
S'W29-13'
p31
sS'RecYds'
p32
S'34'
p33
sS'Rec'
p34
S'3'
p35
sS'Opp'
p36
S'SF'
p37
sS'RecLng'
p38
S'18'
p39
sS'RecTD'
p40
S'0'
p41
sS'RushLng'
p42
S'--'
p43
ssS'10'
p44
(dp45
g5
S'--'
p46
sg7
S'--'
p47
sg9
g10
sg11
S'--'
p48
sg13
g10
sg14
S'Jermaine Kearse'
p49
sg16
S'2015'
p50
sg18
S'10'
p51
sg20
S'--'
p52
sg22
S'11/15'
p53
sg24
S'10.0'
p54
sg26
S'--'
p55
sg28
S'--'
p56
sg30
S'L32-39'
p57
sg32
S'10'
p58
sg34
g10
sg36
S'ARI'
p59
sg38
S'10'
p60
sg40
g41
sg42
S'--'
p61
ssS'13'
p62
(dp63
g5
S'--'
p64
sg7
S'--'
p65
sg9
g10
sg11
S'--'
p66
sg13
g10
sg14
S'Jermaine Kearse'
p67
sg16
S'2015'
p68
sg18
S'13'
p69
sg20
S'--'
p70
sg22
S'12/06'
p71
sg24
S'--'
p72
sg26
S'--'
p73
sg28
S'--'
p74
sg30
S'W38-7'
p75
sg32
g41
sg34
g41
sg36
S'@MIN'
p76
sg38
S'--'
p77
sg40
g41
sg42
S'--'
p78
ssS'12'
p79
(dp80
g5
S'--'
p81
sg7
S'--'
p82
sg9
g10
sg11
g41
sg13
g10
sg14
S'Jermaine Kearse'
p83
sg16
S'2015'
p84
sg18
S'12'
p85
sg20
S'--'
p86
sg22
S'11/29'
p87
sg24
S'11.8'
p88
sg26
g10
sg28
S'--'
p89
sg30
S'W39-30'
p90
sg32
S'47'
p91
sg34
S'4'
p92
sg36
S'PIT'
p93
sg38
S'22'
p94
sg40
S'2'
p95
sg42
S'--'
p96
ssS'15'
p97
(dp98
g5
S'--'
p99
sg7
S'--'
p100
sg9
g10
sg11
S'--'
p101
sg13
g10
sg14
S'Jermaine Kearse'
p102
sg16
S'2015'
p103
sg18
S'15'
p104
sg20
S'--'
p105
sg22
S'12/20'
p106
sg24
S'15.7'
p107
sg26
S'--'
p108
sg28
S'--'
p109
sg30
S'W30-13'
p110
sg32
S'110'
p111
sg34
S'7'
p112
sg36
S'CLE'
p113
sg38
S'39'
p114
sg40
g41
sg42
S'--'
p115
ssS'14'
p116
(dp117
g5
S'--'
p118
sg7
S'--'
p119
sg9
g10
sg11
S'--'
p120
sg13
g10
sg14
S'Jermaine Kearse'
p121
sg16
S'2015'
p122
sg18
S'14'
p123
sg20
S'--'
p124
sg22
S'12/13'
p125
sg24
S'10.6'
p126
sg26
S'--'
p127
sg28
S'--'
p128
sg30
S'W35-6'
p129
sg32
S'74'
p130
sg34
g112
sg36
S'@BAL'
p131
sg38
S'20'
p132
sg40
g41
sg42
S'--'
p133
ssS'17'
p134
(dp135
g5
S'--'
p136
sg7
S'--'
p137
sg9
g10
sg11
S'--'
p138
sg13
g10
sg14
S'Jermaine Kearse'
p139
sg16
S'2015'
p140
sg18
S'17'
p141
sg20
S'--'
p142
sg22
S'01/03'
p143
sg24
S'11.3'
p144
sg26
S'--'
p145
sg28
S'--'
p146
sg30
S'W36-6'
p147
sg32
S'34'
p148
sg34
g35
sg36
S'@ARI'
p149
sg38
S'24T'
p150
sg40
g10
sg42
S'--'
p151
ssS'16'
p152
(dp153
g5
S'--'
p154
sg7
S'--'
p155
sg9
g10
sg11
S'--'
p156
sg13
g10
sg14
S'Jermaine Kearse'
p157
sg16
S'2015'
p158
sg18
S'16'
p159
sg20
S'--'
p160
sg22
S'12/27'
p161
sg24
S'12.7'
p162
sg26
S'--'
p163
sg28
S'--'
p164
sg30
S'L17-23'
p165
sg32
S'38'
p166
sg34
g35
sg36
S'STL'
p167
sg38
S'18T'
p168
sg40
g10
sg42
S'--'
p169
ssg10
(dp170
g5
S'--'
p171
sg7
S'--'
p172
sg9
g10
sg11
S'--'
p173
sg13
g10
sg14
S'Jermaine Kearse'
p174
sg16
S'2015'
p175
sg18
g10
sg20
S'--'
p176
sg22
S'09/13'
p177
sg24
S'9.5'
p178
sg26
S'--'
p179
sg28
S'--'
p180
sg30
S'L31-34'
p181
sg32
S'76'
p182
sg34
S'8'
p183
sg36
S'@STL'
p184
sg38
S'23'
p185
sg40
g41
sg42
S'--'
p186
ssg35
(dp187
g5
S'--'
p188
sg7
S'--'
p189
sg9
g10
sg11
S'--'
p190
sg13
g10
sg14
S'Jermaine Kearse'
p191
sg16
S'2015'
p192
sg18
g35
sg20
S'--'
p193
sg22
S'09/27'
p194
sg24
S'12.7'
p195
sg26
S'--'
p196
sg28
S'--'
p197
sg30
S'W26-0'
p198
sg32
S'76'
p199
sg34
S'6'
p200
sg36
S'CHI'
p201
sg38
S'22'
p202
sg40
g41
sg42
S'--'
p203
ssg95
(dp204
g5
S'--'
p205
sg7
S'--'
p206
sg9
g10
sg11
S'--'
p207
sg13
g10
sg14
S'Jermaine Kearse'
p208
sg16
S'2015'
p209
sg18
g95
sg20
S'--'
p210
sg22
S'09/20'
p211
sg24
S'--'
p212
sg26
S'--'
p213
sg28
S'--'
p214
sg30
S'L17-27'
p215
sg32
g41
sg34
g41
sg36
S'@GB'
p216
sg38
S'--'
p217
sg40
g41
sg42
S'--'
p218
ssS'5'
p219
(dp220
g5
S'--'
p221
sg7
S'--'
p222
sg9
g10
sg11
S'--'
p223
sg13
g10
sg14
S'Jermaine Kearse'
p224
sg16
S'2015'
p225
sg18
g219
sg20
S'--'
p226
sg22
S'10/11'
p227
sg24
S'19.0'
p228
sg26
S'--'
p229
sg28
S'--'
p230
sg30
S'L24-27'
p231
sg32
S'38'
p232
sg34
g95
sg36
S'@CIN'
p233
sg38
S'30T'
p234
sg40
g10
sg42
S'--'
p235
ssg92
(dp236
g5
S'--'
p237
sg7
S'--'
p238
sg9
g10
sg11
S'--'
p239
sg13
g10
sg14
S'Jermaine Kearse'
p240
sg16
S'2015'
p241
sg18
g92
sg20
S'--'
p242
sg22
S'10/05'
p243
sg24
S'42.0'
p244
sg26
S'--'
p245
sg28
S'--'
p246
sg30
S'W13-10'
p247
sg32
S'84'
p248
sg34
g95
sg36
S'DET'
p249
sg38
S'50'
p250
sg40
g41
sg42
S'--'
p251
ssg112
(dp252
g5
S'--'
p253
sg7
S'--'
p254
sg9
g10
sg11
S'--'
p255
sg13
g10
sg14
S'Jermaine Kearse'
p256
sg16
S'2015'
p257
sg18
g112
sg20
S'--'
p258
sg22
S'10/22'
p259
sg24
S'21.3'
p260
sg26
S'--'
p261
sg28
S'--'
p262
sg30
S'W20-3'
p263
sg32
S'64'
p264
sg34
g35
sg36
S'@SF'
p265
sg38
S'36'
p266
sg40
g41
sg42
S'--'
p267
ssg200
(dp268
g5
S'--'
p269
sg7
S'--'
p270
sg9
g10
sg11
S'--'
p271
sg13
g10
sg14
S'Jermaine Kearse'
p272
sg16
S'2015'
p273
sg18
g200
sg20
S'--'
p274
sg22
S'10/18'
p275
sg24
S'--'
p276
sg26
S'--'
p277
sg28
S'--'
p278
sg30
S'L23-27'
p279
sg32
g41
sg34
g41
sg36
S'CAR'
p280
sg38
S'--'
p281
sg40
g41
sg42
S'--'
p282
ssS'9'
p283
(dp284
g5
S''
p285
sg7
g285
sg9
g285
sg11
g285
sg13
g285
sg14
S'Jermaine Kearse'
p286
sg16
S'2015'
p287
sg18
g283
sg20
g285
sg22
S'Bye'
p288
sg24
g285
sg26
g285
sg28
g285
sg30
g285
sg32
g285
sg34
g285
sg36
g285
sg38
g285
sg40
g285
sg42
g285
ssg183
(dp289
g5
S'--'
p290
sg7
S'--'
p291
sg9
g10
sg11
S'--'
p292
sg13
g10
sg14
S'Jermaine Kearse'
p293
sg16
S'2015'
p294
sg18
g183
sg20
S'--'
p295
sg22
S'11/01'
p296
sg24
S'--'
p297
sg26
S'--'
p298
sg28
S'--'
p299
sg30
S'W13-12'
p300
sg32
g41
sg34
g41
sg36
S'@DAL'
p301
sg38
S'--'
p302
sg40
g41
sg42
S'--'
p303
sssS'2014'
p304
(dp305
g3
(dp306
g5
S'--'
p307
sg7
S'--'
p308
sg9
g10
sg11
S'--'
p309
sg13
g10
sg14
S'Jermaine Kearse'
p310
sg16
S'2014'
p311
sg18
S'11'
p312
sg20
S'--'
p313
sg22
S'11/16'
p314
sg24
S'10.8'
p315
sg26
S'--'
p316
sg28
S'--'
p317
sg30
S'L20-24'
p318
sg32
S'54'
p319
sg34
g219
sg36
S'@KC'
p320
sg38
S'24'
p321
sg40
g41
sg42
S'--'
p322
ssg44
(dp323
g5
S'--'
p324
sg7
S'--'
p325
sg9
g10
sg11
S'--'
p326
sg13
g10
sg14
S'Jermaine Kearse'
p327
sg16
S'2014'
p328
sg18
S'10'
p329
sg20
S'--'
p330
sg22
S'11/09'
p331
sg24
S'23.3'
p332
sg26
S'--'
p333
sg28
S'--'
p334
sg30
S'W38-17'
p335
sg32
S'70'
p336
sg34
g35
sg36
S'NYG'
p337
sg38
S'60'
p338
sg40
g41
sg42
S'--'
p339
ssg62
(dp340
g5
S'--'
p341
sg7
S'--'
p342
sg9
g10
sg11
S'--'
p343
sg13
g10
sg14
S'Jermaine Kearse'
p344
sg16
S'2014'
p345
sg18
S'13'
p346
sg20
S'--'
p347
sg22
S'11/27'
p348
sg24
S'11.3'
p349
sg26
S'--'
p350
sg28
S'--'
p351
sg30
S'W19-3'
p352
sg32
S'34'
p353
sg34
g35
sg36
S'@SF'
p354
sg38
S'17'
p355
sg40
g41
sg42
S'--'
p356
ssg79
(dp357
g5
S'--'
p358
sg7
S'--'
p359
sg9
g10
sg11
S'--'
p360
sg13
g10
sg14
S'Jermaine Kearse'
p361
sg16
S'2014'
p362
sg18
S'12'
p363
sg20
S'--'
p364
sg22
S'11/23'
p365
sg24
S'19.0'
p366
sg26
S'--'
p367
sg28
S'--'
p368
sg30
S'W19-3'
p369
sg32
S'19'
p370
sg34
g10
sg36
S'ARI'
p371
sg38
S'19'
p372
sg40
g41
sg42
S'--'
p373
ssg97
(dp374
g5
S'--'
p375
sg7
S'--'
p376
sg9
g10
sg11
S'--'
p377
sg13
g10
sg14
S'Jermaine Kearse'
p378
sg16
S'2014'
p379
sg18
S'15'
p380
sg20
S'--'
p381
sg22
S'12/14'
p382
sg24
S'15.6'
p383
sg26
S'--'
p384
sg28
S'--'
p385
sg30
S'W17-7'
p386
sg32
S'78'
p387
sg34
g219
sg36
S'SF'
p388
sg38
S'47'
p389
sg40
g41
sg42
S'--'
p390
ssg116
(dp391
g5
g41
sg7
S'15'
p392
sg9
g10
sg11
S'--'
p393
sg13
g10
sg14
S'Jermaine Kearse'
p394
sg16
S'2014'
p395
sg18
S'14'
p396
sg20
S'7.5'
p397
sg22
S'12/07'
p398
sg24
S'12.3'
p399
sg26
S'--'
p400
sg28
g95
sg30
S'W24-14'
p401
sg32
S'37'
p402
sg34
g35
sg36
S'@PHI'
p403
sg38
S'20'
p404
sg40
g41
sg42
S'11'
p405
ssg134
(dp406
g5
S'--'
p407
sg7
S'--'
p408
sg9
g41
sg11
S'--'
p409
sg13
g41
sg14
S'Jermaine Kearse'
p410
sg16
S'2014'
p411
sg18
S'17'
p412
sg20
S'--'
p413
sg22
S'12/28'
p414
sg24
S'--'
p415
sg26
S'--'
p416
sg28
S'--'
p417
sg30
S'W20-6'
p418
sg32
S'--'
p419
sg34
S'--'
p420
sg36
S'STL'
p421
sg38
S'--'
p422
sg40
S'--'
p423
sg42
S'--'
p424
ssg152
(dp425
g5
S'--'
p426
sg7
S'--'
p427
sg9
g10
sg11
S'--'
p428
sg13
g10
sg14
S'Jermaine Kearse'
p429
sg16
S'2014'
p430
sg18
S'16'
p431
sg20
S'--'
p432
sg22
S'12/21'
p433
sg24
S'8.0'
p434
sg26
S'--'
p435
sg28
S'--'
p436
sg30
S'W35-6'
p437
sg32
g183
sg34
g10
sg36
S'@ARI'
p438
sg38
g183
sg40
g41
sg42
S'--'
p439
ssg10
(dp440
g5
S'--'
p441
sg7
S'--'
p442
sg9
g41
sg11
S'--'
p443
sg13
g10
sg14
S'Jermaine Kearse'
p444
sg16
S'2014'
p445
sg18
g10
sg20
S'--'
p446
sg22
S'09/04'
p447
sg24
S'8.0'
p448
sg26
S'--'
p449
sg28
S'--'
p450
sg30
S'W36-16'
p451
sg32
g183
sg34
g10
sg36
S'GB'
p452
sg38
g183
sg40
g41
sg42
S'--'
p453
ssg35
(dp454
g5
S'--'
p455
sg7
S'--'
p456
sg9
g10
sg11
S'--'
p457
sg13
g10
sg14
S'Jermaine Kearse'
p458
sg16
S'2014'
p459
sg18
g35
sg20
S'--'
p460
sg22
S'09/21'
p461
sg24
S'11.0'
p462
sg26
S'--'
p463
sg28
S'--'
p464
sg30
S'W26-20'
p465
sg32
S'22'
p466
sg34
g95
sg36
S'DEN'
p467
sg38
S'12'
p468
sg40
g41
sg42
S'--'
p469
ssg95
(dp470
g5
S'--'
p471
sg7
S'--'
p472
sg9
g10
sg11
S'--'
p473
sg13
g10
sg14
S'Jermaine Kearse'
p474
sg16
S'2014'
p475
sg18
g95
sg20
S'--'
p476
sg22
S'09/14'
p477
sg24
S'15.3'
p478
sg26
S'--'
p479
sg28
S'--'
p480
sg30
S'L21-30'
p481
sg32
S'61'
p482
sg34
g92
sg36
S'@SD'
p483
sg38
S'30'
p484
sg40
g41
sg42
S'--'
p485
ssg219
(dp486
g5
S'--'
p487
sg7
S'--'
p488
sg9
g10
sg11
S'--'
p489
sg13
g10
sg14
S'Jermaine Kearse'
p490
sg16
S'2014'
p491
sg18
g219
sg20
S'--'
p492
sg22
S'10/06'
p493
sg24
S'15.0'
p494
sg26
S'--'
p495
sg28
S'--'
p496
sg30
S'W27-17'
p497
sg32
S'15'
p498
sg34
g10
sg36
S'@WAS'
p499
sg38
S'15T'
p500
sg40
g10
sg42
S'--'
p501
ssg92
(dp502
g5
g285
sg7
g285
sg9
g285
sg11
g285
sg13
g285
sg14
S'Jermaine Kearse'
p503
sg16
S'2014'
p504
sg18
g92
sg20
g285
sg22
S'Bye'
p505
sg24
g285
sg26
g285
sg28
g285
sg30
g285
sg32
g285
sg34
g285
sg36
g285
sg38
g285
sg40
g285
sg42
g285
ssg112
(dp506
g5
S'--'
p507
sg7
S'--'
p508
sg9
g10
sg11
S'--'
p509
sg13
g10
sg14
S'Jermaine Kearse'
p510
sg16
S'2014'
p511
sg18
g112
sg20
S'--'
p512
sg22
S'10/19'
p513
sg24
S'16.7'
p514
sg26
S'--'
p515
sg28
S'--'
p516
sg30
S'L26-28'
p517
sg32
S'50'
p518
sg34
g35
sg36
S'@STL'
p519
sg38
S'29'
p520
sg40
g41
sg42
S'--'
p521
ssg200
(dp522
g5
S'--'
p523
sg7
S'--'
p524
sg9
g10
sg11
S'--'
p525
sg13
g10
sg14
S'Jermaine Kearse'
p526
sg16
S'2014'
p527
sg18
g200
sg20
S'--'
p528
sg22
S'10/12'
p529
sg24
S'20.7'
p530
sg26
S'--'
p531
sg28
S'--'
p532
sg30
S'L23-30'
p533
sg32
S'62'
p534
sg34
g35
sg36
S'DAL'
p535
sg38
S'53'
p536
sg40
g41
sg42
S'--'
p537
ssg283
(dp538
g5
S'--'
p539
sg7
S'--'
p540
sg9
g10
sg11
S'--'
p541
sg13
g10
sg14
S'Jermaine Kearse'
p542
sg16
S'2014'
p543
sg18
g283
sg20
S'--'
p544
sg22
S'11/02'
p545
sg24
S'4.0'
p546
sg26
S'--'
p547
sg28
S'--'
p548
sg30
S'W30-24'
p549
sg32
g92
sg34
g10
sg36
S'OAK'
p550
sg38
g92
sg40
g41
sg42
S'--'
p551
ssg183
(dp552
g5
S'--'
p553
sg7
S'--'
p554
sg9
g10
sg11
S'--'
p555
sg13
g10
sg14
S'Jermaine Kearse'
p556
sg16
S'2014'
p557
sg18
g183
sg20
S'--'
p558
sg22
S'10/26'
p559
sg24
S'7.5'
p560
sg26
S'--'
p561
sg28
S'--'
p562
sg30
S'W13-9'
p563
sg32
S'15'
p564
sg34
g95
sg36
S'@CAR'
p565
sg38
S'12'
p566
sg40
g41
sg42
S'--'
p567
sssS'2013'
p568
(dp569
g3
(dp570
g5
S'--'
p571
sg7
S'--'
p572
sg9
g41
sg11
S'--'
p573
sg13
g10
sg14
S'Jermaine Kearse'
p574
sg16
S'2013'
p575
sg18
S'11'
p576
sg20
S'--'
p577
sg22
S'11/17'
p578
sg24
S'--'
p579
sg26
S'--'
p580
sg28
S'--'
p581
sg30
S'W41-20'
p582
sg32
g41
sg34
g41
sg36
S'MIN'
p583
sg38
S'--'
p584
sg40
g41
sg42
S'--'
p585
ssg44
(dp586
g5
S'--'
p587
sg7
S'--'
p588
sg9
g41
sg11
S'--'
p589
sg13
g10
sg14
S'Jermaine Kearse'
p590
sg16
S'2013'
p591
sg18
S'10'
p592
sg20
S'--'
p593
sg22
S'11/10'
p594
sg24
S'25.0'
p595
sg26
S'--'
p596
sg28
S'--'
p597
sg30
S'W33-10'
p598
sg32
S'75'
p599
sg34
g35
sg36
S'@ATL'
p600
sg38
S'43T'
p601
sg40
g10
sg42
S'--'
p602
ssg62
(dp603
g5
S'--'
p604
sg7
S'--'
p605
sg9
g10
sg11
S'--'
p606
sg13
g10
sg14
S'Jermaine Kearse'
p607
sg16
S'2013'
p608
sg18
S'13'
p609
sg20
S'--'
p610
sg22
S'12/02'
p611
sg24
S'13.0'
p612
sg26
S'--'
p613
sg28
S'--'
p614
sg30
S'W34-7'
p615
sg32
S'26'
p616
sg34
g95
sg36
S'NO'
p617
sg38
S'19'
p618
sg40
g41
sg42
S'--'
p619
ssg79
(dp620
g5
g285
sg7
g285
sg9
g285
sg11
g285
sg13
g285
sg14
S'Jermaine Kearse'
p621
sg16
S'2013'
p622
sg18
S'12'
p623
sg20
g285
sg22
S'Bye'
p624
sg24
g285
sg26
g285
sg28
g285
sg30
g285
sg32
g285
sg34
g285
sg36
g285
sg38
g285
sg40
g285
sg42
g285
ssg97
(dp625
g5
S'--'
p626
sg7
S'--'
p627
sg9
g10
sg11
S'--'
p628
sg13
g10
sg14
S'Jermaine Kearse'
p629
sg16
S'2013'
p630
sg18
S'15'
p631
sg20
S'--'
p632
sg22
S'12/15'
p633
sg24
S'10.5'
p634
sg26
S'--'
p635
sg28
S'--'
p636
sg30
S'W23-0'
p637
sg32
S'21'
p638
sg34
g95
sg36
S'@NYG'
p639
sg38
S'13'
p640
sg40
g41
sg42
S'--'
p641
ssg116
(dp642
g5
S'--'
p643
sg7
S'--'
p644
sg9
g10
sg11
S'--'
p645
sg13
g10
sg14
S'Jermaine Kearse'
p646
sg16
S'2013'
p647
sg18
S'14'
p648
sg20
S'--'
p649
sg22
S'12/08'
p650
sg24
S'7.5'
p651
sg26
S'--'
p652
sg28
S'--'
p653
sg30
S'L17-19'
p654
sg32
S'15'
p655
sg34
g95
sg36
S'@SF'
p656
sg38
g283
sg40
g41
sg42
S'--'
p657
ssg134
(dp658
g5
S'--'
p659
sg7
S'--'
p660
sg9
g41
sg11
S'--'
p661
sg13
g41
sg14
S'Jermaine Kearse'
p662
sg16
S'2013'
p663
sg18
S'17'
p664
sg20
S'--'
p665
sg22
S'12/29'
p666
sg24
S'--'
p667
sg26
S'--'
p668
sg28
S'--'
p669
sg30
S'W27-9'
p670
sg32
S'--'
p671
sg34
S'--'
p672
sg36
S'STL'
p673
sg38
S'--'
p674
sg40
S'--'
p675
sg42
S'--'
p676
ssg152
(dp677
g5
S'--'
p678
sg7
S'--'
p679
sg9
g41
sg11
S'--'
p680
sg13
g10
sg14
S'Jermaine Kearse'
p681
sg16
S'2013'
p682
sg18
S'16'
p683
sg20
S'--'
p684
sg22
S'12/22'
p685
sg24
S'12.7'
p686
sg26
S'--'
p687
sg28
S'--'
p688
sg30
S'L10-17'
p689
sg32
S'38'
p690
sg34
g35
sg36
S'ARI'
p691
sg38
S'18'
p692
sg40
g41
sg42
S'--'
p693
ssg10
(dp694
g5
S'--'
p695
sg7
S'--'
p696
sg9
g41
sg11
S'--'
p697
sg13
g10
sg14
S'Jermaine Kearse'
p698
sg16
S'2013'
p699
sg18
g10
sg20
S'--'
p700
sg22
S'09/08'
p701
sg24
S'24.5'
p702
sg26
S'--'
p703
sg28
S'--'
p704
sg30
S'W12-7'
p705
sg32
S'49'
p706
sg34
g95
sg36
S'@CAR'
p707
sg38
S'43T'
p708
sg40
g10
sg42
S'--'
p709
ssg35
(dp710
g5
S'--'
p711
sg7
S'--'
p712
sg9
g10
sg11
S'--'
p713
sg13
g10
sg14
S'Jermaine Kearse'
p714
sg16
S'2013'
p715
sg18
g35
sg20
S'--'
p716
sg22
S'09/22'
p717
sg24
S'17.0'
p718
sg26
S'--'
p719
sg28
S'--'
p720
sg30
S'W45-17'
p721
sg32
S'17'
p722
sg34
g10
sg36
S'JAC'
p723
sg38
S'17'
p724
sg40
g41
sg42
S'--'
p725
ssg95
(dp726
g5
S'--'
p727
sg7
S'--'
p728
sg9
g10
sg11
S'--'
p729
sg13
g10
sg14
S'Jermaine Kearse'
p730
sg16
S'2013'
p731
sg18
g95
sg20
S'--'
p732
sg22
S'09/15'
p733
sg24
S'--'
p734
sg26
S'--'
p735
sg28
S'--'
p736
sg30
S'W29-3'
p737
sg32
S'--'
p738
sg34
S'--'
p739
sg36
S'SF'
p740
sg38
S'--'
p741
sg40
S'--'
p742
sg42
S'--'
p743
ssg219
(dp744
g5
S'--'
p745
sg7
S'--'
p746
sg9
g41
sg11
S'--'
p747
sg13
g10
sg14
S'Jermaine Kearse'
p748
sg16
S'2013'
p749
sg18
g219
sg20
S'--'
p750
sg22
S'10/06'
p751
sg24
S'28.0'
p752
sg26
S'--'
p753
sg28
S'--'
p754
sg30
S'L28-34'
p755
sg32
S'28'
p756
sg34
g10
sg36
S'@IND'
p757
sg38
S'28T'
p758
sg40
g10
sg42
S'--'
p759
ssg92
(dp760
g5
S'--'
p761
sg7
S'--'
p762
sg9
g41
sg11
S'--'
p763
sg13
g10
sg14
S'Jermaine Kearse'
p764
sg16
S'2013'
p765
sg18
g92
sg20
S'--'
p766
sg22
S'09/29'
p767
sg24
S'--'
p768
sg26
S'--'
p769
sg28
S'--'
p770
sg30
S'W23-20'
p771
sg32
g41
sg34
g41
sg36
S'@HOU'
p772
sg38
S'--'
p773
sg40
g41
sg42
S'--'
p774
ssg112
(dp775
g5
S'--'
p776
sg7
S'--'
p777
sg9
g41
sg11
S'--'
p778
sg13
g10
sg14
S'Jermaine Kearse'
p779
sg16
S'2013'
p780
sg18
g112
sg20
S'--'
p781
sg22
S'10/17'
p782
sg24
S'17.0'
p783
sg26
S'--'
p784
sg28
S'--'
p785
sg30
S'W34-22'
p786
sg32
S'17'
p787
sg34
g10
sg36
S'@ARI'
p788
sg38
S'17'
p789
sg40
g41
sg42
S'--'
p790
ssg200
(dp791
g5
S'--'
p792
sg7
S'--'
p793
sg9
g41
sg11
S'--'
p794
sg13
g10
sg14
S'Jermaine Kearse'
p795
sg16
S'2013'
p796
sg18
g200
sg20
S'--'
p797
sg22
S'10/13'
p798
sg24
S'5.7'
p799
sg26
S'--'
p800
sg28
S'--'
p801
sg30
S'W20-13'
p802
sg32
S'17'
p803
sg34
g35
sg36
S'TEN'
p804
sg38
S'11'
p805
sg40
g41
sg42
S'--'
p806
ssg283
(dp807
g5
S'--'
p808
sg7
S'--'
p809
sg9
g41
sg11
g10
sg13
g10
sg14
S'Jermaine Kearse'
p810
sg16
S'2013'
p811
sg18
g283
sg20
S'--'
p812
sg22
S'11/03'
p813
sg24
S'21.5'
p814
sg26
g10
sg28
S'--'
p815
sg30
S'W27-24'
p816
sg32
S'43'
p817
sg34
g95
sg36
S'TB'
p818
sg38
S'27'
p819
sg40
g10
sg42
S'--'
p820
ssg183
(dp821
g5
S'--'
p822
sg7
S'--'
p823
sg9
g41
sg11
S'--'
p824
sg13
g10
sg14
S'Jermaine Kearse'
p825
sg16
S'2013'
p826
sg18
g183
sg20
S'--'
p827
sg22
S'10/28'
p828
sg24
S'--'
p829
sg26
S'--'
p830
sg28
S'--'
p831
sg30
S'W14-9'
p832
sg32
g41
sg34
g41
sg36
S'@STL'
p833
sg38
S'--'
p834
sg40
g41
sg42
S'--'
p835
sssS'2012'
p836
(dp837
g3
(dp838
g5
g285
sg7
g285
sg9
g285
sg11
g285
sg13
g285
sg14
S'Jermaine Kearse'
p839
sg16
S'2012'
p840
sg18
S'11'
p841
sg20
g285
sg22
S'Bye'
p842
sg24
g285
sg26
g285
sg28
g285
sg30
g285
sg32
g285
sg34
g285
sg36
g285
sg38
g285
sg40
g285
sg42
g285
ssg44
(dp843
g5
S'--'
p844
sg7
S'--'
p845
sg9
g41
sg11
S'--'
p846
sg13
g10
sg14
S'Jermaine Kearse'
p847
sg16
S'2012'
p848
sg18
S'10'
p849
sg20
S'--'
p850
sg22
S'11/11'
p851
sg24
S'--'
p852
sg26
S'--'
p853
sg28
S'--'
p854
sg30
S'W28-7'
p855
sg32
S'--'
p856
sg34
S'--'
p857
sg36
S'NYJ'
p858
sg38
S'--'
p859
sg40
S'--'
p860
sg42
S'--'
p861
ssg62
(dp862
g5
S'--'
p863
sg7
S'--'
p864
sg9
g41
sg11
S'--'
p865
sg13
g41
sg14
S'Jermaine Kearse'
p866
sg16
S'2012'
p867
sg18
S'13'
p868
sg20
S'--'
p869
sg22
S'12/02'
p870
sg24
S'--'
p871
sg26
S'--'
p872
sg28
S'--'
p873
sg30
S'W23-17'
p874
sg32
S'--'
p875
sg34
S'--'
p876
sg36
S'@CHI'
p877
sg38
S'--'
p878
sg40
S'--'
p879
sg42
S'--'
p880
ssg79
(dp881
g5
S'--'
p882
sg7
S'--'
p883
sg9
g41
sg11
S'--'
p884
sg13
g10
sg14
S'Jermaine Kearse'
p885
sg16
S'2012'
p886
sg18
S'12'
p887
sg20
S'--'
p888
sg22
S'11/25'
p889
sg24
S'8.0'
p890
sg26
S'--'
p891
sg28
S'--'
p892
sg30
S'L21-24'
p893
sg32
g183
sg34
g10
sg36
S'@MIA'
p894
sg38
g183
sg40
g41
sg42
S'--'
p895
ssg97
(dp896
g5
S'--'
p897
sg7
S'--'
p898
sg9
g41
sg11
S'--'
p899
sg13
g10
sg14
S'Jermaine Kearse'
p900
sg16
S'2012'
p901
sg18
S'15'
p902
sg20
S'--'
p903
sg22
S'12/16'
p904
sg24
S'--'
p905
sg26
S'--'
p906
sg28
S'--'
p907
sg30
S'W50-17'
p908
sg32
g41
sg34
g41
sg36
S'@BUF'
p909
sg38
S'--'
p910
sg40
g41
sg42
S'--'
p911
ssg116
(dp912
g5
S'--'
p913
sg7
S'--'
p914
sg9
g41
sg11
S'--'
p915
sg13
g10
sg14
S'Jermaine Kearse'
p916
sg16
S'2012'
p917
sg18
S'14'
p918
sg20
S'--'
p919
sg22
S'12/09'
p920
sg24
S'--'
p921
sg26
S'--'
p922
sg28
S'--'
p923
sg30
S'W58-0'
p924
sg32
g41
sg34
g41
sg36
S'ARI'
p925
sg38
S'--'
p926
sg40
g41
sg42
S'--'
p927
ssg134
(dp928
g5
S'--'
p929
sg7
S'--'
p930
sg9
g41
sg11
S'--'
p931
sg13
g10
sg14
S'Jermaine Kearse'
p932
sg16
S'2012'
p933
sg18
S'17'
p934
sg20
S'--'
p935
sg22
S'12/30'
p936
sg24
S'--'
p937
sg26
S'--'
p938
sg28
S'--'
p939
sg30
S'W20-13'
p940
sg32
S'--'
p941
sg34
S'--'
p942
sg36
S'STL'
p943
sg38
S'--'
p944
sg40
S'--'
p945
sg42
S'--'
p946
ssg152
(dp947
g5
S'--'
p948
sg7
S'--'
p949
sg9
g41
sg11
S'--'
p950
sg13
g10
sg14
S'Jermaine Kearse'
p951
sg16
S'2012'
p952
sg18
S'16'
p953
sg20
S'--'
p954
sg22
S'12/23'
p955
sg24
S'17.0'
p956
sg26
S'--'
p957
sg28
S'--'
p958
sg30
S'W42-13'
p959
sg32
S'17'
p960
sg34
g10
sg36
S'SF'
p961
sg38
S'17'
p962
sg40
g41
sg42
S'--'
p963
ssg283
(dp964
g5
S'--'
p965
sg7
S'--'
p966
sg9
g10
sg11
S'--'
p967
sg13
g10
sg14
S'Jermaine Kearse'
p968
sg16
S'2012'
p969
sg18
g283
sg20
S'--'
p970
sg22
S'11/04'
p971
sg24
S'6.0'
p972
sg26
S'--'
p973
sg28
S'--'
p974
sg30
S'W30-20'
p975
sg32
g200
sg34
g10
sg36
S'MIN'
p976
sg38
g200
sg40
g41
sg42
S'--'
p977
sss.