(dp0
S'2015'
p1
(dp2
S'11'
p3
(dp4
S'RushTD'
p5
S'--'
p6
sS'RushYds'
p7
S'--'
p8
sS'GS'
p9
S'0'
p10
sS'Lost'
p11
S'--'
p12
sS'G'
p13
S'1'
p14
sS'Player'
p15
S'Jerricho Cotchery'
p16
sS'Year'
p17
S'2015'
p18
sS'WK'
p19
S'11'
p20
sS'RushAvg'
p21
S'--'
p22
sS'Game Date'
p23
S'11/22'
p24
sS'RecAvg'
p25
S'14.3'
p26
sS'FUM'
p27
S'--'
p28
sS'RushAtt'
p29
S'--'
p30
sS'Result'
p31
S'W44-16'
p32
sS'RecYds'
p33
S'57'
p34
sS'Rec'
p35
S'4'
p36
sS'Opp'
p37
S'WAS'
p38
sS'RecLng'
p39
S'19'
p40
sS'RecTD'
p41
g10
sS'RushLng'
p42
S'--'
p43
ssS'10'
p44
(dp45
g5
S'--'
p46
sg7
S'--'
p47
sg9
g14
sg11
S'--'
p48
sg13
g14
sg15
S'Jerricho Cotchery'
p49
sg17
S'2015'
p50
sg19
S'10'
p51
sg21
S'--'
p52
sg23
S'11/15'
p53
sg25
S'3.0'
p54
sg27
S'--'
p55
sg29
S'--'
p56
sg31
S'W27-10'
p57
sg33
S'6'
p58
sg35
S'2'
p59
sg37
S'@TEN'
p60
sg39
S'8'
p61
sg41
g10
sg42
S'--'
p62
ssS'13'
p63
(dp64
g5
S'--'
p65
sg7
S'--'
p66
sg9
g10
sg11
S'--'
p67
sg13
g14
sg15
S'Jerricho Cotchery'
p68
sg17
S'2015'
p69
sg19
S'13'
p70
sg21
S'--'
p71
sg23
S'12/06'
p72
sg25
S'8.7'
p73
sg27
S'--'
p74
sg29
S'--'
p75
sg31
S'W41-38'
p76
sg33
S'26'
p77
sg35
S'3'
p78
sg37
S'@NO'
p79
sg39
S'15T'
p80
sg41
g14
sg42
S'--'
p81
ssS'12'
p82
(dp83
g5
S'--'
p84
sg7
S'--'
p85
sg9
g10
sg11
S'--'
p86
sg13
g14
sg15
S'Jerricho Cotchery'
p87
sg17
S'2015'
p88
sg19
S'12'
p89
sg21
S'--'
p90
sg23
S'11/26'
p91
sg25
S'14.6'
p92
sg27
S'--'
p93
sg29
S'--'
p94
sg31
S'W33-14'
p95
sg33
S'73'
p96
sg35
S'5'
p97
sg37
S'@DAL'
p98
sg39
S'24'
p99
sg41
g10
sg42
S'--'
p100
ssS'15'
p101
(dp102
g5
S'--'
p103
sg7
S'--'
p104
sg9
g10
sg11
S'--'
p105
sg13
g14
sg15
S'Jerricho Cotchery'
p106
sg17
S'2015'
p107
sg19
S'15'
p108
sg21
S'--'
p109
sg23
S'12/20'
p110
sg25
S'11.8'
p111
sg27
S'--'
p112
sg29
S'--'
p113
sg31
S'W38-35'
p114
sg33
S'47'
p115
sg35
g36
sg37
S'@NYG'
p116
sg39
S'16'
p117
sg41
g10
sg42
S'--'
p118
ssS'14'
p119
(dp120
g5
S'--'
p121
sg7
S'--'
p122
sg9
g10
sg11
S'--'
p123
sg13
g14
sg15
S'Jerricho Cotchery'
p124
sg17
S'2015'
p125
sg19
S'14'
p126
sg21
S'--'
p127
sg23
S'12/13'
p128
sg25
S'5.0'
p129
sg27
S'--'
p130
sg29
S'--'
p131
sg31
S'W38-0'
p132
sg33
S'10'
p133
sg35
g59
sg37
S'ATL'
p134
sg39
g58
sg41
g10
sg42
S'--'
p135
ssS'17'
p136
(dp137
g5
S'--'
p138
sg7
S'--'
p139
sg9
g14
sg11
S'--'
p140
sg13
g14
sg15
S'Jerricho Cotchery'
p141
sg17
S'2015'
p142
sg19
S'17'
p143
sg21
S'--'
p144
sg23
S'01/03'
p145
sg25
S'26.0'
p146
sg27
S'--'
p147
sg29
S'--'
p148
sg31
S'W38-10'
p149
sg33
S'52'
p150
sg35
g59
sg37
S'TB'
p151
sg39
S'31T'
p152
sg41
g14
sg42
S'--'
p153
ssS'16'
p154
(dp155
g5
g10
sg7
S'16'
p156
sg9
g14
sg11
S'--'
p157
sg13
g14
sg15
S'Jerricho Cotchery'
p158
sg17
S'2015'
p159
sg19
S'16'
p160
sg21
S'16.0'
p161
sg23
S'12/27'
p162
sg25
S'6.0'
p163
sg27
S'--'
p164
sg29
g14
sg31
S'L13-20'
p165
sg33
S'24'
p166
sg35
g36
sg37
S'@ATL'
p167
sg39
S'11'
p168
sg41
g10
sg42
S'16'
p169
ssg14
(dp170
g5
S'--'
p171
sg7
S'--'
p172
sg9
g10
sg11
S'--'
p173
sg13
g14
sg15
S'Jerricho Cotchery'
p174
sg17
S'2015'
p175
sg19
g14
sg21
S'--'
p176
sg23
S'09/13'
p177
sg25
S'11.3'
p178
sg27
S'--'
p179
sg29
S'--'
p180
sg31
S'W20-9'
p181
sg33
S'45'
p182
sg35
g36
sg37
S'@JAC'
p183
sg39
S'24'
p184
sg41
g14
sg42
S'--'
p185
ssg78
(dp186
g5
S'--'
p187
sg7
S'--'
p188
sg9
g10
sg11
S'--'
p189
sg13
g10
sg15
S'Jerricho Cotchery'
p190
sg17
S'2015'
p191
sg19
g78
sg21
S'--'
p192
sg23
S'09/27'
p193
sg25
S'--'
p194
sg27
S'--'
p195
sg29
S'--'
p196
sg31
S'W27-22'
p197
sg33
S'--'
p198
sg35
S'--'
p199
sg37
S'NO'
p200
sg39
S'--'
p201
sg41
S'--'
p202
sg42
S'--'
p203
ssg59
(dp204
g5
S'--'
p205
sg7
S'--'
p206
sg9
g10
sg11
S'--'
p207
sg13
g14
sg15
S'Jerricho Cotchery'
p208
sg17
S'2015'
p209
sg19
g59
sg21
S'--'
p210
sg23
S'09/20'
p211
sg25
S'11.0'
p212
sg27
S'--'
p213
sg29
S'--'
p214
sg31
S'W24-17'
p215
sg33
S'11'
p216
sg35
g14
sg37
S'HOU'
p217
sg39
S'11'
p218
sg41
g10
sg42
S'--'
p219
ssg97
(dp220
g5
S''
p221
sg7
g221
sg9
g221
sg11
g221
sg13
g221
sg15
S'Jerricho Cotchery'
p222
sg17
S'2015'
p223
sg19
g97
sg21
g221
sg23
S'Bye'
p224
sg25
g221
sg27
g221
sg29
g221
sg31
g221
sg33
g221
sg35
g221
sg37
g221
sg39
g221
sg41
g221
sg42
g221
ssg36
(dp225
g5
S'--'
p226
sg7
S'--'
p227
sg9
g10
sg11
S'--'
p228
sg13
g10
sg15
S'Jerricho Cotchery'
p229
sg17
S'2015'
p230
sg19
g36
sg21
S'--'
p231
sg23
S'10/04'
p232
sg25
S'--'
p233
sg27
S'--'
p234
sg29
S'--'
p235
sg31
S'W37-23'
p236
sg33
S'--'
p237
sg35
S'--'
p238
sg37
S'@TB'
p239
sg39
S'--'
p240
sg41
S'--'
p241
sg42
S'--'
p242
ssS'7'
p243
(dp244
g5
S'--'
p245
sg7
S'--'
p246
sg9
g10
sg11
S'--'
p247
sg13
g14
sg15
S'Jerricho Cotchery'
p248
sg17
S'2015'
p249
sg19
g243
sg21
S'--'
p250
sg23
S'10/25'
p251
sg25
S'13.0'
p252
sg27
S'--'
p253
sg29
S'--'
p254
sg31
S'W27-16'
p255
sg33
S'13'
p256
sg35
g14
sg37
S'PHI'
p257
sg39
S'13'
p258
sg41
g10
sg42
S'--'
p259
ssg58
(dp260
g5
S'--'
p261
sg7
S'--'
p262
sg9
g10
sg11
S'--'
p263
sg13
g14
sg15
S'Jerricho Cotchery'
p264
sg17
S'2015'
p265
sg19
g58
sg21
S'--'
p266
sg23
S'10/18'
p267
sg25
S'10.5'
p268
sg27
S'--'
p269
sg29
S'--'
p270
sg31
S'W27-23'
p271
sg33
S'21'
p272
sg35
g59
sg37
S'@SEA'
p273
sg39
S'14'
p274
sg41
g10
sg42
S'--'
p275
ssS'9'
p276
(dp277
g5
S'--'
p278
sg7
S'--'
p279
sg9
g10
sg11
S'--'
p280
sg13
g14
sg15
S'Jerricho Cotchery'
p281
sg17
S'2015'
p282
sg19
g276
sg21
S'--'
p283
sg23
S'11/08'
p284
sg25
S'27.3'
p285
sg27
S'--'
p286
sg29
S'--'
p287
sg31
S'W37-29'
p288
sg33
S'82'
p289
sg35
g78
sg37
S'GB'
p290
sg39
S'59'
p291
sg41
g10
sg42
S'--'
p292
ssg61
(dp293
g5
S'--'
p294
sg7
S'--'
p295
sg9
g10
sg11
S'--'
p296
sg13
g14
sg15
S'Jerricho Cotchery'
p297
sg17
S'2015'
p298
sg19
g61
sg21
S'--'
p299
sg23
S'11/02'
p300
sg25
S'9.0'
p301
sg27
S'--'
p302
sg29
S'--'
p303
sg31
S'W29-26'
p304
sg33
S'18'
p305
sg35
g59
sg37
S'IND'
p306
sg39
S'13'
p307
sg41
g10
sg42
S'--'
p308
sssS'2014'
p309
(dp310
g3
(dp311
g5
S'--'
p312
sg7
S'--'
p313
sg9
g14
sg11
S'--'
p314
sg13
g14
sg15
S'Jerricho Cotchery'
p315
sg17
S'2014'
p316
sg19
S'11'
p317
sg21
S'--'
p318
sg23
S'11/16'
p319
sg25
S'21.5'
p320
sg27
S'--'
p321
sg29
S'--'
p322
sg31
S'L17-19'
p323
sg33
S'43'
p324
sg35
g59
sg37
S'ATL'
p325
sg39
S'22'
p326
sg41
g10
sg42
S'--'
p327
ssg44
(dp328
g5
S'--'
p329
sg7
S'--'
p330
sg9
g14
sg11
S'--'
p331
sg13
g14
sg15
S'Jerricho Cotchery'
p332
sg17
S'2014'
p333
sg19
S'10'
p334
sg21
S'--'
p335
sg23
S'11/10'
p336
sg25
S'7.5'
p337
sg27
S'--'
p338
sg29
S'--'
p339
sg31
S'L21-45'
p340
sg33
S'15'
p341
sg35
g59
sg37
S'@PHI'
p342
sg39
g276
sg41
g10
sg42
S'--'
p343
ssg63
(dp344
g5
S'--'
p345
sg7
S'--'
p346
sg9
g14
sg11
S'--'
p347
sg13
g14
sg15
S'Jerricho Cotchery'
p348
sg17
S'2014'
p349
sg19
S'13'
p350
sg21
S'--'
p351
sg23
S'11/30'
p352
sg25
S'10.0'
p353
sg27
S'--'
p354
sg29
S'--'
p355
sg31
S'L13-31'
p356
sg33
S'20'
p357
sg35
g59
sg37
S'@MIN'
p358
sg39
S'14'
p359
sg41
g10
sg42
S'--'
p360
ssg82
(dp361
g5
g221
sg7
g221
sg9
g221
sg11
g221
sg13
g221
sg15
S'Jerricho Cotchery'
p362
sg17
S'2014'
p363
sg19
S'12'
p364
sg21
g221
sg23
S'Bye'
p365
sg25
g221
sg27
g221
sg29
g221
sg31
g221
sg33
g221
sg35
g221
sg37
g221
sg39
g221
sg41
g221
sg42
g221
ssg101
(dp366
g5
S'--'
p367
sg7
S'--'
p368
sg9
g10
sg11
S'--'
p369
sg13
g14
sg15
S'Jerricho Cotchery'
p370
sg17
S'2014'
p371
sg19
S'15'
p372
sg21
S'--'
p373
sg23
S'12/14'
p374
sg25
S'9.4'
p375
sg27
S'--'
p376
sg29
S'--'
p377
sg31
S'W19-17'
p378
sg33
S'47'
p379
sg35
g97
sg37
S'TB'
p380
sg39
S'18'
p381
sg41
g14
sg42
S'--'
p382
ssg119
(dp383
g5
S'--'
p384
sg7
S'--'
p385
sg9
g14
sg11
S'--'
p386
sg13
g14
sg15
S'Jerricho Cotchery'
p387
sg17
S'2014'
p388
sg19
S'14'
p389
sg21
S'--'
p390
sg23
S'12/07'
p391
sg25
S'9.0'
p392
sg27
S'--'
p393
sg29
S'--'
p394
sg31
S'W41-10'
p395
sg33
g276
sg35
g14
sg37
S'@NO'
p396
sg39
g276
sg41
g10
sg42
S'--'
p397
ssg136
(dp398
g5
S'--'
p399
sg7
S'--'
p400
sg9
g14
sg11
S'--'
p401
sg13
g14
sg15
S'Jerricho Cotchery'
p402
sg17
S'2014'
p403
sg19
S'17'
p404
sg21
S'--'
p405
sg23
S'12/28'
p406
sg25
S'8.3'
p407
sg27
S'--'
p408
sg29
S'--'
p409
sg31
S'W34-3'
p410
sg33
S'25'
p411
sg35
g78
sg37
S'@ATL'
p412
sg39
S'18'
p413
sg41
g10
sg42
S'--'
p414
ssg154
(dp415
g5
S'--'
p416
sg7
S'--'
p417
sg9
g10
sg11
S'--'
p418
sg13
g14
sg15
S'Jerricho Cotchery'
p419
sg17
S'2014'
p420
sg19
S'16'
p421
sg21
S'--'
p422
sg23
S'12/21'
p423
sg25
S'9.2'
p424
sg27
S'--'
p425
sg29
S'--'
p426
sg31
S'W17-13'
p427
sg33
S'46'
p428
sg35
g97
sg37
S'CLE'
p429
sg39
S'18'
p430
sg41
g10
sg42
S'--'
p431
ssg14
(dp432
g5
S'--'
p433
sg7
S'--'
p434
sg9
g14
sg11
S'--'
p435
sg13
g14
sg15
S'Jerricho Cotchery'
p436
sg17
S'2014'
p437
sg19
g14
sg21
S'--'
p438
sg23
S'09/07'
p439
sg25
S'8.0'
p440
sg27
S'--'
p441
sg29
S'--'
p442
sg31
S'W20-14'
p443
sg33
S'32'
p444
sg35
g36
sg37
S'@TB'
p445
sg39
S'11'
p446
sg41
g10
sg42
S'--'
p447
ssg78
(dp448
g5
S'--'
p449
sg7
S'--'
p450
sg9
g10
sg11
S'--'
p451
sg13
g10
sg15
S'Jerricho Cotchery'
p452
sg17
S'2014'
p453
sg19
g78
sg21
S'--'
p454
sg23
S'09/21'
p455
sg25
S'--'
p456
sg27
S'--'
p457
sg29
S'--'
p458
sg31
S'L19-37'
p459
sg33
S'--'
p460
sg35
S'--'
p461
sg37
S'PIT'
p462
sg39
S'--'
p463
sg41
S'--'
p464
sg42
S'--'
p465
ssg59
(dp466
g5
S'--'
p467
sg7
S'--'
p468
sg9
g14
sg11
S'--'
p469
sg13
g14
sg15
S'Jerricho Cotchery'
p470
sg17
S'2014'
p471
sg19
g59
sg21
S'--'
p472
sg23
S'09/14'
p473
sg25
S'11.5'
p474
sg27
S'--'
p475
sg29
S'--'
p476
sg31
S'W24-7'
p477
sg33
S'46'
p478
sg35
g36
sg37
S'DET'
p479
sg39
S'16'
p480
sg41
g10
sg42
S'--'
p481
ssg97
(dp482
g5
S'--'
p483
sg7
S'--'
p484
sg9
g14
sg11
S'--'
p485
sg13
g14
sg15
S'Jerricho Cotchery'
p486
sg17
S'2014'
p487
sg19
g97
sg21
S'--'
p488
sg23
S'10/05'
p489
sg25
S'15.3'
p490
sg27
S'--'
p491
sg29
S'--'
p492
sg31
S'W31-24'
p493
sg33
S'46'
p494
sg35
g78
sg37
S'CHI'
p495
sg39
S'22'
p496
sg41
g10
sg42
S'--'
p497
ssg36
(dp498
g5
S'--'
p499
sg7
S'--'
p500
sg9
g14
sg11
S'--'
p501
sg13
g14
sg15
S'Jerricho Cotchery'
p502
sg17
S'2014'
p503
sg19
g36
sg21
S'--'
p504
sg23
S'09/28'
p505
sg25
S'16.0'
p506
sg27
S'--'
p507
sg29
S'--'
p508
sg31
S'L10-38'
p509
sg33
S'80'
p510
sg35
g97
sg37
S'@BAL'
p511
sg39
S'30'
p512
sg41
g10
sg42
S'--'
p513
ssg243
(dp514
g5
S'--'
p515
sg7
S'--'
p516
sg9
g14
sg11
S'--'
p517
sg13
g14
sg15
S'Jerricho Cotchery'
p518
sg17
S'2014'
p519
sg19
g243
sg21
S'--'
p520
sg23
S'10/19'
p521
sg25
S'7.0'
p522
sg27
S'--'
p523
sg29
S'--'
p524
sg31
S'L17-38'
p525
sg33
S'21'
p526
sg35
g78
sg37
S'@GB'
p527
sg39
g276
sg41
g10
sg42
S'--'
p528
ssg58
(dp529
g5
S'--'
p530
sg7
S'--'
p531
sg9
g14
sg11
S'--'
p532
sg13
g14
sg15
S'Jerricho Cotchery'
p533
sg17
S'2014'
p534
sg19
g58
sg21
S'--'
p535
sg23
S'10/12'
p536
sg25
S'14.5'
p537
sg27
S'--'
p538
sg29
S'--'
p539
sg31
S'T37-37'
p540
sg33
S'58'
p541
sg35
g36
sg37
S'@CIN'
p542
sg39
S'26'
p543
sg41
g10
sg42
S'--'
p544
ssg276
(dp545
g5
S'--'
p546
sg7
S'--'
p547
sg9
g14
sg11
S'--'
p548
sg13
g14
sg15
S'Jerricho Cotchery'
p549
sg17
S'2014'
p550
sg19
g276
sg21
S'--'
p551
sg23
S'10/30'
p552
sg25
S'29.5'
p553
sg27
S'--'
p554
sg29
S'--'
p555
sg31
S'L10-28'
p556
sg33
S'59'
p557
sg35
g59
sg37
S'NO'
p558
sg39
S'47'
p559
sg41
g10
sg42
S'--'
p560
ssg61
(dp561
g5
S'--'
p562
sg7
S'--'
p563
sg9
g14
sg11
S'--'
p564
sg13
g14
sg15
S'Jerricho Cotchery'
p565
sg17
S'2014'
p566
sg19
g61
sg21
S'--'
p567
sg23
S'10/26'
p568
sg25
S'11.0'
p569
sg27
S'--'
p570
sg29
S'--'
p571
sg31
S'L9-13'
p572
sg33
S'33'
p573
sg35
g78
sg37
S'SEA'
p574
sg39
S'13'
p575
sg41
g10
sg42
S'--'
p576
sssS'2011'
p577
(dp578
g3
(dp579
g5
g221
sg7
g221
sg9
g221
sg11
g221
sg13
g221
sg15
S'Jerricho Cotchery'
p580
sg17
S'2011'
p581
sg19
S'11'
p582
sg21
g221
sg23
S'Bye'
p583
sg25
g221
sg27
g221
sg29
g221
sg31
g221
sg33
g221
sg35
g221
sg37
g221
sg39
g221
sg41
g221
sg42
g221
ssg44
(dp584
g5
S'--'
p585
sg7
S'--'
p586
sg9
g10
sg11
S'--'
p587
sg13
g14
sg15
S'Jerricho Cotchery'
p588
sg17
S'2011'
p589
sg19
S'10'
p590
sg21
S'--'
p591
sg23
S'11/13'
p592
sg25
S'14.5'
p593
sg27
S'--'
p594
sg29
S'--'
p595
sg31
S'W24-17'
p596
sg33
S'29'
p597
sg35
g59
sg37
S'@CIN'
p598
sg39
S'16T'
p599
sg41
g14
sg42
S'--'
p600
ssg63
(dp601
g5
S'--'
p602
sg7
S'--'
p603
sg9
g10
sg11
S'--'
p604
sg13
g14
sg15
S'Jerricho Cotchery'
p605
sg17
S'2011'
p606
sg19
S'13'
p607
sg21
S'--'
p608
sg23
S'12/04'
p609
sg25
S'--'
p610
sg27
S'--'
p611
sg29
S'--'
p612
sg31
S'W35-7'
p613
sg33
S'--'
p614
sg35
S'--'
p615
sg37
S'CIN'
p616
sg39
S'--'
p617
sg41
S'--'
p618
sg42
S'--'
p619
ssg82
(dp620
g5
S'--'
p621
sg7
S'--'
p622
sg9
g10
sg11
S'--'
p623
sg13
g14
sg15
S'Jerricho Cotchery'
p624
sg17
S'2011'
p625
sg19
S'12'
p626
sg21
S'--'
p627
sg23
S'11/27'
p628
sg25
S'--'
p629
sg27
S'--'
p630
sg29
S'--'
p631
sg31
S'W13-9'
p632
sg33
g10
sg35
g10
sg37
S'@KC'
p633
sg39
S'--'
p634
sg41
g10
sg42
S'--'
p635
ssg101
(dp636
g5
S'--'
p637
sg7
S'--'
p638
sg9
g10
sg11
S'--'
p639
sg13
g14
sg15
S'Jerricho Cotchery'
p640
sg17
S'2011'
p641
sg19
S'15'
p642
sg21
S'--'
p643
sg23
S'12/19'
p644
sg25
S'18.6'
p645
sg27
S'--'
p646
sg29
S'--'
p647
sg31
S'L3-20'
p648
sg33
S'93'
p649
sg35
g97
sg37
S'@SF'
p650
sg39
S'36'
p651
sg41
g10
sg42
S'--'
p652
ssg119
(dp653
g5
S'--'
p654
sg7
S'--'
p655
sg9
g10
sg11
S'--'
p656
sg13
g14
sg15
S'Jerricho Cotchery'
p657
sg17
S'2011'
p658
sg19
S'14'
p659
sg21
S'--'
p660
sg23
S'12/08'
p661
sg25
S'16.5'
p662
sg27
S'--'
p663
sg29
S'--'
p664
sg31
S'W14-3'
p665
sg33
S'33'
p666
sg35
g59
sg37
S'CLE'
p667
sg39
S'22'
p668
sg41
g14
sg42
S'--'
p669
ssg136
(dp670
g5
S'--'
p671
sg7
S'--'
p672
sg9
g10
sg11
S'--'
p673
sg13
g14
sg15
S'Jerricho Cotchery'
p674
sg17
S'2011'
p675
sg19
S'17'
p676
sg21
S'--'
p677
sg23
S'01/01'
p678
sg25
S'9.3'
p679
sg27
S'--'
p680
sg29
S'--'
p681
sg31
S'W13-9'
p682
sg33
S'28'
p683
sg35
g78
sg37
S'@CLE'
p684
sg39
S'11'
p685
sg41
g10
sg42
S'--'
p686
ssg154
(dp687
g5
S'--'
p688
sg7
S'--'
p689
sg9
g10
sg11
S'--'
p690
sg13
g14
sg15
S'Jerricho Cotchery'
p691
sg17
S'2011'
p692
sg19
S'16'
p693
sg21
S'--'
p694
sg23
S'12/24'
p695
sg25
S'--'
p696
sg27
S'--'
p697
sg29
S'--'
p698
sg31
S'W27-0'
p699
sg33
S'--'
p700
sg35
S'--'
p701
sg37
S'STL'
p702
sg39
S'--'
p703
sg41
S'--'
p704
sg42
S'--'
p705
ssg14
(dp706
g5
S'--'
p707
sg7
S'--'
p708
sg9
g10
sg11
S'--'
p709
sg13
g10
sg15
S'Jerricho Cotchery'
p710
sg17
S'2011'
p711
sg19
g14
sg21
S'--'
p712
sg23
S'09/11'
p713
sg25
S'--'
p714
sg27
S'--'
p715
sg29
S'--'
p716
sg31
S'L7-35'
p717
sg33
S'--'
p718
sg35
S'--'
p719
sg37
S'@BAL'
p720
sg39
S'--'
p721
sg41
S'--'
p722
sg42
S'--'
p723
ssg78
(dp724
g5
S'--'
p725
sg7
S'--'
p726
sg9
g10
sg11
S'--'
p727
sg13
g10
sg15
S'Jerricho Cotchery'
p728
sg17
S'2011'
p729
sg19
g78
sg21
S'--'
p730
sg23
S'09/25'
p731
sg25
S'--'
p732
sg27
S'--'
p733
sg29
S'--'
p734
sg31
S'W23-20'
p735
sg33
S'--'
p736
sg35
S'--'
p737
sg37
S'@IND'
p738
sg39
S'--'
p739
sg41
S'--'
p740
sg42
S'--'
p741
ssg59
(dp742
g5
S'--'
p743
sg7
S'--'
p744
sg9
g10
sg11
S'--'
p745
sg13
g10
sg15
S'Jerricho Cotchery'
p746
sg17
S'2011'
p747
sg19
g59
sg21
S'--'
p748
sg23
S'09/18'
p749
sg25
S'--'
p750
sg27
S'--'
p751
sg29
S'--'
p752
sg31
S'W24-0'
p753
sg33
S'--'
p754
sg35
S'--'
p755
sg37
S'SEA'
p756
sg39
S'--'
p757
sg41
S'--'
p758
sg42
S'--'
p759
ssg97
(dp760
g5
S'--'
p761
sg7
S'--'
p762
sg9
g10
sg11
S'--'
p763
sg13
g14
sg15
S'Jerricho Cotchery'
p764
sg17
S'2011'
p765
sg19
g97
sg21
S'--'
p766
sg23
S'10/09'
p767
sg25
S'--'
p768
sg27
S'--'
p769
sg29
S'--'
p770
sg31
S'W38-17'
p771
sg33
g10
sg35
g10
sg37
S'TEN'
p772
sg39
S'--'
p773
sg41
g10
sg42
S'--'
p774
ssg36
(dp775
g5
S'--'
p776
sg7
S'--'
p777
sg9
g10
sg11
S'--'
p778
sg13
g14
sg15
S'Jerricho Cotchery'
p779
sg17
S'2011'
p780
sg19
g36
sg21
S'--'
p781
sg23
S'10/02'
p782
sg25
S'--'
p783
sg27
S'--'
p784
sg29
S'--'
p785
sg31
S'L10-17'
p786
sg33
g10
sg35
g10
sg37
S'@HOU'
p787
sg39
S'--'
p788
sg41
g10
sg42
S'--'
p789
ssg243
(dp790
g5
S'--'
p791
sg7
S'--'
p792
sg9
g10
sg11
S'--'
p793
sg13
g14
sg15
S'Jerricho Cotchery'
p794
sg17
S'2011'
p795
sg19
g243
sg21
S'--'
p796
sg23
S'10/23'
p797
sg25
S'--'
p798
sg27
S'--'
p799
sg29
S'--'
p800
sg31
S'W32-20'
p801
sg33
g10
sg35
g10
sg37
S'@ARI'
p802
sg39
S'--'
p803
sg41
g10
sg42
S'--'
p804
ssg58
(dp805
g5
S'--'
p806
sg7
S'--'
p807
sg9
g10
sg11
S'--'
p808
sg13
g14
sg15
S'Jerricho Cotchery'
p809
sg17
S'2011'
p810
sg19
g58
sg21
S'--'
p811
sg23
S'10/16'
p812
sg25
S'--'
p813
sg27
S'--'
p814
sg29
S'--'
p815
sg31
S'W17-13'
p816
sg33
S'--'
p817
sg35
S'--'
p818
sg37
S'JAC'
p819
sg39
S'--'
p820
sg41
S'--'
p821
sg42
S'--'
p822
ssg276
(dp823
g5
g10
sg7
g78
sg9
g10
sg11
S'--'
p824
sg13
g14
sg15
S'Jerricho Cotchery'
p825
sg17
S'2011'
p826
sg19
g276
sg21
S'3.0'
p827
sg23
S'11/06'
p828
sg25
S'14.7'
p829
sg27
S'--'
p830
sg29
g14
sg31
S'L20-23'
p831
sg33
S'44'
p832
sg35
g78
sg37
S'BAL'
p833
sg39
S'17'
p834
sg41
g10
sg42
g78
ssg61
(dp835
g5
S'--'
p836
sg7
S'--'
p837
sg9
g10
sg11
S'--'
p838
sg13
g14
sg15
S'Jerricho Cotchery'
p839
sg17
S'2011'
p840
sg19
g61
sg21
S'--'
p841
sg23
S'10/30'
p842
sg25
S'10.0'
p843
sg27
S'--'
p844
sg29
S'--'
p845
sg31
S'W25-17'
p846
sg33
S'10'
p847
sg35
g14
sg37
S'NE'
p848
sg39
S'10'
p849
sg41
g10
sg42
S'--'
p850
sssS'2010'
p851
(dp852
g3
(dp853
g5
S'--'
p854
sg7
S'--'
p855
sg9
g10
sg11
S'--'
p856
sg13
g10
sg15
S'Jerricho Cotchery'
p857
sg17
S'2010'
p858
sg19
S'11'
p859
sg21
S'--'
p860
sg23
S'11/21'
p861
sg25
S'--'
p862
sg27
S'--'
p863
sg29
S'--'
p864
sg31
S'W30-27'
p865
sg33
S'--'
p866
sg35
S'--'
p867
sg37
S'HOU'
p868
sg39
S'--'
p869
sg41
S'--'
p870
sg42
S'--'
p871
ssg44
(dp872
g5
S'--'
p873
sg7
S'--'
p874
sg9
g10
sg11
S'--'
p875
sg13
g14
sg15
S'Jerricho Cotchery'
p876
sg17
S'2010'
p877
sg19
S'10'
p878
sg21
S'--'
p879
sg23
S'11/14'
p880
sg25
S'14.3'
p881
sg27
S'--'
p882
sg29
S'--'
p883
sg31
S'W26-20'
p884
sg33
S'43'
p885
sg35
g78
sg37
S'@CLE'
p886
sg39
S'25T'
p887
sg41
g14
sg42
S'--'
p888
ssg63
(dp889
g5
S'--'
p890
sg7
S'--'
p891
sg9
g14
sg11
S'--'
p892
sg13
g14
sg15
S'Jerricho Cotchery'
p893
sg17
S'2010'
p894
sg19
S'13'
p895
sg21
S'--'
p896
sg23
S'12/06'
p897
sg25
S'4.5'
p898
sg27
S'--'
p899
sg29
S'--'
p900
sg31
S'L3-45'
p901
sg33
g276
sg35
g59
sg37
S'@NE'
p902
sg39
g243
sg41
g10
sg42
S'--'
p903
ssg82
(dp904
g5
S'--'
p905
sg7
S'--'
p906
sg9
g10
sg11
S'--'
p907
sg13
g10
sg15
S'Jerricho Cotchery'
p908
sg17
S'2010'
p909
sg19
S'12'
p910
sg21
S'--'
p911
sg23
S'11/25'
p912
sg25
S'--'
p913
sg27
S'--'
p914
sg29
S'--'
p915
sg31
S'W26-10'
p916
sg33
S'--'
p917
sg35
S'--'
p918
sg37
S'CIN'
p919
sg39
S'--'
p920
sg41
S'--'
p921
sg42
S'--'
p922
ssg101
(dp923
g5
S'--'
p924
sg7
S'--'
p925
sg9
g10
sg11
S'--'
p926
sg13
g14
sg15
S'Jerricho Cotchery'
p927
sg17
S'2010'
p928
sg19
S'15'
p929
sg21
S'--'
p930
sg23
S'12/19'
p931
sg25
S'--'
p932
sg27
S'--'
p933
sg29
S'--'
p934
sg31
S'W22-17'
p935
sg33
g10
sg35
g10
sg37
S'@PIT'
p936
sg39
S'--'
p937
sg41
g10
sg42
S'--'
p938
ssg119
(dp939
g5
S'--'
p940
sg7
S'--'
p941
sg9
g10
sg11
S'--'
p942
sg13
g14
sg15
S'Jerricho Cotchery'
p943
sg17
S'2010'
p944
sg19
S'14'
p945
sg21
S'--'
p946
sg23
S'12/12'
p947
sg25
S'13.8'
p948
sg27
S'--'
p949
sg29
S'--'
p950
sg31
S'L6-10'
p951
sg33
S'69'
p952
sg35
g97
sg37
S'MIA'
p953
sg39
S'16'
p954
sg41
g10
sg42
S'--'
p955
ssg136
(dp956
g5
g10
sg7
S'-1'
p957
sg9
g10
sg11
S'--'
p958
sg13
g14
sg15
S'Jerricho Cotchery'
p959
sg17
S'2010'
p960
sg19
S'17'
p961
sg21
S'-1.0'
p962
sg23
S'01/02'
p963
sg25
S'10.7'
p964
sg27
S'--'
p965
sg29
g14
sg31
S'W38-7'
p966
sg33
S'32'
p967
sg35
g78
sg37
S'BUF'
p968
sg39
S'18'
p969
sg41
g10
sg42
S'-1'
p970
ssg154
(dp971
g5
S'--'
p972
sg7
S'--'
p973
sg9
g10
sg11
S'--'
p974
sg13
g14
sg15
S'Jerricho Cotchery'
p975
sg17
S'2010'
p976
sg19
S'16'
p977
sg21
S'--'
p978
sg23
S'12/26'
p979
sg25
S'4.0'
p980
sg27
S'--'
p981
sg29
S'--'
p982
sg31
S'L34-38'
p983
sg33
g61
sg35
g59
sg37
S'@CHI'
p984
sg39
g61
sg41
g10
sg42
S'--'
p985
ssg14
(dp986
g5
S'--'
p987
sg7
S'--'
p988
sg9
g14
sg11
S'--'
p989
sg13
g14
sg15
S'Jerricho Cotchery'
p990
sg17
S'2010'
p991
sg19
g14
sg21
S'--'
p992
sg23
S'09/13'
p993
sg25
S'9.0'
p994
sg27
S'--'
p995
sg29
S'--'
p996
sg31
S'L9-10'
p997
sg33
S'18'
p998
sg35
g59
sg37
S'BAL'
p999
sg39
S'13'
p1000
sg41
g10
sg42
S'--'
p1001
ssg78
(dp1002
g5
S'--'
p1003
sg7
S'--'
p1004
sg9
g14
sg11
S'--'
p1005
sg13
g14
sg15
S'Jerricho Cotchery'
p1006
sg17
S'2010'
p1007
sg19
g78
sg21
S'--'
p1008
sg23
S'09/26'
p1009
sg25
S'10.0'
p1010
sg27
S'--'
p1011
sg29
S'--'
p1012
sg31
S'W31-23'
p1013
sg33
S'20'
p1014
sg35
g59
sg37
S'@MIA'
p1015
sg39
S'13'
p1016
sg41
g10
sg42
S'--'
p1017
ssg59
(dp1018
g5
g10
sg7
g58
sg9
g14
sg11
S'--'
p1019
sg13
g14
sg15
S'Jerricho Cotchery'
p1020
sg17
S'2010'
p1021
sg19
g59
sg21
S'3.0'
p1022
sg23
S'09/19'
p1023
sg25
S'6.5'
p1024
sg27
S'--'
p1025
sg29
g59
sg31
S'W28-14'
p1026
sg33
S'26'
p1027
sg35
g36
sg37
S'NE'
p1028
sg39
S'11'
p1029
sg41
g14
sg42
g36
ssg97
(dp1030
g5
S'--'
p1031
sg7
S'--'
p1032
sg9
g14
sg11
S'--'
p1033
sg13
g14
sg15
S'Jerricho Cotchery'
p1034
sg17
S'2010'
p1035
sg19
g97
sg21
S'--'
p1036
sg23
S'10/11'
p1037
sg25
S'9.2'
p1038
sg27
S'--'
p1039
sg29
S'--'
p1040
sg31
S'W29-20'
p1041
sg33
S'46'
p1042
sg35
g97
sg37
S'MIN'
p1043
sg39
S'14'
p1044
sg41
g10
sg42
S'--'
p1045
ssg36
(dp1046
g5
S'--'
p1047
sg7
S'--'
p1048
sg9
g10
sg11
S'--'
p1049
sg13
g14
sg15
S'Jerricho Cotchery'
p1050
sg17
S'2010'
p1051
sg19
g36
sg21
S'--'
p1052
sg23
S'10/03'
p1053
sg25
S'8.7'
p1054
sg27
S'--'
p1055
sg29
S'--'
p1056
sg31
S'W38-14'
p1057
sg33
S'26'
p1058
sg35
g78
sg37
S'@BUF'
p1059
sg39
S'14'
p1060
sg41
g10
sg42
S'--'
p1061
ssg243
(dp1062
g5
g221
sg7
g221
sg9
g221
sg11
g221
sg13
g221
sg15
S'Jerricho Cotchery'
p1063
sg17
S'2010'
p1064
sg19
g243
sg21
g221
sg23
S'Bye'
p1065
sg25
g221
sg27
g221
sg29
g221
sg31
g221
sg33
g221
sg35
g221
sg37
g221
sg39
g221
sg41
g221
sg42
g221
ssg58
(dp1066
g5
S'--'
p1067
sg7
S'--'
p1068
sg9
g10
sg11
S'--'
p1069
sg13
g14
sg15
S'Jerricho Cotchery'
p1070
sg17
S'2010'
p1071
sg19
g58
sg21
S'--'
p1072
sg23
S'10/17'
p1073
sg25
S'4.5'
p1074
sg27
S'--'
p1075
sg29
S'--'
p1076
sg31
S'W24-20'
p1077
sg33
S'18'
p1078
sg35
g36
sg37
S'@DEN'
p1079
sg39
g61
sg41
g10
sg42
S'--'
p1080
ssg276
(dp1081
g5
S'--'
p1082
sg7
S'--'
p1083
sg9
g10
sg11
S'--'
p1084
sg13
g14
sg15
S'Jerricho Cotchery'
p1085
sg17
S'2010'
p1086
sg19
g276
sg21
S'--'
p1087
sg23
S'11/07'
p1088
sg25
S'14.5'
p1089
sg27
S'--'
p1090
sg29
S'--'
p1091
sg31
S'W23-20'
p1092
sg33
S'29'
p1093
sg35
g59
sg37
S'@DET'
p1094
sg39
S'18'
p1095
sg41
g10
sg42
S'--'
p1096
ssg61
(dp1097
g5
g10
sg7
S'-8'
p1098
sg9
g10
sg11
S'--'
p1099
sg13
g14
sg15
S'Jerricho Cotchery'
p1100
sg17
S'2010'
p1101
sg19
g61
sg21
S'-8.0'
p1102
sg23
S'10/31'
p1103
sg25
S'22.3'
p1104
sg27
S'--'
p1105
sg29
g14
sg31
S'L0-9'
p1106
sg33
S'89'
p1107
sg35
g36
sg37
S'GB'
p1108
sg39
S'49'
p1109
sg41
g10
sg42
S'-8'
p1110
sssS'2013'
p1111
(dp1112
g3
(dp1113
g5
S'--'
p1114
sg7
S'--'
p1115
sg9
g14
sg11
S'--'
p1116
sg13
g14
sg15
S'Jerricho Cotchery'
p1117
sg17
S'2013'
p1118
sg19
S'11'
p1119
sg21
S'--'
p1120
sg23
S'11/17'
p1121
sg25
S'16.0'
p1122
sg27
S'--'
p1123
sg29
S'--'
p1124
sg31
S'W37-27'
p1125
sg33
S'48'
p1126
sg35
g78
sg37
S'DET'
p1127
sg39
S'20T'
p1128
sg41
g14
sg42
S'--'
p1129
ssg44
(dp1130
g5
S'--'
p1131
sg7
S'--'
p1132
sg9
g10
sg11
S'--'
p1133
sg13
g14
sg15
S'Jerricho Cotchery'
p1134
sg17
S'2013'
p1135
sg19
S'10'
p1136
sg21
S'--'
p1137
sg23
S'11/10'
p1138
sg25
S'15.5'
p1139
sg27
S'--'
p1140
sg29
S'--'
p1141
sg31
S'W23-10'
p1142
sg33
S'31'
p1143
sg35
g59
sg37
S'BUF'
p1144
sg39
S'26'
p1145
sg41
g14
sg42
S'--'
p1146
ssg63
(dp1147
g5
S'--'
p1148
sg7
S'--'
p1149
sg9
g14
sg11
S'--'
p1150
sg13
g14
sg15
S'Jerricho Cotchery'
p1151
sg17
S'2013'
p1152
sg19
S'13'
p1153
sg21
S'--'
p1154
sg23
S'11/28'
p1155
sg25
S'3.0'
p1156
sg27
S'--'
p1157
sg29
S'--'
p1158
sg31
S'L20-22'
p1159
sg33
g58
sg35
g59
sg37
S'@BAL'
p1160
sg39
g97
sg41
g14
sg42
S'--'
p1161
ssg82
(dp1162
g5
S'--'
p1163
sg7
S'--'
p1164
sg9
g10
sg11
S'--'
p1165
sg13
g14
sg15
S'Jerricho Cotchery'
p1166
sg17
S'2013'
p1167
sg19
S'12'
p1168
sg21
S'--'
p1169
sg23
S'11/24'
p1170
sg25
S'--'
p1171
sg27
S'--'
p1172
sg29
S'--'
p1173
sg31
S'W27-11'
p1174
sg33
g10
sg35
g10
sg37
S'@CLE'
p1175
sg39
S'--'
p1176
sg41
g10
sg42
S'--'
p1177
ssg101
(dp1178
g5
S'--'
p1179
sg7
S'--'
p1180
sg9
g14
sg11
S'--'
p1181
sg13
g14
sg15
S'Jerricho Cotchery'
p1182
sg17
S'2013'
p1183
sg19
S'15'
p1184
sg21
S'--'
p1185
sg23
S'12/15'
p1186
sg25
S'2.0'
p1187
sg27
S'--'
p1188
sg29
S'--'
p1189
sg31
S'W30-20'
p1190
sg33
g59
sg35
g14
sg37
S'CIN'
p1191
sg39
g59
sg41
g10
sg42
S'--'
p1192
ssg119
(dp1193
g5
S'--'
p1194
sg7
S'--'
p1195
sg9
g14
sg11
S'--'
p1196
sg13
g14
sg15
S'Jerricho Cotchery'
p1197
sg17
S'2013'
p1198
sg19
S'14'
p1199
sg21
S'--'
p1200
sg23
S'12/08'
p1201
sg25
S'11.4'
p1202
sg27
S'--'
p1203
sg29
S'--'
p1204
sg31
S'L28-34'
p1205
sg33
S'57'
p1206
sg35
g97
sg37
S'MIA'
p1207
sg39
S'19'
p1208
sg41
g14
sg42
S'--'
p1209
ssg136
(dp1210
g5
S'--'
p1211
sg7
S'--'
p1212
sg9
g14
sg11
S'--'
p1213
sg13
g14
sg15
S'Jerricho Cotchery'
p1214
sg17
S'2013'
p1215
sg19
S'17'
p1216
sg21
S'--'
p1217
sg23
S'12/29'
p1218
sg25
S'8.3'
p1219
sg27
S'--'
p1220
sg29
S'--'
p1221
sg31
S'W20-7'
p1222
sg33
S'25'
p1223
sg35
g78
sg37
S'CLE'
p1224
sg39
S'12'
p1225
sg41
g14
sg42
S'--'
p1226
ssg154
(dp1227
g5
S'--'
p1228
sg7
S'--'
p1229
sg9
g10
sg11
S'--'
p1230
sg13
g14
sg15
S'Jerricho Cotchery'
p1231
sg17
S'2013'
p1232
sg19
S'16'
p1233
sg21
S'--'
p1234
sg23
S'12/22'
p1235
sg25
S'9.0'
p1236
sg27
S'--'
p1237
sg29
S'--'
p1238
sg31
S'W38-31'
p1239
sg33
g276
sg35
g14
sg37
S'@GB'
p1240
sg39
g276
sg41
g10
sg42
S'--'
p1241
ssg14
(dp1242
g5
S'--'
p1243
sg7
S'--'
p1244
sg9
g10
sg11
S'--'
p1245
sg13
g14
sg15
S'Jerricho Cotchery'
p1246
sg17
S'2013'
p1247
sg19
g14
sg21
S'--'
p1248
sg23
S'09/08'
p1249
sg25
S'8.5'
p1250
sg27
S'--'
p1251
sg29
S'--'
p1252
sg31
S'L9-16'
p1253
sg33
S'34'
p1254
sg35
g36
sg37
S'TEN'
p1255
sg39
S'11'
p1256
sg41
g14
sg42
S'--'
p1257
ssg78
(dp1258
g5
S'--'
p1259
sg7
S'--'
p1260
sg9
g10
sg11
S'--'
p1261
sg13
g14
sg15
S'Jerricho Cotchery'
p1262
sg17
S'2013'
p1263
sg19
g78
sg21
S'--'
p1264
sg23
S'09/22'
p1265
sg25
S'17.3'
p1266
sg27
S'--'
p1267
sg29
S'--'
p1268
sg31
S'L23-40'
p1269
sg33
S'52'
p1270
sg35
g78
sg37
S'CHI'
p1271
sg39
S'26'
p1272
sg41
g10
sg42
S'--'
p1273
ssg59
(dp1274
g5
g10
sg7
S'-5'
p1275
sg9
g14
sg11
S'--'
p1276
sg13
g14
sg15
S'Jerricho Cotchery'
p1277
sg17
S'2013'
p1278
sg19
g59
sg21
S'-5.0'
p1279
sg23
S'09/16'
p1280
sg25
S'19.7'
p1281
sg27
S'--'
p1282
sg29
g14
sg31
S'L10-20'
p1283
sg33
S'59'
p1284
sg35
g78
sg37
S'@CIN'
p1285
sg39
S'31'
p1286
sg41
g10
sg42
S'-5'
p1287
ssg97
(dp1288
g5
g221
sg7
g221
sg9
g221
sg11
g221
sg13
g221
sg15
S'Jerricho Cotchery'
p1289
sg17
S'2013'
p1290
sg19
g97
sg21
g221
sg23
S'Bye'
p1291
sg25
g221
sg27
g221
sg29
g221
sg31
g221
sg33
g221
sg35
g221
sg37
g221
sg39
g221
sg41
g221
sg42
g221
ssg36
(dp1292
g5
S'--'
p1293
sg7
S'--'
p1294
sg9
g10
sg11
S'--'
p1295
sg13
g14
sg15
S'Jerricho Cotchery'
p1296
sg17
S'2013'
p1297
sg19
g36
sg21
S'--'
p1298
sg23
S'09/29'
p1299
sg25
S'20.6'
p1300
sg27
S'--'
p1301
sg29
S'--'
p1302
sg31
S'L27-34'
p1303
sg33
S'103'
p1304
sg35
g97
sg37
S'@MIN'
p1305
sg39
S'36'
p1306
sg41
g14
sg42
S'--'
p1307
ssg243
(dp1308
g5
S'--'
p1309
sg7
S'--'
p1310
sg9
g10
sg11
S'--'
p1311
sg13
g14
sg15
S'Jerricho Cotchery'
p1312
sg17
S'2013'
p1313
sg19
g243
sg21
S'--'
p1314
sg23
S'10/20'
p1315
sg25
S'10.3'
p1316
sg27
S'--'
p1317
sg29
S'--'
p1318
sg31
S'W19-16'
p1319
sg33
S'41'
p1320
sg35
g36
sg37
S'BAL'
p1321
sg39
S'19'
p1322
sg41
g10
sg42
S'--'
p1323
ssg58
(dp1324
g5
S'--'
p1325
sg7
S'--'
p1326
sg9
g10
sg11
S'--'
p1327
sg13
g14
sg15
S'Jerricho Cotchery'
p1328
sg17
S'2013'
p1329
sg19
g58
sg21
S'--'
p1330
sg23
S'10/13'
p1331
sg25
S'--'
p1332
sg27
S'--'
p1333
sg29
S'--'
p1334
sg31
S'W19-6'
p1335
sg33
S'--'
p1336
sg35
S'--'
p1337
sg37
S'@NYJ'
p1338
sg39
S'--'
p1339
sg41
S'--'
p1340
sg42
S'--'
p1341
ssg276
(dp1342
g5
S'--'
p1343
sg7
S'--'
p1344
sg9
g10
sg11
S'--'
p1345
sg13
g14
sg15
S'Jerricho Cotchery'
p1346
sg17
S'2013'
p1347
sg19
g276
sg21
S'--'
p1348
sg23
S'11/03'
p1349
sg25
S'13.7'
p1350
sg27
S'--'
p1351
sg29
S'--'
p1352
sg31
S'L31-55'
p1353
sg33
S'96'
p1354
sg35
g243
sg37
S'@NE'
p1355
sg39
S'20T'
p1356
sg41
g78
sg42
S'--'
p1357
ssg61
(dp1358
g5
S'--'
p1359
sg7
S'--'
p1360
sg9
g10
sg11
S'--'
p1361
sg13
g14
sg15
S'Jerricho Cotchery'
p1362
sg17
S'2013'
p1363
sg19
g61
sg21
S'--'
p1364
sg23
S'10/27'
p1365
sg25
S'13.0'
p1366
sg27
S'--'
p1367
sg29
S'--'
p1368
sg31
S'L18-21'
p1369
sg33
S'39'
p1370
sg35
g78
sg37
S'@OAK'
p1371
sg39
S'17'
p1372
sg41
g10
sg42
S'--'
p1373
sssS'2012'
p1374
(dp1375
g3
(dp1376
g5
S'--'
p1377
sg7
S'--'
p1378
sg9
g10
sg11
S'--'
p1379
sg13
g14
sg15
S'Jerricho Cotchery'
p1380
sg17
S'2012'
p1381
sg19
S'11'
p1382
sg21
S'--'
p1383
sg23
S'11/18'
p1384
sg25
S'11.0'
p1385
sg27
S'--'
p1386
sg29
S'--'
p1387
sg31
S'L10-13'
p1388
sg33
S'22'
p1389
sg35
g59
sg37
S'BAL'
p1390
sg39
S'11'
p1391
sg41
g10
sg42
S'--'
p1392
ssg44
(dp1393
g5
S'--'
p1394
sg7
S'--'
p1395
sg9
g10
sg11
S'--'
p1396
sg13
g14
sg15
S'Jerricho Cotchery'
p1397
sg17
S'2012'
p1398
sg19
S'10'
p1399
sg21
S'--'
p1400
sg23
S'11/12'
p1401
sg25
S'22.0'
p1402
sg27
S'--'
p1403
sg29
S'--'
p1404
sg31
S'W16-13'
p1405
sg33
S'22'
p1406
sg35
g14
sg37
S'KC'
p1407
sg39
S'22'
p1408
sg41
g10
sg42
S'--'
p1409
ssg63
(dp1410
g5
S'--'
p1411
sg7
S'--'
p1412
sg9
g10
sg11
S'--'
p1413
sg13
g10
sg15
S'Jerricho Cotchery'
p1414
sg17
S'2012'
p1415
sg19
S'13'
p1416
sg21
S'--'
p1417
sg23
S'12/02'
p1418
sg25
S'--'
p1419
sg27
S'--'
p1420
sg29
S'--'
p1421
sg31
S'W23-20'
p1422
sg33
S'--'
p1423
sg35
S'--'
p1424
sg37
S'@BAL'
p1425
sg39
S'--'
p1426
sg41
S'--'
p1427
sg42
S'--'
p1428
ssg82
(dp1429
g5
S'--'
p1430
sg7
S'--'
p1431
sg9
g10
sg11
S'--'
p1432
sg13
g10
sg15
S'Jerricho Cotchery'
p1433
sg17
S'2012'
p1434
sg19
S'12'
p1435
sg21
S'--'
p1436
sg23
S'11/25'
p1437
sg25
S'--'
p1438
sg27
S'--'
p1439
sg29
S'--'
p1440
sg31
S'L14-20'
p1441
sg33
S'--'
p1442
sg35
S'--'
p1443
sg37
S'@CLE'
p1444
sg39
S'--'
p1445
sg41
S'--'
p1446
sg42
S'--'
p1447
ssg101
(dp1448
g5
S'--'
p1449
sg7
S'--'
p1450
sg9
g10
sg11
S'--'
p1451
sg13
g14
sg15
S'Jerricho Cotchery'
p1452
sg17
S'2012'
p1453
sg19
S'15'
p1454
sg21
S'--'
p1455
sg23
S'12/16'
p1456
sg25
S'14.0'
p1457
sg27
S'--'
p1458
sg29
S'--'
p1459
sg31
S'L24-27'
p1460
sg33
S'28'
p1461
sg35
g59
sg37
S'@DAL'
p1462
sg39
S'21'
p1463
sg41
g10
sg42
S'--'
p1464
ssg119
(dp1465
g5
S'--'
p1466
sg7
S'--'
p1467
sg9
g10
sg11
S'--'
p1468
sg13
g14
sg15
S'Jerricho Cotchery'
p1469
sg17
S'2012'
p1470
sg19
S'14'
p1471
sg21
S'--'
p1472
sg23
S'12/09'
p1473
sg25
S'--'
p1474
sg27
S'--'
p1475
sg29
S'--'
p1476
sg31
S'L24-34'
p1477
sg33
g10
sg35
g10
sg37
S'SD'
p1478
sg39
S'--'
p1479
sg41
g10
sg42
S'--'
p1480
ssg136
(dp1481
g5
S'--'
p1482
sg7
S'--'
p1483
sg9
g14
sg11
S'--'
p1484
sg13
g14
sg15
S'Jerricho Cotchery'
p1485
sg17
S'2012'
p1486
sg19
S'17'
p1487
sg21
S'--'
p1488
sg23
S'12/30'
p1489
sg25
S'10.5'
p1490
sg27
S'--'
p1491
sg29
S'--'
p1492
sg31
S'W24-10'
p1493
sg33
S'21'
p1494
sg35
g59
sg37
S'CLE'
p1495
sg39
S'13'
p1496
sg41
g10
sg42
S'--'
p1497
ssg154
(dp1498
g5
S'--'
p1499
sg7
S'--'
p1500
sg9
g14
sg11
S'--'
p1501
sg13
g14
sg15
S'Jerricho Cotchery'
p1502
sg17
S'2012'
p1503
sg19
S'16'
p1504
sg21
S'--'
p1505
sg23
S'12/23'
p1506
sg25
S'10.0'
p1507
sg27
S'--'
p1508
sg29
S'--'
p1509
sg31
S'L10-13'
p1510
sg33
S'20'
p1511
sg35
g59
sg37
S'CIN'
p1512
sg39
S'14'
p1513
sg41
g10
sg42
S'--'
p1514
ssg14
(dp1515
g5
S'--'
p1516
sg7
S'--'
p1517
sg9
g10
sg11
S'--'
p1518
sg13
g14
sg15
S'Jerricho Cotchery'
p1519
sg17
S'2012'
p1520
sg19
g14
sg21
S'--'
p1521
sg23
S'09/09'
p1522
sg25
S'--'
p1523
sg27
S'--'
p1524
sg29
S'--'
p1525
sg31
S'L19-31'
p1526
sg33
g10
sg35
g10
sg37
S'@DEN'
p1527
sg39
S'--'
p1528
sg41
g10
sg42
S'--'
p1529
ssg78
(dp1530
g5
S'--'
p1531
sg7
S'--'
p1532
sg9
g10
sg11
S'--'
p1533
sg13
g14
sg15
S'Jerricho Cotchery'
p1534
sg17
S'2012'
p1535
sg19
g78
sg21
S'--'
p1536
sg23
S'09/23'
p1537
sg25
S'9.0'
p1538
sg27
S'--'
p1539
sg29
S'--'
p1540
sg31
S'L31-34'
p1541
sg33
g276
sg35
g14
sg37
S'@OAK'
p1542
sg39
g276
sg41
g10
sg42
S'--'
p1543
ssg59
(dp1544
g5
S'--'
p1545
sg7
S'--'
p1546
sg9
g10
sg11
S'--'
p1547
sg13
g14
sg15
S'Jerricho Cotchery'
p1548
sg17
S'2012'
p1549
sg19
g59
sg21
S'--'
p1550
sg23
S'09/16'
p1551
sg25
S'6.0'
p1552
sg27
S'--'
p1553
sg29
S'--'
p1554
sg31
S'W27-10'
p1555
sg33
g58
sg35
g14
sg37
S'NYJ'
p1556
sg39
g58
sg41
g10
sg42
S'--'
p1557
ssg97
(dp1558
g5
S'--'
p1559
sg7
S'--'
p1560
sg9
g10
sg11
S'--'
p1561
sg13
g14
sg15
S'Jerricho Cotchery'
p1562
sg17
S'2012'
p1563
sg19
g97
sg21
S'--'
p1564
sg23
S'10/07'
p1565
sg25
S'7.0'
p1566
sg27
S'--'
p1567
sg29
S'--'
p1568
sg31
S'W16-14'
p1569
sg33
g243
sg35
g14
sg37
S'PHI'
p1570
sg39
g243
sg41
g10
sg42
S'--'
p1571
ssg36
(dp1572
g5
g221
sg7
g221
sg9
g221
sg11
g221
sg13
g221
sg15
S'Jerricho Cotchery'
p1573
sg17
S'2012'
p1574
sg19
g36
sg21
g221
sg23
S'Bye'
p1575
sg25
g221
sg27
g221
sg29
g221
sg31
g221
sg33
g221
sg35
g221
sg37
g221
sg39
g221
sg41
g221
sg42
g221
ssg243
(dp1576
g5
S'--'
p1577
sg7
S'--'
p1578
sg9
g10
sg11
S'--'
p1579
sg13
g14
sg15
S'Jerricho Cotchery'
p1580
sg17
S'2012'
p1581
sg19
g243
sg21
S'--'
p1582
sg23
S'10/21'
p1583
sg25
S'20.0'
p1584
sg27
S'--'
p1585
sg29
S'--'
p1586
sg31
S'W24-17'
p1587
sg33
S'20'
p1588
sg35
g14
sg37
S'@CIN'
p1589
sg39
S'20'
p1590
sg41
g10
sg42
S'--'
p1591
ssg58
(dp1592
g5
S'--'
p1593
sg7
S'--'
p1594
sg9
g10
sg11
S'--'
p1595
sg13
g14
sg15
S'Jerricho Cotchery'
p1596
sg17
S'2012'
p1597
sg19
g58
sg21
S'--'
p1598
sg23
S'10/11'
p1599
sg25
S'--'
p1600
sg27
S'--'
p1601
sg29
S'--'
p1602
sg31
S'L23-26'
p1603
sg33
S'--'
p1604
sg35
S'--'
p1605
sg37
S'@TEN'
p1606
sg39
S'--'
p1607
sg41
S'--'
p1608
sg42
S'--'
p1609
ssg276
(dp1610
g5
S'--'
p1611
sg7
S'--'
p1612
sg9
g10
sg11
S'--'
p1613
sg13
g14
sg15
S'Jerricho Cotchery'
p1614
sg17
S'2012'
p1615
sg19
g276
sg21
S'--'
p1616
sg23
S'11/04'
p1617
sg25
S'12.5'
p1618
sg27
S'--'
p1619
sg29
S'--'
p1620
sg31
S'W24-20'
p1621
sg33
S'50'
p1622
sg35
g36
sg37
S'@NYG'
p1623
sg39
S'24'
p1624
sg41
g10
sg42
S'--'
p1625
ssg61
(dp1626
g5
S'--'
p1627
sg7
S'--'
p1628
sg9
g10
sg11
S'--'
p1629
sg13
g14
sg15
S'Jerricho Cotchery'
p1630
sg17
S'2012'
p1631
sg19
g61
sg21
S'--'
p1632
sg23
S'10/28'
p1633
sg25
S'--'
p1634
sg27
S'--'
p1635
sg29
S'--'
p1636
sg31
S'W27-12'
p1637
sg33
S'--'
p1638
sg35
S'--'
p1639
sg37
S'WAS'
p1640
sg39
S'--'
p1641
sg41
S'--'
p1642
sg42
S'--'
p1643
sss.