(dp0
S'2015'
p1
(dp2
S'11'
p3
(dp4
S'RushTD'
p5
S'0'
p6
sS'RushYds'
p7
S'9'
p8
sS'GS'
p9
S'1'
p10
sS'Lost'
p11
S'--'
p12
sS'G'
p13
g10
sS'Player'
p14
S'John Brown'
p15
sS'Year'
p16
S'2015'
p17
sS'WK'
p18
S'11'
p19
sS'RushAvg'
p20
S'4.5'
p21
sS'Game Date'
p22
S'11/22'
p23
sS'RecAvg'
p24
S'14.3'
p25
sS'FUM'
p26
S'--'
p27
sS'RushAtt'
p28
S'2'
p29
sS'Result'
p30
S'W34-31'
p31
sS'RecYds'
p32
S'43'
p33
sS'Rec'
p34
S'3'
p35
sS'Opp'
p36
S'CIN'
p37
sS'RecLng'
p38
S'18T'
p39
sS'RecTD'
p40
g10
sS'RushLng'
p41
S'6'
p42
ssS'10'
p43
(dp44
g5
S'--'
p45
sg7
S'--'
p46
sg9
g10
sg11
S'--'
p47
sg13
g10
sg14
S'John Brown'
p48
sg16
S'2015'
p49
sg18
S'10'
p50
sg20
S'--'
p51
sg22
S'11/15'
p52
sg24
S'--'
p53
sg26
S'--'
p54
sg28
S'--'
p55
sg30
S'W39-32'
p56
sg32
g6
sg34
g6
sg36
S'@SEA'
p57
sg38
S'--'
p58
sg40
g6
sg41
S'--'
p59
ssS'13'
p60
(dp61
g5
S'--'
p62
sg7
S'--'
p63
sg9
g10
sg11
S'--'
p64
sg13
g10
sg14
S'John Brown'
p65
sg16
S'2015'
p66
sg18
S'13'
p67
sg20
S'--'
p68
sg22
S'12/06'
p69
sg24
S'18.8'
p70
sg26
S'--'
p71
sg28
S'--'
p72
sg30
S'W27-3'
p73
sg32
S'113'
p74
sg34
g42
sg36
S'@STL'
p75
sg38
S'68'
p76
sg40
g6
sg41
S'--'
p77
ssS'12'
p78
(dp79
g5
S'--'
p80
sg7
S'--'
p81
sg9
g6
sg11
S'--'
p82
sg13
g10
sg14
S'John Brown'
p83
sg16
S'2015'
p84
sg18
S'12'
p85
sg20
S'--'
p86
sg22
S'11/29'
p87
sg24
S'19.8'
p88
sg26
S'--'
p89
sg28
S'--'
p90
sg30
S'W19-13'
p91
sg32
S'99'
p92
sg34
S'5'
p93
sg36
S'@SF'
p94
sg38
S'48'
p95
sg40
g6
sg41
S'--'
p96
ssS'15'
p97
(dp98
g5
S'--'
p99
sg7
S'--'
p100
sg9
g10
sg11
S'--'
p101
sg13
g10
sg14
S'John Brown'
p102
sg16
S'2015'
p103
sg18
S'15'
p104
sg20
S'--'
p105
sg22
S'12/20'
p106
sg24
S'12.7'
p107
sg26
S'--'
p108
sg28
S'--'
p109
sg30
S'W40-17'
p110
sg32
S'38'
p111
sg34
g35
sg36
S'@PHI'
p112
sg38
S'19'
p113
sg40
g10
sg41
S'--'
p114
ssS'14'
p115
(dp116
g5
S'--'
p117
sg7
S'--'
p118
sg9
g6
sg11
S'--'
p119
sg13
g10
sg14
S'John Brown'
p120
sg16
S'2015'
p121
sg18
S'14'
p122
sg20
S'--'
p123
sg22
S'12/10'
p124
sg24
S'19.5'
p125
sg26
S'--'
p126
sg28
S'--'
p127
sg30
S'W23-20'
p128
sg32
S'78'
p129
sg34
S'4'
p130
sg36
S'MIN'
p131
sg38
S'65T'
p132
sg40
g10
sg41
S'--'
p133
ssS'17'
p134
(dp135
g5
S'--'
p136
sg7
S'--'
p137
sg9
g10
sg11
S'--'
p138
sg13
g10
sg14
S'John Brown'
p139
sg16
S'2015'
p140
sg18
S'17'
p141
sg20
S'--'
p142
sg22
S'01/03'
p143
sg24
S'11.3'
p144
sg26
S'--'
p145
sg28
S'--'
p146
sg30
S'L6-36'
p147
sg32
S'45'
p148
sg34
g130
sg36
S'SEA'
p149
sg38
S'14'
p150
sg40
g6
sg41
S'--'
p151
ssS'16'
p152
(dp153
g5
S'--'
p154
sg7
S'--'
p155
sg9
g10
sg11
S'--'
p156
sg13
g10
sg14
S'John Brown'
p157
sg16
S'2015'
p158
sg18
S'16'
p159
sg20
S'--'
p160
sg22
S'12/27'
p161
sg24
S'8.3'
p162
sg26
S'--'
p163
sg28
S'--'
p164
sg30
S'W38-8'
p165
sg32
S'25'
p166
sg34
g35
sg36
S'GB'
p167
sg38
S'14'
p168
sg40
g10
sg41
S'--'
p169
ssg10
(dp170
g5
S'--'
p171
sg7
S'--'
p172
sg9
g10
sg11
S'--'
p173
sg13
g10
sg14
S'John Brown'
p174
sg16
S'2015'
p175
sg18
g10
sg20
S'--'
p176
sg22
S'09/13'
p177
sg24
S'11.5'
p178
sg26
S'--'
p179
sg28
S'--'
p180
sg30
S'W31-19'
p181
sg32
S'46'
p182
sg34
g130
sg36
S'NO'
p183
sg38
S'14'
p184
sg40
g10
sg41
S'--'
p185
ssg35
(dp186
g5
S'--'
p187
sg7
S'--'
p188
sg9
g10
sg11
S'--'
p189
sg13
g10
sg14
S'John Brown'
p190
sg16
S'2015'
p191
sg18
g35
sg20
S'--'
p192
sg22
S'09/27'
p193
sg24
S'20.7'
p194
sg26
S'--'
p195
sg28
S'--'
p196
sg30
S'W47-7'
p197
sg32
S'62'
p198
sg34
g35
sg36
S'SF'
p199
sg38
S'27'
p200
sg40
g6
sg41
S'--'
p201
ssg29
(dp202
g5
S'--'
p203
sg7
S'--'
p204
sg9
g10
sg11
S'--'
p205
sg13
g10
sg14
S'John Brown'
p206
sg16
S'2015'
p207
sg18
g29
sg20
S'--'
p208
sg22
S'09/20'
p209
sg24
S'9.0'
p210
sg26
S'--'
p211
sg28
S'--'
p212
sg30
S'W48-23'
p213
sg32
S'45'
p214
sg34
g93
sg36
S'@CHI'
p215
sg38
S'13'
p216
sg40
g6
sg41
S'--'
p217
ssg93
(dp218
g5
S'--'
p219
sg7
S'--'
p220
sg9
g10
sg11
S'--'
p221
sg13
g10
sg14
S'John Brown'
p222
sg16
S'2015'
p223
sg18
g93
sg20
S'--'
p224
sg22
S'10/11'
p225
sg24
S'18.3'
p226
sg26
S'--'
p227
sg28
S'--'
p228
sg30
S'W42-17'
p229
sg32
S'73'
p230
sg34
g130
sg36
S'@DET'
p231
sg38
S'49'
p232
sg40
g10
sg41
S'--'
p233
ssg130
(dp234
g5
g6
sg7
S'13'
p235
sg9
g6
sg11
S'--'
p236
sg13
g10
sg14
S'John Brown'
p237
sg16
S'2015'
p238
sg18
g130
sg20
S'13.0'
p239
sg22
S'10/04'
p240
sg24
S'10.7'
p241
sg26
S'--'
p242
sg28
g10
sg30
S'L22-24'
p243
sg32
S'75'
p244
sg34
S'7'
p245
sg36
S'STL'
p246
sg38
S'14'
p247
sg40
g6
sg41
S'13'
p248
ssg245
(dp249
g5
S'--'
p250
sg7
S'--'
p251
sg9
g6
sg11
S'--'
p252
sg13
g10
sg14
S'John Brown'
p253
sg16
S'2015'
p254
sg18
g245
sg20
S'--'
p255
sg22
S'10/26'
p256
sg24
S'16.3'
p257
sg26
S'--'
p258
sg28
S'--'
p259
sg30
S'W26-18'
p260
sg32
S'65'
p261
sg34
g130
sg36
S'BAL'
p262
sg38
S'35'
p263
sg40
g10
sg41
S'--'
p264
ssg42
(dp265
g5
S'--'
p266
sg7
S'--'
p267
sg9
g10
sg11
g10
sg13
g10
sg14
S'John Brown'
p268
sg16
S'2015'
p269
sg18
g42
sg20
S'--'
p270
sg22
S'10/18'
p271
sg24
S'19.6'
p272
sg26
g10
sg28
S'--'
p273
sg30
S'L13-25'
p274
sg32
S'196'
p275
sg34
S'10'
p276
sg36
S'@PIT'
p277
sg38
S'45'
p278
sg40
g6
sg41
S'--'
p279
ssg8
(dp280
g5
S''
p281
sg7
g281
sg9
g281
sg11
g281
sg13
g281
sg14
S'John Brown'
p282
sg16
S'2015'
p283
sg18
g8
sg20
g281
sg22
S'Bye'
p284
sg24
g281
sg26
g281
sg28
g281
sg30
g281
sg32
g281
sg34
g281
sg36
g281
sg38
g281
sg40
g281
sg41
g281
ssS'8'
p285
(dp286
g5
S'--'
p287
sg7
S'--'
p288
sg9
g6
sg11
S'--'
p289
sg13
g6
sg14
S'John Brown'
p290
sg16
S'2015'
p291
sg18
g285
sg20
S'--'
p292
sg22
S'11/01'
p293
sg24
S'--'
p294
sg26
S'--'
p295
sg28
S'--'
p296
sg30
S'W34-20'
p297
sg32
S'--'
p298
sg34
S'--'
p299
sg36
S'@CLE'
p300
sg38
S'--'
p301
sg40
S'--'
p302
sg41
S'--'
p303
sssS'2014'
p304
(dp305
g3
(dp306
g5
S'--'
p307
sg7
S'--'
p308
sg9
g10
sg11
S'--'
p309
sg13
g10
sg14
S'John Brown'
p310
sg16
S'2014'
p311
sg18
S'11'
p312
sg20
S'--'
p313
sg22
S'11/16'
p314
sg24
S'13.8'
p315
sg26
S'--'
p316
sg28
S'--'
p317
sg30
S'W14-6'
p318
sg32
S'69'
p319
sg34
g93
sg36
S'DET'
p320
sg38
S'30'
p321
sg40
g6
sg41
S'--'
p322
ssg43
(dp323
g5
S'--'
p324
sg7
S'--'
p325
sg9
g6
sg11
S'--'
p326
sg13
g10
sg14
S'John Brown'
p327
sg16
S'2014'
p328
sg18
S'10'
p329
sg20
S'--'
p330
sg22
S'11/09'
p331
sg24
S'14.6'
p332
sg26
S'--'
p333
sg28
S'--'
p334
sg30
S'W31-14'
p335
sg32
S'73'
p336
sg34
g93
sg36
S'STL'
p337
sg38
S'48T'
p338
sg40
g10
sg41
S'--'
p339
ssg60
(dp340
g5
S'--'
p341
sg7
S'--'
p342
sg9
g10
sg11
S'--'
p343
sg13
g10
sg14
S'John Brown'
p344
sg16
S'2014'
p345
sg18
S'13'
p346
sg20
S'--'
p347
sg22
S'11/30'
p348
sg24
S'20.0'
p349
sg26
S'--'
p350
sg28
S'--'
p351
sg30
S'L18-29'
p352
sg32
S'40'
p353
sg34
g29
sg36
S'@ATL'
p354
sg38
S'27'
p355
sg40
g6
sg41
S'--'
p356
ssg78
(dp357
g5
S'--'
p358
sg7
S'--'
p359
sg9
g10
sg11
S'--'
p360
sg13
g10
sg14
S'John Brown'
p361
sg16
S'2014'
p362
sg18
S'12'
p363
sg20
S'--'
p364
sg22
S'11/23'
p365
sg24
S'20.3'
p366
sg26
S'--'
p367
sg28
S'--'
p368
sg30
S'L3-19'
p369
sg32
S'61'
p370
sg34
g35
sg36
S'@SEA'
p371
sg38
S'33'
p372
sg40
g6
sg41
S'--'
p373
ssg97
(dp374
g5
S'--'
p375
sg7
S'--'
p376
sg9
g10
sg11
S'--'
p377
sg13
g10
sg14
S'John Brown'
p378
sg16
S'2014'
p379
sg18
S'15'
p380
sg20
S'--'
p381
sg22
S'12/11'
p382
sg24
S'11.0'
p383
sg26
S'--'
p384
sg28
S'--'
p385
sg30
S'W12-6'
p386
sg32
S'22'
p387
sg34
g29
sg36
S'@STL'
p388
sg38
S'14'
p389
sg40
g6
sg41
S'--'
p390
ssg115
(dp391
g5
S'--'
p392
sg7
S'--'
p393
sg9
g6
sg11
S'--'
p394
sg13
g10
sg14
S'John Brown'
p395
sg16
S'2014'
p396
sg18
S'14'
p397
sg20
S'--'
p398
sg22
S'12/07'
p399
sg24
S'--'
p400
sg26
S'--'
p401
sg28
S'--'
p402
sg30
S'W17-14'
p403
sg32
g6
sg34
g6
sg36
S'KC'
p404
sg38
S'--'
p405
sg40
g6
sg41
S'--'
p406
ssg134
(dp407
g5
S'--'
p408
sg7
S'--'
p409
sg9
g6
sg11
S'--'
p410
sg13
g10
sg14
S'John Brown'
p411
sg16
S'2014'
p412
sg18
S'17'
p413
sg20
S'--'
p414
sg22
S'12/28'
p415
sg24
S'12.8'
p416
sg26
S'--'
p417
sg28
S'--'
p418
sg30
S'L17-20'
p419
sg32
S'51'
p420
sg34
g130
sg36
S'@SF'
p421
sg38
S'19'
p422
sg40
g6
sg41
S'--'
p423
ssg152
(dp424
g5
S'--'
p425
sg7
S'--'
p426
sg9
g6
sg11
S'--'
p427
sg13
g10
sg14
S'John Brown'
p428
sg16
S'2014'
p429
sg18
S'16'
p430
sg20
S'--'
p431
sg22
S'12/21'
p432
sg24
S'18.0'
p433
sg26
S'--'
p434
sg28
S'--'
p435
sg30
S'L6-35'
p436
sg32
S'54'
p437
sg34
g35
sg36
S'SEA'
p438
sg38
S'24'
p439
sg40
g6
sg41
S'--'
p440
ssg10
(dp441
g5
S'--'
p442
sg7
S'--'
p443
sg9
g6
sg11
S'--'
p444
sg13
g10
sg14
S'John Brown'
p445
sg16
S'2014'
p446
sg18
g10
sg20
S'--'
p447
sg22
S'09/08'
p448
sg24
S'14.5'
p449
sg26
S'--'
p450
sg28
S'--'
p451
sg30
S'W18-17'
p452
sg32
S'29'
p453
sg34
g29
sg36
S'SD'
p454
sg38
S'16'
p455
sg40
g10
sg41
S'--'
p456
ssg35
(dp457
g5
S'--'
p458
sg7
S'--'
p459
sg9
g6
sg11
S'--'
p460
sg13
g10
sg14
S'John Brown'
p461
sg16
S'2014'
p462
sg18
g35
sg20
S'--'
p463
sg22
S'09/21'
p464
sg24
S'13.0'
p465
sg26
S'--'
p466
sg28
S'--'
p467
sg30
S'W23-14'
p468
sg32
S'52'
p469
sg34
g130
sg36
S'SF'
p470
sg38
S'24T'
p471
sg40
g29
sg41
S'--'
p472
ssg29
(dp473
g5
g6
sg7
g29
sg9
g6
sg11
S'--'
p474
sg13
g10
sg14
S'John Brown'
p475
sg16
S'2014'
p476
sg18
g29
sg20
S'2.0'
p477
sg22
S'09/14'
p478
sg24
S'9.3'
p479
sg26
S'--'
p480
sg28
g10
sg30
S'W25-14'
p481
sg32
S'28'
p482
sg34
g35
sg36
S'@NYG'
p483
sg38
S'20'
p484
sg40
g6
sg41
g29
ssg93
(dp485
g5
S'--'
p486
sg7
S'--'
p487
sg9
g6
sg11
S'--'
p488
sg13
g10
sg14
S'John Brown'
p489
sg16
S'2014'
p490
sg18
g93
sg20
S'--'
p491
sg22
S'10/05'
p492
sg24
S'2.0'
p493
sg26
S'--'
p494
sg28
S'--'
p495
sg30
S'L20-41'
p496
sg32
g130
sg34
g29
sg36
S'@DEN'
p497
sg38
g29
sg40
g6
sg41
S'--'
p498
ssg130
(dp499
g5
g281
sg7
g281
sg9
g281
sg11
g281
sg13
g281
sg14
S'John Brown'
p500
sg16
S'2014'
p501
sg18
g130
sg20
g281
sg22
S'Bye'
p502
sg24
g281
sg26
g281
sg28
g281
sg30
g281
sg32
g281
sg34
g281
sg36
g281
sg38
g281
sg40
g281
sg41
g281
ssg245
(dp503
g5
g6
sg7
S'-5'
p504
sg9
g6
sg11
S'--'
p505
sg13
g10
sg14
S'John Brown'
p506
sg16
S'2014'
p507
sg18
g245
sg20
S'-5.0'
p508
sg22
S'10/19'
p509
sg24
S'20.5'
p510
sg26
S'--'
p511
sg28
g10
sg30
S'W24-13'
p512
sg32
S'41'
p513
sg34
g29
sg36
S'@OAK'
p514
sg38
S'22'
p515
sg40
g6
sg41
S'-5'
p516
ssg42
(dp517
g5
S'--'
p518
sg7
S'--'
p519
sg9
g10
sg11
S'--'
p520
sg13
g10
sg14
S'John Brown'
p521
sg16
S'2014'
p522
sg18
g42
sg20
S'--'
p523
sg22
S'10/12'
p524
sg24
S'10.8'
p525
sg26
S'--'
p526
sg28
S'--'
p527
sg30
S'W30-20'
p528
sg32
S'43'
p529
sg34
g130
sg36
S'WAS'
p530
sg38
S'15'
p531
sg40
g6
sg41
S'--'
p532
ssg8
(dp533
g5
g6
sg7
S'-3'
p534
sg9
g6
sg11
S'--'
p535
sg13
g10
sg14
S'John Brown'
p536
sg16
S'2014'
p537
sg18
g8
sg20
S'-3.0'
p538
sg22
S'11/02'
p539
sg24
S'5.0'
p540
sg26
S'--'
p541
sg28
g10
sg30
S'W28-17'
p542
sg32
S'10'
p543
sg34
g29
sg36
S'@DAL'
p544
sg38
S'10'
p545
sg40
g6
sg41
S'-3'
p546
ssg285
(dp547
g5
S'--'
p548
sg7
S'--'
p549
sg9
g6
sg11
S'--'
p550
sg13
g10
sg14
S'John Brown'
p551
sg16
S'2014'
p552
sg18
g285
sg20
S'--'
p553
sg22
S'10/26'
p554
sg24
S'23.8'
p555
sg26
S'--'
p556
sg28
S'--'
p557
sg30
S'W24-20'
p558
sg32
S'119'
p559
sg34
g93
sg36
S'PHI'
p560
sg38
S'75T'
p561
sg40
g10
sg41
S'--'
p562
sss.