(dp0
S'2015'
p1
(dp2
S'11'
p3
(dp4
S'RushTD'
p5
S'--'
p6
sS'RushYds'
p7
S'--'
p8
sS'GS'
p9
S'1'
p10
sS'Lost'
p11
S'--'
p12
sS'G'
p13
g10
sS'Player'
p14
S'Jordan Matthews'
p15
sS'Year'
p16
S'2015'
p17
sS'WK'
p18
S'11'
p19
sS'RushAvg'
p20
S'--'
p21
sS'Game Date'
p22
S'11/22'
p23
sS'RecAvg'
p24
S'3.3'
p25
sS'FUM'
p26
S'--'
p27
sS'RushAtt'
p28
S'--'
p29
sS'Result'
p30
S'L17-45'
p31
sS'RecYds'
p32
S'13'
p33
sS'Rec'
p34
S'4'
p35
sS'Opp'
p36
S'TB'
p37
sS'RecLng'
p38
S'5'
p39
sS'RecTD'
p40
S'0'
p41
sS'RushLng'
p42
S'--'
p43
ssS'10'
p44
(dp45
g5
S'--'
p46
sg7
S'--'
p47
sg9
g10
sg11
S'--'
p48
sg13
g10
sg14
S'Jordan Matthews'
p49
sg16
S'2015'
p50
sg18
S'10'
p51
sg20
S'--'
p52
sg22
S'11/15'
p53
sg24
S'7.0'
p54
sg26
S'--'
p55
sg28
S'--'
p56
sg30
S'L19-20'
p57
sg32
S'21'
p58
sg34
S'3'
p59
sg36
S'MIA'
p60
sg38
S'9'
p61
sg40
g41
sg42
S'--'
p62
ssS'13'
p63
(dp64
g5
S'--'
p65
sg7
S'--'
p66
sg9
g10
sg11
g41
sg13
g10
sg14
S'Jordan Matthews'
p67
sg16
S'2015'
p68
sg18
S'13'
p69
sg20
S'--'
p70
sg22
S'12/06'
p71
sg24
S'12.0'
p72
sg26
g10
sg28
S'--'
p73
sg30
S'W35-28'
p74
sg32
S'36'
p75
sg34
g59
sg36
S'@NE'
p76
sg38
S'20'
p77
sg40
g10
sg42
S'--'
p78
ssS'12'
p79
(dp80
g5
S'--'
p81
sg7
S'--'
p82
sg9
g10
sg11
S'--'
p83
sg13
g10
sg14
S'Jordan Matthews'
p84
sg16
S'2015'
p85
sg18
S'12'
p86
sg20
S'--'
p87
sg22
S'11/26'
p88
sg24
S'20.0'
p89
sg26
S'--'
p90
sg28
S'--'
p91
sg30
S'L14-45'
p92
sg32
S'60'
p93
sg34
g59
sg36
S'@DET'
p94
sg38
S'24T'
p95
sg40
g10
sg42
S'--'
p96
ssS'15'
p97
(dp98
g5
S'--'
p99
sg7
S'--'
p100
sg9
g10
sg11
S'--'
p101
sg13
g10
sg14
S'Jordan Matthews'
p102
sg16
S'2015'
p103
sg18
S'15'
p104
sg20
S'--'
p105
sg22
S'12/20'
p106
sg24
S'19.9'
p107
sg26
S'--'
p108
sg28
S'--'
p109
sg30
S'L17-40'
p110
sg32
S'159'
p111
sg34
S'8'
p112
sg36
S'ARI'
p113
sg38
S'78T'
p114
sg40
g10
sg42
S'--'
p115
ssS'14'
p116
(dp117
g5
S'--'
p118
sg7
S'--'
p119
sg9
g10
sg11
S'--'
p120
sg13
g10
sg14
S'Jordan Matthews'
p121
sg16
S'2015'
p122
sg18
S'14'
p123
sg20
S'--'
p124
sg22
S'12/13'
p125
sg24
S'6.3'
p126
sg26
S'--'
p127
sg28
S'--'
p128
sg30
S'W23-20'
p129
sg32
S'19'
p130
sg34
g59
sg36
S'BUF'
p131
sg38
g112
sg40
g41
sg42
S'--'
p132
ssS'17'
p133
(dp134
g5
S'--'
p135
sg7
S'--'
p136
sg9
g10
sg11
S'--'
p137
sg13
g10
sg14
S'Jordan Matthews'
p138
sg16
S'2015'
p139
sg18
S'17'
p140
sg20
S'--'
p141
sg22
S'01/03'
p142
sg24
S'7.7'
p143
sg26
S'--'
p144
sg28
S'--'
p145
sg30
S'W35-30'
p146
sg32
S'54'
p147
sg34
S'7'
p148
sg36
S'@NYG'
p149
sg38
S'25'
p150
sg40
S'2'
p151
sg42
S'--'
p152
ssS'16'
p153
(dp154
g5
S'--'
p155
sg7
S'--'
p156
sg9
g10
sg11
S'--'
p157
sg13
g10
sg14
S'Jordan Matthews'
p158
sg16
S'2015'
p159
sg18
S'16'
p160
sg20
S'--'
p161
sg22
S'12/26'
p162
sg24
S'17.3'
p163
sg26
S'--'
p164
sg28
S'--'
p165
sg30
S'L24-38'
p166
sg32
S'104'
p167
sg34
S'6'
p168
sg36
S'WAS'
p169
sg38
S'43'
p170
sg40
g10
sg42
S'--'
p171
ssg10
(dp172
g5
S'--'
p173
sg7
S'--'
p174
sg9
g10
sg11
S'--'
p175
sg13
g10
sg14
S'Jordan Matthews'
p176
sg16
S'2015'
p177
sg18
g10
sg20
S'--'
p178
sg22
S'09/14'
p179
sg24
S'10.2'
p180
sg26
S'--'
p181
sg28
S'--'
p182
sg30
S'L24-26'
p183
sg32
S'102'
p184
sg34
S'10'
p185
sg36
S'@ATL'
p186
sg38
S'25'
p187
sg40
g41
sg42
S'--'
p188
ssg59
(dp189
g5
S'--'
p190
sg7
S'--'
p191
sg9
g10
sg11
S'--'
p192
sg13
g10
sg14
S'Jordan Matthews'
p193
sg16
S'2015'
p194
sg18
g59
sg20
S'--'
p195
sg22
S'09/27'
p196
sg24
S'8.2'
p197
sg26
S'--'
p198
sg28
S'--'
p199
sg30
S'W24-17'
p200
sg32
S'49'
p201
sg34
g168
sg36
S'@NYJ'
p202
sg38
S'17'
p203
sg40
g41
sg42
S'--'
p204
ssg151
(dp205
g5
S'--'
p206
sg7
S'--'
p207
sg9
g10
sg11
S'--'
p208
sg13
g10
sg14
S'Jordan Matthews'
p209
sg16
S'2015'
p210
sg18
g151
sg20
S'--'
p211
sg22
S'09/20'
p212
sg24
S'13.3'
p213
sg26
S'--'
p214
sg28
S'--'
p215
sg30
S'L10-20'
p216
sg32
S'80'
p217
sg34
g168
sg36
S'DAL'
p218
sg38
S'32'
p219
sg40
g10
sg42
S'--'
p220
ssg39
(dp221
g5
S'--'
p222
sg7
S'--'
p223
sg9
g10
sg11
S'--'
p224
sg13
g10
sg14
S'Jordan Matthews'
p225
sg16
S'2015'
p226
sg18
g39
sg20
S'--'
p227
sg22
S'10/11'
p228
sg24
S'8.8'
p229
sg26
S'--'
p230
sg28
S'--'
p231
sg30
S'W39-17'
p232
sg32
S'44'
p233
sg34
g39
sg36
S'NO'
p234
sg38
S'18'
p235
sg40
g41
sg42
S'--'
p236
ssg35
(dp237
g5
S'--'
p238
sg7
S'--'
p239
sg9
g41
sg11
S'--'
p240
sg13
g10
sg14
S'Jordan Matthews'
p241
sg16
S'2015'
p242
sg18
g35
sg20
S'--'
p243
sg22
S'10/04'
p244
sg24
S'16.7'
p245
sg26
S'--'
p246
sg28
S'--'
p247
sg30
S'L20-23'
p248
sg32
S'50'
p249
sg34
g59
sg36
S'@WAS'
p250
sg38
S'30'
p251
sg40
g41
sg42
S'--'
p252
ssg148
(dp253
g5
S'--'
p254
sg7
S'--'
p255
sg9
g41
sg11
S'--'
p256
sg13
g10
sg14
S'Jordan Matthews'
p257
sg16
S'2015'
p258
sg18
g148
sg20
S'--'
p259
sg22
S'10/25'
p260
sg24
S'4.7'
p261
sg26
S'--'
p262
sg28
S'--'
p263
sg30
S'L16-27'
p264
sg32
S'14'
p265
sg34
g59
sg36
S'@CAR'
p266
sg38
g148
sg40
g41
sg42
S'--'
p267
ssg168
(dp268
g5
S'--'
p269
sg7
S'--'
p270
sg9
g41
sg11
g10
sg13
g10
sg14
S'Jordan Matthews'
p271
sg16
S'2015'
p272
sg18
g168
sg20
S'--'
p273
sg22
S'10/19'
p274
sg24
S'9.8'
p275
sg26
g10
sg28
S'--'
p276
sg30
S'W27-7'
p277
sg32
S'59'
p278
sg34
g168
sg36
S'NYG'
p279
sg38
S'19'
p280
sg40
g41
sg42
S'--'
p281
ssg61
(dp282
g5
S'--'
p283
sg7
S'--'
p284
sg9
g41
sg11
S'--'
p285
sg13
g10
sg14
S'Jordan Matthews'
p286
sg16
S'2015'
p287
sg18
g61
sg20
S'--'
p288
sg22
S'11/08'
p289
sg24
S'14.8'
p290
sg26
S'--'
p291
sg28
S'--'
p292
sg30
S'W33-27'
p293
sg32
S'133'
p294
sg34
g61
sg36
S'@DAL'
p295
sg38
S'41T'
p296
sg40
g10
sg42
S'--'
p297
ssg112
(dp298
g5
S''
p299
sg7
g299
sg9
g299
sg11
g299
sg13
g299
sg14
S'Jordan Matthews'
p300
sg16
S'2015'
p301
sg18
g112
sg20
g299
sg22
S'Bye'
p302
sg24
g299
sg26
g299
sg28
g299
sg30
g299
sg32
g299
sg34
g299
sg36
g299
sg38
g299
sg40
g299
sg42
g299
sssS'2014'
p303
(dp304
g3
(dp305
g5
S'--'
p306
sg7
S'--'
p307
sg9
g10
sg11
S'--'
p308
sg13
g10
sg14
S'Jordan Matthews'
p309
sg16
S'2014'
p310
sg18
S'11'
p311
sg20
S'--'
p312
sg22
S'11/16'
p313
sg24
S'21.4'
p314
sg26
S'--'
p315
sg28
S'--'
p316
sg30
S'L20-53'
p317
sg32
S'107'
p318
sg34
g39
sg36
S'@GB'
p319
sg38
S'40'
p320
sg40
g10
sg42
S'--'
p321
ssg44
(dp322
g5
S'--'
p323
sg7
S'--'
p324
sg9
g41
sg11
S'--'
p325
sg13
g10
sg14
S'Jordan Matthews'
p326
sg16
S'2014'
p327
sg18
S'10'
p328
sg20
S'--'
p329
sg22
S'11/10'
p330
sg24
S'19.7'
p331
sg26
S'--'
p332
sg28
S'--'
p333
sg30
S'W45-21'
p334
sg32
S'138'
p335
sg34
g148
sg36
S'CAR'
p336
sg38
S'33'
p337
sg40
g151
sg42
S'--'
p338
ssg63
(dp339
g5
S'--'
p340
sg7
S'--'
p341
sg9
g10
sg11
S'--'
p342
sg13
g10
sg14
S'Jordan Matthews'
p343
sg16
S'2014'
p344
sg18
S'13'
p345
sg20
S'--'
p346
sg22
S'11/27'
p347
sg24
S'12.8'
p348
sg26
S'--'
p349
sg28
S'--'
p350
sg30
S'W33-10'
p351
sg32
S'51'
p352
sg34
g35
sg36
S'@DAL'
p353
sg38
S'27T'
p354
sg40
g10
sg42
S'--'
p355
ssg79
(dp356
g5
S'--'
p357
sg7
S'--'
p358
sg9
g10
sg11
S'--'
p359
sg13
g10
sg14
S'Jordan Matthews'
p360
sg16
S'2014'
p361
sg18
S'12'
p362
sg20
S'--'
p363
sg22
S'11/23'
p364
sg24
S'12.8'
p365
sg26
S'--'
p366
sg28
S'--'
p367
sg30
S'W43-24'
p368
sg32
S'77'
p369
sg34
g168
sg36
S'TEN'
p370
sg38
S'24'
p371
sg40
g41
sg42
S'--'
p372
ssg97
(dp373
g5
S'--'
p374
sg7
S'--'
p375
sg9
g10
sg11
S'--'
p376
sg13
g10
sg14
S'Jordan Matthews'
p377
sg16
S'2014'
p378
sg18
S'15'
p379
sg20
S'--'
p380
sg22
S'12/14'
p381
sg24
S'--'
p382
sg26
S'--'
p383
sg28
S'--'
p384
sg30
S'L27-38'
p385
sg32
g41
sg34
g41
sg36
S'DAL'
p386
sg38
S'--'
p387
sg40
g41
sg42
S'--'
p388
ssg116
(dp389
g5
S'--'
p390
sg7
S'--'
p391
sg9
g10
sg11
S'--'
p392
sg13
g10
sg14
S'Jordan Matthews'
p393
sg16
S'2014'
p394
sg18
S'14'
p395
sg20
S'--'
p396
sg22
S'12/07'
p397
sg24
S'11.5'
p398
sg26
S'--'
p399
sg28
S'--'
p400
sg30
S'L14-24'
p401
sg32
S'23'
p402
sg34
g151
sg36
S'SEA'
p403
sg38
S'17'
p404
sg40
g41
sg42
S'--'
p405
ssg133
(dp406
g5
S'--'
p407
sg7
S'--'
p408
sg9
g41
sg11
S'--'
p409
sg13
g10
sg14
S'Jordan Matthews'
p410
sg16
S'2014'
p411
sg18
S'17'
p412
sg20
S'--'
p413
sg22
S'12/28'
p414
sg24
S'13.1'
p415
sg26
S'--'
p416
sg28
S'--'
p417
sg30
S'W34-26'
p418
sg32
S'105'
p419
sg34
g112
sg36
S'@NYG'
p420
sg38
S'44T'
p421
sg40
g10
sg42
S'--'
p422
ssg153
(dp423
g5
S'--'
p424
sg7
S'--'
p425
sg9
g41
sg11
S'--'
p426
sg13
g10
sg14
S'Jordan Matthews'
p427
sg16
S'2014'
p428
sg18
S'16'
p429
sg20
S'--'
p430
sg22
S'12/20'
p431
sg24
S'19.3'
p432
sg26
S'--'
p433
sg28
S'--'
p434
sg30
S'L24-27'
p435
sg32
S'58'
p436
sg34
g59
sg36
S'@WAS'
p437
sg38
S'26'
p438
sg40
g41
sg42
S'--'
p439
ssg10
(dp440
g5
S'--'
p441
sg7
S'--'
p442
sg9
g41
sg11
S'--'
p443
sg13
g10
sg14
S'Jordan Matthews'
p444
sg16
S'2014'
p445
sg18
g10
sg20
S'--'
p446
sg22
S'09/07'
p447
sg24
S'18.5'
p448
sg26
S'--'
p449
sg28
S'--'
p450
sg30
S'W34-17'
p451
sg32
S'37'
p452
sg34
g151
sg36
S'JAC'
p453
sg38
S'30'
p454
sg40
g41
sg42
S'--'
p455
ssg59
(dp456
g5
S'--'
p457
sg7
S'--'
p458
sg9
g41
sg11
S'--'
p459
sg13
g10
sg14
S'Jordan Matthews'
p460
sg16
S'2014'
p461
sg18
g59
sg20
S'--'
p462
sg22
S'09/21'
p463
sg24
S'7.4'
p464
sg26
S'--'
p465
sg28
S'--'
p466
sg30
S'W37-34'
p467
sg32
S'59'
p468
sg34
g112
sg36
S'WAS'
p469
sg38
S'13'
p470
sg40
g151
sg42
S'--'
p471
ssg151
(dp472
g5
S'--'
p473
sg7
S'--'
p474
sg9
g10
sg11
S'--'
p475
sg13
g10
sg14
S'Jordan Matthews'
p476
sg16
S'2014'
p477
sg18
g151
sg20
S'--'
p478
sg22
S'09/15'
p479
sg24
S'17.0'
p480
sg26
S'--'
p481
sg28
S'--'
p482
sg30
S'W30-27'
p483
sg32
S'17'
p484
sg34
g10
sg36
S'@IND'
p485
sg38
S'17'
p486
sg40
g41
sg42
S'--'
p487
ssg39
(dp488
g5
S'--'
p489
sg7
S'--'
p490
sg9
g10
sg11
S'--'
p491
sg13
g10
sg14
S'Jordan Matthews'
p492
sg16
S'2014'
p493
sg18
g39
sg20
S'--'
p494
sg22
S'10/05'
p495
sg24
S'8.8'
p496
sg26
S'--'
p497
sg28
S'--'
p498
sg30
S'W34-28'
p499
sg32
S'35'
p500
sg34
g35
sg36
S'STL'
p501
sg38
S'12'
p502
sg40
g41
sg42
S'--'
p503
ssg35
(dp504
g5
S'--'
p505
sg7
S'--'
p506
sg9
g10
sg11
S'--'
p507
sg13
g10
sg14
S'Jordan Matthews'
p508
sg16
S'2014'
p509
sg18
g35
sg20
S'--'
p510
sg22
S'09/28'
p511
sg24
S'7.0'
p512
sg26
S'--'
p513
sg28
S'--'
p514
sg30
S'L21-26'
p515
sg32
S'28'
p516
sg34
g35
sg36
S'@SF'
p517
sg38
S'11'
p518
sg40
g41
sg42
S'--'
p519
ssg148
(dp520
g5
g299
sg7
g299
sg9
g299
sg11
g299
sg13
g299
sg14
S'Jordan Matthews'
p521
sg16
S'2014'
p522
sg18
g148
sg20
g299
sg22
S'Bye'
p523
sg24
g299
sg26
g299
sg28
g299
sg30
g299
sg32
g299
sg34
g299
sg36
g299
sg38
g299
sg40
g299
sg42
g299
ssg168
(dp524
g5
S'--'
p525
sg7
S'--'
p526
sg9
g10
sg11
S'--'
p527
sg13
g10
sg14
S'Jordan Matthews'
p528
sg16
S'2014'
p529
sg18
g168
sg20
S'--'
p530
sg22
S'10/12'
p531
sg24
S'12.5'
p532
sg26
S'--'
p533
sg28
S'--'
p534
sg30
S'W27-0'
p535
sg32
S'50'
p536
sg34
g35
sg36
S'NYG'
p537
sg38
S'26'
p538
sg40
g41
sg42
S'--'
p539
ssg61
(dp540
g5
S'--'
p541
sg7
S'--'
p542
sg9
g10
sg11
S'--'
p543
sg13
g10
sg14
S'Jordan Matthews'
p544
sg16
S'2014'
p545
sg18
g61
sg20
S'--'
p546
sg22
S'11/02'
p547
sg24
S'13.3'
p548
sg26
S'--'
p549
sg28
S'--'
p550
sg30
S'W31-21'
p551
sg32
S'40'
p552
sg34
g59
sg36
S'@HOU'
p553
sg38
S'24'
p554
sg40
g10
sg42
S'--'
p555
ssg112
(dp556
g5
S'--'
p557
sg7
S'--'
p558
sg9
g41
sg11
S'--'
p559
sg13
g10
sg14
S'Jordan Matthews'
p560
sg16
S'2014'
p561
sg18
g112
sg20
S'--'
p562
sg22
S'10/26'
p563
sg24
S'7.8'
p564
sg26
S'--'
p565
sg28
S'--'
p566
sg30
S'L20-24'
p567
sg32
S'47'
p568
sg34
g168
sg36
S'@ARI'
p569
sg38
S'23'
p570
sg40
g41
sg42
S'--'
p571
sss.