(dp0
S'2014'
p1
(dp2
S'11'
p3
(dp4
S'RushTD'
p5
S'--'
p6
sS'RushYds'
p7
S'--'
p8
sS'GS'
p9
S'1'
p10
sS'Lost'
p11
S'--'
p12
sS'G'
p13
g10
sS'Player'
p14
S'Jordy Nelson'
p15
sS'Year'
p16
S'2014'
p17
sS'WK'
p18
S'11'
p19
sS'RushAvg'
p20
S'--'
p21
sS'Game Date'
p22
S'11/16'
p23
sS'RecAvg'
p24
S'27.3'
p25
sS'FUM'
p26
S'--'
p27
sS'RushAtt'
p28
S'--'
p29
sS'Result'
p30
S'W53-20'
p31
sS'RecYds'
p32
S'109'
p33
sS'Rec'
p34
S'4'
p35
sS'Opp'
p36
S'PHI'
p37
sS'RecLng'
p38
S'64'
p39
sS'RecTD'
p40
g10
sS'RushLng'
p41
S'--'
p42
ssS'10'
p43
(dp44
g5
S'--'
p45
sg7
S'--'
p46
sg9
g10
sg11
S'--'
p47
sg13
g10
sg14
S'Jordy Nelson'
p48
sg16
S'2014'
p49
sg18
S'10'
p50
sg20
S'--'
p51
sg22
S'11/09'
p52
sg24
S'25.3'
p53
sg26
S'--'
p54
sg28
S'--'
p55
sg30
S'W55-14'
p56
sg32
S'152'
p57
sg34
S'6'
p58
sg36
S'CHI'
p59
sg38
S'73T'
p60
sg40
S'2'
p61
sg41
S'--'
p62
ssS'13'
p63
(dp64
g5
S'--'
p65
sg7
S'--'
p66
sg9
g10
sg11
S'--'
p67
sg13
g10
sg14
S'Jordy Nelson'
p68
sg16
S'2014'
p69
sg18
S'13'
p70
sg20
S'--'
p71
sg22
S'11/30'
p72
sg24
S'26.5'
p73
sg26
S'--'
p74
sg28
S'--'
p75
sg30
S'W26-21'
p76
sg32
S'53'
p77
sg34
g61
sg36
S'NE'
p78
sg38
S'45T'
p79
sg40
g10
sg41
S'--'
p80
ssS'12'
p81
(dp82
g5
S'--'
p83
sg7
S'--'
p84
sg9
g10
sg11
S'--'
p85
sg13
g10
sg14
S'Jordy Nelson'
p86
sg16
S'2014'
p87
sg18
S'12'
p88
sg20
S'--'
p89
sg22
S'11/23'
p90
sg24
S'8.5'
p91
sg26
S'--'
p92
sg28
S'--'
p93
sg30
S'W24-21'
p94
sg32
S'68'
p95
sg34
S'8'
p96
sg36
S'@MIN'
p97
sg38
S'14'
p98
sg40
S'0'
p99
sg41
S'--'
p100
ssS'15'
p101
(dp102
g5
S'--'
p103
sg7
S'--'
p104
sg9
g10
sg11
S'--'
p105
sg13
g10
sg14
S'Jordy Nelson'
p106
sg16
S'2014'
p107
sg18
S'15'
p108
sg20
S'--'
p109
sg22
S'12/14'
p110
sg24
S'11.0'
p111
sg26
S'--'
p112
sg28
S'--'
p113
sg30
S'L13-21'
p114
sg32
S'55'
p115
sg34
S'5'
p116
sg36
S'@BUF'
p117
sg38
S'20'
p118
sg40
g99
sg41
S'--'
p119
ssS'14'
p120
(dp121
g5
S'--'
p122
sg7
S'--'
p123
sg9
g10
sg11
S'--'
p124
sg13
g10
sg14
S'Jordy Nelson'
p125
sg16
S'2014'
p126
sg18
S'14'
p127
sg20
S'--'
p128
sg22
S'12/08'
p129
sg24
S'18.3'
p130
sg26
S'--'
p131
sg28
S'--'
p132
sg30
S'W43-37'
p133
sg32
S'146'
p134
sg34
g96
sg36
S'ATL'
p135
sg38
S'60T'
p136
sg40
g61
sg41
S'--'
p137
ssS'17'
p138
(dp139
g5
S'--'
p140
sg7
S'--'
p141
sg9
g10
sg11
S'--'
p142
sg13
g10
sg14
S'Jordy Nelson'
p143
sg16
S'2014'
p144
sg18
S'17'
p145
sg20
S'--'
p146
sg22
S'12/28'
p147
sg24
S'14.3'
p148
sg26
S'--'
p149
sg28
S'--'
p150
sg30
S'W30-20'
p151
sg32
S'86'
p152
sg34
g58
sg36
S'DET'
p153
sg38
S'22'
p154
sg40
g99
sg41
S'--'
p155
ssS'16'
p156
(dp157
g5
S'--'
p158
sg7
S'--'
p159
sg9
g10
sg11
S'--'
p160
sg13
g10
sg14
S'Jordy Nelson'
p161
sg16
S'2014'
p162
sg18
S'16'
p163
sg20
S'--'
p164
sg22
S'12/21'
p165
sg24
S'12.6'
p166
sg26
S'--'
p167
sg28
S'--'
p168
sg30
S'W20-3'
p169
sg32
S'113'
p170
sg34
S'9'
p171
sg36
S'@TB'
p172
sg38
S'28'
p173
sg40
g10
sg41
S'--'
p174
ssg10
(dp175
g5
S'--'
p176
sg7
S'--'
p177
sg9
g10
sg11
S'--'
p178
sg13
g10
sg14
S'Jordy Nelson'
p179
sg16
S'2014'
p180
sg18
g10
sg20
S'--'
p181
sg22
S'09/04'
p182
sg24
S'9.2'
p183
sg26
S'--'
p184
sg28
S'--'
p185
sg30
S'L16-36'
p186
sg32
S'83'
p187
sg34
g171
sg36
S'@SEA'
p188
sg38
S'16'
p189
sg40
g99
sg41
S'--'
p190
ssS'3'
p191
(dp192
g5
S'--'
p193
sg7
S'--'
p194
sg9
g10
sg11
S'--'
p195
sg13
g10
sg14
S'Jordy Nelson'
p196
sg16
S'2014'
p197
sg18
g191
sg20
S'--'
p198
sg22
S'09/21'
p199
sg24
S'11.8'
p200
sg26
S'--'
p201
sg28
S'--'
p202
sg30
S'L7-19'
p203
sg32
S'59'
p204
sg34
g116
sg36
S'@DET'
p205
sg38
S'18'
p206
sg40
g99
sg41
S'--'
p207
ssg61
(dp208
g5
S'--'
p209
sg7
S'--'
p210
sg9
g10
sg11
S'--'
p211
sg13
g10
sg14
S'Jordy Nelson'
p212
sg16
S'2014'
p213
sg18
g61
sg20
S'--'
p214
sg22
S'09/14'
p215
sg24
S'23.2'
p216
sg26
S'--'
p217
sg28
S'--'
p218
sg30
S'W31-24'
p219
sg32
S'209'
p220
sg34
g171
sg36
S'NYJ'
p221
sg38
S'80T'
p222
sg40
g10
sg41
S'--'
p223
ssg116
(dp224
g5
S'--'
p225
sg7
S'--'
p226
sg9
g10
sg11
S'--'
p227
sg13
g10
sg14
S'Jordy Nelson'
p228
sg16
S'2014'
p229
sg18
g116
sg20
S'--'
p230
sg22
S'10/02'
p231
sg24
S'66.0'
p232
sg26
S'--'
p233
sg28
S'--'
p234
sg30
S'W42-10'
p235
sg32
S'66'
p236
sg34
g10
sg36
S'MIN'
p237
sg38
S'66T'
p238
sg40
g10
sg41
S'--'
p239
ssg35
(dp240
g5
S'--'
p241
sg7
S'--'
p242
sg9
g10
sg11
S'--'
p243
sg13
g10
sg14
S'Jordy Nelson'
p244
sg16
S'2014'
p245
sg18
g35
sg20
S'--'
p246
sg22
S'09/28'
p247
sg24
S'10.8'
p248
sg26
S'--'
p249
sg28
S'--'
p250
sg30
S'W38-17'
p251
sg32
S'108'
p252
sg34
S'10'
p253
sg36
S'@CHI'
p254
sg38
S'23'
p255
sg40
g61
sg41
S'--'
p256
ssS'7'
p257
(dp258
g5
S'--'
p259
sg7
S'--'
p260
sg9
g10
sg11
S'--'
p261
sg13
g10
sg14
S'Jordy Nelson'
p262
sg16
S'2014'
p263
sg18
g257
sg20
S'--'
p264
sg22
S'10/19'
p265
sg24
S'20.0'
p266
sg26
S'--'
p267
sg28
S'--'
p268
sg30
S'W38-17'
p269
sg32
S'80'
p270
sg34
g35
sg36
S'CAR'
p271
sg38
S'59T'
p272
sg40
g10
sg41
S'--'
p273
ssg58
(dp274
g5
S'--'
p275
sg7
S'--'
p276
sg9
g10
sg11
S'--'
p277
sg13
g10
sg14
S'Jordy Nelson'
p278
sg16
S'2014'
p279
sg18
g58
sg20
S'--'
p280
sg22
S'10/12'
p281
sg24
S'11.9'
p282
sg26
S'--'
p283
sg28
S'--'
p284
sg30
S'W27-24'
p285
sg32
S'107'
p286
sg34
g171
sg36
S'@MIA'
p287
sg38
S'22'
p288
sg40
g10
sg41
S'--'
p289
ssg171
(dp290
g5
S''
p291
sg7
g291
sg9
g291
sg11
g291
sg13
g291
sg14
S'Jordy Nelson'
p292
sg16
S'2014'
p293
sg18
g171
sg20
g291
sg22
S'Bye'
p294
sg24
g291
sg26
g291
sg28
g291
sg30
g291
sg32
g291
sg34
g291
sg36
g291
sg38
g291
sg40
g291
sg41
g291
ssg96
(dp295
g5
S'--'
p296
sg7
S'--'
p297
sg9
g10
sg11
S'--'
p298
sg13
g10
sg14
S'Jordy Nelson'
p299
sg16
S'2014'
p300
sg18
g96
sg20
S'--'
p301
sg22
S'10/26'
p302
sg24
S'8.3'
p303
sg26
S'--'
p304
sg28
S'--'
p305
sg30
S'L23-44'
p306
sg32
S'25'
p307
sg34
g191
sg36
S'@NO'
p308
sg38
g171
sg40
g99
sg41
S'--'
p309
sssS'2011'
p310
(dp311
g3
(dp312
g5
S'--'
p313
sg7
S'--'
p314
sg9
g99
sg11
S'--'
p315
sg13
g10
sg14
S'Jordy Nelson'
p316
sg16
S'2011'
p317
sg18
S'11'
p318
sg20
S'--'
p319
sg22
S'11/20'
p320
sg24
S'20.5'
p321
sg26
S'--'
p322
sg28
S'--'
p323
sg30
S'W35-26'
p324
sg32
S'123'
p325
sg34
g58
sg36
S'TB'
p326
sg38
S'40T'
p327
sg40
g61
sg41
S'--'
p328
ssg43
(dp329
g5
S'--'
p330
sg7
S'--'
p331
sg9
g10
sg11
S'--'
p332
sg13
g10
sg14
S'Jordy Nelson'
p333
sg16
S'2011'
p334
sg18
S'10'
p335
sg20
S'--'
p336
sg22
S'11/14'
p337
sg24
S'12.6'
p338
sg26
S'--'
p339
sg28
S'--'
p340
sg30
S'W45-7'
p341
sg32
S'63'
p342
sg34
g116
sg36
S'MIN'
p343
sg38
S'23'
p344
sg40
g61
sg41
S'--'
p345
ssg63
(dp346
g5
S'--'
p347
sg7
S'--'
p348
sg9
g99
sg11
S'--'
p349
sg13
g10
sg14
S'Jordy Nelson'
p350
sg16
S'2011'
p351
sg18
S'13'
p352
sg20
S'--'
p353
sg22
S'12/04'
p354
sg24
S'23.5'
p355
sg26
S'--'
p356
sg28
S'--'
p357
sg30
S'W38-35'
p358
sg32
S'94'
p359
sg34
g35
sg36
S'@NYG'
p360
sg38
S'33'
p361
sg40
g99
sg41
S'--'
p362
ssg81
(dp363
g5
S'--'
p364
sg7
S'--'
p365
sg9
g10
sg11
S'--'
p366
sg13
g10
sg14
S'Jordy Nelson'
p367
sg16
S'2011'
p368
sg18
S'12'
p369
sg20
S'--'
p370
sg22
S'11/24'
p371
sg24
S'6.5'
p372
sg26
S'--'
p373
sg28
S'--'
p374
sg30
S'W27-15'
p375
sg32
S'26'
p376
sg34
g35
sg36
S'@DET'
p377
sg38
S'15'
p378
sg40
g99
sg41
S'--'
p379
ssg101
(dp380
g5
S'--'
p381
sg7
S'--'
p382
sg9
g10
sg11
S'--'
p383
sg13
g10
sg14
S'Jordy Nelson'
p384
sg16
S'2011'
p385
sg18
S'15'
p386
sg20
S'--'
p387
sg22
S'12/18'
p388
sg24
S'14.5'
p389
sg26
S'--'
p390
sg28
S'--'
p391
sg30
S'L14-19'
p392
sg32
S'29'
p393
sg34
g61
sg36
S'@KC'
p394
sg38
S'22'
p395
sg40
g99
sg41
S'--'
p396
ssg120
(dp397
g5
S'--'
p398
sg7
S'--'
p399
sg9
g10
sg11
S'--'
p400
sg13
g10
sg14
S'Jordy Nelson'
p401
sg16
S'2011'
p402
sg18
S'14'
p403
sg20
S'--'
p404
sg22
S'12/11'
p405
sg24
S'27.0'
p406
sg26
S'--'
p407
sg28
S'--'
p408
sg30
S'W46-16'
p409
sg32
S'81'
p410
sg34
g191
sg36
S'OAK'
p411
sg38
S'37T'
p412
sg40
g10
sg41
S'--'
p413
ssg138
(dp414
g5
S'--'
p415
sg7
S'--'
p416
sg9
g10
sg11
S'--'
p417
sg13
g10
sg14
S'Jordy Nelson'
p418
sg16
S'2011'
p419
sg18
S'17'
p420
sg20
S'--'
p421
sg22
S'01/01'
p422
sg24
S'18.0'
p423
sg26
S'--'
p424
sg28
S'--'
p425
sg30
S'W45-41'
p426
sg32
S'162'
p427
sg34
g171
sg36
S'DET'
p428
sg38
S'58T'
p429
sg40
g191
sg41
S'--'
p430
ssg156
(dp431
g5
S'--'
p432
sg7
S'--'
p433
sg9
g10
sg11
S'--'
p434
sg13
g10
sg14
S'Jordy Nelson'
p435
sg16
S'2011'
p436
sg18
S'16'
p437
sg20
S'--'
p438
sg22
S'12/25'
p439
sg24
S'19.2'
p440
sg26
S'--'
p441
sg28
S'--'
p442
sg30
S'W35-21'
p443
sg32
S'115'
p444
sg34
g58
sg36
S'CHI'
p445
sg38
S'55T'
p446
sg40
g61
sg41
S'--'
p447
ssg10
(dp448
g5
S'--'
p449
sg7
S'--'
p450
sg9
g10
sg11
S'--'
p451
sg13
g10
sg14
S'Jordy Nelson'
p452
sg16
S'2011'
p453
sg18
g10
sg20
S'--'
p454
sg22
S'09/08'
p455
sg24
S'12.8'
p456
sg26
S'--'
p457
sg28
S'--'
p458
sg30
S'W42-34'
p459
sg32
S'77'
p460
sg34
g58
sg36
S'NO'
p461
sg38
S'36'
p462
sg40
g10
sg41
S'--'
p463
ssg191
(dp464
g5
S'--'
p465
sg7
S'--'
p466
sg9
g99
sg11
S'--'
p467
sg13
g10
sg14
S'Jordy Nelson'
p468
sg16
S'2011'
p469
sg18
g191
sg20
S'--'
p470
sg22
S'09/25'
p471
sg24
S'13.3'
p472
sg26
S'--'
p473
sg28
S'--'
p474
sg30
S'W27-17'
p475
sg32
S'40'
p476
sg34
g191
sg36
S'@CHI'
p477
sg38
S'18'
p478
sg40
g99
sg41
S'--'
p479
ssg61
(dp480
g5
S'--'
p481
sg7
S'--'
p482
sg9
g99
sg11
S'--'
p483
sg13
g10
sg14
S'Jordy Nelson'
p484
sg16
S'2011'
p485
sg18
g61
sg20
S'--'
p486
sg22
S'09/18'
p487
sg24
S'84.0'
p488
sg26
S'--'
p489
sg28
S'--'
p490
sg30
S'W30-23'
p491
sg32
S'84'
p492
sg34
g10
sg36
S'@CAR'
p493
sg38
S'84T'
p494
sg40
g10
sg41
S'--'
p495
ssg116
(dp496
g5
S'--'
p497
sg7
S'--'
p498
sg9
g99
sg11
S'--'
p499
sg13
g10
sg14
S'Jordy Nelson'
p500
sg16
S'2011'
p501
sg18
g116
sg20
S'--'
p502
sg22
S'10/09'
p503
sg24
S'5.7'
p504
sg26
S'--'
p505
sg28
S'--'
p506
sg30
S'W25-14'
p507
sg32
S'17'
p508
sg34
g191
sg36
S'@ATL'
p509
sg38
g171
sg40
g99
sg41
S'--'
p510
ssg35
(dp511
g5
S'--'
p512
sg7
S'--'
p513
sg9
g10
sg11
S'--'
p514
sg13
g10
sg14
S'Jordy Nelson'
p515
sg16
S'2011'
p516
sg18
g35
sg20
S'--'
p517
sg22
S'10/02'
p518
sg24
S'18.2'
p519
sg26
S'--'
p520
sg28
S'--'
p521
sg30
S'W49-23'
p522
sg32
S'91'
p523
sg34
g116
sg36
S'DEN'
p524
sg38
S'50T'
p525
sg40
g10
sg41
S'--'
p526
ssg257
(dp527
g5
S'--'
p528
sg7
S'--'
p529
sg9
g99
sg11
S'--'
p530
sg13
g10
sg14
S'Jordy Nelson'
p531
sg16
S'2011'
p532
sg18
g257
sg20
S'--'
p533
sg22
S'10/23'
p534
sg24
S'13.0'
p535
sg26
S'--'
p536
sg28
S'--'
p537
sg30
S'W33-27'
p538
sg32
S'52'
p539
sg34
g35
sg36
S'@MIN'
p540
sg38
S'16'
p541
sg40
g99
sg41
S'--'
p542
ssg58
(dp543
g5
S'--'
p544
sg7
S'--'
p545
sg9
g10
sg11
S'--'
p546
sg13
g10
sg14
S'Jordy Nelson'
p547
sg16
S'2011'
p548
sg18
g58
sg20
S'--'
p549
sg22
S'10/16'
p550
sg24
S'52.0'
p551
sg26
S'--'
p552
sg28
S'--'
p553
sg30
S'W24-3'
p554
sg32
S'104'
p555
sg34
g61
sg36
S'STL'
p556
sg38
S'93T'
p557
sg40
g10
sg41
S'--'
p558
ssg171
(dp559
g5
S'--'
p560
sg7
S'--'
p561
sg9
g99
sg11
S'--'
p562
sg13
g10
sg14
S'Jordy Nelson'
p563
sg16
S'2011'
p564
sg18
g171
sg20
S'--'
p565
sg22
S'11/06'
p566
sg24
S'21.0'
p567
sg26
S'--'
p568
sg28
S'--'
p569
sg30
S'W45-38'
p570
sg32
S'105'
p571
sg34
g116
sg36
S'@SD'
p572
sg38
S'64'
p573
sg40
g10
sg41
S'--'
p574
ssg96
(dp575
g5
g291
sg7
g291
sg9
g291
sg11
g291
sg13
g291
sg14
S'Jordy Nelson'
p576
sg16
S'2011'
p577
sg18
g96
sg20
g291
sg22
S'Bye'
p578
sg24
g291
sg26
g291
sg28
g291
sg30
g291
sg32
g291
sg34
g291
sg36
g291
sg38
g291
sg40
g291
sg41
g291
sssS'2010'
p579
(dp580
g3
(dp581
g5
S'--'
p582
sg7
S'--'
p583
sg9
g99
sg11
S'--'
p584
sg13
g10
sg14
S'Jordy Nelson'
p585
sg16
S'2010'
p586
sg18
S'11'
p587
sg20
S'--'
p588
sg22
S'11/21'
p589
sg24
S'6.7'
p590
sg26
S'--'
p591
sg28
S'--'
p592
sg30
S'W31-3'
p593
sg32
S'20'
p594
sg34
g191
sg36
S'@MIN'
p595
sg38
g96
sg40
g99
sg41
S'--'
p596
ssg43
(dp597
g5
g291
sg7
g291
sg9
g291
sg11
g291
sg13
g291
sg14
S'Jordy Nelson'
p598
sg16
S'2010'
p599
sg18
S'10'
p600
sg20
g291
sg22
S'Bye'
p601
sg24
g291
sg26
g291
sg28
g291
sg30
g291
sg32
g291
sg34
g291
sg36
g291
sg38
g291
sg40
g291
sg41
g291
ssg63
(dp602
g5
S'--'
p603
sg7
S'--'
p604
sg9
g10
sg11
S'--'
p605
sg13
g10
sg14
S'Jordy Nelson'
p606
sg16
S'2010'
p607
sg18
S'13'
p608
sg20
S'--'
p609
sg22
S'12/05'
p610
sg24
S'7.5'
p611
sg26
S'--'
p612
sg28
S'--'
p613
sg30
S'W34-16'
p614
sg32
S'15'
p615
sg34
g61
sg36
S'SF'
p616
sg38
g171
sg40
g99
sg41
S'--'
p617
ssg81
(dp618
g5
S'--'
p619
sg7
S'--'
p620
sg9
g99
sg11
S'--'
p621
sg13
g10
sg14
S'Jordy Nelson'
p622
sg16
S'2010'
p623
sg18
S'12'
p624
sg20
S'--'
p625
sg22
S'11/28'
p626
sg24
S'12.2'
p627
sg26
S'--'
p628
sg28
S'--'
p629
sg30
S'L17-20'
p630
sg32
S'61'
p631
sg34
g116
sg36
S'@ATL'
p632
sg38
S'28'
p633
sg40
g10
sg41
S'--'
p634
ssg101
(dp635
g5
S'--'
p636
sg7
S'--'
p637
sg9
g10
sg11
S'--'
p638
sg13
g10
sg14
S'Jordy Nelson'
p639
sg16
S'2010'
p640
sg18
S'15'
p641
sg20
S'--'
p642
sg22
S'12/19'
p643
sg24
S'16.0'
p644
sg26
S'--'
p645
sg28
S'--'
p646
sg30
S'L27-31'
p647
sg32
S'16'
p648
sg34
g10
sg36
S'@NE'
p649
sg38
S'16'
p650
sg40
g99
sg41
S'--'
p651
ssg120
(dp652
g5
S'--'
p653
sg7
S'--'
p654
sg9
g99
sg11
S'--'
p655
sg13
g10
sg14
S'Jordy Nelson'
p656
sg16
S'2010'
p657
sg18
S'14'
p658
sg20
S'--'
p659
sg22
S'12/12'
p660
sg24
S'13.0'
p661
sg26
S'--'
p662
sg28
S'--'
p663
sg30
S'L3-7'
p664
sg32
S'26'
p665
sg34
g61
sg36
S'@DET'
p666
sg38
S'18'
p667
sg40
g99
sg41
S'--'
p668
ssg138
(dp669
g5
S'--'
p670
sg7
S'--'
p671
sg9
g99
sg11
S'--'
p672
sg13
g10
sg14
S'Jordy Nelson'
p673
sg16
S'2010'
p674
sg18
S'17'
p675
sg20
S'--'
p676
sg22
S'01/02'
p677
sg24
S'19.5'
p678
sg26
S'--'
p679
sg28
S'--'
p680
sg30
S'W10-3'
p681
sg32
S'39'
p682
sg34
g61
sg36
S'CHI'
p683
sg38
S'25'
p684
sg40
g99
sg41
S'--'
p685
ssg156
(dp686
g5
S'--'
p687
sg7
S'--'
p688
sg9
g99
sg11
g10
sg13
g10
sg14
S'Jordy Nelson'
p689
sg16
S'2010'
p690
sg18
S'16'
p691
sg20
S'--'
p692
sg22
S'12/26'
p693
sg24
S'31.0'
p694
sg26
g10
sg28
S'--'
p695
sg30
S'W45-17'
p696
sg32
S'124'
p697
sg34
g35
sg36
S'NYG'
p698
sg38
S'80T'
p699
sg40
g10
sg41
S'--'
p700
ssg10
(dp701
g5
S'--'
p702
sg7
S'--'
p703
sg9
g99
sg11
S'--'
p704
sg13
g10
sg14
S'Jordy Nelson'
p705
sg16
S'2010'
p706
sg18
g10
sg20
S'--'
p707
sg22
S'09/12'
p708
sg24
S'7.0'
p709
sg26
S'--'
p710
sg28
S'--'
p711
sg30
S'W27-20'
p712
sg32
g257
sg34
g10
sg36
S'@PHI'
p713
sg38
g257
sg40
g99
sg41
S'--'
p714
ssg191
(dp715
g5
S'--'
p716
sg7
S'--'
p717
sg9
g99
sg11
S'--'
p718
sg13
g10
sg14
S'Jordy Nelson'
p719
sg16
S'2010'
p720
sg18
g191
sg20
S'--'
p721
sg22
S'09/27'
p722
sg24
S'6.7'
p723
sg26
S'--'
p724
sg28
S'--'
p725
sg30
S'L17-20'
p726
sg32
S'20'
p727
sg34
g191
sg36
S'@CHI'
p728
sg38
g96
sg40
g99
sg41
S'--'
p729
ssg61
(dp730
g5
S'--'
p731
sg7
S'--'
p732
sg9
g99
sg11
S'--'
p733
sg13
g10
sg14
S'Jordy Nelson'
p734
sg16
S'2010'
p735
sg18
g61
sg20
S'--'
p736
sg22
S'09/19'
p737
sg24
S'13.0'
p738
sg26
S'--'
p739
sg28
S'--'
p740
sg30
S'W34-7'
p741
sg32
S'26'
p742
sg34
g61
sg36
S'BUF'
p743
sg38
S'15'
p744
sg40
g99
sg41
S'--'
p745
ssg116
(dp746
g5
S'--'
p747
sg7
S'--'
p748
sg9
g99
sg11
S'--'
p749
sg13
g10
sg14
S'Jordy Nelson'
p750
sg16
S'2010'
p751
sg18
g116
sg20
S'--'
p752
sg22
S'10/10'
p753
sg24
S'14.0'
p754
sg26
S'--'
p755
sg28
S'--'
p756
sg30
S'L13-16'
p757
sg32
S'42'
p758
sg34
g191
sg36
S'@WAS'
p759
sg38
S'25'
p760
sg40
g99
sg41
S'--'
p761
ssg35
(dp762
g5
S'--'
p763
sg7
S'--'
p764
sg9
g99
sg11
g61
sg13
g10
sg14
S'Jordy Nelson'
p765
sg16
S'2010'
p766
sg18
g35
sg20
S'--'
p767
sg22
S'10/03'
p768
sg24
S'--'
p769
sg26
g61
sg28
S'--'
p770
sg30
S'W28-26'
p771
sg32
g99
sg34
g99
sg36
S'DET'
p772
sg38
S'--'
p773
sg40
g99
sg41
S'--'
p774
ssg257
(dp775
g5
S'--'
p776
sg7
S'--'
p777
sg9
g99
sg11
S'--'
p778
sg13
g10
sg14
S'Jordy Nelson'
p779
sg16
S'2010'
p780
sg18
g257
sg20
S'--'
p781
sg22
S'10/24'
p782
sg24
S'6.3'
p783
sg26
S'--'
p784
sg28
S'--'
p785
sg30
S'W28-24'
p786
sg32
S'25'
p787
sg34
g35
sg36
S'MIN'
p788
sg38
g96
sg40
g99
sg41
S'--'
p789
ssg58
(dp790
g5
S'--'
p791
sg7
S'--'
p792
sg9
g10
sg11
S'--'
p793
sg13
g10
sg14
S'Jordy Nelson'
p794
sg16
S'2010'
p795
sg18
g58
sg20
S'--'
p796
sg22
S'10/17'
p797
sg24
S'16.0'
p798
sg26
S'--'
p799
sg28
S'--'
p800
sg30
S'L20-23'
p801
sg32
S'64'
p802
sg34
g35
sg36
S'MIA'
p803
sg38
S'24'
p804
sg40
g99
sg41
S'--'
p805
ssg171
(dp806
g5
S'--'
p807
sg7
S'--'
p808
sg9
g10
sg11
S'--'
p809
sg13
g10
sg14
S'Jordy Nelson'
p810
sg16
S'2010'
p811
sg18
g171
sg20
S'--'
p812
sg22
S'11/07'
p813
sg24
S'10.5'
p814
sg26
S'--'
p815
sg28
S'--'
p816
sg30
S'W45-7'
p817
sg32
S'42'
p818
sg34
g35
sg36
S'DAL'
p819
sg38
S'27'
p820
sg40
g99
sg41
S'--'
p821
ssg96
(dp822
g5
S'--'
p823
sg7
S'--'
p824
sg9
g99
sg11
S'--'
p825
sg13
g10
sg14
S'Jordy Nelson'
p826
sg16
S'2010'
p827
sg18
g96
sg20
S'--'
p828
sg22
S'10/31'
p829
sg24
S'11.0'
p830
sg26
S'--'
p831
sg28
S'--'
p832
sg30
S'W9-0'
p833
sg32
S'55'
p834
sg34
g116
sg36
S'@NYJ'
p835
sg38
S'19'
p836
sg40
g99
sg41
S'--'
p837
sssS'2013'
p838
(dp839
g3
(dp840
g5
S'--'
p841
sg7
S'--'
p842
sg9
g10
sg11
S'--'
p843
sg13
g10
sg14
S'Jordy Nelson'
p844
sg16
S'2013'
p845
sg18
S'11'
p846
sg20
S'--'
p847
sg22
S'11/17'
p848
sg24
S'14.6'
p849
sg26
S'--'
p850
sg28
S'--'
p851
sg30
S'L13-27'
p852
sg32
S'117'
p853
sg34
g96
sg36
S'@NYG'
p854
sg38
S'29'
p855
sg40
g99
sg41
S'--'
p856
ssg43
(dp857
g5
S'--'
p858
sg7
S'--'
p859
sg9
g10
sg11
S'--'
p860
sg13
g10
sg14
S'Jordy Nelson'
p861
sg16
S'2013'
p862
sg18
S'10'
p863
sg20
S'--'
p864
sg22
S'11/10'
p865
sg24
S'9.3'
p866
sg26
S'--'
p867
sg28
S'--'
p868
sg30
S'L13-27'
p869
sg32
S'56'
p870
sg34
g58
sg36
S'PHI'
p871
sg38
S'30'
p872
sg40
g99
sg41
S'--'
p873
ssg63
(dp874
g5
S'--'
p875
sg7
S'--'
p876
sg9
g10
sg11
S'--'
p877
sg13
g10
sg14
S'Jordy Nelson'
p878
sg16
S'2013'
p879
sg18
S'13'
p880
sg20
S'--'
p881
sg22
S'11/28'
p882
sg24
S'7.0'
p883
sg26
S'--'
p884
sg28
S'--'
p885
sg30
S'L10-40'
p886
sg32
S'14'
p887
sg34
g61
sg36
S'@DET'
p888
sg38
g171
sg40
g99
sg41
S'--'
p889
ssg81
(dp890
g5
S'--'
p891
sg7
S'--'
p892
sg9
g10
sg11
S'--'
p893
sg13
g10
sg14
S'Jordy Nelson'
p894
sg16
S'2013'
p895
sg18
S'12'
p896
sg20
S'--'
p897
sg22
S'11/24'
p898
sg24
S'14.5'
p899
sg26
S'--'
p900
sg28
S'--'
p901
sg30
S'T26-26'
p902
sg32
S'58'
p903
sg34
g35
sg36
S'MIN'
p904
sg38
S'34'
p905
sg40
g99
sg41
S'--'
p906
ssg101
(dp907
g5
S'--'
p908
sg7
S'--'
p909
sg9
g10
sg11
S'--'
p910
sg13
g10
sg14
S'Jordy Nelson'
p911
sg16
S'2013'
p912
sg18
S'15'
p913
sg20
S'--'
p914
sg22
S'12/15'
p915
sg24
S'12.2'
p916
sg26
S'--'
p917
sg28
S'--'
p918
sg30
S'W37-36'
p919
sg32
S'61'
p920
sg34
g116
sg36
S'@DAL'
p921
sg38
S'21'
p922
sg40
g10
sg41
S'--'
p923
ssg120
(dp924
g5
S'--'
p925
sg7
S'--'
p926
sg9
g10
sg11
S'--'
p927
sg13
g10
sg14
S'Jordy Nelson'
p928
sg16
S'2013'
p929
sg18
S'14'
p930
sg20
S'--'
p931
sg22
S'12/08'
p932
sg24
S'21.3'
p933
sg26
S'--'
p934
sg28
S'--'
p935
sg30
S'W22-21'
p936
sg32
S'85'
p937
sg34
g35
sg36
S'ATL'
p938
sg38
S'46'
p939
sg40
g99
sg41
S'--'
p940
ssg138
(dp941
g5
S'--'
p942
sg7
S'--'
p943
sg9
g10
sg11
S'--'
p944
sg13
g10
sg14
S'Jordy Nelson'
p945
sg16
S'2013'
p946
sg18
S'17'
p947
sg20
S'--'
p948
sg22
S'12/29'
p949
sg24
S'16.1'
p950
sg26
S'--'
p951
sg28
S'--'
p952
sg30
S'W33-28'
p953
sg32
S'161'
p954
sg34
S'10'
p955
sg36
S'@CHI'
p956
sg38
S'34'
p957
sg40
g99
sg41
S'--'
p958
ssg156
(dp959
g5
S'--'
p960
sg7
S'--'
p961
sg9
g10
sg11
S'--'
p962
sg13
g10
sg14
S'Jordy Nelson'
p963
sg16
S'2013'
p964
sg18
S'16'
p965
sg20
S'--'
p966
sg22
S'12/22'
p967
sg24
S'15.3'
p968
sg26
S'--'
p969
sg28
S'--'
p970
sg30
S'L31-38'
p971
sg32
S'46'
p972
sg34
g191
sg36
S'PIT'
p973
sg38
S'31'
p974
sg40
g99
sg41
S'--'
p975
ssg10
(dp976
g5
S'--'
p977
sg7
S'--'
p978
sg9
g10
sg11
S'--'
p979
sg13
g10
sg14
S'Jordy Nelson'
p980
sg16
S'2013'
p981
sg18
g10
sg20
S'--'
p982
sg22
S'09/08'
p983
sg24
S'18.6'
p984
sg26
S'--'
p985
sg28
S'--'
p986
sg30
S'L28-34'
p987
sg32
S'130'
p988
sg34
g257
sg36
S'@SF'
p989
sg38
S'37'
p990
sg40
g10
sg41
S'--'
p991
ssg191
(dp992
g5
S'--'
p993
sg7
S'--'
p994
sg9
g10
sg11
S'--'
p995
sg13
g10
sg14
S'Jordy Nelson'
p996
sg16
S'2013'
p997
sg18
g191
sg20
S'--'
p998
sg22
S'09/22'
p999
sg24
S'11.6'
p1000
sg26
S'--'
p1001
sg28
S'--'
p1002
sg30
S'L30-34'
p1003
sg32
S'93'
p1004
sg34
g96
sg36
S'@CIN'
p1005
sg38
S'30'
p1006
sg40
g99
sg41
S'--'
p1007
ssg61
(dp1008
g5
S'--'
p1009
sg7
S'--'
p1010
sg9
g10
sg11
S'--'
p1011
sg13
g10
sg14
S'Jordy Nelson'
p1012
sg16
S'2013'
p1013
sg18
g61
sg20
S'--'
p1014
sg22
S'09/15'
p1015
sg24
S'22.0'
p1016
sg26
S'--'
p1017
sg28
S'--'
p1018
sg30
S'W38-20'
p1019
sg32
S'66'
p1020
sg34
g191
sg36
S'WAS'
p1021
sg38
S'37'
p1022
sg40
g61
sg41
S'--'
p1023
ssg116
(dp1024
g5
S'--'
p1025
sg7
S'--'
p1026
sg9
g10
sg11
S'--'
p1027
sg13
g10
sg14
S'Jordy Nelson'
p1028
sg16
S'2013'
p1029
sg18
g116
sg20
S'--'
p1030
sg22
S'10/06'
p1031
sg24
S'16.4'
p1032
sg26
S'--'
p1033
sg28
S'--'
p1034
sg30
S'W22-9'
p1035
sg32
S'82'
p1036
sg34
g116
sg36
S'DET'
p1037
sg38
S'31'
p1038
sg40
g99
sg41
S'--'
p1039
ssg35
(dp1040
g5
g291
sg7
g291
sg9
g291
sg11
g291
sg13
g291
sg14
S'Jordy Nelson'
p1041
sg16
S'2013'
p1042
sg18
g35
sg20
g291
sg22
S'Bye'
p1043
sg24
g291
sg26
g291
sg28
g291
sg30
g291
sg32
g291
sg34
g291
sg36
g291
sg38
g291
sg40
g291
sg41
g291
ssg257
(dp1044
g5
S'--'
p1045
sg7
S'--'
p1046
sg9
g10
sg11
S'--'
p1047
sg13
g10
sg14
S'Jordy Nelson'
p1048
sg16
S'2013'
p1049
sg18
g257
sg20
S'--'
p1050
sg22
S'10/20'
p1051
sg24
S'8.4'
p1052
sg26
S'--'
p1053
sg28
S'--'
p1054
sg30
S'W31-13'
p1055
sg32
S'42'
p1056
sg34
g116
sg36
S'CLE'
p1057
sg38
S'17'
p1058
sg40
g10
sg41
S'--'
p1059
ssg58
(dp1060
g5
S'--'
p1061
sg7
S'--'
p1062
sg9
g10
sg11
S'--'
p1063
sg13
g10
sg14
S'Jordy Nelson'
p1064
sg16
S'2013'
p1065
sg18
g58
sg20
S'--'
p1066
sg22
S'10/13'
p1067
sg24
S'28.3'
p1068
sg26
S'--'
p1069
sg28
S'--'
p1070
sg30
S'W19-17'
p1071
sg32
S'113'
p1072
sg34
g35
sg36
S'@BAL'
p1073
sg38
S'64T'
p1074
sg40
g10
sg41
S'--'
p1075
ssg171
(dp1076
g5
S'--'
p1077
sg7
S'--'
p1078
sg9
g10
sg11
S'--'
p1079
sg13
g10
sg14
S'Jordy Nelson'
p1080
sg16
S'2013'
p1081
sg18
g171
sg20
S'--'
p1082
sg22
S'11/04'
p1083
sg24
S'16.8'
p1084
sg26
S'--'
p1085
sg28
S'--'
p1086
sg30
S'L20-27'
p1087
sg32
S'67'
p1088
sg34
g35
sg36
S'CHI'
p1089
sg38
S'27'
p1090
sg40
g99
sg41
S'--'
p1091
ssg96
(dp1092
g5
S'--'
p1093
sg7
S'--'
p1094
sg9
g10
sg11
S'--'
p1095
sg13
g10
sg14
S'Jordy Nelson'
p1096
sg16
S'2013'
p1097
sg18
g96
sg20
S'--'
p1098
sg22
S'10/27'
p1099
sg24
S'17.6'
p1100
sg26
S'--'
p1101
sg28
S'--'
p1102
sg30
S'W44-31'
p1103
sg32
S'123'
p1104
sg34
g257
sg36
S'@MIN'
p1105
sg38
S'76T'
p1106
sg40
g61
sg41
S'--'
p1107
sssS'2012'
p1108
(dp1109
g3
(dp1110
g5
S'--'
p1111
sg7
S'--'
p1112
sg9
g10
sg11
S'--'
p1113
sg13
g10
sg14
S'Jordy Nelson'
p1114
sg16
S'2012'
p1115
sg18
S'11'
p1116
sg20
S'--'
p1117
sg22
S'11/18'
p1118
sg24
S'15.0'
p1119
sg26
S'--'
p1120
sg28
S'--'
p1121
sg30
S'W24-20'
p1122
sg32
S'45'
p1123
sg34
g191
sg36
S'@DET'
p1124
sg38
S'19'
p1125
sg40
g99
sg41
S'--'
p1126
ssg43
(dp1127
g5
g291
sg7
g291
sg9
g291
sg11
g291
sg13
g291
sg14
S'Jordy Nelson'
p1128
sg16
S'2012'
p1129
sg18
S'10'
p1130
sg20
g291
sg22
S'Bye'
p1131
sg24
g291
sg26
g291
sg28
g291
sg30
g291
sg32
g291
sg34
g291
sg36
g291
sg38
g291
sg40
g291
sg41
g291
ssg63
(dp1132
g5
S'--'
p1133
sg7
S'--'
p1134
sg9
g10
sg11
S'--'
p1135
sg13
g10
sg14
S'Jordy Nelson'
p1136
sg16
S'2012'
p1137
sg18
S'13'
p1138
sg20
S'--'
p1139
sg22
S'12/02'
p1140
sg24
S'10.0'
p1141
sg26
S'--'
p1142
sg28
S'--'
p1143
sg30
S'W23-14'
p1144
sg32
S'10'
p1145
sg34
g10
sg36
S'MIN'
p1146
sg38
S'10'
p1147
sg40
g99
sg41
S'--'
p1148
ssg81
(dp1149
g5
S'--'
p1150
sg7
S'--'
p1151
sg9
g10
sg11
S'--'
p1152
sg13
g10
sg14
S'Jordy Nelson'
p1153
sg16
S'2012'
p1154
sg18
S'12'
p1155
sg20
S'--'
p1156
sg22
S'11/25'
p1157
sg24
S'35.5'
p1158
sg26
S'--'
p1159
sg28
S'--'
p1160
sg30
S'L10-38'
p1161
sg32
S'71'
p1162
sg34
g61
sg36
S'@NYG'
p1163
sg38
S'61T'
p1164
sg40
g10
sg41
S'--'
p1165
ssg101
(dp1166
g5
S'--'
p1167
sg7
S'--'
p1168
sg9
g99
sg11
S'--'
p1169
sg13
g99
sg14
S'Jordy Nelson'
p1170
sg16
S'2012'
p1171
sg18
S'15'
p1172
sg20
S'--'
p1173
sg22
S'12/16'
p1174
sg24
S'--'
p1175
sg26
S'--'
p1176
sg28
S'--'
p1177
sg30
S'W21-13'
p1178
sg32
S'--'
p1179
sg34
S'--'
p1180
sg36
S'@CHI'
p1181
sg38
S'--'
p1182
sg40
S'--'
p1183
sg41
S'--'
p1184
ssg120
(dp1185
g5
S'--'
p1186
sg7
S'--'
p1187
sg9
g99
sg11
S'--'
p1188
sg13
g99
sg14
S'Jordy Nelson'
p1189
sg16
S'2012'
p1190
sg18
S'14'
p1191
sg20
S'--'
p1192
sg22
S'12/09'
p1193
sg24
S'--'
p1194
sg26
S'--'
p1195
sg28
S'--'
p1196
sg30
S'W27-20'
p1197
sg32
S'--'
p1198
sg34
S'--'
p1199
sg36
S'DET'
p1200
sg38
S'--'
p1201
sg40
S'--'
p1202
sg41
S'--'
p1203
ssg138
(dp1204
g5
S'--'
p1205
sg7
S'--'
p1206
sg9
g10
sg11
S'--'
p1207
sg13
g10
sg14
S'Jordy Nelson'
p1208
sg16
S'2012'
p1209
sg18
S'17'
p1210
sg20
S'--'
p1211
sg22
S'12/30'
p1212
sg24
S'29.0'
p1213
sg26
S'--'
p1214
sg28
S'--'
p1215
sg30
S'L34-37'
p1216
sg32
S'87'
p1217
sg34
g191
sg36
S'@MIN'
p1218
sg38
S'73'
p1219
sg40
g10
sg41
S'--'
p1220
ssg156
(dp1221
g5
S'--'
p1222
sg7
S'--'
p1223
sg9
g99
sg11
S'--'
p1224
sg13
g99
sg14
S'Jordy Nelson'
p1225
sg16
S'2012'
p1226
sg18
S'16'
p1227
sg20
S'--'
p1228
sg22
S'12/23'
p1229
sg24
S'--'
p1230
sg26
S'--'
p1231
sg28
S'--'
p1232
sg30
S'W55-7'
p1233
sg32
S'--'
p1234
sg34
S'--'
p1235
sg36
S'TEN'
p1236
sg38
S'--'
p1237
sg40
S'--'
p1238
sg41
S'--'
p1239
ssg10
(dp1240
g5
S'--'
p1241
sg7
S'--'
p1242
sg9
g10
sg11
S'--'
p1243
sg13
g10
sg14
S'Jordy Nelson'
p1244
sg16
S'2012'
p1245
sg18
g10
sg20
S'--'
p1246
sg22
S'09/09'
p1247
sg24
S'12.8'
p1248
sg26
S'--'
p1249
sg28
S'--'
p1250
sg30
S'L22-30'
p1251
sg32
S'64'
p1252
sg34
g116
sg36
S'SF'
p1253
sg38
S'28'
p1254
sg40
g99
sg41
S'--'
p1255
ssg191
(dp1256
g5
S'--'
p1257
sg7
S'--'
p1258
sg9
g10
sg11
S'--'
p1259
sg13
g10
sg14
S'Jordy Nelson'
p1260
sg16
S'2012'
p1261
sg18
g191
sg20
S'--'
p1262
sg22
S'09/24'
p1263
sg24
S'9.5'
p1264
sg26
S'--'
p1265
sg28
S'--'
p1266
sg30
S'L12-14'
p1267
sg32
S'19'
p1268
sg34
g61
sg36
S'@SEA'
p1269
sg38
S'13'
p1270
sg40
g99
sg41
S'--'
p1271
ssg61
(dp1272
g5
S'--'
p1273
sg7
S'--'
p1274
sg9
g10
sg11
S'--'
p1275
sg13
g10
sg14
S'Jordy Nelson'
p1276
sg16
S'2012'
p1277
sg18
g61
sg20
S'--'
p1278
sg22
S'09/13'
p1279
sg24
S'14.0'
p1280
sg26
S'--'
p1281
sg28
S'--'
p1282
sg30
S'W23-10'
p1283
sg32
S'84'
p1284
sg34
g58
sg36
S'CHI'
p1285
sg38
S'26'
p1286
sg40
g99
sg41
S'--'
p1287
ssg116
(dp1288
g5
S'--'
p1289
sg7
S'--'
p1290
sg9
g99
sg11
S'--'
p1291
sg13
g10
sg14
S'Jordy Nelson'
p1292
sg16
S'2012'
p1293
sg18
g116
sg20
S'--'
p1294
sg22
S'10/07'
p1295
sg24
S'14.5'
p1296
sg26
S'--'
p1297
sg28
S'--'
p1298
sg30
S'L27-30'
p1299
sg32
S'29'
p1300
sg34
g61
sg36
S'@IND'
p1301
sg38
S'19'
p1302
sg40
g99
sg41
S'--'
p1303
ssg35
(dp1304
g5
S'--'
p1305
sg7
S'--'
p1306
sg9
g99
sg11
S'--'
p1307
sg13
g10
sg14
S'Jordy Nelson'
p1308
sg16
S'2012'
p1309
sg18
g35
sg20
S'--'
p1310
sg22
S'09/30'
p1311
sg24
S'11.6'
p1312
sg26
S'--'
p1313
sg28
S'--'
p1314
sg30
S'W28-27'
p1315
sg32
S'93'
p1316
sg34
g96
sg36
S'NO'
p1317
sg38
S'18'
p1318
sg40
g10
sg41
S'--'
p1319
ssg257
(dp1320
g5
S'--'
p1321
sg7
S'--'
p1322
sg9
g10
sg11
S'--'
p1323
sg13
g10
sg14
S'Jordy Nelson'
p1324
sg16
S'2012'
p1325
sg18
g257
sg20
S'--'
p1326
sg22
S'10/21'
p1327
sg24
S'15.3'
p1328
sg26
S'--'
p1329
sg28
S'--'
p1330
sg30
S'W30-20'
p1331
sg32
S'122'
p1332
sg34
g96
sg36
S'@STL'
p1333
sg38
S'52'
p1334
sg40
g10
sg41
S'--'
p1335
ssg58
(dp1336
g5
S'--'
p1337
sg7
S'--'
p1338
sg9
g10
sg11
S'--'
p1339
sg13
g10
sg14
S'Jordy Nelson'
p1340
sg16
S'2012'
p1341
sg18
g58
sg20
S'--'
p1342
sg22
S'10/14'
p1343
sg24
S'13.4'
p1344
sg26
S'--'
p1345
sg28
S'--'
p1346
sg30
S'W42-24'
p1347
sg32
S'121'
p1348
sg34
g171
sg36
S'@HOU'
p1349
sg38
S'41T'
p1350
sg40
g191
sg41
S'--'
p1351
ssg171
(dp1352
g5
S'--'
p1353
sg7
S'--'
p1354
sg9
g10
sg11
S'--'
p1355
sg13
g10
sg14
S'Jordy Nelson'
p1356
sg16
S'2012'
p1357
sg18
g171
sg20
S'--'
p1358
sg22
S'11/04'
p1359
sg24
S'--'
p1360
sg26
S'--'
p1361
sg28
S'--'
p1362
sg30
S'W31-17'
p1363
sg32
g99
sg34
g99
sg36
S'ARI'
p1364
sg38
S'--'
p1365
sg40
g99
sg41
S'--'
p1366
ssg96
(dp1367
g5
S'--'
p1368
sg7
S'--'
p1369
sg9
g99
sg11
S'--'
p1370
sg13
g99
sg14
S'Jordy Nelson'
p1371
sg16
S'2012'
p1372
sg18
g96
sg20
S'--'
p1373
sg22
S'10/28'
p1374
sg24
S'--'
p1375
sg26
S'--'
p1376
sg28
S'--'
p1377
sg30
S'W24-15'
p1378
sg32
S'--'
p1379
sg34
S'--'
p1380
sg36
S'JAC'
p1381
sg38
S'--'
p1382
sg40
S'--'
p1383
sg41
S'--'
p1384
sss.