(dp0
S'2015'
p1
(dp2
S'13'
p3
(dp4
S'RushTD'
p5
S'--'
p6
sS'RushYds'
p7
S'--'
p8
sS'GS'
p9
S'1'
p10
sS'Lost'
p11
S'--'
p12
sS'G'
p13
g10
sS'Player'
p14
S'Josh Gordon'
p15
sS'Year'
p16
S'2015'
p17
sS'WK'
p18
S'13'
p19
sS'RushAvg'
p20
S'--'
p21
sS'Game Date'
p22
S'11/30'
p23
sS'RecAvg'
p24
S'10.7'
p25
sS'FUM'
p26
S'--'
p27
sS'RushAtt'
p28
S'--'
p29
sS'Result'
p30
S'L10-26'
p31
sS'RecYds'
p32
S'75'
p33
sS'Rec'
p34
S'7'
p35
sS'Opp'
p36
S'@BUF'
p37
sS'RecLng'
p38
S'18'
p39
sS'RecTD'
p40
S'0'
p41
sS'RushLng'
p42
S'--'
p43
ssS'12'
p44
(dp45
g5
S'--'
p46
sg7
S'--'
p47
sg9
g10
sg11
S'--'
p48
sg13
g10
sg14
S'Josh Gordon'
p49
sg16
S'2015'
p50
sg18
S'12'
p51
sg20
S'--'
p52
sg22
S'11/23'
p53
sg24
S'15.0'
p54
sg26
S'--'
p55
sg28
S'--'
p56
sg30
S'W26-24'
p57
sg32
S'120'
p58
sg34
S'8'
p59
sg36
S'@ATL'
p60
sg38
S'24'
p61
sg40
g41
sg42
S'--'
p62
ssS'15'
p63
(dp64
g5
S'--'
p65
sg7
S'--'
p66
sg9
g10
sg11
S'--'
p67
sg13
g10
sg14
S'Josh Gordon'
p68
sg16
S'2015'
p69
sg18
S'15'
p70
sg20
S'--'
p71
sg22
S'12/14'
p72
sg24
S'16.0'
p73
sg26
S'--'
p74
sg28
S'--'
p75
sg30
S'L0-30'
p76
sg32
S'48'
p77
sg34
S'3'
p78
sg36
S'CIN'
p79
sg38
S'32'
p80
sg40
g41
sg42
S'--'
p81
ssS'14'
p82
(dp83
g5
S'--'
p84
sg7
S'--'
p85
sg9
g10
sg11
S'--'
p86
sg13
g10
sg14
S'Josh Gordon'
p87
sg16
S'2015'
p88
sg18
S'14'
p89
sg20
S'--'
p90
sg22
S'12/07'
p91
sg24
S'7.5'
p92
sg26
S'--'
p93
sg28
S'--'
p94
sg30
S'L24-25'
p95
sg32
S'15'
p96
sg34
S'2'
p97
sg36
S'IND'
p98
sg38
S'9'
p99
sg40
g41
sg42
S'--'
p100
ssS'16'
p101
(dp102
g5
S'--'
p103
sg7
S'--'
p104
sg9
g10
sg11
S'--'
p105
sg13
g10
sg14
S'Josh Gordon'
p106
sg16
S'2015'
p107
sg18
S'16'
p108
sg20
S'--'
p109
sg22
S'12/21'
p110
sg24
S'11.3'
p111
sg26
S'--'
p112
sg28
S'--'
p113
sg30
S'L13-17'
p114
sg32
S'45'
p115
sg34
S'4'
p116
sg36
S'@CAR'
p117
sg38
S'18'
p118
sg40
g41
sg42
S'--'
p119
sssS'2014'
p120
(dp121
g3
(dp122
g5
S'--'
p123
sg7
S'--'
p124
sg9
g10
sg11
S'--'
p125
sg13
g10
sg14
S'Josh Gordon'
p126
sg16
S'2014'
p127
sg18
S'13'
p128
sg20
S'--'
p129
sg22
S'11/30'
p130
sg24
S'10.7'
p131
sg26
S'--'
p132
sg28
S'--'
p133
sg30
S'L10-26'
p134
sg32
S'75'
p135
sg34
g35
sg36
S'@BUF'
p136
sg38
S'18'
p137
sg40
g41
sg42
S'--'
p138
ssg44
(dp139
g5
S'--'
p140
sg7
S'--'
p141
sg9
g10
sg11
S'--'
p142
sg13
g10
sg14
S'Josh Gordon'
p143
sg16
S'2014'
p144
sg18
S'12'
p145
sg20
S'--'
p146
sg22
S'11/23'
p147
sg24
S'15.0'
p148
sg26
S'--'
p149
sg28
S'--'
p150
sg30
S'W26-24'
p151
sg32
S'120'
p152
sg34
g59
sg36
S'@ATL'
p153
sg38
S'24'
p154
sg40
g41
sg42
S'--'
p155
ssg63
(dp156
g5
S'--'
p157
sg7
S'--'
p158
sg9
g10
sg11
S'--'
p159
sg13
g10
sg14
S'Josh Gordon'
p160
sg16
S'2014'
p161
sg18
S'15'
p162
sg20
S'--'
p163
sg22
S'12/14'
p164
sg24
S'16.0'
p165
sg26
S'--'
p166
sg28
S'--'
p167
sg30
S'L0-30'
p168
sg32
S'48'
p169
sg34
g78
sg36
S'CIN'
p170
sg38
S'32'
p171
sg40
g41
sg42
S'--'
p172
ssg82
(dp173
g5
S'--'
p174
sg7
S'--'
p175
sg9
g10
sg11
S'--'
p176
sg13
g10
sg14
S'Josh Gordon'
p177
sg16
S'2014'
p178
sg18
S'14'
p179
sg20
S'--'
p180
sg22
S'12/07'
p181
sg24
S'7.5'
p182
sg26
S'--'
p183
sg28
S'--'
p184
sg30
S'L24-25'
p185
sg32
S'15'
p186
sg34
g97
sg36
S'IND'
p187
sg38
g99
sg40
g41
sg42
S'--'
p188
ssg101
(dp189
g5
S'--'
p190
sg7
S'--'
p191
sg9
g10
sg11
S'--'
p192
sg13
g10
sg14
S'Josh Gordon'
p193
sg16
S'2014'
p194
sg18
S'16'
p195
sg20
S'--'
p196
sg22
S'12/21'
p197
sg24
S'11.3'
p198
sg26
S'--'
p199
sg28
S'--'
p200
sg30
S'L13-17'
p201
sg32
S'45'
p202
sg34
g116
sg36
S'@CAR'
p203
sg38
S'18'
p204
sg40
g41
sg42
S'--'
p205
sssS'2013'
p206
(dp207
S'11'
p208
(dp209
g5
S'--'
p210
sg7
S'--'
p211
sg9
g10
sg11
S'--'
p212
sg13
g10
sg14
S'Josh Gordon'
p213
sg16
S'2013'
p214
sg18
S'11'
p215
sg20
S'--'
p216
sg22
S'11/17'
p217
sg24
S'25.0'
p218
sg26
S'--'
p219
sg28
S'--'
p220
sg30
S'L20-41'
p221
sg32
S'125'
p222
sg34
S'5'
p223
sg36
S'@CIN'
p224
sg38
S'74T'
p225
sg40
g10
sg42
S'--'
p226
ssS'10'
p227
(dp228
g5
S''
p229
sg7
g229
sg9
g229
sg11
g229
sg13
g229
sg14
S'Josh Gordon'
p230
sg16
S'2013'
p231
sg18
S'10'
p232
sg20
g229
sg22
S'Bye'
p233
sg24
g229
sg26
g229
sg28
g229
sg30
g229
sg32
g229
sg34
g229
sg36
g229
sg38
g229
sg40
g229
sg42
g229
ssg3
(dp234
g5
S'--'
p235
sg7
S'--'
p236
sg9
g10
sg11
S'--'
p237
sg13
g10
sg14
S'Josh Gordon'
p238
sg16
S'2013'
p239
sg18
S'13'
p240
sg20
S'--'
p241
sg22
S'12/01'
p242
sg24
S'26.1'
p243
sg26
S'--'
p244
sg28
S'--'
p245
sg30
S'L28-32'
p246
sg32
S'261'
p247
sg34
S'10'
p248
sg36
S'JAC'
p249
sg38
S'95T'
p250
sg40
g97
sg42
S'--'
p251
ssg44
(dp252
g5
S'--'
p253
sg7
S'--'
p254
sg9
g10
sg11
S'--'
p255
sg13
g10
sg14
S'Josh Gordon'
p256
sg16
S'2013'
p257
sg18
S'12'
p258
sg20
S'--'
p259
sg22
S'11/24'
p260
sg24
S'16.9'
p261
sg26
S'--'
p262
sg28
S'--'
p263
sg30
S'L11-27'
p264
sg32
S'237'
p265
sg34
S'14'
p266
sg36
S'PIT'
p267
sg38
S'47'
p268
sg40
g10
sg42
S'--'
p269
ssg63
(dp270
g5
S'--'
p271
sg7
S'--'
p272
sg9
g10
sg11
S'--'
p273
sg13
g10
sg14
S'Josh Gordon'
p274
sg16
S'2013'
p275
sg18
S'15'
p276
sg20
S'--'
p277
sg22
S'12/15'
p278
sg24
S'22.3'
p279
sg26
S'--'
p280
sg28
S'--'
p281
sg30
S'L31-38'
p282
sg32
S'67'
p283
sg34
g78
sg36
S'CHI'
p284
sg38
S'43T'
p285
sg40
g10
sg42
S'--'
p286
ssg82
(dp287
g5
g41
sg7
S'34'
p288
sg9
g10
sg11
S'--'
p289
sg13
g10
sg14
S'Josh Gordon'
p290
sg16
S'2013'
p291
sg18
S'14'
p292
sg20
S'34.0'
p293
sg22
S'12/08'
p294
sg24
S'21.6'
p295
sg26
S'--'
p296
sg28
g10
sg30
S'L26-27'
p297
sg32
S'151'
p298
sg34
g35
sg36
S'@NE'
p299
sg38
S'80T'
p300
sg40
g10
sg42
S'34'
p301
ssS'17'
p302
(dp303
g5
S'--'
p304
sg7
S'--'
p305
sg9
g10
sg11
S'--'
p306
sg13
g10
sg14
S'Josh Gordon'
p307
sg16
S'2013'
p308
sg18
S'17'
p309
sg20
S'--'
p310
sg22
S'12/29'
p311
sg24
S'11.7'
p312
sg26
S'--'
p313
sg28
S'--'
p314
sg30
S'L7-20'
p315
sg32
S'82'
p316
sg34
g35
sg36
S'@PIT'
p317
sg38
S'20'
p318
sg40
g41
sg42
S'--'
p319
ssg101
(dp320
g5
g41
sg7
S'22'
p321
sg9
g10
sg11
S'--'
p322
sg13
g10
sg14
S'Josh Gordon'
p323
sg16
S'2013'
p324
sg18
S'16'
p325
sg20
S'22.0'
p326
sg22
S'12/22'
p327
sg24
S'16.2'
p328
sg26
S'--'
p329
sg28
g10
sg30
S'L13-24'
p330
sg32
S'97'
p331
sg34
S'6'
p332
sg36
S'@NYJ'
p333
sg38
S'24'
p334
sg40
g41
sg42
S'22'
p335
ssg78
(dp336
g5
g41
sg7
S'22'
p337
sg9
g10
sg11
S'--'
p338
sg13
g10
sg14
S'Josh Gordon'
p339
sg16
S'2013'
p340
sg18
g78
sg20
S'22.0'
p341
sg22
S'09/22'
p342
sg24
S'14.6'
p343
sg26
S'--'
p344
sg28
g10
sg30
S'W31-27'
p345
sg32
S'146'
p346
sg34
S'10'
p347
sg36
S'@MIN'
p348
sg38
S'47T'
p349
sg40
g10
sg42
S'22'
p350
ssg223
(dp351
g5
S'--'
p352
sg7
S'--'
p353
sg9
g10
sg11
S'--'
p354
sg13
g10
sg14
S'Josh Gordon'
p355
sg16
S'2013'
p356
sg18
g223
sg20
S'--'
p357
sg22
S'10/03'
p358
sg24
S'21.5'
p359
sg26
S'--'
p360
sg28
S'--'
p361
sg30
S'W37-24'
p362
sg32
S'86'
p363
sg34
g116
sg36
S'BUF'
p364
sg38
S'37T'
p365
sg40
g10
sg42
S'--'
p366
ssg116
(dp367
g5
S'--'
p368
sg7
S'--'
p369
sg9
g10
sg11
S'--'
p370
sg13
g10
sg14
S'Josh Gordon'
p371
sg16
S'2013'
p372
sg18
g116
sg20
S'--'
p373
sg22
S'09/29'
p374
sg24
S'17.8'
p375
sg26
S'--'
p376
sg28
S'--'
p377
sg30
S'W17-6'
p378
sg32
S'71'
p379
sg34
g116
sg36
S'CIN'
p380
sg38
S'33'
p381
sg40
g41
sg42
S'--'
p382
ssg35
(dp383
g5
S'--'
p384
sg7
S'--'
p385
sg9
g10
sg11
S'--'
p386
sg13
g10
sg14
S'Josh Gordon'
p387
sg16
S'2013'
p388
sg18
g35
sg20
S'--'
p389
sg22
S'10/20'
p390
sg24
S'10.5'
p391
sg26
S'--'
p392
sg28
S'--'
p393
sg30
S'L13-31'
p394
sg32
S'21'
p395
sg34
g97
sg36
S'@GB'
p396
sg38
S'14'
p397
sg40
g41
sg42
S'--'
p398
ssg332
(dp399
g5
g41
sg7
g41
sg9
g10
sg11
S'--'
p400
sg13
g10
sg14
S'Josh Gordon'
p401
sg16
S'2013'
p402
sg18
g332
sg20
S'0.0'
p403
sg22
S'10/13'
p404
sg24
S'18.0'
p405
sg26
S'--'
p406
sg28
g10
sg30
S'L17-31'
p407
sg32
S'126'
p408
sg34
g35
sg36
S'DET'
p409
sg38
S'36'
p410
sg40
g41
sg42
g41
ssg99
(dp411
g5
g41
sg7
S'10'
p412
sg9
g10
sg11
S'--'
p413
sg13
g10
sg14
S'Josh Gordon'
p414
sg16
S'2013'
p415
sg18
g99
sg20
S'10.0'
p416
sg22
S'11/03'
p417
sg24
S'14.7'
p418
sg26
S'--'
p419
sg28
g10
sg30
S'W24-18'
p420
sg32
S'44'
p421
sg34
g78
sg36
S'BAL'
p422
sg38
S'27'
p423
sg40
g41
sg42
S'10'
p424
ssg59
(dp425
g5
S'--'
p426
sg7
S'--'
p427
sg9
g10
sg11
S'--'
p428
sg13
g10
sg14
S'Josh Gordon'
p429
sg16
S'2013'
p430
sg18
g59
sg20
S'--'
p431
sg22
S'10/27'
p432
sg24
S'26.4'
p433
sg26
S'--'
p434
sg28
S'--'
p435
sg30
S'L17-23'
p436
sg32
S'132'
p437
sg34
g223
sg36
S'@KC'
p438
sg38
S'47'
p439
sg40
g10
sg42
S'--'
p440
sssS'2012'
p441
(dp442
g208
(dp443
g5
S'--'
p444
sg7
S'--'
p445
sg9
g10
sg11
S'--'
p446
sg13
g10
sg14
S'Josh Gordon'
p447
sg16
S'2012'
p448
sg18
S'11'
p449
sg20
S'--'
p450
sg22
S'11/18'
p451
sg24
S'10.6'
p452
sg26
S'--'
p453
sg28
S'--'
p454
sg30
S'L20-23'
p455
sg32
S'53'
p456
sg34
g223
sg36
S'@DAL'
p457
sg38
S'23'
p458
sg40
g41
sg42
S'--'
p459
ssg227
(dp460
g5
g229
sg7
g229
sg9
g229
sg11
g229
sg13
g229
sg14
S'Josh Gordon'
p461
sg16
S'2012'
p462
sg18
S'10'
p463
sg20
g229
sg22
S'Bye'
p464
sg24
g229
sg26
g229
sg28
g229
sg30
g229
sg32
g229
sg34
g229
sg36
g229
sg38
g229
sg40
g229
sg42
g229
ssg3
(dp465
g5
S'--'
p466
sg7
S'--'
p467
sg9
g10
sg11
S'--'
p468
sg13
g10
sg14
S'Josh Gordon'
p469
sg16
S'2012'
p470
sg18
S'13'
p471
sg20
S'--'
p472
sg22
S'12/02'
p473
sg24
S'19.3'
p474
sg26
S'--'
p475
sg28
S'--'
p476
sg30
S'W20-17'
p477
sg32
S'116'
p478
sg34
g332
sg36
S'@OAK'
p479
sg38
S'44T'
p480
sg40
g10
sg42
S'--'
p481
ssg44
(dp482
g5
S'--'
p483
sg7
S'--'
p484
sg9
g10
sg11
S'--'
p485
sg13
g10
sg14
S'Josh Gordon'
p486
sg16
S'2012'
p487
sg18
S'12'
p488
sg20
S'--'
p489
sg22
S'11/25'
p490
sg24
S'15.0'
p491
sg26
S'--'
p492
sg28
S'--'
p493
sg30
S'W20-14'
p494
sg32
S'60'
p495
sg34
g116
sg36
S'PIT'
p496
sg38
S'26'
p497
sg40
g41
sg42
S'--'
p498
ssg63
(dp499
g5
S'--'
p500
sg7
S'--'
p501
sg9
g10
sg11
S'--'
p502
sg13
g10
sg14
S'Josh Gordon'
p503
sg16
S'2012'
p504
sg18
S'15'
p505
sg20
S'--'
p506
sg22
S'12/16'
p507
sg24
S'9.0'
p508
sg26
S'--'
p509
sg28
S'--'
p510
sg30
S'L21-38'
p511
sg32
S'27'
p512
sg34
g78
sg36
S'WAS'
p513
sg38
S'12'
p514
sg40
g41
sg42
S'--'
p515
ssg82
(dp516
g5
S'--'
p517
sg7
S'--'
p518
sg9
g10
sg11
S'--'
p519
sg13
g10
sg14
S'Josh Gordon'
p520
sg16
S'2012'
p521
sg18
S'14'
p522
sg20
S'--'
p523
sg22
S'12/09'
p524
sg24
S'10.8'
p525
sg26
S'--'
p526
sg28
S'--'
p527
sg30
S'W30-7'
p528
sg32
S'86'
p529
sg34
g59
sg36
S'KC'
p530
sg38
S'18'
p531
sg40
g41
sg42
S'--'
p532
ssg302
(dp533
g5
S'--'
p534
sg7
S'--'
p535
sg9
g10
sg11
g10
sg13
g10
sg14
S'Josh Gordon'
p536
sg16
S'2012'
p537
sg18
S'17'
p538
sg20
S'--'
p539
sg22
S'12/30'
p540
sg24
S'9.8'
p541
sg26
g10
sg28
S'--'
p542
sg30
S'L10-24'
p543
sg32
S'39'
p544
sg34
g116
sg36
S'@PIT'
p545
sg38
S'17'
p546
sg40
g41
sg42
S'--'
p547
ssg101
(dp548
g5
S'--'
p549
sg7
S'--'
p550
sg9
g10
sg11
S'--'
p551
sg13
g10
sg14
S'Josh Gordon'
p552
sg16
S'2012'
p553
sg18
S'16'
p554
sg20
S'--'
p555
sg22
S'12/23'
p556
sg24
S'7.0'
p557
sg26
S'--'
p558
sg28
S'--'
p559
sg30
S'L12-34'
p560
sg32
g35
sg34
g10
sg36
S'@DEN'
p561
sg38
g35
sg40
g41
sg42
S'--'
p562
ssg10
(dp563
g5
S'--'
p564
sg7
S'--'
p565
sg9
g10
sg11
S'--'
p566
sg13
g10
sg14
S'Josh Gordon'
p567
sg16
S'2012'
p568
sg18
g10
sg20
S'--'
p569
sg22
S'09/09'
p570
sg24
S'16.0'
p571
sg26
S'--'
p572
sg28
S'--'
p573
sg30
S'L16-17'
p574
sg32
S'32'
p575
sg34
g97
sg36
S'PHI'
p576
sg38
S'20'
p577
sg40
g41
sg42
S'--'
p578
ssg78
(dp579
g5
S'--'
p580
sg7
S'--'
p581
sg9
g10
sg11
S'--'
p582
sg13
g10
sg14
S'Josh Gordon'
p583
sg16
S'2012'
p584
sg18
g78
sg20
S'--'
p585
sg22
S'09/23'
p586
sg24
S'13.3'
p587
sg26
S'--'
p588
sg28
S'--'
p589
sg30
S'L14-24'
p590
sg32
S'40'
p591
sg34
g78
sg36
S'BUF'
p592
sg38
S'17'
p593
sg40
g41
sg42
S'--'
p594
ssg97
(dp595
g5
S'--'
p596
sg7
S'--'
p597
sg9
g41
sg11
S'--'
p598
sg13
g10
sg14
S'Josh Gordon'
p599
sg16
S'2012'
p600
sg18
g97
sg20
S'--'
p601
sg22
S'09/16'
p602
sg24
S'5.0'
p603
sg26
S'--'
p604
sg28
S'--'
p605
sg30
S'L27-34'
p606
sg32
g223
sg34
g10
sg36
S'@CIN'
p607
sg38
g223
sg40
g41
sg42
S'--'
p608
ssg223
(dp609
g5
S'--'
p610
sg7
S'--'
p611
sg9
g10
sg11
S'--'
p612
sg13
g10
sg14
S'Josh Gordon'
p613
sg16
S'2012'
p614
sg18
g223
sg20
S'--'
p615
sg22
S'10/07'
p616
sg24
S'41.0'
p617
sg26
S'--'
p618
sg28
S'--'
p619
sg30
S'L27-41'
p620
sg32
S'82'
p621
sg34
g97
sg36
S'@NYG'
p622
sg38
S'62T'
p623
sg40
g97
sg42
S'--'
p624
ssg116
(dp625
g5
S'--'
p626
sg7
S'--'
p627
sg9
g41
sg11
S'--'
p628
sg13
g10
sg14
S'Josh Gordon'
p629
sg16
S'2012'
p630
sg18
g116
sg20
S'--'
p631
sg22
S'09/27'
p632
sg24
S'16.0'
p633
sg26
S'--'
p634
sg28
S'--'
p635
sg30
S'L16-23'
p636
sg32
S'16'
p637
sg34
g10
sg36
S'@BAL'
p638
sg38
S'16'
p639
sg40
g41
sg42
S'--'
p640
ssg35
(dp641
g5
S'--'
p642
sg7
S'--'
p643
sg9
g10
sg11
S'--'
p644
sg13
g10
sg14
S'Josh Gordon'
p645
sg16
S'2012'
p646
sg18
g35
sg20
S'--'
p647
sg22
S'10/21'
p648
sg24
S'29.5'
p649
sg26
S'--'
p650
sg28
S'--'
p651
sg30
S'L13-17'
p652
sg32
S'59'
p653
sg34
g97
sg36
S'@IND'
p654
sg38
S'33T'
p655
sg40
g10
sg42
S'--'
p656
ssg332
(dp657
g5
S'--'
p658
sg7
S'--'
p659
sg9
g41
sg11
S'--'
p660
sg13
g10
sg14
S'Josh Gordon'
p661
sg16
S'2012'
p662
sg18
g332
sg20
S'--'
p663
sg22
S'10/14'
p664
sg24
S'33.0'
p665
sg26
S'--'
p666
sg28
S'--'
p667
sg30
S'W34-24'
p668
sg32
S'99'
p669
sg34
g78
sg36
S'CIN'
p670
sg38
S'71T'
p671
sg40
g10
sg42
S'--'
p672
ssg99
(dp673
g5
S'--'
p674
sg7
S'--'
p675
sg9
g10
sg11
S'--'
p676
sg13
g10
sg14
S'Josh Gordon'
p677
sg16
S'2012'
p678
sg18
g99
sg20
S'--'
p679
sg22
S'11/04'
p680
sg24
S'19.0'
p681
sg26
S'--'
p682
sg28
S'--'
p683
sg30
S'L15-25'
p684
sg32
S'38'
p685
sg34
g97
sg36
S'BAL'
p686
sg38
S'26'
p687
sg40
g41
sg42
S'--'
p688
ssg59
(dp689
g5
S'--'
p690
sg7
S'--'
p691
sg9
g10
sg11
S'--'
p692
sg13
g10
sg14
S'Josh Gordon'
p693
sg16
S'2012'
p694
sg18
g59
sg20
S'--'
p695
sg22
S'10/28'
p696
sg24
S'15.3'
p697
sg26
S'--'
p698
sg28
S'--'
p699
sg30
S'W7-6'
p700
sg32
S'46'
p701
sg34
g78
sg36
S'SD'
p702
sg38
S'26'
p703
sg40
g41
sg42
S'--'
p704
sss.