(dp0
S'2014'
p1
(dp2
S'17'
p3
(dp4
S'RushTD'
p5
S'--'
p6
sS'RushYds'
p7
S'--'
p8
sS'GS'
p9
S'0'
p10
sS'Lost'
p11
S'--'
p12
sS'G'
p13
S'1'
p14
sS'Player'
p15
S'Josh Boyce'
p16
sS'Year'
p17
S'2014'
p18
sS'WK'
p19
S'17'
p20
sS'RushAvg'
p21
S'--'
p22
sS'Game Date'
p23
S'12/28'
p24
sS'RecAvg'
p25
S'--'
p26
sS'FUM'
p27
S'--'
p28
sS'RushAtt'
p29
S'--'
p30
sS'Result'
p31
S'L9-17'
p32
sS'RecYds'
p33
S'--'
p34
sS'Rec'
p35
S'--'
p36
sS'Opp'
p37
S'BUF'
p38
sS'RecLng'
p39
S'--'
p40
sS'RecTD'
p41
S'--'
p42
sS'RushLng'
p43
S'--'
p44
sssS'2013'
p45
(dp46
S'11'
p47
(dp48
g5
S'--'
p49
sg7
S'--'
p50
sg9
g10
sg11
S'--'
p51
sg13
g14
sg15
S'Josh Boyce'
p52
sg17
S'2013'
p53
sg19
S'11'
p54
sg21
S'--'
p55
sg23
S'11/18'
p56
sg25
S'--'
p57
sg27
S'--'
p58
sg29
S'--'
p59
sg31
S'L20-24'
p60
sg33
S'--'
p61
sg35
S'--'
p62
sg37
S'@CAR'
p63
sg39
S'--'
p64
sg41
S'--'
p65
sg43
S'--'
p66
ssS'10'
p67
(dp68
g5
S''
p69
sg7
g69
sg9
g69
sg11
g69
sg13
g69
sg15
S'Josh Boyce'
p70
sg17
S'2013'
p71
sg19
S'10'
p72
sg21
g69
sg23
S'Bye'
p73
sg25
g69
sg27
g69
sg29
g69
sg31
g69
sg33
g69
sg35
g69
sg37
g69
sg39
g69
sg41
g69
sg43
g69
ssS'13'
p74
(dp75
g5
S'--'
p76
sg7
S'--'
p77
sg9
g10
sg11
S'--'
p78
sg13
g14
sg15
S'Josh Boyce'
p79
sg17
S'2013'
p80
sg19
S'13'
p81
sg21
S'--'
p82
sg23
S'12/01'
p83
sg25
S'6.0'
p84
sg27
S'--'
p85
sg29
S'--'
p86
sg31
S'W34-31'
p87
sg33
S'6'
p88
sg35
g14
sg37
S'@HOU'
p89
sg39
g88
sg41
g10
sg43
S'--'
p90
ssS'12'
p91
(dp92
g5
S'--'
p93
sg7
S'--'
p94
sg9
g10
sg11
S'--'
p95
sg13
g10
sg15
S'Josh Boyce'
p96
sg17
S'2013'
p97
sg19
S'12'
p98
sg21
S'--'
p99
sg23
S'11/24'
p100
sg25
S'--'
p101
sg27
S'--'
p102
sg29
S'--'
p103
sg31
S'W34-31'
p104
sg33
S'--'
p105
sg35
S'--'
p106
sg37
S'DEN'
p107
sg39
S'--'
p108
sg41
S'--'
p109
sg43
S'--'
p110
ssS'15'
p111
(dp112
g5
S'--'
p113
sg7
S'--'
p114
sg9
g14
sg11
S'--'
p115
sg13
g14
sg15
S'Josh Boyce'
p116
sg17
S'2013'
p117
sg19
S'15'
p118
sg21
S'--'
p119
sg23
S'12/15'
p120
sg25
S'10.5'
p121
sg27
S'--'
p122
sg29
S'--'
p123
sg31
S'L20-24'
p124
sg33
S'42'
p125
sg35
S'4'
p126
sg37
S'@MIA'
p127
sg39
S'30'
p128
sg41
g10
sg43
S'--'
p129
ssS'14'
p130
(dp131
g5
S'--'
p132
sg7
S'--'
p133
sg9
g14
sg11
S'--'
p134
sg13
g14
sg15
S'Josh Boyce'
p135
sg17
S'2013'
p136
sg19
S'14'
p137
sg21
S'--'
p138
sg23
S'12/08'
p139
sg25
S'16.3'
p140
sg27
S'--'
p141
sg29
S'--'
p142
sg31
S'W27-26'
p143
sg33
S'49'
p144
sg35
S'3'
p145
sg37
S'CLE'
p146
sg39
S'22'
p147
sg41
g10
sg43
S'--'
p148
ssg3
(dp149
g5
S'--'
p150
sg7
S'--'
p151
sg9
g10
sg11
S'--'
p152
sg13
g10
sg15
S'Josh Boyce'
p153
sg17
S'2013'
p154
sg19
S'17'
p155
sg21
S'--'
p156
sg23
S'12/29'
p157
sg25
S'--'
p158
sg27
S'--'
p159
sg29
S'--'
p160
sg31
S'W34-20'
p161
sg33
S'--'
p162
sg35
S'--'
p163
sg37
S'BUF'
p164
sg39
S'--'
p165
sg41
S'--'
p166
sg43
S'--'
p167
ssS'16'
p168
(dp169
g5
S'--'
p170
sg7
S'--'
p171
sg9
g10
sg11
S'--'
p172
sg13
g10
sg15
S'Josh Boyce'
p173
sg17
S'2013'
p174
sg19
S'16'
p175
sg21
S'--'
p176
sg23
S'12/22'
p177
sg25
S'--'
p178
sg27
S'--'
p179
sg29
S'--'
p180
sg31
S'W41-7'
p181
sg33
S'--'
p182
sg35
S'--'
p183
sg37
S'@BAL'
p184
sg39
S'--'
p185
sg41
S'--'
p186
sg43
S'--'
p187
ssg14
(dp188
g5
S'--'
p189
sg7
S'--'
p190
sg9
g10
sg11
S'--'
p191
sg13
g14
sg15
S'Josh Boyce'
p192
sg17
S'2013'
p193
sg19
g14
sg21
S'--'
p194
sg23
S'09/08'
p195
sg25
S'--'
p196
sg27
S'--'
p197
sg29
S'--'
p198
sg31
S'W23-21'
p199
sg33
g10
sg35
g10
sg37
S'@BUF'
p200
sg39
S'--'
p201
sg41
g10
sg43
S'--'
p202
ssg145
(dp203
g5
S'--'
p204
sg7
S'--'
p205
sg9
g14
sg11
S'--'
p206
sg13
g14
sg15
S'Josh Boyce'
p207
sg17
S'2013'
p208
sg19
g145
sg21
S'--'
p209
sg23
S'09/22'
p210
sg25
S'--'
p211
sg27
S'--'
p212
sg29
S'--'
p213
sg31
S'W23-3'
p214
sg33
g10
sg35
g10
sg37
S'TB'
p215
sg39
S'--'
p216
sg41
g10
sg43
S'--'
p217
ssS'2'
p218
(dp219
g5
S'--'
p220
sg7
S'--'
p221
sg9
g10
sg11
S'--'
p222
sg13
g14
sg15
S'Josh Boyce'
p223
sg17
S'2013'
p224
sg19
g218
sg21
S'--'
p225
sg23
S'09/12'
p226
sg25
S'--'
p227
sg27
S'--'
p228
sg29
S'--'
p229
sg31
S'W13-10'
p230
sg33
S'--'
p231
sg35
S'--'
p232
sg37
S'NYJ'
p233
sg39
S'--'
p234
sg41
S'--'
p235
sg43
S'--'
p236
ssS'5'
p237
(dp238
g5
S'--'
p239
sg7
S'--'
p240
sg9
g10
sg11
S'--'
p241
sg13
g14
sg15
S'Josh Boyce'
p242
sg17
S'2013'
p243
sg19
g237
sg21
S'--'
p244
sg23
S'10/06'
p245
sg25
S'--'
p246
sg27
S'--'
p247
sg29
S'--'
p248
sg31
S'L6-13'
p249
sg33
S'--'
p250
sg35
S'--'
p251
sg37
S'@CIN'
p252
sg39
S'--'
p253
sg41
S'--'
p254
sg43
S'--'
p255
ssg126
(dp256
g5
S'--'
p257
sg7
S'--'
p258
sg9
g10
sg11
S'--'
p259
sg13
g14
sg15
S'Josh Boyce'
p260
sg17
S'2013'
p261
sg19
g126
sg21
S'--'
p262
sg23
S'09/29'
p263
sg25
S'24.0'
p264
sg27
S'--'
p265
sg29
S'--'
p266
sg31
S'W30-23'
p267
sg33
S'24'
p268
sg35
g14
sg37
S'@ATL'
p269
sg39
S'24'
p270
sg41
g10
sg43
S'--'
p271
ssS'7'
p272
(dp273
g5
S'--'
p274
sg7
S'--'
p275
sg9
g10
sg11
S'--'
p276
sg13
g10
sg15
S'Josh Boyce'
p277
sg17
S'2013'
p278
sg19
g272
sg21
S'--'
p279
sg23
S'10/20'
p280
sg25
S'--'
p281
sg27
S'--'
p282
sg29
S'--'
p283
sg31
S'L27-30'
p284
sg33
S'--'
p285
sg35
S'--'
p286
sg37
S'@NYJ'
p287
sg39
S'--'
p288
sg41
S'--'
p289
sg43
S'--'
p290
ssg88
(dp291
g5
S'--'
p292
sg7
S'--'
p293
sg9
g10
sg11
S'--'
p294
sg13
g10
sg15
S'Josh Boyce'
p295
sg17
S'2013'
p296
sg19
g88
sg21
S'--'
p297
sg23
S'10/13'
p298
sg25
S'--'
p299
sg27
S'--'
p300
sg29
S'--'
p301
sg31
S'W30-27'
p302
sg33
S'--'
p303
sg35
S'--'
p304
sg37
S'NO'
p305
sg39
S'--'
p306
sg41
S'--'
p307
sg43
S'--'
p308
ssS'9'
p309
(dp310
g5
S'--'
p311
sg7
S'--'
p312
sg9
g10
sg11
S'--'
p313
sg13
g10
sg15
S'Josh Boyce'
p314
sg17
S'2013'
p315
sg19
g309
sg21
S'--'
p316
sg23
S'11/03'
p317
sg25
S'--'
p318
sg27
S'--'
p319
sg29
S'--'
p320
sg31
S'W55-31'
p321
sg33
S'--'
p322
sg35
S'--'
p323
sg37
S'PIT'
p324
sg39
S'--'
p325
sg41
S'--'
p326
sg43
S'--'
p327
ssS'8'
p328
(dp329
g5
S'--'
p330
sg7
S'--'
p331
sg9
g10
sg11
S'--'
p332
sg13
g10
sg15
S'Josh Boyce'
p333
sg17
S'2013'
p334
sg19
g328
sg21
S'--'
p335
sg23
S'10/27'
p336
sg25
S'--'
p337
sg27
S'--'
p338
sg29
S'--'
p339
sg31
S'W27-17'
p340
sg33
S'--'
p341
sg35
S'--'
p342
sg37
S'MIA'
p343
sg39
S'--'
p344
sg41
S'--'
p345
sg43
S'--'
p346
sss.