(dp0
S'2015'
p1
(dp2
S'11'
p3
(dp4
S'RushTD'
p5
S'--'
p6
sS'RushYds'
p7
S'--'
p8
sS'GS'
p9
S'0'
p10
sS'Lost'
p11
S'--'
p12
sS'G'
p13
S'1'
p14
sS'Player'
p15
S'Josh Bellamy'
p16
sS'Year'
p17
S'2015'
p18
sS'WK'
p19
S'11'
p20
sS'RushAvg'
p21
S'--'
p22
sS'Game Date'
p23
S'11/22'
p24
sS'RecAvg'
p25
S'14.3'
p26
sS'FUM'
p27
S'--'
p28
sS'RushAtt'
p29
S'--'
p30
sS'Result'
p31
S'L15-17'
p32
sS'RecYds'
p33
S'57'
p34
sS'Rec'
p35
S'4'
p36
sS'Opp'
p37
S'DEN'
p38
sS'RecLng'
p39
S'38'
p40
sS'RecTD'
p41
g10
sS'RushLng'
p42
S'--'
p43
ssS'10'
p44
(dp45
g5
S'--'
p46
sg7
S'--'
p47
sg9
g10
sg11
S'--'
p48
sg13
g14
sg15
S'Josh Bellamy'
p49
sg17
S'2015'
p50
sg19
S'10'
p51
sg21
S'--'
p52
sg23
S'11/15'
p53
sg25
S'--'
p54
sg27
S'--'
p55
sg29
S'--'
p56
sg31
S'W37-13'
p57
sg33
S'--'
p58
sg35
S'--'
p59
sg37
S'@STL'
p60
sg39
S'--'
p61
sg41
S'--'
p62
sg42
S'--'
p63
ssS'13'
p64
(dp65
g5
S'--'
p66
sg7
S'--'
p67
sg9
g14
sg11
S'--'
p68
sg13
g14
sg15
S'Josh Bellamy'
p69
sg17
S'2015'
p70
sg19
S'13'
p71
sg21
S'--'
p72
sg23
S'12/06'
p73
sg25
S'16.0'
p74
sg27
S'--'
p75
sg29
S'--'
p76
sg31
S'L20-26'
p77
sg33
S'16'
p78
sg35
g14
sg37
S'SF'
p79
sg39
S'16'
p80
sg41
g10
sg42
S'--'
p81
ssS'12'
p82
(dp83
g5
S'--'
p84
sg7
S'--'
p85
sg9
g10
sg11
S'--'
p86
sg13
g14
sg15
S'Josh Bellamy'
p87
sg17
S'2015'
p88
sg19
S'12'
p89
sg21
S'--'
p90
sg23
S'11/26'
p91
sg25
S'--'
p92
sg27
S'--'
p93
sg29
S'--'
p94
sg31
S'W17-13'
p95
sg33
S'--'
p96
sg35
S'--'
p97
sg37
S'@GB'
p98
sg39
S'--'
p99
sg41
S'--'
p100
sg42
S'--'
p101
ssS'15'
p102
(dp103
g5
S'--'
p104
sg7
S'--'
p105
sg9
g10
sg11
S'--'
p106
sg13
g14
sg15
S'Josh Bellamy'
p107
sg17
S'2015'
p108
sg19
S'15'
p109
sg21
S'--'
p110
sg23
S'12/20'
p111
sg25
S'7.0'
p112
sg27
S'--'
p113
sg29
S'--'
p114
sg31
S'L17-38'
p115
sg33
S'7'
p116
sg35
g14
sg37
S'@MIN'
p117
sg39
g116
sg41
g10
sg42
S'--'
p118
ssS'14'
p119
(dp120
g5
S'--'
p121
sg7
S'--'
p122
sg9
g10
sg11
S'--'
p123
sg13
g14
sg15
S'Josh Bellamy'
p124
sg17
S'2015'
p125
sg19
S'14'
p126
sg21
S'--'
p127
sg23
S'12/13'
p128
sg25
S'--'
p129
sg27
S'--'
p130
sg29
S'--'
p131
sg31
S'L21-24'
p132
sg33
S'--'
p133
sg35
S'--'
p134
sg37
S'WAS'
p135
sg39
S'--'
p136
sg41
S'--'
p137
sg42
S'--'
p138
ssS'17'
p139
(dp140
g5
S'--'
p141
sg7
S'--'
p142
sg9
g14
sg11
S'--'
p143
sg13
g14
sg15
S'Josh Bellamy'
p144
sg17
S'2015'
p145
sg19
S'17'
p146
sg21
S'--'
p147
sg23
S'01/03'
p148
sg25
S'16.3'
p149
sg27
S'--'
p150
sg29
S'--'
p151
sg31
S'L20-24'
p152
sg33
S'49'
p153
sg35
S'3'
p154
sg37
S'DET'
p155
sg39
S'34T'
p156
sg41
g14
sg42
S'--'
p157
ssS'16'
p158
(dp159
g5
S'--'
p160
sg7
S'--'
p161
sg9
g14
sg11
S'--'
p162
sg13
g14
sg15
S'Josh Bellamy'
p163
sg17
S'2015'
p164
sg19
S'16'
p165
sg21
S'--'
p166
sg23
S'12/27'
p167
sg25
S'5.0'
p168
sg27
S'--'
p169
sg29
S'--'
p170
sg31
S'W26-21'
p171
sg33
S'10'
p172
sg35
S'2'
p173
sg37
S'@TB'
p174
sg39
g116
sg41
g10
sg42
S'--'
p175
ssg14
(dp176
g5
S'--'
p177
sg7
S'--'
p178
sg9
g10
sg11
S'--'
p179
sg13
g14
sg15
S'Josh Bellamy'
p180
sg17
S'2015'
p181
sg19
g14
sg21
S'--'
p182
sg23
S'09/13'
p183
sg25
S'--'
p184
sg27
S'--'
p185
sg29
S'--'
p186
sg31
S'L23-31'
p187
sg33
S'--'
p188
sg35
S'--'
p189
sg37
S'GB'
p190
sg39
S'--'
p191
sg41
S'--'
p192
sg42
S'--'
p193
ssg154
(dp194
g5
S'--'
p195
sg7
S'--'
p196
sg9
g10
sg11
S'--'
p197
sg13
g14
sg15
S'Josh Bellamy'
p198
sg17
S'2015'
p199
sg19
g154
sg21
S'--'
p200
sg23
S'09/27'
p201
sg25
S'--'
p202
sg27
S'--'
p203
sg29
S'--'
p204
sg31
S'L0-26'
p205
sg33
g10
sg35
g10
sg37
S'@SEA'
p206
sg39
S'--'
p207
sg41
g10
sg42
S'--'
p208
ssg173
(dp209
g5
S'--'
p210
sg7
S'--'
p211
sg9
g10
sg11
S'--'
p212
sg13
g14
sg15
S'Josh Bellamy'
p213
sg17
S'2015'
p214
sg19
g173
sg21
S'--'
p215
sg23
S'09/20'
p216
sg25
S'48.0'
p217
sg27
S'--'
p218
sg29
S'--'
p219
sg31
S'L23-48'
p220
sg33
S'48'
p221
sg35
g14
sg37
S'ARI'
p222
sg39
S'48T'
p223
sg41
g14
sg42
S'--'
p224
ssS'5'
p225
(dp226
g5
S'--'
p227
sg7
S'--'
p228
sg9
g10
sg11
S'--'
p229
sg13
g14
sg15
S'Josh Bellamy'
p230
sg17
S'2015'
p231
sg19
g225
sg21
S'--'
p232
sg23
S'10/11'
p233
sg25
S'5.2'
p234
sg27
S'--'
p235
sg29
S'--'
p236
sg31
S'W18-17'
p237
sg33
S'31'
p238
sg35
S'6'
p239
sg37
S'@KC'
p240
sg39
S'8'
p241
sg41
g10
sg42
S'--'
p242
ssg36
(dp243
g5
S'--'
p244
sg7
S'--'
p245
sg9
g10
sg11
S'--'
p246
sg13
g14
sg15
S'Josh Bellamy'
p247
sg17
S'2015'
p248
sg19
g36
sg21
S'--'
p249
sg23
S'10/04'
p250
sg25
S'--'
p251
sg27
S'--'
p252
sg29
S'--'
p253
sg31
S'W22-20'
p254
sg33
g10
sg35
g10
sg37
S'OAK'
p255
sg39
S'--'
p256
sg41
g10
sg42
S'--'
p257
ssg116
(dp258
g5
S''
p259
sg7
g259
sg9
g259
sg11
g259
sg13
g259
sg15
S'Josh Bellamy'
p260
sg17
S'2015'
p261
sg19
g116
sg21
g259
sg23
S'Bye'
p262
sg25
g259
sg27
g259
sg29
g259
sg31
g259
sg33
g259
sg35
g259
sg37
g259
sg39
g259
sg41
g259
sg42
g259
ssg239
(dp263
g5
S'--'
p264
sg7
S'--'
p265
sg9
g10
sg11
S'--'
p266
sg13
g14
sg15
S'Josh Bellamy'
p267
sg17
S'2015'
p268
sg19
g239
sg21
S'--'
p269
sg23
S'10/18'
p270
sg25
S'--'
p271
sg27
S'--'
p272
sg29
S'--'
p273
sg31
S'L34-37'
p274
sg33
S'--'
p275
sg35
S'--'
p276
sg37
S'@DET'
p277
sg39
S'--'
p278
sg41
S'--'
p279
sg42
S'--'
p280
ssS'9'
p281
(dp282
g5
S'--'
p283
sg7
S'--'
p284
sg9
g10
sg11
S'--'
p285
sg13
g14
sg15
S'Josh Bellamy'
p286
sg17
S'2015'
p287
sg19
g281
sg21
S'--'
p288
sg23
S'11/09'
p289
sg25
S'6.0'
p290
sg27
S'--'
p291
sg29
S'--'
p292
sg31
S'W22-19'
p293
sg33
g239
sg35
g14
sg37
S'@SD'
p294
sg39
g239
sg41
g10
sg42
S'--'
p295
ssg241
(dp296
g5
S'--'
p297
sg7
S'--'
p298
sg9
g10
sg11
S'--'
p299
sg13
g14
sg15
S'Josh Bellamy'
p300
sg17
S'2015'
p301
sg19
g241
sg21
S'--'
p302
sg23
S'11/01'
p303
sg25
S'--'
p304
sg27
S'--'
p305
sg29
S'--'
p306
sg31
S'L20-23'
p307
sg33
S'--'
p308
sg35
S'--'
p309
sg37
S'MIN'
p310
sg39
S'--'
p311
sg41
S'--'
p312
sg42
S'--'
p313
sssS'2014'
p314
(dp315
g102
(dp316
g5
S'--'
p317
sg7
S'--'
p318
sg9
g10
sg11
S'--'
p319
sg13
g14
sg15
S'Josh Bellamy'
p320
sg17
S'2014'
p321
sg19
S'15'
p322
sg21
S'--'
p323
sg23
S'12/15'
p324
sg25
S'--'
p325
sg27
S'--'
p326
sg29
S'--'
p327
sg31
S'L15-31'
p328
sg33
S'--'
p329
sg35
S'--'
p330
sg37
S'NO'
p331
sg39
S'--'
p332
sg41
S'--'
p333
sg42
S'--'
p334
ssg139
(dp335
g5
S'--'
p336
sg7
S'--'
p337
sg9
g10
sg11
S'--'
p338
sg13
g14
sg15
S'Josh Bellamy'
p339
sg17
S'2014'
p340
sg19
S'17'
p341
sg21
S'--'
p342
sg23
S'12/28'
p343
sg25
S'--'
p344
sg27
S'--'
p345
sg29
S'--'
p346
sg31
S'L9-13'
p347
sg33
S'--'
p348
sg35
S'--'
p349
sg37
S'@MIN'
p350
sg39
S'--'
p351
sg41
S'--'
p352
sg42
S'--'
p353
ssg158
(dp354
g5
S'--'
p355
sg7
S'--'
p356
sg9
g10
sg11
S'--'
p357
sg13
g14
sg15
S'Josh Bellamy'
p358
sg17
S'2014'
p359
sg19
S'16'
p360
sg21
S'--'
p361
sg23
S'12/21'
p362
sg25
S'--'
p363
sg27
S'--'
p364
sg29
S'--'
p365
sg31
S'L14-20'
p366
sg33
S'--'
p367
sg35
S'--'
p368
sg37
S'DET'
p369
sg39
S'--'
p370
sg41
S'--'
p371
sg42
S'--'
p372
ssg173
(dp373
g5
S'--'
p374
sg7
S'--'
p375
sg9
g10
sg11
S'--'
p376
sg13
g14
sg15
S'Josh Bellamy'
p377
sg17
S'2014'
p378
sg19
g173
sg21
S'--'
p379
sg23
S'09/14'
p380
sg25
S'--'
p381
sg27
S'--'
p382
sg29
S'--'
p383
sg31
S'W28-20'
p384
sg33
g10
sg35
g10
sg37
S'@SF'
p385
sg39
S'--'
p386
sg41
g10
sg42
S'--'
p387
sssS'2013'
p388
(dp389
g64
(dp390
g5
S'--'
p391
sg7
S'--'
p392
sg9
g10
sg11
S'--'
p393
sg13
g14
sg15
S'Josh Bellamy'
p394
sg17
S'2013'
p395
sg19
S'13'
p396
sg21
S'--'
p397
sg23
S'12/01'
p398
sg25
S'--'
p399
sg27
S'--'
p400
sg29
S'--'
p401
sg31
S'L17-24'
p402
sg33
S'--'
p403
sg35
S'--'
p404
sg37
S'NYG'
p405
sg39
S'--'
p406
sg41
S'--'
p407
sg42
S'--'
p408
ssg102
(dp409
g5
S'--'
p410
sg7
S'--'
p411
sg9
g10
sg11
S'--'
p412
sg13
g14
sg15
S'Josh Bellamy'
p413
sg17
S'2013'
p414
sg19
S'15'
p415
sg21
S'--'
p416
sg23
S'12/15'
p417
sg25
S'--'
p418
sg27
S'--'
p419
sg29
S'--'
p420
sg31
S'L26-27'
p421
sg33
S'--'
p422
sg35
S'--'
p423
sg37
S'@ATL'
p424
sg39
S'--'
p425
sg41
S'--'
p426
sg42
S'--'
p427
ssg119
(dp428
g5
S'--'
p429
sg7
S'--'
p430
sg9
g10
sg11
S'--'
p431
sg13
g14
sg15
S'Josh Bellamy'
p432
sg17
S'2013'
p433
sg19
S'14'
p434
sg21
S'--'
p435
sg23
S'12/08'
p436
sg25
S'--'
p437
sg27
S'--'
p438
sg29
S'--'
p439
sg31
S'L10-45'
p440
sg33
S'--'
p441
sg35
S'--'
p442
sg37
S'KC'
p443
sg39
S'--'
p444
sg41
S'--'
p445
sg42
S'--'
p446
ssg139
(dp447
g5
S'--'
p448
sg7
S'--'
p449
sg9
g10
sg11
S'--'
p450
sg13
g14
sg15
S'Josh Bellamy'
p451
sg17
S'2013'
p452
sg19
S'17'
p453
sg21
S'--'
p454
sg23
S'12/29'
p455
sg25
S'--'
p456
sg27
S'--'
p457
sg29
S'--'
p458
sg31
S'L6-20'
p459
sg33
S'--'
p460
sg35
S'--'
p461
sg37
S'@NYG'
p462
sg39
S'--'
p463
sg41
S'--'
p464
sg42
S'--'
p465
ssg158
(dp466
g5
S'--'
p467
sg7
S'--'
p468
sg9
g10
sg11
S'--'
p469
sg13
g14
sg15
S'Josh Bellamy'
p470
sg17
S'2013'
p471
sg19
S'16'
p472
sg21
S'--'
p473
sg23
S'12/22'
p474
sg25
S'--'
p475
sg27
S'--'
p476
sg29
S'--'
p477
sg31
S'L23-24'
p478
sg33
S'--'
p479
sg35
S'--'
p480
sg37
S'DAL'
p481
sg39
S'--'
p482
sg41
S'--'
p483
sg42
S'--'
p484
sssS'2012'
p485
(dp486
g102
(dp487
g5
S'--'
p488
sg7
S'--'
p489
sg9
g10
sg11
S'--'
p490
sg13
g14
sg15
S'Josh Bellamy'
p491
sg17
S'2012'
p492
sg19
S'15'
p493
sg21
S'--'
p494
sg23
S'12/16'
p495
sg25
S'--'
p496
sg27
S'--'
p497
sg29
S'--'
p498
sg31
S'L0-15'
p499
sg33
S'--'
p500
sg35
S'--'
p501
sg37
S'@OAK'
p502
sg39
S'--'
p503
sg41
S'--'
p504
sg42
S'--'
p505
ssg119
(dp506
g5
S'--'
p507
sg7
S'--'
p508
sg9
g10
sg11
S'--'
p509
sg13
g14
sg15
S'Josh Bellamy'
p510
sg17
S'2012'
p511
sg19
S'14'
p512
sg21
S'--'
p513
sg23
S'12/09'
p514
sg25
S'--'
p515
sg27
S'--'
p516
sg29
S'--'
p517
sg31
S'L7-30'
p518
sg33
S'--'
p519
sg35
S'--'
p520
sg37
S'@CLE'
p521
sg39
S'--'
p522
sg41
S'--'
p523
sg42
S'--'
p524
ssg139
(dp525
g5
S'--'
p526
sg7
S'--'
p527
sg9
g10
sg11
S'--'
p528
sg13
g10
sg15
S'Josh Bellamy'
p529
sg17
S'2012'
p530
sg19
S'17'
p531
sg21
S'--'
p532
sg23
S'12/30'
p533
sg25
S'--'
p534
sg27
S'--'
p535
sg29
S'--'
p536
sg31
S'L3-38'
p537
sg33
S'--'
p538
sg35
S'--'
p539
sg37
S'@DEN'
p540
sg39
S'--'
p541
sg41
S'--'
p542
sg42
S'--'
p543
ssg158
(dp544
g5
S'--'
p545
sg7
S'--'
p546
sg9
g10
sg11
S'--'
p547
sg13
g14
sg15
S'Josh Bellamy'
p548
sg17
S'2012'
p549
sg19
S'16'
p550
sg21
S'--'
p551
sg23
S'12/23'
p552
sg25
S'--'
p553
sg27
S'--'
p554
sg29
S'--'
p555
sg31
S'L13-20'
p556
sg33
S'--'
p557
sg35
S'--'
p558
sg37
S'IND'
p559
sg39
S'--'
p560
sg41
S'--'
p561
sg42
S'--'
p562
sss.