(dp0
S'2015'
p1
(dp2
S'11'
p3
(dp4
S'RushTD'
p5
S'--'
p6
sS'RushYds'
p7
S'--'
p8
sS'GS'
p9
S'1'
p10
sS'Lost'
p11
S'--'
p12
sS'G'
p13
g10
sS'Player'
p14
S'Julio Jones'
p15
sS'Year'
p16
S'2015'
p17
sS'WK'
p18
S'11'
p19
sS'RushAvg'
p20
S'--'
p21
sS'Game Date'
p22
S'11/22'
p23
sS'RecAvg'
p24
S'17.8'
p25
sS'FUM'
p26
S'--'
p27
sS'RushAtt'
p28
S'--'
p29
sS'Result'
p30
S'L21-24'
p31
sS'RecYds'
p32
S'160'
p33
sS'Rec'
p34
S'9'
p35
sS'Opp'
p36
S'IND'
p37
sS'RecLng'
p38
S'36'
p39
sS'RecTD'
p40
S'0'
p41
sS'RushLng'
p42
S'--'
p43
ssS'10'
p44
(dp45
g5
S''
p46
sg7
g46
sg9
g46
sg11
g46
sg13
g46
sg14
S'Julio Jones'
p47
sg16
S'2015'
p48
sg18
S'10'
p49
sg20
g46
sg22
S'Bye'
p50
sg24
g46
sg26
g46
sg28
g46
sg30
g46
sg32
g46
sg34
g46
sg36
g46
sg38
g46
sg40
g46
sg42
g46
ssS'13'
p51
(dp52
g5
S'--'
p53
sg7
S'--'
p54
sg9
g10
sg11
S'--'
p55
sg13
g10
sg14
S'Julio Jones'
p56
sg16
S'2015'
p57
sg18
S'13'
p58
sg20
S'--'
p59
sg22
S'12/06'
p60
sg24
S'11.6'
p61
sg26
S'--'
p62
sg28
S'--'
p63
sg30
S'L19-23'
p64
sg32
S'93'
p65
sg34
S'8'
p66
sg36
S'@TB'
p67
sg38
S'25'
p68
sg40
g41
sg42
S'--'
p69
ssS'12'
p70
(dp71
g5
S'--'
p72
sg7
S'--'
p73
sg9
g10
sg11
S'--'
p74
sg13
g10
sg14
S'Julio Jones'
p75
sg16
S'2015'
p76
sg18
S'12'
p77
sg20
S'--'
p78
sg22
S'11/29'
p79
sg24
S'11.2'
p80
sg26
S'--'
p81
sg28
S'--'
p82
sg30
S'L10-20'
p83
sg32
S'56'
p84
sg34
S'5'
p85
sg36
S'MIN'
p86
sg38
S'19'
p87
sg40
g41
sg42
S'--'
p88
ssS'15'
p89
(dp90
g5
S'--'
p91
sg7
S'--'
p92
sg9
g10
sg11
S'--'
p93
sg13
g10
sg14
S'Julio Jones'
p94
sg16
S'2015'
p95
sg18
S'15'
p96
sg20
S'--'
p97
sg22
S'12/20'
p98
sg24
S'13.1'
p99
sg26
S'--'
p100
sg28
S'--'
p101
sg30
S'W23-17'
p102
sg32
S'118'
p103
sg34
g35
sg36
S'@JAC'
p104
sg38
S'23'
p105
sg40
g10
sg42
S'--'
p106
ssS'14'
p107
(dp108
g5
S'--'
p109
sg7
S'--'
p110
sg9
g10
sg11
g41
sg13
g10
sg14
S'Julio Jones'
p111
sg16
S'2015'
p112
sg18
S'14'
p113
sg20
S'--'
p114
sg22
S'12/13'
p115
sg24
S'12.6'
p116
sg26
g10
sg28
S'--'
p117
sg30
S'L0-38'
p118
sg32
S'88'
p119
sg34
S'7'
p120
sg36
S'@CAR'
p121
sg38
S'46'
p122
sg40
g41
sg42
S'--'
p123
ssS'17'
p124
(dp125
g5
S'--'
p126
sg7
S'--'
p127
sg9
g10
sg11
S'--'
p128
sg13
g10
sg14
S'Julio Jones'
p129
sg16
S'2015'
p130
sg18
S'17'
p131
sg20
S'--'
p132
sg22
S'01/03'
p133
sg24
S'16.6'
p134
sg26
S'--'
p135
sg28
S'--'
p136
sg30
S'L17-20'
p137
sg32
S'149'
p138
sg34
g35
sg36
S'NO'
p139
sg38
S'29'
p140
sg40
g41
sg42
S'--'
p141
ssS'16'
p142
(dp143
g5
S'--'
p144
sg7
S'--'
p145
sg9
g10
sg11
S'--'
p146
sg13
g10
sg14
S'Julio Jones'
p147
sg16
S'2015'
p148
sg18
S'16'
p149
sg20
S'--'
p150
sg22
S'12/27'
p151
sg24
S'19.8'
p152
sg26
S'--'
p153
sg28
S'--'
p154
sg30
S'W20-13'
p155
sg32
S'178'
p156
sg34
g35
sg36
S'CAR'
p157
sg38
S'70T'
p158
sg40
g10
sg42
S'--'
p159
ssg10
(dp160
g5
S'--'
p161
sg7
S'--'
p162
sg9
g10
sg11
S'--'
p163
sg13
g10
sg14
S'Julio Jones'
p164
sg16
S'2015'
p165
sg18
g10
sg20
S'--'
p166
sg22
S'09/14'
p167
sg24
S'15.7'
p168
sg26
S'--'
p169
sg28
S'--'
p170
sg30
S'W26-24'
p171
sg32
S'141'
p172
sg34
g35
sg36
S'PHI'
p173
sg38
S'44'
p174
sg40
S'2'
p175
sg42
S'--'
p176
ssS'3'
p177
(dp178
g5
S'--'
p179
sg7
S'--'
p180
sg9
g10
sg11
S'--'
p181
sg13
g10
sg14
S'Julio Jones'
p182
sg16
S'2015'
p183
sg18
g177
sg20
S'--'
p184
sg22
S'09/27'
p185
sg24
S'13.7'
p186
sg26
S'--'
p187
sg28
S'--'
p188
sg30
S'W39-28'
p189
sg32
S'164'
p190
sg34
S'12'
p191
sg36
S'@DAL'
p192
sg38
S'45T'
p193
sg40
g175
sg42
S'--'
p194
ssg175
(dp195
g5
S'--'
p196
sg7
S'--'
p197
sg9
g10
sg11
S'--'
p198
sg13
g10
sg14
S'Julio Jones'
p199
sg16
S'2015'
p200
sg18
g175
sg20
S'--'
p201
sg22
S'09/20'
p202
sg24
S'10.4'
p203
sg26
S'--'
p204
sg28
S'--'
p205
sg30
S'W24-20'
p206
sg32
S'135'
p207
sg34
S'13'
p208
sg36
S'@NYG'
p209
sg38
S'37'
p210
sg40
g41
sg42
S'--'
p211
ssg85
(dp212
g5
S'--'
p213
sg7
S'--'
p214
sg9
g10
sg11
g41
sg13
g10
sg14
S'Julio Jones'
p215
sg16
S'2015'
p216
sg18
g85
sg20
S'--'
p217
sg22
S'10/11'
p218
sg24
S'13.4'
p219
sg26
g10
sg28
S'--'
p220
sg30
S'W25-19'
p221
sg32
S'67'
p222
sg34
g85
sg36
S'WAS'
p223
sg38
S'20'
p224
sg40
g41
sg42
S'--'
p225
ssS'4'
p226
(dp227
g5
S'--'
p228
sg7
S'--'
p229
sg9
g10
sg11
S'--'
p230
sg13
g10
sg14
S'Julio Jones'
p231
sg16
S'2015'
p232
sg18
g226
sg20
S'--'
p233
sg22
S'10/04'
p234
sg24
S'9.5'
p235
sg26
S'--'
p236
sg28
S'--'
p237
sg30
S'W48-21'
p238
sg32
S'38'
p239
sg34
g226
sg36
S'HOU'
p240
sg38
S'19'
p241
sg40
g41
sg42
S'--'
p242
ssg120
(dp243
g5
S'--'
p244
sg7
S'--'
p245
sg9
g10
sg11
S'--'
p246
sg13
g10
sg14
S'Julio Jones'
p247
sg16
S'2015'
p248
sg18
g120
sg20
S'--'
p249
sg22
S'10/25'
p250
sg24
S'10.2'
p251
sg26
S'--'
p252
sg28
S'--'
p253
sg30
S'W10-7'
p254
sg32
S'92'
p255
sg34
g35
sg36
S'@TEN'
p256
sg38
S'21'
p257
sg40
g10
sg42
S'--'
p258
ssS'6'
p259
(dp260
g5
S'--'
p261
sg7
S'--'
p262
sg9
g10
sg11
S'--'
p263
sg13
g10
sg14
S'Julio Jones'
p264
sg16
S'2015'
p265
sg18
g259
sg20
S'--'
p266
sg22
S'10/15'
p267
sg24
S'15.5'
p268
sg26
S'--'
p269
sg28
S'--'
p270
sg30
S'L21-31'
p271
sg32
S'93'
p272
sg34
g259
sg36
S'@NO'
p273
sg38
S'30'
p274
sg40
g41
sg42
S'--'
p275
ssg35
(dp276
g5
S'--'
p277
sg7
S'--'
p278
sg9
g10
sg11
S'--'
p279
sg13
g10
sg14
S'Julio Jones'
p280
sg16
S'2015'
p281
sg18
g35
sg20
S'--'
p282
sg22
S'11/08'
p283
sg24
S'13.7'
p284
sg26
S'--'
p285
sg28
S'--'
p286
sg30
S'L16-17'
p287
sg32
S'137'
p288
sg34
S'10'
p289
sg36
S'@SF'
p290
sg38
S'54'
p291
sg40
g41
sg42
S'--'
p292
ssg66
(dp293
g5
S'--'
p294
sg7
S'--'
p295
sg9
g10
sg11
g10
sg13
g10
sg14
S'Julio Jones'
p296
sg16
S'2015'
p297
sg18
g66
sg20
S'--'
p298
sg22
S'11/01'
p299
sg24
S'13.5'
p300
sg26
g10
sg28
S'--'
p301
sg30
S'L20-23'
p302
sg32
S'162'
p303
sg34
S'12'
p304
sg36
S'TB'
p305
sg38
S'35'
p306
sg40
g10
sg42
S'--'
p307
sssS'2014'
p308
(dp309
g3
(dp310
g5
S'--'
p311
sg7
S'--'
p312
sg9
g10
sg11
S'--'
p313
sg13
g10
sg14
S'Julio Jones'
p314
sg16
S'2014'
p315
sg18
S'11'
p316
sg20
S'--'
p317
sg22
S'11/16'
p318
sg24
S'9.8'
p319
sg26
S'--'
p320
sg28
S'--'
p321
sg30
S'W19-17'
p322
sg32
S'59'
p323
sg34
g259
sg36
S'@CAR'
p324
sg38
S'11'
p325
sg40
g41
sg42
S'--'
p326
ssg44
(dp327
g5
S'--'
p328
sg7
S'--'
p329
sg9
g10
sg11
S'--'
p330
sg13
g10
sg14
S'Julio Jones'
p331
sg16
S'2014'
p332
sg18
S'10'
p333
sg20
S'--'
p334
sg22
S'11/09'
p335
sg24
S'14.9'
p336
sg26
S'--'
p337
sg28
S'--'
p338
sg30
S'W27-17'
p339
sg32
S'119'
p340
sg34
g66
sg36
S'@TB'
p341
sg38
S'39'
p342
sg40
g41
sg42
S'--'
p343
ssg51
(dp344
g5
S'--'
p345
sg7
S'--'
p346
sg9
g10
sg11
S'--'
p347
sg13
g10
sg14
S'Julio Jones'
p348
sg16
S'2014'
p349
sg18
S'13'
p350
sg20
S'--'
p351
sg22
S'11/30'
p352
sg24
S'18.9'
p353
sg26
S'--'
p354
sg28
S'--'
p355
sg30
S'W29-18'
p356
sg32
S'189'
p357
sg34
S'10'
p358
sg36
S'ARI'
p359
sg38
S'41'
p360
sg40
g10
sg42
S'--'
p361
ssg70
(dp362
g5
S'--'
p363
sg7
S'--'
p364
sg9
g10
sg11
S'--'
p365
sg13
g10
sg14
S'Julio Jones'
p366
sg16
S'2014'
p367
sg18
S'12'
p368
sg20
S'--'
p369
sg22
S'11/23'
p370
sg24
S'13.6'
p371
sg26
S'--'
p372
sg28
S'--'
p373
sg30
S'L24-26'
p374
sg32
S'68'
p375
sg34
g85
sg36
S'CLE'
p376
sg38
S'24T'
p377
sg40
g10
sg42
S'--'
p378
ssg89
(dp379
g5
S'--'
p380
sg7
S'--'
p381
sg9
g41
sg11
S'--'
p382
sg13
g41
sg14
S'Julio Jones'
p383
sg16
S'2014'
p384
sg18
S'15'
p385
sg20
S'--'
p386
sg22
S'12/14'
p387
sg24
S'--'
p388
sg26
S'--'
p389
sg28
S'--'
p390
sg30
S'L20-27'
p391
sg32
S'--'
p392
sg34
S'--'
p393
sg36
S'PIT'
p394
sg38
S'--'
p395
sg40
S'--'
p396
sg42
S'--'
p397
ssg107
(dp398
g5
S'--'
p399
sg7
S'--'
p400
sg9
g10
sg11
S'--'
p401
sg13
g10
sg14
S'Julio Jones'
p402
sg16
S'2014'
p403
sg18
S'14'
p404
sg20
S'--'
p405
sg22
S'12/08'
p406
sg24
S'23.5'
p407
sg26
S'--'
p408
sg28
S'--'
p409
sg30
S'L37-43'
p410
sg32
S'259'
p411
sg34
S'11'
p412
sg36
S'@GB'
p413
sg38
S'79'
p414
sg40
g10
sg42
S'--'
p415
ssg124
(dp416
g5
S'--'
p417
sg7
S'--'
p418
sg9
g10
sg11
S'--'
p419
sg13
g10
sg14
S'Julio Jones'
p420
sg16
S'2014'
p421
sg18
S'17'
p422
sg20
S'--'
p423
sg22
S'12/28'
p424
sg24
S'14.5'
p425
sg26
S'--'
p426
sg28
S'--'
p427
sg30
S'L3-34'
p428
sg32
S'58'
p429
sg34
g226
sg36
S'CAR'
p430
sg38
S'20'
p431
sg40
g41
sg42
S'--'
p432
ssg142
(dp433
g5
S'--'
p434
sg7
S'--'
p435
sg9
g10
sg11
S'--'
p436
sg13
g10
sg14
S'Julio Jones'
p437
sg16
S'2014'
p438
sg18
S'16'
p439
sg20
S'--'
p440
sg22
S'12/21'
p441
sg24
S'15.3'
p442
sg26
S'--'
p443
sg28
S'--'
p444
sg30
S'W30-14'
p445
sg32
S'107'
p446
sg34
g120
sg36
S'@NO'
p447
sg38
S'24'
p448
sg40
g41
sg42
S'--'
p449
ssg10
(dp450
g5
S'--'
p451
sg7
S'--'
p452
sg9
g10
sg11
g10
sg13
g10
sg14
S'Julio Jones'
p453
sg16
S'2014'
p454
sg18
g10
sg20
S'--'
p455
sg22
S'09/07'
p456
sg24
S'16.6'
p457
sg26
g10
sg28
S'--'
p458
sg30
S'W37-34'
p459
sg32
S'116'
p460
sg34
g120
sg36
S'NO'
p461
sg38
S'27'
p462
sg40
g41
sg42
S'--'
p463
ssg177
(dp464
g5
S'--'
p465
sg7
S'--'
p466
sg9
g10
sg11
S'--'
p467
sg13
g10
sg14
S'Julio Jones'
p468
sg16
S'2014'
p469
sg18
g177
sg20
S'--'
p470
sg22
S'09/18'
p471
sg24
S'17.9'
p472
sg26
S'--'
p473
sg28
S'--'
p474
sg30
S'W56-14'
p475
sg32
S'161'
p476
sg34
g35
sg36
S'TB'
p477
sg38
S'40T'
p478
sg40
g175
sg42
S'--'
p479
ssg175
(dp480
g5
S'--'
p481
sg7
S'--'
p482
sg9
g10
sg11
S'--'
p483
sg13
g10
sg14
S'Julio Jones'
p484
sg16
S'2014'
p485
sg18
g175
sg20
S'--'
p486
sg22
S'09/14'
p487
sg24
S'12.6'
p488
sg26
S'--'
p489
sg28
S'--'
p490
sg30
S'L10-24'
p491
sg32
S'88'
p492
sg34
g120
sg36
S'@CIN'
p493
sg38
S'24'
p494
sg40
g10
sg42
S'--'
p495
ssg85
(dp496
g5
S'--'
p497
sg7
S'--'
p498
sg9
g10
sg11
S'--'
p499
sg13
g10
sg14
S'Julio Jones'
p500
sg16
S'2014'
p501
sg18
g85
sg20
S'--'
p502
sg22
S'10/05'
p503
sg24
S'9.5'
p504
sg26
S'--'
p505
sg28
S'--'
p506
sg30
S'L20-30'
p507
sg32
S'105'
p508
sg34
S'11'
p509
sg36
S'@NYG'
p510
sg38
S'22'
p511
sg40
g41
sg42
S'--'
p512
ssg226
(dp513
g5
S'--'
p514
sg7
S'--'
p515
sg9
g10
sg11
S'--'
p516
sg13
g10
sg14
S'Julio Jones'
p517
sg16
S'2014'
p518
sg18
g226
sg20
S'--'
p519
sg22
S'09/28'
p520
sg24
S'13.7'
p521
sg26
S'--'
p522
sg28
S'--'
p523
sg30
S'L28-41'
p524
sg32
S'82'
p525
sg34
g259
sg36
S'@MIN'
p526
sg38
S'21'
p527
sg40
g41
sg42
S'--'
p528
ssg120
(dp529
g5
S'--'
p530
sg7
S'--'
p531
sg9
g10
sg11
S'--'
p532
sg13
g10
sg14
S'Julio Jones'
p533
sg16
S'2014'
p534
sg18
g120
sg20
S'--'
p535
sg22
S'10/19'
p536
sg24
S'11.2'
p537
sg26
S'--'
p538
sg28
S'--'
p539
sg30
S'L7-29'
p540
sg32
S'56'
p541
sg34
g85
sg36
S'@BAL'
p542
sg38
S'24'
p543
sg40
g41
sg42
S'--'
p544
ssg259
(dp545
g5
g41
sg7
g10
sg9
g10
sg11
g41
sg13
g10
sg14
S'Julio Jones'
p546
sg16
S'2014'
p547
sg18
g259
sg20
S'1.0'
p548
sg22
S'10/12'
p549
sg24
S'17.0'
p550
sg26
g10
sg28
g10
sg30
S'L13-27'
p551
sg32
S'68'
p552
sg34
g226
sg36
S'CHI'
p553
sg38
S'29'
p554
sg40
g41
sg42
g10
ssg35
(dp555
g5
g46
sg7
g46
sg9
g46
sg11
g46
sg13
g46
sg14
S'Julio Jones'
p556
sg16
S'2014'
p557
sg18
g35
sg20
g46
sg22
S'Bye'
p558
sg24
g46
sg26
g46
sg28
g46
sg30
g46
sg32
g46
sg34
g46
sg36
g46
sg38
g46
sg40
g46
sg42
g46
ssg66
(dp559
g5
S'--'
p560
sg7
S'--'
p561
sg9
g10
sg11
S'--'
p562
sg13
g10
sg14
S'Julio Jones'
p563
sg16
S'2014'
p564
sg18
g66
sg20
S'--'
p565
sg22
S'10/26'
p566
sg24
S'14.5'
p567
sg26
S'--'
p568
sg28
S'--'
p569
sg30
S'L21-22'
p570
sg32
S'58'
p571
sg34
g226
sg36
S'DET'
p572
sg38
S'22'
p573
sg40
g41
sg42
S'--'
p574
sssS'2011'
p575
(dp576
g3
(dp577
g5
S'--'
p578
sg7
S'--'
p579
sg9
g41
sg11
S'--'
p580
sg13
g41
sg14
S'Julio Jones'
p581
sg16
S'2011'
p582
sg18
S'11'
p583
sg20
S'--'
p584
sg22
S'11/20'
p585
sg24
S'--'
p586
sg26
S'--'
p587
sg28
S'--'
p588
sg30
S'W23-17'
p589
sg32
S'--'
p590
sg34
S'--'
p591
sg36
S'TEN'
p592
sg38
S'--'
p593
sg40
S'--'
p594
sg42
S'--'
p595
ssg44
(dp596
g5
S'--'
p597
sg7
S'--'
p598
sg9
g10
sg11
S'--'
p599
sg13
g10
sg14
S'Julio Jones'
p600
sg16
S'2011'
p601
sg18
S'10'
p602
sg20
S'--'
p603
sg22
S'11/13'
p604
sg24
S'4.5'
p605
sg26
S'--'
p606
sg28
S'--'
p607
sg30
S'L23-26'
p608
sg32
g35
sg34
g175
sg36
S'NO'
p609
sg38
g259
sg40
g41
sg42
S'--'
p610
ssg51
(dp611
g5
S'--'
p612
sg7
S'--'
p613
sg9
g10
sg11
S'--'
p614
sg13
g10
sg14
S'Julio Jones'
p615
sg16
S'2011'
p616
sg18
S'13'
p617
sg20
S'--'
p618
sg22
S'12/04'
p619
sg24
S'17.0'
p620
sg26
S'--'
p621
sg28
S'--'
p622
sg30
S'L10-17'
p623
sg32
S'68'
p624
sg34
g226
sg36
S'@HOU'
p625
sg38
S'26'
p626
sg40
g41
sg42
S'--'
p627
ssg70
(dp628
g5
S'--'
p629
sg7
S'--'
p630
sg9
g10
sg11
S'--'
p631
sg13
g10
sg14
S'Julio Jones'
p632
sg16
S'2011'
p633
sg18
S'12'
p634
sg20
S'--'
p635
sg22
S'11/27'
p636
sg24
S'--'
p637
sg26
S'--'
p638
sg28
S'--'
p639
sg30
S'W24-14'
p640
sg32
S'--'
p641
sg34
S'--'
p642
sg36
S'MIN'
p643
sg38
S'--'
p644
sg40
S'--'
p645
sg42
S'--'
p646
ssg89
(dp647
g5
g41
sg7
g259
sg9
g10
sg11
S'--'
p648
sg13
g10
sg14
S'Julio Jones'
p649
sg16
S'2011'
p650
sg18
S'15'
p651
sg20
S'6.0'
p652
sg22
S'12/15'
p653
sg24
S'17.0'
p654
sg26
S'--'
p655
sg28
g10
sg30
S'W41-14'
p656
sg32
S'85'
p657
sg34
g85
sg36
S'JAC'
p658
sg38
S'29T'
p659
sg40
g10
sg42
g259
ssg107
(dp660
g5
S'--'
p661
sg7
S'--'
p662
sg9
g10
sg11
S'--'
p663
sg13
g10
sg14
S'Julio Jones'
p664
sg16
S'2011'
p665
sg18
S'14'
p666
sg20
S'--'
p667
sg22
S'12/11'
p668
sg24
S'34.7'
p669
sg26
S'--'
p670
sg28
S'--'
p671
sg30
S'W31-23'
p672
sg32
S'104'
p673
sg34
g177
sg36
S'@CAR'
p674
sg38
S'75T'
p675
sg40
g175
sg42
S'--'
p676
ssg124
(dp677
g5
g41
sg7
g35
sg9
g10
sg11
S'--'
p678
sg13
g10
sg14
S'Julio Jones'
p679
sg16
S'2011'
p680
sg18
S'17'
p681
sg20
S'9.0'
p682
sg22
S'01/01'
p683
sg24
S'19.0'
p684
sg26
S'--'
p685
sg28
g10
sg30
S'W45-24'
p686
sg32
S'76'
p687
sg34
g226
sg36
S'TB'
p688
sg38
S'48T'
p689
sg40
g175
sg42
g35
ssg142
(dp690
g5
S'--'
p691
sg7
S'--'
p692
sg9
g10
sg11
g10
sg13
g10
sg14
S'Julio Jones'
p693
sg16
S'2011'
p694
sg18
S'16'
p695
sg20
S'--'
p696
sg22
S'12/26'
p697
sg24
S'16.0'
p698
sg26
g10
sg28
S'--'
p699
sg30
S'L16-45'
p700
sg32
S'128'
p701
sg34
g66
sg36
S'@NO'
p702
sg38
S'40'
p703
sg40
g10
sg42
S'--'
p704
ssg10
(dp705
g5
S'--'
p706
sg7
S'--'
p707
sg9
g10
sg11
S'--'
p708
sg13
g10
sg14
S'Julio Jones'
p709
sg16
S'2011'
p710
sg18
g10
sg20
S'--'
p711
sg22
S'09/11'
p712
sg24
S'14.2'
p713
sg26
S'--'
p714
sg28
S'--'
p715
sg30
S'L12-30'
p716
sg32
S'71'
p717
sg34
g85
sg36
S'@CHI'
p718
sg38
S'32'
p719
sg40
g41
sg42
S'--'
p720
ssg177
(dp721
g5
g41
sg7
S'-9'
p722
sg9
g10
sg11
S'--'
p723
sg13
g10
sg14
S'Julio Jones'
p724
sg16
S'2011'
p725
sg18
g177
sg20
S'-9.0'
p726
sg22
S'09/25'
p727
sg24
S'19.2'
p728
sg26
S'--'
p729
sg28
g10
sg30
S'L13-16'
p730
sg32
S'115'
p731
sg34
g259
sg36
S'@TB'
p732
sg38
S'49'
p733
sg40
g41
sg42
S'-9'
p734
ssg175
(dp735
g5
S'--'
p736
sg7
S'--'
p737
sg9
g10
sg11
S'--'
p738
sg13
g10
sg14
S'Julio Jones'
p739
sg16
S'2011'
p740
sg18
g175
sg20
S'--'
p741
sg22
S'09/18'
p742
sg24
S'14.5'
p743
sg26
S'--'
p744
sg28
S'--'
p745
sg30
S'W35-31'
p746
sg32
S'29'
p747
sg34
g175
sg36
S'PHI'
p748
sg38
S'15'
p749
sg40
g41
sg42
S'--'
p750
ssg85
(dp751
g5
g41
sg7
S'17'
p752
sg9
g10
sg11
S'--'
p753
sg13
g10
sg14
S'Julio Jones'
p754
sg16
S'2011'
p755
sg18
g85
sg20
S'17.0'
p756
sg22
S'10/09'
p757
sg24
S'16.0'
p758
sg26
S'--'
p759
sg28
g10
sg30
S'L14-25'
p760
sg32
S'16'
p761
sg34
g10
sg36
S'GB'
p762
sg38
S'16'
p763
sg40
g41
sg42
S'17'
p764
ssg226
(dp765
g5
S'--'
p766
sg7
S'--'
p767
sg9
g10
sg11
S'--'
p768
sg13
g10
sg14
S'Julio Jones'
p769
sg16
S'2011'
p770
sg18
g226
sg20
S'--'
p771
sg22
S'10/02'
p772
sg24
S'11.5'
p773
sg26
S'--'
p774
sg28
S'--'
p775
sg30
S'W30-28'
p776
sg32
S'127'
p777
sg34
S'11'
p778
sg36
S'@SEA'
p779
sg38
S'45'
p780
sg40
g41
sg42
S'--'
p781
ssg120
(dp782
g5
S'--'
p783
sg7
S'--'
p784
sg9
g41
sg11
S'--'
p785
sg13
g41
sg14
S'Julio Jones'
p786
sg16
S'2011'
p787
sg18
g120
sg20
S'--'
p788
sg22
S'10/23'
p789
sg24
S'--'
p790
sg26
S'--'
p791
sg28
S'--'
p792
sg30
S'W23-16'
p793
sg32
S'--'
p794
sg34
S'--'
p795
sg36
S'@DET'
p796
sg38
S'--'
p797
sg40
S'--'
p798
sg42
S'--'
p799
ssg259
(dp800
g5
S'--'
p801
sg7
S'--'
p802
sg9
g41
sg11
S'--'
p803
sg13
g41
sg14
S'Julio Jones'
p804
sg16
S'2011'
p805
sg18
g259
sg20
S'--'
p806
sg22
S'10/16'
p807
sg24
S'--'
p808
sg26
S'--'
p809
sg28
S'--'
p810
sg30
S'W31-17'
p811
sg32
S'--'
p812
sg34
S'--'
p813
sg36
S'CAR'
p814
sg38
S'--'
p815
sg40
S'--'
p816
sg42
S'--'
p817
ssg35
(dp818
g5
g41
sg7
S'33'
p819
sg9
g10
sg11
S'--'
p820
sg13
g10
sg14
S'Julio Jones'
p821
sg16
S'2011'
p822
sg18
g35
sg20
S'16.5'
p823
sg22
S'11/06'
p824
sg24
S'43.7'
p825
sg26
S'--'
p826
sg28
g175
sg30
S'W31-7'
p827
sg32
S'131'
p828
sg34
g177
sg36
S'@IND'
p829
sg38
S'80T'
p830
sg40
g175
sg42
S'19'
p831
ssg66
(dp832
g5
g46
sg7
g46
sg9
g46
sg11
g46
sg13
g46
sg14
S'Julio Jones'
p833
sg16
S'2011'
p834
sg18
g66
sg20
g46
sg22
S'Bye'
p835
sg24
g46
sg26
g46
sg28
g46
sg30
g46
sg32
g46
sg34
g46
sg36
g46
sg38
g46
sg40
g46
sg42
g46
sssS'2013'
p836
(dp837
g10
(dp838
g5
S'--'
p839
sg7
S'--'
p840
sg9
g10
sg11
g10
sg13
g10
sg14
S'Julio Jones'
p841
sg16
S'2013'
p842
sg18
g10
sg20
S'--'
p843
sg22
S'09/08'
p844
sg24
S'10.9'
p845
sg26
g10
sg28
S'--'
p846
sg30
S'L17-23'
p847
sg32
S'76'
p848
sg34
g120
sg36
S'@NO'
p849
sg38
S'22'
p850
sg40
g10
sg42
S'--'
p851
ssg177
(dp852
g5
g41
sg7
g120
sg9
g10
sg11
S'--'
p853
sg13
g10
sg14
S'Julio Jones'
p854
sg16
S'2013'
p855
sg18
g177
sg20
S'7.0'
p856
sg22
S'09/22'
p857
sg24
S'12.8'
p858
sg26
S'--'
p859
sg28
g10
sg30
S'L23-27'
p860
sg32
S'115'
p861
sg34
g35
sg36
S'@MIA'
p862
sg38
S'28'
p863
sg40
g41
sg42
g120
ssg175
(dp864
g5
S'--'
p865
sg7
S'--'
p866
sg9
g10
sg11
S'--'
p867
sg13
g10
sg14
S'Julio Jones'
p868
sg16
S'2013'
p869
sg18
g175
sg20
S'--'
p870
sg22
S'09/15'
p871
sg24
S'16.5'
p872
sg26
S'--'
p873
sg28
S'--'
p874
sg30
S'W31-24'
p875
sg32
S'182'
p876
sg34
S'11'
p877
sg36
S'STL'
p878
sg38
S'81T'
p879
sg40
g10
sg42
S'--'
p880
ssg85
(dp881
g5
S'--'
p882
sg7
S'--'
p883
sg9
g10
sg11
S'--'
p884
sg13
g10
sg14
S'Julio Jones'
p885
sg16
S'2013'
p886
sg18
g85
sg20
S'--'
p887
sg22
S'10/07'
p888
sg24
S'12.4'
p889
sg26
S'--'
p890
sg28
S'--'
p891
sg30
S'L28-30'
p892
sg32
S'99'
p893
sg34
g66
sg36
S'NYJ'
p894
sg38
S'46'
p895
sg40
g41
sg42
S'--'
p896
ssg226
(dp897
g5
S'--'
p898
sg7
S'--'
p899
sg9
g10
sg11
g41
sg13
g10
sg14
S'Julio Jones'
p900
sg16
S'2013'
p901
sg18
g226
sg20
S'--'
p902
sg22
S'09/29'
p903
sg24
S'18.0'
p904
sg26
g10
sg28
S'--'
p905
sg30
S'L23-30'
p906
sg32
S'108'
p907
sg34
g259
sg36
S'NE'
p908
sg38
S'49'
p909
sg40
g41
sg42
S'--'
p910
sssS'2012'
p911
(dp912
g3
(dp913
g5
S'--'
p914
sg7
S'--'
p915
sg9
g10
sg11
S'--'
p916
sg13
g10
sg14
S'Julio Jones'
p917
sg16
S'2012'
p918
sg18
S'11'
p919
sg20
S'--'
p920
sg22
S'11/18'
p921
sg24
S'11.0'
p922
sg26
S'--'
p923
sg28
S'--'
p924
sg30
S'W23-19'
p925
sg32
S'33'
p926
sg34
g177
sg36
S'ARI'
p927
sg38
S'20'
p928
sg40
g41
sg42
S'--'
p929
ssg44
(dp930
g5
S'--'
p931
sg7
S'--'
p932
sg9
g10
sg11
S'--'
p933
sg13
g10
sg14
S'Julio Jones'
p934
sg16
S'2012'
p935
sg18
S'10'
p936
sg20
S'--'
p937
sg22
S'11/11'
p938
sg24
S'18.8'
p939
sg26
S'--'
p940
sg28
S'--'
p941
sg30
S'L27-31'
p942
sg32
S'75'
p943
sg34
g226
sg36
S'@NO'
p944
sg38
S'52'
p945
sg40
g41
sg42
S'--'
p946
ssg51
(dp947
g5
S'--'
p948
sg7
S'--'
p949
sg9
g10
sg11
S'--'
p950
sg13
g10
sg14
S'Julio Jones'
p951
sg16
S'2012'
p952
sg18
S'13'
p953
sg20
S'--'
p954
sg22
S'11/29'
p955
sg24
S'9.6'
p956
sg26
S'--'
p957
sg28
S'--'
p958
sg30
S'W23-13'
p959
sg32
S'48'
p960
sg34
g85
sg36
S'NO'
p961
sg38
S'18'
p962
sg40
g41
sg42
S'--'
p963
ssg70
(dp964
g5
S'--'
p965
sg7
S'--'
p966
sg9
g10
sg11
S'--'
p967
sg13
g10
sg14
S'Julio Jones'
p968
sg16
S'2012'
p969
sg18
S'12'
p970
sg20
S'--'
p971
sg22
S'11/25'
p972
sg24
S'24.5'
p973
sg26
S'--'
p974
sg28
S'--'
p975
sg30
S'W24-23'
p976
sg32
S'147'
p977
sg34
g259
sg36
S'@TB'
p978
sg38
S'80T'
p979
sg40
g10
sg42
S'--'
p980
ssg89
(dp981
g5
g41
sg7
S'18'
p982
sg9
g10
sg11
S'--'
p983
sg13
g10
sg14
S'Julio Jones'
p984
sg16
S'2012'
p985
sg18
S'15'
p986
sg20
S'18.0'
p987
sg22
S'12/16'
p988
sg24
S'12.3'
p989
sg26
S'--'
p990
sg28
g10
sg30
S'W34-0'
p991
sg32
S'74'
p992
sg34
g259
sg36
S'NYG'
p993
sg38
S'40T'
p994
sg40
g175
sg42
S'18'
p995
ssg107
(dp996
g5
S'--'
p997
sg7
S'--'
p998
sg9
g10
sg11
S'--'
p999
sg13
g10
sg14
S'Julio Jones'
p1000
sg16
S'2012'
p1001
sg18
S'14'
p1002
sg20
S'--'
p1003
sg22
S'12/09'
p1004
sg24
S'13.2'
p1005
sg26
S'--'
p1006
sg28
S'--'
p1007
sg30
S'L20-30'
p1008
sg32
S'66'
p1009
sg34
g85
sg36
S'@CAR'
p1010
sg38
S'21'
p1011
sg40
g10
sg42
S'--'
p1012
ssg124
(dp1013
g5
S'--'
p1014
sg7
S'--'
p1015
sg9
g10
sg11
S'--'
p1016
sg13
g10
sg14
S'Julio Jones'
p1017
sg16
S'2012'
p1018
sg18
S'17'
p1019
sg20
S'--'
p1020
sg22
S'12/30'
p1021
sg24
S'18.7'
p1022
sg26
S'--'
p1023
sg28
S'--'
p1024
sg30
S'L17-22'
p1025
sg32
S'56'
p1026
sg34
g177
sg36
S'TB'
p1027
sg38
S'28'
p1028
sg40
g41
sg42
S'--'
p1029
ssg142
(dp1030
g5
g41
sg7
S'-7'
p1031
sg9
g10
sg11
S'--'
p1032
sg13
g10
sg14
S'Julio Jones'
p1033
sg16
S'2012'
p1034
sg18
S'16'
p1035
sg20
S'-7.0'
p1036
sg22
S'12/22'
p1037
sg24
S'10.1'
p1038
sg26
S'--'
p1039
sg28
g10
sg30
S'W31-18'
p1040
sg32
S'71'
p1041
sg34
g120
sg36
S'@DET'
p1042
sg38
S'16T'
p1043
sg40
g10
sg42
S'-7'
p1044
ssg10
(dp1045
g5
S'--'
p1046
sg7
S'--'
p1047
sg9
g10
sg11
S'--'
p1048
sg13
g10
sg14
S'Julio Jones'
p1049
sg16
S'2012'
p1050
sg18
g10
sg20
S'--'
p1051
sg22
S'09/09'
p1052
sg24
S'18.0'
p1053
sg26
S'--'
p1054
sg28
S'--'
p1055
sg30
S'W40-24'
p1056
sg32
S'108'
p1057
sg34
g259
sg36
S'@KC'
p1058
sg38
S'31'
p1059
sg40
g175
sg42
S'--'
p1060
ssg177
(dp1061
g5
S'--'
p1062
sg7
S'--'
p1063
sg9
g10
sg11
S'--'
p1064
sg13
g10
sg14
S'Julio Jones'
p1065
sg16
S'2012'
p1066
sg18
g177
sg20
S'--'
p1067
sg22
S'09/23'
p1068
sg24
S'13.4'
p1069
sg26
S'--'
p1070
sg28
S'--'
p1071
sg30
S'W27-3'
p1072
sg32
S'67'
p1073
sg34
g85
sg36
S'@SD'
p1074
sg38
S'29'
p1075
sg40
g10
sg42
S'--'
p1076
ssg175
(dp1077
g5
g41
sg7
g10
sg9
g41
sg11
S'--'
p1078
sg13
g10
sg14
S'Julio Jones'
p1079
sg16
S'2012'
p1080
sg18
g175
sg20
S'1.0'
p1081
sg22
S'09/17'
p1082
sg24
S'3.5'
p1083
sg26
S'--'
p1084
sg28
g10
sg30
S'W27-21'
p1085
sg32
S'14'
p1086
sg34
g226
sg36
S'DEN'
p1087
sg38
g259
sg40
g41
sg42
g10
ssg85
(dp1088
g5
g41
sg7
g10
sg9
g10
sg11
S'--'
p1089
sg13
g10
sg14
S'Julio Jones'
p1090
sg16
S'2012'
p1091
sg18
g85
sg20
S'1.0'
p1092
sg22
S'10/07'
p1093
sg24
S'9.4'
p1094
sg26
S'--'
p1095
sg28
g10
sg30
S'W24-17'
p1096
sg32
S'94'
p1097
sg34
S'10'
p1098
sg36
S'@WAS'
p1099
sg38
S'29'
p1100
sg40
g10
sg42
g10
ssg226
(dp1101
g5
S'--'
p1102
sg7
S'--'
p1103
sg9
g10
sg11
S'--'
p1104
sg13
g10
sg14
S'Julio Jones'
p1105
sg16
S'2012'
p1106
sg18
g226
sg20
S'--'
p1107
sg22
S'09/30'
p1108
sg24
S'30.0'
p1109
sg26
S'--'
p1110
sg28
S'--'
p1111
sg30
S'W30-28'
p1112
sg32
S'30'
p1113
sg34
g10
sg36
S'CAR'
p1114
sg38
S'30'
p1115
sg40
g41
sg42
S'--'
p1116
ssg120
(dp1117
g5
g46
sg7
g46
sg9
g46
sg11
g46
sg13
g46
sg14
S'Julio Jones'
p1118
sg16
S'2012'
p1119
sg18
g120
sg20
g46
sg22
S'Bye'
p1120
sg24
g46
sg26
g46
sg28
g46
sg30
g46
sg32
g46
sg34
g46
sg36
g46
sg38
g46
sg40
g46
sg42
g46
ssg259
(dp1121
g5
S'--'
p1122
sg7
S'--'
p1123
sg9
g10
sg11
S'--'
p1124
sg13
g10
sg14
S'Julio Jones'
p1125
sg16
S'2012'
p1126
sg18
g259
sg20
S'--'
p1127
sg22
S'10/14'
p1128
sg24
S'15.8'
p1129
sg26
S'--'
p1130
sg28
S'--'
p1131
sg30
S'W23-20'
p1132
sg32
S'63'
p1133
sg34
g226
sg36
S'OAK'
p1134
sg38
S'25'
p1135
sg40
g41
sg42
S'--'
p1136
ssg35
(dp1137
g5
g41
sg7
g66
sg9
g10
sg11
S'--'
p1138
sg13
g10
sg14
S'Julio Jones'
p1139
sg16
S'2012'
p1140
sg18
g35
sg20
S'8.0'
p1141
sg22
S'11/04'
p1142
sg24
S'25.8'
p1143
sg26
S'--'
p1144
sg28
g10
sg30
S'W19-13'
p1145
sg32
S'129'
p1146
sg34
g85
sg36
S'DAL'
p1147
sg38
S'48'
p1148
sg40
g41
sg42
g66
ssg66
(dp1149
g5
g41
sg7
g35
sg9
g10
sg11
S'--'
p1150
sg13
g10
sg14
S'Julio Jones'
p1151
sg16
S'2012'
p1152
sg18
g66
sg20
S'9.0'
p1153
sg22
S'10/28'
p1154
sg24
S'24.6'
p1155
sg26
S'--'
p1156
sg28
g10
sg30
S'W30-17'
p1157
sg32
S'123'
p1158
sg34
g85
sg36
S'@PHI'
p1159
sg38
S'63T'
p1160
sg40
g10
sg42
g35
sss.