(dp0
S'2015'
p1
(dp2
S'10'
p3
(dp4
S'RushTD'
p5
S'--'
p6
sS'RushYds'
p7
S'--'
p8
sS'GS'
p9
S'1'
p10
sS'Lost'
p11
S'--'
p12
sS'G'
p13
g10
sS'Player'
p14
S'Justin Hunter'
p15
sS'Year'
p16
S'2015'
p17
sS'WK'
p18
S'10'
p19
sS'RushAvg'
p20
S'--'
p21
sS'Game Date'
p22
S'11/15'
p23
sS'RecAvg'
p24
S'11.8'
p25
sS'FUM'
p26
S'--'
p27
sS'RushAtt'
p28
S'--'
p29
sS'Result'
p30
S'L10-27'
p31
sS'RecYds'
p32
S'47'
p33
sS'Rec'
p34
S'4'
p35
sS'Opp'
p36
S'CAR'
p37
sS'RecLng'
p38
S'24'
p39
sS'RecTD'
p40
S'0'
p41
sS'RushLng'
p42
S'--'
p43
ssg10
(dp44
g5
S'--'
p45
sg7
S'--'
p46
sg9
g41
sg11
S'--'
p47
sg13
g10
sg14
S'Justin Hunter'
p48
sg16
S'2015'
p49
sg18
g10
sg20
S'--'
p50
sg22
S'09/13'
p51
sg24
S'11.0'
p52
sg26
S'--'
p53
sg28
S'--'
p54
sg30
S'W42-14'
p55
sg32
S'11'
p56
sg34
g10
sg36
S'@TB'
p57
sg38
S'11'
p58
sg40
g41
sg42
S'--'
p59
ssS'3'
p60
(dp61
g5
S'--'
p62
sg7
S'--'
p63
sg9
g41
sg11
S'--'
p64
sg13
g10
sg14
S'Justin Hunter'
p65
sg16
S'2015'
p66
sg18
g60
sg20
S'--'
p67
sg22
S'09/27'
p68
sg24
S'29.0'
p69
sg26
S'--'
p70
sg28
S'--'
p71
sg30
S'L33-35'
p72
sg32
S'29'
p73
sg34
g10
sg36
S'IND'
p74
sg38
S'29'
p75
sg40
g41
sg42
S'--'
p76
ssS'2'
p77
(dp78
g5
S'--'
p79
sg7
S'--'
p80
sg9
g10
sg11
S'--'
p81
sg13
g10
sg14
S'Justin Hunter'
p82
sg16
S'2015'
p83
sg18
g77
sg20
S'--'
p84
sg22
S'09/20'
p85
sg24
S'17.0'
p86
sg26
S'--'
p87
sg28
S'--'
p88
sg30
S'L14-28'
p89
sg32
S'34'
p90
sg34
g77
sg36
S'@CLE'
p91
sg38
S'20'
p92
sg40
g41
sg42
S'--'
p93
ssS'5'
p94
(dp95
g5
S'--'
p96
sg7
S'--'
p97
sg9
g10
sg11
S'--'
p98
sg13
g10
sg14
S'Justin Hunter'
p99
sg16
S'2015'
p100
sg18
g94
sg20
S'--'
p101
sg22
S'10/11'
p102
sg24
S'9.5'
p103
sg26
S'--'
p104
sg28
S'--'
p105
sg30
S'L13-14'
p106
sg32
S'38'
p107
sg34
g35
sg36
S'BUF'
p108
sg38
S'14'
p109
sg40
g41
sg42
S'--'
p110
ssg35
(dp111
g5
S''
p112
sg7
g112
sg9
g112
sg11
g112
sg13
g112
sg14
S'Justin Hunter'
p113
sg16
S'2015'
p114
sg18
g35
sg20
g112
sg22
S'Bye'
p115
sg24
g112
sg26
g112
sg28
g112
sg30
g112
sg32
g112
sg34
g112
sg36
g112
sg38
g112
sg40
g112
sg42
g112
ssS'7'
p116
(dp117
g5
S'--'
p118
sg7
S'--'
p119
sg9
g10
sg11
S'--'
p120
sg13
g10
sg14
S'Justin Hunter'
p121
sg16
S'2015'
p122
sg18
g116
sg20
S'--'
p123
sg22
S'10/25'
p124
sg24
S'8.5'
p125
sg26
S'--'
p126
sg28
S'--'
p127
sg30
S'L7-10'
p128
sg32
S'17'
p129
sg34
g77
sg36
S'ATL'
p130
sg38
S'13'
p131
sg40
g41
sg42
S'--'
p132
ssS'6'
p133
(dp134
g5
S'--'
p135
sg7
S'--'
p136
sg9
g41
sg11
S'--'
p137
sg13
g10
sg14
S'Justin Hunter'
p138
sg16
S'2015'
p139
sg18
g133
sg20
S'--'
p140
sg22
S'10/18'
p141
sg24
S'18.0'
p142
sg26
S'--'
p143
sg28
S'--'
p144
sg30
S'L10-38'
p145
sg32
S'54'
p146
sg34
g60
sg36
S'MIA'
p147
sg38
S'23'
p148
sg40
g41
sg42
S'--'
p149
ssS'9'
p150
(dp151
g5
S'--'
p152
sg7
S'--'
p153
sg9
g41
sg11
S'--'
p154
sg13
g10
sg14
S'Justin Hunter'
p155
sg16
S'2015'
p156
sg18
g150
sg20
S'--'
p157
sg22
S'11/08'
p158
sg24
S'5.7'
p159
sg26
S'--'
p160
sg28
S'--'
p161
sg30
S'W34-28'
p162
sg32
S'17'
p163
sg34
g60
sg36
S'@NO'
p164
sg38
S'8T'
p165
sg40
g10
sg42
S'--'
p166
ssS'8'
p167
(dp168
g5
S'--'
p169
sg7
S'--'
p170
sg9
g10
sg11
S'--'
p171
sg13
g10
sg14
S'Justin Hunter'
p172
sg16
S'2015'
p173
sg18
g167
sg20
S'--'
p174
sg22
S'11/01'
p175
sg24
S'8.5'
p176
sg26
S'--'
p177
sg28
S'--'
p178
sg30
S'L6-20'
p179
sg32
S'17'
p180
sg34
g77
sg36
S'@HOU'
p181
sg38
S'10'
p182
sg40
g41
sg42
S'--'
p183
sssS'2014'
p184
(dp185
S'11'
p186
(dp187
g5
S'--'
p188
sg7
S'--'
p189
sg9
g10
sg11
S'--'
p190
sg13
g10
sg14
S'Justin Hunter'
p191
sg16
S'2014'
p192
sg18
S'11'
p193
sg20
S'--'
p194
sg22
S'11/17'
p195
sg24
S'24.0'
p196
sg26
S'--'
p197
sg28
S'--'
p198
sg30
S'L24-27'
p199
sg32
S'48'
p200
sg34
g77
sg36
S'PIT'
p201
sg38
S'36'
p202
sg40
g41
sg42
S'--'
p203
ssg3
(dp204
g5
S'--'
p205
sg7
S'--'
p206
sg9
g10
sg11
S'--'
p207
sg13
g10
sg14
S'Justin Hunter'
p208
sg16
S'2014'
p209
sg18
S'10'
p210
sg20
S'--'
p211
sg22
S'11/09'
p212
sg24
S'17.0'
p213
sg26
S'--'
p214
sg28
S'--'
p215
sg30
S'L7-21'
p216
sg32
S'17'
p217
sg34
g10
sg36
S'@BAL'
p218
sg38
S'17'
p219
sg40
g41
sg42
S'--'
p220
ssS'13'
p221
(dp222
g5
S'--'
p223
sg7
S'--'
p224
sg9
g10
sg11
S'--'
p225
sg13
g10
sg14
S'Justin Hunter'
p226
sg16
S'2014'
p227
sg18
S'13'
p228
sg20
S'--'
p229
sg22
S'11/30'
p230
sg24
S'18.0'
p231
sg26
S'--'
p232
sg28
S'--'
p233
sg30
S'L21-45'
p234
sg32
S'18'
p235
sg34
g10
sg36
S'@HOU'
p236
sg38
S'18'
p237
sg40
g41
sg42
S'--'
p238
ssS'12'
p239
(dp240
g5
S'--'
p241
sg7
S'--'
p242
sg9
g10
sg11
S'--'
p243
sg13
g10
sg14
S'Justin Hunter'
p244
sg16
S'2014'
p245
sg18
S'12'
p246
sg20
S'--'
p247
sg22
S'11/23'
p248
sg24
S'16.0'
p249
sg26
S'--'
p250
sg28
S'--'
p251
sg30
S'L24-43'
p252
sg32
S'64'
p253
sg34
g35
sg36
S'@PHI'
p254
sg38
S'40T'
p255
sg40
g10
sg42
S'--'
p256
ssg10
(dp257
g5
S'--'
p258
sg7
S'--'
p259
sg9
g41
sg11
S'--'
p260
sg13
g10
sg14
S'Justin Hunter'
p261
sg16
S'2014'
p262
sg18
g10
sg20
S'--'
p263
sg22
S'09/07'
p264
sg24
S'21.0'
p265
sg26
S'--'
p266
sg28
S'--'
p267
sg30
S'W26-10'
p268
sg32
S'63'
p269
sg34
g60
sg36
S'@KC'
p270
sg38
S'39'
p271
sg40
g41
sg42
S'--'
p272
ssg60
(dp273
g5
S'--'
p274
sg7
S'--'
p275
sg9
g41
sg11
S'--'
p276
sg13
g10
sg14
S'Justin Hunter'
p277
sg16
S'2014'
p278
sg18
g60
sg20
S'--'
p279
sg22
S'09/21'
p280
sg24
S'12.3'
p281
sg26
S'--'
p282
sg28
S'--'
p283
sg30
S'L7-33'
p284
sg32
S'37'
p285
sg34
g60
sg36
S'@CIN'
p286
sg38
S'19'
p287
sg40
g41
sg42
S'--'
p288
ssg77
(dp289
g5
S'--'
p290
sg7
S'--'
p291
sg9
g41
sg11
S'--'
p292
sg13
g10
sg14
S'Justin Hunter'
p293
sg16
S'2014'
p294
sg18
g77
sg20
S'--'
p295
sg22
S'09/14'
p296
sg24
S'13.0'
p297
sg26
S'--'
p298
sg28
S'--'
p299
sg30
S'L10-26'
p300
sg32
S'26'
p301
sg34
g77
sg36
S'DAL'
p302
sg38
S'23'
p303
sg40
g41
sg42
S'--'
p304
ssg94
(dp305
g5
S'--'
p306
sg7
S'--'
p307
sg9
g10
sg11
S'--'
p308
sg13
g10
sg14
S'Justin Hunter'
p309
sg16
S'2014'
p310
sg18
g94
sg20
S'--'
p311
sg22
S'10/05'
p312
sg24
S'33.0'
p313
sg26
S'--'
p314
sg28
S'--'
p315
sg30
S'L28-29'
p316
sg32
S'99'
p317
sg34
g60
sg36
S'CLE'
p318
sg38
S'75T'
p319
sg40
g10
sg42
S'--'
p320
ssg35
(dp321
g5
S'--'
p322
sg7
S'--'
p323
sg9
g41
sg11
S'--'
p324
sg13
g10
sg14
S'Justin Hunter'
p325
sg16
S'2014'
p326
sg18
g35
sg20
S'--'
p327
sg22
S'09/28'
p328
sg24
S'12.0'
p329
sg26
S'--'
p330
sg28
S'--'
p331
sg30
S'L17-41'
p332
sg32
S'12'
p333
sg34
g10
sg36
S'@IND'
p334
sg38
S'12'
p335
sg40
g41
sg42
S'--'
p336
ssg116
(dp337
g5
S'--'
p338
sg7
S'--'
p339
sg9
g10
sg11
S'--'
p340
sg13
g10
sg14
S'Justin Hunter'
p341
sg16
S'2014'
p342
sg18
g116
sg20
S'--'
p343
sg22
S'10/19'
p344
sg24
S'6.0'
p345
sg26
S'--'
p346
sg28
S'--'
p347
sg30
S'L17-19'
p348
sg32
g133
sg34
g10
sg36
S'@WAS'
p349
sg38
g133
sg40
g41
sg42
S'--'
p350
ssg133
(dp351
g5
S'--'
p352
sg7
S'--'
p353
sg9
g10
sg11
S'--'
p354
sg13
g10
sg14
S'Justin Hunter'
p355
sg16
S'2014'
p356
sg18
g133
sg20
S'--'
p357
sg22
S'10/12'
p358
sg24
S'25.7'
p359
sg26
S'--'
p360
sg28
S'--'
p361
sg30
S'W16-14'
p362
sg32
S'77'
p363
sg34
g60
sg36
S'JAC'
p364
sg38
S'38'
p365
sg40
g41
sg42
S'--'
p366
ssg150
(dp367
g5
g112
sg7
g112
sg9
g112
sg11
g112
sg13
g112
sg14
S'Justin Hunter'
p368
sg16
S'2014'
p369
sg18
g150
sg20
g112
sg22
S'Bye'
p370
sg24
g112
sg26
g112
sg28
g112
sg30
g112
sg32
g112
sg34
g112
sg36
g112
sg38
g112
sg40
g112
sg42
g112
ssg167
(dp371
g5
S'--'
p372
sg7
S'--'
p373
sg9
g10
sg11
S'--'
p374
sg13
g10
sg14
S'Justin Hunter'
p375
sg16
S'2014'
p376
sg18
g167
sg20
S'--'
p377
sg22
S'10/26'
p378
sg24
S'7.8'
p379
sg26
S'--'
p380
sg28
S'--'
p381
sg30
S'L16-30'
p382
sg32
S'31'
p383
sg34
g35
sg36
S'HOU'
p384
sg38
S'12T'
p385
sg40
g10
sg42
S'--'
p386
sssS'2013'
p387
(dp388
g186
(dp389
g5
S'--'
p390
sg7
S'--'
p391
sg9
g41
sg11
S'--'
p392
sg13
g10
sg14
S'Justin Hunter'
p393
sg16
S'2013'
p394
sg18
S'11'
p395
sg20
S'--'
p396
sg22
S'11/14'
p397
sg24
S'--'
p398
sg26
S'--'
p399
sg28
S'--'
p400
sg30
S'L27-30'
p401
sg32
g41
sg34
g41
sg36
S'IND'
p402
sg38
S'--'
p403
sg40
g41
sg42
S'--'
p404
ssg3
(dp405
g5
S'--'
p406
sg7
S'--'
p407
sg9
g41
sg11
S'--'
p408
sg13
g10
sg14
S'Justin Hunter'
p409
sg16
S'2013'
p410
sg18
S'10'
p411
sg20
S'--'
p412
sg22
S'11/10'
p413
sg24
S'25.5'
p414
sg26
S'--'
p415
sg28
S'--'
p416
sg30
S'L27-29'
p417
sg32
S'51'
p418
sg34
g77
sg36
S'JAC'
p419
sg38
S'40'
p420
sg40
g41
sg42
S'--'
p421
ssg221
(dp422
g5
S'--'
p423
sg7
S'--'
p424
sg9
g41
sg11
S'--'
p425
sg13
g10
sg14
S'Justin Hunter'
p426
sg16
S'2013'
p427
sg18
S'13'
p428
sg20
S'--'
p429
sg22
S'12/01'
p430
sg24
S'9.0'
p431
sg26
S'--'
p432
sg28
S'--'
p433
sg30
S'L14-22'
p434
sg32
g150
sg34
g10
sg36
S'@IND'
p435
sg38
g150
sg40
g41
sg42
S'--'
p436
ssg239
(dp437
g5
S'--'
p438
sg7
S'--'
p439
sg9
g41
sg11
S'--'
p440
sg13
g10
sg14
S'Justin Hunter'
p441
sg16
S'2013'
p442
sg18
S'12'
p443
sg20
S'--'
p444
sg22
S'11/24'
p445
sg24
S'18.2'
p446
sg26
S'--'
p447
sg28
S'--'
p448
sg30
S'W23-19'
p449
sg32
S'109'
p450
sg34
g133
sg36
S'@OAK'
p451
sg38
S'54T'
p452
sg40
g10
sg42
S'--'
p453
ssS'15'
p454
(dp455
g5
S'--'
p456
sg7
S'--'
p457
sg9
g41
sg11
S'--'
p458
sg13
g41
sg14
S'Justin Hunter'
p459
sg16
S'2013'
p460
sg18
S'15'
p461
sg20
S'--'
p462
sg22
S'12/15'
p463
sg24
S'--'
p464
sg26
S'--'
p465
sg28
S'--'
p466
sg30
S'L34-37'
p467
sg32
S'--'
p468
sg34
S'--'
p469
sg36
S'ARI'
p470
sg38
S'--'
p471
sg40
S'--'
p472
sg42
S'--'
p473
ssS'14'
p474
(dp475
g5
S'--'
p476
sg7
S'--'
p477
sg9
g41
sg11
S'--'
p478
sg13
g10
sg14
S'Justin Hunter'
p479
sg16
S'2013'
p480
sg18
S'14'
p481
sg20
S'--'
p482
sg22
S'12/08'
p483
sg24
S'28.5'
p484
sg26
S'--'
p485
sg28
S'--'
p486
sg30
S'L28-51'
p487
sg32
S'114'
p488
sg34
g35
sg36
S'@DEN'
p489
sg38
S'57'
p490
sg40
g10
sg42
S'--'
p491
ssS'17'
p492
(dp493
g5
S'--'
p494
sg7
S'--'
p495
sg9
g41
sg11
S'--'
p496
sg13
g10
sg14
S'Justin Hunter'
p497
sg16
S'2013'
p498
sg18
S'17'
p499
sg20
S'--'
p500
sg22
S'12/29'
p501
sg24
S'--'
p502
sg26
S'--'
p503
sg28
S'--'
p504
sg30
S'W16-10'
p505
sg32
g41
sg34
g41
sg36
S'HOU'
p506
sg38
S'--'
p507
sg40
g41
sg42
S'--'
p508
ssS'16'
p509
(dp510
g5
S'--'
p511
sg7
S'--'
p512
sg9
g41
sg11
S'--'
p513
sg13
g10
sg14
S'Justin Hunter'
p514
sg16
S'2013'
p515
sg18
S'16'
p516
sg20
S'--'
p517
sg22
S'12/22'
p518
sg24
S'--'
p519
sg26
S'--'
p520
sg28
S'--'
p521
sg30
S'W20-16'
p522
sg32
g41
sg34
g41
sg36
S'@JAC'
p523
sg38
S'--'
p524
sg40
g41
sg42
S'--'
p525
ssg10
(dp526
g5
S'--'
p527
sg7
S'--'
p528
sg9
g41
sg11
S'--'
p529
sg13
g41
sg14
S'Justin Hunter'
p530
sg16
S'2013'
p531
sg18
g10
sg20
S'--'
p532
sg22
S'09/08'
p533
sg24
S'--'
p534
sg26
S'--'
p535
sg28
S'--'
p536
sg30
S'W16-9'
p537
sg32
S'--'
p538
sg34
S'--'
p539
sg36
S'@PIT'
p540
sg38
S'--'
p541
sg40
S'--'
p542
sg42
S'--'
p543
ssg60
(dp544
g5
S'--'
p545
sg7
S'--'
p546
sg9
g41
sg11
S'--'
p547
sg13
g10
sg14
S'Justin Hunter'
p548
sg16
S'2013'
p549
sg18
g60
sg20
S'--'
p550
sg22
S'09/22'
p551
sg24
S'34.0'
p552
sg26
S'--'
p553
sg28
S'--'
p554
sg30
S'W20-17'
p555
sg32
S'34'
p556
sg34
g10
sg36
S'SD'
p557
sg38
S'34T'
p558
sg40
g10
sg42
S'--'
p559
ssg77
(dp560
g5
S'--'
p561
sg7
S'--'
p562
sg9
g41
sg11
S'--'
p563
sg13
g10
sg14
S'Justin Hunter'
p564
sg16
S'2013'
p565
sg18
g77
sg20
S'--'
p566
sg22
S'09/15'
p567
sg24
S'--'
p568
sg26
S'--'
p569
sg28
S'--'
p570
sg30
S'L24-30'
p571
sg32
S'--'
p572
sg34
S'--'
p573
sg36
S'@HOU'
p574
sg38
S'--'
p575
sg40
S'--'
p576
sg42
S'--'
p577
ssg94
(dp578
g5
S'--'
p579
sg7
S'--'
p580
sg9
g41
sg11
S'--'
p581
sg13
g10
sg14
S'Justin Hunter'
p582
sg16
S'2013'
p583
sg18
g94
sg20
S'--'
p584
sg22
S'10/06'
p585
sg24
S'--'
p586
sg26
S'--'
p587
sg28
S'--'
p588
sg30
S'L17-26'
p589
sg32
g41
sg34
g41
sg36
S'KC'
p590
sg38
S'--'
p591
sg40
g41
sg42
S'--'
p592
ssg35
(dp593
g5
S'--'
p594
sg7
S'--'
p595
sg9
g41
sg11
S'--'
p596
sg13
g10
sg14
S'Justin Hunter'
p597
sg16
S'2013'
p598
sg18
g35
sg20
S'--'
p599
sg22
S'09/29'
p600
sg24
S'16.0'
p601
sg26
S'--'
p602
sg28
S'--'
p603
sg30
S'W38-13'
p604
sg32
S'16'
p605
sg34
g10
sg36
S'NYJ'
p606
sg38
S'16T'
p607
sg40
g10
sg42
S'--'
p608
ssg116
(dp609
g5
S'--'
p610
sg7
S'--'
p611
sg9
g41
sg11
S'--'
p612
sg13
g10
sg14
S'Justin Hunter'
p613
sg16
S'2013'
p614
sg18
g116
sg20
S'--'
p615
sg22
S'10/20'
p616
sg24
S'--'
p617
sg26
S'--'
p618
sg28
S'--'
p619
sg30
S'L17-31'
p620
sg32
g41
sg34
g41
sg36
S'SF'
p621
sg38
S'--'
p622
sg40
g41
sg42
S'--'
p623
ssg133
(dp624
g5
S'--'
p625
sg7
S'--'
p626
sg9
g41
sg11
S'--'
p627
sg13
g10
sg14
S'Justin Hunter'
p628
sg16
S'2013'
p629
sg18
g133
sg20
S'--'
p630
sg22
S'10/13'
p631
sg24
S'8.0'
p632
sg26
S'--'
p633
sg28
S'--'
p634
sg30
S'L13-20'
p635
sg32
g167
sg34
g10
sg36
S'@SEA'
p636
sg38
g167
sg40
g41
sg42
S'--'
p637
ssg150
(dp638
g5
S'--'
p639
sg7
S'--'
p640
sg9
g41
sg11
S'--'
p641
sg13
g10
sg14
S'Justin Hunter'
p642
sg16
S'2013'
p643
sg18
g150
sg20
S'--'
p644
sg22
S'11/03'
p645
sg24
S'6.5'
p646
sg26
S'--'
p647
sg28
S'--'
p648
sg30
S'W28-21'
p649
sg32
S'13'
p650
sg34
g77
sg36
S'@STL'
p651
sg38
g167
sg40
g41
sg42
S'--'
p652
ssg167
(dp653
g5
g112
sg7
g112
sg9
g112
sg11
g112
sg13
g112
sg14
S'Justin Hunter'
p654
sg16
S'2013'
p655
sg18
g167
sg20
g112
sg22
S'Bye'
p656
sg24
g112
sg26
g112
sg28
g112
sg30
g112
sg32
g112
sg34
g112
sg36
g112
sg38
g112
sg40
g112
sg42
g112
sss.