(dp0
S'2015'
p1
(dp2
S'5'
p3
(dp4
S'RushTD'
p5
S'--'
p6
sS'RushYds'
p7
S'--'
p8
sS'GS'
p9
S'1'
p10
sS'Lost'
p11
S'--'
p12
sS'G'
p13
g10
sS'Player'
p14
S'Justin Blackmon'
p15
sS'Year'
p16
S'2015'
p17
sS'WK'
p18
g3
sS'RushAvg'
p19
S'--'
p20
sS'Game Date'
p21
S'10/06'
p22
sS'RecAvg'
p23
S'27.2'
p24
sS'FUM'
p25
S'--'
p26
sS'RushAtt'
p27
S'--'
p28
sS'Result'
p29
S'L20-34'
p30
sS'RecYds'
p31
S'136'
p32
sS'Rec'
p33
g3
sS'Opp'
p34
S'@STL'
p35
sS'RecLng'
p36
S'67T'
p37
sS'RecTD'
p38
g10
sS'RushLng'
p39
S'--'
p40
ssS'7'
p41
(dp42
g5
S'--'
p43
sg7
S'--'
p44
sg9
g10
sg11
S'--'
p45
sg13
g10
sg14
S'Justin Blackmon'
p46
sg16
S'2015'
p47
sg18
g41
sg19
S'--'
p48
sg21
S'10/20'
p49
sg23
S'9.7'
p50
sg25
S'--'
p51
sg27
S'--'
p52
sg29
S'L6-24'
p53
sg31
S'58'
p54
sg33
S'6'
p55
sg34
S'SD'
p56
sg36
S'12'
p57
sg38
S'0'
p58
sg39
S'--'
p59
ssg55
(dp60
g5
S'--'
p61
sg7
S'--'
p62
sg9
g10
sg11
S'--'
p63
sg13
g10
sg14
S'Justin Blackmon'
p64
sg16
S'2015'
p65
sg18
g55
sg19
S'--'
p66
sg21
S'10/13'
p67
sg23
S'13.6'
p68
sg25
S'--'
p69
sg27
S'--'
p70
sg29
S'L19-35'
p71
sg31
S'190'
p72
sg33
S'14'
p73
sg34
S'@DEN'
p74
sg36
S'23'
p75
sg38
g58
sg39
S'--'
p76
ssS'8'
p77
(dp78
g5
g58
sg7
S'-1'
p79
sg9
g10
sg11
S'--'
p80
sg13
g10
sg14
S'Justin Blackmon'
p81
sg16
S'2015'
p82
sg18
g77
sg19
S'-1.0'
p83
sg21
S'10/27'
p84
sg23
S'7.8'
p85
sg25
S'--'
p86
sg27
g10
sg29
S'L10-42'
p87
sg31
S'31'
p88
sg33
S'4'
p89
sg34
S'SF'
p90
sg36
S'12'
p91
sg38
g58
sg39
S'-1'
p92
sssS'2014'
p93
(dp94
g3
(dp95
g5
S'--'
p96
sg7
S'--'
p97
sg9
g10
sg11
S'--'
p98
sg13
g10
sg14
S'Justin Blackmon'
p99
sg16
S'2014'
p100
sg18
g3
sg19
S'--'
p101
sg21
S'10/06'
p102
sg23
S'27.2'
p103
sg25
S'--'
p104
sg27
S'--'
p105
sg29
S'L20-34'
p106
sg31
S'136'
p107
sg33
g3
sg34
S'@STL'
p108
sg36
S'67T'
p109
sg38
g10
sg39
S'--'
p110
ssg41
(dp111
g5
S'--'
p112
sg7
S'--'
p113
sg9
g10
sg11
S'--'
p114
sg13
g10
sg14
S'Justin Blackmon'
p115
sg16
S'2014'
p116
sg18
g41
sg19
S'--'
p117
sg21
S'10/20'
p118
sg23
S'9.7'
p119
sg25
S'--'
p120
sg27
S'--'
p121
sg29
S'L6-24'
p122
sg31
S'58'
p123
sg33
g55
sg34
S'SD'
p124
sg36
S'12'
p125
sg38
g58
sg39
S'--'
p126
ssg55
(dp127
g5
S'--'
p128
sg7
S'--'
p129
sg9
g10
sg11
S'--'
p130
sg13
g10
sg14
S'Justin Blackmon'
p131
sg16
S'2014'
p132
sg18
g55
sg19
S'--'
p133
sg21
S'10/13'
p134
sg23
S'13.6'
p135
sg25
S'--'
p136
sg27
S'--'
p137
sg29
S'L19-35'
p138
sg31
S'190'
p139
sg33
S'14'
p140
sg34
S'@DEN'
p141
sg36
S'23'
p142
sg38
g58
sg39
S'--'
p143
ssg77
(dp144
g5
g58
sg7
S'-1'
p145
sg9
g10
sg11
S'--'
p146
sg13
g10
sg14
S'Justin Blackmon'
p147
sg16
S'2014'
p148
sg18
g77
sg19
S'-1.0'
p149
sg21
S'10/27'
p150
sg23
S'7.8'
p151
sg25
S'--'
p152
sg27
g10
sg29
S'L10-42'
p153
sg31
S'31'
p154
sg33
g89
sg34
S'SF'
p155
sg36
S'12'
p156
sg38
g58
sg39
S'-1'
p157
sssS'2013'
p158
(dp159
g3
(dp160
g5
S'--'
p161
sg7
S'--'
p162
sg9
g10
sg11
S'--'
p163
sg13
g10
sg14
S'Justin Blackmon'
p164
sg16
S'2013'
p165
sg18
g3
sg19
S'--'
p166
sg21
S'10/06'
p167
sg23
S'27.2'
p168
sg25
S'--'
p169
sg27
S'--'
p170
sg29
S'L20-34'
p171
sg31
S'136'
p172
sg33
g3
sg34
S'@STL'
p173
sg36
S'67T'
p174
sg38
g10
sg39
S'--'
p175
ssg41
(dp176
g5
S'--'
p177
sg7
S'--'
p178
sg9
g10
sg11
S'--'
p179
sg13
g10
sg14
S'Justin Blackmon'
p180
sg16
S'2013'
p181
sg18
g41
sg19
S'--'
p182
sg21
S'10/20'
p183
sg23
S'9.7'
p184
sg25
S'--'
p185
sg27
S'--'
p186
sg29
S'L6-24'
p187
sg31
S'58'
p188
sg33
g55
sg34
S'SD'
p189
sg36
S'12'
p190
sg38
g58
sg39
S'--'
p191
ssg55
(dp192
g5
S'--'
p193
sg7
S'--'
p194
sg9
g10
sg11
S'--'
p195
sg13
g10
sg14
S'Justin Blackmon'
p196
sg16
S'2013'
p197
sg18
g55
sg19
S'--'
p198
sg21
S'10/13'
p199
sg23
S'13.6'
p200
sg25
S'--'
p201
sg27
S'--'
p202
sg29
S'L19-35'
p203
sg31
S'190'
p204
sg33
S'14'
p205
sg34
S'@DEN'
p206
sg36
S'23'
p207
sg38
g58
sg39
S'--'
p208
ssg77
(dp209
g5
g58
sg7
S'-1'
p210
sg9
g10
sg11
S'--'
p211
sg13
g10
sg14
S'Justin Blackmon'
p212
sg16
S'2013'
p213
sg18
g77
sg19
S'-1.0'
p214
sg21
S'10/27'
p215
sg23
S'7.8'
p216
sg25
S'--'
p217
sg27
g10
sg29
S'L10-42'
p218
sg31
S'31'
p219
sg33
g89
sg34
S'SF'
p220
sg36
S'12'
p221
sg38
g58
sg39
S'-1'
p222
sssS'2012'
p223
(dp224
S'11'
p225
(dp226
g5
S'--'
p227
sg7
S'--'
p228
sg9
g10
sg11
S'--'
p229
sg13
g10
sg14
S'Justin Blackmon'
p230
sg16
S'2012'
p231
sg18
S'11'
p232
sg19
S'--'
p233
sg21
S'11/18'
p234
sg23
S'33.7'
p235
sg25
S'--'
p236
sg27
S'--'
p237
sg29
S'L37-43'
p238
sg31
S'236'
p239
sg33
g41
sg34
S'@HOU'
p240
sg36
S'81T'
p241
sg38
g10
sg39
S'--'
p242
ssS'10'
p243
(dp244
g5
S'--'
p245
sg7
S'--'
p246
sg9
g10
sg11
S'--'
p247
sg13
g10
sg14
S'Justin Blackmon'
p248
sg16
S'2012'
p249
sg18
S'10'
p250
sg19
S'--'
p251
sg21
S'11/08'
p252
sg23
S'8.3'
p253
sg25
S'--'
p254
sg27
S'--'
p255
sg29
S'L10-27'
p256
sg31
S'25'
p257
sg33
S'3'
p258
sg34
S'IND'
p259
sg36
S'10'
p260
sg38
g58
sg39
S'--'
p261
ssS'13'
p262
(dp263
g5
S'--'
p264
sg7
S'--'
p265
sg9
g10
sg11
S'--'
p266
sg13
g10
sg14
S'Justin Blackmon'
p267
sg16
S'2012'
p268
sg18
S'13'
p269
sg19
S'--'
p270
sg21
S'12/02'
p271
sg23
S'9.0'
p272
sg25
S'--'
p273
sg27
S'--'
p274
sg29
S'L18-34'
p275
sg31
S'9'
p276
sg33
g10
sg34
S'@BUF'
p277
sg36
g276
sg38
g58
sg39
S'--'
p278
ssS'12'
p279
(dp280
g5
g58
sg7
S'12'
p281
sg9
g10
sg11
S'--'
p282
sg13
g10
sg14
S'Justin Blackmon'
p283
sg16
S'2012'
p284
sg18
S'12'
p285
sg19
S'12.0'
p286
sg21
S'11/25'
p287
sg23
S'12.4'
p288
sg25
S'--'
p289
sg27
g10
sg29
S'W24-19'
p290
sg31
S'62'
p291
sg33
g3
sg34
S'TEN'
p292
sg36
S'23'
p293
sg38
g10
sg39
S'12'
p294
ssS'15'
p295
(dp296
g5
S'--'
p297
sg7
S'--'
p298
sg9
g10
sg11
S'--'
p299
sg13
g10
sg14
S'Justin Blackmon'
p300
sg16
S'2012'
p301
sg18
S'15'
p302
sg19
S'--'
p303
sg21
S'12/16'
p304
sg23
S'15.5'
p305
sg25
S'--'
p306
sg27
S'--'
p307
sg29
S'L3-24'
p308
sg31
S'93'
p309
sg33
g55
sg34
S'@MIA'
p310
sg36
S'38'
p311
sg38
g58
sg39
S'--'
p312
ssS'14'
p313
(dp314
g5
S'--'
p315
sg7
S'--'
p316
sg9
g10
sg11
S'--'
p317
sg13
g10
sg14
S'Justin Blackmon'
p318
sg16
S'2012'
p319
sg18
S'14'
p320
sg19
S'--'
p321
sg21
S'12/09'
p322
sg23
S'9.5'
p323
sg25
S'--'
p324
sg27
S'--'
p325
sg29
S'L10-17'
p326
sg31
S'57'
p327
sg33
g55
sg34
S'NYJ'
p328
sg36
S'14'
p329
sg38
g58
sg39
S'--'
p330
ssS'17'
p331
(dp332
g5
g58
sg7
S'11'
p333
sg9
g10
sg11
g58
sg13
g10
sg14
S'Justin Blackmon'
p334
sg16
S'2012'
p335
sg18
S'17'
p336
sg19
S'11.0'
p337
sg21
S'12/30'
p338
sg23
S'13.2'
p339
sg25
g10
sg27
g10
sg29
S'L20-38'
p340
sg31
S'79'
p341
sg33
g55
sg34
S'@TEN'
p342
sg36
S'30T'
p343
sg38
g10
sg39
S'11'
p344
ssS'16'
p345
(dp346
g5
S'--'
p347
sg7
S'--'
p348
sg9
g10
sg11
S'--'
p349
sg13
g10
sg14
S'Justin Blackmon'
p350
sg16
S'2012'
p351
sg18
S'16'
p352
sg19
S'--'
p353
sg21
S'12/23'
p354
sg23
S'11.3'
p355
sg25
S'--'
p356
sg27
S'--'
p357
sg29
S'L16-23'
p358
sg31
S'79'
p359
sg33
g41
sg34
S'NE'
p360
sg36
S'18'
p361
sg38
g10
sg39
S'--'
p362
ssg10
(dp363
g5
S'--'
p364
sg7
S'--'
p365
sg9
g10
sg11
S'--'
p366
sg13
g10
sg14
S'Justin Blackmon'
p367
sg16
S'2012'
p368
sg18
g10
sg19
S'--'
p369
sg21
S'09/09'
p370
sg23
S'8.0'
p371
sg25
S'--'
p372
sg27
S'--'
p373
sg29
S'L23-26'
p374
sg31
S'24'
p375
sg33
g258
sg34
S'@MIN'
p376
sg36
S'13'
p377
sg38
g58
sg39
S'--'
p378
ssg258
(dp379
g5
S'--'
p380
sg7
S'--'
p381
sg9
g10
sg11
S'--'
p382
sg13
g10
sg14
S'Justin Blackmon'
p383
sg16
S'2012'
p384
sg18
g258
sg19
S'--'
p385
sg21
S'09/23'
p386
sg23
S'7.0'
p387
sg25
S'--'
p388
sg27
S'--'
p389
sg29
S'W22-17'
p390
sg31
g41
sg33
g10
sg34
S'@IND'
p391
sg36
g41
sg38
g58
sg39
S'--'
p392
ssS'2'
p393
(dp394
g5
S'--'
p395
sg7
S'--'
p396
sg9
g58
sg11
S'--'
p397
sg13
g10
sg14
S'Justin Blackmon'
p398
sg16
S'2012'
p399
sg18
g393
sg19
S'--'
p400
sg21
S'09/16'
p401
sg23
S'--'
p402
sg25
S'--'
p403
sg27
S'--'
p404
sg29
S'L7-27'
p405
sg31
g58
sg33
g58
sg34
S'HOU'
p406
sg36
S'--'
p407
sg38
g58
sg39
S'--'
p408
ssg3
(dp409
g5
S'--'
p410
sg7
S'--'
p411
sg9
g10
sg11
S'--'
p412
sg13
g10
sg14
S'Justin Blackmon'
p413
sg16
S'2012'
p414
sg18
g3
sg19
S'--'
p415
sg21
S'10/07'
p416
sg23
S'13.3'
p417
sg25
S'--'
p418
sg27
S'--'
p419
sg29
S'L3-41'
p420
sg31
S'40'
p421
sg33
g258
sg34
S'CHI'
p422
sg36
S'19'
p423
sg38
g58
sg39
S'--'
p424
ssg89
(dp425
g5
S'--'
p426
sg7
S'--'
p427
sg9
g10
sg11
S'--'
p428
sg13
g10
sg14
S'Justin Blackmon'
p429
sg16
S'2012'
p430
sg18
g89
sg19
S'--'
p431
sg21
S'09/30'
p432
sg23
S'8.0'
p433
sg25
S'--'
p434
sg27
S'--'
p435
sg29
S'L10-27'
p436
sg31
S'48'
p437
sg33
g55
sg34
S'CIN'
p438
sg36
S'14'
p439
sg38
g58
sg39
S'--'
p440
ssg41
(dp441
g5
S'--'
p442
sg7
S'--'
p443
sg9
g58
sg11
S'--'
p444
sg13
g10
sg14
S'Justin Blackmon'
p445
sg16
S'2012'
p446
sg18
g41
sg19
S'--'
p447
sg21
S'10/21'
p448
sg23
S'7.0'
p449
sg25
S'--'
p450
sg27
S'--'
p451
sg29
S'L23-26'
p452
sg31
g41
sg33
g10
sg34
S'@OAK'
p453
sg36
g41
sg38
g58
sg39
S'--'
p454
ssg55
(dp455
g5
S''
p456
sg7
g456
sg9
g456
sg11
g456
sg13
g456
sg14
S'Justin Blackmon'
p457
sg16
S'2012'
p458
sg18
g55
sg19
g456
sg21
S'Bye'
p459
sg23
g456
sg25
g456
sg27
g456
sg29
g456
sg31
g456
sg33
g456
sg34
g456
sg36
g456
sg38
g456
sg39
g456
ssg276
(dp460
g5
S'--'
p461
sg7
S'--'
p462
sg9
g10
sg11
S'--'
p463
sg13
g10
sg14
S'Justin Blackmon'
p464
sg16
S'2012'
p465
sg18
g276
sg19
S'--'
p466
sg21
S'11/04'
p467
sg23
S'6.4'
p468
sg25
S'--'
p469
sg27
S'--'
p470
sg29
S'L14-31'
p471
sg31
S'32'
p472
sg33
g3
sg34
S'DET'
p473
sg36
S'12'
p474
sg38
g10
sg39
S'--'
p475
ssg77
(dp476
g5
S'--'
p477
sg7
S'--'
p478
sg9
g10
sg11
S'--'
p479
sg13
g10
sg14
S'Justin Blackmon'
p480
sg16
S'2012'
p481
sg18
g77
sg19
S'--'
p482
sg21
S'10/28'
p483
sg23
S'16.8'
p484
sg25
S'--'
p485
sg27
S'--'
p486
sg29
S'L15-24'
p487
sg31
S'67'
p488
sg33
g89
sg34
S'@GB'
p489
sg36
S'36'
p490
sg38
g58
sg39
S'--'
p491
sss.