(dp0
S'2015'
p1
(dp2
S'11'
p3
(dp4
S'RushTD'
p5
S'--'
p6
sS'RushYds'
p7
S'--'
p8
sS'GS'
p9
S'1'
p10
sS'Lost'
p11
S'--'
p12
sS'G'
p13
g10
sS'Player'
p14
S'Kamar Aiken'
p15
sS'Year'
p16
S'2015'
p17
sS'WK'
p18
S'11'
p19
sS'RushAvg'
p20
S'--'
p21
sS'Game Date'
p22
S'11/22'
p23
sS'RecAvg'
p24
S'10.0'
p25
sS'FUM'
p26
S'--'
p27
sS'RushAtt'
p28
S'--'
p29
sS'Result'
p30
S'W16-13'
p31
sS'RecYds'
p32
S'50'
p33
sS'Rec'
p34
S'5'
p35
sS'Opp'
p36
S'STL'
p37
sS'RecLng'
p38
S'18'
p39
sS'RecTD'
p40
g10
sS'RushLng'
p41
S'--'
p42
ssS'10'
p43
(dp44
g5
S'--'
p45
sg7
S'--'
p46
sg9
S'0'
p47
sg11
S'--'
p48
sg13
g10
sg14
S'Kamar Aiken'
p49
sg16
S'2015'
p50
sg18
S'10'
p51
sg20
S'--'
p52
sg22
S'11/15'
p53
sg24
S'10.4'
p54
sg26
S'--'
p55
sg28
S'--'
p56
sg30
S'L20-22'
p57
sg32
S'73'
p58
sg34
S'7'
p59
sg36
S'JAC'
p60
sg38
S'29'
p61
sg40
g47
sg41
S'--'
p62
ssS'13'
p63
(dp64
g5
S'--'
p65
sg7
S'--'
p66
sg9
g10
sg11
S'--'
p67
sg13
g10
sg14
S'Kamar Aiken'
p68
sg16
S'2015'
p69
sg18
S'13'
p70
sg20
S'--'
p71
sg22
S'12/06'
p72
sg24
S'8.0'
p73
sg26
S'--'
p74
sg28
S'--'
p75
sg30
S'L13-15'
p76
sg32
S'48'
p77
sg34
S'6'
p78
sg36
S'@MIA'
p79
sg38
S'11'
p80
sg40
g47
sg41
S'--'
p81
ssS'12'
p82
(dp83
g5
S'--'
p84
sg7
S'--'
p85
sg9
g10
sg11
S'--'
p86
sg13
g10
sg14
S'Kamar Aiken'
p87
sg16
S'2015'
p88
sg18
S'12'
p89
sg20
S'--'
p90
sg22
S'11/30'
p91
sg24
S'13.3'
p92
sg26
S'--'
p93
sg28
S'--'
p94
sg30
S'W33-27'
p95
sg32
S'80'
p96
sg34
g78
sg36
S'@CLE'
p97
sg38
S'27'
p98
sg40
g10
sg41
S'--'
p99
ssS'15'
p100
(dp101
g5
S'--'
p102
sg7
S'--'
p103
sg9
g10
sg11
S'--'
p104
sg13
g10
sg14
S'Kamar Aiken'
p105
sg16
S'2015'
p106
sg18
S'15'
p107
sg20
S'--'
p108
sg22
S'12/20'
p109
sg24
S'16.0'
p110
sg26
S'--'
p111
sg28
S'--'
p112
sg30
S'L14-34'
p113
sg32
S'128'
p114
sg34
S'8'
p115
sg36
S'KC'
p116
sg38
S'48T'
p117
sg40
g10
sg41
S'--'
p118
ssS'14'
p119
(dp120
g5
S'--'
p121
sg7
S'--'
p122
sg9
g10
sg11
S'--'
p123
sg13
g10
sg14
S'Kamar Aiken'
p124
sg16
S'2015'
p125
sg18
S'14'
p126
sg20
S'--'
p127
sg22
S'12/13'
p128
sg24
S'18.0'
p129
sg26
S'--'
p130
sg28
S'--'
p131
sg30
S'L6-35'
p132
sg32
S'90'
p133
sg34
g35
sg36
S'SEA'
p134
sg38
S'37'
p135
sg40
g47
sg41
S'--'
p136
ssS'17'
p137
(dp138
g5
S'--'
p139
sg7
S'--'
p140
sg9
g10
sg11
S'--'
p141
sg13
g10
sg14
S'Kamar Aiken'
p142
sg16
S'2015'
p143
sg18
S'17'
p144
sg20
S'--'
p145
sg22
S'01/03'
p146
sg24
S'15.2'
p147
sg26
S'--'
p148
sg28
S'--'
p149
sg30
S'L16-24'
p150
sg32
S'76'
p151
sg34
g35
sg36
S'@CIN'
p152
sg38
S'20'
p153
sg40
g47
sg41
S'--'
p154
ssS'16'
p155
(dp156
g5
S'--'
p157
sg7
S'--'
p158
sg9
g10
sg11
S'--'
p159
sg13
g10
sg14
S'Kamar Aiken'
p160
sg16
S'2015'
p161
sg18
S'16'
p162
sg20
S'--'
p163
sg22
S'12/27'
p164
sg24
S'8.3'
p165
sg26
S'--'
p166
sg28
S'--'
p167
sg30
S'W20-17'
p168
sg32
S'66'
p169
sg34
g115
sg36
S'PIT'
p170
sg38
S'17'
p171
sg40
g47
sg41
S'--'
p172
ssg10
(dp173
g5
S'--'
p174
sg7
S'--'
p175
sg9
g10
sg11
S'--'
p176
sg13
g10
sg14
S'Kamar Aiken'
p177
sg16
S'2015'
p178
sg18
g10
sg20
S'--'
p179
sg22
S'09/13'
p180
sg24
S'-1.0'
p181
sg26
S'--'
p182
sg28
S'--'
p183
sg30
S'L13-19'
p184
sg32
S'-1'
p185
sg34
g10
sg36
S'@DEN'
p186
sg38
S'-1'
p187
sg40
g47
sg41
S'--'
p188
ssS'3'
p189
(dp190
g5
S'--'
p191
sg7
S'--'
p192
sg9
g10
sg11
S'--'
p193
sg13
g10
sg14
S'Kamar Aiken'
p194
sg16
S'2015'
p195
sg18
g189
sg20
S'--'
p196
sg22
S'09/27'
p197
sg24
S'--'
p198
sg26
S'--'
p199
sg28
S'--'
p200
sg30
S'L24-28'
p201
sg32
g47
sg34
g47
sg36
S'CIN'
p202
sg38
S'--'
p203
sg40
g47
sg41
S'--'
p204
ssS'2'
p205
(dp206
g5
S'--'
p207
sg7
S'--'
p208
sg9
g10
sg11
g10
sg13
g10
sg14
S'Kamar Aiken'
p209
sg16
S'2015'
p210
sg18
g205
sg20
S'--'
p211
sg22
S'09/20'
p212
sg24
S'17.8'
p213
sg26
g10
sg28
S'--'
p214
sg30
S'L33-37'
p215
sg32
S'89'
p216
sg34
g35
sg36
S'@OAK'
p217
sg38
S'38'
p218
sg40
g47
sg41
S'--'
p219
ssg35
(dp220
g5
S'--'
p221
sg7
S'--'
p222
sg9
g10
sg11
S'--'
p223
sg13
g10
sg14
S'Kamar Aiken'
p224
sg16
S'2015'
p225
sg18
g35
sg20
S'--'
p226
sg22
S'10/11'
p227
sg24
S'19.5'
p228
sg26
S'--'
p229
sg28
S'--'
p230
sg30
S'L30-33'
p231
sg32
S'78'
p232
sg34
S'4'
p233
sg36
S'CLE'
p234
sg38
S'48'
p235
sg40
g47
sg41
S'--'
p236
ssg233
(dp237
g5
S'--'
p238
sg7
S'--'
p239
sg9
g47
sg11
S'--'
p240
sg13
g10
sg14
S'Kamar Aiken'
p241
sg16
S'2015'
p242
sg18
g233
sg20
S'--'
p243
sg22
S'10/01'
p244
sg24
S'15.4'
p245
sg26
S'--'
p246
sg28
S'--'
p247
sg30
S'W23-20'
p248
sg32
S'77'
p249
sg34
g35
sg36
S'@PIT'
p250
sg38
S'20'
p251
sg40
g10
sg41
S'--'
p252
ssg59
(dp253
g5
S'--'
p254
sg7
S'--'
p255
sg9
g10
sg11
S'--'
p256
sg13
g10
sg14
S'Kamar Aiken'
p257
sg16
S'2015'
p258
sg18
g59
sg20
S'--'
p259
sg22
S'10/26'
p260
sg24
S'6.0'
p261
sg26
S'--'
p262
sg28
S'--'
p263
sg30
S'L18-26'
p264
sg32
g78
sg34
g10
sg36
S'@ARI'
p265
sg38
g78
sg40
g47
sg41
S'--'
p266
ssg78
(dp267
g5
S'--'
p268
sg7
S'--'
p269
sg9
g10
sg11
S'--'
p270
sg13
g10
sg14
S'Kamar Aiken'
p271
sg16
S'2015'
p272
sg18
g78
sg20
S'--'
p273
sg22
S'10/18'
p274
sg24
S'7.3'
p275
sg26
S'--'
p276
sg28
S'--'
p277
sg30
S'L20-25'
p278
sg32
S'22'
p279
sg34
g189
sg36
S'@SF'
p280
sg38
S'12'
p281
sg40
g10
sg41
S'--'
p282
ssS'9'
p283
(dp284
g5
S''
p285
sg7
g285
sg9
g285
sg11
g285
sg13
g285
sg14
S'Kamar Aiken'
p286
sg16
S'2015'
p287
sg18
g283
sg20
g285
sg22
S'Bye'
p288
sg24
g285
sg26
g285
sg28
g285
sg30
g285
sg32
g285
sg34
g285
sg36
g285
sg38
g285
sg40
g285
sg41
g285
ssg115
(dp289
g5
S'--'
p290
sg7
S'--'
p291
sg9
g10
sg11
S'--'
p292
sg13
g10
sg14
S'Kamar Aiken'
p293
sg16
S'2015'
p294
sg18
g115
sg20
S'--'
p295
sg22
S'11/01'
p296
sg24
S'10.3'
p297
sg26
S'--'
p298
sg28
S'--'
p299
sg30
S'W29-26'
p300
sg32
S'62'
p301
sg34
g78
sg36
S'SD'
p302
sg38
S'18'
p303
sg40
g47
sg41
S'--'
p304
sssS'2014'
p305
(dp306
g3
(dp307
g5
g285
sg7
g285
sg9
g285
sg11
g285
sg13
g285
sg14
S'Kamar Aiken'
p308
sg16
S'2014'
p309
sg18
S'11'
p310
sg20
g285
sg22
S'Bye'
p311
sg24
g285
sg26
g285
sg28
g285
sg30
g285
sg32
g285
sg34
g285
sg36
g285
sg38
g285
sg40
g285
sg41
g285
ssg43
(dp312
g5
S'--'
p313
sg7
S'--'
p314
sg9
g47
sg11
S'--'
p315
sg13
g10
sg14
S'Kamar Aiken'
p316
sg16
S'2014'
p317
sg18
S'10'
p318
sg20
S'--'
p319
sg22
S'11/09'
p320
sg24
S'13.0'
p321
sg26
S'--'
p322
sg28
S'--'
p323
sg30
S'W21-7'
p324
sg32
S'13'
p325
sg34
g10
sg36
S'TEN'
p326
sg38
S'13'
p327
sg40
g47
sg41
S'--'
p328
ssg63
(dp329
g5
S'--'
p330
sg7
S'--'
p331
sg9
g47
sg11
S'--'
p332
sg13
g10
sg14
S'Kamar Aiken'
p333
sg16
S'2014'
p334
sg18
S'13'
p335
sg20
S'--'
p336
sg22
S'11/30'
p337
sg24
S'17.0'
p338
sg26
S'--'
p339
sg28
S'--'
p340
sg30
S'L33-34'
p341
sg32
S'51'
p342
sg34
g189
sg36
S'SD'
p343
sg38
S'24'
p344
sg40
g47
sg41
S'--'
p345
ssg82
(dp346
g5
S'--'
p347
sg7
S'--'
p348
sg9
g47
sg11
S'--'
p349
sg13
g10
sg14
S'Kamar Aiken'
p350
sg16
S'2014'
p351
sg18
S'12'
p352
sg20
S'--'
p353
sg22
S'11/24'
p354
sg24
S'--'
p355
sg26
S'--'
p356
sg28
S'--'
p357
sg30
S'W34-27'
p358
sg32
S'--'
p359
sg34
S'--'
p360
sg36
S'@NO'
p361
sg38
S'--'
p362
sg40
S'--'
p363
sg41
S'--'
p364
ssg100
(dp365
g5
S'--'
p366
sg7
S'--'
p367
sg9
g47
sg11
S'--'
p368
sg13
g10
sg14
S'Kamar Aiken'
p369
sg16
S'2014'
p370
sg18
S'15'
p371
sg20
S'--'
p372
sg22
S'12/14'
p373
sg24
S'--'
p374
sg26
S'--'
p375
sg28
S'--'
p376
sg30
S'W20-12'
p377
sg32
g47
sg34
g47
sg36
S'JAC'
p378
sg38
S'--'
p379
sg40
g47
sg41
S'--'
p380
ssg119
(dp381
g5
S'--'
p382
sg7
S'--'
p383
sg9
g47
sg11
S'--'
p384
sg13
g10
sg14
S'Kamar Aiken'
p385
sg16
S'2014'
p386
sg18
S'14'
p387
sg20
S'--'
p388
sg22
S'12/07'
p389
sg24
S'10.8'
p390
sg26
S'--'
p391
sg28
S'--'
p392
sg30
S'W28-13'
p393
sg32
S'65'
p394
sg34
g78
sg36
S'@MIA'
p395
sg38
S'13T'
p396
sg40
g10
sg41
S'--'
p397
ssg137
(dp398
g5
S'--'
p399
sg7
S'--'
p400
sg9
g47
sg11
S'--'
p401
sg13
g10
sg14
S'Kamar Aiken'
p402
sg16
S'2014'
p403
sg18
S'17'
p404
sg20
S'--'
p405
sg22
S'12/28'
p406
sg24
S'6.5'
p407
sg26
S'--'
p408
sg28
S'--'
p409
sg30
S'W20-10'
p410
sg32
S'13'
p411
sg34
g205
sg36
S'CLE'
p412
sg38
S'11'
p413
sg40
g10
sg41
S'--'
p414
ssg155
(dp415
g5
S'--'
p416
sg7
S'--'
p417
sg9
g47
sg11
S'--'
p418
sg13
g10
sg14
S'Kamar Aiken'
p419
sg16
S'2014'
p420
sg18
S'16'
p421
sg20
S'--'
p422
sg22
S'12/21'
p423
sg24
S'--'
p424
sg26
S'--'
p425
sg28
S'--'
p426
sg30
S'L13-25'
p427
sg32
g47
sg34
g47
sg36
S'@HOU'
p428
sg38
S'--'
p429
sg40
g47
sg41
S'--'
p430
ssg10
(dp431
g5
S'--'
p432
sg7
S'--'
p433
sg9
g47
sg11
S'--'
p434
sg13
g10
sg14
S'Kamar Aiken'
p435
sg16
S'2014'
p436
sg18
g10
sg20
S'--'
p437
sg22
S'09/07'
p438
sg24
S'7.5'
p439
sg26
S'--'
p440
sg28
S'--'
p441
sg30
S'L16-23'
p442
sg32
S'30'
p443
sg34
g233
sg36
S'CIN'
p444
sg38
g115
sg40
g47
sg41
S'--'
p445
ssg189
(dp446
g5
S'--'
p447
sg7
S'--'
p448
sg9
g47
sg11
S'--'
p449
sg13
g10
sg14
S'Kamar Aiken'
p450
sg16
S'2014'
p451
sg18
g189
sg20
S'--'
p452
sg22
S'09/21'
p453
sg24
S'--'
p454
sg26
S'--'
p455
sg28
S'--'
p456
sg30
S'W23-21'
p457
sg32
S'--'
p458
sg34
S'--'
p459
sg36
S'@CLE'
p460
sg38
S'--'
p461
sg40
S'--'
p462
sg41
S'--'
p463
ssg205
(dp464
g5
S'--'
p465
sg7
S'--'
p466
sg9
g47
sg11
S'--'
p467
sg13
g10
sg14
S'Kamar Aiken'
p468
sg16
S'2014'
p469
sg18
g205
sg20
S'--'
p470
sg22
S'09/11'
p471
sg24
S'--'
p472
sg26
S'--'
p473
sg28
S'--'
p474
sg30
S'W26-6'
p475
sg32
S'--'
p476
sg34
S'--'
p477
sg36
S'PIT'
p478
sg38
S'--'
p479
sg40
S'--'
p480
sg41
S'--'
p481
ssg35
(dp482
g5
S'--'
p483
sg7
S'--'
p484
sg9
g47
sg11
S'--'
p485
sg13
g10
sg14
S'Kamar Aiken'
p486
sg16
S'2014'
p487
sg18
g35
sg20
S'--'
p488
sg22
S'10/05'
p489
sg24
S'8.0'
p490
sg26
S'--'
p491
sg28
S'--'
p492
sg30
S'L13-20'
p493
sg32
g115
sg34
g10
sg36
S'@IND'
p494
sg38
g115
sg40
g47
sg41
S'--'
p495
ssg233
(dp496
g5
S'--'
p497
sg7
S'--'
p498
sg9
g47
sg11
S'--'
p499
sg13
g10
sg14
S'Kamar Aiken'
p500
sg16
S'2014'
p501
sg18
g233
sg20
S'--'
p502
sg22
S'09/28'
p503
sg24
S'22.0'
p504
sg26
S'--'
p505
sg28
S'--'
p506
sg30
S'W38-10'
p507
sg32
S'22'
p508
sg34
g10
sg36
S'CAR'
p509
sg38
S'22'
p510
sg40
g47
sg41
S'--'
p511
ssg59
(dp512
g5
S'--'
p513
sg7
S'--'
p514
sg9
g47
sg11
S'--'
p515
sg13
g10
sg14
S'Kamar Aiken'
p516
sg16
S'2014'
p517
sg18
g59
sg20
S'--'
p518
sg22
S'10/19'
p519
sg24
S'18.0'
p520
sg26
S'--'
p521
sg28
S'--'
p522
sg30
S'W29-7'
p523
sg32
S'18'
p524
sg34
g10
sg36
S'ATL'
p525
sg38
S'18'
p526
sg40
g47
sg41
S'--'
p527
ssg78
(dp528
g5
S'--'
p529
sg7
S'--'
p530
sg9
g47
sg11
S'--'
p531
sg13
g10
sg14
S'Kamar Aiken'
p532
sg16
S'2014'
p533
sg18
g78
sg20
S'--'
p534
sg22
S'10/12'
p535
sg24
S'10.0'
p536
sg26
S'--'
p537
sg28
S'--'
p538
sg30
S'W48-17'
p539
sg32
S'20'
p540
sg34
g205
sg36
S'@TB'
p541
sg38
S'17T'
p542
sg40
g10
sg41
S'--'
p543
ssg283
(dp544
g5
S'--'
p545
sg7
S'--'
p546
sg9
g47
sg11
S'--'
p547
sg13
g10
sg14
S'Kamar Aiken'
p548
sg16
S'2014'
p549
sg18
g283
sg20
S'--'
p550
sg22
S'11/02'
p551
sg24
S'12.0'
p552
sg26
S'--'
p553
sg28
S'--'
p554
sg30
S'L23-43'
p555
sg32
S'12'
p556
sg34
g10
sg36
S'@PIT'
p557
sg38
S'12'
p558
sg40
g47
sg41
S'--'
p559
ssg115
(dp560
g5
S'--'
p561
sg7
S'--'
p562
sg9
g47
sg11
S'--'
p563
sg13
g10
sg14
S'Kamar Aiken'
p564
sg16
S'2014'
p565
sg18
g115
sg20
S'--'
p566
sg22
S'10/26'
p567
sg24
S'7.5'
p568
sg26
S'--'
p569
sg28
S'--'
p570
sg30
S'L24-27'
p571
sg32
S'15'
p572
sg34
g205
sg36
S'@CIN'
p573
sg38
g115
sg40
g47
sg41
S'--'
p574
sssS'2011'
p575
(dp576
g63
(dp577
g5
S'--'
p578
sg7
S'--'
p579
sg9
g47
sg11
S'--'
p580
sg13
g47
sg14
S'Kamar Aiken'
p581
sg16
S'2011'
p582
sg18
S'13'
p583
sg20
S'--'
p584
sg22
S'12/04'
p585
sg24
S'--'
p586
sg26
S'--'
p587
sg28
S'--'
p588
sg30
S'L17-23'
p589
sg32
S'--'
p590
sg34
S'--'
p591
sg36
S'TEN'
p592
sg38
S'--'
p593
sg40
S'--'
p594
sg41
S'--'
p595
ssg82
(dp596
g5
S'--'
p597
sg7
S'--'
p598
sg9
g47
sg11
S'--'
p599
sg13
g10
sg14
S'Kamar Aiken'
p600
sg16
S'2011'
p601
sg18
S'12'
p602
sg20
S'--'
p603
sg22
S'11/27'
p604
sg24
S'--'
p605
sg26
S'--'
p606
sg28
S'--'
p607
sg30
S'L24-28'
p608
sg32
S'--'
p609
sg34
S'--'
p610
sg36
S'@NYJ'
p611
sg38
S'--'
p612
sg40
S'--'
p613
sg41
S'--'
p614
ssg100
(dp615
g5
S'--'
p616
sg7
S'--'
p617
sg9
g47
sg11
S'--'
p618
sg13
g47
sg14
S'Kamar Aiken'
p619
sg16
S'2011'
p620
sg18
S'15'
p621
sg20
S'--'
p622
sg22
S'12/18'
p623
sg24
S'--'
p624
sg26
S'--'
p625
sg28
S'--'
p626
sg30
S'L23-30'
p627
sg32
S'--'
p628
sg34
S'--'
p629
sg36
S'MIA'
p630
sg38
S'--'
p631
sg40
S'--'
p632
sg41
S'--'
p633
ssg119
(dp634
g5
S'--'
p635
sg7
S'--'
p636
sg9
g47
sg11
S'--'
p637
sg13
g47
sg14
S'Kamar Aiken'
p638
sg16
S'2011'
p639
sg18
S'14'
p640
sg20
S'--'
p641
sg22
S'12/11'
p642
sg24
S'--'
p643
sg26
S'--'
p644
sg28
S'--'
p645
sg30
S'L10-37'
p646
sg32
S'--'
p647
sg34
S'--'
p648
sg36
S'@SD'
p649
sg38
S'--'
p650
sg40
S'--'
p651
sg41
S'--'
p652
ssg137
(dp653
g5
S'--'
p654
sg7
S'--'
p655
sg9
g47
sg11
S'--'
p656
sg13
g47
sg14
S'Kamar Aiken'
p657
sg16
S'2011'
p658
sg18
S'17'
p659
sg20
S'--'
p660
sg22
S'01/01'
p661
sg24
S'--'
p662
sg26
S'--'
p663
sg28
S'--'
p664
sg30
S'L21-49'
p665
sg32
S'--'
p666
sg34
S'--'
p667
sg36
S'@NE'
p668
sg38
S'--'
p669
sg40
S'--'
p670
sg41
S'--'
p671
ssg155
(dp672
g5
S'--'
p673
sg7
S'--'
p674
sg9
g47
sg11
S'--'
p675
sg13
g10
sg14
S'Kamar Aiken'
p676
sg16
S'2011'
p677
sg18
S'16'
p678
sg20
S'--'
p679
sg22
S'12/24'
p680
sg24
S'--'
p681
sg26
S'--'
p682
sg28
S'--'
p683
sg30
S'W40-14'
p684
sg32
S'--'
p685
sg34
S'--'
p686
sg36
S'DEN'
p687
sg38
S'--'
p688
sg40
S'--'
p689
sg41
S'--'
p690
sssS'2012'
p691
(dp692
g137
(dp693
g5
S'--'
p694
sg7
S'--'
p695
sg9
g47
sg11
S'--'
p696
sg13
g47
sg14
S'Kamar Aiken'
p697
sg16
S'2012'
p698
sg18
S'17'
p699
sg20
S'--'
p700
sg22
S'12/30'
p701
sg24
S'--'
p702
sg26
S'--'
p703
sg28
S'--'
p704
sg30
S'W28-0'
p705
sg32
S'--'
p706
sg34
S'--'
p707
sg36
S'MIA'
p708
sg38
S'--'
p709
sg40
S'--'
p710
sg41
S'--'
p711
ssg155
(dp712
g5
S'--'
p713
sg7
S'--'
p714
sg9
g47
sg11
S'--'
p715
sg13
g10
sg14
S'Kamar Aiken'
p716
sg16
S'2012'
p717
sg18
S'16'
p718
sg20
S'--'
p719
sg22
S'12/23'
p720
sg24
S'--'
p721
sg26
S'--'
p722
sg28
S'--'
p723
sg30
S'W23-16'
p724
sg32
S'--'
p725
sg34
S'--'
p726
sg36
S'@JAC'
p727
sg38
S'--'
p728
sg40
S'--'
p729
sg41
S'--'
p730
sss.