(dp0
S'2015'
p1
(dp2
S'17'
p3
(dp4
S'RushTD'
p5
S'0'
p6
sS'RushYds'
p7
S'5'
p8
sS'GS'
p9
g6
sS'Lost'
p10
S'--'
p11
sS'G'
p12
S'1'
p13
sS'Player'
p14
S'Kasen Williams'
p15
sS'Year'
p16
S'2015'
p17
sS'WK'
p18
S'17'
p19
sS'RushAvg'
p20
S'5.0'
p21
sS'Game Date'
p22
S'01/03'
p23
sS'RecAvg'
p24
S'8.0'
p25
sS'FUM'
p26
S'--'
p27
sS'RushAtt'
p28
g13
sS'Result'
p29
S'W36-6'
p30
sS'RecYds'
p31
S'8'
p32
sS'Rec'
p33
g13
sS'Opp'
p34
S'@ARI'
p35
sS'RecLng'
p36
g32
sS'RecTD'
p37
g6
sS'RushLng'
p38
g8
ssS'16'
p39
(dp40
g5
S'--'
p41
sg7
S'--'
p42
sg9
g6
sg10
S'--'
p43
sg12
g13
sg14
S'Kasen Williams'
p44
sg16
S'2015'
p45
sg18
S'16'
p46
sg20
S'--'
p47
sg22
S'12/27'
p48
sg24
S'--'
p49
sg26
S'--'
p50
sg28
S'--'
p51
sg29
S'L17-23'
p52
sg31
S'--'
p53
sg33
S'--'
p54
sg34
S'STL'
p55
sg36
S'--'
p56
sg37
S'--'
p57
sg38
S'--'
p58
sss.