(dp0
S'2015'
p1
(dp2
S'1'
p3
(dp4
S'RushTD'
p5
S'--'
p6
sS'RushYds'
p7
S'--'
p8
sS'GS'
p9
g3
sS'Lost'
p10
S'--'
p11
sS'G'
p12
g3
sS'Player'
p13
S'Keenan Allen'
p14
sS'Year'
p15
S'2015'
p16
sS'WK'
p17
g3
sS'RushAvg'
p18
S'--'
p19
sS'Game Date'
p20
S'09/13'
p21
sS'RecAvg'
p22
S'11.1'
p23
sS'FUM'
p24
S'--'
p25
sS'RushAtt'
p26
S'--'
p27
sS'Result'
p28
S'W33-28'
p29
sS'RecYds'
p30
S'166'
p31
sS'Rec'
p32
S'15'
p33
sS'Opp'
p34
S'DET'
p35
sS'RecLng'
p36
S'21'
p37
sS'RecTD'
p38
S'0'
p39
sS'RushLng'
p40
S'--'
p41
ssS'3'
p42
(dp43
g5
S'--'
p44
sg7
S'--'
p45
sg9
g3
sg10
S'--'
p46
sg12
g3
sg13
S'Keenan Allen'
p47
sg15
S'2015'
p48
sg17
g42
sg18
S'--'
p49
sg20
S'09/27'
p50
sg22
S'11.1'
p51
sg24
S'--'
p52
sg26
S'--'
p53
sg28
S'L14-31'
p54
sg30
S'133'
p55
sg32
S'12'
p56
sg34
S'@MIN'
p57
sg36
S'34T'
p58
sg38
S'2'
p59
sg40
S'--'
p60
ssg59
(dp61
g5
S'--'
p62
sg7
S'--'
p63
sg9
g3
sg10
g3
sg12
g3
sg13
S'Keenan Allen'
p64
sg15
S'2015'
p65
sg17
g59
sg18
S'--'
p66
sg20
S'09/20'
p67
sg22
S'8.0'
p68
sg24
g3
sg26
S'--'
p69
sg28
S'L19-24'
p70
sg30
S'16'
p71
sg32
g59
sg34
S'@CIN'
p72
sg36
S'13'
p73
sg38
g39
sg40
S'--'
p74
ssS'5'
p75
(dp76
g5
S'--'
p77
sg7
S'--'
p78
sg9
g3
sg10
S'--'
p79
sg12
g3
sg13
S'Keenan Allen'
p80
sg15
S'2015'
p81
sg17
g75
sg18
S'--'
p82
sg20
S'10/12'
p83
sg22
S'9.5'
p84
sg24
S'--'
p85
sg26
S'--'
p86
sg28
S'L20-24'
p87
sg30
S'57'
p88
sg32
S'6'
p89
sg34
S'PIT'
p90
sg36
S'20'
p91
sg38
g39
sg40
S'--'
p92
ssS'4'
p93
(dp94
g5
S'--'
p95
sg7
S'--'
p96
sg9
g3
sg10
S'--'
p97
sg12
g3
sg13
S'Keenan Allen'
p98
sg15
S'2015'
p99
sg17
g93
sg18
S'--'
p100
sg20
S'10/04'
p101
sg22
S'18.0'
p102
sg24
S'--'
p103
sg26
S'--'
p104
sg28
S'W30-27'
p105
sg30
S'72'
p106
sg32
g93
sg34
S'CLE'
p107
sg36
S'31'
p108
sg38
g3
sg40
S'--'
p109
ssS'7'
p110
(dp111
g5
S'--'
p112
sg7
S'--'
p113
sg9
g3
sg10
S'--'
p114
sg12
g3
sg13
S'Keenan Allen'
p115
sg15
S'2015'
p116
sg17
g110
sg18
S'--'
p117
sg20
S'10/25'
p118
sg22
S'9.9'
p119
sg24
S'--'
p120
sg26
S'--'
p121
sg28
S'L29-37'
p122
sg30
S'89'
p123
sg32
S'9'
p124
sg34
S'OAK'
p125
sg36
S'18'
p126
sg38
g39
sg40
S'--'
p127
ssg89
(dp128
g5
S'--'
p129
sg7
S'--'
p130
sg9
g3
sg10
S'--'
p131
sg12
g3
sg13
S'Keenan Allen'
p132
sg15
S'2015'
p133
sg17
g89
sg18
S'--'
p134
sg20
S'10/18'
p135
sg22
S'11.2'
p136
sg24
S'--'
p137
sg26
S'--'
p138
sg28
S'L20-27'
p139
sg30
S'157'
p140
sg32
S'14'
p141
sg34
S'@GB'
p142
sg36
S'38'
p143
sg38
g39
sg40
S'--'
p144
ssS'8'
p145
(dp146
g5
S'--'
p147
sg7
S'--'
p148
sg9
g3
sg10
S'--'
p149
sg12
g3
sg13
S'Keenan Allen'
p150
sg15
S'2015'
p151
sg17
g145
sg18
S'--'
p152
sg20
S'11/01'
p153
sg22
S'7.0'
p154
sg24
S'--'
p155
sg26
S'--'
p156
sg28
S'L26-29'
p157
sg30
S'35'
p158
sg32
g75
sg34
S'@BAL'
p159
sg36
S'13T'
p160
sg38
g3
sg40
S'--'
p161
sssS'2014'
p162
(dp163
S'11'
p164
(dp165
g5
S'--'
p166
sg7
S'--'
p167
sg9
g3
sg10
S'--'
p168
sg12
g3
sg13
S'Keenan Allen'
p169
sg15
S'2014'
p170
sg17
S'11'
p171
sg18
S'--'
p172
sg20
S'11/16'
p173
sg22
S'7.9'
p174
sg24
S'--'
p175
sg26
S'--'
p176
sg28
S'W13-6'
p177
sg30
S'63'
p178
sg32
g145
sg34
S'OAK'
p179
sg36
S'13'
p180
sg38
g39
sg40
S'--'
p181
ssS'10'
p182
(dp183
g5
S''
p184
sg7
g184
sg9
g184
sg10
g184
sg12
g184
sg13
S'Keenan Allen'
p185
sg15
S'2014'
p186
sg17
S'10'
p187
sg18
g184
sg20
S'Bye'
p188
sg22
g184
sg24
g184
sg26
g184
sg28
g184
sg30
g184
sg32
g184
sg34
g184
sg36
g184
sg38
g184
sg40
g184
ssS'13'
p189
(dp190
g5
S'--'
p191
sg7
S'--'
p192
sg9
g3
sg10
S'--'
p193
sg12
g3
sg13
S'Keenan Allen'
p194
sg15
S'2014'
p195
sg17
S'13'
p196
sg18
S'--'
p197
sg20
S'11/30'
p198
sg22
S'11.0'
p199
sg24
S'--'
p200
sg26
S'--'
p201
sg28
S'W34-33'
p202
sg30
S'121'
p203
sg32
S'11'
p204
sg34
S'@BAL'
p205
sg36
S'23T'
p206
sg38
g59
sg40
S'--'
p207
ssS'12'
p208
(dp209
g5
S'--'
p210
sg7
S'--'
p211
sg9
g3
sg10
g59
sg12
g3
sg13
S'Keenan Allen'
p212
sg15
S'2014'
p213
sg17
S'12'
p214
sg18
S'--'
p215
sg20
S'11/23'
p216
sg22
S'17.3'
p217
sg24
g59
sg26
S'--'
p218
sg28
S'W27-24'
p219
sg30
S'104'
p220
sg32
g89
sg34
S'STL'
p221
sg36
S'35'
p222
sg38
g3
sg40
S'--'
p223
ssS'15'
p224
(dp225
g5
S'--'
p226
sg7
S'--'
p227
sg9
g3
sg10
S'--'
p228
sg12
g3
sg13
S'Keenan Allen'
p229
sg15
S'2014'
p230
sg17
S'15'
p231
sg18
S'--'
p232
sg20
S'12/14'
p233
sg22
S'6.0'
p234
sg24
S'--'
p235
sg26
S'--'
p236
sg28
S'L10-22'
p237
sg30
S'18'
p238
sg32
g42
sg34
S'DEN'
p239
sg36
g110
sg38
g39
sg40
S'--'
p240
ssS'14'
p241
(dp242
g5
S'--'
p243
sg7
S'--'
p244
sg9
g3
sg10
S'--'
p245
sg12
g3
sg13
S'Keenan Allen'
p246
sg15
S'2014'
p247
sg17
S'14'
p248
sg18
S'--'
p249
sg20
S'12/07'
p250
sg22
S'1.5'
p251
sg24
S'--'
p252
sg26
S'--'
p253
sg28
S'L14-23'
p254
sg30
g42
sg32
g59
sg34
S'NE'
p255
sg36
g42
sg38
g39
sg40
S'--'
p256
ssS'17'
p257
(dp258
g5
S'--'
p259
sg7
S'--'
p260
sg9
g39
sg10
S'--'
p261
sg12
g39
sg13
S'Keenan Allen'
p262
sg15
S'2014'
p263
sg17
S'17'
p264
sg18
S'--'
p265
sg20
S'12/28'
p266
sg22
S'--'
p267
sg24
S'--'
p268
sg26
S'--'
p269
sg28
S'L7-19'
p270
sg30
S'--'
p271
sg32
S'--'
p272
sg34
S'@KC'
p273
sg36
S'--'
p274
sg38
S'--'
p275
sg40
S'--'
p276
ssS'16'
p277
(dp278
g5
S'--'
p279
sg7
S'--'
p280
sg9
g39
sg10
S'--'
p281
sg12
g39
sg13
S'Keenan Allen'
p282
sg15
S'2014'
p283
sg17
S'16'
p284
sg18
S'--'
p285
sg20
S'12/20'
p286
sg22
S'--'
p287
sg24
S'--'
p288
sg26
S'--'
p289
sg28
S'W38-35'
p290
sg30
S'--'
p291
sg32
S'--'
p292
sg34
S'@SF'
p293
sg36
S'--'
p294
sg38
S'--'
p295
sg40
S'--'
p296
ssg3
(dp297
g5
S'--'
p298
sg7
S'--'
p299
sg9
g3
sg10
S'--'
p300
sg12
g3
sg13
S'Keenan Allen'
p301
sg15
S'2014'
p302
sg17
g3
sg18
S'--'
p303
sg20
S'09/08'
p304
sg22
S'7.4'
p305
sg24
S'--'
p306
sg26
S'--'
p307
sg28
S'L17-18'
p308
sg30
S'37'
p309
sg32
g75
sg34
S'@ARI'
p310
sg36
S'12'
p311
sg38
g39
sg40
S'--'
p312
ssg42
(dp313
g5
S'--'
p314
sg7
S'--'
p315
sg9
g3
sg10
S'--'
p316
sg12
g3
sg13
S'Keenan Allen'
p317
sg15
S'2014'
p318
sg17
g42
sg18
S'--'
p319
sg20
S'09/21'
p320
sg22
S'8.5'
p321
sg24
S'--'
p322
sg26
S'--'
p323
sg28
S'W22-10'
p324
sg30
S'17'
p325
sg32
g59
sg34
S'@BUF'
p326
sg36
S'11'
p327
sg38
g39
sg40
S'--'
p328
ssg59
(dp329
g5
S'--'
p330
sg7
S'--'
p331
sg9
g3
sg10
S'--'
p332
sg12
g3
sg13
S'Keenan Allen'
p333
sg15
S'2014'
p334
sg17
g59
sg18
S'--'
p335
sg20
S'09/14'
p336
sg22
S'11.0'
p337
sg24
S'--'
p338
sg26
S'--'
p339
sg28
S'W30-21'
p340
sg30
S'55'
p341
sg32
g75
sg34
S'SEA'
p342
sg36
S'14'
p343
sg38
g39
sg40
S'--'
p344
ssg75
(dp345
g5
S'--'
p346
sg7
S'--'
p347
sg9
g3
sg10
S'--'
p348
sg12
g3
sg13
S'Keenan Allen'
p349
sg15
S'2014'
p350
sg17
g75
sg18
S'--'
p351
sg20
S'10/05'
p352
sg22
S'8.3'
p353
sg24
S'--'
p354
sg26
S'--'
p355
sg28
S'W31-0'
p356
sg30
S'25'
p357
sg32
g42
sg34
S'NYJ'
p358
sg36
S'11'
p359
sg38
g39
sg40
S'--'
p360
ssg93
(dp361
g5
S'--'
p362
sg7
S'--'
p363
sg9
g3
sg10
S'--'
p364
sg12
g3
sg13
S'Keenan Allen'
p365
sg15
S'2014'
p366
sg17
g93
sg18
S'--'
p367
sg20
S'09/28'
p368
sg22
S'13.5'
p369
sg24
S'--'
p370
sg26
S'--'
p371
sg28
S'W33-14'
p372
sg30
S'135'
p373
sg32
S'10'
p374
sg34
S'JAC'
p375
sg36
S'24'
p376
sg38
g39
sg40
S'--'
p377
ssg110
(dp378
g5
S'--'
p379
sg7
S'--'
p380
sg9
g3
sg10
S'--'
p381
sg12
g3
sg13
S'Keenan Allen'
p382
sg15
S'2014'
p383
sg17
g110
sg18
S'--'
p384
sg20
S'10/19'
p385
sg22
S'9.7'
p386
sg24
S'--'
p387
sg26
S'--'
p388
sg28
S'L20-23'
p389
sg30
S'58'
p390
sg32
g89
sg34
S'KC'
p391
sg36
S'18'
p392
sg38
g39
sg40
S'--'
p393
ssg89
(dp394
g5
S'--'
p395
sg7
S'--'
p396
sg9
g3
sg10
S'--'
p397
sg12
g3
sg13
S'Keenan Allen'
p398
sg15
S'2014'
p399
sg17
g89
sg18
S'--'
p400
sg20
S'10/12'
p401
sg22
S'9.0'
p402
sg24
S'--'
p403
sg26
S'--'
p404
sg28
S'W31-28'
p405
sg30
S'27'
p406
sg32
g42
sg34
S'@OAK'
p407
sg36
S'19'
p408
sg38
g39
sg40
S'--'
p409
ssg124
(dp410
g5
S'--'
p411
sg7
S'--'
p412
sg9
g3
sg10
S'--'
p413
sg12
g3
sg13
S'Keenan Allen'
p414
sg15
S'2014'
p415
sg17
g124
sg18
S'--'
p416
sg20
S'11/02'
p417
sg22
S'11.8'
p418
sg24
S'--'
p419
sg26
S'--'
p420
sg28
S'L0-37'
p421
sg30
S'47'
p422
sg32
g93
sg34
S'@MIA'
p423
sg36
S'17'
p424
sg38
g39
sg40
S'--'
p425
ssg145
(dp426
g5
S'--'
p427
sg7
S'--'
p428
sg9
g3
sg10
S'--'
p429
sg12
g3
sg13
S'Keenan Allen'
p430
sg15
S'2014'
p431
sg17
g145
sg18
S'--'
p432
sg20
S'10/23'
p433
sg22
S'8.1'
p434
sg24
S'--'
p435
sg26
S'--'
p436
sg28
S'L21-35'
p437
sg30
S'73'
p438
sg32
g124
sg34
S'@DEN'
p439
sg36
S'19'
p440
sg38
g3
sg40
S'--'
p441
sssS'2013'
p442
(dp443
g164
(dp444
g5
S'--'
p445
sg7
S'--'
p446
sg9
g3
sg10
S'--'
p447
sg12
g3
sg13
S'Keenan Allen'
p448
sg15
S'2013'
p449
sg17
S'11'
p450
sg18
S'--'
p451
sg20
S'11/17'
p452
sg22
S'15.0'
p453
sg24
S'--'
p454
sg26
S'--'
p455
sg28
S'L16-20'
p456
sg30
S'45'
p457
sg32
g42
sg34
S'@MIA'
p458
sg36
S'17'
p459
sg38
g39
sg40
S'--'
p460
ssg182
(dp461
g5
S'--'
p462
sg7
S'--'
p463
sg9
g3
sg10
S'--'
p464
sg12
g3
sg13
S'Keenan Allen'
p465
sg15
S'2013'
p466
sg17
S'10'
p467
sg18
S'--'
p468
sg20
S'11/10'
p469
sg22
S'10.3'
p470
sg24
S'--'
p471
sg26
S'--'
p472
sg28
S'L20-28'
p473
sg30
S'41'
p474
sg32
g93
sg34
S'DEN'
p475
sg36
S'18'
p476
sg38
g39
sg40
S'--'
p477
ssg189
(dp478
g5
S'--'
p479
sg7
S'--'
p480
sg9
g3
sg10
g3
sg12
g3
sg13
S'Keenan Allen'
p481
sg15
S'2013'
p482
sg17
S'13'
p483
sg18
S'--'
p484
sg20
S'12/01'
p485
sg22
S'13.3'
p486
sg24
g3
sg26
S'--'
p487
sg28
S'L10-17'
p488
sg30
S'106'
p489
sg32
g145
sg34
S'CIN'
p490
sg36
S'22'
p491
sg38
g39
sg40
S'--'
p492
ssg208
(dp493
g5
S'--'
p494
sg7
S'--'
p495
sg9
g3
sg10
S'--'
p496
sg12
g3
sg13
S'Keenan Allen'
p497
sg15
S'2013'
p498
sg17
S'12'
p499
sg18
S'--'
p500
sg20
S'11/24'
p501
sg22
S'13.8'
p502
sg24
S'--'
p503
sg26
S'--'
p504
sg28
S'W41-38'
p505
sg30
S'124'
p506
sg32
g124
sg34
S'@KC'
p507
sg36
S'29'
p508
sg38
g39
sg40
S'--'
p509
ssg224
(dp510
g5
S'--'
p511
sg7
S'--'
p512
sg9
g3
sg10
S'--'
p513
sg12
g3
sg13
S'Keenan Allen'
p514
sg15
S'2013'
p515
sg17
S'15'
p516
sg18
S'--'
p517
sg20
S'12/12'
p518
sg22
S'14.5'
p519
sg24
S'--'
p520
sg26
S'--'
p521
sg28
S'W27-20'
p522
sg30
S'29'
p523
sg32
g59
sg34
S'@DEN'
p524
sg36
S'19T'
p525
sg38
g59
sg40
S'--'
p526
ssg241
(dp527
g5
S'--'
p528
sg7
S'--'
p529
sg9
g3
sg10
S'--'
p530
sg12
g3
sg13
S'Keenan Allen'
p531
sg15
S'2013'
p532
sg17
S'14'
p533
sg18
S'--'
p534
sg20
S'12/08'
p535
sg22
S'19.7'
p536
sg24
S'--'
p537
sg26
S'--'
p538
sg28
S'W37-14'
p539
sg30
S'59'
p540
sg32
g42
sg34
S'NYG'
p541
sg36
S'43T'
p542
sg38
g59
sg40
S'--'
p543
ssg257
(dp544
g5
S'--'
p545
sg7
S'--'
p546
sg9
g3
sg10
S'--'
p547
sg12
g3
sg13
S'Keenan Allen'
p548
sg15
S'2013'
p549
sg17
S'17'
p550
sg18
S'--'
p551
sg20
S'12/29'
p552
sg22
S'17.8'
p553
sg24
S'--'
p554
sg26
S'--'
p555
sg28
S'W27-24'
p556
sg30
S'89'
p557
sg32
g75
sg34
S'KC'
p558
sg36
S'38'
p559
sg38
g39
sg40
S'--'
p560
ssg277
(dp561
g5
S'--'
p562
sg7
S'--'
p563
sg9
g3
sg10
g3
sg12
g3
sg13
S'Keenan Allen'
p564
sg15
S'2013'
p565
sg17
S'16'
p566
sg18
S'--'
p567
sg20
S'12/22'
p568
sg22
S'8.7'
p569
sg24
g3
sg26
S'--'
p570
sg28
S'W26-13'
p571
sg30
S'26'
p572
sg32
g42
sg34
S'OAK'
p573
sg36
S'18'
p574
sg38
g3
sg40
S'--'
p575
ssg3
(dp576
g5
S'--'
p577
sg7
S'--'
p578
sg9
g39
sg10
S'--'
p579
sg12
g39
sg13
S'Keenan Allen'
p580
sg15
S'2013'
p581
sg17
g3
sg18
S'--'
p582
sg20
S'09/09'
p583
sg22
S'--'
p584
sg24
S'--'
p585
sg26
S'--'
p586
sg28
S'L28-31'
p587
sg30
S'--'
p588
sg32
S'--'
p589
sg34
S'HOU'
p590
sg36
S'--'
p591
sg38
S'--'
p592
sg40
S'--'
p593
ssg42
(dp594
g5
S'--'
p595
sg7
S'--'
p596
sg9
g3
sg10
S'--'
p597
sg12
g3
sg13
S'Keenan Allen'
p598
sg15
S'2013'
p599
sg17
g42
sg18
S'--'
p600
sg20
S'09/22'
p601
sg22
S'-4.0'
p602
sg24
S'--'
p603
sg26
S'--'
p604
sg28
S'L17-20'
p605
sg30
S'-4'
p606
sg32
g3
sg34
S'@TEN'
p607
sg36
g42
sg38
g39
sg40
S'--'
p608
ssg59
(dp609
g5
S'--'
p610
sg7
S'--'
p611
sg9
g39
sg10
S'--'
p612
sg12
g3
sg13
S'Keenan Allen'
p613
sg15
S'2013'
p614
sg17
g59
sg18
S'--'
p615
sg20
S'09/15'
p616
sg22
S'17.0'
p617
sg24
S'--'
p618
sg26
S'--'
p619
sg28
S'W33-30'
p620
sg30
S'34'
p621
sg32
g59
sg34
S'@PHI'
p622
sg36
S'18'
p623
sg38
g39
sg40
S'--'
p624
ssg75
(dp625
g5
S'--'
p626
sg7
S'--'
p627
sg9
g3
sg10
S'--'
p628
sg12
g3
sg13
S'Keenan Allen'
p629
sg15
S'2013'
p630
sg17
g75
sg18
S'--'
p631
sg20
S'10/06'
p632
sg22
S'19.2'
p633
sg24
S'--'
p634
sg26
S'--'
p635
sg28
S'L17-27'
p636
sg30
S'115'
p637
sg32
g89
sg34
S'@OAK'
p638
sg36
S'30'
p639
sg38
g3
sg40
S'--'
p640
ssg93
(dp641
g5
S'--'
p642
sg7
S'--'
p643
sg9
g3
sg10
S'--'
p644
sg12
g3
sg13
S'Keenan Allen'
p645
sg15
S'2013'
p646
sg17
g93
sg18
S'--'
p647
sg20
S'09/29'
p648
sg22
S'16.0'
p649
sg24
S'--'
p650
sg26
S'--'
p651
sg28
S'W30-21'
p652
sg30
S'80'
p653
sg32
g75
sg34
S'DAL'
p654
sg36
S'31'
p655
sg38
g39
sg40
S'--'
p656
ssg110
(dp657
g5
S'--'
p658
sg7
S'--'
p659
sg9
g3
sg10
S'--'
p660
sg12
g3
sg13
S'Keenan Allen'
p661
sg15
S'2013'
p662
sg17
g110
sg18
S'--'
p663
sg20
S'10/20'
p664
sg22
S'22.3'
p665
sg24
S'--'
p666
sg26
S'--'
p667
sg28
S'W24-6'
p668
sg30
S'67'
p669
sg32
g42
sg34
S'@JAC'
p670
sg36
S'36'
p671
sg38
g39
sg40
S'--'
p672
ssg89
(dp673
g5
S'--'
p674
sg7
S'--'
p675
sg9
g3
sg10
S'--'
p676
sg12
g3
sg13
S'Keenan Allen'
p677
sg15
S'2013'
p678
sg17
g89
sg18
S'--'
p679
sg20
S'10/14'
p680
sg22
S'11.9'
p681
sg24
S'--'
p682
sg26
S'--'
p683
sg28
S'W19-9'
p684
sg30
S'107'
p685
sg32
g124
sg34
S'IND'
p686
sg36
S'22T'
p687
sg38
g3
sg40
S'--'
p688
ssg124
(dp689
g5
S'--'
p690
sg7
S'--'
p691
sg9
g3
sg10
S'--'
p692
sg12
g3
sg13
S'Keenan Allen'
p693
sg15
S'2013'
p694
sg17
g124
sg18
S'--'
p695
sg20
S'11/03'
p696
sg22
S'16.0'
p697
sg24
S'--'
p698
sg26
S'--'
p699
sg28
S'L24-30'
p700
sg30
S'128'
p701
sg32
g145
sg34
S'@WAS'
p702
sg36
S'22'
p703
sg38
g3
sg40
S'--'
p704
ssg145
(dp705
g5
g184
sg7
g184
sg9
g184
sg10
g184
sg12
g184
sg13
S'Keenan Allen'
p706
sg15
S'2013'
p707
sg17
g145
sg18
g184
sg20
S'Bye'
p708
sg22
g184
sg24
g184
sg26
g184
sg28
g184
sg30
g184
sg32
g184
sg34
g184
sg36
g184
sg38
g184
sg40
g184
sss.