(dp0
S'2015'
p1
(dp2
S'11'
p3
(dp4
S'RushTD'
p5
S'--'
p6
sS'RushYds'
p7
S'--'
p8
sS'GS'
p9
S'0'
p10
sS'Lost'
p11
g10
sS'G'
p12
S'1'
p13
sS'Player'
p14
S'Keith Mumphery'
p15
sS'Year'
p16
S'2015'
p17
sS'WK'
p18
S'11'
p19
sS'RushAvg'
p20
S'--'
p21
sS'Game Date'
p22
S'11/22'
p23
sS'RecAvg'
p24
S'--'
p25
sS'FUM'
p26
g13
sS'RushAtt'
p27
S'--'
p28
sS'Result'
p29
S'W24-17'
p30
sS'RecYds'
p31
S'--'
p32
sS'Rec'
p33
S'--'
p34
sS'Opp'
p35
S'NYJ'
p36
sS'RecLng'
p37
S'--'
p38
sS'RecTD'
p39
S'--'
p40
sS'RushLng'
p41
S'--'
p42
ssS'10'
p43
(dp44
g5
S'--'
p45
sg7
S'--'
p46
sg9
g10
sg11
S'--'
p47
sg12
g13
sg14
S'Keith Mumphery'
p48
sg16
S'2015'
p49
sg18
S'10'
p50
sg20
S'--'
p51
sg22
S'11/16'
p52
sg24
S'--'
p53
sg26
S'--'
p54
sg27
S'--'
p55
sg29
S'W10-6'
p56
sg31
S'--'
p57
sg33
S'--'
p58
sg35
S'@CIN'
p59
sg37
S'--'
p60
sg39
S'--'
p61
sg41
S'--'
p62
ssS'13'
p63
(dp64
g5
S'--'
p65
sg7
S'--'
p66
sg9
g10
sg11
S'--'
p67
sg12
g13
sg14
S'Keith Mumphery'
p68
sg16
S'2015'
p69
sg18
S'13'
p70
sg20
S'--'
p71
sg22
S'12/06'
p72
sg24
S'--'
p73
sg26
S'--'
p74
sg27
S'--'
p75
sg29
S'L21-30'
p76
sg31
S'--'
p77
sg33
S'--'
p78
sg35
S'@BUF'
p79
sg37
S'--'
p80
sg39
S'--'
p81
sg41
S'--'
p82
ssS'12'
p83
(dp84
g5
S'--'
p85
sg7
S'--'
p86
sg9
g10
sg11
g10
sg12
g13
sg14
S'Keith Mumphery'
p87
sg16
S'2015'
p88
sg18
S'12'
p89
sg20
S'--'
p90
sg22
S'11/29'
p91
sg24
S'--'
p92
sg26
g13
sg27
S'--'
p93
sg29
S'W24-6'
p94
sg31
S'--'
p95
sg33
S'--'
p96
sg35
S'NO'
p97
sg37
S'--'
p98
sg39
S'--'
p99
sg41
S'--'
p100
ssS'15'
p101
(dp102
g5
S'--'
p103
sg7
S'--'
p104
sg9
g10
sg11
S'--'
p105
sg12
g13
sg14
S'Keith Mumphery'
p106
sg16
S'2015'
p107
sg18
S'15'
p108
sg20
S'--'
p109
sg22
S'12/20'
p110
sg24
S'--'
p111
sg26
S'--'
p112
sg27
S'--'
p113
sg29
S'W16-10'
p114
sg31
S'--'
p115
sg33
S'--'
p116
sg35
S'@IND'
p117
sg37
S'--'
p118
sg39
S'--'
p119
sg41
S'--'
p120
ssS'14'
p121
(dp122
g5
S'--'
p123
sg7
S'--'
p124
sg9
g10
sg11
S'--'
p125
sg12
g13
sg14
S'Keith Mumphery'
p126
sg16
S'2015'
p127
sg18
S'14'
p128
sg20
S'--'
p129
sg22
S'12/13'
p130
sg24
S'--'
p131
sg26
S'--'
p132
sg27
S'--'
p133
sg29
S'L6-27'
p134
sg31
S'--'
p135
sg33
S'--'
p136
sg35
S'NE'
p137
sg37
S'--'
p138
sg39
S'--'
p139
sg41
S'--'
p140
ssS'17'
p141
(dp142
g5
S'--'
p143
sg7
S'--'
p144
sg9
g10
sg11
S'--'
p145
sg12
g13
sg14
S'Keith Mumphery'
p146
sg16
S'2015'
p147
sg18
S'17'
p148
sg20
S'--'
p149
sg22
S'01/03'
p150
sg24
S'--'
p151
sg26
S'--'
p152
sg27
S'--'
p153
sg29
S'W30-6'
p154
sg31
g10
sg33
g10
sg35
S'JAC'
p155
sg37
S'--'
p156
sg39
g10
sg41
S'--'
p157
ssS'16'
p158
(dp159
g5
S'--'
p160
sg7
S'--'
p161
sg9
g10
sg11
S'--'
p162
sg12
g13
sg14
S'Keith Mumphery'
p163
sg16
S'2015'
p164
sg18
S'16'
p165
sg20
S'--'
p166
sg22
S'12/27'
p167
sg24
S'--'
p168
sg26
S'--'
p169
sg27
S'--'
p170
sg29
S'W34-6'
p171
sg31
S'--'
p172
sg33
S'--'
p173
sg35
S'@TEN'
p174
sg37
S'--'
p175
sg39
S'--'
p176
sg41
S'--'
p177
ssg13
(dp178
g5
S'--'
p179
sg7
S'--'
p180
sg9
g10
sg11
g10
sg12
g13
sg14
S'Keith Mumphery'
p181
sg16
S'2015'
p182
sg18
g13
sg20
S'--'
p183
sg22
S'09/13'
p184
sg24
S'11.5'
p185
sg26
g13
sg27
S'--'
p186
sg29
S'L20-27'
p187
sg31
S'23'
p188
sg33
S'2'
p189
sg35
S'KC'
p190
sg37
S'17'
p191
sg39
g10
sg41
S'--'
p192
ssS'3'
p193
(dp194
g5
S'--'
p195
sg7
S'--'
p196
sg9
g10
sg11
S'--'
p197
sg12
g13
sg14
S'Keith Mumphery'
p198
sg16
S'2015'
p199
sg18
g193
sg20
S'--'
p200
sg22
S'09/27'
p201
sg24
S'--'
p202
sg26
S'--'
p203
sg27
S'--'
p204
sg29
S'W19-9'
p205
sg31
S'--'
p206
sg33
S'--'
p207
sg35
S'TB'
p208
sg37
S'--'
p209
sg39
S'--'
p210
sg41
S'--'
p211
ssg189
(dp212
g5
S'--'
p213
sg7
S'--'
p214
sg9
g10
sg11
S'--'
p215
sg12
g13
sg14
S'Keith Mumphery'
p216
sg16
S'2015'
p217
sg18
g189
sg20
S'--'
p218
sg22
S'09/20'
p219
sg24
S'--'
p220
sg26
S'--'
p221
sg27
S'--'
p222
sg29
S'L17-24'
p223
sg31
g10
sg33
g10
sg35
S'@CAR'
p224
sg37
S'--'
p225
sg39
g10
sg41
S'--'
p226
ssS'5'
p227
(dp228
g5
S'--'
p229
sg7
S'--'
p230
sg9
g13
sg11
S'--'
p231
sg12
g13
sg14
S'Keith Mumphery'
p232
sg16
S'2015'
p233
sg18
g227
sg20
S'--'
p234
sg22
S'10/08'
p235
sg24
S'5.8'
p236
sg26
S'--'
p237
sg27
S'--'
p238
sg29
S'L20-27'
p239
sg31
S'23'
p240
sg33
S'4'
p241
sg35
S'IND'
p242
sg37
S'8'
p243
sg39
g10
sg41
S'--'
p244
ssg241
(dp245
g5
S'--'
p246
sg7
S'--'
p247
sg9
g10
sg11
S'--'
p248
sg12
g13
sg14
S'Keith Mumphery'
p249
sg16
S'2015'
p250
sg18
g241
sg20
S'--'
p251
sg22
S'10/04'
p252
sg24
S'14.0'
p253
sg26
S'--'
p254
sg27
S'--'
p255
sg29
S'L21-48'
p256
sg31
S'56'
p257
sg33
g241
sg35
S'@ATL'
p258
sg37
S'26'
p259
sg39
g10
sg41
S'--'
p260
ssS'7'
p261
(dp262
g5
S'--'
p263
sg7
S'--'
p264
sg9
g10
sg11
S'--'
p265
sg12
g13
sg14
S'Keith Mumphery'
p266
sg16
S'2015'
p267
sg18
g261
sg20
S'--'
p268
sg22
S'10/25'
p269
sg24
S'16.0'
p270
sg26
S'--'
p271
sg27
S'--'
p272
sg29
S'L26-44'
p273
sg31
S'16'
p274
sg33
g13
sg35
S'@MIA'
p275
sg37
S'16'
p276
sg39
g10
sg41
S'--'
p277
ssS'6'
p278
(dp279
g5
S'--'
p280
sg7
S'--'
p281
sg9
g13
sg11
S'--'
p282
sg12
g13
sg14
S'Keith Mumphery'
p283
sg16
S'2015'
p284
sg18
g278
sg20
S'--'
p285
sg22
S'10/18'
p286
sg24
S'4.0'
p287
sg26
S'--'
p288
sg27
S'--'
p289
sg29
S'W31-20'
p290
sg31
g243
sg33
g189
sg35
S'@JAC'
p291
sg37
g227
sg39
g10
sg41
S'--'
p292
ssS'9'
p293
(dp294
g5
S''
p295
sg7
g295
sg9
g295
sg11
g295
sg12
g295
sg14
S'Keith Mumphery'
p296
sg16
S'2015'
p297
sg18
g293
sg20
g295
sg22
S'Bye'
p298
sg24
g295
sg26
g295
sg27
g295
sg29
g295
sg31
g295
sg33
g295
sg35
g295
sg37
g295
sg39
g295
sg41
g295
ssg243
(dp299
g5
S'--'
p300
sg7
S'--'
p301
sg9
g13
sg11
S'--'
p302
sg12
g13
sg14
S'Keith Mumphery'
p303
sg16
S'2015'
p304
sg18
g243
sg20
S'--'
p305
sg22
S'11/01'
p306
sg24
S'3.0'
p307
sg26
S'--'
p308
sg27
S'--'
p309
sg29
S'W20-6'
p310
sg31
g193
sg33
g13
sg35
S'TEN'
p311
sg37
g193
sg39
g10
sg41
S'--'
p312
sss.