(dp0
S'2014'
p1
(dp2
S'11'
p3
(dp4
S'RushTD'
p5
S'--'
p6
sS'RushYds'
p7
S'--'
p8
sS'GS'
p9
S'1'
p10
sS'Lost'
p11
S'--'
p12
sS'G'
p13
g10
sS'Player'
p14
S'Kelvin Benjamin'
p15
sS'Year'
p16
S'2014'
p17
sS'WK'
p18
S'11'
p19
sS'RushAvg'
p20
S'--'
p21
sS'Game Date'
p22
S'11/16'
p23
sS'RecAvg'
p24
S'12.1'
p25
sS'FUM'
p26
S'--'
p27
sS'RushAtt'
p28
S'--'
p29
sS'Result'
p30
S'L17-19'
p31
sS'RecYds'
p32
S'109'
p33
sS'Rec'
p34
S'9'
p35
sS'Opp'
p36
S'ATL'
p37
sS'RecLng'
p38
S'22T'
p39
sS'RecTD'
p40
g10
sS'RushLng'
p41
S'--'
p42
ssS'10'
p43
(dp44
g5
S'--'
p45
sg7
S'--'
p46
sg9
g10
sg11
S'--'
p47
sg13
g10
sg14
S'Kelvin Benjamin'
p48
sg16
S'2014'
p49
sg18
S'10'
p50
sg20
S'--'
p51
sg22
S'11/10'
p52
sg24
S'23.3'
p53
sg26
S'--'
p54
sg28
S'--'
p55
sg30
S'L21-45'
p56
sg32
S'70'
p57
sg34
S'3'
p58
sg36
S'@PHI'
p59
sg38
S'40T'
p60
sg40
S'2'
p61
sg41
S'--'
p62
ssS'13'
p63
(dp64
g5
S'--'
p65
sg7
S'--'
p66
sg9
g10
sg11
S'--'
p67
sg13
g10
sg14
S'Kelvin Benjamin'
p68
sg16
S'2014'
p69
sg18
S'13'
p70
sg20
S'--'
p71
sg22
S'11/30'
p72
sg24
S'11.2'
p73
sg26
S'--'
p74
sg28
S'--'
p75
sg30
S'L13-31'
p76
sg32
S'56'
p77
sg34
S'5'
p78
sg36
S'@MIN'
p79
sg38
S'30'
p80
sg40
S'0'
p81
sg41
S'--'
p82
ssS'12'
p83
(dp84
g5
S''
p85
sg7
g85
sg9
g85
sg11
g85
sg13
g85
sg14
S'Kelvin Benjamin'
p86
sg16
S'2014'
p87
sg18
S'12'
p88
sg20
g85
sg22
S'Bye'
p89
sg24
g85
sg26
g85
sg28
g85
sg30
g85
sg32
g85
sg34
g85
sg36
g85
sg38
g85
sg40
g85
sg41
g85
ssS'15'
p90
(dp91
g5
S'--'
p92
sg7
S'--'
p93
sg9
g10
sg11
S'--'
p94
sg13
g10
sg14
S'Kelvin Benjamin'
p95
sg16
S'2014'
p96
sg18
S'15'
p97
sg20
S'--'
p98
sg22
S'12/14'
p99
sg24
S'13.0'
p100
sg26
S'--'
p101
sg28
S'--'
p102
sg30
S'W19-17'
p103
sg32
S'104'
p104
sg34
S'8'
p105
sg36
S'TB'
p106
sg38
S'21'
p107
sg40
g81
sg41
S'--'
p108
ssS'14'
p109
(dp110
g5
S'--'
p111
sg7
S'--'
p112
sg9
g10
sg11
S'--'
p113
sg13
g10
sg14
S'Kelvin Benjamin'
p114
sg16
S'2014'
p115
sg18
S'14'
p116
sg20
S'--'
p117
sg22
S'12/07'
p118
sg24
S'12.0'
p119
sg26
S'--'
p120
sg28
S'--'
p121
sg30
S'W41-10'
p122
sg32
S'24'
p123
sg34
g61
sg36
S'@NO'
p124
sg38
S'15'
p125
sg40
g10
sg41
S'--'
p126
ssS'17'
p127
(dp128
g5
S'--'
p129
sg7
S'--'
p130
sg9
g10
sg11
S'--'
p131
sg13
g10
sg14
S'Kelvin Benjamin'
p132
sg16
S'2014'
p133
sg18
S'17'
p134
sg20
S'--'
p135
sg22
S'12/28'
p136
sg24
S'9.0'
p137
sg26
S'--'
p138
sg28
S'--'
p139
sg30
S'W34-3'
p140
sg32
g35
sg34
g10
sg36
S'@ATL'
p141
sg38
g35
sg40
g81
sg41
S'--'
p142
ssS'16'
p143
(dp144
g5
S'--'
p145
sg7
S'--'
p146
sg9
g10
sg11
S'--'
p147
sg13
g10
sg14
S'Kelvin Benjamin'
p148
sg16
S'2014'
p149
sg18
S'16'
p150
sg20
S'--'
p151
sg22
S'12/21'
p152
sg24
S'9.4'
p153
sg26
S'--'
p154
sg28
S'--'
p155
sg30
S'W17-13'
p156
sg32
S'47'
p157
sg34
g78
sg36
S'CLE'
p158
sg38
S'18'
p159
sg40
g81
sg41
S'--'
p160
ssg10
(dp161
g5
S'--'
p162
sg7
S'--'
p163
sg9
g10
sg11
S'--'
p164
sg13
g10
sg14
S'Kelvin Benjamin'
p165
sg16
S'2014'
p166
sg18
g10
sg20
S'--'
p167
sg22
S'09/07'
p168
sg24
S'15.3'
p169
sg26
S'--'
p170
sg28
S'--'
p171
sg30
S'W20-14'
p172
sg32
S'92'
p173
sg34
S'6'
p174
sg36
S'@TB'
p175
sg38
S'26T'
p176
sg40
g10
sg41
S'--'
p177
ssg58
(dp178
g5
S'--'
p179
sg7
S'--'
p180
sg9
g10
sg11
S'--'
p181
sg13
g10
sg14
S'Kelvin Benjamin'
p182
sg16
S'2014'
p183
sg18
g58
sg20
S'--'
p184
sg22
S'09/21'
p185
sg24
S'14.4'
p186
sg26
S'--'
p187
sg28
S'--'
p188
sg30
S'L19-37'
p189
sg32
S'115'
p190
sg34
g105
sg36
S'PIT'
p191
sg38
S'35T'
p192
sg40
g10
sg41
S'--'
p193
ssg61
(dp194
g5
S'--'
p195
sg7
S'--'
p196
sg9
g10
sg11
S'--'
p197
sg13
g10
sg14
S'Kelvin Benjamin'
p198
sg16
S'2014'
p199
sg18
g61
sg20
S'--'
p200
sg22
S'09/14'
p201
sg24
S'23.0'
p202
sg26
S'--'
p203
sg28
S'--'
p204
sg30
S'W24-7'
p205
sg32
S'46'
p206
sg34
g61
sg36
S'DET'
p207
sg38
S'24'
p208
sg40
g81
sg41
S'--'
p209
ssg78
(dp210
g5
S'--'
p211
sg7
S'--'
p212
sg9
g10
sg11
g10
sg13
g10
sg14
S'Kelvin Benjamin'
p213
sg16
S'2014'
p214
sg18
g78
sg20
S'--'
p215
sg22
S'10/05'
p216
sg24
S'12.7'
p217
sg26
g10
sg28
S'--'
p218
sg30
S'W31-24'
p219
sg32
S'38'
p220
sg34
g58
sg36
S'CHI'
p221
sg38
S'18'
p222
sg40
g81
sg41
S'--'
p223
ssS'4'
p224
(dp225
g5
S'--'
p226
sg7
S'--'
p227
sg9
g10
sg11
S'--'
p228
sg13
g10
sg14
S'Kelvin Benjamin'
p229
sg16
S'2014'
p230
sg18
g224
sg20
S'--'
p231
sg22
S'09/28'
p232
sg24
S'15.2'
p233
sg26
S'--'
p234
sg28
S'--'
p235
sg30
S'L10-38'
p236
sg32
S'76'
p237
sg34
g78
sg36
S'@BAL'
p238
sg38
S'28T'
p239
sg40
g10
sg41
S'--'
p240
ssS'7'
p241
(dp242
g5
S'--'
p243
sg7
S'--'
p244
sg9
g10
sg11
S'--'
p245
sg13
g10
sg14
S'Kelvin Benjamin'
p246
sg16
S'2014'
p247
sg18
g241
sg20
S'--'
p248
sg22
S'10/19'
p249
sg24
S'20.3'
p250
sg26
S'--'
p251
sg28
S'--'
p252
sg30
S'L17-38'
p253
sg32
S'61'
p254
sg34
g58
sg36
S'@GB'
p255
sg38
S'32'
p256
sg40
g10
sg41
S'--'
p257
ssg174
(dp258
g5
S'--'
p259
sg7
S'--'
p260
sg9
g10
sg11
S'--'
p261
sg13
g10
sg14
S'Kelvin Benjamin'
p262
sg16
S'2014'
p263
sg18
g174
sg20
S'--'
p264
sg22
S'10/12'
p265
sg24
S'7.0'
p266
sg26
S'--'
p267
sg28
S'--'
p268
sg30
S'T37-37'
p269
sg32
S'49'
p270
sg34
g241
sg36
S'@CIN'
p271
sg38
S'13'
p272
sg40
g10
sg41
S'--'
p273
ssg35
(dp274
g5
S'--'
p275
sg7
S'--'
p276
sg9
g10
sg11
S'--'
p277
sg13
g10
sg14
S'Kelvin Benjamin'
p278
sg16
S'2014'
p279
sg18
g35
sg20
S'--'
p280
sg22
S'10/30'
p281
sg24
S'9.0'
p282
sg26
S'--'
p283
sg28
S'--'
p284
sg30
S'L10-28'
p285
sg32
S'18'
p286
sg34
g61
sg36
S'NO'
p287
sg38
S'12'
p288
sg40
g81
sg41
S'--'
p289
ssg105
(dp290
g5
S'--'
p291
sg7
S'--'
p292
sg9
g81
sg11
S'--'
p293
sg13
g10
sg14
S'Kelvin Benjamin'
p294
sg16
S'2014'
p295
sg18
g105
sg20
S'--'
p296
sg22
S'10/26'
p297
sg24
S'23.5'
p298
sg26
S'--'
p299
sg28
S'--'
p300
sg30
S'L9-13'
p301
sg32
S'94'
p302
sg34
g224
sg36
S'SEA'
p303
sg38
S'51'
p304
sg40
g81
sg41
S'--'
p305
sss.