(dp0
S'2015'
p1
(dp2
S'11'
p3
(dp4
S'RushTD'
p5
S'--'
p6
sS'RushYds'
p7
S'--'
p8
sS'GS'
p9
S'0'
p10
sS'Lost'
p11
S'--'
p12
sS'G'
p13
g10
sS'Player'
p14
S'Kenbrell Thompkins'
p15
sS'Year'
p16
S'2015'
p17
sS'WK'
p18
S'11'
p19
sS'RushAvg'
p20
S'--'
p21
sS'Game Date'
p22
S'11/22'
p23
sS'RecAvg'
p24
S'--'
p25
sS'FUM'
p26
S'--'
p27
sS'RushAtt'
p28
S'--'
p29
sS'Result'
p30
S'L17-24'
p31
sS'RecYds'
p32
S'--'
p33
sS'Rec'
p34
S'--'
p35
sS'Opp'
p36
S'@HOU'
p37
sS'RecLng'
p38
S'--'
p39
sS'RecTD'
p40
S'--'
p41
sS'RushLng'
p42
S'--'
p43
ssS'10'
p44
(dp45
g5
S'--'
p46
sg7
S'--'
p47
sg9
S'1'
p48
sg11
S'--'
p49
sg13
g48
sg14
S'Kenbrell Thompkins'
p50
sg16
S'2015'
p51
sg18
S'10'
p52
sg20
S'--'
p53
sg22
S'11/12'
p54
sg24
S'2.0'
p55
sg26
S'--'
p56
sg28
S'--'
p57
sg30
S'L17-22'
p58
sg32
S'2'
p59
sg34
g48
sg36
S'BUF'
p60
sg38
g59
sg40
g10
sg42
S'--'
p61
ssS'13'
p62
(dp63
g5
S'--'
p64
sg7
S'--'
p65
sg9
g10
sg11
S'--'
p66
sg13
g48
sg14
S'Kenbrell Thompkins'
p67
sg16
S'2015'
p68
sg18
S'13'
p69
sg20
S'--'
p70
sg22
S'12/06'
p71
sg24
S'--'
p72
sg26
S'--'
p73
sg28
S'--'
p74
sg30
S'W23-20'
p75
sg32
S'--'
p76
sg34
S'--'
p77
sg36
S'@NYG'
p78
sg38
S'--'
p79
sg40
S'--'
p80
sg42
S'--'
p81
ssS'12'
p82
(dp83
g5
S'--'
p84
sg7
S'--'
p85
sg9
g10
sg11
S'--'
p86
sg13
g10
sg14
S'Kenbrell Thompkins'
p87
sg16
S'2015'
p88
sg18
S'12'
p89
sg20
S'--'
p90
sg22
S'11/29'
p91
sg24
S'--'
p92
sg26
S'--'
p93
sg28
S'--'
p94
sg30
S'W38-20'
p95
sg32
S'--'
p96
sg34
S'--'
p97
sg36
S'MIA'
p98
sg38
S'--'
p99
sg40
S'--'
p100
sg42
S'--'
p101
ssS'15'
p102
(dp103
g5
S'--'
p104
sg7
S'--'
p105
sg9
g10
sg11
S'--'
p106
sg13
g48
sg14
S'Kenbrell Thompkins'
p107
sg16
S'2015'
p108
sg18
S'15'
p109
sg20
S'--'
p110
sg22
S'12/19'
p111
sg24
S'25.0'
p112
sg26
S'--'
p113
sg28
S'--'
p114
sg30
S'W19-16'
p115
sg32
S'50'
p116
sg34
g59
sg36
S'@DAL'
p117
sg38
S'43'
p118
sg40
g10
sg42
S'--'
p119
ssS'14'
p120
(dp121
g5
S'--'
p122
sg7
S'--'
p123
sg9
g10
sg11
S'--'
p124
sg13
g10
sg14
S'Kenbrell Thompkins'
p125
sg16
S'2015'
p126
sg18
S'14'
p127
sg20
S'--'
p128
sg22
S'12/13'
p129
sg24
S'--'
p130
sg26
S'--'
p131
sg28
S'--'
p132
sg30
S'W30-8'
p133
sg32
S'--'
p134
sg34
S'--'
p135
sg36
S'TEN'
p136
sg38
S'--'
p137
sg40
S'--'
p138
sg42
S'--'
p139
ssS'17'
p140
(dp141
g5
S'--'
p142
sg7
S'--'
p143
sg9
g48
sg11
S'--'
p144
sg13
g48
sg14
S'Kenbrell Thompkins'
p145
sg16
S'2015'
p146
sg18
S'17'
p147
sg20
S'--'
p148
sg22
S'01/03'
p149
sg24
S'--'
p150
sg26
S'--'
p151
sg28
S'--'
p152
sg30
S'L17-22'
p153
sg32
g10
sg34
g10
sg36
S'@BUF'
p154
sg38
S'--'
p155
sg40
g10
sg42
S'--'
p156
ssS'16'
p157
(dp158
g5
S'--'
p159
sg7
S'--'
p160
sg9
g10
sg11
S'--'
p161
sg13
g48
sg14
S'Kenbrell Thompkins'
p162
sg16
S'2015'
p163
sg18
S'16'
p164
sg20
S'--'
p165
sg22
S'12/27'
p166
sg24
S'6.8'
p167
sg26
S'--'
p168
sg28
S'--'
p169
sg30
S'W26-20'
p170
sg32
S'27'
p171
sg34
S'4'
p172
sg36
S'NE'
p173
sg38
S'12'
p174
sg40
g10
sg42
S'--'
p175
ssS'7'
p176
(dp177
g5
S'--'
p178
sg7
S'--'
p179
sg9
g10
sg11
S'--'
p180
sg13
g10
sg14
S'Kenbrell Thompkins'
p181
sg16
S'2015'
p182
sg18
g176
sg20
S'--'
p183
sg22
S'10/25'
p184
sg24
S'--'
p185
sg26
S'--'
p186
sg28
S'--'
p187
sg30
S'L23-30'
p188
sg32
S'--'
p189
sg34
S'--'
p190
sg36
S'@NE'
p191
sg38
S'--'
p192
sg40
S'--'
p193
sg42
S'--'
p194
ssS'9'
p195
(dp196
g5
S'--'
p197
sg7
S'--'
p198
sg9
g10
sg11
S'--'
p199
sg13
g48
sg14
S'Kenbrell Thompkins'
p200
sg16
S'2015'
p201
sg18
g195
sg20
S'--'
p202
sg22
S'11/08'
p203
sg24
S'11.3'
p204
sg26
S'--'
p205
sg28
S'--'
p206
sg30
S'W28-23'
p207
sg32
S'45'
p208
sg34
g172
sg36
S'JAC'
p209
sg38
S'38'
p210
sg40
g10
sg42
S'--'
p211
ssS'8'
p212
(dp213
g5
S'--'
p214
sg7
S'--'
p215
sg9
g10
sg11
S'--'
p216
sg13
g48
sg14
S'Kenbrell Thompkins'
p217
sg16
S'2015'
p218
sg18
g212
sg20
S'--'
p219
sg22
S'11/01'
p220
sg24
S'6.8'
p221
sg26
S'--'
p222
sg28
S'--'
p223
sg30
S'L20-34'
p224
sg32
S'41'
p225
sg34
S'6'
p226
sg36
S'@OAK'
p227
sg38
S'12'
p228
sg40
g10
sg42
S'--'
p229
sssS'2014'
p230
(dp231
g3
(dp232
g5
S'--'
p233
sg7
S'--'
p234
sg9
g48
sg11
S'--'
p235
sg13
g48
sg14
S'Kenbrell Thompkins'
p236
sg16
S'2014'
p237
sg18
S'11'
p238
sg20
S'--'
p239
sg22
S'11/16'
p240
sg24
S'23.5'
p241
sg26
S'--'
p242
sg28
S'--'
p243
sg30
S'L6-13'
p244
sg32
S'47'
p245
sg34
g59
sg36
S'@SD'
p246
sg38
S'35'
p247
sg40
g10
sg42
S'--'
p248
ssg44
(dp249
g5
g10
sg7
S'-2'
p250
sg9
g48
sg11
S'--'
p251
sg13
g48
sg14
S'Kenbrell Thompkins'
p252
sg16
S'2014'
p253
sg18
S'10'
p254
sg20
S'-2.0'
p255
sg22
S'11/09'
p256
sg24
S'--'
p257
sg26
S'--'
p258
sg28
g48
sg30
S'L17-41'
p259
sg32
S'--'
p260
sg34
S'--'
p261
sg36
S'DEN'
p262
sg38
S'--'
p263
sg40
S'--'
p264
sg42
S'-2'
p265
ssg62
(dp266
g5
S'--'
p267
sg7
S'--'
p268
sg9
g10
sg11
S'--'
p269
sg13
g48
sg14
S'Kenbrell Thompkins'
p270
sg16
S'2014'
p271
sg18
S'13'
p272
sg20
S'--'
p273
sg22
S'11/30'
p274
sg24
S'14.0'
p275
sg26
S'--'
p276
sg28
S'--'
p277
sg30
S'L0-52'
p278
sg32
S'28'
p279
sg34
g59
sg36
S'@STL'
p280
sg38
S'18'
p281
sg40
g10
sg42
S'--'
p282
ssg82
(dp283
g5
S'--'
p284
sg7
S'--'
p285
sg9
g10
sg11
S'--'
p286
sg13
g48
sg14
S'Kenbrell Thompkins'
p287
sg16
S'2014'
p288
sg18
S'12'
p289
sg20
S'--'
p290
sg22
S'11/20'
p291
sg24
S'--'
p292
sg26
S'--'
p293
sg28
S'--'
p294
sg30
S'W24-20'
p295
sg32
g10
sg34
g10
sg36
S'KC'
p296
sg38
S'--'
p297
sg40
g10
sg42
S'--'
p298
ssg102
(dp299
g5
S'--'
p300
sg7
S'--'
p301
sg9
g10
sg11
S'--'
p302
sg13
g48
sg14
S'Kenbrell Thompkins'
p303
sg16
S'2014'
p304
sg18
S'15'
p305
sg20
S'--'
p306
sg22
S'12/14'
p307
sg24
S'--'
p308
sg26
S'--'
p309
sg28
S'--'
p310
sg30
S'L13-31'
p311
sg32
g10
sg34
g10
sg36
S'@KC'
p312
sg38
S'--'
p313
sg40
g10
sg42
S'--'
p314
ssg120
(dp315
g5
S'--'
p316
sg7
S'--'
p317
sg9
g10
sg11
S'--'
p318
sg13
g48
sg14
S'Kenbrell Thompkins'
p319
sg16
S'2014'
p320
sg18
S'14'
p321
sg20
S'--'
p322
sg22
S'12/07'
p323
sg24
S'--'
p324
sg26
S'--'
p325
sg28
S'--'
p326
sg30
S'W24-13'
p327
sg32
g10
sg34
g10
sg36
S'SF'
p328
sg38
S'--'
p329
sg40
g10
sg42
S'--'
p330
ssg140
(dp331
g5
S'--'
p332
sg7
S'--'
p333
sg9
g48
sg11
S'--'
p334
sg13
g48
sg14
S'Kenbrell Thompkins'
p335
sg16
S'2014'
p336
sg18
S'17'
p337
sg20
S'--'
p338
sg22
S'12/28'
p339
sg24
S'2.0'
p340
sg26
S'--'
p341
sg28
S'--'
p342
sg30
S'L14-47'
p343
sg32
g59
sg34
g48
sg36
S'@DEN'
p344
sg38
g59
sg40
g10
sg42
S'--'
p345
ssg157
(dp346
g5
S'--'
p347
sg7
S'--'
p348
sg9
g48
sg11
S'--'
p349
sg13
g48
sg14
S'Kenbrell Thompkins'
p350
sg16
S'2014'
p351
sg18
S'16'
p352
sg20
S'--'
p353
sg22
S'12/21'
p354
sg24
S'18.0'
p355
sg26
S'--'
p356
sg28
S'--'
p357
sg30
S'W26-24'
p358
sg32
S'90'
p359
sg34
S'5'
p360
sg36
S'BUF'
p361
sg38
S'50'
p362
sg40
g10
sg42
S'--'
p363
ssg48
(dp364
g5
S'--'
p365
sg7
S'--'
p366
sg9
g48
sg11
S'--'
p367
sg13
g48
sg14
S'Kenbrell Thompkins'
p368
sg16
S'2014'
p369
sg18
g48
sg20
S'--'
p370
sg22
S'09/07'
p371
sg24
S'7.4'
p372
sg26
S'--'
p373
sg28
S'--'
p374
sg30
S'L20-33'
p375
sg32
S'37'
p376
sg34
g360
sg36
S'@MIA'
p377
sg38
S'14'
p378
sg40
g10
sg42
S'--'
p379
ssS'3'
p380
(dp381
g5
S'--'
p382
sg7
S'--'
p383
sg9
g10
sg11
S'--'
p384
sg13
g48
sg14
S'Kenbrell Thompkins'
p385
sg16
S'2014'
p386
sg18
g380
sg20
S'--'
p387
sg22
S'09/21'
p388
sg24
S'16.0'
p389
sg26
S'--'
p390
sg28
S'--'
p391
sg30
S'W16-9'
p392
sg32
S'16'
p393
sg34
g48
sg36
S'OAK'
p394
sg38
S'16'
p395
sg40
g10
sg42
S'--'
p396
ssg59
(dp397
g5
S'--'
p398
sg7
S'--'
p399
sg9
g10
sg11
S'--'
p400
sg13
g10
sg14
S'Kenbrell Thompkins'
p401
sg16
S'2014'
p402
sg18
g59
sg20
S'--'
p403
sg22
S'09/14'
p404
sg24
S'--'
p405
sg26
S'--'
p406
sg28
S'--'
p407
sg30
S'W30-7'
p408
sg32
S'--'
p409
sg34
S'--'
p410
sg36
S'@MIN'
p411
sg38
S'--'
p412
sg40
S'--'
p413
sg42
S'--'
p414
ssg360
(dp415
g5
S''
p416
sg7
g416
sg9
g416
sg11
g416
sg13
g416
sg14
S'Kenbrell Thompkins'
p417
sg16
S'2014'
p418
sg18
g360
sg20
g416
sg22
S'Bye'
p419
sg24
g416
sg26
g416
sg28
g416
sg30
g416
sg32
g416
sg34
g416
sg36
g416
sg38
g416
sg40
g416
sg42
g416
ssg172
(dp420
g5
S'--'
p421
sg7
S'--'
p422
sg9
g10
sg11
S'--'
p423
sg13
g10
sg14
S'Kenbrell Thompkins'
p424
sg16
S'2014'
p425
sg18
g172
sg20
S'--'
p426
sg22
S'09/29'
p427
sg24
S'--'
p428
sg26
S'--'
p429
sg28
S'--'
p430
sg30
S'L14-41'
p431
sg32
S'--'
p432
sg34
S'--'
p433
sg36
S'@KC'
p434
sg38
S'--'
p435
sg40
S'--'
p436
sg42
S'--'
p437
ssg176
(dp438
g5
S'--'
p439
sg7
S'--'
p440
sg9
g48
sg11
S'--'
p441
sg13
g48
sg14
S'Kenbrell Thompkins'
p442
sg16
S'2014'
p443
sg18
g176
sg20
S'--'
p444
sg22
S'10/19'
p445
sg24
S'--'
p446
sg26
S'--'
p447
sg28
S'--'
p448
sg30
S'L13-24'
p449
sg32
g10
sg34
g10
sg36
S'ARI'
p450
sg38
S'--'
p451
sg40
g10
sg42
S'--'
p452
ssg226
(dp453
g5
S'--'
p454
sg7
S'--'
p455
sg9
g10
sg11
S'--'
p456
sg13
g48
sg14
S'Kenbrell Thompkins'
p457
sg16
S'2014'
p458
sg18
g226
sg20
S'--'
p459
sg22
S'10/12'
p460
sg24
S'--'
p461
sg26
S'--'
p462
sg28
S'--'
p463
sg30
S'L28-31'
p464
sg32
S'--'
p465
sg34
S'--'
p466
sg36
S'SD'
p467
sg38
S'--'
p468
sg40
S'--'
p469
sg42
S'--'
p470
ssg195
(dp471
g5
S'--'
p472
sg7
S'--'
p473
sg9
g10
sg11
S'--'
p474
sg13
g48
sg14
S'Kenbrell Thompkins'
p475
sg16
S'2014'
p476
sg18
g195
sg20
S'--'
p477
sg22
S'11/02'
p478
sg24
S'8.0'
p479
sg26
S'--'
p480
sg28
S'--'
p481
sg30
S'L24-30'
p482
sg32
g212
sg34
g48
sg36
S'@SEA'
p483
sg38
g212
sg40
g10
sg42
S'--'
p484
ssg212
(dp485
g5
g10
sg7
g176
sg9
g48
sg11
S'--'
p486
sg13
g48
sg14
S'Kenbrell Thompkins'
p487
sg16
S'2014'
p488
sg18
g212
sg20
S'7.0'
p489
sg22
S'10/26'
p490
sg24
S'8.5'
p491
sg26
S'--'
p492
sg28
g48
sg30
S'L13-23'
p493
sg32
S'34'
p494
sg34
g172
sg36
S'@CLE'
p495
sg38
S'15'
p496
sg40
g10
sg42
g176
sssS'2013'
p497
(dp498
g3
(dp499
g5
S'--'
p500
sg7
S'--'
p501
sg9
g10
sg11
S'--'
p502
sg13
g48
sg14
S'Kenbrell Thompkins'
p503
sg16
S'2013'
p504
sg18
S'11'
p505
sg20
S'--'
p506
sg22
S'11/18'
p507
sg24
S'30.0'
p508
sg26
S'--'
p509
sg28
S'--'
p510
sg30
S'L20-24'
p511
sg32
S'60'
p512
sg34
g59
sg36
S'@CAR'
p513
sg38
S'37'
p514
sg40
g10
sg42
S'--'
p515
ssg44
(dp516
g5
g416
sg7
g416
sg9
g416
sg11
g416
sg13
g416
sg14
S'Kenbrell Thompkins'
p517
sg16
S'2013'
p518
sg18
S'10'
p519
sg20
g416
sg22
S'Bye'
p520
sg24
g416
sg26
g416
sg28
g416
sg30
g416
sg32
g416
sg34
g416
sg36
g416
sg38
g416
sg40
g416
sg42
g416
ssg62
(dp521
g5
S'--'
p522
sg7
S'--'
p523
sg9
g48
sg11
S'--'
p524
sg13
g48
sg14
S'Kenbrell Thompkins'
p525
sg16
S'2013'
p526
sg18
S'13'
p527
sg20
S'--'
p528
sg22
S'12/01'
p529
sg24
S'16.0'
p530
sg26
S'--'
p531
sg28
S'--'
p532
sg30
S'W34-31'
p533
sg32
S'16'
p534
sg34
g48
sg36
S'@HOU'
p535
sg38
S'16'
p536
sg40
g10
sg42
S'--'
p537
ssg82
(dp538
g5
S'--'
p539
sg7
S'--'
p540
sg9
g10
sg11
S'--'
p541
sg13
g48
sg14
S'Kenbrell Thompkins'
p542
sg16
S'2013'
p543
sg18
S'12'
p544
sg20
S'--'
p545
sg22
S'11/24'
p546
sg24
S'9.3'
p547
sg26
S'--'
p548
sg28
S'--'
p549
sg30
S'W34-31'
p550
sg32
S'56'
p551
sg34
g226
sg36
S'DEN'
p552
sg38
S'14'
p553
sg40
g10
sg42
S'--'
p554
ssg102
(dp555
g5
S'--'
p556
sg7
S'--'
p557
sg9
g10
sg11
S'--'
p558
sg13
g10
sg14
S'Kenbrell Thompkins'
p559
sg16
S'2013'
p560
sg18
S'15'
p561
sg20
S'--'
p562
sg22
S'12/15'
p563
sg24
S'--'
p564
sg26
S'--'
p565
sg28
S'--'
p566
sg30
S'L20-24'
p567
sg32
S'--'
p568
sg34
S'--'
p569
sg36
S'@MIA'
p570
sg38
S'--'
p571
sg40
S'--'
p572
sg42
S'--'
p573
ssg120
(dp574
g5
S'--'
p575
sg7
S'--'
p576
sg9
g10
sg11
S'--'
p577
sg13
g10
sg14
S'Kenbrell Thompkins'
p578
sg16
S'2013'
p579
sg18
S'14'
p580
sg20
S'--'
p581
sg22
S'12/08'
p582
sg24
S'--'
p583
sg26
S'--'
p584
sg28
S'--'
p585
sg30
S'W27-26'
p586
sg32
S'--'
p587
sg34
S'--'
p588
sg36
S'CLE'
p589
sg38
S'--'
p590
sg40
S'--'
p591
sg42
S'--'
p592
ssg140
(dp593
g5
S'--'
p594
sg7
S'--'
p595
sg9
g10
sg11
S'--'
p596
sg13
g48
sg14
S'Kenbrell Thompkins'
p597
sg16
S'2013'
p598
sg18
S'17'
p599
sg20
S'--'
p600
sg22
S'12/29'
p601
sg24
S'--'
p602
sg26
S'--'
p603
sg28
S'--'
p604
sg30
S'W34-20'
p605
sg32
S'--'
p606
sg34
S'--'
p607
sg36
S'BUF'
p608
sg38
S'--'
p609
sg40
S'--'
p610
sg42
S'--'
p611
ssg157
(dp612
g5
S'--'
p613
sg7
S'--'
p614
sg9
g10
sg11
S'--'
p615
sg13
g10
sg14
S'Kenbrell Thompkins'
p616
sg16
S'2013'
p617
sg18
S'16'
p618
sg20
S'--'
p619
sg22
S'12/22'
p620
sg24
S'--'
p621
sg26
S'--'
p622
sg28
S'--'
p623
sg30
S'W41-7'
p624
sg32
S'--'
p625
sg34
S'--'
p626
sg36
S'@BAL'
p627
sg38
S'--'
p628
sg40
S'--'
p629
sg42
S'--'
p630
ssg48
(dp631
g5
S'--'
p632
sg7
S'--'
p633
sg9
g48
sg11
S'--'
p634
sg13
g48
sg14
S'Kenbrell Thompkins'
p635
sg16
S'2013'
p636
sg18
g48
sg20
S'--'
p637
sg22
S'09/08'
p638
sg24
S'10.5'
p639
sg26
S'--'
p640
sg28
S'--'
p641
sg30
S'W23-21'
p642
sg32
S'42'
p643
sg34
g172
sg36
S'@BUF'
p644
sg38
S'20'
p645
sg40
g10
sg42
S'--'
p646
ssg380
(dp647
g5
S'--'
p648
sg7
S'--'
p649
sg9
g48
sg11
S'--'
p650
sg13
g48
sg14
S'Kenbrell Thompkins'
p651
sg16
S'2013'
p652
sg18
g380
sg20
S'--'
p653
sg22
S'09/22'
p654
sg24
S'13.7'
p655
sg26
S'--'
p656
sg28
S'--'
p657
sg30
S'W23-3'
p658
sg32
S'41'
p659
sg34
g380
sg36
S'TB'
p660
sg38
S'20'
p661
sg40
g59
sg42
S'--'
p662
ssg59
(dp663
g5
S'--'
p664
sg7
S'--'
p665
sg9
g48
sg11
S'--'
p666
sg13
g48
sg14
S'Kenbrell Thompkins'
p667
sg16
S'2013'
p668
sg18
g59
sg20
S'--'
p669
sg22
S'09/12'
p670
sg24
S'23.5'
p671
sg26
S'--'
p672
sg28
S'--'
p673
sg30
S'W13-10'
p674
sg32
S'47'
p675
sg34
g59
sg36
S'NYJ'
p676
sg38
S'38'
p677
sg40
g10
sg42
S'--'
p678
ssg360
(dp679
g5
S'--'
p680
sg7
S'--'
p681
sg9
g48
sg11
S'--'
p682
sg13
g48
sg14
S'Kenbrell Thompkins'
p683
sg16
S'2013'
p684
sg18
g360
sg20
S'--'
p685
sg22
S'10/06'
p686
sg24
S'5.3'
p687
sg26
S'--'
p688
sg28
S'--'
p689
sg30
S'L6-13'
p690
sg32
S'16'
p691
sg34
g380
sg36
S'@CIN'
p692
sg38
g226
sg40
g10
sg42
S'--'
p693
ssg172
(dp694
g5
S'--'
p695
sg7
S'--'
p696
sg9
g48
sg11
S'--'
p697
sg13
g48
sg14
S'Kenbrell Thompkins'
p698
sg16
S'2013'
p699
sg18
g172
sg20
S'--'
p700
sg22
S'09/29'
p701
sg24
S'21.2'
p702
sg26
S'--'
p703
sg28
S'--'
p704
sg30
S'W30-23'
p705
sg32
S'127'
p706
sg34
g226
sg36
S'@ATL'
p707
sg38
S'49'
p708
sg40
g48
sg42
S'--'
p709
ssg176
(dp710
g5
S'--'
p711
sg7
S'--'
p712
sg9
g48
sg11
S'--'
p713
sg13
g48
sg14
S'Kenbrell Thompkins'
p714
sg16
S'2013'
p715
sg18
g176
sg20
S'--'
p716
sg22
S'10/20'
p717
sg24
S'8.0'
p718
sg26
S'--'
p719
sg28
S'--'
p720
sg30
S'L27-30'
p721
sg32
S'16'
p722
sg34
g59
sg36
S'@NYJ'
p723
sg38
S'11'
p724
sg40
g10
sg42
S'--'
p725
ssg226
(dp726
g5
S'--'
p727
sg7
S'--'
p728
sg9
g48
sg11
S'--'
p729
sg13
g48
sg14
S'Kenbrell Thompkins'
p730
sg16
S'2013'
p731
sg18
g226
sg20
S'--'
p732
sg22
S'10/13'
p733
sg24
S'15.0'
p734
sg26
S'--'
p735
sg28
S'--'
p736
sg30
S'W30-27'
p737
sg32
S'45'
p738
sg34
g380
sg36
S'NO'
p739
sg38
S'21'
p740
sg40
g48
sg42
S'--'
p741
ssg195
(dp742
g5
S'--'
p743
sg7
S'--'
p744
sg9
g10
sg11
S'--'
p745
sg13
g10
sg14
S'Kenbrell Thompkins'
p746
sg16
S'2013'
p747
sg18
g195
sg20
S'--'
p748
sg22
S'11/03'
p749
sg24
S'--'
p750
sg26
S'--'
p751
sg28
S'--'
p752
sg30
S'W55-31'
p753
sg32
S'--'
p754
sg34
S'--'
p755
sg36
S'PIT'
p756
sg38
S'--'
p757
sg40
S'--'
p758
sg42
S'--'
p759
ssg212
(dp760
g5
S'--'
p761
sg7
S'--'
p762
sg9
g10
sg11
S'--'
p763
sg13
g48
sg14
S'Kenbrell Thompkins'
p764
sg16
S'2013'
p765
sg18
g212
sg20
S'--'
p766
sg22
S'10/27'
p767
sg24
S'--'
p768
sg26
S'--'
p769
sg28
S'--'
p770
sg30
S'W27-17'
p771
sg32
g10
sg34
g10
sg36
S'MIA'
p772
sg38
S'--'
p773
sg40
g10
sg42
S'--'
p774
sss.