(dp0
S'2015'
p1
(dp2
S'11'
p3
(dp4
S'RushTD'
p5
S'--'
p6
sS'RushYds'
p7
S'--'
p8
sS'GS'
p9
S'0'
p10
sS'Lost'
p11
S'--'
p12
sS'G'
p13
g10
sS'Player'
p14
S'Kendall Wright'
p15
sS'Year'
p16
S'2015'
p17
sS'WK'
p18
S'11'
p19
sS'RushAvg'
p20
S'--'
p21
sS'Game Date'
p22
S'11/19'
p23
sS'RecAvg'
p24
S'--'
p25
sS'FUM'
p26
S'--'
p27
sS'RushAtt'
p28
S'--'
p29
sS'Result'
p30
S'L13-19'
p31
sS'RecYds'
p32
S'--'
p33
sS'Rec'
p34
S'--'
p35
sS'Opp'
p36
S'@JAC'
p37
sS'RecLng'
p38
S'--'
p39
sS'RecTD'
p40
S'--'
p41
sS'RushLng'
p42
S'--'
p43
ssS'10'
p44
(dp45
g5
S'--'
p46
sg7
S'--'
p47
sg9
g10
sg11
S'--'
p48
sg13
g10
sg14
S'Kendall Wright'
p49
sg16
S'2015'
p50
sg18
S'10'
p51
sg20
S'--'
p52
sg22
S'11/15'
p53
sg24
S'--'
p54
sg26
S'--'
p55
sg28
S'--'
p56
sg30
S'L10-27'
p57
sg32
S'--'
p58
sg34
S'--'
p59
sg36
S'CAR'
p60
sg38
S'--'
p61
sg40
S'--'
p62
sg42
S'--'
p63
ssS'13'
p64
(dp65
g5
S'--'
p66
sg7
S'--'
p67
sg9
S'1'
p68
sg11
S'--'
p69
sg13
g68
sg14
S'Kendall Wright'
p70
sg16
S'2015'
p71
sg18
S'13'
p72
sg20
S'--'
p73
sg22
S'12/06'
p74
sg24
S'9.3'
p75
sg26
S'--'
p76
sg28
S'--'
p77
sg30
S'W42-39'
p78
sg32
S'28'
p79
sg34
S'3'
p80
sg36
S'JAC'
p81
sg38
S'10'
p82
sg40
g10
sg42
S'--'
p83
ssS'12'
p84
(dp85
g5
g10
sg7
S'-4'
p86
sg9
g10
sg11
S'--'
p87
sg13
g68
sg14
S'Kendall Wright'
p88
sg16
S'2015'
p89
sg18
S'12'
p90
sg20
S'-2.0'
p91
sg22
S'11/29'
p92
sg24
S'9.5'
p93
sg26
S'--'
p94
sg28
S'2'
p95
sg30
S'L21-24'
p96
sg32
S'19'
p97
sg34
g95
sg36
S'OAK'
p98
sg38
S'12'
p99
sg40
g10
sg42
g10
ssS'15'
p100
(dp101
g5
S'--'
p102
sg7
S'--'
p103
sg9
g10
sg11
S'--'
p104
sg13
g10
sg14
S'Kendall Wright'
p105
sg16
S'2015'
p106
sg18
S'15'
p107
sg20
S'--'
p108
sg22
S'12/20'
p109
sg24
S'--'
p110
sg26
S'--'
p111
sg28
S'--'
p112
sg30
S'L16-33'
p113
sg32
S'--'
p114
sg34
S'--'
p115
sg36
S'@NE'
p116
sg38
S'--'
p117
sg40
S'--'
p118
sg42
S'--'
p119
ssS'14'
p120
(dp121
g5
S'--'
p122
sg7
S'--'
p123
sg9
g10
sg11
S'--'
p124
sg13
g10
sg14
S'Kendall Wright'
p125
sg16
S'2015'
p126
sg18
S'14'
p127
sg20
S'--'
p128
sg22
S'12/13'
p129
sg24
S'--'
p130
sg26
S'--'
p131
sg28
S'--'
p132
sg30
S'L8-30'
p133
sg32
S'--'
p134
sg34
S'--'
p135
sg36
S'@NYJ'
p136
sg38
S'--'
p137
sg40
S'--'
p138
sg42
S'--'
p139
ssS'17'
p140
(dp141
g5
S'--'
p142
sg7
S'--'
p143
sg9
g10
sg11
S'--'
p144
sg13
g10
sg14
S'Kendall Wright'
p145
sg16
S'2015'
p146
sg18
S'17'
p147
sg20
S'--'
p148
sg22
S'01/03'
p149
sg24
S'--'
p150
sg26
S'--'
p151
sg28
S'--'
p152
sg30
S'L24-30'
p153
sg32
S'--'
p154
sg34
S'--'
p155
sg36
S'@IND'
p156
sg38
S'--'
p157
sg40
S'--'
p158
sg42
S'--'
p159
ssS'16'
p160
(dp161
g5
S'--'
p162
sg7
S'--'
p163
sg9
g68
sg11
S'--'
p164
sg13
g68
sg14
S'Kendall Wright'
p165
sg16
S'2015'
p166
sg18
S'16'
p167
sg20
S'--'
p168
sg22
S'12/27'
p169
sg24
S'6.0'
p170
sg26
S'--'
p171
sg28
S'--'
p172
sg30
S'L6-34'
p173
sg32
S'18'
p174
sg34
g80
sg36
S'HOU'
p175
sg38
S'7'
p176
sg40
g10
sg42
S'--'
p177
ssg68
(dp178
g5
S'--'
p179
sg7
S'--'
p180
sg9
g68
sg11
S'--'
p181
sg13
g68
sg14
S'Kendall Wright'
p182
sg16
S'2015'
p183
sg18
g68
sg20
S'--'
p184
sg22
S'09/13'
p185
sg24
S'25.3'
p186
sg26
S'--'
p187
sg28
S'--'
p188
sg30
S'W42-14'
p189
sg32
S'101'
p190
sg34
S'4'
p191
sg36
S'@TB'
p192
sg38
S'52T'
p193
sg40
g68
sg42
S'--'
p194
ssg80
(dp195
g5
g10
sg7
S'13'
p196
sg9
g68
sg11
S'--'
p197
sg13
g68
sg14
S'Kendall Wright'
p198
sg16
S'2015'
p199
sg18
g80
sg20
S'13.0'
p200
sg22
S'09/27'
p201
sg24
S'13.6'
p202
sg26
S'--'
p203
sg28
g68
sg30
S'L33-35'
p204
sg32
S'95'
p205
sg34
g176
sg36
S'IND'
p206
sg38
S'24'
p207
sg40
g68
sg42
S'13'
p208
ssg95
(dp209
g5
S'--'
p210
sg7
S'--'
p211
sg9
g68
sg11
S'--'
p212
sg13
g68
sg14
S'Kendall Wright'
p213
sg16
S'2015'
p214
sg18
g95
sg20
S'--'
p215
sg22
S'09/20'
p216
sg24
S'8.5'
p217
sg26
S'--'
p218
sg28
S'--'
p219
sg30
S'L14-28'
p220
sg32
S'17'
p221
sg34
g95
sg36
S'@CLE'
p222
sg38
S'10'
p223
sg40
g10
sg42
S'--'
p224
ssS'5'
p225
(dp226
g5
g10
sg7
g68
sg9
g68
sg11
S'--'
p227
sg13
g68
sg14
S'Kendall Wright'
p228
sg16
S'2015'
p229
sg18
g225
sg20
S'1.0'
p230
sg22
S'10/11'
p231
sg24
S'9.7'
p232
sg26
S'--'
p233
sg28
g68
sg30
S'L13-14'
p234
sg32
S'29'
p235
sg34
g80
sg36
S'BUF'
p236
sg38
S'17'
p237
sg40
g10
sg42
g68
ssg191
(dp238
g5
S''
p239
sg7
g239
sg9
g239
sg11
g239
sg13
g239
sg14
S'Kendall Wright'
p240
sg16
S'2015'
p241
sg18
g191
sg20
g239
sg22
S'Bye'
p242
sg24
g239
sg26
g239
sg28
g239
sg30
g239
sg32
g239
sg34
g239
sg36
g239
sg38
g239
sg40
g239
sg42
g239
ssg176
(dp243
g5
S'--'
p244
sg7
S'--'
p245
sg9
g68
sg11
S'--'
p246
sg13
g68
sg14
S'Kendall Wright'
p247
sg16
S'2015'
p248
sg18
g176
sg20
S'--'
p249
sg22
S'10/25'
p250
sg24
S'11.5'
p251
sg26
S'--'
p252
sg28
S'--'
p253
sg30
S'L7-10'
p254
sg32
S'46'
p255
sg34
g191
sg36
S'ATL'
p256
sg38
S'19T'
p257
sg40
g68
sg42
S'--'
p258
ssS'6'
p259
(dp260
g5
S'--'
p261
sg7
S'--'
p262
sg9
g68
sg11
S'--'
p263
sg13
g68
sg14
S'Kendall Wright'
p264
sg16
S'2015'
p265
sg18
g259
sg20
S'--'
p266
sg22
S'10/18'
p267
sg24
S'8.5'
p268
sg26
S'--'
p269
sg28
S'--'
p270
sg30
S'L10-38'
p271
sg32
S'34'
p272
sg34
g191
sg36
S'MIA'
p273
sg38
S'16'
p274
sg40
g10
sg42
S'--'
p275
ssS'9'
p276
(dp277
g5
S'--'
p278
sg7
S'--'
p279
sg9
g10
sg11
S'--'
p280
sg13
g10
sg14
S'Kendall Wright'
p281
sg16
S'2015'
p282
sg18
g276
sg20
S'--'
p283
sg22
S'11/08'
p284
sg24
S'--'
p285
sg26
S'--'
p286
sg28
S'--'
p287
sg30
S'W34-28'
p288
sg32
S'--'
p289
sg34
S'--'
p290
sg36
S'@NO'
p291
sg38
S'--'
p292
sg40
S'--'
p293
sg42
S'--'
p294
ssS'8'
p295
(dp296
g5
g10
sg7
g176
sg9
g68
sg11
S'--'
p297
sg13
g68
sg14
S'Kendall Wright'
p298
sg16
S'2015'
p299
sg18
g295
sg20
S'7.0'
p300
sg22
S'11/01'
p301
sg24
S'5.3'
p302
sg26
S'--'
p303
sg28
g68
sg30
S'L6-20'
p304
sg32
S'21'
p305
sg34
g191
sg36
S'@HOU'
p306
sg38
S'18'
p307
sg40
g10
sg42
g176
sssS'2014'
p308
(dp309
g3
(dp310
g5
S'--'
p311
sg7
S'--'
p312
sg9
g10
sg11
S'--'
p313
sg13
g68
sg14
S'Kendall Wright'
p314
sg16
S'2014'
p315
sg18
S'11'
p316
sg20
S'--'
p317
sg22
S'11/17'
p318
sg24
S'17.5'
p319
sg26
S'--'
p320
sg28
S'--'
p321
sg30
S'L24-27'
p322
sg32
S'70'
p323
sg34
g191
sg36
S'PIT'
p324
sg38
S'23'
p325
sg40
g10
sg42
S'--'
p326
ssg44
(dp327
g5
g10
sg7
g68
sg9
g68
sg11
S'--'
p328
sg13
g68
sg14
S'Kendall Wright'
p329
sg16
S'2014'
p330
sg18
S'10'
p331
sg20
S'1.0'
p332
sg22
S'11/09'
p333
sg24
S'13.3'
p334
sg26
S'--'
p335
sg28
g68
sg30
S'L7-21'
p336
sg32
S'53'
p337
sg34
g191
sg36
S'@BAL'
p338
sg38
S'20'
p339
sg40
g10
sg42
g68
ssg64
(dp340
g5
S'--'
p341
sg7
S'--'
p342
sg9
g68
sg11
S'--'
p343
sg13
g68
sg14
S'Kendall Wright'
p344
sg16
S'2014'
p345
sg18
S'13'
p346
sg20
S'--'
p347
sg22
S'11/30'
p348
sg24
S'18.9'
p349
sg26
S'--'
p350
sg28
S'--'
p351
sg30
S'L21-45'
p352
sg32
S'132'
p353
sg34
g176
sg36
S'@HOU'
p354
sg38
S'36T'
p355
sg40
g68
sg42
S'--'
p356
ssg84
(dp357
g5
S'--'
p358
sg7
S'--'
p359
sg9
g68
sg11
S'--'
p360
sg13
g68
sg14
S'Kendall Wright'
p361
sg16
S'2014'
p362
sg18
S'12'
p363
sg20
S'--'
p364
sg22
S'11/23'
p365
sg24
S'28.0'
p366
sg26
S'--'
p367
sg28
S'--'
p368
sg30
S'L24-43'
p369
sg32
S'28'
p370
sg34
g68
sg36
S'@PHI'
p371
sg38
S'28'
p372
sg40
g10
sg42
S'--'
p373
ssg100
(dp374
g5
S'--'
p375
sg7
S'--'
p376
sg9
g10
sg11
S'--'
p377
sg13
g10
sg14
S'Kendall Wright'
p378
sg16
S'2014'
p379
sg18
S'15'
p380
sg20
S'--'
p381
sg22
S'12/14'
p382
sg24
S'--'
p383
sg26
S'--'
p384
sg28
S'--'
p385
sg30
S'L11-16'
p386
sg32
S'--'
p387
sg34
S'--'
p388
sg36
S'NYJ'
p389
sg38
S'--'
p390
sg40
S'--'
p391
sg42
S'--'
p392
ssg120
(dp393
g5
S'--'
p394
sg7
S'--'
p395
sg9
g10
sg11
S'--'
p396
sg13
g10
sg14
S'Kendall Wright'
p397
sg16
S'2014'
p398
sg18
S'14'
p399
sg20
S'--'
p400
sg22
S'12/07'
p401
sg24
S'--'
p402
sg26
S'--'
p403
sg28
S'--'
p404
sg30
S'L7-36'
p405
sg32
S'--'
p406
sg34
S'--'
p407
sg36
S'NYG'
p408
sg38
S'--'
p409
sg40
S'--'
p410
sg42
S'--'
p411
ssg140
(dp412
g5
g10
sg7
S'10'
p413
sg9
g10
sg11
S'--'
p414
sg13
g68
sg14
S'Kendall Wright'
p415
sg16
S'2014'
p416
sg18
S'17'
p417
sg20
S'10.0'
p418
sg22
S'12/28'
p419
sg24
S'4.5'
p420
sg26
S'--'
p421
sg28
g68
sg30
S'L10-27'
p422
sg32
g276
sg34
g95
sg36
S'IND'
p423
sg38
S'6T'
p424
sg40
g68
sg42
S'10'
p425
ssg160
(dp426
g5
S'--'
p427
sg7
S'--'
p428
sg9
g68
sg11
S'--'
p429
sg13
g68
sg14
S'Kendall Wright'
p430
sg16
S'2014'
p431
sg18
S'16'
p432
sg20
S'--'
p433
sg22
S'12/18'
p434
sg24
S'18.3'
p435
sg26
S'--'
p436
sg28
S'--'
p437
sg30
S'L13-21'
p438
sg32
S'73'
p439
sg34
g191
sg36
S'@JAC'
p440
sg38
S'39'
p441
sg40
g10
sg42
S'--'
p442
ssg68
(dp443
g5
S'--'
p444
sg7
S'--'
p445
sg9
g68
sg11
S'--'
p446
sg13
g68
sg14
S'Kendall Wright'
p447
sg16
S'2014'
p448
sg18
g68
sg20
S'--'
p449
sg22
S'09/07'
p450
sg24
S'7.7'
p451
sg26
S'--'
p452
sg28
S'--'
p453
sg30
S'W26-10'
p454
sg32
S'46'
p455
sg34
g259
sg36
S'@KC'
p456
sg38
S'14'
p457
sg40
g68
sg42
S'--'
p458
ssg80
(dp459
g5
S'--'
p460
sg7
S'--'
p461
sg9
g68
sg11
S'--'
p462
sg13
g68
sg14
S'Kendall Wright'
p463
sg16
S'2014'
p464
sg18
g80
sg20
S'--'
p465
sg22
S'09/21'
p466
sg24
S'8.8'
p467
sg26
S'--'
p468
sg28
S'--'
p469
sg30
S'L7-33'
p470
sg32
S'44'
p471
sg34
g225
sg36
S'@CIN'
p472
sg38
S'28'
p473
sg40
g10
sg42
S'--'
p474
ssg95
(dp475
g5
S'--'
p476
sg7
S'--'
p477
sg9
g68
sg11
S'--'
p478
sg13
g68
sg14
S'Kendall Wright'
p479
sg16
S'2014'
p480
sg18
g95
sg20
S'--'
p481
sg22
S'09/14'
p482
sg24
S'10.3'
p483
sg26
S'--'
p484
sg28
S'--'
p485
sg30
S'L10-26'
p486
sg32
S'31'
p487
sg34
g80
sg36
S'DAL'
p488
sg38
S'12'
p489
sg40
g10
sg42
S'--'
p490
ssg225
(dp491
g5
g10
sg7
S'43'
p492
sg9
g68
sg11
S'--'
p493
sg13
g68
sg14
S'Kendall Wright'
p494
sg16
S'2014'
p495
sg18
g225
sg20
S'21.5'
p496
sg22
S'10/05'
p497
sg24
S'7.8'
p498
sg26
S'--'
p499
sg28
g95
sg30
S'L28-29'
p500
sg32
S'47'
p501
sg34
g259
sg36
S'CLE'
p502
sg38
S'16'
p503
sg40
g95
sg42
S'38'
p504
ssg191
(dp505
g5
S'--'
p506
sg7
S'--'
p507
sg9
g68
sg11
g68
sg13
g68
sg14
S'Kendall Wright'
p508
sg16
S'2014'
p509
sg18
g191
sg20
S'--'
p510
sg22
S'09/28'
p511
sg24
S'11.0'
p512
sg26
g68
sg28
S'--'
p513
sg30
S'L17-41'
p514
sg32
S'55'
p515
sg34
g225
sg36
S'@IND'
p516
sg38
S'18'
p517
sg40
g10
sg42
S'--'
p518
ssg176
(dp519
g5
S'--'
p520
sg7
S'--'
p521
sg9
g68
sg11
S'--'
p522
sg13
g68
sg14
S'Kendall Wright'
p523
sg16
S'2014'
p524
sg18
g176
sg20
S'--'
p525
sg22
S'10/19'
p526
sg24
S'11.3'
p527
sg26
S'--'
p528
sg28
S'--'
p529
sg30
S'L17-19'
p530
sg32
S'68'
p531
sg34
g259
sg36
S'@WAS'
p532
sg38
S'16'
p533
sg40
g68
sg42
S'--'
p534
ssg259
(dp535
g5
S'--'
p536
sg7
S'--'
p537
sg9
g68
sg11
S'--'
p538
sg13
g68
sg14
S'Kendall Wright'
p539
sg16
S'2014'
p540
sg18
g259
sg20
S'--'
p541
sg22
S'10/12'
p542
sg24
S'6.0'
p543
sg26
S'--'
p544
sg28
S'--'
p545
sg30
S'W16-14'
p546
sg32
g259
sg34
g68
sg36
S'JAC'
p547
sg38
g259
sg40
g10
sg42
S'--'
p548
ssg276
(dp549
g5
g239
sg7
g239
sg9
g239
sg11
g239
sg13
g239
sg14
S'Kendall Wright'
p550
sg16
S'2014'
p551
sg18
g276
sg20
g239
sg22
S'Bye'
p552
sg24
g239
sg26
g239
sg28
g239
sg30
g239
sg32
g239
sg34
g239
sg36
g239
sg38
g239
sg40
g239
sg42
g239
ssg295
(dp553
g5
S'--'
p554
sg7
S'--'
p555
sg9
g10
sg11
S'--'
p556
sg13
g68
sg14
S'Kendall Wright'
p557
sg16
S'2014'
p558
sg18
g295
sg20
S'--'
p559
sg22
S'10/26'
p560
sg24
S'17.7'
p561
sg26
S'--'
p562
sg28
S'--'
p563
sg30
S'L16-30'
p564
sg32
S'53'
p565
sg34
g80
sg36
S'HOU'
p566
sg38
S'48'
p567
sg40
g10
sg42
S'--'
p568
sssS'2013'
p569
(dp570
g3
(dp571
g5
S'--'
p572
sg7
S'--'
p573
sg9
g68
sg11
S'--'
p574
sg13
g68
sg14
S'Kendall Wright'
p575
sg16
S'2013'
p576
sg18
S'11'
p577
sg20
S'--'
p578
sg22
S'11/14'
p579
sg24
S'8.9'
p580
sg26
S'--'
p581
sg28
S'--'
p582
sg30
S'L27-30'
p583
sg32
S'80'
p584
sg34
g276
sg36
S'IND'
p585
sg38
S'17'
p586
sg40
g10
sg42
S'--'
p587
ssg44
(dp588
g5
S'--'
p589
sg7
S'--'
p590
sg9
g68
sg11
g10
sg13
g68
sg14
S'Kendall Wright'
p591
sg16
S'2013'
p592
sg18
S'10'
p593
sg20
S'--'
p594
sg22
S'11/10'
p595
sg24
S'11.1'
p596
sg26
g68
sg28
S'--'
p597
sg30
S'L27-29'
p598
sg32
S'78'
p599
sg34
g176
sg36
S'JAC'
p600
sg38
S'26'
p601
sg40
g10
sg42
S'--'
p602
ssg64
(dp603
g5
S'--'
p604
sg7
S'--'
p605
sg9
g68
sg11
S'--'
p606
sg13
g68
sg14
S'Kendall Wright'
p607
sg16
S'2013'
p608
sg18
S'13'
p609
sg20
S'--'
p610
sg22
S'12/01'
p611
sg24
S'12.8'
p612
sg26
S'--'
p613
sg28
S'--'
p614
sg30
S'L14-22'
p615
sg32
S'77'
p616
sg34
g259
sg36
S'@IND'
p617
sg38
S'35'
p618
sg40
g10
sg42
S'--'
p619
ssg84
(dp620
g5
S'--'
p621
sg7
S'--'
p622
sg9
g68
sg11
S'--'
p623
sg13
g68
sg14
S'Kendall Wright'
p624
sg16
S'2013'
p625
sg18
S'12'
p626
sg20
S'--'
p627
sg22
S'11/24'
p628
sg24
S'17.2'
p629
sg26
S'--'
p630
sg28
S'--'
p631
sg30
S'W23-19'
p632
sg32
S'103'
p633
sg34
g259
sg36
S'@OAK'
p634
sg38
S'31'
p635
sg40
g68
sg42
S'--'
p636
ssg100
(dp637
g5
S'--'
p638
sg7
S'--'
p639
sg9
g68
sg11
S'--'
p640
sg13
g68
sg14
S'Kendall Wright'
p641
sg16
S'2013'
p642
sg18
S'15'
p643
sg20
S'--'
p644
sg22
S'12/15'
p645
sg24
S'12.5'
p646
sg26
S'--'
p647
sg28
S'--'
p648
sg30
S'L34-37'
p649
sg32
S'150'
p650
sg34
S'12'
p651
sg36
S'ARI'
p652
sg38
S'26'
p653
sg40
g10
sg42
S'--'
p654
ssg120
(dp655
g5
S'--'
p656
sg7
S'--'
p657
sg9
g68
sg11
S'--'
p658
sg13
g68
sg14
S'Kendall Wright'
p659
sg16
S'2013'
p660
sg18
S'14'
p661
sg20
S'--'
p662
sg22
S'12/08'
p663
sg24
S'8.5'
p664
sg26
S'--'
p665
sg28
S'--'
p666
sg30
S'L28-51'
p667
sg32
S'17'
p668
sg34
g95
sg36
S'@DEN'
p669
sg38
S'13'
p670
sg40
g10
sg42
S'--'
p671
ssg140
(dp672
g5
S'--'
p673
sg7
S'--'
p674
sg9
g68
sg11
g10
sg13
g68
sg14
S'Kendall Wright'
p675
sg16
S'2013'
p676
sg18
S'17'
p677
sg20
S'--'
p678
sg22
S'12/29'
p679
sg24
S'10.0'
p680
sg26
g68
sg28
S'--'
p681
sg30
S'W16-10'
p682
sg32
S'50'
p683
sg34
g225
sg36
S'HOU'
p684
sg38
S'34'
p685
sg40
g10
sg42
S'--'
p686
ssg160
(dp687
g5
S'--'
p688
sg7
S'--'
p689
sg9
g68
sg11
S'--'
p690
sg13
g68
sg14
S'Kendall Wright'
p691
sg16
S'2013'
p692
sg18
S'16'
p693
sg20
S'--'
p694
sg22
S'12/22'
p695
sg24
S'5.5'
p696
sg26
S'--'
p697
sg28
S'--'
p698
sg30
S'W20-16'
p699
sg32
S'22'
p700
sg34
g191
sg36
S'@JAC'
p701
sg38
S'14'
p702
sg40
g10
sg42
S'--'
p703
ssg68
(dp704
g5
S'--'
p705
sg7
S'--'
p706
sg9
g10
sg11
S'--'
p707
sg13
g68
sg14
S'Kendall Wright'
p708
sg16
S'2013'
p709
sg18
g68
sg20
S'--'
p710
sg22
S'09/08'
p711
sg24
S'5.5'
p712
sg26
S'--'
p713
sg28
S'--'
p714
sg30
S'W16-9'
p715
sg32
S'11'
p716
sg34
g95
sg36
S'@PIT'
p717
sg38
g176
sg40
g10
sg42
S'--'
p718
ssg80
(dp719
g5
S'--'
p720
sg7
S'--'
p721
sg9
g10
sg11
S'--'
p722
sg13
g68
sg14
S'Kendall Wright'
p723
sg16
S'2013'
p724
sg18
g80
sg20
S'--'
p725
sg22
S'09/22'
p726
sg24
S'11.8'
p727
sg26
S'--'
p728
sg28
S'--'
p729
sg30
S'W20-17'
p730
sg32
S'71'
p731
sg34
g259
sg36
S'SD'
p732
sg38
S'19'
p733
sg40
g10
sg42
S'--'
p734
ssg95
(dp735
g5
S'--'
p736
sg7
S'--'
p737
sg9
g10
sg11
S'--'
p738
sg13
g68
sg14
S'Kendall Wright'
p739
sg16
S'2013'
p740
sg18
g95
sg20
S'--'
p741
sg22
S'09/15'
p742
sg24
S'7.7'
p743
sg26
S'--'
p744
sg28
S'--'
p745
sg30
S'L24-30'
p746
sg32
S'54'
p747
sg34
g176
sg36
S'@HOU'
p748
sg38
S'14'
p749
sg40
g68
sg42
S'--'
p750
ssg225
(dp751
g5
S'--'
p752
sg7
S'--'
p753
sg9
g68
sg11
S'--'
p754
sg13
g68
sg14
S'Kendall Wright'
p755
sg16
S'2013'
p756
sg18
g225
sg20
S'--'
p757
sg22
S'10/06'
p758
sg24
S'12.3'
p759
sg26
S'--'
p760
sg28
S'--'
p761
sg30
S'L17-26'
p762
sg32
S'74'
p763
sg34
g259
sg36
S'KC'
p764
sg38
S'24'
p765
sg40
g10
sg42
S'--'
p766
ssg191
(dp767
g5
S'--'
p768
sg7
S'--'
p769
sg9
g68
sg11
S'--'
p770
sg13
g68
sg14
S'Kendall Wright'
p771
sg16
S'2013'
p772
sg18
g191
sg20
S'--'
p773
sg22
S'09/29'
p774
sg24
S'11.2'
p775
sg26
S'--'
p776
sg28
S'--'
p777
sg30
S'W38-13'
p778
sg32
S'56'
p779
sg34
g225
sg36
S'NYJ'
p780
sg38
S'25'
p781
sg40
g10
sg42
S'--'
p782
ssg176
(dp783
g5
S'--'
p784
sg7
S'--'
p785
sg9
g68
sg11
S'--'
p786
sg13
g68
sg14
S'Kendall Wright'
p787
sg16
S'2013'
p788
sg18
g176
sg20
S'--'
p789
sg22
S'10/20'
p790
sg24
S'10.9'
p791
sg26
S'--'
p792
sg28
S'--'
p793
sg30
S'L17-31'
p794
sg32
S'98'
p795
sg34
g276
sg36
S'SF'
p796
sg38
S'21'
p797
sg40
g10
sg42
S'--'
p798
ssg259
(dp799
g5
S'--'
p800
sg7
S'--'
p801
sg9
g10
sg11
S'--'
p802
sg13
g68
sg14
S'Kendall Wright'
p803
sg16
S'2013'
p804
sg18
g259
sg20
S'--'
p805
sg22
S'10/13'
p806
sg24
S'13.8'
p807
sg26
S'--'
p808
sg28
S'--'
p809
sg30
S'L13-20'
p810
sg32
S'69'
p811
sg34
g225
sg36
S'@SEA'
p812
sg38
S'32'
p813
sg40
g10
sg42
S'--'
p814
ssg276
(dp815
g5
S'--'
p816
sg7
S'--'
p817
sg9
g68
sg11
S'--'
p818
sg13
g68
sg14
S'Kendall Wright'
p819
sg16
S'2013'
p820
sg18
g276
sg20
S'--'
p821
sg22
S'11/03'
p822
sg24
S'23.0'
p823
sg26
S'--'
p824
sg28
S'--'
p825
sg30
S'W28-21'
p826
sg32
S'69'
p827
sg34
g80
sg36
S'@STL'
p828
sg38
S'45'
p829
sg40
g10
sg42
S'--'
p830
ssg295
(dp831
g5
g239
sg7
g239
sg9
g239
sg11
g239
sg13
g239
sg14
S'Kendall Wright'
p832
sg16
S'2013'
p833
sg18
g295
sg20
g239
sg22
S'Bye'
p834
sg24
g239
sg26
g239
sg28
g239
sg30
g239
sg32
g239
sg34
g239
sg36
g239
sg38
g239
sg40
g239
sg42
g239
sssS'2012'
p835
(dp836
g3
(dp837
g5
g239
sg7
g239
sg9
g239
sg11
g239
sg13
g239
sg14
S'Kendall Wright'
p838
sg16
S'2012'
p839
sg18
S'11'
p840
sg20
g239
sg22
S'Bye'
p841
sg24
g239
sg26
g239
sg28
g239
sg30
g239
sg32
g239
sg34
g239
sg36
g239
sg38
g239
sg40
g239
sg42
g239
ssg44
(dp842
g5
S'--'
p843
sg7
S'--'
p844
sg9
g10
sg11
S'--'
p845
sg13
g68
sg14
S'Kendall Wright'
p846
sg16
S'2012'
p847
sg18
S'10'
p848
sg20
S'--'
p849
sg22
S'11/11'
p850
sg24
S'9.0'
p851
sg26
S'--'
p852
sg28
S'--'
p853
sg30
S'W37-3'
p854
sg32
g276
sg34
g68
sg36
S'@MIA'
p855
sg38
S'9T'
p856
sg40
g68
sg42
S'--'
p857
ssg64
(dp858
g5
S'--'
p859
sg7
S'--'
p860
sg9
g10
sg11
S'--'
p861
sg13
g68
sg14
S'Kendall Wright'
p862
sg16
S'2012'
p863
sg18
S'13'
p864
sg20
S'--'
p865
sg22
S'12/02'
p866
sg24
S'13.0'
p867
sg26
S'--'
p868
sg28
S'--'
p869
sg30
S'L10-24'
p870
sg32
S'78'
p871
sg34
g259
sg36
S'HOU'
p872
sg38
S'38'
p873
sg40
g10
sg42
S'--'
p874
ssg84
(dp875
g5
g10
sg7
g191
sg9
g10
sg11
S'--'
p876
sg13
g68
sg14
S'Kendall Wright'
p877
sg16
S'2012'
p878
sg18
S'12'
p879
sg20
S'4.0'
p880
sg22
S'11/25'
p881
sg24
S'9.6'
p882
sg26
S'--'
p883
sg28
g68
sg30
S'L19-24'
p884
sg32
S'48'
p885
sg34
g225
sg36
S'@JAC'
p886
sg38
S'23'
p887
sg40
g10
sg42
g191
ssg100
(dp888
g5
S'--'
p889
sg7
S'--'
p890
sg9
g10
sg11
S'--'
p891
sg13
g68
sg14
S'Kendall Wright'
p892
sg16
S'2012'
p893
sg18
S'15'
p894
sg20
S'--'
p895
sg22
S'12/17'
p896
sg24
S'10.3'
p897
sg26
S'--'
p898
sg28
S'--'
p899
sg30
S'W14-10'
p900
sg32
S'31'
p901
sg34
g80
sg36
S'NYJ'
p902
sg38
S'14'
p903
sg40
g10
sg42
S'--'
p904
ssg120
(dp905
g5
S'--'
p906
sg7
S'--'
p907
sg9
g10
sg11
S'--'
p908
sg13
g68
sg14
S'Kendall Wright'
p909
sg16
S'2012'
p910
sg18
S'14'
p911
sg20
S'--'
p912
sg22
S'12/09'
p913
sg24
S'7.8'
p914
sg26
S'--'
p915
sg28
S'--'
p916
sg30
S'L23-27'
p917
sg32
S'39'
p918
sg34
g225
sg36
S'@IND'
p919
sg38
S'14'
p920
sg40
g10
sg42
S'--'
p921
ssg140
(dp922
g5
S'--'
p923
sg7
S'--'
p924
sg9
g10
sg11
S'--'
p925
sg13
g68
sg14
S'Kendall Wright'
p926
sg16
S'2012'
p927
sg18
S'17'
p928
sg20
S'--'
p929
sg22
S'12/30'
p930
sg24
S'20.0'
p931
sg26
S'--'
p932
sg28
S'--'
p933
sg30
S'W38-20'
p934
sg32
S'40'
p935
sg34
g95
sg36
S'JAC'
p936
sg38
S'36'
p937
sg40
g10
sg42
S'--'
p938
ssg160
(dp939
g5
S'--'
p940
sg7
S'--'
p941
sg9
g10
sg11
S'--'
p942
sg13
g10
sg14
S'Kendall Wright'
p943
sg16
S'2012'
p944
sg18
S'16'
p945
sg20
S'--'
p946
sg22
S'12/23'
p947
sg24
S'--'
p948
sg26
S'--'
p949
sg28
S'--'
p950
sg30
S'L7-55'
p951
sg32
S'--'
p952
sg34
S'--'
p953
sg36
S'@GB'
p954
sg38
S'--'
p955
sg40
S'--'
p956
sg42
S'--'
p957
ssg68
(dp958
g5
S'--'
p959
sg7
S'--'
p960
sg9
g10
sg11
S'--'
p961
sg13
g68
sg14
S'Kendall Wright'
p962
sg16
S'2012'
p963
sg18
g68
sg20
S'--'
p964
sg22
S'09/09'
p965
sg24
S'7.4'
p966
sg26
S'--'
p967
sg28
S'--'
p968
sg30
S'L13-34'
p969
sg32
S'37'
p970
sg34
g225
sg36
S'NE'
p971
sg38
S'17'
p972
sg40
g10
sg42
S'--'
p973
ssg80
(dp974
g5
S'--'
p975
sg7
S'--'
p976
sg9
g68
sg11
g68
sg13
g68
sg14
S'Kendall Wright'
p977
sg16
S'2012'
p978
sg18
g80
sg20
S'--'
p979
sg22
S'09/23'
p980
sg24
S'5.9'
p981
sg26
g68
sg28
S'--'
p982
sg30
S'W44-41'
p983
sg32
S'41'
p984
sg34
g176
sg36
S'DET'
p985
sg38
S'17'
p986
sg40
g10
sg42
S'--'
p987
ssg95
(dp988
g5
S'--'
p989
sg7
S'--'
p990
sg9
g68
sg11
S'--'
p991
sg13
g68
sg14
S'Kendall Wright'
p992
sg16
S'2012'
p993
sg18
g95
sg20
S'--'
p994
sg22
S'09/16'
p995
sg24
S'12.0'
p996
sg26
S'--'
p997
sg28
S'--'
p998
sg30
S'L10-38'
p999
sg32
S'24'
p1000
sg34
g95
sg36
S'@SD'
p1001
sg38
S'15T'
p1002
sg40
g68
sg42
S'--'
p1003
ssg225
(dp1004
g5
S'--'
p1005
sg7
S'--'
p1006
sg9
g68
sg11
S'--'
p1007
sg13
g68
sg14
S'Kendall Wright'
p1008
sg16
S'2012'
p1009
sg18
g225
sg20
S'--'
p1010
sg22
S'10/07'
p1011
sg24
S'7.3'
p1012
sg26
S'--'
p1013
sg28
S'--'
p1014
sg30
S'L7-30'
p1015
sg32
S'66'
p1016
sg34
g276
sg36
S'@MIN'
p1017
sg38
S'10'
p1018
sg40
g10
sg42
S'--'
p1019
ssg191
(dp1020
g5
S'--'
p1021
sg7
S'--'
p1022
sg9
g68
sg11
S'--'
p1023
sg13
g68
sg14
S'Kendall Wright'
p1024
sg16
S'2012'
p1025
sg18
g191
sg20
S'--'
p1026
sg22
S'09/30'
p1027
sg24
S'11.5'
p1028
sg26
S'--'
p1029
sg28
S'--'
p1030
sg30
S'L14-38'
p1031
sg32
S'46'
p1032
sg34
g191
sg36
S'@HOU'
p1033
sg38
S'20'
p1034
sg40
g68
sg42
S'--'
p1035
ssg176
(dp1036
g5
S'--'
p1037
sg7
S'--'
p1038
sg9
g10
sg11
S'--'
p1039
sg13
g68
sg14
S'Kendall Wright'
p1040
sg16
S'2012'
p1041
sg18
g176
sg20
S'--'
p1042
sg22
S'10/21'
p1043
sg24
S'6.3'
p1044
sg26
S'--'
p1045
sg28
S'--'
p1046
sg30
S'W35-34'
p1047
sg32
S'19'
p1048
sg34
g80
sg36
S'@BUF'
p1049
sg38
S'11'
p1050
sg40
g10
sg42
S'--'
p1051
ssg259
(dp1052
g5
S'--'
p1053
sg7
S'--'
p1054
sg9
g68
sg11
S'--'
p1055
sg13
g68
sg14
S'Kendall Wright'
p1056
sg16
S'2012'
p1057
sg18
g259
sg20
S'--'
p1058
sg22
S'10/11'
p1059
sg24
S'11.8'
p1060
sg26
S'--'
p1061
sg28
S'--'
p1062
sg30
S'W26-23'
p1063
sg32
S'71'
p1064
sg34
g259
sg36
S'PIT'
p1065
sg38
S'35'
p1066
sg40
g10
sg42
S'--'
p1067
ssg276
(dp1068
g5
S'--'
p1069
sg7
S'--'
p1070
sg9
g10
sg11
S'--'
p1071
sg13
g68
sg14
S'Kendall Wright'
p1072
sg16
S'2012'
p1073
sg18
g276
sg20
S'--'
p1074
sg22
S'11/04'
p1075
sg24
S'15.0'
p1076
sg26
S'--'
p1077
sg28
S'--'
p1078
sg30
S'L20-51'
p1079
sg32
S'30'
p1080
sg34
g95
sg36
S'CHI'
p1081
sg38
S'18'
p1082
sg40
g10
sg42
S'--'
p1083
ssg295
(dp1084
g5
S'--'
p1085
sg7
S'--'
p1086
sg9
g10
sg11
S'--'
p1087
sg13
g68
sg14
S'Kendall Wright'
p1088
sg16
S'2012'
p1089
sg18
g295
sg20
S'--'
p1090
sg22
S'10/28'
p1091
sg24
S'11.8'
p1092
sg26
S'--'
p1093
sg28
S'--'
p1094
sg30
S'L13-19'
p1095
sg32
S'47'
p1096
sg34
g191
sg36
S'IND'
p1097
sg38
S'23T'
p1098
sg40
g68
sg42
S'--'
p1099
sss.