(dp0
S'2015'
p1
(dp2
S'11'
p3
(dp4
S'RushTD'
p5
S'--'
p6
sS'RushYds'
p7
S'--'
p8
sS'GS'
p9
S'1'
p10
sS'Lost'
p11
S'--'
p12
sS'G'
p13
g10
sS'Player'
p14
S'Kenny Stills'
p15
sS'Year'
p16
S'2015'
p17
sS'WK'
p18
S'11'
p19
sS'RushAvg'
p20
S'--'
p21
sS'Game Date'
p22
S'11/22'
p23
sS'RecAvg'
p24
S'26.0'
p25
sS'FUM'
p26
S'--'
p27
sS'RushAtt'
p28
S'--'
p29
sS'Result'
p30
S'L14-24'
p31
sS'RecYds'
p32
S'52'
p33
sS'Rec'
p34
S'2'
p35
sS'Opp'
p36
S'DAL'
p37
sS'RecLng'
p38
S'29T'
p39
sS'RecTD'
p40
g10
sS'RushLng'
p41
S'--'
p42
ssS'10'
p43
(dp44
g5
S'--'
p45
sg7
S'--'
p46
sg9
S'0'
p47
sg11
S'--'
p48
sg13
g10
sg14
S'Kenny Stills'
p49
sg16
S'2015'
p50
sg18
S'10'
p51
sg20
S'--'
p52
sg22
S'11/15'
p53
sg24
S'--'
p54
sg26
S'--'
p55
sg28
S'--'
p56
sg30
S'W20-19'
p57
sg32
g47
sg34
g47
sg36
S'@PHI'
p58
sg38
S'--'
p59
sg40
g47
sg41
S'--'
p60
ssS'13'
p61
(dp62
g5
S'--'
p63
sg7
S'--'
p64
sg9
g10
sg11
S'--'
p65
sg13
g10
sg14
S'Kenny Stills'
p66
sg16
S'2015'
p67
sg18
S'13'
p68
sg20
S'--'
p69
sg22
S'12/06'
p70
sg24
S'--'
p71
sg26
S'--'
p72
sg28
S'--'
p73
sg30
S'W15-13'
p74
sg32
g47
sg34
g47
sg36
S'BAL'
p75
sg38
S'--'
p76
sg40
g47
sg41
S'--'
p77
ssS'12'
p78
(dp79
g5
S'--'
p80
sg7
S'--'
p81
sg9
g10
sg11
S'--'
p82
sg13
g10
sg14
S'Kenny Stills'
p83
sg16
S'2015'
p84
sg18
S'12'
p85
sg20
S'--'
p86
sg22
S'11/29'
p87
sg24
S'6.0'
p88
sg26
S'--'
p89
sg28
S'--'
p90
sg30
S'L20-38'
p91
sg32
S'12'
p92
sg34
g35
sg36
S'@NYJ'
p93
sg38
S'7'
p94
sg40
g47
sg41
S'--'
p95
ssS'15'
p96
(dp97
g5
S'--'
p98
sg7
S'--'
p99
sg9
g47
sg11
S'--'
p100
sg13
g10
sg14
S'Kenny Stills'
p101
sg16
S'2015'
p102
sg18
S'15'
p103
sg20
S'--'
p104
sg22
S'12/20'
p105
sg24
S'23.0'
p106
sg26
S'--'
p107
sg28
S'--'
p108
sg30
S'L14-30'
p109
sg32
S'23'
p110
sg34
g10
sg36
S'@SD'
p111
sg38
S'23'
p112
sg40
g47
sg41
S'--'
p113
ssS'14'
p114
(dp115
g5
S'--'
p116
sg7
S'--'
p117
sg9
g47
sg11
S'--'
p118
sg13
g10
sg14
S'Kenny Stills'
p119
sg16
S'2015'
p120
sg18
S'14'
p121
sg20
S'--'
p122
sg22
S'12/14'
p123
sg24
S'24.5'
p124
sg26
S'--'
p125
sg28
S'--'
p126
sg30
S'L24-31'
p127
sg32
S'49'
p128
sg34
g35
sg36
S'NYG'
p129
sg38
S'47T'
p130
sg40
g10
sg41
S'--'
p131
ssS'17'
p132
(dp133
g5
S'--'
p134
sg7
S'--'
p135
sg9
g10
sg11
S'--'
p136
sg13
g10
sg14
S'Kenny Stills'
p137
sg16
S'2015'
p138
sg18
S'17'
p139
sg20
S'--'
p140
sg22
S'01/03'
p141
sg24
S'11.0'
p142
sg26
S'--'
p143
sg28
S'--'
p144
sg30
S'W20-10'
p145
sg32
S'11'
p146
sg34
g10
sg36
S'NE'
p147
sg38
S'11'
p148
sg40
g47
sg41
S'--'
p149
ssS'16'
p150
(dp151
g5
S'--'
p152
sg7
S'--'
p153
sg9
g47
sg11
S'--'
p154
sg13
g10
sg14
S'Kenny Stills'
p155
sg16
S'2015'
p156
sg18
S'16'
p157
sg20
S'--'
p158
sg22
S'12/27'
p159
sg24
S'4.7'
p160
sg26
S'--'
p161
sg28
S'--'
p162
sg30
S'L12-18'
p163
sg32
S'14'
p164
sg34
S'3'
p165
sg36
S'IND'
p166
sg38
S'9'
p167
sg40
g47
sg41
S'--'
p168
ssg10
(dp169
g5
S'--'
p170
sg7
S'--'
p171
sg9
g47
sg11
S'--'
p172
sg13
g10
sg14
S'Kenny Stills'
p173
sg16
S'2015'
p174
sg18
g10
sg20
S'--'
p175
sg22
S'09/13'
p176
sg24
S'12.0'
p177
sg26
S'--'
p178
sg28
S'--'
p179
sg30
S'W17-10'
p180
sg32
S'12'
p181
sg34
g10
sg36
S'@WAS'
p182
sg38
S'12'
p183
sg40
g47
sg41
S'--'
p184
ssg165
(dp185
g5
S'--'
p186
sg7
S'--'
p187
sg9
g47
sg11
S'--'
p188
sg13
g10
sg14
S'Kenny Stills'
p189
sg16
S'2015'
p190
sg18
g165
sg20
S'--'
p191
sg22
S'09/27'
p192
sg24
S'--'
p193
sg26
S'--'
p194
sg28
S'--'
p195
sg30
S'L14-41'
p196
sg32
g47
sg34
g47
sg36
S'BUF'
p197
sg38
S'--'
p198
sg40
g47
sg41
S'--'
p199
ssg35
(dp200
g5
S'--'
p201
sg7
S'--'
p202
sg9
g47
sg11
S'--'
p203
sg13
g10
sg14
S'Kenny Stills'
p204
sg16
S'2015'
p205
sg18
g35
sg20
S'--'
p206
sg22
S'09/20'
p207
sg24
S'4.0'
p208
sg26
S'--'
p209
sg28
S'--'
p210
sg30
S'L20-23'
p211
sg32
S'8'
p212
sg34
g35
sg36
S'@JAC'
p213
sg38
g212
sg40
g47
sg41
S'--'
p214
ssS'5'
p215
(dp216
g5
S''
p217
sg7
g217
sg9
g217
sg11
g217
sg13
g217
sg14
S'Kenny Stills'
p218
sg16
S'2015'
p219
sg18
g215
sg20
g217
sg22
S'Bye'
p220
sg24
g217
sg26
g217
sg28
g217
sg30
g217
sg32
g217
sg34
g217
sg36
g217
sg38
g217
sg40
g217
sg41
g217
ssS'4'
p221
(dp222
g5
S'--'
p223
sg7
S'--'
p224
sg9
g47
sg11
S'--'
p225
sg13
g10
sg14
S'Kenny Stills'
p226
sg16
S'2015'
p227
sg18
g221
sg20
S'--'
p228
sg22
S'10/04'
p229
sg24
S'16.2'
p230
sg26
S'--'
p231
sg28
S'--'
p232
sg30
S'L14-27'
p233
sg32
S'81'
p234
sg34
g215
sg36
S'NYJ'
p235
sg38
S'42'
p236
sg40
g10
sg41
S'--'
p237
ssg94
(dp238
g5
S'--'
p239
sg7
S'--'
p240
sg9
g10
sg11
S'--'
p241
sg13
g10
sg14
S'Kenny Stills'
p242
sg16
S'2015'
p243
sg18
g94
sg20
S'--'
p244
sg22
S'10/25'
p245
sg24
S'--'
p246
sg26
S'--'
p247
sg28
S'--'
p248
sg30
S'W44-26'
p249
sg32
S'--'
p250
sg34
S'--'
p251
sg36
S'HOU'
p252
sg38
S'--'
p253
sg40
S'--'
p254
sg41
S'--'
p255
ssS'6'
p256
(dp257
g5
S'--'
p258
sg7
S'--'
p259
sg9
g10
sg11
S'--'
p260
sg13
g10
sg14
S'Kenny Stills'
p261
sg16
S'2015'
p262
sg18
g256
sg20
S'--'
p263
sg22
S'10/18'
p264
sg24
S'23.0'
p265
sg26
S'--'
p266
sg28
S'--'
p267
sg30
S'W38-10'
p268
sg32
S'46'
p269
sg34
g35
sg36
S'@TEN'
p270
sg38
S'38'
p271
sg40
g47
sg41
S'--'
p272
ssg167
(dp273
g5
S'--'
p274
sg7
S'--'
p275
sg9
g10
sg11
S'--'
p276
sg13
g10
sg14
S'Kenny Stills'
p277
sg16
S'2015'
p278
sg18
g167
sg20
S'--'
p279
sg22
S'11/08'
p280
sg24
S'24.7'
p281
sg26
S'--'
p282
sg28
S'--'
p283
sg30
S'L17-33'
p284
sg32
S'74'
p285
sg34
g165
sg36
S'@BUF'
p286
sg38
S'46'
p287
sg40
g47
sg41
S'--'
p288
ssg212
(dp289
g5
S'--'
p290
sg7
S'--'
p291
sg9
g10
sg11
S'--'
p292
sg13
g10
sg14
S'Kenny Stills'
p293
sg16
S'2015'
p294
sg18
g212
sg20
S'--'
p295
sg22
S'10/29'
p296
sg24
S'19.3'
p297
sg26
S'--'
p298
sg28
S'--'
p299
sg30
S'L7-36'
p300
sg32
S'58'
p301
sg34
g165
sg36
S'@NE'
p302
sg38
S'25'
p303
sg40
g47
sg41
S'--'
p304
sssS'2014'
p305
(dp306
g3
(dp307
g5
S'--'
p308
sg7
S'--'
p309
sg9
g10
sg11
S'--'
p310
sg13
g10
sg14
S'Kenny Stills'
p311
sg16
S'2014'
p312
sg18
S'11'
p313
sg20
S'--'
p314
sg22
S'11/16'
p315
sg24
S'8.0'
p316
sg26
S'--'
p317
sg28
S'--'
p318
sg30
S'L10-27'
p319
sg32
S'32'
p320
sg34
g221
sg36
S'CIN'
p321
sg38
S'16'
p322
sg40
g10
sg41
S'--'
p323
ssg43
(dp324
g5
S'--'
p325
sg7
S'--'
p326
sg9
g10
sg11
S'--'
p327
sg13
g10
sg14
S'Kenny Stills'
p328
sg16
S'2014'
p329
sg18
S'10'
p330
sg20
S'--'
p331
sg22
S'11/09'
p332
sg24
S'8.7'
p333
sg26
S'--'
p334
sg28
S'--'
p335
sg30
S'L24-27'
p336
sg32
S'26'
p337
sg34
g165
sg36
S'SF'
p338
sg38
S'16'
p339
sg40
g47
sg41
S'--'
p340
ssg61
(dp341
g5
S'--'
p342
sg7
S'--'
p343
sg9
g47
sg11
S'--'
p344
sg13
g10
sg14
S'Kenny Stills'
p345
sg16
S'2014'
p346
sg18
S'13'
p347
sg20
S'--'
p348
sg22
S'11/30'
p349
sg24
S'32.4'
p350
sg26
S'--'
p351
sg28
S'--'
p352
sg30
S'W35-32'
p353
sg32
S'162'
p354
sg34
g215
sg36
S'@PIT'
p355
sg38
S'69T'
p356
sg40
g10
sg41
S'--'
p357
ssg78
(dp358
g5
g47
sg7
S'-2'
p359
sg9
g10
sg11
S'--'
p360
sg13
g10
sg14
S'Kenny Stills'
p361
sg16
S'2014'
p362
sg18
S'12'
p363
sg20
S'-2.0'
p364
sg22
S'11/24'
p365
sg24
S'12.3'
p366
sg26
S'--'
p367
sg28
g10
sg30
S'L27-34'
p368
sg32
S'98'
p369
sg34
g212
sg36
S'BAL'
p370
sg38
S'33'
p371
sg40
g47
sg41
S'-2'
p372
ssg96
(dp373
g5
S'--'
p374
sg7
S'--'
p375
sg9
g10
sg11
S'--'
p376
sg13
g10
sg14
S'Kenny Stills'
p377
sg16
S'2014'
p378
sg18
S'15'
p379
sg20
S'--'
p380
sg22
S'12/15'
p381
sg24
S'13.4'
p382
sg26
S'--'
p383
sg28
S'--'
p384
sg30
S'W31-15'
p385
sg32
S'67'
p386
sg34
g215
sg36
S'@CHI'
p387
sg38
S'21'
p388
sg40
g47
sg41
S'--'
p389
ssg114
(dp390
g5
S'--'
p391
sg7
S'--'
p392
sg9
g47
sg11
S'--'
p393
sg13
g10
sg14
S'Kenny Stills'
p394
sg16
S'2014'
p395
sg18
S'14'
p396
sg20
S'--'
p397
sg22
S'12/07'
p398
sg24
S'7.7'
p399
sg26
S'--'
p400
sg28
S'--'
p401
sg30
S'L10-41'
p402
sg32
S'23'
p403
sg34
g165
sg36
S'CAR'
p404
sg38
S'14'
p405
sg40
g47
sg41
S'--'
p406
ssg132
(dp407
g5
S'--'
p408
sg7
S'--'
p409
sg9
g47
sg11
S'--'
p410
sg13
g10
sg14
S'Kenny Stills'
p411
sg16
S'2014'
p412
sg18
S'17'
p413
sg20
S'--'
p414
sg22
S'12/28'
p415
sg24
S'16.4'
p416
sg26
S'--'
p417
sg28
S'--'
p418
sg30
S'W23-20'
p419
sg32
S'82'
p420
sg34
g215
sg36
S'@TB'
p421
sg38
S'44'
p422
sg40
g47
sg41
S'--'
p423
ssg150
(dp424
g5
S'--'
p425
sg7
S'--'
p426
sg9
g47
sg11
S'--'
p427
sg13
g10
sg14
S'Kenny Stills'
p428
sg16
S'2014'
p429
sg18
S'16'
p430
sg20
S'--'
p431
sg22
S'12/21'
p432
sg24
S'11.3'
p433
sg26
S'--'
p434
sg28
S'--'
p435
sg30
S'L14-30'
p436
sg32
S'68'
p437
sg34
g256
sg36
S'ATL'
p438
sg38
S'22'
p439
sg40
g47
sg41
S'--'
p440
ssg10
(dp441
g5
S'--'
p442
sg7
S'--'
p443
sg9
g47
sg11
S'--'
p444
sg13
g47
sg14
S'Kenny Stills'
p445
sg16
S'2014'
p446
sg18
g10
sg20
S'--'
p447
sg22
S'09/07'
p448
sg24
S'--'
p449
sg26
S'--'
p450
sg28
S'--'
p451
sg30
S'L34-37'
p452
sg32
S'--'
p453
sg34
S'--'
p454
sg36
S'@ATL'
p455
sg38
S'--'
p456
sg40
S'--'
p457
sg41
S'--'
p458
ssg165
(dp459
g5
S'--'
p460
sg7
S'--'
p461
sg9
g10
sg11
S'--'
p462
sg13
g10
sg14
S'Kenny Stills'
p463
sg16
S'2014'
p464
sg18
g165
sg20
S'--'
p465
sg22
S'09/21'
p466
sg24
S'9.5'
p467
sg26
S'--'
p468
sg28
S'--'
p469
sg30
S'W20-9'
p470
sg32
S'38'
p471
sg34
g221
sg36
S'MIN'
p472
sg38
S'15'
p473
sg40
g47
sg41
S'--'
p474
ssg35
(dp475
g5
S'--'
p476
sg7
S'--'
p477
sg9
g10
sg11
S'--'
p478
sg13
g10
sg14
S'Kenny Stills'
p479
sg16
S'2014'
p480
sg18
g35
sg20
S'--'
p481
sg22
S'09/14'
p482
sg24
S'8.3'
p483
sg26
S'--'
p484
sg28
S'--'
p485
sg30
S'L24-26'
p486
sg32
S'25'
p487
sg34
g165
sg36
S'@CLE'
p488
sg38
S'14'
p489
sg40
g47
sg41
S'--'
p490
ssg215
(dp491
g5
S'--'
p492
sg7
S'--'
p493
sg9
g47
sg11
S'--'
p494
sg13
g10
sg14
S'Kenny Stills'
p495
sg16
S'2014'
p496
sg18
g215
sg20
S'--'
p497
sg22
S'10/05'
p498
sg24
S'16.0'
p499
sg26
S'--'
p500
sg28
S'--'
p501
sg30
S'W37-31'
p502
sg32
S'16'
p503
sg34
g10
sg36
S'TB'
p504
sg38
S'16'
p505
sg40
g47
sg41
S'--'
p506
ssg221
(dp507
g5
S'--'
p508
sg7
S'--'
p509
sg9
g10
sg11
S'--'
p510
sg13
g10
sg14
S'Kenny Stills'
p511
sg16
S'2014'
p512
sg18
g221
sg20
S'--'
p513
sg22
S'09/28'
p514
sg24
S'31.0'
p515
sg26
S'--'
p516
sg28
S'--'
p517
sg30
S'L17-38'
p518
sg32
S'62'
p519
sg34
g35
sg36
S'@DAL'
p520
sg38
S'46'
p521
sg40
g47
sg41
S'--'
p522
ssg94
(dp523
g5
S'--'
p524
sg7
S'--'
p525
sg9
g47
sg11
S'--'
p526
sg13
g10
sg14
S'Kenny Stills'
p527
sg16
S'2014'
p528
sg18
g94
sg20
S'--'
p529
sg22
S'10/19'
p530
sg24
S'20.6'
p531
sg26
S'--'
p532
sg28
S'--'
p533
sg30
S'L23-24'
p534
sg32
S'103'
p535
sg34
g215
sg36
S'@DET'
p536
sg38
S'46T'
p537
sg40
g10
sg41
S'--'
p538
ssg256
(dp539
g5
g217
sg7
g217
sg9
g217
sg11
g217
sg13
g217
sg14
S'Kenny Stills'
p540
sg16
S'2014'
p541
sg18
g256
sg20
g217
sg22
S'Bye'
p542
sg24
g217
sg26
g217
sg28
g217
sg30
g217
sg32
g217
sg34
g217
sg36
g217
sg38
g217
sg40
g217
sg41
g217
ssg167
(dp543
g5
S'--'
p544
sg7
S'--'
p545
sg9
g47
sg11
g47
sg13
g10
sg14
S'Kenny Stills'
p546
sg16
S'2014'
p547
sg18
g167
sg20
S'--'
p548
sg22
S'10/30'
p549
sg24
S'14.4'
p550
sg26
g10
sg28
S'--'
p551
sg30
S'W28-10'
p552
sg32
S'72'
p553
sg34
g215
sg36
S'@CAR'
p554
sg38
S'18'
p555
sg40
g47
sg41
S'--'
p556
ssg212
(dp557
g5
S'--'
p558
sg7
S'--'
p559
sg9
g47
sg11
S'--'
p560
sg13
g10
sg14
S'Kenny Stills'
p561
sg16
S'2014'
p562
sg18
g212
sg20
S'--'
p563
sg22
S'10/26'
p564
sg24
S'14.3'
p565
sg26
S'--'
p566
sg28
S'--'
p567
sg30
S'W44-23'
p568
sg32
S'57'
p569
sg34
g221
sg36
S'GB'
p570
sg38
S'45'
p571
sg40
g47
sg41
S'--'
p572
sssS'2013'
p573
(dp574
g3
(dp575
g5
S'--'
p576
sg7
S'--'
p577
sg9
g47
sg11
S'--'
p578
sg13
g10
sg14
S'Kenny Stills'
p579
sg16
S'2013'
p580
sg18
S'11'
p581
sg20
S'--'
p582
sg22
S'11/17'
p583
sg24
S'11.0'
p584
sg26
S'--'
p585
sg28
S'--'
p586
sg30
S'W23-20'
p587
sg32
S'11'
p588
sg34
g10
sg36
S'SF'
p589
sg38
S'11'
p590
sg40
g47
sg41
S'--'
p591
ssg43
(dp592
g5
S'--'
p593
sg7
S'--'
p594
sg9
g10
sg11
S'--'
p595
sg13
g10
sg14
S'Kenny Stills'
p596
sg16
S'2013'
p597
sg18
S'10'
p598
sg20
S'--'
p599
sg22
S'11/10'
p600
sg24
S'25.0'
p601
sg26
S'--'
p602
sg28
S'--'
p603
sg30
S'W49-17'
p604
sg32
S'75'
p605
sg34
g165
sg36
S'DAL'
p606
sg38
S'52T'
p607
sg40
g10
sg41
S'--'
p608
ssg61
(dp609
g5
S'--'
p610
sg7
S'--'
p611
sg9
g10
sg11
S'--'
p612
sg13
g10
sg14
S'Kenny Stills'
p613
sg16
S'2013'
p614
sg18
S'13'
p615
sg20
S'--'
p616
sg22
S'12/02'
p617
sg24
S'3.0'
p618
sg26
S'--'
p619
sg28
S'--'
p620
sg30
S'L7-34'
p621
sg32
g165
sg34
g10
sg36
S'@SEA'
p622
sg38
g165
sg40
g47
sg41
S'--'
p623
ssg78
(dp624
g5
S'--'
p625
sg7
S'--'
p626
sg9
g10
sg11
S'--'
p627
sg13
g10
sg14
S'Kenny Stills'
p628
sg16
S'2013'
p629
sg18
S'12'
p630
sg20
S'--'
p631
sg22
S'11/21'
p632
sg24
S'11.0'
p633
sg26
S'--'
p634
sg28
S'--'
p635
sg30
S'W17-13'
p636
sg32
S'22'
p637
sg34
g35
sg36
S'@ATL'
p638
sg38
S'16'
p639
sg40
g47
sg41
S'--'
p640
ssg96
(dp641
g5
g47
sg7
g165
sg9
g10
sg11
S'--'
p642
sg13
g10
sg14
S'Kenny Stills'
p643
sg16
S'2013'
p644
sg18
S'15'
p645
sg20
S'3.0'
p646
sg22
S'12/15'
p647
sg24
S'11.8'
p648
sg26
S'--'
p649
sg28
g10
sg30
S'L16-27'
p650
sg32
S'47'
p651
sg34
g221
sg36
S'@STL'
p652
sg38
S'20'
p653
sg40
g47
sg41
g165
ssg114
(dp654
g5
S'--'
p655
sg7
S'--'
p656
sg9
g10
sg11
S'--'
p657
sg13
g10
sg14
S'Kenny Stills'
p658
sg16
S'2013'
p659
sg18
S'14'
p660
sg20
S'--'
p661
sg22
S'12/08'
p662
sg24
S'11.0'
p663
sg26
S'--'
p664
sg28
S'--'
p665
sg30
S'W31-13'
p666
sg32
S'22'
p667
sg34
g35
sg36
S'CAR'
p668
sg38
S'14'
p669
sg40
g47
sg41
S'--'
p670
ssg132
(dp671
g5
S'--'
p672
sg7
S'--'
p673
sg9
g47
sg11
S'--'
p674
sg13
g10
sg14
S'Kenny Stills'
p675
sg16
S'2013'
p676
sg18
S'17'
p677
sg20
S'--'
p678
sg22
S'12/29'
p679
sg24
S'76.0'
p680
sg26
S'--'
p681
sg28
S'--'
p682
sg30
S'W42-17'
p683
sg32
S'76'
p684
sg34
g10
sg36
S'TB'
p685
sg38
S'76T'
p686
sg40
g10
sg41
S'--'
p687
ssg150
(dp688
g5
g47
sg7
g165
sg9
g10
sg11
S'--'
p689
sg13
g10
sg14
S'Kenny Stills'
p690
sg16
S'2013'
p691
sg18
S'16'
p692
sg20
S'3.0'
p693
sg22
S'12/22'
p694
sg24
S'11.5'
p695
sg26
S'--'
p696
sg28
g10
sg30
S'L13-17'
p697
sg32
S'23'
p698
sg34
g35
sg36
S'@CAR'
p699
sg38
S'19'
p700
sg40
g47
sg41
g165
ssg10
(dp701
g5
S'--'
p702
sg7
S'--'
p703
sg9
g47
sg11
S'--'
p704
sg13
g10
sg14
S'Kenny Stills'
p705
sg16
S'2013'
p706
sg18
g10
sg20
S'--'
p707
sg22
S'09/08'
p708
sg24
S'43.0'
p709
sg26
S'--'
p710
sg28
S'--'
p711
sg30
S'W23-17'
p712
sg32
S'86'
p713
sg34
g35
sg36
S'ATL'
p714
sg38
S'67'
p715
sg40
g47
sg41
S'--'
p716
ssg165
(dp717
g5
S'--'
p718
sg7
S'--'
p719
sg9
g10
sg11
S'--'
p720
sg13
g10
sg14
S'Kenny Stills'
p721
sg16
S'2013'
p722
sg18
g165
sg20
S'--'
p723
sg22
S'09/22'
p724
sg24
S'--'
p725
sg26
S'--'
p726
sg28
S'--'
p727
sg30
S'W31-7'
p728
sg32
g47
sg34
g47
sg36
S'ARI'
p729
sg38
S'--'
p730
sg40
g47
sg41
S'--'
p731
ssg35
(dp732
g5
S'--'
p733
sg7
S'--'
p734
sg9
g10
sg11
S'--'
p735
sg13
g10
sg14
S'Kenny Stills'
p736
sg16
S'2013'
p737
sg18
g35
sg20
S'--'
p738
sg22
S'09/15'
p739
sg24
S'10.0'
p740
sg26
S'--'
p741
sg28
S'--'
p742
sg30
S'W16-14'
p743
sg32
S'10'
p744
sg34
g10
sg36
S'@TB'
p745
sg38
S'10'
p746
sg40
g47
sg41
S'--'
p747
ssg215
(dp748
g5
S'--'
p749
sg7
S'--'
p750
sg9
g47
sg11
S'--'
p751
sg13
g10
sg14
S'Kenny Stills'
p752
sg16
S'2013'
p753
sg18
g215
sg20
S'--'
p754
sg22
S'10/06'
p755
sg24
S'--'
p756
sg26
S'--'
p757
sg28
S'--'
p758
sg30
S'W26-18'
p759
sg32
g47
sg34
g47
sg36
S'@CHI'
p760
sg38
S'--'
p761
sg40
g47
sg41
S'--'
p762
ssg221
(dp763
g5
S'--'
p764
sg7
S'--'
p765
sg9
g47
sg11
S'--'
p766
sg13
g10
sg14
S'Kenny Stills'
p767
sg16
S'2013'
p768
sg18
g221
sg20
S'--'
p769
sg22
S'09/30'
p770
sg24
S'9.5'
p771
sg26
S'--'
p772
sg28
S'--'
p773
sg30
S'W38-17'
p774
sg32
S'38'
p775
sg34
g221
sg36
S'MIA'
p776
sg38
S'18'
p777
sg40
g47
sg41
S'--'
p778
ssg94
(dp779
g5
g217
sg7
g217
sg9
g217
sg11
g217
sg13
g217
sg14
S'Kenny Stills'
p780
sg16
S'2013'
p781
sg18
g94
sg20
g217
sg22
S'Bye'
p782
sg24
g217
sg26
g217
sg28
g217
sg30
g217
sg32
g217
sg34
g217
sg36
g217
sg38
g217
sg40
g217
sg41
g217
ssg256
(dp783
g5
S'--'
p784
sg7
S'--'
p785
sg9
g10
sg11
S'--'
p786
sg13
g10
sg14
S'Kenny Stills'
p787
sg16
S'2013'
p788
sg18
g256
sg20
S'--'
p789
sg22
S'10/13'
p790
sg24
S'21.3'
p791
sg26
S'--'
p792
sg28
S'--'
p793
sg30
S'L27-30'
p794
sg32
S'64'
p795
sg34
g165
sg36
S'@NE'
p796
sg38
S'34T'
p797
sg40
g10
sg41
S'--'
p798
ssg167
(dp799
g5
S'--'
p800
sg7
S'--'
p801
sg9
g47
sg11
S'--'
p802
sg13
g10
sg14
S'Kenny Stills'
p803
sg16
S'2013'
p804
sg18
g167
sg20
S'--'
p805
sg22
S'11/03'
p806
sg24
S'11.7'
p807
sg26
S'--'
p808
sg28
S'--'
p809
sg30
S'L20-26'
p810
sg32
S'35'
p811
sg34
g165
sg36
S'@NYJ'
p812
sg38
S'19'
p813
sg40
g47
sg41
S'--'
p814
ssg212
(dp815
g5
g47
sg7
g221
sg9
g10
sg11
S'--'
p816
sg13
g10
sg14
S'Kenny Stills'
p817
sg16
S'2013'
p818
sg18
g212
sg20
S'4.0'
p819
sg22
S'10/27'
p820
sg24
S'43.0'
p821
sg26
S'--'
p822
sg28
g10
sg30
S'W35-17'
p823
sg32
S'129'
p824
sg34
g165
sg36
S'BUF'
p825
sg38
S'69T'
p826
sg40
g35
sg41
g221
sss.