(dp0
S'2015'
p1
(dp2
S'11'
p3
(dp4
S'RushTD'
p5
S'--'
p6
sS'RushYds'
p7
S'--'
p8
sS'GS'
p9
S'0'
p10
sS'Lost'
p11
S'--'
p12
sS'G'
p13
g10
sS'Player'
p14
S'Keshawn Martin'
p15
sS'Year'
p16
S'2015'
p17
sS'WK'
p18
S'11'
p19
sS'RushAvg'
p20
S'--'
p21
sS'Game Date'
p22
S'11/23'
p23
sS'RecAvg'
p24
S'--'
p25
sS'FUM'
p26
S'--'
p27
sS'RushAtt'
p28
S'--'
p29
sS'Result'
p30
S'W20-13'
p31
sS'RecYds'
p32
S'--'
p33
sS'Rec'
p34
S'--'
p35
sS'Opp'
p36
S'BUF'
p37
sS'RecLng'
p38
S'--'
p39
sS'RecTD'
p40
S'--'
p41
sS'RushLng'
p42
S'--'
p43
ssS'10'
p44
(dp45
g5
S'--'
p46
sg7
S'--'
p47
sg9
g10
sg11
S'--'
p48
sg13
g10
sg14
S'Keshawn Martin'
p49
sg16
S'2015'
p50
sg18
S'10'
p51
sg20
S'--'
p52
sg22
S'11/15'
p53
sg24
S'--'
p54
sg26
S'--'
p55
sg28
S'--'
p56
sg30
S'W27-26'
p57
sg32
S'--'
p58
sg34
S'--'
p59
sg36
S'@NYG'
p60
sg38
S'--'
p61
sg40
S'--'
p62
sg42
S'--'
p63
ssS'13'
p64
(dp65
g5
S'--'
p66
sg7
S'--'
p67
sg9
S'1'
p68
sg11
S'--'
p69
sg13
g68
sg14
S'Keshawn Martin'
p70
sg16
S'2015'
p71
sg18
S'13'
p72
sg20
S'--'
p73
sg22
S'12/06'
p74
sg24
S'15.0'
p75
sg26
S'--'
p76
sg28
S'--'
p77
sg30
S'L28-35'
p78
sg32
S'45'
p79
sg34
S'3'
p80
sg36
S'PHI'
p81
sg38
S'19'
p82
sg40
g10
sg42
S'--'
p83
ssS'12'
p84
(dp85
g5
S'--'
p86
sg7
S'--'
p87
sg9
g68
sg11
S'--'
p88
sg13
g68
sg14
S'Keshawn Martin'
p89
sg16
S'2015'
p90
sg18
S'12'
p91
sg20
S'--'
p92
sg22
S'11/29'
p93
sg24
S'8.0'
p94
sg26
S'--'
p95
sg28
S'--'
p96
sg30
S'L24-30'
p97
sg32
S'8'
p98
sg34
g68
sg36
S'@DEN'
p99
sg38
g98
sg40
g10
sg42
S'--'
p100
ssS'15'
p101
(dp102
g5
S'--'
p103
sg7
S'--'
p104
sg9
g68
sg11
S'--'
p105
sg13
g68
sg14
S'Keshawn Martin'
p106
sg16
S'2015'
p107
sg18
S'15'
p108
sg20
S'--'
p109
sg22
S'12/20'
p110
sg24
S'8.7'
p111
sg26
S'--'
p112
sg28
S'--'
p113
sg30
S'W33-16'
p114
sg32
S'26'
p115
sg34
g80
sg36
S'TEN'
p116
sg38
S'11'
p117
sg40
g10
sg42
S'--'
p118
ssS'14'
p119
(dp120
g5
S'--'
p121
sg7
S'--'
p122
sg9
g68
sg11
g68
sg13
g68
sg14
S'Keshawn Martin'
p123
sg16
S'2015'
p124
sg18
S'14'
p125
sg20
S'--'
p126
sg22
S'12/13'
p127
sg24
S'7.7'
p128
sg26
g68
sg28
S'--'
p129
sg30
S'W27-6'
p130
sg32
S'23'
p131
sg34
g80
sg36
S'@HOU'
p132
sg38
S'13'
p133
sg40
g68
sg42
S'--'
p134
ssS'17'
p135
(dp136
g5
S'--'
p137
sg7
S'--'
p138
sg9
g68
sg11
S'--'
p139
sg13
g68
sg14
S'Keshawn Martin'
p140
sg16
S'2015'
p141
sg18
S'17'
p142
sg20
S'--'
p143
sg22
S'01/03'
p144
sg24
S'4.0'
p145
sg26
S'--'
p146
sg28
S'--'
p147
sg30
S'L10-20'
p148
sg32
S'4'
p149
sg34
g68
sg36
S'@MIA'
p150
sg38
g149
sg40
g10
sg42
S'--'
p151
ssS'16'
p152
(dp153
g5
g10
sg7
S'6'
p154
sg9
g68
sg11
S'--'
p155
sg13
g68
sg14
S'Keshawn Martin'
p156
sg16
S'2015'
p157
sg18
S'16'
p158
sg20
S'6.0'
p159
sg22
S'12/27'
p160
sg24
S'9.7'
p161
sg26
S'--'
p162
sg28
g68
sg30
S'L20-26'
p163
sg32
S'68'
p164
sg34
S'7'
p165
sg36
S'@NYJ'
p166
sg38
S'24'
p167
sg40
g10
sg42
g154
ssg68
(dp168
g5
S'--'
p169
sg7
S'--'
p170
sg9
g10
sg11
S'--'
p171
sg13
g10
sg14
S'Keshawn Martin'
p172
sg16
S'2015'
p173
sg18
g68
sg20
S'--'
p174
sg22
S'09/13'
p175
sg24
S'--'
p176
sg26
S'--'
p177
sg28
S'--'
p178
sg30
S'L20-27'
p179
sg32
S'--'
p180
sg34
S'--'
p181
sg36
S'KC'
p182
sg38
S'--'
p183
sg40
S'--'
p184
sg42
S'--'
p185
ssg80
(dp186
g5
S'--'
p187
sg7
S'--'
p188
sg9
g10
sg11
S'--'
p189
sg13
g68
sg14
S'Keshawn Martin'
p190
sg16
S'2015'
p191
sg18
g80
sg20
S'--'
p192
sg22
S'09/27'
p193
sg24
S'11.0'
p194
sg26
S'--'
p195
sg28
S'--'
p196
sg30
S'W51-17'
p197
sg32
S'33'
p198
sg34
g80
sg36
S'JAC'
p199
sg38
S'13T'
p200
sg40
g68
sg42
S'--'
p201
ssS'2'
p202
(dp203
g5
S'--'
p204
sg7
S'--'
p205
sg9
g10
sg11
S'--'
p206
sg13
g10
sg14
S'Keshawn Martin'
p207
sg16
S'2015'
p208
sg18
g202
sg20
S'--'
p209
sg22
S'09/20'
p210
sg24
S'--'
p211
sg26
S'--'
p212
sg28
S'--'
p213
sg30
S'W40-32'
p214
sg32
S'--'
p215
sg34
S'--'
p216
sg36
S'@BUF'
p217
sg38
S'--'
p218
sg40
S'--'
p219
sg42
S'--'
p220
ssS'5'
p221
(dp222
g5
S'--'
p223
sg7
S'--'
p224
sg9
g68
sg11
S'--'
p225
sg13
g68
sg14
S'Keshawn Martin'
p226
sg16
S'2015'
p227
sg18
g221
sg20
S'--'
p228
sg22
S'10/11'
p229
sg24
S'11.5'
p230
sg26
S'--'
p231
sg28
S'--'
p232
sg30
S'W30-6'
p233
sg32
S'23'
p234
sg34
g202
sg36
S'@DAL'
p235
sg38
S'16'
p236
sg40
g10
sg42
S'--'
p237
ssg149
(dp238
g5
S''
p239
sg7
g239
sg9
g239
sg11
g239
sg13
g239
sg14
S'Keshawn Martin'
p240
sg16
S'2015'
p241
sg18
g149
sg20
g239
sg22
S'Bye'
p242
sg24
g239
sg26
g239
sg28
g239
sg30
g239
sg32
g239
sg34
g239
sg36
g239
sg38
g239
sg40
g239
sg42
g239
ssg165
(dp243
g5
S'--'
p244
sg7
S'--'
p245
sg9
g10
sg11
S'--'
p246
sg13
g10
sg14
S'Keshawn Martin'
p247
sg16
S'2015'
p248
sg18
g165
sg20
S'--'
p249
sg22
S'10/25'
p250
sg24
S'--'
p251
sg26
S'--'
p252
sg28
S'--'
p253
sg30
S'W30-23'
p254
sg32
S'--'
p255
sg34
S'--'
p256
sg36
S'NYJ'
p257
sg38
S'--'
p258
sg40
S'--'
p259
sg42
S'--'
p260
ssg154
(dp261
g5
S'--'
p262
sg7
S'--'
p263
sg9
g68
sg11
S'--'
p264
sg13
g68
sg14
S'Keshawn Martin'
p265
sg16
S'2015'
p266
sg18
g154
sg20
S'--'
p267
sg22
S'10/18'
p268
sg24
S'39.0'
p269
sg26
S'--'
p270
sg28
S'--'
p271
sg30
S'W34-27'
p272
sg32
S'39'
p273
sg34
g68
sg36
S'@IND'
p274
sg38
S'39'
p275
sg40
g10
sg42
S'--'
p276
ssS'9'
p277
(dp278
g5
S'--'
p279
sg7
S'--'
p280
sg9
g10
sg11
S'--'
p281
sg13
g10
sg14
S'Keshawn Martin'
p282
sg16
S'2015'
p283
sg18
g277
sg20
S'--'
p284
sg22
S'11/08'
p285
sg24
S'--'
p286
sg26
S'--'
p287
sg28
S'--'
p288
sg30
S'W27-10'
p289
sg32
S'--'
p290
sg34
S'--'
p291
sg36
S'WAS'
p292
sg38
S'--'
p293
sg40
S'--'
p294
sg42
S'--'
p295
ssg98
(dp296
g5
S'--'
p297
sg7
S'--'
p298
sg9
g10
sg11
S'--'
p299
sg13
g10
sg14
S'Keshawn Martin'
p300
sg16
S'2015'
p301
sg18
g98
sg20
S'--'
p302
sg22
S'10/29'
p303
sg24
S'--'
p304
sg26
S'--'
p305
sg28
S'--'
p306
sg30
S'W36-7'
p307
sg32
S'--'
p308
sg34
S'--'
p309
sg36
S'MIA'
p310
sg38
S'--'
p311
sg40
S'--'
p312
sg42
S'--'
p313
sssS'2014'
p314
(dp315
g3
(dp316
g5
S'--'
p317
sg7
S'--'
p318
sg9
g10
sg11
S'--'
p319
sg13
g68
sg14
S'Keshawn Martin'
p320
sg16
S'2014'
p321
sg18
S'11'
p322
sg20
S'--'
p323
sg22
S'11/16'
p324
sg24
S'6.0'
p325
sg26
S'--'
p326
sg28
S'--'
p327
sg30
S'W23-7'
p328
sg32
g154
sg34
g68
sg36
S'@CLE'
p329
sg38
g154
sg40
g10
sg42
S'--'
p330
ssg44
(dp331
g5
g239
sg7
g239
sg9
g239
sg11
g239
sg13
g239
sg14
S'Keshawn Martin'
p332
sg16
S'2014'
p333
sg18
S'10'
p334
sg20
g239
sg22
S'Bye'
p335
sg24
g239
sg26
g239
sg28
g239
sg30
g239
sg32
g239
sg34
g239
sg36
g239
sg38
g239
sg40
g239
sg42
g239
ssg64
(dp336
g5
S'--'
p337
sg7
S'--'
p338
sg9
g10
sg11
S'--'
p339
sg13
g68
sg14
S'Keshawn Martin'
p340
sg16
S'2014'
p341
sg18
S'13'
p342
sg20
S'--'
p343
sg22
S'11/30'
p344
sg24
S'32.0'
p345
sg26
S'--'
p346
sg28
S'--'
p347
sg30
S'W45-21'
p348
sg32
S'32'
p349
sg34
g68
sg36
S'TEN'
p350
sg38
S'32'
p351
sg40
g10
sg42
S'--'
p352
ssg84
(dp353
g5
S'--'
p354
sg7
S'--'
p355
sg9
g10
sg11
S'--'
p356
sg13
g68
sg14
S'Keshawn Martin'
p357
sg16
S'2014'
p358
sg18
S'12'
p359
sg20
S'--'
p360
sg22
S'11/23'
p361
sg24
S'--'
p362
sg26
S'--'
p363
sg28
S'--'
p364
sg30
S'L13-22'
p365
sg32
g10
sg34
g10
sg36
S'CIN'
p366
sg38
S'--'
p367
sg40
g10
sg42
S'--'
p368
ssg101
(dp369
g5
S'--'
p370
sg7
S'--'
p371
sg9
g10
sg11
S'--'
p372
sg13
g68
sg14
S'Keshawn Martin'
p373
sg16
S'2014'
p374
sg18
S'15'
p375
sg20
S'--'
p376
sg22
S'12/14'
p377
sg24
S'--'
p378
sg26
S'--'
p379
sg28
S'--'
p380
sg30
S'L10-17'
p381
sg32
S'--'
p382
sg34
S'--'
p383
sg36
S'@IND'
p384
sg38
S'--'
p385
sg40
S'--'
p386
sg42
S'--'
p387
ssg119
(dp388
g5
S'--'
p389
sg7
S'--'
p390
sg9
g10
sg11
S'--'
p391
sg13
g68
sg14
S'Keshawn Martin'
p392
sg16
S'2014'
p393
sg18
S'14'
p394
sg20
S'--'
p395
sg22
S'12/07'
p396
sg24
S'12.0'
p397
sg26
S'--'
p398
sg28
S'--'
p399
sg30
S'W27-13'
p400
sg32
S'12'
p401
sg34
g68
sg36
S'@JAC'
p402
sg38
S'12'
p403
sg40
g10
sg42
S'--'
p404
ssg135
(dp405
g5
S'--'
p406
sg7
S'--'
p407
sg9
g10
sg11
S'--'
p408
sg13
g68
sg14
S'Keshawn Martin'
p409
sg16
S'2014'
p410
sg18
S'17'
p411
sg20
S'--'
p412
sg22
S'12/28'
p413
sg24
S'--'
p414
sg26
S'--'
p415
sg28
S'--'
p416
sg30
S'W23-17'
p417
sg32
S'--'
p418
sg34
S'--'
p419
sg36
S'JAC'
p420
sg38
S'--'
p421
sg40
S'--'
p422
sg42
S'--'
p423
ssg152
(dp424
g5
S'--'
p425
sg7
S'--'
p426
sg9
g10
sg11
S'--'
p427
sg13
g68
sg14
S'Keshawn Martin'
p428
sg16
S'2014'
p429
sg18
S'16'
p430
sg20
S'--'
p431
sg22
S'12/21'
p432
sg24
S'--'
p433
sg26
S'--'
p434
sg28
S'--'
p435
sg30
S'W25-13'
p436
sg32
S'--'
p437
sg34
S'--'
p438
sg36
S'BAL'
p439
sg38
S'--'
p440
sg40
S'--'
p441
sg42
S'--'
p442
ssg68
(dp443
g5
S'--'
p444
sg7
S'--'
p445
sg9
g10
sg11
S'--'
p446
sg13
g68
sg14
S'Keshawn Martin'
p447
sg16
S'2014'
p448
sg18
g68
sg20
S'--'
p449
sg22
S'09/07'
p450
sg24
S'--'
p451
sg26
S'--'
p452
sg28
S'--'
p453
sg30
S'W17-6'
p454
sg32
S'--'
p455
sg34
S'--'
p456
sg36
S'WAS'
p457
sg38
S'--'
p458
sg40
S'--'
p459
sg42
S'--'
p460
ssg80
(dp461
g5
S'--'
p462
sg7
S'--'
p463
sg9
g10
sg11
S'--'
p464
sg13
g68
sg14
S'Keshawn Martin'
p465
sg16
S'2014'
p466
sg18
g80
sg20
S'--'
p467
sg22
S'09/21'
p468
sg24
S'16.0'
p469
sg26
S'--'
p470
sg28
S'--'
p471
sg30
S'L17-30'
p472
sg32
S'16'
p473
sg34
g68
sg36
S'@NYG'
p474
sg38
S'16'
p475
sg40
g10
sg42
S'--'
p476
ssg202
(dp477
g5
S'--'
p478
sg7
S'--'
p479
sg9
g10
sg11
S'--'
p480
sg13
g68
sg14
S'Keshawn Martin'
p481
sg16
S'2014'
p482
sg18
g202
sg20
S'--'
p483
sg22
S'09/14'
p484
sg24
S'--'
p485
sg26
S'--'
p486
sg28
S'--'
p487
sg30
S'W30-14'
p488
sg32
S'--'
p489
sg34
S'--'
p490
sg36
S'@OAK'
p491
sg38
S'--'
p492
sg40
S'--'
p493
sg42
S'--'
p494
ssg221
(dp495
g5
S'--'
p496
sg7
S'--'
p497
sg9
g10
sg11
S'--'
p498
sg13
g68
sg14
S'Keshawn Martin'
p499
sg16
S'2014'
p500
sg18
g221
sg20
S'--'
p501
sg22
S'10/05'
p502
sg24
S'7.0'
p503
sg26
S'--'
p504
sg28
S'--'
p505
sg30
S'L17-20'
p506
sg32
g165
sg34
g68
sg36
S'@DAL'
p507
sg38
g165
sg40
g10
sg42
S'--'
p508
ssg149
(dp509
g5
S'--'
p510
sg7
S'--'
p511
sg9
g10
sg11
S'--'
p512
sg13
g68
sg14
S'Keshawn Martin'
p513
sg16
S'2014'
p514
sg18
g149
sg20
S'--'
p515
sg22
S'09/28'
p516
sg24
S'--'
p517
sg26
S'--'
p518
sg28
S'--'
p519
sg30
S'W23-17'
p520
sg32
g10
sg34
g10
sg36
S'BUF'
p521
sg38
S'--'
p522
sg40
g10
sg42
S'--'
p523
ssg165
(dp524
g5
S'--'
p525
sg7
S'--'
p526
sg9
g10
sg11
S'--'
p527
sg13
g68
sg14
S'Keshawn Martin'
p528
sg16
S'2014'
p529
sg18
g165
sg20
S'--'
p530
sg22
S'10/20'
p531
sg24
S'5.0'
p532
sg26
S'--'
p533
sg28
S'--'
p534
sg30
S'L23-30'
p535
sg32
g221
sg34
g68
sg36
S'@PIT'
p536
sg38
g221
sg40
g10
sg42
S'--'
p537
ssg154
(dp538
g5
S'--'
p539
sg7
S'--'
p540
sg9
g10
sg11
S'--'
p541
sg13
g68
sg14
S'Keshawn Martin'
p542
sg16
S'2014'
p543
sg18
g154
sg20
S'--'
p544
sg22
S'10/09'
p545
sg24
S'--'
p546
sg26
S'--'
p547
sg28
S'--'
p548
sg30
S'L28-33'
p549
sg32
S'--'
p550
sg34
S'--'
p551
sg36
S'IND'
p552
sg38
S'--'
p553
sg40
S'--'
p554
sg42
S'--'
p555
ssg277
(dp556
g5
S'--'
p557
sg7
S'--'
p558
sg9
g10
sg11
S'--'
p559
sg13
g68
sg14
S'Keshawn Martin'
p560
sg16
S'2014'
p561
sg18
g277
sg20
S'--'
p562
sg22
S'11/02'
p563
sg24
S'--'
p564
sg26
S'--'
p565
sg28
S'--'
p566
sg30
S'L21-31'
p567
sg32
g10
sg34
g10
sg36
S'PHI'
p568
sg38
S'--'
p569
sg40
g10
sg42
S'--'
p570
ssg98
(dp571
g5
S'--'
p572
sg7
S'--'
p573
sg9
g10
sg11
S'--'
p574
sg13
g68
sg14
S'Keshawn Martin'
p575
sg16
S'2014'
p576
sg18
g98
sg20
S'--'
p577
sg22
S'10/26'
p578
sg24
S'--'
p579
sg26
S'--'
p580
sg28
S'--'
p581
sg30
S'W30-16'
p582
sg32
S'--'
p583
sg34
S'--'
p584
sg36
S'@TEN'
p585
sg38
S'--'
p586
sg40
S'--'
p587
sg42
S'--'
p588
sssS'2013'
p589
(dp590
g3
(dp591
g5
S'--'
p592
sg7
S'--'
p593
sg9
g10
sg11
S'--'
p594
sg13
g68
sg14
S'Keshawn Martin'
p595
sg16
S'2013'
p596
sg18
S'11'
p597
sg20
S'--'
p598
sg22
S'11/17'
p599
sg24
S'16.0'
p600
sg26
S'--'
p601
sg28
S'--'
p602
sg30
S'L23-28'
p603
sg32
S'32'
p604
sg34
g202
sg36
S'OAK'
p605
sg38
S'23'
p606
sg40
g10
sg42
S'--'
p607
ssg44
(dp608
g5
S'--'
p609
sg7
S'--'
p610
sg9
g10
sg11
S'--'
p611
sg13
g68
sg14
S'Keshawn Martin'
p612
sg16
S'2013'
p613
sg18
S'10'
p614
sg20
S'--'
p615
sg22
S'11/10'
p616
sg24
S'--'
p617
sg26
S'--'
p618
sg28
S'--'
p619
sg30
S'L24-27'
p620
sg32
S'--'
p621
sg34
S'--'
p622
sg36
S'@ARI'
p623
sg38
S'--'
p624
sg40
S'--'
p625
sg42
S'--'
p626
ssg64
(dp627
g5
S'--'
p628
sg7
S'--'
p629
sg9
g68
sg11
S'--'
p630
sg13
g68
sg14
S'Keshawn Martin'
p631
sg16
S'2013'
p632
sg18
S'13'
p633
sg20
S'--'
p634
sg22
S'12/01'
p635
sg24
S'27.0'
p636
sg26
S'--'
p637
sg28
S'--'
p638
sg30
S'L31-34'
p639
sg32
S'27'
p640
sg34
g68
sg36
S'NE'
p641
sg38
S'27'
p642
sg40
g10
sg42
S'--'
p643
ssg84
(dp644
g5
S'--'
p645
sg7
S'--'
p646
sg9
g10
sg11
S'--'
p647
sg13
g68
sg14
S'Keshawn Martin'
p648
sg16
S'2013'
p649
sg18
S'12'
p650
sg20
S'--'
p651
sg22
S'11/24'
p652
sg24
S'12.0'
p653
sg26
S'--'
p654
sg28
S'--'
p655
sg30
S'L6-13'
p656
sg32
S'12'
p657
sg34
g68
sg36
S'JAC'
p658
sg38
S'12'
p659
sg40
g10
sg42
S'--'
p660
ssg101
(dp661
g5
S'--'
p662
sg7
S'--'
p663
sg9
g10
sg11
S'--'
p664
sg13
g68
sg14
S'Keshawn Martin'
p665
sg16
S'2013'
p666
sg18
S'15'
p667
sg20
S'--'
p668
sg22
S'12/15'
p669
sg24
S'13.0'
p670
sg26
S'--'
p671
sg28
S'--'
p672
sg30
S'L3-25'
p673
sg32
S'13'
p674
sg34
g68
sg36
S'@IND'
p675
sg38
S'13'
p676
sg40
g10
sg42
S'--'
p677
ssg119
(dp678
g5
S'--'
p679
sg7
S'--'
p680
sg9
g10
sg11
S'--'
p681
sg13
g68
sg14
S'Keshawn Martin'
p682
sg16
S'2013'
p683
sg18
S'14'
p684
sg20
S'--'
p685
sg22
S'12/05'
p686
sg24
S'7.0'
p687
sg26
S'--'
p688
sg28
S'--'
p689
sg30
S'L20-27'
p690
sg32
S'28'
p691
sg34
g149
sg36
S'@JAC'
p692
sg38
S'14'
p693
sg40
g68
sg42
S'--'
p694
ssg135
(dp695
g5
S'--'
p696
sg7
S'--'
p697
sg9
g10
sg11
S'--'
p698
sg13
g68
sg14
S'Keshawn Martin'
p699
sg16
S'2013'
p700
sg18
S'17'
p701
sg20
S'--'
p702
sg22
S'12/29'
p703
sg24
S'2.0'
p704
sg26
S'--'
p705
sg28
S'--'
p706
sg30
S'L10-16'
p707
sg32
g202
sg34
g68
sg36
S'@TEN'
p708
sg38
g202
sg40
g10
sg42
S'--'
p709
ssg152
(dp710
g5
S'--'
p711
sg7
S'--'
p712
sg9
g10
sg11
S'--'
p713
sg13
g68
sg14
S'Keshawn Martin'
p714
sg16
S'2013'
p715
sg18
S'16'
p716
sg20
S'--'
p717
sg22
S'12/22'
p718
sg24
S'8.8'
p719
sg26
S'--'
p720
sg28
S'--'
p721
sg30
S'L13-37'
p722
sg32
S'35'
p723
sg34
g149
sg36
S'DEN'
p724
sg38
S'15T'
p725
sg40
g68
sg42
S'--'
p726
ssg68
(dp727
g5
S'--'
p728
sg7
S'--'
p729
sg9
g10
sg11
S'--'
p730
sg13
g68
sg14
S'Keshawn Martin'
p731
sg16
S'2013'
p732
sg18
g68
sg20
S'--'
p733
sg22
S'09/09'
p734
sg24
S'--'
p735
sg26
S'--'
p736
sg28
S'--'
p737
sg30
S'W31-28'
p738
sg32
S'--'
p739
sg34
S'--'
p740
sg36
S'@SD'
p741
sg38
S'--'
p742
sg40
S'--'
p743
sg42
S'--'
p744
ssg80
(dp745
g5
S'--'
p746
sg7
S'--'
p747
sg9
g10
sg11
S'--'
p748
sg13
g68
sg14
S'Keshawn Martin'
p749
sg16
S'2013'
p750
sg18
g80
sg20
S'--'
p751
sg22
S'09/22'
p752
sg24
S'17.5'
p753
sg26
S'--'
p754
sg28
S'--'
p755
sg30
S'L9-30'
p756
sg32
S'35'
p757
sg34
g202
sg36
S'@BAL'
p758
sg38
S'18'
p759
sg40
g10
sg42
S'--'
p760
ssg202
(dp761
g5
S'--'
p762
sg7
S'--'
p763
sg9
g10
sg11
S'--'
p764
sg13
g68
sg14
S'Keshawn Martin'
p765
sg16
S'2013'
p766
sg18
g202
sg20
S'--'
p767
sg22
S'09/15'
p768
sg24
S'18.5'
p769
sg26
S'--'
p770
sg28
S'--'
p771
sg30
S'W30-24'
p772
sg32
S'37'
p773
sg34
g202
sg36
S'TEN'
p774
sg38
S'32'
p775
sg40
g10
sg42
S'--'
p776
ssg221
(dp777
g5
S'--'
p778
sg7
S'--'
p779
sg9
g10
sg11
S'--'
p780
sg13
g68
sg14
S'Keshawn Martin'
p781
sg16
S'2013'
p782
sg18
g221
sg20
S'--'
p783
sg22
S'10/06'
p784
sg24
S'14.0'
p785
sg26
S'--'
p786
sg28
S'--'
p787
sg30
S'L3-34'
p788
sg32
S'14'
p789
sg34
g68
sg36
S'@SF'
p790
sg38
S'14'
p791
sg40
g10
sg42
S'--'
p792
ssg149
(dp793
g5
S'--'
p794
sg7
S'--'
p795
sg9
g10
sg11
S'--'
p796
sg13
g68
sg14
S'Keshawn Martin'
p797
sg16
S'2013'
p798
sg18
g149
sg20
S'--'
p799
sg22
S'09/29'
p800
sg24
S'6.0'
p801
sg26
S'--'
p802
sg28
S'--'
p803
sg30
S'L20-23'
p804
sg32
g154
sg34
g68
sg36
S'SEA'
p805
sg38
g154
sg40
g10
sg42
S'--'
p806
ssg165
(dp807
g5
S'--'
p808
sg7
S'--'
p809
sg9
g10
sg11
S'--'
p810
sg13
g68
sg14
S'Keshawn Martin'
p811
sg16
S'2013'
p812
sg18
g165
sg20
S'--'
p813
sg22
S'10/20'
p814
sg24
S'--'
p815
sg26
S'--'
p816
sg28
S'--'
p817
sg30
S'L16-17'
p818
sg32
S'--'
p819
sg34
S'--'
p820
sg36
S'@KC'
p821
sg38
S'--'
p822
sg40
S'--'
p823
sg42
S'--'
p824
ssg154
(dp825
g5
S'--'
p826
sg7
S'--'
p827
sg9
g10
sg11
g68
sg13
g68
sg14
S'Keshawn Martin'
p828
sg16
S'2013'
p829
sg18
g154
sg20
S'--'
p830
sg22
S'10/13'
p831
sg24
S'6.0'
p832
sg26
g68
sg28
S'--'
p833
sg30
S'L13-38'
p834
sg32
S'12'
p835
sg34
g202
sg36
S'STL'
p836
sg38
g165
sg40
g10
sg42
S'--'
p837
ssg277
(dp838
g5
S'--'
p839
sg7
S'--'
p840
sg9
g10
sg11
g10
sg13
g68
sg14
S'Keshawn Martin'
p841
sg16
S'2013'
p842
sg18
g277
sg20
S'--'
p843
sg22
S'11/03'
p844
sg24
S'--'
p845
sg26
g68
sg28
S'--'
p846
sg30
S'L24-27'
p847
sg32
S'--'
p848
sg34
S'--'
p849
sg36
S'IND'
p850
sg38
S'--'
p851
sg40
S'--'
p852
sg42
S'--'
p853
ssg98
(dp854
g5
g239
sg7
g239
sg9
g239
sg11
g239
sg13
g239
sg14
S'Keshawn Martin'
p855
sg16
S'2013'
p856
sg18
g98
sg20
g239
sg22
S'Bye'
p857
sg24
g239
sg26
g239
sg28
g239
sg30
g239
sg32
g239
sg34
g239
sg36
g239
sg38
g239
sg40
g239
sg42
g239
sssS'2012'
p858
(dp859
g3
(dp860
g5
S'--'
p861
sg7
S'--'
p862
sg9
g68
sg11
S'--'
p863
sg13
g68
sg14
S'Keshawn Martin'
p864
sg16
S'2012'
p865
sg18
S'11'
p866
sg20
S'--'
p867
sg22
S'11/18'
p868
sg24
S'9.0'
p869
sg26
S'--'
p870
sg28
S'--'
p871
sg30
S'W43-37'
p872
sg32
g277
sg34
g68
sg36
S'JAC'
p873
sg38
S'9T'
p874
sg40
g68
sg42
S'--'
p875
ssg44
(dp876
g5
S'--'
p877
sg7
S'--'
p878
sg9
g10
sg11
S'--'
p879
sg13
g68
sg14
S'Keshawn Martin'
p880
sg16
S'2012'
p881
sg18
S'10'
p882
sg20
S'--'
p883
sg22
S'11/11'
p884
sg24
S'--'
p885
sg26
S'--'
p886
sg28
S'--'
p887
sg30
S'W13-6'
p888
sg32
g10
sg34
g10
sg36
S'@CHI'
p889
sg38
S'--'
p890
sg40
g10
sg42
S'--'
p891
ssg64
(dp892
g5
S'--'
p893
sg7
S'--'
p894
sg9
g10
sg11
S'--'
p895
sg13
g68
sg14
S'Keshawn Martin'
p896
sg16
S'2012'
p897
sg18
S'13'
p898
sg20
S'--'
p899
sg22
S'12/02'
p900
sg24
S'--'
p901
sg26
S'--'
p902
sg28
S'--'
p903
sg30
S'W24-10'
p904
sg32
g10
sg34
g10
sg36
S'@TEN'
p905
sg38
S'--'
p906
sg40
g10
sg42
S'--'
p907
ssg84
(dp908
g5
g10
sg7
S'17'
p909
sg9
g10
sg11
S'--'
p910
sg13
g68
sg14
S'Keshawn Martin'
p911
sg16
S'2012'
p912
sg18
S'12'
p913
sg20
S'17.0'
p914
sg22
S'11/22'
p915
sg24
S'8.5'
p916
sg26
S'--'
p917
sg28
g68
sg30
S'W34-31'
p918
sg32
S'17'
p919
sg34
g202
sg36
S'@DET'
p920
sg38
S'11'
p921
sg40
g10
sg42
S'17'
p922
ssg101
(dp923
g5
S'--'
p924
sg7
S'--'
p925
sg9
g10
sg11
S'--'
p926
sg13
g68
sg14
S'Keshawn Martin'
p927
sg16
S'2012'
p928
sg18
S'15'
p929
sg20
S'--'
p930
sg22
S'12/16'
p931
sg24
S'--'
p932
sg26
S'--'
p933
sg28
S'--'
p934
sg30
S'W29-17'
p935
sg32
S'--'
p936
sg34
S'--'
p937
sg36
S'IND'
p938
sg38
S'--'
p939
sg40
S'--'
p940
sg42
S'--'
p941
ssg119
(dp942
g5
S'--'
p943
sg7
S'--'
p944
sg9
g10
sg11
S'--'
p945
sg13
g68
sg14
S'Keshawn Martin'
p946
sg16
S'2012'
p947
sg18
S'14'
p948
sg20
S'--'
p949
sg22
S'12/10'
p950
sg24
S'-4.0'
p951
sg26
S'--'
p952
sg28
S'--'
p953
sg30
S'L14-42'
p954
sg32
S'-4'
p955
sg34
g68
sg36
S'@NE'
p956
sg38
S'-4'
p957
sg40
g10
sg42
S'--'
p958
ssg135
(dp959
g5
S'--'
p960
sg7
S'--'
p961
sg9
g10
sg11
S'--'
p962
sg13
g68
sg14
S'Keshawn Martin'
p963
sg16
S'2012'
p964
sg18
S'17'
p965
sg20
S'--'
p966
sg22
S'12/30'
p967
sg24
S'--'
p968
sg26
S'--'
p969
sg28
S'--'
p970
sg30
S'L16-28'
p971
sg32
S'--'
p972
sg34
S'--'
p973
sg36
S'@IND'
p974
sg38
S'--'
p975
sg40
S'--'
p976
sg42
S'--'
p977
ssg152
(dp978
g5
S'--'
p979
sg7
S'--'
p980
sg9
g10
sg11
S'--'
p981
sg13
g68
sg14
S'Keshawn Martin'
p982
sg16
S'2012'
p983
sg18
S'16'
p984
sg20
S'--'
p985
sg22
S'12/23'
p986
sg24
S'--'
p987
sg26
S'--'
p988
sg28
S'--'
p989
sg30
S'L6-23'
p990
sg32
S'--'
p991
sg34
S'--'
p992
sg36
S'MIN'
p993
sg38
S'--'
p994
sg40
S'--'
p995
sg42
S'--'
p996
ssg68
(dp997
g5
S'--'
p998
sg7
S'--'
p999
sg9
g10
sg11
S'--'
p1000
sg13
g68
sg14
S'Keshawn Martin'
p1001
sg16
S'2012'
p1002
sg18
g68
sg20
S'--'
p1003
sg22
S'09/09'
p1004
sg24
S'--'
p1005
sg26
S'--'
p1006
sg28
S'--'
p1007
sg30
S'W30-10'
p1008
sg32
g10
sg34
g10
sg36
S'MIA'
p1009
sg38
S'--'
p1010
sg40
g10
sg42
S'--'
p1011
ssg80
(dp1012
g5
g10
sg7
S'21'
p1013
sg9
g10
sg11
S'--'
p1014
sg13
g68
sg14
S'Keshawn Martin'
p1015
sg16
S'2012'
p1016
sg18
g80
sg20
S'21.0'
p1017
sg22
S'09/23'
p1018
sg24
S'10.0'
p1019
sg26
S'--'
p1020
sg28
g68
sg30
S'W31-25'
p1021
sg32
S'20'
p1022
sg34
g202
sg36
S'@DEN'
p1023
sg38
S'18'
p1024
sg40
g10
sg42
S'21'
p1025
ssg202
(dp1026
g5
S'--'
p1027
sg7
S'--'
p1028
sg9
g10
sg11
S'--'
p1029
sg13
g68
sg14
S'Keshawn Martin'
p1030
sg16
S'2012'
p1031
sg18
g202
sg20
S'--'
p1032
sg22
S'09/16'
p1033
sg24
S'--'
p1034
sg26
S'--'
p1035
sg28
S'--'
p1036
sg30
S'W27-7'
p1037
sg32
g10
sg34
g10
sg36
S'@JAC'
p1038
sg38
S'--'
p1039
sg40
g10
sg42
S'--'
p1040
ssg221
(dp1041
g5
g10
sg7
S'14'
p1042
sg9
g10
sg11
S'--'
p1043
sg13
g68
sg14
S'Keshawn Martin'
p1044
sg16
S'2012'
p1045
sg18
g221
sg20
S'14.0'
p1046
sg22
S'10/08'
p1047
sg24
S'--'
p1048
sg26
S'--'
p1049
sg28
g68
sg30
S'W23-17'
p1050
sg32
S'--'
p1051
sg34
S'--'
p1052
sg36
S'@NYJ'
p1053
sg38
S'--'
p1054
sg40
S'--'
p1055
sg42
S'14'
p1056
ssg149
(dp1057
g5
S'--'
p1058
sg7
S'--'
p1059
sg9
g10
sg11
S'--'
p1060
sg13
g68
sg14
S'Keshawn Martin'
p1061
sg16
S'2012'
p1062
sg18
g149
sg20
S'--'
p1063
sg22
S'09/30'
p1064
sg24
S'9.5'
p1065
sg26
S'--'
p1066
sg28
S'--'
p1067
sg30
S'W38-14'
p1068
sg32
S'19'
p1069
sg34
g202
sg36
S'TEN'
p1070
sg38
S'17'
p1071
sg40
g10
sg42
S'--'
p1072
ssg165
(dp1073
g5
S'--'
p1074
sg7
S'--'
p1075
sg9
g10
sg11
g10
sg13
g68
sg14
S'Keshawn Martin'
p1076
sg16
S'2012'
p1077
sg18
g165
sg20
S'--'
p1078
sg22
S'10/21'
p1079
sg24
S'--'
p1080
sg26
g68
sg28
S'--'
p1081
sg30
S'W43-13'
p1082
sg32
g10
sg34
g10
sg36
S'BAL'
p1083
sg38
S'--'
p1084
sg40
g10
sg42
S'--'
p1085
ssg154
(dp1086
g5
S'--'
p1087
sg7
S'--'
p1088
sg9
g10
sg11
S'--'
p1089
sg13
g68
sg14
S'Keshawn Martin'
p1090
sg16
S'2012'
p1091
sg18
g154
sg20
S'--'
p1092
sg22
S'10/14'
p1093
sg24
S'12.0'
p1094
sg26
S'--'
p1095
sg28
S'--'
p1096
sg30
S'L24-42'
p1097
sg32
S'24'
p1098
sg34
g202
sg36
S'GB'
p1099
sg38
S'12'
p1100
sg40
g10
sg42
S'--'
p1101
ssg277
(dp1102
g5
g10
sg7
g68
sg9
g10
sg11
S'--'
p1103
sg13
g68
sg14
S'Keshawn Martin'
p1104
sg16
S'2012'
p1105
sg18
g277
sg20
S'1.0'
p1106
sg22
S'11/04'
p1107
sg24
S'--'
p1108
sg26
S'--'
p1109
sg28
g68
sg30
S'W21-9'
p1110
sg32
S'--'
p1111
sg34
S'--'
p1112
sg36
S'BUF'
p1113
sg38
S'--'
p1114
sg40
S'--'
p1115
sg42
g68
ssg98
(dp1116
g5
g239
sg7
g239
sg9
g239
sg11
g239
sg13
g239
sg14
S'Keshawn Martin'
p1117
sg16
S'2012'
p1118
sg18
g98
sg20
g239
sg22
S'Bye'
p1119
sg24
g239
sg26
g239
sg28
g239
sg30
g239
sg32
g239
sg34
g239
sg36
g239
sg38
g239
sg40
g239
sg42
g239
sss.