(dp0
S'2015'
p1
(dp2
S'11'
p3
(dp4
S'RushTD'
p5
S'--'
p6
sS'RushYds'
p7
S'--'
p8
sS'GS'
p9
S'0'
p10
sS'Lost'
p11
S'--'
p12
sS'G'
p13
g10
sS'Player'
p14
S'Kevin Norwood'
p15
sS'Year'
p16
S'2015'
p17
sS'WK'
p18
S'11'
p19
sS'RushAvg'
p20
S'--'
p21
sS'Game Date'
p22
S'11/22'
p23
sS'RecAvg'
p24
S'--'
p25
sS'FUM'
p26
S'--'
p27
sS'RushAtt'
p28
S'--'
p29
sS'Result'
p30
S'W44-16'
p31
sS'RecYds'
p32
S'--'
p33
sS'Rec'
p34
S'--'
p35
sS'Opp'
p36
S'WAS'
p37
sS'RecLng'
p38
S'--'
p39
sS'RecTD'
p40
S'--'
p41
sS'RushLng'
p42
S'--'
p43
ssS'10'
p44
(dp45
g5
S'--'
p46
sg7
S'--'
p47
sg9
g10
sg11
S'--'
p48
sg13
g10
sg14
S'Kevin Norwood'
p49
sg16
S'2015'
p50
sg18
S'10'
p51
sg20
S'--'
p52
sg22
S'11/15'
p53
sg24
S'--'
p54
sg26
S'--'
p55
sg28
S'--'
p56
sg30
S'W27-10'
p57
sg32
S'--'
p58
sg34
S'--'
p59
sg36
S'@TEN'
p60
sg38
S'--'
p61
sg40
S'--'
p62
sg42
S'--'
p63
ssS'13'
p64
(dp65
g5
S'--'
p66
sg7
S'--'
p67
sg9
g10
sg11
S'--'
p68
sg13
g10
sg14
S'Kevin Norwood'
p69
sg16
S'2015'
p70
sg18
S'13'
p71
sg20
S'--'
p72
sg22
S'12/06'
p73
sg24
S'--'
p74
sg26
S'--'
p75
sg28
S'--'
p76
sg30
S'W41-38'
p77
sg32
S'--'
p78
sg34
S'--'
p79
sg36
S'@NO'
p80
sg38
S'--'
p81
sg40
S'--'
p82
sg42
S'--'
p83
ssS'12'
p84
(dp85
g5
S'--'
p86
sg7
S'--'
p87
sg9
g10
sg11
S'--'
p88
sg13
g10
sg14
S'Kevin Norwood'
p89
sg16
S'2015'
p90
sg18
S'12'
p91
sg20
S'--'
p92
sg22
S'11/26'
p93
sg24
S'--'
p94
sg26
S'--'
p95
sg28
S'--'
p96
sg30
S'W33-14'
p97
sg32
S'--'
p98
sg34
S'--'
p99
sg36
S'@DAL'
p100
sg38
S'--'
p101
sg40
S'--'
p102
sg42
S'--'
p103
ssS'15'
p104
(dp105
g5
S'--'
p106
sg7
S'--'
p107
sg9
g10
sg11
S'--'
p108
sg13
g10
sg14
S'Kevin Norwood'
p109
sg16
S'2015'
p110
sg18
S'15'
p111
sg20
S'--'
p112
sg22
S'12/20'
p113
sg24
S'--'
p114
sg26
S'--'
p115
sg28
S'--'
p116
sg30
S'W38-35'
p117
sg32
S'--'
p118
sg34
S'--'
p119
sg36
S'@NYG'
p120
sg38
S'--'
p121
sg40
S'--'
p122
sg42
S'--'
p123
ssS'14'
p124
(dp125
g5
S'--'
p126
sg7
S'--'
p127
sg9
g10
sg11
S'--'
p128
sg13
g10
sg14
S'Kevin Norwood'
p129
sg16
S'2015'
p130
sg18
S'14'
p131
sg20
S'--'
p132
sg22
S'12/13'
p133
sg24
S'--'
p134
sg26
S'--'
p135
sg28
S'--'
p136
sg30
S'W38-0'
p137
sg32
S'--'
p138
sg34
S'--'
p139
sg36
S'ATL'
p140
sg38
S'--'
p141
sg40
S'--'
p142
sg42
S'--'
p143
ssS'17'
p144
(dp145
g5
S'--'
p146
sg7
S'--'
p147
sg9
g10
sg11
S'--'
p148
sg13
g10
sg14
S'Kevin Norwood'
p149
sg16
S'2015'
p150
sg18
S'17'
p151
sg20
S'--'
p152
sg22
S'01/03'
p153
sg24
S'--'
p154
sg26
S'--'
p155
sg28
S'--'
p156
sg30
S'W38-10'
p157
sg32
S'--'
p158
sg34
S'--'
p159
sg36
S'TB'
p160
sg38
S'--'
p161
sg40
S'--'
p162
sg42
S'--'
p163
ssS'16'
p164
(dp165
g5
S'--'
p166
sg7
S'--'
p167
sg9
g10
sg11
S'--'
p168
sg13
g10
sg14
S'Kevin Norwood'
p169
sg16
S'2015'
p170
sg18
S'16'
p171
sg20
S'--'
p172
sg22
S'12/27'
p173
sg24
S'--'
p174
sg26
S'--'
p175
sg28
S'--'
p176
sg30
S'L13-20'
p177
sg32
S'--'
p178
sg34
S'--'
p179
sg36
S'@ATL'
p180
sg38
S'--'
p181
sg40
S'--'
p182
sg42
S'--'
p183
ssS'1'
p184
(dp185
g5
S'--'
p186
sg7
S'--'
p187
sg9
g10
sg11
S'--'
p188
sg13
g10
sg14
S'Kevin Norwood'
p189
sg16
S'2015'
p190
sg18
g184
sg20
S'--'
p191
sg22
S'09/13'
p192
sg24
S'--'
p193
sg26
S'--'
p194
sg28
S'--'
p195
sg30
S'W20-9'
p196
sg32
S'--'
p197
sg34
S'--'
p198
sg36
S'@JAC'
p199
sg38
S'--'
p200
sg40
S'--'
p201
sg42
S'--'
p202
ssS'3'
p203
(dp204
g5
S'--'
p205
sg7
S'--'
p206
sg9
g10
sg11
S'--'
p207
sg13
g10
sg14
S'Kevin Norwood'
p208
sg16
S'2015'
p209
sg18
g203
sg20
S'--'
p210
sg22
S'09/27'
p211
sg24
S'--'
p212
sg26
S'--'
p213
sg28
S'--'
p214
sg30
S'W27-22'
p215
sg32
S'--'
p216
sg34
S'--'
p217
sg36
S'NO'
p218
sg38
S'--'
p219
sg40
S'--'
p220
sg42
S'--'
p221
ssS'2'
p222
(dp223
g5
S'--'
p224
sg7
S'--'
p225
sg9
g10
sg11
S'--'
p226
sg13
g184
sg14
S'Kevin Norwood'
p227
sg16
S'2015'
p228
sg18
g222
sg20
S'--'
p229
sg22
S'09/20'
p230
sg24
S'--'
p231
sg26
S'--'
p232
sg28
S'--'
p233
sg30
S'W24-17'
p234
sg32
g10
sg34
g10
sg36
S'HOU'
p235
sg38
S'--'
p236
sg40
g10
sg42
S'--'
p237
ssS'5'
p238
(dp239
g5
S''
p240
sg7
g240
sg9
g240
sg11
g240
sg13
g240
sg14
S'Kevin Norwood'
p241
sg16
S'2015'
p242
sg18
g238
sg20
g240
sg22
S'Bye'
p243
sg24
g240
sg26
g240
sg28
g240
sg30
g240
sg32
g240
sg34
g240
sg36
g240
sg38
g240
sg40
g240
sg42
g240
ssS'4'
p244
(dp245
g5
S'--'
p246
sg7
S'--'
p247
sg9
g10
sg11
S'--'
p248
sg13
g10
sg14
S'Kevin Norwood'
p249
sg16
S'2015'
p250
sg18
g244
sg20
S'--'
p251
sg22
S'10/04'
p252
sg24
S'--'
p253
sg26
S'--'
p254
sg28
S'--'
p255
sg30
S'W37-23'
p256
sg32
S'--'
p257
sg34
S'--'
p258
sg36
S'@TB'
p259
sg38
S'--'
p260
sg40
S'--'
p261
sg42
S'--'
p262
ssS'7'
p263
(dp264
g5
S'--'
p265
sg7
S'--'
p266
sg9
g10
sg11
S'--'
p267
sg13
g10
sg14
S'Kevin Norwood'
p268
sg16
S'2015'
p269
sg18
g263
sg20
S'--'
p270
sg22
S'10/25'
p271
sg24
S'--'
p272
sg26
S'--'
p273
sg28
S'--'
p274
sg30
S'W27-16'
p275
sg32
S'--'
p276
sg34
S'--'
p277
sg36
S'PHI'
p278
sg38
S'--'
p279
sg40
S'--'
p280
sg42
S'--'
p281
ssS'6'
p282
(dp283
g5
S'--'
p284
sg7
S'--'
p285
sg9
g10
sg11
S'--'
p286
sg13
g10
sg14
S'Kevin Norwood'
p287
sg16
S'2015'
p288
sg18
g282
sg20
S'--'
p289
sg22
S'10/18'
p290
sg24
S'--'
p291
sg26
S'--'
p292
sg28
S'--'
p293
sg30
S'W27-23'
p294
sg32
S'--'
p295
sg34
S'--'
p296
sg36
S'@SEA'
p297
sg38
S'--'
p298
sg40
S'--'
p299
sg42
S'--'
p300
ssS'9'
p301
(dp302
g5
S'--'
p303
sg7
S'--'
p304
sg9
g10
sg11
S'--'
p305
sg13
g10
sg14
S'Kevin Norwood'
p306
sg16
S'2015'
p307
sg18
g301
sg20
S'--'
p308
sg22
S'11/08'
p309
sg24
S'--'
p310
sg26
S'--'
p311
sg28
S'--'
p312
sg30
S'W37-29'
p313
sg32
S'--'
p314
sg34
S'--'
p315
sg36
S'GB'
p316
sg38
S'--'
p317
sg40
S'--'
p318
sg42
S'--'
p319
ssS'8'
p320
(dp321
g5
S'--'
p322
sg7
S'--'
p323
sg9
g10
sg11
S'--'
p324
sg13
g10
sg14
S'Kevin Norwood'
p325
sg16
S'2015'
p326
sg18
g320
sg20
S'--'
p327
sg22
S'11/02'
p328
sg24
S'--'
p329
sg26
S'--'
p330
sg28
S'--'
p331
sg30
S'W29-26'
p332
sg32
S'--'
p333
sg34
S'--'
p334
sg36
S'IND'
p335
sg38
S'--'
p336
sg40
S'--'
p337
sg42
S'--'
p338
sssS'2014'
p339
(dp340
g3
(dp341
g5
S'--'
p342
sg7
S'--'
p343
sg9
g10
sg11
S'--'
p344
sg13
g184
sg14
S'Kevin Norwood'
p345
sg16
S'2014'
p346
sg18
S'11'
p347
sg20
S'--'
p348
sg22
S'11/16'
p349
sg24
S'--'
p350
sg26
S'--'
p351
sg28
S'--'
p352
sg30
S'L20-24'
p353
sg32
S'--'
p354
sg34
S'--'
p355
sg36
S'@KC'
p356
sg38
S'--'
p357
sg40
S'--'
p358
sg42
S'--'
p359
ssg44
(dp360
g5
S'--'
p361
sg7
S'--'
p362
sg9
g10
sg11
S'--'
p363
sg13
g184
sg14
S'Kevin Norwood'
p364
sg16
S'2014'
p365
sg18
S'10'
p366
sg20
S'--'
p367
sg22
S'11/09'
p368
sg24
S'--'
p369
sg26
S'--'
p370
sg28
S'--'
p371
sg30
S'W38-17'
p372
sg32
S'--'
p373
sg34
S'--'
p374
sg36
S'NYG'
p375
sg38
S'--'
p376
sg40
S'--'
p377
sg42
S'--'
p378
ssg64
(dp379
g5
S'--'
p380
sg7
S'--'
p381
sg9
g184
sg11
S'--'
p382
sg13
g184
sg14
S'Kevin Norwood'
p383
sg16
S'2014'
p384
sg18
S'13'
p385
sg20
S'--'
p386
sg22
S'11/27'
p387
sg24
S'--'
p388
sg26
S'--'
p389
sg28
S'--'
p390
sg30
S'W19-3'
p391
sg32
S'--'
p392
sg34
S'--'
p393
sg36
S'@SF'
p394
sg38
S'--'
p395
sg40
S'--'
p396
sg42
S'--'
p397
ssg84
(dp398
g5
S'--'
p399
sg7
S'--'
p400
sg9
g10
sg11
S'--'
p401
sg13
g184
sg14
S'Kevin Norwood'
p402
sg16
S'2014'
p403
sg18
S'12'
p404
sg20
S'--'
p405
sg22
S'11/23'
p406
sg24
S'10.0'
p407
sg26
S'--'
p408
sg28
S'--'
p409
sg30
S'W19-3'
p410
sg32
S'10'
p411
sg34
g184
sg36
S'ARI'
p412
sg38
S'10'
p413
sg40
g10
sg42
S'--'
p414
ssg104
(dp415
g5
S'--'
p416
sg7
S'--'
p417
sg9
g10
sg11
S'--'
p418
sg13
g10
sg14
S'Kevin Norwood'
p419
sg16
S'2014'
p420
sg18
S'15'
p421
sg20
S'--'
p422
sg22
S'12/14'
p423
sg24
S'--'
p424
sg26
S'--'
p425
sg28
S'--'
p426
sg30
S'W17-7'
p427
sg32
S'--'
p428
sg34
S'--'
p429
sg36
S'SF'
p430
sg38
S'--'
p431
sg40
S'--'
p432
sg42
S'--'
p433
ssg124
(dp434
g5
S'--'
p435
sg7
S'--'
p436
sg9
g10
sg11
S'--'
p437
sg13
g184
sg14
S'Kevin Norwood'
p438
sg16
S'2014'
p439
sg18
S'14'
p440
sg20
S'--'
p441
sg22
S'12/07'
p442
sg24
S'11.0'
p443
sg26
S'--'
p444
sg28
S'--'
p445
sg30
S'W24-14'
p446
sg32
S'22'
p447
sg34
g222
sg36
S'@PHI'
p448
sg38
S'11'
p449
sg40
g10
sg42
S'--'
p450
ssg144
(dp451
g5
S'--'
p452
sg7
S'--'
p453
sg9
g184
sg11
S'--'
p454
sg13
g184
sg14
S'Kevin Norwood'
p455
sg16
S'2014'
p456
sg18
S'17'
p457
sg20
S'--'
p458
sg22
S'12/28'
p459
sg24
S'17.0'
p460
sg26
S'--'
p461
sg28
S'--'
p462
sg30
S'W20-6'
p463
sg32
S'34'
p464
sg34
g222
sg36
S'STL'
p465
sg38
S'31'
p466
sg40
g10
sg42
S'--'
p467
ssg164
(dp468
g5
S'--'
p469
sg7
S'--'
p470
sg9
g10
sg11
S'--'
p471
sg13
g10
sg14
S'Kevin Norwood'
p472
sg16
S'2014'
p473
sg18
S'16'
p474
sg20
S'--'
p475
sg22
S'12/21'
p476
sg24
S'--'
p477
sg26
S'--'
p478
sg28
S'--'
p479
sg30
S'W35-6'
p480
sg32
S'--'
p481
sg34
S'--'
p482
sg36
S'@ARI'
p483
sg38
S'--'
p484
sg40
S'--'
p485
sg42
S'--'
p486
ssg184
(dp487
g5
S'--'
p488
sg7
S'--'
p489
sg9
g10
sg11
S'--'
p490
sg13
g10
sg14
S'Kevin Norwood'
p491
sg16
S'2014'
p492
sg18
g184
sg20
S'--'
p493
sg22
S'09/04'
p494
sg24
S'--'
p495
sg26
S'--'
p496
sg28
S'--'
p497
sg30
S'W36-16'
p498
sg32
S'--'
p499
sg34
S'--'
p500
sg36
S'GB'
p501
sg38
S'--'
p502
sg40
S'--'
p503
sg42
S'--'
p504
ssg203
(dp505
g5
S'--'
p506
sg7
S'--'
p507
sg9
g10
sg11
S'--'
p508
sg13
g10
sg14
S'Kevin Norwood'
p509
sg16
S'2014'
p510
sg18
g203
sg20
S'--'
p511
sg22
S'09/21'
p512
sg24
S'--'
p513
sg26
S'--'
p514
sg28
S'--'
p515
sg30
S'W26-20'
p516
sg32
S'--'
p517
sg34
S'--'
p518
sg36
S'DEN'
p519
sg38
S'--'
p520
sg40
S'--'
p521
sg42
S'--'
p522
ssg222
(dp523
g5
S'--'
p524
sg7
S'--'
p525
sg9
g10
sg11
S'--'
p526
sg13
g10
sg14
S'Kevin Norwood'
p527
sg16
S'2014'
p528
sg18
g222
sg20
S'--'
p529
sg22
S'09/14'
p530
sg24
S'--'
p531
sg26
S'--'
p532
sg28
S'--'
p533
sg30
S'L21-30'
p534
sg32
S'--'
p535
sg34
S'--'
p536
sg36
S'@SD'
p537
sg38
S'--'
p538
sg40
S'--'
p539
sg42
S'--'
p540
ssg238
(dp541
g5
S'--'
p542
sg7
S'--'
p543
sg9
g10
sg11
S'--'
p544
sg13
g10
sg14
S'Kevin Norwood'
p545
sg16
S'2014'
p546
sg18
g238
sg20
S'--'
p547
sg22
S'10/06'
p548
sg24
S'--'
p549
sg26
S'--'
p550
sg28
S'--'
p551
sg30
S'W27-17'
p552
sg32
S'--'
p553
sg34
S'--'
p554
sg36
S'@WAS'
p555
sg38
S'--'
p556
sg40
S'--'
p557
sg42
S'--'
p558
ssg244
(dp559
g5
g240
sg7
g240
sg9
g240
sg11
g240
sg13
g240
sg14
S'Kevin Norwood'
p560
sg16
S'2014'
p561
sg18
g244
sg20
g240
sg22
S'Bye'
p562
sg24
g240
sg26
g240
sg28
g240
sg30
g240
sg32
g240
sg34
g240
sg36
g240
sg38
g240
sg40
g240
sg42
g240
ssg263
(dp563
g5
S'--'
p564
sg7
S'--'
p565
sg9
g10
sg11
S'--'
p566
sg13
g184
sg14
S'Kevin Norwood'
p567
sg16
S'2014'
p568
sg18
g263
sg20
S'--'
p569
sg22
S'10/19'
p570
sg24
S'4.0'
p571
sg26
S'--'
p572
sg28
S'--'
p573
sg30
S'L26-28'
p574
sg32
g244
sg34
g184
sg36
S'@STL'
p575
sg38
g244
sg40
g10
sg42
S'--'
p576
ssg282
(dp577
g5
S'--'
p578
sg7
S'--'
p579
sg9
g10
sg11
S'--'
p580
sg13
g10
sg14
S'Kevin Norwood'
p581
sg16
S'2014'
p582
sg18
g282
sg20
S'--'
p583
sg22
S'10/12'
p584
sg24
S'--'
p585
sg26
S'--'
p586
sg28
S'--'
p587
sg30
S'L23-30'
p588
sg32
S'--'
p589
sg34
S'--'
p590
sg36
S'DAL'
p591
sg38
S'--'
p592
sg40
S'--'
p593
sg42
S'--'
p594
ssg301
(dp595
g5
S'--'
p596
sg7
S'--'
p597
sg9
g10
sg11
S'--'
p598
sg13
g184
sg14
S'Kevin Norwood'
p599
sg16
S'2014'
p600
sg18
g301
sg20
S'--'
p601
sg22
S'11/02'
p602
sg24
S'19.0'
p603
sg26
S'--'
p604
sg28
S'--'
p605
sg30
S'W30-24'
p606
sg32
S'19'
p607
sg34
g184
sg36
S'OAK'
p608
sg38
S'19'
p609
sg40
g10
sg42
S'--'
p610
ssg320
(dp611
g5
S'--'
p612
sg7
S'--'
p613
sg9
g10
sg11
S'--'
p614
sg13
g184
sg14
S'Kevin Norwood'
p615
sg16
S'2014'
p616
sg18
g320
sg20
S'--'
p617
sg22
S'10/26'
p618
sg24
S'6.5'
p619
sg26
S'--'
p620
sg28
S'--'
p621
sg30
S'W13-9'
p622
sg32
S'13'
p623
sg34
g222
sg36
S'@CAR'
p624
sg38
S'10'
p625
sg40
g10
sg42
S'--'
p626
sss.