(dp0
S'2015'
p1
(dp2
S'11'
p3
(dp4
S'RushTD'
p5
S'--'
p6
sS'RushYds'
p7
S'--'
p8
sS'GS'
p9
S'1'
p10
sS'Lost'
p11
S'--'
p12
sS'G'
p13
g10
sS'Player'
p14
S'Lance Moore'
p15
sS'Year'
p16
S'2015'
p17
sS'WK'
p18
S'11'
p19
sS'RushAvg'
p20
S'--'
p21
sS'Game Date'
p22
S'11/22'
p23
sS'RecAvg'
p24
S'21.0'
p25
sS'FUM'
p26
S'--'
p27
sS'RushAtt'
p28
S'--'
p29
sS'Result'
p30
S'W18-13'
p31
sS'RecYds'
p32
S'21'
p33
sS'Rec'
p34
g10
sS'Opp'
p35
S'OAK'
p36
sS'RecLng'
p37
S'21'
p38
sS'RecTD'
p39
S'0'
p40
sS'RushLng'
p41
S'--'
p42
ssS'10'
p43
(dp44
g5
S'--'
p45
sg7
S'--'
p46
sg9
g10
sg11
S'--'
p47
sg13
g10
sg14
S'Lance Moore'
p48
sg16
S'2015'
p49
sg18
S'10'
p50
sg20
S'--'
p51
sg22
S'11/15'
p52
sg24
S'9.7'
p53
sg26
S'--'
p54
sg28
S'--'
p55
sg30
S'W18-16'
p56
sg32
S'29'
p57
sg34
S'3'
p58
sg35
S'@GB'
p59
sg37
S'15'
p60
sg39
g10
sg41
S'--'
p61
ssS'13'
p62
(dp63
g5
S'--'
p64
sg7
S'--'
p65
sg9
g40
sg11
S'--'
p66
sg13
g40
sg14
S'Lance Moore'
p67
sg16
S'2015'
p68
sg18
S'13'
p69
sg20
S'--'
p70
sg22
S'12/03'
p71
sg24
S'--'
p72
sg26
S'--'
p73
sg28
S'--'
p74
sg30
S'L23-27'
p75
sg32
S'--'
p76
sg34
S'--'
p77
sg35
S'GB'
p78
sg37
S'--'
p79
sg39
S'--'
p80
sg41
S'--'
p81
ssS'12'
p82
(dp83
g5
S'--'
p84
sg7
S'--'
p85
sg9
g10
sg11
S'--'
p86
sg13
g10
sg14
S'Lance Moore'
p87
sg16
S'2015'
p88
sg18
S'12'
p89
sg20
S'--'
p90
sg22
S'11/26'
p91
sg24
S'14.0'
p92
sg26
S'--'
p93
sg28
S'--'
p94
sg30
S'W45-14'
p95
sg32
S'14'
p96
sg34
g10
sg35
S'PHI'
p97
sg37
S'14'
p98
sg39
g40
sg41
S'--'
p99
ssS'15'
p100
(dp101
g5
S'--'
p102
sg7
S'--'
p103
sg9
g10
sg11
S'--'
p104
sg13
g10
sg14
S'Lance Moore'
p105
sg16
S'2015'
p106
sg18
S'15'
p107
sg20
S'--'
p108
sg22
S'12/21'
p109
sg24
S'10.0'
p110
sg26
S'--'
p111
sg28
S'--'
p112
sg30
S'W35-27'
p113
sg32
S'10'
p114
sg34
g10
sg35
S'@NO'
p115
sg37
S'10'
p116
sg39
g40
sg41
S'--'
p117
ssS'14'
p118
(dp119
g5
S'--'
p120
sg7
S'--'
p121
sg9
g40
sg11
S'--'
p122
sg13
g40
sg14
S'Lance Moore'
p123
sg16
S'2015'
p124
sg18
S'14'
p125
sg20
S'--'
p126
sg22
S'12/13'
p127
sg24
S'--'
p128
sg26
S'--'
p129
sg28
S'--'
p130
sg30
S'L14-21'
p131
sg32
S'--'
p132
sg34
S'--'
p133
sg35
S'@STL'
p134
sg37
S'--'
p135
sg39
S'--'
p136
sg41
S'--'
p137
ssS'17'
p138
(dp139
g5
S'--'
p140
sg7
S'--'
p141
sg9
g10
sg11
S'--'
p142
sg13
g10
sg14
S'Lance Moore'
p143
sg16
S'2015'
p144
sg18
S'17'
p145
sg20
S'--'
p146
sg22
S'01/03'
p147
sg24
S'--'
p148
sg26
S'--'
p149
sg28
S'--'
p150
sg30
S'W24-20'
p151
sg32
S'--'
p152
sg34
S'--'
p153
sg35
S'@CHI'
p154
sg37
S'--'
p155
sg39
S'--'
p156
sg41
S'--'
p157
ssS'16'
p158
(dp159
g5
S'--'
p160
sg7
S'--'
p161
sg9
g10
sg11
S'--'
p162
sg13
g10
sg14
S'Lance Moore'
p163
sg16
S'2015'
p164
sg18
S'16'
p165
sg20
S'--'
p166
sg22
S'12/27'
p167
sg24
S'6.0'
p168
sg26
S'--'
p169
sg28
S'--'
p170
sg30
S'W32-17'
p171
sg32
S'6'
p172
sg34
g10
sg35
S'SF'
p173
sg37
g172
sg39
g40
sg41
S'--'
p174
ssg10
(dp175
g5
S'--'
p176
sg7
S'--'
p177
sg9
g40
sg11
S'--'
p178
sg13
g10
sg14
S'Lance Moore'
p179
sg16
S'2015'
p180
sg18
g10
sg20
S'--'
p181
sg22
S'09/13'
p182
sg24
S'22.0'
p183
sg26
S'--'
p184
sg28
S'--'
p185
sg30
S'L28-33'
p186
sg32
S'22'
p187
sg34
g10
sg35
S'@SD'
p188
sg37
S'22'
p189
sg39
g40
sg41
S'--'
p190
ssg58
(dp191
g5
S'--'
p192
sg7
S'--'
p193
sg9
g40
sg11
S'--'
p194
sg13
g10
sg14
S'Lance Moore'
p195
sg16
S'2015'
p196
sg18
g58
sg20
S'--'
p197
sg22
S'09/27'
p198
sg24
S'5.0'
p199
sg26
S'--'
p200
sg28
S'--'
p201
sg30
S'L12-24'
p202
sg32
S'10'
p203
sg34
S'2'
p204
sg35
S'DEN'
p205
sg37
S'5'
p206
sg39
g40
sg41
S'--'
p207
ssg204
(dp208
g5
S'--'
p209
sg7
S'--'
p210
sg9
g40
sg11
g10
sg13
g10
sg14
S'Lance Moore'
p211
sg16
S'2015'
p212
sg18
g204
sg20
S'--'
p213
sg22
S'09/20'
p214
sg24
S'4.7'
p215
sg26
g10
sg28
S'--'
p216
sg30
S'L16-26'
p217
sg32
S'14'
p218
sg34
g58
sg35
S'@MIN'
p219
sg37
S'7'
p220
sg39
g40
sg41
S'--'
p221
ssg206
(dp222
g5
S'--'
p223
sg7
S'--'
p224
sg9
g40
sg11
S'--'
p225
sg13
g10
sg14
S'Lance Moore'
p226
sg16
S'2015'
p227
sg18
g206
sg20
S'--'
p228
sg22
S'10/11'
p229
sg24
S'9.2'
p230
sg26
S'--'
p231
sg28
S'--'
p232
sg30
S'L17-42'
p233
sg32
S'55'
p234
sg34
g172
sg35
S'ARI'
p235
sg37
S'22'
p236
sg39
g10
sg41
S'--'
p237
ssS'4'
p238
(dp239
g5
S'--'
p240
sg7
S'--'
p241
sg9
g10
sg11
S'--'
p242
sg13
g10
sg14
S'Lance Moore'
p243
sg16
S'2015'
p244
sg18
g238
sg20
S'--'
p245
sg22
S'10/05'
p246
sg24
S'10.5'
p247
sg26
S'--'
p248
sg28
S'--'
p249
sg30
S'L10-13'
p250
sg32
S'21'
p251
sg34
g204
sg35
S'@SEA'
p252
sg37
S'17'
p253
sg39
g40
sg41
S'--'
p254
ssg220
(dp255
g5
S'--'
p256
sg7
S'--'
p257
sg9
g40
sg11
S'--'
p258
sg13
g10
sg14
S'Lance Moore'
p259
sg16
S'2015'
p260
sg18
g220
sg20
S'--'
p261
sg22
S'10/25'
p262
sg24
S'--'
p263
sg26
S'--'
p264
sg28
S'--'
p265
sg30
S'L19-28'
p266
sg32
g40
sg34
g40
sg35
S'MIN'
p267
sg37
S'--'
p268
sg39
g40
sg41
S'--'
p269
ssg172
(dp270
g5
S'--'
p271
sg7
S'--'
p272
sg9
g10
sg11
S'--'
p273
sg13
g10
sg14
S'Lance Moore'
p274
sg16
S'2015'
p275
sg18
g172
sg20
S'--'
p276
sg22
S'10/18'
p277
sg24
S'21.2'
p278
sg26
S'--'
p279
sg28
S'--'
p280
sg30
S'W37-34'
p281
sg32
S'106'
p282
sg34
g206
sg35
S'CHI'
p283
sg37
S'42'
p284
sg39
g10
sg41
S'--'
p285
ssS'9'
p286
(dp287
g5
S''
p288
sg7
g288
sg9
g288
sg11
g288
sg13
g288
sg14
S'Lance Moore'
p289
sg16
S'2015'
p290
sg18
g286
sg20
g288
sg22
S'Bye'
p291
sg24
g288
sg26
g288
sg28
g288
sg30
g288
sg32
g288
sg34
g288
sg35
g288
sg37
g288
sg39
g288
sg41
g288
ssS'8'
p292
(dp293
g5
S'--'
p294
sg7
S'--'
p295
sg9
g40
sg11
S'--'
p296
sg13
g10
sg14
S'Lance Moore'
p297
sg16
S'2015'
p298
sg18
g292
sg20
S'--'
p299
sg22
S'11/01'
p300
sg24
S'9.7'
p301
sg26
S'--'
p302
sg28
S'--'
p303
sg30
S'L10-45'
p304
sg32
S'29'
p305
sg34
g58
sg35
S'@KC'
p306
sg37
S'21T'
p307
sg39
g10
sg41
S'--'
p308
sssS'2014'
p309
(dp310
g3
(dp311
g5
S'--'
p312
sg7
S'--'
p313
sg9
g40
sg11
S'--'
p314
sg13
g10
sg14
S'Lance Moore'
p315
sg16
S'2014'
p316
sg18
S'11'
p317
sg20
S'--'
p318
sg22
S'11/17'
p319
sg24
S'15.0'
p320
sg26
S'--'
p321
sg28
S'--'
p322
sg30
S'W27-24'
p323
sg32
S'15'
p324
sg34
g10
sg35
S'@TEN'
p325
sg37
S'15'
p326
sg39
g40
sg41
S'--'
p327
ssg43
(dp328
g5
S'--'
p329
sg7
S'--'
p330
sg9
g40
sg11
S'--'
p331
sg13
g10
sg14
S'Lance Moore'
p332
sg16
S'2014'
p333
sg18
S'10'
p334
sg20
S'--'
p335
sg22
S'11/09'
p336
sg24
S'14.0'
p337
sg26
S'--'
p338
sg28
S'--'
p339
sg30
S'L13-20'
p340
sg32
S'28'
p341
sg34
g204
sg35
S'@NYJ'
p342
sg37
S'15'
p343
sg39
g40
sg41
S'--'
p344
ssg62
(dp345
g5
S'--'
p346
sg7
S'--'
p347
sg9
g40
sg11
S'--'
p348
sg13
g10
sg14
S'Lance Moore'
p349
sg16
S'2014'
p350
sg18
S'13'
p351
sg20
S'--'
p352
sg22
S'11/30'
p353
sg24
S'6.5'
p354
sg26
S'--'
p355
sg28
S'--'
p356
sg30
S'L32-35'
p357
sg32
S'13'
p358
sg34
g204
sg35
S'NO'
p359
sg37
g286
sg39
g40
sg41
S'--'
p360
ssg82
(dp361
g5
g288
sg7
g288
sg9
g288
sg11
g288
sg13
g288
sg14
S'Lance Moore'
p362
sg16
S'2014'
p363
sg18
S'12'
p364
sg20
g288
sg22
S'Bye'
p365
sg24
g288
sg26
g288
sg28
g288
sg30
g288
sg32
g288
sg34
g288
sg35
g288
sg37
g288
sg39
g288
sg41
g288
ssg100
(dp366
g5
S'--'
p367
sg7
S'--'
p368
sg9
g40
sg11
S'--'
p369
sg13
g10
sg14
S'Lance Moore'
p370
sg16
S'2014'
p371
sg18
S'15'
p372
sg20
S'--'
p373
sg22
S'12/14'
p374
sg24
S'--'
p375
sg26
S'--'
p376
sg28
S'--'
p377
sg30
S'W27-20'
p378
sg32
g40
sg34
g40
sg35
S'@ATL'
p379
sg37
S'--'
p380
sg39
g40
sg41
S'--'
p381
ssg118
(dp382
g5
S'--'
p383
sg7
S'--'
p384
sg9
g40
sg11
S'--'
p385
sg13
g10
sg14
S'Lance Moore'
p386
sg16
S'2014'
p387
sg18
S'14'
p388
sg20
S'--'
p389
sg22
S'12/07'
p390
sg24
S'29.0'
p391
sg26
S'--'
p392
sg28
S'--'
p393
sg30
S'W42-21'
p394
sg32
S'29'
p395
sg34
g10
sg35
S'@CIN'
p396
sg37
S'29'
p397
sg39
g40
sg41
S'--'
p398
ssg138
(dp399
g5
S'--'
p400
sg7
S'--'
p401
sg9
g40
sg11
S'--'
p402
sg13
g10
sg14
S'Lance Moore'
p403
sg16
S'2014'
p404
sg18
S'17'
p405
sg20
S'--'
p406
sg22
S'12/28'
p407
sg24
S'--'
p408
sg26
S'--'
p409
sg28
S'--'
p410
sg30
S'W27-17'
p411
sg32
S'--'
p412
sg34
S'--'
p413
sg35
S'CIN'
p414
sg37
S'--'
p415
sg39
S'--'
p416
sg41
S'--'
p417
ssg158
(dp418
g5
S'--'
p419
sg7
S'--'
p420
sg9
g40
sg11
S'--'
p421
sg13
g10
sg14
S'Lance Moore'
p422
sg16
S'2014'
p423
sg18
S'16'
p424
sg20
S'--'
p425
sg22
S'12/21'
p426
sg24
S'--'
p427
sg26
S'--'
p428
sg28
S'--'
p429
sg30
S'W20-12'
p430
sg32
S'--'
p431
sg34
S'--'
p432
sg35
S'KC'
p433
sg37
S'--'
p434
sg39
S'--'
p435
sg41
S'--'
p436
ssg10
(dp437
g5
S'--'
p438
sg7
S'--'
p439
sg9
g40
sg11
S'--'
p440
sg13
g40
sg14
S'Lance Moore'
p441
sg16
S'2014'
p442
sg18
g10
sg20
S'--'
p443
sg22
S'09/07'
p444
sg24
S'--'
p445
sg26
S'--'
p446
sg28
S'--'
p447
sg30
S'W30-27'
p448
sg32
S'--'
p449
sg34
S'--'
p450
sg35
S'CLE'
p451
sg37
S'--'
p452
sg39
S'--'
p453
sg41
S'--'
p454
ssg58
(dp455
g5
S'--'
p456
sg7
S'--'
p457
sg9
g40
sg11
S'--'
p458
sg13
g10
sg14
S'Lance Moore'
p459
sg16
S'2014'
p460
sg18
g58
sg20
S'--'
p461
sg22
S'09/21'
p462
sg24
S'--'
p463
sg26
S'--'
p464
sg28
S'--'
p465
sg30
S'W37-19'
p466
sg32
S'--'
p467
sg34
S'--'
p468
sg35
S'@CAR'
p469
sg37
S'--'
p470
sg39
S'--'
p471
sg41
S'--'
p472
ssg204
(dp473
g5
S'--'
p474
sg7
S'--'
p475
sg9
g40
sg11
S'--'
p476
sg13
g40
sg14
S'Lance Moore'
p477
sg16
S'2014'
p478
sg18
g204
sg20
S'--'
p479
sg22
S'09/11'
p480
sg24
S'--'
p481
sg26
S'--'
p482
sg28
S'--'
p483
sg30
S'L6-26'
p484
sg32
S'--'
p485
sg34
S'--'
p486
sg35
S'@BAL'
p487
sg37
S'--'
p488
sg39
S'--'
p489
sg41
S'--'
p490
ssg206
(dp491
g5
S'--'
p492
sg7
S'--'
p493
sg9
g40
sg11
S'--'
p494
sg13
g10
sg14
S'Lance Moore'
p495
sg16
S'2014'
p496
sg18
g206
sg20
S'--'
p497
sg22
S'10/05'
p498
sg24
S'26.0'
p499
sg26
S'--'
p500
sg28
S'--'
p501
sg30
S'W17-9'
p502
sg32
S'26'
p503
sg34
g10
sg35
S'@JAC'
p504
sg37
S'26'
p505
sg39
g40
sg41
S'--'
p506
ssg238
(dp507
g5
S'--'
p508
sg7
S'--'
p509
sg9
g40
sg11
S'--'
p510
sg13
g10
sg14
S'Lance Moore'
p511
sg16
S'2014'
p512
sg18
g238
sg20
S'--'
p513
sg22
S'09/28'
p514
sg24
S'12.0'
p515
sg26
S'--'
p516
sg28
S'--'
p517
sg30
S'L24-27'
p518
sg32
S'12'
p519
sg34
g10
sg35
S'TB'
p520
sg37
S'12'
p521
sg39
g40
sg41
S'--'
p522
ssg220
(dp523
g5
S'--'
p524
sg7
S'--'
p525
sg9
g10
sg11
S'--'
p526
sg13
g10
sg14
S'Lance Moore'
p527
sg16
S'2014'
p528
sg18
g220
sg20
S'--'
p529
sg22
S'10/20'
p530
sg24
S'6.0'
p531
sg26
S'--'
p532
sg28
S'--'
p533
sg30
S'W30-23'
p534
sg32
S'12'
p535
sg34
g204
sg35
S'HOU'
p536
sg37
g286
sg39
g10
sg41
S'--'
p537
ssg172
(dp538
g5
S'--'
p539
sg7
S'--'
p540
sg9
g10
sg11
S'--'
p541
sg13
g10
sg14
S'Lance Moore'
p542
sg16
S'2014'
p543
sg18
g172
sg20
S'--'
p544
sg22
S'10/12'
p545
sg24
S'26.0'
p546
sg26
S'--'
p547
sg28
S'--'
p548
sg30
S'L10-31'
p549
sg32
S'26'
p550
sg34
g10
sg35
S'@CLE'
p551
sg37
S'26T'
p552
sg39
g10
sg41
S'--'
p553
ssg286
(dp554
g5
S'--'
p555
sg7
S'--'
p556
sg9
g40
sg11
S'--'
p557
sg13
g10
sg14
S'Lance Moore'
p558
sg16
S'2014'
p559
sg18
g286
sg20
S'--'
p560
sg22
S'11/02'
p561
sg24
S'4.0'
p562
sg26
S'--'
p563
sg28
S'--'
p564
sg30
S'W43-23'
p565
sg32
g238
sg34
g10
sg35
S'BAL'
p566
sg37
g238
sg39
g40
sg41
S'--'
p567
ssg292
(dp568
g5
S'--'
p569
sg7
S'--'
p570
sg9
g40
sg11
S'--'
p571
sg13
g10
sg14
S'Lance Moore'
p572
sg16
S'2014'
p573
sg18
g292
sg20
S'--'
p574
sg22
S'10/26'
p575
sg24
S'16.5'
p576
sg26
S'--'
p577
sg28
S'--'
p578
sg30
S'W51-34'
p579
sg32
S'33'
p580
sg34
g204
sg35
S'IND'
p581
sg37
S'26'
p582
sg39
g40
sg41
S'--'
p583
sssS'2011'
p584
(dp585
g3
(dp586
g5
g288
sg7
g288
sg9
g288
sg11
g288
sg13
g288
sg14
S'Lance Moore'
p587
sg16
S'2011'
p588
sg18
S'11'
p589
sg20
g288
sg22
S'Bye'
p590
sg24
g288
sg26
g288
sg28
g288
sg30
g288
sg32
g288
sg34
g288
sg35
g288
sg37
g288
sg39
g288
sg41
g288
ssg43
(dp591
g5
S'--'
p592
sg7
S'--'
p593
sg9
g40
sg11
S'--'
p594
sg13
g10
sg14
S'Lance Moore'
p595
sg16
S'2011'
p596
sg18
S'10'
p597
sg20
S'--'
p598
sg22
S'11/13'
p599
sg24
S'28.0'
p600
sg26
S'--'
p601
sg28
S'--'
p602
sg30
S'W26-23'
p603
sg32
S'28'
p604
sg34
g10
sg35
S'@ATL'
p605
sg37
S'28'
p606
sg39
g40
sg41
S'--'
p607
ssg62
(dp608
g5
S'--'
p609
sg7
S'--'
p610
sg9
g40
sg11
S'--'
p611
sg13
g10
sg14
S'Lance Moore'
p612
sg16
S'2011'
p613
sg18
S'13'
p614
sg20
S'--'
p615
sg22
S'12/04'
p616
sg24
S'11.5'
p617
sg26
S'--'
p618
sg28
S'--'
p619
sg30
S'W31-17'
p620
sg32
S'23'
p621
sg34
g204
sg35
S'DET'
p622
sg37
S'20T'
p623
sg39
g10
sg41
S'--'
p624
ssg82
(dp625
g5
S'--'
p626
sg7
S'--'
p627
sg9
g10
sg11
S'--'
p628
sg13
g10
sg14
S'Lance Moore'
p629
sg16
S'2011'
p630
sg18
S'12'
p631
sg20
S'--'
p632
sg22
S'11/28'
p633
sg24
S'10.8'
p634
sg26
S'--'
p635
sg28
S'--'
p636
sg30
S'W49-24'
p637
sg32
S'54'
p638
sg34
g206
sg35
S'NYG'
p639
sg37
S'20'
p640
sg39
g204
sg41
S'--'
p641
ssg100
(dp642
g5
S'--'
p643
sg7
S'--'
p644
sg9
g40
sg11
S'--'
p645
sg13
g10
sg14
S'Lance Moore'
p646
sg16
S'2011'
p647
sg18
S'15'
p648
sg20
S'--'
p649
sg22
S'12/18'
p650
sg24
S'18.2'
p651
sg26
S'--'
p652
sg28
S'--'
p653
sg30
S'W42-20'
p654
sg32
S'91'
p655
sg34
g206
sg35
S'@MIN'
p656
sg37
S'47T'
p657
sg39
g204
sg41
S'--'
p658
ssg118
(dp659
g5
S'--'
p660
sg7
S'--'
p661
sg9
g10
sg11
S'--'
p662
sg13
g10
sg14
S'Lance Moore'
p663
sg16
S'2011'
p664
sg18
S'14'
p665
sg20
S'--'
p666
sg22
S'12/11'
p667
sg24
S'5.0'
p668
sg26
S'--'
p669
sg28
S'--'
p670
sg30
S'W22-17'
p671
sg32
S'20'
p672
sg34
g238
sg35
S'@TEN'
p673
sg37
g220
sg39
g40
sg41
S'--'
p674
ssg138
(dp675
g5
S'--'
p676
sg7
S'--'
p677
sg9
g40
sg11
S'--'
p678
sg13
g40
sg14
S'Lance Moore'
p679
sg16
S'2011'
p680
sg18
S'17'
p681
sg20
S'--'
p682
sg22
S'01/01'
p683
sg24
S'--'
p684
sg26
S'--'
p685
sg28
S'--'
p686
sg30
S'W45-17'
p687
sg32
S'--'
p688
sg34
S'--'
p689
sg35
S'CAR'
p690
sg37
S'--'
p691
sg39
S'--'
p692
sg41
S'--'
p693
ssg158
(dp694
g5
S'--'
p695
sg7
S'--'
p696
sg9
g10
sg11
S'--'
p697
sg13
g10
sg14
S'Lance Moore'
p698
sg16
S'2011'
p699
sg18
S'16'
p700
sg20
S'--'
p701
sg22
S'12/26'
p702
sg24
S'26.5'
p703
sg26
S'--'
p704
sg28
S'--'
p705
sg30
S'W45-16'
p706
sg32
S'53'
p707
sg34
g204
sg35
S'ATL'
p708
sg37
S'38'
p709
sg39
g40
sg41
S'--'
p710
ssg10
(dp711
g5
S'--'
p712
sg7
S'--'
p713
sg9
g40
sg11
S'--'
p714
sg13
g40
sg14
S'Lance Moore'
p715
sg16
S'2011'
p716
sg18
g10
sg20
S'--'
p717
sg22
S'09/08'
p718
sg24
S'--'
p719
sg26
S'--'
p720
sg28
S'--'
p721
sg30
S'L34-42'
p722
sg32
S'--'
p723
sg34
S'--'
p724
sg35
S'@GB'
p725
sg37
S'--'
p726
sg39
S'--'
p727
sg41
S'--'
p728
ssg58
(dp729
g5
S'--'
p730
sg7
S'--'
p731
sg9
g40
sg11
S'--'
p732
sg13
g10
sg14
S'Lance Moore'
p733
sg16
S'2011'
p734
sg18
g58
sg20
S'--'
p735
sg22
S'09/25'
p736
sg24
S'9.8'
p737
sg26
S'--'
p738
sg28
S'--'
p739
sg30
S'W40-33'
p740
sg32
S'88'
p741
sg34
g286
sg35
S'HOU'
p742
sg37
S'16T'
p743
sg39
g10
sg41
S'--'
p744
ssg204
(dp745
g5
S'--'
p746
sg7
S'--'
p747
sg9
g10
sg11
S'--'
p748
sg13
g10
sg14
S'Lance Moore'
p749
sg16
S'2011'
p750
sg18
g204
sg20
S'--'
p751
sg22
S'09/18'
p752
sg24
S'6.0'
p753
sg26
S'--'
p754
sg28
S'--'
p755
sg30
S'W30-13'
p756
sg32
g172
sg34
g10
sg35
S'CHI'
p757
sg37
g172
sg39
g40
sg41
S'--'
p758
ssg206
(dp759
g5
S'--'
p760
sg7
S'--'
p761
sg9
g10
sg11
S'--'
p762
sg13
g10
sg14
S'Lance Moore'
p763
sg16
S'2011'
p764
sg18
g206
sg20
S'--'
p765
sg22
S'10/09'
p766
sg24
S'10.0'
p767
sg26
S'--'
p768
sg28
S'--'
p769
sg30
S'W30-27'
p770
sg32
S'30'
p771
sg34
g58
sg35
S'@CAR'
p772
sg37
S'13'
p773
sg39
g40
sg41
S'--'
p774
ssg238
(dp775
g5
S'--'
p776
sg7
S'--'
p777
sg9
g10
sg11
S'--'
p778
sg13
g10
sg14
S'Lance Moore'
p779
sg16
S'2011'
p780
sg18
g238
sg20
S'--'
p781
sg22
S'10/02'
p782
sg24
S'10.0'
p783
sg26
S'--'
p784
sg28
S'--'
p785
sg30
S'W23-10'
p786
sg32
S'50'
p787
sg34
g206
sg35
S'@JAC'
p788
sg37
S'21'
p789
sg39
g40
sg41
S'--'
p790
ssg220
(dp791
g5
S'--'
p792
sg7
S'--'
p793
sg9
g40
sg11
S'--'
p794
sg13
g10
sg14
S'Lance Moore'
p795
sg16
S'2011'
p796
sg18
g220
sg20
S'--'
p797
sg22
S'10/23'
p798
sg24
S'14.7'
p799
sg26
S'--'
p800
sg28
S'--'
p801
sg30
S'W62-7'
p802
sg32
S'44'
p803
sg34
g58
sg35
S'IND'
p804
sg37
S'26'
p805
sg39
g40
sg41
S'--'
p806
ssg172
(dp807
g5
S'--'
p808
sg7
S'--'
p809
sg9
g10
sg11
S'--'
p810
sg13
g10
sg14
S'Lance Moore'
p811
sg16
S'2011'
p812
sg18
g172
sg20
S'--'
p813
sg22
S'10/16'
p814
sg24
S'23.0'
p815
sg26
S'--'
p816
sg28
S'--'
p817
sg30
S'L20-26'
p818
sg32
S'46'
p819
sg34
g204
sg35
S'@TB'
p820
sg37
S'40'
p821
sg39
g40
sg41
S'--'
p822
ssg286
(dp823
g5
S'--'
p824
sg7
S'--'
p825
sg9
g40
sg11
S'--'
p826
sg13
g10
sg14
S'Lance Moore'
p827
sg16
S'2011'
p828
sg18
g286
sg20
S'--'
p829
sg22
S'11/06'
p830
sg24
S'6.7'
p831
sg26
S'--'
p832
sg28
S'--'
p833
sg30
S'W27-16'
p834
sg32
S'20'
p835
sg34
g58
sg35
S'TB'
p836
sg37
S'11'
p837
sg39
g10
sg41
S'--'
p838
ssg292
(dp839
g5
S'--'
p840
sg7
S'--'
p841
sg9
g40
sg11
S'--'
p842
sg13
g10
sg14
S'Lance Moore'
p843
sg16
S'2011'
p844
sg18
g292
sg20
S'--'
p845
sg22
S'10/30'
p846
sg24
S'10.6'
p847
sg26
S'--'
p848
sg28
S'--'
p849
sg30
S'L21-31'
p850
sg32
S'74'
p851
sg34
g220
sg35
S'@STL'
p852
sg37
S'17'
p853
sg39
g10
sg41
S'--'
p854
sssS'2010'
p855
(dp856
g3
(dp857
g5
S'--'
p858
sg7
S'--'
p859
sg9
g40
sg11
S'--'
p860
sg13
g10
sg14
S'Lance Moore'
p861
sg16
S'2010'
p862
sg18
S'11'
p863
sg20
S'--'
p864
sg22
S'11/21'
p865
sg24
S'14.3'
p866
sg26
S'--'
p867
sg28
S'--'
p868
sg30
S'W34-19'
p869
sg32
S'43'
p870
sg34
g58
sg35
S'SEA'
p871
sg37
S'29'
p872
sg39
g40
sg41
S'--'
p873
ssg43
(dp874
g5
g288
sg7
g288
sg9
g288
sg11
g288
sg13
g288
sg14
S'Lance Moore'
p875
sg16
S'2010'
p876
sg18
S'10'
p877
sg20
g288
sg22
S'Bye'
p878
sg24
g288
sg26
g288
sg28
g288
sg30
g288
sg32
g288
sg34
g288
sg35
g288
sg37
g288
sg39
g288
sg41
g288
ssg62
(dp879
g5
S'--'
p880
sg7
S'--'
p881
sg9
g10
sg11
S'--'
p882
sg13
g10
sg14
S'Lance Moore'
p883
sg16
S'2010'
p884
sg18
S'13'
p885
sg20
S'--'
p886
sg22
S'12/05'
p887
sg24
S'6.0'
p888
sg26
S'--'
p889
sg28
S'--'
p890
sg30
S'W34-30'
p891
sg32
S'36'
p892
sg34
g172
sg35
S'@CIN'
p893
sg37
g286
sg39
g40
sg41
S'--'
p894
ssg82
(dp895
g5
S'--'
p896
sg7
S'--'
p897
sg9
g40
sg11
S'--'
p898
sg13
g10
sg14
S'Lance Moore'
p899
sg16
S'2010'
p900
sg18
S'12'
p901
sg20
S'--'
p902
sg22
S'11/25'
p903
sg24
S'7.8'
p904
sg26
S'--'
p905
sg28
S'--'
p906
sg30
S'W30-27'
p907
sg32
S'39'
p908
sg34
g206
sg35
S'@DAL'
p909
sg37
S'12T'
p910
sg39
g10
sg41
S'--'
p911
ssg100
(dp912
g5
S'--'
p913
sg7
S'--'
p914
sg9
g40
sg11
S'--'
p915
sg13
g10
sg14
S'Lance Moore'
p916
sg16
S'2010'
p917
sg18
S'15'
p918
sg20
S'--'
p919
sg22
S'12/19'
p920
sg24
S'13.0'
p921
sg26
S'--'
p922
sg28
S'--'
p923
sg30
S'L24-30'
p924
sg32
S'26'
p925
sg34
g204
sg35
S'@BAL'
p926
sg37
S'15T'
p927
sg39
g10
sg41
S'--'
p928
ssg118
(dp929
g5
S'--'
p930
sg7
S'--'
p931
sg9
g40
sg11
S'--'
p932
sg13
g10
sg14
S'Lance Moore'
p933
sg16
S'2010'
p934
sg18
S'14'
p935
sg20
S'--'
p936
sg22
S'12/12'
p937
sg24
S'14.0'
p938
sg26
S'--'
p939
sg28
S'--'
p940
sg30
S'W31-13'
p941
sg32
S'70'
p942
sg34
g206
sg35
S'STL'
p943
sg37
S'31T'
p944
sg39
g10
sg41
S'--'
p945
ssg138
(dp946
g5
S'--'
p947
sg7
S'--'
p948
sg9
g40
sg11
S'--'
p949
sg13
g10
sg14
S'Lance Moore'
p950
sg16
S'2010'
p951
sg18
S'17'
p952
sg20
S'--'
p953
sg22
S'01/02'
p954
sg24
S'8.8'
p955
sg26
S'--'
p956
sg28
S'--'
p957
sg30
S'L13-23'
p958
sg32
S'53'
p959
sg34
g172
sg35
S'TB'
p960
sg37
S'21'
p961
sg39
g40
sg41
S'--'
p962
ssg158
(dp963
g5
S'--'
p964
sg7
S'--'
p965
sg9
g40
sg11
S'--'
p966
sg13
g10
sg14
S'Lance Moore'
p967
sg16
S'2010'
p968
sg18
S'16'
p969
sg20
S'--'
p970
sg22
S'12/27'
p971
sg24
S'12.0'
p972
sg26
S'--'
p973
sg28
S'--'
p974
sg30
S'W17-14'
p975
sg32
S'48'
p976
sg34
g238
sg35
S'@ATL'
p977
sg37
S'18'
p978
sg39
g40
sg41
S'--'
p979
ssg10
(dp980
g5
S'--'
p981
sg7
S'--'
p982
sg9
g40
sg11
S'--'
p983
sg13
g10
sg14
S'Lance Moore'
p984
sg16
S'2010'
p985
sg18
g10
sg20
S'--'
p986
sg22
S'09/09'
p987
sg24
S'7.7'
p988
sg26
S'--'
p989
sg28
S'--'
p990
sg30
S'W14-9'
p991
sg32
S'23'
p992
sg34
g58
sg35
S'MIN'
p993
sg37
S'12'
p994
sg39
g40
sg41
S'--'
p995
ssg58
(dp996
g5
S'--'
p997
sg7
S'--'
p998
sg9
g40
sg11
S'--'
p999
sg13
g10
sg14
S'Lance Moore'
p1000
sg16
S'2010'
p1001
sg18
g58
sg20
S'--'
p1002
sg22
S'09/26'
p1003
sg24
S'24.8'
p1004
sg26
S'--'
p1005
sg28
S'--'
p1006
sg30
S'L24-27'
p1007
sg32
S'149'
p1008
sg34
g172
sg35
S'ATL'
p1009
sg37
S'80T'
p1010
sg39
g204
sg41
S'--'
p1011
ssg204
(dp1012
g5
S'--'
p1013
sg7
S'--'
p1014
sg9
g40
sg11
S'--'
p1015
sg13
g10
sg14
S'Lance Moore'
p1016
sg16
S'2010'
p1017
sg18
g204
sg20
S'--'
p1018
sg22
S'09/20'
p1019
sg24
S'--'
p1020
sg26
S'--'
p1021
sg28
S'--'
p1022
sg30
S'W25-22'
p1023
sg32
S'--'
p1024
sg34
S'--'
p1025
sg35
S'@SF'
p1026
sg37
S'--'
p1027
sg39
S'--'
p1028
sg41
S'--'
p1029
ssg206
(dp1030
g5
S'--'
p1031
sg7
S'--'
p1032
sg9
g40
sg11
S'--'
p1033
sg13
g10
sg14
S'Lance Moore'
p1034
sg16
S'2010'
p1035
sg18
g206
sg20
S'--'
p1036
sg22
S'10/10'
p1037
sg24
S'8.0'
p1038
sg26
S'--'
p1039
sg28
S'--'
p1040
sg30
S'L20-30'
p1041
sg32
g292
sg34
g10
sg35
S'@ARI'
p1042
sg37
g292
sg39
g40
sg41
S'--'
p1043
ssg238
(dp1044
g5
S'--'
p1045
sg7
S'--'
p1046
sg9
g40
sg11
g10
sg13
g10
sg14
S'Lance Moore'
p1047
sg16
S'2010'
p1048
sg18
g238
sg20
S'--'
p1049
sg22
S'10/03'
p1050
sg24
S'7.4'
p1051
sg26
g10
sg28
S'--'
p1052
sg30
S'W16-14'
p1053
sg32
S'37'
p1054
sg34
g206
sg35
S'CAR'
p1055
sg37
S'11'
p1056
sg39
g10
sg41
S'--'
p1057
ssg220
(dp1058
g5
S'--'
p1059
sg7
S'--'
p1060
sg9
g40
sg11
g40
sg13
g10
sg14
S'Lance Moore'
p1061
sg16
S'2010'
p1062
sg18
g220
sg20
S'--'
p1063
sg22
S'10/24'
p1064
sg24
S'8.6'
p1065
sg26
g10
sg28
S'--'
p1066
sg30
S'L17-30'
p1067
sg32
S'43'
p1068
sg34
g206
sg35
S'CLE'
p1069
sg37
S'14'
p1070
sg39
g40
sg41
S'--'
p1071
ssg172
(dp1072
g5
S'--'
p1073
sg7
S'--'
p1074
sg9
g40
sg11
S'--'
p1075
sg13
g10
sg14
S'Lance Moore'
p1076
sg16
S'2010'
p1077
sg18
g172
sg20
S'--'
p1078
sg22
S'10/17'
p1079
sg24
S'28.5'
p1080
sg26
S'--'
p1081
sg28
S'--'
p1082
sg30
S'W31-6'
p1083
sg32
S'57'
p1084
sg34
g204
sg35
S'@TB'
p1085
sg37
S'41T'
p1086
sg39
g10
sg41
S'--'
p1087
ssg286
(dp1088
g5
S'--'
p1089
sg7
S'--'
p1090
sg9
g40
sg11
S'--'
p1091
sg13
g10
sg14
S'Lance Moore'
p1092
sg16
S'2010'
p1093
sg18
g286
sg20
S'--'
p1094
sg22
S'11/07'
p1095
sg24
S'12.8'
p1096
sg26
S'--'
p1097
sg28
S'--'
p1098
sg30
S'W34-3'
p1099
sg32
S'77'
p1100
sg34
g172
sg35
S'@CAR'
p1101
sg37
S'36'
p1102
sg39
g40
sg41
S'--'
p1103
ssg292
(dp1104
g5
S'--'
p1105
sg7
S'--'
p1106
sg9
g40
sg11
S'--'
p1107
sg13
g10
sg14
S'Lance Moore'
p1108
sg16
S'2010'
p1109
sg18
g292
sg20
S'--'
p1110
sg22
S'10/31'
p1111
sg24
S'7.7'
p1112
sg26
S'--'
p1113
sg28
S'--'
p1114
sg30
S'W20-10'
p1115
sg32
S'54'
p1116
sg34
g220
sg35
S'PIT'
p1117
sg37
S'18'
p1118
sg39
g10
sg41
S'--'
p1119
sssS'2013'
p1120
(dp1121
g3
(dp1122
g5
S'--'
p1123
sg7
S'--'
p1124
sg9
g40
sg11
g10
sg13
g10
sg14
S'Lance Moore'
p1125
sg16
S'2013'
p1126
sg18
S'11'
p1127
sg20
S'--'
p1128
sg22
S'11/17'
p1129
sg24
S'7.7'
p1130
sg26
g10
sg28
S'--'
p1131
sg30
S'W23-20'
p1132
sg32
S'23'
p1133
sg34
g58
sg35
S'SF'
p1134
sg37
S'16'
p1135
sg39
g40
sg41
S'--'
p1136
ssg43
(dp1137
g5
S'--'
p1138
sg7
S'--'
p1139
sg9
g40
sg11
S'--'
p1140
sg13
g10
sg14
S'Lance Moore'
p1141
sg16
S'2013'
p1142
sg18
S'10'
p1143
sg20
S'--'
p1144
sg22
S'11/10'
p1145
sg24
S'14.0'
p1146
sg26
S'--'
p1147
sg28
S'--'
p1148
sg30
S'W49-17'
p1149
sg32
S'14'
p1150
sg34
g10
sg35
S'DAL'
p1151
sg37
S'14'
p1152
sg39
g40
sg41
S'--'
p1153
ssg62
(dp1154
g5
S'--'
p1155
sg7
S'--'
p1156
sg9
g10
sg11
S'--'
p1157
sg13
g10
sg14
S'Lance Moore'
p1158
sg16
S'2013'
p1159
sg18
S'13'
p1160
sg20
S'--'
p1161
sg22
S'12/02'
p1162
sg24
S'6.0'
p1163
sg26
S'--'
p1164
sg28
S'--'
p1165
sg30
S'L7-34'
p1166
sg32
S'12'
p1167
sg34
g204
sg35
S'@SEA'
p1168
sg37
g220
sg39
g40
sg41
S'--'
p1169
ssg82
(dp1170
g5
S'--'
p1171
sg7
S'--'
p1172
sg9
g40
sg11
S'--'
p1173
sg13
g10
sg14
S'Lance Moore'
p1174
sg16
S'2013'
p1175
sg18
S'12'
p1176
sg20
S'--'
p1177
sg22
S'11/21'
p1178
sg24
S'11.0'
p1179
sg26
S'--'
p1180
sg28
S'--'
p1181
sg30
S'W17-13'
p1182
sg32
S'22'
p1183
sg34
g204
sg35
S'@ATL'
p1184
sg37
S'17'
p1185
sg39
g40
sg41
S'--'
p1186
ssg100
(dp1187
g5
S'--'
p1188
sg7
S'--'
p1189
sg9
g40
sg11
S'--'
p1190
sg13
g10
sg14
S'Lance Moore'
p1191
sg16
S'2013'
p1192
sg18
S'15'
p1193
sg20
S'--'
p1194
sg22
S'12/15'
p1195
sg24
S'13.0'
p1196
sg26
S'--'
p1197
sg28
S'--'
p1198
sg30
S'L16-27'
p1199
sg32
S'78'
p1200
sg34
g172
sg35
S'@STL'
p1201
sg37
S'30'
p1202
sg39
g40
sg41
S'--'
p1203
ssg118
(dp1204
g5
S'--'
p1205
sg7
S'--'
p1206
sg9
g10
sg11
S'--'
p1207
sg13
g10
sg14
S'Lance Moore'
p1208
sg16
S'2013'
p1209
sg18
S'14'
p1210
sg20
S'--'
p1211
sg22
S'12/08'
p1212
sg24
S'13.3'
p1213
sg26
S'--'
p1214
sg28
S'--'
p1215
sg30
S'W31-13'
p1216
sg32
S'40'
p1217
sg34
g58
sg35
S'CAR'
p1218
sg37
S'21'
p1219
sg39
g40
sg41
S'--'
p1220
ssg138
(dp1221
g5
S'--'
p1222
sg7
S'--'
p1223
sg9
g40
sg11
S'--'
p1224
sg13
g10
sg14
S'Lance Moore'
p1225
sg16
S'2013'
p1226
sg18
S'17'
p1227
sg20
S'--'
p1228
sg22
S'12/29'
p1229
sg24
S'18.3'
p1230
sg26
S'--'
p1231
sg28
S'--'
p1232
sg30
S'W42-17'
p1233
sg32
S'73'
p1234
sg34
g238
sg35
S'TB'
p1235
sg37
S'44T'
p1236
sg39
g10
sg41
S'--'
p1237
ssg158
(dp1238
g5
S'--'
p1239
sg7
S'--'
p1240
sg9
g10
sg11
S'--'
p1241
sg13
g10
sg14
S'Lance Moore'
p1242
sg16
S'2013'
p1243
sg18
S'16'
p1244
sg20
S'--'
p1245
sg22
S'12/22'
p1246
sg24
S'15.7'
p1247
sg26
S'--'
p1248
sg28
S'--'
p1249
sg30
S'L13-17'
p1250
sg32
S'47'
p1251
sg34
g58
sg35
S'@CAR'
p1252
sg37
S'21'
p1253
sg39
g40
sg41
S'--'
p1254
ssg10
(dp1255
g5
S'--'
p1256
sg7
S'--'
p1257
sg9
g10
sg11
S'--'
p1258
sg13
g10
sg14
S'Lance Moore'
p1259
sg16
S'2013'
p1260
sg18
g10
sg20
S'--'
p1261
sg22
S'09/08'
p1262
sg24
S'11.5'
p1263
sg26
S'--'
p1264
sg28
S'--'
p1265
sg30
S'W23-17'
p1266
sg32
S'23'
p1267
sg34
g204
sg35
S'ATL'
p1268
sg37
S'16'
p1269
sg39
g40
sg41
S'--'
p1270
ssg58
(dp1271
g5
S'--'
p1272
sg7
S'--'
p1273
sg9
g40
sg11
S'--'
p1274
sg13
g10
sg14
S'Lance Moore'
p1275
sg16
S'2013'
p1276
sg18
g58
sg20
S'--'
p1277
sg22
S'09/22'
p1278
sg24
S'6.0'
p1279
sg26
S'--'
p1280
sg28
S'--'
p1281
sg30
S'W31-7'
p1282
sg32
g172
sg34
g10
sg35
S'ARI'
p1283
sg37
g172
sg39
g40
sg41
S'--'
p1284
ssg204
(dp1285
g5
S'--'
p1286
sg7
S'--'
p1287
sg9
g10
sg11
S'--'
p1288
sg13
g10
sg14
S'Lance Moore'
p1289
sg16
S'2013'
p1290
sg18
g204
sg20
S'--'
p1291
sg22
S'09/15'
p1292
sg24
S'15.0'
p1293
sg26
S'--'
p1294
sg28
S'--'
p1295
sg30
S'W16-14'
p1296
sg32
S'15'
p1297
sg34
g10
sg35
S'@TB'
p1298
sg37
S'15'
p1299
sg39
g40
sg41
S'--'
p1300
ssg206
(dp1301
g5
S'--'
p1302
sg7
S'--'
p1303
sg9
g40
sg11
S'--'
p1304
sg13
g40
sg14
S'Lance Moore'
p1305
sg16
S'2013'
p1306
sg18
g206
sg20
S'--'
p1307
sg22
S'10/06'
p1308
sg24
S'--'
p1309
sg26
S'--'
p1310
sg28
S'--'
p1311
sg30
S'W26-18'
p1312
sg32
S'--'
p1313
sg34
S'--'
p1314
sg35
S'@CHI'
p1315
sg37
S'--'
p1316
sg39
S'--'
p1317
sg41
S'--'
p1318
ssg238
(dp1319
g5
S'--'
p1320
sg7
S'--'
p1321
sg9
g40
sg11
S'--'
p1322
sg13
g40
sg14
S'Lance Moore'
p1323
sg16
S'2013'
p1324
sg18
g238
sg20
S'--'
p1325
sg22
S'09/30'
p1326
sg24
S'--'
p1327
sg26
S'--'
p1328
sg28
S'--'
p1329
sg30
S'W38-17'
p1330
sg32
S'--'
p1331
sg34
S'--'
p1332
sg35
S'MIA'
p1333
sg37
S'--'
p1334
sg39
S'--'
p1335
sg41
S'--'
p1336
ssg220
(dp1337
g5
g288
sg7
g288
sg9
g288
sg11
g288
sg13
g288
sg14
S'Lance Moore'
p1338
sg16
S'2013'
p1339
sg18
g220
sg20
g288
sg22
S'Bye'
p1340
sg24
g288
sg26
g288
sg28
g288
sg30
g288
sg32
g288
sg34
g288
sg35
g288
sg37
g288
sg39
g288
sg41
g288
ssg172
(dp1341
g5
S'--'
p1342
sg7
S'--'
p1343
sg9
g40
sg11
S'--'
p1344
sg13
g40
sg14
S'Lance Moore'
p1345
sg16
S'2013'
p1346
sg18
g172
sg20
S'--'
p1347
sg22
S'10/13'
p1348
sg24
S'--'
p1349
sg26
S'--'
p1350
sg28
S'--'
p1351
sg30
S'L27-30'
p1352
sg32
S'--'
p1353
sg34
S'--'
p1354
sg35
S'@NE'
p1355
sg37
S'--'
p1356
sg39
S'--'
p1357
sg41
S'--'
p1358
ssg286
(dp1359
g5
S'--'
p1360
sg7
S'--'
p1361
sg9
g40
sg11
S'--'
p1362
sg13
g10
sg14
S'Lance Moore'
p1363
sg16
S'2013'
p1364
sg18
g286
sg20
S'--'
p1365
sg22
S'11/03'
p1366
sg24
S'11.7'
p1367
sg26
S'--'
p1368
sg28
S'--'
p1369
sg30
S'L20-26'
p1370
sg32
S'70'
p1371
sg34
g172
sg35
S'@NYJ'
p1372
sg37
S'25'
p1373
sg39
g40
sg41
S'--'
p1374
ssg292
(dp1375
g5
S'--'
p1376
sg7
S'--'
p1377
sg9
g40
sg11
S'--'
p1378
sg13
g10
sg14
S'Lance Moore'
p1379
sg16
S'2013'
p1380
sg18
g292
sg20
S'--'
p1381
sg22
S'10/27'
p1382
sg24
S'11.3'
p1383
sg26
S'--'
p1384
sg28
S'--'
p1385
sg30
S'W35-17'
p1386
sg32
S'34'
p1387
sg34
g58
sg35
S'BUF'
p1388
sg37
S'15T'
p1389
sg39
g10
sg41
S'--'
p1390
sssS'2012'
p1391
(dp1392
g3
(dp1393
g5
S'--'
p1394
sg7
S'--'
p1395
sg9
g40
sg11
S'--'
p1396
sg13
g10
sg14
S'Lance Moore'
p1397
sg16
S'2012'
p1398
sg18
S'11'
p1399
sg20
S'--'
p1400
sg22
S'11/18'
p1401
sg24
S'26.5'
p1402
sg26
S'--'
p1403
sg28
S'--'
p1404
sg30
S'W38-17'
p1405
sg32
S'53'
p1406
sg34
g204
sg35
S'@OAK'
p1407
sg37
S'38T'
p1408
sg39
g204
sg41
S'--'
p1409
ssg43
(dp1410
g5
S'--'
p1411
sg7
S'--'
p1412
sg9
g10
sg11
S'--'
p1413
sg13
g10
sg14
S'Lance Moore'
p1414
sg16
S'2012'
p1415
sg18
S'10'
p1416
sg20
S'--'
p1417
sg22
S'11/11'
p1418
sg24
S'13.0'
p1419
sg26
S'--'
p1420
sg28
S'--'
p1421
sg30
S'W31-27'
p1422
sg32
S'91'
p1423
sg34
g220
sg35
S'ATL'
p1424
sg37
S'29'
p1425
sg39
g40
sg41
S'--'
p1426
ssg62
(dp1427
g5
S'--'
p1428
sg7
S'--'
p1429
sg9
g40
sg11
S'--'
p1430
sg13
g10
sg14
S'Lance Moore'
p1431
sg16
S'2012'
p1432
sg18
S'13'
p1433
sg20
S'--'
p1434
sg22
S'11/29'
p1435
sg24
S'17.6'
p1436
sg26
S'--'
p1437
sg28
S'--'
p1438
sg30
S'L13-23'
p1439
sg32
S'123'
p1440
sg34
g220
sg35
S'@ATL'
p1441
sg37
S'32'
p1442
sg39
g40
sg41
S'--'
p1443
ssg82
(dp1444
g5
S'--'
p1445
sg7
S'--'
p1446
sg9
g40
sg11
S'--'
p1447
sg13
g10
sg14
S'Lance Moore'
p1448
sg16
S'2012'
p1449
sg18
S'12'
p1450
sg20
S'--'
p1451
sg22
S'11/25'
p1452
sg24
S'20.3'
p1453
sg26
S'--'
p1454
sg28
S'--'
p1455
sg30
S'L21-31'
p1456
sg32
S'61'
p1457
sg34
g58
sg35
S'SF'
p1458
sg37
S'43'
p1459
sg39
g40
sg41
S'--'
p1460
ssg100
(dp1461
g5
S'--'
p1462
sg7
S'--'
p1463
sg9
g10
sg11
S'--'
p1464
sg13
g10
sg14
S'Lance Moore'
p1465
sg16
S'2012'
p1466
sg18
S'15'
p1467
sg20
S'--'
p1468
sg22
S'12/16'
p1469
sg24
S'10.5'
p1470
sg26
S'--'
p1471
sg28
S'--'
p1472
sg30
S'W41-0'
p1473
sg32
S'42'
p1474
sg34
g238
sg35
S'TB'
p1475
sg37
S'16'
p1476
sg39
g10
sg41
S'--'
p1477
ssg118
(dp1478
g5
S'--'
p1479
sg7
S'--'
p1480
sg9
g40
sg11
S'--'
p1481
sg13
g10
sg14
S'Lance Moore'
p1482
sg16
S'2012'
p1483
sg18
S'14'
p1484
sg20
S'--'
p1485
sg22
S'12/09'
p1486
sg24
S'26.0'
p1487
sg26
S'--'
p1488
sg28
S'--'
p1489
sg30
S'L27-52'
p1490
sg32
S'26'
p1491
sg34
g10
sg35
S'@NYG'
p1492
sg37
S'26'
p1493
sg39
g40
sg41
S'--'
p1494
ssg138
(dp1495
g5
S'--'
p1496
sg7
S'--'
p1497
sg9
g10
sg11
S'--'
p1498
sg13
g10
sg14
S'Lance Moore'
p1499
sg16
S'2012'
p1500
sg18
S'17'
p1501
sg20
S'--'
p1502
sg22
S'12/30'
p1503
sg24
S'30.3'
p1504
sg26
S'--'
p1505
sg28
S'--'
p1506
sg30
S'L38-44'
p1507
sg32
S'121'
p1508
sg34
g238
sg35
S'CAR'
p1509
sg37
S'51'
p1510
sg39
g40
sg41
S'--'
p1511
ssg158
(dp1512
g5
S'--'
p1513
sg7
S'--'
p1514
sg9
g40
sg11
S'--'
p1515
sg13
g10
sg14
S'Lance Moore'
p1516
sg16
S'2012'
p1517
sg18
S'16'
p1518
sg20
S'--'
p1519
sg22
S'12/23'
p1520
sg24
S'7.5'
p1521
sg26
S'--'
p1522
sg28
S'--'
p1523
sg30
S'W34-31'
p1524
sg32
S'30'
p1525
sg34
g238
sg35
S'@DAL'
p1526
sg37
S'11'
p1527
sg39
g10
sg41
S'--'
p1528
ssg10
(dp1529
g5
S'--'
p1530
sg7
S'--'
p1531
sg9
g10
sg11
S'--'
p1532
sg13
g10
sg14
S'Lance Moore'
p1533
sg16
S'2012'
p1534
sg18
g10
sg20
S'--'
p1535
sg22
S'09/09'
p1536
sg24
S'20.0'
p1537
sg26
S'--'
p1538
sg28
S'--'
p1539
sg30
S'L32-40'
p1540
sg32
S'120'
p1541
sg34
g172
sg35
S'WAS'
p1542
sg37
S'33T'
p1543
sg39
g10
sg41
S'--'
p1544
ssg58
(dp1545
g5
S'--'
p1546
sg7
S'--'
p1547
sg9
g10
sg11
S'--'
p1548
sg13
g10
sg14
S'Lance Moore'
p1549
sg16
S'2012'
p1550
sg18
g58
sg20
S'--'
p1551
sg22
S'09/23'
p1552
sg24
S'17.5'
p1553
sg26
S'--'
p1554
sg28
S'--'
p1555
sg30
S'L24-27'
p1556
sg32
S'70'
p1557
sg34
g238
sg35
S'KC'
p1558
sg37
S'34'
p1559
sg39
g10
sg41
S'--'
p1560
ssg204
(dp1561
g5
S'--'
p1562
sg7
S'--'
p1563
sg9
g10
sg11
S'--'
p1564
sg13
g10
sg14
S'Lance Moore'
p1565
sg16
S'2012'
p1566
sg18
g204
sg20
S'--'
p1567
sg22
S'09/16'
p1568
sg24
S'15.0'
p1569
sg26
S'--'
p1570
sg28
S'--'
p1571
sg30
S'L27-35'
p1572
sg32
S'30'
p1573
sg34
g204
sg35
S'@CAR'
p1574
sg37
S'17'
p1575
sg39
g40
sg41
S'--'
p1576
ssg206
(dp1577
g5
S'--'
p1578
sg7
S'--'
p1579
sg9
g40
sg11
S'--'
p1580
sg13
g40
sg14
S'Lance Moore'
p1581
sg16
S'2012'
p1582
sg18
g206
sg20
S'--'
p1583
sg22
S'10/07'
p1584
sg24
S'--'
p1585
sg26
S'--'
p1586
sg28
S'--'
p1587
sg30
S'W31-24'
p1588
sg32
S'--'
p1589
sg34
S'--'
p1590
sg35
S'SD'
p1591
sg37
S'--'
p1592
sg39
S'--'
p1593
sg41
S'--'
p1594
ssg238
(dp1595
g5
S'--'
p1596
sg7
S'--'
p1597
sg9
g40
sg11
S'--'
p1598
sg13
g10
sg14
S'Lance Moore'
p1599
sg16
S'2012'
p1600
sg18
g238
sg20
S'--'
p1601
sg22
S'09/30'
p1602
sg24
S'9.6'
p1603
sg26
S'--'
p1604
sg28
S'--'
p1605
sg30
S'L27-28'
p1606
sg32
S'67'
p1607
sg34
g220
sg35
S'@GB'
p1608
sg37
S'19'
p1609
sg39
g40
sg41
S'--'
p1610
ssg220
(dp1611
g5
S'--'
p1612
sg7
S'--'
p1613
sg9
g40
sg11
S'--'
p1614
sg13
g10
sg14
S'Lance Moore'
p1615
sg16
S'2012'
p1616
sg18
g220
sg20
S'--'
p1617
sg22
S'10/21'
p1618
sg24
S'13.4'
p1619
sg26
S'--'
p1620
sg28
S'--'
p1621
sg30
S'W35-28'
p1622
sg32
S'121'
p1623
sg34
g286
sg35
S'@TB'
p1624
sg37
S'35'
p1625
sg39
g40
sg41
S'--'
p1626
ssg172
(dp1627
g5
g288
sg7
g288
sg9
g288
sg11
g288
sg13
g288
sg14
S'Lance Moore'
p1628
sg16
S'2012'
p1629
sg18
g172
sg20
g288
sg22
S'Bye'
p1630
sg24
g288
sg26
g288
sg28
g288
sg30
g288
sg32
g288
sg34
g288
sg35
g288
sg37
g288
sg39
g288
sg41
g288
ssg286
(dp1631
g5
S'--'
p1632
sg7
S'--'
p1633
sg9
g40
sg11
S'--'
p1634
sg13
g10
sg14
S'Lance Moore'
p1635
sg16
S'2012'
p1636
sg18
g286
sg20
S'--'
p1637
sg22
S'11/05'
p1638
sg24
S'30.5'
p1639
sg26
S'--'
p1640
sg28
S'--'
p1641
sg30
S'W28-13'
p1642
sg32
S'61'
p1643
sg34
g204
sg35
S'PHI'
p1644
sg37
S'38'
p1645
sg39
g40
sg41
S'--'
p1646
ssg292
(dp1647
g5
S'--'
p1648
sg7
S'--'
p1649
sg9
g10
sg11
S'--'
p1650
sg13
g10
sg14
S'Lance Moore'
p1651
sg16
S'2012'
p1652
sg18
g292
sg20
S'--'
p1653
sg22
S'10/28'
p1654
sg24
S'8.3'
p1655
sg26
S'--'
p1656
sg28
S'--'
p1657
sg30
S'L14-34'
p1658
sg32
S'25'
p1659
sg34
g58
sg35
S'@DEN'
p1660
sg37
S'12'
p1661
sg39
g40
sg41
S'--'
p1662
sss.