(dp0
S'2014'
p1
(dp2
S'1'
p3
(dp4
S'RushTD'
p5
S'--'
p6
sS'RushYds'
p7
S'--'
p8
sS'GS'
p9
S'0'
p10
sS'Lost'
p11
S'--'
p12
sS'G'
p13
g3
sS'Player'
p14
S'LaRon Byrd'
p15
sS'Year'
p16
S'2014'
p17
sS'WK'
p18
g3
sS'RushAvg'
p19
S'--'
p20
sS'Game Date'
p21
S'09/07'
p22
sS'RecAvg'
p23
S'--'
p24
sS'FUM'
p25
S'--'
p26
sS'RushAtt'
p27
S'--'
p28
sS'Result'
p29
S'L27-30'
p30
sS'RecYds'
p31
S'--'
p32
sS'Rec'
p33
S'--'
p34
sS'Opp'
p35
S'@PIT'
p36
sS'RecLng'
p37
S'--'
p38
sS'RecTD'
p39
S'--'
p40
sS'RushLng'
p41
S'--'
p42
ssS'3'
p43
(dp44
g5
S'--'
p45
sg7
S'--'
p46
sg9
g10
sg11
S'--'
p47
sg13
g10
sg14
S'LaRon Byrd'
p48
sg16
S'2014'
p49
sg18
g43
sg19
S'--'
p50
sg21
S'09/21'
p51
sg23
S'--'
p52
sg25
S'--'
p53
sg27
S'--'
p54
sg29
S'L21-23'
p55
sg31
S'--'
p56
sg33
S'--'
p57
sg35
S'BAL'
p58
sg37
S'--'
p59
sg39
S'--'
p60
sg41
S'--'
p61
ssS'2'
p62
(dp63
g5
S'--'
p64
sg7
S'--'
p65
sg9
g10
sg11
S'--'
p66
sg13
g10
sg14
S'LaRon Byrd'
p67
sg16
S'2014'
p68
sg18
g62
sg19
S'--'
p69
sg21
S'09/14'
p70
sg23
S'--'
p71
sg25
S'--'
p72
sg27
S'--'
p73
sg29
S'W26-24'
p74
sg31
S'--'
p75
sg33
S'--'
p76
sg35
S'NO'
p77
sg37
S'--'
p78
sg39
S'--'
p79
sg41
S'--'
p80
sssS'2012'
p81
(dp82
S'11'
p83
(dp84
g5
S'--'
p85
sg7
S'--'
p86
sg9
g10
sg11
S'--'
p87
sg13
g10
sg14
S'LaRon Byrd'
p88
sg16
S'2012'
p89
sg18
S'11'
p90
sg19
S'--'
p91
sg21
S'11/18'
p92
sg23
S'--'
p93
sg25
S'--'
p94
sg27
S'--'
p95
sg29
S'L19-23'
p96
sg31
S'--'
p97
sg33
S'--'
p98
sg35
S'@ATL'
p99
sg37
S'--'
p100
sg39
S'--'
p101
sg41
S'--'
p102
ssS'10'
p103
(dp104
g5
S''
p105
sg7
g105
sg9
g105
sg11
g105
sg13
g105
sg14
S'LaRon Byrd'
p106
sg16
S'2012'
p107
sg18
S'10'
p108
sg19
g105
sg21
S'Bye'
p109
sg23
g105
sg25
g105
sg27
g105
sg29
g105
sg31
g105
sg33
g105
sg35
g105
sg37
g105
sg39
g105
sg41
g105
ssS'13'
p110
(dp111
g5
S'--'
p112
sg7
S'--'
p113
sg9
g10
sg11
S'--'
p114
sg13
g10
sg14
S'LaRon Byrd'
p115
sg16
S'2012'
p116
sg18
S'13'
p117
sg19
S'--'
p118
sg21
S'12/02'
p119
sg23
S'--'
p120
sg25
S'--'
p121
sg27
S'--'
p122
sg29
S'L6-7'
p123
sg31
S'--'
p124
sg33
S'--'
p125
sg35
S'@NYJ'
p126
sg37
S'--'
p127
sg39
S'--'
p128
sg41
S'--'
p129
ssS'12'
p130
(dp131
g5
S'--'
p132
sg7
S'--'
p133
sg9
g10
sg11
S'--'
p134
sg13
g3
sg14
S'LaRon Byrd'
p135
sg16
S'2012'
p136
sg18
S'12'
p137
sg19
S'--'
p138
sg21
S'11/25'
p139
sg23
S'--'
p140
sg25
S'--'
p141
sg27
S'--'
p142
sg29
S'L17-31'
p143
sg31
g10
sg33
g10
sg35
S'STL'
p144
sg37
S'--'
p145
sg39
g10
sg41
S'--'
p146
ssS'15'
p147
(dp148
g5
S'--'
p149
sg7
S'--'
p150
sg9
g10
sg11
S'--'
p151
sg13
g3
sg14
S'LaRon Byrd'
p152
sg16
S'2012'
p153
sg18
S'15'
p154
sg19
S'--'
p155
sg21
S'12/16'
p156
sg23
S'--'
p157
sg25
S'--'
p158
sg27
S'--'
p159
sg29
S'W38-10'
p160
sg31
S'--'
p161
sg33
S'--'
p162
sg35
S'DET'
p163
sg37
S'--'
p164
sg39
S'--'
p165
sg41
S'--'
p166
ssS'14'
p167
(dp168
g5
S'--'
p169
sg7
S'--'
p170
sg9
g10
sg11
S'--'
p171
sg13
g10
sg14
S'LaRon Byrd'
p172
sg16
S'2012'
p173
sg18
S'14'
p174
sg19
S'--'
p175
sg21
S'12/09'
p176
sg23
S'--'
p177
sg25
S'--'
p178
sg27
S'--'
p179
sg29
S'L0-58'
p180
sg31
S'--'
p181
sg33
S'--'
p182
sg35
S'@SEA'
p183
sg37
S'--'
p184
sg39
S'--'
p185
sg41
S'--'
p186
ssS'17'
p187
(dp188
g5
S'--'
p189
sg7
S'--'
p190
sg9
g10
sg11
S'--'
p191
sg13
g10
sg14
S'LaRon Byrd'
p192
sg16
S'2012'
p193
sg18
S'17'
p194
sg19
S'--'
p195
sg21
S'12/30'
p196
sg23
S'--'
p197
sg25
S'--'
p198
sg27
S'--'
p199
sg29
S'L13-27'
p200
sg31
S'--'
p201
sg33
S'--'
p202
sg35
S'@SF'
p203
sg37
S'--'
p204
sg39
S'--'
p205
sg41
S'--'
p206
ssS'16'
p207
(dp208
g5
S'--'
p209
sg7
S'--'
p210
sg9
g10
sg11
S'--'
p211
sg13
g3
sg14
S'LaRon Byrd'
p212
sg16
S'2012'
p213
sg18
S'16'
p214
sg19
S'--'
p215
sg21
S'12/23'
p216
sg23
S'8.0'
p217
sg25
S'--'
p218
sg27
S'--'
p219
sg29
S'L13-28'
p220
sg31
S'8'
p221
sg33
g3
sg35
S'CHI'
p222
sg37
g221
sg39
g10
sg41
S'--'
p223
ssg3
(dp224
g5
S'--'
p225
sg7
S'--'
p226
sg9
g10
sg11
S'--'
p227
sg13
g10
sg14
S'LaRon Byrd'
p228
sg16
S'2012'
p229
sg18
g3
sg19
S'--'
p230
sg21
S'09/09'
p231
sg23
S'--'
p232
sg25
S'--'
p233
sg27
S'--'
p234
sg29
S'W20-16'
p235
sg31
S'--'
p236
sg33
S'--'
p237
sg35
S'SEA'
p238
sg37
S'--'
p239
sg39
S'--'
p240
sg41
S'--'
p241
ssg43
(dp242
g5
S'--'
p243
sg7
S'--'
p244
sg9
g10
sg11
S'--'
p245
sg13
g10
sg14
S'LaRon Byrd'
p246
sg16
S'2012'
p247
sg18
g43
sg19
S'--'
p248
sg21
S'09/23'
p249
sg23
S'--'
p250
sg25
S'--'
p251
sg27
S'--'
p252
sg29
S'W27-6'
p253
sg31
S'--'
p254
sg33
S'--'
p255
sg35
S'PHI'
p256
sg37
S'--'
p257
sg39
S'--'
p258
sg41
S'--'
p259
ssg62
(dp260
g5
S'--'
p261
sg7
S'--'
p262
sg9
g10
sg11
S'--'
p263
sg13
g10
sg14
S'LaRon Byrd'
p264
sg16
S'2012'
p265
sg18
g62
sg19
S'--'
p266
sg21
S'09/16'
p267
sg23
S'--'
p268
sg25
S'--'
p269
sg27
S'--'
p270
sg29
S'W20-18'
p271
sg31
S'--'
p272
sg33
S'--'
p273
sg35
S'@NE'
p274
sg37
S'--'
p275
sg39
S'--'
p276
sg41
S'--'
p277
ssS'5'
p278
(dp279
g5
S'--'
p280
sg7
S'--'
p281
sg9
g10
sg11
S'--'
p282
sg13
g10
sg14
S'LaRon Byrd'
p283
sg16
S'2012'
p284
sg18
g278
sg19
S'--'
p285
sg21
S'10/04'
p286
sg23
S'--'
p287
sg25
S'--'
p288
sg27
S'--'
p289
sg29
S'L3-17'
p290
sg31
S'--'
p291
sg33
S'--'
p292
sg35
S'@STL'
p293
sg37
S'--'
p294
sg39
S'--'
p295
sg41
S'--'
p296
ssS'4'
p297
(dp298
g5
S'--'
p299
sg7
S'--'
p300
sg9
g10
sg11
S'--'
p301
sg13
g10
sg14
S'LaRon Byrd'
p302
sg16
S'2012'
p303
sg18
g297
sg19
S'--'
p304
sg21
S'09/30'
p305
sg23
S'--'
p306
sg25
S'--'
p307
sg27
S'--'
p308
sg29
S'W24-21'
p309
sg31
S'--'
p310
sg33
S'--'
p311
sg35
S'MIA'
p312
sg37
S'--'
p313
sg39
S'--'
p314
sg41
S'--'
p315
ssS'7'
p316
(dp317
g5
S'--'
p318
sg7
S'--'
p319
sg9
g10
sg11
S'--'
p320
sg13
g10
sg14
S'LaRon Byrd'
p321
sg16
S'2012'
p322
sg18
g316
sg19
S'--'
p323
sg21
S'10/21'
p324
sg23
S'--'
p325
sg25
S'--'
p326
sg27
S'--'
p327
sg29
S'L14-21'
p328
sg31
S'--'
p329
sg33
S'--'
p330
sg35
S'@MIN'
p331
sg37
S'--'
p332
sg39
S'--'
p333
sg41
S'--'
p334
ssS'6'
p335
(dp336
g5
S'--'
p337
sg7
S'--'
p338
sg9
g10
sg11
S'--'
p339
sg13
g3
sg14
S'LaRon Byrd'
p340
sg16
S'2012'
p341
sg18
g335
sg19
S'--'
p342
sg21
S'10/14'
p343
sg23
S'--'
p344
sg25
S'--'
p345
sg27
S'--'
p346
sg29
S'L16-19'
p347
sg31
S'--'
p348
sg33
S'--'
p349
sg35
S'BUF'
p350
sg37
S'--'
p351
sg39
S'--'
p352
sg41
S'--'
p353
ssS'9'
p354
(dp355
g5
S'--'
p356
sg7
S'--'
p357
sg9
g10
sg11
S'--'
p358
sg13
g10
sg14
S'LaRon Byrd'
p359
sg16
S'2012'
p360
sg18
g354
sg19
S'--'
p361
sg21
S'11/04'
p362
sg23
S'--'
p363
sg25
S'--'
p364
sg27
S'--'
p365
sg29
S'L17-31'
p366
sg31
S'--'
p367
sg33
S'--'
p368
sg35
S'@GB'
p369
sg37
S'--'
p370
sg39
S'--'
p371
sg41
S'--'
p372
ssg221
(dp373
g5
S'--'
p374
sg7
S'--'
p375
sg9
g10
sg11
S'--'
p376
sg13
g10
sg14
S'LaRon Byrd'
p377
sg16
S'2012'
p378
sg18
g221
sg19
S'--'
p379
sg21
S'10/29'
p380
sg23
S'--'
p381
sg25
S'--'
p382
sg27
S'--'
p383
sg29
S'L3-24'
p384
sg31
S'--'
p385
sg33
S'--'
p386
sg35
S'SF'
p387
sg37
S'--'
p388
sg39
S'--'
p389
sg41
S'--'
p390
sss.