(dp0
S'2015'
p1
(dp2
S'11'
p3
(dp4
S'RushTD'
p5
S'--'
p6
sS'RushYds'
p7
S'--'
p8
sS'GS'
p9
S'0'
p10
sS'Lost'
p11
S'--'
p12
sS'G'
p13
S'1'
p14
sS'Player'
p15
S'Leonard Hankerson'
p16
sS'Year'
p17
S'2015'
p18
sS'WK'
p19
S'11'
p20
sS'RushAvg'
p21
S'--'
p22
sS'Game Date'
p23
S'11/22'
p24
sS'RecAvg'
p25
S'9.0'
p26
sS'FUM'
p27
S'--'
p28
sS'RushAtt'
p29
S'--'
p30
sS'Result'
p31
S'L21-24'
p32
sS'RecYds'
p33
S'36'
p34
sS'Rec'
p35
S'4'
p36
sS'Opp'
p37
S'IND'
p38
sS'RecLng'
p39
S'18'
p40
sS'RecTD'
p41
g14
sS'RushLng'
p42
S'--'
p43
ssS'10'
p44
(dp45
g5
S''
p46
sg7
g46
sg9
g46
sg11
g46
sg13
g46
sg15
S'Leonard Hankerson'
p47
sg17
S'2015'
p48
sg19
S'10'
p49
sg21
g46
sg23
S'Bye'
p50
sg25
g46
sg27
g46
sg29
g46
sg31
g46
sg33
g46
sg35
g46
sg37
g46
sg39
g46
sg41
g46
sg42
g46
ssS'12'
p51
(dp52
g5
S'--'
p53
sg7
S'--'
p54
sg9
g10
sg11
S'--'
p55
sg13
g10
sg15
S'Leonard Hankerson'
p56
sg17
S'2015'
p57
sg19
S'12'
p58
sg21
S'--'
p59
sg23
S'11/29'
p60
sg25
S'--'
p61
sg27
S'--'
p62
sg29
S'--'
p63
sg31
S'L10-20'
p64
sg33
S'--'
p65
sg35
S'--'
p66
sg37
S'MIN'
p67
sg39
S'--'
p68
sg41
S'--'
p69
sg42
S'--'
p70
ssS'15'
p71
(dp72
g5
S'--'
p73
sg7
S'--'
p74
sg9
g10
sg11
S'--'
p75
sg13
g14
sg15
S'Leonard Hankerson'
p76
sg17
S'2015'
p77
sg19
S'15'
p78
sg21
S'--'
p79
sg23
S'12/20'
p80
sg25
S'--'
p81
sg27
S'--'
p82
sg29
S'--'
p83
sg31
S'W33-16'
p84
sg33
S'--'
p85
sg35
S'--'
p86
sg37
S'TEN'
p87
sg39
S'--'
p88
sg41
S'--'
p89
sg42
S'--'
p90
ssS'17'
p91
(dp92
g5
S'--'
p93
sg7
S'--'
p94
sg9
g10
sg11
S'--'
p95
sg13
g14
sg15
S'Leonard Hankerson'
p96
sg17
S'2015'
p97
sg19
S'17'
p98
sg21
S'--'
p99
sg23
S'01/03'
p100
sg25
S'--'
p101
sg27
S'--'
p102
sg29
S'--'
p103
sg31
S'W22-17'
p104
sg33
S'--'
p105
sg35
S'--'
p106
sg37
S'NYJ'
p107
sg39
S'--'
p108
sg41
S'--'
p109
sg42
S'--'
p110
ssg14
(dp111
g5
S'--'
p112
sg7
S'--'
p113
sg9
g10
sg11
S'--'
p114
sg13
g14
sg15
S'Leonard Hankerson'
p115
sg17
S'2015'
p116
sg19
g14
sg21
S'--'
p117
sg23
S'09/14'
p118
sg25
S'8.0'
p119
sg27
S'--'
p120
sg29
S'--'
p121
sg31
S'W26-24'
p122
sg33
S'16'
p123
sg35
S'2'
p124
sg37
S'PHI'
p125
sg39
S'13'
p126
sg41
g10
sg42
S'--'
p127
ssS'3'
p128
(dp129
g5
S'--'
p130
sg7
S'--'
p131
sg9
g10
sg11
S'--'
p132
sg13
g14
sg15
S'Leonard Hankerson'
p133
sg17
S'2015'
p134
sg19
g128
sg21
S'--'
p135
sg23
S'09/27'
p136
sg25
S'15.0'
p137
sg27
S'--'
p138
sg29
S'--'
p139
sg31
S'W39-28'
p140
sg33
S'45'
p141
sg35
g128
sg37
S'@DAL'
p142
sg39
S'21'
p143
sg41
g10
sg42
S'--'
p144
ssg124
(dp145
g5
S'--'
p146
sg7
S'--'
p147
sg9
g10
sg11
S'--'
p148
sg13
g14
sg15
S'Leonard Hankerson'
p149
sg17
S'2015'
p150
sg19
g124
sg21
S'--'
p151
sg23
S'09/20'
p152
sg25
S'12.8'
p153
sg27
S'--'
p154
sg29
S'--'
p155
sg31
S'W24-20'
p156
sg33
S'77'
p157
sg35
S'6'
p158
sg37
S'@NYG'
p159
sg39
S'20'
p160
sg41
g14
sg42
S'--'
p161
ssS'5'
p162
(dp163
g5
S'--'
p164
sg7
S'--'
p165
sg9
g10
sg11
S'--'
p166
sg13
g14
sg15
S'Leonard Hankerson'
p167
sg17
S'2015'
p168
sg19
g162
sg21
S'--'
p169
sg23
S'10/11'
p170
sg25
S'13.0'
p171
sg27
S'--'
p172
sg29
S'--'
p173
sg31
S'W25-19'
p174
sg33
S'13'
p175
sg35
g14
sg37
S'WAS'
p176
sg39
S'13'
p177
sg41
g10
sg42
S'--'
p178
ssg36
(dp179
g5
S'--'
p180
sg7
S'--'
p181
sg9
g10
sg11
S'--'
p182
sg13
g14
sg15
S'Leonard Hankerson'
p183
sg17
S'2015'
p184
sg19
g36
sg21
S'--'
p185
sg23
S'10/04'
p186
sg25
S'17.2'
p187
sg27
S'--'
p188
sg29
S'--'
p189
sg31
S'W48-21'
p190
sg33
S'103'
p191
sg35
g158
sg37
S'HOU'
p192
sg39
S'55'
p193
sg41
g14
sg42
S'--'
p194
ssS'7'
p195
(dp196
g5
S'--'
p197
sg7
S'--'
p198
sg9
g10
sg11
S'--'
p199
sg13
g14
sg15
S'Leonard Hankerson'
p200
sg17
S'2015'
p201
sg19
g195
sg21
S'--'
p202
sg23
S'10/25'
p203
sg25
S'--'
p204
sg27
S'--'
p205
sg29
S'--'
p206
sg31
S'W10-7'
p207
sg33
S'--'
p208
sg35
S'--'
p209
sg37
S'@TEN'
p210
sg39
S'--'
p211
sg41
S'--'
p212
sg42
S'--'
p213
ssg158
(dp214
g5
S'--'
p215
sg7
S'--'
p216
sg9
g10
sg11
S'--'
p217
sg13
g14
sg15
S'Leonard Hankerson'
p218
sg17
S'2015'
p219
sg19
g158
sg21
S'--'
p220
sg23
S'10/15'
p221
sg25
S'9.3'
p222
sg27
S'--'
p223
sg29
S'--'
p224
sg31
S'L21-31'
p225
sg33
S'37'
p226
sg35
g36
sg37
S'@NO'
p227
sg39
S'12'
p228
sg41
g10
sg42
S'--'
p229
ssS'9'
p230
(dp231
g5
S'--'
p232
sg7
S'--'
p233
sg9
g10
sg11
S'--'
p234
sg13
g10
sg15
S'Leonard Hankerson'
p235
sg17
S'2015'
p236
sg19
g230
sg21
S'--'
p237
sg23
S'11/08'
p238
sg25
S'--'
p239
sg27
S'--'
p240
sg29
S'--'
p241
sg31
S'L16-17'
p242
sg33
S'--'
p243
sg35
S'--'
p244
sg37
S'@SF'
p245
sg39
S'--'
p246
sg41
S'--'
p247
sg42
S'--'
p248
ssS'8'
p249
(dp250
g5
S'--'
p251
sg7
S'--'
p252
sg9
g10
sg11
S'--'
p253
sg13
g10
sg15
S'Leonard Hankerson'
p254
sg17
S'2015'
p255
sg19
g249
sg21
S'--'
p256
sg23
S'11/01'
p257
sg25
S'--'
p258
sg27
S'--'
p259
sg29
S'--'
p260
sg31
S'L20-23'
p261
sg33
S'--'
p262
sg35
S'--'
p263
sg37
S'TB'
p264
sg39
S'--'
p265
sg41
S'--'
p266
sg42
S'--'
p267
sssS'2014'
p268
(dp269
g3
(dp270
g5
S'--'
p271
sg7
S'--'
p272
sg9
g10
sg11
S'--'
p273
sg13
g14
sg15
S'Leonard Hankerson'
p274
sg17
S'2014'
p275
sg19
S'11'
p276
sg21
S'--'
p277
sg23
S'11/16'
p278
sg25
S'--'
p279
sg27
S'--'
p280
sg29
S'--'
p281
sg31
S'L7-27'
p282
sg33
g10
sg35
g10
sg37
S'TB'
p283
sg39
S'--'
p284
sg41
g10
sg42
S'--'
p285
ssg44
(dp286
g5
g46
sg7
g46
sg9
g46
sg11
g46
sg13
g46
sg15
S'Leonard Hankerson'
p287
sg17
S'2014'
p288
sg19
S'10'
p289
sg21
g46
sg23
S'Bye'
p290
sg25
g46
sg27
g46
sg29
g46
sg31
g46
sg33
g46
sg35
g46
sg37
g46
sg39
g46
sg41
g46
sg42
g46
ssS'13'
p291
(dp292
g5
S'--'
p293
sg7
S'--'
p294
sg9
g10
sg11
S'--'
p295
sg13
g10
sg15
S'Leonard Hankerson'
p296
sg17
S'2014'
p297
sg19
S'13'
p298
sg21
S'--'
p299
sg23
S'11/30'
p300
sg25
S'--'
p301
sg27
S'--'
p302
sg29
S'--'
p303
sg31
S'L27-49'
p304
sg33
S'--'
p305
sg35
S'--'
p306
sg37
S'@IND'
p307
sg39
S'--'
p308
sg41
S'--'
p309
sg42
S'--'
p310
ssg51
(dp311
g5
S'--'
p312
sg7
S'--'
p313
sg9
g10
sg11
S'--'
p314
sg13
g10
sg15
S'Leonard Hankerson'
p315
sg17
S'2014'
p316
sg19
S'12'
p317
sg21
S'--'
p318
sg23
S'11/23'
p319
sg25
S'--'
p320
sg27
S'--'
p321
sg29
S'--'
p322
sg31
S'L13-17'
p323
sg33
S'--'
p324
sg35
S'--'
p325
sg37
S'@SF'
p326
sg39
S'--'
p327
sg41
S'--'
p328
sg42
S'--'
p329
ssg71
(dp330
g5
S'--'
p331
sg7
S'--'
p332
sg9
g10
sg11
S'--'
p333
sg13
g10
sg15
S'Leonard Hankerson'
p334
sg17
S'2014'
p335
sg19
S'15'
p336
sg21
S'--'
p337
sg23
S'12/14'
p338
sg25
S'--'
p339
sg27
S'--'
p340
sg29
S'--'
p341
sg31
S'L13-24'
p342
sg33
S'--'
p343
sg35
S'--'
p344
sg37
S'@NYG'
p345
sg39
S'--'
p346
sg41
S'--'
p347
sg42
S'--'
p348
ssS'14'
p349
(dp350
g5
S'--'
p351
sg7
S'--'
p352
sg9
g10
sg11
S'--'
p353
sg13
g10
sg15
S'Leonard Hankerson'
p354
sg17
S'2014'
p355
sg19
S'14'
p356
sg21
S'--'
p357
sg23
S'12/07'
p358
sg25
S'--'
p359
sg27
S'--'
p360
sg29
S'--'
p361
sg31
S'L0-24'
p362
sg33
S'--'
p363
sg35
S'--'
p364
sg37
S'STL'
p365
sg39
S'--'
p366
sg41
S'--'
p367
sg42
S'--'
p368
ssg91
(dp369
g5
S'--'
p370
sg7
S'--'
p371
sg9
g10
sg11
S'--'
p372
sg13
g10
sg15
S'Leonard Hankerson'
p373
sg17
S'2014'
p374
sg19
S'17'
p375
sg21
S'--'
p376
sg23
S'12/28'
p377
sg25
S'--'
p378
sg27
S'--'
p379
sg29
S'--'
p380
sg31
S'L17-44'
p381
sg33
S'--'
p382
sg35
S'--'
p383
sg37
S'DAL'
p384
sg39
S'--'
p385
sg41
S'--'
p386
sg42
S'--'
p387
ssS'16'
p388
(dp389
g5
S'--'
p390
sg7
S'--'
p391
sg9
g10
sg11
S'--'
p392
sg13
g10
sg15
S'Leonard Hankerson'
p393
sg17
S'2014'
p394
sg19
S'16'
p395
sg21
S'--'
p396
sg23
S'12/20'
p397
sg25
S'--'
p398
sg27
S'--'
p399
sg29
S'--'
p400
sg31
S'W27-24'
p401
sg33
S'--'
p402
sg35
S'--'
p403
sg37
S'PHI'
p404
sg39
S'--'
p405
sg41
S'--'
p406
sg42
S'--'
p407
sssS'2011'
p408
(dp409
g44
(dp410
g5
S'--'
p411
sg7
S'--'
p412
sg9
g14
sg11
S'--'
p413
sg13
g14
sg15
S'Leonard Hankerson'
p414
sg17
S'2011'
p415
sg19
S'10'
p416
sg21
S'--'
p417
sg23
S'11/13'
p418
sg25
S'13.3'
p419
sg27
S'--'
p420
sg29
S'--'
p421
sg31
S'L9-20'
p422
sg33
S'106'
p423
sg35
g249
sg37
S'@MIA'
p424
sg39
S'22'
p425
sg41
g10
sg42
S'--'
p426
ssg14
(dp427
g5
S'--'
p428
sg7
S'--'
p429
sg9
g10
sg11
S'--'
p430
sg13
g10
sg15
S'Leonard Hankerson'
p431
sg17
S'2011'
p432
sg19
g14
sg21
S'--'
p433
sg23
S'09/11'
p434
sg25
S'--'
p435
sg27
S'--'
p436
sg29
S'--'
p437
sg31
S'W28-14'
p438
sg33
S'--'
p439
sg35
S'--'
p440
sg37
S'NYG'
p441
sg39
S'--'
p442
sg41
S'--'
p443
sg42
S'--'
p444
ssg128
(dp445
g5
S'--'
p446
sg7
S'--'
p447
sg9
g10
sg11
S'--'
p448
sg13
g10
sg15
S'Leonard Hankerson'
p449
sg17
S'2011'
p450
sg19
g128
sg21
S'--'
p451
sg23
S'09/26'
p452
sg25
S'--'
p453
sg27
S'--'
p454
sg29
S'--'
p455
sg31
S'L16-18'
p456
sg33
S'--'
p457
sg35
S'--'
p458
sg37
S'@DAL'
p459
sg39
S'--'
p460
sg41
S'--'
p461
sg42
S'--'
p462
ssg124
(dp463
g5
S'--'
p464
sg7
S'--'
p465
sg9
g10
sg11
S'--'
p466
sg13
g10
sg15
S'Leonard Hankerson'
p467
sg17
S'2011'
p468
sg19
g124
sg21
S'--'
p469
sg23
S'09/18'
p470
sg25
S'--'
p471
sg27
S'--'
p472
sg29
S'--'
p473
sg31
S'W22-21'
p474
sg33
S'--'
p475
sg35
S'--'
p476
sg37
S'ARI'
p477
sg39
S'--'
p478
sg41
S'--'
p479
sg42
S'--'
p480
ssg162
(dp481
g5
g46
sg7
g46
sg9
g46
sg11
g46
sg13
g46
sg15
S'Leonard Hankerson'
p482
sg17
S'2011'
p483
sg19
g162
sg21
g46
sg23
S'Bye'
p484
sg25
g46
sg27
g46
sg29
g46
sg31
g46
sg33
g46
sg35
g46
sg37
g46
sg39
g46
sg41
g46
sg42
g46
ssg36
(dp485
g5
S'--'
p486
sg7
S'--'
p487
sg9
g10
sg11
S'--'
p488
sg13
g10
sg15
S'Leonard Hankerson'
p489
sg17
S'2011'
p490
sg19
g36
sg21
S'--'
p491
sg23
S'10/02'
p492
sg25
S'--'
p493
sg27
S'--'
p494
sg29
S'--'
p495
sg31
S'W17-10'
p496
sg33
S'--'
p497
sg35
S'--'
p498
sg37
S'@STL'
p499
sg39
S'--'
p500
sg41
S'--'
p501
sg42
S'--'
p502
ssg195
(dp503
g5
S'--'
p504
sg7
S'--'
p505
sg9
g10
sg11
S'--'
p506
sg13
g14
sg15
S'Leonard Hankerson'
p507
sg17
S'2011'
p508
sg19
g195
sg21
S'--'
p509
sg23
S'10/23'
p510
sg25
S'--'
p511
sg27
S'--'
p512
sg29
S'--'
p513
sg31
S'L20-33'
p514
sg33
g10
sg35
g10
sg37
S'@CAR'
p515
sg39
S'--'
p516
sg41
g10
sg42
S'--'
p517
ssg158
(dp518
g5
S'--'
p519
sg7
S'--'
p520
sg9
g10
sg11
S'--'
p521
sg13
g10
sg15
S'Leonard Hankerson'
p522
sg17
S'2011'
p523
sg19
g158
sg21
S'--'
p524
sg23
S'10/16'
p525
sg25
S'--'
p526
sg27
S'--'
p527
sg29
S'--'
p528
sg31
S'L13-20'
p529
sg33
S'--'
p530
sg35
S'--'
p531
sg37
S'PHI'
p532
sg39
S'--'
p533
sg41
S'--'
p534
sg42
S'--'
p535
ssg230
(dp536
g5
S'--'
p537
sg7
S'--'
p538
sg9
g14
sg11
S'--'
p539
sg13
g14
sg15
S'Leonard Hankerson'
p540
sg17
S'2011'
p541
sg19
g230
sg21
S'--'
p542
sg23
S'11/06'
p543
sg25
S'8.5'
p544
sg27
S'--'
p545
sg29
S'--'
p546
sg31
S'L11-19'
p547
sg33
S'34'
p548
sg35
g36
sg37
S'SF'
p549
sg39
S'12'
p550
sg41
g10
sg42
S'--'
p551
ssg249
(dp552
g5
S'--'
p553
sg7
S'--'
p554
sg9
g10
sg11
S'--'
p555
sg13
g14
sg15
S'Leonard Hankerson'
p556
sg17
S'2011'
p557
sg19
g249
sg21
S'--'
p558
sg23
S'10/30'
p559
sg25
S'23.0'
p560
sg27
S'--'
p561
sg29
S'--'
p562
sg31
S'L0-23'
p563
sg33
S'23'
p564
sg35
g14
sg37
S'@BUF'
p565
sg39
S'23'
p566
sg41
g10
sg42
S'--'
p567
sssS'2013'
p568
(dp569
g3
(dp570
g5
S'--'
p571
sg7
S'--'
p572
sg9
g14
sg11
S'--'
p573
sg13
g14
sg15
S'Leonard Hankerson'
p574
sg17
S'2013'
p575
sg19
S'11'
p576
sg21
S'--'
p577
sg23
S'11/17'
p578
sg25
S'5.0'
p579
sg27
S'--'
p580
sg29
S'--'
p581
sg31
S'L16-24'
p582
sg33
g162
sg35
g14
sg37
S'@PHI'
p583
sg39
g162
sg41
g10
sg42
S'--'
p584
ssg44
(dp585
g5
S'--'
p586
sg7
S'--'
p587
sg9
g14
sg11
S'--'
p588
sg13
g14
sg15
S'Leonard Hankerson'
p589
sg17
S'2013'
p590
sg19
S'10'
p591
sg21
S'--'
p592
sg23
S'11/07'
p593
sg25
S'12.2'
p594
sg27
S'--'
p595
sg29
S'--'
p596
sg31
S'L27-34'
p597
sg33
S'61'
p598
sg35
g162
sg37
S'@MIN'
p599
sg39
S'29'
p600
sg41
g10
sg42
S'--'
p601
ssg14
(dp602
g5
S'--'
p603
sg7
S'--'
p604
sg9
g10
sg11
S'--'
p605
sg13
g14
sg15
S'Leonard Hankerson'
p606
sg17
S'2013'
p607
sg19
g14
sg21
S'--'
p608
sg23
S'09/09'
p609
sg25
S'16.0'
p610
sg27
S'--'
p611
sg29
S'--'
p612
sg31
S'L27-33'
p613
sg33
S'80'
p614
sg35
g162
sg37
S'PHI'
p615
sg39
S'27'
p616
sg41
g124
sg42
S'--'
p617
ssg128
(dp618
g5
S'--'
p619
sg7
S'--'
p620
sg9
g14
sg11
S'--'
p621
sg13
g14
sg15
S'Leonard Hankerson'
p622
sg17
S'2013'
p623
sg19
g128
sg21
S'--'
p624
sg23
S'09/22'
p625
sg25
S'7.0'
p626
sg27
S'--'
p627
sg29
S'--'
p628
sg31
S'L20-27'
p629
sg33
S'21'
p630
sg35
g128
sg37
S'DET'
p631
sg39
S'10'
p632
sg41
g10
sg42
S'--'
p633
ssg124
(dp634
g5
S'--'
p635
sg7
S'--'
p636
sg9
g14
sg11
S'--'
p637
sg13
g14
sg15
S'Leonard Hankerson'
p638
sg17
S'2013'
p639
sg19
g124
sg21
S'--'
p640
sg23
S'09/15'
p641
sg25
S'11.7'
p642
sg27
S'--'
p643
sg29
S'--'
p644
sg31
S'L20-38'
p645
sg33
S'35'
p646
sg35
g128
sg37
S'@GB'
p647
sg39
S'15'
p648
sg41
g10
sg42
S'--'
p649
ssg162
(dp650
g5
g46
sg7
g46
sg9
g46
sg11
g46
sg13
g46
sg15
S'Leonard Hankerson'
p651
sg17
S'2013'
p652
sg19
g162
sg21
g46
sg23
S'Bye'
p653
sg25
g46
sg27
g46
sg29
g46
sg31
g46
sg33
g46
sg35
g46
sg37
g46
sg39
g46
sg41
g46
sg42
g46
ssg36
(dp654
g5
S'--'
p655
sg7
S'--'
p656
sg9
g14
sg11
S'--'
p657
sg13
g14
sg15
S'Leonard Hankerson'
p658
sg17
S'2013'
p659
sg19
g36
sg21
S'--'
p660
sg23
S'09/29'
p661
sg25
S'12.3'
p662
sg27
S'--'
p663
sg29
S'--'
p664
sg31
S'W24-14'
p665
sg33
S'49'
p666
sg35
g36
sg37
S'@OAK'
p667
sg39
S'17'
p668
sg41
g10
sg42
S'--'
p669
ssg195
(dp670
g5
S'--'
p671
sg7
S'--'
p672
sg9
g14
sg11
S'--'
p673
sg13
g14
sg15
S'Leonard Hankerson'
p674
sg17
S'2013'
p675
sg19
g195
sg21
S'--'
p676
sg23
S'10/20'
p677
sg25
S'26.0'
p678
sg27
S'--'
p679
sg29
S'--'
p680
sg31
S'W45-41'
p681
sg33
S'26'
p682
sg35
g14
sg37
S'CHI'
p683
sg39
S'26'
p684
sg41
g10
sg42
S'--'
p685
ssg158
(dp686
g5
S'--'
p687
sg7
S'--'
p688
sg9
g14
sg11
S'--'
p689
sg13
g14
sg15
S'Leonard Hankerson'
p690
sg17
S'2013'
p691
sg19
g158
sg21
S'--'
p692
sg23
S'10/13'
p693
sg25
S'18.0'
p694
sg27
S'--'
p695
sg29
S'--'
p696
sg31
S'L16-31'
p697
sg33
S'36'
p698
sg35
g124
sg37
S'@DAL'
p699
sg39
S'19'
p700
sg41
g10
sg42
S'--'
p701
ssg230
(dp702
g5
S'--'
p703
sg7
S'--'
p704
sg9
g10
sg11
S'--'
p705
sg13
g14
sg15
S'Leonard Hankerson'
p706
sg17
S'2013'
p707
sg19
g230
sg21
S'--'
p708
sg23
S'11/03'
p709
sg25
S'11.0'
p710
sg27
S'--'
p711
sg29
S'--'
p712
sg31
S'W30-24'
p713
sg33
S'55'
p714
sg35
g162
sg37
S'SD'
p715
sg39
S'23'
p716
sg41
g10
sg42
S'--'
p717
ssg249
(dp718
g5
S'--'
p719
sg7
S'--'
p720
sg9
g10
sg11
S'--'
p721
sg13
g14
sg15
S'Leonard Hankerson'
p722
sg17
S'2013'
p723
sg19
g249
sg21
S'--'
p724
sg23
S'10/27'
p725
sg25
S'7.0'
p726
sg27
S'--'
p727
sg29
S'--'
p728
sg31
S'L21-45'
p729
sg33
g195
sg35
g14
sg37
S'@DEN'
p730
sg39
S'7T'
p731
sg41
g14
sg42
S'--'
p732
sssS'2012'
p733
(dp734
g3
(dp735
g5
S'--'
p736
sg7
S'--'
p737
sg9
g10
sg11
S'--'
p738
sg13
g14
sg15
S'Leonard Hankerson'
p739
sg17
S'2012'
p740
sg19
S'11'
p741
sg21
S'--'
p742
sg23
S'11/18'
p743
sg25
S'15.0'
p744
sg27
S'--'
p745
sg29
S'--'
p746
sg31
S'W31-6'
p747
sg33
S'30'
p748
sg35
g124
sg37
S'PHI'
p749
sg39
S'21'
p750
sg41
g10
sg42
S'--'
p751
ssg44
(dp752
g5
g46
sg7
g46
sg9
g46
sg11
g46
sg13
g46
sg15
S'Leonard Hankerson'
p753
sg17
S'2012'
p754
sg19
S'10'
p755
sg21
g46
sg23
S'Bye'
p756
sg25
g46
sg27
g46
sg29
g46
sg31
g46
sg33
g46
sg35
g46
sg37
g46
sg39
g46
sg41
g46
sg42
g46
ssg291
(dp757
g5
S'--'
p758
sg7
S'--'
p759
sg9
g10
sg11
S'--'
p760
sg13
g14
sg15
S'Leonard Hankerson'
p761
sg17
S'2012'
p762
sg19
S'13'
p763
sg21
S'--'
p764
sg23
S'12/03'
p765
sg25
S'14.0'
p766
sg27
S'--'
p767
sg29
S'--'
p768
sg31
S'W17-16'
p769
sg33
S'14'
p770
sg35
g14
sg37
S'NYG'
p771
sg39
S'14'
p772
sg41
g10
sg42
S'--'
p773
ssg51
(dp774
g5
S'--'
p775
sg7
S'--'
p776
sg9
g10
sg11
S'--'
p777
sg13
g14
sg15
S'Leonard Hankerson'
p778
sg17
S'2012'
p779
sg19
S'12'
p780
sg21
S'--'
p781
sg23
S'11/22'
p782
sg25
S'12.0'
p783
sg27
S'--'
p784
sg29
S'--'
p785
sg31
S'W38-31'
p786
sg33
S'12'
p787
sg35
g14
sg37
S'@DAL'
p788
sg39
S'12'
p789
sg41
g10
sg42
S'--'
p790
ssg71
(dp791
g5
S'--'
p792
sg7
S'--'
p793
sg9
g10
sg11
S'--'
p794
sg13
g14
sg15
S'Leonard Hankerson'
p795
sg17
S'2012'
p796
sg19
S'15'
p797
sg21
S'--'
p798
sg23
S'12/16'
p799
sg25
S'28.0'
p800
sg27
S'--'
p801
sg29
S'--'
p802
sg31
S'W38-21'
p803
sg33
S'56'
p804
sg35
g124
sg37
S'@CLE'
p805
sg39
S'54T'
p806
sg41
g124
sg42
S'--'
p807
ssg349
(dp808
g5
g10
sg7
g128
sg9
g10
sg11
S'--'
p809
sg13
g14
sg15
S'Leonard Hankerson'
p810
sg17
S'2012'
p811
sg19
S'14'
p812
sg21
S'3.0'
p813
sg23
S'12/09'
p814
sg25
S'16.8'
p815
sg27
S'--'
p816
sg29
g14
sg31
S'W31-28'
p817
sg33
S'67'
p818
sg35
g36
sg37
S'BAL'
p819
sg39
S'29'
p820
sg41
g10
sg42
g128
ssg91
(dp821
g5
S'--'
p822
sg7
S'--'
p823
sg9
g10
sg11
S'--'
p824
sg13
g14
sg15
S'Leonard Hankerson'
p825
sg17
S'2012'
p826
sg19
S'17'
p827
sg21
S'--'
p828
sg23
S'12/30'
p829
sg25
S'12.0'
p830
sg27
S'--'
p831
sg29
S'--'
p832
sg31
S'W28-18'
p833
sg33
S'12'
p834
sg35
g14
sg37
S'DAL'
p835
sg39
S'12'
p836
sg41
g10
sg42
S'--'
p837
ssg388
(dp838
g5
S'--'
p839
sg7
S'--'
p840
sg9
g10
sg11
S'--'
p841
sg13
g14
sg15
S'Leonard Hankerson'
p842
sg17
S'2012'
p843
sg19
S'16'
p844
sg21
S'--'
p845
sg23
S'12/23'
p846
sg25
S'10.0'
p847
sg27
S'--'
p848
sg29
S'--'
p849
sg31
S'W27-20'
p850
sg33
S'10'
p851
sg35
g14
sg37
S'@PHI'
p852
sg39
S'10'
p853
sg41
g10
sg42
S'--'
p854
ssg14
(dp855
g5
S'--'
p856
sg7
S'--'
p857
sg9
g10
sg11
S'--'
p858
sg13
g14
sg15
S'Leonard Hankerson'
p859
sg17
S'2012'
p860
sg19
g14
sg21
S'--'
p861
sg23
S'09/09'
p862
sg25
S'--'
p863
sg27
S'--'
p864
sg29
S'--'
p865
sg31
S'W40-32'
p866
sg33
S'--'
p867
sg35
S'--'
p868
sg37
S'@NO'
p869
sg39
S'--'
p870
sg41
S'--'
p871
sg42
S'--'
p872
ssg128
(dp873
g5
S'--'
p874
sg7
S'--'
p875
sg9
g14
sg11
S'--'
p876
sg13
g14
sg15
S'Leonard Hankerson'
p877
sg17
S'2012'
p878
sg19
g128
sg21
S'--'
p879
sg23
S'09/23'
p880
sg25
S'14.0'
p881
sg27
S'--'
p882
sg29
S'--'
p883
sg31
S'L31-38'
p884
sg33
S'56'
p885
sg35
g36
sg37
S'CIN'
p886
sg39
S'23'
p887
sg41
g10
sg42
S'--'
p888
ssg124
(dp889
g5
S'--'
p890
sg7
S'--'
p891
sg9
g10
sg11
S'--'
p892
sg13
g14
sg15
S'Leonard Hankerson'
p893
sg17
S'2012'
p894
sg19
g124
sg21
S'--'
p895
sg23
S'09/16'
p896
sg25
S'34.0'
p897
sg27
S'--'
p898
sg29
S'--'
p899
sg31
S'L28-31'
p900
sg33
S'68'
p901
sg35
g124
sg37
S'@STL'
p902
sg39
S'68T'
p903
sg41
g14
sg42
S'--'
p904
ssg162
(dp905
g5
g10
sg7
g124
sg9
g10
sg11
S'--'
p906
sg13
g14
sg15
S'Leonard Hankerson'
p907
sg17
S'2012'
p908
sg19
g162
sg21
S'2.0'
p909
sg23
S'10/07'
p910
sg25
S'3.0'
p911
sg27
S'--'
p912
sg29
g14
sg31
S'L17-24'
p913
sg33
g128
sg35
g14
sg37
S'ATL'
p914
sg39
g128
sg41
g10
sg42
g124
ssg36
(dp915
g5
S'--'
p916
sg7
S'--'
p917
sg9
g14
sg11
S'--'
p918
sg13
g14
sg15
S'Leonard Hankerson'
p919
sg17
S'2012'
p920
sg19
g36
sg21
S'--'
p921
sg23
S'09/30'
p922
sg25
S'8.1'
p923
sg27
S'--'
p924
sg29
S'--'
p925
sg31
S'W24-22'
p926
sg33
S'57'
p927
sg35
g195
sg37
S'@TB'
p928
sg39
S'21'
p929
sg41
g10
sg42
S'--'
p930
ssg195
(dp931
g5
S'--'
p932
sg7
S'--'
p933
sg9
g14
sg11
S'--'
p934
sg13
g14
sg15
S'Leonard Hankerson'
p935
sg17
S'2012'
p936
sg19
g195
sg21
S'--'
p937
sg23
S'10/21'
p938
sg25
S'11.7'
p939
sg27
S'--'
p940
sg29
S'--'
p941
sg31
S'L23-27'
p942
sg33
S'70'
p943
sg35
g158
sg37
S'@NYG'
p944
sg39
S'23'
p945
sg41
g10
sg42
S'--'
p946
ssg158
(dp947
g5
S'--'
p948
sg7
S'--'
p949
sg9
g14
sg11
S'--'
p950
sg13
g14
sg15
S'Leonard Hankerson'
p951
sg17
S'2012'
p952
sg19
g158
sg21
S'--'
p953
sg23
S'10/14'
p954
sg25
S'11.5'
p955
sg27
S'--'
p956
sg29
S'--'
p957
sg31
S'W38-26'
p958
sg33
S'23'
p959
sg35
g124
sg37
S'MIN'
p960
sg39
S'14'
p961
sg41
g10
sg42
S'--'
p962
ssg230
(dp963
g5
S'--'
p964
sg7
S'--'
p965
sg9
g10
sg11
S'--'
p966
sg13
g14
sg15
S'Leonard Hankerson'
p967
sg17
S'2012'
p968
sg19
g230
sg21
S'--'
p969
sg23
S'11/04'
p970
sg25
S'16.3'
p971
sg27
S'--'
p972
sg29
S'--'
p973
sg31
S'L13-21'
p974
sg33
S'49'
p975
sg35
g128
sg37
S'CAR'
p976
sg39
S'25'
p977
sg41
g10
sg42
S'--'
p978
ssg249
(dp979
g5
S'--'
p980
sg7
S'--'
p981
sg9
g14
sg11
S'--'
p982
sg13
g14
sg15
S'Leonard Hankerson'
p983
sg17
S'2012'
p984
sg19
g249
sg21
S'--'
p985
sg23
S'10/28'
p986
sg25
S'16.0'
p987
sg27
S'--'
p988
sg29
S'--'
p989
sg31
S'L12-27'
p990
sg33
S'16'
p991
sg35
g14
sg37
S'@PIT'
p992
sg39
S'16'
p993
sg41
g10
sg42
S'--'
p994
sss.