(dp0
S'2015'
p1
(dp2
S'11'
p3
(dp4
S'RushTD'
p5
S'--'
p6
sS'RushYds'
p7
S'--'
p8
sS'GS'
p9
S'0'
p10
sS'Lost'
p11
S'--'
p12
sS'G'
p13
S'1'
p14
sS'Player'
p15
S'Lucky Whitehead'
p16
sS'Year'
p17
S'2015'
p18
sS'WK'
p19
S'11'
p20
sS'RushAvg'
p21
S'--'
p22
sS'Game Date'
p23
S'11/22'
p24
sS'RecAvg'
p25
S'--'
p26
sS'FUM'
p27
S'--'
p28
sS'RushAtt'
p29
S'--'
p30
sS'Result'
p31
S'W24-14'
p32
sS'RecYds'
p33
S'--'
p34
sS'Rec'
p35
S'--'
p36
sS'Opp'
p37
S'@MIA'
p38
sS'RecLng'
p39
S'--'
p40
sS'RecTD'
p41
S'--'
p42
sS'RushLng'
p43
S'--'
p44
ssS'10'
p45
(dp46
g5
S'--'
p47
sg7
S'--'
p48
sg9
g10
sg11
S'--'
p49
sg13
g14
sg15
S'Lucky Whitehead'
p50
sg17
S'2015'
p51
sg19
S'10'
p52
sg21
S'--'
p53
sg23
S'11/15'
p54
sg25
S'0.0'
p55
sg27
S'--'
p56
sg29
S'--'
p57
sg31
S'L6-10'
p58
sg33
g10
sg35
g14
sg37
S'@TB'
p59
sg39
g10
sg41
g10
sg43
S'--'
p60
ssS'13'
p61
(dp62
g5
g10
sg7
S'35'
p63
sg9
g10
sg11
S'--'
p64
sg13
g14
sg15
S'Lucky Whitehead'
p65
sg17
S'2015'
p66
sg19
S'13'
p67
sg21
S'17.5'
p68
sg23
S'12/07'
p69
sg25
S'5.0'
p70
sg27
S'--'
p71
sg29
S'2'
p72
sg31
S'W19-16'
p73
sg33
S'5'
p74
sg35
g14
sg37
S'@WAS'
p75
sg39
g74
sg41
g10
sg43
S'22'
p76
ssS'12'
p77
(dp78
g5
S'--'
p79
sg7
S'--'
p80
sg9
g14
sg11
S'--'
p81
sg13
g14
sg15
S'Lucky Whitehead'
p82
sg17
S'2015'
p83
sg19
S'12'
p84
sg21
S'--'
p85
sg23
S'11/26'
p86
sg25
S'4.0'
p87
sg27
S'--'
p88
sg29
S'--'
p89
sg31
S'L14-33'
p90
sg33
S'4'
p91
sg35
g14
sg37
S'CAR'
p92
sg39
g91
sg41
g10
sg43
S'--'
p93
ssS'15'
p94
(dp95
g5
g10
sg7
S'32'
p96
sg9
g10
sg11
S'--'
p97
sg13
g14
sg15
S'Lucky Whitehead'
p98
sg17
S'2015'
p99
sg19
S'15'
p100
sg21
S'16.0'
p101
sg23
S'12/19'
p102
sg25
S'--'
p103
sg27
S'--'
p104
sg29
g72
sg31
S'L16-19'
p105
sg33
S'--'
p106
sg35
S'--'
p107
sg37
S'NYJ'
p108
sg39
S'--'
p109
sg41
S'--'
p110
sg43
S'33'
p111
ssS'14'
p112
(dp113
g5
g10
sg7
S'3'
p114
sg9
g10
sg11
S'--'
p115
sg13
g14
sg15
S'Lucky Whitehead'
p116
sg17
S'2015'
p117
sg19
S'14'
p118
sg21
S'3.0'
p119
sg23
S'12/13'
p120
sg25
S'2.0'
p121
sg27
S'--'
p122
sg29
g14
sg31
S'L7-28'
p123
sg33
g72
sg35
g14
sg37
S'@GB'
p124
sg39
g72
sg41
g10
sg43
g114
ssS'17'
p125
(dp126
g5
S'--'
p127
sg7
S'--'
p128
sg9
g10
sg11
S'--'
p129
sg13
g14
sg15
S'Lucky Whitehead'
p130
sg17
S'2015'
p131
sg19
S'17'
p132
sg21
S'--'
p133
sg23
S'01/03'
p134
sg25
S'--'
p135
sg27
S'--'
p136
sg29
S'--'
p137
sg31
S'L23-34'
p138
sg33
S'--'
p139
sg35
S'--'
p140
sg37
S'WAS'
p141
sg39
S'--'
p142
sg41
S'--'
p143
sg43
S'--'
p144
ssS'16'
p145
(dp146
g5
S'--'
p147
sg7
S'--'
p148
sg9
g10
sg11
g14
sg13
g14
sg15
S'Lucky Whitehead'
p149
sg17
S'2015'
p150
sg19
S'16'
p151
sg21
S'--'
p152
sg23
S'12/27'
p153
sg25
S'--'
p154
sg27
g14
sg29
S'--'
p155
sg31
S'L6-16'
p156
sg33
S'--'
p157
sg35
S'--'
p158
sg37
S'@BUF'
p159
sg39
S'--'
p160
sg41
S'--'
p161
sg43
S'--'
p162
ssg14
(dp163
g5
S'--'
p164
sg7
S'--'
p165
sg9
g10
sg11
S'--'
p166
sg13
g14
sg15
S'Lucky Whitehead'
p167
sg17
S'2015'
p168
sg19
g14
sg21
S'--'
p169
sg23
S'09/13'
p170
sg25
S'--'
p171
sg27
S'--'
p172
sg29
S'--'
p173
sg31
S'W27-26'
p174
sg33
S'--'
p175
sg35
S'--'
p176
sg37
S'NYG'
p177
sg39
S'--'
p178
sg41
S'--'
p179
sg43
S'--'
p180
ssg114
(dp181
g5
S'--'
p182
sg7
S'--'
p183
sg9
g10
sg11
S'--'
p184
sg13
g14
sg15
S'Lucky Whitehead'
p185
sg17
S'2015'
p186
sg19
g114
sg21
S'--'
p187
sg23
S'09/27'
p188
sg25
S'--'
p189
sg27
S'--'
p190
sg29
S'--'
p191
sg31
S'L28-39'
p192
sg33
S'--'
p193
sg35
S'--'
p194
sg37
S'ATL'
p195
sg39
S'--'
p196
sg41
S'--'
p197
sg43
S'--'
p198
ssg72
(dp199
g5
S'--'
p200
sg7
S'--'
p201
sg9
g10
sg11
S'--'
p202
sg13
g14
sg15
S'Lucky Whitehead'
p203
sg17
S'2015'
p204
sg19
g72
sg21
S'--'
p205
sg23
S'09/20'
p206
sg25
S'--'
p207
sg27
S'--'
p208
sg29
S'--'
p209
sg31
S'W20-10'
p210
sg33
S'--'
p211
sg35
S'--'
p212
sg37
S'@PHI'
p213
sg39
S'--'
p214
sg41
S'--'
p215
sg43
S'--'
p216
ssg74
(dp217
g5
S'--'
p218
sg7
S'--'
p219
sg9
g10
sg11
S'--'
p220
sg13
g14
sg15
S'Lucky Whitehead'
p221
sg17
S'2015'
p222
sg19
g74
sg21
S'--'
p223
sg23
S'10/11'
p224
sg25
S'-3.0'
p225
sg27
S'--'
p226
sg29
S'--'
p227
sg31
S'L6-30'
p228
sg33
S'-3'
p229
sg35
g14
sg37
S'NE'
p230
sg39
S'-3'
p231
sg41
g10
sg43
S'--'
p232
ssg91
(dp233
g5
S'--'
p234
sg7
S'--'
p235
sg9
g10
sg11
S'--'
p236
sg13
g10
sg15
S'Lucky Whitehead'
p237
sg17
S'2015'
p238
sg19
g91
sg21
S'--'
p239
sg23
S'10/04'
p240
sg25
S'--'
p241
sg27
S'--'
p242
sg29
S'--'
p243
sg31
S'L20-26'
p244
sg33
S'--'
p245
sg35
S'--'
p246
sg37
S'@NO'
p247
sg39
S'--'
p248
sg41
S'--'
p249
sg43
S'--'
p250
ssS'7'
p251
(dp252
g5
g10
sg7
S'35'
p253
sg9
g10
sg11
S'--'
p254
sg13
g14
sg15
S'Lucky Whitehead'
p255
sg17
S'2015'
p256
sg19
g251
sg21
S'8.8'
p257
sg23
S'10/25'
p258
sg25
S'--'
p259
sg27
S'--'
p260
sg29
g91
sg31
S'L20-27'
p261
sg33
S'--'
p262
sg35
S'--'
p263
sg37
S'@NYG'
p264
sg39
S'--'
p265
sg41
S'--'
p266
sg43
S'15'
p267
ssS'6'
p268
(dp269
g5
S''
p270
sg7
g270
sg9
g270
sg11
g270
sg13
g270
sg15
S'Lucky Whitehead'
p271
sg17
S'2015'
p272
sg19
g268
sg21
g270
sg23
S'Bye'
p273
sg25
g270
sg27
g270
sg29
g270
sg31
g270
sg33
g270
sg35
g270
sg37
g270
sg39
g270
sg41
g270
sg43
g270
ssS'9'
p274
(dp275
g5
S'--'
p276
sg7
S'--'
p277
sg9
g10
sg11
S'--'
p278
sg13
g14
sg15
S'Lucky Whitehead'
p279
sg17
S'2015'
p280
sg19
g274
sg21
S'--'
p281
sg23
S'11/08'
p282
sg25
S'8.0'
p283
sg27
S'--'
p284
sg29
S'--'
p285
sg31
S'L27-33'
p286
sg33
S'8'
p287
sg35
g14
sg37
S'PHI'
p288
sg39
g287
sg41
g10
sg43
S'--'
p289
ssg287
(dp290
g5
g10
sg7
g72
sg9
g10
sg11
S'--'
p291
sg13
g14
sg15
S'Lucky Whitehead'
p292
sg17
S'2015'
p293
sg19
g287
sg21
S'2.0'
p294
sg23
S'11/01'
p295
sg25
S'--'
p296
sg27
S'--'
p297
sg29
g14
sg31
S'L12-13'
p298
sg33
S'--'
p299
sg35
S'--'
p300
sg37
S'SEA'
p301
sg39
S'--'
p302
sg41
S'--'
p303
sg43
g72
sss.