(dp0
S'2015'
p1
(dp2
S'11'
p3
(dp4
S'RushTD'
p5
S'--'
p6
sS'RushYds'
p7
S'--'
p8
sS'GS'
p9
S'0'
p10
sS'Lost'
p11
S'--'
p12
sS'G'
p13
g10
sS'Player'
p14
S'Malcom Floyd'
p15
sS'Year'
p16
S'2015'
p17
sS'WK'
p18
S'11'
p19
sS'RushAvg'
p20
S'--'
p21
sS'Game Date'
p22
S'11/22'
p23
sS'RecAvg'
p24
S'--'
p25
sS'FUM'
p26
S'--'
p27
sS'RushAtt'
p28
S'--'
p29
sS'Result'
p30
S'L3-33'
p31
sS'RecYds'
p32
S'--'
p33
sS'Rec'
p34
S'--'
p35
sS'Opp'
p36
S'KC'
p37
sS'RecLng'
p38
S'--'
p39
sS'RecTD'
p40
S'--'
p41
sS'RushLng'
p42
S'--'
p43
ssS'10'
p44
(dp45
g5
S''
p46
sg7
g46
sg9
g46
sg11
g46
sg13
g46
sg14
S'Malcom Floyd'
p47
sg16
S'2015'
p48
sg18
S'10'
p49
sg20
g46
sg22
S'Bye'
p50
sg24
g46
sg26
g46
sg28
g46
sg30
g46
sg32
g46
sg34
g46
sg36
g46
sg38
g46
sg40
g46
sg42
g46
ssS'13'
p51
(dp52
g5
S'--'
p53
sg7
S'--'
p54
sg9
g10
sg11
S'1'
p55
sg13
g55
sg14
S'Malcom Floyd'
p56
sg16
S'2015'
p57
sg18
S'13'
p58
sg20
S'--'
p59
sg22
S'12/06'
p60
sg24
S'15.0'
p61
sg26
g55
sg28
S'--'
p62
sg30
S'L3-17'
p63
sg32
S'15'
p64
sg34
g55
sg36
S'DEN'
p65
sg38
S'15'
p66
sg40
g10
sg42
S'--'
p67
ssS'12'
p68
(dp69
g5
S'--'
p70
sg7
S'--'
p71
sg9
g55
sg11
S'--'
p72
sg13
g55
sg14
S'Malcom Floyd'
p73
sg16
S'2015'
p74
sg18
S'12'
p75
sg20
S'--'
p76
sg22
S'11/29'
p77
sg24
S'12.0'
p78
sg26
S'--'
p79
sg28
S'--'
p80
sg30
S'W31-25'
p81
sg32
S'12'
p82
sg34
g55
sg36
S'@JAC'
p83
sg38
S'12'
p84
sg40
g10
sg42
S'--'
p85
ssS'15'
p86
(dp87
g5
S'--'
p88
sg7
S'--'
p89
sg9
g55
sg11
S'--'
p90
sg13
g55
sg14
S'Malcom Floyd'
p91
sg16
S'2015'
p92
sg18
S'15'
p93
sg20
S'--'
p94
sg22
S'12/20'
p95
sg24
S'27.0'
p96
sg26
S'--'
p97
sg28
S'--'
p98
sg30
S'W30-14'
p99
sg32
S'27'
p100
sg34
g55
sg36
S'MIA'
p101
sg38
S'27'
p102
sg40
g10
sg42
S'--'
p103
ssS'14'
p104
(dp105
g5
S'--'
p106
sg7
S'--'
p107
sg9
g55
sg11
S'--'
p108
sg13
g55
sg14
S'Malcom Floyd'
p109
sg16
S'2015'
p110
sg18
S'14'
p111
sg20
S'--'
p112
sg22
S'12/13'
p113
sg24
S'18.7'
p114
sg26
S'--'
p115
sg28
S'--'
p116
sg30
S'L3-10'
p117
sg32
S'56'
p118
sg34
S'3'
p119
sg36
S'@KC'
p120
sg38
S'41'
p121
sg40
g10
sg42
S'--'
p122
ssS'17'
p123
(dp124
g5
S'--'
p125
sg7
S'--'
p126
sg9
g55
sg11
S'--'
p127
sg13
g55
sg14
S'Malcom Floyd'
p128
sg16
S'2015'
p129
sg18
S'17'
p130
sg20
S'--'
p131
sg22
S'01/03'
p132
sg24
S'--'
p133
sg26
S'--'
p134
sg28
S'--'
p135
sg30
S'L20-27'
p136
sg32
g10
sg34
g10
sg36
S'@DEN'
p137
sg38
S'--'
p138
sg40
g10
sg42
S'--'
p139
ssS'16'
p140
(dp141
g5
S'--'
p142
sg7
S'--'
p143
sg9
g55
sg11
S'--'
p144
sg13
g55
sg14
S'Malcom Floyd'
p145
sg16
S'2015'
p146
sg18
S'16'
p147
sg20
S'--'
p148
sg22
S'12/24'
p149
sg24
S'14.0'
p150
sg26
S'--'
p151
sg28
S'--'
p152
sg30
S'L20-23'
p153
sg32
S'42'
p154
sg34
g119
sg36
S'@OAK'
p155
sg38
S'23'
p156
sg40
g10
sg42
S'--'
p157
ssg55
(dp158
g5
S'--'
p159
sg7
S'--'
p160
sg9
g55
sg11
S'--'
p161
sg13
g55
sg14
S'Malcom Floyd'
p162
sg16
S'2015'
p163
sg18
g55
sg20
S'--'
p164
sg22
S'09/13'
p165
sg24
S'29.0'
p166
sg26
S'--'
p167
sg28
S'--'
p168
sg30
S'W33-28'
p169
sg32
S'29'
p170
sg34
g55
sg36
S'DET'
p171
sg38
S'29'
p172
sg40
g10
sg42
S'--'
p173
ssg119
(dp174
g5
S'--'
p175
sg7
S'--'
p176
sg9
g10
sg11
S'--'
p177
sg13
g55
sg14
S'Malcom Floyd'
p178
sg16
S'2015'
p179
sg18
g119
sg20
S'--'
p180
sg22
S'09/27'
p181
sg24
S'15.8'
p182
sg26
S'--'
p183
sg28
S'--'
p184
sg30
S'L14-31'
p185
sg32
S'63'
p186
sg34
S'4'
p187
sg36
S'@MIN'
p188
sg38
S'39'
p189
sg40
g10
sg42
S'--'
p190
ssS'2'
p191
(dp192
g5
S'--'
p193
sg7
S'--'
p194
sg9
g55
sg11
S'--'
p195
sg13
g55
sg14
S'Malcom Floyd'
p196
sg16
S'2015'
p197
sg18
g191
sg20
S'--'
p198
sg22
S'09/20'
p199
sg24
S'27.5'
p200
sg26
S'--'
p201
sg28
S'--'
p202
sg30
S'L19-24'
p203
sg32
S'55'
p204
sg34
g191
sg36
S'@CIN'
p205
sg38
S'40T'
p206
sg40
g55
sg42
S'--'
p207
ssS'5'
p208
(dp209
g5
S'--'
p210
sg7
S'--'
p211
sg9
g55
sg11
S'--'
p212
sg13
g55
sg14
S'Malcom Floyd'
p213
sg16
S'2015'
p214
sg18
g208
sg20
S'--'
p215
sg22
S'10/12'
p216
sg24
S'16.0'
p217
sg26
S'--'
p218
sg28
S'--'
p219
sg30
S'L20-24'
p220
sg32
S'48'
p221
sg34
g119
sg36
S'PIT'
p222
sg38
S'32'
p223
sg40
g10
sg42
S'--'
p224
ssg187
(dp225
g5
S'--'
p226
sg7
S'--'
p227
sg9
g55
sg11
S'--'
p228
sg13
g55
sg14
S'Malcom Floyd'
p229
sg16
S'2015'
p230
sg18
g187
sg20
S'--'
p231
sg22
S'10/04'
p232
sg24
S'20.0'
p233
sg26
S'--'
p234
sg28
S'--'
p235
sg30
S'W30-27'
p236
sg32
S'20'
p237
sg34
g55
sg36
S'CLE'
p238
sg38
S'20'
p239
sg40
g10
sg42
S'--'
p240
ssS'7'
p241
(dp242
g5
S'--'
p243
sg7
S'--'
p244
sg9
g55
sg11
S'--'
p245
sg13
g55
sg14
S'Malcom Floyd'
p246
sg16
S'2015'
p247
sg18
g241
sg20
S'--'
p248
sg22
S'10/25'
p249
sg24
S'7.0'
p250
sg26
S'--'
p251
sg28
S'--'
p252
sg30
S'L29-37'
p253
sg32
g241
sg34
g55
sg36
S'OAK'
p254
sg38
g241
sg40
g10
sg42
S'--'
p255
ssS'6'
p256
(dp257
g5
S'--'
p258
sg7
S'--'
p259
sg9
g55
sg11
S'--'
p260
sg13
g55
sg14
S'Malcom Floyd'
p261
sg16
S'2015'
p262
sg18
g256
sg20
S'--'
p263
sg22
S'10/18'
p264
sg24
S'19.0'
p265
sg26
S'--'
p266
sg28
S'--'
p267
sg30
S'L20-27'
p268
sg32
S'95'
p269
sg34
g208
sg36
S'@GB'
p270
sg38
S'50'
p271
sg40
g10
sg42
S'--'
p272
ssS'9'
p273
(dp274
g5
S'--'
p275
sg7
S'--'
p276
sg9
g55
sg11
S'--'
p277
sg13
g55
sg14
S'Malcom Floyd'
p278
sg16
S'2015'
p279
sg18
g273
sg20
S'--'
p280
sg22
S'11/09'
p281
sg24
S'--'
p282
sg26
S'--'
p283
sg28
S'--'
p284
sg30
S'L19-22'
p285
sg32
g10
sg34
g10
sg36
S'CHI'
p286
sg38
S'--'
p287
sg40
g10
sg42
S'--'
p288
ssS'8'
p289
(dp290
g5
S'--'
p291
sg7
S'--'
p292
sg9
g55
sg11
S'--'
p293
sg13
g55
sg14
S'Malcom Floyd'
p294
sg16
S'2015'
p295
sg18
g289
sg20
S'--'
p296
sg22
S'11/01'
p297
sg24
S'23.0'
p298
sg26
S'--'
p299
sg28
S'--'
p300
sg30
S'L26-29'
p301
sg32
S'92'
p302
sg34
g187
sg36
S'@BAL'
p303
sg38
S'70T'
p304
sg40
g191
sg42
S'--'
p305
sssS'2014'
p306
(dp307
g3
(dp308
g5
S'--'
p309
sg7
S'--'
p310
sg9
g55
sg11
S'--'
p311
sg13
g55
sg14
S'Malcom Floyd'
p312
sg16
S'2014'
p313
sg18
S'11'
p314
sg20
S'--'
p315
sg22
S'11/16'
p316
sg24
S'11.0'
p317
sg26
S'--'
p318
sg28
S'--'
p319
sg30
S'W13-6'
p320
sg32
S'44'
p321
sg34
g187
sg36
S'OAK'
p322
sg38
S'22T'
p323
sg40
g55
sg42
S'--'
p324
ssg44
(dp325
g5
g46
sg7
g46
sg9
g46
sg11
g46
sg13
g46
sg14
S'Malcom Floyd'
p326
sg16
S'2014'
p327
sg18
S'10'
p328
sg20
g46
sg22
S'Bye'
p329
sg24
g46
sg26
g46
sg28
g46
sg30
g46
sg32
g46
sg34
g46
sg36
g46
sg38
g46
sg40
g46
sg42
g46
ssg51
(dp330
g5
S'--'
p331
sg7
S'--'
p332
sg9
g55
sg11
S'--'
p333
sg13
g55
sg14
S'Malcom Floyd'
p334
sg16
S'2014'
p335
sg18
S'13'
p336
sg20
S'--'
p337
sg22
S'11/30'
p338
sg24
S'28.3'
p339
sg26
S'--'
p340
sg28
S'--'
p341
sg30
S'W34-33'
p342
sg32
S'85'
p343
sg34
g119
sg36
S'@BAL'
p344
sg38
S'59'
p345
sg40
g10
sg42
S'--'
p346
ssg68
(dp347
g5
S'--'
p348
sg7
S'--'
p349
sg9
g55
sg11
S'--'
p350
sg13
g55
sg14
S'Malcom Floyd'
p351
sg16
S'2014'
p352
sg18
S'12'
p353
sg20
S'--'
p354
sg22
S'11/23'
p355
sg24
S'7.5'
p356
sg26
S'--'
p357
sg28
S'--'
p358
sg30
S'W27-24'
p359
sg32
S'30'
p360
sg34
g187
sg36
S'STL'
p361
sg38
S'14'
p362
sg40
g10
sg42
S'--'
p363
ssg86
(dp364
g5
S'--'
p365
sg7
S'--'
p366
sg9
g55
sg11
S'--'
p367
sg13
g55
sg14
S'Malcom Floyd'
p368
sg16
S'2014'
p369
sg18
S'15'
p370
sg20
S'--'
p371
sg22
S'12/14'
p372
sg24
S'11.3'
p373
sg26
S'--'
p374
sg28
S'--'
p375
sg30
S'L10-22'
p376
sg32
S'34'
p377
sg34
g119
sg36
S'DEN'
p378
sg38
S'17'
p379
sg40
g10
sg42
S'--'
p380
ssg104
(dp381
g5
S'--'
p382
sg7
S'--'
p383
sg9
g55
sg11
S'--'
p384
sg13
g55
sg14
S'Malcom Floyd'
p385
sg16
S'2014'
p386
sg18
S'14'
p387
sg20
S'--'
p388
sg22
S'12/07'
p389
sg24
S'18.0'
p390
sg26
S'--'
p391
sg28
S'--'
p392
sg30
S'L14-23'
p393
sg32
S'54'
p394
sg34
g119
sg36
S'NE'
p395
sg38
S'28'
p396
sg40
g55
sg42
S'--'
p397
ssg123
(dp398
g5
S'--'
p399
sg7
S'--'
p400
sg9
g55
sg11
S'--'
p401
sg13
g55
sg14
S'Malcom Floyd'
p402
sg16
S'2014'
p403
sg18
S'17'
p404
sg20
S'--'
p405
sg22
S'12/28'
p406
sg24
S'9.7'
p407
sg26
S'--'
p408
sg28
S'--'
p409
sg30
S'L7-19'
p410
sg32
S'29'
p411
sg34
g119
sg36
S'@KC'
p412
sg38
S'17'
p413
sg40
g10
sg42
S'--'
p414
ssg140
(dp415
g5
S'--'
p416
sg7
S'--'
p417
sg9
g55
sg11
S'--'
p418
sg13
g55
sg14
S'Malcom Floyd'
p419
sg16
S'2014'
p420
sg18
S'16'
p421
sg20
S'--'
p422
sg22
S'12/20'
p423
sg24
S'12.5'
p424
sg26
S'--'
p425
sg28
S'--'
p426
sg30
S'W38-35'
p427
sg32
S'50'
p428
sg34
g187
sg36
S'@SF'
p429
sg38
S'25'
p430
sg40
g55
sg42
S'--'
p431
ssg55
(dp432
g5
S'--'
p433
sg7
S'--'
p434
sg9
g55
sg11
S'--'
p435
sg13
g55
sg14
S'Malcom Floyd'
p436
sg16
S'2014'
p437
sg18
g55
sg20
S'--'
p438
sg22
S'09/08'
p439
sg24
S'12.5'
p440
sg26
S'--'
p441
sg28
S'--'
p442
sg30
S'L17-18'
p443
sg32
S'50'
p444
sg34
g187
sg36
S'@ARI'
p445
sg38
S'32'
p446
sg40
g55
sg42
S'--'
p447
ssg119
(dp448
g5
S'--'
p449
sg7
S'--'
p450
sg9
g55
sg11
S'--'
p451
sg13
g55
sg14
S'Malcom Floyd'
p452
sg16
S'2014'
p453
sg18
g119
sg20
S'--'
p454
sg22
S'09/21'
p455
sg24
S'49.0'
p456
sg26
S'--'
p457
sg28
S'--'
p458
sg30
S'W22-10'
p459
sg32
S'98'
p460
sg34
g191
sg36
S'@BUF'
p461
sg38
S'49'
p462
sg40
g10
sg42
S'--'
p463
ssg191
(dp464
g5
S'--'
p465
sg7
S'--'
p466
sg9
g55
sg11
S'--'
p467
sg13
g55
sg14
S'Malcom Floyd'
p468
sg16
S'2014'
p469
sg18
g191
sg20
S'--'
p470
sg22
S'09/14'
p471
sg24
S'--'
p472
sg26
S'--'
p473
sg28
S'--'
p474
sg30
S'W30-21'
p475
sg32
g10
sg34
g10
sg36
S'SEA'
p476
sg38
S'--'
p477
sg40
g10
sg42
S'--'
p478
ssg208
(dp479
g5
S'--'
p480
sg7
S'--'
p481
sg9
g55
sg11
S'--'
p482
sg13
g55
sg14
S'Malcom Floyd'
p483
sg16
S'2014'
p484
sg18
g208
sg20
S'--'
p485
sg22
S'10/05'
p486
sg24
S'24.0'
p487
sg26
S'--'
p488
sg28
S'--'
p489
sg30
S'W31-0'
p490
sg32
S'72'
p491
sg34
g119
sg36
S'NYJ'
p492
sg38
S'49'
p493
sg40
g10
sg42
S'--'
p494
ssg187
(dp495
g5
S'--'
p496
sg7
S'--'
p497
sg9
g55
sg11
S'--'
p498
sg13
g55
sg14
S'Malcom Floyd'
p499
sg16
S'2014'
p500
sg18
g187
sg20
S'--'
p501
sg22
S'09/28'
p502
sg24
S'13.0'
p503
sg26
S'--'
p504
sg28
S'--'
p505
sg30
S'W33-14'
p506
sg32
S'39'
p507
sg34
g119
sg36
S'JAC'
p508
sg38
S'24T'
p509
sg40
g55
sg42
S'--'
p510
ssg241
(dp511
g5
S'--'
p512
sg7
S'--'
p513
sg9
g55
sg11
S'--'
p514
sg13
g55
sg14
S'Malcom Floyd'
p515
sg16
S'2014'
p516
sg18
g241
sg20
S'--'
p517
sg22
S'10/19'
p518
sg24
S'16.7'
p519
sg26
S'--'
p520
sg28
S'--'
p521
sg30
S'L20-23'
p522
sg32
S'50'
p523
sg34
g119
sg36
S'KC'
p524
sg38
S'24'
p525
sg40
g10
sg42
S'--'
p526
ssg256
(dp527
g5
S'--'
p528
sg7
S'--'
p529
sg9
g55
sg11
S'--'
p530
sg13
g55
sg14
S'Malcom Floyd'
p531
sg16
S'2014'
p532
sg18
g256
sg20
S'--'
p533
sg22
S'10/12'
p534
sg24
S'20.6'
p535
sg26
S'--'
p536
sg28
S'--'
p537
sg30
S'W31-28'
p538
sg32
S'103'
p539
sg34
g208
sg36
S'@OAK'
p540
sg38
S'44'
p541
sg40
g55
sg42
S'--'
p542
ssg273
(dp543
g5
S'--'
p544
sg7
S'--'
p545
sg9
g55
sg11
S'--'
p546
sg13
g55
sg14
S'Malcom Floyd'
p547
sg16
S'2014'
p548
sg18
g273
sg20
S'--'
p549
sg22
S'11/02'
p550
sg24
S'15.0'
p551
sg26
S'--'
p552
sg28
S'--'
p553
sg30
S'L0-37'
p554
sg32
S'60'
p555
sg34
g187
sg36
S'@MIA'
p556
sg38
S'18'
p557
sg40
g10
sg42
S'--'
p558
ssg289
(dp559
g5
S'--'
p560
sg7
S'--'
p561
sg9
g55
sg11
S'--'
p562
sg13
g55
sg14
S'Malcom Floyd'
p563
sg16
S'2014'
p564
sg18
g289
sg20
S'--'
p565
sg22
S'10/23'
p566
sg24
S'14.5'
p567
sg26
S'--'
p568
sg28
S'--'
p569
sg30
S'L21-35'
p570
sg32
S'58'
p571
sg34
g187
sg36
S'@DEN'
p572
sg38
S'26'
p573
sg40
g10
sg42
S'--'
p574
sssS'2011'
p575
(dp576
g3
(dp577
g5
S'--'
p578
sg7
S'--'
p579
sg9
g10
sg11
S'--'
p580
sg13
g10
sg14
S'Malcom Floyd'
p581
sg16
S'2011'
p582
sg18
S'11'
p583
sg20
S'--'
p584
sg22
S'11/20'
p585
sg24
S'--'
p586
sg26
S'--'
p587
sg28
S'--'
p588
sg30
S'L20-31'
p589
sg32
S'--'
p590
sg34
S'--'
p591
sg36
S'@CHI'
p592
sg38
S'--'
p593
sg40
S'--'
p594
sg42
S'--'
p595
ssg44
(dp596
g5
S'--'
p597
sg7
S'--'
p598
sg9
g10
sg11
S'--'
p599
sg13
g10
sg14
S'Malcom Floyd'
p600
sg16
S'2011'
p601
sg18
S'10'
p602
sg20
S'--'
p603
sg22
S'11/10'
p604
sg24
S'--'
p605
sg26
S'--'
p606
sg28
S'--'
p607
sg30
S'L17-24'
p608
sg32
S'--'
p609
sg34
S'--'
p610
sg36
S'OAK'
p611
sg38
S'--'
p612
sg40
S'--'
p613
sg42
S'--'
p614
ssg51
(dp615
g5
S'--'
p616
sg7
S'--'
p617
sg9
g55
sg11
S'--'
p618
sg13
g55
sg14
S'Malcom Floyd'
p619
sg16
S'2011'
p620
sg18
S'13'
p621
sg20
S'--'
p622
sg22
S'12/05'
p623
sg24
S'27.0'
p624
sg26
S'--'
p625
sg28
S'--'
p626
sg30
S'W38-14'
p627
sg32
S'108'
p628
sg34
g187
sg36
S'@JAC'
p629
sg38
S'52T'
p630
sg40
g55
sg42
S'--'
p631
ssg68
(dp632
g5
S'--'
p633
sg7
S'--'
p634
sg9
g10
sg11
S'--'
p635
sg13
g10
sg14
S'Malcom Floyd'
p636
sg16
S'2011'
p637
sg18
S'12'
p638
sg20
S'--'
p639
sg22
S'11/27'
p640
sg24
S'--'
p641
sg26
S'--'
p642
sg28
S'--'
p643
sg30
S'L13-16'
p644
sg32
S'--'
p645
sg34
S'--'
p646
sg36
S'DEN'
p647
sg38
S'--'
p648
sg40
S'--'
p649
sg42
S'--'
p650
ssg86
(dp651
g5
S'--'
p652
sg7
S'--'
p653
sg9
g10
sg11
S'--'
p654
sg13
g55
sg14
S'Malcom Floyd'
p655
sg16
S'2011'
p656
sg18
S'15'
p657
sg20
S'--'
p658
sg22
S'12/18'
p659
sg24
S'19.2'
p660
sg26
S'--'
p661
sg28
S'--'
p662
sg30
S'W34-14'
p663
sg32
S'96'
p664
sg34
g208
sg36
S'BAL'
p665
sg38
S'28T'
p666
sg40
g55
sg42
S'--'
p667
ssg104
(dp668
g5
S'--'
p669
sg7
S'--'
p670
sg9
g55
sg11
S'--'
p671
sg13
g55
sg14
S'Malcom Floyd'
p672
sg16
S'2011'
p673
sg18
S'14'
p674
sg20
S'--'
p675
sg22
S'12/11'
p676
sg24
S'14.5'
p677
sg26
S'--'
p678
sg28
S'--'
p679
sg30
S'W37-10'
p680
sg32
S'29'
p681
sg34
g191
sg36
S'BUF'
p682
sg38
S'15'
p683
sg40
g10
sg42
S'--'
p684
ssg123
(dp685
g5
S'--'
p686
sg7
S'--'
p687
sg9
g55
sg11
S'--'
p688
sg13
g55
sg14
S'Malcom Floyd'
p689
sg16
S'2011'
p690
sg18
S'17'
p691
sg20
S'--'
p692
sg22
S'01/01'
p693
sg24
S'18.1'
p694
sg26
S'--'
p695
sg28
S'--'
p696
sg30
S'W38-26'
p697
sg32
S'127'
p698
sg34
g241
sg36
S'@OAK'
p699
sg38
S'43T'
p700
sg40
g55
sg42
S'--'
p701
ssg140
(dp702
g5
S'--'
p703
sg7
S'--'
p704
sg9
g55
sg11
S'--'
p705
sg13
g55
sg14
S'Malcom Floyd'
p706
sg16
S'2011'
p707
sg18
S'16'
p708
sg20
S'--'
p709
sg22
S'12/24'
p710
sg24
S'15.8'
p711
sg26
S'--'
p712
sg28
S'--'
p713
sg30
S'L10-38'
p714
sg32
S'95'
p715
sg34
g256
sg36
S'@DET'
p716
sg38
S'30'
p717
sg40
g55
sg42
S'--'
p718
ssg55
(dp719
g5
S'--'
p720
sg7
S'--'
p721
sg9
g55
sg11
S'--'
p722
sg13
g55
sg14
S'Malcom Floyd'
p723
sg16
S'2011'
p724
sg18
g55
sg20
S'--'
p725
sg22
S'09/11'
p726
sg24
S'15.0'
p727
sg26
S'--'
p728
sg28
S'--'
p729
sg30
S'W24-17'
p730
sg32
S'45'
p731
sg34
g119
sg36
S'MIN'
p732
sg38
S'16'
p733
sg40
g10
sg42
S'--'
p734
ssg119
(dp735
g5
S'--'
p736
sg7
S'--'
p737
sg9
g10
sg11
S'--'
p738
sg13
g55
sg14
S'Malcom Floyd'
p739
sg16
S'2011'
p740
sg18
g119
sg20
S'--'
p741
sg22
S'09/25'
p742
sg24
S'14.0'
p743
sg26
S'--'
p744
sg28
S'--'
p745
sg30
S'W20-17'
p746
sg32
S'28'
p747
sg34
g191
sg36
S'KC'
p748
sg38
S'17'
p749
sg40
g10
sg42
S'--'
p750
ssg191
(dp751
g5
S'--'
p752
sg7
S'--'
p753
sg9
g55
sg11
S'--'
p754
sg13
g55
sg14
S'Malcom Floyd'
p755
sg16
S'2011'
p756
sg18
g191
sg20
S'--'
p757
sg22
S'09/18'
p758
sg24
S'29.5'
p759
sg26
S'--'
p760
sg28
S'--'
p761
sg30
S'L21-35'
p762
sg32
S'59'
p763
sg34
g191
sg36
S'@NE'
p764
sg38
S'36'
p765
sg40
g10
sg42
S'--'
p766
ssg208
(dp767
g5
S'--'
p768
sg7
S'--'
p769
sg9
g55
sg11
S'--'
p770
sg13
g55
sg14
S'Malcom Floyd'
p771
sg16
S'2011'
p772
sg18
g208
sg20
S'--'
p773
sg22
S'10/09'
p774
sg24
S'33.3'
p775
sg26
S'--'
p776
sg28
S'--'
p777
sg30
S'W29-24'
p778
sg32
S'100'
p779
sg34
g119
sg36
S'@DEN'
p780
sg38
S'42T'
p781
sg40
g55
sg42
S'--'
p782
ssg187
(dp783
g5
S'--'
p784
sg7
S'--'
p785
sg9
g55
sg11
S'--'
p786
sg13
g55
sg14
S'Malcom Floyd'
p787
sg16
S'2011'
p788
sg18
g187
sg20
S'--'
p789
sg22
S'10/02'
p790
sg24
S'13.0'
p791
sg26
S'--'
p792
sg28
S'--'
p793
sg30
S'W26-16'
p794
sg32
S'26'
p795
sg34
g191
sg36
S'MIA'
p796
sg38
S'15'
p797
sg40
g10
sg42
S'--'
p798
ssg241
(dp799
g5
S'--'
p800
sg7
S'--'
p801
sg9
g55
sg11
S'--'
p802
sg13
g55
sg14
S'Malcom Floyd'
p803
sg16
S'2011'
p804
sg18
g241
sg20
S'--'
p805
sg22
S'10/23'
p806
sg24
S'18.0'
p807
sg26
S'--'
p808
sg28
S'--'
p809
sg30
S'L21-27'
p810
sg32
S'36'
p811
sg34
g191
sg36
S'@NYJ'
p812
sg38
S'28'
p813
sg40
g10
sg42
S'--'
p814
ssg256
(dp815
g5
g46
sg7
g46
sg9
g46
sg11
g46
sg13
g46
sg14
S'Malcom Floyd'
p816
sg16
S'2011'
p817
sg18
g256
sg20
g46
sg22
S'Bye'
p818
sg24
g46
sg26
g46
sg28
g46
sg30
g46
sg32
g46
sg34
g46
sg36
g46
sg38
g46
sg40
g46
sg42
g46
ssg273
(dp819
g5
S'--'
p820
sg7
S'--'
p821
sg9
g10
sg11
S'--'
p822
sg13
g10
sg14
S'Malcom Floyd'
p823
sg16
S'2011'
p824
sg18
g273
sg20
S'--'
p825
sg22
S'11/06'
p826
sg24
S'--'
p827
sg26
S'--'
p828
sg28
S'--'
p829
sg30
S'L38-45'
p830
sg32
S'--'
p831
sg34
S'--'
p832
sg36
S'GB'
p833
sg38
S'--'
p834
sg40
S'--'
p835
sg42
S'--'
p836
ssg289
(dp837
g5
S'--'
p838
sg7
S'--'
p839
sg9
g10
sg11
S'--'
p840
sg13
g55
sg14
S'Malcom Floyd'
p841
sg16
S'2011'
p842
sg18
g289
sg20
S'--'
p843
sg22
S'10/31'
p844
sg24
S'21.4'
p845
sg26
S'--'
p846
sg28
S'--'
p847
sg30
S'L20-23'
p848
sg32
S'107'
p849
sg34
g208
sg36
S'@KC'
p850
sg38
S'39'
p851
sg40
g10
sg42
S'--'
p852
sssS'2010'
p853
(dp854
g3
(dp855
g5
S'--'
p856
sg7
S'--'
p857
sg9
g55
sg11
S'--'
p858
sg13
g55
sg14
S'Malcom Floyd'
p859
sg16
S'2010'
p860
sg18
S'11'
p861
sg20
S'--'
p862
sg22
S'11/22'
p863
sg24
S'12.0'
p864
sg26
S'--'
p865
sg28
S'--'
p866
sg30
S'W35-14'
p867
sg32
S'24'
p868
sg34
g191
sg36
S'DEN'
p869
sg38
S'18'
p870
sg40
g55
sg42
S'--'
p871
ssg44
(dp872
g5
g46
sg7
g46
sg9
g46
sg11
g46
sg13
g46
sg14
S'Malcom Floyd'
p873
sg16
S'2010'
p874
sg18
S'10'
p875
sg20
g46
sg22
S'Bye'
p876
sg24
g46
sg26
g46
sg28
g46
sg30
g46
sg32
g46
sg34
g46
sg36
g46
sg38
g46
sg40
g46
sg42
g46
ssg51
(dp877
g5
S'--'
p878
sg7
S'--'
p879
sg9
g55
sg11
S'--'
p880
sg13
g55
sg14
S'Malcom Floyd'
p881
sg16
S'2010'
p882
sg18
S'13'
p883
sg20
S'--'
p884
sg22
S'12/05'
p885
sg24
S'14.4'
p886
sg26
S'--'
p887
sg28
S'--'
p888
sg30
S'L13-28'
p889
sg32
S'72'
p890
sg34
g208
sg36
S'OAK'
p891
sg38
S'24'
p892
sg40
g10
sg42
S'--'
p893
ssg68
(dp894
g5
S'--'
p895
sg7
S'--'
p896
sg9
g10
sg11
S'--'
p897
sg13
g55
sg14
S'Malcom Floyd'
p898
sg16
S'2010'
p899
sg18
S'12'
p900
sg20
S'--'
p901
sg22
S'11/28'
p902
sg24
S'--'
p903
sg26
S'--'
p904
sg28
S'--'
p905
sg30
S'W36-14'
p906
sg32
g10
sg34
g10
sg36
S'@IND'
p907
sg38
S'--'
p908
sg40
g10
sg42
S'--'
p909
ssg86
(dp910
g5
S'--'
p911
sg7
S'--'
p912
sg9
g10
sg11
S'--'
p913
sg13
g10
sg14
S'Malcom Floyd'
p914
sg16
S'2010'
p915
sg18
S'15'
p916
sg20
S'--'
p917
sg22
S'12/16'
p918
sg24
S'--'
p919
sg26
S'--'
p920
sg28
S'--'
p921
sg30
S'W34-7'
p922
sg32
S'--'
p923
sg34
S'--'
p924
sg36
S'SF'
p925
sg38
S'--'
p926
sg40
S'--'
p927
sg42
S'--'
p928
ssg104
(dp929
g5
S'--'
p930
sg7
S'--'
p931
sg9
g55
sg11
g10
sg13
g55
sg14
S'Malcom Floyd'
p932
sg16
S'2010'
p933
sg18
S'14'
p934
sg20
S'--'
p935
sg22
S'12/12'
p936
sg24
S'12.8'
p937
sg26
g55
sg28
S'--'
p938
sg30
S'W31-0'
p939
sg32
S'51'
p940
sg34
g187
sg36
S'KC'
p941
sg38
S'18'
p942
sg40
g191
sg42
S'--'
p943
ssg123
(dp944
g5
S'--'
p945
sg7
S'--'
p946
sg9
g10
sg11
S'--'
p947
sg13
g55
sg14
S'Malcom Floyd'
p948
sg16
S'2010'
p949
sg18
S'17'
p950
sg20
S'--'
p951
sg22
S'01/02'
p952
sg24
S'28.5'
p953
sg26
S'--'
p954
sg28
S'--'
p955
sg30
S'W33-28'
p956
sg32
S'57'
p957
sg34
g191
sg36
S'@DEN'
p958
sg38
S'41'
p959
sg40
g10
sg42
S'--'
p960
ssg140
(dp961
g5
S'--'
p962
sg7
S'--'
p963
sg9
g10
sg11
S'--'
p964
sg13
g10
sg14
S'Malcom Floyd'
p965
sg16
S'2010'
p966
sg18
S'16'
p967
sg20
S'--'
p968
sg22
S'12/26'
p969
sg24
S'--'
p970
sg26
S'--'
p971
sg28
S'--'
p972
sg30
S'L20-34'
p973
sg32
S'--'
p974
sg34
S'--'
p975
sg36
S'@CIN'
p976
sg38
S'--'
p977
sg40
S'--'
p978
sg42
S'--'
p979
ssg55
(dp980
g5
S'--'
p981
sg7
S'--'
p982
sg9
g55
sg11
S'--'
p983
sg13
g55
sg14
S'Malcom Floyd'
p984
sg16
S'2010'
p985
sg18
g55
sg20
S'--'
p986
sg22
S'09/13'
p987
sg24
S'16.0'
p988
sg26
S'--'
p989
sg28
S'--'
p990
sg30
S'L14-21'
p991
sg32
S'48'
p992
sg34
g119
sg36
S'@KC'
p993
sg38
S'22'
p994
sg40
g10
sg42
S'--'
p995
ssg119
(dp996
g5
S'--'
p997
sg7
S'--'
p998
sg9
g55
sg11
S'--'
p999
sg13
g55
sg14
S'Malcom Floyd'
p1000
sg16
S'2010'
p1001
sg18
g119
sg20
S'--'
p1002
sg22
S'09/26'
p1003
sg24
S'16.2'
p1004
sg26
S'--'
p1005
sg28
S'--'
p1006
sg30
S'L20-27'
p1007
sg32
S'97'
p1008
sg34
g256
sg36
S'@SEA'
p1009
sg38
S'25'
p1010
sg40
g55
sg42
S'--'
p1011
ssg191
(dp1012
g5
S'--'
p1013
sg7
S'--'
p1014
sg9
g55
sg11
S'--'
p1015
sg13
g55
sg14
S'Malcom Floyd'
p1016
sg16
S'2010'
p1017
sg18
g191
sg20
S'--'
p1018
sg22
S'09/19'
p1019
sg24
S'31.7'
p1020
sg26
S'--'
p1021
sg28
S'--'
p1022
sg30
S'W38-13'
p1023
sg32
S'95'
p1024
sg34
g119
sg36
S'JAC'
p1025
sg38
S'54T'
p1026
sg40
g55
sg42
S'--'
p1027
ssg208
(dp1028
g5
S'--'
p1029
sg7
S'--'
p1030
sg9
g55
sg11
S'--'
p1031
sg13
g55
sg14
S'Malcom Floyd'
p1032
sg16
S'2010'
p1033
sg18
g208
sg20
S'--'
p1034
sg22
S'10/10'
p1035
sg24
S'26.6'
p1036
sg26
S'--'
p1037
sg28
S'--'
p1038
sg30
S'L27-35'
p1039
sg32
S'213'
p1040
sg34
g289
sg36
S'@OAK'
p1041
sg38
S'55'
p1042
sg40
g55
sg42
S'--'
p1043
ssg187
(dp1044
g5
S'--'
p1045
sg7
S'--'
p1046
sg9
g55
sg11
S'--'
p1047
sg13
g55
sg14
S'Malcom Floyd'
p1048
sg16
S'2010'
p1049
sg18
g187
sg20
S'--'
p1050
sg22
S'10/03'
p1051
sg24
S'22.5'
p1052
sg26
S'--'
p1053
sg28
S'--'
p1054
sg30
S'W41-10'
p1055
sg32
S'45'
p1056
sg34
g191
sg36
S'ARI'
p1057
sg38
S'31'
p1058
sg40
g10
sg42
S'--'
p1059
ssg241
(dp1060
g5
S'--'
p1061
sg7
S'--'
p1062
sg9
g10
sg11
S'--'
p1063
sg13
g10
sg14
S'Malcom Floyd'
p1064
sg16
S'2010'
p1065
sg18
g241
sg20
S'--'
p1066
sg22
S'10/24'
p1067
sg24
S'--'
p1068
sg26
S'--'
p1069
sg28
S'--'
p1070
sg30
S'L20-23'
p1071
sg32
S'--'
p1072
sg34
S'--'
p1073
sg36
S'NE'
p1074
sg38
S'--'
p1075
sg40
S'--'
p1076
sg42
S'--'
p1077
ssg256
(dp1078
g5
S'--'
p1079
sg7
S'--'
p1080
sg9
g55
sg11
S'--'
p1081
sg13
g55
sg14
S'Malcom Floyd'
p1082
sg16
S'2010'
p1083
sg18
g256
sg20
S'--'
p1084
sg22
S'10/17'
p1085
sg24
S'7.5'
p1086
sg26
S'--'
p1087
sg28
S'--'
p1088
sg30
S'L17-20'
p1089
sg32
S'15'
p1090
sg34
g191
sg36
S'@STL'
p1091
sg38
S'12'
p1092
sg40
g10
sg42
S'--'
p1093
ssg273
(dp1094
g5
S'--'
p1095
sg7
S'--'
p1096
sg9
g10
sg11
S'--'
p1097
sg13
g10
sg14
S'Malcom Floyd'
p1098
sg16
S'2010'
p1099
sg18
g273
sg20
S'--'
p1100
sg22
S'11/07'
p1101
sg24
S'--'
p1102
sg26
S'--'
p1103
sg28
S'--'
p1104
sg30
S'W29-23'
p1105
sg32
S'--'
p1106
sg34
S'--'
p1107
sg36
S'@HOU'
p1108
sg38
S'--'
p1109
sg40
S'--'
p1110
sg42
S'--'
p1111
ssg289
(dp1112
g5
S'--'
p1113
sg7
S'--'
p1114
sg9
g10
sg11
S'--'
p1115
sg13
g10
sg14
S'Malcom Floyd'
p1116
sg16
S'2010'
p1117
sg18
g289
sg20
S'--'
p1118
sg22
S'10/31'
p1119
sg24
S'--'
p1120
sg26
S'--'
p1121
sg28
S'--'
p1122
sg30
S'W33-25'
p1123
sg32
S'--'
p1124
sg34
S'--'
p1125
sg36
S'TEN'
p1126
sg38
S'--'
p1127
sg40
S'--'
p1128
sg42
S'--'
p1129
sssS'2013'
p1130
(dp1131
g55
(dp1132
g5
S'--'
p1133
sg7
S'--'
p1134
sg9
g55
sg11
S'--'
p1135
sg13
g55
sg14
S'Malcom Floyd'
p1136
sg16
S'2013'
p1137
sg18
g55
sg20
S'--'
p1138
sg22
S'09/09'
p1139
sg24
S'47.0'
p1140
sg26
S'--'
p1141
sg28
S'--'
p1142
sg30
S'L28-31'
p1143
sg32
S'47'
p1144
sg34
g55
sg36
S'HOU'
p1145
sg38
S'47'
p1146
sg40
g10
sg42
S'--'
p1147
ssg119
(dp1148
g5
S'--'
p1149
sg7
S'--'
p1150
sg9
g10
sg11
S'--'
p1151
sg13
g10
sg14
S'Malcom Floyd'
p1152
sg16
S'2013'
p1153
sg18
g119
sg20
S'--'
p1154
sg22
S'09/22'
p1155
sg24
S'--'
p1156
sg26
S'--'
p1157
sg28
S'--'
p1158
sg30
S'L17-20'
p1159
sg32
S'--'
p1160
sg34
S'--'
p1161
sg36
S'@TEN'
p1162
sg38
S'--'
p1163
sg40
S'--'
p1164
sg42
S'--'
p1165
ssg191
(dp1166
g5
S'--'
p1167
sg7
S'--'
p1168
sg9
g55
sg11
S'--'
p1169
sg13
g55
sg14
S'Malcom Floyd'
p1170
sg16
S'2013'
p1171
sg18
g191
sg20
S'--'
p1172
sg22
S'09/15'
p1173
sg24
S'20.4'
p1174
sg26
S'--'
p1175
sg28
S'--'
p1176
sg30
S'W33-30'
p1177
sg32
S'102'
p1178
sg34
g208
sg36
S'@PHI'
p1179
sg38
S'31'
p1180
sg40
g10
sg42
S'--'
p1181
ssg187
(dp1182
g5
S'--'
p1183
sg7
S'--'
p1184
sg9
g10
sg11
S'--'
p1185
sg13
g10
sg14
S'Malcom Floyd'
p1186
sg16
S'2013'
p1187
sg18
g187
sg20
S'--'
p1188
sg22
S'09/29'
p1189
sg24
S'--'
p1190
sg26
S'--'
p1191
sg28
S'--'
p1192
sg30
S'W30-21'
p1193
sg32
S'--'
p1194
sg34
S'--'
p1195
sg36
S'DAL'
p1196
sg38
S'--'
p1197
sg40
S'--'
p1198
sg42
S'--'
p1199
sssS'2012'
p1200
(dp1201
g3
(dp1202
g5
S'--'
p1203
sg7
S'--'
p1204
sg9
g55
sg11
S'--'
p1205
sg13
g55
sg14
S'Malcom Floyd'
p1206
sg16
S'2012'
p1207
sg18
S'11'
p1208
sg20
S'--'
p1209
sg22
S'11/18'
p1210
sg24
S'16.8'
p1211
sg26
S'--'
p1212
sg28
S'--'
p1213
sg30
S'L23-30'
p1214
sg32
S'67'
p1215
sg34
g187
sg36
S'@DEN'
p1216
sg38
S'38'
p1217
sg40
g10
sg42
S'--'
p1218
ssg44
(dp1219
g5
S'--'
p1220
sg7
S'--'
p1221
sg9
g55
sg11
S'--'
p1222
sg13
g55
sg14
S'Malcom Floyd'
p1223
sg16
S'2012'
p1224
sg18
S'10'
p1225
sg20
S'--'
p1226
sg22
S'11/11'
p1227
sg24
S'10.5'
p1228
sg26
S'--'
p1229
sg28
S'--'
p1230
sg30
S'L24-34'
p1231
sg32
S'63'
p1232
sg34
g256
sg36
S'@TB'
p1233
sg38
S'22'
p1234
sg40
g55
sg42
S'--'
p1235
ssg51
(dp1236
g5
S'--'
p1237
sg7
S'--'
p1238
sg9
g55
sg11
S'--'
p1239
sg13
g55
sg14
S'Malcom Floyd'
p1240
sg16
S'2012'
p1241
sg18
S'13'
p1242
sg20
S'--'
p1243
sg22
S'12/02'
p1244
sg24
S'15.3'
p1245
sg26
S'--'
p1246
sg28
S'--'
p1247
sg30
S'L13-20'
p1248
sg32
S'61'
p1249
sg34
g187
sg36
S'CIN'
p1250
sg38
S'24'
p1251
sg40
g10
sg42
S'--'
p1252
ssg68
(dp1253
g5
S'--'
p1254
sg7
S'--'
p1255
sg9
g55
sg11
S'--'
p1256
sg13
g55
sg14
S'Malcom Floyd'
p1257
sg16
S'2012'
p1258
sg18
S'12'
p1259
sg20
S'--'
p1260
sg22
S'11/25'
p1261
sg24
S'16.3'
p1262
sg26
S'--'
p1263
sg28
S'--'
p1264
sg30
S'L13-16'
p1265
sg32
S'65'
p1266
sg34
g187
sg36
S'BAL'
p1267
sg38
S'21T'
p1268
sg40
g55
sg42
S'--'
p1269
ssg86
(dp1270
g5
S'--'
p1271
sg7
S'--'
p1272
sg9
g55
sg11
S'--'
p1273
sg13
g55
sg14
S'Malcom Floyd'
p1274
sg16
S'2012'
p1275
sg18
S'15'
p1276
sg20
S'--'
p1277
sg22
S'12/16'
p1278
sg24
S'19.5'
p1279
sg26
S'--'
p1280
sg28
S'--'
p1281
sg30
S'L7-31'
p1282
sg32
S'39'
p1283
sg34
g191
sg36
S'CAR'
p1284
sg38
S'30'
p1285
sg40
g10
sg42
S'--'
p1286
ssg104
(dp1287
g5
S'--'
p1288
sg7
S'--'
p1289
sg9
g55
sg11
S'--'
p1290
sg13
g55
sg14
S'Malcom Floyd'
p1291
sg16
S'2012'
p1292
sg18
S'14'
p1293
sg20
S'--'
p1294
sg22
S'12/09'
p1295
sg24
S'3.3'
p1296
sg26
S'--'
p1297
sg28
S'--'
p1298
sg30
S'W34-24'
p1299
sg32
S'10'
p1300
sg34
g119
sg36
S'@PIT'
p1301
sg38
g187
sg40
g55
sg42
S'--'
p1302
ssg55
(dp1303
g5
S'--'
p1304
sg7
S'--'
p1305
sg9
g55
sg11
S'--'
p1306
sg13
g55
sg14
S'Malcom Floyd'
p1307
sg16
S'2012'
p1308
sg18
g55
sg20
S'--'
p1309
sg22
S'09/10'
p1310
sg24
S'16.5'
p1311
sg26
S'--'
p1312
sg28
S'--'
p1313
sg30
S'W22-14'
p1314
sg32
S'66'
p1315
sg34
g187
sg36
S'@OAK'
p1316
sg38
S'25'
p1317
sg40
g55
sg42
S'--'
p1318
ssg119
(dp1319
g5
S'--'
p1320
sg7
S'--'
p1321
sg9
g55
sg11
S'--'
p1322
sg13
g55
sg14
S'Malcom Floyd'
p1323
sg16
S'2012'
p1324
sg18
g119
sg20
S'--'
p1325
sg22
S'09/23'
p1326
sg24
S'17.3'
p1327
sg26
S'--'
p1328
sg28
S'--'
p1329
sg30
S'L3-27'
p1330
sg32
S'52'
p1331
sg34
g119
sg36
S'ATL'
p1332
sg38
S'28'
p1333
sg40
g10
sg42
S'--'
p1334
ssg191
(dp1335
g5
S'--'
p1336
sg7
S'--'
p1337
sg9
g55
sg11
S'--'
p1338
sg13
g55
sg14
S'Malcom Floyd'
p1339
sg16
S'2012'
p1340
sg18
g191
sg20
S'--'
p1341
sg22
S'09/16'
p1342
sg24
S'18.2'
p1343
sg26
S'--'
p1344
sg28
S'--'
p1345
sg30
S'W38-10'
p1346
sg32
S'109'
p1347
sg34
g256
sg36
S'TEN'
p1348
sg38
S'27'
p1349
sg40
g10
sg42
S'--'
p1350
ssg208
(dp1351
g5
S'--'
p1352
sg7
S'--'
p1353
sg9
g55
sg11
S'--'
p1354
sg13
g55
sg14
S'Malcom Floyd'
p1355
sg16
S'2012'
p1356
sg18
g208
sg20
S'--'
p1357
sg22
S'10/07'
p1358
sg24
S'21.6'
p1359
sg26
S'--'
p1360
sg28
S'--'
p1361
sg30
S'L24-31'
p1362
sg32
S'108'
p1363
sg34
g208
sg36
S'@NO'
p1364
sg38
S'39'
p1365
sg40
g10
sg42
S'--'
p1366
ssg187
(dp1367
g5
S'--'
p1368
sg7
S'--'
p1369
sg9
g55
sg11
S'--'
p1370
sg13
g55
sg14
S'Malcom Floyd'
p1371
sg16
S'2012'
p1372
sg18
g187
sg20
S'--'
p1373
sg22
S'09/30'
p1374
sg24
S'11.5'
p1375
sg26
S'--'
p1376
sg28
S'--'
p1377
sg30
S'W37-20'
p1378
sg32
S'23'
p1379
sg34
g191
sg36
S'@KC'
p1380
sg38
S'21'
p1381
sg40
g10
sg42
S'--'
p1382
ssg241
(dp1383
g5
g46
sg7
g46
sg9
g46
sg11
g46
sg13
g46
sg14
S'Malcom Floyd'
p1384
sg16
S'2012'
p1385
sg18
g241
sg20
g46
sg22
S'Bye'
p1386
sg24
g46
sg26
g46
sg28
g46
sg30
g46
sg32
g46
sg34
g46
sg36
g46
sg38
g46
sg40
g46
sg42
g46
ssg256
(dp1387
g5
S'--'
p1388
sg7
S'--'
p1389
sg9
g55
sg11
S'--'
p1390
sg13
g55
sg14
S'Malcom Floyd'
p1391
sg16
S'2012'
p1392
sg18
g256
sg20
S'--'
p1393
sg22
S'10/15'
p1394
sg24
S'12.0'
p1395
sg26
S'--'
p1396
sg28
S'--'
p1397
sg30
S'L24-35'
p1398
sg32
S'60'
p1399
sg34
g208
sg36
S'DEN'
p1400
sg38
S'25'
p1401
sg40
g10
sg42
S'--'
p1402
ssg273
(dp1403
g5
S'--'
p1404
sg7
S'--'
p1405
sg9
g55
sg11
S'--'
p1406
sg13
g55
sg14
S'Malcom Floyd'
p1407
sg16
S'2012'
p1408
sg18
g273
sg20
S'--'
p1409
sg22
S'11/01'
p1410
sg24
S'12.0'
p1411
sg26
S'--'
p1412
sg28
S'--'
p1413
sg30
S'W31-13'
p1414
sg32
S'48'
p1415
sg34
g187
sg36
S'KC'
p1416
sg38
S'16'
p1417
sg40
g55
sg42
S'--'
p1418
ssg289
(dp1419
g5
S'--'
p1420
sg7
S'--'
p1421
sg9
g55
sg11
S'--'
p1422
sg13
g55
sg14
S'Malcom Floyd'
p1423
sg16
S'2012'
p1424
sg18
g289
sg20
S'--'
p1425
sg22
S'10/28'
p1426
sg24
S'10.8'
p1427
sg26
S'--'
p1428
sg28
S'--'
p1429
sg30
S'L6-7'
p1430
sg32
S'43'
p1431
sg34
g187
sg36
S'@CLE'
p1432
sg38
S'14'
p1433
sg40
g10
sg42
S'--'
p1434
sss.