(dp0
S'2015'
p1
(dp2
S'11'
p3
(dp4
S'RushTD'
p5
S'--'
p6
sS'RushYds'
p7
S'--'
p8
sS'GS'
p9
S'0'
p10
sS'Lost'
p11
S'--'
p12
sS'G'
p13
S'1'
p14
sS'Player'
p15
S'Marc Mariani'
p16
sS'Year'
p17
S'2015'
p18
sS'WK'
p19
S'11'
p20
sS'RushAvg'
p21
S'--'
p22
sS'Game Date'
p23
S'11/22'
p24
sS'RecAvg'
p25
S'10.0'
p26
sS'FUM'
p27
S'--'
p28
sS'RushAtt'
p29
S'--'
p30
sS'Result'
p31
S'L15-17'
p32
sS'RecYds'
p33
S'10'
p34
sS'Rec'
p35
g14
sS'Opp'
p36
S'DEN'
p37
sS'RecLng'
p38
S'10'
p39
sS'RecTD'
p40
g10
sS'RushLng'
p41
S'--'
p42
ssS'10'
p43
(dp44
g5
S'--'
p45
sg7
S'--'
p46
sg9
g10
sg11
g14
sg13
g14
sg15
S'Marc Mariani'
p47
sg17
S'2015'
p48
sg19
S'10'
p49
sg21
S'--'
p50
sg23
S'11/15'
p51
sg25
S'--'
p52
sg27
g14
sg29
S'--'
p53
sg31
S'W37-13'
p54
sg33
S'--'
p55
sg35
S'--'
p56
sg36
S'@STL'
p57
sg38
S'--'
p58
sg40
S'--'
p59
sg41
S'--'
p60
ssS'13'
p61
(dp62
g5
S'--'
p63
sg7
S'--'
p64
sg9
g10
sg11
S'--'
p65
sg13
g14
sg15
S'Marc Mariani'
p66
sg17
S'2015'
p67
sg19
S'13'
p68
sg21
S'--'
p69
sg23
S'12/06'
p70
sg25
S'16.5'
p71
sg27
S'--'
p72
sg29
S'--'
p73
sg31
S'L20-26'
p74
sg33
S'33'
p75
sg35
S'2'
p76
sg36
S'SF'
p77
sg38
S'26'
p78
sg40
g10
sg41
S'--'
p79
ssS'12'
p80
(dp81
g5
S'--'
p82
sg7
S'--'
p83
sg9
g10
sg11
S'--'
p84
sg13
g14
sg15
S'Marc Mariani'
p85
sg17
S'2015'
p86
sg19
S'12'
p87
sg21
S'--'
p88
sg23
S'11/26'
p89
sg25
S'11.7'
p90
sg27
S'--'
p91
sg29
S'--'
p92
sg31
S'W17-13'
p93
sg33
S'35'
p94
sg35
S'3'
p95
sg36
S'@GB'
p96
sg38
S'21'
p97
sg40
g10
sg41
S'--'
p98
ssS'15'
p99
(dp100
g5
S'--'
p101
sg7
S'--'
p102
sg9
g10
sg11
S'--'
p103
sg13
g14
sg15
S'Marc Mariani'
p104
sg17
S'2015'
p105
sg19
S'15'
p106
sg21
S'--'
p107
sg23
S'12/20'
p108
sg25
S'10.3'
p109
sg27
S'--'
p110
sg29
S'--'
p111
sg31
S'L17-38'
p112
sg33
S'31'
p113
sg35
g95
sg36
S'@MIN'
p114
sg38
S'14'
p115
sg40
g10
sg41
S'--'
p116
ssS'14'
p117
(dp118
g5
S'--'
p119
sg7
S'--'
p120
sg9
g14
sg11
S'--'
p121
sg13
g14
sg15
S'Marc Mariani'
p122
sg17
S'2015'
p123
sg19
S'14'
p124
sg21
S'--'
p125
sg23
S'12/13'
p126
sg25
S'18.5'
p127
sg27
S'--'
p128
sg29
S'--'
p129
sg31
S'L21-24'
p130
sg33
S'37'
p131
sg35
g76
sg36
S'WAS'
p132
sg38
S'24'
p133
sg40
g10
sg41
S'--'
p134
ssS'17'
p135
(dp136
g5
S'--'
p137
sg7
S'--'
p138
sg9
g14
sg11
S'--'
p139
sg13
g14
sg15
S'Marc Mariani'
p140
sg17
S'2015'
p141
sg19
S'17'
p142
sg21
S'--'
p143
sg23
S'01/03'
p144
sg25
S'13.3'
p145
sg27
S'--'
p146
sg29
S'--'
p147
sg31
S'L20-24'
p148
sg33
S'80'
p149
sg35
S'6'
p150
sg36
S'DET'
p151
sg38
S'24'
p152
sg40
g10
sg41
S'--'
p153
ssS'16'
p154
(dp155
g5
S'--'
p156
sg7
S'--'
p157
sg9
g14
sg11
S'--'
p158
sg13
g14
sg15
S'Marc Mariani'
p159
sg17
S'2015'
p160
sg19
S'16'
p161
sg21
S'--'
p162
sg23
S'12/27'
p163
sg25
S'16.0'
p164
sg27
S'--'
p165
sg29
S'--'
p166
sg31
S'W26-21'
p167
sg33
S'32'
p168
sg35
g76
sg36
S'@TB'
p169
sg38
S'25'
p170
sg40
g10
sg41
S'--'
p171
ssg14
(dp172
g5
S'--'
p173
sg7
S'--'
p174
sg9
g10
sg11
S'--'
p175
sg13
g14
sg15
S'Marc Mariani'
p176
sg17
S'2015'
p177
sg19
g14
sg21
S'--'
p178
sg23
S'09/13'
p179
sg25
S'--'
p180
sg27
S'--'
p181
sg29
S'--'
p182
sg31
S'L23-31'
p183
sg33
S'--'
p184
sg35
S'--'
p185
sg36
S'GB'
p186
sg38
S'--'
p187
sg40
S'--'
p188
sg41
S'--'
p189
ssg95
(dp190
g5
S'--'
p191
sg7
S'--'
p192
sg9
g10
sg11
S'--'
p193
sg13
g14
sg15
S'Marc Mariani'
p194
sg17
S'2015'
p195
sg19
g95
sg21
S'--'
p196
sg23
S'09/27'
p197
sg25
S'--'
p198
sg27
S'--'
p199
sg29
S'--'
p200
sg31
S'L0-26'
p201
sg33
S'--'
p202
sg35
S'--'
p203
sg36
S'@SEA'
p204
sg38
S'--'
p205
sg40
S'--'
p206
sg41
S'--'
p207
ssg76
(dp208
g5
S'--'
p209
sg7
S'--'
p210
sg9
g10
sg11
S'--'
p211
sg13
g14
sg15
S'Marc Mariani'
p212
sg17
S'2015'
p213
sg19
g76
sg21
S'--'
p214
sg23
S'09/20'
p215
sg25
S'--'
p216
sg27
S'--'
p217
sg29
S'--'
p218
sg31
S'L23-48'
p219
sg33
S'--'
p220
sg35
S'--'
p221
sg36
S'ARI'
p222
sg38
S'--'
p223
sg40
S'--'
p224
sg41
S'--'
p225
ssS'5'
p226
(dp227
g5
S'--'
p228
sg7
S'--'
p229
sg9
g14
sg11
S'--'
p230
sg13
g14
sg15
S'Marc Mariani'
p231
sg17
S'2015'
p232
sg19
g226
sg21
S'--'
p233
sg23
S'10/11'
p234
sg25
S'--'
p235
sg27
S'--'
p236
sg29
S'--'
p237
sg31
S'W18-17'
p238
sg33
g10
sg35
g10
sg36
S'@KC'
p239
sg38
S'--'
p240
sg40
g10
sg41
S'--'
p241
ssS'4'
p242
(dp243
g5
S'--'
p244
sg7
S'--'
p245
sg9
g10
sg11
S'--'
p246
sg13
g14
sg15
S'Marc Mariani'
p247
sg17
S'2015'
p248
sg19
g242
sg21
S'--'
p249
sg23
S'10/04'
p250
sg25
S'--'
p251
sg27
S'--'
p252
sg29
S'--'
p253
sg31
S'W22-20'
p254
sg33
g10
sg35
g10
sg36
S'OAK'
p255
sg38
S'--'
p256
sg40
g10
sg41
S'--'
p257
ssS'7'
p258
(dp259
g5
S''
p260
sg7
g260
sg9
g260
sg11
g260
sg13
g260
sg15
S'Marc Mariani'
p261
sg17
S'2015'
p262
sg19
g258
sg21
g260
sg23
S'Bye'
p263
sg25
g260
sg27
g260
sg29
g260
sg31
g260
sg33
g260
sg35
g260
sg36
g260
sg38
g260
sg40
g260
sg41
g260
ssg150
(dp264
g5
S'--'
p265
sg7
S'--'
p266
sg9
g10
sg11
S'--'
p267
sg13
g14
sg15
S'Marc Mariani'
p268
sg17
S'2015'
p269
sg19
g150
sg21
S'--'
p270
sg23
S'10/18'
p271
sg25
S'--'
p272
sg27
S'--'
p273
sg29
S'--'
p274
sg31
S'L34-37'
p275
sg33
S'--'
p276
sg35
S'--'
p277
sg36
S'@DET'
p278
sg38
S'--'
p279
sg40
S'--'
p280
sg41
S'--'
p281
ssS'9'
p282
(dp283
g5
S'--'
p284
sg7
S'--'
p285
sg9
g14
sg11
S'--'
p286
sg13
g14
sg15
S'Marc Mariani'
p287
sg17
S'2015'
p288
sg19
g282
sg21
S'--'
p289
sg23
S'11/09'
p290
sg25
S'11.5'
p291
sg27
S'--'
p292
sg29
S'--'
p293
sg31
S'W22-19'
p294
sg33
S'23'
p295
sg35
g76
sg36
S'@SD'
p296
sg38
S'13'
p297
sg40
g10
sg41
S'--'
p298
ssS'8'
p299
(dp300
g5
S'--'
p301
sg7
S'--'
p302
sg9
g10
sg11
g10
sg13
g14
sg15
S'Marc Mariani'
p303
sg17
S'2015'
p304
sg19
g299
sg21
S'--'
p305
sg23
S'11/01'
p306
sg25
S'19.0'
p307
sg27
g76
sg29
S'--'
p308
sg31
S'L20-23'
p309
sg33
S'19'
p310
sg35
g14
sg36
S'MIN'
p311
sg38
S'19'
p312
sg40
g10
sg41
S'--'
p313
sssS'2014'
p314
(dp315
g61
(dp316
g5
S'--'
p317
sg7
S'--'
p318
sg9
g10
sg11
S'--'
p319
sg13
g14
sg15
S'Marc Mariani'
p320
sg17
S'2014'
p321
sg19
S'13'
p322
sg21
S'--'
p323
sg23
S'11/27'
p324
sg25
S'--'
p325
sg27
S'--'
p326
sg29
S'--'
p327
sg31
S'L17-34'
p328
sg33
S'--'
p329
sg35
S'--'
p330
sg36
S'@DET'
p331
sg38
S'--'
p332
sg40
S'--'
p333
sg41
S'--'
p334
ssg80
(dp335
g5
S'--'
p336
sg7
S'--'
p337
sg9
g10
sg11
S'--'
p338
sg13
g14
sg15
S'Marc Mariani'
p339
sg17
S'2014'
p340
sg19
S'12'
p341
sg21
S'--'
p342
sg23
S'11/23'
p343
sg25
S'--'
p344
sg27
S'--'
p345
sg29
S'--'
p346
sg31
S'W21-13'
p347
sg33
S'--'
p348
sg35
S'--'
p349
sg36
S'TB'
p350
sg38
S'--'
p351
sg40
S'--'
p352
sg41
S'--'
p353
ssg99
(dp354
g5
S'--'
p355
sg7
S'--'
p356
sg9
g10
sg11
S'--'
p357
sg13
g14
sg15
S'Marc Mariani'
p358
sg17
S'2014'
p359
sg19
S'15'
p360
sg21
S'--'
p361
sg23
S'12/15'
p362
sg25
S'--'
p363
sg27
S'--'
p364
sg29
S'--'
p365
sg31
S'L15-31'
p366
sg33
S'--'
p367
sg35
S'--'
p368
sg36
S'NO'
p369
sg38
S'--'
p370
sg40
S'--'
p371
sg41
S'--'
p372
ssg117
(dp373
g5
S'--'
p374
sg7
S'--'
p375
sg9
g10
sg11
S'--'
p376
sg13
g14
sg15
S'Marc Mariani'
p377
sg17
S'2014'
p378
sg19
S'14'
p379
sg21
S'--'
p380
sg23
S'12/04'
p381
sg25
S'--'
p382
sg27
S'--'
p383
sg29
S'--'
p384
sg31
S'L28-41'
p385
sg33
S'--'
p386
sg35
S'--'
p387
sg36
S'DAL'
p388
sg38
S'--'
p389
sg40
S'--'
p390
sg41
S'--'
p391
ssg135
(dp392
g5
S'--'
p393
sg7
S'--'
p394
sg9
g10
sg11
S'--'
p395
sg13
g14
sg15
S'Marc Mariani'
p396
sg17
S'2014'
p397
sg19
S'17'
p398
sg21
S'--'
p399
sg23
S'12/28'
p400
sg25
S'--'
p401
sg27
S'--'
p402
sg29
S'--'
p403
sg31
S'L9-13'
p404
sg33
S'--'
p405
sg35
S'--'
p406
sg36
S'@MIN'
p407
sg38
S'--'
p408
sg40
S'--'
p409
sg41
S'--'
p410
ssg154
(dp411
g5
S'--'
p412
sg7
S'--'
p413
sg9
g10
sg11
S'--'
p414
sg13
g14
sg15
S'Marc Mariani'
p415
sg17
S'2014'
p416
sg19
S'16'
p417
sg21
S'--'
p418
sg23
S'12/21'
p419
sg25
S'--'
p420
sg27
S'--'
p421
sg29
S'--'
p422
sg31
S'L14-20'
p423
sg33
S'--'
p424
sg35
S'--'
p425
sg36
S'DET'
p426
sg38
S'--'
p427
sg40
S'--'
p428
sg41
S'--'
p429
sssS'2011'
p430
(dp431
g3
(dp432
g5
S'--'
p433
sg7
S'--'
p434
sg9
g10
sg11
S'--'
p435
sg13
g14
sg15
S'Marc Mariani'
p436
sg17
S'2011'
p437
sg19
S'11'
p438
sg21
S'--'
p439
sg23
S'11/20'
p440
sg25
S'--'
p441
sg27
S'--'
p442
sg29
S'--'
p443
sg31
S'L17-23'
p444
sg33
g10
sg35
g10
sg36
S'@ATL'
p445
sg38
S'--'
p446
sg40
g10
sg41
S'--'
p447
ssg43
(dp448
g5
S'--'
p449
sg7
S'--'
p450
sg9
g10
sg11
S'--'
p451
sg13
g14
sg15
S'Marc Mariani'
p452
sg17
S'2011'
p453
sg19
S'10'
p454
sg21
S'--'
p455
sg23
S'11/13'
p456
sg25
S'--'
p457
sg27
S'--'
p458
sg29
S'--'
p459
sg31
S'W30-3'
p460
sg33
S'--'
p461
sg35
S'--'
p462
sg36
S'@CAR'
p463
sg38
S'--'
p464
sg40
S'--'
p465
sg41
S'--'
p466
ssg61
(dp467
g5
S'--'
p468
sg7
S'--'
p469
sg9
g10
sg11
S'--'
p470
sg13
g14
sg15
S'Marc Mariani'
p471
sg17
S'2011'
p472
sg19
S'13'
p473
sg21
S'--'
p474
sg23
S'12/04'
p475
sg25
S'--'
p476
sg27
S'--'
p477
sg29
S'--'
p478
sg31
S'W23-17'
p479
sg33
g10
sg35
g10
sg36
S'@BUF'
p480
sg38
S'--'
p481
sg40
g10
sg41
S'--'
p482
ssg80
(dp483
g5
S'--'
p484
sg7
S'--'
p485
sg9
g10
sg11
S'--'
p486
sg13
g14
sg15
S'Marc Mariani'
p487
sg17
S'2011'
p488
sg19
S'12'
p489
sg21
S'--'
p490
sg23
S'11/27'
p491
sg25
S'--'
p492
sg27
S'--'
p493
sg29
S'--'
p494
sg31
S'W23-17'
p495
sg33
S'--'
p496
sg35
S'--'
p497
sg36
S'TB'
p498
sg38
S'--'
p499
sg40
S'--'
p500
sg41
S'--'
p501
ssg99
(dp502
g5
S'--'
p503
sg7
S'--'
p504
sg9
g10
sg11
S'--'
p505
sg13
g14
sg15
S'Marc Mariani'
p506
sg17
S'2011'
p507
sg19
S'15'
p508
sg21
S'--'
p509
sg23
S'12/18'
p510
sg25
S'--'
p511
sg27
S'--'
p512
sg29
S'--'
p513
sg31
S'L13-27'
p514
sg33
S'--'
p515
sg35
S'--'
p516
sg36
S'@IND'
p517
sg38
S'--'
p518
sg40
S'--'
p519
sg41
S'--'
p520
ssg117
(dp521
g5
S'--'
p522
sg7
S'--'
p523
sg9
g10
sg11
S'--'
p524
sg13
g14
sg15
S'Marc Mariani'
p525
sg17
S'2011'
p526
sg19
S'14'
p527
sg21
S'--'
p528
sg23
S'12/11'
p529
sg25
S'--'
p530
sg27
S'--'
p531
sg29
S'--'
p532
sg31
S'L17-22'
p533
sg33
g10
sg35
g10
sg36
S'NO'
p534
sg38
S'--'
p535
sg40
g10
sg41
S'--'
p536
ssg135
(dp537
g5
S'--'
p538
sg7
S'--'
p539
sg9
g10
sg11
S'--'
p540
sg13
g14
sg15
S'Marc Mariani'
p541
sg17
S'2011'
p542
sg19
S'17'
p543
sg21
S'--'
p544
sg23
S'01/01'
p545
sg25
S'--'
p546
sg27
S'--'
p547
sg29
S'--'
p548
sg31
S'W23-22'
p549
sg33
g10
sg35
g10
sg36
S'@HOU'
p550
sg38
S'--'
p551
sg40
g10
sg41
S'--'
p552
ssg154
(dp553
g5
S'--'
p554
sg7
S'--'
p555
sg9
g10
sg11
S'--'
p556
sg13
g14
sg15
S'Marc Mariani'
p557
sg17
S'2011'
p558
sg19
S'16'
p559
sg21
S'--'
p560
sg23
S'12/24'
p561
sg25
S'--'
p562
sg27
S'--'
p563
sg29
S'--'
p564
sg31
S'W23-17'
p565
sg33
S'--'
p566
sg35
S'--'
p567
sg36
S'JAC'
p568
sg38
S'--'
p569
sg40
S'--'
p570
sg41
S'--'
p571
ssg14
(dp572
g5
S'--'
p573
sg7
S'--'
p574
sg9
g10
sg11
S'--'
p575
sg13
g14
sg15
S'Marc Mariani'
p576
sg17
S'2011'
p577
sg19
g14
sg21
S'--'
p578
sg23
S'09/11'
p579
sg25
S'--'
p580
sg27
S'--'
p581
sg29
S'--'
p582
sg31
S'L14-16'
p583
sg33
g10
sg35
g10
sg36
S'@JAC'
p584
sg38
S'--'
p585
sg40
g10
sg41
S'--'
p586
ssg95
(dp587
g5
g10
sg7
g242
sg9
g10
sg11
S'--'
p588
sg13
g14
sg15
S'Marc Mariani'
p589
sg17
S'2011'
p590
sg19
g95
sg21
S'4.0'
p591
sg23
S'09/25'
p592
sg25
S'4.0'
p593
sg27
S'--'
p594
sg29
g14
sg31
S'W17-14'
p595
sg33
g242
sg35
g14
sg36
S'DEN'
p596
sg38
g242
sg40
g10
sg41
g242
ssg76
(dp597
g5
S'--'
p598
sg7
S'--'
p599
sg9
g10
sg11
S'--'
p600
sg13
g14
sg15
S'Marc Mariani'
p601
sg17
S'2011'
p602
sg19
g76
sg21
S'--'
p603
sg23
S'09/18'
p604
sg25
S'4.5'
p605
sg27
S'--'
p606
sg29
S'--'
p607
sg31
S'W26-13'
p608
sg33
g282
sg35
g76
sg36
S'BAL'
p609
sg38
g226
sg40
g10
sg41
S'--'
p610
ssg226
(dp611
g5
S'--'
p612
sg7
S'--'
p613
sg9
g10
sg11
S'--'
p614
sg13
g14
sg15
S'Marc Mariani'
p615
sg17
S'2011'
p616
sg19
g226
sg21
S'--'
p617
sg23
S'10/09'
p618
sg25
S'5.0'
p619
sg27
S'--'
p620
sg29
S'--'
p621
sg31
S'L17-38'
p622
sg33
g226
sg35
g14
sg36
S'@PIT'
p623
sg38
g226
sg40
g10
sg41
S'--'
p624
ssg242
(dp625
g5
S'--'
p626
sg7
S'--'
p627
sg9
g10
sg11
S'--'
p628
sg13
g14
sg15
S'Marc Mariani'
p629
sg17
S'2011'
p630
sg19
g242
sg21
S'--'
p631
sg23
S'10/02'
p632
sg25
S'--'
p633
sg27
S'--'
p634
sg29
S'--'
p635
sg31
S'W31-13'
p636
sg33
S'--'
p637
sg35
S'--'
p638
sg36
S'@CLE'
p639
sg38
S'--'
p640
sg40
S'--'
p641
sg41
S'--'
p642
ssg258
(dp643
g5
S'--'
p644
sg7
S'--'
p645
sg9
g10
sg11
g10
sg13
g14
sg15
S'Marc Mariani'
p646
sg17
S'2011'
p647
sg19
g258
sg21
S'--'
p648
sg23
S'10/23'
p649
sg25
S'--'
p650
sg27
g14
sg29
S'--'
p651
sg31
S'L7-41'
p652
sg33
S'--'
p653
sg35
S'--'
p654
sg36
S'HOU'
p655
sg38
S'--'
p656
sg40
S'--'
p657
sg41
S'--'
p658
ssg150
(dp659
g5
g260
sg7
g260
sg9
g260
sg11
g260
sg13
g260
sg15
S'Marc Mariani'
p660
sg17
S'2011'
p661
sg19
g150
sg21
g260
sg23
S'Bye'
p662
sg25
g260
sg27
g260
sg29
g260
sg31
g260
sg33
g260
sg35
g260
sg36
g260
sg38
g260
sg40
g260
sg41
g260
ssg282
(dp663
g5
S'--'
p664
sg7
S'--'
p665
sg9
g10
sg11
S'--'
p666
sg13
g14
sg15
S'Marc Mariani'
p667
sg17
S'2011'
p668
sg19
g282
sg21
S'--'
p669
sg23
S'11/06'
p670
sg25
S'6.0'
p671
sg27
S'--'
p672
sg29
S'--'
p673
sg31
S'L17-24'
p674
sg33
g150
sg35
g14
sg36
S'CIN'
p675
sg38
g150
sg40
g10
sg41
S'--'
p676
ssg299
(dp677
g5
S'--'
p678
sg7
S'--'
p679
sg9
g10
sg11
S'--'
p680
sg13
g14
sg15
S'Marc Mariani'
p681
sg17
S'2011'
p682
sg19
g299
sg21
S'--'
p683
sg23
S'10/30'
p684
sg25
S'--'
p685
sg27
S'--'
p686
sg29
S'--'
p687
sg31
S'W27-10'
p688
sg33
g10
sg35
g10
sg36
S'IND'
p689
sg38
S'--'
p690
sg40
g10
sg41
S'--'
p691
sssS'2010'
p692
(dp693
g3
(dp694
g5
S'--'
p695
sg7
S'--'
p696
sg9
g10
sg11
S'--'
p697
sg13
g14
sg15
S'Marc Mariani'
p698
sg17
S'2010'
p699
sg19
S'11'
p700
sg21
S'--'
p701
sg23
S'11/21'
p702
sg25
S'--'
p703
sg27
S'--'
p704
sg29
S'--'
p705
sg31
S'L16-19'
p706
sg33
S'--'
p707
sg35
S'--'
p708
sg36
S'WAS'
p709
sg38
S'--'
p710
sg40
S'--'
p711
sg41
S'--'
p712
ssg43
(dp713
g5
S'--'
p714
sg7
S'--'
p715
sg9
g10
sg11
S'--'
p716
sg13
g14
sg15
S'Marc Mariani'
p717
sg17
S'2010'
p718
sg19
S'10'
p719
sg21
S'--'
p720
sg23
S'11/14'
p721
sg25
S'--'
p722
sg27
S'--'
p723
sg29
S'--'
p724
sg31
S'L17-29'
p725
sg33
S'--'
p726
sg35
S'--'
p727
sg36
S'@MIA'
p728
sg38
S'--'
p729
sg40
S'--'
p730
sg41
S'--'
p731
ssg61
(dp732
g5
S'--'
p733
sg7
S'--'
p734
sg9
g10
sg11
S'--'
p735
sg13
g14
sg15
S'Marc Mariani'
p736
sg17
S'2010'
p737
sg19
S'13'
p738
sg21
S'--'
p739
sg23
S'12/05'
p740
sg25
S'--'
p741
sg27
S'--'
p742
sg29
S'--'
p743
sg31
S'L6-17'
p744
sg33
S'--'
p745
sg35
S'--'
p746
sg36
S'JAC'
p747
sg38
S'--'
p748
sg40
S'--'
p749
sg41
S'--'
p750
ssg80
(dp751
g5
S'--'
p752
sg7
S'--'
p753
sg9
g10
sg11
S'--'
p754
sg13
g14
sg15
S'Marc Mariani'
p755
sg17
S'2010'
p756
sg19
S'12'
p757
sg21
S'--'
p758
sg23
S'11/28'
p759
sg25
S'--'
p760
sg27
S'--'
p761
sg29
S'--'
p762
sg31
S'L0-20'
p763
sg33
S'--'
p764
sg35
S'--'
p765
sg36
S'@HOU'
p766
sg38
S'--'
p767
sg40
S'--'
p768
sg41
S'--'
p769
ssg99
(dp770
g5
S'--'
p771
sg7
S'--'
p772
sg9
g10
sg11
S'--'
p773
sg13
g14
sg15
S'Marc Mariani'
p774
sg17
S'2010'
p775
sg19
S'15'
p776
sg21
S'--'
p777
sg23
S'12/19'
p778
sg25
S'--'
p779
sg27
S'--'
p780
sg29
S'--'
p781
sg31
S'W31-17'
p782
sg33
S'--'
p783
sg35
S'--'
p784
sg36
S'HOU'
p785
sg38
S'--'
p786
sg40
S'--'
p787
sg41
S'--'
p788
ssg117
(dp789
g5
S'--'
p790
sg7
S'--'
p791
sg9
g10
sg11
g10
sg13
g14
sg15
S'Marc Mariani'
p792
sg17
S'2010'
p793
sg19
S'14'
p794
sg21
S'--'
p795
sg23
S'12/09'
p796
sg25
S'--'
p797
sg27
g14
sg29
S'--'
p798
sg31
S'L28-30'
p799
sg33
S'--'
p800
sg35
S'--'
p801
sg36
S'IND'
p802
sg38
S'--'
p803
sg40
S'--'
p804
sg41
S'--'
p805
ssg135
(dp806
g5
S'--'
p807
sg7
S'--'
p808
sg9
g10
sg11
S'--'
p809
sg13
g14
sg15
S'Marc Mariani'
p810
sg17
S'2010'
p811
sg19
S'17'
p812
sg21
S'--'
p813
sg23
S'01/02'
p814
sg25
S'--'
p815
sg27
S'--'
p816
sg29
S'--'
p817
sg31
S'L20-23'
p818
sg33
S'--'
p819
sg35
S'--'
p820
sg36
S'@IND'
p821
sg38
S'--'
p822
sg40
S'--'
p823
sg41
S'--'
p824
ssg154
(dp825
g5
S'--'
p826
sg7
S'--'
p827
sg9
g10
sg11
S'--'
p828
sg13
g14
sg15
S'Marc Mariani'
p829
sg17
S'2010'
p830
sg19
S'16'
p831
sg21
S'--'
p832
sg23
S'12/26'
p833
sg25
S'--'
p834
sg27
S'--'
p835
sg29
S'--'
p836
sg31
S'L14-34'
p837
sg33
g10
sg35
g10
sg36
S'@KC'
p838
sg38
S'--'
p839
sg40
g10
sg41
S'--'
p840
ssg14
(dp841
g5
S'--'
p842
sg7
S'--'
p843
sg9
g10
sg11
S'--'
p844
sg13
g14
sg15
S'Marc Mariani'
p845
sg17
S'2010'
p846
sg19
g14
sg21
S'--'
p847
sg23
S'09/12'
p848
sg25
S'--'
p849
sg27
S'--'
p850
sg29
S'--'
p851
sg31
S'W38-13'
p852
sg33
g10
sg35
g10
sg36
S'OAK'
p853
sg38
S'--'
p854
sg40
g10
sg41
S'--'
p855
ssg95
(dp856
g5
S'--'
p857
sg7
S'--'
p858
sg9
g10
sg11
S'--'
p859
sg13
g14
sg15
S'Marc Mariani'
p860
sg17
S'2010'
p861
sg19
g95
sg21
S'--'
p862
sg23
S'09/26'
p863
sg25
S'--'
p864
sg27
S'--'
p865
sg29
S'--'
p866
sg31
S'W29-10'
p867
sg33
S'--'
p868
sg35
S'--'
p869
sg36
S'@NYG'
p870
sg38
S'--'
p871
sg40
S'--'
p872
sg41
S'--'
p873
ssg76
(dp874
g5
S'--'
p875
sg7
S'--'
p876
sg9
g10
sg11
g14
sg13
g14
sg15
S'Marc Mariani'
p877
sg17
S'2010'
p878
sg19
g76
sg21
S'--'
p879
sg23
S'09/19'
p880
sg25
S'--'
p881
sg27
g14
sg29
S'--'
p882
sg31
S'L11-19'
p883
sg33
S'--'
p884
sg35
S'--'
p885
sg36
S'PIT'
p886
sg38
S'--'
p887
sg40
S'--'
p888
sg41
S'--'
p889
ssg226
(dp890
g5
S'--'
p891
sg7
S'--'
p892
sg9
g10
sg11
S'--'
p893
sg13
g14
sg15
S'Marc Mariani'
p894
sg17
S'2010'
p895
sg19
g226
sg21
S'--'
p896
sg23
S'10/10'
p897
sg25
S'--'
p898
sg27
S'--'
p899
sg29
S'--'
p900
sg31
S'W34-27'
p901
sg33
S'--'
p902
sg35
S'--'
p903
sg36
S'@DAL'
p904
sg38
S'--'
p905
sg40
S'--'
p906
sg41
S'--'
p907
ssg242
(dp908
g5
S'--'
p909
sg7
S'--'
p910
sg9
g10
sg11
g14
sg13
g14
sg15
S'Marc Mariani'
p911
sg17
S'2010'
p912
sg19
g242
sg21
S'--'
p913
sg23
S'10/03'
p914
sg25
S'--'
p915
sg27
g14
sg29
S'--'
p916
sg31
S'L20-26'
p917
sg33
S'--'
p918
sg35
S'--'
p919
sg36
S'DEN'
p920
sg38
S'--'
p921
sg40
S'--'
p922
sg41
S'--'
p923
ssg258
(dp924
g5
S'--'
p925
sg7
S'--'
p926
sg9
g10
sg11
S'--'
p927
sg13
g14
sg15
S'Marc Mariani'
p928
sg17
S'2010'
p929
sg19
g258
sg21
S'--'
p930
sg23
S'10/24'
p931
sg25
S'--'
p932
sg27
S'--'
p933
sg29
S'--'
p934
sg31
S'W37-19'
p935
sg33
S'--'
p936
sg35
S'--'
p937
sg36
S'PHI'
p938
sg38
S'--'
p939
sg40
S'--'
p940
sg41
S'--'
p941
ssg150
(dp942
g5
S'--'
p943
sg7
S'--'
p944
sg9
g10
sg11
S'--'
p945
sg13
g14
sg15
S'Marc Mariani'
p946
sg17
S'2010'
p947
sg19
g150
sg21
S'--'
p948
sg23
S'10/18'
p949
sg25
S'--'
p950
sg27
S'--'
p951
sg29
S'--'
p952
sg31
S'W30-3'
p953
sg33
S'--'
p954
sg35
S'--'
p955
sg36
S'@JAC'
p956
sg38
S'--'
p957
sg40
S'--'
p958
sg41
S'--'
p959
ssg282
(dp960
g5
g260
sg7
g260
sg9
g260
sg11
g260
sg13
g260
sg15
S'Marc Mariani'
p961
sg17
S'2010'
p962
sg19
g282
sg21
g260
sg23
S'Bye'
p963
sg25
g260
sg27
g260
sg29
g260
sg31
g260
sg33
g260
sg35
g260
sg36
g260
sg38
g260
sg40
g260
sg41
g260
ssg299
(dp964
g5
S'--'
p965
sg7
S'--'
p966
sg9
g10
sg11
S'--'
p967
sg13
g14
sg15
S'Marc Mariani'
p968
sg17
S'2010'
p969
sg19
g299
sg21
S'--'
p970
sg23
S'10/31'
p971
sg25
S'--'
p972
sg27
S'--'
p973
sg29
S'--'
p974
sg31
S'L25-33'
p975
sg33
S'--'
p976
sg35
S'--'
p977
sg36
S'@SD'
p978
sg38
S'--'
p979
sg40
S'--'
p980
sg41
S'--'
p981
sss.