(dp0
S'2015'
p1
(dp2
S'11'
p3
(dp4
S'RushTD'
p5
S''
p6
sS'RushYds'
p7
g6
sS'GS'
p8
g6
sS'Lost'
p9
g6
sS'G'
p10
g6
sS'Player'
p11
S'Markus Wheaton'
p12
sS'Year'
p13
S'2015'
p14
sS'WK'
p15
S'11'
p16
sS'RushAvg'
p17
g6
sS'Game Date'
p18
S'Bye'
p19
sS'RecAvg'
p20
g6
sS'FUM'
p21
g6
sS'RushAtt'
p22
g6
sS'Result'
p23
g6
sS'RecYds'
p24
g6
sS'Rec'
p25
g6
sS'Opp'
p26
g6
sS'RecLng'
p27
g6
sS'RecTD'
p28
g6
sS'RushLng'
p29
g6
ssS'10'
p30
(dp31
g5
S'--'
p32
sg7
S'--'
p33
sg8
S'0'
p34
sg9
S'--'
p35
sg10
S'1'
p36
sg11
S'Markus Wheaton'
p37
sg13
S'2015'
p38
sg15
S'10'
p39
sg17
S'--'
p40
sg18
S'11/15'
p41
sg20
S'9.0'
p42
sg21
S'--'
p43
sg22
S'--'
p44
sg23
S'W30-9'
p45
sg24
S'18'
p46
sg25
S'2'
p47
sg26
S'CLE'
p48
sg27
S'11'
p49
sg28
g34
sg29
S'--'
p50
ssS'13'
p51
(dp52
g5
S'--'
p53
sg7
S'--'
p54
sg8
g34
sg9
S'--'
p55
sg10
g36
sg11
S'Markus Wheaton'
p56
sg13
S'2015'
p57
sg15
S'13'
p58
sg17
S'--'
p59
sg18
S'12/06'
p60
sg20
S'16.7'
p61
sg21
S'--'
p62
sg22
S'--'
p63
sg23
S'W45-10'
p64
sg24
S'50'
p65
sg25
S'3'
p66
sg26
S'IND'
p67
sg27
S'27'
p68
sg28
g36
sg29
S'--'
p69
ssS'12'
p70
(dp71
g5
S'--'
p72
sg7
S'--'
p73
sg8
g34
sg9
S'--'
p74
sg10
g36
sg11
S'Markus Wheaton'
p75
sg13
S'2015'
p76
sg15
S'12'
p77
sg17
S'--'
p78
sg18
S'11/29'
p79
sg20
S'22.3'
p80
sg21
S'--'
p81
sg22
S'--'
p82
sg23
S'L30-39'
p83
sg24
S'201'
p84
sg25
S'9'
p85
sg26
S'@SEA'
p86
sg27
S'69T'
p87
sg28
g36
sg29
S'--'
p88
ssS'15'
p89
(dp90
g5
S'--'
p91
sg7
S'--'
p92
sg8
g34
sg9
S'--'
p93
sg10
g36
sg11
S'Markus Wheaton'
p94
sg13
S'2015'
p95
sg15
S'15'
p96
sg17
S'--'
p97
sg18
S'12/20'
p98
sg20
S'10.3'
p99
sg21
S'--'
p100
sg22
S'--'
p101
sg23
S'W34-27'
p102
sg24
S'62'
p103
sg25
S'6'
p104
sg26
S'DEN'
p105
sg27
S'14'
p106
sg28
g36
sg29
S'--'
p107
ssS'14'
p108
(dp109
g5
S'--'
p110
sg7
S'--'
p111
sg8
g36
sg9
S'--'
p112
sg10
g36
sg11
S'Markus Wheaton'
p113
sg13
S'2015'
p114
sg15
S'14'
p115
sg17
S'--'
p116
sg18
S'12/13'
p117
sg20
S'16.3'
p118
sg21
S'--'
p119
sg22
S'--'
p120
sg23
S'W33-20'
p121
sg24
S'65'
p122
sg25
S'4'
p123
sg26
S'@CIN'
p124
sg27
S'31'
p125
sg28
g34
sg29
S'--'
p126
ssS'17'
p127
(dp128
g5
S'--'
p129
sg7
S'--'
p130
sg8
g36
sg9
S'--'
p131
sg10
g36
sg11
S'Markus Wheaton'
p132
sg13
S'2015'
p133
sg15
S'17'
p134
sg17
S'--'
p135
sg18
S'01/03'
p136
sg20
S'19.0'
p137
sg21
S'--'
p138
sg22
S'--'
p139
sg23
S'W28-12'
p140
sg24
S'57'
p141
sg25
g66
sg26
S'@CLE'
p142
sg27
S'40'
p143
sg28
g36
sg29
S'--'
p144
ssS'16'
p145
(dp146
g5
S'--'
p147
sg7
S'--'
p148
sg8
g34
sg9
S'--'
p149
sg10
g36
sg11
S'Markus Wheaton'
p150
sg13
S'2015'
p151
sg15
S'16'
p152
sg17
S'--'
p153
sg18
S'12/27'
p154
sg20
S'13.7'
p155
sg21
S'--'
p156
sg22
S'--'
p157
sg23
S'L17-20'
p158
sg24
S'41'
p159
sg25
g66
sg26
S'@BAL'
p160
sg27
S'19'
p161
sg28
g34
sg29
S'--'
p162
ssg36
(dp163
g5
S'--'
p164
sg7
S'--'
p165
sg8
g36
sg9
S'--'
p166
sg10
g36
sg11
S'Markus Wheaton'
p167
sg13
S'2015'
p168
sg15
g36
sg17
S'--'
p169
sg18
S'09/10'
p170
sg20
S'18.3'
p171
sg21
S'--'
p172
sg22
S'--'
p173
sg23
S'L21-28'
p174
sg24
S'55'
p175
sg25
g66
sg26
S'@NE'
p176
sg27
S'26'
p177
sg28
g34
sg29
S'--'
p178
ssg66
(dp179
g5
S'--'
p180
sg7
S'--'
p181
sg8
g36
sg9
S'--'
p182
sg10
g36
sg11
S'Markus Wheaton'
p183
sg13
S'2015'
p184
sg15
g66
sg17
S'--'
p185
sg18
S'09/27'
p186
sg20
S'8.0'
p187
sg21
S'--'
p188
sg22
S'--'
p189
sg23
S'W12-6'
p190
sg24
S'16'
p191
sg25
g47
sg26
S'@STL'
p192
sg27
S'12'
p193
sg28
g34
sg29
S'--'
p194
ssg47
(dp195
g5
S'--'
p196
sg7
S'--'
p197
sg8
g34
sg9
S'--'
p198
sg10
g36
sg11
S'Markus Wheaton'
p199
sg13
S'2015'
p200
sg15
g47
sg17
S'--'
p201
sg18
S'09/20'
p202
sg20
S'33.5'
p203
sg21
S'--'
p204
sg22
S'--'
p205
sg23
S'W43-18'
p206
sg24
S'67'
p207
sg25
g47
sg26
S'SF'
p208
sg27
S'48'
p209
sg28
g34
sg29
S'--'
p210
ssS'5'
p211
(dp212
g5
S'--'
p213
sg7
S'--'
p214
sg8
g34
sg9
S'--'
p215
sg10
g36
sg11
S'Markus Wheaton'
p216
sg13
S'2015'
p217
sg15
g211
sg17
S'--'
p218
sg18
S'10/12'
p219
sg20
S'72.0'
p220
sg21
S'--'
p221
sg22
S'--'
p222
sg23
S'W24-20'
p223
sg24
S'72'
p224
sg25
g36
sg26
S'@SD'
p225
sg27
S'72T'
p226
sg28
g36
sg29
S'--'
p227
ssg123
(dp228
g5
S'--'
p229
sg7
S'--'
p230
sg8
g36
sg9
S'--'
p231
sg10
g36
sg11
S'Markus Wheaton'
p232
sg13
S'2015'
p233
sg15
g123
sg17
S'--'
p234
sg18
S'10/01'
p235
sg20
S'18.0'
p236
sg21
S'--'
p237
sg22
S'--'
p238
sg23
S'L20-23'
p239
sg24
S'18'
p240
sg25
g36
sg26
S'BAL'
p241
sg27
S'18'
p242
sg28
g34
sg29
S'--'
p243
ssS'7'
p244
(dp245
g5
S'--'
p246
sg7
S'--'
p247
sg8
g36
sg9
S'--'
p248
sg10
g36
sg11
S'Markus Wheaton'
p249
sg13
S'2015'
p250
sg15
g244
sg17
S'--'
p251
sg18
S'10/25'
p252
sg20
S'8.0'
p253
sg21
S'--'
p254
sg22
S'--'
p255
sg23
S'L13-23'
p256
sg24
S'16'
p257
sg25
g47
sg26
S'@KC'
p258
sg27
S'11'
p259
sg28
g34
sg29
S'--'
p260
ssg104
(dp261
g5
S'--'
p262
sg7
S'--'
p263
sg8
g36
sg9
S'--'
p264
sg10
g36
sg11
S'Markus Wheaton'
p265
sg13
S'2015'
p266
sg15
g104
sg17
S'--'
p267
sg18
S'10/18'
p268
sg20
S'8.0'
p269
sg21
S'--'
p270
sg22
S'--'
p271
sg23
S'W25-13'
p272
sg24
S'8'
p273
sg25
g36
sg26
S'ARI'
p274
sg27
g273
sg28
g34
sg29
S'--'
p275
ssg85
(dp276
g5
S'--'
p277
sg7
S'--'
p278
sg8
g36
sg9
S'--'
p279
sg10
g36
sg11
S'Markus Wheaton'
p280
sg13
S'2015'
p281
sg15
g85
sg17
S'--'
p282
sg18
S'11/08'
p283
sg20
S'-2.0'
p284
sg21
S'--'
p285
sg22
S'--'
p286
sg23
S'W38-35'
p287
sg24
S'-2'
p288
sg25
g36
sg26
S'OAK'
p289
sg27
S'-2'
p290
sg28
g34
sg29
S'--'
p291
ssg273
(dp292
g5
S'--'
p293
sg7
S'--'
p294
sg8
g34
sg9
S'--'
p295
sg10
g36
sg11
S'Markus Wheaton'
p296
sg13
S'2015'
p297
sg15
g273
sg17
S'--'
p298
sg18
S'11/01'
p299
sg20
S'5.0'
p300
sg21
S'--'
p301
sg22
S'--'
p302
sg23
S'L10-16'
p303
sg24
g211
sg25
g36
sg26
S'CIN'
p304
sg27
g211
sg28
g34
sg29
S'--'
p305
sssS'2014'
p306
(dp307
g3
(dp308
g5
S'--'
p309
sg7
S'--'
p310
sg8
g36
sg9
S'--'
p311
sg10
g36
sg11
S'Markus Wheaton'
p312
sg13
S'2014'
p313
sg15
S'11'
p314
sg17
S'--'
p315
sg18
S'11/17'
p316
sg20
S'6.0'
p317
sg21
S'--'
p318
sg22
S'--'
p319
sg23
S'W27-24'
p320
sg24
g104
sg25
g36
sg26
S'@TEN'
p321
sg27
g104
sg28
g34
sg29
S'--'
p322
ssg30
(dp323
g5
S'--'
p324
sg7
S'--'
p325
sg8
g34
sg9
S'--'
p326
sg10
g36
sg11
S'Markus Wheaton'
p327
sg13
S'2014'
p328
sg15
S'10'
p329
sg17
S'--'
p330
sg18
S'11/09'
p331
sg20
S'10.3'
p332
sg21
S'--'
p333
sg22
S'--'
p334
sg23
S'L13-20'
p335
sg24
S'41'
p336
sg25
g123
sg26
S'@NYJ'
p337
sg27
S'12'
p338
sg28
g34
sg29
S'--'
p339
ssg51
(dp340
g5
S'--'
p341
sg7
S'--'
p342
sg8
g36
sg9
S'--'
p343
sg10
g36
sg11
S'Markus Wheaton'
p344
sg13
S'2014'
p345
sg15
S'13'
p346
sg17
S'--'
p347
sg18
S'11/30'
p348
sg20
S'12.2'
p349
sg21
S'--'
p350
sg22
S'--'
p351
sg23
S'L32-35'
p352
sg24
S'61'
p353
sg25
g211
sg26
S'NO'
p354
sg27
S'16'
p355
sg28
g34
sg29
S'--'
p356
ssg70
(dp357
g5
g6
sg7
g6
sg8
g6
sg9
g6
sg10
g6
sg11
S'Markus Wheaton'
p358
sg13
S'2014'
p359
sg15
S'12'
p360
sg17
g6
sg18
S'Bye'
p361
sg20
g6
sg21
g6
sg22
g6
sg23
g6
sg24
g6
sg25
g6
sg26
g6
sg27
g6
sg28
g6
sg29
g6
ssg89
(dp362
g5
S'--'
p363
sg7
S'--'
p364
sg8
g34
sg9
S'--'
p365
sg10
g36
sg11
S'Markus Wheaton'
p366
sg13
S'2014'
p367
sg15
S'15'
p368
sg17
S'--'
p369
sg18
S'12/14'
p370
sg20
S'13.2'
p371
sg21
S'--'
p372
sg22
S'--'
p373
sg23
S'W27-20'
p374
sg24
S'66'
p375
sg25
g211
sg26
S'@ATL'
p376
sg27
S'30'
p377
sg28
g34
sg29
S'--'
p378
ssg108
(dp379
g5
S'--'
p380
sg7
S'--'
p381
sg8
g34
sg9
S'--'
p382
sg10
g36
sg11
S'Markus Wheaton'
p383
sg13
S'2014'
p384
sg15
S'14'
p385
sg17
S'--'
p386
sg18
S'12/07'
p387
sg20
S'15.5'
p388
sg21
S'--'
p389
sg22
S'--'
p390
sg23
S'W42-21'
p391
sg24
S'31'
p392
sg25
g47
sg26
S'@CIN'
p393
sg27
S'16'
p394
sg28
g34
sg29
S'--'
p395
ssg127
(dp396
g5
S'--'
p397
sg7
S'--'
p398
sg8
g36
sg9
S'--'
p399
sg10
g36
sg11
S'Markus Wheaton'
p400
sg13
S'2014'
p401
sg15
S'17'
p402
sg17
S'--'
p403
sg18
S'12/28'
p404
sg20
S'5.7'
p405
sg21
S'--'
p406
sg22
S'--'
p407
sg23
S'W27-17'
p408
sg24
S'17'
p409
sg25
g66
sg26
S'CIN'
p410
sg27
S'13'
p411
sg28
g34
sg29
S'--'
p412
ssg145
(dp413
g5
S'--'
p414
sg7
S'--'
p415
sg8
g34
sg9
S'--'
p416
sg10
g36
sg11
S'Markus Wheaton'
p417
sg13
S'2014'
p418
sg15
S'16'
p419
sg17
S'--'
p420
sg18
S'12/21'
p421
sg20
S'13.5'
p422
sg21
S'--'
p423
sg22
S'--'
p424
sg23
S'W20-12'
p425
sg24
S'27'
p426
sg25
g47
sg26
S'KC'
p427
sg27
S'14'
p428
sg28
g34
sg29
S'--'
p429
ssg36
(dp430
g5
S'--'
p431
sg7
S'--'
p432
sg8
g36
sg9
S'--'
p433
sg10
g36
sg11
S'Markus Wheaton'
p434
sg13
S'2014'
p435
sg15
g36
sg17
S'--'
p436
sg18
S'09/07'
p437
sg20
S'16.2'
p438
sg21
S'--'
p439
sg22
S'--'
p440
sg23
S'W30-27'
p441
sg24
S'97'
p442
sg25
g104
sg26
S'CLE'
p443
sg27
S'40'
p444
sg28
g34
sg29
S'--'
p445
ssg66
(dp446
g5
S'--'
p447
sg7
S'--'
p448
sg8
g36
sg9
S'--'
p449
sg10
g36
sg11
S'Markus Wheaton'
p450
sg13
S'2014'
p451
sg15
g66
sg17
S'--'
p452
sg18
S'09/21'
p453
sg20
S'8.8'
p454
sg21
S'--'
p455
sg22
S'--'
p456
sg23
S'W37-19'
p457
sg24
S'35'
p458
sg25
g123
sg26
S'@CAR'
p459
sg27
S'15'
p460
sg28
g34
sg29
S'--'
p461
ssg47
(dp462
g5
g34
sg7
S'22'
p463
sg8
g36
sg9
S'--'
p464
sg10
g36
sg11
S'Markus Wheaton'
p465
sg13
S'2014'
p466
sg15
g47
sg17
S'11.0'
p467
sg18
S'09/11'
p468
sg20
S'7.6'
p469
sg21
S'--'
p470
sg22
g47
sg23
S'L6-26'
p471
sg24
S'38'
p472
sg25
g211
sg26
S'@BAL'
p473
sg27
S'14'
p474
sg28
g34
sg29
S'12'
p475
ssg211
(dp476
g5
S'--'
p477
sg7
S'--'
p478
sg8
g36
sg9
S'--'
p479
sg10
g36
sg11
S'Markus Wheaton'
p480
sg13
S'2014'
p481
sg15
g211
sg17
S'--'
p482
sg18
S'10/05'
p483
sg20
S'17.0'
p484
sg21
S'--'
p485
sg22
S'--'
p486
sg23
S'W17-9'
p487
sg24
S'17'
p488
sg25
g36
sg26
S'@JAC'
p489
sg27
S'17'
p490
sg28
g34
sg29
S'--'
p491
ssg123
(dp492
g5
g34
sg7
S'-7'
p493
sg8
g34
sg9
S'--'
p494
sg10
g36
sg11
S'Markus Wheaton'
p495
sg13
S'2014'
p496
sg15
g123
sg17
S'-7.0'
p497
sg18
S'09/28'
p498
sg20
S'14.3'
p499
sg21
S'--'
p500
sg22
g36
sg23
S'L24-27'
p501
sg24
S'57'
p502
sg25
g123
sg26
S'TB'
p503
sg27
S'31'
p504
sg28
g34
sg29
S'-7'
p505
ssg244
(dp506
g5
S'--'
p507
sg7
S'--'
p508
sg8
g36
sg9
S'--'
p509
sg10
g36
sg11
S'Markus Wheaton'
p510
sg13
S'2014'
p511
sg15
g244
sg17
S'--'
p512
sg18
S'10/20'
p513
sg20
S'--'
p514
sg21
S'--'
p515
sg22
S'--'
p516
sg23
S'W30-23'
p517
sg24
g34
sg25
g34
sg26
S'HOU'
p518
sg27
S'--'
p519
sg28
g34
sg29
S'--'
p520
ssg104
(dp521
g5
S'--'
p522
sg7
S'--'
p523
sg8
g36
sg9
S'--'
p524
sg10
g36
sg11
S'Markus Wheaton'
p525
sg13
S'2014'
p526
sg15
g104
sg17
S'--'
p527
sg18
S'10/12'
p528
sg20
S'8.3'
p529
sg21
S'--'
p530
sg22
S'--'
p531
sg23
S'L10-31'
p532
sg24
S'33'
p533
sg25
g123
sg26
S'@CLE'
p534
sg27
g85
sg28
g34
sg29
S'--'
p535
ssg85
(dp536
g5
g34
sg7
g123
sg8
g36
sg9
S'--'
p537
sg10
g36
sg11
S'Markus Wheaton'
p538
sg13
S'2014'
p539
sg15
g85
sg17
S'4.0'
p540
sg18
S'11/02'
p541
sg20
S'31.0'
p542
sg21
S'--'
p543
sg22
g36
sg23
S'W43-23'
p544
sg24
S'62'
p545
sg25
g47
sg26
S'BAL'
p546
sg27
S'47T'
p547
sg28
g36
sg29
g123
ssg273
(dp548
g5
S'--'
p549
sg7
S'--'
p550
sg8
g36
sg9
S'--'
p551
sg10
g36
sg11
S'Markus Wheaton'
p552
sg13
S'2014'
p553
sg15
g273
sg17
S'--'
p554
sg18
S'10/26'
p555
sg20
S'11.2'
p556
sg21
S'--'
p557
sg22
S'--'
p558
sg23
S'W51-34'
p559
sg24
S'56'
p560
sg25
g211
sg26
S'IND'
p561
sg27
S'18T'
p562
sg28
g36
sg29
S'--'
p563
sssS'2013'
p564
(dp565
g3
(dp566
g5
S'--'
p567
sg7
S'--'
p568
sg8
g34
sg9
S'--'
p569
sg10
g36
sg11
S'Markus Wheaton'
p570
sg13
S'2013'
p571
sg15
S'11'
p572
sg17
S'--'
p573
sg18
S'11/17'
p574
sg20
S'12.7'
p575
sg21
S'--'
p576
sg22
S'--'
p577
sg23
S'W37-27'
p578
sg24
S'38'
p579
sg25
g66
sg26
S'DET'
p580
sg27
S'21'
p581
sg28
g34
sg29
S'--'
p582
ssg30
(dp583
g5
S'--'
p584
sg7
S'--'
p585
sg8
g34
sg9
S'--'
p586
sg10
g36
sg11
S'Markus Wheaton'
p587
sg13
S'2013'
p588
sg15
S'10'
p589
sg17
S'--'
p590
sg18
S'11/10'
p591
sg20
S'--'
p592
sg21
S'--'
p593
sg22
S'--'
p594
sg23
S'W23-10'
p595
sg24
g34
sg25
g34
sg26
S'BUF'
p596
sg27
S'--'
p597
sg28
g34
sg29
S'--'
p598
ssg51
(dp599
g5
S'--'
p600
sg7
S'--'
p601
sg8
g34
sg9
S'--'
p602
sg10
g36
sg11
S'Markus Wheaton'
p603
sg13
S'2013'
p604
sg15
S'13'
p605
sg17
S'--'
p606
sg18
S'11/28'
p607
sg20
S'--'
p608
sg21
S'--'
p609
sg22
S'--'
p610
sg23
S'L20-22'
p611
sg24
S'--'
p612
sg25
S'--'
p613
sg26
S'@BAL'
p614
sg27
S'--'
p615
sg28
S'--'
p616
sg29
S'--'
p617
ssg70
(dp618
g5
S'--'
p619
sg7
S'--'
p620
sg8
g34
sg9
S'--'
p621
sg10
g36
sg11
S'Markus Wheaton'
p622
sg13
S'2013'
p623
sg15
S'12'
p624
sg17
S'--'
p625
sg18
S'11/24'
p626
sg20
S'--'
p627
sg21
S'--'
p628
sg22
S'--'
p629
sg23
S'W27-11'
p630
sg24
S'--'
p631
sg25
S'--'
p632
sg26
S'@CLE'
p633
sg27
S'--'
p634
sg28
S'--'
p635
sg29
S'--'
p636
ssg89
(dp637
g5
S'--'
p638
sg7
S'--'
p639
sg8
g34
sg9
S'--'
p640
sg10
g36
sg11
S'Markus Wheaton'
p641
sg13
S'2013'
p642
sg15
S'15'
p643
sg17
S'--'
p644
sg18
S'12/15'
p645
sg20
S'--'
p646
sg21
S'--'
p647
sg22
S'--'
p648
sg23
S'W30-20'
p649
sg24
S'--'
p650
sg25
S'--'
p651
sg26
S'CIN'
p652
sg27
S'--'
p653
sg28
S'--'
p654
sg29
S'--'
p655
ssg108
(dp656
g5
S'--'
p657
sg7
S'--'
p658
sg8
g34
sg9
S'--'
p659
sg10
g36
sg11
S'Markus Wheaton'
p660
sg13
S'2013'
p661
sg15
S'14'
p662
sg17
S'--'
p663
sg18
S'12/08'
p664
sg20
S'--'
p665
sg21
S'--'
p666
sg22
S'--'
p667
sg23
S'L28-34'
p668
sg24
g34
sg25
g34
sg26
S'MIA'
p669
sg27
S'--'
p670
sg28
g34
sg29
S'--'
p671
ssg127
(dp672
g5
S'--'
p673
sg7
S'--'
p674
sg8
g34
sg9
S'--'
p675
sg10
g36
sg11
S'Markus Wheaton'
p676
sg13
S'2013'
p677
sg15
S'17'
p678
sg17
S'--'
p679
sg18
S'12/29'
p680
sg20
S'--'
p681
sg21
S'--'
p682
sg22
S'--'
p683
sg23
S'W20-7'
p684
sg24
S'--'
p685
sg25
S'--'
p686
sg26
S'CLE'
p687
sg27
S'--'
p688
sg28
S'--'
p689
sg29
S'--'
p690
ssg145
(dp691
g5
S'--'
p692
sg7
S'--'
p693
sg8
g34
sg9
S'--'
p694
sg10
g36
sg11
S'Markus Wheaton'
p695
sg13
S'2013'
p696
sg15
S'16'
p697
sg17
S'--'
p698
sg18
S'12/22'
p699
sg20
S'--'
p700
sg21
S'--'
p701
sg22
S'--'
p702
sg23
S'W38-31'
p703
sg24
S'--'
p704
sg25
S'--'
p705
sg26
S'@GB'
p706
sg27
S'--'
p707
sg28
S'--'
p708
sg29
S'--'
p709
ssg36
(dp710
g5
S'--'
p711
sg7
S'--'
p712
sg8
g34
sg9
S'--'
p713
sg10
g36
sg11
S'Markus Wheaton'
p714
sg13
S'2013'
p715
sg15
g36
sg17
S'--'
p716
sg18
S'09/08'
p717
sg20
S'--'
p718
sg21
S'--'
p719
sg22
S'--'
p720
sg23
S'L9-16'
p721
sg24
S'--'
p722
sg25
S'--'
p723
sg26
S'TEN'
p724
sg27
S'--'
p725
sg28
S'--'
p726
sg29
S'--'
p727
ssg66
(dp728
g5
S'--'
p729
sg7
S'--'
p730
sg8
g34
sg9
S'--'
p731
sg10
g36
sg11
S'Markus Wheaton'
p732
sg13
S'2013'
p733
sg15
g66
sg17
S'--'
p734
sg18
S'09/22'
p735
sg20
S'--'
p736
sg21
S'--'
p737
sg22
S'--'
p738
sg23
S'L23-40'
p739
sg24
g34
sg25
g34
sg26
S'CHI'
p740
sg27
S'--'
p741
sg28
g34
sg29
S'--'
p742
ssg47
(dp743
g5
S'--'
p744
sg7
S'--'
p745
sg8
g34
sg9
S'--'
p746
sg10
g36
sg11
S'Markus Wheaton'
p747
sg13
S'2013'
p748
sg15
g47
sg17
S'--'
p749
sg18
S'09/16'
p750
sg20
S'--'
p751
sg21
S'--'
p752
sg22
S'--'
p753
sg23
S'L10-20'
p754
sg24
S'--'
p755
sg25
S'--'
p756
sg26
S'@CIN'
p757
sg27
S'--'
p758
sg28
S'--'
p759
sg29
S'--'
p760
ssg211
(dp761
g5
g6
sg7
g6
sg8
g6
sg9
g6
sg10
g6
sg11
S'Markus Wheaton'
p762
sg13
S'2013'
p763
sg15
g211
sg17
g6
sg18
S'Bye'
p764
sg20
g6
sg21
g6
sg22
g6
sg23
g6
sg24
g6
sg25
g6
sg26
g6
sg27
g6
sg28
g6
sg29
g6
ssg123
(dp765
g5
S'--'
p766
sg7
S'--'
p767
sg8
g36
sg9
S'--'
p768
sg10
g36
sg11
S'Markus Wheaton'
p769
sg13
S'2013'
p770
sg15
g123
sg17
S'--'
p771
sg18
S'09/29'
p772
sg20
S'8.7'
p773
sg21
S'--'
p774
sg22
S'--'
p775
sg23
S'L27-34'
p776
sg24
S'26'
p777
sg25
g66
sg26
S'@MIN'
p778
sg27
S'15'
p779
sg28
g34
sg29
S'--'
p780
ssg244
(dp781
g5
S'--'
p782
sg7
S'--'
p783
sg8
g34
sg9
S'--'
p784
sg10
g34
sg11
S'Markus Wheaton'
p785
sg13
S'2013'
p786
sg15
g244
sg17
S'--'
p787
sg18
S'10/20'
p788
sg20
S'--'
p789
sg21
S'--'
p790
sg22
S'--'
p791
sg23
S'W19-16'
p792
sg24
S'--'
p793
sg25
S'--'
p794
sg26
S'BAL'
p795
sg27
S'--'
p796
sg28
S'--'
p797
sg29
S'--'
p798
ssg104
(dp799
g5
S'--'
p800
sg7
S'--'
p801
sg8
g34
sg9
S'--'
p802
sg10
g34
sg11
S'Markus Wheaton'
p803
sg13
S'2013'
p804
sg15
g104
sg17
S'--'
p805
sg18
S'10/13'
p806
sg20
S'--'
p807
sg21
S'--'
p808
sg22
S'--'
p809
sg23
S'W19-6'
p810
sg24
S'--'
p811
sg25
S'--'
p812
sg26
S'@NYJ'
p813
sg27
S'--'
p814
sg28
S'--'
p815
sg29
S'--'
p816
ssg85
(dp817
g5
S'--'
p818
sg7
S'--'
p819
sg8
g34
sg9
S'--'
p820
sg10
g34
sg11
S'Markus Wheaton'
p821
sg13
S'2013'
p822
sg15
g85
sg17
S'--'
p823
sg18
S'11/03'
p824
sg20
S'--'
p825
sg21
S'--'
p826
sg22
S'--'
p827
sg23
S'L31-55'
p828
sg24
S'--'
p829
sg25
S'--'
p830
sg26
S'@NE'
p831
sg27
S'--'
p832
sg28
S'--'
p833
sg29
S'--'
p834
ssg273
(dp835
g5
S'--'
p836
sg7
S'--'
p837
sg8
g34
sg9
S'--'
p838
sg10
g34
sg11
S'Markus Wheaton'
p839
sg13
S'2013'
p840
sg15
g273
sg17
S'--'
p841
sg18
S'10/27'
p842
sg20
S'--'
p843
sg21
S'--'
p844
sg22
S'--'
p845
sg23
S'L18-21'
p846
sg24
S'--'
p847
sg25
S'--'
p848
sg26
S'@OAK'
p849
sg27
S'--'
p850
sg28
S'--'
p851
sg29
S'--'
p852
sss.