(dp0
S'2015'
p1
(dp2
S'11'
p3
(dp4
S'RushTD'
p5
S''
p6
sS'RushYds'
p7
g6
sS'GS'
p8
g6
sS'Lost'
p9
g6
sS'G'
p10
g6
sS'Player'
p11
S'Marlon Moore'
p12
sS'Year'
p13
S'2015'
p14
sS'WK'
p15
S'11'
p16
sS'RushAvg'
p17
g6
sS'Game Date'
p18
S'Bye'
p19
sS'RecAvg'
p20
g6
sS'FUM'
p21
g6
sS'RushAtt'
p22
g6
sS'Result'
p23
g6
sS'RecYds'
p24
g6
sS'Rec'
p25
g6
sS'Opp'
p26
g6
sS'RecLng'
p27
g6
sS'RecTD'
p28
g6
sS'RushLng'
p29
g6
ssS'10'
p30
(dp31
g5
S'--'
p32
sg7
S'--'
p33
sg8
S'0'
p34
sg9
S'--'
p35
sg10
S'1'
p36
sg11
S'Marlon Moore'
p37
sg13
S'2015'
p38
sg15
S'10'
p39
sg17
S'--'
p40
sg18
S'11/15'
p41
sg20
S'--'
p42
sg21
S'--'
p43
sg22
S'--'
p44
sg23
S'L9-30'
p45
sg24
S'--'
p46
sg25
S'--'
p47
sg26
S'@PIT'
p48
sg27
S'--'
p49
sg28
S'--'
p50
sg29
S'--'
p51
ssS'13'
p52
(dp53
g5
S'--'
p54
sg7
S'--'
p55
sg8
g34
sg9
S'--'
p56
sg10
g36
sg11
S'Marlon Moore'
p57
sg13
S'2015'
p58
sg15
S'13'
p59
sg17
S'--'
p60
sg18
S'12/06'
p61
sg20
S'14.0'
p62
sg21
S'--'
p63
sg22
S'--'
p64
sg23
S'L3-37'
p65
sg24
S'14'
p66
sg25
g36
sg26
S'CIN'
p67
sg27
S'14'
p68
sg28
g34
sg29
S'--'
p69
ssS'12'
p70
(dp71
g5
S'--'
p72
sg7
S'--'
p73
sg8
g34
sg9
S'--'
p74
sg10
g36
sg11
S'Marlon Moore'
p75
sg13
S'2015'
p76
sg15
S'12'
p77
sg17
S'--'
p78
sg18
S'11/30'
p79
sg20
S'10.0'
p80
sg21
S'--'
p81
sg22
S'--'
p82
sg23
S'L27-33'
p83
sg24
S'10'
p84
sg25
g36
sg26
S'BAL'
p85
sg27
S'10T'
p86
sg28
g36
sg29
S'--'
p87
ssS'15'
p88
(dp89
g5
S'--'
p90
sg7
S'--'
p91
sg8
g34
sg9
S'--'
p92
sg10
g36
sg11
S'Marlon Moore'
p93
sg13
S'2015'
p94
sg15
S'15'
p95
sg17
S'--'
p96
sg18
S'12/20'
p97
sg20
S'20.0'
p98
sg21
S'--'
p99
sg22
S'--'
p100
sg23
S'L13-30'
p101
sg24
S'20'
p102
sg25
g36
sg26
S'@SEA'
p103
sg27
S'20'
p104
sg28
g34
sg29
S'--'
p105
ssS'14'
p106
(dp107
g5
S'--'
p108
sg7
S'--'
p109
sg8
g36
sg9
S'--'
p110
sg10
g36
sg11
S'Marlon Moore'
p111
sg13
S'2015'
p112
sg15
S'14'
p113
sg17
S'--'
p114
sg18
S'12/13'
p115
sg20
S'11.5'
p116
sg21
S'--'
p117
sg22
S'--'
p118
sg23
S'W24-10'
p119
sg24
S'23'
p120
sg25
S'2'
p121
sg26
S'SF'
p122
sg27
S'12'
p123
sg28
g34
sg29
S'--'
p124
ssS'17'
p125
(dp126
g5
S'--'
p127
sg7
S'--'
p128
sg8
g34
sg9
S'--'
p129
sg10
g34
sg11
S'Marlon Moore'
p130
sg13
S'2015'
p131
sg15
S'17'
p132
sg17
S'--'
p133
sg18
S'01/03'
p134
sg20
S'--'
p135
sg21
S'--'
p136
sg22
S'--'
p137
sg23
S'L12-28'
p138
sg24
S'--'
p139
sg25
S'--'
p140
sg26
S'PIT'
p141
sg27
S'--'
p142
sg28
S'--'
p143
sg29
S'--'
p144
ssS'16'
p145
(dp146
g5
S'--'
p147
sg7
S'--'
p148
sg8
g36
sg9
S'--'
p149
sg10
g36
sg11
S'Marlon Moore'
p150
sg13
S'2015'
p151
sg15
S'16'
p152
sg17
S'--'
p153
sg18
S'12/27'
p154
sg20
S'-1.0'
p155
sg21
S'--'
p156
sg22
S'--'
p157
sg23
S'L13-17'
p158
sg24
S'-1'
p159
sg25
g36
sg26
S'@KC'
p160
sg27
S'-1'
p161
sg28
g34
sg29
S'--'
p162
ssg36
(dp163
g5
S'--'
p164
sg7
S'--'
p165
sg8
g34
sg9
S'--'
p166
sg10
g36
sg11
S'Marlon Moore'
p167
sg13
S'2015'
p168
sg15
g36
sg17
S'--'
p169
sg18
S'09/13'
p170
sg20
S'--'
p171
sg21
S'--'
p172
sg22
S'--'
p173
sg23
S'L10-31'
p174
sg24
S'--'
p175
sg25
S'--'
p176
sg26
S'@NYJ'
p177
sg27
S'--'
p178
sg28
S'--'
p179
sg29
S'--'
p180
ssS'3'
p181
(dp182
g5
S'--'
p183
sg7
S'--'
p184
sg8
g34
sg9
S'--'
p185
sg10
g36
sg11
S'Marlon Moore'
p186
sg13
S'2015'
p187
sg15
g181
sg17
S'--'
p188
sg18
S'09/27'
p189
sg20
S'15.0'
p190
sg21
S'--'
p191
sg22
S'--'
p192
sg23
S'L20-27'
p193
sg24
S'15'
p194
sg25
g36
sg26
S'OAK'
p195
sg27
S'15'
p196
sg28
g34
sg29
S'--'
p197
ssg121
(dp198
g5
S'--'
p199
sg7
S'--'
p200
sg8
g34
sg9
S'--'
p201
sg10
g36
sg11
S'Marlon Moore'
p202
sg13
S'2015'
p203
sg15
g121
sg17
S'--'
p204
sg18
S'09/20'
p205
sg20
S'--'
p206
sg21
S'--'
p207
sg22
S'--'
p208
sg23
S'W28-14'
p209
sg24
S'--'
p210
sg25
S'--'
p211
sg26
S'TEN'
p212
sg27
S'--'
p213
sg28
S'--'
p214
sg29
S'--'
p215
ssS'5'
p216
(dp217
g5
S'--'
p218
sg7
S'--'
p219
sg8
g34
sg9
S'--'
p220
sg10
g36
sg11
S'Marlon Moore'
p221
sg13
S'2015'
p222
sg15
g216
sg17
S'--'
p223
sg18
S'10/11'
p224
sg20
S'--'
p225
sg21
S'--'
p226
sg22
S'--'
p227
sg23
S'W33-30'
p228
sg24
S'--'
p229
sg25
S'--'
p230
sg26
S'@BAL'
p231
sg27
S'--'
p232
sg28
S'--'
p233
sg29
S'--'
p234
ssS'4'
p235
(dp236
g5
S'--'
p237
sg7
S'--'
p238
sg8
g34
sg9
S'--'
p239
sg10
g36
sg11
S'Marlon Moore'
p240
sg13
S'2015'
p241
sg15
g235
sg17
S'--'
p242
sg18
S'10/04'
p243
sg20
S'--'
p244
sg21
S'--'
p245
sg22
S'--'
p246
sg23
S'L27-30'
p247
sg24
S'--'
p248
sg25
S'--'
p249
sg26
S'@SD'
p250
sg27
S'--'
p251
sg28
S'--'
p252
sg29
S'--'
p253
ssS'7'
p254
(dp255
g5
S'--'
p256
sg7
S'--'
p257
sg8
g34
sg9
S'--'
p258
sg10
g36
sg11
S'Marlon Moore'
p259
sg13
S'2015'
p260
sg15
g254
sg17
S'--'
p261
sg18
S'10/25'
p262
sg20
S'--'
p263
sg21
S'--'
p264
sg22
S'--'
p265
sg23
S'L6-24'
p266
sg24
S'--'
p267
sg25
S'--'
p268
sg26
S'@STL'
p269
sg27
S'--'
p270
sg28
S'--'
p271
sg29
S'--'
p272
ssS'6'
p273
(dp274
g5
S'--'
p275
sg7
S'--'
p276
sg8
g34
sg9
S'--'
p277
sg10
g34
sg11
S'Marlon Moore'
p278
sg13
S'2015'
p279
sg15
g273
sg17
S'--'
p280
sg18
S'10/18'
p281
sg20
S'--'
p282
sg21
S'--'
p283
sg22
S'--'
p284
sg23
S'L23-26'
p285
sg24
S'--'
p286
sg25
S'--'
p287
sg26
S'DEN'
p288
sg27
S'--'
p289
sg28
S'--'
p290
sg29
S'--'
p291
ssS'9'
p292
(dp293
g5
S'--'
p294
sg7
S'--'
p295
sg8
g34
sg9
S'--'
p296
sg10
g36
sg11
S'Marlon Moore'
p297
sg13
S'2015'
p298
sg15
g292
sg17
S'--'
p299
sg18
S'11/05'
p300
sg20
S'--'
p301
sg21
S'--'
p302
sg22
S'--'
p303
sg23
S'L10-31'
p304
sg24
S'--'
p305
sg25
S'--'
p306
sg26
S'@CIN'
p307
sg27
S'--'
p308
sg28
S'--'
p309
sg29
S'--'
p310
ssS'8'
p311
(dp312
g5
S'--'
p313
sg7
S'--'
p314
sg8
g34
sg9
S'--'
p315
sg10
g36
sg11
S'Marlon Moore'
p316
sg13
S'2015'
p317
sg15
g311
sg17
S'--'
p318
sg18
S'11/01'
p319
sg20
S'--'
p320
sg21
S'--'
p321
sg22
S'--'
p322
sg23
S'L20-34'
p323
sg24
S'--'
p324
sg25
S'--'
p325
sg26
S'ARI'
p326
sg27
S'--'
p327
sg28
S'--'
p328
sg29
S'--'
p329
sssS'2014'
p330
(dp331
g3
(dp332
g5
S'--'
p333
sg7
S'--'
p334
sg8
g34
sg9
S'--'
p335
sg10
g36
sg11
S'Marlon Moore'
p336
sg13
S'2014'
p337
sg15
S'11'
p338
sg17
S'--'
p339
sg18
S'11/16'
p340
sg20
S'--'
p341
sg21
S'--'
p342
sg22
S'--'
p343
sg23
S'L7-23'
p344
sg24
S'--'
p345
sg25
S'--'
p346
sg26
S'HOU'
p347
sg27
S'--'
p348
sg28
S'--'
p349
sg29
S'--'
p350
ssg30
(dp351
g5
S'--'
p352
sg7
S'--'
p353
sg8
g34
sg9
S'--'
p354
sg10
g36
sg11
S'Marlon Moore'
p355
sg13
S'2014'
p356
sg15
S'10'
p357
sg17
S'--'
p358
sg18
S'11/06'
p359
sg20
S'--'
p360
sg21
S'--'
p361
sg22
S'--'
p362
sg23
S'W24-3'
p363
sg24
S'--'
p364
sg25
S'--'
p365
sg26
S'@CIN'
p366
sg27
S'--'
p367
sg28
S'--'
p368
sg29
S'--'
p369
ssg52
(dp370
g5
S'--'
p371
sg7
S'--'
p372
sg8
g34
sg9
S'--'
p373
sg10
g34
sg11
S'Marlon Moore'
p374
sg13
S'2014'
p375
sg15
S'13'
p376
sg17
S'--'
p377
sg18
S'11/30'
p378
sg20
S'--'
p379
sg21
S'--'
p380
sg22
S'--'
p381
sg23
S'L10-26'
p382
sg24
S'--'
p383
sg25
S'--'
p384
sg26
S'@BUF'
p385
sg27
S'--'
p386
sg28
S'--'
p387
sg29
S'--'
p388
ssg70
(dp389
g5
S'--'
p390
sg7
S'--'
p391
sg8
g34
sg9
S'--'
p392
sg10
g34
sg11
S'Marlon Moore'
p393
sg13
S'2014'
p394
sg15
S'12'
p395
sg17
S'--'
p396
sg18
S'11/23'
p397
sg20
S'--'
p398
sg21
S'--'
p399
sg22
S'--'
p400
sg23
S'W26-24'
p401
sg24
S'--'
p402
sg25
S'--'
p403
sg26
S'@ATL'
p404
sg27
S'--'
p405
sg28
S'--'
p406
sg29
S'--'
p407
ssg88
(dp408
g5
S'--'
p409
sg7
S'--'
p410
sg8
g34
sg9
S'--'
p411
sg10
g36
sg11
S'Marlon Moore'
p412
sg13
S'2014'
p413
sg15
S'15'
p414
sg17
S'--'
p415
sg18
S'12/14'
p416
sg20
S'--'
p417
sg21
S'--'
p418
sg22
S'--'
p419
sg23
S'L0-30'
p420
sg24
S'--'
p421
sg25
S'--'
p422
sg26
S'CIN'
p423
sg27
S'--'
p424
sg28
S'--'
p425
sg29
S'--'
p426
ssg106
(dp427
g5
S'--'
p428
sg7
S'--'
p429
sg8
g34
sg9
S'--'
p430
sg10
g36
sg11
S'Marlon Moore'
p431
sg13
S'2014'
p432
sg15
S'14'
p433
sg17
S'--'
p434
sg18
S'12/07'
p435
sg20
S'--'
p436
sg21
S'--'
p437
sg22
S'--'
p438
sg23
S'L24-25'
p439
sg24
S'--'
p440
sg25
S'--'
p441
sg26
S'IND'
p442
sg27
S'--'
p443
sg28
S'--'
p444
sg29
S'--'
p445
ssg125
(dp446
g5
S'--'
p447
sg7
S'--'
p448
sg8
g34
sg9
S'--'
p449
sg10
g36
sg11
S'Marlon Moore'
p450
sg13
S'2014'
p451
sg15
S'17'
p452
sg17
S'--'
p453
sg18
S'12/28'
p454
sg20
S'--'
p455
sg21
S'--'
p456
sg22
S'--'
p457
sg23
S'L10-20'
p458
sg24
S'--'
p459
sg25
S'--'
p460
sg26
S'@BAL'
p461
sg27
S'--'
p462
sg28
S'--'
p463
sg29
S'--'
p464
ssg145
(dp465
g5
S'--'
p466
sg7
S'--'
p467
sg8
g34
sg9
S'--'
p468
sg10
g36
sg11
S'Marlon Moore'
p469
sg13
S'2014'
p470
sg15
S'16'
p471
sg17
S'--'
p472
sg18
S'12/21'
p473
sg20
S'--'
p474
sg21
S'--'
p475
sg22
S'--'
p476
sg23
S'L13-17'
p477
sg24
S'--'
p478
sg25
S'--'
p479
sg26
S'@CAR'
p480
sg27
S'--'
p481
sg28
S'--'
p482
sg29
S'--'
p483
ssg181
(dp484
g5
S'--'
p485
sg7
S'--'
p486
sg8
g34
sg9
S'--'
p487
sg10
g36
sg11
S'Marlon Moore'
p488
sg13
S'2014'
p489
sg15
g181
sg17
S'--'
p490
sg18
S'09/21'
p491
sg20
S'--'
p492
sg21
S'--'
p493
sg22
S'--'
p494
sg23
S'L21-23'
p495
sg24
S'--'
p496
sg25
S'--'
p497
sg26
S'BAL'
p498
sg27
S'--'
p499
sg28
S'--'
p500
sg29
S'--'
p501
ssg121
(dp502
g5
S'--'
p503
sg7
S'--'
p504
sg8
g34
sg9
S'--'
p505
sg10
g36
sg11
S'Marlon Moore'
p506
sg13
S'2014'
p507
sg15
g121
sg17
S'--'
p508
sg18
S'09/14'
p509
sg20
S'--'
p510
sg21
S'--'
p511
sg22
S'--'
p512
sg23
S'W26-24'
p513
sg24
S'--'
p514
sg25
S'--'
p515
sg26
S'NO'
p516
sg27
S'--'
p517
sg28
S'--'
p518
sg29
S'--'
p519
ssg216
(dp520
g5
S'--'
p521
sg7
S'--'
p522
sg8
g34
sg9
S'--'
p523
sg10
g36
sg11
S'Marlon Moore'
p524
sg13
S'2014'
p525
sg15
g216
sg17
S'--'
p526
sg18
S'10/05'
p527
sg20
S'--'
p528
sg21
S'--'
p529
sg22
S'--'
p530
sg23
S'W29-28'
p531
sg24
S'--'
p532
sg25
S'--'
p533
sg26
S'@TEN'
p534
sg27
S'--'
p535
sg28
S'--'
p536
sg29
S'--'
p537
ssg235
(dp538
g5
g6
sg7
g6
sg8
g6
sg9
g6
sg10
g6
sg11
S'Marlon Moore'
p539
sg13
S'2014'
p540
sg15
g235
sg17
g6
sg18
S'Bye'
p541
sg20
g6
sg21
g6
sg22
g6
sg23
g6
sg24
g6
sg25
g6
sg26
g6
sg27
g6
sg28
g6
sg29
g6
ssg254
(dp542
g5
S'--'
p543
sg7
S'--'
p544
sg8
g34
sg9
S'--'
p545
sg10
g36
sg11
S'Marlon Moore'
p546
sg13
S'2014'
p547
sg15
g254
sg17
S'--'
p548
sg18
S'10/19'
p549
sg20
S'--'
p550
sg21
S'--'
p551
sg22
S'--'
p552
sg23
S'L6-24'
p553
sg24
S'--'
p554
sg25
S'--'
p555
sg26
S'@JAC'
p556
sg27
S'--'
p557
sg28
S'--'
p558
sg29
S'--'
p559
ssg273
(dp560
g5
S'--'
p561
sg7
S'--'
p562
sg8
g34
sg9
S'--'
p563
sg10
g36
sg11
S'Marlon Moore'
p564
sg13
S'2014'
p565
sg15
g273
sg17
S'--'
p566
sg18
S'10/12'
p567
sg20
S'--'
p568
sg21
S'--'
p569
sg22
S'--'
p570
sg23
S'W31-10'
p571
sg24
S'--'
p572
sg25
S'--'
p573
sg26
S'PIT'
p574
sg27
S'--'
p575
sg28
S'--'
p576
sg29
S'--'
p577
ssg292
(dp578
g5
S'--'
p579
sg7
S'--'
p580
sg8
g34
sg9
S'--'
p581
sg10
g36
sg11
S'Marlon Moore'
p582
sg13
S'2014'
p583
sg15
g292
sg17
S'--'
p584
sg18
S'11/02'
p585
sg20
S'--'
p586
sg21
S'--'
p587
sg22
S'--'
p588
sg23
S'W22-17'
p589
sg24
S'--'
p590
sg25
S'--'
p591
sg26
S'TB'
p592
sg27
S'--'
p593
sg28
S'--'
p594
sg29
S'--'
p595
ssg311
(dp596
g5
S'--'
p597
sg7
S'--'
p598
sg8
g34
sg9
S'--'
p599
sg10
g36
sg11
S'Marlon Moore'
p600
sg13
S'2014'
p601
sg15
g311
sg17
S'--'
p602
sg18
S'10/26'
p603
sg20
S'--'
p604
sg21
S'--'
p605
sg22
S'--'
p606
sg23
S'W23-13'
p607
sg24
S'--'
p608
sg25
S'--'
p609
sg26
S'OAK'
p610
sg27
S'--'
p611
sg28
S'--'
p612
sg29
S'--'
p613
sssS'2011'
p614
(dp615
g36
(dp616
g5
S'--'
p617
sg7
S'--'
p618
sg8
g34
sg9
S'--'
p619
sg10
g34
sg11
S'Marlon Moore'
p620
sg13
S'2011'
p621
sg15
g36
sg17
S'--'
p622
sg18
S'09/12'
p623
sg20
S'--'
p624
sg21
S'--'
p625
sg22
S'--'
p626
sg23
S'L24-38'
p627
sg24
S'--'
p628
sg25
S'--'
p629
sg26
S'NE'
p630
sg27
S'--'
p631
sg28
S'--'
p632
sg29
S'--'
p633
ssg181
(dp634
g5
S'--'
p635
sg7
S'--'
p636
sg8
g34
sg9
S'--'
p637
sg10
g36
sg11
S'Marlon Moore'
p638
sg13
S'2011'
p639
sg15
g181
sg17
S'--'
p640
sg18
S'09/25'
p641
sg20
S'--'
p642
sg21
S'--'
p643
sg22
S'--'
p644
sg23
S'L16-17'
p645
sg24
S'--'
p646
sg25
S'--'
p647
sg26
S'@CLE'
p648
sg27
S'--'
p649
sg28
S'--'
p650
sg29
S'--'
p651
ssg121
(dp652
g5
S'--'
p653
sg7
S'--'
p654
sg8
g34
sg9
S'--'
p655
sg10
g36
sg11
S'Marlon Moore'
p656
sg13
S'2011'
p657
sg15
g121
sg17
S'--'
p658
sg18
S'09/18'
p659
sg20
S'--'
p660
sg21
S'--'
p661
sg22
S'--'
p662
sg23
S'L13-23'
p663
sg24
S'--'
p664
sg25
S'--'
p665
sg26
S'HOU'
p666
sg27
S'--'
p667
sg28
S'--'
p668
sg29
S'--'
p669
ssg216
(dp670
g5
g6
sg7
g6
sg8
g6
sg9
g6
sg10
g6
sg11
S'Marlon Moore'
p671
sg13
S'2011'
p672
sg15
g216
sg17
g6
sg18
S'Bye'
p673
sg20
g6
sg21
g6
sg22
g6
sg23
g6
sg24
g6
sg25
g6
sg26
g6
sg27
g6
sg28
g6
sg29
g6
ssg235
(dp674
g5
S'--'
p675
sg7
S'--'
p676
sg8
g34
sg9
S'--'
p677
sg10
g36
sg11
S'Marlon Moore'
p678
sg13
S'2011'
p679
sg15
g235
sg17
S'--'
p680
sg18
S'10/02'
p681
sg20
S'--'
p682
sg21
S'--'
p683
sg22
S'--'
p684
sg23
S'L16-26'
p685
sg24
S'--'
p686
sg25
S'--'
p687
sg26
S'@SD'
p688
sg27
S'--'
p689
sg28
S'--'
p690
sg29
S'--'
p691
ssg254
(dp692
g5
S'--'
p693
sg7
S'--'
p694
sg8
g34
sg9
S'--'
p695
sg10
g36
sg11
S'Marlon Moore'
p696
sg13
S'2011'
p697
sg15
g254
sg17
S'--'
p698
sg18
S'10/23'
p699
sg20
S'--'
p700
sg21
S'--'
p701
sg22
S'--'
p702
sg23
S'L15-18'
p703
sg24
S'--'
p704
sg25
S'--'
p705
sg26
S'DEN'
p706
sg27
S'--'
p707
sg28
S'--'
p708
sg29
S'--'
p709
ssg273
(dp710
g5
S'--'
p711
sg7
S'--'
p712
sg8
g34
sg9
S'--'
p713
sg10
g36
sg11
S'Marlon Moore'
p714
sg13
S'2011'
p715
sg15
g273
sg17
S'--'
p716
sg18
S'10/17'
p717
sg20
S'--'
p718
sg21
S'--'
p719
sg22
S'--'
p720
sg23
S'L6-24'
p721
sg24
S'--'
p722
sg25
S'--'
p723
sg26
S'@NYJ'
p724
sg27
S'--'
p725
sg28
S'--'
p726
sg29
S'--'
p727
ssg311
(dp728
g5
S'--'
p729
sg7
S'--'
p730
sg8
g34
sg9
S'--'
p731
sg10
g36
sg11
S'Marlon Moore'
p732
sg13
S'2011'
p733
sg15
g311
sg17
S'--'
p734
sg18
S'10/30'
p735
sg20
S'--'
p736
sg21
S'--'
p737
sg22
S'--'
p738
sg23
S'L17-20'
p739
sg24
S'--'
p740
sg25
S'--'
p741
sg26
S'@NYG'
p742
sg27
S'--'
p743
sg28
S'--'
p744
sg29
S'--'
p745
sssS'2010'
p746
(dp747
g3
(dp748
g5
S'--'
p749
sg7
S'--'
p750
sg8
g34
sg9
S'--'
p751
sg10
g36
sg11
S'Marlon Moore'
p752
sg13
S'2010'
p753
sg15
S'11'
p754
sg17
S'--'
p755
sg18
S'11/18'
p756
sg20
S'10.0'
p757
sg21
S'--'
p758
sg22
S'--'
p759
sg23
S'L0-16'
p760
sg24
S'20'
p761
sg25
g121
sg26
S'CHI'
p762
sg27
S'13'
p763
sg28
g34
sg29
S'--'
p764
ssg30
(dp765
g5
S'--'
p766
sg7
S'--'
p767
sg8
g34
sg9
S'--'
p768
sg10
g36
sg11
S'Marlon Moore'
p769
sg13
S'2010'
p770
sg15
S'10'
p771
sg17
S'--'
p772
sg18
S'11/14'
p773
sg20
S'--'
p774
sg21
S'--'
p775
sg22
S'--'
p776
sg23
S'W29-17'
p777
sg24
S'--'
p778
sg25
S'--'
p779
sg26
S'TEN'
p780
sg27
S'--'
p781
sg28
S'--'
p782
sg29
S'--'
p783
ssg52
(dp784
g5
S'--'
p785
sg7
S'--'
p786
sg8
g34
sg9
S'--'
p787
sg10
g36
sg11
S'Marlon Moore'
p788
sg13
S'2010'
p789
sg15
S'13'
p790
sg17
S'--'
p791
sg18
S'12/05'
p792
sg20
S'--'
p793
sg21
S'--'
p794
sg22
S'--'
p795
sg23
S'L10-13'
p796
sg24
g34
sg25
g34
sg26
S'CLE'
p797
sg27
S'--'
p798
sg28
g34
sg29
S'--'
p799
ssg70
(dp800
g5
S'--'
p801
sg7
S'--'
p802
sg8
g34
sg9
S'--'
p803
sg10
g36
sg11
S'Marlon Moore'
p804
sg13
S'2010'
p805
sg15
S'12'
p806
sg17
S'--'
p807
sg18
S'11/28'
p808
sg20
S'57.0'
p809
sg21
S'--'
p810
sg22
S'--'
p811
sg23
S'W33-17'
p812
sg24
S'57'
p813
sg25
g36
sg26
S'@OAK'
p814
sg27
S'57T'
p815
sg28
g36
sg29
S'--'
p816
ssg88
(dp817
g5
S'--'
p818
sg7
S'--'
p819
sg8
g34
sg9
S'--'
p820
sg10
g34
sg11
S'Marlon Moore'
p821
sg13
S'2010'
p822
sg15
S'15'
p823
sg17
S'--'
p824
sg18
S'12/19'
p825
sg20
S'--'
p826
sg21
S'--'
p827
sg22
S'--'
p828
sg23
S'L14-17'
p829
sg24
S'--'
p830
sg25
S'--'
p831
sg26
S'BUF'
p832
sg27
S'--'
p833
sg28
S'--'
p834
sg29
S'--'
p835
ssg106
(dp836
g5
S'--'
p837
sg7
S'--'
p838
sg8
g34
sg9
S'--'
p839
sg10
g36
sg11
S'Marlon Moore'
p840
sg13
S'2010'
p841
sg15
S'14'
p842
sg17
S'--'
p843
sg18
S'12/12'
p844
sg20
S'--'
p845
sg21
S'--'
p846
sg22
S'--'
p847
sg23
S'W10-6'
p848
sg24
g34
sg25
g34
sg26
S'@NYJ'
p849
sg27
S'--'
p850
sg28
g34
sg29
S'--'
p851
ssg125
(dp852
g5
S'--'
p853
sg7
S'--'
p854
sg8
g34
sg9
S'--'
p855
sg10
g36
sg11
S'Marlon Moore'
p856
sg13
S'2010'
p857
sg15
S'17'
p858
sg17
S'--'
p859
sg18
S'01/02'
p860
sg20
S'23.0'
p861
sg21
S'--'
p862
sg22
S'--'
p863
sg23
S'L7-38'
p864
sg24
S'46'
p865
sg25
g121
sg26
S'@NE'
p866
sg27
S'29'
p867
sg28
g34
sg29
S'--'
p868
ssg145
(dp869
g5
g34
sg7
S'16'
p870
sg8
g34
sg9
S'--'
p871
sg10
g36
sg11
S'Marlon Moore'
p872
sg13
S'2010'
p873
sg15
S'16'
p874
sg17
S'16.0'
p875
sg18
S'12/26'
p876
sg20
S'5.0'
p877
sg21
S'--'
p878
sg22
g36
sg23
S'L27-34'
p879
sg24
g216
sg25
g36
sg26
S'DET'
p880
sg27
g216
sg28
g34
sg29
S'16'
p881
ssg36
(dp882
g5
S'--'
p883
sg7
S'--'
p884
sg8
g34
sg9
S'--'
p885
sg10
g36
sg11
S'Marlon Moore'
p886
sg13
S'2010'
p887
sg15
g36
sg17
S'--'
p888
sg18
S'09/12'
p889
sg20
S'--'
p890
sg21
S'--'
p891
sg22
S'--'
p892
sg23
S'W15-10'
p893
sg24
g34
sg25
g34
sg26
S'@BUF'
p894
sg27
S'--'
p895
sg28
g34
sg29
S'--'
p896
ssg181
(dp897
g5
S'--'
p898
sg7
S'--'
p899
sg8
g34
sg9
S'--'
p900
sg10
g34
sg11
S'Marlon Moore'
p901
sg13
S'2010'
p902
sg15
g181
sg17
S'--'
p903
sg18
S'09/26'
p904
sg20
S'--'
p905
sg21
S'--'
p906
sg22
S'--'
p907
sg23
S'L23-31'
p908
sg24
S'--'
p909
sg25
S'--'
p910
sg26
S'NYJ'
p911
sg27
S'--'
p912
sg28
S'--'
p913
sg29
S'--'
p914
ssg121
(dp915
g5
S'--'
p916
sg7
S'--'
p917
sg8
g34
sg9
S'--'
p918
sg10
g36
sg11
S'Marlon Moore'
p919
sg13
S'2010'
p920
sg15
g121
sg17
S'--'
p921
sg18
S'09/19'
p922
sg20
S'--'
p923
sg21
S'--'
p924
sg22
S'--'
p925
sg23
S'W14-10'
p926
sg24
S'--'
p927
sg25
S'--'
p928
sg26
S'@MIN'
p929
sg27
S'--'
p930
sg28
S'--'
p931
sg29
S'--'
p932
ssg216
(dp933
g5
g6
sg7
g6
sg8
g6
sg9
g6
sg10
g6
sg11
S'Marlon Moore'
p934
sg13
S'2010'
p935
sg15
g216
sg17
g6
sg18
S'Bye'
p936
sg20
g6
sg21
g6
sg22
g6
sg23
g6
sg24
g6
sg25
g6
sg26
g6
sg27
g6
sg28
g6
sg29
g6
ssg235
(dp937
g5
S'--'
p938
sg7
S'--'
p939
sg8
g34
sg9
S'--'
p940
sg10
g34
sg11
S'Marlon Moore'
p941
sg13
S'2010'
p942
sg15
g235
sg17
S'--'
p943
sg18
S'10/04'
p944
sg20
S'--'
p945
sg21
S'--'
p946
sg22
S'--'
p947
sg23
S'L14-41'
p948
sg24
S'--'
p949
sg25
S'--'
p950
sg26
S'NE'
p951
sg27
S'--'
p952
sg28
S'--'
p953
sg29
S'--'
p954
ssg254
(dp955
g5
S'--'
p956
sg7
S'--'
p957
sg8
g34
sg9
S'--'
p958
sg10
g34
sg11
S'Marlon Moore'
p959
sg13
S'2010'
p960
sg15
g254
sg17
S'--'
p961
sg18
S'10/24'
p962
sg20
S'--'
p963
sg21
S'--'
p964
sg22
S'--'
p965
sg23
S'L22-23'
p966
sg24
S'--'
p967
sg25
S'--'
p968
sg26
S'PIT'
p969
sg27
S'--'
p970
sg28
S'--'
p971
sg29
S'--'
p972
ssg273
(dp973
g5
S'--'
p974
sg7
S'--'
p975
sg8
g34
sg9
S'--'
p976
sg10
g34
sg11
S'Marlon Moore'
p977
sg13
S'2010'
p978
sg15
g273
sg17
S'--'
p979
sg18
S'10/17'
p980
sg20
S'--'
p981
sg21
S'--'
p982
sg22
S'--'
p983
sg23
S'W23-20'
p984
sg24
S'--'
p985
sg25
S'--'
p986
sg26
S'@GB'
p987
sg27
S'--'
p988
sg28
S'--'
p989
sg29
S'--'
p990
ssg292
(dp991
g5
S'--'
p992
sg7
S'--'
p993
sg8
g34
sg9
S'--'
p994
sg10
g34
sg11
S'Marlon Moore'
p995
sg13
S'2010'
p996
sg15
g292
sg17
S'--'
p997
sg18
S'11/07'
p998
sg20
S'--'
p999
sg21
S'--'
p1000
sg22
S'--'
p1001
sg23
S'L10-26'
p1002
sg24
S'--'
p1003
sg25
S'--'
p1004
sg26
S'@BAL'
p1005
sg27
S'--'
p1006
sg28
S'--'
p1007
sg29
S'--'
p1008
ssg311
(dp1009
g5
S'--'
p1010
sg7
S'--'
p1011
sg8
g34
sg9
S'--'
p1012
sg10
g34
sg11
S'Marlon Moore'
p1013
sg13
S'2010'
p1014
sg15
g311
sg17
S'--'
p1015
sg18
S'10/31'
p1016
sg20
S'--'
p1017
sg21
S'--'
p1018
sg22
S'--'
p1019
sg23
S'W22-14'
p1020
sg24
S'--'
p1021
sg25
S'--'
p1022
sg26
S'@CIN'
p1023
sg27
S'--'
p1024
sg28
S'--'
p1025
sg29
S'--'
p1026
sssS'2013'
p1027
(dp1028
g3
(dp1029
g5
S'--'
p1030
sg7
S'--'
p1031
sg8
g34
sg9
S'--'
p1032
sg10
g36
sg11
S'Marlon Moore'
p1033
sg13
S'2013'
p1034
sg15
S'11'
p1035
sg17
S'--'
p1036
sg18
S'11/17'
p1037
sg20
S'--'
p1038
sg21
S'--'
p1039
sg22
S'--'
p1040
sg23
S'W20-16'
p1041
sg24
S'--'
p1042
sg25
S'--'
p1043
sg26
S'SD'
p1044
sg27
S'--'
p1045
sg28
S'--'
p1046
sg29
S'--'
p1047
ssg30
(dp1048
g5
S'--'
p1049
sg7
S'--'
p1050
sg8
g34
sg9
S'--'
p1051
sg10
g36
sg11
S'Marlon Moore'
p1052
sg13
S'2013'
p1053
sg15
S'10'
p1054
sg17
S'--'
p1055
sg18
S'11/11'
p1056
sg20
S'--'
p1057
sg21
S'--'
p1058
sg22
S'--'
p1059
sg23
S'L19-22'
p1060
sg24
S'--'
p1061
sg25
S'--'
p1062
sg26
S'@TB'
p1063
sg27
S'--'
p1064
sg28
S'--'
p1065
sg29
S'--'
p1066
ssg52
(dp1067
g5
S'--'
p1068
sg7
S'--'
p1069
sg8
g34
sg9
S'--'
p1070
sg10
g36
sg11
S'Marlon Moore'
p1071
sg13
S'2013'
p1072
sg15
S'13'
p1073
sg17
S'--'
p1074
sg18
S'12/01'
p1075
sg20
S'--'
p1076
sg21
S'--'
p1077
sg22
S'--'
p1078
sg23
S'W23-3'
p1079
sg24
g34
sg25
g34
sg26
S'@NYJ'
p1080
sg27
S'--'
p1081
sg28
g34
sg29
S'--'
p1082
ssg70
(dp1083
g5
S'--'
p1084
sg7
S'--'
p1085
sg8
g34
sg9
S'--'
p1086
sg10
g36
sg11
S'Marlon Moore'
p1087
sg13
S'2013'
p1088
sg15
S'12'
p1089
sg17
S'--'
p1090
sg18
S'11/24'
p1091
sg20
S'10.0'
p1092
sg21
S'--'
p1093
sg22
S'--'
p1094
sg23
S'L16-20'
p1095
sg24
S'20'
p1096
sg25
g121
sg26
S'CAR'
p1097
sg27
S'11'
p1098
sg28
g34
sg29
S'--'
p1099
ssg88
(dp1100
g5
S'--'
p1101
sg7
S'--'
p1102
sg8
g34
sg9
S'--'
p1103
sg10
g36
sg11
S'Marlon Moore'
p1104
sg13
S'2013'
p1105
sg15
S'15'
p1106
sg17
S'--'
p1107
sg18
S'12/15'
p1108
sg20
S'11.0'
p1109
sg21
S'--'
p1110
sg22
S'--'
p1111
sg23
S'W24-20'
p1112
sg24
S'11'
p1113
sg25
g36
sg26
S'NE'
p1114
sg27
S'11'
p1115
sg28
g34
sg29
S'--'
p1116
ssg106
(dp1117
g5
S'--'
p1118
sg7
S'--'
p1119
sg8
g34
sg9
S'--'
p1120
sg10
g36
sg11
S'Marlon Moore'
p1121
sg13
S'2013'
p1122
sg15
S'14'
p1123
sg17
S'--'
p1124
sg18
S'12/08'
p1125
sg20
S'--'
p1126
sg21
S'--'
p1127
sg22
S'--'
p1128
sg23
S'W34-28'
p1129
sg24
S'--'
p1130
sg25
S'--'
p1131
sg26
S'@PIT'
p1132
sg27
S'--'
p1133
sg28
S'--'
p1134
sg29
S'--'
p1135
ssg125
(dp1136
g5
S'--'
p1137
sg7
S'--'
p1138
sg8
g34
sg9
S'--'
p1139
sg10
g36
sg11
S'Marlon Moore'
p1140
sg13
S'2013'
p1141
sg15
S'17'
p1142
sg17
S'--'
p1143
sg18
S'12/29'
p1144
sg20
S'8.3'
p1145
sg21
S'--'
p1146
sg22
S'--'
p1147
sg23
S'L7-20'
p1148
sg24
S'25'
p1149
sg25
g181
sg26
S'NYJ'
p1150
sg27
S'13'
p1151
sg28
g34
sg29
S'--'
p1152
ssg145
(dp1153
g5
S'--'
p1154
sg7
S'--'
p1155
sg8
g34
sg9
S'--'
p1156
sg10
g36
sg11
S'Marlon Moore'
p1157
sg13
S'2013'
p1158
sg15
S'16'
p1159
sg17
S'--'
p1160
sg18
S'12/22'
p1161
sg20
S'--'
p1162
sg21
S'--'
p1163
sg22
S'--'
p1164
sg23
S'L0-19'
p1165
sg24
S'--'
p1166
sg25
S'--'
p1167
sg26
S'@BUF'
p1168
sg27
S'--'
p1169
sg28
S'--'
p1170
sg29
S'--'
p1171
ssg36
(dp1172
g5
S'--'
p1173
sg7
S'--'
p1174
sg8
g34
sg9
S'--'
p1175
sg10
g36
sg11
S'Marlon Moore'
p1176
sg13
S'2013'
p1177
sg15
g36
sg17
S'--'
p1178
sg18
S'09/08'
p1179
sg20
S'--'
p1180
sg21
S'--'
p1181
sg22
S'--'
p1182
sg23
S'W34-28'
p1183
sg24
g34
sg25
g34
sg26
S'GB'
p1184
sg27
S'--'
p1185
sg28
g34
sg29
S'--'
p1186
ssg181
(dp1187
g5
S'--'
p1188
sg7
S'--'
p1189
sg8
g34
sg9
S'--'
p1190
sg10
g36
sg11
S'Marlon Moore'
p1191
sg13
S'2013'
p1192
sg15
g181
sg17
S'--'
p1193
sg18
S'09/22'
p1194
sg20
S'--'
p1195
sg21
S'--'
p1196
sg22
S'--'
p1197
sg23
S'L7-27'
p1198
sg24
g34
sg25
g34
sg26
S'IND'
p1199
sg27
S'--'
p1200
sg28
g34
sg29
S'--'
p1201
ssg121
(dp1202
g5
S'--'
p1203
sg7
S'--'
p1204
sg8
g34
sg9
S'--'
p1205
sg10
g36
sg11
S'Marlon Moore'
p1206
sg13
S'2013'
p1207
sg15
g121
sg17
S'--'
p1208
sg18
S'09/15'
p1209
sg20
S'6.0'
p1210
sg21
S'--'
p1211
sg22
S'--'
p1212
sg23
S'L3-29'
p1213
sg24
g273
sg25
g36
sg26
S'@SEA'
p1214
sg27
g273
sg28
g34
sg29
S'--'
p1215
ssg216
(dp1216
g5
S'--'
p1217
sg7
S'--'
p1218
sg8
g34
sg9
S'--'
p1219
sg10
g36
sg11
S'Marlon Moore'
p1220
sg13
S'2013'
p1221
sg15
g216
sg17
S'--'
p1222
sg18
S'10/06'
p1223
sg20
S'--'
p1224
sg21
S'--'
p1225
sg22
S'--'
p1226
sg23
S'W34-3'
p1227
sg24
S'--'
p1228
sg25
S'--'
p1229
sg26
S'HOU'
p1230
sg27
S'--'
p1231
sg28
S'--'
p1232
sg29
S'--'
p1233
ssg235
(dp1234
g5
S'--'
p1235
sg7
S'--'
p1236
sg8
g34
sg9
S'--'
p1237
sg10
g34
sg11
S'Marlon Moore'
p1238
sg13
S'2013'
p1239
sg15
g235
sg17
S'--'
p1240
sg18
S'09/26'
p1241
sg20
S'--'
p1242
sg21
S'--'
p1243
sg22
S'--'
p1244
sg23
S'W35-11'
p1245
sg24
S'--'
p1246
sg25
S'--'
p1247
sg26
S'@STL'
p1248
sg27
S'--'
p1249
sg28
S'--'
p1250
sg29
S'--'
p1251
ssg254
(dp1252
g5
S'--'
p1253
sg7
S'--'
p1254
sg8
g34
sg9
S'--'
p1255
sg10
g34
sg11
S'Marlon Moore'
p1256
sg13
S'2013'
p1257
sg15
g254
sg17
S'--'
p1258
sg18
S'10/20'
p1259
sg20
S'--'
p1260
sg21
S'--'
p1261
sg22
S'--'
p1262
sg23
S'W31-17'
p1263
sg24
S'--'
p1264
sg25
S'--'
p1265
sg26
S'@TEN'
p1266
sg27
S'--'
p1267
sg28
S'--'
p1268
sg29
S'--'
p1269
ssg273
(dp1270
g5
g34
sg7
g292
sg8
g34
sg9
S'--'
p1271
sg10
g36
sg11
S'Marlon Moore'
p1272
sg13
S'2013'
p1273
sg15
g273
sg17
S'9.0'
p1274
sg18
S'10/13'
p1275
sg20
S'--'
p1276
sg21
S'--'
p1277
sg22
g36
sg23
S'W32-20'
p1278
sg24
g34
sg25
g34
sg26
S'ARI'
p1279
sg27
S'--'
p1280
sg28
g34
sg29
g292
ssg311
(dp1281
g5
S'--'
p1282
sg7
S'--'
p1283
sg8
g34
sg9
S'--'
p1284
sg10
g36
sg11
S'Marlon Moore'
p1285
sg13
S'2013'
p1286
sg15
g311
sg17
S'--'
p1287
sg18
S'10/27'
p1288
sg20
S'--'
p1289
sg21
S'--'
p1290
sg22
S'--'
p1291
sg23
S'W42-10'
p1292
sg24
S'--'
p1293
sg25
S'--'
p1294
sg26
S'@JAC'
p1295
sg27
S'--'
p1296
sg28
S'--'
p1297
sg29
S'--'
p1298
sssS'2012'
p1299
(dp1300
g3
(dp1301
g5
S'--'
p1302
sg7
S'--'
p1303
sg8
g34
sg9
S'--'
p1304
sg10
g36
sg11
S'Marlon Moore'
p1305
sg13
S'2012'
p1306
sg15
S'11'
p1307
sg17
S'--'
p1308
sg18
S'11/15'
p1309
sg20
S'--'
p1310
sg21
S'--'
p1311
sg22
S'--'
p1312
sg23
S'L14-19'
p1313
sg24
g34
sg25
g34
sg26
S'@BUF'
p1314
sg27
S'--'
p1315
sg28
g34
sg29
S'--'
p1316
ssg30
(dp1317
g5
S'--'
p1318
sg7
S'--'
p1319
sg8
g34
sg9
S'--'
p1320
sg10
g36
sg11
S'Marlon Moore'
p1321
sg13
S'2012'
p1322
sg15
S'10'
p1323
sg17
S'--'
p1324
sg18
S'11/11'
p1325
sg20
S'--'
p1326
sg21
S'--'
p1327
sg22
S'--'
p1328
sg23
S'L3-37'
p1329
sg24
S'--'
p1330
sg25
S'--'
p1331
sg26
S'TEN'
p1332
sg27
S'--'
p1333
sg28
S'--'
p1334
sg29
S'--'
p1335
ssg52
(dp1336
g5
S'--'
p1337
sg7
S'--'
p1338
sg8
g34
sg9
S'--'
p1339
sg10
g36
sg11
S'Marlon Moore'
p1340
sg13
S'2012'
p1341
sg15
S'13'
p1342
sg17
S'--'
p1343
sg18
S'12/02'
p1344
sg20
S'--'
p1345
sg21
S'--'
p1346
sg22
S'--'
p1347
sg23
S'L16-23'
p1348
sg24
S'--'
p1349
sg25
S'--'
p1350
sg26
S'NE'
p1351
sg27
S'--'
p1352
sg28
S'--'
p1353
sg29
S'--'
p1354
ssg70
(dp1355
g5
g34
sg7
g292
sg8
g34
sg9
S'--'
p1356
sg10
g36
sg11
S'Marlon Moore'
p1357
sg13
S'2012'
p1358
sg15
S'12'
p1359
sg17
S'9.0'
p1360
sg18
S'11/25'
p1361
sg20
S'--'
p1362
sg21
S'--'
p1363
sg22
g36
sg23
S'W24-21'
p1364
sg24
S'--'
p1365
sg25
S'--'
p1366
sg26
S'SEA'
p1367
sg27
S'--'
p1368
sg28
S'--'
p1369
sg29
g292
ssg88
(dp1370
g5
S'--'
p1371
sg7
S'--'
p1372
sg8
g36
sg9
S'--'
p1373
sg10
g36
sg11
S'Marlon Moore'
p1374
sg13
S'2012'
p1375
sg15
S'15'
p1376
sg17
S'--'
p1377
sg18
S'12/16'
p1378
sg20
S'16.5'
p1379
sg21
S'--'
p1380
sg22
S'--'
p1381
sg23
S'W24-3'
p1382
sg24
S'33'
p1383
sg25
g121
sg26
S'JAC'
p1384
sg27
S'20'
p1385
sg28
g34
sg29
S'--'
p1386
ssg106
(dp1387
g5
S'--'
p1388
sg7
S'--'
p1389
sg8
g34
sg9
S'--'
p1390
sg10
g36
sg11
S'Marlon Moore'
p1391
sg13
S'2012'
p1392
sg15
S'14'
p1393
sg17
S'--'
p1394
sg18
S'12/09'
p1395
sg20
S'--'
p1396
sg21
S'--'
p1397
sg22
S'--'
p1398
sg23
S'L13-27'
p1399
sg24
g34
sg25
g34
sg26
S'@SF'
p1400
sg27
S'--'
p1401
sg28
g34
sg29
S'--'
p1402
ssg125
(dp1403
g5
S'--'
p1404
sg7
S'--'
p1405
sg8
g34
sg9
S'--'
p1406
sg10
g36
sg11
S'Marlon Moore'
p1407
sg13
S'2012'
p1408
sg15
S'17'
p1409
sg17
S'--'
p1410
sg18
S'12/30'
p1411
sg20
S'--'
p1412
sg21
S'--'
p1413
sg22
S'--'
p1414
sg23
S'L0-28'
p1415
sg24
S'--'
p1416
sg25
S'--'
p1417
sg26
S'@NE'
p1418
sg27
S'--'
p1419
sg28
S'--'
p1420
sg29
S'--'
p1421
ssg145
(dp1422
g5
S'--'
p1423
sg7
S'--'
p1424
sg8
g36
sg9
S'--'
p1425
sg10
g36
sg11
S'Marlon Moore'
p1426
sg13
S'2012'
p1427
sg15
S'16'
p1428
sg17
S'--'
p1429
sg18
S'12/23'
p1430
sg20
S'--'
p1431
sg21
S'--'
p1432
sg22
S'--'
p1433
sg23
S'W24-10'
p1434
sg24
g34
sg25
g34
sg26
S'BUF'
p1435
sg27
S'--'
p1436
sg28
g34
sg29
S'--'
p1437
ssg36
(dp1438
g5
S'--'
p1439
sg7
S'--'
p1440
sg8
g34
sg9
S'--'
p1441
sg10
g36
sg11
S'Marlon Moore'
p1442
sg13
S'2012'
p1443
sg15
g36
sg17
S'--'
p1444
sg18
S'09/09'
p1445
sg20
S'--'
p1446
sg21
S'--'
p1447
sg22
S'--'
p1448
sg23
S'L10-30'
p1449
sg24
S'--'
p1450
sg25
S'--'
p1451
sg26
S'@HOU'
p1452
sg27
S'--'
p1453
sg28
S'--'
p1454
sg29
S'--'
p1455
ssg181
(dp1456
g5
S'--'
p1457
sg7
S'--'
p1458
sg8
g34
sg9
S'--'
p1459
sg10
g34
sg11
S'Marlon Moore'
p1460
sg13
S'2012'
p1461
sg15
g181
sg17
S'--'
p1462
sg18
S'09/23'
p1463
sg20
S'--'
p1464
sg21
S'--'
p1465
sg22
S'--'
p1466
sg23
S'L20-23'
p1467
sg24
S'--'
p1468
sg25
S'--'
p1469
sg26
S'NYJ'
p1470
sg27
S'--'
p1471
sg28
S'--'
p1472
sg29
S'--'
p1473
ssg121
(dp1474
g5
S'--'
p1475
sg7
S'--'
p1476
sg8
g34
sg9
S'--'
p1477
sg10
g36
sg11
S'Marlon Moore'
p1478
sg13
S'2012'
p1479
sg15
g121
sg17
S'--'
p1480
sg18
S'09/16'
p1481
sg20
S'--'
p1482
sg21
S'--'
p1483
sg22
S'--'
p1484
sg23
S'W35-13'
p1485
sg24
S'--'
p1486
sg25
S'--'
p1487
sg26
S'OAK'
p1488
sg27
S'--'
p1489
sg28
S'--'
p1490
sg29
S'--'
p1491
ssg216
(dp1492
g5
S'--'
p1493
sg7
S'--'
p1494
sg8
g34
sg9
S'--'
p1495
sg10
g36
sg11
S'Marlon Moore'
p1496
sg13
S'2012'
p1497
sg15
g216
sg17
S'--'
p1498
sg18
S'10/07'
p1499
sg20
S'--'
p1500
sg21
S'--'
p1501
sg22
S'--'
p1502
sg23
S'W17-13'
p1503
sg24
S'--'
p1504
sg25
S'--'
p1505
sg26
S'@CIN'
p1506
sg27
S'--'
p1507
sg28
S'--'
p1508
sg29
S'--'
p1509
ssg235
(dp1510
g5
S'--'
p1511
sg7
S'--'
p1512
sg8
g34
sg9
S'--'
p1513
sg10
g34
sg11
S'Marlon Moore'
p1514
sg13
S'2012'
p1515
sg15
g235
sg17
S'--'
p1516
sg18
S'09/30'
p1517
sg20
S'--'
p1518
sg21
S'--'
p1519
sg22
S'--'
p1520
sg23
S'L21-24'
p1521
sg24
S'--'
p1522
sg25
S'--'
p1523
sg26
S'@ARI'
p1524
sg27
S'--'
p1525
sg28
S'--'
p1526
sg29
S'--'
p1527
ssg254
(dp1528
g5
g6
sg7
g6
sg8
g6
sg9
g6
sg10
g6
sg11
S'Marlon Moore'
p1529
sg13
S'2012'
p1530
sg15
g254
sg17
g6
sg18
S'Bye'
p1531
sg20
g6
sg21
g6
sg22
g6
sg23
g6
sg24
g6
sg25
g6
sg26
g6
sg27
g6
sg28
g6
sg29
g6
ssg273
(dp1532
g5
S'--'
p1533
sg7
S'--'
p1534
sg8
g34
sg9
S'--'
p1535
sg10
g36
sg11
S'Marlon Moore'
p1536
sg13
S'2012'
p1537
sg15
g273
sg17
S'--'
p1538
sg18
S'10/14'
p1539
sg20
S'15.3'
p1540
sg21
S'--'
p1541
sg22
S'--'
p1542
sg23
S'W17-14'
p1543
sg24
S'46'
p1544
sg25
g181
sg26
S'STL'
p1545
sg27
S'29T'
p1546
sg28
g36
sg29
S'--'
p1547
ssg292
(dp1548
g5
S'--'
p1549
sg7
S'--'
p1550
sg8
g34
sg9
S'--'
p1551
sg10
g36
sg11
S'Marlon Moore'
p1552
sg13
S'2012'
p1553
sg15
g292
sg17
S'--'
p1554
sg18
S'11/04'
p1555
sg20
S'--'
p1556
sg21
S'--'
p1557
sg22
S'--'
p1558
sg23
S'L20-23'
p1559
sg24
g34
sg25
g34
sg26
S'@IND'
p1560
sg27
S'--'
p1561
sg28
g34
sg29
S'--'
p1562
ssg311
(dp1563
g5
S'--'
p1564
sg7
S'--'
p1565
sg8
g34
sg9
S'--'
p1566
sg10
g36
sg11
S'Marlon Moore'
p1567
sg13
S'2012'
p1568
sg15
g311
sg17
S'--'
p1569
sg18
S'10/28'
p1570
sg20
S'37.0'
p1571
sg21
S'--'
p1572
sg22
S'--'
p1573
sg23
S'W30-9'
p1574
sg24
S'37'
p1575
sg25
g36
sg26
S'@NYJ'
p1576
sg27
S'37'
p1577
sg28
g34
sg29
S'--'
p1578
sss.