(dp0
S'2015'
p1
(dp2
S'1'
p3
(dp4
S'RushTD'
p5
S'--'
p6
sS'RushYds'
p7
S'--'
p8
sS'GS'
p9
S'0'
p10
sS'Lost'
p11
S'--'
p12
sS'G'
p13
g10
sS'Player'
p14
S'Marquise Goodwin'
p15
sS'Year'
p16
S'2015'
p17
sS'WK'
p18
g3
sS'RushAvg'
p19
S'--'
p20
sS'Game Date'
p21
S'09/13'
p22
sS'RecAvg'
p23
S'--'
p24
sS'FUM'
p25
S'--'
p26
sS'RushAtt'
p27
S'--'
p28
sS'Result'
p29
S'W27-14'
p30
sS'RecYds'
p31
S'--'
p32
sS'Rec'
p33
S'--'
p34
sS'Opp'
p35
S'IND'
p36
sS'RecLng'
p37
S'--'
p38
sS'RecTD'
p39
S'--'
p40
sS'RushLng'
p41
S'--'
p42
ssS'3'
p43
(dp44
g5
S'--'
p45
sg7
S'--'
p46
sg9
g10
sg11
S'--'
p47
sg13
g10
sg14
S'Marquise Goodwin'
p48
sg16
S'2015'
p49
sg18
g43
sg19
S'--'
p50
sg21
S'09/27'
p51
sg23
S'--'
p52
sg25
S'--'
p53
sg27
S'--'
p54
sg29
S'W41-14'
p55
sg31
S'--'
p56
sg33
S'--'
p57
sg35
S'@MIA'
p58
sg37
S'--'
p59
sg39
S'--'
p60
sg41
S'--'
p61
ssS'2'
p62
(dp63
g5
S'--'
p64
sg7
S'--'
p65
sg9
g10
sg11
S'--'
p66
sg13
g10
sg14
S'Marquise Goodwin'
p67
sg16
S'2015'
p68
sg18
g62
sg19
S'--'
p69
sg21
S'09/20'
p70
sg23
S'--'
p71
sg25
S'--'
p72
sg27
S'--'
p73
sg29
S'L32-40'
p74
sg31
S'--'
p75
sg33
S'--'
p76
sg35
S'NE'
p77
sg37
S'--'
p78
sg39
S'--'
p79
sg41
S'--'
p80
ssS'5'
p81
(dp82
g5
S'--'
p83
sg7
S'--'
p84
sg9
g10
sg11
S'--'
p85
sg13
g3
sg14
S'Marquise Goodwin'
p86
sg16
S'2015'
p87
sg18
g81
sg19
S'--'
p88
sg21
S'10/11'
p89
sg23
S'12.0'
p90
sg25
S'--'
p91
sg27
S'--'
p92
sg29
S'W14-13'
p93
sg31
S'24'
p94
sg33
g62
sg35
S'@TEN'
p95
sg37
S'14'
p96
sg39
g10
sg41
S'--'
p97
ssS'4'
p98
(dp99
g5
S'--'
p100
sg7
S'--'
p101
sg9
g10
sg11
S'--'
p102
sg13
g10
sg14
S'Marquise Goodwin'
p103
sg16
S'2015'
p104
sg18
g98
sg19
S'--'
p105
sg21
S'10/04'
p106
sg23
S'--'
p107
sg25
S'--'
p108
sg27
S'--'
p109
sg29
S'L10-24'
p110
sg31
S'--'
p111
sg33
S'--'
p112
sg35
S'NYG'
p113
sg37
S'--'
p114
sg39
S'--'
p115
sg41
S'--'
p116
ssS'6'
p117
(dp118
g5
S'--'
p119
sg7
S'--'
p120
sg9
g10
sg11
S'--'
p121
sg13
g3
sg14
S'Marquise Goodwin'
p122
sg16
S'2015'
p123
sg18
g117
sg19
S'--'
p124
sg21
S'10/18'
p125
sg23
S'--'
p126
sg25
S'--'
p127
sg27
S'--'
p128
sg29
S'L21-34'
p129
sg31
S'--'
p130
sg33
S'--'
p131
sg35
S'CIN'
p132
sg37
S'--'
p133
sg39
S'--'
p134
sg41
S'--'
p135
sssS'2014'
p136
(dp137
S'11'
p138
(dp139
g5
S'--'
p140
sg7
S'--'
p141
sg9
g10
sg11
S'--'
p142
sg13
g10
sg14
S'Marquise Goodwin'
p143
sg16
S'2014'
p144
sg18
S'11'
p145
sg19
S'--'
p146
sg21
S'11/13'
p147
sg23
S'--'
p148
sg25
S'--'
p149
sg27
S'--'
p150
sg29
S'L9-22'
p151
sg31
S'--'
p152
sg33
S'--'
p153
sg35
S'@MIA'
p154
sg37
S'--'
p155
sg39
S'--'
p156
sg41
S'--'
p157
ssS'10'
p158
(dp159
g5
S'--'
p160
sg7
S'--'
p161
sg9
g10
sg11
S'--'
p162
sg13
g3
sg14
S'Marquise Goodwin'
p163
sg16
S'2014'
p164
sg18
S'10'
p165
sg19
S'--'
p166
sg21
S'11/09'
p167
sg23
S'--'
p168
sg25
S'--'
p169
sg27
S'--'
p170
sg29
S'L13-17'
p171
sg31
S'--'
p172
sg33
S'--'
p173
sg35
S'KC'
p174
sg37
S'--'
p175
sg39
S'--'
p176
sg41
S'--'
p177
ssS'13'
p178
(dp179
g5
S'--'
p180
sg7
S'--'
p181
sg9
g10
sg11
S'--'
p182
sg13
g3
sg14
S'Marquise Goodwin'
p183
sg16
S'2014'
p184
sg18
S'13'
p185
sg19
S'--'
p186
sg21
S'11/30'
p187
sg23
S'--'
p188
sg25
S'--'
p189
sg27
S'--'
p190
sg29
S'W26-10'
p191
sg31
g10
sg33
g10
sg35
S'CLE'
p192
sg37
S'--'
p193
sg39
g10
sg41
S'--'
p194
ssS'12'
p195
(dp196
g5
S'--'
p197
sg7
S'--'
p198
sg9
g10
sg11
S'--'
p199
sg13
g10
sg14
S'Marquise Goodwin'
p200
sg16
S'2014'
p201
sg18
S'12'
p202
sg19
S'--'
p203
sg21
S'11/24'
p204
sg23
S'--'
p205
sg25
S'--'
p206
sg27
S'--'
p207
sg29
S'W38-3'
p208
sg31
S'--'
p209
sg33
S'--'
p210
sg35
S'NYJ'
p211
sg37
S'--'
p212
sg39
S'--'
p213
sg41
S'--'
p214
ssS'15'
p215
(dp216
g5
S'--'
p217
sg7
S'--'
p218
sg9
g10
sg11
S'--'
p219
sg13
g3
sg14
S'Marquise Goodwin'
p220
sg16
S'2014'
p221
sg18
S'15'
p222
sg19
S'--'
p223
sg21
S'12/14'
p224
sg23
S'--'
p225
sg25
S'--'
p226
sg27
S'--'
p227
sg29
S'W21-13'
p228
sg31
S'--'
p229
sg33
S'--'
p230
sg35
S'GB'
p231
sg37
S'--'
p232
sg39
S'--'
p233
sg41
S'--'
p234
ssS'14'
p235
(dp236
g5
g10
sg7
S'12'
p237
sg9
g10
sg11
S'--'
p238
sg13
g3
sg14
S'Marquise Goodwin'
p239
sg16
S'2014'
p240
sg18
S'14'
p241
sg19
S'12.0'
p242
sg21
S'12/07'
p243
sg23
S'--'
p244
sg25
S'--'
p245
sg27
g3
sg29
S'L17-24'
p246
sg31
g10
sg33
g10
sg35
S'@DEN'
p247
sg37
S'--'
p248
sg39
g10
sg41
S'12'
p249
ssS'17'
p250
(dp251
g5
S'--'
p252
sg7
S'--'
p253
sg9
g10
sg11
S'--'
p254
sg13
g10
sg14
S'Marquise Goodwin'
p255
sg16
S'2014'
p256
sg18
S'17'
p257
sg19
S'--'
p258
sg21
S'12/28'
p259
sg23
S'--'
p260
sg25
S'--'
p261
sg27
S'--'
p262
sg29
S'W17-9'
p263
sg31
S'--'
p264
sg33
S'--'
p265
sg35
S'@NE'
p266
sg37
S'--'
p267
sg39
S'--'
p268
sg41
S'--'
p269
ssS'16'
p270
(dp271
g5
S'--'
p272
sg7
S'--'
p273
sg9
g10
sg11
S'--'
p274
sg13
g3
sg14
S'Marquise Goodwin'
p275
sg16
S'2014'
p276
sg18
S'16'
p277
sg19
S'--'
p278
sg21
S'12/21'
p279
sg23
S'--'
p280
sg25
S'--'
p281
sg27
S'--'
p282
sg29
S'L24-26'
p283
sg31
S'--'
p284
sg33
S'--'
p285
sg35
S'@OAK'
p286
sg37
S'--'
p287
sg39
S'--'
p288
sg41
S'--'
p289
ssg3
(dp290
g5
S'--'
p291
sg7
S'--'
p292
sg9
g10
sg11
S'--'
p293
sg13
g3
sg14
S'Marquise Goodwin'
p294
sg16
S'2014'
p295
sg18
g3
sg19
S'--'
p296
sg21
S'09/07'
p297
sg23
S'--'
p298
sg25
S'--'
p299
sg27
S'--'
p300
sg29
S'W23-20'
p301
sg31
g10
sg33
g10
sg35
S'@CHI'
p302
sg37
S'--'
p303
sg39
g10
sg41
S'--'
p304
ssg43
(dp305
g5
S'--'
p306
sg7
S'--'
p307
sg9
g10
sg11
S'--'
p308
sg13
g3
sg14
S'Marquise Goodwin'
p309
sg16
S'2014'
p310
sg18
g43
sg19
S'--'
p311
sg21
S'09/21'
p312
sg23
S'--'
p313
sg25
S'--'
p314
sg27
S'--'
p315
sg29
S'L10-22'
p316
sg31
g10
sg33
g10
sg35
S'SD'
p317
sg37
S'--'
p318
sg39
g10
sg41
S'--'
p319
ssg62
(dp320
g5
g10
sg7
g98
sg9
g10
sg11
S'--'
p321
sg13
g3
sg14
S'Marquise Goodwin'
p322
sg16
S'2014'
p323
sg18
g62
sg19
S'4.0'
p324
sg21
S'09/14'
p325
sg23
S'--'
p326
sg25
S'--'
p327
sg27
g3
sg29
S'W29-10'
p328
sg31
S'--'
p329
sg33
S'--'
p330
sg35
S'MIA'
p331
sg37
S'--'
p332
sg39
S'--'
p333
sg41
g98
ssg81
(dp334
g5
g10
sg7
S'-8'
p335
sg9
g10
sg11
g10
sg13
g3
sg14
S'Marquise Goodwin'
p336
sg16
S'2014'
p337
sg18
g81
sg19
S'-8.0'
p338
sg21
S'10/05'
p339
sg23
S'42.0'
p340
sg25
g3
sg27
g3
sg29
S'W17-14'
p341
sg31
S'42'
p342
sg33
g3
sg35
S'@DET'
p343
sg37
S'42'
p344
sg39
g10
sg41
S'-8'
p345
ssg98
(dp346
g5
S'--'
p347
sg7
S'--'
p348
sg9
g10
sg11
S'--'
p349
sg13
g10
sg14
S'Marquise Goodwin'
p350
sg16
S'2014'
p351
sg18
g98
sg19
S'--'
p352
sg21
S'09/28'
p353
sg23
S'--'
p354
sg25
S'--'
p355
sg27
S'--'
p356
sg29
S'L17-23'
p357
sg31
S'--'
p358
sg33
S'--'
p359
sg35
S'@HOU'
p360
sg37
S'--'
p361
sg39
S'--'
p362
sg41
S'--'
p363
ssS'7'
p364
(dp365
g5
S'--'
p366
sg7
S'--'
p367
sg9
g10
sg11
S'--'
p368
sg13
g10
sg14
S'Marquise Goodwin'
p369
sg16
S'2014'
p370
sg18
g364
sg19
S'--'
p371
sg21
S'10/19'
p372
sg23
S'--'
p373
sg25
S'--'
p374
sg27
S'--'
p375
sg29
S'W17-16'
p376
sg31
S'--'
p377
sg33
S'--'
p378
sg35
S'MIN'
p379
sg37
S'--'
p380
sg39
S'--'
p381
sg41
S'--'
p382
ssg117
(dp383
g5
S'--'
p384
sg7
S'--'
p385
sg9
g10
sg11
S'--'
p386
sg13
g3
sg14
S'Marquise Goodwin'
p387
sg16
S'2014'
p388
sg18
g117
sg19
S'--'
p389
sg21
S'10/12'
p390
sg23
S'--'
p391
sg25
S'--'
p392
sg27
S'--'
p393
sg29
S'L22-37'
p394
sg31
g10
sg33
g10
sg35
S'NE'
p395
sg37
S'--'
p396
sg39
g10
sg41
S'--'
p397
ssS'9'
p398
(dp399
g5
S''
p400
sg7
g400
sg9
g400
sg11
g400
sg13
g400
sg14
S'Marquise Goodwin'
p401
sg16
S'2014'
p402
sg18
g398
sg19
g400
sg21
S'Bye'
p403
sg23
g400
sg25
g400
sg27
g400
sg29
g400
sg31
g400
sg33
g400
sg35
g400
sg37
g400
sg39
g400
sg41
g400
ssS'8'
p404
(dp405
g5
S'--'
p406
sg7
S'--'
p407
sg9
g10
sg11
S'--'
p408
sg13
g10
sg14
S'Marquise Goodwin'
p409
sg16
S'2014'
p410
sg18
g404
sg19
S'--'
p411
sg21
S'10/26'
p412
sg23
S'--'
p413
sg25
S'--'
p414
sg27
S'--'
p415
sg29
S'W43-23'
p416
sg31
S'--'
p417
sg33
S'--'
p418
sg35
S'@NYJ'
p419
sg37
S'--'
p420
sg39
S'--'
p421
sg41
S'--'
p422
sssS'2013'
p423
(dp424
g138
(dp425
g5
g10
sg7
S'17'
p426
sg9
g3
sg11
S'--'
p427
sg13
g3
sg14
S'Marquise Goodwin'
p428
sg16
S'2013'
p429
sg18
S'11'
p430
sg19
S'17.0'
p431
sg21
S'11/17'
p432
sg23
S'13.5'
p433
sg25
S'--'
p434
sg27
g3
sg29
S'W37-14'
p435
sg31
S'81'
p436
sg33
g117
sg35
S'NYJ'
p437
sg37
S'43T'
p438
sg39
g3
sg41
S'17'
p439
ssg158
(dp440
g5
S'--'
p441
sg7
S'--'
p442
sg9
g10
sg11
S'--'
p443
sg13
g3
sg14
S'Marquise Goodwin'
p444
sg16
S'2013'
p445
sg18
S'10'
p446
sg19
S'--'
p447
sg21
S'11/10'
p448
sg23
S'4.5'
p449
sg25
S'--'
p450
sg27
S'--'
p451
sg29
S'L10-23'
p452
sg31
g398
sg33
g62
sg35
S'@PIT'
p453
sg37
g364
sg39
g10
sg41
S'--'
p454
ssg178
(dp455
g5
S'--'
p456
sg7
S'--'
p457
sg9
g10
sg11
S'--'
p458
sg13
g3
sg14
S'Marquise Goodwin'
p459
sg16
S'2013'
p460
sg18
S'13'
p461
sg19
S'--'
p462
sg21
S'12/01'
p463
sg23
S'--'
p464
sg25
S'--'
p465
sg27
S'--'
p466
sg29
S'L31-34'
p467
sg31
g10
sg33
g10
sg35
S'ATL'
p468
sg37
S'--'
p469
sg39
g10
sg41
S'--'
p470
ssg195
(dp471
g5
g400
sg7
g400
sg9
g400
sg11
g400
sg13
g400
sg14
S'Marquise Goodwin'
p472
sg16
S'2013'
p473
sg18
S'12'
p474
sg19
g400
sg21
S'Bye'
p475
sg23
g400
sg25
g400
sg27
g400
sg29
g400
sg31
g400
sg33
g400
sg35
g400
sg37
g400
sg39
g400
sg41
g400
ssg215
(dp476
g5
S'--'
p477
sg7
S'--'
p478
sg9
g10
sg11
S'--'
p479
sg13
g3
sg14
S'Marquise Goodwin'
p480
sg16
S'2013'
p481
sg18
S'15'
p482
sg19
S'--'
p483
sg21
S'12/15'
p484
sg23
S'--'
p485
sg25
S'--'
p486
sg27
S'--'
p487
sg29
S'W27-20'
p488
sg31
S'--'
p489
sg33
S'--'
p490
sg35
S'@JAC'
p491
sg37
S'--'
p492
sg39
S'--'
p493
sg41
S'--'
p494
ssg235
(dp495
g5
S'--'
p496
sg7
S'--'
p497
sg9
g10
sg11
S'--'
p498
sg13
g3
sg14
S'Marquise Goodwin'
p499
sg16
S'2013'
p500
sg18
S'14'
p501
sg19
S'--'
p502
sg21
S'12/08'
p503
sg23
S'--'
p504
sg25
S'--'
p505
sg27
S'--'
p506
sg29
S'L6-27'
p507
sg31
S'--'
p508
sg33
S'--'
p509
sg35
S'@TB'
p510
sg37
S'--'
p511
sg39
S'--'
p512
sg41
S'--'
p513
ssg250
(dp514
g5
S'--'
p515
sg7
S'--'
p516
sg9
g10
sg11
S'--'
p517
sg13
g3
sg14
S'Marquise Goodwin'
p518
sg16
S'2013'
p519
sg18
S'17'
p520
sg19
S'--'
p521
sg21
S'12/29'
p522
sg23
S'22.0'
p523
sg25
S'--'
p524
sg27
S'--'
p525
sg29
S'L20-34'
p526
sg31
S'22'
p527
sg33
g3
sg35
S'@NE'
p528
sg37
S'22'
p529
sg39
g10
sg41
S'--'
p530
ssg270
(dp531
g5
g10
sg7
S'-3'
p532
sg9
g10
sg11
S'--'
p533
sg13
g3
sg14
S'Marquise Goodwin'
p534
sg16
S'2013'
p535
sg18
S'16'
p536
sg19
S'-3.0'
p537
sg21
S'12/22'
p538
sg23
S'--'
p539
sg25
S'--'
p540
sg27
g3
sg29
S'W19-0'
p541
sg31
g10
sg33
g10
sg35
S'MIA'
p542
sg37
S'--'
p543
sg39
g10
sg41
S'-3'
p544
ssg3
(dp545
g5
S'--'
p546
sg7
S'--'
p547
sg9
g10
sg11
g3
sg13
g3
sg14
S'Marquise Goodwin'
p548
sg16
S'2013'
p549
sg18
g3
sg19
S'--'
p550
sg21
S'09/08'
p551
sg23
S'0.0'
p552
sg25
g3
sg27
S'--'
p553
sg29
S'L21-23'
p554
sg31
g10
sg33
g3
sg35
S'NE'
p555
sg37
g10
sg39
g10
sg41
S'--'
p556
ssg43
(dp557
g5
S'--'
p558
sg7
S'--'
p559
sg9
g10
sg11
S'--'
p560
sg13
g10
sg14
S'Marquise Goodwin'
p561
sg16
S'2013'
p562
sg18
g43
sg19
S'--'
p563
sg21
S'09/22'
p564
sg23
S'--'
p565
sg25
S'--'
p566
sg27
S'--'
p567
sg29
S'L20-27'
p568
sg31
S'--'
p569
sg33
S'--'
p570
sg35
S'@NYJ'
p571
sg37
S'--'
p572
sg39
S'--'
p573
sg41
S'--'
p574
ssg62
(dp575
g5
S'--'
p576
sg7
S'--'
p577
sg9
g10
sg11
S'--'
p578
sg13
g10
sg14
S'Marquise Goodwin'
p579
sg16
S'2013'
p580
sg18
g62
sg19
S'--'
p581
sg21
S'09/15'
p582
sg23
S'--'
p583
sg25
S'--'
p584
sg27
S'--'
p585
sg29
S'W24-23'
p586
sg31
S'--'
p587
sg33
S'--'
p588
sg35
S'CAR'
p589
sg37
S'--'
p590
sg39
S'--'
p591
sg41
S'--'
p592
ssg81
(dp593
g5
S'--'
p594
sg7
S'--'
p595
sg9
g10
sg11
S'--'
p596
sg13
g10
sg14
S'Marquise Goodwin'
p597
sg16
S'2013'
p598
sg18
g81
sg19
S'--'
p599
sg21
S'10/03'
p600
sg23
S'--'
p601
sg25
S'--'
p602
sg27
S'--'
p603
sg29
S'L24-37'
p604
sg31
S'--'
p605
sg33
S'--'
p606
sg35
S'@CLE'
p607
sg37
S'--'
p608
sg39
S'--'
p609
sg41
S'--'
p610
ssg98
(dp611
g5
S'--'
p612
sg7
S'--'
p613
sg9
g10
sg11
S'--'
p614
sg13
g10
sg14
S'Marquise Goodwin'
p615
sg16
S'2013'
p616
sg18
g98
sg19
S'--'
p617
sg21
S'09/29'
p618
sg23
S'--'
p619
sg25
S'--'
p620
sg27
S'--'
p621
sg29
S'W23-20'
p622
sg31
S'--'
p623
sg33
S'--'
p624
sg35
S'BAL'
p625
sg37
S'--'
p626
sg39
S'--'
p627
sg41
S'--'
p628
ssg364
(dp629
g5
S'--'
p630
sg7
S'--'
p631
sg9
g10
sg11
S'--'
p632
sg13
g3
sg14
S'Marquise Goodwin'
p633
sg16
S'2013'
p634
sg18
g364
sg19
S'--'
p635
sg21
S'10/20'
p636
sg23
S'--'
p637
sg25
S'--'
p638
sg27
S'--'
p639
sg29
S'W23-21'
p640
sg31
S'--'
p641
sg33
S'--'
p642
sg35
S'@MIA'
p643
sg37
S'--'
p644
sg39
S'--'
p645
sg41
S'--'
p646
ssg117
(dp647
g5
g10
sg7
S'-1'
p648
sg9
g10
sg11
S'--'
p649
sg13
g3
sg14
S'Marquise Goodwin'
p650
sg16
S'2013'
p651
sg18
g117
sg19
S'-1.0'
p652
sg21
S'10/13'
p653
sg23
S'25.5'
p654
sg25
S'--'
p655
sg27
g3
sg29
S'L24-27'
p656
sg31
S'51'
p657
sg33
g62
sg35
S'CIN'
p658
sg37
S'40T'
p659
sg39
g3
sg41
S'-1'
p660
ssg398
(dp661
g5
S'--'
p662
sg7
S'--'
p663
sg9
g10
sg11
S'--'
p664
sg13
g3
sg14
S'Marquise Goodwin'
p665
sg16
S'2013'
p666
sg18
g398
sg19
S'--'
p667
sg21
S'11/03'
p668
sg23
S'32.0'
p669
sg25
S'--'
p670
sg27
S'--'
p671
sg29
S'L13-23'
p672
sg31
S'64'
p673
sg33
g62
sg35
S'KC'
p674
sg37
S'59T'
p675
sg39
g3
sg41
S'--'
p676
ssg404
(dp677
g5
S'--'
p678
sg7
S'--'
p679
sg9
g10
sg11
S'--'
p680
sg13
g3
sg14
S'Marquise Goodwin'
p681
sg16
S'2013'
p682
sg18
g404
sg19
S'--'
p683
sg21
S'10/27'
p684
sg23
S'18.7'
p685
sg25
S'--'
p686
sg27
S'--'
p687
sg29
S'L17-35'
p688
sg31
S'56'
p689
sg33
g43
sg35
S'@NO'
p690
sg37
S'26'
p691
sg39
g10
sg41
S'--'
p692
sss.