(dp0
S'2015'
p1
(dp2
S'11'
p3
(dp4
S'RushTD'
p5
S'--'
p6
sS'RushYds'
p7
S'--'
p8
sS'GS'
p9
S'0'
p10
sS'Lost'
p11
S'--'
p12
sS'G'
p13
S'1'
p14
sS'Player'
p15
S'Marqise Lee'
p16
sS'Year'
p17
S'2015'
p18
sS'WK'
p19
S'11'
p20
sS'RushAvg'
p21
S'--'
p22
sS'Game Date'
p23
S'11/19'
p24
sS'RecAvg'
p25
S'--'
p26
sS'FUM'
p27
S'--'
p28
sS'RushAtt'
p29
S'--'
p30
sS'Result'
p31
S'W19-13'
p32
sS'RecYds'
p33
S'--'
p34
sS'Rec'
p35
S'--'
p36
sS'Opp'
p37
S'TEN'
p38
sS'RecLng'
p39
S'--'
p40
sS'RecTD'
p41
S'--'
p42
sS'RushLng'
p43
S'--'
p44
ssS'10'
p45
(dp46
g5
g10
sg7
S'3'
p47
sg9
g10
sg11
S'--'
p48
sg13
g14
sg15
S'Marqise Lee'
p49
sg17
S'2015'
p50
sg19
S'10'
p51
sg21
S'3.0'
p52
sg23
S'11/15'
p53
sg25
S'8.0'
p54
sg27
S'--'
p55
sg29
g14
sg31
S'W22-20'
p56
sg33
S'8'
p57
sg35
g14
sg37
S'@BAL'
p58
sg39
g57
sg41
g10
sg43
g47
ssS'13'
p59
(dp60
g5
g10
sg7
S'4'
p61
sg9
g14
sg11
S'--'
p62
sg13
g14
sg15
S'Marqise Lee'
p63
sg17
S'2015'
p64
sg19
S'13'
p65
sg21
S'4.0'
p66
sg23
S'12/06'
p67
sg25
S'17.0'
p68
sg27
S'--'
p69
sg29
g14
sg31
S'L39-42'
p70
sg33
S'17'
p71
sg35
g14
sg37
S'@TEN'
p72
sg39
S'17'
p73
sg41
g10
sg43
g61
ssS'12'
p74
(dp75
g5
g10
sg7
S'10'
p76
sg9
g10
sg11
S'--'
p77
sg13
g14
sg15
S'Marqise Lee'
p78
sg17
S'2015'
p79
sg19
S'12'
p80
sg21
S'10.0'
p81
sg23
S'11/29'
p82
sg25
S'3.0'
p83
sg27
S'--'
p84
sg29
g14
sg31
S'L25-31'
p85
sg33
g47
sg35
g14
sg37
S'SD'
p86
sg39
g47
sg41
g10
sg43
S'10'
p87
ssS'15'
p88
(dp89
g5
S'--'
p90
sg7
S'--'
p91
sg9
g10
sg11
S'--'
p92
sg13
g14
sg15
S'Marqise Lee'
p93
sg17
S'2015'
p94
sg19
S'15'
p95
sg21
S'--'
p96
sg23
S'12/20'
p97
sg25
S'23.0'
p98
sg27
S'--'
p99
sg29
S'--'
p100
sg31
S'L17-23'
p101
sg33
S'46'
p102
sg35
S'2'
p103
sg37
S'ATL'
p104
sg39
S'30'
p105
sg41
g10
sg43
S'--'
p106
ssS'14'
p107
(dp108
g5
S'--'
p109
sg7
S'--'
p110
sg9
g10
sg11
S'--'
p111
sg13
g14
sg15
S'Marqise Lee'
p112
sg17
S'2015'
p113
sg19
S'14'
p114
sg21
S'--'
p115
sg23
S'12/13'
p116
sg25
S'21.0'
p117
sg27
S'--'
p118
sg29
S'--'
p119
sg31
S'W51-16'
p120
sg33
S'21'
p121
sg35
g14
sg37
S'IND'
p122
sg39
S'21'
p123
sg41
g10
sg43
S'--'
p124
ssS'17'
p125
(dp126
g5
S'--'
p127
sg7
S'--'
p128
sg9
g10
sg11
S'--'
p129
sg13
g14
sg15
S'Marqise Lee'
p130
sg17
S'2015'
p131
sg19
S'17'
p132
sg21
S'--'
p133
sg23
S'01/03'
p134
sg25
S'10.0'
p135
sg27
S'--'
p136
sg29
S'--'
p137
sg31
S'L6-30'
p138
sg33
S'30'
p139
sg35
g47
sg37
S'@HOU'
p140
sg39
S'14'
p141
sg41
g10
sg43
S'--'
p142
ssS'16'
p143
(dp144
g5
g10
sg7
S'9'
p145
sg9
g10
sg11
S'--'
p146
sg13
g14
sg15
S'Marqise Lee'
p147
sg17
S'2015'
p148
sg19
S'16'
p149
sg21
S'9.0'
p150
sg23
S'12/27'
p151
sg25
S'8.7'
p152
sg27
S'--'
p153
sg29
g14
sg31
S'L27-38'
p154
sg33
S'26'
p155
sg35
g47
sg37
S'@NO'
p156
sg39
S'18'
p157
sg41
g14
sg43
g145
ssg14
(dp158
g5
S'--'
p159
sg7
S'--'
p160
sg9
g10
sg11
S'--'
p161
sg13
g10
sg15
S'Marqise Lee'
p162
sg17
S'2015'
p163
sg19
g14
sg21
S'--'
p164
sg23
S'09/13'
p165
sg25
S'--'
p166
sg27
S'--'
p167
sg29
S'--'
p168
sg31
S'L9-20'
p169
sg33
S'--'
p170
sg35
S'--'
p171
sg37
S'CAR'
p172
sg39
S'--'
p173
sg41
S'--'
p174
sg43
S'--'
p175
ssg47
(dp176
g5
S'--'
p177
sg7
S'--'
p178
sg9
g10
sg11
S'--'
p179
sg13
g14
sg15
S'Marqise Lee'
p180
sg17
S'2015'
p181
sg19
g47
sg21
S'--'
p182
sg23
S'09/27'
p183
sg25
S'13.0'
p184
sg27
S'--'
p185
sg29
S'--'
p186
sg31
S'L17-51'
p187
sg33
S'13'
p188
sg35
g14
sg37
S'@NE'
p189
sg39
S'13'
p190
sg41
g10
sg43
S'--'
p191
ssg103
(dp192
g5
g10
sg7
S'12'
p193
sg9
g10
sg11
S'--'
p194
sg13
g14
sg15
S'Marqise Lee'
p195
sg17
S'2015'
p196
sg19
g103
sg21
S'12.0'
p197
sg23
S'09/20'
p198
sg25
S'13.5'
p199
sg27
S'--'
p200
sg29
g14
sg31
S'W23-20'
p201
sg33
S'27'
p202
sg35
g103
sg37
S'MIA'
p203
sg39
S'18'
p204
sg41
g10
sg43
S'12'
p205
ssS'5'
p206
(dp207
g5
S'--'
p208
sg7
S'--'
p209
sg9
g10
sg11
S'--'
p210
sg13
g10
sg15
S'Marqise Lee'
p211
sg17
S'2015'
p212
sg19
g206
sg21
S'--'
p213
sg23
S'10/11'
p214
sg25
S'--'
p215
sg27
S'--'
p216
sg29
S'--'
p217
sg31
S'L31-38'
p218
sg33
S'--'
p219
sg35
S'--'
p220
sg37
S'@TB'
p221
sg39
S'--'
p222
sg41
S'--'
p223
sg43
S'--'
p224
ssg61
(dp225
g5
S'--'
p226
sg7
S'--'
p227
sg9
g10
sg11
S'--'
p228
sg13
g10
sg15
S'Marqise Lee'
p229
sg17
S'2015'
p230
sg19
g61
sg21
S'--'
p231
sg23
S'10/04'
p232
sg25
S'--'
p233
sg27
S'--'
p234
sg29
S'--'
p235
sg31
S'L13-16'
p236
sg33
S'--'
p237
sg35
S'--'
p238
sg37
S'@IND'
p239
sg39
S'--'
p240
sg41
S'--'
p241
sg43
S'--'
p242
ssS'7'
p243
(dp244
g5
S'--'
p245
sg7
S'--'
p246
sg9
g10
sg11
S'--'
p247
sg13
g10
sg15
S'Marqise Lee'
p248
sg17
S'2015'
p249
sg19
g243
sg21
S'--'
p250
sg23
S'10/25'
p251
sg25
S'--'
p252
sg27
S'--'
p253
sg29
S'--'
p254
sg31
S'W34-31'
p255
sg33
S'--'
p256
sg35
S'--'
p257
sg37
S'BUF'
p258
sg39
S'--'
p259
sg41
S'--'
p260
sg43
S'--'
p261
ssS'6'
p262
(dp263
g5
S'--'
p264
sg7
S'--'
p265
sg9
g10
sg11
S'--'
p266
sg13
g10
sg15
S'Marqise Lee'
p267
sg17
S'2015'
p268
sg19
g262
sg21
S'--'
p269
sg23
S'10/18'
p270
sg25
S'--'
p271
sg27
S'--'
p272
sg29
S'--'
p273
sg31
S'L20-31'
p274
sg33
S'--'
p275
sg35
S'--'
p276
sg37
S'HOU'
p277
sg39
S'--'
p278
sg41
S'--'
p279
sg43
S'--'
p280
ssg145
(dp281
g5
S'--'
p282
sg7
S'--'
p283
sg9
g10
sg11
S'--'
p284
sg13
g10
sg15
S'Marqise Lee'
p285
sg17
S'2015'
p286
sg19
g145
sg21
S'--'
p287
sg23
S'11/08'
p288
sg25
S'--'
p289
sg27
S'--'
p290
sg29
S'--'
p291
sg31
S'L23-28'
p292
sg33
S'--'
p293
sg35
S'--'
p294
sg37
S'@NYJ'
p295
sg39
S'--'
p296
sg41
S'--'
p297
sg43
S'--'
p298
ssg57
(dp299
g5
S''
p300
sg7
g300
sg9
g300
sg11
g300
sg13
g300
sg15
S'Marqise Lee'
p301
sg17
S'2015'
p302
sg19
g57
sg21
g300
sg23
S'Bye'
p303
sg25
g300
sg27
g300
sg29
g300
sg31
g300
sg33
g300
sg35
g300
sg37
g300
sg39
g300
sg41
g300
sg43
g300
sssS'2014'
p304
(dp305
g3
(dp306
g5
g300
sg7
g300
sg9
g300
sg11
g300
sg13
g300
sg15
S'Marqise Lee'
p307
sg17
S'2014'
p308
sg19
S'11'
p309
sg21
g300
sg23
S'Bye'
p310
sg25
g300
sg27
g300
sg29
g300
sg31
g300
sg33
g300
sg35
g300
sg37
g300
sg39
g300
sg41
g300
sg43
g300
ssg45
(dp311
g5
S'--'
p312
sg7
S'--'
p313
sg9
g10
sg11
S'--'
p314
sg13
g14
sg15
S'Marqise Lee'
p315
sg17
S'2014'
p316
sg19
S'10'
p317
sg21
S'--'
p318
sg23
S'11/09'
p319
sg25
S'13.0'
p320
sg27
S'--'
p321
sg29
S'--'
p322
sg31
S'L17-31'
p323
sg33
S'13'
p324
sg35
g14
sg37
S'DAL'
p325
sg39
S'13'
p326
sg41
g10
sg43
S'--'
p327
ssg59
(dp328
g5
S'--'
p329
sg7
S'--'
p330
sg9
g14
sg11
S'--'
p331
sg13
g14
sg15
S'Marqise Lee'
p332
sg17
S'2014'
p333
sg19
S'13'
p334
sg21
S'--'
p335
sg23
S'11/30'
p336
sg25
S'12.5'
p337
sg27
S'--'
p338
sg29
S'--'
p339
sg31
S'W25-24'
p340
sg33
S'75'
p341
sg35
g262
sg37
S'NYG'
p342
sg39
S'30T'
p343
sg41
g14
sg43
S'--'
p344
ssg74
(dp345
g5
S'--'
p346
sg7
S'--'
p347
sg9
g10
sg11
S'--'
p348
sg13
g14
sg15
S'Marqise Lee'
p349
sg17
S'2014'
p350
sg19
S'12'
p351
sg21
S'--'
p352
sg23
S'11/23'
p353
sg25
S'17.3'
p354
sg27
S'--'
p355
sg29
S'--'
p356
sg31
S'L3-23'
p357
sg33
S'52'
p358
sg35
g47
sg37
S'@IND'
p359
sg39
S'37'
p360
sg41
g10
sg43
S'--'
p361
ssg88
(dp362
g5
S'--'
p363
sg7
S'--'
p364
sg9
g14
sg11
S'--'
p365
sg13
g14
sg15
S'Marqise Lee'
p366
sg17
S'2014'
p367
sg19
S'15'
p368
sg21
S'--'
p369
sg23
S'12/14'
p370
sg25
S'3.5'
p371
sg27
S'--'
p372
sg29
S'--'
p373
sg31
S'L12-20'
p374
sg33
S'14'
p375
sg35
g61
sg37
S'@BAL'
p376
sg39
S'13'
p377
sg41
g10
sg43
S'--'
p378
ssg107
(dp379
g5
g10
sg7
g61
sg9
g14
sg11
S'--'
p380
sg13
g14
sg15
S'Marqise Lee'
p381
sg17
S'2014'
p382
sg19
S'14'
p383
sg21
S'4.0'
p384
sg23
S'12/07'
p385
sg25
S'13.4'
p386
sg27
S'--'
p387
sg29
g14
sg31
S'L13-27'
p388
sg33
S'67'
p389
sg35
g206
sg37
S'HOU'
p390
sg39
S'31'
p391
sg41
g10
sg43
g61
ssg125
(dp392
g5
S'--'
p393
sg7
S'--'
p394
sg9
g14
sg11
S'--'
p395
sg13
g14
sg15
S'Marqise Lee'
p396
sg17
S'2014'
p397
sg19
S'17'
p398
sg21
S'--'
p399
sg23
S'12/28'
p400
sg25
S'4.0'
p401
sg27
S'--'
p402
sg29
S'--'
p403
sg31
S'L17-23'
p404
sg33
g57
sg35
g103
sg37
S'@HOU'
p405
sg39
g61
sg41
g10
sg43
S'--'
p406
ssg143
(dp407
g5
S'--'
p408
sg7
S'--'
p409
sg9
g14
sg11
S'--'
p410
sg13
g14
sg15
S'Marqise Lee'
p411
sg17
S'2014'
p412
sg19
S'16'
p413
sg21
S'--'
p414
sg23
S'12/18'
p415
sg25
S'16.3'
p416
sg27
S'--'
p417
sg29
S'--'
p418
sg31
S'W21-13'
p419
sg33
S'65'
p420
sg35
g61
sg37
S'TEN'
p421
sg39
S'34'
p422
sg41
g10
sg43
S'--'
p423
ssg14
(dp424
g5
S'--'
p425
sg7
S'--'
p426
sg9
g14
sg11
S'--'
p427
sg13
g14
sg15
S'Marqise Lee'
p428
sg17
S'2014'
p429
sg19
g14
sg21
S'--'
p430
sg23
S'09/07'
p431
sg25
S'10.3'
p432
sg27
S'--'
p433
sg29
S'--'
p434
sg31
S'L17-34'
p435
sg33
S'62'
p436
sg35
g262
sg37
S'@PHI'
p437
sg39
S'18'
p438
sg41
g10
sg43
S'--'
p439
ssg47
(dp440
g5
S'--'
p441
sg7
S'--'
p442
sg9
g10
sg11
S'--'
p443
sg13
g10
sg15
S'Marqise Lee'
p444
sg17
S'2014'
p445
sg19
g47
sg21
S'--'
p446
sg23
S'09/21'
p447
sg25
S'--'
p448
sg27
S'--'
p449
sg29
S'--'
p450
sg31
S'L17-44'
p451
sg33
S'--'
p452
sg35
S'--'
p453
sg37
S'IND'
p454
sg39
S'--'
p455
sg41
S'--'
p456
sg43
S'--'
p457
ssg103
(dp458
g5
S'--'
p459
sg7
S'--'
p460
sg9
g14
sg11
S'--'
p461
sg13
g14
sg15
S'Marqise Lee'
p462
sg17
S'2014'
p463
sg19
g103
sg21
S'--'
p464
sg23
S'09/14'
p465
sg25
S'5.5'
p466
sg27
S'--'
p467
sg29
S'--'
p468
sg31
S'L10-41'
p469
sg33
S'11'
p470
sg35
g103
sg37
S'@WAS'
p471
sg39
g57
sg41
g10
sg43
S'--'
p472
ssg206
(dp473
g5
S'--'
p474
sg7
S'--'
p475
sg9
g10
sg11
S'--'
p476
sg13
g10
sg15
S'Marqise Lee'
p477
sg17
S'2014'
p478
sg19
g206
sg21
S'--'
p479
sg23
S'10/05'
p480
sg25
S'--'
p481
sg27
S'--'
p482
sg29
S'--'
p483
sg31
S'L9-17'
p484
sg33
S'--'
p485
sg35
S'--'
p486
sg37
S'PIT'
p487
sg39
S'--'
p488
sg41
S'--'
p489
sg43
S'--'
p490
ssg61
(dp491
g5
S'--'
p492
sg7
S'--'
p493
sg9
g10
sg11
S'--'
p494
sg13
g10
sg15
S'Marqise Lee'
p495
sg17
S'2014'
p496
sg19
g61
sg21
S'--'
p497
sg23
S'09/28'
p498
sg25
S'--'
p499
sg27
S'--'
p500
sg29
S'--'
p501
sg31
S'L14-33'
p502
sg33
S'--'
p503
sg35
S'--'
p504
sg37
S'@SD'
p505
sg39
S'--'
p506
sg41
S'--'
p507
sg43
S'--'
p508
ssg243
(dp509
g5
g10
sg7
g206
sg9
g10
sg11
S'--'
p510
sg13
g14
sg15
S'Marqise Lee'
p511
sg17
S'2014'
p512
sg19
g243
sg21
S'2.5'
p513
sg23
S'10/19'
p514
sg25
S'20.0'
p515
sg27
S'--'
p516
sg29
g103
sg31
S'W24-6'
p517
sg33
S'20'
p518
sg35
g14
sg37
S'CLE'
p519
sg39
S'20'
p520
sg41
g10
sg43
g206
ssg262
(dp521
g5
S'--'
p522
sg7
S'--'
p523
sg9
g10
sg11
S'--'
p524
sg13
g14
sg15
S'Marqise Lee'
p525
sg17
S'2014'
p526
sg19
g262
sg21
S'--'
p527
sg23
S'10/12'
p528
sg25
S'13.0'
p529
sg27
S'--'
p530
sg29
S'--'
p531
sg31
S'L14-16'
p532
sg33
S'26'
p533
sg35
g103
sg37
S'@TEN'
p534
sg39
S'16'
p535
sg41
g10
sg43
S'--'
p536
ssg145
(dp537
g5
S'--'
p538
sg7
S'--'
p539
sg9
g10
sg11
S'--'
p540
sg13
g14
sg15
S'Marqise Lee'
p541
sg17
S'2014'
p542
sg19
g145
sg21
S'--'
p543
sg23
S'11/02'
p544
sg25
S'--'
p545
sg27
S'--'
p546
sg29
S'--'
p547
sg31
S'L23-33'
p548
sg33
S'--'
p549
sg35
S'--'
p550
sg37
S'@CIN'
p551
sg39
S'--'
p552
sg41
S'--'
p553
sg43
S'--'
p554
ssg57
(dp555
g5
S'--'
p556
sg7
S'--'
p557
sg9
g14
sg11
S'--'
p558
sg13
g14
sg15
S'Marqise Lee'
p559
sg17
S'2014'
p560
sg19
g57
sg21
S'--'
p561
sg23
S'10/26'
p562
sg25
S'9.0'
p563
sg27
S'--'
p564
sg29
S'--'
p565
sg31
S'L13-27'
p566
sg33
g145
sg35
g14
sg37
S'MIA'
p567
sg39
g145
sg41
g10
sg43
S'--'
p568
sss.