(dp0
S'2015'
p1
(dp2
S'11'
p3
(dp4
S'RushTD'
p5
S'--'
p6
sS'RushYds'
p7
S'--'
p8
sS'GS'
p9
S'1'
p10
sS'Lost'
p11
S'--'
p12
sS'G'
p13
g10
sS'Player'
p14
S'Marquess Wilson'
p15
sS'Year'
p16
S'2015'
p17
sS'WK'
p18
S'11'
p19
sS'RushAvg'
p20
S'--'
p21
sS'Game Date'
p22
S'11/22'
p23
sS'RecAvg'
p24
S'25.5'
p25
sS'FUM'
p26
S'--'
p27
sS'RushAtt'
p28
S'--'
p29
sS'Result'
p30
S'L15-17'
p31
sS'RecYds'
p32
S'102'
p33
sS'Rec'
p34
S'4'
p35
sS'Opp'
p36
S'DEN'
p37
sS'RecLng'
p38
S'40'
p39
sS'RecTD'
p40
S'0'
p41
sS'RushLng'
p42
S'--'
p43
ssS'10'
p44
(dp45
g5
S'--'
p46
sg7
S'--'
p47
sg9
g10
sg11
S'--'
p48
sg13
g10
sg14
S'Marquess Wilson'
p49
sg16
S'2015'
p50
sg18
S'10'
p51
sg20
S'--'
p52
sg22
S'11/15'
p53
sg24
S'1.0'
p54
sg26
S'--'
p55
sg28
S'--'
p56
sg30
S'W37-13'
p57
sg32
g10
sg34
g10
sg36
S'@STL'
p58
sg38
g10
sg40
g41
sg42
S'--'
p59
ssS'13'
p60
(dp61
g5
S'--'
p62
sg7
S'--'
p63
sg9
g41
sg11
S'--'
p64
sg13
g41
sg14
S'Marquess Wilson'
p65
sg16
S'2015'
p66
sg18
S'13'
p67
sg20
S'--'
p68
sg22
S'12/06'
p69
sg24
S'--'
p70
sg26
S'--'
p71
sg28
S'--'
p72
sg30
S'L20-26'
p73
sg32
S'--'
p74
sg34
S'--'
p75
sg36
S'SF'
p76
sg38
S'--'
p77
sg40
S'--'
p78
sg42
S'--'
p79
ssS'12'
p80
(dp81
g5
S'--'
p82
sg7
S'--'
p83
sg9
g10
sg11
S'--'
p84
sg13
g10
sg14
S'Marquess Wilson'
p85
sg16
S'2015'
p86
sg18
S'12'
p87
sg20
S'--'
p88
sg22
S'11/26'
p89
sg24
S'11.0'
p90
sg26
S'--'
p91
sg28
S'--'
p92
sg30
S'W17-13'
p93
sg32
S'44'
p94
sg34
g35
sg36
S'@GB'
p95
sg38
S'19'
p96
sg40
g41
sg42
S'--'
p97
ssg10
(dp98
g5
S'--'
p99
sg7
S'--'
p100
sg9
g41
sg11
S'--'
p101
sg13
g10
sg14
S'Marquess Wilson'
p102
sg16
S'2015'
p103
sg18
g10
sg20
S'--'
p104
sg22
S'09/13'
p105
sg24
S'29.5'
p106
sg26
S'--'
p107
sg28
S'--'
p108
sg30
S'L23-31'
p109
sg32
S'59'
p110
sg34
S'2'
p111
sg36
S'GB'
p112
sg38
S'50'
p113
sg40
g41
sg42
S'--'
p114
ssS'3'
p115
(dp116
g5
S'--'
p117
sg7
S'--'
p118
sg9
g41
sg11
S'--'
p119
sg13
g10
sg14
S'Marquess Wilson'
p120
sg16
S'2015'
p121
sg18
g115
sg20
S'--'
p122
sg22
S'09/27'
p123
sg24
S'--'
p124
sg26
S'--'
p125
sg28
S'--'
p126
sg30
S'L0-26'
p127
sg32
g41
sg34
g41
sg36
S'@SEA'
p128
sg38
S'--'
p129
sg40
g41
sg42
S'--'
p130
ssg111
(dp131
g5
S'--'
p132
sg7
S'--'
p133
sg9
g10
sg11
S'--'
p134
sg13
g10
sg14
S'Marquess Wilson'
p135
sg16
S'2015'
p136
sg18
g111
sg20
S'--'
p137
sg22
S'09/20'
p138
sg24
S'10.0'
p139
sg26
S'--'
p140
sg28
S'--'
p141
sg30
S'L23-48'
p142
sg32
S'10'
p143
sg34
g10
sg36
S'ARI'
p144
sg38
S'10'
p145
sg40
g41
sg42
S'--'
p146
ssS'5'
p147
(dp148
g5
S'--'
p149
sg7
S'--'
p150
sg9
g10
sg11
S'--'
p151
sg13
g10
sg14
S'Marquess Wilson'
p152
sg16
S'2015'
p153
sg18
g147
sg20
S'--'
p154
sg22
S'10/11'
p155
sg24
S'14.2'
p156
sg26
S'--'
p157
sg28
S'--'
p158
sg30
S'W18-17'
p159
sg32
S'85'
p160
sg34
S'6'
p161
sg36
S'@KC'
p162
sg38
S'33'
p163
sg40
g10
sg42
S'--'
p164
ssg35
(dp165
g5
S'--'
p166
sg7
S'--'
p167
sg9
g41
sg11
S'--'
p168
sg13
g10
sg14
S'Marquess Wilson'
p169
sg16
S'2015'
p170
sg18
g35
sg20
S'--'
p171
sg22
S'10/04'
p172
sg24
S'13.3'
p173
sg26
S'--'
p174
sg28
S'--'
p175
sg30
S'W22-20'
p176
sg32
S'80'
p177
sg34
g161
sg36
S'OAK'
p178
sg38
S'35'
p179
sg40
g41
sg42
S'--'
p180
ssS'7'
p181
(dp182
g5
S''
p183
sg7
g183
sg9
g183
sg11
g183
sg13
g183
sg14
S'Marquess Wilson'
p184
sg16
S'2015'
p185
sg18
g181
sg20
g183
sg22
S'Bye'
p186
sg24
g183
sg26
g183
sg28
g183
sg30
g183
sg32
g183
sg34
g183
sg36
g183
sg38
g183
sg40
g183
sg42
g183
ssg161
(dp187
g5
S'--'
p188
sg7
S'--'
p189
sg9
g41
sg11
S'--'
p190
sg13
g10
sg14
S'Marquess Wilson'
p191
sg16
S'2015'
p192
sg18
g161
sg20
S'--'
p193
sg22
S'10/18'
p194
sg24
S'27.0'
p195
sg26
S'--'
p196
sg28
S'--'
p197
sg30
S'L34-37'
p198
sg32
S'54'
p199
sg34
g111
sg36
S'@DET'
p200
sg38
S'46'
p201
sg40
g41
sg42
S'--'
p202
ssS'9'
p203
(dp204
g5
S'--'
p205
sg7
S'--'
p206
sg9
g10
sg11
S'--'
p207
sg13
g10
sg14
S'Marquess Wilson'
p208
sg16
S'2015'
p209
sg18
g203
sg20
S'--'
p210
sg22
S'11/09'
p211
sg24
S'15.0'
p212
sg26
S'--'
p213
sg28
S'--'
p214
sg30
S'W22-19'
p215
sg32
S'15'
p216
sg34
g10
sg36
S'@SD'
p217
sg38
S'15'
p218
sg40
g41
sg42
S'--'
p219
ssS'8'
p220
(dp221
g5
S'--'
p222
sg7
S'--'
p223
sg9
g41
sg11
S'--'
p224
sg13
g10
sg14
S'Marquess Wilson'
p225
sg16
S'2015'
p226
sg18
g220
sg20
S'--'
p227
sg22
S'11/01'
p228
sg24
S'14.0'
p229
sg26
S'--'
p230
sg28
S'--'
p231
sg30
S'L20-23'
p232
sg32
S'14'
p233
sg34
g10
sg36
S'MIN'
p234
sg38
S'14'
p235
sg40
g41
sg42
S'--'
p236
sssS'2014'
p237
(dp238
g3
(dp239
g5
S'--'
p240
sg7
S'--'
p241
sg9
g41
sg11
S'--'
p242
sg13
g10
sg14
S'Marquess Wilson'
p243
sg16
S'2014'
p244
sg18
S'11'
p245
sg20
S'--'
p246
sg22
S'11/16'
p247
sg24
S'5.5'
p248
sg26
S'--'
p249
sg28
S'--'
p250
sg30
S'W21-13'
p251
sg32
S'11'
p252
sg34
g111
sg36
S'MIN'
p253
sg38
g161
sg40
g41
sg42
S'--'
p254
ssg60
(dp255
g5
S'--'
p256
sg7
S'--'
p257
sg9
g10
sg11
S'--'
p258
sg13
g10
sg14
S'Marquess Wilson'
p259
sg16
S'2014'
p260
sg18
S'13'
p261
sg20
S'--'
p262
sg22
S'11/27'
p263
sg24
S'--'
p264
sg26
S'--'
p265
sg28
S'--'
p266
sg30
S'L17-34'
p267
sg32
g41
sg34
g41
sg36
S'@DET'
p268
sg38
S'--'
p269
sg40
g41
sg42
S'--'
p270
ssg80
(dp271
g5
S'--'
p272
sg7
S'--'
p273
sg9
g10
sg11
S'--'
p274
sg13
g10
sg14
S'Marquess Wilson'
p275
sg16
S'2014'
p276
sg18
S'12'
p277
sg20
S'--'
p278
sg22
S'11/23'
p279
sg24
S'10.0'
p280
sg26
S'--'
p281
sg28
S'--'
p282
sg30
S'W21-13'
p283
sg32
S'10'
p284
sg34
g10
sg36
S'TB'
p285
sg38
S'10'
p286
sg40
g41
sg42
S'--'
p287
ssS'15'
p288
(dp289
g5
S'--'
p290
sg7
S'--'
p291
sg9
g10
sg11
S'--'
p292
sg13
g10
sg14
S'Marquess Wilson'
p293
sg16
S'2014'
p294
sg18
S'15'
p295
sg20
S'--'
p296
sg22
S'12/15'
p297
sg24
S'5.3'
p298
sg26
S'--'
p299
sg28
S'--'
p300
sg30
S'L15-31'
p301
sg32
S'16'
p302
sg34
g115
sg36
S'NO'
p303
sg38
g220
sg40
g10
sg42
S'--'
p304
ssS'14'
p305
(dp306
g5
S'--'
p307
sg7
S'--'
p308
sg9
g10
sg11
S'--'
p309
sg13
g10
sg14
S'Marquess Wilson'
p310
sg16
S'2014'
p311
sg18
S'14'
p312
sg20
S'--'
p313
sg22
S'12/04'
p314
sg24
S'9.5'
p315
sg26
S'--'
p316
sg28
S'--'
p317
sg30
S'L28-41'
p318
sg32
S'19'
p319
sg34
g111
sg36
S'DAL'
p320
sg38
S'10'
p321
sg40
g41
sg42
S'--'
p322
ssS'17'
p323
(dp324
g5
S'--'
p325
sg7
S'--'
p326
sg9
g10
sg11
S'--'
p327
sg13
g10
sg14
S'Marquess Wilson'
p328
sg16
S'2014'
p329
sg18
S'17'
p330
sg20
S'--'
p331
sg22
S'12/28'
p332
sg24
S'9.0'
p333
sg26
S'--'
p334
sg28
S'--'
p335
sg30
S'L9-13'
p336
sg32
S'18'
p337
sg34
g111
sg36
S'@MIN'
p338
sg38
S'14'
p339
sg40
g41
sg42
S'--'
p340
ssS'16'
p341
(dp342
g5
S'--'
p343
sg7
S'--'
p344
sg9
g10
sg11
S'--'
p345
sg13
g10
sg14
S'Marquess Wilson'
p346
sg16
S'2014'
p347
sg18
S'16'
p348
sg20
S'--'
p349
sg22
S'12/21'
p350
sg24
S'9.4'
p351
sg26
S'--'
p352
sg28
S'--'
p353
sg30
S'L14-20'
p354
sg32
S'66'
p355
sg34
g181
sg36
S'DET'
p356
sg38
S'17'
p357
sg40
g41
sg42
S'--'
p358
sssS'2013'
p359
(dp360
g3
(dp361
g5
S'--'
p362
sg7
S'--'
p363
sg9
g41
sg11
S'--'
p364
sg13
g10
sg14
S'Marquess Wilson'
p365
sg16
S'2013'
p366
sg18
S'11'
p367
sg20
S'--'
p368
sg22
S'11/17'
p369
sg24
S'--'
p370
sg26
S'--'
p371
sg28
S'--'
p372
sg30
S'W23-20'
p373
sg32
S'--'
p374
sg34
S'--'
p375
sg36
S'BAL'
p376
sg38
S'--'
p377
sg40
S'--'
p378
sg42
S'--'
p379
ssg44
(dp380
g5
S'--'
p381
sg7
S'--'
p382
sg9
g41
sg11
S'--'
p383
sg13
g10
sg14
S'Marquess Wilson'
p384
sg16
S'2013'
p385
sg18
S'10'
p386
sg20
S'--'
p387
sg22
S'11/10'
p388
sg24
S'--'
p389
sg26
S'--'
p390
sg28
S'--'
p391
sg30
S'L19-21'
p392
sg32
S'--'
p393
sg34
S'--'
p394
sg36
S'DET'
p395
sg38
S'--'
p396
sg40
S'--'
p397
sg42
S'--'
p398
ssg60
(dp399
g5
S'--'
p400
sg7
S'--'
p401
sg9
g41
sg11
S'--'
p402
sg13
g10
sg14
S'Marquess Wilson'
p403
sg16
S'2013'
p404
sg18
S'13'
p405
sg20
S'--'
p406
sg22
S'12/01'
p407
sg24
S'--'
p408
sg26
S'--'
p409
sg28
S'--'
p410
sg30
S'L20-23'
p411
sg32
S'--'
p412
sg34
S'--'
p413
sg36
S'@MIN'
p414
sg38
S'--'
p415
sg40
S'--'
p416
sg42
S'--'
p417
ssg80
(dp418
g5
S'--'
p419
sg7
S'--'
p420
sg9
g41
sg11
S'--'
p421
sg13
g10
sg14
S'Marquess Wilson'
p422
sg16
S'2013'
p423
sg18
S'12'
p424
sg20
S'--'
p425
sg22
S'11/24'
p426
sg24
S'--'
p427
sg26
S'--'
p428
sg28
S'--'
p429
sg30
S'L21-42'
p430
sg32
S'--'
p431
sg34
S'--'
p432
sg36
S'@STL'
p433
sg38
S'--'
p434
sg40
S'--'
p435
sg42
S'--'
p436
ssg288
(dp437
g5
S'--'
p438
sg7
S'--'
p439
sg9
g41
sg11
S'--'
p440
sg13
g41
sg14
S'Marquess Wilson'
p441
sg16
S'2013'
p442
sg18
S'15'
p443
sg20
S'--'
p444
sg22
S'12/15'
p445
sg24
S'--'
p446
sg26
S'--'
p447
sg28
S'--'
p448
sg30
S'W38-31'
p449
sg32
S'--'
p450
sg34
S'--'
p451
sg36
S'@CLE'
p452
sg38
S'--'
p453
sg40
S'--'
p454
sg42
S'--'
p455
ssg305
(dp456
g5
S'--'
p457
sg7
S'--'
p458
sg9
g41
sg11
S'--'
p459
sg13
g10
sg14
S'Marquess Wilson'
p460
sg16
S'2013'
p461
sg18
S'14'
p462
sg20
S'--'
p463
sg22
S'12/09'
p464
sg24
S'--'
p465
sg26
S'--'
p466
sg28
S'--'
p467
sg30
S'W45-28'
p468
sg32
S'--'
p469
sg34
S'--'
p470
sg36
S'DAL'
p471
sg38
S'--'
p472
sg40
S'--'
p473
sg42
S'--'
p474
ssg323
(dp475
g5
S'--'
p476
sg7
S'--'
p477
sg9
g10
sg11
S'--'
p478
sg13
g10
sg14
S'Marquess Wilson'
p479
sg16
S'2013'
p480
sg18
S'17'
p481
sg20
S'--'
p482
sg22
S'12/29'
p483
sg24
S'10.0'
p484
sg26
S'--'
p485
sg28
S'--'
p486
sg30
S'L28-33'
p487
sg32
S'10'
p488
sg34
g10
sg36
S'GB'
p489
sg38
S'10'
p490
sg40
g41
sg42
S'--'
p491
ssg341
(dp492
g5
S'--'
p493
sg7
S'--'
p494
sg9
g41
sg11
S'--'
p495
sg13
g41
sg14
S'Marquess Wilson'
p496
sg16
S'2013'
p497
sg18
S'16'
p498
sg20
S'--'
p499
sg22
S'12/22'
p500
sg24
S'--'
p501
sg26
S'--'
p502
sg28
S'--'
p503
sg30
S'L11-54'
p504
sg32
S'--'
p505
sg34
S'--'
p506
sg36
S'@PHI'
p507
sg38
S'--'
p508
sg40
S'--'
p509
sg42
S'--'
p510
ssg10
(dp511
g5
S'--'
p512
sg7
S'--'
p513
sg9
g41
sg11
S'--'
p514
sg13
g41
sg14
S'Marquess Wilson'
p515
sg16
S'2013'
p516
sg18
g10
sg20
S'--'
p517
sg22
S'09/08'
p518
sg24
S'--'
p519
sg26
S'--'
p520
sg28
S'--'
p521
sg30
S'W24-21'
p522
sg32
S'--'
p523
sg34
S'--'
p524
sg36
S'CIN'
p525
sg38
S'--'
p526
sg40
S'--'
p527
sg42
S'--'
p528
ssg115
(dp529
g5
S'--'
p530
sg7
S'--'
p531
sg9
g41
sg11
S'--'
p532
sg13
g41
sg14
S'Marquess Wilson'
p533
sg16
S'2013'
p534
sg18
g115
sg20
S'--'
p535
sg22
S'09/22'
p536
sg24
S'--'
p537
sg26
S'--'
p538
sg28
S'--'
p539
sg30
S'W40-23'
p540
sg32
S'--'
p541
sg34
S'--'
p542
sg36
S'@PIT'
p543
sg38
S'--'
p544
sg40
S'--'
p545
sg42
S'--'
p546
ssg111
(dp547
g5
S'--'
p548
sg7
S'--'
p549
sg9
g41
sg11
S'--'
p550
sg13
g41
sg14
S'Marquess Wilson'
p551
sg16
S'2013'
p552
sg18
g111
sg20
S'--'
p553
sg22
S'09/15'
p554
sg24
S'--'
p555
sg26
S'--'
p556
sg28
S'--'
p557
sg30
S'W31-30'
p558
sg32
S'--'
p559
sg34
S'--'
p560
sg36
S'MIN'
p561
sg38
S'--'
p562
sg40
S'--'
p563
sg42
S'--'
p564
ssg147
(dp565
g5
S'--'
p566
sg7
S'--'
p567
sg9
g41
sg11
S'--'
p568
sg13
g10
sg14
S'Marquess Wilson'
p569
sg16
S'2013'
p570
sg18
g147
sg20
S'--'
p571
sg22
S'10/06'
p572
sg24
S'--'
p573
sg26
S'--'
p574
sg28
S'--'
p575
sg30
S'L18-26'
p576
sg32
S'--'
p577
sg34
S'--'
p578
sg36
S'NO'
p579
sg38
S'--'
p580
sg40
S'--'
p581
sg42
S'--'
p582
ssg35
(dp583
g5
S'--'
p584
sg7
S'--'
p585
sg9
g41
sg11
S'--'
p586
sg13
g41
sg14
S'Marquess Wilson'
p587
sg16
S'2013'
p588
sg18
g35
sg20
S'--'
p589
sg22
S'09/29'
p590
sg24
S'--'
p591
sg26
S'--'
p592
sg28
S'--'
p593
sg30
S'L32-40'
p594
sg32
S'--'
p595
sg34
S'--'
p596
sg36
S'@DET'
p597
sg38
S'--'
p598
sg40
S'--'
p599
sg42
S'--'
p600
ssg181
(dp601
g5
S'--'
p602
sg7
S'--'
p603
sg9
g41
sg11
S'--'
p604
sg13
g10
sg14
S'Marquess Wilson'
p605
sg16
S'2013'
p606
sg18
g181
sg20
S'--'
p607
sg22
S'10/20'
p608
sg24
S'3.0'
p609
sg26
S'--'
p610
sg28
S'--'
p611
sg30
S'L41-45'
p612
sg32
g115
sg34
g10
sg36
S'@WAS'
p613
sg38
g115
sg40
g41
sg42
S'--'
p614
ssg161
(dp615
g5
S'--'
p616
sg7
S'--'
p617
sg9
g41
sg11
S'--'
p618
sg13
g10
sg14
S'Marquess Wilson'
p619
sg16
S'2013'
p620
sg18
g161
sg20
S'--'
p621
sg22
S'10/10'
p622
sg24
S'--'
p623
sg26
S'--'
p624
sg28
S'--'
p625
sg30
S'W27-21'
p626
sg32
S'--'
p627
sg34
S'--'
p628
sg36
S'NYG'
p629
sg38
S'--'
p630
sg40
S'--'
p631
sg42
S'--'
p632
ssg203
(dp633
g5
S'--'
p634
sg7
S'--'
p635
sg9
g41
sg11
S'--'
p636
sg13
g10
sg14
S'Marquess Wilson'
p637
sg16
S'2013'
p638
sg18
g203
sg20
S'--'
p639
sg22
S'11/04'
p640
sg24
S'--'
p641
sg26
S'--'
p642
sg28
S'--'
p643
sg30
S'W27-20'
p644
sg32
g41
sg34
g41
sg36
S'@GB'
p645
sg38
S'--'
p646
sg40
g41
sg42
S'--'
p647
ssg220
(dp648
g5
g183
sg7
g183
sg9
g183
sg11
g183
sg13
g183
sg14
S'Marquess Wilson'
p649
sg16
S'2013'
p650
sg18
g220
sg20
g183
sg22
S'Bye'
p651
sg24
g183
sg26
g183
sg28
g183
sg30
g183
sg32
g183
sg34
g183
sg36
g183
sg38
g183
sg40
g183
sg42
g183
sss.