(dp0
S'2015'
p1
(dp2
S'11'
p3
(dp4
S'RushTD'
p5
S''
p6
sS'RushYds'
p7
g6
sS'GS'
p8
g6
sS'Lost'
p9
g6
sS'G'
p10
g6
sS'Player'
p11
S'Martavis Bryant'
p12
sS'Year'
p13
S'2015'
p14
sS'WK'
p15
S'11'
p16
sS'RushAvg'
p17
g6
sS'Game Date'
p18
S'Bye'
p19
sS'RecAvg'
p20
g6
sS'FUM'
p21
g6
sS'RushAtt'
p22
g6
sS'Result'
p23
g6
sS'RecYds'
p24
g6
sS'Rec'
p25
g6
sS'Opp'
p26
g6
sS'RecLng'
p27
g6
sS'RecTD'
p28
g6
sS'RushLng'
p29
g6
ssS'10'
p30
(dp31
g5
S'--'
p32
sg7
S'--'
p33
sg8
S'0'
p34
sg9
S'1'
p35
sg10
g35
sg11
S'Martavis Bryant'
p36
sg13
S'2015'
p37
sg15
S'10'
p38
sg17
S'--'
p39
sg18
S'11/15'
p40
sg20
S'29.7'
p41
sg21
g35
sg22
S'--'
p42
sg23
S'W30-9'
p43
sg24
S'178'
p44
sg25
S'6'
p45
sg26
S'CLE'
p46
sg27
S'64'
p47
sg28
g35
sg29
S'--'
p48
ssS'13'
p49
(dp50
g5
S'--'
p51
sg7
S'--'
p52
sg8
g34
sg9
S'--'
p53
sg10
g35
sg11
S'Martavis Bryant'
p54
sg13
S'2015'
p55
sg15
S'13'
p56
sg17
S'--'
p57
sg18
S'12/06'
p58
sg20
S'28.5'
p59
sg21
S'--'
p60
sg22
S'--'
p61
sg23
S'W45-10'
p62
sg24
S'114'
p63
sg25
S'4'
p64
sg26
S'IND'
p65
sg27
S'68T'
p66
sg28
g35
sg29
S'--'
p67
ssS'12'
p68
(dp69
g5
g35
sg7
S'11'
p70
sg8
g34
sg9
S'--'
p71
sg10
g35
sg11
S'Martavis Bryant'
p72
sg13
S'2015'
p73
sg15
S'12'
p74
sg17
S'11.0'
p75
sg18
S'11/29'
p76
sg20
S'13.8'
p77
sg21
S'--'
p78
sg22
g35
sg23
S'L30-39'
p79
sg24
S'69'
p80
sg25
S'5'
p81
sg26
S'@SEA'
p82
sg27
S'40'
p83
sg28
g34
sg29
S'11T'
p84
ssS'15'
p85
(dp86
g5
S'--'
p87
sg7
S'--'
p88
sg8
g35
sg9
S'--'
p89
sg10
g35
sg11
S'Martavis Bryant'
p90
sg13
S'2015'
p91
sg15
S'15'
p92
sg17
S'--'
p93
sg18
S'12/20'
p94
sg20
S'8.7'
p95
sg21
S'--'
p96
sg22
S'--'
p97
sg23
S'W34-27'
p98
sg24
S'87'
p99
sg25
S'10'
p100
sg26
S'DEN'
p101
sg27
S'15'
p102
sg28
g34
sg29
S'--'
p103
ssS'14'
p104
(dp105
g5
g34
sg7
g35
sg8
g35
sg9
S'--'
p106
sg10
g35
sg11
S'Martavis Bryant'
p107
sg13
S'2015'
p108
sg15
S'14'
p109
sg17
S'1.0'
p110
sg18
S'12/13'
p111
sg20
S'7.0'
p112
sg21
S'--'
p113
sg22
g35
sg23
S'W33-20'
p114
sg24
S'49'
p115
sg25
S'7'
p116
sg26
S'@CIN'
p117
sg27
S'18'
p118
sg28
g34
sg29
g35
ssS'17'
p119
(dp120
g5
S'--'
p121
sg7
S'--'
p122
sg8
g34
sg9
S'--'
p123
sg10
g35
sg11
S'Martavis Bryant'
p124
sg13
S'2015'
p125
sg15
S'17'
p126
sg17
S'--'
p127
sg18
S'01/03'
p128
sg20
S'0.0'
p129
sg21
S'--'
p130
sg22
S'--'
p131
sg23
S'W28-12'
p132
sg24
g34
sg25
g35
sg26
S'@CLE'
p133
sg27
g34
sg28
g34
sg29
S'--'
p134
ssS'16'
p135
(dp136
g5
g34
sg7
g64
sg8
g35
sg9
S'--'
p137
sg10
g35
sg11
S'Martavis Bryant'
p138
sg13
S'2015'
p139
sg15
S'16'
p140
sg17
S'4.0'
p141
sg18
S'12/27'
p142
sg20
S'6.0'
p143
sg21
S'--'
p144
sg22
g35
sg23
S'L17-20'
p145
sg24
g45
sg25
g35
sg26
S'@BAL'
p146
sg27
g45
sg28
g34
sg29
g64
ssg116
(dp147
g5
g34
sg7
S'13'
p148
sg8
g35
sg9
S'--'
p149
sg10
g35
sg11
S'Martavis Bryant'
p150
sg13
S'2015'
p151
sg15
g116
sg17
S'13.0'
p152
sg18
S'10/25'
p153
sg20
S'15.0'
p154
sg21
S'--'
p155
sg22
g35
sg23
S'L13-23'
p156
sg24
S'45'
p157
sg25
S'3'
p158
sg26
S'@KC'
p159
sg27
S'19T'
p160
sg28
g35
sg29
S'13'
p161
ssg45
(dp162
g5
g34
sg7
S'8'
p163
sg8
g34
sg9
S'--'
p164
sg10
g35
sg11
S'Martavis Bryant'
p165
sg13
S'2015'
p166
sg15
g45
sg17
S'8.0'
p167
sg18
S'10/18'
p168
sg20
S'22.8'
p169
sg21
S'--'
p170
sg22
g35
sg23
S'W25-13'
p171
sg24
S'137'
p172
sg25
g45
sg26
S'ARI'
p173
sg27
S'88T'
p174
sg28
S'2'
p175
sg29
g163
ssS'9'
p176
(dp177
g5
S'--'
p178
sg7
S'--'
p179
sg8
g35
sg9
S'--'
p180
sg10
g35
sg11
S'Martavis Bryant'
p181
sg13
S'2015'
p182
sg15
g176
sg17
S'--'
p183
sg18
S'11/08'
p184
sg20
S'10.3'
p185
sg21
S'--'
p186
sg22
S'--'
p187
sg23
S'W38-35'
p188
sg24
S'31'
p189
sg25
g158
sg26
S'OAK'
p190
sg27
S'15'
p191
sg28
g35
sg29
S'--'
p192
ssg163
(dp193
g5
S'--'
p194
sg7
S'--'
p195
sg8
g34
sg9
S'--'
p196
sg10
g35
sg11
S'Martavis Bryant'
p197
sg13
S'2015'
p198
sg15
g163
sg17
S'--'
p199
sg18
S'11/01'
p200
sg20
S'12.3'
p201
sg21
S'--'
p202
sg22
S'--'
p203
sg23
S'L10-16'
p204
sg24
S'49'
p205
sg25
g64
sg26
S'CIN'
p206
sg27
S'21'
p207
sg28
g34
sg29
S'--'
p208
sssS'2014'
p209
(dp210
g3
(dp211
g5
S'--'
p212
sg7
S'--'
p213
sg8
g34
sg9
S'--'
p214
sg10
g35
sg11
S'Martavis Bryant'
p215
sg13
S'2014'
p216
sg15
S'11'
p217
sg17
S'--'
p218
sg18
S'11/17'
p219
sg20
S'5.5'
p220
sg21
S'--'
p221
sg22
S'--'
p222
sg23
S'W27-24'
p223
sg24
S'11'
p224
sg25
g175
sg26
S'@TEN'
p225
sg27
g163
sg28
g34
sg29
S'--'
p226
ssg30
(dp227
g5
S'--'
p228
sg7
S'--'
p229
sg8
g35
sg9
S'--'
p230
sg10
g35
sg11
S'Martavis Bryant'
p231
sg13
S'2014'
p232
sg15
S'10'
p233
sg17
S'--'
p234
sg18
S'11/09'
p235
sg20
S'35.8'
p236
sg21
S'--'
p237
sg22
S'--'
p238
sg23
S'L13-20'
p239
sg24
S'143'
p240
sg25
g64
sg26
S'@NYJ'
p241
sg27
S'80T'
p242
sg28
g35
sg29
S'--'
p243
ssg49
(dp244
g5
S'--'
p245
sg7
S'--'
p246
sg8
g34
sg9
S'--'
p247
sg10
g35
sg11
S'Martavis Bryant'
p248
sg13
S'2014'
p249
sg15
S'13'
p250
sg17
S'--'
p251
sg18
S'11/30'
p252
sg20
S'23.0'
p253
sg21
S'--'
p254
sg22
S'--'
p255
sg23
S'L32-35'
p256
sg24
S'23'
p257
sg25
g35
sg26
S'NO'
p258
sg27
S'23'
p259
sg28
g34
sg29
S'--'
p260
ssg68
(dp261
g5
g6
sg7
g6
sg8
g6
sg9
g6
sg10
g6
sg11
S'Martavis Bryant'
p262
sg13
S'2014'
p263
sg15
S'12'
p264
sg17
g6
sg18
S'Bye'
p265
sg20
g6
sg21
g6
sg22
g6
sg23
g6
sg24
g6
sg25
g6
sg26
g6
sg27
g6
sg28
g6
sg29
g6
ssg85
(dp266
g5
S'--'
p267
sg7
S'--'
p268
sg8
g34
sg9
S'--'
p269
sg10
g35
sg11
S'Martavis Bryant'
p270
sg13
S'2014'
p271
sg15
S'15'
p272
sg17
S'--'
p273
sg18
S'12/14'
p274
sg20
S'10.3'
p275
sg21
S'--'
p276
sg22
S'--'
p277
sg23
S'W27-20'
p278
sg24
S'31'
p279
sg25
g158
sg26
S'@ATL'
p280
sg27
S'14'
p281
sg28
g34
sg29
S'--'
p282
ssg104
(dp283
g5
S'--'
p284
sg7
S'--'
p285
sg8
g34
sg9
S'--'
p286
sg10
g35
sg11
S'Martavis Bryant'
p287
sg13
S'2014'
p288
sg15
S'14'
p289
sg17
S'--'
p290
sg18
S'12/07'
p291
sg20
S'27.3'
p292
sg21
S'--'
p293
sg22
S'--'
p294
sg23
S'W42-21'
p295
sg24
S'109'
p296
sg25
g64
sg26
S'@CIN'
p297
sg27
S'94T'
p298
sg28
g35
sg29
S'--'
p299
ssg119
(dp300
g5
S'--'
p301
sg7
S'--'
p302
sg8
g35
sg9
S'--'
p303
sg10
g35
sg11
S'Martavis Bryant'
p304
sg13
S'2014'
p305
sg15
S'17'
p306
sg17
S'--'
p307
sg18
S'12/28'
p308
sg20
S'21.0'
p309
sg21
S'--'
p310
sg22
S'--'
p311
sg23
S'W27-17'
p312
sg24
S'21'
p313
sg25
g35
sg26
S'CIN'
p314
sg27
S'21T'
p315
sg28
g35
sg29
S'--'
p316
ssg135
(dp317
g5
g34
sg7
g176
sg8
g34
sg9
S'--'
p318
sg10
g35
sg11
S'Martavis Bryant'
p319
sg13
S'2014'
p320
sg15
S'16'
p321
sg17
S'4.5'
p322
sg18
S'12/21'
p323
sg20
S'44.0'
p324
sg21
S'--'
p325
sg22
g175
sg23
S'W20-12'
p326
sg24
S'44'
p327
sg25
g35
sg26
S'KC'
p328
sg27
S'44'
p329
sg28
g34
sg29
g176
ssg35
(dp330
g5
S'--'
p331
sg7
S'--'
p332
sg8
g34
sg9
S'--'
p333
sg10
g34
sg11
S'Martavis Bryant'
p334
sg13
S'2014'
p335
sg15
g35
sg17
S'--'
p336
sg18
S'09/07'
p337
sg20
S'--'
p338
sg21
S'--'
p339
sg22
S'--'
p340
sg23
S'W30-27'
p341
sg24
S'--'
p342
sg25
S'--'
p343
sg26
S'CLE'
p344
sg27
S'--'
p345
sg28
S'--'
p346
sg29
S'--'
p347
ssg158
(dp348
g5
S'--'
p349
sg7
S'--'
p350
sg8
g34
sg9
S'--'
p351
sg10
g34
sg11
S'Martavis Bryant'
p352
sg13
S'2014'
p353
sg15
g158
sg17
S'--'
p354
sg18
S'09/21'
p355
sg20
S'--'
p356
sg21
S'--'
p357
sg22
S'--'
p358
sg23
S'W37-19'
p359
sg24
S'--'
p360
sg25
S'--'
p361
sg26
S'@CAR'
p362
sg27
S'--'
p363
sg28
S'--'
p364
sg29
S'--'
p365
ssg175
(dp366
g5
S'--'
p367
sg7
S'--'
p368
sg8
g34
sg9
S'--'
p369
sg10
g34
sg11
S'Martavis Bryant'
p370
sg13
S'2014'
p371
sg15
g175
sg17
S'--'
p372
sg18
S'09/11'
p373
sg20
S'--'
p374
sg21
S'--'
p375
sg22
S'--'
p376
sg23
S'L6-26'
p377
sg24
S'--'
p378
sg25
S'--'
p379
sg26
S'@BAL'
p380
sg27
S'--'
p381
sg28
S'--'
p382
sg29
S'--'
p383
ssg81
(dp384
g5
S'--'
p385
sg7
S'--'
p386
sg8
g34
sg9
S'--'
p387
sg10
g34
sg11
S'Martavis Bryant'
p388
sg13
S'2014'
p389
sg15
g81
sg17
S'--'
p390
sg18
S'10/05'
p391
sg20
S'--'
p392
sg21
S'--'
p393
sg22
S'--'
p394
sg23
S'W17-9'
p395
sg24
S'--'
p396
sg25
S'--'
p397
sg26
S'@JAC'
p398
sg27
S'--'
p399
sg28
S'--'
p400
sg29
S'--'
p401
ssg64
(dp402
g5
S'--'
p403
sg7
S'--'
p404
sg8
g34
sg9
S'--'
p405
sg10
g34
sg11
S'Martavis Bryant'
p406
sg13
S'2014'
p407
sg15
g64
sg17
S'--'
p408
sg18
S'09/28'
p409
sg20
S'--'
p410
sg21
S'--'
p411
sg22
S'--'
p412
sg23
S'L24-27'
p413
sg24
S'--'
p414
sg25
S'--'
p415
sg26
S'TB'
p416
sg27
S'--'
p417
sg28
S'--'
p418
sg29
S'--'
p419
ssg116
(dp420
g5
S'--'
p421
sg7
S'--'
p422
sg8
g34
sg9
S'--'
p423
sg10
g35
sg11
S'Martavis Bryant'
p424
sg13
S'2014'
p425
sg15
g116
sg17
S'--'
p426
sg18
S'10/20'
p427
sg20
S'20.0'
p428
sg21
S'--'
p429
sg22
S'--'
p430
sg23
S'W30-23'
p431
sg24
S'40'
p432
sg25
g175
sg26
S'HOU'
p433
sg27
S'35T'
p434
sg28
g35
sg29
S'--'
p435
ssg45
(dp436
g5
S'--'
p437
sg7
S'--'
p438
sg8
g34
sg9
S'--'
p439
sg10
g34
sg11
S'Martavis Bryant'
p440
sg13
S'2014'
p441
sg15
g45
sg17
S'--'
p442
sg18
S'10/12'
p443
sg20
S'--'
p444
sg21
S'--'
p445
sg22
S'--'
p446
sg23
S'L10-31'
p447
sg24
S'--'
p448
sg25
S'--'
p449
sg26
S'@CLE'
p450
sg27
S'--'
p451
sg28
S'--'
p452
sg29
S'--'
p453
ssg176
(dp454
g5
g34
sg7
g158
sg8
g35
sg9
S'--'
p455
sg10
g35
sg11
S'Martavis Bryant'
p456
sg13
S'2014'
p457
sg15
g176
sg17
S'3.0'
p458
sg18
S'11/02'
p459
sg20
S'14.7'
p460
sg21
S'--'
p461
sg22
g35
sg23
S'W43-23'
p462
sg24
S'44'
p463
sg25
g158
sg26
S'BAL'
p464
sg27
S'19T'
p465
sg28
g175
sg29
g158
ssg163
(dp466
g5
S'--'
p467
sg7
S'--'
p468
sg8
g34
sg9
S'--'
p469
sg10
g35
sg11
S'Martavis Bryant'
p470
sg13
S'2014'
p471
sg15
g163
sg17
S'--'
p472
sg18
S'10/26'
p473
sg20
S'16.6'
p474
sg21
S'--'
p475
sg22
S'--'
p476
sg23
S'W51-34'
p477
sg24
S'83'
p478
sg25
g81
sg26
S'IND'
p479
sg27
S'52'
p480
sg28
g175
sg29
S'--'
p481
sss.