(dp0
S'2015'
p1
(dp2
S'11'
p3
(dp4
S'RushTD'
p5
S'--'
p6
sS'RushYds'
p7
S'--'
p8
sS'GS'
p9
S'0'
p10
sS'Lost'
p11
S'--'
p12
sS'G'
p13
g10
sS'Player'
p14
S'Matt Hazel'
p15
sS'Year'
p16
S'2015'
p17
sS'WK'
p18
S'11'
p19
sS'RushAvg'
p20
S'--'
p21
sS'Game Date'
p22
S'11/22'
p23
sS'RecAvg'
p24
S'--'
p25
sS'FUM'
p26
S'--'
p27
sS'RushAtt'
p28
S'--'
p29
sS'Result'
p30
S'L14-24'
p31
sS'RecYds'
p32
S'--'
p33
sS'Rec'
p34
S'--'
p35
sS'Opp'
p36
S'DAL'
p37
sS'RecLng'
p38
S'--'
p39
sS'RecTD'
p40
S'--'
p41
sS'RushLng'
p42
S'--'
p43
ssS'10'
p44
(dp45
g5
S'--'
p46
sg7
S'--'
p47
sg9
g10
sg11
S'--'
p48
sg13
g10
sg14
S'Matt Hazel'
p49
sg16
S'2015'
p50
sg18
S'10'
p51
sg20
S'--'
p52
sg22
S'11/15'
p53
sg24
S'--'
p54
sg26
S'--'
p55
sg28
S'--'
p56
sg30
S'W20-19'
p57
sg32
S'--'
p58
sg34
S'--'
p59
sg36
S'@PHI'
p60
sg38
S'--'
p61
sg40
S'--'
p62
sg42
S'--'
p63
ssS'13'
p64
(dp65
g5
S'--'
p66
sg7
S'--'
p67
sg9
g10
sg11
S'--'
p68
sg13
S'1'
p69
sg14
S'Matt Hazel'
p70
sg16
S'2015'
p71
sg18
S'13'
p72
sg20
S'--'
p73
sg22
S'12/06'
p74
sg24
S'--'
p75
sg26
S'--'
p76
sg28
S'--'
p77
sg30
S'W15-13'
p78
sg32
S'--'
p79
sg34
S'--'
p80
sg36
S'BAL'
p81
sg38
S'--'
p82
sg40
S'--'
p83
sg42
S'--'
p84
ssS'12'
p85
(dp86
g5
S'--'
p87
sg7
S'--'
p88
sg9
g10
sg11
S'--'
p89
sg13
g10
sg14
S'Matt Hazel'
p90
sg16
S'2015'
p91
sg18
S'12'
p92
sg20
S'--'
p93
sg22
S'11/29'
p94
sg24
S'--'
p95
sg26
S'--'
p96
sg28
S'--'
p97
sg30
S'L20-38'
p98
sg32
S'--'
p99
sg34
S'--'
p100
sg36
S'@NYJ'
p101
sg38
S'--'
p102
sg40
S'--'
p103
sg42
S'--'
p104
ssS'15'
p105
(dp106
g5
S'--'
p107
sg7
S'--'
p108
sg9
g69
sg11
S'--'
p109
sg13
g69
sg14
S'Matt Hazel'
p110
sg16
S'2015'
p111
sg18
S'15'
p112
sg20
S'--'
p113
sg22
S'12/20'
p114
sg24
S'--'
p115
sg26
S'--'
p116
sg28
S'--'
p117
sg30
S'L14-30'
p118
sg32
S'--'
p119
sg34
S'--'
p120
sg36
S'@SD'
p121
sg38
S'--'
p122
sg40
S'--'
p123
sg42
S'--'
p124
ssS'14'
p125
(dp126
g5
S'--'
p127
sg7
S'--'
p128
sg9
g10
sg11
S'--'
p129
sg13
g69
sg14
S'Matt Hazel'
p130
sg16
S'2015'
p131
sg18
S'14'
p132
sg20
S'--'
p133
sg22
S'12/14'
p134
sg24
S'--'
p135
sg26
S'--'
p136
sg28
S'--'
p137
sg30
S'L24-31'
p138
sg32
S'--'
p139
sg34
S'--'
p140
sg36
S'NYG'
p141
sg38
S'--'
p142
sg40
S'--'
p143
sg42
S'--'
p144
ssS'17'
p145
(dp146
g5
S'--'
p147
sg7
S'--'
p148
sg9
g10
sg11
S'--'
p149
sg13
g69
sg14
S'Matt Hazel'
p150
sg16
S'2015'
p151
sg18
S'17'
p152
sg20
S'--'
p153
sg22
S'01/03'
p154
sg24
S'--'
p155
sg26
S'--'
p156
sg28
S'--'
p157
sg30
S'W20-10'
p158
sg32
S'--'
p159
sg34
S'--'
p160
sg36
S'NE'
p161
sg38
S'--'
p162
sg40
S'--'
p163
sg42
S'--'
p164
ssS'16'
p165
(dp166
g5
S'--'
p167
sg7
S'--'
p168
sg9
g10
sg11
S'--'
p169
sg13
g69
sg14
S'Matt Hazel'
p170
sg16
S'2015'
p171
sg18
S'16'
p172
sg20
S'--'
p173
sg22
S'12/27'
p174
sg24
S'--'
p175
sg26
S'--'
p176
sg28
S'--'
p177
sg30
S'L12-18'
p178
sg32
S'--'
p179
sg34
S'--'
p180
sg36
S'IND'
p181
sg38
S'--'
p182
sg40
S'--'
p183
sg42
S'--'
p184
ssg69
(dp185
g5
S'--'
p186
sg7
S'--'
p187
sg9
g10
sg11
S'--'
p188
sg13
g10
sg14
S'Matt Hazel'
p189
sg16
S'2015'
p190
sg18
g69
sg20
S'--'
p191
sg22
S'09/13'
p192
sg24
S'--'
p193
sg26
S'--'
p194
sg28
S'--'
p195
sg30
S'W17-10'
p196
sg32
S'--'
p197
sg34
S'--'
p198
sg36
S'@WAS'
p199
sg38
S'--'
p200
sg40
S'--'
p201
sg42
S'--'
p202
ssS'3'
p203
(dp204
g5
S'--'
p205
sg7
S'--'
p206
sg9
g10
sg11
S'--'
p207
sg13
g10
sg14
S'Matt Hazel'
p208
sg16
S'2015'
p209
sg18
g203
sg20
S'--'
p210
sg22
S'09/27'
p211
sg24
S'--'
p212
sg26
S'--'
p213
sg28
S'--'
p214
sg30
S'L14-41'
p215
sg32
S'--'
p216
sg34
S'--'
p217
sg36
S'BUF'
p218
sg38
S'--'
p219
sg40
S'--'
p220
sg42
S'--'
p221
ssS'2'
p222
(dp223
g5
S'--'
p224
sg7
S'--'
p225
sg9
g10
sg11
S'--'
p226
sg13
g10
sg14
S'Matt Hazel'
p227
sg16
S'2015'
p228
sg18
g222
sg20
S'--'
p229
sg22
S'09/20'
p230
sg24
S'--'
p231
sg26
S'--'
p232
sg28
S'--'
p233
sg30
S'L20-23'
p234
sg32
S'--'
p235
sg34
S'--'
p236
sg36
S'@JAC'
p237
sg38
S'--'
p238
sg40
S'--'
p239
sg42
S'--'
p240
ssS'5'
p241
(dp242
g5
S''
p243
sg7
g243
sg9
g243
sg11
g243
sg13
g243
sg14
S'Matt Hazel'
p244
sg16
S'2015'
p245
sg18
g241
sg20
g243
sg22
S'Bye'
p246
sg24
g243
sg26
g243
sg28
g243
sg30
g243
sg32
g243
sg34
g243
sg36
g243
sg38
g243
sg40
g243
sg42
g243
ssS'4'
p247
(dp248
g5
S'--'
p249
sg7
S'--'
p250
sg9
g10
sg11
S'--'
p251
sg13
g10
sg14
S'Matt Hazel'
p252
sg16
S'2015'
p253
sg18
g247
sg20
S'--'
p254
sg22
S'10/04'
p255
sg24
S'--'
p256
sg26
S'--'
p257
sg28
S'--'
p258
sg30
S'L14-27'
p259
sg32
S'--'
p260
sg34
S'--'
p261
sg36
S'NYJ'
p262
sg38
S'--'
p263
sg40
S'--'
p264
sg42
S'--'
p265
ssS'7'
p266
(dp267
g5
S'--'
p268
sg7
S'--'
p269
sg9
g10
sg11
S'--'
p270
sg13
g10
sg14
S'Matt Hazel'
p271
sg16
S'2015'
p272
sg18
g266
sg20
S'--'
p273
sg22
S'10/25'
p274
sg24
S'--'
p275
sg26
S'--'
p276
sg28
S'--'
p277
sg30
S'W44-26'
p278
sg32
S'--'
p279
sg34
S'--'
p280
sg36
S'HOU'
p281
sg38
S'--'
p282
sg40
S'--'
p283
sg42
S'--'
p284
ssS'6'
p285
(dp286
g5
S'--'
p287
sg7
S'--'
p288
sg9
g10
sg11
S'--'
p289
sg13
g10
sg14
S'Matt Hazel'
p290
sg16
S'2015'
p291
sg18
g285
sg20
S'--'
p292
sg22
S'10/18'
p293
sg24
S'--'
p294
sg26
S'--'
p295
sg28
S'--'
p296
sg30
S'W38-10'
p297
sg32
S'--'
p298
sg34
S'--'
p299
sg36
S'@TEN'
p300
sg38
S'--'
p301
sg40
S'--'
p302
sg42
S'--'
p303
ssS'9'
p304
(dp305
g5
S'--'
p306
sg7
S'--'
p307
sg9
g10
sg11
S'--'
p308
sg13
g10
sg14
S'Matt Hazel'
p309
sg16
S'2015'
p310
sg18
g304
sg20
S'--'
p311
sg22
S'11/08'
p312
sg24
S'--'
p313
sg26
S'--'
p314
sg28
S'--'
p315
sg30
S'L17-33'
p316
sg32
S'--'
p317
sg34
S'--'
p318
sg36
S'@BUF'
p319
sg38
S'--'
p320
sg40
S'--'
p321
sg42
S'--'
p322
ssS'8'
p323
(dp324
g5
S'--'
p325
sg7
S'--'
p326
sg9
g10
sg11
S'--'
p327
sg13
g10
sg14
S'Matt Hazel'
p328
sg16
S'2015'
p329
sg18
g323
sg20
S'--'
p330
sg22
S'10/29'
p331
sg24
S'--'
p332
sg26
S'--'
p333
sg28
S'--'
p334
sg30
S'L7-36'
p335
sg32
S'--'
p336
sg34
S'--'
p337
sg36
S'@NE'
p338
sg38
S'--'
p339
sg40
S'--'
p340
sg42
S'--'
p341
sssS'2014'
p342
(dp343
g145
(dp344
g5
S'--'
p345
sg7
S'--'
p346
sg9
g10
sg11
S'--'
p347
sg13
g10
sg14
S'Matt Hazel'
p348
sg16
S'2014'
p349
sg18
S'17'
p350
sg20
S'--'
p351
sg22
S'12/28'
p352
sg24
S'--'
p353
sg26
S'--'
p354
sg28
S'--'
p355
sg30
S'L24-37'
p356
sg32
S'--'
p357
sg34
S'--'
p358
sg36
S'NYJ'
p359
sg38
S'--'
p360
sg40
S'--'
p361
sg42
S'--'
p362
ssg165
(dp363
g5
S'--'
p364
sg7
S'--'
p365
sg9
g10
sg11
S'--'
p366
sg13
g10
sg14
S'Matt Hazel'
p367
sg16
S'2014'
p368
sg18
S'16'
p369
sg20
S'--'
p370
sg22
S'12/21'
p371
sg24
S'--'
p372
sg26
S'--'
p373
sg28
S'--'
p374
sg30
S'W37-35'
p375
sg32
S'--'
p376
sg34
S'--'
p377
sg36
S'MIN'
p378
sg38
S'--'
p379
sg40
S'--'
p380
sg42
S'--'
p381
sss.