(dp0
S'2015'
p1
(dp2
S'1'
p3
(dp4
S'RushTD'
p5
S'--'
p6
sS'RushYds'
p7
S'--'
p8
sS'GS'
p9
S'0'
p10
sS'Lost'
p11
S'--'
p12
sS'G'
p13
g3
sS'Player'
p14
S'Michael Campanaro'
p15
sS'Year'
p16
S'2015'
p17
sS'WK'
p18
g3
sS'RushAvg'
p19
S'--'
p20
sS'Game Date'
p21
S'09/13'
p22
sS'RecAvg'
p23
S'8.0'
p24
sS'FUM'
p25
S'--'
p26
sS'RushAtt'
p27
S'--'
p28
sS'Result'
p29
S'L13-19'
p30
sS'RecYds'
p31
S'8'
p32
sS'Rec'
p33
g3
sS'Opp'
p34
S'@DEN'
p35
sS'RecLng'
p36
g32
sS'RecTD'
p37
g10
sS'RushLng'
p38
S'--'
p39
ssS'3'
p40
(dp41
g5
g10
sg7
g32
sg9
g10
sg11
S'--'
p42
sg13
g3
sg14
S'Michael Campanaro'
p43
sg16
S'2015'
p44
sg18
g40
sg19
S'8.0'
p45
sg21
S'09/27'
p46
sg23
S'5.5'
p47
sg25
S'--'
p48
sg27
g3
sg29
S'L24-28'
p49
sg31
S'11'
p50
sg33
S'2'
p51
sg34
S'CIN'
p52
sg36
S'11'
p53
sg37
g10
sg38
g32
ssg51
(dp54
g5
S'--'
p55
sg7
S'--'
p56
sg9
g10
sg11
S'--'
p57
sg13
g3
sg14
S'Michael Campanaro'
p58
sg16
S'2015'
p59
sg18
g51
sg19
S'--'
p60
sg21
S'09/20'
p61
sg23
S'--'
p62
sg25
S'--'
p63
sg27
S'--'
p64
sg29
S'L33-37'
p65
sg31
S'--'
p66
sg33
S'--'
p67
sg34
S'@OAK'
p68
sg36
S'--'
p69
sg37
S'--'
p70
sg38
S'--'
p71
ssS'4'
p72
(dp73
g5
g3
sg7
S'9'
p74
sg9
g10
sg11
S'--'
p75
sg13
g3
sg14
S'Michael Campanaro'
p76
sg16
S'2015'
p77
sg18
g72
sg19
S'9.0'
p78
sg21
S'10/01'
p79
sg23
S'8.0'
p80
sg25
S'--'
p81
sg27
g3
sg29
S'W23-20'
p82
sg31
S'16'
p83
sg33
g51
sg34
S'@PIT'
p84
sg36
g74
sg37
g10
sg38
S'9T'
p85
sssS'2014'
p86
(dp87
S'11'
p88
(dp89
g5
S''
p90
sg7
g90
sg9
g90
sg11
g90
sg13
g90
sg14
S'Michael Campanaro'
p91
sg16
S'2014'
p92
sg18
S'11'
p93
sg19
g90
sg21
S'Bye'
p94
sg23
g90
sg25
g90
sg27
g90
sg29
g90
sg31
g90
sg33
g90
sg34
g90
sg36
g90
sg37
g90
sg38
g90
ssS'10'
p95
(dp96
g5
S'--'
p97
sg7
S'--'
p98
sg9
g10
sg11
S'--'
p99
sg13
g10
sg14
S'Michael Campanaro'
p100
sg16
S'2014'
p101
sg18
S'10'
p102
sg19
S'--'
p103
sg21
S'11/09'
p104
sg23
S'--'
p105
sg25
S'--'
p106
sg27
S'--'
p107
sg29
S'W21-7'
p108
sg31
S'--'
p109
sg33
S'--'
p110
sg34
S'TEN'
p111
sg36
S'--'
p112
sg37
S'--'
p113
sg38
S'--'
p114
ssS'13'
p115
(dp116
g5
S'--'
p117
sg7
S'--'
p118
sg9
g10
sg11
S'--'
p119
sg13
g10
sg14
S'Michael Campanaro'
p120
sg16
S'2014'
p121
sg18
S'13'
p122
sg19
S'--'
p123
sg21
S'11/30'
p124
sg23
S'--'
p125
sg25
S'--'
p126
sg27
S'--'
p127
sg29
S'L33-34'
p128
sg31
S'--'
p129
sg33
S'--'
p130
sg34
S'SD'
p131
sg36
S'--'
p132
sg37
S'--'
p133
sg38
S'--'
p134
ssS'12'
p135
(dp136
g5
S'--'
p137
sg7
S'--'
p138
sg9
g10
sg11
S'--'
p139
sg13
g10
sg14
S'Michael Campanaro'
p140
sg16
S'2014'
p141
sg18
S'12'
p142
sg19
S'--'
p143
sg21
S'11/24'
p144
sg23
S'--'
p145
sg25
S'--'
p146
sg27
S'--'
p147
sg29
S'W34-27'
p148
sg31
S'--'
p149
sg33
S'--'
p150
sg34
S'@NO'
p151
sg36
S'--'
p152
sg37
S'--'
p153
sg38
S'--'
p154
ssS'15'
p155
(dp156
g5
S'--'
p157
sg7
S'--'
p158
sg9
g10
sg11
S'--'
p159
sg13
g10
sg14
S'Michael Campanaro'
p160
sg16
S'2014'
p161
sg18
S'15'
p162
sg19
S'--'
p163
sg21
S'12/14'
p164
sg23
S'--'
p165
sg25
S'--'
p166
sg27
S'--'
p167
sg29
S'W20-12'
p168
sg31
S'--'
p169
sg33
S'--'
p170
sg34
S'JAC'
p171
sg36
S'--'
p172
sg37
S'--'
p173
sg38
S'--'
p174
ssS'14'
p175
(dp176
g5
S'--'
p177
sg7
S'--'
p178
sg9
g10
sg11
S'--'
p179
sg13
g10
sg14
S'Michael Campanaro'
p180
sg16
S'2014'
p181
sg18
S'14'
p182
sg19
S'--'
p183
sg21
S'12/07'
p184
sg23
S'--'
p185
sg25
S'--'
p186
sg27
S'--'
p187
sg29
S'W28-13'
p188
sg31
S'--'
p189
sg33
S'--'
p190
sg34
S'@MIA'
p191
sg36
S'--'
p192
sg37
S'--'
p193
sg38
S'--'
p194
ssS'17'
p195
(dp196
g5
S'--'
p197
sg7
S'--'
p198
sg9
g10
sg11
S'--'
p199
sg13
g3
sg14
S'Michael Campanaro'
p200
sg16
S'2014'
p201
sg18
S'17'
p202
sg19
S'--'
p203
sg21
S'12/28'
p204
sg23
S'17.0'
p205
sg25
S'--'
p206
sg27
S'--'
p207
sg29
S'W20-10'
p208
sg31
S'17'
p209
sg33
g3
sg34
S'CLE'
p210
sg36
S'17'
p211
sg37
g10
sg38
S'--'
p212
ssS'16'
p213
(dp214
g5
S'--'
p215
sg7
S'--'
p216
sg9
g10
sg11
S'--'
p217
sg13
g10
sg14
S'Michael Campanaro'
p218
sg16
S'2014'
p219
sg18
S'16'
p220
sg19
S'--'
p221
sg21
S'12/21'
p222
sg23
S'--'
p223
sg25
S'--'
p224
sg27
S'--'
p225
sg29
S'L13-25'
p226
sg31
S'--'
p227
sg33
S'--'
p228
sg34
S'@HOU'
p229
sg36
S'--'
p230
sg37
S'--'
p231
sg38
S'--'
p232
ssg3
(dp233
g5
S'--'
p234
sg7
S'--'
p235
sg9
g10
sg11
S'--'
p236
sg13
g10
sg14
S'Michael Campanaro'
p237
sg16
S'2014'
p238
sg18
g3
sg19
S'--'
p239
sg21
S'09/07'
p240
sg23
S'--'
p241
sg25
S'--'
p242
sg27
S'--'
p243
sg29
S'L16-23'
p244
sg31
S'--'
p245
sg33
S'--'
p246
sg34
S'CIN'
p247
sg36
S'--'
p248
sg37
S'--'
p249
sg38
S'--'
p250
ssg40
(dp251
g5
S'--'
p252
sg7
S'--'
p253
sg9
g10
sg11
S'--'
p254
sg13
g10
sg14
S'Michael Campanaro'
p255
sg16
S'2014'
p256
sg18
g40
sg19
S'--'
p257
sg21
S'09/21'
p258
sg23
S'--'
p259
sg25
S'--'
p260
sg27
S'--'
p261
sg29
S'W23-21'
p262
sg31
S'--'
p263
sg33
S'--'
p264
sg34
S'@CLE'
p265
sg36
S'--'
p266
sg37
S'--'
p267
sg38
S'--'
p268
ssg51
(dp269
g5
S'--'
p270
sg7
S'--'
p271
sg9
g10
sg11
S'--'
p272
sg13
g10
sg14
S'Michael Campanaro'
p273
sg16
S'2014'
p274
sg18
g51
sg19
S'--'
p275
sg21
S'09/11'
p276
sg23
S'--'
p277
sg25
S'--'
p278
sg27
S'--'
p279
sg29
S'W26-6'
p280
sg31
S'--'
p281
sg33
S'--'
p282
sg34
S'PIT'
p283
sg36
S'--'
p284
sg37
S'--'
p285
sg38
S'--'
p286
ssS'5'
p287
(dp288
g5
S'--'
p289
sg7
S'--'
p290
sg9
g10
sg11
S'--'
p291
sg13
g10
sg14
S'Michael Campanaro'
p292
sg16
S'2014'
p293
sg18
g287
sg19
S'--'
p294
sg21
S'10/05'
p295
sg23
S'--'
p296
sg25
S'--'
p297
sg27
S'--'
p298
sg29
S'L13-20'
p299
sg31
S'--'
p300
sg33
S'--'
p301
sg34
S'@IND'
p302
sg36
S'--'
p303
sg37
S'--'
p304
sg38
S'--'
p305
ssg72
(dp306
g5
S'--'
p307
sg7
S'--'
p308
sg9
g10
sg11
S'--'
p309
sg13
g10
sg14
S'Michael Campanaro'
p310
sg16
S'2014'
p311
sg18
g72
sg19
S'--'
p312
sg21
S'09/28'
p313
sg23
S'--'
p314
sg25
S'--'
p315
sg27
S'--'
p316
sg29
S'W38-10'
p317
sg31
S'--'
p318
sg33
S'--'
p319
sg34
S'CAR'
p320
sg36
S'--'
p321
sg37
S'--'
p322
sg38
S'--'
p323
ssS'7'
p324
(dp325
g5
S'--'
p326
sg7
S'--'
p327
sg9
g10
sg11
S'--'
p328
sg13
g3
sg14
S'Michael Campanaro'
p329
sg16
S'2014'
p330
sg18
g324
sg19
S'--'
p331
sg21
S'10/19'
p332
sg23
S'17.0'
p333
sg25
S'--'
p334
sg27
S'--'
p335
sg29
S'W29-7'
p336
sg31
S'17'
p337
sg33
g3
sg34
S'ATL'
p338
sg36
S'17'
p339
sg37
g10
sg38
S'--'
p340
ssS'6'
p341
(dp342
g5
S'--'
p343
sg7
S'--'
p344
sg9
g10
sg11
S'--'
p345
sg13
g3
sg14
S'Michael Campanaro'
p346
sg16
S'2014'
p347
sg18
g341
sg19
S'--'
p348
sg21
S'10/12'
p349
sg23
S'14.0'
p350
sg25
S'--'
p351
sg27
S'--'
p352
sg29
S'W48-17'
p353
sg31
S'28'
p354
sg33
g51
sg34
S'@TB'
p355
sg36
S'19T'
p356
sg37
g3
sg38
S'--'
p357
ssg74
(dp358
g5
S'--'
p359
sg7
S'--'
p360
sg9
g10
sg11
S'--'
p361
sg13
g10
sg14
S'Michael Campanaro'
p362
sg16
S'2014'
p363
sg18
g74
sg19
S'--'
p364
sg21
S'11/02'
p365
sg23
S'--'
p366
sg25
S'--'
p367
sg27
S'--'
p368
sg29
S'L23-43'
p369
sg31
S'--'
p370
sg33
S'--'
p371
sg34
S'@PIT'
p372
sg36
S'--'
p373
sg37
S'--'
p374
sg38
S'--'
p375
ssg32
(dp376
g5
S'--'
p377
sg7
S'--'
p378
sg9
g10
sg11
S'--'
p379
sg13
g3
sg14
S'Michael Campanaro'
p380
sg16
S'2014'
p381
sg18
g32
sg19
S'--'
p382
sg21
S'10/26'
p383
sg23
S'13.3'
p384
sg25
S'--'
p385
sg27
S'--'
p386
sg29
S'L24-27'
p387
sg31
S'40'
p388
sg33
g40
sg34
S'@CIN'
p389
sg36
S'19'
p390
sg37
g10
sg38
S'--'
p391
sss.