(dp0
S'2015'
p1
(dp2
S'11'
p3
(dp4
S'RushTD'
p5
S'--'
p6
sS'RushYds'
p7
S'--'
p8
sS'GS'
p9
S'0'
p10
sS'Lost'
p11
S'--'
p12
sS'G'
p13
g10
sS'Player'
p14
S'Michael Floyd'
p15
sS'Year'
p16
S'2015'
p17
sS'WK'
p18
S'11'
p19
sS'RushAvg'
p20
S'--'
p21
sS'Game Date'
p22
S'11/22'
p23
sS'RecAvg'
p24
S'--'
p25
sS'FUM'
p26
S'--'
p27
sS'RushAtt'
p28
S'--'
p29
sS'Result'
p30
S'W34-31'
p31
sS'RecYds'
p32
S'--'
p33
sS'Rec'
p34
S'--'
p35
sS'Opp'
p36
S'CIN'
p37
sS'RecLng'
p38
S'--'
p39
sS'RecTD'
p40
S'--'
p41
sS'RushLng'
p42
S'--'
p43
ssS'10'
p44
(dp45
g5
S'--'
p46
sg7
S'--'
p47
sg9
g10
sg11
S'--'
p48
sg13
S'1'
p49
sg14
S'Michael Floyd'
p50
sg16
S'2015'
p51
sg18
S'10'
p52
sg20
S'--'
p53
sg22
S'11/15'
p54
sg24
S'16.1'
p55
sg26
S'--'
p56
sg28
S'--'
p57
sg30
S'W39-32'
p58
sg32
S'113'
p59
sg34
S'7'
p60
sg36
S'@SEA'
p61
sg38
S'35T'
p62
sg40
S'2'
p63
sg42
S'--'
p64
ssS'13'
p65
(dp66
g5
S'--'
p67
sg7
S'--'
p68
sg9
g49
sg11
S'--'
p69
sg13
g49
sg14
S'Michael Floyd'
p70
sg16
S'2015'
p71
sg18
S'13'
p72
sg20
S'--'
p73
sg22
S'12/06'
p74
sg24
S'14.9'
p75
sg26
S'--'
p76
sg28
S'--'
p77
sg30
S'W27-3'
p78
sg32
S'104'
p79
sg34
g60
sg36
S'@STL'
p80
sg38
S'31'
p81
sg40
g10
sg42
S'--'
p82
ssS'12'
p83
(dp84
g5
S'--'
p85
sg7
S'--'
p86
sg9
g49
sg11
S'--'
p87
sg13
g49
sg14
S'Michael Floyd'
p88
sg16
S'2015'
p89
sg18
S'12'
p90
sg20
S'--'
p91
sg22
S'11/29'
p92
sg24
S'14.0'
p93
sg26
S'--'
p94
sg28
S'--'
p95
sg30
S'W19-13'
p96
sg32
S'14'
p97
sg34
g49
sg36
S'@SF'
p98
sg38
S'14'
p99
sg40
g10
sg42
S'--'
p100
ssS'15'
p101
(dp102
g5
S'--'
p103
sg7
S'--'
p104
sg9
g49
sg11
S'--'
p105
sg13
g49
sg14
S'Michael Floyd'
p106
sg16
S'2015'
p107
sg18
S'15'
p108
sg20
S'--'
p109
sg22
S'12/20'
p110
sg24
S'14.0'
p111
sg26
S'--'
p112
sg28
S'--'
p113
sg30
S'W40-17'
p114
sg32
S'70'
p115
sg34
S'5'
p116
sg36
S'@PHI'
p117
sg38
S'29'
p118
sg40
g10
sg42
S'--'
p119
ssS'14'
p120
(dp121
g5
S'--'
p122
sg7
S'--'
p123
sg9
g10
sg11
S'--'
p124
sg13
g49
sg14
S'Michael Floyd'
p125
sg16
S'2015'
p126
sg18
S'14'
p127
sg20
S'--'
p128
sg22
S'12/10'
p129
sg24
S'20.4'
p130
sg26
S'--'
p131
sg28
S'--'
p132
sg30
S'W23-20'
p133
sg32
S'102'
p134
sg34
g116
sg36
S'MIN'
p135
sg38
S'42T'
p136
sg40
g49
sg42
S'--'
p137
ssS'17'
p138
(dp139
g5
S'--'
p140
sg7
S'--'
p141
sg9
g10
sg11
S'--'
p142
sg13
g49
sg14
S'Michael Floyd'
p143
sg16
S'2015'
p144
sg18
S'17'
p145
sg20
S'--'
p146
sg22
S'01/03'
p147
sg24
S'16.0'
p148
sg26
S'--'
p149
sg28
S'--'
p150
sg30
S'L6-36'
p151
sg32
S'16'
p152
sg34
g49
sg36
S'SEA'
p153
sg38
S'16'
p154
sg40
g10
sg42
S'--'
p155
ssS'16'
p156
(dp157
g5
S'--'
p158
sg7
S'--'
p159
sg9
g49
sg11
S'--'
p160
sg13
g49
sg14
S'Michael Floyd'
p161
sg16
S'2015'
p162
sg18
S'16'
p163
sg20
S'--'
p164
sg22
S'12/27'
p165
sg24
S'18.5'
p166
sg26
S'--'
p167
sg28
S'--'
p168
sg30
S'W38-8'
p169
sg32
S'111'
p170
sg34
S'6'
p171
sg36
S'GB'
p172
sg38
S'47'
p173
sg40
g10
sg42
S'--'
p174
ssg49
(dp175
g5
S'--'
p176
sg7
S'--'
p177
sg9
g10
sg11
S'--'
p178
sg13
g49
sg14
S'Michael Floyd'
p179
sg16
S'2015'
p180
sg18
g49
sg20
S'--'
p181
sg22
S'09/13'
p182
sg24
S'18.0'
p183
sg26
S'--'
p184
sg28
S'--'
p185
sg30
S'W31-19'
p186
sg32
S'18'
p187
sg34
g49
sg36
S'NO'
p188
sg38
S'18'
p189
sg40
g10
sg42
S'--'
p190
ssS'3'
p191
(dp192
g5
S'--'
p193
sg7
S'--'
p194
sg9
g10
sg11
S'--'
p195
sg13
g49
sg14
S'Michael Floyd'
p196
sg16
S'2015'
p197
sg18
g191
sg20
S'--'
p198
sg22
S'09/27'
p199
sg24
S'12.0'
p200
sg26
S'--'
p201
sg28
S'--'
p202
sg30
S'W47-7'
p203
sg32
S'12'
p204
sg34
g49
sg36
S'SF'
p205
sg38
S'12'
p206
sg40
g10
sg42
S'--'
p207
ssg63
(dp208
g5
S'--'
p209
sg7
S'--'
p210
sg9
g10
sg11
S'--'
p211
sg13
g49
sg14
S'Michael Floyd'
p212
sg16
S'2015'
p213
sg18
g63
sg20
S'--'
p214
sg22
S'09/20'
p215
sg24
S'--'
p216
sg26
S'--'
p217
sg28
S'--'
p218
sg30
S'W48-23'
p219
sg32
g10
sg34
g10
sg36
S'@CHI'
p220
sg38
S'--'
p221
sg40
g10
sg42
S'--'
p222
ssg116
(dp223
g5
S'--'
p224
sg7
S'--'
p225
sg9
g49
sg11
S'--'
p226
sg13
g49
sg14
S'Michael Floyd'
p227
sg16
S'2015'
p228
sg18
g116
sg20
S'--'
p229
sg22
S'10/11'
p230
sg24
S'15.0'
p231
sg26
S'--'
p232
sg28
S'--'
p233
sg30
S'W42-17'
p234
sg32
S'15'
p235
sg34
g49
sg36
S'@DET'
p236
sg38
S'15'
p237
sg40
g10
sg42
S'--'
p238
ssS'4'
p239
(dp240
g5
S'--'
p241
sg7
S'--'
p242
sg9
g10
sg11
S'--'
p243
sg13
g49
sg14
S'Michael Floyd'
p244
sg16
S'2015'
p245
sg18
g239
sg20
S'--'
p246
sg22
S'10/04'
p247
sg24
S'11.8'
p248
sg26
S'--'
p249
sg28
S'--'
p250
sg30
S'L22-24'
p251
sg32
S'59'
p252
sg34
g116
sg36
S'STL'
p253
sg38
S'22'
p254
sg40
g10
sg42
S'--'
p255
ssg60
(dp256
g5
S'--'
p257
sg7
S'--'
p258
sg9
g49
sg11
S'--'
p259
sg13
g49
sg14
S'Michael Floyd'
p260
sg16
S'2015'
p261
sg18
g60
sg20
S'--'
p262
sg22
S'10/26'
p263
sg24
S'19.7'
p264
sg26
S'--'
p265
sg28
S'--'
p266
sg30
S'W26-18'
p267
sg32
S'59'
p268
sg34
g191
sg36
S'BAL'
p269
sg38
S'33'
p270
sg40
g49
sg42
S'--'
p271
ssg171
(dp272
g5
S'--'
p273
sg7
S'--'
p274
sg9
g10
sg11
S'--'
p275
sg13
g49
sg14
S'Michael Floyd'
p276
sg16
S'2015'
p277
sg18
g171
sg20
S'--'
p278
sg22
S'10/18'
p279
sg24
S'10.0'
p280
sg26
S'--'
p281
sg28
S'--'
p282
sg30
S'L13-25'
p283
sg32
S'50'
p284
sg34
g116
sg36
S'@PIT'
p285
sg38
S'18'
p286
sg40
g49
sg42
S'--'
p287
ssS'9'
p288
(dp289
g5
S''
p290
sg7
g290
sg9
g290
sg11
g290
sg13
g290
sg14
S'Michael Floyd'
p291
sg16
S'2015'
p292
sg18
g288
sg20
g290
sg22
S'Bye'
p293
sg24
g290
sg26
g290
sg28
g290
sg30
g290
sg32
g290
sg34
g290
sg36
g290
sg38
g290
sg40
g290
sg42
g290
ssS'8'
p294
(dp295
g5
S'--'
p296
sg7
S'--'
p297
sg9
g10
sg11
S'--'
p298
sg13
g49
sg14
S'Michael Floyd'
p299
sg16
S'2015'
p300
sg18
g294
sg20
S'--'
p301
sg22
S'11/01'
p302
sg24
S'26.5'
p303
sg26
S'--'
p304
sg28
S'--'
p305
sg30
S'W34-20'
p306
sg32
S'106'
p307
sg34
g239
sg36
S'@CLE'
p308
sg38
S'60T'
p309
sg40
g49
sg42
S'--'
p310
sssS'2014'
p311
(dp312
g3
(dp313
g5
S'--'
p314
sg7
S'--'
p315
sg9
g49
sg11
S'--'
p316
sg13
g49
sg14
S'Michael Floyd'
p317
sg16
S'2014'
p318
sg18
S'11'
p319
sg20
S'--'
p320
sg22
S'11/16'
p321
sg24
S'27.0'
p322
sg26
S'--'
p323
sg28
S'--'
p324
sg30
S'W14-6'
p325
sg32
S'54'
p326
sg34
g63
sg36
S'DET'
p327
sg38
S'42T'
p328
sg40
g63
sg42
S'--'
p329
ssg44
(dp330
g5
S'--'
p331
sg7
S'--'
p332
sg9
g10
sg11
S'--'
p333
sg13
g49
sg14
S'Michael Floyd'
p334
sg16
S'2014'
p335
sg18
S'10'
p336
sg20
S'--'
p337
sg22
S'11/09'
p338
sg24
S'11.0'
p339
sg26
S'--'
p340
sg28
S'--'
p341
sg30
S'W31-14'
p342
sg32
S'11'
p343
sg34
g49
sg36
S'STL'
p344
sg38
S'11'
p345
sg40
g10
sg42
S'--'
p346
ssg65
(dp347
g5
S'--'
p348
sg7
S'--'
p349
sg9
g49
sg11
g49
sg13
g49
sg14
S'Michael Floyd'
p350
sg16
S'2014'
p351
sg18
S'13'
p352
sg20
S'--'
p353
sg22
S'11/30'
p354
sg24
S'10.6'
p355
sg26
g49
sg28
S'--'
p356
sg30
S'L18-29'
p357
sg32
S'53'
p358
sg34
g116
sg36
S'@ATL'
p359
sg38
S'22'
p360
sg40
g10
sg42
S'--'
p361
ssg83
(dp362
g5
S'--'
p363
sg7
S'--'
p364
sg9
g49
sg11
S'--'
p365
sg13
g49
sg14
S'Michael Floyd'
p366
sg16
S'2014'
p367
sg18
S'12'
p368
sg20
S'--'
p369
sg22
S'11/23'
p370
sg24
S'--'
p371
sg26
S'--'
p372
sg28
S'--'
p373
sg30
S'L3-19'
p374
sg32
g10
sg34
g10
sg36
S'@SEA'
p375
sg38
S'--'
p376
sg40
g10
sg42
S'--'
p377
ssg101
(dp378
g5
S'--'
p379
sg7
S'--'
p380
sg9
g49
sg11
S'--'
p381
sg13
g49
sg14
S'Michael Floyd'
p382
sg16
S'2014'
p383
sg18
S'15'
p384
sg20
S'--'
p385
sg22
S'12/11'
p386
sg24
S'27.5'
p387
sg26
S'--'
p388
sg28
S'--'
p389
sg30
S'W12-6'
p390
sg32
S'55'
p391
sg34
g63
sg36
S'@STL'
p392
sg38
S'49'
p393
sg40
g10
sg42
S'--'
p394
ssg120
(dp395
g5
S'--'
p396
sg7
S'--'
p397
sg9
g49
sg11
S'--'
p398
sg13
g49
sg14
S'Michael Floyd'
p399
sg16
S'2014'
p400
sg18
S'14'
p401
sg20
S'--'
p402
sg22
S'12/07'
p403
sg24
S'21.3'
p404
sg26
S'--'
p405
sg28
S'--'
p406
sg30
S'W17-14'
p407
sg32
S'85'
p408
sg34
g239
sg36
S'KC'
p409
sg38
S'45'
p410
sg40
g10
sg42
S'--'
p411
ssg138
(dp412
g5
S'--'
p413
sg7
S'--'
p414
sg9
g49
sg11
S'--'
p415
sg13
g49
sg14
S'Michael Floyd'
p416
sg16
S'2014'
p417
sg18
S'17'
p418
sg20
S'--'
p419
sg22
S'12/28'
p420
sg24
S'19.1'
p421
sg26
S'--'
p422
sg28
S'--'
p423
sg30
S'L17-20'
p424
sg32
S'153'
p425
sg34
g294
sg36
S'@SF'
p426
sg38
S'41T'
p427
sg40
g63
sg42
S'--'
p428
ssg156
(dp429
g5
S'--'
p430
sg7
S'--'
p431
sg9
g49
sg11
S'--'
p432
sg13
g49
sg14
S'Michael Floyd'
p433
sg16
S'2014'
p434
sg18
S'16'
p435
sg20
S'--'
p436
sg22
S'12/21'
p437
sg24
S'20.5'
p438
sg26
S'--'
p439
sg28
S'--'
p440
sg30
S'L6-35'
p441
sg32
S'41'
p442
sg34
g63
sg36
S'SEA'
p443
sg38
S'32'
p444
sg40
g10
sg42
S'--'
p445
ssg49
(dp446
g5
g10
sg7
g63
sg9
g49
sg11
S'--'
p447
sg13
g49
sg14
S'Michael Floyd'
p448
sg16
S'2014'
p449
sg18
g49
sg20
S'2.0'
p450
sg22
S'09/08'
p451
sg24
S'23.8'
p452
sg26
S'--'
p453
sg28
g49
sg30
S'W18-17'
p454
sg32
S'119'
p455
sg34
g116
sg36
S'SD'
p456
sg38
S'63'
p457
sg40
g10
sg42
g63
ssg191
(dp458
g5
S'--'
p459
sg7
S'--'
p460
sg9
g49
sg11
S'--'
p461
sg13
g49
sg14
S'Michael Floyd'
p462
sg16
S'2014'
p463
sg18
g191
sg20
S'--'
p464
sg22
S'09/21'
p465
sg24
S'22.8'
p466
sg26
S'--'
p467
sg28
S'--'
p468
sg30
S'W23-14'
p469
sg32
S'114'
p470
sg34
g116
sg36
S'SF'
p471
sg38
S'45'
p472
sg40
g10
sg42
S'--'
p473
ssg63
(dp474
g5
S'--'
p475
sg7
S'--'
p476
sg9
g49
sg11
S'--'
p477
sg13
g49
sg14
S'Michael Floyd'
p478
sg16
S'2014'
p479
sg18
g63
sg20
S'--'
p480
sg22
S'09/14'
p481
sg24
S'19.0'
p482
sg26
S'--'
p483
sg28
S'--'
p484
sg30
S'W25-14'
p485
sg32
S'19'
p486
sg34
g49
sg36
S'@NYG'
p487
sg38
S'19'
p488
sg40
g10
sg42
S'--'
p489
ssg116
(dp490
g5
S'--'
p491
sg7
S'--'
p492
sg9
g10
sg11
S'--'
p493
sg13
g49
sg14
S'Michael Floyd'
p494
sg16
S'2014'
p495
sg18
g116
sg20
S'--'
p496
sg22
S'10/05'
p497
sg24
S'7.0'
p498
sg26
S'--'
p499
sg28
S'--'
p500
sg30
S'L20-41'
p501
sg32
g60
sg34
g49
sg36
S'@DEN'
p502
sg38
g60
sg40
g10
sg42
S'--'
p503
ssg239
(dp504
g5
g290
sg7
g290
sg9
g290
sg11
g290
sg13
g290
sg14
S'Michael Floyd'
p505
sg16
S'2014'
p506
sg18
g239
sg20
g290
sg22
S'Bye'
p507
sg24
g290
sg26
g290
sg28
g290
sg30
g290
sg32
g290
sg34
g290
sg36
g290
sg38
g290
sg40
g290
sg42
g290
ssg60
(dp508
g5
S'--'
p509
sg7
S'--'
p510
sg9
g49
sg11
S'--'
p511
sg13
g49
sg14
S'Michael Floyd'
p512
sg16
S'2014'
p513
sg18
g60
sg20
S'--'
p514
sg22
S'10/19'
p515
sg24
S'15.7'
p516
sg26
S'--'
p517
sg28
S'--'
p518
sg30
S'W24-13'
p519
sg32
S'47'
p520
sg34
g191
sg36
S'@OAK'
p521
sg38
S'33T'
p522
sg40
g49
sg42
S'--'
p523
ssg171
(dp524
g5
S'--'
p525
sg7
S'--'
p526
sg9
g49
sg11
g10
sg13
g49
sg14
S'Michael Floyd'
p527
sg16
S'2014'
p528
sg18
g171
sg20
S'--'
p529
sg22
S'10/12'
p530
sg24
S'11.8'
p531
sg26
g49
sg28
S'--'
p532
sg30
S'W30-20'
p533
sg32
S'47'
p534
sg34
g239
sg36
S'WAS'
p535
sg38
S'20T'
p536
sg40
g49
sg42
S'--'
p537
ssg288
(dp538
g5
S'--'
p539
sg7
S'--'
p540
sg9
g49
sg11
g10
sg13
g49
sg14
S'Michael Floyd'
p541
sg16
S'2014'
p542
sg18
g288
sg20
S'--'
p543
sg22
S'11/02'
p544
sg24
S'9.0'
p545
sg26
g49
sg28
S'--'
p546
sg30
S'W28-17'
p547
sg32
S'36'
p548
sg34
g239
sg36
S'@DAL'
p549
sg38
S'12'
p550
sg40
g10
sg42
S'--'
p551
ssg294
(dp552
g5
S'--'
p553
sg7
S'--'
p554
sg9
g49
sg11
S'--'
p555
sg13
g49
sg14
S'Michael Floyd'
p556
sg16
S'2014'
p557
sg18
g294
sg20
S'--'
p558
sg22
S'10/26'
p559
sg24
S'--'
p560
sg26
S'--'
p561
sg28
S'--'
p562
sg30
S'W24-20'
p563
sg32
g10
sg34
g10
sg36
S'PHI'
p564
sg38
S'--'
p565
sg40
g10
sg42
S'--'
p566
sssS'2013'
p567
(dp568
g3
(dp569
g5
S'--'
p570
sg7
S'--'
p571
sg9
g49
sg11
S'--'
p572
sg13
g49
sg14
S'Michael Floyd'
p573
sg16
S'2013'
p574
sg18
S'11'
p575
sg20
S'--'
p576
sg22
S'11/17'
p577
sg24
S'32.2'
p578
sg26
S'--'
p579
sg28
S'--'
p580
sg30
S'W27-14'
p581
sg32
S'193'
p582
sg34
g171
sg36
S'@JAC'
p583
sg38
S'91T'
p584
sg40
g49
sg42
S'--'
p585
ssg44
(dp586
g5
S'--'
p587
sg7
S'--'
p588
sg9
g49
sg11
S'--'
p589
sg13
g49
sg14
S'Michael Floyd'
p590
sg16
S'2013'
p591
sg18
S'10'
p592
sg20
S'--'
p593
sg22
S'11/10'
p594
sg24
S'15.5'
p595
sg26
S'--'
p596
sg28
S'--'
p597
sg30
S'W27-24'
p598
sg32
S'31'
p599
sg34
g63
sg36
S'HOU'
p600
sg38
S'20'
p601
sg40
g10
sg42
S'--'
p602
ssg65
(dp603
g5
S'--'
p604
sg7
S'--'
p605
sg9
g49
sg11
S'--'
p606
sg13
g49
sg14
S'Michael Floyd'
p607
sg16
S'2013'
p608
sg18
S'13'
p609
sg20
S'--'
p610
sg22
S'12/01'
p611
sg24
S'19.8'
p612
sg26
S'--'
p613
sg28
S'--'
p614
sg30
S'L21-24'
p615
sg32
S'99'
p616
sg34
g116
sg36
S'@PHI'
p617
sg38
S'34'
p618
sg40
g49
sg42
S'--'
p619
ssg83
(dp620
g5
S'--'
p621
sg7
S'--'
p622
sg9
g49
sg11
S'--'
p623
sg13
g49
sg14
S'Michael Floyd'
p624
sg16
S'2013'
p625
sg18
S'12'
p626
sg20
S'--'
p627
sg22
S'11/24'
p628
sg24
S'14.9'
p629
sg26
S'--'
p630
sg28
S'--'
p631
sg30
S'W40-11'
p632
sg32
S'104'
p633
sg34
g60
sg36
S'IND'
p634
sg38
S'29'
p635
sg40
g10
sg42
S'--'
p636
ssg101
(dp637
g5
S'--'
p638
sg7
S'--'
p639
sg9
g49
sg11
S'--'
p640
sg13
g49
sg14
S'Michael Floyd'
p641
sg16
S'2013'
p642
sg18
S'15'
p643
sg20
S'--'
p644
sg22
S'12/15'
p645
sg24
S'16.5'
p646
sg26
S'--'
p647
sg28
S'--'
p648
sg30
S'W37-34'
p649
sg32
S'33'
p650
sg34
g63
sg36
S'@TEN'
p651
sg38
S'20'
p652
sg40
g10
sg42
S'--'
p653
ssg120
(dp654
g5
S'--'
p655
sg7
S'--'
p656
sg9
g49
sg11
S'--'
p657
sg13
g49
sg14
S'Michael Floyd'
p658
sg16
S'2013'
p659
sg18
S'14'
p660
sg20
S'--'
p661
sg22
S'12/08'
p662
sg24
S'13.0'
p663
sg26
S'--'
p664
sg28
S'--'
p665
sg30
S'W30-10'
p666
sg32
S'26'
p667
sg34
g63
sg36
S'STL'
p668
sg38
S'13'
p669
sg40
g10
sg42
S'--'
p670
ssg138
(dp671
g5
S'--'
p672
sg7
S'--'
p673
sg9
g49
sg11
S'--'
p674
sg13
g49
sg14
S'Michael Floyd'
p675
sg16
S'2013'
p676
sg18
S'17'
p677
sg20
S'--'
p678
sg22
S'12/29'
p679
sg24
S'15.2'
p680
sg26
S'--'
p681
sg28
S'--'
p682
sg30
S'L20-23'
p683
sg32
S'91'
p684
sg34
g171
sg36
S'SF'
p685
sg38
S'44'
p686
sg40
g10
sg42
S'--'
p687
ssg156
(dp688
g5
S'--'
p689
sg7
S'--'
p690
sg9
g49
sg11
S'--'
p691
sg13
g49
sg14
S'Michael Floyd'
p692
sg16
S'2013'
p693
sg18
S'16'
p694
sg20
S'--'
p695
sg22
S'12/22'
p696
sg24
S'31.0'
p697
sg26
S'--'
p698
sg28
S'--'
p699
sg30
S'W17-10'
p700
sg32
S'31'
p701
sg34
g49
sg36
S'@SEA'
p702
sg38
S'31T'
p703
sg40
g49
sg42
S'--'
p704
ssg49
(dp705
g5
S'--'
p706
sg7
S'--'
p707
sg9
g49
sg11
S'--'
p708
sg13
g49
sg14
S'Michael Floyd'
p709
sg16
S'2013'
p710
sg18
g49
sg20
S'--'
p711
sg22
S'09/08'
p712
sg24
S'20.5'
p713
sg26
S'--'
p714
sg28
S'--'
p715
sg30
S'L24-27'
p716
sg32
S'82'
p717
sg34
g239
sg36
S'@STL'
p718
sg38
S'44'
p719
sg40
g10
sg42
S'--'
p720
ssg191
(dp721
g5
S'--'
p722
sg7
S'--'
p723
sg9
g49
sg11
S'--'
p724
sg13
g49
sg14
S'Michael Floyd'
p725
sg16
S'2013'
p726
sg18
g191
sg20
S'--'
p727
sg22
S'09/22'
p728
sg24
S'12.3'
p729
sg26
S'--'
p730
sg28
S'--'
p731
sg30
S'L7-31'
p732
sg32
S'49'
p733
sg34
g239
sg36
S'@NO'
p734
sg38
S'20'
p735
sg40
g10
sg42
S'--'
p736
ssg63
(dp737
g5
S'--'
p738
sg7
S'--'
p739
sg9
g49
sg11
S'--'
p740
sg13
g49
sg14
S'Michael Floyd'
p741
sg16
S'2013'
p742
sg18
g63
sg20
S'--'
p743
sg22
S'09/15'
p744
sg24
S'7.3'
p745
sg26
S'--'
p746
sg28
S'--'
p747
sg30
S'W25-21'
p748
sg32
S'22'
p749
sg34
g191
sg36
S'DET'
p750
sg38
S'11'
p751
sg40
g10
sg42
S'--'
p752
ssg116
(dp753
g5
S'--'
p754
sg7
S'--'
p755
sg9
g49
sg11
S'--'
p756
sg13
g49
sg14
S'Michael Floyd'
p757
sg16
S'2013'
p758
sg18
g116
sg20
S'--'
p759
sg22
S'10/06'
p760
sg24
S'12.2'
p761
sg26
S'--'
p762
sg28
S'--'
p763
sg30
S'W22-6'
p764
sg32
S'61'
p765
sg34
g116
sg36
S'CAR'
p766
sg38
S'22'
p767
sg40
g10
sg42
S'--'
p768
ssg239
(dp769
g5
S'--'
p770
sg7
S'--'
p771
sg9
g49
sg11
S'--'
p772
sg13
g49
sg14
S'Michael Floyd'
p773
sg16
S'2013'
p774
sg18
g239
sg20
S'--'
p775
sg22
S'09/29'
p776
sg24
S'17.4'
p777
sg26
S'--'
p778
sg28
S'--'
p779
sg30
S'W13-10'
p780
sg32
S'87'
p781
sg34
g116
sg36
S'@TB'
p782
sg38
S'27'
p783
sg40
g10
sg42
S'--'
p784
ssg60
(dp785
g5
S'--'
p786
sg7
S'--'
p787
sg9
g49
sg11
S'--'
p788
sg13
g49
sg14
S'Michael Floyd'
p789
sg16
S'2013'
p790
sg18
g60
sg20
S'--'
p791
sg22
S'10/17'
p792
sg24
S'11.6'
p793
sg26
S'--'
p794
sg28
S'--'
p795
sg30
S'L22-34'
p796
sg32
S'58'
p797
sg34
g116
sg36
S'SEA'
p798
sg38
S'15'
p799
sg40
g10
sg42
S'--'
p800
ssg171
(dp801
g5
S'--'
p802
sg7
S'--'
p803
sg9
g49
sg11
S'--'
p804
sg13
g49
sg14
S'Michael Floyd'
p805
sg16
S'2013'
p806
sg18
g171
sg20
S'--'
p807
sg22
S'10/13'
p808
sg24
S'8.8'
p809
sg26
S'--'
p810
sg28
S'--'
p811
sg30
S'L20-32'
p812
sg32
S'44'
p813
sg34
g116
sg36
S'@SF'
p814
sg38
S'19'
p815
sg40
g49
sg42
S'--'
p816
ssg288
(dp817
g5
g290
sg7
g290
sg9
g290
sg11
g290
sg13
g290
sg14
S'Michael Floyd'
p818
sg16
S'2013'
p819
sg18
g288
sg20
g290
sg22
S'Bye'
p820
sg24
g290
sg26
g290
sg28
g290
sg30
g290
sg32
g290
sg34
g290
sg36
g290
sg38
g290
sg40
g290
sg42
g290
ssg294
(dp821
g5
S'--'
p822
sg7
S'--'
p823
sg9
g49
sg11
S'--'
p824
sg13
g49
sg14
S'Michael Floyd'
p825
sg16
S'2013'
p826
sg18
g294
sg20
S'--'
p827
sg22
S'10/27'
p828
sg24
S'10.0'
p829
sg26
S'--'
p830
sg28
S'--'
p831
sg30
S'W27-13'
p832
sg32
S'30'
p833
sg34
g191
sg36
S'ATL'
p834
sg38
S'15T'
p835
sg40
g49
sg42
S'--'
p836
sssS'2012'
p837
(dp838
g3
(dp839
g5
S'--'
p840
sg7
S'--'
p841
sg9
g10
sg11
S'--'
p842
sg13
g49
sg14
S'Michael Floyd'
p843
sg16
S'2012'
p844
sg18
S'11'
p845
sg20
S'--'
p846
sg22
S'11/18'
p847
sg24
S'9.0'
p848
sg26
S'--'
p849
sg28
S'--'
p850
sg30
S'L19-23'
p851
sg32
S'18'
p852
sg34
g63
sg36
S'@ATL'
p853
sg38
S'17'
p854
sg40
g10
sg42
S'--'
p855
ssg44
(dp856
g5
g290
sg7
g290
sg9
g290
sg11
g290
sg13
g290
sg14
S'Michael Floyd'
p857
sg16
S'2012'
p858
sg18
S'10'
p859
sg20
g290
sg22
S'Bye'
p860
sg24
g290
sg26
g290
sg28
g290
sg30
g290
sg32
g290
sg34
g290
sg36
g290
sg38
g290
sg40
g290
sg42
g290
ssg65
(dp861
g5
S'--'
p862
sg7
S'--'
p863
sg9
g49
sg11
S'--'
p864
sg13
g49
sg14
S'Michael Floyd'
p865
sg16
S'2012'
p866
sg18
S'13'
p867
sg20
S'--'
p868
sg22
S'12/02'
p869
sg24
S'11.0'
p870
sg26
S'--'
p871
sg28
S'--'
p872
sg30
S'L6-7'
p873
sg32
S'22'
p874
sg34
g63
sg36
S'@NYJ'
p875
sg38
S'16'
p876
sg40
g10
sg42
S'--'
p877
ssg83
(dp878
g5
S'--'
p879
sg7
S'--'
p880
sg9
g10
sg11
S'--'
p881
sg13
g49
sg14
S'Michael Floyd'
p882
sg16
S'2012'
p883
sg18
S'12'
p884
sg20
S'--'
p885
sg22
S'11/25'
p886
sg24
S'8.8'
p887
sg26
S'--'
p888
sg28
S'--'
p889
sg30
S'L17-31'
p890
sg32
S'35'
p891
sg34
g239
sg36
S'STL'
p892
sg38
S'15'
p893
sg40
g10
sg42
S'--'
p894
ssg101
(dp895
g5
S'--'
p896
sg7
S'--'
p897
sg9
g49
sg11
S'--'
p898
sg13
g49
sg14
S'Michael Floyd'
p899
sg16
S'2012'
p900
sg18
S'15'
p901
sg20
S'--'
p902
sg22
S'12/16'
p903
sg24
S'12.3'
p904
sg26
S'--'
p905
sg28
S'--'
p906
sg30
S'W38-10'
p907
sg32
S'37'
p908
sg34
g191
sg36
S'DET'
p909
sg38
S'25'
p910
sg40
g10
sg42
S'--'
p911
ssg120
(dp912
g5
S'--'
p913
sg7
S'--'
p914
sg9
g10
sg11
S'--'
p915
sg13
g49
sg14
S'Michael Floyd'
p916
sg16
S'2012'
p917
sg18
S'14'
p918
sg20
S'--'
p919
sg22
S'12/09'
p920
sg24
S'15.0'
p921
sg26
S'--'
p922
sg28
S'--'
p923
sg30
S'L0-58'
p924
sg32
S'30'
p925
sg34
g63
sg36
S'@SEA'
p926
sg38
S'18'
p927
sg40
g10
sg42
S'--'
p928
ssg138
(dp929
g5
S'--'
p930
sg7
S'--'
p931
sg9
g49
sg11
g49
sg13
g49
sg14
S'Michael Floyd'
p932
sg16
S'2012'
p933
sg18
S'17'
p934
sg20
S'--'
p935
sg22
S'12/30'
p936
sg24
S'20.8'
p937
sg26
g49
sg28
S'--'
p938
sg30
S'L13-27'
p939
sg32
S'166'
p940
sg34
g294
sg36
S'@SF'
p941
sg38
S'53'
p942
sg40
g49
sg42
S'--'
p943
ssg156
(dp944
g5
S'--'
p945
sg7
S'--'
p946
sg9
g10
sg11
S'--'
p947
sg13
g49
sg14
S'Michael Floyd'
p948
sg16
S'2012'
p949
sg18
S'16'
p950
sg20
S'--'
p951
sg22
S'12/23'
p952
sg24
S'7.8'
p953
sg26
S'--'
p954
sg28
S'--'
p955
sg30
S'L13-28'
p956
sg32
S'47'
p957
sg34
g171
sg36
S'CHI'
p958
sg38
S'14'
p959
sg40
g10
sg42
S'--'
p960
ssg49
(dp961
g5
S'--'
p962
sg7
S'--'
p963
sg9
g10
sg11
S'--'
p964
sg13
g49
sg14
S'Michael Floyd'
p965
sg16
S'2012'
p966
sg18
g49
sg20
S'--'
p967
sg22
S'09/09'
p968
sg24
S'--'
p969
sg26
S'--'
p970
sg28
S'--'
p971
sg30
S'W20-16'
p972
sg32
g10
sg34
g10
sg36
S'SEA'
p973
sg38
S'--'
p974
sg40
g10
sg42
S'--'
p975
ssg191
(dp976
g5
S'--'
p977
sg7
S'--'
p978
sg9
g10
sg11
S'--'
p979
sg13
g49
sg14
S'Michael Floyd'
p980
sg16
S'2012'
p981
sg18
g191
sg20
S'--'
p982
sg22
S'09/23'
p983
sg24
S'8.0'
p984
sg26
S'--'
p985
sg28
S'--'
p986
sg30
S'W27-6'
p987
sg32
g294
sg34
g49
sg36
S'PHI'
p988
sg38
S'8T'
p989
sg40
g49
sg42
S'--'
p990
ssg63
(dp991
g5
S'--'
p992
sg7
S'--'
p993
sg9
g10
sg11
S'--'
p994
sg13
g49
sg14
S'Michael Floyd'
p995
sg16
S'2012'
p996
sg18
g63
sg20
S'--'
p997
sg22
S'09/16'
p998
sg24
S'--'
p999
sg26
S'--'
p1000
sg28
S'--'
p1001
sg30
S'W20-18'
p1002
sg32
S'--'
p1003
sg34
S'--'
p1004
sg36
S'@NE'
p1005
sg38
S'--'
p1006
sg40
S'--'
p1007
sg42
S'--'
p1008
ssg116
(dp1009
g5
S'--'
p1010
sg7
S'--'
p1011
sg9
g10
sg11
S'--'
p1012
sg13
g49
sg14
S'Michael Floyd'
p1013
sg16
S'2012'
p1014
sg18
g116
sg20
S'--'
p1015
sg22
S'10/04'
p1016
sg24
S'17.0'
p1017
sg26
S'--'
p1018
sg28
S'--'
p1019
sg30
S'L3-17'
p1020
sg32
S'17'
p1021
sg34
g49
sg36
S'@STL'
p1022
sg38
S'17'
p1023
sg40
g10
sg42
S'--'
p1024
ssg239
(dp1025
g5
S'--'
p1026
sg7
S'--'
p1027
sg9
g10
sg11
S'--'
p1028
sg13
g49
sg14
S'Michael Floyd'
p1029
sg16
S'2012'
p1030
sg18
g239
sg20
S'--'
p1031
sg22
S'09/30'
p1032
sg24
S'8.8'
p1033
sg26
S'--'
p1034
sg28
S'--'
p1035
sg30
S'W24-21'
p1036
sg32
S'35'
p1037
sg34
g239
sg36
S'MIA'
p1038
sg38
S'10'
p1039
sg40
g10
sg42
S'--'
p1040
ssg60
(dp1041
g5
S'--'
p1042
sg7
S'--'
p1043
sg9
g10
sg11
S'--'
p1044
sg13
g49
sg14
S'Michael Floyd'
p1045
sg16
S'2012'
p1046
sg18
g60
sg20
S'--'
p1047
sg22
S'10/21'
p1048
sg24
S'7.0'
p1049
sg26
S'--'
p1050
sg28
S'--'
p1051
sg30
S'L14-21'
p1052
sg32
g60
sg34
g49
sg36
S'@MIN'
p1053
sg38
g60
sg40
g10
sg42
S'--'
p1054
ssg171
(dp1055
g5
S'--'
p1056
sg7
S'--'
p1057
sg9
g10
sg11
S'--'
p1058
sg13
g49
sg14
S'Michael Floyd'
p1059
sg16
S'2012'
p1060
sg18
g171
sg20
S'--'
p1061
sg22
S'10/14'
p1062
sg24
S'24.0'
p1063
sg26
S'--'
p1064
sg28
S'--'
p1065
sg30
S'L16-19'
p1066
sg32
S'24'
p1067
sg34
g49
sg36
S'BUF'
p1068
sg38
S'24'
p1069
sg40
g10
sg42
S'--'
p1070
ssg288
(dp1071
g5
S'--'
p1072
sg7
S'--'
p1073
sg9
g10
sg11
S'--'
p1074
sg13
g49
sg14
S'Michael Floyd'
p1075
sg16
S'2012'
p1076
sg18
g288
sg20
S'--'
p1077
sg22
S'11/04'
p1078
sg24
S'16.0'
p1079
sg26
S'--'
p1080
sg28
S'--'
p1081
sg30
S'L17-31'
p1082
sg32
S'80'
p1083
sg34
g116
sg36
S'@GB'
p1084
sg38
S'37'
p1085
sg40
g10
sg42
S'--'
p1086
ssg294
(dp1087
g5
S'--'
p1088
sg7
S'--'
p1089
sg9
g10
sg11
S'--'
p1090
sg13
g49
sg14
S'Michael Floyd'
p1091
sg16
S'2012'
p1092
sg18
g294
sg20
S'--'
p1093
sg22
S'10/29'
p1094
sg24
S'7.2'
p1095
sg26
S'--'
p1096
sg28
S'--'
p1097
sg30
S'L3-24'
p1098
sg32
S'36'
p1099
sg34
g116
sg36
S'SF'
p1100
sg38
g288
sg40
g10
sg42
S'--'
p1101
sss.