(dp0
S'2015'
p1
(dp2
S'11'
p3
(dp4
S'RushTD'
p5
S'--'
p6
sS'RushYds'
p7
S'--'
p8
sS'GS'
p9
S'1'
p10
sS'Lost'
p11
S'--'
p12
sS'G'
p13
g10
sS'Player'
p14
S'Mike Evans'
p15
sS'Year'
p16
S'2015'
p17
sS'WK'
p18
S'11'
p19
sS'RushAvg'
p20
S'--'
p21
sS'Game Date'
p22
S'11/22'
p23
sS'RecAvg'
p24
S'15.8'
p25
sS'FUM'
p26
S'--'
p27
sS'RushAtt'
p28
S'--'
p29
sS'Result'
p30
S'W45-17'
p31
sS'RecYds'
p32
S'63'
p33
sS'Rec'
p34
S'4'
p35
sS'Opp'
p36
S'@PHI'
p37
sS'RecLng'
p38
S'25'
p39
sS'RecTD'
p40
g10
sS'RushLng'
p41
S'--'
p42
ssS'10'
p43
(dp44
g5
S'--'
p45
sg7
S'--'
p46
sg9
g10
sg11
S'--'
p47
sg13
g10
sg14
S'Mike Evans'
p48
sg16
S'2015'
p49
sg18
S'10'
p50
sg20
S'--'
p51
sg22
S'11/15'
p52
sg24
S'15.8'
p53
sg26
S'--'
p54
sg28
S'--'
p55
sg30
S'W10-6'
p56
sg32
S'126'
p57
sg34
S'8'
p58
sg36
S'DAL'
p59
sg38
S'26'
p60
sg40
S'0'
p61
sg41
S'--'
p62
ssS'13'
p63
(dp64
g5
S'--'
p65
sg7
S'--'
p66
sg9
g10
sg11
S'--'
p67
sg13
g10
sg14
S'Mike Evans'
p68
sg16
S'2015'
p69
sg18
S'13'
p70
sg20
S'--'
p71
sg22
S'12/06'
p72
sg24
S'12.2'
p73
sg26
S'--'
p74
sg28
S'--'
p75
sg30
S'W23-19'
p76
sg32
S'61'
p77
sg34
S'5'
p78
sg36
S'ATL'
p79
sg38
S'16'
p80
sg40
g10
sg41
S'--'
p81
ssS'12'
p82
(dp83
g5
S'--'
p84
sg7
S'--'
p85
sg9
g10
sg11
S'--'
p86
sg13
g10
sg14
S'Mike Evans'
p87
sg16
S'2015'
p88
sg18
S'12'
p89
sg20
S'--'
p90
sg22
S'11/29'
p91
sg24
S'12.8'
p92
sg26
S'--'
p93
sg28
S'--'
p94
sg30
S'L12-25'
p95
sg32
S'64'
p96
sg34
g78
sg36
S'@IND'
p97
sg38
S'17'
p98
sg40
g61
sg41
S'--'
p99
ssS'15'
p100
(dp101
g5
S'--'
p102
sg7
S'--'
p103
sg9
g10
sg11
S'--'
p104
sg13
g10
sg14
S'Mike Evans'
p105
sg16
S'2015'
p106
sg18
S'15'
p107
sg20
S'--'
p108
sg22
S'12/17'
p109
sg24
S'17.4'
p110
sg26
S'--'
p111
sg28
S'--'
p112
sg30
S'L23-31'
p113
sg32
S'157'
p114
sg34
S'9'
p115
sg36
S'@STL'
p116
sg38
S'30'
p117
sg40
g61
sg41
S'--'
p118
ssS'14'
p119
(dp120
g5
S'--'
p121
sg7
S'--'
p122
sg9
g10
sg11
S'--'
p123
sg13
g10
sg14
S'Mike Evans'
p124
sg16
S'2015'
p125
sg18
S'14'
p126
sg20
S'--'
p127
sg22
S'12/13'
p128
sg24
S'13.0'
p129
sg26
S'--'
p130
sg28
S'--'
p131
sg30
S'L17-24'
p132
sg32
S'39'
p133
sg34
S'3'
p134
sg36
S'NO'
p135
sg38
S'22'
p136
sg40
g61
sg41
S'--'
p137
ssS'17'
p138
(dp139
g5
S'--'
p140
sg7
S'--'
p141
sg9
g10
sg11
S'--'
p142
sg13
g10
sg14
S'Mike Evans'
p143
sg16
S'2015'
p144
sg18
S'17'
p145
sg20
S'--'
p146
sg22
S'01/03'
p147
sg24
S'24.8'
p148
sg26
S'--'
p149
sg28
S'--'
p150
sg30
S'L10-38'
p151
sg32
S'99'
p152
sg34
g35
sg36
S'@CAR'
p153
sg38
S'30'
p154
sg40
g61
sg41
S'--'
p155
ssS'16'
p156
(dp157
g5
S'--'
p158
sg7
S'--'
p159
sg9
g10
sg11
S'--'
p160
sg13
g10
sg14
S'Mike Evans'
p161
sg16
S'2015'
p162
sg18
S'16'
p163
sg20
S'--'
p164
sg22
S'12/27'
p165
sg24
S'15.3'
p166
sg26
S'--'
p167
sg28
S'--'
p168
sg30
S'L21-26'
p169
sg32
S'61'
p170
sg34
g35
sg36
S'CHI'
p171
sg38
S'16'
p172
sg40
g61
sg41
S'--'
p173
ssg10
(dp174
g5
S'--'
p175
sg7
S'--'
p176
sg9
g61
sg11
S'--'
p177
sg13
g61
sg14
S'Mike Evans'
p178
sg16
S'2015'
p179
sg18
g10
sg20
S'--'
p180
sg22
S'09/13'
p181
sg24
S'--'
p182
sg26
S'--'
p183
sg28
S'--'
p184
sg30
S'L14-42'
p185
sg32
S'--'
p186
sg34
S'--'
p187
sg36
S'TEN'
p188
sg38
S'--'
p189
sg40
S'--'
p190
sg41
S'--'
p191
ssg134
(dp192
g5
S'--'
p193
sg7
S'--'
p194
sg9
g10
sg11
S'--'
p195
sg13
g10
sg14
S'Mike Evans'
p196
sg16
S'2015'
p197
sg18
g134
sg20
S'--'
p198
sg22
S'09/27'
p199
sg24
S'14.4'
p200
sg26
S'--'
p201
sg28
S'--'
p202
sg30
S'L9-19'
p203
sg32
S'101'
p204
sg34
S'7'
p205
sg36
S'@HOU'
p206
sg38
S'20'
p207
sg40
g61
sg41
S'--'
p208
ssS'2'
p209
(dp210
g5
S'--'
p211
sg7
S'--'
p212
sg9
g61
sg11
S'--'
p213
sg13
g10
sg14
S'Mike Evans'
p214
sg16
S'2015'
p215
sg18
g209
sg20
S'--'
p216
sg22
S'09/20'
p217
sg24
S'--'
p218
sg26
S'--'
p219
sg28
S'--'
p220
sg30
S'W26-19'
p221
sg32
g61
sg34
g61
sg36
S'@NO'
p222
sg38
S'--'
p223
sg40
g61
sg41
S'--'
p224
ssg78
(dp225
g5
S'--'
p226
sg7
S'--'
p227
sg9
g10
sg11
S'--'
p228
sg13
g10
sg14
S'Mike Evans'
p229
sg16
S'2015'
p230
sg18
g78
sg20
S'--'
p231
sg22
S'10/11'
p232
sg24
S'13.7'
p233
sg26
S'--'
p234
sg28
S'--'
p235
sg30
S'W38-31'
p236
sg32
S'41'
p237
sg34
g134
sg36
S'JAC'
p238
sg38
S'17'
p239
sg40
g61
sg41
S'--'
p240
ssg35
(dp241
g5
S'--'
p242
sg7
S'--'
p243
sg9
g10
sg11
S'--'
p244
sg13
g10
sg14
S'Mike Evans'
p245
sg16
S'2015'
p246
sg18
g35
sg20
S'--'
p247
sg22
S'10/04'
p248
sg24
S'10.7'
p249
sg26
S'--'
p250
sg28
S'--'
p251
sg30
S'L23-37'
p252
sg32
S'32'
p253
sg34
g134
sg36
S'CAR'
p254
sg38
S'21'
p255
sg40
g61
sg41
S'--'
p256
ssg205
(dp257
g5
S'--'
p258
sg7
S'--'
p259
sg9
g10
sg11
S'--'
p260
sg13
g10
sg14
S'Mike Evans'
p261
sg16
S'2015'
p262
sg18
g205
sg20
S'--'
p263
sg22
S'10/25'
p264
sg24
S'20.5'
p265
sg26
S'--'
p266
sg28
S'--'
p267
sg30
S'L30-31'
p268
sg32
S'164'
p269
sg34
g58
sg36
S'@WAS'
p270
sg38
S'40T'
p271
sg40
g10
sg41
S'--'
p272
ssS'6'
p273
(dp274
g5
S''
p275
sg7
g275
sg9
g275
sg11
g275
sg13
g275
sg14
S'Mike Evans'
p276
sg16
S'2015'
p277
sg18
g273
sg20
g275
sg22
S'Bye'
p278
sg24
g275
sg26
g275
sg28
g275
sg30
g275
sg32
g275
sg34
g275
sg36
g275
sg38
g275
sg40
g275
sg41
g275
ssg115
(dp279
g5
S'--'
p280
sg7
S'--'
p281
sg9
g10
sg11
g10
sg13
g10
sg14
S'Mike Evans'
p282
sg16
S'2015'
p283
sg18
g115
sg20
S'--'
p284
sg22
S'11/08'
p285
sg24
S'18.8'
p286
sg26
g10
sg28
S'--'
p287
sg30
S'L18-32'
p288
sg32
S'150'
p289
sg34
g58
sg36
S'NYG'
p290
sg38
S'68'
p291
sg40
g61
sg41
S'--'
p292
ssg58
(dp293
g5
S'--'
p294
sg7
S'--'
p295
sg9
g10
sg11
S'--'
p296
sg13
g10
sg14
S'Mike Evans'
p297
sg16
S'2015'
p298
sg18
g58
sg20
S'--'
p299
sg22
S'11/01'
p300
sg24
S'16.0'
p301
sg26
S'--'
p302
sg28
S'--'
p303
sg30
S'W23-20'
p304
sg32
S'48'
p305
sg34
g134
sg36
S'@ATL'
p306
sg38
S'21'
p307
sg40
g61
sg41
S'--'
p308
sssS'2014'
p309
(dp310
g3
(dp311
g5
S'--'
p312
sg7
S'--'
p313
sg9
g10
sg11
S'--'
p314
sg13
g10
sg14
S'Mike Evans'
p315
sg16
S'2014'
p316
sg18
S'11'
p317
sg20
S'--'
p318
sg22
S'11/16'
p319
sg24
S'29.9'
p320
sg26
S'--'
p321
sg28
S'--'
p322
sg30
S'W27-7'
p323
sg32
S'209'
p324
sg34
g205
sg36
S'@WAS'
p325
sg38
S'56T'
p326
sg40
g209
sg41
S'--'
p327
ssg43
(dp328
g5
S'--'
p329
sg7
S'--'
p330
sg9
g10
sg11
S'--'
p331
sg13
g10
sg14
S'Mike Evans'
p332
sg16
S'2014'
p333
sg18
S'10'
p334
sg20
S'--'
p335
sg22
S'11/09'
p336
sg24
S'17.9'
p337
sg26
S'--'
p338
sg28
S'--'
p339
sg30
S'L17-27'
p340
sg32
S'125'
p341
sg34
g205
sg36
S'ATL'
p342
sg38
S'34'
p343
sg40
g10
sg41
S'--'
p344
ssg63
(dp345
g5
S'--'
p346
sg7
S'--'
p347
sg9
g10
sg11
S'--'
p348
sg13
g10
sg14
S'Mike Evans'
p349
sg16
S'2014'
p350
sg18
S'13'
p351
sg20
S'--'
p352
sg22
S'11/30'
p353
sg24
S'12.3'
p354
sg26
S'--'
p355
sg28
S'--'
p356
sg30
S'L13-14'
p357
sg32
S'49'
p358
sg34
g35
sg36
S'CIN'
p359
sg38
S'23'
p360
sg40
g61
sg41
S'--'
p361
ssg82
(dp362
g5
S'--'
p363
sg7
S'--'
p364
sg9
g10
sg11
S'--'
p365
sg13
g10
sg14
S'Mike Evans'
p366
sg16
S'2014'
p367
sg18
S'12'
p368
sg20
S'--'
p369
sg22
S'11/23'
p370
sg24
S'15.7'
p371
sg26
S'--'
p372
sg28
S'--'
p373
sg30
S'L13-21'
p374
sg32
S'47'
p375
sg34
g134
sg36
S'@CHI'
p376
sg38
S'19T'
p377
sg40
g10
sg41
S'--'
p378
ssg100
(dp379
g5
S'--'
p380
sg7
S'--'
p381
sg9
g10
sg11
S'--'
p382
sg13
g10
sg14
S'Mike Evans'
p383
sg16
S'2014'
p384
sg18
S'15'
p385
sg20
S'--'
p386
sg22
S'12/14'
p387
sg24
S'6.5'
p388
sg26
S'--'
p389
sg28
S'--'
p390
sg30
S'L17-19'
p391
sg32
S'13'
p392
sg34
g209
sg36
S'@CAR'
p393
sg38
S'8T'
p394
sg40
g10
sg41
S'--'
p395
ssg119
(dp396
g5
S'--'
p397
sg7
S'--'
p398
sg9
g10
sg11
S'--'
p399
sg13
g10
sg14
S'Mike Evans'
p400
sg16
S'2014'
p401
sg18
S'14'
p402
sg20
S'--'
p403
sg22
S'12/07'
p404
sg24
S'11.3'
p405
sg26
S'--'
p406
sg28
S'--'
p407
sg30
S'L17-34'
p408
sg32
S'45'
p409
sg34
g35
sg36
S'@DET'
p410
sg38
S'26T'
p411
sg40
g209
sg41
S'--'
p412
ssg138
(dp413
g5
S'--'
p414
sg7
S'--'
p415
sg9
g10
sg11
S'--'
p416
sg13
g10
sg14
S'Mike Evans'
p417
sg16
S'2014'
p418
sg18
S'17'
p419
sg20
S'--'
p420
sg22
S'12/28'
p421
sg24
S'10.8'
p422
sg26
S'--'
p423
sg28
S'--'
p424
sg30
S'L20-23'
p425
sg32
S'54'
p426
sg34
g78
sg36
S'NO'
p427
sg38
S'18'
p428
sg40
g10
sg41
S'--'
p429
ssg156
(dp430
g5
S'--'
p431
sg7
S'--'
p432
sg9
g10
sg11
S'--'
p433
sg13
g10
sg14
S'Mike Evans'
p434
sg16
S'2014'
p435
sg18
S'16'
p436
sg20
S'--'
p437
sg22
S'12/21'
p438
sg24
S'12.3'
p439
sg26
S'--'
p440
sg28
S'--'
p441
sg30
S'L3-20'
p442
sg32
S'49'
p443
sg34
g35
sg36
S'GB'
p444
sg38
S'22'
p445
sg40
g61
sg41
S'--'
p446
ssg10
(dp447
g5
S'--'
p448
sg7
S'--'
p449
sg9
g10
sg11
S'--'
p450
sg13
g10
sg14
S'Mike Evans'
p451
sg16
S'2014'
p452
sg18
g10
sg20
S'--'
p453
sg22
S'09/07'
p454
sg24
S'7.4'
p455
sg26
S'--'
p456
sg28
S'--'
p457
sg30
S'L14-20'
p458
sg32
S'37'
p459
sg34
g78
sg36
S'CAR'
p460
sg38
S'11'
p461
sg40
g61
sg41
S'--'
p462
ssg134
(dp463
g5
S'--'
p464
sg7
S'--'
p465
sg9
g10
sg11
S'--'
p466
sg13
g10
sg14
S'Mike Evans'
p467
sg16
S'2014'
p468
sg18
g134
sg20
S'--'
p469
sg22
S'09/18'
p470
sg24
S'13.0'
p471
sg26
S'--'
p472
sg28
S'--'
p473
sg30
S'L14-56'
p474
sg32
S'52'
p475
sg34
g35
sg36
S'@ATL'
p476
sg38
S'36'
p477
sg40
g61
sg41
S'--'
p478
ssg209
(dp479
g5
S'--'
p480
sg7
S'--'
p481
sg9
g10
sg11
S'--'
p482
sg13
g10
sg14
S'Mike Evans'
p483
sg16
S'2014'
p484
sg18
g209
sg20
S'--'
p485
sg22
S'09/14'
p486
sg24
S'12.3'
p487
sg26
S'--'
p488
sg28
S'--'
p489
sg30
S'L17-19'
p490
sg32
S'49'
p491
sg34
g35
sg36
S'STL'
p492
sg38
S'29'
p493
sg40
g61
sg41
S'--'
p494
ssg78
(dp495
g5
S'--'
p496
sg7
S'--'
p497
sg9
g61
sg11
S'--'
p498
sg13
g61
sg14
S'Mike Evans'
p499
sg16
S'2014'
p500
sg18
g78
sg20
S'--'
p501
sg22
S'10/05'
p502
sg24
S'--'
p503
sg26
S'--'
p504
sg28
S'--'
p505
sg30
S'L31-37'
p506
sg32
S'--'
p507
sg34
S'--'
p508
sg36
S'@NO'
p509
sg38
S'--'
p510
sg40
S'--'
p511
sg41
S'--'
p512
ssg35
(dp513
g5
S'--'
p514
sg7
S'--'
p515
sg9
g10
sg11
S'--'
p516
sg13
g10
sg14
S'Mike Evans'
p517
sg16
S'2014'
p518
sg18
g35
sg20
S'--'
p519
sg22
S'09/28'
p520
sg24
S'16.3'
p521
sg26
S'--'
p522
sg28
S'--'
p523
sg30
S'W27-24'
p524
sg32
S'65'
p525
sg34
g35
sg36
S'@PIT'
p526
sg38
S'40'
p527
sg40
g10
sg41
S'--'
p528
ssg205
(dp529
g5
g275
sg7
g275
sg9
g275
sg11
g275
sg13
g275
sg14
S'Mike Evans'
p530
sg16
S'2014'
p531
sg18
g205
sg20
g275
sg22
S'Bye'
p532
sg24
g275
sg26
g275
sg28
g275
sg30
g275
sg32
g275
sg34
g275
sg36
g275
sg38
g275
sg40
g275
sg41
g275
ssg273
(dp533
g5
S'--'
p534
sg7
S'--'
p535
sg9
g10
sg11
S'--'
p536
sg13
g10
sg14
S'Mike Evans'
p537
sg16
S'2014'
p538
sg18
g273
sg20
S'--'
p539
sg22
S'10/12'
p540
sg24
S'13.8'
p541
sg26
S'--'
p542
sg28
S'--'
p543
sg30
S'L17-48'
p544
sg32
S'55'
p545
sg34
g35
sg36
S'BAL'
p546
sg38
S'25'
p547
sg40
g10
sg41
S'--'
p548
ssg115
(dp549
g5
S'--'
p550
sg7
S'--'
p551
sg9
g10
sg11
S'--'
p552
sg13
g10
sg14
S'Mike Evans'
p553
sg16
S'2014'
p554
sg18
g115
sg20
S'--'
p555
sg22
S'11/02'
p556
sg24
S'17.7'
p557
sg26
S'--'
p558
sg28
S'--'
p559
sg30
S'L17-22'
p560
sg32
S'124'
p561
sg34
g205
sg36
S'@CLE'
p562
sg38
S'31'
p563
sg40
g209
sg41
S'--'
p564
ssg58
(dp565
g5
S'--'
p566
sg7
S'--'
p567
sg9
g10
sg11
S'--'
p568
sg13
g10
sg14
S'Mike Evans'
p569
sg16
S'2014'
p570
sg18
g58
sg20
S'--'
p571
sg22
S'10/26'
p572
sg24
S'19.5'
p573
sg26
S'--'
p574
sg28
S'--'
p575
sg30
S'L13-19'
p576
sg32
S'78'
p577
sg34
g35
sg36
S'MIN'
p578
sg38
S'40'
p579
sg40
g61
sg41
S'--'
p580
sss.