(dp0
S'2015'
p1
(dp2
S'11'
p3
(dp4
S'RushTD'
p5
S'0'
p6
sS'RushYds'
p7
S'6'
p8
sS'GS'
p9
S'1'
p10
sS'Lost'
p11
S'--'
p12
sS'G'
p13
g10
sS'Player'
p14
S'Mike Wallace'
p15
sS'Year'
p16
S'2015'
p17
sS'WK'
p18
S'11'
p19
sS'RushAvg'
p20
S'6.0'
p21
sS'Game Date'
p22
S'11/22'
p23
sS'RecAvg'
p24
S'--'
p25
sS'FUM'
p26
S'--'
p27
sS'RushAtt'
p28
g10
sS'Result'
p29
S'L13-30'
p30
sS'RecYds'
p31
g6
sS'Rec'
p32
g6
sS'Opp'
p33
S'GB'
p34
sS'RecLng'
p35
S'--'
p36
sS'RecTD'
p37
g6
sS'RushLng'
p38
g8
ssS'10'
p39
(dp40
g5
S'--'
p41
sg7
S'--'
p42
sg9
g10
sg11
S'--'
p43
sg13
g10
sg14
S'Mike Wallace'
p44
sg16
S'2015'
p45
sg18
S'10'
p46
sg20
S'--'
p47
sg22
S'11/15'
p48
sg24
S'22.0'
p49
sg26
S'--'
p50
sg28
S'--'
p51
sg29
S'W30-14'
p52
sg31
S'22'
p53
sg32
g10
sg33
S'@OAK'
p54
sg35
S'22'
p55
sg37
g6
sg38
S'--'
p56
ssS'13'
p57
(dp58
g5
S'--'
p59
sg7
S'--'
p60
sg9
g6
sg11
S'--'
p61
sg13
g10
sg14
S'Mike Wallace'
p62
sg16
S'2015'
p63
sg18
S'13'
p64
sg20
S'--'
p65
sg22
S'12/06'
p66
sg24
S'21.5'
p67
sg26
S'--'
p68
sg28
S'--'
p69
sg29
S'L7-38'
p70
sg31
S'43'
p71
sg32
S'2'
p72
sg33
S'SEA'
p73
sg35
S'25'
p74
sg37
g6
sg38
S'--'
p75
ssS'12'
p76
(dp77
g5
S'--'
p78
sg7
S'--'
p79
sg9
g10
sg11
S'--'
p80
sg13
g10
sg14
S'Mike Wallace'
p81
sg16
S'2015'
p82
sg18
S'12'
p83
sg20
S'--'
p84
sg22
S'11/29'
p85
sg24
S'--'
p86
sg26
S'--'
p87
sg28
S'--'
p88
sg29
S'W20-10'
p89
sg31
S'--'
p90
sg32
S'--'
p91
sg33
S'@ATL'
p92
sg35
S'--'
p93
sg37
S'--'
p94
sg38
S'--'
p95
ssS'15'
p96
(dp97
g5
S'--'
p98
sg7
S'--'
p99
sg9
g6
sg11
S'--'
p100
sg13
g10
sg14
S'Mike Wallace'
p101
sg16
S'2015'
p102
sg18
S'15'
p103
sg20
S'--'
p104
sg22
S'12/20'
p105
sg24
S'12.3'
p106
sg26
S'--'
p107
sg28
S'--'
p108
sg29
S'W38-17'
p109
sg31
S'37'
p110
sg32
S'3'
p111
sg33
S'CHI'
p112
sg35
S'34'
p113
sg37
g6
sg38
S'--'
p114
ssS'14'
p115
(dp116
g5
S'--'
p117
sg7
S'--'
p118
sg9
g10
sg11
S'--'
p119
sg13
g10
sg14
S'Mike Wallace'
p120
sg16
S'2015'
p121
sg18
S'14'
p122
sg20
S'--'
p123
sg22
S'12/10'
p124
sg24
S'14.0'
p125
sg26
S'--'
p126
sg28
S'--'
p127
sg29
S'L20-23'
p128
sg31
S'42'
p129
sg32
g111
sg33
S'@ARI'
p130
sg35
S'23'
p131
sg37
g10
sg38
S'--'
p132
ssS'17'
p133
(dp134
g5
S'--'
p135
sg7
S'--'
p136
sg9
g10
sg11
S'--'
p137
sg13
g10
sg14
S'Mike Wallace'
p138
sg16
S'2015'
p139
sg18
S'17'
p140
sg20
S'--'
p141
sg22
S'01/03'
p142
sg24
S'22.0'
p143
sg26
S'--'
p144
sg28
S'--'
p145
sg29
S'W20-13'
p146
sg31
S'22'
p147
sg32
g10
sg33
S'@GB'
p148
sg35
S'22'
p149
sg37
g6
sg38
S'--'
p150
ssS'16'
p151
(dp152
g5
S'--'
p153
sg7
S'--'
p154
sg9
g6
sg11
S'--'
p155
sg13
g10
sg14
S'Mike Wallace'
p156
sg16
S'2015'
p157
sg18
S'16'
p158
sg20
S'--'
p159
sg22
S'12/27'
p160
sg24
S'5.5'
p161
sg26
S'--'
p162
sg28
S'--'
p163
sg29
S'W49-17'
p164
sg31
S'11'
p165
sg32
g72
sg33
S'NYG'
p166
sg35
S'8'
p167
sg37
g6
sg38
S'--'
p168
ssg10
(dp169
g5
S'--'
p170
sg7
S'--'
p171
sg9
g10
sg11
S'--'
p172
sg13
g10
sg14
S'Mike Wallace'
p173
sg16
S'2015'
p174
sg18
g10
sg20
S'--'
p175
sg22
S'09/14'
p176
sg24
S'10.5'
p177
sg26
S'--'
p178
sg28
S'--'
p179
sg29
S'L3-20'
p180
sg31
S'63'
p181
sg32
g8
sg33
S'@SF'
p182
sg35
S'19'
p183
sg37
g6
sg38
S'--'
p184
ssg111
(dp185
g5
S'--'
p186
sg7
S'--'
p187
sg9
g10
sg11
S'--'
p188
sg13
g10
sg14
S'Mike Wallace'
p189
sg16
S'2015'
p190
sg18
g111
sg20
S'--'
p191
sg22
S'09/27'
p192
sg24
S'16.3'
p193
sg26
S'--'
p194
sg28
S'--'
p195
sg29
S'W31-14'
p196
sg31
S'49'
p197
sg32
g111
sg33
S'SD'
p198
sg35
S'19'
p199
sg37
g6
sg38
S'--'
p200
ssg72
(dp201
g5
S'--'
p202
sg7
S'--'
p203
sg9
g10
sg11
S'--'
p204
sg13
g10
sg14
S'Mike Wallace'
p205
sg16
S'2015'
p206
sg18
g72
sg20
S'--'
p207
sg22
S'09/20'
p208
sg24
S'12.7'
p209
sg26
S'--'
p210
sg28
S'--'
p211
sg29
S'W26-16'
p212
sg31
S'38'
p213
sg32
g111
sg33
S'DET'
p214
sg35
S'22'
p215
sg37
g6
sg38
S'--'
p216
ssS'5'
p217
(dp218
g5
S''
p219
sg7
g219
sg9
g219
sg11
g219
sg13
g219
sg14
S'Mike Wallace'
p220
sg16
S'2015'
p221
sg18
g217
sg20
g219
sg22
S'Bye'
p222
sg24
g219
sg26
g219
sg28
g219
sg29
g219
sg31
g219
sg32
g219
sg33
g219
sg35
g219
sg37
g219
sg38
g219
ssS'4'
p223
(dp224
g5
S'--'
p225
sg7
S'--'
p226
sg9
g6
sg11
S'--'
p227
sg13
g10
sg14
S'Mike Wallace'
p228
sg16
S'2015'
p229
sg18
g223
sg20
S'--'
p230
sg22
S'10/04'
p231
sg24
S'10.4'
p232
sg26
S'--'
p233
sg28
S'--'
p234
sg29
S'L20-23'
p235
sg31
S'83'
p236
sg32
g167
sg33
S'@DEN'
p237
sg35
S'18'
p238
sg37
g10
sg38
S'--'
p239
ssS'7'
p240
(dp241
g5
S'--'
p242
sg7
S'--'
p243
sg9
g10
sg11
S'--'
p244
sg13
g10
sg14
S'Mike Wallace'
p245
sg16
S'2015'
p246
sg18
g240
sg20
S'--'
p247
sg22
S'10/25'
p248
sg24
S'9.0'
p249
sg26
S'--'
p250
sg28
S'--'
p251
sg29
S'W28-19'
p252
sg31
S'36'
p253
sg32
g223
sg33
S'@DET'
p254
sg35
S'17'
p255
sg37
g6
sg38
S'--'
p256
ssg8
(dp257
g5
S'--'
p258
sg7
S'--'
p259
sg9
g10
sg11
S'--'
p260
sg13
g10
sg14
S'Mike Wallace'
p261
sg16
S'2015'
p262
sg18
g8
sg20
S'--'
p263
sg22
S'10/18'
p264
sg24
S'11.5'
p265
sg26
S'--'
p266
sg28
S'--'
p267
sg29
S'W16-10'
p268
sg31
S'23'
p269
sg32
g72
sg33
S'KC'
p270
sg35
S'13'
p271
sg37
g6
sg38
S'--'
p272
ssS'9'
p273
(dp274
g5
S'--'
p275
sg7
S'--'
p276
sg9
g10
sg11
S'--'
p277
sg13
g10
sg14
S'Mike Wallace'
p278
sg16
S'2015'
p279
sg18
g273
sg20
S'--'
p280
sg22
S'11/08'
p281
sg24
S'4.0'
p282
sg26
S'--'
p283
sg28
S'--'
p284
sg29
S'W21-18'
p285
sg31
g223
sg32
g10
sg33
S'STL'
p286
sg35
g223
sg37
g6
sg38
S'--'
p287
ssg167
(dp288
g5
S'--'
p289
sg7
S'--'
p290
sg9
g10
sg11
S'--'
p291
sg13
g10
sg14
S'Mike Wallace'
p292
sg16
S'2015'
p293
sg18
g167
sg20
S'--'
p294
sg22
S'11/01'
p295
sg24
S'--'
p296
sg26
S'--'
p297
sg28
S'--'
p298
sg29
S'W23-20'
p299
sg31
g6
sg32
g6
sg33
S'@CHI'
p300
sg35
S'--'
p301
sg37
g6
sg38
S'--'
p302
sssS'2014'
p303
(dp304
g3
(dp305
g5
S'--'
p306
sg7
S'--'
p307
sg9
g10
sg11
S'--'
p308
sg13
g10
sg14
S'Mike Wallace'
p309
sg16
S'2014'
p310
sg18
S'11'
p311
sg20
S'--'
p312
sg22
S'11/13'
p313
sg24
S'9.5'
p314
sg26
S'--'
p315
sg28
S'--'
p316
sg29
S'W22-9'
p317
sg31
S'38'
p318
sg32
g223
sg33
S'BUF'
p319
sg35
S'17'
p320
sg37
g6
sg38
S'--'
p321
ssg39
(dp322
g5
S'--'
p323
sg7
S'--'
p324
sg9
g10
sg11
S'--'
p325
sg13
g10
sg14
S'Mike Wallace'
p326
sg16
S'2014'
p327
sg18
S'10'
p328
sg20
S'--'
p329
sg22
S'11/09'
p330
sg24
S'10.2'
p331
sg26
S'--'
p332
sg28
S'--'
p333
sg29
S'L16-20'
p334
sg31
S'51'
p335
sg32
g217
sg33
S'@DET'
p336
sg35
S'20'
p337
sg37
g10
sg38
S'--'
p338
ssg57
(dp339
g5
S'--'
p340
sg7
S'--'
p341
sg9
g10
sg11
S'--'
p342
sg13
g10
sg14
S'Mike Wallace'
p343
sg16
S'2014'
p344
sg18
S'13'
p345
sg20
S'--'
p346
sg22
S'12/01'
p347
sg24
S'11.5'
p348
sg26
S'--'
p349
sg28
S'--'
p350
sg29
S'W16-13'
p351
sg31
S'69'
p352
sg32
g8
sg33
S'@NYJ'
p353
sg35
S'25'
p354
sg37
g6
sg38
S'--'
p355
ssg76
(dp356
g5
S'--'
p357
sg7
S'--'
p358
sg9
g10
sg11
S'--'
p359
sg13
g10
sg14
S'Mike Wallace'
p360
sg16
S'2014'
p361
sg18
S'12'
p362
sg20
S'--'
p363
sg22
S'11/23'
p364
sg24
S'8.8'
p365
sg26
S'--'
p366
sg28
S'--'
p367
sg29
S'L36-39'
p368
sg31
S'35'
p369
sg32
g223
sg33
S'@DEN'
p370
sg35
S'11'
p371
sg37
g10
sg38
S'--'
p372
ssg96
(dp373
g5
g6
sg7
g6
sg9
g10
sg11
S'--'
p374
sg13
g10
sg14
S'Mike Wallace'
p375
sg16
S'2014'
p376
sg18
S'15'
p377
sg20
S'0.0'
p378
sg22
S'12/14'
p379
sg24
S'20.8'
p380
sg26
S'--'
p381
sg28
g10
sg29
S'L13-41'
p382
sg31
S'104'
p383
sg32
g217
sg33
S'@NE'
p384
sg35
S'50'
p385
sg37
g10
sg38
g6
ssg115
(dp386
g5
S'--'
p387
sg7
S'--'
p388
sg9
g10
sg11
S'--'
p389
sg13
g10
sg14
S'Mike Wallace'
p390
sg16
S'2014'
p391
sg18
S'14'
p392
sg20
S'--'
p393
sg22
S'12/07'
p394
sg24
S'13.0'
p395
sg26
S'--'
p396
sg28
S'--'
p397
sg29
S'L13-28'
p398
sg31
S'39'
p399
sg32
g111
sg33
S'BAL'
p400
sg35
S'17'
p401
sg37
g6
sg38
S'--'
p402
ssg133
(dp403
g5
S'--'
p404
sg7
S'--'
p405
sg9
g10
sg11
S'--'
p406
sg13
g10
sg14
S'Mike Wallace'
p407
sg16
S'2014'
p408
sg18
S'17'
p409
sg20
S'--'
p410
sg22
S'12/28'
p411
sg24
S'--'
p412
sg26
S'--'
p413
sg28
S'--'
p414
sg29
S'L24-37'
p415
sg31
g6
sg32
g6
sg33
S'NYJ'
p416
sg35
S'--'
p417
sg37
g6
sg38
S'--'
p418
ssg151
(dp419
g5
S'--'
p420
sg7
S'--'
p421
sg9
g10
sg11
S'--'
p422
sg13
g10
sg14
S'Mike Wallace'
p423
sg16
S'2014'
p424
sg18
S'16'
p425
sg20
S'--'
p426
sg22
S'12/21'
p427
sg24
S'11.6'
p428
sg26
S'--'
p429
sg28
S'--'
p430
sg29
S'W37-35'
p431
sg31
S'58'
p432
sg32
g217
sg33
S'MIN'
p433
sg35
S'16T'
p434
sg37
g72
sg38
S'--'
p435
ssg10
(dp436
g5
S'--'
p437
sg7
S'--'
p438
sg9
g10
sg11
g10
sg13
g10
sg14
S'Mike Wallace'
p439
sg16
S'2014'
p440
sg18
g10
sg20
S'--'
p441
sg22
S'09/07'
p442
sg24
S'11.6'
p443
sg26
g10
sg28
S'--'
p444
sg29
S'W33-20'
p445
sg31
S'81'
p446
sg32
g240
sg33
S'NE'
p447
sg35
S'22'
p448
sg37
g10
sg38
S'--'
p449
ssg111
(dp450
g5
g6
sg7
S'12'
p451
sg9
g10
sg11
S'--'
p452
sg13
g10
sg14
S'Mike Wallace'
p453
sg16
S'2014'
p454
sg18
g111
sg20
S'12.0'
p455
sg22
S'09/21'
p456
sg24
S'14.8'
p457
sg26
S'--'
p458
sg28
g10
sg29
S'L15-34'
p459
sg31
S'74'
p460
sg32
g217
sg33
S'KC'
p461
sg35
S'30'
p462
sg37
g6
sg38
S'12'
p463
ssg72
(dp464
g5
S'--'
p465
sg7
S'--'
p466
sg9
g10
sg11
S'--'
p467
sg13
g10
sg14
S'Mike Wallace'
p468
sg16
S'2014'
p469
sg18
g72
sg20
S'--'
p470
sg22
S'09/14'
p471
sg24
S'11.2'
p472
sg26
S'--'
p473
sg28
S'--'
p474
sg29
S'L10-29'
p475
sg31
S'56'
p476
sg32
g217
sg33
S'@BUF'
p477
sg35
S'18'
p478
sg37
g10
sg38
S'--'
p479
ssg217
(dp480
g5
g219
sg7
g219
sg9
g219
sg11
g219
sg13
g219
sg14
S'Mike Wallace'
p481
sg16
S'2014'
p482
sg18
g217
sg20
g219
sg22
S'Bye'
p483
sg24
g219
sg26
g219
sg28
g219
sg29
g219
sg31
g219
sg32
g219
sg33
g219
sg35
g219
sg37
g219
sg38
g219
ssg223
(dp484
g5
g6
sg7
g6
sg9
g10
sg11
g6
sg13
g10
sg14
S'Mike Wallace'
p485
sg16
S'2014'
p486
sg18
g223
sg20
S'0.0'
p487
sg22
S'09/28'
p488
sg24
S'11.7'
p489
sg26
g10
sg28
g10
sg29
S'W38-14'
p490
sg31
S'35'
p491
sg32
g111
sg33
S'@OAK'
p492
sg35
S'16'
p493
sg37
g10
sg38
g6
ssg240
(dp494
g5
g6
sg7
g223
sg9
g10
sg11
S'--'
p495
sg13
g10
sg14
S'Mike Wallace'
p496
sg16
S'2014'
p497
sg18
g240
sg20
S'4.0'
p498
sg22
S'10/19'
p499
sg24
S'9.2'
p500
sg26
S'--'
p501
sg28
g10
sg29
S'W27-14'
p502
sg31
S'46'
p503
sg32
g217
sg33
S'@CHI'
p504
sg35
S'12'
p505
sg37
g10
sg38
g223
ssg8
(dp506
g5
S'--'
p507
sg7
S'--'
p508
sg9
g10
sg11
S'--'
p509
sg13
g10
sg14
S'Mike Wallace'
p510
sg16
S'2014'
p511
sg18
g8
sg20
S'--'
p512
sg22
S'10/12'
p513
sg24
S'13.4'
p514
sg26
S'--'
p515
sg28
S'--'
p516
sg29
S'L24-27'
p517
sg31
S'67'
p518
sg32
g217
sg33
S'GB'
p519
sg35
S'25'
p520
sg37
g10
sg38
S'--'
p521
ssg273
(dp522
g5
S'--'
p523
sg7
S'--'
p524
sg9
g10
sg11
S'--'
p525
sg13
g10
sg14
S'Mike Wallace'
p526
sg16
S'2014'
p527
sg18
g273
sg20
S'--'
p528
sg22
S'11/02'
p529
sg24
S'16.7'
p530
sg26
S'--'
p531
sg28
S'--'
p532
sg29
S'W37-0'
p533
sg31
S'50'
p534
sg32
g111
sg33
S'SD'
p535
sg35
S'38'
p536
sg37
g6
sg38
S'--'
p537
ssg167
(dp538
g5
S'--'
p539
sg7
S'--'
p540
sg9
g10
sg11
S'--'
p541
sg13
g10
sg14
S'Mike Wallace'
p542
sg16
S'2014'
p543
sg18
g167
sg20
S'--'
p544
sg22
S'10/26'
p545
sg24
S'29.5'
p546
sg26
S'--'
p547
sg28
S'--'
p548
sg29
S'W27-13'
p549
sg31
S'59'
p550
sg32
g72
sg33
S'@JAC'
p551
sg35
S'50'
p552
sg37
g6
sg38
S'--'
p553
sssS'2011'
p554
(dp555
g3
(dp556
g5
g219
sg7
g219
sg9
g219
sg11
g219
sg13
g219
sg14
S'Mike Wallace'
p557
sg16
S'2011'
p558
sg18
S'11'
p559
sg20
g219
sg22
S'Bye'
p560
sg24
g219
sg26
g219
sg28
g219
sg29
g219
sg31
g219
sg32
g219
sg33
g219
sg35
g219
sg37
g219
sg38
g219
ssg39
(dp561
g5
g6
sg7
S'31'
p562
sg9
g10
sg11
S'--'
p563
sg13
g10
sg14
S'Mike Wallace'
p564
sg16
S'2011'
p565
sg18
S'10'
p566
sg20
S'15.5'
p567
sg22
S'11/13'
p568
sg24
S'9.0'
p569
sg26
S'--'
p570
sg28
g72
sg29
S'W24-17'
p571
sg31
S'54'
p572
sg32
g8
sg33
S'@CIN'
p573
sg35
S'13'
p574
sg37
g6
sg38
S'16'
p575
ssg57
(dp576
g5
g6
sg7
S'-3'
p577
sg9
g10
sg11
S'--'
p578
sg13
g10
sg14
S'Mike Wallace'
p579
sg16
S'2011'
p580
sg18
S'13'
p581
sg20
S'-3.0'
p582
sg22
S'12/04'
p583
sg24
S'12.7'
p584
sg26
S'--'
p585
sg28
g10
sg29
S'W35-7'
p586
sg31
S'38'
p587
sg32
g111
sg33
S'CIN'
p588
sg35
S'19T'
p589
sg37
g72
sg38
S'-3'
p590
ssg76
(dp591
g5
S'--'
p592
sg7
S'--'
p593
sg9
g6
sg11
S'--'
p594
sg13
g10
sg14
S'Mike Wallace'
p595
sg16
S'2011'
p596
sg18
S'12'
p597
sg20
S'--'
p598
sg22
S'11/27'
p599
sg24
S'8.5'
p600
sg26
S'--'
p601
sg28
S'--'
p602
sg29
S'W13-9'
p603
sg31
S'17'
p604
sg32
g72
sg33
S'@KC'
p605
sg35
g273
sg37
g6
sg38
S'--'
p606
ssg96
(dp607
g5
S'--'
p608
sg7
S'--'
p609
sg9
g10
sg11
S'--'
p610
sg13
g10
sg14
S'Mike Wallace'
p611
sg16
S'2011'
p612
sg18
S'15'
p613
sg20
S'--'
p614
sg22
S'12/19'
p615
sg24
S'13.2'
p616
sg26
S'--'
p617
sg28
S'--'
p618
sg29
S'L3-20'
p619
sg31
S'66'
p620
sg32
g217
sg33
S'@SF'
p621
sg35
S'36'
p622
sg37
g6
sg38
S'--'
p623
ssg115
(dp624
g5
g6
sg7
S'21'
p625
sg9
g10
sg11
S'--'
p626
sg13
g10
sg14
S'Mike Wallace'
p627
sg16
S'2011'
p628
sg18
S'14'
p629
sg20
S'21.0'
p630
sg22
S'12/08'
p631
sg24
S'14.3'
p632
sg26
S'--'
p633
sg28
g10
sg29
S'W14-3'
p634
sg31
S'57'
p635
sg32
g223
sg33
S'CLE'
p636
sg35
S'22'
p637
sg37
g6
sg38
S'21'
p638
ssg133
(dp639
g5
S'--'
p640
sg7
S'--'
p641
sg9
g10
sg11
S'--'
p642
sg13
g10
sg14
S'Mike Wallace'
p643
sg16
S'2011'
p644
sg18
S'17'
p645
sg20
S'--'
p646
sg22
S'01/01'
p647
sg24
S'11.0'
p648
sg26
S'--'
p649
sg28
S'--'
p650
sg29
S'W13-9'
p651
sg31
S'11'
p652
sg32
g10
sg33
S'@CLE'
p653
sg35
S'11'
p654
sg37
g6
sg38
S'--'
p655
ssg151
(dp656
g5
S'--'
p657
sg7
S'--'
p658
sg9
g6
sg11
S'--'
p659
sg13
g10
sg14
S'Mike Wallace'
p660
sg16
S'2011'
p661
sg18
S'16'
p662
sg20
S'--'
p663
sg22
S'12/24'
p664
sg24
S'20.5'
p665
sg26
S'--'
p666
sg28
S'--'
p667
sg29
S'W27-0'
p668
sg31
S'82'
p669
sg32
g223
sg33
S'STL'
p670
sg35
S'46'
p671
sg37
g6
sg38
S'--'
p672
ssg10
(dp673
g5
S'--'
p674
sg7
S'--'
p675
sg9
g10
sg11
S'--'
p676
sg13
g10
sg14
S'Mike Wallace'
p677
sg16
S'2011'
p678
sg18
g10
sg20
S'--'
p679
sg22
S'09/11'
p680
sg24
S'13.4'
p681
sg26
S'--'
p682
sg28
S'--'
p683
sg29
S'L7-35'
p684
sg31
S'107'
p685
sg32
g167
sg33
S'@BAL'
p686
sg35
S'26'
p687
sg37
g6
sg38
S'--'
p688
ssg111
(dp689
g5
S'--'
p690
sg7
S'--'
p691
sg9
g10
sg11
S'--'
p692
sg13
g10
sg14
S'Mike Wallace'
p693
sg16
S'2011'
p694
sg18
g111
sg20
S'--'
p695
sg22
S'09/25'
p696
sg24
S'28.8'
p697
sg26
S'--'
p698
sg28
S'--'
p699
sg29
S'W23-20'
p700
sg31
S'144'
p701
sg32
g217
sg33
S'@IND'
p702
sg35
S'81T'
p703
sg37
g10
sg38
S'--'
p704
ssg72
(dp705
g5
S'--'
p706
sg7
S'--'
p707
sg9
g10
sg11
S'--'
p708
sg13
g10
sg14
S'Mike Wallace'
p709
sg16
S'2011'
p710
sg18
g72
sg20
S'--'
p711
sg22
S'09/18'
p712
sg24
S'15.8'
p713
sg26
S'--'
p714
sg28
S'--'
p715
sg29
S'W24-0'
p716
sg31
S'126'
p717
sg32
g167
sg33
S'SEA'
p718
sg35
S'53'
p719
sg37
g10
sg38
S'--'
p720
ssg217
(dp721
g5
g6
sg7
g167
sg9
g10
sg11
S'--'
p722
sg13
g10
sg14
S'Mike Wallace'
p723
sg16
S'2011'
p724
sg18
g217
sg20
S'8.0'
p725
sg22
S'10/09'
p726
sg24
S'13.7'
p727
sg26
S'--'
p728
sg28
g10
sg29
S'W38-17'
p729
sg31
S'82'
p730
sg32
g8
sg33
S'TEN'
p731
sg35
S'40T'
p732
sg37
g10
sg38
g167
ssg223
(dp733
g5
S'--'
p734
sg7
S'--'
p735
sg9
g10
sg11
S'--'
p736
sg13
g10
sg14
S'Mike Wallace'
p737
sg16
S'2011'
p738
sg18
g223
sg20
S'--'
p739
sg22
S'10/02'
p740
sg24
S'19.3'
p741
sg26
S'--'
p742
sg28
S'--'
p743
sg29
S'L10-17'
p744
sg31
S'77'
p745
sg32
g223
sg33
S'@HOU'
p746
sg35
S'40'
p747
sg37
g6
sg38
S'--'
p748
ssg240
(dp749
g5
S'--'
p750
sg7
S'--'
p751
sg9
g10
sg11
S'--'
p752
sg13
g10
sg14
S'Mike Wallace'
p753
sg16
S'2011'
p754
sg18
g240
sg20
S'--'
p755
sg22
S'10/23'
p756
sg24
S'39.3'
p757
sg26
S'--'
p758
sg28
S'--'
p759
sg29
S'W32-20'
p760
sg31
S'118'
p761
sg32
g111
sg33
S'@ARI'
p762
sg35
S'95T'
p763
sg37
g10
sg38
S'--'
p764
ssg8
(dp765
g5
S'--'
p766
sg7
S'--'
p767
sg9
g10
sg11
S'--'
p768
sg13
g10
sg14
S'Mike Wallace'
p769
sg16
S'2011'
p770
sg18
g8
sg20
S'--'
p771
sg22
S'10/16'
p772
sg24
S'38.0'
p773
sg26
S'--'
p774
sg28
S'--'
p775
sg29
S'W17-13'
p776
sg31
S'76'
p777
sg32
g72
sg33
S'JAC'
p778
sg35
S'48'
p779
sg37
g10
sg38
S'--'
p780
ssg273
(dp781
g5
S'--'
p782
sg7
S'--'
p783
sg9
g10
sg11
g10
sg13
g10
sg14
S'Mike Wallace'
p784
sg16
S'2011'
p785
sg18
g273
sg20
S'--'
p786
sg22
S'11/06'
p787
sg24
S'17.0'
p788
sg26
g10
sg28
S'--'
p789
sg29
S'L20-23'
p790
sg31
S'68'
p791
sg32
g223
sg33
S'BAL'
p792
sg35
S'25T'
p793
sg37
g10
sg38
S'--'
p794
ssg167
(dp795
g5
S'--'
p796
sg7
S'--'
p797
sg9
g10
sg11
S'--'
p798
sg13
g10
sg14
S'Mike Wallace'
p799
sg16
S'2011'
p800
sg18
g167
sg20
S'--'
p801
sg22
S'10/30'
p802
sg24
S'10.0'
p803
sg26
S'--'
p804
sg28
S'--'
p805
sg29
S'W25-17'
p806
sg31
S'70'
p807
sg32
g240
sg33
S'NE'
p808
sg35
S'16'
p809
sg37
g6
sg38
S'--'
p810
sssS'2010'
p811
(dp812
g3
(dp813
g5
g6
sg7
S'19'
p814
sg9
g10
sg11
S'--'
p815
sg13
g10
sg14
S'Mike Wallace'
p816
sg16
S'2010'
p817
sg18
S'11'
p818
sg20
S'19.0'
p819
sg22
S'11/21'
p820
sg24
S'38.7'
p821
sg26
S'--'
p822
sg28
g10
sg29
S'W35-3'
p823
sg31
S'116'
p824
sg32
g111
sg33
S'OAK'
p825
sg35
S'52T'
p826
sg37
g10
sg38
S'19'
p827
ssg39
(dp828
g5
S'--'
p829
sg7
S'--'
p830
sg9
g10
sg11
S'--'
p831
sg13
g10
sg14
S'Mike Wallace'
p832
sg16
S'2010'
p833
sg18
S'10'
p834
sg20
S'--'
p835
sg22
S'11/14'
p836
sg24
S'17.0'
p837
sg26
S'--'
p838
sg28
S'--'
p839
sg29
S'L26-39'
p840
sg31
S'136'
p841
sg32
g167
sg33
S'NE'
p842
sg35
S'33T'
p843
sg37
g72
sg38
S'--'
p844
ssg57
(dp845
g5
S'--'
p846
sg7
S'--'
p847
sg9
g10
sg11
S'--'
p848
sg13
g10
sg14
S'Mike Wallace'
p849
sg16
S'2010'
p850
sg18
S'13'
p851
sg20
S'--'
p852
sg22
S'12/05'
p853
sg24
S'15.2'
p854
sg26
S'--'
p855
sg28
S'--'
p856
sg29
S'W13-10'
p857
sg31
S'76'
p858
sg32
g217
sg33
S'@BAL'
p859
sg35
S'24'
p860
sg37
g6
sg38
S'--'
p861
ssg76
(dp862
g5
S'--'
p863
sg7
S'--'
p864
sg9
g10
sg11
S'--'
p865
sg13
g10
sg14
S'Mike Wallace'
p866
sg16
S'2010'
p867
sg18
S'12'
p868
sg20
S'--'
p869
sg22
S'11/28'
p870
sg24
S'11.0'
p871
sg26
S'--'
p872
sg28
S'--'
p873
sg29
S'W19-16'
p874
sg31
S'33'
p875
sg32
g111
sg33
S'@BUF'
p876
sg35
S'17'
p877
sg37
g6
sg38
S'--'
p878
ssg96
(dp879
g5
g6
sg7
g167
sg9
g10
sg11
S'--'
p880
sg13
g10
sg14
S'Mike Wallace'
p881
sg16
S'2010'
p882
sg18
S'15'
p883
sg20
S'8.0'
p884
sg22
S'12/19'
p885
sg24
S'14.6'
p886
sg26
S'--'
p887
sg28
g10
sg29
S'L17-22'
p888
sg31
S'102'
p889
sg32
g240
sg33
S'NYJ'
p890
sg35
S'23'
p891
sg37
g6
sg38
g167
ssg115
(dp892
g5
g6
sg7
S'12'
p893
sg9
g10
sg11
S'--'
p894
sg13
g10
sg14
S'Mike Wallace'
p895
sg16
S'2010'
p896
sg18
S'14'
p897
sg20
S'12.0'
p898
sg22
S'12/12'
p899
sg24
S'15.6'
p900
sg26
S'--'
p901
sg28
g10
sg29
S'W23-7'
p902
sg31
S'78'
p903
sg32
g217
sg33
S'CIN'
p904
sg35
S'33'
p905
sg37
g6
sg38
S'12'
p906
ssg133
(dp907
g5
S'--'
p908
sg7
S'--'
p909
sg9
g10
sg11
S'--'
p910
sg13
g10
sg14
S'Mike Wallace'
p911
sg16
S'2010'
p912
sg18
S'17'
p913
sg20
S'--'
p914
sg22
S'01/02'
p915
sg24
S'35.0'
p916
sg26
S'--'
p917
sg28
S'--'
p918
sg29
S'W41-9'
p919
sg31
S'105'
p920
sg32
g111
sg33
S'@CLE'
p921
sg35
S'56T'
p922
sg37
g10
sg38
S'--'
p923
ssg151
(dp924
g5
S'--'
p925
sg7
S'--'
p926
sg9
g10
sg11
S'--'
p927
sg13
g10
sg14
S'Mike Wallace'
p928
sg16
S'2010'
p929
sg18
S'16'
p930
sg20
S'--'
p931
sg22
S'12/23'
p932
sg24
S'26.0'
p933
sg26
S'--'
p934
sg28
S'--'
p935
sg29
S'W27-3'
p936
sg31
S'104'
p937
sg32
g223
sg33
S'CAR'
p938
sg35
S'43T'
p939
sg37
g10
sg38
S'--'
p940
ssg10
(dp941
g5
S'--'
p942
sg7
S'--'
p943
sg9
g10
sg11
S'--'
p944
sg13
g10
sg14
S'Mike Wallace'
p945
sg16
S'2010'
p946
sg18
g10
sg20
S'--'
p947
sg22
S'09/12'
p948
sg24
S'31.0'
p949
sg26
S'--'
p950
sg28
S'--'
p951
sg29
S'W15-9'
p952
sg31
S'62'
p953
sg32
g72
sg33
S'ATL'
p954
sg35
S'52'
p955
sg37
g6
sg38
S'--'
p956
ssg111
(dp957
g5
g6
sg7
S'-1'
p958
sg9
g10
sg11
S'--'
p959
sg13
g10
sg14
S'Mike Wallace'
p960
sg16
S'2010'
p961
sg18
g111
sg20
S'-1.0'
p962
sg22
S'09/26'
p963
sg24
S'33.3'
p964
sg26
S'--'
p965
sg28
g10
sg29
S'W38-13'
p966
sg31
S'100'
p967
sg32
g111
sg33
S'@TB'
p968
sg35
S'46T'
p969
sg37
g72
sg38
S'-1'
p970
ssg72
(dp971
g5
S'--'
p972
sg7
S'--'
p973
sg9
g10
sg11
S'--'
p974
sg13
g10
sg14
S'Mike Wallace'
p975
sg16
S'2010'
p976
sg18
g72
sg20
S'--'
p977
sg22
S'09/19'
p978
sg24
S'12.5'
p979
sg26
S'--'
p980
sg28
S'--'
p981
sg29
S'W19-11'
p982
sg31
S'25'
p983
sg32
g72
sg33
S'@TEN'
p984
sg35
S'15'
p985
sg37
g6
sg38
S'--'
p986
ssg217
(dp987
g5
g219
sg7
g219
sg9
g219
sg11
g219
sg13
g219
sg14
S'Mike Wallace'
p988
sg16
S'2010'
p989
sg18
g217
sg20
g219
sg22
S'Bye'
p990
sg24
g219
sg26
g219
sg28
g219
sg29
g219
sg31
g219
sg32
g219
sg33
g219
sg35
g219
sg37
g219
sg38
g219
ssg223
(dp991
g5
g6
sg7
g10
sg9
g10
sg11
S'--'
p992
sg13
g10
sg14
S'Mike Wallace'
p993
sg16
S'2010'
p994
sg18
g223
sg20
S'1.0'
p995
sg22
S'10/03'
p996
sg24
S'12.0'
p997
sg26
S'--'
p998
sg28
g10
sg29
S'L14-17'
p999
sg31
S'24'
p1000
sg32
g72
sg33
S'BAL'
p1001
sg35
S'20'
p1002
sg37
g6
sg38
g10
ssg240
(dp1003
g5
S'--'
p1004
sg7
S'--'
p1005
sg9
g10
sg11
S'--'
p1006
sg13
g10
sg14
S'Mike Wallace'
p1007
sg16
S'2010'
p1008
sg18
g240
sg20
S'--'
p1009
sg22
S'10/24'
p1010
sg24
S'26.5'
p1011
sg26
S'--'
p1012
sg28
S'--'
p1013
sg29
S'W23-22'
p1014
sg31
S'53'
p1015
sg32
g72
sg33
S'@MIA'
p1016
sg35
S'53T'
p1017
sg37
g10
sg38
S'--'
p1018
ssg8
(dp1019
g5
S'--'
p1020
sg7
S'--'
p1021
sg9
g10
sg11
S'--'
p1022
sg13
g10
sg14
S'Mike Wallace'
p1023
sg16
S'2010'
p1024
sg18
g8
sg20
S'--'
p1025
sg22
S'10/17'
p1026
sg24
S'30.0'
p1027
sg26
S'--'
p1028
sg28
S'--'
p1029
sg29
S'W28-10'
p1030
sg31
S'90'
p1031
sg32
g111
sg33
S'CLE'
p1032
sg35
S'50'
p1033
sg37
g10
sg38
S'--'
p1034
ssg273
(dp1035
g5
S'--'
p1036
sg7
S'--'
p1037
sg9
g10
sg11
g6
sg13
g10
sg14
S'Mike Wallace'
p1038
sg16
S'2010'
p1039
sg18
g273
sg20
S'--'
p1040
sg22
S'11/08'
p1041
sg24
S'22.0'
p1042
sg26
g10
sg28
S'--'
p1043
sg29
S'W27-21'
p1044
sg31
S'110'
p1045
sg32
g217
sg33
S'@CIN'
p1046
sg35
S'39T'
p1047
sg37
g10
sg38
S'--'
p1048
ssg167
(dp1049
g5
S'--'
p1050
sg7
S'--'
p1051
sg9
g10
sg11
S'--'
p1052
sg13
g10
sg14
S'Mike Wallace'
p1053
sg16
S'2010'
p1054
sg18
g167
sg20
S'--'
p1055
sg22
S'10/31'
p1056
sg24
S'14.3'
p1057
sg26
S'--'
p1058
sg28
S'--'
p1059
sg29
S'L10-20'
p1060
sg31
S'43'
p1061
sg32
g111
sg33
S'@NO'
p1062
sg35
S'21'
p1063
sg37
g6
sg38
S'--'
p1064
sssS'2013'
p1065
(dp1066
g3
(dp1067
g5
S'--'
p1068
sg7
S'--'
p1069
sg9
g10
sg11
S'--'
p1070
sg13
g10
sg14
S'Mike Wallace'
p1071
sg16
S'2013'
p1072
sg18
S'11'
p1073
sg20
S'--'
p1074
sg22
S'11/17'
p1075
sg24
S'9.8'
p1076
sg26
S'--'
p1077
sg28
S'--'
p1078
sg29
S'W20-16'
p1079
sg31
S'39'
p1080
sg32
g223
sg33
S'SD'
p1081
sg35
S'17'
p1082
sg37
g6
sg38
S'--'
p1083
ssg39
(dp1084
g5
S'--'
p1085
sg7
S'--'
p1086
sg9
g10
sg11
S'--'
p1087
sg13
g10
sg14
S'Mike Wallace'
p1088
sg16
S'2013'
p1089
sg18
S'10'
p1090
sg20
S'--'
p1091
sg22
S'11/11'
p1092
sg24
S'3.8'
p1093
sg26
S'--'
p1094
sg28
S'--'
p1095
sg29
S'L19-22'
p1096
sg31
S'15'
p1097
sg32
g223
sg33
S'@TB'
p1098
sg35
S'11'
p1099
sg37
g6
sg38
S'--'
p1100
ssg57
(dp1101
g5
S'--'
p1102
sg7
S'--'
p1103
sg9
g10
sg11
S'--'
p1104
sg13
g10
sg14
S'Mike Wallace'
p1105
sg16
S'2013'
p1106
sg18
S'13'
p1107
sg20
S'--'
p1108
sg22
S'12/01'
p1109
sg24
S'11.7'
p1110
sg26
S'--'
p1111
sg28
S'--'
p1112
sg29
S'W23-3'
p1113
sg31
S'82'
p1114
sg32
g240
sg33
S'@NYJ'
p1115
sg35
S'28T'
p1116
sg37
g10
sg38
S'--'
p1117
ssg76
(dp1118
g5
S'--'
p1119
sg7
S'--'
p1120
sg9
g10
sg11
S'--'
p1121
sg13
g10
sg14
S'Mike Wallace'
p1122
sg16
S'2013'
p1123
sg18
S'12'
p1124
sg20
S'--'
p1125
sg22
S'11/24'
p1126
sg24
S'25.4'
p1127
sg26
S'--'
p1128
sg28
S'--'
p1129
sg29
S'L16-20'
p1130
sg31
S'127'
p1131
sg32
g217
sg33
S'CAR'
p1132
sg35
S'57'
p1133
sg37
g10
sg38
S'--'
p1134
ssg96
(dp1135
g5
g6
sg7
S'13'
p1136
sg9
g10
sg11
S'--'
p1137
sg13
g10
sg14
S'Mike Wallace'
p1138
sg16
S'2013'
p1139
sg18
S'15'
p1140
sg20
S'13.0'
p1141
sg22
S'12/15'
p1142
sg24
S'17.5'
p1143
sg26
S'--'
p1144
sg28
g10
sg29
S'W24-20'
p1145
sg31
S'105'
p1146
sg32
g8
sg33
S'NE'
p1147
sg35
S'39T'
p1148
sg37
g10
sg38
S'13'
p1149
ssg115
(dp1150
g5
S'--'
p1151
sg7
S'--'
p1152
sg9
g10
sg11
S'--'
p1153
sg13
g10
sg14
S'Mike Wallace'
p1154
sg16
S'2013'
p1155
sg18
S'14'
p1156
sg20
S'--'
p1157
sg22
S'12/08'
p1158
sg24
S'9.5'
p1159
sg26
S'--'
p1160
sg28
S'--'
p1161
sg29
S'W34-28'
p1162
sg31
S'19'
p1163
sg32
g72
sg33
S'@PIT'
p1164
sg35
S'12'
p1165
sg37
g6
sg38
S'--'
p1166
ssg133
(dp1167
g5
S'--'
p1168
sg7
S'--'
p1169
sg9
g10
sg11
S'--'
p1170
sg13
g10
sg14
S'Mike Wallace'
p1171
sg16
S'2013'
p1172
sg18
S'17'
p1173
sg20
S'--'
p1174
sg22
S'12/29'
p1175
sg24
S'5.0'
p1176
sg26
S'--'
p1177
sg28
S'--'
p1178
sg29
S'L7-20'
p1179
sg31
S'25'
p1180
sg32
g217
sg33
S'NYJ'
p1181
sg35
S'13'
p1182
sg37
g10
sg38
S'--'
p1183
ssg151
(dp1184
g5
S'--'
p1185
sg7
S'--'
p1186
sg9
g10
sg11
S'--'
p1187
sg13
g10
sg14
S'Mike Wallace'
p1188
sg16
S'2013'
p1189
sg18
S'16'
p1190
sg20
S'--'
p1191
sg22
S'12/22'
p1192
sg24
S'9.5'
p1193
sg26
S'--'
p1194
sg28
S'--'
p1195
sg29
S'L0-19'
p1196
sg31
S'38'
p1197
sg32
g223
sg33
S'@BUF'
p1198
sg35
S'13'
p1199
sg37
g6
sg38
S'--'
p1200
ssg10
(dp1201
g5
S'--'
p1202
sg7
S'--'
p1203
sg9
g10
sg11
S'--'
p1204
sg13
g10
sg14
S'Mike Wallace'
p1205
sg16
S'2013'
p1206
sg18
g10
sg20
S'--'
p1207
sg22
S'09/08'
p1208
sg24
S'15.0'
p1209
sg26
S'--'
p1210
sg28
S'--'
p1211
sg29
S'W23-10'
p1212
sg31
S'15'
p1213
sg32
g10
sg33
S'@CLE'
p1214
sg35
S'15'
p1215
sg37
g6
sg38
S'--'
p1216
ssg111
(dp1217
g5
S'--'
p1218
sg7
S'--'
p1219
sg9
g10
sg11
S'--'
p1220
sg13
g10
sg14
S'Mike Wallace'
p1221
sg16
S'2013'
p1222
sg18
g111
sg20
S'--'
p1223
sg22
S'09/22'
p1224
sg24
S'11.0'
p1225
sg26
S'--'
p1226
sg28
S'--'
p1227
sg29
S'W27-23'
p1228
sg31
S'22'
p1229
sg32
g72
sg33
S'ATL'
p1230
sg35
S'12'
p1231
sg37
g6
sg38
S'--'
p1232
ssg72
(dp1233
g5
S'--'
p1234
sg7
S'--'
p1235
sg9
g10
sg11
S'--'
p1236
sg13
g10
sg14
S'Mike Wallace'
p1237
sg16
S'2013'
p1238
sg18
g72
sg20
S'--'
p1239
sg22
S'09/15'
p1240
sg24
S'12.8'
p1241
sg26
S'--'
p1242
sg28
S'--'
p1243
sg29
S'W24-20'
p1244
sg31
S'115'
p1245
sg32
g273
sg33
S'@IND'
p1246
sg35
S'34'
p1247
sg37
g10
sg38
S'--'
p1248
ssg217
(dp1249
g5
S'--'
p1250
sg7
S'--'
p1251
sg9
g10
sg11
S'--'
p1252
sg13
g10
sg14
S'Mike Wallace'
p1253
sg16
S'2013'
p1254
sg18
g217
sg20
S'--'
p1255
sg22
S'10/06'
p1256
sg24
S'15.0'
p1257
sg26
S'--'
p1258
sg28
S'--'
p1259
sg29
S'L23-26'
p1260
sg31
S'105'
p1261
sg32
g240
sg33
S'BAL'
p1262
sg35
S'49'
p1263
sg37
g6
sg38
S'--'
p1264
ssg223
(dp1265
g5
S'--'
p1266
sg7
S'--'
p1267
sg9
g10
sg11
S'--'
p1268
sg13
g10
sg14
S'Mike Wallace'
p1269
sg16
S'2013'
p1270
sg18
g223
sg20
S'--'
p1271
sg22
S'09/30'
p1272
sg24
S'8.0'
p1273
sg26
S'--'
p1274
sg28
S'--'
p1275
sg29
S'L17-38'
p1276
sg31
S'24'
p1277
sg32
g111
sg33
S'@NO'
p1278
sg35
S'10'
p1279
sg37
g6
sg38
S'--'
p1280
ssg240
(dp1281
g5
g6
sg7
S'12'
p1282
sg9
g10
sg11
S'--'
p1283
sg13
g10
sg14
S'Mike Wallace'
p1284
sg16
S'2013'
p1285
sg18
g240
sg20
S'12.0'
p1286
sg22
S'10/20'
p1287
sg24
S'15.2'
p1288
sg26
S'--'
p1289
sg28
g10
sg29
S'L21-23'
p1290
sg31
S'76'
p1291
sg32
g217
sg33
S'BUF'
p1292
sg35
S'46'
p1293
sg37
g6
sg38
S'12'
p1294
ssg8
(dp1295
g5
g219
sg7
g219
sg9
g219
sg11
g219
sg13
g219
sg14
S'Mike Wallace'
p1296
sg16
S'2013'
p1297
sg18
g8
sg20
g219
sg22
S'Bye'
p1298
sg24
g219
sg26
g219
sg28
g219
sg29
g219
sg31
g219
sg32
g219
sg33
g219
sg35
g219
sg37
g219
sg38
g219
ssg273
(dp1299
g5
S'--'
p1300
sg7
S'--'
p1301
sg9
g10
sg11
S'--'
p1302
sg13
g10
sg14
S'Mike Wallace'
p1303
sg16
S'2013'
p1304
sg18
g273
sg20
S'--'
p1305
sg22
S'10/31'
p1306
sg24
S'13.7'
p1307
sg26
S'--'
p1308
sg28
S'--'
p1309
sg29
S'W22-20'
p1310
sg31
S'82'
p1311
sg32
g8
sg33
S'CIN'
p1312
sg35
S'40'
p1313
sg37
g6
sg38
S'--'
p1314
ssg167
(dp1315
g5
g6
sg7
g167
sg9
g10
sg11
S'--'
p1316
sg13
g10
sg14
S'Mike Wallace'
p1317
sg16
S'2013'
p1318
sg18
g167
sg20
S'8.0'
p1319
sg22
S'10/27'
p1320
sg24
S'13.7'
p1321
sg26
S'--'
p1322
sg28
g10
sg29
S'L17-27'
p1323
sg31
S'41'
p1324
sg32
g111
sg33
S'@NE'
p1325
sg35
S'25'
p1326
sg37
g6
sg38
g167
sssS'2012'
p1327
(dp1328
g3
(dp1329
g5
S'--'
p1330
sg7
S'--'
p1331
sg9
g10
sg11
g10
sg13
g10
sg14
S'Mike Wallace'
p1332
sg16
S'2012'
p1333
sg18
S'11'
p1334
sg20
S'--'
p1335
sg22
S'11/18'
p1336
sg24
S'6.0'
p1337
sg26
g10
sg28
S'--'
p1338
sg29
S'L10-13'
p1339
sg31
S'24'
p1340
sg32
g223
sg33
S'BAL'
p1341
sg35
S'13'
p1342
sg37
g6
sg38
S'--'
p1343
ssg39
(dp1344
g5
S'--'
p1345
sg7
S'--'
p1346
sg9
g10
sg11
S'--'
p1347
sg13
g10
sg14
S'Mike Wallace'
p1348
sg16
S'2012'
p1349
sg18
S'10'
p1350
sg20
S'--'
p1351
sg22
S'11/12'
p1352
sg24
S'4.7'
p1353
sg26
S'--'
p1354
sg28
S'--'
p1355
sg29
S'W16-13'
p1356
sg31
S'14'
p1357
sg32
g111
sg33
S'KC'
p1358
sg35
S'7T'
p1359
sg37
g10
sg38
S'--'
p1360
ssg57
(dp1361
g5
S'--'
p1362
sg7
S'--'
p1363
sg9
g10
sg11
S'--'
p1364
sg13
g10
sg14
S'Mike Wallace'
p1365
sg16
S'2012'
p1366
sg18
S'13'
p1367
sg20
S'--'
p1368
sg22
S'12/02'
p1369
sg24
S'8.8'
p1370
sg26
S'--'
p1371
sg28
S'--'
p1372
sg29
S'W23-20'
p1373
sg31
S'44'
p1374
sg32
g217
sg33
S'@BAL'
p1375
sg35
S'15'
p1376
sg37
g6
sg38
S'--'
p1377
ssg76
(dp1378
g5
S'--'
p1379
sg7
S'--'
p1380
sg9
g10
sg11
S'--'
p1381
sg13
g10
sg14
S'Mike Wallace'
p1382
sg16
S'2012'
p1383
sg18
S'12'
p1384
sg20
S'--'
p1385
sg22
S'11/25'
p1386
sg24
S'9.0'
p1387
sg26
S'--'
p1388
sg28
S'--'
p1389
sg29
S'L14-20'
p1390
sg31
g273
sg32
g10
sg33
S'@CLE'
p1391
sg35
g273
sg37
g6
sg38
S'--'
p1392
ssg96
(dp1393
g5
S'--'
p1394
sg7
S'--'
p1395
sg9
g10
sg11
S'--'
p1396
sg13
g10
sg14
S'Mike Wallace'
p1397
sg16
S'2012'
p1398
sg18
S'15'
p1399
sg20
S'--'
p1400
sg22
S'12/16'
p1401
sg24
S'23.8'
p1402
sg26
S'--'
p1403
sg28
S'--'
p1404
sg29
S'L24-27'
p1405
sg31
S'95'
p1406
sg32
g223
sg33
S'@DAL'
p1407
sg35
S'60'
p1408
sg37
g6
sg38
S'--'
p1409
ssg115
(dp1410
g5
g6
sg7
g6
sg9
g10
sg11
S'--'
p1411
sg13
g10
sg14
S'Mike Wallace'
p1412
sg16
S'2012'
p1413
sg18
S'14'
p1414
sg20
S'0.0'
p1415
sg22
S'12/09'
p1416
sg24
S'16.0'
p1417
sg26
S'--'
p1418
sg28
g10
sg29
S'L24-34'
p1419
sg31
S'112'
p1420
sg32
g240
sg33
S'SD'
p1421
sg35
S'40T'
p1422
sg37
g72
sg38
g6
ssg151
(dp1423
g5
g6
sg7
S'-1'
p1424
sg9
g6
sg11
S'--'
p1425
sg13
g10
sg14
S'Mike Wallace'
p1426
sg16
S'2012'
p1427
sg18
S'16'
p1428
sg20
S'-1.0'
p1429
sg22
S'12/23'
p1430
sg24
S'13.0'
p1431
sg26
S'--'
p1432
sg28
g10
sg29
S'L10-13'
p1433
sg31
S'13'
p1434
sg32
g10
sg33
S'CIN'
p1435
sg35
S'13'
p1436
sg37
g6
sg38
S'-1'
p1437
ssg10
(dp1438
g5
S'--'
p1439
sg7
S'--'
p1440
sg9
g10
sg11
S'--'
p1441
sg13
g10
sg14
S'Mike Wallace'
p1442
sg16
S'2012'
p1443
sg18
g10
sg20
S'--'
p1444
sg22
S'09/09'
p1445
sg24
S'9.3'
p1446
sg26
S'--'
p1447
sg28
S'--'
p1448
sg29
S'L19-31'
p1449
sg31
S'37'
p1450
sg32
g223
sg33
S'@DEN'
p1451
sg35
S'14'
p1452
sg37
g10
sg38
S'--'
p1453
ssg111
(dp1454
g5
g6
sg7
g10
sg9
g10
sg11
g6
sg13
g10
sg14
S'Mike Wallace'
p1455
sg16
S'2012'
p1456
sg18
g111
sg20
S'1.0'
p1457
sg22
S'09/23'
p1458
sg24
S'15.4'
p1459
sg26
g10
sg28
g10
sg29
S'L31-34'
p1460
sg31
S'123'
p1461
sg32
g167
sg33
S'@OAK'
p1462
sg35
S'22T'
p1463
sg37
g10
sg38
g10
ssg72
(dp1464
g5
S'--'
p1465
sg7
S'--'
p1466
sg9
g10
sg11
S'--'
p1467
sg13
g10
sg14
S'Mike Wallace'
p1468
sg16
S'2012'
p1469
sg18
g72
sg20
S'--'
p1470
sg22
S'09/16'
p1471
sg24
S'14.8'
p1472
sg26
S'--'
p1473
sg28
S'--'
p1474
sg29
S'W27-10'
p1475
sg31
S'74'
p1476
sg32
g217
sg33
S'NYJ'
p1477
sg35
S'37T'
p1478
sg37
g10
sg38
S'--'
p1479
ssg217
(dp1480
g5
S'--'
p1481
sg7
S'--'
p1482
sg9
g10
sg11
S'--'
p1483
sg13
g10
sg14
S'Mike Wallace'
p1484
sg16
S'2012'
p1485
sg18
g217
sg20
S'--'
p1486
sg22
S'10/07'
p1487
sg24
S'8.5'
p1488
sg26
S'--'
p1489
sg28
S'--'
p1490
sg29
S'W16-14'
p1491
sg31
S'17'
p1492
sg32
g72
sg33
S'PHI'
p1493
sg35
g273
sg37
g6
sg38
S'--'
p1494
ssg223
(dp1495
g5
g219
sg7
g219
sg9
g219
sg11
g219
sg13
g219
sg14
S'Mike Wallace'
p1496
sg16
S'2012'
p1497
sg18
g223
sg20
g219
sg22
S'Bye'
p1498
sg24
g219
sg26
g219
sg28
g219
sg29
g219
sg31
g219
sg32
g219
sg33
g219
sg35
g219
sg37
g219
sg38
g219
ssg240
(dp1499
g5
g6
sg7
g240
sg9
g10
sg11
S'--'
p1500
sg13
g10
sg14
S'Mike Wallace'
p1501
sg16
S'2012'
p1502
sg18
g240
sg20
S'3.5'
p1503
sg22
S'10/21'
p1504
sg24
S'6.5'
p1505
sg26
S'--'
p1506
sg28
g72
sg29
S'W24-17'
p1507
sg31
S'52'
p1508
sg32
g167
sg33
S'@CIN'
p1509
sg35
S'12'
p1510
sg37
g6
sg38
S'13'
p1511
ssg8
(dp1512
g5
S'--'
p1513
sg7
S'--'
p1514
sg9
g10
sg11
S'--'
p1515
sg13
g10
sg14
S'Mike Wallace'
p1516
sg16
S'2012'
p1517
sg18
g8
sg20
S'--'
p1518
sg22
S'10/11'
p1519
sg24
S'47.0'
p1520
sg26
S'--'
p1521
sg28
S'--'
p1522
sg29
S'L23-26'
p1523
sg31
S'94'
p1524
sg32
g72
sg33
S'@TEN'
p1525
sg35
S'82T'
p1526
sg37
g10
sg38
S'--'
p1527
ssg273
(dp1528
g5
S'--'
p1529
sg7
S'--'
p1530
sg9
g10
sg11
S'--'
p1531
sg13
g10
sg14
S'Mike Wallace'
p1532
sg16
S'2012'
p1533
sg18
g273
sg20
S'--'
p1534
sg22
S'11/04'
p1535
sg24
S'22.0'
p1536
sg26
S'--'
p1537
sg28
S'--'
p1538
sg29
S'W24-20'
p1539
sg31
S'66'
p1540
sg32
g111
sg33
S'@NYG'
p1541
sg35
S'51T'
p1542
sg37
g10
sg38
S'--'
p1543
ssg167
(dp1544
g5
S'--'
p1545
sg7
S'--'
p1546
sg9
g10
sg11
S'--'
p1547
sg13
g10
sg14
S'Mike Wallace'
p1548
sg16
S'2012'
p1549
sg18
g167
sg20
S'--'
p1550
sg22
S'10/28'
p1551
sg24
S'8.9'
p1552
sg26
S'--'
p1553
sg28
S'--'
p1554
sg29
S'W27-12'
p1555
sg31
S'62'
p1556
sg32
g240
sg33
S'WAS'
p1557
sg35
S'14'
p1558
sg37
g6
sg38
S'--'
p1559
sss.