(dp0
S'2015'
p1
(dp2
S'11'
p3
(dp4
S'RushTD'
p5
S'0'
p6
sS'RushYds'
p7
S'2'
p8
sS'GS'
p9
g6
sS'Lost'
p10
g6
sS'G'
p11
S'1'
p12
sS'Player'
p13
S'Mohamed Sanu'
p14
sS'Year'
p15
S'2015'
p16
sS'WK'
p17
S'11'
p18
sS'RushAvg'
p19
S'2.0'
p20
sS'Game Date'
p21
S'11/22'
p22
sS'RecAvg'
p23
S'9.5'
p24
sS'FUM'
p25
g12
sS'RushAtt'
p26
g12
sS'Result'
p27
S'L31-34'
p28
sS'RecYds'
p29
S'19'
p30
sS'Rec'
p31
g8
sS'Opp'
p32
S'@ARI'
p33
sS'RecLng'
p34
S'10'
p35
sS'RecTD'
p36
g6
sS'RushLng'
p37
g8
ssS'10'
p38
(dp39
g5
S'--'
p40
sg7
S'--'
p41
sg9
g6
sg10
S'--'
p42
sg11
g12
sg13
S'Mohamed Sanu'
p43
sg15
S'2015'
p44
sg17
S'10'
p45
sg19
S'--'
p46
sg21
S'11/16'
p47
sg23
S'5.0'
p48
sg25
S'--'
p49
sg26
S'--'
p50
sg27
S'L6-10'
p51
sg29
S'5'
p52
sg31
g12
sg32
S'HOU'
p53
sg34
g52
sg36
g6
sg37
S'--'
p54
ssS'13'
p55
(dp56
g5
g6
sg7
S'7'
p57
sg9
g6
sg10
S'--'
p58
sg11
g12
sg13
S'Mohamed Sanu'
p59
sg15
S'2015'
p60
sg17
S'13'
p61
sg19
S'7.0'
p62
sg21
S'12/06'
p63
sg23
S'--'
p64
sg25
S'--'
p65
sg26
g12
sg27
S'W37-3'
p66
sg29
g6
sg31
g6
sg32
S'@CLE'
p67
sg34
S'--'
p68
sg36
g6
sg37
g57
ssS'12'
p69
(dp70
g5
S'--'
p71
sg7
S'--'
p72
sg9
g6
sg10
S'--'
p73
sg11
g12
sg13
S'Mohamed Sanu'
p74
sg15
S'2015'
p75
sg17
S'12'
p76
sg19
S'--'
p77
sg21
S'11/29'
p78
sg23
S'8.0'
p79
sg25
S'--'
p80
sg26
S'--'
p81
sg27
S'W31-7'
p82
sg29
S'8'
p83
sg31
g12
sg32
S'STL'
p84
sg34
g83
sg36
g6
sg37
S'--'
p85
ssS'15'
p86
(dp87
g5
g6
sg7
g8
sg9
g12
sg10
S'--'
p88
sg11
g12
sg13
S'Mohamed Sanu'
p89
sg15
S'2015'
p90
sg17
S'15'
p91
sg19
S'2.0'
p92
sg21
S'12/20'
p93
sg23
S'4.0'
p94
sg25
S'--'
p95
sg26
g12
sg27
S'W24-14'
p96
sg29
g83
sg31
g8
sg32
S'@SF'
p97
sg34
S'6'
p98
sg36
g6
sg37
g8
ssS'14'
p99
(dp100
g5
S'--'
p101
sg7
S'--'
p102
sg9
g6
sg10
S'--'
p103
sg11
g12
sg13
S'Mohamed Sanu'
p104
sg15
S'2015'
p105
sg17
S'14'
p106
sg19
S'--'
p107
sg21
S'12/13'
p108
sg23
S'12.0'
p109
sg25
S'--'
p110
sg26
S'--'
p111
sg27
S'L20-33'
p112
sg29
S'24'
p113
sg31
g8
sg32
S'PIT'
p114
sg34
S'23'
p115
sg36
g6
sg37
S'--'
p116
ssS'17'
p117
(dp118
g5
g6
sg7
S'11'
p119
sg9
g6
sg10
g6
sg11
g12
sg13
S'Mohamed Sanu'
p120
sg15
S'2015'
p121
sg17
S'17'
p122
sg19
S'5.5'
p123
sg21
S'01/03'
p124
sg23
S'6.0'
p125
sg25
g12
sg26
g8
sg27
S'W24-16'
p126
sg29
g98
sg31
g12
sg32
S'BAL'
p127
sg34
g98
sg36
g6
sg37
S'10'
p128
ssS'16'
p129
(dp130
g5
g12
sg7
S'10'
p131
sg9
g6
sg10
S'--'
p132
sg11
g12
sg13
S'Mohamed Sanu'
p133
sg15
S'2015'
p134
sg17
S'16'
p135
sg19
S'5.0'
p136
sg21
S'12/28'
p137
sg23
S'9.7'
p138
sg25
S'--'
p139
sg26
g8
sg27
S'L17-20'
p140
sg29
S'29'
p141
sg31
S'3'
p142
sg32
S'@DEN'
p143
sg34
S'20'
p144
sg36
g6
sg37
S'6T'
p145
ssg12
(dp146
g5
S'--'
p147
sg7
S'--'
p148
sg9
g12
sg10
S'--'
p149
sg11
g12
sg13
S'Mohamed Sanu'
p150
sg15
S'2015'
p151
sg17
g12
sg19
S'--'
p152
sg21
S'09/13'
p153
sg23
S'17.0'
p154
sg25
S'--'
p155
sg26
S'--'
p156
sg27
S'W33-13'
p157
sg29
S'34'
p158
sg31
g8
sg32
S'@OAK'
p159
sg34
S'28'
p160
sg36
g6
sg37
S'--'
p161
ssg142
(dp162
g5
g6
sg7
g98
sg9
g6
sg10
S'--'
p163
sg11
g12
sg13
S'Mohamed Sanu'
p164
sg15
S'2015'
p165
sg17
g142
sg19
S'6.0'
p166
sg21
S'09/27'
p167
sg23
S'14.0'
p168
sg25
S'--'
p169
sg26
g12
sg27
S'W28-24'
p170
sg29
S'28'
p171
sg31
g8
sg32
S'@BAL'
p172
sg34
S'19'
p173
sg36
g6
sg37
g98
ssg8
(dp174
g5
S'--'
p175
sg7
S'--'
p176
sg9
g6
sg10
S'--'
p177
sg11
g12
sg13
S'Mohamed Sanu'
p178
sg15
S'2015'
p179
sg17
g8
sg19
S'--'
p180
sg21
S'09/20'
p181
sg23
S'15.0'
p182
sg25
S'--'
p183
sg26
S'--'
p184
sg27
S'W24-19'
p185
sg29
S'15'
p186
sg31
g12
sg32
S'SD'
p187
sg34
S'15'
p188
sg36
g6
sg37
S'--'
p189
ssg52
(dp190
g5
S'--'
p191
sg7
S'--'
p192
sg9
g6
sg10
S'--'
p193
sg11
g12
sg13
S'Mohamed Sanu'
p194
sg15
S'2015'
p195
sg17
g52
sg19
S'--'
p196
sg21
S'10/11'
p197
sg23
S'13.8'
p198
sg25
S'--'
p199
sg26
S'--'
p200
sg27
S'W27-24'
p201
sg29
S'69'
p202
sg31
g52
sg32
S'SEA'
p203
sg34
S'25'
p204
sg36
g6
sg37
S'--'
p205
ssS'4'
p206
(dp207
g5
S'--'
p208
sg7
S'--'
p209
sg9
g12
sg10
S'--'
p210
sg11
g12
sg13
S'Mohamed Sanu'
p211
sg15
S'2015'
p212
sg17
g206
sg19
S'--'
p213
sg21
S'10/04'
p214
sg23
S'21.0'
p215
sg25
S'--'
p216
sg26
S'--'
p217
sg27
S'W36-21'
p218
sg29
S'84'
p219
sg31
g206
sg32
S'KC'
p220
sg34
S'52'
p221
sg36
g6
sg37
S'--'
p222
ssg57
(dp223
g5
S''
p224
sg7
g224
sg9
g224
sg10
g224
sg11
g224
sg13
S'Mohamed Sanu'
p225
sg15
S'2015'
p226
sg17
g57
sg19
g224
sg21
S'Bye'
p227
sg23
g224
sg25
g224
sg26
g224
sg27
g224
sg29
g224
sg31
g224
sg32
g224
sg34
g224
sg36
g224
sg37
g224
ssg98
(dp228
g5
g6
sg7
g83
sg9
g6
sg10
S'--'
p229
sg11
g12
sg13
S'Mohamed Sanu'
p230
sg15
S'2015'
p231
sg17
g98
sg19
S'8.0'
p232
sg21
S'10/18'
p233
sg23
S'15.0'
p234
sg25
S'--'
p235
sg26
g12
sg27
S'W34-21'
p236
sg29
S'30'
p237
sg31
g8
sg32
S'@BUF'
p238
sg34
S'24'
p239
sg36
g6
sg37
g83
ssS'9'
p240
(dp241
g5
g12
sg7
S'25'
p242
sg9
g6
sg10
S'--'
p243
sg11
g12
sg13
S'Mohamed Sanu'
p244
sg15
S'2015'
p245
sg17
g240
sg19
S'25.0'
p246
sg21
S'11/05'
p247
sg23
S'8.3'
p248
sg25
S'--'
p249
sg26
g12
sg27
S'W31-10'
p250
sg29
S'25'
p251
sg31
g142
sg32
S'CLE'
p252
sg34
g240
sg36
g6
sg37
S'25T'
p253
ssg83
(dp254
g5
S'--'
p255
sg7
S'--'
p256
sg9
g12
sg10
S'--'
p257
sg11
g12
sg13
S'Mohamed Sanu'
p258
sg15
S'2015'
p259
sg17
g83
sg19
S'--'
p260
sg21
S'11/01'
p261
sg23
S'5.0'
p262
sg25
S'--'
p263
sg26
S'--'
p264
sg27
S'W16-10'
p265
sg29
S'10'
p266
sg31
g8
sg32
S'@PIT'
p267
sg34
g57
sg36
g6
sg37
S'--'
p268
sssS'2014'
p269
(dp270
g3
(dp271
g5
S'--'
p272
sg7
S'--'
p273
sg9
g12
sg10
S'--'
p274
sg11
g12
sg13
S'Mohamed Sanu'
p275
sg15
S'2014'
p276
sg17
S'11'
p277
sg19
S'--'
p278
sg21
S'11/16'
p279
sg23
S'7.7'
p280
sg25
S'--'
p281
sg26
S'--'
p282
sg27
S'W27-10'
p283
sg29
S'23'
p284
sg31
g142
sg32
S'@NO'
p285
sg34
g240
sg36
g6
sg37
S'--'
p286
ssg38
(dp287
g5
S'--'
p288
sg7
S'--'
p289
sg9
g12
sg10
S'--'
p290
sg11
g12
sg13
S'Mohamed Sanu'
p291
sg15
S'2014'
p292
sg17
S'10'
p293
sg19
S'--'
p294
sg21
S'11/06'
p295
sg23
S'10.0'
p296
sg25
S'--'
p297
sg26
S'--'
p298
sg27
S'L3-24'
p299
sg29
S'20'
p300
sg31
g8
sg32
S'CLE'
p301
sg34
S'18'
p302
sg36
g6
sg37
S'--'
p303
ssg55
(dp304
g5
g6
sg7
S'10'
p305
sg9
g6
sg10
S'--'
p306
sg11
g12
sg13
S'Mohamed Sanu'
p307
sg15
S'2014'
p308
sg17
S'13'
p309
sg19
S'10.0'
p310
sg21
S'11/30'
p311
sg23
S'9.5'
p312
sg25
S'--'
p313
sg26
g12
sg27
S'W14-13'
p314
sg29
S'19'
p315
sg31
g8
sg32
S'@TB'
p316
sg34
S'15'
p317
sg36
g6
sg37
S'10'
p318
ssg69
(dp319
g5
g6
sg7
g12
sg9
g12
sg10
S'--'
p320
sg11
g12
sg13
S'Mohamed Sanu'
p321
sg15
S'2014'
p322
sg17
S'12'
p323
sg19
S'1.0'
p324
sg21
S'11/23'
p325
sg23
S'9.6'
p326
sg25
S'--'
p327
sg26
g12
sg27
S'W22-13'
p328
sg29
S'48'
p329
sg31
g52
sg32
S'@HOU'
p330
sg34
S'12'
p331
sg36
g12
sg37
g12
ssg86
(dp332
g5
S'--'
p333
sg7
S'--'
p334
sg9
g6
sg10
S'--'
p335
sg11
g12
sg13
S'Mohamed Sanu'
p336
sg15
S'2014'
p337
sg17
S'15'
p338
sg19
S'--'
p339
sg21
S'12/14'
p340
sg23
S'4.0'
p341
sg25
S'--'
p342
sg26
S'--'
p343
sg27
S'W30-0'
p344
sg29
g206
sg31
g12
sg32
S'@CLE'
p345
sg34
g206
sg36
g6
sg37
S'--'
p346
ssg99
(dp347
g5
g6
sg7
g6
sg9
g12
sg10
S'--'
p348
sg11
g12
sg13
S'Mohamed Sanu'
p349
sg15
S'2014'
p350
sg17
S'14'
p351
sg19
S'0.0'
p352
sg21
S'12/07'
p353
sg23
S'8.0'
p354
sg25
S'--'
p355
sg26
g12
sg27
S'L21-42'
p356
sg29
S'16'
p357
sg31
g8
sg32
S'PIT'
p358
sg34
S'11'
p359
sg36
g6
sg37
g6
ssg117
(dp360
g5
S'--'
p361
sg7
S'--'
p362
sg9
g12
sg10
S'--'
p363
sg11
g12
sg13
S'Mohamed Sanu'
p364
sg15
S'2014'
p365
sg17
S'17'
p366
sg19
S'--'
p367
sg21
S'12/28'
p368
sg23
S'16.0'
p369
sg25
S'--'
p370
sg26
S'--'
p371
sg27
S'L17-27'
p372
sg29
S'16'
p373
sg31
g12
sg32
S'@PIT'
p374
sg34
S'16'
p375
sg36
g6
sg37
S'--'
p376
ssg129
(dp377
g5
S'--'
p378
sg7
S'--'
p379
sg9
g12
sg10
S'--'
p380
sg11
g12
sg13
S'Mohamed Sanu'
p381
sg15
S'2014'
p382
sg17
S'16'
p383
sg19
S'--'
p384
sg21
S'12/22'
p385
sg23
S'16.0'
p386
sg25
S'--'
p387
sg26
S'--'
p388
sg27
S'W37-28'
p389
sg29
S'16'
p390
sg31
g12
sg32
S'DEN'
p391
sg34
S'16'
p392
sg36
g6
sg37
S'--'
p393
ssg12
(dp394
g5
g6
sg7
g206
sg9
g6
sg10
S'--'
p395
sg11
g12
sg13
S'Mohamed Sanu'
p396
sg15
S'2014'
p397
sg17
g12
sg19
S'4.0'
p398
sg21
S'09/07'
p399
sg23
S'9.0'
p400
sg25
S'--'
p401
sg26
g12
sg27
S'W23-16'
p402
sg29
S'36'
p403
sg31
g206
sg32
S'@BAL'
p404
sg34
S'13'
p405
sg36
g6
sg37
g206
ssg142
(dp406
g5
S'--'
p407
sg7
S'--'
p408
sg9
g12
sg10
S'--'
p409
sg11
g12
sg13
S'Mohamed Sanu'
p410
sg15
S'2014'
p411
sg17
g142
sg19
S'--'
p412
sg21
S'09/21'
p413
sg23
S'8.8'
p414
sg25
S'--'
p415
sg26
S'--'
p416
sg27
S'W33-7'
p417
sg29
S'44'
p418
sg31
g52
sg32
S'TEN'
p419
sg34
S'14'
p420
sg36
g6
sg37
S'--'
p421
ssg8
(dp422
g5
S'--'
p423
sg7
S'--'
p424
sg9
g12
sg10
S'--'
p425
sg11
g12
sg13
S'Mohamed Sanu'
p426
sg15
S'2014'
p427
sg17
g8
sg19
S'--'
p428
sg21
S'09/14'
p429
sg23
S'28.0'
p430
sg25
S'--'
p431
sg26
S'--'
p432
sg27
S'W24-10'
p433
sg29
S'84'
p434
sg31
g142
sg32
S'ATL'
p435
sg34
S'76T'
p436
sg36
g12
sg37
S'--'
p437
ssg52
(dp438
g5
S'--'
p439
sg7
S'--'
p440
sg9
g12
sg10
S'--'
p441
sg11
g12
sg13
S'Mohamed Sanu'
p442
sg15
S'2014'
p443
sg17
g52
sg19
S'--'
p444
sg21
S'10/05'
p445
sg23
S'14.0'
p446
sg25
S'--'
p447
sg26
S'--'
p448
sg27
S'L17-43'
p449
sg29
S'70'
p450
sg31
g52
sg32
S'@NE'
p451
sg34
S'37T'
p452
sg36
g12
sg37
S'--'
p453
ssg206
(dp454
g5
g224
sg7
g224
sg9
g224
sg10
g224
sg11
g224
sg13
S'Mohamed Sanu'
p455
sg15
S'2014'
p456
sg17
g206
sg19
g224
sg21
S'Bye'
p457
sg23
g224
sg25
g224
sg26
g224
sg27
g224
sg29
g224
sg31
g224
sg32
g224
sg34
g224
sg36
g224
sg37
g224
ssg57
(dp458
g5
S'--'
p459
sg7
S'--'
p460
sg9
g12
sg10
S'--'
p461
sg11
g12
sg13
S'Mohamed Sanu'
p462
sg15
S'2014'
p463
sg17
g57
sg19
S'--'
p464
sg21
S'10/19'
p465
sg23
S'18.0'
p466
sg25
S'--'
p467
sg26
S'--'
p468
sg27
S'L0-27'
p469
sg29
S'54'
p470
sg31
g142
sg32
S'@IND'
p471
sg34
S'32'
p472
sg36
g6
sg37
S'--'
p473
ssg98
(dp474
g5
S'--'
p475
sg7
S'--'
p476
sg9
g12
sg10
S'--'
p477
sg11
g12
sg13
S'Mohamed Sanu'
p478
sg15
S'2014'
p479
sg17
g98
sg19
S'--'
p480
sg21
S'10/12'
p481
sg23
S'12.0'
p482
sg25
S'--'
p483
sg26
S'--'
p484
sg27
S'T37-37'
p485
sg29
S'120'
p486
sg31
S'10'
p487
sg32
S'CAR'
p488
sg34
S'34T'
p489
sg36
g12
sg37
S'--'
p490
ssg240
(dp491
g5
g6
sg7
g240
sg9
g12
sg10
S'--'
p492
sg11
g12
sg13
S'Mohamed Sanu'
p493
sg15
S'2014'
p494
sg17
g240
sg19
S'9.0'
p495
sg21
S'11/02'
p496
sg23
S'23.8'
p497
sg25
S'--'
p498
sg26
g12
sg27
S'W33-23'
p499
sg29
S'95'
p500
sg31
g206
sg32
S'JAC'
p501
sg34
S'36'
p502
sg36
g12
sg37
g240
ssg83
(dp503
g5
g6
sg7
S'27'
p504
sg9
g12
sg10
S'--'
p505
sg11
g12
sg13
S'Mohamed Sanu'
p506
sg15
S'2014'
p507
sg17
g83
sg19
S'13.5'
p508
sg21
S'10/26'
p509
sg23
S'25.0'
p510
sg25
S'--'
p511
sg26
g8
sg27
S'W27-24'
p512
sg29
S'125'
p513
sg31
g52
sg32
S'BAL'
p514
sg34
S'53'
p515
sg36
g6
sg37
S'26'
p516
sssS'2013'
p517
(dp518
g3
(dp519
g5
S'--'
p520
sg7
S'--'
p521
sg9
g6
sg10
S'--'
p522
sg11
g12
sg13
S'Mohamed Sanu'
p523
sg15
S'2013'
p524
sg17
S'11'
p525
sg19
S'--'
p526
sg21
S'11/17'
p527
sg23
S'5.5'
p528
sg25
S'--'
p529
sg26
S'--'
p530
sg27
S'W41-20'
p531
sg29
S'11'
p532
sg31
g8
sg32
S'CLE'
p533
sg34
S'6T'
p534
sg36
g12
sg37
S'--'
p535
ssg38
(dp536
g5
S'--'
p537
sg7
S'--'
p538
sg9
g12
sg10
S'--'
p539
sg11
g12
sg13
S'Mohamed Sanu'
p540
sg15
S'2013'
p541
sg17
S'10'
p542
sg19
S'--'
p543
sg21
S'11/10'
p544
sg23
S'8.7'
p545
sg25
S'--'
p546
sg26
S'--'
p547
sg27
S'L17-20'
p548
sg29
S'26'
p549
sg31
g142
sg32
S'@BAL'
p550
sg34
S'14'
p551
sg36
g6
sg37
S'--'
p552
ssg55
(dp553
g5
S'--'
p554
sg7
S'--'
p555
sg9
g6
sg10
S'--'
p556
sg11
g12
sg13
S'Mohamed Sanu'
p557
sg15
S'2013'
p558
sg17
S'13'
p559
sg19
S'--'
p560
sg21
S'12/01'
p561
sg23
S'9.0'
p562
sg25
S'--'
p563
sg26
S'--'
p564
sg27
S'W17-10'
p565
sg29
g240
sg31
g12
sg32
S'@SD'
p566
sg34
g240
sg36
g6
sg37
S'--'
p567
ssg69
(dp568
g5
g224
sg7
g224
sg9
g224
sg10
g224
sg11
g224
sg13
S'Mohamed Sanu'
p569
sg15
S'2013'
p570
sg17
S'12'
p571
sg19
g224
sg21
S'Bye'
p572
sg23
g224
sg25
g224
sg26
g224
sg27
g224
sg29
g224
sg31
g224
sg32
g224
sg34
g224
sg36
g224
sg37
g224
ssg86
(dp573
g5
S'--'
p574
sg7
S'--'
p575
sg9
g12
sg10
S'--'
p576
sg11
g12
sg13
S'Mohamed Sanu'
p577
sg15
S'2013'
p578
sg17
S'15'
p579
sg19
S'--'
p580
sg21
S'12/15'
p581
sg23
S'6.7'
p582
sg25
S'--'
p583
sg26
S'--'
p584
sg27
S'L20-30'
p585
sg29
S'20'
p586
sg31
g142
sg32
S'@PIT'
p587
sg34
g240
sg36
g6
sg37
S'--'
p588
ssg99
(dp589
g5
S'--'
p590
sg7
S'--'
p591
sg9
g12
sg10
S'--'
p592
sg11
g12
sg13
S'Mohamed Sanu'
p593
sg15
S'2013'
p594
sg17
S'14'
p595
sg19
S'--'
p596
sg21
S'12/08'
p597
sg23
S'13.0'
p598
sg25
S'--'
p599
sg26
S'--'
p600
sg27
S'W42-28'
p601
sg29
S'26'
p602
sg31
g8
sg32
S'IND'
p603
sg34
S'15'
p604
sg36
g6
sg37
S'--'
p605
ssg117
(dp606
g5
S'--'
p607
sg7
S'--'
p608
sg9
g12
sg10
S'--'
p609
sg11
g12
sg13
S'Mohamed Sanu'
p610
sg15
S'2013'
p611
sg17
S'17'
p612
sg19
S'--'
p613
sg21
S'12/29'
p614
sg23
S'12.0'
p615
sg25
S'--'
p616
sg26
S'--'
p617
sg27
S'W34-17'
p618
sg29
S'12'
p619
sg31
g12
sg32
S'BAL'
p620
sg34
S'12'
p621
sg36
g6
sg37
S'--'
p622
ssg129
(dp623
g5
g6
sg7
S'12'
p624
sg9
g12
sg10
S'--'
p625
sg11
g12
sg13
S'Mohamed Sanu'
p626
sg15
S'2013'
p627
sg17
S'16'
p628
sg19
S'4.0'
p629
sg21
S'12/22'
p630
sg23
S'8.8'
p631
sg25
S'--'
p632
sg26
g142
sg27
S'W42-14'
p633
sg29
S'35'
p634
sg31
g206
sg32
S'MIN'
p635
sg34
S'13'
p636
sg36
g12
sg37
g240
ssg12
(dp637
g5
S'--'
p638
sg7
S'--'
p639
sg9
g12
sg10
g12
sg11
g12
sg13
S'Mohamed Sanu'
p640
sg15
S'2013'
p641
sg17
g12
sg19
S'--'
p642
sg21
S'09/08'
p643
sg23
S'4.8'
p644
sg25
g12
sg26
S'--'
p645
sg27
S'L21-24'
p646
sg29
S'19'
p647
sg31
g206
sg32
S'@CHI'
p648
sg34
g83
sg36
g6
sg37
S'--'
p649
ssg142
(dp650
g5
S'--'
p651
sg7
S'--'
p652
sg9
g12
sg10
S'--'
p653
sg11
g12
sg13
S'Mohamed Sanu'
p654
sg15
S'2013'
p655
sg17
g142
sg19
S'--'
p656
sg21
S'09/22'
p657
sg23
S'17.0'
p658
sg25
S'--'
p659
sg26
S'--'
p660
sg27
S'W34-30'
p661
sg29
S'68'
p662
sg31
g206
sg32
S'GB'
p663
sg34
S'32'
p664
sg36
g6
sg37
S'--'
p665
ssg8
(dp666
g5
g6
sg7
g206
sg9
g12
sg10
S'--'
p667
sg11
g12
sg13
S'Mohamed Sanu'
p668
sg15
S'2013'
p669
sg17
g8
sg19
S'4.0'
p670
sg21
S'09/16'
p671
sg23
S'8.0'
p672
sg25
S'--'
p673
sg26
g12
sg27
S'W20-10'
p674
sg29
S'40'
p675
sg31
g52
sg32
S'PIT'
p676
sg34
S'14'
p677
sg36
g6
sg37
g206
ssg52
(dp678
g5
S'--'
p679
sg7
S'--'
p680
sg9
g12
sg10
S'--'
p681
sg11
g12
sg13
S'Mohamed Sanu'
p682
sg15
S'2013'
p683
sg17
g52
sg19
S'--'
p684
sg21
S'10/06'
p685
sg23
S'14.0'
p686
sg25
S'--'
p687
sg26
S'--'
p688
sg27
S'W13-6'
p689
sg29
S'28'
p690
sg31
g8
sg32
S'NE'
p691
sg34
S'17'
p692
sg36
g6
sg37
S'--'
p693
ssg206
(dp694
g5
S'--'
p695
sg7
S'--'
p696
sg9
g12
sg10
S'--'
p697
sg11
g12
sg13
S'Mohamed Sanu'
p698
sg15
S'2013'
p699
sg17
g206
sg19
S'--'
p700
sg21
S'09/29'
p701
sg23
S'6.3'
p702
sg25
S'--'
p703
sg26
S'--'
p704
sg27
S'L6-17'
p705
sg29
S'19'
p706
sg31
g142
sg32
S'@CLE'
p707
sg34
S'10'
p708
sg36
g6
sg37
S'--'
p709
ssg57
(dp710
g5
S'--'
p711
sg7
S'--'
p712
sg9
g12
sg10
S'--'
p713
sg11
g12
sg13
S'Mohamed Sanu'
p714
sg15
S'2013'
p715
sg17
g57
sg19
S'--'
p716
sg21
S'10/20'
p717
sg23
S'12.0'
p718
sg25
S'--'
p719
sg26
S'--'
p720
sg27
S'W27-24'
p721
sg29
S'12'
p722
sg31
g12
sg32
S'@DET'
p723
sg34
S'12'
p724
sg36
g6
sg37
S'--'
p725
ssg98
(dp726
g5
S'--'
p727
sg7
S'--'
p728
sg9
g12
sg10
S'--'
p729
sg11
g12
sg13
S'Mohamed Sanu'
p730
sg15
S'2013'
p731
sg17
g98
sg19
S'--'
p732
sg21
S'10/13'
p733
sg23
S'8.8'
p734
sg25
S'--'
p735
sg26
S'--'
p736
sg27
S'W27-24'
p737
sg29
S'44'
p738
sg31
g52
sg32
S'@BUF'
p739
sg34
S'14'
p740
sg36
g6
sg37
S'--'
p741
ssg240
(dp742
g5
S'--'
p743
sg7
S'--'
p744
sg9
g12
sg10
S'--'
p745
sg11
g12
sg13
S'Mohamed Sanu'
p746
sg15
S'2013'
p747
sg17
g240
sg19
S'--'
p748
sg21
S'10/31'
p749
sg23
S'10.3'
p750
sg25
S'--'
p751
sg26
S'--'
p752
sg27
S'L20-22'
p753
sg29
S'62'
p754
sg31
g98
sg32
S'@MIA'
p755
sg34
S'21'
p756
sg36
g6
sg37
S'--'
p757
ssg83
(dp758
g5
S'--'
p759
sg7
S'--'
p760
sg9
g12
sg10
S'--'
p761
sg11
g12
sg13
S'Mohamed Sanu'
p762
sg15
S'2013'
p763
sg17
g83
sg19
S'--'
p764
sg21
S'10/27'
p765
sg23
S'24.0'
p766
sg25
S'--'
p767
sg26
S'--'
p768
sg27
S'W49-9'
p769
sg29
S'24'
p770
sg31
g12
sg32
S'NYJ'
p771
sg34
S'24'
p772
sg36
g6
sg37
S'--'
p773
sssS'2012'
p774
(dp775
g3
(dp776
g5
g6
sg7
g6
sg9
g12
sg10
S'--'
p777
sg11
g12
sg13
S'Mohamed Sanu'
p778
sg15
S'2012'
p779
sg17
S'11'
p780
sg19
S'0.0'
p781
sg21
S'11/18'
p782
sg23
S'11.0'
p783
sg25
S'--'
p784
sg26
g8
sg27
S'W28-6'
p785
sg29
S'22'
p786
sg31
g8
sg32
S'@KC'
p787
sg34
S'14T'
p788
sg36
g12
sg37
g206
ssg38
(dp789
g5
g6
sg7
g142
sg9
g6
sg10
S'--'
p790
sg11
g12
sg13
S'Mohamed Sanu'
p791
sg15
S'2012'
p792
sg17
S'10'
p793
sg19
S'3.0'
p794
sg21
S'11/11'
p795
sg23
S'11.8'
p796
sg25
S'--'
p797
sg26
g12
sg27
S'W31-13'
p798
sg29
S'47'
p799
sg31
g206
sg32
S'NYG'
p800
sg34
S'15'
p801
sg36
g12
sg37
g142
ssg55
(dp802
g5
S'--'
p803
sg7
S'--'
p804
sg9
g6
sg10
S'--'
p805
sg11
g6
sg13
S'Mohamed Sanu'
p806
sg15
S'2012'
p807
sg17
S'13'
p808
sg19
S'--'
p809
sg21
S'12/02'
p810
sg23
S'--'
p811
sg25
S'--'
p812
sg26
S'--'
p813
sg27
S'W20-13'
p814
sg29
S'--'
p815
sg31
S'--'
p816
sg32
S'@SD'
p817
sg34
S'--'
p818
sg36
S'--'
p819
sg37
S'--'
p820
ssg69
(dp821
g5
g6
sg7
g52
sg9
g12
sg10
S'--'
p822
sg11
g12
sg13
S'Mohamed Sanu'
p823
sg15
S'2012'
p824
sg17
S'12'
p825
sg19
S'5.0'
p826
sg21
S'11/25'
p827
sg23
S'5.8'
p828
sg25
S'--'
p829
sg26
g12
sg27
S'W34-10'
p830
sg29
S'29'
p831
sg31
g52
sg32
S'OAK'
p832
sg34
S'11'
p833
sg36
g8
sg37
g52
ssg12
(dp834
g5
S'--'
p835
sg7
S'--'
p836
sg9
g6
sg10
S'--'
p837
sg11
g12
sg13
S'Mohamed Sanu'
p838
sg15
S'2012'
p839
sg17
g12
sg19
S'--'
p840
sg21
S'09/10'
p841
sg23
S'--'
p842
sg25
S'--'
p843
sg26
S'--'
p844
sg27
S'L13-44'
p845
sg29
S'--'
p846
sg31
S'--'
p847
sg32
S'@BAL'
p848
sg34
S'--'
p849
sg36
S'--'
p850
sg37
S'--'
p851
ssg142
(dp852
g5
S'--'
p853
sg7
S'--'
p854
sg9
g12
sg10
S'--'
p855
sg11
g12
sg13
S'Mohamed Sanu'
p856
sg15
S'2012'
p857
sg17
g142
sg19
S'--'
p858
sg21
S'09/23'
p859
sg23
S'--'
p860
sg25
S'--'
p861
sg26
S'--'
p862
sg27
S'W38-31'
p863
sg29
S'--'
p864
sg31
S'--'
p865
sg32
S'@WAS'
p866
sg34
S'--'
p867
sg36
S'--'
p868
sg37
S'--'
p869
ssg8
(dp870
g5
S'--'
p871
sg7
S'--'
p872
sg9
g6
sg10
S'--'
p873
sg11
g6
sg13
S'Mohamed Sanu'
p874
sg15
S'2012'
p875
sg17
g8
sg19
S'--'
p876
sg21
S'09/16'
p877
sg23
S'--'
p878
sg25
S'--'
p879
sg26
S'--'
p880
sg27
S'W34-27'
p881
sg29
S'--'
p882
sg31
S'--'
p883
sg32
S'CLE'
p884
sg34
S'--'
p885
sg36
S'--'
p886
sg37
S'--'
p887
ssg52
(dp888
g5
S'--'
p889
sg7
S'--'
p890
sg9
g6
sg10
S'--'
p891
sg11
g12
sg13
S'Mohamed Sanu'
p892
sg15
S'2012'
p893
sg17
g52
sg19
S'--'
p894
sg21
S'10/07'
p895
sg23
S'--'
p896
sg25
S'--'
p897
sg26
S'--'
p898
sg27
S'L13-17'
p899
sg29
S'--'
p900
sg31
S'--'
p901
sg32
S'MIA'
p902
sg34
S'--'
p903
sg36
S'--'
p904
sg37
S'--'
p905
ssg206
(dp906
g5
S'--'
p907
sg7
S'--'
p908
sg9
g6
sg10
S'--'
p909
sg11
g12
sg13
S'Mohamed Sanu'
p910
sg15
S'2012'
p911
sg17
g206
sg19
S'--'
p912
sg21
S'09/30'
p913
sg23
S'--'
p914
sg25
S'--'
p915
sg26
S'--'
p916
sg27
S'W27-10'
p917
sg29
S'--'
p918
sg31
S'--'
p919
sg32
S'@JAC'
p920
sg34
S'--'
p921
sg36
S'--'
p922
sg37
S'--'
p923
ssg57
(dp924
g5
g6
sg7
g57
sg9
g6
sg10
S'--'
p925
sg11
g12
sg13
S'Mohamed Sanu'
p926
sg15
S'2012'
p927
sg17
g57
sg19
S'7.0'
p928
sg21
S'10/21'
p929
sg23
S'9.0'
p930
sg25
S'--'
p931
sg26
g12
sg27
S'L17-24'
p932
sg29
S'27'
p933
sg31
g142
sg32
S'PIT'
p934
sg34
S'17'
p935
sg36
g6
sg37
g57
ssg98
(dp936
g5
S'--'
p937
sg7
S'--'
p938
sg9
g6
sg10
S'--'
p939
sg11
g6
sg13
S'Mohamed Sanu'
p940
sg15
S'2012'
p941
sg17
g98
sg19
S'--'
p942
sg21
S'10/14'
p943
sg23
S'--'
p944
sg25
S'--'
p945
sg26
S'--'
p946
sg27
S'L24-34'
p947
sg29
S'--'
p948
sg31
S'--'
p949
sg32
S'@CLE'
p950
sg34
S'--'
p951
sg36
S'--'
p952
sg37
S'--'
p953
ssg240
(dp954
g5
S'--'
p955
sg7
S'--'
p956
sg9
g6
sg10
S'--'
p957
sg11
g12
sg13
S'Mohamed Sanu'
p958
sg15
S'2012'
p959
sg17
g240
sg19
S'--'
p960
sg21
S'11/04'
p961
sg23
S'14.5'
p962
sg25
S'--'
p963
sg26
S'--'
p964
sg27
S'L23-31'
p965
sg29
S'29'
p966
sg31
g8
sg32
S'DEN'
p967
sg34
S'34'
p968
sg36
g6
sg37
S'--'
p969
ssg83
(dp970
g5
g224
sg7
g224
sg9
g224
sg10
g224
sg11
g224
sg13
S'Mohamed Sanu'
p971
sg15
S'2012'
p972
sg17
g83
sg19
g224
sg21
S'Bye'
p973
sg23
g224
sg25
g224
sg26
g224
sg27
g224
sg29
g224
sg31
g224
sg32
g224
sg34
g224
sg36
g224
sg37
g224
sss.