(dp0
S'2015'
p1
(dp2
S'11'
p3
(dp4
S'RushTD'
p5
S''
p6
sS'RushYds'
p7
g6
sS'GS'
p8
g6
sS'Lost'
p9
g6
sS'G'
p10
g6
sS'Player'
p11
S'Myles White'
p12
sS'Year'
p13
S'2015'
p14
sS'WK'
p15
S'11'
p16
sS'RushAvg'
p17
g6
sS'Game Date'
p18
S'Bye'
p19
sS'RecAvg'
p20
g6
sS'FUM'
p21
g6
sS'RushAtt'
p22
g6
sS'Result'
p23
g6
sS'RecYds'
p24
g6
sS'Rec'
p25
g6
sS'Opp'
p26
g6
sS'RecLng'
p27
g6
sS'RecTD'
p28
g6
sS'RushLng'
p29
g6
ssS'10'
p30
(dp31
g5
S'--'
p32
sg7
S'--'
p33
sg8
S'0'
p34
sg9
S'--'
p35
sg10
S'1'
p36
sg11
S'Myles White'
p37
sg13
S'2015'
p38
sg15
S'10'
p39
sg17
S'--'
p40
sg18
S'11/15'
p41
sg20
S'28.0'
p42
sg21
S'--'
p43
sg22
S'--'
p44
sg23
S'L26-27'
p45
sg24
S'28'
p46
sg25
g36
sg26
S'NE'
p47
sg27
S'28'
p48
sg28
g34
sg29
S'--'
p49
ssS'13'
p50
(dp51
g5
S'--'
p52
sg7
S'--'
p53
sg8
g34
sg9
S'--'
p54
sg10
g36
sg11
S'Myles White'
p55
sg13
S'2015'
p56
sg15
S'13'
p57
sg17
S'--'
p58
sg18
S'12/06'
p59
sg20
S'5.0'
p60
sg21
S'--'
p61
sg22
S'--'
p62
sg23
S'L20-23'
p63
sg24
S'5'
p64
sg25
g36
sg26
S'NYJ'
p65
sg27
g64
sg28
g34
sg29
S'--'
p66
ssS'12'
p67
(dp68
g5
S'--'
p69
sg7
S'--'
p70
sg8
g34
sg9
S'--'
p71
sg10
g36
sg11
S'Myles White'
p72
sg13
S'2015'
p73
sg15
S'12'
p74
sg17
S'--'
p75
sg18
S'11/29'
p76
sg20
S'--'
p77
sg21
S'--'
p78
sg22
S'--'
p79
sg23
S'L14-20'
p80
sg24
S'--'
p81
sg25
S'--'
p82
sg26
S'@WAS'
p83
sg27
S'--'
p84
sg28
S'--'
p85
sg29
S'--'
p86
ssS'15'
p87
(dp88
g5
S'--'
p89
sg7
S'--'
p90
sg8
g34
sg9
S'--'
p91
sg10
g36
sg11
S'Myles White'
p92
sg13
S'2015'
p93
sg15
S'15'
p94
sg17
S'--'
p95
sg18
S'12/20'
p96
sg20
S'10.0'
p97
sg21
S'--'
p98
sg22
S'--'
p99
sg23
S'L35-38'
p100
sg24
S'10'
p101
sg25
g36
sg26
S'CAR'
p102
sg27
S'10'
p103
sg28
g34
sg29
S'--'
p104
ssS'14'
p105
(dp106
g5
S'--'
p107
sg7
S'--'
p108
sg8
g34
sg9
S'--'
p109
sg10
g36
sg11
S'Myles White'
p110
sg13
S'2015'
p111
sg15
S'14'
p112
sg17
S'--'
p113
sg18
S'12/14'
p114
sg20
S'--'
p115
sg21
S'--'
p116
sg22
S'--'
p117
sg23
S'W31-24'
p118
sg24
S'--'
p119
sg25
S'--'
p120
sg26
S'@MIA'
p121
sg27
S'--'
p122
sg28
S'--'
p123
sg29
S'--'
p124
ssS'17'
p125
(dp126
g5
S'--'
p127
sg7
S'--'
p128
sg8
g34
sg9
S'--'
p129
sg10
g36
sg11
S'Myles White'
p130
sg13
S'2015'
p131
sg15
S'17'
p132
sg17
S'--'
p133
sg18
S'01/03'
p134
sg20
S'--'
p135
sg21
S'--'
p136
sg22
S'--'
p137
sg23
S'L30-35'
p138
sg24
g34
sg25
g34
sg26
S'PHI'
p139
sg27
S'--'
p140
sg28
g34
sg29
S'--'
p141
ssS'16'
p142
(dp143
g5
S'--'
p144
sg7
S'--'
p145
sg8
g34
sg9
S'--'
p146
sg10
g36
sg11
S'Myles White'
p147
sg13
S'2015'
p148
sg15
S'16'
p149
sg17
S'--'
p150
sg18
S'12/27'
p151
sg20
S'17.0'
p152
sg21
S'--'
p153
sg22
S'--'
p154
sg23
S'L17-49'
p155
sg24
S'34'
p156
sg25
S'2'
p157
sg26
S'@MIN'
p158
sg27
S'25T'
p159
sg28
g36
sg29
S'--'
p160
ssg64
(dp161
g5
S'--'
p162
sg7
S'--'
p163
sg8
g34
sg9
S'--'
p164
sg10
g36
sg11
S'Myles White'
p165
sg13
S'2015'
p166
sg15
g64
sg17
S'--'
p167
sg18
S'10/11'
p168
sg20
S'--'
p169
sg21
S'--'
p170
sg22
S'--'
p171
sg23
S'W30-27'
p172
sg24
g34
sg25
g34
sg26
S'SF'
p173
sg27
S'--'
p174
sg28
g34
sg29
S'--'
p175
ssS'7'
p176
(dp177
g5
S'--'
p178
sg7
S'--'
p179
sg8
g34
sg9
S'--'
p180
sg10
g36
sg11
S'Myles White'
p181
sg13
S'2015'
p182
sg15
g176
sg17
S'--'
p183
sg18
S'10/25'
p184
sg20
S'--'
p185
sg21
S'--'
p186
sg22
S'--'
p187
sg23
S'W27-20'
p188
sg24
S'--'
p189
sg25
S'--'
p190
sg26
S'DAL'
p191
sg27
S'--'
p192
sg28
S'--'
p193
sg29
S'--'
p194
ssS'6'
p195
(dp196
g5
S'--'
p197
sg7
S'--'
p198
sg8
g34
sg9
S'--'
p199
sg10
g36
sg11
S'Myles White'
p200
sg13
S'2015'
p201
sg15
g195
sg17
S'--'
p202
sg18
S'10/19'
p203
sg20
S'--'
p204
sg21
S'--'
p205
sg22
S'--'
p206
sg23
S'L7-27'
p207
sg24
g34
sg25
g34
sg26
S'@PHI'
p208
sg27
S'--'
p209
sg28
g34
sg29
S'--'
p210
ssS'9'
p211
(dp212
g5
S'--'
p213
sg7
S'--'
p214
sg8
g34
sg9
S'--'
p215
sg10
g36
sg11
S'Myles White'
p216
sg13
S'2015'
p217
sg15
g211
sg17
S'--'
p218
sg18
S'11/08'
p219
sg20
S'3.0'
p220
sg21
S'--'
p221
sg22
S'--'
p222
sg23
S'W32-18'
p223
sg24
S'3'
p224
sg25
g36
sg26
S'@TB'
p225
sg27
g224
sg28
g34
sg29
S'--'
p226
ssS'8'
p227
(dp228
g5
S'--'
p229
sg7
S'--'
p230
sg8
g34
sg9
S'--'
p231
sg10
g36
sg11
S'Myles White'
p232
sg13
S'2015'
p233
sg15
g227
sg17
S'--'
p234
sg18
S'11/01'
p235
sg20
S'8.0'
p236
sg21
S'--'
p237
sg22
S'--'
p238
sg23
S'L49-52'
p239
sg24
g227
sg25
g36
sg26
S'@NO'
p240
sg27
g227
sg28
g34
sg29
S'--'
p241
sssS'2013'
p242
(dp243
g3
(dp244
g5
S'--'
p245
sg7
S'--'
p246
sg8
g34
sg9
S'--'
p247
sg10
g34
sg11
S'Myles White'
p248
sg13
S'2013'
p249
sg15
S'11'
p250
sg17
S'--'
p251
sg18
S'11/17'
p252
sg20
S'--'
p253
sg21
S'--'
p254
sg22
S'--'
p255
sg23
S'L13-27'
p256
sg24
S'--'
p257
sg25
S'--'
p258
sg26
S'@NYG'
p259
sg27
S'--'
p260
sg28
S'--'
p261
sg29
S'--'
p262
ssg30
(dp263
g5
S'--'
p264
sg7
S'--'
p265
sg8
g34
sg9
S'--'
p266
sg10
g36
sg11
S'Myles White'
p267
sg13
S'2013'
p268
sg15
S'10'
p269
sg17
S'--'
p270
sg18
S'11/10'
p271
sg20
S'9.0'
p272
sg21
S'--'
p273
sg22
S'--'
p274
sg23
S'L13-27'
p275
sg24
g211
sg25
g36
sg26
S'PHI'
p276
sg27
g211
sg28
g34
sg29
S'--'
p277
ssg50
(dp278
g5
S'--'
p279
sg7
S'--'
p280
sg8
g34
sg9
S'--'
p281
sg10
g36
sg11
S'Myles White'
p282
sg13
S'2013'
p283
sg15
S'13'
p284
sg17
S'--'
p285
sg18
S'11/28'
p286
sg20
S'--'
p287
sg21
S'--'
p288
sg22
S'--'
p289
sg23
S'L10-40'
p290
sg24
S'--'
p291
sg25
S'--'
p292
sg26
S'@DET'
p293
sg27
S'--'
p294
sg28
S'--'
p295
sg29
S'--'
p296
ssg67
(dp297
g5
S'--'
p298
sg7
S'--'
p299
sg8
g34
sg9
S'--'
p300
sg10
g36
sg11
S'Myles White'
p301
sg13
S'2013'
p302
sg15
S'12'
p303
sg17
S'--'
p304
sg18
S'11/24'
p305
sg20
S'--'
p306
sg21
S'--'
p307
sg22
S'--'
p308
sg23
S'T26-26'
p309
sg24
S'--'
p310
sg25
S'--'
p311
sg26
S'MIN'
p312
sg27
S'--'
p313
sg28
S'--'
p314
sg29
S'--'
p315
ssg105
(dp316
g5
S'--'
p317
sg7
S'--'
p318
sg8
g34
sg9
S'--'
p319
sg10
g36
sg11
S'Myles White'
p320
sg13
S'2013'
p321
sg15
S'14'
p322
sg17
S'--'
p323
sg18
S'12/08'
p324
sg20
S'5.0'
p325
sg21
S'--'
p326
sg22
S'--'
p327
sg23
S'W22-21'
p328
sg24
g64
sg25
g36
sg26
S'ATL'
p329
sg27
g64
sg28
g34
sg29
S'--'
p330
ssg176
(dp331
g5
S'--'
p332
sg7
S'--'
p333
sg8
g34
sg9
S'--'
p334
sg10
g36
sg11
S'Myles White'
p335
sg13
S'2013'
p336
sg15
g176
sg17
S'--'
p337
sg18
S'10/20'
p338
sg20
S'9.0'
p339
sg21
S'--'
p340
sg22
S'--'
p341
sg23
S'W31-13'
p342
sg24
g211
sg25
g36
sg26
S'CLE'
p343
sg27
g211
sg28
g34
sg29
S'--'
p344
ssg211
(dp345
g5
S'--'
p346
sg7
S'--'
p347
sg8
g34
sg9
S'--'
p348
sg10
g36
sg11
S'Myles White'
p349
sg13
S'2013'
p350
sg15
g211
sg17
S'--'
p351
sg18
S'11/04'
p352
sg20
S'8.0'
p353
sg21
S'--'
p354
sg22
S'--'
p355
sg23
S'L20-27'
p356
sg24
g227
sg25
g36
sg26
S'CHI'
p357
sg27
g227
sg28
g34
sg29
S'--'
p358
ssg227
(dp359
g5
S'--'
p360
sg7
S'--'
p361
sg8
g34
sg9
S'--'
p362
sg10
g36
sg11
S'Myles White'
p363
sg13
S'2013'
p364
sg15
g227
sg17
S'--'
p365
sg18
S'10/27'
p366
sg20
S'7.0'
p367
sg21
S'--'
p368
sg22
S'--'
p369
sg23
S'W44-31'
p370
sg24
S'35'
p371
sg25
g64
sg26
S'@MIN'
p372
sg27
S'15'
p373
sg28
g34
sg29
S'--'
p374
sss.