(dp0
S'2014'
p1
(dp2
S'1'
p3
(dp4
S'RushTD'
p5
S'--'
p6
sS'RushYds'
p7
S'--'
p8
sS'GS'
p9
S'0'
p10
sS'Lost'
p11
S'--'
p12
sS'G'
p13
g10
sS'Player'
p14
S'Nathan Palmer'
p15
sS'Year'
p16
S'2014'
p17
sS'WK'
p18
g3
sS'RushAvg'
p19
S'--'
p20
sS'Game Date'
p21
S'09/07'
p22
sS'RecAvg'
p23
S'--'
p24
sS'FUM'
p25
S'--'
p26
sS'RushAtt'
p27
S'--'
p28
sS'Result'
p29
S'W31-24'
p30
sS'RecYds'
p31
S'--'
p32
sS'Rec'
p33
S'--'
p34
sS'Opp'
p35
S'IND'
p36
sS'RecLng'
p37
S'--'
p38
sS'RecTD'
p39
S'--'
p40
sS'RushLng'
p41
S'--'
p42
sssS'2012'
p43
(dp44
S'11'
p45
(dp46
g5
S'--'
p47
sg7
S'--'
p48
sg9
g10
sg11
S'--'
p49
sg13
g3
sg14
S'Nathan Palmer'
p50
sg16
S'2012'
p51
sg18
S'11'
p52
sg19
S'--'
p53
sg21
S'11/18'
p54
sg23
S'--'
p55
sg25
S'--'
p56
sg27
S'--'
p57
sg29
S'L24-59'
p58
sg31
g10
sg33
g10
sg35
S'@NE'
p59
sg37
S'--'
p60
sg39
g10
sg41
S'--'
p61
ssS'10'
p62
(dp63
g5
S'--'
p64
sg7
S'--'
p65
sg9
g10
sg11
S'--'
p66
sg13
g3
sg14
S'Nathan Palmer'
p67
sg16
S'2012'
p68
sg18
S'10'
p69
sg19
S'--'
p70
sg21
S'11/08'
p71
sg23
S'--'
p72
sg25
S'--'
p73
sg27
S'--'
p74
sg29
S'W27-10'
p75
sg31
S'--'
p76
sg33
S'--'
p77
sg35
S'@JAC'
p78
sg37
S'--'
p79
sg39
S'--'
p80
sg41
S'--'
p81
ssS'13'
p82
(dp83
g5
S'--'
p84
sg7
S'--'
p85
sg9
g10
sg11
S'--'
p86
sg13
g10
sg14
S'Nathan Palmer'
p87
sg16
S'2012'
p88
sg18
S'13'
p89
sg19
S'--'
p90
sg21
S'12/02'
p91
sg23
S'--'
p92
sg25
S'--'
p93
sg27
S'--'
p94
sg29
S'W35-33'
p95
sg31
S'--'
p96
sg33
S'--'
p97
sg35
S'@DET'
p98
sg37
S'--'
p99
sg39
S'--'
p100
sg41
S'--'
p101
ssS'12'
p102
(dp103
g5
S'--'
p104
sg7
S'--'
p105
sg9
g10
sg11
S'--'
p106
sg13
g10
sg14
S'Nathan Palmer'
p107
sg16
S'2012'
p108
sg18
S'12'
p109
sg19
S'--'
p110
sg21
S'11/25'
p111
sg23
S'--'
p112
sg25
S'--'
p113
sg27
S'--'
p114
sg29
S'W20-13'
p115
sg31
S'--'
p116
sg33
S'--'
p117
sg35
S'BUF'
p118
sg37
S'--'
p119
sg39
S'--'
p120
sg41
S'--'
p121
ssS'15'
p122
(dp123
g5
S'--'
p124
sg7
S'--'
p125
sg9
g10
sg11
S'--'
p126
sg13
g10
sg14
S'Nathan Palmer'
p127
sg16
S'2012'
p128
sg18
S'15'
p129
sg19
S'--'
p130
sg21
S'12/16'
p131
sg23
S'--'
p132
sg25
S'--'
p133
sg27
S'--'
p134
sg29
S'L17-29'
p135
sg31
S'--'
p136
sg33
S'--'
p137
sg35
S'@HOU'
p138
sg37
S'--'
p139
sg39
S'--'
p140
sg41
S'--'
p141
ssS'14'
p142
(dp143
g5
S'--'
p144
sg7
S'--'
p145
sg9
g10
sg11
S'--'
p146
sg13
g10
sg14
S'Nathan Palmer'
p147
sg16
S'2012'
p148
sg18
S'14'
p149
sg19
S'--'
p150
sg21
S'12/09'
p151
sg23
S'--'
p152
sg25
S'--'
p153
sg27
S'--'
p154
sg29
S'W27-23'
p155
sg31
S'--'
p156
sg33
S'--'
p157
sg35
S'TEN'
p158
sg37
S'--'
p159
sg39
S'--'
p160
sg41
S'--'
p161
ssS'17'
p162
(dp163
g5
S'--'
p164
sg7
S'--'
p165
sg9
g10
sg11
S'--'
p166
sg13
g10
sg14
S'Nathan Palmer'
p167
sg16
S'2012'
p168
sg18
S'17'
p169
sg19
S'--'
p170
sg21
S'12/30'
p171
sg23
S'--'
p172
sg25
S'--'
p173
sg27
S'--'
p174
sg29
S'W28-16'
p175
sg31
S'--'
p176
sg33
S'--'
p177
sg35
S'HOU'
p178
sg37
S'--'
p179
sg39
S'--'
p180
sg41
S'--'
p181
ssS'16'
p182
(dp183
g5
S'--'
p184
sg7
S'--'
p185
sg9
g10
sg11
S'--'
p186
sg13
g10
sg14
S'Nathan Palmer'
p187
sg16
S'2012'
p188
sg18
S'16'
p189
sg19
S'--'
p190
sg21
S'12/23'
p191
sg23
S'--'
p192
sg25
S'--'
p193
sg27
S'--'
p194
sg29
S'W20-13'
p195
sg31
S'--'
p196
sg33
S'--'
p197
sg35
S'@KC'
p198
sg37
S'--'
p199
sg39
S'--'
p200
sg41
S'--'
p201
ssS'5'
p202
(dp203
g5
S'--'
p204
sg7
S'--'
p205
sg9
g10
sg11
S'--'
p206
sg13
g3
sg14
S'Nathan Palmer'
p207
sg16
S'2012'
p208
sg18
g202
sg19
S'--'
p209
sg21
S'10/07'
p210
sg23
S'--'
p211
sg25
S'--'
p212
sg27
S'--'
p213
sg29
S'W30-27'
p214
sg31
g10
sg33
g10
sg35
S'GB'
p215
sg37
S'--'
p216
sg39
g10
sg41
S'--'
p217
ssS'4'
p218
(dp219
g5
S''
p220
sg7
g220
sg9
g220
sg11
g220
sg13
g220
sg14
S'Nathan Palmer'
p221
sg16
S'2012'
p222
sg18
g218
sg19
g220
sg21
S'Bye'
p223
sg23
g220
sg25
g220
sg27
g220
sg29
g220
sg31
g220
sg33
g220
sg35
g220
sg37
g220
sg39
g220
sg41
g220
ssS'7'
p224
(dp225
g5
S'--'
p226
sg7
S'--'
p227
sg9
g10
sg11
S'--'
p228
sg13
g3
sg14
S'Nathan Palmer'
p229
sg16
S'2012'
p230
sg18
g224
sg19
S'--'
p231
sg21
S'10/21'
p232
sg23
S'--'
p233
sg25
S'--'
p234
sg27
S'--'
p235
sg29
S'W17-13'
p236
sg31
S'--'
p237
sg33
S'--'
p238
sg35
S'CLE'
p239
sg37
S'--'
p240
sg39
S'--'
p241
sg41
S'--'
p242
ssS'6'
p243
(dp244
g5
S'--'
p245
sg7
S'--'
p246
sg9
g10
sg11
S'--'
p247
sg13
g3
sg14
S'Nathan Palmer'
p248
sg16
S'2012'
p249
sg18
g243
sg19
S'--'
p250
sg21
S'10/14'
p251
sg23
S'-4.0'
p252
sg25
S'--'
p253
sg27
S'--'
p254
sg29
S'L9-35'
p255
sg31
S'-4'
p256
sg33
g3
sg35
S'@NYJ'
p257
sg37
S'-4'
p258
sg39
g10
sg41
S'--'
p259
ssS'9'
p260
(dp261
g5
S'--'
p262
sg7
S'--'
p263
sg9
g10
sg11
S'--'
p264
sg13
g10
sg14
S'Nathan Palmer'
p265
sg16
S'2012'
p266
sg18
g260
sg19
S'--'
p267
sg21
S'11/04'
p268
sg23
S'--'
p269
sg25
S'--'
p270
sg27
S'--'
p271
sg29
S'W23-20'
p272
sg31
S'--'
p273
sg33
S'--'
p274
sg35
S'MIA'
p275
sg37
S'--'
p276
sg39
S'--'
p277
sg41
S'--'
p278
ssS'8'
p279
(dp280
g5
S'--'
p281
sg7
S'--'
p282
sg9
g10
sg11
S'--'
p283
sg13
g10
sg14
S'Nathan Palmer'
p284
sg16
S'2012'
p285
sg18
g279
sg19
S'--'
p286
sg21
S'10/28'
p287
sg23
S'--'
p288
sg25
S'--'
p289
sg27
S'--'
p290
sg29
S'W19-13'
p291
sg31
S'--'
p292
sg33
S'--'
p293
sg35
S'@TEN'
p294
sg37
S'--'
p295
sg39
S'--'
p296
sg41
S'--'
p297
sss.