(dp0
S'2015'
p1
(dp2
S'11'
p3
(dp4
S'RushTD'
p5
S'--'
p6
sS'RushYds'
p7
S'--'
p8
sS'GS'
p9
S'0'
p10
sS'Lost'
p11
S'--'
p12
sS'G'
p13
g10
sS'Player'
p14
S'Nick Williams'
p15
sS'Year'
p16
S'2015'
p17
sS'WK'
p18
S'11'
p19
sS'RushAvg'
p20
S'--'
p21
sS'Game Date'
p22
S'11/22'
p23
sS'RecAvg'
p24
S'--'
p25
sS'FUM'
p26
S'--'
p27
sS'RushAtt'
p28
S'--'
p29
sS'Result'
p30
S'L21-24'
p31
sS'RecYds'
p32
S'--'
p33
sS'Rec'
p34
S'--'
p35
sS'Opp'
p36
S'IND'
p37
sS'RecLng'
p38
S'--'
p39
sS'RecTD'
p40
S'--'
p41
sS'RushLng'
p42
S'--'
p43
ssS'10'
p44
(dp45
g5
S''
p46
sg7
g46
sg9
g46
sg11
g46
sg13
g46
sg14
S'Nick Williams'
p47
sg16
S'2015'
p48
sg18
S'10'
p49
sg20
g46
sg22
S'Bye'
p50
sg24
g46
sg26
g46
sg28
g46
sg30
g46
sg32
g46
sg34
g46
sg36
g46
sg38
g46
sg40
g46
sg42
g46
ssS'13'
p51
(dp52
g5
S'--'
p53
sg7
S'--'
p54
sg9
g10
sg11
S'--'
p55
sg13
S'1'
p56
sg14
S'Nick Williams'
p57
sg16
S'2015'
p58
sg18
S'13'
p59
sg20
S'--'
p60
sg22
S'12/06'
p61
sg24
S'5.0'
p62
sg26
S'--'
p63
sg28
S'--'
p64
sg30
S'L19-23'
p65
sg32
S'5'
p66
sg34
g56
sg36
S'@TB'
p67
sg38
S'5T'
p68
sg40
g56
sg42
S'--'
p69
ssS'12'
p70
(dp71
g5
S'--'
p72
sg7
S'--'
p73
sg9
g10
sg11
S'--'
p74
sg13
g56
sg14
S'Nick Williams'
p75
sg16
S'2015'
p76
sg18
S'12'
p77
sg20
S'--'
p78
sg22
S'11/29'
p79
sg24
S'5.3'
p80
sg26
S'--'
p81
sg28
S'--'
p82
sg30
S'L10-20'
p83
sg32
S'16'
p84
sg34
S'3'
p85
sg36
S'MIN'
p86
sg38
S'11'
p87
sg40
g56
sg42
S'--'
p88
ssS'15'
p89
(dp90
g5
S'--'
p91
sg7
S'--'
p92
sg9
g10
sg11
S'--'
p93
sg13
g56
sg14
S'Nick Williams'
p94
sg16
S'2015'
p95
sg18
S'15'
p96
sg20
S'--'
p97
sg22
S'12/20'
p98
sg24
S'--'
p99
sg26
S'--'
p100
sg28
S'--'
p101
sg30
S'W23-17'
p102
sg32
S'--'
p103
sg34
S'--'
p104
sg36
S'@JAC'
p105
sg38
S'--'
p106
sg40
S'--'
p107
sg42
S'--'
p108
ssS'14'
p109
(dp110
g5
S'--'
p111
sg7
S'--'
p112
sg9
g10
sg11
S'--'
p113
sg13
g56
sg14
S'Nick Williams'
p114
sg16
S'2015'
p115
sg18
S'14'
p116
sg20
S'--'
p117
sg22
S'12/13'
p118
sg24
S'10.0'
p119
sg26
S'--'
p120
sg28
S'--'
p121
sg30
S'L0-38'
p122
sg32
S'40'
p123
sg34
S'4'
p124
sg36
S'@CAR'
p125
sg38
S'29'
p126
sg40
g10
sg42
S'--'
p127
ssS'17'
p128
(dp129
g5
S'--'
p130
sg7
S'--'
p131
sg9
g10
sg11
S'--'
p132
sg13
g56
sg14
S'Nick Williams'
p133
sg16
S'2015'
p134
sg18
S'17'
p135
sg20
S'--'
p136
sg22
S'01/03'
p137
sg24
S'--'
p138
sg26
S'--'
p139
sg28
S'--'
p140
sg30
S'L17-20'
p141
sg32
S'--'
p142
sg34
S'--'
p143
sg36
S'NO'
p144
sg38
S'--'
p145
sg40
S'--'
p146
sg42
S'--'
p147
ssS'16'
p148
(dp149
g5
S'--'
p150
sg7
S'--'
p151
sg9
g10
sg11
S'--'
p152
sg13
g56
sg14
S'Nick Williams'
p153
sg16
S'2015'
p154
sg18
S'16'
p155
sg20
S'--'
p156
sg22
S'12/27'
p157
sg24
S'--'
p158
sg26
S'--'
p159
sg28
S'--'
p160
sg30
S'W20-13'
p161
sg32
S'--'
p162
sg34
S'--'
p163
sg36
S'CAR'
p164
sg38
S'--'
p165
sg40
S'--'
p166
sg42
S'--'
p167
ssg56
(dp168
g5
S'--'
p169
sg7
S'--'
p170
sg9
g10
sg11
S'--'
p171
sg13
g56
sg14
S'Nick Williams'
p172
sg16
S'2015'
p173
sg18
g56
sg20
S'--'
p174
sg22
S'09/14'
p175
sg24
S'5.0'
p176
sg26
S'--'
p177
sg28
S'--'
p178
sg30
S'W26-24'
p179
sg32
g66
sg34
g56
sg36
S'PHI'
p180
sg38
g66
sg40
g10
sg42
S'--'
p181
ssg85
(dp182
g5
S'--'
p183
sg7
S'--'
p184
sg9
g10
sg11
S'--'
p185
sg13
g56
sg14
S'Nick Williams'
p186
sg16
S'2015'
p187
sg18
g85
sg20
S'--'
p188
sg22
S'09/27'
p189
sg24
S'6.0'
p190
sg26
S'--'
p191
sg28
S'--'
p192
sg30
S'W39-28'
p193
sg32
S'6'
p194
sg34
g56
sg36
S'@DAL'
p195
sg38
g194
sg40
g10
sg42
S'--'
p196
ssS'2'
p197
(dp198
g5
S'--'
p199
sg7
S'--'
p200
sg9
g10
sg11
S'--'
p201
sg13
g56
sg14
S'Nick Williams'
p202
sg16
S'2015'
p203
sg18
g197
sg20
S'--'
p204
sg22
S'09/20'
p205
sg24
S'12.0'
p206
sg26
S'--'
p207
sg28
S'--'
p208
sg30
S'W24-20'
p209
sg32
S'12'
p210
sg34
g56
sg36
S'@NYG'
p211
sg38
S'12'
p212
sg40
g10
sg42
S'--'
p213
ssg66
(dp214
g5
S'--'
p215
sg7
S'--'
p216
sg9
g10
sg11
S'--'
p217
sg13
g56
sg14
S'Nick Williams'
p218
sg16
S'2015'
p219
sg18
g66
sg20
S'--'
p220
sg22
S'10/11'
p221
sg24
S'13.0'
p222
sg26
S'--'
p223
sg28
S'--'
p224
sg30
S'W25-19'
p225
sg32
S'13'
p226
sg34
g56
sg36
S'WAS'
p227
sg38
S'13'
p228
sg40
g10
sg42
S'--'
p229
ssg124
(dp230
g5
S'--'
p231
sg7
S'--'
p232
sg9
g10
sg11
S'--'
p233
sg13
g56
sg14
S'Nick Williams'
p234
sg16
S'2015'
p235
sg18
g124
sg20
S'--'
p236
sg22
S'10/04'
p237
sg24
S'8.0'
p238
sg26
S'--'
p239
sg28
S'--'
p240
sg30
S'W48-21'
p241
sg32
S'8'
p242
sg34
g56
sg36
S'HOU'
p243
sg38
g242
sg40
g10
sg42
S'--'
p244
ssS'7'
p245
(dp246
g5
S'--'
p247
sg7
S'--'
p248
sg9
g10
sg11
S'--'
p249
sg13
g56
sg14
S'Nick Williams'
p250
sg16
S'2015'
p251
sg18
g245
sg20
S'--'
p252
sg22
S'10/25'
p253
sg24
S'14.3'
p254
sg26
S'--'
p255
sg28
S'--'
p256
sg30
S'W10-7'
p257
sg32
S'43'
p258
sg34
g85
sg36
S'@TEN'
p259
sg38
S'21'
p260
sg40
g10
sg42
S'--'
p261
ssg194
(dp262
g5
S'--'
p263
sg7
S'--'
p264
sg9
g10
sg11
S'--'
p265
sg13
g56
sg14
S'Nick Williams'
p266
sg16
S'2015'
p267
sg18
g194
sg20
S'--'
p268
sg22
S'10/15'
p269
sg24
S'11.0'
p270
sg26
S'--'
p271
sg28
S'--'
p272
sg30
S'L21-31'
p273
sg32
S'11'
p274
sg34
g56
sg36
S'@NO'
p275
sg38
S'11'
p276
sg40
g10
sg42
S'--'
p277
ssS'9'
p278
(dp279
g5
S'--'
p280
sg7
S'--'
p281
sg9
g10
sg11
S'--'
p282
sg13
g56
sg14
S'Nick Williams'
p283
sg16
S'2015'
p284
sg18
g278
sg20
S'--'
p285
sg22
S'11/08'
p286
sg24
S'--'
p287
sg26
S'--'
p288
sg28
S'--'
p289
sg30
S'L16-17'
p290
sg32
g10
sg34
g10
sg36
S'@SF'
p291
sg38
S'--'
p292
sg40
g10
sg42
S'--'
p293
ssg242
(dp294
g5
S'--'
p295
sg7
S'--'
p296
sg9
g10
sg11
S'--'
p297
sg13
g10
sg14
S'Nick Williams'
p298
sg16
S'2015'
p299
sg18
g242
sg20
S'--'
p300
sg22
S'11/01'
p301
sg24
S'--'
p302
sg26
S'--'
p303
sg28
S'--'
p304
sg30
S'L20-23'
p305
sg32
S'--'
p306
sg34
S'--'
p307
sg36
S'TB'
p308
sg38
S'--'
p309
sg40
S'--'
p310
sg42
S'--'
p311
sssS'2013'
p312
(dp313
g3
(dp314
g5
S'--'
p315
sg7
S'--'
p316
sg9
g10
sg11
g10
sg13
g56
sg14
S'Nick Williams'
p317
sg16
S'2013'
p318
sg18
S'11'
p319
sg20
S'--'
p320
sg22
S'11/17'
p321
sg24
S'5.0'
p322
sg26
g56
sg28
S'--'
p323
sg30
S'L16-24'
p324
sg32
g66
sg34
g56
sg36
S'@PHI'
p325
sg38
g66
sg40
g10
sg42
S'--'
p326
ssg51
(dp327
g5
S'--'
p328
sg7
S'--'
p329
sg9
g10
sg11
S'--'
p330
sg13
g56
sg14
S'Nick Williams'
p331
sg16
S'2013'
p332
sg18
S'13'
p333
sg20
S'--'
p334
sg22
S'12/01'
p335
sg24
S'6.0'
p336
sg26
S'--'
p337
sg28
S'--'
p338
sg30
S'L17-24'
p339
sg32
g194
sg34
g56
sg36
S'NYG'
p340
sg38
g194
sg40
g10
sg42
S'--'
p341
ssg70
(dp342
g5
S'--'
p343
sg7
S'--'
p344
sg9
g10
sg11
S'--'
p345
sg13
g10
sg14
S'Nick Williams'
p346
sg16
S'2013'
p347
sg18
S'12'
p348
sg20
S'--'
p349
sg22
S'11/25'
p350
sg24
S'--'
p351
sg26
S'--'
p352
sg28
S'--'
p353
sg30
S'L6-27'
p354
sg32
S'--'
p355
sg34
S'--'
p356
sg36
S'SF'
p357
sg38
S'--'
p358
sg40
S'--'
p359
sg42
S'--'
p360
ssg89
(dp361
g5
S'--'
p362
sg7
S'--'
p363
sg9
g10
sg11
S'--'
p364
sg13
g56
sg14
S'Nick Williams'
p365
sg16
S'2013'
p366
sg18
S'15'
p367
sg20
S'--'
p368
sg22
S'12/15'
p369
sg24
S'4.0'
p370
sg26
S'--'
p371
sg28
S'--'
p372
sg30
S'L26-27'
p373
sg32
g124
sg34
g56
sg36
S'@ATL'
p374
sg38
g124
sg40
g10
sg42
S'--'
p375
ssg109
(dp376
g5
S'--'
p377
sg7
S'--'
p378
sg9
g10
sg11
S'--'
p379
sg13
g10
sg14
S'Nick Williams'
p380
sg16
S'2013'
p381
sg18
S'14'
p382
sg20
S'--'
p383
sg22
S'12/08'
p384
sg24
S'--'
p385
sg26
S'--'
p386
sg28
S'--'
p387
sg30
S'L10-45'
p388
sg32
S'--'
p389
sg34
S'--'
p390
sg36
S'KC'
p391
sg38
S'--'
p392
sg40
S'--'
p393
sg42
S'--'
p394
ssg128
(dp395
g5
S'--'
p396
sg7
S'--'
p397
sg9
g10
sg11
S'--'
p398
sg13
g56
sg14
S'Nick Williams'
p399
sg16
S'2013'
p400
sg18
S'17'
p401
sg20
S'--'
p402
sg22
S'12/29'
p403
sg24
S'--'
p404
sg26
S'--'
p405
sg28
S'--'
p406
sg30
S'L6-20'
p407
sg32
g10
sg34
g10
sg36
S'@NYG'
p408
sg38
S'--'
p409
sg40
g10
sg42
S'--'
p410
ssg148
(dp411
g5
S'--'
p412
sg7
S'--'
p413
sg9
g10
sg11
S'--'
p414
sg13
g56
sg14
S'Nick Williams'
p415
sg16
S'2013'
p416
sg18
S'16'
p417
sg20
S'--'
p418
sg22
S'12/22'
p419
sg24
S'--'
p420
sg26
S'--'
p421
sg28
S'--'
p422
sg30
S'L23-24'
p423
sg32
S'--'
p424
sg34
S'--'
p425
sg36
S'DAL'
p426
sg38
S'--'
p427
sg40
S'--'
p428
sg42
S'--'
p429
sss.