(dp0
S'2015'
p1
(dp2
S'11'
p3
(dp4
S'RushTD'
p5
S''
p6
sS'RushYds'
p7
g6
sS'GS'
p8
g6
sS'Lost'
p9
g6
sS'G'
p10
g6
sS'Player'
p11
S'Odell Beckham'
p12
sS'Year'
p13
S'2015'
p14
sS'WK'
p15
S'11'
p16
sS'RushAvg'
p17
g6
sS'Game Date'
p18
S'Bye'
p19
sS'RecAvg'
p20
g6
sS'FUM'
p21
g6
sS'RushAtt'
p22
g6
sS'Result'
p23
g6
sS'RecYds'
p24
g6
sS'Rec'
p25
g6
sS'Opp'
p26
g6
sS'RecLng'
p27
g6
sS'RecTD'
p28
g6
sS'RushLng'
p29
g6
ssS'10'
p30
(dp31
g5
S'--'
p32
sg7
S'--'
p33
sg8
S'1'
p34
sg9
S'--'
p35
sg10
g34
sg11
S'Odell Beckham'
p36
sg13
S'2015'
p37
sg15
S'10'
p38
sg17
S'--'
p39
sg18
S'11/15'
p40
sg20
S'26.0'
p41
sg21
S'--'
p42
sg22
S'--'
p43
sg23
S'L26-27'
p44
sg24
S'104'
p45
sg25
S'4'
p46
sg26
S'NE'
p47
sg27
S'87T'
p48
sg28
g34
sg29
S'--'
p49
ssS'13'
p50
(dp51
g5
S'--'
p52
sg7
S'--'
p53
sg8
g34
sg9
S'--'
p54
sg10
g34
sg11
S'Odell Beckham'
p55
sg13
S'2015'
p56
sg15
S'13'
p57
sg17
S'--'
p58
sg18
S'12/06'
p59
sg20
S'24.8'
p60
sg21
S'--'
p61
sg22
S'--'
p62
sg23
S'L20-23'
p63
sg24
S'149'
p64
sg25
S'6'
p65
sg26
S'NYJ'
p66
sg27
S'72T'
p67
sg28
g34
sg29
S'--'
p68
ssS'12'
p69
(dp70
g5
S'--'
p71
sg7
S'--'
p72
sg8
g34
sg9
S'--'
p73
sg10
g34
sg11
S'Odell Beckham'
p74
sg13
S'2015'
p75
sg15
S'12'
p76
sg17
S'--'
p77
sg18
S'11/29'
p78
sg20
S'15.8'
p79
sg21
S'--'
p80
sg22
S'--'
p81
sg23
S'L14-20'
p82
sg24
S'142'
p83
sg25
S'9'
p84
sg26
S'@WAS'
p85
sg27
S'31'
p86
sg28
g34
sg29
S'--'
p87
ssS'15'
p88
(dp89
g5
S'--'
p90
sg7
S'--'
p91
sg8
g34
sg9
S'0'
p92
sg10
g34
sg11
S'Odell Beckham'
p93
sg13
S'2015'
p94
sg15
S'15'
p95
sg17
S'--'
p96
sg18
S'12/20'
p97
sg20
S'12.7'
p98
sg21
g34
sg22
S'--'
p99
sg23
S'L35-38'
p100
sg24
S'76'
p101
sg25
g65
sg26
S'CAR'
p102
sg27
S'40'
p103
sg28
g34
sg29
S'--'
p104
ssS'14'
p105
(dp106
g5
S'--'
p107
sg7
S'--'
p108
sg8
g34
sg9
S'--'
p109
sg10
g34
sg11
S'Odell Beckham'
p110
sg13
S'2015'
p111
sg15
S'14'
p112
sg17
S'--'
p113
sg18
S'12/14'
p114
sg20
S'23.7'
p115
sg21
S'--'
p116
sg22
S'--'
p117
sg23
S'W31-24'
p118
sg24
S'166'
p119
sg25
S'7'
p120
sg26
S'@MIA'
p121
sg27
S'84T'
p122
sg28
S'2'
p123
sg29
S'--'
p124
ssS'17'
p125
(dp126
g5
S'--'
p127
sg7
S'--'
p128
sg8
g34
sg9
S'--'
p129
sg10
g34
sg11
S'Odell Beckham'
p130
sg13
S'2015'
p131
sg15
S'17'
p132
sg17
S'--'
p133
sg18
S'01/03'
p134
sg20
S'10.8'
p135
sg21
S'--'
p136
sg22
S'--'
p137
sg23
S'L30-35'
p138
sg24
S'54'
p139
sg25
S'5'
p140
sg26
S'PHI'
p141
sg27
S'24'
p142
sg28
g92
sg29
S'--'
p143
ssg34
(dp144
g5
S'--'
p145
sg7
S'--'
p146
sg8
g34
sg9
S'--'
p147
sg10
g34
sg11
S'Odell Beckham'
p148
sg13
S'2015'
p149
sg15
g34
sg17
S'--'
p150
sg18
S'09/13'
p151
sg20
S'8.8'
p152
sg21
S'--'
p153
sg22
S'--'
p154
sg23
S'L26-27'
p155
sg24
S'44'
p156
sg25
g140
sg26
S'@DAL'
p157
sg27
S'16'
p158
sg28
g92
sg29
S'--'
p159
ssS'3'
p160
(dp161
g5
S'--'
p162
sg7
S'--'
p163
sg8
g34
sg9
S'--'
p164
sg10
g34
sg11
S'Odell Beckham'
p165
sg13
S'2015'
p166
sg15
g160
sg17
S'--'
p167
sg18
S'09/24'
p168
sg20
S'11.3'
p169
sg21
S'--'
p170
sg22
S'--'
p171
sg23
S'W32-21'
p172
sg24
S'79'
p173
sg25
g120
sg26
S'WAS'
p174
sg27
S'30T'
p175
sg28
g34
sg29
S'--'
p176
ssg123
(dp177
g5
S'--'
p178
sg7
S'--'
p179
sg8
g34
sg9
S'--'
p180
sg10
g34
sg11
S'Odell Beckham'
p181
sg13
S'2015'
p182
sg15
g123
sg17
S'--'
p183
sg18
S'09/20'
p184
sg20
S'20.9'
p185
sg21
S'--'
p186
sg22
S'--'
p187
sg23
S'L20-24'
p188
sg24
S'146'
p189
sg25
g120
sg26
S'ATL'
p190
sg27
S'67T'
p191
sg28
g34
sg29
S'--'
p192
ssg140
(dp193
g5
g92
sg7
g160
sg8
g34
sg9
S'--'
p194
sg10
g34
sg11
S'Odell Beckham'
p195
sg13
S'2015'
p196
sg15
g140
sg17
S'3.0'
p197
sg18
S'10/11'
p198
sg20
S'17.3'
p199
sg21
S'--'
p200
sg22
g34
sg23
S'W30-27'
p201
sg24
S'121'
p202
sg25
g120
sg26
S'SF'
p203
sg27
S'49'
p204
sg28
g34
sg29
g160
ssg46
(dp205
g5
S'--'
p206
sg7
S'--'
p207
sg8
g34
sg9
S'--'
p208
sg10
g34
sg11
S'Odell Beckham'
p209
sg13
S'2015'
p210
sg15
g46
sg17
S'--'
p211
sg18
S'10/04'
p212
sg20
S'7.6'
p213
sg21
S'--'
p214
sg22
S'--'
p215
sg23
S'W24-10'
p216
sg24
S'38'
p217
sg25
g140
sg26
S'@BUF'
p218
sg27
g84
sg28
g92
sg29
S'--'
p219
ssg120
(dp220
g5
S'--'
p221
sg7
S'--'
p222
sg8
g34
sg9
S'--'
p223
sg10
g34
sg11
S'Odell Beckham'
p224
sg13
S'2015'
p225
sg15
g120
sg17
S'--'
p226
sg18
S'10/25'
p227
sg20
S'8.8'
p228
sg21
S'--'
p229
sg22
S'--'
p230
sg23
S'W27-20'
p231
sg24
S'35'
p232
sg25
g46
sg26
S'DAL'
p233
sg27
S'10'
p234
sg28
g92
sg29
S'--'
p235
ssg65
(dp236
g5
S'--'
p237
sg7
S'--'
p238
sg8
g34
sg9
S'--'
p239
sg10
g34
sg11
S'Odell Beckham'
p240
sg13
S'2015'
p241
sg15
g65
sg17
S'--'
p242
sg18
S'10/19'
p243
sg20
S'8.7'
p244
sg21
S'--'
p245
sg22
S'--'
p246
sg23
S'L7-27'
p247
sg24
S'61'
p248
sg25
g120
sg26
S'@PHI'
p249
sg27
S'17'
p250
sg28
g34
sg29
S'--'
p251
ssg84
(dp252
g5
S'--'
p253
sg7
S'--'
p254
sg8
g34
sg9
g92
sg10
g34
sg11
S'Odell Beckham'
p255
sg13
S'2015'
p256
sg15
g84
sg17
S'--'
p257
sg18
S'11/08'
p258
sg20
S'11.7'
p259
sg21
g34
sg22
S'--'
p260
sg23
S'W32-18'
p261
sg24
S'105'
p262
sg25
g84
sg26
S'@TB'
p263
sg27
S'24'
p264
sg28
g92
sg29
S'--'
p265
ssS'8'
p266
(dp267
g5
S'--'
p268
sg7
S'--'
p269
sg8
g34
sg9
S'--'
p270
sg10
g34
sg11
S'Odell Beckham'
p271
sg13
S'2015'
p272
sg15
g266
sg17
S'--'
p273
sg18
S'11/01'
p274
sg20
S'16.3'
p275
sg21
S'--'
p276
sg22
S'--'
p277
sg23
S'L49-52'
p278
sg24
S'130'
p279
sg25
g266
sg26
S'@NO'
p280
sg27
S'50T'
p281
sg28
g160
sg29
S'--'
p282
sssS'2014'
p283
(dp284
g3
(dp285
g5
S'--'
p286
sg7
S'--'
p287
sg8
g34
sg9
S'--'
p288
sg10
g34
sg11
S'Odell Beckham'
p289
sg13
S'2014'
p290
sg15
S'11'
p291
sg17
S'--'
p292
sg18
S'11/16'
p293
sg20
S'15.5'
p294
sg21
S'--'
p295
sg22
S'--'
p296
sg23
S'L10-16'
p297
sg24
S'93'
p298
sg25
g65
sg26
S'SF'
p299
sg27
S'37'
p300
sg28
g92
sg29
S'--'
p301
ssg30
(dp302
g5
g92
sg7
S'11'
p303
sg8
g34
sg9
S'--'
p304
sg10
g34
sg11
S'Odell Beckham'
p305
sg13
S'2014'
p306
sg15
S'10'
p307
sg17
S'11.0'
p308
sg18
S'11/09'
p309
sg20
S'15.4'
p310
sg21
S'--'
p311
sg22
g34
sg23
S'L17-38'
p312
sg24
S'108'
p313
sg25
g120
sg26
S'@SEA'
p314
sg27
S'44'
p315
sg28
g92
sg29
S'11'
p316
ssg50
(dp317
g5
g92
sg7
g46
sg8
g34
sg9
S'--'
p318
sg10
g34
sg11
S'Odell Beckham'
p319
sg13
S'2014'
p320
sg15
S'13'
p321
sg17
S'4.0'
p322
sg18
S'11/30'
p323
sg20
S'12.9'
p324
sg21
S'--'
p325
sg22
g34
sg23
S'L24-25'
p326
sg24
S'90'
p327
sg25
g120
sg26
S'@JAC'
p328
sg27
S'29'
p329
sg28
g92
sg29
g46
ssg69
(dp330
g5
g92
sg7
S'-2'
p331
sg8
g34
sg9
S'--'
p332
sg10
g34
sg11
S'Odell Beckham'
p333
sg13
S'2014'
p334
sg15
S'12'
p335
sg17
S'-2.0'
p336
sg18
S'11/23'
p337
sg20
S'14.6'
p338
sg21
S'--'
p339
sg22
g34
sg23
S'L28-31'
p340
sg24
S'146'
p341
sg25
S'10'
p342
sg26
S'DAL'
p343
sg27
S'43T'
p344
sg28
g123
sg29
S'-2'
p345
ssg88
(dp346
g5
g92
sg7
g92
sg8
g34
sg9
g34
sg10
g34
sg11
S'Odell Beckham'
p347
sg13
S'2014'
p348
sg15
S'15'
p349
sg17
S'0.0'
p350
sg18
S'12/14'
p351
sg20
S'11.9'
p352
sg21
g34
sg22
g34
sg23
S'W24-13'
p353
sg24
S'143'
p354
sg25
S'12'
p355
sg26
S'WAS'
p356
sg27
S'35T'
p357
sg28
g160
sg29
g92
ssg105
(dp358
g5
g92
sg7
g84
sg8
g34
sg9
S'--'
p359
sg10
g34
sg11
S'Odell Beckham'
p360
sg13
S'2014'
p361
sg15
S'14'
p362
sg17
S'9.0'
p363
sg18
S'12/07'
p364
sg20
S'11.8'
p365
sg21
S'--'
p366
sg22
g34
sg23
S'W36-7'
p367
sg24
S'130'
p368
sg25
S'11'
p369
sg26
S'@TEN'
p370
sg27
S'50'
p371
sg28
g34
sg29
g84
ssg125
(dp372
g5
S'--'
p373
sg7
S'--'
p374
sg8
g34
sg9
S'--'
p375
sg10
g34
sg11
S'Odell Beckham'
p376
sg13
S'2014'
p377
sg15
S'17'
p378
sg17
S'--'
p379
sg18
S'12/28'
p380
sg20
S'15.4'
p381
sg21
S'--'
p382
sg22
S'--'
p383
sg23
S'L26-34'
p384
sg24
S'185'
p385
sg25
S'12'
p386
sg26
S'PHI'
p387
sg27
S'63T'
p388
sg28
g34
sg29
S'--'
p389
ssS'16'
p390
(dp391
g5
g92
sg7
g92
sg8
g34
sg9
S'--'
p392
sg10
g34
sg11
S'Odell Beckham'
p393
sg13
S'2014'
p394
sg15
S'16'
p395
sg17
S'0.0'
p396
sg18
S'12/21'
p397
sg20
S'18.5'
p398
sg21
S'--'
p399
sg22
g34
sg23
S'W37-27'
p400
sg24
S'148'
p401
sg25
g266
sg26
S'@STL'
p402
sg27
S'80T'
p403
sg28
g123
sg29
g92
ssg34
(dp404
g5
S'--'
p405
sg7
S'--'
p406
sg8
g92
sg9
S'--'
p407
sg10
g92
sg11
S'Odell Beckham'
p408
sg13
S'2014'
p409
sg15
g34
sg17
S'--'
p410
sg18
S'09/08'
p411
sg20
S'--'
p412
sg21
S'--'
p413
sg22
S'--'
p414
sg23
S'L14-35'
p415
sg24
S'--'
p416
sg25
S'--'
p417
sg26
S'@DET'
p418
sg27
S'--'
p419
sg28
S'--'
p420
sg29
S'--'
p421
ssg160
(dp422
g5
S'--'
p423
sg7
S'--'
p424
sg8
g92
sg9
S'--'
p425
sg10
g92
sg11
S'Odell Beckham'
p426
sg13
S'2014'
p427
sg15
g160
sg17
S'--'
p428
sg18
S'09/21'
p429
sg20
S'--'
p430
sg21
S'--'
p431
sg22
S'--'
p432
sg23
S'W30-17'
p433
sg24
S'--'
p434
sg25
S'--'
p435
sg26
S'HOU'
p436
sg27
S'--'
p437
sg28
S'--'
p438
sg29
S'--'
p439
ssg123
(dp440
g5
S'--'
p441
sg7
S'--'
p442
sg8
g92
sg9
S'--'
p443
sg10
g92
sg11
S'Odell Beckham'
p444
sg13
S'2014'
p445
sg15
g123
sg17
S'--'
p446
sg18
S'09/14'
p447
sg20
S'--'
p448
sg21
S'--'
p449
sg22
S'--'
p450
sg23
S'L14-25'
p451
sg24
S'--'
p452
sg25
S'--'
p453
sg26
S'ARI'
p454
sg27
S'--'
p455
sg28
S'--'
p456
sg29
S'--'
p457
ssg140
(dp458
g5
S'--'
p459
sg7
S'--'
p460
sg8
g92
sg9
S'--'
p461
sg10
g34
sg11
S'Odell Beckham'
p462
sg13
S'2014'
p463
sg15
g140
sg17
S'--'
p464
sg18
S'10/05'
p465
sg20
S'11.0'
p466
sg21
S'--'
p467
sg22
S'--'
p468
sg23
S'W30-20'
p469
sg24
S'44'
p470
sg25
g46
sg26
S'ATL'
p471
sg27
S'15T'
p472
sg28
g34
sg29
S'--'
p473
ssg46
(dp474
g5
S'--'
p475
sg7
S'--'
p476
sg8
g92
sg9
S'--'
p477
sg10
g92
sg11
S'Odell Beckham'
p478
sg13
S'2014'
p479
sg15
g46
sg17
S'--'
p480
sg18
S'09/25'
p481
sg20
S'--'
p482
sg21
S'--'
p483
sg22
S'--'
p484
sg23
S'W45-14'
p485
sg24
S'--'
p486
sg25
S'--'
p487
sg26
S'@WAS'
p488
sg27
S'--'
p489
sg28
S'--'
p490
sg29
S'--'
p491
ssg120
(dp492
g5
g92
sg7
S'13'
p493
sg8
g34
sg9
S'--'
p494
sg10
g34
sg11
S'Odell Beckham'
p495
sg13
S'2014'
p496
sg15
g120
sg17
S'13.0'
p497
sg18
S'10/19'
p498
sg20
S'8.5'
p499
sg21
S'--'
p500
sg22
g34
sg23
S'L21-31'
p501
sg24
S'34'
p502
sg25
g46
sg26
S'@DAL'
p503
sg27
S'11'
p504
sg28
g123
sg29
S'13'
p505
ssg65
(dp506
g5
S'--'
p507
sg7
S'--'
p508
sg8
g34
sg9
S'--'
p509
sg10
g34
sg11
S'Odell Beckham'
p510
sg13
S'2014'
p511
sg15
g65
sg17
S'--'
p512
sg18
S'10/12'
p513
sg20
S'14.0'
p514
sg21
S'--'
p515
sg22
S'--'
p516
sg23
S'L0-27'
p517
sg24
S'28'
p518
sg25
g123
sg26
S'@PHI'
p519
sg27
S'18'
p520
sg28
g92
sg29
S'--'
p521
ssg84
(dp522
g5
S'--'
p523
sg7
S'--'
p524
sg8
g34
sg9
S'--'
p525
sg10
g34
sg11
S'Odell Beckham'
p526
sg13
S'2014'
p527
sg15
g84
sg17
S'--'
p528
sg18
S'11/03'
p529
sg20
S'19.5'
p530
sg21
S'--'
p531
sg22
S'--'
p532
sg23
S'L24-40'
p533
sg24
S'156'
p534
sg25
g266
sg26
S'IND'
p535
sg27
S'59'
p536
sg28
g92
sg29
S'--'
p537
ssg266
(dp538
g5
g6
sg7
g6
sg8
g6
sg9
g6
sg10
g6
sg11
S'Odell Beckham'
p539
sg13
S'2014'
p540
sg15
g266
sg17
g6
sg18
S'Bye'
p541
sg20
g6
sg21
g6
sg22
g6
sg23
g6
sg24
g6
sg25
g6
sg26
g6
sg27
g6
sg28
g6
sg29
g6
sss.