(dp0
S'2015'
p1
(dp2
S'1'
p3
(dp4
S'RushTD'
p5
S'0'
p6
sS'RushYds'
p7
S'9'
p8
sS'GS'
p9
g3
sS'Lost'
p10
S'--'
p11
sS'G'
p12
g3
sS'Player'
p13
S'Percy Harvin'
p14
sS'Year'
p15
S'2015'
p16
sS'WK'
p17
g3
sS'RushAvg'
p18
S'9.0'
p19
sS'Game Date'
p20
S'09/13'
p21
sS'RecAvg'
p22
S'15.8'
p23
sS'FUM'
p24
S'--'
p25
sS'RushAtt'
p26
g3
sS'Result'
p27
S'W27-14'
p28
sS'RecYds'
p29
S'79'
p30
sS'Rec'
p31
S'5'
p32
sS'Opp'
p33
S'IND'
p34
sS'RecLng'
p35
S'51T'
p36
sS'RecTD'
p37
g3
sS'RushLng'
p38
g8
ssS'3'
p39
(dp40
g5
g6
sg7
S'16'
p41
sg9
g3
sg10
S'--'
p42
sg12
g3
sg13
S'Percy Harvin'
p43
sg15
S'2015'
p44
sg17
g39
sg18
S'8.0'
p45
sg20
S'09/27'
p46
sg22
S'9.4'
p47
sg24
S'--'
p48
sg26
S'2'
p49
sg27
S'W41-14'
p50
sg29
S'66'
p51
sg31
S'7'
p52
sg33
S'@MIA'
p53
sg35
S'18'
p54
sg37
g6
sg38
g8
ssg49
(dp55
g5
g6
sg7
g52
sg9
g3
sg10
g6
sg12
g3
sg13
S'Percy Harvin'
p56
sg15
S'2015'
p57
sg17
g49
sg18
S'7.0'
p58
sg20
S'09/20'
p59
sg22
S'11.8'
p60
sg24
g3
sg26
g3
sg27
S'L32-40'
p61
sg29
S'47'
p62
sg31
S'4'
p63
sg33
S'NE'
p64
sg35
S'25'
p65
sg37
g6
sg38
g52
ssg32
(dp66
g5
g6
sg7
S'-1'
p67
sg9
g3
sg10
S'--'
p68
sg12
g3
sg13
S'Percy Harvin'
p69
sg15
S'2015'
p70
sg17
g32
sg18
S'-1.0'
p71
sg20
S'10/11'
p72
sg22
S'--'
p73
sg24
S'--'
p74
sg26
g3
sg27
S'W14-13'
p75
sg29
g6
sg31
g6
sg33
S'@TEN'
p76
sg35
S'--'
p77
sg37
g6
sg38
S'-1'
p78
ssg63
(dp79
g5
S'--'
p80
sg7
S'--'
p81
sg9
g3
sg10
S'--'
p82
sg12
g3
sg13
S'Percy Harvin'
p83
sg15
S'2015'
p84
sg17
g63
sg18
S'--'
p85
sg20
S'10/04'
p86
sg22
S'8.7'
p87
sg24
S'--'
p88
sg26
S'--'
p89
sg27
S'L10-24'
p90
sg29
S'26'
p91
sg31
g39
sg33
S'NYG'
p92
sg35
S'13'
p93
sg37
g6
sg38
S'--'
p94
ssg52
(dp95
g5
S'--'
p96
sg7
S'--'
p97
sg9
g6
sg10
S'--'
p98
sg12
g6
sg13
S'Percy Harvin'
p99
sg15
S'2015'
p100
sg17
g52
sg18
S'--'
p101
sg20
S'10/25'
p102
sg22
S'--'
p103
sg24
S'--'
p104
sg26
S'--'
p105
sg27
S'L31-34'
p106
sg29
S'--'
p107
sg31
S'--'
p108
sg33
S'@JAC'
p109
sg35
S'--'
p110
sg37
S'--'
p111
sg38
S'--'
p112
ssS'6'
p113
(dp114
g5
S'--'
p115
sg7
S'--'
p116
sg9
g6
sg10
S'--'
p117
sg12
g6
sg13
S'Percy Harvin'
p118
sg15
S'2015'
p119
sg17
g113
sg18
S'--'
p120
sg20
S'10/18'
p121
sg22
S'--'
p122
sg24
S'--'
p123
sg26
S'--'
p124
sg27
S'L21-34'
p125
sg29
S'--'
p126
sg31
S'--'
p127
sg33
S'CIN'
p128
sg35
S'--'
p129
sg37
S'--'
p130
sg38
S'--'
p131
sssS'2014'
p132
(dp133
S'11'
p134
(dp135
g5
S''
p136
sg7
g136
sg9
g136
sg10
g136
sg12
g136
sg13
S'Percy Harvin'
p137
sg15
S'2014'
p138
sg17
S'11'
p139
sg18
g136
sg20
S'Bye'
p140
sg22
g136
sg24
g136
sg26
g136
sg27
g136
sg29
g136
sg31
g136
sg33
g136
sg35
g136
sg37
g136
sg38
g136
ssS'10'
p141
(dp142
g5
g6
sg7
S'33'
p143
sg9
g3
sg10
S'--'
p144
sg12
g3
sg13
S'Percy Harvin'
p145
sg15
S'2014'
p146
sg17
S'10'
p147
sg18
S'5.5'
p148
sg20
S'11/09'
p149
sg22
S'7.7'
p150
sg24
S'--'
p151
sg26
g113
sg27
S'W20-13'
p152
sg29
S'23'
p153
sg31
g39
sg33
S'PIT'
p154
sg35
S'8'
p155
sg37
g6
sg38
S'13'
p156
ssS'13'
p157
(dp158
g5
g6
sg7
S'27'
p159
sg9
g3
sg10
S'--'
p160
sg12
g3
sg13
S'Percy Harvin'
p161
sg15
S'2014'
p162
sg17
S'13'
p163
sg18
S'4.5'
p164
sg20
S'12/01'
p165
sg22
S'6.0'
p166
sg24
S'--'
p167
sg26
g113
sg27
S'L13-16'
p168
sg29
g113
sg31
g3
sg33
S'MIA'
p169
sg35
g113
sg37
g6
sg38
g8
ssS'12'
p170
(dp171
g5
S'--'
p172
sg7
S'--'
p173
sg9
g3
sg10
S'--'
p174
sg12
g3
sg13
S'Percy Harvin'
p175
sg15
S'2014'
p176
sg17
S'12'
p177
sg18
S'--'
p178
sg20
S'11/24'
p179
sg22
S'2.0'
p180
sg24
S'--'
p181
sg26
S'--'
p182
sg27
S'L3-38'
p183
sg29
g49
sg31
g3
sg33
S'@BUF'
p184
sg35
g49
sg37
g6
sg38
S'--'
p185
ssS'15'
p186
(dp187
g5
g6
sg7
S'10'
p188
sg9
g3
sg10
S'--'
p189
sg12
g3
sg13
S'Percy Harvin'
p190
sg15
S'2014'
p191
sg17
S'15'
p192
sg18
S'10.0'
p193
sg20
S'12/14'
p194
sg22
S'--'
p195
sg24
S'--'
p196
sg26
g3
sg27
S'W16-11'
p197
sg29
g6
sg31
g6
sg33
S'@TEN'
p198
sg35
S'--'
p199
sg37
g6
sg38
S'10'
p200
ssS'14'
p201
(dp202
g5
g6
sg7
g39
sg9
g3
sg10
g6
sg12
g3
sg13
S'Percy Harvin'
p203
sg15
S'2014'
p204
sg17
S'14'
p205
sg18
S'1.5'
p206
sg20
S'12/07'
p207
sg22
S'20.7'
p208
sg24
g3
sg26
g49
sg27
S'L24-30'
p209
sg29
S'124'
p210
sg31
g113
sg33
S'@MIN'
p211
sg35
S'45'
p212
sg37
g3
sg38
g63
ssS'17'
p213
(dp214
g5
S'--'
p215
sg7
S'--'
p216
sg9
g6
sg10
S'--'
p217
sg12
g6
sg13
S'Percy Harvin'
p218
sg15
S'2014'
p219
sg17
S'17'
p220
sg18
S'--'
p221
sg20
S'12/28'
p222
sg22
S'--'
p223
sg24
S'--'
p224
sg26
S'--'
p225
sg27
S'W37-24'
p226
sg29
S'--'
p227
sg31
S'--'
p228
sg33
S'@MIA'
p229
sg35
S'--'
p230
sg37
S'--'
p231
sg38
S'--'
p232
ssS'16'
p233
(dp234
g5
g6
sg7
g3
sg9
g3
sg10
S'--'
p235
sg12
g3
sg13
S'Percy Harvin'
p236
sg15
S'2014'
p237
sg17
S'16'
p238
sg18
S'0.5'
p239
sg20
S'12/21'
p240
sg22
S'11.0'
p241
sg24
S'--'
p242
sg26
g49
sg27
S'L16-17'
p243
sg29
S'44'
p244
sg31
g63
sg33
S'NE'
p245
sg35
S'25'
p246
sg37
g6
sg38
g3
ssg3
(dp247
g5
g6
sg7
S'41'
p248
sg9
g3
sg10
g6
sg12
g3
sg13
S'Percy Harvin'
p249
sg15
S'2014'
p250
sg17
g3
sg18
S'10.3'
p251
sg20
S'09/04'
p252
sg22
S'8.4'
p253
sg24
g3
sg26
g63
sg27
S'W36-16'
p254
sg29
S'59'
p255
sg31
g52
sg33
S'GB'
p256
sg35
S'33'
p257
sg37
g6
sg38
S'16'
p258
ssg39
(dp259
g5
S'--'
p260
sg7
S'--'
p261
sg9
g6
sg10
S'--'
p262
sg12
g3
sg13
S'Percy Harvin'
p263
sg15
S'2014'
p264
sg17
g39
sg18
S'--'
p265
sg20
S'09/21'
p266
sg22
S'6.0'
p267
sg24
S'--'
p268
sg26
S'--'
p269
sg27
S'W26-20'
p270
sg29
S'42'
p271
sg31
g52
sg33
S'DEN'
p272
sg35
S'11'
p273
sg37
g6
sg38
S'--'
p274
ssg49
(dp275
g5
g3
sg7
S'45'
p276
sg9
g3
sg10
g3
sg12
g3
sg13
S'Percy Harvin'
p277
sg15
S'2014'
p278
sg17
g49
sg18
S'22.5'
p279
sg20
S'09/14'
p280
sg22
S'5.0'
p281
sg24
g3
sg26
g49
sg27
S'L21-30'
p282
sg29
g32
sg31
g3
sg33
S'@SD'
p283
sg35
g32
sg37
g6
sg38
S'51T'
p284
ssg32
(dp285
g5
g6
sg7
g52
sg9
g3
sg10
S'--'
p286
sg12
g3
sg13
S'Percy Harvin'
p287
sg15
S'2014'
p288
sg17
g32
sg18
S'3.5'
p289
sg20
S'10/06'
p290
sg22
S'6.8'
p291
sg24
S'--'
p292
sg26
g49
sg27
S'W27-17'
p293
sg29
S'27'
p294
sg31
g63
sg33
S'@WAS'
p295
sg35
S'13'
p296
sg37
g6
sg38
g113
ssg63
(dp297
g5
g136
sg7
g136
sg9
g136
sg10
g136
sg12
g136
sg13
S'Percy Harvin'
p298
sg15
S'2014'
p299
sg17
g63
sg18
g136
sg20
S'Bye'
p300
sg22
g136
sg24
g136
sg26
g136
sg27
g136
sg29
g136
sg31
g136
sg33
g136
sg35
g136
sg37
g136
sg38
g136
ssg113
(dp301
g5
g6
sg7
S'-1'
p302
sg9
g3
sg10
S'--'
p303
sg12
g3
sg13
S'Percy Harvin'
p304
sg15
S'2014'
p305
sg17
g113
sg18
S'-0.3'
p306
sg20
S'10/12'
p307
sg22
S'0.0'
p308
sg24
S'--'
p309
sg26
g39
sg27
S'L23-30'
p310
sg29
g6
sg31
g39
sg33
S'DAL'
p311
sg35
g32
sg37
g6
sg38
g6
ssg8
(dp312
g5
g6
sg7
g155
sg9
g3
sg10
S'--'
p313
sg12
g3
sg13
S'Percy Harvin'
p314
sg15
S'2014'
p315
sg17
g8
sg18
S'8.0'
p316
sg20
S'11/02'
p317
sg22
S'11.7'
p318
sg24
S'--'
p319
sg26
g3
sg27
S'L10-24'
p320
sg29
S'129'
p321
sg31
S'11'
p322
sg33
S'@KC'
p323
sg35
S'42'
p324
sg37
g6
sg38
g155
ssg155
(dp325
g5
g6
sg7
S'28'
p326
sg9
g3
sg10
S'--'
p327
sg12
g3
sg13
S'Percy Harvin'
p328
sg15
S'2014'
p329
sg17
g155
sg18
S'7.0'
p330
sg20
S'10/26'
p331
sg22
S'7.3'
p332
sg24
S'--'
p333
sg26
g63
sg27
S'L23-43'
p334
sg29
S'22'
p335
sg31
g39
sg33
S'BUF'
p336
sg35
S'11'
p337
sg37
g6
sg38
g8
sssS'2011'
p338
(dp339
g134
(dp340
g5
g6
sg7
S'21'
p341
sg9
g3
sg10
S'--'
p342
sg12
g3
sg13
S'Percy Harvin'
p343
sg15
S'2011'
p344
sg17
S'11'
p345
sg18
S'4.2'
p346
sg20
S'11/20'
p347
sg22
S'12.2'
p348
sg24
S'--'
p349
sg26
g32
sg27
S'L21-27'
p350
sg29
S'73'
p351
sg31
g113
sg33
S'OAK'
p352
sg35
S'26T'
p353
sg37
g3
sg38
S'18'
p354
ssg141
(dp355
g5
g6
sg7
S'18'
p356
sg9
g3
sg10
S'--'
p357
sg12
g3
sg13
S'Percy Harvin'
p358
sg15
S'2011'
p359
sg17
S'10'
p360
sg18
S'6.0'
p361
sg20
S'11/14'
p362
sg22
S'8.7'
p363
sg24
S'--'
p364
sg26
g39
sg27
S'L7-45'
p365
sg29
S'52'
p366
sg31
g113
sg33
S'@GB'
p367
sg35
S'12'
p368
sg37
g6
sg38
S'11'
p369
ssg157
(dp370
g5
g6
sg7
S'19'
p371
sg9
g3
sg10
S'--'
p372
sg12
g3
sg13
S'Percy Harvin'
p373
sg15
S'2011'
p374
sg17
S'13'
p375
sg18
S'3.8'
p376
sg20
S'12/04'
p377
sg22
S'19.5'
p378
sg24
S'--'
p379
sg26
g32
sg27
S'L32-35'
p380
sg29
S'156'
p381
sg31
g155
sg33
S'DEN'
p382
sg35
S'52T'
p383
sg37
g49
sg38
S'13'
p384
ssg170
(dp385
g5
g6
sg7
S'11'
p386
sg9
g3
sg10
S'--'
p387
sg12
g3
sg13
S'Percy Harvin'
p388
sg15
S'2011'
p389
sg17
S'12'
p390
sg18
S'2.2'
p391
sg20
S'11/27'
p392
sg22
S'11.9'
p393
sg24
S'--'
p394
sg26
g32
sg27
S'L14-24'
p395
sg29
S'95'
p396
sg31
g155
sg33
S'@ATL'
p397
sg35
S'39T'
p398
sg37
g3
sg38
g39
ssg186
(dp399
g5
g6
sg7
S'-1'
p400
sg9
g3
sg10
S'--'
p401
sg12
g3
sg13
S'Percy Harvin'
p402
sg15
S'2011'
p403
sg17
S'15'
p404
sg18
S'-1.0'
p405
sg20
S'12/18'
p406
sg22
S'2.7'
p407
sg24
S'--'
p408
sg26
g3
sg27
S'L20-42'
p409
sg29
g155
sg31
g39
sg33
S'NO'
p410
sg35
g32
sg37
g6
sg38
S'-1'
p411
ssg201
(dp412
g5
g6
sg7
S'40'
p413
sg9
g3
sg10
S'--'
p414
sg12
g3
sg13
S'Percy Harvin'
p415
sg15
S'2011'
p416
sg17
S'14'
p417
sg18
S'10.0'
p418
sg20
S'12/11'
p419
sg22
S'6.9'
p420
sg24
S'--'
p421
sg26
g63
sg27
S'L28-34'
p422
sg29
S'69'
p423
sg31
S'10'
p424
sg33
S'@DET'
p425
sg35
S'16'
p426
sg37
g3
sg38
S'32'
p427
ssg213
(dp428
g5
g3
sg7
S'13'
p429
sg9
g3
sg10
S'--'
p430
sg12
g3
sg13
S'Percy Harvin'
p431
sg15
S'2011'
p432
sg17
S'17'
p433
sg18
S'2.6'
p434
sg20
S'01/01'
p435
sg22
S'11.5'
p436
sg24
S'--'
p437
sg26
g32
sg27
S'L13-17'
p438
sg29
S'115'
p439
sg31
S'10'
p440
sg33
S'CHI'
p441
sg35
S'23'
p442
sg37
g6
sg38
S'13'
p443
ssg233
(dp444
g5
g6
sg7
S'39'
p445
sg9
g3
sg10
S'--'
p446
sg12
g3
sg13
S'Percy Harvin'
p447
sg15
S'2011'
p448
sg17
S'16'
p449
sg18
S'9.8'
p450
sg20
S'12/24'
p451
sg22
S'13.0'
p452
sg24
S'--'
p453
sg26
g63
sg27
S'W33-26'
p454
sg29
S'65'
p455
sg31
g32
sg33
S'@WAS'
p456
sg35
S'36'
p457
sg37
g3
sg38
S'31'
p458
ssg3
(dp459
g5
g6
sg7
S'15'
p460
sg9
g3
sg10
S'--'
p461
sg12
g3
sg13
S'Percy Harvin'
p462
sg15
S'2011'
p463
sg17
g3
sg18
S'3.8'
p464
sg20
S'09/11'
p465
sg22
S'3.5'
p466
sg24
S'--'
p467
sg26
g63
sg27
S'L17-24'
p468
sg29
g52
sg31
g49
sg33
S'@SD'
p469
sg35
g32
sg37
g6
sg38
g155
ssg39
(dp470
g5
g6
sg7
S'41'
p471
sg9
g3
sg10
S'--'
p472
sg12
g3
sg13
S'Percy Harvin'
p473
sg15
S'2011'
p474
sg17
g39
sg18
S'20.5'
p475
sg20
S'09/25'
p476
sg22
S'15.7'
p477
sg24
S'--'
p478
sg26
g49
sg27
S'L23-26'
p479
sg29
S'47'
p480
sg31
g39
sg33
S'DET'
p481
sg35
S'21'
p482
sg37
g6
sg38
S'39'
p483
ssg49
(dp484
g5
g6
sg7
S'18'
p485
sg9
g6
sg10
g3
sg12
g3
sg13
S'Percy Harvin'
p486
sg15
S'2011'
p487
sg17
g49
sg18
S'9.0'
p488
sg20
S'09/18'
p489
sg22
S'10.9'
p490
sg24
g3
sg26
g49
sg27
S'L20-24'
p491
sg29
S'76'
p492
sg31
g52
sg33
S'TB'
p493
sg35
S'19'
p494
sg37
g6
sg38
S'10'
p495
ssg32
(dp496
g5
g6
sg7
S'12'
p497
sg9
g3
sg10
S'--'
p498
sg12
g3
sg13
S'Percy Harvin'
p499
sg15
S'2011'
p500
sg17
g32
sg18
S'12.0'
p501
sg20
S'10/09'
p502
sg22
S'11.0'
p503
sg24
S'--'
p504
sg26
g3
sg27
S'W34-10'
p505
sg29
S'11'
p506
sg31
g3
sg33
S'ARI'
p507
sg35
S'11'
p508
sg37
g6
sg38
S'12'
p509
ssg63
(dp510
g5
g6
sg7
S'67'
p511
sg9
g3
sg10
S'--'
p512
sg12
g3
sg13
S'Percy Harvin'
p513
sg15
S'2011'
p514
sg17
g63
sg18
S'16.8'
p515
sg20
S'10/02'
p516
sg22
S'8.4'
p517
sg24
S'--'
p518
sg26
g63
sg27
S'L17-22'
p519
sg29
S'42'
p520
sg31
g32
sg33
S'@KC'
p521
sg35
S'22'
p522
sg37
g6
sg38
S'23'
p523
ssg52
(dp524
g5
g6
sg7
g155
sg9
g3
sg10
S'--'
p525
sg12
g3
sg13
S'Percy Harvin'
p526
sg15
S'2011'
p527
sg17
g52
sg18
S'4.0'
p528
sg20
S'10/23'
p529
sg22
S'7.5'
p530
sg24
S'--'
p531
sg26
g49
sg27
S'L27-33'
p532
sg29
S'15'
p533
sg31
g49
sg33
S'GB'
p534
sg35
g8
sg37
g6
sg38
g113
ssg113
(dp535
g5
g6
sg7
g32
sg9
g3
sg10
S'--'
p536
sg12
g3
sg13
S'Percy Harvin'
p537
sg15
S'2011'
p538
sg17
g113
sg18
S'5.0'
p539
sg20
S'10/16'
p540
sg22
S'11.1'
p541
sg24
S'--'
p542
sg26
g3
sg27
S'L10-39'
p543
sg29
S'78'
p544
sg31
g52
sg33
S'@CHI'
p545
sg35
S'20'
p546
sg37
g6
sg38
g32
ssg8
(dp547
g5
g136
sg7
g136
sg9
g136
sg10
g136
sg12
g136
sg13
S'Percy Harvin'
p548
sg15
S'2011'
p549
sg17
g8
sg18
g136
sg20
S'Bye'
p550
sg22
g136
sg24
g136
sg26
g136
sg27
g136
sg29
g136
sg31
g136
sg33
g136
sg35
g136
sg37
g136
sg38
g136
ssg155
(dp551
g5
g3
sg7
S'19'
p552
sg9
g6
sg10
g3
sg12
g3
sg13
S'Percy Harvin'
p553
sg15
S'2011'
p554
sg17
g155
sg18
S'4.8'
p555
sg20
S'10/30'
p556
sg22
S'14.5'
p557
sg24
g3
sg26
g63
sg27
S'W24-21'
p558
sg29
S'58'
p559
sg31
g63
sg33
S'@CAR'
p560
sg35
S'22'
p561
sg37
g6
sg38
S'10T'
p562
sssS'2010'
p563
(dp564
g134
(dp565
g5
g6
sg7
S'18'
p566
sg9
g3
sg10
S'--'
p567
sg12
g3
sg13
S'Percy Harvin'
p568
sg15
S'2010'
p569
sg17
S'11'
p570
sg18
S'9.0'
p571
sg20
S'11/21'
p572
sg22
S'6.0'
p573
sg24
S'--'
p574
sg26
g49
sg27
S'L3-31'
p575
sg29
S'12'
p576
sg31
g49
sg33
S'GB'
p577
sg35
g8
sg37
g6
sg38
S'16'
p578
ssg141
(dp579
g5
S'--'
p580
sg7
S'--'
p581
sg9
g3
sg10
S'--'
p582
sg12
g3
sg13
S'Percy Harvin'
p583
sg15
S'2010'
p584
sg17
S'10'
p585
sg18
S'--'
p586
sg20
S'11/14'
p587
sg22
S'16.0'
p588
sg24
S'--'
p589
sg26
S'--'
p590
sg27
S'L13-27'
p591
sg29
S'64'
p592
sg31
g63
sg33
S'@CHI'
p593
sg35
S'53T'
p594
sg37
g3
sg38
S'--'
p595
ssg157
(dp596
g5
S'--'
p597
sg7
S'--'
p598
sg9
g6
sg10
S'--'
p599
sg12
g6
sg13
S'Percy Harvin'
p600
sg15
S'2010'
p601
sg17
S'13'
p602
sg18
S'--'
p603
sg20
S'12/05'
p604
sg22
S'--'
p605
sg24
S'--'
p606
sg26
S'--'
p607
sg27
S'W38-14'
p608
sg29
S'--'
p609
sg31
S'--'
p610
sg33
S'BUF'
p611
sg35
S'--'
p612
sg37
S'--'
p613
sg38
S'--'
p614
ssg170
(dp615
g5
g6
sg7
S'14'
p616
sg9
g3
sg10
S'--'
p617
sg12
g3
sg13
S'Percy Harvin'
p618
sg15
S'2010'
p619
sg17
S'12'
p620
sg18
S'4.7'
p621
sg20
S'11/28'
p622
sg22
S'6.4'
p623
sg24
S'--'
p624
sg26
g39
sg27
S'W17-13'
p625
sg29
S'32'
p626
sg31
g32
sg33
S'@WAS'
p627
sg35
g8
sg37
g6
sg38
g155
ssg186
(dp628
g5
g6
sg7
S'-1'
p629
sg9
g6
sg10
S'--'
p630
sg12
g3
sg13
S'Percy Harvin'
p631
sg15
S'2010'
p632
sg17
S'15'
p633
sg18
S'-1.0'
p634
sg20
S'12/20'
p635
sg22
S'14.4'
p636
sg24
S'--'
p637
sg26
g3
sg27
S'L14-40'
p638
sg29
S'72'
p639
sg31
g32
sg33
S'CHI'
p640
sg35
S'23T'
p641
sg37
g3
sg38
S'-1'
p642
ssg201
(dp643
g5
S'--'
p644
sg7
S'--'
p645
sg9
g6
sg10
S'--'
p646
sg12
g6
sg13
S'Percy Harvin'
p647
sg15
S'2010'
p648
sg17
S'14'
p649
sg18
S'--'
p650
sg20
S'12/13'
p651
sg22
S'--'
p652
sg24
S'--'
p653
sg26
S'--'
p654
sg27
S'L3-21'
p655
sg29
S'--'
p656
sg31
S'--'
p657
sg33
S'NYG'
p658
sg35
S'--'
p659
sg37
S'--'
p660
sg38
S'--'
p661
ssg213
(dp662
g5
g6
sg7
S'-4'
p663
sg9
g3
sg10
S'--'
p664
sg12
g3
sg13
S'Percy Harvin'
p665
sg15
S'2010'
p666
sg17
S'17'
p667
sg18
S'-2.0'
p668
sg20
S'01/02'
p669
sg22
S'8.6'
p670
sg24
S'--'
p671
sg26
g49
sg27
S'L13-20'
p672
sg29
S'69'
p673
sg31
g155
sg33
S'@DET'
p674
sg35
S'20'
p675
sg37
g6
sg38
g3
ssg233
(dp676
g5
g6
sg7
g113
sg9
g3
sg10
S'--'
p677
sg12
g3
sg13
S'Percy Harvin'
p678
sg15
S'2010'
p679
sg17
S'16'
p680
sg18
S'3.0'
p681
sg20
S'12/28'
p682
sg22
S'14.3'
p683
sg24
S'--'
p684
sg26
g49
sg27
S'W24-14'
p685
sg29
S'100'
p686
sg31
g52
sg33
S'@PHI'
p687
sg35
S'46'
p688
sg37
g6
sg38
g52
ssg3
(dp689
g5
g6
sg7
g49
sg9
g3
sg10
S'--'
p690
sg12
g3
sg13
S'Percy Harvin'
p691
sg15
S'2010'
p692
sg17
g3
sg18
S'2.0'
p693
sg20
S'09/09'
p694
sg22
S'12.0'
p695
sg24
S'--'
p696
sg26
g3
sg27
S'L9-14'
p697
sg29
S'12'
p698
sg31
g3
sg33
S'@NO'
p699
sg35
S'12'
p700
sg37
g6
sg38
g49
ssg39
(dp701
g5
g6
sg7
S'13'
p702
sg9
g3
sg10
S'--'
p703
sg12
g3
sg13
S'Percy Harvin'
p704
sg15
S'2010'
p705
sg17
g39
sg18
S'6.5'
p706
sg20
S'09/26'
p707
sg22
S'10.3'
p708
sg24
S'--'
p709
sg26
g49
sg27
S'W24-10'
p710
sg29
S'62'
p711
sg31
g113
sg33
S'DET'
p712
sg35
S'24T'
p713
sg37
g3
sg38
S'10'
p714
ssg49
(dp715
g5
S'--'
p716
sg7
S'--'
p717
sg9
g3
sg10
S'--'
p718
sg12
g3
sg13
S'Percy Harvin'
p719
sg15
S'2010'
p720
sg17
g49
sg18
S'--'
p721
sg20
S'09/19'
p722
sg22
S'6.4'
p723
sg24
S'--'
p724
sg26
S'--'
p725
sg27
S'L10-14'
p726
sg29
S'32'
p727
sg31
g32
sg33
S'MIA'
p728
sg35
S'13'
p729
sg37
g6
sg38
S'--'
p730
ssg32
(dp731
g5
S'--'
p732
sg7
S'--'
p733
sg9
g3
sg10
S'--'
p734
sg12
g3
sg13
S'Percy Harvin'
p735
sg15
S'2010'
p736
sg17
g32
sg18
S'--'
p737
sg20
S'10/11'
p738
sg22
S'19.4'
p739
sg24
S'--'
p740
sg26
S'--'
p741
sg27
S'L20-29'
p742
sg29
S'97'
p743
sg31
g32
sg33
S'@NYJ'
p744
sg35
S'34T'
p745
sg37
g49
sg38
S'--'
p746
ssg63
(dp747
g5
g136
sg7
g136
sg9
g136
sg10
g136
sg12
g136
sg13
S'Percy Harvin'
p748
sg15
S'2010'
p749
sg17
g63
sg18
g136
sg20
S'Bye'
p750
sg22
g136
sg24
g136
sg26
g136
sg27
g136
sg29
g136
sg31
g136
sg33
g136
sg35
g136
sg37
g136
sg38
g136
ssg52
(dp751
g5
g3
sg7
S'41'
p752
sg9
g3
sg10
S'--'
p753
sg12
g3
sg13
S'Percy Harvin'
p754
sg15
S'2010'
p755
sg17
g52
sg18
S'13.7'
p756
sg20
S'10/24'
p757
sg22
S'13.0'
p758
sg24
S'--'
p759
sg26
g39
sg27
S'L24-28'
p760
sg29
S'65'
p761
sg31
g32
sg33
S'@GB'
p762
sg35
S'37'
p763
sg37
g6
sg38
S'17T'
p764
ssg113
(dp765
g5
g6
sg7
S'18'
p766
sg9
g3
sg10
S'--'
p767
sg12
g3
sg13
S'Percy Harvin'
p768
sg15
S'2010'
p769
sg17
g113
sg18
S'9.0'
p770
sg20
S'10/17'
p771
sg22
S'7.0'
p772
sg24
S'--'
p773
sg26
g49
sg27
S'W24-21'
p774
sg29
S'21'
p775
sg31
g39
sg33
S'DAL'
p776
sg35
S'10'
p777
sg37
g6
sg38
S'11'
p778
ssg8
(dp779
g5
S'--'
p780
sg7
S'--'
p781
sg9
g3
sg10
g3
sg12
g3
sg13
S'Percy Harvin'
p782
sg15
S'2010'
p783
sg17
g8
sg18
S'--'
p784
sg20
S'11/07'
p785
sg22
S'14.0'
p786
sg24
g3
sg26
S'--'
p787
sg27
S'W27-24'
p788
sg29
S'126'
p789
sg31
g8
sg33
S'ARI'
p790
sg35
S'28'
p791
sg37
g6
sg38
S'--'
p792
ssg155
(dp793
g5
S'--'
p794
sg7
S'--'
p795
sg9
g3
sg10
S'--'
p796
sg12
g3
sg13
S'Percy Harvin'
p797
sg15
S'2010'
p798
sg17
g155
sg18
S'--'
p799
sg20
S'10/31'
p800
sg22
S'17.3'
p801
sg24
S'--'
p802
sg26
S'--'
p803
sg27
S'L18-28'
p804
sg29
S'104'
p805
sg31
g113
sg33
S'@NE'
p806
sg35
S'30'
p807
sg37
g6
sg38
S'--'
p808
sssS'2013'
p809
(dp810
g134
(dp811
g5
S'--'
p812
sg7
S'--'
p813
sg9
g6
sg10
S'--'
p814
sg12
g3
sg13
S'Percy Harvin'
p815
sg15
S'2013'
p816
sg17
S'11'
p817
sg18
S'--'
p818
sg20
S'11/17'
p819
sg22
S'17.0'
p820
sg24
S'--'
p821
sg26
S'--'
p822
sg27
S'W41-20'
p823
sg29
S'17'
p824
sg31
g3
sg33
S'MIN'
p825
sg35
S'17'
p826
sg37
g6
sg38
S'--'
p827
ssg157
(dp828
g5
S'--'
p829
sg7
S'--'
p830
sg9
g6
sg10
S'--'
p831
sg12
g6
sg13
S'Percy Harvin'
p832
sg15
S'2013'
p833
sg17
S'13'
p834
sg18
S'--'
p835
sg20
S'12/02'
p836
sg22
S'--'
p837
sg24
S'--'
p838
sg26
S'--'
p839
sg27
S'W34-7'
p840
sg29
S'--'
p841
sg31
S'--'
p842
sg33
S'NO'
p843
sg35
S'--'
p844
sg37
S'--'
p845
sg38
S'--'
p846
ssg170
(dp847
g5
g136
sg7
g136
sg9
g136
sg10
g136
sg12
g136
sg13
S'Percy Harvin'
p848
sg15
S'2013'
p849
sg17
S'12'
p850
sg18
g136
sg20
S'Bye'
p851
sg22
g136
sg24
g136
sg26
g136
sg27
g136
sg29
g136
sg31
g136
sg33
g136
sg35
g136
sg37
g136
sg38
g136
ssg186
(dp852
g5
S'--'
p853
sg7
S'--'
p854
sg9
g6
sg10
S'--'
p855
sg12
g6
sg13
S'Percy Harvin'
p856
sg15
S'2013'
p857
sg17
S'15'
p858
sg18
S'--'
p859
sg20
S'12/15'
p860
sg22
S'--'
p861
sg24
S'--'
p862
sg26
S'--'
p863
sg27
S'W23-0'
p864
sg29
S'--'
p865
sg31
S'--'
p866
sg33
S'@NYG'
p867
sg35
S'--'
p868
sg37
S'--'
p869
sg38
S'--'
p870
ssg201
(dp871
g5
S'--'
p872
sg7
S'--'
p873
sg9
g6
sg10
S'--'
p874
sg12
g6
sg13
S'Percy Harvin'
p875
sg15
S'2013'
p876
sg17
S'14'
p877
sg18
S'--'
p878
sg20
S'12/08'
p879
sg22
S'--'
p880
sg24
S'--'
p881
sg26
S'--'
p882
sg27
S'L17-19'
p883
sg29
S'--'
p884
sg31
S'--'
p885
sg33
S'@SF'
p886
sg35
S'--'
p887
sg37
S'--'
p888
sg38
S'--'
p889
ssg213
(dp890
g5
S'--'
p891
sg7
S'--'
p892
sg9
g6
sg10
S'--'
p893
sg12
g6
sg13
S'Percy Harvin'
p894
sg15
S'2013'
p895
sg17
S'17'
p896
sg18
S'--'
p897
sg20
S'12/29'
p898
sg22
S'--'
p899
sg24
S'--'
p900
sg26
S'--'
p901
sg27
S'W27-9'
p902
sg29
S'--'
p903
sg31
S'--'
p904
sg33
S'STL'
p905
sg35
S'--'
p906
sg37
S'--'
p907
sg38
S'--'
p908
ssg233
(dp909
g5
S'--'
p910
sg7
S'--'
p911
sg9
g6
sg10
S'--'
p912
sg12
g6
sg13
S'Percy Harvin'
p913
sg15
S'2013'
p914
sg17
S'16'
p915
sg18
S'--'
p916
sg20
S'12/22'
p917
sg22
S'--'
p918
sg24
S'--'
p919
sg26
S'--'
p920
sg27
S'L10-17'
p921
sg29
S'--'
p922
sg31
S'--'
p923
sg33
S'ARI'
p924
sg35
S'--'
p925
sg37
S'--'
p926
sg38
S'--'
p927
sssS'2012'
p928
(dp929
g134
(dp930
g5
g136
sg7
g136
sg9
g136
sg10
g136
sg12
g136
sg13
S'Percy Harvin'
p931
sg15
S'2012'
p932
sg17
S'11'
p933
sg18
g136
sg20
S'Bye'
p934
sg22
g136
sg24
g136
sg26
g136
sg27
g136
sg29
g136
sg31
g136
sg33
g136
sg35
g136
sg37
g136
sg38
g136
ssg141
(dp935
g5
S'--'
p936
sg7
S'--'
p937
sg9
g6
sg10
S'--'
p938
sg12
g6
sg13
S'Percy Harvin'
p939
sg15
S'2012'
p940
sg17
S'10'
p941
sg18
S'--'
p942
sg20
S'11/11'
p943
sg22
S'--'
p944
sg24
S'--'
p945
sg26
S'--'
p946
sg27
S'W34-24'
p947
sg29
S'--'
p948
sg31
S'--'
p949
sg33
S'DET'
p950
sg35
S'--'
p951
sg37
S'--'
p952
sg38
S'--'
p953
ssg157
(dp954
g5
S'--'
p955
sg7
S'--'
p956
sg9
g6
sg10
S'--'
p957
sg12
g6
sg13
S'Percy Harvin'
p958
sg15
S'2012'
p959
sg17
S'13'
p960
sg18
S'--'
p961
sg20
S'12/02'
p962
sg22
S'--'
p963
sg24
S'--'
p964
sg26
S'--'
p965
sg27
S'L14-23'
p966
sg29
S'--'
p967
sg31
S'--'
p968
sg33
S'@GB'
p969
sg35
S'--'
p970
sg37
S'--'
p971
sg38
S'--'
p972
ssg170
(dp973
g5
S'--'
p974
sg7
S'--'
p975
sg9
g6
sg10
S'--'
p976
sg12
g6
sg13
S'Percy Harvin'
p977
sg15
S'2012'
p978
sg17
S'12'
p979
sg18
S'--'
p980
sg20
S'11/25'
p981
sg22
S'--'
p982
sg24
S'--'
p983
sg26
S'--'
p984
sg27
S'L10-28'
p985
sg29
S'--'
p986
sg31
S'--'
p987
sg33
S'@CHI'
p988
sg35
S'--'
p989
sg37
S'--'
p990
sg38
S'--'
p991
ssg3
(dp992
g5
g6
sg7
S'20'
p993
sg9
g3
sg10
S'--'
p994
sg12
g3
sg13
S'Percy Harvin'
p995
sg15
S'2012'
p996
sg17
g3
sg18
S'4.0'
p997
sg20
S'09/09'
p998
sg22
S'14.0'
p999
sg24
S'--'
p1000
sg26
g32
sg27
S'W26-23'
p1001
sg29
S'84'
p1002
sg31
g113
sg33
S'JAC'
p1003
sg35
S'20'
p1004
sg37
g6
sg38
g8
ssg39
(dp1005
g5
g6
sg7
g8
sg9
g3
sg10
S'--'
p1006
sg12
g3
sg13
S'Percy Harvin'
p1007
sg15
S'2012'
p1008
sg17
g39
sg18
S'9.0'
p1009
sg20
S'09/23'
p1010
sg22
S'9.9'
p1011
sg24
S'--'
p1012
sg26
g3
sg27
S'W24-13'
p1013
sg29
S'89'
p1014
sg31
g8
sg33
S'SF'
p1015
sg35
S'24'
p1016
sg37
g6
sg38
g8
ssg49
(dp1017
g5
g6
sg7
S'13'
p1018
sg9
g3
sg10
S'--'
p1019
sg12
g3
sg13
S'Percy Harvin'
p1020
sg15
S'2012'
p1021
sg17
g49
sg18
S'6.5'
p1022
sg20
S'09/16'
p1023
sg22
S'8.7'
p1024
sg24
S'--'
p1025
sg26
g49
sg27
S'L20-23'
p1026
sg29
S'104'
p1027
sg31
S'12'
p1028
sg33
S'@IND'
p1029
sg35
S'20'
p1030
sg37
g6
sg38
S'20'
p1031
ssg32
(dp1032
g5
g3
sg7
g155
sg9
g3
sg10
S'--'
p1033
sg12
g3
sg13
S'Percy Harvin'
p1034
sg15
S'2012'
p1035
sg17
g32
sg18
S'4.0'
p1036
sg20
S'10/07'
p1037
sg22
S'13.5'
p1038
sg24
S'--'
p1039
sg26
g49
sg27
S'W30-7'
p1040
sg29
S'108'
p1041
sg31
g155
sg33
S'TEN'
p1042
sg35
S'45'
p1043
sg37
g3
sg38
S'4T'
p1044
ssg63
(dp1045
g5
g6
sg7
S'12'
p1046
sg9
g3
sg10
S'--'
p1047
sg12
g3
sg13
S'Percy Harvin'
p1048
sg15
S'2012'
p1049
sg17
g63
sg18
S'4.0'
p1050
sg20
S'09/30'
p1051
sg22
S'7.3'
p1052
sg24
S'--'
p1053
sg26
g39
sg27
S'W20-13'
p1054
sg29
S'22'
p1055
sg31
g39
sg33
S'@DET'
p1056
sg35
S'17'
p1057
sg37
g6
sg38
S'14'
p1058
ssg52
(dp1059
g5
g6
sg7
S'10'
p1060
sg9
g6
sg10
S'--'
p1061
sg12
g3
sg13
S'Percy Harvin'
p1062
sg15
S'2012'
p1063
sg17
g52
sg18
S'5.0'
p1064
sg20
S'10/21'
p1065
sg22
S'9.3'
p1066
sg24
S'--'
p1067
sg26
g49
sg27
S'W21-14'
p1068
sg29
S'37'
p1069
sg31
g63
sg33
S'ARI'
p1070
sg35
S'14'
p1071
sg37
g3
sg38
g32
ssg113
(dp1072
g5
g6
sg7
g3
sg9
g3
sg10
g6
sg12
g3
sg13
S'Percy Harvin'
p1073
sg15
S'2012'
p1074
sg17
g113
sg18
S'0.5'
p1075
sg20
S'10/14'
p1076
sg22
S'12.1'
p1077
sg24
g3
sg26
g49
sg27
S'L26-38'
p1078
sg29
S'133'
p1079
sg31
S'11'
p1080
sg33
S'@WAS'
p1081
sg35
S'23'
p1082
sg37
g6
sg38
g49
ssg8
(dp1083
g5
g6
sg7
S'24'
p1084
sg9
g3
sg10
g3
sg12
g3
sg13
S'Percy Harvin'
p1085
sg15
S'2012'
p1086
sg17
g8
sg18
S'6.0'
p1087
sg20
S'11/04'
p1088
sg22
S'5.0'
p1089
sg24
g3
sg26
g63
sg27
S'L20-30'
p1090
sg29
S'10'
p1091
sg31
g49
sg33
S'@SEA'
p1092
sg35
g8
sg37
g6
sg38
S'15'
p1093
ssg155
(dp1094
g5
g6
sg7
S'-1'
p1095
sg9
g3
sg10
S'--'
p1096
sg12
g3
sg13
S'Percy Harvin'
p1097
sg15
S'2012'
p1098
sg17
g155
sg18
S'-1.0'
p1099
sg20
S'10/25'
p1100
sg22
S'12.9'
p1101
sg24
S'--'
p1102
sg26
g3
sg27
S'L17-36'
p1103
sg29
S'90'
p1104
sg31
g52
sg33
S'TB'
p1105
sg35
S'32'
p1106
sg37
g3
sg38
S'-1'
p1107
sss.