(dp0
S'2015'
p1
(dp2
S'11'
p3
(dp4
S'RushTD'
p5
S'--'
p6
sS'RushYds'
p7
S'--'
p8
sS'GS'
p9
S'0'
p10
sS'Lost'
p11
S'--'
p12
sS'G'
p13
g10
sS'Player'
p14
S'Phillip Dorsett'
p15
sS'Year'
p16
S'2015'
p17
sS'WK'
p18
S'11'
p19
sS'RushAvg'
p20
S'--'
p21
sS'Game Date'
p22
S'11/22'
p23
sS'RecAvg'
p24
S'--'
p25
sS'FUM'
p26
S'--'
p27
sS'RushAtt'
p28
S'--'
p29
sS'Result'
p30
S'W24-21'
p31
sS'RecYds'
p32
S'--'
p33
sS'Rec'
p34
S'--'
p35
sS'Opp'
p36
S'@ATL'
p37
sS'RecLng'
p38
S'--'
p39
sS'RecTD'
p40
S'--'
p41
sS'RushLng'
p42
S'--'
p43
ssS'10'
p44
(dp45
g5
S''
p46
sg7
g46
sg9
g46
sg11
g46
sg13
g46
sg14
S'Phillip Dorsett'
p47
sg16
S'2015'
p48
sg18
S'10'
p49
sg20
g46
sg22
S'Bye'
p50
sg24
g46
sg26
g46
sg28
g46
sg30
g46
sg32
g46
sg34
g46
sg36
g46
sg38
g46
sg40
g46
sg42
g46
ssS'13'
p51
(dp52
g5
S'--'
p53
sg7
S'--'
p54
sg9
g10
sg11
S'--'
p55
sg13
g10
sg14
S'Phillip Dorsett'
p56
sg16
S'2015'
p57
sg18
S'13'
p58
sg20
S'--'
p59
sg22
S'12/06'
p60
sg24
S'--'
p61
sg26
S'--'
p62
sg28
S'--'
p63
sg30
S'L10-45'
p64
sg32
S'--'
p65
sg34
S'--'
p66
sg36
S'@PIT'
p67
sg38
S'--'
p68
sg40
S'--'
p69
sg42
S'--'
p70
ssS'12'
p71
(dp72
g5
S'--'
p73
sg7
S'--'
p74
sg9
g10
sg11
S'--'
p75
sg13
g10
sg14
S'Phillip Dorsett'
p76
sg16
S'2015'
p77
sg18
S'12'
p78
sg20
S'--'
p79
sg22
S'11/29'
p80
sg24
S'--'
p81
sg26
S'--'
p82
sg28
S'--'
p83
sg30
S'W25-12'
p84
sg32
S'--'
p85
sg34
S'--'
p86
sg36
S'TB'
p87
sg38
S'--'
p88
sg40
S'--'
p89
sg42
S'--'
p90
ssS'15'
p91
(dp92
g5
S'--'
p93
sg7
S'--'
p94
sg9
g10
sg11
S'--'
p95
sg13
S'1'
p96
sg14
S'Phillip Dorsett'
p97
sg16
S'2015'
p98
sg18
S'15'
p99
sg20
S'--'
p100
sg22
S'12/20'
p101
sg24
S'1.0'
p102
sg26
S'--'
p103
sg28
S'--'
p104
sg30
S'L10-16'
p105
sg32
g96
sg34
g96
sg36
S'HOU'
p106
sg38
g96
sg40
g10
sg42
S'--'
p107
ssS'14'
p108
(dp109
g5
S'--'
p110
sg7
S'--'
p111
sg9
g10
sg11
S'--'
p112
sg13
g96
sg14
S'Phillip Dorsett'
p113
sg16
S'2015'
p114
sg18
S'14'
p115
sg20
S'--'
p116
sg22
S'12/13'
p117
sg24
S'--'
p118
sg26
S'--'
p119
sg28
S'--'
p120
sg30
S'L16-51'
p121
sg32
g10
sg34
g10
sg36
S'@JAC'
p122
sg38
S'--'
p123
sg40
g10
sg42
S'--'
p124
ssS'17'
p125
(dp126
g5
g10
sg7
S'11'
p127
sg9
g10
sg11
S'--'
p128
sg13
g96
sg14
S'Phillip Dorsett'
p129
sg16
S'2015'
p130
sg18
S'17'
p131
sg20
S'11.0'
p132
sg22
S'01/03'
p133
sg24
S'7.0'
p134
sg26
S'--'
p135
sg28
g96
sg30
S'W30-24'
p136
sg32
S'28'
p137
sg34
S'4'
p138
sg36
S'TEN'
p139
sg38
S'11'
p140
sg40
g10
sg42
S'11'
p141
ssS'16'
p142
(dp143
g5
g10
sg7
S'2'
p144
sg9
g10
sg11
S'--'
p145
sg13
g96
sg14
S'Phillip Dorsett'
p146
sg16
S'2015'
p147
sg18
S'16'
p148
sg20
S'2.0'
p149
sg22
S'12/27'
p150
sg24
S'14.5'
p151
sg26
S'--'
p152
sg28
g96
sg30
S'W18-12'
p153
sg32
S'29'
p154
sg34
g144
sg36
S'@MIA'
p155
sg38
S'22'
p156
sg40
g10
sg42
g144
ssg96
(dp157
g5
S'--'
p158
sg7
S'--'
p159
sg9
g10
sg11
g96
sg13
g96
sg14
S'Phillip Dorsett'
p160
sg16
S'2015'
p161
sg18
g96
sg20
S'--'
p162
sg22
S'09/13'
p163
sg24
S'22.5'
p164
sg26
g144
sg28
S'--'
p165
sg30
S'L14-27'
p166
sg32
S'45'
p167
sg34
g144
sg36
S'@BUF'
p168
sg38
S'29'
p169
sg40
g10
sg42
S'--'
p170
ssS'3'
p171
(dp172
g5
S'--'
p173
sg7
S'--'
p174
sg9
g10
sg11
S'--'
p175
sg13
g96
sg14
S'Phillip Dorsett'
p176
sg16
S'2015'
p177
sg18
g171
sg20
S'--'
p178
sg22
S'09/27'
p179
sg24
S'21.5'
p180
sg26
S'--'
p181
sg28
S'--'
p182
sg30
S'W35-33'
p183
sg32
S'43'
p184
sg34
g144
sg36
S'@TEN'
p185
sg38
S'35T'
p186
sg40
g96
sg42
S'--'
p187
ssg144
(dp188
g5
S'--'
p189
sg7
S'--'
p190
sg9
g10
sg11
S'--'
p191
sg13
g96
sg14
S'Phillip Dorsett'
p192
sg16
S'2015'
p193
sg18
g144
sg20
S'--'
p194
sg22
S'09/21'
p195
sg24
S'25.0'
p196
sg26
S'--'
p197
sg28
S'--'
p198
sg30
S'L7-20'
p199
sg32
S'25'
p200
sg34
g96
sg36
S'NYJ'
p201
sg38
S'25'
p202
sg40
g10
sg42
S'--'
p203
ssS'5'
p204
(dp205
g5
S'--'
p206
sg7
S'--'
p207
sg9
g10
sg11
S'--'
p208
sg13
g96
sg14
S'Phillip Dorsett'
p209
sg16
S'2015'
p210
sg18
g204
sg20
S'--'
p211
sg22
S'10/08'
p212
sg24
S'9.0'
p213
sg26
S'--'
p214
sg28
S'--'
p215
sg30
S'W27-20'
p216
sg32
S'9'
p217
sg34
g96
sg36
S'@HOU'
p218
sg38
g217
sg40
g10
sg42
S'--'
p219
ssg138
(dp220
g5
g10
sg7
g138
sg9
g10
sg11
S'--'
p221
sg13
g96
sg14
S'Phillip Dorsett'
p222
sg16
S'2015'
p223
sg18
g138
sg20
S'4.0'
p224
sg22
S'10/04'
p225
sg24
S'3.5'
p226
sg26
S'--'
p227
sg28
g96
sg30
S'W16-13'
p228
sg32
S'7'
p229
sg34
g144
sg36
S'JAC'
p230
sg38
S'6'
p231
sg40
g10
sg42
g138
ssg229
(dp232
g5
S'--'
p233
sg7
S'--'
p234
sg9
g10
sg11
S'--'
p235
sg13
g96
sg14
S'Phillip Dorsett'
p236
sg16
S'2015'
p237
sg18
g229
sg20
S'--'
p238
sg22
S'10/25'
p239
sg24
S'8.0'
p240
sg26
S'--'
p241
sg28
S'--'
p242
sg30
S'L21-27'
p243
sg32
S'8'
p244
sg34
g96
sg36
S'NO'
p245
sg38
g244
sg40
g10
sg42
S'--'
p246
ssg231
(dp247
g5
S'--'
p248
sg7
S'--'
p249
sg9
g10
sg11
S'--'
p250
sg13
g96
sg14
S'Phillip Dorsett'
p251
sg16
S'2015'
p252
sg18
g231
sg20
S'--'
p253
sg22
S'10/18'
p254
sg24
S'15.0'
p255
sg26
S'--'
p256
sg28
S'--'
p257
sg30
S'L27-34'
p258
sg32
S'30'
p259
sg34
g144
sg36
S'NE'
p260
sg38
S'17'
p261
sg40
g10
sg42
S'--'
p262
ssg217
(dp263
g5
S'--'
p264
sg7
S'--'
p265
sg9
g10
sg11
S'--'
p266
sg13
g10
sg14
S'Phillip Dorsett'
p267
sg16
S'2015'
p268
sg18
g217
sg20
S'--'
p269
sg22
S'11/08'
p270
sg24
S'--'
p271
sg26
S'--'
p272
sg28
S'--'
p273
sg30
S'W27-24'
p274
sg32
S'--'
p275
sg34
S'--'
p276
sg36
S'DEN'
p277
sg38
S'--'
p278
sg40
S'--'
p279
sg42
S'--'
p280
ssg244
(dp281
g5
S'--'
p282
sg7
S'--'
p283
sg9
g10
sg11
S'--'
p284
sg13
g10
sg14
S'Phillip Dorsett'
p285
sg16
S'2015'
p286
sg18
g244
sg20
S'--'
p287
sg22
S'11/02'
p288
sg24
S'--'
p289
sg26
S'--'
p290
sg28
S'--'
p291
sg30
S'L26-29'
p292
sg32
S'--'
p293
sg34
S'--'
p294
sg36
S'@CAR'
p295
sg38
S'--'
p296
sg40
S'--'
p297
sg42
S'--'
p298
sss.