(dp0
S'2015'
p1
(dp2
S'11'
p3
(dp4
S'RushTD'
p5
S'--'
p6
sS'RushYds'
p7
S'--'
p8
sS'GS'
p9
S'0'
p10
sS'Lost'
p11
S'--'
p12
sS'G'
p13
S'1'
p14
sS'Player'
p15
S'Quan Bray'
p16
sS'Year'
p17
S'2015'
p18
sS'WK'
p19
S'11'
p20
sS'RushAvg'
p21
S'--'
p22
sS'Game Date'
p23
S'11/22'
p24
sS'RecAvg'
p25
S'--'
p26
sS'FUM'
p27
S'--'
p28
sS'RushAtt'
p29
S'--'
p30
sS'Result'
p31
S'W24-21'
p32
sS'RecYds'
p33
S'--'
p34
sS'Rec'
p35
S'--'
p36
sS'Opp'
p37
S'@ATL'
p38
sS'RecLng'
p39
S'--'
p40
sS'RecTD'
p41
S'--'
p42
sS'RushLng'
p43
S'--'
p44
ssS'10'
p45
(dp46
g5
S''
p47
sg7
g47
sg9
g47
sg11
g47
sg13
g47
sg15
S'Quan Bray'
p48
sg17
S'2015'
p49
sg19
S'10'
p50
sg21
g47
sg23
S'Bye'
p51
sg25
g47
sg27
g47
sg29
g47
sg31
g47
sg33
g47
sg35
g47
sg37
g47
sg39
g47
sg41
g47
sg43
g47
ssS'13'
p52
(dp53
g5
S'--'
p54
sg7
S'--'
p55
sg9
g10
sg11
S'--'
p56
sg13
g14
sg15
S'Quan Bray'
p57
sg17
S'2015'
p58
sg19
S'13'
p59
sg21
S'--'
p60
sg23
S'12/06'
p61
sg25
S'--'
p62
sg27
S'--'
p63
sg29
S'--'
p64
sg31
S'L10-45'
p65
sg33
S'--'
p66
sg35
S'--'
p67
sg37
S'@PIT'
p68
sg39
S'--'
p69
sg41
S'--'
p70
sg43
S'--'
p71
ssS'12'
p72
(dp73
g5
S'--'
p74
sg7
S'--'
p75
sg9
g10
sg11
S'--'
p76
sg13
g14
sg15
S'Quan Bray'
p77
sg17
S'2015'
p78
sg19
S'12'
p79
sg21
S'--'
p80
sg23
S'11/29'
p81
sg25
S'--'
p82
sg27
S'--'
p83
sg29
S'--'
p84
sg31
S'W25-12'
p85
sg33
S'--'
p86
sg35
S'--'
p87
sg37
S'TB'
p88
sg39
S'--'
p89
sg41
S'--'
p90
sg43
S'--'
p91
ssS'15'
p92
(dp93
g5
S'--'
p94
sg7
S'--'
p95
sg9
g10
sg11
S'--'
p96
sg13
g14
sg15
S'Quan Bray'
p97
sg17
S'2015'
p98
sg19
S'15'
p99
sg21
S'--'
p100
sg23
S'12/20'
p101
sg25
S'--'
p102
sg27
S'--'
p103
sg29
S'--'
p104
sg31
S'L10-16'
p105
sg33
S'--'
p106
sg35
S'--'
p107
sg37
S'HOU'
p108
sg39
S'--'
p109
sg41
S'--'
p110
sg43
S'--'
p111
ssS'14'
p112
(dp113
g5
S'--'
p114
sg7
S'--'
p115
sg9
g10
sg11
S'--'
p116
sg13
g14
sg15
S'Quan Bray'
p117
sg17
S'2015'
p118
sg19
S'14'
p119
sg21
S'--'
p120
sg23
S'12/13'
p121
sg25
S'--'
p122
sg27
S'--'
p123
sg29
S'--'
p124
sg31
S'L16-51'
p125
sg33
S'--'
p126
sg35
S'--'
p127
sg37
S'@JAC'
p128
sg39
S'--'
p129
sg41
S'--'
p130
sg43
S'--'
p131
ssS'17'
p132
(dp133
g5
S'--'
p134
sg7
S'--'
p135
sg9
g10
sg11
S'--'
p136
sg13
g14
sg15
S'Quan Bray'
p137
sg17
S'2015'
p138
sg19
S'17'
p139
sg21
S'--'
p140
sg23
S'01/03'
p141
sg25
S'--'
p142
sg27
S'--'
p143
sg29
S'--'
p144
sg31
S'W30-24'
p145
sg33
S'--'
p146
sg35
S'--'
p147
sg37
S'TEN'
p148
sg39
S'--'
p149
sg41
S'--'
p150
sg43
S'--'
p151
ssS'16'
p152
(dp153
g5
S'--'
p154
sg7
S'--'
p155
sg9
g10
sg11
S'--'
p156
sg13
g14
sg15
S'Quan Bray'
p157
sg17
S'2015'
p158
sg19
S'16'
p159
sg21
S'--'
p160
sg23
S'12/27'
p161
sg25
S'--'
p162
sg27
S'--'
p163
sg29
S'--'
p164
sg31
S'W18-12'
p165
sg33
S'--'
p166
sg35
S'--'
p167
sg37
S'@MIA'
p168
sg39
S'--'
p169
sg41
S'--'
p170
sg43
S'--'
p171
ssS'9'
p172
(dp173
g5
S'--'
p174
sg7
S'--'
p175
sg9
g10
sg11
S'--'
p176
sg13
g14
sg15
S'Quan Bray'
p177
sg17
S'2015'
p178
sg19
g172
sg21
S'--'
p179
sg23
S'11/08'
p180
sg25
S'--'
p181
sg27
S'--'
p182
sg29
S'--'
p183
sg31
S'W27-24'
p184
sg33
S'--'
p185
sg35
S'--'
p186
sg37
S'DEN'
p187
sg39
S'--'
p188
sg41
S'--'
p189
sg43
S'--'
p190
ssS'8'
p191
(dp192
g5
S'--'
p193
sg7
S'--'
p194
sg9
g10
sg11
S'--'
p195
sg13
g14
sg15
S'Quan Bray'
p196
sg17
S'2015'
p197
sg19
g191
sg21
S'--'
p198
sg23
S'11/02'
p199
sg25
S'--'
p200
sg27
S'--'
p201
sg29
S'--'
p202
sg31
S'L26-29'
p203
sg33
S'--'
p204
sg35
S'--'
p205
sg37
S'@CAR'
p206
sg39
S'--'
p207
sg41
S'--'
p208
sg43
S'--'
p209
sss.