(dp0
S'2015'
p1
(dp2
S'11'
p3
(dp4
S'RushTD'
p5
S'--'
p6
sS'RushYds'
p7
S'--'
p8
sS'GS'
p9
S'1'
p10
sS'Lost'
p11
S'--'
p12
sS'G'
p13
g10
sS'Player'
p14
S'Quincy Enunwa'
p15
sS'Year'
p16
S'2015'
p17
sS'WK'
p18
S'11'
p19
sS'RushAvg'
p20
S'--'
p21
sS'Game Date'
p22
S'11/22'
p23
sS'RecAvg'
p24
S'11.0'
p25
sS'FUM'
p26
S'--'
p27
sS'RushAtt'
p28
S'--'
p29
sS'Result'
p30
S'L17-24'
p31
sS'RecYds'
p32
S'22'
p33
sS'Rec'
p34
S'2'
p35
sS'Opp'
p36
S'@HOU'
p37
sS'RecLng'
p38
S'16'
p39
sS'RecTD'
p40
S'0'
p41
sS'RushLng'
p42
S'--'
p43
ssS'13'
p44
(dp45
g5
S'--'
p46
sg7
S'--'
p47
sg9
g10
sg11
S'--'
p48
sg13
g10
sg14
S'Quincy Enunwa'
p49
sg16
S'2015'
p50
sg18
S'13'
p51
sg20
S'--'
p52
sg22
S'12/06'
p53
sg24
S'18.5'
p54
sg26
S'--'
p55
sg28
S'--'
p56
sg30
S'W23-20'
p57
sg32
S'37'
p58
sg34
g35
sg36
S'@NYG'
p59
sg38
S'28'
p60
sg40
g41
sg42
S'--'
p61
ssS'12'
p62
(dp63
g5
S'--'
p64
sg7
S'--'
p65
sg9
g10
sg11
S'--'
p66
sg13
g10
sg14
S'Quincy Enunwa'
p67
sg16
S'2015'
p68
sg18
S'12'
p69
sg20
S'--'
p70
sg22
S'11/29'
p71
sg24
S'14.5'
p72
sg26
S'--'
p73
sg28
S'--'
p74
sg30
S'W38-20'
p75
sg32
S'29'
p76
sg34
g35
sg36
S'MIA'
p77
sg38
S'18'
p78
sg40
g41
sg42
S'--'
p79
ssS'15'
p80
(dp81
g5
S'--'
p82
sg7
S'--'
p83
sg9
g10
sg11
S'--'
p84
sg13
g10
sg14
S'Quincy Enunwa'
p85
sg16
S'2015'
p86
sg18
S'15'
p87
sg20
S'--'
p88
sg22
S'12/19'
p89
sg24
S'12.3'
p90
sg26
S'--'
p91
sg28
S'--'
p92
sg30
S'W19-16'
p93
sg32
S'49'
p94
sg34
S'4'
p95
sg36
S'@DAL'
p96
sg38
S'24'
p97
sg40
g41
sg42
S'--'
p98
ssS'14'
p99
(dp100
g5
S'--'
p101
sg7
S'--'
p102
sg9
g41
sg11
S'--'
p103
sg13
g10
sg14
S'Quincy Enunwa'
p104
sg16
S'2015'
p105
sg18
S'14'
p106
sg20
S'--'
p107
sg22
S'12/13'
p108
sg24
S'10.0'
p109
sg26
S'--'
p110
sg28
S'--'
p111
sg30
S'W30-8'
p112
sg32
S'10'
p113
sg34
g10
sg36
S'TEN'
p114
sg38
S'10'
p115
sg40
g41
sg42
S'--'
p116
ssS'17'
p117
(dp118
g5
S'--'
p119
sg7
S'--'
p120
sg9
g41
sg11
S'--'
p121
sg13
g10
sg14
S'Quincy Enunwa'
p122
sg16
S'2015'
p123
sg18
S'17'
p124
sg20
S'--'
p125
sg22
S'01/03'
p126
sg24
S'5.0'
p127
sg26
S'--'
p128
sg28
S'--'
p129
sg30
S'L17-22'
p130
sg32
S'5'
p131
sg34
g10
sg36
S'@BUF'
p132
sg38
g131
sg40
g41
sg42
S'--'
p133
ssS'16'
p134
(dp135
g5
S'--'
p136
sg7
S'--'
p137
sg9
g10
sg11
S'--'
p138
sg13
g10
sg14
S'Quincy Enunwa'
p139
sg16
S'2015'
p140
sg18
S'16'
p141
sg20
S'--'
p142
sg22
S'12/27'
p143
sg24
S'34.5'
p144
sg26
S'--'
p145
sg28
S'--'
p146
sg30
S'W26-20'
p147
sg32
S'69'
p148
sg34
g35
sg36
S'NE'
p149
sg38
S'48'
p150
sg40
g41
sg42
S'--'
p151
ssg10
(dp152
g5
S'--'
p153
sg7
S'--'
p154
sg9
g41
sg11
S'--'
p155
sg13
g10
sg14
S'Quincy Enunwa'
p156
sg16
S'2015'
p157
sg18
g10
sg20
S'--'
p158
sg22
S'09/13'
p159
sg24
S'--'
p160
sg26
S'--'
p161
sg28
S'--'
p162
sg30
S'W31-10'
p163
sg32
S'--'
p164
sg34
S'--'
p165
sg36
S'CLE'
p166
sg38
S'--'
p167
sg40
S'--'
p168
sg42
S'--'
p169
ssS'3'
p170
(dp171
g5
S'--'
p172
sg7
S'--'
p173
sg9
g41
sg11
S'--'
p174
sg13
g10
sg14
S'Quincy Enunwa'
p175
sg16
S'2015'
p176
sg18
g170
sg20
S'--'
p177
sg22
S'09/27'
p178
sg24
S'10.0'
p179
sg26
S'--'
p180
sg28
S'--'
p181
sg30
S'L17-24'
p182
sg32
S'50'
p183
sg34
g131
sg36
S'PHI'
p184
sg38
S'26'
p185
sg40
g41
sg42
S'--'
p186
ssg35
(dp187
g5
S'--'
p188
sg7
S'--'
p189
sg9
g41
sg11
S'--'
p190
sg13
g10
sg14
S'Quincy Enunwa'
p191
sg16
S'2015'
p192
sg18
g35
sg20
S'--'
p193
sg22
S'09/21'
p194
sg24
S'27.0'
p195
sg26
S'--'
p196
sg28
S'--'
p197
sg30
S'W20-7'
p198
sg32
S'27'
p199
sg34
g10
sg36
S'@IND'
p200
sg38
S'27'
p201
sg40
g41
sg42
S'--'
p202
ssg131
(dp203
g5
S''
p204
sg7
g204
sg9
g204
sg11
g204
sg13
g204
sg14
S'Quincy Enunwa'
p205
sg16
S'2015'
p206
sg18
g131
sg20
g204
sg22
S'Bye'
p207
sg24
g204
sg26
g204
sg28
g204
sg30
g204
sg32
g204
sg34
g204
sg36
g204
sg38
g204
sg40
g204
sg42
g204
ssg95
(dp208
g5
S'--'
p209
sg7
S'--'
p210
sg9
g41
sg11
S'--'
p211
sg13
g10
sg14
S'Quincy Enunwa'
p212
sg16
S'2015'
p213
sg18
g95
sg20
S'--'
p214
sg22
S'10/04'
p215
sg24
S'--'
p216
sg26
S'--'
p217
sg28
S'--'
p218
sg30
S'W27-14'
p219
sg32
g41
sg34
g41
sg36
S'@MIA'
p220
sg38
S'--'
p221
sg40
g41
sg42
S'--'
p222
ssS'6'
p223
(dp224
g5
S'--'
p225
sg7
S'--'
p226
sg9
g10
sg11
S'--'
p227
sg13
g10
sg14
S'Quincy Enunwa'
p228
sg16
S'2015'
p229
sg18
g223
sg20
S'--'
p230
sg22
S'10/18'
p231
sg24
S'8.5'
p232
sg26
S'--'
p233
sg28
S'--'
p234
sg30
S'W34-20'
p235
sg32
S'17'
p236
sg34
g35
sg36
S'WAS'
p237
sg38
S'10'
p238
sg40
g41
sg42
S'--'
p239
sssS'2014'
p240
(dp241
g117
(dp242
g5
S'--'
p243
sg7
S'--'
p244
sg9
g41
sg11
S'--'
p245
sg13
g10
sg14
S'Quincy Enunwa'
p246
sg16
S'2014'
p247
sg18
S'17'
p248
sg20
S'--'
p249
sg22
S'12/28'
p250
sg24
S'--'
p251
sg26
S'--'
p252
sg28
S'--'
p253
sg30
S'W37-24'
p254
sg32
S'--'
p255
sg34
S'--'
p256
sg36
S'@MIA'
p257
sg38
S'--'
p258
sg40
S'--'
p259
sg42
S'--'
p260
sss.