(dp0
S'2015'
p1
(dp2
S'11'
p3
(dp4
S'RushTD'
p5
S'--'
p6
sS'RushYds'
p7
S'--'
p8
sS'GS'
p9
S'1'
p10
sS'Lost'
p11
S'--'
p12
sS'G'
p13
g10
sS'Player'
p14
S'Randall Cobb'
p15
sS'Year'
p16
S'2015'
p17
sS'WK'
p18
S'11'
p19
sS'RushAvg'
p20
S'--'
p21
sS'Game Date'
p22
S'11/22'
p23
sS'RecAvg'
p24
S'12.0'
p25
sS'FUM'
p26
S'--'
p27
sS'RushAtt'
p28
S'--'
p29
sS'Result'
p30
S'W30-13'
p31
sS'RecYds'
p32
S'24'
p33
sS'Rec'
p34
S'2'
p35
sS'Opp'
p36
S'@MIN'
p37
sS'RecLng'
p38
S'14'
p39
sS'RecTD'
p40
g10
sS'RushLng'
p41
S'--'
p42
ssS'10'
p43
(dp44
g5
S'0'
p45
sg7
S'-3'
p46
sg9
g10
sg11
S'--'
p47
sg13
g10
sg14
S'Randall Cobb'
p48
sg16
S'2015'
p49
sg18
S'10'
p50
sg20
S'-3.0'
p51
sg22
S'11/15'
p52
sg24
S'10.6'
p53
sg26
S'--'
p54
sg28
g10
sg30
S'L16-18'
p55
sg32
S'53'
p56
sg34
S'5'
p57
sg36
S'DET'
p58
sg38
S'20'
p59
sg40
g45
sg41
S'-3'
p60
ssS'13'
p61
(dp62
g5
g45
sg7
S'-1'
p63
sg9
g10
sg11
S'--'
p64
sg13
g10
sg14
S'Randall Cobb'
p65
sg16
S'2015'
p66
sg18
S'13'
p67
sg20
S'-1.0'
p68
sg22
S'12/03'
p69
sg24
S'7.3'
p70
sg26
S'--'
p71
sg28
g10
sg30
S'W27-23'
p72
sg32
S'29'
p73
sg34
S'4'
p74
sg36
S'@DET'
p75
sg38
S'16'
p76
sg40
g45
sg41
S'-1'
p77
ssS'12'
p78
(dp79
g5
S'--'
p80
sg7
S'--'
p81
sg9
g10
sg11
g45
sg13
g10
sg14
S'Randall Cobb'
p82
sg16
S'2015'
p83
sg18
S'12'
p84
sg20
S'--'
p85
sg22
S'11/26'
p86
sg24
S'12.3'
p87
sg26
g10
sg28
S'--'
p88
sg30
S'L13-17'
p89
sg32
S'74'
p90
sg34
S'6'
p91
sg36
S'CHI'
p92
sg38
S'32'
p93
sg40
g45
sg41
S'--'
p94
ssS'15'
p95
(dp96
g5
g45
sg7
S'18'
p97
sg9
g10
sg11
S'--'
p98
sg13
g10
sg14
S'Randall Cobb'
p99
sg16
S'2015'
p100
sg18
S'15'
p101
sg20
S'4.5'
p102
sg22
S'12/20'
p103
sg24
S'8.0'
p104
sg26
S'--'
p105
sg28
g74
sg30
S'W30-20'
p106
sg32
S'40'
p107
sg34
g57
sg36
S'@OAK'
p108
sg38
S'23'
p109
sg40
g45
sg41
g91
ssS'14'
p110
(dp111
g5
g45
sg7
S'9'
p112
sg9
g10
sg11
S'--'
p113
sg13
g10
sg14
S'Randall Cobb'
p114
sg16
S'2015'
p115
sg18
S'14'
p116
sg20
S'3.0'
p117
sg22
S'12/13'
p118
sg24
S'10.1'
p119
sg26
S'--'
p120
sg28
S'3'
p121
sg30
S'W28-7'
p122
sg32
S'81'
p123
sg34
S'8'
p124
sg36
S'DAL'
p125
sg38
S'17'
p126
sg40
g45
sg41
g124
ssS'17'
p127
(dp128
g5
g45
sg7
g121
sg9
g45
sg11
S'--'
p129
sg13
g10
sg14
S'Randall Cobb'
p130
sg16
S'2015'
p131
sg18
S'17'
p132
sg20
S'3.0'
p133
sg22
S'01/03'
p134
sg24
S'6.2'
p135
sg26
S'--'
p136
sg28
g10
sg30
S'L13-20'
p137
sg32
S'37'
p138
sg34
g91
sg36
S'MIN'
p139
sg38
S'17'
p140
sg40
g45
sg41
g121
ssS'16'
p141
(dp142
g5
g45
sg7
g35
sg9
g10
sg11
S'--'
p143
sg13
g10
sg14
S'Randall Cobb'
p144
sg16
S'2015'
p145
sg18
S'16'
p146
sg20
S'2.0'
p147
sg22
S'12/27'
p148
sg24
S'5.0'
p149
sg26
S'--'
p150
sg28
g10
sg30
S'L8-38'
p151
sg32
S'15'
p152
sg34
g121
sg36
S'@ARI'
p153
sg38
g124
sg40
g45
sg41
g35
ssg10
(dp154
g5
S'--'
p155
sg7
S'--'
p156
sg9
g10
sg11
S'--'
p157
sg13
g10
sg14
S'Randall Cobb'
p158
sg16
S'2015'
p159
sg18
g10
sg20
S'--'
p160
sg22
S'09/13'
p161
sg24
S'7.6'
p162
sg26
S'--'
p163
sg28
S'--'
p164
sg30
S'W31-23'
p165
sg32
S'38'
p166
sg34
g57
sg36
S'@CHI'
p167
sg38
S'10'
p168
sg40
g10
sg41
S'--'
p169
ssg121
(dp170
g5
g45
sg7
S'12'
p171
sg9
g10
sg11
S'--'
p172
sg13
g10
sg14
S'Randall Cobb'
p173
sg16
S'2015'
p174
sg18
g121
sg20
S'12.0'
p175
sg22
S'09/28'
p176
sg24
S'13.0'
p177
sg26
S'--'
p178
sg28
g10
sg30
S'W38-28'
p179
sg32
S'91'
p180
sg34
S'7'
p181
sg36
S'KC'
p182
sg38
S'29'
p183
sg40
g121
sg41
S'12'
p184
ssg35
(dp185
g5
S'--'
p186
sg7
S'--'
p187
sg9
g10
sg11
S'--'
p188
sg13
g10
sg14
S'Randall Cobb'
p189
sg16
S'2015'
p190
sg18
g35
sg20
S'--'
p191
sg22
S'09/20'
p192
sg24
S'14.5'
p193
sg26
S'--'
p194
sg28
S'--'
p195
sg30
S'W27-17'
p196
sg32
S'116'
p197
sg34
g124
sg36
S'SEA'
p198
sg38
S'25'
p199
sg40
g45
sg41
S'--'
p200
ssg57
(dp201
g5
S'--'
p202
sg7
S'--'
p203
sg9
g10
sg11
S'--'
p204
sg13
g10
sg14
S'Randall Cobb'
p205
sg16
S'2015'
p206
sg18
g57
sg20
S'--'
p207
sg22
S'10/11'
p208
sg24
S'7.7'
p209
sg26
S'--'
p210
sg28
S'--'
p211
sg30
S'W24-10'
p212
sg32
S'23'
p213
sg34
g121
sg36
S'STL'
p214
sg38
S'10'
p215
sg40
g45
sg41
S'--'
p216
ssg74
(dp217
g5
S'--'
p218
sg7
S'--'
p219
sg9
g10
sg11
S'--'
p220
sg13
g10
sg14
S'Randall Cobb'
p221
sg16
S'2015'
p222
sg18
g74
sg20
S'--'
p223
sg22
S'10/04'
p224
sg24
S'8.8'
p225
sg26
S'--'
p226
sg28
S'--'
p227
sg30
S'W17-3'
p228
sg32
S'44'
p229
sg34
g57
sg36
S'@SF'
p230
sg38
S'19'
p231
sg40
g45
sg41
S'--'
p232
ssg181
(dp233
g5
S''
p234
sg7
g234
sg9
g234
sg11
g234
sg13
g234
sg14
S'Randall Cobb'
p235
sg16
S'2015'
p236
sg18
g181
sg20
g234
sg22
S'Bye'
p237
sg24
g234
sg26
g234
sg28
g234
sg30
g234
sg32
g234
sg34
g234
sg36
g234
sg38
g234
sg40
g234
sg41
g234
ssg91
(dp238
g5
S'--'
p239
sg7
S'--'
p240
sg9
g10
sg11
S'--'
p241
sg13
g10
sg14
S'Randall Cobb'
p242
sg16
S'2015'
p243
sg18
g91
sg20
S'--'
p244
sg22
S'10/18'
p245
sg24
S'19.0'
p246
sg26
S'--'
p247
sg28
S'--'
p248
sg30
S'W27-20'
p249
sg32
S'38'
p250
sg34
g35
sg36
S'SD'
p251
sg38
S'26'
p252
sg40
g45
sg41
S'--'
p253
ssg112
(dp254
g5
S'--'
p255
sg7
S'--'
p256
sg9
g10
sg11
S'--'
p257
sg13
g10
sg14
S'Randall Cobb'
p258
sg16
S'2015'
p259
sg18
g112
sg20
S'--'
p260
sg22
S'11/08'
p261
sg24
S'24.8'
p262
sg26
S'--'
p263
sg28
S'--'
p264
sg30
S'L29-37'
p265
sg32
S'99'
p266
sg34
g74
sg36
S'@CAR'
p267
sg38
S'53T'
p268
sg40
g10
sg41
S'--'
p269
ssg124
(dp270
g5
g45
sg7
S'10'
p271
sg9
g10
sg11
S'--'
p272
sg13
g10
sg14
S'Randall Cobb'
p273
sg16
S'2015'
p274
sg18
g124
sg20
S'10.0'
p275
sg22
S'11/01'
p276
sg24
S'4.5'
p277
sg26
S'--'
p278
sg28
g10
sg30
S'L10-29'
p279
sg32
S'27'
p280
sg34
g91
sg36
S'@DEN'
p281
sg38
S'17'
p282
sg40
g45
sg41
S'10'
p283
sssS'2014'
p284
(dp285
g3
(dp286
g5
S'--'
p287
sg7
S'--'
p288
sg9
g10
sg11
S'--'
p289
sg13
g10
sg14
S'Randall Cobb'
p290
sg16
S'2014'
p291
sg18
S'11'
p292
sg20
S'--'
p293
sg22
S'11/16'
p294
sg24
S'12.9'
p295
sg26
S'--'
p296
sg28
S'--'
p297
sg30
S'W53-20'
p298
sg32
S'129'
p299
sg34
S'10'
p300
sg36
S'PHI'
p301
sg38
S'22'
p302
sg40
g45
sg41
S'--'
p303
ssg43
(dp304
g5
S'--'
p305
sg7
S'--'
p306
sg9
g10
sg11
g10
sg13
g10
sg14
S'Randall Cobb'
p307
sg16
S'2014'
p308
sg18
S'10'
p309
sg20
S'--'
p310
sg22
S'11/09'
p311
sg24
S'18.0'
p312
sg26
g10
sg28
S'--'
p313
sg30
S'W55-14'
p314
sg32
S'72'
p315
sg34
g74
sg36
S'CHI'
p316
sg38
S'29'
p317
sg40
g10
sg41
S'--'
p318
ssg61
(dp319
g5
g45
sg7
g124
sg9
g10
sg11
S'--'
p320
sg13
g10
sg14
S'Randall Cobb'
p321
sg16
S'2014'
p322
sg18
S'13'
p323
sg20
S'4.0'
p324
sg22
S'11/30'
p325
sg24
S'12.1'
p326
sg26
S'--'
p327
sg28
g35
sg30
S'W26-21'
p328
sg32
S'85'
p329
sg34
g181
sg36
S'NE'
p330
sg38
S'33'
p331
sg40
g45
sg41
g91
ssg78
(dp332
g5
S'--'
p333
sg7
S'--'
p334
sg9
g10
sg11
S'--'
p335
sg13
g10
sg14
S'Randall Cobb'
p336
sg16
S'2014'
p337
sg18
S'12'
p338
sg20
S'--'
p339
sg22
S'11/23'
p340
sg24
S'14.5'
p341
sg26
S'--'
p342
sg28
S'--'
p343
sg30
S'W24-21'
p344
sg32
S'58'
p345
sg34
g74
sg36
S'@MIN'
p346
sg38
S'29'
p347
sg40
g45
sg41
S'--'
p348
ssg95
(dp349
g5
g45
sg7
S'15'
p350
sg9
g10
sg11
S'--'
p351
sg13
g10
sg14
S'Randall Cobb'
p352
sg16
S'2014'
p353
sg18
S'15'
p354
sg20
S'7.5'
p355
sg22
S'12/14'
p356
sg24
S'13.7'
p357
sg26
S'--'
p358
sg28
g35
sg30
S'L13-21'
p359
sg32
S'96'
p360
sg34
g181
sg36
S'@BUF'
p361
sg38
S'20'
p362
sg40
g45
sg41
S'12'
p363
ssg110
(dp364
g5
g45
sg7
S'-1'
p365
sg9
g10
sg11
S'--'
p366
sg13
g10
sg14
S'Randall Cobb'
p367
sg16
S'2014'
p368
sg18
S'14'
p369
sg20
S'-1.0'
p370
sg22
S'12/08'
p371
sg24
S'14.5'
p372
sg26
S'--'
p373
sg28
g10
sg30
S'W43-37'
p374
sg32
S'58'
p375
sg34
g74
sg36
S'ATL'
p376
sg38
S'23'
p377
sg40
g45
sg41
S'-1'
p378
ssg127
(dp379
g5
g45
sg7
g91
sg9
g10
sg11
g10
sg13
g10
sg14
S'Randall Cobb'
p380
sg16
S'2014'
p381
sg18
S'17'
p382
sg20
S'3.0'
p383
sg22
S'12/28'
p384
sg24
S'20.0'
p385
sg26
g10
sg28
g35
sg30
S'W30-20'
p386
sg32
S'80'
p387
sg34
g74
sg36
S'DET'
p388
sg38
S'34'
p389
sg40
g35
sg41
g91
ssg141
(dp390
g5
S'--'
p391
sg7
S'--'
p392
sg9
g10
sg11
g45
sg13
g10
sg14
S'Randall Cobb'
p393
sg16
S'2014'
p394
sg18
S'16'
p395
sg20
S'--'
p396
sg22
S'12/21'
p397
sg24
S'11.9'
p398
sg26
g10
sg28
S'--'
p399
sg30
S'W20-3'
p400
sg32
S'131'
p401
sg34
S'11'
p402
sg36
S'@TB'
p403
sg38
S'30'
p404
sg40
g45
sg41
S'--'
p405
ssg10
(dp406
g5
S'--'
p407
sg7
S'--'
p408
sg9
g10
sg11
S'--'
p409
sg13
g10
sg14
S'Randall Cobb'
p410
sg16
S'2014'
p411
sg18
g10
sg20
S'--'
p412
sg22
S'09/04'
p413
sg24
S'9.7'
p414
sg26
S'--'
p415
sg28
S'--'
p416
sg30
S'L16-36'
p417
sg32
S'58'
p418
sg34
g91
sg36
S'@SEA'
p419
sg38
S'23'
p420
sg40
g10
sg41
S'--'
p421
ssg121
(dp422
g5
S'--'
p423
sg7
S'--'
p424
sg9
g10
sg11
S'--'
p425
sg13
g10
sg14
S'Randall Cobb'
p426
sg16
S'2014'
p427
sg18
g121
sg20
S'--'
p428
sg22
S'09/21'
p429
sg24
S'9.7'
p430
sg26
S'--'
p431
sg28
S'--'
p432
sg30
S'L7-19'
p433
sg32
S'29'
p434
sg34
g121
sg36
S'@DET'
p435
sg38
S'13'
p436
sg40
g45
sg41
S'--'
p437
ssg35
(dp438
g5
g45
sg7
g91
sg9
g10
sg11
S'--'
p439
sg13
g10
sg14
S'Randall Cobb'
p440
sg16
S'2014'
p441
sg18
g35
sg20
S'3.0'
p442
sg22
S'09/14'
p443
sg24
S'7.8'
p444
sg26
S'--'
p445
sg28
g35
sg30
S'W31-24'
p446
sg32
S'39'
p447
sg34
g57
sg36
S'NYJ'
p448
sg38
S'14'
p449
sg40
g35
sg41
g74
ssg57
(dp450
g5
S'--'
p451
sg7
S'--'
p452
sg9
g10
sg11
S'--'
p453
sg13
g10
sg14
S'Randall Cobb'
p454
sg16
S'2014'
p455
sg18
g57
sg20
S'--'
p456
sg22
S'10/02'
p457
sg24
S'11.3'
p458
sg26
S'--'
p459
sg28
S'--'
p460
sg30
S'W42-10'
p461
sg32
S'34'
p462
sg34
g121
sg36
S'MIN'
p463
sg38
S'20'
p464
sg40
g10
sg41
S'--'
p465
ssg74
(dp466
g5
S'--'
p467
sg7
S'--'
p468
sg9
g10
sg11
S'--'
p469
sg13
g10
sg14
S'Randall Cobb'
p470
sg16
S'2014'
p471
sg18
g74
sg20
S'--'
p472
sg22
S'09/28'
p473
sg24
S'16.1'
p474
sg26
S'--'
p475
sg28
S'--'
p476
sg30
S'W38-17'
p477
sg32
S'113'
p478
sg34
g181
sg36
S'@CHI'
p479
sg38
S'46'
p480
sg40
g35
sg41
S'--'
p481
ssg181
(dp482
g5
g45
sg7
g35
sg9
g10
sg11
S'--'
p483
sg13
g10
sg14
S'Randall Cobb'
p484
sg16
S'2014'
p485
sg18
g181
sg20
S'2.0'
p486
sg22
S'10/19'
p487
sg24
S'20.2'
p488
sg26
S'--'
p489
sg28
g10
sg30
S'W38-17'
p490
sg32
S'121'
p491
sg34
g91
sg36
S'CAR'
p492
sg38
S'47'
p493
sg40
g10
sg41
g35
ssg91
(dp494
g5
g45
sg7
g10
sg9
g10
sg11
S'--'
p495
sg13
g10
sg14
S'Randall Cobb'
p496
sg16
S'2014'
p497
sg18
g91
sg20
S'1.0'
p498
sg22
S'10/12'
p499
sg24
S'11.6'
p500
sg26
S'--'
p501
sg28
g10
sg30
S'W27-24'
p502
sg32
S'58'
p503
sg34
g57
sg36
S'@MIA'
p504
sg38
S'28'
p505
sg40
g10
sg41
g10
ssg112
(dp506
g5
g234
sg7
g234
sg9
g234
sg11
g234
sg13
g234
sg14
S'Randall Cobb'
p507
sg16
S'2014'
p508
sg18
g112
sg20
g234
sg22
S'Bye'
p509
sg24
g234
sg26
g234
sg28
g234
sg30
g234
sg32
g234
sg34
g234
sg36
g234
sg38
g234
sg40
g234
sg41
g234
ssg124
(dp510
g5
S'--'
p511
sg7
S'--'
p512
sg9
g10
sg11
S'--'
p513
sg13
g10
sg14
S'Randall Cobb'
p514
sg16
S'2014'
p515
sg18
g124
sg20
S'--'
p516
sg22
S'10/26'
p517
sg24
S'25.2'
p518
sg26
S'--'
p519
sg28
S'--'
p520
sg30
S'L23-44'
p521
sg32
S'126'
p522
sg34
g57
sg36
S'@NO'
p523
sg38
S'70T'
p524
sg40
g10
sg41
S'--'
p525
sssS'2011'
p526
(dp527
g3
(dp528
g5
S'--'
p529
sg7
S'--'
p530
sg9
g45
sg11
S'--'
p531
sg13
g10
sg14
S'Randall Cobb'
p532
sg16
S'2011'
p533
sg18
S'11'
p534
sg20
S'--'
p535
sg22
S'11/20'
p536
sg24
S'11.0'
p537
sg26
S'--'
p538
sg28
S'--'
p539
sg30
S'W35-26'
p540
sg32
S'11'
p541
sg34
g10
sg36
S'TB'
p542
sg38
S'11'
p543
sg40
g45
sg41
S'--'
p544
ssg43
(dp545
g5
S'--'
p546
sg7
S'--'
p547
sg9
g45
sg11
g10
sg13
g10
sg14
S'Randall Cobb'
p548
sg16
S'2011'
p549
sg18
S'10'
p550
sg20
S'--'
p551
sg22
S'11/14'
p552
sg24
S'12.0'
p553
sg26
g10
sg28
S'--'
p554
sg30
S'W45-7'
p555
sg32
S'36'
p556
sg34
g121
sg36
S'MIN'
p557
sg38
S'19'
p558
sg40
g45
sg41
S'--'
p559
ssg61
(dp560
g5
S'--'
p561
sg7
S'--'
p562
sg9
g45
sg11
S'--'
p563
sg13
g10
sg14
S'Randall Cobb'
p564
sg16
S'2011'
p565
sg18
S'13'
p566
sg20
S'--'
p567
sg22
S'12/04'
p568
sg24
S'--'
p569
sg26
S'--'
p570
sg28
S'--'
p571
sg30
S'W38-35'
p572
sg32
g45
sg34
g45
sg36
S'@NYG'
p573
sg38
S'--'
p574
sg40
g45
sg41
S'--'
p575
ssg78
(dp576
g5
S'--'
p577
sg7
S'--'
p578
sg9
g45
sg11
S'--'
p579
sg13
g10
sg14
S'Randall Cobb'
p580
sg16
S'2011'
p581
sg18
S'12'
p582
sg20
S'--'
p583
sg22
S'11/24'
p584
sg24
S'10.5'
p585
sg26
S'--'
p586
sg28
S'--'
p587
sg30
S'W27-15'
p588
sg32
S'21'
p589
sg34
g35
sg36
S'@DET'
p590
sg38
S'12'
p591
sg40
g45
sg41
S'--'
p592
ssg95
(dp593
g5
g45
sg7
g74
sg9
g45
sg11
S'--'
p594
sg13
g10
sg14
S'Randall Cobb'
p595
sg16
S'2011'
p596
sg18
S'15'
p597
sg20
S'4.0'
p598
sg22
S'12/18'
p599
sg24
S'13.3'
p600
sg26
S'--'
p601
sg28
g10
sg30
S'L14-19'
p602
sg32
S'53'
p603
sg34
g74
sg36
S'@KC'
p604
sg38
S'16'
p605
sg40
g45
sg41
g74
ssg110
(dp606
g5
S'--'
p607
sg7
S'--'
p608
sg9
g45
sg11
S'--'
p609
sg13
g10
sg14
S'Randall Cobb'
p610
sg16
S'2011'
p611
sg18
S'14'
p612
sg20
S'--'
p613
sg22
S'12/11'
p614
sg24
S'22.5'
p615
sg26
S'--'
p616
sg28
S'--'
p617
sg30
S'W46-16'
p618
sg32
S'45'
p619
sg34
g35
sg36
S'OAK'
p620
sg38
S'26'
p621
sg40
g45
sg41
S'--'
p622
ssg127
(dp623
g5
S'--'
p624
sg7
S'--'
p625
sg9
g45
sg11
S'--'
p626
sg13
g45
sg14
S'Randall Cobb'
p627
sg16
S'2011'
p628
sg18
S'17'
p629
sg20
S'--'
p630
sg22
S'01/01'
p631
sg24
S'--'
p632
sg26
S'--'
p633
sg28
S'--'
p634
sg30
S'W45-41'
p635
sg32
S'--'
p636
sg34
S'--'
p637
sg36
S'DET'
p638
sg38
S'--'
p639
sg40
S'--'
p640
sg41
S'--'
p641
ssg141
(dp642
g5
S'--'
p643
sg7
S'--'
p644
sg9
g45
sg11
S'--'
p645
sg13
g10
sg14
S'Randall Cobb'
p646
sg16
S'2011'
p647
sg18
S'16'
p648
sg20
S'--'
p649
sg22
S'12/25'
p650
sg24
S'11.0'
p651
sg26
S'--'
p652
sg28
S'--'
p653
sg30
S'W35-21'
p654
sg32
S'22'
p655
sg34
g35
sg36
S'CHI'
p656
sg38
S'19'
p657
sg40
g45
sg41
S'--'
p658
ssg10
(dp659
g5
S'--'
p660
sg7
S'--'
p661
sg9
g45
sg11
S'--'
p662
sg13
g10
sg14
S'Randall Cobb'
p663
sg16
S'2011'
p664
sg18
g10
sg20
S'--'
p665
sg22
S'09/08'
p666
sg24
S'17.5'
p667
sg26
S'--'
p668
sg28
S'--'
p669
sg30
S'W42-34'
p670
sg32
S'35'
p671
sg34
g35
sg36
S'NO'
p672
sg38
S'32T'
p673
sg40
g10
sg41
S'--'
p674
ssg121
(dp675
g5
S'--'
p676
sg7
S'--'
p677
sg9
g45
sg11
S'--'
p678
sg13
g10
sg14
S'Randall Cobb'
p679
sg16
S'2011'
p680
sg18
g121
sg20
S'--'
p681
sg22
S'09/25'
p682
sg24
S'13.0'
p683
sg26
S'--'
p684
sg28
S'--'
p685
sg30
S'W27-17'
p686
sg32
S'13'
p687
sg34
g10
sg36
S'@CHI'
p688
sg38
S'13'
p689
sg40
g45
sg41
S'--'
p690
ssg35
(dp691
g5
S'--'
p692
sg7
S'--'
p693
sg9
g45
sg11
g10
sg13
g10
sg14
S'Randall Cobb'
p694
sg16
S'2011'
p695
sg18
g35
sg20
S'--'
p696
sg22
S'09/18'
p697
sg24
S'12.5'
p698
sg26
g10
sg28
S'--'
p699
sg30
S'W30-23'
p700
sg32
S'25'
p701
sg34
g35
sg36
S'@CAR'
p702
sg38
S'13'
p703
sg40
g45
sg41
S'--'
p704
ssg57
(dp705
g5
S'--'
p706
sg7
S'--'
p707
sg9
g45
sg11
S'--'
p708
sg13
g10
sg14
S'Randall Cobb'
p709
sg16
S'2011'
p710
sg18
g57
sg20
S'--'
p711
sg22
S'10/09'
p712
sg24
S'13.0'
p713
sg26
S'--'
p714
sg28
S'--'
p715
sg30
S'W25-14'
p716
sg32
S'26'
p717
sg34
g35
sg36
S'@ATL'
p718
sg38
S'16'
p719
sg40
g45
sg41
S'--'
p720
ssg74
(dp721
g5
S'--'
p722
sg7
S'--'
p723
sg9
g45
sg11
S'--'
p724
sg13
g10
sg14
S'Randall Cobb'
p725
sg16
S'2011'
p726
sg18
g74
sg20
S'--'
p727
sg22
S'10/02'
p728
sg24
S'37.5'
p729
sg26
S'--'
p730
sg28
S'--'
p731
sg30
S'W49-23'
p732
sg32
S'75'
p733
sg34
g35
sg36
S'DEN'
p734
sg38
S'61'
p735
sg40
g45
sg41
S'--'
p736
ssg181
(dp737
g5
g45
sg7
g10
sg9
g45
sg11
g10
sg13
g10
sg14
S'Randall Cobb'
p738
sg16
S'2011'
p739
sg18
g181
sg20
S'1.0'
p740
sg22
S'10/23'
p741
sg24
S'7.0'
p742
sg26
g10
sg28
g10
sg30
S'W33-27'
p743
sg32
g181
sg34
g10
sg36
S'@MIN'
p744
sg38
g181
sg40
g45
sg41
g10
ssg91
(dp745
g5
S'--'
p746
sg7
S'--'
p747
sg9
g45
sg11
S'--'
p748
sg13
g10
sg14
S'Randall Cobb'
p749
sg16
S'2011'
p750
sg18
g91
sg20
S'--'
p751
sg22
S'10/16'
p752
sg24
S'6.0'
p753
sg26
S'--'
p754
sg28
S'--'
p755
sg30
S'W24-3'
p756
sg32
g91
sg34
g10
sg36
S'STL'
p757
sg38
g91
sg40
g45
sg41
S'--'
p758
ssg112
(dp759
g5
S'--'
p760
sg7
S'--'
p761
sg9
g45
sg11
S'--'
p762
sg13
g10
sg14
S'Randall Cobb'
p763
sg16
S'2011'
p764
sg18
g112
sg20
S'--'
p765
sg22
S'11/06'
p766
sg24
S'--'
p767
sg26
S'--'
p768
sg28
S'--'
p769
sg30
S'W45-38'
p770
sg32
S'--'
p771
sg34
S'--'
p772
sg36
S'@SD'
p773
sg38
S'--'
p774
sg40
S'--'
p775
sg41
S'--'
p776
ssg124
(dp777
g5
g234
sg7
g234
sg9
g234
sg11
g234
sg13
g234
sg14
S'Randall Cobb'
p778
sg16
S'2011'
p779
sg18
g124
sg20
g234
sg22
S'Bye'
p780
sg24
g234
sg26
g234
sg28
g234
sg30
g234
sg32
g234
sg34
g234
sg36
g234
sg38
g234
sg40
g234
sg41
g234
sssS'2013'
p781
(dp782
g127
(dp783
g5
S'--'
p784
sg7
S'--'
p785
sg9
g45
sg11
S'--'
p786
sg13
g10
sg14
S'Randall Cobb'
p787
sg16
S'2013'
p788
sg18
S'17'
p789
sg20
S'--'
p790
sg22
S'12/29'
p791
sg24
S'27.5'
p792
sg26
S'--'
p793
sg28
S'--'
p794
sg30
S'W33-28'
p795
sg32
S'55'
p796
sg34
g35
sg36
S'@CHI'
p797
sg38
S'48T'
p798
sg40
g35
sg41
S'--'
p799
ssg10
(dp800
g5
g45
sg7
g91
sg9
g10
sg11
S'--'
p801
sg13
g10
sg14
S'Randall Cobb'
p802
sg16
S'2013'
p803
sg18
g10
sg20
S'3.0'
p804
sg22
S'09/08'
p805
sg24
S'15.4'
p806
sg26
S'--'
p807
sg28
g35
sg30
S'L28-34'
p808
sg32
S'108'
p809
sg34
g181
sg36
S'@SF'
p810
sg38
S'38'
p811
sg40
g10
sg41
g121
ssg121
(dp812
g5
S'--'
p813
sg7
S'--'
p814
sg9
g10
sg11
S'--'
p815
sg13
g10
sg14
S'Randall Cobb'
p816
sg16
S'2013'
p817
sg18
g121
sg20
S'--'
p818
sg22
S'09/22'
p819
sg24
S'10.8'
p820
sg26
S'--'
p821
sg28
S'--'
p822
sg30
S'L30-34'
p823
sg32
S'54'
p824
sg34
g57
sg36
S'@CIN'
p825
sg38
S'26'
p826
sg40
g45
sg41
S'--'
p827
ssg35
(dp828
g5
S'--'
p829
sg7
S'--'
p830
sg9
g45
sg11
S'--'
p831
sg13
g10
sg14
S'Randall Cobb'
p832
sg16
S'2013'
p833
sg18
g35
sg20
S'--'
p834
sg22
S'09/15'
p835
sg24
S'14.2'
p836
sg26
S'--'
p837
sg28
S'--'
p838
sg30
S'W38-20'
p839
sg32
S'128'
p840
sg34
g112
sg36
S'WAS'
p841
sg38
S'35T'
p842
sg40
g10
sg41
S'--'
p843
ssg57
(dp844
g5
g45
sg7
S'72'
p845
sg9
g10
sg11
S'--'
p846
sg13
g10
sg14
S'Randall Cobb'
p847
sg16
S'2013'
p848
sg18
g57
sg20
S'36.0'
p849
sg22
S'10/06'
p850
sg24
S'8.8'
p851
sg26
S'--'
p852
sg28
g35
sg30
S'W22-9'
p853
sg32
S'35'
p854
sg34
g74
sg36
S'DET'
p855
sg38
S'22'
p856
sg40
g45
sg41
S'67'
p857
ssg74
(dp858
g5
g234
sg7
g234
sg9
g234
sg11
g234
sg13
g234
sg14
S'Randall Cobb'
p859
sg16
S'2013'
p860
sg18
g74
sg20
g234
sg22
S'Bye'
p861
sg24
g234
sg26
g234
sg28
g234
sg30
g234
sg32
g234
sg34
g234
sg36
g234
sg38
g234
sg40
g234
sg41
g234
ssg91
(dp862
g5
S'--'
p863
sg7
S'--'
p864
sg9
g10
sg11
S'--'
p865
sg13
g10
sg14
S'Randall Cobb'
p866
sg16
S'2013'
p867
sg18
g91
sg20
S'--'
p868
sg22
S'10/13'
p869
sg24
S'13.3'
p870
sg26
S'--'
p871
sg28
S'--'
p872
sg30
S'W19-17'
p873
sg32
S'53'
p874
sg34
g74
sg36
S'@BAL'
p875
sg38
S'18'
p876
sg40
g45
sg41
S'--'
p877
sssS'2012'
p878
(dp879
g3
(dp880
g5
g45
sg7
S'19'
p881
sg9
g10
sg11
g45
sg13
g10
sg14
S'Randall Cobb'
p882
sg16
S'2012'
p883
sg18
S'11'
p884
sg20
S'9.5'
p885
sg22
S'11/18'
p886
sg24
S'8.2'
p887
sg26
g10
sg28
g35
sg30
S'W24-20'
p888
sg32
S'74'
p889
sg34
g112
sg36
S'@DET'
p890
sg38
S'22T'
p891
sg40
g10
sg41
S'15'
p892
ssg43
(dp893
g5
g234
sg7
g234
sg9
g234
sg11
g234
sg13
g234
sg14
S'Randall Cobb'
p894
sg16
S'2012'
p895
sg18
S'10'
p896
sg20
g234
sg22
S'Bye'
p897
sg24
g234
sg26
g234
sg28
g234
sg30
g234
sg32
g234
sg34
g234
sg36
g234
sg38
g234
sg40
g234
sg41
g234
ssg61
(dp898
g5
g45
sg7
g57
sg9
g10
sg11
S'--'
p899
sg13
g10
sg14
S'Randall Cobb'
p900
sg16
S'2012'
p901
sg18
S'13'
p902
sg20
S'5.0'
p903
sg22
S'12/02'
p904
sg24
S'10.3'
p905
sg26
S'--'
p906
sg28
g10
sg30
S'W23-14'
p907
sg32
S'62'
p908
sg34
g91
sg36
S'MIN'
p909
sg38
S'33'
p910
sg40
g45
sg41
g57
ssg78
(dp911
g5
g45
sg7
S'12'
p912
sg9
g45
sg11
S'--'
p913
sg13
g10
sg14
S'Randall Cobb'
p914
sg16
S'2012'
p915
sg18
S'12'
p916
sg20
S'12.0'
p917
sg22
S'11/25'
p918
sg24
S'9.8'
p919
sg26
S'--'
p920
sg28
g10
sg30
S'L10-38'
p921
sg32
S'39'
p922
sg34
g74
sg36
S'@NYG'
p923
sg38
S'15'
p924
sg40
g45
sg41
S'12'
p925
ssg95
(dp926
g5
S'--'
p927
sg7
S'--'
p928
sg9
g45
sg11
g10
sg13
g10
sg14
S'Randall Cobb'
p929
sg16
S'2012'
p930
sg18
S'15'
p931
sg20
S'--'
p932
sg22
S'12/16'
p933
sg24
S'19.2'
p934
sg26
g10
sg28
S'--'
p935
sg30
S'W21-13'
p936
sg32
S'115'
p937
sg34
g91
sg36
S'@CHI'
p938
sg38
S'31'
p939
sg40
g45
sg41
S'--'
p940
ssg110
(dp941
g5
S'--'
p942
sg7
S'--'
p943
sg9
g10
sg11
S'--'
p944
sg13
g10
sg14
S'Randall Cobb'
p945
sg16
S'2012'
p946
sg18
S'14'
p947
sg20
S'--'
p948
sg22
S'12/09'
p949
sg24
S'14.6'
p950
sg26
S'--'
p951
sg28
S'--'
p952
sg30
S'W27-20'
p953
sg32
S'102'
p954
sg34
g181
sg36
S'DET'
p955
sg38
S'38'
p956
sg40
g45
sg41
S'--'
p957
ssg127
(dp958
g5
S'--'
p959
sg7
S'--'
p960
sg9
g45
sg11
S'--'
p961
sg13
g45
sg14
S'Randall Cobb'
p962
sg16
S'2012'
p963
sg18
S'17'
p964
sg20
S'--'
p965
sg22
S'12/30'
p966
sg24
S'--'
p967
sg26
S'--'
p968
sg28
S'--'
p969
sg30
S'L34-37'
p970
sg32
S'--'
p971
sg34
S'--'
p972
sg36
S'@MIN'
p973
sg38
S'--'
p974
sg40
S'--'
p975
sg41
S'--'
p976
ssg141
(dp977
g5
S'--'
p978
sg7
S'--'
p979
sg9
g10
sg11
S'--'
p980
sg13
g10
sg14
S'Randall Cobb'
p981
sg16
S'2012'
p982
sg18
S'16'
p983
sg20
S'--'
p984
sg22
S'12/23'
p985
sg24
S'20.7'
p986
sg26
S'--'
p987
sg28
S'--'
p988
sg30
S'W55-7'
p989
sg32
S'62'
p990
sg34
g121
sg36
S'TEN'
p991
sg38
S'31'
p992
sg40
g10
sg41
S'--'
p993
ssg10
(dp994
g5
S'--'
p995
sg7
S'--'
p996
sg9
g45
sg11
g45
sg13
g10
sg14
S'Randall Cobb'
p997
sg16
S'2012'
p998
sg18
g10
sg20
S'--'
p999
sg22
S'09/09'
p1000
sg24
S'8.6'
p1001
sg26
g10
sg28
S'--'
p1002
sg30
S'L22-30'
p1003
sg32
S'77'
p1004
sg34
g112
sg36
S'SF'
p1005
sg38
S'16'
p1006
sg40
g45
sg41
S'--'
p1007
ssg121
(dp1008
g5
g45
sg7
S'20'
p1009
sg9
g45
sg11
g45
sg13
g10
sg14
S'Randall Cobb'
p1010
sg16
S'2012'
p1011
sg18
g121
sg20
S'20.0'
p1012
sg22
S'09/24'
p1013
sg24
S'-1.0'
p1014
sg26
g10
sg28
g10
sg30
S'L12-14'
p1015
sg32
S'-1'
p1016
sg34
g10
sg36
S'@SEA'
p1017
sg38
S'-1'
p1018
sg40
g45
sg41
S'20'
p1019
ssg35
(dp1020
g5
g45
sg7
S'28'
p1021
sg9
g45
sg11
S'--'
p1022
sg13
g10
sg14
S'Randall Cobb'
p1023
sg16
S'2012'
p1024
sg18
g35
sg20
S'28.0'
p1025
sg22
S'09/13'
p1026
sg24
S'20.0'
p1027
sg26
S'--'
p1028
sg28
g10
sg30
S'W23-10'
p1029
sg32
S'20'
p1030
sg34
g10
sg36
S'CHI'
p1031
sg38
S'20'
p1032
sg40
g45
sg41
S'28'
p1033
ssg57
(dp1034
g5
S'--'
p1035
sg7
S'--'
p1036
sg9
g45
sg11
S'--'
p1037
sg13
g10
sg14
S'Randall Cobb'
p1038
sg16
S'2012'
p1039
sg18
g57
sg20
S'--'
p1040
sg22
S'10/07'
p1041
sg24
S'20.5'
p1042
sg26
S'--'
p1043
sg28
S'--'
p1044
sg30
S'L27-30'
p1045
sg32
S'82'
p1046
sg34
g74
sg36
S'@IND'
p1047
sg38
S'31T'
p1048
sg40
g10
sg41
S'--'
p1049
ssg74
(dp1050
g5
S'--'
p1051
sg7
S'--'
p1052
sg9
g45
sg11
S'--'
p1053
sg13
g10
sg14
S'Randall Cobb'
p1054
sg16
S'2012'
p1055
sg18
g74
sg20
S'--'
p1056
sg22
S'09/30'
p1057
sg24
S'9.4'
p1058
sg26
S'--'
p1059
sg28
S'--'
p1060
sg30
S'W28-27'
p1061
sg32
S'66'
p1062
sg34
g181
sg36
S'NO'
p1063
sg38
S'17'
p1064
sg40
g45
sg41
S'--'
p1065
ssg181
(dp1066
g5
g45
sg7
S'19'
p1067
sg9
g10
sg11
S'--'
p1068
sg13
g10
sg14
S'Randall Cobb'
p1069
sg16
S'2012'
p1070
sg18
g181
sg20
S'19.0'
p1071
sg22
S'10/21'
p1072
sg24
S'11.1'
p1073
sg26
S'--'
p1074
sg28
g10
sg30
S'W30-20'
p1075
sg32
S'89'
p1076
sg34
g124
sg36
S'@STL'
p1077
sg38
S'39T'
p1078
sg40
g35
sg41
S'19'
p1079
ssg91
(dp1080
g5
S'--'
p1081
sg7
S'--'
p1082
sg9
g10
sg11
S'--'
p1083
sg13
g10
sg14
S'Randall Cobb'
p1084
sg16
S'2012'
p1085
sg18
g91
sg20
S'--'
p1086
sg22
S'10/14'
p1087
sg24
S'14.6'
p1088
sg26
S'--'
p1089
sg28
S'--'
p1090
sg30
S'W42-24'
p1091
sg32
S'102'
p1092
sg34
g181
sg36
S'@HOU'
p1093
sg38
S'24'
p1094
sg40
g45
sg41
S'--'
p1095
ssg112
(dp1096
g5
g45
sg7
S'29'
p1097
sg9
g10
sg11
S'--'
p1098
sg13
g10
sg14
S'Randall Cobb'
p1099
sg16
S'2012'
p1100
sg18
g112
sg20
S'9.7'
p1101
sg22
S'11/04'
p1102
sg24
S'12.3'
p1103
sg26
S'--'
p1104
sg28
g121
sg30
S'W31-17'
p1105
sg32
S'37'
p1106
sg34
g121
sg36
S'ARI'
p1107
sg38
S'21T'
p1108
sg40
g35
sg41
S'12'
p1109
ssg124
(dp1110
g5
S'--'
p1111
sg7
S'--'
p1112
sg9
g10
sg11
S'--'
p1113
sg13
g10
sg14
S'Randall Cobb'
p1114
sg16
S'2012'
p1115
sg18
g124
sg20
S'--'
p1116
sg22
S'10/28'
p1117
sg24
S'5.6'
p1118
sg26
S'--'
p1119
sg28
S'--'
p1120
sg30
S'W24-15'
p1121
sg32
S'28'
p1122
sg34
g57
sg36
S'JAC'
p1123
sg38
S'14'
p1124
sg40
g10
sg41
S'--'
p1125
sss.