(dp0
S'2015'
p1
(dp2
S'15'
p3
(dp4
S'RushTD'
p5
S'--'
p6
sS'RushYds'
p7
S'--'
p8
sS'GS'
p9
S'0'
p10
sS'Lost'
p11
S'--'
p12
sS'G'
p13
g10
sS'Player'
p14
S'Rannell Hall'
p15
sS'Year'
p16
S'2015'
p17
sS'WK'
p18
S'15'
p19
sS'RushAvg'
p20
S'--'
p21
sS'Game Date'
p22
S'12/20'
p23
sS'RecAvg'
p24
S'--'
p25
sS'FUM'
p26
S'--'
p27
sS'RushAtt'
p28
S'--'
p29
sS'Result'
p30
S'L13-30'
p31
sS'RecYds'
p32
S'--'
p33
sS'Rec'
p34
S'--'
p35
sS'Opp'
p36
S'@SEA'
p37
sS'RecLng'
p38
S'--'
p39
sS'RecTD'
p40
S'--'
p41
sS'RushLng'
p42
S'--'
p43
ssS'17'
p44
(dp45
g5
S'--'
p46
sg7
S'--'
p47
sg9
g10
sg11
S'--'
p48
sg13
S'1'
p49
sg14
S'Rannell Hall'
p50
sg16
S'2015'
p51
sg18
S'17'
p52
sg20
S'--'
p53
sg22
S'01/03'
p54
sg24
S'--'
p55
sg26
S'--'
p56
sg28
S'--'
p57
sg30
S'L12-28'
p58
sg32
S'--'
p59
sg34
S'--'
p60
sg36
S'PIT'
p61
sg38
S'--'
p62
sg40
S'--'
p63
sg42
S'--'
p64
ssS'16'
p65
(dp66
g5
S'--'
p67
sg7
S'--'
p68
sg9
g10
sg11
S'--'
p69
sg13
g10
sg14
S'Rannell Hall'
p70
sg16
S'2015'
p71
sg18
S'16'
p72
sg20
S'--'
p73
sg22
S'12/27'
p74
sg24
S'--'
p75
sg26
S'--'
p76
sg28
S'--'
p77
sg30
S'L13-17'
p78
sg32
S'--'
p79
sg34
S'--'
p80
sg36
S'@KC'
p81
sg38
S'--'
p82
sg40
S'--'
p83
sg42
S'--'
p84
sss.