(dp0
S'2015'
p1
(dp2
S'11'
p3
(dp4
S'RushTD'
p5
S'--'
p6
sS'RushYds'
p7
S'--'
p8
sS'GS'
p9
S'0'
p10
sS'Lost'
p11
S'--'
p12
sS'G'
p13
S'1'
p14
sS'Player'
p15
S'Rashad Greene'
p16
sS'Year'
p17
S'2015'
p18
sS'WK'
p19
S'11'
p20
sS'RushAvg'
p21
S'--'
p22
sS'Game Date'
p23
S'11/19'
p24
sS'RecAvg'
p25
S'2.0'
p26
sS'FUM'
p27
S'--'
p28
sS'RushAtt'
p29
S'--'
p30
sS'Result'
p31
S'W19-13'
p32
sS'RecYds'
p33
S'2'
p34
sS'Rec'
p35
g14
sS'Opp'
p36
S'TEN'
p37
sS'RecLng'
p38
g34
sS'RecTD'
p39
g10
sS'RushLng'
p40
S'--'
p41
ssS'13'
p42
(dp43
g5
S'--'
p44
sg7
S'--'
p45
sg9
g10
sg11
S'--'
p46
sg13
g14
sg15
S'Rashad Greene'
p47
sg17
S'2015'
p48
sg19
S'13'
p49
sg21
S'--'
p50
sg23
S'12/06'
p51
sg25
S'7.5'
p52
sg27
S'--'
p53
sg29
S'--'
p54
sg31
S'L39-42'
p55
sg33
S'15'
p56
sg35
g34
sg36
S'@TEN'
p57
sg38
S'13'
p58
sg39
g14
sg40
S'--'
p59
ssS'12'
p60
(dp61
g5
S'--'
p62
sg7
S'--'
p63
sg9
g10
sg11
S'--'
p64
sg13
g14
sg15
S'Rashad Greene'
p65
sg17
S'2015'
p66
sg19
S'12'
p67
sg21
S'--'
p68
sg23
S'11/29'
p69
sg25
S'5.7'
p70
sg27
S'--'
p71
sg29
S'--'
p72
sg31
S'L25-31'
p73
sg33
S'17'
p74
sg35
S'3'
p75
sg36
S'SD'
p76
sg38
S'8'
p77
sg39
g10
sg40
S'--'
p78
ssS'15'
p79
(dp80
g5
S'--'
p81
sg7
S'--'
p82
sg9
g10
sg11
S'--'
p83
sg13
g14
sg15
S'Rashad Greene'
p84
sg17
S'2015'
p85
sg19
S'15'
p86
sg21
S'--'
p87
sg23
S'12/20'
p88
sg25
S'-1.0'
p89
sg27
S'--'
p90
sg29
S'--'
p91
sg31
S'L17-23'
p92
sg33
S'-1'
p93
sg35
g14
sg36
S'ATL'
p94
sg38
S'-1'
p95
sg39
g10
sg40
S'--'
p96
ssS'14'
p97
(dp98
g5
S'--'
p99
sg7
S'--'
p100
sg9
g10
sg11
S'--'
p101
sg13
g14
sg15
S'Rashad Greene'
p102
sg17
S'2015'
p103
sg19
S'14'
p104
sg21
S'--'
p105
sg23
S'12/13'
p106
sg25
S'18.0'
p107
sg27
S'--'
p108
sg29
S'--'
p109
sg31
S'W51-16'
p110
sg33
S'18'
p111
sg35
g14
sg36
S'IND'
p112
sg38
S'18'
p113
sg39
g10
sg40
S'--'
p114
ssS'17'
p115
(dp116
g5
S'--'
p117
sg7
S'--'
p118
sg9
g10
sg11
S'--'
p119
sg13
g14
sg15
S'Rashad Greene'
p120
sg17
S'2015'
p121
sg19
S'17'
p122
sg21
S'--'
p123
sg23
S'01/03'
p124
sg25
S'5.0'
p125
sg27
S'--'
p126
sg29
S'--'
p127
sg31
S'L6-30'
p128
sg33
S'5'
p129
sg35
g14
sg36
S'@HOU'
p130
sg38
g129
sg39
g10
sg40
S'--'
p131
ssS'16'
p132
(dp133
g5
S'--'
p134
sg7
S'--'
p135
sg9
g10
sg11
g10
sg13
g14
sg15
S'Rashad Greene'
p136
sg17
S'2015'
p137
sg19
S'16'
p138
sg21
S'--'
p139
sg23
S'12/27'
p140
sg25
S'2.0'
p141
sg27
g14
sg29
S'--'
p142
sg31
S'L27-38'
p143
sg33
g34
sg35
g14
sg36
S'@NO'
p144
sg38
g34
sg39
g10
sg40
S'--'
p145
ssg14
(dp146
g5
S'--'
p147
sg7
S'--'
p148
sg9
g10
sg11
S'--'
p149
sg13
g14
sg15
S'Rashad Greene'
p150
sg17
S'2015'
p151
sg19
g14
sg21
S'--'
p152
sg23
S'09/13'
p153
sg25
S'4.0'
p154
sg27
S'--'
p155
sg29
S'--'
p156
sg31
S'L9-20'
p157
sg33
S'28'
p158
sg35
S'7'
p159
sg36
S'CAR'
p160
sg38
S'6'
p161
sg39
g14
sg40
S'--'
p162
ssg34
(dp163
g5
S'--'
p164
sg7
S'--'
p165
sg9
g10
sg11
S'--'
p166
sg13
g14
sg15
S'Rashad Greene'
p167
sg17
S'2015'
p168
sg19
g34
sg21
S'--'
p169
sg23
S'09/20'
p170
sg25
S'3.5'
p171
sg27
S'--'
p172
sg29
S'--'
p173
sg31
S'W23-20'
p174
sg33
g159
sg35
g34
sg36
S'MIA'
p175
sg38
g159
sg39
g10
sg40
S'--'
p176
sss.