(dp0
S'2015'
p1
(dp2
S'13'
p3
(dp4
S'RushTD'
p5
S'--'
p6
sS'RushYds'
p7
S'--'
p8
sS'GS'
p9
S'0'
p10
sS'Lost'
p11
S'--'
p12
sS'G'
p13
g10
sS'Player'
p14
S'Rashad Lawrence'
p15
sS'Year'
p16
S'2015'
p17
sS'WK'
p18
S'13'
p19
sS'RushAvg'
p20
S'--'
p21
sS'Game Date'
p22
S'12/06'
p23
sS'RecAvg'
p24
S'--'
p25
sS'FUM'
p26
S'--'
p27
sS'RushAtt'
p28
S'--'
p29
sS'Result'
p30
S'L39-42'
p31
sS'RecYds'
p32
S'--'
p33
sS'Rec'
p34
S'--'
p35
sS'Opp'
p36
S'@TEN'
p37
sS'RecLng'
p38
S'--'
p39
sS'RecTD'
p40
S'--'
p41
sS'RushLng'
p42
S'--'
p43
ssS'14'
p44
(dp45
g5
S'--'
p46
sg7
S'--'
p47
sg9
g10
sg11
S'--'
p48
sg13
g10
sg14
S'Rashad Lawrence'
p49
sg16
S'2015'
p50
sg18
S'14'
p51
sg20
S'--'
p52
sg22
S'12/13'
p53
sg24
S'--'
p54
sg26
S'--'
p55
sg28
S'--'
p56
sg30
S'W51-16'
p57
sg32
S'--'
p58
sg34
S'--'
p59
sg36
S'IND'
p60
sg38
S'--'
p61
sg40
S'--'
p62
sg42
S'--'
p63
sss.