(dp0
S'2015'
p1
(dp2
S'11'
p3
(dp4
S'RushTD'
p5
S'--'
p6
sS'RushYds'
p7
S'--'
p8
sS'GS'
p9
S'0'
p10
sS'Lost'
p11
S'--'
p12
sS'G'
p13
g10
sS'Player'
p14
S'Rashad Ross'
p15
sS'Year'
p16
S'2015'
p17
sS'WK'
p18
S'11'
p19
sS'RushAvg'
p20
S'--'
p21
sS'Game Date'
p22
S'11/22'
p23
sS'RecAvg'
p24
S'--'
p25
sS'FUM'
p26
S'--'
p27
sS'RushAtt'
p28
S'--'
p29
sS'Result'
p30
S'L16-44'
p31
sS'RecYds'
p32
S'--'
p33
sS'Rec'
p34
S'--'
p35
sS'Opp'
p36
S'@CAR'
p37
sS'RecLng'
p38
S'--'
p39
sS'RecTD'
p40
S'--'
p41
sS'RushLng'
p42
S'--'
p43
ssS'10'
p44
(dp45
g5
S'--'
p46
sg7
S'--'
p47
sg9
g10
sg11
S'--'
p48
sg13
S'1'
p49
sg14
S'Rashad Ross'
p50
sg16
S'2015'
p51
sg18
S'10'
p52
sg20
S'--'
p53
sg22
S'11/15'
p54
sg24
S'--'
p55
sg26
S'--'
p56
sg28
S'--'
p57
sg30
S'W47-14'
p58
sg32
S'--'
p59
sg34
S'--'
p60
sg36
S'NO'
p61
sg38
S'--'
p62
sg40
S'--'
p63
sg42
S'--'
p64
ssS'13'
p65
(dp66
g5
S'--'
p67
sg7
S'--'
p68
sg9
g10
sg11
S'--'
p69
sg13
g49
sg14
S'Rashad Ross'
p70
sg16
S'2015'
p71
sg18
S'13'
p72
sg20
S'--'
p73
sg22
S'12/07'
p74
sg24
S'--'
p75
sg26
S'--'
p76
sg28
S'--'
p77
sg30
S'L16-19'
p78
sg32
S'--'
p79
sg34
S'--'
p80
sg36
S'DAL'
p81
sg38
S'--'
p82
sg40
S'--'
p83
sg42
S'--'
p84
ssS'12'
p85
(dp86
g5
S'--'
p87
sg7
S'--'
p88
sg9
g10
sg11
S'--'
p89
sg13
g49
sg14
S'Rashad Ross'
p90
sg16
S'2015'
p91
sg18
S'12'
p92
sg20
S'--'
p93
sg22
S'11/29'
p94
sg24
S'--'
p95
sg26
S'--'
p96
sg28
S'--'
p97
sg30
S'W20-14'
p98
sg32
S'--'
p99
sg34
S'--'
p100
sg36
S'NYG'
p101
sg38
S'--'
p102
sg40
S'--'
p103
sg42
S'--'
p104
ssS'15'
p105
(dp106
g5
S'--'
p107
sg7
S'--'
p108
sg9
g10
sg11
S'--'
p109
sg13
g49
sg14
S'Rashad Ross'
p110
sg16
S'2015'
p111
sg18
S'15'
p112
sg20
S'--'
p113
sg22
S'12/20'
p114
sg24
S'--'
p115
sg26
S'--'
p116
sg28
S'--'
p117
sg30
S'W35-25'
p118
sg32
S'--'
p119
sg34
S'--'
p120
sg36
S'BUF'
p121
sg38
S'--'
p122
sg40
S'--'
p123
sg42
S'--'
p124
ssS'14'
p125
(dp126
g5
S'--'
p127
sg7
S'--'
p128
sg9
g10
sg11
S'--'
p129
sg13
g49
sg14
S'Rashad Ross'
p130
sg16
S'2015'
p131
sg18
S'14'
p132
sg20
S'--'
p133
sg22
S'12/13'
p134
sg24
S'13.5'
p135
sg26
S'--'
p136
sg28
S'--'
p137
sg30
S'W24-21'
p138
sg32
S'27'
p139
sg34
S'2'
p140
sg36
S'@CHI'
p141
sg38
S'17'
p142
sg40
g10
sg42
S'--'
p143
ssS'17'
p144
(dp145
g5
S'--'
p146
sg7
S'--'
p147
sg9
g10
sg11
S'--'
p148
sg13
g49
sg14
S'Rashad Ross'
p149
sg16
S'2015'
p150
sg18
S'17'
p151
sg20
S'--'
p152
sg22
S'01/03'
p153
sg24
S'35.5'
p154
sg26
S'--'
p155
sg28
S'--'
p156
sg30
S'W34-23'
p157
sg32
S'71'
p158
sg34
g140
sg36
S'@DAL'
p159
sg38
S'71T'
p160
sg40
g49
sg42
S'--'
p161
ssS'16'
p162
(dp163
g5
S'--'
p164
sg7
S'--'
p165
sg9
g10
sg11
S'--'
p166
sg13
g49
sg14
S'Rashad Ross'
p167
sg16
S'2015'
p168
sg18
S'16'
p169
sg20
S'--'
p170
sg22
S'12/26'
p171
sg24
S'--'
p172
sg26
S'--'
p173
sg28
S'--'
p174
sg30
S'W38-24'
p175
sg32
S'--'
p176
sg34
S'--'
p177
sg36
S'@PHI'
p178
sg38
S'--'
p179
sg40
S'--'
p180
sg42
S'--'
p181
ssg49
(dp182
g5
S'--'
p183
sg7
S'--'
p184
sg9
g10
sg11
S'--'
p185
sg13
g10
sg14
S'Rashad Ross'
p186
sg16
S'2015'
p187
sg18
g49
sg20
S'--'
p188
sg22
S'09/13'
p189
sg24
S'--'
p190
sg26
S'--'
p191
sg28
S'--'
p192
sg30
S'L10-17'
p193
sg32
S'--'
p194
sg34
S'--'
p195
sg36
S'MIA'
p196
sg38
S'--'
p197
sg40
S'--'
p198
sg42
S'--'
p199
ssS'3'
p200
(dp201
g5
S'--'
p202
sg7
S'--'
p203
sg9
g10
sg11
S'--'
p204
sg13
g49
sg14
S'Rashad Ross'
p205
sg16
S'2015'
p206
sg18
g200
sg20
S'--'
p207
sg22
S'09/24'
p208
sg24
S'13.5'
p209
sg26
S'--'
p210
sg28
S'--'
p211
sg30
S'L21-32'
p212
sg32
S'27'
p213
sg34
g140
sg36
S'@NYG'
p214
sg38
S'20'
p215
sg40
g10
sg42
S'--'
p216
ssg140
(dp217
g5
S'--'
p218
sg7
S'--'
p219
sg9
g10
sg11
S'--'
p220
sg13
g49
sg14
S'Rashad Ross'
p221
sg16
S'2015'
p222
sg18
g140
sg20
S'--'
p223
sg22
S'09/20'
p224
sg24
S'--'
p225
sg26
S'--'
p226
sg28
S'--'
p227
sg30
S'W24-10'
p228
sg32
S'--'
p229
sg34
S'--'
p230
sg36
S'STL'
p231
sg38
S'--'
p232
sg40
S'--'
p233
sg42
S'--'
p234
ssS'5'
p235
(dp236
g5
S'--'
p237
sg7
S'--'
p238
sg9
g10
sg11
S'--'
p239
sg13
g49
sg14
S'Rashad Ross'
p240
sg16
S'2015'
p241
sg18
g235
sg20
S'--'
p242
sg22
S'10/11'
p243
sg24
S'--'
p244
sg26
S'--'
p245
sg28
S'--'
p246
sg30
S'L19-25'
p247
sg32
S'--'
p248
sg34
S'--'
p249
sg36
S'@ATL'
p250
sg38
S'--'
p251
sg40
S'--'
p252
sg42
S'--'
p253
ssS'4'
p254
(dp255
g5
S'--'
p256
sg7
S'--'
p257
sg9
g10
sg11
S'--'
p258
sg13
g49
sg14
S'Rashad Ross'
p259
sg16
S'2015'
p260
sg18
g254
sg20
S'--'
p261
sg22
S'10/04'
p262
sg24
S'43.0'
p263
sg26
S'--'
p264
sg28
S'--'
p265
sg30
S'W23-20'
p266
sg32
S'43'
p267
sg34
g49
sg36
S'PHI'
p268
sg38
S'43'
p269
sg40
g10
sg42
S'--'
p270
ssS'7'
p271
(dp272
g5
S'--'
p273
sg7
S'--'
p274
sg9
g10
sg11
S'--'
p275
sg13
g49
sg14
S'Rashad Ross'
p276
sg16
S'2015'
p277
sg18
g271
sg20
S'--'
p278
sg22
S'10/25'
p279
sg24
S'--'
p280
sg26
S'--'
p281
sg28
S'--'
p282
sg30
S'W31-30'
p283
sg32
S'--'
p284
sg34
S'--'
p285
sg36
S'TB'
p286
sg38
S'--'
p287
sg40
S'--'
p288
sg42
S'--'
p289
ssS'6'
p290
(dp291
g5
S'--'
p292
sg7
S'--'
p293
sg9
g10
sg11
S'--'
p294
sg13
g49
sg14
S'Rashad Ross'
p295
sg16
S'2015'
p296
sg18
g290
sg20
S'--'
p297
sg22
S'10/18'
p298
sg24
S'16.0'
p299
sg26
S'--'
p300
sg28
S'--'
p301
sg30
S'L20-34'
p302
sg32
S'16'
p303
sg34
g49
sg36
S'@NYJ'
p304
sg38
S'16'
p305
sg40
g10
sg42
S'--'
p306
ssS'9'
p307
(dp308
g5
S'--'
p309
sg7
S'--'
p310
sg9
g10
sg11
S'--'
p311
sg13
g10
sg14
S'Rashad Ross'
p312
sg16
S'2015'
p313
sg18
g307
sg20
S'--'
p314
sg22
S'11/08'
p315
sg24
S'--'
p316
sg26
S'--'
p317
sg28
S'--'
p318
sg30
S'L10-27'
p319
sg32
S'--'
p320
sg34
S'--'
p321
sg36
S'@NE'
p322
sg38
S'--'
p323
sg40
S'--'
p324
sg42
S'--'
p325
ssS'8'
p326
(dp327
g5
S''
p328
sg7
g328
sg9
g328
sg11
g328
sg13
g328
sg14
S'Rashad Ross'
p329
sg16
S'2015'
p330
sg18
g326
sg20
g328
sg22
S'Bye'
p331
sg24
g328
sg26
g328
sg28
g328
sg30
g328
sg32
g328
sg34
g328
sg36
g328
sg38
g328
sg40
g328
sg42
g328
sssS'2014'
p332
(dp333
g200
(dp334
g5
S'--'
p335
sg7
S'--'
p336
sg9
g10
sg11
S'--'
p337
sg13
g49
sg14
S'Rashad Ross'
p338
sg16
S'2014'
p339
sg18
g200
sg20
S'--'
p340
sg22
S'09/22'
p341
sg24
S'--'
p342
sg26
S'--'
p343
sg28
S'--'
p344
sg30
S'W27-19'
p345
sg32
S'--'
p346
sg34
S'--'
p347
sg36
S'@NYJ'
p348
sg38
S'--'
p349
sg40
S'--'
p350
sg42
S'--'
p351
ssg254
(dp352
g5
S'--'
p353
sg7
S'--'
p354
sg9
g10
sg11
S'--'
p355
sg13
g49
sg14
S'Rashad Ross'
p356
sg16
S'2014'
p357
sg18
g254
sg20
S'--'
p358
sg22
S'09/28'
p359
sg24
S'--'
p360
sg26
S'--'
p361
sg28
S'--'
p362
sg30
S'L17-38'
p363
sg32
S'--'
p364
sg34
S'--'
p365
sg36
S'GB'
p366
sg38
S'--'
p367
sg40
S'--'
p368
sg42
S'--'
p369
sss.