(dp0
S'2015'
p1
(dp2
S'1'
p3
(dp4
S'RushTD'
p5
S'--'
p6
sS'RushYds'
p7
S'--'
p8
sS'GS'
p9
S'0'
p10
sS'Lost'
p11
S'--'
p12
sS'G'
p13
g3
sS'Player'
p14
S'Ricardo Lockette'
p15
sS'Year'
p16
S'2015'
p17
sS'WK'
p18
g3
sS'RushAvg'
p19
S'--'
p20
sS'Game Date'
p21
S'09/13'
p22
sS'RecAvg'
p23
S'--'
p24
sS'FUM'
p25
S'--'
p26
sS'RushAtt'
p27
S'--'
p28
sS'Result'
p29
S'L31-34'
p30
sS'RecYds'
p31
S'--'
p32
sS'Rec'
p33
S'--'
p34
sS'Opp'
p35
S'@STL'
p36
sS'RecLng'
p37
S'--'
p38
sS'RecTD'
p39
S'--'
p40
sS'RushLng'
p41
S'--'
p42
ssS'3'
p43
(dp44
g5
S'--'
p45
sg7
S'--'
p46
sg9
g10
sg11
S'--'
p47
sg13
g3
sg14
S'Ricardo Lockette'
p48
sg16
S'2015'
p49
sg18
g43
sg19
S'--'
p50
sg21
S'09/27'
p51
sg23
S'23.0'
p52
sg25
S'--'
p53
sg27
S'--'
p54
sg29
S'W26-0'
p55
sg31
S'23'
p56
sg33
g3
sg35
S'CHI'
p57
sg37
S'23'
p58
sg39
g10
sg41
S'--'
p59
ssS'2'
p60
(dp61
g5
S'--'
p62
sg7
S'--'
p63
sg9
g10
sg11
S'--'
p64
sg13
g3
sg14
S'Ricardo Lockette'
p65
sg16
S'2015'
p66
sg18
g60
sg19
S'--'
p67
sg21
S'09/20'
p68
sg23
S'--'
p69
sg25
S'--'
p70
sg27
S'--'
p71
sg29
S'L17-27'
p72
sg31
S'--'
p73
sg33
S'--'
p74
sg35
S'@GB'
p75
sg37
S'--'
p76
sg39
S'--'
p77
sg41
S'--'
p78
ssS'5'
p79
(dp80
g5
S'--'
p81
sg7
S'--'
p82
sg9
g10
sg11
S'--'
p83
sg13
g3
sg14
S'Ricardo Lockette'
p84
sg16
S'2015'
p85
sg18
g79
sg19
S'--'
p86
sg21
S'10/11'
p87
sg23
S'--'
p88
sg25
S'--'
p89
sg27
S'--'
p90
sg29
S'L24-27'
p91
sg31
S'--'
p92
sg33
S'--'
p93
sg35
S'@CIN'
p94
sg37
S'--'
p95
sg39
S'--'
p96
sg41
S'--'
p97
ssS'4'
p98
(dp99
g5
S'--'
p100
sg7
S'--'
p101
sg9
g10
sg11
S'--'
p102
sg13
g3
sg14
S'Ricardo Lockette'
p103
sg16
S'2015'
p104
sg18
g98
sg19
S'--'
p105
sg21
S'10/05'
p106
sg23
S'--'
p107
sg25
S'--'
p108
sg27
S'--'
p109
sg29
S'W13-10'
p110
sg31
S'--'
p111
sg33
S'--'
p112
sg35
S'DET'
p113
sg37
S'--'
p114
sg39
S'--'
p115
sg41
S'--'
p116
ssS'7'
p117
(dp118
g5
S'--'
p119
sg7
S'--'
p120
sg9
g10
sg11
S'--'
p121
sg13
g3
sg14
S'Ricardo Lockette'
p122
sg16
S'2015'
p123
sg18
g117
sg19
S'--'
p124
sg21
S'10/22'
p125
sg23
S'--'
p126
sg25
S'--'
p127
sg27
S'--'
p128
sg29
S'W20-3'
p129
sg31
g10
sg33
g10
sg35
S'@SF'
p130
sg37
S'--'
p131
sg39
g10
sg41
S'--'
p132
ssS'6'
p133
(dp134
g5
S'--'
p135
sg7
S'--'
p136
sg9
g10
sg11
S'--'
p137
sg13
g3
sg14
S'Ricardo Lockette'
p138
sg16
S'2015'
p139
sg18
g133
sg19
S'--'
p140
sg21
S'10/18'
p141
sg23
S'21.5'
p142
sg25
S'--'
p143
sg27
S'--'
p144
sg29
S'L23-27'
p145
sg31
S'43'
p146
sg33
g60
sg35
S'CAR'
p147
sg37
S'40T'
p148
sg39
g3
sg41
S'--'
p149
ssS'8'
p150
(dp151
g5
S'--'
p152
sg7
S'--'
p153
sg9
g10
sg11
S'--'
p154
sg13
g3
sg14
S'Ricardo Lockette'
p155
sg16
S'2015'
p156
sg18
g150
sg19
S'--'
p157
sg21
S'11/01'
p158
sg23
S'3.0'
p159
sg25
S'--'
p160
sg27
S'--'
p161
sg29
S'W13-12'
p162
sg31
g43
sg33
g3
sg35
S'@DAL'
p163
sg37
g43
sg39
g10
sg41
S'--'
p164
sssS'2014'
p165
(dp166
S'11'
p167
(dp168
g5
S'--'
p169
sg7
S'--'
p170
sg9
g10
sg11
S'--'
p171
sg13
g3
sg14
S'Ricardo Lockette'
p172
sg16
S'2014'
p173
sg18
S'11'
p174
sg19
S'--'
p175
sg21
S'11/16'
p176
sg23
S'--'
p177
sg25
S'--'
p178
sg27
S'--'
p179
sg29
S'L20-24'
p180
sg31
S'--'
p181
sg33
S'--'
p182
sg35
S'@KC'
p183
sg37
S'--'
p184
sg39
S'--'
p185
sg41
S'--'
p186
ssS'10'
p187
(dp188
g5
S'--'
p189
sg7
S'--'
p190
sg9
g10
sg11
S'--'
p191
sg13
g3
sg14
S'Ricardo Lockette'
p192
sg16
S'2014'
p193
sg18
S'10'
p194
sg19
S'--'
p195
sg21
S'11/09'
p196
sg23
S'16.0'
p197
sg25
S'--'
p198
sg27
S'--'
p199
sg29
S'W38-17'
p200
sg31
S'16'
p201
sg33
g3
sg35
S'NYG'
p202
sg37
S'16'
p203
sg39
g10
sg41
S'--'
p204
ssS'13'
p205
(dp206
g5
S'--'
p207
sg7
S'--'
p208
sg9
g10
sg11
S'--'
p209
sg13
g3
sg14
S'Ricardo Lockette'
p210
sg16
S'2014'
p211
sg18
S'13'
p212
sg19
S'--'
p213
sg21
S'11/27'
p214
sg23
S'--'
p215
sg25
S'--'
p216
sg27
S'--'
p217
sg29
S'W19-3'
p218
sg31
S'--'
p219
sg33
S'--'
p220
sg35
S'@SF'
p221
sg37
S'--'
p222
sg39
S'--'
p223
sg41
S'--'
p224
ssS'12'
p225
(dp226
g5
S'--'
p227
sg7
S'--'
p228
sg9
g10
sg11
S'--'
p229
sg13
g3
sg14
S'Ricardo Lockette'
p230
sg16
S'2014'
p231
sg18
S'12'
p232
sg19
S'--'
p233
sg21
S'11/23'
p234
sg23
S'48.0'
p235
sg25
S'--'
p236
sg27
S'--'
p237
sg29
S'W19-3'
p238
sg31
S'48'
p239
sg33
g3
sg35
S'ARI'
p240
sg37
S'48'
p241
sg39
g10
sg41
S'--'
p242
ssS'15'
p243
(dp244
g5
S'--'
p245
sg7
S'--'
p246
sg9
g10
sg11
S'--'
p247
sg13
g3
sg14
S'Ricardo Lockette'
p248
sg16
S'2014'
p249
sg18
S'15'
p250
sg19
S'--'
p251
sg21
S'12/14'
p252
sg23
S'--'
p253
sg25
S'--'
p254
sg27
S'--'
p255
sg29
S'W17-7'
p256
sg31
S'--'
p257
sg33
S'--'
p258
sg35
S'SF'
p259
sg37
S'--'
p260
sg39
S'--'
p261
sg41
S'--'
p262
ssS'14'
p263
(dp264
g5
S'--'
p265
sg7
S'--'
p266
sg9
g10
sg11
S'--'
p267
sg13
g3
sg14
S'Ricardo Lockette'
p268
sg16
S'2014'
p269
sg18
S'14'
p270
sg19
S'--'
p271
sg21
S'12/07'
p272
sg23
S'19.0'
p273
sg25
S'--'
p274
sg27
S'--'
p275
sg29
S'W24-14'
p276
sg31
S'19'
p277
sg33
g3
sg35
S'@PHI'
p278
sg37
S'19'
p279
sg39
g10
sg41
S'--'
p280
ssS'17'
p281
(dp282
g5
S'--'
p283
sg7
S'--'
p284
sg9
g10
sg11
S'--'
p285
sg13
g3
sg14
S'Ricardo Lockette'
p286
sg16
S'2014'
p287
sg18
S'17'
p288
sg19
S'--'
p289
sg21
S'12/28'
p290
sg23
S'--'
p291
sg25
S'--'
p292
sg27
S'--'
p293
sg29
S'W20-6'
p294
sg31
S'--'
p295
sg33
S'--'
p296
sg35
S'STL'
p297
sg37
S'--'
p298
sg39
S'--'
p299
sg41
S'--'
p300
ssS'16'
p301
(dp302
g5
S'--'
p303
sg7
S'--'
p304
sg9
g10
sg11
S'--'
p305
sg13
g3
sg14
S'Ricardo Lockette'
p306
sg16
S'2014'
p307
sg18
S'16'
p308
sg19
S'--'
p309
sg21
S'12/21'
p310
sg23
S'2.5'
p311
sg25
S'--'
p312
sg27
S'--'
p313
sg29
S'W35-6'
p314
sg31
g79
sg33
g60
sg35
S'@ARI'
p315
sg37
g79
sg39
g10
sg41
S'--'
p316
ssg3
(dp317
g5
S'--'
p318
sg7
S'--'
p319
sg9
g10
sg11
S'--'
p320
sg13
g3
sg14
S'Ricardo Lockette'
p321
sg16
S'2014'
p322
sg18
g3
sg19
S'--'
p323
sg21
S'09/04'
p324
sg23
S'19.0'
p325
sg25
S'--'
p326
sg27
S'--'
p327
sg29
S'W36-16'
p328
sg31
S'38'
p329
sg33
g60
sg35
S'GB'
p330
sg37
S'33T'
p331
sg39
g3
sg41
S'--'
p332
ssg43
(dp333
g5
S'--'
p334
sg7
S'--'
p335
sg9
g10
sg11
S'--'
p336
sg13
g3
sg14
S'Ricardo Lockette'
p337
sg16
S'2014'
p338
sg18
g43
sg19
S'--'
p339
sg21
S'09/21'
p340
sg23
S'39.0'
p341
sg25
S'--'
p342
sg27
S'--'
p343
sg29
S'W26-20'
p344
sg31
S'39'
p345
sg33
g3
sg35
S'DEN'
p346
sg37
S'39T'
p347
sg39
g3
sg41
S'--'
p348
ssg60
(dp349
g5
g10
sg7
g60
sg9
g10
sg11
S'--'
p350
sg13
g3
sg14
S'Ricardo Lockette'
p351
sg16
S'2014'
p352
sg18
g60
sg19
S'2.0'
p353
sg21
S'09/14'
p354
sg23
S'--'
p355
sg25
S'--'
p356
sg27
g3
sg29
S'L21-30'
p357
sg31
g10
sg33
g10
sg35
S'@SD'
p358
sg37
S'--'
p359
sg39
g10
sg41
g60
ssg79
(dp360
g5
S'--'
p361
sg7
S'--'
p362
sg9
g10
sg11
S'--'
p363
sg13
g3
sg14
S'Ricardo Lockette'
p364
sg16
S'2014'
p365
sg18
g79
sg19
S'--'
p366
sg21
S'10/06'
p367
sg23
S'--'
p368
sg25
S'--'
p369
sg27
S'--'
p370
sg29
S'W27-17'
p371
sg31
S'--'
p372
sg33
S'--'
p373
sg35
S'@WAS'
p374
sg37
S'--'
p375
sg39
S'--'
p376
sg41
S'--'
p377
ssg98
(dp378
g5
S''
p379
sg7
g379
sg9
g379
sg11
g379
sg13
g379
sg14
S'Ricardo Lockette'
p380
sg16
S'2014'
p381
sg18
g98
sg19
g379
sg21
S'Bye'
p382
sg23
g379
sg25
g379
sg27
g379
sg29
g379
sg31
g379
sg33
g379
sg35
g379
sg37
g379
sg39
g379
sg41
g379
ssg117
(dp383
g5
S'--'
p384
sg7
S'--'
p385
sg9
g10
sg11
S'--'
p386
sg13
g3
sg14
S'Ricardo Lockette'
p387
sg16
S'2014'
p388
sg18
g117
sg19
S'--'
p389
sg21
S'10/19'
p390
sg23
S'--'
p391
sg25
S'--'
p392
sg27
S'--'
p393
sg29
S'L26-28'
p394
sg31
S'--'
p395
sg33
S'--'
p396
sg35
S'@STL'
p397
sg37
S'--'
p398
sg39
S'--'
p399
sg41
S'--'
p400
ssg133
(dp401
g5
S'--'
p402
sg7
S'--'
p403
sg9
g10
sg11
S'--'
p404
sg13
g3
sg14
S'Ricardo Lockette'
p405
sg16
S'2014'
p406
sg18
g133
sg19
S'--'
p407
sg21
S'10/12'
p408
sg23
S'8.0'
p409
sg25
S'--'
p410
sg27
S'--'
p411
sg29
S'L23-30'
p412
sg31
g150
sg33
g3
sg35
S'DAL'
p413
sg37
g150
sg39
g10
sg41
S'--'
p414
ssS'9'
p415
(dp416
g5
S'--'
p417
sg7
S'--'
p418
sg9
g10
sg11
S'--'
p419
sg13
g3
sg14
S'Ricardo Lockette'
p420
sg16
S'2014'
p421
sg18
g415
sg19
S'--'
p422
sg21
S'11/02'
p423
sg23
S'--'
p424
sg25
S'--'
p425
sg27
S'--'
p426
sg29
S'W30-24'
p427
sg31
g10
sg33
g10
sg35
S'OAK'
p428
sg37
S'--'
p429
sg39
g10
sg41
S'--'
p430
ssg150
(dp431
g5
S'--'
p432
sg7
S'--'
p433
sg9
g10
sg11
S'--'
p434
sg13
g3
sg14
S'Ricardo Lockette'
p435
sg16
S'2014'
p436
sg18
g150
sg19
S'--'
p437
sg21
S'10/26'
p438
sg23
S'11.0'
p439
sg25
S'--'
p440
sg27
S'--'
p441
sg29
S'W13-9'
p442
sg31
S'22'
p443
sg33
g60
sg35
S'@CAR'
p444
sg37
S'12'
p445
sg39
g10
sg41
S'--'
p446
sssS'2011'
p447
(dp448
g243
(dp449
g5
S'--'
p450
sg7
S'--'
p451
sg9
g10
sg11
S'--'
p452
sg13
g10
sg14
S'Ricardo Lockette'
p453
sg16
S'2011'
p454
sg18
S'15'
p455
sg19
S'--'
p456
sg21
S'12/18'
p457
sg23
S'--'
p458
sg25
S'--'
p459
sg27
S'--'
p460
sg29
S'W38-14'
p461
sg31
S'--'
p462
sg33
S'--'
p463
sg35
S'@CHI'
p464
sg37
S'--'
p465
sg39
S'--'
p466
sg41
S'--'
p467
ssg281
(dp468
g5
S'--'
p469
sg7
S'--'
p470
sg9
g10
sg11
S'--'
p471
sg13
g3
sg14
S'Ricardo Lockette'
p472
sg16
S'2011'
p473
sg18
S'17'
p474
sg19
S'--'
p475
sg21
S'01/01'
p476
sg23
S'61.0'
p477
sg25
S'--'
p478
sg27
S'--'
p479
sg29
S'L20-23'
p480
sg31
S'61'
p481
sg33
g3
sg35
S'@ARI'
p482
sg37
S'61T'
p483
sg39
g3
sg41
S'--'
p484
ssg301
(dp485
g5
S'--'
p486
sg7
S'--'
p487
sg9
g10
sg11
S'--'
p488
sg13
g3
sg14
S'Ricardo Lockette'
p489
sg16
S'2011'
p490
sg18
S'16'
p491
sg19
S'--'
p492
sg21
S'12/24'
p493
sg23
S'44.0'
p494
sg25
S'--'
p495
sg27
S'--'
p496
sg29
S'L17-19'
p497
sg31
S'44'
p498
sg33
g3
sg35
S'SF'
p499
sg37
S'44'
p500
sg39
g10
sg41
S'--'
p501
sssS'2013'
p502
(dp503
g167
(dp504
g5
S'--'
p505
sg7
S'--'
p506
sg9
g10
sg11
S'--'
p507
sg13
g3
sg14
S'Ricardo Lockette'
p508
sg16
S'2013'
p509
sg18
S'11'
p510
sg19
S'--'
p511
sg21
S'11/17'
p512
sg23
S'27.0'
p513
sg25
S'--'
p514
sg27
S'--'
p515
sg29
S'W41-20'
p516
sg31
S'27'
p517
sg33
g3
sg35
S'MIN'
p518
sg37
S'27'
p519
sg39
g10
sg41
S'--'
p520
ssg187
(dp521
g5
S'--'
p522
sg7
S'--'
p523
sg9
g10
sg11
S'--'
p524
sg13
g3
sg14
S'Ricardo Lockette'
p525
sg16
S'2013'
p526
sg18
S'10'
p527
sg19
S'--'
p528
sg21
S'11/10'
p529
sg23
S'--'
p530
sg25
S'--'
p531
sg27
S'--'
p532
sg29
S'W33-10'
p533
sg31
g10
sg33
g10
sg35
S'@ATL'
p534
sg37
S'--'
p535
sg39
g10
sg41
S'--'
p536
ssg205
(dp537
g5
g10
sg7
S'-2'
p538
sg9
g3
sg11
S'--'
p539
sg13
g3
sg14
S'Ricardo Lockette'
p540
sg16
S'2013'
p541
sg18
S'13'
p542
sg19
S'-2.0'
p543
sg21
S'12/02'
p544
sg23
S'33.0'
p545
sg25
S'--'
p546
sg27
g3
sg29
S'W34-7'
p547
sg31
S'33'
p548
sg33
g3
sg35
S'NO'
p549
sg37
S'33'
p550
sg39
g10
sg41
S'-2'
p551
ssg225
(dp552
g5
g379
sg7
g379
sg9
g379
sg11
g379
sg13
g379
sg14
S'Ricardo Lockette'
p553
sg16
S'2013'
p554
sg18
S'12'
p555
sg19
g379
sg21
S'Bye'
p556
sg23
g379
sg25
g379
sg27
g379
sg29
g379
sg31
g379
sg33
g379
sg35
g379
sg37
g379
sg39
g379
sg41
g379
ssg243
(dp557
g5
S'--'
p558
sg7
S'--'
p559
sg9
g10
sg11
S'--'
p560
sg13
g3
sg14
S'Ricardo Lockette'
p561
sg16
S'2013'
p562
sg18
S'15'
p563
sg19
S'--'
p564
sg21
S'12/15'
p565
sg23
S'--'
p566
sg25
S'--'
p567
sg27
S'--'
p568
sg29
S'W23-0'
p569
sg31
g10
sg33
g10
sg35
S'@NYG'
p570
sg37
S'--'
p571
sg39
g10
sg41
S'--'
p572
ssg263
(dp573
g5
S'--'
p574
sg7
S'--'
p575
sg9
g10
sg11
S'--'
p576
sg13
g3
sg14
S'Ricardo Lockette'
p577
sg16
S'2013'
p578
sg18
S'14'
p579
sg19
S'--'
p580
sg21
S'12/08'
p581
sg23
S'--'
p582
sg25
S'--'
p583
sg27
S'--'
p584
sg29
S'L17-19'
p585
sg31
S'--'
p586
sg33
S'--'
p587
sg35
S'@SF'
p588
sg37
S'--'
p589
sg39
S'--'
p590
sg41
S'--'
p591
ssg281
(dp592
g5
S'--'
p593
sg7
S'--'
p594
sg9
g10
sg11
S'--'
p595
sg13
g3
sg14
S'Ricardo Lockette'
p596
sg16
S'2013'
p597
sg18
S'17'
p598
sg19
S'--'
p599
sg21
S'12/29'
p600
sg23
S'8.0'
p601
sg25
S'--'
p602
sg27
S'--'
p603
sg29
S'W27-9'
p604
sg31
g150
sg33
g3
sg35
S'STL'
p605
sg37
g150
sg39
g10
sg41
S'--'
p606
ssg301
(dp607
g5
S'--'
p608
sg7
S'--'
p609
sg9
g10
sg11
S'--'
p610
sg13
g3
sg14
S'Ricardo Lockette'
p611
sg16
S'2013'
p612
sg18
S'16'
p613
sg19
S'--'
p614
sg21
S'12/22'
p615
sg23
S'9.0'
p616
sg25
S'--'
p617
sg27
S'--'
p618
sg29
S'L10-17'
p619
sg31
g415
sg33
g3
sg35
S'ARI'
p620
sg37
g415
sg39
g10
sg41
S'--'
p621
ssg415
(dp622
g5
S'--'
p623
sg7
S'--'
p624
sg9
g10
sg11
S'--'
p625
sg13
g3
sg14
S'Ricardo Lockette'
p626
sg16
S'2013'
p627
sg18
g415
sg19
S'--'
p628
sg21
S'11/03'
p629
sg23
S'5.0'
p630
sg25
S'--'
p631
sg27
S'--'
p632
sg29
S'W27-24'
p633
sg31
g79
sg33
g3
sg35
S'TB'
p634
sg37
g79
sg39
g10
sg41
S'--'
p635
sss.