(dp0
S'2015'
p1
(dp2
S'11'
p3
(dp4
S'RushTD'
p5
S'--'
p6
sS'RushYds'
p7
S'--'
p8
sS'GS'
p9
S'0'
p10
sS'Lost'
p11
S'--'
p12
sS'G'
p13
S'1'
p14
sS'Player'
p15
S'Rico Richardson'
p16
sS'Year'
p17
S'2015'
p18
sS'WK'
p19
S'11'
p20
sS'RushAvg'
p21
S'--'
p22
sS'Game Date'
p23
S'11/19'
p24
sS'RecAvg'
p25
S'--'
p26
sS'FUM'
p27
S'--'
p28
sS'RushAtt'
p29
S'--'
p30
sS'Result'
p31
S'L13-19'
p32
sS'RecYds'
p33
g10
sS'Rec'
p34
g10
sS'Opp'
p35
S'@JAC'
p36
sS'RecLng'
p37
S'--'
p38
sS'RecTD'
p39
g10
sS'RushLng'
p40
S'--'
p41
ssS'10'
p42
(dp43
g5
S'--'
p44
sg7
S'--'
p45
sg9
g10
sg11
S'--'
p46
sg13
g14
sg15
S'Rico Richardson'
p47
sg17
S'2015'
p48
sg19
S'10'
p49
sg21
S'--'
p50
sg23
S'11/15'
p51
sg25
S'--'
p52
sg27
S'--'
p53
sg29
S'--'
p54
sg31
S'L10-27'
p55
sg33
g10
sg34
g10
sg35
S'CAR'
p56
sg37
S'--'
p57
sg39
g10
sg40
S'--'
p58
ssS'7'
p59
(dp60
g5
S'--'
p61
sg7
S'--'
p62
sg9
g10
sg11
S'--'
p63
sg13
g14
sg15
S'Rico Richardson'
p64
sg17
S'2015'
p65
sg19
g59
sg21
S'--'
p66
sg23
S'10/25'
p67
sg25
S'--'
p68
sg27
S'--'
p69
sg29
S'--'
p70
sg31
S'L7-10'
p71
sg33
S'--'
p72
sg34
S'--'
p73
sg35
S'ATL'
p74
sg37
S'--'
p75
sg39
S'--'
p76
sg40
S'--'
p77
ssS'9'
p78
(dp79
g5
S'--'
p80
sg7
S'--'
p81
sg9
g10
sg11
S'--'
p82
sg13
g14
sg15
S'Rico Richardson'
p83
sg17
S'2015'
p84
sg19
g78
sg21
S'--'
p85
sg23
S'11/08'
p86
sg25
S'--'
p87
sg27
S'--'
p88
sg29
S'--'
p89
sg31
S'W34-28'
p90
sg33
S'--'
p91
sg34
S'--'
p92
sg35
S'@NO'
p93
sg37
S'--'
p94
sg39
S'--'
p95
sg40
S'--'
p96
ssS'8'
p97
(dp98
g5
S'--'
p99
sg7
S'--'
p100
sg9
g10
sg11
S'--'
p101
sg13
g14
sg15
S'Rico Richardson'
p102
sg17
S'2015'
p103
sg19
g97
sg21
S'--'
p104
sg23
S'11/01'
p105
sg25
S'--'
p106
sg27
S'--'
p107
sg29
S'--'
p108
sg31
S'L6-20'
p109
sg33
g10
sg34
g10
sg35
S'@HOU'
p110
sg37
S'--'
p111
sg39
g10
sg40
S'--'
p112
sssS'2014'
p113
(dp114
S'17'
p115
(dp116
g5
S'--'
p117
sg7
S'--'
p118
sg9
g10
sg11
S'--'
p119
sg13
g10
sg15
S'Rico Richardson'
p120
sg17
S'2014'
p121
sg19
S'17'
p122
sg21
S'--'
p123
sg23
S'12/28'
p124
sg25
S'--'
p125
sg27
S'--'
p126
sg29
S'--'
p127
sg31
S'L10-27'
p128
sg33
S'--'
p129
sg34
S'--'
p130
sg35
S'IND'
p131
sg37
S'--'
p132
sg39
S'--'
p133
sg40
S'--'
p134
ssS'16'
p135
(dp136
g5
S'--'
p137
sg7
S'--'
p138
sg9
g10
sg11
S'--'
p139
sg13
g14
sg15
S'Rico Richardson'
p140
sg17
S'2014'
p141
sg19
S'16'
p142
sg21
S'--'
p143
sg23
S'12/18'
p144
sg25
S'--'
p145
sg27
S'--'
p146
sg29
S'--'
p147
sg31
S'L13-21'
p148
sg33
S'--'
p149
sg34
S'--'
p150
sg35
S'@JAC'
p151
sg37
S'--'
p152
sg39
S'--'
p153
sg40
S'--'
p154
sss.