(dp0
S'2015'
p1
(dp2
S'11'
p3
(dp4
S'RushTD'
p5
S'--'
p6
sS'RushYds'
p7
S'--'
p8
sS'GS'
p9
S'1'
p10
sS'Lost'
p11
S'--'
p12
sS'G'
p13
g10
sS'Player'
p14
S'Rishard Matthews'
p15
sS'Year'
p16
S'2015'
p17
sS'WK'
p18
S'11'
p19
sS'RushAvg'
p20
S'--'
p21
sS'Game Date'
p22
S'11/22'
p23
sS'RecAvg'
p24
S'15.0'
p25
sS'FUM'
p26
S'--'
p27
sS'RushAtt'
p28
S'--'
p29
sS'Result'
p30
S'L14-24'
p31
sS'RecYds'
p32
S'15'
p33
sS'Rec'
p34
g10
sS'Opp'
p35
S'DAL'
p36
sS'RecLng'
p37
S'15'
p38
sS'RecTD'
p39
S'0'
p40
sS'RushLng'
p41
S'--'
p42
ssS'10'
p43
(dp44
g5
g40
sg7
S'4'
p45
sg9
g10
sg11
S'--'
p46
sg13
g10
sg14
S'Rishard Matthews'
p47
sg16
S'2015'
p48
sg18
S'10'
p49
sg20
S'4.0'
p50
sg22
S'11/15'
p51
sg24
S'18.6'
p52
sg26
S'--'
p53
sg28
g10
sg30
S'W20-19'
p54
sg32
S'93'
p55
sg34
S'5'
p56
sg35
S'@PHI'
p57
sg37
S'43'
p58
sg39
g40
sg41
g45
ssS'13'
p59
(dp60
g5
S'--'
p61
sg7
S'--'
p62
sg9
g40
sg11
S'--'
p63
sg13
g40
sg14
S'Rishard Matthews'
p64
sg16
S'2015'
p65
sg18
S'13'
p66
sg20
S'--'
p67
sg22
S'12/06'
p68
sg24
S'--'
p69
sg26
S'--'
p70
sg28
S'--'
p71
sg30
S'W15-13'
p72
sg32
S'--'
p73
sg34
S'--'
p74
sg35
S'BAL'
p75
sg37
S'--'
p76
sg39
S'--'
p77
sg41
S'--'
p78
ssS'12'
p79
(dp80
g5
S'--'
p81
sg7
S'--'
p82
sg9
g10
sg11
S'--'
p83
sg13
g10
sg14
S'Rishard Matthews'
p84
sg16
S'2015'
p85
sg18
S'12'
p86
sg20
S'--'
p87
sg22
S'11/29'
p88
sg24
S'--'
p89
sg26
S'--'
p90
sg28
S'--'
p91
sg30
S'L20-38'
p92
sg32
g40
sg34
g40
sg35
S'@NYJ'
p93
sg37
S'--'
p94
sg39
g40
sg41
S'--'
p95
ssS'15'
p96
(dp97
g5
S'--'
p98
sg7
S'--'
p99
sg9
g40
sg11
S'--'
p100
sg13
g40
sg14
S'Rishard Matthews'
p101
sg16
S'2015'
p102
sg18
S'15'
p103
sg20
S'--'
p104
sg22
S'12/20'
p105
sg24
S'--'
p106
sg26
S'--'
p107
sg28
S'--'
p108
sg30
S'L14-30'
p109
sg32
S'--'
p110
sg34
S'--'
p111
sg35
S'@SD'
p112
sg37
S'--'
p113
sg39
S'--'
p114
sg41
S'--'
p115
ssS'14'
p116
(dp117
g5
S'--'
p118
sg7
S'--'
p119
sg9
g40
sg11
S'--'
p120
sg13
g40
sg14
S'Rishard Matthews'
p121
sg16
S'2015'
p122
sg18
S'14'
p123
sg20
S'--'
p124
sg22
S'12/14'
p125
sg24
S'--'
p126
sg26
S'--'
p127
sg28
S'--'
p128
sg30
S'L24-31'
p129
sg32
S'--'
p130
sg34
S'--'
p131
sg35
S'NYG'
p132
sg37
S'--'
p133
sg39
S'--'
p134
sg41
S'--'
p135
ssS'16'
p136
(dp137
g5
S'--'
p138
sg7
S'--'
p139
sg9
g40
sg11
S'--'
p140
sg13
g40
sg14
S'Rishard Matthews'
p141
sg16
S'2015'
p142
sg18
S'16'
p143
sg20
S'--'
p144
sg22
S'12/27'
p145
sg24
S'--'
p146
sg26
S'--'
p147
sg28
S'--'
p148
sg30
S'L12-18'
p149
sg32
S'--'
p150
sg34
S'--'
p151
sg35
S'IND'
p152
sg37
S'--'
p153
sg39
S'--'
p154
sg41
S'--'
p155
ssg10
(dp156
g5
S'--'
p157
sg7
S'--'
p158
sg9
g10
sg11
S'--'
p159
sg13
g10
sg14
S'Rishard Matthews'
p160
sg16
S'2015'
p161
sg18
g10
sg20
S'--'
p162
sg22
S'09/13'
p163
sg24
S'8.5'
p164
sg26
S'--'
p165
sg28
S'--'
p166
sg30
S'W17-10'
p167
sg32
S'34'
p168
sg34
g45
sg35
S'@WAS'
p169
sg37
S'15'
p170
sg39
g10
sg41
S'--'
p171
ssS'3'
p172
(dp173
g5
S'--'
p174
sg7
S'--'
p175
sg9
g10
sg11
S'--'
p176
sg13
g10
sg14
S'Rishard Matthews'
p177
sg16
S'2015'
p178
sg18
g172
sg20
S'--'
p179
sg22
S'09/27'
p180
sg24
S'18.8'
p181
sg26
S'--'
p182
sg28
S'--'
p183
sg30
S'L14-41'
p184
sg32
S'113'
p185
sg34
S'6'
p186
sg35
S'BUF'
p187
sg37
S'46T'
p188
sg39
S'2'
p189
sg41
S'--'
p190
ssg189
(dp191
g5
S'--'
p192
sg7
S'--'
p193
sg9
g10
sg11
S'--'
p194
sg13
g10
sg14
S'Rishard Matthews'
p195
sg16
S'2015'
p196
sg18
g189
sg20
S'--'
p197
sg22
S'09/20'
p198
sg24
S'19.2'
p199
sg26
S'--'
p200
sg28
S'--'
p201
sg30
S'L20-23'
p202
sg32
S'115'
p203
sg34
g186
sg35
S'@JAC'
p204
sg37
S'48'
p205
sg39
g40
sg41
S'--'
p206
ssg56
(dp207
g5
S''
p208
sg7
g208
sg9
g208
sg11
g208
sg13
g208
sg14
S'Rishard Matthews'
p209
sg16
S'2015'
p210
sg18
g56
sg20
g208
sg22
S'Bye'
p211
sg24
g208
sg26
g208
sg28
g208
sg30
g208
sg32
g208
sg34
g208
sg35
g208
sg37
g208
sg39
g208
sg41
g208
ssg45
(dp212
g5
S'--'
p213
sg7
S'--'
p214
sg9
g10
sg11
S'--'
p215
sg13
g10
sg14
S'Rishard Matthews'
p216
sg16
S'2015'
p217
sg18
g45
sg20
S'--'
p218
sg22
S'10/04'
p219
sg24
S'16.0'
p220
sg26
S'--'
p221
sg28
S'--'
p222
sg30
S'L14-27'
p223
sg32
S'16'
p224
sg34
g10
sg35
S'NYJ'
p225
sg37
S'16'
p226
sg39
g40
sg41
S'--'
p227
ssS'7'
p228
(dp229
g5
S'--'
p230
sg7
S'--'
p231
sg9
g10
sg11
S'--'
p232
sg13
g10
sg14
S'Rishard Matthews'
p233
sg16
S'2015'
p234
sg18
g228
sg20
S'--'
p235
sg22
S'10/25'
p236
sg24
S'25.0'
p237
sg26
S'--'
p238
sg28
S'--'
p239
sg30
S'W44-26'
p240
sg32
S'75'
p241
sg34
g172
sg35
S'HOU'
p242
sg37
S'53T'
p243
sg39
g10
sg41
S'--'
p244
ssg186
(dp245
g5
S'--'
p246
sg7
S'--'
p247
sg9
g10
sg11
S'--'
p248
sg13
g10
sg14
S'Rishard Matthews'
p249
sg16
S'2015'
p250
sg18
g186
sg20
S'--'
p251
sg22
S'10/18'
p252
sg24
S'14.2'
p253
sg26
S'--'
p254
sg28
S'--'
p255
sg30
S'W38-10'
p256
sg32
S'85'
p257
sg34
g186
sg35
S'@TEN'
p258
sg37
S'24'
p259
sg39
g40
sg41
S'--'
p260
ssS'9'
p261
(dp262
g5
S'--'
p263
sg7
S'--'
p264
sg9
g10
sg11
S'--'
p265
sg13
g10
sg14
S'Rishard Matthews'
p266
sg16
S'2015'
p267
sg18
g261
sg20
S'--'
p268
sg22
S'11/08'
p269
sg24
S'13.5'
p270
sg26
S'--'
p271
sg28
S'--'
p272
sg30
S'L17-33'
p273
sg32
S'54'
p274
sg34
g45
sg35
S'@BUF'
p275
sg37
S'21'
p276
sg39
g40
sg41
S'--'
p277
ssS'8'
p278
(dp279
g5
S'--'
p280
sg7
S'--'
p281
sg9
g10
sg11
S'--'
p282
sg13
g10
sg14
S'Rishard Matthews'
p283
sg16
S'2015'
p284
sg18
g278
sg20
S'--'
p285
sg22
S'10/29'
p286
sg24
S'8.9'
p287
sg26
S'--'
p288
sg28
S'--'
p289
sg30
S'L7-36'
p290
sg32
S'62'
p291
sg34
g228
sg35
S'@NE'
p292
sg37
S'17'
p293
sg39
g40
sg41
S'--'
p294
sssS'2014'
p295
(dp296
g3
(dp297
g5
S'--'
p298
sg7
S'--'
p299
sg9
g40
sg11
S'--'
p300
sg13
g10
sg14
S'Rishard Matthews'
p301
sg16
S'2014'
p302
sg18
S'11'
p303
sg20
S'--'
p304
sg22
S'11/13'
p305
sg24
S'--'
p306
sg26
S'--'
p307
sg28
S'--'
p308
sg30
S'W22-9'
p309
sg32
S'--'
p310
sg34
S'--'
p311
sg35
S'BUF'
p312
sg37
S'--'
p313
sg39
S'--'
p314
sg41
S'--'
p315
ssg43
(dp316
g5
S'--'
p317
sg7
S'--'
p318
sg9
g40
sg11
S'--'
p319
sg13
g10
sg14
S'Rishard Matthews'
p320
sg16
S'2014'
p321
sg18
S'10'
p322
sg20
S'--'
p323
sg22
S'11/09'
p324
sg24
S'14.0'
p325
sg26
S'--'
p326
sg28
S'--'
p327
sg30
S'L16-20'
p328
sg32
S'14'
p329
sg34
g10
sg35
S'@DET'
p330
sg37
S'14'
p331
sg39
g40
sg41
S'--'
p332
ssg59
(dp333
g5
S'--'
p334
sg7
S'--'
p335
sg9
g40
sg11
S'--'
p336
sg13
g10
sg14
S'Rishard Matthews'
p337
sg16
S'2014'
p338
sg18
S'13'
p339
sg20
S'--'
p340
sg22
S'12/01'
p341
sg24
S'--'
p342
sg26
S'--'
p343
sg28
S'--'
p344
sg30
S'W16-13'
p345
sg32
S'--'
p346
sg34
S'--'
p347
sg35
S'@NYJ'
p348
sg37
S'--'
p349
sg39
S'--'
p350
sg41
S'--'
p351
ssg79
(dp352
g5
S'--'
p353
sg7
S'--'
p354
sg9
g40
sg11
g40
sg13
g10
sg14
S'Rishard Matthews'
p355
sg16
S'2014'
p356
sg18
S'12'
p357
sg20
S'--'
p358
sg22
S'11/23'
p359
sg24
S'12.0'
p360
sg26
g10
sg28
S'--'
p361
sg30
S'L36-39'
p362
sg32
S'24'
p363
sg34
g189
sg35
S'@DEN'
p364
sg37
S'18'
p365
sg39
g40
sg41
S'--'
p366
ssg96
(dp367
g5
g40
sg7
g172
sg9
g40
sg11
S'--'
p368
sg13
g10
sg14
S'Rishard Matthews'
p369
sg16
S'2014'
p370
sg18
S'15'
p371
sg20
S'3.0'
p372
sg22
S'12/14'
p373
sg24
S'8.0'
p374
sg26
S'--'
p375
sg28
g10
sg30
S'L13-41'
p376
sg32
S'16'
p377
sg34
g189
sg35
S'@NE'
p378
sg37
S'11'
p379
sg39
g40
sg41
g172
ssg116
(dp380
g5
S'--'
p381
sg7
S'--'
p382
sg9
g40
sg11
S'--'
p383
sg13
g10
sg14
S'Rishard Matthews'
p384
sg16
S'2014'
p385
sg18
S'14'
p386
sg20
S'--'
p387
sg22
S'12/07'
p388
sg24
S'13.0'
p389
sg26
S'--'
p390
sg28
S'--'
p391
sg30
S'L13-28'
p392
sg32
S'13'
p393
sg34
g10
sg35
S'BAL'
p394
sg37
S'13'
p395
sg39
g40
sg41
S'--'
p396
ssS'17'
p397
(dp398
g5
S'--'
p399
sg7
S'--'
p400
sg9
g40
sg11
S'--'
p401
sg13
g40
sg14
S'Rishard Matthews'
p402
sg16
S'2014'
p403
sg18
S'17'
p404
sg20
S'--'
p405
sg22
S'12/28'
p406
sg24
S'--'
p407
sg26
S'--'
p408
sg28
S'--'
p409
sg30
S'L24-37'
p410
sg32
S'--'
p411
sg34
S'--'
p412
sg35
S'NYJ'
p413
sg37
S'--'
p414
sg39
S'--'
p415
sg41
S'--'
p416
ssg136
(dp417
g5
S'--'
p418
sg7
S'--'
p419
sg9
g40
sg11
S'--'
p420
sg13
g40
sg14
S'Rishard Matthews'
p421
sg16
S'2014'
p422
sg18
S'16'
p423
sg20
S'--'
p424
sg22
S'12/21'
p425
sg24
S'--'
p426
sg26
S'--'
p427
sg28
S'--'
p428
sg30
S'W37-35'
p429
sg32
S'--'
p430
sg34
S'--'
p431
sg35
S'MIN'
p432
sg37
S'--'
p433
sg39
S'--'
p434
sg41
S'--'
p435
ssg10
(dp436
g5
S'--'
p437
sg7
S'--'
p438
sg9
g40
sg11
S'--'
p439
sg13
g10
sg14
S'Rishard Matthews'
p440
sg16
S'2014'
p441
sg18
g10
sg20
S'--'
p442
sg22
S'09/07'
p443
sg24
S'--'
p444
sg26
S'--'
p445
sg28
S'--'
p446
sg30
S'W33-20'
p447
sg32
S'--'
p448
sg34
S'--'
p449
sg35
S'NE'
p450
sg37
S'--'
p451
sg39
S'--'
p452
sg41
S'--'
p453
ssg172
(dp454
g5
S'--'
p455
sg7
S'--'
p456
sg9
g40
sg11
S'--'
p457
sg13
g10
sg14
S'Rishard Matthews'
p458
sg16
S'2014'
p459
sg18
g172
sg20
S'--'
p460
sg22
S'09/21'
p461
sg24
S'13.0'
p462
sg26
S'--'
p463
sg28
S'--'
p464
sg30
S'L15-34'
p465
sg32
S'13'
p466
sg34
g10
sg35
S'KC'
p467
sg37
S'13'
p468
sg39
g40
sg41
S'--'
p469
ssg189
(dp470
g5
S'--'
p471
sg7
S'--'
p472
sg9
g40
sg11
S'--'
p473
sg13
g10
sg14
S'Rishard Matthews'
p474
sg16
S'2014'
p475
sg18
g189
sg20
S'--'
p476
sg22
S'09/14'
p477
sg24
S'4.0'
p478
sg26
S'--'
p479
sg28
S'--'
p480
sg30
S'L10-29'
p481
sg32
g45
sg34
g10
sg35
S'@BUF'
p482
sg37
g45
sg39
g40
sg41
S'--'
p483
ssg56
(dp484
g5
g208
sg7
g208
sg9
g208
sg11
g208
sg13
g208
sg14
S'Rishard Matthews'
p485
sg16
S'2014'
p486
sg18
g56
sg20
g208
sg22
S'Bye'
p487
sg24
g208
sg26
g208
sg28
g208
sg30
g208
sg32
g208
sg34
g208
sg35
g208
sg37
g208
sg39
g208
sg41
g208
ssg45
(dp488
g5
S'--'
p489
sg7
S'--'
p490
sg9
g40
sg11
S'--'
p491
sg13
g10
sg14
S'Rishard Matthews'
p492
sg16
S'2014'
p493
sg18
g45
sg20
S'--'
p494
sg22
S'09/28'
p495
sg24
S'13.5'
p496
sg26
S'--'
p497
sg28
S'--'
p498
sg30
S'W38-14'
p499
sg32
S'27'
p500
sg34
g189
sg35
S'@OAK'
p501
sg37
S'23'
p502
sg39
g40
sg41
S'--'
p503
ssg228
(dp504
g5
S'--'
p505
sg7
S'--'
p506
sg9
g40
sg11
S'--'
p507
sg13
g10
sg14
S'Rishard Matthews'
p508
sg16
S'2014'
p509
sg18
g228
sg20
S'--'
p510
sg22
S'10/19'
p511
sg24
S'--'
p512
sg26
S'--'
p513
sg28
S'--'
p514
sg30
S'W27-14'
p515
sg32
S'--'
p516
sg34
S'--'
p517
sg35
S'@CHI'
p518
sg37
S'--'
p519
sg39
S'--'
p520
sg41
S'--'
p521
ssg186
(dp522
g5
S'--'
p523
sg7
S'--'
p524
sg9
g40
sg11
S'--'
p525
sg13
g10
sg14
S'Rishard Matthews'
p526
sg16
S'2014'
p527
sg18
g186
sg20
S'--'
p528
sg22
S'10/12'
p529
sg24
S'--'
p530
sg26
S'--'
p531
sg28
S'--'
p532
sg30
S'L24-27'
p533
sg32
S'--'
p534
sg34
S'--'
p535
sg35
S'GB'
p536
sg37
S'--'
p537
sg39
S'--'
p538
sg41
S'--'
p539
ssg261
(dp540
g5
S'--'
p541
sg7
S'--'
p542
sg9
g40
sg11
S'--'
p543
sg13
g10
sg14
S'Rishard Matthews'
p544
sg16
S'2014'
p545
sg18
g261
sg20
S'--'
p546
sg22
S'11/02'
p547
sg24
S'21.0'
p548
sg26
S'--'
p549
sg28
S'--'
p550
sg30
S'W37-0'
p551
sg32
S'21'
p552
sg34
g10
sg35
S'SD'
p553
sg37
S'21T'
p554
sg39
g10
sg41
S'--'
p555
ssg278
(dp556
g5
S'--'
p557
sg7
S'--'
p558
sg9
g40
sg11
S'--'
p559
sg13
g10
sg14
S'Rishard Matthews'
p560
sg16
S'2014'
p561
sg18
g278
sg20
S'--'
p562
sg22
S'10/26'
p563
sg24
S'3.0'
p564
sg26
S'--'
p565
sg28
S'--'
p566
sg30
S'W27-13'
p567
sg32
g172
sg34
g10
sg35
S'@JAC'
p568
sg37
S'3T'
p569
sg39
g10
sg41
S'--'
p570
sssS'2013'
p571
(dp572
g3
(dp573
g5
S'--'
p574
sg7
S'--'
p575
sg9
g40
sg11
S'--'
p576
sg13
g10
sg14
S'Rishard Matthews'
p577
sg16
S'2013'
p578
sg18
S'11'
p579
sg20
S'--'
p580
sg22
S'11/17'
p581
sg24
S'13.0'
p582
sg26
S'--'
p583
sg28
S'--'
p584
sg30
S'W20-16'
p585
sg32
S'52'
p586
sg34
g45
sg35
S'SD'
p587
sg37
S'29'
p588
sg39
g40
sg41
S'--'
p589
ssg43
(dp590
g5
S'--'
p591
sg7
S'--'
p592
sg9
g10
sg11
S'--'
p593
sg13
g10
sg14
S'Rishard Matthews'
p594
sg16
S'2013'
p595
sg18
S'10'
p596
sg20
S'--'
p597
sg22
S'11/11'
p598
sg24
S'10.9'
p599
sg26
S'--'
p600
sg28
S'--'
p601
sg30
S'L19-22'
p602
sg32
S'120'
p603
sg34
S'11'
p604
sg35
S'@TB'
p605
sg37
S'19T'
p606
sg39
g189
sg41
S'--'
p607
ssg59
(dp608
g5
S'--'
p609
sg7
S'--'
p610
sg9
g10
sg11
S'--'
p611
sg13
g10
sg14
S'Rishard Matthews'
p612
sg16
S'2013'
p613
sg18
S'13'
p614
sg20
S'--'
p615
sg22
S'12/01'
p616
sg24
S'10.5'
p617
sg26
S'--'
p618
sg28
S'--'
p619
sg30
S'W23-3'
p620
sg32
S'21'
p621
sg34
g189
sg35
S'@NYJ'
p622
sg37
S'13'
p623
sg39
g40
sg41
S'--'
p624
ssg79
(dp625
g5
S'--'
p626
sg7
S'--'
p627
sg9
g10
sg11
S'--'
p628
sg13
g10
sg14
S'Rishard Matthews'
p629
sg16
S'2013'
p630
sg18
S'12'
p631
sg20
S'--'
p632
sg22
S'11/24'
p633
sg24
S'0.7'
p634
sg26
S'--'
p635
sg28
S'--'
p636
sg30
S'L16-20'
p637
sg32
g189
sg34
g172
sg35
S'CAR'
p638
sg37
g45
sg39
g40
sg41
S'--'
p639
ssg96
(dp640
g5
S'--'
p641
sg7
S'--'
p642
sg9
g10
sg11
S'--'
p643
sg13
g10
sg14
S'Rishard Matthews'
p644
sg16
S'2013'
p645
sg18
S'15'
p646
sg20
S'--'
p647
sg22
S'12/15'
p648
sg24
S'12.8'
p649
sg26
S'--'
p650
sg28
S'--'
p651
sg30
S'W24-20'
p652
sg32
S'64'
p653
sg34
g56
sg35
S'NE'
p654
sg37
S'24'
p655
sg39
g40
sg41
S'--'
p656
ssg116
(dp657
g5
S'--'
p658
sg7
S'--'
p659
sg9
g40
sg11
S'--'
p660
sg13
g10
sg14
S'Rishard Matthews'
p661
sg16
S'2013'
p662
sg18
S'14'
p663
sg20
S'--'
p664
sg22
S'12/08'
p665
sg24
S'5.0'
p666
sg26
S'--'
p667
sg28
S'--'
p668
sg30
S'W34-28'
p669
sg32
g56
sg34
g10
sg35
S'@PIT'
p670
sg37
g56
sg39
g40
sg41
S'--'
p671
ssg397
(dp672
g5
S'--'
p673
sg7
S'--'
p674
sg9
g40
sg11
S'--'
p675
sg13
g10
sg14
S'Rishard Matthews'
p676
sg16
S'2013'
p677
sg18
S'17'
p678
sg20
S'--'
p679
sg22
S'12/29'
p680
sg24
S'14.5'
p681
sg26
S'--'
p682
sg28
S'--'
p683
sg30
S'L7-20'
p684
sg32
S'58'
p685
sg34
g45
sg35
S'NYJ'
p686
sg37
S'21'
p687
sg39
g40
sg41
S'--'
p688
ssg136
(dp689
g5
S'--'
p690
sg7
S'--'
p691
sg9
g10
sg11
S'--'
p692
sg13
g10
sg14
S'Rishard Matthews'
p693
sg16
S'2013'
p694
sg18
S'16'
p695
sg20
S'--'
p696
sg22
S'12/22'
p697
sg24
S'9.0'
p698
sg26
S'--'
p699
sg28
S'--'
p700
sg30
S'L0-19'
p701
sg32
g261
sg34
g10
sg35
S'@BUF'
p702
sg37
g261
sg39
g40
sg41
S'--'
p703
ssg10
(dp704
g5
S'--'
p705
sg7
S'--'
p706
sg9
g40
sg11
S'--'
p707
sg13
g10
sg14
S'Rishard Matthews'
p708
sg16
S'2013'
p709
sg18
g10
sg20
S'--'
p710
sg22
S'09/08'
p711
sg24
S'--'
p712
sg26
S'--'
p713
sg28
S'--'
p714
sg30
S'W23-10'
p715
sg32
S'--'
p716
sg34
S'--'
p717
sg35
S'@CLE'
p718
sg37
S'--'
p719
sg39
S'--'
p720
sg41
S'--'
p721
ssg172
(dp722
g5
S'--'
p723
sg7
S'--'
p724
sg9
g40
sg11
S'--'
p725
sg13
g10
sg14
S'Rishard Matthews'
p726
sg16
S'2013'
p727
sg18
g172
sg20
S'--'
p728
sg22
S'09/22'
p729
sg24
S'10.5'
p730
sg26
S'--'
p731
sg28
S'--'
p732
sg30
S'W27-23'
p733
sg32
S'42'
p734
sg34
g45
sg35
S'ATL'
p735
sg37
S'14'
p736
sg39
g40
sg41
S'--'
p737
ssg189
(dp738
g5
S'--'
p739
sg7
S'--'
p740
sg9
g40
sg11
S'--'
p741
sg13
g10
sg14
S'Rishard Matthews'
p742
sg16
S'2013'
p743
sg18
g189
sg20
S'--'
p744
sg22
S'09/15'
p745
sg24
S'--'
p746
sg26
S'--'
p747
sg28
S'--'
p748
sg30
S'W24-20'
p749
sg32
S'--'
p750
sg34
S'--'
p751
sg35
S'@IND'
p752
sg37
S'--'
p753
sg39
S'--'
p754
sg41
S'--'
p755
ssg56
(dp756
g5
S'--'
p757
sg7
S'--'
p758
sg9
g40
sg11
S'--'
p759
sg13
g10
sg14
S'Rishard Matthews'
p760
sg16
S'2013'
p761
sg18
g56
sg20
S'--'
p762
sg22
S'10/06'
p763
sg24
S'--'
p764
sg26
S'--'
p765
sg28
S'--'
p766
sg30
S'L23-26'
p767
sg32
S'--'
p768
sg34
S'--'
p769
sg35
S'BAL'
p770
sg37
S'--'
p771
sg39
S'--'
p772
sg41
S'--'
p773
ssg45
(dp774
g5
S'--'
p775
sg7
S'--'
p776
sg9
g40
sg11
S'--'
p777
sg13
g10
sg14
S'Rishard Matthews'
p778
sg16
S'2013'
p779
sg18
g45
sg20
S'--'
p780
sg22
S'09/30'
p781
sg24
S'21.0'
p782
sg26
S'--'
p783
sg28
S'--'
p784
sg30
S'L17-38'
p785
sg32
S'21'
p786
sg34
g10
sg35
S'@NO'
p787
sg37
S'21'
p788
sg39
g40
sg41
S'--'
p789
ssg228
(dp790
g5
S'--'
p791
sg7
S'--'
p792
sg9
g40
sg11
S'--'
p793
sg13
g10
sg14
S'Rishard Matthews'
p794
sg16
S'2013'
p795
sg18
g228
sg20
S'--'
p796
sg22
S'10/20'
p797
sg24
S'--'
p798
sg26
S'--'
p799
sg28
S'--'
p800
sg30
S'L21-23'
p801
sg32
g40
sg34
g40
sg35
S'BUF'
p802
sg37
S'--'
p803
sg39
g40
sg41
S'--'
p804
ssg186
(dp805
g5
g208
sg7
g208
sg9
g208
sg11
g208
sg13
g208
sg14
S'Rishard Matthews'
p806
sg16
S'2013'
p807
sg18
g186
sg20
g208
sg22
S'Bye'
p808
sg24
g208
sg26
g208
sg28
g208
sg30
g208
sg32
g208
sg34
g208
sg35
g208
sg37
g208
sg39
g208
sg41
g208
ssg261
(dp809
g5
S'--'
p810
sg7
S'--'
p811
sg9
g40
sg11
S'--'
p812
sg13
g10
sg14
S'Rishard Matthews'
p813
sg16
S'2013'
p814
sg18
g261
sg20
S'--'
p815
sg22
S'10/31'
p816
sg24
S'12.0'
p817
sg26
S'--'
p818
sg28
S'--'
p819
sg30
S'W22-20'
p820
sg32
S'24'
p821
sg34
g189
sg35
S'CIN'
p822
sg37
S'16'
p823
sg39
g40
sg41
S'--'
p824
ssg278
(dp825
g5
S'--'
p826
sg7
S'--'
p827
sg9
g40
sg11
S'--'
p828
sg13
g10
sg14
S'Rishard Matthews'
p829
sg16
S'2013'
p830
sg18
g278
sg20
S'--'
p831
sg22
S'10/27'
p832
sg24
S'10.0'
p833
sg26
S'--'
p834
sg28
S'--'
p835
sg30
S'L17-27'
p836
sg32
S'30'
p837
sg34
g172
sg35
S'@NE'
p838
sg37
S'20'
p839
sg39
g40
sg41
S'--'
p840
sssS'2012'
p841
(dp842
g3
(dp843
g5
S'--'
p844
sg7
S'--'
p845
sg9
g40
sg11
S'--'
p846
sg13
g10
sg14
S'Rishard Matthews'
p847
sg16
S'2012'
p848
sg18
S'11'
p849
sg20
S'--'
p850
sg22
S'11/15'
p851
sg24
S'19.0'
p852
sg26
S'--'
p853
sg28
S'--'
p854
sg30
S'L14-19'
p855
sg32
S'19'
p856
sg34
g10
sg35
S'@BUF'
p857
sg37
S'19'
p858
sg39
g40
sg41
S'--'
p859
ssg43
(dp860
g5
S'--'
p861
sg7
S'--'
p862
sg9
g40
sg11
S'--'
p863
sg13
g40
sg14
S'Rishard Matthews'
p864
sg16
S'2012'
p865
sg18
S'10'
p866
sg20
S'--'
p867
sg22
S'11/11'
p868
sg24
S'--'
p869
sg26
S'--'
p870
sg28
S'--'
p871
sg30
S'L3-37'
p872
sg32
S'--'
p873
sg34
S'--'
p874
sg35
S'TEN'
p875
sg37
S'--'
p876
sg39
S'--'
p877
sg41
S'--'
p878
ssg59
(dp879
g5
S'--'
p880
sg7
S'--'
p881
sg9
g40
sg11
S'--'
p882
sg13
g10
sg14
S'Rishard Matthews'
p883
sg16
S'2012'
p884
sg18
S'13'
p885
sg20
S'--'
p886
sg22
S'12/02'
p887
sg24
S'28.0'
p888
sg26
S'--'
p889
sg28
S'--'
p890
sg30
S'L16-23'
p891
sg32
S'28'
p892
sg34
g10
sg35
S'NE'
p893
sg37
S'28'
p894
sg39
g40
sg41
S'--'
p895
ssg79
(dp896
g5
S'--'
p897
sg7
S'--'
p898
sg9
g40
sg11
S'--'
p899
sg13
g10
sg14
S'Rishard Matthews'
p900
sg16
S'2012'
p901
sg18
S'12'
p902
sg20
S'--'
p903
sg22
S'11/25'
p904
sg24
S'--'
p905
sg26
S'--'
p906
sg28
S'--'
p907
sg30
S'W24-21'
p908
sg32
S'--'
p909
sg34
S'--'
p910
sg35
S'SEA'
p911
sg37
S'--'
p912
sg39
S'--'
p913
sg41
S'--'
p914
ssg96
(dp915
g5
S'--'
p916
sg7
S'--'
p917
sg9
g40
sg11
S'--'
p918
sg13
g10
sg14
S'Rishard Matthews'
p919
sg16
S'2012'
p920
sg18
S'15'
p921
sg20
S'--'
p922
sg22
S'12/16'
p923
sg24
S'7.7'
p924
sg26
S'--'
p925
sg28
S'--'
p926
sg30
S'W24-3'
p927
sg32
S'23'
p928
sg34
g172
sg35
S'JAC'
p929
sg37
S'11'
p930
sg39
g40
sg41
S'--'
p931
ssg116
(dp932
g5
S'--'
p933
sg7
S'--'
p934
sg9
g40
sg11
S'--'
p935
sg13
g10
sg14
S'Rishard Matthews'
p936
sg16
S'2012'
p937
sg18
S'14'
p938
sg20
S'--'
p939
sg22
S'12/09'
p940
sg24
S'8.0'
p941
sg26
S'--'
p942
sg28
S'--'
p943
sg30
S'L13-27'
p944
sg32
g278
sg34
g10
sg35
S'@SF'
p945
sg37
g278
sg39
g40
sg41
S'--'
p946
ssg397
(dp947
g5
S'--'
p948
sg7
S'--'
p949
sg9
g10
sg11
S'--'
p950
sg13
g10
sg14
S'Rishard Matthews'
p951
sg16
S'2012'
p952
sg18
S'17'
p953
sg20
S'--'
p954
sg22
S'12/30'
p955
sg24
S'12.0'
p956
sg26
S'--'
p957
sg28
S'--'
p958
sg30
S'L0-28'
p959
sg32
S'36'
p960
sg34
g172
sg35
S'@NE'
p961
sg37
S'20'
p962
sg39
g40
sg41
S'--'
p963
ssg136
(dp964
g5
S'--'
p965
sg7
S'--'
p966
sg9
g40
sg11
S'--'
p967
sg13
g10
sg14
S'Rishard Matthews'
p968
sg16
S'2012'
p969
sg18
S'16'
p970
sg20
S'--'
p971
sg22
S'12/23'
p972
sg24
S'18.5'
p973
sg26
S'--'
p974
sg28
S'--'
p975
sg30
S'W24-10'
p976
sg32
S'37'
p977
sg34
g189
sg35
S'BUF'
p978
sg37
S'30'
p979
sg39
g40
sg41
S'--'
p980
ssg10
(dp981
g5
S'--'
p982
sg7
S'--'
p983
sg9
g40
sg11
S'--'
p984
sg13
g40
sg14
S'Rishard Matthews'
p985
sg16
S'2012'
p986
sg18
g10
sg20
S'--'
p987
sg22
S'09/09'
p988
sg24
S'--'
p989
sg26
S'--'
p990
sg28
S'--'
p991
sg30
S'L10-30'
p992
sg32
S'--'
p993
sg34
S'--'
p994
sg35
S'@HOU'
p995
sg37
S'--'
p996
sg39
S'--'
p997
sg41
S'--'
p998
ssg172
(dp999
g5
S'--'
p1000
sg7
S'--'
p1001
sg9
g40
sg11
S'--'
p1002
sg13
g40
sg14
S'Rishard Matthews'
p1003
sg16
S'2012'
p1004
sg18
g172
sg20
S'--'
p1005
sg22
S'09/23'
p1006
sg24
S'--'
p1007
sg26
S'--'
p1008
sg28
S'--'
p1009
sg30
S'L20-23'
p1010
sg32
S'--'
p1011
sg34
S'--'
p1012
sg35
S'NYJ'
p1013
sg37
S'--'
p1014
sg39
S'--'
p1015
sg41
S'--'
p1016
ssg189
(dp1017
g5
S'--'
p1018
sg7
S'--'
p1019
sg9
g40
sg11
S'--'
p1020
sg13
g10
sg14
S'Rishard Matthews'
p1021
sg16
S'2012'
p1022
sg18
g189
sg20
S'--'
p1023
sg22
S'09/16'
p1024
sg24
S'--'
p1025
sg26
S'--'
p1026
sg28
S'--'
p1027
sg30
S'W35-13'
p1028
sg32
S'--'
p1029
sg34
S'--'
p1030
sg35
S'OAK'
p1031
sg37
S'--'
p1032
sg39
S'--'
p1033
sg41
S'--'
p1034
ssg56
(dp1035
g5
S'--'
p1036
sg7
S'--'
p1037
sg9
g40
sg11
S'--'
p1038
sg13
g40
sg14
S'Rishard Matthews'
p1039
sg16
S'2012'
p1040
sg18
g56
sg20
S'--'
p1041
sg22
S'10/07'
p1042
sg24
S'--'
p1043
sg26
S'--'
p1044
sg28
S'--'
p1045
sg30
S'W17-13'
p1046
sg32
S'--'
p1047
sg34
S'--'
p1048
sg35
S'@CIN'
p1049
sg37
S'--'
p1050
sg39
S'--'
p1051
sg41
S'--'
p1052
ssg45
(dp1053
g5
S'--'
p1054
sg7
S'--'
p1055
sg9
g40
sg11
S'--'
p1056
sg13
g40
sg14
S'Rishard Matthews'
p1057
sg16
S'2012'
p1058
sg18
g45
sg20
S'--'
p1059
sg22
S'09/30'
p1060
sg24
S'--'
p1061
sg26
S'--'
p1062
sg28
S'--'
p1063
sg30
S'L21-24'
p1064
sg32
S'--'
p1065
sg34
S'--'
p1066
sg35
S'@ARI'
p1067
sg37
S'--'
p1068
sg39
S'--'
p1069
sg41
S'--'
p1070
ssg228
(dp1071
g5
g208
sg7
g208
sg9
g208
sg11
g208
sg13
g208
sg14
S'Rishard Matthews'
p1072
sg16
S'2012'
p1073
sg18
g228
sg20
g208
sg22
S'Bye'
p1074
sg24
g208
sg26
g208
sg28
g208
sg30
g208
sg32
g208
sg34
g208
sg35
g208
sg37
g208
sg39
g208
sg41
g208
ssg186
(dp1075
g5
S'--'
p1076
sg7
S'--'
p1077
sg9
g40
sg11
S'--'
p1078
sg13
g40
sg14
S'Rishard Matthews'
p1079
sg16
S'2012'
p1080
sg18
g186
sg20
S'--'
p1081
sg22
S'10/14'
p1082
sg24
S'--'
p1083
sg26
S'--'
p1084
sg28
S'--'
p1085
sg30
S'W17-14'
p1086
sg32
S'--'
p1087
sg34
S'--'
p1088
sg35
S'STL'
p1089
sg37
S'--'
p1090
sg39
S'--'
p1091
sg41
S'--'
p1092
ssg261
(dp1093
g5
S'--'
p1094
sg7
S'--'
p1095
sg9
g40
sg11
S'--'
p1096
sg13
g40
sg14
S'Rishard Matthews'
p1097
sg16
S'2012'
p1098
sg18
g261
sg20
S'--'
p1099
sg22
S'11/04'
p1100
sg24
S'--'
p1101
sg26
S'--'
p1102
sg28
S'--'
p1103
sg30
S'L20-23'
p1104
sg32
S'--'
p1105
sg34
S'--'
p1106
sg35
S'@IND'
p1107
sg37
S'--'
p1108
sg39
S'--'
p1109
sg41
S'--'
p1110
ssg278
(dp1111
g5
S'--'
p1112
sg7
S'--'
p1113
sg9
g40
sg11
S'--'
p1114
sg13
g40
sg14
S'Rishard Matthews'
p1115
sg16
S'2012'
p1116
sg18
g278
sg20
S'--'
p1117
sg22
S'10/28'
p1118
sg24
S'--'
p1119
sg26
S'--'
p1120
sg28
S'--'
p1121
sg30
S'W30-9'
p1122
sg32
S'--'
p1123
sg34
S'--'
p1124
sg35
S'@NYJ'
p1125
sg37
S'--'
p1126
sg39
S'--'
p1127
sg41
S'--'
p1128
sss.