(dp0
S'2015'
p1
(dp2
S'11'
p3
(dp4
S'RushTD'
p5
S'--'
p6
sS'RushYds'
p7
S'--'
p8
sS'GS'
p9
S'0'
p10
sS'Lost'
p11
S'--'
p12
sS'G'
p13
g10
sS'Player'
p14
S'Rod Streater'
p15
sS'Year'
p16
S'2015'
p17
sS'WK'
p18
S'11'
p19
sS'RushAvg'
p20
S'--'
p21
sS'Game Date'
p22
S'11/22'
p23
sS'RecAvg'
p24
S'--'
p25
sS'FUM'
p26
S'--'
p27
sS'RushAtt'
p28
S'--'
p29
sS'Result'
p30
S'L13-18'
p31
sS'RecYds'
p32
S'--'
p33
sS'Rec'
p34
S'--'
p35
sS'Opp'
p36
S'@DET'
p37
sS'RecLng'
p38
S'--'
p39
sS'RecTD'
p40
S'--'
p41
sS'RushLng'
p42
S'--'
p43
ssS'10'
p44
(dp45
g5
S'--'
p46
sg7
S'--'
p47
sg9
g10
sg11
S'--'
p48
sg13
g10
sg14
S'Rod Streater'
p49
sg16
S'2015'
p50
sg18
S'10'
p51
sg20
S'--'
p52
sg22
S'11/15'
p53
sg24
S'--'
p54
sg26
S'--'
p55
sg28
S'--'
p56
sg30
S'L14-30'
p57
sg32
S'--'
p58
sg34
S'--'
p59
sg36
S'MIN'
p60
sg38
S'--'
p61
sg40
S'--'
p62
sg42
S'--'
p63
ssS'13'
p64
(dp65
g5
S'--'
p66
sg7
S'--'
p67
sg9
g10
sg11
S'--'
p68
sg13
g10
sg14
S'Rod Streater'
p69
sg16
S'2015'
p70
sg18
S'13'
p71
sg20
S'--'
p72
sg22
S'12/06'
p73
sg24
S'--'
p74
sg26
S'--'
p75
sg28
S'--'
p76
sg30
S'L20-34'
p77
sg32
S'--'
p78
sg34
S'--'
p79
sg36
S'KC'
p80
sg38
S'--'
p81
sg40
S'--'
p82
sg42
S'--'
p83
ssS'12'
p84
(dp85
g5
S'--'
p86
sg7
S'--'
p87
sg9
g10
sg11
S'--'
p88
sg13
g10
sg14
S'Rod Streater'
p89
sg16
S'2015'
p90
sg18
S'12'
p91
sg20
S'--'
p92
sg22
S'11/29'
p93
sg24
S'--'
p94
sg26
S'--'
p95
sg28
S'--'
p96
sg30
S'W24-21'
p97
sg32
S'--'
p98
sg34
S'--'
p99
sg36
S'@TEN'
p100
sg38
S'--'
p101
sg40
S'--'
p102
sg42
S'--'
p103
ssS'15'
p104
(dp105
g5
S'--'
p106
sg7
S'--'
p107
sg9
g10
sg11
S'--'
p108
sg13
g10
sg14
S'Rod Streater'
p109
sg16
S'2015'
p110
sg18
S'15'
p111
sg20
S'--'
p112
sg22
S'12/20'
p113
sg24
S'--'
p114
sg26
S'--'
p115
sg28
S'--'
p116
sg30
S'L20-30'
p117
sg32
S'--'
p118
sg34
S'--'
p119
sg36
S'GB'
p120
sg38
S'--'
p121
sg40
S'--'
p122
sg42
S'--'
p123
ssS'14'
p124
(dp125
g5
S'--'
p126
sg7
S'--'
p127
sg9
g10
sg11
S'--'
p128
sg13
g10
sg14
S'Rod Streater'
p129
sg16
S'2015'
p130
sg18
S'14'
p131
sg20
S'--'
p132
sg22
S'12/13'
p133
sg24
S'--'
p134
sg26
S'--'
p135
sg28
S'--'
p136
sg30
S'W15-12'
p137
sg32
S'--'
p138
sg34
S'--'
p139
sg36
S'@DEN'
p140
sg38
S'--'
p141
sg40
S'--'
p142
sg42
S'--'
p143
ssS'17'
p144
(dp145
g5
S'--'
p146
sg7
S'--'
p147
sg9
g10
sg11
S'--'
p148
sg13
g10
sg14
S'Rod Streater'
p149
sg16
S'2015'
p150
sg18
S'17'
p151
sg20
S'--'
p152
sg22
S'01/03'
p153
sg24
S'--'
p154
sg26
S'--'
p155
sg28
S'--'
p156
sg30
S'L17-23'
p157
sg32
S'--'
p158
sg34
S'--'
p159
sg36
S'@KC'
p160
sg38
S'--'
p161
sg40
S'--'
p162
sg42
S'--'
p163
ssS'16'
p164
(dp165
g5
S'--'
p166
sg7
S'--'
p167
sg9
g10
sg11
S'--'
p168
sg13
g10
sg14
S'Rod Streater'
p169
sg16
S'2015'
p170
sg18
S'16'
p171
sg20
S'--'
p172
sg22
S'12/24'
p173
sg24
S'--'
p174
sg26
S'--'
p175
sg28
S'--'
p176
sg30
S'W23-20'
p177
sg32
S'--'
p178
sg34
S'--'
p179
sg36
S'SD'
p180
sg38
S'--'
p181
sg40
S'--'
p182
sg42
S'--'
p183
ssS'1'
p184
(dp185
g5
S'--'
p186
sg7
S'--'
p187
sg9
g10
sg11
S'--'
p188
sg13
g184
sg14
S'Rod Streater'
p189
sg16
S'2015'
p190
sg18
g184
sg20
S'--'
p191
sg22
S'09/13'
p192
sg24
S'8.0'
p193
sg26
S'--'
p194
sg28
S'--'
p195
sg30
S'L13-33'
p196
sg32
S'8'
p197
sg34
g184
sg36
S'CIN'
p198
sg38
g197
sg40
g10
sg42
S'--'
p199
ssS'3'
p200
(dp201
g5
S'--'
p202
sg7
S'--'
p203
sg9
g10
sg11
S'--'
p204
sg13
g10
sg14
S'Rod Streater'
p205
sg16
S'2015'
p206
sg18
g200
sg20
S'--'
p207
sg22
S'09/27'
p208
sg24
S'--'
p209
sg26
S'--'
p210
sg28
S'--'
p211
sg30
S'W27-20'
p212
sg32
S'--'
p213
sg34
S'--'
p214
sg36
S'@CLE'
p215
sg38
S'--'
p216
sg40
S'--'
p217
sg42
S'--'
p218
ssS'2'
p219
(dp220
g5
S'--'
p221
sg7
S'--'
p222
sg9
g10
sg11
S'--'
p223
sg13
g10
sg14
S'Rod Streater'
p224
sg16
S'2015'
p225
sg18
g219
sg20
S'--'
p226
sg22
S'09/20'
p227
sg24
S'--'
p228
sg26
S'--'
p229
sg28
S'--'
p230
sg30
S'W37-33'
p231
sg32
S'--'
p232
sg34
S'--'
p233
sg36
S'BAL'
p234
sg38
S'--'
p235
sg40
S'--'
p236
sg42
S'--'
p237
ssS'5'
p238
(dp239
g5
S'--'
p240
sg7
S'--'
p241
sg9
g10
sg11
S'--'
p242
sg13
g10
sg14
S'Rod Streater'
p243
sg16
S'2015'
p244
sg18
g238
sg20
S'--'
p245
sg22
S'10/11'
p246
sg24
S'--'
p247
sg26
S'--'
p248
sg28
S'--'
p249
sg30
S'L10-16'
p250
sg32
S'--'
p251
sg34
S'--'
p252
sg36
S'DEN'
p253
sg38
S'--'
p254
sg40
S'--'
p255
sg42
S'--'
p256
ssS'4'
p257
(dp258
g5
S'--'
p259
sg7
S'--'
p260
sg9
g10
sg11
S'--'
p261
sg13
g10
sg14
S'Rod Streater'
p262
sg16
S'2015'
p263
sg18
g257
sg20
S'--'
p264
sg22
S'10/04'
p265
sg24
S'--'
p266
sg26
S'--'
p267
sg28
S'--'
p268
sg30
S'L20-22'
p269
sg32
S'--'
p270
sg34
S'--'
p271
sg36
S'@CHI'
p272
sg38
S'--'
p273
sg40
S'--'
p274
sg42
S'--'
p275
ssS'7'
p276
(dp277
g5
S'--'
p278
sg7
S'--'
p279
sg9
g10
sg11
S'--'
p280
sg13
g10
sg14
S'Rod Streater'
p281
sg16
S'2015'
p282
sg18
g276
sg20
S'--'
p283
sg22
S'10/25'
p284
sg24
S'--'
p285
sg26
S'--'
p286
sg28
S'--'
p287
sg30
S'W37-29'
p288
sg32
S'--'
p289
sg34
S'--'
p290
sg36
S'@SD'
p291
sg38
S'--'
p292
sg40
S'--'
p293
sg42
S'--'
p294
ssS'6'
p295
(dp296
g5
S''
p297
sg7
g297
sg9
g297
sg11
g297
sg13
g297
sg14
S'Rod Streater'
p298
sg16
S'2015'
p299
sg18
g295
sg20
g297
sg22
S'Bye'
p300
sg24
g297
sg26
g297
sg28
g297
sg30
g297
sg32
g297
sg34
g297
sg36
g297
sg38
g297
sg40
g297
sg42
g297
ssS'9'
p301
(dp302
g5
S'--'
p303
sg7
S'--'
p304
sg9
g10
sg11
S'--'
p305
sg13
g10
sg14
S'Rod Streater'
p306
sg16
S'2015'
p307
sg18
g301
sg20
S'--'
p308
sg22
S'11/08'
p309
sg24
S'--'
p310
sg26
S'--'
p311
sg28
S'--'
p312
sg30
S'L35-38'
p313
sg32
S'--'
p314
sg34
S'--'
p315
sg36
S'@PIT'
p316
sg38
S'--'
p317
sg40
S'--'
p318
sg42
S'--'
p319
ssg197
(dp320
g5
S'--'
p321
sg7
S'--'
p322
sg9
g10
sg11
S'--'
p323
sg13
g10
sg14
S'Rod Streater'
p324
sg16
S'2015'
p325
sg18
g197
sg20
S'--'
p326
sg22
S'11/01'
p327
sg24
S'--'
p328
sg26
S'--'
p329
sg28
S'--'
p330
sg30
S'W34-20'
p331
sg32
S'--'
p332
sg34
S'--'
p333
sg36
S'NYJ'
p334
sg38
S'--'
p335
sg40
S'--'
p336
sg42
S'--'
p337
sssS'2014'
p338
(dp339
g184
(dp340
g5
S'--'
p341
sg7
S'--'
p342
sg9
g184
sg11
S'--'
p343
sg13
g184
sg14
S'Rod Streater'
p344
sg16
S'2014'
p345
sg18
g184
sg20
S'--'
p346
sg22
S'09/07'
p347
sg24
S'9.2'
p348
sg26
S'--'
p349
sg28
S'--'
p350
sg30
S'L14-19'
p351
sg32
S'46'
p352
sg34
g238
sg36
S'@NYJ'
p353
sg38
S'17'
p354
sg40
g184
sg42
S'--'
p355
ssg200
(dp356
g5
S'--'
p357
sg7
S'--'
p358
sg9
g184
sg11
S'--'
p359
sg13
g184
sg14
S'Rod Streater'
p360
sg16
S'2014'
p361
sg18
g200
sg20
S'--'
p362
sg22
S'09/21'
p363
sg24
S'10.7'
p364
sg26
S'--'
p365
sg28
S'--'
p366
sg30
S'L9-16'
p367
sg32
S'32'
p368
sg34
g200
sg36
S'@NE'
p369
sg38
S'14'
p370
sg40
g10
sg42
S'--'
p371
ssg219
(dp372
g5
S'--'
p373
sg7
S'--'
p374
sg9
g184
sg11
S'--'
p375
sg13
g184
sg14
S'Rod Streater'
p376
sg16
S'2014'
p377
sg18
g219
sg20
S'--'
p378
sg22
S'09/14'
p379
sg24
S'6.0'
p380
sg26
S'--'
p381
sg28
S'--'
p382
sg30
S'L14-30'
p383
sg32
g295
sg34
g184
sg36
S'HOU'
p384
sg38
g295
sg40
g10
sg42
S'--'
p385
ssg257
(dp386
g5
S'--'
p387
sg7
S'--'
p388
sg9
g10
sg11
S'--'
p389
sg13
g10
sg14
S'Rod Streater'
p390
sg16
S'2014'
p391
sg18
g257
sg20
S'--'
p392
sg22
S'09/28'
p393
sg24
S'--'
p394
sg26
S'--'
p395
sg28
S'--'
p396
sg30
S'L14-38'
p397
sg32
S'--'
p398
sg34
S'--'
p399
sg36
S'MIA'
p400
sg38
S'--'
p401
sg40
S'--'
p402
sg42
S'--'
p403
sssS'2013'
p404
(dp405
g3
(dp406
g5
g10
sg7
g197
sg9
g10
sg11
S'--'
p407
sg13
g184
sg14
S'Rod Streater'
p408
sg16
S'2013'
p409
sg18
S'11'
p410
sg20
S'8.0'
p411
sg22
S'11/17'
p412
sg24
S'14.0'
p413
sg26
S'--'
p414
sg28
g184
sg30
S'W28-23'
p415
sg32
S'84'
p416
sg34
g295
sg36
S'@HOU'
p417
sg38
S'36'
p418
sg40
g184
sg42
g197
ssg44
(dp419
g5
S'--'
p420
sg7
S'--'
p421
sg9
g10
sg11
S'--'
p422
sg13
g184
sg14
S'Rod Streater'
p423
sg16
S'2013'
p424
sg18
S'10'
p425
sg20
S'--'
p426
sg22
S'11/10'
p427
sg24
S'6.0'
p428
sg26
S'--'
p429
sg28
S'--'
p430
sg30
S'L20-24'
p431
sg32
g295
sg34
g184
sg36
S'@NYG'
p432
sg38
g295
sg40
g10
sg42
S'--'
p433
ssg64
(dp434
g5
S'--'
p435
sg7
S'--'
p436
sg9
g184
sg11
S'--'
p437
sg13
g184
sg14
S'Rod Streater'
p438
sg16
S'2013'
p439
sg18
S'13'
p440
sg20
S'--'
p441
sg22
S'11/28'
p442
sg24
S'19.0'
p443
sg26
S'--'
p444
sg28
S'--'
p445
sg30
S'L24-31'
p446
sg32
S'57'
p447
sg34
g200
sg36
S'@DAL'
p448
sg38
S'27'
p449
sg40
g10
sg42
S'--'
p450
ssg84
(dp451
g5
S'--'
p452
sg7
S'--'
p453
sg9
g184
sg11
g184
sg13
g184
sg14
S'Rod Streater'
p454
sg16
S'2013'
p455
sg18
S'12'
p456
sg20
S'--'
p457
sg22
S'11/24'
p458
sg24
S'18.6'
p459
sg26
g184
sg28
S'--'
p460
sg30
S'L19-23'
p461
sg32
S'93'
p462
sg34
g238
sg36
S'TEN'
p463
sg38
S'23'
p464
sg40
g10
sg42
S'--'
p465
ssg104
(dp466
g5
S'--'
p467
sg7
S'--'
p468
sg9
g184
sg11
S'--'
p469
sg13
g184
sg14
S'Rod Streater'
p470
sg16
S'2013'
p471
sg18
S'15'
p472
sg20
S'--'
p473
sg22
S'12/15'
p474
sg24
S'14.8'
p475
sg26
S'--'
p476
sg28
S'--'
p477
sg30
S'L31-56'
p478
sg32
S'59'
p479
sg34
g257
sg36
S'KC'
p480
sg38
S'26'
p481
sg40
g10
sg42
S'--'
p482
ssg124
(dp483
g5
S'--'
p484
sg7
S'--'
p485
sg9
g184
sg11
S'--'
p486
sg13
g184
sg14
S'Rod Streater'
p487
sg16
S'2013'
p488
sg18
S'14'
p489
sg20
S'--'
p490
sg22
S'12/08'
p491
sg24
S'18.6'
p492
sg26
S'--'
p493
sg28
S'--'
p494
sg30
S'L27-37'
p495
sg32
S'130'
p496
sg34
g276
sg36
S'@NYJ'
p497
sg38
S'48T'
p498
sg40
g184
sg42
S'--'
p499
ssg144
(dp500
g5
S'--'
p501
sg7
S'--'
p502
sg9
g184
sg11
S'--'
p503
sg13
g184
sg14
S'Rod Streater'
p504
sg16
S'2013'
p505
sg18
S'17'
p506
sg20
S'--'
p507
sg22
S'12/29'
p508
sg24
S'8.0'
p509
sg26
S'--'
p510
sg28
S'--'
p511
sg30
S'L14-34'
p512
sg32
S'40'
p513
sg34
g238
sg36
S'DEN'
p514
sg38
S'14T'
p515
sg40
g184
sg42
S'--'
p516
ssg164
(dp517
g5
S'--'
p518
sg7
S'--'
p519
sg9
g184
sg11
S'--'
p520
sg13
g184
sg14
S'Rod Streater'
p521
sg16
S'2013'
p522
sg18
S'16'
p523
sg20
S'--'
p524
sg22
S'12/22'
p525
sg24
S'2.0'
p526
sg26
S'--'
p527
sg28
S'--'
p528
sg30
S'L13-26'
p529
sg32
g219
sg34
g184
sg36
S'@SD'
p530
sg38
g219
sg40
g10
sg42
S'--'
p531
ssg184
(dp532
g5
g10
sg7
g301
sg9
g184
sg11
S'--'
p533
sg13
g184
sg14
S'Rod Streater'
p534
sg16
S'2013'
p535
sg18
g184
sg20
S'9.0'
p536
sg22
S'09/08'
p537
sg24
S'14.0'
p538
sg26
S'--'
p539
sg28
g184
sg30
S'L17-21'
p540
sg32
S'70'
p541
sg34
g238
sg36
S'@IND'
p542
sg38
S'18'
p543
sg40
g10
sg42
g301
ssg200
(dp544
g5
S'--'
p545
sg7
S'--'
p546
sg9
g184
sg11
S'--'
p547
sg13
g184
sg14
S'Rod Streater'
p548
sg16
S'2013'
p549
sg18
g200
sg20
S'--'
p550
sg22
S'09/23'
p551
sg24
S'14.0'
p552
sg26
S'--'
p553
sg28
S'--'
p554
sg30
S'L21-37'
p555
sg32
S'42'
p556
sg34
g200
sg36
S'@DEN'
p557
sg38
S'28'
p558
sg40
g10
sg42
S'--'
p559
ssg219
(dp560
g5
S'--'
p561
sg7
S'--'
p562
sg9
g184
sg11
S'--'
p563
sg13
g184
sg14
S'Rod Streater'
p564
sg16
S'2013'
p565
sg18
g219
sg20
S'--'
p566
sg22
S'09/15'
p567
sg24
S'14.0'
p568
sg26
S'--'
p569
sg28
S'--'
p570
sg30
S'W19-9'
p571
sg32
S'42'
p572
sg34
g200
sg36
S'JAC'
p573
sg38
S'17'
p574
sg40
g10
sg42
S'--'
p575
ssg238
(dp576
g5
S'--'
p577
sg7
S'--'
p578
sg9
g184
sg11
S'--'
p579
sg13
g184
sg14
S'Rod Streater'
p580
sg16
S'2013'
p581
sg18
g238
sg20
S'--'
p582
sg22
S'10/06'
p583
sg24
S'18.7'
p584
sg26
S'--'
p585
sg28
S'--'
p586
sg30
S'W27-17'
p587
sg32
S'56'
p588
sg34
g200
sg36
S'SD'
p589
sg38
S'44T'
p590
sg40
g184
sg42
S'--'
p591
ssg257
(dp592
g5
S'--'
p593
sg7
S'--'
p594
sg9
g184
sg11
S'--'
p595
sg13
g184
sg14
S'Rod Streater'
p596
sg16
S'2013'
p597
sg18
g257
sg20
S'--'
p598
sg22
S'09/29'
p599
sg24
S'9.0'
p600
sg26
S'--'
p601
sg28
S'--'
p602
sg30
S'L14-24'
p603
sg32
S'18'
p604
sg34
g219
sg36
S'WAS'
p605
sg38
S'14'
p606
sg40
g10
sg42
S'--'
p607
ssg276
(dp608
g5
g297
sg7
g297
sg9
g297
sg11
g297
sg13
g297
sg14
S'Rod Streater'
p609
sg16
S'2013'
p610
sg18
g276
sg20
g297
sg22
S'Bye'
p611
sg24
g297
sg26
g297
sg28
g297
sg30
g297
sg32
g297
sg34
g297
sg36
g297
sg38
g297
sg40
g297
sg42
g297
ssg295
(dp612
g5
S'--'
p613
sg7
S'--'
p614
sg9
g184
sg11
S'--'
p615
sg13
g184
sg14
S'Rod Streater'
p616
sg16
S'2013'
p617
sg18
g295
sg20
S'--'
p618
sg22
S'10/13'
p619
sg24
S'15.3'
p620
sg26
S'--'
p621
sg28
S'--'
p622
sg30
S'L7-24'
p623
sg32
S'46'
p624
sg34
g200
sg36
S'@KC'
p625
sg38
S'18'
p626
sg40
g10
sg42
S'--'
p627
ssg301
(dp628
g5
S'--'
p629
sg7
S'--'
p630
sg9
g184
sg11
S'--'
p631
sg13
g184
sg14
S'Rod Streater'
p632
sg16
S'2013'
p633
sg18
g301
sg20
S'--'
p634
sg22
S'11/03'
p635
sg24
S'19.6'
p636
sg26
S'--'
p637
sg28
S'--'
p638
sg30
S'L20-49'
p639
sg32
S'98'
p640
sg34
g238
sg36
S'PHI'
p641
sg38
S'66'
p642
sg40
g10
sg42
S'--'
p643
ssg197
(dp644
g5
S'--'
p645
sg7
S'--'
p646
sg9
g184
sg11
S'--'
p647
sg13
g184
sg14
S'Rod Streater'
p648
sg16
S'2013'
p649
sg18
g197
sg20
S'--'
p650
sg22
S'10/27'
p651
sg24
S'11.3'
p652
sg26
S'--'
p653
sg28
S'--'
p654
sg30
S'W21-18'
p655
sg32
S'45'
p656
sg34
g257
sg36
S'PIT'
p657
sg38
S'16'
p658
sg40
g10
sg42
S'--'
p659
sssS'2012'
p660
(dp661
g3
(dp662
g5
S'--'
p663
sg7
S'--'
p664
sg9
g10
sg11
S'--'
p665
sg13
g184
sg14
S'Rod Streater'
p666
sg16
S'2012'
p667
sg18
S'11'
p668
sg20
S'--'
p669
sg22
S'11/18'
p670
sg24
S'13.0'
p671
sg26
S'--'
p672
sg28
S'--'
p673
sg30
S'L17-38'
p674
sg32
S'26'
p675
sg34
g219
sg36
S'NO'
p676
sg38
S'20'
p677
sg40
g10
sg42
S'--'
p678
ssg44
(dp679
g5
S'--'
p680
sg7
S'--'
p681
sg9
g10
sg11
S'--'
p682
sg13
g184
sg14
S'Rod Streater'
p683
sg16
S'2012'
p684
sg18
S'10'
p685
sg20
S'--'
p686
sg22
S'11/11'
p687
sg24
S'11.0'
p688
sg26
S'--'
p689
sg28
S'--'
p690
sg30
S'L20-55'
p691
sg32
S'11'
p692
sg34
g184
sg36
S'@BAL'
p693
sg38
S'11'
p694
sg40
g10
sg42
S'--'
p695
ssg64
(dp696
g5
S'--'
p697
sg7
S'--'
p698
sg9
g10
sg11
S'--'
p699
sg13
g184
sg14
S'Rod Streater'
p700
sg16
S'2012'
p701
sg18
S'13'
p702
sg20
S'--'
p703
sg22
S'12/02'
p704
sg24
S'32.0'
p705
sg26
S'--'
p706
sg28
S'--'
p707
sg30
S'L17-20'
p708
sg32
S'96'
p709
sg34
g200
sg36
S'CLE'
p710
sg38
S'64T'
p711
sg40
g184
sg42
S'--'
p712
ssg84
(dp713
g5
S'--'
p714
sg7
S'--'
p715
sg9
g10
sg11
S'--'
p716
sg13
g184
sg14
S'Rod Streater'
p717
sg16
S'2012'
p718
sg18
S'12'
p719
sg20
S'--'
p720
sg22
S'11/25'
p721
sg24
S'--'
p722
sg26
S'--'
p723
sg28
S'--'
p724
sg30
S'L10-34'
p725
sg32
S'--'
p726
sg34
S'--'
p727
sg36
S'@CIN'
p728
sg38
S'--'
p729
sg40
S'--'
p730
sg42
S'--'
p731
ssg104
(dp732
g5
S'--'
p733
sg7
S'--'
p734
sg9
g10
sg11
S'--'
p735
sg13
g184
sg14
S'Rod Streater'
p736
sg16
S'2012'
p737
sg18
S'15'
p738
sg20
S'--'
p739
sg22
S'12/16'
p740
sg24
S'12.4'
p741
sg26
S'--'
p742
sg28
S'--'
p743
sg30
S'W15-0'
p744
sg32
S'62'
p745
sg34
g238
sg36
S'KC'
p746
sg38
S'19'
p747
sg40
g10
sg42
S'--'
p748
ssg124
(dp749
g5
S'--'
p750
sg7
S'--'
p751
sg9
g10
sg11
S'--'
p752
sg13
g184
sg14
S'Rod Streater'
p753
sg16
S'2012'
p754
sg18
S'14'
p755
sg20
S'--'
p756
sg22
S'12/06'
p757
sg24
S'25.0'
p758
sg26
S'--'
p759
sg28
S'--'
p760
sg30
S'L13-26'
p761
sg32
S'100'
p762
sg34
g257
sg36
S'DEN'
p763
sg38
S'58'
p764
sg40
g10
sg42
S'--'
p765
ssg144
(dp766
g5
S'--'
p767
sg7
S'--'
p768
sg9
g10
sg11
S'--'
p769
sg13
g184
sg14
S'Rod Streater'
p770
sg16
S'2012'
p771
sg18
S'17'
p772
sg20
S'--'
p773
sg22
S'12/30'
p774
sg24
S'19.3'
p775
sg26
S'--'
p776
sg28
S'--'
p777
sg30
S'L21-24'
p778
sg32
S'77'
p779
sg34
g257
sg36
S'@SD'
p780
sg38
S'38'
p781
sg40
g10
sg42
S'--'
p782
ssg164
(dp783
g5
S'--'
p784
sg7
S'--'
p785
sg9
g10
sg11
S'--'
p786
sg13
g184
sg14
S'Rod Streater'
p787
sg16
S'2012'
p788
sg18
S'16'
p789
sg20
S'--'
p790
sg22
S'12/23'
p791
sg24
S'8.0'
p792
sg26
S'--'
p793
sg28
S'--'
p794
sg30
S'L6-17'
p795
sg32
S'16'
p796
sg34
g219
sg36
S'@CAR'
p797
sg38
S'12'
p798
sg40
g10
sg42
S'--'
p799
ssg184
(dp800
g5
S'--'
p801
sg7
S'--'
p802
sg9
g184
sg11
g184
sg13
g184
sg14
S'Rod Streater'
p803
sg16
S'2012'
p804
sg18
g184
sg20
S'--'
p805
sg22
S'09/10'
p806
sg24
S'6.8'
p807
sg26
g184
sg28
S'--'
p808
sg30
S'L14-22'
p809
sg32
S'27'
p810
sg34
g257
sg36
S'SD'
p811
sg38
S'13'
p812
sg40
g184
sg42
S'--'
p813
ssg200
(dp814
g5
S'--'
p815
sg7
S'--'
p816
sg9
g10
sg11
S'--'
p817
sg13
g184
sg14
S'Rod Streater'
p818
sg16
S'2012'
p819
sg18
g200
sg20
S'--'
p820
sg22
S'09/23'
p821
sg24
S'11.0'
p822
sg26
S'--'
p823
sg28
S'--'
p824
sg30
S'W34-31'
p825
sg32
S'22'
p826
sg34
g219
sg36
S'PIT'
p827
sg38
S'17'
p828
sg40
g10
sg42
S'--'
p829
ssg219
(dp830
g5
S'--'
p831
sg7
S'--'
p832
sg9
g10
sg11
S'--'
p833
sg13
g184
sg14
S'Rod Streater'
p834
sg16
S'2012'
p835
sg18
g219
sg20
S'--'
p836
sg22
S'09/16'
p837
sg24
S'9.5'
p838
sg26
S'--'
p839
sg28
S'--'
p840
sg30
S'L13-35'
p841
sg32
S'19'
p842
sg34
g219
sg36
S'@MIA'
p843
sg38
S'13'
p844
sg40
g10
sg42
S'--'
p845
ssg238
(dp846
g5
g297
sg7
g297
sg9
g297
sg11
g297
sg13
g297
sg14
S'Rod Streater'
p847
sg16
S'2012'
p848
sg18
g238
sg20
g297
sg22
S'Bye'
p849
sg24
g297
sg26
g297
sg28
g297
sg30
g297
sg32
g297
sg34
g297
sg36
g297
sg38
g297
sg40
g297
sg42
g297
ssg257
(dp850
g5
S'--'
p851
sg7
S'--'
p852
sg9
g10
sg11
S'--'
p853
sg13
g184
sg14
S'Rod Streater'
p854
sg16
S'2012'
p855
sg18
g257
sg20
S'--'
p856
sg22
S'09/30'
p857
sg24
S'--'
p858
sg26
S'--'
p859
sg28
S'--'
p860
sg30
S'L6-37'
p861
sg32
g10
sg34
g10
sg36
S'@DEN'
p862
sg38
S'--'
p863
sg40
g10
sg42
S'--'
p864
ssg276
(dp865
g5
S'--'
p866
sg7
S'--'
p867
sg9
g184
sg11
S'--'
p868
sg13
g184
sg14
S'Rod Streater'
p869
sg16
S'2012'
p870
sg18
g276
sg20
S'--'
p871
sg22
S'10/21'
p872
sg24
S'20.5'
p873
sg26
S'--'
p874
sg28
S'--'
p875
sg30
S'W26-23'
p876
sg32
S'41'
p877
sg34
g219
sg36
S'JAC'
p878
sg38
S'23'
p879
sg40
g10
sg42
S'--'
p880
ssg295
(dp881
g5
S'--'
p882
sg7
S'--'
p883
sg9
g10
sg11
S'--'
p884
sg13
g184
sg14
S'Rod Streater'
p885
sg16
S'2012'
p886
sg18
g295
sg20
S'--'
p887
sg22
S'10/14'
p888
sg24
S'8.0'
p889
sg26
S'--'
p890
sg28
S'--'
p891
sg30
S'L20-23'
p892
sg32
S'24'
p893
sg34
g200
sg36
S'@ATL'
p894
sg38
S'14'
p895
sg40
g10
sg42
S'--'
p896
ssg301
(dp897
g5
S'--'
p898
sg7
S'--'
p899
sg9
g10
sg11
S'--'
p900
sg13
g184
sg14
S'Rod Streater'
p901
sg16
S'2012'
p902
sg18
g301
sg20
S'--'
p903
sg22
S'11/04'
p904
sg24
S'13.5'
p905
sg26
S'--'
p906
sg28
S'--'
p907
sg30
S'L32-42'
p908
sg32
S'54'
p909
sg34
g257
sg36
S'TB'
p910
sg38
S'25T'
p911
sg40
g184
sg42
S'--'
p912
ssg197
(dp913
g5
S'--'
p914
sg7
S'--'
p915
sg9
g10
sg11
S'--'
p916
sg13
g184
sg14
S'Rod Streater'
p917
sg16
S'2012'
p918
sg18
g197
sg20
S'--'
p919
sg22
S'10/28'
p920
sg24
S'9.0'
p921
sg26
S'--'
p922
sg28
S'--'
p923
sg30
S'W26-16'
p924
sg32
g301
sg34
g184
sg36
S'@KC'
p925
sg38
g301
sg40
g10
sg42
S'--'
p926
sss.