(dp0
S'2015'
p1
(dp2
S'11'
p3
(dp4
S'RushTD'
p5
S'--'
p6
sS'RushYds'
p7
S'--'
p8
sS'GS'
p9
S'1'
p10
sS'Lost'
p11
S'--'
p12
sS'G'
p13
g10
sS'Player'
p14
S'Roddy White'
p15
sS'Year'
p16
S'2015'
p17
sS'WK'
p18
S'11'
p19
sS'RushAvg'
p20
S'--'
p21
sS'Game Date'
p22
S'11/22'
p23
sS'RecAvg'
p24
S'6.0'
p25
sS'FUM'
p26
S'--'
p27
sS'RushAtt'
p28
S'--'
p29
sS'Result'
p30
S'L21-24'
p31
sS'RecYds'
p32
S'24'
p33
sS'Rec'
p34
S'4'
p35
sS'Opp'
p36
S'IND'
p37
sS'RecLng'
p38
S'12'
p39
sS'RecTD'
p40
S'0'
p41
sS'RushLng'
p42
S'--'
p43
ssS'10'
p44
(dp45
g5
S''
p46
sg7
g46
sg9
g46
sg11
g46
sg13
g46
sg14
S'Roddy White'
p47
sg16
S'2015'
p48
sg18
S'10'
p49
sg20
g46
sg22
S'Bye'
p50
sg24
g46
sg26
g46
sg28
g46
sg30
g46
sg32
g46
sg34
g46
sg36
g46
sg38
g46
sg40
g46
sg42
g46
ssS'13'
p51
(dp52
g5
S'--'
p53
sg7
S'--'
p54
sg9
g10
sg11
S'--'
p55
sg13
g10
sg14
S'Roddy White'
p56
sg16
S'2015'
p57
sg18
S'13'
p58
sg20
S'--'
p59
sg22
S'12/06'
p60
sg24
S'11.0'
p61
sg26
S'--'
p62
sg28
S'--'
p63
sg30
S'L19-23'
p64
sg32
S'33'
p65
sg34
S'3'
p66
sg36
S'@TB'
p67
sg38
S'21'
p68
sg40
g41
sg42
S'--'
p69
ssS'12'
p70
(dp71
g5
S'--'
p72
sg7
S'--'
p73
sg9
g10
sg11
S'--'
p74
sg13
g10
sg14
S'Roddy White'
p75
sg16
S'2015'
p76
sg18
S'12'
p77
sg20
S'--'
p78
sg22
S'11/29'
p79
sg24
S'10.0'
p80
sg26
S'--'
p81
sg28
S'--'
p82
sg30
S'L10-20'
p83
sg32
S'60'
p84
sg34
S'6'
p85
sg36
S'MIN'
p86
sg38
S'20'
p87
sg40
g41
sg42
S'--'
p88
ssS'15'
p89
(dp90
g5
S'--'
p91
sg7
S'--'
p92
sg9
g10
sg11
S'--'
p93
sg13
g10
sg14
S'Roddy White'
p94
sg16
S'2015'
p95
sg18
S'15'
p96
sg20
S'--'
p97
sg22
S'12/20'
p98
sg24
S'15.7'
p99
sg26
S'--'
p100
sg28
S'--'
p101
sg30
S'W23-17'
p102
sg32
S'47'
p103
sg34
g66
sg36
S'@JAC'
p104
sg38
S'17'
p105
sg40
g41
sg42
S'--'
p106
ssS'14'
p107
(dp108
g5
S'--'
p109
sg7
S'--'
p110
sg9
g10
sg11
S'--'
p111
sg13
g10
sg14
S'Roddy White'
p112
sg16
S'2015'
p113
sg18
S'14'
p114
sg20
S'--'
p115
sg22
S'12/13'
p116
sg24
S'8.8'
p117
sg26
S'--'
p118
sg28
S'--'
p119
sg30
S'L0-38'
p120
sg32
S'35'
p121
sg34
g35
sg36
S'@CAR'
p122
sg38
S'14'
p123
sg40
g41
sg42
S'--'
p124
ssS'17'
p125
(dp126
g5
S'--'
p127
sg7
S'--'
p128
sg9
g10
sg11
S'--'
p129
sg13
g10
sg14
S'Roddy White'
p130
sg16
S'2015'
p131
sg18
S'17'
p132
sg20
S'--'
p133
sg22
S'01/03'
p134
sg24
S'10.0'
p135
sg26
S'--'
p136
sg28
S'--'
p137
sg30
S'L17-20'
p138
sg32
S'10'
p139
sg34
g10
sg36
S'NO'
p140
sg38
S'10'
p141
sg40
g41
sg42
S'--'
p142
ssS'16'
p143
(dp144
g5
S'--'
p145
sg7
S'--'
p146
sg9
g10
sg11
S'--'
p147
sg13
g10
sg14
S'Roddy White'
p148
sg16
S'2015'
p149
sg18
S'16'
p150
sg20
S'--'
p151
sg22
S'12/27'
p152
sg24
S'13.4'
p153
sg26
S'--'
p154
sg28
S'--'
p155
sg30
S'W20-13'
p156
sg32
S'67'
p157
sg34
S'5'
p158
sg36
S'CAR'
p159
sg38
S'17'
p160
sg40
g41
sg42
S'--'
p161
ssg10
(dp162
g5
S'--'
p163
sg7
S'--'
p164
sg9
g10
sg11
S'--'
p165
sg13
g10
sg14
S'Roddy White'
p166
sg16
S'2015'
p167
sg18
g10
sg20
S'--'
p168
sg22
S'09/14'
p169
sg24
S'21.0'
p170
sg26
S'--'
p171
sg28
S'--'
p172
sg30
S'W26-24'
p173
sg32
S'84'
p174
sg34
g35
sg36
S'PHI'
p175
sg38
S'25'
p176
sg40
g41
sg42
S'--'
p177
ssg66
(dp178
g5
S'--'
p179
sg7
S'--'
p180
sg9
g10
sg11
S'--'
p181
sg13
g10
sg14
S'Roddy White'
p182
sg16
S'2015'
p183
sg18
g66
sg20
S'--'
p184
sg22
S'09/27'
p185
sg24
S'--'
p186
sg26
S'--'
p187
sg28
S'--'
p188
sg30
S'W39-28'
p189
sg32
S'--'
p190
sg34
S'--'
p191
sg36
S'@DAL'
p192
sg38
S'--'
p193
sg40
S'--'
p194
sg42
S'--'
p195
ssS'2'
p196
(dp197
g5
S'--'
p198
sg7
S'--'
p199
sg9
g10
sg11
S'--'
p200
sg13
g10
sg14
S'Roddy White'
p201
sg16
S'2015'
p202
sg18
g196
sg20
S'--'
p203
sg22
S'09/20'
p204
sg24
S'--'
p205
sg26
S'--'
p206
sg28
S'--'
p207
sg30
S'W24-20'
p208
sg32
g41
sg34
g41
sg36
S'@NYG'
p209
sg38
S'--'
p210
sg40
g41
sg42
S'--'
p211
ssg158
(dp212
g5
S'--'
p213
sg7
S'--'
p214
sg9
g10
sg11
S'--'
p215
sg13
g10
sg14
S'Roddy White'
p216
sg16
S'2015'
p217
sg18
g158
sg20
S'--'
p218
sg22
S'10/11'
p219
sg24
S'11.5'
p220
sg26
S'--'
p221
sg28
S'--'
p222
sg30
S'W25-19'
p223
sg32
S'23'
p224
sg34
g196
sg36
S'WAS'
p225
sg38
S'16'
p226
sg40
g41
sg42
S'--'
p227
ssg35
(dp228
g5
S'--'
p229
sg7
S'--'
p230
sg9
g10
sg11
S'--'
p231
sg13
g10
sg14
S'Roddy White'
p232
sg16
S'2015'
p233
sg18
g35
sg20
S'--'
p234
sg22
S'10/04'
p235
sg24
S'4.0'
p236
sg26
S'--'
p237
sg28
S'--'
p238
sg30
S'W48-21'
p239
sg32
S'8'
p240
sg34
g196
sg36
S'HOU'
p241
sg38
g35
sg40
g41
sg42
S'--'
p242
ssS'7'
p243
(dp244
g5
S'--'
p245
sg7
S'--'
p246
sg9
g10
sg11
S'--'
p247
sg13
g10
sg14
S'Roddy White'
p248
sg16
S'2015'
p249
sg18
g243
sg20
S'--'
p250
sg22
S'10/25'
p251
sg24
S'16.0'
p252
sg26
S'--'
p253
sg28
S'--'
p254
sg30
S'W10-7'
p255
sg32
S'48'
p256
sg34
g66
sg36
S'@TEN'
p257
sg38
S'17'
p258
sg40
g41
sg42
S'--'
p259
ssg85
(dp260
g5
S'--'
p261
sg7
S'--'
p262
sg9
g10
sg11
S'--'
p263
sg13
g10
sg14
S'Roddy White'
p264
sg16
S'2015'
p265
sg18
g85
sg20
S'--'
p266
sg22
S'10/15'
p267
sg24
S'7.7'
p268
sg26
S'--'
p269
sg28
S'--'
p270
sg30
S'L21-31'
p271
sg32
S'23'
p272
sg34
g66
sg36
S'@NO'
p273
sg38
g240
sg40
g10
sg42
S'--'
p274
ssS'9'
p275
(dp276
g5
S'--'
p277
sg7
S'--'
p278
sg9
g10
sg11
S'--'
p279
sg13
g10
sg14
S'Roddy White'
p280
sg16
S'2015'
p281
sg18
g275
sg20
S'--'
p282
sg22
S'11/08'
p283
sg24
S'20.0'
p284
sg26
S'--'
p285
sg28
S'--'
p286
sg30
S'L16-17'
p287
sg32
S'20'
p288
sg34
g10
sg36
S'@SF'
p289
sg38
S'20'
p290
sg40
g41
sg42
S'--'
p291
ssg240
(dp292
g5
S'--'
p293
sg7
S'--'
p294
sg9
g10
sg11
S'--'
p295
sg13
g10
sg14
S'Roddy White'
p296
sg16
S'2015'
p297
sg18
g240
sg20
S'--'
p298
sg22
S'11/01'
p299
sg24
S'12.0'
p300
sg26
S'--'
p301
sg28
S'--'
p302
sg30
S'L20-23'
p303
sg32
S'24'
p304
sg34
g196
sg36
S'TB'
p305
sg38
S'19'
p306
sg40
g41
sg42
S'--'
p307
sssS'2014'
p308
(dp309
g3
(dp310
g5
S'--'
p311
sg7
S'--'
p312
sg9
g10
sg11
S'--'
p313
sg13
g10
sg14
S'Roddy White'
p314
sg16
S'2014'
p315
sg18
S'11'
p316
sg20
S'--'
p317
sg22
S'11/16'
p318
sg24
S'9.4'
p319
sg26
S'--'
p320
sg28
S'--'
p321
sg30
S'W19-17'
p322
sg32
S'75'
p323
sg34
g240
sg36
S'@CAR'
p324
sg38
S'19'
p325
sg40
g10
sg42
S'--'
p326
ssg44
(dp327
g5
S'--'
p328
sg7
S'--'
p329
sg9
g10
sg11
S'--'
p330
sg13
g10
sg14
S'Roddy White'
p331
sg16
S'2014'
p332
sg18
S'10'
p333
sg20
S'--'
p334
sg22
S'11/09'
p335
sg24
S'12.0'
p336
sg26
S'--'
p337
sg28
S'--'
p338
sg30
S'W27-17'
p339
sg32
S'72'
p340
sg34
g85
sg36
S'@TB'
p341
sg38
S'21'
p342
sg40
g10
sg42
S'--'
p343
ssg51
(dp344
g5
S'--'
p345
sg7
S'--'
p346
sg9
g41
sg11
S'--'
p347
sg13
g41
sg14
S'Roddy White'
p348
sg16
S'2014'
p349
sg18
S'13'
p350
sg20
S'--'
p351
sg22
S'11/30'
p352
sg24
S'--'
p353
sg26
S'--'
p354
sg28
S'--'
p355
sg30
S'W29-18'
p356
sg32
S'--'
p357
sg34
S'--'
p358
sg36
S'ARI'
p359
sg38
S'--'
p360
sg40
S'--'
p361
sg42
S'--'
p362
ssg70
(dp363
g5
S'--'
p364
sg7
S'--'
p365
sg9
g10
sg11
S'--'
p366
sg13
g10
sg14
S'Roddy White'
p367
sg16
S'2014'
p368
sg18
S'12'
p369
sg20
S'--'
p370
sg22
S'11/23'
p371
sg24
S'10.7'
p372
sg26
S'--'
p373
sg28
S'--'
p374
sg30
S'L24-26'
p375
sg32
S'96'
p376
sg34
g275
sg36
S'CLE'
p377
sg38
S'32'
p378
sg40
g41
sg42
S'--'
p379
ssg89
(dp380
g5
S'--'
p381
sg7
S'--'
p382
sg9
g10
sg11
g41
sg13
g10
sg14
S'Roddy White'
p383
sg16
S'2014'
p384
sg18
S'15'
p385
sg20
S'--'
p386
sg22
S'12/14'
p387
sg24
S'8.3'
p388
sg26
g10
sg28
S'--'
p389
sg30
S'L20-27'
p390
sg32
S'58'
p391
sg34
g243
sg36
S'PIT'
p392
sg38
S'24'
p393
sg40
g10
sg42
S'--'
p394
ssg107
(dp395
g5
S'--'
p396
sg7
S'--'
p397
sg9
g10
sg11
S'--'
p398
sg13
g10
sg14
S'Roddy White'
p399
sg16
S'2014'
p400
sg18
S'14'
p401
sg20
S'--'
p402
sg22
S'12/08'
p403
sg24
S'14.0'
p404
sg26
S'--'
p405
sg28
S'--'
p406
sg30
S'L37-43'
p407
sg32
S'42'
p408
sg34
g66
sg36
S'@GB'
p409
sg38
S'29'
p410
sg40
g10
sg42
S'--'
p411
ssg125
(dp412
g5
S'--'
p413
sg7
S'--'
p414
sg9
g10
sg11
g10
sg13
g10
sg14
S'Roddy White'
p415
sg16
S'2014'
p416
sg18
S'17'
p417
sg20
S'--'
p418
sg22
S'12/28'
p419
sg24
S'13.0'
p420
sg26
g10
sg28
S'--'
p421
sg30
S'L3-34'
p422
sg32
S'104'
p423
sg34
g240
sg36
S'CAR'
p424
sg38
S'20'
p425
sg40
g41
sg42
S'--'
p426
ssg143
(dp427
g5
S'--'
p428
sg7
S'--'
p429
sg9
g10
sg11
S'--'
p430
sg13
g10
sg14
S'Roddy White'
p431
sg16
S'2014'
p432
sg18
S'16'
p433
sg20
S'--'
p434
sg22
S'12/21'
p435
sg24
S'9.2'
p436
sg26
S'--'
p437
sg28
S'--'
p438
sg30
S'W30-14'
p439
sg32
S'55'
p440
sg34
g85
sg36
S'@NO'
p441
sg38
S'15'
p442
sg40
g41
sg42
S'--'
p443
ssg10
(dp444
g5
S'--'
p445
sg7
S'--'
p446
sg9
g10
sg11
S'--'
p447
sg13
g10
sg14
S'Roddy White'
p448
sg16
S'2014'
p449
sg18
g10
sg20
S'--'
p450
sg22
S'09/07'
p451
sg24
S'14.4'
p452
sg26
S'--'
p453
sg28
S'--'
p454
sg30
S'W37-34'
p455
sg32
S'72'
p456
sg34
g158
sg36
S'NO'
p457
sg38
S'39'
p458
sg40
g10
sg42
S'--'
p459
ssg66
(dp460
g5
S'--'
p461
sg7
S'--'
p462
sg9
g41
sg11
S'--'
p463
sg13
g41
sg14
S'Roddy White'
p464
sg16
S'2014'
p465
sg18
g66
sg20
S'--'
p466
sg22
S'09/18'
p467
sg24
S'--'
p468
sg26
S'--'
p469
sg28
S'--'
p470
sg30
S'W56-14'
p471
sg32
S'--'
p472
sg34
S'--'
p473
sg36
S'TB'
p474
sg38
S'--'
p475
sg40
S'--'
p476
sg42
S'--'
p477
ssg196
(dp478
g5
S'--'
p479
sg7
S'--'
p480
sg9
g10
sg11
S'--'
p481
sg13
g10
sg14
S'Roddy White'
p482
sg16
S'2014'
p483
sg18
g196
sg20
S'--'
p484
sg22
S'09/14'
p485
sg24
S'8.4'
p486
sg26
S'--'
p487
sg28
S'--'
p488
sg30
S'L10-24'
p489
sg32
S'42'
p490
sg34
g158
sg36
S'@CIN'
p491
sg38
S'19'
p492
sg40
g41
sg42
S'--'
p493
ssg158
(dp494
g5
S'--'
p495
sg7
S'--'
p496
sg9
g10
sg11
S'--'
p497
sg13
g10
sg14
S'Roddy White'
p498
sg16
S'2014'
p499
sg18
g158
sg20
S'--'
p500
sg22
S'10/05'
p501
sg24
S'13.0'
p502
sg26
S'--'
p503
sg28
S'--'
p504
sg30
S'L20-30'
p505
sg32
S'26'
p506
sg34
g196
sg36
S'@NYG'
p507
sg38
S'22'
p508
sg40
g41
sg42
S'--'
p509
ssg35
(dp510
g5
S'--'
p511
sg7
S'--'
p512
sg9
g10
sg11
S'--'
p513
sg13
g10
sg14
S'Roddy White'
p514
sg16
S'2014'
p515
sg18
g35
sg20
S'--'
p516
sg22
S'09/28'
p517
sg24
S'18.3'
p518
sg26
S'--'
p519
sg28
S'--'
p520
sg30
S'L28-41'
p521
sg32
S'73'
p522
sg34
g35
sg36
S'@MIN'
p523
sg38
S'24T'
p524
sg40
g10
sg42
S'--'
p525
ssg243
(dp526
g5
S'--'
p527
sg7
S'--'
p528
sg9
g10
sg11
S'--'
p529
sg13
g10
sg14
S'Roddy White'
p530
sg16
S'2014'
p531
sg18
g243
sg20
S'--'
p532
sg22
S'10/19'
p533
sg24
S'11.1'
p534
sg26
S'--'
p535
sg28
S'--'
p536
sg30
S'L7-29'
p537
sg32
S'100'
p538
sg34
g275
sg36
S'@BAL'
p539
sg38
S'23'
p540
sg40
g10
sg42
S'--'
p541
ssg85
(dp542
g5
S'--'
p543
sg7
S'--'
p544
sg9
g10
sg11
S'--'
p545
sg13
g10
sg14
S'Roddy White'
p546
sg16
S'2014'
p547
sg18
g85
sg20
S'--'
p548
sg22
S'10/12'
p549
sg24
S'13.3'
p550
sg26
S'--'
p551
sg28
S'--'
p552
sg30
S'L13-27'
p553
sg32
S'40'
p554
sg34
g66
sg36
S'CHI'
p555
sg38
S'23'
p556
sg40
g41
sg42
S'--'
p557
ssg275
(dp558
g5
g46
sg7
g46
sg9
g46
sg11
g46
sg13
g46
sg14
S'Roddy White'
p559
sg16
S'2014'
p560
sg18
g275
sg20
g46
sg22
S'Bye'
p561
sg24
g46
sg26
g46
sg28
g46
sg30
g46
sg32
g46
sg34
g46
sg36
g46
sg38
g46
sg40
g46
sg42
g46
ssg240
(dp562
g5
S'--'
p563
sg7
S'--'
p564
sg9
g10
sg11
g41
sg13
g10
sg14
S'Roddy White'
p565
sg16
S'2014'
p566
sg18
g240
sg20
S'--'
p567
sg22
S'10/26'
p568
sg24
S'13.2'
p569
sg26
g10
sg28
S'--'
p570
sg30
S'L21-22'
p571
sg32
S'66'
p572
sg34
g158
sg36
S'DET'
p573
sg38
S'24'
p574
sg40
g41
sg42
S'--'
p575
sssS'2011'
p576
(dp577
g3
(dp578
g5
S'--'
p579
sg7
S'--'
p580
sg9
g10
sg11
S'--'
p581
sg13
g10
sg14
S'Roddy White'
p582
sg16
S'2011'
p583
sg18
S'11'
p584
sg20
S'--'
p585
sg22
S'11/20'
p586
sg24
S'21.0'
p587
sg26
S'--'
p588
sg28
S'--'
p589
sg30
S'W23-17'
p590
sg32
S'147'
p591
sg34
g243
sg36
S'TEN'
p592
sg38
S'43'
p593
sg40
g41
sg42
S'--'
p594
ssg44
(dp595
g5
S'--'
p596
sg7
S'--'
p597
sg9
g10
sg11
S'--'
p598
sg13
g10
sg14
S'Roddy White'
p599
sg16
S'2011'
p600
sg18
S'10'
p601
sg20
S'--'
p602
sg22
S'11/13'
p603
sg24
S'15.5'
p604
sg26
S'--'
p605
sg28
S'--'
p606
sg30
S'L23-26'
p607
sg32
S'62'
p608
sg34
g35
sg36
S'NO'
p609
sg38
S'20'
p610
sg40
g41
sg42
S'--'
p611
ssg51
(dp612
g5
S'--'
p613
sg7
S'--'
p614
sg9
g10
sg11
S'--'
p615
sg13
g10
sg14
S'Roddy White'
p616
sg16
S'2011'
p617
sg18
S'13'
p618
sg20
S'--'
p619
sg22
S'12/04'
p620
sg24
S'12.8'
p621
sg26
S'--'
p622
sg28
S'--'
p623
sg30
S'L10-17'
p624
sg32
S'51'
p625
sg34
g35
sg36
S'@HOU'
p626
sg38
S'16'
p627
sg40
g10
sg42
S'--'
p628
ssg70
(dp629
g5
S'--'
p630
sg7
S'--'
p631
sg9
g10
sg11
S'--'
p632
sg13
g10
sg14
S'Roddy White'
p633
sg16
S'2011'
p634
sg18
S'12'
p635
sg20
S'--'
p636
sg22
S'11/27'
p637
sg24
S'12.0'
p638
sg26
S'--'
p639
sg28
S'--'
p640
sg30
S'W24-14'
p641
sg32
S'120'
p642
sg34
S'10'
p643
sg36
S'MIN'
p644
sg38
S'26'
p645
sg40
g10
sg42
S'--'
p646
ssg89
(dp647
g5
S'--'
p648
sg7
S'--'
p649
sg9
g10
sg11
S'--'
p650
sg13
g10
sg14
S'Roddy White'
p651
sg16
S'2011'
p652
sg18
S'15'
p653
sg20
S'--'
p654
sg22
S'12/15'
p655
sg24
S'13.5'
p656
sg26
S'--'
p657
sg28
S'--'
p658
sg30
S'W41-14'
p659
sg32
S'135'
p660
sg34
S'10'
p661
sg36
S'JAC'
p662
sg38
S'29T'
p663
sg40
g196
sg42
S'--'
p664
ssg107
(dp665
g5
S'--'
p666
sg7
S'--'
p667
sg9
g10
sg11
S'--'
p668
sg13
g10
sg14
S'Roddy White'
p669
sg16
S'2011'
p670
sg18
S'14'
p671
sg20
S'--'
p672
sg22
S'12/11'
p673
sg24
S'12.0'
p674
sg26
S'--'
p675
sg28
S'--'
p676
sg30
S'W31-23'
p677
sg32
S'84'
p678
sg34
g243
sg36
S'@CAR'
p679
sg38
S'26'
p680
sg40
g10
sg42
S'--'
p681
ssg125
(dp682
g5
S'--'
p683
sg7
S'--'
p684
sg9
g10
sg11
S'--'
p685
sg13
g10
sg14
S'Roddy White'
p686
sg16
S'2011'
p687
sg18
S'17'
p688
sg20
S'--'
p689
sg22
S'01/01'
p690
sg24
S'17.3'
p691
sg26
S'--'
p692
sg28
S'--'
p693
sg30
S'W45-24'
p694
sg32
S'69'
p695
sg34
g35
sg36
S'TB'
p696
sg38
S'23'
p697
sg40
g41
sg42
S'--'
p698
ssg143
(dp699
g5
S'--'
p700
sg7
S'--'
p701
sg9
g10
sg11
S'--'
p702
sg13
g10
sg14
S'Roddy White'
p703
sg16
S'2011'
p704
sg18
S'16'
p705
sg20
S'--'
p706
sg22
S'12/26'
p707
sg24
S'11.5'
p708
sg26
S'--'
p709
sg28
S'--'
p710
sg30
S'L16-45'
p711
sg32
S'127'
p712
sg34
S'11'
p713
sg36
S'@NO'
p714
sg38
S'26'
p715
sg40
g41
sg42
S'--'
p716
ssg10
(dp717
g5
S'--'
p718
sg7
S'--'
p719
sg9
g10
sg11
S'--'
p720
sg13
g10
sg14
S'Roddy White'
p721
sg16
S'2011'
p722
sg18
g10
sg20
S'--'
p723
sg22
S'09/11'
p724
sg24
S'7.6'
p725
sg26
S'--'
p726
sg28
S'--'
p727
sg30
S'L12-30'
p728
sg32
S'61'
p729
sg34
g240
sg36
S'@CHI'
p730
sg38
S'14'
p731
sg40
g41
sg42
S'--'
p732
ssg66
(dp733
g5
S'--'
p734
sg7
S'--'
p735
sg9
g10
sg11
S'--'
p736
sg13
g10
sg14
S'Roddy White'
p737
sg16
S'2011'
p738
sg18
g66
sg20
S'--'
p739
sg22
S'09/25'
p740
sg24
S'15.6'
p741
sg26
S'--'
p742
sg28
S'--'
p743
sg30
S'L13-16'
p744
sg32
S'140'
p745
sg34
g275
sg36
S'@TB'
p746
sg38
S'30'
p747
sg40
g41
sg42
S'--'
p748
ssg196
(dp749
g5
S'--'
p750
sg7
S'--'
p751
sg9
g10
sg11
S'--'
p752
sg13
g10
sg14
S'Roddy White'
p753
sg16
S'2011'
p754
sg18
g196
sg20
S'--'
p755
sg22
S'09/18'
p756
sg24
S'7.7'
p757
sg26
S'--'
p758
sg28
S'--'
p759
sg30
S'W35-31'
p760
sg32
S'23'
p761
sg34
g66
sg36
S'PHI'
p762
sg38
S'17'
p763
sg40
g10
sg42
S'--'
p764
ssg158
(dp765
g5
S'--'
p766
sg7
S'--'
p767
sg9
g10
sg11
S'--'
p768
sg13
g10
sg14
S'Roddy White'
p769
sg16
S'2011'
p770
sg18
g158
sg20
S'--'
p771
sg22
S'10/09'
p772
sg24
S'8.3'
p773
sg26
S'--'
p774
sg28
S'--'
p775
sg30
S'L14-25'
p776
sg32
S'50'
p777
sg34
g85
sg36
S'GB'
p778
sg38
S'15'
p779
sg40
g10
sg42
S'--'
p780
ssg35
(dp781
g5
S'--'
p782
sg7
S'--'
p783
sg9
g10
sg11
S'--'
p784
sg13
g10
sg14
S'Roddy White'
p785
sg16
S'2011'
p786
sg18
g35
sg20
S'--'
p787
sg22
S'10/02'
p788
sg24
S'13.0'
p789
sg26
S'--'
p790
sg28
S'--'
p791
sg30
S'W30-28'
p792
sg32
S'78'
p793
sg34
g85
sg36
S'@SEA'
p794
sg38
S'26'
p795
sg40
g41
sg42
S'--'
p796
ssg243
(dp797
g5
S'--'
p798
sg7
S'--'
p799
sg9
g10
sg11
S'--'
p800
sg13
g10
sg14
S'Roddy White'
p801
sg16
S'2011'
p802
sg18
g243
sg20
S'--'
p803
sg22
S'10/23'
p804
sg24
S'10.4'
p805
sg26
S'--'
p806
sg28
S'--'
p807
sg30
S'W23-16'
p808
sg32
S'52'
p809
sg34
g158
sg36
S'@DET'
p810
sg38
S'18T'
p811
sg40
g10
sg42
S'--'
p812
ssg85
(dp813
g5
S'--'
p814
sg7
S'--'
p815
sg9
g10
sg11
S'--'
p816
sg13
g10
sg14
S'Roddy White'
p817
sg16
S'2011'
p818
sg18
g85
sg20
S'--'
p819
sg22
S'10/16'
p820
sg24
S'10.5'
p821
sg26
S'--'
p822
sg28
S'--'
p823
sg30
S'W31-17'
p824
sg32
S'21'
p825
sg34
g196
sg36
S'CAR'
p826
sg38
S'14'
p827
sg40
g41
sg42
S'--'
p828
ssg275
(dp829
g5
S'--'
p830
sg7
S'--'
p831
sg9
g10
sg11
S'--'
p832
sg13
g10
sg14
S'Roddy White'
p833
sg16
S'2011'
p834
sg18
g275
sg20
S'--'
p835
sg22
S'11/06'
p836
sg24
S'19.0'
p837
sg26
S'--'
p838
sg28
S'--'
p839
sg30
S'W31-7'
p840
sg32
S'76'
p841
sg34
g35
sg36
S'@IND'
p842
sg38
S'33'
p843
sg40
g41
sg42
S'--'
p844
ssg240
(dp845
g5
g46
sg7
g46
sg9
g46
sg11
g46
sg13
g46
sg14
S'Roddy White'
p846
sg16
S'2011'
p847
sg18
g240
sg20
g46
sg22
S'Bye'
p848
sg24
g46
sg26
g46
sg28
g46
sg30
g46
sg32
g46
sg34
g46
sg36
g46
sg38
g46
sg40
g46
sg42
g46
sssS'2010'
p849
(dp850
g3
(dp851
g5
S'--'
p852
sg7
S'--'
p853
sg9
g10
sg11
S'--'
p854
sg13
g10
sg14
S'Roddy White'
p855
sg16
S'2010'
p856
sg18
S'11'
p857
sg20
S'--'
p858
sg22
S'11/21'
p859
sg24
S'9.2'
p860
sg26
S'--'
p861
sg28
S'--'
p862
sg30
S'W34-17'
p863
sg32
S'83'
p864
sg34
g275
sg36
S'@STL'
p865
sg38
S'26'
p866
sg40
g41
sg42
S'--'
p867
ssg44
(dp868
g5
S'--'
p869
sg7
S'--'
p870
sg9
g10
sg11
S'--'
p871
sg13
g10
sg14
S'Roddy White'
p872
sg16
S'2010'
p873
sg18
S'10'
p874
sg20
S'--'
p875
sg22
S'11/11'
p876
sg24
S'11.5'
p877
sg26
S'--'
p878
sg28
S'--'
p879
sg30
S'W26-21'
p880
sg32
S'138'
p881
sg34
S'12'
p882
sg36
S'BAL'
p883
sg38
S'33T'
p884
sg40
g196
sg42
S'--'
p885
ssg51
(dp886
g5
S'--'
p887
sg7
S'--'
p888
sg9
g10
sg11
S'--'
p889
sg13
g10
sg14
S'Roddy White'
p890
sg16
S'2010'
p891
sg18
S'13'
p892
sg20
S'--'
p893
sg22
S'12/05'
p894
sg24
S'10.6'
p895
sg26
S'--'
p896
sg28
S'--'
p897
sg30
S'W28-24'
p898
sg32
S'74'
p899
sg34
g243
sg36
S'@TB'
p900
sg38
S'25'
p901
sg40
g41
sg42
S'--'
p902
ssg70
(dp903
g5
S'--'
p904
sg7
S'--'
p905
sg9
g10
sg11
S'--'
p906
sg13
g10
sg14
S'Roddy White'
p907
sg16
S'2010'
p908
sg18
S'12'
p909
sg20
S'--'
p910
sg22
S'11/28'
p911
sg24
S'9.8'
p912
sg26
S'--'
p913
sg28
S'--'
p914
sg30
S'W20-17'
p915
sg32
S'49'
p916
sg34
g158
sg36
S'GB'
p917
sg38
S'14'
p918
sg40
g41
sg42
S'--'
p919
ssg89
(dp920
g5
S'--'
p921
sg7
S'--'
p922
sg9
g10
sg11
S'--'
p923
sg13
g10
sg14
S'Roddy White'
p924
sg16
S'2010'
p925
sg18
S'15'
p926
sg20
S'--'
p927
sg22
S'12/19'
p928
sg24
S'9.3'
p929
sg26
S'--'
p930
sg28
S'--'
p931
sg30
S'W34-18'
p932
sg32
S'65'
p933
sg34
g243
sg36
S'@SEA'
p934
sg38
S'15'
p935
sg40
g10
sg42
S'--'
p936
ssg107
(dp937
g5
S'--'
p938
sg7
S'--'
p939
sg9
g10
sg11
S'--'
p940
sg13
g10
sg14
S'Roddy White'
p941
sg16
S'2010'
p942
sg18
S'14'
p943
sg20
S'--'
p944
sg22
S'12/12'
p945
sg24
S'9.9'
p946
sg26
S'--'
p947
sg28
S'--'
p948
sg30
S'W31-10'
p949
sg32
S'79'
p950
sg34
g240
sg36
S'@CAR'
p951
sg38
S'18'
p952
sg40
g41
sg42
S'--'
p953
ssg125
(dp954
g5
S'--'
p955
sg7
S'--'
p956
sg9
g10
sg11
S'--'
p957
sg13
g10
sg14
S'Roddy White'
p958
sg16
S'2010'
p959
sg18
S'17'
p960
sg20
S'--'
p961
sg22
S'01/02'
p962
sg24
S'10.3'
p963
sg26
S'--'
p964
sg28
S'--'
p965
sg30
S'W31-10'
p966
sg32
S'62'
p967
sg34
g85
sg36
S'CAR'
p968
sg38
S'14T'
p969
sg40
g10
sg42
S'--'
p970
ssg143
(dp971
g5
S'--'
p972
sg7
S'--'
p973
sg9
g10
sg11
S'--'
p974
sg13
g10
sg14
S'Roddy White'
p975
sg16
S'2010'
p976
sg18
S'16'
p977
sg20
S'--'
p978
sg22
S'12/27'
p979
sg24
S'14.3'
p980
sg26
S'--'
p981
sg28
S'--'
p982
sg30
S'L14-17'
p983
sg32
S'43'
p984
sg34
g66
sg36
S'NO'
p985
sg38
S'18'
p986
sg40
g10
sg42
S'--'
p987
ssg10
(dp988
g5
S'--'
p989
sg7
S'--'
p990
sg9
g10
sg11
S'--'
p991
sg13
g10
sg14
S'Roddy White'
p992
sg16
S'2010'
p993
sg18
g10
sg20
S'--'
p994
sg22
S'09/12'
p995
sg24
S'8.5'
p996
sg26
S'--'
p997
sg28
S'--'
p998
sg30
S'L9-15'
p999
sg32
S'111'
p1000
sg34
S'13'
p1001
sg36
S'@PIT'
p1002
sg38
S'18'
p1003
sg40
g41
sg42
S'--'
p1004
ssg66
(dp1005
g5
S'--'
p1006
sg7
S'--'
p1007
sg9
g10
sg11
S'--'
p1008
sg13
g10
sg14
S'Roddy White'
p1009
sg16
S'2010'
p1010
sg18
g66
sg20
S'--'
p1011
sg22
S'09/26'
p1012
sg24
S'13.8'
p1013
sg26
S'--'
p1014
sg28
S'--'
p1015
sg30
S'W27-24'
p1016
sg32
S'69'
p1017
sg34
g158
sg36
S'@NO'
p1018
sg38
S'24'
p1019
sg40
g10
sg42
S'--'
p1020
ssg196
(dp1021
g5
S'--'
p1022
sg7
S'--'
p1023
sg9
g10
sg11
S'--'
p1024
sg13
g10
sg14
S'Roddy White'
p1025
sg16
S'2010'
p1026
sg18
g196
sg20
S'--'
p1027
sg22
S'09/19'
p1028
sg24
S'11.1'
p1029
sg26
S'--'
p1030
sg28
S'--'
p1031
sg30
S'W41-7'
p1032
sg32
S'78'
p1033
sg34
g243
sg36
S'ARI'
p1034
sg38
S'24'
p1035
sg40
g10
sg42
S'--'
p1036
ssg158
(dp1037
g5
S'--'
p1038
sg7
S'--'
p1039
sg9
g10
sg11
S'--'
p1040
sg13
g10
sg14
S'Roddy White'
p1041
sg16
S'2010'
p1042
sg18
g158
sg20
S'--'
p1043
sg22
S'10/10'
p1044
sg24
S'20.2'
p1045
sg26
S'--'
p1046
sg28
S'--'
p1047
sg30
S'W20-10'
p1048
sg32
S'101'
p1049
sg34
g158
sg36
S'@CLE'
p1050
sg38
S'45T'
p1051
sg40
g10
sg42
S'--'
p1052
ssg35
(dp1053
g5
S'--'
p1054
sg7
S'--'
p1055
sg9
g10
sg11
S'--'
p1056
sg13
g10
sg14
S'Roddy White'
p1057
sg16
S'2010'
p1058
sg18
g35
sg20
S'--'
p1059
sg22
S'10/03'
p1060
sg24
S'14.9'
p1061
sg26
S'--'
p1062
sg28
S'--'
p1063
sg30
S'W16-14'
p1064
sg32
S'104'
p1065
sg34
g243
sg36
S'SF'
p1066
sg38
S'20'
p1067
sg40
g41
sg42
S'--'
p1068
ssg243
(dp1069
g5
S'--'
p1070
sg7
S'--'
p1071
sg9
g10
sg11
g10
sg13
g10
sg14
S'Roddy White'
p1072
sg16
S'2010'
p1073
sg18
g243
sg20
S'--'
p1074
sg22
S'10/24'
p1075
sg24
S'18.3'
p1076
sg26
g10
sg28
S'--'
p1077
sg30
S'W39-32'
p1078
sg32
S'201'
p1079
sg34
S'11'
p1080
sg36
S'CIN'
p1081
sg38
S'46'
p1082
sg40
g196
sg42
S'--'
p1083
ssg85
(dp1084
g5
S'--'
p1085
sg7
S'--'
p1086
sg9
g10
sg11
S'--'
p1087
sg13
g10
sg14
S'Roddy White'
p1088
sg16
S'2010'
p1089
sg18
g85
sg20
S'--'
p1090
sg22
S'10/17'
p1091
sg24
S'13.8'
p1092
sg26
S'--'
p1093
sg28
S'--'
p1094
sg30
S'L17-31'
p1095
sg32
S'83'
p1096
sg34
g85
sg36
S'@PHI'
p1097
sg38
S'25'
p1098
sg40
g41
sg42
S'--'
p1099
ssg275
(dp1100
g5
g41
sg7
g66
sg9
g10
sg11
S'--'
p1101
sg13
g10
sg14
S'Roddy White'
p1102
sg16
S'2010'
p1103
sg18
g275
sg20
S'3.0'
p1104
sg22
S'11/07'
p1105
sg24
S'12.3'
p1106
sg26
S'--'
p1107
sg28
g10
sg30
S'W27-21'
p1108
sg32
S'49'
p1109
sg34
g35
sg36
S'TB'
p1110
sg38
S'22'
p1111
sg40
g41
sg42
g66
ssg240
(dp1112
g5
g46
sg7
g46
sg9
g46
sg11
g46
sg13
g46
sg14
S'Roddy White'
p1113
sg16
S'2010'
p1114
sg18
g240
sg20
g46
sg22
S'Bye'
p1115
sg24
g46
sg26
g46
sg28
g46
sg30
g46
sg32
g46
sg34
g46
sg36
g46
sg38
g46
sg40
g46
sg42
g46
sssS'2013'
p1116
(dp1117
g3
(dp1118
g5
S'--'
p1119
sg7
S'--'
p1120
sg9
g10
sg11
g10
sg13
g10
sg14
S'Roddy White'
p1121
sg16
S'2013'
p1122
sg18
S'11'
p1123
sg20
S'--'
p1124
sg22
S'11/17'
p1125
sg24
S'12.0'
p1126
sg26
g10
sg28
S'--'
p1127
sg30
S'L28-41'
p1128
sg32
S'36'
p1129
sg34
g66
sg36
S'@TB'
p1130
sg38
S'16'
p1131
sg40
g10
sg42
S'--'
p1132
ssg44
(dp1133
g5
S'--'
p1134
sg7
S'--'
p1135
sg9
g10
sg11
S'--'
p1136
sg13
g10
sg14
S'Roddy White'
p1137
sg16
S'2013'
p1138
sg18
S'10'
p1139
sg20
S'--'
p1140
sg22
S'11/10'
p1141
sg24
S'20.0'
p1142
sg26
S'--'
p1143
sg28
S'--'
p1144
sg30
S'L10-33'
p1145
sg32
S'20'
p1146
sg34
g10
sg36
S'SEA'
p1147
sg38
S'20'
p1148
sg40
g41
sg42
S'--'
p1149
ssg51
(dp1150
g5
S'--'
p1151
sg7
S'--'
p1152
sg9
g10
sg11
S'--'
p1153
sg13
g10
sg14
S'Roddy White'
p1154
sg16
S'2013'
p1155
sg18
S'13'
p1156
sg20
S'--'
p1157
sg22
S'12/01'
p1158
sg24
S'14.3'
p1159
sg26
S'--'
p1160
sg28
S'--'
p1161
sg30
S'W34-31'
p1162
sg32
S'143'
p1163
sg34
S'10'
p1164
sg36
S'@BUF'
p1165
sg38
S'29'
p1166
sg40
g41
sg42
S'--'
p1167
ssg70
(dp1168
g5
S'--'
p1169
sg7
S'--'
p1170
sg9
g10
sg11
S'--'
p1171
sg13
g10
sg14
S'Roddy White'
p1172
sg16
S'2013'
p1173
sg18
S'12'
p1174
sg20
S'--'
p1175
sg22
S'11/21'
p1176
sg24
S'12.0'
p1177
sg26
S'--'
p1178
sg28
S'--'
p1179
sg30
S'L13-17'
p1180
sg32
S'24'
p1181
sg34
g196
sg36
S'NO'
p1182
sg38
S'13'
p1183
sg40
g41
sg42
S'--'
p1184
ssg89
(dp1185
g5
S'--'
p1186
sg7
S'--'
p1187
sg9
g10
sg11
S'--'
p1188
sg13
g10
sg14
S'Roddy White'
p1189
sg16
S'2013'
p1190
sg18
S'15'
p1191
sg20
S'--'
p1192
sg22
S'12/15'
p1193
sg24
S'10.6'
p1194
sg26
S'--'
p1195
sg28
S'--'
p1196
sg30
S'W27-26'
p1197
sg32
S'53'
p1198
sg34
g158
sg36
S'WAS'
p1199
sg38
S'19'
p1200
sg40
g41
sg42
S'--'
p1201
ssg107
(dp1202
g5
S'--'
p1203
sg7
S'--'
p1204
sg9
g10
sg11
S'--'
p1205
sg13
g10
sg14
S'Roddy White'
p1206
sg16
S'2013'
p1207
sg18
S'14'
p1208
sg20
S'--'
p1209
sg22
S'12/08'
p1210
sg24
S'9.3'
p1211
sg26
S'--'
p1212
sg28
S'--'
p1213
sg30
S'L21-22'
p1214
sg32
S'74'
p1215
sg34
g240
sg36
S'@GB'
p1216
sg38
S'21'
p1217
sg40
g41
sg42
S'--'
p1218
ssg125
(dp1219
g5
S'--'
p1220
sg7
S'--'
p1221
sg9
g10
sg11
S'--'
p1222
sg13
g10
sg14
S'Roddy White'
p1223
sg16
S'2013'
p1224
sg18
S'17'
p1225
sg20
S'--'
p1226
sg22
S'12/29'
p1227
sg24
S'11.4'
p1228
sg26
S'--'
p1229
sg28
S'--'
p1230
sg30
S'L20-21'
p1231
sg32
S'91'
p1232
sg34
g240
sg36
S'CAR'
p1233
sg38
S'39T'
p1234
sg40
g10
sg42
S'--'
p1235
ssg143
(dp1236
g5
S'--'
p1237
sg7
S'--'
p1238
sg9
g10
sg11
S'--'
p1239
sg13
g10
sg14
S'Roddy White'
p1240
sg16
S'2013'
p1241
sg18
S'16'
p1242
sg20
S'--'
p1243
sg22
S'12/23'
p1244
sg24
S'11.8'
p1245
sg26
S'--'
p1246
sg28
S'--'
p1247
sg30
S'L24-34'
p1248
sg32
S'141'
p1249
sg34
S'12'
p1250
sg36
S'@SF'
p1251
sg38
S'39T'
p1252
sg40
g10
sg42
S'--'
p1253
ssg10
(dp1254
g5
S'--'
p1255
sg7
S'--'
p1256
sg9
g10
sg11
S'--'
p1257
sg13
g10
sg14
S'Roddy White'
p1258
sg16
S'2013'
p1259
sg18
g10
sg20
S'--'
p1260
sg22
S'09/08'
p1261
sg24
S'9.5'
p1262
sg26
S'--'
p1263
sg28
S'--'
p1264
sg30
S'L17-23'
p1265
sg32
S'19'
p1266
sg34
g196
sg36
S'@NO'
p1267
sg38
S'15'
p1268
sg40
g41
sg42
S'--'
p1269
ssg66
(dp1270
g5
S'--'
p1271
sg7
S'--'
p1272
sg9
g10
sg11
S'--'
p1273
sg13
g10
sg14
S'Roddy White'
p1274
sg16
S'2013'
p1275
sg18
g66
sg20
S'--'
p1276
sg22
S'09/22'
p1277
sg24
S'8.0'
p1278
sg26
S'--'
p1279
sg28
S'--'
p1280
sg30
S'L23-27'
p1281
sg32
S'16'
p1282
sg34
g196
sg36
S'@MIA'
p1283
sg38
S'10'
p1284
sg40
g41
sg42
S'--'
p1285
ssg196
(dp1286
g5
S'--'
p1287
sg7
S'--'
p1288
sg9
g10
sg11
S'--'
p1289
sg13
g10
sg14
S'Roddy White'
p1290
sg16
S'2013'
p1291
sg18
g196
sg20
S'--'
p1292
sg22
S'09/15'
p1293
sg24
S'7.0'
p1294
sg26
S'--'
p1295
sg28
S'--'
p1296
sg30
S'W31-24'
p1297
sg32
S'21'
p1298
sg34
g66
sg36
S'STL'
p1299
sg38
g275
sg40
g41
sg42
S'--'
p1300
ssg158
(dp1301
g5
S'--'
p1302
sg7
S'--'
p1303
sg9
g10
sg11
g41
sg13
g10
sg14
S'Roddy White'
p1304
sg16
S'2013'
p1305
sg18
g158
sg20
S'--'
p1306
sg22
S'10/07'
p1307
sg24
S'11.3'
p1308
sg26
g10
sg28
S'--'
p1309
sg30
S'L28-30'
p1310
sg32
S'45'
p1311
sg34
g35
sg36
S'NYJ'
p1312
sg38
S'18'
p1313
sg40
g41
sg42
S'--'
p1314
ssg35
(dp1315
g5
S'--'
p1316
sg7
S'--'
p1317
sg9
g10
sg11
S'--'
p1318
sg13
g10
sg14
S'Roddy White'
p1319
sg16
S'2013'
p1320
sg18
g35
sg20
S'--'
p1321
sg22
S'09/29'
p1322
sg24
S'9.3'
p1323
sg26
S'--'
p1324
sg28
S'--'
p1325
sg30
S'L23-30'
p1326
sg32
S'28'
p1327
sg34
g66
sg36
S'NE'
p1328
sg38
S'14'
p1329
sg40
g41
sg42
S'--'
p1330
ssg243
(dp1331
g5
S'--'
p1332
sg7
S'--'
p1333
sg9
g41
sg11
S'--'
p1334
sg13
g41
sg14
S'Roddy White'
p1335
sg16
S'2013'
p1336
sg18
g243
sg20
S'--'
p1337
sg22
S'10/20'
p1338
sg24
S'--'
p1339
sg26
S'--'
p1340
sg28
S'--'
p1341
sg30
S'W31-23'
p1342
sg32
S'--'
p1343
sg34
S'--'
p1344
sg36
S'TB'
p1345
sg38
S'--'
p1346
sg40
S'--'
p1347
sg42
S'--'
p1348
ssg85
(dp1349
g5
g46
sg7
g46
sg9
g46
sg11
g46
sg13
g46
sg14
S'Roddy White'
p1350
sg16
S'2013'
p1351
sg18
g85
sg20
g46
sg22
S'Bye'
p1352
sg24
g46
sg26
g46
sg28
g46
sg30
g46
sg32
g46
sg34
g46
sg36
g46
sg38
g46
sg40
g46
sg42
g46
ssg275
(dp1353
g5
S'--'
p1354
sg7
S'--'
p1355
sg9
g41
sg11
S'--'
p1356
sg13
g41
sg14
S'Roddy White'
p1357
sg16
S'2013'
p1358
sg18
g275
sg20
S'--'
p1359
sg22
S'11/03'
p1360
sg24
S'--'
p1361
sg26
S'--'
p1362
sg28
S'--'
p1363
sg30
S'L10-34'
p1364
sg32
S'--'
p1365
sg34
S'--'
p1366
sg36
S'@CAR'
p1367
sg38
S'--'
p1368
sg40
S'--'
p1369
sg42
S'--'
p1370
ssg240
(dp1371
g5
S'--'
p1372
sg7
S'--'
p1373
sg9
g41
sg11
S'--'
p1374
sg13
g41
sg14
S'Roddy White'
p1375
sg16
S'2013'
p1376
sg18
g240
sg20
S'--'
p1377
sg22
S'10/27'
p1378
sg24
S'--'
p1379
sg26
S'--'
p1380
sg28
S'--'
p1381
sg30
S'L13-27'
p1382
sg32
S'--'
p1383
sg34
S'--'
p1384
sg36
S'@ARI'
p1385
sg38
S'--'
p1386
sg40
S'--'
p1387
sg42
S'--'
p1388
sssS'2012'
p1389
(dp1390
g3
(dp1391
g5
S'--'
p1392
sg7
S'--'
p1393
sg9
g10
sg11
g41
sg13
g10
sg14
S'Roddy White'
p1394
sg16
S'2012'
p1395
sg18
S'11'
p1396
sg20
S'--'
p1397
sg22
S'11/18'
p1398
sg24
S'15.4'
p1399
sg26
g10
sg28
S'--'
p1400
sg30
S'W23-19'
p1401
sg32
S'123'
p1402
sg34
g240
sg36
S'ARI'
p1403
sg38
S'37'
p1404
sg40
g41
sg42
S'--'
p1405
ssg44
(dp1406
g5
S'--'
p1407
sg7
S'--'
p1408
sg9
g10
sg11
S'--'
p1409
sg13
g10
sg14
S'Roddy White'
p1410
sg16
S'2012'
p1411
sg18
S'10'
p1412
sg20
S'--'
p1413
sg22
S'11/11'
p1414
sg24
S'16.3'
p1415
sg26
S'--'
p1416
sg28
S'--'
p1417
sg30
S'L27-31'
p1418
sg32
S'114'
p1419
sg34
g243
sg36
S'@NO'
p1420
sg38
S'49'
p1421
sg40
g41
sg42
S'--'
p1422
ssg51
(dp1423
g5
S'--'
p1424
sg7
S'--'
p1425
sg9
g10
sg11
S'--'
p1426
sg13
g10
sg14
S'Roddy White'
p1427
sg16
S'2012'
p1428
sg18
S'13'
p1429
sg20
S'--'
p1430
sg22
S'11/29'
p1431
sg24
S'20.0'
p1432
sg26
S'--'
p1433
sg28
S'--'
p1434
sg30
S'W23-13'
p1435
sg32
S'20'
p1436
sg34
g10
sg36
S'NO'
p1437
sg38
S'20'
p1438
sg40
g41
sg42
S'--'
p1439
ssg70
(dp1440
g5
S'--'
p1441
sg7
S'--'
p1442
sg9
g10
sg11
S'--'
p1443
sg13
g10
sg14
S'Roddy White'
p1444
sg16
S'2012'
p1445
sg18
S'12'
p1446
sg20
S'--'
p1447
sg22
S'11/25'
p1448
sg24
S'11.4'
p1449
sg26
S'--'
p1450
sg28
S'--'
p1451
sg30
S'W24-23'
p1452
sg32
S'57'
p1453
sg34
g158
sg36
S'@TB'
p1454
sg38
S'29'
p1455
sg40
g41
sg42
S'--'
p1456
ssg89
(dp1457
g5
S'--'
p1458
sg7
S'--'
p1459
sg9
g10
sg11
S'--'
p1460
sg13
g10
sg14
S'Roddy White'
p1461
sg16
S'2012'
p1462
sg18
S'15'
p1463
sg20
S'--'
p1464
sg22
S'12/16'
p1465
sg24
S'8.0'
p1466
sg26
S'--'
p1467
sg28
S'--'
p1468
sg30
S'W34-0'
p1469
sg32
S'16'
p1470
sg34
g196
sg36
S'NYG'
p1471
sg38
S'11'
p1472
sg40
g41
sg42
S'--'
p1473
ssg107
(dp1474
g5
S'--'
p1475
sg7
S'--'
p1476
sg9
g10
sg11
S'--'
p1477
sg13
g10
sg14
S'Roddy White'
p1478
sg16
S'2012'
p1479
sg18
S'14'
p1480
sg20
S'--'
p1481
sg22
S'12/09'
p1482
sg24
S'13.0'
p1483
sg26
S'--'
p1484
sg28
S'--'
p1485
sg30
S'L20-30'
p1486
sg32
S'117'
p1487
sg34
g275
sg36
S'@CAR'
p1488
sg38
S'18'
p1489
sg40
g10
sg42
S'--'
p1490
ssg125
(dp1491
g5
S'--'
p1492
sg7
S'--'
p1493
sg9
g10
sg11
S'--'
p1494
sg13
g10
sg14
S'Roddy White'
p1495
sg16
S'2012'
p1496
sg18
S'17'
p1497
sg20
S'--'
p1498
sg22
S'12/30'
p1499
sg24
S'8.4'
p1500
sg26
S'--'
p1501
sg28
S'--'
p1502
sg30
S'L17-22'
p1503
sg32
S'42'
p1504
sg34
g158
sg36
S'TB'
p1505
sg38
S'14'
p1506
sg40
g41
sg42
S'--'
p1507
ssg143
(dp1508
g5
S'--'
p1509
sg7
S'--'
p1510
sg9
g10
sg11
S'--'
p1511
sg13
g10
sg14
S'Roddy White'
p1512
sg16
S'2012'
p1513
sg18
S'16'
p1514
sg20
S'--'
p1515
sg22
S'12/22'
p1516
sg24
S'19.1'
p1517
sg26
S'--'
p1518
sg28
S'--'
p1519
sg30
S'W31-18'
p1520
sg32
S'153'
p1521
sg34
g240
sg36
S'@DET'
p1522
sg38
S'44T'
p1523
sg40
g196
sg42
S'--'
p1524
ssg10
(dp1525
g5
S'--'
p1526
sg7
S'--'
p1527
sg9
g10
sg11
S'--'
p1528
sg13
g10
sg14
S'Roddy White'
p1529
sg16
S'2012'
p1530
sg18
g10
sg20
S'--'
p1531
sg22
S'09/09'
p1532
sg24
S'14.5'
p1533
sg26
S'--'
p1534
sg28
S'--'
p1535
sg30
S'W40-24'
p1536
sg32
S'87'
p1537
sg34
g85
sg36
S'@KC'
p1538
sg38
S'26'
p1539
sg40
g41
sg42
S'--'
p1540
ssg66
(dp1541
g5
S'--'
p1542
sg7
S'--'
p1543
sg9
g10
sg11
S'--'
p1544
sg13
g10
sg14
S'Roddy White'
p1545
sg16
S'2012'
p1546
sg18
g66
sg20
S'--'
p1547
sg22
S'09/23'
p1548
sg24
S'11.0'
p1549
sg26
S'--'
p1550
sg28
S'--'
p1551
sg30
S'W27-3'
p1552
sg32
S'55'
p1553
sg34
g158
sg36
S'@SD'
p1554
sg38
S'19'
p1555
sg40
g41
sg42
S'--'
p1556
ssg196
(dp1557
g5
S'--'
p1558
sg7
S'--'
p1559
sg9
g41
sg11
S'--'
p1560
sg13
g10
sg14
S'Roddy White'
p1561
sg16
S'2012'
p1562
sg18
g196
sg20
S'--'
p1563
sg22
S'09/17'
p1564
sg24
S'12.8'
p1565
sg26
S'--'
p1566
sg28
S'--'
p1567
sg30
S'W27-21'
p1568
sg32
S'102'
p1569
sg34
g240
sg36
S'DEN'
p1570
sg38
S'21'
p1571
sg40
g10
sg42
S'--'
p1572
ssg158
(dp1573
g5
S'--'
p1574
sg7
S'--'
p1575
sg9
g10
sg11
S'--'
p1576
sg13
g10
sg14
S'Roddy White'
p1577
sg16
S'2012'
p1578
sg18
g158
sg20
S'--'
p1579
sg22
S'10/07'
p1580
sg24
S'17.0'
p1581
sg26
S'--'
p1582
sg28
S'--'
p1583
sg30
S'W24-17'
p1584
sg32
S'68'
p1585
sg34
g35
sg36
S'@WAS'
p1586
sg38
S'20'
p1587
sg40
g41
sg42
S'--'
p1588
ssg35
(dp1589
g5
S'--'
p1590
sg7
S'--'
p1591
sg9
g10
sg11
S'--'
p1592
sg13
g10
sg14
S'Roddy White'
p1593
sg16
S'2012'
p1594
sg18
g35
sg20
S'--'
p1595
sg22
S'09/30'
p1596
sg24
S'21.1'
p1597
sg26
S'--'
p1598
sg28
S'--'
p1599
sg30
S'W30-28'
p1600
sg32
S'169'
p1601
sg34
g240
sg36
S'CAR'
p1602
sg38
S'59'
p1603
sg40
g196
sg42
S'--'
p1604
ssg243
(dp1605
g5
g46
sg7
g46
sg9
g46
sg11
g46
sg13
g46
sg14
S'Roddy White'
p1606
sg16
S'2012'
p1607
sg18
g243
sg20
g46
sg22
S'Bye'
p1608
sg24
g46
sg26
g46
sg28
g46
sg30
g46
sg32
g46
sg34
g46
sg36
g46
sg38
g46
sg40
g46
sg42
g46
ssg85
(dp1609
g5
S'--'
p1610
sg7
S'--'
p1611
sg9
g10
sg11
S'--'
p1612
sg13
g10
sg14
S'Roddy White'
p1613
sg16
S'2012'
p1614
sg18
g85
sg20
S'--'
p1615
sg22
S'10/14'
p1616
sg24
S'12.0'
p1617
sg26
S'--'
p1618
sg28
S'--'
p1619
sg30
S'W23-20'
p1620
sg32
S'72'
p1621
sg34
g85
sg36
S'OAK'
p1622
sg38
S'26'
p1623
sg40
g10
sg42
S'--'
p1624
ssg275
(dp1625
g5
S'--'
p1626
sg7
S'--'
p1627
sg9
g10
sg11
S'--'
p1628
sg13
g10
sg14
S'Roddy White'
p1629
sg16
S'2012'
p1630
sg18
g275
sg20
S'--'
p1631
sg22
S'11/04'
p1632
sg24
S'16.9'
p1633
sg26
S'--'
p1634
sg28
S'--'
p1635
sg30
S'W19-13'
p1636
sg32
S'118'
p1637
sg34
g243
sg36
S'DAL'
p1638
sg38
S'26'
p1639
sg40
g41
sg42
S'--'
p1640
ssg240
(dp1641
g5
S'--'
p1642
sg7
S'--'
p1643
sg9
g10
sg11
S'--'
p1644
sg13
g10
sg14
S'Roddy White'
p1645
sg16
S'2012'
p1646
sg18
g240
sg20
S'--'
p1647
sg22
S'10/28'
p1648
sg24
S'12.7'
p1649
sg26
S'--'
p1650
sg28
S'--'
p1651
sg30
S'W30-17'
p1652
sg32
S'38'
p1653
sg34
g66
sg36
S'@PHI'
p1654
sg38
S'14'
p1655
sg40
g41
sg42
S'--'
p1656
sss.