(dp0
S'2014'
p1
(dp2
S'11'
p3
(dp4
S'RushTD'
p5
S'--'
p6
sS'RushYds'
p7
S'--'
p8
sS'GS'
p9
S'0'
p10
sS'Lost'
p11
S'--'
p12
sS'G'
p13
g10
sS'Player'
p14
S'Rodney Smith'
p15
sS'Year'
p16
S'2014'
p17
sS'WK'
p18
S'11'
p19
sS'RushAvg'
p20
S'--'
p21
sS'Game Date'
p22
S'11/16'
p23
sS'RecAvg'
p24
S'--'
p25
sS'FUM'
p26
S'--'
p27
sS'RushAtt'
p28
S'--'
p29
sS'Result'
p30
S'L7-23'
p31
sS'RecYds'
p32
S'--'
p33
sS'Rec'
p34
S'--'
p35
sS'Opp'
p36
S'HOU'
p37
sS'RecLng'
p38
S'--'
p39
sS'RecTD'
p40
S'--'
p41
sS'RushLng'
p42
S'--'
p43
ssS'10'
p44
(dp45
g5
S'--'
p46
sg7
S'--'
p47
sg9
g10
sg11
S'--'
p48
sg13
S'1'
p49
sg14
S'Rodney Smith'
p50
sg16
S'2014'
p51
sg18
S'10'
p52
sg20
S'--'
p53
sg22
S'11/06'
p54
sg24
S'--'
p55
sg26
S'--'
p56
sg28
S'--'
p57
sg30
S'W24-3'
p58
sg32
S'--'
p59
sg34
S'--'
p60
sg36
S'@CIN'
p61
sg38
S'--'
p62
sg40
S'--'
p63
sg42
S'--'
p64
ssS'13'
p65
(dp66
g5
S'--'
p67
sg7
S'--'
p68
sg9
g10
sg11
S'--'
p69
sg13
g10
sg14
S'Rodney Smith'
p70
sg16
S'2014'
p71
sg18
S'13'
p72
sg20
S'--'
p73
sg22
S'11/30'
p74
sg24
S'--'
p75
sg26
S'--'
p76
sg28
S'--'
p77
sg30
S'L10-26'
p78
sg32
S'--'
p79
sg34
S'--'
p80
sg36
S'@BUF'
p81
sg38
S'--'
p82
sg40
S'--'
p83
sg42
S'--'
p84
ssS'12'
p85
(dp86
g5
S'--'
p87
sg7
S'--'
p88
sg9
g10
sg11
S'--'
p89
sg13
g10
sg14
S'Rodney Smith'
p90
sg16
S'2014'
p91
sg18
S'12'
p92
sg20
S'--'
p93
sg22
S'11/23'
p94
sg24
S'--'
p95
sg26
S'--'
p96
sg28
S'--'
p97
sg30
S'W26-24'
p98
sg32
S'--'
p99
sg34
S'--'
p100
sg36
S'@ATL'
p101
sg38
S'--'
p102
sg40
S'--'
p103
sg42
S'--'
p104
ssS'15'
p105
(dp106
g5
S'--'
p107
sg7
S'--'
p108
sg9
g10
sg11
S'--'
p109
sg13
g49
sg14
S'Rodney Smith'
p110
sg16
S'2014'
p111
sg18
S'15'
p112
sg20
S'--'
p113
sg22
S'12/14'
p114
sg24
S'--'
p115
sg26
S'--'
p116
sg28
S'--'
p117
sg30
S'L0-30'
p118
sg32
S'--'
p119
sg34
S'--'
p120
sg36
S'CIN'
p121
sg38
S'--'
p122
sg40
S'--'
p123
sg42
S'--'
p124
ssS'14'
p125
(dp126
g5
S'--'
p127
sg7
S'--'
p128
sg9
g10
sg11
S'--'
p129
sg13
g10
sg14
S'Rodney Smith'
p130
sg16
S'2014'
p131
sg18
S'14'
p132
sg20
S'--'
p133
sg22
S'12/07'
p134
sg24
S'--'
p135
sg26
S'--'
p136
sg28
S'--'
p137
sg30
S'L24-25'
p138
sg32
S'--'
p139
sg34
S'--'
p140
sg36
S'IND'
p141
sg38
S'--'
p142
sg40
S'--'
p143
sg42
S'--'
p144
ssS'17'
p145
(dp146
g5
S'--'
p147
sg7
S'--'
p148
sg9
g10
sg11
S'--'
p149
sg13
g49
sg14
S'Rodney Smith'
p150
sg16
S'2014'
p151
sg18
S'17'
p152
sg20
S'--'
p153
sg22
S'12/28'
p154
sg24
S'--'
p155
sg26
S'--'
p156
sg28
S'--'
p157
sg30
S'L10-20'
p158
sg32
g10
sg34
g10
sg36
S'@BAL'
p159
sg38
S'--'
p160
sg40
g10
sg42
S'--'
p161
ssS'16'
p162
(dp163
g5
S'--'
p164
sg7
S'--'
p165
sg9
g10
sg11
S'--'
p166
sg13
g10
sg14
S'Rodney Smith'
p167
sg16
S'2014'
p168
sg18
S'16'
p169
sg20
S'--'
p170
sg22
S'12/21'
p171
sg24
S'--'
p172
sg26
S'--'
p173
sg28
S'--'
p174
sg30
S'L13-17'
p175
sg32
S'--'
p176
sg34
S'--'
p177
sg36
S'@CAR'
p178
sg38
S'--'
p179
sg40
S'--'
p180
sg42
S'--'
p181
ssg49
(dp182
g5
S'--'
p183
sg7
S'--'
p184
sg9
g10
sg11
S'--'
p185
sg13
g49
sg14
S'Rodney Smith'
p186
sg16
S'2014'
p187
sg18
g49
sg20
S'--'
p188
sg22
S'09/07'
p189
sg24
S'--'
p190
sg26
S'--'
p191
sg28
S'--'
p192
sg30
S'W34-6'
p193
sg32
S'--'
p194
sg34
S'--'
p195
sg36
S'@STL'
p196
sg38
S'--'
p197
sg40
S'--'
p198
sg42
S'--'
p199
ssS'3'
p200
(dp201
g5
S'--'
p202
sg7
S'--'
p203
sg9
g10
sg11
S'--'
p204
sg13
g10
sg14
S'Rodney Smith'
p205
sg16
S'2014'
p206
sg18
g200
sg20
S'--'
p207
sg22
S'09/21'
p208
sg24
S'--'
p209
sg26
S'--'
p210
sg28
S'--'
p211
sg30
S'L9-20'
p212
sg32
S'--'
p213
sg34
S'--'
p214
sg36
S'@NO'
p215
sg38
S'--'
p216
sg40
S'--'
p217
sg42
S'--'
p218
ssS'2'
p219
(dp220
g5
S'--'
p221
sg7
S'--'
p222
sg9
g10
sg11
S'--'
p223
sg13
g10
sg14
S'Rodney Smith'
p224
sg16
S'2014'
p225
sg18
g219
sg20
S'--'
p226
sg22
S'09/14'
p227
sg24
S'--'
p228
sg26
S'--'
p229
sg28
S'--'
p230
sg30
S'L7-30'
p231
sg32
S'--'
p232
sg34
S'--'
p233
sg36
S'NE'
p234
sg38
S'--'
p235
sg40
S'--'
p236
sg42
S'--'
p237
ssS'5'
p238
(dp239
g5
S'--'
p240
sg7
S'--'
p241
sg9
g10
sg11
S'--'
p242
sg13
g10
sg14
S'Rodney Smith'
p243
sg16
S'2014'
p244
sg18
g238
sg20
S'--'
p245
sg22
S'10/05'
p246
sg24
S'--'
p247
sg26
S'--'
p248
sg28
S'--'
p249
sg30
S'W29-28'
p250
sg32
S'--'
p251
sg34
S'--'
p252
sg36
S'@TEN'
p253
sg38
S'--'
p254
sg40
S'--'
p255
sg42
S'--'
p256
ssS'4'
p257
(dp258
g5
S'--'
p259
sg7
S'--'
p260
sg9
g10
sg11
S'--'
p261
sg13
g10
sg14
S'Rodney Smith'
p262
sg16
S'2014'
p263
sg18
g257
sg20
S'--'
p264
sg22
S'09/28'
p265
sg24
S'--'
p266
sg26
S'--'
p267
sg28
S'--'
p268
sg30
S'W41-28'
p269
sg32
S'--'
p270
sg34
S'--'
p271
sg36
S'ATL'
p272
sg38
S'--'
p273
sg40
S'--'
p274
sg42
S'--'
p275
ssS'7'
p276
(dp277
g5
S'--'
p278
sg7
S'--'
p279
sg9
g10
sg11
S'--'
p280
sg13
g10
sg14
S'Rodney Smith'
p281
sg16
S'2014'
p282
sg18
g276
sg20
S'--'
p283
sg22
S'10/19'
p284
sg24
S'--'
p285
sg26
S'--'
p286
sg28
S'--'
p287
sg30
S'L6-24'
p288
sg32
S'--'
p289
sg34
S'--'
p290
sg36
S'@JAC'
p291
sg38
S'--'
p292
sg40
S'--'
p293
sg42
S'--'
p294
ssS'6'
p295
(dp296
g5
S'--'
p297
sg7
S'--'
p298
sg9
g10
sg11
S'--'
p299
sg13
g10
sg14
S'Rodney Smith'
p300
sg16
S'2014'
p301
sg18
g295
sg20
S'--'
p302
sg22
S'10/12'
p303
sg24
S'--'
p304
sg26
S'--'
p305
sg28
S'--'
p306
sg30
S'W31-10'
p307
sg32
S'--'
p308
sg34
S'--'
p309
sg36
S'PIT'
p310
sg38
S'--'
p311
sg40
S'--'
p312
sg42
S'--'
p313
ssS'9'
p314
(dp315
g5
S'--'
p316
sg7
S'--'
p317
sg9
g10
sg11
S'--'
p318
sg13
g10
sg14
S'Rodney Smith'
p319
sg16
S'2014'
p320
sg18
g314
sg20
S'--'
p321
sg22
S'11/02'
p322
sg24
S'--'
p323
sg26
S'--'
p324
sg28
S'--'
p325
sg30
S'W22-17'
p326
sg32
S'--'
p327
sg34
S'--'
p328
sg36
S'TB'
p329
sg38
S'--'
p330
sg40
S'--'
p331
sg42
S'--'
p332
ssS'8'
p333
(dp334
g5
S'--'
p335
sg7
S'--'
p336
sg9
g10
sg11
S'--'
p337
sg13
g10
sg14
S'Rodney Smith'
p338
sg16
S'2014'
p339
sg18
g333
sg20
S'--'
p340
sg22
S'10/26'
p341
sg24
S'--'
p342
sg26
S'--'
p343
sg28
S'--'
p344
sg30
S'W23-13'
p345
sg32
S'--'
p346
sg34
S'--'
p347
sg36
S'OAK'
p348
sg38
S'--'
p349
sg40
S'--'
p350
sg42
S'--'
p351
sssS'2013'
p352
(dp353
g3
(dp354
g5
S'--'
p355
sg7
S'--'
p356
sg9
g10
sg11
S'--'
p357
sg13
g49
sg14
S'Rodney Smith'
p358
sg16
S'2013'
p359
sg18
S'11'
p360
sg20
S'--'
p361
sg22
S'11/17'
p362
sg24
S'--'
p363
sg26
S'--'
p364
sg28
S'--'
p365
sg30
S'L20-41'
p366
sg32
S'--'
p367
sg34
S'--'
p368
sg36
S'@SEA'
p369
sg38
S'--'
p370
sg40
S'--'
p371
sg42
S'--'
p372
ssg44
(dp373
g5
S'--'
p374
sg7
S'--'
p375
sg9
g10
sg11
S'--'
p376
sg13
g49
sg14
S'Rodney Smith'
p377
sg16
S'2013'
p378
sg18
S'10'
p379
sg20
S'--'
p380
sg22
S'11/07'
p381
sg24
S'--'
p382
sg26
S'--'
p383
sg28
S'--'
p384
sg30
S'W34-27'
p385
sg32
S'--'
p386
sg34
S'--'
p387
sg36
S'WAS'
p388
sg38
S'--'
p389
sg40
S'--'
p390
sg42
S'--'
p391
ssg65
(dp392
g5
S'--'
p393
sg7
S'--'
p394
sg9
g10
sg11
S'--'
p395
sg13
g10
sg14
S'Rodney Smith'
p396
sg16
S'2013'
p397
sg18
S'13'
p398
sg20
S'--'
p399
sg22
S'12/01'
p400
sg24
S'--'
p401
sg26
S'--'
p402
sg28
S'--'
p403
sg30
S'W23-20'
p404
sg32
S'--'
p405
sg34
S'--'
p406
sg36
S'CHI'
p407
sg38
S'--'
p408
sg40
S'--'
p409
sg42
S'--'
p410
ssg85
(dp411
g5
S'--'
p412
sg7
S'--'
p413
sg9
g10
sg11
S'--'
p414
sg13
g10
sg14
S'Rodney Smith'
p415
sg16
S'2013'
p416
sg18
S'12'
p417
sg20
S'--'
p418
sg22
S'11/24'
p419
sg24
S'--'
p420
sg26
S'--'
p421
sg28
S'--'
p422
sg30
S'T26-26'
p423
sg32
S'--'
p424
sg34
S'--'
p425
sg36
S'@GB'
p426
sg38
S'--'
p427
sg40
S'--'
p428
sg42
S'--'
p429
ssg105
(dp430
g5
S'--'
p431
sg7
S'--'
p432
sg9
g10
sg11
S'--'
p433
sg13
g49
sg14
S'Rodney Smith'
p434
sg16
S'2013'
p435
sg18
S'15'
p436
sg20
S'--'
p437
sg22
S'12/15'
p438
sg24
S'--'
p439
sg26
S'--'
p440
sg28
S'--'
p441
sg30
S'W48-30'
p442
sg32
S'--'
p443
sg34
S'--'
p444
sg36
S'PHI'
p445
sg38
S'--'
p446
sg40
S'--'
p447
sg42
S'--'
p448
ssg125
(dp449
g5
S'--'
p450
sg7
S'--'
p451
sg9
g10
sg11
S'--'
p452
sg13
g10
sg14
S'Rodney Smith'
p453
sg16
S'2013'
p454
sg18
S'14'
p455
sg20
S'--'
p456
sg22
S'12/08'
p457
sg24
S'--'
p458
sg26
S'--'
p459
sg28
S'--'
p460
sg30
S'L26-29'
p461
sg32
S'--'
p462
sg34
S'--'
p463
sg36
S'@BAL'
p464
sg38
S'--'
p465
sg40
S'--'
p466
sg42
S'--'
p467
ssg145
(dp468
g5
S'--'
p469
sg7
S'--'
p470
sg9
g10
sg11
S'--'
p471
sg13
g10
sg14
S'Rodney Smith'
p472
sg16
S'2013'
p473
sg18
S'17'
p474
sg20
S'--'
p475
sg22
S'12/29'
p476
sg24
S'--'
p477
sg26
S'--'
p478
sg28
S'--'
p479
sg30
S'W14-13'
p480
sg32
S'--'
p481
sg34
S'--'
p482
sg36
S'DET'
p483
sg38
S'--'
p484
sg40
S'--'
p485
sg42
S'--'
p486
ssg162
(dp487
g5
S'--'
p488
sg7
S'--'
p489
sg9
g10
sg11
S'--'
p490
sg13
g10
sg14
S'Rodney Smith'
p491
sg16
S'2013'
p492
sg18
S'16'
p493
sg20
S'--'
p494
sg22
S'12/22'
p495
sg24
S'--'
p496
sg26
S'--'
p497
sg28
S'--'
p498
sg30
S'L14-42'
p499
sg32
S'--'
p500
sg34
S'--'
p501
sg36
S'@CIN'
p502
sg38
S'--'
p503
sg40
S'--'
p504
sg42
S'--'
p505
ssg276
(dp506
g5
S'--'
p507
sg7
S'--'
p508
sg9
g10
sg11
S'--'
p509
sg13
g10
sg14
S'Rodney Smith'
p510
sg16
S'2013'
p511
sg18
g276
sg20
S'--'
p512
sg22
S'10/21'
p513
sg24
S'--'
p514
sg26
S'--'
p515
sg28
S'--'
p516
sg30
S'L7-23'
p517
sg32
S'--'
p518
sg34
S'--'
p519
sg36
S'@NYG'
p520
sg38
S'--'
p521
sg40
S'--'
p522
sg42
S'--'
p523
ssg314
(dp524
g5
S'--'
p525
sg7
S'--'
p526
sg9
g10
sg11
S'--'
p527
sg13
g49
sg14
S'Rodney Smith'
p528
sg16
S'2013'
p529
sg18
g314
sg20
S'--'
p530
sg22
S'11/03'
p531
sg24
S'--'
p532
sg26
S'--'
p533
sg28
S'--'
p534
sg30
S'L23-27'
p535
sg32
S'--'
p536
sg34
S'--'
p537
sg36
S'@DAL'
p538
sg38
S'--'
p539
sg40
S'--'
p540
sg42
S'--'
p541
ssg333
(dp542
g5
S'--'
p543
sg7
S'--'
p544
sg9
g10
sg11
S'--'
p545
sg13
g10
sg14
S'Rodney Smith'
p546
sg16
S'2013'
p547
sg18
g333
sg20
S'--'
p548
sg22
S'10/27'
p549
sg24
S'--'
p550
sg26
S'--'
p551
sg28
S'--'
p552
sg30
S'L31-44'
p553
sg32
S'--'
p554
sg34
S'--'
p555
sg36
S'GB'
p556
sg38
S'--'
p557
sg40
S'--'
p558
sg42
S'--'
p559
sss.