(dp0
S'2015'
p1
(dp2
S'11'
p3
(dp4
S'RushTD'
p5
S''
p6
sS'RushYds'
p7
g6
sS'GS'
p8
g6
sS'Lost'
p9
g6
sS'G'
p10
g6
sS'Player'
p11
S'Rueben Randle'
p12
sS'Year'
p13
S'2015'
p14
sS'WK'
p15
S'11'
p16
sS'RushAvg'
p17
g6
sS'Game Date'
p18
S'Bye'
p19
sS'RecAvg'
p20
g6
sS'FUM'
p21
g6
sS'RushAtt'
p22
g6
sS'Result'
p23
g6
sS'RecYds'
p24
g6
sS'Rec'
p25
g6
sS'Opp'
p26
g6
sS'RecLng'
p27
g6
sS'RecTD'
p28
g6
sS'RushLng'
p29
g6
ssS'10'
p30
(dp31
g5
S'--'
p32
sg7
S'--'
p33
sg8
S'1'
p34
sg9
S'--'
p35
sg10
g34
sg11
S'Rueben Randle'
p36
sg13
S'2015'
p37
sg15
S'10'
p38
sg17
S'--'
p39
sg18
S'11/15'
p40
sg20
S'17.0'
p41
sg21
S'--'
p42
sg22
S'--'
p43
sg23
S'L26-27'
p44
sg24
S'51'
p45
sg25
S'3'
p46
sg26
S'NE'
p47
sg27
S'31'
p48
sg28
S'0'
p49
sg29
S'--'
p50
ssS'13'
p51
(dp52
g5
S'--'
p53
sg7
S'--'
p54
sg8
g34
sg9
S'--'
p55
sg10
g34
sg11
S'Rueben Randle'
p56
sg13
S'2015'
p57
sg15
S'13'
p58
sg17
S'--'
p59
sg18
S'12/06'
p60
sg20
S'11.0'
p61
sg21
S'--'
p62
sg22
S'--'
p63
sg23
S'L20-23'
p64
sg24
S'22'
p65
sg25
S'2'
p66
sg26
S'NYJ'
p67
sg27
S'16'
p68
sg28
g49
sg29
S'--'
p69
ssS'12'
p70
(dp71
g5
S'--'
p72
sg7
S'--'
p73
sg8
g34
sg9
S'--'
p74
sg10
g34
sg11
S'Rueben Randle'
p75
sg13
S'2015'
p76
sg15
S'12'
p77
sg17
S'--'
p78
sg18
S'11/29'
p79
sg20
S'36.0'
p80
sg21
S'--'
p81
sg22
S'--'
p82
sg23
S'L14-20'
p83
sg24
S'36'
p84
sg25
g34
sg26
S'@WAS'
p85
sg27
S'40T'
p86
sg28
g34
sg29
S'--'
p87
ssS'15'
p88
(dp89
g5
S'--'
p90
sg7
S'--'
p91
sg8
g34
sg9
S'--'
p92
sg10
g34
sg11
S'Rueben Randle'
p93
sg13
S'2015'
p94
sg15
S'15'
p95
sg17
S'--'
p96
sg18
S'12/20'
p97
sg20
S'11.8'
p98
sg21
S'--'
p99
sg22
S'--'
p100
sg23
S'L35-38'
p101
sg24
S'47'
p102
sg25
S'4'
p103
sg26
S'CAR'
p104
sg27
S'27T'
p105
sg28
g34
sg29
S'--'
p106
ssS'14'
p107
(dp108
g5
S'--'
p109
sg7
S'--'
p110
sg8
g34
sg9
S'--'
p111
sg10
g34
sg11
S'Rueben Randle'
p112
sg13
S'2015'
p113
sg15
S'14'
p114
sg17
S'--'
p115
sg18
S'12/14'
p116
sg20
S'11.6'
p117
sg21
S'--'
p118
sg22
S'--'
p119
sg23
S'W31-24'
p120
sg24
S'58'
p121
sg25
S'5'
p122
sg26
S'@MIA'
p123
sg27
S'22'
p124
sg28
g34
sg29
S'--'
p125
ssS'17'
p126
(dp127
g5
S'--'
p128
sg7
S'--'
p129
sg8
g34
sg9
S'--'
p130
sg10
g34
sg11
S'Rueben Randle'
p131
sg13
S'2015'
p132
sg15
S'17'
p133
sg17
S'--'
p134
sg18
S'01/03'
p135
sg20
S'19.8'
p136
sg21
S'--'
p137
sg22
S'--'
p138
sg23
S'L30-35'
p139
sg24
S'79'
p140
sg25
g103
sg26
S'PHI'
p141
sg27
S'45T'
p142
sg28
g34
sg29
S'--'
p143
ssS'16'
p144
(dp145
g5
S'--'
p146
sg7
S'--'
p147
sg8
g34
sg9
S'--'
p148
sg10
g34
sg11
S'Rueben Randle'
p149
sg13
S'2015'
p150
sg15
S'16'
p151
sg17
S'--'
p152
sg18
S'12/27'
p153
sg20
S'40.0'
p154
sg21
S'--'
p155
sg22
S'--'
p156
sg23
S'L17-49'
p157
sg24
S'80'
p158
sg25
g66
sg26
S'@MIN'
p159
sg27
S'72T'
p160
sg28
g34
sg29
S'--'
p161
ssg34
(dp162
g5
S'--'
p163
sg7
S'--'
p164
sg8
g34
sg9
S'--'
p165
sg10
g34
sg11
S'Rueben Randle'
p166
sg13
S'2015'
p167
sg15
g34
sg17
S'--'
p168
sg18
S'09/13'
p169
sg20
S'7.7'
p170
sg21
S'--'
p171
sg22
S'--'
p172
sg23
S'L26-27'
p173
sg24
S'23'
p174
sg25
g46
sg26
S'@DAL'
p175
sg27
S'16'
p176
sg28
g49
sg29
S'--'
p177
ssg46
(dp178
g5
S'--'
p179
sg7
S'--'
p180
sg8
g34
sg9
S'--'
p181
sg10
g34
sg11
S'Rueben Randle'
p182
sg13
S'2015'
p183
sg15
g46
sg17
S'--'
p184
sg18
S'09/24'
p185
sg20
S'16.6'
p186
sg21
S'--'
p187
sg22
S'--'
p188
sg23
S'W32-21'
p189
sg24
S'116'
p190
sg25
S'7'
p191
sg26
S'WAS'
p192
sg27
S'41T'
p193
sg28
g34
sg29
S'--'
p194
ssg66
(dp195
g5
S'--'
p196
sg7
S'--'
p197
sg8
g34
sg9
S'--'
p198
sg10
g34
sg11
S'Rueben Randle'
p199
sg13
S'2015'
p200
sg15
g66
sg17
S'--'
p201
sg18
S'09/20'
p202
sg20
S'5.0'
p203
sg21
S'--'
p204
sg22
S'--'
p205
sg23
S'L20-24'
p206
sg24
g122
sg25
g34
sg26
S'ATL'
p207
sg27
g122
sg28
g49
sg29
S'--'
p208
ssg122
(dp209
g5
S'--'
p210
sg7
S'--'
p211
sg8
g34
sg9
S'--'
p212
sg10
g34
sg11
S'Rueben Randle'
p213
sg13
S'2015'
p214
sg15
g122
sg17
S'--'
p215
sg18
S'10/11'
p216
sg20
S'8.4'
p217
sg21
S'--'
p218
sg22
S'--'
p219
sg23
S'W30-27'
p220
sg24
S'42'
p221
sg25
g122
sg26
S'SF'
p222
sg27
S'16'
p223
sg28
g49
sg29
S'--'
p224
ssg103
(dp225
g5
S'--'
p226
sg7
S'--'
p227
sg8
g34
sg9
S'--'
p228
sg10
g34
sg11
S'Rueben Randle'
p229
sg13
S'2015'
p230
sg15
g103
sg17
S'--'
p231
sg18
S'10/04'
p232
sg20
S'10.3'
p233
sg21
S'--'
p234
sg22
S'--'
p235
sg23
S'W24-10'
p236
sg24
S'31'
p237
sg25
g46
sg26
S'@BUF'
p238
sg27
S'22'
p239
sg28
g34
sg29
S'--'
p240
ssg191
(dp241
g5
S'--'
p242
sg7
S'--'
p243
sg8
g34
sg9
S'--'
p244
sg10
g34
sg11
S'Rueben Randle'
p245
sg13
S'2015'
p246
sg15
g191
sg17
S'--'
p247
sg18
S'10/25'
p248
sg20
S'34.0'
p249
sg21
S'--'
p250
sg22
S'--'
p251
sg23
S'W27-20'
p252
sg24
S'68'
p253
sg25
g66
sg26
S'DAL'
p254
sg27
S'44'
p255
sg28
g49
sg29
S'--'
p256
ssS'6'
p257
(dp258
g5
S'--'
p259
sg7
S'--'
p260
sg8
g34
sg9
S'--'
p261
sg10
g34
sg11
S'Rueben Randle'
p262
sg13
S'2015'
p263
sg15
g257
sg17
S'--'
p264
sg18
S'10/19'
p265
sg20
S'8.8'
p266
sg21
S'--'
p267
sg22
S'--'
p268
sg23
S'L7-27'
p269
sg24
S'44'
p270
sg25
g122
sg26
S'@PHI'
p271
sg27
S'15'
p272
sg28
g49
sg29
S'--'
p273
ssS'9'
p274
(dp275
g5
S'--'
p276
sg7
S'--'
p277
sg8
g34
sg9
S'--'
p278
sg10
g34
sg11
S'Rueben Randle'
p279
sg13
S'2015'
p280
sg15
g274
sg17
S'--'
p281
sg18
S'11/08'
p282
sg20
S'8.0'
p283
sg21
S'--'
p284
sg22
S'--'
p285
sg23
S'W32-18'
p286
sg24
S'40'
p287
sg25
g122
sg26
S'@TB'
p288
sg27
S'13'
p289
sg28
g34
sg29
S'--'
p290
ssS'8'
p291
(dp292
g5
S'--'
p293
sg7
S'--'
p294
sg8
g34
sg9
S'--'
p295
sg10
g34
sg11
S'Rueben Randle'
p296
sg13
S'2015'
p297
sg15
g291
sg17
S'--'
p298
sg18
S'11/01'
p299
sg20
S'11.0'
p300
sg21
S'--'
p301
sg22
S'--'
p302
sg23
S'L49-52'
p303
sg24
S'55'
p304
sg25
g122
sg26
S'@NO'
p305
sg27
S'19'
p306
sg28
g49
sg29
S'--'
p307
sssS'2014'
p308
(dp309
g3
(dp310
g5
S'--'
p311
sg7
S'--'
p312
sg8
g34
sg9
S'--'
p313
sg10
g34
sg11
S'Rueben Randle'
p314
sg13
S'2014'
p315
sg15
S'11'
p316
sg17
S'--'
p317
sg18
S'11/16'
p318
sg20
S'16.0'
p319
sg21
S'--'
p320
sg22
S'--'
p321
sg23
S'L10-16'
p322
sg24
S'112'
p323
sg25
g191
sg26
S'SF'
p324
sg27
S'26'
p325
sg28
g49
sg29
S'--'
p326
ssg30
(dp327
g5
S'--'
p328
sg7
S'--'
p329
sg8
g34
sg9
S'--'
p330
sg10
g34
sg11
S'Rueben Randle'
p331
sg13
S'2014'
p332
sg15
S'10'
p333
sg17
S'--'
p334
sg18
S'11/09'
p335
sg20
S'7.8'
p336
sg21
S'--'
p337
sg22
S'--'
p338
sg23
S'L17-38'
p339
sg24
S'39'
p340
sg25
g122
sg26
S'@SEA'
p341
sg27
S'11'
p342
sg28
g49
sg29
S'--'
p343
ssg51
(dp344
g5
S'--'
p345
sg7
S'--'
p346
sg8
g49
sg9
S'--'
p347
sg10
g34
sg11
S'Rueben Randle'
p348
sg13
S'2014'
p349
sg15
S'13'
p350
sg17
S'--'
p351
sg18
S'11/30'
p352
sg20
S'17.3'
p353
sg21
S'--'
p354
sg22
S'--'
p355
sg23
S'L24-25'
p356
sg24
S'52'
p357
sg25
g46
sg26
S'@JAC'
p358
sg27
S'23'
p359
sg28
g49
sg29
S'--'
p360
ssg70
(dp361
g5
S'--'
p362
sg7
S'--'
p363
sg8
g34
sg9
S'--'
p364
sg10
g34
sg11
S'Rueben Randle'
p365
sg13
S'2014'
p366
sg15
S'12'
p367
sg17
S'--'
p368
sg18
S'11/23'
p369
sg20
S'12.0'
p370
sg21
S'--'
p371
sg22
S'--'
p372
sg23
S'L28-31'
p373
sg24
S'36'
p374
sg25
g46
sg26
S'DAL'
p375
sg27
S'21'
p376
sg28
g49
sg29
S'--'
p377
ssg88
(dp378
g5
S'--'
p379
sg7
S'--'
p380
sg8
g49
sg9
S'--'
p381
sg10
g34
sg11
S'Rueben Randle'
p382
sg13
S'2014'
p383
sg15
S'15'
p384
sg17
S'--'
p385
sg18
S'12/14'
p386
sg20
S'15.0'
p387
sg21
S'--'
p388
sg22
S'--'
p389
sg23
S'W24-13'
p390
sg24
S'30'
p391
sg25
g66
sg26
S'WAS'
p392
sg27
S'18'
p393
sg28
g49
sg29
S'--'
p394
ssg107
(dp395
g5
S'--'
p396
sg7
S'--'
p397
sg8
g49
sg9
S'--'
p398
sg10
g34
sg11
S'Rueben Randle'
p399
sg13
S'2014'
p400
sg15
S'14'
p401
sg17
S'--'
p402
sg18
S'12/07'
p403
sg20
S'9.0'
p404
sg21
S'--'
p405
sg22
S'--'
p406
sg23
S'W36-7'
p407
sg24
g274
sg25
g34
sg26
S'@TEN'
p408
sg27
g274
sg28
g49
sg29
S'--'
p409
ssg126
(dp410
g5
S'--'
p411
sg7
S'--'
p412
sg8
g34
sg9
S'--'
p413
sg10
g34
sg11
S'Rueben Randle'
p414
sg13
S'2014'
p415
sg15
S'17'
p416
sg17
S'--'
p417
sg18
S'12/28'
p418
sg20
S'26.3'
p419
sg21
S'--'
p420
sg22
S'--'
p421
sg23
S'L26-34'
p422
sg24
S'158'
p423
sg25
g257
sg26
S'PHI'
p424
sg27
S'43'
p425
sg28
g49
sg29
S'--'
p426
ssg144
(dp427
g5
S'--'
p428
sg7
S'--'
p429
sg8
g34
sg9
S'--'
p430
sg10
g34
sg11
S'Rueben Randle'
p431
sg13
S'2014'
p432
sg15
S'16'
p433
sg17
S'--'
p434
sg18
S'12/21'
p435
sg20
S'22.0'
p436
sg21
S'--'
p437
sg22
S'--'
p438
sg23
S'W37-27'
p439
sg24
S'132'
p440
sg25
g257
sg26
S'@STL'
p441
sg27
S'49'
p442
sg28
g34
sg29
S'--'
p443
ssg34
(dp444
g5
S'--'
p445
sg7
S'--'
p446
sg8
g34
sg9
S'--'
p447
sg10
g34
sg11
S'Rueben Randle'
p448
sg13
S'2014'
p449
sg15
g34
sg17
S'--'
p450
sg18
S'09/08'
p451
sg20
S'0.5'
p452
sg21
S'--'
p453
sg22
S'--'
p454
sg23
S'L14-35'
p455
sg24
g34
sg25
g66
sg26
S'@DET'
p456
sg27
g34
sg28
g49
sg29
S'--'
p457
ssg46
(dp458
g5
S'--'
p459
sg7
S'--'
p460
sg8
g34
sg9
S'--'
p461
sg10
g34
sg11
S'Rueben Randle'
p462
sg13
S'2014'
p463
sg15
g46
sg17
S'--'
p464
sg18
S'09/21'
p465
sg20
S'5.4'
p466
sg21
S'--'
p467
sg22
S'--'
p468
sg23
S'W30-17'
p469
sg24
S'27'
p470
sg25
g122
sg26
S'HOU'
p471
sg27
g274
sg28
g49
sg29
S'--'
p472
ssg66
(dp473
g5
S'--'
p474
sg7
S'--'
p475
sg8
g34
sg9
S'--'
p476
sg10
g34
sg11
S'Rueben Randle'
p477
sg13
S'2014'
p478
sg15
g66
sg17
S'--'
p479
sg18
S'09/14'
p480
sg20
S'9.8'
p481
sg21
S'--'
p482
sg22
S'--'
p483
sg23
S'L14-25'
p484
sg24
S'39'
p485
sg25
g103
sg26
S'ARI'
p486
sg27
S'13'
p487
sg28
g34
sg29
S'--'
p488
ssg122
(dp489
g5
S'--'
p490
sg7
S'--'
p491
sg8
g34
sg9
S'--'
p492
sg10
g34
sg11
S'Rueben Randle'
p493
sg13
S'2014'
p494
sg15
g122
sg17
S'--'
p495
sg18
S'10/05'
p496
sg20
S'8.3'
p497
sg21
S'--'
p498
sg22
S'--'
p499
sg23
S'W30-20'
p500
sg24
S'33'
p501
sg25
g103
sg26
S'ATL'
p502
sg27
S'18'
p503
sg28
g34
sg29
S'--'
p504
ssg103
(dp505
g5
S'--'
p506
sg7
S'--'
p507
sg8
g34
sg9
S'--'
p508
sg10
g34
sg11
S'Rueben Randle'
p509
sg13
S'2014'
p510
sg15
g103
sg17
S'--'
p511
sg18
S'09/25'
p512
sg20
S'11.1'
p513
sg21
S'--'
p514
sg22
S'--'
p515
sg23
S'W45-14'
p516
sg24
S'89'
p517
sg25
g291
sg26
S'@WAS'
p518
sg27
S'27'
p519
sg28
g49
sg29
S'--'
p520
ssg191
(dp521
g5
S'--'
p522
sg7
S'--'
p523
sg8
g34
sg9
S'--'
p524
sg10
g34
sg11
S'Rueben Randle'
p525
sg13
S'2014'
p526
sg15
g191
sg17
S'--'
p527
sg18
S'10/19'
p528
sg20
S'12.3'
p529
sg21
S'--'
p530
sg22
S'--'
p531
sg23
S'L21-31'
p532
sg24
S'74'
p533
sg25
g257
sg26
S'@DAL'
p534
sg27
S'17'
p535
sg28
g49
sg29
S'--'
p536
ssg257
(dp537
g5
S'--'
p538
sg7
S'--'
p539
sg8
g34
sg9
S'--'
p540
sg10
g34
sg11
S'Rueben Randle'
p541
sg13
S'2014'
p542
sg15
g257
sg17
S'--'
p543
sg18
S'10/12'
p544
sg20
S'11.6'
p545
sg21
S'--'
p546
sg22
S'--'
p547
sg23
S'L0-27'
p548
sg24
S'58'
p549
sg25
g122
sg26
S'@PHI'
p550
sg27
S'17'
p551
sg28
g49
sg29
S'--'
p552
ssg274
(dp553
g5
S'--'
p554
sg7
S'--'
p555
sg8
g34
sg9
S'--'
p556
sg10
g34
sg11
S'Rueben Randle'
p557
sg13
S'2014'
p558
sg15
g274
sg17
S'--'
p559
sg18
S'11/03'
p560
sg20
S'12.3'
p561
sg21
S'--'
p562
sg22
S'--'
p563
sg23
S'L24-40'
p564
sg24
S'49'
p565
sg25
g103
sg26
S'IND'
p566
sg27
S'18'
p567
sg28
g49
sg29
S'--'
p568
ssg291
(dp569
g5
g6
sg7
g6
sg8
g6
sg9
g6
sg10
g6
sg11
S'Rueben Randle'
p570
sg13
S'2014'
p571
sg15
g291
sg17
g6
sg18
S'Bye'
p572
sg20
g6
sg21
g6
sg22
g6
sg23
g6
sg24
g6
sg25
g6
sg26
g6
sg27
g6
sg28
g6
sg29
g6
sssS'2013'
p573
(dp574
g3
(dp575
g5
S'--'
p576
sg7
S'--'
p577
sg8
g49
sg9
S'--'
p578
sg10
g34
sg11
S'Rueben Randle'
p579
sg13
S'2013'
p580
sg15
S'11'
p581
sg17
S'--'
p582
sg18
S'11/17'
p583
sg20
S'12.3'
p584
sg21
S'--'
p585
sg22
S'--'
p586
sg23
S'W27-13'
p587
sg24
S'37'
p588
sg25
g46
sg26
S'GB'
p589
sg27
S'26T'
p590
sg28
g34
sg29
S'--'
p591
ssg30
(dp592
g5
S'--'
p593
sg7
S'--'
p594
sg8
g49
sg9
S'--'
p595
sg10
g34
sg11
S'Rueben Randle'
p596
sg13
S'2013'
p597
sg15
S'10'
p598
sg17
S'--'
p599
sg18
S'11/10'
p600
sg20
S'16.7'
p601
sg21
S'--'
p602
sg22
S'--'
p603
sg23
S'W24-20'
p604
sg24
S'50'
p605
sg25
g46
sg26
S'OAK'
p606
sg27
S'25'
p607
sg28
g34
sg29
S'--'
p608
ssg51
(dp609
g5
S'--'
p610
sg7
S'--'
p611
sg8
g49
sg9
g49
sg10
g34
sg11
S'Rueben Randle'
p612
sg13
S'2013'
p613
sg15
S'13'
p614
sg17
S'--'
p615
sg18
S'12/01'
p616
sg20
S'6.7'
p617
sg21
g34
sg22
S'--'
p618
sg23
S'W24-17'
p619
sg24
S'20'
p620
sg25
g46
sg26
S'@WAS'
p621
sg27
g274
sg28
g49
sg29
S'--'
p622
ssg70
(dp623
g5
S'--'
p624
sg7
S'--'
p625
sg8
g34
sg9
S'--'
p626
sg10
g34
sg11
S'Rueben Randle'
p627
sg13
S'2013'
p628
sg15
S'12'
p629
sg17
S'--'
p630
sg18
S'11/24'
p631
sg20
S'21.3'
p632
sg21
S'--'
p633
sg22
S'--'
p634
sg23
S'L21-24'
p635
sg24
S'64'
p636
sg25
g46
sg26
S'DAL'
p637
sg27
S'22'
p638
sg28
g49
sg29
S'--'
p639
ssg88
(dp640
g5
S'--'
p641
sg7
S'--'
p642
sg8
g49
sg9
S'--'
p643
sg10
g34
sg11
S'Rueben Randle'
p644
sg13
S'2013'
p645
sg15
S'15'
p646
sg17
S'--'
p647
sg18
S'12/15'
p648
sg20
S'--'
p649
sg21
S'--'
p650
sg22
S'--'
p651
sg23
S'L0-23'
p652
sg24
g49
sg25
g49
sg26
S'SEA'
p653
sg27
S'--'
p654
sg28
g49
sg29
S'--'
p655
ssg107
(dp656
g5
S'--'
p657
sg7
S'--'
p658
sg8
g49
sg9
S'--'
p659
sg10
g34
sg11
S'Rueben Randle'
p660
sg13
S'2013'
p661
sg15
S'14'
p662
sg17
S'--'
p663
sg18
S'12/08'
p664
sg20
S'13.5'
p665
sg21
S'--'
p666
sg22
S'--'
p667
sg23
S'L14-37'
p668
sg24
S'27'
p669
sg25
g66
sg26
S'@SD'
p670
sg27
S'18'
p671
sg28
g49
sg29
S'--'
p672
ssg126
(dp673
g5
S'--'
p674
sg7
S'--'
p675
sg8
g49
sg9
S'--'
p676
sg10
g34
sg11
S'Rueben Randle'
p677
sg13
S'2013'
p678
sg15
S'17'
p679
sg17
S'--'
p680
sg18
S'12/29'
p681
sg20
S'--'
p682
sg21
S'--'
p683
sg22
S'--'
p684
sg23
S'W20-6'
p685
sg24
g49
sg25
g49
sg26
S'WAS'
p686
sg27
S'--'
p687
sg28
g49
sg29
S'--'
p688
ssg144
(dp689
g5
S'--'
p690
sg7
S'--'
p691
sg8
g34
sg9
S'--'
p692
sg10
g34
sg11
S'Rueben Randle'
p693
sg13
S'2013'
p694
sg15
S'16'
p695
sg17
S'--'
p696
sg18
S'12/22'
p697
sg20
S'10.0'
p698
sg21
S'--'
p699
sg22
S'--'
p700
sg23
S'W23-20'
p701
sg24
S'40'
p702
sg25
g103
sg26
S'@DET'
p703
sg27
S'26'
p704
sg28
g49
sg29
S'--'
p705
ssg34
(dp706
g5
S'--'
p707
sg7
S'--'
p708
sg8
g49
sg9
S'--'
p709
sg10
g34
sg11
S'Rueben Randle'
p710
sg13
S'2013'
p711
sg15
g34
sg17
S'--'
p712
sg18
S'09/08'
p713
sg20
S'20.2'
p714
sg21
S'--'
p715
sg22
S'--'
p716
sg23
S'L31-36'
p717
sg24
S'101'
p718
sg25
g122
sg26
S'@DAL'
p719
sg27
S'26'
p720
sg28
g49
sg29
S'--'
p721
ssg46
(dp722
g5
S'--'
p723
sg7
S'--'
p724
sg8
g49
sg9
S'--'
p725
sg10
g34
sg11
S'Rueben Randle'
p726
sg13
S'2013'
p727
sg15
g46
sg17
S'--'
p728
sg18
S'09/22'
p729
sg20
S'20.0'
p730
sg21
S'--'
p731
sg22
S'--'
p732
sg23
S'L0-38'
p733
sg24
S'40'
p734
sg25
g66
sg26
S'@CAR'
p735
sg27
S'24'
p736
sg28
g49
sg29
S'--'
p737
ssg66
(dp738
g5
S'--'
p739
sg7
S'--'
p740
sg8
g49
sg9
S'--'
p741
sg10
g34
sg11
S'Rueben Randle'
p742
sg13
S'2013'
p743
sg15
g66
sg17
S'--'
p744
sg18
S'09/15'
p745
sg20
S'4.7'
p746
sg21
S'--'
p747
sg22
S'--'
p748
sg23
S'L23-41'
p749
sg24
S'14'
p750
sg25
g46
sg26
S'DEN'
p751
sg27
g291
sg28
g49
sg29
S'--'
p752
ssg122
(dp753
g5
S'--'
p754
sg7
S'--'
p755
sg8
g49
sg9
S'--'
p756
sg10
g34
sg11
S'Rueben Randle'
p757
sg13
S'2013'
p758
sg15
g122
sg17
S'--'
p759
sg18
S'10/06'
p760
sg20
S'16.0'
p761
sg21
S'--'
p762
sg22
S'--'
p763
sg23
S'L21-36'
p764
sg24
S'96'
p765
sg25
g257
sg26
S'PHI'
p766
sg27
S'26T'
p767
sg28
g66
sg29
S'--'
p768
ssg103
(dp769
g5
S'--'
p770
sg7
S'--'
p771
sg8
g34
sg9
g49
sg10
g34
sg11
S'Rueben Randle'
p772
sg13
S'2013'
p773
sg15
g103
sg17
S'--'
p774
sg18
S'09/29'
p775
sg20
S'7.0'
p776
sg21
g34
sg22
S'--'
p777
sg23
S'L7-31'
p778
sg24
g191
sg25
g34
sg26
S'@KC'
p779
sg27
g191
sg28
g49
sg29
S'--'
p780
ssg191
(dp781
g5
S'--'
p782
sg7
S'--'
p783
sg8
g49
sg9
g34
sg10
g34
sg11
S'Rueben Randle'
p784
sg13
S'2013'
p785
sg15
g191
sg17
S'--'
p786
sg18
S'10/21'
p787
sg20
S'13.3'
p788
sg21
g34
sg22
S'--'
p789
sg23
S'W23-7'
p790
sg24
S'40'
p791
sg25
g46
sg26
S'MIN'
p792
sg27
S'24T'
p793
sg28
g34
sg29
S'--'
p794
ssg257
(dp795
g5
S'--'
p796
sg7
S'--'
p797
sg8
g49
sg9
S'--'
p798
sg10
g34
sg11
S'Rueben Randle'
p799
sg13
S'2013'
p800
sg15
g257
sg17
S'--'
p801
sg18
S'10/10'
p802
sg20
S'25.0'
p803
sg21
S'--'
p804
sg22
S'--'
p805
sg23
S'L21-27'
p806
sg24
S'75'
p807
sg25
g46
sg26
S'@CHI'
p808
sg27
S'37T'
p809
sg28
g34
sg29
S'--'
p810
ssg274
(dp811
g5
g6
sg7
g6
sg8
g6
sg9
g6
sg10
g6
sg11
S'Rueben Randle'
p812
sg13
S'2013'
p813
sg15
g274
sg17
g6
sg18
S'Bye'
p814
sg20
g6
sg21
g6
sg22
g6
sg23
g6
sg24
g6
sg25
g6
sg26
g6
sg27
g6
sg28
g6
sg29
g6
ssg291
(dp815
g5
S'--'
p816
sg7
S'--'
p817
sg8
g49
sg9
S'--'
p818
sg10
g34
sg11
S'Rueben Randle'
p819
sg13
S'2013'
p820
sg15
g291
sg17
S'--'
p821
sg18
S'10/27'
p822
sg20
S'--'
p823
sg21
S'--'
p824
sg22
S'--'
p825
sg23
S'W15-7'
p826
sg24
g49
sg25
g49
sg26
S'@PHI'
p827
sg27
S'--'
p828
sg28
g49
sg29
S'--'
p829
sssS'2012'
p830
(dp831
g3
(dp832
g5
g6
sg7
g6
sg8
g6
sg9
g6
sg10
g6
sg11
S'Rueben Randle'
p833
sg13
S'2012'
p834
sg15
S'11'
p835
sg17
g6
sg18
S'Bye'
p836
sg20
g6
sg21
g6
sg22
g6
sg23
g6
sg24
g6
sg25
g6
sg26
g6
sg27
g6
sg28
g6
sg29
g6
ssg30
(dp837
g5
S'--'
p838
sg7
S'--'
p839
sg8
g49
sg9
S'--'
p840
sg10
g34
sg11
S'Rueben Randle'
p841
sg13
S'2012'
p842
sg15
S'10'
p843
sg17
S'--'
p844
sg18
S'11/11'
p845
sg20
S'2.0'
p846
sg21
S'--'
p847
sg22
S'--'
p848
sg23
S'L13-31'
p849
sg24
g103
sg25
g66
sg26
S'@CIN'
p850
sg27
g122
sg28
g49
sg29
S'--'
p851
ssg51
(dp852
g5
S'--'
p853
sg7
S'--'
p854
sg8
g49
sg9
S'--'
p855
sg10
g34
sg11
S'Rueben Randle'
p856
sg13
S'2012'
p857
sg15
S'13'
p858
sg17
S'--'
p859
sg18
S'12/03'
p860
sg20
S'13.0'
p861
sg21
S'--'
p862
sg22
S'--'
p863
sg23
S'L16-17'
p864
sg24
S'13'
p865
sg25
g34
sg26
S'@WAS'
p866
sg27
S'13'
p867
sg28
g49
sg29
S'--'
p868
ssg70
(dp869
g5
S'--'
p870
sg7
S'--'
p871
sg8
g49
sg9
g49
sg10
g34
sg11
S'Rueben Randle'
p872
sg13
S'2012'
p873
sg15
S'12'
p874
sg17
S'--'
p875
sg18
S'11/25'
p876
sg20
S'13.0'
p877
sg21
g34
sg22
S'--'
p878
sg23
S'W38-10'
p879
sg24
S'26'
p880
sg25
g66
sg26
S'GB'
p881
sg27
S'16T'
p882
sg28
g34
sg29
S'--'
p883
ssg88
(dp884
g5
S'--'
p885
sg7
S'--'
p886
sg8
g49
sg9
S'--'
p887
sg10
g34
sg11
S'Rueben Randle'
p888
sg13
S'2012'
p889
sg15
S'15'
p890
sg17
S'--'
p891
sg18
S'12/16'
p892
sg20
S'--'
p893
sg21
S'--'
p894
sg22
S'--'
p895
sg23
S'L0-34'
p896
sg24
S'--'
p897
sg25
S'--'
p898
sg26
S'@ATL'
p899
sg27
S'--'
p900
sg28
S'--'
p901
sg29
S'--'
p902
ssg107
(dp903
g5
S'--'
p904
sg7
S'--'
p905
sg8
g49
sg9
S'--'
p906
sg10
g34
sg11
S'Rueben Randle'
p907
sg13
S'2012'
p908
sg15
S'14'
p909
sg17
S'--'
p910
sg18
S'12/09'
p911
sg20
S'--'
p912
sg21
S'--'
p913
sg22
S'--'
p914
sg23
S'W52-27'
p915
sg24
S'--'
p916
sg25
S'--'
p917
sg26
S'NO'
p918
sg27
S'--'
p919
sg28
S'--'
p920
sg29
S'--'
p921
ssg126
(dp922
g5
S'--'
p923
sg7
S'--'
p924
sg8
g34
sg9
S'--'
p925
sg10
g34
sg11
S'Rueben Randle'
p926
sg13
S'2012'
p927
sg15
S'17'
p928
sg17
S'--'
p929
sg18
S'12/30'
p930
sg20
S'14.5'
p931
sg21
S'--'
p932
sg22
S'--'
p933
sg23
S'W42-7'
p934
sg24
S'58'
p935
sg25
g103
sg26
S'PHI'
p936
sg27
S'38T'
p937
sg28
g66
sg29
S'--'
p938
ssg144
(dp939
g5
S'--'
p940
sg7
S'--'
p941
sg8
g49
sg9
S'--'
p942
sg10
g34
sg11
S'Rueben Randle'
p943
sg13
S'2012'
p944
sg15
S'16'
p945
sg17
S'--'
p946
sg18
S'12/23'
p947
sg20
S'43.0'
p948
sg21
S'--'
p949
sg22
S'--'
p950
sg23
S'L14-33'
p951
sg24
S'43'
p952
sg25
g34
sg26
S'@BAL'
p953
sg27
S'43'
p954
sg28
g49
sg29
S'--'
p955
ssg34
(dp956
g5
S'--'
p957
sg7
S'--'
p958
sg8
g49
sg9
S'--'
p959
sg10
g34
sg11
S'Rueben Randle'
p960
sg13
S'2012'
p961
sg15
g34
sg17
S'--'
p962
sg18
S'09/05'
p963
sg20
S'--'
p964
sg21
S'--'
p965
sg22
S'--'
p966
sg23
S'L17-24'
p967
sg24
S'--'
p968
sg25
S'--'
p969
sg26
S'DAL'
p970
sg27
S'--'
p971
sg28
S'--'
p972
sg29
S'--'
p973
ssg46
(dp974
g5
S'--'
p975
sg7
S'--'
p976
sg8
g49
sg9
S'--'
p977
sg10
g34
sg11
S'Rueben Randle'
p978
sg13
S'2012'
p979
sg15
g46
sg17
S'--'
p980
sg18
S'09/20'
p981
sg20
S'4.0'
p982
sg21
S'--'
p983
sg22
S'--'
p984
sg23
S'W36-7'
p985
sg24
g103
sg25
g34
sg26
S'@CAR'
p986
sg27
g103
sg28
g49
sg29
S'--'
p987
ssg66
(dp988
g5
S'--'
p989
sg7
S'--'
p990
sg8
g49
sg9
S'--'
p991
sg10
g34
sg11
S'Rueben Randle'
p992
sg13
S'2012'
p993
sg15
g66
sg17
S'--'
p994
sg18
S'09/16'
p995
sg20
S'--'
p996
sg21
S'--'
p997
sg22
S'--'
p998
sg23
S'W41-34'
p999
sg24
S'--'
p1000
sg25
S'--'
p1001
sg26
S'TB'
p1002
sg27
S'--'
p1003
sg28
S'--'
p1004
sg29
S'--'
p1005
ssg122
(dp1006
g5
S'--'
p1007
sg7
S'--'
p1008
sg8
g49
sg9
S'--'
p1009
sg10
g34
sg11
S'Rueben Randle'
p1010
sg13
S'2012'
p1011
sg15
g122
sg17
S'--'
p1012
sg18
S'10/07'
p1013
sg20
S'13.7'
p1014
sg21
S'--'
p1015
sg22
S'--'
p1016
sg23
S'W41-27'
p1017
sg24
S'82'
p1018
sg25
g257
sg26
S'CLE'
p1019
sg27
S'36'
p1020
sg28
g49
sg29
S'--'
p1021
ssg103
(dp1022
g5
S'--'
p1023
sg7
S'--'
p1024
sg8
g49
sg9
S'--'
p1025
sg10
g34
sg11
S'Rueben Randle'
p1026
sg13
S'2012'
p1027
sg15
g103
sg17
S'--'
p1028
sg18
S'09/30'
p1029
sg20
S'--'
p1030
sg21
S'--'
p1031
sg22
S'--'
p1032
sg23
S'L17-19'
p1033
sg24
g49
sg25
g49
sg26
S'@PHI'
p1034
sg27
S'--'
p1035
sg28
g49
sg29
S'--'
p1036
ssg191
(dp1037
g5
S'--'
p1038
sg7
S'--'
p1039
sg8
g49
sg9
S'--'
p1040
sg10
g34
sg11
S'Rueben Randle'
p1041
sg13
S'2012'
p1042
sg15
g191
sg17
S'--'
p1043
sg18
S'10/21'
p1044
sg20
S'--'
p1045
sg21
S'--'
p1046
sg22
S'--'
p1047
sg23
S'W27-23'
p1048
sg24
S'--'
p1049
sg25
S'--'
p1050
sg26
S'WAS'
p1051
sg27
S'--'
p1052
sg28
S'--'
p1053
sg29
S'--'
p1054
ssg257
(dp1055
g5
S'--'
p1056
sg7
S'--'
p1057
sg8
g49
sg9
S'--'
p1058
sg10
g34
sg11
S'Rueben Randle'
p1059
sg13
S'2012'
p1060
sg15
g257
sg17
S'--'
p1061
sg18
S'10/14'
p1062
sg20
S'--'
p1063
sg21
S'--'
p1064
sg22
S'--'
p1065
sg23
S'W26-3'
p1066
sg24
S'--'
p1067
sg25
S'--'
p1068
sg26
S'@SF'
p1069
sg27
S'--'
p1070
sg28
S'--'
p1071
sg29
S'--'
p1072
ssg274
(dp1073
g5
S'--'
p1074
sg7
S'--'
p1075
sg8
g49
sg9
S'--'
p1076
sg10
g34
sg11
S'Rueben Randle'
p1077
sg13
S'2012'
p1078
sg15
g274
sg17
S'--'
p1079
sg18
S'11/04'
p1080
sg20
S'--'
p1081
sg21
S'--'
p1082
sg22
S'--'
p1083
sg23
S'L20-24'
p1084
sg24
g49
sg25
g49
sg26
S'PIT'
p1085
sg27
S'--'
p1086
sg28
g49
sg29
S'--'
p1087
ssg291
(dp1088
g5
S'--'
p1089
sg7
S'--'
p1090
sg8
g49
sg9
S'--'
p1091
sg10
g34
sg11
S'Rueben Randle'
p1092
sg13
S'2012'
p1093
sg15
g291
sg17
S'--'
p1094
sg18
S'10/28'
p1095
sg20
S'34.0'
p1096
sg21
S'--'
p1097
sg22
S'--'
p1098
sg23
S'W29-24'
p1099
sg24
S'68'
p1100
sg25
g66
sg26
S'@DAL'
p1101
sg27
S'56'
p1102
sg28
g49
sg29
S'--'
p1103
sss.