(dp0
S'2015'
p1
(dp2
S'11'
p3
(dp4
S'RushTD'
p5
S'--'
p6
sS'RushYds'
p7
S'--'
p8
sS'GS'
p9
S'0'
p10
sS'Lost'
p11
S'--'
p12
sS'G'
p13
S'1'
p14
sS'Player'
p15
S'Russell Shepard'
p16
sS'Year'
p17
S'2015'
p18
sS'WK'
p19
S'11'
p20
sS'RushAvg'
p21
S'--'
p22
sS'Game Date'
p23
S'11/22'
p24
sS'RecAvg'
p25
S'4.0'
p26
sS'FUM'
p27
S'--'
p28
sS'RushAtt'
p29
S'--'
p30
sS'Result'
p31
S'W45-17'
p32
sS'RecYds'
p33
S'4'
p34
sS'Rec'
p35
g14
sS'Opp'
p36
S'@PHI'
p37
sS'RecLng'
p38
S'4T'
p39
sS'RecTD'
p40
g14
sS'RushLng'
p41
S'--'
p42
ssS'10'
p43
(dp44
g5
S'--'
p45
sg7
S'--'
p46
sg9
g10
sg11
S'--'
p47
sg13
g14
sg15
S'Russell Shepard'
p48
sg17
S'2015'
p49
sg19
S'10'
p50
sg21
S'--'
p51
sg23
S'11/15'
p52
sg25
S'--'
p53
sg27
S'--'
p54
sg29
S'--'
p55
sg31
S'W10-6'
p56
sg33
g10
sg35
g10
sg36
S'DAL'
p57
sg38
S'--'
p58
sg40
g10
sg41
S'--'
p59
ssS'13'
p60
(dp61
g5
S'--'
p62
sg7
S'--'
p63
sg9
g10
sg11
S'--'
p64
sg13
g14
sg15
S'Russell Shepard'
p65
sg17
S'2015'
p66
sg19
S'13'
p67
sg21
S'--'
p68
sg23
S'12/06'
p69
sg25
S'--'
p70
sg27
S'--'
p71
sg29
S'--'
p72
sg31
S'W23-19'
p73
sg33
S'--'
p74
sg35
S'--'
p75
sg36
S'ATL'
p76
sg38
S'--'
p77
sg40
S'--'
p78
sg41
S'--'
p79
ssS'12'
p80
(dp81
g5
S'--'
p82
sg7
S'--'
p83
sg9
g10
sg11
S'--'
p84
sg13
g14
sg15
S'Russell Shepard'
p85
sg17
S'2015'
p86
sg19
S'12'
p87
sg21
S'--'
p88
sg23
S'11/29'
p89
sg25
S'--'
p90
sg27
S'--'
p91
sg29
S'--'
p92
sg31
S'L12-25'
p93
sg33
S'--'
p94
sg35
S'--'
p95
sg36
S'@IND'
p96
sg38
S'--'
p97
sg40
S'--'
p98
sg41
S'--'
p99
ssS'15'
p100
(dp101
g5
S'--'
p102
sg7
S'--'
p103
sg9
g10
sg11
S'--'
p104
sg13
g14
sg15
S'Russell Shepard'
p105
sg17
S'2015'
p106
sg19
S'15'
p107
sg21
S'--'
p108
sg23
S'12/17'
p109
sg25
S'--'
p110
sg27
S'--'
p111
sg29
S'--'
p112
sg31
S'L23-31'
p113
sg33
g10
sg35
g10
sg36
S'@STL'
p114
sg38
S'--'
p115
sg40
g10
sg41
S'--'
p116
ssS'14'
p117
(dp118
g5
S'--'
p119
sg7
S'--'
p120
sg9
g10
sg11
S'--'
p121
sg13
g14
sg15
S'Russell Shepard'
p122
sg17
S'2015'
p123
sg19
S'14'
p124
sg21
S'--'
p125
sg23
S'12/13'
p126
sg25
S'--'
p127
sg27
S'--'
p128
sg29
S'--'
p129
sg31
S'L17-24'
p130
sg33
S'--'
p131
sg35
S'--'
p132
sg36
S'NO'
p133
sg38
S'--'
p134
sg40
S'--'
p135
sg41
S'--'
p136
ssS'17'
p137
(dp138
g5
S'--'
p139
sg7
S'--'
p140
sg9
g10
sg11
S'--'
p141
sg13
g14
sg15
S'Russell Shepard'
p142
sg17
S'2015'
p143
sg19
S'17'
p144
sg21
S'--'
p145
sg23
S'01/03'
p146
sg25
S'--'
p147
sg27
S'--'
p148
sg29
S'--'
p149
sg31
S'L10-38'
p150
sg33
g10
sg35
g10
sg36
S'@CAR'
p151
sg38
S'--'
p152
sg40
g10
sg41
S'--'
p153
ssS'16'
p154
(dp155
g5
S'--'
p156
sg7
S'--'
p157
sg9
g10
sg11
S'--'
p158
sg13
g14
sg15
S'Russell Shepard'
p159
sg17
S'2015'
p160
sg19
S'16'
p161
sg21
S'--'
p162
sg23
S'12/27'
p163
sg25
S'18.0'
p164
sg27
S'--'
p165
sg29
S'--'
p166
sg31
S'L21-26'
p167
sg33
S'18'
p168
sg35
g14
sg36
S'CHI'
p169
sg38
S'18'
p170
sg40
g10
sg41
S'--'
p171
ssg14
(dp172
g5
S'--'
p173
sg7
S'--'
p174
sg9
g10
sg11
S'--'
p175
sg13
g14
sg15
S'Russell Shepard'
p176
sg17
S'2015'
p177
sg19
g14
sg21
S'--'
p178
sg23
S'09/13'
p179
sg25
S'6.0'
p180
sg27
S'--'
p181
sg29
S'--'
p182
sg31
S'L14-42'
p183
sg33
S'6'
p184
sg35
g14
sg36
S'TEN'
p185
sg38
g184
sg40
g10
sg41
S'--'
p186
ssS'3'
p187
(dp188
g5
S'--'
p189
sg7
S'--'
p190
sg9
g10
sg11
S'--'
p191
sg13
g14
sg15
S'Russell Shepard'
p192
sg17
S'2015'
p193
sg19
g187
sg21
S'--'
p194
sg23
S'09/27'
p195
sg25
S'--'
p196
sg27
S'--'
p197
sg29
S'--'
p198
sg31
S'L9-19'
p199
sg33
g10
sg35
g10
sg36
S'@HOU'
p200
sg38
S'--'
p201
sg40
g10
sg41
S'--'
p202
ssS'2'
p203
(dp204
g5
S'--'
p205
sg7
S'--'
p206
sg9
g14
sg11
S'--'
p207
sg13
g14
sg15
S'Russell Shepard'
p208
sg17
S'2015'
p209
sg19
g203
sg21
S'--'
p210
sg23
S'09/20'
p211
sg25
S'--'
p212
sg27
S'--'
p213
sg29
S'--'
p214
sg31
S'W26-19'
p215
sg33
S'--'
p216
sg35
S'--'
p217
sg36
S'@NO'
p218
sg38
S'--'
p219
sg40
S'--'
p220
sg41
S'--'
p221
ssS'5'
p222
(dp223
g5
S'--'
p224
sg7
S'--'
p225
sg9
g10
sg11
S'--'
p226
sg13
g10
sg15
S'Russell Shepard'
p227
sg17
S'2015'
p228
sg19
g222
sg21
S'--'
p229
sg23
S'10/11'
p230
sg25
S'--'
p231
sg27
S'--'
p232
sg29
S'--'
p233
sg31
S'W38-31'
p234
sg33
S'--'
p235
sg35
S'--'
p236
sg36
S'JAC'
p237
sg38
S'--'
p238
sg40
S'--'
p239
sg41
S'--'
p240
ssg34
(dp241
g5
S'--'
p242
sg7
S'--'
p243
sg9
g10
sg11
S'--'
p244
sg13
g10
sg15
S'Russell Shepard'
p245
sg17
S'2015'
p246
sg19
g34
sg21
S'--'
p247
sg23
S'10/04'
p248
sg25
S'--'
p249
sg27
S'--'
p250
sg29
S'--'
p251
sg31
S'L23-37'
p252
sg33
S'--'
p253
sg35
S'--'
p254
sg36
S'CAR'
p255
sg38
S'--'
p256
sg40
S'--'
p257
sg41
S'--'
p258
ssS'7'
p259
(dp260
g5
S'--'
p261
sg7
S'--'
p262
sg9
g10
sg11
S'--'
p263
sg13
g10
sg15
S'Russell Shepard'
p264
sg17
S'2015'
p265
sg19
g259
sg21
S'--'
p266
sg23
S'10/25'
p267
sg25
S'--'
p268
sg27
S'--'
p269
sg29
S'--'
p270
sg31
S'L30-31'
p271
sg33
S'--'
p272
sg35
S'--'
p273
sg36
S'@WAS'
p274
sg38
S'--'
p275
sg40
S'--'
p276
sg41
S'--'
p277
ssg184
(dp278
g5
S''
p279
sg7
g279
sg9
g279
sg11
g279
sg13
g279
sg15
S'Russell Shepard'
p280
sg17
S'2015'
p281
sg19
g184
sg21
g279
sg23
S'Bye'
p282
sg25
g279
sg27
g279
sg29
g279
sg31
g279
sg33
g279
sg35
g279
sg36
g279
sg38
g279
sg40
g279
sg41
g279
ssS'9'
p283
(dp284
g5
S'--'
p285
sg7
S'--'
p286
sg9
g14
sg11
S'--'
p287
sg13
g14
sg15
S'Russell Shepard'
p288
sg17
S'2015'
p289
sg19
g283
sg21
S'--'
p290
sg23
S'11/08'
p291
sg25
S'--'
p292
sg27
S'--'
p293
sg29
S'--'
p294
sg31
S'L18-32'
p295
sg33
S'--'
p296
sg35
S'--'
p297
sg36
S'NYG'
p298
sg38
S'--'
p299
sg40
S'--'
p300
sg41
S'--'
p301
ssS'8'
p302
(dp303
g5
S'--'
p304
sg7
S'--'
p305
sg9
g10
sg11
S'--'
p306
sg13
g14
sg15
S'Russell Shepard'
p307
sg17
S'2015'
p308
sg19
g302
sg21
S'--'
p309
sg23
S'11/01'
p310
sg25
S'--'
p311
sg27
S'--'
p312
sg29
S'--'
p313
sg31
S'W23-20'
p314
sg33
S'--'
p315
sg35
S'--'
p316
sg36
S'@ATL'
p317
sg38
S'--'
p318
sg40
S'--'
p319
sg41
S'--'
p320
sssS'2014'
p321
(dp322
g3
(dp323
g5
S'--'
p324
sg7
S'--'
p325
sg9
g10
sg11
S'--'
p326
sg13
g14
sg15
S'Russell Shepard'
p327
sg17
S'2014'
p328
sg19
S'11'
p329
sg21
S'--'
p330
sg23
S'11/16'
p331
sg25
S'--'
p332
sg27
S'--'
p333
sg29
S'--'
p334
sg31
S'W27-7'
p335
sg33
S'--'
p336
sg35
S'--'
p337
sg36
S'@WAS'
p338
sg38
S'--'
p339
sg40
S'--'
p340
sg41
S'--'
p341
ssg43
(dp342
g5
S'--'
p343
sg7
S'--'
p344
sg9
g10
sg11
S'--'
p345
sg13
g14
sg15
S'Russell Shepard'
p346
sg17
S'2014'
p347
sg19
S'10'
p348
sg21
S'--'
p349
sg23
S'11/09'
p350
sg25
S'--'
p351
sg27
S'--'
p352
sg29
S'--'
p353
sg31
S'L17-27'
p354
sg33
S'--'
p355
sg35
S'--'
p356
sg36
S'ATL'
p357
sg38
S'--'
p358
sg40
S'--'
p359
sg41
S'--'
p360
ssg60
(dp361
g5
S'--'
p362
sg7
S'--'
p363
sg9
g10
sg11
S'--'
p364
sg13
g14
sg15
S'Russell Shepard'
p365
sg17
S'2014'
p366
sg19
S'13'
p367
sg21
S'--'
p368
sg23
S'11/30'
p369
sg25
S'--'
p370
sg27
S'--'
p371
sg29
S'--'
p372
sg31
S'L13-14'
p373
sg33
S'--'
p374
sg35
S'--'
p375
sg36
S'CIN'
p376
sg38
S'--'
p377
sg40
S'--'
p378
sg41
S'--'
p379
ssg80
(dp380
g5
S'--'
p381
sg7
S'--'
p382
sg9
g10
sg11
S'--'
p383
sg13
g14
sg15
S'Russell Shepard'
p384
sg17
S'2014'
p385
sg19
S'12'
p386
sg21
S'--'
p387
sg23
S'11/23'
p388
sg25
S'--'
p389
sg27
S'--'
p390
sg29
S'--'
p391
sg31
S'L13-21'
p392
sg33
S'--'
p393
sg35
S'--'
p394
sg36
S'@CHI'
p395
sg38
S'--'
p396
sg40
S'--'
p397
sg41
S'--'
p398
ssg100
(dp399
g5
S'--'
p400
sg7
S'--'
p401
sg9
g10
sg11
S'--'
p402
sg13
g14
sg15
S'Russell Shepard'
p403
sg17
S'2014'
p404
sg19
S'15'
p405
sg21
S'--'
p406
sg23
S'12/14'
p407
sg25
S'23.0'
p408
sg27
S'--'
p409
sg29
S'--'
p410
sg31
S'L17-19'
p411
sg33
S'23'
p412
sg35
g14
sg36
S'@CAR'
p413
sg38
S'23'
p414
sg40
g10
sg41
S'--'
p415
ssg117
(dp416
g5
S'--'
p417
sg7
S'--'
p418
sg9
g10
sg11
S'--'
p419
sg13
g14
sg15
S'Russell Shepard'
p420
sg17
S'2014'
p421
sg19
S'14'
p422
sg21
S'--'
p423
sg23
S'12/07'
p424
sg25
S'--'
p425
sg27
S'--'
p426
sg29
S'--'
p427
sg31
S'L17-34'
p428
sg33
S'--'
p429
sg35
S'--'
p430
sg36
S'@DET'
p431
sg38
S'--'
p432
sg40
S'--'
p433
sg41
S'--'
p434
ssg137
(dp435
g5
S'--'
p436
sg7
S'--'
p437
sg9
g10
sg11
S'--'
p438
sg13
g14
sg15
S'Russell Shepard'
p439
sg17
S'2014'
p440
sg19
S'17'
p441
sg21
S'--'
p442
sg23
S'12/28'
p443
sg25
S'10.0'
p444
sg27
S'--'
p445
sg29
S'--'
p446
sg31
S'L20-23'
p447
sg33
S'10'
p448
sg35
g14
sg36
S'NO'
p449
sg38
S'10'
p450
sg40
g10
sg41
S'--'
p451
ssg154
(dp452
g5
S'--'
p453
sg7
S'--'
p454
sg9
g10
sg11
S'--'
p455
sg13
g14
sg15
S'Russell Shepard'
p456
sg17
S'2014'
p457
sg19
S'16'
p458
sg21
S'--'
p459
sg23
S'12/21'
p460
sg25
S'--'
p461
sg27
S'--'
p462
sg29
S'--'
p463
sg31
S'L3-20'
p464
sg33
g10
sg35
g10
sg36
S'GB'
p465
sg38
S'--'
p466
sg40
g10
sg41
S'--'
p467
ssg14
(dp468
g5
S'--'
p469
sg7
S'--'
p470
sg9
g10
sg11
S'--'
p471
sg13
g14
sg15
S'Russell Shepard'
p472
sg17
S'2014'
p473
sg19
g14
sg21
S'--'
p474
sg23
S'09/07'
p475
sg25
S'--'
p476
sg27
S'--'
p477
sg29
S'--'
p478
sg31
S'L14-20'
p479
sg33
S'--'
p480
sg35
S'--'
p481
sg36
S'CAR'
p482
sg38
S'--'
p483
sg40
S'--'
p484
sg41
S'--'
p485
ssg187
(dp486
g5
S'--'
p487
sg7
S'--'
p488
sg9
g10
sg11
S'--'
p489
sg13
g14
sg15
S'Russell Shepard'
p490
sg17
S'2014'
p491
sg19
g187
sg21
S'--'
p492
sg23
S'09/18'
p493
sg25
S'--'
p494
sg27
S'--'
p495
sg29
S'--'
p496
sg31
S'L14-56'
p497
sg33
S'--'
p498
sg35
S'--'
p499
sg36
S'@ATL'
p500
sg38
S'--'
p501
sg40
S'--'
p502
sg41
S'--'
p503
ssg203
(dp504
g5
S'--'
p505
sg7
S'--'
p506
sg9
g10
sg11
S'--'
p507
sg13
g14
sg15
S'Russell Shepard'
p508
sg17
S'2014'
p509
sg19
g203
sg21
S'--'
p510
sg23
S'09/14'
p511
sg25
S'--'
p512
sg27
S'--'
p513
sg29
S'--'
p514
sg31
S'L17-19'
p515
sg33
S'--'
p516
sg35
S'--'
p517
sg36
S'STL'
p518
sg38
S'--'
p519
sg40
S'--'
p520
sg41
S'--'
p521
ssg222
(dp522
g5
S'--'
p523
sg7
S'--'
p524
sg9
g10
sg11
S'--'
p525
sg13
g14
sg15
S'Russell Shepard'
p526
sg17
S'2014'
p527
sg19
g222
sg21
S'--'
p528
sg23
S'10/05'
p529
sg25
S'--'
p530
sg27
S'--'
p531
sg29
S'--'
p532
sg31
S'L31-37'
p533
sg33
S'--'
p534
sg35
S'--'
p535
sg36
S'@NO'
p536
sg38
S'--'
p537
sg40
S'--'
p538
sg41
S'--'
p539
ssg34
(dp540
g5
S'--'
p541
sg7
S'--'
p542
sg9
g10
sg11
S'--'
p543
sg13
g14
sg15
S'Russell Shepard'
p544
sg17
S'2014'
p545
sg19
g34
sg21
S'--'
p546
sg23
S'09/28'
p547
sg25
S'15.0'
p548
sg27
S'--'
p549
sg29
S'--'
p550
sg31
S'W27-24'
p551
sg33
S'30'
p552
sg35
g203
sg36
S'@PIT'
p553
sg38
S'22'
p554
sg40
g10
sg41
S'--'
p555
ssg259
(dp556
g5
g279
sg7
g279
sg9
g279
sg11
g279
sg13
g279
sg15
S'Russell Shepard'
p557
sg17
S'2014'
p558
sg19
g259
sg21
g279
sg23
S'Bye'
p559
sg25
g279
sg27
g279
sg29
g279
sg31
g279
sg33
g279
sg35
g279
sg36
g279
sg38
g279
sg40
g279
sg41
g279
ssg184
(dp560
g5
S'--'
p561
sg7
S'--'
p562
sg9
g10
sg11
S'--'
p563
sg13
g14
sg15
S'Russell Shepard'
p564
sg17
S'2014'
p565
sg19
g184
sg21
S'--'
p566
sg23
S'10/12'
p567
sg25
S'--'
p568
sg27
S'--'
p569
sg29
S'--'
p570
sg31
S'L17-48'
p571
sg33
S'--'
p572
sg35
S'--'
p573
sg36
S'BAL'
p574
sg38
S'--'
p575
sg40
S'--'
p576
sg41
S'--'
p577
ssg283
(dp578
g5
S'--'
p579
sg7
S'--'
p580
sg9
g10
sg11
S'--'
p581
sg13
g14
sg15
S'Russell Shepard'
p582
sg17
S'2014'
p583
sg19
g283
sg21
S'--'
p584
sg23
S'11/02'
p585
sg25
S'--'
p586
sg27
S'--'
p587
sg29
S'--'
p588
sg31
S'L17-22'
p589
sg33
S'--'
p590
sg35
S'--'
p591
sg36
S'@CLE'
p592
sg38
S'--'
p593
sg40
S'--'
p594
sg41
S'--'
p595
ssg302
(dp596
g5
S'--'
p597
sg7
S'--'
p598
sg9
g10
sg11
S'--'
p599
sg13
g14
sg15
S'Russell Shepard'
p600
sg17
S'2014'
p601
sg19
g302
sg21
S'--'
p602
sg23
S'10/26'
p603
sg25
S'--'
p604
sg27
S'--'
p605
sg29
S'--'
p606
sg31
S'L13-19'
p607
sg33
S'--'
p608
sg35
S'--'
p609
sg36
S'MIN'
p610
sg38
S'--'
p611
sg40
S'--'
p612
sg41
S'--'
p613
sssS'2013'
p614
(dp615
g3
(dp616
g5
S'--'
p617
sg7
S'--'
p618
sg9
g10
sg11
S'--'
p619
sg13
g14
sg15
S'Russell Shepard'
p620
sg17
S'2013'
p621
sg19
S'11'
p622
sg21
S'--'
p623
sg23
S'11/17'
p624
sg25
S'--'
p625
sg27
S'--'
p626
sg29
S'--'
p627
sg31
S'W41-28'
p628
sg33
S'--'
p629
sg35
S'--'
p630
sg36
S'ATL'
p631
sg38
S'--'
p632
sg40
S'--'
p633
sg41
S'--'
p634
ssg43
(dp635
g5
S'--'
p636
sg7
S'--'
p637
sg9
g10
sg11
S'--'
p638
sg13
g14
sg15
S'Russell Shepard'
p639
sg17
S'2013'
p640
sg19
S'10'
p641
sg21
S'--'
p642
sg23
S'11/11'
p643
sg25
S'--'
p644
sg27
S'--'
p645
sg29
S'--'
p646
sg31
S'W22-19'
p647
sg33
S'--'
p648
sg35
S'--'
p649
sg36
S'MIA'
p650
sg38
S'--'
p651
sg40
S'--'
p652
sg41
S'--'
p653
ssg60
(dp654
g5
S'--'
p655
sg7
S'--'
p656
sg9
g10
sg11
S'--'
p657
sg13
g14
sg15
S'Russell Shepard'
p658
sg17
S'2013'
p659
sg19
S'13'
p660
sg21
S'--'
p661
sg23
S'12/01'
p662
sg25
S'--'
p663
sg27
S'--'
p664
sg29
S'--'
p665
sg31
S'L6-27'
p666
sg33
S'--'
p667
sg35
S'--'
p668
sg36
S'@CAR'
p669
sg38
S'--'
p670
sg40
S'--'
p671
sg41
S'--'
p672
ssg80
(dp673
g5
S'--'
p674
sg7
S'--'
p675
sg9
g10
sg11
S'--'
p676
sg13
g14
sg15
S'Russell Shepard'
p677
sg17
S'2013'
p678
sg19
S'12'
p679
sg21
S'--'
p680
sg23
S'11/24'
p681
sg25
S'--'
p682
sg27
S'--'
p683
sg29
S'--'
p684
sg31
S'W24-21'
p685
sg33
S'--'
p686
sg35
S'--'
p687
sg36
S'@DET'
p688
sg38
S'--'
p689
sg40
S'--'
p690
sg41
S'--'
p691
ssg100
(dp692
g5
S'--'
p693
sg7
S'--'
p694
sg9
g10
sg11
S'--'
p695
sg13
g14
sg15
S'Russell Shepard'
p696
sg17
S'2013'
p697
sg19
S'15'
p698
sg21
S'--'
p699
sg23
S'12/15'
p700
sg25
S'--'
p701
sg27
S'--'
p702
sg29
S'--'
p703
sg31
S'L14-33'
p704
sg33
S'--'
p705
sg35
S'--'
p706
sg36
S'SF'
p707
sg38
S'--'
p708
sg40
S'--'
p709
sg41
S'--'
p710
ssg117
(dp711
g5
S'--'
p712
sg7
S'--'
p713
sg9
g10
sg11
S'--'
p714
sg13
g14
sg15
S'Russell Shepard'
p715
sg17
S'2013'
p716
sg19
S'14'
p717
sg21
S'--'
p718
sg23
S'12/08'
p719
sg25
S'--'
p720
sg27
S'--'
p721
sg29
S'--'
p722
sg31
S'W27-6'
p723
sg33
S'--'
p724
sg35
S'--'
p725
sg36
S'BUF'
p726
sg38
S'--'
p727
sg40
S'--'
p728
sg41
S'--'
p729
ssg14
(dp730
g5
S'--'
p731
sg7
S'--'
p732
sg9
g10
sg11
S'--'
p733
sg13
g14
sg15
S'Russell Shepard'
p734
sg17
S'2013'
p735
sg19
g14
sg21
S'--'
p736
sg23
S'09/08'
p737
sg25
S'--'
p738
sg27
S'--'
p739
sg29
S'--'
p740
sg31
S'L17-18'
p741
sg33
S'--'
p742
sg35
S'--'
p743
sg36
S'@NYJ'
p744
sg38
S'--'
p745
sg40
S'--'
p746
sg41
S'--'
p747
ssg187
(dp748
g5
S'--'
p749
sg7
S'--'
p750
sg9
g10
sg11
S'--'
p751
sg13
g14
sg15
S'Russell Shepard'
p752
sg17
S'2013'
p753
sg19
g187
sg21
S'--'
p754
sg23
S'09/22'
p755
sg25
S'--'
p756
sg27
S'--'
p757
sg29
S'--'
p758
sg31
S'L3-23'
p759
sg33
S'--'
p760
sg35
S'--'
p761
sg36
S'@NE'
p762
sg38
S'--'
p763
sg40
S'--'
p764
sg41
S'--'
p765
ssg203
(dp766
g5
S'--'
p767
sg7
S'--'
p768
sg9
g10
sg11
S'--'
p769
sg13
g14
sg15
S'Russell Shepard'
p770
sg17
S'2013'
p771
sg19
g203
sg21
S'--'
p772
sg23
S'09/15'
p773
sg25
S'--'
p774
sg27
S'--'
p775
sg29
S'--'
p776
sg31
S'L14-16'
p777
sg33
S'--'
p778
sg35
S'--'
p779
sg36
S'NO'
p780
sg38
S'--'
p781
sg40
S'--'
p782
sg41
S'--'
p783
ssg222
(dp784
g5
g279
sg7
g279
sg9
g279
sg11
g279
sg13
g279
sg15
S'Russell Shepard'
p785
sg17
S'2013'
p786
sg19
g222
sg21
g279
sg23
S'Bye'
p787
sg25
g279
sg27
g279
sg29
g279
sg31
g279
sg33
g279
sg35
g279
sg36
g279
sg38
g279
sg40
g279
sg41
g279
ssg34
(dp788
g5
S'--'
p789
sg7
S'--'
p790
sg9
g10
sg11
S'--'
p791
sg13
g14
sg15
S'Russell Shepard'
p792
sg17
S'2013'
p793
sg19
g34
sg21
S'--'
p794
sg23
S'09/29'
p795
sg25
S'--'
p796
sg27
S'--'
p797
sg29
S'--'
p798
sg31
S'L10-13'
p799
sg33
S'--'
p800
sg35
S'--'
p801
sg36
S'ARI'
p802
sg38
S'--'
p803
sg40
S'--'
p804
sg41
S'--'
p805
ssg259
(dp806
g5
S'--'
p807
sg7
S'--'
p808
sg9
g10
sg11
S'--'
p809
sg13
g14
sg15
S'Russell Shepard'
p810
sg17
S'2013'
p811
sg19
g259
sg21
S'--'
p812
sg23
S'10/20'
p813
sg25
S'--'
p814
sg27
S'--'
p815
sg29
S'--'
p816
sg31
S'L23-31'
p817
sg33
S'--'
p818
sg35
S'--'
p819
sg36
S'@ATL'
p820
sg38
S'--'
p821
sg40
S'--'
p822
sg41
S'--'
p823
ssg184
(dp824
g5
S'--'
p825
sg7
S'--'
p826
sg9
g10
sg11
S'--'
p827
sg13
g14
sg15
S'Russell Shepard'
p828
sg17
S'2013'
p829
sg19
g184
sg21
S'--'
p830
sg23
S'10/13'
p831
sg25
S'--'
p832
sg27
S'--'
p833
sg29
S'--'
p834
sg31
S'L20-31'
p835
sg33
S'--'
p836
sg35
S'--'
p837
sg36
S'PHI'
p838
sg38
S'--'
p839
sg40
S'--'
p840
sg41
S'--'
p841
ssg283
(dp842
g5
S'--'
p843
sg7
S'--'
p844
sg9
g10
sg11
S'--'
p845
sg13
g14
sg15
S'Russell Shepard'
p846
sg17
S'2013'
p847
sg19
g283
sg21
S'--'
p848
sg23
S'11/03'
p849
sg25
S'--'
p850
sg27
S'--'
p851
sg29
S'--'
p852
sg31
S'L24-27'
p853
sg33
S'--'
p854
sg35
S'--'
p855
sg36
S'@SEA'
p856
sg38
S'--'
p857
sg40
S'--'
p858
sg41
S'--'
p859
ssg302
(dp860
g5
S'--'
p861
sg7
S'--'
p862
sg9
g10
sg11
S'--'
p863
sg13
g14
sg15
S'Russell Shepard'
p864
sg17
S'2013'
p865
sg19
g302
sg21
S'--'
p866
sg23
S'10/24'
p867
sg25
S'--'
p868
sg27
S'--'
p869
sg29
S'--'
p870
sg31
S'L13-31'
p871
sg33
S'--'
p872
sg35
S'--'
p873
sg36
S'CAR'
p874
sg38
S'--'
p875
sg40
S'--'
p876
sg41
S'--'
p877
sss.