(dp0
S'2013'
p1
(dp2
S'1'
p3
(dp4
S'RushTD'
p5
S'--'
p6
sS'RushYds'
p7
S'--'
p8
sS'GS'
p9
S'0'
p10
sS'Lost'
p11
S'--'
p12
sS'G'
p13
g3
sS'Player'
p14
S'Ryan Spadola'
p15
sS'Year'
p16
S'2013'
p17
sS'WK'
p18
g3
sS'RushAvg'
p19
S'--'
p20
sS'Game Date'
p21
S'09/08'
p22
sS'RecAvg'
p23
S'--'
p24
sS'FUM'
p25
S'--'
p26
sS'RushAtt'
p27
S'--'
p28
sS'Result'
p29
S'W18-17'
p30
sS'RecYds'
p31
S'--'
p32
sS'Rec'
p33
S'--'
p34
sS'Opp'
p35
S'TB'
p36
sS'RecLng'
p37
S'--'
p38
sS'RecTD'
p39
S'--'
p40
sS'RushLng'
p41
S'--'
p42
ssS'3'
p43
(dp44
g5
S'--'
p45
sg7
S'--'
p46
sg9
g10
sg11
S'--'
p47
sg13
g10
sg14
S'Ryan Spadola'
p48
sg16
S'2013'
p49
sg18
g43
sg19
S'--'
p50
sg21
S'09/22'
p51
sg23
S'--'
p52
sg25
S'--'
p53
sg27
S'--'
p54
sg29
S'W27-20'
p55
sg31
S'--'
p56
sg33
S'--'
p57
sg35
S'BUF'
p58
sg37
S'--'
p59
sg39
S'--'
p60
sg41
S'--'
p61
ssS'2'
p62
(dp63
g5
S'--'
p64
sg7
S'--'
p65
sg9
g10
sg11
S'--'
p66
sg13
g3
sg14
S'Ryan Spadola'
p67
sg16
S'2013'
p68
sg18
g62
sg19
S'--'
p69
sg21
S'09/12'
p70
sg23
S'--'
p71
sg25
S'--'
p72
sg27
S'--'
p73
sg29
S'L10-13'
p74
sg31
g10
sg33
g10
sg35
S'@NE'
p75
sg37
S'--'
p76
sg39
g10
sg41
S'--'
p77
ssS'4'
p78
(dp79
g5
S'--'
p80
sg7
S'--'
p81
sg9
g10
sg11
S'--'
p82
sg13
g3
sg14
S'Ryan Spadola'
p83
sg16
S'2013'
p84
sg18
g78
sg19
S'--'
p85
sg21
S'09/29'
p86
sg23
S'--'
p87
sg25
S'--'
p88
sg27
S'--'
p89
sg29
S'L13-38'
p90
sg31
S'--'
p91
sg33
S'--'
p92
sg35
S'@TEN'
p93
sg37
S'--'
p94
sg39
S'--'
p95
sg41
S'--'
p96
ssS'9'
p97
(dp98
g5
S'--'
p99
sg7
S'--'
p100
sg9
g10
sg11
S'--'
p101
sg13
g3
sg14
S'Ryan Spadola'
p102
sg16
S'2013'
p103
sg18
g97
sg19
S'--'
p104
sg21
S'10/31'
p105
sg23
S'--'
p106
sg25
S'--'
p107
sg27
S'--'
p108
sg29
S'W22-20'
p109
sg31
S'--'
p110
sg33
S'--'
p111
sg35
S'CIN'
p112
sg37
S'--'
p113
sg39
S'--'
p114
sg41
S'--'
p115
sss.