(dp0
S'2015'
p1
(dp2
S'11'
p3
(dp4
S'RushTD'
p5
S'--'
p6
sS'RushYds'
p7
S'--'
p8
sS'GS'
p9
S'0'
p10
sS'Lost'
p11
S'--'
p12
sS'G'
p13
S'1'
p14
sS'Player'
p15
S'Ryan Grant'
p16
sS'Year'
p17
S'2015'
p18
sS'WK'
p19
S'11'
p20
sS'RushAvg'
p21
S'--'
p22
sS'Game Date'
p23
S'11/22'
p24
sS'RecAvg'
p25
S'--'
p26
sS'FUM'
p27
S'--'
p28
sS'RushAtt'
p29
S'--'
p30
sS'Result'
p31
S'L16-44'
p32
sS'RecYds'
p33
S'--'
p34
sS'Rec'
p35
S'--'
p36
sS'Opp'
p37
S'@CAR'
p38
sS'RecLng'
p39
S'--'
p40
sS'RecTD'
p41
S'--'
p42
sS'RushLng'
p43
S'--'
p44
ssS'10'
p45
(dp46
g5
S'--'
p47
sg7
S'--'
p48
sg9
g10
sg11
S'--'
p49
sg13
g14
sg15
S'Ryan Grant'
p50
sg17
S'2015'
p51
sg19
S'10'
p52
sg21
S'--'
p53
sg23
S'11/15'
p54
sg25
S'--'
p55
sg27
S'--'
p56
sg29
S'--'
p57
sg31
S'W47-14'
p58
sg33
S'--'
p59
sg35
S'--'
p60
sg37
S'NO'
p61
sg39
S'--'
p62
sg41
S'--'
p63
sg43
S'--'
p64
ssS'13'
p65
(dp66
g5
S'--'
p67
sg7
S'--'
p68
sg9
g10
sg11
S'--'
p69
sg13
g14
sg15
S'Ryan Grant'
p70
sg17
S'2015'
p71
sg19
S'13'
p72
sg21
S'--'
p73
sg23
S'12/07'
p74
sg25
S'--'
p75
sg27
S'--'
p76
sg29
S'--'
p77
sg31
S'L16-19'
p78
sg33
S'--'
p79
sg35
S'--'
p80
sg37
S'DAL'
p81
sg39
S'--'
p82
sg41
S'--'
p83
sg43
S'--'
p84
ssS'12'
p85
(dp86
g5
S'--'
p87
sg7
S'--'
p88
sg9
g10
sg11
S'--'
p89
sg13
g14
sg15
S'Ryan Grant'
p90
sg17
S'2015'
p91
sg19
S'12'
p92
sg21
S'--'
p93
sg23
S'11/29'
p94
sg25
S'19.0'
p95
sg27
S'--'
p96
sg29
S'--'
p97
sg31
S'W20-14'
p98
sg33
S'19'
p99
sg35
g14
sg37
S'NYG'
p100
sg39
S'19'
p101
sg41
g10
sg43
S'--'
p102
ssS'15'
p103
(dp104
g5
S'--'
p105
sg7
S'--'
p106
sg9
g10
sg11
S'--'
p107
sg13
g14
sg15
S'Ryan Grant'
p108
sg17
S'2015'
p109
sg19
S'15'
p110
sg21
S'--'
p111
sg23
S'12/20'
p112
sg25
S'13.0'
p113
sg27
S'--'
p114
sg29
S'--'
p115
sg31
S'W35-25'
p116
sg33
S'13'
p117
sg35
g14
sg37
S'BUF'
p118
sg39
S'13'
p119
sg41
g10
sg43
S'--'
p120
ssS'14'
p121
(dp122
g5
S'--'
p123
sg7
S'--'
p124
sg9
g10
sg11
S'--'
p125
sg13
g14
sg15
S'Ryan Grant'
p126
sg17
S'2015'
p127
sg19
S'14'
p128
sg21
S'--'
p129
sg23
S'12/13'
p130
sg25
S'--'
p131
sg27
S'--'
p132
sg29
S'--'
p133
sg31
S'W24-21'
p134
sg33
g10
sg35
g10
sg37
S'@CHI'
p135
sg39
S'--'
p136
sg41
g10
sg43
S'--'
p137
ssS'17'
p138
(dp139
g5
S'--'
p140
sg7
S'--'
p141
sg9
g14
sg11
S'--'
p142
sg13
g14
sg15
S'Ryan Grant'
p143
sg17
S'2015'
p144
sg19
S'17'
p145
sg21
S'--'
p146
sg23
S'01/03'
p147
sg25
S'6.0'
p148
sg27
S'--'
p149
sg29
S'--'
p150
sg31
S'W34-23'
p151
sg33
S'18'
p152
sg35
S'3'
p153
sg37
S'@DAL'
p154
sg39
S'11'
p155
sg41
g14
sg43
S'--'
p156
ssS'16'
p157
(dp158
g5
S'--'
p159
sg7
S'--'
p160
sg9
g10
sg11
S'--'
p161
sg13
g14
sg15
S'Ryan Grant'
p162
sg17
S'2015'
p163
sg19
S'16'
p164
sg21
S'--'
p165
sg23
S'12/26'
p166
sg25
S'24.0'
p167
sg27
S'--'
p168
sg29
S'--'
p169
sg31
S'W38-24'
p170
sg33
S'24'
p171
sg35
g14
sg37
S'@PHI'
p172
sg39
S'24'
p173
sg41
g10
sg43
S'--'
p174
ssg14
(dp175
g5
S'--'
p176
sg7
S'--'
p177
sg9
g10
sg11
S'--'
p178
sg13
g14
sg15
S'Ryan Grant'
p179
sg17
S'2015'
p180
sg19
g14
sg21
S'--'
p181
sg23
S'09/13'
p182
sg25
S'15.0'
p183
sg27
S'--'
p184
sg29
S'--'
p185
sg31
S'L10-17'
p186
sg33
S'15'
p187
sg35
g14
sg37
S'MIA'
p188
sg39
S'15'
p189
sg41
g10
sg43
S'--'
p190
ssg153
(dp191
g5
S'--'
p192
sg7
S'--'
p193
sg9
g10
sg11
S'--'
p194
sg13
g14
sg15
S'Ryan Grant'
p195
sg17
S'2015'
p196
sg19
g153
sg21
S'--'
p197
sg23
S'09/24'
p198
sg25
S'4.5'
p199
sg27
S'--'
p200
sg29
S'--'
p201
sg31
S'L21-32'
p202
sg33
S'9'
p203
sg35
S'2'
p204
sg37
S'@NYG'
p205
sg39
S'6'
p206
sg41
g10
sg43
S'--'
p207
ssg204
(dp208
g5
S'--'
p209
sg7
S'--'
p210
sg9
g10
sg11
S'--'
p211
sg13
g14
sg15
S'Ryan Grant'
p212
sg17
S'2015'
p213
sg19
g204
sg21
S'--'
p214
sg23
S'09/20'
p215
sg25
S'15.0'
p216
sg27
S'--'
p217
sg29
S'--'
p218
sg31
S'W24-10'
p219
sg33
S'45'
p220
sg35
g153
sg37
S'STL'
p221
sg39
S'35'
p222
sg41
g10
sg43
S'--'
p223
ssS'5'
p224
(dp225
g5
S'--'
p226
sg7
S'--'
p227
sg9
g14
sg11
S'--'
p228
sg13
g14
sg15
S'Ryan Grant'
p229
sg17
S'2015'
p230
sg19
g224
sg21
S'--'
p231
sg23
S'10/11'
p232
sg25
S'4.0'
p233
sg27
S'--'
p234
sg29
S'--'
p235
sg31
S'L19-25'
p236
sg33
S'4'
p237
sg35
g14
sg37
S'@ATL'
p238
sg39
g237
sg41
g10
sg43
S'--'
p239
ssg237
(dp240
g5
S'--'
p241
sg7
S'--'
p242
sg9
g14
sg11
S'--'
p243
sg13
g14
sg15
S'Ryan Grant'
p244
sg17
S'2015'
p245
sg19
g237
sg21
S'--'
p246
sg23
S'10/04'
p247
sg25
S'9.0'
p248
sg27
S'--'
p249
sg29
S'--'
p250
sg31
S'W23-20'
p251
sg33
S'45'
p252
sg35
g224
sg37
S'PHI'
p253
sg39
S'16'
p254
sg41
g10
sg43
S'--'
p255
ssS'7'
p256
(dp257
g5
S'--'
p258
sg7
S'--'
p259
sg9
g14
sg11
S'--'
p260
sg13
g14
sg15
S'Ryan Grant'
p261
sg17
S'2015'
p262
sg19
g256
sg21
S'--'
p263
sg23
S'10/25'
p264
sg25
S'18.0'
p265
sg27
S'--'
p266
sg29
S'--'
p267
sg31
S'W31-30'
p268
sg33
S'54'
p269
sg35
g153
sg37
S'TB'
p270
sg39
S'32'
p271
sg41
g14
sg43
S'--'
p272
ssg206
(dp273
g5
S'--'
p274
sg7
S'--'
p275
sg9
g14
sg11
S'--'
p276
sg13
g14
sg15
S'Ryan Grant'
p277
sg17
S'2015'
p278
sg19
g206
sg21
S'--'
p279
sg23
S'10/18'
p280
sg25
S'11.0'
p281
sg27
S'--'
p282
sg29
S'--'
p283
sg31
S'L20-34'
p284
sg33
S'22'
p285
sg35
g204
sg37
S'@NYJ'
p286
sg39
S'16'
p287
sg41
g10
sg43
S'--'
p288
ssg203
(dp289
g5
S'--'
p290
sg7
S'--'
p291
sg9
g10
sg11
S'--'
p292
sg13
g14
sg15
S'Ryan Grant'
p293
sg17
S'2015'
p294
sg19
g203
sg21
S'--'
p295
sg23
S'11/08'
p296
sg25
S'--'
p297
sg27
S'--'
p298
sg29
S'--'
p299
sg31
S'L10-27'
p300
sg33
S'--'
p301
sg35
S'--'
p302
sg37
S'@NE'
p303
sg39
S'--'
p304
sg41
S'--'
p305
sg43
S'--'
p306
ssS'8'
p307
(dp308
g5
S''
p309
sg7
g309
sg9
g309
sg11
g309
sg13
g309
sg15
S'Ryan Grant'
p310
sg17
S'2015'
p311
sg19
g307
sg21
g309
sg23
S'Bye'
p312
sg25
g309
sg27
g309
sg29
g309
sg31
g309
sg33
g309
sg35
g309
sg37
g309
sg39
g309
sg41
g309
sg43
g309
sssS'2014'
p313
(dp314
g3
(dp315
g5
S'--'
p316
sg7
S'--'
p317
sg9
g10
sg11
S'--'
p318
sg13
g14
sg15
S'Ryan Grant'
p319
sg17
S'2014'
p320
sg19
S'11'
p321
sg21
S'--'
p322
sg23
S'11/16'
p323
sg25
S'--'
p324
sg27
S'--'
p325
sg29
S'--'
p326
sg31
S'L7-27'
p327
sg33
S'--'
p328
sg35
S'--'
p329
sg37
S'TB'
p330
sg39
S'--'
p331
sg41
S'--'
p332
sg43
S'--'
p333
ssg45
(dp334
g5
g309
sg7
g309
sg9
g309
sg11
g309
sg13
g309
sg15
S'Ryan Grant'
p335
sg17
S'2014'
p336
sg19
S'10'
p337
sg21
g309
sg23
S'Bye'
p338
sg25
g309
sg27
g309
sg29
g309
sg31
g309
sg33
g309
sg35
g309
sg37
g309
sg39
g309
sg41
g309
sg43
g309
ssg65
(dp339
g5
S'--'
p340
sg7
S'--'
p341
sg9
g10
sg11
S'--'
p342
sg13
g14
sg15
S'Ryan Grant'
p343
sg17
S'2014'
p344
sg19
S'13'
p345
sg21
S'--'
p346
sg23
S'11/30'
p347
sg25
S'--'
p348
sg27
S'--'
p349
sg29
S'--'
p350
sg31
S'L27-49'
p351
sg33
S'--'
p352
sg35
S'--'
p353
sg37
S'@IND'
p354
sg39
S'--'
p355
sg41
S'--'
p356
sg43
S'--'
p357
ssg85
(dp358
g5
S'--'
p359
sg7
S'--'
p360
sg9
g14
sg11
S'--'
p361
sg13
g14
sg15
S'Ryan Grant'
p362
sg17
S'2014'
p363
sg19
S'12'
p364
sg21
S'--'
p365
sg23
S'11/23'
p366
sg25
S'--'
p367
sg27
S'--'
p368
sg29
S'--'
p369
sg31
S'L13-17'
p370
sg33
S'--'
p371
sg35
S'--'
p372
sg37
S'@SF'
p373
sg39
S'--'
p374
sg41
S'--'
p375
sg43
S'--'
p376
ssg103
(dp377
g5
S'--'
p378
sg7
S'--'
p379
sg9
g10
sg11
S'--'
p380
sg13
g14
sg15
S'Ryan Grant'
p381
sg17
S'2014'
p382
sg19
S'15'
p383
sg21
S'--'
p384
sg23
S'12/14'
p385
sg25
S'--'
p386
sg27
S'--'
p387
sg29
S'--'
p388
sg31
S'L13-24'
p389
sg33
S'--'
p390
sg35
S'--'
p391
sg37
S'@NYG'
p392
sg39
S'--'
p393
sg41
S'--'
p394
sg43
S'--'
p395
ssg121
(dp396
g5
S'--'
p397
sg7
S'--'
p398
sg9
g10
sg11
S'--'
p399
sg13
g14
sg15
S'Ryan Grant'
p400
sg17
S'2014'
p401
sg19
S'14'
p402
sg21
S'--'
p403
sg23
S'12/07'
p404
sg25
S'4.0'
p405
sg27
S'--'
p406
sg29
S'--'
p407
sg31
S'L0-24'
p408
sg33
g237
sg35
g14
sg37
S'STL'
p409
sg39
g237
sg41
g10
sg43
S'--'
p410
ssg138
(dp411
g5
S'--'
p412
sg7
S'--'
p413
sg9
g10
sg11
S'--'
p414
sg13
g14
sg15
S'Ryan Grant'
p415
sg17
S'2014'
p416
sg19
S'17'
p417
sg21
S'--'
p418
sg23
S'12/28'
p419
sg25
S'7.0'
p420
sg27
S'--'
p421
sg29
S'--'
p422
sg31
S'L17-44'
p423
sg33
g256
sg35
g14
sg37
S'DAL'
p424
sg39
g256
sg41
g10
sg43
S'--'
p425
ssg157
(dp426
g5
S'--'
p427
sg7
S'--'
p428
sg9
g10
sg11
S'--'
p429
sg13
g14
sg15
S'Ryan Grant'
p430
sg17
S'2014'
p431
sg19
S'16'
p432
sg21
S'--'
p433
sg23
S'12/20'
p434
sg25
S'--'
p435
sg27
S'--'
p436
sg29
S'--'
p437
sg31
S'W27-24'
p438
sg33
S'--'
p439
sg35
S'--'
p440
sg37
S'PHI'
p441
sg39
S'--'
p442
sg41
S'--'
p443
sg43
S'--'
p444
ssg14
(dp445
g5
S'--'
p446
sg7
S'--'
p447
sg9
g10
sg11
S'--'
p448
sg13
g14
sg15
S'Ryan Grant'
p449
sg17
S'2014'
p450
sg19
g14
sg21
S'--'
p451
sg23
S'09/07'
p452
sg25
S'--'
p453
sg27
S'--'
p454
sg29
S'--'
p455
sg31
S'L6-17'
p456
sg33
S'--'
p457
sg35
S'--'
p458
sg37
S'@HOU'
p459
sg39
S'--'
p460
sg41
S'--'
p461
sg43
S'--'
p462
ssg153
(dp463
g5
S'--'
p464
sg7
S'--'
p465
sg9
g10
sg11
S'--'
p466
sg13
g14
sg15
S'Ryan Grant'
p467
sg17
S'2014'
p468
sg19
g153
sg21
S'--'
p469
sg23
S'09/21'
p470
sg25
S'--'
p471
sg27
S'--'
p472
sg29
S'--'
p473
sg31
S'L34-37'
p474
sg33
g10
sg35
g10
sg37
S'@PHI'
p475
sg39
S'--'
p476
sg41
g10
sg43
S'--'
p477
ssg204
(dp478
g5
S'--'
p479
sg7
S'--'
p480
sg9
g10
sg11
S'--'
p481
sg13
g14
sg15
S'Ryan Grant'
p482
sg17
S'2014'
p483
sg19
g204
sg21
S'--'
p484
sg23
S'09/14'
p485
sg25
S'11.4'
p486
sg27
S'--'
p487
sg29
S'--'
p488
sg31
S'W41-10'
p489
sg33
S'57'
p490
sg35
g224
sg37
S'JAC'
p491
sg39
S'21'
p492
sg41
g10
sg43
S'--'
p493
ssg224
(dp494
g5
S'--'
p495
sg7
S'--'
p496
sg9
g10
sg11
S'--'
p497
sg13
g14
sg15
S'Ryan Grant'
p498
sg17
S'2014'
p499
sg19
g224
sg21
S'--'
p500
sg23
S'10/06'
p501
sg25
S'--'
p502
sg27
S'--'
p503
sg29
S'--'
p504
sg31
S'L17-27'
p505
sg33
S'--'
p506
sg35
S'--'
p507
sg37
S'SEA'
p508
sg39
S'--'
p509
sg41
S'--'
p510
sg43
S'--'
p511
ssg237
(dp512
g5
S'--'
p513
sg7
S'--'
p514
sg9
g10
sg11
S'--'
p515
sg13
g14
sg15
S'Ryan Grant'
p516
sg17
S'2014'
p517
sg19
g237
sg21
S'--'
p518
sg23
S'09/25'
p519
sg25
S'--'
p520
sg27
S'--'
p521
sg29
S'--'
p522
sg31
S'L14-45'
p523
sg33
g10
sg35
g10
sg37
S'NYG'
p524
sg39
S'--'
p525
sg41
g10
sg43
S'--'
p526
ssg256
(dp527
g5
S'--'
p528
sg7
S'--'
p529
sg9
g10
sg11
S'--'
p530
sg13
g14
sg15
S'Ryan Grant'
p531
sg17
S'2014'
p532
sg19
g256
sg21
S'--'
p533
sg23
S'10/19'
p534
sg25
S'--'
p535
sg27
S'--'
p536
sg29
S'--'
p537
sg31
S'W19-17'
p538
sg33
S'--'
p539
sg35
S'--'
p540
sg37
S'TEN'
p541
sg39
S'--'
p542
sg41
S'--'
p543
sg43
S'--'
p544
ssg206
(dp545
g5
S'--'
p546
sg7
S'--'
p547
sg9
g10
sg11
S'--'
p548
sg13
g14
sg15
S'Ryan Grant'
p549
sg17
S'2014'
p550
sg19
g206
sg21
S'--'
p551
sg23
S'10/12'
p552
sg25
S'--'
p553
sg27
S'--'
p554
sg29
S'--'
p555
sg31
S'L20-30'
p556
sg33
S'--'
p557
sg35
S'--'
p558
sg37
S'@ARI'
p559
sg39
S'--'
p560
sg41
S'--'
p561
sg43
S'--'
p562
ssg203
(dp563
g5
S'--'
p564
sg7
S'--'
p565
sg9
g10
sg11
S'--'
p566
sg13
g14
sg15
S'Ryan Grant'
p567
sg17
S'2014'
p568
sg19
g203
sg21
S'--'
p569
sg23
S'11/02'
p570
sg25
S'--'
p571
sg27
S'--'
p572
sg29
S'--'
p573
sg31
S'L26-29'
p574
sg33
S'--'
p575
sg35
S'--'
p576
sg37
S'@MIN'
p577
sg39
S'--'
p578
sg41
S'--'
p579
sg43
S'--'
p580
ssg307
(dp581
g5
S'--'
p582
sg7
S'--'
p583
sg9
g14
sg11
S'--'
p584
sg13
g14
sg15
S'Ryan Grant'
p585
sg17
S'2014'
p586
sg19
g307
sg21
S'--'
p587
sg23
S'10/27'
p588
sg25
S'--'
p589
sg27
S'--'
p590
sg29
S'--'
p591
sg31
S'W20-17'
p592
sg33
S'--'
p593
sg35
S'--'
p594
sg37
S'@DAL'
p595
sg39
S'--'
p596
sg41
S'--'
p597
sg43
S'--'
p598
sss.