(dp0
S'2015'
p1
(dp2
S'11'
p3
(dp4
S'RushTD'
p5
S'--'
p6
sS'RushYds'
p7
S'--'
p8
sS'GS'
p9
S'0'
p10
sS'Lost'
p11
S'--'
p12
sS'G'
p13
S'1'
p14
sS'Player'
p15
S'Saalim Hakim'
p16
sS'Year'
p17
S'2015'
p18
sS'WK'
p19
S'11'
p20
sS'RushAvg'
p21
S'--'
p22
sS'Game Date'
p23
S'11/22'
p24
sS'RecAvg'
p25
S'--'
p26
sS'FUM'
p27
S'--'
p28
sS'RushAtt'
p29
S'--'
p30
sS'Result'
p31
S'W33-3'
p32
sS'RecYds'
p33
S'--'
p34
sS'Rec'
p35
S'--'
p36
sS'Opp'
p37
S'@SD'
p38
sS'RecLng'
p39
S'--'
p40
sS'RecTD'
p41
S'--'
p42
sS'RushLng'
p43
S'--'
p44
ssS'10'
p45
(dp46
g5
S'--'
p47
sg7
S'--'
p48
sg9
g10
sg11
S'--'
p49
sg13
g14
sg15
S'Saalim Hakim'
p50
sg17
S'2015'
p51
sg19
S'10'
p52
sg21
S'--'
p53
sg23
S'11/15'
p54
sg25
S'--'
p55
sg27
S'--'
p56
sg29
S'--'
p57
sg31
S'W29-13'
p58
sg33
S'--'
p59
sg35
S'--'
p60
sg37
S'@DEN'
p61
sg39
S'--'
p62
sg41
S'--'
p63
sg43
S'--'
p64
ssS'9'
p65
(dp66
g5
S''
p67
sg7
g67
sg9
g67
sg11
g67
sg13
g67
sg15
S'Saalim Hakim'
p68
sg17
S'2015'
p69
sg19
g65
sg21
g67
sg23
S'Bye'
p70
sg25
g67
sg27
g67
sg29
g67
sg31
g67
sg33
g67
sg35
g67
sg37
g67
sg39
g67
sg41
g67
sg43
g67
sssS'2014'
p71
(dp72
g3
(dp73
g5
g67
sg7
g67
sg9
g67
sg11
g67
sg13
g67
sg15
S'Saalim Hakim'
p74
sg17
S'2014'
p75
sg19
S'11'
p76
sg21
g67
sg23
S'Bye'
p77
sg25
g67
sg27
g67
sg29
g67
sg31
g67
sg33
g67
sg35
g67
sg37
g67
sg39
g67
sg41
g67
sg43
g67
ssg45
(dp78
g5
S'--'
p79
sg7
S'--'
p80
sg9
g10
sg11
S'--'
p81
sg13
g14
sg15
S'Saalim Hakim'
p82
sg17
S'2014'
p83
sg19
S'10'
p84
sg21
S'--'
p85
sg23
S'11/09'
p86
sg25
S'--'
p87
sg27
S'--'
p88
sg29
S'--'
p89
sg31
S'W20-13'
p90
sg33
S'--'
p91
sg35
S'--'
p92
sg37
S'PIT'
p93
sg39
S'--'
p94
sg41
S'--'
p95
sg43
S'--'
p96
ssS'13'
p97
(dp98
g5
S'--'
p99
sg7
S'--'
p100
sg9
g10
sg11
S'--'
p101
sg13
g14
sg15
S'Saalim Hakim'
p102
sg17
S'2014'
p103
sg19
S'13'
p104
sg21
S'--'
p105
sg23
S'12/01'
p106
sg25
S'--'
p107
sg27
S'--'
p108
sg29
S'--'
p109
sg31
S'L13-16'
p110
sg33
S'--'
p111
sg35
S'--'
p112
sg37
S'MIA'
p113
sg39
S'--'
p114
sg41
S'--'
p115
sg43
S'--'
p116
ssS'12'
p117
(dp118
g5
S'--'
p119
sg7
S'--'
p120
sg9
g10
sg11
S'--'
p121
sg13
g14
sg15
S'Saalim Hakim'
p122
sg17
S'2014'
p123
sg19
S'12'
p124
sg21
S'--'
p125
sg23
S'11/24'
p126
sg25
S'--'
p127
sg27
S'--'
p128
sg29
S'--'
p129
sg31
S'L3-38'
p130
sg33
S'--'
p131
sg35
S'--'
p132
sg37
S'@BUF'
p133
sg39
S'--'
p134
sg41
S'--'
p135
sg43
S'--'
p136
ssS'15'
p137
(dp138
g5
S'--'
p139
sg7
S'--'
p140
sg9
g10
sg11
S'--'
p141
sg13
g14
sg15
S'Saalim Hakim'
p142
sg17
S'2014'
p143
sg19
S'15'
p144
sg21
S'--'
p145
sg23
S'12/14'
p146
sg25
S'--'
p147
sg27
S'--'
p148
sg29
S'--'
p149
sg31
S'W16-11'
p150
sg33
S'--'
p151
sg35
S'--'
p152
sg37
S'@TEN'
p153
sg39
S'--'
p154
sg41
S'--'
p155
sg43
S'--'
p156
ssS'14'
p157
(dp158
g5
S'--'
p159
sg7
S'--'
p160
sg9
g10
sg11
S'--'
p161
sg13
g14
sg15
S'Saalim Hakim'
p162
sg17
S'2014'
p163
sg19
S'14'
p164
sg21
S'--'
p165
sg23
S'12/07'
p166
sg25
S'--'
p167
sg27
S'--'
p168
sg29
S'--'
p169
sg31
S'L24-30'
p170
sg33
S'--'
p171
sg35
S'--'
p172
sg37
S'@MIN'
p173
sg39
S'--'
p174
sg41
S'--'
p175
sg43
S'--'
p176
ssS'17'
p177
(dp178
g5
S'--'
p179
sg7
S'--'
p180
sg9
g10
sg11
S'--'
p181
sg13
g14
sg15
S'Saalim Hakim'
p182
sg17
S'2014'
p183
sg19
S'17'
p184
sg21
S'--'
p185
sg23
S'12/28'
p186
sg25
S'--'
p187
sg27
S'--'
p188
sg29
S'--'
p189
sg31
S'W37-24'
p190
sg33
S'--'
p191
sg35
S'--'
p192
sg37
S'@MIA'
p193
sg39
S'--'
p194
sg41
S'--'
p195
sg43
S'--'
p196
ssS'16'
p197
(dp198
g5
S'--'
p199
sg7
S'--'
p200
sg9
g10
sg11
S'--'
p201
sg13
g14
sg15
S'Saalim Hakim'
p202
sg17
S'2014'
p203
sg19
S'16'
p204
sg21
S'--'
p205
sg23
S'12/21'
p206
sg25
S'--'
p207
sg27
S'--'
p208
sg29
S'--'
p209
sg31
S'L16-17'
p210
sg33
S'--'
p211
sg35
S'--'
p212
sg37
S'NE'
p213
sg39
S'--'
p214
sg41
S'--'
p215
sg43
S'--'
p216
ssg14
(dp217
g5
S'--'
p218
sg7
S'--'
p219
sg9
g10
sg11
S'--'
p220
sg13
g14
sg15
S'Saalim Hakim'
p221
sg17
S'2014'
p222
sg19
g14
sg21
S'--'
p223
sg23
S'09/07'
p224
sg25
S'--'
p225
sg27
S'--'
p226
sg29
S'--'
p227
sg31
S'W19-14'
p228
sg33
S'--'
p229
sg35
S'--'
p230
sg37
S'OAK'
p231
sg39
S'--'
p232
sg41
S'--'
p233
sg43
S'--'
p234
ssS'3'
p235
(dp236
g5
S'--'
p237
sg7
S'--'
p238
sg9
g10
sg11
S'--'
p239
sg13
g14
sg15
S'Saalim Hakim'
p240
sg17
S'2014'
p241
sg19
g235
sg21
S'--'
p242
sg23
S'09/22'
p243
sg25
S'--'
p244
sg27
S'--'
p245
sg29
S'--'
p246
sg31
S'L19-27'
p247
sg33
S'--'
p248
sg35
S'--'
p249
sg37
S'CHI'
p250
sg39
S'--'
p251
sg41
S'--'
p252
sg43
S'--'
p253
ssS'2'
p254
(dp255
g5
S'--'
p256
sg7
S'--'
p257
sg9
g10
sg11
S'--'
p258
sg13
g14
sg15
S'Saalim Hakim'
p259
sg17
S'2014'
p260
sg19
g254
sg21
S'--'
p261
sg23
S'09/14'
p262
sg25
S'--'
p263
sg27
S'--'
p264
sg29
S'--'
p265
sg31
S'L24-31'
p266
sg33
S'--'
p267
sg35
S'--'
p268
sg37
S'@GB'
p269
sg39
S'--'
p270
sg41
S'--'
p271
sg43
S'--'
p272
ssS'5'
p273
(dp274
g5
S'--'
p275
sg7
S'--'
p276
sg9
g10
sg11
S'--'
p277
sg13
g14
sg15
S'Saalim Hakim'
p278
sg17
S'2014'
p279
sg19
g273
sg21
S'--'
p280
sg23
S'10/05'
p281
sg25
S'--'
p282
sg27
S'--'
p283
sg29
S'--'
p284
sg31
S'L0-31'
p285
sg33
S'--'
p286
sg35
S'--'
p287
sg37
S'@SD'
p288
sg39
S'--'
p289
sg41
S'--'
p290
sg43
S'--'
p291
ssS'4'
p292
(dp293
g5
S'--'
p294
sg7
S'--'
p295
sg9
g10
sg11
S'--'
p296
sg13
g14
sg15
S'Saalim Hakim'
p297
sg17
S'2014'
p298
sg19
g292
sg21
S'--'
p299
sg23
S'09/28'
p300
sg25
S'--'
p301
sg27
S'--'
p302
sg29
S'--'
p303
sg31
S'L17-24'
p304
sg33
S'--'
p305
sg35
S'--'
p306
sg37
S'DET'
p307
sg39
S'--'
p308
sg41
S'--'
p309
sg43
S'--'
p310
ssS'7'
p311
(dp312
g5
S'--'
p313
sg7
S'--'
p314
sg9
g10
sg11
S'--'
p315
sg13
g14
sg15
S'Saalim Hakim'
p316
sg17
S'2014'
p317
sg19
g311
sg21
S'--'
p318
sg23
S'10/16'
p319
sg25
S'--'
p320
sg27
S'--'
p321
sg29
S'--'
p322
sg31
S'L25-27'
p323
sg33
S'--'
p324
sg35
S'--'
p325
sg37
S'@NE'
p326
sg39
S'--'
p327
sg41
S'--'
p328
sg43
S'--'
p329
ssS'6'
p330
(dp331
g5
S'--'
p332
sg7
S'--'
p333
sg9
g10
sg11
S'--'
p334
sg13
g14
sg15
S'Saalim Hakim'
p335
sg17
S'2014'
p336
sg19
g330
sg21
S'--'
p337
sg23
S'10/12'
p338
sg25
S'--'
p339
sg27
S'--'
p340
sg29
S'--'
p341
sg31
S'L17-31'
p342
sg33
S'--'
p343
sg35
S'--'
p344
sg37
S'DEN'
p345
sg39
S'--'
p346
sg41
S'--'
p347
sg43
S'--'
p348
ssg65
(dp349
g5
S'--'
p350
sg7
S'--'
p351
sg9
g10
sg11
S'--'
p352
sg13
g14
sg15
S'Saalim Hakim'
p353
sg17
S'2014'
p354
sg19
g65
sg21
S'--'
p355
sg23
S'11/02'
p356
sg25
S'--'
p357
sg27
S'--'
p358
sg29
S'--'
p359
sg31
S'L10-24'
p360
sg33
S'--'
p361
sg35
S'--'
p362
sg37
S'@KC'
p363
sg39
S'--'
p364
sg41
S'--'
p365
sg43
S'--'
p366
ssS'8'
p367
(dp368
g5
S'--'
p369
sg7
S'--'
p370
sg9
g10
sg11
S'--'
p371
sg13
g14
sg15
S'Saalim Hakim'
p372
sg17
S'2014'
p373
sg19
g367
sg21
S'--'
p374
sg23
S'10/26'
p375
sg25
S'--'
p376
sg27
S'--'
p377
sg29
S'--'
p378
sg31
S'L23-43'
p379
sg33
S'--'
p380
sg35
S'--'
p381
sg37
S'BUF'
p382
sg39
S'--'
p383
sg41
S'--'
p384
sg43
S'--'
p385
sssS'2013'
p386
(dp387
g137
(dp388
g5
g10
sg7
g367
sg9
g10
sg11
S'--'
p389
sg13
g14
sg15
S'Saalim Hakim'
p390
sg17
S'2013'
p391
sg19
S'15'
p392
sg21
S'8.0'
p393
sg23
S'12/15'
p394
sg25
S'--'
p395
sg27
S'--'
p396
sg29
g14
sg31
S'L20-30'
p397
sg33
g10
sg35
g10
sg37
S'@CAR'
p398
sg39
S'--'
p399
sg41
g10
sg43
g367
ssg177
(dp400
g5
S'--'
p401
sg7
S'--'
p402
sg9
g10
sg11
S'--'
p403
sg13
g14
sg15
S'Saalim Hakim'
p404
sg17
S'2013'
p405
sg19
S'17'
p406
sg21
S'--'
p407
sg23
S'12/29'
p408
sg25
S'--'
p409
sg27
S'--'
p410
sg29
S'--'
p411
sg31
S'W20-7'
p412
sg33
S'--'
p413
sg35
S'--'
p414
sg37
S'@MIA'
p415
sg39
S'--'
p416
sg41
S'--'
p417
sg43
S'--'
p418
ssg197
(dp419
g5
g10
sg7
S'-11'
p420
sg9
g10
sg11
S'--'
p421
sg13
g14
sg15
S'Saalim Hakim'
p422
sg17
S'2013'
p423
sg19
S'16'
p424
sg21
S'-11.0'
p425
sg23
S'12/22'
p426
sg25
S'--'
p427
sg27
S'--'
p428
sg29
g14
sg31
S'W24-13'
p429
sg33
S'--'
p430
sg35
S'--'
p431
sg37
S'CLE'
p432
sg39
S'--'
p433
sg41
S'--'
p434
sg43
S'-11'
p435
sssS'2012'
p436
(dp437
g177
(dp438
g5
S'--'
p439
sg7
S'--'
p440
sg9
g10
sg11
S'--'
p441
sg13
g10
sg15
S'Saalim Hakim'
p442
sg17
S'2012'
p443
sg19
S'17'
p444
sg21
S'--'
p445
sg23
S'12/30'
p446
sg25
S'--'
p447
sg27
S'--'
p448
sg29
S'--'
p449
sg31
S'L38-44'
p450
sg33
S'--'
p451
sg35
S'--'
p452
sg37
S'CAR'
p453
sg39
S'--'
p454
sg41
S'--'
p455
sg43
S'--'
p456
ssg197
(dp457
g5
S'--'
p458
sg7
S'--'
p459
sg9
g10
sg11
S'--'
p460
sg13
g10
sg15
S'Saalim Hakim'
p461
sg17
S'2012'
p462
sg19
S'16'
p463
sg21
S'--'
p464
sg23
S'12/23'
p465
sg25
S'--'
p466
sg27
S'--'
p467
sg29
S'--'
p468
sg31
S'W34-31'
p469
sg33
S'--'
p470
sg35
S'--'
p471
sg37
S'@DAL'
p472
sg39
S'--'
p473
sg41
S'--'
p474
sg43
S'--'
p475
sss.