(dp0
S'2015'
p1
(dp2
S'11'
p3
(dp4
S'RushTD'
p5
S''
p6
sS'RushYds'
p7
g6
sS'GS'
p8
g6
sS'Lost'
p9
g6
sS'G'
p10
g6
sS'Player'
p11
S'Sammie Coates'
p12
sS'Year'
p13
S'2015'
p14
sS'WK'
p15
S'11'
p16
sS'RushAvg'
p17
g6
sS'Game Date'
p18
S'Bye'
p19
sS'RecAvg'
p20
g6
sS'FUM'
p21
g6
sS'RushAtt'
p22
g6
sS'Result'
p23
g6
sS'RecYds'
p24
g6
sS'Rec'
p25
g6
sS'Opp'
p26
g6
sS'RecLng'
p27
g6
sS'RecTD'
p28
g6
sS'RushLng'
p29
g6
ssS'10'
p30
(dp31
g5
S'--'
p32
sg7
S'--'
p33
sg8
S'0'
p34
sg9
S'--'
p35
sg10
S'1'
p36
sg11
S'Sammie Coates'
p37
sg13
S'2015'
p38
sg15
S'10'
p39
sg17
S'--'
p40
sg18
S'11/15'
p41
sg20
S'--'
p42
sg21
S'--'
p43
sg22
S'--'
p44
sg23
S'W30-9'
p45
sg24
S'--'
p46
sg25
S'--'
p47
sg26
S'CLE'
p48
sg27
S'--'
p49
sg28
S'--'
p50
sg29
S'--'
p51
ssS'13'
p52
(dp53
g5
S'--'
p54
sg7
S'--'
p55
sg8
g34
sg9
S'--'
p56
sg10
g34
sg11
S'Sammie Coates'
p57
sg13
S'2015'
p58
sg15
S'13'
p59
sg17
S'--'
p60
sg18
S'12/06'
p61
sg20
S'--'
p62
sg21
S'--'
p63
sg22
S'--'
p64
sg23
S'W45-10'
p65
sg24
S'--'
p66
sg25
S'--'
p67
sg26
S'IND'
p68
sg27
S'--'
p69
sg28
S'--'
p70
sg29
S'--'
p71
ssS'12'
p72
(dp73
g5
S'--'
p74
sg7
S'--'
p75
sg8
g34
sg9
S'--'
p76
sg10
g34
sg11
S'Sammie Coates'
p77
sg13
S'2015'
p78
sg15
S'12'
p79
sg17
S'--'
p80
sg18
S'11/29'
p81
sg20
S'--'
p82
sg21
S'--'
p83
sg22
S'--'
p84
sg23
S'L30-39'
p85
sg24
S'--'
p86
sg25
S'--'
p87
sg26
S'@SEA'
p88
sg27
S'--'
p89
sg28
S'--'
p90
sg29
S'--'
p91
ssS'15'
p92
(dp93
g5
S'--'
p94
sg7
S'--'
p95
sg8
g34
sg9
S'--'
p96
sg10
g34
sg11
S'Sammie Coates'
p97
sg13
S'2015'
p98
sg15
S'15'
p99
sg17
S'--'
p100
sg18
S'12/20'
p101
sg20
S'--'
p102
sg21
S'--'
p103
sg22
S'--'
p104
sg23
S'W34-27'
p105
sg24
S'--'
p106
sg25
S'--'
p107
sg26
S'DEN'
p108
sg27
S'--'
p109
sg28
S'--'
p110
sg29
S'--'
p111
ssS'14'
p112
(dp113
g5
S'--'
p114
sg7
S'--'
p115
sg8
g34
sg9
S'--'
p116
sg10
g34
sg11
S'Sammie Coates'
p117
sg13
S'2015'
p118
sg15
S'14'
p119
sg17
S'--'
p120
sg18
S'12/13'
p121
sg20
S'--'
p122
sg21
S'--'
p123
sg22
S'--'
p124
sg23
S'W33-20'
p125
sg24
S'--'
p126
sg25
S'--'
p127
sg26
S'@CIN'
p128
sg27
S'--'
p129
sg28
S'--'
p130
sg29
S'--'
p131
ssS'17'
p132
(dp133
g5
S'--'
p134
sg7
S'--'
p135
sg8
g34
sg9
S'--'
p136
sg10
g34
sg11
S'Sammie Coates'
p137
sg13
S'2015'
p138
sg15
S'17'
p139
sg17
S'--'
p140
sg18
S'01/03'
p141
sg20
S'--'
p142
sg21
S'--'
p143
sg22
S'--'
p144
sg23
S'W28-12'
p145
sg24
S'--'
p146
sg25
S'--'
p147
sg26
S'@CLE'
p148
sg27
S'--'
p149
sg28
S'--'
p150
sg29
S'--'
p151
ssS'16'
p152
(dp153
g5
S'--'
p154
sg7
S'--'
p155
sg8
g34
sg9
S'--'
p156
sg10
g34
sg11
S'Sammie Coates'
p157
sg13
S'2015'
p158
sg15
S'16'
p159
sg17
S'--'
p160
sg18
S'12/27'
p161
sg20
S'--'
p162
sg21
S'--'
p163
sg22
S'--'
p164
sg23
S'L17-20'
p165
sg24
S'--'
p166
sg25
S'--'
p167
sg26
S'@BAL'
p168
sg27
S'--'
p169
sg28
S'--'
p170
sg29
S'--'
p171
ssg36
(dp172
g5
S'--'
p173
sg7
S'--'
p174
sg8
g34
sg9
S'--'
p175
sg10
g34
sg11
S'Sammie Coates'
p176
sg13
S'2015'
p177
sg15
g36
sg17
S'--'
p178
sg18
S'09/10'
p179
sg20
S'--'
p180
sg21
S'--'
p181
sg22
S'--'
p182
sg23
S'L21-28'
p183
sg24
S'--'
p184
sg25
S'--'
p185
sg26
S'@NE'
p186
sg27
S'--'
p187
sg28
S'--'
p188
sg29
S'--'
p189
ssS'3'
p190
(dp191
g5
S'--'
p192
sg7
S'--'
p193
sg8
g34
sg9
S'--'
p194
sg10
g36
sg11
S'Sammie Coates'
p195
sg13
S'2015'
p196
sg15
g190
sg17
S'--'
p197
sg18
S'09/27'
p198
sg20
S'--'
p199
sg21
S'--'
p200
sg22
S'--'
p201
sg23
S'W12-6'
p202
sg24
S'--'
p203
sg25
S'--'
p204
sg26
S'@STL'
p205
sg27
S'--'
p206
sg28
S'--'
p207
sg29
S'--'
p208
ssS'2'
p209
(dp210
g5
S'--'
p211
sg7
S'--'
p212
sg8
g34
sg9
S'--'
p213
sg10
g34
sg11
S'Sammie Coates'
p214
sg13
S'2015'
p215
sg15
g209
sg17
S'--'
p216
sg18
S'09/20'
p217
sg20
S'--'
p218
sg21
S'--'
p219
sg22
S'--'
p220
sg23
S'W43-18'
p221
sg24
S'--'
p222
sg25
S'--'
p223
sg26
S'SF'
p224
sg27
S'--'
p225
sg28
S'--'
p226
sg29
S'--'
p227
ssS'5'
p228
(dp229
g5
S'--'
p230
sg7
S'--'
p231
sg8
g34
sg9
S'--'
p232
sg10
g36
sg11
S'Sammie Coates'
p233
sg13
S'2015'
p234
sg15
g228
sg17
S'--'
p235
sg18
S'10/12'
p236
sg20
S'--'
p237
sg21
S'--'
p238
sg22
S'--'
p239
sg23
S'W24-20'
p240
sg24
S'--'
p241
sg25
S'--'
p242
sg26
S'@SD'
p243
sg27
S'--'
p244
sg28
S'--'
p245
sg29
S'--'
p246
ssS'4'
p247
(dp248
g5
S'--'
p249
sg7
S'--'
p250
sg8
g34
sg9
S'--'
p251
sg10
g36
sg11
S'Sammie Coates'
p252
sg13
S'2015'
p253
sg15
g247
sg17
S'--'
p254
sg18
S'10/01'
p255
sg20
S'11.0'
p256
sg21
S'--'
p257
sg22
S'--'
p258
sg23
S'L20-23'
p259
sg24
S'11'
p260
sg25
g36
sg26
S'BAL'
p261
sg27
S'11'
p262
sg28
g34
sg29
S'--'
p263
ssS'7'
p264
(dp265
g5
S'--'
p266
sg7
S'--'
p267
sg8
g34
sg9
S'--'
p268
sg10
g34
sg11
S'Sammie Coates'
p269
sg13
S'2015'
p270
sg15
g264
sg17
S'--'
p271
sg18
S'10/25'
p272
sg20
S'--'
p273
sg21
S'--'
p274
sg22
S'--'
p275
sg23
S'L13-23'
p276
sg24
S'--'
p277
sg25
S'--'
p278
sg26
S'@KC'
p279
sg27
S'--'
p280
sg28
S'--'
p281
sg29
S'--'
p282
ssS'6'
p283
(dp284
g5
S'--'
p285
sg7
S'--'
p286
sg8
g34
sg9
S'--'
p287
sg10
g36
sg11
S'Sammie Coates'
p288
sg13
S'2015'
p289
sg15
g283
sg17
S'--'
p290
sg18
S'10/18'
p291
sg20
S'--'
p292
sg21
S'--'
p293
sg22
S'--'
p294
sg23
S'W25-13'
p295
sg24
S'--'
p296
sg25
S'--'
p297
sg26
S'ARI'
p298
sg27
S'--'
p299
sg28
S'--'
p300
sg29
S'--'
p301
ssS'9'
p302
(dp303
g5
S'--'
p304
sg7
S'--'
p305
sg8
g34
sg9
S'--'
p306
sg10
g36
sg11
S'Sammie Coates'
p307
sg13
S'2015'
p308
sg15
g302
sg17
S'--'
p309
sg18
S'11/08'
p310
sg20
S'--'
p311
sg21
S'--'
p312
sg22
S'--'
p313
sg23
S'W38-35'
p314
sg24
S'--'
p315
sg25
S'--'
p316
sg26
S'OAK'
p317
sg27
S'--'
p318
sg28
S'--'
p319
sg29
S'--'
p320
ssS'8'
p321
(dp322
g5
S'--'
p323
sg7
S'--'
p324
sg8
g34
sg9
S'--'
p325
sg10
g34
sg11
S'Sammie Coates'
p326
sg13
S'2015'
p327
sg15
g321
sg17
S'--'
p328
sg18
S'11/01'
p329
sg20
S'--'
p330
sg21
S'--'
p331
sg22
S'--'
p332
sg23
S'L10-16'
p333
sg24
S'--'
p334
sg25
S'--'
p335
sg26
S'CIN'
p336
sg27
S'--'
p337
sg28
S'--'
p338
sg29
S'--'
p339
sss.