(dp0
S'2015'
p1
(dp2
S'17'
p3
(dp4
S'RushTD'
p5
S'--'
p6
sS'RushYds'
p7
S'--'
p8
sS'GS'
p9
S'0'
p10
sS'Lost'
p11
S'--'
p12
sS'G'
p13
S'1'
p14
sS'Player'
p15
S'Seantavius Jones'
p16
sS'Year'
p17
S'2015'
p18
sS'WK'
p19
S'17'
p20
sS'RushAvg'
p21
S'--'
p22
sS'Game Date'
p23
S'01/03'
p24
sS'RecAvg'
p25
S'--'
p26
sS'FUM'
p27
S'--'
p28
sS'RushAtt'
p29
S'--'
p30
sS'Result'
p31
S'W20-17'
p32
sS'RecYds'
p33
S'--'
p34
sS'Rec'
p35
S'--'
p36
sS'Opp'
p37
S'@ATL'
p38
sS'RecLng'
p39
S'--'
p40
sS'RecTD'
p41
S'--'
p42
sS'RushLng'
p43
S'--'
p44
ssS'16'
p45
(dp46
g5
S'--'
p47
sg7
S'--'
p48
sg9
g10
sg11
S'--'
p49
sg13
g14
sg15
S'Seantavius Jones'
p50
sg17
S'2015'
p51
sg19
S'16'
p52
sg21
S'--'
p53
sg23
S'12/27'
p54
sg25
S'--'
p55
sg27
S'--'
p56
sg29
S'--'
p57
sg31
S'W38-27'
p58
sg33
g10
sg35
g10
sg37
S'JAC'
p59
sg39
S'--'
p60
sg41
g10
sg43
S'--'
p61
ssg14
(dp62
g5
S'--'
p63
sg7
S'--'
p64
sg9
g10
sg11
S'--'
p65
sg13
g14
sg15
S'Seantavius Jones'
p66
sg17
S'2015'
p67
sg19
g14
sg21
S'--'
p68
sg23
S'09/13'
p69
sg25
S'--'
p70
sg27
S'--'
p71
sg29
S'--'
p72
sg31
S'L19-31'
p73
sg33
S'--'
p74
sg35
S'--'
p75
sg37
S'@ARI'
p76
sg39
S'--'
p77
sg41
S'--'
p78
sg43
S'--'
p79
sssS'2014'
p80
(dp81
S'15'
p82
(dp83
g5
S'--'
p84
sg7
S'--'
p85
sg9
g10
sg11
S'--'
p86
sg13
g10
sg15
S'Seantavius Jones'
p87
sg17
S'2014'
p88
sg19
S'15'
p89
sg21
S'--'
p90
sg23
S'12/15'
p91
sg25
S'--'
p92
sg27
S'--'
p93
sg29
S'--'
p94
sg31
S'W31-15'
p95
sg33
S'--'
p96
sg35
S'--'
p97
sg37
S'@CHI'
p98
sg39
S'--'
p99
sg41
S'--'
p100
sg43
S'--'
p101
ssg3
(dp102
g5
S'--'
p103
sg7
S'--'
p104
sg9
g10
sg11
S'--'
p105
sg13
g10
sg15
S'Seantavius Jones'
p106
sg17
S'2014'
p107
sg19
S'17'
p108
sg21
S'--'
p109
sg23
S'12/28'
p110
sg25
S'--'
p111
sg27
S'--'
p112
sg29
S'--'
p113
sg31
S'W23-20'
p114
sg33
S'--'
p115
sg35
S'--'
p116
sg37
S'@TB'
p117
sg39
S'--'
p118
sg41
S'--'
p119
sg43
S'--'
p120
ssg45
(dp121
g5
S'--'
p122
sg7
S'--'
p123
sg9
g10
sg11
S'--'
p124
sg13
g10
sg15
S'Seantavius Jones'
p125
sg17
S'2014'
p126
sg19
S'16'
p127
sg21
S'--'
p128
sg23
S'12/21'
p129
sg25
S'--'
p130
sg27
S'--'
p131
sg29
S'--'
p132
sg31
S'L14-30'
p133
sg33
S'--'
p134
sg35
S'--'
p135
sg37
S'ATL'
p136
sg39
S'--'
p137
sg41
S'--'
p138
sg43
S'--'
p139
sss.