(dp0
S'2015'
p1
(dp2
S'11'
p3
(dp4
S'RushTD'
p5
S'--'
p6
sS'RushYds'
p7
S'--'
p8
sS'GS'
p9
S'1'
p10
sS'Lost'
p11
S'--'
p12
sS'G'
p13
g10
sS'Player'
p14
S'Seth Roberts'
p15
sS'Year'
p16
S'2015'
p17
sS'WK'
p18
S'11'
p19
sS'RushAvg'
p20
S'--'
p21
sS'Game Date'
p22
S'11/22'
p23
sS'RecAvg'
p24
S'27.0'
p25
sS'FUM'
p26
S'--'
p27
sS'RushAtt'
p28
S'--'
p29
sS'Result'
p30
S'L13-18'
p31
sS'RecYds'
p32
S'54'
p33
sS'Rec'
p34
S'2'
p35
sS'Opp'
p36
S'@DET'
p37
sS'RecLng'
p38
S'43'
p39
sS'RecTD'
p40
S'0'
p41
sS'RushLng'
p42
S'--'
p43
ssS'10'
p44
(dp45
g5
S'--'
p46
sg7
S'--'
p47
sg9
g41
sg11
S'--'
p48
sg13
g10
sg14
S'Seth Roberts'
p49
sg16
S'2015'
p50
sg18
S'10'
p51
sg20
S'--'
p52
sg22
S'11/15'
p53
sg24
S'5.0'
p54
sg26
S'--'
p55
sg28
S'--'
p56
sg30
S'L14-30'
p57
sg32
S'5'
p58
sg34
g10
sg36
S'MIN'
p59
sg38
g58
sg40
g41
sg42
S'--'
p60
ssS'13'
p61
(dp62
g5
S'--'
p63
sg7
S'--'
p64
sg9
g41
sg11
S'--'
p65
sg13
g10
sg14
S'Seth Roberts'
p66
sg16
S'2015'
p67
sg18
S'13'
p68
sg20
S'--'
p69
sg22
S'12/06'
p70
sg24
S'12.8'
p71
sg26
S'--'
p72
sg28
S'--'
p73
sg30
S'L20-34'
p74
sg32
S'51'
p75
sg34
S'4'
p76
sg36
S'KC'
p77
sg38
S'17'
p78
sg40
g41
sg42
S'--'
p79
ssS'12'
p80
(dp81
g5
S'--'
p82
sg7
S'--'
p83
sg9
g10
sg11
S'--'
p84
sg13
g10
sg14
S'Seth Roberts'
p85
sg16
S'2015'
p86
sg18
S'12'
p87
sg20
S'--'
p88
sg22
S'11/29'
p89
sg24
S'18.8'
p90
sg26
S'--'
p91
sg28
S'--'
p92
sg30
S'W24-21'
p93
sg32
S'113'
p94
sg34
S'6'
p95
sg36
S'@TEN'
p96
sg38
S'38'
p97
sg40
g35
sg42
S'--'
p98
ssS'15'
p99
(dp100
g5
S'--'
p101
sg7
S'--'
p102
sg9
g10
sg11
S'--'
p103
sg13
g10
sg14
S'Seth Roberts'
p104
sg16
S'2015'
p105
sg18
S'15'
p106
sg20
S'--'
p107
sg22
S'12/20'
p108
sg24
S'--'
p109
sg26
S'--'
p110
sg28
S'--'
p111
sg30
S'L20-30'
p112
sg32
g41
sg34
g41
sg36
S'GB'
p113
sg38
S'--'
p114
sg40
g41
sg42
S'--'
p115
ssS'14'
p116
(dp117
g5
S'--'
p118
sg7
S'--'
p119
sg9
g10
sg11
S'--'
p120
sg13
g10
sg14
S'Seth Roberts'
p121
sg16
S'2015'
p122
sg18
S'14'
p123
sg20
S'--'
p124
sg22
S'12/13'
p125
sg24
S'10.0'
p126
sg26
S'--'
p127
sg28
S'--'
p128
sg30
S'W15-12'
p129
sg32
S'20'
p130
sg34
g35
sg36
S'@DEN'
p131
sg38
S'11T'
p132
sg40
g10
sg42
S'--'
p133
ssS'17'
p134
(dp135
g5
S'--'
p136
sg7
S'--'
p137
sg9
g41
sg11
S'--'
p138
sg13
g10
sg14
S'Seth Roberts'
p139
sg16
S'2015'
p140
sg18
S'17'
p141
sg20
S'--'
p142
sg22
S'01/03'
p143
sg24
S'6.7'
p144
sg26
S'--'
p145
sg28
S'--'
p146
sg30
S'L17-23'
p147
sg32
S'20'
p148
sg34
S'3'
p149
sg36
S'@KC'
p150
sg38
S'19'
p151
sg40
g41
sg42
S'--'
p152
ssS'16'
p153
(dp154
g5
S'--'
p155
sg7
S'--'
p156
sg9
g41
sg11
S'--'
p157
sg13
g10
sg14
S'Seth Roberts'
p158
sg16
S'2015'
p159
sg18
S'16'
p160
sg20
S'--'
p161
sg22
S'12/24'
p162
sg24
S'18.5'
p163
sg26
S'--'
p164
sg28
S'--'
p165
sg30
S'W23-20'
p166
sg32
S'37'
p167
sg34
g35
sg36
S'SD'
p168
sg38
S'33'
p169
sg40
g41
sg42
S'--'
p170
ssg10
(dp171
g5
S'--'
p172
sg7
S'--'
p173
sg9
g41
sg11
S'--'
p174
sg13
g10
sg14
S'Seth Roberts'
p175
sg16
S'2015'
p176
sg18
g10
sg20
S'--'
p177
sg22
S'09/13'
p178
sg24
S'4.0'
p179
sg26
S'--'
p180
sg28
S'--'
p181
sg30
S'L13-33'
p182
sg32
S'12'
p183
sg34
g149
sg36
S'CIN'
p184
sg38
S'7'
p185
sg40
g41
sg42
S'--'
p186
ssg149
(dp187
g5
S'--'
p188
sg7
S'--'
p189
sg9
g41
sg11
S'--'
p190
sg13
g10
sg14
S'Seth Roberts'
p191
sg16
S'2015'
p192
sg18
g149
sg20
S'--'
p193
sg22
S'09/27'
p194
sg24
S'18.7'
p195
sg26
S'--'
p196
sg28
S'--'
p197
sg30
S'W27-20'
p198
sg32
S'56'
p199
sg34
g149
sg36
S'@CLE'
p200
sg38
S'36'
p201
sg40
g10
sg42
S'--'
p202
ssg35
(dp203
g5
S'--'
p204
sg7
S'--'
p205
sg9
g41
sg11
S'--'
p206
sg13
g10
sg14
S'Seth Roberts'
p207
sg16
S'2015'
p208
sg18
g35
sg20
S'--'
p209
sg22
S'09/20'
p210
sg24
S'12.0'
p211
sg26
S'--'
p212
sg28
S'--'
p213
sg30
S'W37-33'
p214
sg32
S'12'
p215
sg34
g10
sg36
S'BAL'
p216
sg38
S'12T'
p217
sg40
g10
sg42
S'--'
p218
ssg58
(dp219
g5
S'--'
p220
sg7
S'--'
p221
sg9
g41
sg11
S'--'
p222
sg13
g10
sg14
S'Seth Roberts'
p223
sg16
S'2015'
p224
sg18
g58
sg20
S'--'
p225
sg22
S'10/11'
p226
sg24
S'--'
p227
sg26
S'--'
p228
sg28
S'--'
p229
sg30
S'L10-16'
p230
sg32
g41
sg34
g41
sg36
S'DEN'
p231
sg38
S'--'
p232
sg40
g41
sg42
S'--'
p233
ssg76
(dp234
g5
S'--'
p235
sg7
S'--'
p236
sg9
g41
sg11
S'--'
p237
sg13
g10
sg14
S'Seth Roberts'
p238
sg16
S'2015'
p239
sg18
g76
sg20
S'--'
p240
sg22
S'10/04'
p241
sg24
S'--'
p242
sg26
S'--'
p243
sg28
S'--'
p244
sg30
S'L20-22'
p245
sg32
g41
sg34
g41
sg36
S'@CHI'
p246
sg38
S'--'
p247
sg40
g41
sg42
S'--'
p248
ssg185
(dp249
g5
S'--'
p250
sg7
S'--'
p251
sg9
g41
sg11
S'--'
p252
sg13
g10
sg14
S'Seth Roberts'
p253
sg16
S'2015'
p254
sg18
g185
sg20
S'--'
p255
sg22
S'10/25'
p256
sg24
S'6.0'
p257
sg26
S'--'
p258
sg28
S'--'
p259
sg30
S'W37-29'
p260
sg32
g95
sg34
g10
sg36
S'@SD'
p261
sg38
g95
sg40
g41
sg42
S'--'
p262
ssg95
(dp263
g5
S''
p264
sg7
g264
sg9
g264
sg11
g264
sg13
g264
sg14
S'Seth Roberts'
p265
sg16
S'2015'
p266
sg18
g95
sg20
g264
sg22
S'Bye'
p267
sg24
g264
sg26
g264
sg28
g264
sg30
g264
sg32
g264
sg34
g264
sg36
g264
sg38
g264
sg40
g264
sg42
g264
ssS'9'
p268
(dp269
g5
S'--'
p270
sg7
S'--'
p271
sg9
g10
sg11
S'--'
p272
sg13
g10
sg14
S'Seth Roberts'
p273
sg16
S'2015'
p274
sg18
g268
sg20
S'--'
p275
sg22
S'11/08'
p276
sg24
S'24.3'
p277
sg26
S'--'
p278
sg28
S'--'
p279
sg30
S'L35-38'
p280
sg32
S'73'
p281
sg34
g149
sg36
S'@PIT'
p282
sg38
S'36'
p283
sg40
g41
sg42
S'--'
p284
ssS'8'
p285
(dp286
g5
S'--'
p287
sg7
S'--'
p288
sg9
g41
sg11
S'--'
p289
sg13
g10
sg14
S'Seth Roberts'
p290
sg16
S'2015'
p291
sg18
g285
sg20
S'--'
p292
sg22
S'11/01'
p293
sg24
S'21.0'
p294
sg26
S'--'
p295
sg28
S'--'
p296
sg30
S'W34-20'
p297
sg32
S'21'
p298
sg34
g10
sg36
S'NYJ'
p299
sg38
S'21'
p300
sg40
g41
sg42
S'--'
p301
sss.