(dp0
S'2015'
p1
(dp2
S'1'
p3
(dp4
S'RushTD'
p5
S'--'
p6
sS'RushYds'
p7
S'--'
p8
sS'GS'
p9
S'0'
p10
sS'Lost'
p11
S'--'
p12
sS'G'
p13
g3
sS'Player'
p14
S'Stedman Bailey'
p15
sS'Year'
p16
S'2015'
p17
sS'WK'
p18
g3
sS'RushAvg'
p19
S'--'
p20
sS'Game Date'
p21
S'09/13'
p22
sS'RecAvg'
p23
S'19.3'
p24
sS'FUM'
p25
S'--'
p26
sS'RushAtt'
p27
S'--'
p28
sS'Result'
p29
S'W34-31'
p30
sS'RecYds'
p31
S'58'
p32
sS'Rec'
p33
S'3'
p34
sS'Opp'
p35
S'SEA'
p36
sS'RecLng'
p37
S'29'
p38
sS'RecTD'
p39
g10
sS'RushLng'
p40
S'--'
p41
ssg34
(dp42
g5
S'--'
p43
sg7
S'--'
p44
sg9
g10
sg11
S'--'
p45
sg13
g3
sg14
S'Stedman Bailey'
p46
sg16
S'2015'
p47
sg18
g34
sg19
S'--'
p48
sg21
S'09/27'
p49
sg23
S'--'
p50
sg25
S'--'
p51
sg27
S'--'
p52
sg29
S'L6-12'
p53
sg31
g10
sg33
g10
sg35
S'PIT'
p54
sg37
S'--'
p55
sg39
g10
sg40
S'--'
p56
ssS'2'
p57
(dp58
g5
S'--'
p59
sg7
S'--'
p60
sg9
g10
sg11
S'--'
p61
sg13
g3
sg14
S'Stedman Bailey'
p62
sg16
S'2015'
p63
sg18
g57
sg19
S'--'
p64
sg21
S'09/20'
p65
sg23
S'0.0'
p66
sg25
S'--'
p67
sg27
S'--'
p68
sg29
S'L10-24'
p69
sg31
g10
sg33
g3
sg35
S'@WAS'
p70
sg37
g10
sg39
g10
sg40
S'--'
p71
ssS'5'
p72
(dp73
g5
S'--'
p74
sg7
S'--'
p75
sg9
g10
sg11
S'--'
p76
sg13
g3
sg14
S'Stedman Bailey'
p77
sg16
S'2015'
p78
sg18
g72
sg19
S'--'
p79
sg21
S'10/11'
p80
sg23
S'24.3'
p81
sg25
S'--'
p82
sg27
S'--'
p83
sg29
S'L10-24'
p84
sg31
S'73'
p85
sg33
g34
sg35
S'@GB'
p86
sg37
S'68'
p87
sg39
g10
sg40
S'--'
p88
ssS'4'
p89
(dp90
g5
S'--'
p91
sg7
S'--'
p92
sg9
g3
sg11
S'--'
p93
sg13
g3
sg14
S'Stedman Bailey'
p94
sg16
S'2015'
p95
sg18
g89
sg19
S'--'
p96
sg21
S'10/04'
p97
sg23
S'15.0'
p98
sg25
S'--'
p99
sg27
S'--'
p100
sg29
S'W24-22'
p101
sg31
S'30'
p102
sg33
g57
sg35
S'@ARI'
p103
sg37
S'18T'
p104
sg39
g3
sg40
S'--'
p105
ssS'7'
p106
(dp107
g5
S'--'
p108
sg7
S'--'
p109
sg9
g3
sg11
S'--'
p110
sg13
g3
sg14
S'Stedman Bailey'
p111
sg16
S'2015'
p112
sg18
g106
sg19
S'--'
p113
sg21
S'10/25'
p114
sg23
S'8.0'
p115
sg25
S'--'
p116
sg27
S'--'
p117
sg29
S'W24-6'
p118
sg31
S'8'
p119
sg33
g3
sg35
S'CLE'
p120
sg37
g119
sg39
g10
sg40
S'--'
p121
ssS'6'
p122
(dp123
g5
S''
p124
sg7
g124
sg9
g124
sg11
g124
sg13
g124
sg14
S'Stedman Bailey'
p125
sg16
S'2015'
p126
sg18
g122
sg19
g124
sg21
S'Bye'
p127
sg23
g124
sg25
g124
sg27
g124
sg29
g124
sg31
g124
sg33
g124
sg35
g124
sg37
g124
sg39
g124
sg40
g124
ssS'9'
p128
(dp129
g5
S'--'
p130
sg7
S'--'
p131
sg9
g10
sg11
S'--'
p132
sg13
g3
sg14
S'Stedman Bailey'
p133
sg16
S'2015'
p134
sg18
g128
sg19
S'--'
p135
sg21
S'11/08'
p136
sg23
S'6.5'
p137
sg25
S'--'
p138
sg27
S'--'
p139
sg29
S'L18-21'
p140
sg31
S'13'
p141
sg33
g57
sg35
S'@MIN'
p142
sg37
S'10'
p143
sg39
g10
sg40
S'--'
p144
ssg119
(dp145
g5
S'--'
p146
sg7
S'--'
p147
sg9
g3
sg11
S'--'
p148
sg13
g3
sg14
S'Stedman Bailey'
p149
sg16
S'2015'
p150
sg18
g119
sg19
S'--'
p151
sg21
S'11/01'
p152
sg23
S'--'
p153
sg25
S'--'
p154
sg27
S'--'
p155
sg29
S'W27-6'
p156
sg31
g10
sg33
g10
sg35
S'SF'
p157
sg37
S'--'
p158
sg39
g10
sg40
S'--'
p159
sssS'2014'
p160
(dp161
S'11'
p162
(dp163
g5
S'--'
p164
sg7
S'--'
p165
sg9
g10
sg11
S'--'
p166
sg13
g3
sg14
S'Stedman Bailey'
p167
sg16
S'2014'
p168
sg18
S'11'
p169
sg19
S'--'
p170
sg21
S'11/16'
p171
sg23
S'8.7'
p172
sg25
S'--'
p173
sg27
S'--'
p174
sg29
S'W22-7'
p175
sg31
S'26'
p176
sg33
g34
sg35
S'DEN'
p177
sg37
S'10'
p178
sg39
g10
sg40
S'--'
p179
ssS'10'
p180
(dp181
g5
S'--'
p182
sg7
S'--'
p183
sg9
g3
sg11
S'--'
p184
sg13
g3
sg14
S'Stedman Bailey'
p185
sg16
S'2014'
p186
sg18
S'10'
p187
sg19
S'--'
p188
sg21
S'11/09'
p189
sg23
S'--'
p190
sg25
S'--'
p191
sg27
S'--'
p192
sg29
S'L14-31'
p193
sg31
g10
sg33
g10
sg35
S'@ARI'
p194
sg37
S'--'
p195
sg39
g10
sg40
S'--'
p196
ssS'13'
p197
(dp198
g5
S'--'
p199
sg7
S'--'
p200
sg9
g3
sg11
S'--'
p201
sg13
g3
sg14
S'Stedman Bailey'
p202
sg16
S'2014'
p203
sg18
S'13'
p204
sg19
S'--'
p205
sg21
S'11/30'
p206
sg23
S'20.0'
p207
sg25
S'--'
p208
sg27
S'--'
p209
sg29
S'W52-0'
p210
sg31
S'100'
p211
sg33
g72
sg35
S'OAK'
p212
sg37
S'34'
p213
sg39
g10
sg40
S'--'
p214
ssS'12'
p215
(dp216
g5
S'--'
p217
sg7
S'--'
p218
sg9
g10
sg11
S'--'
p219
sg13
g3
sg14
S'Stedman Bailey'
p220
sg16
S'2014'
p221
sg18
S'12'
p222
sg19
S'--'
p223
sg21
S'11/23'
p224
sg23
S'12.7'
p225
sg25
S'--'
p226
sg27
S'--'
p227
sg29
S'L24-27'
p228
sg31
S'89'
p229
sg33
g106
sg35
S'@SD'
p230
sg37
S'22'
p231
sg39
g3
sg40
S'--'
p232
ssS'15'
p233
(dp234
g5
g10
sg7
S'13'
p235
sg9
g10
sg11
S'--'
p236
sg13
g3
sg14
S'Stedman Bailey'
p237
sg16
S'2014'
p238
sg18
S'15'
p239
sg19
S'13.0'
p240
sg21
S'12/11'
p241
sg23
S'14.8'
p242
sg25
S'--'
p243
sg27
g3
sg29
S'L6-12'
p244
sg31
S'74'
p245
sg33
g72
sg35
S'ARI'
p246
sg37
S'38'
p247
sg39
g10
sg40
S'13'
p248
ssS'14'
p249
(dp250
g5
S'--'
p251
sg7
S'--'
p252
sg9
g10
sg11
S'--'
p253
sg13
g3
sg14
S'Stedman Bailey'
p254
sg16
S'2014'
p255
sg18
S'14'
p256
sg19
S'--'
p257
sg21
S'12/07'
p258
sg23
S'23.5'
p259
sg25
S'--'
p260
sg27
S'--'
p261
sg29
S'W24-0'
p262
sg31
S'47'
p263
sg33
g57
sg35
S'@WAS'
p264
sg37
S'36'
p265
sg39
g10
sg40
S'--'
p266
ssS'17'
p267
(dp268
g5
S'--'
p269
sg7
S'--'
p270
sg9
g10
sg11
S'--'
p271
sg13
g3
sg14
S'Stedman Bailey'
p272
sg16
S'2014'
p273
sg18
S'17'
p274
sg19
S'--'
p275
sg21
S'12/28'
p276
sg23
S'17.0'
p277
sg25
S'--'
p278
sg27
S'--'
p279
sg29
S'L6-20'
p280
sg31
S'17'
p281
sg33
g3
sg35
S'@SEA'
p282
sg37
S'17'
p283
sg39
g10
sg40
S'--'
p284
ssS'16'
p285
(dp286
g5
S'--'
p287
sg7
S'--'
p288
sg9
g3
sg11
S'--'
p289
sg13
g3
sg14
S'Stedman Bailey'
p290
sg16
S'2014'
p291
sg18
S'16'
p292
sg19
S'--'
p293
sg21
S'12/21'
p294
sg23
S'11.0'
p295
sg25
S'--'
p296
sg27
S'--'
p297
sg29
S'L27-37'
p298
sg31
S'22'
p299
sg33
g57
sg35
S'NYG'
p300
sg37
S'17'
p301
sg39
g10
sg40
S'--'
p302
ssg34
(dp303
g5
S'--'
p304
sg7
S'--'
p305
sg9
g10
sg11
S'--'
p306
sg13
g3
sg14
S'Stedman Bailey'
p307
sg16
S'2014'
p308
sg18
g34
sg19
S'--'
p309
sg21
S'09/21'
p310
sg23
S'--'
p311
sg25
S'--'
p312
sg27
S'--'
p313
sg29
S'L31-34'
p314
sg31
S'--'
p315
sg33
S'--'
p316
sg35
S'DAL'
p317
sg37
S'--'
p318
sg39
S'--'
p319
sg40
S'--'
p320
ssg72
(dp321
g5
S'--'
p322
sg7
S'--'
p323
sg9
g10
sg11
S'--'
p324
sg13
g3
sg14
S'Stedman Bailey'
p325
sg16
S'2014'
p326
sg18
g72
sg19
S'--'
p327
sg21
S'10/05'
p328
sg23
S'10.0'
p329
sg25
S'--'
p330
sg27
S'--'
p331
sg29
S'L28-34'
p332
sg31
S'20'
p333
sg33
g57
sg35
S'@PHI'
p334
sg37
S'14'
p335
sg39
g10
sg40
S'--'
p336
ssg89
(dp337
g5
g124
sg7
g124
sg9
g124
sg11
g124
sg13
g124
sg14
S'Stedman Bailey'
p338
sg16
S'2014'
p339
sg18
g89
sg19
g124
sg21
S'Bye'
p340
sg23
g124
sg25
g124
sg27
g124
sg29
g124
sg31
g124
sg33
g124
sg35
g124
sg37
g124
sg39
g124
sg40
g124
ssg106
(dp341
g5
S'--'
p342
sg7
S'--'
p343
sg9
g10
sg11
S'--'
p344
sg13
g3
sg14
S'Stedman Bailey'
p345
sg16
S'2014'
p346
sg18
g106
sg19
S'--'
p347
sg21
S'10/19'
p348
sg23
S'--'
p349
sg25
S'--'
p350
sg27
S'--'
p351
sg29
S'W28-26'
p352
sg31
S'--'
p353
sg33
S'--'
p354
sg35
S'SEA'
p355
sg37
S'--'
p356
sg39
S'--'
p357
sg40
S'--'
p358
ssg122
(dp359
g5
S'--'
p360
sg7
S'--'
p361
sg9
g10
sg11
S'--'
p362
sg13
g3
sg14
S'Stedman Bailey'
p363
sg16
S'2014'
p364
sg18
g122
sg19
S'--'
p365
sg21
S'10/13'
p366
sg23
S'--'
p367
sg25
S'--'
p368
sg27
S'--'
p369
sg29
S'L17-31'
p370
sg31
g10
sg33
g10
sg35
S'SF'
p371
sg37
S'--'
p372
sg39
g10
sg40
S'--'
p373
ssg128
(dp374
g5
S'--'
p375
sg7
S'--'
p376
sg9
g10
sg11
S'--'
p377
sg13
g3
sg14
S'Stedman Bailey'
p378
sg16
S'2014'
p379
sg18
g128
sg19
S'--'
p380
sg21
S'11/02'
p381
sg23
S'7.0'
p382
sg25
S'--'
p383
sg27
S'--'
p384
sg29
S'W13-10'
p385
sg31
g106
sg33
g3
sg35
S'@SF'
p386
sg37
g106
sg39
g10
sg40
S'--'
p387
ssg119
(dp388
g5
S'--'
p389
sg7
S'--'
p390
sg9
g10
sg11
S'--'
p391
sg13
g3
sg14
S'Stedman Bailey'
p392
sg16
S'2014'
p393
sg18
g119
sg19
S'--'
p394
sg21
S'10/26'
p395
sg23
S'16.5'
p396
sg25
S'--'
p397
sg27
S'--'
p398
sg29
S'L7-34'
p399
sg31
S'33'
p400
sg33
g57
sg35
S'@KC'
p401
sg37
S'20'
p402
sg39
g10
sg40
S'--'
p403
sssS'2013'
p404
(dp405
g162
(dp406
g5
g124
sg7
g124
sg9
g124
sg11
g124
sg13
g124
sg14
S'Stedman Bailey'
p407
sg16
S'2013'
p408
sg18
S'11'
p409
sg19
g124
sg21
S'Bye'
p410
sg23
g124
sg25
g124
sg27
g124
sg29
g124
sg31
g124
sg33
g124
sg35
g124
sg37
g124
sg39
g124
sg40
g124
ssg180
(dp411
g5
S'--'
p412
sg7
S'--'
p413
sg9
g10
sg11
S'--'
p414
sg13
g3
sg14
S'Stedman Bailey'
p415
sg16
S'2013'
p416
sg18
S'10'
p417
sg19
S'--'
p418
sg21
S'11/10'
p419
sg23
S'--'
p420
sg25
S'--'
p421
sg27
S'--'
p422
sg29
S'W38-8'
p423
sg31
S'--'
p424
sg33
S'--'
p425
sg35
S'@IND'
p426
sg37
S'--'
p427
sg39
S'--'
p428
sg40
S'--'
p429
ssg197
(dp430
g5
S'--'
p431
sg7
S'--'
p432
sg9
g10
sg11
S'--'
p433
sg13
g3
sg14
S'Stedman Bailey'
p434
sg16
S'2013'
p435
sg18
S'13'
p436
sg19
S'--'
p437
sg21
S'12/01'
p438
sg23
S'15.3'
p439
sg25
S'--'
p440
sg27
S'--'
p441
sg29
S'L13-23'
p442
sg31
S'46'
p443
sg33
g34
sg35
S'@SF'
p444
sg37
S'17'
p445
sg39
g10
sg40
S'--'
p446
ssg215
(dp447
g5
S'--'
p448
sg7
S'--'
p449
sg9
g10
sg11
S'--'
p450
sg13
g3
sg14
S'Stedman Bailey'
p451
sg16
S'2013'
p452
sg18
S'12'
p453
sg19
S'--'
p454
sg21
S'11/24'
p455
sg23
S'19.0'
p456
sg25
S'--'
p457
sg27
S'--'
p458
sg29
S'W42-21'
p459
sg31
S'19'
p460
sg33
g3
sg35
S'CHI'
p461
sg37
S'19'
p462
sg39
g10
sg40
S'--'
p463
ssg233
(dp464
g5
g10
sg7
g122
sg9
g10
sg11
S'--'
p465
sg13
g3
sg14
S'Stedman Bailey'
p466
sg16
S'2013'
p467
sg18
S'15'
p468
sg19
S'6.0'
p469
sg21
S'12/15'
p470
sg23
S'13.0'
p471
sg25
S'--'
p472
sg27
g3
sg29
S'W27-16'
p473
sg31
S'26'
p474
sg33
g57
sg35
S'NO'
p475
sg37
S'20'
p476
sg39
g10
sg40
g122
ssg249
(dp477
g5
S'--'
p478
sg7
S'--'
p479
sg9
g3
sg11
S'--'
p480
sg13
g3
sg14
S'Stedman Bailey'
p481
sg16
S'2013'
p482
sg18
S'14'
p483
sg19
S'--'
p484
sg21
S'12/08'
p485
sg23
S'15.3'
p486
sg25
S'--'
p487
sg27
S'--'
p488
sg29
S'L10-30'
p489
sg31
S'46'
p490
sg33
g34
sg35
S'@ARI'
p491
sg37
S'18'
p492
sg39
g10
sg40
S'--'
p493
ssg267
(dp494
g5
S'--'
p495
sg7
S'--'
p496
sg9
g3
sg11
S'--'
p497
sg13
g3
sg14
S'Stedman Bailey'
p498
sg16
S'2013'
p499
sg18
S'17'
p500
sg19
S'--'
p501
sg21
S'12/29'
p502
sg23
S'8.3'
p503
sg25
S'--'
p504
sg27
S'--'
p505
sg29
S'L9-27'
p506
sg31
S'33'
p507
sg33
g89
sg35
S'@SEA'
p508
sg37
S'13'
p509
sg39
g10
sg40
S'--'
p510
ssg285
(dp511
g5
g3
sg7
S'27'
p512
sg9
g10
sg11
S'--'
p513
sg13
g3
sg14
S'Stedman Bailey'
p514
sg16
S'2013'
p515
sg18
S'16'
p516
sg19
S'27.0'
p517
sg21
S'12/22'
p518
sg23
S'14.7'
p519
sg25
S'--'
p520
sg27
g3
sg29
S'W23-13'
p521
sg31
S'44'
p522
sg33
g34
sg35
S'TB'
p523
sg37
S'28'
p524
sg39
g10
sg40
S'27T'
p525
ssg3
(dp526
g5
S'--'
p527
sg7
S'--'
p528
sg9
g10
sg11
S'--'
p529
sg13
g3
sg14
S'Stedman Bailey'
p530
sg16
S'2013'
p531
sg18
g3
sg19
S'--'
p532
sg21
S'09/08'
p533
sg23
S'--'
p534
sg25
S'--'
p535
sg27
S'--'
p536
sg29
S'W27-24'
p537
sg31
S'--'
p538
sg33
S'--'
p539
sg35
S'ARI'
p540
sg37
S'--'
p541
sg39
S'--'
p542
sg40
S'--'
p543
ssg34
(dp544
g5
S'--'
p545
sg7
S'--'
p546
sg9
g10
sg11
S'--'
p547
sg13
g3
sg14
S'Stedman Bailey'
p548
sg16
S'2013'
p549
sg18
g34
sg19
S'--'
p550
sg21
S'09/22'
p551
sg23
S'--'
p552
sg25
S'--'
p553
sg27
S'--'
p554
sg29
S'L7-31'
p555
sg31
g10
sg33
g10
sg35
S'@DAL'
p556
sg37
S'--'
p557
sg39
g10
sg40
S'--'
p558
ssg57
(dp559
g5
S'--'
p560
sg7
S'--'
p561
sg9
g10
sg11
S'--'
p562
sg13
g3
sg14
S'Stedman Bailey'
p563
sg16
S'2013'
p564
sg18
g57
sg19
S'--'
p565
sg21
S'09/15'
p566
sg23
S'--'
p567
sg25
S'--'
p568
sg27
S'--'
p569
sg29
S'L24-31'
p570
sg31
S'--'
p571
sg33
S'--'
p572
sg35
S'@ATL'
p573
sg37
S'--'
p574
sg39
S'--'
p575
sg40
S'--'
p576
ssg72
(dp577
g5
S'--'
p578
sg7
S'--'
p579
sg9
g10
sg11
S'--'
p580
sg13
g3
sg14
S'Stedman Bailey'
p581
sg16
S'2013'
p582
sg18
g72
sg19
S'--'
p583
sg21
S'10/06'
p584
sg23
S'--'
p585
sg25
S'--'
p586
sg27
S'--'
p587
sg29
S'W34-20'
p588
sg31
S'--'
p589
sg33
S'--'
p590
sg35
S'JAC'
p591
sg37
S'--'
p592
sg39
S'--'
p593
sg40
S'--'
p594
ssg89
(dp595
g5
S'--'
p596
sg7
S'--'
p597
sg9
g10
sg11
S'--'
p598
sg13
g3
sg14
S'Stedman Bailey'
p599
sg16
S'2013'
p600
sg18
g89
sg19
S'--'
p601
sg21
S'09/26'
p602
sg23
S'--'
p603
sg25
S'--'
p604
sg27
S'--'
p605
sg29
S'L11-35'
p606
sg31
S'--'
p607
sg33
S'--'
p608
sg35
S'SF'
p609
sg37
S'--'
p610
sg39
S'--'
p611
sg40
S'--'
p612
ssg106
(dp613
g5
S'--'
p614
sg7
S'--'
p615
sg9
g10
sg11
S'--'
p616
sg13
g3
sg14
S'Stedman Bailey'
p617
sg16
S'2013'
p618
sg18
g106
sg19
S'--'
p619
sg21
S'10/20'
p620
sg23
S'--'
p621
sg25
S'--'
p622
sg27
S'--'
p623
sg29
S'L15-30'
p624
sg31
S'--'
p625
sg33
S'--'
p626
sg35
S'@CAR'
p627
sg37
S'--'
p628
sg39
S'--'
p629
sg40
S'--'
p630
ssg122
(dp631
g5
S'--'
p632
sg7
S'--'
p633
sg9
g10
sg11
S'--'
p634
sg13
g3
sg14
S'Stedman Bailey'
p635
sg16
S'2013'
p636
sg18
g122
sg19
S'--'
p637
sg21
S'10/13'
p638
sg23
S'--'
p639
sg25
S'--'
p640
sg27
S'--'
p641
sg29
S'W38-13'
p642
sg31
S'--'
p643
sg33
S'--'
p644
sg35
S'@HOU'
p645
sg37
S'--'
p646
sg39
S'--'
p647
sg40
S'--'
p648
ssg128
(dp649
g5
S'--'
p650
sg7
S'--'
p651
sg9
g10
sg11
S'--'
p652
sg13
g3
sg14
S'Stedman Bailey'
p653
sg16
S'2013'
p654
sg18
g128
sg19
S'--'
p655
sg21
S'11/03'
p656
sg23
S'12.0'
p657
sg25
S'--'
p658
sg27
S'--'
p659
sg29
S'L21-28'
p660
sg31
S'12'
p661
sg33
g3
sg35
S'TEN'
p662
sg37
S'12'
p663
sg39
g10
sg40
S'--'
p664
ssg119
(dp665
g5
S'--'
p666
sg7
S'--'
p667
sg9
g10
sg11
S'--'
p668
sg13
g3
sg14
S'Stedman Bailey'
p669
sg16
S'2013'
p670
sg18
g119
sg19
S'--'
p671
sg21
S'10/28'
p672
sg23
S'--'
p673
sg25
S'--'
p674
sg27
S'--'
p675
sg29
S'L9-14'
p676
sg31
S'--'
p677
sg33
S'--'
p678
sg35
S'SEA'
p679
sg37
S'--'
p680
sg39
S'--'
p681
sg40
S'--'
p682
sss.