(dp0
S'2015'
p1
(dp2
S'11'
p3
(dp4
S'RushTD'
p5
S'--'
p6
sS'RushYds'
p7
S'--'
p8
sS'GS'
p9
S'1'
p10
sS'Lost'
p11
S'--'
p12
sS'G'
p13
g10
sS'Player'
p14
S'Stefon Diggs'
p15
sS'Year'
p16
S'2015'
p17
sS'WK'
p18
S'11'
p19
sS'RushAvg'
p20
S'--'
p21
sS'Game Date'
p22
S'11/22'
p23
sS'RecAvg'
p24
S'11.0'
p25
sS'FUM'
p26
S'--'
p27
sS'RushAtt'
p28
S'--'
p29
sS'Result'
p30
S'L13-30'
p31
sS'RecYds'
p32
S'66'
p33
sS'Rec'
p34
S'6'
p35
sS'Opp'
p36
S'GB'
p37
sS'RecLng'
p38
S'17'
p39
sS'RecTD'
p40
S'0'
p41
sS'RushLng'
p42
S'--'
p43
ssS'10'
p44
(dp45
g5
g41
sg7
S'10'
p46
sg9
g10
sg11
S'--'
p47
sg13
g10
sg14
S'Stefon Diggs'
p48
sg16
S'2015'
p49
sg18
S'10'
p50
sg20
S'10.0'
p51
sg22
S'11/15'
p52
sg24
S'23.0'
p53
sg26
S'--'
p54
sg28
g10
sg30
S'W30-14'
p55
sg32
S'46'
p56
sg34
S'2'
p57
sg36
S'@OAK'
p58
sg38
S'37'
p59
sg40
g41
sg42
S'10'
p60
ssS'13'
p61
(dp62
g5
g41
sg7
S'-6'
p63
sg9
g41
sg11
S'--'
p64
sg13
g10
sg14
S'Stefon Diggs'
p65
sg16
S'2015'
p66
sg18
S'13'
p67
sg20
S'-6.0'
p68
sg22
S'12/06'
p69
sg24
S'11.0'
p70
sg26
S'--'
p71
sg28
g10
sg30
S'L7-38'
p72
sg32
S'22'
p73
sg34
g57
sg36
S'SEA'
p74
sg38
S'14'
p75
sg40
g41
sg42
S'-6'
p76
ssS'12'
p77
(dp78
g5
S'--'
p79
sg7
S'--'
p80
sg9
g10
sg11
S'--'
p81
sg13
g10
sg14
S'Stefon Diggs'
p82
sg16
S'2015'
p83
sg18
S'12'
p84
sg20
S'--'
p85
sg22
S'11/29'
p86
sg24
S'7.8'
p87
sg26
S'--'
p88
sg28
S'--'
p89
sg30
S'W20-10'
p90
sg32
S'31'
p91
sg34
S'4'
p92
sg36
S'@ATL'
p93
sg38
S'16'
p94
sg40
g41
sg42
S'--'
p95
ssS'15'
p96
(dp97
g5
S'--'
p98
sg7
S'--'
p99
sg9
g41
sg11
S'--'
p100
sg13
g10
sg14
S'Stefon Diggs'
p101
sg16
S'2015'
p102
sg18
S'15'
p103
sg20
S'--'
p104
sg22
S'12/20'
p105
sg24
S'18.3'
p106
sg26
S'--'
p107
sg28
S'--'
p108
sg30
S'W38-17'
p109
sg32
S'55'
p110
sg34
S'3'
p111
sg36
S'CHI'
p112
sg38
S'33T'
p113
sg40
g57
sg42
S'--'
p114
ssS'14'
p115
(dp116
g5
S'--'
p117
sg7
S'--'
p118
sg9
g10
sg11
S'--'
p119
sg13
g10
sg14
S'Stefon Diggs'
p120
sg16
S'2015'
p121
sg18
S'14'
p122
sg20
S'--'
p123
sg22
S'12/10'
p124
sg24
S'6.0'
p125
sg26
S'--'
p126
sg28
S'--'
p127
sg30
S'L20-23'
p128
sg32
S'12'
p129
sg34
g57
sg36
S'@ARI'
p130
sg38
S'7'
p131
sg40
g41
sg42
S'--'
p132
ssS'17'
p133
(dp134
g5
S'--'
p135
sg7
S'--'
p136
sg9
g10
sg11
S'--'
p137
sg13
g10
sg14
S'Stefon Diggs'
p138
sg16
S'2015'
p139
sg18
S'17'
p140
sg20
S'--'
p141
sg22
S'01/03'
p142
sg24
S'8.0'
p143
sg26
S'--'
p144
sg28
S'--'
p145
sg30
S'W20-13'
p146
sg32
S'8'
p147
sg34
g10
sg36
S'@GB'
p148
sg38
g147
sg40
g41
sg42
S'--'
p149
ssS'16'
p150
(dp151
g5
S'--'
p152
sg7
S'--'
p153
sg9
g41
sg11
S'--'
p154
sg13
g10
sg14
S'Stefon Diggs'
p155
sg16
S'2015'
p156
sg18
S'16'
p157
sg20
S'--'
p158
sg22
S'12/27'
p159
sg24
S'4.8'
p160
sg26
S'--'
p161
sg28
S'--'
p162
sg30
S'W49-17'
p163
sg32
S'19'
p164
sg34
g92
sg36
S'NYG'
p165
sg38
S'10'
p166
sg40
g41
sg42
S'--'
p167
ssg10
(dp168
g5
S'--'
p169
sg7
S'--'
p170
sg9
g41
sg11
S'--'
p171
sg13
g41
sg14
S'Stefon Diggs'
p172
sg16
S'2015'
p173
sg18
g10
sg20
S'--'
p174
sg22
S'09/14'
p175
sg24
S'--'
p176
sg26
S'--'
p177
sg28
S'--'
p178
sg30
S'L3-20'
p179
sg32
S'--'
p180
sg34
S'--'
p181
sg36
S'@SF'
p182
sg38
S'--'
p183
sg40
S'--'
p184
sg42
S'--'
p185
ssg111
(dp186
g5
S'--'
p187
sg7
S'--'
p188
sg9
g41
sg11
S'--'
p189
sg13
g41
sg14
S'Stefon Diggs'
p190
sg16
S'2015'
p191
sg18
g111
sg20
S'--'
p192
sg22
S'09/27'
p193
sg24
S'--'
p194
sg26
S'--'
p195
sg28
S'--'
p196
sg30
S'W31-14'
p197
sg32
S'--'
p198
sg34
S'--'
p199
sg36
S'SD'
p200
sg38
S'--'
p201
sg40
S'--'
p202
sg42
S'--'
p203
ssg57
(dp204
g5
S'--'
p205
sg7
S'--'
p206
sg9
g41
sg11
S'--'
p207
sg13
g41
sg14
S'Stefon Diggs'
p208
sg16
S'2015'
p209
sg18
g57
sg20
S'--'
p210
sg22
S'09/20'
p211
sg24
S'--'
p212
sg26
S'--'
p213
sg28
S'--'
p214
sg30
S'W26-16'
p215
sg32
S'--'
p216
sg34
S'--'
p217
sg36
S'DET'
p218
sg38
S'--'
p219
sg40
S'--'
p220
sg42
S'--'
p221
ssS'5'
p222
(dp223
g5
S''
p224
sg7
g224
sg9
g224
sg11
g224
sg13
g224
sg14
S'Stefon Diggs'
p225
sg16
S'2015'
p226
sg18
g222
sg20
g224
sg22
S'Bye'
p227
sg24
g224
sg26
g224
sg28
g224
sg30
g224
sg32
g224
sg34
g224
sg36
g224
sg38
g224
sg40
g224
sg42
g224
ssg92
(dp228
g5
S'--'
p229
sg7
S'--'
p230
sg9
g41
sg11
g41
sg13
g10
sg14
S'Stefon Diggs'
p231
sg16
S'2015'
p232
sg18
g92
sg20
S'--'
p233
sg22
S'10/04'
p234
sg24
S'14.5'
p235
sg26
g57
sg28
S'--'
p236
sg30
S'L20-23'
p237
sg32
S'87'
p238
sg34
g35
sg36
S'@DEN'
p239
sg38
S'25'
p240
sg40
g41
sg42
S'--'
p241
ssg131
(dp242
g5
g41
sg7
S'9'
p243
sg9
g10
sg11
S'--'
p244
sg13
g10
sg14
S'Stefon Diggs'
p245
sg16
S'2015'
p246
sg18
g131
sg20
S'9.0'
p247
sg22
S'10/25'
p248
sg24
S'18.0'
p249
sg26
S'--'
p250
sg28
g10
sg30
S'W28-19'
p251
sg32
S'108'
p252
sg34
g35
sg36
S'@DET'
p253
sg38
S'36T'
p254
sg40
g10
sg42
g243
ssg35
(dp255
g5
S'--'
p256
sg7
S'--'
p257
sg9
g10
sg11
S'--'
p258
sg13
g10
sg14
S'Stefon Diggs'
p259
sg16
S'2015'
p260
sg18
g35
sg20
S'--'
p261
sg22
S'10/18'
p262
sg24
S'18.4'
p263
sg26
S'--'
p264
sg28
S'--'
p265
sg30
S'W16-10'
p266
sg32
S'129'
p267
sg34
g131
sg36
S'KC'
p268
sg38
S'31'
p269
sg40
g41
sg42
S'--'
p270
ssg243
(dp271
g5
S'--'
p272
sg7
S'--'
p273
sg9
g10
sg11
S'--'
p274
sg13
g10
sg14
S'Stefon Diggs'
p275
sg16
S'2015'
p276
sg18
g243
sg20
S'--'
p277
sg22
S'11/08'
p278
sg24
S'14.0'
p279
sg26
S'--'
p280
sg28
S'--'
p281
sg30
S'W21-18'
p282
sg32
S'42'
p283
sg34
g111
sg36
S'STL'
p284
sg38
S'30'
p285
sg40
g41
sg42
S'--'
p286
ssg147
(dp287
g5
S'--'
p288
sg7
S'--'
p289
sg9
g10
sg11
S'--'
p290
sg13
g10
sg14
S'Stefon Diggs'
p291
sg16
S'2015'
p292
sg18
g147
sg20
S'--'
p293
sg22
S'11/01'
p294
sg24
S'15.8'
p295
sg26
S'--'
p296
sg28
S'--'
p297
sg30
S'W23-20'
p298
sg32
S'95'
p299
sg34
g35
sg36
S'@CHI'
p300
sg38
S'40T'
p301
sg40
g10
sg42
S'--'
p302
sss.