(dp0
S'2013'
p1
(dp2
S'11'
p3
(dp4
S'RushTD'
p5
S'--'
p6
sS'RushYds'
p7
S'--'
p8
sS'GS'
p9
S'1'
p10
sS'Lost'
p11
S'--'
p12
sS'G'
p13
g10
sS'Player'
p14
S'Stephen Hill'
p15
sS'Year'
p16
S'2013'
p17
sS'WK'
p18
S'11'
p19
sS'RushAvg'
p20
S'--'
p21
sS'Game Date'
p22
S'11/17'
p23
sS'RecAvg'
p24
S'--'
p25
sS'FUM'
p26
S'--'
p27
sS'RushAtt'
p28
S'--'
p29
sS'Result'
p30
S'L14-37'
p31
sS'RecYds'
p32
S'0'
p33
sS'Rec'
p34
g33
sS'Opp'
p35
S'@BUF'
p36
sS'RecLng'
p37
S'--'
p38
sS'RecTD'
p39
g33
sS'RushLng'
p40
S'--'
p41
ssS'10'
p42
(dp43
g5
S''
p44
sg7
g44
sg9
g44
sg11
g44
sg13
g44
sg14
S'Stephen Hill'
p45
sg16
S'2013'
p46
sg18
S'10'
p47
sg20
g44
sg22
S'Bye'
p48
sg24
g44
sg26
g44
sg28
g44
sg30
g44
sg32
g44
sg34
g44
sg35
g44
sg37
g44
sg39
g44
sg40
g44
ssS'13'
p49
(dp50
g5
S'--'
p51
sg7
S'--'
p52
sg9
g10
sg11
S'--'
p53
sg13
g10
sg14
S'Stephen Hill'
p54
sg16
S'2013'
p55
sg18
S'13'
p56
sg20
S'--'
p57
sg22
S'12/01'
p58
sg24
S'2.0'
p59
sg26
S'--'
p60
sg28
S'--'
p61
sg30
S'L3-23'
p62
sg32
S'2'
p63
sg34
g10
sg35
S'MIA'
p64
sg37
g63
sg39
g33
sg40
S'--'
p65
ssS'12'
p66
(dp67
g5
S'--'
p68
sg7
S'--'
p69
sg9
g10
sg11
S'--'
p70
sg13
g10
sg14
S'Stephen Hill'
p71
sg16
S'2013'
p72
sg18
S'12'
p73
sg20
S'--'
p74
sg22
S'11/24'
p75
sg24
S'--'
p76
sg26
S'--'
p77
sg28
S'--'
p78
sg30
S'L3-19'
p79
sg32
g33
sg34
g33
sg35
S'@BAL'
p80
sg37
S'--'
p81
sg39
g33
sg40
S'--'
p82
ssS'14'
p83
(dp84
g5
S'--'
p85
sg7
S'--'
p86
sg9
g33
sg11
S'--'
p87
sg13
g33
sg14
S'Stephen Hill'
p88
sg16
S'2013'
p89
sg18
S'14'
p90
sg20
S'--'
p91
sg22
S'12/08'
p92
sg24
S'--'
p93
sg26
S'--'
p94
sg28
S'--'
p95
sg30
S'W37-27'
p96
sg32
S'--'
p97
sg34
S'--'
p98
sg35
S'OAK'
p99
sg37
S'--'
p100
sg39
S'--'
p101
sg40
S'--'
p102
ssg10
(dp103
g5
S'--'
p104
sg7
S'--'
p105
sg9
g10
sg11
S'--'
p106
sg13
g10
sg14
S'Stephen Hill'
p107
sg16
S'2013'
p108
sg18
g10
sg20
S'--'
p109
sg22
S'09/08'
p110
sg24
S'6.5'
p111
sg26
S'--'
p112
sg28
S'--'
p113
sg30
S'W18-17'
p114
sg32
S'39'
p115
sg34
S'6'
p116
sg35
S'TB'
p117
sg37
S'10'
p118
sg39
g33
sg40
S'--'
p119
ssS'3'
p120
(dp121
g5
S'--'
p122
sg7
S'--'
p123
sg9
g10
sg11
S'--'
p124
sg13
g10
sg14
S'Stephen Hill'
p125
sg16
S'2013'
p126
sg18
g120
sg20
S'--'
p127
sg22
S'09/22'
p128
sg24
S'36.0'
p129
sg26
S'--'
p130
sg28
S'--'
p131
sg30
S'W27-20'
p132
sg32
S'108'
p133
sg34
g120
sg35
S'BUF'
p134
sg37
S'51T'
p135
sg39
g10
sg40
S'--'
p136
ssg63
(dp137
g5
S'--'
p138
sg7
S'--'
p139
sg9
g10
sg11
g10
sg13
g10
sg14
S'Stephen Hill'
p140
sg16
S'2013'
p141
sg18
g63
sg20
S'--'
p142
sg22
S'09/12'
p143
sg24
S'21.5'
p144
sg26
g10
sg28
S'--'
p145
sg30
S'L10-13'
p146
sg32
S'86'
p147
sg34
S'4'
p148
sg35
S'@NE'
p149
sg37
S'37'
p150
sg39
g33
sg40
S'--'
p151
ssS'5'
p152
(dp153
g5
S'--'
p154
sg7
S'--'
p155
sg9
g33
sg11
S'--'
p156
sg13
g10
sg14
S'Stephen Hill'
p157
sg16
S'2013'
p158
sg18
g152
sg20
S'--'
p159
sg22
S'10/07'
p160
sg24
S'10.5'
p161
sg26
S'--'
p162
sg28
S'--'
p163
sg30
S'W30-28'
p164
sg32
S'21'
p165
sg34
g63
sg35
S'@ATL'
p166
sg37
S'12'
p167
sg39
g33
sg40
S'--'
p168
ssg148
(dp169
g5
S'--'
p170
sg7
S'--'
p171
sg9
g10
sg11
S'--'
p172
sg13
g10
sg14
S'Stephen Hill'
p173
sg16
S'2013'
p174
sg18
g148
sg20
S'--'
p175
sg22
S'09/29'
p176
sg24
S'--'
p177
sg26
S'--'
p178
sg28
S'--'
p179
sg30
S'L13-38'
p180
sg32
g33
sg34
g33
sg35
S'@TEN'
p181
sg37
S'--'
p182
sg39
g33
sg40
S'--'
p183
ssS'7'
p184
(dp185
g5
S'--'
p186
sg7
S'--'
p187
sg9
g10
sg11
S'--'
p188
sg13
g10
sg14
S'Stephen Hill'
p189
sg16
S'2013'
p190
sg18
g184
sg20
S'--'
p191
sg22
S'10/20'
p192
sg24
S'17.0'
p193
sg26
S'--'
p194
sg28
S'--'
p195
sg30
S'W30-27'
p196
sg32
S'17'
p197
sg34
g10
sg35
S'NE'
p198
sg37
S'17'
p199
sg39
g33
sg40
S'--'
p200
ssg116
(dp201
g5
S'--'
p202
sg7
S'--'
p203
sg9
g10
sg11
S'--'
p204
sg13
g10
sg14
S'Stephen Hill'
p205
sg16
S'2013'
p206
sg18
g116
sg20
S'--'
p207
sg22
S'10/13'
p208
sg24
S'15.3'
p209
sg26
S'--'
p210
sg28
S'--'
p211
sg30
S'L6-19'
p212
sg32
S'46'
p213
sg34
g120
sg35
S'PIT'
p214
sg37
S'20'
p215
sg39
g33
sg40
S'--'
p216
ssS'9'
p217
(dp218
g5
S'--'
p219
sg7
S'--'
p220
sg9
g10
sg11
S'--'
p221
sg13
g10
sg14
S'Stephen Hill'
p222
sg16
S'2013'
p223
sg18
g217
sg20
S'--'
p224
sg22
S'11/03'
p225
sg24
S'--'
p226
sg26
S'--'
p227
sg28
S'--'
p228
sg30
S'W26-20'
p229
sg32
g33
sg34
g33
sg35
S'NO'
p230
sg37
S'--'
p231
sg39
g33
sg40
S'--'
p232
ssS'8'
p233
(dp234
g5
S'--'
p235
sg7
S'--'
p236
sg9
g10
sg11
S'--'
p237
sg13
g10
sg14
S'Stephen Hill'
p238
sg16
S'2013'
p239
sg18
g233
sg20
S'--'
p240
sg22
S'10/27'
p241
sg24
S'5.8'
p242
sg26
S'--'
p243
sg28
S'--'
p244
sg30
S'L9-49'
p245
sg32
S'23'
p246
sg34
g148
sg35
S'@CIN'
p247
sg37
g233
sg39
g33
sg40
S'--'
p248
sssS'2012'
p249
(dp250
g3
(dp251
g5
S'--'
p252
sg7
S'--'
p253
sg9
g33
sg11
S'--'
p254
sg13
g10
sg14
S'Stephen Hill'
p255
sg16
S'2012'
p256
sg18
S'11'
p257
sg20
S'--'
p258
sg22
S'11/18'
p259
sg24
S'--'
p260
sg26
S'--'
p261
sg28
S'--'
p262
sg30
S'W27-13'
p263
sg32
g33
sg34
g33
sg35
S'@STL'
p264
sg37
S'--'
p265
sg39
g33
sg40
S'--'
p266
ssg42
(dp267
g5
S'--'
p268
sg7
S'--'
p269
sg9
g10
sg11
S'--'
p270
sg13
g10
sg14
S'Stephen Hill'
p271
sg16
S'2012'
p272
sg18
S'10'
p273
sg20
S'--'
p274
sg22
S'11/11'
p275
sg24
S'--'
p276
sg26
S'--'
p277
sg28
S'--'
p278
sg30
S'L7-28'
p279
sg32
g33
sg34
g33
sg35
S'@SEA'
p280
sg37
S'--'
p281
sg39
g33
sg40
S'--'
p282
ssg49
(dp283
g5
S'--'
p284
sg7
S'--'
p285
sg9
g10
sg11
S'--'
p286
sg13
g10
sg14
S'Stephen Hill'
p287
sg16
S'2012'
p288
sg18
S'13'
p289
sg20
S'--'
p290
sg22
S'12/02'
p291
sg24
S'8.0'
p292
sg26
S'--'
p293
sg28
S'--'
p294
sg30
S'W7-6'
p295
sg32
S'40'
p296
sg34
g152
sg35
S'ARI'
p297
sg37
S'15'
p298
sg39
g33
sg40
S'--'
p299
ssg66
(dp300
g5
S'--'
p301
sg7
S'--'
p302
sg9
g33
sg11
S'--'
p303
sg13
g10
sg14
S'Stephen Hill'
p304
sg16
S'2012'
p305
sg18
S'12'
p306
sg20
S'--'
p307
sg22
S'11/22'
p308
sg24
S'8.0'
p309
sg26
S'--'
p310
sg28
S'--'
p311
sg30
S'L19-49'
p312
sg32
S'16'
p313
sg34
g63
sg35
S'NE'
p314
sg37
g217
sg39
g33
sg40
S'--'
p315
ssS'15'
p316
(dp317
g5
S'--'
p318
sg7
S'--'
p319
sg9
g33
sg11
S'--'
p320
sg13
g33
sg14
S'Stephen Hill'
p321
sg16
S'2012'
p322
sg18
S'15'
p323
sg20
S'--'
p324
sg22
S'12/17'
p325
sg24
S'--'
p326
sg26
S'--'
p327
sg28
S'--'
p328
sg30
S'L10-14'
p329
sg32
S'--'
p330
sg34
S'--'
p331
sg35
S'@TEN'
p332
sg37
S'--'
p333
sg39
S'--'
p334
sg40
S'--'
p335
ssg83
(dp336
g5
S'--'
p337
sg7
S'--'
p338
sg9
g10
sg11
S'--'
p339
sg13
g10
sg14
S'Stephen Hill'
p340
sg16
S'2012'
p341
sg18
S'14'
p342
sg20
S'--'
p343
sg22
S'12/09'
p344
sg24
S'--'
p345
sg26
S'--'
p346
sg28
S'--'
p347
sg30
S'W17-10'
p348
sg32
g33
sg34
g33
sg35
S'@JAC'
p349
sg37
S'--'
p350
sg39
g33
sg40
S'--'
p351
ssg10
(dp352
g5
S'--'
p353
sg7
S'--'
p354
sg9
g10
sg11
S'--'
p355
sg13
g10
sg14
S'Stephen Hill'
p356
sg16
S'2012'
p357
sg18
g10
sg20
S'--'
p358
sg22
S'09/09'
p359
sg24
S'17.8'
p360
sg26
S'--'
p361
sg28
S'--'
p362
sg30
S'W48-28'
p363
sg32
S'89'
p364
sg34
g152
sg35
S'BUF'
p365
sg37
S'33T'
p366
sg39
g63
sg40
S'--'
p367
ssg120
(dp368
g5
S'--'
p369
sg7
S'--'
p370
sg9
g10
sg11
S'--'
p371
sg13
g10
sg14
S'Stephen Hill'
p372
sg16
S'2012'
p373
sg18
g120
sg20
S'--'
p374
sg22
S'09/23'
p375
sg24
S'--'
p376
sg26
S'--'
p377
sg28
S'--'
p378
sg30
S'W23-20'
p379
sg32
g33
sg34
g33
sg35
S'@MIA'
p380
sg37
S'--'
p381
sg39
g33
sg40
S'--'
p382
ssg63
(dp383
g5
S'--'
p384
sg7
S'--'
p385
sg9
g10
sg11
S'--'
p386
sg13
g10
sg14
S'Stephen Hill'
p387
sg16
S'2012'
p388
sg18
g63
sg20
S'--'
p389
sg22
S'09/16'
p390
sg24
S'--'
p391
sg26
S'--'
p392
sg28
S'--'
p393
sg30
S'L10-27'
p394
sg32
g33
sg34
g33
sg35
S'@PIT'
p395
sg37
S'--'
p396
sg39
g33
sg40
S'--'
p397
ssg152
(dp398
g5
S'--'
p399
sg7
S'--'
p400
sg9
g33
sg11
S'--'
p401
sg13
g33
sg14
S'Stephen Hill'
p402
sg16
S'2012'
p403
sg18
g152
sg20
S'--'
p404
sg22
S'10/08'
p405
sg24
S'--'
p406
sg26
S'--'
p407
sg28
S'--'
p408
sg30
S'L17-23'
p409
sg32
S'--'
p410
sg34
S'--'
p411
sg35
S'HOU'
p412
sg37
S'--'
p413
sg39
S'--'
p414
sg40
S'--'
p415
ssg148
(dp416
g5
S'--'
p417
sg7
S'--'
p418
sg9
g33
sg11
S'--'
p419
sg13
g33
sg14
S'Stephen Hill'
p420
sg16
S'2012'
p421
sg18
g148
sg20
S'--'
p422
sg22
S'09/30'
p423
sg24
S'--'
p424
sg26
S'--'
p425
sg28
S'--'
p426
sg30
S'L0-34'
p427
sg32
S'--'
p428
sg34
S'--'
p429
sg35
S'SF'
p430
sg37
S'--'
p431
sg39
S'--'
p432
sg40
S'--'
p433
ssg184
(dp434
g5
S'--'
p435
sg7
S'--'
p436
sg9
g10
sg11
S'--'
p437
sg13
g10
sg14
S'Stephen Hill'
p438
sg16
S'2012'
p439
sg18
g184
sg20
S'--'
p440
sg22
S'10/21'
p441
sg24
S'13.8'
p442
sg26
S'--'
p443
sg28
S'--'
p444
sg30
S'L26-29'
p445
sg32
S'55'
p446
sg34
g148
sg35
S'@NE'
p447
sg37
S'21'
p448
sg39
g33
sg40
S'--'
p449
ssg116
(dp450
g5
S'--'
p451
sg7
S'--'
p452
sg9
g33
sg11
S'--'
p453
sg13
g10
sg14
S'Stephen Hill'
p454
sg16
S'2012'
p455
sg18
g116
sg20
S'--'
p456
sg22
S'10/14'
p457
sg24
S'7.7'
p458
sg26
S'--'
p459
sg28
S'--'
p460
sg30
S'W35-9'
p461
sg32
S'23'
p462
sg34
g120
sg35
S'IND'
p463
sg37
g217
sg39
g10
sg40
S'--'
p464
ssg217
(dp465
g5
g44
sg7
g44
sg9
g44
sg11
g44
sg13
g44
sg14
S'Stephen Hill'
p466
sg16
S'2012'
p467
sg18
g217
sg20
g44
sg22
S'Bye'
p468
sg24
g44
sg26
g44
sg28
g44
sg30
g44
sg32
g44
sg34
g44
sg35
g44
sg37
g44
sg39
g44
sg40
g44
ssg233
(dp469
g5
S'--'
p470
sg7
S'--'
p471
sg9
g10
sg11
S'--'
p472
sg13
g10
sg14
S'Stephen Hill'
p473
sg16
S'2012'
p474
sg18
g233
sg20
S'--'
p475
sg22
S'10/28'
p476
sg24
S'14.5'
p477
sg26
S'--'
p478
sg28
S'--'
p479
sg30
S'L9-30'
p480
sg32
S'29'
p481
sg34
g63
sg35
S'MIA'
p482
sg37
S'19'
p483
sg39
g33
sg40
S'--'
p484
sss.