(dp0
S'2015'
p1
(dp2
S'11'
p3
(dp4
S'RushTD'
p5
S'--'
p6
sS'RushYds'
p7
S'--'
p8
sS'GS'
p9
S'0'
p10
sS'Lost'
p11
S'--'
p12
sS'G'
p13
S'1'
p14
sS'Player'
p15
S'Steve Johnson'
p16
sS'Year'
p17
S'2015'
p18
sS'WK'
p19
S'11'
p20
sS'RushAvg'
p21
S'--'
p22
sS'Game Date'
p23
S'11/22'
p24
sS'RecAvg'
p25
S'7.7'
p26
sS'FUM'
p27
S'--'
p28
sS'RushAtt'
p29
S'--'
p30
sS'Result'
p31
S'L3-33'
p32
sS'RecYds'
p33
S'54'
p34
sS'Rec'
p35
S'7'
p36
sS'Opp'
p37
S'KC'
p38
sS'RecLng'
p39
S'13'
p40
sS'RecTD'
p41
g10
sS'RushLng'
p42
S'--'
p43
ssS'10'
p44
(dp45
g5
S''
p46
sg7
g46
sg9
g46
sg11
g46
sg13
g46
sg15
S'Steve Johnson'
p47
sg17
S'2015'
p48
sg19
S'10'
p49
sg21
g46
sg23
S'Bye'
p50
sg25
g46
sg27
g46
sg29
g46
sg31
g46
sg33
g46
sg35
g46
sg37
g46
sg39
g46
sg41
g46
sg42
g46
ssS'13'
p51
(dp52
g5
S'--'
p53
sg7
S'--'
p54
sg9
g14
sg11
S'--'
p55
sg13
g14
sg15
S'Steve Johnson'
p56
sg17
S'2015'
p57
sg19
S'13'
p58
sg21
S'--'
p59
sg23
S'12/06'
p60
sg25
S'--'
p61
sg27
S'--'
p62
sg29
S'--'
p63
sg31
S'L3-17'
p64
sg33
S'--'
p65
sg35
S'--'
p66
sg37
S'DEN'
p67
sg39
S'--'
p68
sg41
S'--'
p69
sg42
S'--'
p70
ssS'12'
p71
(dp72
g5
S'--'
p73
sg7
S'--'
p74
sg9
g14
sg11
S'--'
p75
sg13
g14
sg15
S'Steve Johnson'
p76
sg17
S'2015'
p77
sg19
S'12'
p78
sg21
S'--'
p79
sg23
S'11/29'
p80
sg25
S'13.1'
p81
sg27
S'--'
p82
sg29
S'--'
p83
sg31
S'W31-25'
p84
sg33
S'92'
p85
sg35
g36
sg37
S'@JAC'
p86
sg39
S'25'
p87
sg41
g14
sg42
S'--'
p88
ssS'15'
p89
(dp90
g5
S'--'
p91
sg7
S'--'
p92
sg9
g10
sg11
S'--'
p93
sg13
g10
sg15
S'Steve Johnson'
p94
sg17
S'2015'
p95
sg19
S'15'
p96
sg21
S'--'
p97
sg23
S'12/20'
p98
sg25
S'--'
p99
sg27
S'--'
p100
sg29
S'--'
p101
sg31
S'W30-14'
p102
sg33
S'--'
p103
sg35
S'--'
p104
sg37
S'MIA'
p105
sg39
S'--'
p106
sg41
S'--'
p107
sg42
S'--'
p108
ssS'14'
p109
(dp110
g5
S'--'
p111
sg7
S'--'
p112
sg9
g10
sg11
S'--'
p113
sg13
g10
sg15
S'Steve Johnson'
p114
sg17
S'2015'
p115
sg19
S'14'
p116
sg21
S'--'
p117
sg23
S'12/13'
p118
sg25
S'--'
p119
sg27
S'--'
p120
sg29
S'--'
p121
sg31
S'L3-10'
p122
sg33
S'--'
p123
sg35
S'--'
p124
sg37
S'@KC'
p125
sg39
S'--'
p126
sg41
S'--'
p127
sg42
S'--'
p128
ssS'17'
p129
(dp130
g5
S'--'
p131
sg7
S'--'
p132
sg9
g10
sg11
S'--'
p133
sg13
g10
sg15
S'Steve Johnson'
p134
sg17
S'2015'
p135
sg19
S'17'
p136
sg21
S'--'
p137
sg23
S'01/03'
p138
sg25
S'--'
p139
sg27
S'--'
p140
sg29
S'--'
p141
sg31
S'L20-27'
p142
sg33
S'--'
p143
sg35
S'--'
p144
sg37
S'@DEN'
p145
sg39
S'--'
p146
sg41
S'--'
p147
sg42
S'--'
p148
ssS'16'
p149
(dp150
g5
S'--'
p151
sg7
S'--'
p152
sg9
g10
sg11
S'--'
p153
sg13
g10
sg15
S'Steve Johnson'
p154
sg17
S'2015'
p155
sg19
S'16'
p156
sg21
S'--'
p157
sg23
S'12/24'
p158
sg25
S'--'
p159
sg27
S'--'
p160
sg29
S'--'
p161
sg31
S'L20-23'
p162
sg33
S'--'
p163
sg35
S'--'
p164
sg37
S'@OAK'
p165
sg39
S'--'
p166
sg41
S'--'
p167
sg42
S'--'
p168
ssg14
(dp169
g5
S'--'
p170
sg7
S'--'
p171
sg9
g14
sg11
S'--'
p172
sg13
g14
sg15
S'Steve Johnson'
p173
sg17
S'2015'
p174
sg19
g14
sg21
S'--'
p175
sg23
S'09/13'
p176
sg25
S'13.7'
p177
sg27
S'--'
p178
sg29
S'--'
p179
sg31
S'W33-28'
p180
sg33
S'82'
p181
sg35
S'6'
p182
sg37
S'DET'
p183
sg39
S'34'
p184
sg41
g14
sg42
S'--'
p185
ssS'3'
p186
(dp187
g5
S'--'
p188
sg7
S'--'
p189
sg9
g10
sg11
S'--'
p190
sg13
g14
sg15
S'Steve Johnson'
p191
sg17
S'2015'
p192
sg19
g186
sg21
S'--'
p193
sg23
S'09/27'
p194
sg25
S'15.3'
p195
sg27
S'--'
p196
sg29
S'--'
p197
sg31
S'L14-31'
p198
sg33
S'46'
p199
sg35
g186
sg37
S'@MIN'
p200
sg39
S'30'
p201
sg41
g10
sg42
S'--'
p202
ssS'2'
p203
(dp204
g5
S'--'
p205
sg7
S'--'
p206
sg9
g14
sg11
S'--'
p207
sg13
g14
sg15
S'Steve Johnson'
p208
sg17
S'2015'
p209
sg19
g203
sg21
S'--'
p210
sg23
S'09/20'
p211
sg25
S'9.0'
p212
sg27
S'--'
p213
sg29
S'--'
p214
sg31
S'L19-24'
p215
sg33
S'45'
p216
sg35
S'5'
p217
sg37
S'@CIN'
p218
sg39
S'15'
p219
sg41
g14
sg42
S'--'
p220
ssg217
(dp221
g5
S'--'
p222
sg7
S'--'
p223
sg9
g10
sg11
S'--'
p224
sg13
g10
sg15
S'Steve Johnson'
p225
sg17
S'2015'
p226
sg19
g217
sg21
S'--'
p227
sg23
S'10/12'
p228
sg25
S'--'
p229
sg27
S'--'
p230
sg29
S'--'
p231
sg31
S'L20-24'
p232
sg33
S'--'
p233
sg35
S'--'
p234
sg37
S'PIT'
p235
sg39
S'--'
p236
sg41
S'--'
p237
sg42
S'--'
p238
ssS'4'
p239
(dp240
g5
S'--'
p241
sg7
S'--'
p242
sg9
g14
sg11
S'--'
p243
sg13
g14
sg15
S'Steve Johnson'
p244
sg17
S'2015'
p245
sg19
g239
sg21
S'--'
p246
sg23
S'10/04'
p247
sg25
S'8.0'
p248
sg27
S'--'
p249
sg29
S'--'
p250
sg31
S'W30-27'
p251
sg33
S'32'
p252
sg35
g239
sg37
S'CLE'
p253
sg39
S'13'
p254
sg41
g10
sg42
S'--'
p255
ssg36
(dp256
g5
S'--'
p257
sg7
S'--'
p258
sg9
g14
sg11
g10
sg13
g14
sg15
S'Steve Johnson'
p259
sg17
S'2015'
p260
sg19
g36
sg21
S'--'
p261
sg23
S'10/25'
p262
sg25
S'12.5'
p263
sg27
g14
sg29
S'--'
p264
sg31
S'L29-37'
p265
sg33
S'50'
p266
sg35
g239
sg37
S'OAK'
p267
sg39
S'23'
p268
sg41
g10
sg42
S'--'
p269
ssg182
(dp270
g5
S'--'
p271
sg7
S'--'
p272
sg9
g10
sg11
S'--'
p273
sg13
g10
sg15
S'Steve Johnson'
p274
sg17
S'2015'
p275
sg19
g182
sg21
S'--'
p276
sg23
S'10/18'
p277
sg25
S'--'
p278
sg27
S'--'
p279
sg29
S'--'
p280
sg31
S'L20-27'
p281
sg33
S'--'
p282
sg35
S'--'
p283
sg37
S'@GB'
p284
sg39
S'--'
p285
sg41
S'--'
p286
sg42
S'--'
p287
ssS'9'
p288
(dp289
g5
S'--'
p290
sg7
S'--'
p291
sg9
g14
sg11
S'--'
p292
sg13
g14
sg15
S'Steve Johnson'
p293
sg17
S'2015'
p294
sg19
g288
sg21
S'--'
p295
sg23
S'11/09'
p296
sg25
S'9.7'
p297
sg27
S'--'
p298
sg29
S'--'
p299
sg31
S'L19-22'
p300
sg33
S'68'
p301
sg35
g36
sg37
S'CHI'
p302
sg39
S'16'
p303
sg41
g10
sg42
S'--'
p304
ssS'8'
p305
(dp306
g5
S'--'
p307
sg7
S'--'
p308
sg9
g14
sg11
S'--'
p309
sg13
g14
sg15
S'Steve Johnson'
p310
sg17
S'2015'
p311
sg19
g305
sg21
S'--'
p312
sg23
S'11/01'
p313
sg25
S'14.0'
p314
sg27
S'--'
p315
sg29
S'--'
p316
sg31
S'L26-29'
p317
sg33
S'28'
p318
sg35
g203
sg37
S'@BAL'
p319
sg39
S'23'
p320
sg41
g10
sg42
S'--'
p321
sssS'2014'
p322
(dp323
g3
(dp324
g5
S'--'
p325
sg7
S'--'
p326
sg9
g10
sg11
S'--'
p327
sg13
g14
sg15
S'Steve Johnson'
p328
sg17
S'2014'
p329
sg19
S'11'
p330
sg21
S'--'
p331
sg23
S'11/16'
p332
sg25
S'8.0'
p333
sg27
S'--'
p334
sg29
S'--'
p335
sg31
S'W16-10'
p336
sg33
g305
sg35
g14
sg37
S'@NYG'
p337
sg39
g305
sg41
g10
sg42
S'--'
p338
ssg44
(dp339
g5
S'--'
p340
sg7
S'--'
p341
sg9
g10
sg11
S'--'
p342
sg13
g14
sg15
S'Steve Johnson'
p343
sg17
S'2014'
p344
sg19
S'10'
p345
sg21
S'--'
p346
sg23
S'11/09'
p347
sg25
S'14.3'
p348
sg27
S'--'
p349
sg29
S'--'
p350
sg31
S'W27-24'
p351
sg33
S'43'
p352
sg35
g186
sg37
S'@NO'
p353
sg39
S'20'
p354
sg41
g10
sg42
S'--'
p355
ssg51
(dp356
g5
S'--'
p357
sg7
S'--'
p358
sg9
g10
sg11
S'--'
p359
sg13
g14
sg15
S'Steve Johnson'
p360
sg17
S'2014'
p361
sg19
S'13'
p362
sg21
S'--'
p363
sg23
S'11/27'
p364
sg25
S'9.3'
p365
sg27
S'--'
p366
sg29
S'--'
p367
sg31
S'L3-19'
p368
sg33
S'28'
p369
sg35
g186
sg37
S'SEA'
p370
sg39
S'13'
p371
sg41
g10
sg42
S'--'
p372
ssg71
(dp373
g5
S'--'
p374
sg7
S'--'
p375
sg9
g10
sg11
S'--'
p376
sg13
g14
sg15
S'Steve Johnson'
p377
sg17
S'2014'
p378
sg19
S'12'
p379
sg21
S'--'
p380
sg23
S'11/23'
p381
sg25
S'--'
p382
sg27
S'--'
p383
sg29
S'--'
p384
sg31
S'W17-13'
p385
sg33
g10
sg35
g10
sg37
S'WAS'
p386
sg39
S'--'
p387
sg41
g10
sg42
S'--'
p388
ssg89
(dp389
g5
S'--'
p390
sg7
S'--'
p391
sg9
g10
sg11
S'--'
p392
sg13
g10
sg15
S'Steve Johnson'
p393
sg17
S'2014'
p394
sg19
S'15'
p395
sg21
S'--'
p396
sg23
S'12/14'
p397
sg25
S'--'
p398
sg27
S'--'
p399
sg29
S'--'
p400
sg31
S'L7-17'
p401
sg33
S'--'
p402
sg35
S'--'
p403
sg37
S'@SEA'
p404
sg39
S'--'
p405
sg41
S'--'
p406
sg42
S'--'
p407
ssg109
(dp408
g5
S'--'
p409
sg7
S'--'
p410
sg9
g10
sg11
S'--'
p411
sg13
g14
sg15
S'Steve Johnson'
p412
sg17
S'2014'
p413
sg19
S'14'
p414
sg21
S'--'
p415
sg23
S'12/07'
p416
sg25
S'--'
p417
sg27
S'--'
p418
sg29
S'--'
p419
sg31
S'L13-24'
p420
sg33
g10
sg35
g10
sg37
S'@OAK'
p421
sg39
S'--'
p422
sg41
g10
sg42
S'--'
p423
ssg129
(dp424
g5
S'--'
p425
sg7
S'--'
p426
sg9
g10
sg11
S'--'
p427
sg13
g10
sg15
S'Steve Johnson'
p428
sg17
S'2014'
p429
sg19
S'17'
p430
sg21
S'--'
p431
sg23
S'12/28'
p432
sg25
S'--'
p433
sg27
S'--'
p434
sg29
S'--'
p435
sg31
S'W20-17'
p436
sg33
S'--'
p437
sg35
S'--'
p438
sg37
S'ARI'
p439
sg39
S'--'
p440
sg41
S'--'
p441
sg42
S'--'
p442
ssg149
(dp443
g5
S'--'
p444
sg7
S'--'
p445
sg9
g10
sg11
S'--'
p446
sg13
g10
sg15
S'Steve Johnson'
p447
sg17
S'2014'
p448
sg19
S'16'
p449
sg21
S'--'
p450
sg23
S'12/20'
p451
sg25
S'--'
p452
sg27
S'--'
p453
sg29
S'--'
p454
sg31
S'L35-38'
p455
sg33
S'--'
p456
sg35
S'--'
p457
sg37
S'SD'
p458
sg39
S'--'
p459
sg41
S'--'
p460
sg42
S'--'
p461
ssg14
(dp462
g5
S'--'
p463
sg7
S'--'
p464
sg9
g10
sg11
S'--'
p465
sg13
g14
sg15
S'Steve Johnson'
p466
sg17
S'2014'
p467
sg19
g14
sg21
S'--'
p468
sg23
S'09/07'
p469
sg25
S'16.5'
p470
sg27
S'--'
p471
sg29
S'--'
p472
sg31
S'W28-17'
p473
sg33
S'33'
p474
sg35
g203
sg37
S'@DAL'
p475
sg39
S'21'
p476
sg41
g10
sg42
S'--'
p477
ssg186
(dp478
g5
S'--'
p479
sg7
S'--'
p480
sg9
g10
sg11
S'--'
p481
sg13
g14
sg15
S'Steve Johnson'
p482
sg17
S'2014'
p483
sg19
g186
sg21
S'--'
p484
sg23
S'09/21'
p485
sg25
S'11.4'
p486
sg27
S'--'
p487
sg29
S'--'
p488
sg31
S'L14-23'
p489
sg33
S'103'
p490
sg35
g288
sg37
S'@ARI'
p491
sg39
S'32'
p492
sg41
g10
sg42
S'--'
p493
ssg203
(dp494
g5
S'--'
p495
sg7
S'--'
p496
sg9
g10
sg11
S'--'
p497
sg13
g14
sg15
S'Steve Johnson'
p498
sg17
S'2014'
p499
sg19
g203
sg21
S'--'
p500
sg23
S'09/14'
p501
sg25
S'13.0'
p502
sg27
S'--'
p503
sg29
S'--'
p504
sg31
S'L20-28'
p505
sg33
S'26'
p506
sg35
g203
sg37
S'CHI'
p507
sg39
S'20'
p508
sg41
g10
sg42
S'--'
p509
ssg217
(dp510
g5
S'--'
p511
sg7
S'--'
p512
sg9
g10
sg11
S'--'
p513
sg13
g14
sg15
S'Steve Johnson'
p514
sg17
S'2014'
p515
sg19
g217
sg21
S'--'
p516
sg23
S'10/05'
p517
sg25
S'9.0'
p518
sg27
S'--'
p519
sg29
S'--'
p520
sg31
S'W22-17'
p521
sg33
g288
sg35
g14
sg37
S'KC'
p522
sg39
S'9T'
p523
sg41
g14
sg42
S'--'
p524
ssg239
(dp525
g5
S'--'
p526
sg7
S'--'
p527
sg9
g10
sg11
S'--'
p528
sg13
g14
sg15
S'Steve Johnson'
p529
sg17
S'2014'
p530
sg19
g239
sg21
S'--'
p531
sg23
S'09/28'
p532
sg25
S'12.0'
p533
sg27
S'--'
p534
sg29
S'--'
p535
sg31
S'W26-21'
p536
sg33
S'12'
p537
sg35
g14
sg37
S'PHI'
p538
sg39
S'12T'
p539
sg41
g14
sg42
S'--'
p540
ssg36
(dp541
g5
S'--'
p542
sg7
S'--'
p543
sg9
g14
sg11
S'--'
p544
sg13
g14
sg15
S'Steve Johnson'
p545
sg17
S'2014'
p546
sg19
g36
sg21
S'--'
p547
sg23
S'10/19'
p548
sg25
S'15.8'
p549
sg27
S'--'
p550
sg29
S'--'
p551
sg31
S'L17-42'
p552
sg33
S'79'
p553
sg35
g217
sg37
S'@DEN'
p554
sg39
S'31'
p555
sg41
g14
sg42
S'--'
p556
ssg182
(dp557
g5
S'--'
p558
sg7
S'--'
p559
sg9
g10
sg11
S'--'
p560
sg13
g14
sg15
S'Steve Johnson'
p561
sg17
S'2014'
p562
sg19
g182
sg21
S'--'
p563
sg23
S'10/13'
p564
sg25
S'10.6'
p565
sg27
S'--'
p566
sg29
S'--'
p567
sg31
S'W31-17'
p568
sg33
S'53'
p569
sg35
g217
sg37
S'@STL'
p570
sg39
S'20'
p571
sg41
g10
sg42
S'--'
p572
ssg288
(dp573
g5
S'--'
p574
sg7
S'--'
p575
sg9
g10
sg11
S'--'
p576
sg13
g14
sg15
S'Steve Johnson'
p577
sg17
S'2014'
p578
sg19
g288
sg21
S'--'
p579
sg23
S'11/02'
p580
sg25
S'13.7'
p581
sg27
S'--'
p582
sg29
S'--'
p583
sg31
S'L10-13'
p584
sg33
S'41'
p585
sg35
g186
sg37
S'STL'
p586
sg39
S'25'
p587
sg41
g10
sg42
S'--'
p588
ssg305
(dp589
g5
g46
sg7
g46
sg9
g46
sg11
g46
sg13
g46
sg15
S'Steve Johnson'
p590
sg17
S'2014'
p591
sg19
g305
sg21
g46
sg23
S'Bye'
p592
sg25
g46
sg27
g46
sg29
g46
sg31
g46
sg33
g46
sg35
g46
sg37
g46
sg39
g46
sg41
g46
sg42
g46
sssS'2011'
p593
(dp594
g3
(dp595
g5
S'--'
p596
sg7
S'--'
p597
sg9
g14
sg11
S'--'
p598
sg13
g14
sg15
S'Steve Johnson'
p599
sg17
S'2011'
p600
sg19
S'11'
p601
sg21
S'--'
p602
sg23
S'11/20'
p603
sg25
S'8.0'
p604
sg27
S'--'
p605
sg29
S'--'
p606
sg31
S'L8-35'
p607
sg33
S'16'
p608
sg35
g203
sg37
S'@MIA'
p609
sg39
S'10'
p610
sg41
g10
sg42
S'--'
p611
ssg44
(dp612
g5
S'--'
p613
sg7
S'--'
p614
sg9
g14
sg11
S'--'
p615
sg13
g14
sg15
S'Steve Johnson'
p616
sg17
S'2011'
p617
sg19
S'10'
p618
sg21
S'--'
p619
sg23
S'11/13'
p620
sg25
S'4.0'
p621
sg27
S'--'
p622
sg29
S'--'
p623
sg31
S'L7-44'
p624
sg33
g305
sg35
g203
sg37
S'@DAL'
p625
sg39
g182
sg41
g10
sg42
S'--'
p626
ssg51
(dp627
g5
S'--'
p628
sg7
S'--'
p629
sg9
g14
sg11
S'--'
p630
sg13
g14
sg15
S'Steve Johnson'
p631
sg17
S'2011'
p632
sg19
S'13'
p633
sg21
S'--'
p634
sg23
S'12/04'
p635
sg25
S'10.4'
p636
sg27
S'--'
p637
sg29
S'--'
p638
sg31
S'L17-23'
p639
sg33
S'52'
p640
sg35
g217
sg37
S'TEN'
p641
sg39
S'22'
p642
sg41
g14
sg42
S'--'
p643
ssg71
(dp644
g5
S'--'
p645
sg7
S'--'
p646
sg9
g14
sg11
S'--'
p647
sg13
g14
sg15
S'Steve Johnson'
p648
sg17
S'2011'
p649
sg19
S'12'
p650
sg21
S'--'
p651
sg23
S'11/27'
p652
sg25
S'9.4'
p653
sg27
S'--'
p654
sg29
S'--'
p655
sg31
S'L24-28'
p656
sg33
S'75'
p657
sg35
g305
sg37
S'@NYJ'
p658
sg39
S'16'
p659
sg41
g14
sg42
S'--'
p660
ssg89
(dp661
g5
S'--'
p662
sg7
S'--'
p663
sg9
g14
sg11
S'--'
p664
sg13
g14
sg15
S'Steve Johnson'
p665
sg17
S'2011'
p666
sg19
S'15'
p667
sg21
S'--'
p668
sg23
S'12/18'
p669
sg25
S'16.4'
p670
sg27
S'--'
p671
sg29
S'--'
p672
sg31
S'L23-30'
p673
sg33
S'82'
p674
sg35
g217
sg37
S'MIA'
p675
sg39
S'22'
p676
sg41
g10
sg42
S'--'
p677
ssg109
(dp678
g5
S'--'
p679
sg7
S'--'
p680
sg9
g14
sg11
S'--'
p681
sg13
g14
sg15
S'Steve Johnson'
p682
sg17
S'2011'
p683
sg19
S'14'
p684
sg21
S'--'
p685
sg23
S'12/11'
p686
sg25
S'29.0'
p687
sg27
S'--'
p688
sg29
S'--'
p689
sg31
S'L10-37'
p690
sg33
S'116'
p691
sg35
g239
sg37
S'@SD'
p692
sg39
S'53'
p693
sg41
g10
sg42
S'--'
p694
ssg129
(dp695
g5
S'--'
p696
sg7
S'--'
p697
sg9
g14
sg11
S'--'
p698
sg13
g14
sg15
S'Steve Johnson'
p699
sg17
S'2011'
p700
sg19
S'17'
p701
sg21
S'--'
p702
sg23
S'01/01'
p703
sg25
S'10.0'
p704
sg27
S'--'
p705
sg29
S'--'
p706
sg31
S'L21-49'
p707
sg33
S'40'
p708
sg35
g239
sg37
S'@NE'
p709
sg39
S'18T'
p710
sg41
g14
sg42
S'--'
p711
ssg149
(dp712
g5
S'--'
p713
sg7
S'--'
p714
sg9
g14
sg11
S'--'
p715
sg13
g14
sg15
S'Steve Johnson'
p716
sg17
S'2011'
p717
sg19
S'16'
p718
sg21
S'--'
p719
sg23
S'12/24'
p720
sg25
S'23.0'
p721
sg27
S'--'
p722
sg29
S'--'
p723
sg31
S'W40-14'
p724
sg33
S'92'
p725
sg35
g239
sg37
S'DEN'
p726
sg39
S'55'
p727
sg41
g10
sg42
S'--'
p728
ssg14
(dp729
g5
S'--'
p730
sg7
S'--'
p731
sg9
g14
sg11
S'--'
p732
sg13
g14
sg15
S'Steve Johnson'
p733
sg17
S'2011'
p734
sg19
g14
sg21
S'--'
p735
sg23
S'09/11'
p736
sg25
S'16.5'
p737
sg27
S'--'
p738
sg29
S'--'
p739
sg31
S'W41-7'
p740
sg33
S'66'
p741
sg35
g239
sg37
S'@KC'
p742
sg39
S'27T'
p743
sg41
g14
sg42
S'--'
p744
ssg186
(dp745
g5
S'--'
p746
sg7
S'--'
p747
sg9
g14
sg11
S'--'
p748
sg13
g14
sg15
S'Steve Johnson'
p749
sg17
S'2011'
p750
sg19
g186
sg21
S'--'
p751
sg23
S'09/25'
p752
sg25
S'11.8'
p753
sg27
S'--'
p754
sg29
S'--'
p755
sg31
S'W34-31'
p756
sg33
S'94'
p757
sg35
g305
sg37
S'NE'
p758
sg39
S'33'
p759
sg41
g14
sg42
S'--'
p760
ssg203
(dp761
g5
S'--'
p762
sg7
S'--'
p763
sg9
g14
sg11
S'--'
p764
sg13
g14
sg15
S'Steve Johnson'
p765
sg17
S'2011'
p766
sg19
g203
sg21
S'--'
p767
sg23
S'09/18'
p768
sg25
S'12.0'
p769
sg27
S'--'
p770
sg29
S'--'
p771
sg31
S'W38-35'
p772
sg33
S'96'
p773
sg35
g305
sg37
S'OAK'
p774
sg39
S'19'
p775
sg41
g14
sg42
S'--'
p776
ssg217
(dp777
g5
S'--'
p778
sg7
S'--'
p779
sg9
g14
sg11
S'--'
p780
sg13
g14
sg15
S'Steve Johnson'
p781
sg17
S'2011'
p782
sg19
g217
sg21
S'--'
p783
sg23
S'10/09'
p784
sg25
S'7.3'
p785
sg27
S'--'
p786
sg29
S'--'
p787
sg31
S'W31-24'
p788
sg33
S'29'
p789
sg35
g239
sg37
S'PHI'
p790
sg39
S'12'
p791
sg41
g10
sg42
S'--'
p792
ssg239
(dp793
g5
S'--'
p794
sg7
S'--'
p795
sg9
g14
sg11
S'--'
p796
sg13
g14
sg15
S'Steve Johnson'
p797
sg17
S'2011'
p798
sg19
g239
sg21
S'--'
p799
sg23
S'10/02'
p800
sg25
S'14.5'
p801
sg27
S'--'
p802
sg29
S'--'
p803
sg31
S'L20-23'
p804
sg33
S'58'
p805
sg35
g239
sg37
S'@CIN'
p806
sg39
S'44'
p807
sg41
g10
sg42
S'--'
p808
ssg36
(dp809
g5
g46
sg7
g46
sg9
g46
sg11
g46
sg13
g46
sg15
S'Steve Johnson'
p810
sg17
S'2011'
p811
sg19
g36
sg21
g46
sg23
S'Bye'
p812
sg25
g46
sg27
g46
sg29
g46
sg31
g46
sg33
g46
sg35
g46
sg37
g46
sg39
g46
sg41
g46
sg42
g46
ssg182
(dp813
g5
S'--'
p814
sg7
S'--'
p815
sg9
g14
sg11
S'--'
p816
sg13
g14
sg15
S'Steve Johnson'
p817
sg17
S'2011'
p818
sg19
g182
sg21
S'--'
p819
sg23
S'10/16'
p820
sg25
S'7.8'
p821
sg27
S'--'
p822
sg29
S'--'
p823
sg31
S'L24-27'
p824
sg33
S'39'
p825
sg35
g217
sg37
S'@NYG'
p826
sg39
S'12'
p827
sg41
g14
sg42
S'--'
p828
ssg288
(dp829
g5
S'--'
p830
sg7
S'--'
p831
sg9
g14
sg11
S'--'
p832
sg13
g14
sg15
S'Steve Johnson'
p833
sg17
S'2011'
p834
sg19
g288
sg21
S'--'
p835
sg23
S'11/06'
p836
sg25
S'28.0'
p837
sg27
S'--'
p838
sg29
S'--'
p839
sg31
S'L11-27'
p840
sg33
S'84'
p841
sg35
g186
sg37
S'NYJ'
p842
sg39
S'52'
p843
sg41
g10
sg42
S'--'
p844
ssg305
(dp845
g5
S'--'
p846
sg7
S'--'
p847
sg9
g14
sg11
S'--'
p848
sg13
g14
sg15
S'Steve Johnson'
p849
sg17
S'2011'
p850
sg19
g305
sg21
S'--'
p851
sg23
S'10/30'
p852
sg25
S'9.5'
p853
sg27
S'--'
p854
sg29
S'--'
p855
sg31
S'W23-0'
p856
sg33
S'57'
p857
sg35
g182
sg37
S'WAS'
p858
sg39
S'17'
p859
sg41
g10
sg42
S'--'
p860
sssS'2010'
p861
(dp862
g3
(dp863
g5
S'--'
p864
sg7
S'--'
p865
sg9
g14
sg11
S'--'
p866
sg13
g14
sg15
S'Steve Johnson'
p867
sg17
S'2010'
p868
sg19
S'11'
p869
sg21
S'--'
p870
sg23
S'11/21'
p871
sg25
S'17.1'
p872
sg27
S'--'
p873
sg29
S'--'
p874
sg31
S'W49-31'
p875
sg33
S'137'
p876
sg35
g305
sg37
S'@CIN'
p877
sg39
S'36'
p878
sg41
g186
sg42
S'--'
p879
ssg44
(dp880
g5
S'--'
p881
sg7
S'--'
p882
sg9
g14
sg11
S'--'
p883
sg13
g14
sg15
S'Steve Johnson'
p884
sg17
S'2010'
p885
sg19
S'10'
p886
sg21
S'--'
p887
sg23
S'11/14'
p888
sg25
S'12.3'
p889
sg27
S'--'
p890
sg29
S'--'
p891
sg31
S'W14-12'
p892
sg33
S'37'
p893
sg35
g186
sg37
S'DET'
p894
sg39
S'19'
p895
sg41
g10
sg42
S'--'
p896
ssg51
(dp897
g5
S'--'
p898
sg7
S'--'
p899
sg9
g14
sg11
S'--'
p900
sg13
g14
sg15
S'Steve Johnson'
p901
sg17
S'2010'
p902
sg19
S'13'
p903
sg21
S'--'
p904
sg23
S'12/05'
p905
sg25
S'18.0'
p906
sg27
S'--'
p907
sg29
S'--'
p908
sg31
S'L14-38'
p909
sg33
S'36'
p910
sg35
g203
sg37
S'@MIN'
p911
sg39
S'28'
p912
sg41
g10
sg42
S'--'
p913
ssg71
(dp914
g5
S'--'
p915
sg7
S'--'
p916
sg9
g14
sg11
S'--'
p917
sg13
g14
sg15
S'Steve Johnson'
p918
sg17
S'2010'
p919
sg19
S'12'
p920
sg21
S'--'
p921
sg23
S'11/28'
p922
sg25
S'9.7'
p923
sg27
S'--'
p924
sg29
S'--'
p925
sg31
S'L16-19'
p926
sg33
S'68'
p927
sg35
g36
sg37
S'PIT'
p928
sg39
S'18'
p929
sg41
g10
sg42
S'--'
p930
ssg89
(dp931
g5
S'--'
p932
sg7
S'--'
p933
sg9
g14
sg11
S'--'
p934
sg13
g14
sg15
S'Steve Johnson'
p935
sg17
S'2010'
p936
sg19
S'15'
p937
sg21
S'--'
p938
sg23
S'12/19'
p939
sg25
S'11.5'
p940
sg27
S'--'
p941
sg29
S'--'
p942
sg31
S'W17-14'
p943
sg33
S'69'
p944
sg35
g182
sg37
S'@MIA'
p945
sg39
S'18'
p946
sg41
g14
sg42
S'--'
p947
ssg109
(dp948
g5
S'--'
p949
sg7
S'--'
p950
sg9
g14
sg11
S'--'
p951
sg13
g14
sg15
S'Steve Johnson'
p952
sg17
S'2010'
p953
sg19
S'14'
p954
sg21
S'--'
p955
sg23
S'12/12'
p956
sg25
S'8.4'
p957
sg27
S'--'
p958
sg29
S'--'
p959
sg31
S'W13-6'
p960
sg33
S'42'
p961
sg35
g217
sg37
S'CLE'
p962
sg39
S'20'
p963
sg41
g10
sg42
S'--'
p964
ssg129
(dp965
g5
S'--'
p966
sg7
S'--'
p967
sg9
g14
sg11
g14
sg13
g14
sg15
S'Steve Johnson'
p968
sg17
S'2010'
p969
sg19
S'17'
p970
sg21
S'--'
p971
sg23
S'01/02'
p972
sg25
S'14.4'
p973
sg27
g14
sg29
S'--'
p974
sg31
S'L7-38'
p975
sg33
S'72'
p976
sg35
g217
sg37
S'@NYJ'
p977
sg39
S'33'
p978
sg41
g10
sg42
S'--'
p979
ssg149
(dp980
g5
S'--'
p981
sg7
S'--'
p982
sg9
g14
sg11
S'--'
p983
sg13
g14
sg15
S'Steve Johnson'
p984
sg17
S'2010'
p985
sg19
S'16'
p986
sg21
S'--'
p987
sg23
S'12/26'
p988
sg25
S'11.6'
p989
sg27
S'--'
p990
sg29
S'--'
p991
sg31
S'L3-34'
p992
sg33
S'58'
p993
sg35
g217
sg37
S'NE'
p994
sg39
S'16'
p995
sg41
g10
sg42
S'--'
p996
ssg14
(dp997
g5
S'--'
p998
sg7
S'--'
p999
sg9
g14
sg11
S'--'
p1000
sg13
g14
sg15
S'Steve Johnson'
p1001
sg17
S'2010'
p1002
sg19
g14
sg21
S'--'
p1003
sg23
S'09/12'
p1004
sg25
S'13.3'
p1005
sg27
S'--'
p1006
sg29
S'--'
p1007
sg31
S'L10-15'
p1008
sg33
S'40'
p1009
sg35
g186
sg37
S'MIA'
p1010
sg39
S'19'
p1011
sg41
g10
sg42
S'--'
p1012
ssg186
(dp1013
g5
S'--'
p1014
sg7
S'--'
p1015
sg9
g14
sg11
S'--'
p1016
sg13
g14
sg15
S'Steve Johnson'
p1017
sg17
S'2010'
p1018
sg19
g186
sg21
S'--'
p1019
sg23
S'09/26'
p1020
sg25
S'22.0'
p1021
sg27
S'--'
p1022
sg29
S'--'
p1023
sg31
S'L30-38'
p1024
sg33
S'66'
p1025
sg35
g186
sg37
S'@NE'
p1026
sg39
S'37T'
p1027
sg41
g14
sg42
S'--'
p1028
ssg203
(dp1029
g5
S'--'
p1030
sg7
S'--'
p1031
sg9
g10
sg11
S'--'
p1032
sg13
g14
sg15
S'Steve Johnson'
p1033
sg17
S'2010'
p1034
sg19
g203
sg21
S'--'
p1035
sg23
S'09/19'
p1036
sg25
S'10.3'
p1037
sg27
S'--'
p1038
sg29
S'--'
p1039
sg31
S'L7-34'
p1040
sg33
S'31'
p1041
sg35
g186
sg37
S'@GB'
p1042
sg39
S'15'
p1043
sg41
g10
sg42
S'--'
p1044
ssg217
(dp1045
g5
S'--'
p1046
sg7
S'--'
p1047
sg9
g10
sg11
S'--'
p1048
sg13
g14
sg15
S'Steve Johnson'
p1049
sg17
S'2010'
p1050
sg19
g217
sg21
S'--'
p1051
sg23
S'10/10'
p1052
sg25
S'9.2'
p1053
sg27
S'--'
p1054
sg29
S'--'
p1055
sg31
S'L26-36'
p1056
sg33
S'46'
p1057
sg35
g217
sg37
S'JAC'
p1058
sg39
S'15'
p1059
sg41
g203
sg42
S'--'
p1060
ssg239
(dp1061
g5
S'--'
p1062
sg7
S'--'
p1063
sg9
g10
sg11
S'--'
p1064
sg13
g14
sg15
S'Steve Johnson'
p1065
sg17
S'2010'
p1066
sg19
g239
sg21
S'--'
p1067
sg23
S'10/03'
p1068
sg25
S'10.3'
p1069
sg27
S'--'
p1070
sg29
S'--'
p1071
sg31
S'L14-38'
p1072
sg33
S'31'
p1073
sg35
g186
sg37
S'NYJ'
p1074
sg39
S'13T'
p1075
sg41
g14
sg42
S'--'
p1076
ssg36
(dp1077
g5
S'--'
p1078
sg7
S'--'
p1079
sg9
g14
sg11
S'--'
p1080
sg13
g14
sg15
S'Steve Johnson'
p1081
sg17
S'2010'
p1082
sg19
g36
sg21
S'--'
p1083
sg23
S'10/24'
p1084
sg25
S'19.8'
p1085
sg27
S'--'
p1086
sg29
S'--'
p1087
sg31
S'L34-37'
p1088
sg33
S'158'
p1089
sg35
g305
sg37
S'@BAL'
p1090
sg39
S'43'
p1091
sg41
g14
sg42
S'--'
p1092
ssg182
(dp1093
g5
g46
sg7
g46
sg9
g46
sg11
g46
sg13
g46
sg15
S'Steve Johnson'
p1094
sg17
S'2010'
p1095
sg19
g182
sg21
g46
sg23
S'Bye'
p1096
sg25
g46
sg27
g46
sg29
g46
sg31
g46
sg33
g46
sg35
g46
sg37
g46
sg39
g46
sg41
g46
sg42
g46
ssg288
(dp1097
g5
S'--'
p1098
sg7
S'--'
p1099
sg9
g14
sg11
S'--'
p1100
sg13
g14
sg15
S'Steve Johnson'
p1101
sg17
S'2010'
p1102
sg19
g288
sg21
S'--'
p1103
sg23
S'11/07'
p1104
sg25
S'13.2'
p1105
sg27
S'--'
p1106
sg29
S'--'
p1107
sg31
S'L19-22'
p1108
sg33
S'145'
p1109
sg35
S'11'
p1110
sg37
S'CHI'
p1111
sg39
S'45'
p1112
sg41
g10
sg42
S'--'
p1113
ssg305
(dp1114
g5
S'--'
p1115
sg7
S'--'
p1116
sg9
g14
sg11
S'--'
p1117
sg13
g14
sg15
S'Steve Johnson'
p1118
sg17
S'2010'
p1119
sg19
g305
sg21
S'--'
p1120
sg23
S'10/31'
p1121
sg25
S'7.4'
p1122
sg27
S'--'
p1123
sg29
S'--'
p1124
sg31
S'L10-13'
p1125
sg33
S'37'
p1126
sg35
g217
sg37
S'@KC'
p1127
sg39
S'12'
p1128
sg41
g14
sg42
S'--'
p1129
sssS'2013'
p1130
(dp1131
g3
(dp1132
g5
S'--'
p1133
sg7
S'--'
p1134
sg9
g10
sg11
S'--'
p1135
sg13
g10
sg15
S'Steve Johnson'
p1136
sg17
S'2013'
p1137
sg19
S'11'
p1138
sg21
S'--'
p1139
sg23
S'11/17'
p1140
sg25
S'--'
p1141
sg27
S'--'
p1142
sg29
S'--'
p1143
sg31
S'W37-14'
p1144
sg33
S'--'
p1145
sg35
S'--'
p1146
sg37
S'NYJ'
p1147
sg39
S'--'
p1148
sg41
S'--'
p1149
sg42
S'--'
p1150
ssg44
(dp1151
g5
S'--'
p1152
sg7
S'--'
p1153
sg9
g14
sg11
S'--'
p1154
sg13
g14
sg15
S'Steve Johnson'
p1155
sg17
S'2013'
p1156
sg19
S'10'
p1157
sg21
S'--'
p1158
sg23
S'11/10'
p1159
sg25
S'16.0'
p1160
sg27
S'--'
p1161
sg29
S'--'
p1162
sg31
S'L10-23'
p1163
sg33
S'48'
p1164
sg35
g186
sg37
S'@PIT'
p1165
sg39
S'23'
p1166
sg41
g10
sg42
S'--'
p1167
ssg51
(dp1168
g5
S'--'
p1169
sg7
S'--'
p1170
sg9
g14
sg11
g14
sg13
g14
sg15
S'Steve Johnson'
p1171
sg17
S'2013'
p1172
sg19
S'13'
p1173
sg21
S'--'
p1174
sg23
S'12/01'
p1175
sg25
S'11.0'
p1176
sg27
g14
sg29
S'--'
p1177
sg31
S'L31-34'
p1178
sg33
S'55'
p1179
sg35
g217
sg37
S'ATL'
p1180
sg39
S'15'
p1181
sg41
g10
sg42
S'--'
p1182
ssg71
(dp1183
g5
g46
sg7
g46
sg9
g46
sg11
g46
sg13
g46
sg15
S'Steve Johnson'
p1184
sg17
S'2013'
p1185
sg19
S'12'
p1186
sg21
g46
sg23
S'Bye'
p1187
sg25
g46
sg27
g46
sg29
g46
sg31
g46
sg33
g46
sg35
g46
sg37
g46
sg39
g46
sg41
g46
sg42
g46
ssg89
(dp1188
g5
S'--'
p1189
sg7
S'--'
p1190
sg9
g14
sg11
S'--'
p1191
sg13
g14
sg15
S'Steve Johnson'
p1192
sg17
S'2013'
p1193
sg19
S'15'
p1194
sg21
S'--'
p1195
sg23
S'12/15'
p1196
sg25
S'4.0'
p1197
sg27
S'--'
p1198
sg29
S'--'
p1199
sg31
S'W27-20'
p1200
sg33
g239
sg35
g14
sg37
S'@JAC'
p1201
sg39
g239
sg41
g10
sg42
S'--'
p1202
ssg109
(dp1203
g5
S'--'
p1204
sg7
S'--'
p1205
sg9
g14
sg11
S'--'
p1206
sg13
g14
sg15
S'Steve Johnson'
p1207
sg17
S'2013'
p1208
sg19
S'14'
p1209
sg21
S'--'
p1210
sg23
S'12/08'
p1211
sg25
S'13.4'
p1212
sg27
S'--'
p1213
sg29
S'--'
p1214
sg31
S'L6-27'
p1215
sg33
S'67'
p1216
sg35
g217
sg37
S'@TB'
p1217
sg39
S'33'
p1218
sg41
g10
sg42
S'--'
p1219
ssg129
(dp1220
g5
S'--'
p1221
sg7
S'--'
p1222
sg9
g10
sg11
S'--'
p1223
sg13
g10
sg15
S'Steve Johnson'
p1224
sg17
S'2013'
p1225
sg19
S'17'
p1226
sg21
S'--'
p1227
sg23
S'12/29'
p1228
sg25
S'--'
p1229
sg27
S'--'
p1230
sg29
S'--'
p1231
sg31
S'L20-34'
p1232
sg33
S'--'
p1233
sg35
S'--'
p1234
sg37
S'@NE'
p1235
sg39
S'--'
p1236
sg41
S'--'
p1237
sg42
S'--'
p1238
ssg149
(dp1239
g5
S'--'
p1240
sg7
S'--'
p1241
sg9
g10
sg11
S'--'
p1242
sg13
g10
sg15
S'Steve Johnson'
p1243
sg17
S'2013'
p1244
sg19
S'16'
p1245
sg21
S'--'
p1246
sg23
S'12/22'
p1247
sg25
S'--'
p1248
sg27
S'--'
p1249
sg29
S'--'
p1250
sg31
S'W19-0'
p1251
sg33
S'--'
p1252
sg35
S'--'
p1253
sg37
S'MIA'
p1254
sg39
S'--'
p1255
sg41
S'--'
p1256
sg42
S'--'
p1257
ssg14
(dp1258
g5
S'--'
p1259
sg7
S'--'
p1260
sg9
g14
sg11
S'--'
p1261
sg13
g14
sg15
S'Steve Johnson'
p1262
sg17
S'2013'
p1263
sg19
g14
sg21
S'--'
p1264
sg23
S'09/08'
p1265
sg25
S'13.0'
p1266
sg27
S'--'
p1267
sg29
S'--'
p1268
sg31
S'L21-23'
p1269
sg33
S'39'
p1270
sg35
g186
sg37
S'NE'
p1271
sg39
S'18T'
p1272
sg41
g14
sg42
S'--'
p1273
ssg186
(dp1274
g5
S'--'
p1275
sg7
S'--'
p1276
sg9
g14
sg11
S'--'
p1277
sg13
g14
sg15
S'Steve Johnson'
p1278
sg17
S'2013'
p1279
sg19
g186
sg21
S'--'
p1280
sg23
S'09/22'
p1281
sg25
S'14.3'
p1282
sg27
S'--'
p1283
sg29
S'--'
p1284
sg31
S'L20-27'
p1285
sg33
S'86'
p1286
sg35
g182
sg37
S'@NYJ'
p1287
sg39
S'23'
p1288
sg41
g10
sg42
S'--'
p1289
ssg203
(dp1290
g5
S'--'
p1291
sg7
S'--'
p1292
sg9
g14
sg11
S'--'
p1293
sg13
g14
sg15
S'Steve Johnson'
p1294
sg17
S'2013'
p1295
sg19
g203
sg21
S'--'
p1296
sg23
S'09/15'
p1297
sg25
S'13.9'
p1298
sg27
S'--'
p1299
sg29
S'--'
p1300
sg31
S'W24-23'
p1301
sg33
S'111'
p1302
sg35
g305
sg37
S'CAR'
p1303
sg39
S'45'
p1304
sg41
g14
sg42
S'--'
p1305
ssg217
(dp1306
g5
S'--'
p1307
sg7
S'--'
p1308
sg9
g14
sg11
S'--'
p1309
sg13
g14
sg15
S'Steve Johnson'
p1310
sg17
S'2013'
p1311
sg19
g217
sg21
S'--'
p1312
sg23
S'10/03'
p1313
sg25
S'9.5'
p1314
sg27
S'--'
p1315
sg29
S'--'
p1316
sg31
S'L24-37'
p1317
sg33
S'19'
p1318
sg35
g203
sg37
S'@CLE'
p1319
sg39
S'13'
p1320
sg41
g10
sg42
S'--'
p1321
ssg239
(dp1322
g5
S'--'
p1323
sg7
S'--'
p1324
sg9
g14
sg11
S'--'
p1325
sg13
g14
sg15
S'Steve Johnson'
p1326
sg17
S'2013'
p1327
sg19
g239
sg21
S'--'
p1328
sg23
S'09/29'
p1329
sg25
S'-1.0'
p1330
sg27
S'--'
p1331
sg29
S'--'
p1332
sg31
S'W23-20'
p1333
sg33
S'-1'
p1334
sg35
g14
sg37
S'BAL'
p1335
sg39
S'-1'
p1336
sg41
g10
sg42
S'--'
p1337
ssg36
(dp1338
g5
S'--'
p1339
sg7
S'--'
p1340
sg9
g14
sg11
S'--'
p1341
sg13
g14
sg15
S'Steve Johnson'
p1342
sg17
S'2013'
p1343
sg19
g36
sg21
S'--'
p1344
sg23
S'10/20'
p1345
sg25
S'10.2'
p1346
sg27
S'--'
p1347
sg29
S'--'
p1348
sg31
S'W23-21'
p1349
sg33
S'61'
p1350
sg35
g182
sg37
S'@MIA'
p1351
sg39
S'17'
p1352
sg41
g10
sg42
S'--'
p1353
ssg182
(dp1354
g5
S'--'
p1355
sg7
S'--'
p1356
sg9
g10
sg11
S'--'
p1357
sg13
g10
sg15
S'Steve Johnson'
p1358
sg17
S'2013'
p1359
sg19
g182
sg21
S'--'
p1360
sg23
S'10/13'
p1361
sg25
S'--'
p1362
sg27
S'--'
p1363
sg29
S'--'
p1364
sg31
S'L24-27'
p1365
sg33
S'--'
p1366
sg35
S'--'
p1367
sg37
S'CIN'
p1368
sg39
S'--'
p1369
sg41
S'--'
p1370
sg42
S'--'
p1371
ssg288
(dp1372
g5
g10
sg7
S'10'
p1373
sg9
g14
sg11
S'--'
p1374
sg13
g14
sg15
S'Steve Johnson'
p1375
sg17
S'2013'
p1376
sg19
g288
sg21
S'10.0'
p1377
sg23
S'11/03'
p1378
sg25
S'7.2'
p1379
sg27
S'--'
p1380
sg29
g14
sg31
S'L13-23'
p1381
sg33
S'36'
p1382
sg35
g217
sg37
S'KC'
p1383
sg39
S'13'
p1384
sg41
g10
sg42
S'10'
p1385
ssg305
(dp1386
g5
S'--'
p1387
sg7
S'--'
p1388
sg9
g14
sg11
S'--'
p1389
sg13
g14
sg15
S'Steve Johnson'
p1390
sg17
S'2013'
p1391
sg19
g305
sg21
S'--'
p1392
sg23
S'10/27'
p1393
sg25
S'10.3'
p1394
sg27
S'--'
p1395
sg29
S'--'
p1396
sg31
S'L17-35'
p1397
sg33
S'72'
p1398
sg35
g36
sg37
S'@NO'
p1399
sg39
S'17'
p1400
sg41
g14
sg42
S'--'
p1401
sssS'2012'
p1402
(dp1403
g3
(dp1404
g5
S'--'
p1405
sg7
S'--'
p1406
sg9
g14
sg11
S'--'
p1407
sg13
g14
sg15
S'Steve Johnson'
p1408
sg17
S'2012'
p1409
sg19
S'11'
p1410
sg21
S'--'
p1411
sg23
S'11/15'
p1412
sg25
S'13.2'
p1413
sg27
S'--'
p1414
sg29
S'--'
p1415
sg31
S'W19-14'
p1416
sg33
S'79'
p1417
sg35
g182
sg37
S'MIA'
p1418
sg39
S'16'
p1419
sg41
g10
sg42
S'--'
p1420
ssg44
(dp1421
g5
S'--'
p1422
sg7
S'--'
p1423
sg9
g14
sg11
S'--'
p1424
sg13
g14
sg15
S'Steve Johnson'
p1425
sg17
S'2012'
p1426
sg19
S'10'
p1427
sg21
S'--'
p1428
sg23
S'11/11'
p1429
sg25
S'14.3'
p1430
sg27
S'--'
p1431
sg29
S'--'
p1432
sg31
S'L31-37'
p1433
sg33
S'86'
p1434
sg35
g182
sg37
S'@NE'
p1435
sg39
S'21'
p1436
sg41
g10
sg42
S'--'
p1437
ssg51
(dp1438
g5
S'--'
p1439
sg7
S'--'
p1440
sg9
g14
sg11
S'--'
p1441
sg13
g14
sg15
S'Steve Johnson'
p1442
sg17
S'2012'
p1443
sg19
S'13'
p1444
sg21
S'--'
p1445
sg23
S'12/02'
p1446
sg25
S'9.0'
p1447
sg27
S'--'
p1448
sg29
S'--'
p1449
sg31
S'W34-18'
p1450
sg33
S'18'
p1451
sg35
g203
sg37
S'JAC'
p1452
sg39
S'13T'
p1453
sg41
g14
sg42
S'--'
p1454
ssg71
(dp1455
g5
S'--'
p1456
sg7
S'--'
p1457
sg9
g14
sg11
S'--'
p1458
sg13
g14
sg15
S'Steve Johnson'
p1459
sg17
S'2012'
p1460
sg19
S'12'
p1461
sg21
S'--'
p1462
sg23
S'11/25'
p1463
sg25
S'17.7'
p1464
sg27
S'--'
p1465
sg29
S'--'
p1466
sg31
S'L13-20'
p1467
sg33
S'106'
p1468
sg35
g182
sg37
S'@IND'
p1469
sg39
S'63'
p1470
sg41
g10
sg42
S'--'
p1471
ssg89
(dp1472
g5
S'--'
p1473
sg7
S'--'
p1474
sg9
g14
sg11
S'--'
p1475
sg13
g14
sg15
S'Steve Johnson'
p1476
sg17
S'2012'
p1477
sg19
S'15'
p1478
sg21
S'--'
p1479
sg23
S'12/16'
p1480
sg25
S'14.4'
p1481
sg27
S'--'
p1482
sg29
S'--'
p1483
sg31
S'L17-50'
p1484
sg33
S'115'
p1485
sg35
g305
sg37
S'SEA'
p1486
sg39
S'25'
p1487
sg41
g14
sg42
S'--'
p1488
ssg109
(dp1489
g5
S'--'
p1490
sg7
S'--'
p1491
sg9
g14
sg11
S'--'
p1492
sg13
g14
sg15
S'Steve Johnson'
p1493
sg17
S'2012'
p1494
sg19
S'14'
p1495
sg21
S'--'
p1496
sg23
S'12/09'
p1497
sg25
S'11.8'
p1498
sg27
S'--'
p1499
sg29
S'--'
p1500
sg31
S'L12-15'
p1501
sg33
S'71'
p1502
sg35
g182
sg37
S'STL'
p1503
sg39
S'34'
p1504
sg41
g10
sg42
S'--'
p1505
ssg129
(dp1506
g5
S'--'
p1507
sg7
S'--'
p1508
sg9
g14
sg11
S'--'
p1509
sg13
g14
sg15
S'Steve Johnson'
p1510
sg17
S'2012'
p1511
sg19
S'17'
p1512
sg21
S'--'
p1513
sg23
S'12/30'
p1514
sg25
S'18.5'
p1515
sg27
S'--'
p1516
sg29
S'--'
p1517
sg31
S'W28-9'
p1518
sg33
S'111'
p1519
sg35
g182
sg37
S'NYJ'
p1520
sg39
S'37'
p1521
sg41
g10
sg42
S'--'
p1522
ssg149
(dp1523
g5
S'--'
p1524
sg7
S'--'
p1525
sg9
g14
sg11
g14
sg13
g14
sg15
S'Steve Johnson'
p1526
sg17
S'2012'
p1527
sg19
S'16'
p1528
sg21
S'--'
p1529
sg23
S'12/23'
p1530
sg25
S'11.0'
p1531
sg27
g14
sg29
S'--'
p1532
sg31
S'L10-24'
p1533
sg33
S'44'
p1534
sg35
g239
sg37
S'@MIA'
p1535
sg39
S'15'
p1536
sg41
g10
sg42
S'--'
p1537
ssg14
(dp1538
g5
S'--'
p1539
sg7
S'--'
p1540
sg9
g14
sg11
S'--'
p1541
sg13
g14
sg15
S'Steve Johnson'
p1542
sg17
S'2012'
p1543
sg19
g14
sg21
S'--'
p1544
sg23
S'09/09'
p1545
sg25
S'13.8'
p1546
sg27
S'--'
p1547
sg29
S'--'
p1548
sg31
S'L28-48'
p1549
sg33
S'55'
p1550
sg35
g239
sg37
S'@NYJ'
p1551
sg39
S'29T'
p1552
sg41
g14
sg42
S'--'
p1553
ssg186
(dp1554
g5
S'--'
p1555
sg7
S'--'
p1556
sg9
g14
sg11
S'--'
p1557
sg13
g14
sg15
S'Steve Johnson'
p1558
sg17
S'2012'
p1559
sg19
g186
sg21
S'--'
p1560
sg23
S'09/23'
p1561
sg25
S'8.7'
p1562
sg27
S'--'
p1563
sg29
S'--'
p1564
sg31
S'W24-14'
p1565
sg33
S'61'
p1566
sg35
g36
sg37
S'@CLE'
p1567
sg39
S'18'
p1568
sg41
g14
sg42
S'--'
p1569
ssg203
(dp1570
g5
S'--'
p1571
sg7
S'--'
p1572
sg9
g14
sg11
S'--'
p1573
sg13
g14
sg15
S'Steve Johnson'
p1574
sg17
S'2012'
p1575
sg19
g203
sg21
S'--'
p1576
sg23
S'09/16'
p1577
sg25
S'28.0'
p1578
sg27
S'--'
p1579
sg29
S'--'
p1580
sg31
S'W35-17'
p1581
sg33
S'56'
p1582
sg35
g203
sg37
S'KC'
p1583
sg39
S'49T'
p1584
sg41
g14
sg42
S'--'
p1585
ssg217
(dp1586
g5
S'--'
p1587
sg7
S'--'
p1588
sg9
g14
sg11
S'--'
p1589
sg13
g14
sg15
S'Steve Johnson'
p1590
sg17
S'2012'
p1591
sg19
g217
sg21
S'--'
p1592
sg23
S'10/07'
p1593
sg25
S'6.5'
p1594
sg27
S'--'
p1595
sg29
S'--'
p1596
sg31
S'L3-45'
p1597
sg33
S'39'
p1598
sg35
g182
sg37
S'@SF'
p1599
sg39
S'14'
p1600
sg41
g10
sg42
S'--'
p1601
ssg239
(dp1602
g5
S'--'
p1603
sg7
S'--'
p1604
sg9
g14
sg11
S'--'
p1605
sg13
g14
sg15
S'Steve Johnson'
p1606
sg17
S'2012'
p1607
sg19
g239
sg21
S'--'
p1608
sg23
S'09/30'
p1609
sg25
S'11.5'
p1610
sg27
S'--'
p1611
sg29
S'--'
p1612
sg31
S'L28-52'
p1613
sg33
S'23'
p1614
sg35
g203
sg37
S'NE'
p1615
sg39
S'16'
p1616
sg41
g10
sg42
S'--'
p1617
ssg36
(dp1618
g5
S'--'
p1619
sg7
S'--'
p1620
sg9
g14
sg11
S'--'
p1621
sg13
g14
sg15
S'Steve Johnson'
p1622
sg17
S'2012'
p1623
sg19
g36
sg21
S'--'
p1624
sg23
S'10/21'
p1625
sg25
S'14.2'
p1626
sg27
S'--'
p1627
sg29
S'--'
p1628
sg31
S'L34-35'
p1629
sg33
S'71'
p1630
sg35
g217
sg37
S'TEN'
p1631
sg39
S'27T'
p1632
sg41
g14
sg42
S'--'
p1633
ssg182
(dp1634
g5
S'--'
p1635
sg7
S'--'
p1636
sg9
g14
sg11
S'--'
p1637
sg13
g14
sg15
S'Steve Johnson'
p1638
sg17
S'2012'
p1639
sg19
g182
sg21
S'--'
p1640
sg23
S'10/14'
p1641
sg25
S'13.7'
p1642
sg27
S'--'
p1643
sg29
S'--'
p1644
sg31
S'W19-16'
p1645
sg33
S'82'
p1646
sg35
g182
sg37
S'@ARI'
p1647
sg39
S'23'
p1648
sg41
g10
sg42
S'--'
p1649
ssg288
(dp1650
g5
S'--'
p1651
sg7
S'--'
p1652
sg9
g14
sg11
S'--'
p1653
sg13
g14
sg15
S'Steve Johnson'
p1654
sg17
S'2012'
p1655
sg19
g288
sg21
S'--'
p1656
sg23
S'11/04'
p1657
sg25
S'9.7'
p1658
sg27
S'--'
p1659
sg29
S'--'
p1660
sg31
S'L9-21'
p1661
sg33
S'29'
p1662
sg35
g186
sg37
S'@HOU'
p1663
sg39
S'14'
p1664
sg41
g10
sg42
S'--'
p1665
ssg305
(dp1666
g5
g46
sg7
g46
sg9
g46
sg11
g46
sg13
g46
sg15
S'Steve Johnson'
p1667
sg17
S'2012'
p1668
sg19
g305
sg21
g46
sg23
S'Bye'
p1669
sg25
g46
sg27
g46
sg29
g46
sg31
g46
sg33
g46
sg35
g46
sg37
g46
sg39
g46
sg41
g46
sg42
g46
sss.