(dp0
S'2015'
p1
(dp2
S'11'
p3
(dp4
S'RushTD'
p5
S''
p6
sS'RushYds'
p7
g6
sS'GS'
p8
g6
sS'Lost'
p9
g6
sS'G'
p10
g6
sS'Player'
p11
S'T.J. Graham'
p12
sS'Year'
p13
S'2015'
p14
sS'WK'
p15
S'11'
p16
sS'RushAvg'
p17
g6
sS'Game Date'
p18
S'Bye'
p19
sS'RecAvg'
p20
g6
sS'FUM'
p21
g6
sS'RushAtt'
p22
g6
sS'Result'
p23
g6
sS'RecYds'
p24
g6
sS'Rec'
p25
g6
sS'Opp'
p26
g6
sS'RecLng'
p27
g6
sS'RecTD'
p28
g6
sS'RushLng'
p29
g6
ssS'10'
p30
(dp31
g5
S'--'
p32
sg7
S'--'
p33
sg8
S'1'
p34
sg9
S'--'
p35
sg10
g34
sg11
S'T.J. Graham'
p36
sg13
S'2015'
p37
sg15
S'10'
p38
sg17
S'--'
p39
sg18
S'11/15'
p40
sg20
S'12.5'
p41
sg21
S'--'
p42
sg22
S'--'
p43
sg23
S'L14-47'
p44
sg24
S'25'
p45
sg25
S'2'
p46
sg26
S'@WAS'
p47
sg27
S'18'
p48
sg28
S'0'
p49
sg29
S'--'
p50
ssS'13'
p51
(dp52
g5
S'--'
p53
sg7
S'--'
p54
sg8
g49
sg9
S'--'
p55
sg10
g34
sg11
S'T.J. Graham'
p56
sg13
S'2015'
p57
sg15
S'13'
p58
sg17
S'--'
p59
sg18
S'12/06'
p60
sg20
S'0.0'
p61
sg21
S'--'
p62
sg22
S'--'
p63
sg23
S'L38-41'
p64
sg24
g49
sg25
g34
sg26
S'CAR'
p65
sg27
g49
sg28
g49
sg29
S'--'
p66
ssS'12'
p67
(dp68
g5
S'--'
p69
sg7
S'--'
p70
sg8
g49
sg9
S'--'
p71
sg10
g34
sg11
S'T.J. Graham'
p72
sg13
S'2015'
p73
sg15
S'12'
p74
sg17
S'--'
p75
sg18
S'11/29'
p76
sg20
S'-1.0'
p77
sg21
S'--'
p78
sg22
S'--'
p79
sg23
S'L6-24'
p80
sg24
S'-1'
p81
sg25
g34
sg26
S'@HOU'
p82
sg27
S'-1'
p83
sg28
g49
sg29
S'--'
p84
ssS'15'
p85
(dp86
g5
S'--'
p87
sg7
S'--'
p88
sg8
g49
sg9
S'--'
p89
sg10
g49
sg11
S'T.J. Graham'
p90
sg13
S'2015'
p91
sg15
S'15'
p92
sg17
S'--'
p93
sg18
S'12/21'
p94
sg20
S'--'
p95
sg21
S'--'
p96
sg22
S'--'
p97
sg23
S'L27-35'
p98
sg24
S'--'
p99
sg25
S'--'
p100
sg26
S'DET'
p101
sg27
S'--'
p102
sg28
S'--'
p103
sg29
S'--'
p104
ssS'14'
p105
(dp106
g5
S'--'
p107
sg7
S'--'
p108
sg8
g49
sg9
S'--'
p109
sg10
g49
sg11
S'T.J. Graham'
p110
sg13
S'2015'
p111
sg15
S'14'
p112
sg17
S'--'
p113
sg18
S'12/13'
p114
sg20
S'--'
p115
sg21
S'--'
p116
sg22
S'--'
p117
sg23
S'W24-17'
p118
sg24
S'--'
p119
sg25
S'--'
p120
sg26
S'@TB'
p121
sg27
S'--'
p122
sg28
S'--'
p123
sg29
S'--'
p124
ssS'9'
p125
(dp126
g5
S'--'
p127
sg7
S'--'
p128
sg8
g49
sg9
S'--'
p129
sg10
g34
sg11
S'T.J. Graham'
p130
sg13
S'2015'
p131
sg15
g125
sg17
S'--'
p132
sg18
S'11/08'
p133
sg20
S'--'
p134
sg21
S'--'
p135
sg22
S'--'
p136
sg23
S'L28-34'
p137
sg24
S'--'
p138
sg25
S'--'
p139
sg26
S'TEN'
p140
sg27
S'--'
p141
sg28
S'--'
p142
sg29
S'--'
p143
sssS'2014'
p144
(dp145
g3
(dp146
g5
g6
sg7
g6
sg8
g6
sg9
g6
sg10
g6
sg11
S'T.J. Graham'
p147
sg13
S'2014'
p148
sg15
S'11'
p149
sg17
g6
sg18
S'Bye'
p150
sg20
g6
sg21
g6
sg22
g6
sg23
g6
sg24
g6
sg25
g6
sg26
g6
sg27
g6
sg28
g6
sg29
g6
ssg30
(dp151
g5
S'--'
p152
sg7
S'--'
p153
sg8
g49
sg9
S'--'
p154
sg10
g34
sg11
S'T.J. Graham'
p155
sg13
S'2014'
p156
sg15
S'10'
p157
sg17
S'--'
p158
sg18
S'11/09'
p159
sg20
S'67.0'
p160
sg21
S'--'
p161
sg22
S'--'
p162
sg23
S'W20-13'
p163
sg24
S'67'
p164
sg25
g34
sg26
S'PIT'
p165
sg27
S'67T'
p166
sg28
g34
sg29
S'--'
p167
ssg51
(dp168
g5
S'--'
p169
sg7
S'--'
p170
sg8
g49
sg9
S'--'
p171
sg10
g34
sg11
S'T.J. Graham'
p172
sg13
S'2014'
p173
sg15
S'13'
p174
sg17
S'--'
p175
sg18
S'12/01'
p176
sg20
S'--'
p177
sg21
S'--'
p178
sg22
S'--'
p179
sg23
S'L13-16'
p180
sg24
S'--'
p181
sg25
S'--'
p182
sg26
S'MIA'
p183
sg27
S'--'
p184
sg28
S'--'
p185
sg29
S'--'
p186
ssg67
(dp187
g5
S'--'
p188
sg7
S'--'
p189
sg8
g49
sg9
S'--'
p190
sg10
g34
sg11
S'T.J. Graham'
p191
sg13
S'2014'
p192
sg15
S'12'
p193
sg17
S'--'
p194
sg18
S'11/24'
p195
sg20
S'--'
p196
sg21
S'--'
p197
sg22
S'--'
p198
sg23
S'L3-38'
p199
sg24
S'--'
p200
sg25
S'--'
p201
sg26
S'@BUF'
p202
sg27
S'--'
p203
sg28
S'--'
p204
sg29
S'--'
p205
ssg85
(dp206
g5
S'--'
p207
sg7
S'--'
p208
sg8
g49
sg9
S'--'
p209
sg10
g34
sg11
S'T.J. Graham'
p210
sg13
S'2014'
p211
sg15
S'15'
p212
sg17
S'--'
p213
sg18
S'12/14'
p214
sg20
S'9.0'
p215
sg21
S'--'
p216
sg22
S'--'
p217
sg23
S'W16-11'
p218
sg24
g125
sg25
g34
sg26
S'@TEN'
p219
sg27
g125
sg28
g49
sg29
S'--'
p220
ssg105
(dp221
g5
S'--'
p222
sg7
S'--'
p223
sg8
g49
sg9
S'--'
p224
sg10
g34
sg11
S'T.J. Graham'
p225
sg13
S'2014'
p226
sg15
S'14'
p227
sg17
S'--'
p228
sg18
S'12/07'
p229
sg20
S'--'
p230
sg21
S'--'
p231
sg22
S'--'
p232
sg23
S'L24-30'
p233
sg24
g49
sg25
g49
sg26
S'@MIN'
p234
sg27
S'--'
p235
sg28
g49
sg29
S'--'
p236
ssS'17'
p237
(dp238
g5
S'--'
p239
sg7
S'--'
p240
sg8
g49
sg9
S'--'
p241
sg10
g34
sg11
S'T.J. Graham'
p242
sg13
S'2014'
p243
sg15
S'17'
p244
sg17
S'--'
p245
sg18
S'12/28'
p246
sg20
S'--'
p247
sg21
S'--'
p248
sg22
S'--'
p249
sg23
S'W37-24'
p250
sg24
S'--'
p251
sg25
S'--'
p252
sg26
S'@MIA'
p253
sg27
S'--'
p254
sg28
S'--'
p255
sg29
S'--'
p256
ssS'16'
p257
(dp258
g5
S'--'
p259
sg7
S'--'
p260
sg8
g49
sg9
S'--'
p261
sg10
g34
sg11
S'T.J. Graham'
p262
sg13
S'2014'
p263
sg15
S'16'
p264
sg17
S'--'
p265
sg18
S'12/21'
p266
sg20
S'--'
p267
sg21
S'--'
p268
sg22
S'--'
p269
sg23
S'L16-17'
p270
sg24
S'--'
p271
sg25
S'--'
p272
sg26
S'NE'
p273
sg27
S'--'
p274
sg28
S'--'
p275
sg29
S'--'
p276
ssg34
(dp277
g5
S'--'
p278
sg7
S'--'
p279
sg8
g49
sg9
S'--'
p280
sg10
g49
sg11
S'T.J. Graham'
p281
sg13
S'2014'
p282
sg15
g34
sg17
S'--'
p283
sg18
S'09/07'
p284
sg20
S'--'
p285
sg21
S'--'
p286
sg22
S'--'
p287
sg23
S'W26-10'
p288
sg24
S'--'
p289
sg25
S'--'
p290
sg26
S'@KC'
p291
sg27
S'--'
p292
sg28
S'--'
p293
sg29
S'--'
p294
ssS'3'
p295
(dp296
g5
S'--'
p297
sg7
S'--'
p298
sg8
g49
sg9
S'--'
p299
sg10
g49
sg11
S'T.J. Graham'
p300
sg13
S'2014'
p301
sg15
g295
sg17
S'--'
p302
sg18
S'09/21'
p303
sg20
S'--'
p304
sg21
S'--'
p305
sg22
S'--'
p306
sg23
S'L7-33'
p307
sg24
S'--'
p308
sg25
S'--'
p309
sg26
S'@CIN'
p310
sg27
S'--'
p311
sg28
S'--'
p312
sg29
S'--'
p313
ssg46
(dp314
g5
S'--'
p315
sg7
S'--'
p316
sg8
g49
sg9
S'--'
p317
sg10
g49
sg11
S'T.J. Graham'
p318
sg13
S'2014'
p319
sg15
g46
sg17
S'--'
p320
sg18
S'09/14'
p321
sg20
S'--'
p322
sg21
S'--'
p323
sg22
S'--'
p324
sg23
S'L10-26'
p325
sg24
S'--'
p326
sg25
S'--'
p327
sg26
S'DAL'
p328
sg27
S'--'
p329
sg28
S'--'
p330
sg29
S'--'
p331
ssS'5'
p332
(dp333
g5
S'--'
p334
sg7
S'--'
p335
sg8
g49
sg9
S'--'
p336
sg10
g34
sg11
S'T.J. Graham'
p337
sg13
S'2014'
p338
sg15
g332
sg17
S'--'
p339
sg18
S'10/05'
p340
sg20
S'--'
p341
sg21
S'--'
p342
sg22
S'--'
p343
sg23
S'L0-31'
p344
sg24
g49
sg25
g49
sg26
S'@SD'
p345
sg27
S'--'
p346
sg28
g49
sg29
S'--'
p347
ssS'7'
p348
(dp349
g5
S'--'
p350
sg7
S'--'
p351
sg8
g49
sg9
S'--'
p352
sg10
g34
sg11
S'T.J. Graham'
p353
sg13
S'2014'
p354
sg15
g348
sg17
S'--'
p355
sg18
S'10/16'
p356
sg20
S'--'
p357
sg21
S'--'
p358
sg22
S'--'
p359
sg23
S'L25-27'
p360
sg24
g49
sg25
g49
sg26
S'@NE'
p361
sg27
S'--'
p362
sg28
g49
sg29
S'--'
p363
ssS'6'
p364
(dp365
g5
S'--'
p366
sg7
S'--'
p367
sg8
g49
sg9
S'--'
p368
sg10
g34
sg11
S'T.J. Graham'
p369
sg13
S'2014'
p370
sg15
g364
sg17
S'--'
p371
sg18
S'10/12'
p372
sg20
S'11.0'
p373
sg21
S'--'
p374
sg22
S'--'
p375
sg23
S'L17-31'
p376
sg24
S'11'
p377
sg25
g34
sg26
S'DEN'
p378
sg27
S'11'
p379
sg28
g49
sg29
S'--'
p380
ssg125
(dp381
g5
S'--'
p382
sg7
S'--'
p383
sg8
g49
sg9
S'--'
p384
sg10
g34
sg11
S'T.J. Graham'
p385
sg13
S'2014'
p386
sg15
g125
sg17
S'--'
p387
sg18
S'11/02'
p388
sg20
S'--'
p389
sg21
S'--'
p390
sg22
S'--'
p391
sg23
S'L10-24'
p392
sg24
S'--'
p393
sg25
S'--'
p394
sg26
S'@KC'
p395
sg27
S'--'
p396
sg28
S'--'
p397
sg29
S'--'
p398
ssS'8'
p399
(dp400
g5
S'--'
p401
sg7
S'--'
p402
sg8
g49
sg9
S'--'
p403
sg10
g34
sg11
S'T.J. Graham'
p404
sg13
S'2014'
p405
sg15
g399
sg17
S'--'
p406
sg18
S'10/26'
p407
sg20
S'--'
p408
sg21
S'--'
p409
sg22
S'--'
p410
sg23
S'L23-43'
p411
sg24
g49
sg25
g49
sg26
S'BUF'
p412
sg27
S'--'
p413
sg28
g49
sg29
S'--'
p414
sssS'2013'
p415
(dp416
g3
(dp417
g5
g49
sg7
S'-3'
p418
sg8
g34
sg9
S'--'
p419
sg10
g34
sg11
S'T.J. Graham'
p420
sg13
S'2013'
p421
sg15
S'11'
p422
sg17
S'-3.0'
p423
sg18
S'11/17'
p424
sg20
S'37.0'
p425
sg21
S'--'
p426
sg22
g34
sg23
S'W37-14'
p427
sg24
S'74'
p428
sg25
g46
sg26
S'NYJ'
p429
sg27
S'40'
p430
sg28
g34
sg29
S'-3'
p431
ssg30
(dp432
g5
S'--'
p433
sg7
S'--'
p434
sg8
g34
sg9
S'--'
p435
sg10
g34
sg11
S'T.J. Graham'
p436
sg13
S'2013'
p437
sg15
S'10'
p438
sg17
S'--'
p439
sg18
S'11/10'
p440
sg20
S'5.0'
p441
sg21
S'--'
p442
sg22
S'--'
p443
sg23
S'L10-23'
p444
sg24
g332
sg25
g34
sg26
S'@PIT'
p445
sg27
g332
sg28
g49
sg29
S'--'
p446
ssg51
(dp447
g5
S'--'
p448
sg7
S'--'
p449
sg8
g49
sg9
S'--'
p450
sg10
g34
sg11
S'T.J. Graham'
p451
sg13
S'2013'
p452
sg15
S'13'
p453
sg17
S'--'
p454
sg18
S'12/01'
p455
sg20
S'--'
p456
sg21
S'--'
p457
sg22
S'--'
p458
sg23
S'L31-34'
p459
sg24
g49
sg25
g49
sg26
S'ATL'
p460
sg27
S'--'
p461
sg28
g49
sg29
S'--'
p462
ssg67
(dp463
g5
g6
sg7
g6
sg8
g6
sg9
g6
sg10
g6
sg11
S'T.J. Graham'
p464
sg13
S'2013'
p465
sg15
S'12'
p466
sg17
g6
sg18
S'Bye'
p467
sg20
g6
sg21
g6
sg22
g6
sg23
g6
sg24
g6
sg25
g6
sg26
g6
sg27
g6
sg28
g6
sg29
g6
ssg85
(dp468
g5
S'--'
p469
sg7
S'--'
p470
sg8
g49
sg9
S'--'
p471
sg10
g34
sg11
S'T.J. Graham'
p472
sg13
S'2013'
p473
sg15
S'15'
p474
sg17
S'--'
p475
sg18
S'12/15'
p476
sg20
S'--'
p477
sg21
S'--'
p478
sg22
S'--'
p479
sg23
S'W27-20'
p480
sg24
g49
sg25
g49
sg26
S'@JAC'
p481
sg27
S'--'
p482
sg28
g49
sg29
S'--'
p483
ssg105
(dp484
g5
S'--'
p485
sg7
S'--'
p486
sg8
g49
sg9
S'--'
p487
sg10
g34
sg11
S'T.J. Graham'
p488
sg13
S'2013'
p489
sg15
S'14'
p490
sg17
S'--'
p491
sg18
S'12/08'
p492
sg20
S'--'
p493
sg21
S'--'
p494
sg22
S'--'
p495
sg23
S'L6-27'
p496
sg24
g49
sg25
g49
sg26
S'@TB'
p497
sg27
S'--'
p498
sg28
g49
sg29
S'--'
p499
ssg237
(dp500
g5
S'--'
p501
sg7
S'--'
p502
sg8
g34
sg9
S'--'
p503
sg10
g34
sg11
S'T.J. Graham'
p504
sg13
S'2013'
p505
sg15
S'17'
p506
sg17
S'--'
p507
sg18
S'12/29'
p508
sg20
S'20.7'
p509
sg21
S'--'
p510
sg22
S'--'
p511
sg23
S'L20-34'
p512
sg24
S'62'
p513
sg25
g295
sg26
S'@NE'
p514
sg27
S'41'
p515
sg28
g34
sg29
S'--'
p516
ssg257
(dp517
g5
g49
sg7
S'-2'
p518
sg8
g34
sg9
S'--'
p519
sg10
g34
sg11
S'T.J. Graham'
p520
sg13
S'2013'
p521
sg15
S'16'
p522
sg17
S'-2.0'
p523
sg18
S'12/22'
p524
sg20
S'13.5'
p525
sg21
S'--'
p526
sg22
g34
sg23
S'W19-0'
p527
sg24
S'27'
p528
sg25
g46
sg26
S'MIA'
p529
sg27
S'14'
p530
sg28
g49
sg29
S'-2'
p531
ssg34
(dp532
g5
g49
sg7
g332
sg8
g34
sg9
S'--'
p533
sg10
g34
sg11
S'T.J. Graham'
p534
sg13
S'2013'
p535
sg15
g34
sg17
S'5.0'
p536
sg18
S'09/08'
p537
sg20
S'--'
p538
sg21
S'--'
p539
sg22
g34
sg23
S'L21-23'
p540
sg24
g49
sg25
g49
sg26
S'NE'
p541
sg27
S'--'
p542
sg28
g49
sg29
g332
ssg295
(dp543
g5
S'--'
p544
sg7
S'--'
p545
sg8
g49
sg9
S'--'
p546
sg10
g34
sg11
S'T.J. Graham'
p547
sg13
S'2013'
p548
sg15
g295
sg17
S'--'
p549
sg18
S'09/22'
p550
sg20
S'5.0'
p551
sg21
S'--'
p552
sg22
S'--'
p553
sg23
S'L20-27'
p554
sg24
g332
sg25
g34
sg26
S'@NYJ'
p555
sg27
g332
sg28
g49
sg29
S'--'
p556
ssg46
(dp557
g5
S'--'
p558
sg7
S'--'
p559
sg8
g49
sg9
S'--'
p560
sg10
g34
sg11
S'T.J. Graham'
p561
sg13
S'2013'
p562
sg15
g46
sg17
S'--'
p563
sg18
S'09/15'
p564
sg20
S'8.0'
p565
sg21
S'--'
p566
sg22
S'--'
p567
sg23
S'W24-23'
p568
sg24
g399
sg25
g34
sg26
S'CAR'
p569
sg27
g399
sg28
g49
sg29
S'--'
p570
ssg332
(dp571
g5
S'--'
p572
sg7
S'--'
p573
sg8
g49
sg9
S'--'
p574
sg10
g34
sg11
S'T.J. Graham'
p575
sg13
S'2013'
p576
sg15
g332
sg17
S'--'
p577
sg18
S'10/03'
p578
sg20
S'10.5'
p579
sg21
S'--'
p580
sg22
S'--'
p581
sg23
S'L24-37'
p582
sg24
S'21'
p583
sg25
g46
sg26
S'@CLE'
p584
sg27
S'12'
p585
sg28
g49
sg29
S'--'
p586
ssS'4'
p587
(dp588
g5
g49
sg7
S'14'
p589
sg8
g49
sg9
S'--'
p590
sg10
g34
sg11
S'T.J. Graham'
p591
sg13
S'2013'
p592
sg15
g587
sg17
S'14.0'
p593
sg18
S'09/29'
p594
sg20
S'16.0'
p595
sg21
S'--'
p596
sg22
g34
sg23
S'W23-20'
p597
sg24
S'32'
p598
sg25
g46
sg26
S'BAL'
p599
sg27
S'26'
p600
sg28
g49
sg29
S'14'
p601
ssg348
(dp602
g5
S'--'
p603
sg7
S'--'
p604
sg8
g49
sg9
S'--'
p605
sg10
g34
sg11
S'T.J. Graham'
p606
sg13
S'2013'
p607
sg15
g348
sg17
S'--'
p608
sg18
S'10/20'
p609
sg20
S'18.0'
p610
sg21
S'--'
p611
sg22
S'--'
p612
sg23
S'W23-21'
p613
sg24
S'36'
p614
sg25
g46
sg26
S'@MIA'
p615
sg27
S'30'
p616
sg28
g49
sg29
S'--'
p617
ssg364
(dp618
g5
S'--'
p619
sg7
S'--'
p620
sg8
g34
sg9
S'--'
p621
sg10
g34
sg11
S'T.J. Graham'
p622
sg13
S'2013'
p623
sg15
g364
sg17
S'--'
p624
sg18
S'10/13'
p625
sg20
S'18.5'
p626
sg21
S'--'
p627
sg22
S'--'
p628
sg23
S'L24-27'
p629
sg24
S'74'
p630
sg25
g587
sg26
S'CIN'
p631
sg27
S'47'
p632
sg28
g49
sg29
S'--'
p633
ssg125
(dp634
g5
S'--'
p635
sg7
S'--'
p636
sg8
g49
sg9
g34
sg10
g34
sg11
S'T.J. Graham'
p637
sg13
S'2013'
p638
sg15
g125
sg17
S'--'
p639
sg18
S'11/03'
p640
sg20
S'-2.0'
p641
sg21
g34
sg22
S'--'
p642
sg23
S'L13-23'
p643
sg24
S'-2'
p644
sg25
g34
sg26
S'KC'
p645
sg27
S'-2'
p646
sg28
g49
sg29
S'--'
p647
ssg399
(dp648
g5
S'--'
p649
sg7
S'--'
p650
sg8
g49
sg9
S'--'
p651
sg10
g34
sg11
S'T.J. Graham'
p652
sg13
S'2013'
p653
sg15
g399
sg17
S'--'
p654
sg18
S'10/27'
p655
sg20
S'9.5'
p656
sg21
S'--'
p657
sg22
S'--'
p658
sg23
S'L17-35'
p659
sg24
S'19'
p660
sg25
g46
sg26
S'@NO'
p661
sg27
S'14'
p662
sg28
g49
sg29
S'--'
p663
sssS'2012'
p664
(dp665
g3
(dp666
g5
S'--'
p667
sg7
S'--'
p668
sg8
g34
sg9
S'--'
p669
sg10
g34
sg11
S'T.J. Graham'
p670
sg13
S'2012'
p671
sg15
S'11'
p672
sg17
S'--'
p673
sg18
S'11/15'
p674
sg20
S'2.5'
p675
sg21
S'--'
p676
sg22
S'--'
p677
sg23
S'W19-14'
p678
sg24
g332
sg25
g46
sg26
S'MIA'
p679
sg27
g295
sg28
g49
sg29
S'--'
p680
ssg30
(dp681
g5
S'--'
p682
sg7
S'--'
p683
sg8
g34
sg9
S'--'
p684
sg10
g34
sg11
S'T.J. Graham'
p685
sg13
S'2012'
p686
sg15
S'10'
p687
sg17
S'--'
p688
sg18
S'11/11'
p689
sg20
S'11.0'
p690
sg21
S'--'
p691
sg22
S'--'
p692
sg23
S'L31-37'
p693
sg24
S'11'
p694
sg25
g34
sg26
S'@NE'
p695
sg27
S'11'
p696
sg28
g49
sg29
S'--'
p697
ssg51
(dp698
g5
S'--'
p699
sg7
S'--'
p700
sg8
g34
sg9
S'--'
p701
sg10
g34
sg11
S'T.J. Graham'
p702
sg13
S'2012'
p703
sg15
S'13'
p704
sg17
S'--'
p705
sg18
S'12/02'
p706
sg20
S'27.0'
p707
sg21
S'--'
p708
sg22
S'--'
p709
sg23
S'W34-18'
p710
sg24
S'54'
p711
sg25
g46
sg26
S'JAC'
p712
sg27
S'51'
p713
sg28
g49
sg29
S'--'
p714
ssg67
(dp715
g5
S'--'
p716
sg7
S'--'
p717
sg8
g49
sg9
S'--'
p718
sg10
g34
sg11
S'T.J. Graham'
p719
sg13
S'2012'
p720
sg15
S'12'
p721
sg17
S'--'
p722
sg18
S'11/25'
p723
sg20
S'12.0'
p724
sg21
S'--'
p725
sg22
S'--'
p726
sg23
S'L13-20'
p727
sg24
S'24'
p728
sg25
g46
sg26
S'@IND'
p729
sg27
S'24'
p730
sg28
g49
sg29
S'--'
p731
ssg85
(dp732
g5
S'--'
p733
sg7
S'--'
p734
sg8
g34
sg9
S'--'
p735
sg10
g34
sg11
S'T.J. Graham'
p736
sg13
S'2012'
p737
sg15
S'15'
p738
sg17
S'--'
p739
sg18
S'12/16'
p740
sg20
S'10.7'
p741
sg21
S'--'
p742
sg22
S'--'
p743
sg23
S'L17-50'
p744
sg24
S'32'
p745
sg25
g295
sg26
S'SEA'
p746
sg27
S'15'
p747
sg28
g49
sg29
S'--'
p748
ssg105
(dp749
g5
g49
sg7
g332
sg8
g49
sg9
S'--'
p750
sg10
g34
sg11
S'T.J. Graham'
p751
sg13
S'2012'
p752
sg15
S'14'
p753
sg17
S'5.0'
p754
sg18
S'12/09'
p755
sg20
S'11.0'
p756
sg21
S'--'
p757
sg22
g34
sg23
S'L12-15'
p758
sg24
S'33'
p759
sg25
g295
sg26
S'STL'
p760
sg27
S'16'
p761
sg28
g49
sg29
g332
ssg237
(dp762
g5
S'--'
p763
sg7
S'--'
p764
sg8
g34
sg9
S'--'
p765
sg10
g34
sg11
S'T.J. Graham'
p766
sg13
S'2012'
p767
sg15
S'17'
p768
sg17
S'--'
p769
sg18
S'12/30'
p770
sg20
S'5.0'
p771
sg21
S'--'
p772
sg22
S'--'
p773
sg23
S'W28-9'
p774
sg24
g332
sg25
g34
sg26
S'NYJ'
p775
sg27
g332
sg28
g49
sg29
S'--'
p776
ssg257
(dp777
g5
S'--'
p778
sg7
S'--'
p779
sg8
g34
sg9
S'--'
p780
sg10
g34
sg11
S'T.J. Graham'
p781
sg13
S'2012'
p782
sg15
S'16'
p783
sg17
S'--'
p784
sg18
S'12/23'
p785
sg20
S'16.3'
p786
sg21
S'--'
p787
sg22
S'--'
p788
sg23
S'L10-24'
p789
sg24
S'49'
p790
sg25
g295
sg26
S'@MIA'
p791
sg27
S'41'
p792
sg28
g49
sg29
S'--'
p793
ssg34
(dp794
g5
S'--'
p795
sg7
S'--'
p796
sg8
g49
sg9
S'--'
p797
sg10
g49
sg11
S'T.J. Graham'
p798
sg13
S'2012'
p799
sg15
g34
sg17
S'--'
p800
sg18
S'09/09'
p801
sg20
S'--'
p802
sg21
S'--'
p803
sg22
S'--'
p804
sg23
S'L28-48'
p805
sg24
S'--'
p806
sg25
S'--'
p807
sg26
S'@NYJ'
p808
sg27
S'--'
p809
sg28
S'--'
p810
sg29
S'--'
p811
ssg295
(dp812
g5
S'--'
p813
sg7
S'--'
p814
sg8
g49
sg9
S'--'
p815
sg10
g34
sg11
S'T.J. Graham'
p816
sg13
S'2012'
p817
sg15
g295
sg17
S'--'
p818
sg18
S'09/23'
p819
sg20
S'8.0'
p820
sg21
S'--'
p821
sg22
S'--'
p822
sg23
S'W24-14'
p823
sg24
S'24'
p824
sg25
g295
sg26
S'@CLE'
p825
sg27
S'9T'
p826
sg28
g34
sg29
S'--'
p827
ssg46
(dp828
g5
S'--'
p829
sg7
S'--'
p830
sg8
g49
sg9
S'--'
p831
sg10
g34
sg11
S'T.J. Graham'
p832
sg13
S'2012'
p833
sg15
g46
sg17
S'--'
p834
sg18
S'09/16'
p835
sg20
S'7.0'
p836
sg21
S'--'
p837
sg22
S'--'
p838
sg23
S'W35-17'
p839
sg24
g348
sg25
g34
sg26
S'KC'
p840
sg27
g348
sg28
g49
sg29
S'--'
p841
ssg332
(dp842
g5
S'--'
p843
sg7
S'--'
p844
sg8
g34
sg9
S'--'
p845
sg10
g34
sg11
S'T.J. Graham'
p846
sg13
S'2012'
p847
sg15
g332
sg17
S'--'
p848
sg18
S'10/07'
p849
sg20
S'14.0'
p850
sg21
S'--'
p851
sg22
S'--'
p852
sg23
S'L3-45'
p853
sg24
S'28'
p854
sg25
g46
sg26
S'@SF'
p855
sg27
S'19'
p856
sg28
g49
sg29
S'--'
p857
ssg587
(dp858
g5
S'--'
p859
sg7
S'--'
p860
sg8
g34
sg9
S'--'
p861
sg10
g34
sg11
S'T.J. Graham'
p862
sg13
S'2012'
p863
sg15
g587
sg17
S'--'
p864
sg18
S'09/30'
p865
sg20
S'8.5'
p866
sg21
S'--'
p867
sg22
S'--'
p868
sg23
S'L28-52'
p869
sg24
S'34'
p870
sg25
g587
sg26
S'NE'
p871
sg27
S'10'
p872
sg28
g49
sg29
S'--'
p873
ssg348
(dp874
g5
S'--'
p875
sg7
S'--'
p876
sg8
g34
sg9
S'--'
p877
sg10
g34
sg11
S'T.J. Graham'
p878
sg13
S'2012'
p879
sg15
g348
sg17
S'--'
p880
sg18
S'10/21'
p881
sg20
S'6.0'
p882
sg21
S'--'
p883
sg22
S'--'
p884
sg23
S'L34-35'
p885
sg24
g364
sg25
g34
sg26
S'TEN'
p886
sg27
g364
sg28
g49
sg29
S'--'
p887
ssg364
(dp888
g5
S'--'
p889
sg7
S'--'
p890
sg8
g34
sg9
S'--'
p891
sg10
g34
sg11
S'T.J. Graham'
p892
sg13
S'2012'
p893
sg15
g364
sg17
S'--'
p894
sg18
S'10/14'
p895
sg20
S'6.0'
p896
sg21
S'--'
p897
sg22
S'--'
p898
sg23
S'W19-16'
p899
sg24
g364
sg25
g34
sg26
S'@ARI'
p900
sg27
g364
sg28
g49
sg29
S'--'
p901
ssg125
(dp902
g5
S'--'
p903
sg7
S'--'
p904
sg8
g34
sg9
S'--'
p905
sg10
g34
sg11
S'T.J. Graham'
p906
sg13
S'2012'
p907
sg15
g125
sg17
S'--'
p908
sg18
S'11/04'
p909
sg20
S'2.0'
p910
sg21
S'--'
p911
sg22
S'--'
p912
sg23
S'L9-21'
p913
sg24
g587
sg25
g46
sg26
S'@HOU'
p914
sg27
g332
sg28
g49
sg29
S'--'
p915
ssg399
(dp916
g5
g6
sg7
g6
sg8
g6
sg9
g6
sg10
g6
sg11
S'T.J. Graham'
p917
sg13
S'2012'
p918
sg15
g399
sg17
g6
sg18
S'Bye'
p919
sg20
g6
sg21
g6
sg22
g6
sg23
g6
sg24
g6
sg25
g6
sg26
g6
sg27
g6
sg28
g6
sg29
g6
sss.