(dp0
S'2015'
p1
(dp2
S'11'
p3
(dp4
S'RushTD'
p5
S'--'
p6
sS'RushYds'
p7
S'--'
p8
sS'GS'
p9
S'0'
p10
sS'Lost'
p11
S'--'
p12
sS'G'
p13
g10
sS'Player'
p14
S'T.J. Jones'
p15
sS'Year'
p16
S'2015'
p17
sS'WK'
p18
S'11'
p19
sS'RushAvg'
p20
S'--'
p21
sS'Game Date'
p22
S'11/22'
p23
sS'RecAvg'
p24
S'--'
p25
sS'FUM'
p26
S'--'
p27
sS'RushAtt'
p28
S'--'
p29
sS'Result'
p30
S'W18-13'
p31
sS'RecYds'
p32
S'--'
p33
sS'Rec'
p34
S'--'
p35
sS'Opp'
p36
S'OAK'
p37
sS'RecLng'
p38
S'--'
p39
sS'RecTD'
p40
S'--'
p41
sS'RushLng'
p42
S'--'
p43
ssS'10'
p44
(dp45
g5
S'--'
p46
sg7
S'--'
p47
sg9
g10
sg11
S'--'
p48
sg13
g10
sg14
S'T.J. Jones'
p49
sg16
S'2015'
p50
sg18
S'10'
p51
sg20
S'--'
p52
sg22
S'11/15'
p53
sg24
S'--'
p54
sg26
S'--'
p55
sg28
S'--'
p56
sg30
S'W18-16'
p57
sg32
S'--'
p58
sg34
S'--'
p59
sg36
S'@GB'
p60
sg38
S'--'
p61
sg40
S'--'
p62
sg42
S'--'
p63
ssS'13'
p64
(dp65
g5
S'--'
p66
sg7
S'--'
p67
sg9
g10
sg11
S'--'
p68
sg13
S'1'
p69
sg14
S'T.J. Jones'
p70
sg16
S'2015'
p71
sg18
S'13'
p72
sg20
S'--'
p73
sg22
S'12/03'
p74
sg24
S'18.5'
p75
sg26
S'--'
p76
sg28
S'--'
p77
sg30
S'L23-27'
p78
sg32
S'37'
p79
sg34
S'2'
p80
sg36
S'GB'
p81
sg38
S'29'
p82
sg40
g10
sg42
S'--'
p83
ssS'12'
p84
(dp85
g5
S'--'
p86
sg7
S'--'
p87
sg9
g10
sg11
S'--'
p88
sg13
g10
sg14
S'T.J. Jones'
p89
sg16
S'2015'
p90
sg18
S'12'
p91
sg20
S'--'
p92
sg22
S'11/26'
p93
sg24
S'--'
p94
sg26
S'--'
p95
sg28
S'--'
p96
sg30
S'W45-14'
p97
sg32
S'--'
p98
sg34
S'--'
p99
sg36
S'PHI'
p100
sg38
S'--'
p101
sg40
S'--'
p102
sg42
S'--'
p103
ssS'15'
p104
(dp105
g5
S'--'
p106
sg7
S'--'
p107
sg9
g10
sg11
S'--'
p108
sg13
g69
sg14
S'T.J. Jones'
p109
sg16
S'2015'
p110
sg18
S'15'
p111
sg20
S'--'
p112
sg22
S'12/21'
p113
sg24
S'11.0'
p114
sg26
S'--'
p115
sg28
S'--'
p116
sg30
S'W35-27'
p117
sg32
S'22'
p118
sg34
g80
sg36
S'@NO'
p119
sg38
S'20'
p120
sg40
g10
sg42
S'--'
p121
ssS'14'
p122
(dp123
g5
S'--'
p124
sg7
S'--'
p125
sg9
g10
sg11
S'--'
p126
sg13
g69
sg14
S'T.J. Jones'
p127
sg16
S'2015'
p128
sg18
S'14'
p129
sg20
S'--'
p130
sg22
S'12/13'
p131
sg24
S'8.3'
p132
sg26
S'--'
p133
sg28
S'--'
p134
sg30
S'L14-21'
p135
sg32
S'33'
p136
sg34
S'4'
p137
sg36
S'@STL'
p138
sg38
S'15'
p139
sg40
g10
sg42
S'--'
p140
ssS'17'
p141
(dp142
g5
S'--'
p143
sg7
S'--'
p144
sg9
g10
sg11
S'--'
p145
sg13
g69
sg14
S'T.J. Jones'
p146
sg16
S'2015'
p147
sg18
S'17'
p148
sg20
S'--'
p149
sg22
S'01/03'
p150
sg24
S'--'
p151
sg26
S'--'
p152
sg28
S'--'
p153
sg30
S'W24-20'
p154
sg32
g10
sg34
g10
sg36
S'@CHI'
p155
sg38
S'--'
p156
sg40
g10
sg42
S'--'
p157
ssS'16'
p158
(dp159
g5
S'--'
p160
sg7
S'--'
p161
sg9
g10
sg11
S'--'
p162
sg13
g69
sg14
S'T.J. Jones'
p163
sg16
S'2015'
p164
sg18
S'16'
p165
sg20
S'--'
p166
sg22
S'12/27'
p167
sg24
S'29.0'
p168
sg26
S'--'
p169
sg28
S'--'
p170
sg30
S'W32-17'
p171
sg32
S'29'
p172
sg34
g69
sg36
S'SF'
p173
sg38
S'29T'
p174
sg40
g69
sg42
S'--'
p175
ssg69
(dp176
g5
S'--'
p177
sg7
S'--'
p178
sg9
g10
sg11
S'--'
p179
sg13
g10
sg14
S'T.J. Jones'
p180
sg16
S'2015'
p181
sg18
g69
sg20
S'--'
p182
sg22
S'09/13'
p183
sg24
S'--'
p184
sg26
S'--'
p185
sg28
S'--'
p186
sg30
S'L28-33'
p187
sg32
S'--'
p188
sg34
S'--'
p189
sg36
S'@SD'
p190
sg38
S'--'
p191
sg40
S'--'
p192
sg42
S'--'
p193
ssS'3'
p194
(dp195
g5
S'--'
p196
sg7
S'--'
p197
sg9
g10
sg11
S'--'
p198
sg13
g69
sg14
S'T.J. Jones'
p199
sg16
S'2015'
p200
sg18
g194
sg20
S'--'
p201
sg22
S'09/27'
p202
sg24
S'--'
p203
sg26
S'--'
p204
sg28
S'--'
p205
sg30
S'L12-24'
p206
sg32
S'--'
p207
sg34
S'--'
p208
sg36
S'DEN'
p209
sg38
S'--'
p210
sg40
S'--'
p211
sg42
S'--'
p212
ssg80
(dp213
g5
S'--'
p214
sg7
S'--'
p215
sg9
g10
sg11
S'--'
p216
sg13
g10
sg14
S'T.J. Jones'
p217
sg16
S'2015'
p218
sg18
g80
sg20
S'--'
p219
sg22
S'09/20'
p220
sg24
S'--'
p221
sg26
S'--'
p222
sg28
S'--'
p223
sg30
S'L16-26'
p224
sg32
S'--'
p225
sg34
S'--'
p226
sg36
S'@MIN'
p227
sg38
S'--'
p228
sg40
S'--'
p229
sg42
S'--'
p230
ssS'5'
p231
(dp232
g5
S'--'
p233
sg7
S'--'
p234
sg9
g10
sg11
S'--'
p235
sg13
g69
sg14
S'T.J. Jones'
p236
sg16
S'2015'
p237
sg18
g231
sg20
S'--'
p238
sg22
S'10/11'
p239
sg24
S'11.0'
p240
sg26
S'--'
p241
sg28
S'--'
p242
sg30
S'L17-42'
p243
sg32
S'11'
p244
sg34
g69
sg36
S'ARI'
p245
sg38
S'11'
p246
sg40
g10
sg42
S'--'
p247
ssg137
(dp248
g5
S'--'
p249
sg7
S'--'
p250
sg9
g10
sg11
g10
sg13
g69
sg14
S'T.J. Jones'
p251
sg16
S'2015'
p252
sg18
g137
sg20
S'--'
p253
sg22
S'10/05'
p254
sg24
S'--'
p255
sg26
g69
sg28
S'--'
p256
sg30
S'L10-13'
p257
sg32
S'--'
p258
sg34
S'--'
p259
sg36
S'@SEA'
p260
sg38
S'--'
p261
sg40
S'--'
p262
sg42
S'--'
p263
ssS'7'
p264
(dp265
g5
S'--'
p266
sg7
S'--'
p267
sg9
g10
sg11
S'--'
p268
sg13
g69
sg14
S'T.J. Jones'
p269
sg16
S'2015'
p270
sg18
g264
sg20
S'--'
p271
sg22
S'10/25'
p272
sg24
S'--'
p273
sg26
S'--'
p274
sg28
S'--'
p275
sg30
S'L19-28'
p276
sg32
S'--'
p277
sg34
S'--'
p278
sg36
S'MIN'
p279
sg38
S'--'
p280
sg40
S'--'
p281
sg42
S'--'
p282
ssS'6'
p283
(dp284
g5
g10
sg7
S'-3'
p285
sg9
g10
sg11
g69
sg13
g69
sg14
S'T.J. Jones'
p286
sg16
S'2015'
p287
sg18
g283
sg20
S'-3.0'
p288
sg22
S'10/18'
p289
sg24
S'--'
p290
sg26
g69
sg28
g69
sg30
S'W37-34'
p291
sg32
S'--'
p292
sg34
S'--'
p293
sg36
S'CHI'
p294
sg38
S'--'
p295
sg40
S'--'
p296
sg42
S'-3'
p297
ssS'9'
p298
(dp299
g5
S''
p300
sg7
g300
sg9
g300
sg11
g300
sg13
g300
sg14
S'T.J. Jones'
p301
sg16
S'2015'
p302
sg18
g298
sg20
g300
sg22
S'Bye'
p303
sg24
g300
sg26
g300
sg28
g300
sg30
g300
sg32
g300
sg34
g300
sg36
g300
sg38
g300
sg40
g300
sg42
g300
ssS'8'
p304
(dp305
g5
S'--'
p306
sg7
S'--'
p307
sg9
g10
sg11
S'--'
p308
sg13
g10
sg14
S'T.J. Jones'
p309
sg16
S'2015'
p310
sg18
g304
sg20
S'--'
p311
sg22
S'11/01'
p312
sg24
S'--'
p313
sg26
S'--'
p314
sg28
S'--'
p315
sg30
S'L10-45'
p316
sg32
S'--'
p317
sg34
S'--'
p318
sg36
S'@KC'
p319
sg38
S'--'
p320
sg40
S'--'
p321
sg42
S'--'
p322
sss.