(dp0
S'2015'
p1
(dp2
S'11'
p3
(dp4
S'RushTD'
p5
S'--'
p6
sS'RushYds'
p7
S'--'
p8
sS'GS'
p9
S'0'
p10
sS'Lost'
p11
S'--'
p12
sS'G'
p13
S'1'
p14
sS'Player'
p15
S'T.Y. Hilton'
p16
sS'Year'
p17
S'2015'
p18
sS'WK'
p19
S'11'
p20
sS'RushAvg'
p21
S'--'
p22
sS'Game Date'
p23
S'11/22'
p24
sS'RecAvg'
p25
S'10.5'
p26
sS'FUM'
p27
S'--'
p28
sS'RushAtt'
p29
S'--'
p30
sS'Result'
p31
S'W24-21'
p32
sS'RecYds'
p33
S'21'
p34
sS'Rec'
p35
S'2'
p36
sS'Opp'
p37
S'@ATL'
p38
sS'RecLng'
p39
S'15'
p40
sS'RecTD'
p41
g10
sS'RushLng'
p42
S'--'
p43
ssS'10'
p44
(dp45
g5
S''
p46
sg7
g46
sg9
g46
sg11
g46
sg13
g46
sg15
S'T.Y. Hilton'
p47
sg17
S'2015'
p48
sg19
S'10'
p49
sg21
g46
sg23
S'Bye'
p50
sg25
g46
sg27
g46
sg29
g46
sg31
g46
sg33
g46
sg35
g46
sg37
g46
sg39
g46
sg41
g46
sg42
g46
ssS'13'
p51
(dp52
g5
S'--'
p53
sg7
S'--'
p54
sg9
g14
sg11
S'--'
p55
sg13
g14
sg15
S'T.Y. Hilton'
p56
sg17
S'2015'
p57
sg19
S'13'
p58
sg21
S'--'
p59
sg23
S'12/06'
p60
sg25
S'12.0'
p61
sg27
S'--'
p62
sg29
S'--'
p63
sg31
S'L10-45'
p64
sg33
S'36'
p65
sg35
S'3'
p66
sg37
S'@PIT'
p67
sg39
S'19'
p68
sg41
g10
sg42
S'--'
p69
ssS'12'
p70
(dp71
g5
S'--'
p72
sg7
S'--'
p73
sg9
g14
sg11
g10
sg13
g14
sg15
S'T.Y. Hilton'
p74
sg17
S'2015'
p75
sg19
S'12'
p76
sg21
S'--'
p77
sg23
S'11/29'
p78
sg25
S'15.8'
p79
sg27
g14
sg29
S'--'
p80
sg31
S'W25-12'
p81
sg33
S'95'
p82
sg35
S'6'
p83
sg37
S'TB'
p84
sg39
S'31'
p85
sg41
g36
sg42
S'--'
p86
ssS'15'
p87
(dp88
g5
S'--'
p89
sg7
S'--'
p90
sg9
g14
sg11
S'--'
p91
sg13
g14
sg15
S'T.Y. Hilton'
p92
sg17
S'2015'
p93
sg19
S'15'
p94
sg21
S'--'
p95
sg23
S'12/20'
p96
sg25
S'9.7'
p97
sg27
S'--'
p98
sg29
S'--'
p99
sg31
S'L10-16'
p100
sg33
S'29'
p101
sg35
g66
sg37
S'HOU'
p102
sg39
S'13'
p103
sg41
g10
sg42
S'--'
p104
ssS'14'
p105
(dp106
g5
S'--'
p107
sg7
S'--'
p108
sg9
g14
sg11
S'--'
p109
sg13
g14
sg15
S'T.Y. Hilton'
p110
sg17
S'2015'
p111
sg19
S'14'
p112
sg21
S'--'
p113
sg23
S'12/13'
p114
sg25
S'33.0'
p115
sg27
S'--'
p116
sg29
S'--'
p117
sg31
S'L16-51'
p118
sg33
S'132'
p119
sg35
S'4'
p120
sg37
S'@JAC'
p121
sg39
S'57'
p122
sg41
g10
sg42
S'--'
p123
ssS'17'
p124
(dp125
g5
S'--'
p126
sg7
S'--'
p127
sg9
g14
sg11
S'--'
p128
sg13
g14
sg15
S'T.Y. Hilton'
p129
sg17
S'2015'
p130
sg19
S'17'
p131
sg21
S'--'
p132
sg23
S'01/03'
p133
sg25
S'11.0'
p134
sg27
S'--'
p135
sg29
S'--'
p136
sg31
S'W30-24'
p137
sg33
S'44'
p138
sg35
g120
sg37
S'TEN'
p139
sg39
S'18'
p140
sg41
g10
sg42
S'--'
p141
ssS'16'
p142
(dp143
g5
S'--'
p144
sg7
S'--'
p145
sg9
g14
sg11
S'--'
p146
sg13
g14
sg15
S'T.Y. Hilton'
p147
sg17
S'2015'
p148
sg19
S'16'
p149
sg21
S'--'
p150
sg23
S'12/27'
p151
sg25
S'16.0'
p152
sg27
S'--'
p153
sg29
S'--'
p154
sg31
S'W18-12'
p155
sg33
S'64'
p156
sg35
g120
sg37
S'@MIA'
p157
sg39
S'28'
p158
sg41
g10
sg42
S'--'
p159
ssg14
(dp160
g5
S'--'
p161
sg7
S'--'
p162
sg9
g14
sg11
S'--'
p163
sg13
g14
sg15
S'T.Y. Hilton'
p164
sg17
S'2015'
p165
sg19
g14
sg21
S'--'
p166
sg23
S'09/13'
p167
sg25
S'12.6'
p168
sg27
S'--'
p169
sg29
S'--'
p170
sg31
S'L14-27'
p171
sg33
S'88'
p172
sg35
S'7'
p173
sg37
S'@BUF'
p174
sg39
S'30'
p175
sg41
g10
sg42
S'--'
p176
ssg66
(dp177
g5
S'--'
p178
sg7
S'--'
p179
sg9
g14
sg11
S'--'
p180
sg13
g14
sg15
S'T.Y. Hilton'
p181
sg17
S'2015'
p182
sg19
g66
sg21
S'--'
p183
sg23
S'09/27'
p184
sg25
S'23.5'
p185
sg27
S'--'
p186
sg29
S'--'
p187
sg31
S'W35-33'
p188
sg33
S'94'
p189
sg35
g120
sg37
S'@TEN'
p190
sg39
S'48'
p191
sg41
g10
sg42
S'--'
p192
ssg36
(dp193
g5
S'--'
p194
sg7
S'--'
p195
sg9
g14
sg11
S'--'
p196
sg13
g14
sg15
S'T.Y. Hilton'
p197
sg17
S'2015'
p198
sg19
g36
sg21
S'--'
p199
sg23
S'09/21'
p200
sg25
S'11.3'
p201
sg27
S'--'
p202
sg29
S'--'
p203
sg31
S'L7-20'
p204
sg33
S'45'
p205
sg35
g120
sg37
S'NYJ'
p206
sg39
S'27'
p207
sg41
g10
sg42
S'--'
p208
ssS'5'
p209
(dp210
g5
S'--'
p211
sg7
S'--'
p212
sg9
g14
sg11
S'--'
p213
sg13
g14
sg15
S'T.Y. Hilton'
p214
sg17
S'2015'
p215
sg19
g209
sg21
S'--'
p216
sg23
S'10/08'
p217
sg25
S'17.6'
p218
sg27
S'--'
p219
sg29
S'--'
p220
sg31
S'W27-20'
p221
sg33
S'88'
p222
sg35
g209
sg37
S'@HOU'
p223
sg39
S'43'
p224
sg41
g10
sg42
S'--'
p225
ssg120
(dp226
g5
S'--'
p227
sg7
S'--'
p228
sg9
g14
sg11
S'--'
p229
sg13
g14
sg15
S'T.Y. Hilton'
p230
sg17
S'2015'
p231
sg19
g120
sg21
S'--'
p232
sg23
S'10/04'
p233
sg25
S'9.6'
p234
sg27
S'--'
p235
sg29
S'--'
p236
sg31
S'W16-13'
p237
sg33
S'67'
p238
sg35
g173
sg37
S'JAC'
p239
sg39
S'17'
p240
sg41
g10
sg42
S'--'
p241
ssg173
(dp242
g5
S'--'
p243
sg7
S'--'
p244
sg9
g14
sg11
S'--'
p245
sg13
g14
sg15
S'T.Y. Hilton'
p246
sg17
S'2015'
p247
sg19
g173
sg21
S'--'
p248
sg23
S'10/25'
p249
sg25
S'37.5'
p250
sg27
S'--'
p251
sg29
S'--'
p252
sg31
S'L21-27'
p253
sg33
S'150'
p254
sg35
g120
sg37
S'NO'
p255
sg39
S'87T'
p256
sg41
g36
sg42
S'--'
p257
ssg83
(dp258
g5
S'--'
p259
sg7
S'--'
p260
sg9
g14
sg11
S'--'
p261
sg13
g14
sg15
S'T.Y. Hilton'
p262
sg17
S'2015'
p263
sg19
g83
sg21
S'--'
p264
sg23
S'10/18'
p265
sg25
S'12.3'
p266
sg27
S'--'
p267
sg29
S'--'
p268
sg31
S'L27-34'
p269
sg33
S'74'
p270
sg35
g83
sg37
S'NE'
p271
sg39
S'27'
p272
sg41
g14
sg42
S'--'
p273
ssS'9'
p274
(dp275
g5
S'--'
p276
sg7
S'--'
p277
sg9
g14
sg11
S'--'
p278
sg13
g14
sg15
S'T.Y. Hilton'
p279
sg17
S'2015'
p280
sg19
g274
sg21
S'--'
p281
sg23
S'11/08'
p282
sg25
S'16.4'
p283
sg27
S'--'
p284
sg29
S'--'
p285
sg31
S'W27-24'
p286
sg33
S'82'
p287
sg35
g209
sg37
S'DEN'
p288
sg39
S'30'
p289
sg41
g10
sg42
S'--'
p290
ssS'8'
p291
(dp292
g5
S'--'
p293
sg7
S'--'
p294
sg9
g14
sg11
S'--'
p295
sg13
g14
sg15
S'T.Y. Hilton'
p296
sg17
S'2015'
p297
sg19
g291
sg21
S'--'
p298
sg23
S'11/02'
p299
sg25
S'15.0'
p300
sg27
S'--'
p301
sg29
S'--'
p302
sg31
S'L26-29'
p303
sg33
S'15'
p304
sg35
g14
sg37
S'@CAR'
p305
sg39
S'15'
p306
sg41
g10
sg42
S'--'
p307
sssS'2014'
p308
(dp309
g3
(dp310
g5
S'--'
p311
sg7
S'--'
p312
sg9
g14
sg11
S'--'
p313
sg13
g14
sg15
S'T.Y. Hilton'
p314
sg17
S'2014'
p315
sg19
S'11'
p316
sg21
S'--'
p317
sg23
S'11/16'
p318
sg25
S'8.0'
p319
sg27
S'--'
p320
sg29
S'--'
p321
sg31
S'L20-42'
p322
sg33
S'24'
p323
sg35
g66
sg37
S'NE'
p324
sg39
S'13'
p325
sg41
g10
sg42
S'--'
p326
ssg44
(dp327
g5
g46
sg7
g46
sg9
g46
sg11
g46
sg13
g46
sg15
S'T.Y. Hilton'
p328
sg17
S'2014'
p329
sg19
S'10'
p330
sg21
g46
sg23
S'Bye'
p331
sg25
g46
sg27
g46
sg29
g46
sg31
g46
sg33
g46
sg35
g46
sg37
g46
sg39
g46
sg41
g46
sg42
g46
ssg51
(dp332
g5
S'--'
p333
sg7
S'--'
p334
sg9
g14
sg11
S'--'
p335
sg13
g14
sg15
S'T.Y. Hilton'
p336
sg17
S'2014'
p337
sg19
S'13'
p338
sg21
S'--'
p339
sg23
S'11/30'
p340
sg25
S'12.4'
p341
sg27
S'--'
p342
sg29
S'--'
p343
sg31
S'W49-27'
p344
sg33
S'62'
p345
sg35
g209
sg37
S'WAS'
p346
sg39
S'25'
p347
sg41
g14
sg42
S'--'
p348
ssg70
(dp349
g5
g10
sg7
S'15'
p350
sg9
g14
sg11
g10
sg13
g14
sg15
S'T.Y. Hilton'
p351
sg17
S'2014'
p352
sg19
S'12'
p353
sg21
S'15.0'
p354
sg23
S'11/23'
p355
sg25
S'30.5'
p356
sg27
g14
sg29
g14
sg31
S'W23-3'
p357
sg33
S'122'
p358
sg35
g120
sg37
S'JAC'
p359
sg39
S'73T'
p360
sg41
g14
sg42
S'15'
p361
ssg87
(dp362
g5
S'--'
p363
sg7
S'--'
p364
sg9
g14
sg11
S'--'
p365
sg13
g14
sg15
S'T.Y. Hilton'
p366
sg17
S'2014'
p367
sg19
S'15'
p368
sg21
S'--'
p369
sg23
S'12/14'
p370
sg25
S'12.5'
p371
sg27
S'--'
p372
sg29
S'--'
p373
sg31
S'W17-10'
p374
sg33
S'50'
p375
sg35
g120
sg37
S'HOU'
p376
sg39
S'20'
p377
sg41
g10
sg42
S'--'
p378
ssg105
(dp379
g5
S'--'
p380
sg7
S'--'
p381
sg9
g14
sg11
g14
sg13
g14
sg15
S'T.Y. Hilton'
p382
sg17
S'2014'
p383
sg19
S'14'
p384
sg21
S'--'
p385
sg23
S'12/07'
p386
sg25
S'15.0'
p387
sg27
g14
sg29
S'--'
p388
sg31
S'W25-24'
p389
sg33
S'150'
p390
sg35
S'10'
p391
sg37
S'@CLE'
p392
sg39
S'42T'
p393
sg41
g36
sg42
S'--'
p394
ssg124
(dp395
g5
S'--'
p396
sg7
S'--'
p397
sg9
g14
sg11
S'--'
p398
sg13
g14
sg15
S'T.Y. Hilton'
p399
sg17
S'2014'
p400
sg19
S'17'
p401
sg21
S'--'
p402
sg23
S'12/28'
p403
sg25
S'--'
p404
sg27
S'--'
p405
sg29
S'--'
p406
sg31
S'W27-10'
p407
sg33
g10
sg35
g10
sg37
S'@TEN'
p408
sg39
S'--'
p409
sg41
g10
sg42
S'--'
p410
ssg142
(dp411
g5
S'--'
p412
sg7
S'--'
p413
sg9
g10
sg11
S'--'
p414
sg13
g10
sg15
S'T.Y. Hilton'
p415
sg17
S'2014'
p416
sg19
S'16'
p417
sg21
S'--'
p418
sg23
S'12/21'
p419
sg25
S'--'
p420
sg27
S'--'
p421
sg29
S'--'
p422
sg31
S'L7-42'
p423
sg33
S'--'
p424
sg35
S'--'
p425
sg37
S'@DAL'
p426
sg39
S'--'
p427
sg41
S'--'
p428
sg42
S'--'
p429
ssg14
(dp430
g5
S'--'
p431
sg7
S'--'
p432
sg9
g14
sg11
S'--'
p433
sg13
g14
sg15
S'T.Y. Hilton'
p434
sg17
S'2014'
p435
sg19
g14
sg21
S'--'
p436
sg23
S'09/07'
p437
sg25
S'8.2'
p438
sg27
S'--'
p439
sg29
S'--'
p440
sg31
S'L24-31'
p441
sg33
S'41'
p442
sg35
g209
sg37
S'@DEN'
p443
sg39
g274
sg41
g10
sg42
S'--'
p444
ssg66
(dp445
g5
S'--'
p446
sg7
S'--'
p447
sg9
g14
sg11
S'--'
p448
sg13
g14
sg15
S'T.Y. Hilton'
p449
sg17
S'2014'
p450
sg19
g66
sg21
S'--'
p451
sg23
S'09/21'
p452
sg25
S'16.0'
p453
sg27
S'--'
p454
sg29
S'--'
p455
sg31
S'W44-17'
p456
sg33
S'80'
p457
sg35
g209
sg37
S'@JAC'
p458
sg39
S'39'
p459
sg41
g10
sg42
S'--'
p460
ssg36
(dp461
g5
S'--'
p462
sg7
S'--'
p463
sg9
g14
sg11
S'--'
p464
sg13
g14
sg15
S'T.Y. Hilton'
p465
sg17
S'2014'
p466
sg19
g36
sg21
S'--'
p467
sg23
S'09/15'
p468
sg25
S'10.8'
p469
sg27
S'--'
p470
sg29
S'--'
p471
sg31
S'L27-30'
p472
sg33
S'65'
p473
sg35
g83
sg37
S'PHI'
p474
sg39
S'16'
p475
sg41
g10
sg42
S'--'
p476
ssg209
(dp477
g5
S'--'
p478
sg7
S'--'
p479
sg9
g14
sg11
g10
sg13
g14
sg15
S'T.Y. Hilton'
p480
sg17
S'2014'
p481
sg19
g209
sg21
S'--'
p482
sg23
S'10/05'
p483
sg25
S'10.0'
p484
sg27
g14
sg29
S'--'
p485
sg31
S'W20-13'
p486
sg33
S'90'
p487
sg35
g274
sg37
S'BAL'
p488
sg39
S'21'
p489
sg41
g10
sg42
S'--'
p490
ssg120
(dp491
g5
g10
sg7
g209
sg9
g14
sg11
S'--'
p492
sg13
g14
sg15
S'T.Y. Hilton'
p493
sg17
S'2014'
p494
sg19
g120
sg21
S'5.0'
p495
sg23
S'09/28'
p496
sg25
S'17.5'
p497
sg27
S'--'
p498
sg29
g14
sg31
S'W41-17'
p499
sg33
S'105'
p500
sg35
g83
sg37
S'TEN'
p501
sg39
S'37'
p502
sg41
g10
sg42
g209
ssg173
(dp503
g5
S'--'
p504
sg7
S'--'
p505
sg9
g14
sg11
S'--'
p506
sg13
g14
sg15
S'T.Y. Hilton'
p507
sg17
S'2014'
p508
sg19
g173
sg21
S'--'
p509
sg23
S'10/19'
p510
sg25
S'15.3'
p511
sg27
S'--'
p512
sg29
S'--'
p513
sg31
S'W27-0'
p514
sg33
S'107'
p515
sg35
g173
sg37
S'CIN'
p516
sg39
S'46'
p517
sg41
g10
sg42
S'--'
p518
ssg83
(dp519
g5
S'--'
p520
sg7
S'--'
p521
sg9
g14
sg11
S'--'
p522
sg13
g14
sg15
S'T.Y. Hilton'
p523
sg17
S'2014'
p524
sg19
g83
sg21
S'--'
p525
sg23
S'10/09'
p526
sg25
S'24.8'
p527
sg27
S'--'
p528
sg29
S'--'
p529
sg31
S'W33-28'
p530
sg33
S'223'
p531
sg35
g274
sg37
S'@HOU'
p532
sg39
S'49'
p533
sg41
g14
sg42
S'--'
p534
ssg274
(dp535
g5
S'--'
p536
sg7
S'--'
p537
sg9
g14
sg11
S'--'
p538
sg13
g14
sg15
S'T.Y. Hilton'
p539
sg17
S'2014'
p540
sg19
g274
sg21
S'--'
p541
sg23
S'11/03'
p542
sg25
S'23.7'
p543
sg27
S'--'
p544
sg29
S'--'
p545
sg31
S'W40-24'
p546
sg33
S'71'
p547
sg35
g66
sg37
S'@NYG'
p548
sg39
S'31T'
p549
sg41
g14
sg42
S'--'
p550
ssg291
(dp551
g5
S'--'
p552
sg7
S'--'
p553
sg9
g14
sg11
S'--'
p554
sg13
g14
sg15
S'T.Y. Hilton'
p555
sg17
S'2014'
p556
sg19
g291
sg21
S'--'
p557
sg23
S'10/26'
p558
sg25
S'25.8'
p559
sg27
S'--'
p560
sg29
S'--'
p561
sg31
S'L34-51'
p562
sg33
S'155'
p563
sg35
g83
sg37
S'@PIT'
p564
sg39
S'45'
p565
sg41
g14
sg42
S'--'
p566
sssS'2013'
p567
(dp568
g3
(dp569
g5
S'--'
p570
sg7
S'--'
p571
sg9
g14
sg11
S'--'
p572
sg13
g14
sg15
S'T.Y. Hilton'
p573
sg17
S'2013'
p574
sg19
S'11'
p575
sg21
S'--'
p576
sg23
S'11/14'
p577
sg25
S'8.8'
p578
sg27
S'--'
p579
sg29
S'--'
p580
sg31
S'W30-27'
p581
sg33
S'44'
p582
sg35
g209
sg37
S'@TEN'
p583
sg39
S'17'
p584
sg41
g10
sg42
S'--'
p585
ssg44
(dp586
g5
S'--'
p587
sg7
S'--'
p588
sg9
g14
sg11
S'--'
p589
sg13
g14
sg15
S'T.Y. Hilton'
p590
sg17
S'2013'
p591
sg19
S'10'
p592
sg21
S'--'
p593
sg23
S'11/10'
p594
sg25
S'18.6'
p595
sg27
S'--'
p596
sg29
S'--'
p597
sg31
S'L8-38'
p598
sg33
S'130'
p599
sg35
g173
sg37
S'STL'
p600
sg39
S'65'
p601
sg41
g10
sg42
S'--'
p602
ssg51
(dp603
g5
S'--'
p604
sg7
S'--'
p605
sg9
g14
sg11
S'--'
p606
sg13
g14
sg15
S'T.Y. Hilton'
p607
sg17
S'2013'
p608
sg19
S'13'
p609
sg21
S'--'
p610
sg23
S'12/01'
p611
sg25
S'9.2'
p612
sg27
S'--'
p613
sg29
S'--'
p614
sg31
S'W22-14'
p615
sg33
S'46'
p616
sg35
g209
sg37
S'TEN'
p617
sg39
S'20'
p618
sg41
g10
sg42
S'--'
p619
ssg70
(dp620
g5
S'--'
p621
sg7
S'--'
p622
sg9
g14
sg11
S'--'
p623
sg13
g14
sg15
S'T.Y. Hilton'
p624
sg17
S'2013'
p625
sg19
S'12'
p626
sg21
S'--'
p627
sg23
S'11/24'
p628
sg25
S'7.6'
p629
sg27
S'--'
p630
sg29
S'--'
p631
sg31
S'L11-40'
p632
sg33
S'38'
p633
sg35
g209
sg37
S'@ARI'
p634
sg39
S'12'
p635
sg41
g10
sg42
S'--'
p636
ssg87
(dp637
g5
S'--'
p638
sg7
S'--'
p639
sg9
g14
sg11
S'--'
p640
sg13
g14
sg15
S'T.Y. Hilton'
p641
sg17
S'2013'
p642
sg19
S'15'
p643
sg21
S'--'
p644
sg23
S'12/15'
p645
sg25
S'9.8'
p646
sg27
S'--'
p647
sg29
S'--'
p648
sg31
S'W25-3'
p649
sg33
S'78'
p650
sg35
g291
sg37
S'HOU'
p651
sg39
S'41'
p652
sg41
g10
sg42
S'--'
p653
ssg105
(dp654
g5
S'--'
p655
sg7
S'--'
p656
sg9
g14
sg11
S'--'
p657
sg13
g14
sg15
S'T.Y. Hilton'
p658
sg17
S'2013'
p659
sg19
S'14'
p660
sg21
S'--'
p661
sg23
S'12/08'
p662
sg25
S'3.5'
p663
sg27
S'--'
p664
sg29
S'--'
p665
sg31
S'L28-42'
p666
sg33
g173
sg35
g36
sg37
S'@CIN'
p667
sg39
g120
sg41
g10
sg42
S'--'
p668
ssg124
(dp669
g5
S'--'
p670
sg7
S'--'
p671
sg9
g14
sg11
S'--'
p672
sg13
g14
sg15
S'T.Y. Hilton'
p673
sg17
S'2013'
p674
sg19
S'17'
p675
sg21
S'--'
p676
sg23
S'12/29'
p677
sg25
S'14.1'
p678
sg27
S'--'
p679
sg29
S'--'
p680
sg31
S'W30-10'
p681
sg33
S'155'
p682
sg35
S'11'
p683
sg37
S'JAC'
p684
sg39
S'41'
p685
sg41
g10
sg42
S'--'
p686
ssg142
(dp687
g5
S'--'
p688
sg7
S'--'
p689
sg9
g14
sg11
S'--'
p690
sg13
g14
sg15
S'T.Y. Hilton'
p691
sg17
S'2013'
p692
sg19
S'16'
p693
sg21
S'--'
p694
sg23
S'12/22'
p695
sg25
S'10.4'
p696
sg27
S'--'
p697
sg29
S'--'
p698
sg31
S'W23-7'
p699
sg33
S'52'
p700
sg35
g209
sg37
S'@KC'
p701
sg39
S'31'
p702
sg41
g10
sg42
S'--'
p703
ssg14
(dp704
g5
S'--'
p705
sg7
S'--'
p706
sg9
g10
sg11
S'--'
p707
sg13
g14
sg15
S'T.Y. Hilton'
p708
sg17
S'2013'
p709
sg19
g14
sg21
S'--'
p710
sg23
S'09/08'
p711
sg25
S'6.7'
p712
sg27
S'--'
p713
sg29
S'--'
p714
sg31
S'W21-17'
p715
sg33
S'20'
p716
sg35
g66
sg37
S'OAK'
p717
sg39
S'12'
p718
sg41
g10
sg42
S'--'
p719
ssg66
(dp720
g5
S'--'
p721
sg7
S'--'
p722
sg9
g10
sg11
S'--'
p723
sg13
g14
sg15
S'T.Y. Hilton'
p724
sg17
S'2013'
p725
sg19
g66
sg21
S'--'
p726
sg23
S'09/22'
p727
sg25
S'6.5'
p728
sg27
S'--'
p729
sg29
S'--'
p730
sg31
S'W27-7'
p731
sg33
S'13'
p732
sg35
g36
sg37
S'@SF'
p733
sg39
g291
sg41
g10
sg42
S'--'
p734
ssg36
(dp735
g5
S'--'
p736
sg7
S'--'
p737
sg9
g10
sg11
S'--'
p738
sg13
g14
sg15
S'T.Y. Hilton'
p739
sg17
S'2013'
p740
sg19
g36
sg21
S'--'
p741
sg23
S'09/15'
p742
sg25
S'20.7'
p743
sg27
S'--'
p744
sg29
S'--'
p745
sg31
S'L20-24'
p746
sg33
S'124'
p747
sg35
g83
sg37
S'MIA'
p748
sg39
S'47'
p749
sg41
g10
sg42
S'--'
p750
ssg209
(dp751
g5
S'--'
p752
sg7
S'--'
p753
sg9
g10
sg11
S'--'
p754
sg13
g14
sg15
S'T.Y. Hilton'
p755
sg17
S'2013'
p756
sg19
g209
sg21
S'--'
p757
sg23
S'10/06'
p758
sg25
S'28.0'
p759
sg27
S'--'
p760
sg29
S'--'
p761
sg31
S'W34-28'
p762
sg33
S'140'
p763
sg35
g209
sg37
S'SEA'
p764
sg39
S'73T'
p765
sg41
g36
sg42
S'--'
p766
ssg120
(dp767
g5
g10
sg7
g83
sg9
g14
sg11
g10
sg13
g14
sg15
S'T.Y. Hilton'
p768
sg17
S'2013'
p769
sg19
g120
sg21
S'3.0'
p770
sg23
S'09/29'
p771
sg25
S'11.3'
p772
sg27
g14
sg29
g36
sg31
S'W37-3'
p773
sg33
S'45'
p774
sg35
g120
sg37
S'@JAC'
p775
sg39
S'18'
p776
sg41
g10
sg42
g66
ssg173
(dp777
g5
S'--'
p778
sg7
S'--'
p779
sg9
g14
sg11
S'--'
p780
sg13
g14
sg15
S'T.Y. Hilton'
p781
sg17
S'2013'
p782
sg19
g173
sg21
S'--'
p783
sg23
S'10/20'
p784
sg25
S'13.5'
p785
sg27
S'--'
p786
sg29
S'--'
p787
sg31
S'W39-33'
p788
sg33
S'27'
p789
sg35
g36
sg37
S'DEN'
p790
sg39
S'19'
p791
sg41
g10
sg42
S'--'
p792
ssg83
(dp793
g5
S'--'
p794
sg7
S'--'
p795
sg9
g10
sg11
S'--'
p796
sg13
g14
sg15
S'T.Y. Hilton'
p797
sg17
S'2013'
p798
sg19
g83
sg21
S'--'
p799
sg23
S'10/14'
p800
sg25
S'8.6'
p801
sg27
S'--'
p802
sg29
S'--'
p803
sg31
S'L9-19'
p804
sg33
S'43'
p805
sg35
g209
sg37
S'@SD'
p806
sg39
S'11'
p807
sg41
g10
sg42
S'--'
p808
ssg274
(dp809
g5
S'--'
p810
sg7
S'--'
p811
sg9
g10
sg11
S'--'
p812
sg13
g14
sg15
S'T.Y. Hilton'
p813
sg17
S'2013'
p814
sg19
g274
sg21
S'--'
p815
sg23
S'11/03'
p816
sg25
S'17.3'
p817
sg27
S'--'
p818
sg29
S'--'
p819
sg31
S'W27-24'
p820
sg33
S'121'
p821
sg35
g173
sg37
S'@HOU'
p822
sg39
S'58T'
p823
sg41
g66
sg42
S'--'
p824
ssg291
(dp825
g5
g46
sg7
g46
sg9
g46
sg11
g46
sg13
g46
sg15
S'T.Y. Hilton'
p826
sg17
S'2013'
p827
sg19
g291
sg21
g46
sg23
S'Bye'
p828
sg25
g46
sg27
g46
sg29
g46
sg31
g46
sg33
g46
sg35
g46
sg37
g46
sg39
g46
sg41
g46
sg42
g46
sssS'2012'
p829
(dp830
g3
(dp831
g5
S'--'
p832
sg7
S'--'
p833
sg9
g10
sg11
g10
sg13
g14
sg15
S'T.Y. Hilton'
p834
sg17
S'2012'
p835
sg19
S'11'
p836
sg21
S'--'
p837
sg23
S'11/18'
p838
sg25
S'16.7'
p839
sg27
g14
sg29
S'--'
p840
sg31
S'L24-59'
p841
sg33
S'100'
p842
sg35
g83
sg37
S'@NE'
p843
sg39
S'43T'
p844
sg41
g36
sg42
S'--'
p845
ssg44
(dp846
g5
g10
sg7
S'30'
p847
sg9
g10
sg11
S'--'
p848
sg13
g14
sg15
S'T.Y. Hilton'
p849
sg17
S'2012'
p850
sg19
S'10'
p851
sg21
S'15.0'
p852
sg23
S'11/08'
p853
sg25
S'--'
p854
sg27
S'--'
p855
sg29
g36
sg31
S'W27-10'
p856
sg33
g10
sg35
g10
sg37
S'@JAC'
p857
sg39
S'--'
p858
sg41
g10
sg42
S'19'
p859
ssg51
(dp860
g5
S'--'
p861
sg7
S'--'
p862
sg9
g10
sg11
S'--'
p863
sg13
g14
sg15
S'T.Y. Hilton'
p864
sg17
S'2012'
p865
sg19
S'13'
p866
sg21
S'--'
p867
sg23
S'12/02'
p868
sg25
S'16.7'
p869
sg27
S'--'
p870
sg29
S'--'
p871
sg31
S'W35-33'
p872
sg33
S'100'
p873
sg35
g83
sg37
S'@DET'
p874
sg39
S'60'
p875
sg41
g10
sg42
S'--'
p876
ssg70
(dp877
g5
S'--'
p878
sg7
S'--'
p879
sg9
g10
sg11
S'--'
p880
sg13
g14
sg15
S'T.Y. Hilton'
p881
sg17
S'2012'
p882
sg19
S'12'
p883
sg21
S'--'
p884
sg23
S'11/25'
p885
sg25
S'11.0'
p886
sg27
S'--'
p887
sg29
S'--'
p888
sg31
S'W20-13'
p889
sg33
S'33'
p890
sg35
g66
sg37
S'BUF'
p891
sg39
S'18'
p892
sg41
g14
sg42
S'--'
p893
ssg87
(dp894
g5
S'--'
p895
sg7
S'--'
p896
sg9
g10
sg11
S'--'
p897
sg13
g14
sg15
S'T.Y. Hilton'
p898
sg17
S'2012'
p899
sg19
S'15'
p900
sg21
S'--'
p901
sg23
S'12/16'
p902
sg25
S'26.0'
p903
sg27
S'--'
p904
sg29
S'--'
p905
sg31
S'L17-29'
p906
sg33
S'78'
p907
sg35
g66
sg37
S'@HOU'
p908
sg39
S'61T'
p909
sg41
g14
sg42
S'--'
p910
ssg105
(dp911
g5
g10
sg7
S'-2'
p912
sg9
g10
sg11
S'--'
p913
sg13
g14
sg15
S'T.Y. Hilton'
p914
sg17
S'2012'
p915
sg19
S'14'
p916
sg21
S'-2.0'
p917
sg23
S'12/09'
p918
sg25
S'25.0'
p919
sg27
S'--'
p920
sg29
g14
sg31
S'W27-23'
p921
sg33
S'50'
p922
sg35
g36
sg37
S'TEN'
p923
sg39
S'36'
p924
sg41
g10
sg42
S'-2'
p925
ssg124
(dp926
g5
S'--'
p927
sg7
S'--'
p928
sg9
g10
sg11
S'--'
p929
sg13
g14
sg15
S'T.Y. Hilton'
p930
sg17
S'2012'
p931
sg19
S'17'
p932
sg21
S'--'
p933
sg23
S'12/30'
p934
sg25
S'27.8'
p935
sg27
S'--'
p936
sg29
S'--'
p937
sg31
S'W28-16'
p938
sg33
S'111'
p939
sg35
g120
sg37
S'HOU'
p940
sg39
S'70T'
p941
sg41
g14
sg42
S'--'
p942
ssg142
(dp943
g5
S'--'
p944
sg7
S'--'
p945
sg9
g14
sg11
S'--'
p946
sg13
g14
sg15
S'T.Y. Hilton'
p947
sg17
S'2012'
p948
sg19
S'16'
p949
sg21
S'--'
p950
sg23
S'12/23'
p951
sg25
S'17.0'
p952
sg27
S'--'
p953
sg29
S'--'
p954
sg31
S'W20-13'
p955
sg33
S'34'
p956
sg35
g36
sg37
S'@KC'
p957
sg39
S'23'
p958
sg41
g10
sg42
S'--'
p959
ssg14
(dp960
g5
S'--'
p961
sg7
S'--'
p962
sg9
g10
sg11
S'--'
p963
sg13
g10
sg15
S'T.Y. Hilton'
p964
sg17
S'2012'
p965
sg19
g14
sg21
S'--'
p966
sg23
S'09/09'
p967
sg25
S'--'
p968
sg27
S'--'
p969
sg29
S'--'
p970
sg31
S'L21-41'
p971
sg33
S'--'
p972
sg35
S'--'
p973
sg37
S'@CHI'
p974
sg39
S'--'
p975
sg41
S'--'
p976
sg42
S'--'
p977
ssg66
(dp978
g5
S'--'
p979
sg7
S'--'
p980
sg9
g10
sg11
S'--'
p981
sg13
g14
sg15
S'T.Y. Hilton'
p982
sg17
S'2012'
p983
sg19
g66
sg21
S'--'
p984
sg23
S'09/23'
p985
sg25
S'28.3'
p986
sg27
S'--'
p987
sg29
S'--'
p988
sg31
S'L17-22'
p989
sg33
S'113'
p990
sg35
g120
sg37
S'JAC'
p991
sg39
S'40T'
p992
sg41
g14
sg42
S'--'
p993
ssg36
(dp994
g5
S'--'
p995
sg7
S'--'
p996
sg9
g10
sg11
S'--'
p997
sg13
g14
sg15
S'T.Y. Hilton'
p998
sg17
S'2012'
p999
sg19
g36
sg21
S'--'
p1000
sg23
S'09/16'
p1001
sg25
S'15.0'
p1002
sg27
S'--'
p1003
sg29
S'--'
p1004
sg31
S'W23-20'
p1005
sg33
S'15'
p1006
sg35
g14
sg37
S'MIN'
p1007
sg39
S'15'
p1008
sg41
g10
sg42
S'--'
p1009
ssg209
(dp1010
g5
g10
sg7
g10
sg9
g10
sg11
S'--'
p1011
sg13
g14
sg15
S'T.Y. Hilton'
p1012
sg17
S'2012'
p1013
sg19
g209
sg21
S'0.0'
p1014
sg23
S'10/07'
p1015
sg25
S'12.3'
p1016
sg27
S'--'
p1017
sg29
g14
sg31
S'W30-27'
p1018
sg33
S'37'
p1019
sg35
g66
sg37
S'GB'
p1020
sg39
S'26'
p1021
sg41
g10
sg42
g10
ssg120
(dp1022
g5
g46
sg7
g46
sg9
g46
sg11
g46
sg13
g46
sg15
S'T.Y. Hilton'
p1023
sg17
S'2012'
p1024
sg19
g120
sg21
g46
sg23
S'Bye'
p1025
sg25
g46
sg27
g46
sg29
g46
sg31
g46
sg33
g46
sg35
g46
sg37
g46
sg39
g46
sg41
g46
sg42
g46
ssg173
(dp1026
g5
S'--'
p1027
sg7
S'--'
p1028
sg9
g10
sg11
S'--'
p1029
sg13
g14
sg15
S'T.Y. Hilton'
p1030
sg17
S'2012'
p1031
sg19
g173
sg21
S'--'
p1032
sg23
S'10/21'
p1033
sg25
S'11.0'
p1034
sg27
S'--'
p1035
sg29
S'--'
p1036
sg31
S'W17-13'
p1037
sg33
S'22'
p1038
sg35
g36
sg37
S'CLE'
p1039
sg39
S'14'
p1040
sg41
g10
sg42
S'--'
p1041
ssg83
(dp1042
g5
S'--'
p1043
sg7
S'--'
p1044
sg9
g10
sg11
S'--'
p1045
sg13
g14
sg15
S'T.Y. Hilton'
p1046
sg17
S'2012'
p1047
sg19
g83
sg21
S'--'
p1048
sg23
S'10/14'
p1049
sg25
S'10.3'
p1050
sg27
S'--'
p1051
sg29
S'--'
p1052
sg31
S'L9-35'
p1053
sg33
S'31'
p1054
sg35
g66
sg37
S'@NYJ'
p1055
sg39
S'16'
p1056
sg41
g10
sg42
S'--'
p1057
ssg274
(dp1058
g5
g10
sg7
g14
sg9
g10
sg11
S'--'
p1059
sg13
g14
sg15
S'T.Y. Hilton'
p1060
sg17
S'2012'
p1061
sg19
g274
sg21
S'1.0'
p1062
sg23
S'11/04'
p1063
sg25
S'17.0'
p1064
sg27
S'--'
p1065
sg29
g14
sg31
S'W23-20'
p1066
sg33
S'102'
p1067
sg35
g83
sg37
S'MIA'
p1068
sg39
S'36T'
p1069
sg41
g14
sg42
g14
ssg291
(dp1070
g5
S'--'
p1071
sg7
S'--'
p1072
sg9
g10
sg11
S'--'
p1073
sg13
g14
sg15
S'T.Y. Hilton'
p1074
sg17
S'2012'
p1075
sg19
g291
sg21
S'--'
p1076
sg23
S'10/28'
p1077
sg25
S'7.0'
p1078
sg27
S'--'
p1079
sg29
S'--'
p1080
sg31
S'W19-13'
p1081
sg33
S'35'
p1082
sg35
g209
sg37
S'@TEN'
p1083
sg39
S'14'
p1084
sg41
g10
sg42
S'--'
p1085
sss.