(dp0
S'2015'
p1
(dp2
S'11'
p3
(dp4
S'RushTD'
p5
S'0'
p6
sS'RushYds'
p7
S'16'
p8
sS'GS'
p9
S'1'
p10
sS'Lost'
p11
g10
sS'G'
p12
g10
sS'Player'
p13
S'Tavon Austin'
p14
sS'Year'
p15
S'2015'
p16
sS'WK'
p17
S'11'
p18
sS'RushAvg'
p19
S'16.0'
p20
sS'Game Date'
p21
S'11/22'
p22
sS'RecAvg'
p23
S'5.0'
p24
sS'FUM'
p25
g10
sS'RushAtt'
p26
g10
sS'Result'
p27
S'L13-16'
p28
sS'RecYds'
p29
S'5'
p30
sS'Rec'
p31
g10
sS'Opp'
p32
S'@BAL'
p33
sS'RecLng'
p34
g30
sS'RecTD'
p35
g6
sS'RushLng'
p36
S'16'
p37
ssS'10'
p38
(dp39
g5
g6
sg7
S'18'
p40
sg9
g10
sg11
S'--'
p41
sg12
g10
sg13
S'Tavon Austin'
p42
sg15
S'2015'
p43
sg17
S'10'
p44
sg19
S'6.0'
p45
sg21
S'11/15'
p46
sg23
S'2.5'
p47
sg25
S'--'
p48
sg26
S'3'
p49
sg27
S'L13-37'
p50
sg29
g30
sg31
S'2'
p51
sg32
S'CHI'
p52
sg34
S'4'
p53
sg35
g6
sg36
S'12'
p54
ssS'13'
p55
(dp56
g5
g6
sg7
S'14'
p57
sg9
g10
sg11
S'--'
p58
sg12
g10
sg13
S'Tavon Austin'
p59
sg15
S'2015'
p60
sg17
S'13'
p61
sg19
S'7.0'
p62
sg21
S'12/06'
p63
sg23
S'24.0'
p64
sg25
S'--'
p65
sg26
g51
sg27
S'L3-27'
p66
sg29
S'24'
p67
sg31
g10
sg32
S'ARI'
p68
sg34
S'24'
p69
sg35
g6
sg36
S'12'
p70
ssS'12'
p71
(dp72
g5
g10
sg7
S'63'
p73
sg9
g10
sg11
S'--'
p74
sg12
g10
sg13
S'Tavon Austin'
p75
sg15
S'2015'
p76
sg17
S'12'
p77
sg19
S'15.8'
p78
sg21
S'11/29'
p79
sg23
S'5.5'
p80
sg25
S'--'
p81
sg26
g53
sg27
S'L7-31'
p82
sg29
S'33'
p83
sg31
S'6'
p84
sg32
S'@CIN'
p85
sg34
S'12'
p86
sg35
g6
sg36
S'60'
p87
ssS'15'
p88
(dp89
g5
g10
sg7
S'32'
p90
sg9
g10
sg11
S'--'
p91
sg12
g10
sg13
S'Tavon Austin'
p92
sg15
S'2015'
p93
sg17
S'15'
p94
sg19
S'8.0'
p95
sg21
S'12/17'
p96
sg23
S'13.7'
p97
sg25
S'--'
p98
sg26
g53
sg27
S'W31-23'
p99
sg29
S'41'
p100
sg31
g49
sg32
S'TB'
p101
sg34
S'17T'
p102
sg35
g10
sg36
S'21T'
p103
ssS'14'
p104
(dp105
g5
g6
sg7
S'40'
p106
sg9
g10
sg11
S'--'
p107
sg12
g10
sg13
S'Tavon Austin'
p108
sg15
S'2015'
p109
sg17
S'14'
p110
sg19
S'10.0'
p111
sg21
S'12/13'
p112
sg23
S'6.3'
p113
sg25
S'--'
p114
sg26
g53
sg27
S'W21-14'
p115
sg29
S'19'
p116
sg31
g49
sg32
S'DET'
p117
sg34
S'14'
p118
sg35
g6
sg36
S'20'
p119
ssS'17'
p120
(dp121
g5
g6
sg7
S'32'
p122
sg9
g10
sg11
S'--'
p123
sg12
g10
sg13
S'Tavon Austin'
p124
sg15
S'2015'
p125
sg17
S'17'
p126
sg19
S'5.3'
p127
sg21
S'01/03'
p128
sg23
S'6.0'
p129
sg25
S'--'
p130
sg26
g84
sg27
S'L16-19'
p131
sg29
S'30'
p132
sg31
g30
sg32
S'@SF'
p133
sg34
S'10'
p134
sg35
g6
sg36
S'13'
p135
ssS'16'
p136
(dp137
g5
g6
sg7
S'12'
p138
sg9
g6
sg11
S'--'
p139
sg12
g10
sg13
S'Tavon Austin'
p140
sg15
S'2015'
p141
sg17
S'16'
p142
sg19
S'4.0'
p143
sg21
S'12/27'
p144
sg23
S'5.3'
p145
sg25
S'--'
p146
sg26
g49
sg27
S'W23-17'
p147
sg29
S'16'
p148
sg31
g49
sg32
S'@SEA'
p149
sg34
S'16'
p150
sg35
g6
sg36
S'8'
p151
ssg10
(dp152
g5
g10
sg7
S'17'
p153
sg9
g10
sg11
g6
sg12
g10
sg13
S'Tavon Austin'
p154
sg15
S'2015'
p155
sg17
g10
sg19
S'4.3'
p156
sg21
S'09/13'
p157
sg23
S'-1.0'
p158
sg25
g10
sg26
g53
sg27
S'W34-31'
p159
sg29
S'-2'
p160
sg31
g51
sg32
S'SEA'
p161
sg34
S'7'
p162
sg35
g6
sg36
S'16T'
p163
ssg49
(dp164
g5
S'--'
p165
sg7
S'--'
p166
sg9
g10
sg11
S'--'
p167
sg12
g10
sg13
S'Tavon Austin'
p168
sg15
S'2015'
p169
sg17
g49
sg19
S'--'
p170
sg21
S'09/27'
p171
sg23
S'7.6'
p172
sg25
S'--'
p173
sg26
S'--'
p174
sg27
S'L6-12'
p175
sg29
S'38'
p176
sg31
g30
sg32
S'PIT'
p177
sg34
S'12'
p178
sg35
g6
sg36
S'--'
p179
ssg51
(dp180
g5
g6
sg7
S'40'
p181
sg9
g10
sg11
S'--'
p182
sg12
g10
sg13
S'Tavon Austin'
p183
sg15
S'2015'
p184
sg17
g51
sg19
S'10.0'
p185
sg21
S'09/20'
p186
sg23
S'6.0'
p187
sg25
S'--'
p188
sg26
g53
sg27
S'L10-24'
p189
sg29
g84
sg31
g10
sg32
S'@WAS'
p190
sg34
g84
sg35
g6
sg36
S'16'
p191
ssg30
(dp192
g5
g6
sg7
S'22'
p193
sg9
g10
sg11
S'--'
p194
sg12
g10
sg13
S'Tavon Austin'
p195
sg15
S'2015'
p196
sg17
g30
sg19
S'7.3'
p197
sg21
S'10/11'
p198
sg23
S'3.0'
p199
sg25
S'--'
p200
sg26
g49
sg27
S'L10-24'
p201
sg29
g84
sg31
g51
sg32
S'@GB'
p202
sg34
S'5T'
p203
sg35
g10
sg36
S'15'
p204
ssg53
(dp205
g5
g6
sg7
S'20'
p206
sg9
g10
sg11
S'--'
p207
sg12
g10
sg13
S'Tavon Austin'
p208
sg15
S'2015'
p209
sg17
g53
sg19
S'10.0'
p210
sg21
S'10/04'
p211
sg23
S'16.0'
p212
sg25
S'--'
p213
sg26
g51
sg27
S'W24-22'
p214
sg29
S'96'
p215
sg31
g84
sg32
S'@ARI'
p216
sg34
S'47'
p217
sg35
g51
sg36
S'12'
p218
ssg162
(dp219
g5
g6
sg7
S'21'
p220
sg9
g10
sg11
S'--'
p221
sg12
g10
sg13
S'Tavon Austin'
p222
sg15
S'2015'
p223
sg17
g162
sg19
S'21.0'
p224
sg21
S'10/25'
p225
sg23
S'10.8'
p226
sg25
S'--'
p227
sg26
g10
sg27
S'W24-6'
p228
sg29
S'43'
p229
sg31
g53
sg32
S'CLE'
p230
sg34
S'20'
p231
sg35
g6
sg36
S'21'
p232
ssg84
(dp233
g5
S''
p234
sg7
g234
sg9
g234
sg11
g234
sg12
g234
sg13
S'Tavon Austin'
p235
sg15
S'2015'
p236
sg17
g84
sg19
g234
sg21
S'Bye'
p237
sg23
g234
sg25
g234
sg26
g234
sg27
g234
sg29
g234
sg31
g234
sg32
g234
sg34
g234
sg35
g234
sg36
g234
ssS'9'
p238
(dp239
g5
g6
sg7
S'66'
p240
sg9
g10
sg11
S'--'
p241
sg12
g10
sg13
S'Tavon Austin'
p242
sg15
S'2015'
p243
sg17
g238
sg19
S'8.3'
p244
sg21
S'11/08'
p245
sg23
S'3.8'
p246
sg25
S'--'
p247
sg26
g151
sg27
S'L18-21'
p248
sg29
S'15'
p249
sg31
g53
sg32
S'@MIN'
p250
sg34
S'10'
p251
sg35
g6
sg36
S'22'
p252
ssg151
(dp253
g5
g10
sg7
S'21'
p254
sg9
g10
sg11
g10
sg12
g10
sg13
S'Tavon Austin'
p255
sg15
S'2015'
p256
sg17
g151
sg19
S'7.0'
p257
sg21
S'11/01'
p258
sg23
S'24.5'
p259
sg25
g10
sg26
g49
sg27
S'W27-6'
p260
sg29
S'98'
p261
sg31
g53
sg32
S'SF'
p262
sg34
S'66T'
p263
sg35
g10
sg36
S'13'
p264
sssS'2014'
p265
(dp266
g3
(dp267
g5
g6
sg7
S'11'
p268
sg9
g10
sg11
S'--'
p269
sg12
g10
sg13
S'Tavon Austin'
p270
sg15
S'2014'
p271
sg17
S'11'
p272
sg19
S'5.5'
p273
sg21
S'11/16'
p274
sg23
S'5.0'
p275
sg25
S'--'
p276
sg26
g51
sg27
S'W22-7'
p277
sg29
S'10'
p278
sg31
g51
sg32
S'DEN'
p279
sg34
g30
sg35
g6
sg36
g238
ssg38
(dp280
g5
g6
sg7
S'10'
p281
sg9
g10
sg11
S'--'
p282
sg12
g10
sg13
S'Tavon Austin'
p283
sg15
S'2014'
p284
sg17
S'10'
p285
sg19
S'10.0'
p286
sg21
S'11/09'
p287
sg23
S'10.0'
p288
sg25
S'--'
p289
sg26
g10
sg27
S'L14-31'
p290
sg29
S'20'
p291
sg31
g51
sg32
S'@ARI'
p292
sg34
S'17'
p293
sg35
g6
sg36
S'10'
p294
ssg55
(dp295
g5
g10
sg7
S'24'
p296
sg9
g6
sg11
g6
sg12
g10
sg13
S'Tavon Austin'
p297
sg15
S'2014'
p298
sg17
S'13'
p299
sg19
S'12.0'
p300
sg21
S'11/30'
p301
sg23
S'5.5'
p302
sg25
g51
sg26
g51
sg27
S'W52-0'
p303
sg29
S'11'
p304
sg31
g51
sg32
S'OAK'
p305
sg34
g84
sg35
g6
sg36
S'18T'
p306
ssg71
(dp307
g5
g10
sg7
S'27'
p308
sg9
g10
sg11
S'--'
p309
sg12
g10
sg13
S'Tavon Austin'
p310
sg15
S'2014'
p311
sg17
S'12'
p312
sg19
S'9.0'
p313
sg21
S'11/23'
p314
sg23
S'3.7'
p315
sg25
S'--'
p316
sg26
g49
sg27
S'L24-27'
p317
sg29
S'11'
p318
sg31
g49
sg32
S'@SD'
p319
sg34
g84
sg35
g6
sg36
S'15'
p320
ssg88
(dp321
g5
g6
sg7
g151
sg9
g10
sg11
g6
sg12
g10
sg13
S'Tavon Austin'
p322
sg15
S'2014'
p323
sg17
S'15'
p324
sg19
S'8.0'
p325
sg21
S'12/11'
p326
sg23
S'7.0'
p327
sg25
g10
sg26
g10
sg27
S'L6-12'
p328
sg29
S'14'
p329
sg31
g51
sg32
S'ARI'
p330
sg34
S'10'
p331
sg35
g6
sg36
g151
ssg104
(dp332
g5
g6
sg7
S'46'
p333
sg9
g10
sg11
S'--'
p334
sg12
g10
sg13
S'Tavon Austin'
p335
sg15
S'2014'
p336
sg17
S'14'
p337
sg19
S'9.2'
p338
sg21
S'12/07'
p339
sg23
S'7.0'
p340
sg25
S'--'
p341
sg26
g30
sg27
S'W24-0'
p342
sg29
S'14'
p343
sg31
g51
sg32
S'@WAS'
p344
sg34
g238
sg35
g6
sg36
S'18'
p345
ssg120
(dp346
g5
g6
sg7
g10
sg9
g10
sg11
S'--'
p347
sg12
g10
sg13
S'Tavon Austin'
p348
sg15
S'2014'
p349
sg17
S'17'
p350
sg19
S'0.5'
p351
sg21
S'12/28'
p352
sg23
S'6.5'
p353
sg25
S'--'
p354
sg26
g51
sg27
S'L6-20'
p355
sg29
S'13'
p356
sg31
g51
sg32
S'@SEA'
p357
sg34
g162
sg35
g6
sg36
g51
ssg136
(dp358
g5
g6
sg7
S'25'
p359
sg9
g6
sg11
S'--'
p360
sg12
g10
sg13
S'Tavon Austin'
p361
sg15
S'2014'
p362
sg17
S'16'
p363
sg19
S'8.3'
p364
sg21
S'12/21'
p365
sg23
S'15.0'
p366
sg25
S'--'
p367
sg26
g49
sg27
S'L27-37'
p368
sg29
S'15'
p369
sg31
g10
sg32
S'NYG'
p370
sg34
S'15'
p371
sg35
g6
sg36
S'19'
p372
ssg10
(dp373
g5
g6
sg7
g30
sg9
g6
sg11
g6
sg12
g10
sg13
S'Tavon Austin'
p374
sg15
S'2014'
p375
sg17
g10
sg19
S'1.7'
p376
sg21
S'09/07'
p377
sg23
S'11.3'
p378
sg25
g51
sg26
g49
sg27
S'L6-34'
p379
sg29
S'34'
p380
sg31
g49
sg32
S'MIN'
p381
sg34
S'28'
p382
sg35
g6
sg36
g30
ssg49
(dp383
g5
S'--'
p384
sg7
S'--'
p385
sg9
g6
sg11
S'--'
p386
sg12
g6
sg13
S'Tavon Austin'
p387
sg15
S'2014'
p388
sg17
g49
sg19
S'--'
p389
sg21
S'09/21'
p390
sg23
S'--'
p391
sg25
S'--'
p392
sg26
S'--'
p393
sg27
S'L31-34'
p394
sg29
S'--'
p395
sg31
S'--'
p396
sg32
S'DAL'
p397
sg34
S'--'
p398
sg35
S'--'
p399
sg36
S'--'
p400
ssg51
(dp401
g5
g6
sg7
S'21'
p402
sg9
g6
sg11
S'--'
p403
sg12
g10
sg13
S'Tavon Austin'
p404
sg15
S'2014'
p405
sg17
g51
sg19
S'10.5'
p406
sg21
S'09/14'
p407
sg23
S'--'
p408
sg25
S'--'
p409
sg26
g51
sg27
S'W19-17'
p410
sg29
g6
sg31
g6
sg32
S'@TB'
p411
sg34
S'--'
p412
sg35
g6
sg36
S'18'
p413
ssg30
(dp414
g5
S'--'
p415
sg7
S'--'
p416
sg9
g6
sg11
S'--'
p417
sg12
g10
sg13
S'Tavon Austin'
p418
sg15
S'2014'
p419
sg17
g30
sg19
S'--'
p420
sg21
S'10/05'
p421
sg23
S'16.5'
p422
sg25
S'--'
p423
sg26
S'--'
p424
sg27
S'L28-34'
p425
sg29
S'33'
p426
sg31
g51
sg32
S'@PHI'
p427
sg34
S'22'
p428
sg35
g6
sg36
S'--'
p429
ssg53
(dp430
g5
g234
sg7
g234
sg9
g234
sg11
g234
sg12
g234
sg13
S'Tavon Austin'
p431
sg15
S'2014'
p432
sg17
g53
sg19
g234
sg21
S'Bye'
p433
sg23
g234
sg25
g234
sg26
g234
sg27
g234
sg29
g234
sg31
g234
sg32
g234
sg34
g234
sg35
g234
sg36
g234
ssg162
(dp434
g5
g6
sg7
S'16'
p435
sg9
g6
sg11
S'--'
p436
sg12
g10
sg13
S'Tavon Austin'
p437
sg15
S'2014'
p438
sg17
g162
sg19
S'3.2'
p439
sg21
S'10/19'
p440
sg23
S'4.5'
p441
sg25
S'--'
p442
sg26
g30
sg27
S'W28-26'
p443
sg29
g238
sg31
g51
sg32
S'SEA'
p444
sg34
g30
sg35
g6
sg36
g151
ssg84
(dp445
g5
g6
sg7
S'16'
p446
sg9
g10
sg11
S'--'
p447
sg12
g10
sg13
S'Tavon Austin'
p448
sg15
S'2014'
p449
sg17
g84
sg19
S'5.3'
p450
sg21
S'10/13'
p451
sg23
S'8.8'
p452
sg25
S'--'
p453
sg26
g49
sg27
S'L17-31'
p454
sg29
S'35'
p455
sg31
g53
sg32
S'SF'
p456
sg34
g238
sg35
g6
sg36
g151
ssg238
(dp457
g5
g6
sg7
g162
sg9
g10
sg11
S'--'
p458
sg12
g10
sg13
S'Tavon Austin'
p459
sg15
S'2014'
p460
sg17
g238
sg19
S'3.5'
p461
sg21
S'11/02'
p462
sg23
S'5.5'
p463
sg25
S'--'
p464
sg26
g51
sg27
S'W13-10'
p465
sg29
S'11'
p466
sg31
g51
sg32
S'@SF'
p467
sg34
g162
sg35
g6
sg36
g53
ssg151
(dp468
g5
g6
sg7
g162
sg9
g6
sg11
S'--'
p469
sg12
g10
sg13
S'Tavon Austin'
p470
sg15
S'2014'
p471
sg17
g151
sg19
S'3.5'
p472
sg21
S'10/26'
p473
sg23
S'6.0'
p474
sg25
S'--'
p475
sg26
g51
sg27
S'L7-34'
p476
sg29
S'12'
p477
sg31
g51
sg32
S'@KC'
p478
sg34
g238
sg35
g6
sg36
g53
sssS'2013'
p479
(dp480
g3
(dp481
g5
g234
sg7
g234
sg9
g234
sg11
g234
sg12
g234
sg13
S'Tavon Austin'
p482
sg15
S'2013'
p483
sg17
S'11'
p484
sg19
g234
sg21
S'Bye'
p485
sg23
g234
sg25
g234
sg26
g234
sg27
g234
sg29
g234
sg31
g234
sg32
g234
sg34
g234
sg35
g234
sg36
g234
ssg38
(dp486
g5
g6
sg7
g53
sg9
g6
sg11
g6
sg12
g10
sg13
S'Tavon Austin'
p487
sg15
S'2013'
p488
sg17
S'10'
p489
sg19
S'4.0'
p490
sg21
S'11/10'
p491
sg23
S'69.0'
p492
sg25
g10
sg26
g10
sg27
S'W38-8'
p493
sg29
S'138'
p494
sg31
g51
sg32
S'@IND'
p495
sg34
S'81T'
p496
sg35
g51
sg36
g53
ssg55
(dp497
g5
g6
sg7
S'10'
p498
sg9
g10
sg11
S'--'
p499
sg12
g10
sg13
S'Tavon Austin'
p500
sg15
S'2013'
p501
sg17
S'13'
p502
sg19
S'10.0'
p503
sg21
S'12/01'
p504
sg23
S'6.3'
p505
sg25
S'--'
p506
sg26
g10
sg27
S'L13-23'
p507
sg29
S'25'
p508
sg31
g53
sg32
S'@SF'
p509
sg34
g151
sg35
g6
sg36
S'10'
p510
ssg71
(dp511
g5
g10
sg7
S'65'
p512
sg9
g6
sg11
S'--'
p513
sg12
g10
sg13
S'Tavon Austin'
p514
sg15
S'2013'
p515
sg17
S'12'
p516
sg19
S'65.0'
p517
sg21
S'11/24'
p518
sg23
S'19.5'
p519
sg25
S'--'
p520
sg26
g10
sg27
S'W42-21'
p521
sg29
S'39'
p522
sg31
g51
sg32
S'CHI'
p523
sg34
S'32'
p524
sg35
g6
sg36
S'65T'
p525
ssg88
(dp526
g5
S'--'
p527
sg7
S'--'
p528
sg9
g6
sg11
S'--'
p529
sg12
g6
sg13
S'Tavon Austin'
p530
sg15
S'2013'
p531
sg17
S'15'
p532
sg19
S'--'
p533
sg21
S'12/15'
p534
sg23
S'--'
p535
sg25
S'--'
p536
sg26
S'--'
p537
sg27
S'W27-16'
p538
sg29
S'--'
p539
sg31
S'--'
p540
sg32
S'NO'
p541
sg34
S'--'
p542
sg35
S'--'
p543
sg36
S'--'
p544
ssg104
(dp545
g5
g6
sg7
S'56'
p546
sg9
g6
sg11
S'--'
p547
sg12
g10
sg13
S'Tavon Austin'
p548
sg15
S'2013'
p549
sg17
S'14'
p550
sg19
S'56.0'
p551
sg21
S'12/08'
p552
sg23
S'9.0'
p553
sg25
S'--'
p554
sg26
g10
sg27
S'L10-30'
p555
sg29
g238
sg31
g10
sg32
S'@ARI'
p556
sg34
g238
sg35
g6
sg36
S'56'
p557
ssg120
(dp558
g5
S'--'
p559
sg7
S'--'
p560
sg9
g6
sg11
S'--'
p561
sg12
g6
sg13
S'Tavon Austin'
p562
sg15
S'2013'
p563
sg17
S'17'
p564
sg19
S'--'
p565
sg21
S'12/29'
p566
sg23
S'--'
p567
sg25
S'--'
p568
sg26
S'--'
p569
sg27
S'L9-27'
p570
sg29
S'--'
p571
sg31
S'--'
p572
sg32
S'@SEA'
p573
sg34
S'--'
p574
sg35
S'--'
p575
sg36
S'--'
p576
ssg136
(dp577
g5
S'--'
p578
sg7
S'--'
p579
sg9
g6
sg11
S'--'
p580
sg12
g6
sg13
S'Tavon Austin'
p581
sg15
S'2013'
p582
sg17
S'16'
p583
sg19
S'--'
p584
sg21
S'12/22'
p585
sg23
S'--'
p586
sg25
S'--'
p587
sg26
S'--'
p588
sg27
S'W23-13'
p589
sg29
S'--'
p590
sg31
S'--'
p591
sg32
S'TB'
p592
sg34
S'--'
p593
sg35
S'--'
p594
sg36
S'--'
p595
ssg10
(dp596
g5
g6
sg7
S'-1'
p597
sg9
g6
sg11
S'--'
p598
sg12
g10
sg13
S'Tavon Austin'
p599
sg15
S'2013'
p600
sg17
g10
sg19
S'-1.0'
p601
sg21
S'09/08'
p602
sg23
S'6.8'
p603
sg25
S'--'
p604
sg26
g10
sg27
S'W27-24'
p605
sg29
S'41'
p606
sg31
g84
sg32
S'ARI'
p607
sg34
S'14'
p608
sg35
g6
sg36
S'-1'
p609
ssg49
(dp610
g5
g6
sg7
g49
sg9
g10
sg11
S'--'
p611
sg12
g10
sg13
S'Tavon Austin'
p612
sg15
S'2013'
p613
sg17
g49
sg19
S'3.0'
p614
sg21
S'09/22'
p615
sg23
S'5.0'
p616
sg25
S'--'
p617
sg26
g10
sg27
S'L7-31'
p618
sg29
S'30'
p619
sg31
g84
sg32
S'@DAL'
p620
sg34
g238
sg35
g6
sg36
g49
ssg51
(dp621
g5
g6
sg7
g151
sg9
g10
sg11
S'--'
p622
sg12
g10
sg13
S'Tavon Austin'
p623
sg15
S'2013'
p624
sg17
g51
sg19
S'4.0'
p625
sg21
S'09/15'
p626
sg23
S'7.8'
p627
sg25
S'--'
p628
sg26
g51
sg27
S'L24-31'
p629
sg29
S'47'
p630
sg31
g84
sg32
S'@ATL'
p631
sg34
S'11'
p632
sg35
g51
sg36
g162
ssg30
(dp633
g5
S'--'
p634
sg7
S'--'
p635
sg9
g6
sg11
S'--'
p636
sg12
g10
sg13
S'Tavon Austin'
p637
sg15
S'2013'
p638
sg17
g30
sg19
S'--'
p639
sg21
S'10/06'
p640
sg23
S'10.7'
p641
sg25
S'--'
p642
sg26
S'--'
p643
sg27
S'W34-20'
p644
sg29
S'32'
p645
sg31
g49
sg32
S'JAC'
p646
sg34
S'25'
p647
sg35
g6
sg36
S'--'
p648
ssg53
(dp649
g5
S'--'
p650
sg7
S'--'
p651
sg9
g6
sg11
g6
sg12
g10
sg13
S'Tavon Austin'
p652
sg15
S'2013'
p653
sg17
g53
sg19
S'--'
p654
sg21
S'09/26'
p655
sg23
S'3.0'
p656
sg25
g10
sg26
S'--'
p657
sg27
S'L11-35'
p658
sg29
g84
sg31
g51
sg32
S'SF'
p659
sg34
g53
sg35
g6
sg36
S'--'
p660
ssg162
(dp661
g5
S'--'
p662
sg7
S'--'
p663
sg9
g6
sg11
g10
sg12
g10
sg13
S'Tavon Austin'
p664
sg15
S'2013'
p665
sg17
g162
sg19
S'--'
p666
sg21
S'10/20'
p667
sg23
S'7.8'
p668
sg25
g51
sg26
S'--'
p669
sg27
S'L15-30'
p670
sg29
S'39'
p671
sg31
g30
sg32
S'@CAR'
p672
sg34
S'24'
p673
sg35
g6
sg36
S'--'
p674
ssg84
(dp675
g5
S'--'
p676
sg7
S'--'
p677
sg9
g6
sg11
S'--'
p678
sg12
g10
sg13
S'Tavon Austin'
p679
sg15
S'2013'
p680
sg17
g84
sg19
S'--'
p681
sg21
S'10/13'
p682
sg23
S'3.0'
p683
sg25
S'--'
p684
sg26
S'--'
p685
sg27
S'W38-13'
p686
sg29
g49
sg31
g10
sg32
S'@HOU'
p687
sg34
g49
sg35
g6
sg36
S'--'
p688
ssg238
(dp689
g5
g6
sg7
g84
sg9
g6
sg11
S'--'
p690
sg12
g10
sg13
S'Tavon Austin'
p691
sg15
S'2013'
p692
sg17
g238
sg19
S'6.0'
p693
sg21
S'11/03'
p694
sg23
S'--'
p695
sg25
S'--'
p696
sg26
g10
sg27
S'L21-28'
p697
sg29
g6
sg31
g6
sg32
S'TEN'
p698
sg34
S'--'
p699
sg35
g6
sg36
g84
ssg151
(dp700
g5
S'--'
p701
sg7
S'--'
p702
sg9
g6
sg11
S'--'
p703
sg12
g10
sg13
S'Tavon Austin'
p704
sg15
S'2013'
p705
sg17
g151
sg19
S'--'
p706
sg21
S'10/28'
p707
sg23
S'4.5'
p708
sg25
S'--'
p709
sg26
S'--'
p710
sg27
S'L9-14'
p711
sg29
g238
sg31
g51
sg32
S'SEA'
p712
sg34
S'12'
p713
sg35
g6
sg36
S'--'
p714
sss.