(dp0
S'2015'
p1
(dp2
S'11'
p3
(dp4
S'RushTD'
p5
S'--'
p6
sS'RushYds'
p7
S'--'
p8
sS'GS'
p9
S'0'
p10
sS'Lost'
p11
S'--'
p12
sS'G'
p13
S'1'
p14
sS'Player'
p15
S'Terrance Williams'
p16
sS'Year'
p17
S'2015'
p18
sS'WK'
p19
S'11'
p20
sS'RushAvg'
p21
S'--'
p22
sS'Game Date'
p23
S'11/22'
p24
sS'RecAvg'
p25
S'19.8'
p26
sS'FUM'
p27
S'--'
p28
sS'RushAtt'
p29
S'--'
p30
sS'Result'
p31
S'W24-14'
p32
sS'RecYds'
p33
S'79'
p34
sS'Rec'
p35
S'4'
p36
sS'Opp'
p37
S'@MIA'
p38
sS'RecLng'
p39
S'31T'
p40
sS'RecTD'
p41
g14
sS'RushLng'
p42
S'--'
p43
ssS'10'
p44
(dp45
g5
S'--'
p46
sg7
S'--'
p47
sg9
g14
sg11
S'--'
p48
sg13
g14
sg15
S'Terrance Williams'
p49
sg17
S'2015'
p50
sg19
S'10'
p51
sg21
S'--'
p52
sg23
S'11/15'
p53
sg25
S'16.5'
p54
sg27
S'--'
p55
sg29
S'--'
p56
sg31
S'L6-10'
p57
sg33
S'33'
p58
sg35
S'2'
p59
sg37
S'@TB'
p60
sg39
S'17'
p61
sg41
g10
sg42
S'--'
p62
ssS'13'
p63
(dp64
g5
S'--'
p65
sg7
S'--'
p66
sg9
g14
sg11
S'--'
p67
sg13
g14
sg15
S'Terrance Williams'
p68
sg17
S'2015'
p69
sg19
S'13'
p70
sg21
S'--'
p71
sg23
S'12/07'
p72
sg25
S'31.5'
p73
sg27
S'--'
p74
sg29
S'--'
p75
sg31
S'W19-16'
p76
sg33
S'63'
p77
sg35
g59
sg37
S'@WAS'
p78
sg39
S'38'
p79
sg41
g10
sg42
S'--'
p80
ssS'12'
p81
(dp82
g5
S'--'
p83
sg7
S'--'
p84
sg9
g10
sg11
S'--'
p85
sg13
g14
sg15
S'Terrance Williams'
p86
sg17
S'2015'
p87
sg19
S'12'
p88
sg21
S'--'
p89
sg23
S'11/26'
p90
sg25
S'9.8'
p91
sg27
S'--'
p92
sg29
S'--'
p93
sg31
S'L14-33'
p94
sg33
S'39'
p95
sg35
g36
sg37
S'CAR'
p96
sg39
S'13'
p97
sg41
g10
sg42
S'--'
p98
ssS'15'
p99
(dp100
g5
S'--'
p101
sg7
S'--'
p102
sg9
g14
sg11
S'--'
p103
sg13
g14
sg15
S'Terrance Williams'
p104
sg17
S'2015'
p105
sg19
S'15'
p106
sg21
S'--'
p107
sg23
S'12/19'
p108
sg25
S'6.5'
p109
sg27
S'--'
p110
sg29
S'--'
p111
sg31
S'L16-19'
p112
sg33
S'13'
p113
sg35
g59
sg37
S'NYJ'
p114
sg39
S'14'
p115
sg41
g10
sg42
S'--'
p116
ssS'14'
p117
(dp118
g5
S'--'
p119
sg7
S'--'
p120
sg9
g14
sg11
S'--'
p121
sg13
g14
sg15
S'Terrance Williams'
p122
sg17
S'2015'
p123
sg19
S'14'
p124
sg21
S'--'
p125
sg23
S'12/13'
p126
sg25
S'12.7'
p127
sg27
S'--'
p128
sg29
S'--'
p129
sg31
S'L7-28'
p130
sg33
S'38'
p131
sg35
S'3'
p132
sg37
S'@GB'
p133
sg39
S'19'
p134
sg41
g10
sg42
S'--'
p135
ssS'17'
p136
(dp137
g5
S'--'
p138
sg7
S'--'
p139
sg9
g14
sg11
S'--'
p140
sg13
g14
sg15
S'Terrance Williams'
p141
sg17
S'2015'
p142
sg19
S'17'
p143
sg21
S'--'
p144
sg23
S'01/03'
p145
sg25
S'21.6'
p146
sg27
S'--'
p147
sg29
S'--'
p148
sg31
S'L23-34'
p149
sg33
S'173'
p150
sg35
S'8'
p151
sg37
S'WAS'
p152
sg39
S'36'
p153
sg41
g10
sg42
S'--'
p154
ssS'16'
p155
(dp156
g5
S'--'
p157
sg7
S'--'
p158
sg9
g14
sg11
S'--'
p159
sg13
g14
sg15
S'Terrance Williams'
p160
sg17
S'2015'
p161
sg19
S'16'
p162
sg21
S'--'
p163
sg23
S'12/27'
p164
sg25
S'15.5'
p165
sg27
S'--'
p166
sg29
S'--'
p167
sg31
S'L6-16'
p168
sg33
S'62'
p169
sg35
g36
sg37
S'@BUF'
p170
sg39
S'22'
p171
sg41
g10
sg42
S'--'
p172
ssg14
(dp173
g5
S'--'
p174
sg7
S'--'
p175
sg9
g14
sg11
S'--'
p176
sg13
g14
sg15
S'Terrance Williams'
p177
sg17
S'2015'
p178
sg19
g14
sg21
S'--'
p179
sg23
S'09/13'
p180
sg25
S'12.0'
p181
sg27
S'--'
p182
sg29
S'--'
p183
sg31
S'W27-26'
p184
sg33
S'60'
p185
sg35
S'5'
p186
sg37
S'NYG'
p187
sg39
S'21'
p188
sg41
g10
sg42
S'--'
p189
ssg132
(dp190
g5
S'--'
p191
sg7
S'--'
p192
sg9
g14
sg11
S'--'
p193
sg13
g14
sg15
S'Terrance Williams'
p194
sg17
S'2015'
p195
sg19
g132
sg21
S'--'
p196
sg23
S'09/27'
p197
sg25
S'--'
p198
sg27
S'--'
p199
sg29
S'--'
p200
sg31
S'L28-39'
p201
sg33
g10
sg35
g10
sg37
S'ATL'
p202
sg39
S'--'
p203
sg41
g10
sg42
S'--'
p204
ssg59
(dp205
g5
S'--'
p206
sg7
S'--'
p207
sg9
g14
sg11
S'--'
p208
sg13
g14
sg15
S'Terrance Williams'
p209
sg17
S'2015'
p210
sg19
g59
sg21
S'--'
p211
sg23
S'09/20'
p212
sg25
S'21.0'
p213
sg27
S'--'
p214
sg29
S'--'
p215
sg31
S'W20-10'
p216
sg33
S'84'
p217
sg35
g36
sg37
S'@PHI'
p218
sg39
S'42T'
p219
sg41
g14
sg42
S'--'
p220
ssg186
(dp221
g5
S'--'
p222
sg7
S'--'
p223
sg9
g14
sg11
S'--'
p224
sg13
g14
sg15
S'Terrance Williams'
p225
sg17
S'2015'
p226
sg19
g186
sg21
S'--'
p227
sg23
S'10/11'
p228
sg25
S'15.0'
p229
sg27
S'--'
p230
sg29
S'--'
p231
sg31
S'L6-30'
p232
sg33
S'30'
p233
sg35
g59
sg37
S'NE'
p234
sg39
S'17'
p235
sg41
g10
sg42
S'--'
p236
ssg36
(dp237
g5
S'--'
p238
sg7
S'--'
p239
sg9
g14
sg11
S'--'
p240
sg13
g14
sg15
S'Terrance Williams'
p241
sg17
S'2015'
p242
sg19
g36
sg21
S'--'
p243
sg23
S'10/04'
p244
sg25
S'16.3'
p245
sg27
S'--'
p246
sg29
S'--'
p247
sg31
S'L20-26'
p248
sg33
S'49'
p249
sg35
g132
sg37
S'@NO'
p250
sg39
S'24'
p251
sg41
g14
sg42
S'--'
p252
ssS'7'
p253
(dp254
g5
S'--'
p255
sg7
S'--'
p256
sg9
g14
sg11
S'--'
p257
sg13
g14
sg15
S'Terrance Williams'
p258
sg17
S'2015'
p259
sg19
g253
sg21
S'--'
p260
sg23
S'10/25'
p261
sg25
S'17.5'
p262
sg27
S'--'
p263
sg29
S'--'
p264
sg31
S'L20-27'
p265
sg33
S'70'
p266
sg35
g36
sg37
S'@NYG'
p267
sg39
S'27'
p268
sg41
g10
sg42
S'--'
p269
ssS'6'
p270
(dp271
g5
S''
p272
sg7
g272
sg9
g272
sg11
g272
sg13
g272
sg15
S'Terrance Williams'
p273
sg17
S'2015'
p274
sg19
g270
sg21
g272
sg23
S'Bye'
p275
sg25
g272
sg27
g272
sg29
g272
sg31
g272
sg33
g272
sg35
g272
sg37
g272
sg39
g272
sg41
g272
sg42
g272
ssS'9'
p276
(dp277
g5
S'--'
p278
sg7
S'--'
p279
sg9
g14
sg11
S'--'
p280
sg13
g14
sg15
S'Terrance Williams'
p281
sg17
S'2015'
p282
sg19
g276
sg21
S'--'
p283
sg23
S'11/08'
p284
sg25
S'9.0'
p285
sg27
S'--'
p286
sg29
S'--'
p287
sg31
S'L27-33'
p288
sg33
S'27'
p289
sg35
g132
sg37
S'PHI'
p290
sg39
S'11'
p291
sg41
g10
sg42
S'--'
p292
ssg151
(dp293
g5
S'--'
p294
sg7
S'--'
p295
sg9
g10
sg11
S'--'
p296
sg13
g14
sg15
S'Terrance Williams'
p297
sg17
S'2015'
p298
sg19
g151
sg21
S'--'
p299
sg23
S'11/01'
p300
sg25
S'10.0'
p301
sg27
S'--'
p302
sg29
S'--'
p303
sg31
S'L12-13'
p304
sg33
S'20'
p305
sg35
g59
sg37
S'SEA'
p306
sg39
S'15'
p307
sg41
g10
sg42
S'--'
p308
sssS'2014'
p309
(dp310
g3
(dp311
g5
g272
sg7
g272
sg9
g272
sg11
g272
sg13
g272
sg15
S'Terrance Williams'
p312
sg17
S'2014'
p313
sg19
S'11'
p314
sg21
g272
sg23
S'Bye'
p315
sg25
g272
sg27
g272
sg29
g272
sg31
g272
sg33
g272
sg35
g272
sg37
g272
sg39
g272
sg41
g272
sg42
g272
ssg44
(dp316
g5
S'--'
p317
sg7
S'--'
p318
sg9
g14
sg11
S'--'
p319
sg13
g14
sg15
S'Terrance Williams'
p320
sg17
S'2014'
p321
sg19
S'10'
p322
sg21
S'--'
p323
sg23
S'11/09'
p324
sg25
S'--'
p325
sg27
S'--'
p326
sg29
S'--'
p327
sg31
S'W31-17'
p328
sg33
g10
sg35
g10
sg37
S'@JAC'
p329
sg39
S'--'
p330
sg41
g10
sg42
S'--'
p331
ssg63
(dp332
g5
S'--'
p333
sg7
S'--'
p334
sg9
g14
sg11
S'--'
p335
sg13
g14
sg15
S'Terrance Williams'
p336
sg17
S'2014'
p337
sg19
S'13'
p338
sg21
S'--'
p339
sg23
S'11/27'
p340
sg25
S'19.0'
p341
sg27
S'--'
p342
sg29
S'--'
p343
sg31
S'L10-33'
p344
sg33
S'38'
p345
sg35
g59
sg37
S'PHI'
p346
sg39
S'20'
p347
sg41
g10
sg42
S'--'
p348
ssg81
(dp349
g5
S'--'
p350
sg7
S'--'
p351
sg9
g14
sg11
S'--'
p352
sg13
g14
sg15
S'Terrance Williams'
p353
sg17
S'2014'
p354
sg19
S'12'
p355
sg21
S'--'
p356
sg23
S'11/23'
p357
sg25
S'18.0'
p358
sg27
S'--'
p359
sg29
S'--'
p360
sg31
S'W31-28'
p361
sg33
S'18'
p362
sg35
g14
sg37
S'@NYG'
p363
sg39
S'18'
p364
sg41
g10
sg42
S'--'
p365
ssg99
(dp366
g5
S'--'
p367
sg7
S'--'
p368
sg9
g14
sg11
S'--'
p369
sg13
g14
sg15
S'Terrance Williams'
p370
sg17
S'2014'
p371
sg19
S'15'
p372
sg21
S'--'
p373
sg23
S'12/14'
p374
sg25
S'9.5'
p375
sg27
S'--'
p376
sg29
S'--'
p377
sg31
S'W38-27'
p378
sg33
S'19'
p379
sg35
g59
sg37
S'@PHI'
p380
sg39
S'11'
p381
sg41
g10
sg42
S'--'
p382
ssg117
(dp383
g5
S'--'
p384
sg7
S'--'
p385
sg9
g14
sg11
S'--'
p386
sg13
g14
sg15
S'Terrance Williams'
p387
sg17
S'2014'
p388
sg19
S'14'
p389
sg21
S'--'
p390
sg23
S'12/04'
p391
sg25
S'--'
p392
sg27
S'--'
p393
sg29
S'--'
p394
sg31
S'W41-28'
p395
sg33
S'--'
p396
sg35
S'--'
p397
sg37
S'@CHI'
p398
sg39
S'--'
p399
sg41
S'--'
p400
sg42
S'--'
p401
ssg136
(dp402
g5
S'--'
p403
sg7
S'--'
p404
sg9
g14
sg11
S'--'
p405
sg13
g14
sg15
S'Terrance Williams'
p406
sg17
S'2014'
p407
sg19
S'17'
p408
sg21
S'--'
p409
sg23
S'12/28'
p410
sg25
S'22.7'
p411
sg27
S'--'
p412
sg29
S'--'
p413
sg31
S'W44-17'
p414
sg33
S'68'
p415
sg35
g132
sg37
S'@WAS'
p416
sg39
S'51'
p417
sg41
g10
sg42
S'--'
p418
ssg155
(dp419
g5
S'--'
p420
sg7
S'--'
p421
sg9
g14
sg11
S'--'
p422
sg13
g14
sg15
S'Terrance Williams'
p423
sg17
S'2014'
p424
sg19
S'16'
p425
sg21
S'--'
p426
sg23
S'12/21'
p427
sg25
S'26.0'
p428
sg27
S'--'
p429
sg29
S'--'
p430
sg31
S'W42-7'
p431
sg33
S'52'
p432
sg35
g59
sg37
S'IND'
p433
sg39
S'43T'
p434
sg41
g59
sg42
S'--'
p435
ssg14
(dp436
g5
S'--'
p437
sg7
S'--'
p438
sg9
g14
sg11
S'--'
p439
sg13
g14
sg15
S'Terrance Williams'
p440
sg17
S'2014'
p441
sg19
g14
sg21
S'--'
p442
sg23
S'09/07'
p443
sg25
S'12.5'
p444
sg27
S'--'
p445
sg29
S'--'
p446
sg31
S'L17-28'
p447
sg33
S'50'
p448
sg35
g36
sg37
S'SF'
p449
sg39
S'21'
p450
sg41
g14
sg42
S'--'
p451
ssg132
(dp452
g5
S'--'
p453
sg7
S'--'
p454
sg9
g14
sg11
S'--'
p455
sg13
g14
sg15
S'Terrance Williams'
p456
sg17
S'2014'
p457
sg19
g132
sg21
S'--'
p458
sg23
S'09/21'
p459
sg25
S'16.0'
p460
sg27
S'--'
p461
sg29
S'--'
p462
sg31
S'W34-31'
p463
sg33
S'32'
p464
sg35
g59
sg37
S'@STL'
p465
sg39
S'20'
p466
sg41
g14
sg42
S'--'
p467
ssg59
(dp468
g5
S'--'
p469
sg7
S'--'
p470
sg9
g14
sg11
S'--'
p471
sg13
g14
sg15
S'Terrance Williams'
p472
sg17
S'2014'
p473
sg19
g59
sg21
S'--'
p474
sg23
S'09/14'
p475
sg25
S'10.0'
p476
sg27
S'--'
p477
sg29
S'--'
p478
sg31
S'W26-10'
p479
sg33
S'20'
p480
sg35
g59
sg37
S'@TEN'
p481
sg39
S'12'
p482
sg41
g10
sg42
S'--'
p483
ssg186
(dp484
g5
S'--'
p485
sg7
S'--'
p486
sg9
g14
sg11
S'--'
p487
sg13
g14
sg15
S'Terrance Williams'
p488
sg17
S'2014'
p489
sg19
g186
sg21
S'--'
p490
sg23
S'10/05'
p491
sg25
S'35.5'
p492
sg27
S'--'
p493
sg29
S'--'
p494
sg31
S'W20-17'
p495
sg33
S'71'
p496
sg35
g59
sg37
S'HOU'
p497
sg39
S'43T'
p498
sg41
g14
sg42
S'--'
p499
ssg36
(dp500
g5
S'--'
p501
sg7
S'--'
p502
sg9
g14
sg11
S'--'
p503
sg13
g14
sg15
S'Terrance Williams'
p504
sg17
S'2014'
p505
sg19
g36
sg21
S'--'
p506
sg23
S'09/28'
p507
sg25
S'12.8'
p508
sg27
S'--'
p509
sg29
S'--'
p510
sg31
S'W38-17'
p511
sg33
S'77'
p512
sg35
g270
sg37
S'NO'
p513
sg39
S'23T'
p514
sg41
g59
sg42
S'--'
p515
ssg253
(dp516
g5
S'--'
p517
sg7
S'--'
p518
sg9
g14
sg11
S'--'
p519
sg13
g14
sg15
S'Terrance Williams'
p520
sg17
S'2014'
p521
sg19
g253
sg21
S'--'
p522
sg23
S'10/19'
p523
sg25
S'18.0'
p524
sg27
S'--'
p525
sg29
S'--'
p526
sg31
S'W31-21'
p527
sg33
S'18'
p528
sg35
g14
sg37
S'NYG'
p529
sg39
S'18T'
p530
sg41
g14
sg42
S'--'
p531
ssg270
(dp532
g5
S'--'
p533
sg7
S'--'
p534
sg9
g14
sg11
S'--'
p535
sg13
g14
sg15
S'Terrance Williams'
p536
sg17
S'2014'
p537
sg19
g270
sg21
S'--'
p538
sg23
S'10/12'
p539
sg25
S'35.0'
p540
sg27
S'--'
p541
sg29
S'--'
p542
sg31
S'W30-23'
p543
sg33
S'70'
p544
sg35
g59
sg37
S'@SEA'
p545
sg39
S'47'
p546
sg41
g10
sg42
S'--'
p547
ssg276
(dp548
g5
S'--'
p549
sg7
S'--'
p550
sg9
g14
sg11
S'--'
p551
sg13
g14
sg15
S'Terrance Williams'
p552
sg17
S'2014'
p553
sg19
g276
sg21
S'--'
p554
sg23
S'11/02'
p555
sg25
S'9.5'
p556
sg27
S'--'
p557
sg29
S'--'
p558
sg31
S'L17-28'
p559
sg33
S'19'
p560
sg35
g59
sg37
S'ARI'
p561
sg39
S'11'
p562
sg41
g10
sg42
S'--'
p563
ssg151
(dp564
g5
S'--'
p565
sg7
S'--'
p566
sg9
g14
sg11
S'--'
p567
sg13
g14
sg15
S'Terrance Williams'
p568
sg17
S'2014'
p569
sg19
g151
sg21
S'--'
p570
sg23
S'10/27'
p571
sg25
S'11.5'
p572
sg27
S'--'
p573
sg29
S'--'
p574
sg31
S'L17-20'
p575
sg33
S'69'
p576
sg35
g270
sg37
S'WAS'
p577
sg39
S'18'
p578
sg41
g10
sg42
S'--'
p579
sssS'2013'
p580
(dp581
g3
(dp582
g5
g272
sg7
g272
sg9
g272
sg11
g272
sg13
g272
sg15
S'Terrance Williams'
p583
sg17
S'2013'
p584
sg19
S'11'
p585
sg21
g272
sg23
S'Bye'
p586
sg25
g272
sg27
g272
sg29
g272
sg31
g272
sg33
g272
sg35
g272
sg37
g272
sg39
g272
sg41
g272
sg42
g272
ssg44
(dp587
g5
S'--'
p588
sg7
S'--'
p589
sg9
g10
sg11
S'--'
p590
sg13
g14
sg15
S'Terrance Williams'
p591
sg17
S'2013'
p592
sg19
S'10'
p593
sg21
S'--'
p594
sg23
S'11/10'
p595
sg25
S'21.0'
p596
sg27
S'--'
p597
sg29
S'--'
p598
sg31
S'L17-49'
p599
sg33
S'21'
p600
sg35
g14
sg37
S'@NO'
p601
sg39
S'21T'
p602
sg41
g14
sg42
S'--'
p603
ssg63
(dp604
g5
S'--'
p605
sg7
S'--'
p606
sg9
g10
sg11
g14
sg13
g14
sg15
S'Terrance Williams'
p607
sg17
S'2013'
p608
sg19
S'13'
p609
sg21
S'--'
p610
sg23
S'11/28'
p611
sg25
S'7.7'
p612
sg27
g14
sg29
S'--'
p613
sg31
S'W31-24'
p614
sg33
S'23'
p615
sg35
g132
sg37
S'OAK'
p616
sg39
S'14'
p617
sg41
g10
sg42
S'--'
p618
ssg81
(dp619
g5
S'--'
p620
sg7
S'--'
p621
sg9
g14
sg11
S'--'
p622
sg13
g14
sg15
S'Terrance Williams'
p623
sg17
S'2013'
p624
sg19
S'12'
p625
sg21
S'--'
p626
sg23
S'11/24'
p627
sg25
S'10.0'
p628
sg27
S'--'
p629
sg29
S'--'
p630
sg31
S'W24-21'
p631
sg33
S'10'
p632
sg35
g14
sg37
S'@NYG'
p633
sg39
S'10'
p634
sg41
g10
sg42
S'--'
p635
ssg99
(dp636
g5
S'--'
p637
sg7
S'--'
p638
sg9
g10
sg11
S'--'
p639
sg13
g14
sg15
S'Terrance Williams'
p640
sg17
S'2013'
p641
sg19
S'15'
p642
sg21
S'--'
p643
sg23
S'12/15'
p644
sg25
S'11.5'
p645
sg27
S'--'
p646
sg29
S'--'
p647
sg31
S'L36-37'
p648
sg33
S'46'
p649
sg35
g36
sg37
S'GB'
p650
sg39
S'27'
p651
sg41
g10
sg42
S'--'
p652
ssg117
(dp653
g5
S'--'
p654
sg7
S'--'
p655
sg9
g10
sg11
S'--'
p656
sg13
g14
sg15
S'Terrance Williams'
p657
sg17
S'2013'
p658
sg19
S'14'
p659
sg21
S'--'
p660
sg23
S'12/09'
p661
sg25
S'18.0'
p662
sg27
S'--'
p663
sg29
S'--'
p664
sg31
S'L28-45'
p665
sg33
S'36'
p666
sg35
g59
sg37
S'@CHI'
p667
sg39
S'18'
p668
sg41
g10
sg42
S'--'
p669
ssg136
(dp670
g5
S'--'
p671
sg7
S'--'
p672
sg9
g14
sg11
S'--'
p673
sg13
g14
sg15
S'Terrance Williams'
p674
sg17
S'2013'
p675
sg19
S'17'
p676
sg21
S'--'
p677
sg23
S'12/29'
p678
sg25
S'39.0'
p679
sg27
S'--'
p680
sg29
S'--'
p681
sg31
S'L22-24'
p682
sg33
S'39'
p683
sg35
g14
sg37
S'PHI'
p684
sg39
S'39'
p685
sg41
g10
sg42
S'--'
p686
ssg155
(dp687
g5
S'--'
p688
sg7
S'--'
p689
sg9
g14
sg11
S'--'
p690
sg13
g14
sg15
S'Terrance Williams'
p691
sg17
S'2013'
p692
sg19
S'16'
p693
sg21
S'--'
p694
sg23
S'12/22'
p695
sg25
S'21.0'
p696
sg27
S'--'
p697
sg29
S'--'
p698
sg31
S'W24-23'
p699
sg33
S'84'
p700
sg35
g36
sg37
S'@WAS'
p701
sg39
S'51'
p702
sg41
g10
sg42
S'--'
p703
ssg14
(dp704
g5
S'--'
p705
sg7
S'--'
p706
sg9
g14
sg11
S'--'
p707
sg13
g14
sg15
S'Terrance Williams'
p708
sg17
S'2013'
p709
sg19
g14
sg21
S'--'
p710
sg23
S'09/08'
p711
sg25
S'16.0'
p712
sg27
S'--'
p713
sg29
S'--'
p714
sg31
S'W36-31'
p715
sg33
S'32'
p716
sg35
g59
sg37
S'NYG'
p717
sg39
S'23'
p718
sg41
g10
sg42
S'--'
p719
ssg132
(dp720
g5
S'--'
p721
sg7
S'--'
p722
sg9
g10
sg11
S'--'
p723
sg13
g14
sg15
S'Terrance Williams'
p724
sg17
S'2013'
p725
sg19
g132
sg21
S'--'
p726
sg23
S'09/22'
p727
sg25
S'--'
p728
sg27
S'--'
p729
sg29
S'--'
p730
sg31
S'W31-7'
p731
sg33
S'--'
p732
sg35
S'--'
p733
sg37
S'STL'
p734
sg39
S'--'
p735
sg41
S'--'
p736
sg42
S'--'
p737
ssg59
(dp738
g5
g10
sg7
S'-3'
p739
sg9
g10
sg11
S'--'
p740
sg13
g14
sg15
S'Terrance Williams'
p741
sg17
S'2013'
p742
sg19
g59
sg21
S'-3.0'
p743
sg23
S'09/15'
p744
sg25
S'9.3'
p745
sg27
S'--'
p746
sg29
g14
sg31
S'L16-17'
p747
sg33
S'28'
p748
sg35
g132
sg37
S'@KC'
p749
sg39
S'20'
p750
sg41
g10
sg42
S'-3'
p751
ssg186
(dp752
g5
g10
sg7
g59
sg9
g14
sg11
S'--'
p753
sg13
g14
sg15
S'Terrance Williams'
p754
sg17
S'2013'
p755
sg19
g186
sg21
S'2.0'
p756
sg23
S'10/06'
p757
sg25
S'37.8'
p758
sg27
S'--'
p759
sg29
g14
sg31
S'L48-51'
p760
sg33
S'151'
p761
sg35
g36
sg37
S'DEN'
p762
sg39
S'82T'
p763
sg41
g14
sg42
g59
ssg36
(dp764
g5
S'--'
p765
sg7
S'--'
p766
sg9
g10
sg11
g14
sg13
g14
sg15
S'Terrance Williams'
p767
sg17
S'2013'
p768
sg19
g36
sg21
S'--'
p769
sg23
S'09/29'
p770
sg25
S'10.1'
p771
sg27
g14
sg29
S'--'
p772
sg31
S'L21-30'
p773
sg33
S'71'
p774
sg35
g253
sg37
S'@SD'
p775
sg39
S'14'
p776
sg41
g10
sg42
S'--'
p777
ssg253
(dp778
g5
S'--'
p779
sg7
S'--'
p780
sg9
g14
sg11
S'--'
p781
sg13
g14
sg15
S'Terrance Williams'
p782
sg17
S'2013'
p783
sg19
g253
sg21
S'--'
p784
sg23
S'10/20'
p785
sg25
S'11.8'
p786
sg27
S'--'
p787
sg29
S'--'
p788
sg31
S'W17-3'
p789
sg33
S'71'
p790
sg35
g270
sg37
S'@PHI'
p791
sg39
S'25'
p792
sg41
g14
sg42
S'--'
p793
ssg270
(dp794
g5
S'--'
p795
sg7
S'--'
p796
sg9
g10
sg11
S'--'
p797
sg13
g14
sg15
S'Terrance Williams'
p798
sg17
S'2013'
p799
sg19
g270
sg21
S'--'
p800
sg23
S'10/13'
p801
sg25
S'13.5'
p802
sg27
S'--'
p803
sg29
S'--'
p804
sg31
S'W31-16'
p805
sg33
S'27'
p806
sg35
g59
sg37
S'WAS'
p807
sg39
S'15T'
p808
sg41
g14
sg42
S'--'
p809
ssg276
(dp810
g5
S'--'
p811
sg7
S'--'
p812
sg9
g14
sg11
S'--'
p813
sg13
g14
sg15
S'Terrance Williams'
p814
sg17
S'2013'
p815
sg19
g276
sg21
S'--'
p816
sg23
S'11/03'
p817
sg25
S'16.5'
p818
sg27
S'--'
p819
sg29
S'--'
p820
sg31
S'W27-23'
p821
sg33
S'33'
p822
sg35
g59
sg37
S'MIN'
p823
sg39
S'29'
p824
sg41
g10
sg42
S'--'
p825
ssg151
(dp826
g5
g10
sg7
g186
sg9
g14
sg11
S'--'
p827
sg13
g14
sg15
S'Terrance Williams'
p828
sg17
S'2013'
p829
sg19
g151
sg21
S'5.0'
p830
sg23
S'10/27'
p831
sg25
S'32.0'
p832
sg27
S'--'
p833
sg29
g14
sg31
S'L30-31'
p834
sg33
S'64'
p835
sg35
g59
sg37
S'@DET'
p836
sg39
S'60T'
p837
sg41
g14
sg42
g186
sss.