(dp0
S'2015'
p1
(dp2
S'3'
p3
(dp4
S'RushTD'
p5
S'--'
p6
sS'RushYds'
p7
S'--'
p8
sS'GS'
p9
S'0'
p10
sS'Lost'
p11
S'--'
p12
sS'G'
p13
S'1'
p14
sS'Player'
p15
S'Tony Washington'
p16
sS'Year'
p17
S'2015'
p18
sS'WK'
p19
g3
sS'RushAvg'
p20
S'--'
p21
sS'Game Date'
p22
S'09/27'
p23
sS'RecAvg'
p24
S'--'
p25
sS'FUM'
p26
S'--'
p27
sS'RushAtt'
p28
S'--'
p29
sS'Result'
p30
S'L17-51'
p31
sS'RecYds'
p32
S'--'
p33
sS'Rec'
p34
S'--'
p35
sS'Opp'
p36
S'@NE'
p37
sS'RecLng'
p38
S'--'
p39
sS'RecTD'
p40
S'--'
p41
sS'RushLng'
p42
S'--'
p43
ssS'5'
p44
(dp45
g5
S'--'
p46
sg7
S'--'
p47
sg9
g10
sg11
S'--'
p48
sg13
g14
sg15
S'Tony Washington'
p49
sg17
S'2015'
p50
sg19
g44
sg20
S'--'
p51
sg22
S'10/11'
p52
sg24
S'--'
p53
sg26
S'--'
p54
sg28
S'--'
p55
sg30
S'L31-38'
p56
sg32
S'--'
p57
sg34
S'--'
p58
sg36
S'@TB'
p59
sg38
S'--'
p60
sg40
S'--'
p61
sg42
S'--'
p62
ssS'4'
p63
(dp64
g5
g10
sg7
S'8'
p65
sg9
g10
sg11
S'--'
p66
sg13
g14
sg15
S'Tony Washington'
p67
sg17
S'2015'
p68
sg19
g63
sg20
S'8.0'
p69
sg22
S'10/04'
p70
sg24
S'--'
p71
sg26
S'--'
p72
sg28
g14
sg30
S'L13-16'
p73
sg32
S'--'
p74
sg34
S'--'
p75
sg36
S'@IND'
p76
sg38
S'--'
p77
sg40
S'--'
p78
sg42
g65
ssS'6'
p79
(dp80
g5
S'--'
p81
sg7
S'--'
p82
sg9
g10
sg11
S'--'
p83
sg13
g14
sg15
S'Tony Washington'
p84
sg17
S'2015'
p85
sg19
g79
sg20
S'--'
p86
sg22
S'10/18'
p87
sg24
S'--'
p88
sg26
S'--'
p89
sg28
S'--'
p90
sg30
S'L20-31'
p91
sg32
S'--'
p92
sg34
S'--'
p93
sg36
S'HOU'
p94
sg38
S'--'
p95
sg40
S'--'
p96
sg42
S'--'
p97
sss.