(dp0
S'2015'
p1
(dp2
S'11'
p3
(dp4
S'RushTD'
p5
S''
p6
sS'RushYds'
p7
g6
sS'GS'
p8
g6
sS'Lost'
p9
g6
sS'G'
p10
g6
sS'Player'
p11
S'Travis Benjamin'
p12
sS'Year'
p13
S'2015'
p14
sS'WK'
p15
S'11'
p16
sS'RushAvg'
p17
g6
sS'Game Date'
p18
S'Bye'
p19
sS'RecAvg'
p20
g6
sS'FUM'
p21
g6
sS'RushAtt'
p22
g6
sS'Result'
p23
g6
sS'RecYds'
p24
g6
sS'Rec'
p25
g6
sS'Opp'
p26
g6
sS'RecLng'
p27
g6
sS'RecTD'
p28
g6
sS'RushLng'
p29
g6
ssS'10'
p30
(dp31
g5
S'0'
p32
sg7
S'-7'
p33
sg8
S'1'
p34
sg9
S'--'
p35
sg10
g34
sg11
S'Travis Benjamin'
p36
sg13
S'2015'
p37
sg15
S'10'
p38
sg17
S'-7.0'
p39
sg18
S'11/15'
p40
sg20
S'16.1'
p41
sg21
S'--'
p42
sg22
g34
sg23
S'L9-30'
p43
sg24
S'113'
p44
sg25
S'7'
p45
sg26
S'@PIT'
p46
sg27
S'61'
p47
sg28
g32
sg29
S'-7'
p48
ssS'13'
p49
(dp50
g5
S'--'
p51
sg7
S'--'
p52
sg8
g34
sg9
S'--'
p53
sg10
g34
sg11
S'Travis Benjamin'
p54
sg13
S'2015'
p55
sg15
S'13'
p56
sg17
S'--'
p57
sg18
S'12/06'
p58
sg20
S'--'
p59
sg21
S'--'
p60
sg22
S'--'
p61
sg23
S'L3-37'
p62
sg24
g32
sg25
g32
sg26
S'CIN'
p63
sg27
S'--'
p64
sg28
g32
sg29
S'--'
p65
ssS'12'
p66
(dp67
g5
g32
sg7
S'10'
p68
sg8
g34
sg9
S'--'
p69
sg10
g34
sg11
S'Travis Benjamin'
p70
sg13
S'2015'
p71
sg15
S'12'
p72
sg17
S'10.0'
p73
sg18
S'11/30'
p74
sg20
S'15.0'
p75
sg21
S'--'
p76
sg22
g34
sg23
S'L27-33'
p77
sg24
S'90'
p78
sg25
S'6'
p79
sg26
S'BAL'
p80
sg27
S'42T'
p81
sg28
g34
sg29
S'10'
p82
ssS'15'
p83
(dp84
g5
g32
sg7
S'9'
p85
sg8
g34
sg9
S'--'
p86
sg10
g34
sg11
S'Travis Benjamin'
p87
sg13
S'2015'
p88
sg15
S'15'
p89
sg17
S'9.0'
p90
sg18
S'12/20'
p91
sg20
S'8.7'
p92
sg21
S'--'
p93
sg22
g34
sg23
S'L13-30'
p94
sg24
S'26'
p95
sg25
S'3'
p96
sg26
S'@SEA'
p97
sg27
S'13'
p98
sg28
g32
sg29
g85
ssS'14'
p99
(dp100
g5
S'--'
p101
sg7
S'--'
p102
sg8
g34
sg9
g32
sg10
g34
sg11
S'Travis Benjamin'
p103
sg13
S'2015'
p104
sg15
S'14'
p105
sg17
S'--'
p106
sg18
S'12/13'
p107
sg20
S'10.3'
p108
sg21
g34
sg22
S'--'
p109
sg23
S'W24-10'
p110
sg24
S'41'
p111
sg25
S'4'
p112
sg26
S'SF'
p113
sg27
S'24'
p114
sg28
g32
sg29
S'--'
p115
ssS'17'
p116
(dp117
g5
g32
sg7
g32
sg8
g34
sg9
S'--'
p118
sg10
g34
sg11
S'Travis Benjamin'
p119
sg13
S'2015'
p120
sg15
S'17'
p121
sg17
S'0.0'
p122
sg18
S'01/03'
p123
sg20
S'10.6'
p124
sg21
S'--'
p125
sg22
g34
sg23
S'L12-28'
p126
sg24
S'53'
p127
sg25
S'5'
p128
sg26
S'PIT'
p129
sg27
S'15'
p130
sg28
g32
sg29
g32
ssS'16'
p131
(dp132
g5
S'--'
p133
sg7
S'--'
p134
sg8
g34
sg9
S'--'
p135
sg10
g34
sg11
S'Travis Benjamin'
p136
sg13
S'2015'
p137
sg15
S'16'
p138
sg17
S'--'
p139
sg18
S'12/27'
p140
sg20
S'10.0'
p141
sg21
S'--'
p142
sg22
S'--'
p143
sg23
S'L13-17'
p144
sg24
S'20'
p145
sg25
S'2'
p146
sg26
S'@KC'
p147
sg27
S'12'
p148
sg28
g32
sg29
S'--'
p149
ssg34
(dp150
g5
S'--'
p151
sg7
S'--'
p152
sg8
g34
sg9
S'--'
p153
sg10
g34
sg11
S'Travis Benjamin'
p154
sg13
S'2015'
p155
sg15
g34
sg17
S'--'
p156
sg18
S'09/13'
p157
sg20
S'29.7'
p158
sg21
S'--'
p159
sg22
S'--'
p160
sg23
S'L10-31'
p161
sg24
S'89'
p162
sg25
g96
sg26
S'@NYJ'
p163
sg27
S'54T'
p164
sg28
g34
sg29
S'--'
p165
ssg96
(dp166
g5
S'--'
p167
sg7
S'--'
p168
sg8
g32
sg9
g34
sg10
g34
sg11
S'Travis Benjamin'
p169
sg13
S'2015'
p170
sg15
g96
sg17
S'--'
p171
sg18
S'09/27'
p172
sg20
S'11.3'
p173
sg21
g34
sg22
S'--'
p174
sg23
S'L20-27'
p175
sg24
S'45'
p176
sg25
g112
sg26
S'OAK'
p177
sg27
S'17'
p178
sg28
g34
sg29
S'--'
p179
ssg146
(dp180
g5
S'--'
p181
sg7
S'--'
p182
sg8
g34
sg9
S'--'
p183
sg10
g34
sg11
S'Travis Benjamin'
p184
sg13
S'2015'
p185
sg15
g146
sg17
S'--'
p186
sg18
S'09/20'
p187
sg20
S'38.3'
p188
sg21
S'--'
p189
sg22
S'--'
p190
sg23
S'W28-14'
p191
sg24
S'115'
p192
sg25
g96
sg26
S'TEN'
p193
sg27
S'60T'
p194
sg28
g146
sg29
S'--'
p195
ssg128
(dp196
g5
S'--'
p197
sg7
S'--'
p198
sg8
g34
sg9
S'--'
p199
sg10
g34
sg11
S'Travis Benjamin'
p200
sg13
S'2015'
p201
sg15
g128
sg17
S'--'
p202
sg18
S'10/11'
p203
sg20
S'13.8'
p204
sg21
S'--'
p205
sg22
S'--'
p206
sg23
S'W33-30'
p207
sg24
S'83'
p208
sg25
g79
sg26
S'@BAL'
p209
sg27
S'25'
p210
sg28
g32
sg29
S'--'
p211
ssg112
(dp212
g5
S'--'
p213
sg7
S'--'
p214
sg8
g34
sg9
S'--'
p215
sg10
g34
sg11
S'Travis Benjamin'
p216
sg13
S'2015'
p217
sg15
g112
sg17
S'--'
p218
sg18
S'10/04'
p219
sg20
S'13.2'
p220
sg21
S'--'
p221
sg22
S'--'
p222
sg23
S'L27-30'
p223
sg24
S'79'
p224
sg25
g79
sg26
S'@SD'
p225
sg27
S'18'
p226
sg28
g32
sg29
S'--'
p227
ssg45
(dp228
g5
S'--'
p229
sg7
S'--'
p230
sg8
g34
sg9
g34
sg10
g34
sg11
S'Travis Benjamin'
p231
sg13
S'2015'
p232
sg15
g45
sg17
S'--'
p233
sg18
S'10/25'
p234
sg20
S'11.8'
p235
sg21
g34
sg22
S'--'
p236
sg23
S'L6-24'
p237
sg24
S'47'
p238
sg25
g112
sg26
S'@STL'
p239
sg27
S'21'
p240
sg28
g32
sg29
S'--'
p241
ssg79
(dp242
g5
S'--'
p243
sg7
S'--'
p244
sg8
g34
sg9
S'--'
p245
sg10
g34
sg11
S'Travis Benjamin'
p246
sg13
S'2015'
p247
sg15
g79
sg17
S'--'
p248
sg18
S'10/18'
p249
sg20
S'13.0'
p250
sg21
S'--'
p251
sg22
S'--'
p252
sg23
S'L23-26'
p253
sg24
S'117'
p254
sg25
g85
sg26
S'DEN'
p255
sg27
S'47'
p256
sg28
g32
sg29
S'--'
p257
ssg85
(dp258
g5
S'--'
p259
sg7
S'--'
p260
sg8
g34
sg9
S'--'
p261
sg10
g34
sg11
S'Travis Benjamin'
p262
sg13
S'2015'
p263
sg15
g85
sg17
S'--'
p264
sg18
S'11/05'
p265
sg20
S'7.3'
p266
sg21
S'--'
p267
sg22
S'--'
p268
sg23
S'L10-31'
p269
sg24
S'22'
p270
sg25
g96
sg26
S'@CIN'
p271
sg27
g85
sg28
g32
sg29
S'--'
p272
ssS'8'
p273
(dp274
g5
S'--'
p275
sg7
S'--'
p276
sg8
g34
sg9
S'--'
p277
sg10
g34
sg11
S'Travis Benjamin'
p278
sg13
S'2015'
p279
sg15
g273
sg17
S'--'
p280
sg18
S'11/01'
p281
sg20
S'8.7'
p282
sg21
S'--'
p283
sg22
S'--'
p284
sg23
S'L20-34'
p285
sg24
S'26'
p286
sg25
g96
sg26
S'ARI'
p287
sg27
S'17'
p288
sg28
g32
sg29
S'--'
p289
sssS'2014'
p290
(dp291
g3
(dp292
g5
S'--'
p293
sg7
S'--'
p294
sg8
g32
sg9
S'--'
p295
sg10
g34
sg11
S'Travis Benjamin'
p296
sg13
S'2014'
p297
sg15
S'11'
p298
sg17
S'--'
p299
sg18
S'11/16'
p300
sg20
S'23.0'
p301
sg21
S'--'
p302
sg22
S'--'
p303
sg23
S'L7-23'
p304
sg24
S'23'
p305
sg25
g34
sg26
S'HOU'
p306
sg27
S'23'
p307
sg28
g32
sg29
S'--'
p308
ssg30
(dp309
g5
S'--'
p310
sg7
S'--'
p311
sg8
g32
sg9
S'--'
p312
sg10
g34
sg11
S'Travis Benjamin'
p313
sg13
S'2014'
p314
sg15
S'10'
p315
sg17
S'--'
p316
sg18
S'11/06'
p317
sg20
S'15.3'
p318
sg21
S'--'
p319
sg22
S'--'
p320
sg23
S'W24-3'
p321
sg24
S'46'
p322
sg25
g96
sg26
S'@CIN'
p323
sg27
S'22'
p324
sg28
g32
sg29
S'--'
p325
ssg49
(dp326
g5
S'--'
p327
sg7
S'--'
p328
sg8
g32
sg9
S'--'
p329
sg10
g34
sg11
S'Travis Benjamin'
p330
sg13
S'2014'
p331
sg15
S'13'
p332
sg17
S'--'
p333
sg18
S'11/30'
p334
sg20
S'--'
p335
sg21
S'--'
p336
sg22
S'--'
p337
sg23
S'L10-26'
p338
sg24
g32
sg25
g32
sg26
S'@BUF'
p339
sg27
S'--'
p340
sg28
g32
sg29
S'--'
p341
ssg66
(dp342
g5
S'--'
p343
sg7
S'--'
p344
sg8
g32
sg9
S'--'
p345
sg10
g34
sg11
S'Travis Benjamin'
p346
sg13
S'2014'
p347
sg15
S'12'
p348
sg17
S'--'
p349
sg18
S'11/23'
p350
sg20
S'--'
p351
sg21
S'--'
p352
sg22
S'--'
p353
sg23
S'W26-24'
p354
sg24
g32
sg25
g32
sg26
S'@ATL'
p355
sg27
S'--'
p356
sg28
g32
sg29
S'--'
p357
ssg83
(dp358
g5
S'--'
p359
sg7
S'--'
p360
sg8
g32
sg9
S'--'
p361
sg10
g34
sg11
S'Travis Benjamin'
p362
sg13
S'2014'
p363
sg15
S'15'
p364
sg17
S'--'
p365
sg18
S'12/14'
p366
sg20
S'9.0'
p367
sg21
S'--'
p368
sg22
S'--'
p369
sg23
S'L0-30'
p370
sg24
g85
sg25
g34
sg26
S'CIN'
p371
sg27
g85
sg28
g32
sg29
S'--'
p372
ssg99
(dp373
g5
S'--'
p374
sg7
S'--'
p375
sg8
g32
sg9
S'--'
p376
sg10
g34
sg11
S'Travis Benjamin'
p377
sg13
S'2014'
p378
sg15
S'14'
p379
sg17
S'--'
p380
sg18
S'12/07'
p381
sg20
S'27.0'
p382
sg21
S'--'
p383
sg22
S'--'
p384
sg23
S'L24-25'
p385
sg24
S'27'
p386
sg25
g34
sg26
S'IND'
p387
sg27
S'27'
p388
sg28
g32
sg29
S'--'
p389
ssg116
(dp390
g5
S'--'
p391
sg7
S'--'
p392
sg8
g32
sg9
S'--'
p393
sg10
g34
sg11
S'Travis Benjamin'
p394
sg13
S'2014'
p395
sg15
S'17'
p396
sg17
S'--'
p397
sg18
S'12/28'
p398
sg20
S'9.0'
p399
sg21
S'--'
p400
sg22
S'--'
p401
sg23
S'L10-20'
p402
sg24
g85
sg25
g34
sg26
S'@BAL'
p403
sg27
g85
sg28
g32
sg29
S'--'
p404
ssg131
(dp405
g5
S'--'
p406
sg7
S'--'
p407
sg8
g32
sg9
S'--'
p408
sg10
g34
sg11
S'Travis Benjamin'
p409
sg13
S'2014'
p410
sg15
S'16'
p411
sg17
S'--'
p412
sg18
S'12/21'
p413
sg20
S'--'
p414
sg21
S'--'
p415
sg22
S'--'
p416
sg23
S'L13-17'
p417
sg24
g32
sg25
g32
sg26
S'@CAR'
p418
sg27
S'--'
p419
sg28
g32
sg29
S'--'
p420
ssg34
(dp421
g5
g32
sg7
S'10'
p422
sg8
g32
sg9
S'--'
p423
sg10
g34
sg11
S'Travis Benjamin'
p424
sg13
S'2014'
p425
sg15
g34
sg17
S'10.0'
p426
sg18
S'09/07'
p427
sg20
S'10.0'
p428
sg21
S'--'
p429
sg22
g34
sg23
S'L27-30'
p430
sg24
S'20'
p431
sg25
g146
sg26
S'@PIT'
p432
sg27
S'11'
p433
sg28
g34
sg29
S'10'
p434
ssg96
(dp435
g5
g32
sg7
S'-2'
p436
sg8
g32
sg9
g32
sg10
g34
sg11
S'Travis Benjamin'
p437
sg13
S'2014'
p438
sg15
g96
sg17
S'-2.0'
p439
sg18
S'09/21'
p440
sg20
S'43.0'
p441
sg21
g34
sg22
g34
sg23
S'L21-23'
p442
sg24
S'43'
p443
sg25
g34
sg26
S'BAL'
p444
sg27
S'43'
p445
sg28
g32
sg29
S'-2'
p446
ssg146
(dp447
g5
S'--'
p448
sg7
S'--'
p449
sg8
g32
sg9
S'--'
p450
sg10
g34
sg11
S'Travis Benjamin'
p451
sg13
S'2014'
p452
sg15
g146
sg17
S'--'
p453
sg18
S'09/14'
p454
sg20
S'6.0'
p455
sg21
S'--'
p456
sg22
S'--'
p457
sg23
S'W26-24'
p458
sg24
g79
sg25
g34
sg26
S'NO'
p459
sg27
g79
sg28
g32
sg29
S'--'
p460
ssg128
(dp461
g5
S'--'
p462
sg7
S'--'
p463
sg8
g32
sg9
S'--'
p464
sg10
g34
sg11
S'Travis Benjamin'
p465
sg13
S'2014'
p466
sg15
g128
sg17
S'--'
p467
sg18
S'10/05'
p468
sg20
S'12.0'
p469
sg21
S'--'
p470
sg22
S'--'
p471
sg23
S'W29-28'
p472
sg24
S'48'
p473
sg25
g112
sg26
S'@TEN'
p474
sg27
S'21'
p475
sg28
g146
sg29
S'--'
p476
ssg112
(dp477
g5
g6
sg7
g6
sg8
g6
sg9
g6
sg10
g6
sg11
S'Travis Benjamin'
p478
sg13
S'2014'
p479
sg15
g112
sg17
g6
sg18
S'Bye'
p480
sg20
g6
sg21
g6
sg22
g6
sg23
g6
sg24
g6
sg25
g6
sg26
g6
sg27
g6
sg28
g6
sg29
g6
ssg45
(dp481
g5
S'--'
p482
sg7
S'--'
p483
sg8
g32
sg9
S'--'
p484
sg10
g34
sg11
S'Travis Benjamin'
p485
sg13
S'2014'
p486
sg15
g45
sg17
S'--'
p487
sg18
S'10/19'
p488
sg20
S'--'
p489
sg21
S'--'
p490
sg22
S'--'
p491
sg23
S'L6-24'
p492
sg24
g32
sg25
g32
sg26
S'@JAC'
p493
sg27
S'--'
p494
sg28
g32
sg29
S'--'
p495
ssg79
(dp496
g5
g32
sg7
g96
sg8
g32
sg9
S'--'
p497
sg10
g34
sg11
S'Travis Benjamin'
p498
sg13
S'2014'
p499
sg15
g79
sg17
S'3.0'
p500
sg18
S'10/12'
p501
sg20
S'31.0'
p502
sg21
S'--'
p503
sg22
g34
sg23
S'W31-10'
p504
sg24
S'31'
p505
sg25
g34
sg26
S'PIT'
p506
sg27
S'31'
p507
sg28
g32
sg29
g96
ssg85
(dp508
g5
S'--'
p509
sg7
S'--'
p510
sg8
g32
sg9
S'--'
p511
sg10
g34
sg11
S'Travis Benjamin'
p512
sg13
S'2014'
p513
sg15
g85
sg17
S'--'
p514
sg18
S'11/02'
p515
sg20
S'26.0'
p516
sg21
S'--'
p517
sg22
S'--'
p518
sg23
S'W22-17'
p519
sg24
S'52'
p520
sg25
g146
sg26
S'TB'
p521
sg27
S'31'
p522
sg28
g32
sg29
S'--'
p523
ssg273
(dp524
g5
S'--'
p525
sg7
S'--'
p526
sg8
g32
sg9
g32
sg10
g34
sg11
S'Travis Benjamin'
p527
sg13
S'2014'
p528
sg15
g273
sg17
S'--'
p529
sg18
S'10/26'
p530
sg20
S'--'
p531
sg21
g34
sg22
S'--'
p532
sg23
S'W23-13'
p533
sg24
g32
sg25
g32
sg26
S'OAK'
p534
sg27
S'--'
p535
sg28
g32
sg29
S'--'
p536
sssS'2013'
p537
(dp538
g34
(dp539
g5
S'--'
p540
sg7
S'--'
p541
sg8
g34
sg9
g32
sg10
g34
sg11
S'Travis Benjamin'
p542
sg13
S'2013'
p543
sg15
g34
sg17
S'--'
p544
sg18
S'09/08'
p545
sg20
S'14.7'
p546
sg21
g34
sg22
S'--'
p547
sg23
S'L10-23'
p548
sg24
S'44'
p549
sg25
g96
sg26
S'MIA'
p550
sg27
S'20'
p551
sg28
g32
sg29
S'--'
p552
ssg96
(dp553
g5
S'--'
p554
sg7
S'--'
p555
sg8
g32
sg9
g34
sg10
g34
sg11
S'Travis Benjamin'
p556
sg13
S'2013'
p557
sg15
g96
sg17
S'--'
p558
sg18
S'09/22'
p559
sg20
S'--'
p560
sg21
g34
sg22
S'--'
p561
sg23
S'W31-27'
p562
sg24
S'--'
p563
sg25
S'--'
p564
sg26
S'@MIN'
p565
sg27
S'--'
p566
sg28
S'--'
p567
sg29
S'--'
p568
ssg146
(dp569
g5
S'--'
p570
sg7
S'--'
p571
sg8
g34
sg9
S'--'
p572
sg10
g34
sg11
S'Travis Benjamin'
p573
sg13
S'2013'
p574
sg15
g146
sg17
S'--'
p575
sg18
S'09/15'
p576
sg20
S'22.0'
p577
sg21
S'--'
p578
sg22
S'--'
p579
sg23
S'L6-14'
p580
sg24
S'22'
p581
sg25
g34
sg26
S'@BAL'
p582
sg27
S'22'
p583
sg28
g32
sg29
S'--'
p584
ssg128
(dp585
g5
S'--'
p586
sg7
S'--'
p587
sg8
g32
sg9
S'--'
p588
sg10
g34
sg11
S'Travis Benjamin'
p589
sg13
S'2013'
p590
sg15
g128
sg17
S'--'
p591
sg18
S'10/03'
p592
sg20
S'--'
p593
sg21
S'--'
p594
sg22
S'--'
p595
sg23
S'W37-24'
p596
sg24
g32
sg25
g32
sg26
S'BUF'
p597
sg27
S'--'
p598
sg28
g32
sg29
S'--'
p599
ssg112
(dp600
g5
S'--'
p601
sg7
S'--'
p602
sg8
g34
sg9
S'--'
p603
sg10
g34
sg11
S'Travis Benjamin'
p604
sg13
S'2013'
p605
sg15
g112
sg17
S'--'
p606
sg18
S'09/29'
p607
sg20
S'39.0'
p608
sg21
S'--'
p609
sg22
S'--'
p610
sg23
S'W17-6'
p611
sg24
S'39'
p612
sg25
g34
sg26
S'CIN'
p613
sg27
S'39'
p614
sg28
g32
sg29
S'--'
p615
ssg45
(dp616
g5
S'--'
p617
sg7
S'--'
p618
sg8
g32
sg9
S'--'
p619
sg10
g34
sg11
S'Travis Benjamin'
p620
sg13
S'2013'
p621
sg15
g45
sg17
S'--'
p622
sg18
S'10/20'
p623
sg20
S'--'
p624
sg21
S'--'
p625
sg22
S'--'
p626
sg23
S'L13-31'
p627
sg24
S'--'
p628
sg25
S'--'
p629
sg26
S'@GB'
p630
sg27
S'--'
p631
sg28
S'--'
p632
sg29
S'--'
p633
ssg79
(dp634
g5
g32
sg7
S'45'
p635
sg8
g32
sg9
S'--'
p636
sg10
g34
sg11
S'Travis Benjamin'
p637
sg13
S'2013'
p638
sg15
g79
sg17
S'45.0'
p639
sg18
S'10/13'
p640
sg20
S'--'
p641
sg21
S'--'
p642
sg22
g34
sg23
S'L17-31'
p643
sg24
g32
sg25
g32
sg26
S'DET'
p644
sg27
S'--'
p645
sg28
g32
sg29
S'45'
p646
ssg273
(dp647
g5
S'--'
p648
sg7
S'--'
p649
sg8
g32
sg9
S'--'
p650
sg10
g34
sg11
S'Travis Benjamin'
p651
sg13
S'2013'
p652
sg15
g273
sg17
S'--'
p653
sg18
S'10/27'
p654
sg20
S'--'
p655
sg21
S'--'
p656
sg22
S'--'
p657
sg23
S'L17-23'
p658
sg24
S'--'
p659
sg25
S'--'
p660
sg26
S'@KC'
p661
sg27
S'--'
p662
sg28
S'--'
p663
sg29
S'--'
p664
sssS'2012'
p665
(dp666
g3
(dp667
g5
S'--'
p668
sg7
S'--'
p669
sg8
g32
sg9
S'--'
p670
sg10
g34
sg11
S'Travis Benjamin'
p671
sg13
S'2012'
p672
sg15
S'11'
p673
sg17
S'--'
p674
sg18
S'11/18'
p675
sg20
S'--'
p676
sg21
S'--'
p677
sg22
S'--'
p678
sg23
S'L20-23'
p679
sg24
S'--'
p680
sg25
S'--'
p681
sg26
S'@DAL'
p682
sg27
S'--'
p683
sg28
S'--'
p684
sg29
S'--'
p685
ssg30
(dp686
g5
g6
sg7
g6
sg8
g6
sg9
g6
sg10
g6
sg11
S'Travis Benjamin'
p687
sg13
S'2012'
p688
sg15
S'10'
p689
sg17
g6
sg18
S'Bye'
p690
sg20
g6
sg21
g6
sg22
g6
sg23
g6
sg24
g6
sg25
g6
sg26
g6
sg27
g6
sg28
g6
sg29
g6
ssg49
(dp691
g5
S'--'
p692
sg7
S'--'
p693
sg8
g32
sg9
S'--'
p694
sg10
g34
sg11
S'Travis Benjamin'
p695
sg13
S'2012'
p696
sg15
S'13'
p697
sg17
S'--'
p698
sg18
S'12/02'
p699
sg20
S'6.0'
p700
sg21
S'--'
p701
sg22
S'--'
p702
sg23
S'W20-17'
p703
sg24
g79
sg25
g34
sg26
S'@OAK'
p704
sg27
g79
sg28
g32
sg29
S'--'
p705
ssg66
(dp706
g5
g32
sg7
g34
sg8
g32
sg9
S'--'
p707
sg10
g34
sg11
S'Travis Benjamin'
p708
sg13
S'2012'
p709
sg15
S'12'
p710
sg17
S'1.0'
p711
sg18
S'11/25'
p712
sg20
S'--'
p713
sg21
S'--'
p714
sg22
g34
sg23
S'W20-14'
p715
sg24
g32
sg25
g32
sg26
S'PIT'
p716
sg27
S'--'
p717
sg28
g32
sg29
g34
ssg83
(dp718
g5
S'--'
p719
sg7
S'--'
p720
sg8
g32
sg9
S'--'
p721
sg10
g34
sg11
S'Travis Benjamin'
p722
sg13
S'2012'
p723
sg15
S'15'
p724
sg17
S'--'
p725
sg18
S'12/16'
p726
sg20
S'69.0'
p727
sg21
S'--'
p728
sg22
S'--'
p729
sg23
S'L21-38'
p730
sg24
S'69'
p731
sg25
g34
sg26
S'WAS'
p732
sg27
S'69T'
p733
sg28
g34
sg29
S'--'
p734
ssg99
(dp735
g5
g32
sg7
S'15'
p736
sg8
g32
sg9
S'--'
p737
sg10
g34
sg11
S'Travis Benjamin'
p738
sg13
S'2012'
p739
sg15
S'14'
p740
sg17
S'15.0'
p741
sg18
S'12/09'
p742
sg20
S'--'
p743
sg21
S'--'
p744
sg22
g34
sg23
S'W30-7'
p745
sg24
S'--'
p746
sg25
S'--'
p747
sg26
S'KC'
p748
sg27
S'--'
p749
sg28
S'--'
p750
sg29
S'15'
p751
ssg116
(dp752
g5
S'--'
p753
sg7
S'--'
p754
sg8
g34
sg9
g34
sg10
g34
sg11
S'Travis Benjamin'
p755
sg13
S'2012'
p756
sg15
S'17'
p757
sg17
S'--'
p758
sg18
S'12/30'
p759
sg20
S'10.8'
p760
sg21
g34
sg22
S'--'
p761
sg23
S'L10-24'
p762
sg24
S'43'
p763
sg25
g112
sg26
S'@PIT'
p764
sg27
S'13'
p765
sg28
g32
sg29
S'--'
p766
ssg131
(dp767
g5
S'--'
p768
sg7
S'--'
p769
sg8
g34
sg9
S'--'
p770
sg10
g34
sg11
S'Travis Benjamin'
p771
sg13
S'2012'
p772
sg15
S'16'
p773
sg17
S'--'
p774
sg18
S'12/23'
p775
sg20
S'15.3'
p776
sg21
S'--'
p777
sg22
S'--'
p778
sg23
S'L12-34'
p779
sg24
S'46'
p780
sg25
g96
sg26
S'@DEN'
p781
sg27
S'21'
p782
sg28
g32
sg29
S'--'
p783
ssg34
(dp784
g5
g32
sg7
S'35'
p785
sg8
g32
sg9
S'--'
p786
sg10
g34
sg11
S'Travis Benjamin'
p787
sg13
S'2012'
p788
sg15
g34
sg17
S'35.0'
p789
sg18
S'09/09'
p790
sg20
S'12.0'
p791
sg21
S'--'
p792
sg22
g34
sg23
S'L16-17'
p793
sg24
S'12'
p794
sg25
g34
sg26
S'PHI'
p795
sg27
S'12'
p796
sg28
g32
sg29
S'35'
p797
ssg96
(dp798
g5
S'--'
p799
sg7
S'--'
p800
sg8
g32
sg9
S'--'
p801
sg10
g34
sg11
S'Travis Benjamin'
p802
sg13
S'2012'
p803
sg15
g96
sg17
S'--'
p804
sg18
S'09/23'
p805
sg20
S'22.0'
p806
sg21
S'--'
p807
sg22
S'--'
p808
sg23
S'L14-24'
p809
sg24
S'44'
p810
sg25
g146
sg26
S'BUF'
p811
sg27
S'22T'
p812
sg28
g34
sg29
S'--'
p813
ssg146
(dp814
g5
g32
sg7
S'15'
p815
sg8
g34
sg9
S'--'
p816
sg10
g34
sg11
S'Travis Benjamin'
p817
sg13
S'2012'
p818
sg15
g146
sg17
S'7.5'
p819
sg18
S'09/16'
p820
sg20
S'--'
p821
sg21
S'--'
p822
sg22
g146
sg23
S'L27-34'
p823
sg24
S'--'
p824
sg25
S'--'
p825
sg26
S'@CIN'
p826
sg27
S'--'
p827
sg28
S'--'
p828
sg29
S'13'
p829
ssg128
(dp830
g5
S'--'
p831
sg7
S'--'
p832
sg8
g32
sg9
S'--'
p833
sg10
g32
sg11
S'Travis Benjamin'
p834
sg13
S'2012'
p835
sg15
g128
sg17
S'--'
p836
sg18
S'10/07'
p837
sg20
S'--'
p838
sg21
S'--'
p839
sg22
S'--'
p840
sg23
S'L27-41'
p841
sg24
S'--'
p842
sg25
S'--'
p843
sg26
S'@NYG'
p844
sg27
S'--'
p845
sg28
S'--'
p846
sg29
S'--'
p847
ssg112
(dp848
g5
g32
sg7
g32
sg8
g32
sg9
S'--'
p849
sg10
g34
sg11
S'Travis Benjamin'
p850
sg13
S'2012'
p851
sg15
g112
sg17
S'0.0'
p852
sg18
S'09/27'
p853
sg20
S'13.0'
p854
sg21
S'--'
p855
sg22
g34
sg23
S'L16-23'
p856
sg24
S'26'
p857
sg25
g146
sg26
S'@BAL'
p858
sg27
S'14'
p859
sg28
g32
sg29
g32
ssg45
(dp860
g5
S'--'
p861
sg7
S'--'
p862
sg8
g32
sg9
S'--'
p863
sg10
g34
sg11
S'Travis Benjamin'
p864
sg13
S'2012'
p865
sg15
g45
sg17
S'--'
p866
sg18
S'10/21'
p867
sg20
S'11.0'
p868
sg21
S'--'
p869
sg22
S'--'
p870
sg23
S'L13-17'
p871
sg24
S'33'
p872
sg25
g96
sg26
S'@IND'
p873
sg27
S'12'
p874
sg28
g32
sg29
S'--'
p875
ssg79
(dp876
g5
S'--'
p877
sg7
S'--'
p878
sg8
g32
sg9
S'--'
p879
sg10
g32
sg11
S'Travis Benjamin'
p880
sg13
S'2012'
p881
sg15
g79
sg17
S'--'
p882
sg18
S'10/14'
p883
sg20
S'--'
p884
sg21
S'--'
p885
sg22
S'--'
p886
sg23
S'W34-24'
p887
sg24
S'--'
p888
sg25
S'--'
p889
sg26
S'CIN'
p890
sg27
S'--'
p891
sg28
S'--'
p892
sg29
S'--'
p893
ssg85
(dp894
g5
S'--'
p895
sg7
S'--'
p896
sg8
g32
sg9
S'--'
p897
sg10
g34
sg11
S'Travis Benjamin'
p898
sg13
S'2012'
p899
sg15
g85
sg17
S'--'
p900
sg18
S'11/04'
p901
sg20
S'19.0'
p902
sg21
S'--'
p903
sg22
S'--'
p904
sg23
S'L15-25'
p905
sg24
S'19'
p906
sg25
g34
sg26
S'BAL'
p907
sg27
S'19'
p908
sg28
g32
sg29
S'--'
p909
ssg273
(dp910
g5
S'--'
p911
sg7
S'--'
p912
sg8
g32
sg9
S'--'
p913
sg10
g34
sg11
S'Travis Benjamin'
p914
sg13
S'2012'
p915
sg15
g273
sg17
S'--'
p916
sg18
S'10/28'
p917
sg20
S'--'
p918
sg21
S'--'
p919
sg22
S'--'
p920
sg23
S'W7-6'
p921
sg24
S'--'
p922
sg25
S'--'
p923
sg26
S'SD'
p924
sg27
S'--'
p925
sg28
S'--'
p926
sg29
S'--'
p927
sss.