(dp0
S'2015'
p1
(dp2
S'11'
p3
(dp4
S'RushTD'
p5
S'--'
p6
sS'RushYds'
p7
S'--'
p8
sS'GS'
p9
S'0'
p10
sS'Lost'
p11
S'--'
p12
sS'G'
p13
S'1'
p14
sS'Player'
p15
S'Tre McBride'
p16
sS'Year'
p17
S'2015'
p18
sS'WK'
p19
S'11'
p20
sS'RushAvg'
p21
S'--'
p22
sS'Game Date'
p23
S'11/19'
p24
sS'RecAvg'
p25
S'--'
p26
sS'FUM'
p27
S'--'
p28
sS'RushAtt'
p29
S'--'
p30
sS'Result'
p31
S'L13-19'
p32
sS'RecYds'
p33
S'--'
p34
sS'Rec'
p35
S'--'
p36
sS'Opp'
p37
S'@JAC'
p38
sS'RecLng'
p39
S'--'
p40
sS'RecTD'
p41
S'--'
p42
sS'RushLng'
p43
S'--'
p44
ssS'13'
p45
(dp46
g5
S'--'
p47
sg7
S'--'
p48
sg9
g10
sg11
S'--'
p49
sg13
g14
sg15
S'Tre McBride'
p50
sg17
S'2015'
p51
sg19
S'13'
p52
sg21
S'--'
p53
sg23
S'12/06'
p54
sg25
S'--'
p55
sg27
S'--'
p56
sg29
S'--'
p57
sg31
S'W42-39'
p58
sg33
S'--'
p59
sg35
S'--'
p60
sg37
S'JAC'
p61
sg39
S'--'
p62
sg41
S'--'
p63
sg43
S'--'
p64
ssS'12'
p65
(dp66
g5
S'--'
p67
sg7
S'--'
p68
sg9
g10
sg11
S'--'
p69
sg13
g14
sg15
S'Tre McBride'
p70
sg17
S'2015'
p71
sg19
S'12'
p72
sg21
S'--'
p73
sg23
S'11/29'
p74
sg25
S'--'
p75
sg27
S'--'
p76
sg29
S'--'
p77
sg31
S'L21-24'
p78
sg33
S'--'
p79
sg35
S'--'
p80
sg37
S'OAK'
p81
sg39
S'--'
p82
sg41
S'--'
p83
sg43
S'--'
p84
ssS'15'
p85
(dp86
g5
S'--'
p87
sg7
S'--'
p88
sg9
g10
sg11
S'--'
p89
sg13
g14
sg15
S'Tre McBride'
p90
sg17
S'2015'
p91
sg19
S'15'
p92
sg21
S'--'
p93
sg23
S'12/20'
p94
sg25
S'--'
p95
sg27
S'--'
p96
sg29
S'--'
p97
sg31
S'L16-33'
p98
sg33
S'--'
p99
sg35
S'--'
p100
sg37
S'@NE'
p101
sg39
S'--'
p102
sg41
S'--'
p103
sg43
S'--'
p104
ssS'14'
p105
(dp106
g5
S'--'
p107
sg7
S'--'
p108
sg9
g10
sg11
S'--'
p109
sg13
g14
sg15
S'Tre McBride'
p110
sg17
S'2015'
p111
sg19
S'14'
p112
sg21
S'--'
p113
sg23
S'12/13'
p114
sg25
S'--'
p115
sg27
S'--'
p116
sg29
S'--'
p117
sg31
S'L8-30'
p118
sg33
S'--'
p119
sg35
S'--'
p120
sg37
S'@NYJ'
p121
sg39
S'--'
p122
sg41
S'--'
p123
sg43
S'--'
p124
ssS'17'
p125
(dp126
g5
g10
sg7
S'8'
p127
sg9
g10
sg11
S'--'
p128
sg13
g14
sg15
S'Tre McBride'
p129
sg17
S'2015'
p130
sg19
S'17'
p131
sg21
S'8.0'
p132
sg23
S'01/03'
p133
sg25
S'--'
p134
sg27
S'--'
p135
sg29
g14
sg31
S'L24-30'
p136
sg33
g10
sg35
g10
sg37
S'@IND'
p137
sg39
S'--'
p138
sg41
g10
sg43
g127
ssS'16'
p139
(dp140
g5
S'--'
p141
sg7
S'--'
p142
sg9
g10
sg11
S'--'
p143
sg13
g14
sg15
S'Tre McBride'
p144
sg17
S'2015'
p145
sg19
S'16'
p146
sg21
S'--'
p147
sg23
S'12/27'
p148
sg25
S'4.0'
p149
sg27
S'--'
p150
sg29
S'--'
p151
sg31
S'L6-34'
p152
sg33
g127
sg35
S'2'
p153
sg37
S'HOU'
p154
sg39
S'7'
p155
sg41
g14
sg43
S'--'
p156
sss.