(dp0
S'2015'
p1
(dp2
S'11'
p3
(dp4
S'RushTD'
p5
S'--'
p6
sS'RushYds'
p7
S'--'
p8
sS'GS'
p9
S'0'
p10
sS'Lost'
p11
S'--'
p12
sS'G'
p13
g10
sS'Player'
p14
S'Ty Montgomery'
p15
sS'Year'
p16
S'2015'
p17
sS'WK'
p18
S'11'
p19
sS'RushAvg'
p20
S'--'
p21
sS'Game Date'
p22
S'11/22'
p23
sS'RecAvg'
p24
S'--'
p25
sS'FUM'
p26
S'--'
p27
sS'RushAtt'
p28
S'--'
p29
sS'Result'
p30
S'W30-13'
p31
sS'RecYds'
p32
S'--'
p33
sS'Rec'
p34
S'--'
p35
sS'Opp'
p36
S'@MIN'
p37
sS'RecLng'
p38
S'--'
p39
sS'RecTD'
p40
S'--'
p41
sS'RushLng'
p42
S'--'
p43
ssS'10'
p44
(dp45
g5
S'--'
p46
sg7
S'--'
p47
sg9
g10
sg11
S'--'
p48
sg13
g10
sg14
S'Ty Montgomery'
p49
sg16
S'2015'
p50
sg18
S'10'
p51
sg20
S'--'
p52
sg22
S'11/15'
p53
sg24
S'--'
p54
sg26
S'--'
p55
sg28
S'--'
p56
sg30
S'L16-18'
p57
sg32
S'--'
p58
sg34
S'--'
p59
sg36
S'DET'
p60
sg38
S'--'
p61
sg40
S'--'
p62
sg42
S'--'
p63
ssS'13'
p64
(dp65
g5
S'--'
p66
sg7
S'--'
p67
sg9
g10
sg11
S'--'
p68
sg13
g10
sg14
S'Ty Montgomery'
p69
sg16
S'2015'
p70
sg18
S'13'
p71
sg20
S'--'
p72
sg22
S'12/03'
p73
sg24
S'--'
p74
sg26
S'--'
p75
sg28
S'--'
p76
sg30
S'W27-23'
p77
sg32
S'--'
p78
sg34
S'--'
p79
sg36
S'@DET'
p80
sg38
S'--'
p81
sg40
S'--'
p82
sg42
S'--'
p83
ssS'12'
p84
(dp85
g5
S'--'
p86
sg7
S'--'
p87
sg9
g10
sg11
S'--'
p88
sg13
g10
sg14
S'Ty Montgomery'
p89
sg16
S'2015'
p90
sg18
S'12'
p91
sg20
S'--'
p92
sg22
S'11/26'
p93
sg24
S'--'
p94
sg26
S'--'
p95
sg28
S'--'
p96
sg30
S'L13-17'
p97
sg32
S'--'
p98
sg34
S'--'
p99
sg36
S'CHI'
p100
sg38
S'--'
p101
sg40
S'--'
p102
sg42
S'--'
p103
ssS'15'
p104
(dp105
g5
S'--'
p106
sg7
S'--'
p107
sg9
g10
sg11
S'--'
p108
sg13
g10
sg14
S'Ty Montgomery'
p109
sg16
S'2015'
p110
sg18
S'15'
p111
sg20
S'--'
p112
sg22
S'12/20'
p113
sg24
S'--'
p114
sg26
S'--'
p115
sg28
S'--'
p116
sg30
S'W30-20'
p117
sg32
S'--'
p118
sg34
S'--'
p119
sg36
S'@OAK'
p120
sg38
S'--'
p121
sg40
S'--'
p122
sg42
S'--'
p123
ssS'14'
p124
(dp125
g5
S'--'
p126
sg7
S'--'
p127
sg9
g10
sg11
S'--'
p128
sg13
g10
sg14
S'Ty Montgomery'
p129
sg16
S'2015'
p130
sg18
S'14'
p131
sg20
S'--'
p132
sg22
S'12/13'
p133
sg24
S'--'
p134
sg26
S'--'
p135
sg28
S'--'
p136
sg30
S'W28-7'
p137
sg32
S'--'
p138
sg34
S'--'
p139
sg36
S'DAL'
p140
sg38
S'--'
p141
sg40
S'--'
p142
sg42
S'--'
p143
ssS'1'
p144
(dp145
g5
S'--'
p146
sg7
S'--'
p147
sg9
g10
sg11
S'--'
p148
sg13
g144
sg14
S'Ty Montgomery'
p149
sg16
S'2015'
p150
sg18
g144
sg20
S'--'
p151
sg22
S'09/13'
p152
sg24
S'--'
p153
sg26
S'--'
p154
sg28
S'--'
p155
sg30
S'W31-23'
p156
sg32
S'--'
p157
sg34
S'--'
p158
sg36
S'@CHI'
p159
sg38
S'--'
p160
sg40
S'--'
p161
sg42
S'--'
p162
ssS'3'
p163
(dp164
g5
S'--'
p165
sg7
S'--'
p166
sg9
g10
sg11
S'--'
p167
sg13
g144
sg14
S'Ty Montgomery'
p168
sg16
S'2015'
p169
sg18
g163
sg20
S'--'
p170
sg22
S'09/28'
p171
sg24
S'7.0'
p172
sg26
S'--'
p173
sg28
S'--'
p174
sg30
S'W38-28'
p175
sg32
S'14'
p176
sg34
S'2'
p177
sg36
S'KC'
p178
sg38
S'8T'
p179
sg40
g144
sg42
S'--'
p180
ssg177
(dp181
g5
S'--'
p182
sg7
S'--'
p183
sg9
g10
sg11
S'--'
p184
sg13
g144
sg14
S'Ty Montgomery'
p185
sg16
S'2015'
p186
sg18
g177
sg20
S'--'
p187
sg22
S'09/20'
p188
sg24
S'9.3'
p189
sg26
S'--'
p190
sg28
S'--'
p191
sg30
S'W27-17'
p192
sg32
S'37'
p193
sg34
S'4'
p194
sg36
S'SEA'
p195
sg38
S'17'
p196
sg40
g10
sg42
S'--'
p197
ssS'5'
p198
(dp199
g5
S'--'
p200
sg7
S'--'
p201
sg9
g144
sg11
S'--'
p202
sg13
g144
sg14
S'Ty Montgomery'
p203
sg16
S'2015'
p204
sg18
g198
sg20
S'--'
p205
sg22
S'10/11'
p206
sg24
S'14.8'
p207
sg26
S'--'
p208
sg28
S'--'
p209
sg30
S'W24-10'
p210
sg32
S'59'
p211
sg34
g194
sg36
S'STL'
p212
sg38
S'31T'
p213
sg40
g144
sg42
S'--'
p214
ssg194
(dp215
g5
g10
sg7
S'10'
p216
sg9
g144
sg11
S'--'
p217
sg13
g144
sg14
S'Ty Montgomery'
p218
sg16
S'2015'
p219
sg18
g194
sg20
S'5.0'
p220
sg22
S'10/04'
p221
sg24
S'5.0'
p222
sg26
S'--'
p223
sg28
g177
sg30
S'W17-3'
p224
sg32
S'15'
p225
sg34
g163
sg36
S'@SF'
p226
sg38
S'8'
p227
sg40
g10
sg42
S'9'
p228
ssS'7'
p229
(dp230
g5
S''
p231
sg7
g231
sg9
g231
sg11
g231
sg13
g231
sg14
S'Ty Montgomery'
p232
sg16
S'2015'
p233
sg18
g229
sg20
g231
sg22
S'Bye'
p234
sg24
g231
sg26
g231
sg28
g231
sg30
g231
sg32
g231
sg34
g231
sg36
g231
sg38
g231
sg40
g231
sg42
g231
ssS'6'
p235
(dp236
g5
g10
sg7
g194
sg9
g144
sg11
S'--'
p237
sg13
g144
sg14
S'Ty Montgomery'
p238
sg16
S'2015'
p239
sg18
g235
sg20
S'4.0'
p240
sg22
S'10/18'
p241
sg24
S'5.5'
p242
sg26
S'--'
p243
sg28
g144
sg30
S'W27-20'
p244
sg32
S'11'
p245
sg34
g177
sg36
S'SD'
p246
sg38
g235
sg40
g10
sg42
g194
ssg228
(dp247
g5
S'--'
p248
sg7
S'--'
p249
sg9
g10
sg11
S'--'
p250
sg13
g10
sg14
S'Ty Montgomery'
p251
sg16
S'2015'
p252
sg18
g228
sg20
S'--'
p253
sg22
S'11/08'
p254
sg24
S'--'
p255
sg26
S'--'
p256
sg28
S'--'
p257
sg30
S'L29-37'
p258
sg32
S'--'
p259
sg34
S'--'
p260
sg36
S'@CAR'
p261
sg38
S'--'
p262
sg40
S'--'
p263
sg42
S'--'
p264
ssg227
(dp265
g5
S'--'
p266
sg7
S'--'
p267
sg9
g10
sg11
S'--'
p268
sg13
g10
sg14
S'Ty Montgomery'
p269
sg16
S'2015'
p270
sg18
g227
sg20
S'--'
p271
sg22
S'11/01'
p272
sg24
S'--'
p273
sg26
S'--'
p274
sg28
S'--'
p275
sg30
S'L10-29'
p276
sg32
S'--'
p277
sg34
S'--'
p278
sg36
S'@DEN'
p279
sg38
S'--'
p280
sg40
S'--'
p281
sg42
S'--'
p282
sss.