(dp0
S'2015'
p1
(dp2
S'11'
p3
(dp4
S'RushTD'
p5
S'0'
p6
sS'RushYds'
p7
S'5'
p8
sS'GS'
p9
g6
sS'Lost'
p10
S'--'
p11
sS'G'
p12
S'1'
p13
sS'Player'
p14
S'Tyler Lockett'
p15
sS'Year'
p16
S'2015'
p17
sS'WK'
p18
S'11'
p19
sS'RushAvg'
p20
S'5.0'
p21
sS'Game Date'
p22
S'11/22'
p23
sS'RecAvg'
p24
S'12.0'
p25
sS'FUM'
p26
S'--'
p27
sS'RushAtt'
p28
g13
sS'Result'
p29
S'W29-13'
p30
sS'RecYds'
p31
S'48'
p32
sS'Rec'
p33
S'4'
p34
sS'Opp'
p35
S'SF'
p36
sS'RecLng'
p37
S'24T'
p38
sS'RecTD'
p39
S'2'
p40
sS'RushLng'
p41
g8
ssS'10'
p42
(dp43
g5
S'--'
p44
sg7
S'--'
p45
sg9
g13
sg10
S'--'
p46
sg12
g13
sg14
S'Tyler Lockett'
p47
sg16
S'2015'
p48
sg18
S'10'
p49
sg20
S'--'
p50
sg22
S'11/15'
p51
sg24
S'7.0'
p52
sg26
S'--'
p53
sg28
S'--'
p54
sg29
S'L32-39'
p55
sg31
S'7'
p56
sg33
g13
sg35
S'ARI'
p57
sg37
g56
sg39
g6
sg41
S'--'
p58
ssS'13'
p59
(dp60
g5
g6
sg7
g56
sg9
g6
sg10
g6
sg12
g13
sg14
S'Tyler Lockett'
p61
sg16
S'2015'
p62
sg18
S'13'
p63
sg20
S'7.0'
p64
sg22
S'12/06'
p65
sg24
S'12.9'
p66
sg26
g13
sg28
g13
sg29
S'W38-7'
p67
sg31
S'90'
p68
sg33
g56
sg35
S'@MIN'
p69
sg37
S'29'
p70
sg39
g6
sg41
g56
ssS'12'
p71
(dp72
g5
S'--'
p73
sg7
S'--'
p74
sg9
g13
sg10
S'--'
p75
sg12
g13
sg14
S'Tyler Lockett'
p76
sg16
S'2015'
p77
sg18
S'12'
p78
sg20
S'--'
p79
sg22
S'11/29'
p80
sg24
S'12.7'
p81
sg26
S'--'
p82
sg28
S'--'
p83
sg29
S'W39-30'
p84
sg31
S'38'
p85
sg33
S'3'
p86
sg35
S'PIT'
p87
sg37
S'16'
p88
sg39
g6
sg41
S'--'
p89
ssS'15'
p90
(dp91
g5
S'--'
p92
sg7
S'--'
p93
sg9
g6
sg10
S'--'
p94
sg12
g13
sg14
S'Tyler Lockett'
p95
sg16
S'2015'
p96
sg18
S'15'
p97
sg20
S'--'
p98
sg22
S'12/20'
p99
sg24
S'11.0'
p100
sg26
S'--'
p101
sg28
S'--'
p102
sg29
S'W30-13'
p103
sg31
S'55'
p104
sg33
g8
sg35
S'CLE'
p105
sg37
S'27T'
p106
sg39
g13
sg41
S'--'
p107
ssS'14'
p108
(dp109
g5
S'--'
p110
sg7
S'--'
p111
sg9
g13
sg10
S'--'
p112
sg12
g13
sg14
S'Tyler Lockett'
p113
sg16
S'2015'
p114
sg18
S'14'
p115
sg20
S'--'
p116
sg22
S'12/13'
p117
sg24
S'17.3'
p118
sg26
S'--'
p119
sg28
S'--'
p120
sg29
S'W35-6'
p121
sg31
S'104'
p122
sg33
S'6'
p123
sg35
S'@BAL'
p124
sg37
S'49T'
p125
sg39
g40
sg41
S'--'
p126
ssS'17'
p127
(dp128
g5
g6
sg7
g56
sg9
g13
sg10
S'--'
p129
sg12
g13
sg14
S'Tyler Lockett'
p130
sg16
S'2015'
p131
sg18
S'17'
p132
sg20
S'3.5'
p133
sg22
S'01/03'
p134
sg24
S'18.0'
p135
sg26
S'--'
p136
sg28
g40
sg29
S'W36-6'
p137
sg31
S'36'
p138
sg33
g40
sg35
S'@ARI'
p139
sg37
S'36'
p140
sg39
g6
sg41
S'8'
p141
ssS'16'
p142
(dp143
g5
S'--'
p144
sg7
S'--'
p145
sg9
g13
sg10
S'--'
p146
sg12
g13
sg14
S'Tyler Lockett'
p147
sg16
S'2015'
p148
sg18
S'16'
p149
sg20
S'--'
p150
sg22
S'12/27'
p151
sg24
S'11.0'
p152
sg26
S'--'
p153
sg28
S'--'
p154
sg29
S'L17-23'
p155
sg31
S'33'
p156
sg33
g86
sg35
S'STL'
p157
sg37
S'16'
p158
sg39
g6
sg41
S'--'
p159
ssg13
(dp160
g5
S'--'
p161
sg7
S'--'
p162
sg9
g6
sg10
S'--'
p163
sg12
g13
sg14
S'Tyler Lockett'
p164
sg16
S'2015'
p165
sg18
g13
sg20
S'--'
p166
sg22
S'09/13'
p167
sg24
S'8.5'
p168
sg26
S'--'
p169
sg28
S'--'
p170
sg29
S'L31-34'
p171
sg31
S'34'
p172
sg33
g34
sg35
S'@STL'
p173
sg37
S'12'
p174
sg39
g6
sg41
S'--'
p175
ssg86
(dp176
g5
S'--'
p177
sg7
S'--'
p178
sg9
g13
sg10
S'--'
p179
sg12
g13
sg14
S'Tyler Lockett'
p180
sg16
S'2015'
p181
sg18
g86
sg20
S'--'
p182
sg22
S'09/27'
p183
sg24
S'--'
p184
sg26
S'--'
p185
sg28
S'--'
p186
sg29
S'W26-0'
p187
sg31
g6
sg33
g6
sg35
S'CHI'
p188
sg37
S'--'
p189
sg39
g6
sg41
S'--'
p190
ssg40
(dp191
g5
S'--'
p192
sg7
S'--'
p193
sg9
g13
sg10
S'--'
p194
sg12
g13
sg14
S'Tyler Lockett'
p195
sg16
S'2015'
p196
sg18
g40
sg20
S'--'
p197
sg22
S'09/20'
p198
sg24
S'8.5'
p199
sg26
S'--'
p200
sg28
S'--'
p201
sg29
S'L17-27'
p202
sg31
S'17'
p203
sg33
g40
sg35
S'@GB'
p204
sg37
S'17'
p205
sg39
g6
sg41
S'--'
p206
ssg8
(dp207
g5
S'--'
p208
sg7
S'--'
p209
sg9
g6
sg10
S'--'
p210
sg12
g13
sg14
S'Tyler Lockett'
p211
sg16
S'2015'
p212
sg18
g8
sg20
S'--'
p213
sg22
S'10/11'
p214
sg24
S'14.5'
p215
sg26
S'--'
p216
sg28
S'--'
p217
sg29
S'L24-27'
p218
sg31
S'29'
p219
sg33
g40
sg35
S'@CIN'
p220
sg37
S'22'
p221
sg39
g6
sg41
S'--'
p222
ssg34
(dp223
g5
g6
sg7
g13
sg9
g13
sg10
g13
sg12
g13
sg14
S'Tyler Lockett'
p224
sg16
S'2015'
p225
sg18
g34
sg20
S'1.0'
p226
sg22
S'10/05'
p227
sg24
S'14.5'
p228
sg26
g13
sg28
g13
sg29
S'W13-10'
p229
sg31
S'58'
p230
sg33
g34
sg35
S'DET'
p231
sg37
S'23'
p232
sg39
g6
sg41
g13
ssg56
(dp233
g5
S'--'
p234
sg7
S'--'
p235
sg9
g6
sg10
S'--'
p236
sg12
g13
sg14
S'Tyler Lockett'
p237
sg16
S'2015'
p238
sg18
g56
sg20
S'--'
p239
sg22
S'10/22'
p240
sg24
S'15.8'
p241
sg26
S'--'
p242
sg28
S'--'
p243
sg29
S'W20-3'
p244
sg31
S'79'
p245
sg33
g8
sg35
S'@SF'
p246
sg37
S'43T'
p247
sg39
g13
sg41
S'--'
p248
ssg123
(dp249
g5
S'--'
p250
sg7
S'--'
p251
sg9
g6
sg10
S'--'
p252
sg12
g13
sg14
S'Tyler Lockett'
p253
sg16
S'2015'
p254
sg18
g123
sg20
S'--'
p255
sg22
S'10/18'
p256
sg24
S'--'
p257
sg26
S'--'
p258
sg28
S'--'
p259
sg29
S'L23-27'
p260
sg31
g6
sg33
g6
sg35
S'CAR'
p261
sg37
S'--'
p262
sg39
g6
sg41
S'--'
p263
ssS'9'
p264
(dp265
g5
S''
p266
sg7
g266
sg9
g266
sg10
g266
sg12
g266
sg14
S'Tyler Lockett'
p267
sg16
S'2015'
p268
sg18
g264
sg20
g266
sg22
S'Bye'
p269
sg24
g266
sg26
g266
sg28
g266
sg29
g266
sg31
g266
sg33
g266
sg35
g266
sg37
g266
sg39
g266
sg41
g266
ssg141
(dp270
g5
S'--'
p271
sg7
S'--'
p272
sg9
g6
sg10
S'--'
p273
sg12
g13
sg14
S'Tyler Lockett'
p274
sg16
S'2015'
p275
sg18
g141
sg20
S'--'
p276
sg22
S'11/01'
p277
sg24
S'12.0'
p278
sg26
S'--'
p279
sg28
S'--'
p280
sg29
S'W13-12'
p281
sg31
S'36'
p282
sg33
g86
sg35
S'@DAL'
p283
sg37
S'16'
p284
sg39
g6
sg41
S'--'
p285
sss.