(dp0
S'2015'
p1
(dp2
S'10'
p3
(dp4
S'RushTD'
p5
S'--'
p6
sS'RushYds'
p7
S'--'
p8
sS'GS'
p9
S'0'
p10
sS'Lost'
p11
S'--'
p12
sS'G'
p13
g10
sS'Player'
p14
S'Victor Cruz'
p15
sS'Year'
p16
S'2015'
p17
sS'WK'
p18
S'10'
p19
sS'RushAvg'
p20
S'--'
p21
sS'Game Date'
p22
S'11/15'
p23
sS'RecAvg'
p24
S'--'
p25
sS'FUM'
p26
S'--'
p27
sS'RushAtt'
p28
S'--'
p29
sS'Result'
p30
S'L26-27'
p31
sS'RecYds'
p32
S'--'
p33
sS'Rec'
p34
S'--'
p35
sS'Opp'
p36
S'NE'
p37
sS'RecLng'
p38
S'--'
p39
sS'RecTD'
p40
S'--'
p41
sS'RushLng'
p42
S'--'
p43
ssS'1'
p44
(dp45
g5
S'--'
p46
sg7
S'--'
p47
sg9
g10
sg11
S'--'
p48
sg13
g10
sg14
S'Victor Cruz'
p49
sg16
S'2015'
p50
sg18
g44
sg20
S'--'
p51
sg22
S'09/13'
p52
sg24
S'--'
p53
sg26
S'--'
p54
sg28
S'--'
p55
sg30
S'L26-27'
p56
sg32
S'--'
p57
sg34
S'--'
p58
sg36
S'@DAL'
p59
sg38
S'--'
p60
sg40
S'--'
p61
sg42
S'--'
p62
ssS'3'
p63
(dp64
g5
S'--'
p65
sg7
S'--'
p66
sg9
g10
sg11
S'--'
p67
sg13
g10
sg14
S'Victor Cruz'
p68
sg16
S'2015'
p69
sg18
g63
sg20
S'--'
p70
sg22
S'09/24'
p71
sg24
S'--'
p72
sg26
S'--'
p73
sg28
S'--'
p74
sg30
S'W32-21'
p75
sg32
S'--'
p76
sg34
S'--'
p77
sg36
S'WAS'
p78
sg38
S'--'
p79
sg40
S'--'
p80
sg42
S'--'
p81
ssS'2'
p82
(dp83
g5
S'--'
p84
sg7
S'--'
p85
sg9
g10
sg11
S'--'
p86
sg13
g10
sg14
S'Victor Cruz'
p87
sg16
S'2015'
p88
sg18
g82
sg20
S'--'
p89
sg22
S'09/20'
p90
sg24
S'--'
p91
sg26
S'--'
p92
sg28
S'--'
p93
sg30
S'L20-24'
p94
sg32
S'--'
p95
sg34
S'--'
p96
sg36
S'ATL'
p97
sg38
S'--'
p98
sg40
S'--'
p99
sg42
S'--'
p100
ssS'5'
p101
(dp102
g5
S'--'
p103
sg7
S'--'
p104
sg9
g10
sg11
S'--'
p105
sg13
g10
sg14
S'Victor Cruz'
p106
sg16
S'2015'
p107
sg18
g101
sg20
S'--'
p108
sg22
S'10/11'
p109
sg24
S'--'
p110
sg26
S'--'
p111
sg28
S'--'
p112
sg30
S'W30-27'
p113
sg32
S'--'
p114
sg34
S'--'
p115
sg36
S'SF'
p116
sg38
S'--'
p117
sg40
S'--'
p118
sg42
S'--'
p119
ssS'4'
p120
(dp121
g5
S'--'
p122
sg7
S'--'
p123
sg9
g10
sg11
S'--'
p124
sg13
g10
sg14
S'Victor Cruz'
p125
sg16
S'2015'
p126
sg18
g120
sg20
S'--'
p127
sg22
S'10/04'
p128
sg24
S'--'
p129
sg26
S'--'
p130
sg28
S'--'
p131
sg30
S'W24-10'
p132
sg32
S'--'
p133
sg34
S'--'
p134
sg36
S'@BUF'
p135
sg38
S'--'
p136
sg40
S'--'
p137
sg42
S'--'
p138
ssS'7'
p139
(dp140
g5
S'--'
p141
sg7
S'--'
p142
sg9
g10
sg11
S'--'
p143
sg13
g10
sg14
S'Victor Cruz'
p144
sg16
S'2015'
p145
sg18
g139
sg20
S'--'
p146
sg22
S'10/25'
p147
sg24
S'--'
p148
sg26
S'--'
p149
sg28
S'--'
p150
sg30
S'W27-20'
p151
sg32
S'--'
p152
sg34
S'--'
p153
sg36
S'DAL'
p154
sg38
S'--'
p155
sg40
S'--'
p156
sg42
S'--'
p157
ssS'6'
p158
(dp159
g5
S'--'
p160
sg7
S'--'
p161
sg9
g10
sg11
S'--'
p162
sg13
g10
sg14
S'Victor Cruz'
p163
sg16
S'2015'
p164
sg18
g158
sg20
S'--'
p165
sg22
S'10/19'
p166
sg24
S'--'
p167
sg26
S'--'
p168
sg28
S'--'
p169
sg30
S'L7-27'
p170
sg32
S'--'
p171
sg34
S'--'
p172
sg36
S'@PHI'
p173
sg38
S'--'
p174
sg40
S'--'
p175
sg42
S'--'
p176
ssS'9'
p177
(dp178
g5
S'--'
p179
sg7
S'--'
p180
sg9
g10
sg11
S'--'
p181
sg13
g10
sg14
S'Victor Cruz'
p182
sg16
S'2015'
p183
sg18
g177
sg20
S'--'
p184
sg22
S'11/08'
p185
sg24
S'--'
p186
sg26
S'--'
p187
sg28
S'--'
p188
sg30
S'W32-18'
p189
sg32
S'--'
p190
sg34
S'--'
p191
sg36
S'@TB'
p192
sg38
S'--'
p193
sg40
S'--'
p194
sg42
S'--'
p195
ssS'8'
p196
(dp197
g5
S'--'
p198
sg7
S'--'
p199
sg9
g10
sg11
S'--'
p200
sg13
g10
sg14
S'Victor Cruz'
p201
sg16
S'2015'
p202
sg18
g196
sg20
S'--'
p203
sg22
S'11/01'
p204
sg24
S'--'
p205
sg26
S'--'
p206
sg28
S'--'
p207
sg30
S'L49-52'
p208
sg32
S'--'
p209
sg34
S'--'
p210
sg36
S'@NO'
p211
sg38
S'--'
p212
sg40
S'--'
p213
sg42
S'--'
p214
sssS'2014'
p215
(dp216
g44
(dp217
g5
S'--'
p218
sg7
S'--'
p219
sg9
g44
sg11
S'--'
p220
sg13
g44
sg14
S'Victor Cruz'
p221
sg16
S'2014'
p222
sg18
g44
sg20
S'--'
p223
sg22
S'09/08'
p224
sg24
S'12.0'
p225
sg26
S'--'
p226
sg28
S'--'
p227
sg30
S'L14-35'
p228
sg32
S'24'
p229
sg34
g82
sg36
S'@DET'
p230
sg38
S'20'
p231
sg40
g10
sg42
S'--'
p232
ssg63
(dp233
g5
S'--'
p234
sg7
S'--'
p235
sg9
g44
sg11
S'--'
p236
sg13
g44
sg14
S'Victor Cruz'
p237
sg16
S'2014'
p238
sg18
g63
sg20
S'--'
p239
sg22
S'09/21'
p240
sg24
S'21.4'
p241
sg26
S'--'
p242
sg28
S'--'
p243
sg30
S'W30-17'
p244
sg32
S'107'
p245
sg34
g101
sg36
S'HOU'
p246
sg38
S'61'
p247
sg40
g44
sg42
S'--'
p248
ssg82
(dp249
g5
S'--'
p250
sg7
S'--'
p251
sg9
g44
sg11
S'--'
p252
sg13
g44
sg14
S'Victor Cruz'
p253
sg16
S'2014'
p254
sg18
g82
sg20
S'--'
p255
sg22
S'09/14'
p256
sg24
S'12.0'
p257
sg26
S'--'
p258
sg28
S'--'
p259
sg30
S'L14-25'
p260
sg32
S'60'
p261
sg34
g101
sg36
S'ARI'
p262
sg38
S'27'
p263
sg40
g10
sg42
S'--'
p264
ssg101
(dp265
g5
S'--'
p266
sg7
S'--'
p267
sg9
g44
sg11
S'--'
p268
sg13
g44
sg14
S'Victor Cruz'
p269
sg16
S'2014'
p270
sg18
g101
sg20
S'--'
p271
sg22
S'10/05'
p272
sg24
S'7.3'
p273
sg26
S'--'
p274
sg28
S'--'
p275
sg30
S'W30-20'
p276
sg32
S'22'
p277
sg34
g63
sg36
S'ATL'
p278
sg38
S'12'
p279
sg40
g10
sg42
S'--'
p280
ssg120
(dp281
g5
S'--'
p282
sg7
S'--'
p283
sg9
g44
sg11
S'--'
p284
sg13
g44
sg14
S'Victor Cruz'
p285
sg16
S'2014'
p286
sg18
g120
sg20
S'--'
p287
sg22
S'09/25'
p288
sg24
S'18.0'
p289
sg26
S'--'
p290
sg28
S'--'
p291
sg30
S'W45-14'
p292
sg32
S'108'
p293
sg34
g158
sg36
S'@WAS'
p294
sg38
S'36'
p295
sg40
g10
sg42
S'--'
p296
ssg158
(dp297
g5
S'--'
p298
sg7
S'--'
p299
sg9
g44
sg11
S'--'
p300
sg13
g44
sg14
S'Victor Cruz'
p301
sg16
S'2014'
p302
sg18
g158
sg20
S'--'
p303
sg22
S'10/12'
p304
sg24
S'8.0'
p305
sg26
S'--'
p306
sg28
S'--'
p307
sg30
S'L0-27'
p308
sg32
S'16'
p309
sg34
g82
sg36
S'@PHI'
p310
sg38
S'13'
p311
sg40
g10
sg42
S'--'
p312
sssS'2011'
p313
(dp314
S'11'
p315
(dp316
g5
S'--'
p317
sg7
S'--'
p318
sg9
g10
sg11
S'--'
p319
sg13
g44
sg14
S'Victor Cruz'
p320
sg16
S'2011'
p321
sg18
S'11'
p322
sg20
S'--'
p323
sg22
S'11/20'
p324
sg24
S'21.3'
p325
sg26
S'--'
p326
sg28
S'--'
p327
sg30
S'L10-17'
p328
sg32
S'128'
p329
sg34
g158
sg36
S'PHI'
p330
sg38
S'47'
p331
sg40
g44
sg42
S'--'
p332
ssg3
(dp333
g5
S'--'
p334
sg7
S'--'
p335
sg9
g10
sg11
S'--'
p336
sg13
g44
sg14
S'Victor Cruz'
p337
sg16
S'2011'
p338
sg18
S'10'
p339
sg20
S'--'
p340
sg22
S'11/13'
p341
sg24
S'14.0'
p342
sg26
S'--'
p343
sg28
S'--'
p344
sg30
S'L20-27'
p345
sg32
S'84'
p346
sg34
g158
sg36
S'@SF'
p347
sg38
S'36'
p348
sg40
g10
sg42
S'--'
p349
ssS'13'
p350
(dp351
g5
S'--'
p352
sg7
S'--'
p353
sg9
g44
sg11
S'--'
p354
sg13
g44
sg14
S'Victor Cruz'
p355
sg16
S'2011'
p356
sg18
S'13'
p357
sg20
S'--'
p358
sg22
S'12/04'
p359
sg24
S'17.0'
p360
sg26
S'--'
p361
sg28
S'--'
p362
sg30
S'L35-38'
p363
sg32
S'119'
p364
sg34
g139
sg36
S'GB'
p365
sg38
S'42'
p366
sg40
g10
sg42
S'--'
p367
ssS'12'
p368
(dp369
g5
S'--'
p370
sg7
S'--'
p371
sg9
g44
sg11
S'--'
p372
sg13
g44
sg14
S'Victor Cruz'
p373
sg16
S'2011'
p374
sg18
S'12'
p375
sg20
S'--'
p376
sg22
S'11/28'
p377
sg24
S'17.4'
p378
sg26
S'--'
p379
sg28
S'--'
p380
sg30
S'L24-49'
p381
sg32
S'157'
p382
sg34
g177
sg36
S'@NO'
p383
sg38
S'72T'
p384
sg40
g82
sg42
S'--'
p385
ssS'15'
p386
(dp387
g5
S'--'
p388
sg7
S'--'
p389
sg9
g44
sg11
S'--'
p390
sg13
g44
sg14
S'Victor Cruz'
p391
sg16
S'2011'
p392
sg18
S'15'
p393
sg20
S'--'
p394
sg22
S'12/18'
p395
sg24
S'8.8'
p396
sg26
S'--'
p397
sg28
S'--'
p398
sg30
S'L10-23'
p399
sg32
S'44'
p400
sg34
g101
sg36
S'WAS'
p401
sg38
S'15'
p402
sg40
g10
sg42
S'--'
p403
ssS'14'
p404
(dp405
g5
S'--'
p406
sg7
S'--'
p407
sg9
g44
sg11
S'--'
p408
sg13
g44
sg14
S'Victor Cruz'
p409
sg16
S'2011'
p410
sg18
S'14'
p411
sg20
S'--'
p412
sg22
S'12/11'
p413
sg24
S'12.3'
p414
sg26
S'--'
p415
sg28
S'--'
p416
sg30
S'W37-34'
p417
sg32
S'74'
p418
sg34
g158
sg36
S'@DAL'
p419
sg38
S'23'
p420
sg40
g10
sg42
S'--'
p421
ssS'17'
p422
(dp423
g5
S'--'
p424
sg7
S'--'
p425
sg9
g44
sg11
S'--'
p426
sg13
g44
sg14
S'Victor Cruz'
p427
sg16
S'2011'
p428
sg18
S'17'
p429
sg20
S'--'
p430
sg22
S'01/01'
p431
sg24
S'29.7'
p432
sg26
S'--'
p433
sg28
S'--'
p434
sg30
S'W31-14'
p435
sg32
S'178'
p436
sg34
g158
sg36
S'DAL'
p437
sg38
S'74T'
p438
sg40
g44
sg42
S'--'
p439
ssS'16'
p440
(dp441
g5
S'--'
p442
sg7
S'--'
p443
sg9
g44
sg11
S'--'
p444
sg13
g44
sg14
S'Victor Cruz'
p445
sg16
S'2011'
p446
sg18
S'16'
p447
sg20
S'--'
p448
sg22
S'12/24'
p449
sg24
S'54.7'
p450
sg26
S'--'
p451
sg28
S'--'
p452
sg30
S'W29-14'
p453
sg32
S'164'
p454
sg34
g63
sg36
S'@NYJ'
p455
sg38
S'99T'
p456
sg40
g44
sg42
S'--'
p457
ssg44
(dp458
g5
S'--'
p459
sg7
S'--'
p460
sg9
g10
sg11
S'--'
p461
sg13
g44
sg14
S'Victor Cruz'
p462
sg16
S'2011'
p463
sg18
g44
sg20
S'--'
p464
sg22
S'09/11'
p465
sg24
S'--'
p466
sg26
S'--'
p467
sg28
S'--'
p468
sg30
S'L14-28'
p469
sg32
g10
sg34
g10
sg36
S'@WAS'
p470
sg38
S'--'
p471
sg40
g10
sg42
S'--'
p472
ssg63
(dp473
g5
S'--'
p474
sg7
S'--'
p475
sg9
g10
sg11
S'--'
p476
sg13
g44
sg14
S'Victor Cruz'
p477
sg16
S'2011'
p478
sg18
g63
sg20
S'--'
p479
sg22
S'09/25'
p480
sg24
S'36.7'
p481
sg26
S'--'
p482
sg28
S'--'
p483
sg30
S'W29-16'
p484
sg32
S'110'
p485
sg34
g63
sg36
S'@PHI'
p486
sg38
S'74T'
p487
sg40
g82
sg42
S'--'
p488
ssg82
(dp489
g5
S'--'
p490
sg7
S'--'
p491
sg9
g10
sg11
S'--'
p492
sg13
g44
sg14
S'Victor Cruz'
p493
sg16
S'2011'
p494
sg18
g82
sg20
S'--'
p495
sg22
S'09/19'
p496
sg24
S'8.5'
p497
sg26
S'--'
p498
sg28
S'--'
p499
sg30
S'W28-16'
p500
sg32
S'17'
p501
sg34
g82
sg36
S'STL'
p502
sg38
S'10'
p503
sg40
g10
sg42
S'--'
p504
ssg101
(dp505
g5
g10
sg7
g63
sg9
g10
sg11
g44
sg13
g44
sg14
S'Victor Cruz'
p506
sg16
S'2011'
p507
sg18
g101
sg20
S'3.0'
p508
sg22
S'10/09'
p509
sg24
S'20.1'
p510
sg26
g44
sg28
g44
sg30
S'L25-36'
p511
sg32
S'161'
p512
sg34
g196
sg36
S'SEA'
p513
sg38
S'68T'
p514
sg40
g44
sg42
g63
ssg120
(dp515
g5
S'--'
p516
sg7
S'--'
p517
sg9
g10
sg11
S'--'
p518
sg13
g44
sg14
S'Victor Cruz'
p519
sg16
S'2011'
p520
sg18
g120
sg20
S'--'
p521
sg22
S'10/02'
p522
sg24
S'16.3'
p523
sg26
S'--'
p524
sg28
S'--'
p525
sg30
S'W31-27'
p526
sg32
S'98'
p527
sg34
g158
sg36
S'@ARI'
p528
sg38
S'26'
p529
sg40
g10
sg42
S'--'
p530
ssg139
(dp531
g5
S''
p532
sg7
g532
sg9
g532
sg11
g532
sg13
g532
sg14
S'Victor Cruz'
p533
sg16
S'2011'
p534
sg18
g139
sg20
g532
sg22
S'Bye'
p535
sg24
g532
sg26
g532
sg28
g532
sg30
g532
sg32
g532
sg34
g532
sg36
g532
sg38
g532
sg40
g532
sg42
g532
ssg158
(dp536
g5
S'--'
p537
sg7
S'--'
p538
sg9
g10
sg11
S'--'
p539
sg13
g44
sg14
S'Victor Cruz'
p540
sg16
S'2011'
p541
sg18
g158
sg20
S'--'
p542
sg22
S'10/16'
p543
sg24
S'6.0'
p544
sg26
S'--'
p545
sg28
S'--'
p546
sg30
S'W27-24'
p547
sg32
S'12'
p548
sg34
g82
sg36
S'BUF'
p549
sg38
g158
sg40
g10
sg42
S'--'
p550
ssg177
(dp551
g5
S'--'
p552
sg7
S'--'
p553
sg9
g44
sg11
S'--'
p554
sg13
g44
sg14
S'Victor Cruz'
p555
sg16
S'2011'
p556
sg18
g177
sg20
S'--'
p557
sg22
S'11/06'
p558
sg24
S'15.2'
p559
sg26
S'--'
p560
sg28
S'--'
p561
sg30
S'W24-20'
p562
sg32
S'91'
p563
sg34
g158
sg36
S'@NE'
p564
sg38
S'23'
p565
sg40
g10
sg42
S'--'
p566
ssg196
(dp567
g5
S'--'
p568
sg7
S'--'
p569
sg9
g10
sg11
S'--'
p570
sg13
g44
sg14
S'Victor Cruz'
p571
sg16
S'2011'
p572
sg18
g196
sg20
S'--'
p573
sg22
S'10/30'
p574
sg24
S'14.1'
p575
sg26
S'--'
p576
sg28
S'--'
p577
sg30
S'W20-17'
p578
sg32
S'99'
p579
sg34
g139
sg36
S'MIA'
p580
sg38
S'26'
p581
sg40
g44
sg42
S'--'
p582
sssS'2010'
p583
(dp584
g44
(dp585
g5
S'--'
p586
sg7
S'--'
p587
sg9
g10
sg11
S'--'
p588
sg13
g10
sg14
S'Victor Cruz'
p589
sg16
S'2010'
p590
sg18
g44
sg20
S'--'
p591
sg22
S'09/12'
p592
sg24
S'--'
p593
sg26
S'--'
p594
sg28
S'--'
p595
sg30
S'W31-18'
p596
sg32
S'--'
p597
sg34
S'--'
p598
sg36
S'CAR'
p599
sg38
S'--'
p600
sg40
S'--'
p601
sg42
S'--'
p602
ssg63
(dp603
g5
S'--'
p604
sg7
S'--'
p605
sg9
g10
sg11
S'--'
p606
sg13
g44
sg14
S'Victor Cruz'
p607
sg16
S'2010'
p608
sg18
g63
sg20
S'--'
p609
sg22
S'09/26'
p610
sg24
S'--'
p611
sg26
S'--'
p612
sg28
S'--'
p613
sg30
S'L10-29'
p614
sg32
S'--'
p615
sg34
S'--'
p616
sg36
S'TEN'
p617
sg38
S'--'
p618
sg40
S'--'
p619
sg42
S'--'
p620
ssg82
(dp621
g5
S'--'
p622
sg7
S'--'
p623
sg9
g10
sg11
S'--'
p624
sg13
g44
sg14
S'Victor Cruz'
p625
sg16
S'2010'
p626
sg18
g82
sg20
S'--'
p627
sg22
S'09/19'
p628
sg24
S'--'
p629
sg26
S'--'
p630
sg28
S'--'
p631
sg30
S'L14-38'
p632
sg32
S'--'
p633
sg34
S'--'
p634
sg36
S'@IND'
p635
sg38
S'--'
p636
sg40
S'--'
p637
sg42
S'--'
p638
ssg101
(dp639
g5
S'--'
p640
sg7
S'--'
p641
sg9
g10
sg11
S'--'
p642
sg13
g10
sg14
S'Victor Cruz'
p643
sg16
S'2010'
p644
sg18
g101
sg20
S'--'
p645
sg22
S'10/10'
p646
sg24
S'--'
p647
sg26
S'--'
p648
sg28
S'--'
p649
sg30
S'W34-10'
p650
sg32
S'--'
p651
sg34
S'--'
p652
sg36
S'@HOU'
p653
sg38
S'--'
p654
sg40
S'--'
p655
sg42
S'--'
p656
ssg120
(dp657
g5
S'--'
p658
sg7
S'--'
p659
sg9
g10
sg11
S'--'
p660
sg13
g44
sg14
S'Victor Cruz'
p661
sg16
S'2010'
p662
sg18
g120
sg20
S'--'
p663
sg22
S'10/03'
p664
sg24
S'--'
p665
sg26
S'--'
p666
sg28
S'--'
p667
sg30
S'W17-3'
p668
sg32
S'--'
p669
sg34
S'--'
p670
sg36
S'CHI'
p671
sg38
S'--'
p672
sg40
S'--'
p673
sg42
S'--'
p674
sssS'2013'
p675
(dp676
g315
(dp677
g5
S'--'
p678
sg7
S'--'
p679
sg9
g44
sg11
S'--'
p680
sg13
g44
sg14
S'Victor Cruz'
p681
sg16
S'2013'
p682
sg18
S'11'
p683
sg20
S'--'
p684
sg22
S'11/17'
p685
sg24
S'13.8'
p686
sg26
S'--'
p687
sg28
S'--'
p688
sg30
S'W27-13'
p689
sg32
S'110'
p690
sg34
g196
sg36
S'GB'
p691
sg38
S'30'
p692
sg40
g10
sg42
S'--'
p693
ssg3
(dp694
g5
S'--'
p695
sg7
S'--'
p696
sg9
g44
sg11
S'--'
p697
sg13
g44
sg14
S'Victor Cruz'
p698
sg16
S'2013'
p699
sg18
S'10'
p700
sg20
S'--'
p701
sg22
S'11/10'
p702
sg24
S'12.3'
p703
sg26
S'--'
p704
sg28
S'--'
p705
sg30
S'W24-20'
p706
sg32
S'37'
p707
sg34
g63
sg36
S'OAK'
p708
sg38
S'15'
p709
sg40
g10
sg42
S'--'
p710
ssg350
(dp711
g5
S'--'
p712
sg7
S'--'
p713
sg9
g44
sg11
S'--'
p714
sg13
g44
sg14
S'Victor Cruz'
p715
sg16
S'2013'
p716
sg18
S'13'
p717
sg20
S'--'
p718
sg22
S'12/01'
p719
sg24
S'13.3'
p720
sg26
S'--'
p721
sg28
S'--'
p722
sg30
S'W24-17'
p723
sg32
S'80'
p724
sg34
g158
sg36
S'@WAS'
p725
sg38
S'22'
p726
sg40
g10
sg42
S'--'
p727
ssg368
(dp728
g5
S'--'
p729
sg7
S'--'
p730
sg9
g44
sg11
g44
sg13
g44
sg14
S'Victor Cruz'
p731
sg16
S'2013'
p732
sg18
S'12'
p733
sg20
S'--'
p734
sg22
S'11/24'
p735
sg24
S'13.5'
p736
sg26
g44
sg28
S'--'
p737
sg30
S'L21-24'
p738
sg32
S'27'
p739
sg34
g82
sg36
S'DAL'
p740
sg38
S'22'
p741
sg40
g10
sg42
S'--'
p742
ssg386
(dp743
g5
S'--'
p744
sg7
S'--'
p745
sg9
g44
sg11
S'--'
p746
sg13
g44
sg14
S'Victor Cruz'
p747
sg16
S'2013'
p748
sg18
S'15'
p749
sg20
S'--'
p750
sg22
S'12/15'
p751
sg24
S'12.5'
p752
sg26
S'--'
p753
sg28
S'--'
p754
sg30
S'L0-23'
p755
sg32
S'25'
p756
sg34
g82
sg36
S'SEA'
p757
sg38
S'16'
p758
sg40
g10
sg42
S'--'
p759
ssg404
(dp760
g5
S'--'
p761
sg7
S'--'
p762
sg9
g44
sg11
S'--'
p763
sg13
g44
sg14
S'Victor Cruz'
p764
sg16
S'2013'
p765
sg18
S'14'
p766
sg20
S'--'
p767
sg22
S'12/08'
p768
sg24
S'8.4'
p769
sg26
S'--'
p770
sg28
S'--'
p771
sg30
S'L14-37'
p772
sg32
S'42'
p773
sg34
g101
sg36
S'@SD'
p774
sg38
S'14'
p775
sg40
g10
sg42
S'--'
p776
ssg422
(dp777
g5
S'--'
p778
sg7
S'--'
p779
sg9
g10
sg11
S'--'
p780
sg13
g10
sg14
S'Victor Cruz'
p781
sg16
S'2013'
p782
sg18
S'17'
p783
sg20
S'--'
p784
sg22
S'12/29'
p785
sg24
S'--'
p786
sg26
S'--'
p787
sg28
S'--'
p788
sg30
S'W20-6'
p789
sg32
S'--'
p790
sg34
S'--'
p791
sg36
S'WAS'
p792
sg38
S'--'
p793
sg40
S'--'
p794
sg42
S'--'
p795
ssg440
(dp796
g5
S'--'
p797
sg7
S'--'
p798
sg9
g10
sg11
S'--'
p799
sg13
g10
sg14
S'Victor Cruz'
p800
sg16
S'2013'
p801
sg18
S'16'
p802
sg20
S'--'
p803
sg22
S'12/22'
p804
sg24
S'--'
p805
sg26
S'--'
p806
sg28
S'--'
p807
sg30
S'W23-20'
p808
sg32
S'--'
p809
sg34
S'--'
p810
sg36
S'@DET'
p811
sg38
S'--'
p812
sg40
S'--'
p813
sg42
S'--'
p814
ssg44
(dp815
g5
S'--'
p816
sg7
S'--'
p817
sg9
g44
sg11
S'--'
p818
sg13
g44
sg14
S'Victor Cruz'
p819
sg16
S'2013'
p820
sg18
g44
sg20
S'--'
p821
sg22
S'09/08'
p822
sg24
S'23.6'
p823
sg26
S'--'
p824
sg28
S'--'
p825
sg30
S'L31-36'
p826
sg32
S'118'
p827
sg34
g101
sg36
S'@DAL'
p828
sg38
S'70T'
p829
sg40
g63
sg42
S'--'
p830
ssg63
(dp831
g5
S'--'
p832
sg7
S'--'
p833
sg9
g44
sg11
S'--'
p834
sg13
g44
sg14
S'Victor Cruz'
p835
sg16
S'2013'
p836
sg18
g63
sg20
S'--'
p837
sg22
S'09/22'
p838
sg24
S'8.3'
p839
sg26
S'--'
p840
sg28
S'--'
p841
sg30
S'L0-38'
p842
sg32
S'25'
p843
sg34
g63
sg36
S'@CAR'
p844
sg38
S'11'
p845
sg40
g10
sg42
S'--'
p846
ssg82
(dp847
g5
S'--'
p848
sg7
S'--'
p849
sg9
g44
sg11
S'--'
p850
sg13
g44
sg14
S'Victor Cruz'
p851
sg16
S'2013'
p852
sg18
g82
sg20
S'--'
p853
sg22
S'09/15'
p854
sg24
S'14.8'
p855
sg26
S'--'
p856
sg28
S'--'
p857
sg30
S'L23-41'
p858
sg32
S'118'
p859
sg34
g196
sg36
S'DEN'
p860
sg38
S'51'
p861
sg40
g10
sg42
S'--'
p862
ssg101
(dp863
g5
S'--'
p864
sg7
S'--'
p865
sg9
g10
sg11
S'--'
p866
sg13
g44
sg14
S'Victor Cruz'
p867
sg16
S'2013'
p868
sg18
g101
sg20
S'--'
p869
sg22
S'10/06'
p870
sg24
S'9.6'
p871
sg26
S'--'
p872
sg28
S'--'
p873
sg30
S'L21-36'
p874
sg32
S'48'
p875
sg34
g101
sg36
S'PHI'
p876
sg38
S'14'
p877
sg40
g10
sg42
S'--'
p878
ssg120
(dp879
g5
S'--'
p880
sg7
S'--'
p881
sg9
g44
sg11
S'--'
p882
sg13
g44
sg14
S'Victor Cruz'
p883
sg16
S'2013'
p884
sg18
g120
sg20
S'--'
p885
sg22
S'09/29'
p886
sg24
S'16.4'
p887
sg26
S'--'
p888
sg28
S'--'
p889
sg30
S'L7-31'
p890
sg32
S'164'
p891
sg34
S'10'
p892
sg36
S'@KC'
p893
sg38
S'69T'
p894
sg40
g44
sg42
S'--'
p895
ssg139
(dp896
g5
S'--'
p897
sg7
S'--'
p898
sg9
g44
sg11
S'--'
p899
sg13
g44
sg14
S'Victor Cruz'
p900
sg16
S'2013'
p901
sg18
g139
sg20
S'--'
p902
sg22
S'10/21'
p903
sg24
S'10.0'
p904
sg26
S'--'
p905
sg28
S'--'
p906
sg30
S'W23-7'
p907
sg32
S'50'
p908
sg34
g101
sg36
S'MIN'
p909
sg38
S'13'
p910
sg40
g10
sg42
S'--'
p911
ssg158
(dp912
g5
S'--'
p913
sg7
S'--'
p914
sg9
g44
sg11
S'--'
p915
sg13
g44
sg14
S'Victor Cruz'
p916
sg16
S'2013'
p917
sg18
g158
sg20
S'--'
p918
sg22
S'10/10'
p919
sg24
S'17.0'
p920
sg26
S'--'
p921
sg28
S'--'
p922
sg30
S'L21-27'
p923
sg32
S'68'
p924
sg34
g120
sg36
S'@CHI'
p925
sg38
S'23'
p926
sg40
g10
sg42
S'--'
p927
ssg177
(dp928
g5
g532
sg7
g532
sg9
g532
sg11
g532
sg13
g532
sg14
S'Victor Cruz'
p929
sg16
S'2013'
p930
sg18
g177
sg20
g532
sg22
S'Bye'
p931
sg24
g532
sg26
g532
sg28
g532
sg30
g532
sg32
g532
sg34
g532
sg36
g532
sg38
g532
sg40
g532
sg42
g532
ssg196
(dp932
g5
S'--'
p933
sg7
S'--'
p934
sg9
g10
sg11
S'--'
p935
sg13
g44
sg14
S'Victor Cruz'
p936
sg16
S'2013'
p937
sg18
g196
sg20
S'--'
p938
sg22
S'10/27'
p939
sg24
S'12.3'
p940
sg26
S'--'
p941
sg28
S'--'
p942
sg30
S'W15-7'
p943
sg32
S'86'
p944
sg34
g139
sg36
S'@PHI'
p945
sg38
S'26'
p946
sg40
g10
sg42
S'--'
p947
sssS'2012'
p948
(dp949
g315
(dp950
g5
g532
sg7
g532
sg9
g532
sg11
g532
sg13
g532
sg14
S'Victor Cruz'
p951
sg16
S'2012'
p952
sg18
S'11'
p953
sg20
g532
sg22
S'Bye'
p954
sg24
g532
sg26
g532
sg28
g532
sg30
g532
sg32
g532
sg34
g532
sg36
g532
sg38
g532
sg40
g532
sg42
g532
ssg3
(dp955
g5
S'--'
p956
sg7
S'--'
p957
sg9
g44
sg11
S'--'
p958
sg13
g44
sg14
S'Victor Cruz'
p959
sg16
S'2012'
p960
sg18
S'10'
p961
sg20
S'--'
p962
sg22
S'11/11'
p963
sg24
S'8.7'
p964
sg26
S'--'
p965
sg28
S'--'
p966
sg30
S'L13-31'
p967
sg32
S'26'
p968
sg34
g63
sg36
S'@CIN'
p969
sg38
S'10'
p970
sg40
g10
sg42
S'--'
p971
ssg350
(dp972
g5
S'--'
p973
sg7
S'--'
p974
sg9
g44
sg11
S'--'
p975
sg13
g44
sg14
S'Victor Cruz'
p976
sg16
S'2012'
p977
sg18
S'13'
p978
sg20
S'--'
p979
sg22
S'12/03'
p980
sg24
S'20.8'
p981
sg26
S'--'
p982
sg28
S'--'
p983
sg30
S'L16-17'
p984
sg32
S'104'
p985
sg34
g101
sg36
S'@WAS'
p986
sg38
S'49'
p987
sg40
g10
sg42
S'--'
p988
ssg368
(dp989
g5
S'--'
p990
sg7
S'--'
p991
sg9
g44
sg11
S'--'
p992
sg13
g44
sg14
S'Victor Cruz'
p993
sg16
S'2012'
p994
sg18
S'12'
p995
sg20
S'--'
p996
sg22
S'11/25'
p997
sg24
S'12.0'
p998
sg26
S'--'
p999
sg28
S'--'
p1000
sg30
S'W38-10'
p1001
sg32
S'36'
p1002
sg34
g63
sg36
S'GB'
p1003
sg38
S'17'
p1004
sg40
g44
sg42
S'--'
p1005
ssg386
(dp1006
g5
S'--'
p1007
sg7
S'--'
p1008
sg9
g44
sg11
S'--'
p1009
sg13
g44
sg14
S'Victor Cruz'
p1010
sg16
S'2012'
p1011
sg18
S'15'
p1012
sg20
S'--'
p1013
sg22
S'12/16'
p1014
sg24
S'5.0'
p1015
sg26
S'--'
p1016
sg28
S'--'
p1017
sg30
S'L0-34'
p1018
sg32
S'15'
p1019
sg34
g63
sg36
S'@ATL'
p1020
sg38
g139
sg40
g10
sg42
S'--'
p1021
ssg404
(dp1022
g5
S'--'
p1023
sg7
S'--'
p1024
sg9
g44
sg11
S'--'
p1025
sg13
g44
sg14
S'Victor Cruz'
p1026
sg16
S'2012'
p1027
sg18
S'14'
p1028
sg20
S'--'
p1029
sg22
S'12/09'
p1030
sg24
S'15.1'
p1031
sg26
S'--'
p1032
sg28
S'--'
p1033
sg30
S'W52-27'
p1034
sg32
S'121'
p1035
sg34
g196
sg36
S'NO'
p1036
sg38
S'35'
p1037
sg40
g44
sg42
S'--'
p1038
ssg422
(dp1039
g5
S'--'
p1040
sg7
S'--'
p1041
sg9
g44
sg11
S'--'
p1042
sg13
g44
sg14
S'Victor Cruz'
p1043
sg16
S'2012'
p1044
sg18
S'17'
p1045
sg20
S'--'
p1046
sg22
S'12/30'
p1047
sg24
S'13.0'
p1048
sg26
S'--'
p1049
sg28
S'--'
p1050
sg30
S'W42-7'
p1051
sg32
S'52'
p1052
sg34
g120
sg36
S'PHI'
p1053
sg38
S'24T'
p1054
sg40
g44
sg42
S'--'
p1055
ssg440
(dp1056
g5
S'--'
p1057
sg7
S'--'
p1058
sg9
g44
sg11
S'--'
p1059
sg13
g44
sg14
S'Victor Cruz'
p1060
sg16
S'2012'
p1061
sg18
S'16'
p1062
sg20
S'--'
p1063
sg22
S'12/23'
p1064
sg24
S'7.0'
p1065
sg26
S'--'
p1066
sg28
S'--'
p1067
sg30
S'L14-33'
p1068
sg32
S'21'
p1069
sg34
g63
sg36
S'@BAL'
p1070
sg38
S'11'
p1071
sg40
g10
sg42
S'--'
p1072
ssg44
(dp1073
g5
S'--'
p1074
sg7
S'--'
p1075
sg9
g44
sg11
S'--'
p1076
sg13
g44
sg14
S'Victor Cruz'
p1077
sg16
S'2012'
p1078
sg18
g44
sg20
S'--'
p1079
sg22
S'09/05'
p1080
sg24
S'9.7'
p1081
sg26
S'--'
p1082
sg28
S'--'
p1083
sg30
S'L17-24'
p1084
sg32
S'58'
p1085
sg34
g158
sg36
S'DAL'
p1086
sg38
S'26'
p1087
sg40
g10
sg42
S'--'
p1088
ssg63
(dp1089
g5
S'--'
p1090
sg7
S'--'
p1091
sg9
g44
sg11
S'--'
p1092
sg13
g44
sg14
S'Victor Cruz'
p1093
sg16
S'2012'
p1094
sg18
g63
sg20
S'--'
p1095
sg22
S'09/20'
p1096
sg24
S'7.0'
p1097
sg26
S'--'
p1098
sg28
S'--'
p1099
sg30
S'W36-7'
p1100
sg32
S'42'
p1101
sg34
g158
sg36
S'@CAR'
p1102
sg38
S'12'
p1103
sg40
g10
sg42
S'--'
p1104
ssg82
(dp1105
g5
S'--'
p1106
sg7
S'--'
p1107
sg9
g44
sg11
S'--'
p1108
sg13
g44
sg14
S'Victor Cruz'
p1109
sg16
S'2012'
p1110
sg18
g82
sg20
S'--'
p1111
sg22
S'09/16'
p1112
sg24
S'16.3'
p1113
sg26
S'--'
p1114
sg28
S'--'
p1115
sg30
S'W41-34'
p1116
sg32
S'179'
p1117
sg34
S'11'
p1118
sg36
S'TB'
p1119
sg38
S'80T'
p1120
sg40
g44
sg42
S'--'
p1121
ssg101
(dp1122
g5
S'--'
p1123
sg7
S'--'
p1124
sg9
g44
sg11
S'--'
p1125
sg13
g44
sg14
S'Victor Cruz'
p1126
sg16
S'2012'
p1127
sg18
g101
sg20
S'--'
p1128
sg22
S'10/07'
p1129
sg24
S'10.0'
p1130
sg26
S'--'
p1131
sg28
S'--'
p1132
sg30
S'W41-27'
p1133
sg32
S'50'
p1134
sg34
g101
sg36
S'CLE'
p1135
sg38
S'28T'
p1136
sg40
g63
sg42
S'--'
p1137
ssg120
(dp1138
g5
S'--'
p1139
sg7
S'--'
p1140
sg9
g44
sg11
S'--'
p1141
sg13
g44
sg14
S'Victor Cruz'
p1142
sg16
S'2012'
p1143
sg18
g120
sg20
S'--'
p1144
sg22
S'09/30'
p1145
sg24
S'12.1'
p1146
sg26
S'--'
p1147
sg28
S'--'
p1148
sg30
S'L17-19'
p1149
sg32
S'109'
p1150
sg34
g177
sg36
S'@PHI'
p1151
sg38
S'30'
p1152
sg40
g44
sg42
S'--'
p1153
ssg139
(dp1154
g5
S'--'
p1155
sg7
S'--'
p1156
sg9
g44
sg11
S'--'
p1157
sg13
g44
sg14
S'Victor Cruz'
p1158
sg16
S'2012'
p1159
sg18
g139
sg20
S'--'
p1160
sg22
S'10/21'
p1161
sg24
S'18.7'
p1162
sg26
S'--'
p1163
sg28
S'--'
p1164
sg30
S'W27-23'
p1165
sg32
S'131'
p1166
sg34
g139
sg36
S'WAS'
p1167
sg38
S'77T'
p1168
sg40
g44
sg42
S'--'
p1169
ssg158
(dp1170
g5
S'--'
p1171
sg7
S'--'
p1172
sg9
g44
sg11
S'--'
p1173
sg13
g44
sg14
S'Victor Cruz'
p1174
sg16
S'2012'
p1175
sg18
g158
sg20
S'--'
p1176
sg22
S'10/14'
p1177
sg24
S'9.7'
p1178
sg26
S'--'
p1179
sg28
S'--'
p1180
sg30
S'W26-3'
p1181
sg32
S'58'
p1182
sg34
g158
sg36
S'@SF'
p1183
sg38
S'16'
p1184
sg40
g44
sg42
S'--'
p1185
ssg177
(dp1186
g5
S'--'
p1187
sg7
S'--'
p1188
sg9
g44
sg11
S'--'
p1189
sg13
g44
sg14
S'Victor Cruz'
p1190
sg16
S'2012'
p1191
sg18
g177
sg20
S'--'
p1192
sg22
S'11/04'
p1193
sg24
S'13.4'
p1194
sg26
S'--'
p1195
sg28
S'--'
p1196
sg30
S'L20-24'
p1197
sg32
S'67'
p1198
sg34
g101
sg36
S'PIT'
p1199
sg38
S'26'
p1200
sg40
g10
sg42
S'--'
p1201
ssg196
(dp1202
g5
S'--'
p1203
sg7
S'--'
p1204
sg9
g44
sg11
S'--'
p1205
sg13
g44
sg14
S'Victor Cruz'
p1206
sg16
S'2012'
p1207
sg18
g196
sg20
S'--'
p1208
sg22
S'10/28'
p1209
sg24
S'11.5'
p1210
sg26
S'--'
p1211
sg28
S'--'
p1212
sg30
S'W29-24'
p1213
sg32
S'23'
p1214
sg34
g82
sg36
S'@DAL'
p1215
sg38
S'17'
p1216
sg40
g10
sg42
S'--'
p1217
sss.