(dp0
S'2015'
p1
(dp2
S'11'
p3
(dp4
S'RushTD'
p5
S'--'
p6
sS'RushYds'
p7
S'--'
p8
sS'GS'
p9
S'1'
p10
sS'Lost'
p11
S'--'
p12
sS'G'
p13
g10
sS'Player'
p14
S'Vincent Jackson'
p15
sS'Year'
p16
S'2015'
p17
sS'WK'
p18
S'11'
p19
sS'RushAvg'
p20
S'--'
p21
sS'Game Date'
p22
S'11/22'
p23
sS'RecAvg'
p24
S'14.0'
p25
sS'FUM'
p26
S'--'
p27
sS'RushAtt'
p28
S'--'
p29
sS'Result'
p30
S'W45-17'
p31
sS'RecYds'
p32
S'56'
p33
sS'Rec'
p34
S'4'
p35
sS'Opp'
p36
S'@PHI'
p37
sS'RecLng'
p38
S'24'
p39
sS'RecTD'
p40
g10
sS'RushLng'
p41
S'--'
p42
ssS'10'
p43
(dp44
g5
S'--'
p45
sg7
S'--'
p46
sg9
S'0'
p47
sg11
S'--'
p48
sg13
g47
sg14
S'Vincent Jackson'
p49
sg16
S'2015'
p50
sg18
S'10'
p51
sg20
S'--'
p52
sg22
S'11/15'
p53
sg24
S'--'
p54
sg26
S'--'
p55
sg28
S'--'
p56
sg30
S'W10-6'
p57
sg32
S'--'
p58
sg34
S'--'
p59
sg36
S'DAL'
p60
sg38
S'--'
p61
sg40
S'--'
p62
sg41
S'--'
p63
ssS'13'
p64
(dp65
g5
S'--'
p66
sg7
S'--'
p67
sg9
g10
sg11
S'--'
p68
sg13
g10
sg14
S'Vincent Jackson'
p69
sg16
S'2015'
p70
sg18
S'13'
p71
sg20
S'--'
p72
sg22
S'12/06'
p73
sg24
S'29.0'
p74
sg26
S'--'
p75
sg28
S'--'
p76
sg30
S'W23-19'
p77
sg32
S'87'
p78
sg34
S'3'
p79
sg36
S'ATL'
p80
sg38
S'36'
p81
sg40
g47
sg41
S'--'
p82
ssS'12'
p83
(dp84
g5
S'--'
p85
sg7
S'--'
p86
sg9
g10
sg11
S'--'
p87
sg13
g10
sg14
S'Vincent Jackson'
p88
sg16
S'2015'
p89
sg18
S'12'
p90
sg20
S'--'
p91
sg22
S'11/29'
p92
sg24
S'19.0'
p93
sg26
S'--'
p94
sg28
S'--'
p95
sg30
S'L12-25'
p96
sg32
S'76'
p97
sg34
g35
sg36
S'@IND'
p98
sg38
S'21'
p99
sg40
g47
sg41
S'--'
p100
ssS'15'
p101
(dp102
g5
S'--'
p103
sg7
S'--'
p104
sg9
g47
sg11
S'--'
p105
sg13
g47
sg14
S'Vincent Jackson'
p106
sg16
S'2015'
p107
sg18
S'15'
p108
sg20
S'--'
p109
sg22
S'12/17'
p110
sg24
S'--'
p111
sg26
S'--'
p112
sg28
S'--'
p113
sg30
S'L23-31'
p114
sg32
S'--'
p115
sg34
S'--'
p116
sg36
S'@STL'
p117
sg38
S'--'
p118
sg40
S'--'
p119
sg41
S'--'
p120
ssS'14'
p121
(dp122
g5
S'--'
p123
sg7
S'--'
p124
sg9
g10
sg11
S'--'
p125
sg13
g10
sg14
S'Vincent Jackson'
p126
sg16
S'2015'
p127
sg18
S'14'
p128
sg20
S'--'
p129
sg22
S'12/13'
p130
sg24
S'5.0'
p131
sg26
S'--'
p132
sg28
S'--'
p133
sg30
S'L17-24'
p134
sg32
S'5'
p135
sg34
g10
sg36
S'NO'
p136
sg38
g135
sg40
g47
sg41
S'--'
p137
ssS'16'
p138
(dp139
g5
S'--'
p140
sg7
S'--'
p141
sg9
g47
sg11
S'--'
p142
sg13
g47
sg14
S'Vincent Jackson'
p143
sg16
S'2015'
p144
sg18
S'16'
p145
sg20
S'--'
p146
sg22
S'12/27'
p147
sg24
S'--'
p148
sg26
S'--'
p149
sg28
S'--'
p150
sg30
S'L21-26'
p151
sg32
S'--'
p152
sg34
S'--'
p153
sg36
S'CHI'
p154
sg38
S'--'
p155
sg40
S'--'
p156
sg41
S'--'
p157
ssg10
(dp158
g5
S'--'
p159
sg7
S'--'
p160
sg9
g10
sg11
S'--'
p161
sg13
g10
sg14
S'Vincent Jackson'
p162
sg16
S'2015'
p163
sg18
g10
sg20
S'--'
p164
sg22
S'09/13'
p165
sg24
S'12.8'
p166
sg26
S'--'
p167
sg28
S'--'
p168
sg30
S'L14-42'
p169
sg32
S'51'
p170
sg34
g35
sg36
S'TEN'
p171
sg38
S'18'
p172
sg40
g47
sg41
S'--'
p173
ssg79
(dp174
g5
S'--'
p175
sg7
S'--'
p176
sg9
g10
sg11
S'--'
p177
sg13
g10
sg14
S'Vincent Jackson'
p178
sg16
S'2015'
p179
sg18
g79
sg20
S'--'
p180
sg22
S'09/27'
p181
sg24
S'20.0'
p182
sg26
S'--'
p183
sg28
S'--'
p184
sg30
S'L9-19'
p185
sg32
S'40'
p186
sg34
S'2'
p187
sg36
S'@HOU'
p188
sg38
S'21'
p189
sg40
g47
sg41
S'--'
p190
ssg187
(dp191
g5
S'--'
p192
sg7
S'--'
p193
sg9
g47
sg11
S'--'
p194
sg13
g10
sg14
S'Vincent Jackson'
p195
sg16
S'2015'
p196
sg18
g187
sg20
S'--'
p197
sg22
S'09/20'
p198
sg24
S'18.0'
p199
sg26
S'--'
p200
sg28
S'--'
p201
sg30
S'W26-19'
p202
sg32
S'54'
p203
sg34
g79
sg36
S'@NO'
p204
sg38
S'22'
p205
sg40
g10
sg41
S'--'
p206
ssg135
(dp207
g5
S'--'
p208
sg7
S'--'
p209
sg9
g10
sg11
S'--'
p210
sg13
g10
sg14
S'Vincent Jackson'
p211
sg16
S'2015'
p212
sg18
g135
sg20
S'--'
p213
sg22
S'10/11'
p214
sg24
S'14.0'
p215
sg26
S'--'
p216
sg28
S'--'
p217
sg30
S'W38-31'
p218
sg32
S'14'
p219
sg34
g10
sg36
S'JAC'
p220
sg38
S'14'
p221
sg40
g47
sg41
S'--'
p222
ssg35
(dp223
g5
S'--'
p224
sg7
S'--'
p225
sg9
g10
sg11
S'--'
p226
sg13
g10
sg14
S'Vincent Jackson'
p227
sg16
S'2015'
p228
sg18
g35
sg20
S'--'
p229
sg22
S'10/04'
p230
sg24
S'14.7'
p231
sg26
S'--'
p232
sg28
S'--'
p233
sg30
S'L23-37'
p234
sg32
S'147'
p235
sg34
S'10'
p236
sg36
S'CAR'
p237
sg38
S'23'
p238
sg40
g10
sg41
S'--'
p239
ssS'7'
p240
(dp241
g5
S'--'
p242
sg7
S'--'
p243
sg9
g10
sg11
S'--'
p244
sg13
g10
sg14
S'Vincent Jackson'
p245
sg16
S'2015'
p246
sg18
g240
sg20
S'--'
p247
sg22
S'10/25'
p248
sg24
S'13.0'
p249
sg26
S'--'
p250
sg28
S'--'
p251
sg30
S'L30-31'
p252
sg32
S'13'
p253
sg34
g10
sg36
S'@WAS'
p254
sg38
S'13'
p255
sg40
g47
sg41
S'--'
p256
ssS'6'
p257
(dp258
g5
S''
p259
sg7
g259
sg9
g259
sg11
g259
sg13
g259
sg14
S'Vincent Jackson'
p260
sg16
S'2015'
p261
sg18
g257
sg20
g259
sg22
S'Bye'
p262
sg24
g259
sg26
g259
sg28
g259
sg30
g259
sg32
g259
sg34
g259
sg36
g259
sg38
g259
sg40
g259
sg41
g259
ssS'9'
p263
(dp264
g5
S'--'
p265
sg7
S'--'
p266
sg9
g47
sg11
S'--'
p267
sg13
g47
sg14
S'Vincent Jackson'
p268
sg16
S'2015'
p269
sg18
g263
sg20
S'--'
p270
sg22
S'11/08'
p271
sg24
S'--'
p272
sg26
S'--'
p273
sg28
S'--'
p274
sg30
S'L18-32'
p275
sg32
S'--'
p276
sg34
S'--'
p277
sg36
S'NYG'
p278
sg38
S'--'
p279
sg40
S'--'
p280
sg41
S'--'
p281
ssS'8'
p282
(dp283
g5
S'--'
p284
sg7
S'--'
p285
sg9
g47
sg11
S'--'
p286
sg13
g47
sg14
S'Vincent Jackson'
p287
sg16
S'2015'
p288
sg18
g282
sg20
S'--'
p289
sg22
S'11/01'
p290
sg24
S'--'
p291
sg26
S'--'
p292
sg28
S'--'
p293
sg30
S'W23-20'
p294
sg32
S'--'
p295
sg34
S'--'
p296
sg36
S'@ATL'
p297
sg38
S'--'
p298
sg40
S'--'
p299
sg41
S'--'
p300
sssS'2014'
p301
(dp302
g3
(dp303
g5
S'--'
p304
sg7
S'--'
p305
sg9
g10
sg11
S'--'
p306
sg13
g10
sg14
S'Vincent Jackson'
p307
sg16
S'2014'
p308
sg18
S'11'
p309
sg20
S'--'
p310
sg22
S'11/16'
p311
sg24
S'14.3'
p312
sg26
S'--'
p313
sg28
S'--'
p314
sg30
S'W27-7'
p315
sg32
S'43'
p316
sg34
g79
sg36
S'@WAS'
p317
sg38
S'18'
p318
sg40
g47
sg41
S'--'
p319
ssg43
(dp320
g5
S'--'
p321
sg7
S'--'
p322
sg9
g10
sg11
S'--'
p323
sg13
g10
sg14
S'Vincent Jackson'
p324
sg16
S'2014'
p325
sg18
S'10'
p326
sg20
S'--'
p327
sg22
S'11/09'
p328
sg24
S'9.4'
p329
sg26
S'--'
p330
sg28
S'--'
p331
sg30
S'L17-27'
p332
sg32
S'75'
p333
sg34
g282
sg36
S'ATL'
p334
sg38
S'19'
p335
sg40
g47
sg41
S'--'
p336
ssg64
(dp337
g5
S'--'
p338
sg7
S'--'
p339
sg9
g10
sg11
S'--'
p340
sg13
g10
sg14
S'Vincent Jackson'
p341
sg16
S'2014'
p342
sg18
S'13'
p343
sg20
S'--'
p344
sg22
S'11/30'
p345
sg24
S'12.0'
p346
sg26
S'--'
p347
sg28
S'--'
p348
sg30
S'L13-14'
p349
sg32
S'24'
p350
sg34
g187
sg36
S'CIN'
p351
sg38
S'15'
p352
sg40
g47
sg41
S'--'
p353
ssg83
(dp354
g5
S'--'
p355
sg7
S'--'
p356
sg9
g10
sg11
g10
sg13
g10
sg14
S'Vincent Jackson'
p357
sg16
S'2014'
p358
sg18
S'12'
p359
sg20
S'--'
p360
sg22
S'11/23'
p361
sg24
S'23.4'
p362
sg26
g10
sg28
S'--'
p363
sg30
S'L13-21'
p364
sg32
S'117'
p365
sg34
g135
sg36
S'@CHI'
p366
sg38
S'40'
p367
sg40
g47
sg41
S'--'
p368
ssg101
(dp369
g5
S'--'
p370
sg7
S'--'
p371
sg9
g10
sg11
S'--'
p372
sg13
g10
sg14
S'Vincent Jackson'
p373
sg16
S'2014'
p374
sg18
S'15'
p375
sg20
S'--'
p376
sg22
S'12/14'
p377
sg24
S'11.7'
p378
sg26
S'--'
p379
sg28
S'--'
p380
sg30
S'L17-19'
p381
sg32
S'70'
p382
sg34
g257
sg36
S'@CAR'
p383
sg38
S'18'
p384
sg40
g47
sg41
S'--'
p385
ssg121
(dp386
g5
S'--'
p387
sg7
S'--'
p388
sg9
g10
sg11
S'--'
p389
sg13
g10
sg14
S'Vincent Jackson'
p390
sg16
S'2014'
p391
sg18
S'14'
p392
sg20
S'--'
p393
sg22
S'12/07'
p394
sg24
S'15.9'
p395
sg26
S'--'
p396
sg28
S'--'
p397
sg30
S'L17-34'
p398
sg32
S'159'
p399
sg34
S'10'
p400
sg36
S'@DET'
p401
sg38
S'50'
p402
sg40
g47
sg41
S'--'
p403
ssS'17'
p404
(dp405
g5
S'--'
p406
sg7
S'--'
p407
sg9
g10
sg11
S'--'
p408
sg13
g10
sg14
S'Vincent Jackson'
p409
sg16
S'2014'
p410
sg18
S'17'
p411
sg20
S'--'
p412
sg22
S'12/28'
p413
sg24
S'11.0'
p414
sg26
S'--'
p415
sg28
S'--'
p416
sg30
S'L20-23'
p417
sg32
S'11'
p418
sg34
g10
sg36
S'NO'
p419
sg38
S'11'
p420
sg40
g47
sg41
S'--'
p421
ssg138
(dp422
g5
S'--'
p423
sg7
S'--'
p424
sg9
g10
sg11
S'--'
p425
sg13
g10
sg14
S'Vincent Jackson'
p426
sg16
S'2014'
p427
sg18
S'16'
p428
sg20
S'--'
p429
sg22
S'12/21'
p430
sg24
S'20.0'
p431
sg26
S'--'
p432
sg28
S'--'
p433
sg30
S'L3-20'
p434
sg32
S'60'
p435
sg34
g79
sg36
S'GB'
p436
sg38
S'40'
p437
sg40
g47
sg41
S'--'
p438
ssg10
(dp439
g5
S'--'
p440
sg7
S'--'
p441
sg9
g10
sg11
S'--'
p442
sg13
g10
sg14
S'Vincent Jackson'
p443
sg16
S'2014'
p444
sg18
g10
sg20
S'--'
p445
sg22
S'09/07'
p446
sg24
S'9.0'
p447
sg26
S'--'
p448
sg28
S'--'
p449
sg30
S'L14-20'
p450
sg32
S'36'
p451
sg34
g35
sg36
S'CAR'
p452
sg38
S'15'
p453
sg40
g47
sg41
S'--'
p454
ssg79
(dp455
g5
S'--'
p456
sg7
S'--'
p457
sg9
g10
sg11
S'--'
p458
sg13
g10
sg14
S'Vincent Jackson'
p459
sg16
S'2014'
p460
sg18
g79
sg20
S'--'
p461
sg22
S'09/18'
p462
sg24
S'7.5'
p463
sg26
S'--'
p464
sg28
S'--'
p465
sg30
S'L14-56'
p466
sg32
S'15'
p467
sg34
g187
sg36
S'@ATL'
p468
sg38
S'12'
p469
sg40
g10
sg41
S'--'
p470
ssg187
(dp471
g5
S'--'
p472
sg7
S'--'
p473
sg9
g10
sg11
S'--'
p474
sg13
g10
sg14
S'Vincent Jackson'
p475
sg16
S'2014'
p476
sg18
g187
sg20
S'--'
p477
sg22
S'09/14'
p478
sg24
S'12.8'
p479
sg26
S'--'
p480
sg28
S'--'
p481
sg30
S'L17-19'
p482
sg32
S'51'
p483
sg34
g35
sg36
S'STL'
p484
sg38
S'20'
p485
sg40
g47
sg41
S'--'
p486
ssg135
(dp487
g5
S'--'
p488
sg7
S'--'
p489
sg9
g10
sg11
S'--'
p490
sg13
g10
sg14
S'Vincent Jackson'
p491
sg16
S'2014'
p492
sg18
g135
sg20
S'--'
p493
sg22
S'10/05'
p494
sg24
S'18.0'
p495
sg26
S'--'
p496
sg28
S'--'
p497
sg30
S'L31-37'
p498
sg32
S'144'
p499
sg34
g282
sg36
S'@NO'
p500
sg38
S'34'
p501
sg40
g47
sg41
S'--'
p502
ssg35
(dp503
g5
S'--'
p504
sg7
S'--'
p505
sg9
g10
sg11
S'--'
p506
sg13
g10
sg14
S'Vincent Jackson'
p507
sg16
S'2014'
p508
sg18
g35
sg20
S'--'
p509
sg22
S'09/28'
p510
sg24
S'10.7'
p511
sg26
S'--'
p512
sg28
S'--'
p513
sg30
S'W27-24'
p514
sg32
S'32'
p515
sg34
g79
sg36
S'@PIT'
p516
sg38
S'18'
p517
sg40
g10
sg41
S'--'
p518
ssg240
(dp519
g5
g259
sg7
g259
sg9
g259
sg11
g259
sg13
g259
sg14
S'Vincent Jackson'
p520
sg16
S'2014'
p521
sg18
g240
sg20
g259
sg22
S'Bye'
p522
sg24
g259
sg26
g259
sg28
g259
sg30
g259
sg32
g259
sg34
g259
sg36
g259
sg38
g259
sg40
g259
sg41
g259
ssg257
(dp523
g5
S'--'
p524
sg7
S'--'
p525
sg9
g10
sg11
S'--'
p526
sg13
g10
sg14
S'Vincent Jackson'
p527
sg16
S'2014'
p528
sg18
g257
sg20
S'--'
p529
sg22
S'10/12'
p530
sg24
S'16.5'
p531
sg26
S'--'
p532
sg28
S'--'
p533
sg30
S'L17-48'
p534
sg32
S'66'
p535
sg34
g35
sg36
S'BAL'
p536
sg38
S'33'
p537
sg40
g47
sg41
S'--'
p538
ssg263
(dp539
g5
S'--'
p540
sg7
S'--'
p541
sg9
g10
sg11
S'--'
p542
sg13
g10
sg14
S'Vincent Jackson'
p543
sg16
S'2014'
p544
sg18
g263
sg20
S'--'
p545
sg22
S'11/02'
p546
sg24
S'14.3'
p547
sg26
S'--'
p548
sg28
S'--'
p549
sg30
S'L17-22'
p550
sg32
S'86'
p551
sg34
g257
sg36
S'@CLE'
p552
sg38
S'22'
p553
sg40
g47
sg41
S'--'
p554
ssg282
(dp555
g5
S'--'
p556
sg7
S'--'
p557
sg9
g10
sg11
S'--'
p558
sg13
g10
sg14
S'Vincent Jackson'
p559
sg16
S'2014'
p560
sg18
g282
sg20
S'--'
p561
sg22
S'10/26'
p562
sg24
S'13.0'
p563
sg26
S'--'
p564
sg28
S'--'
p565
sg30
S'L13-19'
p566
sg32
S'13'
p567
sg34
g10
sg36
S'MIN'
p568
sg38
S'13'
p569
sg40
g47
sg41
S'--'
p570
sssS'2011'
p571
(dp572
g3
(dp573
g5
S'--'
p574
sg7
S'--'
p575
sg9
g10
sg11
S'--'
p576
sg13
g10
sg14
S'Vincent Jackson'
p577
sg16
S'2011'
p578
sg18
S'11'
p579
sg20
S'--'
p580
sg22
S'11/20'
p581
sg24
S'23.6'
p582
sg26
S'--'
p583
sg28
S'--'
p584
sg30
S'L20-31'
p585
sg32
S'165'
p586
sg34
g240
sg36
S'@CHI'
p587
sg38
S'47'
p588
sg40
g10
sg41
S'--'
p589
ssg43
(dp590
g5
S'--'
p591
sg7
S'--'
p592
sg9
g10
sg11
S'--'
p593
sg13
g10
sg14
S'Vincent Jackson'
p594
sg16
S'2011'
p595
sg18
S'10'
p596
sg20
S'--'
p597
sg22
S'11/10'
p598
sg24
S'22.0'
p599
sg26
S'--'
p600
sg28
S'--'
p601
sg30
S'L17-24'
p602
sg32
S'22'
p603
sg34
g10
sg36
S'OAK'
p604
sg38
S'22'
p605
sg40
g47
sg41
S'--'
p606
ssg64
(dp607
g5
S'--'
p608
sg7
S'--'
p609
sg9
g10
sg11
S'--'
p610
sg13
g10
sg14
S'Vincent Jackson'
p611
sg16
S'2011'
p612
sg18
S'13'
p613
sg20
S'--'
p614
sg22
S'12/05'
p615
sg24
S'18.0'
p616
sg26
S'--'
p617
sg28
S'--'
p618
sg30
S'W38-14'
p619
sg32
S'72'
p620
sg34
g35
sg36
S'@JAC'
p621
sg38
S'35T'
p622
sg40
g10
sg41
S'--'
p623
ssg83
(dp624
g5
S'--'
p625
sg7
S'--'
p626
sg9
g10
sg11
S'--'
p627
sg13
g10
sg14
S'Vincent Jackson'
p628
sg16
S'2011'
p629
sg18
S'12'
p630
sg20
S'--'
p631
sg22
S'11/27'
p632
sg24
S'12.5'
p633
sg26
S'--'
p634
sg28
S'--'
p635
sg30
S'L13-16'
p636
sg32
S'25'
p637
sg34
g187
sg36
S'DEN'
p638
sg38
S'15'
p639
sg40
g47
sg41
S'--'
p640
ssg101
(dp641
g5
g47
sg7
g263
sg9
g10
sg11
S'--'
p642
sg13
g10
sg14
S'Vincent Jackson'
p643
sg16
S'2011'
p644
sg18
S'15'
p645
sg20
S'9.0'
p646
sg22
S'12/18'
p647
sg24
S'28.0'
p648
sg26
S'--'
p649
sg28
g10
sg30
S'W34-14'
p650
sg32
S'84'
p651
sg34
g79
sg36
S'BAL'
p652
sg38
S'58'
p653
sg40
g47
sg41
g263
ssg121
(dp654
g5
S'--'
p655
sg7
S'--'
p656
sg9
g10
sg11
S'--'
p657
sg13
g10
sg14
S'Vincent Jackson'
p658
sg16
S'2011'
p659
sg18
S'14'
p660
sg20
S'--'
p661
sg22
S'12/11'
p662
sg24
S'11.0'
p663
sg26
S'--'
p664
sg28
S'--'
p665
sg30
S'W37-10'
p666
sg32
S'55'
p667
sg34
g135
sg36
S'BUF'
p668
sg38
S'17'
p669
sg40
g47
sg41
S'--'
p670
ssg404
(dp671
g5
g47
sg7
S'41'
p672
sg9
g10
sg11
S'--'
p673
sg13
g10
sg14
S'Vincent Jackson'
p674
sg16
S'2011'
p675
sg18
S'17'
p676
sg20
S'41.0'
p677
sg22
S'01/01'
p678
sg24
S'14.5'
p679
sg26
S'--'
p680
sg28
g10
sg30
S'W38-26'
p681
sg32
S'29'
p682
sg34
g187
sg36
S'@OAK'
p683
sg38
S'16'
p684
sg40
g10
sg41
S'41'
p685
ssg138
(dp686
g5
S'--'
p687
sg7
S'--'
p688
sg9
g10
sg11
S'--'
p689
sg13
g10
sg14
S'Vincent Jackson'
p690
sg16
S'2011'
p691
sg18
S'16'
p692
sg20
S'--'
p693
sg22
S'12/24'
p694
sg24
S'20.5'
p695
sg26
S'--'
p696
sg28
S'--'
p697
sg30
S'L10-38'
p698
sg32
S'41'
p699
sg34
g187
sg36
S'@DET'
p700
sg38
S'23'
p701
sg40
g47
sg41
S'--'
p702
ssg10
(dp703
g5
S'--'
p704
sg7
S'--'
p705
sg9
g10
sg11
S'--'
p706
sg13
g10
sg14
S'Vincent Jackson'
p707
sg16
S'2011'
p708
sg18
g10
sg20
S'--'
p709
sg22
S'09/11'
p710
sg24
S'15.5'
p711
sg26
S'--'
p712
sg28
S'--'
p713
sg30
S'W24-17'
p714
sg32
S'31'
p715
sg34
g187
sg36
S'MIN'
p716
sg38
S'21'
p717
sg40
g47
sg41
S'--'
p718
ssg79
(dp719
g5
g47
sg7
g10
sg9
g10
sg11
S'--'
p720
sg13
g10
sg14
S'Vincent Jackson'
p721
sg16
S'2011'
p722
sg18
g79
sg20
S'1.0'
p723
sg22
S'09/25'
p724
sg24
S'12.6'
p725
sg26
S'--'
p726
sg28
g10
sg30
S'W20-17'
p727
sg32
S'63'
p728
sg34
g135
sg36
S'KC'
p729
sg38
S'20'
p730
sg40
g47
sg41
g10
ssg187
(dp731
g5
S'--'
p732
sg7
S'--'
p733
sg9
g10
sg11
S'--'
p734
sg13
g10
sg14
S'Vincent Jackson'
p735
sg16
S'2011'
p736
sg18
g187
sg20
S'--'
p737
sg22
S'09/18'
p738
sg24
S'17.2'
p739
sg26
S'--'
p740
sg28
S'--'
p741
sg30
S'L21-35'
p742
sg32
S'172'
p743
sg34
S'10'
p744
sg36
S'@NE'
p745
sg38
S'29'
p746
sg40
g187
sg41
S'--'
p747
ssg135
(dp748
g5
S'--'
p749
sg7
S'--'
p750
sg9
g10
sg11
S'--'
p751
sg13
g10
sg14
S'Vincent Jackson'
p752
sg16
S'2011'
p753
sg18
g135
sg20
S'--'
p754
sg22
S'10/09'
p755
sg24
S'11.3'
p756
sg26
S'--'
p757
sg28
S'--'
p758
sg30
S'W29-24'
p759
sg32
S'34'
p760
sg34
g79
sg36
S'@DEN'
p761
sg38
S'14'
p762
sg40
g47
sg41
S'--'
p763
ssg35
(dp764
g5
S'--'
p765
sg7
S'--'
p766
sg9
g10
sg11
S'--'
p767
sg13
g10
sg14
S'Vincent Jackson'
p768
sg16
S'2011'
p769
sg18
g35
sg20
S'--'
p770
sg22
S'10/02'
p771
sg24
S'36.0'
p772
sg26
S'--'
p773
sg28
S'--'
p774
sg30
S'W26-16'
p775
sg32
S'108'
p776
sg34
g79
sg36
S'MIA'
p777
sg38
S'55T'
p778
sg40
g10
sg41
S'--'
p779
ssg240
(dp780
g5
S'--'
p781
sg7
S'--'
p782
sg9
g10
sg11
S'--'
p783
sg13
g10
sg14
S'Vincent Jackson'
p784
sg16
S'2011'
p785
sg18
g240
sg20
S'--'
p786
sg22
S'10/23'
p787
sg24
S'15.0'
p788
sg26
S'--'
p789
sg28
S'--'
p790
sg30
S'L21-27'
p791
sg32
S'15'
p792
sg34
g10
sg36
S'@NYJ'
p793
sg38
S'15'
p794
sg40
g47
sg41
S'--'
p795
ssg257
(dp796
g5
g259
sg7
g259
sg9
g259
sg11
g259
sg13
g259
sg14
S'Vincent Jackson'
p797
sg16
S'2011'
p798
sg18
g257
sg20
g259
sg22
S'Bye'
p799
sg24
g259
sg26
g259
sg28
g259
sg30
g259
sg32
g259
sg34
g259
sg36
g259
sg38
g259
sg40
g259
sg41
g259
ssg263
(dp800
g5
S'--'
p801
sg7
S'--'
p802
sg9
g10
sg11
S'--'
p803
sg13
g10
sg14
S'Vincent Jackson'
p804
sg16
S'2011'
p805
sg18
g263
sg20
S'--'
p806
sg22
S'11/06'
p807
sg24
S'20.1'
p808
sg26
S'--'
p809
sg28
S'--'
p810
sg30
S'L38-45'
p811
sg32
S'141'
p812
sg34
g240
sg36
S'GB'
p813
sg38
S'38'
p814
sg40
g79
sg41
S'--'
p815
ssg282
(dp816
g5
S'--'
p817
sg7
S'--'
p818
sg9
g10
sg11
S'--'
p819
sg13
g10
sg14
S'Vincent Jackson'
p820
sg16
S'2011'
p821
sg18
g282
sg20
S'--'
p822
sg22
S'10/31'
p823
sg24
S'16.3'
p824
sg26
S'--'
p825
sg28
S'--'
p826
sg30
S'L20-23'
p827
sg32
S'49'
p828
sg34
g79
sg36
S'@KC'
p829
sg38
S'27'
p830
sg40
g47
sg41
S'--'
p831
sssS'2013'
p832
(dp833
g3
(dp834
g5
S'--'
p835
sg7
S'--'
p836
sg9
g10
sg11
S'--'
p837
sg13
g10
sg14
S'Vincent Jackson'
p838
sg16
S'2013'
p839
sg18
S'11'
p840
sg20
S'--'
p841
sg22
S'11/17'
p842
sg24
S'16.5'
p843
sg26
S'--'
p844
sg28
S'--'
p845
sg30
S'W41-28'
p846
sg32
S'165'
p847
sg34
S'10'
p848
sg36
S'ATL'
p849
sg38
S'53'
p850
sg40
g10
sg41
S'--'
p851
ssg43
(dp852
g5
S'--'
p853
sg7
S'--'
p854
sg9
g10
sg11
S'--'
p855
sg13
g10
sg14
S'Vincent Jackson'
p856
sg16
S'2013'
p857
sg18
S'10'
p858
sg20
S'--'
p859
sg22
S'11/11'
p860
sg24
S'9.3'
p861
sg26
S'--'
p862
sg28
S'--'
p863
sg30
S'W22-19'
p864
sg32
S'28'
p865
sg34
g79
sg36
S'MIA'
p866
sg38
S'14'
p867
sg40
g47
sg41
S'--'
p868
ssg64
(dp869
g5
g47
sg7
g47
sg9
g10
sg11
S'--'
p870
sg13
g10
sg14
S'Vincent Jackson'
p871
sg16
S'2013'
p872
sg18
S'13'
p873
sg20
S'0.0'
p874
sg22
S'12/01'
p875
sg24
S'25.0'
p876
sg26
S'--'
p877
sg28
g10
sg30
S'L6-27'
p878
sg32
S'75'
p879
sg34
g79
sg36
S'@CAR'
p880
sg38
S'60'
p881
sg40
g47
sg41
g47
ssg83
(dp882
g5
S'--'
p883
sg7
S'--'
p884
sg9
g10
sg11
S'--'
p885
sg13
g10
sg14
S'Vincent Jackson'
p886
sg16
S'2013'
p887
sg18
S'12'
p888
sg20
S'--'
p889
sg22
S'11/24'
p890
sg24
S'30.5'
p891
sg26
S'--'
p892
sg28
S'--'
p893
sg30
S'W24-21'
p894
sg32
S'61'
p895
sg34
g187
sg36
S'@DET'
p896
sg38
S'47'
p897
sg40
g47
sg41
S'--'
p898
ssg101
(dp899
g5
S'--'
p900
sg7
S'--'
p901
sg9
g10
sg11
S'--'
p902
sg13
g10
sg14
S'Vincent Jackson'
p903
sg16
S'2013'
p904
sg18
S'15'
p905
sg20
S'--'
p906
sg22
S'12/15'
p907
sg24
S'11.6'
p908
sg26
S'--'
p909
sg28
S'--'
p910
sg30
S'L14-33'
p911
sg32
S'58'
p912
sg34
g135
sg36
S'SF'
p913
sg38
S'16'
p914
sg40
g10
sg41
S'--'
p915
ssg121
(dp916
g5
S'--'
p917
sg7
S'--'
p918
sg9
g10
sg11
S'--'
p919
sg13
g10
sg14
S'Vincent Jackson'
p920
sg16
S'2013'
p921
sg18
S'14'
p922
sg20
S'--'
p923
sg22
S'12/08'
p924
sg24
S'23.3'
p925
sg26
S'--'
p926
sg28
S'--'
p927
sg30
S'W27-6'
p928
sg32
S'70'
p929
sg34
g79
sg36
S'BUF'
p930
sg38
S'38T'
p931
sg40
g10
sg41
S'--'
p932
ssg404
(dp933
g5
S'--'
p934
sg7
S'--'
p935
sg9
g10
sg11
S'--'
p936
sg13
g10
sg14
S'Vincent Jackson'
p937
sg16
S'2013'
p938
sg18
S'17'
p939
sg20
S'--'
p940
sg22
S'12/29'
p941
sg24
S'8.8'
p942
sg26
S'--'
p943
sg28
S'--'
p944
sg30
S'L17-42'
p945
sg32
S'35'
p946
sg34
g35
sg36
S'@NO'
p947
sg38
S'12'
p948
sg40
g47
sg41
S'--'
p949
ssg138
(dp950
g5
S'--'
p951
sg7
S'--'
p952
sg9
g10
sg11
S'--'
p953
sg13
g10
sg14
S'Vincent Jackson'
p954
sg16
S'2013'
p955
sg18
S'16'
p956
sg20
S'--'
p957
sg22
S'12/22'
p958
sg24
S'19.6'
p959
sg26
S'--'
p960
sg28
S'--'
p961
sg30
S'L13-23'
p962
sg32
S'98'
p963
sg34
g135
sg36
S'@STL'
p964
sg38
S'30'
p965
sg40
g47
sg41
S'--'
p966
ssg10
(dp967
g5
S'--'
p968
sg7
S'--'
p969
sg9
g10
sg11
S'--'
p970
sg13
g10
sg14
S'Vincent Jackson'
p971
sg16
S'2013'
p972
sg18
g10
sg20
S'--'
p973
sg22
S'09/08'
p974
sg24
S'22.0'
p975
sg26
S'--'
p976
sg28
S'--'
p977
sg30
S'L17-18'
p978
sg32
S'154'
p979
sg34
g240
sg36
S'@NYJ'
p980
sg38
S'39'
p981
sg40
g47
sg41
S'--'
p982
ssg79
(dp983
g5
S'--'
p984
sg7
S'--'
p985
sg9
g10
sg11
S'--'
p986
sg13
g10
sg14
S'Vincent Jackson'
p987
sg16
S'2013'
p988
sg18
g79
sg20
S'--'
p989
sg22
S'09/22'
p990
sg24
S'11.3'
p991
sg26
S'--'
p992
sg28
S'--'
p993
sg30
S'L3-23'
p994
sg32
S'34'
p995
sg34
g79
sg36
S'@NE'
p996
sg38
S'19'
p997
sg40
g47
sg41
S'--'
p998
ssg187
(dp999
g5
S'--'
p1000
sg7
S'--'
p1001
sg9
g10
sg11
S'--'
p1002
sg13
g10
sg14
S'Vincent Jackson'
p1003
sg16
S'2013'
p1004
sg18
g187
sg20
S'--'
p1005
sg22
S'09/15'
p1006
sg24
S'15.4'
p1007
sg26
S'--'
p1008
sg28
S'--'
p1009
sg30
S'L14-16'
p1010
sg32
S'77'
p1011
sg34
g135
sg36
S'NO'
p1012
sg38
S'22'
p1013
sg40
g47
sg41
S'--'
p1014
ssg135
(dp1015
g5
g259
sg7
g259
sg9
g259
sg11
g259
sg13
g259
sg14
S'Vincent Jackson'
p1016
sg16
S'2013'
p1017
sg18
g135
sg20
g259
sg22
S'Bye'
p1018
sg24
g259
sg26
g259
sg28
g259
sg30
g259
sg32
g259
sg34
g259
sg36
g259
sg38
g259
sg40
g259
sg41
g259
ssg35
(dp1019
g5
S'--'
p1020
sg7
S'--'
p1021
sg9
g10
sg11
S'--'
p1022
sg13
g10
sg14
S'Vincent Jackson'
p1023
sg16
S'2013'
p1024
sg18
g35
sg20
S'--'
p1025
sg22
S'09/29'
p1026
sg24
S'13.5'
p1027
sg26
S'--'
p1028
sg28
S'--'
p1029
sg30
S'L10-13'
p1030
sg32
S'27'
p1031
sg34
g187
sg36
S'ARI'
p1032
sg38
S'14'
p1033
sg40
g47
sg41
S'--'
p1034
ssg240
(dp1035
g5
S'--'
p1036
sg7
S'--'
p1037
sg9
g10
sg11
g47
sg13
g10
sg14
S'Vincent Jackson'
p1038
sg16
S'2013'
p1039
sg18
g240
sg20
S'--'
p1040
sg22
S'10/20'
p1041
sg24
S'13.8'
p1042
sg26
g10
sg28
S'--'
p1043
sg30
S'L23-31'
p1044
sg32
S'138'
p1045
sg34
S'10'
p1046
sg36
S'@ATL'
p1047
sg38
S'59T'
p1048
sg40
g187
sg41
S'--'
p1049
ssg257
(dp1050
g5
S'--'
p1051
sg7
S'--'
p1052
sg9
g10
sg11
S'--'
p1053
sg13
g10
sg14
S'Vincent Jackson'
p1054
sg16
S'2013'
p1055
sg18
g257
sg20
S'--'
p1056
sg22
S'10/13'
p1057
sg24
S'12.7'
p1058
sg26
S'--'
p1059
sg28
S'--'
p1060
sg30
S'L20-31'
p1061
sg32
S'114'
p1062
sg34
g263
sg36
S'PHI'
p1063
sg38
S'24T'
p1064
sg40
g187
sg41
S'--'
p1065
ssg263
(dp1066
g5
S'--'
p1067
sg7
S'--'
p1068
sg9
g10
sg11
S'--'
p1069
sg13
g10
sg14
S'Vincent Jackson'
p1070
sg16
S'2013'
p1071
sg18
g263
sg20
S'--'
p1072
sg22
S'11/03'
p1073
sg24
S'5.5'
p1074
sg26
S'--'
p1075
sg28
S'--'
p1076
sg30
S'L24-27'
p1077
sg32
S'11'
p1078
sg34
g187
sg36
S'@SEA'
p1079
sg38
g257
sg40
g47
sg41
S'--'
p1080
ssg282
(dp1081
g5
S'--'
p1082
sg7
S'--'
p1083
sg9
g10
sg11
S'--'
p1084
sg13
g10
sg14
S'Vincent Jackson'
p1085
sg16
S'2013'
p1086
sg18
g282
sg20
S'--'
p1087
sg22
S'10/24'
p1088
sg24
S'15.8'
p1089
sg26
S'--'
p1090
sg28
S'--'
p1091
sg30
S'L13-31'
p1092
sg32
S'79'
p1093
sg34
g135
sg36
S'CAR'
p1094
sg38
S'29'
p1095
sg40
g47
sg41
S'--'
p1096
sssS'2012'
p1097
(dp1098
g3
(dp1099
g5
S'--'
p1100
sg7
S'--'
p1101
sg9
g10
sg11
S'--'
p1102
sg13
g10
sg14
S'Vincent Jackson'
p1103
sg16
S'2012'
p1104
sg18
S'11'
p1105
sg20
S'--'
p1106
sg22
S'11/18'
p1107
sg24
S'15.7'
p1108
sg26
S'--'
p1109
sg28
S'--'
p1110
sg30
S'W27-21'
p1111
sg32
S'94'
p1112
sg34
g257
sg36
S'@CAR'
p1113
sg38
S'24T'
p1114
sg40
g10
sg41
S'--'
p1115
ssg43
(dp1116
g5
S'--'
p1117
sg7
S'--'
p1118
sg9
g10
sg11
S'--'
p1119
sg13
g10
sg14
S'Vincent Jackson'
p1120
sg16
S'2012'
p1121
sg18
S'10'
p1122
sg20
S'--'
p1123
sg22
S'11/11'
p1124
sg24
S'11.8'
p1125
sg26
S'--'
p1126
sg28
S'--'
p1127
sg30
S'W34-24'
p1128
sg32
S'59'
p1129
sg34
g135
sg36
S'SD'
p1130
sg38
S'31'
p1131
sg40
g47
sg41
S'--'
p1132
ssg64
(dp1133
g5
S'--'
p1134
sg7
S'--'
p1135
sg9
g10
sg11
S'--'
p1136
sg13
g10
sg14
S'Vincent Jackson'
p1137
sg16
S'2012'
p1138
sg18
S'13'
p1139
sg20
S'--'
p1140
sg22
S'12/02'
p1141
sg24
S'18.3'
p1142
sg26
S'--'
p1143
sg28
S'--'
p1144
sg30
S'L23-31'
p1145
sg32
S'55'
p1146
sg34
g79
sg36
S'@DEN'
p1147
sg38
S'24'
p1148
sg40
g47
sg41
S'--'
p1149
ssg83
(dp1150
g5
S'--'
p1151
sg7
S'--'
p1152
sg9
g10
sg11
S'--'
p1153
sg13
g10
sg14
S'Vincent Jackson'
p1154
sg16
S'2012'
p1155
sg18
S'12'
p1156
sg20
S'--'
p1157
sg22
S'11/25'
p1158
sg24
S'19.2'
p1159
sg26
S'--'
p1160
sg28
S'--'
p1161
sg30
S'L23-24'
p1162
sg32
S'96'
p1163
sg34
g135
sg36
S'ATL'
p1164
sg38
S'31'
p1165
sg40
g47
sg41
S'--'
p1166
ssg101
(dp1167
g5
S'--'
p1168
sg7
S'--'
p1169
sg9
g10
sg11
S'--'
p1170
sg13
g10
sg14
S'Vincent Jackson'
p1171
sg16
S'2012'
p1172
sg18
S'15'
p1173
sg20
S'--'
p1174
sg22
S'12/16'
p1175
sg24
S'13.5'
p1176
sg26
S'--'
p1177
sg28
S'--'
p1178
sg30
S'L0-41'
p1179
sg32
S'81'
p1180
sg34
g257
sg36
S'@NO'
p1181
sg38
S'19'
p1182
sg40
g47
sg41
S'--'
p1183
ssg121
(dp1184
g5
S'--'
p1185
sg7
S'--'
p1186
sg9
g10
sg11
S'--'
p1187
sg13
g10
sg14
S'Vincent Jackson'
p1188
sg16
S'2012'
p1189
sg18
S'14'
p1190
sg20
S'--'
p1191
sg22
S'12/09'
p1192
sg24
S'21.8'
p1193
sg26
S'--'
p1194
sg28
S'--'
p1195
sg30
S'L21-23'
p1196
sg32
S'131'
p1197
sg34
g257
sg36
S'PHI'
p1198
sg38
S'40'
p1199
sg40
g10
sg41
S'--'
p1200
ssg404
(dp1201
g5
S'--'
p1202
sg7
S'--'
p1203
sg9
g10
sg11
S'--'
p1204
sg13
g10
sg14
S'Vincent Jackson'
p1205
sg16
S'2012'
p1206
sg18
S'17'
p1207
sg20
S'--'
p1208
sg22
S'12/30'
p1209
sg24
S'16.7'
p1210
sg26
S'--'
p1211
sg28
S'--'
p1212
sg30
S'W22-17'
p1213
sg32
S'50'
p1214
sg34
g79
sg36
S'@ATL'
p1215
sg38
S'27'
p1216
sg40
g47
sg41
S'--'
p1217
ssg138
(dp1218
g5
S'--'
p1219
sg7
S'--'
p1220
sg9
g10
sg11
S'--'
p1221
sg13
g10
sg14
S'Vincent Jackson'
p1222
sg16
S'2012'
p1223
sg18
S'16'
p1224
sg20
S'--'
p1225
sg22
S'12/23'
p1226
sg24
S'15.4'
p1227
sg26
S'--'
p1228
sg28
S'--'
p1229
sg30
S'L13-28'
p1230
sg32
S'108'
p1231
sg34
g240
sg36
S'STL'
p1232
sg38
S'46'
p1233
sg40
g47
sg41
S'--'
p1234
ssg10
(dp1235
g5
S'--'
p1236
sg7
S'--'
p1237
sg9
g10
sg11
S'--'
p1238
sg13
g10
sg14
S'Vincent Jackson'
p1239
sg16
S'2012'
p1240
sg18
g10
sg20
S'--'
p1241
sg22
S'09/09'
p1242
sg24
S'11.8'
p1243
sg26
S'--'
p1244
sg28
S'--'
p1245
sg30
S'W16-10'
p1246
sg32
S'47'
p1247
sg34
g35
sg36
S'CAR'
p1248
sg38
S'21'
p1249
sg40
g47
sg41
S'--'
p1250
ssg79
(dp1251
g5
S'--'
p1252
sg7
S'--'
p1253
sg9
g10
sg11
S'--'
p1254
sg13
g10
sg14
S'Vincent Jackson'
p1255
sg16
S'2012'
p1256
sg18
g79
sg20
S'--'
p1257
sg22
S'09/23'
p1258
sg24
S'29.0'
p1259
sg26
S'--'
p1260
sg28
S'--'
p1261
sg30
S'L10-16'
p1262
sg32
S'29'
p1263
sg34
g10
sg36
S'@DAL'
p1264
sg38
S'29'
p1265
sg40
g47
sg41
S'--'
p1266
ssg187
(dp1267
g5
S'--'
p1268
sg7
S'--'
p1269
sg9
g10
sg11
S'--'
p1270
sg13
g10
sg14
S'Vincent Jackson'
p1271
sg16
S'2012'
p1272
sg18
g187
sg20
S'--'
p1273
sg22
S'09/16'
p1274
sg24
S'25.6'
p1275
sg26
S'--'
p1276
sg28
S'--'
p1277
sg30
S'L34-41'
p1278
sg32
S'128'
p1279
sg34
g135
sg36
S'@NYG'
p1280
sg38
S'41'
p1281
sg40
g10
sg41
S'--'
p1282
ssg135
(dp1283
g5
g259
sg7
g259
sg9
g259
sg11
g259
sg13
g259
sg14
S'Vincent Jackson'
p1284
sg16
S'2012'
p1285
sg18
g135
sg20
g259
sg22
S'Bye'
p1286
sg24
g259
sg26
g259
sg28
g259
sg30
g259
sg32
g259
sg34
g259
sg36
g259
sg38
g259
sg40
g259
sg41
g259
ssg35
(dp1287
g5
S'--'
p1288
sg7
S'--'
p1289
sg9
g10
sg11
S'--'
p1290
sg13
g10
sg14
S'Vincent Jackson'
p1291
sg16
S'2012'
p1292
sg18
g35
sg20
S'--'
p1293
sg22
S'09/30'
p1294
sg24
S'16.7'
p1295
sg26
S'--'
p1296
sg28
S'--'
p1297
sg30
S'L22-24'
p1298
sg32
S'100'
p1299
sg34
g257
sg36
S'WAS'
p1300
sg38
S'54'
p1301
sg40
g10
sg41
S'--'
p1302
ssg240
(dp1303
g5
S'--'
p1304
sg7
S'--'
p1305
sg9
g10
sg11
S'--'
p1306
sg13
g10
sg14
S'Vincent Jackson'
p1307
sg16
S'2012'
p1308
sg18
g240
sg20
S'--'
p1309
sg22
S'10/21'
p1310
sg24
S'30.9'
p1311
sg26
S'--'
p1312
sg28
S'--'
p1313
sg30
S'L28-35'
p1314
sg32
S'216'
p1315
sg34
g240
sg36
S'NO'
p1316
sg38
S'95'
p1317
sg40
g10
sg41
S'--'
p1318
ssg257
(dp1319
g5
S'--'
p1320
sg7
S'--'
p1321
sg9
g10
sg11
S'--'
p1322
sg13
g10
sg14
S'Vincent Jackson'
p1323
sg16
S'2012'
p1324
sg18
g257
sg20
S'--'
p1325
sg22
S'10/14'
p1326
sg24
S'16.5'
p1327
sg26
S'--'
p1328
sg28
S'--'
p1329
sg30
S'W38-10'
p1330
sg32
S'66'
p1331
sg34
g35
sg36
S'KC'
p1332
sg38
S'19T'
p1333
sg40
g187
sg41
S'--'
p1334
ssg263
(dp1335
g5
S'--'
p1336
sg7
S'--'
p1337
sg9
g10
sg11
S'--'
p1338
sg13
g10
sg14
S'Vincent Jackson'
p1339
sg16
S'2012'
p1340
sg18
g263
sg20
S'--'
p1341
sg22
S'11/04'
p1342
sg24
S'42.0'
p1343
sg26
S'--'
p1344
sg28
S'--'
p1345
sg30
S'W42-32'
p1346
sg32
S'84'
p1347
sg34
g187
sg36
S'@OAK'
p1348
sg38
S'64'
p1349
sg40
g10
sg41
S'--'
p1350
ssg282
(dp1351
g5
S'--'
p1352
sg7
S'--'
p1353
sg9
g10
sg11
S'--'
p1354
sg13
g10
sg14
S'Vincent Jackson'
p1355
sg16
S'2012'
p1356
sg18
g282
sg20
S'--'
p1357
sg22
S'10/25'
p1358
sg24
S'20.0'
p1359
sg26
S'--'
p1360
sg28
S'--'
p1361
sg30
S'W36-17'
p1362
sg32
S'40'
p1363
sg34
g187
sg36
S'@MIN'
p1364
sg38
S'26'
p1365
sg40
g47
sg41
S'--'
p1366
sss.