(dp0
S'2015'
p1
(dp2
S'15'
p3
(dp4
S'RushTD'
p5
S'--'
p6
sS'RushYds'
p7
S'--'
p8
sS'GS'
p9
S'0'
p10
sS'Lost'
p11
S'--'
p12
sS'G'
p13
g10
sS'Player'
p14
S'Vincent Brown'
p15
sS'Year'
p16
S'2015'
p17
sS'WK'
p18
S'15'
p19
sS'RushAvg'
p20
S'--'
p21
sS'Game Date'
p22
S'12/20'
p23
sS'RecAvg'
p24
S'--'
p25
sS'FUM'
p26
S'--'
p27
sS'RushAtt'
p28
S'--'
p29
sS'Result'
p30
S'W30-14'
p31
sS'RecYds'
p32
S'--'
p33
sS'Rec'
p34
S'--'
p35
sS'Opp'
p36
S'MIA'
p37
sS'RecLng'
p38
S'--'
p39
sS'RecTD'
p40
S'--'
p41
sS'RushLng'
p42
S'--'
p43
ssS'14'
p44
(dp45
g5
S'--'
p46
sg7
S'--'
p47
sg9
g10
sg11
S'--'
p48
sg13
S'1'
p49
sg14
S'Vincent Brown'
p50
sg16
S'2015'
p51
sg18
S'14'
p52
sg20
S'--'
p53
sg22
S'12/13'
p54
sg24
S'22.0'
p55
sg26
S'--'
p56
sg28
S'--'
p57
sg30
S'L3-10'
p58
sg32
S'22'
p59
sg34
g49
sg36
S'@KC'
p60
sg38
S'22'
p61
sg40
g10
sg42
S'--'
p62
ssS'16'
p63
(dp64
g5
S'--'
p65
sg7
S'--'
p66
sg9
g10
sg11
S'--'
p67
sg13
g10
sg14
S'Vincent Brown'
p68
sg16
S'2015'
p69
sg18
S'16'
p70
sg20
S'--'
p71
sg22
S'12/24'
p72
sg24
S'--'
p73
sg26
S'--'
p74
sg28
S'--'
p75
sg30
S'L20-23'
p76
sg32
S'--'
p77
sg34
S'--'
p78
sg36
S'@OAK'
p79
sg38
S'--'
p80
sg40
S'--'
p81
sg42
S'--'
p82
sssS'2014'
p83
(dp84
S'11'
p85
(dp86
g5
S'--'
p87
sg7
S'--'
p88
sg9
g10
sg11
S'--'
p89
sg13
g10
sg14
S'Vincent Brown'
p90
sg16
S'2014'
p91
sg18
S'11'
p92
sg20
S'--'
p93
sg22
S'11/16'
p94
sg24
S'--'
p95
sg26
S'--'
p96
sg28
S'--'
p97
sg30
S'L6-13'
p98
sg32
S'--'
p99
sg34
S'--'
p100
sg36
S'@SD'
p101
sg38
S'--'
p102
sg40
S'--'
p103
sg42
S'--'
p104
ssS'10'
p105
(dp106
g5
S'--'
p107
sg7
S'--'
p108
sg9
g10
sg11
S'--'
p109
sg13
g49
sg14
S'Vincent Brown'
p110
sg16
S'2014'
p111
sg18
S'10'
p112
sg20
S'--'
p113
sg22
S'11/09'
p114
sg24
S'6.7'
p115
sg26
S'--'
p116
sg28
S'--'
p117
sg30
S'L17-41'
p118
sg32
S'20'
p119
sg34
S'3'
p120
sg36
S'DEN'
p121
sg38
S'9'
p122
sg40
g10
sg42
S'--'
p123
ssS'13'
p124
(dp125
g5
S'--'
p126
sg7
S'--'
p127
sg9
g10
sg11
S'--'
p128
sg13
g49
sg14
S'Vincent Brown'
p129
sg16
S'2014'
p130
sg18
S'13'
p131
sg20
S'--'
p132
sg22
S'11/30'
p133
sg24
S'10.0'
p134
sg26
S'--'
p135
sg28
S'--'
p136
sg30
S'L0-52'
p137
sg32
S'10'
p138
sg34
g49
sg36
S'@STL'
p139
sg38
S'10'
p140
sg40
g10
sg42
S'--'
p141
ssS'12'
p142
(dp143
g5
S'--'
p144
sg7
S'--'
p145
sg9
g10
sg11
S'--'
p146
sg13
g49
sg14
S'Vincent Brown'
p147
sg16
S'2014'
p148
sg18
S'12'
p149
sg20
S'--'
p150
sg22
S'11/20'
p151
sg24
S'15.0'
p152
sg26
S'--'
p153
sg28
S'--'
p154
sg30
S'W24-20'
p155
sg32
S'30'
p156
sg34
S'2'
p157
sg36
S'KC'
p158
sg38
S'19'
p159
sg40
g10
sg42
S'--'
p160
ssg3
(dp161
g5
S'--'
p162
sg7
S'--'
p163
sg9
g10
sg11
S'--'
p164
sg13
g49
sg14
S'Vincent Brown'
p165
sg16
S'2014'
p166
sg18
S'15'
p167
sg20
S'--'
p168
sg22
S'12/14'
p169
sg24
S'8.0'
p170
sg26
S'--'
p171
sg28
S'--'
p172
sg30
S'L13-31'
p173
sg32
S'16'
p174
sg34
g157
sg36
S'@KC'
p175
sg38
S'11'
p176
sg40
g10
sg42
S'--'
p177
ssg44
(dp178
g5
S'--'
p179
sg7
S'--'
p180
sg9
g10
sg11
S'--'
p181
sg13
g49
sg14
S'Vincent Brown'
p182
sg16
S'2014'
p183
sg18
S'14'
p184
sg20
S'--'
p185
sg22
S'12/07'
p186
sg24
S'20.0'
p187
sg26
S'--'
p188
sg28
S'--'
p189
sg30
S'W24-13'
p190
sg32
S'20'
p191
sg34
g49
sg36
S'SF'
p192
sg38
S'20'
p193
sg40
g10
sg42
S'--'
p194
ssS'17'
p195
(dp196
g5
S'--'
p197
sg7
S'--'
p198
sg9
g10
sg11
S'--'
p199
sg13
g10
sg14
S'Vincent Brown'
p200
sg16
S'2014'
p201
sg18
S'17'
p202
sg20
S'--'
p203
sg22
S'12/28'
p204
sg24
S'--'
p205
sg26
S'--'
p206
sg28
S'--'
p207
sg30
S'L14-47'
p208
sg32
S'--'
p209
sg34
S'--'
p210
sg36
S'@DEN'
p211
sg38
S'--'
p212
sg40
S'--'
p213
sg42
S'--'
p214
ssg63
(dp215
g5
S'--'
p216
sg7
S'--'
p217
sg9
g10
sg11
S'--'
p218
sg13
g10
sg14
S'Vincent Brown'
p219
sg16
S'2014'
p220
sg18
S'16'
p221
sg20
S'--'
p222
sg22
S'12/21'
p223
sg24
S'--'
p224
sg26
S'--'
p225
sg28
S'--'
p226
sg30
S'W26-24'
p227
sg32
S'--'
p228
sg34
S'--'
p229
sg36
S'BUF'
p230
sg38
S'--'
p231
sg40
S'--'
p232
sg42
S'--'
p233
ssg120
(dp234
g5
S'--'
p235
sg7
S'--'
p236
sg9
g10
sg11
S'--'
p237
sg13
g49
sg14
S'Vincent Brown'
p238
sg16
S'2014'
p239
sg18
g120
sg20
S'--'
p240
sg22
S'09/21'
p241
sg24
S'--'
p242
sg26
S'--'
p243
sg28
S'--'
p244
sg30
S'L9-16'
p245
sg32
S'--'
p246
sg34
S'--'
p247
sg36
S'@NE'
p248
sg38
S'--'
p249
sg40
S'--'
p250
sg42
S'--'
p251
ssS'5'
p252
(dp253
g5
S''
p254
sg7
g254
sg9
g254
sg11
g254
sg13
g254
sg14
S'Vincent Brown'
p255
sg16
S'2014'
p256
sg18
g252
sg20
g254
sg22
S'Bye'
p257
sg24
g254
sg26
g254
sg28
g254
sg30
g254
sg32
g254
sg34
g254
sg36
g254
sg38
g254
sg40
g254
sg42
g254
ssS'4'
p258
(dp259
g5
S'--'
p260
sg7
S'--'
p261
sg9
g10
sg11
S'--'
p262
sg13
g49
sg14
S'Vincent Brown'
p263
sg16
S'2014'
p264
sg18
g258
sg20
S'--'
p265
sg22
S'09/28'
p266
sg24
S'7.3'
p267
sg26
S'--'
p268
sg28
S'--'
p269
sg30
S'L14-38'
p270
sg32
S'22'
p271
sg34
g120
sg36
S'MIA'
p272
sg38
S'14'
p273
sg40
g10
sg42
S'--'
p274
ssS'7'
p275
(dp276
g5
S'--'
p277
sg7
S'--'
p278
sg9
g10
sg11
S'--'
p279
sg13
g10
sg14
S'Vincent Brown'
p280
sg16
S'2014'
p281
sg18
g275
sg20
S'--'
p282
sg22
S'10/19'
p283
sg24
S'--'
p284
sg26
S'--'
p285
sg28
S'--'
p286
sg30
S'L13-24'
p287
sg32
S'--'
p288
sg34
S'--'
p289
sg36
S'ARI'
p290
sg38
S'--'
p291
sg40
S'--'
p292
sg42
S'--'
p293
ssS'6'
p294
(dp295
g5
S'--'
p296
sg7
S'--'
p297
sg9
g10
sg11
S'--'
p298
sg13
g10
sg14
S'Vincent Brown'
p299
sg16
S'2014'
p300
sg18
g294
sg20
S'--'
p301
sg22
S'10/12'
p302
sg24
S'--'
p303
sg26
S'--'
p304
sg28
S'--'
p305
sg30
S'L28-31'
p306
sg32
S'--'
p307
sg34
S'--'
p308
sg36
S'SD'
p309
sg38
S'--'
p310
sg40
S'--'
p311
sg42
S'--'
p312
ssg122
(dp313
g5
S'--'
p314
sg7
S'--'
p315
sg9
g10
sg11
S'--'
p316
sg13
g10
sg14
S'Vincent Brown'
p317
sg16
S'2014'
p318
sg18
g122
sg20
S'--'
p319
sg22
S'11/02'
p320
sg24
S'--'
p321
sg26
S'--'
p322
sg28
S'--'
p323
sg30
S'L24-30'
p324
sg32
S'--'
p325
sg34
S'--'
p326
sg36
S'@SEA'
p327
sg38
S'--'
p328
sg40
S'--'
p329
sg42
S'--'
p330
ssS'8'
p331
(dp332
g5
S'--'
p333
sg7
S'--'
p334
sg9
g10
sg11
S'--'
p335
sg13
g10
sg14
S'Vincent Brown'
p336
sg16
S'2014'
p337
sg18
g331
sg20
S'--'
p338
sg22
S'10/26'
p339
sg24
S'--'
p340
sg26
S'--'
p341
sg28
S'--'
p342
sg30
S'L13-23'
p343
sg32
S'--'
p344
sg34
S'--'
p345
sg36
S'@CLE'
p346
sg38
S'--'
p347
sg40
S'--'
p348
sg42
S'--'
p349
sssS'2011'
p350
(dp351
g85
(dp352
g5
S'--'
p353
sg7
S'--'
p354
sg9
g49
sg11
S'--'
p355
sg13
g49
sg14
S'Vincent Brown'
p356
sg16
S'2011'
p357
sg18
S'11'
p358
sg20
S'--'
p359
sg22
S'11/20'
p360
sg24
S'8.0'
p361
sg26
S'--'
p362
sg28
S'--'
p363
sg30
S'L20-31'
p364
sg32
g331
sg34
g49
sg36
S'@CHI'
p365
sg38
g331
sg40
g10
sg42
S'--'
p366
ssg105
(dp367
g5
S'--'
p368
sg7
S'--'
p369
sg9
g49
sg11
S'--'
p370
sg13
g49
sg14
S'Vincent Brown'
p371
sg16
S'2011'
p372
sg18
S'10'
p373
sg20
S'--'
p374
sg22
S'11/10'
p375
sg24
S'19.4'
p376
sg26
S'--'
p377
sg28
S'--'
p378
sg30
S'L17-24'
p379
sg32
S'97'
p380
sg34
g252
sg36
S'OAK'
p381
sg38
S'30T'
p382
sg40
g49
sg42
S'--'
p383
ssg124
(dp384
g5
S'--'
p385
sg7
S'--'
p386
sg9
g10
sg11
S'--'
p387
sg13
g49
sg14
S'Vincent Brown'
p388
sg16
S'2011'
p389
sg18
S'13'
p390
sg20
S'--'
p391
sg22
S'12/05'
p392
sg24
S'22.0'
p393
sg26
S'--'
p394
sg28
S'--'
p395
sg30
S'W38-14'
p396
sg32
S'22'
p397
sg34
g49
sg36
S'@JAC'
p398
sg38
S'22T'
p399
sg40
g49
sg42
S'--'
p400
ssg142
(dp401
g5
S'--'
p402
sg7
S'--'
p403
sg9
g49
sg11
S'--'
p404
sg13
g49
sg14
S'Vincent Brown'
p405
sg16
S'2011'
p406
sg18
S'12'
p407
sg20
S'--'
p408
sg22
S'11/27'
p409
sg24
S'16.7'
p410
sg26
S'--'
p411
sg28
S'--'
p412
sg30
S'L13-16'
p413
sg32
S'50'
p414
sg34
g120
sg36
S'DEN'
p415
sg38
S'30'
p416
sg40
g10
sg42
S'--'
p417
ssg3
(dp418
g5
S'--'
p419
sg7
S'--'
p420
sg9
g10
sg11
S'--'
p421
sg13
g49
sg14
S'Vincent Brown'
p422
sg16
S'2011'
p423
sg18
S'15'
p424
sg20
S'--'
p425
sg22
S'12/18'
p426
sg24
S'13.0'
p427
sg26
S'--'
p428
sg28
S'--'
p429
sg30
S'W34-14'
p430
sg32
S'13'
p431
sg34
g49
sg36
S'BAL'
p432
sg38
S'13'
p433
sg40
g10
sg42
S'--'
p434
ssg44
(dp435
g5
S'--'
p436
sg7
S'--'
p437
sg9
g10
sg11
S'--'
p438
sg13
g49
sg14
S'Vincent Brown'
p439
sg16
S'2011'
p440
sg18
S'14'
p441
sg20
S'--'
p442
sg22
S'12/11'
p443
sg24
S'--'
p444
sg26
S'--'
p445
sg28
S'--'
p446
sg30
S'W37-10'
p447
sg32
S'--'
p448
sg34
S'--'
p449
sg36
S'BUF'
p450
sg38
S'--'
p451
sg40
S'--'
p452
sg42
S'--'
p453
ssg195
(dp454
g5
S'--'
p455
sg7
S'--'
p456
sg9
g10
sg11
S'--'
p457
sg13
g49
sg14
S'Vincent Brown'
p458
sg16
S'2011'
p459
sg18
S'17'
p460
sg20
S'--'
p461
sg22
S'01/01'
p462
sg24
S'--'
p463
sg26
S'--'
p464
sg28
S'--'
p465
sg30
S'W38-26'
p466
sg32
S'--'
p467
sg34
S'--'
p468
sg36
S'@OAK'
p469
sg38
S'--'
p470
sg40
S'--'
p471
sg42
S'--'
p472
ssg63
(dp473
g5
S'--'
p474
sg7
S'--'
p475
sg9
g10
sg11
S'--'
p476
sg13
g49
sg14
S'Vincent Brown'
p477
sg16
S'2011'
p478
sg18
S'16'
p479
sg20
S'--'
p480
sg22
S'12/24'
p481
sg24
S'17.0'
p482
sg26
S'--'
p483
sg28
S'--'
p484
sg30
S'L10-38'
p485
sg32
S'34'
p486
sg34
g157
sg36
S'@DET'
p487
sg38
S'27'
p488
sg40
g10
sg42
S'--'
p489
ssg49
(dp490
g5
S'--'
p491
sg7
S'--'
p492
sg9
g10
sg11
S'--'
p493
sg13
g10
sg14
S'Vincent Brown'
p494
sg16
S'2011'
p495
sg18
g49
sg20
S'--'
p496
sg22
S'09/11'
p497
sg24
S'--'
p498
sg26
S'--'
p499
sg28
S'--'
p500
sg30
S'W24-17'
p501
sg32
S'--'
p502
sg34
S'--'
p503
sg36
S'MIN'
p504
sg38
S'--'
p505
sg40
S'--'
p506
sg42
S'--'
p507
ssg120
(dp508
g5
S'--'
p509
sg7
S'--'
p510
sg9
g10
sg11
S'--'
p511
sg13
g49
sg14
S'Vincent Brown'
p512
sg16
S'2011'
p513
sg18
g120
sg20
S'--'
p514
sg22
S'09/25'
p515
sg24
S'--'
p516
sg26
S'--'
p517
sg28
S'--'
p518
sg30
S'W20-17'
p519
sg32
g10
sg34
g10
sg36
S'KC'
p520
sg38
S'--'
p521
sg40
g10
sg42
S'--'
p522
ssg157
(dp523
g5
S'--'
p524
sg7
S'--'
p525
sg9
g10
sg11
S'--'
p526
sg13
g10
sg14
S'Vincent Brown'
p527
sg16
S'2011'
p528
sg18
g157
sg20
S'--'
p529
sg22
S'09/18'
p530
sg24
S'--'
p531
sg26
S'--'
p532
sg28
S'--'
p533
sg30
S'L21-35'
p534
sg32
S'--'
p535
sg34
S'--'
p536
sg36
S'@NE'
p537
sg38
S'--'
p538
sg40
S'--'
p539
sg42
S'--'
p540
ssg252
(dp541
g5
S'--'
p542
sg7
S'--'
p543
sg9
g10
sg11
S'--'
p544
sg13
g49
sg14
S'Vincent Brown'
p545
sg16
S'2011'
p546
sg18
g252
sg20
S'--'
p547
sg22
S'10/09'
p548
sg24
S'--'
p549
sg26
S'--'
p550
sg28
S'--'
p551
sg30
S'W29-24'
p552
sg32
S'--'
p553
sg34
S'--'
p554
sg36
S'@DEN'
p555
sg38
S'--'
p556
sg40
S'--'
p557
sg42
S'--'
p558
ssg258
(dp559
g5
S'--'
p560
sg7
S'--'
p561
sg9
g10
sg11
S'--'
p562
sg13
g49
sg14
S'Vincent Brown'
p563
sg16
S'2011'
p564
sg18
g258
sg20
S'--'
p565
sg22
S'10/02'
p566
sg24
S'13.0'
p567
sg26
S'--'
p568
sg28
S'--'
p569
sg30
S'W26-16'
p570
sg32
S'26'
p571
sg34
g157
sg36
S'MIA'
p572
sg38
S'20'
p573
sg40
g10
sg42
S'--'
p574
ssg275
(dp575
g5
S'--'
p576
sg7
S'--'
p577
sg9
g10
sg11
S'--'
p578
sg13
g49
sg14
S'Vincent Brown'
p579
sg16
S'2011'
p580
sg18
g275
sg20
S'--'
p581
sg22
S'10/23'
p582
sg24
S'--'
p583
sg26
S'--'
p584
sg28
S'--'
p585
sg30
S'L21-27'
p586
sg32
g10
sg34
g10
sg36
S'@NYJ'
p587
sg38
S'--'
p588
sg40
g10
sg42
S'--'
p589
ssg294
(dp590
g5
g254
sg7
g254
sg9
g254
sg11
g254
sg13
g254
sg14
S'Vincent Brown'
p591
sg16
S'2011'
p592
sg18
g294
sg20
g254
sg22
S'Bye'
p593
sg24
g254
sg26
g254
sg28
g254
sg30
g254
sg32
g254
sg34
g254
sg36
g254
sg38
g254
sg40
g254
sg42
g254
ssg122
(dp594
g5
S'--'
p595
sg7
S'--'
p596
sg9
g49
sg11
S'--'
p597
sg13
g49
sg14
S'Vincent Brown'
p598
sg16
S'2011'
p599
sg18
g122
sg20
S'--'
p600
sg22
S'11/06'
p601
sg24
S'19.8'
p602
sg26
S'--'
p603
sg28
S'--'
p604
sg30
S'L38-45'
p605
sg32
S'79'
p606
sg34
g258
sg36
S'GB'
p607
sg38
S'31'
p608
sg40
g10
sg42
S'--'
p609
ssg331
(dp610
g5
S'--'
p611
sg7
S'--'
p612
sg9
g10
sg11
S'--'
p613
sg13
g49
sg14
S'Vincent Brown'
p614
sg16
S'2011'
p615
sg18
g331
sg20
S'--'
p616
sg22
S'10/31'
p617
sg24
S'--'
p618
sg26
S'--'
p619
sg28
S'--'
p620
sg30
S'L20-23'
p621
sg32
S'--'
p622
sg34
S'--'
p623
sg36
S'@KC'
p624
sg38
S'--'
p625
sg40
S'--'
p626
sg42
S'--'
p627
sssS'2013'
p628
(dp629
g85
(dp630
g5
S'--'
p631
sg7
S'--'
p632
sg9
g10
sg11
S'--'
p633
sg13
g49
sg14
S'Vincent Brown'
p634
sg16
S'2013'
p635
sg18
S'11'
p636
sg20
S'--'
p637
sg22
S'11/17'
p638
sg24
S'8.5'
p639
sg26
S'--'
p640
sg28
S'--'
p641
sg30
S'L16-20'
p642
sg32
S'17'
p643
sg34
g157
sg36
S'@MIA'
p644
sg38
S'12'
p645
sg40
g10
sg42
S'--'
p646
ssg105
(dp647
g5
S'--'
p648
sg7
S'--'
p649
sg9
g10
sg11
S'--'
p650
sg13
g49
sg14
S'Vincent Brown'
p651
sg16
S'2013'
p652
sg18
S'10'
p653
sg20
S'--'
p654
sg22
S'11/10'
p655
sg24
S'11.7'
p656
sg26
S'--'
p657
sg28
S'--'
p658
sg30
S'L20-28'
p659
sg32
S'35'
p660
sg34
g120
sg36
S'DEN'
p661
sg38
S'15'
p662
sg40
g10
sg42
S'--'
p663
ssg124
(dp664
g5
S'--'
p665
sg7
S'--'
p666
sg9
g49
sg11
S'--'
p667
sg13
g49
sg14
S'Vincent Brown'
p668
sg16
S'2013'
p669
sg18
S'13'
p670
sg20
S'--'
p671
sg22
S'12/01'
p672
sg24
S'16.0'
p673
sg26
S'--'
p674
sg28
S'--'
p675
sg30
S'L10-17'
p676
sg32
S'16'
p677
sg34
g49
sg36
S'CIN'
p678
sg38
S'16'
p679
sg40
g10
sg42
S'--'
p680
ssg142
(dp681
g5
S'--'
p682
sg7
S'--'
p683
sg9
g49
sg11
S'--'
p684
sg13
g49
sg14
S'Vincent Brown'
p685
sg16
S'2013'
p686
sg18
S'12'
p687
sg20
S'--'
p688
sg22
S'11/24'
p689
sg24
S'--'
p690
sg26
S'--'
p691
sg28
S'--'
p692
sg30
S'W41-38'
p693
sg32
g10
sg34
g10
sg36
S'@KC'
p694
sg38
S'--'
p695
sg40
g10
sg42
S'--'
p696
ssg3
(dp697
g5
S'--'
p698
sg7
S'--'
p699
sg9
g49
sg11
S'--'
p700
sg13
g49
sg14
S'Vincent Brown'
p701
sg16
S'2013'
p702
sg18
S'15'
p703
sg20
S'--'
p704
sg22
S'12/12'
p705
sg24
S'18.0'
p706
sg26
S'--'
p707
sg28
S'--'
p708
sg30
S'W27-20'
p709
sg32
S'54'
p710
sg34
g120
sg36
S'@DEN'
p711
sg38
S'32'
p712
sg40
g10
sg42
S'--'
p713
ssg44
(dp714
g5
S'--'
p715
sg7
S'--'
p716
sg9
g49
sg11
S'--'
p717
sg13
g49
sg14
S'Vincent Brown'
p718
sg16
S'2013'
p719
sg18
S'14'
p720
sg20
S'--'
p721
sg22
S'12/08'
p722
sg24
S'10.0'
p723
sg26
S'--'
p724
sg28
S'--'
p725
sg30
S'W37-14'
p726
sg32
S'30'
p727
sg34
g120
sg36
S'NYG'
p728
sg38
S'12'
p729
sg40
g10
sg42
S'--'
p730
ssg195
(dp731
g5
S'--'
p732
sg7
S'--'
p733
sg9
g10
sg11
S'--'
p734
sg13
g49
sg14
S'Vincent Brown'
p735
sg16
S'2013'
p736
sg18
S'17'
p737
sg20
S'--'
p738
sg22
S'12/29'
p739
sg24
S'--'
p740
sg26
S'--'
p741
sg28
S'--'
p742
sg30
S'W27-24'
p743
sg32
g10
sg34
g10
sg36
S'KC'
p744
sg38
S'--'
p745
sg40
g10
sg42
S'--'
p746
ssg63
(dp747
g5
S'--'
p748
sg7
S'--'
p749
sg9
g10
sg11
S'--'
p750
sg13
g49
sg14
S'Vincent Brown'
p751
sg16
S'2013'
p752
sg18
S'16'
p753
sg20
S'--'
p754
sg22
S'12/22'
p755
sg24
S'19.0'
p756
sg26
S'--'
p757
sg28
S'--'
p758
sg30
S'W26-13'
p759
sg32
S'38'
p760
sg34
g157
sg36
S'OAK'
p761
sg38
S'24'
p762
sg40
g10
sg42
S'--'
p763
ssg49
(dp764
g5
S'--'
p765
sg7
S'--'
p766
sg9
g49
sg11
S'--'
p767
sg13
g49
sg14
S'Vincent Brown'
p768
sg16
S'2013'
p769
sg18
g49
sg20
S'--'
p770
sg22
S'09/09'
p771
sg24
S'6.5'
p772
sg26
S'--'
p773
sg28
S'--'
p774
sg30
S'L28-31'
p775
sg32
S'13'
p776
sg34
g157
sg36
S'HOU'
p777
sg38
S'10T'
p778
sg40
g49
sg42
S'--'
p779
ssg120
(dp780
g5
S'--'
p781
sg7
S'--'
p782
sg9
g49
sg11
S'--'
p783
sg13
g49
sg14
S'Vincent Brown'
p784
sg16
S'2013'
p785
sg18
g120
sg20
S'--'
p786
sg22
S'09/22'
p787
sg24
S'5.5'
p788
sg26
S'--'
p789
sg28
S'--'
p790
sg30
S'L17-20'
p791
sg32
S'11'
p792
sg34
g157
sg36
S'@TEN'
p793
sg38
g275
sg40
g10
sg42
S'--'
p794
ssg157
(dp795
g5
S'--'
p796
sg7
S'--'
p797
sg9
g49
sg11
S'--'
p798
sg13
g49
sg14
S'Vincent Brown'
p799
sg16
S'2013'
p800
sg18
g157
sg20
S'--'
p801
sg22
S'09/15'
p802
sg24
S'6.5'
p803
sg26
S'--'
p804
sg28
S'--'
p805
sg30
S'W33-30'
p806
sg32
S'26'
p807
sg34
g258
sg36
S'@PHI'
p808
sg38
g122
sg40
g10
sg42
S'--'
p809
ssg252
(dp810
g5
S'--'
p811
sg7
S'--'
p812
sg9
g49
sg11
S'--'
p813
sg13
g49
sg14
S'Vincent Brown'
p814
sg16
S'2013'
p815
sg18
g252
sg20
S'--'
p816
sg22
S'10/06'
p817
sg24
S'16.7'
p818
sg26
S'--'
p819
sg28
S'--'
p820
sg30
S'L17-27'
p821
sg32
S'117'
p822
sg34
g275
sg36
S'@OAK'
p823
sg38
S'51'
p824
sg40
g10
sg42
S'--'
p825
ssg258
(dp826
g5
S'--'
p827
sg7
S'--'
p828
sg9
g49
sg11
S'--'
p829
sg13
g49
sg14
S'Vincent Brown'
p830
sg16
S'2013'
p831
sg18
g258
sg20
S'--'
p832
sg22
S'09/29'
p833
sg24
S'5.9'
p834
sg26
S'--'
p835
sg28
S'--'
p836
sg30
S'W30-21'
p837
sg32
S'41'
p838
sg34
g275
sg36
S'DAL'
p839
sg38
S'19'
p840
sg40
g10
sg42
S'--'
p841
ssg275
(dp842
g5
S'--'
p843
sg7
S'--'
p844
sg9
g49
sg11
S'--'
p845
sg13
g49
sg14
S'Vincent Brown'
p846
sg16
S'2013'
p847
sg18
g275
sg20
S'--'
p848
sg22
S'10/20'
p849
sg24
S'13.0'
p850
sg26
S'--'
p851
sg28
S'--'
p852
sg30
S'W24-6'
p853
sg32
S'26'
p854
sg34
g157
sg36
S'@JAC'
p855
sg38
S'15'
p856
sg40
g10
sg42
S'--'
p857
ssg294
(dp858
g5
S'--'
p859
sg7
S'--'
p860
sg9
g49
sg11
S'--'
p861
sg13
g49
sg14
S'Vincent Brown'
p862
sg16
S'2013'
p863
sg18
g294
sg20
S'--'
p864
sg22
S'10/14'
p865
sg24
S'15.5'
p866
sg26
S'--'
p867
sg28
S'--'
p868
sg30
S'W19-9'
p869
sg32
S'31'
p870
sg34
g157
sg36
S'IND'
p871
sg38
S'16'
p872
sg40
g10
sg42
S'--'
p873
ssg122
(dp874
g5
S'--'
p875
sg7
S'--'
p876
sg9
g49
sg11
S'--'
p877
sg13
g49
sg14
S'Vincent Brown'
p878
sg16
S'2013'
p879
sg18
g122
sg20
S'--'
p880
sg22
S'11/03'
p881
sg24
S'17.0'
p882
sg26
S'--'
p883
sg28
S'--'
p884
sg30
S'L24-30'
p885
sg32
S'17'
p886
sg34
g49
sg36
S'@WAS'
p887
sg38
S'17'
p888
sg40
g10
sg42
S'--'
p889
ssg331
(dp890
g5
g254
sg7
g254
sg9
g254
sg11
g254
sg13
g254
sg14
S'Vincent Brown'
p891
sg16
S'2013'
p892
sg18
g331
sg20
g254
sg22
S'Bye'
p893
sg24
g254
sg26
g254
sg28
g254
sg30
g254
sg32
g254
sg34
g254
sg36
g254
sg38
g254
sg40
g254
sg42
g254
sss.