(dp0
S'2015'
p1
(dp2
S'17'
p3
(dp4
S'RushTD'
p5
S'--'
p6
sS'RushYds'
p7
S'--'
p8
sS'GS'
p9
S'0'
p10
sS'Lost'
p11
S'--'
p12
sS'G'
p13
g10
sS'Player'
p14
S'Vince Mayle'
p15
sS'Year'
p16
S'2015'
p17
sS'WK'
p18
S'17'
p19
sS'RushAvg'
p20
S'--'
p21
sS'Game Date'
p22
S'01/03'
p23
sS'RecAvg'
p24
S'--'
p25
sS'FUM'
p26
S'--'
p27
sS'RushAtt'
p28
S'--'
p29
sS'Result'
p30
S'L23-34'
p31
sS'RecYds'
p32
S'--'
p33
sS'Rec'
p34
S'--'
p35
sS'Opp'
p36
S'WAS'
p37
sS'RecLng'
p38
S'--'
p39
sS'RecTD'
p40
S'--'
p41
sS'RushLng'
p42
S'--'
p43
ssS'5'
p44
(dp45
g5
S'--'
p46
sg7
S'--'
p47
sg9
g10
sg11
S'--'
p48
sg13
S'1'
p49
sg14
S'Vince Mayle'
p50
sg16
S'2015'
p51
sg18
g44
sg20
S'--'
p52
sg22
S'10/11'
p53
sg24
S'--'
p54
sg26
S'--'
p55
sg28
S'--'
p56
sg30
S'L6-30'
p57
sg32
g10
sg34
g10
sg36
S'NE'
p58
sg38
S'--'
p59
sg40
g10
sg42
S'--'
p60
sss.