(dp0
S'2015'
p1
(dp2
S'17'
p3
(dp4
S'RushTD'
p5
S'--'
p6
sS'RushYds'
p7
S'--'
p8
sS'GS'
p9
S'0'
p10
sS'Lost'
p11
S'--'
p12
sS'G'
p13
S'1'
p14
sS'Player'
p15
S'Walt Powell'
p16
sS'Year'
p17
S'2015'
p18
sS'WK'
p19
S'17'
p20
sS'RushAvg'
p21
S'--'
p22
sS'Game Date'
p23
S'01/03'
p24
sS'RecAvg'
p25
S'--'
p26
sS'FUM'
p27
S'--'
p28
sS'RushAtt'
p29
S'--'
p30
sS'Result'
p31
S'W22-17'
p32
sS'RecYds'
p33
S'--'
p34
sS'Rec'
p35
S'--'
p36
sS'Opp'
p37
S'NYJ'
p38
sS'RecLng'
p39
S'--'
p40
sS'RecTD'
p41
S'--'
p42
sS'RushLng'
p43
S'--'
p44
ssS'16'
p45
(dp46
g5
S'--'
p47
sg7
S'--'
p48
sg9
g10
sg11
S'--'
p49
sg13
g14
sg15
S'Walt Powell'
p50
sg17
S'2015'
p51
sg19
S'16'
p52
sg21
S'--'
p53
sg23
S'12/27'
p54
sg25
S'--'
p55
sg27
S'--'
p56
sg29
S'--'
p57
sg31
S'W16-6'
p58
sg33
S'--'
p59
sg35
S'--'
p60
sg37
S'DAL'
p61
sg39
S'--'
p62
sg41
S'--'
p63
sg43
S'--'
p64
ssS'7'
p65
(dp66
g5
S'--'
p67
sg7
S'--'
p68
sg9
g10
sg11
S'--'
p69
sg13
g10
sg15
S'Walt Powell'
p70
sg17
S'2015'
p71
sg19
g65
sg21
S'--'
p72
sg23
S'10/25'
p73
sg25
S'--'
p74
sg27
S'--'
p75
sg29
S'--'
p76
sg31
S'W37-29'
p77
sg33
S'--'
p78
sg35
S'--'
p79
sg37
S'@SD'
p80
sg39
S'--'
p81
sg41
S'--'
p82
sg43
S'--'
p83
ssS'6'
p84
(dp85
g5
S''
p86
sg7
g86
sg9
g86
sg11
g86
sg13
g86
sg15
S'Walt Powell'
p87
sg17
S'2015'
p88
sg19
g84
sg21
g86
sg23
S'Bye'
p89
sg25
g86
sg27
g86
sg29
g86
sg31
g86
sg33
g86
sg35
g86
sg37
g86
sg39
g86
sg41
g86
sg43
g86
ssS'8'
p90
(dp91
g5
S'--'
p92
sg7
S'--'
p93
sg9
g10
sg11
S'--'
p94
sg13
g10
sg15
S'Walt Powell'
p95
sg17
S'2015'
p96
sg19
g90
sg21
S'--'
p97
sg23
S'11/01'
p98
sg25
S'--'
p99
sg27
S'--'
p100
sg29
S'--'
p101
sg31
S'W34-20'
p102
sg33
S'--'
p103
sg35
S'--'
p104
sg37
S'NYJ'
p105
sg39
S'--'
p106
sg41
S'--'
p107
sg43
S'--'
p108
sssS'2014'
p109
(dp110
S'11'
p111
(dp112
g5
g86
sg7
g86
sg9
g86
sg11
g86
sg13
g86
sg15
S'Walt Powell'
p113
sg17
S'2014'
p114
sg19
S'11'
p115
sg21
g86
sg23
S'Bye'
p116
sg25
g86
sg27
g86
sg29
g86
sg31
g86
sg33
g86
sg35
g86
sg37
g86
sg39
g86
sg41
g86
sg43
g86
ssS'10'
p117
(dp118
g5
S'--'
p119
sg7
S'--'
p120
sg9
g10
sg11
S'--'
p121
sg13
g10
sg15
S'Walt Powell'
p122
sg17
S'2014'
p123
sg19
S'10'
p124
sg21
S'--'
p125
sg23
S'11/09'
p126
sg25
S'--'
p127
sg27
S'--'
p128
sg29
S'--'
p129
sg31
S'W20-13'
p130
sg33
S'--'
p131
sg35
S'--'
p132
sg37
S'PIT'
p133
sg39
S'--'
p134
sg41
S'--'
p135
sg43
S'--'
p136
ssS'13'
p137
(dp138
g5
S'--'
p139
sg7
S'--'
p140
sg9
g10
sg11
S'--'
p141
sg13
g10
sg15
S'Walt Powell'
p142
sg17
S'2014'
p143
sg19
S'13'
p144
sg21
S'--'
p145
sg23
S'12/01'
p146
sg25
S'--'
p147
sg27
S'--'
p148
sg29
S'--'
p149
sg31
S'L13-16'
p150
sg33
S'--'
p151
sg35
S'--'
p152
sg37
S'MIA'
p153
sg39
S'--'
p154
sg41
S'--'
p155
sg43
S'--'
p156
ssS'12'
p157
(dp158
g5
S'--'
p159
sg7
S'--'
p160
sg9
g10
sg11
S'--'
p161
sg13
g10
sg15
S'Walt Powell'
p162
sg17
S'2014'
p163
sg19
S'12'
p164
sg21
S'--'
p165
sg23
S'11/24'
p166
sg25
S'--'
p167
sg27
S'--'
p168
sg29
S'--'
p169
sg31
S'L3-38'
p170
sg33
S'--'
p171
sg35
S'--'
p172
sg37
S'@BUF'
p173
sg39
S'--'
p174
sg41
S'--'
p175
sg43
S'--'
p176
ssS'15'
p177
(dp178
g5
S'--'
p179
sg7
S'--'
p180
sg9
g10
sg11
S'--'
p181
sg13
g10
sg15
S'Walt Powell'
p182
sg17
S'2014'
p183
sg19
S'15'
p184
sg21
S'--'
p185
sg23
S'12/14'
p186
sg25
S'--'
p187
sg27
S'--'
p188
sg29
S'--'
p189
sg31
S'W16-11'
p190
sg33
S'--'
p191
sg35
S'--'
p192
sg37
S'@TEN'
p193
sg39
S'--'
p194
sg41
S'--'
p195
sg43
S'--'
p196
ssS'14'
p197
(dp198
g5
S'--'
p199
sg7
S'--'
p200
sg9
g10
sg11
S'--'
p201
sg13
g10
sg15
S'Walt Powell'
p202
sg17
S'2014'
p203
sg19
S'14'
p204
sg21
S'--'
p205
sg23
S'12/07'
p206
sg25
S'--'
p207
sg27
S'--'
p208
sg29
S'--'
p209
sg31
S'L24-30'
p210
sg33
S'--'
p211
sg35
S'--'
p212
sg37
S'@MIN'
p213
sg39
S'--'
p214
sg41
S'--'
p215
sg43
S'--'
p216
ssg3
(dp217
g5
S'--'
p218
sg7
S'--'
p219
sg9
g10
sg11
S'--'
p220
sg13
g10
sg15
S'Walt Powell'
p221
sg17
S'2014'
p222
sg19
S'17'
p223
sg21
S'--'
p224
sg23
S'12/28'
p225
sg25
S'--'
p226
sg27
S'--'
p227
sg29
S'--'
p228
sg31
S'W37-24'
p229
sg33
S'--'
p230
sg35
S'--'
p231
sg37
S'@MIA'
p232
sg39
S'--'
p233
sg41
S'--'
p234
sg43
S'--'
p235
ssg45
(dp236
g5
S'--'
p237
sg7
S'--'
p238
sg9
g10
sg11
S'--'
p239
sg13
g10
sg15
S'Walt Powell'
p240
sg17
S'2014'
p241
sg19
S'16'
p242
sg21
S'--'
p243
sg23
S'12/21'
p244
sg25
S'--'
p245
sg27
S'--'
p246
sg29
S'--'
p247
sg31
S'L16-17'
p248
sg33
S'--'
p249
sg35
S'--'
p250
sg37
S'NE'
p251
sg39
S'--'
p252
sg41
S'--'
p253
sg43
S'--'
p254
ssg14
(dp255
g5
S'--'
p256
sg7
S'--'
p257
sg9
g10
sg11
S'--'
p258
sg13
g10
sg15
S'Walt Powell'
p259
sg17
S'2014'
p260
sg19
g14
sg21
S'--'
p261
sg23
S'09/07'
p262
sg25
S'--'
p263
sg27
S'--'
p264
sg29
S'--'
p265
sg31
S'W19-14'
p266
sg33
S'--'
p267
sg35
S'--'
p268
sg37
S'OAK'
p269
sg39
S'--'
p270
sg41
S'--'
p271
sg43
S'--'
p272
ssS'3'
p273
(dp274
g5
S'--'
p275
sg7
S'--'
p276
sg9
g10
sg11
S'--'
p277
sg13
g10
sg15
S'Walt Powell'
p278
sg17
S'2014'
p279
sg19
g273
sg21
S'--'
p280
sg23
S'09/22'
p281
sg25
S'--'
p282
sg27
S'--'
p283
sg29
S'--'
p284
sg31
S'L19-27'
p285
sg33
S'--'
p286
sg35
S'--'
p287
sg37
S'CHI'
p288
sg39
S'--'
p289
sg41
S'--'
p290
sg43
S'--'
p291
ssS'2'
p292
(dp293
g5
S'--'
p294
sg7
S'--'
p295
sg9
g10
sg11
S'--'
p296
sg13
g10
sg15
S'Walt Powell'
p297
sg17
S'2014'
p298
sg19
g292
sg21
S'--'
p299
sg23
S'09/14'
p300
sg25
S'--'
p301
sg27
S'--'
p302
sg29
S'--'
p303
sg31
S'L24-31'
p304
sg33
S'--'
p305
sg35
S'--'
p306
sg37
S'@GB'
p307
sg39
S'--'
p308
sg41
S'--'
p309
sg43
S'--'
p310
ssS'5'
p311
(dp312
g5
S'--'
p313
sg7
S'--'
p314
sg9
g10
sg11
S'--'
p315
sg13
g14
sg15
S'Walt Powell'
p316
sg17
S'2014'
p317
sg19
g311
sg21
S'--'
p318
sg23
S'10/05'
p319
sg25
S'--'
p320
sg27
S'--'
p321
sg29
S'--'
p322
sg31
S'L0-31'
p323
sg33
S'--'
p324
sg35
S'--'
p325
sg37
S'@SD'
p326
sg39
S'--'
p327
sg41
S'--'
p328
sg43
S'--'
p329
ssS'4'
p330
(dp331
g5
S'--'
p332
sg7
S'--'
p333
sg9
g10
sg11
S'--'
p334
sg13
g14
sg15
S'Walt Powell'
p335
sg17
S'2014'
p336
sg19
g330
sg21
S'--'
p337
sg23
S'09/28'
p338
sg25
S'--'
p339
sg27
S'--'
p340
sg29
S'--'
p341
sg31
S'L17-24'
p342
sg33
S'--'
p343
sg35
S'--'
p344
sg37
S'DET'
p345
sg39
S'--'
p346
sg41
S'--'
p347
sg43
S'--'
p348
ssg65
(dp349
g5
S'--'
p350
sg7
S'--'
p351
sg9
g10
sg11
S'--'
p352
sg13
g14
sg15
S'Walt Powell'
p353
sg17
S'2014'
p354
sg19
g65
sg21
S'--'
p355
sg23
S'10/16'
p356
sg25
S'--'
p357
sg27
S'--'
p358
sg29
S'--'
p359
sg31
S'L25-27'
p360
sg33
S'--'
p361
sg35
S'--'
p362
sg37
S'@NE'
p363
sg39
S'--'
p364
sg41
S'--'
p365
sg43
S'--'
p366
ssg84
(dp367
g5
S'--'
p368
sg7
S'--'
p369
sg9
g10
sg11
g14
sg13
g14
sg15
S'Walt Powell'
p370
sg17
S'2014'
p371
sg19
g84
sg21
S'--'
p372
sg23
S'10/12'
p373
sg25
S'--'
p374
sg27
g14
sg29
S'--'
p375
sg31
S'L17-31'
p376
sg33
S'--'
p377
sg35
S'--'
p378
sg37
S'DEN'
p379
sg39
S'--'
p380
sg41
S'--'
p381
sg43
S'--'
p382
ssS'9'
p383
(dp384
g5
S'--'
p385
sg7
S'--'
p386
sg9
g10
sg11
S'--'
p387
sg13
g10
sg15
S'Walt Powell'
p388
sg17
S'2014'
p389
sg19
g383
sg21
S'--'
p390
sg23
S'11/02'
p391
sg25
S'--'
p392
sg27
S'--'
p393
sg29
S'--'
p394
sg31
S'L10-24'
p395
sg33
S'--'
p396
sg35
S'--'
p397
sg37
S'@KC'
p398
sg39
S'--'
p399
sg41
S'--'
p400
sg43
S'--'
p401
ssg90
(dp402
g5
S'--'
p403
sg7
S'--'
p404
sg9
g10
sg11
S'--'
p405
sg13
g10
sg15
S'Walt Powell'
p406
sg17
S'2014'
p407
sg19
g90
sg21
S'--'
p408
sg23
S'10/26'
p409
sg25
S'--'
p410
sg27
S'--'
p411
sg29
S'--'
p412
sg31
S'L23-43'
p413
sg33
S'--'
p414
sg35
S'--'
p415
sg37
S'BUF'
p416
sg39
S'--'
p417
sg41
S'--'
p418
sg43
S'--'
p419
sss.