(dp0
S'2015'
p1
(dp2
S'11'
p3
(dp4
S'PassAtt'
p5
S'--'
p6
sS'WK'
p7
S'11'
p8
sS'RushAvg'
p9
S'--'
p10
sS'Pct'
p11
S'--'
p12
sS'RushAtt'
p13
S'--'
p14
sS'PassYds'
p15
S'--'
p16
sS'PassAvg'
p17
S'--'
p18
sS'FUM'
p19
S'--'
p20
sS'Opp'
p21
S'@SD'
p22
sS'G'
p23
S'0'
p24
sS'Comp'
p25
S'--'
p26
sS'SckY'
p27
S'--'
p28
sS'RushYds'
p29
S'--'
p30
sS'GS'
p31
g24
sS'Lost'
p32
S'--'
p33
sS'RushTD'
p34
S'--'
p35
sS'PassTD'
p36
S'--'
p37
sS'Sck'
p38
S'--'
p39
sS'Int'
p40
S'--'
p41
sS'Game Date'
p42
S'11/22'
p43
sS'Player'
p44
S'Aaron Murray'
p45
sS'Rate'
p46
S'0.0'
p47
sS'Result'
p48
S'W33-3'
p49
sS'Year'
p50
S'2015'
p51
ssS'10'
p52
(dp53
g5
S'--'
p54
sg7
S'10'
p55
sg9
S'--'
p56
sg11
S'--'
p57
sg13
S'--'
p58
sg15
S'--'
p59
sg17
S'--'
p60
sg19
S'--'
p61
sg21
S'@DEN'
p62
sg23
g24
sg25
S'--'
p63
sg27
S'--'
p64
sg29
S'--'
p65
sg31
g24
sg32
S'--'
p66
sg34
S'--'
p67
sg36
S'--'
p68
sg38
S'--'
p69
sg40
S'--'
p70
sg42
S'11/15'
p71
sg44
S'Aaron Murray'
p72
sg46
S'0.0'
p73
sg48
S'W29-13'
p74
sg50
S'2015'
p75
ssS'13'
p76
(dp77
g5
S'--'
p78
sg7
S'13'
p79
sg9
S'--'
p80
sg11
S'--'
p81
sg13
S'--'
p82
sg15
S'--'
p83
sg17
S'--'
p84
sg19
S'--'
p85
sg21
S'@OAK'
p86
sg23
g24
sg25
S'--'
p87
sg27
S'--'
p88
sg29
S'--'
p89
sg31
g24
sg32
S'--'
p90
sg34
S'--'
p91
sg36
S'--'
p92
sg38
S'--'
p93
sg40
S'--'
p94
sg42
S'12/06'
p95
sg44
S'Aaron Murray'
p96
sg46
S'0.0'
p97
sg48
S'W34-20'
p98
sg50
S'2015'
p99
ssS'12'
p100
(dp101
g5
S'--'
p102
sg7
S'12'
p103
sg9
S'--'
p104
sg11
S'--'
p105
sg13
S'--'
p106
sg15
S'--'
p107
sg17
S'--'
p108
sg19
S'--'
p109
sg21
S'BUF'
p110
sg23
g24
sg25
S'--'
p111
sg27
S'--'
p112
sg29
S'--'
p113
sg31
g24
sg32
S'--'
p114
sg34
S'--'
p115
sg36
S'--'
p116
sg38
S'--'
p117
sg40
S'--'
p118
sg42
S'11/29'
p119
sg44
S'Aaron Murray'
p120
sg46
S'0.0'
p121
sg48
S'W30-22'
p122
sg50
S'2015'
p123
ssS'15'
p124
(dp125
g5
S'--'
p126
sg7
S'15'
p127
sg9
S'--'
p128
sg11
S'--'
p129
sg13
S'--'
p130
sg15
S'--'
p131
sg17
S'--'
p132
sg19
S'--'
p133
sg21
S'@BAL'
p134
sg23
g24
sg25
S'--'
p135
sg27
S'--'
p136
sg29
S'--'
p137
sg31
g24
sg32
S'--'
p138
sg34
S'--'
p139
sg36
S'--'
p140
sg38
S'--'
p141
sg40
S'--'
p142
sg42
S'12/20'
p143
sg44
S'Aaron Murray'
p144
sg46
S'0.0'
p145
sg48
S'W34-14'
p146
sg50
S'2015'
p147
ssS'14'
p148
(dp149
g5
S'--'
p150
sg7
S'14'
p151
sg9
S'--'
p152
sg11
S'--'
p153
sg13
S'--'
p154
sg15
S'--'
p155
sg17
S'--'
p156
sg19
S'--'
p157
sg21
S'SD'
p158
sg23
g24
sg25
S'--'
p159
sg27
S'--'
p160
sg29
S'--'
p161
sg31
g24
sg32
S'--'
p162
sg34
S'--'
p163
sg36
S'--'
p164
sg38
S'--'
p165
sg40
S'--'
p166
sg42
S'12/13'
p167
sg44
S'Aaron Murray'
p168
sg46
S'0.0'
p169
sg48
S'W10-3'
p170
sg50
S'2015'
p171
ssS'17'
p172
(dp173
g5
S'--'
p174
sg7
S'17'
p175
sg9
S'--'
p176
sg11
S'--'
p177
sg13
S'--'
p178
sg15
S'--'
p179
sg17
S'--'
p180
sg19
S'--'
p181
sg21
S'OAK'
p182
sg23
g24
sg25
S'--'
p183
sg27
S'--'
p184
sg29
S'--'
p185
sg31
g24
sg32
S'--'
p186
sg34
S'--'
p187
sg36
S'--'
p188
sg38
S'--'
p189
sg40
S'--'
p190
sg42
S'01/03'
p191
sg44
S'Aaron Murray'
p192
sg46
S'0.0'
p193
sg48
S'W23-17'
p194
sg50
S'2015'
p195
ssS'16'
p196
(dp197
g5
S'--'
p198
sg7
S'16'
p199
sg9
S'--'
p200
sg11
S'--'
p201
sg13
S'--'
p202
sg15
S'--'
p203
sg17
S'--'
p204
sg19
S'--'
p205
sg21
S'CLE'
p206
sg23
g24
sg25
S'--'
p207
sg27
S'--'
p208
sg29
S'--'
p209
sg31
g24
sg32
S'--'
p210
sg34
S'--'
p211
sg36
S'--'
p212
sg38
S'--'
p213
sg40
S'--'
p214
sg42
S'12/27'
p215
sg44
S'Aaron Murray'
p216
sg46
S'0.0'
p217
sg48
S'W17-13'
p218
sg50
S'2015'
p219
ssS'1'
p220
(dp221
g5
S'--'
p222
sg7
g220
sg9
S'--'
p223
sg11
S'--'
p224
sg13
S'--'
p225
sg15
S'--'
p226
sg17
S'--'
p227
sg19
S'--'
p228
sg21
S'@HOU'
p229
sg23
g24
sg25
S'--'
p230
sg27
S'--'
p231
sg29
S'--'
p232
sg31
g24
sg32
S'--'
p233
sg34
S'--'
p234
sg36
S'--'
p235
sg38
S'--'
p236
sg40
S'--'
p237
sg42
S'09/13'
p238
sg44
S'Aaron Murray'
p239
sg46
S'0.0'
p240
sg48
S'W27-20'
p241
sg50
S'2015'
p242
ssS'3'
p243
(dp244
g5
S'--'
p245
sg7
g243
sg9
S'--'
p246
sg11
S'--'
p247
sg13
S'--'
p248
sg15
S'--'
p249
sg17
S'--'
p250
sg19
S'--'
p251
sg21
S'@GB'
p252
sg23
g24
sg25
S'--'
p253
sg27
S'--'
p254
sg29
S'--'
p255
sg31
g24
sg32
S'--'
p256
sg34
S'--'
p257
sg36
S'--'
p258
sg38
S'--'
p259
sg40
S'--'
p260
sg42
S'09/28'
p261
sg44
S'Aaron Murray'
p262
sg46
S'0.0'
p263
sg48
S'L28-38'
p264
sg50
S'2015'
p265
ssS'2'
p266
(dp267
g5
S'--'
p268
sg7
g266
sg9
S'--'
p269
sg11
S'--'
p270
sg13
S'--'
p271
sg15
S'--'
p272
sg17
S'--'
p273
sg19
S'--'
p274
sg21
S'DEN'
p275
sg23
g24
sg25
S'--'
p276
sg27
S'--'
p277
sg29
S'--'
p278
sg31
g24
sg32
S'--'
p279
sg34
S'--'
p280
sg36
S'--'
p281
sg38
S'--'
p282
sg40
S'--'
p283
sg42
S'09/17'
p284
sg44
S'Aaron Murray'
p285
sg46
S'0.0'
p286
sg48
S'L24-31'
p287
sg50
S'2015'
p288
ssS'5'
p289
(dp290
g5
S'--'
p291
sg7
g289
sg9
S'--'
p292
sg11
S'--'
p293
sg13
S'--'
p294
sg15
S'--'
p295
sg17
S'--'
p296
sg19
S'--'
p297
sg21
S'CHI'
p298
sg23
g24
sg25
S'--'
p299
sg27
S'--'
p300
sg29
S'--'
p301
sg31
g24
sg32
S'--'
p302
sg34
S'--'
p303
sg36
S'--'
p304
sg38
S'--'
p305
sg40
S'--'
p306
sg42
S'10/11'
p307
sg44
S'Aaron Murray'
p308
sg46
S'0.0'
p309
sg48
S'L17-18'
p310
sg50
S'2015'
p311
ssS'4'
p312
(dp313
g5
S'--'
p314
sg7
g312
sg9
S'--'
p315
sg11
S'--'
p316
sg13
S'--'
p317
sg15
S'--'
p318
sg17
S'--'
p319
sg19
S'--'
p320
sg21
S'@CIN'
p321
sg23
g24
sg25
S'--'
p322
sg27
S'--'
p323
sg29
S'--'
p324
sg31
g24
sg32
S'--'
p325
sg34
S'--'
p326
sg36
S'--'
p327
sg38
S'--'
p328
sg40
S'--'
p329
sg42
S'10/04'
p330
sg44
S'Aaron Murray'
p331
sg46
S'0.0'
p332
sg48
S'L21-36'
p333
sg50
S'2015'
p334
ssS'7'
p335
(dp336
g5
S'--'
p337
sg7
g335
sg9
S'--'
p338
sg11
S'--'
p339
sg13
S'--'
p340
sg15
S'--'
p341
sg17
S'--'
p342
sg19
S'--'
p343
sg21
S'PIT'
p344
sg23
g24
sg25
S'--'
p345
sg27
S'--'
p346
sg29
S'--'
p347
sg31
g24
sg32
S'--'
p348
sg34
S'--'
p349
sg36
S'--'
p350
sg38
S'--'
p351
sg40
S'--'
p352
sg42
S'10/25'
p353
sg44
S'Aaron Murray'
p354
sg46
S'0.0'
p355
sg48
S'W23-13'
p356
sg50
S'2015'
p357
ssS'6'
p358
(dp359
g5
S'--'
p360
sg7
g358
sg9
S'--'
p361
sg11
S'--'
p362
sg13
S'--'
p363
sg15
S'--'
p364
sg17
S'--'
p365
sg19
S'--'
p366
sg21
S'@MIN'
p367
sg23
g24
sg25
S'--'
p368
sg27
S'--'
p369
sg29
S'--'
p370
sg31
g24
sg32
S'--'
p371
sg34
S'--'
p372
sg36
S'--'
p373
sg38
S'--'
p374
sg40
S'--'
p375
sg42
S'10/18'
p376
sg44
S'Aaron Murray'
p377
sg46
S'0.0'
p378
sg48
S'L10-16'
p379
sg50
S'2015'
p380
ssS'9'
p381
(dp382
g5
S''
p383
sg7
g381
sg9
g383
sg11
g383
sg13
g383
sg15
g383
sg17
g383
sg19
g383
sg21
g383
sg23
g383
sg25
g383
sg27
g383
sg29
g383
sg31
g383
sg32
g383
sg34
g383
sg36
g383
sg38
g383
sg40
g383
sg42
S'Bye'
p384
sg44
S'Aaron Murray'
p385
sg46
g383
sg48
g383
sg50
S'2015'
p386
ssS'8'
p387
(dp388
g5
S'--'
p389
sg7
g387
sg9
S'--'
p390
sg11
S'--'
p391
sg13
S'--'
p392
sg15
S'--'
p393
sg17
S'--'
p394
sg19
S'--'
p395
sg21
S'DET'
p396
sg23
g24
sg25
S'--'
p397
sg27
S'--'
p398
sg29
S'--'
p399
sg31
g24
sg32
S'--'
p400
sg34
S'--'
p401
sg36
S'--'
p402
sg38
S'--'
p403
sg40
S'--'
p404
sg42
S'11/01'
p405
sg44
S'Aaron Murray'
p406
sg46
S'0.0'
p407
sg48
S'W45-10'
p408
sg50
S'2015'
p409
sssS'2014'
p410
(dp411
g3
(dp412
g5
S'--'
p413
sg7
S'11'
p414
sg9
S'--'
p415
sg11
S'--'
p416
sg13
S'--'
p417
sg15
S'--'
p418
sg17
S'--'
p419
sg19
S'--'
p420
sg21
S'SEA'
p421
sg23
g24
sg25
S'--'
p422
sg27
S'--'
p423
sg29
S'--'
p424
sg31
g24
sg32
S'--'
p425
sg34
S'--'
p426
sg36
S'--'
p427
sg38
S'--'
p428
sg40
S'--'
p429
sg42
S'11/16'
p430
sg44
S'Aaron Murray'
p431
sg46
S'0.0'
p432
sg48
S'W24-20'
p433
sg50
S'2014'
p434
ssg52
(dp435
g5
S'--'
p436
sg7
S'10'
p437
sg9
S'--'
p438
sg11
S'--'
p439
sg13
S'--'
p440
sg15
S'--'
p441
sg17
S'--'
p442
sg19
S'--'
p443
sg21
S'@BUF'
p444
sg23
g24
sg25
S'--'
p445
sg27
S'--'
p446
sg29
S'--'
p447
sg31
g24
sg32
S'--'
p448
sg34
S'--'
p449
sg36
S'--'
p450
sg38
S'--'
p451
sg40
S'--'
p452
sg42
S'11/09'
p453
sg44
S'Aaron Murray'
p454
sg46
S'0.0'
p455
sg48
S'W17-13'
p456
sg50
S'2014'
p457
ssg76
(dp458
g5
S'--'
p459
sg7
S'13'
p460
sg9
S'--'
p461
sg11
S'--'
p462
sg13
S'--'
p463
sg15
S'--'
p464
sg17
S'--'
p465
sg19
S'--'
p466
sg21
S'DEN'
p467
sg23
g24
sg25
S'--'
p468
sg27
S'--'
p469
sg29
S'--'
p470
sg31
g24
sg32
S'--'
p471
sg34
S'--'
p472
sg36
S'--'
p473
sg38
S'--'
p474
sg40
S'--'
p475
sg42
S'11/30'
p476
sg44
S'Aaron Murray'
p477
sg46
S'0.0'
p478
sg48
S'L16-29'
p479
sg50
S'2014'
p480
ssg100
(dp481
g5
S'--'
p482
sg7
S'12'
p483
sg9
S'--'
p484
sg11
S'--'
p485
sg13
S'--'
p486
sg15
S'--'
p487
sg17
S'--'
p488
sg19
S'--'
p489
sg21
S'@OAK'
p490
sg23
g24
sg25
S'--'
p491
sg27
S'--'
p492
sg29
S'--'
p493
sg31
g24
sg32
S'--'
p494
sg34
S'--'
p495
sg36
S'--'
p496
sg38
S'--'
p497
sg40
S'--'
p498
sg42
S'11/20'
p499
sg44
S'Aaron Murray'
p500
sg46
S'0.0'
p501
sg48
S'L20-24'
p502
sg50
S'2014'
p503
ssg124
(dp504
g5
S'--'
p505
sg7
S'15'
p506
sg9
S'--'
p507
sg11
S'--'
p508
sg13
S'--'
p509
sg15
S'--'
p510
sg17
S'--'
p511
sg19
S'--'
p512
sg21
S'OAK'
p513
sg23
g24
sg25
S'--'
p514
sg27
S'--'
p515
sg29
S'--'
p516
sg31
g24
sg32
S'--'
p517
sg34
S'--'
p518
sg36
S'--'
p519
sg38
S'--'
p520
sg40
S'--'
p521
sg42
S'12/14'
p522
sg44
S'Aaron Murray'
p523
sg46
S'0.0'
p524
sg48
S'W31-13'
p525
sg50
S'2014'
p526
ssg148
(dp527
g5
S'--'
p528
sg7
S'14'
p529
sg9
S'--'
p530
sg11
S'--'
p531
sg13
S'--'
p532
sg15
S'--'
p533
sg17
S'--'
p534
sg19
S'--'
p535
sg21
S'@ARI'
p536
sg23
g24
sg25
S'--'
p537
sg27
S'--'
p538
sg29
S'--'
p539
sg31
g24
sg32
S'--'
p540
sg34
S'--'
p541
sg36
S'--'
p542
sg38
S'--'
p543
sg40
S'--'
p544
sg42
S'12/07'
p545
sg44
S'Aaron Murray'
p546
sg46
S'0.0'
p547
sg48
S'L14-17'
p548
sg50
S'2014'
p549
ssg172
(dp550
g5
S'--'
p551
sg7
S'17'
p552
sg9
S'--'
p553
sg11
S'--'
p554
sg13
S'--'
p555
sg15
S'--'
p556
sg17
S'--'
p557
sg19
S'--'
p558
sg21
S'SD'
p559
sg23
g24
sg25
S'--'
p560
sg27
S'--'
p561
sg29
S'--'
p562
sg31
g24
sg32
S'--'
p563
sg34
S'--'
p564
sg36
S'--'
p565
sg38
S'--'
p566
sg40
S'--'
p567
sg42
S'12/28'
p568
sg44
S'Aaron Murray'
p569
sg46
S'0.0'
p570
sg48
S'W19-7'
p571
sg50
S'2014'
p572
ssg196
(dp573
g5
S'--'
p574
sg7
S'16'
p575
sg9
S'--'
p576
sg11
S'--'
p577
sg13
S'--'
p578
sg15
S'--'
p579
sg17
S'--'
p580
sg19
S'--'
p581
sg21
S'@PIT'
p582
sg23
g24
sg25
S'--'
p583
sg27
S'--'
p584
sg29
S'--'
p585
sg31
g24
sg32
S'--'
p586
sg34
S'--'
p587
sg36
S'--'
p588
sg38
S'--'
p589
sg40
S'--'
p590
sg42
S'12/21'
p591
sg44
S'Aaron Murray'
p592
sg46
S'0.0'
p593
sg48
S'L12-20'
p594
sg50
S'2014'
p595
ssg220
(dp596
g5
S'--'
p597
sg7
g220
sg9
S'--'
p598
sg11
S'--'
p599
sg13
S'--'
p600
sg15
S'--'
p601
sg17
S'--'
p602
sg19
S'--'
p603
sg21
S'TEN'
p604
sg23
g24
sg25
S'--'
p605
sg27
S'--'
p606
sg29
S'--'
p607
sg31
g24
sg32
S'--'
p608
sg34
S'--'
p609
sg36
S'--'
p610
sg38
S'--'
p611
sg40
S'--'
p612
sg42
S'09/07'
p613
sg44
S'Aaron Murray'
p614
sg46
S'0.0'
p615
sg48
S'L10-26'
p616
sg50
S'2014'
p617
ssg243
(dp618
g5
S'--'
p619
sg7
g243
sg9
S'--'
p620
sg11
S'--'
p621
sg13
S'--'
p622
sg15
S'--'
p623
sg17
S'--'
p624
sg19
S'--'
p625
sg21
S'@MIA'
p626
sg23
g24
sg25
S'--'
p627
sg27
S'--'
p628
sg29
S'--'
p629
sg31
g24
sg32
S'--'
p630
sg34
S'--'
p631
sg36
S'--'
p632
sg38
S'--'
p633
sg40
S'--'
p634
sg42
S'09/21'
p635
sg44
S'Aaron Murray'
p636
sg46
S'0.0'
p637
sg48
S'W34-15'
p638
sg50
S'2014'
p639
ssg266
(dp640
g5
S'--'
p641
sg7
g266
sg9
S'--'
p642
sg11
S'--'
p643
sg13
S'--'
p644
sg15
S'--'
p645
sg17
S'--'
p646
sg19
S'--'
p647
sg21
S'@DEN'
p648
sg23
g24
sg25
S'--'
p649
sg27
S'--'
p650
sg29
S'--'
p651
sg31
g24
sg32
S'--'
p652
sg34
S'--'
p653
sg36
S'--'
p654
sg38
S'--'
p655
sg40
S'--'
p656
sg42
S'09/14'
p657
sg44
S'Aaron Murray'
p658
sg46
S'0.0'
p659
sg48
S'L17-24'
p660
sg50
S'2014'
p661
ssg289
(dp662
g5
S'--'
p663
sg7
g289
sg9
S'--'
p664
sg11
S'--'
p665
sg13
S'--'
p666
sg15
S'--'
p667
sg17
S'--'
p668
sg19
S'--'
p669
sg21
S'@SF'
p670
sg23
g24
sg25
S'--'
p671
sg27
S'--'
p672
sg29
S'--'
p673
sg31
g24
sg32
S'--'
p674
sg34
S'--'
p675
sg36
S'--'
p676
sg38
S'--'
p677
sg40
S'--'
p678
sg42
S'10/05'
p679
sg44
S'Aaron Murray'
p680
sg46
S'0.0'
p681
sg48
S'L17-22'
p682
sg50
S'2014'
p683
ssg312
(dp684
g5
S'--'
p685
sg7
g312
sg9
S'--'
p686
sg11
S'--'
p687
sg13
S'--'
p688
sg15
S'--'
p689
sg17
S'--'
p690
sg19
S'--'
p691
sg21
S'NE'
p692
sg23
g24
sg25
S'--'
p693
sg27
S'--'
p694
sg29
S'--'
p695
sg31
g24
sg32
S'--'
p696
sg34
S'--'
p697
sg36
S'--'
p698
sg38
S'--'
p699
sg40
S'--'
p700
sg42
S'09/29'
p701
sg44
S'Aaron Murray'
p702
sg46
S'0.0'
p703
sg48
S'W41-14'
p704
sg50
S'2014'
p705
ssg335
(dp706
g5
S'--'
p707
sg7
g335
sg9
S'--'
p708
sg11
S'--'
p709
sg13
S'--'
p710
sg15
S'--'
p711
sg17
S'--'
p712
sg19
S'--'
p713
sg21
S'@SD'
p714
sg23
g24
sg25
S'--'
p715
sg27
S'--'
p716
sg29
S'--'
p717
sg31
g24
sg32
S'--'
p718
sg34
S'--'
p719
sg36
S'--'
p720
sg38
S'--'
p721
sg40
S'--'
p722
sg42
S'10/19'
p723
sg44
S'Aaron Murray'
p724
sg46
S'0.0'
p725
sg48
S'W23-20'
p726
sg50
S'2014'
p727
ssg358
(dp728
g5
g383
sg7
g358
sg9
g383
sg11
g383
sg13
g383
sg15
g383
sg17
g383
sg19
g383
sg21
g383
sg23
g383
sg25
g383
sg27
g383
sg29
g383
sg31
g383
sg32
g383
sg34
g383
sg36
g383
sg38
g383
sg40
g383
sg42
S'Bye'
p729
sg44
S'Aaron Murray'
p730
sg46
g383
sg48
g383
sg50
S'2014'
p731
ssg381
(dp732
g5
S'--'
p733
sg7
g381
sg9
S'--'
p734
sg11
S'--'
p735
sg13
S'--'
p736
sg15
S'--'
p737
sg17
S'--'
p738
sg19
S'--'
p739
sg21
S'NYJ'
p740
sg23
g24
sg25
S'--'
p741
sg27
S'--'
p742
sg29
S'--'
p743
sg31
g24
sg32
S'--'
p744
sg34
S'--'
p745
sg36
S'--'
p746
sg38
S'--'
p747
sg40
S'--'
p748
sg42
S'11/02'
p749
sg44
S'Aaron Murray'
p750
sg46
S'0.0'
p751
sg48
S'W24-10'
p752
sg50
S'2014'
p753
ssg387
(dp754
g5
S'--'
p755
sg7
g387
sg9
S'--'
p756
sg11
S'--'
p757
sg13
S'--'
p758
sg15
S'--'
p759
sg17
S'--'
p760
sg19
S'--'
p761
sg21
S'STL'
p762
sg23
g24
sg25
S'--'
p763
sg27
S'--'
p764
sg29
S'--'
p765
sg31
g24
sg32
S'--'
p766
sg34
S'--'
p767
sg36
S'--'
p768
sg38
S'--'
p769
sg40
S'--'
p770
sg42
S'10/26'
p771
sg44
S'Aaron Murray'
p772
sg46
S'0.0'
p773
sg48
S'W34-7'
p774
sg50
S'2014'
p775
sss.