(dp0
S'2015'
p1
(dp2
S'17'
p3
(dp4
S'PassAtt'
p5
S'14'
p6
sS'WK'
p7
S'17'
p8
sS'RushAvg'
p9
S'--'
p10
sS'Pct'
p11
S'71.4'
p12
sS'RushAtt'
p13
S'--'
p14
sS'PassYds'
p15
S'99'
p16
sS'PassAvg'
p17
S'7.1'
p18
sS'FUM'
p19
S'--'
p20
sS'Opp'
p21
S'@IND'
p22
sS'G'
p23
S'1'
p24
sS'Comp'
p25
S'10'
p26
sS'SckY'
p27
S'34'
p28
sS'RushYds'
p29
S'--'
p30
sS'GS'
p31
S'0'
p32
sS'Lost'
p33
S'--'
p34
sS'RushTD'
p35
S'--'
p36
sS'PassTD'
p37
g24
sS'Sck'
p38
S'3'
p39
sS'Int'
p40
g32
sS'Game Date'
p41
S'01/03'
p42
sS'Player'
p43
S'Alex Tanney'
p44
sS'Rate'
p45
S'114.9'
p46
sS'Result'
p47
S'L24-30'
p48
sS'Year'
p49
S'2015'
p50
ssS'16'
p51
(dp52
g5
S'--'
p53
sg7
S'16'
p54
sg9
S'--'
p55
sg11
S'--'
p56
sg13
S'--'
p57
sg15
S'--'
p58
sg17
S'--'
p59
sg19
S'--'
p60
sg21
S'HOU'
p61
sg23
g32
sg25
S'--'
p62
sg27
S'--'
p63
sg29
S'--'
p64
sg31
g32
sg33
S'--'
p65
sg35
S'--'
p66
sg37
S'--'
p67
sg38
S'--'
p68
sg40
S'--'
p69
sg41
S'12/27'
p70
sg43
S'Alex Tanney'
p71
sg45
S'0.0'
p72
sg47
S'L6-34'
p73
sg49
S'2015'
p74
sssS'2013'
p75
(dp76
S'13'
p77
(dp78
g5
S'--'
p79
sg7
S'13'
p80
sg9
S'--'
p81
sg11
S'--'
p82
sg13
S'--'
p83
sg15
S'--'
p84
sg17
S'--'
p85
sg19
S'--'
p86
sg21
S'JAC'
p87
sg23
g32
sg25
S'--'
p88
sg27
S'--'
p89
sg29
S'--'
p90
sg31
g32
sg33
S'--'
p91
sg35
S'--'
p92
sg37
S'--'
p93
sg38
S'--'
p94
sg40
S'--'
p95
sg41
S'12/01'
p96
sg43
S'Alex Tanney'
p97
sg45
S'0.0'
p98
sg47
S'L28-32'
p99
sg49
S'2013'
p100
ssS'15'
p101
(dp102
g5
S'--'
p103
sg7
S'15'
p104
sg9
S'--'
p105
sg11
S'--'
p106
sg13
S'--'
p107
sg15
S'--'
p108
sg17
S'--'
p109
sg19
S'--'
p110
sg21
S'CHI'
p111
sg23
g32
sg25
S'--'
p112
sg27
S'--'
p113
sg29
S'--'
p114
sg31
g32
sg33
S'--'
p115
sg35
S'--'
p116
sg37
S'--'
p117
sg38
S'--'
p118
sg40
S'--'
p119
sg41
S'12/15'
p120
sg43
S'Alex Tanney'
p121
sg45
S'0.0'
p122
sg47
S'L31-38'
p123
sg49
S'2013'
p124
ssS'14'
p125
(dp126
g5
S'--'
p127
sg7
S'14'
p128
sg9
S'--'
p129
sg11
S'--'
p130
sg13
S'--'
p131
sg15
S'--'
p132
sg17
S'--'
p133
sg19
S'--'
p134
sg21
S'@NE'
p135
sg23
g32
sg25
S'--'
p136
sg27
S'--'
p137
sg29
S'--'
p138
sg31
g32
sg33
S'--'
p139
sg35
S'--'
p140
sg37
S'--'
p141
sg38
S'--'
p142
sg40
S'--'
p143
sg41
S'12/08'
p144
sg43
S'Alex Tanney'
p145
sg45
S'0.0'
p146
sg47
S'L26-27'
p147
sg49
S'2013'
p148
ssg3
(dp149
g5
S'--'
p150
sg7
S'17'
p151
sg9
S'--'
p152
sg11
S'--'
p153
sg13
S'--'
p154
sg15
S'--'
p155
sg17
S'--'
p156
sg19
S'--'
p157
sg21
S'@PIT'
p158
sg23
g32
sg25
S'--'
p159
sg27
S'--'
p160
sg29
S'--'
p161
sg31
g32
sg33
S'--'
p162
sg35
S'--'
p163
sg37
S'--'
p164
sg38
S'--'
p165
sg40
S'--'
p166
sg41
S'12/29'
p167
sg43
S'Alex Tanney'
p168
sg45
S'0.0'
p169
sg47
S'L7-20'
p170
sg49
S'2013'
p171
ssg51
(dp172
g5
S'--'
p173
sg7
S'16'
p174
sg9
S'--'
p175
sg11
S'--'
p176
sg13
S'--'
p177
sg15
S'--'
p178
sg17
S'--'
p179
sg19
S'--'
p180
sg21
S'@NYJ'
p181
sg23
g32
sg25
S'--'
p182
sg27
S'--'
p183
sg29
S'--'
p184
sg31
g32
sg33
S'--'
p185
sg35
S'--'
p186
sg37
S'--'
p187
sg38
S'--'
p188
sg40
S'--'
p189
sg41
S'12/22'
p190
sg43
S'Alex Tanney'
p191
sg45
S'0.0'
p192
sg47
S'L13-24'
p193
sg49
S'2013'
p194
sss.