(dp0
S'2015'
p1
(dp2
S'11'
p3
(dp4
S'PassAtt'
p5
S'39'
p6
sS'WK'
p7
S'11'
p8
sS'RushAvg'
p9
S'4.3'
p10
sS'Pct'
p11
S'56.4'
p12
sS'RushAtt'
p13
S'8'
p14
sS'PassYds'
p15
S'315'
p16
sS'PassAvg'
p17
S'8.1'
p18
sS'FUM'
p19
S'2'
p20
sS'Opp'
p21
S'@ARI'
p22
sS'G'
p23
S'1'
p24
sS'Comp'
p25
S'22'
p26
sS'SckY'
p27
S'37'
p28
sS'RushYds'
p29
S'34'
p30
sS'GS'
p31
g24
sS'Lost'
p32
g24
sS'RushTD'
p33
S'0'
p34
sS'PassTD'
p35
g20
sS'Sck'
p36
S'4'
p37
sS'Int'
p38
g34
sS'Game Date'
p39
S'11/22'
p40
sS'Player'
p41
S'Andy Dalton'
p42
sS'Rate'
p43
S'99.8'
p44
sS'Result'
p45
S'L31-34'
p46
sS'Year'
p47
S'2015'
p48
ssS'10'
p49
(dp50
g5
S'38'
p51
sg7
S'10'
p52
sg9
S'7.8'
p53
sg11
S'57.9'
p54
sg13
g37
sg15
S'197'
p55
sg17
S'5.2'
p56
sg19
S'--'
p57
sg21
S'HOU'
p58
sg23
g24
sg25
S'22'
p59
sg27
S'15'
p60
sg29
S'31'
p61
sg31
g24
sg32
S'--'
p62
sg33
g34
sg35
g34
sg36
g37
sg38
g24
sg39
S'11/16'
p63
sg41
S'Andy Dalton'
p64
sg43
S'61.0'
p65
sg45
S'L6-10'
p66
sg47
S'2015'
p67
ssS'13'
p68
(dp69
g5
S'19'
p70
sg7
S'13'
p71
sg9
S'2.8'
p72
sg11
S'73.7'
p73
sg13
g37
sg15
S'220'
p74
sg17
S'11.6'
p75
sg19
S'--'
p76
sg21
S'@CLE'
p77
sg23
g24
sg25
S'14'
p78
sg27
S'6'
p79
sg29
S'11'
p80
sg31
g24
sg32
S'--'
p81
sg33
g24
sg35
g20
sg36
g24
sg38
g34
sg39
S'12/06'
p82
sg41
S'Andy Dalton'
p83
sg43
S'146.8'
p84
sg45
S'W37-3'
p85
sg47
S'2015'
p86
ssS'12'
p87
(dp88
g5
S'27'
p89
sg7
S'12'
p90
sg9
S'2.0'
p91
sg11
S'74.1'
p92
sg13
g20
sg15
S'233'
p93
sg17
S'8.6'
p94
sg19
S'--'
p95
sg21
S'STL'
p96
sg23
g24
sg25
S'20'
p97
sg27
g34
sg29
g37
sg31
g24
sg32
S'--'
p98
sg33
g34
sg35
S'3'
p99
sg36
g34
sg38
g24
sg39
S'11/29'
p100
sg41
S'Andy Dalton'
p101
sg43
S'121.4'
p102
sg45
S'W31-7'
p103
sg47
S'2015'
p104
ssS'15'
p105
(dp106
g5
S'--'
p107
sg7
S'15'
p108
sg9
S'--'
p109
sg11
S'--'
p110
sg13
S'--'
p111
sg15
S'--'
p112
sg17
S'--'
p113
sg19
S'--'
p114
sg21
S'@SF'
p115
sg23
g34
sg25
S'--'
p116
sg27
S'--'
p117
sg29
S'--'
p118
sg31
g34
sg32
S'--'
p119
sg33
S'--'
p120
sg35
S'--'
p121
sg36
S'--'
p122
sg38
S'--'
p123
sg39
S'12/20'
p124
sg41
S'Andy Dalton'
p125
sg43
S'0.0'
p126
sg45
S'W24-14'
p127
sg47
S'2015'
p128
ssS'14'
p129
(dp130
g5
S'5'
p131
sg7
S'14'
p132
sg9
S'--'
p133
sg11
S'60.0'
p134
sg13
S'--'
p135
sg15
S'59'
p136
sg17
S'11.8'
p137
sg19
S'--'
p138
sg21
S'PIT'
p139
sg23
g24
sg25
g99
sg27
g34
sg29
S'--'
p140
sg31
g24
sg32
S'--'
p141
sg33
S'--'
p142
sg35
g34
sg36
g34
sg38
g24
sg39
S'12/13'
p143
sg41
S'Andy Dalton'
p144
sg43
S'61.7'
p145
sg45
S'L20-33'
p146
sg47
S'2015'
p147
ssS'17'
p148
(dp149
g5
S'--'
p150
sg7
S'17'
p151
sg9
S'--'
p152
sg11
S'--'
p153
sg13
S'--'
p154
sg15
S'--'
p155
sg17
S'--'
p156
sg19
S'--'
p157
sg21
S'BAL'
p158
sg23
g34
sg25
S'--'
p159
sg27
S'--'
p160
sg29
S'--'
p161
sg31
g34
sg32
S'--'
p162
sg33
S'--'
p163
sg35
S'--'
p164
sg36
S'--'
p165
sg38
S'--'
p166
sg39
S'01/03'
p167
sg41
S'Andy Dalton'
p168
sg43
S'0.0'
p169
sg45
S'W24-16'
p170
sg47
S'2015'
p171
ssS'16'
p172
(dp173
g5
S'--'
p174
sg7
S'16'
p175
sg9
S'--'
p176
sg11
S'--'
p177
sg13
S'--'
p178
sg15
S'--'
p179
sg17
S'--'
p180
sg19
S'--'
p181
sg21
S'@DEN'
p182
sg23
g34
sg25
S'--'
p183
sg27
S'--'
p184
sg29
S'--'
p185
sg31
g34
sg32
S'--'
p186
sg33
S'--'
p187
sg35
S'--'
p188
sg36
S'--'
p189
sg38
S'--'
p190
sg39
S'12/28'
p191
sg41
S'Andy Dalton'
p192
sg43
S'0.0'
p193
sg45
S'L17-20'
p194
sg47
S'2015'
p195
ssg24
(dp196
g5
S'34'
p197
sg7
g24
sg9
S'0.3'
p198
sg11
S'73.5'
p199
sg13
g37
sg15
S'269'
p200
sg17
S'7.9'
p201
sg19
S'--'
p202
sg21
S'@OAK'
p203
sg23
g24
sg25
S'25'
p204
sg27
g34
sg29
g24
sg31
g24
sg32
S'--'
p205
sg33
g34
sg35
g20
sg36
g34
sg38
g34
sg39
S'09/13'
p206
sg41
S'Andy Dalton'
p207
sg43
S'115.9'
p208
sg45
S'W33-13'
p209
sg47
S'2015'
p210
ssg99
(dp211
g5
S'32'
p212
sg7
g99
sg9
S'2.0'
p213
sg11
S'62.5'
p214
sg13
g131
sg15
S'383'
p215
sg17
S'12.0'
p216
sg19
g24
sg21
S'@BAL'
p217
sg23
g24
sg25
S'20'
p218
sg27
S'11'
p219
sg29
S'10'
p220
sg31
g24
sg32
g24
sg33
g24
sg35
g99
sg36
g20
sg38
g24
sg39
S'09/27'
p221
sg41
S'Andy Dalton'
p222
sg43
S'122.3'
p223
sg45
S'W28-24'
p224
sg47
S'2015'
p225
ssg20
(dp226
g5
S'26'
p227
sg7
g20
sg9
S'2.0'
p228
sg11
S'61.5'
p229
sg13
g131
sg15
S'214'
p230
sg17
S'8.2'
p231
sg19
S'--'
p232
sg21
S'SD'
p233
sg23
g24
sg25
S'16'
p234
sg27
g34
sg29
S'10'
p235
sg31
g24
sg32
S'--'
p236
sg33
g34
sg35
g99
sg36
g34
sg38
g34
sg39
S'09/20'
p237
sg41
S'Andy Dalton'
p238
sg43
S'126.1'
p239
sg45
S'W24-19'
p240
sg47
S'2015'
p241
ssg131
(dp242
g5
S'44'
p243
sg7
g131
sg9
S'2.6'
p244
sg11
S'68.2'
p245
sg13
S'7'
p246
sg15
S'331'
p247
sg17
S'7.5'
p248
sg19
S'--'
p249
sg21
S'SEA'
p250
sg23
g24
sg25
S'30'
p251
sg27
S'21'
p252
sg29
S'18'
p253
sg31
g24
sg32
S'--'
p254
sg33
g24
sg35
g20
sg36
g37
sg38
g24
sg39
S'10/11'
p255
sg41
S'Andy Dalton'
p256
sg43
S'95.9'
p257
sg45
S'W27-24'
p258
sg47
S'2015'
p259
ssg37
(dp260
g5
S'24'
p261
sg7
g37
sg9
S'5.3'
p262
sg11
S'70.8'
p263
sg13
g99
sg15
S'321'
p264
sg17
S'13.4'
p265
sg19
S'--'
p266
sg21
S'KC'
p267
sg23
g24
sg25
S'17'
p268
sg27
g34
sg29
S'16'
p269
sg31
g24
sg32
S'--'
p270
sg33
g34
sg35
g24
sg36
g34
sg38
g34
sg39
S'10/04'
p271
sg41
S'Andy Dalton'
p272
sg43
S'127.1'
p273
sg45
S'W36-21'
p274
sg47
S'2015'
p275
ssg246
(dp276
g5
S''
p277
sg7
g246
sg9
g277
sg11
g277
sg13
g277
sg15
g277
sg17
g277
sg19
g277
sg21
g277
sg23
g277
sg25
g277
sg27
g277
sg29
g277
sg31
g277
sg32
g277
sg33
g277
sg35
g277
sg36
g277
sg38
g277
sg39
S'Bye'
p278
sg41
S'Andy Dalton'
p279
sg43
g277
sg45
g277
sg47
S'2015'
p280
ssg79
(dp281
g5
S'33'
p282
sg7
g79
sg9
S'-0.7'
p283
sg11
S'66.7'
p284
sg13
g99
sg15
S'243'
p285
sg17
S'7.4'
p286
sg19
g24
sg21
S'@BUF'
p287
sg23
g24
sg25
S'22'
p288
sg27
g34
sg29
S'-2'
p289
sg31
g24
sg32
g34
sg33
g34
sg35
g99
sg36
g34
sg38
g34
sg39
S'10/18'
p290
sg41
S'Andy Dalton'
p291
sg43
S'118.6'
p292
sg45
S'W34-21'
p293
sg47
S'2015'
p294
ssS'9'
p295
(dp296
g5
S'27'
p297
sg7
g295
sg9
S'0.8'
p298
sg11
S'77.8'
p299
sg13
g79
sg15
S'234'
p300
sg17
S'8.7'
p301
sg19
S'--'
p302
sg21
S'CLE'
p303
sg23
g24
sg25
S'21'
p304
sg27
S'15'
p305
sg29
g131
sg31
g24
sg32
S'--'
p306
sg33
g34
sg35
g99
sg36
g20
sg38
g34
sg39
S'11/05'
p307
sg41
S'Andy Dalton'
p308
sg43
S'139.8'
p309
sg45
S'W31-10'
p310
sg47
S'2015'
p311
ssg14
(dp312
g5
S'38'
p313
sg7
g14
sg9
S'0.7'
p314
sg11
S'60.5'
p315
sg13
g79
sg15
S'231'
p316
sg17
S'6.1'
p317
sg19
g24
sg21
S'@PIT'
p318
sg23
g24
sg25
S'23'
p319
sg27
S'13'
p320
sg29
g37
sg31
g24
sg32
g34
sg33
g34
sg35
g24
sg36
g99
sg38
g20
sg39
S'11/01'
p321
sg41
S'Andy Dalton'
p322
sg43
S'64.7'
p323
sg45
S'W16-10'
p324
sg47
S'2015'
p325
sssS'2014'
p326
(dp327
g3
(dp328
g5
S'22'
p329
sg7
S'11'
p330
sg9
S'2.4'
p331
sg11
S'72.7'
p332
sg13
g131
sg15
S'220'
p333
sg17
S'10.0'
p334
sg19
S'--'
p335
sg21
S'@NO'
p336
sg23
g24
sg25
S'16'
p337
sg27
g24
sg29
S'12'
p338
sg31
g24
sg32
S'--'
p339
sg33
g34
sg35
g99
sg36
g24
sg38
g34
sg39
S'11/16'
p340
sg41
S'Andy Dalton'
p341
sg43
S'143.9'
p342
sg45
S'W27-10'
p343
sg47
S'2014'
p344
ssg49
(dp345
g5
S'33'
p346
sg7
S'10'
p347
sg9
S'2.7'
p348
sg11
S'30.3'
p349
sg13
g99
sg15
S'86'
p350
sg17
S'2.6'
p351
sg19
S'--'
p352
sg21
S'CLE'
p353
sg23
g24
sg25
S'10'
p354
sg27
S'14'
p355
sg29
g14
sg31
g24
sg32
S'--'
p356
sg33
g34
sg35
g34
sg36
g20
sg38
g99
sg39
S'11/06'
p357
sg41
S'Andy Dalton'
p358
sg43
S'2.0'
p359
sg45
S'L3-24'
p360
sg47
S'2014'
p361
ssg68
(dp362
g5
S'27'
p363
sg7
S'13'
p364
sg9
S'2.3'
p365
sg11
S'70.4'
p366
sg13
g99
sg15
S'176'
p367
sg17
S'6.5'
p368
sg19
S'--'
p369
sg21
S'@TB'
p370
sg23
g24
sg25
S'19'
p371
sg27
S'11'
p372
sg29
g246
sg31
g24
sg32
S'--'
p373
sg33
g24
sg35
g24
sg36
g20
sg38
g99
sg39
S'11/30'
p374
sg41
S'Andy Dalton'
p375
sg43
S'60.6'
p376
sg45
S'W14-13'
p377
sg47
S'2014'
p378
ssg87
(dp379
g5
S'35'
p380
sg7
S'12'
p381
sg9
S'0.9'
p382
sg11
S'68.6'
p383
sg13
g246
sg15
S'233'
p384
sg17
S'6.7'
p385
sg19
g24
sg21
S'@HOU'
p386
sg23
g24
sg25
S'24'
p387
sg27
g34
sg29
g79
sg31
g24
sg32
g34
sg33
g34
sg35
g24
sg36
g34
sg38
g24
sg39
S'11/23'
p388
sg41
S'Andy Dalton'
p389
sg43
S'84.6'
p390
sg45
S'W22-13'
p391
sg47
S'2014'
p392
ssg105
(dp393
g5
S'24'
p394
sg7
S'15'
p395
sg9
S'1.5'
p396
sg11
S'58.3'
p397
sg13
g20
sg15
S'117'
p398
sg17
S'4.9'
p399
sg19
S'--'
p400
sg21
S'@CLE'
p401
sg23
g24
sg25
S'14'
p402
sg27
S'14'
p403
sg29
g99
sg31
g24
sg32
S'--'
p404
sg33
g34
sg35
g34
sg36
g20
sg38
g24
sg39
S'12/14'
p405
sg41
S'Andy Dalton'
p406
sg43
S'53.6'
p407
sg45
S'W30-0'
p408
sg47
S'2014'
p409
ssg129
(dp410
g5
S'29'
p411
sg7
S'14'
p412
sg9
S'5.5'
p413
sg11
S'72.4'
p414
sg13
g37
sg15
S'302'
p415
sg17
S'10.4'
p416
sg19
g24
sg21
S'PIT'
p417
sg23
g24
sg25
S'21'
p418
sg27
g131
sg29
S'22'
p419
sg31
g24
sg32
g24
sg33
g24
sg35
g20
sg36
g20
sg38
g34
sg39
S'12/07'
p420
sg41
S'Andy Dalton'
p421
sg43
S'128.8'
p422
sg45
S'L21-42'
p423
sg47
S'2014'
p424
ssg148
(dp425
g5
S'38'
p426
sg7
S'17'
p427
sg9
S'2.7'
p428
sg11
S'71.1'
p429
sg13
g99
sg15
S'244'
p430
sg17
S'6.4'
p431
sg19
S'--'
p432
sg21
S'@PIT'
p433
sg23
g24
sg25
S'27'
p434
sg27
S'23'
p435
sg29
g14
sg31
g24
sg32
S'--'
p436
sg33
g34
sg35
g20
sg36
g99
sg38
g20
sg39
S'12/28'
p437
sg41
S'Andy Dalton'
p438
sg43
S'83.7'
p439
sg45
S'L17-27'
p440
sg47
S'2014'
p441
ssg172
(dp442
g5
S'25'
p443
sg7
S'16'
p444
sg9
S'4.2'
p445
sg11
S'68.0'
p446
sg13
g79
sg15
S'146'
p447
sg17
S'5.8'
p448
sg19
S'--'
p449
sg21
S'DEN'
p450
sg23
g24
sg25
S'17'
p451
sg27
g34
sg29
S'25'
p452
sg31
g24
sg32
S'--'
p453
sg33
g34
sg35
g20
sg36
g34
sg38
g24
sg39
S'12/22'
p454
sg41
S'Andy Dalton'
p455
sg43
S'93.1'
p456
sg45
S'W37-28'
p457
sg47
S'2014'
p458
ssg24
(dp459
g5
S'38'
p460
sg7
g24
sg9
S'0.5'
p461
sg11
S'65.8'
p462
sg13
g79
sg15
S'301'
p463
sg17
S'7.9'
p464
sg19
S'--'
p465
sg21
S'@BAL'
p466
sg23
g24
sg25
S'25'
p467
sg27
g34
sg29
g99
sg31
g24
sg32
S'--'
p468
sg33
g34
sg35
g24
sg36
g34
sg38
g34
sg39
S'09/07'
p469
sg41
S'Andy Dalton'
p470
sg43
S'98.7'
p471
sg45
S'W23-16'
p472
sg47
S'2014'
p473
ssg99
(dp474
g5
S'23'
p475
sg7
g99
sg9
S'1.0'
p476
sg11
S'65.2'
p477
sg13
g99
sg15
S'169'
p478
sg17
S'7.3'
p479
sg19
S'--'
p480
sg21
S'TEN'
p481
sg23
g24
sg25
S'15'
p482
sg27
g34
sg29
g99
sg31
g24
sg32
S'--'
p483
sg33
g34
sg35
g34
sg36
g34
sg38
g24
sg39
S'09/21'
p484
sg41
S'Andy Dalton'
p485
sg43
S'68.9'
p486
sg45
S'W33-7'
p487
sg47
S'2014'
p488
ssg20
(dp489
g5
S'23'
p490
sg7
g20
sg9
S'2.0'
p491
sg11
S'65.2'
p492
sg13
g99
sg15
S'252'
p493
sg17
S'11.0'
p494
sg19
S'--'
p495
sg21
S'ATL'
p496
sg23
g24
sg25
S'15'
p497
sg27
g34
sg29
g79
sg31
g24
sg32
S'--'
p498
sg33
g34
sg35
g24
sg36
g34
sg38
g34
sg39
S'09/14'
p499
sg41
S'Andy Dalton'
p500
sg43
S'116.6'
p501
sg45
S'W24-10'
p502
sg47
S'2014'
p503
ssg131
(dp504
g5
S'24'
p505
sg7
g131
sg9
S'8.0'
p506
sg11
S'62.5'
p507
sg13
g20
sg15
S'204'
p508
sg17
S'8.5'
p509
sg19
S'--'
p510
sg21
S'@NE'
p511
sg23
g24
sg25
S'15'
p512
sg27
g14
sg29
S'16'
p513
sg31
g24
sg32
S'--'
p514
sg33
g34
sg35
g20
sg36
g24
sg38
g34
sg39
S'10/05'
p515
sg41
S'Andy Dalton'
p516
sg43
S'117.4'
p517
sg45
S'L17-43'
p518
sg47
S'2014'
p519
ssg37
(dp520
g5
g277
sg7
g37
sg9
g277
sg11
g277
sg13
g277
sg15
g277
sg17
g277
sg19
g277
sg21
g277
sg23
g277
sg25
g277
sg27
g277
sg29
g277
sg31
g277
sg32
g277
sg33
g277
sg35
g277
sg36
g277
sg38
g277
sg39
S'Bye'
p521
sg41
S'Andy Dalton'
p522
sg43
g277
sg45
g277
sg47
S'2014'
p523
ssg246
(dp524
g5
S'38'
p525
sg7
g246
sg9
S'0.0'
p526
sg11
S'47.4'
p527
sg13
g24
sg15
S'126'
p528
sg17
S'3.3'
p529
sg19
S'--'
p530
sg21
S'@IND'
p531
sg23
g24
sg25
S'18'
p532
sg27
S'17'
p533
sg29
g34
sg31
g24
sg32
S'--'
p534
sg33
g34
sg35
g34
sg36
g99
sg38
g34
sg39
S'10/19'
p535
sg41
S'Andy Dalton'
p536
sg43
S'55.4'
p537
sg45
S'L0-27'
p538
sg47
S'2014'
p539
ssg79
(dp540
g5
S'43'
p541
sg7
g79
sg9
S'6.3'
p542
sg11
S'76.7'
p543
sg13
g37
sg15
S'323'
p544
sg17
S'7.5'
p545
sg19
S'--'
p546
sg21
S'CAR'
p547
sg23
g24
sg25
S'33'
p548
sg27
g99
sg29
S'25'
p549
sg31
g24
sg32
S'--'
p550
sg33
g34
sg35
g20
sg36
g24
sg38
g20
sg39
S'10/12'
p551
sg41
S'Andy Dalton'
p552
sg43
S'93.5'
p553
sg45
S'T37-37'
p554
sg47
S'2014'
p555
ssg295
(dp556
g5
S'31'
p557
sg7
g295
sg9
S'5.5'
p558
sg11
S'61.3'
p559
sg13
g20
sg15
S'233'
p560
sg17
S'7.5'
p561
sg19
S'--'
p562
sg21
S'JAC'
p563
sg23
g24
sg25
S'19'
p564
sg27
g24
sg29
S'11'
p565
sg31
g24
sg32
S'--'
p566
sg33
g34
sg35
g20
sg36
g20
sg38
g20
sg39
S'11/02'
p567
sg41
S'Andy Dalton'
p568
sg43
S'79.1'
p569
sg45
S'W33-23'
p570
sg47
S'2014'
p571
ssg14
(dp572
g5
S'28'
p573
sg7
g14
sg9
S'2.3'
p574
sg11
S'75.0'
p575
sg13
g79
sg15
S'266'
p576
sg17
S'9.5'
p577
sg19
g24
sg21
S'BAL'
p578
sg23
g24
sg25
S'21'
p579
sg27
S'27'
p580
sg29
S'14'
p581
sg31
g24
sg32
g24
sg33
g20
sg35
g34
sg36
g20
sg38
g24
sg39
S'10/26'
p582
sg41
S'Andy Dalton'
p583
sg43
S'89.3'
p584
sg45
S'W27-24'
p585
sg47
S'2014'
p586
sssS'2011'
p587
(dp588
g3
(dp589
g5
S'45'
p590
sg7
S'11'
p591
sg9
S'8.0'
p592
sg11
S'53.3'
p593
sg13
g37
sg15
S'373'
p594
sg17
S'8.3'
p595
sg19
g24
sg21
S'@BAL'
p596
sg23
g24
sg25
S'24'
p597
sg27
g295
sg29
S'32'
p598
sg31
g24
sg32
g34
sg33
g34
sg35
g24
sg36
g20
sg38
g99
sg39
S'11/20'
p599
sg41
S'Andy Dalton'
p600
sg43
S'60.7'
p601
sg45
S'L24-31'
p602
sg47
S'2011'
p603
ssg49
(dp604
g5
S'30'
p605
sg7
S'10'
p606
sg9
S'--'
p607
sg11
S'50.0'
p608
sg13
S'--'
p609
sg15
S'170'
p610
sg17
S'5.7'
p611
sg19
S'--'
p612
sg21
S'PIT'
p613
sg23
g24
sg25
S'15'
p614
sg27
g34
sg29
S'--'
p615
sg31
g24
sg32
S'--'
p616
sg33
S'--'
p617
sg35
g20
sg36
g34
sg38
g20
sg39
S'11/13'
p618
sg41
S'Andy Dalton'
p619
sg43
S'61.8'
p620
sg45
S'L17-24'
p621
sg47
S'2011'
p622
ssg68
(dp623
g5
S'24'
p624
sg7
S'13'
p625
sg9
S'3.0'
p626
sg11
S'45.8'
p627
sg13
g20
sg15
S'135'
p628
sg17
S'5.6'
p629
sg19
S'--'
p630
sg21
S'@PIT'
p631
sg23
g24
sg25
S'11'
p632
sg27
S'24'
p633
sg29
g79
sg31
g24
sg32
S'--'
p634
sg33
g34
sg35
g24
sg36
g99
sg38
g34
sg39
S'12/04'
p635
sg41
S'Andy Dalton'
p636
sg43
S'77.6'
p637
sg45
S'L7-35'
p638
sg47
S'2011'
p639
ssg87
(dp640
g5
S'31'
p641
sg7
S'12'
p642
sg9
S'3.8'
p643
sg11
S'67.7'
p644
sg13
g79
sg15
S'270'
p645
sg17
S'8.7'
p646
sg19
g24
sg21
S'CLE'
p647
sg23
g24
sg25
S'21'
p648
sg27
S'13'
p649
sg29
S'23'
p650
sg31
g24
sg32
g24
sg33
g34
sg35
g24
sg36
g20
sg38
g34
sg39
S'11/27'
p651
sg41
S'Andy Dalton'
p652
sg43
S'105.6'
p653
sg45
S'W23-20'
p654
sg47
S'2011'
p655
ssg105
(dp656
g5
S'26'
p657
sg7
S'15'
p658
sg9
S'-1.0'
p659
sg11
S'57.7'
p660
sg13
g20
sg15
S'179'
p661
sg17
S'6.9'
p662
sg19
S'--'
p663
sg21
S'@STL'
p664
sg23
g24
sg25
S'15'
p665
sg27
g79
sg29
S'-2'
p666
sg31
g24
sg32
S'--'
p667
sg33
g34
sg35
g34
sg36
g24
sg38
g24
sg39
S'12/18'
p668
sg41
S'Andy Dalton'
p669
sg43
S'62.8'
p670
sg45
S'W20-13'
p671
sg47
S'2011'
p672
ssg129
(dp673
g5
S'28'
p674
sg7
S'14'
p675
sg9
S'2.0'
p676
sg11
S'57.1'
p677
sg13
g24
sg15
S'189'
p678
sg17
S'6.8'
p679
sg19
g24
sg21
S'HOU'
p680
sg23
g24
sg25
S'16'
p681
sg27
g131
sg29
g20
sg31
g24
sg32
g24
sg33
g34
sg35
g24
sg36
g24
sg38
g34
sg39
S'12/11'
p682
sg41
S'Andy Dalton'
p683
sg43
S'89.7'
p684
sg45
S'L19-20'
p685
sg47
S'2011'
p686
ssg148
(dp687
g5
S'44'
p688
sg7
S'17'
p689
sg9
S'4.3'
p690
sg11
S'50.0'
p691
sg13
g37
sg15
S'232'
p692
sg17
S'5.3'
p693
sg19
S'--'
p694
sg21
S'BAL'
p695
sg23
g24
sg25
S'22'
p696
sg27
g24
sg29
S'17'
p697
sg31
g24
sg32
S'--'
p698
sg33
g34
sg35
g34
sg36
g24
sg38
g34
sg39
S'01/01'
p699
sg41
S'Andy Dalton'
p700
sg43
S'65.7'
p701
sg45
S'L16-24'
p702
sg47
S'2011'
p703
ssg172
(dp704
g5
S'31'
p705
sg7
S'16'
p706
sg9
S'9.6'
p707
sg11
S'58.1'
p708
sg13
g131
sg15
S'154'
p709
sg17
S'5.0'
p710
sg19
S'--'
p711
sg21
S'ARI'
p712
sg23
g24
sg25
S'18'
p713
sg27
S'18'
p714
sg29
S'48'
p715
sg31
g24
sg32
S'--'
p716
sg33
g34
sg35
g20
sg36
g20
sg38
g34
sg39
S'12/24'
p717
sg41
S'Andy Dalton'
p718
sg43
S'92.7'
p719
sg45
S'W23-16'
p720
sg47
S'2011'
p721
ssg24
(dp722
g5
S'15'
p723
sg7
g24
sg9
S'--'
p724
sg11
S'66.7'
p725
sg13
S'--'
p726
sg15
S'81'
p727
sg17
S'5.4'
p728
sg19
g24
sg21
S'@CLE'
p729
sg23
g24
sg25
S'10'
p730
sg27
S'11'
p731
sg29
S'--'
p732
sg31
g24
sg32
g34
sg33
S'--'
p733
sg35
g24
sg36
g99
sg38
g34
sg39
S'09/11'
p734
sg41
S'Andy Dalton'
p735
sg43
S'102.4'
p736
sg45
S'W27-17'
p737
sg47
S'2011'
p738
ssg99
(dp739
g5
S'32'
p740
sg7
g99
sg9
S'5.0'
p741
sg11
S'53.1'
p742
sg13
g24
sg15
S'157'
p743
sg17
S'4.9'
p744
sg19
S'--'
p745
sg21
S'SF'
p746
sg23
g24
sg25
S'17'
p747
sg27
g14
sg29
g131
sg31
g24
sg32
S'--'
p748
sg33
g34
sg35
g34
sg36
g24
sg38
g20
sg39
S'09/25'
p749
sg41
S'Andy Dalton'
p750
sg43
S'40.8'
p751
sg45
S'L8-13'
p752
sg47
S'2011'
p753
ssg20
(dp754
g5
S'41'
p755
sg7
g20
sg9
S'1.5'
p756
sg11
S'65.9'
p757
sg13
g20
sg15
S'332'
p758
sg17
S'8.1'
p759
sg19
S'--'
p760
sg21
S'@DEN'
p761
sg23
g24
sg25
S'27'
p762
sg27
S'22'
p763
sg29
g99
sg31
g24
sg32
S'--'
p764
sg33
g34
sg35
g20
sg36
g20
sg38
g34
sg39
S'09/18'
p765
sg41
S'Andy Dalton'
p766
sg43
S'107.0'
p767
sg45
S'L22-24'
p768
sg47
S'2011'
p769
ssg131
(dp770
g5
S'33'
p771
sg7
g131
sg9
S'--'
p772
sg11
S'63.6'
p773
sg13
S'--'
p774
sg15
S'179'
p775
sg17
S'5.4'
p776
sg19
S'--'
p777
sg21
S'@JAC'
p778
sg23
g24
sg25
S'21'
p779
sg27
S'17'
p780
sg29
S'--'
p781
sg31
g24
sg32
S'--'
p782
sg33
S'--'
p783
sg35
g20
sg36
g20
sg38
g24
sg39
S'10/09'
p784
sg41
S'Andy Dalton'
p785
sg43
S'85.3'
p786
sg45
S'W30-20'
p787
sg47
S'2011'
p788
ssg37
(dp789
g5
S'36'
p790
sg7
g37
sg9
S'4.0'
p791
sg11
S'50.0'
p792
sg13
g99
sg15
S'298'
p793
sg17
S'8.3'
p794
sg19
S'--'
p795
sg21
S'BUF'
p796
sg23
g24
sg25
S'18'
p797
sg27
S'11'
p798
sg29
S'12'
p799
sg31
g24
sg32
S'--'
p800
sg33
g24
sg35
g24
sg36
g20
sg38
g20
sg39
S'10/02'
p801
sg41
S'Andy Dalton'
p802
sg43
S'64.4'
p803
sg45
S'W23-20'
p804
sg47
S'2011'
p805
ssg246
(dp806
g5
g277
sg7
g246
sg9
g277
sg11
g277
sg13
g277
sg15
g277
sg17
g277
sg19
g277
sg21
g277
sg23
g277
sg25
g277
sg27
g277
sg29
g277
sg31
g277
sg32
g277
sg33
g277
sg35
g277
sg36
g277
sg38
g277
sg39
S'Bye'
p807
sg41
S'Andy Dalton'
p808
sg43
g277
sg45
g277
sg47
S'2011'
p809
ssg79
(dp810
g5
S'32'
p811
sg7
g79
sg9
S'-0.5'
p812
sg11
S'78.1'
p813
sg13
g20
sg15
S'264'
p814
sg17
S'8.3'
p815
sg19
S'--'
p816
sg21
S'IND'
p817
sg23
g24
sg25
S'25'
p818
sg27
g34
sg29
S'-1'
p819
sg31
g24
sg32
S'--'
p820
sg33
g34
sg35
g24
sg36
g34
sg38
g34
sg39
S'10/16'
p821
sg41
S'Andy Dalton'
p822
sg43
S'111.5'
p823
sg45
S'W27-17'
p824
sg47
S'2011'
p825
ssg295
(dp826
g5
S'39'
p827
sg7
g295
sg9
S'1.3'
p828
sg11
S'56.4'
p829
sg13
g99
sg15
S'217'
p830
sg17
S'5.6'
p831
sg19
S'--'
p832
sg21
S'@TEN'
p833
sg23
g24
sg25
S'22'
p834
sg27
g246
sg29
g37
sg31
g24
sg32
S'--'
p835
sg33
g34
sg35
g99
sg36
g24
sg38
g34
sg39
S'11/06'
p836
sg41
S'Andy Dalton'
p837
sg43
S'97.9'
p838
sg45
S'W24-17'
p839
sg47
S'2011'
p840
ssg14
(dp841
g5
S'29'
p842
sg7
g14
sg9
S'1.5'
p843
sg11
S'62.1'
p844
sg13
g20
sg15
S'168'
p845
sg17
S'5.8'
p846
sg19
S'--'
p847
sg21
S'@SEA'
p848
sg23
g24
sg25
S'18'
p849
sg27
g14
sg29
g99
sg31
g24
sg32
S'--'
p850
sg33
g34
sg35
g20
sg36
g24
sg38
g20
sg39
S'10/30'
p851
sg41
S'Andy Dalton'
p852
sg43
S'72.2'
p853
sg45
S'W34-12'
p854
sg47
S'2011'
p855
sssS'2013'
p856
(dp857
g3
(dp858
g5
S'27'
p859
sg7
S'11'
p860
sg9
S'0.0'
p861
sg11
S'48.1'
p862
sg13
g37
sg15
S'93'
p863
sg17
S'3.4'
p864
sg19
S'--'
p865
sg21
S'CLE'
p866
sg23
g24
sg25
S'13'
p867
sg27
g34
sg29
g34
sg31
g24
sg32
S'--'
p868
sg33
g34
sg35
g99
sg36
g34
sg38
g20
sg39
S'11/17'
p869
sg41
S'Andy Dalton'
p870
sg43
S'62.7'
p871
sg45
S'W41-20'
p872
sg47
S'2013'
p873
ssg49
(dp874
g5
S'51'
p875
sg7
S'10'
p876
sg9
S'3.7'
p877
sg11
S'47.1'
p878
sg13
g79
sg15
S'274'
p879
sg17
S'5.4'
p880
sg19
S'--'
p881
sg21
S'@BAL'
p882
sg23
g24
sg25
S'24'
p883
sg27
S'30'
p884
sg29
S'22'
p885
sg31
g24
sg32
S'--'
p886
sg33
g34
sg35
g20
sg36
g131
sg38
g99
sg39
S'11/10'
p887
sg41
S'Andy Dalton'
p888
sg43
S'52.2'
p889
sg45
S'L17-20'
p890
sg47
S'2013'
p891
ssg68
(dp892
g5
S'23'
p893
sg7
S'13'
p894
sg9
S'3.0'
p895
sg11
S'60.9'
p896
sg13
g99
sg15
S'190'
p897
sg17
S'8.3'
p898
sg19
S'--'
p899
sg21
S'@SD'
p900
sg23
g24
sg25
S'14'
p901
sg27
g34
sg29
g295
sg31
g24
sg32
S'--'
p902
sg33
g34
sg35
g24
sg36
g34
sg38
g24
sg39
S'12/01'
p903
sg41
S'Andy Dalton'
p904
sg43
S'83.6'
p905
sg45
S'W17-10'
p906
sg47
S'2013'
p907
ssg87
(dp908
g5
g277
sg7
S'12'
p909
sg9
g277
sg11
g277
sg13
g277
sg15
g277
sg17
g277
sg19
g277
sg21
g277
sg23
g277
sg25
g277
sg27
g277
sg29
g277
sg31
g277
sg32
g277
sg33
g277
sg35
g277
sg36
g277
sg38
g277
sg39
S'Bye'
p910
sg41
S'Andy Dalton'
p911
sg43
g277
sg45
g277
sg47
S'2013'
p912
ssg105
(dp913
g5
S'44'
p914
sg7
S'15'
p915
sg9
S'5.0'
p916
sg11
S'56.8'
p917
sg13
g37
sg15
S'230'
p918
sg17
S'5.2'
p919
sg19
S'--'
p920
sg21
S'@PIT'
p921
sg23
g24
sg25
S'25'
p922
sg27
g14
sg29
S'20'
p923
sg31
g24
sg32
S'--'
p924
sg33
g34
sg35
g20
sg36
g24
sg38
g34
sg39
S'12/15'
p925
sg41
S'Andy Dalton'
p926
sg43
S'86.4'
p927
sg45
S'L20-30'
p928
sg47
S'2013'
p929
ssg129
(dp930
g5
S'35'
p931
sg7
S'14'
p932
sg9
S'2.2'
p933
sg11
S'68.6'
p934
sg13
g131
sg15
S'275'
p935
sg17
S'7.9'
p936
sg19
S'--'
p937
sg21
S'IND'
p938
sg23
g24
sg25
S'24'
p939
sg27
g34
sg29
S'11'
p940
sg31
g24
sg32
S'--'
p941
sg33
g24
sg35
g99
sg36
g34
sg38
g34
sg39
S'12/08'
p942
sg41
S'Andy Dalton'
p943
sg43
S'120.5'
p944
sg45
S'W42-28'
p945
sg47
S'2013'
p946
ssg148
(dp947
g5
S'36'
p948
sg7
S'17'
p949
sg9
S'3.8'
p950
sg11
S'58.3'
p951
sg13
g79
sg15
S'281'
p952
sg17
S'7.8'
p953
sg19
S'--'
p954
sg21
S'BAL'
p955
sg23
g24
sg25
S'21'
p956
sg27
g34
sg29
S'23'
p957
sg31
g24
sg32
S'--'
p958
sg33
g24
sg35
g20
sg36
g34
sg38
g37
sg39
S'12/29'
p959
sg41
S'Andy Dalton'
p960
sg43
S'62.2'
p961
sg45
S'W34-17'
p962
sg47
S'2013'
p963
ssg172
(dp964
g5
S'38'
p965
sg7
S'16'
p966
sg9
S'10.0'
p967
sg11
S'71.1'
p968
sg13
g24
sg15
S'363'
p969
sg17
S'9.6'
p970
sg19
S'--'
p971
sg21
S'MIN'
p972
sg23
g24
sg25
S'27'
p973
sg27
S'18'
p974
sg29
S'10'
p975
sg31
g24
sg32
S'--'
p976
sg33
g34
sg35
g37
sg36
g20
sg38
g34
sg39
S'12/22'
p977
sg41
S'Andy Dalton'
p978
sg43
S'136.2'
p979
sg45
S'W42-14'
p980
sg47
S'2013'
p981
ssg24
(dp982
g5
S'33'
p983
sg7
g24
sg9
S'1.0'
p984
sg11
S'78.8'
p985
sg13
g20
sg15
S'282'
p986
sg17
S'8.5'
p987
sg19
S'--'
p988
sg21
S'@CHI'
p989
sg23
g24
sg25
S'26'
p990
sg27
g131
sg29
g20
sg31
g24
sg32
S'--'
p991
sg33
g34
sg35
g20
sg36
g24
sg38
g20
sg39
S'09/08'
p992
sg41
S'Andy Dalton'
p993
sg43
S'97.2'
p994
sg45
S'L21-24'
p995
sg47
S'2013'
p996
ssg99
(dp997
g5
S'28'
p998
sg7
g99
sg9
S'0.8'
p999
sg11
S'71.4'
p1000
sg13
g37
sg15
S'235'
p1001
sg17
S'8.4'
p1002
sg19
g24
sg21
S'GB'
p1003
sg23
g24
sg25
S'20'
p1004
sg27
S'20'
p1005
sg29
g99
sg31
g24
sg32
g24
sg33
g34
sg35
g20
sg36
g37
sg38
g24
sg39
S'09/22'
p1006
sg41
S'Andy Dalton'
p1007
sg43
S'105.5'
p1008
sg45
S'W34-30'
p1009
sg47
S'2013'
p1010
ssg20
(dp1011
g5
S'45'
p1012
sg7
g20
sg9
S'3.3'
p1013
sg11
S'55.6'
p1014
sg13
g99
sg15
S'280'
p1015
sg17
S'6.2'
p1016
sg19
S'--'
p1017
sg21
S'PIT'
p1018
sg23
g24
sg25
S'25'
p1019
sg27
g34
sg29
S'10'
p1020
sg31
g24
sg32
S'--'
p1021
sg33
g34
sg35
g24
sg36
g34
sg38
g34
sg39
S'09/16'
p1022
sg41
S'Andy Dalton'
p1023
sg43
S'81.7'
p1024
sg45
S'W20-10'
p1025
sg47
S'2013'
p1026
ssg131
(dp1027
g5
S'27'
p1028
sg7
g131
sg9
S'4.2'
p1029
sg11
S'74.1'
p1030
sg13
g79
sg15
S'212'
p1031
sg17
S'7.9'
p1032
sg19
S'--'
p1033
sg21
S'NE'
p1034
sg23
g24
sg25
S'20'
p1035
sg27
S'33'
p1036
sg29
S'25'
p1037
sg31
g24
sg32
S'--'
p1038
sg33
g34
sg35
g34
sg36
g37
sg38
g24
sg39
S'10/06'
p1039
sg41
S'Andy Dalton'
p1040
sg43
S'81.1'
p1041
sg45
S'W13-6'
p1042
sg47
S'2013'
p1043
ssg37
(dp1044
g5
S'42'
p1045
sg7
g37
sg9
S'3.3'
p1046
sg11
S'54.8'
p1047
sg13
g37
sg15
S'206'
p1048
sg17
S'4.9'
p1049
sg19
g20
sg21
S'@CLE'
p1050
sg23
g24
sg25
S'23'
p1051
sg27
g99
sg29
S'13'
p1052
sg31
g24
sg32
g24
sg33
g34
sg35
g34
sg36
g20
sg38
g24
sg39
S'09/29'
p1053
sg41
S'Andy Dalton'
p1054
sg43
S'58.2'
p1055
sg45
S'L6-17'
p1056
sg47
S'2013'
p1057
ssg246
(dp1058
g5
S'34'
p1059
sg7
g246
sg9
S'6.0'
p1060
sg11
S'70.6'
p1061
sg13
g24
sg15
S'372'
p1062
sg17
S'10.9'
p1063
sg19
S'--'
p1064
sg21
S'@DET'
p1065
sg23
g24
sg25
S'24'
p1066
sg27
g14
sg29
g79
sg31
g24
sg32
S'--'
p1067
sg33
g34
sg35
g99
sg36
g24
sg38
g34
sg39
S'10/20'
p1068
sg41
S'Andy Dalton'
p1069
sg43
S'135.9'
p1070
sg45
S'W27-24'
p1071
sg47
S'2013'
p1072
ssg79
(dp1073
g5
S'40'
p1074
sg7
g79
sg9
S'2.4'
p1075
sg11
S'65.0'
p1076
sg13
g246
sg15
S'337'
p1077
sg17
S'8.4'
p1078
sg19
S'--'
p1079
sg21
S'@BUF'
p1080
sg23
g24
sg25
S'26'
p1081
sg27
S'19'
p1082
sg29
S'17'
p1083
sg31
g24
sg32
S'--'
p1084
sg33
g34
sg35
g99
sg36
g99
sg38
g24
sg39
S'10/13'
p1085
sg41
S'Andy Dalton'
p1086
sg43
S'105.9'
p1087
sg45
S'W27-24'
p1088
sg47
S'2013'
p1089
ssg295
(dp1090
g5
S'53'
p1091
sg7
g295
sg9
S'2.4'
p1092
sg11
S'60.4'
p1093
sg13
g131
sg15
S'338'
p1094
sg17
S'6.4'
p1095
sg19
g24
sg21
S'@MIA'
p1096
sg23
g24
sg25
S'32'
p1097
sg27
S'36'
p1098
sg29
S'12'
p1099
sg31
g24
sg32
g24
sg33
g34
sg35
g34
sg36
g131
sg38
g99
sg39
S'10/31'
p1100
sg41
S'Andy Dalton'
p1101
sg43
S'55.4'
p1102
sg45
S'L20-22'
p1103
sg47
S'2013'
p1104
ssg14
(dp1105
g5
S'30'
p1106
sg7
g14
sg9
S'--'
p1107
sg11
S'63.3'
p1108
sg13
S'--'
p1109
sg15
S'325'
p1110
sg17
S'10.8'
p1111
sg19
S'--'
p1112
sg21
S'NYJ'
p1113
sg23
g24
sg25
S'19'
p1114
sg27
g20
sg29
S'--'
p1115
sg31
g24
sg32
S'--'
p1116
sg33
S'--'
p1117
sg35
g131
sg36
g24
sg38
g24
sg39
S'10/27'
p1118
sg41
S'Andy Dalton'
p1119
sg43
S'125.7'
p1120
sg45
S'W49-9'
p1121
sg47
S'2013'
p1122
sssS'2012'
p1123
(dp1124
g3
(dp1125
g5
S'29'
p1126
sg7
S'11'
p1127
sg9
S'4.3'
p1128
sg11
S'62.1'
p1129
sg13
g99
sg15
S'230'
p1130
sg17
S'7.9'
p1131
sg19
S'--'
p1132
sg21
S'@KC'
p1133
sg23
g24
sg25
S'18'
p1134
sg27
S'10'
p1135
sg29
S'13'
p1136
sg31
g24
sg32
S'--'
p1137
sg33
g24
sg35
g20
sg36
g20
sg38
g34
sg39
S'11/18'
p1138
sg41
S'Andy Dalton'
p1139
sg43
S'109.8'
p1140
sg45
S'W28-6'
p1141
sg47
S'2012'
p1142
ssg49
(dp1143
g5
S'30'
p1144
sg7
S'10'
p1145
sg9
S'-1.0'
p1146
sg11
S'70.0'
p1147
sg13
g20
sg15
S'199'
p1148
sg17
S'6.6'
p1149
sg19
S'--'
p1150
sg21
S'NYG'
p1151
sg23
g24
sg25
S'21'
p1152
sg27
g34
sg29
S'-2'
p1153
sg31
g24
sg32
S'--'
p1154
sg33
g34
sg35
g37
sg36
g34
sg38
g34
sg39
S'11/11'
p1155
sg41
S'Andy Dalton'
p1156
sg43
S'127.6'
p1157
sg45
S'W31-13'
p1158
sg47
S'2012'
p1159
ssg68
(dp1160
g5
S'38'
p1161
sg7
S'13'
p1162
sg9
S'1.3'
p1163
sg11
S'65.8'
p1164
sg13
g37
sg15
S'211'
p1165
sg17
S'5.6'
p1166
sg19
S'--'
p1167
sg21
S'@SD'
p1168
sg23
g24
sg25
S'25'
p1169
sg27
g34
sg29
g131
sg31
g24
sg32
S'--'
p1170
sg33
g24
sg35
g24
sg36
g24
sg38
g20
sg39
S'12/02'
p1171
sg41
S'Andy Dalton'
p1172
sg43
S'66.9'
p1173
sg45
S'W20-13'
p1174
sg47
S'2012'
p1175
ssg87
(dp1176
g5
S'30'
p1177
sg7
S'12'
p1178
sg9
S'1.3'
p1179
sg11
S'53.3'
p1180
sg13
g37
sg15
S'210'
p1181
sg17
S'7.0'
p1182
sg19
S'--'
p1183
sg21
S'OAK'
p1184
sg23
g24
sg25
S'16'
p1185
sg27
S'16'
p1186
sg29
g131
sg31
g24
sg32
S'--'
p1187
sg33
g34
sg35
g99
sg36
g20
sg38
g34
sg39
S'11/25'
p1188
sg41
S'Andy Dalton'
p1189
sg43
S'109.0'
p1190
sg45
S'W34-10'
p1191
sg47
S'2012'
p1192
ssg105
(dp1193
g5
S'27'
p1194
sg7
S'15'
p1195
sg9
S'2.3'
p1196
sg11
S'48.1'
p1197
sg13
g14
sg15
S'127'
p1198
sg17
S'4.7'
p1199
sg19
g20
sg21
S'@PHI'
p1200
sg23
g24
sg25
S'13'
p1201
sg27
S'35'
p1202
sg29
S'18'
p1203
sg31
g24
sg32
g20
sg33
g24
sg35
g24
sg36
g79
sg38
g34
sg39
S'12/13'
p1204
sg41
S'Andy Dalton'
p1205
sg43
S'74.2'
p1206
sg45
S'W34-13'
p1207
sg47
S'2012'
p1208
ssg129
(dp1209
g5
S'33'
p1210
sg7
S'14'
p1211
sg9
S'0.0'
p1212
sg11
S'60.6'
p1213
sg13
g24
sg15
S'206'
p1214
sg17
S'6.2'
p1215
sg19
S'--'
p1216
sg21
S'DAL'
p1217
sg23
g24
sg25
S'20'
p1218
sg27
S'16'
p1219
sg29
g34
sg31
g24
sg32
S'--'
p1220
sg33
g34
sg35
g24
sg36
g131
sg38
g24
sg39
S'12/09'
p1221
sg41
S'Andy Dalton'
p1222
sg43
S'76.1'
p1223
sg45
S'L19-20'
p1224
sg47
S'2012'
p1225
ssg148
(dp1226
g5
S'15'
p1227
sg7
S'17'
p1228
sg9
S'2.0'
p1229
sg11
S'66.7'
p1230
sg13
g20
sg15
S'78'
p1231
sg17
S'5.2'
p1232
sg19
S'--'
p1233
sg21
S'BAL'
p1234
sg23
g24
sg25
S'10'
p1235
sg27
g24
sg29
g37
sg31
g24
sg32
S'--'
p1236
sg33
g34
sg35
g24
sg36
g20
sg38
g34
sg39
S'12/30'
p1237
sg41
S'Andy Dalton'
p1238
sg43
S'101.5'
p1239
sg45
S'W23-17'
p1240
sg47
S'2012'
p1241
ssg172
(dp1242
g5
S'41'
p1243
sg7
S'16'
p1244
sg9
S'--'
p1245
sg11
S'58.5'
p1246
sg13
S'--'
p1247
sg15
S'278'
p1248
sg17
S'6.8'
p1249
sg19
S'--'
p1250
sg21
S'@PIT'
p1251
sg23
g24
sg25
S'24'
p1252
sg27
S'25'
p1253
sg29
S'--'
p1254
sg31
g24
sg32
S'--'
p1255
sg33
S'--'
p1256
sg35
g34
sg36
g79
sg38
g20
sg39
S'12/23'
p1257
sg41
S'Andy Dalton'
p1258
sg43
S'58.8'
p1259
sg45
S'W13-10'
p1260
sg47
S'2012'
p1261
ssg24
(dp1262
g5
S'37'
p1263
sg7
g24
sg9
S'3.7'
p1264
sg11
S'59.5'
p1265
sg13
g99
sg15
S'221'
p1266
sg17
S'6.0'
p1267
sg19
g24
sg21
S'@BAL'
p1268
sg23
g24
sg25
S'22'
p1269
sg27
S'28'
p1270
sg29
S'11'
p1271
sg31
g24
sg32
g24
sg33
g34
sg35
g34
sg36
g37
sg38
g24
sg39
S'09/10'
p1272
sg41
S'Andy Dalton'
p1273
sg43
S'65.3'
p1274
sg45
S'L13-44'
p1275
sg47
S'2012'
p1276
ssg99
(dp1277
g5
S'27'
p1278
sg7
g99
sg9
S'8.0'
p1279
sg11
S'70.4'
p1280
sg13
g20
sg15
S'328'
p1281
sg17
S'12.1'
p1282
sg19
S'--'
p1283
sg21
S'@WAS'
p1284
sg23
g24
sg25
S'19'
p1285
sg27
S'16'
p1286
sg29
S'16'
p1287
sg31
g24
sg32
S'--'
p1288
sg33
g34
sg35
g99
sg36
g20
sg38
g24
sg39
S'09/23'
p1289
sg41
S'Andy Dalton'
p1290
sg43
S'132.9'
p1291
sg45
S'W38-31'
p1292
sg47
S'2012'
p1293
ssg20
(dp1294
g5
S'31'
p1295
sg7
g20
sg9
S'1.3'
p1296
sg11
S'77.4'
p1297
sg13
g99
sg15
S'318'
p1298
sg17
S'10.3'
p1299
sg19
S'--'
p1300
sg21
S'CLE'
p1301
sg23
g24
sg25
S'24'
p1302
sg27
S'23'
p1303
sg29
g37
sg31
g24
sg32
S'--'
p1304
sg33
g34
sg35
g99
sg36
g79
sg38
g24
sg39
S'09/16'
p1305
sg41
S'Andy Dalton'
p1306
sg43
S'128.2'
p1307
sg45
S'W34-27'
p1308
sg47
S'2012'
p1309
ssg131
(dp1310
g5
S'43'
p1311
sg7
g131
sg9
S'5.3'
p1312
sg11
S'60.5'
p1313
sg13
g37
sg15
S'234'
p1314
sg17
S'5.4'
p1315
sg19
S'--'
p1316
sg21
S'MIA'
p1317
sg23
g24
sg25
S'26'
p1318
sg27
S'16'
p1319
sg29
S'21'
p1320
sg31
g24
sg32
S'--'
p1321
sg33
g34
sg35
g24
sg36
g99
sg38
g20
sg39
S'10/07'
p1322
sg41
S'Andy Dalton'
p1323
sg43
S'63.5'
p1324
sg45
S'L13-17'
p1325
sg47
S'2012'
p1326
ssg37
(dp1327
g5
S'31'
p1328
sg7
g37
sg9
S'0.8'
p1329
sg11
S'64.5'
p1330
sg13
g79
sg15
S'244'
p1331
sg17
S'7.9'
p1332
sg19
S'--'
p1333
sg21
S'@JAC'
p1334
sg23
g24
sg25
S'20'
p1335
sg27
g34
sg29
g131
sg31
g24
sg32
S'--'
p1336
sg33
g24
sg35
g20
sg36
g34
sg38
g24
sg39
S'09/30'
p1337
sg41
S'Andy Dalton'
p1338
sg43
S'96.7'
p1339
sg45
S'W27-10'
p1340
sg47
S'2012'
p1341
ssg246
(dp1342
g5
S'28'
p1343
sg7
g246
sg9
S'-1.0'
p1344
sg11
S'50.0'
p1345
sg13
g24
sg15
S'105'
p1346
sg17
S'3.8'
p1347
sg19
S'--'
p1348
sg21
S'PIT'
p1349
sg23
g24
sg25
S'14'
p1350
sg27
g34
sg29
S'-1'
p1351
sg31
g24
sg32
S'--'
p1352
sg33
g34
sg35
g24
sg36
g34
sg38
g24
sg39
S'10/21'
p1353
sg41
S'Andy Dalton'
p1354
sg43
S'56.4'
p1355
sg45
S'L17-24'
p1356
sg47
S'2012'
p1357
ssg79
(dp1358
g5
S'46'
p1359
sg7
g79
sg9
S'2.5'
p1360
sg11
S'67.4'
p1361
sg13
g20
sg15
S'381'
p1362
sg17
S'8.3'
p1363
sg19
g24
sg21
S'@CLE'
p1364
sg23
g24
sg25
S'31'
p1365
sg27
S'19'
p1366
sg29
g131
sg31
g24
sg32
g24
sg33
g34
sg35
g99
sg36
g20
sg38
g99
sg39
S'10/14'
p1367
sg41
S'Andy Dalton'
p1368
sg43
S'87.3'
p1369
sg45
S'L24-34'
p1370
sg47
S'2012'
p1371
ssg295
(dp1372
g5
S'42'
p1373
sg7
g295
sg9
S'8.0'
p1374
sg11
S'61.9'
p1375
sg13
g20
sg15
S'299'
p1376
sg17
S'7.1'
p1377
sg19
S'--'
p1378
sg21
S'DEN'
p1379
sg23
g24
sg25
S'26'
p1380
sg27
S'24'
p1381
sg29
S'16'
p1382
sg31
g24
sg32
S'--'
p1383
sg33
g34
sg35
g24
sg36
g131
sg38
g24
sg39
S'11/04'
p1384
sg41
S'Andy Dalton'
p1385
sg43
S'81.3'
p1386
sg45
S'L23-31'
p1387
sg47
S'2012'
p1388
ssg14
(dp1389
g5
g277
sg7
g14
sg9
g277
sg11
g277
sg13
g277
sg15
g277
sg17
g277
sg19
g277
sg21
g277
sg23
g277
sg25
g277
sg27
g277
sg29
g277
sg31
g277
sg32
g277
sg33
g277
sg35
g277
sg36
g277
sg38
g277
sg39
S'Bye'
p1390
sg41
S'Andy Dalton'
p1391
sg43
g277
sg45
g277
sg47
S'2012'
p1392
sss.