(dp0
S'2015'
p1
(dp2
S'11'
p3
(dp4
S'PassAtt'
p5
S''
p6
sS'WK'
p7
S'11'
p8
sS'RushAvg'
p9
g6
sS'Pct'
p10
g6
sS'RushAtt'
p11
g6
sS'PassYds'
p12
g6
sS'PassAvg'
p13
g6
sS'FUM'
p14
g6
sS'Opp'
p15
g6
sS'G'
p16
g6
sS'Comp'
p17
g6
sS'SckY'
p18
g6
sS'RushYds'
p19
g6
sS'GS'
p20
g6
sS'Lost'
p21
g6
sS'RushTD'
p22
g6
sS'PassTD'
p23
g6
sS'Sck'
p24
g6
sS'Int'
p25
g6
sS'Game Date'
p26
S'Bye'
p27
sS'Player'
p28
S'Austin Davis'
p29
sS'Rate'
p30
g6
sS'Result'
p31
g6
sS'Year'
p32
S'2015'
p33
ssS'10'
p34
(dp35
g5
S'--'
p36
sg7
S'10'
p37
sg9
S'--'
p38
sg10
S'--'
p39
sg11
S'--'
p40
sg12
S'--'
p41
sg13
S'--'
p42
sg14
S'--'
p43
sg15
S'@PIT'
p44
sg16
S'0'
p45
sg17
S'--'
p46
sg18
S'--'
p47
sg19
S'--'
p48
sg20
g45
sg21
S'--'
p49
sg22
S'--'
p50
sg23
S'--'
p51
sg24
S'--'
p52
sg25
S'--'
p53
sg26
S'11/15'
p54
sg28
S'Austin Davis'
p55
sg30
S'0.0'
p56
sg31
S'L9-30'
p57
sg32
S'2015'
p58
ssS'13'
p59
(dp60
g5
S'38'
p61
sg7
S'13'
p62
sg9
S'1.3'
p63
sg10
S'65.8'
p64
sg11
S'3'
p65
sg12
S'230'
p66
sg13
S'6.1'
p67
sg14
S'1'
p68
sg15
S'CIN'
p69
sg16
g68
sg17
S'25'
p70
sg18
S'25'
p71
sg19
S'4'
p72
sg20
g68
sg21
g68
sg22
g45
sg23
g45
sg24
g65
sg25
g68
sg26
S'12/06'
p73
sg28
S'Austin Davis'
p74
sg30
S'71.2'
p75
sg31
S'L3-37'
p76
sg32
S'2015'
p77
ssS'12'
p78
(dp79
g5
S'10'
p80
sg7
S'12'
p81
sg9
S'7.0'
p82
sg10
S'70.0'
p83
sg11
g68
sg12
S'77'
p84
sg13
S'7.7'
p85
sg14
S'--'
p86
sg15
S'BAL'
p87
sg16
g68
sg17
S'7'
p88
sg18
S'8'
p89
sg19
g88
sg20
g45
sg21
S'--'
p90
sg22
g45
sg23
g68
sg24
g68
sg25
g45
sg26
S'11/30'
p91
sg28
S'Austin Davis'
p92
sg30
S'125.8'
p93
sg31
S'L27-33'
p94
sg32
S'2015'
p95
ssS'15'
p96
(dp97
g5
S'--'
p98
sg7
S'15'
p99
sg9
S'--'
p100
sg10
S'--'
p101
sg11
S'--'
p102
sg12
S'--'
p103
sg13
S'--'
p104
sg14
S'--'
p105
sg15
S'@SEA'
p106
sg16
g45
sg17
S'--'
p107
sg18
S'--'
p108
sg19
S'--'
p109
sg20
g45
sg21
S'--'
p110
sg22
S'--'
p111
sg23
S'--'
p112
sg24
S'--'
p113
sg25
S'--'
p114
sg26
S'12/20'
p115
sg28
S'Austin Davis'
p116
sg30
S'0.0'
p117
sg31
S'L13-30'
p118
sg32
S'2015'
p119
ssS'14'
p120
(dp121
g5
S'--'
p122
sg7
S'14'
p123
sg9
S'--'
p124
sg10
S'--'
p125
sg11
S'--'
p126
sg12
S'--'
p127
sg13
S'--'
p128
sg14
S'--'
p129
sg15
S'SF'
p130
sg16
g45
sg17
S'--'
p131
sg18
S'--'
p132
sg19
S'--'
p133
sg20
g45
sg21
S'--'
p134
sg22
S'--'
p135
sg23
S'--'
p136
sg24
S'--'
p137
sg25
S'--'
p138
sg26
S'12/13'
p139
sg28
S'Austin Davis'
p140
sg30
S'0.0'
p141
sg31
S'W24-10'
p142
sg32
S'2015'
p143
ssS'17'
p144
(dp145
g5
S'46'
p146
sg7
S'17'
p147
sg9
S'7.3'
p148
sg10
S'52.2'
p149
sg11
g65
sg12
S'240'
p150
sg13
S'5.2'
p151
sg14
g68
sg15
S'PIT'
p152
sg16
g68
sg17
S'24'
p153
sg18
S'63'
p154
sg19
S'22'
p155
sg20
g68
sg21
g68
sg22
g45
sg23
g45
sg24
g88
sg25
S'2'
p156
sg26
S'01/03'
p157
sg28
S'Austin Davis'
p158
sg30
S'49.2'
p159
sg31
S'L12-28'
p160
sg32
S'2015'
p161
ssS'16'
p162
(dp163
g5
S'--'
p164
sg7
S'16'
p165
sg9
S'--'
p166
sg10
S'--'
p167
sg11
S'--'
p168
sg12
S'--'
p169
sg13
S'--'
p170
sg14
S'--'
p171
sg15
S'@KC'
p172
sg16
g45
sg17
S'--'
p173
sg18
S'--'
p174
sg19
S'--'
p175
sg20
g45
sg21
S'--'
p176
sg22
S'--'
p177
sg23
S'--'
p178
sg24
S'--'
p179
sg25
S'--'
p180
sg26
S'12/27'
p181
sg28
S'Austin Davis'
p182
sg30
S'0.0'
p183
sg31
S'L13-17'
p184
sg32
S'2015'
p185
ssg68
(dp186
g5
S'--'
p187
sg7
g68
sg9
S'--'
p188
sg10
S'--'
p189
sg11
S'--'
p190
sg12
S'--'
p191
sg13
S'--'
p192
sg14
S'--'
p193
sg15
S'@NYJ'
p194
sg16
g45
sg17
S'--'
p195
sg18
S'--'
p196
sg19
S'--'
p197
sg20
g45
sg21
S'--'
p198
sg22
S'--'
p199
sg23
S'--'
p200
sg24
S'--'
p201
sg25
S'--'
p202
sg26
S'09/13'
p203
sg28
S'Austin Davis'
p204
sg30
S'0.0'
p205
sg31
S'L10-31'
p206
sg32
S'2015'
p207
ssg65
(dp208
g5
S'--'
p209
sg7
g65
sg9
S'--'
p210
sg10
S'--'
p211
sg11
S'--'
p212
sg12
S'--'
p213
sg13
S'--'
p214
sg14
S'--'
p215
sg15
S'OAK'
p216
sg16
g45
sg17
S'--'
p217
sg18
S'--'
p218
sg19
S'--'
p219
sg20
g45
sg21
S'--'
p220
sg22
S'--'
p221
sg23
S'--'
p222
sg24
S'--'
p223
sg25
S'--'
p224
sg26
S'09/27'
p225
sg28
S'Austin Davis'
p226
sg30
S'0.0'
p227
sg31
S'L20-27'
p228
sg32
S'2015'
p229
ssg156
(dp230
g5
S'--'
p231
sg7
g156
sg9
S'--'
p232
sg10
S'--'
p233
sg11
S'--'
p234
sg12
S'--'
p235
sg13
S'--'
p236
sg14
S'--'
p237
sg15
S'TEN'
p238
sg16
g45
sg17
S'--'
p239
sg18
S'--'
p240
sg19
S'--'
p241
sg20
g45
sg21
S'--'
p242
sg22
S'--'
p243
sg23
S'--'
p244
sg24
S'--'
p245
sg25
S'--'
p246
sg26
S'09/20'
p247
sg28
S'Austin Davis'
p248
sg30
S'0.0'
p249
sg31
S'W28-14'
p250
sg32
S'2015'
p251
ssS'5'
p252
(dp253
g5
S'--'
p254
sg7
g252
sg9
S'--'
p255
sg10
S'--'
p256
sg11
S'--'
p257
sg12
S'--'
p258
sg13
S'--'
p259
sg14
S'--'
p260
sg15
S'@BAL'
p261
sg16
g45
sg17
S'--'
p262
sg18
S'--'
p263
sg19
S'--'
p264
sg20
g45
sg21
S'--'
p265
sg22
S'--'
p266
sg23
S'--'
p267
sg24
S'--'
p268
sg25
S'--'
p269
sg26
S'10/11'
p270
sg28
S'Austin Davis'
p271
sg30
S'0.0'
p272
sg31
S'W33-30'
p273
sg32
S'2015'
p274
ssg72
(dp275
g5
S'--'
p276
sg7
g72
sg9
S'--'
p277
sg10
S'--'
p278
sg11
S'--'
p279
sg12
S'--'
p280
sg13
S'--'
p281
sg14
S'--'
p282
sg15
S'@SD'
p283
sg16
g45
sg17
S'--'
p284
sg18
S'--'
p285
sg19
S'--'
p286
sg20
g45
sg21
S'--'
p287
sg22
S'--'
p288
sg23
S'--'
p289
sg24
S'--'
p290
sg25
S'--'
p291
sg26
S'10/04'
p292
sg28
S'Austin Davis'
p293
sg30
S'0.0'
p294
sg31
S'L27-30'
p295
sg32
S'2015'
p296
ssg88
(dp297
g5
S'--'
p298
sg7
g88
sg9
S'--'
p299
sg10
S'--'
p300
sg11
S'--'
p301
sg12
S'--'
p302
sg13
S'--'
p303
sg14
S'--'
p304
sg15
S'@STL'
p305
sg16
g45
sg17
S'--'
p306
sg18
S'--'
p307
sg19
S'--'
p308
sg20
g45
sg21
S'--'
p309
sg22
S'--'
p310
sg23
S'--'
p311
sg24
S'--'
p312
sg25
S'--'
p313
sg26
S'10/25'
p314
sg28
S'Austin Davis'
p315
sg30
S'0.0'
p316
sg31
S'L6-24'
p317
sg32
S'2015'
p318
ssS'6'
p319
(dp320
g5
S'--'
p321
sg7
g319
sg9
S'--'
p322
sg10
S'--'
p323
sg11
S'--'
p324
sg12
S'--'
p325
sg13
S'--'
p326
sg14
S'--'
p327
sg15
S'DEN'
p328
sg16
g45
sg17
S'--'
p329
sg18
S'--'
p330
sg19
S'--'
p331
sg20
g45
sg21
S'--'
p332
sg22
S'--'
p333
sg23
S'--'
p334
sg24
S'--'
p335
sg25
S'--'
p336
sg26
S'10/18'
p337
sg28
S'Austin Davis'
p338
sg30
S'0.0'
p339
sg31
S'L23-26'
p340
sg32
S'2015'
p341
ssS'9'
p342
(dp343
g5
S'--'
p344
sg7
g342
sg9
S'--'
p345
sg10
S'--'
p346
sg11
S'--'
p347
sg12
S'--'
p348
sg13
S'--'
p349
sg14
S'--'
p350
sg15
S'@CIN'
p351
sg16
g45
sg17
S'--'
p352
sg18
S'--'
p353
sg19
S'--'
p354
sg20
g45
sg21
S'--'
p355
sg22
S'--'
p356
sg23
S'--'
p357
sg24
S'--'
p358
sg25
S'--'
p359
sg26
S'11/05'
p360
sg28
S'Austin Davis'
p361
sg30
S'0.0'
p362
sg31
S'L10-31'
p363
sg32
S'2015'
p364
ssg89
(dp365
g5
S'--'
p366
sg7
g89
sg9
S'--'
p367
sg10
S'--'
p368
sg11
S'--'
p369
sg12
S'--'
p370
sg13
S'--'
p371
sg14
S'--'
p372
sg15
S'ARI'
p373
sg16
g45
sg17
S'--'
p374
sg18
S'--'
p375
sg19
S'--'
p376
sg20
g45
sg21
S'--'
p377
sg22
S'--'
p378
sg23
S'--'
p379
sg24
S'--'
p380
sg25
S'--'
p381
sg26
S'11/01'
p382
sg28
S'Austin Davis'
p383
sg30
S'0.0'
p384
sg31
S'L20-34'
p385
sg32
S'2015'
p386
sssS'2014'
p387
(dp388
g3
(dp389
g5
S'--'
p390
sg7
S'11'
p391
sg9
S'--'
p392
sg10
S'--'
p393
sg11
S'--'
p394
sg12
S'--'
p395
sg13
S'--'
p396
sg14
S'--'
p397
sg15
S'DEN'
p398
sg16
g45
sg17
S'--'
p399
sg18
S'--'
p400
sg19
S'--'
p401
sg20
g45
sg21
S'--'
p402
sg22
S'--'
p403
sg23
S'--'
p404
sg24
S'--'
p405
sg25
S'--'
p406
sg26
S'11/16'
p407
sg28
S'Austin Davis'
p408
sg30
S'0.0'
p409
sg31
S'W22-7'
p410
sg32
S'2014'
p411
ssg34
(dp412
g5
S'30'
p413
sg7
S'10'
p414
sg9
S'0.0'
p415
sg10
S'56.7'
p416
sg11
g65
sg12
S'216'
p417
sg13
S'7.2'
p418
sg14
g68
sg15
S'@ARI'
p419
sg16
g68
sg17
S'17'
p420
sg18
S'42'
p421
sg19
g45
sg20
g68
sg21
g68
sg22
g45
sg23
g68
sg24
g319
sg25
g156
sg26
S'11/09'
p422
sg28
S'Austin Davis'
p423
sg30
S'62.6'
p424
sg31
S'L14-31'
p425
sg32
S'2014'
p426
ssg59
(dp427
g5
S'--'
p428
sg7
S'13'
p429
sg9
S'--'
p430
sg10
S'--'
p431
sg11
S'--'
p432
sg12
S'--'
p433
sg13
S'--'
p434
sg14
S'--'
p435
sg15
S'OAK'
p436
sg16
g68
sg17
S'--'
p437
sg18
S'--'
p438
sg19
S'--'
p439
sg20
g45
sg21
S'--'
p440
sg22
S'--'
p441
sg23
S'--'
p442
sg24
S'--'
p443
sg25
S'--'
p444
sg26
S'11/30'
p445
sg28
S'Austin Davis'
p446
sg30
S'0.0'
p447
sg31
S'W52-0'
p448
sg32
S'2014'
p449
ssg78
(dp450
g5
S'--'
p451
sg7
S'12'
p452
sg9
S'--'
p453
sg10
S'--'
p454
sg11
S'--'
p455
sg12
S'--'
p456
sg13
S'--'
p457
sg14
S'--'
p458
sg15
S'@SD'
p459
sg16
g45
sg17
S'--'
p460
sg18
S'--'
p461
sg19
S'--'
p462
sg20
g45
sg21
S'--'
p463
sg22
S'--'
p464
sg23
S'--'
p465
sg24
S'--'
p466
sg25
S'--'
p467
sg26
S'11/23'
p468
sg28
S'Austin Davis'
p469
sg30
S'0.0'
p470
sg31
S'L24-27'
p471
sg32
S'2014'
p472
ssg96
(dp473
g5
S'--'
p474
sg7
S'15'
p475
sg9
S'--'
p476
sg10
S'--'
p477
sg11
S'--'
p478
sg12
S'--'
p479
sg13
S'--'
p480
sg14
S'--'
p481
sg15
S'ARI'
p482
sg16
g45
sg17
S'--'
p483
sg18
S'--'
p484
sg19
S'--'
p485
sg20
g45
sg21
S'--'
p486
sg22
S'--'
p487
sg23
S'--'
p488
sg24
S'--'
p489
sg25
S'--'
p490
sg26
S'12/11'
p491
sg28
S'Austin Davis'
p492
sg30
S'0.0'
p493
sg31
S'L6-12'
p494
sg32
S'2014'
p495
ssg120
(dp496
g5
S'--'
p497
sg7
S'14'
p498
sg9
S'--'
p499
sg10
S'--'
p500
sg11
S'--'
p501
sg12
S'--'
p502
sg13
S'--'
p503
sg14
S'--'
p504
sg15
S'@WAS'
p505
sg16
g45
sg17
S'--'
p506
sg18
S'--'
p507
sg19
S'--'
p508
sg20
g45
sg21
S'--'
p509
sg22
S'--'
p510
sg23
S'--'
p511
sg24
S'--'
p512
sg25
S'--'
p513
sg26
S'12/07'
p514
sg28
S'Austin Davis'
p515
sg30
S'0.0'
p516
sg31
S'W24-0'
p517
sg32
S'2014'
p518
ssg144
(dp519
g5
S'--'
p520
sg7
S'17'
p521
sg9
S'--'
p522
sg10
S'--'
p523
sg11
S'--'
p524
sg12
S'--'
p525
sg13
S'--'
p526
sg14
S'--'
p527
sg15
S'@SEA'
p528
sg16
g45
sg17
S'--'
p529
sg18
S'--'
p530
sg19
S'--'
p531
sg20
g45
sg21
S'--'
p532
sg22
S'--'
p533
sg23
S'--'
p534
sg24
S'--'
p535
sg25
S'--'
p536
sg26
S'12/28'
p537
sg28
S'Austin Davis'
p538
sg30
S'0.0'
p539
sg31
S'L6-20'
p540
sg32
S'2014'
p541
ssg162
(dp542
g5
S'--'
p543
sg7
S'16'
p544
sg9
S'--'
p545
sg10
S'--'
p546
sg11
S'--'
p547
sg12
S'--'
p548
sg13
S'--'
p549
sg14
S'--'
p550
sg15
S'NYG'
p551
sg16
g45
sg17
S'--'
p552
sg18
S'--'
p553
sg19
S'--'
p554
sg20
g45
sg21
S'--'
p555
sg22
S'--'
p556
sg23
S'--'
p557
sg24
S'--'
p558
sg25
S'--'
p559
sg26
S'12/21'
p560
sg28
S'Austin Davis'
p561
sg30
S'0.0'
p562
sg31
S'L27-37'
p563
sg32
S'2014'
p564
ssg68
(dp565
g5
S'23'
p566
sg7
g68
sg9
S'0.0'
p567
sg10
S'69.6'
p568
sg11
g68
sg12
S'192'
p569
sg13
S'8.3'
p570
sg14
S'--'
p571
sg15
S'MIN'
p572
sg16
g68
sg17
S'16'
p573
sg18
S'21'
p574
sg19
g45
sg20
g45
sg21
S'--'
p575
sg22
g45
sg23
g45
sg24
g72
sg25
g68
sg26
S'09/07'
p576
sg28
S'Austin Davis'
p577
sg30
S'76.7'
p578
sg31
S'L6-34'
p579
sg32
S'2014'
p580
ssg65
(dp581
g5
S'42'
p582
sg7
g65
sg9
S'-0.5'
p583
sg10
S'71.4'
p584
sg11
g156
sg12
S'327'
p585
sg13
S'7.8'
p586
sg14
S'--'
p587
sg15
S'DAL'
p588
sg16
g68
sg17
S'30'
p589
sg18
g45
sg19
S'-1'
p590
sg20
g68
sg21
S'--'
p591
sg22
g45
sg23
g65
sg24
g45
sg25
g156
sg26
S'09/21'
p592
sg28
S'Austin Davis'
p593
sg30
S'98.0'
p594
sg31
S'L31-34'
p595
sg32
S'2014'
p596
ssg156
(dp597
g5
S'29'
p598
sg7
g156
sg9
S'0.0'
p599
sg10
S'75.9'
p600
sg11
g68
sg12
S'235'
p601
sg13
S'8.1'
p602
sg14
g68
sg15
S'@TB'
p603
sg16
g68
sg17
S'22'
p604
sg18
S'15'
p605
sg19
g45
sg20
g68
sg21
g45
sg22
g45
sg23
g45
sg24
g156
sg25
g45
sg26
S'09/14'
p606
sg28
S'Austin Davis'
p607
sg30
S'99.1'
p608
sg31
S'W19-17'
p609
sg32
S'2014'
p610
ssg252
(dp611
g5
S'49'
p612
sg7
g252
sg9
S'10.0'
p613
sg10
S'59.2'
p614
sg11
g65
sg12
S'375'
p615
sg13
S'7.7'
p616
sg14
g156
sg15
S'@PHI'
p617
sg16
g68
sg17
S'29'
p618
sg18
S'34'
p619
sg19
S'30'
p620
sg20
g68
sg21
g156
sg22
g45
sg23
g65
sg24
g72
sg25
g45
sg26
S'10/05'
p621
sg28
S'Austin Davis'
p622
sg30
S'103.7'
p623
sg31
S'L28-34'
p624
sg32
S'2014'
p625
ssg72
(dp626
g5
g6
sg7
g72
sg9
g6
sg10
g6
sg11
g6
sg12
g6
sg13
g6
sg14
g6
sg15
g6
sg16
g6
sg17
g6
sg18
g6
sg19
g6
sg20
g6
sg21
g6
sg22
g6
sg23
g6
sg24
g6
sg25
g6
sg26
S'Bye'
p627
sg28
S'Austin Davis'
p628
sg30
g6
sg31
g6
sg32
S'2014'
p629
ssg88
(dp630
g5
S'20'
p631
sg7
g88
sg9
S'-1.0'
p632
sg10
S'85.0'
p633
sg11
g156
sg12
S'155'
p634
sg13
S'7.8'
p635
sg14
S'--'
p636
sg15
S'SEA'
p637
sg16
g68
sg17
S'17'
p638
sg18
g45
sg19
S'-2'
p639
sg20
g68
sg21
S'--'
p640
sg22
g45
sg23
g156
sg24
g45
sg25
g45
sg26
S'10/19'
p641
sg28
S'Austin Davis'
p642
sg30
S'132.3'
p643
sg31
S'W28-26'
p644
sg32
S'2014'
p645
ssg319
(dp646
g5
S'42'
p647
sg7
g319
sg9
S'-1.0'
p648
sg10
S'50.0'
p649
sg11
g68
sg12
S'236'
p650
sg13
S'5.6'
p651
sg14
g68
sg15
S'SF'
p652
sg16
g68
sg17
S'21'
p653
sg18
S'20'
p654
sg19
S'-1'
p655
sg20
g68
sg21
g45
sg22
g45
sg23
g68
sg24
g252
sg25
g68
sg26
S'10/13'
p656
sg28
S'Austin Davis'
p657
sg30
S'65.2'
p658
sg31
S'L17-31'
p659
sg32
S'2014'
p660
ssg342
(dp661
g5
S'24'
p662
sg7
g342
sg9
S'4.5'
p663
sg10
S'54.2'
p664
sg11
g156
sg12
S'105'
p665
sg13
S'4.4'
p666
sg14
S'--'
p667
sg15
S'@SF'
p668
sg16
g68
sg17
S'13'
p669
sg18
g65
sg19
g342
sg20
g68
sg21
S'--'
p670
sg22
g45
sg23
g68
sg24
g68
sg25
g156
sg26
S'11/02'
p671
sg28
S'Austin Davis'
p672
sg30
S'44.6'
p673
sg31
S'W13-10'
p674
sg32
S'2014'
p675
ssg89
(dp676
g5
S'25'
p677
sg7
g89
sg9
S'1.0'
p678
sg10
S'60.0'
p679
sg11
g68
sg12
S'160'
p680
sg13
S'6.4'
p681
sg14
S'--'
p682
sg15
S'@KC'
p683
sg16
g68
sg17
S'15'
p684
sg18
S'44'
p685
sg19
g68
sg20
g68
sg21
S'--'
p686
sg22
g45
sg23
g68
sg24
g88
sg25
g68
sg26
S'10/26'
p687
sg28
S'Austin Davis'
p688
sg30
S'75.4'
p689
sg31
S'L7-34'
p690
sg32
S'2014'
p691
sssS'2013'
p692
(dp693
g3
(dp694
g5
g6
sg7
S'11'
p695
sg9
g6
sg10
g6
sg11
g6
sg12
g6
sg13
g6
sg14
g6
sg15
g6
sg16
g6
sg17
g6
sg18
g6
sg19
g6
sg20
g6
sg21
g6
sg22
g6
sg23
g6
sg24
g6
sg25
g6
sg26
S'Bye'
p696
sg28
S'Austin Davis'
p697
sg30
g6
sg31
g6
sg32
S'2013'
p698
ssg34
(dp699
g5
S'--'
p700
sg7
S'10'
p701
sg9
S'--'
p702
sg10
S'--'
p703
sg11
S'--'
p704
sg12
S'--'
p705
sg13
S'--'
p706
sg14
S'--'
p707
sg15
S'@IND'
p708
sg16
g45
sg17
S'--'
p709
sg18
S'--'
p710
sg19
S'--'
p711
sg20
g45
sg21
S'--'
p712
sg22
S'--'
p713
sg23
S'--'
p714
sg24
S'--'
p715
sg25
S'--'
p716
sg26
S'11/10'
p717
sg28
S'Austin Davis'
p718
sg30
S'0.0'
p719
sg31
S'W38-8'
p720
sg32
S'2013'
p721
ssg59
(dp722
g5
S'--'
p723
sg7
S'13'
p724
sg9
S'--'
p725
sg10
S'--'
p726
sg11
S'--'
p727
sg12
S'--'
p728
sg13
S'--'
p729
sg14
S'--'
p730
sg15
S'@SF'
p731
sg16
g45
sg17
S'--'
p732
sg18
S'--'
p733
sg19
S'--'
p734
sg20
g45
sg21
S'--'
p735
sg22
S'--'
p736
sg23
S'--'
p737
sg24
S'--'
p738
sg25
S'--'
p739
sg26
S'12/01'
p740
sg28
S'Austin Davis'
p741
sg30
S'0.0'
p742
sg31
S'L13-23'
p743
sg32
S'2013'
p744
ssg78
(dp745
g5
S'--'
p746
sg7
S'12'
p747
sg9
S'--'
p748
sg10
S'--'
p749
sg11
S'--'
p750
sg12
S'--'
p751
sg13
S'--'
p752
sg14
S'--'
p753
sg15
S'CHI'
p754
sg16
g45
sg17
S'--'
p755
sg18
S'--'
p756
sg19
S'--'
p757
sg20
g45
sg21
S'--'
p758
sg22
S'--'
p759
sg23
S'--'
p760
sg24
S'--'
p761
sg25
S'--'
p762
sg26
S'11/24'
p763
sg28
S'Austin Davis'
p764
sg30
S'0.0'
p765
sg31
S'W42-21'
p766
sg32
S'2013'
p767
ssg96
(dp768
g5
S'--'
p769
sg7
S'15'
p770
sg9
S'--'
p771
sg10
S'--'
p772
sg11
S'--'
p773
sg12
S'--'
p774
sg13
S'--'
p775
sg14
S'--'
p776
sg15
S'NO'
p777
sg16
g45
sg17
S'--'
p778
sg18
S'--'
p779
sg19
S'--'
p780
sg20
g45
sg21
S'--'
p781
sg22
S'--'
p782
sg23
S'--'
p783
sg24
S'--'
p784
sg25
S'--'
p785
sg26
S'12/15'
p786
sg28
S'Austin Davis'
p787
sg30
S'0.0'
p788
sg31
S'W27-16'
p789
sg32
S'2013'
p790
ssg120
(dp791
g5
S'--'
p792
sg7
S'14'
p793
sg9
S'--'
p794
sg10
S'--'
p795
sg11
S'--'
p796
sg12
S'--'
p797
sg13
S'--'
p798
sg14
S'--'
p799
sg15
S'@ARI'
p800
sg16
g45
sg17
S'--'
p801
sg18
S'--'
p802
sg19
S'--'
p803
sg20
g45
sg21
S'--'
p804
sg22
S'--'
p805
sg23
S'--'
p806
sg24
S'--'
p807
sg25
S'--'
p808
sg26
S'12/08'
p809
sg28
S'Austin Davis'
p810
sg30
S'0.0'
p811
sg31
S'L10-30'
p812
sg32
S'2013'
p813
ssg144
(dp814
g5
S'--'
p815
sg7
S'17'
p816
sg9
S'--'
p817
sg10
S'--'
p818
sg11
S'--'
p819
sg12
S'--'
p820
sg13
S'--'
p821
sg14
S'--'
p822
sg15
S'@SEA'
p823
sg16
g45
sg17
S'--'
p824
sg18
S'--'
p825
sg19
S'--'
p826
sg20
g45
sg21
S'--'
p827
sg22
S'--'
p828
sg23
S'--'
p829
sg24
S'--'
p830
sg25
S'--'
p831
sg26
S'12/29'
p832
sg28
S'Austin Davis'
p833
sg30
S'0.0'
p834
sg31
S'L9-27'
p835
sg32
S'2013'
p836
ssg162
(dp837
g5
S'--'
p838
sg7
S'16'
p839
sg9
S'--'
p840
sg10
S'--'
p841
sg11
S'--'
p842
sg12
S'--'
p843
sg13
S'--'
p844
sg14
S'--'
p845
sg15
S'TB'
p846
sg16
g45
sg17
S'--'
p847
sg18
S'--'
p848
sg19
S'--'
p849
sg20
g45
sg21
S'--'
p850
sg22
S'--'
p851
sg23
S'--'
p852
sg24
S'--'
p853
sg25
S'--'
p854
sg26
S'12/22'
p855
sg28
S'Austin Davis'
p856
sg30
S'0.0'
p857
sg31
S'W23-13'
p858
sg32
S'2013'
p859
ssg342
(dp860
g5
S'--'
p861
sg7
g342
sg9
S'--'
p862
sg10
S'--'
p863
sg11
S'--'
p864
sg12
S'--'
p865
sg13
S'--'
p866
sg14
S'--'
p867
sg15
S'TEN'
p868
sg16
g45
sg17
S'--'
p869
sg18
S'--'
p870
sg19
S'--'
p871
sg20
g45
sg21
S'--'
p872
sg22
S'--'
p873
sg23
S'--'
p874
sg24
S'--'
p875
sg25
S'--'
p876
sg26
S'11/03'
p877
sg28
S'Austin Davis'
p878
sg30
S'0.0'
p879
sg31
S'L21-28'
p880
sg32
S'2013'
p881
ssg89
(dp882
g5
S'--'
p883
sg7
g89
sg9
S'--'
p884
sg10
S'--'
p885
sg11
S'--'
p886
sg12
S'--'
p887
sg13
S'--'
p888
sg14
S'--'
p889
sg15
S'SEA'
p890
sg16
g45
sg17
S'--'
p891
sg18
S'--'
p892
sg19
S'--'
p893
sg20
g45
sg21
S'--'
p894
sg22
S'--'
p895
sg23
S'--'
p896
sg24
S'--'
p897
sg25
S'--'
p898
sg26
S'10/28'
p899
sg28
S'Austin Davis'
p900
sg30
S'0.0'
p901
sg31
S'L9-14'
p902
sg32
S'2013'
p903
sssS'2012'
p904
(dp905
g3
(dp906
g5
S'--'
p907
sg7
S'11'
p908
sg9
S'--'
p909
sg10
S'--'
p910
sg11
S'--'
p911
sg12
S'--'
p912
sg13
S'--'
p913
sg14
S'--'
p914
sg15
S'NYJ'
p915
sg16
g45
sg17
S'--'
p916
sg18
S'--'
p917
sg19
S'--'
p918
sg20
g45
sg21
S'--'
p919
sg22
S'--'
p920
sg23
S'--'
p921
sg24
S'--'
p922
sg25
S'--'
p923
sg26
S'11/18'
p924
sg28
S'Austin Davis'
p925
sg30
S'0.0'
p926
sg31
S'L13-27'
p927
sg32
S'2012'
p928
ssg34
(dp929
g5
S'--'
p930
sg7
S'10'
p931
sg9
S'--'
p932
sg10
S'--'
p933
sg11
S'--'
p934
sg12
S'--'
p935
sg13
S'--'
p936
sg14
S'--'
p937
sg15
S'@SF'
p938
sg16
g45
sg17
S'--'
p939
sg18
S'--'
p940
sg19
S'--'
p941
sg20
g45
sg21
S'--'
p942
sg22
S'--'
p943
sg23
S'--'
p944
sg24
S'--'
p945
sg25
S'--'
p946
sg26
S'11/11'
p947
sg28
S'Austin Davis'
p948
sg30
S'0.0'
p949
sg31
S'T24-24'
p950
sg32
S'2012'
p951
ssg59
(dp952
g5
S'--'
p953
sg7
S'13'
p954
sg9
S'--'
p955
sg10
S'--'
p956
sg11
S'--'
p957
sg12
S'--'
p958
sg13
S'--'
p959
sg14
S'--'
p960
sg15
S'SF'
p961
sg16
g45
sg17
S'--'
p962
sg18
S'--'
p963
sg19
S'--'
p964
sg20
g45
sg21
S'--'
p965
sg22
S'--'
p966
sg23
S'--'
p967
sg24
S'--'
p968
sg25
S'--'
p969
sg26
S'12/02'
p970
sg28
S'Austin Davis'
p971
sg30
S'0.0'
p972
sg31
S'W16-13'
p973
sg32
S'2012'
p974
ssg78
(dp975
g5
S'--'
p976
sg7
S'12'
p977
sg9
S'--'
p978
sg10
S'--'
p979
sg11
S'--'
p980
sg12
S'--'
p981
sg13
S'--'
p982
sg14
S'--'
p983
sg15
S'@ARI'
p984
sg16
g45
sg17
S'--'
p985
sg18
S'--'
p986
sg19
S'--'
p987
sg20
g45
sg21
S'--'
p988
sg22
S'--'
p989
sg23
S'--'
p990
sg24
S'--'
p991
sg25
S'--'
p992
sg26
S'11/25'
p993
sg28
S'Austin Davis'
p994
sg30
S'0.0'
p995
sg31
S'W31-17'
p996
sg32
S'2012'
p997
ssg96
(dp998
g5
S'--'
p999
sg7
S'15'
p1000
sg9
S'--'
p1001
sg10
S'--'
p1002
sg11
S'--'
p1003
sg12
S'--'
p1004
sg13
S'--'
p1005
sg14
S'--'
p1006
sg15
S'MIN'
p1007
sg16
g45
sg17
S'--'
p1008
sg18
S'--'
p1009
sg19
S'--'
p1010
sg20
g45
sg21
S'--'
p1011
sg22
S'--'
p1012
sg23
S'--'
p1013
sg24
S'--'
p1014
sg25
S'--'
p1015
sg26
S'12/16'
p1016
sg28
S'Austin Davis'
p1017
sg30
S'0.0'
p1018
sg31
S'L22-36'
p1019
sg32
S'2012'
p1020
ssg120
(dp1021
g5
S'--'
p1022
sg7
S'14'
p1023
sg9
S'--'
p1024
sg10
S'--'
p1025
sg11
S'--'
p1026
sg12
S'--'
p1027
sg13
S'--'
p1028
sg14
S'--'
p1029
sg15
S'@BUF'
p1030
sg16
g45
sg17
S'--'
p1031
sg18
S'--'
p1032
sg19
S'--'
p1033
sg20
g45
sg21
S'--'
p1034
sg22
S'--'
p1035
sg23
S'--'
p1036
sg24
S'--'
p1037
sg25
S'--'
p1038
sg26
S'12/09'
p1039
sg28
S'Austin Davis'
p1040
sg30
S'0.0'
p1041
sg31
S'W15-12'
p1042
sg32
S'2012'
p1043
ssg144
(dp1044
g5
S'--'
p1045
sg7
S'17'
p1046
sg9
S'--'
p1047
sg10
S'--'
p1048
sg11
S'--'
p1049
sg12
S'--'
p1050
sg13
S'--'
p1051
sg14
S'--'
p1052
sg15
S'@SEA'
p1053
sg16
g45
sg17
S'--'
p1054
sg18
S'--'
p1055
sg19
S'--'
p1056
sg20
g45
sg21
S'--'
p1057
sg22
S'--'
p1058
sg23
S'--'
p1059
sg24
S'--'
p1060
sg25
S'--'
p1061
sg26
S'12/30'
p1062
sg28
S'Austin Davis'
p1063
sg30
S'0.0'
p1064
sg31
S'L13-20'
p1065
sg32
S'2012'
p1066
ssg162
(dp1067
g5
S'--'
p1068
sg7
S'16'
p1069
sg9
S'--'
p1070
sg10
S'--'
p1071
sg11
S'--'
p1072
sg12
S'--'
p1073
sg13
S'--'
p1074
sg14
S'--'
p1075
sg15
S'@TB'
p1076
sg16
g45
sg17
S'--'
p1077
sg18
S'--'
p1078
sg19
S'--'
p1079
sg20
g45
sg21
S'--'
p1080
sg22
S'--'
p1081
sg23
S'--'
p1082
sg24
S'--'
p1083
sg25
S'--'
p1084
sg26
S'12/23'
p1085
sg28
S'Austin Davis'
p1086
sg30
S'0.0'
p1087
sg31
S'W28-13'
p1088
sg32
S'2012'
p1089
ssg68
(dp1090
g5
S'--'
p1091
sg7
g68
sg9
S'--'
p1092
sg10
S'--'
p1093
sg11
S'--'
p1094
sg12
S'--'
p1095
sg13
S'--'
p1096
sg14
S'--'
p1097
sg15
S'@DET'
p1098
sg16
g45
sg17
S'--'
p1099
sg18
S'--'
p1100
sg19
S'--'
p1101
sg20
g45
sg21
S'--'
p1102
sg22
S'--'
p1103
sg23
S'--'
p1104
sg24
S'--'
p1105
sg25
S'--'
p1106
sg26
S'09/09'
p1107
sg28
S'Austin Davis'
p1108
sg30
S'0.0'
p1109
sg31
S'L23-27'
p1110
sg32
S'2012'
p1111
ssg65
(dp1112
g5
S'--'
p1113
sg7
g65
sg9
S'--'
p1114
sg10
S'--'
p1115
sg11
S'--'
p1116
sg12
S'--'
p1117
sg13
S'--'
p1118
sg14
S'--'
p1119
sg15
S'@CHI'
p1120
sg16
g45
sg17
S'--'
p1121
sg18
S'--'
p1122
sg19
S'--'
p1123
sg20
g45
sg21
S'--'
p1124
sg22
S'--'
p1125
sg23
S'--'
p1126
sg24
S'--'
p1127
sg25
S'--'
p1128
sg26
S'09/23'
p1129
sg28
S'Austin Davis'
p1130
sg30
S'0.0'
p1131
sg31
S'L6-23'
p1132
sg32
S'2012'
p1133
ssg156
(dp1134
g5
S'--'
p1135
sg7
g156
sg9
S'--'
p1136
sg10
S'--'
p1137
sg11
S'--'
p1138
sg12
S'--'
p1139
sg13
S'--'
p1140
sg14
S'--'
p1141
sg15
S'WAS'
p1142
sg16
g45
sg17
S'--'
p1143
sg18
S'--'
p1144
sg19
S'--'
p1145
sg20
g45
sg21
S'--'
p1146
sg22
S'--'
p1147
sg23
S'--'
p1148
sg24
S'--'
p1149
sg25
S'--'
p1150
sg26
S'09/16'
p1151
sg28
S'Austin Davis'
p1152
sg30
S'0.0'
p1153
sg31
S'W31-28'
p1154
sg32
S'2012'
p1155
ssg252
(dp1156
g5
S'--'
p1157
sg7
g252
sg9
S'--'
p1158
sg10
S'--'
p1159
sg11
S'--'
p1160
sg12
S'--'
p1161
sg13
S'--'
p1162
sg14
S'--'
p1163
sg15
S'ARI'
p1164
sg16
g45
sg17
S'--'
p1165
sg18
S'--'
p1166
sg19
S'--'
p1167
sg20
g45
sg21
S'--'
p1168
sg22
S'--'
p1169
sg23
S'--'
p1170
sg24
S'--'
p1171
sg25
S'--'
p1172
sg26
S'10/04'
p1173
sg28
S'Austin Davis'
p1174
sg30
S'0.0'
p1175
sg31
S'W17-3'
p1176
sg32
S'2012'
p1177
ssg72
(dp1178
g5
S'--'
p1179
sg7
g72
sg9
S'--'
p1180
sg10
S'--'
p1181
sg11
S'--'
p1182
sg12
S'--'
p1183
sg13
S'--'
p1184
sg14
S'--'
p1185
sg15
S'SEA'
p1186
sg16
g45
sg17
S'--'
p1187
sg18
S'--'
p1188
sg19
S'--'
p1189
sg20
g45
sg21
S'--'
p1190
sg22
S'--'
p1191
sg23
S'--'
p1192
sg24
S'--'
p1193
sg25
S'--'
p1194
sg26
S'09/30'
p1195
sg28
S'Austin Davis'
p1196
sg30
S'0.0'
p1197
sg31
S'W19-13'
p1198
sg32
S'2012'
p1199
ssg88
(dp1200
g5
S'--'
p1201
sg7
g88
sg9
S'--'
p1202
sg10
S'--'
p1203
sg11
S'--'
p1204
sg12
S'--'
p1205
sg13
S'--'
p1206
sg14
S'--'
p1207
sg15
S'GB'
p1208
sg16
g45
sg17
S'--'
p1209
sg18
S'--'
p1210
sg19
S'--'
p1211
sg20
g45
sg21
S'--'
p1212
sg22
S'--'
p1213
sg23
S'--'
p1214
sg24
S'--'
p1215
sg25
S'--'
p1216
sg26
S'10/21'
p1217
sg28
S'Austin Davis'
p1218
sg30
S'0.0'
p1219
sg31
S'L20-30'
p1220
sg32
S'2012'
p1221
ssg319
(dp1222
g5
S'--'
p1223
sg7
g319
sg9
S'--'
p1224
sg10
S'--'
p1225
sg11
S'--'
p1226
sg12
S'--'
p1227
sg13
S'--'
p1228
sg14
S'--'
p1229
sg15
S'@MIA'
p1230
sg16
g45
sg17
S'--'
p1231
sg18
S'--'
p1232
sg19
S'--'
p1233
sg20
g45
sg21
S'--'
p1234
sg22
S'--'
p1235
sg23
S'--'
p1236
sg24
S'--'
p1237
sg25
S'--'
p1238
sg26
S'10/14'
p1239
sg28
S'Austin Davis'
p1240
sg30
S'0.0'
p1241
sg31
S'L14-17'
p1242
sg32
S'2012'
p1243
ssg342
(dp1244
g5
g6
sg7
g342
sg9
g6
sg10
g6
sg11
g6
sg12
g6
sg13
g6
sg14
g6
sg15
g6
sg16
g6
sg17
g6
sg18
g6
sg19
g6
sg20
g6
sg21
g6
sg22
g6
sg23
g6
sg24
g6
sg25
g6
sg26
S'Bye'
p1245
sg28
S'Austin Davis'
p1246
sg30
g6
sg31
g6
sg32
S'2012'
p1247
ssg89
(dp1248
g5
S'--'
p1249
sg7
g89
sg9
S'--'
p1250
sg10
S'--'
p1251
sg11
S'--'
p1252
sg12
S'--'
p1253
sg13
S'--'
p1254
sg14
S'--'
p1255
sg15
S'NE'
p1256
sg16
g45
sg17
S'--'
p1257
sg18
S'--'
p1258
sg19
S'--'
p1259
sg20
g45
sg21
S'--'
p1260
sg22
S'--'
p1261
sg23
S'--'
p1262
sg24
S'--'
p1263
sg25
S'--'
p1264
sg26
S'10/28'
p1265
sg28
S'Austin Davis'
p1266
sg30
S'0.0'
p1267
sg31
S'L7-45'
p1268
sg32
S'2012'
p1269
sss.