(dp0
S'2015'
p1
(dp2
S'11'
p3
(dp4
S'PassAtt'
p5
S''
p6
sS'WK'
p7
S'11'
p8
sS'RushAvg'
p9
g6
sS'Pct'
p10
g6
sS'RushAtt'
p11
g6
sS'PassYds'
p12
g6
sS'PassAvg'
p13
g6
sS'FUM'
p14
g6
sS'Opp'
p15
g6
sS'G'
p16
g6
sS'Comp'
p17
g6
sS'SckY'
p18
g6
sS'RushYds'
p19
g6
sS'GS'
p20
g6
sS'Lost'
p21
g6
sS'RushTD'
p22
g6
sS'PassTD'
p23
g6
sS'Sck'
p24
g6
sS'Int'
p25
g6
sS'Game Date'
p26
S'Bye'
p27
sS'Player'
p28
S'Ben Roethlisberger'
p29
sS'Rate'
p30
g6
sS'Result'
p31
g6
sS'Year'
p32
S'2015'
p33
ssS'10'
p34
(dp35
g5
S'33'
p36
sg7
S'10'
p37
sg9
S'-1.0'
p38
sg10
S'66.7'
p39
sg11
S'2'
p40
sg12
S'379'
p41
sg13
S'11.5'
p42
sg14
S'--'
p43
sg15
S'CLE'
p44
sg16
S'1'
p45
sg17
S'22'
p46
sg18
S'3'
p47
sg19
S'-2'
p48
sg20
S'0'
p49
sg21
S'--'
p50
sg22
g49
sg23
g47
sg24
g45
sg25
g45
sg26
S'11/15'
p51
sg28
S'Ben Roethlisberger'
p52
sg30
S'123.2'
p53
sg31
S'W30-9'
p54
sg32
S'2015'
p55
ssS'13'
p56
(dp57
g5
S'39'
p58
sg7
S'13'
p59
sg9
S'13.0'
p60
sg10
S'61.5'
p61
sg11
g45
sg12
S'364'
p62
sg13
S'9.3'
p63
sg14
S'--'
p64
sg15
S'IND'
p65
sg16
g45
sg17
S'24'
p66
sg18
g49
sg19
S'13'
p67
sg20
g45
sg21
S'--'
p68
sg22
g49
sg23
S'4'
p69
sg24
g49
sg25
g49
sg26
S'12/06'
p70
sg28
S'Ben Roethlisberger'
p71
sg30
S'126.4'
p72
sg31
S'W45-10'
p73
sg32
S'2015'
p74
ssS'12'
p75
(dp76
g5
S'55'
p77
sg7
S'12'
p78
sg9
S'3.6'
p79
sg10
S'65.5'
p80
sg11
S'5'
p81
sg12
S'456'
p82
sg13
S'8.3'
p83
sg14
g45
sg15
S'@SEA'
p84
sg16
g45
sg17
S'36'
p85
sg18
S'10'
p86
sg19
S'18'
p87
sg20
g45
sg21
g49
sg22
g49
sg23
g45
sg24
g40
sg25
g40
sg26
S'11/29'
p88
sg28
S'Ben Roethlisberger'
p89
sg30
S'82.1'
p90
sg31
S'L30-39'
p91
sg32
S'2015'
p92
ssS'15'
p93
(dp94
g5
S'55'
p95
sg7
S'15'
p96
sg9
S'-1.0'
p97
sg10
S'72.7'
p98
sg11
g47
sg12
S'380'
p99
sg13
S'6.9'
p100
sg14
S'--'
p101
sg15
S'DEN'
p102
sg16
g45
sg17
S'40'
p103
sg18
S'26'
p104
sg19
S'-3'
p105
sg20
g45
sg21
S'--'
p106
sg22
g49
sg23
g47
sg24
g47
sg25
g40
sg26
S'12/20'
p107
sg28
S'Ben Roethlisberger'
p108
sg30
S'94.5'
p109
sg31
S'W34-27'
p110
sg32
S'2015'
p111
ssS'14'
p112
(dp113
g5
S'39'
p114
sg7
S'14'
p115
sg9
S'6.0'
p116
sg10
S'76.9'
p117
sg11
g45
sg12
S'282'
p118
sg13
S'7.2'
p119
sg14
S'--'
p120
sg15
S'@CIN'
p121
sg16
g45
sg17
S'30'
p122
sg18
S'12'
p123
sg19
S'6'
p124
sg20
g45
sg21
S'--'
p125
sg22
g49
sg23
g49
sg24
g40
sg25
g45
sg26
S'12/13'
p126
sg28
S'Ben Roethlisberger'
p127
sg30
S'85.6'
p128
sg31
S'W33-20'
p129
sg32
S'2015'
p130
ssS'17'
p131
(dp132
g5
S'36'
p133
sg7
S'17'
p134
sg9
S'-1.0'
p135
sg10
S'66.7'
p136
sg11
g40
sg12
S'349'
p137
sg13
S'9.7'
p138
sg14
S'--'
p139
sg15
S'@CLE'
p140
sg16
g45
sg17
S'24'
p141
sg18
g49
sg19
S'-2'
p142
sg20
g45
sg21
S'--'
p143
sg22
g49
sg23
g47
sg24
g49
sg25
g40
sg26
S'01/03'
p144
sg28
S'Ben Roethlisberger'
p145
sg30
S'102.7'
p146
sg31
S'W28-12'
p147
sg32
S'2015'
p148
ssS'16'
p149
(dp150
g5
S'34'
p151
sg7
S'16'
p152
sg9
S'--'
p153
sg10
S'70.6'
p154
sg11
S'--'
p155
sg12
S'220'
p156
sg13
S'6.5'
p157
sg14
g45
sg15
S'@BAL'
p158
sg16
g45
sg17
S'24'
p159
sg18
S'22'
p160
sg19
S'--'
p161
sg20
g45
sg21
g49
sg22
S'--'
p162
sg23
g49
sg24
g47
sg25
g40
sg26
S'12/27'
p163
sg28
S'Ben Roethlisberger'
p164
sg30
S'63.4'
p165
sg31
S'L17-20'
p166
sg32
S'2015'
p167
ssg45
(dp168
g5
S'38'
p169
sg7
g45
sg9
S'--'
p170
sg10
S'68.4'
p171
sg11
S'--'
p172
sg12
S'351'
p173
sg13
S'9.2'
p174
sg14
S'--'
p175
sg15
S'@NE'
p176
sg16
g45
sg17
S'26'
p177
sg18
S'13'
p178
sg19
S'--'
p179
sg20
g45
sg21
S'--'
p180
sg22
S'--'
p181
sg23
g45
sg24
g40
sg25
g45
sg26
S'09/10'
p182
sg28
S'Ben Roethlisberger'
p183
sg30
S'95.4'
p184
sg31
S'L21-28'
p185
sg32
S'2015'
p186
ssg47
(dp187
g5
S'24'
p188
sg7
g47
sg9
S'--'
p189
sg10
S'83.3'
p190
sg11
S'--'
p191
sg12
S'192'
p192
sg13
S'8.0'
p193
sg14
S'--'
p194
sg15
S'@STL'
p195
sg16
g45
sg17
S'20'
p196
sg18
S'22'
p197
sg19
S'--'
p198
sg20
g45
sg21
S'--'
p199
sg22
S'--'
p200
sg23
g49
sg24
g47
sg25
g45
sg26
S'09/27'
p201
sg28
S'Ben Roethlisberger'
p202
sg30
S'82.6'
p203
sg31
S'W12-6'
p204
sg32
S'2015'
p205
ssg40
(dp206
g5
S'27'
p207
sg7
g40
sg9
S'-1.0'
p208
sg10
S'77.8'
p209
sg11
g45
sg12
S'369'
p210
sg13
S'13.7'
p211
sg14
S'--'
p212
sg15
S'SF'
p213
sg16
g45
sg17
S'21'
p214
sg18
g49
sg19
S'-1'
p215
sg20
g45
sg21
S'--'
p216
sg22
g49
sg23
g47
sg24
g49
sg25
g49
sg26
S'09/20'
p217
sg28
S'Ben Roethlisberger'
p218
sg30
S'155.8'
p219
sg31
S'W43-18'
p220
sg32
S'2015'
p221
ssg81
(dp222
g5
S'--'
p223
sg7
g81
sg9
S'--'
p224
sg10
S'--'
p225
sg11
S'--'
p226
sg12
S'--'
p227
sg13
S'--'
p228
sg14
S'--'
p229
sg15
S'@SD'
p230
sg16
g49
sg17
S'--'
p231
sg18
S'--'
p232
sg19
S'--'
p233
sg20
g49
sg21
S'--'
p234
sg22
S'--'
p235
sg23
S'--'
p236
sg24
S'--'
p237
sg25
S'--'
p238
sg26
S'10/12'
p239
sg28
S'Ben Roethlisberger'
p240
sg30
S'0.0'
p241
sg31
S'W24-20'
p242
sg32
S'2015'
p243
ssg69
(dp244
g5
S'--'
p245
sg7
g69
sg9
S'--'
p246
sg10
S'--'
p247
sg11
S'--'
p248
sg12
S'--'
p249
sg13
S'--'
p250
sg14
S'--'
p251
sg15
S'BAL'
p252
sg16
g49
sg17
S'--'
p253
sg18
S'--'
p254
sg19
S'--'
p255
sg20
g49
sg21
S'--'
p256
sg22
S'--'
p257
sg23
S'--'
p258
sg24
S'--'
p259
sg25
S'--'
p260
sg26
S'10/01'
p261
sg28
S'Ben Roethlisberger'
p262
sg30
S'0.0'
p263
sg31
S'L20-23'
p264
sg32
S'2015'
p265
ssS'7'
p266
(dp267
g5
S'--'
p268
sg7
g266
sg9
S'--'
p269
sg10
S'--'
p270
sg11
S'--'
p271
sg12
S'--'
p272
sg13
S'--'
p273
sg14
S'--'
p274
sg15
S'@KC'
p275
sg16
g49
sg17
S'--'
p276
sg18
S'--'
p277
sg19
S'--'
p278
sg20
g49
sg21
S'--'
p279
sg22
S'--'
p280
sg23
S'--'
p281
sg24
S'--'
p282
sg25
S'--'
p283
sg26
S'10/25'
p284
sg28
S'Ben Roethlisberger'
p285
sg30
S'0.0'
p286
sg31
S'L13-23'
p287
sg32
S'2015'
p288
ssg124
(dp289
g5
S'--'
p290
sg7
g124
sg9
S'--'
p291
sg10
S'--'
p292
sg11
S'--'
p293
sg12
S'--'
p294
sg13
S'--'
p295
sg14
S'--'
p296
sg15
S'ARI'
p297
sg16
g49
sg17
S'--'
p298
sg18
S'--'
p299
sg19
S'--'
p300
sg20
g49
sg21
S'--'
p301
sg22
S'--'
p302
sg23
S'--'
p303
sg24
S'--'
p304
sg25
S'--'
p305
sg26
S'10/18'
p306
sg28
S'Ben Roethlisberger'
p307
sg30
S'0.0'
p308
sg31
S'W25-13'
p309
sg32
S'2015'
p310
ssS'9'
p311
(dp312
g5
S'44'
p313
sg7
g311
sg9
S'--'
p314
sg10
S'54.5'
p315
sg11
S'--'
p316
sg12
S'334'
p317
sg13
S'7.6'
p318
sg14
S'--'
p319
sg15
S'OAK'
p320
sg16
g45
sg17
S'24'
p321
sg18
S'11'
p322
sg19
S'--'
p323
sg20
g45
sg21
S'--'
p324
sg22
S'--'
p325
sg23
g40
sg24
g45
sg25
g45
sg26
S'11/08'
p326
sg28
S'Ben Roethlisberger'
p327
sg30
S'84.8'
p328
sg31
S'W38-35'
p329
sg32
S'2015'
p330
ssS'8'
p331
(dp332
g5
S'45'
p333
sg7
g331
sg9
S'--'
p334
sg10
S'62.2'
p335
sg11
S'--'
p336
sg12
S'262'
p337
sg13
S'5.8'
p338
sg14
S'--'
p339
sg15
S'CIN'
p340
sg16
g45
sg17
S'28'
p341
sg18
S'22'
p342
sg19
S'--'
p343
sg20
g45
sg21
S'--'
p344
sg22
S'--'
p345
sg23
g45
sg24
g47
sg25
g47
sg26
S'11/01'
p346
sg28
S'Ben Roethlisberger'
p347
sg30
S'57.8'
p348
sg31
S'L10-16'
p349
sg32
S'2015'
p350
sssS'2014'
p351
(dp352
g3
(dp353
g5
S'32'
p354
sg7
S'11'
p355
sg9
S'0.7'
p356
sg10
S'65.6'
p357
sg11
g47
sg12
S'207'
p358
sg13
S'6.5'
p359
sg14
S'--'
p360
sg15
S'@TEN'
p361
sg16
g45
sg17
S'21'
p362
sg18
S'27'
p363
sg19
g40
sg20
g45
sg21
S'--'
p364
sg22
g49
sg23
g45
sg24
g81
sg25
g45
sg26
S'11/17'
p365
sg28
S'Ben Roethlisberger'
p366
sg30
S'81.1'
p367
sg31
S'W27-24'
p368
sg32
S'2014'
p369
ssg34
(dp370
g5
S'43'
p371
sg7
S'10'
p372
sg9
S'0.0'
p373
sg10
S'69.8'
p374
sg11
g45
sg12
S'343'
p375
sg13
S'8.0'
p376
sg14
g45
sg15
S'@NYJ'
p377
sg16
g45
sg17
S'30'
p378
sg18
S'17'
p379
sg19
g49
sg20
g45
sg21
g49
sg22
g49
sg23
g45
sg24
g40
sg25
g40
sg26
S'11/09'
p380
sg28
S'Ben Roethlisberger'
p381
sg30
S'81.8'
p382
sg31
S'L13-20'
p383
sg32
S'2014'
p384
ssg56
(dp385
g5
S'58'
p386
sg7
S'13'
p387
sg9
S'8.0'
p388
sg10
S'55.2'
p389
sg11
g45
sg12
S'435'
p390
sg13
S'7.5'
p391
sg14
S'--'
p392
sg15
S'NO'
p393
sg16
g45
sg17
S'32'
p394
sg18
g49
sg19
g331
sg20
g45
sg21
S'--'
p395
sg22
g49
sg23
g40
sg24
g45
sg25
g40
sg26
S'11/30'
p396
sg28
S'Ben Roethlisberger'
p397
sg30
S'76.4'
p398
sg31
S'L32-35'
p399
sg32
S'2014'
p400
ssg75
(dp401
g5
g6
sg7
S'12'
p402
sg9
g6
sg10
g6
sg11
g6
sg12
g6
sg13
g6
sg14
g6
sg15
g6
sg16
g6
sg17
g6
sg18
g6
sg19
g6
sg20
g6
sg21
g6
sg22
g6
sg23
g6
sg24
g6
sg25
g6
sg26
S'Bye'
p403
sg28
S'Ben Roethlisberger'
p404
sg30
g6
sg31
g6
sg32
S'2014'
p405
ssg93
(dp406
g5
S'35'
p407
sg7
S'15'
p408
sg9
S'-1.0'
p409
sg10
S'77.1'
p410
sg11
g40
sg12
S'360'
p411
sg13
S'10.3'
p412
sg14
S'--'
p413
sg15
S'@ATL'
p414
sg16
g45
sg17
S'27'
p415
sg18
g266
sg19
S'-2'
p416
sg20
g45
sg21
S'--'
p417
sg22
g49
sg23
g49
sg24
g45
sg25
g49
sg26
S'12/14'
p418
sg28
S'Ben Roethlisberger'
p419
sg30
S'109.2'
p420
sg31
S'W27-20'
p421
sg32
S'2014'
p422
ssg112
(dp423
g5
S'39'
p424
sg7
S'14'
p425
sg9
S'-1.0'
p426
sg10
S'64.1'
p427
sg11
g45
sg12
S'350'
p428
sg13
S'9.0'
p429
sg14
S'--'
p430
sg15
S'@CIN'
p431
sg16
g45
sg17
S'25'
p432
sg18
g49
sg19
S'-1'
p433
sg20
g45
sg21
S'--'
p434
sg22
g49
sg23
g47
sg24
g49
sg25
g49
sg26
S'12/07'
p435
sg28
S'Ben Roethlisberger'
p436
sg30
S'118.5'
p437
sg31
S'W42-21'
p438
sg32
S'2014'
p439
ssg131
(dp440
g5
S'38'
p441
sg7
S'17'
p442
sg9
S'0.8'
p443
sg10
S'63.2'
p444
sg11
g69
sg12
S'317'
p445
sg13
S'8.3'
p446
sg14
g40
sg15
S'CIN'
p447
sg16
g45
sg17
S'24'
p448
sg18
g49
sg19
g47
sg20
g45
sg21
g45
sg22
g49
sg23
g40
sg24
g49
sg25
g45
sg26
S'12/28'
p449
sg28
S'Ben Roethlisberger'
p450
sg30
S'96.1'
p451
sg31
S'W27-17'
p452
sg32
S'2014'
p453
ssg149
(dp454
g5
S'25'
p455
sg7
S'16'
p456
sg9
S'-1.0'
p457
sg10
S'72.0'
p458
sg11
g69
sg12
S'220'
p459
sg13
S'8.8'
p460
sg14
S'--'
p461
sg15
S'KC'
p462
sg16
g45
sg17
S'18'
p463
sg18
g124
sg19
S'-4'
p464
sg20
g45
sg21
S'--'
p465
sg22
g49
sg23
g45
sg24
g45
sg25
g49
sg26
S'12/21'
p466
sg28
S'Ben Roethlisberger'
p467
sg30
S'112.1'
p468
sg31
S'W20-12'
p469
sg32
S'2014'
p470
ssg45
(dp471
g5
S'34'
p472
sg7
g45
sg9
S'2.7'
p473
sg10
S'67.6'
p474
sg11
g47
sg12
S'365'
p475
sg13
S'10.7'
p476
sg14
g45
sg15
S'CLE'
p477
sg16
g45
sg17
S'23'
p478
sg18
S'14'
p479
sg19
g331
sg20
g45
sg21
g49
sg22
g49
sg23
g45
sg24
g47
sg25
g45
sg26
S'09/07'
p480
sg28
S'Ben Roethlisberger'
p481
sg30
S'100.7'
p482
sg31
S'W30-27'
p483
sg32
S'2014'
p484
ssg47
(dp485
g5
S'30'
p486
sg7
g47
sg9
S'1.0'
p487
sg10
S'73.3'
p488
sg11
g45
sg12
S'196'
p489
sg13
S'6.5'
p490
sg14
S'--'
p491
sg15
S'@CAR'
p492
sg16
g45
sg17
S'22'
p493
sg18
g124
sg19
g45
sg20
g45
sg21
S'--'
p494
sg22
g49
sg23
g40
sg24
g45
sg25
g49
sg26
S'09/21'
p495
sg28
S'Ben Roethlisberger'
p496
sg30
S'112.6'
p497
sg31
S'W37-19'
p498
sg32
S'2014'
p499
ssg40
(dp500
g5
S'37'
p501
sg7
g40
sg9
S'--'
p502
sg10
S'59.5'
p503
sg11
S'--'
p504
sg12
S'217'
p505
sg13
S'5.9'
p506
sg14
S'--'
p507
sg15
S'@BAL'
p508
sg16
g45
sg17
S'22'
p509
sg18
S'15'
p510
sg19
S'--'
p511
sg20
g45
sg21
S'--'
p512
sg22
S'--'
p513
sg23
g49
sg24
g40
sg25
g45
sg26
S'09/11'
p514
sg28
S'Ben Roethlisberger'
p515
sg30
S'64.8'
p516
sg31
S'L6-26'
p517
sg32
S'2014'
p518
ssg81
(dp519
g5
S'36'
p520
sg7
g81
sg9
S'-0.7'
p521
sg10
S'72.2'
p522
sg11
g47
sg12
S'273'
p523
sg13
S'7.6'
p524
sg14
g45
sg15
S'@JAC'
p525
sg16
g45
sg17
S'26'
p526
sg18
S'12'
p527
sg19
S'-2'
p528
sg20
g45
sg21
g45
sg22
g49
sg23
g45
sg24
g69
sg25
g49
sg26
S'10/05'
p529
sg28
S'Ben Roethlisberger'
p530
sg30
S'103.1'
p531
sg31
S'W17-9'
p532
sg32
S'2014'
p533
ssg69
(dp534
g5
S'40'
p535
sg7
g69
sg9
S'2.0'
p536
sg10
S'72.5'
p537
sg11
g40
sg12
S'314'
p538
sg13
S'7.9'
p539
sg14
g40
sg15
S'TB'
p540
sg16
g45
sg17
S'29'
p541
sg18
S'26'
p542
sg19
g69
sg20
g45
sg21
g45
sg22
g49
sg23
g47
sg24
g81
sg25
g49
sg26
S'09/28'
p543
sg28
S'Ben Roethlisberger'
p544
sg30
S'120.2'
p545
sg31
S'L24-27'
p546
sg32
S'2014'
p547
ssg266
(dp548
g5
S'33'
p549
sg7
g266
sg9
S'0.8'
p550
sg10
S'69.7'
p551
sg11
g69
sg12
S'265'
p552
sg13
S'8.0'
p553
sg14
g45
sg15
S'HOU'
p554
sg16
g45
sg17
S'23'
p555
sg18
S'16'
p556
sg19
g47
sg20
g45
sg21
g45
sg22
g49
sg23
g40
sg24
g47
sg25
g49
sg26
S'10/20'
p557
sg28
S'Ben Roethlisberger'
p558
sg30
S'113.8'
p559
sg31
S'W30-23'
p560
sg32
S'2014'
p561
ssg124
(dp562
g5
S'42'
p563
sg7
g124
sg9
S'7.0'
p564
sg10
S'50.0'
p565
sg11
g45
sg12
S'228'
p566
sg13
S'5.4'
p567
sg14
S'--'
p568
sg15
S'@CLE'
p569
sg16
g45
sg17
S'21'
p570
sg18
g266
sg19
g266
sg20
g45
sg21
S'--'
p571
sg22
g49
sg23
g45
sg24
g40
sg25
g45
sg26
S'10/12'
p572
sg28
S'Ben Roethlisberger'
p573
sg30
S'64.4'
p574
sg31
S'L10-31'
p575
sg32
S'2014'
p576
ssg311
(dp577
g5
S'37'
p578
sg7
g311
sg9
S'0.5'
p579
sg10
S'67.6'
p580
sg11
g40
sg12
S'340'
p581
sg13
S'9.2'
p582
sg14
g45
sg15
S'BAL'
p583
sg16
g45
sg17
S'25'
p584
sg18
S'19'
p585
sg19
g45
sg20
g45
sg21
g45
sg22
g49
sg23
g124
sg24
g47
sg25
g49
sg26
S'11/02'
p586
sg28
S'Ben Roethlisberger'
p587
sg30
S'136.3'
p588
sg31
S'W43-23'
p589
sg32
S'2014'
p590
ssg331
(dp591
g5
S'49'
p592
sg7
g331
sg9
S'-1.0'
p593
sg10
S'81.6'
p594
sg11
g45
sg12
S'522'
p595
sg13
S'10.7'
p596
sg14
S'--'
p597
sg15
S'IND'
p598
sg16
g45
sg17
S'40'
p599
sg18
g49
sg19
S'-1'
p600
sg20
g45
sg21
S'--'
p601
sg22
g49
sg23
g124
sg24
g49
sg25
g49
sg26
S'10/26'
p602
sg28
S'Ben Roethlisberger'
p603
sg30
S'150.6'
p604
sg31
S'W51-34'
p605
sg32
S'2014'
p606
sssS'2011'
p607
(dp608
g3
(dp609
g5
g6
sg7
S'11'
p610
sg9
g6
sg10
g6
sg11
g6
sg12
g6
sg13
g6
sg14
g6
sg15
g6
sg16
g6
sg17
g6
sg18
g6
sg19
g6
sg20
g6
sg21
g6
sg22
g6
sg23
g6
sg24
g6
sg25
g6
sg26
S'Bye'
p611
sg28
S'Ben Roethlisberger'
p612
sg30
g6
sg31
g6
sg32
S'2011'
p613
ssg34
(dp614
g5
S'33'
p615
sg7
S'10'
p616
sg9
S'-0.7'
p617
sg10
S'63.6'
p618
sg11
g47
sg12
S'245'
p619
sg13
S'7.4'
p620
sg14
S'--'
p621
sg15
S'@CIN'
p622
sg16
g45
sg17
S'21'
p623
sg18
S'22'
p624
sg19
S'-2'
p625
sg20
g45
sg21
S'--'
p626
sg22
g49
sg23
g45
sg24
g81
sg25
g45
sg26
S'11/13'
p627
sg28
S'Ben Roethlisberger'
p628
sg30
S'83.5'
p629
sg31
S'W24-17'
p630
sg32
S'2011'
p631
ssg56
(dp632
g5
S'23'
p633
sg7
S'13'
p634
sg9
S'--'
p635
sg10
S'65.2'
p636
sg11
S'--'
p637
sg12
S'176'
p638
sg13
S'7.7'
p639
sg14
S'--'
p640
sg15
S'CIN'
p641
sg16
g45
sg17
S'15'
p642
sg18
S'13'
p643
sg19
S'--'
p644
sg20
g45
sg21
S'--'
p645
sg22
S'--'
p646
sg23
g40
sg24
g40
sg25
g49
sg26
S'12/04'
p647
sg28
S'Ben Roethlisberger'
p648
sg30
S'117.3'
p649
sg31
S'W35-7'
p650
sg32
S'2011'
p651
ssg75
(dp652
g5
S'31'
p653
sg7
S'12'
p654
sg9
S'2.0'
p655
sg10
S'67.7'
p656
sg11
g69
sg12
S'193'
p657
sg13
S'6.2'
p658
sg14
S'--'
p659
sg15
S'@KC'
p660
sg16
g45
sg17
S'21'
p661
sg18
S'11'
p662
sg19
g331
sg20
g45
sg21
S'--'
p663
sg22
g49
sg23
g45
sg24
g45
sg25
g45
sg26
S'11/27'
p664
sg28
S'Ben Roethlisberger'
p665
sg30
S'81.8'
p666
sg31
S'W13-9'
p667
sg32
S'2011'
p668
ssg93
(dp669
g5
S'44'
p670
sg7
S'15'
p671
sg9
S'0.0'
p672
sg10
S'56.8'
p673
sg11
g45
sg12
S'330'
p674
sg13
S'7.5'
p675
sg14
g40
sg15
S'@SF'
p676
sg16
g45
sg17
S'25'
p677
sg18
S'25'
p678
sg19
g49
sg20
g45
sg21
g45
sg22
g49
sg23
g49
sg24
g47
sg25
g47
sg26
S'12/19'
p679
sg28
S'Ben Roethlisberger'
p680
sg30
S'52.3'
p681
sg31
S'L3-20'
p682
sg32
S'2011'
p683
ssg112
(dp684
g5
S'21'
p685
sg7
S'14'
p686
sg9
S'--'
p687
sg10
S'76.2'
p688
sg11
S'--'
p689
sg12
S'280'
p690
sg13
S'13.3'
p691
sg14
S'--'
p692
sg15
S'CLE'
p693
sg16
g45
sg17
S'16'
p694
sg18
g81
sg19
S'--'
p695
sg20
g45
sg21
S'--'
p696
sg22
S'--'
p697
sg23
g40
sg24
g45
sg25
g45
sg26
S'12/08'
p698
sg28
S'Ben Roethlisberger'
p699
sg30
S'129.6'
p700
sg31
S'W14-3'
p701
sg32
S'2011'
p702
ssg131
(dp703
g5
S'40'
p704
sg7
S'17'
p705
sg9
S'--'
p706
sg10
S'57.5'
p707
sg11
S'--'
p708
sg12
S'221'
p709
sg13
S'5.5'
p710
sg14
S'--'
p711
sg15
S'@CLE'
p712
sg16
g45
sg17
S'23'
p713
sg18
S'22'
p714
sg19
S'--'
p715
sg20
g45
sg21
S'--'
p716
sg22
S'--'
p717
sg23
g49
sg24
g40
sg25
g49
sg26
S'01/01'
p718
sg28
S'Ben Roethlisberger'
p719
sg30
S'73.0'
p720
sg31
S'W13-9'
p721
sg32
S'2011'
p722
ssg149
(dp723
g5
S'--'
p724
sg7
S'16'
p725
sg9
S'--'
p726
sg10
S'--'
p727
sg11
S'--'
p728
sg12
S'--'
p729
sg13
S'--'
p730
sg14
S'--'
p731
sg15
S'STL'
p732
sg16
g49
sg17
S'--'
p733
sg18
S'--'
p734
sg19
S'--'
p735
sg20
g49
sg21
S'--'
p736
sg22
S'--'
p737
sg23
S'--'
p738
sg24
S'--'
p739
sg25
S'--'
p740
sg26
S'12/24'
p741
sg28
S'Ben Roethlisberger'
p742
sg30
S'0.0'
p743
sg31
S'W27-0'
p744
sg32
S'2011'
p745
ssg45
(dp746
g5
S'41'
p747
sg7
g45
sg9
S'9.0'
p748
sg10
S'53.7'
p749
sg11
g45
sg12
S'280'
p750
sg13
S'6.8'
p751
sg14
g40
sg15
S'@BAL'
p752
sg16
g45
sg17
S'22'
p753
sg18
S'34'
p754
sg19
g311
sg20
g45
sg21
g40
sg22
g49
sg23
g45
sg24
g69
sg25
g47
sg26
S'09/11'
p755
sg28
S'Ben Roethlisberger'
p756
sg30
S'52.9'
p757
sg31
S'L7-35'
p758
sg32
S'2011'
p759
ssg47
(dp760
g5
S'37'
p761
sg7
g47
sg9
S'3.0'
p762
sg10
S'67.6'
p763
sg11
g81
sg12
S'364'
p764
sg13
S'9.8'
p765
sg14
g40
sg15
S'@IND'
p766
sg16
g45
sg17
S'25'
p767
sg18
S'23'
p768
sg19
S'15'
p769
sg20
g45
sg21
g40
sg22
g49
sg23
g45
sg24
g47
sg25
g45
sg26
S'09/25'
p770
sg28
S'Ben Roethlisberger'
p771
sg30
S'97.1'
p772
sg31
S'W23-20'
p773
sg32
S'2011'
p774
ssg40
(dp775
g5
S'30'
p776
sg7
g40
sg9
S'1.6'
p777
sg10
S'73.3'
p778
sg11
g81
sg12
S'298'
p779
sg13
S'9.9'
p780
sg14
S'--'
p781
sg15
S'SEA'
p782
sg16
g45
sg17
S'22'
p783
sg18
S'16'
p784
sg19
g331
sg20
g45
sg21
S'--'
p785
sg22
g49
sg23
g45
sg24
g40
sg25
g49
sg26
S'09/18'
p786
sg28
S'Ben Roethlisberger'
p787
sg30
S'115.7'
p788
sg31
S'W24-0'
p789
sg32
S'2011'
p790
ssg81
(dp791
g5
S'34'
p792
sg7
g81
sg9
S'--'
p793
sg10
S'70.6'
p794
sg11
S'--'
p795
sg12
S'228'
p796
sg13
S'6.7'
p797
sg14
S'--'
p798
sg15
S'TEN'
p799
sg16
g45
sg17
S'24'
p800
sg18
g69
sg19
S'--'
p801
sg20
g45
sg21
S'--'
p802
sg22
S'--'
p803
sg23
g81
sg24
g45
sg25
g45
sg26
S'10/09'
p804
sg28
S'Ben Roethlisberger'
p805
sg30
S'116.2'
p806
sg31
S'W38-17'
p807
sg32
S'2011'
p808
ssg69
(dp809
g5
S'30'
p810
sg7
g69
sg9
S'5.5'
p811
sg10
S'53.3'
p812
sg11
g40
sg12
S'206'
p813
sg13
S'6.9'
p814
sg14
S'--'
p815
sg15
S'@HOU'
p816
sg16
g45
sg17
S'16'
p817
sg18
S'28'
p818
sg19
S'11'
p819
sg20
g45
sg21
S'--'
p820
sg22
g49
sg23
g49
sg24
g81
sg25
g45
sg26
S'10/02'
p821
sg28
S'Ben Roethlisberger'
p822
sg30
S'61.2'
p823
sg31
S'L10-17'
p824
sg32
S'2011'
p825
ssg266
(dp826
g5
S'39'
p827
sg7
g266
sg9
S'-1.0'
p828
sg10
S'66.7'
p829
sg11
g40
sg12
S'361'
p830
sg13
S'9.3'
p831
sg14
S'--'
p832
sg15
S'@ARI'
p833
sg16
g45
sg17
S'26'
p834
sg18
g266
sg19
S'-2'
p835
sg20
g45
sg21
S'--'
p836
sg22
g49
sg23
g47
sg24
g40
sg25
g49
sg26
S'10/23'
p837
sg28
S'Ben Roethlisberger'
p838
sg30
S'121.8'
p839
sg31
S'W32-20'
p840
sg32
S'2011'
p841
ssg124
(dp842
g5
S'23'
p843
sg7
g124
sg9
S'3.0'
p844
sg10
S'52.2'
p845
sg11
g47
sg12
S'200'
p846
sg13
S'8.7'
p847
sg14
g45
sg15
S'JAC'
p848
sg16
g45
sg17
S'12'
p849
sg18
S'15'
p850
sg19
g311
sg20
g45
sg21
g49
sg22
g49
sg23
g45
sg24
g47
sg25
g49
sg26
S'10/16'
p851
sg28
S'Ben Roethlisberger'
p852
sg30
S'96.3'
p853
sg31
S'W17-13'
p854
sg32
S'2011'
p855
ssg311
(dp856
g5
S'37'
p857
sg7
g311
sg9
S'4.3'
p858
sg10
S'54.1'
p859
sg11
g47
sg12
S'330'
p860
sg13
S'8.9'
p861
sg14
S'--'
p862
sg15
S'BAL'
p863
sg16
g45
sg17
S'20'
p864
sg18
g331
sg19
S'13'
p865
sg20
g45
sg21
S'--'
p866
sg22
g49
sg23
g45
sg24
g45
sg25
g45
sg26
S'11/06'
p867
sg28
S'Ben Roethlisberger'
p868
sg30
S'82.0'
p869
sg31
S'L20-23'
p870
sg32
S'2011'
p871
ssg331
(dp872
g5
S'50'
p873
sg7
g331
sg9
S'0.5'
p874
sg10
S'72.0'
p875
sg11
g40
sg12
S'365'
p876
sg13
S'7.3'
p877
sg14
g45
sg15
S'NE'
p878
sg16
g45
sg17
S'36'
p879
sg18
S'36'
p880
sg19
g45
sg20
g45
sg21
g49
sg22
g49
sg23
g40
sg24
g81
sg25
g45
sg26
S'10/30'
p881
sg28
S'Ben Roethlisberger'
p882
sg30
S'97.5'
p883
sg31
S'W25-17'
p884
sg32
S'2011'
p885
sssS'2010'
p886
(dp887
g3
(dp888
g5
S'29'
p889
sg7
S'11'
p890
sg9
S'18.3'
p891
sg10
S'62.1'
p892
sg11
g47
sg12
S'275'
p893
sg13
S'9.5'
p894
sg14
S'--'
p895
sg15
S'OAK'
p896
sg16
g45
sg17
S'18'
p897
sg18
g124
sg19
S'55'
p898
sg20
g45
sg21
S'--'
p899
sg22
g45
sg23
g47
sg24
g40
sg25
g49
sg26
S'11/21'
p900
sg28
S'Ben Roethlisberger'
p901
sg30
S'127.8'
p902
sg31
S'W35-3'
p903
sg32
S'2010'
p904
ssg34
(dp905
g5
S'49'
p906
sg7
S'10'
p907
sg9
S'12.0'
p908
sg10
S'61.2'
p909
sg11
g45
sg12
S'387'
p910
sg13
S'7.9'
p911
sg14
S'--'
p912
sg15
S'NE'
p913
sg16
g45
sg17
S'30'
p914
sg18
S'38'
p915
sg19
S'12'
p916
sg20
g45
sg21
S'--'
p917
sg22
g49
sg23
g47
sg24
g81
sg25
g45
sg26
S'11/14'
p918
sg28
S'Ben Roethlisberger'
p919
sg30
S'97.9'
p920
sg31
S'L26-39'
p921
sg32
S'2010'
p922
ssg56
(dp923
g5
S'38'
p924
sg7
S'13'
p925
sg9
S'-1.0'
p926
sg10
S'57.9'
p927
sg11
g45
sg12
S'253'
p928
sg13
S'6.7'
p929
sg14
S'--'
p930
sg15
S'@BAL'
p931
sg16
g45
sg17
S'22'
p932
sg18
S'19'
p933
sg19
S'-1'
p934
sg20
g45
sg21
S'--'
p935
sg22
g49
sg23
g45
sg24
g47
sg25
g45
sg26
S'12/05'
p936
sg28
S'Ben Roethlisberger'
p937
sg30
S'75.9'
p938
sg31
S'W13-10'
p939
sg32
S'2010'
p940
ssg75
(dp941
g5
S'33'
p942
sg7
S'12'
p943
sg9
S'18.0'
p944
sg10
S'60.6'
p945
sg11
g45
sg12
S'246'
p946
sg13
S'7.5'
p947
sg14
S'--'
p948
sg15
S'@BUF'
p949
sg16
g45
sg17
S'20'
p950
sg18
S'26'
p951
sg19
S'18'
p952
sg20
g45
sg21
S'--'
p953
sg22
g49
sg23
g49
sg24
g81
sg25
g49
sg26
S'11/28'
p954
sg28
S'Ben Roethlisberger'
p955
sg30
S'83.6'
p956
sg31
S'W19-16'
p957
sg32
S'2010'
p958
ssg93
(dp959
g5
S'44'
p960
sg7
S'15'
p961
sg9
S'12.5'
p962
sg10
S'52.3'
p963
sg11
g40
sg12
S'264'
p964
sg13
S'6.0'
p965
sg14
g40
sg15
S'NYJ'
p966
sg16
g45
sg17
S'23'
p967
sg18
S'32'
p968
sg19
S'25'
p969
sg20
g45
sg21
g49
sg22
g49
sg23
g45
sg24
g47
sg25
g49
sg26
S'12/19'
p970
sg28
S'Ben Roethlisberger'
p971
sg30
S'78.2'
p972
sg31
S'L17-22'
p973
sg32
S'2010'
p974
ssg112
(dp975
g5
S'33'
p976
sg7
S'14'
p977
sg9
S'7.7'
p978
sg10
S'63.6'
p979
sg11
g47
sg12
S'258'
p980
sg13
S'7.8'
p981
sg14
S'--'
p982
sg15
S'CIN'
p983
sg16
g45
sg17
S'21'
p984
sg18
S'27'
p985
sg19
S'23'
p986
sg20
g45
sg21
S'--'
p987
sg22
g49
sg23
g49
sg24
g69
sg25
g49
sg26
S'12/12'
p988
sg28
S'Ben Roethlisberger'
p989
sg30
S'87.7'
p990
sg31
S'W23-7'
p991
sg32
S'2010'
p992
ssg131
(dp993
g5
S'22'
p994
sg7
S'17'
p995
sg9
S'6.0'
p996
sg10
S'68.2'
p997
sg11
g69
sg12
S'280'
p998
sg13
S'12.7'
p999
sg14
S'--'
p1000
sg15
S'@CLE'
p1001
sg16
g45
sg17
S'15'
p1002
sg18
g49
sg19
S'24'
p1003
sg20
g45
sg21
S'--'
p1004
sg22
g49
sg23
g40
sg24
g49
sg25
g49
sg26
S'01/02'
p1005
sg28
S'Ben Roethlisberger'
p1006
sg30
S'141.3'
p1007
sg31
S'W41-9'
p1008
sg32
S'2010'
p1009
ssg149
(dp1010
g5
S'32'
p1011
sg7
S'16'
p1012
sg9
S'0.3'
p1013
sg10
S'68.8'
p1014
sg11
g266
sg12
S'320'
p1015
sg13
S'10.0'
p1016
sg14
g40
sg15
S'CAR'
p1017
sg16
g45
sg17
S'22'
p1018
sg18
S'27'
p1019
sg19
g40
sg20
g45
sg21
g40
sg22
g45
sg23
g45
sg24
g47
sg25
g49
sg26
S'12/23'
p1020
sg28
S'Ben Roethlisberger'
p1021
sg30
S'111.5'
p1022
sg31
S'W27-3'
p1023
sg32
S'2010'
p1024
ssg81
(dp1025
g5
g6
sg7
g81
sg9
g6
sg10
g6
sg11
g6
sg12
g6
sg13
g6
sg14
g6
sg15
g6
sg16
g6
sg17
g6
sg18
g6
sg19
g6
sg20
g6
sg21
g6
sg22
g6
sg23
g6
sg24
g6
sg25
g6
sg26
S'Bye'
p1026
sg28
S'Ben Roethlisberger'
p1027
sg30
g6
sg31
g6
sg32
S'2010'
p1028
ssg266
(dp1029
g5
S'27'
p1030
sg7
g266
sg9
S'0.2'
p1031
sg10
S'70.4'
p1032
sg11
g81
sg12
S'302'
p1033
sg13
S'11.2'
p1034
sg14
g47
sg15
S'@MIA'
p1035
sg16
g45
sg17
S'19'
p1036
sg18
S'12'
p1037
sg19
g45
sg20
g45
sg21
g45
sg22
g49
sg23
g40
sg24
g47
sg25
g49
sg26
S'10/24'
p1038
sg28
S'Ben Roethlisberger'
p1039
sg30
S'132.0'
p1040
sg31
S'W23-22'
p1041
sg32
S'2010'
p1042
ssg124
(dp1043
g5
S'27'
p1044
sg7
g124
sg9
S'5.0'
p1045
sg10
S'59.3'
p1046
sg11
g45
sg12
S'257'
p1047
sg13
S'9.5'
p1048
sg14
S'--'
p1049
sg15
S'CLE'
p1050
sg16
g45
sg17
S'16'
p1051
sg18
g49
sg19
g81
sg20
g45
sg21
S'--'
p1052
sg22
g49
sg23
g47
sg24
g49
sg25
g45
sg26
S'10/17'
p1053
sg28
S'Ben Roethlisberger'
p1054
sg30
S'112.7'
p1055
sg31
S'W28-10'
p1056
sg32
S'2010'
p1057
ssg311
(dp1058
g5
S'27'
p1059
sg7
g311
sg9
S'2.6'
p1060
sg10
S'63.0'
p1061
sg11
g81
sg12
S'163'
p1062
sg13
S'6.0'
p1063
sg14
S'--'
p1064
sg15
S'@CIN'
p1065
sg16
g45
sg17
S'17'
p1066
sg18
g311
sg19
S'13'
p1067
sg20
g45
sg21
S'--'
p1068
sg22
g49
sg23
g45
sg24
g45
sg25
g45
sg26
S'11/08'
p1069
sg28
S'Ben Roethlisberger'
p1070
sg30
S'76.6'
p1071
sg31
S'W27-21'
p1072
sg32
S'2010'
p1073
ssg331
(dp1074
g5
S'28'
p1075
sg7
g331
sg9
S'-1.0'
p1076
sg10
S'60.7'
p1077
sg11
g45
sg12
S'195'
p1078
sg13
S'7.0'
p1079
sg14
S'--'
p1080
sg15
S'@NO'
p1081
sg16
g45
sg17
S'17'
p1082
sg18
S'24'
p1083
sg19
S'-1'
p1084
sg20
g45
sg21
S'--'
p1085
sg22
g49
sg23
g49
sg24
g47
sg25
g45
sg26
S'10/31'
p1086
sg28
S'Ben Roethlisberger'
p1087
sg30
S'66.8'
p1088
sg31
S'L10-20'
p1089
sg32
S'2010'
p1090
sssS'2013'
p1091
(dp1092
g3
(dp1093
g5
S'45'
p1094
sg7
S'11'
p1095
sg9
S'2.0'
p1096
sg10
S'64.4'
p1097
sg11
g124
sg12
S'367'
p1098
sg13
S'8.2'
p1099
sg14
S'--'
p1100
sg15
S'DET'
p1101
sg16
g45
sg17
S'29'
p1102
sg18
g311
sg19
S'12'
p1103
sg20
g45
sg21
S'--'
p1104
sg22
g49
sg23
g69
sg24
g45
sg25
g49
sg26
S'11/17'
p1105
sg28
S'Ben Roethlisberger'
p1106
sg30
S'119.4'
p1107
sg31
S'W37-27'
p1108
sg32
S'2013'
p1109
ssg34
(dp1110
g5
S'30'
p1111
sg7
S'10'
p1112
sg9
S'--'
p1113
sg10
S'60.0'
p1114
sg11
S'--'
p1115
sg12
S'204'
p1116
sg13
S'6.8'
p1117
sg14
g45
sg15
S'BUF'
p1118
sg16
g45
sg17
S'18'
p1119
sg18
S'40'
p1120
sg19
S'--'
p1121
sg20
g45
sg21
g49
sg22
S'--'
p1122
sg23
g45
sg24
g69
sg25
g45
sg26
S'11/10'
p1123
sg28
S'Ben Roethlisberger'
p1124
sg30
S'77.6'
p1125
sg31
S'W23-10'
p1126
sg32
S'2013'
p1127
ssg56
(dp1128
g5
S'44'
p1129
sg7
S'13'
p1130
sg9
S'11.0'
p1131
sg10
S'63.6'
p1132
sg11
g45
sg12
S'257'
p1133
sg13
S'5.8'
p1134
sg14
S'--'
p1135
sg15
S'@BAL'
p1136
sg16
g45
sg17
S'28'
p1137
sg18
g49
sg19
S'11'
p1138
sg20
g45
sg21
S'--'
p1139
sg22
g49
sg23
g40
sg24
g49
sg25
g49
sg26
S'11/28'
p1140
sg28
S'Ben Roethlisberger'
p1141
sg30
S'94.6'
p1142
sg31
S'L20-22'
p1143
sg32
S'2013'
p1144
ssg75
(dp1145
g5
S'34'
p1146
sg7
S'12'
p1147
sg9
S'-1.5'
p1148
sg10
S'64.7'
p1149
sg11
g40
sg12
S'217'
p1150
sg13
S'6.4'
p1151
sg14
S'--'
p1152
sg15
S'@CLE'
p1153
sg16
g45
sg17
S'22'
p1154
sg18
g49
sg19
S'-3'
p1155
sg20
g45
sg21
S'--'
p1156
sg22
g49
sg23
g40
sg24
g49
sg25
g49
sg26
S'11/24'
p1157
sg28
S'Ben Roethlisberger'
p1158
sg30
S'102.2'
p1159
sg31
S'W27-11'
p1160
sg32
S'2013'
p1161
ssg93
(dp1162
g5
S'25'
p1163
sg7
S'15'
p1164
sg9
S'--'
p1165
sg10
S'80.0'
p1166
sg11
S'--'
p1167
sg12
S'191'
p1168
sg13
S'7.6'
p1169
sg14
S'--'
p1170
sg15
S'CIN'
p1171
sg16
g45
sg17
S'20'
p1172
sg18
g266
sg19
S'--'
p1173
sg20
g45
sg21
S'--'
p1174
sg22
S'--'
p1175
sg23
g45
sg24
g45
sg25
g45
sg26
S'12/15'
p1176
sg28
S'Ben Roethlisberger'
p1177
sg30
S'95.2'
p1178
sg31
S'W30-20'
p1179
sg32
S'2013'
p1180
ssg112
(dp1181
g5
S'39'
p1182
sg7
S'14'
p1183
sg9
S'8.0'
p1184
sg10
S'59.0'
p1185
sg11
g45
sg12
S'349'
p1186
sg13
S'8.9'
p1187
sg14
g45
sg15
S'MIA'
p1188
sg16
g45
sg17
S'23'
p1189
sg18
S'21'
p1190
sg19
g331
sg20
g45
sg21
g45
sg22
g49
sg23
g47
sg24
g47
sg25
g49
sg26
S'12/08'
p1191
sg28
S'Ben Roethlisberger'
p1192
sg30
S'114.2'
p1193
sg31
S'L28-34'
p1194
sg32
S'2013'
p1195
ssg131
(dp1196
g5
S'31'
p1197
sg7
S'17'
p1198
sg9
S'2.3'
p1199
sg10
S'61.3'
p1200
sg11
g69
sg12
S'179'
p1201
sg13
S'5.8'
p1202
sg14
g45
sg15
S'CLE'
p1203
sg16
g45
sg17
S'19'
p1204
sg18
g266
sg19
g311
sg20
g45
sg21
g49
sg22
g49
sg23
g45
sg24
g45
sg25
g40
sg26
S'12/29'
p1205
sg28
S'Ben Roethlisberger'
p1206
sg30
S'61.1'
p1207
sg31
S'W20-7'
p1208
sg32
S'2013'
p1209
ssg149
(dp1210
g5
S'28'
p1211
sg7
S'16'
p1212
sg9
S'13.0'
p1213
sg10
S'57.1'
p1214
sg11
g45
sg12
S'167'
p1215
sg13
S'6.0'
p1216
sg14
S'--'
p1217
sg15
S'@GB'
p1218
sg16
g45
sg17
S'16'
p1219
sg18
g81
sg19
S'13'
p1220
sg20
g45
sg21
S'--'
p1221
sg22
g45
sg23
g40
sg24
g45
sg25
g45
sg26
S'12/22'
p1222
sg28
S'Ben Roethlisberger'
p1223
sg30
S'83.5'
p1224
sg31
S'W38-31'
p1225
sg32
S'2013'
p1226
ssg45
(dp1227
g5
S'33'
p1228
sg7
g45
sg9
S'0.0'
p1229
sg10
S'63.6'
p1230
sg11
g45
sg12
S'191'
p1231
sg13
S'5.8'
p1232
sg14
g45
sg15
S'TEN'
p1233
sg16
g45
sg17
S'21'
p1234
sg18
S'28'
p1235
sg19
g49
sg20
g45
sg21
g45
sg22
g49
sg23
g45
sg24
g81
sg25
g45
sg26
S'09/08'
p1236
sg28
S'Ben Roethlisberger'
p1237
sg30
S'76.7'
p1238
sg31
S'L9-16'
p1239
sg32
S'2013'
p1240
ssg47
(dp1241
g5
S'41'
p1242
sg7
g47
sg9
S'3.5'
p1243
sg10
S'63.4'
p1244
sg11
g40
sg12
S'406'
p1245
sg13
S'9.9'
p1246
sg14
g47
sg15
S'CHI'
p1247
sg16
g45
sg17
S'26'
p1248
sg18
S'27'
p1249
sg19
g266
sg20
g45
sg21
g40
sg22
g49
sg23
g40
sg24
g47
sg25
g40
sg26
S'09/22'
p1250
sg28
S'Ben Roethlisberger'
p1251
sg30
S'92.1'
p1252
sg31
S'L23-40'
p1253
sg32
S'2013'
p1254
ssg40
(dp1255
g5
S'37'
p1256
sg7
g40
sg9
S'6.0'
p1257
sg10
S'54.1'
p1258
sg11
g45
sg12
S'251'
p1259
sg13
S'6.8'
p1260
sg14
S'--'
p1261
sg15
S'@CIN'
p1262
sg16
g45
sg17
S'20'
p1263
sg18
S'17'
p1264
sg19
g124
sg20
g45
sg21
S'--'
p1265
sg22
g49
sg23
g45
sg24
g40
sg25
g45
sg26
S'09/16'
p1266
sg28
S'Ben Roethlisberger'
p1267
sg30
S'73.1'
p1268
sg31
S'L10-20'
p1269
sg32
S'2013'
p1270
ssg81
(dp1271
g5
g6
sg7
g81
sg9
g6
sg10
g6
sg11
g6
sg12
g6
sg13
g6
sg14
g6
sg15
g6
sg16
g6
sg17
g6
sg18
g6
sg19
g6
sg20
g6
sg21
g6
sg22
g6
sg23
g6
sg24
g6
sg25
g6
sg26
S'Bye'
p1272
sg28
S'Ben Roethlisberger'
p1273
sg30
g6
sg31
g6
sg32
S'2013'
p1274
ssg69
(dp1275
g5
S'51'
p1276
sg7
g69
sg9
S'--'
p1277
sg10
S'70.6'
p1278
sg11
S'--'
p1279
sg12
S'383'
p1280
sg13
S'7.5'
p1281
sg14
g45
sg15
S'@MIN'
p1282
sg16
g45
sg17
S'36'
p1283
sg18
S'26'
p1284
sg19
S'--'
p1285
sg20
g45
sg21
g45
sg22
S'--'
p1286
sg23
g45
sg24
g81
sg25
g45
sg26
S'09/29'
p1287
sg28
S'Ben Roethlisberger'
p1288
sg30
S'90.6'
p1289
sg31
S'L27-34'
p1290
sg32
S'2013'
p1291
ssg266
(dp1292
g5
S'23'
p1293
sg7
g266
sg9
S'8.3'
p1294
sg10
S'73.9'
p1295
sg11
g47
sg12
S'160'
p1296
sg13
S'7.0'
p1297
sg14
S'--'
p1298
sg15
S'BAL'
p1299
sg16
g45
sg17
S'17'
p1300
sg18
S'15'
p1301
sg19
S'25'
p1302
sg20
g45
sg21
S'--'
p1303
sg22
g49
sg23
g45
sg24
g47
sg25
g49
sg26
S'10/20'
p1304
sg28
S'Ben Roethlisberger'
p1305
sg30
S'107.2'
p1306
sg31
S'W19-16'
p1307
sg32
S'2013'
p1308
ssg124
(dp1309
g5
S'30'
p1310
sg7
g124
sg9
S'5.5'
p1311
sg10
S'76.7'
p1312
sg11
g40
sg12
S'264'
p1313
sg13
S'8.8'
p1314
sg14
S'--'
p1315
sg15
S'@NYJ'
p1316
sg16
g45
sg17
S'23'
p1317
sg18
S'17'
p1318
sg19
S'11'
p1319
sg20
g45
sg21
S'--'
p1320
sg22
g49
sg23
g45
sg24
g47
sg25
g49
sg26
S'10/13'
p1321
sg28
S'Ben Roethlisberger'
p1322
sg30
S'113.8'
p1323
sg31
S'W19-6'
p1324
sg32
S'2013'
p1325
ssg311
(dp1326
g5
S'48'
p1327
sg7
g311
sg9
S'-0.5'
p1328
sg10
S'58.3'
p1329
sg11
g40
sg12
S'400'
p1330
sg13
S'8.3'
p1331
sg14
g45
sg15
S'@NE'
p1332
sg16
g45
sg17
S'28'
p1333
sg18
S'29'
p1334
sg19
S'-1'
p1335
sg20
g45
sg21
g45
sg22
g49
sg23
g69
sg24
g81
sg25
g40
sg26
S'11/03'
p1336
sg28
S'Ben Roethlisberger'
p1337
sg30
S'95.8'
p1338
sg31
S'L31-55'
p1339
sg32
S'2013'
p1340
ssg331
(dp1341
g5
S'45'
p1342
sg7
g331
sg9
S'1.0'
p1343
sg10
S'64.4'
p1344
sg11
g45
sg12
S'275'
p1345
sg13
S'6.1'
p1346
sg14
S'--'
p1347
sg15
S'@OAK'
p1348
sg16
g45
sg17
S'29'
p1349
sg18
S'34'
p1350
sg19
g45
sg20
g45
sg21
S'--'
p1351
sg22
g49
sg23
g45
sg24
g81
sg25
g40
sg26
S'10/27'
p1352
sg28
S'Ben Roethlisberger'
p1353
sg30
S'70.1'
p1354
sg31
S'L18-21'
p1355
sg32
S'2013'
p1356
sssS'2012'
p1357
(dp1358
g3
(dp1359
g5
S'--'
p1360
sg7
S'11'
p1361
sg9
S'--'
p1362
sg10
S'--'
p1363
sg11
S'--'
p1364
sg12
S'--'
p1365
sg13
S'--'
p1366
sg14
S'--'
p1367
sg15
S'BAL'
p1368
sg16
g49
sg17
S'--'
p1369
sg18
S'--'
p1370
sg19
S'--'
p1371
sg20
g49
sg21
S'--'
p1372
sg22
S'--'
p1373
sg23
S'--'
p1374
sg24
S'--'
p1375
sg25
S'--'
p1376
sg26
S'11/18'
p1377
sg28
S'Ben Roethlisberger'
p1378
sg30
S'0.0'
p1379
sg31
S'L10-13'
p1380
sg32
S'2012'
p1381
ssg34
(dp1382
g5
S'18'
p1383
sg7
S'10'
p1384
sg9
S'14.0'
p1385
sg10
S'50.0'
p1386
sg11
g45
sg12
S'84'
p1387
sg13
S'4.7'
p1388
sg14
S'--'
p1389
sg15
S'KC'
p1390
sg16
g45
sg17
g311
sg18
g47
sg19
S'14'
p1391
sg20
g45
sg21
S'--'
p1392
sg22
g49
sg23
g45
sg24
g45
sg25
g49
sg26
S'11/12'
p1393
sg28
S'Ben Roethlisberger'
p1394
sg30
S'81.7'
p1395
sg31
S'W16-13'
p1396
sg32
S'2012'
p1397
ssg56
(dp1398
g5
S'--'
p1399
sg7
S'13'
p1400
sg9
S'--'
p1401
sg10
S'--'
p1402
sg11
S'--'
p1403
sg12
S'--'
p1404
sg13
S'--'
p1405
sg14
S'--'
p1406
sg15
S'@BAL'
p1407
sg16
g49
sg17
S'--'
p1408
sg18
S'--'
p1409
sg19
S'--'
p1410
sg20
g49
sg21
S'--'
p1411
sg22
S'--'
p1412
sg23
S'--'
p1413
sg24
S'--'
p1414
sg25
S'--'
p1415
sg26
S'12/02'
p1416
sg28
S'Ben Roethlisberger'
p1417
sg30
S'0.0'
p1418
sg31
S'W23-20'
p1419
sg32
S'2012'
p1420
ssg75
(dp1421
g5
S'--'
p1422
sg7
S'12'
p1423
sg9
S'--'
p1424
sg10
S'--'
p1425
sg11
S'--'
p1426
sg12
S'--'
p1427
sg13
S'--'
p1428
sg14
S'--'
p1429
sg15
S'@CLE'
p1430
sg16
g49
sg17
S'--'
p1431
sg18
S'--'
p1432
sg19
S'--'
p1433
sg20
g49
sg21
S'--'
p1434
sg22
S'--'
p1435
sg23
S'--'
p1436
sg24
S'--'
p1437
sg25
S'--'
p1438
sg26
S'11/25'
p1439
sg28
S'Ben Roethlisberger'
p1440
sg30
S'0.0'
p1441
sg31
S'L14-20'
p1442
sg32
S'2012'
p1443
ssg93
(dp1444
g5
S'40'
p1445
sg7
S'15'
p1446
sg9
S'1.0'
p1447
sg10
S'60.0'
p1448
sg11
g40
sg12
S'339'
p1449
sg13
S'8.5'
p1450
sg14
S'--'
p1451
sg15
S'@DAL'
p1452
sg16
g45
sg17
S'24'
p1453
sg18
S'20'
p1454
sg19
g40
sg20
g45
sg21
S'--'
p1455
sg22
g49
sg23
g40
sg24
g69
sg25
g45
sg26
S'12/16'
p1456
sg28
S'Ben Roethlisberger'
p1457
sg30
S'93.6'
p1458
sg31
S'L24-27'
p1459
sg32
S'2012'
p1460
ssg112
(dp1461
g5
S'42'
p1462
sg7
S'14'
p1463
sg9
S'6.2'
p1464
sg10
S'52.4'
p1465
sg11
g81
sg12
S'285'
p1466
sg13
S'6.8'
p1467
sg14
g45
sg15
S'SD'
p1468
sg16
g45
sg17
S'22'
p1469
sg18
S'14'
p1470
sg19
S'31'
p1471
sg20
g45
sg21
g45
sg22
g49
sg23
g47
sg24
g40
sg25
g45
sg26
S'12/09'
p1472
sg28
S'Ben Roethlisberger'
p1473
sg30
S'87.9'
p1474
sg31
S'L24-34'
p1475
sg32
S'2012'
p1476
ssg131
(dp1477
g5
S'23'
p1478
sg7
S'17'
p1479
sg9
S'-1.0'
p1480
sg10
S'65.2'
p1481
sg11
g40
sg12
S'134'
p1482
sg13
S'5.8'
p1483
sg14
S'--'
p1484
sg15
S'CLE'
p1485
sg16
g45
sg17
S'15'
p1486
sg18
S'13'
p1487
sg19
S'-2'
p1488
sg20
g45
sg21
S'--'
p1489
sg22
g49
sg23
g47
sg24
g40
sg25
g49
sg26
S'12/30'
p1490
sg28
S'Ben Roethlisberger'
p1491
sg30
S'120.3'
p1492
sg31
S'W24-10'
p1493
sg32
S'2012'
p1494
ssg149
(dp1495
g5
S'28'
p1496
sg7
S'16'
p1497
sg9
S'1.5'
p1498
sg10
S'50.0'
p1499
sg11
g40
sg12
S'220'
p1500
sg13
S'7.9'
p1501
sg14
g45
sg15
S'CIN'
p1502
sg16
g45
sg17
S'14'
p1503
sg18
S'35'
p1504
sg19
g47
sg20
g45
sg21
g49
sg22
g49
sg23
g45
sg24
g69
sg25
g40
sg26
S'12/23'
p1505
sg28
S'Ben Roethlisberger'
p1506
sg30
S'58.6'
p1507
sg31
S'L10-13'
p1508
sg32
S'2012'
p1509
ssg45
(dp1510
g5
S'40'
p1511
sg7
g45
sg9
S'2.0'
p1512
sg10
S'55.0'
p1513
sg11
g40
sg12
S'245'
p1514
sg13
S'6.1'
p1515
sg14
g45
sg15
S'@DEN'
p1516
sg16
g45
sg17
S'22'
p1517
sg18
S'36'
p1518
sg19
g69
sg20
g45
sg21
g49
sg22
g49
sg23
g40
sg24
g81
sg25
g45
sg26
S'09/09'
p1519
sg28
S'Ben Roethlisberger'
p1520
sg30
S'79.7'
p1521
sg31
S'L19-31'
p1522
sg32
S'2012'
p1523
ssg47
(dp1524
g5
S'49'
p1525
sg7
g47
sg9
S'8.0'
p1526
sg10
S'73.5'
p1527
sg11
g45
sg12
S'384'
p1528
sg13
S'7.8'
p1529
sg14
S'--'
p1530
sg15
S'@OAK'
p1531
sg16
g45
sg17
S'36'
p1532
sg18
g81
sg19
g331
sg20
g45
sg21
S'--'
p1533
sg22
g49
sg23
g69
sg24
g45
sg25
g49
sg26
S'09/23'
p1534
sg28
S'Ben Roethlisberger'
p1535
sg30
S'123.2'
p1536
sg31
S'L31-34'
p1537
sg32
S'2012'
p1538
ssg40
(dp1539
g5
S'31'
p1540
sg7
g40
sg9
S'--'
p1541
sg10
S'77.4'
p1542
sg11
S'--'
p1543
sg12
S'275'
p1544
sg13
S'8.9'
p1545
sg14
S'--'
p1546
sg15
S'NYJ'
p1547
sg16
g45
sg17
S'24'
p1548
sg18
S'10'
p1549
sg19
S'--'
p1550
sg20
g45
sg21
S'--'
p1551
sg22
S'--'
p1552
sg23
g40
sg24
g47
sg25
g49
sg26
S'09/16'
p1553
sg28
S'Ben Roethlisberger'
p1554
sg30
S'125.1'
p1555
sg31
S'W27-10'
p1556
sg32
S'2012'
p1557
ssg81
(dp1558
g5
S'38'
p1559
sg7
g81
sg9
S'4.7'
p1560
sg10
S'57.9'
p1561
sg11
g47
sg12
S'220'
p1562
sg13
S'5.8'
p1563
sg14
g45
sg15
S'PHI'
p1564
sg16
g45
sg17
S'22'
p1565
sg18
g49
sg19
S'14'
p1566
sg20
g45
sg21
g49
sg22
g49
sg23
g45
sg24
g49
sg25
g49
sg26
S'10/07'
p1567
sg28
S'Ben Roethlisberger'
p1568
sg30
S'83.2'
p1569
sg31
S'W16-14'
p1570
sg32
S'2012'
p1571
ssg69
(dp1572
g5
g6
sg7
g69
sg9
g6
sg10
g6
sg11
g6
sg12
g6
sg13
g6
sg14
g6
sg15
g6
sg16
g6
sg17
g6
sg18
g6
sg19
g6
sg20
g6
sg21
g6
sg22
g6
sg23
g6
sg24
g6
sg25
g6
sg26
S'Bye'
p1573
sg28
S'Ben Roethlisberger'
p1574
sg30
g6
sg31
g6
sg32
S'2012'
p1575
ssg266
(dp1576
g5
S'37'
p1577
sg7
g266
sg9
S'-1.0'
p1578
sg10
S'73.0'
p1579
sg11
g45
sg12
S'278'
p1580
sg13
S'7.5'
p1581
sg14
g45
sg15
S'@CIN'
p1582
sg16
g45
sg17
S'27'
p1583
sg18
S'14'
p1584
sg19
S'-1'
p1585
sg20
g45
sg21
g45
sg22
g49
sg23
g45
sg24
g47
sg25
g45
sg26
S'10/21'
p1586
sg28
S'Ben Roethlisberger'
p1587
sg30
S'91.9'
p1588
sg31
S'W24-17'
p1589
sg32
S'2012'
p1590
ssg124
(dp1591
g5
S'40'
p1592
sg7
g124
sg9
S'14.0'
p1593
sg10
S'60.0'
p1594
sg11
g45
sg12
S'363'
p1595
sg13
S'9.1'
p1596
sg14
S'--'
p1597
sg15
S'@TEN'
p1598
sg16
g45
sg17
S'24'
p1599
sg18
g266
sg19
S'14'
p1600
sg20
g45
sg21
S'--'
p1601
sg22
g49
sg23
g45
sg24
g45
sg25
g45
sg26
S'10/11'
p1602
sg28
S'Ben Roethlisberger'
p1603
sg30
S'87.8'
p1604
sg31
S'L23-26'
p1605
sg32
S'2012'
p1606
ssg311
(dp1607
g5
S'30'
p1608
sg7
g311
sg9
S'-0.3'
p1609
sg10
S'70.0'
p1610
sg11
g69
sg12
S'216'
p1611
sg13
S'7.2'
p1612
sg14
g45
sg15
S'@NYG'
p1613
sg16
g45
sg17
S'21'
p1614
sg18
S'25'
p1615
sg19
S'-1'
p1616
sg20
g45
sg21
g45
sg22
g49
sg23
g40
sg24
g69
sg25
g45
sg26
S'11/04'
p1617
sg28
S'Ben Roethlisberger'
p1618
sg30
S'98.8'
p1619
sg31
S'W24-20'
p1620
sg32
S'2012'
p1621
ssg331
(dp1622
g5
S'33'
p1623
sg7
g331
sg9
S'3.0'
p1624
sg10
S'72.7'
p1625
sg11
g40
sg12
S'222'
p1626
sg13
S'6.7'
p1627
sg14
S'--'
p1628
sg15
S'WAS'
p1629
sg16
g45
sg17
S'24'
p1630
sg18
g49
sg19
g124
sg20
g45
sg21
S'--'
p1631
sg22
g49
sg23
g47
sg24
g49
sg25
g49
sg26
S'10/28'
p1632
sg28
S'Ben Roethlisberger'
p1633
sg30
S'121.0'
p1634
sg31
S'W27-12'
p1635
sg32
S'2012'
p1636
sss.