(dp0
S'2015'
p1
(dp2
S'11'
p3
(dp4
S'PassAtt'
p5
S'30'
p6
sS'WK'
p7
S'11'
p8
sS'RushAvg'
p9
S'4.5'
p10
sS'Pct'
p11
S'70.0'
p12
sS'RushAtt'
p13
S'2'
p14
sS'PassYds'
p15
S'242'
p16
sS'PassAvg'
p17
S'8.1'
p18
sS'FUM'
p19
S'1'
p20
sS'Opp'
p21
S'TEN'
p22
sS'G'
p23
g20
sS'Comp'
p24
S'21'
p25
sS'SckY'
p26
S'24'
p27
sS'RushYds'
p28
S'9'
p29
sS'GS'
p30
g20
sS'Lost'
p31
g20
sS'RushTD'
p32
S'0'
p33
sS'PassTD'
p34
g20
sS'Sck'
p35
S'4'
p36
sS'Int'
p37
g20
sS'Game Date'
p38
S'11/19'
p39
sS'Player'
p40
S'Blake Bortles'
p41
sS'Rate'
p42
S'91.3'
p43
sS'Result'
p44
S'W19-13'
p45
sS'Year'
p46
S'2015'
p47
ssS'10'
p48
(dp49
g5
S'45'
p50
sg7
S'10'
p51
sg9
S'12.5'
p52
sg11
S'48.9'
p53
sg13
g14
sg15
S'188'
p54
sg17
S'4.2'
p55
sg19
S'--'
p56
sg21
S'@BAL'
p57
sg23
g20
sg24
S'22'
p58
sg26
S'20'
p59
sg28
S'25'
p60
sg30
g20
sg31
S'--'
p61
sg32
g33
sg34
g14
sg35
S'3'
p62
sg37
g20
sg38
S'11/15'
p63
sg40
S'Blake Bortles'
p64
sg42
S'65.8'
p65
sg44
S'W22-20'
p66
sg46
S'2015'
p67
ssS'13'
p68
(dp69
g5
S'36'
p70
sg7
S'13'
p71
sg9
S'-0.5'
p72
sg11
S'66.7'
p73
sg13
g14
sg15
S'322'
p74
sg17
S'8.9'
p75
sg19
S'--'
p76
sg21
S'@TEN'
p77
sg23
g20
sg24
S'24'
p78
sg26
S'20'
p79
sg28
S'-1'
p80
sg30
g20
sg31
S'--'
p81
sg32
g33
sg34
S'5'
p82
sg35
g14
sg37
g33
sg38
S'12/06'
p83
sg40
S'Blake Bortles'
p84
sg42
S'134.5'
p85
sg44
S'L39-42'
p86
sg46
S'2015'
p87
ssS'12'
p88
(dp89
g5
S'49'
p90
sg7
S'12'
p91
sg9
S'5.5'
p92
sg11
S'61.2'
p93
sg13
S'6'
p94
sg15
S'329'
p95
sg17
S'6.7'
p96
sg19
S'--'
p97
sg21
S'SD'
p98
sg23
g20
sg24
S'30'
p99
sg26
S'11'
p100
sg28
S'33'
p101
sg30
g20
sg31
S'--'
p102
sg32
g33
sg34
g14
sg35
g14
sg37
g20
sg38
S'11/29'
p103
sg40
S'Blake Bortles'
p104
sg42
S'86.2'
p105
sg44
S'L25-31'
p106
sg46
S'2015'
p107
ssS'15'
p108
(dp109
g5
S'38'
p110
sg7
S'15'
p111
sg9
S'7.3'
p112
sg11
S'60.5'
p113
sg13
g94
sg15
S'297'
p114
sg17
S'7.8'
p115
sg19
g20
sg21
S'ATL'
p116
sg23
g20
sg24
S'23'
p117
sg26
S'12'
p118
sg28
S'44'
p119
sg30
g20
sg31
g33
sg32
g20
sg34
g20
sg35
g14
sg37
g20
sg38
S'12/20'
p120
sg40
S'Blake Bortles'
p121
sg42
S'82.9'
p122
sg44
S'L17-23'
p123
sg46
S'2015'
p124
ssS'14'
p125
(dp126
g5
S'30'
p127
sg7
S'14'
p128
sg9
S'4.3'
p129
sg11
S'53.3'
p130
sg13
g36
sg15
S'250'
p131
sg17
S'8.3'
p132
sg19
g62
sg21
S'IND'
p133
sg23
g20
sg24
S'16'
p134
sg26
S'24'
p135
sg28
S'17'
p136
sg30
g20
sg31
g14
sg32
g20
sg34
g62
sg35
g62
sg37
g33
sg38
S'12/13'
p137
sg40
S'Blake Bortles'
p138
sg42
S'114.6'
p139
sg44
S'W51-16'
p140
sg46
S'2015'
p141
ssS'17'
p142
(dp143
g5
S'32'
p144
sg7
S'17'
p145
sg9
S'--'
p146
sg11
S'53.1'
p147
sg13
S'--'
p148
sg15
S'239'
p149
sg17
S'7.5'
p150
sg19
g14
sg21
S'@HOU'
p151
sg23
g20
sg24
S'17'
p152
sg26
S'56'
p153
sg28
S'--'
p154
sg30
g20
sg31
g20
sg32
S'--'
p155
sg34
g33
sg35
S'8'
p156
sg37
g14
sg38
S'01/03'
p157
sg40
S'Blake Bortles'
p158
sg42
S'51.4'
p159
sg44
S'L6-30'
p160
sg46
S'2015'
p161
ssS'16'
p162
(dp163
g5
S'35'
p164
sg7
S'16'
p165
sg9
S'1.7'
p166
sg11
S'77.1'
p167
sg13
g62
sg15
S'368'
p168
sg17
S'10.5'
p169
sg19
g14
sg21
S'@NO'
p170
sg23
g20
sg24
S'27'
p171
sg26
S'21'
p172
sg28
g82
sg30
g20
sg31
g33
sg32
g33
sg34
g36
sg35
g14
sg37
g14
sg38
S'12/27'
p173
sg40
S'Blake Bortles'
p174
sg42
S'124.5'
p175
sg44
S'L27-38'
p176
sg46
S'2015'
p177
ssg20
(dp178
g5
S'40'
p179
sg7
g20
sg9
S'6.5'
p180
sg11
S'55.0'
p181
sg13
g36
sg15
S'183'
p182
sg17
S'4.6'
p183
sg19
S'--'
p184
sg21
S'CAR'
p185
sg23
g20
sg24
S'22'
p186
sg26
S'14'
p187
sg28
S'26'
p188
sg30
g20
sg31
S'--'
p189
sg32
g33
sg34
g20
sg35
g82
sg37
g14
sg38
S'09/13'
p190
sg40
S'Blake Bortles'
p191
sg42
S'54.5'
p192
sg44
S'L9-20'
p193
sg46
S'2015'
p194
ssg62
(dp195
g5
S'33'
p196
sg7
g62
sg9
S'2.3'
p197
sg11
S'51.5'
p198
sg13
g62
sg15
S'242'
p199
sg17
S'7.3'
p200
sg19
g20
sg21
S'@NE'
p201
sg23
g20
sg24
S'17'
p202
sg26
g94
sg28
S'7'
p203
sg30
g20
sg31
g33
sg32
g33
sg34
g14
sg35
g14
sg37
g20
sg38
S'09/27'
p204
sg40
S'Blake Bortles'
p205
sg42
S'83.1'
p206
sg44
S'L17-51'
p207
sg46
S'2015'
p208
ssg14
(dp209
g5
S'33'
p210
sg7
g14
sg9
S'13.5'
p211
sg11
S'54.5'
p212
sg13
g14
sg15
S'273'
p213
sg17
S'8.3'
p214
sg19
S'--'
p215
sg21
S'MIA'
p216
sg23
g20
sg24
S'18'
p217
sg26
g33
sg28
S'27'
p218
sg30
g20
sg31
S'--'
p219
sg32
g33
sg34
g14
sg35
g33
sg37
g33
sg38
S'09/20'
p220
sg40
S'Blake Bortles'
p221
sg42
S'102.2'
p222
sg44
S'W23-20'
p223
sg46
S'2015'
p224
ssg82
(dp225
g5
S'33'
p226
sg7
g82
sg9
S'21.0'
p227
sg11
S'69.7'
p228
sg13
g20
sg15
S'303'
p229
sg17
S'9.2'
p230
sg19
S'--'
p231
sg21
S'@TB'
p232
sg23
g20
sg24
S'23'
p233
sg26
S'33'
p234
sg28
S'21'
p235
sg30
g20
sg31
S'--'
p236
sg32
g33
sg34
g36
sg35
g94
sg37
g20
sg38
S'10/11'
p237
sg40
S'Blake Bortles'
p238
sg42
S'125.4'
p239
sg44
S'L31-38'
p240
sg46
S'2015'
p241
ssg36
(dp242
g5
S'50'
p243
sg7
g36
sg9
S'7.8'
p244
sg11
S'56.0'
p245
sg13
g36
sg15
S'298'
p246
sg17
S'6.0'
p247
sg19
g20
sg21
S'@IND'
p248
sg23
g20
sg24
S'28'
p249
sg26
g29
sg28
S'31'
p250
sg30
g20
sg31
g33
sg32
g33
sg34
g20
sg35
g20
sg37
g33
sg38
S'10/04'
p251
sg40
S'Blake Bortles'
p252
sg42
S'80.3'
p253
sg44
S'L13-16'
p254
sg46
S'2015'
p255
ssg203
(dp256
g5
S'29'
p257
sg7
g203
sg9
S'-0.6'
p258
sg11
S'44.8'
p259
sg13
g82
sg15
S'182'
p260
sg17
S'6.3'
p261
sg19
S'--'
p262
sg21
S'BUF'
p263
sg23
g20
sg24
S'13'
p264
sg26
g203
sg28
S'-3'
p265
sg30
g20
sg31
S'--'
p266
sg32
g33
sg34
g14
sg35
g14
sg37
g20
sg38
S'10/25'
p267
sg40
S'Blake Bortles'
p268
sg42
S'74.2'
p269
sg44
S'W34-31'
p270
sg46
S'2015'
p271
ssg94
(dp272
g5
S'53'
p273
sg7
g94
sg9
S'9.3'
p274
sg11
S'56.6'
p275
sg13
g36
sg15
S'331'
p276
sg17
S'6.2'
p277
sg19
g20
sg21
S'HOU'
p278
sg23
g20
sg24
S'30'
p279
sg26
S'20'
p280
sg28
S'37'
p281
sg30
g20
sg31
g33
sg32
g33
sg34
g62
sg35
g62
sg37
g62
sg38
S'10/18'
p282
sg40
S'Blake Bortles'
p283
sg42
S'70.6'
p284
sg44
S'L20-31'
p285
sg46
S'2015'
p286
ssg29
(dp287
g5
S'40'
p288
sg7
g29
sg9
S'8.0'
p289
sg11
S'60.0'
p290
sg13
g36
sg15
S'381'
p291
sg17
S'9.5'
p292
sg19
g14
sg21
S'@NYJ'
p293
sg23
g20
sg24
S'24'
p294
sg26
S'43'
p295
sg28
S'32'
p296
sg30
g20
sg31
g20
sg32
g33
sg34
g14
sg35
g94
sg37
g14
sg38
S'11/08'
p297
sg40
S'Blake Bortles'
p298
sg42
S'87.6'
p299
sg44
S'L23-28'
p300
sg46
S'2015'
p301
ssg156
(dp302
g5
S''
p303
sg7
g156
sg9
g303
sg11
g303
sg13
g303
sg15
g303
sg17
g303
sg19
g303
sg21
g303
sg23
g303
sg24
g303
sg26
g303
sg28
g303
sg30
g303
sg31
g303
sg32
g303
sg34
g303
sg35
g303
sg37
g303
sg38
S'Bye'
p304
sg40
S'Blake Bortles'
p305
sg42
g303
sg44
g303
sg46
S'2015'
p306
sssS'2014'
p307
(dp308
g3
(dp309
g5
g303
sg7
S'11'
p310
sg9
g303
sg11
g303
sg13
g303
sg15
g303
sg17
g303
sg19
g303
sg21
g303
sg23
g303
sg24
g303
sg26
g303
sg28
g303
sg30
g303
sg31
g303
sg32
g303
sg34
g303
sg35
g303
sg37
g303
sg38
S'Bye'
p311
sg40
S'Blake Bortles'
p312
sg42
g303
sg44
g303
sg46
S'2014'
p313
ssg48
(dp314
g5
S'37'
p315
sg7
S'10'
p316
sg9
S'1.0'
p317
sg11
S'59.5'
p318
sg13
g62
sg15
S'290'
p319
sg17
S'7.8'
p320
sg19
g20
sg21
S'DAL'
p321
sg23
g20
sg24
S'22'
p322
sg26
S'28'
p323
sg28
g62
sg30
g20
sg31
g33
sg32
g33
sg34
g33
sg35
g36
sg37
g20
sg38
S'11/09'
p324
sg40
S'Blake Bortles'
p325
sg42
S'73.0'
p326
sg44
S'L17-31'
p327
sg46
S'2014'
p328
ssg68
(dp329
g5
S'35'
p330
sg7
S'13'
p331
sg9
S'13.6'
p332
sg11
S'60.0'
p333
sg13
g82
sg15
S'194'
p334
sg17
S'5.5'
p335
sg19
S'--'
p336
sg21
S'NYG'
p337
sg23
g20
sg24
S'21'
p338
sg26
S'54'
p339
sg28
S'68'
p340
sg30
g20
sg31
S'--'
p341
sg32
g33
sg34
g20
sg35
g203
sg37
g33
sg38
S'11/30'
p342
sg40
S'Blake Bortles'
p343
sg42
S'84.7'
p344
sg44
S'W25-24'
p345
sg46
S'2014'
p346
ssg88
(dp347
g5
S'27'
p348
sg7
S'12'
p349
sg9
S'4.8'
p350
sg11
S'55.6'
p351
sg13
g82
sg15
S'146'
p352
sg17
S'5.4'
p353
sg19
g20
sg21
S'@IND'
p354
sg23
g20
sg24
S'15'
p355
sg26
S'32'
p356
sg28
S'24'
p357
sg30
g20
sg31
g33
sg32
g33
sg34
g33
sg35
g36
sg37
g20
sg38
S'11/23'
p358
sg40
S'Blake Bortles'
p359
sg42
S'55.5'
p360
sg44
S'L3-23'
p361
sg46
S'2014'
p362
ssg108
(dp363
g5
S'37'
p364
sg7
S'15'
p365
sg9
S'2.0'
p366
sg11
S'56.8'
p367
sg13
g20
sg15
S'210'
p368
sg17
S'5.7'
p369
sg19
S'--'
p370
sg21
S'@BAL'
p371
sg23
g20
sg24
S'21'
p372
sg26
S'63'
p373
sg28
g14
sg30
g20
sg31
S'--'
p374
sg32
g33
sg34
g33
sg35
g156
sg37
g20
sg38
S'12/14'
p375
sg40
S'Blake Bortles'
p376
sg42
S'61.8'
p377
sg44
S'L12-20'
p378
sg46
S'2014'
p379
ssg125
(dp380
g5
S'39'
p381
sg7
S'14'
p382
sg9
S'3.3'
p383
sg11
S'51.3'
p384
sg13
g62
sg15
S'205'
p385
sg17
S'5.3'
p386
sg19
S'--'
p387
sg21
S'HOU'
p388
sg23
g20
sg24
S'20'
p389
sg26
S'17'
p390
sg28
S'10'
p391
sg30
g20
sg31
S'--'
p392
sg32
g33
sg34
g20
sg35
g36
sg37
g20
sg38
S'12/07'
p393
sg40
S'Blake Bortles'
p394
sg42
S'64.6'
p395
sg44
S'L13-27'
p396
sg46
S'2014'
p397
ssg142
(dp398
g5
S'33'
p399
sg7
S'17'
p400
sg9
S'20.3'
p401
sg11
S'42.4'
p402
sg13
g62
sg15
S'117'
p403
sg17
S'3.5'
p404
sg19
g20
sg21
S'@HOU'
p405
sg23
g20
sg24
S'14'
p406
sg26
S'28'
p407
sg28
S'61'
p408
sg30
g20
sg31
g33
sg32
g33
sg34
g33
sg35
g82
sg37
g33
sg38
S'12/28'
p409
sg40
S'Blake Bortles'
p410
sg42
S'52.2'
p411
sg44
S'L17-23'
p412
sg46
S'2014'
p413
ssg162
(dp414
g5
S'26'
p415
sg7
S'16'
p416
sg9
S'10.0'
p417
sg11
S'50.0'
p418
sg13
g82
sg15
S'115'
p419
sg17
S'4.4'
p420
sg19
g20
sg21
S'TEN'
p421
sg23
g20
sg24
S'13'
p422
sg26
S'13'
p423
sg28
S'50'
p424
sg30
g20
sg31
g33
sg32
g33
sg34
g20
sg35
g36
sg37
g33
sg38
S'12/18'
p425
sg40
S'Blake Bortles'
p426
sg42
S'75.0'
p427
sg44
S'W21-13'
p428
sg46
S'2014'
p429
ssg20
(dp430
g5
S'--'
p431
sg7
g20
sg9
S'--'
p432
sg11
S'--'
p433
sg13
S'--'
p434
sg15
S'--'
p435
sg17
S'--'
p436
sg19
S'--'
p437
sg21
S'@PHI'
p438
sg23
g33
sg24
S'--'
p439
sg26
S'--'
p440
sg28
S'--'
p441
sg30
g33
sg31
S'--'
p442
sg32
S'--'
p443
sg34
S'--'
p444
sg35
S'--'
p445
sg37
S'--'
p446
sg38
S'09/07'
p447
sg40
S'Blake Bortles'
p448
sg42
S'0.0'
p449
sg44
S'L17-34'
p450
sg46
S'2014'
p451
ssg62
(dp452
g5
S'24'
p453
sg7
g62
sg9
S'15.0'
p454
sg11
S'58.3'
p455
sg13
g14
sg15
S'223'
p456
sg17
S'9.3'
p457
sg19
S'--'
p458
sg21
S'IND'
p459
sg23
g20
sg24
S'14'
p460
sg26
g94
sg28
S'30'
p461
sg30
g33
sg31
S'--'
p462
sg32
g33
sg34
g14
sg35
g20
sg37
g14
sg38
S'09/21'
p463
sg40
S'Blake Bortles'
p464
sg42
S'82.5'
p465
sg44
S'L17-44'
p466
sg46
S'2014'
p467
ssg14
(dp468
g5
S'--'
p469
sg7
g14
sg9
S'--'
p470
sg11
S'--'
p471
sg13
S'--'
p472
sg15
S'--'
p473
sg17
S'--'
p474
sg19
S'--'
p475
sg21
S'@WAS'
p476
sg23
g33
sg24
S'--'
p477
sg26
S'--'
p478
sg28
S'--'
p479
sg30
g33
sg31
S'--'
p480
sg32
S'--'
p481
sg34
S'--'
p482
sg35
S'--'
p483
sg37
S'--'
p484
sg38
S'09/14'
p485
sg40
S'Blake Bortles'
p486
sg42
S'0.0'
p487
sg44
S'L10-41'
p488
sg46
S'2014'
p489
ssg82
(dp490
g5
S'36'
p491
sg7
g82
sg9
S'3.5'
p492
sg11
S'61.1'
p493
sg13
g36
sg15
S'191'
p494
sg17
S'5.3'
p495
sg19
g14
sg21
S'PIT'
p496
sg23
g20
sg24
S'22'
p497
sg26
g36
sg28
S'14'
p498
sg30
g20
sg31
g33
sg32
g33
sg34
g33
sg35
g20
sg37
g14
sg38
S'10/05'
p499
sg40
S'Blake Bortles'
p500
sg42
S'52.0'
p501
sg44
S'L9-17'
p502
sg46
S'2014'
p503
ssg36
(dp504
g5
S'37'
p505
sg7
g36
sg9
S'4.8'
p506
sg11
S'78.4'
p507
sg13
g82
sg15
S'254'
p508
sg17
S'6.9'
p509
sg19
S'--'
p510
sg21
S'@SD'
p511
sg23
g20
sg24
S'29'
p512
sg26
S'19'
p513
sg28
S'24'
p514
sg30
g20
sg31
S'--'
p515
sg32
g33
sg34
g20
sg35
g62
sg37
g14
sg38
S'09/28'
p516
sg40
S'Blake Bortles'
p517
sg42
S'81.8'
p518
sg44
S'L14-33'
p519
sg46
S'2014'
p520
ssg203
(dp521
g5
S'31'
p522
sg7
g203
sg9
S'7.4'
p523
sg11
S'54.8'
p524
sg13
g82
sg15
S'159'
p525
sg17
S'5.1'
p526
sg19
S'--'
p527
sg21
S'CLE'
p528
sg23
g20
sg24
S'17'
p529
sg26
g156
sg28
S'37'
p530
sg30
g20
sg31
S'--'
p531
sg32
g33
sg34
g20
sg35
g14
sg37
g62
sg38
S'10/19'
p532
sg40
S'Blake Bortles'
p533
sg42
S'40.3'
p534
sg44
S'W24-6'
p535
sg46
S'2014'
p536
ssg94
(dp537
g5
S'46'
p538
sg7
g94
sg9
S'7.6'
p539
sg11
S'69.6'
p540
sg13
g82
sg15
S'336'
p541
sg17
S'7.3'
p542
sg19
S'--'
p543
sg21
S'@TEN'
p544
sg23
g20
sg24
S'32'
p545
sg26
S'39'
p546
sg28
S'38'
p547
sg30
g20
sg31
S'--'
p548
sg32
g33
sg34
g20
sg35
g94
sg37
g20
sg38
S'10/12'
p549
sg40
S'Blake Bortles'
p550
sg42
S'88.7'
p551
sg44
S'L14-16'
p552
sg46
S'2014'
p553
ssg29
(dp554
g5
S'33'
p555
sg7
g29
sg9
S'2.5'
p556
sg11
S'66.7'
p557
sg13
g36
sg15
S'247'
p558
sg17
S'7.5'
p559
sg19
S'--'
p560
sg21
S'@CIN'
p561
sg23
g20
sg24
S'22'
p562
sg26
S'14'
p563
sg28
S'10'
p564
sg30
g20
sg31
S'--'
p565
sg32
g33
sg34
g14
sg35
g14
sg37
g20
sg38
S'11/02'
p566
sg40
S'Blake Bortles'
p567
sg42
S'96.4'
p568
sg44
S'L23-33'
p569
sg46
S'2014'
p570
ssg156
(dp571
g5
S'34'
p572
sg7
g156
sg9
S'8.0'
p573
sg11
S'52.9'
p574
sg13
g94
sg15
S'221'
p575
sg17
S'6.5'
p576
sg19
g20
sg21
S'MIA'
p577
sg23
g20
sg24
S'18'
p578
sg26
S'20'
p579
sg28
S'48'
p580
sg30
g20
sg31
g20
sg32
g33
sg34
g20
sg35
g36
sg37
g14
sg38
S'10/26'
p581
sg40
S'Blake Bortles'
p582
sg42
S'58.6'
p583
sg44
S'L13-27'
p584
sg46
S'2014'
p585
sss.