(dp0
S'2015'
p1
(dp2
S'11'
p3
(dp4
S'PassAtt'
p5
S'--'
p6
sS'WK'
p7
S'11'
p8
sS'RushAvg'
p9
S'--'
p10
sS'Pct'
p11
S'--'
p12
sS'RushAtt'
p13
S'--'
p14
sS'PassYds'
p15
S'--'
p16
sS'PassAvg'
p17
S'--'
p18
sS'FUM'
p19
S'--'
p20
sS'Opp'
p21
S'NYJ'
p22
sS'G'
p23
S'0'
p24
sS'Comp'
p25
S'--'
p26
sS'SckY'
p27
S'--'
p28
sS'RushYds'
p29
S'--'
p30
sS'GS'
p31
g24
sS'Lost'
p32
S'--'
p33
sS'RushTD'
p34
S'--'
p35
sS'PassTD'
p36
S'--'
p37
sS'Sck'
p38
S'--'
p39
sS'Int'
p40
S'--'
p41
sS'Game Date'
p42
S'11/22'
p43
sS'Player'
p44
S'Brian Hoyer'
p45
sS'Rate'
p46
S'0.0'
p47
sS'Result'
p48
S'W24-17'
p49
sS'Year'
p50
S'2015'
p51
ssS'10'
p52
(dp53
g5
S'22'
p54
sg7
S'10'
p55
sg9
S'15.0'
p56
sg11
S'54.5'
p57
sg13
S'1'
p58
sg15
S'123'
p59
sg17
S'5.6'
p60
sg19
S'--'
p61
sg21
S'@CIN'
p62
sg23
g58
sg25
S'12'
p63
sg27
S'10'
p64
sg29
S'15'
p65
sg31
g58
sg32
S'--'
p66
sg34
g24
sg36
g24
sg38
S'2'
p67
sg40
g58
sg42
S'11/16'
p68
sg44
S'Brian Hoyer'
p69
sg46
S'51.9'
p70
sg48
S'W10-6'
p71
sg50
S'2015'
p72
ssS'13'
p73
(dp74
g5
S'43'
p75
sg7
S'13'
p76
sg9
S'5.0'
p77
sg11
S'60.5'
p78
sg13
S'3'
p79
sg15
S'293'
p80
sg17
S'6.8'
p81
sg19
S'--'
p82
sg21
S'@BUF'
p83
sg23
g58
sg25
S'26'
p84
sg27
S'18'
p85
sg29
S'15'
p86
sg31
g58
sg32
S'--'
p87
sg34
g24
sg36
g79
sg38
g67
sg40
g58
sg42
S'12/06'
p88
sg44
S'Brian Hoyer'
p89
sg46
S'94.4'
p90
sg48
S'L21-30'
p91
sg50
S'2015'
p92
ssS'12'
p93
(dp94
g5
S'27'
p95
sg7
S'12'
p96
sg9
S'-1.0'
p97
sg11
S'77.8'
p98
sg13
g79
sg15
S'205'
p99
sg17
S'7.6'
p100
sg19
S'--'
p101
sg21
S'NO'
p102
sg23
g58
sg25
S'21'
p103
sg27
S'10'
p104
sg29
S'-3'
p105
sg31
g58
sg32
S'--'
p106
sg34
g24
sg36
g67
sg38
g58
sg40
g58
sg42
S'11/29'
p107
sg44
S'Brian Hoyer'
p108
sg46
S'107.6'
p109
sg48
S'W24-6'
p110
sg50
S'2015'
p111
ssS'15'
p112
(dp113
g5
S'--'
p114
sg7
S'15'
p115
sg9
S'--'
p116
sg11
S'--'
p117
sg13
S'--'
p118
sg15
S'--'
p119
sg17
S'--'
p120
sg19
S'--'
p121
sg21
S'@IND'
p122
sg23
g24
sg25
S'--'
p123
sg27
S'--'
p124
sg29
S'--'
p125
sg31
g24
sg32
S'--'
p126
sg34
S'--'
p127
sg36
S'--'
p128
sg38
S'--'
p129
sg40
S'--'
p130
sg42
S'12/20'
p131
sg44
S'Brian Hoyer'
p132
sg46
S'0.0'
p133
sg48
S'W16-10'
p134
sg50
S'2015'
p135
ssS'14'
p136
(dp137
g5
S'22'
p138
sg7
S'14'
p139
sg9
S'-1.0'
p140
sg11
S'50.0'
p141
sg13
g58
sg15
S'155'
p142
sg17
S'7.0'
p143
sg19
g67
sg21
S'NE'
p144
sg23
g58
sg25
S'11'
p145
sg27
S'54'
p146
sg29
S'-1'
p147
sg31
g58
sg32
g58
sg34
g24
sg36
g24
sg38
S'5'
p148
sg40
g24
sg42
S'12/13'
p149
sg44
S'Brian Hoyer'
p150
sg46
S'73.1'
p151
sg48
S'L6-27'
p152
sg50
S'2015'
p153
ssS'17'
p154
(dp155
g5
S'40'
p156
sg7
S'17'
p157
sg9
S'--'
p158
sg11
S'62.5'
p159
sg13
S'--'
p160
sg15
S'249'
p161
sg17
S'6.2'
p162
sg19
g58
sg21
S'JAC'
p163
sg23
g58
sg25
S'25'
p164
sg27
S'7'
p165
sg29
S'--'
p166
sg31
g58
sg32
g24
sg34
S'--'
p167
sg36
g58
sg38
g67
sg40
g58
sg42
S'01/03'
p168
sg44
S'Brian Hoyer'
p169
sg46
S'78.0'
p170
sg48
S'W30-6'
p171
sg50
S'2015'
p172
ssS'16'
p173
(dp174
g5
S'--'
p175
sg7
S'16'
p176
sg9
S'--'
p177
sg11
S'--'
p178
sg13
S'--'
p179
sg15
S'--'
p180
sg17
S'--'
p181
sg19
S'--'
p182
sg21
S'@TEN'
p183
sg23
g24
sg25
S'--'
p184
sg27
S'--'
p185
sg29
S'--'
p186
sg31
g24
sg32
S'--'
p187
sg34
S'--'
p188
sg36
S'--'
p189
sg38
S'--'
p190
sg40
S'--'
p191
sg42
S'12/27'
p192
sg44
S'Brian Hoyer'
p193
sg46
S'0.0'
p194
sg48
S'W34-6'
p195
sg50
S'2015'
p196
ssg58
(dp197
g5
S'34'
p198
sg7
g58
sg9
S'--'
p199
sg11
S'52.9'
p200
sg13
S'--'
p201
sg15
S'236'
p202
sg17
S'6.9'
p203
sg19
g58
sg21
S'KC'
p204
sg23
g58
sg25
S'18'
p205
sg27
S'29'
p206
sg29
S'--'
p207
sg31
g58
sg32
g58
sg34
S'--'
p208
sg36
g58
sg38
S'4'
p209
sg40
g58
sg42
S'09/13'
p210
sg44
S'Brian Hoyer'
p211
sg46
S'72.7'
p212
sg48
S'L20-27'
p213
sg50
S'2015'
p214
ssg79
(dp215
g5
S'--'
p216
sg7
g79
sg9
S'--'
p217
sg11
S'--'
p218
sg13
S'--'
p219
sg15
S'--'
p220
sg17
S'--'
p221
sg19
S'--'
p222
sg21
S'TB'
p223
sg23
g24
sg25
S'--'
p224
sg27
S'--'
p225
sg29
S'--'
p226
sg31
g24
sg32
S'--'
p227
sg34
S'--'
p228
sg36
S'--'
p229
sg38
S'--'
p230
sg40
S'--'
p231
sg42
S'09/27'
p232
sg44
S'Brian Hoyer'
p233
sg46
S'0.0'
p234
sg48
S'W19-9'
p235
sg50
S'2015'
p236
ssg67
(dp237
g5
S'--'
p238
sg7
g67
sg9
S'--'
p239
sg11
S'--'
p240
sg13
S'--'
p241
sg15
S'--'
p242
sg17
S'--'
p243
sg19
S'--'
p244
sg21
S'@CAR'
p245
sg23
g24
sg25
S'--'
p246
sg27
S'--'
p247
sg29
S'--'
p248
sg31
g24
sg32
S'--'
p249
sg34
S'--'
p250
sg36
S'--'
p251
sg38
S'--'
p252
sg40
S'--'
p253
sg42
S'09/20'
p254
sg44
S'Brian Hoyer'
p255
sg46
S'0.0'
p256
sg48
S'L17-24'
p257
sg50
S'2015'
p258
ssg148
(dp259
g5
S'31'
p260
sg7
g148
sg9
S'14.0'
p261
sg11
S'77.4'
p262
sg13
g58
sg15
S'312'
p263
sg17
S'10.1'
p264
sg19
S'--'
p265
sg21
S'IND'
p266
sg23
g58
sg25
S'24'
p267
sg27
g24
sg29
S'14'
p268
sg31
g24
sg32
S'--'
p269
sg34
g24
sg36
g67
sg38
g24
sg40
g58
sg42
S'10/08'
p270
sg44
S'Brian Hoyer'
p271
sg46
S'116.6'
p272
sg48
S'L20-27'
p273
sg50
S'2015'
p274
ssg209
(dp275
g5
S'30'
p276
sg7
g209
sg9
S'--'
p277
sg11
S'56.7'
p278
sg13
S'--'
p279
sg15
S'232'
p280
sg17
S'7.7'
p281
sg19
S'--'
p282
sg21
S'@ATL'
p283
sg23
g58
sg25
S'17'
p284
sg27
S'8'
p285
sg29
S'--'
p286
sg31
g24
sg32
S'--'
p287
sg34
S'--'
p288
sg36
g67
sg38
g58
sg40
g24
sg42
S'10/04'
p289
sg44
S'Brian Hoyer'
p290
sg46
S'103.8'
p291
sg48
S'L21-48'
p292
sg50
S'2015'
p293
ssg165
(dp294
g5
S'49'
p295
sg7
g165
sg9
S'--'
p296
sg11
S'46.9'
p297
sg13
S'--'
p298
sg15
S'273'
p299
sg17
S'5.6'
p300
sg19
g67
sg21
S'@MIA'
p301
sg23
g58
sg25
S'23'
p302
sg27
S'22'
p303
sg29
S'--'
p304
sg31
g58
sg32
g24
sg34
S'--'
p305
sg36
g79
sg38
g209
sg40
g58
sg42
S'10/25'
p306
sg44
S'Brian Hoyer'
p307
sg46
S'76.3'
p308
sg48
S'L26-44'
p309
sg50
S'2015'
p310
ssS'6'
p311
(dp312
g5
S'36'
p313
sg7
g311
sg9
S'1.0'
p314
sg11
S'66.7'
p315
sg13
g148
sg15
S'293'
p316
sg17
S'8.1'
p317
sg19
S'--'
p318
sg21
S'@JAC'
p319
sg23
g58
sg25
S'24'
p320
sg27
g311
sg29
g148
sg31
g58
sg32
S'--'
p321
sg34
g24
sg36
g79
sg38
g58
sg40
g24
sg42
S'10/18'
p322
sg44
S'Brian Hoyer'
p323
sg46
S'119.3'
p324
sg48
S'W31-20'
p325
sg50
S'2015'
p326
ssS'9'
p327
(dp328
g5
S''
p329
sg7
g327
sg9
g329
sg11
g329
sg13
g329
sg15
g329
sg17
g329
sg19
g329
sg21
g329
sg23
g329
sg25
g329
sg27
g329
sg29
g329
sg31
g329
sg32
g329
sg34
g329
sg36
g329
sg38
g329
sg40
g329
sg42
S'Bye'
p330
sg44
S'Brian Hoyer'
p331
sg46
g329
sg48
g329
sg50
S'2015'
p332
ssg285
(dp333
g5
S'35'
p334
sg7
g285
sg9
S'-1.0'
p335
sg11
S'65.7'
p336
sg13
g58
sg15
S'235'
p337
sg17
S'6.7'
p338
sg19
S'--'
p339
sg21
S'TEN'
p340
sg23
g58
sg25
S'23'
p341
sg27
S'21'
p342
sg29
S'-1'
p343
sg31
g58
sg32
S'--'
p344
sg34
g24
sg36
g67
sg38
g79
sg40
g24
sg42
S'11/01'
p345
sg44
S'Brian Hoyer'
p346
sg46
S'103.9'
p347
sg48
S'W20-6'
p348
sg50
S'2015'
p349
sssS'2014'
p350
(dp351
g3
(dp352
g5
S'50'
p353
sg7
S'11'
p354
sg9
S'0.5'
p355
sg11
S'40.0'
p356
sg13
g67
sg15
S'330'
p357
sg17
S'6.6'
p358
sg19
g58
sg21
S'HOU'
p359
sg23
g58
sg25
S'20'
p360
sg27
S'20'
p361
sg29
g58
sg31
g58
sg32
g24
sg34
g24
sg36
g58
sg38
g79
sg40
g58
sg42
S'11/16'
p362
sg44
S'Brian Hoyer'
p363
sg46
S'61.2'
p364
sg48
S'L7-23'
p365
sg50
S'2014'
p366
ssg52
(dp367
g5
S'23'
p368
sg7
S'10'
p369
sg9
S'0.3'
p370
sg11
S'65.2'
p371
sg13
g209
sg15
S'198'
p372
sg17
S'8.6'
p373
sg19
S'--'
p374
sg21
S'@CIN'
p375
sg23
g58
sg25
S'15'
p376
sg27
g24
sg29
g58
sg31
g58
sg32
S'--'
p377
sg34
g24
sg36
g24
sg38
g24
sg40
g24
sg42
S'11/06'
p378
sg44
S'Brian Hoyer'
p379
sg46
S'92.3'
p380
sg48
S'W24-3'
p381
sg50
S'2014'
p382
ssg73
(dp383
g5
S'30'
p384
sg7
S'13'
p385
sg9
S'--'
p386
sg11
S'60.0'
p387
sg13
S'--'
p388
sg15
S'192'
p389
sg17
S'6.4'
p390
sg19
S'--'
p391
sg21
S'@BUF'
p392
sg23
g58
sg25
S'18'
p393
sg27
S'14'
p394
sg29
S'--'
p395
sg31
g58
sg32
S'--'
p396
sg34
S'--'
p397
sg36
g24
sg38
g67
sg40
g67
sg42
S'11/30'
p398
sg44
S'Brian Hoyer'
p399
sg46
S'51.0'
p400
sg48
S'L10-26'
p401
sg50
S'2014'
p402
ssg93
(dp403
g5
S'40'
p404
sg7
S'12'
p405
sg9
S'4.0'
p406
sg11
S'57.5'
p407
sg13
g79
sg15
S'322'
p408
sg17
S'8.1'
p409
sg19
g58
sg21
S'@ATL'
p410
sg23
g58
sg25
S'23'
p411
sg27
g327
sg29
S'12'
p412
sg31
g58
sg32
g24
sg34
g24
sg36
g24
sg38
g58
sg40
g79
sg42
S'11/23'
p413
sg44
S'Brian Hoyer'
p414
sg46
S'52.3'
p415
sg48
S'W26-24'
p416
sg50
S'2014'
p417
ssg112
(dp418
g5
S'--'
p419
sg7
S'15'
p420
sg9
S'--'
p421
sg11
S'--'
p422
sg13
S'--'
p423
sg15
S'--'
p424
sg17
S'--'
p425
sg19
S'--'
p426
sg21
S'CIN'
p427
sg23
g24
sg25
S'--'
p428
sg27
S'--'
p429
sg29
S'--'
p430
sg31
g24
sg32
S'--'
p431
sg34
S'--'
p432
sg36
S'--'
p433
sg38
S'--'
p434
sg40
S'--'
p435
sg42
S'12/14'
p436
sg44
S'Brian Hoyer'
p437
sg46
S'0.0'
p438
sg48
S'L0-30'
p439
sg50
S'2014'
p440
ssg136
(dp441
g5
S'30'
p442
sg7
S'14'
p443
sg9
S'1.5'
p444
sg11
S'43.3'
p445
sg13
g67
sg15
S'136'
p446
sg17
S'4.5'
p447
sg19
S'--'
p448
sg21
S'IND'
p449
sg23
g58
sg25
S'13'
p450
sg27
g79
sg29
g79
sg31
g58
sg32
S'--'
p451
sg34
g24
sg36
g24
sg38
g58
sg40
g67
sg42
S'12/07'
p452
sg44
S'Brian Hoyer'
p453
sg46
S'29.3'
p454
sg48
S'L24-25'
p455
sg50
S'2014'
p456
ssg154
(dp457
g5
S'--'
p458
sg7
S'17'
p459
sg9
S'--'
p460
sg11
S'--'
p461
sg13
S'--'
p462
sg15
S'--'
p463
sg17
S'--'
p464
sg19
S'--'
p465
sg21
S'@BAL'
p466
sg23
g24
sg25
S'--'
p467
sg27
S'--'
p468
sg29
S'--'
p469
sg31
g24
sg32
S'--'
p470
sg34
S'--'
p471
sg36
S'--'
p472
sg38
S'--'
p473
sg40
S'--'
p474
sg42
S'12/28'
p475
sg44
S'Brian Hoyer'
p476
sg46
S'0.0'
p477
sg48
S'L10-20'
p478
sg50
S'2014'
p479
ssg173
(dp480
g5
S'13'
p481
sg7
S'16'
p482
sg9
S'9.5'
p483
sg11
S'53.8'
p484
sg13
g67
sg15
S'134'
p485
sg17
S'10.3'
p486
sg19
S'--'
p487
sg21
S'@CAR'
p488
sg23
g58
sg25
g165
sg27
S'22'
p489
sg29
S'19'
p490
sg31
g24
sg32
S'--'
p491
sg34
g24
sg36
g58
sg38
g79
sg40
g58
sg42
S'12/21'
p492
sg44
S'Brian Hoyer'
p493
sg46
S'83.5'
p494
sg48
S'L13-17'
p495
sg50
S'2014'
p496
ssg58
(dp497
g5
S'30'
p498
sg7
g58
sg9
S'-2.0'
p499
sg11
S'60.0'
p500
sg13
g58
sg15
S'222'
p501
sg17
S'7.4'
p502
sg19
S'--'
p503
sg21
S'@PIT'
p504
sg23
g58
sg25
S'18'
p505
sg27
S'24'
p506
sg29
S'-2'
p507
sg31
g58
sg32
S'--'
p508
sg34
g24
sg36
g58
sg38
g79
sg40
g24
sg42
S'09/07'
p509
sg44
S'Brian Hoyer'
p510
sg46
S'94.0'
p511
sg48
S'L27-30'
p512
sg50
S'2014'
p513
ssg79
(dp514
g5
S'25'
p515
sg7
g79
sg9
S'-0.7'
p516
sg11
S'76.0'
p517
sg13
g79
sg15
S'290'
p518
sg17
S'11.6'
p519
sg19
S'--'
p520
sg21
S'BAL'
p521
sg23
g58
sg25
S'19'
p522
sg27
g24
sg29
S'-2'
p523
sg31
g58
sg32
S'--'
p524
sg34
g24
sg36
g58
sg38
g24
sg40
g24
sg42
S'09/21'
p525
sg44
S'Brian Hoyer'
p526
sg46
S'127.1'
p527
sg48
S'L21-23'
p528
sg50
S'2014'
p529
ssg67
(dp530
g5
S'40'
p531
sg7
g67
sg9
S'--'
p532
sg11
S'60.0'
p533
sg13
S'--'
p534
sg15
S'204'
p535
sg17
S'5.1'
p536
sg19
S'--'
p537
sg21
S'NO'
p538
sg23
g58
sg25
S'24'
p539
sg27
g67
sg29
S'--'
p540
sg31
g58
sg32
S'--'
p541
sg34
S'--'
p542
sg36
g58
sg38
g58
sg40
g24
sg42
S'09/14'
p543
sg44
S'Brian Hoyer'
p544
sg46
S'81.7'
p545
sg48
S'W26-24'
p546
sg50
S'2014'
p547
ssg148
(dp548
g5
S'37'
p549
sg7
g148
sg9
S'2.0'
p550
sg11
S'56.8'
p551
sg13
g58
sg15
S'291'
p552
sg17
S'7.9'
p553
sg19
S'--'
p554
sg21
S'@TEN'
p555
sg23
g58
sg25
S'21'
p556
sg27
g165
sg29
g67
sg31
g58
sg32
S'--'
p557
sg34
g24
sg36
g79
sg38
g58
sg40
g58
sg42
S'10/05'
p558
sg44
S'Brian Hoyer'
p559
sg46
S'97.9'
p560
sg48
S'W29-28'
p561
sg50
S'2014'
p562
ssg209
(dp563
g5
g329
sg7
g209
sg9
g329
sg11
g329
sg13
g329
sg15
g329
sg17
g329
sg19
g329
sg21
g329
sg23
g329
sg25
g329
sg27
g329
sg29
g329
sg31
g329
sg32
g329
sg34
g329
sg36
g329
sg38
g329
sg40
g329
sg42
S'Bye'
p564
sg44
S'Brian Hoyer'
p565
sg46
g329
sg48
g329
sg50
S'2014'
p566
ssg165
(dp567
g5
S'41'
p568
sg7
g165
sg9
S'-1.0'
p569
sg11
S'39.0'
p570
sg13
g58
sg15
S'215'
p571
sg17
S'5.2'
p572
sg19
g58
sg21
S'@JAC'
p573
sg23
g58
sg25
S'16'
p574
sg27
S'18'
p575
sg29
S'-1'
p576
sg31
g58
sg32
g58
sg34
g24
sg36
g24
sg38
g79
sg40
g58
sg42
S'10/19'
p577
sg44
S'Brian Hoyer'
p578
sg46
S'46.3'
p579
sg48
S'L6-24'
p580
sg50
S'2014'
p581
ssg311
(dp582
g5
S'17'
p583
sg7
g311
sg9
S'0.0'
p584
sg11
S'47.1'
p585
sg13
g58
sg15
S'217'
p586
sg17
S'12.8'
p587
sg19
g58
sg21
S'PIT'
p588
sg23
g58
sg25
g285
sg27
g165
sg29
g24
sg31
g58
sg32
g24
sg34
g24
sg36
g58
sg38
g58
sg40
g24
sg42
S'10/12'
p589
sg44
S'Brian Hoyer'
p590
sg46
S'113.0'
p591
sg48
S'W31-10'
p592
sg50
S'2014'
p593
ssg327
(dp594
g5
S'34'
p595
sg7
g327
sg9
S'2.5'
p596
sg11
S'61.8'
p597
sg13
g67
sg15
S'300'
p598
sg17
S'8.8'
p599
sg19
S'--'
p600
sg21
S'TB'
p601
sg23
g58
sg25
S'21'
p602
sg27
S'26'
p603
sg29
g148
sg31
g58
sg32
S'--'
p604
sg34
g24
sg36
g67
sg38
g209
sg40
g67
sg42
S'11/02'
p605
sg44
S'Brian Hoyer'
p606
sg46
S'85.4'
p607
sg48
S'W22-17'
p608
sg50
S'2014'
p609
ssg285
(dp610
g5
S'28'
p611
sg7
g285
sg9
S'0.5'
p612
sg11
S'67.9'
p613
sg13
g67
sg15
S'275'
p614
sg17
S'9.8'
p615
sg19
S'--'
p616
sg21
S'OAK'
p617
sg23
g58
sg25
S'19'
p618
sg27
g285
sg29
g58
sg31
g58
sg32
S'--'
p619
sg34
g24
sg36
g58
sg38
g58
sg40
g24
sg42
S'10/26'
p620
sg44
S'Brian Hoyer'
p621
sg46
S'111.5'
p622
sg48
S'W23-13'
p623
sg50
S'2014'
p624
sssS'2011'
p625
(dp626
g3
(dp627
g5
S'--'
p628
sg7
S'11'
p629
sg9
S'--'
p630
sg11
S'--'
p631
sg13
S'--'
p632
sg15
S'--'
p633
sg17
S'--'
p634
sg19
S'--'
p635
sg21
S'KC'
p636
sg23
g24
sg25
S'--'
p637
sg27
S'--'
p638
sg29
S'--'
p639
sg31
g24
sg32
S'--'
p640
sg34
S'--'
p641
sg36
S'--'
p642
sg38
S'--'
p643
sg40
S'--'
p644
sg42
S'11/21'
p645
sg44
S'Brian Hoyer'
p646
sg46
S'0.0'
p647
sg48
S'W34-3'
p648
sg50
S'2011'
p649
ssg52
(dp650
g5
S'--'
p651
sg7
S'10'
p652
sg9
S'--'
p653
sg11
S'--'
p654
sg13
S'--'
p655
sg15
S'--'
p656
sg17
S'--'
p657
sg19
S'--'
p658
sg21
S'@NYJ'
p659
sg23
g24
sg25
S'--'
p660
sg27
S'--'
p661
sg29
S'--'
p662
sg31
g24
sg32
S'--'
p663
sg34
S'--'
p664
sg36
S'--'
p665
sg38
S'--'
p666
sg40
S'--'
p667
sg42
S'11/13'
p668
sg44
S'Brian Hoyer'
p669
sg46
S'0.0'
p670
sg48
S'W37-16'
p671
sg50
S'2011'
p672
ssg73
(dp673
g5
S'--'
p674
sg7
S'13'
p675
sg9
S'--'
p676
sg11
S'--'
p677
sg13
S'--'
p678
sg15
S'--'
p679
sg17
S'--'
p680
sg19
S'--'
p681
sg21
S'IND'
p682
sg23
g58
sg25
S'--'
p683
sg27
S'--'
p684
sg29
S'--'
p685
sg31
g24
sg32
S'--'
p686
sg34
S'--'
p687
sg36
S'--'
p688
sg38
S'--'
p689
sg40
S'--'
p690
sg42
S'12/04'
p691
sg44
S'Brian Hoyer'
p692
sg46
S'0.0'
p693
sg48
S'W31-24'
p694
sg50
S'2011'
p695
ssg93
(dp696
g5
S'--'
p697
sg7
S'12'
p698
sg9
S'-1.0'
p699
sg11
S'--'
p700
sg13
g58
sg15
S'--'
p701
sg17
S'--'
p702
sg19
S'--'
p703
sg21
S'@PHI'
p704
sg23
g58
sg25
S'--'
p705
sg27
S'--'
p706
sg29
S'-1'
p707
sg31
g24
sg32
S'--'
p708
sg34
g24
sg36
S'--'
p709
sg38
S'--'
p710
sg40
S'--'
p711
sg42
S'11/27'
p712
sg44
S'Brian Hoyer'
p713
sg46
S'0.0'
p714
sg48
S'W38-20'
p715
sg50
S'2011'
p716
ssg112
(dp717
g5
S'--'
p718
sg7
S'15'
p719
sg9
S'--'
p720
sg11
S'--'
p721
sg13
S'--'
p722
sg15
S'--'
p723
sg17
S'--'
p724
sg19
S'--'
p725
sg21
S'@DEN'
p726
sg23
g24
sg25
S'--'
p727
sg27
S'--'
p728
sg29
S'--'
p729
sg31
g24
sg32
S'--'
p730
sg34
S'--'
p731
sg36
S'--'
p732
sg38
S'--'
p733
sg40
S'--'
p734
sg42
S'12/18'
p735
sg44
S'Brian Hoyer'
p736
sg46
S'0.0'
p737
sg48
S'W41-23'
p738
sg50
S'2011'
p739
ssg136
(dp740
g5
S'--'
p741
sg7
S'14'
p742
sg9
S'--'
p743
sg11
S'--'
p744
sg13
S'--'
p745
sg15
S'--'
p746
sg17
S'--'
p747
sg19
S'--'
p748
sg21
S'@WAS'
p749
sg23
g24
sg25
S'--'
p750
sg27
S'--'
p751
sg29
S'--'
p752
sg31
g24
sg32
S'--'
p753
sg34
S'--'
p754
sg36
S'--'
p755
sg38
S'--'
p756
sg40
S'--'
p757
sg42
S'12/11'
p758
sg44
S'Brian Hoyer'
p759
sg46
S'0.0'
p760
sg48
S'W34-27'
p761
sg50
S'2011'
p762
ssg154
(dp763
g5
g58
sg7
S'17'
p764
sg9
S'-0.7'
p765
sg11
S'100.0'
p766
sg13
g79
sg15
S'22'
p767
sg17
S'22.0'
p768
sg19
S'--'
p769
sg21
S'BUF'
p770
sg23
g58
sg25
g58
sg27
g24
sg29
S'-2'
p771
sg31
g24
sg32
S'--'
p772
sg34
g24
sg36
g24
sg38
g24
sg40
g24
sg42
S'01/01'
p773
sg44
S'Brian Hoyer'
p774
sg46
S'118.8'
p775
sg48
S'W49-21'
p776
sg50
S'2011'
p777
ssg173
(dp778
g5
S'--'
p779
sg7
S'16'
p780
sg9
S'--'
p781
sg11
S'--'
p782
sg13
S'--'
p783
sg15
S'--'
p784
sg17
S'--'
p785
sg19
S'--'
p786
sg21
S'MIA'
p787
sg23
g24
sg25
S'--'
p788
sg27
S'--'
p789
sg29
S'--'
p790
sg31
g24
sg32
S'--'
p791
sg34
S'--'
p792
sg36
S'--'
p793
sg38
S'--'
p794
sg40
S'--'
p795
sg42
S'12/24'
p796
sg44
S'Brian Hoyer'
p797
sg46
S'0.0'
p798
sg48
S'W27-24'
p799
sg50
S'2011'
p800
ssg58
(dp801
g5
S'--'
p802
sg7
g58
sg9
S'--'
p803
sg11
S'--'
p804
sg13
S'--'
p805
sg15
S'--'
p806
sg17
S'--'
p807
sg19
S'--'
p808
sg21
S'@MIA'
p809
sg23
g24
sg25
S'--'
p810
sg27
S'--'
p811
sg29
S'--'
p812
sg31
g24
sg32
S'--'
p813
sg34
S'--'
p814
sg36
S'--'
p815
sg38
S'--'
p816
sg40
S'--'
p817
sg42
S'09/12'
p818
sg44
S'Brian Hoyer'
p819
sg46
S'0.0'
p820
sg48
S'W38-24'
p821
sg50
S'2011'
p822
ssg79
(dp823
g5
S'--'
p824
sg7
g79
sg9
S'--'
p825
sg11
S'--'
p826
sg13
S'--'
p827
sg15
S'--'
p828
sg17
S'--'
p829
sg19
S'--'
p830
sg21
S'@BUF'
p831
sg23
g24
sg25
S'--'
p832
sg27
S'--'
p833
sg29
S'--'
p834
sg31
g24
sg32
S'--'
p835
sg34
S'--'
p836
sg36
S'--'
p837
sg38
S'--'
p838
sg40
S'--'
p839
sg42
S'09/25'
p840
sg44
S'Brian Hoyer'
p841
sg46
S'0.0'
p842
sg48
S'L31-34'
p843
sg50
S'2011'
p844
ssg67
(dp845
g5
S'--'
p846
sg7
g67
sg9
S'--'
p847
sg11
S'--'
p848
sg13
S'--'
p849
sg15
S'--'
p850
sg17
S'--'
p851
sg19
S'--'
p852
sg21
S'SD'
p853
sg23
g24
sg25
S'--'
p854
sg27
S'--'
p855
sg29
S'--'
p856
sg31
g24
sg32
S'--'
p857
sg34
S'--'
p858
sg36
S'--'
p859
sg38
S'--'
p860
sg40
S'--'
p861
sg42
S'09/18'
p862
sg44
S'Brian Hoyer'
p863
sg46
S'0.0'
p864
sg48
S'W35-21'
p865
sg50
S'2011'
p866
ssg148
(dp867
g5
S'--'
p868
sg7
g148
sg9
S'--'
p869
sg11
S'--'
p870
sg13
S'--'
p871
sg15
S'--'
p872
sg17
S'--'
p873
sg19
S'--'
p874
sg21
S'NYJ'
p875
sg23
g24
sg25
S'--'
p876
sg27
S'--'
p877
sg29
S'--'
p878
sg31
g24
sg32
S'--'
p879
sg34
S'--'
p880
sg36
S'--'
p881
sg38
S'--'
p882
sg40
S'--'
p883
sg42
S'10/09'
p884
sg44
S'Brian Hoyer'
p885
sg46
S'0.0'
p886
sg48
S'W30-21'
p887
sg50
S'2011'
p888
ssg209
(dp889
g5
S'--'
p890
sg7
g209
sg9
S'--'
p891
sg11
S'--'
p892
sg13
S'--'
p893
sg15
S'--'
p894
sg17
S'--'
p895
sg19
S'--'
p896
sg21
S'@OAK'
p897
sg23
g24
sg25
S'--'
p898
sg27
S'--'
p899
sg29
S'--'
p900
sg31
g24
sg32
S'--'
p901
sg34
S'--'
p902
sg36
S'--'
p903
sg38
S'--'
p904
sg40
S'--'
p905
sg42
S'10/02'
p906
sg44
S'Brian Hoyer'
p907
sg46
S'0.0'
p908
sg48
S'W31-19'
p909
sg50
S'2011'
p910
ssg165
(dp911
g5
g329
sg7
g165
sg9
g329
sg11
g329
sg13
g329
sg15
g329
sg17
g329
sg19
g329
sg21
g329
sg23
g329
sg25
g329
sg27
g329
sg29
g329
sg31
g329
sg32
g329
sg34
g329
sg36
g329
sg38
g329
sg40
g329
sg42
S'Bye'
p912
sg44
S'Brian Hoyer'
p913
sg46
g329
sg48
g329
sg50
S'2011'
p914
ssg311
(dp915
g5
S'--'
p916
sg7
g311
sg9
S'--'
p917
sg11
S'--'
p918
sg13
S'--'
p919
sg15
S'--'
p920
sg17
S'--'
p921
sg19
S'--'
p922
sg21
S'DAL'
p923
sg23
g24
sg25
S'--'
p924
sg27
S'--'
p925
sg29
S'--'
p926
sg31
g24
sg32
S'--'
p927
sg34
S'--'
p928
sg36
S'--'
p929
sg38
S'--'
p930
sg40
S'--'
p931
sg42
S'10/16'
p932
sg44
S'Brian Hoyer'
p933
sg46
S'0.0'
p934
sg48
S'W20-16'
p935
sg50
S'2011'
p936
ssg327
(dp937
g5
S'--'
p938
sg7
g327
sg9
S'--'
p939
sg11
S'--'
p940
sg13
S'--'
p941
sg15
S'--'
p942
sg17
S'--'
p943
sg19
S'--'
p944
sg21
S'NYG'
p945
sg23
g24
sg25
S'--'
p946
sg27
S'--'
p947
sg29
S'--'
p948
sg31
g24
sg32
S'--'
p949
sg34
S'--'
p950
sg36
S'--'
p951
sg38
S'--'
p952
sg40
S'--'
p953
sg42
S'11/06'
p954
sg44
S'Brian Hoyer'
p955
sg46
S'0.0'
p956
sg48
S'L20-24'
p957
sg50
S'2011'
p958
ssg285
(dp959
g5
S'--'
p960
sg7
g285
sg9
S'--'
p961
sg11
S'--'
p962
sg13
S'--'
p963
sg15
S'--'
p964
sg17
S'--'
p965
sg19
S'--'
p966
sg21
S'@PIT'
p967
sg23
g24
sg25
S'--'
p968
sg27
S'--'
p969
sg29
S'--'
p970
sg31
g24
sg32
S'--'
p971
sg34
S'--'
p972
sg36
S'--'
p973
sg38
S'--'
p974
sg40
S'--'
p975
sg42
S'10/30'
p976
sg44
S'Brian Hoyer'
p977
sg46
S'0.0'
p978
sg48
S'L17-25'
p979
sg50
S'2011'
p980
sssS'2010'
p981
(dp982
g3
(dp983
g5
S'--'
p984
sg7
S'11'
p985
sg9
S'--'
p986
sg11
S'--'
p987
sg13
S'--'
p988
sg15
S'--'
p989
sg17
S'--'
p990
sg19
S'--'
p991
sg21
S'IND'
p992
sg23
g24
sg25
S'--'
p993
sg27
S'--'
p994
sg29
S'--'
p995
sg31
g24
sg32
S'--'
p996
sg34
S'--'
p997
sg36
S'--'
p998
sg38
S'--'
p999
sg40
S'--'
p1000
sg42
S'11/21'
p1001
sg44
S'Brian Hoyer'
p1002
sg46
S'0.0'
p1003
sg48
S'W31-28'
p1004
sg50
S'2010'
p1005
ssg52
(dp1006
g5
S'--'
p1007
sg7
S'10'
p1008
sg9
S'--'
p1009
sg11
S'--'
p1010
sg13
S'--'
p1011
sg15
S'--'
p1012
sg17
S'--'
p1013
sg19
S'--'
p1014
sg21
S'@PIT'
p1015
sg23
g24
sg25
S'--'
p1016
sg27
S'--'
p1017
sg29
S'--'
p1018
sg31
g24
sg32
S'--'
p1019
sg34
S'--'
p1020
sg36
S'--'
p1021
sg38
S'--'
p1022
sg40
S'--'
p1023
sg42
S'11/14'
p1024
sg44
S'Brian Hoyer'
p1025
sg46
S'0.0'
p1026
sg48
S'W39-26'
p1027
sg50
S'2010'
p1028
ssg73
(dp1029
g5
S'--'
p1030
sg7
S'13'
p1031
sg9
S'--'
p1032
sg11
S'--'
p1033
sg13
S'--'
p1034
sg15
S'--'
p1035
sg17
S'--'
p1036
sg19
S'--'
p1037
sg21
S'NYJ'
p1038
sg23
g24
sg25
S'--'
p1039
sg27
S'--'
p1040
sg29
S'--'
p1041
sg31
g24
sg32
S'--'
p1042
sg34
S'--'
p1043
sg36
S'--'
p1044
sg38
S'--'
p1045
sg40
S'--'
p1046
sg42
S'12/06'
p1047
sg44
S'Brian Hoyer'
p1048
sg46
S'0.0'
p1049
sg48
S'W45-3'
p1050
sg50
S'2010'
p1051
ssg93
(dp1052
g5
S'--'
p1053
sg7
S'12'
p1054
sg9
S'--'
p1055
sg11
S'--'
p1056
sg13
S'--'
p1057
sg15
S'--'
p1058
sg17
S'--'
p1059
sg19
S'--'
p1060
sg21
S'@DET'
p1061
sg23
g24
sg25
S'--'
p1062
sg27
S'--'
p1063
sg29
S'--'
p1064
sg31
g24
sg32
S'--'
p1065
sg34
S'--'
p1066
sg36
S'--'
p1067
sg38
S'--'
p1068
sg40
S'--'
p1069
sg42
S'11/25'
p1070
sg44
S'Brian Hoyer'
p1071
sg46
S'0.0'
p1072
sg48
S'W45-24'
p1073
sg50
S'2010'
p1074
ssg112
(dp1075
g5
S'--'
p1076
sg7
S'15'
p1077
sg9
S'--'
p1078
sg11
S'--'
p1079
sg13
S'--'
p1080
sg15
S'--'
p1081
sg17
S'--'
p1082
sg19
S'--'
p1083
sg21
S'GB'
p1084
sg23
g24
sg25
S'--'
p1085
sg27
S'--'
p1086
sg29
S'--'
p1087
sg31
g24
sg32
S'--'
p1088
sg34
S'--'
p1089
sg36
S'--'
p1090
sg38
S'--'
p1091
sg40
S'--'
p1092
sg42
S'12/19'
p1093
sg44
S'Brian Hoyer'
p1094
sg46
S'0.0'
p1095
sg48
S'W31-27'
p1096
sg50
S'2010'
p1097
ssg136
(dp1098
g5
S'--'
p1099
sg7
S'14'
p1100
sg9
S'-0.7'
p1101
sg11
S'--'
p1102
sg13
g79
sg15
S'--'
p1103
sg17
S'--'
p1104
sg19
S'--'
p1105
sg21
S'@CHI'
p1106
sg23
g58
sg25
S'--'
p1107
sg27
S'--'
p1108
sg29
S'-2'
p1109
sg31
g24
sg32
S'--'
p1110
sg34
g24
sg36
S'--'
p1111
sg38
S'--'
p1112
sg40
S'--'
p1113
sg42
S'12/12'
p1114
sg44
S'Brian Hoyer'
p1115
sg46
S'0.0'
p1116
sg48
S'W36-7'
p1117
sg50
S'2010'
p1118
ssg154
(dp1119
g5
S'13'
p1120
sg7
S'17'
p1121
sg9
S'-1.0'
p1122
sg11
S'53.8'
p1123
sg13
g58
sg15
S'122'
p1124
sg17
S'9.4'
p1125
sg19
S'--'
p1126
sg21
S'MIA'
p1127
sg23
g58
sg25
g165
sg27
g24
sg29
S'-1'
p1128
sg31
g24
sg32
S'--'
p1129
sg34
g24
sg36
g58
sg38
g24
sg40
g24
sg42
S'01/02'
p1130
sg44
S'Brian Hoyer'
p1131
sg46
S'111.7'
p1132
sg48
S'W38-7'
p1133
sg50
S'2010'
p1134
ssg173
(dp1135
g5
S'--'
p1136
sg7
S'16'
p1137
sg9
S'-0.5'
p1138
sg11
S'--'
p1139
sg13
g209
sg15
S'--'
p1140
sg17
S'--'
p1141
sg19
S'--'
p1142
sg21
S'@BUF'
p1143
sg23
g58
sg25
S'--'
p1144
sg27
S'--'
p1145
sg29
S'-2'
p1146
sg31
g24
sg32
S'--'
p1147
sg34
g24
sg36
S'--'
p1148
sg38
S'--'
p1149
sg40
S'--'
p1150
sg42
S'12/26'
p1151
sg44
S'Brian Hoyer'
p1152
sg46
S'0.0'
p1153
sg48
S'W34-3'
p1154
sg50
S'2010'
p1155
ssg58
(dp1156
g5
S'--'
p1157
sg7
g58
sg9
S'--'
p1158
sg11
S'--'
p1159
sg13
S'--'
p1160
sg15
S'--'
p1161
sg17
S'--'
p1162
sg19
S'--'
p1163
sg21
S'CIN'
p1164
sg23
g24
sg25
S'--'
p1165
sg27
S'--'
p1166
sg29
S'--'
p1167
sg31
g24
sg32
S'--'
p1168
sg34
S'--'
p1169
sg36
S'--'
p1170
sg38
S'--'
p1171
sg40
S'--'
p1172
sg42
S'09/12'
p1173
sg44
S'Brian Hoyer'
p1174
sg46
S'0.0'
p1175
sg48
S'W38-24'
p1176
sg50
S'2010'
p1177
ssg79
(dp1178
g5
S'--'
p1179
sg7
g79
sg9
S'--'
p1180
sg11
S'--'
p1181
sg13
S'--'
p1182
sg15
S'--'
p1183
sg17
S'--'
p1184
sg19
S'--'
p1185
sg21
S'BUF'
p1186
sg23
g24
sg25
S'--'
p1187
sg27
S'--'
p1188
sg29
S'--'
p1189
sg31
g24
sg32
S'--'
p1190
sg34
S'--'
p1191
sg36
S'--'
p1192
sg38
S'--'
p1193
sg40
S'--'
p1194
sg42
S'09/26'
p1195
sg44
S'Brian Hoyer'
p1196
sg46
S'0.0'
p1197
sg48
S'W38-30'
p1198
sg50
S'2010'
p1199
ssg67
(dp1200
g5
S'--'
p1201
sg7
g67
sg9
S'--'
p1202
sg11
S'--'
p1203
sg13
S'--'
p1204
sg15
S'--'
p1205
sg17
S'--'
p1206
sg19
S'--'
p1207
sg21
S'@NYJ'
p1208
sg23
g24
sg25
S'--'
p1209
sg27
S'--'
p1210
sg29
S'--'
p1211
sg31
g24
sg32
S'--'
p1212
sg34
S'--'
p1213
sg36
S'--'
p1214
sg38
S'--'
p1215
sg40
S'--'
p1216
sg42
S'09/19'
p1217
sg44
S'Brian Hoyer'
p1218
sg46
S'0.0'
p1219
sg48
S'L14-28'
p1220
sg50
S'2010'
p1221
ssg148
(dp1222
g5
g329
sg7
g148
sg9
g329
sg11
g329
sg13
g329
sg15
g329
sg17
g329
sg19
g329
sg21
g329
sg23
g329
sg25
g329
sg27
g329
sg29
g329
sg31
g329
sg32
g329
sg34
g329
sg36
g329
sg38
g329
sg40
g329
sg42
S'Bye'
p1223
sg44
S'Brian Hoyer'
p1224
sg46
g329
sg48
g329
sg50
S'2010'
p1225
ssg209
(dp1226
g5
S'--'
p1227
sg7
g209
sg9
S'-2.0'
p1228
sg11
S'--'
p1229
sg13
g58
sg15
S'--'
p1230
sg17
S'--'
p1231
sg19
S'--'
p1232
sg21
S'@MIA'
p1233
sg23
g58
sg25
S'--'
p1234
sg27
S'--'
p1235
sg29
S'-2'
p1236
sg31
g24
sg32
S'--'
p1237
sg34
g24
sg36
S'--'
p1238
sg38
S'--'
p1239
sg40
S'--'
p1240
sg42
S'10/04'
p1241
sg44
S'Brian Hoyer'
p1242
sg46
S'0.0'
p1243
sg48
S'W41-14'
p1244
sg50
S'2010'
p1245
ssg165
(dp1246
g5
S'--'
p1247
sg7
g165
sg9
S'--'
p1248
sg11
S'--'
p1249
sg13
S'--'
p1250
sg15
S'--'
p1251
sg17
S'--'
p1252
sg19
S'--'
p1253
sg21
S'@SD'
p1254
sg23
g24
sg25
S'--'
p1255
sg27
S'--'
p1256
sg29
S'--'
p1257
sg31
g24
sg32
S'--'
p1258
sg34
S'--'
p1259
sg36
S'--'
p1260
sg38
S'--'
p1261
sg40
S'--'
p1262
sg42
S'10/24'
p1263
sg44
S'Brian Hoyer'
p1264
sg46
S'0.0'
p1265
sg48
S'W23-20'
p1266
sg50
S'2010'
p1267
ssg311
(dp1268
g5
S'--'
p1269
sg7
g311
sg9
S'--'
p1270
sg11
S'--'
p1271
sg13
S'--'
p1272
sg15
S'--'
p1273
sg17
S'--'
p1274
sg19
S'--'
p1275
sg21
S'BAL'
p1276
sg23
g24
sg25
S'--'
p1277
sg27
S'--'
p1278
sg29
S'--'
p1279
sg31
g24
sg32
S'--'
p1280
sg34
S'--'
p1281
sg36
S'--'
p1282
sg38
S'--'
p1283
sg40
S'--'
p1284
sg42
S'10/17'
p1285
sg44
S'Brian Hoyer'
p1286
sg46
S'0.0'
p1287
sg48
S'W23-20'
p1288
sg50
S'2010'
p1289
ssg327
(dp1290
g5
g67
sg7
g327
sg9
S'-1.0'
p1291
sg11
S'0.0'
p1292
sg13
g58
sg15
g24
sg17
S'0.0'
p1293
sg19
S'--'
p1294
sg21
S'@CLE'
p1295
sg23
g58
sg25
g24
sg27
g24
sg29
S'-1'
p1296
sg31
g24
sg32
S'--'
p1297
sg34
g24
sg36
g24
sg38
g24
sg40
g58
sg42
S'11/07'
p1298
sg44
S'Brian Hoyer'
p1299
sg46
S'0.0'
p1300
sg48
S'L14-34'
p1301
sg50
S'2010'
p1302
ssg285
(dp1303
g5
S'--'
p1304
sg7
g285
sg9
S'--'
p1305
sg11
S'--'
p1306
sg13
S'--'
p1307
sg15
S'--'
p1308
sg17
S'--'
p1309
sg19
S'--'
p1310
sg21
S'MIN'
p1311
sg23
g24
sg25
S'--'
p1312
sg27
S'--'
p1313
sg29
S'--'
p1314
sg31
g24
sg32
S'--'
p1315
sg34
S'--'
p1316
sg36
S'--'
p1317
sg38
S'--'
p1318
sg40
S'--'
p1319
sg42
S'10/31'
p1320
sg44
S'Brian Hoyer'
p1321
sg46
S'0.0'
p1322
sg48
S'W28-18'
p1323
sg50
S'2010'
p1324
sssS'2013'
p1325
(dp1326
g58
(dp1327
g5
S'--'
p1328
sg7
g58
sg9
S'--'
p1329
sg11
S'--'
p1330
sg13
S'--'
p1331
sg15
S'--'
p1332
sg17
S'--'
p1333
sg19
S'--'
p1334
sg21
S'MIA'
p1335
sg23
g24
sg25
S'--'
p1336
sg27
S'--'
p1337
sg29
S'--'
p1338
sg31
g24
sg32
S'--'
p1339
sg34
S'--'
p1340
sg36
S'--'
p1341
sg38
S'--'
p1342
sg40
S'--'
p1343
sg42
S'09/08'
p1344
sg44
S'Brian Hoyer'
p1345
sg46
S'0.0'
p1346
sg48
S'L10-23'
p1347
sg50
S'2013'
p1348
ssg79
(dp1349
g5
S'54'
p1350
sg7
g79
sg9
S'-2.0'
p1351
sg11
S'55.6'
p1352
sg13
g58
sg15
S'321'
p1353
sg17
S'5.9'
p1354
sg19
S'--'
p1355
sg21
S'@MIN'
p1356
sg23
g58
sg25
S'30'
p1357
sg27
S'26'
p1358
sg29
S'-2'
p1359
sg31
g58
sg32
S'--'
p1360
sg34
g24
sg36
g79
sg38
g79
sg40
g79
sg42
S'09/22'
p1361
sg44
S'Brian Hoyer'
p1362
sg46
S'68.5'
p1363
sg48
S'W31-27'
p1364
sg50
S'2013'
p1365
ssg67
(dp1366
g5
S'--'
p1367
sg7
g67
sg9
S'--'
p1368
sg11
S'--'
p1369
sg13
S'--'
p1370
sg15
S'--'
p1371
sg17
S'--'
p1372
sg19
S'--'
p1373
sg21
S'@BAL'
p1374
sg23
g24
sg25
S'--'
p1375
sg27
S'--'
p1376
sg29
S'--'
p1377
sg31
g24
sg32
S'--'
p1378
sg34
S'--'
p1379
sg36
S'--'
p1380
sg38
S'--'
p1381
sg40
S'--'
p1382
sg42
S'09/15'
p1383
sg44
S'Brian Hoyer'
p1384
sg46
S'0.0'
p1385
sg48
S'L6-14'
p1386
sg50
S'2013'
p1387
ssg148
(dp1388
g5
g209
sg7
g148
sg9
S'11.0'
p1389
sg11
S'50.0'
p1390
sg13
g58
sg15
S'25'
p1391
sg17
S'6.3'
p1392
sg19
S'--'
p1393
sg21
S'BUF'
p1394
sg23
g58
sg25
g67
sg27
g24
sg29
S'11'
p1395
sg31
g58
sg32
S'--'
p1396
sg34
g24
sg36
g24
sg38
g24
sg40
g24
sg42
S'10/03'
p1397
sg44
S'Brian Hoyer'
p1398
sg46
S'69.8'
p1399
sg48
S'W37-24'
p1400
sg50
S'2013'
p1401
ssg209
(dp1402
g5
S'38'
p1403
sg7
g209
sg9
S'1.8'
p1404
sg11
S'65.8'
p1405
sg13
g209
sg15
S'269'
p1406
sg17
S'7.1'
p1407
sg19
S'--'
p1408
sg21
S'CIN'
p1409
sg23
g58
sg25
S'25'
p1410
sg27
S'22'
p1411
sg29
g165
sg31
g58
sg32
S'--'
p1412
sg34
g24
sg36
g67
sg38
g79
sg40
g24
sg42
S'09/29'
p1413
sg44
S'Brian Hoyer'
p1414
sg46
S'103.9'
p1415
sg48
S'W17-6'
p1416
sg50
S'2013'
p1417
sssS'2012'
p1418
(dp1419
g73
(dp1420
g5
S'--'
p1421
sg7
S'13'
p1422
sg9
S'--'
p1423
sg11
S'--'
p1424
sg13
S'--'
p1425
sg15
S'--'
p1426
sg17
S'--'
p1427
sg19
S'--'
p1428
sg21
S'@BAL'
p1429
sg23
g24
sg25
S'--'
p1430
sg27
S'--'
p1431
sg29
S'--'
p1432
sg31
g24
sg32
S'--'
p1433
sg34
S'--'
p1434
sg36
S'--'
p1435
sg38
S'--'
p1436
sg40
S'--'
p1437
sg42
S'12/02'
p1438
sg44
S'Brian Hoyer'
p1439
sg46
S'0.0'
p1440
sg48
S'W23-20'
p1441
sg50
S'2012'
p1442
ssg93
(dp1443
g5
S'--'
p1444
sg7
S'12'
p1445
sg9
S'--'
p1446
sg11
S'--'
p1447
sg13
S'--'
p1448
sg15
S'--'
p1449
sg17
S'--'
p1450
sg19
S'--'
p1451
sg21
S'@CLE'
p1452
sg23
g24
sg25
S'--'
p1453
sg27
S'--'
p1454
sg29
S'--'
p1455
sg31
g24
sg32
S'--'
p1456
sg34
S'--'
p1457
sg36
S'--'
p1458
sg38
S'--'
p1459
sg40
S'--'
p1460
sg42
S'11/25'
p1461
sg44
S'Brian Hoyer'
p1462
sg46
S'0.0'
p1463
sg48
S'L14-20'
p1464
sg50
S'2012'
p1465
ssg112
(dp1466
g5
S'--'
p1467
sg7
S'15'
p1468
sg9
S'--'
p1469
sg11
S'--'
p1470
sg13
S'--'
p1471
sg15
S'--'
p1472
sg17
S'--'
p1473
sg19
S'--'
p1474
sg21
S'DET'
p1475
sg23
g24
sg25
S'--'
p1476
sg27
S'--'
p1477
sg29
S'--'
p1478
sg31
g24
sg32
S'--'
p1479
sg34
S'--'
p1480
sg36
S'--'
p1481
sg38
S'--'
p1482
sg40
S'--'
p1483
sg42
S'12/16'
p1484
sg44
S'Brian Hoyer'
p1485
sg46
S'0.0'
p1486
sg48
S'W38-10'
p1487
sg50
S'2012'
p1488
ssg154
(dp1489
g5
S'34'
p1490
sg7
S'17'
p1491
sg9
S'6.0'
p1492
sg11
S'55.9'
p1493
sg13
g58
sg15
S'225'
p1494
sg17
S'6.6'
p1495
sg19
S'--'
p1496
sg21
S'@SF'
p1497
sg23
g58
sg25
S'19'
p1498
sg27
S'18'
p1499
sg29
g311
sg31
g58
sg32
S'--'
p1500
sg34
g24
sg36
g58
sg38
g67
sg40
g58
sg42
S'12/30'
p1501
sg44
S'Brian Hoyer'
p1502
sg46
S'73.8'
p1503
sg48
S'L13-27'
p1504
sg50
S'2012'
p1505
ssg173
(dp1506
g5
S'19'
p1507
sg7
S'16'
p1508
sg9
S'--'
p1509
sg11
S'57.9'
p1510
sg13
S'--'
p1511
sg15
S'105'
p1512
sg17
S'5.5'
p1513
sg19
g58
sg21
S'CHI'
p1514
sg23
g58
sg25
S'11'
p1515
sg27
S'12'
p1516
sg29
S'--'
p1517
sg31
g24
sg32
g24
sg34
S'--'
p1518
sg36
g24
sg38
g67
sg40
g58
sg42
S'12/23'
p1519
sg44
S'Brian Hoyer'
p1520
sg46
S'51.4'
p1521
sg48
S'L13-28'
p1522
sg50
S'2012'
p1523
sss.