(dp0
S'2014'
p1
(dp2
S'11'
p3
(dp4
S'PassAtt'
p5
S'--'
p6
sS'WK'
p7
S'11'
p8
sS'RushAvg'
p9
S'--'
p10
sS'Pct'
p11
S'--'
p12
sS'RushAtt'
p13
S'--'
p14
sS'PassYds'
p15
S'--'
p16
sS'PassAvg'
p17
S'--'
p18
sS'FUM'
p19
S'--'
p20
sS'Opp'
p21
S'@TEN'
p22
sS'G'
p23
S'0'
p24
sS'Comp'
p25
S'--'
p26
sS'SckY'
p27
S'--'
p28
sS'RushYds'
p29
S'--'
p30
sS'GS'
p31
g24
sS'Lost'
p32
S'--'
p33
sS'RushTD'
p34
S'--'
p35
sS'PassTD'
p36
S'--'
p37
sS'Sck'
p38
S'--'
p39
sS'Int'
p40
S'--'
p41
sS'Game Date'
p42
S'11/17'
p43
sS'Player'
p44
S'Bruce Gradkowski'
p45
sS'Rate'
p46
S'0.0'
p47
sS'Result'
p48
S'W27-24'
p49
sS'Year'
p50
S'2014'
p51
ssS'10'
p52
(dp53
g5
S'--'
p54
sg7
S'10'
p55
sg9
S'--'
p56
sg11
S'--'
p57
sg13
S'--'
p58
sg15
S'--'
p59
sg17
S'--'
p60
sg19
S'--'
p61
sg21
S'@NYJ'
p62
sg23
g24
sg25
S'--'
p63
sg27
S'--'
p64
sg29
S'--'
p65
sg31
g24
sg32
S'--'
p66
sg34
S'--'
p67
sg36
S'--'
p68
sg38
S'--'
p69
sg40
S'--'
p70
sg42
S'11/09'
p71
sg44
S'Bruce Gradkowski'
p72
sg46
S'0.0'
p73
sg48
S'L13-20'
p74
sg50
S'2014'
p75
ssS'13'
p76
(dp77
g5
S'--'
p78
sg7
S'13'
p79
sg9
S'--'
p80
sg11
S'--'
p81
sg13
S'--'
p82
sg15
S'--'
p83
sg17
S'--'
p84
sg19
S'--'
p85
sg21
S'NO'
p86
sg23
g24
sg25
S'--'
p87
sg27
S'--'
p88
sg29
S'--'
p89
sg31
g24
sg32
S'--'
p90
sg34
S'--'
p91
sg36
S'--'
p92
sg38
S'--'
p93
sg40
S'--'
p94
sg42
S'11/30'
p95
sg44
S'Bruce Gradkowski'
p96
sg46
S'0.0'
p97
sg48
S'L32-35'
p98
sg50
S'2014'
p99
ssS'12'
p100
(dp101
g5
S''
p102
sg7
S'12'
p103
sg9
g102
sg11
g102
sg13
g102
sg15
g102
sg17
g102
sg19
g102
sg21
g102
sg23
g102
sg25
g102
sg27
g102
sg29
g102
sg31
g102
sg32
g102
sg34
g102
sg36
g102
sg38
g102
sg40
g102
sg42
S'Bye'
p104
sg44
S'Bruce Gradkowski'
p105
sg46
g102
sg48
g102
sg50
S'2014'
p106
ssS'15'
p107
(dp108
g5
S'--'
p109
sg7
S'15'
p110
sg9
S'--'
p111
sg11
S'--'
p112
sg13
S'--'
p113
sg15
S'--'
p114
sg17
S'--'
p115
sg19
S'--'
p116
sg21
S'@ATL'
p117
sg23
g24
sg25
S'--'
p118
sg27
S'--'
p119
sg29
S'--'
p120
sg31
g24
sg32
S'--'
p121
sg34
S'--'
p122
sg36
S'--'
p123
sg38
S'--'
p124
sg40
S'--'
p125
sg42
S'12/14'
p126
sg44
S'Bruce Gradkowski'
p127
sg46
S'0.0'
p128
sg48
S'W27-20'
p129
sg50
S'2014'
p130
ssS'14'
p131
(dp132
g5
S'--'
p133
sg7
S'14'
p134
sg9
S'--'
p135
sg11
S'--'
p136
sg13
S'--'
p137
sg15
S'--'
p138
sg17
S'--'
p139
sg19
S'--'
p140
sg21
S'@CIN'
p141
sg23
g24
sg25
S'--'
p142
sg27
S'--'
p143
sg29
S'--'
p144
sg31
g24
sg32
S'--'
p145
sg34
S'--'
p146
sg36
S'--'
p147
sg38
S'--'
p148
sg40
S'--'
p149
sg42
S'12/07'
p150
sg44
S'Bruce Gradkowski'
p151
sg46
S'0.0'
p152
sg48
S'W42-21'
p153
sg50
S'2014'
p154
ssS'17'
p155
(dp156
g5
S'--'
p157
sg7
S'17'
p158
sg9
S'--'
p159
sg11
S'--'
p160
sg13
S'--'
p161
sg15
S'--'
p162
sg17
S'--'
p163
sg19
S'--'
p164
sg21
S'CIN'
p165
sg23
g24
sg25
S'--'
p166
sg27
S'--'
p167
sg29
S'--'
p168
sg31
g24
sg32
S'--'
p169
sg34
S'--'
p170
sg36
S'--'
p171
sg38
S'--'
p172
sg40
S'--'
p173
sg42
S'12/28'
p174
sg44
S'Bruce Gradkowski'
p175
sg46
S'0.0'
p176
sg48
S'W27-17'
p177
sg50
S'2014'
p178
ssS'16'
p179
(dp180
g5
S'--'
p181
sg7
S'16'
p182
sg9
S'--'
p183
sg11
S'--'
p184
sg13
S'--'
p185
sg15
S'--'
p186
sg17
S'--'
p187
sg19
S'--'
p188
sg21
S'KC'
p189
sg23
g24
sg25
S'--'
p190
sg27
S'--'
p191
sg29
S'--'
p192
sg31
g24
sg32
S'--'
p193
sg34
S'--'
p194
sg36
S'--'
p195
sg38
S'--'
p196
sg40
S'--'
p197
sg42
S'12/21'
p198
sg44
S'Bruce Gradkowski'
p199
sg46
S'0.0'
p200
sg48
S'W20-12'
p201
sg50
S'2014'
p202
ssS'1'
p203
(dp204
g5
S'--'
p205
sg7
g203
sg9
S'--'
p206
sg11
S'--'
p207
sg13
S'--'
p208
sg15
S'--'
p209
sg17
S'--'
p210
sg19
S'--'
p211
sg21
S'CLE'
p212
sg23
g24
sg25
S'--'
p213
sg27
S'--'
p214
sg29
S'--'
p215
sg31
g24
sg32
S'--'
p216
sg34
S'--'
p217
sg36
S'--'
p218
sg38
S'--'
p219
sg40
S'--'
p220
sg42
S'09/07'
p221
sg44
S'Bruce Gradkowski'
p222
sg46
S'0.0'
p223
sg48
S'W30-27'
p224
sg50
S'2014'
p225
ssS'3'
p226
(dp227
g5
S'--'
p228
sg7
g226
sg9
S'-1.0'
p229
sg11
S'--'
p230
sg13
S'2'
p231
sg15
S'--'
p232
sg17
S'--'
p233
sg19
S'--'
p234
sg21
S'@CAR'
p235
sg23
g203
sg25
S'--'
p236
sg27
S'--'
p237
sg29
S'-2'
p238
sg31
g24
sg32
S'--'
p239
sg34
g24
sg36
S'--'
p240
sg38
S'--'
p241
sg40
S'--'
p242
sg42
S'09/21'
p243
sg44
S'Bruce Gradkowski'
p244
sg46
S'0.0'
p245
sg48
S'W37-19'
p246
sg50
S'2014'
p247
ssg231
(dp248
g5
S'--'
p249
sg7
g231
sg9
S'--'
p250
sg11
S'--'
p251
sg13
S'--'
p252
sg15
S'--'
p253
sg17
S'--'
p254
sg19
S'--'
p255
sg21
S'@BAL'
p256
sg23
g24
sg25
S'--'
p257
sg27
S'--'
p258
sg29
S'--'
p259
sg31
g24
sg32
S'--'
p260
sg34
S'--'
p261
sg36
S'--'
p262
sg38
S'--'
p263
sg40
S'--'
p264
sg42
S'09/11'
p265
sg44
S'Bruce Gradkowski'
p266
sg46
S'0.0'
p267
sg48
S'L6-26'
p268
sg50
S'2014'
p269
ssS'5'
p270
(dp271
g5
S'--'
p272
sg7
g270
sg9
S'--'
p273
sg11
S'--'
p274
sg13
S'--'
p275
sg15
S'--'
p276
sg17
S'--'
p277
sg19
S'--'
p278
sg21
S'@JAC'
p279
sg23
g24
sg25
S'--'
p280
sg27
S'--'
p281
sg29
S'--'
p282
sg31
g24
sg32
S'--'
p283
sg34
S'--'
p284
sg36
S'--'
p285
sg38
S'--'
p286
sg40
S'--'
p287
sg42
S'10/05'
p288
sg44
S'Bruce Gradkowski'
p289
sg46
S'0.0'
p290
sg48
S'W17-9'
p291
sg50
S'2014'
p292
ssS'4'
p293
(dp294
g5
S'--'
p295
sg7
g293
sg9
S'--'
p296
sg11
S'--'
p297
sg13
S'--'
p298
sg15
S'--'
p299
sg17
S'--'
p300
sg19
S'--'
p301
sg21
S'TB'
p302
sg23
g24
sg25
S'--'
p303
sg27
S'--'
p304
sg29
S'--'
p305
sg31
g24
sg32
S'--'
p306
sg34
S'--'
p307
sg36
S'--'
p308
sg38
S'--'
p309
sg40
S'--'
p310
sg42
S'09/28'
p311
sg44
S'Bruce Gradkowski'
p312
sg46
S'0.0'
p313
sg48
S'L24-27'
p314
sg50
S'2014'
p315
ssS'7'
p316
(dp317
g5
S'--'
p318
sg7
g316
sg9
S'--'
p319
sg11
S'--'
p320
sg13
S'--'
p321
sg15
S'--'
p322
sg17
S'--'
p323
sg19
S'--'
p324
sg21
S'HOU'
p325
sg23
g24
sg25
S'--'
p326
sg27
S'--'
p327
sg29
S'--'
p328
sg31
g24
sg32
S'--'
p329
sg34
S'--'
p330
sg36
S'--'
p331
sg38
S'--'
p332
sg40
S'--'
p333
sg42
S'10/20'
p334
sg44
S'Bruce Gradkowski'
p335
sg46
S'0.0'
p336
sg48
S'W30-23'
p337
sg50
S'2014'
p338
ssS'6'
p339
(dp340
g5
S'--'
p341
sg7
g339
sg9
S'--'
p342
sg11
S'--'
p343
sg13
S'--'
p344
sg15
S'--'
p345
sg17
S'--'
p346
sg19
S'--'
p347
sg21
S'@CLE'
p348
sg23
g24
sg25
S'--'
p349
sg27
S'--'
p350
sg29
S'--'
p351
sg31
g24
sg32
S'--'
p352
sg34
S'--'
p353
sg36
S'--'
p354
sg38
S'--'
p355
sg40
S'--'
p356
sg42
S'10/12'
p357
sg44
S'Bruce Gradkowski'
p358
sg46
S'0.0'
p359
sg48
S'L10-31'
p360
sg50
S'2014'
p361
ssS'9'
p362
(dp363
g5
S'--'
p364
sg7
g362
sg9
S'--'
p365
sg11
S'--'
p366
sg13
S'--'
p367
sg15
S'--'
p368
sg17
S'--'
p369
sg19
S'--'
p370
sg21
S'BAL'
p371
sg23
g24
sg25
S'--'
p372
sg27
S'--'
p373
sg29
S'--'
p374
sg31
g24
sg32
S'--'
p375
sg34
S'--'
p376
sg36
S'--'
p377
sg38
S'--'
p378
sg40
S'--'
p379
sg42
S'11/02'
p380
sg44
S'Bruce Gradkowski'
p381
sg46
S'0.0'
p382
sg48
S'W43-23'
p383
sg50
S'2014'
p384
ssS'8'
p385
(dp386
g5
S'--'
p387
sg7
g385
sg9
S'--'
p388
sg11
S'--'
p389
sg13
S'--'
p390
sg15
S'--'
p391
sg17
S'--'
p392
sg19
S'--'
p393
sg21
S'IND'
p394
sg23
g24
sg25
S'--'
p395
sg27
S'--'
p396
sg29
S'--'
p397
sg31
g24
sg32
S'--'
p398
sg34
S'--'
p399
sg36
S'--'
p400
sg38
S'--'
p401
sg40
S'--'
p402
sg42
S'10/26'
p403
sg44
S'Bruce Gradkowski'
p404
sg46
S'0.0'
p405
sg48
S'W51-34'
p406
sg50
S'2014'
p407
sssS'2011'
p408
(dp409
g3
(dp410
g5
S'--'
p411
sg7
S'11'
p412
sg9
S'--'
p413
sg11
S'--'
p414
sg13
S'--'
p415
sg15
S'--'
p416
sg17
S'--'
p417
sg19
S'--'
p418
sg21
S'@BAL'
p419
sg23
g24
sg25
S'--'
p420
sg27
S'--'
p421
sg29
S'--'
p422
sg31
g24
sg32
S'--'
p423
sg34
S'--'
p424
sg36
S'--'
p425
sg38
S'--'
p426
sg40
S'--'
p427
sg42
S'11/20'
p428
sg44
S'Bruce Gradkowski'
p429
sg46
S'0.0'
p430
sg48
S'L24-31'
p431
sg50
S'2011'
p432
ssg52
(dp433
g5
S'--'
p434
sg7
S'10'
p435
sg9
S'--'
p436
sg11
S'--'
p437
sg13
S'--'
p438
sg15
S'--'
p439
sg17
S'--'
p440
sg19
S'--'
p441
sg21
S'PIT'
p442
sg23
g24
sg25
S'--'
p443
sg27
S'--'
p444
sg29
S'--'
p445
sg31
g24
sg32
S'--'
p446
sg34
S'--'
p447
sg36
S'--'
p448
sg38
S'--'
p449
sg40
S'--'
p450
sg42
S'11/13'
p451
sg44
S'Bruce Gradkowski'
p452
sg46
S'0.0'
p453
sg48
S'L17-24'
p454
sg50
S'2011'
p455
ssg76
(dp456
g5
g339
sg7
S'13'
p457
sg9
S'1.0'
p458
sg11
S'50.0'
p459
sg13
g203
sg15
S'17'
p460
sg17
S'2.8'
p461
sg19
S'--'
p462
sg21
S'@PIT'
p463
sg23
g203
sg25
g226
sg27
g24
sg29
g203
sg31
g24
sg32
S'--'
p464
sg34
g24
sg36
g24
sg38
g24
sg40
g203
sg42
S'12/04'
p465
sg44
S'Bruce Gradkowski'
p466
sg46
S'16.7'
p467
sg48
S'L7-35'
p468
sg50
S'2011'
p469
ssg100
(dp470
g5
S'--'
p471
sg7
S'12'
p472
sg9
S'--'
p473
sg11
S'--'
p474
sg13
S'--'
p475
sg15
S'--'
p476
sg17
S'--'
p477
sg19
S'--'
p478
sg21
S'CLE'
p479
sg23
g24
sg25
S'--'
p480
sg27
S'--'
p481
sg29
S'--'
p482
sg31
g24
sg32
S'--'
p483
sg34
S'--'
p484
sg36
S'--'
p485
sg38
S'--'
p486
sg40
S'--'
p487
sg42
S'11/27'
p488
sg44
S'Bruce Gradkowski'
p489
sg46
S'0.0'
p490
sg48
S'W23-20'
p491
sg50
S'2011'
p492
ssg107
(dp493
g5
S'--'
p494
sg7
S'15'
p495
sg9
S'--'
p496
sg11
S'--'
p497
sg13
S'--'
p498
sg15
S'--'
p499
sg17
S'--'
p500
sg19
S'--'
p501
sg21
S'@STL'
p502
sg23
g24
sg25
S'--'
p503
sg27
S'--'
p504
sg29
S'--'
p505
sg31
g24
sg32
S'--'
p506
sg34
S'--'
p507
sg36
S'--'
p508
sg38
S'--'
p509
sg40
S'--'
p510
sg42
S'12/18'
p511
sg44
S'Bruce Gradkowski'
p512
sg46
S'0.0'
p513
sg48
S'W20-13'
p514
sg50
S'2011'
p515
ssg131
(dp516
g5
S'--'
p517
sg7
S'14'
p518
sg9
S'--'
p519
sg11
S'--'
p520
sg13
S'--'
p521
sg15
S'--'
p522
sg17
S'--'
p523
sg19
S'--'
p524
sg21
S'HOU'
p525
sg23
g24
sg25
S'--'
p526
sg27
S'--'
p527
sg29
S'--'
p528
sg31
g24
sg32
S'--'
p529
sg34
S'--'
p530
sg36
S'--'
p531
sg38
S'--'
p532
sg40
S'--'
p533
sg42
S'12/11'
p534
sg44
S'Bruce Gradkowski'
p535
sg46
S'0.0'
p536
sg48
S'L19-20'
p537
sg50
S'2011'
p538
ssg155
(dp539
g5
S'--'
p540
sg7
S'17'
p541
sg9
S'--'
p542
sg11
S'--'
p543
sg13
S'--'
p544
sg15
S'--'
p545
sg17
S'--'
p546
sg19
S'--'
p547
sg21
S'BAL'
p548
sg23
g24
sg25
S'--'
p549
sg27
S'--'
p550
sg29
S'--'
p551
sg31
g24
sg32
S'--'
p552
sg34
S'--'
p553
sg36
S'--'
p554
sg38
S'--'
p555
sg40
S'--'
p556
sg42
S'01/01'
p557
sg44
S'Bruce Gradkowski'
p558
sg46
S'0.0'
p559
sg48
S'L16-24'
p560
sg50
S'2011'
p561
ssg179
(dp562
g5
S'--'
p563
sg7
S'16'
p564
sg9
S'--'
p565
sg11
S'--'
p566
sg13
S'--'
p567
sg15
S'--'
p568
sg17
S'--'
p569
sg19
S'--'
p570
sg21
S'ARI'
p571
sg23
g24
sg25
S'--'
p572
sg27
S'--'
p573
sg29
S'--'
p574
sg31
g24
sg32
S'--'
p575
sg34
S'--'
p576
sg36
S'--'
p577
sg38
S'--'
p578
sg40
S'--'
p579
sg42
S'12/24'
p580
sg44
S'Bruce Gradkowski'
p581
sg46
S'0.0'
p582
sg48
S'W23-16'
p583
sg50
S'2011'
p584
ssg203
(dp585
g5
S'12'
p586
sg7
g203
sg9
S'0.0'
p587
sg11
S'41.7'
p588
sg13
g231
sg15
S'92'
p589
sg17
S'7.7'
p590
sg19
S'--'
p591
sg21
S'@CLE'
p592
sg23
g203
sg25
g270
sg27
g316
sg29
g24
sg31
g24
sg32
S'--'
p593
sg34
g24
sg36
g203
sg38
g203
sg40
g24
sg42
S'09/11'
p594
sg44
S'Bruce Gradkowski'
p595
sg46
S'96.5'
p596
sg48
S'W27-17'
p597
sg50
S'2011'
p598
ssg226
(dp599
g5
S'--'
p600
sg7
g226
sg9
S'--'
p601
sg11
S'--'
p602
sg13
S'--'
p603
sg15
S'--'
p604
sg17
S'--'
p605
sg19
S'--'
p606
sg21
S'SF'
p607
sg23
g24
sg25
S'--'
p608
sg27
S'--'
p609
sg29
S'--'
p610
sg31
g24
sg32
S'--'
p611
sg34
S'--'
p612
sg36
S'--'
p613
sg38
S'--'
p614
sg40
S'--'
p615
sg42
S'09/25'
p616
sg44
S'Bruce Gradkowski'
p617
sg46
S'0.0'
p618
sg48
S'L8-13'
p619
sg50
S'2011'
p620
ssg231
(dp621
g5
S'--'
p622
sg7
g231
sg9
S'--'
p623
sg11
S'--'
p624
sg13
S'--'
p625
sg15
S'--'
p626
sg17
S'--'
p627
sg19
S'--'
p628
sg21
S'@DEN'
p629
sg23
g24
sg25
S'--'
p630
sg27
S'--'
p631
sg29
S'--'
p632
sg31
g24
sg32
S'--'
p633
sg34
S'--'
p634
sg36
S'--'
p635
sg38
S'--'
p636
sg40
S'--'
p637
sg42
S'09/18'
p638
sg44
S'Bruce Gradkowski'
p639
sg46
S'0.0'
p640
sg48
S'L22-24'
p641
sg50
S'2011'
p642
ssg270
(dp643
g5
S'--'
p644
sg7
g270
sg9
S'--'
p645
sg11
S'--'
p646
sg13
S'--'
p647
sg15
S'--'
p648
sg17
S'--'
p649
sg19
S'--'
p650
sg21
S'@JAC'
p651
sg23
g24
sg25
S'--'
p652
sg27
S'--'
p653
sg29
S'--'
p654
sg31
g24
sg32
S'--'
p655
sg34
S'--'
p656
sg36
S'--'
p657
sg38
S'--'
p658
sg40
S'--'
p659
sg42
S'10/09'
p660
sg44
S'Bruce Gradkowski'
p661
sg46
S'0.0'
p662
sg48
S'W30-20'
p663
sg50
S'2011'
p664
ssg293
(dp665
g5
S'--'
p666
sg7
g293
sg9
S'--'
p667
sg11
S'--'
p668
sg13
S'--'
p669
sg15
S'--'
p670
sg17
S'--'
p671
sg19
S'--'
p672
sg21
S'BUF'
p673
sg23
g24
sg25
S'--'
p674
sg27
S'--'
p675
sg29
S'--'
p676
sg31
g24
sg32
S'--'
p677
sg34
S'--'
p678
sg36
S'--'
p679
sg38
S'--'
p680
sg40
S'--'
p681
sg42
S'10/02'
p682
sg44
S'Bruce Gradkowski'
p683
sg46
S'0.0'
p684
sg48
S'W23-20'
p685
sg50
S'2011'
p686
ssg316
(dp687
g5
g102
sg7
g316
sg9
g102
sg11
g102
sg13
g102
sg15
g102
sg17
g102
sg19
g102
sg21
g102
sg23
g102
sg25
g102
sg27
g102
sg29
g102
sg31
g102
sg32
g102
sg34
g102
sg36
g102
sg38
g102
sg40
g102
sg42
S'Bye'
p688
sg44
S'Bruce Gradkowski'
p689
sg46
g102
sg48
g102
sg50
S'2011'
p690
ssg339
(dp691
g5
S'--'
p692
sg7
g339
sg9
S'--'
p693
sg11
S'--'
p694
sg13
S'--'
p695
sg15
S'--'
p696
sg17
S'--'
p697
sg19
S'--'
p698
sg21
S'IND'
p699
sg23
g24
sg25
S'--'
p700
sg27
S'--'
p701
sg29
S'--'
p702
sg31
g24
sg32
S'--'
p703
sg34
S'--'
p704
sg36
S'--'
p705
sg38
S'--'
p706
sg40
S'--'
p707
sg42
S'10/16'
p708
sg44
S'Bruce Gradkowski'
p709
sg46
S'0.0'
p710
sg48
S'W27-17'
p711
sg50
S'2011'
p712
ssg362
(dp713
g5
S'--'
p714
sg7
g362
sg9
S'--'
p715
sg11
S'--'
p716
sg13
S'--'
p717
sg15
S'--'
p718
sg17
S'--'
p719
sg19
S'--'
p720
sg21
S'@TEN'
p721
sg23
g24
sg25
S'--'
p722
sg27
S'--'
p723
sg29
S'--'
p724
sg31
g24
sg32
S'--'
p725
sg34
S'--'
p726
sg36
S'--'
p727
sg38
S'--'
p728
sg40
S'--'
p729
sg42
S'11/06'
p730
sg44
S'Bruce Gradkowski'
p731
sg46
S'0.0'
p732
sg48
S'W24-17'
p733
sg50
S'2011'
p734
ssg385
(dp735
g5
S'--'
p736
sg7
g385
sg9
S'--'
p737
sg11
S'--'
p738
sg13
S'--'
p739
sg15
S'--'
p740
sg17
S'--'
p741
sg19
S'--'
p742
sg21
S'@SEA'
p743
sg23
g24
sg25
S'--'
p744
sg27
S'--'
p745
sg29
S'--'
p746
sg31
g24
sg32
S'--'
p747
sg34
S'--'
p748
sg36
S'--'
p749
sg38
S'--'
p750
sg40
S'--'
p751
sg42
S'10/30'
p752
sg44
S'Bruce Gradkowski'
p753
sg46
S'0.0'
p754
sg48
S'W34-12'
p755
sg50
S'2011'
p756
sssS'2010'
p757
(dp758
g3
(dp759
g5
S'24'
p760
sg7
S'11'
p761
sg9
S'12.0'
p762
sg11
S'54.2'
p763
sg13
g203
sg15
S'98'
p764
sg17
S'4.1'
p765
sg19
S'--'
p766
sg21
S'@PIT'
p767
sg23
g203
sg25
S'13'
p768
sg27
S'15'
p769
sg29
S'12'
p770
sg31
g24
sg32
S'--'
p771
sg34
g24
sg36
g24
sg38
g231
sg40
g203
sg42
S'11/21'
p772
sg44
S'Bruce Gradkowski'
p773
sg46
S'46.9'
p774
sg48
S'L3-35'
p775
sg50
S'2010'
p776
ssg52
(dp777
g5
g102
sg7
S'10'
p778
sg9
g102
sg11
g102
sg13
g102
sg15
g102
sg17
g102
sg19
g102
sg21
g102
sg23
g102
sg25
g102
sg27
g102
sg29
g102
sg31
g102
sg32
g102
sg34
g102
sg36
g102
sg38
g102
sg40
g102
sg42
S'Bye'
p779
sg44
S'Bruce Gradkowski'
p780
sg46
g102
sg48
g102
sg50
S'2010'
p781
ssg100
(dp782
g5
S'32'
p783
sg7
S'12'
p784
sg9
S'--'
p785
sg11
S'53.1'
p786
sg13
S'--'
p787
sg15
S'252'
p788
sg17
S'7.9'
p789
sg19
S'--'
p790
sg21
S'MIA'
p791
sg23
g203
sg25
S'17'
p792
sg27
g270
sg29
S'--'
p793
sg31
g203
sg32
S'--'
p794
sg34
S'--'
p795
sg36
g203
sg38
g203
sg40
g231
sg42
S'11/28'
p796
sg44
S'Bruce Gradkowski'
p797
sg46
S'63.5'
p798
sg48
S'L17-33'
p799
sg50
S'2010'
p800
ssg203
(dp801
g5
S'--'
p802
sg7
g203
sg9
S'--'
p803
sg11
S'--'
p804
sg13
S'--'
p805
sg15
S'--'
p806
sg17
S'--'
p807
sg19
S'--'
p808
sg21
S'@TEN'
p809
sg23
g24
sg25
S'--'
p810
sg27
S'--'
p811
sg29
S'--'
p812
sg31
g24
sg32
S'--'
p813
sg34
S'--'
p814
sg36
S'--'
p815
sg38
S'--'
p816
sg40
S'--'
p817
sg42
S'09/12'
p818
sg44
S'Bruce Gradkowski'
p819
sg46
S'0.0'
p820
sg48
S'L13-38'
p821
sg50
S'2010'
p822
ssg226
(dp823
g5
S'34'
p824
sg7
g226
sg9
S'3.3'
p825
sg11
S'50.0'
p826
sg13
g293
sg15
S'255'
p827
sg17
S'7.5'
p828
sg19
g203
sg21
S'@ARI'
p829
sg23
g203
sg25
S'17'
p830
sg27
S'24'
p831
sg29
S'13'
p832
sg31
g203
sg32
g24
sg34
g24
sg36
g203
sg38
g226
sg40
g203
sg42
S'09/26'
p833
sg44
S'Bruce Gradkowski'
p834
sg46
S'72.5'
p835
sg48
S'L23-24'
p836
sg50
S'2010'
p837
ssg231
(dp838
g5
S'21'
p839
sg7
g231
sg9
S'0.0'
p840
sg11
S'52.4'
p841
sg13
g293
sg15
S'162'
p842
sg17
S'7.7'
p843
sg19
S'--'
p844
sg21
S'STL'
p845
sg23
g203
sg25
S'11'
p846
sg27
g24
sg29
g24
sg31
g24
sg32
S'--'
p847
sg34
g24
sg36
g203
sg38
g24
sg40
g203
sg42
S'09/19'
p848
sg44
S'Bruce Gradkowski'
p849
sg46
S'73.9'
p850
sg48
S'W16-14'
p851
sg50
S'2010'
p852
ssg270
(dp853
g5
g316
sg7
g270
sg9
S'--'
p854
sg11
S'14.3'
p855
sg13
S'--'
p856
sg15
S'14'
p857
sg17
S'2.0'
p858
sg19
S'--'
p859
sg21
S'SD'
p860
sg23
g203
sg25
g203
sg27
g24
sg29
S'--'
p861
sg31
g203
sg32
S'--'
p862
sg34
S'--'
p863
sg36
g24
sg38
g24
sg40
g24
sg42
S'10/10'
p864
sg44
S'Bruce Gradkowski'
p865
sg46
S'39.6'
p866
sg48
S'W35-27'
p867
sg50
S'2010'
p868
ssg293
(dp869
g5
S'39'
p870
sg7
g293
sg9
S'5.3'
p871
sg11
S'61.5'
p872
sg13
g226
sg15
S'278'
p873
sg17
S'7.1'
p874
sg19
g231
sg21
S'HOU'
p875
sg23
g203
sg25
S'24'
p876
sg27
S'33'
p877
sg29
S'16'
p878
sg31
g203
sg32
g203
sg34
g24
sg36
g231
sg38
g293
sg40
g231
sg42
S'10/03'
p879
sg44
S'Bruce Gradkowski'
p880
sg46
S'78.8'
p881
sg48
S'L24-31'
p882
sg50
S'2010'
p883
ssg316
(dp884
g5
S'--'
p885
sg7
g316
sg9
S'--'
p886
sg11
S'--'
p887
sg13
S'--'
p888
sg15
S'--'
p889
sg17
S'--'
p890
sg19
S'--'
p891
sg21
S'@DEN'
p892
sg23
g24
sg25
S'--'
p893
sg27
S'--'
p894
sg29
S'--'
p895
sg31
g24
sg32
S'--'
p896
sg34
S'--'
p897
sg36
S'--'
p898
sg38
S'--'
p899
sg40
S'--'
p900
sg42
S'10/24'
p901
sg44
S'Bruce Gradkowski'
p902
sg46
S'0.0'
p903
sg48
S'W59-14'
p904
sg50
S'2010'
p905
ssg339
(dp906
g5
S'--'
p907
sg7
g339
sg9
S'--'
p908
sg11
S'--'
p909
sg13
S'--'
p910
sg15
S'--'
p911
sg17
S'--'
p912
sg19
S'--'
p913
sg21
S'@SF'
p914
sg23
g24
sg25
S'--'
p915
sg27
S'--'
p916
sg29
S'--'
p917
sg31
g24
sg32
S'--'
p918
sg34
S'--'
p919
sg36
S'--'
p920
sg38
S'--'
p921
sg40
S'--'
p922
sg42
S'10/17'
p923
sg44
S'Bruce Gradkowski'
p924
sg46
S'0.0'
p925
sg48
S'L9-17'
p926
sg50
S'2010'
p927
ssg362
(dp928
g5
S'--'
p929
sg7
g362
sg9
S'--'
p930
sg11
S'--'
p931
sg13
S'--'
p932
sg15
S'--'
p933
sg17
S'--'
p934
sg19
S'--'
p935
sg21
S'KC'
p936
sg23
g24
sg25
S'--'
p937
sg27
S'--'
p938
sg29
S'--'
p939
sg31
g24
sg32
S'--'
p940
sg34
S'--'
p941
sg36
S'--'
p942
sg38
S'--'
p943
sg40
S'--'
p944
sg42
S'11/07'
p945
sg44
S'Bruce Gradkowski'
p946
sg46
S'0.0'
p947
sg48
S'W23-20'
p948
sg50
S'2010'
p949
ssg385
(dp950
g5
S'--'
p951
sg7
g385
sg9
S'--'
p952
sg11
S'--'
p953
sg13
S'--'
p954
sg15
S'--'
p955
sg17
S'--'
p956
sg19
S'--'
p957
sg21
S'SEA'
p958
sg23
g24
sg25
S'--'
p959
sg27
S'--'
p960
sg29
S'--'
p961
sg31
g24
sg32
S'--'
p962
sg34
S'--'
p963
sg36
S'--'
p964
sg38
S'--'
p965
sg40
S'--'
p966
sg42
S'10/31'
p967
sg44
S'Bruce Gradkowski'
p968
sg46
S'0.0'
p969
sg48
S'W33-3'
p970
sg50
S'2010'
p971
sssS'2013'
p972
(dp973
g3
(dp974
g5
S'--'
p975
sg7
S'11'
p976
sg9
S'--'
p977
sg11
S'--'
p978
sg13
S'--'
p979
sg15
S'--'
p980
sg17
S'--'
p981
sg19
S'--'
p982
sg21
S'DET'
p983
sg23
g24
sg25
S'--'
p984
sg27
S'--'
p985
sg29
S'--'
p986
sg31
g24
sg32
S'--'
p987
sg34
S'--'
p988
sg36
S'--'
p989
sg38
S'--'
p990
sg40
S'--'
p991
sg42
S'11/17'
p992
sg44
S'Bruce Gradkowski'
p993
sg46
S'0.0'
p994
sg48
S'W37-27'
p995
sg50
S'2013'
p996
ssg52
(dp997
g5
S'--'
p998
sg7
S'10'
p999
sg9
S'--'
p1000
sg11
S'--'
p1001
sg13
S'--'
p1002
sg15
S'--'
p1003
sg17
S'--'
p1004
sg19
S'--'
p1005
sg21
S'BUF'
p1006
sg23
g24
sg25
S'--'
p1007
sg27
S'--'
p1008
sg29
S'--'
p1009
sg31
g24
sg32
S'--'
p1010
sg34
S'--'
p1011
sg36
S'--'
p1012
sg38
S'--'
p1013
sg40
S'--'
p1014
sg42
S'11/10'
p1015
sg44
S'Bruce Gradkowski'
p1016
sg46
S'0.0'
p1017
sg48
S'W23-10'
p1018
sg50
S'2013'
p1019
ssg76
(dp1020
g5
S'--'
p1021
sg7
S'13'
p1022
sg9
S'--'
p1023
sg11
S'--'
p1024
sg13
S'--'
p1025
sg15
S'--'
p1026
sg17
S'--'
p1027
sg19
S'--'
p1028
sg21
S'@BAL'
p1029
sg23
g24
sg25
S'--'
p1030
sg27
S'--'
p1031
sg29
S'--'
p1032
sg31
g24
sg32
S'--'
p1033
sg34
S'--'
p1034
sg36
S'--'
p1035
sg38
S'--'
p1036
sg40
S'--'
p1037
sg42
S'11/28'
p1038
sg44
S'Bruce Gradkowski'
p1039
sg46
S'0.0'
p1040
sg48
S'L20-22'
p1041
sg50
S'2013'
p1042
ssg100
(dp1043
g5
S'--'
p1044
sg7
S'12'
p1045
sg9
S'--'
p1046
sg11
S'--'
p1047
sg13
S'--'
p1048
sg15
S'--'
p1049
sg17
S'--'
p1050
sg19
S'--'
p1051
sg21
S'@CLE'
p1052
sg23
g24
sg25
S'--'
p1053
sg27
S'--'
p1054
sg29
S'--'
p1055
sg31
g24
sg32
S'--'
p1056
sg34
S'--'
p1057
sg36
S'--'
p1058
sg38
S'--'
p1059
sg40
S'--'
p1060
sg42
S'11/24'
p1061
sg44
S'Bruce Gradkowski'
p1062
sg46
S'0.0'
p1063
sg48
S'W27-11'
p1064
sg50
S'2013'
p1065
ssg107
(dp1066
g5
S'--'
p1067
sg7
S'15'
p1068
sg9
S'--'
p1069
sg11
S'--'
p1070
sg13
S'--'
p1071
sg15
S'--'
p1072
sg17
S'--'
p1073
sg19
S'--'
p1074
sg21
S'CIN'
p1075
sg23
g24
sg25
S'--'
p1076
sg27
S'--'
p1077
sg29
S'--'
p1078
sg31
g24
sg32
S'--'
p1079
sg34
S'--'
p1080
sg36
S'--'
p1081
sg38
S'--'
p1082
sg40
S'--'
p1083
sg42
S'12/15'
p1084
sg44
S'Bruce Gradkowski'
p1085
sg46
S'0.0'
p1086
sg48
S'W30-20'
p1087
sg50
S'2013'
p1088
ssg131
(dp1089
g5
S'--'
p1090
sg7
S'14'
p1091
sg9
S'--'
p1092
sg11
S'--'
p1093
sg13
S'--'
p1094
sg15
S'--'
p1095
sg17
S'--'
p1096
sg19
S'--'
p1097
sg21
S'MIA'
p1098
sg23
g24
sg25
S'--'
p1099
sg27
S'--'
p1100
sg29
S'--'
p1101
sg31
g24
sg32
S'--'
p1102
sg34
S'--'
p1103
sg36
S'--'
p1104
sg38
S'--'
p1105
sg40
S'--'
p1106
sg42
S'12/08'
p1107
sg44
S'Bruce Gradkowski'
p1108
sg46
S'0.0'
p1109
sg48
S'L28-34'
p1110
sg50
S'2013'
p1111
ssg155
(dp1112
g5
S'--'
p1113
sg7
S'17'
p1114
sg9
S'--'
p1115
sg11
S'--'
p1116
sg13
S'--'
p1117
sg15
S'--'
p1118
sg17
S'--'
p1119
sg19
S'--'
p1120
sg21
S'CLE'
p1121
sg23
g24
sg25
S'--'
p1122
sg27
S'--'
p1123
sg29
S'--'
p1124
sg31
g24
sg32
S'--'
p1125
sg34
S'--'
p1126
sg36
S'--'
p1127
sg38
S'--'
p1128
sg40
S'--'
p1129
sg42
S'12/29'
p1130
sg44
S'Bruce Gradkowski'
p1131
sg46
S'0.0'
p1132
sg48
S'W20-7'
p1133
sg50
S'2013'
p1134
ssg179
(dp1135
g5
S'--'
p1136
sg7
S'16'
p1137
sg9
S'--'
p1138
sg11
S'--'
p1139
sg13
S'--'
p1140
sg15
S'--'
p1141
sg17
S'--'
p1142
sg19
S'--'
p1143
sg21
S'@GB'
p1144
sg23
g24
sg25
S'--'
p1145
sg27
S'--'
p1146
sg29
S'--'
p1147
sg31
g24
sg32
S'--'
p1148
sg34
S'--'
p1149
sg36
S'--'
p1150
sg38
S'--'
p1151
sg40
S'--'
p1152
sg42
S'12/22'
p1153
sg44
S'Bruce Gradkowski'
p1154
sg46
S'0.0'
p1155
sg48
S'W38-31'
p1156
sg50
S'2013'
p1157
ssg203
(dp1158
g5
S'--'
p1159
sg7
g203
sg9
S'--'
p1160
sg11
S'--'
p1161
sg13
S'--'
p1162
sg15
S'--'
p1163
sg17
S'--'
p1164
sg19
S'--'
p1165
sg21
S'TEN'
p1166
sg23
g24
sg25
S'--'
p1167
sg27
S'--'
p1168
sg29
S'--'
p1169
sg31
g24
sg32
S'--'
p1170
sg34
S'--'
p1171
sg36
S'--'
p1172
sg38
S'--'
p1173
sg40
S'--'
p1174
sg42
S'09/08'
p1175
sg44
S'Bruce Gradkowski'
p1176
sg46
S'0.0'
p1177
sg48
S'L9-16'
p1178
sg50
S'2013'
p1179
ssg226
(dp1180
g5
S'--'
p1181
sg7
g226
sg9
S'--'
p1182
sg11
S'--'
p1183
sg13
S'--'
p1184
sg15
S'--'
p1185
sg17
S'--'
p1186
sg19
S'--'
p1187
sg21
S'CHI'
p1188
sg23
g24
sg25
S'--'
p1189
sg27
S'--'
p1190
sg29
S'--'
p1191
sg31
g24
sg32
S'--'
p1192
sg34
S'--'
p1193
sg36
S'--'
p1194
sg38
S'--'
p1195
sg40
S'--'
p1196
sg42
S'09/22'
p1197
sg44
S'Bruce Gradkowski'
p1198
sg46
S'0.0'
p1199
sg48
S'L23-40'
p1200
sg50
S'2013'
p1201
ssg231
(dp1202
g5
S'--'
p1203
sg7
g231
sg9
S'--'
p1204
sg11
S'--'
p1205
sg13
S'--'
p1206
sg15
S'--'
p1207
sg17
S'--'
p1208
sg19
S'--'
p1209
sg21
S'@CIN'
p1210
sg23
g24
sg25
S'--'
p1211
sg27
S'--'
p1212
sg29
S'--'
p1213
sg31
g24
sg32
S'--'
p1214
sg34
S'--'
p1215
sg36
S'--'
p1216
sg38
S'--'
p1217
sg40
S'--'
p1218
sg42
S'09/16'
p1219
sg44
S'Bruce Gradkowski'
p1220
sg46
S'0.0'
p1221
sg48
S'L10-20'
p1222
sg50
S'2013'
p1223
ssg270
(dp1224
g5
g102
sg7
g270
sg9
g102
sg11
g102
sg13
g102
sg15
g102
sg17
g102
sg19
g102
sg21
g102
sg23
g102
sg25
g102
sg27
g102
sg29
g102
sg31
g102
sg32
g102
sg34
g102
sg36
g102
sg38
g102
sg40
g102
sg42
S'Bye'
p1225
sg44
S'Bruce Gradkowski'
p1226
sg46
g102
sg48
g102
sg50
S'2013'
p1227
ssg293
(dp1228
g5
S'--'
p1229
sg7
g293
sg9
S'--'
p1230
sg11
S'--'
p1231
sg13
S'--'
p1232
sg15
S'--'
p1233
sg17
S'--'
p1234
sg19
S'--'
p1235
sg21
S'@MIN'
p1236
sg23
g24
sg25
S'--'
p1237
sg27
S'--'
p1238
sg29
S'--'
p1239
sg31
g24
sg32
S'--'
p1240
sg34
S'--'
p1241
sg36
S'--'
p1242
sg38
S'--'
p1243
sg40
S'--'
p1244
sg42
S'09/29'
p1245
sg44
S'Bruce Gradkowski'
p1246
sg46
S'0.0'
p1247
sg48
S'L27-34'
p1248
sg50
S'2013'
p1249
ssg316
(dp1250
g5
S'--'
p1251
sg7
g316
sg9
S'--'
p1252
sg11
S'--'
p1253
sg13
S'--'
p1254
sg15
S'--'
p1255
sg17
S'--'
p1256
sg19
S'--'
p1257
sg21
S'BAL'
p1258
sg23
g24
sg25
S'--'
p1259
sg27
S'--'
p1260
sg29
S'--'
p1261
sg31
g24
sg32
S'--'
p1262
sg34
S'--'
p1263
sg36
S'--'
p1264
sg38
S'--'
p1265
sg40
S'--'
p1266
sg42
S'10/20'
p1267
sg44
S'Bruce Gradkowski'
p1268
sg46
S'0.0'
p1269
sg48
S'W19-16'
p1270
sg50
S'2013'
p1271
ssg339
(dp1272
g5
S'--'
p1273
sg7
g339
sg9
S'--'
p1274
sg11
S'--'
p1275
sg13
S'--'
p1276
sg15
S'--'
p1277
sg17
S'--'
p1278
sg19
S'--'
p1279
sg21
S'@NYJ'
p1280
sg23
g24
sg25
S'--'
p1281
sg27
S'--'
p1282
sg29
S'--'
p1283
sg31
g24
sg32
S'--'
p1284
sg34
S'--'
p1285
sg36
S'--'
p1286
sg38
S'--'
p1287
sg40
S'--'
p1288
sg42
S'10/13'
p1289
sg44
S'Bruce Gradkowski'
p1290
sg46
S'0.0'
p1291
sg48
S'W19-6'
p1292
sg50
S'2013'
p1293
ssg362
(dp1294
g5
S'--'
p1295
sg7
g362
sg9
S'--'
p1296
sg11
S'--'
p1297
sg13
S'--'
p1298
sg15
S'--'
p1299
sg17
S'--'
p1300
sg19
S'--'
p1301
sg21
S'@NE'
p1302
sg23
g24
sg25
S'--'
p1303
sg27
S'--'
p1304
sg29
S'--'
p1305
sg31
g24
sg32
S'--'
p1306
sg34
S'--'
p1307
sg36
S'--'
p1308
sg38
S'--'
p1309
sg40
S'--'
p1310
sg42
S'11/03'
p1311
sg44
S'Bruce Gradkowski'
p1312
sg46
S'0.0'
p1313
sg48
S'L31-55'
p1314
sg50
S'2013'
p1315
ssg385
(dp1316
g5
S'--'
p1317
sg7
g385
sg9
S'--'
p1318
sg11
S'--'
p1319
sg13
S'--'
p1320
sg15
S'--'
p1321
sg17
S'--'
p1322
sg19
S'--'
p1323
sg21
S'@OAK'
p1324
sg23
g24
sg25
S'--'
p1325
sg27
S'--'
p1326
sg29
S'--'
p1327
sg31
g24
sg32
S'--'
p1328
sg34
S'--'
p1329
sg36
S'--'
p1330
sg38
S'--'
p1331
sg40
S'--'
p1332
sg42
S'10/27'
p1333
sg44
S'Bruce Gradkowski'
p1334
sg46
S'0.0'
p1335
sg48
S'L18-21'
p1336
sg50
S'2013'
p1337
sssS'2012'
p1338
(dp1339
g3
(dp1340
g5
S'--'
p1341
sg7
S'11'
p1342
sg9
S'--'
p1343
sg11
S'--'
p1344
sg13
S'--'
p1345
sg15
S'--'
p1346
sg17
S'--'
p1347
sg19
S'--'
p1348
sg21
S'@KC'
p1349
sg23
g24
sg25
S'--'
p1350
sg27
S'--'
p1351
sg29
S'--'
p1352
sg31
g24
sg32
S'--'
p1353
sg34
S'--'
p1354
sg36
S'--'
p1355
sg38
S'--'
p1356
sg40
S'--'
p1357
sg42
S'11/18'
p1358
sg44
S'Bruce Gradkowski'
p1359
sg46
S'0.0'
p1360
sg48
S'W28-6'
p1361
sg50
S'2012'
p1362
ssg52
(dp1363
g5
S'--'
p1364
sg7
S'10'
p1365
sg9
S'--'
p1366
sg11
S'--'
p1367
sg13
S'--'
p1368
sg15
S'--'
p1369
sg17
S'--'
p1370
sg19
S'--'
p1371
sg21
S'NYG'
p1372
sg23
g24
sg25
S'--'
p1373
sg27
S'--'
p1374
sg29
S'--'
p1375
sg31
g24
sg32
S'--'
p1376
sg34
S'--'
p1377
sg36
S'--'
p1378
sg38
S'--'
p1379
sg40
S'--'
p1380
sg42
S'11/11'
p1381
sg44
S'Bruce Gradkowski'
p1382
sg46
S'0.0'
p1383
sg48
S'W31-13'
p1384
sg50
S'2012'
p1385
ssg76
(dp1386
g5
S'--'
p1387
sg7
S'13'
p1388
sg9
S'--'
p1389
sg11
S'--'
p1390
sg13
S'--'
p1391
sg15
S'--'
p1392
sg17
S'--'
p1393
sg19
S'--'
p1394
sg21
S'@SD'
p1395
sg23
g24
sg25
S'--'
p1396
sg27
S'--'
p1397
sg29
S'--'
p1398
sg31
g24
sg32
S'--'
p1399
sg34
S'--'
p1400
sg36
S'--'
p1401
sg38
S'--'
p1402
sg40
S'--'
p1403
sg42
S'12/02'
p1404
sg44
S'Bruce Gradkowski'
p1405
sg46
S'0.0'
p1406
sg48
S'W20-13'
p1407
sg50
S'2012'
p1408
ssg100
(dp1409
g5
S'--'
p1410
sg7
S'12'
p1411
sg9
S'--'
p1412
sg11
S'--'
p1413
sg13
S'--'
p1414
sg15
S'--'
p1415
sg17
S'--'
p1416
sg19
S'--'
p1417
sg21
S'OAK'
p1418
sg23
g24
sg25
S'--'
p1419
sg27
S'--'
p1420
sg29
S'--'
p1421
sg31
g24
sg32
S'--'
p1422
sg34
S'--'
p1423
sg36
S'--'
p1424
sg38
S'--'
p1425
sg40
S'--'
p1426
sg42
S'11/25'
p1427
sg44
S'Bruce Gradkowski'
p1428
sg46
S'0.0'
p1429
sg48
S'W34-10'
p1430
sg50
S'2012'
p1431
ssg107
(dp1432
g5
S'--'
p1433
sg7
S'15'
p1434
sg9
S'--'
p1435
sg11
S'--'
p1436
sg13
S'--'
p1437
sg15
S'--'
p1438
sg17
S'--'
p1439
sg19
S'--'
p1440
sg21
S'@PHI'
p1441
sg23
g24
sg25
S'--'
p1442
sg27
S'--'
p1443
sg29
S'--'
p1444
sg31
g24
sg32
S'--'
p1445
sg34
S'--'
p1446
sg36
S'--'
p1447
sg38
S'--'
p1448
sg40
S'--'
p1449
sg42
S'12/13'
p1450
sg44
S'Bruce Gradkowski'
p1451
sg46
S'0.0'
p1452
sg48
S'W34-13'
p1453
sg50
S'2012'
p1454
ssg131
(dp1455
g5
S'--'
p1456
sg7
S'14'
p1457
sg9
S'--'
p1458
sg11
S'--'
p1459
sg13
S'--'
p1460
sg15
S'--'
p1461
sg17
S'--'
p1462
sg19
S'--'
p1463
sg21
S'DAL'
p1464
sg23
g24
sg25
S'--'
p1465
sg27
S'--'
p1466
sg29
S'--'
p1467
sg31
g24
sg32
S'--'
p1468
sg34
S'--'
p1469
sg36
S'--'
p1470
sg38
S'--'
p1471
sg40
S'--'
p1472
sg42
S'12/09'
p1473
sg44
S'Bruce Gradkowski'
p1474
sg46
S'0.0'
p1475
sg48
S'L19-20'
p1476
sg50
S'2012'
p1477
ssg155
(dp1478
g5
S'11'
p1479
sg7
S'17'
p1480
sg9
S'-0.7'
p1481
sg11
S'45.5'
p1482
sg13
g226
sg15
S'65'
p1483
sg17
S'5.9'
p1484
sg19
S'--'
p1485
sg21
S'BAL'
p1486
sg23
g203
sg25
g270
sg27
g24
sg29
S'-2'
p1487
sg31
g24
sg32
S'--'
p1488
sg34
g24
sg36
g24
sg38
g24
sg40
g24
sg42
S'12/30'
p1489
sg44
S'Bruce Gradkowski'
p1490
sg46
S'64.6'
p1491
sg48
S'W23-17'
p1492
sg50
S'2012'
p1493
ssg179
(dp1494
g5
S'--'
p1495
sg7
S'16'
p1496
sg9
S'--'
p1497
sg11
S'--'
p1498
sg13
S'--'
p1499
sg15
S'--'
p1500
sg17
S'--'
p1501
sg19
S'--'
p1502
sg21
S'@PIT'
p1503
sg23
g24
sg25
S'--'
p1504
sg27
S'--'
p1505
sg29
S'--'
p1506
sg31
g24
sg32
S'--'
p1507
sg34
S'--'
p1508
sg36
S'--'
p1509
sg38
S'--'
p1510
sg40
S'--'
p1511
sg42
S'12/23'
p1512
sg44
S'Bruce Gradkowski'
p1513
sg46
S'0.0'
p1514
sg48
S'W13-10'
p1515
sg50
S'2012'
p1516
ssg203
(dp1517
g5
S'--'
p1518
sg7
g203
sg9
S'0.0'
p1519
sg11
S'--'
p1520
sg13
g203
sg15
S'--'
p1521
sg17
S'--'
p1522
sg19
g203
sg21
S'@BAL'
p1523
sg23
g203
sg25
S'--'
p1524
sg27
S'--'
p1525
sg29
g24
sg31
g24
sg32
g24
sg34
g24
sg36
S'--'
p1526
sg38
S'--'
p1527
sg40
S'--'
p1528
sg42
S'09/10'
p1529
sg44
S'Bruce Gradkowski'
p1530
sg46
S'0.0'
p1531
sg48
S'L13-44'
p1532
sg50
S'2012'
p1533
ssg226
(dp1534
g5
S'--'
p1535
sg7
g226
sg9
S'--'
p1536
sg11
S'--'
p1537
sg13
S'--'
p1538
sg15
S'--'
p1539
sg17
S'--'
p1540
sg19
S'--'
p1541
sg21
S'@WAS'
p1542
sg23
g24
sg25
S'--'
p1543
sg27
S'--'
p1544
sg29
S'--'
p1545
sg31
g24
sg32
S'--'
p1546
sg34
S'--'
p1547
sg36
S'--'
p1548
sg38
S'--'
p1549
sg40
S'--'
p1550
sg42
S'09/23'
p1551
sg44
S'Bruce Gradkowski'
p1552
sg46
S'0.0'
p1553
sg48
S'W38-31'
p1554
sg50
S'2012'
p1555
ssg231
(dp1556
g5
S'--'
p1557
sg7
g231
sg9
S'--'
p1558
sg11
S'--'
p1559
sg13
S'--'
p1560
sg15
S'--'
p1561
sg17
S'--'
p1562
sg19
S'--'
p1563
sg21
S'CLE'
p1564
sg23
g24
sg25
S'--'
p1565
sg27
S'--'
p1566
sg29
S'--'
p1567
sg31
g24
sg32
S'--'
p1568
sg34
S'--'
p1569
sg36
S'--'
p1570
sg38
S'--'
p1571
sg40
S'--'
p1572
sg42
S'09/16'
p1573
sg44
S'Bruce Gradkowski'
p1574
sg46
S'0.0'
p1575
sg48
S'W34-27'
p1576
sg50
S'2012'
p1577
ssg270
(dp1578
g5
S'--'
p1579
sg7
g270
sg9
S'--'
p1580
sg11
S'--'
p1581
sg13
S'--'
p1582
sg15
S'--'
p1583
sg17
S'--'
p1584
sg19
S'--'
p1585
sg21
S'MIA'
p1586
sg23
g24
sg25
S'--'
p1587
sg27
S'--'
p1588
sg29
S'--'
p1589
sg31
g24
sg32
S'--'
p1590
sg34
S'--'
p1591
sg36
S'--'
p1592
sg38
S'--'
p1593
sg40
S'--'
p1594
sg42
S'10/07'
p1595
sg44
S'Bruce Gradkowski'
p1596
sg46
S'0.0'
p1597
sg48
S'L13-17'
p1598
sg50
S'2012'
p1599
ssg293
(dp1600
g5
S'--'
p1601
sg7
g293
sg9
S'--'
p1602
sg11
S'--'
p1603
sg13
S'--'
p1604
sg15
S'--'
p1605
sg17
S'--'
p1606
sg19
S'--'
p1607
sg21
S'@JAC'
p1608
sg23
g24
sg25
S'--'
p1609
sg27
S'--'
p1610
sg29
S'--'
p1611
sg31
g24
sg32
S'--'
p1612
sg34
S'--'
p1613
sg36
S'--'
p1614
sg38
S'--'
p1615
sg40
S'--'
p1616
sg42
S'09/30'
p1617
sg44
S'Bruce Gradkowski'
p1618
sg46
S'0.0'
p1619
sg48
S'W27-10'
p1620
sg50
S'2012'
p1621
ssg316
(dp1622
g5
S'--'
p1623
sg7
g316
sg9
S'--'
p1624
sg11
S'--'
p1625
sg13
S'--'
p1626
sg15
S'--'
p1627
sg17
S'--'
p1628
sg19
S'--'
p1629
sg21
S'PIT'
p1630
sg23
g24
sg25
S'--'
p1631
sg27
S'--'
p1632
sg29
S'--'
p1633
sg31
g24
sg32
S'--'
p1634
sg34
S'--'
p1635
sg36
S'--'
p1636
sg38
S'--'
p1637
sg40
S'--'
p1638
sg42
S'10/21'
p1639
sg44
S'Bruce Gradkowski'
p1640
sg46
S'0.0'
p1641
sg48
S'L17-24'
p1642
sg50
S'2012'
p1643
ssg339
(dp1644
g5
S'--'
p1645
sg7
g339
sg9
S'--'
p1646
sg11
S'--'
p1647
sg13
S'--'
p1648
sg15
S'--'
p1649
sg17
S'--'
p1650
sg19
S'--'
p1651
sg21
S'@CLE'
p1652
sg23
g24
sg25
S'--'
p1653
sg27
S'--'
p1654
sg29
S'--'
p1655
sg31
g24
sg32
S'--'
p1656
sg34
S'--'
p1657
sg36
S'--'
p1658
sg38
S'--'
p1659
sg40
S'--'
p1660
sg42
S'10/14'
p1661
sg44
S'Bruce Gradkowski'
p1662
sg46
S'0.0'
p1663
sg48
S'L24-34'
p1664
sg50
S'2012'
p1665
ssg362
(dp1666
g5
S'--'
p1667
sg7
g362
sg9
S'--'
p1668
sg11
S'--'
p1669
sg13
S'--'
p1670
sg15
S'--'
p1671
sg17
S'--'
p1672
sg19
S'--'
p1673
sg21
S'DEN'
p1674
sg23
g24
sg25
S'--'
p1675
sg27
S'--'
p1676
sg29
S'--'
p1677
sg31
g24
sg32
S'--'
p1678
sg34
S'--'
p1679
sg36
S'--'
p1680
sg38
S'--'
p1681
sg40
S'--'
p1682
sg42
S'11/04'
p1683
sg44
S'Bruce Gradkowski'
p1684
sg46
S'0.0'
p1685
sg48
S'L23-31'
p1686
sg50
S'2012'
p1687
ssg385
(dp1688
g5
g102
sg7
g385
sg9
g102
sg11
g102
sg13
g102
sg15
g102
sg17
g102
sg19
g102
sg21
g102
sg23
g102
sg25
g102
sg27
g102
sg29
g102
sg31
g102
sg32
g102
sg34
g102
sg36
g102
sg38
g102
sg40
g102
sg42
S'Bye'
p1689
sg44
S'Bruce Gradkowski'
p1690
sg46
g102
sg48
g102
sg50
S'2012'
p1691
sss.