(dp0
S'2015'
p1
(dp2
S'11'
p3
(dp4
S'PassAtt'
p5
S'34'
p6
sS'WK'
p7
S'11'
p8
sS'RushAvg'
p9
S'4.0'
p10
sS'Pct'
p11
S'61.8'
p12
sS'RushAtt'
p13
S'4'
p14
sS'PassYds'
p15
S'246'
p16
sS'PassAvg'
p17
S'7.2'
p18
sS'FUM'
p19
S'--'
p20
sS'Opp'
p21
S'WAS'
p22
sS'G'
p23
S'1'
p24
sS'Comp'
p25
S'21'
p26
sS'SckY'
p27
S'20'
p28
sS'RushYds'
p29
S'16'
p30
sS'GS'
p31
g24
sS'Lost'
p32
S'--'
p33
sS'RushTD'
p34
S'0'
p35
sS'PassTD'
p36
S'5'
p37
sS'Sck'
p38
S'2'
p39
sS'Int'
p40
g35
sS'Game Date'
p41
S'11/22'
p42
sS'Player'
p43
S'Cam Newton'
p44
sS'Rate'
p45
S'123.3'
p46
sS'Result'
p47
S'W44-16'
p48
sS'Year'
p49
S'2015'
p50
ssS'10'
p51
(dp52
g5
S'25'
p53
sg7
S'10'
p54
sg9
S'2.6'
p55
sg11
S'84.0'
p56
sg13
S'9'
p57
sg15
S'217'
p58
sg17
S'8.7'
p59
sg19
S'--'
p60
sg21
S'@TEN'
p61
sg23
g24
sg25
S'21'
p62
sg27
S'33'
p63
sg29
S'23'
p64
sg31
g24
sg32
S'--'
p65
sg34
g24
sg36
g24
sg38
g37
sg40
g35
sg41
S'11/15'
p66
sg43
S'Cam Newton'
p67
sg45
S'116.2'
p68
sg47
S'W27-10'
p69
sg49
S'2015'
p70
ssS'13'
p71
(dp72
g5
S'41'
p73
sg7
S'13'
p74
sg9
S'4.9'
p75
sg11
S'68.3'
p76
sg13
S'10'
p77
sg15
S'331'
p78
sg17
S'8.1'
p79
sg19
S'--'
p80
sg21
S'@NO'
p81
sg23
g24
sg25
S'28'
p82
sg27
g57
sg29
S'49'
p83
sg31
g24
sg32
S'--'
p84
sg34
g35
sg36
g37
sg38
g24
sg40
g24
sg41
S'12/06'
p85
sg43
S'Cam Newton'
p86
sg45
S'122.1'
p87
sg47
S'W41-38'
p88
sg49
S'2015'
p89
ssS'12'
p90
(dp91
g5
S'27'
p92
sg7
S'12'
p93
sg9
S'3.8'
p94
sg11
S'59.3'
p95
sg13
S'12'
p96
sg15
S'183'
p97
sg17
S'6.8'
p98
sg19
g24
sg21
S'@DAL'
p99
sg23
g24
sg25
S'16'
p100
sg27
S'18'
p101
sg29
S'45'
p102
sg31
g24
sg32
g35
sg34
g24
sg36
g35
sg38
g24
sg40
g35
sg41
S'11/26'
p103
sg43
S'Cam Newton'
p104
sg45
S'79.7'
p105
sg47
S'W33-14'
p106
sg49
S'2015'
p107
ssS'15'
p108
(dp109
g5
S'45'
p110
sg7
S'15'
p111
sg9
S'12.5'
p112
sg11
S'55.6'
p113
sg13
S'8'
p114
sg15
S'340'
p115
sg17
S'7.6'
p116
sg19
g24
sg21
S'@NYG'
p117
sg23
g24
sg25
S'25'
p118
sg27
S'31'
p119
sg29
S'100'
p120
sg31
g24
sg32
g24
sg34
g35
sg36
g37
sg38
S'3'
p121
sg40
g35
sg41
S'12/20'
p122
sg43
S'Cam Newton'
p123
sg45
S'116.9'
p124
sg47
S'W38-35'
p125
sg49
S'2015'
p126
ssS'14'
p127
(dp128
g5
S'21'
p129
sg7
S'14'
p130
sg9
S'1.3'
p131
sg11
S'71.4'
p132
sg13
g121
sg15
S'265'
p133
sg17
S'12.6'
p134
sg19
S'--'
p135
sg21
S'ATL'
p136
sg23
g24
sg25
S'15'
p137
sg27
S'19'
p138
sg29
g14
sg31
g24
sg32
S'--'
p139
sg34
g35
sg36
g121
sg38
g39
sg40
g35
sg41
S'12/13'
p140
sg43
S'Cam Newton'
p141
sg45
S'153.3'
p142
sg47
S'W38-0'
p143
sg49
S'2015'
p144
ssS'17'
p145
(dp146
g5
S'26'
p147
sg7
S'17'
p148
sg9
S'1.7'
p149
sg11
S'80.8'
p150
sg13
S'6'
p151
sg15
S'293'
p152
sg17
S'11.3'
p153
sg19
S'--'
p154
sg21
S'TB'
p155
sg23
g24
sg25
S'21'
p156
sg27
S'38'
p157
sg29
S'10'
p158
sg31
g24
sg32
S'--'
p159
sg34
g39
sg36
g39
sg38
g14
sg40
g35
sg41
S'01/03'
p160
sg43
S'Cam Newton'
p161
sg45
S'139.3'
p162
sg47
S'W38-10'
p163
sg49
S'2015'
p164
ssS'16'
p165
(dp166
g5
S'30'
p167
sg7
S'16'
p168
sg9
S'6.6'
p169
sg11
S'56.7'
p170
sg13
S'7'
p171
sg15
S'142'
p172
sg17
S'4.7'
p173
sg19
g24
sg21
S'@ATL'
p174
sg23
g24
sg25
S'17'
p175
sg27
S'29'
p176
sg29
S'46'
p177
sg31
g24
sg32
g24
sg34
g24
sg36
g35
sg38
g39
sg40
g35
sg41
S'12/27'
p178
sg43
S'Cam Newton'
p179
sg45
S'69.0'
p180
sg47
S'L13-20'
p181
sg49
S'2015'
p182
ssg24
(dp183
g5
S'31'
p184
sg7
g24
sg9
S'2.5'
p185
sg11
S'58.1'
p186
sg13
S'14'
p187
sg15
S'175'
p188
sg17
S'5.6'
p189
sg19
S'--'
p190
sg21
S'@JAC'
p191
sg23
g24
sg25
S'18'
p192
sg27
S'17'
p193
sg29
S'35'
p194
sg31
g24
sg32
S'--'
p195
sg34
g35
sg36
g24
sg38
g39
sg40
g24
sg41
S'09/13'
p196
sg43
S'Cam Newton'
p197
sg45
S'71.3'
p198
sg47
S'W20-9'
p199
sg49
S'2015'
p200
ssg121
(dp201
g5
S'31'
p202
sg7
g121
sg9
S'4.7'
p203
sg11
S'64.5'
p204
sg13
g171
sg15
S'315'
p205
sg17
S'10.2'
p206
sg19
S'--'
p207
sg21
S'NO'
p208
sg23
g24
sg25
S'20'
p209
sg27
g121
sg29
S'33'
p210
sg31
g24
sg32
S'--'
p211
sg34
g24
sg36
g39
sg38
g24
sg40
g35
sg41
S'09/27'
p212
sg43
S'Cam Newton'
p213
sg45
S'119.7'
p214
sg47
S'W27-22'
p215
sg49
S'2015'
p216
ssg39
(dp217
g5
S'37'
p218
sg7
g39
sg9
S'7.6'
p219
sg11
S'48.6'
p220
sg13
S'10'
p221
sg15
S'195'
p222
sg17
S'5.3'
p223
sg19
S'--'
p224
sg21
S'HOU'
p225
sg23
g24
sg25
S'18'
p226
sg27
S'17'
p227
sg29
S'76'
p228
sg31
g24
sg32
S'--'
p229
sg34
g24
sg36
g39
sg38
g39
sg40
g24
sg41
S'09/20'
p230
sg43
S'Cam Newton'
p231
sg45
S'71.3'
p232
sg47
S'W24-17'
p233
sg49
S'2015'
p234
ssg37
(dp235
g5
S''
p236
sg7
g37
sg9
g236
sg11
g236
sg13
g236
sg15
g236
sg17
g236
sg19
g236
sg21
g236
sg23
g236
sg25
g236
sg27
g236
sg29
g236
sg31
g236
sg32
g236
sg34
g236
sg36
g236
sg38
g236
sg40
g236
sg41
S'Bye'
p237
sg43
S'Cam Newton'
p238
sg45
g236
sg47
g236
sg49
S'2015'
p239
ssg14
(dp240
g5
S'22'
p241
sg7
g14
sg9
S'4.3'
p242
sg11
S'50.0'
p243
sg13
S'12'
p244
sg15
S'124'
p245
sg17
S'5.6'
p246
sg19
g24
sg21
S'@TB'
p247
sg23
g24
sg25
S'11'
p248
sg27
S'13'
p249
sg29
S'51'
p250
sg31
g24
sg32
g24
sg34
g35
sg36
g39
sg38
g39
sg40
g35
sg41
S'10/04'
p251
sg43
S'Cam Newton'
p252
sg45
S'97.5'
p253
sg47
S'W37-23'
p254
sg49
S'2015'
p255
ssg171
(dp256
g5
S'24'
p257
sg7
g171
sg9
S'5.0'
p258
sg11
S'58.3'
p259
sg13
g14
sg15
S'197'
p260
sg17
S'8.2'
p261
sg19
S'--'
p262
sg21
S'PHI'
p263
sg23
g24
sg25
S'14'
p264
sg27
g171
sg29
S'20'
p265
sg31
g24
sg32
S'--'
p266
sg34
g24
sg36
g24
sg38
g24
sg40
g121
sg41
S'10/25'
p267
sg43
S'Cam Newton'
p268
sg45
S'59.2'
p269
sg47
S'W27-16'
p270
sg49
S'2015'
p271
ssg151
(dp272
g5
S'36'
p273
sg7
g151
sg9
S'4.3'
p274
sg11
S'55.6'
p275
sg13
g171
sg15
S'269'
p276
sg17
S'7.5'
p277
sg19
S'--'
p278
sg21
S'@SEA'
p279
sg23
g24
sg25
S'20'
p280
sg27
S'21'
p281
sg29
S'30'
p282
sg31
g24
sg32
S'--'
p283
sg34
g24
sg36
g24
sg38
g121
sg40
g39
sg41
S'10/18'
p284
sg43
S'Cam Newton'
p285
sg45
S'65.6'
p286
sg47
S'W27-23'
p287
sg49
S'2015'
p288
ssg57
(dp289
g5
S'30'
p290
sg7
g57
sg9
S'6.3'
p291
sg11
S'50.0'
p292
sg13
g57
sg15
S'297'
p293
sg17
S'9.9'
p294
sg19
S'--'
p295
sg21
S'GB'
p296
sg23
g24
sg25
S'15'
p297
sg27
g35
sg29
S'57'
p298
sg31
g24
sg32
S'--'
p299
sg34
g24
sg36
g121
sg38
g35
sg40
g24
sg41
S'11/08'
p300
sg43
S'Cam Newton'
p301
sg45
S'104.4'
p302
sg47
S'W37-29'
p303
sg49
S'2015'
p304
ssg114
(dp305
g5
S'35'
p306
sg7
g114
sg9
S'4.1'
p307
sg11
S'45.7'
p308
sg13
S'10'
p309
sg15
S'248'
p310
sg17
S'7.1'
p311
sg19
g24
sg21
S'IND'
p312
sg23
g24
sg25
S'16'
p313
sg27
g57
sg29
S'41'
p314
sg31
g24
sg32
g24
sg34
g35
sg36
g39
sg38
g39
sg40
g24
sg41
S'11/02'
p315
sg43
S'Cam Newton'
p316
sg45
S'76.8'
p317
sg47
S'W29-26'
p318
sg49
S'2015'
p319
sssS'2014'
p320
(dp321
g3
(dp322
g5
S'37'
p323
sg7
S'11'
p324
sg9
S'6.0'
p325
sg11
S'62.2'
p326
sg13
g37
sg15
S'292'
p327
sg17
S'7.9'
p328
sg19
S'--'
p329
sg21
S'ATL'
p330
sg23
g24
sg25
S'23'
p331
sg27
g171
sg29
S'30'
p332
sg31
g24
sg32
S'--'
p333
sg34
g35
sg36
g39
sg38
g39
sg40
g39
sg41
S'11/16'
p334
sg43
S'Cam Newton'
p335
sg45
S'82.3'
p336
sg47
S'L17-19'
p337
sg49
S'2014'
p338
ssg51
(dp339
g5
S'40'
p340
sg7
S'10'
p341
sg9
S'3.0'
p342
sg11
S'62.5'
p343
sg13
g39
sg15
S'306'
p344
sg17
S'7.6'
p345
sg19
g39
sg21
S'@PHI'
p346
sg23
g24
sg25
S'25'
p347
sg27
S'91'
p348
sg29
g151
sg31
g24
sg32
g24
sg34
g35
sg36
g39
sg38
g57
sg40
g121
sg41
S'11/10'
p349
sg43
S'Cam Newton'
p350
sg45
S'71.5'
p351
sg47
S'L21-45'
p352
sg49
S'2014'
p353
ssg71
(dp354
g5
S'35'
p355
sg7
S'13'
p356
sg9
S'5.4'
p357
sg11
S'51.4'
p358
sg13
g57
sg15
S'194'
p359
sg17
S'5.5'
p360
sg19
S'--'
p361
sg21
S'@MIN'
p362
sg23
g24
sg25
S'18'
p363
sg27
S'24'
p364
sg29
S'49'
p365
sg31
g24
sg32
S'--'
p366
sg34
g35
sg36
g24
sg38
g14
sg40
g24
sg41
S'11/30'
p367
sg43
S'Cam Newton'
p368
sg45
S'65.7'
p369
sg47
S'L13-31'
p370
sg49
S'2014'
p371
ssg90
(dp372
g5
g236
sg7
S'12'
p373
sg9
g236
sg11
g236
sg13
g236
sg15
g236
sg17
g236
sg19
g236
sg21
g236
sg23
g236
sg25
g236
sg27
g236
sg29
g236
sg31
g236
sg32
g236
sg34
g236
sg36
g236
sg38
g236
sg40
g236
sg41
S'Bye'
p374
sg43
S'Cam Newton'
p375
sg45
g236
sg47
g236
sg49
S'2014'
p376
ssg108
(dp377
g5
S'--'
p378
sg7
S'15'
p379
sg9
S'--'
p380
sg11
S'--'
p381
sg13
S'--'
p382
sg15
S'--'
p383
sg17
S'--'
p384
sg19
S'--'
p385
sg21
S'TB'
p386
sg23
g35
sg25
S'--'
p387
sg27
S'--'
p388
sg29
S'--'
p389
sg31
g35
sg32
S'--'
p390
sg34
S'--'
p391
sg36
S'--'
p392
sg38
S'--'
p393
sg40
S'--'
p394
sg41
S'12/14'
p395
sg43
S'Cam Newton'
p396
sg45
S'0.0'
p397
sg47
S'W19-17'
p398
sg49
S'2014'
p399
ssg127
(dp400
g5
S'33'
p401
sg7
S'14'
p402
sg9
S'6.9'
p403
sg11
S'63.6'
p404
sg13
S'12'
p405
sg15
S'226'
p406
sg17
S'6.8'
p407
sg19
g24
sg21
S'@NO'
p408
sg23
g24
sg25
S'21'
p409
sg27
g35
sg29
S'83'
p410
sg31
g24
sg32
g35
sg34
g24
sg36
g121
sg38
g35
sg40
g35
sg41
S'12/07'
p411
sg43
S'Cam Newton'
p412
sg45
S'114.0'
p413
sg47
S'W41-10'
p414
sg49
S'2014'
p415
ssg145
(dp416
g5
S'16'
p417
sg7
S'17'
p418
sg9
S'8.5'
p419
sg11
S'62.5'
p420
sg13
g151
sg15
S'114'
p421
sg17
S'7.1'
p422
sg19
S'--'
p423
sg21
S'@ATL'
p424
sg23
g24
sg25
S'10'
p425
sg27
g39
sg29
S'51'
p426
sg31
g24
sg32
S'--'
p427
sg34
g24
sg36
g24
sg38
g24
sg40
g35
sg41
S'12/28'
p428
sg43
S'Cam Newton'
p429
sg45
S'104.7'
p430
sg47
S'W34-3'
p431
sg49
S'2014'
p432
ssg165
(dp433
g5
S'31'
p434
sg7
S'16'
p435
sg9
S'5.3'
p436
sg11
S'58.1'
p437
sg13
S'12'
p438
sg15
S'201'
p439
sg17
S'6.5'
p440
sg19
g24
sg21
S'CLE'
p441
sg23
g24
sg25
S'18'
p442
sg27
g151
sg29
S'63'
p443
sg31
g24
sg32
g35
sg34
g24
sg36
g24
sg38
g24
sg40
g24
sg41
S'12/21'
p444
sg43
S'Cam Newton'
p445
sg45
S'74.8'
p446
sg47
S'W17-13'
p447
sg49
S'2014'
p448
ssg24
(dp449
g5
S'--'
p450
sg7
g24
sg9
S'--'
p451
sg11
S'--'
p452
sg13
S'--'
p453
sg15
S'--'
p454
sg17
S'--'
p455
sg19
S'--'
p456
sg21
S'@TB'
p457
sg23
g35
sg25
S'--'
p458
sg27
S'--'
p459
sg29
S'--'
p460
sg31
g35
sg32
S'--'
p461
sg34
S'--'
p462
sg36
S'--'
p463
sg38
S'--'
p464
sg40
S'--'
p465
sg41
S'09/07'
p466
sg43
S'Cam Newton'
p467
sg45
S'0.0'
p468
sg47
S'W20-14'
p469
sg49
S'2014'
p470
ssg121
(dp471
g5
S'35'
p472
sg7
g121
sg9
S'3.5'
p473
sg11
S'68.6'
p474
sg13
g39
sg15
S'250'
p475
sg17
S'7.1'
p476
sg19
g24
sg21
S'PIT'
p477
sg23
g24
sg25
S'24'
p478
sg27
S'23'
p479
sg29
g171
sg31
g24
sg32
g24
sg34
g35
sg36
g24
sg38
g121
sg40
g35
sg41
S'09/21'
p480
sg43
S'Cam Newton'
p481
sg45
S'98.5'
p482
sg47
S'L19-37'
p483
sg49
S'2014'
p484
ssg39
(dp485
g5
S'34'
p486
sg7
g39
sg9
S'4.8'
p487
sg11
S'64.7'
p488
sg13
g14
sg15
S'281'
p489
sg17
S'8.3'
p490
sg19
S'--'
p491
sg21
S'DET'
p492
sg23
g24
sg25
S'22'
p493
sg27
S'30'
p494
sg29
S'19'
p495
sg31
g24
sg32
S'--'
p496
sg34
g35
sg36
g24
sg38
g14
sg40
g35
sg41
S'09/14'
p497
sg43
S'Cam Newton'
p498
sg45
S'100.2'
p499
sg47
S'W24-7'
p500
sg49
S'2014'
p501
ssg37
(dp502
g5
S'35'
p503
sg7
g37
sg9
S'1.5'
p504
sg11
S'54.3'
p505
sg13
g151
sg15
S'255'
p506
sg17
S'7.3'
p507
sg19
g24
sg21
S'CHI'
p508
sg23
g24
sg25
S'19'
p509
sg27
S'24'
p510
sg29
g57
sg31
g24
sg32
g24
sg34
g35
sg36
g39
sg38
g39
sg40
g24
sg41
S'10/05'
p511
sg43
S'Cam Newton'
p512
sg45
S'84.8'
p513
sg47
S'W31-24'
p514
sg49
S'2014'
p515
ssg14
(dp516
g5
S'25'
p517
sg7
g14
sg9
S'3.5'
p518
sg11
S'56.0'
p519
sg13
g39
sg15
S'197'
p520
sg17
S'7.9'
p521
sg19
g24
sg21
S'@BAL'
p522
sg23
g24
sg25
S'14'
p523
sg27
S'20'
p524
sg29
g171
sg31
g24
sg32
g35
sg34
g35
sg36
g24
sg38
g39
sg40
g35
sg41
S'09/28'
p525
sg43
S'Cam Newton'
p526
sg45
S'94.9'
p527
sg47
S'L10-38'
p528
sg49
S'2014'
p529
ssg171
(dp530
g5
S'31'
p531
sg7
g171
sg9
S'5.9'
p532
sg11
S'54.8'
p533
sg13
g171
sg15
S'205'
p534
sg17
S'6.6'
p535
sg19
S'--'
p536
sg21
S'@GB'
p537
sg23
g24
sg25
S'17'
p538
sg27
S'25'
p539
sg29
S'41'
p540
sg31
g24
sg32
S'--'
p541
sg34
g35
sg36
g24
sg38
g121
sg40
g24
sg41
S'10/19'
p542
sg43
S'Cam Newton'
p543
sg45
S'72.6'
p544
sg47
S'L17-38'
p545
sg49
S'2014'
p546
ssg151
(dp547
g5
S'46'
p548
sg7
g151
sg9
S'6.3'
p549
sg11
S'63.0'
p550
sg13
S'17'
p551
sg15
S'284'
p552
sg17
S'6.2'
p553
sg19
S'--'
p554
sg21
S'@CIN'
p555
sg23
g24
sg25
S'29'
p556
sg27
g35
sg29
S'107'
p557
sg31
g24
sg32
S'--'
p558
sg34
g24
sg36
g39
sg38
g35
sg40
g24
sg41
S'10/12'
p559
sg43
S'Cam Newton'
p560
sg45
S'85.8'
p561
sg47
S'T37-37'
p562
sg49
S'2014'
p563
ssg57
(dp564
g5
S'28'
p565
sg7
g57
sg9
S'6.1'
p566
sg11
S'35.7'
p567
sg13
g171
sg15
S'151'
p568
sg17
S'5.4'
p569
sg19
g24
sg21
S'NO'
p570
sg23
g24
sg25
S'10'
p571
sg27
S'29'
p572
sg29
S'43'
p573
sg31
g24
sg32
g24
sg34
g24
sg36
g35
sg38
g14
sg40
g24
sg41
S'10/30'
p574
sg43
S'Cam Newton'
p575
sg45
S'39.4'
p576
sg47
S'L10-28'
p577
sg49
S'2014'
p578
ssg114
(dp579
g5
S'22'
p580
sg7
g114
sg9
S'2.0'
p581
sg11
S'54.5'
p582
sg13
S'12'
p583
sg15
S'171'
p584
sg17
S'7.8'
p585
sg19
g24
sg21
S'SEA'
p586
sg23
g24
sg25
S'12'
p587
sg27
S'19'
p588
sg29
S'24'
p589
sg31
g24
sg32
g24
sg34
g35
sg36
g35
sg38
g121
sg40
g24
sg41
S'10/26'
p590
sg43
S'Cam Newton'
p591
sg45
S'61.0'
p592
sg47
S'L9-13'
p593
sg49
S'2014'
p594
sssS'2011'
p595
(dp596
g3
(dp597
g5
S'38'
p598
sg7
S'11'
p599
sg9
S'5.3'
p600
sg11
S'57.9'
p601
sg13
g171
sg15
S'280'
p602
sg17
S'7.4'
p603
sg19
S'--'
p604
sg21
S'@DET'
p605
sg23
g24
sg25
S'22'
p606
sg27
g114
sg29
S'37'
p607
sg31
g24
sg32
S'--'
p608
sg34
g39
sg36
g24
sg38
g24
sg40
g14
sg41
S'11/20'
p609
sg43
S'Cam Newton'
p610
sg45
S'50.2'
p611
sg47
S'L35-49'
p612
sg49
S'2011'
p613
ssg51
(dp614
g5
S'40'
p615
sg7
S'10'
p616
sg9
S'7.9'
p617
sg11
S'57.5'
p618
sg13
g171
sg15
S'212'
p619
sg17
S'5.3'
p620
sg19
g24
sg21
S'TEN'
p621
sg23
g24
sg25
S'23'
p622
sg27
S'46'
p623
sg29
S'55'
p624
sg31
g24
sg32
g35
sg34
g35
sg36
g35
sg38
g37
sg40
g24
sg41
S'11/13'
p625
sg43
S'Cam Newton'
p626
sg45
S'61.7'
p627
sg47
S'L3-30'
p628
sg49
S'2011'
p629
ssg71
(dp630
g5
S'21'
p631
sg7
S'13'
p632
sg9
S'3.9'
p633
sg11
S'57.1'
p634
sg13
S'14'
p635
sg15
S'204'
p636
sg17
S'9.7'
p637
sg19
S'--'
p638
sg21
S'@TB'
p639
sg23
g24
sg25
S'12'
p640
sg27
g57
sg29
S'54'
p641
sg31
g24
sg32
S'--'
p642
sg34
g121
sg36
g24
sg38
g39
sg40
g35
sg41
S'12/04'
p643
sg43
S'Cam Newton'
p644
sg45
S'106.1'
p645
sg47
S'W38-19'
p646
sg49
S'2011'
p647
ssg90
(dp648
g5
S'27'
p649
sg7
S'12'
p650
sg9
S'5.9'
p651
sg11
S'74.1'
p652
sg13
g57
sg15
S'208'
p653
sg17
S'7.7'
p654
sg19
S'--'
p655
sg21
S'@IND'
p656
sg23
g24
sg25
S'20'
p657
sg27
S'32'
p658
sg29
S'53'
p659
sg31
g24
sg32
S'--'
p660
sg34
g24
sg36
g35
sg38
g121
sg40
g35
sg41
S'11/27'
p661
sg43
S'Cam Newton'
p662
sg45
S'95.9'
p663
sg47
S'W27-19'
p664
sg49
S'2011'
p665
ssg108
(dp666
g5
S'23'
p667
sg7
S'15'
p668
sg9
S'7.9'
p669
sg11
S'56.5'
p670
sg13
g171
sg15
S'149'
p671
sg17
S'6.5'
p672
sg19
S'--'
p673
sg21
S'@HOU'
p674
sg23
g24
sg25
S'13'
p675
sg27
S'10'
p676
sg29
S'55'
p677
sg31
g24
sg32
S'--'
p678
sg34
g35
sg36
g39
sg38
g39
sg40
g35
sg41
S'12/18'
p679
sg43
S'Cam Newton'
p680
sg45
S'105.2'
p681
sg47
S'W28-13'
p682
sg49
S'2011'
p683
ssg127
(dp684
g5
S'39'
p685
sg7
S'14'
p686
sg9
S'5.1'
p687
sg11
S'48.7'
p688
sg13
g171
sg15
S'276'
p689
sg17
S'7.1'
p690
sg19
S'--'
p691
sg21
S'ATL'
p692
sg23
g24
sg25
S'19'
p693
sg27
S'17'
p694
sg29
S'36'
p695
sg31
g24
sg32
S'--'
p696
sg34
g35
sg36
g39
sg38
g39
sg40
g39
sg41
S'12/11'
p697
sg43
S'Cam Newton'
p698
sg45
S'67.9'
p699
sg47
S'L23-31'
p700
sg49
S'2011'
p701
ssg145
(dp702
g5
S'25'
p703
sg7
S'17'
p704
sg9
S'5.3'
p705
sg11
S'60.0'
p706
sg13
g151
sg15
S'158'
p707
sg17
S'6.3'
p708
sg19
S'--'
p709
sg21
S'@NO'
p710
sg23
g24
sg25
S'15'
p711
sg27
S'21'
p712
sg29
S'32'
p713
sg31
g24
sg32
S'--'
p714
sg34
g35
sg36
g24
sg38
g39
sg40
g24
sg41
S'01/01'
p715
sg43
S'Cam Newton'
p716
sg45
S'75.1'
p717
sg47
S'L17-45'
p718
sg49
S'2011'
p719
ssg165
(dp720
g5
S'17'
p721
sg7
S'16'
p722
sg9
S'10.8'
p723
sg11
S'70.6'
p724
sg13
g151
sg15
S'171'
p725
sg17
S'10.1'
p726
sg19
S'--'
p727
sg21
S'TB'
p728
sg23
g24
sg25
S'12'
p729
sg27
g114
sg29
S'65'
p730
sg31
g24
sg32
S'--'
p731
sg34
g24
sg36
g121
sg38
g24
sg40
g35
sg41
S'12/24'
p732
sg43
S'Cam Newton'
p733
sg45
S'142.4'
p734
sg47
S'W48-16'
p735
sg49
S'2011'
p736
ssg24
(dp737
g5
S'37'
p738
sg7
g24
sg9
S'2.3'
p739
sg11
S'64.9'
p740
sg13
g114
sg15
S'422'
p741
sg17
S'11.4'
p742
sg19
S'--'
p743
sg21
S'@ARI'
p744
sg23
g24
sg25
S'24'
p745
sg27
S'19'
p746
sg29
S'18'
p747
sg31
g24
sg32
S'--'
p748
sg34
g24
sg36
g39
sg38
g14
sg40
g24
sg41
S'09/11'
p749
sg43
S'Cam Newton'
p750
sg45
S'110.4'
p751
sg47
S'L21-28'
p752
sg49
S'2011'
p753
ssg121
(dp754
g5
S'34'
p755
sg7
g121
sg9
S'3.9'
p756
sg11
S'52.9'
p757
sg13
g171
sg15
S'158'
p758
sg17
S'4.6'
p759
sg19
S'--'
p760
sg21
S'JAC'
p761
sg23
g24
sg25
S'18'
p762
sg27
g35
sg29
S'27'
p763
sg31
g24
sg32
S'--'
p764
sg34
g35
sg36
g24
sg38
g35
sg40
g35
sg41
S'09/25'
p765
sg43
S'Cam Newton'
p766
sg45
S'75.4'
p767
sg47
S'W16-10'
p768
sg49
S'2011'
p769
ssg39
(dp770
g5
S'46'
p771
sg7
g39
sg9
S'5.3'
p772
sg11
S'60.9'
p773
sg13
S'10'
p774
sg15
S'432'
p775
sg17
S'9.4'
p776
sg19
S'--'
p777
sg21
S'GB'
p778
sg23
g24
sg25
S'28'
p779
sg27
S'28'
p780
sg29
S'53'
p781
sg31
g24
sg32
S'--'
p782
sg34
g24
sg36
g24
sg38
g14
sg40
g121
sg41
S'09/18'
p783
sg43
S'Cam Newton'
p784
sg45
S'72.0'
p785
sg47
S'L23-30'
p786
sg49
S'2011'
p787
ssg37
(dp788
g5
S'31'
p789
sg7
g37
sg9
S'3.9'
p790
sg11
S'51.6'
p791
sg13
g171
sg15
S'224'
p792
sg17
S'7.2'
p793
sg19
g24
sg21
S'NO'
p794
sg23
g24
sg25
S'16'
p795
sg27
g37
sg29
S'27'
p796
sg31
g24
sg32
g35
sg34
g24
sg36
g39
sg38
g24
sg40
g24
sg41
S'10/09'
p797
sg43
S'Cam Newton'
p798
sg45
S'83.3'
p799
sg47
S'L27-30'
p800
sg49
S'2011'
p801
ssg14
(dp802
g5
S'46'
p803
sg7
g14
sg9
S'4.4'
p804
sg11
S'58.7'
p805
sg13
g114
sg15
S'374'
p806
sg17
S'8.1'
p807
sg19
g24
sg21
S'@CHI'
p808
sg23
g24
sg25
S'27'
p809
sg27
g35
sg29
S'35'
p810
sg31
g24
sg32
g35
sg34
g39
sg36
g24
sg38
g35
sg40
g24
sg41
S'10/02'
p811
sg43
S'Cam Newton'
p812
sg45
S'83.1'
p813
sg47
S'L29-34'
p814
sg49
S'2011'
p815
ssg171
(dp816
g5
S'23'
p817
sg7
g171
sg9
S'5.9'
p818
sg11
S'78.3'
p819
sg13
S'10'
p820
sg15
S'256'
p821
sg17
S'11.1'
p822
sg19
S'--'
p823
sg21
S'WAS'
p824
sg23
g24
sg25
S'18'
p825
sg27
S'24'
p826
sg29
S'59'
p827
sg31
g24
sg32
S'--'
p828
sg34
g24
sg36
g24
sg38
g14
sg40
g35
sg41
S'10/23'
p829
sg43
S'Cam Newton'
p830
sg45
S'127.5'
p831
sg47
S'W33-20'
p832
sg49
S'2011'
p833
ssg151
(dp834
g5
S'35'
p835
sg7
g151
sg9
S'6.7'
p836
sg11
S'60.0'
p837
sg13
g171
sg15
S'237'
p838
sg17
S'6.8'
p839
sg19
S'--'
p840
sg21
S'@ATL'
p841
sg23
g24
sg25
S'21'
p842
sg27
g114
sg29
S'47'
p843
sg31
g24
sg32
S'--'
p844
sg34
g24
sg36
g35
sg38
g24
sg40
g121
sg41
S'10/16'
p845
sg43
S'Cam Newton'
p846
sg45
S'44.6'
p847
sg47
S'L17-31'
p848
sg49
S'2011'
p849
ssg57
(dp850
g5
g236
sg7
g57
sg9
g236
sg11
g236
sg13
g236
sg15
g236
sg17
g236
sg19
g236
sg21
g236
sg23
g236
sg25
g236
sg27
g236
sg29
g236
sg31
g236
sg32
g236
sg34
g236
sg36
g236
sg38
g236
sg40
g236
sg41
S'Bye'
p851
sg43
S'Cam Newton'
p852
sg45
g236
sg47
g236
sg49
S'2011'
p853
ssg114
(dp854
g5
S'35'
p855
sg7
g114
sg9
S'8.8'
p856
sg11
S'62.9'
p857
sg13
g151
sg15
S'290'
p858
sg17
S'8.3'
p859
sg19
g39
sg21
S'MIN'
p860
sg23
g24
sg25
S'22'
p861
sg27
S'25'
p862
sg29
S'53'
p863
sg31
g24
sg32
g39
sg34
g35
sg36
g121
sg38
g121
sg40
g35
sg41
S'10/30'
p864
sg43
S'Cam Newton'
p865
sg45
S'117.6'
p866
sg47
S'L21-24'
p867
sg49
S'2011'
p868
sssS'2013'
p869
(dp870
g3
(dp871
g5
S'28'
p872
sg7
S'11'
p873
sg9
S'8.9'
p874
sg11
S'67.9'
p875
sg13
g171
sg15
S'209'
p876
sg17
S'7.5'
p877
sg19
S'--'
p878
sg21
S'NE'
p879
sg23
g24
sg25
S'19'
p880
sg27
S'12'
p881
sg29
S'62'
p882
sg31
g24
sg32
S'--'
p883
sg34
g35
sg36
g121
sg38
g121
sg40
g35
sg41
S'11/18'
p884
sg43
S'Cam Newton'
p885
sg45
S'125.4'
p886
sg47
S'W24-20'
p887
sg49
S'2013'
p888
ssg51
(dp889
g5
S'32'
p890
sg7
S'10'
p891
sg9
S'1.9'
p892
sg11
S'50.0'
p893
sg13
g114
sg15
S'169'
p894
sg17
S'5.3'
p895
sg19
g24
sg21
S'@SF'
p896
sg23
g24
sg25
S'16'
p897
sg27
S'28'
p898
sg29
S'15'
p899
sg31
g24
sg32
g35
sg34
g35
sg36
g35
sg38
g121
sg40
g24
sg41
S'11/10'
p900
sg43
S'Cam Newton'
p901
sg45
S'52.7'
p902
sg47
S'W10-9'
p903
sg49
S'2013'
p904
ssg71
(dp905
g5
S'29'
p906
sg7
S'13'
p907
sg9
S'13.6'
p908
sg11
S'62.1'
p909
sg13
g37
sg15
S'263'
p910
sg17
S'9.1'
p911
sg19
S'--'
p912
sg21
S'TB'
p913
sg23
g24
sg25
S'18'
p914
sg27
g35
sg29
S'68'
p915
sg31
g24
sg32
S'--'
p916
sg34
g24
sg36
g39
sg38
g35
sg40
g39
sg41
S'12/01'
p917
sg43
S'Cam Newton'
p918
sg45
S'85.8'
p919
sg47
S'W27-6'
p920
sg49
S'2013'
p921
ssg90
(dp922
g5
S'38'
p923
sg7
S'12'
p924
sg9
S'7.3'
p925
sg11
S'50.0'
p926
sg13
g171
sg15
S'174'
p927
sg17
S'4.6'
p928
sg19
S'--'
p929
sg21
S'@MIA'
p930
sg23
g24
sg25
S'19'
p931
sg27
S'15'
p932
sg29
S'51'
p933
sg31
g24
sg32
S'--'
p934
sg34
g24
sg36
g24
sg38
g121
sg40
g24
sg41
S'11/24'
p935
sg43
S'Cam Newton'
p936
sg45
S'60.6'
p937
sg47
S'W20-16'
p938
sg49
S'2013'
p939
ssg108
(dp940
g5
S'24'
p941
sg7
S'15'
p942
sg9
S'1.7'
p943
sg11
S'66.7'
p944
sg13
g171
sg15
S'273'
p945
sg17
S'11.4'
p946
sg19
S'--'
p947
sg21
S'NYJ'
p948
sg23
g24
sg25
S'16'
p949
sg27
S'12'
p950
sg29
S'12'
p951
sg31
g24
sg32
S'--'
p952
sg34
g35
sg36
g24
sg38
g39
sg40
g35
sg41
S'12/15'
p953
sg43
S'Cam Newton'
p954
sg45
S'118.9'
p955
sg47
S'W30-20'
p956
sg49
S'2013'
p957
ssg127
(dp958
g5
S'34'
p959
sg7
S'14'
p960
sg9
S'8.0'
p961
sg11
S'64.7'
p962
sg13
g151
sg15
S'160'
p963
sg17
S'4.7'
p964
sg19
S'--'
p965
sg21
S'@NO'
p966
sg23
g24
sg25
S'22'
p967
sg27
S'49'
p968
sg29
S'48'
p969
sg31
g24
sg32
S'--'
p970
sg34
g35
sg36
g24
sg38
g37
sg40
g35
sg41
S'12/08'
p971
sg43
S'Cam Newton'
p972
sg45
S'85.4'
p973
sg47
S'L13-31'
p974
sg49
S'2013'
p975
ssg145
(dp976
g5
S'27'
p977
sg7
S'17'
p978
sg9
S'6.0'
p979
sg11
S'55.6'
p980
sg13
S'12'
p981
sg15
S'149'
p982
sg17
S'5.5'
p983
sg19
S'--'
p984
sg21
S'@ATL'
p985
sg23
g24
sg25
S'15'
p986
sg27
g35
sg29
S'72'
p987
sg31
g24
sg32
S'--'
p988
sg34
g35
sg36
g39
sg38
g24
sg40
g24
sg41
S'12/29'
p989
sg43
S'Cam Newton'
p990
sg45
S'80.6'
p991
sg47
S'W21-20'
p992
sg49
S'2013'
p993
ssg165
(dp994
g5
S'22'
p995
sg7
S'16'
p996
sg9
S'1.5'
p997
sg11
S'59.1'
p998
sg13
g14
sg15
S'181'
p999
sg17
S'8.2'
p1000
sg19
S'--'
p1001
sg21
S'NO'
p1002
sg23
g24
sg25
S'13'
p1003
sg27
S'40'
p1004
sg29
g151
sg31
g24
sg32
S'--'
p1005
sg34
g35
sg36
g24
sg38
g14
sg40
g24
sg41
S'12/22'
p1006
sg43
S'Cam Newton'
p1007
sg45
S'81.8'
p1008
sg47
S'W17-13'
p1009
sg49
S'2013'
p1010
ssg24
(dp1011
g5
S'23'
p1012
sg7
g24
sg9
S'7.6'
p1013
sg11
S'69.6'
p1014
sg13
g37
sg15
S'125'
p1015
sg17
S'5.4'
p1016
sg19
S'--'
p1017
sg21
S'SEA'
p1018
sg23
g24
sg25
S'16'
p1019
sg27
g151
sg29
S'38'
p1020
sg31
g24
sg32
S'--'
p1021
sg34
g35
sg36
g24
sg38
g24
sg40
g35
sg41
S'09/08'
p1022
sg43
S'Cam Newton'
p1023
sg45
S'97.2'
p1024
sg47
S'L7-12'
p1025
sg49
S'2013'
p1026
ssg121
(dp1027
g5
S'27'
p1028
sg7
g121
sg9
S'6.4'
p1029
sg11
S'55.6'
p1030
sg13
g171
sg15
S'223'
p1031
sg17
S'8.3'
p1032
sg19
S'--'
p1033
sg21
S'NYG'
p1034
sg23
g24
sg25
S'15'
p1035
sg27
S'15'
p1036
sg29
S'45'
p1037
sg31
g24
sg32
S'--'
p1038
sg34
g24
sg36
g121
sg38
g24
sg40
g24
sg41
S'09/22'
p1039
sg43
S'Cam Newton'
p1040
sg45
S'104.4'
p1041
sg47
S'W38-0'
p1042
sg49
S'2013'
p1043
ssg39
(dp1044
g5
S'38'
p1045
sg7
g39
sg9
S'3.8'
p1046
sg11
S'55.3'
p1047
sg13
g14
sg15
S'229'
p1048
sg17
S'6.0'
p1049
sg19
S'--'
p1050
sg21
S'@BUF'
p1051
sg23
g24
sg25
S'21'
p1052
sg27
S'46'
p1053
sg29
S'15'
p1054
sg31
g24
sg32
S'--'
p1055
sg34
g35
sg36
g39
sg38
g151
sg40
g24
sg41
S'09/15'
p1056
sg43
S'Cam Newton'
p1057
sg45
S'79.8'
p1058
sg47
S'L23-24'
p1059
sg49
S'2013'
p1060
ssg37
(dp1061
g5
S'39'
p1062
sg7
g37
sg9
S'6.3'
p1063
sg11
S'53.8'
p1064
sg13
g14
sg15
S'308'
p1065
sg17
S'7.9'
p1066
sg19
g24
sg21
S'@ARI'
p1067
sg23
g24
sg25
S'21'
p1068
sg27
S'50'
p1069
sg29
S'25'
p1070
sg31
g24
sg32
g24
sg34
g35
sg36
g35
sg38
g171
sg40
g121
sg41
S'10/06'
p1071
sg43
S'Cam Newton'
p1072
sg45
S'47.8'
p1073
sg47
S'L6-22'
p1074
sg49
S'2013'
p1075
ssg14
(dp1076
g5
g236
sg7
g14
sg9
g236
sg11
g236
sg13
g236
sg15
g236
sg17
g236
sg19
g236
sg21
g236
sg23
g236
sg25
g236
sg27
g236
sg29
g236
sg31
g236
sg32
g236
sg34
g236
sg36
g236
sg38
g236
sg40
g236
sg41
S'Bye'
p1077
sg43
S'Cam Newton'
p1078
sg45
g236
sg47
g236
sg49
S'2013'
p1079
ssg171
(dp1080
g5
S'17'
p1081
sg7
g171
sg9
S'2.6'
p1082
sg11
S'88.2'
p1083
sg13
S'10'
p1084
sg15
S'204'
p1085
sg17
S'12.0'
p1086
sg19
g24
sg21
S'STL'
p1087
sg23
g24
sg25
S'15'
p1088
sg27
S'24'
p1089
sg29
S'26'
p1090
sg31
g24
sg32
g35
sg34
g35
sg36
g24
sg38
g39
sg40
g35
sg41
S'10/20'
p1091
sg43
S'Cam Newton'
p1092
sg45
S'136.3'
p1093
sg47
S'W30-15'
p1094
sg49
S'2013'
p1095
ssg151
(dp1096
g5
S'26'
p1097
sg7
g151
sg9
S'3.3'
p1098
sg11
S'76.9'
p1099
sg13
g57
sg15
S'242'
p1100
sg17
S'9.3'
p1101
sg19
S'--'
p1102
sg21
S'@MIN'
p1103
sg23
g24
sg25
S'20'
p1104
sg27
g151
sg29
S'30'
p1105
sg31
g24
sg32
S'--'
p1106
sg34
g24
sg36
g121
sg38
g24
sg40
g35
sg41
S'10/13'
p1107
sg43
S'Cam Newton'
p1108
sg45
S'143.4'
p1109
sg47
S'W35-10'
p1110
sg49
S'2013'
p1111
ssg57
(dp1112
g5
S'37'
p1113
sg7
g57
sg9
S'4.4'
p1114
sg11
S'62.2'
p1115
sg13
g37
sg15
S'249'
p1116
sg17
S'6.7'
p1117
sg19
S'--'
p1118
sg21
S'ATL'
p1119
sg23
g24
sg25
S'23'
p1120
sg27
g171
sg29
S'22'
p1121
sg31
g24
sg32
S'--'
p1122
sg34
g24
sg36
g24
sg38
g24
sg40
g39
sg41
S'11/03'
p1123
sg43
S'Cam Newton'
p1124
sg45
S'68.4'
p1125
sg47
S'W34-10'
p1126
sg49
S'2013'
p1127
ssg114
(dp1128
g5
S'32'
p1129
sg7
g114
sg9
S'4.5'
p1130
sg11
S'71.9'
p1131
sg13
S'11'
p1132
sg15
S'221'
p1133
sg17
S'6.9'
p1134
sg19
S'--'
p1135
sg21
S'@TB'
p1136
sg23
g24
sg25
S'23'
p1137
sg27
S'26'
p1138
sg29
S'50'
p1139
sg31
g24
sg32
S'--'
p1140
sg34
g24
sg36
g39
sg38
g121
sg40
g35
sg41
S'10/24'
p1141
sg43
S'Cam Newton'
p1142
sg45
S'111.6'
p1143
sg47
S'W31-13'
p1144
sg49
S'2013'
p1145
sssS'2012'
p1146
(dp1147
g3
(dp1148
g5
S'29'
p1149
sg7
S'11'
p1150
sg9
S'3.6'
p1151
sg11
S'55.2'
p1152
sg13
S'11'
p1153
sg15
S'252'
p1154
sg17
S'8.7'
p1155
sg19
S'--'
p1156
sg21
S'TB'
p1157
sg23
g24
sg25
S'16'
p1158
sg27
S'18'
p1159
sg29
S'40'
p1160
sg31
g24
sg32
S'--'
p1161
sg34
g35
sg36
g24
sg38
g39
sg40
g35
sg41
S'11/18'
p1162
sg43
S'Cam Newton'
p1163
sg45
S'95.8'
p1164
sg47
S'L21-27'
p1165
sg49
S'2012'
p1166
ssg51
(dp1167
g5
S'36'
p1168
sg7
S'10'
p1169
sg9
S'1.8'
p1170
sg11
S'58.3'
p1171
sg13
g14
sg15
S'241'
p1172
sg17
S'6.7'
p1173
sg19
g24
sg21
S'DEN'
p1174
sg23
g24
sg25
S'21'
p1175
sg27
S'43'
p1176
sg29
g171
sg31
g24
sg32
g35
sg34
g35
sg36
g39
sg38
g171
sg40
g39
sg41
S'11/11'
p1177
sg43
S'Cam Newton'
p1178
sg45
S'74.0'
p1179
sg47
S'L14-36'
p1180
sg49
S'2012'
p1181
ssg71
(dp1182
g5
S'27'
p1183
sg7
S'13'
p1184
sg9
S'11.1'
p1185
sg11
S'55.6'
p1186
sg13
g171
sg15
S'232'
p1187
sg17
S'8.6'
p1188
sg19
S'--'
p1189
sg21
S'@KC'
p1190
sg23
g24
sg25
S'15'
p1191
sg27
S'12'
p1192
sg29
S'78'
p1193
sg31
g24
sg32
S'--'
p1194
sg34
g35
sg36
g121
sg38
g39
sg40
g35
sg41
S'12/02'
p1195
sg43
S'Cam Newton'
p1196
sg45
S'121.2'
p1197
sg47
S'L21-27'
p1198
sg49
S'2012'
p1199
ssg90
(dp1200
g5
S'28'
p1201
sg7
S'12'
p1202
sg9
S'3.7'
p1203
sg11
S'64.3'
p1204
sg13
S'14'
p1205
sg15
S'306'
p1206
sg17
S'10.9'
p1207
sg19
S'--'
p1208
sg21
S'@PHI'
p1209
sg23
g24
sg25
S'18'
p1210
sg27
S'17'
p1211
sg29
S'52'
p1212
sg31
g24
sg32
S'--'
p1213
sg34
g39
sg36
g39
sg38
g39
sg40
g35
sg41
S'11/26'
p1214
sg43
S'Cam Newton'
p1215
sg45
S'125.0'
p1216
sg47
S'W30-22'
p1217
sg49
S'2012'
p1218
ssg108
(dp1219
g5
S'33'
p1220
sg7
S'15'
p1221
sg9
S'1.8'
p1222
sg11
S'57.6'
p1223
sg13
g14
sg15
S'231'
p1224
sg17
S'7.0'
p1225
sg19
g24
sg21
S'@SD'
p1226
sg23
g24
sg25
S'19'
p1227
sg27
S'14'
p1228
sg29
g171
sg31
g24
sg32
g35
sg34
g35
sg36
g39
sg38
g39
sg40
g35
sg41
S'12/16'
p1229
sg43
S'Cam Newton'
p1230
sg45
S'99.4'
p1231
sg47
S'W31-7'
p1232
sg49
S'2012'
p1233
ssg127
(dp1234
g5
S'35'
p1235
sg7
S'14'
p1236
sg9
S'12.9'
p1237
sg11
S'65.7'
p1238
sg13
g57
sg15
S'287'
p1239
sg17
S'8.2'
p1240
sg19
S'--'
p1241
sg21
S'ATL'
p1242
sg23
g24
sg25
S'23'
p1243
sg27
g171
sg29
S'116'
p1244
sg31
g24
sg32
S'--'
p1245
sg34
g24
sg36
g39
sg38
g24
sg40
g35
sg41
S'12/09'
p1246
sg43
S'Cam Newton'
p1247
sg45
S'110.1'
p1248
sg47
S'W30-20'
p1249
sg49
S'2012'
p1250
ssg145
(dp1251
g5
S'33'
p1252
sg7
S'17'
p1253
sg9
S'4.9'
p1254
sg11
S'48.5'
p1255
sg13
g171
sg15
S'248'
p1256
sg17
S'7.5'
p1257
sg19
S'--'
p1258
sg21
S'@NO'
p1259
sg23
g24
sg25
S'16'
p1260
sg27
g121
sg29
S'34'
p1261
sg31
g24
sg32
S'--'
p1262
sg34
g35
sg36
g35
sg38
g24
sg40
g24
sg41
S'12/30'
p1263
sg43
S'Cam Newton'
p1264
sg45
S'61.2'
p1265
sg47
S'W44-38'
p1266
sg49
S'2012'
p1267
ssg165
(dp1268
g5
S'29'
p1269
sg7
S'16'
p1270
sg9
S'5.0'
p1271
sg11
S'62.1'
p1272
sg13
S'12'
p1273
sg15
S'170'
p1274
sg17
S'5.9'
p1275
sg19
S'--'
p1276
sg21
S'OAK'
p1277
sg23
g24
sg25
S'18'
p1278
sg27
S'11'
p1279
sg29
S'60'
p1280
sg31
g24
sg32
S'--'
p1281
sg34
g24
sg36
g24
sg38
g39
sg40
g24
sg41
S'12/23'
p1282
sg43
S'Cam Newton'
p1283
sg45
S'75.4'
p1284
sg47
S'W17-6'
p1285
sg49
S'2012'
p1286
ssg24
(dp1287
g5
S'33'
p1288
sg7
g24
sg9
S'0.8'
p1289
sg11
S'69.7'
p1290
sg13
g37
sg15
S'303'
p1291
sg17
S'9.2'
p1292
sg19
g24
sg21
S'@TB'
p1293
sg23
g24
sg25
S'23'
p1294
sg27
S'12'
p1295
sg29
g14
sg31
g24
sg32
g35
sg34
g35
sg36
g24
sg38
g121
sg40
g39
sg41
S'09/09'
p1296
sg43
S'Cam Newton'
p1297
sg45
S'83.3'
p1298
sg47
S'L10-16'
p1299
sg49
S'2012'
p1300
ssg121
(dp1301
g5
S'30'
p1302
sg7
g121
sg9
S'1.0'
p1303
sg11
S'53.3'
p1304
sg13
g151
sg15
S'242'
p1305
sg17
S'8.1'
p1306
sg19
S'--'
p1307
sg21
S'NYG'
p1308
sg23
g24
sg25
S'16'
p1309
sg27
S'21'
p1310
sg29
g151
sg31
g24
sg32
S'--'
p1311
sg34
g24
sg36
g35
sg38
g39
sg40
g121
sg41
S'09/20'
p1312
sg43
S'Cam Newton'
p1313
sg45
S'40.6'
p1314
sg47
S'L7-36'
p1315
sg49
S'2012'
p1316
ssg39
(dp1317
g5
S'20'
p1318
sg7
g39
sg9
S'5.5'
p1319
sg11
S'70.0'
p1320
sg13
S'13'
p1321
sg15
S'253'
p1322
sg17
S'12.7'
p1323
sg19
g24
sg21
S'NO'
p1324
sg23
g24
sg25
S'14'
p1325
sg27
g57
sg29
S'71'
p1326
sg31
g24
sg32
g24
sg34
g24
sg36
g24
sg38
g24
sg40
g35
sg41
S'09/16'
p1327
sg43
S'Cam Newton'
p1328
sg45
S'129.2'
p1329
sg47
S'W35-27'
p1330
sg49
S'2012'
p1331
ssg37
(dp1332
g5
S'29'
p1333
sg7
g37
sg9
S'6.0'
p1334
sg11
S'41.4'
p1335
sg13
g171
sg15
S'141'
p1336
sg17
S'4.9'
p1337
sg19
g24
sg21
S'SEA'
p1338
sg23
g24
sg25
S'12'
p1339
sg27
S'33'
p1340
sg29
S'42'
p1341
sg31
g24
sg32
g24
sg34
g35
sg36
g35
sg38
g14
sg40
g35
sg41
S'10/07'
p1342
sg43
S'Cam Newton'
p1343
sg45
S'56.8'
p1344
sg47
S'L12-16'
p1345
sg49
S'2012'
p1346
ssg14
(dp1347
g5
S'24'
p1348
sg7
g14
sg9
S'9.6'
p1349
sg11
S'62.5'
p1350
sg13
g57
sg15
S'215'
p1351
sg17
S'9.0'
p1352
sg19
g39
sg21
S'@ATL'
p1353
sg23
g24
sg25
S'15'
p1354
sg27
S'10'
p1355
sg29
S'86'
p1356
sg31
g24
sg32
g35
sg34
g24
sg36
g39
sg38
g121
sg40
g35
sg41
S'09/30'
p1357
sg43
S'Cam Newton'
p1358
sg45
S'119.3'
p1359
sg47
S'L28-30'
p1360
sg49
S'2012'
p1361
ssg171
(dp1362
g5
S'37'
p1363
sg7
g171
sg9
S'10.7'
p1364
sg11
S'56.8'
p1365
sg13
g151
sg15
S'233'
p1366
sg17
S'6.3'
p1367
sg19
g24
sg21
S'DAL'
p1368
sg23
g24
sg25
S'21'
p1369
sg27
S'17'
p1370
sg29
S'64'
p1371
sg31
g24
sg32
g24
sg34
g35
sg36
g24
sg38
g39
sg40
g24
sg41
S'10/21'
p1372
sg43
S'Cam Newton'
p1373
sg45
S'73.4'
p1374
sg47
S'L14-19'
p1375
sg49
S'2012'
p1376
ssg151
(dp1377
g5
g236
sg7
g151
sg9
g236
sg11
g236
sg13
g236
sg15
g236
sg17
g236
sg19
g236
sg21
g236
sg23
g236
sg25
g236
sg27
g236
sg29
g236
sg31
g236
sg32
g236
sg34
g236
sg36
g236
sg38
g236
sg40
g236
sg41
S'Bye'
p1378
sg43
S'Cam Newton'
p1379
sg45
g236
sg47
g236
sg49
S'2012'
p1380
ssg57
(dp1381
g5
S'23'
p1382
sg7
g57
sg9
S'4.6'
p1383
sg11
S'56.5'
p1384
sg13
g114
sg15
S'201'
p1385
sg17
S'8.7'
p1386
sg19
S'--'
p1387
sg21
S'@WAS'
p1388
sg23
g24
sg25
S'13'
p1389
sg27
g35
sg29
S'37'
p1390
sg31
g24
sg32
S'--'
p1391
sg34
g24
sg36
g24
sg38
g35
sg40
g35
sg41
S'11/04'
p1392
sg43
S'Cam Newton'
p1393
sg45
S'100.1'
p1394
sg47
S'W21-13'
p1395
sg49
S'2012'
p1396
ssg114
(dp1397
g5
S'39'
p1398
sg7
g114
sg9
S'7.4'
p1399
sg11
S'51.3'
p1400
sg13
g37
sg15
S'314'
p1401
sg17
S'8.1'
p1402
sg19
g39
sg21
S'@CHI'
p1403
sg23
g24
sg25
S'20'
p1404
sg27
S'17'
p1405
sg29
S'37'
p1406
sg31
g24
sg32
g35
sg34
g35
sg36
g35
sg38
g39
sg40
g39
sg41
S'10/28'
p1407
sg43
S'Cam Newton'
p1408
sg45
S'57.0'
p1409
sg47
S'L22-23'
p1410
sg49
S'2012'
p1411
sss.