(dp0
S'2015'
p1
(dp2
S'11'
p3
(dp4
S'PassAtt'
p5
S'26'
p6
sS'WK'
p7
S'11'
p8
sS'RushAvg'
p9
S'0.0'
p10
sS'Pct'
p11
S'46.2'
p12
sS'RushAtt'
p13
S'2'
p14
sS'PassYds'
p15
S'136'
p16
sS'PassAvg'
p17
S'5.2'
p18
sS'FUM'
p19
S'3'
p20
sS'Opp'
p21
S'@BAL'
p22
sS'G'
p23
S'1'
p24
sS'Comp'
p25
S'12'
p26
sS'SckY'
p27
S'5'
p28
sS'RushYds'
p29
S'0'
p30
sS'GS'
p31
g24
sS'Lost'
p32
g14
sS'RushTD'
p33
g30
sS'PassTD'
p34
g24
sS'Sck'
p35
g24
sS'Int'
p36
g30
sS'Game Date'
p37
S'11/22'
p38
sS'Player'
p39
S'Case Keenum'
p40
sS'Rate'
p41
S'75.2'
p42
sS'Result'
p43
S'L13-16'
p44
sS'Year'
p45
S'2015'
p46
ssS'10'
p47
(dp48
g5
S'--'
p49
sg7
S'10'
p50
sg9
S'--'
p51
sg11
S'--'
p52
sg13
S'--'
p53
sg15
S'--'
p54
sg17
S'--'
p55
sg19
S'--'
p56
sg21
S'CHI'
p57
sg23
g24
sg25
S'--'
p58
sg27
S'--'
p59
sg29
S'--'
p60
sg31
g30
sg32
S'--'
p61
sg33
S'--'
p62
sg34
S'--'
p63
sg35
S'--'
p64
sg36
S'--'
p65
sg37
S'11/15'
p66
sg39
S'Case Keenum'
p67
sg41
S'0.0'
p68
sg43
S'L13-37'
p69
sg45
S'2015'
p70
ssS'13'
p71
(dp72
g5
S'--'
p73
sg7
S'13'
p74
sg9
S'--'
p75
sg11
S'--'
p76
sg13
S'--'
p77
sg15
S'--'
p78
sg17
S'--'
p79
sg19
S'--'
p80
sg21
S'ARI'
p81
sg23
g30
sg25
S'--'
p82
sg27
S'--'
p83
sg29
S'--'
p84
sg31
g30
sg32
S'--'
p85
sg33
S'--'
p86
sg34
S'--'
p87
sg35
S'--'
p88
sg36
S'--'
p89
sg37
S'12/06'
p90
sg39
S'Case Keenum'
p91
sg41
S'0.0'
p92
sg43
S'L3-27'
p93
sg45
S'2015'
p94
ssS'12'
p95
(dp96
g5
S'--'
p97
sg7
S'12'
p98
sg9
S'--'
p99
sg11
S'--'
p100
sg13
S'--'
p101
sg15
S'--'
p102
sg17
S'--'
p103
sg19
S'--'
p104
sg21
S'@CIN'
p105
sg23
g30
sg25
S'--'
p106
sg27
S'--'
p107
sg29
S'--'
p108
sg31
g30
sg32
S'--'
p109
sg33
S'--'
p110
sg34
S'--'
p111
sg35
S'--'
p112
sg36
S'--'
p113
sg37
S'11/29'
p114
sg39
S'Case Keenum'
p115
sg41
S'0.0'
p116
sg43
S'L7-31'
p117
sg45
S'2015'
p118
ssS'15'
p119
(dp120
g5
S'17'
p121
sg7
S'15'
p122
sg9
S'-1.0'
p123
sg11
S'82.4'
p124
sg13
g20
sg15
S'234'
p125
sg17
S'13.8'
p126
sg19
S'--'
p127
sg21
S'TB'
p128
sg23
g24
sg25
S'14'
p129
sg27
S'13'
p130
sg29
S'-3'
p131
sg31
g24
sg32
S'--'
p132
sg33
g30
sg34
g14
sg35
g14
sg36
g30
sg37
S'12/17'
p133
sg39
S'Case Keenum'
p134
sg41
S'158.0'
p135
sg43
S'W31-23'
p136
sg45
S'2015'
p137
ssS'14'
p138
(dp139
g5
S'22'
p140
sg7
S'14'
p141
sg9
S'1.0'
p142
sg11
S'63.6'
p143
sg13
g14
sg15
S'124'
p144
sg17
S'5.6'
p145
sg19
S'--'
p146
sg21
S'DET'
p147
sg23
g24
sg25
S'14'
p148
sg27
S'10'
p149
sg29
g14
sg31
g24
sg32
S'--'
p150
sg33
g30
sg34
g30
sg35
g24
sg36
g24
sg37
S'12/13'
p151
sg39
S'Case Keenum'
p152
sg41
S'59.7'
p153
sg43
S'W21-14'
p154
sg45
S'2015'
p155
ssS'17'
p156
(dp157
g5
S'37'
p158
sg7
S'17'
p159
sg9
S'2.0'
p160
sg11
S'59.5'
p161
sg13
g24
sg15
S'231'
p162
sg17
S'6.2'
p163
sg19
S'--'
p164
sg21
S'@SF'
p165
sg23
g24
sg25
S'22'
p166
sg27
g30
sg29
g14
sg31
g24
sg32
S'--'
p167
sg33
g30
sg34
g30
sg35
g30
sg36
g30
sg37
S'01/03'
p168
sg39
S'Case Keenum'
p169
sg41
S'77.6'
p170
sg43
S'L16-19'
p171
sg45
S'2015'
p172
ssS'16'
p173
(dp174
g5
S'23'
p175
sg7
S'16'
p176
sg9
S'1.0'
p177
sg11
S'60.9'
p178
sg13
S'4'
p179
sg15
S'103'
p180
sg17
S'4.5'
p181
sg19
S'--'
p182
sg21
S'@SEA'
p183
sg23
g24
sg25
S'14'
p184
sg27
g30
sg29
g179
sg31
g24
sg32
S'--'
p185
sg33
g30
sg34
g24
sg35
g30
sg36
g30
sg37
S'12/27'
p186
sg39
S'Case Keenum'
p187
sg41
S'86.0'
p188
sg43
S'W23-17'
p189
sg45
S'2015'
p190
ssg24
(dp191
g5
S'--'
p192
sg7
g24
sg9
S'--'
p193
sg11
S'--'
p194
sg13
S'--'
p195
sg15
S'--'
p196
sg17
S'--'
p197
sg19
S'--'
p198
sg21
S'SEA'
p199
sg23
g30
sg25
S'--'
p200
sg27
S'--'
p201
sg29
S'--'
p202
sg31
g30
sg32
S'--'
p203
sg33
S'--'
p204
sg34
S'--'
p205
sg35
S'--'
p206
sg36
S'--'
p207
sg37
S'09/13'
p208
sg39
S'Case Keenum'
p209
sg41
S'0.0'
p210
sg43
S'W34-31'
p211
sg45
S'2015'
p212
ssg20
(dp213
g5
S'--'
p214
sg7
g20
sg9
S'--'
p215
sg11
S'--'
p216
sg13
S'--'
p217
sg15
S'--'
p218
sg17
S'--'
p219
sg19
S'--'
p220
sg21
S'PIT'
p221
sg23
g30
sg25
S'--'
p222
sg27
S'--'
p223
sg29
S'--'
p224
sg31
g30
sg32
S'--'
p225
sg33
S'--'
p226
sg34
S'--'
p227
sg35
S'--'
p228
sg36
S'--'
p229
sg37
S'09/27'
p230
sg39
S'Case Keenum'
p231
sg41
S'0.0'
p232
sg43
S'L6-12'
p233
sg45
S'2015'
p234
ssg14
(dp235
g5
S'--'
p236
sg7
g14
sg9
S'--'
p237
sg11
S'--'
p238
sg13
S'--'
p239
sg15
S'--'
p240
sg17
S'--'
p241
sg19
S'--'
p242
sg21
S'@WAS'
p243
sg23
g30
sg25
S'--'
p244
sg27
S'--'
p245
sg29
S'--'
p246
sg31
g30
sg32
S'--'
p247
sg33
S'--'
p248
sg34
S'--'
p249
sg35
S'--'
p250
sg36
S'--'
p251
sg37
S'09/20'
p252
sg39
S'Case Keenum'
p253
sg41
S'0.0'
p254
sg43
S'L10-24'
p255
sg45
S'2015'
p256
ssg28
(dp257
g5
S'--'
p258
sg7
g28
sg9
S'--'
p259
sg11
S'--'
p260
sg13
S'--'
p261
sg15
S'--'
p262
sg17
S'--'
p263
sg19
S'--'
p264
sg21
S'@GB'
p265
sg23
g30
sg25
S'--'
p266
sg27
S'--'
p267
sg29
S'--'
p268
sg31
g30
sg32
S'--'
p269
sg33
S'--'
p270
sg34
S'--'
p271
sg35
S'--'
p272
sg36
S'--'
p273
sg37
S'10/11'
p274
sg39
S'Case Keenum'
p275
sg41
S'0.0'
p276
sg43
S'L10-24'
p277
sg45
S'2015'
p278
ssg179
(dp279
g5
S'--'
p280
sg7
g179
sg9
S'--'
p281
sg11
S'--'
p282
sg13
S'--'
p283
sg15
S'--'
p284
sg17
S'--'
p285
sg19
S'--'
p286
sg21
S'@ARI'
p287
sg23
g30
sg25
S'--'
p288
sg27
S'--'
p289
sg29
S'--'
p290
sg31
g30
sg32
S'--'
p291
sg33
S'--'
p292
sg34
S'--'
p293
sg35
S'--'
p294
sg36
S'--'
p295
sg37
S'10/04'
p296
sg39
S'Case Keenum'
p297
sg41
S'0.0'
p298
sg43
S'W24-22'
p299
sg45
S'2015'
p300
ssS'7'
p301
(dp302
g5
S'--'
p303
sg7
g301
sg9
S'--'
p304
sg11
S'--'
p305
sg13
S'--'
p306
sg15
S'--'
p307
sg17
S'--'
p308
sg19
S'--'
p309
sg21
S'CLE'
p310
sg23
g30
sg25
S'--'
p311
sg27
S'--'
p312
sg29
S'--'
p313
sg31
g30
sg32
S'--'
p314
sg33
S'--'
p315
sg34
S'--'
p316
sg35
S'--'
p317
sg36
S'--'
p318
sg37
S'10/25'
p319
sg39
S'Case Keenum'
p320
sg41
S'0.0'
p321
sg43
S'W24-6'
p322
sg45
S'2015'
p323
ssS'6'
p324
(dp325
g5
S''
p326
sg7
g324
sg9
g326
sg11
g326
sg13
g326
sg15
g326
sg17
g326
sg19
g326
sg21
g326
sg23
g326
sg25
g326
sg27
g326
sg29
g326
sg31
g326
sg32
g326
sg33
g326
sg34
g326
sg35
g326
sg36
g326
sg37
S'Bye'
p327
sg39
S'Case Keenum'
p328
sg41
g326
sg43
g326
sg45
S'2015'
p329
ssS'9'
p330
(dp331
g5
S'--'
p332
sg7
g330
sg9
S'--'
p333
sg11
S'--'
p334
sg13
S'--'
p335
sg15
S'--'
p336
sg17
S'--'
p337
sg19
S'--'
p338
sg21
S'@MIN'
p339
sg23
g30
sg25
S'--'
p340
sg27
S'--'
p341
sg29
S'--'
p342
sg31
g30
sg32
S'--'
p343
sg33
S'--'
p344
sg34
S'--'
p345
sg35
S'--'
p346
sg36
S'--'
p347
sg37
S'11/08'
p348
sg39
S'Case Keenum'
p349
sg41
S'0.0'
p350
sg43
S'L18-21'
p351
sg45
S'2015'
p352
ssS'8'
p353
(dp354
g5
S'--'
p355
sg7
g353
sg9
S'--'
p356
sg11
S'--'
p357
sg13
S'--'
p358
sg15
S'--'
p359
sg17
S'--'
p360
sg19
S'--'
p361
sg21
S'SF'
p362
sg23
g30
sg25
S'--'
p363
sg27
S'--'
p364
sg29
S'--'
p365
sg31
g30
sg32
S'--'
p366
sg33
S'--'
p367
sg34
S'--'
p368
sg35
S'--'
p369
sg36
S'--'
p370
sg37
S'11/01'
p371
sg39
S'Case Keenum'
p372
sg41
S'0.0'
p373
sg43
S'W27-6'
p374
sg45
S'2015'
p375
sssS'2014'
p376
(dp377
g156
(dp378
g5
S'35'
p379
sg7
S'17'
p380
sg9
S'2.7'
p381
sg11
S'71.4'
p382
sg13
g324
sg15
S'250'
p383
sg17
S'7.1'
p384
sg19
g24
sg21
S'JAC'
p385
sg23
g24
sg25
S'25'
p386
sg27
S'15'
p387
sg29
S'16'
p388
sg31
g24
sg32
g24
sg33
g30
sg34
g14
sg35
g20
sg36
g24
sg37
S'12/28'
p389
sg39
S'Case Keenum'
p390
sg41
S'98.5'
p391
sg43
S'W23-17'
p392
sg45
S'2014'
p393
ssg173
(dp394
g5
S'42'
p395
sg7
S'16'
p396
sg9
S'4.8'
p397
sg11
S'47.6'
p398
sg13
g179
sg15
S'185'
p399
sg17
S'4.4'
p400
sg19
S'--'
p401
sg21
S'BAL'
p402
sg23
g24
sg25
S'20'
p403
sg27
g30
sg29
S'19'
p404
sg31
g24
sg32
S'--'
p405
sg33
g30
sg34
g30
sg35
g30
sg36
g24
sg37
S'12/21'
p406
sg39
S'Case Keenum'
p407
sg41
S'50.2'
p408
sg43
S'W25-13'
p409
sg45
S'2014'
p410
ssg24
(dp411
g5
S'--'
p412
sg7
g24
sg9
S'--'
p413
sg11
S'--'
p414
sg13
S'--'
p415
sg15
S'--'
p416
sg17
S'--'
p417
sg19
S'--'
p418
sg21
S'MIN'
p419
sg23
g30
sg25
S'--'
p420
sg27
S'--'
p421
sg29
S'--'
p422
sg31
g30
sg32
S'--'
p423
sg33
S'--'
p424
sg34
S'--'
p425
sg35
S'--'
p426
sg36
S'--'
p427
sg37
S'09/07'
p428
sg39
S'Case Keenum'
p429
sg41
S'0.0'
p430
sg43
S'L6-34'
p431
sg45
S'2014'
p432
ssg20
(dp433
g5
S'--'
p434
sg7
g20
sg9
S'--'
p435
sg11
S'--'
p436
sg13
S'--'
p437
sg15
S'--'
p438
sg17
S'--'
p439
sg19
S'--'
p440
sg21
S'DAL'
p441
sg23
g30
sg25
S'--'
p442
sg27
S'--'
p443
sg29
S'--'
p444
sg31
g30
sg32
S'--'
p445
sg33
S'--'
p446
sg34
S'--'
p447
sg35
S'--'
p448
sg36
S'--'
p449
sg37
S'09/21'
p450
sg39
S'Case Keenum'
p451
sg41
S'0.0'
p452
sg43
S'L31-34'
p453
sg45
S'2014'
p454
ssg14
(dp455
g5
S'--'
p456
sg7
g14
sg9
S'--'
p457
sg11
S'--'
p458
sg13
S'--'
p459
sg15
S'--'
p460
sg17
S'--'
p461
sg19
S'--'
p462
sg21
S'@TB'
p463
sg23
g30
sg25
S'--'
p464
sg27
S'--'
p465
sg29
S'--'
p466
sg31
g30
sg32
S'--'
p467
sg33
S'--'
p468
sg34
S'--'
p469
sg35
S'--'
p470
sg36
S'--'
p471
sg37
S'09/14'
p472
sg39
S'Case Keenum'
p473
sg41
S'0.0'
p474
sg43
S'W19-17'
p475
sg45
S'2014'
p476
ssg28
(dp477
g5
S'--'
p478
sg7
g28
sg9
S'--'
p479
sg11
S'--'
p480
sg13
S'--'
p481
sg15
S'--'
p482
sg17
S'--'
p483
sg19
S'--'
p484
sg21
S'@PHI'
p485
sg23
g30
sg25
S'--'
p486
sg27
S'--'
p487
sg29
S'--'
p488
sg31
g30
sg32
S'--'
p489
sg33
S'--'
p490
sg34
S'--'
p491
sg35
S'--'
p492
sg36
S'--'
p493
sg37
S'10/05'
p494
sg39
S'Case Keenum'
p495
sg41
S'0.0'
p496
sg43
S'L28-34'
p497
sg45
S'2014'
p498
ssg179
(dp499
g5
g326
sg7
g179
sg9
g326
sg11
g326
sg13
g326
sg15
g326
sg17
g326
sg19
g326
sg21
g326
sg23
g326
sg25
g326
sg27
g326
sg29
g326
sg31
g326
sg32
g326
sg33
g326
sg34
g326
sg35
g326
sg36
g326
sg37
S'Bye'
p500
sg39
S'Case Keenum'
p501
sg41
g326
sg43
g326
sg45
S'2014'
p502
ssg301
(dp503
g5
S'--'
p504
sg7
g301
sg9
S'--'
p505
sg11
S'--'
p506
sg13
S'--'
p507
sg15
S'--'
p508
sg17
S'--'
p509
sg19
S'--'
p510
sg21
S'SEA'
p511
sg23
g30
sg25
S'--'
p512
sg27
S'--'
p513
sg29
S'--'
p514
sg31
g30
sg32
S'--'
p515
sg33
S'--'
p516
sg34
S'--'
p517
sg35
S'--'
p518
sg36
S'--'
p519
sg37
S'10/19'
p520
sg39
S'Case Keenum'
p521
sg41
S'0.0'
p522
sg43
S'W28-26'
p523
sg45
S'2014'
p524
ssg324
(dp525
g5
S'--'
p526
sg7
g324
sg9
S'--'
p527
sg11
S'--'
p528
sg13
S'--'
p529
sg15
S'--'
p530
sg17
S'--'
p531
sg19
S'--'
p532
sg21
S'SF'
p533
sg23
g30
sg25
S'--'
p534
sg27
S'--'
p535
sg29
S'--'
p536
sg31
g30
sg32
S'--'
p537
sg33
S'--'
p538
sg34
S'--'
p539
sg35
S'--'
p540
sg36
S'--'
p541
sg37
S'10/13'
p542
sg39
S'Case Keenum'
p543
sg41
S'0.0'
p544
sg43
S'L17-31'
p545
sg45
S'2014'
p546
ssg353
(dp547
g5
S'--'
p548
sg7
g353
sg9
S'--'
p549
sg11
S'--'
p550
sg13
S'--'
p551
sg15
S'--'
p552
sg17
S'--'
p553
sg19
S'--'
p554
sg21
S'@KC'
p555
sg23
g30
sg25
S'--'
p556
sg27
S'--'
p557
sg29
S'--'
p558
sg31
g30
sg32
S'--'
p559
sg33
S'--'
p560
sg34
S'--'
p561
sg35
S'--'
p562
sg36
S'--'
p563
sg37
S'10/26'
p564
sg39
S'Case Keenum'
p565
sg41
S'0.0'
p566
sg43
S'L7-34'
p567
sg45
S'2014'
p568
sssS'2013'
p569
(dp570
g3
(dp571
g5
S'24'
p572
sg7
S'11'
p573
sg9
S'--'
p574
sg11
S'54.2'
p575
sg13
S'--'
p576
sg15
S'170'
p577
sg17
S'7.1'
p578
sg19
g24
sg21
S'OAK'
p579
sg23
g24
sg25
S'13'
p580
sg27
S'21'
p581
sg29
S'--'
p582
sg31
g24
sg32
g30
sg33
S'--'
p583
sg34
g24
sg35
g14
sg36
g24
sg37
S'11/17'
p584
sg39
S'Case Keenum'
p585
sg41
S'73.3'
p586
sg43
S'L23-28'
p587
sg45
S'2013'
p588
ssg47
(dp589
g5
S'43'
p590
sg7
S'10'
p591
sg9
S'6.5'
p592
sg11
S'51.2'
p593
sg13
g14
sg15
S'201'
p594
sg17
S'4.7'
p595
sg19
g24
sg21
S'@ARI'
p596
sg23
g24
sg25
S'22'
p597
sg27
S'42'
p598
sg29
S'13'
p599
sg31
g24
sg32
g24
sg33
g30
sg34
g20
sg35
g20
sg36
g30
sg37
S'11/10'
p600
sg39
S'Case Keenum'
p601
sg41
S'87.5'
p602
sg43
S'L24-27'
p603
sg45
S'2013'
p604
ssg71
(dp605
g5
S'30'
p606
sg7
S'13'
p607
sg9
S'2.0'
p608
sg11
S'50.0'
p609
sg13
g20
sg15
S'272'
p610
sg17
S'9.1'
p611
sg19
S'--'
p612
sg21
S'NE'
p613
sg23
g24
sg25
S'15'
p614
sg27
g353
sg29
g324
sg31
g24
sg32
S'--'
p615
sg33
g24
sg34
g30
sg35
g24
sg36
g24
sg37
S'12/01'
p616
sg39
S'Case Keenum'
p617
sg41
S'67.6'
p618
sg43
S'L31-34'
p619
sg45
S'2013'
p620
ssg95
(dp621
g5
S'34'
p622
sg7
S'12'
p623
sg9
S'2.0'
p624
sg11
S'52.9'
p625
sg13
g24
sg15
S'169'
p626
sg17
S'5.0'
p627
sg19
S'--'
p628
sg21
S'JAC'
p629
sg23
g24
sg25
S'18'
p630
sg27
S'28'
p631
sg29
g14
sg31
g24
sg32
S'--'
p632
sg33
g30
sg34
g30
sg35
g14
sg36
g24
sg37
S'11/24'
p633
sg39
S'Case Keenum'
p634
sg41
S'54.7'
p635
sg43
S'L6-13'
p636
sg45
S'2013'
p637
ssg119
(dp638
g5
S'34'
p639
sg7
S'15'
p640
sg9
S'2.0'
p641
sg11
S'52.9'
p642
sg13
g24
sg15
S'168'
p643
sg17
S'4.9'
p644
sg19
g24
sg21
S'@IND'
p645
sg23
g24
sg25
S'18'
p646
sg27
S'36'
p647
sg29
g14
sg31
g24
sg32
g30
sg33
g30
sg34
g30
sg35
g179
sg36
g14
sg37
S'12/15'
p648
sg39
S'Case Keenum'
p649
sg41
S'42.3'
p650
sg43
S'L3-25'
p651
sg45
S'2013'
p652
ssg138
(dp653
g5
S'29'
p654
sg7
S'14'
p655
sg9
S'13.0'
p656
sg11
S'55.2'
p657
sg13
g24
sg15
S'159'
p658
sg17
S'5.5'
p659
sg19
g24
sg21
S'@JAC'
p660
sg23
g24
sg25
S'16'
p661
sg27
g324
sg29
S'13'
p662
sg31
g24
sg32
g30
sg33
g30
sg34
g24
sg35
g24
sg36
g24
sg37
S'12/05'
p663
sg39
S'Case Keenum'
p664
sg41
S'68.0'
p665
sg43
S'L20-27'
p666
sg45
S'2013'
p667
ssg156
(dp668
g5
S'--'
p669
sg7
S'17'
p670
sg9
S'--'
p671
sg11
S'--'
p672
sg13
S'--'
p673
sg15
S'--'
p674
sg17
S'--'
p675
sg19
S'--'
p676
sg21
S'@TEN'
p677
sg23
g30
sg25
S'--'
p678
sg27
S'--'
p679
sg29
S'--'
p680
sg31
g30
sg32
S'--'
p681
sg33
S'--'
p682
sg34
S'--'
p683
sg35
S'--'
p684
sg36
S'--'
p685
sg37
S'12/29'
p686
sg39
S'Case Keenum'
p687
sg41
S'0.0'
p688
sg43
S'L10-16'
p689
sg45
S'2013'
p690
ssg173
(dp691
g5
S'--'
p692
sg7
S'16'
p693
sg9
S'--'
p694
sg11
S'--'
p695
sg13
S'--'
p696
sg15
S'--'
p697
sg17
S'--'
p698
sg19
S'--'
p699
sg21
S'DEN'
p700
sg23
g30
sg25
S'--'
p701
sg27
S'--'
p702
sg29
S'--'
p703
sg31
g30
sg32
S'--'
p704
sg33
S'--'
p705
sg34
S'--'
p706
sg35
S'--'
p707
sg36
S'--'
p708
sg37
S'12/22'
p709
sg39
S'Case Keenum'
p710
sg41
S'0.0'
p711
sg43
S'L13-37'
p712
sg45
S'2013'
p713
ssg24
(dp714
g5
S'--'
p715
sg7
g24
sg9
S'--'
p716
sg11
S'--'
p717
sg13
S'--'
p718
sg15
S'--'
p719
sg17
S'--'
p720
sg19
S'--'
p721
sg21
S'@SD'
p722
sg23
g30
sg25
S'--'
p723
sg27
S'--'
p724
sg29
S'--'
p725
sg31
g30
sg32
S'--'
p726
sg33
S'--'
p727
sg34
S'--'
p728
sg35
S'--'
p729
sg36
S'--'
p730
sg37
S'09/09'
p731
sg39
S'Case Keenum'
p732
sg41
S'0.0'
p733
sg43
S'W31-28'
p734
sg45
S'2013'
p735
ssg20
(dp736
g5
S'--'
p737
sg7
g20
sg9
S'--'
p738
sg11
S'--'
p739
sg13
S'--'
p740
sg15
S'--'
p741
sg17
S'--'
p742
sg19
S'--'
p743
sg21
S'@BAL'
p744
sg23
g30
sg25
S'--'
p745
sg27
S'--'
p746
sg29
S'--'
p747
sg31
g30
sg32
S'--'
p748
sg33
S'--'
p749
sg34
S'--'
p750
sg35
S'--'
p751
sg36
S'--'
p752
sg37
S'09/22'
p753
sg39
S'Case Keenum'
p754
sg41
S'0.0'
p755
sg43
S'L9-30'
p756
sg45
S'2013'
p757
ssg14
(dp758
g5
S'--'
p759
sg7
g14
sg9
S'--'
p760
sg11
S'--'
p761
sg13
S'--'
p762
sg15
S'--'
p763
sg17
S'--'
p764
sg19
S'--'
p765
sg21
S'TEN'
p766
sg23
g30
sg25
S'--'
p767
sg27
S'--'
p768
sg29
S'--'
p769
sg31
g30
sg32
S'--'
p770
sg33
S'--'
p771
sg34
S'--'
p772
sg35
S'--'
p773
sg36
S'--'
p774
sg37
S'09/15'
p775
sg39
S'Case Keenum'
p776
sg41
S'0.0'
p777
sg43
S'W30-24'
p778
sg45
S'2013'
p779
ssg28
(dp780
g5
S'--'
p781
sg7
g28
sg9
S'--'
p782
sg11
S'--'
p783
sg13
S'--'
p784
sg15
S'--'
p785
sg17
S'--'
p786
sg19
S'--'
p787
sg21
S'@SF'
p788
sg23
g30
sg25
S'--'
p789
sg27
S'--'
p790
sg29
S'--'
p791
sg31
g30
sg32
S'--'
p792
sg33
S'--'
p793
sg34
S'--'
p794
sg35
S'--'
p795
sg36
S'--'
p796
sg37
S'10/06'
p797
sg39
S'Case Keenum'
p798
sg41
S'0.0'
p799
sg43
S'L3-34'
p800
sg45
S'2013'
p801
ssg179
(dp802
g5
S'--'
p803
sg7
g179
sg9
S'--'
p804
sg11
S'--'
p805
sg13
S'--'
p806
sg15
S'--'
p807
sg17
S'--'
p808
sg19
S'--'
p809
sg21
S'SEA'
p810
sg23
g30
sg25
S'--'
p811
sg27
S'--'
p812
sg29
S'--'
p813
sg31
g30
sg32
S'--'
p814
sg33
S'--'
p815
sg34
S'--'
p816
sg35
S'--'
p817
sg36
S'--'
p818
sg37
S'09/29'
p819
sg39
S'Case Keenum'
p820
sg41
S'0.0'
p821
sg43
S'L20-23'
p822
sg45
S'2013'
p823
ssg301
(dp824
g5
S'25'
p825
sg7
g301
sg9
S'3.3'
p826
sg11
S'60.0'
p827
sg13
g20
sg15
S'271'
p828
sg17
S'10.8'
p829
sg19
g14
sg21
S'@KC'
p830
sg23
g24
sg25
S'15'
p831
sg27
S'50'
p832
sg29
S'10'
p833
sg31
g24
sg32
g24
sg33
g30
sg34
g24
sg35
g28
sg36
g30
sg37
S'10/20'
p834
sg39
S'Case Keenum'
p835
sg41
S'110.6'
p836
sg43
S'L16-17'
p837
sg45
S'2013'
p838
ssg324
(dp839
g5
S'--'
p840
sg7
g324
sg9
S'--'
p841
sg11
S'--'
p842
sg13
S'--'
p843
sg15
S'--'
p844
sg17
S'--'
p845
sg19
S'--'
p846
sg21
S'STL'
p847
sg23
g30
sg25
S'--'
p848
sg27
S'--'
p849
sg29
S'--'
p850
sg31
g30
sg32
S'--'
p851
sg33
S'--'
p852
sg34
S'--'
p853
sg35
S'--'
p854
sg36
S'--'
p855
sg37
S'10/13'
p856
sg39
S'Case Keenum'
p857
sg41
S'0.0'
p858
sg43
S'L13-38'
p859
sg45
S'2013'
p860
ssg330
(dp861
g5
S'34'
p862
sg7
g330
sg9
S'8.7'
p863
sg11
S'58.8'
p864
sg13
g20
sg15
S'350'
p865
sg17
S'10.3'
p866
sg19
S'--'
p867
sg21
S'IND'
p868
sg23
g24
sg25
S'20'
p869
sg27
S'10'
p870
sg29
S'26'
p871
sg31
g24
sg32
S'--'
p872
sg33
g30
sg34
g20
sg35
g24
sg36
g30
sg37
S'11/03'
p873
sg39
S'Case Keenum'
p874
sg41
S'123.4'
p875
sg43
S'L24-27'
p876
sg45
S'2013'
p877
ssg353
(dp878
g5
g326
sg7
g353
sg9
g326
sg11
g326
sg13
g326
sg15
g326
sg17
g326
sg19
g326
sg21
g326
sg23
g326
sg25
g326
sg27
g326
sg29
g326
sg31
g326
sg32
g326
sg33
g326
sg34
g326
sg35
g326
sg36
g326
sg37
S'Bye'
p879
sg39
S'Case Keenum'
p880
sg41
g326
sg43
g326
sg45
S'2013'
p881
sss.