(dp0
S'2015'
p1
(dp2
S'11'
p3
(dp4
S'PassAtt'
p5
S'--'
p6
sS'WK'
p7
S'11'
p8
sS'RushAvg'
p9
S'--'
p10
sS'Pct'
p11
S'--'
p12
sS'RushAtt'
p13
S'--'
p14
sS'PassYds'
p15
S'--'
p16
sS'PassAvg'
p17
S'--'
p18
sS'FUM'
p19
S'--'
p20
sS'Opp'
p21
S'TEN'
p22
sS'G'
p23
S'0'
p24
sS'Comp'
p25
S'--'
p26
sS'SckY'
p27
S'--'
p28
sS'RushYds'
p29
S'--'
p30
sS'GS'
p31
g24
sS'Lost'
p32
S'--'
p33
sS'RushTD'
p34
S'--'
p35
sS'PassTD'
p36
S'--'
p37
sS'Sck'
p38
S'--'
p39
sS'Int'
p40
S'--'
p41
sS'Game Date'
p42
S'11/19'
p43
sS'Player'
p44
S'Chad Henne'
p45
sS'Rate'
p46
S'0.0'
p47
sS'Result'
p48
S'W19-13'
p49
sS'Year'
p50
S'2015'
p51
ssS'10'
p52
(dp53
g5
S'--'
p54
sg7
S'10'
p55
sg9
S'--'
p56
sg11
S'--'
p57
sg13
S'--'
p58
sg15
S'--'
p59
sg17
S'--'
p60
sg19
S'--'
p61
sg21
S'@BAL'
p62
sg23
g24
sg25
S'--'
p63
sg27
S'--'
p64
sg29
S'--'
p65
sg31
g24
sg32
S'--'
p66
sg34
S'--'
p67
sg36
S'--'
p68
sg38
S'--'
p69
sg40
S'--'
p70
sg42
S'11/15'
p71
sg44
S'Chad Henne'
p72
sg46
S'0.0'
p73
sg48
S'W22-20'
p74
sg50
S'2015'
p75
ssS'13'
p76
(dp77
g5
S'--'
p78
sg7
S'13'
p79
sg9
S'--'
p80
sg11
S'--'
p81
sg13
S'--'
p82
sg15
S'--'
p83
sg17
S'--'
p84
sg19
S'--'
p85
sg21
S'@TEN'
p86
sg23
g24
sg25
S'--'
p87
sg27
S'--'
p88
sg29
S'--'
p89
sg31
g24
sg32
S'--'
p90
sg34
S'--'
p91
sg36
S'--'
p92
sg38
S'--'
p93
sg40
S'--'
p94
sg42
S'12/06'
p95
sg44
S'Chad Henne'
p96
sg46
S'0.0'
p97
sg48
S'L39-42'
p98
sg50
S'2015'
p99
ssS'12'
p100
(dp101
g5
S'--'
p102
sg7
S'12'
p103
sg9
S'--'
p104
sg11
S'--'
p105
sg13
S'--'
p106
sg15
S'--'
p107
sg17
S'--'
p108
sg19
S'--'
p109
sg21
S'SD'
p110
sg23
g24
sg25
S'--'
p111
sg27
S'--'
p112
sg29
S'--'
p113
sg31
g24
sg32
S'--'
p114
sg34
S'--'
p115
sg36
S'--'
p116
sg38
S'--'
p117
sg40
S'--'
p118
sg42
S'11/29'
p119
sg44
S'Chad Henne'
p120
sg46
S'0.0'
p121
sg48
S'L25-31'
p122
sg50
S'2015'
p123
ssS'15'
p124
(dp125
g5
S'--'
p126
sg7
S'15'
p127
sg9
S'--'
p128
sg11
S'--'
p129
sg13
S'--'
p130
sg15
S'--'
p131
sg17
S'--'
p132
sg19
S'--'
p133
sg21
S'ATL'
p134
sg23
g24
sg25
S'--'
p135
sg27
S'--'
p136
sg29
S'--'
p137
sg31
g24
sg32
S'--'
p138
sg34
S'--'
p139
sg36
S'--'
p140
sg38
S'--'
p141
sg40
S'--'
p142
sg42
S'12/20'
p143
sg44
S'Chad Henne'
p144
sg46
S'0.0'
p145
sg48
S'L17-23'
p146
sg50
S'2015'
p147
ssS'14'
p148
(dp149
g5
S'--'
p150
sg7
S'14'
p151
sg9
S'--'
p152
sg11
S'--'
p153
sg13
S'--'
p154
sg15
S'--'
p155
sg17
S'--'
p156
sg19
S'--'
p157
sg21
S'IND'
p158
sg23
g24
sg25
S'--'
p159
sg27
S'--'
p160
sg29
S'--'
p161
sg31
g24
sg32
S'--'
p162
sg34
S'--'
p163
sg36
S'--'
p164
sg38
S'--'
p165
sg40
S'--'
p166
sg42
S'12/13'
p167
sg44
S'Chad Henne'
p168
sg46
S'0.0'
p169
sg48
S'W51-16'
p170
sg50
S'2015'
p171
ssS'17'
p172
(dp173
g5
S'--'
p174
sg7
S'17'
p175
sg9
S'--'
p176
sg11
S'--'
p177
sg13
S'--'
p178
sg15
S'--'
p179
sg17
S'--'
p180
sg19
S'--'
p181
sg21
S'@HOU'
p182
sg23
g24
sg25
S'--'
p183
sg27
S'--'
p184
sg29
S'--'
p185
sg31
g24
sg32
S'--'
p186
sg34
S'--'
p187
sg36
S'--'
p188
sg38
S'--'
p189
sg40
S'--'
p190
sg42
S'01/03'
p191
sg44
S'Chad Henne'
p192
sg46
S'0.0'
p193
sg48
S'L6-30'
p194
sg50
S'2015'
p195
ssS'16'
p196
(dp197
g5
S'--'
p198
sg7
S'16'
p199
sg9
S'--'
p200
sg11
S'--'
p201
sg13
S'--'
p202
sg15
S'--'
p203
sg17
S'--'
p204
sg19
S'--'
p205
sg21
S'@NO'
p206
sg23
g24
sg25
S'--'
p207
sg27
S'--'
p208
sg29
S'--'
p209
sg31
g24
sg32
S'--'
p210
sg34
S'--'
p211
sg36
S'--'
p212
sg38
S'--'
p213
sg40
S'--'
p214
sg42
S'12/27'
p215
sg44
S'Chad Henne'
p216
sg46
S'0.0'
p217
sg48
S'L27-38'
p218
sg50
S'2015'
p219
ssS'1'
p220
(dp221
g5
S'--'
p222
sg7
g220
sg9
S'--'
p223
sg11
S'--'
p224
sg13
S'--'
p225
sg15
S'--'
p226
sg17
S'--'
p227
sg19
S'--'
p228
sg21
S'CAR'
p229
sg23
g24
sg25
S'--'
p230
sg27
S'--'
p231
sg29
S'--'
p232
sg31
g24
sg32
S'--'
p233
sg34
S'--'
p234
sg36
S'--'
p235
sg38
S'--'
p236
sg40
S'--'
p237
sg42
S'09/13'
p238
sg44
S'Chad Henne'
p239
sg46
S'0.0'
p240
sg48
S'L9-20'
p241
sg50
S'2015'
p242
ssS'3'
p243
(dp244
g5
S'--'
p245
sg7
g243
sg9
S'--'
p246
sg11
S'--'
p247
sg13
S'--'
p248
sg15
S'--'
p249
sg17
S'--'
p250
sg19
S'--'
p251
sg21
S'@NE'
p252
sg23
g24
sg25
S'--'
p253
sg27
S'--'
p254
sg29
S'--'
p255
sg31
g24
sg32
S'--'
p256
sg34
S'--'
p257
sg36
S'--'
p258
sg38
S'--'
p259
sg40
S'--'
p260
sg42
S'09/27'
p261
sg44
S'Chad Henne'
p262
sg46
S'0.0'
p263
sg48
S'L17-51'
p264
sg50
S'2015'
p265
ssS'2'
p266
(dp267
g5
S'--'
p268
sg7
g266
sg9
S'--'
p269
sg11
S'--'
p270
sg13
S'--'
p271
sg15
S'--'
p272
sg17
S'--'
p273
sg19
S'--'
p274
sg21
S'MIA'
p275
sg23
g24
sg25
S'--'
p276
sg27
S'--'
p277
sg29
S'--'
p278
sg31
g24
sg32
S'--'
p279
sg34
S'--'
p280
sg36
S'--'
p281
sg38
S'--'
p282
sg40
S'--'
p283
sg42
S'09/20'
p284
sg44
S'Chad Henne'
p285
sg46
S'0.0'
p286
sg48
S'W23-20'
p287
sg50
S'2015'
p288
ssS'5'
p289
(dp290
g5
S'--'
p291
sg7
g289
sg9
S'--'
p292
sg11
S'--'
p293
sg13
S'--'
p294
sg15
S'--'
p295
sg17
S'--'
p296
sg19
S'--'
p297
sg21
S'@TB'
p298
sg23
g24
sg25
S'--'
p299
sg27
S'--'
p300
sg29
S'--'
p301
sg31
g24
sg32
S'--'
p302
sg34
S'--'
p303
sg36
S'--'
p304
sg38
S'--'
p305
sg40
S'--'
p306
sg42
S'10/11'
p307
sg44
S'Chad Henne'
p308
sg46
S'0.0'
p309
sg48
S'L31-38'
p310
sg50
S'2015'
p311
ssS'4'
p312
(dp313
g5
S'--'
p314
sg7
g312
sg9
S'--'
p315
sg11
S'--'
p316
sg13
S'--'
p317
sg15
S'--'
p318
sg17
S'--'
p319
sg19
S'--'
p320
sg21
S'@IND'
p321
sg23
g24
sg25
S'--'
p322
sg27
S'--'
p323
sg29
S'--'
p324
sg31
g24
sg32
S'--'
p325
sg34
S'--'
p326
sg36
S'--'
p327
sg38
S'--'
p328
sg40
S'--'
p329
sg42
S'10/04'
p330
sg44
S'Chad Henne'
p331
sg46
S'0.0'
p332
sg48
S'L13-16'
p333
sg50
S'2015'
p334
ssS'7'
p335
(dp336
g5
S'--'
p337
sg7
g335
sg9
S'--'
p338
sg11
S'--'
p339
sg13
S'--'
p340
sg15
S'--'
p341
sg17
S'--'
p342
sg19
S'--'
p343
sg21
S'BUF'
p344
sg23
g24
sg25
S'--'
p345
sg27
S'--'
p346
sg29
S'--'
p347
sg31
g24
sg32
S'--'
p348
sg34
S'--'
p349
sg36
S'--'
p350
sg38
S'--'
p351
sg40
S'--'
p352
sg42
S'10/25'
p353
sg44
S'Chad Henne'
p354
sg46
S'0.0'
p355
sg48
S'W34-31'
p356
sg50
S'2015'
p357
ssS'6'
p358
(dp359
g5
S'--'
p360
sg7
g358
sg9
S'--'
p361
sg11
S'--'
p362
sg13
S'--'
p363
sg15
S'--'
p364
sg17
S'--'
p365
sg19
S'--'
p366
sg21
S'HOU'
p367
sg23
g24
sg25
S'--'
p368
sg27
S'--'
p369
sg29
S'--'
p370
sg31
g24
sg32
S'--'
p371
sg34
S'--'
p372
sg36
S'--'
p373
sg38
S'--'
p374
sg40
S'--'
p375
sg42
S'10/18'
p376
sg44
S'Chad Henne'
p377
sg46
S'0.0'
p378
sg48
S'L20-31'
p379
sg50
S'2015'
p380
ssS'9'
p381
(dp382
g5
S'--'
p383
sg7
g381
sg9
S'--'
p384
sg11
S'--'
p385
sg13
S'--'
p386
sg15
S'--'
p387
sg17
S'--'
p388
sg19
S'--'
p389
sg21
S'@NYJ'
p390
sg23
g24
sg25
S'--'
p391
sg27
S'--'
p392
sg29
S'--'
p393
sg31
g24
sg32
S'--'
p394
sg34
S'--'
p395
sg36
S'--'
p396
sg38
S'--'
p397
sg40
S'--'
p398
sg42
S'11/08'
p399
sg44
S'Chad Henne'
p400
sg46
S'0.0'
p401
sg48
S'L23-28'
p402
sg50
S'2015'
p403
ssS'8'
p404
(dp405
g5
S''
p406
sg7
g404
sg9
g406
sg11
g406
sg13
g406
sg15
g406
sg17
g406
sg19
g406
sg21
g406
sg23
g406
sg25
g406
sg27
g406
sg29
g406
sg31
g406
sg32
g406
sg34
g406
sg36
g406
sg38
g406
sg40
g406
sg42
S'Bye'
p407
sg44
S'Chad Henne'
p408
sg46
g406
sg48
g406
sg50
S'2015'
p409
sssS'2014'
p410
(dp411
g3
(dp412
g5
g406
sg7
S'11'
p413
sg9
g406
sg11
g406
sg13
g406
sg15
g406
sg17
g406
sg19
g406
sg21
g406
sg23
g406
sg25
g406
sg27
g406
sg29
g406
sg31
g406
sg32
g406
sg34
g406
sg36
g406
sg38
g406
sg40
g406
sg42
S'Bye'
p414
sg44
S'Chad Henne'
p415
sg46
g406
sg48
g406
sg50
S'2014'
p416
ssg52
(dp417
g5
S'--'
p418
sg7
S'10'
p419
sg9
S'--'
p420
sg11
S'--'
p421
sg13
S'--'
p422
sg15
S'--'
p423
sg17
S'--'
p424
sg19
S'--'
p425
sg21
S'DAL'
p426
sg23
g24
sg25
S'--'
p427
sg27
S'--'
p428
sg29
S'--'
p429
sg31
g24
sg32
S'--'
p430
sg34
S'--'
p431
sg36
S'--'
p432
sg38
S'--'
p433
sg40
S'--'
p434
sg42
S'11/09'
p435
sg44
S'Chad Henne'
p436
sg46
S'0.0'
p437
sg48
S'L17-31'
p438
sg50
S'2014'
p439
ssg76
(dp440
g5
S'--'
p441
sg7
S'13'
p442
sg9
S'--'
p443
sg11
S'--'
p444
sg13
S'--'
p445
sg15
S'--'
p446
sg17
S'--'
p447
sg19
S'--'
p448
sg21
S'NYG'
p449
sg23
g24
sg25
S'--'
p450
sg27
S'--'
p451
sg29
S'--'
p452
sg31
g24
sg32
S'--'
p453
sg34
S'--'
p454
sg36
S'--'
p455
sg38
S'--'
p456
sg40
S'--'
p457
sg42
S'11/30'
p458
sg44
S'Chad Henne'
p459
sg46
S'0.0'
p460
sg48
S'W25-24'
p461
sg50
S'2014'
p462
ssg100
(dp463
g5
S'--'
p464
sg7
S'12'
p465
sg9
S'--'
p466
sg11
S'--'
p467
sg13
S'--'
p468
sg15
S'--'
p469
sg17
S'--'
p470
sg19
S'--'
p471
sg21
S'@IND'
p472
sg23
g24
sg25
S'--'
p473
sg27
S'--'
p474
sg29
S'--'
p475
sg31
g24
sg32
S'--'
p476
sg34
S'--'
p477
sg36
S'--'
p478
sg38
S'--'
p479
sg40
S'--'
p480
sg42
S'11/23'
p481
sg44
S'Chad Henne'
p482
sg46
S'0.0'
p483
sg48
S'L3-23'
p484
sg50
S'2014'
p485
ssg124
(dp486
g5
S'--'
p487
sg7
S'15'
p488
sg9
S'--'
p489
sg11
S'--'
p490
sg13
S'--'
p491
sg15
S'--'
p492
sg17
S'--'
p493
sg19
S'--'
p494
sg21
S'@BAL'
p495
sg23
g24
sg25
S'--'
p496
sg27
S'--'
p497
sg29
S'--'
p498
sg31
g24
sg32
S'--'
p499
sg34
S'--'
p500
sg36
S'--'
p501
sg38
S'--'
p502
sg40
S'--'
p503
sg42
S'12/14'
p504
sg44
S'Chad Henne'
p505
sg46
S'0.0'
p506
sg48
S'L12-20'
p507
sg50
S'2014'
p508
ssg148
(dp509
g5
S'--'
p510
sg7
S'14'
p511
sg9
S'--'
p512
sg11
S'--'
p513
sg13
S'--'
p514
sg15
S'--'
p515
sg17
S'--'
p516
sg19
S'--'
p517
sg21
S'HOU'
p518
sg23
g24
sg25
S'--'
p519
sg27
S'--'
p520
sg29
S'--'
p521
sg31
g24
sg32
S'--'
p522
sg34
S'--'
p523
sg36
S'--'
p524
sg38
S'--'
p525
sg40
S'--'
p526
sg42
S'12/07'
p527
sg44
S'Chad Henne'
p528
sg46
S'0.0'
p529
sg48
S'L13-27'
p530
sg50
S'2014'
p531
ssg172
(dp532
g5
S'--'
p533
sg7
S'17'
p534
sg9
S'--'
p535
sg11
S'--'
p536
sg13
S'--'
p537
sg15
S'--'
p538
sg17
S'--'
p539
sg19
S'--'
p540
sg21
S'@HOU'
p541
sg23
g24
sg25
S'--'
p542
sg27
S'--'
p543
sg29
S'--'
p544
sg31
g24
sg32
S'--'
p545
sg34
S'--'
p546
sg36
S'--'
p547
sg38
S'--'
p548
sg40
S'--'
p549
sg42
S'12/28'
p550
sg44
S'Chad Henne'
p551
sg46
S'0.0'
p552
sg48
S'L17-23'
p553
sg50
S'2014'
p554
ssg196
(dp555
g5
S'--'
p556
sg7
S'16'
p557
sg9
S'--'
p558
sg11
S'--'
p559
sg13
S'--'
p560
sg15
S'--'
p561
sg17
S'--'
p562
sg19
S'--'
p563
sg21
S'TEN'
p564
sg23
g24
sg25
S'--'
p565
sg27
S'--'
p566
sg29
S'--'
p567
sg31
g24
sg32
S'--'
p568
sg34
S'--'
p569
sg36
S'--'
p570
sg38
S'--'
p571
sg40
S'--'
p572
sg42
S'12/18'
p573
sg44
S'Chad Henne'
p574
sg46
S'0.0'
p575
sg48
S'W21-13'
p576
sg50
S'2014'
p577
ssg220
(dp578
g5
S'43'
p579
sg7
g220
sg9
S'8.0'
p580
sg11
S'55.8'
p581
sg13
g220
sg15
S'266'
p582
sg17
S'6.2'
p583
sg19
g220
sg21
S'@PHI'
p584
sg23
g220
sg25
S'24'
p585
sg27
S'24'
p586
sg29
g404
sg31
g220
sg32
g220
sg34
g24
sg36
g266
sg38
g243
sg40
g24
sg42
S'09/07'
p587
sg44
S'Chad Henne'
p588
sg46
S'89.9'
p589
sg48
S'L17-34'
p590
sg50
S'2014'
p591
ssg243
(dp592
g5
g335
sg7
g243
sg9
S'--'
p593
sg11
S'57.1'
p594
sg13
S'--'
p595
sg15
S'33'
p596
sg17
S'4.7'
p597
sg19
S'--'
p598
sg21
S'IND'
p599
sg23
g220
sg25
g312
sg27
S'11'
p600
sg29
S'--'
p601
sg31
g220
sg32
S'--'
p602
sg34
S'--'
p603
sg36
g24
sg38
g243
sg40
g24
sg42
S'09/21'
p604
sg44
S'Chad Henne'
p605
sg46
S'69.3'
p606
sg48
S'L17-44'
p607
sg50
S'2014'
p608
ssg266
(dp609
g5
S'28'
p610
sg7
g266
sg9
S'5.7'
p611
sg11
S'50.0'
p612
sg13
g243
sg15
S'193'
p613
sg17
S'6.9'
p614
sg19
S'--'
p615
sg21
S'@WAS'
p616
sg23
g220
sg25
S'14'
p617
sg27
S'70'
p618
sg29
S'17'
p619
sg31
g220
sg32
S'--'
p620
sg34
g24
sg36
g220
sg38
S'10'
p621
sg40
g220
sg42
S'09/14'
p622
sg44
S'Chad Henne'
p623
sg46
S'69.5'
p624
sg48
S'L10-41'
p625
sg50
S'2014'
p626
ssg289
(dp627
g5
S'--'
p628
sg7
g289
sg9
S'--'
p629
sg11
S'--'
p630
sg13
S'--'
p631
sg15
S'--'
p632
sg17
S'--'
p633
sg19
S'--'
p634
sg21
S'PIT'
p635
sg23
g24
sg25
S'--'
p636
sg27
S'--'
p637
sg29
S'--'
p638
sg31
g24
sg32
S'--'
p639
sg34
S'--'
p640
sg36
S'--'
p641
sg38
S'--'
p642
sg40
S'--'
p643
sg42
S'10/05'
p644
sg44
S'Chad Henne'
p645
sg46
S'0.0'
p646
sg48
S'L9-17'
p647
sg50
S'2014'
p648
ssg312
(dp649
g5
S'--'
p650
sg7
g312
sg9
S'--'
p651
sg11
S'--'
p652
sg13
S'--'
p653
sg15
S'--'
p654
sg17
S'--'
p655
sg19
S'--'
p656
sg21
S'@SD'
p657
sg23
g24
sg25
S'--'
p658
sg27
S'--'
p659
sg29
S'--'
p660
sg31
g24
sg32
S'--'
p661
sg34
S'--'
p662
sg36
S'--'
p663
sg38
S'--'
p664
sg40
S'--'
p665
sg42
S'09/28'
p666
sg44
S'Chad Henne'
p667
sg46
S'0.0'
p668
sg48
S'L14-33'
p669
sg50
S'2014'
p670
ssg335
(dp671
g5
S'--'
p672
sg7
g335
sg9
S'--'
p673
sg11
S'--'
p674
sg13
S'--'
p675
sg15
S'--'
p676
sg17
S'--'
p677
sg19
S'--'
p678
sg21
S'CLE'
p679
sg23
g24
sg25
S'--'
p680
sg27
S'--'
p681
sg29
S'--'
p682
sg31
g24
sg32
S'--'
p683
sg34
S'--'
p684
sg36
S'--'
p685
sg38
S'--'
p686
sg40
S'--'
p687
sg42
S'10/19'
p688
sg44
S'Chad Henne'
p689
sg46
S'0.0'
p690
sg48
S'W24-6'
p691
sg50
S'2014'
p692
ssg358
(dp693
g5
S'--'
p694
sg7
g358
sg9
S'--'
p695
sg11
S'--'
p696
sg13
S'--'
p697
sg15
S'--'
p698
sg17
S'--'
p699
sg19
S'--'
p700
sg21
S'@TEN'
p701
sg23
g24
sg25
S'--'
p702
sg27
S'--'
p703
sg29
S'--'
p704
sg31
g24
sg32
S'--'
p705
sg34
S'--'
p706
sg36
S'--'
p707
sg38
S'--'
p708
sg40
S'--'
p709
sg42
S'10/12'
p710
sg44
S'Chad Henne'
p711
sg46
S'0.0'
p712
sg48
S'L14-16'
p713
sg50
S'2014'
p714
ssg381
(dp715
g5
S'--'
p716
sg7
g381
sg9
S'--'
p717
sg11
S'--'
p718
sg13
S'--'
p719
sg15
S'--'
p720
sg17
S'--'
p721
sg19
S'--'
p722
sg21
S'@CIN'
p723
sg23
g24
sg25
S'--'
p724
sg27
S'--'
p725
sg29
S'--'
p726
sg31
g24
sg32
S'--'
p727
sg34
S'--'
p728
sg36
S'--'
p729
sg38
S'--'
p730
sg40
S'--'
p731
sg42
S'11/02'
p732
sg44
S'Chad Henne'
p733
sg46
S'0.0'
p734
sg48
S'L23-33'
p735
sg50
S'2014'
p736
ssg404
(dp737
g5
S'--'
p738
sg7
g404
sg9
S'--'
p739
sg11
S'--'
p740
sg13
S'--'
p741
sg15
S'--'
p742
sg17
S'--'
p743
sg19
S'--'
p744
sg21
S'MIA'
p745
sg23
g24
sg25
S'--'
p746
sg27
S'--'
p747
sg29
S'--'
p748
sg31
g24
sg32
S'--'
p749
sg34
S'--'
p750
sg36
S'--'
p751
sg38
S'--'
p752
sg40
S'--'
p753
sg42
S'10/26'
p754
sg44
S'Chad Henne'
p755
sg46
S'0.0'
p756
sg48
S'L13-27'
p757
sg50
S'2014'
p758
sssS'2011'
p759
(dp760
g220
(dp761
g5
S'49'
p762
sg7
g220
sg9
S'8.4'
p763
sg11
S'61.2'
p764
sg13
g335
sg15
S'416'
p765
sg17
S'8.5'
p766
sg19
g220
sg21
S'NE'
p767
sg23
g220
sg25
S'30'
p768
sg27
S'26'
p769
sg29
S'59'
p770
sg31
g220
sg32
g24
sg34
g220
sg36
g266
sg38
g312
sg40
g220
sg42
S'09/12'
p771
sg44
S'Chad Henne'
p772
sg46
S'93.6'
p773
sg48
S'L24-38'
p774
sg50
S'2011'
p775
ssg243
(dp776
g5
S'29'
p777
sg7
g243
sg9
S'6.5'
p778
sg11
S'65.5'
p779
sg13
g312
sg15
S'255'
p780
sg17
S'8.8'
p781
sg19
S'--'
p782
sg21
S'@CLE'
p783
sg23
g220
sg25
S'19'
p784
sg27
S'24'
p785
sg29
S'26'
p786
sg31
g220
sg32
S'--'
p787
sg34
g24
sg36
g220
sg38
g289
sg40
g220
sg42
S'09/25'
p788
sg44
S'Chad Henne'
p789
sg46
S'90.4'
p790
sg48
S'L16-17'
p791
sg50
S'2011'
p792
ssg266
(dp793
g5
S'30'
p794
sg7
g266
sg9
S'8.7'
p795
sg11
S'40.0'
p796
sg13
g243
sg15
S'170'
p797
sg17
S'5.7'
p798
sg19
S'--'
p799
sg21
S'HOU'
p800
sg23
g220
sg25
S'12'
p801
sg27
S'17'
p802
sg29
S'26'
p803
sg31
g220
sg32
S'--'
p804
sg34
g24
sg36
g220
sg38
g266
sg40
g220
sg42
S'09/18'
p805
sg44
S'Chad Henne'
p806
sg46
S'56.2'
p807
sg48
S'L13-23'
p808
sg50
S'2011'
p809
ssg312
(dp810
g5
g312
sg7
g312
sg9
S'1.0'
p811
sg11
S'75.0'
p812
sg13
g220
sg15
S'27'
p813
sg17
S'6.8'
p814
sg19
S'--'
p815
sg21
S'@SD'
p816
sg23
g220
sg25
g243
sg27
g24
sg29
g220
sg31
g220
sg32
S'--'
p817
sg34
g24
sg36
g24
sg38
g24
sg40
g220
sg42
S'10/02'
p818
sg44
S'Chad Henne'
p819
sg46
S'53.1'
p820
sg48
S'L16-26'
p821
sg50
S'2011'
p822
sssS'2010'
p823
(dp824
g3
(dp825
g5
S'--'
p826
sg7
S'11'
p827
sg9
S'--'
p828
sg11
S'--'
p829
sg13
S'--'
p830
sg15
S'--'
p831
sg17
S'--'
p832
sg19
S'--'
p833
sg21
S'CHI'
p834
sg23
g24
sg25
S'--'
p835
sg27
S'--'
p836
sg29
S'--'
p837
sg31
g24
sg32
S'--'
p838
sg34
S'--'
p839
sg36
S'--'
p840
sg38
S'--'
p841
sg40
S'--'
p842
sg42
S'11/18'
p843
sg44
S'Chad Henne'
p844
sg46
S'0.0'
p845
sg48
S'L0-16'
p846
sg50
S'2010'
p847
ssg52
(dp848
g5
S'28'
p849
sg7
S'10'
p850
sg9
S'1.5'
p851
sg11
S'67.9'
p852
sg13
g266
sg15
S'240'
p853
sg17
S'8.6'
p854
sg19
S'--'
p855
sg21
S'TEN'
p856
sg23
g220
sg25
S'19'
p857
sg27
g335
sg29
g243
sg31
g24
sg32
S'--'
p858
sg34
g24
sg36
g220
sg38
g220
sg40
g220
sg42
S'11/14'
p859
sg44
S'Chad Henne'
p860
sg46
S'91.4'
p861
sg48
S'W29-17'
p862
sg50
S'2010'
p863
ssg76
(dp864
g5
S'32'
p865
sg7
S'13'
p866
sg9
S'3.4'
p867
sg11
S'50.0'
p868
sg13
g289
sg15
S'174'
p869
sg17
S'5.4'
p870
sg19
S'--'
p871
sg21
S'CLE'
p872
sg23
g220
sg25
S'16'
p873
sg27
g335
sg29
S'17'
p874
sg31
g220
sg32
S'--'
p875
sg34
g24
sg36
g220
sg38
g220
sg40
g243
sg42
S'12/05'
p876
sg44
S'Chad Henne'
p877
sg46
S'37.8'
p878
sg48
S'L10-13'
p879
sg50
S'2010'
p880
ssg100
(dp881
g5
S'30'
p882
sg7
S'12'
p883
sg9
S'-1.3'
p884
sg11
S'56.7'
p885
sg13
g243
sg15
S'307'
p886
sg17
S'10.2'
p887
sg19
S'--'
p888
sg21
S'@OAK'
p889
sg23
g220
sg25
S'17'
p890
sg27
S'22'
p891
sg29
S'-4'
p892
sg31
g220
sg32
S'--'
p893
sg34
g24
sg36
g266
sg38
g243
sg40
g220
sg42
S'11/28'
p894
sg44
S'Chad Henne'
p895
sg46
S'100.3'
p896
sg48
S'W33-17'
p897
sg50
S'2010'
p898
ssg124
(dp899
g5
S'45'
p900
sg7
S'15'
p901
sg9
S'--'
p902
sg11
S'73.3'
p903
sg13
S'--'
p904
sg15
S'276'
p905
sg17
S'6.1'
p906
sg19
S'--'
p907
sg21
S'BUF'
p908
sg23
g220
sg25
S'33'
p909
sg27
S'15'
p910
sg29
S'--'
p911
sg31
g220
sg32
S'--'
p912
sg34
S'--'
p913
sg36
g220
sg38
g243
sg40
g220
sg42
S'12/19'
p914
sg44
S'Chad Henne'
p915
sg46
S'86.9'
p916
sg48
S'L14-17'
p917
sg50
S'2010'
p918
ssg148
(dp919
g5
S'18'
p920
sg7
S'14'
p921
sg9
S'1.8'
p922
sg11
S'27.8'
p923
sg13
g312
sg15
S'55'
p924
sg17
S'3.1'
p925
sg19
g266
sg21
S'@NYJ'
p926
sg23
g220
sg25
g289
sg27
S'25'
p927
sg29
g335
sg31
g220
sg32
g266
sg34
g24
sg36
g220
sg38
g289
sg40
g24
sg42
S'12/12'
p928
sg44
S'Chad Henne'
p929
sg46
S'58.3'
p930
sg48
S'W10-6'
p931
sg50
S'2010'
p932
ssg172
(dp933
g5
S'16'
p934
sg7
S'17'
p935
sg9
S'--'
p936
sg11
S'37.5'
p937
sg13
S'--'
p938
sg15
S'71'
p939
sg17
S'4.4'
p940
sg19
S'--'
p941
sg21
S'@NE'
p942
sg23
g220
sg25
g358
sg27
S'23'
p943
sg29
S'--'
p944
sg31
g220
sg32
S'--'
p945
sg34
S'--'
p946
sg36
g24
sg38
g243
sg40
g220
sg42
S'01/02'
p947
sg44
S'Chad Henne'
p948
sg46
S'25.8'
p949
sg48
S'L7-38'
p950
sg50
S'2010'
p951
ssg196
(dp952
g5
S'44'
p953
sg7
S'16'
p954
sg9
S'2.8'
p955
sg11
S'65.9'
p956
sg13
g289
sg15
S'278'
p957
sg17
S'6.3'
p958
sg19
g220
sg21
S'DET'
p959
sg23
g220
sg25
S'29'
p960
sg27
g335
sg29
S'14'
p961
sg31
g220
sg32
g24
sg34
g24
sg36
g220
sg38
g266
sg40
g266
sg42
S'12/26'
p962
sg44
S'Chad Henne'
p963
sg46
S'72.0'
p964
sg48
S'L27-34'
p965
sg50
S'2010'
p966
ssg220
(dp967
g5
S'34'
p968
sg7
g220
sg9
S'-0.5'
p969
sg11
S'61.8'
p970
sg13
g266
sg15
S'182'
p971
sg17
S'5.4'
p972
sg19
S'--'
p973
sg21
S'@BUF'
p974
sg23
g220
sg25
S'21'
p975
sg27
S'18'
p976
sg29
S'-1'
p977
sg31
g220
sg32
S'--'
p978
sg34
g24
sg36
g24
sg38
g243
sg40
g24
sg42
S'09/12'
p979
sg44
S'Chad Henne'
p980
sg46
S'75.9'
p981
sg48
S'W15-10'
p982
sg50
S'2010'
p983
ssg243
(dp984
g5
S'44'
p985
sg7
g243
sg9
S'1.0'
p986
sg11
S'59.1'
p987
sg13
g220
sg15
S'363'
p988
sg17
S'8.3'
p989
sg19
S'--'
p990
sg21
S'NYJ'
p991
sg23
g220
sg25
S'26'
p992
sg27
S'11'
p993
sg29
g220
sg31
g220
sg32
S'--'
p994
sg34
g24
sg36
g266
sg38
g266
sg40
g220
sg42
S'09/26'
p995
sg44
S'Chad Henne'
p996
sg46
S'91.4'
p997
sg48
S'L23-31'
p998
sg50
S'2010'
p999
ssg266
(dp1000
g5
S'15'
p1001
sg7
g266
sg9
S'0.0'
p1002
sg11
S'60.0'
p1003
sg13
g266
sg15
S'114'
p1004
sg17
S'7.6'
p1005
sg19
S'--'
p1006
sg21
S'@MIN'
p1007
sg23
g220
sg25
g381
sg27
g404
sg29
g24
sg31
g220
sg32
S'--'
p1008
sg34
g24
sg36
g220
sg38
g266
sg40
g24
sg42
S'09/19'
p1009
sg44
S'Chad Henne'
p1010
sg46
S'106.0'
p1011
sg48
S'W14-10'
p1012
sg50
S'2010'
p1013
ssg289
(dp1014
g5
g406
sg7
g289
sg9
g406
sg11
g406
sg13
g406
sg15
g406
sg17
g406
sg19
g406
sg21
g406
sg23
g406
sg25
g406
sg27
g406
sg29
g406
sg31
g406
sg32
g406
sg34
g406
sg36
g406
sg38
g406
sg40
g406
sg42
S'Bye'
p1015
sg44
S'Chad Henne'
p1016
sg46
g406
sg48
g406
sg50
S'2010'
p1017
ssg312
(dp1018
g5
S'38'
p1019
sg7
g312
sg9
S'--'
p1020
sg11
S'73.7'
p1021
sg13
S'--'
p1022
sg15
S'305'
p1023
sg17
S'8.0'
p1024
sg19
S'--'
p1025
sg21
S'NE'
p1026
sg23
g220
sg25
S'28'
p1027
sg27
S'12'
p1028
sg29
S'--'
p1029
sg31
g220
sg32
S'--'
p1030
sg34
S'--'
p1031
sg36
g266
sg38
g266
sg40
g243
sg42
S'10/04'
p1032
sg44
S'Chad Henne'
p1033
sg46
S'81.6'
p1034
sg48
S'L14-41'
p1035
sg50
S'2010'
p1036
ssg335
(dp1037
g5
S'36'
p1038
sg7
g335
sg9
S'--'
p1039
sg11
S'63.9'
p1040
sg13
S'--'
p1041
sg15
S'257'
p1042
sg17
S'7.1'
p1043
sg19
S'--'
p1044
sg21
S'PIT'
p1045
sg23
g220
sg25
S'23'
p1046
sg27
g404
sg29
S'--'
p1047
sg31
g220
sg32
S'--'
p1048
sg34
S'--'
p1049
sg36
g220
sg38
g220
sg40
g220
sg42
S'10/24'
p1050
sg44
S'Chad Henne'
p1051
sg46
S'82.8'
p1052
sg48
S'L22-23'
p1053
sg50
S'2010'
p1054
ssg358
(dp1055
g5
S'39'
p1056
sg7
g358
sg9
S'4.5'
p1057
sg11
S'59.0'
p1058
sg13
g266
sg15
S'231'
p1059
sg17
S'5.9'
p1060
sg19
S'--'
p1061
sg21
S'@GB'
p1062
sg23
g220
sg25
S'23'
p1063
sg27
g24
sg29
g381
sg31
g220
sg32
S'--'
p1064
sg34
g24
sg36
g266
sg38
g24
sg40
g220
sg42
S'10/17'
p1065
sg44
S'Chad Henne'
p1066
sg46
S'82.3'
p1067
sg48
S'W23-20'
p1068
sg50
S'2010'
p1069
ssg381
(dp1070
g5
S'34'
p1071
sg7
g381
sg9
S'2.2'
p1072
sg11
S'64.7'
p1073
sg13
g358
sg15
S'231'
p1074
sg17
S'6.8'
p1075
sg19
g266
sg21
S'@BAL'
p1076
sg23
g220
sg25
S'22'
p1077
sg27
S'15'
p1078
sg29
S'13'
p1079
sg31
g220
sg32
g24
sg34
g24
sg36
g24
sg38
g266
sg40
g243
sg42
S'11/07'
p1080
sg44
S'Chad Henne'
p1081
sg46
S'47.5'
p1082
sg48
S'L10-26'
p1083
sg50
S'2010'
p1084
ssg404
(dp1085
g5
S'37'
p1086
sg7
g404
sg9
S'-2.3'
p1087
sg11
S'64.9'
p1088
sg13
g243
sg15
S'217'
p1089
sg17
S'5.9'
p1090
sg19
S'--'
p1091
sg21
S'@CIN'
p1092
sg23
g220
sg25
S'24'
p1093
sg27
g24
sg29
S'-7'
p1094
sg31
g220
sg32
S'--'
p1095
sg34
g24
sg36
g24
sg38
g24
sg40
g220
sg42
S'10/31'
p1096
sg44
S'Chad Henne'
p1097
sg46
S'69.3'
p1098
sg48
S'W22-14'
p1099
sg50
S'2010'
p1100
sssS'2013'
p1101
(dp1102
g3
(dp1103
g5
S'42'
p1104
sg7
S'11'
p1105
sg9
S'--'
p1106
sg11
S'64.3'
p1107
sg13
S'--'
p1108
sg15
S'255'
p1109
sg17
S'6.1'
p1110
sg19
S'--'
p1111
sg21
S'ARI'
p1112
sg23
g220
sg25
S'27'
p1113
sg27
S'13'
p1114
sg29
S'--'
p1115
sg31
g220
sg32
S'--'
p1116
sg34
S'--'
p1117
sg36
g220
sg38
g266
sg40
g266
sg42
S'11/17'
p1118
sg44
S'Chad Henne'
p1119
sg46
S'69.0'
p1120
sg48
S'L14-27'
p1121
sg50
S'2013'
p1122
ssg52
(dp1123
g5
S'23'
p1124
sg7
S'10'
p1125
sg9
S'-0.5'
p1126
sg11
S'60.9'
p1127
sg13
g266
sg15
S'180'
p1128
sg17
S'7.8'
p1129
sg19
S'--'
p1130
sg21
S'@TEN'
p1131
sg23
g220
sg25
S'14'
p1132
sg27
S'20'
p1133
sg29
S'-1'
p1134
sg31
g220
sg32
S'--'
p1135
sg34
g24
sg36
g24
sg38
g243
sg40
g266
sg42
S'11/10'
p1136
sg44
S'Chad Henne'
p1137
sg46
S'49.2'
p1138
sg48
S'W29-27'
p1139
sg50
S'2013'
p1140
ssg76
(dp1141
g5
S'40'
p1142
sg7
S'13'
p1143
sg9
S'--'
p1144
sg11
S'55.0'
p1145
sg13
S'--'
p1146
sg15
S'195'
p1147
sg17
S'4.9'
p1148
sg19
S'--'
p1149
sg21
S'@CLE'
p1150
sg23
g220
sg25
S'22'
p1151
sg27
g220
sg29
S'--'
p1152
sg31
g220
sg32
S'--'
p1153
sg34
S'--'
p1154
sg36
g266
sg38
g266
sg40
g220
sg42
S'12/01'
p1155
sg44
S'Chad Henne'
p1156
sg46
S'74.5'
p1157
sg48
S'W32-28'
p1158
sg50
S'2013'
p1159
ssg100
(dp1160
g5
S'32'
p1161
sg7
S'12'
p1162
sg9
S'1.0'
p1163
sg11
S'71.9'
p1164
sg13
g243
sg15
S'239'
p1165
sg17
S'7.5'
p1166
sg19
g220
sg21
S'@HOU'
p1167
sg23
g220
sg25
S'23'
p1168
sg27
S'24'
p1169
sg29
g243
sg31
g220
sg32
g24
sg34
g24
sg36
g24
sg38
g312
sg40
g24
sg42
S'11/24'
p1170
sg44
S'Chad Henne'
p1171
sg46
S'93.1'
p1172
sg48
S'W13-6'
p1173
sg50
S'2013'
p1174
ssg124
(dp1175
g5
S'36'
p1176
sg7
S'15'
p1177
sg9
S'5.5'
p1178
sg11
S'58.3'
p1179
sg13
g312
sg15
S'237'
p1180
sg17
S'6.6'
p1181
sg19
S'--'
p1182
sg21
S'BUF'
p1183
sg23
g220
sg25
S'21'
p1184
sg27
S'42'
p1185
sg29
S'22'
p1186
sg31
g220
sg32
S'--'
p1187
sg34
g24
sg36
g266
sg38
g289
sg40
g266
sg42
S'12/15'
p1188
sg44
S'Chad Henne'
p1189
sg46
S'73.5'
p1190
sg48
S'L20-27'
p1191
sg50
S'2013'
p1192
ssg148
(dp1193
g5
S'27'
p1194
sg7
S'14'
p1195
sg9
S'8.3'
p1196
sg11
S'44.4'
p1197
sg13
g312
sg15
S'117'
p1198
sg17
S'4.3'
p1199
sg19
S'--'
p1200
sg21
S'HOU'
p1201
sg23
g220
sg25
S'12'
p1202
sg27
g358
sg29
S'33'
p1203
sg31
g220
sg32
S'--'
p1204
sg34
g24
sg36
g266
sg38
g220
sg40
g24
sg42
S'12/05'
p1205
sg44
S'Chad Henne'
p1206
sg46
S'81.9'
p1207
sg48
S'W27-20'
p1208
sg50
S'2013'
p1209
ssg172
(dp1210
g5
S'51'
p1211
sg7
S'17'
p1212
sg9
S'0.0'
p1213
sg11
S'58.8'
p1214
sg13
g220
sg15
S'331'
p1215
sg17
S'6.5'
p1216
sg19
S'--'
p1217
sg21
S'@IND'
p1218
sg23
g220
sg25
S'30'
p1219
sg27
S'23'
p1220
sg29
g24
sg31
g220
sg32
S'--'
p1221
sg34
g24
sg36
g220
sg38
g243
sg40
g220
sg42
S'12/29'
p1222
sg44
S'Chad Henne'
p1223
sg46
S'76.5'
p1224
sg48
S'L10-30'
p1225
sg50
S'2013'
p1226
ssg196
(dp1227
g5
S'34'
p1228
sg7
S'16'
p1229
sg9
S'1.0'
p1230
sg11
S'70.6'
p1231
sg13
g220
sg15
S'237'
p1232
sg17
S'7.0'
p1233
sg19
S'--'
p1234
sg21
S'TEN'
p1235
sg23
g220
sg25
S'24'
p1236
sg27
S'11'
p1237
sg29
g220
sg31
g220
sg32
S'--'
p1238
sg34
g24
sg36
g266
sg38
g266
sg40
g220
sg42
S'12/22'
p1239
sg44
S'Chad Henne'
p1240
sg46
S'97.3'
p1241
sg48
S'L16-20'
p1242
sg50
S'2013'
p1243
ssg220
(dp1244
g5
g358
sg7
g220
sg9
S'--'
p1245
sg11
S'50.0'
p1246
sg13
S'--'
p1247
sg15
S'36'
p1248
sg17
S'6.0'
p1249
sg19
S'--'
p1250
sg21
S'KC'
p1251
sg23
g220
sg25
g243
sg27
g24
sg29
S'--'
p1252
sg31
g24
sg32
S'--'
p1253
sg34
S'--'
p1254
sg36
g24
sg38
g24
sg40
g24
sg42
S'09/08'
p1255
sg44
S'Chad Henne'
p1256
sg46
S'68.8'
p1257
sg48
S'L2-28'
p1258
sg50
S'2013'
p1259
ssg243
(dp1260
g5
S'38'
p1261
sg7
g243
sg9
S'2.5'
p1262
sg11
S'47.4'
p1263
sg13
g266
sg15
S'235'
p1264
sg17
S'6.2'
p1265
sg19
g220
sg21
S'@SEA'
p1266
sg23
g220
sg25
S'18'
p1267
sg27
S'21'
p1268
sg29
g289
sg31
g220
sg32
g24
sg34
g24
sg36
g24
sg38
g243
sg40
g266
sg42
S'09/22'
p1269
sg44
S'Chad Henne'
p1270
sg46
S'45.4'
p1271
sg48
S'L17-45'
p1272
sg50
S'2013'
p1273
ssg266
(dp1274
g5
S'38'
p1275
sg7
g266
sg9
S'4.5'
p1276
sg11
S'65.8'
p1277
sg13
g266
sg15
S'241'
p1278
sg17
S'6.3'
p1279
sg19
S'--'
p1280
sg21
S'@OAK'
p1281
sg23
g220
sg25
S'25'
p1282
sg27
S'27'
p1283
sg29
g381
sg31
g220
sg32
S'--'
p1284
sg34
g24
sg36
g220
sg38
g289
sg40
g24
sg42
S'09/15'
p1285
sg44
S'Chad Henne'
p1286
sg46
S'92.1'
p1287
sg48
S'L9-19'
p1288
sg50
S'2013'
p1289
ssg289
(dp1290
g5
S'13'
p1291
sg7
g289
sg9
S'2.0'
p1292
sg11
S'53.8'
p1293
sg13
g220
sg15
S'89'
p1294
sg17
S'6.8'
p1295
sg19
S'--'
p1296
sg21
S'@STL'
p1297
sg23
g220
sg25
g335
sg27
g24
sg29
g266
sg31
g24
sg32
S'--'
p1298
sg34
g24
sg36
g220
sg38
g24
sg40
g24
sg42
S'10/06'
p1299
sg44
S'Chad Henne'
p1300
sg46
S'101.1'
p1301
sg48
S'L20-34'
p1302
sg50
S'2013'
p1303
ssg312
(dp1304
g5
S'--'
p1305
sg7
g312
sg9
S'--'
p1306
sg11
S'--'
p1307
sg13
S'--'
p1308
sg15
S'--'
p1309
sg17
S'--'
p1310
sg19
S'--'
p1311
sg21
S'IND'
p1312
sg23
g24
sg25
S'--'
p1313
sg27
S'--'
p1314
sg29
S'--'
p1315
sg31
g24
sg32
S'--'
p1316
sg34
S'--'
p1317
sg36
S'--'
p1318
sg38
S'--'
p1319
sg40
S'--'
p1320
sg42
S'09/29'
p1321
sg44
S'Chad Henne'
p1322
sg46
S'0.0'
p1323
sg48
S'L3-37'
p1324
sg50
S'2013'
p1325
ssg335
(dp1326
g5
S'36'
p1327
sg7
g335
sg9
S'1.3'
p1328
sg11
S'63.9'
p1329
sg13
g312
sg15
S'318'
p1330
sg17
S'8.8'
p1331
sg19
S'--'
p1332
sg21
S'SD'
p1333
sg23
g220
sg25
S'23'
p1334
sg27
S'43'
p1335
sg29
g289
sg31
g220
sg32
S'--'
p1336
sg34
g24
sg36
g24
sg38
g358
sg40
g220
sg42
S'10/20'
p1337
sg44
S'Chad Henne'
p1338
sg46
S'80.6'
p1339
sg48
S'L6-24'
p1340
sg50
S'2013'
p1341
ssg358
(dp1342
g5
S'42'
p1343
sg7
g358
sg9
S'-1.5'
p1344
sg11
S'64.3'
p1345
sg13
g266
sg15
S'303'
p1346
sg17
S'7.2'
p1347
sg19
S'--'
p1348
sg21
S'@DEN'
p1349
sg23
g220
sg25
S'27'
p1350
sg27
S'12'
p1351
sg29
S'-3'
p1352
sg31
g220
sg32
S'--'
p1353
sg34
g24
sg36
g24
sg38
g266
sg40
g266
sg42
S'10/13'
p1354
sg44
S'Chad Henne'
p1355
sg46
S'65.9'
p1356
sg48
S'L19-35'
p1357
sg50
S'2013'
p1358
ssg381
(dp1359
g5
g406
sg7
g381
sg9
g406
sg11
g406
sg13
g406
sg15
g406
sg17
g406
sg19
g406
sg21
g406
sg23
g406
sg25
g406
sg27
g406
sg29
g406
sg31
g406
sg32
g406
sg34
g406
sg36
g406
sg38
g406
sg40
g406
sg42
S'Bye'
p1360
sg44
S'Chad Henne'
p1361
sg46
g406
sg48
g406
sg50
S'2013'
p1362
ssg404
(dp1363
g5
S'45'
p1364
sg7
g404
sg9
S'1.0'
p1365
sg11
S'64.4'
p1366
sg13
g220
sg15
S'228'
p1367
sg17
S'5.1'
p1368
sg19
S'--'
p1369
sg21
S'SF'
p1370
sg23
g220
sg25
S'29'
p1371
sg27
g24
sg29
g220
sg31
g220
sg32
S'--'
p1372
sg34
g24
sg36
g220
sg38
g24
sg40
g24
sg42
S'10/27'
p1373
sg44
S'Chad Henne'
p1374
sg46
S'84.3'
p1375
sg48
S'L10-42'
p1376
sg50
S'2013'
p1377
sssS'2012'
p1378
(dp1379
g3
(dp1380
g5
S'33'
p1381
sg7
S'11'
p1382
sg9
S'3.5'
p1383
sg11
S'48.5'
p1384
sg13
g266
sg15
S'354'
p1385
sg17
S'10.7'
p1386
sg19
S'--'
p1387
sg21
S'@HOU'
p1388
sg23
g220
sg25
S'16'
p1389
sg27
g358
sg29
g335
sg31
g24
sg32
S'--'
p1390
sg34
g24
sg36
g312
sg38
g220
sg40
g24
sg42
S'11/18'
p1391
sg44
S'Chad Henne'
p1392
sg46
S'126.8'
p1393
sg48
S'L37-43'
p1394
sg50
S'2012'
p1395
ssg52
(dp1396
g5
S'16'
p1397
sg7
S'10'
p1398
sg9
S'--'
p1399
sg11
S'62.5'
p1400
sg13
S'--'
p1401
sg15
S'121'
p1402
sg17
S'7.6'
p1403
sg19
S'--'
p1404
sg21
S'IND'
p1405
sg23
g220
sg25
S'10'
p1406
sg27
g358
sg29
S'--'
p1407
sg31
g24
sg32
S'--'
p1408
sg34
S'--'
p1409
sg36
g220
sg38
g220
sg40
g220
sg42
S'11/08'
p1410
sg44
S'Chad Henne'
p1411
sg46
S'80.5'
p1412
sg48
S'L10-27'
p1413
sg50
S'2012'
p1414
ssg76
(dp1415
g5
S'42'
p1416
sg7
S'13'
p1417
sg9
S'0.3'
p1418
sg11
S'45.2'
p1419
sg13
g243
sg15
S'202'
p1420
sg17
S'4.8'
p1421
sg19
g220
sg21
S'@BUF'
p1422
sg23
g220
sg25
S'19'
p1423
sg27
S'16'
p1424
sg29
g220
sg31
g220
sg32
g220
sg34
g220
sg36
g220
sg38
g243
sg40
g220
sg42
S'12/02'
p1425
sg44
S'Chad Henne'
p1426
sg46
S'57.8'
p1427
sg48
S'L18-34'
p1428
sg50
S'2012'
p1429
ssg100
(dp1430
g5
S'26'
p1431
sg7
S'12'
p1432
sg9
S'0.0'
p1433
sg11
S'65.4'
p1434
sg13
g266
sg15
S'261'
p1435
sg17
S'10.0'
p1436
sg19
S'--'
p1437
sg21
S'TEN'
p1438
sg23
g220
sg25
S'17'
p1439
sg27
S'40'
p1440
sg29
g24
sg31
g220
sg32
S'--'
p1441
sg34
g24
sg36
g266
sg38
g335
sg40
g220
sg42
S'11/25'
p1442
sg44
S'Chad Henne'
p1443
sg46
S'108.0'
p1444
sg48
S'W24-19'
p1445
sg50
S'2012'
p1446
ssg124
(dp1447
g5
S'34'
p1448
sg7
S'15'
p1449
sg9
S'5.3'
p1450
sg11
S'52.9'
p1451
sg13
g243
sg15
S'221'
p1452
sg17
S'6.5'
p1453
sg19
g266
sg21
S'@MIA'
p1454
sg23
g220
sg25
S'18'
p1455
sg27
g404
sg29
S'16'
p1456
sg31
g220
sg32
g24
sg34
g24
sg36
g24
sg38
g266
sg40
g24
sg42
S'12/16'
p1457
sg44
S'Chad Henne'
p1458
sg46
S'73.3'
p1459
sg48
S'L3-24'
p1460
sg50
S'2012'
p1461
ssg148
(dp1462
g5
S'43'
p1463
sg7
S'14'
p1464
sg9
S'1.0'
p1465
sg11
S'48.8'
p1466
sg13
g220
sg15
S'185'
p1467
sg17
S'4.3'
p1468
sg19
S'--'
p1469
sg21
S'NYJ'
p1470
sg23
g220
sg25
S'21'
p1471
sg27
S'17'
p1472
sg29
g220
sg31
g220
sg32
S'--'
p1473
sg34
g24
sg36
g24
sg38
g243
sg40
g266
sg42
S'12/09'
p1474
sg44
S'Chad Henne'
p1475
sg46
S'41.3'
p1476
sg48
S'L10-17'
p1477
sg50
S'2012'
p1478
ssg172
(dp1479
g5
S'41'
p1480
sg7
S'17'
p1481
sg9
S'6.5'
p1482
sg11
S'61.0'
p1483
sg13
g266
sg15
S'298'
p1484
sg17
S'7.3'
p1485
sg19
S'--'
p1486
sg21
S'@TEN'
p1487
sg23
g220
sg25
S'25'
p1488
sg27
S'45'
p1489
sg29
S'13'
p1490
sg31
g220
sg32
S'--'
p1491
sg34
g24
sg36
g266
sg38
g335
sg40
g243
sg42
S'12/30'
p1492
sg44
S'Chad Henne'
p1493
sg46
S'69.0'
p1494
sg48
S'L20-38'
p1495
sg50
S'2012'
p1496
ssg196
(dp1497
g5
S'51'
p1498
sg7
S'16'
p1499
sg9
S'11.0'
p1500
sg11
S'56.9'
p1501
sg13
g266
sg15
S'348'
p1502
sg17
S'6.8'
p1503
sg19
S'--'
p1504
sg21
S'NE'
p1505
sg23
g220
sg25
S'29'
p1506
sg27
g289
sg29
S'22'
p1507
sg31
g220
sg32
S'--'
p1508
sg34
g24
sg36
g220
sg38
g220
sg40
g243
sg42
S'12/23'
p1509
sg44
S'Chad Henne'
p1510
sg46
S'59.9'
p1511
sg48
S'L16-23'
p1512
sg50
S'2012'
p1513
ssg220
(dp1514
g5
S'--'
p1515
sg7
g220
sg9
S'--'
p1516
sg11
S'--'
p1517
sg13
S'--'
p1518
sg15
S'--'
p1519
sg17
S'--'
p1520
sg19
S'--'
p1521
sg21
S'@MIN'
p1522
sg23
g24
sg25
S'--'
p1523
sg27
S'--'
p1524
sg29
S'--'
p1525
sg31
g24
sg32
S'--'
p1526
sg34
S'--'
p1527
sg36
S'--'
p1528
sg38
S'--'
p1529
sg40
S'--'
p1530
sg42
S'09/09'
p1531
sg44
S'Chad Henne'
p1532
sg46
S'0.0'
p1533
sg48
S'L23-26'
p1534
sg50
S'2012'
p1535
ssg243
(dp1536
g5
S'--'
p1537
sg7
g243
sg9
S'--'
p1538
sg11
S'--'
p1539
sg13
S'--'
p1540
sg15
S'--'
p1541
sg17
S'--'
p1542
sg19
S'--'
p1543
sg21
S'@IND'
p1544
sg23
g24
sg25
S'--'
p1545
sg27
S'--'
p1546
sg29
S'--'
p1547
sg31
g24
sg32
S'--'
p1548
sg34
S'--'
p1549
sg36
S'--'
p1550
sg38
S'--'
p1551
sg40
S'--'
p1552
sg42
S'09/23'
p1553
sg44
S'Chad Henne'
p1554
sg46
S'0.0'
p1555
sg48
S'W22-17'
p1556
sg50
S'2012'
p1557
ssg266
(dp1558
g5
g266
sg7
g266
sg9
S'0.0'
p1559
sg11
S'100.0'
p1560
sg13
g220
sg15
S'23'
p1561
sg17
S'11.5'
p1562
sg19
g220
sg21
S'HOU'
p1563
sg23
g220
sg25
g266
sg27
g24
sg29
g24
sg31
g24
sg32
g220
sg34
g24
sg36
g24
sg38
g24
sg40
g24
sg42
S'09/16'
p1564
sg44
S'Chad Henne'
p1565
sg46
S'114.6'
p1566
sg48
S'L7-27'
p1567
sg50
S'2012'
p1568
ssg289
(dp1569
g5
S'--'
p1570
sg7
g289
sg9
S'--'
p1571
sg11
S'--'
p1572
sg13
S'--'
p1573
sg15
S'--'
p1574
sg17
S'--'
p1575
sg19
S'--'
p1576
sg21
S'CHI'
p1577
sg23
g24
sg25
S'--'
p1578
sg27
S'--'
p1579
sg29
S'--'
p1580
sg31
g24
sg32
S'--'
p1581
sg34
S'--'
p1582
sg36
S'--'
p1583
sg38
S'--'
p1584
sg40
S'--'
p1585
sg42
S'10/07'
p1586
sg44
S'Chad Henne'
p1587
sg46
S'0.0'
p1588
sg48
S'L3-41'
p1589
sg50
S'2012'
p1590
ssg312
(dp1591
g5
S'--'
p1592
sg7
g312
sg9
S'--'
p1593
sg11
S'--'
p1594
sg13
S'--'
p1595
sg15
S'--'
p1596
sg17
S'--'
p1597
sg19
S'--'
p1598
sg21
S'CIN'
p1599
sg23
g24
sg25
S'--'
p1600
sg27
S'--'
p1601
sg29
S'--'
p1602
sg31
g24
sg32
S'--'
p1603
sg34
S'--'
p1604
sg36
S'--'
p1605
sg38
S'--'
p1606
sg40
S'--'
p1607
sg42
S'09/30'
p1608
sg44
S'Chad Henne'
p1609
sg46
S'0.0'
p1610
sg48
S'L10-27'
p1611
sg50
S'2012'
p1612
ssg335
(dp1613
g5
S'20'
p1614
sg7
g335
sg9
S'1.3'
p1615
sg11
S'45.0'
p1616
sg13
g243
sg15
S'71'
p1617
sg17
S'3.6'
p1618
sg19
S'--'
p1619
sg21
S'@OAK'
p1620
sg23
g220
sg25
g381
sg27
S'26'
p1621
sg29
g312
sg31
g24
sg32
S'--'
p1622
sg34
g24
sg36
g24
sg38
g243
sg40
g24
sg42
S'10/21'
p1623
sg44
S'Chad Henne'
p1624
sg46
S'54.4'
p1625
sg48
S'L23-26'
p1626
sg50
S'2012'
p1627
ssg358
(dp1628
g5
g406
sg7
g358
sg9
g406
sg11
g406
sg13
g406
sg15
g406
sg17
g406
sg19
g406
sg21
g406
sg23
g406
sg25
g406
sg27
g406
sg29
g406
sg31
g406
sg32
g406
sg34
g406
sg36
g406
sg38
g406
sg40
g406
sg42
S'Bye'
p1629
sg44
S'Chad Henne'
p1630
sg46
g406
sg48
g406
sg50
S'2012'
p1631
ssg381
(dp1632
g5
S'--'
p1633
sg7
g381
sg9
S'--'
p1634
sg11
S'--'
p1635
sg13
S'--'
p1636
sg15
S'--'
p1637
sg17
S'--'
p1638
sg19
S'--'
p1639
sg21
S'DET'
p1640
sg23
g24
sg25
S'--'
p1641
sg27
S'--'
p1642
sg29
S'--'
p1643
sg31
g24
sg32
S'--'
p1644
sg34
S'--'
p1645
sg36
S'--'
p1646
sg38
S'--'
p1647
sg40
S'--'
p1648
sg42
S'11/04'
p1649
sg44
S'Chad Henne'
p1650
sg46
S'0.0'
p1651
sg48
S'L14-31'
p1652
sg50
S'2012'
p1653
ssg404
(dp1654
g5
S'--'
p1655
sg7
g404
sg9
S'--'
p1656
sg11
S'--'
p1657
sg13
S'--'
p1658
sg15
S'--'
p1659
sg17
S'--'
p1660
sg19
S'--'
p1661
sg21
S'@GB'
p1662
sg23
g24
sg25
S'--'
p1663
sg27
S'--'
p1664
sg29
S'--'
p1665
sg31
g24
sg32
S'--'
p1666
sg34
S'--'
p1667
sg36
S'--'
p1668
sg38
S'--'
p1669
sg40
S'--'
p1670
sg42
S'10/28'
p1671
sg44
S'Chad Henne'
p1672
sg46
S'0.0'
p1673
sg48
S'L15-24'
p1674
sg50
S'2012'
p1675
sss.