(dp0
S'2015'
p1
(dp2
S'1'
p3
(dp4
S'PassAtt'
p5
S'26'
p6
sS'WK'
p7
g3
sS'RushAvg'
p8
S'5.9'
p9
sS'Pct'
p10
S'65.4'
p11
sS'RushAtt'
p12
S'7'
p13
sS'PassYds'
p14
S'165'
p15
sS'PassAvg'
p16
S'6.3'
p17
sS'FUM'
p18
S'--'
p19
sS'Opp'
p20
S'MIN'
p21
sS'G'
p22
g3
sS'Comp'
p23
S'17'
p24
sS'SckY'
p25
S'0'
p26
sS'RushYds'
p27
S'41'
p28
sS'GS'
p29
g3
sS'Lost'
p30
S'--'
p31
sS'RushTD'
p32
g26
sS'PassTD'
p33
g26
sS'Sck'
p34
g3
sS'Int'
p35
g26
sS'Game Date'
p36
S'09/14'
p37
sS'Player'
p38
S'Colin Kaepernick'
p39
sS'Rate'
p40
S'83.0'
p41
sS'Result'
p42
S'W20-3'
p43
sS'Year'
p44
S'2015'
p45
ssS'3'
p46
(dp47
g5
S'19'
p48
sg7
g46
sg8
S'6.6'
p49
sg10
S'47.4'
p50
sg12
g13
sg14
S'67'
p51
sg16
S'3.5'
p52
sg18
S'--'
p53
sg20
S'@ARI'
p54
sg22
g3
sg23
S'9'
p55
sg25
S'14'
p56
sg27
S'46'
p57
sg29
g3
sg30
S'--'
p58
sg32
g3
sg33
g26
sg34
S'2'
p59
sg35
S'4'
p60
sg36
S'09/27'
p61
sg38
S'Colin Kaepernick'
p62
sg40
S'16.7'
p63
sg42
S'L7-47'
p64
sg44
S'2015'
p65
ssg59
(dp66
g5
S'46'
p67
sg7
g59
sg8
S'5.7'
p68
sg10
S'71.7'
p69
sg12
g55
sg14
S'335'
p70
sg16
S'7.3'
p71
sg18
g59
sg20
S'@PIT'
p72
sg22
g3
sg23
S'33'
p73
sg25
S'37'
p74
sg27
S'51'
p75
sg29
g3
sg30
g3
sg32
g26
sg33
g59
sg34
S'5'
p76
sg35
g26
sg36
S'09/20'
p77
sg38
S'Colin Kaepernick'
p78
sg40
S'106.7'
p79
sg42
S'L18-43'
p80
sg44
S'2015'
p81
ssg76
(dp82
g5
S'35'
p83
sg7
g76
sg8
S'7.7'
p84
sg10
S'65.7'
p85
sg12
g46
sg14
S'262'
p86
sg16
S'7.5'
p87
sg18
g59
sg20
S'@NYG'
p88
sg22
g3
sg23
S'23'
p89
sg25
S'6'
p90
sg27
S'23'
p91
sg29
g3
sg30
g26
sg32
g26
sg33
g59
sg34
g59
sg35
g26
sg36
S'10/11'
p92
sg38
S'Colin Kaepernick'
p93
sg40
S'107.1'
p94
sg42
S'L27-30'
p95
sg44
S'2015'
p96
ssg60
(dp97
g5
S'25'
p98
sg7
g60
sg8
S'5.7'
p99
sg10
S'52.0'
p100
sg12
S'10'
p101
sg14
S'160'
p102
sg16
S'6.4'
p103
sg18
g3
sg20
S'GB'
p104
sg22
g3
sg23
S'13'
p105
sg25
S'41'
p106
sg27
S'57'
p107
sg29
g3
sg30
g26
sg32
g26
sg33
g26
sg34
g90
sg35
g3
sg36
S'10/04'
p108
sg38
S'Colin Kaepernick'
p109
sg40
S'55.4'
p110
sg42
S'L3-17'
p111
sg44
S'2015'
p112
ssg13
(dp113
g5
S'24'
p114
sg7
g13
sg8
S'--'
p115
sg10
S'54.2'
p116
sg12
S'--'
p117
sg14
S'124'
p118
sg16
S'5.2'
p119
sg18
S'--'
p120
sg20
S'SEA'
p121
sg22
g3
sg23
S'13'
p122
sg25
S'43'
p123
sg27
S'--'
p124
sg29
g3
sg30
S'--'
p125
sg32
S'--'
p126
sg33
g26
sg34
g90
sg35
g26
sg36
S'10/22'
p127
sg38
S'Colin Kaepernick'
p128
sg40
S'68.8'
p129
sg42
S'L3-20'
p130
sg44
S'2015'
p131
ssg90
(dp132
g5
S'27'
p133
sg7
g90
sg8
S'3.3'
p134
sg10
S'59.3'
p135
sg12
g46
sg14
S'340'
p136
sg16
S'12.6'
p137
sg18
S'--'
p138
sg20
S'BAL'
p139
sg22
g3
sg23
S'16'
p140
sg25
S'14'
p141
sg27
S'10'
p142
sg29
g3
sg30
S'--'
p143
sg32
g26
sg33
g59
sg34
g46
sg35
g26
sg36
S'10/18'
p144
sg38
S'Colin Kaepernick'
p145
sg40
S'128.2'
p146
sg42
S'W25-20'
p147
sg44
S'2015'
p148
ssg55
(dp149
g5
g3
sg7
g55
sg8
S'--'
p150
sg10
S'0.0'
p151
sg12
S'--'
p152
sg14
g26
sg16
S'0.0'
p153
sg18
S'--'
p154
sg20
S'ATL'
p155
sg22
g3
sg23
g26
sg25
g26
sg27
S'--'
p156
sg29
g26
sg30
S'--'
p157
sg32
S'--'
p158
sg33
g26
sg34
g26
sg35
g26
sg36
S'11/08'
p159
sg38
S'Colin Kaepernick'
p160
sg40
S'39.6'
p161
sg42
S'W17-16'
p162
sg44
S'2015'
p163
ssS'8'
p164
(dp165
g5
S'41'
p166
sg7
g164
sg8
S'4.7'
p167
sg10
S'48.8'
p168
sg12
g90
sg14
S'162'
p169
sg16
S'4.0'
p170
sg18
S'--'
p171
sg20
S'@STL'
p172
sg22
g3
sg23
S'20'
p173
sg25
S'11'
p174
sg27
S'28'
p175
sg29
g3
sg30
S'--'
p176
sg32
g26
sg33
g26
sg34
g46
sg35
g26
sg36
S'11/01'
p177
sg38
S'Colin Kaepernick'
p178
sg40
S'59.2'
p179
sg42
S'L6-27'
p180
sg44
S'2015'
p181
sssS'2014'
p182
(dp183
S'11'
p184
(dp185
g5
S'29'
p186
sg7
S'11'
p187
sg8
S'3.0'
p188
sg10
S'51.7'
p189
sg12
g164
sg14
S'193'
p190
sg16
S'6.7'
p191
sg18
g3
sg20
S'@NYG'
p192
sg22
g3
sg23
S'15'
p193
sg25
g164
sg27
S'24'
p194
sg29
g3
sg30
g26
sg32
g26
sg33
g3
sg34
g3
sg35
g26
sg36
S'11/16'
p195
sg38
S'Colin Kaepernick'
p196
sg40
S'84.4'
p197
sg42
S'W16-10'
p198
sg44
S'2014'
p199
ssS'10'
p200
(dp201
g5
S'32'
p202
sg7
S'10'
p203
sg8
S'6.0'
p204
sg10
S'43.8'
p205
sg12
g60
sg14
S'210'
p206
sg16
S'6.6'
p207
sg18
g3
sg20
S'@NO'
p208
sg22
g3
sg23
S'14'
p209
sg25
S'24'
p210
sg27
S'24'
p211
sg29
g3
sg30
g3
sg32
g26
sg33
g3
sg34
g60
sg35
g26
sg36
S'11/09'
p212
sg38
S'Colin Kaepernick'
p213
sg40
S'76.3'
p214
sg42
S'W27-24'
p215
sg44
S'2014'
p216
ssS'13'
p217
(dp218
g5
S'29'
p219
sg7
S'13'
p220
sg8
S'5.7'
p221
sg10
S'55.2'
p222
sg12
g46
sg14
S'121'
p223
sg16
S'4.2'
p224
sg18
S'--'
p225
sg20
S'SEA'
p226
sg22
g3
sg23
S'16'
p227
sg25
S'21'
p228
sg27
S'17'
p229
sg29
g3
sg30
S'--'
p230
sg32
g26
sg33
g26
sg34
g60
sg35
g59
sg36
S'11/27'
p231
sg38
S'Colin Kaepernick'
p232
sg40
S'36.7'
p233
sg42
S'L3-19'
p234
sg44
S'2014'
p235
ssS'12'
p236
(dp237
g5
S'29'
p238
sg7
S'12'
p239
sg8
S'1.6'
p240
sg10
S'69.0'
p241
sg12
g55
sg14
S'256'
p242
sg16
S'8.8'
p243
sg18
g3
sg20
S'WAS'
p244
sg22
g3
sg23
S'20'
p245
sg25
S'10'
p246
sg27
S'14'
p247
sg29
g3
sg30
g26
sg32
g26
sg33
g3
sg34
g59
sg35
g3
sg36
S'11/23'
p248
sg38
S'Colin Kaepernick'
p249
sg40
S'93.5'
p250
sg42
S'W17-13'
p251
sg44
S'2014'
p252
ssS'15'
p253
(dp254
g5
S'19'
p255
sg7
S'15'
p256
sg8
S'5.1'
p257
sg10
S'57.9'
p258
sg12
g55
sg14
S'141'
p259
sg16
S'7.4'
p260
sg18
S'--'
p261
sg20
S'@SEA'
p262
sg22
g3
sg23
S'11'
p263
sg25
S'36'
p264
sg27
S'46'
p265
sg29
g3
sg30
S'--'
p266
sg32
g26
sg33
g26
sg34
g90
sg35
g26
sg36
S'12/14'
p267
sg38
S'Colin Kaepernick'
p268
sg40
S'81.2'
p269
sg42
S'L7-17'
p270
sg44
S'2014'
p271
ssS'14'
p272
(dp273
g5
S'33'
p274
sg7
S'14'
p275
sg8
S'8.7'
p276
sg10
S'54.5'
p277
sg12
g46
sg14
S'174'
p278
sg16
S'5.3'
p279
sg18
S'--'
p280
sg20
S'@OAK'
p281
sg22
g3
sg23
S'18'
p282
sg25
S'23'
p283
sg27
S'26'
p284
sg29
g3
sg30
S'--'
p285
sg32
g26
sg33
g3
sg34
g76
sg35
g59
sg36
S'12/07'
p286
sg38
S'Colin Kaepernick'
p287
sg40
S'54.4'
p288
sg42
S'L13-24'
p289
sg44
S'2014'
p290
ssS'17'
p291
(dp292
g5
S'26'
p293
sg7
S'17'
p294
sg8
S'9.0'
p295
sg10
S'57.7'
p296
sg12
g13
sg14
S'204'
p297
sg16
S'7.8'
p298
sg18
S'--'
p299
sg20
S'ARI'
p300
sg22
g3
sg23
S'15'
p301
sg25
S'15'
p302
sg27
S'63'
p303
sg29
g3
sg30
S'--'
p304
sg32
g26
sg33
g59
sg34
g3
sg35
g26
sg36
S'12/28'
p305
sg38
S'Colin Kaepernick'
p306
sg40
S'108.5'
p307
sg42
S'W20-17'
p308
sg44
S'2014'
p309
ssS'16'
p310
(dp311
g5
S'24'
p312
sg7
S'16'
p313
sg8
S'21.6'
p314
sg10
S'62.5'
p315
sg12
g13
sg14
S'114'
p316
sg16
S'4.8'
p317
sg18
g3
sg20
S'SD'
p318
sg22
g3
sg23
S'15'
p319
sg25
S'22'
p320
sg27
S'151'
p321
sg29
g3
sg30
g3
sg32
g3
sg33
g3
sg34
g59
sg35
g26
sg36
S'12/20'
p322
sg38
S'Colin Kaepernick'
p323
sg40
S'87.8'
p324
sg42
S'L35-38'
p325
sg44
S'2014'
p326
ssg3
(dp327
g5
S'23'
p328
sg7
g3
sg8
S'2.2'
p329
sg10
S'69.6'
p330
sg12
g76
sg14
S'201'
p331
sg16
S'8.7'
p332
sg18
S'--'
p333
sg20
S'@DAL'
p334
sg22
g3
sg23
S'16'
p335
sg25
g55
sg27
S'11'
p336
sg29
g3
sg30
S'--'
p337
sg32
g26
sg33
g59
sg34
g3
sg35
g26
sg36
S'09/07'
p338
sg38
S'Colin Kaepernick'
p339
sg40
S'125.5'
p340
sg42
S'W28-17'
p341
sg44
S'2014'
p342
ssg46
(dp343
g5
S'37'
p344
sg7
g46
sg8
S'4.5'
p345
sg10
S'78.4'
p346
sg12
S'12'
p347
sg14
S'245'
p348
sg16
S'6.6'
p349
sg18
S'--'
p350
sg20
S'@ARI'
p351
sg22
g3
sg23
S'29'
p352
sg25
g55
sg27
S'54'
p353
sg29
g3
sg30
S'--'
p354
sg32
g26
sg33
g3
sg34
g3
sg35
g26
sg36
S'09/21'
p355
sg38
S'Colin Kaepernick'
p356
sg40
S'103.3'
p357
sg42
S'L14-23'
p358
sg44
S'2014'
p359
ssg59
(dp360
g5
S'34'
p361
sg7
g59
sg8
S'7.1'
p362
sg10
S'61.8'
p363
sg12
g55
sg14
S'248'
p364
sg16
S'7.3'
p365
sg18
g3
sg20
S'CHI'
p366
sg22
g3
sg23
S'21'
p367
sg25
S'16'
p368
sg27
S'64'
p369
sg29
g3
sg30
g3
sg32
g26
sg33
g3
sg34
g60
sg35
g46
sg36
S'09/14'
p370
sg38
S'Colin Kaepernick'
p371
sg40
S'57.0'
p372
sg42
S'L20-28'
p373
sg44
S'2014'
p374
ssg76
(dp375
g5
S'26'
p376
sg7
g76
sg8
S'1.8'
p377
sg10
S'53.8'
p378
sg12
S'10'
p379
sg14
S'201'
p380
sg16
S'7.7'
p381
sg18
S'--'
p382
sg20
S'KC'
p383
sg22
g3
sg23
S'14'
p384
sg25
S'15'
p385
sg27
S'18'
p386
sg29
g3
sg30
S'--'
p387
sg32
g26
sg33
g3
sg34
g46
sg35
g26
sg36
S'10/05'
p388
sg38
S'Colin Kaepernick'
p389
sg40
S'92.0'
p390
sg42
S'W22-17'
p391
sg44
S'2014'
p392
ssg60
(dp393
g5
S'30'
p394
sg7
g60
sg8
S'8.3'
p395
sg10
S'56.7'
p396
sg12
g13
sg14
S'218'
p397
sg16
S'7.3'
p398
sg18
S'--'
p399
sg20
S'PHI'
p400
sg22
g3
sg23
S'17'
p401
sg25
S'29'
p402
sg27
S'58'
p403
sg29
g3
sg30
S'--'
p404
sg32
g26
sg33
g59
sg34
g60
sg35
g3
sg36
S'09/28'
p405
sg38
S'Colin Kaepernick'
p406
sg40
S'87.9'
p407
sg42
S'W26-21'
p408
sg44
S'2014'
p409
ssg13
(dp410
g5
S'39'
p411
sg7
g13
sg8
S'6.0'
p412
sg10
S'61.5'
p413
sg12
g46
sg14
S'263'
p414
sg16
S'6.7'
p415
sg18
S'--'
p416
sg20
S'@DEN'
p417
sg22
g3
sg23
S'24'
p418
sg25
S'53'
p419
sg27
S'18'
p420
sg29
g3
sg30
S'--'
p421
sg32
g26
sg33
g3
sg34
g90
sg35
g3
sg36
S'10/19'
p422
sg38
S'Colin Kaepernick'
p423
sg40
S'79.3'
p424
sg42
S'L17-42'
p425
sg44
S'2014'
p426
ssg90
(dp427
g5
S'35'
p428
sg7
g90
sg8
S'12.3'
p429
sg10
S'62.9'
p430
sg12
g46
sg14
S'343'
p431
sg16
S'9.8'
p432
sg18
S'--'
p433
sg20
S'@STL'
p434
sg22
g3
sg23
S'22'
p435
sg25
g26
sg27
S'37'
p436
sg29
g3
sg30
S'--'
p437
sg32
g26
sg33
g46
sg34
g26
sg35
g26
sg36
S'10/13'
p438
sg38
S'Colin Kaepernick'
p439
sg40
S'123.9'
p440
sg42
S'W31-17'
p441
sg44
S'2014'
p442
ssg55
(dp443
g5
S'33'
p444
sg7
g55
sg8
S'2.8'
p445
sg10
S'66.7'
p446
sg12
g76
sg14
S'237'
p447
sg16
S'7.2'
p448
sg18
g46
sg20
S'STL'
p449
sg22
g3
sg23
S'22'
p450
sg25
S'54'
p451
sg27
S'14'
p452
sg29
g3
sg30
g59
sg32
g26
sg33
g3
sg34
g164
sg35
g26
sg36
S'11/02'
p453
sg38
S'Colin Kaepernick'
p454
sg40
S'97.7'
p455
sg42
S'L10-13'
p456
sg44
S'2014'
p457
ssg164
(dp458
g5
S''
p459
sg7
g164
sg8
g459
sg10
g459
sg12
g459
sg14
g459
sg16
g459
sg18
g459
sg20
g459
sg22
g459
sg23
g459
sg25
g459
sg27
g459
sg29
g459
sg30
g459
sg32
g459
sg33
g459
sg34
g459
sg35
g459
sg36
S'Bye'
p460
sg38
S'Colin Kaepernick'
p461
sg40
g459
sg42
g459
sg44
S'2014'
p462
sssS'2011'
p463
(dp464
g184
(dp465
g5
S'--'
p466
sg7
S'11'
p467
sg8
S'--'
p468
sg10
S'--'
p469
sg12
S'--'
p470
sg14
S'--'
p471
sg16
S'--'
p472
sg18
S'--'
p473
sg20
S'ARI'
p474
sg22
g26
sg23
S'--'
p475
sg25
S'--'
p476
sg27
S'--'
p477
sg29
g26
sg30
S'--'
p478
sg32
S'--'
p479
sg33
S'--'
p480
sg34
S'--'
p481
sg35
S'--'
p482
sg36
S'11/20'
p483
sg38
S'Colin Kaepernick'
p484
sg40
S'0.0'
p485
sg42
S'W23-7'
p486
sg44
S'2011'
p487
ssg200
(dp488
g5
S'--'
p489
sg7
S'10'
p490
sg8
S'--'
p491
sg10
S'--'
p492
sg12
S'--'
p493
sg14
S'--'
p494
sg16
S'--'
p495
sg18
S'--'
p496
sg20
S'NYG'
p497
sg22
g26
sg23
S'--'
p498
sg25
S'--'
p499
sg27
S'--'
p500
sg29
g26
sg30
S'--'
p501
sg32
S'--'
p502
sg33
S'--'
p503
sg34
S'--'
p504
sg35
S'--'
p505
sg36
S'11/13'
p506
sg38
S'Colin Kaepernick'
p507
sg40
S'0.0'
p508
sg42
S'W27-20'
p509
sg44
S'2011'
p510
ssg217
(dp511
g5
g59
sg7
S'13'
p512
sg8
S'--'
p513
sg10
S'0.0'
p514
sg12
S'--'
p515
sg14
g26
sg16
S'0.0'
p516
sg18
S'--'
p517
sg20
S'STL'
p518
sg22
g3
sg23
g26
sg25
g26
sg27
S'--'
p519
sg29
g26
sg30
S'--'
p520
sg32
S'--'
p521
sg33
g26
sg34
g26
sg35
g26
sg36
S'12/04'
p522
sg38
S'Colin Kaepernick'
p523
sg40
S'39.6'
p524
sg42
S'W26-0'
p525
sg44
S'2011'
p526
ssg236
(dp527
g5
S'--'
p528
sg7
S'12'
p529
sg8
S'--'
p530
sg10
S'--'
p531
sg12
S'--'
p532
sg14
S'--'
p533
sg16
S'--'
p534
sg18
S'--'
p535
sg20
S'@BAL'
p536
sg22
g26
sg23
S'--'
p537
sg25
S'--'
p538
sg27
S'--'
p539
sg29
g26
sg30
S'--'
p540
sg32
S'--'
p541
sg33
S'--'
p542
sg34
S'--'
p543
sg35
S'--'
p544
sg36
S'11/24'
p545
sg38
S'Colin Kaepernick'
p546
sg40
S'0.0'
p547
sg42
S'L6-16'
p548
sg44
S'2011'
p549
ssg253
(dp550
g5
S'--'
p551
sg7
S'15'
p552
sg8
S'--'
p553
sg10
S'--'
p554
sg12
S'--'
p555
sg14
S'--'
p556
sg16
S'--'
p557
sg18
S'--'
p558
sg20
S'PIT'
p559
sg22
g26
sg23
S'--'
p560
sg25
S'--'
p561
sg27
S'--'
p562
sg29
g26
sg30
S'--'
p563
sg32
S'--'
p564
sg33
S'--'
p565
sg34
S'--'
p566
sg35
S'--'
p567
sg36
S'12/19'
p568
sg38
S'Colin Kaepernick'
p569
sg40
S'0.0'
p570
sg42
S'W20-3'
p571
sg44
S'2011'
p572
ssg272
(dp573
g5
S'--'
p574
sg7
S'14'
p575
sg8
S'--'
p576
sg10
S'--'
p577
sg12
S'--'
p578
sg14
S'--'
p579
sg16
S'--'
p580
sg18
S'--'
p581
sg20
S'@ARI'
p582
sg22
g26
sg23
S'--'
p583
sg25
S'--'
p584
sg27
S'--'
p585
sg29
g26
sg30
S'--'
p586
sg32
S'--'
p587
sg33
S'--'
p588
sg34
S'--'
p589
sg35
S'--'
p590
sg36
S'12/11'
p591
sg38
S'Colin Kaepernick'
p592
sg40
S'0.0'
p593
sg42
S'L19-21'
p594
sg44
S'2011'
p595
ssg291
(dp596
g5
S'--'
p597
sg7
S'17'
p598
sg8
S'--'
p599
sg10
S'--'
p600
sg12
S'--'
p601
sg14
S'--'
p602
sg16
S'--'
p603
sg18
S'--'
p604
sg20
S'@STL'
p605
sg22
g26
sg23
S'--'
p606
sg25
S'--'
p607
sg27
S'--'
p608
sg29
g26
sg30
S'--'
p609
sg32
S'--'
p610
sg33
S'--'
p611
sg34
S'--'
p612
sg35
S'--'
p613
sg36
S'01/01'
p614
sg38
S'Colin Kaepernick'
p615
sg40
S'0.0'
p616
sg42
S'W34-27'
p617
sg44
S'2011'
p618
ssg310
(dp619
g5
S'--'
p620
sg7
S'16'
p621
sg8
S'--'
p622
sg10
S'--'
p623
sg12
S'--'
p624
sg14
S'--'
p625
sg16
S'--'
p626
sg18
S'--'
p627
sg20
S'@SEA'
p628
sg22
g26
sg23
S'--'
p629
sg25
S'--'
p630
sg27
S'--'
p631
sg29
g26
sg30
S'--'
p632
sg32
S'--'
p633
sg33
S'--'
p634
sg34
S'--'
p635
sg35
S'--'
p636
sg36
S'12/24'
p637
sg38
S'Colin Kaepernick'
p638
sg40
S'0.0'
p639
sg42
S'W19-17'
p640
sg44
S'2011'
p641
ssg3
(dp642
g5
S'--'
p643
sg7
g3
sg8
S'--'
p644
sg10
S'--'
p645
sg12
S'--'
p646
sg14
S'--'
p647
sg16
S'--'
p648
sg18
S'--'
p649
sg20
S'SEA'
p650
sg22
g26
sg23
S'--'
p651
sg25
S'--'
p652
sg27
S'--'
p653
sg29
g26
sg30
S'--'
p654
sg32
S'--'
p655
sg33
S'--'
p656
sg34
S'--'
p657
sg35
S'--'
p658
sg36
S'09/11'
p659
sg38
S'Colin Kaepernick'
p660
sg40
S'0.0'
p661
sg42
S'W33-17'
p662
sg44
S'2011'
p663
ssg46
(dp664
g5
S'--'
p665
sg7
g46
sg8
S'--'
p666
sg10
S'--'
p667
sg12
S'--'
p668
sg14
S'--'
p669
sg16
S'--'
p670
sg18
S'--'
p671
sg20
S'@CIN'
p672
sg22
g26
sg23
S'--'
p673
sg25
S'--'
p674
sg27
S'--'
p675
sg29
g26
sg30
S'--'
p676
sg32
S'--'
p677
sg33
S'--'
p678
sg34
S'--'
p679
sg35
S'--'
p680
sg36
S'09/25'
p681
sg38
S'Colin Kaepernick'
p682
sg40
S'0.0'
p683
sg42
S'W13-8'
p684
sg44
S'2011'
p685
ssg59
(dp686
g5
S'--'
p687
sg7
g59
sg8
S'--'
p688
sg10
S'--'
p689
sg12
S'--'
p690
sg14
S'--'
p691
sg16
S'--'
p692
sg18
S'--'
p693
sg20
S'DAL'
p694
sg22
g26
sg23
S'--'
p695
sg25
S'--'
p696
sg27
S'--'
p697
sg29
g26
sg30
S'--'
p698
sg32
S'--'
p699
sg33
S'--'
p700
sg34
S'--'
p701
sg35
S'--'
p702
sg36
S'09/18'
p703
sg38
S'Colin Kaepernick'
p704
sg40
S'0.0'
p705
sg42
S'L24-27'
p706
sg44
S'2011'
p707
ssg76
(dp708
g5
g46
sg7
g76
sg8
S'-1.0'
p709
sg10
S'100.0'
p710
sg12
g59
sg14
S'35'
p711
sg16
S'11.7'
p712
sg18
S'--'
p713
sg20
S'TB'
p714
sg22
g3
sg23
g46
sg25
g26
sg27
S'-2'
p715
sg29
g26
sg30
S'--'
p716
sg32
g26
sg33
g26
sg34
g26
sg35
g26
sg36
S'10/09'
p717
sg38
S'Colin Kaepernick'
p718
sg40
S'115.3'
p719
sg42
S'W48-3'
p720
sg44
S'2011'
p721
ssg60
(dp722
g5
S'--'
p723
sg7
g60
sg8
S'--'
p724
sg10
S'--'
p725
sg12
S'--'
p726
sg14
S'--'
p727
sg16
S'--'
p728
sg18
S'--'
p729
sg20
S'@PHI'
p730
sg22
g3
sg23
S'--'
p731
sg25
S'--'
p732
sg27
S'--'
p733
sg29
g26
sg30
S'--'
p734
sg32
S'--'
p735
sg33
S'--'
p736
sg34
S'--'
p737
sg35
S'--'
p738
sg36
S'10/02'
p739
sg38
S'Colin Kaepernick'
p740
sg40
S'0.0'
p741
sg42
S'W24-23'
p742
sg44
S'2011'
p743
ssg13
(dp744
g5
g459
sg7
g13
sg8
g459
sg10
g459
sg12
g459
sg14
g459
sg16
g459
sg18
g459
sg20
g459
sg22
g459
sg23
g459
sg25
g459
sg27
g459
sg29
g459
sg30
g459
sg32
g459
sg33
g459
sg34
g459
sg35
g459
sg36
S'Bye'
p745
sg38
S'Colin Kaepernick'
p746
sg40
g459
sg42
g459
sg44
S'2011'
p747
ssg90
(dp748
g5
S'--'
p749
sg7
g90
sg8
S'--'
p750
sg10
S'--'
p751
sg12
S'--'
p752
sg14
S'--'
p753
sg16
S'--'
p754
sg18
S'--'
p755
sg20
S'@DET'
p756
sg22
g26
sg23
S'--'
p757
sg25
S'--'
p758
sg27
S'--'
p759
sg29
g26
sg30
S'--'
p760
sg32
S'--'
p761
sg33
S'--'
p762
sg34
S'--'
p763
sg35
S'--'
p764
sg36
S'10/16'
p765
sg38
S'Colin Kaepernick'
p766
sg40
S'0.0'
p767
sg42
S'W25-19'
p768
sg44
S'2011'
p769
ssg55
(dp770
g5
S'--'
p771
sg7
g55
sg8
S'--'
p772
sg10
S'--'
p773
sg12
S'--'
p774
sg14
S'--'
p775
sg16
S'--'
p776
sg18
S'--'
p777
sg20
S'@WAS'
p778
sg22
g26
sg23
S'--'
p779
sg25
S'--'
p780
sg27
S'--'
p781
sg29
g26
sg30
S'--'
p782
sg32
S'--'
p783
sg33
S'--'
p784
sg34
S'--'
p785
sg35
S'--'
p786
sg36
S'11/06'
p787
sg38
S'Colin Kaepernick'
p788
sg40
S'0.0'
p789
sg42
S'W19-11'
p790
sg44
S'2011'
p791
ssg164
(dp792
g5
S'--'
p793
sg7
g164
sg8
S'--'
p794
sg10
S'--'
p795
sg12
S'--'
p796
sg14
S'--'
p797
sg16
S'--'
p798
sg18
S'--'
p799
sg20
S'CLE'
p800
sg22
g26
sg23
S'--'
p801
sg25
S'--'
p802
sg27
S'--'
p803
sg29
g26
sg30
S'--'
p804
sg32
S'--'
p805
sg33
S'--'
p806
sg34
S'--'
p807
sg35
S'--'
p808
sg36
S'10/30'
p809
sg38
S'Colin Kaepernick'
p810
sg40
S'0.0'
p811
sg42
S'W20-10'
p812
sg44
S'2011'
p813
sssS'2013'
p814
(dp815
g184
(dp816
g5
S'31'
p817
sg7
S'11'
p818
sg8
S'8.3'
p819
sg10
S'54.8'
p820
sg12
g46
sg14
S'127'
p821
sg16
S'4.1'
p822
sg18
S'--'
p823
sg20
S'@NO'
p824
sg22
g3
sg23
S'17'
p825
sg25
S'12'
p826
sg27
S'25'
p827
sg29
g3
sg30
S'--'
p828
sg32
g26
sg33
g59
sg34
g46
sg35
g3
sg36
S'11/17'
p829
sg38
S'Colin Kaepernick'
p830
sg40
S'72.9'
p831
sg42
S'L20-23'
p832
sg44
S'2013'
p833
ssg200
(dp834
g5
S'22'
p835
sg7
S'10'
p836
sg8
S'4.0'
p837
sg10
S'50.0'
p838
sg12
g60
sg14
S'91'
p839
sg16
S'4.1'
p840
sg18
S'--'
p841
sg20
S'CAR'
p842
sg22
g3
sg23
S'11'
p843
sg25
S'45'
p844
sg27
S'16'
p845
sg29
g3
sg30
S'--'
p846
sg32
g26
sg33
g26
sg34
g90
sg35
g3
sg36
S'11/10'
p847
sg38
S'Colin Kaepernick'
p848
sg40
S'42.0'
p849
sg42
S'L9-10'
p850
sg44
S'2013'
p851
ssg217
(dp852
g5
S'28'
p853
sg7
S'13'
p854
sg8
S'5.3'
p855
sg10
S'67.9'
p856
sg12
g60
sg14
S'275'
p857
sg16
S'9.8'
p858
sg18
S'--'
p859
sg20
S'STL'
p860
sg22
g3
sg23
S'19'
p861
sg25
S'20'
p862
sg27
S'21'
p863
sg29
g3
sg30
S'--'
p864
sg32
g26
sg33
g3
sg34
g60
sg35
g26
sg36
S'12/01'
p865
sg38
S'Colin Kaepernick'
p866
sg40
S'111.5'
p867
sg42
S'W23-13'
p868
sg44
S'2013'
p869
ssg236
(dp870
g5
S'24'
p871
sg7
S'12'
p872
sg8
S'2.2'
p873
sg10
S'62.5'
p874
sg12
g55
sg14
S'235'
p875
sg16
S'9.8'
p876
sg18
g3
sg20
S'@WAS'
p877
sg22
g3
sg23
S'15'
p878
sg25
g13
sg27
S'20'
p879
sg29
g3
sg30
g26
sg32
g26
sg33
g46
sg34
g59
sg35
g26
sg36
S'11/25'
p880
sg38
S'Colin Kaepernick'
p881
sg40
S'134.5'
p882
sg42
S'W27-6'
p883
sg44
S'2013'
p884
ssg253
(dp885
g5
S'29'
p886
sg7
S'15'
p887
sg8
S'10.5'
p888
sg10
S'65.5'
p889
sg12
g60
sg14
S'203'
p890
sg16
S'7.0'
p891
sg18
S'--'
p892
sg20
S'@TB'
p893
sg22
g3
sg23
S'19'
p894
sg25
S'14'
p895
sg27
S'42'
p896
sg29
g3
sg30
S'--'
p897
sg32
g26
sg33
g59
sg34
g59
sg35
g26
sg36
S'12/15'
p898
sg38
S'Colin Kaepernick'
p899
sg40
S'108.8'
p900
sg42
S'W33-14'
p901
sg44
S'2013'
p902
ssg272
(dp903
g5
S'29'
p904
sg7
S'14'
p905
sg8
S'3.4'
p906
sg10
S'51.7'
p907
sg12
g55
sg14
S'175'
p908
sg16
S'6.0'
p909
sg18
S'--'
p910
sg20
S'SEA'
p911
sg22
g3
sg23
S'15'
p912
sg25
S'20'
p913
sg27
S'31'
p914
sg29
g3
sg30
S'--'
p915
sg32
g26
sg33
g3
sg34
g59
sg35
g3
sg36
S'12/08'
p916
sg38
S'Colin Kaepernick'
p917
sg40
S'67.5'
p918
sg42
S'W19-17'
p919
sg44
S'2013'
p920
ssg291
(dp921
g5
S'34'
p922
sg7
S'17'
p923
sg8
S'6.0'
p924
sg10
S'61.8'
p925
sg12
g60
sg14
S'310'
p926
sg16
S'9.1'
p927
sg18
S'--'
p928
sg20
S'@ARI'
p929
sg22
g3
sg23
S'21'
p930
sg25
S'18'
p931
sg27
S'24'
p932
sg29
g3
sg30
S'--'
p933
sg32
g26
sg33
g59
sg34
g59
sg35
g26
sg36
S'12/29'
p934
sg38
S'Colin Kaepernick'
p935
sg40
S'111.2'
p936
sg42
S'W23-20'
p937
sg44
S'2013'
p938
ssg310
(dp939
g5
S'21'
p940
sg7
S'16'
p941
sg8
S'8.5'
p942
sg10
S'61.9'
p943
sg12
g90
sg14
S'197'
p944
sg16
S'9.4'
p945
sg18
S'--'
p946
sg20
S'ATL'
p947
sg22
g3
sg23
S'13'
p948
sg25
S'17'
p949
sg27
S'51'
p950
sg29
g3
sg30
S'--'
p951
sg32
g3
sg33
g3
sg34
g46
sg35
g26
sg36
S'12/23'
p952
sg38
S'Colin Kaepernick'
p953
sg40
S'108.6'
p954
sg42
S'W34-24'
p955
sg44
S'2013'
p956
ssg3
(dp957
g5
S'39'
p958
sg7
g3
sg8
S'3.1'
p959
sg10
S'69.2'
p960
sg12
g13
sg14
S'412'
p961
sg16
S'10.6'
p962
sg18
S'--'
p963
sg20
S'GB'
p964
sg22
g3
sg23
S'27'
p965
sg25
g164
sg27
S'22'
p966
sg29
g3
sg30
S'--'
p967
sg32
g26
sg33
g46
sg34
g59
sg35
g26
sg36
S'09/08'
p968
sg38
S'Colin Kaepernick'
p969
sg40
S'129.4'
p970
sg42
S'W34-28'
p971
sg44
S'2013'
p972
ssg46
(dp973
g5
S'27'
p974
sg7
g46
sg8
S'2.9'
p975
sg10
S'48.1'
p976
sg12
g13
sg14
S'150'
p977
sg16
S'5.6'
p978
sg18
g3
sg20
S'IND'
p979
sg22
g3
sg23
S'13'
p980
sg25
S'11'
p981
sg27
S'20'
p982
sg29
g3
sg30
g3
sg32
g26
sg33
g26
sg34
g46
sg35
g3
sg36
S'09/22'
p983
sg38
S'Colin Kaepernick'
p984
sg40
S'49.9'
p985
sg42
S'L7-27'
p986
sg44
S'2013'
p987
ssg59
(dp988
g5
S'28'
p989
sg7
g59
sg8
S'9.7'
p990
sg10
S'46.4'
p991
sg12
g55
sg14
S'127'
p992
sg16
S'4.5'
p993
sg18
g3
sg20
S'@SEA'
p994
sg22
g3
sg23
S'13'
p995
sg25
S'20'
p996
sg27
S'87'
p997
sg29
g3
sg30
g3
sg32
g26
sg33
g26
sg34
g46
sg35
g46
sg36
S'09/15'
p998
sg38
S'Colin Kaepernick'
p999
sg40
S'20.1'
p1000
sg42
S'L3-29'
p1001
sg44
S'2013'
p1002
ssg76
(dp1003
g5
S'15'
p1004
sg7
g76
sg8
S'14.0'
p1005
sg10
S'40.0'
p1006
sg12
g3
sg14
S'113'
p1007
sg16
S'7.5'
p1008
sg18
S'--'
p1009
sg20
S'HOU'
p1010
sg22
g3
sg23
g90
sg25
g90
sg27
S'14'
p1011
sg29
g3
sg30
S'--'
p1012
sg32
g26
sg33
g3
sg34
g3
sg35
g26
sg36
S'10/06'
p1013
sg38
S'Colin Kaepernick'
p1014
sg40
S'89.0'
p1015
sg42
S'W34-3'
p1016
sg44
S'2013'
p1017
ssg60
(dp1018
g5
S'23'
p1019
sg7
g60
sg8
S'3.7'
p1020
sg10
S'65.2'
p1021
sg12
g46
sg14
S'167'
p1022
sg16
S'7.3'
p1023
sg18
g3
sg20
S'@STL'
p1024
sg22
g3
sg23
S'15'
p1025
sg25
S'16'
p1026
sg27
S'11'
p1027
sg29
g3
sg30
g3
sg32
g26
sg33
g59
sg34
g59
sg35
g26
sg36
S'09/26'
p1028
sg38
S'Colin Kaepernick'
p1029
sg40
S'115.7'
p1030
sg42
S'W35-11'
p1031
sg44
S'2013'
p1032
ssg13
(dp1033
g5
S'21'
p1034
sg7
g13
sg8
S'6.2'
p1035
sg10
S'61.9'
p1036
sg12
S'11'
p1037
sg14
S'199'
p1038
sg16
S'9.5'
p1039
sg18
S'--'
p1040
sg20
S'@TEN'
p1041
sg22
g3
sg23
S'13'
p1042
sg25
g46
sg27
S'68'
p1043
sg29
g3
sg30
S'--'
p1044
sg32
g3
sg33
g26
sg34
g59
sg35
g26
sg36
S'10/20'
p1045
sg38
S'Colin Kaepernick'
p1046
sg40
S'93.2'
p1047
sg42
S'W31-17'
p1048
sg44
S'2013'
p1049
ssg90
(dp1050
g5
S'29'
p1051
sg7
g90
sg8
S'4.5'
p1052
sg10
S'55.2'
p1053
sg12
g60
sg14
S'252'
p1054
sg16
S'8.7'
p1055
sg18
g59
sg20
S'ARI'
p1056
sg22
g3
sg23
S'16'
p1057
sg25
S'14'
p1058
sg27
S'18'
p1059
sg29
g3
sg30
g3
sg32
g26
sg33
g59
sg34
g59
sg35
g3
sg36
S'10/13'
p1060
sg38
S'Colin Kaepernick'
p1061
sg40
S'92.9'
p1062
sg42
S'W32-20'
p1063
sg44
S'2013'
p1064
ssg55
(dp1065
g5
g459
sg7
g55
sg8
g459
sg10
g459
sg12
g459
sg14
g459
sg16
g459
sg18
g459
sg20
g459
sg22
g459
sg23
g459
sg25
g459
sg27
g459
sg29
g459
sg30
g459
sg32
g459
sg33
g459
sg34
g459
sg35
g459
sg36
S'Bye'
p1066
sg38
S'Colin Kaepernick'
p1067
sg40
g459
sg42
g459
sg44
S'2013'
p1068
ssg164
(dp1069
g5
S'16'
p1070
sg7
g164
sg8
S'7.7'
p1071
sg10
S'62.5'
p1072
sg12
g13
sg14
S'164'
p1073
sg16
S'10.3'
p1074
sg18
S'--'
p1075
sg20
S'@JAC'
p1076
sg22
g3
sg23
S'10'
p1077
sg25
g26
sg27
S'54'
p1078
sg29
g3
sg30
S'--'
p1079
sg32
g59
sg33
g3
sg34
g26
sg35
g26
sg36
S'10/27'
p1080
sg38
S'Colin Kaepernick'
p1081
sg40
S'117.7'
p1082
sg42
S'W42-10'
p1083
sg44
S'2013'
p1084
sssS'2012'
p1085
(dp1086
g184
(dp1087
g5
S'23'
p1088
sg7
S'11'
p1089
sg8
S'2.5'
p1090
sg10
S'69.6'
p1091
sg12
g60
sg14
S'243'
p1092
sg16
S'10.6'
p1093
sg18
S'--'
p1094
sg20
S'CHI'
p1095
sg22
g3
sg23
S'16'
p1096
sg25
g13
sg27
S'10'
p1097
sg29
g3
sg30
S'--'
p1098
sg32
g26
sg33
g59
sg34
g3
sg35
g26
sg36
S'11/19'
p1099
sg38
S'Colin Kaepernick'
p1100
sg40
S'133.1'
p1101
sg42
S'W32-7'
p1102
sg44
S'2012'
p1103
ssg200
(dp1104
g5
S'17'
p1105
sg7
S'10'
p1106
sg8
S'8.3'
p1107
sg10
S'64.7'
p1108
sg12
g164
sg14
S'117'
p1109
sg16
S'6.9'
p1110
sg18
g59
sg20
S'STL'
p1111
sg22
g3
sg23
S'11'
p1112
sg25
S'22'
p1113
sg27
S'66'
p1114
sg29
g26
sg30
g26
sg32
g3
sg33
g26
sg34
g46
sg35
g26
sg36
S'11/11'
p1115
sg38
S'Colin Kaepernick'
p1116
sg40
S'84.7'
p1117
sg42
S'T24-24'
p1118
sg44
S'2012'
p1119
ssg217
(dp1120
g5
S'32'
p1121
sg7
S'13'
p1122
sg8
S'9.3'
p1123
sg10
S'65.6'
p1124
sg12
g55
sg14
S'208'
p1125
sg16
S'6.5'
p1126
sg18
g3
sg20
S'@STL'
p1127
sg22
g3
sg23
S'21'
p1128
sg25
S'17'
p1129
sg27
S'84'
p1130
sg29
g3
sg30
g3
sg32
g26
sg33
g26
sg34
g46
sg35
g26
sg36
S'12/02'
p1131
sg38
S'Colin Kaepernick'
p1132
sg40
S'83.9'
p1133
sg42
S'L13-16'
p1134
sg44
S'2012'
p1135
ssg236
(dp1136
g5
S'25'
p1137
sg7
S'12'
p1138
sg8
S'4.5'
p1139
sg10
S'64.0'
p1140
sg12
g90
sg14
S'231'
p1141
sg16
S'9.2'
p1142
sg18
S'--'
p1143
sg20
S'@NO'
p1144
sg22
g3
sg23
S'16'
p1145
sg25
g26
sg27
S'27'
p1146
sg29
g3
sg30
S'--'
p1147
sg32
g3
sg33
g3
sg34
g26
sg35
g3
sg36
S'11/25'
p1148
sg38
S'Colin Kaepernick'
p1149
sg40
S'90.6'
p1150
sg42
S'W31-21'
p1151
sg44
S'2012'
p1152
ssg253
(dp1153
g5
S'25'
p1154
sg7
S'15'
p1155
sg8
S'4.0'
p1156
sg10
S'56.0'
p1157
sg12
g13
sg14
S'221'
p1158
sg16
S'8.8'
p1159
sg18
g60
sg20
S'@NE'
p1160
sg22
g3
sg23
S'14'
p1161
sg25
S'13'
p1162
sg27
S'28'
p1163
sg29
g3
sg30
g26
sg32
g26
sg33
g60
sg34
g3
sg35
g3
sg36
S'12/16'
p1164
sg38
S'Colin Kaepernick'
p1165
sg40
S'108.5'
p1166
sg42
S'W41-34'
p1167
sg44
S'2012'
p1168
ssg272
(dp1169
g5
S'23'
p1170
sg7
S'14'
p1171
sg8
S'8.8'
p1172
sg10
S'78.3'
p1173
sg12
g90
sg14
S'185'
p1174
sg16
S'8.0'
p1175
sg18
g3
sg20
S'MIA'
p1176
sg22
g3
sg23
S'18'
p1177
sg25
S'19'
p1178
sg27
S'53'
p1179
sg29
g3
sg30
g26
sg32
g3
sg33
g26
sg34
g60
sg35
g26
sg36
S'12/09'
p1180
sg38
S'Colin Kaepernick'
p1181
sg40
S'100.2'
p1182
sg42
S'W27-13'
p1183
sg44
S'2012'
p1184
ssg291
(dp1185
g5
S'28'
p1186
sg7
S'17'
p1187
sg8
S'1.7'
p1188
sg10
S'57.1'
p1189
sg12
g46
sg14
S'276'
p1190
sg16
S'9.9'
p1191
sg18
S'--'
p1192
sg20
S'ARI'
p1193
sg22
g3
sg23
S'16'
p1194
sg25
g60
sg27
g76
sg29
g3
sg30
S'--'
p1195
sg32
g26
sg33
g59
sg34
g3
sg35
g26
sg36
S'12/30'
p1196
sg38
S'Colin Kaepernick'
p1197
sg40
S'114.6'
p1198
sg42
S'W27-13'
p1199
sg44
S'2012'
p1200
ssg310
(dp1201
g5
S'36'
p1202
sg7
S'16'
p1203
sg8
S'4.4'
p1204
sg10
S'52.8'
p1205
sg12
g13
sg14
S'244'
p1206
sg16
S'6.8'
p1207
sg18
S'--'
p1208
sg20
S'@SEA'
p1209
sg22
g3
sg23
S'19'
p1210
sg25
S'13'
p1211
sg27
S'31'
p1212
sg29
g3
sg30
S'--'
p1213
sg32
g26
sg33
g3
sg34
g3
sg35
g3
sg36
S'12/23'
p1214
sg38
S'Colin Kaepernick'
p1215
sg40
S'72.0'
p1216
sg42
S'L13-42'
p1217
sg44
S'2012'
p1218
ssg3
(dp1219
g5
S'--'
p1220
sg7
g3
sg8
S'17.0'
p1221
sg10
S'--'
p1222
sg12
g3
sg14
S'--'
p1223
sg16
S'--'
p1224
sg18
S'--'
p1225
sg20
S'@GB'
p1226
sg22
g3
sg23
S'--'
p1227
sg25
S'--'
p1228
sg27
S'17'
p1229
sg29
g26
sg30
S'--'
p1230
sg32
g26
sg33
S'--'
p1231
sg34
S'--'
p1232
sg35
S'--'
p1233
sg36
S'09/09'
p1234
sg38
S'Colin Kaepernick'
p1235
sg40
S'0.0'
p1236
sg42
S'W30-22'
p1237
sg44
S'2012'
p1238
ssg46
(dp1239
g5
S'--'
p1240
sg7
g46
sg8
S'--'
p1241
sg10
S'--'
p1242
sg12
S'--'
p1243
sg14
S'--'
p1244
sg16
S'--'
p1245
sg18
S'--'
p1246
sg20
S'@MIN'
p1247
sg22
g26
sg23
S'--'
p1248
sg25
S'--'
p1249
sg27
S'--'
p1250
sg29
g26
sg30
S'--'
p1251
sg32
S'--'
p1252
sg33
S'--'
p1253
sg34
S'--'
p1254
sg35
S'--'
p1255
sg36
S'09/23'
p1256
sg38
S'Colin Kaepernick'
p1257
sg40
S'0.0'
p1258
sg42
S'L13-24'
p1259
sg44
S'2012'
p1260
ssg59
(dp1261
g5
S'--'
p1262
sg7
g59
sg8
S'--'
p1263
sg10
S'--'
p1264
sg12
S'--'
p1265
sg14
S'--'
p1266
sg16
S'--'
p1267
sg18
S'--'
p1268
sg20
S'DET'
p1269
sg22
g26
sg23
S'--'
p1270
sg25
S'--'
p1271
sg27
S'--'
p1272
sg29
g26
sg30
S'--'
p1273
sg32
S'--'
p1274
sg33
S'--'
p1275
sg34
S'--'
p1276
sg35
S'--'
p1277
sg36
S'09/16'
p1278
sg38
S'Colin Kaepernick'
p1279
sg40
S'0.0'
p1280
sg42
S'W27-19'
p1281
sg44
S'2012'
p1282
ssg76
(dp1283
g5
g3
sg7
g76
sg8
S'9.8'
p1284
sg10
S'100.0'
p1285
sg12
g60
sg14
g13
sg16
S'7.0'
p1286
sg18
g3
sg20
S'BUF'
p1287
sg22
g3
sg23
g3
sg25
g26
sg27
S'39'
p1288
sg29
g26
sg30
g3
sg32
g3
sg33
g26
sg34
g26
sg35
g26
sg36
S'10/07'
p1289
sg38
S'Colin Kaepernick'
p1290
sg40
S'95.8'
p1291
sg42
S'W45-3'
p1292
sg44
S'2012'
p1293
ssg60
(dp1294
g5
g3
sg7
g60
sg8
S'10.0'
p1295
sg10
S'0.0'
p1296
sg12
g76
sg14
g26
sg16
S'0.0'
p1297
sg18
S'--'
p1298
sg20
S'@NYJ'
p1299
sg22
g3
sg23
g26
sg25
g26
sg27
S'50'
p1300
sg29
g26
sg30
S'--'
p1301
sg32
g3
sg33
g26
sg34
g26
sg35
g26
sg36
S'09/30'
p1302
sg38
S'Colin Kaepernick'
p1303
sg40
S'39.6'
p1304
sg42
S'W34-0'
p1305
sg44
S'2012'
p1306
ssg13
(dp1307
g5
S'--'
p1308
sg7
g13
sg8
S'-1.0'
p1309
sg10
S'--'
p1310
sg12
g3
sg14
S'--'
p1311
sg16
S'--'
p1312
sg18
S'--'
p1313
sg20
S'SEA'
p1314
sg22
g3
sg23
S'--'
p1315
sg25
S'--'
p1316
sg27
S'-1'
p1317
sg29
g26
sg30
S'--'
p1318
sg32
g26
sg33
S'--'
p1319
sg34
S'--'
p1320
sg35
S'--'
p1321
sg36
S'10/18'
p1322
sg38
S'Colin Kaepernick'
p1323
sg40
S'0.0'
p1324
sg42
S'W13-6'
p1325
sg44
S'2012'
p1326
ssg90
(dp1327
g5
g13
sg7
g90
sg8
S'3.0'
p1328
sg10
S'57.1'
p1329
sg12
g59
sg14
S'82'
p1330
sg16
S'11.7'
p1331
sg18
S'--'
p1332
sg20
S'NYG'
p1333
sg22
g3
sg23
g60
sg25
S'17'
p1334
sg27
g90
sg29
g26
sg30
S'--'
p1335
sg32
g26
sg33
g26
sg34
g59
sg35
g26
sg36
S'10/14'
p1336
sg38
S'Colin Kaepernick'
p1337
sg40
S'98.5'
p1338
sg42
S'L3-26'
p1339
sg44
S'2012'
p1340
ssg55
(dp1341
g5
g459
sg7
g55
sg8
g459
sg10
g459
sg12
g459
sg14
g459
sg16
g459
sg18
g459
sg20
g459
sg22
g459
sg23
g459
sg25
g459
sg27
g459
sg29
g459
sg30
g459
sg32
g459
sg33
g459
sg34
g459
sg35
g459
sg36
S'Bye'
p1342
sg38
S'Colin Kaepernick'
p1343
sg40
g459
sg42
g459
sg44
S'2012'
p1344
ssg164
(dp1345
g5
S'--'
p1346
sg7
g164
sg8
S'--'
p1347
sg10
S'--'
p1348
sg12
S'--'
p1349
sg14
S'--'
p1350
sg16
S'--'
p1351
sg18
S'--'
p1352
sg20
S'@ARI'
p1353
sg22
g26
sg23
S'--'
p1354
sg25
S'--'
p1355
sg27
S'--'
p1356
sg29
g26
sg30
S'--'
p1357
sg32
S'--'
p1358
sg33
S'--'
p1359
sg34
S'--'
p1360
sg35
S'--'
p1361
sg36
S'10/29'
p1362
sg38
S'Colin Kaepernick'
p1363
sg40
S'0.0'
p1364
sg42
S'W24-3'
p1365
sg44
S'2012'
p1366
sss.