(dp0
S'2015'
p1
(dp2
S'11'
p3
(dp4
S'PassAtt'
p5
S'--'
p6
sS'WK'
p7
S'11'
p8
sS'RushAvg'
p9
S'--'
p10
sS'Pct'
p11
S'--'
p12
sS'RushAtt'
p13
S'--'
p14
sS'PassYds'
p15
S'--'
p16
sS'PassAvg'
p17
S'--'
p18
sS'FUM'
p19
S'--'
p20
sS'Opp'
p21
S'@CAR'
p22
sS'G'
p23
S'0'
p24
sS'Comp'
p25
S'--'
p26
sS'SckY'
p27
S'--'
p28
sS'RushYds'
p29
S'--'
p30
sS'GS'
p31
g24
sS'Lost'
p32
S'--'
p33
sS'RushTD'
p34
S'--'
p35
sS'PassTD'
p36
S'--'
p37
sS'Sck'
p38
S'--'
p39
sS'Int'
p40
S'--'
p41
sS'Game Date'
p42
S'11/22'
p43
sS'Player'
p44
S'Colt McCoy'
p45
sS'Rate'
p46
S'0.0'
p47
sS'Result'
p48
S'L16-44'
p49
sS'Year'
p50
S'2015'
p51
ssS'10'
p52
(dp53
g5
S'--'
p54
sg7
S'10'
p55
sg9
S'--'
p56
sg11
S'--'
p57
sg13
S'--'
p58
sg15
S'--'
p59
sg17
S'--'
p60
sg19
S'--'
p61
sg21
S'NO'
p62
sg23
S'1'
p63
sg25
S'--'
p64
sg27
S'--'
p65
sg29
S'--'
p66
sg31
g24
sg32
S'--'
p67
sg34
S'--'
p68
sg36
S'--'
p69
sg38
S'--'
p70
sg40
S'--'
p71
sg42
S'11/15'
p72
sg44
S'Colt McCoy'
p73
sg46
S'0.0'
p74
sg48
S'W47-14'
p75
sg50
S'2015'
p76
ssS'13'
p77
(dp78
g5
S'--'
p79
sg7
S'13'
p80
sg9
S'--'
p81
sg11
S'--'
p82
sg13
S'--'
p83
sg15
S'--'
p84
sg17
S'--'
p85
sg19
S'--'
p86
sg21
S'DAL'
p87
sg23
g24
sg25
S'--'
p88
sg27
S'--'
p89
sg29
S'--'
p90
sg31
g24
sg32
S'--'
p91
sg34
S'--'
p92
sg36
S'--'
p93
sg38
S'--'
p94
sg40
S'--'
p95
sg42
S'12/07'
p96
sg44
S'Colt McCoy'
p97
sg46
S'0.0'
p98
sg48
S'L16-19'
p99
sg50
S'2015'
p100
ssS'12'
p101
(dp102
g5
S'--'
p103
sg7
S'12'
p104
sg9
S'--'
p105
sg11
S'--'
p106
sg13
S'--'
p107
sg15
S'--'
p108
sg17
S'--'
p109
sg19
S'--'
p110
sg21
S'NYG'
p111
sg23
g24
sg25
S'--'
p112
sg27
S'--'
p113
sg29
S'--'
p114
sg31
g24
sg32
S'--'
p115
sg34
S'--'
p116
sg36
S'--'
p117
sg38
S'--'
p118
sg40
S'--'
p119
sg42
S'11/29'
p120
sg44
S'Colt McCoy'
p121
sg46
S'0.0'
p122
sg48
S'W20-14'
p123
sg50
S'2015'
p124
ssS'15'
p125
(dp126
g5
S'--'
p127
sg7
S'15'
p128
sg9
S'--'
p129
sg11
S'--'
p130
sg13
S'--'
p131
sg15
S'--'
p132
sg17
S'--'
p133
sg19
S'--'
p134
sg21
S'BUF'
p135
sg23
g24
sg25
S'--'
p136
sg27
S'--'
p137
sg29
S'--'
p138
sg31
g24
sg32
S'--'
p139
sg34
S'--'
p140
sg36
S'--'
p141
sg38
S'--'
p142
sg40
S'--'
p143
sg42
S'12/20'
p144
sg44
S'Colt McCoy'
p145
sg46
S'0.0'
p146
sg48
S'W35-25'
p147
sg50
S'2015'
p148
ssS'14'
p149
(dp150
g5
S'--'
p151
sg7
S'14'
p152
sg9
S'--'
p153
sg11
S'--'
p154
sg13
S'--'
p155
sg15
S'--'
p156
sg17
S'--'
p157
sg19
S'--'
p158
sg21
S'@CHI'
p159
sg23
g24
sg25
S'--'
p160
sg27
S'--'
p161
sg29
S'--'
p162
sg31
g24
sg32
S'--'
p163
sg34
S'--'
p164
sg36
S'--'
p165
sg38
S'--'
p166
sg40
S'--'
p167
sg42
S'12/13'
p168
sg44
S'Colt McCoy'
p169
sg46
S'0.0'
p170
sg48
S'W24-21'
p171
sg50
S'2015'
p172
ssS'17'
p173
(dp174
g5
S'11'
p175
sg7
S'17'
p176
sg9
S'-1.0'
p177
sg11
S'63.6'
p178
sg13
S'3'
p179
sg15
S'128'
p180
sg17
S'11.6'
p181
sg19
g63
sg21
S'@DAL'
p182
sg23
g63
sg25
S'7'
p183
sg27
S'13'
p184
sg29
S'-3'
p185
sg31
g24
sg32
g24
sg34
g24
sg36
g63
sg38
g63
sg40
g24
sg42
S'01/03'
p186
sg44
S'Colt McCoy'
p187
sg46
S'133.9'
p188
sg48
S'W34-23'
p189
sg50
S'2015'
p190
ssS'16'
p191
(dp192
g5
S'--'
p193
sg7
S'16'
p194
sg9
S'--'
p195
sg11
S'--'
p196
sg13
S'--'
p197
sg15
S'--'
p198
sg17
S'--'
p199
sg19
S'--'
p200
sg21
S'@PHI'
p201
sg23
g24
sg25
S'--'
p202
sg27
S'--'
p203
sg29
S'--'
p204
sg31
g24
sg32
S'--'
p205
sg34
S'--'
p206
sg36
S'--'
p207
sg38
S'--'
p208
sg40
S'--'
p209
sg42
S'12/26'
p210
sg44
S'Colt McCoy'
p211
sg46
S'0.0'
p212
sg48
S'W38-24'
p213
sg50
S'2015'
p214
ssg63
(dp215
g5
S'--'
p216
sg7
g63
sg9
S'--'
p217
sg11
S'--'
p218
sg13
S'--'
p219
sg15
S'--'
p220
sg17
S'--'
p221
sg19
S'--'
p222
sg21
S'MIA'
p223
sg23
g24
sg25
S'--'
p224
sg27
S'--'
p225
sg29
S'--'
p226
sg31
g24
sg32
S'--'
p227
sg34
S'--'
p228
sg36
S'--'
p229
sg38
S'--'
p230
sg40
S'--'
p231
sg42
S'09/13'
p232
sg44
S'Colt McCoy'
p233
sg46
S'0.0'
p234
sg48
S'L10-17'
p235
sg50
S'2015'
p236
ssg179
(dp237
g5
S'--'
p238
sg7
g179
sg9
S'--'
p239
sg11
S'--'
p240
sg13
S'--'
p241
sg15
S'--'
p242
sg17
S'--'
p243
sg19
S'--'
p244
sg21
S'@NYG'
p245
sg23
g24
sg25
S'--'
p246
sg27
S'--'
p247
sg29
S'--'
p248
sg31
g24
sg32
S'--'
p249
sg34
S'--'
p250
sg36
S'--'
p251
sg38
S'--'
p252
sg40
S'--'
p253
sg42
S'09/24'
p254
sg44
S'Colt McCoy'
p255
sg46
S'0.0'
p256
sg48
S'L21-32'
p257
sg50
S'2015'
p258
ssS'2'
p259
(dp260
g5
S'--'
p261
sg7
g259
sg9
S'--'
p262
sg11
S'--'
p263
sg13
S'--'
p264
sg15
S'--'
p265
sg17
S'--'
p266
sg19
S'--'
p267
sg21
S'STL'
p268
sg23
g24
sg25
S'--'
p269
sg27
S'--'
p270
sg29
S'--'
p271
sg31
g24
sg32
S'--'
p272
sg34
S'--'
p273
sg36
S'--'
p274
sg38
S'--'
p275
sg40
S'--'
p276
sg42
S'09/20'
p277
sg44
S'Colt McCoy'
p278
sg46
S'0.0'
p279
sg48
S'W24-10'
p280
sg50
S'2015'
p281
ssS'5'
p282
(dp283
g5
S'--'
p284
sg7
g282
sg9
S'--'
p285
sg11
S'--'
p286
sg13
S'--'
p287
sg15
S'--'
p288
sg17
S'--'
p289
sg19
S'--'
p290
sg21
S'@ATL'
p291
sg23
g24
sg25
S'--'
p292
sg27
S'--'
p293
sg29
S'--'
p294
sg31
g24
sg32
S'--'
p295
sg34
S'--'
p296
sg36
S'--'
p297
sg38
S'--'
p298
sg40
S'--'
p299
sg42
S'10/11'
p300
sg44
S'Colt McCoy'
p301
sg46
S'0.0'
p302
sg48
S'L19-25'
p303
sg50
S'2015'
p304
ssS'4'
p305
(dp306
g5
S'--'
p307
sg7
g305
sg9
S'--'
p308
sg11
S'--'
p309
sg13
S'--'
p310
sg15
S'--'
p311
sg17
S'--'
p312
sg19
S'--'
p313
sg21
S'PHI'
p314
sg23
g24
sg25
S'--'
p315
sg27
S'--'
p316
sg29
S'--'
p317
sg31
g24
sg32
S'--'
p318
sg34
S'--'
p319
sg36
S'--'
p320
sg38
S'--'
p321
sg40
S'--'
p322
sg42
S'10/04'
p323
sg44
S'Colt McCoy'
p324
sg46
S'0.0'
p325
sg48
S'W23-20'
p326
sg50
S'2015'
p327
ssg183
(dp328
g5
S'--'
p329
sg7
g183
sg9
S'--'
p330
sg11
S'--'
p331
sg13
S'--'
p332
sg15
S'--'
p333
sg17
S'--'
p334
sg19
S'--'
p335
sg21
S'TB'
p336
sg23
g24
sg25
S'--'
p337
sg27
S'--'
p338
sg29
S'--'
p339
sg31
g24
sg32
S'--'
p340
sg34
S'--'
p341
sg36
S'--'
p342
sg38
S'--'
p343
sg40
S'--'
p344
sg42
S'10/25'
p345
sg44
S'Colt McCoy'
p346
sg46
S'0.0'
p347
sg48
S'W31-30'
p348
sg50
S'2015'
p349
ssS'6'
p350
(dp351
g5
S'--'
p352
sg7
g350
sg9
S'--'
p353
sg11
S'--'
p354
sg13
S'--'
p355
sg15
S'--'
p356
sg17
S'--'
p357
sg19
S'--'
p358
sg21
S'@NYJ'
p359
sg23
g24
sg25
S'--'
p360
sg27
S'--'
p361
sg29
S'--'
p362
sg31
g24
sg32
S'--'
p363
sg34
S'--'
p364
sg36
S'--'
p365
sg38
S'--'
p366
sg40
S'--'
p367
sg42
S'10/18'
p368
sg44
S'Colt McCoy'
p369
sg46
S'0.0'
p370
sg48
S'L20-34'
p371
sg50
S'2015'
p372
ssS'9'
p373
(dp374
g5
S'--'
p375
sg7
g373
sg9
S'--'
p376
sg11
S'--'
p377
sg13
S'--'
p378
sg15
S'--'
p379
sg17
S'--'
p380
sg19
S'--'
p381
sg21
S'@NE'
p382
sg23
g24
sg25
S'--'
p383
sg27
S'--'
p384
sg29
S'--'
p385
sg31
g24
sg32
S'--'
p386
sg34
S'--'
p387
sg36
S'--'
p388
sg38
S'--'
p389
sg40
S'--'
p390
sg42
S'11/08'
p391
sg44
S'Colt McCoy'
p392
sg46
S'0.0'
p393
sg48
S'L10-27'
p394
sg50
S'2015'
p395
ssS'8'
p396
(dp397
g5
S''
p398
sg7
g396
sg9
g398
sg11
g398
sg13
g398
sg15
g398
sg17
g398
sg19
g398
sg21
g398
sg23
g398
sg25
g398
sg27
g398
sg29
g398
sg31
g398
sg32
g398
sg34
g398
sg36
g398
sg38
g398
sg40
g398
sg42
S'Bye'
p399
sg44
S'Colt McCoy'
p400
sg46
g398
sg48
g398
sg50
S'2015'
p401
sssS'2014'
p402
(dp403
g3
(dp404
g5
S'--'
p405
sg7
S'11'
p406
sg9
S'--'
p407
sg11
S'--'
p408
sg13
S'--'
p409
sg15
S'--'
p410
sg17
S'--'
p411
sg19
S'--'
p412
sg21
S'TB'
p413
sg23
g24
sg25
S'--'
p414
sg27
S'--'
p415
sg29
S'--'
p416
sg31
g24
sg32
S'--'
p417
sg34
S'--'
p418
sg36
S'--'
p419
sg38
S'--'
p420
sg40
S'--'
p421
sg42
S'11/16'
p422
sg44
S'Colt McCoy'
p423
sg46
S'0.0'
p424
sg48
S'L7-27'
p425
sg50
S'2014'
p426
ssg52
(dp427
g5
g398
sg7
S'10'
p428
sg9
g398
sg11
g398
sg13
g398
sg15
g398
sg17
g398
sg19
g398
sg21
g398
sg23
g398
sg25
g398
sg27
g398
sg29
g398
sg31
g398
sg32
g398
sg34
g398
sg36
g398
sg38
g398
sg40
g398
sg42
S'Bye'
p429
sg44
S'Colt McCoy'
p430
sg46
g398
sg48
g398
sg50
S'2014'
p431
ssg77
(dp432
g5
S'47'
p433
sg7
S'13'
p434
sg9
S'4.0'
p435
sg11
S'66.0'
p436
sg13
g179
sg15
S'392'
p437
sg17
S'8.3'
p438
sg19
g305
sg21
S'@IND'
p439
sg23
g63
sg25
S'31'
p440
sg27
S'51'
p441
sg29
S'12'
p442
sg31
g63
sg32
g63
sg34
g24
sg36
g179
sg38
g350
sg40
g24
sg42
S'11/30'
p443
sg44
S'Colt McCoy'
p444
sg46
S'113.1'
p445
sg48
S'L27-49'
p446
sg50
S'2014'
p447
ssg101
(dp448
g5
S'--'
p449
sg7
S'12'
p450
sg9
S'--'
p451
sg11
S'--'
p452
sg13
S'--'
p453
sg15
S'--'
p454
sg17
S'--'
p455
sg19
S'--'
p456
sg21
S'@SF'
p457
sg23
g24
sg25
S'--'
p458
sg27
S'--'
p459
sg29
S'--'
p460
sg31
g24
sg32
S'--'
p461
sg34
S'--'
p462
sg36
S'--'
p463
sg38
S'--'
p464
sg40
S'--'
p465
sg42
S'11/23'
p466
sg44
S'Colt McCoy'
p467
sg46
S'0.0'
p468
sg48
S'L13-17'
p469
sg50
S'2014'
p470
ssg125
(dp471
g5
g183
sg7
S'15'
p472
sg9
S'12.0'
p473
sg11
S'57.1'
p474
sg13
g259
sg15
S'39'
p475
sg17
S'5.6'
p476
sg19
S'--'
p477
sg21
S'@NYG'
p478
sg23
g63
sg25
g305
sg27
g24
sg29
S'24'
p479
sg31
g63
sg32
S'--'
p480
sg34
g24
sg36
g24
sg38
g24
sg40
g24
sg42
S'12/14'
p481
sg44
S'Colt McCoy'
p482
sg46
S'72.9'
p483
sg48
S'L13-24'
p484
sg50
S'2014'
p485
ssg149
(dp486
g5
S'32'
p487
sg7
S'14'
p488
sg9
S'5.5'
p489
sg11
S'62.5'
p490
sg13
g259
sg15
S'199'
p491
sg17
S'6.2'
p492
sg19
g63
sg21
S'STL'
p493
sg23
g63
sg25
S'20'
p494
sg27
S'45'
p495
sg29
S'11'
p496
sg31
g63
sg32
g24
sg34
g24
sg36
g24
sg38
g350
sg40
g259
sg42
S'12/07'
p497
sg44
S'Colt McCoy'
p498
sg46
S'54.0'
p499
sg48
S'L0-24'
p500
sg50
S'2014'
p501
ssg63
(dp502
g5
S'--'
p503
sg7
g63
sg9
S'--'
p504
sg11
S'--'
p505
sg13
S'--'
p506
sg15
S'--'
p507
sg17
S'--'
p508
sg19
S'--'
p509
sg21
S'@HOU'
p510
sg23
g24
sg25
S'--'
p511
sg27
S'--'
p512
sg29
S'--'
p513
sg31
g24
sg32
S'--'
p514
sg34
S'--'
p515
sg36
S'--'
p516
sg38
S'--'
p517
sg40
S'--'
p518
sg42
S'09/07'
p519
sg44
S'Colt McCoy'
p520
sg46
S'0.0'
p521
sg48
S'L6-17'
p522
sg50
S'2014'
p523
ssg179
(dp524
g5
S'--'
p525
sg7
g179
sg9
S'--'
p526
sg11
S'--'
p527
sg13
S'--'
p528
sg15
S'--'
p529
sg17
S'--'
p530
sg19
S'--'
p531
sg21
S'@PHI'
p532
sg23
g24
sg25
S'--'
p533
sg27
S'--'
p534
sg29
S'--'
p535
sg31
g24
sg32
S'--'
p536
sg34
S'--'
p537
sg36
S'--'
p538
sg38
S'--'
p539
sg40
S'--'
p540
sg42
S'09/21'
p541
sg44
S'Colt McCoy'
p542
sg46
S'0.0'
p543
sg48
S'L34-37'
p544
sg50
S'2014'
p545
ssg259
(dp546
g5
S'--'
p547
sg7
g259
sg9
S'--'
p548
sg11
S'--'
p549
sg13
S'--'
p550
sg15
S'--'
p551
sg17
S'--'
p552
sg19
S'--'
p553
sg21
S'JAC'
p554
sg23
g24
sg25
S'--'
p555
sg27
S'--'
p556
sg29
S'--'
p557
sg31
g24
sg32
S'--'
p558
sg34
S'--'
p559
sg36
S'--'
p560
sg38
S'--'
p561
sg40
S'--'
p562
sg42
S'09/14'
p563
sg44
S'Colt McCoy'
p564
sg46
S'0.0'
p565
sg48
S'W41-10'
p566
sg50
S'2014'
p567
ssg282
(dp568
g5
S'--'
p569
sg7
g282
sg9
S'--'
p570
sg11
S'--'
p571
sg13
S'--'
p572
sg15
S'--'
p573
sg17
S'--'
p574
sg19
S'--'
p575
sg21
S'SEA'
p576
sg23
g24
sg25
S'--'
p577
sg27
S'--'
p578
sg29
S'--'
p579
sg31
g24
sg32
S'--'
p580
sg34
S'--'
p581
sg36
S'--'
p582
sg38
S'--'
p583
sg40
S'--'
p584
sg42
S'10/06'
p585
sg44
S'Colt McCoy'
p586
sg46
S'0.0'
p587
sg48
S'L17-27'
p588
sg50
S'2014'
p589
ssg305
(dp590
g5
S'--'
p591
sg7
g305
sg9
S'--'
p592
sg11
S'--'
p593
sg13
S'--'
p594
sg15
S'--'
p595
sg17
S'--'
p596
sg19
S'--'
p597
sg21
S'NYG'
p598
sg23
g24
sg25
S'--'
p599
sg27
S'--'
p600
sg29
S'--'
p601
sg31
g24
sg32
S'--'
p602
sg34
S'--'
p603
sg36
S'--'
p604
sg38
S'--'
p605
sg40
S'--'
p606
sg42
S'09/25'
p607
sg44
S'Colt McCoy'
p608
sg46
S'0.0'
p609
sg48
S'L14-45'
p610
sg50
S'2014'
p611
ssg183
(dp612
g5
S'12'
p613
sg7
g183
sg9
S'1.5'
p614
sg11
S'91.7'
p615
sg13
g259
sg15
S'128'
p616
sg17
S'10.7'
p617
sg19
S'--'
p618
sg21
S'TEN'
p619
sg23
g63
sg25
S'11'
p620
sg27
g396
sg29
g179
sg31
g24
sg32
S'--'
p621
sg34
g24
sg36
g63
sg38
g259
sg40
g24
sg42
S'10/19'
p622
sg44
S'Colt McCoy'
p623
sg46
S'138.9'
p624
sg48
S'W19-17'
p625
sg50
S'2014'
p626
ssg350
(dp627
g5
S'--'
p628
sg7
g350
sg9
S'--'
p629
sg11
S'--'
p630
sg13
S'--'
p631
sg15
S'--'
p632
sg17
S'--'
p633
sg19
S'--'
p634
sg21
S'@ARI'
p635
sg23
g24
sg25
S'--'
p636
sg27
S'--'
p637
sg29
S'--'
p638
sg31
g24
sg32
S'--'
p639
sg34
S'--'
p640
sg36
S'--'
p641
sg38
S'--'
p642
sg40
S'--'
p643
sg42
S'10/12'
p644
sg44
S'Colt McCoy'
p645
sg46
S'0.0'
p646
sg48
S'L20-30'
p647
sg50
S'2014'
p648
ssg373
(dp649
g5
S'--'
p650
sg7
g373
sg9
S'--'
p651
sg11
S'--'
p652
sg13
S'--'
p653
sg15
S'--'
p654
sg17
S'--'
p655
sg19
S'--'
p656
sg21
S'@MIN'
p657
sg23
g24
sg25
S'--'
p658
sg27
S'--'
p659
sg29
S'--'
p660
sg31
g24
sg32
S'--'
p661
sg34
S'--'
p662
sg36
S'--'
p663
sg38
S'--'
p664
sg40
S'--'
p665
sg42
S'11/02'
p666
sg44
S'Colt McCoy'
p667
sg46
S'0.0'
p668
sg48
S'L26-29'
p669
sg50
S'2014'
p670
ssg396
(dp671
g5
S'30'
p672
sg7
g396
sg9
S'2.3'
p673
sg11
S'83.3'
p674
sg13
g183
sg15
S'299'
p675
sg17
S'10.0'
p676
sg19
g63
sg21
S'@DAL'
p677
sg23
g63
sg25
S'25'
p678
sg27
S'13'
p679
sg29
S'16'
p680
sg31
g63
sg32
g24
sg34
g63
sg36
g24
sg38
g179
sg40
g63
sg42
S'10/27'
p681
sg44
S'Colt McCoy'
p682
sg46
S'94.3'
p683
sg48
S'W20-17'
p684
sg50
S'2014'
p685
sssS'2011'
p686
(dp687
g3
(dp688
g5
S'24'
p689
sg7
S'11'
p690
sg9
S'5.4'
p691
sg11
S'70.8'
p692
sg13
g282
sg15
S'199'
p693
sg17
S'8.3'
p694
sg19
S'--'
p695
sg21
S'JAC'
p696
sg23
g63
sg25
S'17'
p697
sg27
S'13'
p698
sg29
S'27'
p699
sg31
g63
sg32
S'--'
p700
sg34
g24
sg36
g63
sg38
g259
sg40
g63
sg42
S'11/20'
p701
sg44
S'Colt McCoy'
p702
sg46
S'92.2'
p703
sg48
S'W14-10'
p704
sg50
S'2011'
p705
ssg52
(dp706
g5
S'27'
p707
sg7
S'10'
p708
sg9
S'1.0'
p709
sg11
S'74.1'
p710
sg13
g305
sg15
S'218'
p711
sg17
S'8.1'
p712
sg19
g63
sg21
S'STL'
p713
sg23
g63
sg25
S'20'
p714
sg27
g373
sg29
g305
sg31
g63
sg32
g24
sg34
g24
sg36
g24
sg38
g259
sg40
g24
sg42
S'11/13'
p715
sg44
S'Colt McCoy'
p716
sg46
S'97.5'
p717
sg48
S'L12-13'
p718
sg50
S'2011'
p719
ssg77
(dp720
g5
S'35'
p721
sg7
S'13'
p722
sg9
S'3.0'
p723
sg11
S'48.6'
p724
sg13
g305
sg15
S'192'
p725
sg17
S'5.5'
p726
sg19
S'--'
p727
sg21
S'BAL'
p728
sg23
g63
sg25
S'17'
p729
sg27
S'22'
p730
sg29
S'12'
p731
sg31
g63
sg32
S'--'
p732
sg34
g24
sg36
g63
sg38
g179
sg40
g63
sg42
S'12/04'
p733
sg44
S'Colt McCoy'
p734
sg46
S'63.0'
p735
sg48
S'L10-24'
p736
sg50
S'2011'
p737
ssg101
(dp738
g5
S'34'
p739
sg7
S'12'
p740
sg9
S'6.3'
p741
sg11
S'47.1'
p742
sg13
g350
sg15
S'151'
p743
sg17
S'4.4'
p744
sg19
g63
sg21
S'@CIN'
p745
sg23
g63
sg25
S'16'
p746
sg27
S'11'
p747
sg29
S'38'
p748
sg31
g63
sg32
g24
sg34
g24
sg36
g259
sg38
g259
sg40
g63
sg42
S'11/27'
p749
sg44
S'Colt McCoy'
p750
sg46
S'67.2'
p751
sg48
S'L20-23'
p752
sg50
S'2011'
p753
ssg125
(dp754
g5
S'--'
p755
sg7
S'15'
p756
sg9
S'--'
p757
sg11
S'--'
p758
sg13
S'--'
p759
sg15
S'--'
p760
sg17
S'--'
p761
sg19
S'--'
p762
sg21
S'@ARI'
p763
sg23
g24
sg25
S'--'
p764
sg27
S'--'
p765
sg29
S'--'
p766
sg31
g24
sg32
S'--'
p767
sg34
S'--'
p768
sg36
S'--'
p769
sg38
S'--'
p770
sg40
S'--'
p771
sg42
S'12/18'
p772
sg44
S'Colt McCoy'
p773
sg46
S'0.0'
p774
sg48
S'L17-20'
p775
sg50
S'2011'
p776
ssg149
(dp777
g5
S'35'
p778
sg7
S'14'
p779
sg9
S'2.5'
p780
sg11
S'51.4'
p781
sg13
g350
sg15
S'209'
p782
sg17
S'6.0'
p783
sg19
g63
sg21
S'@PIT'
p784
sg23
g63
sg25
S'18'
p785
sg27
S'16'
p786
sg29
S'15'
p787
sg31
g63
sg32
g24
sg34
g24
sg36
g24
sg38
g179
sg40
g259
sg42
S'12/08'
p788
sg44
S'Colt McCoy'
p789
sg46
S'46.0'
p790
sg48
S'L3-14'
p791
sg50
S'2011'
p792
ssg173
(dp793
g5
S'--'
p794
sg7
S'17'
p795
sg9
S'--'
p796
sg11
S'--'
p797
sg13
S'--'
p798
sg15
S'--'
p799
sg17
S'--'
p800
sg19
S'--'
p801
sg21
S'PIT'
p802
sg23
g24
sg25
S'--'
p803
sg27
S'--'
p804
sg29
S'--'
p805
sg31
g24
sg32
S'--'
p806
sg34
S'--'
p807
sg36
S'--'
p808
sg38
S'--'
p809
sg40
S'--'
p810
sg42
S'01/01'
p811
sg44
S'Colt McCoy'
p812
sg46
S'0.0'
p813
sg48
S'L9-13'
p814
sg50
S'2011'
p815
ssg191
(dp816
g5
S'--'
p817
sg7
S'16'
p818
sg9
S'--'
p819
sg11
S'--'
p820
sg13
S'--'
p821
sg15
S'--'
p822
sg17
S'--'
p823
sg19
S'--'
p824
sg21
S'@BAL'
p825
sg23
g24
sg25
S'--'
p826
sg27
S'--'
p827
sg29
S'--'
p828
sg31
g24
sg32
S'--'
p829
sg34
S'--'
p830
sg36
S'--'
p831
sg38
S'--'
p832
sg40
S'--'
p833
sg42
S'12/24'
p834
sg44
S'Colt McCoy'
p835
sg46
S'0.0'
p836
sg48
S'L14-20'
p837
sg50
S'2011'
p838
ssg63
(dp839
g5
S'40'
p840
sg7
g63
sg9
S'3.7'
p841
sg11
S'47.5'
p842
sg13
g179
sg15
S'213'
p843
sg17
S'5.3'
p844
sg19
g63
sg21
S'CIN'
p845
sg23
g63
sg25
S'19'
p846
sg27
S'11'
p847
sg29
S'11'
p848
sg31
g63
sg32
g24
sg34
g24
sg36
g259
sg38
g259
sg40
g63
sg42
S'09/11'
p849
sg44
S'Colt McCoy'
p850
sg46
S'70.1'
p851
sg48
S'L17-27'
p852
sg50
S'2011'
p853
ssg179
(dp854
g5
S'39'
p855
sg7
g179
sg9
S'-1.0'
p856
sg11
S'48.7'
p857
sg13
g259
sg15
S'210'
p858
sg17
S'5.4'
p859
sg19
S'--'
p860
sg21
S'MIA'
p861
sg23
g63
sg25
S'19'
p862
sg27
g24
sg29
S'-2'
p863
sg31
g63
sg32
S'--'
p864
sg34
g24
sg36
g259
sg38
g24
sg40
g63
sg42
S'09/25'
p865
sg44
S'Colt McCoy'
p866
sg46
S'71.5'
p867
sg48
S'W17-16'
p868
sg50
S'2011'
p869
ssg259
(dp870
g5
S'32'
p871
sg7
g259
sg9
S'3.3'
p872
sg11
S'68.8'
p873
sg13
g179
sg15
S'211'
p874
sg17
S'6.6'
p875
sg19
g63
sg21
S'@IND'
p876
sg23
g63
sg25
S'22'
p877
sg27
S'14'
p878
sg29
S'10'
p879
sg31
g63
sg32
g24
sg34
g24
sg36
g63
sg38
g63
sg40
g24
sg42
S'09/18'
p880
sg44
S'Colt McCoy'
p881
sg46
S'97.3'
p882
sg48
S'W27-19'
p883
sg50
S'2011'
p884
ssg282
(dp885
g5
g398
sg7
g282
sg9
g398
sg11
g398
sg13
g398
sg15
g398
sg17
g398
sg19
g398
sg21
g398
sg23
g398
sg25
g398
sg27
g398
sg29
g398
sg31
g398
sg32
g398
sg34
g398
sg36
g398
sg38
g398
sg40
g398
sg42
S'Bye'
p886
sg44
S'Colt McCoy'
p887
sg46
g398
sg48
g398
sg50
S'2011'
p888
ssg305
(dp889
g5
S'61'
p890
sg7
g305
sg9
S'4.0'
p891
sg11
S'65.6'
p892
sg13
g305
sg15
S'350'
p893
sg17
S'5.7'
p894
sg19
g63
sg21
S'TEN'
p895
sg23
g63
sg25
S'40'
p896
sg27
S'11'
p897
sg29
S'16'
p898
sg31
g63
sg32
g24
sg34
g24
sg36
g63
sg38
g179
sg40
g63
sg42
S'10/02'
p899
sg44
S'Colt McCoy'
p900
sg46
S'79.3'
p901
sg48
S'L13-31'
p902
sg50
S'2011'
p903
ssg183
(dp904
g5
S'35'
p905
sg7
g183
sg9
S'3.2'
p906
sg11
S'57.1'
p907
sg13
g373
sg15
S'178'
p908
sg17
S'5.1'
p909
sg19
S'--'
p910
sg21
S'SEA'
p911
sg23
g63
sg25
S'20'
p912
sg27
S'19'
p913
sg29
S'29'
p914
sg31
g63
sg32
S'--'
p915
sg34
g24
sg36
g24
sg38
g305
sg40
g63
sg42
S'10/23'
p916
sg44
S'Colt McCoy'
p917
sg46
S'59.0'
p918
sg48
S'W6-3'
p919
sg50
S'2011'
p920
ssg350
(dp921
g5
S'45'
p922
sg7
g350
sg9
S'4.0'
p923
sg11
S'46.7'
p924
sg13
g305
sg15
S'215'
p925
sg17
S'4.8'
p926
sg19
g63
sg21
S'@OAK'
p927
sg23
g63
sg25
S'21'
p928
sg27
S'12'
p929
sg29
S'16'
p930
sg31
g63
sg32
g63
sg34
g24
sg36
g259
sg38
g259
sg40
g24
sg42
S'10/16'
p931
sg44
S'Colt McCoy'
p932
sg46
S'75.7'
p933
sg48
S'L17-24'
p934
sg50
S'2011'
p935
ssg373
(dp936
g5
S'22'
p937
sg7
g373
sg9
S'2.0'
p938
sg11
S'63.6'
p939
sg13
g179
sg15
S'146'
p940
sg17
S'6.6'
p941
sg19
S'--'
p942
sg21
S'@HOU'
p943
sg23
g63
sg25
S'14'
p944
sg27
S'18'
p945
sg29
g350
sg31
g63
sg32
S'--'
p946
sg34
g24
sg36
g63
sg38
g305
sg40
g63
sg42
S'11/06'
p947
sg44
S'Colt McCoy'
p948
sg46
S'79.0'
p949
sg48
S'L12-30'
p950
sg50
S'2011'
p951
ssg396
(dp952
g5
S'34'
p953
sg7
g396
sg9
S'3.8'
p954
sg11
S'64.7'
p955
sg13
g396
sg15
S'241'
p956
sg17
S'7.1'
p957
sg19
g305
sg21
S'@SF'
p958
sg23
g63
sg25
S'22'
p959
sg27
S'17'
p960
sg29
S'30'
p961
sg31
g63
sg32
g63
sg34
g24
sg36
g63
sg38
g305
sg40
g63
sg42
S'10/30'
p962
sg44
S'Colt McCoy'
p963
sg46
S'83.1'
p964
sg48
S'L10-20'
p965
sg50
S'2011'
p966
sssS'2010'
p967
(dp968
g3
(dp969
g5
S'28'
p970
sg7
S'11'
p971
sg9
S'9.8'
p972
sg11
S'60.7'
p973
sg13
g305
sg15
S'241'
p974
sg17
S'8.6'
p975
sg19
S'--'
p976
sg21
S'@JAC'
p977
sg23
g63
sg25
S'17'
p978
sg27
S'46'
p979
sg29
S'39'
p980
sg31
g63
sg32
S'--'
p981
sg34
g24
sg36
g63
sg38
g350
sg40
g63
sg42
S'11/21'
p982
sg44
S'Colt McCoy'
p983
sg46
S'85.6'
p984
sg48
S'L20-24'
p985
sg50
S'2010'
p986
ssg52
(dp987
g5
S'31'
p988
sg7
S'10'
p989
sg9
S'2.8'
p990
sg11
S'58.1'
p991
sg13
g305
sg15
S'205'
p992
sg17
S'6.6'
p993
sg19
S'--'
p994
sg21
S'NYJ'
p995
sg23
g63
sg25
S'18'
p996
sg27
g373
sg29
S'11'
p997
sg31
g63
sg32
S'--'
p998
sg34
g24
sg36
g63
sg38
g179
sg40
g24
sg42
S'11/14'
p999
sg44
S'Colt McCoy'
p1000
sg46
S'88.8'
p1001
sg48
S'L20-26'
p1002
sg50
S'2010'
p1003
ssg77
(dp1004
g5
S'--'
p1005
sg7
S'13'
p1006
sg9
S'--'
p1007
sg11
S'--'
p1008
sg13
S'--'
p1009
sg15
S'--'
p1010
sg17
S'--'
p1011
sg19
S'--'
p1012
sg21
S'@MIA'
p1013
sg23
g24
sg25
S'--'
p1014
sg27
S'--'
p1015
sg29
S'--'
p1016
sg31
g24
sg32
S'--'
p1017
sg34
S'--'
p1018
sg36
S'--'
p1019
sg38
S'--'
p1020
sg40
S'--'
p1021
sg42
S'12/05'
p1022
sg44
S'Colt McCoy'
p1023
sg46
S'0.0'
p1024
sg48
S'W13-10'
p1025
sg50
S'2010'
p1026
ssg101
(dp1027
g5
S'--'
p1028
sg7
S'12'
p1029
sg9
S'--'
p1030
sg11
S'--'
p1031
sg13
S'--'
p1032
sg15
S'--'
p1033
sg17
S'--'
p1034
sg19
S'--'
p1035
sg21
S'CAR'
p1036
sg23
g24
sg25
S'--'
p1037
sg27
S'--'
p1038
sg29
S'--'
p1039
sg31
g24
sg32
S'--'
p1040
sg34
S'--'
p1041
sg36
S'--'
p1042
sg38
S'--'
p1043
sg40
S'--'
p1044
sg42
S'11/28'
p1045
sg44
S'Colt McCoy'
p1046
sg46
S'0.0'
p1047
sg48
S'W24-23'
p1048
sg50
S'2010'
p1049
ssg125
(dp1050
g5
S'25'
p1051
sg7
S'15'
p1052
sg9
S'--'
p1053
sg11
S'76.0'
p1054
sg13
S'--'
p1055
sg15
S'243'
p1056
sg17
S'9.7'
p1057
sg19
S'--'
p1058
sg21
S'@CIN'
p1059
sg23
g63
sg25
S'19'
p1060
sg27
S'24'
p1061
sg29
S'--'
p1062
sg31
g63
sg32
S'--'
p1063
sg34
S'--'
p1064
sg36
g259
sg38
g305
sg40
g24
sg42
S'12/19'
p1065
sg44
S'Colt McCoy'
p1066
sg46
S'132.6'
p1067
sg48
S'L17-19'
p1068
sg50
S'2010'
p1069
ssg149
(dp1070
g5
S'--'
p1071
sg7
S'14'
p1072
sg9
S'--'
p1073
sg11
S'--'
p1074
sg13
S'--'
p1075
sg15
S'--'
p1076
sg17
S'--'
p1077
sg19
S'--'
p1078
sg21
S'@BUF'
p1079
sg23
g24
sg25
S'--'
p1080
sg27
S'--'
p1081
sg29
S'--'
p1082
sg31
g24
sg32
S'--'
p1083
sg34
S'--'
p1084
sg36
S'--'
p1085
sg38
S'--'
p1086
sg40
S'--'
p1087
sg42
S'12/12'
p1088
sg44
S'Colt McCoy'
p1089
sg46
S'0.0'
p1090
sg48
S'L6-13'
p1091
sg50
S'2010'
p1092
ssg173
(dp1093
g5
S'41'
p1094
sg7
S'17'
p1095
sg9
S'4.8'
p1096
sg11
S'48.8'
p1097
sg13
g305
sg15
S'209'
p1098
sg17
S'5.1'
p1099
sg19
g63
sg21
S'PIT'
p1100
sg23
g63
sg25
S'20'
p1101
sg27
S'28'
p1102
sg29
S'19'
p1103
sg31
g63
sg32
g24
sg34
g24
sg36
g63
sg38
g305
sg40
g179
sg42
S'01/02'
p1104
sg44
S'Colt McCoy'
p1105
sg46
S'41.6'
p1106
sg48
S'L9-41'
p1107
sg50
S'2010'
p1108
ssg191
(dp1109
g5
S'29'
p1110
sg7
S'16'
p1111
sg9
S'7.5'
p1112
sg11
S'51.7'
p1113
sg13
g305
sg15
S'149'
p1114
sg17
S'5.1'
p1115
sg19
S'--'
p1116
sg21
S'BAL'
p1117
sg23
g63
sg25
S'15'
p1118
sg27
g24
sg29
S'30'
p1119
sg31
g63
sg32
S'--'
p1120
sg34
g24
sg36
g24
sg38
g24
sg40
g179
sg42
S'12/26'
p1121
sg44
S'Colt McCoy'
p1122
sg46
S'27.0'
p1123
sg48
S'L10-20'
p1124
sg50
S'2010'
p1125
ssg63
(dp1126
g5
S'--'
p1127
sg7
g63
sg9
S'--'
p1128
sg11
S'--'
p1129
sg13
S'--'
p1130
sg15
S'--'
p1131
sg17
S'--'
p1132
sg19
S'--'
p1133
sg21
S'@TB'
p1134
sg23
g24
sg25
S'--'
p1135
sg27
S'--'
p1136
sg29
S'--'
p1137
sg31
g24
sg32
S'--'
p1138
sg34
S'--'
p1139
sg36
S'--'
p1140
sg38
S'--'
p1141
sg40
S'--'
p1142
sg42
S'09/12'
p1143
sg44
S'Colt McCoy'
p1144
sg46
S'0.0'
p1145
sg48
S'L14-17'
p1146
sg50
S'2010'
p1147
ssg179
(dp1148
g5
S'--'
p1149
sg7
g179
sg9
S'--'
p1150
sg11
S'--'
p1151
sg13
S'--'
p1152
sg15
S'--'
p1153
sg17
S'--'
p1154
sg19
S'--'
p1155
sg21
S'@BAL'
p1156
sg23
g24
sg25
S'--'
p1157
sg27
S'--'
p1158
sg29
S'--'
p1159
sg31
g24
sg32
S'--'
p1160
sg34
S'--'
p1161
sg36
S'--'
p1162
sg38
S'--'
p1163
sg40
S'--'
p1164
sg42
S'09/26'
p1165
sg44
S'Colt McCoy'
p1166
sg46
S'0.0'
p1167
sg48
S'L17-24'
p1168
sg50
S'2010'
p1169
ssg259
(dp1170
g5
S'--'
p1171
sg7
g259
sg9
S'--'
p1172
sg11
S'--'
p1173
sg13
S'--'
p1174
sg15
S'--'
p1175
sg17
S'--'
p1176
sg19
S'--'
p1177
sg21
S'KC'
p1178
sg23
g24
sg25
S'--'
p1179
sg27
S'--'
p1180
sg29
S'--'
p1181
sg31
g24
sg32
S'--'
p1182
sg34
S'--'
p1183
sg36
S'--'
p1184
sg38
S'--'
p1185
sg40
S'--'
p1186
sg42
S'09/19'
p1187
sg44
S'Colt McCoy'
p1188
sg46
S'0.0'
p1189
sg48
S'L14-16'
p1190
sg50
S'2010'
p1191
ssg282
(dp1192
g5
S'--'
p1193
sg7
g282
sg9
S'--'
p1194
sg11
S'--'
p1195
sg13
S'--'
p1196
sg15
S'--'
p1197
sg17
S'--'
p1198
sg19
S'--'
p1199
sg21
S'ATL'
p1200
sg23
g24
sg25
S'--'
p1201
sg27
S'--'
p1202
sg29
S'--'
p1203
sg31
g24
sg32
S'--'
p1204
sg34
S'--'
p1205
sg36
S'--'
p1206
sg38
S'--'
p1207
sg40
S'--'
p1208
sg42
S'10/10'
p1209
sg44
S'Colt McCoy'
p1210
sg46
S'0.0'
p1211
sg48
S'L10-20'
p1212
sg50
S'2010'
p1213
ssg305
(dp1214
g5
S'--'
p1215
sg7
g305
sg9
S'--'
p1216
sg11
S'--'
p1217
sg13
S'--'
p1218
sg15
S'--'
p1219
sg17
S'--'
p1220
sg19
S'--'
p1221
sg21
S'CIN'
p1222
sg23
g24
sg25
S'--'
p1223
sg27
S'--'
p1224
sg29
S'--'
p1225
sg31
g24
sg32
S'--'
p1226
sg34
S'--'
p1227
sg36
S'--'
p1228
sg38
S'--'
p1229
sg40
S'--'
p1230
sg42
S'10/03'
p1231
sg44
S'Colt McCoy'
p1232
sg46
S'0.0'
p1233
sg48
S'W23-20'
p1234
sg50
S'2010'
p1235
ssg183
(dp1236
g5
S'16'
p1237
sg7
g183
sg9
S'-1.0'
p1238
sg11
S'56.3'
p1239
sg13
g282
sg15
S'74'
p1240
sg17
S'4.6'
p1241
sg19
S'--'
p1242
sg21
S'@NO'
p1243
sg23
g63
sg25
g373
sg27
g259
sg29
S'-5'
p1244
sg31
g63
sg32
S'--'
p1245
sg34
g24
sg36
g24
sg38
g63
sg40
g24
sg42
S'10/24'
p1246
sg44
S'Colt McCoy'
p1247
sg46
S'68.2'
p1248
sg48
S'W30-17'
p1249
sg50
S'2010'
p1250
ssg350
(dp1251
g5
S'33'
p1252
sg7
g350
sg9
S'5.5'
p1253
sg11
S'69.7'
p1254
sg13
g305
sg15
S'281'
p1255
sg17
S'8.5'
p1256
sg19
S'--'
p1257
sg21
S'@PIT'
p1258
sg23
g63
sg25
S'23'
p1259
sg27
S'23'
p1260
sg29
S'22'
p1261
sg31
g63
sg32
S'--'
p1262
sg34
g24
sg36
g63
sg38
g282
sg40
g259
sg42
S'10/17'
p1263
sg44
S'Colt McCoy'
p1264
sg46
S'80.5'
p1265
sg48
S'L10-28'
p1266
sg50
S'2010'
p1267
ssg373
(dp1268
g5
S'19'
p1269
sg7
g373
sg9
S'6.7'
p1270
sg11
S'73.7'
p1271
sg13
g179
sg15
S'174'
p1272
sg17
S'9.2'
p1273
sg19
S'--'
p1274
sg21
S'NE'
p1275
sg23
g63
sg25
S'14'
p1276
sg27
g24
sg29
S'20'
p1277
sg31
g63
sg32
S'--'
p1278
sg34
g63
sg36
g24
sg38
g24
sg40
g24
sg42
S'11/07'
p1279
sg44
S'Colt McCoy'
p1280
sg46
S'101.6'
p1281
sg48
S'W34-14'
p1282
sg50
S'2010'
p1283
ssg396
(dp1284
g5
g398
sg7
g396
sg9
g398
sg11
g398
sg13
g398
sg15
g398
sg17
g398
sg19
g398
sg21
g398
sg23
g398
sg25
g398
sg27
g398
sg29
g398
sg31
g398
sg32
g398
sg34
g398
sg36
g398
sg38
g398
sg40
g398
sg42
S'Bye'
p1285
sg44
S'Colt McCoy'
p1286
sg46
g398
sg48
g398
sg50
S'2010'
p1287
sssS'2013'
p1288
(dp1289
g3
(dp1290
g5
S'--'
p1291
sg7
S'11'
p1292
sg9
S'--'
p1293
sg11
S'--'
p1294
sg13
S'--'
p1295
sg15
S'--'
p1296
sg17
S'--'
p1297
sg19
S'--'
p1298
sg21
S'@NO'
p1299
sg23
g24
sg25
S'--'
p1300
sg27
S'--'
p1301
sg29
S'--'
p1302
sg31
g24
sg32
S'--'
p1303
sg34
S'--'
p1304
sg36
S'--'
p1305
sg38
S'--'
p1306
sg40
S'--'
p1307
sg42
S'11/17'
p1308
sg44
S'Colt McCoy'
p1309
sg46
S'0.0'
p1310
sg48
S'L20-23'
p1311
sg50
S'2013'
p1312
ssg52
(dp1313
g5
S'--'
p1314
sg7
S'10'
p1315
sg9
S'--'
p1316
sg11
S'--'
p1317
sg13
S'--'
p1318
sg15
S'--'
p1319
sg17
S'--'
p1320
sg19
S'--'
p1321
sg21
S'CAR'
p1322
sg23
g24
sg25
S'--'
p1323
sg27
S'--'
p1324
sg29
S'--'
p1325
sg31
g24
sg32
S'--'
p1326
sg34
S'--'
p1327
sg36
S'--'
p1328
sg38
S'--'
p1329
sg40
S'--'
p1330
sg42
S'11/10'
p1331
sg44
S'Colt McCoy'
p1332
sg46
S'0.0'
p1333
sg48
S'L9-10'
p1334
sg50
S'2013'
p1335
ssg77
(dp1336
g5
S'--'
p1337
sg7
S'13'
p1338
sg9
S'--'
p1339
sg11
S'--'
p1340
sg13
S'--'
p1341
sg15
S'--'
p1342
sg17
S'--'
p1343
sg19
S'--'
p1344
sg21
S'STL'
p1345
sg23
g24
sg25
S'--'
p1346
sg27
S'--'
p1347
sg29
S'--'
p1348
sg31
g24
sg32
S'--'
p1349
sg34
S'--'
p1350
sg36
S'--'
p1351
sg38
S'--'
p1352
sg40
S'--'
p1353
sg42
S'12/01'
p1354
sg44
S'Colt McCoy'
p1355
sg46
S'0.0'
p1356
sg48
S'W23-13'
p1357
sg50
S'2013'
p1358
ssg101
(dp1359
g5
S'--'
p1360
sg7
S'12'
p1361
sg9
S'--'
p1362
sg11
S'--'
p1363
sg13
S'--'
p1364
sg15
S'--'
p1365
sg17
S'--'
p1366
sg19
S'--'
p1367
sg21
S'@WAS'
p1368
sg23
g24
sg25
S'--'
p1369
sg27
S'--'
p1370
sg29
S'--'
p1371
sg31
g24
sg32
S'--'
p1372
sg34
S'--'
p1373
sg36
S'--'
p1374
sg38
S'--'
p1375
sg40
S'--'
p1376
sg42
S'11/25'
p1377
sg44
S'Colt McCoy'
p1378
sg46
S'0.0'
p1379
sg48
S'W27-6'
p1380
sg50
S'2013'
p1381
ssg125
(dp1382
g5
S'--'
p1383
sg7
S'15'
p1384
sg9
S'-1.0'
p1385
sg11
S'--'
p1386
sg13
g179
sg15
S'--'
p1387
sg17
S'--'
p1388
sg19
S'--'
p1389
sg21
S'@TB'
p1390
sg23
g63
sg25
S'--'
p1391
sg27
S'--'
p1392
sg29
S'-3'
p1393
sg31
g24
sg32
S'--'
p1394
sg34
g24
sg36
S'--'
p1395
sg38
S'--'
p1396
sg40
S'--'
p1397
sg42
S'12/15'
p1398
sg44
S'Colt McCoy'
p1399
sg46
S'0.0'
p1400
sg48
S'W33-14'
p1401
sg50
S'2013'
p1402
ssg149
(dp1403
g5
S'--'
p1404
sg7
S'14'
p1405
sg9
S'--'
p1406
sg11
S'--'
p1407
sg13
S'--'
p1408
sg15
S'--'
p1409
sg17
S'--'
p1410
sg19
S'--'
p1411
sg21
S'SEA'
p1412
sg23
g24
sg25
S'--'
p1413
sg27
S'--'
p1414
sg29
S'--'
p1415
sg31
g24
sg32
S'--'
p1416
sg34
S'--'
p1417
sg36
S'--'
p1418
sg38
S'--'
p1419
sg40
S'--'
p1420
sg42
S'12/08'
p1421
sg44
S'Colt McCoy'
p1422
sg46
S'0.0'
p1423
sg48
S'W19-17'
p1424
sg50
S'2013'
p1425
ssg173
(dp1426
g5
S'--'
p1427
sg7
S'17'
p1428
sg9
S'--'
p1429
sg11
S'--'
p1430
sg13
S'--'
p1431
sg15
S'--'
p1432
sg17
S'--'
p1433
sg19
S'--'
p1434
sg21
S'@ARI'
p1435
sg23
g24
sg25
S'--'
p1436
sg27
S'--'
p1437
sg29
S'--'
p1438
sg31
g24
sg32
S'--'
p1439
sg34
S'--'
p1440
sg36
S'--'
p1441
sg38
S'--'
p1442
sg40
S'--'
p1443
sg42
S'12/29'
p1444
sg44
S'Colt McCoy'
p1445
sg46
S'0.0'
p1446
sg48
S'W23-20'
p1447
sg50
S'2013'
p1448
ssg191
(dp1449
g5
S'--'
p1450
sg7
S'16'
p1451
sg9
S'--'
p1452
sg11
S'--'
p1453
sg13
S'--'
p1454
sg15
S'--'
p1455
sg17
S'--'
p1456
sg19
S'--'
p1457
sg21
S'ATL'
p1458
sg23
g24
sg25
S'--'
p1459
sg27
S'--'
p1460
sg29
S'--'
p1461
sg31
g24
sg32
S'--'
p1462
sg34
S'--'
p1463
sg36
S'--'
p1464
sg38
S'--'
p1465
sg40
S'--'
p1466
sg42
S'12/23'
p1467
sg44
S'Colt McCoy'
p1468
sg46
S'0.0'
p1469
sg48
S'W34-24'
p1470
sg50
S'2013'
p1471
ssg63
(dp1472
g5
S'--'
p1473
sg7
g63
sg9
S'--'
p1474
sg11
S'--'
p1475
sg13
S'--'
p1476
sg15
S'--'
p1477
sg17
S'--'
p1478
sg19
S'--'
p1479
sg21
S'GB'
p1480
sg23
g24
sg25
S'--'
p1481
sg27
S'--'
p1482
sg29
S'--'
p1483
sg31
g24
sg32
S'--'
p1484
sg34
S'--'
p1485
sg36
S'--'
p1486
sg38
S'--'
p1487
sg40
S'--'
p1488
sg42
S'09/08'
p1489
sg44
S'Colt McCoy'
p1490
sg46
S'0.0'
p1491
sg48
S'W34-28'
p1492
sg50
S'2013'
p1493
ssg179
(dp1494
g5
S'--'
p1495
sg7
g179
sg9
S'--'
p1496
sg11
S'--'
p1497
sg13
S'--'
p1498
sg15
S'--'
p1499
sg17
S'--'
p1500
sg19
S'--'
p1501
sg21
S'IND'
p1502
sg23
g24
sg25
S'--'
p1503
sg27
S'--'
p1504
sg29
S'--'
p1505
sg31
g24
sg32
S'--'
p1506
sg34
S'--'
p1507
sg36
S'--'
p1508
sg38
S'--'
p1509
sg40
S'--'
p1510
sg42
S'09/22'
p1511
sg44
S'Colt McCoy'
p1512
sg46
S'0.0'
p1513
sg48
S'L7-27'
p1514
sg50
S'2013'
p1515
ssg259
(dp1516
g5
S'--'
p1517
sg7
g259
sg9
S'--'
p1518
sg11
S'--'
p1519
sg13
S'--'
p1520
sg15
S'--'
p1521
sg17
S'--'
p1522
sg19
S'--'
p1523
sg21
S'@SEA'
p1524
sg23
g24
sg25
S'--'
p1525
sg27
S'--'
p1526
sg29
S'--'
p1527
sg31
g24
sg32
S'--'
p1528
sg34
S'--'
p1529
sg36
S'--'
p1530
sg38
S'--'
p1531
sg40
S'--'
p1532
sg42
S'09/15'
p1533
sg44
S'Colt McCoy'
p1534
sg46
S'0.0'
p1535
sg48
S'L3-29'
p1536
sg50
S'2013'
p1537
ssg282
(dp1538
g5
S'--'
p1539
sg7
g282
sg9
S'-1.0'
p1540
sg11
S'--'
p1541
sg13
g179
sg15
S'--'
p1542
sg17
S'--'
p1543
sg19
S'--'
p1544
sg21
S'HOU'
p1545
sg23
g63
sg25
S'--'
p1546
sg27
S'--'
p1547
sg29
S'-3'
p1548
sg31
g24
sg32
S'--'
p1549
sg34
g24
sg36
S'--'
p1550
sg38
S'--'
p1551
sg40
S'--'
p1552
sg42
S'10/06'
p1553
sg44
S'Colt McCoy'
p1554
sg46
S'0.0'
p1555
sg48
S'W34-3'
p1556
sg50
S'2013'
p1557
ssg305
(dp1558
g5
S'--'
p1559
sg7
g305
sg9
S'--'
p1560
sg11
S'--'
p1561
sg13
S'--'
p1562
sg15
S'--'
p1563
sg17
S'--'
p1564
sg19
S'--'
p1565
sg21
S'@STL'
p1566
sg23
g63
sg25
S'--'
p1567
sg27
S'--'
p1568
sg29
S'--'
p1569
sg31
g24
sg32
S'--'
p1570
sg34
S'--'
p1571
sg36
S'--'
p1572
sg38
S'--'
p1573
sg40
S'--'
p1574
sg42
S'09/26'
p1575
sg44
S'Colt McCoy'
p1576
sg46
S'0.0'
p1577
sg48
S'W35-11'
p1578
sg50
S'2013'
p1579
ssg183
(dp1580
g5
S'--'
p1581
sg7
g183
sg9
S'--'
p1582
sg11
S'--'
p1583
sg13
S'--'
p1584
sg15
S'--'
p1585
sg17
S'--'
p1586
sg19
S'--'
p1587
sg21
S'@TEN'
p1588
sg23
g24
sg25
S'--'
p1589
sg27
S'--'
p1590
sg29
S'--'
p1591
sg31
g24
sg32
S'--'
p1592
sg34
S'--'
p1593
sg36
S'--'
p1594
sg38
S'--'
p1595
sg40
S'--'
p1596
sg42
S'10/20'
p1597
sg44
S'Colt McCoy'
p1598
sg46
S'0.0'
p1599
sg48
S'W31-17'
p1600
sg50
S'2013'
p1601
ssg350
(dp1602
g5
S'--'
p1603
sg7
g350
sg9
S'--'
p1604
sg11
S'--'
p1605
sg13
S'--'
p1606
sg15
S'--'
p1607
sg17
S'--'
p1608
sg19
S'--'
p1609
sg21
S'ARI'
p1610
sg23
g24
sg25
S'--'
p1611
sg27
S'--'
p1612
sg29
S'--'
p1613
sg31
g24
sg32
S'--'
p1614
sg34
S'--'
p1615
sg36
S'--'
p1616
sg38
S'--'
p1617
sg40
S'--'
p1618
sg42
S'10/13'
p1619
sg44
S'Colt McCoy'
p1620
sg46
S'0.0'
p1621
sg48
S'W32-20'
p1622
sg50
S'2013'
p1623
ssg373
(dp1624
g5
g398
sg7
g373
sg9
g398
sg11
g398
sg13
g398
sg15
g398
sg17
g398
sg19
g398
sg21
g398
sg23
g398
sg25
g398
sg27
g398
sg29
g398
sg31
g398
sg32
g398
sg34
g398
sg36
g398
sg38
g398
sg40
g398
sg42
S'Bye'
p1625
sg44
S'Colt McCoy'
p1626
sg46
g398
sg48
g398
sg50
S'2013'
p1627
ssg396
(dp1628
g5
g63
sg7
g396
sg9
S'--'
p1629
sg11
S'100.0'
p1630
sg13
S'--'
p1631
sg15
S'13'
p1632
sg17
S'13.0'
p1633
sg19
S'--'
p1634
sg21
S'@JAC'
p1635
sg23
g63
sg25
g63
sg27
g24
sg29
S'--'
p1636
sg31
g24
sg32
S'--'
p1637
sg34
S'--'
p1638
sg36
g24
sg38
g24
sg40
g24
sg42
S'10/27'
p1639
sg44
S'Colt McCoy'
p1640
sg46
S'118.8'
p1641
sg48
S'W42-10'
p1642
sg50
S'2013'
p1643
sssS'2012'
p1644
(dp1645
g3
(dp1646
g5
S'--'
p1647
sg7
S'11'
p1648
sg9
S'--'
p1649
sg11
S'--'
p1650
sg13
S'--'
p1651
sg15
S'--'
p1652
sg17
S'--'
p1653
sg19
S'--'
p1654
sg21
S'@DAL'
p1655
sg23
g24
sg25
S'--'
p1656
sg27
S'--'
p1657
sg29
S'--'
p1658
sg31
g24
sg32
S'--'
p1659
sg34
S'--'
p1660
sg36
S'--'
p1661
sg38
S'--'
p1662
sg40
S'--'
p1663
sg42
S'11/18'
p1664
sg44
S'Colt McCoy'
p1665
sg46
S'0.0'
p1666
sg48
S'L20-23'
p1667
sg50
S'2012'
p1668
ssg52
(dp1669
g5
g398
sg7
S'10'
p1670
sg9
g398
sg11
g398
sg13
g398
sg15
g398
sg17
g398
sg19
g398
sg21
g398
sg23
g398
sg25
g398
sg27
g398
sg29
g398
sg31
g398
sg32
g398
sg34
g398
sg36
g398
sg38
g398
sg40
g398
sg42
S'Bye'
p1671
sg44
S'Colt McCoy'
p1672
sg46
g398
sg48
g398
sg50
S'2012'
p1673
ssg77
(dp1674
g5
S'--'
p1675
sg7
S'13'
p1676
sg9
S'--'
p1677
sg11
S'--'
p1678
sg13
S'--'
p1679
sg15
S'--'
p1680
sg17
S'--'
p1681
sg19
S'--'
p1682
sg21
S'@OAK'
p1683
sg23
g24
sg25
S'--'
p1684
sg27
S'--'
p1685
sg29
S'--'
p1686
sg31
g24
sg32
S'--'
p1687
sg34
S'--'
p1688
sg36
S'--'
p1689
sg38
S'--'
p1690
sg40
S'--'
p1691
sg42
S'12/02'
p1692
sg44
S'Colt McCoy'
p1693
sg46
S'0.0'
p1694
sg48
S'W20-17'
p1695
sg50
S'2012'
p1696
ssg101
(dp1697
g5
S'--'
p1698
sg7
S'12'
p1699
sg9
S'--'
p1700
sg11
S'--'
p1701
sg13
S'--'
p1702
sg15
S'--'
p1703
sg17
S'--'
p1704
sg19
S'--'
p1705
sg21
S'PIT'
p1706
sg23
g63
sg25
S'--'
p1707
sg27
S'--'
p1708
sg29
S'--'
p1709
sg31
g24
sg32
S'--'
p1710
sg34
S'--'
p1711
sg36
S'--'
p1712
sg38
S'--'
p1713
sg40
S'--'
p1714
sg42
S'11/25'
p1715
sg44
S'Colt McCoy'
p1716
sg46
S'0.0'
p1717
sg48
S'W20-14'
p1718
sg50
S'2012'
p1719
ssg125
(dp1720
g5
S'--'
p1721
sg7
S'15'
p1722
sg9
S'--'
p1723
sg11
S'--'
p1724
sg13
S'--'
p1725
sg15
S'--'
p1726
sg17
S'--'
p1727
sg19
S'--'
p1728
sg21
S'WAS'
p1729
sg23
g24
sg25
S'--'
p1730
sg27
S'--'
p1731
sg29
S'--'
p1732
sg31
g24
sg32
S'--'
p1733
sg34
S'--'
p1734
sg36
S'--'
p1735
sg38
S'--'
p1736
sg40
S'--'
p1737
sg42
S'12/16'
p1738
sg44
S'Colt McCoy'
p1739
sg46
S'0.0'
p1740
sg48
S'L21-38'
p1741
sg50
S'2012'
p1742
ssg149
(dp1743
g5
S'--'
p1744
sg7
S'14'
p1745
sg9
S'-1.0'
p1746
sg11
S'--'
p1747
sg13
g259
sg15
S'--'
p1748
sg17
S'--'
p1749
sg19
S'--'
p1750
sg21
S'KC'
p1751
sg23
g63
sg25
S'--'
p1752
sg27
S'--'
p1753
sg29
S'-2'
p1754
sg31
g24
sg32
S'--'
p1755
sg34
g24
sg36
S'--'
p1756
sg38
S'--'
p1757
sg40
S'--'
p1758
sg42
S'12/09'
p1759
sg44
S'Colt McCoy'
p1760
sg46
S'0.0'
p1761
sg48
S'W30-7'
p1762
sg50
S'2012'
p1763
ssg173
(dp1764
g5
S'--'
p1765
sg7
S'17'
p1766
sg9
S'--'
p1767
sg11
S'--'
p1768
sg13
S'--'
p1769
sg15
S'--'
p1770
sg17
S'--'
p1771
sg19
S'--'
p1772
sg21
S'@PIT'
p1773
sg23
g24
sg25
S'--'
p1774
sg27
S'--'
p1775
sg29
S'--'
p1776
sg31
g24
sg32
S'--'
p1777
sg34
S'--'
p1778
sg36
S'--'
p1779
sg38
S'--'
p1780
sg40
S'--'
p1781
sg42
S'12/30'
p1782
sg44
S'Colt McCoy'
p1783
sg46
S'0.0'
p1784
sg48
S'L10-24'
p1785
sg50
S'2012'
p1786
ssg191
(dp1787
g5
S'17'
p1788
sg7
S'16'
p1789
sg9
S'8.5'
p1790
sg11
S'52.9'
p1791
sg13
g259
sg15
S'79'
p1792
sg17
S'4.6'
p1793
sg19
S'--'
p1794
sg21
S'@DEN'
p1795
sg23
g63
sg25
g373
sg27
S'25'
p1796
sg29
S'17'
p1797
sg31
g24
sg32
S'--'
p1798
sg34
g24
sg36
g63
sg38
g305
sg40
g24
sg42
S'12/23'
p1799
sg44
S'Colt McCoy'
p1800
sg46
S'85.2'
p1801
sg48
S'L12-34'
p1802
sg50
S'2012'
p1803
ssg63
(dp1804
g5
S'--'
p1805
sg7
g63
sg9
S'--'
p1806
sg11
S'--'
p1807
sg13
S'--'
p1808
sg15
S'--'
p1809
sg17
S'--'
p1810
sg19
S'--'
p1811
sg21
S'PHI'
p1812
sg23
g24
sg25
S'--'
p1813
sg27
S'--'
p1814
sg29
S'--'
p1815
sg31
g24
sg32
S'--'
p1816
sg34
S'--'
p1817
sg36
S'--'
p1818
sg38
S'--'
p1819
sg40
S'--'
p1820
sg42
S'09/09'
p1821
sg44
S'Colt McCoy'
p1822
sg46
S'0.0'
p1823
sg48
S'L16-17'
p1824
sg50
S'2012'
p1825
ssg179
(dp1826
g5
S'--'
p1827
sg7
g179
sg9
S'--'
p1828
sg11
S'--'
p1829
sg13
S'--'
p1830
sg15
S'--'
p1831
sg17
S'--'
p1832
sg19
S'--'
p1833
sg21
S'BUF'
p1834
sg23
g24
sg25
S'--'
p1835
sg27
S'--'
p1836
sg29
S'--'
p1837
sg31
g24
sg32
S'--'
p1838
sg34
S'--'
p1839
sg36
S'--'
p1840
sg38
S'--'
p1841
sg40
S'--'
p1842
sg42
S'09/23'
p1843
sg44
S'Colt McCoy'
p1844
sg46
S'0.0'
p1845
sg48
S'L14-24'
p1846
sg50
S'2012'
p1847
ssg259
(dp1848
g5
S'--'
p1849
sg7
g259
sg9
S'--'
p1850
sg11
S'--'
p1851
sg13
S'--'
p1852
sg15
S'--'
p1853
sg17
S'--'
p1854
sg19
S'--'
p1855
sg21
S'@CIN'
p1856
sg23
g24
sg25
S'--'
p1857
sg27
S'--'
p1858
sg29
S'--'
p1859
sg31
g24
sg32
S'--'
p1860
sg34
S'--'
p1861
sg36
S'--'
p1862
sg38
S'--'
p1863
sg40
S'--'
p1864
sg42
S'09/16'
p1865
sg44
S'Colt McCoy'
p1866
sg46
S'0.0'
p1867
sg48
S'L27-34'
p1868
sg50
S'2012'
p1869
ssg282
(dp1870
g5
S'--'
p1871
sg7
g282
sg9
S'--'
p1872
sg11
S'--'
p1873
sg13
S'--'
p1874
sg15
S'--'
p1875
sg17
S'--'
p1876
sg19
S'--'
p1877
sg21
S'@NYG'
p1878
sg23
g24
sg25
S'--'
p1879
sg27
S'--'
p1880
sg29
S'--'
p1881
sg31
g24
sg32
S'--'
p1882
sg34
S'--'
p1883
sg36
S'--'
p1884
sg38
S'--'
p1885
sg40
S'--'
p1886
sg42
S'10/07'
p1887
sg44
S'Colt McCoy'
p1888
sg46
S'0.0'
p1889
sg48
S'L27-41'
p1890
sg50
S'2012'
p1891
ssg305
(dp1892
g5
S'--'
p1893
sg7
g305
sg9
S'--'
p1894
sg11
S'--'
p1895
sg13
S'--'
p1896
sg15
S'--'
p1897
sg17
S'--'
p1898
sg19
S'--'
p1899
sg21
S'@BAL'
p1900
sg23
g24
sg25
S'--'
p1901
sg27
S'--'
p1902
sg29
S'--'
p1903
sg31
g24
sg32
S'--'
p1904
sg34
S'--'
p1905
sg36
S'--'
p1906
sg38
S'--'
p1907
sg40
S'--'
p1908
sg42
S'09/27'
p1909
sg44
S'Colt McCoy'
p1910
sg46
S'0.0'
p1911
sg48
S'L16-23'
p1912
sg50
S'2012'
p1913
ssg183
(dp1914
g5
S'--'
p1915
sg7
g183
sg9
S'--'
p1916
sg11
S'--'
p1917
sg13
S'--'
p1918
sg15
S'--'
p1919
sg17
S'--'
p1920
sg19
S'--'
p1921
sg21
S'@IND'
p1922
sg23
g24
sg25
S'--'
p1923
sg27
S'--'
p1924
sg29
S'--'
p1925
sg31
g24
sg32
S'--'
p1926
sg34
S'--'
p1927
sg36
S'--'
p1928
sg38
S'--'
p1929
sg40
S'--'
p1930
sg42
S'10/21'
p1931
sg44
S'Colt McCoy'
p1932
sg46
S'0.0'
p1933
sg48
S'L13-17'
p1934
sg50
S'2012'
p1935
ssg350
(dp1936
g5
S'--'
p1937
sg7
g350
sg9
S'--'
p1938
sg11
S'--'
p1939
sg13
S'--'
p1940
sg15
S'--'
p1941
sg17
S'--'
p1942
sg19
S'--'
p1943
sg21
S'CIN'
p1944
sg23
g24
sg25
S'--'
p1945
sg27
S'--'
p1946
sg29
S'--'
p1947
sg31
g24
sg32
S'--'
p1948
sg34
S'--'
p1949
sg36
S'--'
p1950
sg38
S'--'
p1951
sg40
S'--'
p1952
sg42
S'10/14'
p1953
sg44
S'Colt McCoy'
p1954
sg46
S'0.0'
p1955
sg48
S'W34-24'
p1956
sg50
S'2012'
p1957
ssg373
(dp1958
g5
S'--'
p1959
sg7
g373
sg9
S'--'
p1960
sg11
S'--'
p1961
sg13
S'--'
p1962
sg15
S'--'
p1963
sg17
S'--'
p1964
sg19
S'--'
p1965
sg21
S'BAL'
p1966
sg23
g24
sg25
S'--'
p1967
sg27
S'--'
p1968
sg29
S'--'
p1969
sg31
g24
sg32
S'--'
p1970
sg34
S'--'
p1971
sg36
S'--'
p1972
sg38
S'--'
p1973
sg40
S'--'
p1974
sg42
S'11/04'
p1975
sg44
S'Colt McCoy'
p1976
sg46
S'0.0'
p1977
sg48
S'L15-25'
p1978
sg50
S'2012'
p1979
ssg396
(dp1980
g5
S'--'
p1981
sg7
g396
sg9
S'--'
p1982
sg11
S'--'
p1983
sg13
S'--'
p1984
sg15
S'--'
p1985
sg17
S'--'
p1986
sg19
S'--'
p1987
sg21
S'SD'
p1988
sg23
g24
sg25
S'--'
p1989
sg27
S'--'
p1990
sg29
S'--'
p1991
sg31
g24
sg32
S'--'
p1992
sg34
S'--'
p1993
sg36
S'--'
p1994
sg38
S'--'
p1995
sg40
S'--'
p1996
sg42
S'10/28'
p1997
sg44
S'Colt McCoy'
p1998
sg46
S'0.0'
p1999
sg48
S'W7-6'
p2000
sg50
S'2012'
p2001
sss.