(dp0
S'2014'
p1
(dp2
S'17'
p3
(dp4
S'PassAtt'
p5
S'28'
p6
sS'WK'
p7
S'17'
p8
sS'RushAvg'
p9
S'1.3'
p10
sS'Pct'
p11
S'50.0'
p12
sS'RushAtt'
p13
S'7'
p14
sS'PassYds'
p15
S'177'
p16
sS'PassAvg'
p17
S'6.3'
p18
sS'FUM'
p19
S'1'
p20
sS'Opp'
p21
S'@BAL'
p22
sS'G'
p23
g20
sS'Comp'
p24
S'14'
p25
sS'SckY'
p26
S'27'
p27
sS'RushYds'
p28
S'9'
p29
sS'GS'
p30
g20
sS'Lost'
p31
g20
sS'RushTD'
p32
S'0'
p33
sS'PassTD'
p34
g33
sS'Sck'
p35
S'4'
p36
sS'Int'
p37
g20
sS'Game Date'
p38
S'12/28'
p39
sS'Player'
p40
S'Connor Shaw'
p41
sS'Rate'
p42
S'55.2'
p43
sS'Result'
p44
S'L10-20'
p45
sS'Year'
p46
S'2014'
p47
sss.