(dp0
S'2015'
p1
(dp2
S'11'
p3
(dp4
S'PassAtt'
p5
S'--'
p6
sS'WK'
p7
S'11'
p8
sS'RushAvg'
p9
S'--'
p10
sS'Pct'
p11
S'--'
p12
sS'RushAtt'
p13
S'--'
p14
sS'PassYds'
p15
S'--'
p16
sS'PassAvg'
p17
S'--'
p18
sS'FUM'
p19
S'--'
p20
sS'Opp'
p21
S'OAK'
p22
sS'G'
p23
S'0'
p24
sS'Comp'
p25
S'--'
p26
sS'SckY'
p27
S'--'
p28
sS'RushYds'
p29
S'--'
p30
sS'GS'
p31
g24
sS'Lost'
p32
S'--'
p33
sS'RushTD'
p34
S'--'
p35
sS'PassTD'
p36
S'--'
p37
sS'Sck'
p38
S'--'
p39
sS'Int'
p40
S'--'
p41
sS'Game Date'
p42
S'11/22'
p43
sS'Player'
p44
S'Dan Orlovsky'
p45
sS'Rate'
p46
S'0.0'
p47
sS'Result'
p48
S'W18-13'
p49
sS'Year'
p50
S'2015'
p51
ssS'10'
p52
(dp53
g5
S'--'
p54
sg7
S'10'
p55
sg9
S'--'
p56
sg11
S'--'
p57
sg13
S'--'
p58
sg15
S'--'
p59
sg17
S'--'
p60
sg19
S'--'
p61
sg21
S'@GB'
p62
sg23
g24
sg25
S'--'
p63
sg27
S'--'
p64
sg29
S'--'
p65
sg31
g24
sg32
S'--'
p66
sg34
S'--'
p67
sg36
S'--'
p68
sg38
S'--'
p69
sg40
S'--'
p70
sg42
S'11/15'
p71
sg44
S'Dan Orlovsky'
p72
sg46
S'0.0'
p73
sg48
S'W18-16'
p74
sg50
S'2015'
p75
ssS'13'
p76
(dp77
g5
S'--'
p78
sg7
S'13'
p79
sg9
S'--'
p80
sg11
S'--'
p81
sg13
S'--'
p82
sg15
S'--'
p83
sg17
S'--'
p84
sg19
S'--'
p85
sg21
S'GB'
p86
sg23
g24
sg25
S'--'
p87
sg27
S'--'
p88
sg29
S'--'
p89
sg31
g24
sg32
S'--'
p90
sg34
S'--'
p91
sg36
S'--'
p92
sg38
S'--'
p93
sg40
S'--'
p94
sg42
S'12/03'
p95
sg44
S'Dan Orlovsky'
p96
sg46
S'0.0'
p97
sg48
S'L23-27'
p98
sg50
S'2015'
p99
ssS'12'
p100
(dp101
g5
S'--'
p102
sg7
S'12'
p103
sg9
S'--'
p104
sg11
S'--'
p105
sg13
S'--'
p106
sg15
S'--'
p107
sg17
S'--'
p108
sg19
S'--'
p109
sg21
S'PHI'
p110
sg23
g24
sg25
S'--'
p111
sg27
S'--'
p112
sg29
S'--'
p113
sg31
g24
sg32
S'--'
p114
sg34
S'--'
p115
sg36
S'--'
p116
sg38
S'--'
p117
sg40
S'--'
p118
sg42
S'11/26'
p119
sg44
S'Dan Orlovsky'
p120
sg46
S'0.0'
p121
sg48
S'W45-14'
p122
sg50
S'2015'
p123
ssS'15'
p124
(dp125
g5
S'--'
p126
sg7
S'15'
p127
sg9
S'--'
p128
sg11
S'--'
p129
sg13
S'--'
p130
sg15
S'--'
p131
sg17
S'--'
p132
sg19
S'--'
p133
sg21
S'@NO'
p134
sg23
g24
sg25
S'--'
p135
sg27
S'--'
p136
sg29
S'--'
p137
sg31
g24
sg32
S'--'
p138
sg34
S'--'
p139
sg36
S'--'
p140
sg38
S'--'
p141
sg40
S'--'
p142
sg42
S'12/21'
p143
sg44
S'Dan Orlovsky'
p144
sg46
S'0.0'
p145
sg48
S'W35-27'
p146
sg50
S'2015'
p147
ssS'14'
p148
(dp149
g5
S'--'
p150
sg7
S'14'
p151
sg9
S'--'
p152
sg11
S'--'
p153
sg13
S'--'
p154
sg15
S'--'
p155
sg17
S'--'
p156
sg19
S'--'
p157
sg21
S'@STL'
p158
sg23
g24
sg25
S'--'
p159
sg27
S'--'
p160
sg29
S'--'
p161
sg31
g24
sg32
S'--'
p162
sg34
S'--'
p163
sg36
S'--'
p164
sg38
S'--'
p165
sg40
S'--'
p166
sg42
S'12/13'
p167
sg44
S'Dan Orlovsky'
p168
sg46
S'0.0'
p169
sg48
S'L14-21'
p170
sg50
S'2015'
p171
ssS'17'
p172
(dp173
g5
S'--'
p174
sg7
S'17'
p175
sg9
S'--'
p176
sg11
S'--'
p177
sg13
S'--'
p178
sg15
S'--'
p179
sg17
S'--'
p180
sg19
S'--'
p181
sg21
S'@CHI'
p182
sg23
g24
sg25
S'--'
p183
sg27
S'--'
p184
sg29
S'--'
p185
sg31
g24
sg32
S'--'
p186
sg34
S'--'
p187
sg36
S'--'
p188
sg38
S'--'
p189
sg40
S'--'
p190
sg42
S'01/03'
p191
sg44
S'Dan Orlovsky'
p192
sg46
S'0.0'
p193
sg48
S'W24-20'
p194
sg50
S'2015'
p195
ssS'16'
p196
(dp197
g5
S'--'
p198
sg7
S'16'
p199
sg9
S'--'
p200
sg11
S'--'
p201
sg13
S'--'
p202
sg15
S'--'
p203
sg17
S'--'
p204
sg19
S'--'
p205
sg21
S'SF'
p206
sg23
g24
sg25
S'--'
p207
sg27
S'--'
p208
sg29
S'--'
p209
sg31
g24
sg32
S'--'
p210
sg34
S'--'
p211
sg36
S'--'
p212
sg38
S'--'
p213
sg40
S'--'
p214
sg42
S'12/27'
p215
sg44
S'Dan Orlovsky'
p216
sg46
S'0.0'
p217
sg48
S'W32-17'
p218
sg50
S'2015'
p219
ssS'1'
p220
(dp221
g5
S'--'
p222
sg7
g220
sg9
S'--'
p223
sg11
S'--'
p224
sg13
S'--'
p225
sg15
S'--'
p226
sg17
S'--'
p227
sg19
S'--'
p228
sg21
S'@SD'
p229
sg23
g24
sg25
S'--'
p230
sg27
S'--'
p231
sg29
S'--'
p232
sg31
g24
sg32
S'--'
p233
sg34
S'--'
p234
sg36
S'--'
p235
sg38
S'--'
p236
sg40
S'--'
p237
sg42
S'09/13'
p238
sg44
S'Dan Orlovsky'
p239
sg46
S'0.0'
p240
sg48
S'L28-33'
p241
sg50
S'2015'
p242
ssS'3'
p243
(dp244
g5
S'--'
p245
sg7
g243
sg9
S'--'
p246
sg11
S'--'
p247
sg13
S'--'
p248
sg15
S'--'
p249
sg17
S'--'
p250
sg19
S'--'
p251
sg21
S'DEN'
p252
sg23
g24
sg25
S'--'
p253
sg27
S'--'
p254
sg29
S'--'
p255
sg31
g24
sg32
S'--'
p256
sg34
S'--'
p257
sg36
S'--'
p258
sg38
S'--'
p259
sg40
S'--'
p260
sg42
S'09/27'
p261
sg44
S'Dan Orlovsky'
p262
sg46
S'0.0'
p263
sg48
S'L12-24'
p264
sg50
S'2015'
p265
ssS'2'
p266
(dp267
g5
S'--'
p268
sg7
g266
sg9
S'--'
p269
sg11
S'--'
p270
sg13
S'--'
p271
sg15
S'--'
p272
sg17
S'--'
p273
sg19
S'--'
p274
sg21
S'@MIN'
p275
sg23
g24
sg25
S'--'
p276
sg27
S'--'
p277
sg29
S'--'
p278
sg31
g24
sg32
S'--'
p279
sg34
S'--'
p280
sg36
S'--'
p281
sg38
S'--'
p282
sg40
S'--'
p283
sg42
S'09/20'
p284
sg44
S'Dan Orlovsky'
p285
sg46
S'0.0'
p286
sg48
S'L16-26'
p287
sg50
S'2015'
p288
ssS'5'
p289
(dp290
g5
S'38'
p291
sg7
g289
sg9
S'--'
p292
sg11
S'55.3'
p293
sg13
S'--'
p294
sg15
S'191'
p295
sg17
S'5.0'
p296
sg19
S'--'
p297
sg21
S'ARI'
p298
sg23
g220
sg25
S'21'
p299
sg27
g24
sg29
S'--'
p300
sg31
g24
sg32
S'--'
p301
sg34
S'--'
p302
sg36
g220
sg38
g24
sg40
g220
sg42
S'10/11'
p303
sg44
S'Dan Orlovsky'
p304
sg46
S'66.9'
p305
sg48
S'L17-42'
p306
sg50
S'2015'
p307
ssS'4'
p308
(dp309
g5
S'--'
p310
sg7
g308
sg9
S'--'
p311
sg11
S'--'
p312
sg13
S'--'
p313
sg15
S'--'
p314
sg17
S'--'
p315
sg19
S'--'
p316
sg21
S'@SEA'
p317
sg23
g24
sg25
S'--'
p318
sg27
S'--'
p319
sg29
S'--'
p320
sg31
g24
sg32
S'--'
p321
sg34
S'--'
p322
sg36
S'--'
p323
sg38
S'--'
p324
sg40
S'--'
p325
sg42
S'10/05'
p326
sg44
S'Dan Orlovsky'
p327
sg46
S'0.0'
p328
sg48
S'L10-13'
p329
sg50
S'2015'
p330
ssS'7'
p331
(dp332
g5
S'--'
p333
sg7
g331
sg9
S'--'
p334
sg11
S'--'
p335
sg13
S'--'
p336
sg15
S'--'
p337
sg17
S'--'
p338
sg19
S'--'
p339
sg21
S'MIN'
p340
sg23
g24
sg25
S'--'
p341
sg27
S'--'
p342
sg29
S'--'
p343
sg31
g24
sg32
S'--'
p344
sg34
S'--'
p345
sg36
S'--'
p346
sg38
S'--'
p347
sg40
S'--'
p348
sg42
S'10/25'
p349
sg44
S'Dan Orlovsky'
p350
sg46
S'0.0'
p351
sg48
S'L19-28'
p352
sg50
S'2015'
p353
ssS'6'
p354
(dp355
g5
S'--'
p356
sg7
g354
sg9
S'--'
p357
sg11
S'--'
p358
sg13
S'--'
p359
sg15
S'--'
p360
sg17
S'--'
p361
sg19
S'--'
p362
sg21
S'CHI'
p363
sg23
g24
sg25
S'--'
p364
sg27
S'--'
p365
sg29
S'--'
p366
sg31
g24
sg32
S'--'
p367
sg34
S'--'
p368
sg36
S'--'
p369
sg38
S'--'
p370
sg40
S'--'
p371
sg42
S'10/18'
p372
sg44
S'Dan Orlovsky'
p373
sg46
S'0.0'
p374
sg48
S'W37-34'
p375
sg50
S'2015'
p376
ssS'9'
p377
(dp378
g5
S''
p379
sg7
g377
sg9
g379
sg11
g379
sg13
g379
sg15
g379
sg17
g379
sg19
g379
sg21
g379
sg23
g379
sg25
g379
sg27
g379
sg29
g379
sg31
g379
sg32
g379
sg34
g379
sg36
g379
sg38
g379
sg40
g379
sg42
S'Bye'
p380
sg44
S'Dan Orlovsky'
p381
sg46
g379
sg48
g379
sg50
S'2015'
p382
ssS'8'
p383
(dp384
g5
g266
sg7
g383
sg9
S'--'
p385
sg11
S'50.0'
p386
sg13
S'--'
p387
sg15
S'10'
p388
sg17
S'5.0'
p389
sg19
S'--'
p390
sg21
S'@KC'
p391
sg23
g220
sg25
g220
sg27
g24
sg29
S'--'
p392
sg31
g24
sg32
S'--'
p393
sg34
S'--'
p394
sg36
g24
sg38
g24
sg40
g24
sg42
S'11/01'
p395
sg44
S'Dan Orlovsky'
p396
sg46
S'64.6'
p397
sg48
S'L10-45'
p398
sg50
S'2015'
p399
sssS'2014'
p400
(dp401
g3
(dp402
g5
S'--'
p403
sg7
S'11'
p404
sg9
S'--'
p405
sg11
S'--'
p406
sg13
S'--'
p407
sg15
S'--'
p408
sg17
S'--'
p409
sg19
S'--'
p410
sg21
S'@ARI'
p411
sg23
g24
sg25
S'--'
p412
sg27
S'--'
p413
sg29
S'--'
p414
sg31
g24
sg32
S'--'
p415
sg34
S'--'
p416
sg36
S'--'
p417
sg38
S'--'
p418
sg40
S'--'
p419
sg42
S'11/16'
p420
sg44
S'Dan Orlovsky'
p421
sg46
S'0.0'
p422
sg48
S'L6-14'
p423
sg50
S'2014'
p424
ssg52
(dp425
g5
S'--'
p426
sg7
S'10'
p427
sg9
S'--'
p428
sg11
S'--'
p429
sg13
S'--'
p430
sg15
S'--'
p431
sg17
S'--'
p432
sg19
S'--'
p433
sg21
S'MIA'
p434
sg23
g24
sg25
S'--'
p435
sg27
S'--'
p436
sg29
S'--'
p437
sg31
g24
sg32
S'--'
p438
sg34
S'--'
p439
sg36
S'--'
p440
sg38
S'--'
p441
sg40
S'--'
p442
sg42
S'11/09'
p443
sg44
S'Dan Orlovsky'
p444
sg46
S'0.0'
p445
sg48
S'W20-16'
p446
sg50
S'2014'
p447
ssg76
(dp448
g5
S'--'
p449
sg7
S'13'
p450
sg9
S'--'
p451
sg11
S'--'
p452
sg13
S'--'
p453
sg15
S'--'
p454
sg17
S'--'
p455
sg19
S'--'
p456
sg21
S'CHI'
p457
sg23
g24
sg25
S'--'
p458
sg27
S'--'
p459
sg29
S'--'
p460
sg31
g24
sg32
S'--'
p461
sg34
S'--'
p462
sg36
S'--'
p463
sg38
S'--'
p464
sg40
S'--'
p465
sg42
S'11/27'
p466
sg44
S'Dan Orlovsky'
p467
sg46
S'0.0'
p468
sg48
S'W34-17'
p469
sg50
S'2014'
p470
ssg100
(dp471
g5
S'--'
p472
sg7
S'12'
p473
sg9
S'--'
p474
sg11
S'--'
p475
sg13
S'--'
p476
sg15
S'--'
p477
sg17
S'--'
p478
sg19
S'--'
p479
sg21
S'@NE'
p480
sg23
g24
sg25
S'--'
p481
sg27
S'--'
p482
sg29
S'--'
p483
sg31
g24
sg32
S'--'
p484
sg34
S'--'
p485
sg36
S'--'
p486
sg38
S'--'
p487
sg40
S'--'
p488
sg42
S'11/23'
p489
sg44
S'Dan Orlovsky'
p490
sg46
S'0.0'
p491
sg48
S'L9-34'
p492
sg50
S'2014'
p493
ssg124
(dp494
g5
S'--'
p495
sg7
S'15'
p496
sg9
S'--'
p497
sg11
S'--'
p498
sg13
S'--'
p499
sg15
S'--'
p500
sg17
S'--'
p501
sg19
S'--'
p502
sg21
S'MIN'
p503
sg23
g24
sg25
S'--'
p504
sg27
S'--'
p505
sg29
S'--'
p506
sg31
g24
sg32
S'--'
p507
sg34
S'--'
p508
sg36
S'--'
p509
sg38
S'--'
p510
sg40
S'--'
p511
sg42
S'12/14'
p512
sg44
S'Dan Orlovsky'
p513
sg46
S'0.0'
p514
sg48
S'W16-14'
p515
sg50
S'2014'
p516
ssg148
(dp517
g5
S'--'
p518
sg7
S'14'
p519
sg9
S'--'
p520
sg11
S'--'
p521
sg13
S'--'
p522
sg15
S'--'
p523
sg17
S'--'
p524
sg19
S'--'
p525
sg21
S'TB'
p526
sg23
g24
sg25
S'--'
p527
sg27
S'--'
p528
sg29
S'--'
p529
sg31
g24
sg32
S'--'
p530
sg34
S'--'
p531
sg36
S'--'
p532
sg38
S'--'
p533
sg40
S'--'
p534
sg42
S'12/07'
p535
sg44
S'Dan Orlovsky'
p536
sg46
S'0.0'
p537
sg48
S'W34-17'
p538
sg50
S'2014'
p539
ssg172
(dp540
g5
S'--'
p541
sg7
S'17'
p542
sg9
S'--'
p543
sg11
S'--'
p544
sg13
S'--'
p545
sg15
S'--'
p546
sg17
S'--'
p547
sg19
S'--'
p548
sg21
S'@GB'
p549
sg23
g24
sg25
S'--'
p550
sg27
S'--'
p551
sg29
S'--'
p552
sg31
g24
sg32
S'--'
p553
sg34
S'--'
p554
sg36
S'--'
p555
sg38
S'--'
p556
sg40
S'--'
p557
sg42
S'12/28'
p558
sg44
S'Dan Orlovsky'
p559
sg46
S'0.0'
p560
sg48
S'L20-30'
p561
sg50
S'2014'
p562
ssg196
(dp563
g5
S'--'
p564
sg7
S'16'
p565
sg9
S'--'
p566
sg11
S'--'
p567
sg13
S'--'
p568
sg15
S'--'
p569
sg17
S'--'
p570
sg19
S'--'
p571
sg21
S'@CHI'
p572
sg23
g24
sg25
S'--'
p573
sg27
S'--'
p574
sg29
S'--'
p575
sg31
g24
sg32
S'--'
p576
sg34
S'--'
p577
sg36
S'--'
p578
sg38
S'--'
p579
sg40
S'--'
p580
sg42
S'12/21'
p581
sg44
S'Dan Orlovsky'
p582
sg46
S'0.0'
p583
sg48
S'W20-14'
p584
sg50
S'2014'
p585
ssg220
(dp586
g5
S'--'
p587
sg7
g220
sg9
S'--'
p588
sg11
S'--'
p589
sg13
S'--'
p590
sg15
S'--'
p591
sg17
S'--'
p592
sg19
S'--'
p593
sg21
S'NYG'
p594
sg23
g24
sg25
S'--'
p595
sg27
S'--'
p596
sg29
S'--'
p597
sg31
g24
sg32
S'--'
p598
sg34
S'--'
p599
sg36
S'--'
p600
sg38
S'--'
p601
sg40
S'--'
p602
sg42
S'09/08'
p603
sg44
S'Dan Orlovsky'
p604
sg46
S'0.0'
p605
sg48
S'W35-14'
p606
sg50
S'2014'
p607
ssg243
(dp608
g5
S'--'
p609
sg7
g243
sg9
S'--'
p610
sg11
S'--'
p611
sg13
S'--'
p612
sg15
S'--'
p613
sg17
S'--'
p614
sg19
S'--'
p615
sg21
S'GB'
p616
sg23
g24
sg25
S'--'
p617
sg27
S'--'
p618
sg29
S'--'
p619
sg31
g24
sg32
S'--'
p620
sg34
S'--'
p621
sg36
S'--'
p622
sg38
S'--'
p623
sg40
S'--'
p624
sg42
S'09/21'
p625
sg44
S'Dan Orlovsky'
p626
sg46
S'0.0'
p627
sg48
S'W19-7'
p628
sg50
S'2014'
p629
ssg266
(dp630
g5
S'--'
p631
sg7
g266
sg9
S'--'
p632
sg11
S'--'
p633
sg13
S'--'
p634
sg15
S'--'
p635
sg17
S'--'
p636
sg19
S'--'
p637
sg21
S'@CAR'
p638
sg23
g24
sg25
S'--'
p639
sg27
S'--'
p640
sg29
S'--'
p641
sg31
g24
sg32
S'--'
p642
sg34
S'--'
p643
sg36
S'--'
p644
sg38
S'--'
p645
sg40
S'--'
p646
sg42
S'09/14'
p647
sg44
S'Dan Orlovsky'
p648
sg46
S'0.0'
p649
sg48
S'L7-24'
p650
sg50
S'2014'
p651
ssg289
(dp652
g5
S'--'
p653
sg7
g289
sg9
S'--'
p654
sg11
S'--'
p655
sg13
S'--'
p656
sg15
S'--'
p657
sg17
S'--'
p658
sg19
S'--'
p659
sg21
S'BUF'
p660
sg23
g24
sg25
S'--'
p661
sg27
S'--'
p662
sg29
S'--'
p663
sg31
g24
sg32
S'--'
p664
sg34
S'--'
p665
sg36
S'--'
p666
sg38
S'--'
p667
sg40
S'--'
p668
sg42
S'10/05'
p669
sg44
S'Dan Orlovsky'
p670
sg46
S'0.0'
p671
sg48
S'L14-17'
p672
sg50
S'2014'
p673
ssg308
(dp674
g5
S'--'
p675
sg7
g308
sg9
S'--'
p676
sg11
S'--'
p677
sg13
S'--'
p678
sg15
S'--'
p679
sg17
S'--'
p680
sg19
S'--'
p681
sg21
S'@NYJ'
p682
sg23
g24
sg25
S'--'
p683
sg27
S'--'
p684
sg29
S'--'
p685
sg31
g24
sg32
S'--'
p686
sg34
S'--'
p687
sg36
S'--'
p688
sg38
S'--'
p689
sg40
S'--'
p690
sg42
S'09/28'
p691
sg44
S'Dan Orlovsky'
p692
sg46
S'0.0'
p693
sg48
S'W24-17'
p694
sg50
S'2014'
p695
ssg331
(dp696
g5
S'--'
p697
sg7
g331
sg9
S'--'
p698
sg11
S'--'
p699
sg13
S'--'
p700
sg15
S'--'
p701
sg17
S'--'
p702
sg19
S'--'
p703
sg21
S'NO'
p704
sg23
g24
sg25
S'--'
p705
sg27
S'--'
p706
sg29
S'--'
p707
sg31
g24
sg32
S'--'
p708
sg34
S'--'
p709
sg36
S'--'
p710
sg38
S'--'
p711
sg40
S'--'
p712
sg42
S'10/19'
p713
sg44
S'Dan Orlovsky'
p714
sg46
S'0.0'
p715
sg48
S'W24-23'
p716
sg50
S'2014'
p717
ssg354
(dp718
g5
S'--'
p719
sg7
g354
sg9
S'--'
p720
sg11
S'--'
p721
sg13
S'--'
p722
sg15
S'--'
p723
sg17
S'--'
p724
sg19
S'--'
p725
sg21
S'@MIN'
p726
sg23
g24
sg25
S'--'
p727
sg27
S'--'
p728
sg29
S'--'
p729
sg31
g24
sg32
S'--'
p730
sg34
S'--'
p731
sg36
S'--'
p732
sg38
S'--'
p733
sg40
S'--'
p734
sg42
S'10/12'
p735
sg44
S'Dan Orlovsky'
p736
sg46
S'0.0'
p737
sg48
S'W17-3'
p738
sg50
S'2014'
p739
ssg377
(dp740
g5
g379
sg7
g377
sg9
g379
sg11
g379
sg13
g379
sg15
g379
sg17
g379
sg19
g379
sg21
g379
sg23
g379
sg25
g379
sg27
g379
sg29
g379
sg31
g379
sg32
g379
sg34
g379
sg36
g379
sg38
g379
sg40
g379
sg42
S'Bye'
p741
sg44
S'Dan Orlovsky'
p742
sg46
g379
sg48
g379
sg50
S'2014'
p743
ssg383
(dp744
g5
S'--'
p745
sg7
g383
sg9
S'--'
p746
sg11
S'--'
p747
sg13
S'--'
p748
sg15
S'--'
p749
sg17
S'--'
p750
sg19
S'--'
p751
sg21
S'@ATL'
p752
sg23
g24
sg25
S'--'
p753
sg27
S'--'
p754
sg29
S'--'
p755
sg31
g24
sg32
S'--'
p756
sg34
S'--'
p757
sg36
S'--'
p758
sg38
S'--'
p759
sg40
S'--'
p760
sg42
S'10/26'
p761
sg44
S'Dan Orlovsky'
p762
sg46
S'0.0'
p763
sg48
S'W22-21'
p764
sg50
S'2014'
p765
sssS'2011'
p766
(dp767
g3
(dp768
g5
g379
sg7
S'11'
p769
sg9
g379
sg11
g379
sg13
g379
sg15
g379
sg17
g379
sg19
g379
sg21
g379
sg23
g379
sg25
g379
sg27
g379
sg29
g379
sg31
g379
sg32
g379
sg34
g379
sg36
g379
sg38
g379
sg40
g379
sg42
S'Bye'
p770
sg44
S'Dan Orlovsky'
p771
sg46
g379
sg48
g379
sg50
S'2011'
p772
ssg52
(dp773
g5
S'10'
p774
sg7
S'10'
p775
sg9
S'--'
p776
sg11
S'70.0'
p777
sg13
S'--'
p778
sg15
S'67'
p779
sg17
S'6.7'
p780
sg19
g220
sg21
S'JAC'
p781
sg23
g220
sg25
g331
sg27
g377
sg29
S'--'
p782
sg31
g24
sg32
g220
sg34
S'--'
p783
sg36
g24
sg38
g266
sg40
g24
sg42
S'11/13'
p784
sg44
S'Dan Orlovsky'
p785
sg46
S'88.3'
p786
sg48
S'L3-17'
p787
sg50
S'2011'
p788
ssg76
(dp789
g5
S'37'
p790
sg7
S'13'
p791
sg9
S'-1.0'
p792
sg11
S'81.1'
p793
sg13
g220
sg15
S'353'
p794
sg17
S'9.5'
p795
sg19
S'--'
p796
sg21
S'@NE'
p797
sg23
g220
sg25
S'30'
p798
sg27
S'15'
p799
sg29
S'-1'
p800
sg31
g220
sg32
S'--'
p801
sg34
g24
sg36
g266
sg38
g266
sg40
g220
sg42
S'12/04'
p802
sg44
S'Dan Orlovsky'
p803
sg46
S'113.2'
p804
sg48
S'L24-31'
p805
sg50
S'2011'
p806
ssg100
(dp807
g5
S'--'
p808
sg7
S'12'
p809
sg9
S'--'
p810
sg11
S'--'
p811
sg13
S'--'
p812
sg15
S'--'
p813
sg17
S'--'
p814
sg19
S'--'
p815
sg21
S'CAR'
p816
sg23
g24
sg25
S'--'
p817
sg27
S'--'
p818
sg29
S'--'
p819
sg31
g24
sg32
S'--'
p820
sg34
S'--'
p821
sg36
S'--'
p822
sg38
S'--'
p823
sg40
S'--'
p824
sg42
S'11/27'
p825
sg44
S'Dan Orlovsky'
p826
sg46
S'0.0'
p827
sg48
S'L19-27'
p828
sg50
S'2011'
p829
ssg124
(dp830
g5
S'17'
p831
sg7
S'15'
p832
sg9
S'-1.0'
p833
sg11
S'64.7'
p834
sg13
g243
sg15
S'82'
p835
sg17
S'4.8'
p836
sg19
S'--'
p837
sg21
S'TEN'
p838
sg23
g220
sg25
S'11'
p839
sg27
g24
sg29
S'-3'
p840
sg31
g220
sg32
S'--'
p841
sg34
g24
sg36
g220
sg38
g24
sg40
g24
sg42
S'12/18'
p842
sg44
S'Dan Orlovsky'
p843
sg46
S'95.7'
p844
sg48
S'W27-13'
p845
sg50
S'2011'
p846
ssg148
(dp847
g5
S'37'
p848
sg7
S'14'
p849
sg9
S'--'
p850
sg11
S'45.9'
p851
sg13
S'--'
p852
sg15
S'136'
p853
sg17
S'3.7'
p854
sg19
g243
sg21
S'@BAL'
p855
sg23
g220
sg25
S'17'
p856
sg27
S'19'
p857
sg29
S'--'
p858
sg31
g220
sg32
g24
sg34
S'--'
p859
sg36
g220
sg38
g308
sg40
g220
sg42
S'12/11'
p860
sg44
S'Dan Orlovsky'
p861
sg46
S'53.4'
p862
sg48
S'L10-24'
p863
sg50
S'2011'
p864
ssg172
(dp865
g5
S'40'
p866
sg7
S'17'
p867
sg9
S'7.0'
p868
sg11
S'67.5'
p869
sg13
g220
sg15
S'264'
p870
sg17
S'6.6'
p871
sg19
g266
sg21
S'@JAC'
p872
sg23
g220
sg25
S'27'
p873
sg27
S'22'
p874
sg29
g331
sg31
g220
sg32
g220
sg34
g24
sg36
g220
sg38
g243
sg40
g266
sg42
S'01/01'
p875
sg44
S'Dan Orlovsky'
p876
sg46
S'73.3'
p877
sg48
S'L13-19'
p878
sg50
S'2011'
p879
ssg196
(dp880
g5
S'41'
p881
sg7
S'16'
p882
sg9
S'2.0'
p883
sg11
S'56.1'
p884
sg13
g220
sg15
S'244'
p885
sg17
S'6.0'
p886
sg19
g220
sg21
S'HOU'
p887
sg23
g220
sg25
S'23'
p888
sg27
S'19'
p889
sg29
g266
sg31
g220
sg32
g220
sg34
g24
sg36
g220
sg38
g243
sg40
g24
sg42
S'12/22'
p890
sg44
S'Dan Orlovsky'
p891
sg46
S'81.8'
p892
sg48
S'W19-16'
p893
sg50
S'2011'
p894
ssg289
(dp895
g5
S'--'
p896
sg7
g289
sg9
S'--'
p897
sg11
S'--'
p898
sg13
S'--'
p899
sg15
S'--'
p900
sg17
S'--'
p901
sg19
S'--'
p902
sg21
S'KC'
p903
sg23
g24
sg25
S'--'
p904
sg27
S'--'
p905
sg29
S'--'
p906
sg31
g24
sg32
S'--'
p907
sg34
S'--'
p908
sg36
S'--'
p909
sg38
S'--'
p910
sg40
S'--'
p911
sg42
S'10/09'
p912
sg44
S'Dan Orlovsky'
p913
sg46
S'0.0'
p914
sg48
S'L24-28'
p915
sg50
S'2011'
p916
ssg308
(dp917
g5
S'--'
p918
sg7
g308
sg9
S'--'
p919
sg11
S'--'
p920
sg13
S'--'
p921
sg15
S'--'
p922
sg17
S'--'
p923
sg19
S'--'
p924
sg21
S'@TB'
p925
sg23
g24
sg25
S'--'
p926
sg27
S'--'
p927
sg29
S'--'
p928
sg31
g24
sg32
S'--'
p929
sg34
S'--'
p930
sg36
S'--'
p931
sg38
S'--'
p932
sg40
S'--'
p933
sg42
S'10/03'
p934
sg44
S'Dan Orlovsky'
p935
sg46
S'0.0'
p936
sg48
S'L17-24'
p937
sg50
S'2011'
p938
ssg331
(dp939
g5
g289
sg7
g331
sg9
S'--'
p940
sg11
S'60.0'
p941
sg13
S'--'
p942
sg15
S'35'
p943
sg17
S'7.0'
p944
sg19
S'--'
p945
sg21
S'@NO'
p946
sg23
g220
sg25
g243
sg27
g24
sg29
S'--'
p947
sg31
g24
sg32
S'--'
p948
sg34
S'--'
p949
sg36
g24
sg38
g24
sg40
g24
sg42
S'10/23'
p950
sg44
S'Dan Orlovsky'
p951
sg46
S'81.2'
p952
sg48
S'L7-62'
p953
sg50
S'2011'
p954
ssg354
(dp955
g5
S'--'
p956
sg7
g354
sg9
S'--'
p957
sg11
S'--'
p958
sg13
S'--'
p959
sg15
S'--'
p960
sg17
S'--'
p961
sg19
S'--'
p962
sg21
S'@CIN'
p963
sg23
g24
sg25
S'--'
p964
sg27
S'--'
p965
sg29
S'--'
p966
sg31
g24
sg32
S'--'
p967
sg34
S'--'
p968
sg36
S'--'
p969
sg38
S'--'
p970
sg40
S'--'
p971
sg42
S'10/16'
p972
sg44
S'Dan Orlovsky'
p973
sg46
S'0.0'
p974
sg48
S'L17-27'
p975
sg50
S'2011'
p976
ssg377
(dp977
g5
g354
sg7
g377
sg9
S'--'
p978
sg11
S'66.7'
p979
sg13
S'--'
p980
sg15
S'20'
p981
sg17
S'3.3'
p982
sg19
S'--'
p983
sg21
S'ATL'
p984
sg23
g220
sg25
g308
sg27
g24
sg29
S'--'
p985
sg31
g24
sg32
S'--'
p986
sg34
S'--'
p987
sg36
g24
sg38
g24
sg40
g24
sg42
S'11/06'
p988
sg44
S'Dan Orlovsky'
p989
sg46
S'71.5'
p990
sg48
S'L7-31'
p991
sg50
S'2011'
p992
ssg383
(dp993
g5
S'--'
p994
sg7
g383
sg9
S'--'
p995
sg11
S'--'
p996
sg13
S'--'
p997
sg15
S'--'
p998
sg17
S'--'
p999
sg19
S'--'
p1000
sg21
S'@TEN'
p1001
sg23
g24
sg25
S'--'
p1002
sg27
S'--'
p1003
sg29
S'--'
p1004
sg31
g24
sg32
S'--'
p1005
sg34
S'--'
p1006
sg36
S'--'
p1007
sg38
S'--'
p1008
sg40
S'--'
p1009
sg42
S'10/30'
p1010
sg44
S'Dan Orlovsky'
p1011
sg46
S'0.0'
p1012
sg48
S'L10-27'
p1013
sg50
S'2011'
p1014
sssS'2010'
p1015
(dp1016
g3
(dp1017
g5
S'--'
p1018
sg7
S'11'
p1019
sg9
S'--'
p1020
sg11
S'--'
p1021
sg13
S'--'
p1022
sg15
S'--'
p1023
sg17
S'--'
p1024
sg19
S'--'
p1025
sg21
S'@NYJ'
p1026
sg23
g24
sg25
S'--'
p1027
sg27
S'--'
p1028
sg29
S'--'
p1029
sg31
g24
sg32
S'--'
p1030
sg34
S'--'
p1031
sg36
S'--'
p1032
sg38
S'--'
p1033
sg40
S'--'
p1034
sg42
S'11/21'
p1035
sg44
S'Dan Orlovsky'
p1036
sg46
S'0.0'
p1037
sg48
S'L27-30'
p1038
sg50
S'2010'
p1039
ssg52
(dp1040
g5
S'--'
p1041
sg7
S'10'
p1042
sg9
S'--'
p1043
sg11
S'--'
p1044
sg13
S'--'
p1045
sg15
S'--'
p1046
sg17
S'--'
p1047
sg19
S'--'
p1048
sg21
S'@JAC'
p1049
sg23
g24
sg25
S'--'
p1050
sg27
S'--'
p1051
sg29
S'--'
p1052
sg31
g24
sg32
S'--'
p1053
sg34
S'--'
p1054
sg36
S'--'
p1055
sg38
S'--'
p1056
sg40
S'--'
p1057
sg42
S'11/14'
p1058
sg44
S'Dan Orlovsky'
p1059
sg46
S'0.0'
p1060
sg48
S'L24-31'
p1061
sg50
S'2010'
p1062
ssg76
(dp1063
g5
S'--'
p1064
sg7
S'13'
p1065
sg9
S'--'
p1066
sg11
S'--'
p1067
sg13
S'--'
p1068
sg15
S'--'
p1069
sg17
S'--'
p1070
sg19
S'--'
p1071
sg21
S'@PHI'
p1072
sg23
g220
sg25
S'--'
p1073
sg27
S'--'
p1074
sg29
S'--'
p1075
sg31
g24
sg32
S'--'
p1076
sg34
S'--'
p1077
sg36
S'--'
p1078
sg38
S'--'
p1079
sg40
S'--'
p1080
sg42
S'12/02'
p1081
sg44
S'Dan Orlovsky'
p1082
sg46
S'0.0'
p1083
sg48
S'L24-34'
p1084
sg50
S'2010'
p1085
ssg100
(dp1086
g5
S'--'
p1087
sg7
S'12'
p1088
sg9
S'--'
p1089
sg11
S'--'
p1090
sg13
S'--'
p1091
sg15
S'--'
p1092
sg17
S'--'
p1093
sg19
S'--'
p1094
sg21
S'TEN'
p1095
sg23
g24
sg25
S'--'
p1096
sg27
S'--'
p1097
sg29
S'--'
p1098
sg31
g24
sg32
S'--'
p1099
sg34
S'--'
p1100
sg36
S'--'
p1101
sg38
S'--'
p1102
sg40
S'--'
p1103
sg42
S'11/28'
p1104
sg44
S'Dan Orlovsky'
p1105
sg46
S'0.0'
p1106
sg48
S'W20-0'
p1107
sg50
S'2010'
p1108
ssg124
(dp1109
g5
S'--'
p1110
sg7
S'15'
p1111
sg9
S'--'
p1112
sg11
S'--'
p1113
sg13
S'--'
p1114
sg15
S'--'
p1115
sg17
S'--'
p1116
sg19
S'--'
p1117
sg21
S'@TEN'
p1118
sg23
g24
sg25
S'--'
p1119
sg27
S'--'
p1120
sg29
S'--'
p1121
sg31
g24
sg32
S'--'
p1122
sg34
S'--'
p1123
sg36
S'--'
p1124
sg38
S'--'
p1125
sg40
S'--'
p1126
sg42
S'12/19'
p1127
sg44
S'Dan Orlovsky'
p1128
sg46
S'0.0'
p1129
sg48
S'L17-31'
p1130
sg50
S'2010'
p1131
ssg148
(dp1132
g5
S'--'
p1133
sg7
S'14'
p1134
sg9
S'--'
p1135
sg11
S'--'
p1136
sg13
S'--'
p1137
sg15
S'--'
p1138
sg17
S'--'
p1139
sg19
S'--'
p1140
sg21
S'BAL'
p1141
sg23
g24
sg25
S'--'
p1142
sg27
S'--'
p1143
sg29
S'--'
p1144
sg31
g24
sg32
S'--'
p1145
sg34
S'--'
p1146
sg36
S'--'
p1147
sg38
S'--'
p1148
sg40
S'--'
p1149
sg42
S'12/13'
p1150
sg44
S'Dan Orlovsky'
p1151
sg46
S'0.0'
p1152
sg48
S'L28-34'
p1153
sg50
S'2010'
p1154
ssg172
(dp1155
g5
S'--'
p1156
sg7
S'17'
p1157
sg9
S'--'
p1158
sg11
S'--'
p1159
sg13
S'--'
p1160
sg15
S'--'
p1161
sg17
S'--'
p1162
sg19
S'--'
p1163
sg21
S'JAC'
p1164
sg23
g24
sg25
S'--'
p1165
sg27
S'--'
p1166
sg29
S'--'
p1167
sg31
g24
sg32
S'--'
p1168
sg34
S'--'
p1169
sg36
S'--'
p1170
sg38
S'--'
p1171
sg40
S'--'
p1172
sg42
S'01/02'
p1173
sg44
S'Dan Orlovsky'
p1174
sg46
S'0.0'
p1175
sg48
S'W34-17'
p1176
sg50
S'2010'
p1177
ssg196
(dp1178
g5
S'--'
p1179
sg7
S'16'
p1180
sg9
S'--'
p1181
sg11
S'--'
p1182
sg13
S'--'
p1183
sg15
S'--'
p1184
sg17
S'--'
p1185
sg19
S'--'
p1186
sg21
S'@DEN'
p1187
sg23
g24
sg25
S'--'
p1188
sg27
S'--'
p1189
sg29
S'--'
p1190
sg31
g24
sg32
S'--'
p1191
sg34
S'--'
p1192
sg36
S'--'
p1193
sg38
S'--'
p1194
sg40
S'--'
p1195
sg42
S'12/26'
p1196
sg44
S'Dan Orlovsky'
p1197
sg46
S'0.0'
p1198
sg48
S'L23-24'
p1199
sg50
S'2010'
p1200
ssg220
(dp1201
g5
S'--'
p1202
sg7
g220
sg9
S'--'
p1203
sg11
S'--'
p1204
sg13
S'--'
p1205
sg15
S'--'
p1206
sg17
S'--'
p1207
sg19
S'--'
p1208
sg21
S'IND'
p1209
sg23
g24
sg25
S'--'
p1210
sg27
S'--'
p1211
sg29
S'--'
p1212
sg31
g24
sg32
S'--'
p1213
sg34
S'--'
p1214
sg36
S'--'
p1215
sg38
S'--'
p1216
sg40
S'--'
p1217
sg42
S'09/12'
p1218
sg44
S'Dan Orlovsky'
p1219
sg46
S'0.0'
p1220
sg48
S'W34-24'
p1221
sg50
S'2010'
p1222
ssg243
(dp1223
g5
S'--'
p1224
sg7
g243
sg9
S'--'
p1225
sg11
S'--'
p1226
sg13
S'--'
p1227
sg15
S'--'
p1228
sg17
S'--'
p1229
sg19
S'--'
p1230
sg21
S'DAL'
p1231
sg23
g24
sg25
S'--'
p1232
sg27
S'--'
p1233
sg29
S'--'
p1234
sg31
g24
sg32
S'--'
p1235
sg34
S'--'
p1236
sg36
S'--'
p1237
sg38
S'--'
p1238
sg40
S'--'
p1239
sg42
S'09/26'
p1240
sg44
S'Dan Orlovsky'
p1241
sg46
S'0.0'
p1242
sg48
S'L13-27'
p1243
sg50
S'2010'
p1244
ssg266
(dp1245
g5
S'--'
p1246
sg7
g266
sg9
S'--'
p1247
sg11
S'--'
p1248
sg13
S'--'
p1249
sg15
S'--'
p1250
sg17
S'--'
p1251
sg19
S'--'
p1252
sg21
S'@WAS'
p1253
sg23
g24
sg25
S'--'
p1254
sg27
S'--'
p1255
sg29
S'--'
p1256
sg31
g24
sg32
S'--'
p1257
sg34
S'--'
p1258
sg36
S'--'
p1259
sg38
S'--'
p1260
sg40
S'--'
p1261
sg42
S'09/19'
p1262
sg44
S'Dan Orlovsky'
p1263
sg46
S'0.0'
p1264
sg48
S'W30-27'
p1265
sg50
S'2010'
p1266
ssg289
(dp1267
g5
S'--'
p1268
sg7
g289
sg9
S'--'
p1269
sg11
S'--'
p1270
sg13
S'--'
p1271
sg15
S'--'
p1272
sg17
S'--'
p1273
sg19
S'--'
p1274
sg21
S'NYG'
p1275
sg23
g24
sg25
S'--'
p1276
sg27
S'--'
p1277
sg29
S'--'
p1278
sg31
g24
sg32
S'--'
p1279
sg34
S'--'
p1280
sg36
S'--'
p1281
sg38
S'--'
p1282
sg40
S'--'
p1283
sg42
S'10/10'
p1284
sg44
S'Dan Orlovsky'
p1285
sg46
S'0.0'
p1286
sg48
S'L10-34'
p1287
sg50
S'2010'
p1288
ssg308
(dp1289
g5
S'--'
p1290
sg7
g308
sg9
S'--'
p1291
sg11
S'--'
p1292
sg13
S'--'
p1293
sg15
S'--'
p1294
sg17
S'--'
p1295
sg19
S'--'
p1296
sg21
S'@OAK'
p1297
sg23
g24
sg25
S'--'
p1298
sg27
S'--'
p1299
sg29
S'--'
p1300
sg31
g24
sg32
S'--'
p1301
sg34
S'--'
p1302
sg36
S'--'
p1303
sg38
S'--'
p1304
sg40
S'--'
p1305
sg42
S'10/03'
p1306
sg44
S'Dan Orlovsky'
p1307
sg46
S'0.0'
p1308
sg48
S'W31-24'
p1309
sg50
S'2010'
p1310
ssg331
(dp1311
g5
g379
sg7
g331
sg9
g379
sg11
g379
sg13
g379
sg15
g379
sg17
g379
sg19
g379
sg21
g379
sg23
g379
sg25
g379
sg27
g379
sg29
g379
sg31
g379
sg32
g379
sg34
g379
sg36
g379
sg38
g379
sg40
g379
sg42
S'Bye'
p1312
sg44
S'Dan Orlovsky'
p1313
sg46
g379
sg48
g379
sg50
S'2010'
p1314
ssg354
(dp1315
g5
S'--'
p1316
sg7
g354
sg9
S'--'
p1317
sg11
S'--'
p1318
sg13
S'--'
p1319
sg15
S'--'
p1320
sg17
S'--'
p1321
sg19
S'--'
p1322
sg21
S'KC'
p1323
sg23
g24
sg25
S'--'
p1324
sg27
S'--'
p1325
sg29
S'--'
p1326
sg31
g24
sg32
S'--'
p1327
sg34
S'--'
p1328
sg36
S'--'
p1329
sg38
S'--'
p1330
sg40
S'--'
p1331
sg42
S'10/17'
p1332
sg44
S'Dan Orlovsky'
p1333
sg46
S'0.0'
p1334
sg48
S'W35-31'
p1335
sg50
S'2010'
p1336
ssg377
(dp1337
g5
S'--'
p1338
sg7
g377
sg9
S'--'
p1339
sg11
S'--'
p1340
sg13
S'--'
p1341
sg15
S'--'
p1342
sg17
S'--'
p1343
sg19
S'--'
p1344
sg21
S'SD'
p1345
sg23
g24
sg25
S'--'
p1346
sg27
S'--'
p1347
sg29
S'--'
p1348
sg31
g24
sg32
S'--'
p1349
sg34
S'--'
p1350
sg36
S'--'
p1351
sg38
S'--'
p1352
sg40
S'--'
p1353
sg42
S'11/07'
p1354
sg44
S'Dan Orlovsky'
p1355
sg46
S'0.0'
p1356
sg48
S'L23-29'
p1357
sg50
S'2010'
p1358
ssg383
(dp1359
g5
S'--'
p1360
sg7
g383
sg9
S'--'
p1361
sg11
S'--'
p1362
sg13
S'--'
p1363
sg15
S'--'
p1364
sg17
S'--'
p1365
sg19
S'--'
p1366
sg21
S'@IND'
p1367
sg23
g24
sg25
S'--'
p1368
sg27
S'--'
p1369
sg29
S'--'
p1370
sg31
g24
sg32
S'--'
p1371
sg34
S'--'
p1372
sg36
S'--'
p1373
sg38
S'--'
p1374
sg40
S'--'
p1375
sg42
S'11/01'
p1376
sg44
S'Dan Orlovsky'
p1377
sg46
S'0.0'
p1378
sg48
S'L17-30'
p1379
sg50
S'2010'
p1380
sssS'2013'
p1381
(dp1382
g3
(dp1383
g5
S'--'
p1384
sg7
S'11'
p1385
sg9
S'--'
p1386
sg11
S'--'
p1387
sg13
S'--'
p1388
sg15
S'--'
p1389
sg17
S'--'
p1390
sg19
S'--'
p1391
sg21
S'ATL'
p1392
sg23
g220
sg25
S'--'
p1393
sg27
S'--'
p1394
sg29
S'--'
p1395
sg31
g24
sg32
S'--'
p1396
sg34
S'--'
p1397
sg36
S'--'
p1398
sg38
S'--'
p1399
sg40
S'--'
p1400
sg42
S'11/17'
p1401
sg44
S'Dan Orlovsky'
p1402
sg46
S'0.0'
p1403
sg48
S'W41-28'
p1404
sg50
S'2013'
p1405
ssg52
(dp1406
g5
S'--'
p1407
sg7
S'10'
p1408
sg9
S'--'
p1409
sg11
S'--'
p1410
sg13
S'--'
p1411
sg15
S'--'
p1412
sg17
S'--'
p1413
sg19
S'--'
p1414
sg21
S'MIA'
p1415
sg23
g24
sg25
S'--'
p1416
sg27
S'--'
p1417
sg29
S'--'
p1418
sg31
g24
sg32
S'--'
p1419
sg34
S'--'
p1420
sg36
S'--'
p1421
sg38
S'--'
p1422
sg40
S'--'
p1423
sg42
S'11/11'
p1424
sg44
S'Dan Orlovsky'
p1425
sg46
S'0.0'
p1426
sg48
S'W22-19'
p1427
sg50
S'2013'
p1428
ssg76
(dp1429
g5
S'--'
p1430
sg7
S'13'
p1431
sg9
S'--'
p1432
sg11
S'--'
p1433
sg13
S'--'
p1434
sg15
S'--'
p1435
sg17
S'--'
p1436
sg19
S'--'
p1437
sg21
S'@CAR'
p1438
sg23
g24
sg25
S'--'
p1439
sg27
S'--'
p1440
sg29
S'--'
p1441
sg31
g24
sg32
S'--'
p1442
sg34
S'--'
p1443
sg36
S'--'
p1444
sg38
S'--'
p1445
sg40
S'--'
p1446
sg42
S'12/01'
p1447
sg44
S'Dan Orlovsky'
p1448
sg46
S'0.0'
p1449
sg48
S'L6-27'
p1450
sg50
S'2013'
p1451
ssg100
(dp1452
g5
S'--'
p1453
sg7
S'12'
p1454
sg9
S'--'
p1455
sg11
S'--'
p1456
sg13
S'--'
p1457
sg15
S'--'
p1458
sg17
S'--'
p1459
sg19
S'--'
p1460
sg21
S'@DET'
p1461
sg23
g24
sg25
S'--'
p1462
sg27
S'--'
p1463
sg29
S'--'
p1464
sg31
g24
sg32
S'--'
p1465
sg34
S'--'
p1466
sg36
S'--'
p1467
sg38
S'--'
p1468
sg40
S'--'
p1469
sg42
S'11/24'
p1470
sg44
S'Dan Orlovsky'
p1471
sg46
S'0.0'
p1472
sg48
S'W24-21'
p1473
sg50
S'2013'
p1474
ssg124
(dp1475
g5
S'--'
p1476
sg7
S'15'
p1477
sg9
S'--'
p1478
sg11
S'--'
p1479
sg13
S'--'
p1480
sg15
S'--'
p1481
sg17
S'--'
p1482
sg19
S'--'
p1483
sg21
S'SF'
p1484
sg23
g24
sg25
S'--'
p1485
sg27
S'--'
p1486
sg29
S'--'
p1487
sg31
g24
sg32
S'--'
p1488
sg34
S'--'
p1489
sg36
S'--'
p1490
sg38
S'--'
p1491
sg40
S'--'
p1492
sg42
S'12/15'
p1493
sg44
S'Dan Orlovsky'
p1494
sg46
S'0.0'
p1495
sg48
S'L14-33'
p1496
sg50
S'2013'
p1497
ssg148
(dp1498
g5
S'--'
p1499
sg7
S'14'
p1500
sg9
S'--'
p1501
sg11
S'--'
p1502
sg13
S'--'
p1503
sg15
S'--'
p1504
sg17
S'--'
p1505
sg19
S'--'
p1506
sg21
S'BUF'
p1507
sg23
g24
sg25
S'--'
p1508
sg27
S'--'
p1509
sg29
S'--'
p1510
sg31
g24
sg32
S'--'
p1511
sg34
S'--'
p1512
sg36
S'--'
p1513
sg38
S'--'
p1514
sg40
S'--'
p1515
sg42
S'12/08'
p1516
sg44
S'Dan Orlovsky'
p1517
sg46
S'0.0'
p1518
sg48
S'W27-6'
p1519
sg50
S'2013'
p1520
ssg172
(dp1521
g5
S'--'
p1522
sg7
S'17'
p1523
sg9
S'--'
p1524
sg11
S'--'
p1525
sg13
S'--'
p1526
sg15
S'--'
p1527
sg17
S'--'
p1528
sg19
S'--'
p1529
sg21
S'@NO'
p1530
sg23
g220
sg25
S'--'
p1531
sg27
S'--'
p1532
sg29
S'--'
p1533
sg31
g24
sg32
S'--'
p1534
sg34
S'--'
p1535
sg36
S'--'
p1536
sg38
S'--'
p1537
sg40
S'--'
p1538
sg42
S'12/29'
p1539
sg44
S'Dan Orlovsky'
p1540
sg46
S'0.0'
p1541
sg48
S'L17-42'
p1542
sg50
S'2013'
p1543
ssg196
(dp1544
g5
S'--'
p1545
sg7
S'16'
p1546
sg9
S'--'
p1547
sg11
S'--'
p1548
sg13
S'--'
p1549
sg15
S'--'
p1550
sg17
S'--'
p1551
sg19
S'--'
p1552
sg21
S'@STL'
p1553
sg23
g24
sg25
S'--'
p1554
sg27
S'--'
p1555
sg29
S'--'
p1556
sg31
g24
sg32
S'--'
p1557
sg34
S'--'
p1558
sg36
S'--'
p1559
sg38
S'--'
p1560
sg40
S'--'
p1561
sg42
S'12/22'
p1562
sg44
S'Dan Orlovsky'
p1563
sg46
S'0.0'
p1564
sg48
S'L13-23'
p1565
sg50
S'2013'
p1566
ssg220
(dp1567
g5
S'--'
p1568
sg7
g220
sg9
S'--'
p1569
sg11
S'--'
p1570
sg13
S'--'
p1571
sg15
S'--'
p1572
sg17
S'--'
p1573
sg19
S'--'
p1574
sg21
S'@NYJ'
p1575
sg23
g24
sg25
S'--'
p1576
sg27
S'--'
p1577
sg29
S'--'
p1578
sg31
g24
sg32
S'--'
p1579
sg34
S'--'
p1580
sg36
S'--'
p1581
sg38
S'--'
p1582
sg40
S'--'
p1583
sg42
S'09/08'
p1584
sg44
S'Dan Orlovsky'
p1585
sg46
S'0.0'
p1586
sg48
S'L17-18'
p1587
sg50
S'2013'
p1588
ssg243
(dp1589
g5
S'--'
p1590
sg7
g243
sg9
S'--'
p1591
sg11
S'--'
p1592
sg13
S'--'
p1593
sg15
S'--'
p1594
sg17
S'--'
p1595
sg19
S'--'
p1596
sg21
S'@NE'
p1597
sg23
g24
sg25
S'--'
p1598
sg27
S'--'
p1599
sg29
S'--'
p1600
sg31
g24
sg32
S'--'
p1601
sg34
S'--'
p1602
sg36
S'--'
p1603
sg38
S'--'
p1604
sg40
S'--'
p1605
sg42
S'09/22'
p1606
sg44
S'Dan Orlovsky'
p1607
sg46
S'0.0'
p1608
sg48
S'L3-23'
p1609
sg50
S'2013'
p1610
ssg266
(dp1611
g5
S'--'
p1612
sg7
g266
sg9
S'--'
p1613
sg11
S'--'
p1614
sg13
S'--'
p1615
sg15
S'--'
p1616
sg17
S'--'
p1617
sg19
S'--'
p1618
sg21
S'NO'
p1619
sg23
g24
sg25
S'--'
p1620
sg27
S'--'
p1621
sg29
S'--'
p1622
sg31
g24
sg32
S'--'
p1623
sg34
S'--'
p1624
sg36
S'--'
p1625
sg38
S'--'
p1626
sg40
S'--'
p1627
sg42
S'09/15'
p1628
sg44
S'Dan Orlovsky'
p1629
sg46
S'0.0'
p1630
sg48
S'L14-16'
p1631
sg50
S'2013'
p1632
ssg289
(dp1633
g5
g379
sg7
g289
sg9
g379
sg11
g379
sg13
g379
sg15
g379
sg17
g379
sg19
g379
sg21
g379
sg23
g379
sg25
g379
sg27
g379
sg29
g379
sg31
g379
sg32
g379
sg34
g379
sg36
g379
sg38
g379
sg40
g379
sg42
S'Bye'
p1634
sg44
S'Dan Orlovsky'
p1635
sg46
g379
sg48
g379
sg50
S'2013'
p1636
ssg308
(dp1637
g5
S'--'
p1638
sg7
g308
sg9
S'--'
p1639
sg11
S'--'
p1640
sg13
S'--'
p1641
sg15
S'--'
p1642
sg17
S'--'
p1643
sg19
S'--'
p1644
sg21
S'ARI'
p1645
sg23
g24
sg25
S'--'
p1646
sg27
S'--'
p1647
sg29
S'--'
p1648
sg31
g24
sg32
S'--'
p1649
sg34
S'--'
p1650
sg36
S'--'
p1651
sg38
S'--'
p1652
sg40
S'--'
p1653
sg42
S'09/29'
p1654
sg44
S'Dan Orlovsky'
p1655
sg46
S'0.0'
p1656
sg48
S'L10-13'
p1657
sg50
S'2013'
p1658
ssg331
(dp1659
g5
S'--'
p1660
sg7
g331
sg9
S'--'
p1661
sg11
S'--'
p1662
sg13
S'--'
p1663
sg15
S'--'
p1664
sg17
S'--'
p1665
sg19
S'--'
p1666
sg21
S'@ATL'
p1667
sg23
g24
sg25
S'--'
p1668
sg27
S'--'
p1669
sg29
S'--'
p1670
sg31
g24
sg32
S'--'
p1671
sg34
S'--'
p1672
sg36
S'--'
p1673
sg38
S'--'
p1674
sg40
S'--'
p1675
sg42
S'10/20'
p1676
sg44
S'Dan Orlovsky'
p1677
sg46
S'0.0'
p1678
sg48
S'L23-31'
p1679
sg50
S'2013'
p1680
ssg354
(dp1681
g5
S'--'
p1682
sg7
g354
sg9
S'--'
p1683
sg11
S'--'
p1684
sg13
S'--'
p1685
sg15
S'--'
p1686
sg17
S'--'
p1687
sg19
S'--'
p1688
sg21
S'PHI'
p1689
sg23
g24
sg25
S'--'
p1690
sg27
S'--'
p1691
sg29
S'--'
p1692
sg31
g24
sg32
S'--'
p1693
sg34
S'--'
p1694
sg36
S'--'
p1695
sg38
S'--'
p1696
sg40
S'--'
p1697
sg42
S'10/13'
p1698
sg44
S'Dan Orlovsky'
p1699
sg46
S'0.0'
p1700
sg48
S'L20-31'
p1701
sg50
S'2013'
p1702
ssg377
(dp1703
g5
S'--'
p1704
sg7
g377
sg9
S'--'
p1705
sg11
S'--'
p1706
sg13
S'--'
p1707
sg15
S'--'
p1708
sg17
S'--'
p1709
sg19
S'--'
p1710
sg21
S'@SEA'
p1711
sg23
g24
sg25
S'--'
p1712
sg27
S'--'
p1713
sg29
S'--'
p1714
sg31
g24
sg32
S'--'
p1715
sg34
S'--'
p1716
sg36
S'--'
p1717
sg38
S'--'
p1718
sg40
S'--'
p1719
sg42
S'11/03'
p1720
sg44
S'Dan Orlovsky'
p1721
sg46
S'0.0'
p1722
sg48
S'L24-27'
p1723
sg50
S'2013'
p1724
ssg383
(dp1725
g5
S'--'
p1726
sg7
g383
sg9
S'--'
p1727
sg11
S'--'
p1728
sg13
S'--'
p1729
sg15
S'--'
p1730
sg17
S'--'
p1731
sg19
S'--'
p1732
sg21
S'CAR'
p1733
sg23
g24
sg25
S'--'
p1734
sg27
S'--'
p1735
sg29
S'--'
p1736
sg31
g24
sg32
S'--'
p1737
sg34
S'--'
p1738
sg36
S'--'
p1739
sg38
S'--'
p1740
sg40
S'--'
p1741
sg42
S'10/24'
p1742
sg44
S'Dan Orlovsky'
p1743
sg46
S'0.0'
p1744
sg48
S'L13-31'
p1745
sg50
S'2013'
p1746
sssS'2012'
p1747
(dp1748
g3
(dp1749
g5
S'--'
p1750
sg7
S'11'
p1751
sg9
S'--'
p1752
sg11
S'--'
p1753
sg13
S'--'
p1754
sg15
S'--'
p1755
sg17
S'--'
p1756
sg19
S'--'
p1757
sg21
S'@CAR'
p1758
sg23
g24
sg25
S'--'
p1759
sg27
S'--'
p1760
sg29
S'--'
p1761
sg31
g24
sg32
S'--'
p1762
sg34
S'--'
p1763
sg36
S'--'
p1764
sg38
S'--'
p1765
sg40
S'--'
p1766
sg42
S'11/18'
p1767
sg44
S'Dan Orlovsky'
p1768
sg46
S'0.0'
p1769
sg48
S'W27-21'
p1770
sg50
S'2012'
p1771
ssg52
(dp1772
g5
S'--'
p1773
sg7
S'10'
p1774
sg9
S'--'
p1775
sg11
S'--'
p1776
sg13
S'--'
p1777
sg15
S'--'
p1778
sg17
S'--'
p1779
sg19
S'--'
p1780
sg21
S'SD'
p1781
sg23
g24
sg25
S'--'
p1782
sg27
S'--'
p1783
sg29
S'--'
p1784
sg31
g24
sg32
S'--'
p1785
sg34
S'--'
p1786
sg36
S'--'
p1787
sg38
S'--'
p1788
sg40
S'--'
p1789
sg42
S'11/11'
p1790
sg44
S'Dan Orlovsky'
p1791
sg46
S'0.0'
p1792
sg48
S'W34-24'
p1793
sg50
S'2012'
p1794
ssg76
(dp1795
g5
S'--'
p1796
sg7
S'13'
p1797
sg9
S'--'
p1798
sg11
S'--'
p1799
sg13
S'--'
p1800
sg15
S'--'
p1801
sg17
S'--'
p1802
sg19
S'--'
p1803
sg21
S'@DEN'
p1804
sg23
g24
sg25
S'--'
p1805
sg27
S'--'
p1806
sg29
S'--'
p1807
sg31
g24
sg32
S'--'
p1808
sg34
S'--'
p1809
sg36
S'--'
p1810
sg38
S'--'
p1811
sg40
S'--'
p1812
sg42
S'12/02'
p1813
sg44
S'Dan Orlovsky'
p1814
sg46
S'0.0'
p1815
sg48
S'L23-31'
p1816
sg50
S'2012'
p1817
ssg100
(dp1818
g5
S'--'
p1819
sg7
S'12'
p1820
sg9
S'--'
p1821
sg11
S'--'
p1822
sg13
S'--'
p1823
sg15
S'--'
p1824
sg17
S'--'
p1825
sg19
S'--'
p1826
sg21
S'ATL'
p1827
sg23
g24
sg25
S'--'
p1828
sg27
S'--'
p1829
sg29
S'--'
p1830
sg31
g24
sg32
S'--'
p1831
sg34
S'--'
p1832
sg36
S'--'
p1833
sg38
S'--'
p1834
sg40
S'--'
p1835
sg42
S'11/25'
p1836
sg44
S'Dan Orlovsky'
p1837
sg46
S'0.0'
p1838
sg48
S'L23-24'
p1839
sg50
S'2012'
p1840
ssg124
(dp1841
g5
g331
sg7
S'15'
p1842
sg9
S'--'
p1843
sg11
S'57.1'
p1844
sg13
S'--'
p1845
sg15
S'51'
p1846
sg17
S'7.3'
p1847
sg19
S'--'
p1848
sg21
S'@NO'
p1849
sg23
g220
sg25
g308
sg27
g24
sg29
S'--'
p1850
sg31
g24
sg32
S'--'
p1851
sg34
S'--'
p1852
sg36
g24
sg38
g24
sg40
g24
sg42
S'12/16'
p1853
sg44
S'Dan Orlovsky'
p1854
sg46
S'80.1'
p1855
sg48
S'L0-41'
p1856
sg50
S'2012'
p1857
ssg148
(dp1858
g5
S'--'
p1859
sg7
S'14'
p1860
sg9
S'--'
p1861
sg11
S'--'
p1862
sg13
S'--'
p1863
sg15
S'--'
p1864
sg17
S'--'
p1865
sg19
S'--'
p1866
sg21
S'PHI'
p1867
sg23
g24
sg25
S'--'
p1868
sg27
S'--'
p1869
sg29
S'--'
p1870
sg31
g24
sg32
S'--'
p1871
sg34
S'--'
p1872
sg36
S'--'
p1873
sg38
S'--'
p1874
sg40
S'--'
p1875
sg42
S'12/09'
p1876
sg44
S'Dan Orlovsky'
p1877
sg46
S'0.0'
p1878
sg48
S'L21-23'
p1879
sg50
S'2012'
p1880
ssg172
(dp1881
g5
S'--'
p1882
sg7
S'17'
p1883
sg9
S'--'
p1884
sg11
S'--'
p1885
sg13
S'--'
p1886
sg15
S'--'
p1887
sg17
S'--'
p1888
sg19
S'--'
p1889
sg21
S'@ATL'
p1890
sg23
g24
sg25
S'--'
p1891
sg27
S'--'
p1892
sg29
S'--'
p1893
sg31
g24
sg32
S'--'
p1894
sg34
S'--'
p1895
sg36
S'--'
p1896
sg38
S'--'
p1897
sg40
S'--'
p1898
sg42
S'12/30'
p1899
sg44
S'Dan Orlovsky'
p1900
sg46
S'0.0'
p1901
sg48
S'W22-17'
p1902
sg50
S'2012'
p1903
ssg196
(dp1904
g5
S'--'
p1905
sg7
S'16'
p1906
sg9
S'--'
p1907
sg11
S'--'
p1908
sg13
S'--'
p1909
sg15
S'--'
p1910
sg17
S'--'
p1911
sg19
S'--'
p1912
sg21
S'STL'
p1913
sg23
g24
sg25
S'--'
p1914
sg27
S'--'
p1915
sg29
S'--'
p1916
sg31
g24
sg32
S'--'
p1917
sg34
S'--'
p1918
sg36
S'--'
p1919
sg38
S'--'
p1920
sg40
S'--'
p1921
sg42
S'12/23'
p1922
sg44
S'Dan Orlovsky'
p1923
sg46
S'0.0'
p1924
sg48
S'L13-28'
p1925
sg50
S'2012'
p1926
ssg220
(dp1927
g5
S'--'
p1928
sg7
g220
sg9
S'--'
p1929
sg11
S'--'
p1930
sg13
S'--'
p1931
sg15
S'--'
p1932
sg17
S'--'
p1933
sg19
S'--'
p1934
sg21
S'CAR'
p1935
sg23
g24
sg25
S'--'
p1936
sg27
S'--'
p1937
sg29
S'--'
p1938
sg31
g24
sg32
S'--'
p1939
sg34
S'--'
p1940
sg36
S'--'
p1941
sg38
S'--'
p1942
sg40
S'--'
p1943
sg42
S'09/09'
p1944
sg44
S'Dan Orlovsky'
p1945
sg46
S'0.0'
p1946
sg48
S'W16-10'
p1947
sg50
S'2012'
p1948
ssg243
(dp1949
g5
S'--'
p1950
sg7
g243
sg9
S'--'
p1951
sg11
S'--'
p1952
sg13
S'--'
p1953
sg15
S'--'
p1954
sg17
S'--'
p1955
sg19
S'--'
p1956
sg21
S'@DAL'
p1957
sg23
g24
sg25
S'--'
p1958
sg27
S'--'
p1959
sg29
S'--'
p1960
sg31
g24
sg32
S'--'
p1961
sg34
S'--'
p1962
sg36
S'--'
p1963
sg38
S'--'
p1964
sg40
S'--'
p1965
sg42
S'09/23'
p1966
sg44
S'Dan Orlovsky'
p1967
sg46
S'0.0'
p1968
sg48
S'L10-16'
p1969
sg50
S'2012'
p1970
ssg266
(dp1971
g5
S'--'
p1972
sg7
g266
sg9
S'--'
p1973
sg11
S'--'
p1974
sg13
S'--'
p1975
sg15
S'--'
p1976
sg17
S'--'
p1977
sg19
S'--'
p1978
sg21
S'@NYG'
p1979
sg23
g24
sg25
S'--'
p1980
sg27
S'--'
p1981
sg29
S'--'
p1982
sg31
g24
sg32
S'--'
p1983
sg34
S'--'
p1984
sg36
S'--'
p1985
sg38
S'--'
p1986
sg40
S'--'
p1987
sg42
S'09/16'
p1988
sg44
S'Dan Orlovsky'
p1989
sg46
S'0.0'
p1990
sg48
S'L34-41'
p1991
sg50
S'2012'
p1992
ssg289
(dp1993
g5
g379
sg7
g289
sg9
g379
sg11
g379
sg13
g379
sg15
g379
sg17
g379
sg19
g379
sg21
g379
sg23
g379
sg25
g379
sg27
g379
sg29
g379
sg31
g379
sg32
g379
sg34
g379
sg36
g379
sg38
g379
sg40
g379
sg42
S'Bye'
p1994
sg44
S'Dan Orlovsky'
p1995
sg46
g379
sg48
g379
sg50
S'2012'
p1996
ssg308
(dp1997
g5
S'--'
p1998
sg7
g308
sg9
S'--'
p1999
sg11
S'--'
p2000
sg13
S'--'
p2001
sg15
S'--'
p2002
sg17
S'--'
p2003
sg19
S'--'
p2004
sg21
S'WAS'
p2005
sg23
g24
sg25
S'--'
p2006
sg27
S'--'
p2007
sg29
S'--'
p2008
sg31
g24
sg32
S'--'
p2009
sg34
S'--'
p2010
sg36
S'--'
p2011
sg38
S'--'
p2012
sg40
S'--'
p2013
sg42
S'09/30'
p2014
sg44
S'Dan Orlovsky'
p2015
sg46
S'0.0'
p2016
sg48
S'L22-24'
p2017
sg50
S'2012'
p2018
ssg331
(dp2019
g5
S'--'
p2020
sg7
g331
sg9
S'--'
p2021
sg11
S'--'
p2022
sg13
S'--'
p2023
sg15
S'--'
p2024
sg17
S'--'
p2025
sg19
S'--'
p2026
sg21
S'NO'
p2027
sg23
g24
sg25
S'--'
p2028
sg27
S'--'
p2029
sg29
S'--'
p2030
sg31
g24
sg32
S'--'
p2031
sg34
S'--'
p2032
sg36
S'--'
p2033
sg38
S'--'
p2034
sg40
S'--'
p2035
sg42
S'10/21'
p2036
sg44
S'Dan Orlovsky'
p2037
sg46
S'0.0'
p2038
sg48
S'L28-35'
p2039
sg50
S'2012'
p2040
ssg354
(dp2041
g5
S'--'
p2042
sg7
g354
sg9
S'--'
p2043
sg11
S'--'
p2044
sg13
S'--'
p2045
sg15
S'--'
p2046
sg17
S'--'
p2047
sg19
S'--'
p2048
sg21
S'KC'
p2049
sg23
g24
sg25
S'--'
p2050
sg27
S'--'
p2051
sg29
S'--'
p2052
sg31
g24
sg32
S'--'
p2053
sg34
S'--'
p2054
sg36
S'--'
p2055
sg38
S'--'
p2056
sg40
S'--'
p2057
sg42
S'10/14'
p2058
sg44
S'Dan Orlovsky'
p2059
sg46
S'0.0'
p2060
sg48
S'W38-10'
p2061
sg50
S'2012'
p2062
ssg377
(dp2063
g5
S'--'
p2064
sg7
g377
sg9
S'--'
p2065
sg11
S'--'
p2066
sg13
S'--'
p2067
sg15
S'--'
p2068
sg17
S'--'
p2069
sg19
S'--'
p2070
sg21
S'@OAK'
p2071
sg23
g24
sg25
S'--'
p2072
sg27
S'--'
p2073
sg29
S'--'
p2074
sg31
g24
sg32
S'--'
p2075
sg34
S'--'
p2076
sg36
S'--'
p2077
sg38
S'--'
p2078
sg40
S'--'
p2079
sg42
S'11/04'
p2080
sg44
S'Dan Orlovsky'
p2081
sg46
S'0.0'
p2082
sg48
S'W42-32'
p2083
sg50
S'2012'
p2084
ssg383
(dp2085
g5
S'--'
p2086
sg7
g383
sg9
S'--'
p2087
sg11
S'--'
p2088
sg13
S'--'
p2089
sg15
S'--'
p2090
sg17
S'--'
p2091
sg19
S'--'
p2092
sg21
S'@MIN'
p2093
sg23
g24
sg25
S'--'
p2094
sg27
S'--'
p2095
sg29
S'--'
p2096
sg31
g24
sg32
S'--'
p2097
sg34
S'--'
p2098
sg36
S'--'
p2099
sg38
S'--'
p2100
sg40
S'--'
p2101
sg42
S'10/25'
p2102
sg44
S'Dan Orlovsky'
p2103
sg46
S'0.0'
p2104
sg48
S'W36-17'
p2105
sg50
S'2012'
p2106
sss.