(dp0
S'2015'
p1
(dp2
S'11'
p3
(dp4
S'PassAtt'
p5
S'25'
p6
sS'WK'
p7
S'11'
p8
sS'RushAvg'
p9
S'8.0'
p10
sS'Pct'
p11
S'52.0'
p12
sS'RushAtt'
p13
S'1'
p14
sS'PassYds'
p15
S'169'
p16
sS'PassAvg'
p17
S'6.8'
p18
sS'FUM'
p19
g14
sS'Opp'
p20
S'@DET'
p21
sS'G'
p22
g14
sS'Comp'
p23
S'13'
p24
sS'SckY'
p25
S'5'
p26
sS'RushYds'
p27
S'8'
p28
sS'GS'
p29
g14
sS'Lost'
p30
S'0'
p31
sS'RushTD'
p32
g31
sS'PassTD'
p33
g31
sS'Sck'
p34
g14
sS'Int'
p35
g31
sS'Game Date'
p36
S'11/22'
p37
sS'Player'
p38
S'Derek Carr'
p39
sS'Rate'
p40
S'73.6'
p41
sS'Result'
p42
S'L13-18'
p43
sS'Year'
p44
S'2015'
p45
ssS'10'
p46
(dp47
g5
S'43'
p48
sg7
S'10'
p49
sg9
S'6.0'
p50
sg11
S'67.4'
p51
sg13
S'2'
p52
sg15
S'302'
p53
sg17
S'7.0'
p54
sg19
S'--'
p55
sg20
S'MIN'
p56
sg22
g14
sg23
S'29'
p57
sg25
S'15'
p58
sg27
S'12'
p59
sg29
g14
sg30
S'--'
p60
sg32
g31
sg33
g52
sg34
g52
sg35
g52
sg36
S'11/15'
p61
sg38
S'Derek Carr'
p62
sg40
S'83.7'
p63
sg42
S'L14-30'
p64
sg44
S'2015'
p65
ssS'13'
p66
(dp67
g5
S'48'
p68
sg7
S'13'
p69
sg9
S'--'
p70
sg11
S'64.6'
p71
sg13
S'--'
p72
sg15
S'283'
p73
sg17
S'5.9'
p74
sg19
g14
sg20
S'KC'
p75
sg22
g14
sg23
S'31'
p76
sg25
S'21'
p77
sg27
S'--'
p78
sg29
g14
sg30
g31
sg32
S'--'
p79
sg33
g52
sg34
S'4'
p80
sg35
S'3'
p81
sg36
S'12/06'
p82
sg38
S'Derek Carr'
p83
sg40
S'68.3'
p84
sg42
S'L20-34'
p85
sg44
S'2015'
p86
ssS'12'
p87
(dp88
g5
S'37'
p89
sg7
S'12'
p90
sg9
S'1.3'
p91
sg11
S'64.9'
p92
sg13
g80
sg15
S'330'
p93
sg17
S'8.9'
p94
sg19
g52
sg20
S'@TEN'
p95
sg22
g14
sg23
S'24'
p96
sg25
S'7'
p97
sg27
g26
sg29
g14
sg30
g14
sg32
g31
sg33
g81
sg34
g14
sg35
g31
sg36
S'11/29'
p98
sg38
S'Derek Carr'
p99
sg40
S'120.3'
p100
sg42
S'W24-21'
p101
sg44
S'2015'
p102
ssS'15'
p103
(dp104
g5
S'47'
p105
sg7
S'15'
p106
sg9
S'10.5'
p107
sg11
S'48.9'
p108
sg13
g80
sg15
S'276'
p109
sg17
S'5.9'
p110
sg19
S'--'
p111
sg20
S'GB'
p112
sg22
g14
sg23
S'23'
p113
sg25
S'24'
p114
sg27
S'42'
p115
sg29
g14
sg30
S'--'
p116
sg32
g31
sg33
g52
sg34
g81
sg35
g52
sg36
S'12/20'
p117
sg38
S'Derek Carr'
p118
sg40
S'63.8'
p119
sg42
S'L20-30'
p120
sg44
S'2015'
p121
ssS'14'
p122
(dp123
g5
S'29'
p124
sg7
S'14'
p125
sg9
S'-1.0'
p126
sg11
S'41.4'
p127
sg13
g80
sg15
S'135'
p128
sg17
S'4.7'
p129
sg19
g14
sg20
S'@DEN'
p130
sg22
g14
sg23
S'12'
p131
sg25
S'36'
p132
sg27
S'-4'
p133
sg29
g14
sg30
g31
sg32
g31
sg33
g52
sg34
g81
sg35
g31
sg36
S'12/13'
p134
sg38
S'Derek Carr'
p135
sg40
S'79.0'
p136
sg42
S'W15-12'
p137
sg44
S'2015'
p138
ssS'17'
p139
(dp140
g5
S'33'
p141
sg7
S'17'
p142
sg9
S'6.0'
p143
sg11
S'63.6'
p144
sg13
g52
sg15
S'194'
p145
sg17
S'5.9'
p146
sg19
g52
sg20
S'@KC'
p147
sg22
g14
sg23
S'21'
p148
sg25
S'37'
p149
sg27
S'12'
p150
sg29
g14
sg30
g31
sg32
g31
sg33
g14
sg34
S'6'
p151
sg35
g14
sg36
S'01/03'
p152
sg38
S'Derek Carr'
p153
sg40
S'77.1'
p154
sg42
S'L17-23'
p155
sg44
S'2015'
p156
ssS'16'
p157
(dp158
g5
S'38'
p159
sg7
S'16'
p160
sg9
S'7.5'
p161
sg11
S'60.5'
p162
sg13
g80
sg15
S'204'
p163
sg17
S'5.4'
p164
sg19
S'--'
p165
sg20
S'SD'
p166
sg22
g14
sg23
S'23'
p167
sg25
S'29'
p168
sg27
S'30'
p169
sg29
g14
sg30
S'--'
p170
sg32
g31
sg33
g14
sg34
g81
sg35
g14
sg36
S'12/24'
p171
sg38
S'Derek Carr'
p172
sg40
S'72.7'
p173
sg42
S'W23-20'
p174
sg44
S'2015'
p175
ssg14
(dp176
g5
S'12'
p177
sg7
g14
sg9
S'8.0'
p178
sg11
S'58.3'
p179
sg13
g14
sg15
S'61'
p180
sg17
S'5.1'
p181
sg19
g14
sg20
S'CIN'
p182
sg22
g14
sg23
g97
sg25
g31
sg27
g28
sg29
g14
sg30
g31
sg32
g31
sg33
g31
sg34
g31
sg35
g31
sg36
S'09/13'
p183
sg38
S'Derek Carr'
p184
sg40
S'71.9'
p185
sg42
S'L13-33'
p186
sg44
S'2015'
p187
ssg81
(dp188
g5
S'32'
p189
sg7
g81
sg9
S'-1.0'
p190
sg11
S'62.5'
p191
sg13
g14
sg15
S'314'
p192
sg17
S'9.8'
p193
sg19
S'--'
p194
sg20
S'@CLE'
p195
sg22
g14
sg23
S'20'
p196
sg25
g31
sg27
S'-1'
p197
sg29
g14
sg30
S'--'
p198
sg32
g31
sg33
g52
sg34
g31
sg35
g31
sg36
S'09/27'
p199
sg38
S'Derek Carr'
p200
sg40
S'115.9'
p201
sg42
S'W27-20'
p202
sg44
S'2015'
p203
ssg52
(dp204
g5
S'46'
p205
sg7
g52
sg9
S'11.5'
p206
sg11
S'65.2'
p207
sg13
g52
sg15
S'351'
p208
sg17
S'7.6'
p209
sg19
S'--'
p210
sg20
S'BAL'
p211
sg22
g14
sg23
S'30'
p212
sg25
g31
sg27
S'23'
p213
sg29
g14
sg30
S'--'
p214
sg32
g31
sg33
g81
sg34
g14
sg35
g14
sg36
S'09/20'
p215
sg38
S'Derek Carr'
p216
sg40
S'100.9'
p217
sg42
S'W37-33'
p218
sg44
S'2015'
p219
ssg26
(dp220
g5
S'39'
p221
sg7
g26
sg9
S'-1.0'
p222
sg11
S'66.7'
p223
sg13
g14
sg15
S'249'
p224
sg17
S'6.4'
p225
sg19
g14
sg20
S'DEN'
p226
sg22
g14
sg23
S'26'
p227
sg25
S'26'
p228
sg27
S'-1'
p229
sg29
g14
sg30
g14
sg32
g31
sg33
g14
sg34
g80
sg35
g14
sg36
S'10/11'
p230
sg38
S'Derek Carr'
p231
sg40
S'82.1'
p232
sg42
S'L10-16'
p233
sg44
S'2015'
p234
ssg80
(dp235
g5
S'33'
p236
sg7
g80
sg9
S'0.0'
p237
sg11
S'60.6'
p238
sg13
g14
sg15
S'196'
p239
sg17
S'5.9'
p240
sg19
g14
sg20
S'@CHI'
p241
sg22
g14
sg23
S'20'
p242
sg25
S'23'
p243
sg27
g31
sg29
g14
sg30
g14
sg32
g31
sg33
g52
sg34
g52
sg35
g14
sg36
S'10/04'
p244
sg38
S'Derek Carr'
p245
sg40
S'84.9'
p246
sg42
S'L20-22'
p247
sg44
S'2015'
p248
ssg97
(dp249
g5
S'31'
p250
sg7
g97
sg9
S'1.5'
p251
sg11
S'77.4'
p252
sg13
g52
sg15
S'289'
p253
sg17
S'9.3'
p254
sg19
S'--'
p255
sg20
S'@SD'
p256
sg22
g14
sg23
S'24'
p257
sg25
g97
sg27
g81
sg29
g14
sg30
S'--'
p258
sg32
g31
sg33
g81
sg34
g14
sg35
g31
sg36
S'10/25'
p259
sg38
S'Derek Carr'
p260
sg40
S'137.7'
p261
sg42
S'W37-29'
p262
sg44
S'2015'
p263
ssg151
(dp264
g5
S''
p265
sg7
g151
sg9
g265
sg11
g265
sg13
g265
sg15
g265
sg17
g265
sg19
g265
sg20
g265
sg22
g265
sg23
g265
sg25
g265
sg27
g265
sg29
g265
sg30
g265
sg32
g265
sg33
g265
sg34
g265
sg35
g265
sg36
S'Bye'
p266
sg38
S'Derek Carr'
p267
sg40
g265
sg42
g265
sg44
S'2015'
p268
ssS'9'
p269
(dp270
g5
S'44'
p271
sg7
g269
sg9
S'1.5'
p272
sg11
S'54.5'
p273
sg13
g52
sg15
S'301'
p274
sg17
S'6.8'
p275
sg19
S'--'
p276
sg20
S'@PIT'
p277
sg22
g14
sg23
S'24'
p278
sg25
g31
sg27
g81
sg29
g14
sg30
S'--'
p279
sg32
g31
sg33
g80
sg34
g31
sg35
g14
sg36
S'11/08'
p280
sg38
S'Derek Carr'
p281
sg40
S'96.9'
p282
sg42
S'L35-38'
p283
sg44
S'2015'
p284
ssg28
(dp285
g5
S'36'
p286
sg7
g28
sg9
S'-1.0'
p287
sg11
S'63.9'
p288
sg13
g52
sg15
S'333'
p289
sg17
S'9.3'
p290
sg19
S'--'
p291
sg20
S'NYJ'
p292
sg22
g14
sg23
S'23'
p293
sg25
g31
sg27
S'-2'
p294
sg29
g14
sg30
S'--'
p295
sg32
g31
sg33
g80
sg34
g31
sg35
g31
sg36
S'11/01'
p296
sg38
S'Derek Carr'
p297
sg40
S'130.9'
p298
sg42
S'W34-20'
p299
sg44
S'2015'
p300
sssS'2014'
p301
(dp302
g3
(dp303
g5
S'34'
p304
sg7
S'11'
p305
sg9
S'0.0'
p306
sg11
S'47.1'
p307
sg13
g52
sg15
S'172'
p308
sg17
S'5.1'
p309
sg19
g52
sg20
S'@SD'
p310
sg22
g14
sg23
S'16'
p311
sg25
S'10'
p312
sg27
g31
sg29
g14
sg30
g14
sg32
g31
sg33
g31
sg34
g52
sg35
g31
sg36
S'11/16'
p313
sg38
S'Derek Carr'
p314
sg40
S'62.4'
p315
sg42
S'L6-13'
p316
sg44
S'2014'
p317
ssg46
(dp318
g5
S'47'
p319
sg7
S'10'
p320
sg9
S'--'
p321
sg11
S'63.8'
p322
sg13
g31
sg15
S'192'
p323
sg17
S'4.1'
p324
sg19
g14
sg20
S'DEN'
p325
sg22
g14
sg23
S'30'
p326
sg25
g31
sg27
g31
sg29
g14
sg30
g31
sg32
g31
sg33
g52
sg34
g31
sg35
g52
sg36
S'11/09'
p327
sg38
S'Derek Carr'
p328
sg40
S'68.8'
p329
sg42
S'L17-41'
p330
sg44
S'2014'
p331
ssg66
(dp332
g5
S'39'
p333
sg7
S'13'
p334
sg9
S'1.0'
p335
sg11
S'61.5'
p336
sg13
g14
sg15
S'173'
p337
sg17
S'4.4'
p338
sg19
S'--'
p339
sg20
S'@STL'
p340
sg22
g14
sg23
S'24'
p341
sg25
S'23'
p342
sg27
g14
sg29
g14
sg30
S'--'
p343
sg32
g31
sg33
g31
sg34
g81
sg35
g52
sg36
S'11/30'
p344
sg38
S'Derek Carr'
p345
sg40
S'50.5'
p346
sg42
S'L0-52'
p347
sg44
S'2014'
p348
ssg87
(dp349
g5
S'35'
p350
sg7
S'12'
p351
sg9
S'0.7'
p352
sg11
S'51.4'
p353
sg13
g81
sg15
S'174'
p354
sg17
S'5.0'
p355
sg19
S'--'
p356
sg20
S'KC'
p357
sg22
g14
sg23
S'18'
p358
sg25
g52
sg27
g52
sg29
g14
sg30
S'--'
p359
sg32
g31
sg33
g14
sg34
g14
sg35
g31
sg36
S'11/20'
p360
sg38
S'Derek Carr'
p361
sg40
S'75.2'
p362
sg42
S'W24-20'
p363
sg44
S'2014'
p364
ssg103
(dp365
g5
S'56'
p366
sg7
S'15'
p367
sg9
S'0.0'
p368
sg11
S'48.2'
p369
sg13
g14
sg15
S'222'
p370
sg17
S'4.0'
p371
sg19
g14
sg20
S'@KC'
p372
sg22
g14
sg23
S'27'
p373
sg25
S'20'
p374
sg27
g31
sg29
g14
sg30
g14
sg32
g31
sg33
g14
sg34
g80
sg35
g31
sg36
S'12/14'
p375
sg38
S'Derek Carr'
p376
sg40
S'64.7'
p377
sg42
S'L13-31'
p378
sg44
S'2014'
p379
ssg122
(dp380
g5
S'28'
p381
sg7
S'14'
p382
sg9
S'1.0'
p383
sg11
S'78.6'
p384
sg13
g52
sg15
S'254'
p385
sg17
S'9.1'
p386
sg19
S'--'
p387
sg20
S'SF'
p388
sg22
g14
sg23
S'22'
p389
sg25
g269
sg27
g52
sg29
g14
sg30
S'--'
p390
sg32
g31
sg33
g81
sg34
g14
sg35
g31
sg36
S'12/07'
p391
sg38
S'Derek Carr'
p392
sg40
S'140.2'
p393
sg42
S'W24-13'
p394
sg44
S'2014'
p395
ssg139
(dp396
g5
S'36'
p397
sg7
S'17'
p398
sg9
S'2.0'
p399
sg11
S'50.0'
p400
sg13
g81
sg15
S'158'
p401
sg17
S'4.4'
p402
sg19
g52
sg20
S'@DEN'
p403
sg22
g14
sg23
S'18'
p404
sg25
S'26'
p405
sg27
g151
sg29
g14
sg30
g14
sg32
g31
sg33
g14
sg34
g81
sg35
g14
sg36
S'12/28'
p406
sg38
S'Derek Carr'
p407
sg40
S'59.7'
p408
sg42
S'L14-47'
p409
sg44
S'2014'
p410
ssg157
(dp411
g5
S'34'
p412
sg7
S'16'
p413
sg9
S'0.0'
p414
sg11
S'50.0'
p415
sg13
g80
sg15
S'214'
p416
sg17
S'6.3'
p417
sg19
g14
sg20
S'BUF'
p418
sg22
g14
sg23
S'17'
p419
sg25
g97
sg27
g31
sg29
g14
sg30
g31
sg32
g31
sg33
g52
sg34
g14
sg35
g31
sg36
S'12/21'
p420
sg38
S'Derek Carr'
p421
sg40
S'89.6'
p422
sg42
S'W26-24'
p423
sg44
S'2014'
p424
ssg14
(dp425
g5
S'32'
p426
sg7
g14
sg9
S'-1.0'
p427
sg11
S'62.5'
p428
sg13
g14
sg15
S'151'
p429
sg17
S'4.7'
p430
sg19
S'--'
p431
sg20
S'@NYJ'
p432
sg22
g14
sg23
S'20'
p433
sg25
S'18'
p434
sg27
S'-1'
p435
sg29
g14
sg30
S'--'
p436
sg32
g31
sg33
g52
sg34
g52
sg35
g31
sg36
S'09/07'
p437
sg38
S'Derek Carr'
p438
sg40
S'94.7'
p439
sg42
S'L14-19'
p440
sg44
S'2014'
p441
ssg81
(dp442
g5
S'34'
p443
sg7
g81
sg9
S'--'
p444
sg11
S'61.8'
p445
sg13
S'--'
p446
sg15
S'174'
p447
sg17
S'5.1'
p448
sg19
S'--'
p449
sg20
S'@NE'
p450
sg22
g14
sg23
S'21'
p451
sg25
g31
sg27
S'--'
p452
sg29
g14
sg30
S'--'
p453
sg32
S'--'
p454
sg33
g31
sg34
g31
sg35
g14
sg36
S'09/21'
p455
sg38
S'Derek Carr'
p456
sg40
S'62.6'
p457
sg42
S'L9-16'
p458
sg44
S'2014'
p459
ssg52
(dp460
g5
S'42'
p461
sg7
g52
sg9
S'14.5'
p462
sg11
S'64.3'
p463
sg13
g80
sg15
S'263'
p464
sg17
S'6.3'
p465
sg19
S'--'
p466
sg20
S'HOU'
p467
sg22
g14
sg23
S'27'
p468
sg25
g31
sg27
S'58'
p469
sg29
g14
sg30
S'--'
p470
sg32
g31
sg33
g14
sg34
g31
sg35
g52
sg36
S'09/14'
p471
sg38
S'Derek Carr'
p472
sg40
S'69.8'
p473
sg42
S'L14-30'
p474
sg44
S'2014'
p475
ssg26
(dp476
g5
g265
sg7
g26
sg9
g265
sg11
g265
sg13
g265
sg15
g265
sg17
g265
sg19
g265
sg20
g265
sg22
g265
sg23
g265
sg25
g265
sg27
g265
sg29
g265
sg30
g265
sg32
g265
sg33
g265
sg34
g265
sg35
g265
sg36
S'Bye'
p477
sg38
S'Derek Carr'
p478
sg40
g265
sg42
g265
sg44
S'2014'
p479
ssg80
(dp480
g5
S'25'
p481
sg7
g80
sg9
S'4.5'
p482
sg11
S'64.0'
p483
sg13
g52
sg15
S'146'
p484
sg17
S'5.8'
p485
sg19
S'--'
p486
sg20
S'MIA'
p487
sg22
g14
sg23
S'16'
p488
sg25
g81
sg27
g269
sg29
g14
sg30
S'--'
p489
sg32
g31
sg33
g14
sg34
g14
sg35
g14
sg36
S'09/28'
p490
sg38
S'Derek Carr'
p491
sg40
S'76.4'
p492
sg42
S'L14-38'
p493
sg44
S'2014'
p494
ssg97
(dp495
g5
S'28'
p496
sg7
g97
sg9
S'1.0'
p497
sg11
S'57.1'
p498
sg13
g52
sg15
S'173'
p499
sg17
S'6.2'
p500
sg19
S'--'
p501
sg20
S'ARI'
p502
sg22
g14
sg23
S'16'
p503
sg25
g269
sg27
g52
sg29
g14
sg30
S'--'
p504
sg32
g31
sg33
g31
sg34
g14
sg35
g31
sg36
S'10/19'
p505
sg38
S'Derek Carr'
p506
sg40
S'75.4'
p507
sg42
S'L13-24'
p508
sg44
S'2014'
p509
ssg151
(dp510
g5
S'34'
p511
sg7
g151
sg9
S'2.0'
p512
sg11
S'52.9'
p513
sg13
g14
sg15
S'282'
p514
sg17
S'8.3'
p515
sg19
S'--'
p516
sg20
S'SD'
p517
sg22
g14
sg23
S'18'
p518
sg25
g31
sg27
g52
sg29
g14
sg30
S'--'
p519
sg32
g31
sg33
g80
sg34
g31
sg35
g14
sg36
S'10/12'
p520
sg38
S'Derek Carr'
p521
sg40
S'107.7'
p522
sg42
S'L28-31'
p523
sg44
S'2014'
p524
ssg269
(dp525
g5
S'41'
p526
sg7
g269
sg9
S'4.5'
p527
sg11
S'58.5'
p528
sg13
g52
sg15
S'194'
p529
sg17
S'4.7'
p530
sg19
g14
sg20
S'@SEA'
p531
sg22
g14
sg23
S'24'
p532
sg25
g26
sg27
g269
sg29
g14
sg30
g31
sg32
g31
sg33
g52
sg34
g14
sg35
g52
sg36
S'11/02'
p533
sg38
S'Derek Carr'
p534
sg40
S'66.5'
p535
sg42
S'L24-30'
p536
sg44
S'2014'
p537
ssg28
(dp538
g5
S'54'
p539
sg7
g28
sg9
S'2.0'
p540
sg11
S'63.0'
p541
sg13
g14
sg15
S'328'
p542
sg17
S'6.1'
p543
sg19
g52
sg20
S'@CLE'
p544
sg22
g14
sg23
S'34'
p545
sg25
S'17'
p546
sg27
g52
sg29
g14
sg30
g14
sg32
g31
sg33
g14
sg34
g80
sg35
g31
sg36
S'10/26'
p547
sg38
S'Derek Carr'
p548
sg40
S'86.0'
p549
sg42
S'L13-23'
p550
sg44
S'2014'
p551
sss.