(dp0
S'2015'
p1
(dp2
S'11'
p3
(dp4
S'PassAtt'
p5
S'--'
p6
sS'WK'
p7
S'11'
p8
sS'RushAvg'
p9
S'--'
p10
sS'Pct'
p11
S'--'
p12
sS'RushAtt'
p13
S'--'
p14
sS'PassYds'
p15
S'--'
p16
sS'PassAvg'
p17
S'--'
p18
sS'FUM'
p19
S'--'
p20
sS'Opp'
p21
S'@NE'
p22
sS'G'
p23
S'0'
p24
sS'Comp'
p25
S'--'
p26
sS'SckY'
p27
S'--'
p28
sS'RushYds'
p29
S'--'
p30
sS'GS'
p31
g24
sS'Lost'
p32
S'--'
p33
sS'RushTD'
p34
S'--'
p35
sS'PassTD'
p36
S'--'
p37
sS'Sck'
p38
S'--'
p39
sS'Int'
p40
S'--'
p41
sS'Game Date'
p42
S'11/23'
p43
sS'Player'
p44
S'EJ Manuel'
p45
sS'Rate'
p46
S'0.0'
p47
sS'Result'
p48
S'L13-20'
p49
sS'Year'
p50
S'2015'
p51
ssS'10'
p52
(dp53
g5
S'--'
p54
sg7
S'10'
p55
sg9
S'--'
p56
sg11
S'--'
p57
sg13
S'--'
p58
sg15
S'--'
p59
sg17
S'--'
p60
sg19
S'--'
p61
sg21
S'@NYJ'
p62
sg23
g24
sg25
S'--'
p63
sg27
S'--'
p64
sg29
S'--'
p65
sg31
g24
sg32
S'--'
p66
sg34
S'--'
p67
sg36
S'--'
p68
sg38
S'--'
p69
sg40
S'--'
p70
sg42
S'11/12'
p71
sg44
S'EJ Manuel'
p72
sg46
S'0.0'
p73
sg48
S'W22-17'
p74
sg50
S'2015'
p75
ssS'13'
p76
(dp77
g5
S'--'
p78
sg7
S'13'
p79
sg9
S'--'
p80
sg11
S'--'
p81
sg13
S'--'
p82
sg15
S'--'
p83
sg17
S'--'
p84
sg19
S'--'
p85
sg21
S'HOU'
p86
sg23
g24
sg25
S'--'
p87
sg27
S'--'
p88
sg29
S'--'
p89
sg31
g24
sg32
S'--'
p90
sg34
S'--'
p91
sg36
S'--'
p92
sg38
S'--'
p93
sg40
S'--'
p94
sg42
S'12/06'
p95
sg44
S'EJ Manuel'
p96
sg46
S'0.0'
p97
sg48
S'W30-21'
p98
sg50
S'2015'
p99
ssS'12'
p100
(dp101
g5
S'--'
p102
sg7
S'12'
p103
sg9
S'--'
p104
sg11
S'--'
p105
sg13
S'--'
p106
sg15
S'--'
p107
sg17
S'--'
p108
sg19
S'--'
p109
sg21
S'@KC'
p110
sg23
g24
sg25
S'--'
p111
sg27
S'--'
p112
sg29
S'--'
p113
sg31
g24
sg32
S'--'
p114
sg34
S'--'
p115
sg36
S'--'
p116
sg38
S'--'
p117
sg40
S'--'
p118
sg42
S'11/29'
p119
sg44
S'EJ Manuel'
p120
sg46
S'0.0'
p121
sg48
S'L22-30'
p122
sg50
S'2015'
p123
ssS'15'
p124
(dp125
g5
S'--'
p126
sg7
S'15'
p127
sg9
S'3.0'
p128
sg11
S'--'
p129
sg13
S'2'
p130
sg15
S'--'
p131
sg17
S'--'
p132
sg19
S'--'
p133
sg21
S'@WAS'
p134
sg23
S'1'
p135
sg25
S'--'
p136
sg27
S'--'
p137
sg29
S'6'
p138
sg31
g24
sg32
S'--'
p139
sg34
g24
sg36
S'--'
p140
sg38
S'--'
p141
sg40
S'--'
p142
sg42
S'12/20'
p143
sg44
S'EJ Manuel'
p144
sg46
S'0.0'
p145
sg48
S'L25-35'
p146
sg50
S'2015'
p147
ssS'14'
p148
(dp149
g5
S'--'
p150
sg7
S'14'
p151
sg9
S'--'
p152
sg11
S'--'
p153
sg13
S'--'
p154
sg15
S'--'
p155
sg17
S'--'
p156
sg19
S'--'
p157
sg21
S'@PHI'
p158
sg23
g135
sg25
S'--'
p159
sg27
S'--'
p160
sg29
S'--'
p161
sg31
g24
sg32
S'--'
p162
sg34
S'--'
p163
sg36
S'--'
p164
sg38
S'--'
p165
sg40
S'--'
p166
sg42
S'12/13'
p167
sg44
S'EJ Manuel'
p168
sg46
S'0.0'
p169
sg48
S'L20-23'
p170
sg50
S'2015'
p171
ssS'17'
p172
(dp173
g5
S'--'
p174
sg7
S'17'
p175
sg9
S'--'
p176
sg11
S'--'
p177
sg13
S'--'
p178
sg15
S'--'
p179
sg17
S'--'
p180
sg19
S'--'
p181
sg21
S'NYJ'
p182
sg23
g135
sg25
S'--'
p183
sg27
S'--'
p184
sg29
S'--'
p185
sg31
g24
sg32
S'--'
p186
sg34
S'--'
p187
sg36
S'--'
p188
sg38
S'--'
p189
sg40
S'--'
p190
sg42
S'01/03'
p191
sg44
S'EJ Manuel'
p192
sg46
S'0.0'
p193
sg48
S'W22-17'
p194
sg50
S'2015'
p195
ssS'16'
p196
(dp197
g5
S'--'
p198
sg7
S'16'
p199
sg9
S'--'
p200
sg11
S'--'
p201
sg13
S'--'
p202
sg15
S'--'
p203
sg17
S'--'
p204
sg19
S'--'
p205
sg21
S'DAL'
p206
sg23
g24
sg25
S'--'
p207
sg27
S'--'
p208
sg29
S'--'
p209
sg31
g24
sg32
S'--'
p210
sg34
S'--'
p211
sg36
S'--'
p212
sg38
S'--'
p213
sg40
S'--'
p214
sg42
S'12/27'
p215
sg44
S'EJ Manuel'
p216
sg46
S'0.0'
p217
sg48
S'W16-6'
p218
sg50
S'2015'
p219
ssg135
(dp220
g5
S'--'
p221
sg7
g135
sg9
S'--'
p222
sg11
S'--'
p223
sg13
S'--'
p224
sg15
S'--'
p225
sg17
S'--'
p226
sg19
S'--'
p227
sg21
S'IND'
p228
sg23
g24
sg25
S'--'
p229
sg27
S'--'
p230
sg29
S'--'
p231
sg31
g24
sg32
S'--'
p232
sg34
S'--'
p233
sg36
S'--'
p234
sg38
S'--'
p235
sg40
S'--'
p236
sg42
S'09/13'
p237
sg44
S'EJ Manuel'
p238
sg46
S'0.0'
p239
sg48
S'W27-14'
p240
sg50
S'2015'
p241
ssS'3'
p242
(dp243
g5
S'--'
p244
sg7
g242
sg9
S'-2.0'
p245
sg11
S'--'
p246
sg13
g135
sg15
S'--'
p247
sg17
S'--'
p248
sg19
S'--'
p249
sg21
S'@MIA'
p250
sg23
g135
sg25
S'--'
p251
sg27
S'--'
p252
sg29
S'-2'
p253
sg31
g24
sg32
S'--'
p254
sg34
g24
sg36
S'--'
p255
sg38
S'--'
p256
sg40
S'--'
p257
sg42
S'09/27'
p258
sg44
S'EJ Manuel'
p259
sg46
S'0.0'
p260
sg48
S'W41-14'
p261
sg50
S'2015'
p262
ssg130
(dp263
g5
S'--'
p264
sg7
g130
sg9
S'--'
p265
sg11
S'--'
p266
sg13
S'--'
p267
sg15
S'--'
p268
sg17
S'--'
p269
sg19
S'--'
p270
sg21
S'NE'
p271
sg23
g24
sg25
S'--'
p272
sg27
S'--'
p273
sg29
S'--'
p274
sg31
g24
sg32
S'--'
p275
sg34
S'--'
p276
sg36
S'--'
p277
sg38
S'--'
p278
sg40
S'--'
p279
sg42
S'09/20'
p280
sg44
S'EJ Manuel'
p281
sg46
S'0.0'
p282
sg48
S'L32-40'
p283
sg50
S'2015'
p284
ssS'5'
p285
(dp286
g5
S'--'
p287
sg7
g285
sg9
S'--'
p288
sg11
S'--'
p289
sg13
S'--'
p290
sg15
S'--'
p291
sg17
S'--'
p292
sg19
S'--'
p293
sg21
S'@TEN'
p294
sg23
g135
sg25
S'--'
p295
sg27
S'--'
p296
sg29
S'--'
p297
sg31
g24
sg32
S'--'
p298
sg34
S'--'
p299
sg36
S'--'
p300
sg38
S'--'
p301
sg40
S'--'
p302
sg42
S'10/11'
p303
sg44
S'EJ Manuel'
p304
sg46
S'0.0'
p305
sg48
S'W14-13'
p306
sg50
S'2015'
p307
ssS'4'
p308
(dp309
g5
S'--'
p310
sg7
g308
sg9
S'--'
p311
sg11
S'--'
p312
sg13
S'--'
p313
sg15
S'--'
p314
sg17
S'--'
p315
sg19
S'--'
p316
sg21
S'NYG'
p317
sg23
g24
sg25
S'--'
p318
sg27
S'--'
p319
sg29
S'--'
p320
sg31
g24
sg32
S'--'
p321
sg34
S'--'
p322
sg36
S'--'
p323
sg38
S'--'
p324
sg40
S'--'
p325
sg42
S'10/04'
p326
sg44
S'EJ Manuel'
p327
sg46
S'0.0'
p328
sg48
S'L10-24'
p329
sg50
S'2015'
p330
ssS'7'
p331
(dp332
g5
S'42'
p333
sg7
g331
sg9
S'4.8'
p334
sg11
S'57.1'
p335
sg13
S'8'
p336
sg15
S'298'
p337
sg17
S'7.1'
p338
sg19
g130
sg21
S'@JAC'
p339
sg23
g135
sg25
S'24'
p340
sg27
S'38'
p341
sg29
S'38'
p342
sg31
g135
sg32
g135
sg34
g24
sg36
g130
sg38
g308
sg40
g130
sg42
S'10/25'
p343
sg44
S'EJ Manuel'
p344
sg46
S'75.3'
p345
sg48
S'L31-34'
p346
sg50
S'2015'
p347
ssg138
(dp348
g5
S'42'
p349
sg7
g138
sg9
S'3.7'
p350
sg11
S'66.7'
p351
sg13
g138
sg15
S'263'
p352
sg17
S'6.3'
p353
sg19
S'--'
p354
sg21
S'CIN'
p355
sg23
g135
sg25
S'28'
p356
sg27
g331
sg29
S'22'
p357
sg31
g135
sg32
S'--'
p358
sg34
g135
sg36
g135
sg38
g130
sg40
g135
sg42
S'10/18'
p359
sg44
S'EJ Manuel'
p360
sg46
S'81.7'
p361
sg48
S'L21-34'
p362
sg50
S'2015'
p363
ssS'9'
p364
(dp365
g5
S'--'
p366
sg7
g364
sg9
S'--'
p367
sg11
S'--'
p368
sg13
S'--'
p369
sg15
S'--'
p370
sg17
S'--'
p371
sg19
S'--'
p372
sg21
S'MIA'
p373
sg23
g24
sg25
S'--'
p374
sg27
S'--'
p375
sg29
S'--'
p376
sg31
g24
sg32
S'--'
p377
sg34
S'--'
p378
sg36
S'--'
p379
sg38
S'--'
p380
sg40
S'--'
p381
sg42
S'11/08'
p382
sg44
S'EJ Manuel'
p383
sg46
S'0.0'
p384
sg48
S'W33-17'
p385
sg50
S'2015'
p386
ssg336
(dp387
g5
S''
p388
sg7
g336
sg9
g388
sg11
g388
sg13
g388
sg15
g388
sg17
g388
sg19
g388
sg21
g388
sg23
g388
sg25
g388
sg27
g388
sg29
g388
sg31
g388
sg32
g388
sg34
g388
sg36
g388
sg38
g388
sg40
g388
sg42
S'Bye'
p389
sg44
S'EJ Manuel'
p390
sg46
g388
sg48
g388
sg50
S'2015'
p391
sssS'2014'
p392
(dp393
g3
(dp394
g5
S'--'
p395
sg7
S'11'
p396
sg9
S'--'
p397
sg11
S'--'
p398
sg13
S'--'
p399
sg15
S'--'
p400
sg17
S'--'
p401
sg19
S'--'
p402
sg21
S'@MIA'
p403
sg23
g24
sg25
S'--'
p404
sg27
S'--'
p405
sg29
S'--'
p406
sg31
g24
sg32
S'--'
p407
sg34
S'--'
p408
sg36
S'--'
p409
sg38
S'--'
p410
sg40
S'--'
p411
sg42
S'11/13'
p412
sg44
S'EJ Manuel'
p413
sg46
S'0.0'
p414
sg48
S'L9-22'
p415
sg50
S'2014'
p416
ssg52
(dp417
g5
S'--'
p418
sg7
S'10'
p419
sg9
S'--'
p420
sg11
S'--'
p421
sg13
S'--'
p422
sg15
S'--'
p423
sg17
S'--'
p424
sg19
S'--'
p425
sg21
S'KC'
p426
sg23
g24
sg25
S'--'
p427
sg27
S'--'
p428
sg29
S'--'
p429
sg31
g24
sg32
S'--'
p430
sg34
S'--'
p431
sg36
S'--'
p432
sg38
S'--'
p433
sg40
S'--'
p434
sg42
S'11/09'
p435
sg44
S'EJ Manuel'
p436
sg46
S'0.0'
p437
sg48
S'L13-17'
p438
sg50
S'2014'
p439
ssg76
(dp440
g5
S'--'
p441
sg7
S'13'
p442
sg9
S'--'
p443
sg11
S'--'
p444
sg13
S'--'
p445
sg15
S'--'
p446
sg17
S'--'
p447
sg19
S'--'
p448
sg21
S'CLE'
p449
sg23
g24
sg25
S'--'
p450
sg27
S'--'
p451
sg29
S'--'
p452
sg31
g24
sg32
S'--'
p453
sg34
S'--'
p454
sg36
S'--'
p455
sg38
S'--'
p456
sg40
S'--'
p457
sg42
S'11/30'
p458
sg44
S'EJ Manuel'
p459
sg46
S'0.0'
p460
sg48
S'W26-10'
p461
sg50
S'2014'
p462
ssg100
(dp463
g5
S'--'
p464
sg7
S'12'
p465
sg9
S'--'
p466
sg11
S'--'
p467
sg13
S'--'
p468
sg15
S'--'
p469
sg17
S'--'
p470
sg19
S'--'
p471
sg21
S'NYJ'
p472
sg23
g135
sg25
S'--'
p473
sg27
S'--'
p474
sg29
S'--'
p475
sg31
g24
sg32
S'--'
p476
sg34
S'--'
p477
sg36
S'--'
p478
sg38
S'--'
p479
sg40
S'--'
p480
sg42
S'11/24'
p481
sg44
S'EJ Manuel'
p482
sg46
S'0.0'
p483
sg48
S'W38-3'
p484
sg50
S'2014'
p485
ssg124
(dp486
g5
S'--'
p487
sg7
S'15'
p488
sg9
S'--'
p489
sg11
S'--'
p490
sg13
S'--'
p491
sg15
S'--'
p492
sg17
S'--'
p493
sg19
S'--'
p494
sg21
S'GB'
p495
sg23
g24
sg25
S'--'
p496
sg27
S'--'
p497
sg29
S'--'
p498
sg31
g24
sg32
S'--'
p499
sg34
S'--'
p500
sg36
S'--'
p501
sg38
S'--'
p502
sg40
S'--'
p503
sg42
S'12/14'
p504
sg44
S'EJ Manuel'
p505
sg46
S'0.0'
p506
sg48
S'W21-13'
p507
sg50
S'2014'
p508
ssg148
(dp509
g5
S'--'
p510
sg7
S'14'
p511
sg9
S'--'
p512
sg11
S'--'
p513
sg13
S'--'
p514
sg15
S'--'
p515
sg17
S'--'
p516
sg19
S'--'
p517
sg21
S'@DEN'
p518
sg23
g24
sg25
S'--'
p519
sg27
S'--'
p520
sg29
S'--'
p521
sg31
g24
sg32
S'--'
p522
sg34
S'--'
p523
sg36
S'--'
p524
sg38
S'--'
p525
sg40
S'--'
p526
sg42
S'12/07'
p527
sg44
S'EJ Manuel'
p528
sg46
S'0.0'
p529
sg48
S'L17-24'
p530
sg50
S'2014'
p531
ssg172
(dp532
g5
S'--'
p533
sg7
S'17'
p534
sg9
S'--'
p535
sg11
S'--'
p536
sg13
S'--'
p537
sg15
S'--'
p538
sg17
S'--'
p539
sg19
S'--'
p540
sg21
S'@NE'
p541
sg23
g24
sg25
S'--'
p542
sg27
S'--'
p543
sg29
S'--'
p544
sg31
g24
sg32
S'--'
p545
sg34
S'--'
p546
sg36
S'--'
p547
sg38
S'--'
p548
sg40
S'--'
p549
sg42
S'12/28'
p550
sg44
S'EJ Manuel'
p551
sg46
S'0.0'
p552
sg48
S'W17-9'
p553
sg50
S'2014'
p554
ssg196
(dp555
g5
S'--'
p556
sg7
S'16'
p557
sg9
S'--'
p558
sg11
S'--'
p559
sg13
S'--'
p560
sg15
S'--'
p561
sg17
S'--'
p562
sg19
S'--'
p563
sg21
S'@OAK'
p564
sg23
g24
sg25
S'--'
p565
sg27
S'--'
p566
sg29
S'--'
p567
sg31
g24
sg32
S'--'
p568
sg34
S'--'
p569
sg36
S'--'
p570
sg38
S'--'
p571
sg40
S'--'
p572
sg42
S'12/21'
p573
sg44
S'EJ Manuel'
p574
sg46
S'0.0'
p575
sg48
S'L24-26'
p576
sg50
S'2014'
p577
ssg135
(dp578
g5
S'22'
p579
sg7
g135
sg9
S'3.2'
p580
sg11
S'72.7'
p581
sg13
g138
sg15
S'173'
p582
sg17
S'7.9'
p583
sg19
S'--'
p584
sg21
S'@CHI'
p585
sg23
g135
sg25
S'16'
p586
sg27
g138
sg29
S'19'
p587
sg31
g135
sg32
S'--'
p588
sg34
g135
sg36
g135
sg38
g135
sg40
g135
sg42
S'09/07'
p589
sg44
S'EJ Manuel'
p590
sg46
S'91.7'
p591
sg48
S'W23-20'
p592
sg50
S'2014'
p593
ssg242
(dp594
g5
S'39'
p595
sg7
g242
sg9
S'4.8'
p596
sg11
S'59.0'
p597
sg13
g285
sg15
S'238'
p598
sg17
S'6.1'
p599
sg19
g135
sg21
S'SD'
p600
sg23
g135
sg25
S'23'
p601
sg27
S'33'
p602
sg29
S'24'
p603
sg31
g135
sg32
g24
sg34
g24
sg36
g135
sg38
g242
sg40
g24
sg42
S'09/21'
p604
sg44
S'EJ Manuel'
p605
sg46
S'85.2'
p606
sg48
S'L10-22'
p607
sg50
S'2014'
p608
ssg130
(dp609
g5
S'26'
p610
sg7
g130
sg9
S'1.5'
p611
sg11
S'61.5'
p612
sg13
g308
sg15
S'202'
p613
sg17
S'7.8'
p614
sg19
S'--'
p615
sg21
S'MIA'
p616
sg23
g135
sg25
S'16'
p617
sg27
g24
sg29
g138
sg31
g135
sg32
S'--'
p618
sg34
g24
sg36
g135
sg38
g24
sg40
g24
sg42
S'09/14'
p619
sg44
S'EJ Manuel'
p620
sg46
S'98.6'
p621
sg48
S'W29-10'
p622
sg50
S'2014'
p623
ssg285
(dp624
g5
S'--'
p625
sg7
g285
sg9
S'--'
p626
sg11
S'--'
p627
sg13
S'--'
p628
sg15
S'--'
p629
sg17
S'--'
p630
sg19
S'--'
p631
sg21
S'@DET'
p632
sg23
g24
sg25
S'--'
p633
sg27
S'--'
p634
sg29
S'--'
p635
sg31
g24
sg32
S'--'
p636
sg34
S'--'
p637
sg36
S'--'
p638
sg38
S'--'
p639
sg40
S'--'
p640
sg42
S'10/05'
p641
sg44
S'EJ Manuel'
p642
sg46
S'0.0'
p643
sg48
S'W17-14'
p644
sg50
S'2014'
p645
ssg308
(dp646
g5
S'44'
p647
sg7
g308
sg9
S'3.0'
p648
sg11
S'47.7'
p649
sg13
g135
sg15
S'225'
p650
sg17
S'5.1'
p651
sg19
S'--'
p652
sg21
S'@HOU'
p653
sg23
g135
sg25
S'21'
p654
sg27
g285
sg29
g242
sg31
g135
sg32
S'--'
p655
sg34
g24
sg36
g130
sg38
g130
sg40
g130
sg42
S'09/28'
p656
sg44
S'EJ Manuel'
p657
sg46
S'59.4'
p658
sg48
S'L17-23'
p659
sg50
S'2014'
p660
ssg331
(dp661
g5
S'--'
p662
sg7
g331
sg9
S'--'
p663
sg11
S'--'
p664
sg13
S'--'
p665
sg15
S'--'
p666
sg17
S'--'
p667
sg19
S'--'
p668
sg21
S'MIN'
p669
sg23
g24
sg25
S'--'
p670
sg27
S'--'
p671
sg29
S'--'
p672
sg31
g24
sg32
S'--'
p673
sg34
S'--'
p674
sg36
S'--'
p675
sg38
S'--'
p676
sg40
S'--'
p677
sg42
S'10/19'
p678
sg44
S'EJ Manuel'
p679
sg46
S'0.0'
p680
sg48
S'W17-16'
p681
sg50
S'2014'
p682
ssg138
(dp683
g5
S'--'
p684
sg7
g138
sg9
S'--'
p685
sg11
S'--'
p686
sg13
S'--'
p687
sg15
S'--'
p688
sg17
S'--'
p689
sg19
S'--'
p690
sg21
S'NE'
p691
sg23
g24
sg25
S'--'
p692
sg27
S'--'
p693
sg29
S'--'
p694
sg31
g24
sg32
S'--'
p695
sg34
S'--'
p696
sg36
S'--'
p697
sg38
S'--'
p698
sg40
S'--'
p699
sg42
S'10/12'
p700
sg44
S'EJ Manuel'
p701
sg46
S'0.0'
p702
sg48
S'L22-37'
p703
sg50
S'2014'
p704
ssg364
(dp705
g5
g388
sg7
g364
sg9
g388
sg11
g388
sg13
g388
sg15
g388
sg17
g388
sg19
g388
sg21
g388
sg23
g388
sg25
g388
sg27
g388
sg29
g388
sg31
g388
sg32
g388
sg34
g388
sg36
g388
sg38
g388
sg40
g388
sg42
S'Bye'
p706
sg44
S'EJ Manuel'
p707
sg46
g388
sg48
g388
sg50
S'2014'
p708
ssg336
(dp709
g5
S'--'
p710
sg7
g336
sg9
S'--'
p711
sg11
S'--'
p712
sg13
S'--'
p713
sg15
S'--'
p714
sg17
S'--'
p715
sg19
S'--'
p716
sg21
S'@NYJ'
p717
sg23
g24
sg25
S'--'
p718
sg27
S'--'
p719
sg29
S'--'
p720
sg31
g24
sg32
S'--'
p721
sg34
S'--'
p722
sg36
S'--'
p723
sg38
S'--'
p724
sg40
S'--'
p725
sg42
S'10/26'
p726
sg44
S'EJ Manuel'
p727
sg46
S'0.0'
p728
sg48
S'W43-23'
p729
sg50
S'2014'
p730
sssS'2013'
p731
(dp732
g3
(dp733
g5
S'28'
p734
sg7
S'11'
p735
sg9
S'1.3'
p736
sg11
S'71.4'
p737
sg13
g331
sg15
S'245'
p738
sg17
S'8.8'
p739
sg19
S'--'
p740
sg21
S'NYJ'
p741
sg23
g135
sg25
S'20'
p742
sg27
g24
sg29
g364
sg31
g135
sg32
S'--'
p743
sg34
g24
sg36
g130
sg38
g135
sg40
g24
sg42
S'11/17'
p744
sg44
S'EJ Manuel'
p745
sg46
S'121.9'
p746
sg48
S'W37-14'
p747
sg50
S'2013'
p748
ssg52
(dp749
g5
S'39'
p750
sg7
S'10'
p751
sg9
S'8.5'
p752
sg11
S'56.4'
p753
sg13
g130
sg15
S'155'
p754
sg17
S'4.0'
p755
sg19
S'--'
p756
sg21
S'@PIT'
p757
sg23
g135
sg25
S'22'
p758
sg27
S'23'
p759
sg29
S'17'
p760
sg31
g135
sg32
S'--'
p761
sg34
g24
sg36
g135
sg38
g242
sg40
g135
sg42
S'11/10'
p762
sg44
S'EJ Manuel'
p763
sg46
S'63.5'
p764
sg48
S'L10-23'
p765
sg50
S'2013'
p766
ssg76
(dp767
g5
S'32'
p768
sg7
S'13'
p769
sg9
S'0.8'
p770
sg11
S'56.3'
p771
sg13
g308
sg15
S'210'
p772
sg17
S'6.6'
p773
sg19
g135
sg21
S'ATL'
p774
sg23
g135
sg25
S'18'
p775
sg27
g24
sg29
g242
sg31
g135
sg32
g24
sg34
g135
sg36
g135
sg38
g24
sg40
g24
sg42
S'12/01'
p776
sg44
S'EJ Manuel'
p777
sg46
S'86.7'
p778
sg48
S'L31-34'
p779
sg50
S'2013'
p780
ssg100
(dp781
g5
g388
sg7
S'12'
p782
sg9
g388
sg11
g388
sg13
g388
sg15
g388
sg17
g388
sg19
g388
sg21
g388
sg23
g388
sg25
g388
sg27
g388
sg29
g388
sg31
g388
sg32
g388
sg34
g388
sg36
g388
sg38
g388
sg40
g388
sg42
S'Bye'
p783
sg44
S'EJ Manuel'
p784
sg46
g388
sg48
g388
sg50
S'2013'
p785
ssg124
(dp786
g5
S'24'
p787
sg7
S'15'
p788
sg9
S'3.7'
p789
sg11
S'70.8'
p790
sg13
S'10'
p791
sg15
S'193'
p792
sg17
S'8.0'
p793
sg19
g130
sg21
S'@JAC'
p794
sg23
g135
sg25
S'17'
p795
sg27
S'25'
p796
sg29
S'37'
p797
sg31
g135
sg32
g135
sg34
g135
sg36
g130
sg38
g308
sg40
g135
sg42
S'12/15'
p798
sg44
S'EJ Manuel'
p799
sg46
S'105.0'
p800
sg48
S'W27-20'
p801
sg50
S'2013'
p802
ssg148
(dp803
g5
S'33'
p804
sg7
S'14'
p805
sg9
S'5.8'
p806
sg11
S'54.5'
p807
sg13
g285
sg15
S'184'
p808
sg17
S'5.6'
p809
sg19
S'--'
p810
sg21
S'@TB'
p811
sg23
g135
sg25
S'18'
p812
sg27
S'37'
p813
sg29
S'29'
p814
sg31
g135
sg32
S'--'
p815
sg34
g24
sg36
g24
sg38
g331
sg40
g308
sg42
S'12/08'
p816
sg44
S'EJ Manuel'
p817
sg46
S'31.2'
p818
sg48
S'L6-27'
p819
sg50
S'2013'
p820
ssg172
(dp821
g5
S'--'
p822
sg7
S'17'
p823
sg9
S'--'
p824
sg11
S'--'
p825
sg13
S'--'
p826
sg15
S'--'
p827
sg17
S'--'
p828
sg19
S'--'
p829
sg21
S'@NE'
p830
sg23
g24
sg25
S'--'
p831
sg27
S'--'
p832
sg29
S'--'
p833
sg31
g24
sg32
S'--'
p834
sg34
S'--'
p835
sg36
S'--'
p836
sg38
S'--'
p837
sg40
S'--'
p838
sg42
S'12/29'
p839
sg44
S'EJ Manuel'
p840
sg46
S'0.0'
p841
sg48
S'L20-34'
p842
sg50
S'2013'
p843
ssg196
(dp844
g5
S'--'
p845
sg7
S'16'
p846
sg9
S'--'
p847
sg11
S'--'
p848
sg13
S'--'
p849
sg15
S'--'
p850
sg17
S'--'
p851
sg19
S'--'
p852
sg21
S'MIA'
p853
sg23
g24
sg25
S'--'
p854
sg27
S'--'
p855
sg29
S'--'
p856
sg31
g24
sg32
S'--'
p857
sg34
S'--'
p858
sg36
S'--'
p859
sg38
S'--'
p860
sg40
S'--'
p861
sg42
S'12/22'
p862
sg44
S'EJ Manuel'
p863
sg46
S'0.0'
p864
sg48
S'W19-0'
p865
sg50
S'2013'
p866
ssg135
(dp867
g5
S'27'
p868
sg7
g135
sg9
S'7.7'
p869
sg11
S'66.7'
p870
sg13
g242
sg15
S'150'
p871
sg17
S'5.6'
p872
sg19
S'--'
p873
sg21
S'NE'
p874
sg23
g135
sg25
S'18'
p875
sg27
g24
sg29
S'23'
p876
sg31
g135
sg32
S'--'
p877
sg34
g24
sg36
g130
sg38
g24
sg40
g24
sg42
S'09/08'
p878
sg44
S'EJ Manuel'
p879
sg46
S'105.5'
p880
sg48
S'L21-23'
p881
sg50
S'2013'
p882
ssg242
(dp883
g5
S'42'
p884
sg7
g242
sg9
S'6.7'
p885
sg11
S'45.2'
p886
sg13
g138
sg15
S'243'
p887
sg17
S'5.8'
p888
sg19
S'--'
p889
sg21
S'@NYJ'
p890
sg23
g135
sg25
S'19'
p891
sg27
S'35'
p892
sg29
S'40'
p893
sg31
g135
sg32
S'--'
p894
sg34
g24
sg36
g135
sg38
g336
sg40
g24
sg42
S'09/22'
p895
sg44
S'EJ Manuel'
p896
sg46
S'71.8'
p897
sg48
S'L20-27'
p898
sg50
S'2013'
p899
ssg130
(dp900
g5
S'39'
p901
sg7
g130
sg9
S'3.3'
p902
sg11
S'69.2'
p903
sg13
g308
sg15
S'296'
p904
sg17
S'7.6'
p905
sg19
g135
sg21
S'CAR'
p906
sg23
g135
sg25
S'27'
p907
sg27
g364
sg29
S'13'
p908
sg31
g135
sg32
g135
sg34
g24
sg36
g135
sg38
g135
sg40
g135
sg42
S'09/15'
p909
sg44
S'EJ Manuel'
p910
sg46
S'89.3'
p911
sg48
S'W24-23'
p912
sg50
S'2013'
p913
ssg285
(dp914
g5
S'20'
p915
sg7
g285
sg9
S'14.0'
p916
sg11
S'55.0'
p917
sg13
g135
sg15
S'129'
p918
sg17
S'6.5'
p919
sg19
S'--'
p920
sg21
S'@CLE'
p921
sg23
g135
sg25
S'11'
p922
sg27
S'10'
p923
sg29
S'14'
p924
sg31
g135
sg32
S'--'
p925
sg34
g24
sg36
g24
sg38
g130
sg40
g24
sg42
S'10/03'
p926
sg44
S'EJ Manuel'
p927
sg46
S'74.8'
p928
sg48
S'L24-37'
p929
sg50
S'2013'
p930
ssg308
(dp931
g5
S'22'
p932
sg7
g308
sg9
S'0.1'
p933
sg11
S'45.5'
p934
sg13
S'11'
p935
sg15
S'167'
p936
sg17
S'7.6'
p937
sg19
g130
sg21
S'BAL'
p938
sg23
g135
sg25
S'10'
p939
sg27
S'20'
p940
sg29
g135
sg31
g135
sg32
g135
sg34
g24
sg36
g135
sg38
g130
sg40
g130
sg42
S'09/29'
p941
sg44
S'EJ Manuel'
p942
sg46
S'48.9'
p943
sg48
S'W23-20'
p944
sg50
S'2013'
p945
ssg331
(dp946
g5
S'--'
p947
sg7
g331
sg9
S'--'
p948
sg11
S'--'
p949
sg13
S'--'
p950
sg15
S'--'
p951
sg17
S'--'
p952
sg19
S'--'
p953
sg21
S'@MIA'
p954
sg23
g24
sg25
S'--'
p955
sg27
S'--'
p956
sg29
S'--'
p957
sg31
g24
sg32
S'--'
p958
sg34
S'--'
p959
sg36
S'--'
p960
sg38
S'--'
p961
sg40
S'--'
p962
sg42
S'10/20'
p963
sg44
S'EJ Manuel'
p964
sg46
S'0.0'
p965
sg48
S'W23-21'
p966
sg50
S'2013'
p967
ssg138
(dp968
g5
S'--'
p969
sg7
g138
sg9
S'--'
p970
sg11
S'--'
p971
sg13
S'--'
p972
sg15
S'--'
p973
sg17
S'--'
p974
sg19
S'--'
p975
sg21
S'CIN'
p976
sg23
g24
sg25
S'--'
p977
sg27
S'--'
p978
sg29
S'--'
p979
sg31
g24
sg32
S'--'
p980
sg34
S'--'
p981
sg36
S'--'
p982
sg38
S'--'
p983
sg40
S'--'
p984
sg42
S'10/13'
p985
sg44
S'EJ Manuel'
p986
sg46
S'0.0'
p987
sg48
S'L24-27'
p988
sg50
S'2013'
p989
ssg364
(dp990
g5
S'--'
p991
sg7
g364
sg9
S'--'
p992
sg11
S'--'
p993
sg13
S'--'
p994
sg15
S'--'
p995
sg17
S'--'
p996
sg19
S'--'
p997
sg21
S'KC'
p998
sg23
g24
sg25
S'--'
p999
sg27
S'--'
p1000
sg29
S'--'
p1001
sg31
g24
sg32
S'--'
p1002
sg34
S'--'
p1003
sg36
S'--'
p1004
sg38
S'--'
p1005
sg40
S'--'
p1006
sg42
S'11/03'
p1007
sg44
S'EJ Manuel'
p1008
sg46
S'0.0'
p1009
sg48
S'L13-23'
p1010
sg50
S'2013'
p1011
ssg336
(dp1012
g5
S'--'
p1013
sg7
g336
sg9
S'--'
p1014
sg11
S'--'
p1015
sg13
S'--'
p1016
sg15
S'--'
p1017
sg17
S'--'
p1018
sg19
S'--'
p1019
sg21
S'@NO'
p1020
sg23
g24
sg25
S'--'
p1021
sg27
S'--'
p1022
sg29
S'--'
p1023
sg31
g24
sg32
S'--'
p1024
sg34
S'--'
p1025
sg36
S'--'
p1026
sg38
S'--'
p1027
sg40
S'--'
p1028
sg42
S'10/27'
p1029
sg44
S'EJ Manuel'
p1030
sg46
S'0.0'
p1031
sg48
S'L17-35'
p1032
sg50
S'2013'
p1033
sss.