(dp0
S'2015'
p1
(dp2
S'11'
p3
(dp4
S'PassAtt'
p5
S''
p6
sS'WK'
p7
S'11'
p8
sS'RushAvg'
p9
g6
sS'Pct'
p10
g6
sS'RushAtt'
p11
g6
sS'PassYds'
p12
g6
sS'PassAvg'
p13
g6
sS'FUM'
p14
g6
sS'Opp'
p15
g6
sS'G'
p16
g6
sS'Comp'
p17
g6
sS'SckY'
p18
g6
sS'RushYds'
p19
g6
sS'GS'
p20
g6
sS'Lost'
p21
g6
sS'RushTD'
p22
g6
sS'PassTD'
p23
g6
sS'Sck'
p24
g6
sS'Int'
p25
g6
sS'Game Date'
p26
S'Bye'
p27
sS'Player'
p28
S'Eli Manning'
p29
sS'Rate'
p30
g6
sS'Result'
p31
g6
sS'Year'
p32
S'2015'
p33
ssS'10'
p34
(dp35
g5
S'44'
p36
sg7
S'10'
p37
sg9
S'10.0'
p38
sg10
S'54.5'
p39
sg11
S'1'
p40
sg12
S'361'
p41
sg13
S'8.2'
p42
sg14
g40
sg15
S'NE'
p43
sg16
g40
sg17
S'24'
p44
sg18
S'19'
p45
sg19
S'10'
p46
sg20
g40
sg21
g40
sg22
S'0'
p47
sg23
S'2'
p48
sg24
S'3'
p49
sg25
g47
sg26
S'11/15'
p50
sg28
S'Eli Manning'
p51
sg30
S'96.9'
p52
sg31
S'L26-27'
p53
sg32
S'2015'
p54
ssS'13'
p55
(dp56
g5
S'34'
p57
sg7
S'13'
p58
sg9
S'2.0'
p59
sg10
S'52.9'
p60
sg11
g40
sg12
S'297'
p61
sg13
S'8.7'
p62
sg14
S'--'
p63
sg15
S'NYJ'
p64
sg16
g40
sg17
S'18'
p65
sg18
S'16'
p66
sg19
g48
sg20
g40
sg21
S'--'
p67
sg22
g47
sg23
g40
sg24
g49
sg25
g40
sg26
S'12/06'
p68
sg28
S'Eli Manning'
p69
sg30
S'80.1'
p70
sg31
S'L20-23'
p71
sg32
S'2015'
p72
ssS'12'
p73
(dp74
g5
S'51'
p75
sg7
S'12'
p76
sg9
S'--'
p77
sg10
S'51.0'
p78
sg11
S'--'
p79
sg12
S'321'
p80
sg13
S'6.3'
p81
sg14
g48
sg15
S'@WAS'
p82
sg16
g40
sg17
S'26'
p83
sg18
S'22'
p84
sg19
S'--'
p85
sg20
g40
sg21
g47
sg22
S'--'
p86
sg23
g48
sg24
g49
sg25
g49
sg26
S'11/29'
p87
sg28
S'Eli Manning'
p88
sg30
S'59.4'
p89
sg31
S'L14-20'
p90
sg32
S'2015'
p91
ssS'15'
p92
(dp93
g5
S'46'
p94
sg7
S'15'
p95
sg9
S'4.0'
p96
sg10
S'63.0'
p97
sg11
g40
sg12
S'245'
p98
sg13
S'5.3'
p99
sg14
S'--'
p100
sg15
S'CAR'
p101
sg16
g40
sg17
S'29'
p102
sg18
g47
sg19
S'4'
p103
sg20
g40
sg21
S'--'
p104
sg22
g47
sg23
g103
sg24
g47
sg25
g40
sg26
S'12/20'
p105
sg28
S'Eli Manning'
p106
sg30
S'96.7'
p107
sg31
S'L35-38'
p108
sg32
S'2015'
p109
ssS'14'
p110
(dp111
g5
S'31'
p112
sg7
S'14'
p113
sg9
S'-0.7'
p114
sg10
S'87.1'
p115
sg11
g49
sg12
S'337'
p116
sg13
S'10.9'
p117
sg14
g40
sg15
S'@MIA'
p118
sg16
g40
sg17
S'27'
p119
sg18
g47
sg19
S'-2'
p120
sg20
g40
sg21
g40
sg22
g47
sg23
g103
sg24
g47
sg25
g47
sg26
S'12/14'
p121
sg28
S'Eli Manning'
p122
sg30
S'151.5'
p123
sg31
S'W31-24'
p124
sg32
S'2015'
p125
ssS'17'
p126
(dp127
g5
S'43'
p128
sg7
S'17'
p129
sg9
S'--'
p130
sg10
S'55.8'
p131
sg11
S'--'
p132
sg12
S'302'
p133
sg13
S'7.0'
p134
sg14
g40
sg15
S'PHI'
p135
sg16
g40
sg17
S'24'
p136
sg18
S'8'
p137
sg19
S'--'
p138
sg20
g40
sg21
g40
sg22
S'--'
p139
sg23
g48
sg24
g48
sg25
g47
sg26
S'01/03'
p140
sg28
S'Eli Manning'
p141
sg30
S'93.4'
p142
sg31
S'L30-35'
p143
sg32
S'2015'
p144
ssS'16'
p145
(dp146
g5
S'29'
p147
sg7
S'16'
p148
sg9
S'0.0'
p149
sg10
S'51.7'
p150
sg11
g40
sg12
S'234'
p151
sg13
S'8.1'
p152
sg14
g40
sg15
S'@MIN'
p153
sg16
g40
sg17
S'15'
p154
sg18
S'30'
p155
sg19
g47
sg20
g40
sg21
g47
sg22
g47
sg23
g40
sg24
g103
sg25
g49
sg26
S'12/27'
p156
sg28
S'Eli Manning'
p157
sg30
S'50.7'
p158
sg31
S'L17-49'
p159
sg32
S'2015'
p160
ssg40
(dp161
g5
S'36'
p162
sg7
g40
sg9
S'8.0'
p163
sg10
S'55.6'
p164
sg11
g40
sg12
S'189'
p165
sg13
S'5.3'
p166
sg14
S'--'
p167
sg15
S'@DAL'
p168
sg16
g40
sg17
S'20'
p169
sg18
g49
sg19
g137
sg20
g40
sg21
S'--'
p170
sg22
g47
sg23
g47
sg24
g40
sg25
g47
sg26
S'09/13'
p171
sg28
S'Eli Manning'
p172
sg30
S'70.3'
p173
sg31
S'L26-27'
p174
sg32
S'2015'
p175
ssg49
(dp176
g5
S'32'
p177
sg7
g49
sg9
S'--'
p178
sg10
S'71.9'
p179
sg11
S'--'
p180
sg12
S'279'
p181
sg13
S'8.7'
p182
sg14
S'--'
p183
sg15
S'WAS'
p184
sg16
g40
sg17
S'23'
p185
sg18
g47
sg19
S'--'
p186
sg20
g40
sg21
S'--'
p187
sg22
S'--'
p188
sg23
g48
sg24
g47
sg25
g47
sg26
S'09/24'
p189
sg28
S'Eli Manning'
p190
sg30
S'119.1'
p191
sg31
S'W32-21'
p192
sg32
S'2015'
p193
ssg48
(dp194
g5
S'40'
p195
sg7
g48
sg9
S'11.5'
p196
sg10
S'67.5'
p197
sg11
g48
sg12
S'292'
p198
sg13
S'7.3'
p199
sg14
g48
sg15
S'ATL'
p200
sg16
g40
sg17
S'27'
p201
sg18
g40
sg19
S'23'
p202
sg20
g40
sg21
g40
sg22
g47
sg23
g48
sg24
g48
sg25
g47
sg26
S'09/20'
p203
sg28
S'Eli Manning'
p204
sg30
S'105.4'
p205
sg31
S'L20-24'
p206
sg32
S'2015'
p207
ssS'5'
p208
(dp209
g5
S'54'
p210
sg7
g208
sg9
S'11.0'
p211
sg10
S'75.9'
p212
sg11
g40
sg12
S'441'
p213
sg13
S'8.2'
p214
sg14
S'--'
p215
sg15
S'SF'
p216
sg16
g40
sg17
S'41'
p217
sg18
g47
sg19
S'11'
p218
sg20
g40
sg21
S'--'
p219
sg22
g47
sg23
g49
sg24
g47
sg25
g40
sg26
S'10/11'
p220
sg28
S'Eli Manning'
p221
sg30
S'110.2'
p222
sg31
S'W30-27'
p223
sg32
S'2015'
p224
ssg103
(dp225
g5
S'35'
p226
sg7
g103
sg9
S'-0.7'
p227
sg10
S'57.1'
p228
sg11
g49
sg12
S'212'
p229
sg13
S'6.1'
p230
sg14
g40
sg15
S'@BUF'
p231
sg16
g40
sg17
S'20'
p232
sg18
g40
sg19
S'-2'
p233
sg20
g40
sg21
g47
sg22
g47
sg23
g49
sg24
g40
sg25
g40
sg26
S'10/04'
p234
sg28
S'Eli Manning'
p235
sg30
S'91.6'
p236
sg31
S'W24-10'
p237
sg32
S'2015'
p238
ssS'7'
p239
(dp240
g5
S'24'
p241
sg7
g239
sg9
S'-1.0'
p242
sg10
S'54.2'
p243
sg11
g103
sg12
S'170'
p244
sg13
S'7.1'
p245
sg14
S'--'
p246
sg15
S'DAL'
p247
sg16
g40
sg17
S'13'
p248
sg18
S'13'
p249
sg19
S'-4'
p250
sg20
g40
sg21
S'--'
p251
sg22
g47
sg23
g47
sg24
g48
sg25
g47
sg26
S'10/25'
p252
sg28
S'Eli Manning'
p253
sg30
S'76.7'
p254
sg31
S'W27-20'
p255
sg32
S'2015'
p256
ssS'6'
p257
(dp258
g5
S'38'
p259
sg7
g257
sg9
S'12.0'
p260
sg10
S'63.2'
p261
sg11
g40
sg12
S'189'
p262
sg13
S'5.0'
p263
sg14
g40
sg15
S'@PHI'
p264
sg16
g40
sg17
S'24'
p265
sg18
S'23'
p266
sg19
S'12'
p267
sg20
g40
sg21
g47
sg22
g47
sg23
g40
sg24
g49
sg25
g48
sg26
S'10/19'
p268
sg28
S'Eli Manning'
p269
sg30
S'62.3'
p270
sg31
S'L7-27'
p271
sg32
S'2015'
p272
ssS'9'
p273
(dp274
g5
S'40'
p275
sg7
g273
sg9
S'-1.0'
p276
sg10
S'65.0'
p277
sg11
g40
sg12
S'213'
p278
sg13
S'5.3'
p279
sg14
S'--'
p280
sg15
S'@TB'
p281
sg16
g40
sg17
S'26'
p282
sg18
g47
sg19
S'-1'
p283
sg20
g40
sg21
S'--'
p284
sg22
g47
sg23
g48
sg24
g47
sg25
g48
sg26
S'11/08'
p285
sg28
S'Eli Manning'
p286
sg30
S'74.3'
p287
sg31
S'W32-18'
p288
sg32
S'2015'
p289
ssg137
(dp290
g5
S'41'
p291
sg7
g137
sg9
S'--'
p292
sg10
S'73.2'
p293
sg11
S'--'
p294
sg12
S'350'
p295
sg13
S'8.5'
p296
sg14
g40
sg15
S'@NO'
p297
sg16
g40
sg17
S'30'
p298
sg18
S'21'
p299
sg19
S'--'
p300
sg20
g40
sg21
g47
sg22
S'--'
p301
sg23
g257
sg24
g49
sg25
g47
sg26
S'11/01'
p302
sg28
S'Eli Manning'
p303
sg30
S'138.2'
p304
sg31
S'L49-52'
p305
sg32
S'2015'
p306
sssS'2014'
p307
(dp308
g3
(dp309
g5
S'45'
p310
sg7
S'11'
p311
sg9
S'--'
p312
sg10
S'48.9'
p313
sg11
S'--'
p314
sg12
S'280'
p315
sg13
S'6.2'
p316
sg14
g40
sg15
S'SF'
p317
sg16
g40
sg17
S'22'
p318
sg18
S'15'
p319
sg19
S'--'
p320
sg20
g40
sg21
g47
sg22
S'--'
p321
sg23
g40
sg24
g48
sg25
g208
sg26
S'11/16'
p322
sg28
S'Eli Manning'
p323
sg30
S'36.6'
p324
sg31
S'L10-16'
p325
sg32
S'2014'
p326
ssg34
(dp327
g5
S'44'
p328
sg7
S'10'
p329
sg9
S'--'
p330
sg10
S'65.9'
p331
sg11
S'--'
p332
sg12
S'283'
p333
sg13
S'6.4'
p334
sg14
g40
sg15
S'@SEA'
p335
sg16
g40
sg17
S'29'
p336
sg18
S'13'
p337
sg19
S'--'
p338
sg20
g40
sg21
g40
sg22
S'--'
p339
sg23
g40
sg24
g48
sg25
g40
sg26
S'11/09'
p340
sg28
S'Eli Manning'
p341
sg30
S'81.9'
p342
sg31
S'L17-38'
p343
sg32
S'2014'
p344
ssg55
(dp345
g5
S'34'
p346
sg7
S'13'
p347
sg9
S'--'
p348
sg10
S'70.6'
p349
sg11
S'--'
p350
sg12
S'247'
p351
sg13
S'7.3'
p352
sg14
g48
sg15
S'@JAC'
p353
sg16
g40
sg17
S'24'
p354
sg18
S'34'
p355
sg19
S'--'
p356
sg20
g40
sg21
g48
sg22
S'--'
p357
sg23
g40
sg24
g103
sg25
g47
sg26
S'11/30'
p358
sg28
S'Eli Manning'
p359
sg30
S'101.0'
p360
sg31
S'L24-25'
p361
sg32
S'2014'
p362
ssg73
(dp363
g5
S'40'
p364
sg7
S'12'
p365
sg9
S'--'
p366
sg10
S'72.5'
p367
sg11
S'--'
p368
sg12
S'338'
p369
sg13
S'8.4'
p370
sg14
S'--'
p371
sg15
S'DAL'
p372
sg16
g40
sg17
S'29'
p373
sg18
S'10'
p374
sg19
S'--'
p375
sg20
g40
sg21
S'--'
p376
sg22
S'--'
p377
sg23
g49
sg24
g48
sg25
g40
sg26
S'11/23'
p378
sg28
S'Eli Manning'
p379
sg30
S'112.3'
p380
sg31
S'L28-31'
p381
sg32
S'2014'
p382
ssg92
(dp383
g5
S'34'
p384
sg7
S'15'
p385
sg9
S'--'
p386
sg10
S'67.6'
p387
sg11
S'--'
p388
sg12
S'250'
p389
sg13
S'7.4'
p390
sg14
S'--'
p391
sg15
S'WAS'
p392
sg16
g40
sg17
S'23'
p393
sg18
S'12'
p394
sg19
S'--'
p395
sg20
g40
sg21
S'--'
p396
sg22
S'--'
p397
sg23
g49
sg24
g40
sg25
g47
sg26
S'12/14'
p398
sg28
S'Eli Manning'
p399
sg30
S'118.5'
p400
sg31
S'W24-13'
p401
sg32
S'2014'
p402
ssg110
(dp403
g5
S'42'
p404
sg7
S'14'
p405
sg9
S'--'
p406
sg10
S'61.9'
p407
sg11
S'--'
p408
sg12
S'260'
p409
sg13
S'6.2'
p410
sg14
S'--'
p411
sg15
S'@TEN'
p412
sg16
g40
sg17
S'26'
p413
sg18
g47
sg19
S'--'
p414
sg20
g40
sg21
S'--'
p415
sg22
S'--'
p416
sg23
g40
sg24
g47
sg25
g40
sg26
S'12/07'
p417
sg28
S'Eli Manning'
p418
sg30
S'77.5'
p419
sg31
S'W36-7'
p420
sg32
S'2014'
p421
ssg126
(dp422
g5
S'53'
p423
sg7
S'17'
p424
sg9
S'--'
p425
sg10
S'52.8'
p426
sg11
S'--'
p427
sg12
S'429'
p428
sg13
S'8.1'
p429
sg14
S'--'
p430
sg15
S'PHI'
p431
sg16
g40
sg17
S'28'
p432
sg18
g47
sg19
S'--'
p433
sg20
g40
sg21
S'--'
p434
sg22
S'--'
p435
sg23
g40
sg24
g47
sg25
g40
sg26
S'12/28'
p436
sg28
S'Eli Manning'
p437
sg30
S'78.3'
p438
sg31
S'L26-34'
p439
sg32
S'2014'
p440
ssg145
(dp441
g5
S'32'
p442
sg7
S'16'
p443
sg9
S'-1.0'
p444
sg10
S'78.1'
p445
sg11
g49
sg12
S'391'
p446
sg13
S'12.2'
p447
sg14
S'--'
p448
sg15
S'@STL'
p449
sg16
g40
sg17
S'25'
p450
sg18
g208
sg19
S'-3'
p451
sg20
g40
sg21
S'--'
p452
sg22
g47
sg23
g49
sg24
g40
sg25
g47
sg26
S'12/21'
p453
sg28
S'Eli Manning'
p454
sg30
S'148.8'
p455
sg31
S'W37-27'
p456
sg32
S'2014'
p457
ssg40
(dp458
g5
S'33'
p459
sg7
g40
sg9
S'--'
p460
sg10
S'54.5'
p461
sg11
S'--'
p462
sg12
S'163'
p463
sg13
S'4.9'
p464
sg14
S'--'
p465
sg15
S'@DET'
p466
sg16
g40
sg17
S'18'
p467
sg18
S'19'
p468
sg19
S'--'
p469
sg20
g40
sg21
S'--'
p470
sg22
S'--'
p471
sg23
g40
sg24
g48
sg25
g48
sg26
S'09/08'
p472
sg28
S'Eli Manning'
p473
sg30
S'53.0'
p474
sg31
S'L14-35'
p475
sg32
S'2014'
p476
ssg49
(dp477
g5
S'28'
p478
sg7
g49
sg9
S'-1.0'
p479
sg10
S'75.0'
p480
sg11
g40
sg12
S'234'
p481
sg13
S'8.4'
p482
sg14
S'--'
p483
sg15
S'HOU'
p484
sg16
g40
sg17
S'21'
p485
sg18
g137
sg19
S'-1'
p486
sg20
g40
sg21
S'--'
p487
sg22
g47
sg23
g48
sg24
g40
sg25
g47
sg26
S'09/21'
p488
sg28
S'Eli Manning'
p489
sg30
S'123.2'
p490
sg31
S'W30-17'
p491
sg32
S'2014'
p492
ssg48
(dp493
g5
S'39'
p494
sg7
g48
sg9
S'5.0'
p495
sg10
S'66.7'
p496
sg11
g40
sg12
S'277'
p497
sg13
S'7.1'
p498
sg14
S'--'
p499
sg15
S'ARI'
p500
sg16
g40
sg17
S'26'
p501
sg18
S'17'
p502
sg19
g208
sg20
g40
sg21
S'--'
p503
sg22
g47
sg23
g48
sg24
g48
sg25
g48
sg26
S'09/14'
p504
sg28
S'Eli Manning'
p505
sg30
S'83.0'
p506
sg31
S'L14-25'
p507
sg32
S'2014'
p508
ssg208
(dp509
g5
S'30'
p510
sg7
g208
sg9
S'-1.5'
p511
sg10
S'63.3'
p512
sg11
g48
sg12
S'200'
p513
sg13
S'6.7'
p514
sg14
S'--'
p515
sg15
S'ATL'
p516
sg16
g40
sg17
S'19'
p517
sg18
g239
sg19
S'-3'
p518
sg20
g40
sg21
S'--'
p519
sg22
g47
sg23
g48
sg24
g40
sg25
g47
sg26
S'10/05'
p520
sg28
S'Eli Manning'
p521
sg30
S'104.9'
p522
sg31
S'W30-20'
p523
sg32
S'2014'
p524
ssg103
(dp525
g5
S'39'
p526
sg7
g103
sg9
S'1.0'
p527
sg10
S'71.8'
p528
sg11
g40
sg12
S'300'
p529
sg13
S'7.7'
p530
sg14
S'--'
p531
sg15
S'@WAS'
p532
sg16
g40
sg17
S'28'
p533
sg18
g208
sg19
g40
sg20
g40
sg21
S'--'
p534
sg22
g40
sg23
g103
sg24
g40
sg25
g40
sg26
S'09/25'
p535
sg28
S'Eli Manning'
p536
sg30
S'117.5'
p537
sg31
S'W45-14'
p538
sg32
S'2014'
p539
ssg239
(dp540
g5
S'33'
p541
sg7
g239
sg9
S'11.0'
p542
sg10
S'63.6'
p543
sg11
g40
sg12
S'248'
p544
sg13
S'7.5'
p545
sg14
S'--'
p546
sg15
S'@DAL'
p547
sg16
g40
sg17
S'21'
p548
sg18
g47
sg19
S'11'
p549
sg20
g40
sg21
S'--'
p550
sg22
g47
sg23
g49
sg24
g47
sg25
g47
sg26
S'10/19'
p551
sg28
S'Eli Manning'
p552
sg30
S'116.7'
p553
sg31
S'L21-31'
p554
sg32
S'2014'
p555
ssg257
(dp556
g5
S'23'
p557
sg7
g257
sg9
S'1.5'
p558
sg10
S'56.5'
p559
sg11
g48
sg12
S'151'
p560
sg13
S'6.6'
p561
sg14
g40
sg15
S'@PHI'
p562
sg16
g40
sg17
S'13'
p563
sg18
S'32'
p564
sg19
g49
sg20
g40
sg21
g47
sg22
g47
sg23
g47
sg24
g257
sg25
g47
sg26
S'10/12'
p565
sg28
S'Eli Manning'
p566
sg30
S'76.5'
p567
sg31
S'L0-27'
p568
sg32
S'2014'
p569
ssg273
(dp570
g5
S'52'
p571
sg7
g273
sg9
S'18.0'
p572
sg10
S'51.9'
p573
sg11
g40
sg12
S'359'
p574
sg13
S'6.9'
p575
sg14
g48
sg15
S'IND'
p576
sg16
g40
sg17
S'27'
p577
sg18
S'10'
p578
sg19
S'18'
p579
sg20
g40
sg21
g40
sg22
g47
sg23
g48
sg24
g49
sg25
g47
sg26
S'11/03'
p580
sg28
S'Eli Manning'
p581
sg30
S'86.9'
p582
sg31
S'L24-40'
p583
sg32
S'2014'
p584
ssg137
(dp585
g5
g6
sg7
g137
sg9
g6
sg10
g6
sg11
g6
sg12
g6
sg13
g6
sg14
g6
sg15
g6
sg16
g6
sg17
g6
sg18
g6
sg19
g6
sg20
g6
sg21
g6
sg22
g6
sg23
g6
sg24
g6
sg25
g6
sg26
S'Bye'
p586
sg28
S'Eli Manning'
p587
sg30
g6
sg31
g6
sg32
S'2014'
p588
sssS'2011'
p589
(dp590
g3
(dp591
g5
S'35'
p592
sg7
S'11'
p593
sg9
S'--'
p594
sg10
S'51.4'
p595
sg11
S'--'
p596
sg12
S'264'
p597
sg13
S'7.5'
p598
sg14
g40
sg15
S'PHI'
p599
sg16
g40
sg17
S'18'
p600
sg18
S'15'
p601
sg19
S'--'
p602
sg20
g40
sg21
g40
sg22
S'--'
p603
sg23
g40
sg24
g49
sg25
g40
sg26
S'11/20'
p604
sg28
S'Eli Manning'
p605
sg30
S'74.0'
p606
sg31
S'L10-17'
p607
sg32
S'2011'
p608
ssg34
(dp609
g5
S'40'
p610
sg7
S'10'
p611
sg9
S'2.0'
p612
sg10
S'65.0'
p613
sg11
g48
sg12
S'311'
p614
sg13
S'7.8'
p615
sg14
S'--'
p616
sg15
S'@SF'
p617
sg16
g40
sg17
S'26'
p618
sg18
g273
sg19
g103
sg20
g40
sg21
S'--'
p619
sg22
g47
sg23
g48
sg24
g40
sg25
g48
sg26
S'11/13'
p620
sg28
S'Eli Manning'
p621
sg30
S'84.5'
p622
sg31
S'L20-27'
p623
sg32
S'2011'
p624
ssg55
(dp625
g5
S'40'
p626
sg7
S'13'
p627
sg9
S'--'
p628
sg10
S'57.5'
p629
sg11
S'--'
p630
sg12
S'347'
p631
sg13
S'8.7'
p632
sg14
g40
sg15
S'GB'
p633
sg16
g40
sg17
S'23'
p634
sg18
g47
sg19
S'--'
p635
sg20
g40
sg21
g40
sg22
S'--'
p636
sg23
g49
sg24
g40
sg25
g40
sg26
S'12/04'
p637
sg28
S'Eli Manning'
p638
sg30
S'100.7'
p639
sg31
S'L35-38'
p640
sg32
S'2011'
p641
ssg73
(dp642
g5
S'47'
p643
sg7
S'12'
p644
sg9
S'4.0'
p645
sg10
S'70.2'
p646
sg11
g40
sg12
S'406'
p647
sg13
S'8.6'
p648
sg14
g40
sg15
S'@NO'
p649
sg16
g40
sg17
S'33'
p650
sg18
S'14'
p651
sg19
g103
sg20
g40
sg21
g47
sg22
g47
sg23
g48
sg24
g40
sg25
g40
sg26
S'11/28'
p652
sg28
S'Eli Manning'
p653
sg30
S'101.9'
p654
sg31
S'L24-49'
p655
sg32
S'2011'
p656
ssg92
(dp657
g5
S'40'
p658
sg7
S'15'
p659
sg9
S'--'
p660
sg10
S'57.5'
p661
sg11
S'--'
p662
sg12
S'257'
p663
sg13
S'6.4'
p664
sg14
S'--'
p665
sg15
S'WAS'
p666
sg16
g40
sg17
S'23'
p667
sg18
S'24'
p668
sg19
S'--'
p669
sg20
g40
sg21
S'--'
p670
sg22
S'--'
p671
sg23
g47
sg24
g49
sg25
g49
sg26
S'12/18'
p672
sg28
S'Eli Manning'
p673
sg30
S'45.5'
p674
sg31
S'L10-23'
p675
sg32
S'2011'
p676
ssg110
(dp677
g5
S'47'
p678
sg7
S'14'
p679
sg9
S'-1.0'
p680
sg10
S'57.4'
p681
sg11
g48
sg12
S'400'
p682
sg13
S'8.5'
p683
sg14
S'--'
p684
sg15
S'@DAL'
p685
sg16
g40
sg17
S'27'
p686
sg18
g47
sg19
S'-2'
p687
sg20
g40
sg21
S'--'
p688
sg22
g47
sg23
g48
sg24
g47
sg25
g40
sg26
S'12/11'
p689
sg28
S'Eli Manning'
p690
sg30
S'90.7'
p691
sg31
S'W37-34'
p692
sg32
S'2011'
p693
ssg126
(dp694
g5
S'33'
p695
sg7
S'17'
p696
sg9
S'2.3'
p697
sg10
S'72.7'
p698
sg11
g257
sg12
S'346'
p699
sg13
S'10.5'
p700
sg14
S'--'
p701
sg15
S'DAL'
p702
sg16
g40
sg17
S'24'
p703
sg18
S'15'
p704
sg19
S'14'
p705
sg20
g40
sg21
S'--'
p706
sg22
g47
sg23
g49
sg24
g48
sg25
g47
sg26
S'01/01'
p707
sg28
S'Eli Manning'
p708
sg30
S'136.7'
p709
sg31
S'W31-14'
p710
sg32
S'2011'
p711
ssg145
(dp712
g5
S'27'
p713
sg7
S'16'
p714
sg9
S'-1.0'
p715
sg10
S'33.3'
p716
sg11
g40
sg12
S'225'
p717
sg13
S'8.3'
p718
sg14
S'--'
p719
sg15
S'@NYJ'
p720
sg16
g40
sg17
g273
sg18
g137
sg19
S'-1'
p721
sg20
g40
sg21
S'--'
p722
sg22
g47
sg23
g40
sg24
g48
sg25
g40
sg26
S'12/24'
p723
sg28
S'Eli Manning'
p724
sg30
S'61.5'
p725
sg31
S'W29-14'
p726
sg32
S'2011'
p727
ssg40
(dp728
g5
S'32'
p729
sg7
g40
sg9
S'2.0'
p730
sg10
S'56.3'
p731
sg11
g40
sg12
S'268'
p732
sg13
S'8.4'
p733
sg14
g40
sg15
S'@WAS'
p734
sg16
g40
sg17
S'18'
p735
sg18
S'28'
p736
sg19
g48
sg20
g40
sg21
g47
sg22
g40
sg23
g47
sg24
g103
sg25
g40
sg26
S'09/11'
p737
sg28
S'Eli Manning'
p738
sg30
S'70.8'
p739
sg31
S'L14-28'
p740
sg32
S'2011'
p741
ssg49
(dp742
g5
S'23'
p743
sg7
g49
sg9
S'-1.0'
p744
sg10
S'69.6'
p745
sg11
g49
sg12
S'254'
p746
sg13
S'11.0'
p747
sg14
S'--'
p748
sg15
S'@PHI'
p749
sg16
g40
sg17
S'16'
p750
sg18
S'22'
p751
sg19
S'-3'
p752
sg20
g40
sg21
S'--'
p753
sg22
g47
sg23
g103
sg24
g49
sg25
g47
sg26
S'09/25'
p754
sg28
S'Eli Manning'
p755
sg30
S'145.7'
p756
sg31
S'W29-16'
p757
sg32
S'2011'
p758
ssg48
(dp759
g5
S'30'
p760
sg7
g48
sg9
S'-3.0'
p761
sg10
S'63.3'
p762
sg11
g103
sg12
S'223'
p763
sg13
S'7.4'
p764
sg14
S'--'
p765
sg15
S'STL'
p766
sg16
g40
sg17
S'19'
p767
sg18
S'19'
p768
sg19
S'-12'
p769
sg20
g40
sg21
S'--'
p770
sg22
g47
sg23
g48
sg24
g49
sg25
g40
sg26
S'09/19'
p771
sg28
S'Eli Manning'
p772
sg30
S'94.2'
p773
sg31
S'W28-16'
p774
sg32
S'2011'
p775
ssg208
(dp776
g5
S'39'
p777
sg7
g208
sg9
S'1.7'
p778
sg10
S'61.5'
p779
sg11
g49
sg12
S'420'
p780
sg13
S'10.8'
p781
sg14
g48
sg15
S'SEA'
p782
sg16
g40
sg17
S'24'
p783
sg18
S'25'
p784
sg19
g208
sg20
g40
sg21
g40
sg22
g47
sg23
g49
sg24
g49
sg25
g49
sg26
S'10/09'
p785
sg28
S'Eli Manning'
p786
sg30
S'91.8'
p787
sg31
S'L25-36'
p788
sg32
S'2011'
p789
ssg103
(dp790
g5
S'40'
p791
sg7
g103
sg9
S'-1.0'
p792
sg10
S'67.5'
p793
sg11
g49
sg12
S'321'
p794
sg13
S'8.0'
p795
sg14
g40
sg15
S'@ARI'
p796
sg16
g40
sg17
S'27'
p797
sg18
S'15'
p798
sg19
S'-3'
p799
sg20
g40
sg21
g40
sg22
g47
sg23
g48
sg24
g40
sg25
g47
sg26
S'10/02'
p800
sg28
S'Eli Manning'
p801
sg30
S'108.4'
p802
sg31
S'W31-27'
p803
sg32
S'2011'
p804
ssg239
(dp805
g5
g6
sg7
g239
sg9
g6
sg10
g6
sg11
g6
sg12
g6
sg13
g6
sg14
g6
sg15
g6
sg16
g6
sg17
g6
sg18
g6
sg19
g6
sg20
g6
sg21
g6
sg22
g6
sg23
g6
sg24
g6
sg25
g6
sg26
S'Bye'
p806
sg28
S'Eli Manning'
p807
sg30
g6
sg31
g6
sg32
S'2011'
p808
ssg257
(dp809
g5
S'32'
p810
sg7
g257
sg9
S'-0.5'
p811
sg10
S'65.6'
p812
sg11
g48
sg12
S'292'
p813
sg13
S'9.1'
p814
sg14
S'--'
p815
sg15
S'BUF'
p816
sg16
g40
sg17
S'21'
p817
sg18
g47
sg19
S'-1'
p818
sg20
g40
sg21
S'--'
p819
sg22
g47
sg23
g47
sg24
g47
sg25
g47
sg26
S'10/16'
p820
sg28
S'Eli Manning'
p821
sg30
S'94.8'
p822
sg31
S'W27-24'
p823
sg32
S'2011'
p824
ssg273
(dp825
g5
S'39'
p826
sg7
g273
sg9
S'3.7'
p827
sg10
S'51.3'
p828
sg11
g49
sg12
S'250'
p829
sg13
S'6.4'
p830
sg14
S'--'
p831
sg15
S'@NE'
p832
sg16
g40
sg17
S'20'
p833
sg18
g47
sg19
S'11'
p834
sg20
g40
sg21
S'--'
p835
sg22
g47
sg23
g48
sg24
g47
sg25
g40
sg26
S'11/06'
p836
sg28
S'Eli Manning'
p837
sg30
S'77.9'
p838
sg31
S'W24-20'
p839
sg32
S'2011'
p840
ssg137
(dp841
g5
S'45'
p842
sg7
g137
sg9
S'-0.8'
p843
sg10
S'68.9'
p844
sg11
g103
sg12
S'349'
p845
sg13
S'7.8'
p846
sg14
g40
sg15
S'MIA'
p847
sg16
g40
sg17
S'31'
p848
sg18
g208
sg19
S'-3'
p849
sg20
g40
sg21
g47
sg22
g47
sg23
g48
sg24
g40
sg25
g47
sg26
S'10/30'
p850
sg28
S'Eli Manning'
p851
sg30
S'106.6'
p852
sg31
S'W20-17'
p853
sg32
S'2011'
p854
sssS'2010'
p855
(dp856
g3
(dp857
g5
S'33'
p858
sg7
S'11'
p859
sg9
S'11.0'
p860
sg10
S'60.6'
p861
sg11
g48
sg12
S'147'
p862
sg13
S'4.5'
p863
sg14
g40
sg15
S'@PHI'
p864
sg16
g40
sg17
S'20'
p865
sg18
g47
sg19
S'22'
p866
sg20
g40
sg21
g40
sg22
g47
sg23
g48
sg24
g47
sg25
g49
sg26
S'11/21'
p867
sg28
S'Eli Manning'
p868
sg30
S'53.5'
p869
sg31
S'L17-27'
p870
sg32
S'2010'
p871
ssg34
(dp872
g5
S'48'
p873
sg7
S'10'
p874
sg9
S'5.7'
p875
sg10
S'68.8'
p876
sg11
g49
sg12
S'373'
p877
sg13
S'7.8'
p878
sg14
S'--'
p879
sg15
S'DAL'
p880
sg16
g40
sg17
S'33'
p881
sg18
g47
sg19
S'17'
p882
sg20
g40
sg21
S'--'
p883
sg22
g47
sg23
g48
sg24
g47
sg25
g48
sg26
S'11/14'
p884
sg28
S'Eli Manning'
p885
sg30
S'88.3'
p886
sg31
S'L20-33'
p887
sg32
S'2010'
p888
ssg55
(dp889
g5
S'25'
p890
sg7
S'13'
p891
sg9
S'-1.0'
p892
sg10
S'60.0'
p893
sg11
g40
sg12
S'161'
p894
sg13
S'6.4'
p895
sg14
S'--'
p896
sg15
S'WAS'
p897
sg16
g40
sg17
S'15'
p898
sg18
g47
sg19
S'-1'
p899
sg20
g40
sg21
S'--'
p900
sg22
g47
sg23
g47
sg24
g47
sg25
g40
sg26
S'12/05'
p901
sg28
S'Eli Manning'
p902
sg30
S'62.3'
p903
sg31
S'W31-7'
p904
sg32
S'2010'
p905
ssg73
(dp906
g5
S'24'
p907
sg7
S'12'
p908
sg9
S'-0.3'
p909
sg10
S'58.3'
p910
sg11
g49
sg12
S'226'
p911
sg13
S'9.4'
p912
sg14
S'--'
p913
sg15
S'JAC'
p914
sg16
g40
sg17
S'14'
p915
sg18
g47
sg19
S'-1'
p916
sg20
g40
sg21
S'--'
p917
sg22
g47
sg23
g48
sg24
g47
sg25
g47
sg26
S'11/28'
p918
sg28
S'Eli Manning'
p919
sg30
S'117.7'
p920
sg31
S'W24-20'
p921
sg32
S'2010'
p922
ssg92
(dp923
g5
S'39'
p924
sg7
S'15'
p925
sg9
S'--'
p926
sg10
S'59.0'
p927
sg11
S'--'
p928
sg12
S'289'
p929
sg13
S'7.4'
p930
sg14
S'--'
p931
sg15
S'PHI'
p932
sg16
g40
sg17
S'23'
p933
sg18
S'25'
p934
sg19
S'--'
p935
sg20
g40
sg21
S'--'
p936
sg22
S'--'
p937
sg23
g103
sg24
g48
sg25
g40
sg26
S'12/19'
p938
sg28
S'Eli Manning'
p939
sg30
S'105.6'
p940
sg31
S'L31-38'
p941
sg32
S'2010'
p942
ssg110
(dp943
g5
S'37'
p944
sg7
S'14'
p945
sg9
S'--'
p946
sg10
S'59.5'
p947
sg11
S'--'
p948
sg12
S'187'
p949
sg13
S'5.1'
p950
sg14
S'--'
p951
sg15
S'@MIN'
p952
sg16
g40
sg17
S'22'
p953
sg18
g208
sg19
S'--'
p954
sg20
g40
sg21
S'--'
p955
sg22
S'--'
p956
sg23
g40
sg24
g40
sg25
g48
sg26
S'12/13'
p957
sg28
S'Eli Manning'
p958
sg30
S'59.2'
p959
sg31
S'W21-3'
p960
sg32
S'2010'
p961
ssg126
(dp962
g5
S'29'
p963
sg7
S'17'
p964
sg9
S'2.8'
p965
sg10
S'58.6'
p966
sg11
g103
sg12
S'243'
p967
sg13
S'8.4'
p968
sg14
S'--'
p969
sg15
S'@WAS'
p970
sg16
g40
sg17
S'17'
p971
sg18
g47
sg19
S'11'
p972
sg20
g40
sg21
S'--'
p973
sg22
g47
sg23
g40
sg24
g47
sg25
g40
sg26
S'01/02'
p974
sg28
S'Eli Manning'
p975
sg30
S'83.0'
p976
sg31
S'W17-14'
p977
sg32
S'2010'
p978
ssg145
(dp979
g5
S'33'
p980
sg7
S'16'
p981
sg9
S'12.0'
p982
sg10
S'51.5'
p983
sg11
g40
sg12
S'301'
p984
sg13
S'9.1'
p985
sg14
S'--'
p986
sg15
S'@GB'
p987
sg16
g40
sg17
S'17'
p988
sg18
g208
sg19
S'12'
p989
sg20
g40
sg21
S'--'
p990
sg22
g47
sg23
g48
sg24
g40
sg25
g103
sg26
S'12/26'
p991
sg28
S'Eli Manning'
p992
sg30
S'63.6'
p993
sg31
S'L17-45'
p994
sg32
S'2010'
p995
ssg40
(dp996
g5
S'30'
p997
sg7
g40
sg9
S'-0.5'
p998
sg10
S'66.7'
p999
sg11
g103
sg12
S'263'
p1000
sg13
S'8.8'
p1001
sg14
S'--'
p1002
sg15
S'CAR'
p1003
sg16
g40
sg17
S'20'
p1004
sg18
g208
sg19
S'-2'
p1005
sg20
g40
sg21
S'--'
p1006
sg22
g47
sg23
g49
sg24
g40
sg25
g49
sg26
S'09/12'
p1007
sg28
S'Eli Manning'
p1008
sg30
S'87.9'
p1009
sg31
S'W31-18'
p1010
sg32
S'2010'
p1011
ssg49
(dp1012
g5
S'48'
p1013
sg7
g49
sg9
S'2.0'
p1014
sg10
S'70.8'
p1015
sg11
g40
sg12
S'386'
p1016
sg13
S'8.0'
p1017
sg14
S'--'
p1018
sg15
S'TEN'
p1019
sg16
g40
sg17
S'34'
p1020
sg18
S'22'
p1021
sg19
g48
sg20
g40
sg21
S'--'
p1022
sg22
g47
sg23
g47
sg24
g48
sg25
g48
sg26
S'09/26'
p1023
sg28
S'Eli Manning'
p1024
sg30
S'77.3'
p1025
sg31
S'L10-29'
p1026
sg32
S'2010'
p1027
ssg48
(dp1028
g5
S'24'
p1029
sg7
g48
sg9
S'6.0'
p1030
sg10
S'54.2'
p1031
sg11
g40
sg12
S'161'
p1032
sg13
S'6.7'
p1033
sg14
g49
sg15
S'@IND'
p1034
sg16
g40
sg17
S'13'
p1035
sg18
S'24'
p1036
sg19
g257
sg20
g40
sg21
g48
sg22
g47
sg23
g48
sg24
g103
sg25
g40
sg26
S'09/19'
p1037
sg28
S'Eli Manning'
p1038
sg30
S'85.6'
p1039
sg31
S'L14-38'
p1040
sg32
S'2010'
p1041
ssg208
(dp1042
g5
S'42'
p1043
sg7
g208
sg9
S'1.5'
p1044
sg10
S'64.3'
p1045
sg11
g257
sg12
S'297'
p1046
sg13
S'7.1'
p1047
sg14
S'--'
p1048
sg15
S'@HOU'
p1049
sg16
g40
sg17
S'27'
p1050
sg18
g47
sg19
g273
sg20
g40
sg21
S'--'
p1051
sg22
g47
sg23
g49
sg24
g47
sg25
g48
sg26
S'10/10'
p1052
sg28
S'Eli Manning'
p1053
sg30
S'89.1'
p1054
sg31
S'W34-10'
p1055
sg32
S'2010'
p1056
ssg103
(dp1057
g5
S'30'
p1058
sg7
g103
sg9
S'-0.7'
p1059
sg10
S'60.0'
p1060
sg11
g49
sg12
S'195'
p1061
sg13
S'6.5'
p1062
sg14
g48
sg15
S'CHI'
p1063
sg16
g40
sg17
S'18'
p1064
sg18
S'12'
p1065
sg19
S'-2'
p1066
sg20
g40
sg21
g48
sg22
g47
sg23
g47
sg24
g48
sg25
g47
sg26
S'10/03'
p1067
sg28
S'Eli Manning'
p1068
sg30
S'79.2'
p1069
sg31
S'W17-3'
p1070
sg32
S'2010'
p1071
ssg239
(dp1072
g5
S'35'
p1073
sg7
g239
sg9
S'-1.0'
p1074
sg10
S'71.4'
p1075
sg11
g40
sg12
S'306'
p1076
sg13
S'8.7'
p1077
sg14
g40
sg15
S'@DAL'
p1078
sg16
g40
sg17
S'25'
p1079
sg18
g273
sg19
S'-1'
p1080
sg20
g40
sg21
g47
sg22
g47
sg23
g103
sg24
g40
sg25
g49
sg26
S'10/25'
p1081
sg28
S'Eli Manning'
p1082
sg30
S'100.4'
p1083
sg31
S'W41-35'
p1084
sg32
S'2010'
p1085
ssg257
(dp1086
g5
S'30'
p1087
sg7
g257
sg9
S'-1.0'
p1088
sg10
S'66.7'
p1089
sg11
g40
sg12
S'177'
p1090
sg13
S'5.9'
p1091
sg14
S'--'
p1092
sg15
S'DET'
p1093
sg16
g40
sg17
S'20'
p1094
sg18
S'10'
p1095
sg19
S'-1'
p1096
sg20
g40
sg21
S'--'
p1097
sg22
g47
sg23
g48
sg24
g48
sg25
g47
sg26
S'10/17'
p1098
sg28
S'Eli Manning'
p1099
sg30
S'104.4'
p1100
sg31
S'W28-20'
p1101
sg32
S'2010'
p1102
ssg273
(dp1103
g5
S'32'
p1104
sg7
g273
sg9
S'-1.0'
p1105
sg10
S'65.6'
p1106
sg11
g40
sg12
S'290'
p1107
sg13
S'9.1'
p1108
sg14
S'--'
p1109
sg15
S'@SEA'
p1110
sg16
g40
sg17
S'21'
p1111
sg18
g47
sg19
S'-1'
p1112
sg20
g40
sg21
S'--'
p1113
sg22
g47
sg23
g49
sg24
g47
sg25
g47
sg26
S'11/07'
p1114
sg28
S'Eli Manning'
p1115
sg30
S'125.8'
p1116
sg31
S'W41-7'
p1117
sg32
S'2010'
p1118
ssg137
(dp1119
g5
g6
sg7
g137
sg9
g6
sg10
g6
sg11
g6
sg12
g6
sg13
g6
sg14
g6
sg15
g6
sg16
g6
sg17
g6
sg18
g6
sg19
g6
sg20
g6
sg21
g6
sg22
g6
sg23
g6
sg24
g6
sg25
g6
sg26
S'Bye'
p1120
sg28
S'Eli Manning'
p1121
sg30
g6
sg31
g6
sg32
S'2010'
p1122
sssS'2013'
p1123
(dp1124
g3
(dp1125
g5
S'35'
p1126
sg7
S'11'
p1127
sg9
S'3.0'
p1128
sg10
S'71.4'
p1129
sg11
g40
sg12
S'279'
p1130
sg13
S'8.0'
p1131
sg14
S'--'
p1132
sg15
S'GB'
p1133
sg16
g40
sg17
S'25'
p1134
sg18
S'23'
p1135
sg19
g49
sg20
g40
sg21
S'--'
p1136
sg22
g47
sg23
g40
sg24
g103
sg25
g40
sg26
S'11/17'
p1137
sg28
S'Eli Manning'
p1138
sg30
S'92.4'
p1139
sg31
S'W27-13'
p1140
sg32
S'2013'
p1141
ssg34
(dp1142
g5
S'22'
p1143
sg7
S'10'
p1144
sg9
S'-1.0'
p1145
sg10
S'54.5'
p1146
sg11
g49
sg12
S'140'
p1147
sg13
S'6.4'
p1148
sg14
g40
sg15
S'OAK'
p1149
sg16
g40
sg17
S'12'
p1150
sg18
S'22'
p1151
sg19
S'-3'
p1152
sg20
g40
sg21
g47
sg22
g47
sg23
g40
sg24
g49
sg25
g40
sg26
S'11/10'
p1153
sg28
S'Eli Manning'
p1154
sg30
S'70.3'
p1155
sg31
S'W24-20'
p1156
sg32
S'2013'
p1157
ssg55
(dp1158
g5
S'28'
p1159
sg7
S'13'
p1160
sg9
S'0.0'
p1161
sg10
S'78.6'
p1162
sg11
g49
sg12
S'235'
p1163
sg13
S'8.4'
p1164
sg14
S'--'
p1165
sg15
S'@WAS'
p1166
sg16
g40
sg17
S'22'
p1167
sg18
S'29'
p1168
sg19
g47
sg20
g40
sg21
S'--'
p1169
sg22
g47
sg23
g40
sg24
g49
sg25
g40
sg26
S'12/01'
p1170
sg28
S'Eli Manning'
p1171
sg30
S'98.7'
p1172
sg31
S'W24-17'
p1173
sg32
S'2013'
p1174
ssg73
(dp1175
g5
S'30'
p1176
sg7
S'12'
p1177
sg9
S'--'
p1178
sg10
S'53.3'
p1179
sg11
S'--'
p1180
sg12
S'174'
p1181
sg13
S'5.8'
p1182
sg14
S'--'
p1183
sg15
S'DAL'
p1184
sg16
g40
sg17
S'16'
p1185
sg18
S'20'
p1186
sg19
S'--'
p1187
sg20
g40
sg21
S'--'
p1188
sg22
S'--'
p1189
sg23
g48
sg24
g48
sg25
g47
sg26
S'11/24'
p1190
sg28
S'Eli Manning'
p1191
sg30
S'92.9'
p1192
sg31
S'L21-24'
p1193
sg32
S'2013'
p1194
ssg92
(dp1195
g5
S'31'
p1196
sg7
S'15'
p1197
sg9
S'--'
p1198
sg10
S'58.1'
p1199
sg11
S'--'
p1200
sg12
S'156'
p1201
sg13
S'5.0'
p1202
sg14
g48
sg15
S'SEA'
p1203
sg16
g40
sg17
S'18'
p1204
sg18
S'24'
p1205
sg19
S'--'
p1206
sg20
g40
sg21
g47
sg22
S'--'
p1207
sg23
g47
sg24
g49
sg25
g208
sg26
S'12/15'
p1208
sg28
S'Eli Manning'
p1209
sg30
S'31.9'
p1210
sg31
S'L0-23'
p1211
sg32
S'2013'
p1212
ssg110
(dp1213
g5
S'32'
p1214
sg7
S'14'
p1215
sg9
S'--'
p1216
sg10
S'62.5'
p1217
sg11
S'--'
p1218
sg12
S'259'
p1219
sg13
S'8.1'
p1220
sg14
S'--'
p1221
sg15
S'@SD'
p1222
sg16
g40
sg17
S'20'
p1223
sg18
S'18'
p1224
sg19
S'--'
p1225
sg20
g40
sg21
S'--'
p1226
sg22
S'--'
p1227
sg23
g40
sg24
g48
sg25
g48
sg26
S'12/08'
p1228
sg28
S'Eli Manning'
p1229
sg30
S'72.3'
p1230
sg31
S'L14-37'
p1231
sg32
S'2013'
p1232
ssg126
(dp1233
g5
S'24'
p1234
sg7
S'17'
p1235
sg9
S'--'
p1236
sg10
S'41.7'
p1237
sg11
S'--'
p1238
sg12
S'152'
p1239
sg13
S'6.3'
p1240
sg14
S'--'
p1241
sg15
S'WAS'
p1242
sg16
g40
sg17
S'10'
p1243
sg18
g239
sg19
S'--'
p1244
sg20
g40
sg21
S'--'
p1245
sg22
S'--'
p1246
sg23
g40
sg24
g40
sg25
g40
sg26
S'12/29'
p1247
sg28
S'Eli Manning'
p1248
sg30
S'59.7'
p1249
sg31
S'W20-6'
p1250
sg32
S'2013'
p1251
ssg145
(dp1252
g5
S'42'
p1253
sg7
S'16'
p1254
sg9
S'-1.0'
p1255
sg10
S'54.8'
p1256
sg11
g48
sg12
S'256'
p1257
sg13
S'6.1'
p1258
sg14
g40
sg15
S'@DET'
p1259
sg16
g40
sg17
S'23'
p1260
sg18
S'18'
p1261
sg19
S'-2'
p1262
sg20
g40
sg21
g47
sg22
g47
sg23
g40
sg24
g48
sg25
g40
sg26
S'12/22'
p1263
sg28
S'Eli Manning'
p1264
sg30
S'71.1'
p1265
sg31
S'W23-20'
p1266
sg32
S'2013'
p1267
ssg40
(dp1268
g5
S'42'
p1269
sg7
g40
sg9
S'4.0'
p1270
sg10
S'64.3'
p1271
sg11
g48
sg12
S'450'
p1272
sg13
S'10.7'
p1273
sg14
S'--'
p1274
sg15
S'@DAL'
p1275
sg16
g40
sg17
S'27'
p1276
sg18
S'22'
p1277
sg19
g137
sg20
g40
sg21
S'--'
p1278
sg22
g47
sg23
g103
sg24
g49
sg25
g49
sg26
S'09/08'
p1279
sg28
S'Eli Manning'
p1280
sg30
S'102.3'
p1281
sg31
S'L31-36'
p1282
sg32
S'2013'
p1283
ssg49
(dp1284
g5
S'23'
p1285
sg7
g49
sg9
S'14.0'
p1286
sg10
S'52.2'
p1287
sg11
g40
sg12
S'119'
p1288
sg13
S'5.2'
p1289
sg14
S'--'
p1290
sg15
S'@CAR'
p1291
sg16
g40
sg17
S'12'
p1292
sg18
S'45'
p1293
sg19
S'14'
p1294
sg20
g40
sg21
S'--'
p1295
sg22
g47
sg23
g47
sg24
g239
sg25
g40
sg26
S'09/22'
p1296
sg28
S'Eli Manning'
p1297
sg30
S'49.0'
p1298
sg31
S'L0-38'
p1299
sg32
S'2013'
p1300
ssg48
(dp1301
g5
S'49'
p1302
sg7
g48
sg9
S'--'
p1303
sg10
S'57.1'
p1304
sg11
S'--'
p1305
sg12
S'362'
p1306
sg13
S'7.4'
p1307
sg14
S'--'
p1308
sg15
S'DEN'
p1309
sg16
g40
sg17
S'28'
p1310
sg18
g273
sg19
S'--'
p1311
sg20
g40
sg21
S'--'
p1312
sg22
S'--'
p1313
sg23
g40
sg24
g40
sg25
g103
sg26
S'09/15'
p1314
sg28
S'Eli Manning'
p1315
sg30
S'53.3'
p1316
sg31
S'L23-41'
p1317
sg32
S'2013'
p1318
ssg208
(dp1319
g5
S'52'
p1320
sg7
g208
sg9
S'--'
p1321
sg10
S'46.2'
p1322
sg11
S'--'
p1323
sg12
S'334'
p1324
sg13
S'6.4'
p1325
sg14
S'--'
p1326
sg15
S'PHI'
p1327
sg16
g40
sg17
S'24'
p1328
sg18
g103
sg19
S'--'
p1329
sg20
g40
sg21
S'--'
p1330
sg22
S'--'
p1331
sg23
g48
sg24
g40
sg25
g49
sg26
S'10/06'
p1332
sg28
S'Eli Manning'
p1333
sg30
S'56.1'
p1334
sg31
S'L21-36'
p1335
sg32
S'2013'
p1336
ssg103
(dp1337
g5
S'37'
p1338
sg7
g103
sg9
S'6.0'
p1339
sg10
S'48.6'
p1340
sg11
g48
sg12
S'217'
p1341
sg13
S'5.9'
p1342
sg14
g48
sg15
S'@KC'
p1343
sg16
g40
sg17
S'18'
p1344
sg18
S'17'
p1345
sg19
S'12'
p1346
sg20
g40
sg21
g48
sg22
g47
sg23
g40
sg24
g49
sg25
g40
sg26
S'09/29'
p1347
sg28
S'Eli Manning'
p1348
sg30
S'64.8'
p1349
sg31
S'L7-31'
p1350
sg32
S'2013'
p1351
ssg239
(dp1352
g5
S'39'
p1353
sg7
g239
sg9
S'1.7'
p1354
sg10
S'59.0'
p1355
sg11
g49
sg12
S'200'
p1356
sg13
S'5.1'
p1357
sg14
g40
sg15
S'MIN'
p1358
sg16
g40
sg17
S'23'
p1359
sg18
g239
sg19
g208
sg20
g40
sg21
g47
sg22
g47
sg23
g40
sg24
g48
sg25
g47
sg26
S'10/21'
p1360
sg28
S'Eli Manning'
p1361
sg30
S'81.1'
p1362
sg31
S'W23-7'
p1363
sg32
S'2013'
p1364
ssg257
(dp1365
g5
S'26'
p1366
sg7
g257
sg9
S'--'
p1367
sg10
S'53.8'
p1368
sg11
S'--'
p1369
sg12
S'239'
p1370
sg13
S'9.2'
p1371
sg14
S'--'
p1372
sg15
S'@CHI'
p1373
sg16
g40
sg17
S'14'
p1374
sg18
g239
sg19
S'--'
p1375
sg20
g40
sg21
S'--'
p1376
sg22
S'--'
p1377
sg23
g40
sg24
g40
sg25
g49
sg26
S'10/10'
p1378
sg28
S'Eli Manning'
p1379
sg30
S'58.5'
p1380
sg31
S'L21-27'
p1381
sg32
S'2013'
p1382
ssg273
(dp1383
g5
g6
sg7
g273
sg9
g6
sg10
g6
sg11
g6
sg12
g6
sg13
g6
sg14
g6
sg15
g6
sg16
g6
sg17
g6
sg18
g6
sg19
g6
sg20
g6
sg21
g6
sg22
g6
sg23
g6
sg24
g6
sg25
g6
sg26
S'Bye'
p1384
sg28
S'Eli Manning'
p1385
sg30
g6
sg31
g6
sg32
S'2013'
p1386
ssg137
(dp1387
g5
S'39'
p1388
sg7
g137
sg9
S'-1.0'
p1389
sg10
S'64.1'
p1390
sg11
g40
sg12
S'246'
p1391
sg13
S'6.3'
p1392
sg14
S'--'
p1393
sg15
S'@PHI'
p1394
sg16
g40
sg17
S'25'
p1395
sg18
g273
sg19
S'-1'
p1396
sg20
g40
sg21
S'--'
p1397
sg22
g47
sg23
g47
sg24
g40
sg25
g47
sg26
S'10/27'
p1398
sg28
S'Eli Manning'
p1399
sg30
S'81.8'
p1400
sg31
S'W15-7'
p1401
sg32
S'2013'
p1402
sssS'2012'
p1403
(dp1404
g3
(dp1405
g5
g6
sg7
S'11'
p1406
sg9
g6
sg10
g6
sg11
g6
sg12
g6
sg13
g6
sg14
g6
sg15
g6
sg16
g6
sg17
g6
sg18
g6
sg19
g6
sg20
g6
sg21
g6
sg22
g6
sg23
g6
sg24
g6
sg25
g6
sg26
S'Bye'
p1407
sg28
S'Eli Manning'
p1408
sg30
g6
sg31
g6
sg32
S'2012'
p1409
ssg34
(dp1410
g5
S'46'
p1411
sg7
S'10'
p1412
sg9
S'1.0'
p1413
sg10
S'63.0'
p1414
sg11
g40
sg12
S'215'
p1415
sg13
S'4.7'
p1416
sg14
g48
sg15
S'@CIN'
p1417
sg16
g40
sg17
S'29'
p1418
sg18
S'26'
p1419
sg19
g40
sg20
g40
sg21
g40
sg22
g47
sg23
g47
sg24
g103
sg25
g48
sg26
S'11/11'
p1420
sg28
S'Eli Manning'
p1421
sg30
S'56.0'
p1422
sg31
S'L13-31'
p1423
sg32
S'2012'
p1424
ssg55
(dp1425
g5
S'33'
p1426
sg7
S'13'
p1427
sg9
S'5.0'
p1428
sg10
S'60.6'
p1429
sg11
g40
sg12
S'280'
p1430
sg13
S'8.5'
p1431
sg14
S'--'
p1432
sg15
S'@WAS'
p1433
sg16
g40
sg17
S'20'
p1434
sg18
g239
sg19
g208
sg20
g40
sg21
S'--'
p1435
sg22
g47
sg23
g40
sg24
g40
sg25
g47
sg26
S'12/03'
p1436
sg28
S'Eli Manning'
p1437
sg30
S'98.0'
p1438
sg31
S'L16-17'
p1439
sg32
S'2012'
p1440
ssg73
(dp1441
g5
S'30'
p1442
sg7
S'12'
p1443
sg9
S'6.0'
p1444
sg10
S'53.3'
p1445
sg11
g48
sg12
S'249'
p1446
sg13
S'8.3'
p1447
sg14
S'--'
p1448
sg15
S'GB'
p1449
sg16
g40
sg17
S'16'
p1450
sg18
g257
sg19
S'12'
p1451
sg20
g40
sg21
S'--'
p1452
sg22
g47
sg23
g49
sg24
g40
sg25
g47
sg26
S'11/25'
p1453
sg28
S'Eli Manning'
p1454
sg30
S'114.4'
p1455
sg31
S'W38-10'
p1456
sg32
S'2012'
p1457
ssg92
(dp1458
g5
S'25'
p1459
sg7
S'15'
p1460
sg9
S'--'
p1461
sg10
S'52.0'
p1462
sg11
S'--'
p1463
sg12
S'161'
p1464
sg13
S'6.4'
p1465
sg14
S'--'
p1466
sg15
S'@ATL'
p1467
sg16
g40
sg17
S'13'
p1468
sg18
g48
sg19
S'--'
p1469
sg20
g40
sg21
S'--'
p1470
sg22
S'--'
p1471
sg23
g47
sg24
g40
sg25
g48
sg26
S'12/16'
p1472
sg28
S'Eli Manning'
p1473
sg30
S'38.9'
p1474
sg31
S'L0-34'
p1475
sg32
S'2012'
p1476
ssg110
(dp1477
g5
S'35'
p1478
sg7
S'14'
p1479
sg9
S'-1.5'
p1480
sg10
S'62.9'
p1481
sg11
g48
sg12
S'259'
p1482
sg13
S'7.4'
p1483
sg14
S'--'
p1484
sg15
S'NO'
p1485
sg16
g40
sg17
S'22'
p1486
sg18
g47
sg19
S'-3'
p1487
sg20
g40
sg21
S'--'
p1488
sg22
g47
sg23
g103
sg24
g47
sg25
g48
sg26
S'12/09'
p1489
sg28
S'Eli Manning'
p1490
sg30
S'99.6'
p1491
sg31
S'W52-27'
p1492
sg32
S'2012'
p1493
ssg126
(dp1494
g5
S'21'
p1495
sg7
S'17'
p1496
sg9
S'--'
p1497
sg10
S'61.9'
p1498
sg11
S'--'
p1499
sg12
S'208'
p1500
sg13
S'9.9'
p1501
sg14
S'--'
p1502
sg15
S'PHI'
p1503
sg16
g40
sg17
S'13'
p1504
sg18
S'11'
p1505
sg19
S'--'
p1506
sg20
g40
sg21
S'--'
p1507
sg22
S'--'
p1508
sg23
g208
sg24
g40
sg25
g47
sg26
S'12/30'
p1509
sg28
S'Eli Manning'
p1510
sg30
S'134.5'
p1511
sg31
S'W42-7'
p1512
sg32
S'2012'
p1513
ssg145
(dp1514
g5
S'28'
p1515
sg7
S'16'
p1516
sg9
S'8.0'
p1517
sg10
S'50.0'
p1518
sg11
g40
sg12
S'150'
p1519
sg13
S'5.4'
p1520
sg14
S'--'
p1521
sg15
S'@BAL'
p1522
sg16
g40
sg17
S'14'
p1523
sg18
S'31'
p1524
sg19
g137
sg20
g40
sg21
S'--'
p1525
sg22
g47
sg23
g40
sg24
g49
sg25
g47
sg26
S'12/23'
p1526
sg28
S'Eli Manning'
p1527
sg30
S'78.0'
p1528
sg31
S'L14-33'
p1529
sg32
S'2012'
p1530
ssg40
(dp1531
g5
S'32'
p1532
sg7
g40
sg9
S'--'
p1533
sg10
S'65.6'
p1534
sg11
S'--'
p1535
sg12
S'213'
p1536
sg13
S'6.7'
p1537
sg14
S'--'
p1538
sg15
S'DAL'
p1539
sg16
g40
sg17
S'21'
p1540
sg18
S'26'
p1541
sg19
S'--'
p1542
sg20
g40
sg21
S'--'
p1543
sg22
S'--'
p1544
sg23
g40
sg24
g49
sg25
g47
sg26
S'09/05'
p1545
sg28
S'Eli Manning'
p1546
sg30
S'94.9'
p1547
sg31
S'L17-24'
p1548
sg32
S'2012'
p1549
ssg49
(dp1550
g5
S'35'
p1551
sg7
g49
sg9
S'2.5'
p1552
sg10
S'77.1'
p1553
sg11
g48
sg12
S'288'
p1554
sg13
S'8.2'
p1555
sg14
S'--'
p1556
sg15
S'@CAR'
p1557
sg16
g40
sg17
S'27'
p1558
sg18
g257
sg19
g208
sg20
g40
sg21
S'--'
p1559
sg22
g47
sg23
g40
sg24
g40
sg25
g47
sg26
S'09/20'
p1560
sg28
S'Eli Manning'
p1561
sg30
S'110.2'
p1562
sg31
S'W36-7'
p1563
sg32
S'2012'
p1564
ssg48
(dp1565
g5
S'51'
p1566
sg7
g48
sg9
S'-0.7'
p1567
sg10
S'60.8'
p1568
sg11
g49
sg12
S'510'
p1569
sg13
S'10.0'
p1570
sg14
g40
sg15
S'TB'
p1571
sg16
g40
sg17
S'31'
p1572
sg18
g47
sg19
S'-2'
p1573
sg20
g40
sg21
g47
sg22
g47
sg23
g49
sg24
g47
sg25
g49
sg26
S'09/16'
p1574
sg28
S'Eli Manning'
p1575
sg30
S'89.5'
p1576
sg31
S'W41-34'
p1577
sg32
S'2012'
p1578
ssg208
(dp1579
g5
S'37'
p1580
sg7
g208
sg9
S'-0.5'
p1581
sg10
S'67.6'
p1582
sg11
g48
sg12
S'259'
p1583
sg13
S'7.0'
p1584
sg14
S'--'
p1585
sg15
S'CLE'
p1586
sg16
g40
sg17
S'25'
p1587
sg18
g47
sg19
S'-1'
p1588
sg20
g40
sg21
S'--'
p1589
sg22
g47
sg23
g49
sg24
g47
sg25
g40
sg26
S'10/07'
p1590
sg28
S'Eli Manning'
p1591
sg30
S'103.3'
p1592
sg31
S'W41-27'
p1593
sg32
S'2012'
p1594
ssg103
(dp1595
g5
S'42'
p1596
sg7
g103
sg9
S'--'
p1597
sg10
S'57.1'
p1598
sg11
S'--'
p1599
sg12
S'309'
p1600
sg13
S'7.4'
p1601
sg14
g40
sg15
S'@PHI'
p1602
sg16
g40
sg17
S'24'
p1603
sg18
g47
sg19
S'--'
p1604
sg20
g40
sg21
g47
sg22
S'--'
p1605
sg23
g48
sg24
g47
sg25
g40
sg26
S'09/30'
p1606
sg28
S'Eli Manning'
p1607
sg30
S'86.3'
p1608
sg31
S'L17-19'
p1609
sg32
S'2012'
p1610
ssg239
(dp1611
g5
S'40'
p1612
sg7
g239
sg9
S'2.0'
p1613
sg10
S'65.0'
p1614
sg11
g48
sg12
S'337'
p1615
sg13
S'8.4'
p1616
sg14
S'--'
p1617
sg15
S'WAS'
p1618
sg16
g40
sg17
S'26'
p1619
sg18
g137
sg19
g103
sg20
g40
sg21
S'--'
p1620
sg22
g47
sg23
g40
sg24
g40
sg25
g48
sg26
S'10/21'
p1621
sg28
S'Eli Manning'
p1622
sg30
S'78.9'
p1623
sg31
S'W27-23'
p1624
sg32
S'2012'
p1625
ssg257
(dp1626
g5
S'28'
p1627
sg7
g257
sg9
S'-0.7'
p1628
sg10
S'53.6'
p1629
sg11
g49
sg12
S'193'
p1630
sg13
S'6.9'
p1631
sg14
S'--'
p1632
sg15
S'@SF'
p1633
sg16
g40
sg17
S'15'
p1634
sg18
g47
sg19
S'-2'
p1635
sg20
g40
sg21
S'--'
p1636
sg22
g47
sg23
g40
sg24
g47
sg25
g47
sg26
S'10/14'
p1637
sg28
S'Eli Manning'
p1638
sg30
S'87.4'
p1639
sg31
S'W26-3'
p1640
sg32
S'2012'
p1641
ssg273
(dp1642
g5
S'24'
p1643
sg7
g273
sg9
S'--'
p1644
sg10
S'41.7'
p1645
sg11
S'--'
p1646
sg12
S'125'
p1647
sg13
S'5.2'
p1648
sg14
g40
sg15
S'PIT'
p1649
sg16
g40
sg17
S'10'
p1650
sg18
S'11'
p1651
sg19
S'--'
p1652
sg20
g40
sg21
g47
sg22
S'--'
p1653
sg23
g47
sg24
g48
sg25
g40
sg26
S'11/04'
p1654
sg28
S'Eli Manning'
p1655
sg30
S'41.1'
p1656
sg31
S'L20-24'
p1657
sg32
S'2012'
p1658
ssg137
(dp1659
g5
S'29'
p1660
sg7
g137
sg9
S'3.0'
p1661
sg10
S'51.7'
p1662
sg11
g40
sg12
S'192'
p1663
sg13
S'6.6'
p1664
sg14
S'--'
p1665
sg15
S'@DAL'
p1666
sg16
g40
sg17
S'15'
p1667
sg18
g48
sg19
g49
sg20
g40
sg21
S'--'
p1668
sg22
g47
sg23
g47
sg24
g40
sg25
g40
sg26
S'10/28'
p1669
sg28
S'Eli Manning'
p1670
sg30
S'58.4'
p1671
sg31
S'W29-24'
p1672
sg32
S'2012'
p1673
sss.