(dp0
S'2015'
p1
(dp2
S'11'
p3
(dp4
S'PassAtt'
p5
S''
p6
sS'WK'
p7
S'11'
p8
sS'RushAvg'
p9
g6
sS'Pct'
p10
g6
sS'RushAtt'
p11
g6
sS'PassYds'
p12
g6
sS'PassAvg'
p13
g6
sS'FUM'
p14
g6
sS'Opp'
p15
g6
sS'G'
p16
g6
sS'Comp'
p17
g6
sS'SckY'
p18
g6
sS'RushYds'
p19
g6
sS'GS'
p20
g6
sS'Lost'
p21
g6
sS'RushTD'
p22
g6
sS'PassTD'
p23
g6
sS'Sck'
p24
g6
sS'Int'
p25
g6
sS'Game Date'
p26
S'Bye'
p27
sS'Player'
p28
S'Garrett Grayson'
p29
sS'Rate'
p30
g6
sS'Result'
p31
g6
sS'Year'
p32
S'2015'
p33
ssS'10'
p34
(dp35
g5
S'--'
p36
sg7
S'10'
p37
sg9
S'--'
p38
sg10
S'--'
p39
sg11
S'--'
p40
sg12
S'--'
p41
sg13
S'--'
p42
sg14
S'--'
p43
sg15
S'@WAS'
p44
sg16
S'0'
p45
sg17
S'--'
p46
sg18
S'--'
p47
sg19
S'--'
p48
sg20
g45
sg21
S'--'
p49
sg22
S'--'
p50
sg23
S'--'
p51
sg24
S'--'
p52
sg25
S'--'
p53
sg26
S'11/15'
p54
sg28
S'Garrett Grayson'
p55
sg30
S'0.0'
p56
sg31
S'L14-47'
p57
sg32
S'2015'
p58
ssS'13'
p59
(dp60
g5
S'--'
p61
sg7
S'13'
p62
sg9
S'--'
p63
sg10
S'--'
p64
sg11
S'--'
p65
sg12
S'--'
p66
sg13
S'--'
p67
sg14
S'--'
p68
sg15
S'CAR'
p69
sg16
g45
sg17
S'--'
p70
sg18
S'--'
p71
sg19
S'--'
p72
sg20
g45
sg21
S'--'
p73
sg22
S'--'
p74
sg23
S'--'
p75
sg24
S'--'
p76
sg25
S'--'
p77
sg26
S'12/06'
p78
sg28
S'Garrett Grayson'
p79
sg30
S'0.0'
p80
sg31
S'L38-41'
p81
sg32
S'2015'
p82
ssS'12'
p83
(dp84
g5
S'--'
p85
sg7
S'12'
p86
sg9
S'--'
p87
sg10
S'--'
p88
sg11
S'--'
p89
sg12
S'--'
p90
sg13
S'--'
p91
sg14
S'--'
p92
sg15
S'@HOU'
p93
sg16
g45
sg17
S'--'
p94
sg18
S'--'
p95
sg19
S'--'
p96
sg20
g45
sg21
S'--'
p97
sg22
S'--'
p98
sg23
S'--'
p99
sg24
S'--'
p100
sg25
S'--'
p101
sg26
S'11/29'
p102
sg28
S'Garrett Grayson'
p103
sg30
S'0.0'
p104
sg31
S'L6-24'
p105
sg32
S'2015'
p106
ssS'15'
p107
(dp108
g5
S'--'
p109
sg7
S'15'
p110
sg9
S'--'
p111
sg10
S'--'
p112
sg11
S'--'
p113
sg12
S'--'
p114
sg13
S'--'
p115
sg14
S'--'
p116
sg15
S'DET'
p117
sg16
g45
sg17
S'--'
p118
sg18
S'--'
p119
sg19
S'--'
p120
sg20
g45
sg21
S'--'
p121
sg22
S'--'
p122
sg23
S'--'
p123
sg24
S'--'
p124
sg25
S'--'
p125
sg26
S'12/21'
p126
sg28
S'Garrett Grayson'
p127
sg30
S'0.0'
p128
sg31
S'L27-35'
p129
sg32
S'2015'
p130
ssS'14'
p131
(dp132
g5
S'--'
p133
sg7
S'14'
p134
sg9
S'--'
p135
sg10
S'--'
p136
sg11
S'--'
p137
sg12
S'--'
p138
sg13
S'--'
p139
sg14
S'--'
p140
sg15
S'@TB'
p141
sg16
g45
sg17
S'--'
p142
sg18
S'--'
p143
sg19
S'--'
p144
sg20
g45
sg21
S'--'
p145
sg22
S'--'
p146
sg23
S'--'
p147
sg24
S'--'
p148
sg25
S'--'
p149
sg26
S'12/13'
p150
sg28
S'Garrett Grayson'
p151
sg30
S'0.0'
p152
sg31
S'W24-17'
p153
sg32
S'2015'
p154
ssS'17'
p155
(dp156
g5
S'--'
p157
sg7
S'17'
p158
sg9
S'--'
p159
sg10
S'--'
p160
sg11
S'--'
p161
sg12
S'--'
p162
sg13
S'--'
p163
sg14
S'--'
p164
sg15
S'@ATL'
p165
sg16
g45
sg17
S'--'
p166
sg18
S'--'
p167
sg19
S'--'
p168
sg20
g45
sg21
S'--'
p169
sg22
S'--'
p170
sg23
S'--'
p171
sg24
S'--'
p172
sg25
S'--'
p173
sg26
S'01/03'
p174
sg28
S'Garrett Grayson'
p175
sg30
S'0.0'
p176
sg31
S'W20-17'
p177
sg32
S'2015'
p178
ssS'16'
p179
(dp180
g5
S'--'
p181
sg7
S'16'
p182
sg9
S'--'
p183
sg10
S'--'
p184
sg11
S'--'
p185
sg12
S'--'
p186
sg13
S'--'
p187
sg14
S'--'
p188
sg15
S'JAC'
p189
sg16
g45
sg17
S'--'
p190
sg18
S'--'
p191
sg19
S'--'
p192
sg20
g45
sg21
S'--'
p193
sg22
S'--'
p194
sg23
S'--'
p195
sg24
S'--'
p196
sg25
S'--'
p197
sg26
S'12/27'
p198
sg28
S'Garrett Grayson'
p199
sg30
S'0.0'
p200
sg31
S'W38-27'
p201
sg32
S'2015'
p202
ssS'1'
p203
(dp204
g5
S'--'
p205
sg7
g203
sg9
S'--'
p206
sg10
S'--'
p207
sg11
S'--'
p208
sg12
S'--'
p209
sg13
S'--'
p210
sg14
S'--'
p211
sg15
S'@ARI'
p212
sg16
g45
sg17
S'--'
p213
sg18
S'--'
p214
sg19
S'--'
p215
sg20
g45
sg21
S'--'
p216
sg22
S'--'
p217
sg23
S'--'
p218
sg24
S'--'
p219
sg25
S'--'
p220
sg26
S'09/13'
p221
sg28
S'Garrett Grayson'
p222
sg30
S'0.0'
p223
sg31
S'L19-31'
p224
sg32
S'2015'
p225
ssS'3'
p226
(dp227
g5
S'--'
p228
sg7
g226
sg9
S'--'
p229
sg10
S'--'
p230
sg11
S'--'
p231
sg12
S'--'
p232
sg13
S'--'
p233
sg14
S'--'
p234
sg15
S'@CAR'
p235
sg16
g45
sg17
S'--'
p236
sg18
S'--'
p237
sg19
S'--'
p238
sg20
g45
sg21
S'--'
p239
sg22
S'--'
p240
sg23
S'--'
p241
sg24
S'--'
p242
sg25
S'--'
p243
sg26
S'09/27'
p244
sg28
S'Garrett Grayson'
p245
sg30
S'0.0'
p246
sg31
S'L22-27'
p247
sg32
S'2015'
p248
ssS'2'
p249
(dp250
g5
S'--'
p251
sg7
g249
sg9
S'--'
p252
sg10
S'--'
p253
sg11
S'--'
p254
sg12
S'--'
p255
sg13
S'--'
p256
sg14
S'--'
p257
sg15
S'TB'
p258
sg16
g45
sg17
S'--'
p259
sg18
S'--'
p260
sg19
S'--'
p261
sg20
g45
sg21
S'--'
p262
sg22
S'--'
p263
sg23
S'--'
p264
sg24
S'--'
p265
sg25
S'--'
p266
sg26
S'09/20'
p267
sg28
S'Garrett Grayson'
p268
sg30
S'0.0'
p269
sg31
S'L19-26'
p270
sg32
S'2015'
p271
ssS'5'
p272
(dp273
g5
S'--'
p274
sg7
g272
sg9
S'--'
p275
sg10
S'--'
p276
sg11
S'--'
p277
sg12
S'--'
p278
sg13
S'--'
p279
sg14
S'--'
p280
sg15
S'@PHI'
p281
sg16
g45
sg17
S'--'
p282
sg18
S'--'
p283
sg19
S'--'
p284
sg20
g45
sg21
S'--'
p285
sg22
S'--'
p286
sg23
S'--'
p287
sg24
S'--'
p288
sg25
S'--'
p289
sg26
S'10/11'
p290
sg28
S'Garrett Grayson'
p291
sg30
S'0.0'
p292
sg31
S'L17-39'
p293
sg32
S'2015'
p294
ssS'4'
p295
(dp296
g5
S'--'
p297
sg7
g295
sg9
S'--'
p298
sg10
S'--'
p299
sg11
S'--'
p300
sg12
S'--'
p301
sg13
S'--'
p302
sg14
S'--'
p303
sg15
S'DAL'
p304
sg16
g45
sg17
S'--'
p305
sg18
S'--'
p306
sg19
S'--'
p307
sg20
g45
sg21
S'--'
p308
sg22
S'--'
p309
sg23
S'--'
p310
sg24
S'--'
p311
sg25
S'--'
p312
sg26
S'10/04'
p313
sg28
S'Garrett Grayson'
p314
sg30
S'0.0'
p315
sg31
S'W26-20'
p316
sg32
S'2015'
p317
ssS'7'
p318
(dp319
g5
S'--'
p320
sg7
g318
sg9
S'--'
p321
sg10
S'--'
p322
sg11
S'--'
p323
sg12
S'--'
p324
sg13
S'--'
p325
sg14
S'--'
p326
sg15
S'@IND'
p327
sg16
g45
sg17
S'--'
p328
sg18
S'--'
p329
sg19
S'--'
p330
sg20
g45
sg21
S'--'
p331
sg22
S'--'
p332
sg23
S'--'
p333
sg24
S'--'
p334
sg25
S'--'
p335
sg26
S'10/25'
p336
sg28
S'Garrett Grayson'
p337
sg30
S'0.0'
p338
sg31
S'W27-21'
p339
sg32
S'2015'
p340
ssS'6'
p341
(dp342
g5
S'--'
p343
sg7
g341
sg9
S'--'
p344
sg10
S'--'
p345
sg11
S'--'
p346
sg12
S'--'
p347
sg13
S'--'
p348
sg14
S'--'
p349
sg15
S'ATL'
p350
sg16
g45
sg17
S'--'
p351
sg18
S'--'
p352
sg19
S'--'
p353
sg20
g45
sg21
S'--'
p354
sg22
S'--'
p355
sg23
S'--'
p356
sg24
S'--'
p357
sg25
S'--'
p358
sg26
S'10/15'
p359
sg28
S'Garrett Grayson'
p360
sg30
S'0.0'
p361
sg31
S'W31-21'
p362
sg32
S'2015'
p363
ssS'9'
p364
(dp365
g5
S'--'
p366
sg7
g364
sg9
S'--'
p367
sg10
S'--'
p368
sg11
S'--'
p369
sg12
S'--'
p370
sg13
S'--'
p371
sg14
S'--'
p372
sg15
S'TEN'
p373
sg16
g45
sg17
S'--'
p374
sg18
S'--'
p375
sg19
S'--'
p376
sg20
g45
sg21
S'--'
p377
sg22
S'--'
p378
sg23
S'--'
p379
sg24
S'--'
p380
sg25
S'--'
p381
sg26
S'11/08'
p382
sg28
S'Garrett Grayson'
p383
sg30
S'0.0'
p384
sg31
S'L28-34'
p385
sg32
S'2015'
p386
ssS'8'
p387
(dp388
g5
S'--'
p389
sg7
g387
sg9
S'--'
p390
sg10
S'--'
p391
sg11
S'--'
p392
sg12
S'--'
p393
sg13
S'--'
p394
sg14
S'--'
p395
sg15
S'NYG'
p396
sg16
g45
sg17
S'--'
p397
sg18
S'--'
p398
sg19
S'--'
p399
sg20
g45
sg21
S'--'
p400
sg22
S'--'
p401
sg23
S'--'
p402
sg24
S'--'
p403
sg25
S'--'
p404
sg26
S'11/01'
p405
sg28
S'Garrett Grayson'
p406
sg30
S'0.0'
p407
sg31
S'W52-49'
p408
sg32
S'2015'
p409
sss.