(dp0
S'2015'
p1
(dp2
S'11'
p3
(dp4
S'PassAtt'
p5
S'--'
p6
sS'WK'
p7
S'11'
p8
sS'RushAvg'
p9
S'--'
p10
sS'Pct'
p11
S'--'
p12
sS'RushAtt'
p13
S'--'
p14
sS'PassYds'
p15
S'--'
p16
sS'PassAvg'
p17
S'--'
p18
sS'FUM'
p19
S'--'
p20
sS'Opp'
p21
S'@HOU'
p22
sS'G'
p23
S'0'
p24
sS'Comp'
p25
S'--'
p26
sS'SckY'
p27
S'--'
p28
sS'RushYds'
p29
S'--'
p30
sS'GS'
p31
g24
sS'Lost'
p32
S'--'
p33
sS'RushTD'
p34
S'--'
p35
sS'PassTD'
p36
S'--'
p37
sS'Sck'
p38
S'--'
p39
sS'Int'
p40
S'--'
p41
sS'Game Date'
p42
S'11/22'
p43
sS'Player'
p44
S'Geno Smith'
p45
sS'Rate'
p46
S'0.0'
p47
sS'Result'
p48
S'L17-24'
p49
sS'Year'
p50
S'2015'
p51
ssS'10'
p52
(dp53
g5
S'--'
p54
sg7
S'10'
p55
sg9
S'--'
p56
sg11
S'--'
p57
sg13
S'--'
p58
sg15
S'--'
p59
sg17
S'--'
p60
sg19
S'--'
p61
sg21
S'BUF'
p62
sg23
g24
sg25
S'--'
p63
sg27
S'--'
p64
sg29
S'--'
p65
sg31
g24
sg32
S'--'
p66
sg34
S'--'
p67
sg36
S'--'
p68
sg38
S'--'
p69
sg40
S'--'
p70
sg42
S'11/12'
p71
sg44
S'Geno Smith'
p72
sg46
S'0.0'
p73
sg48
S'L17-22'
p74
sg50
S'2015'
p75
ssS'13'
p76
(dp77
g5
S'--'
p78
sg7
S'13'
p79
sg9
S'--'
p80
sg11
S'--'
p81
sg13
S'--'
p82
sg15
S'--'
p83
sg17
S'--'
p84
sg19
S'--'
p85
sg21
S'@NYG'
p86
sg23
g24
sg25
S'--'
p87
sg27
S'--'
p88
sg29
S'--'
p89
sg31
g24
sg32
S'--'
p90
sg34
S'--'
p91
sg36
S'--'
p92
sg38
S'--'
p93
sg40
S'--'
p94
sg42
S'12/06'
p95
sg44
S'Geno Smith'
p96
sg46
S'0.0'
p97
sg48
S'W23-20'
p98
sg50
S'2015'
p99
ssS'12'
p100
(dp101
g5
S'--'
p102
sg7
S'12'
p103
sg9
S'--'
p104
sg11
S'--'
p105
sg13
S'--'
p106
sg15
S'--'
p107
sg17
S'--'
p108
sg19
S'--'
p109
sg21
S'MIA'
p110
sg23
g24
sg25
S'--'
p111
sg27
S'--'
p112
sg29
S'--'
p113
sg31
g24
sg32
S'--'
p114
sg34
S'--'
p115
sg36
S'--'
p116
sg38
S'--'
p117
sg40
S'--'
p118
sg42
S'11/29'
p119
sg44
S'Geno Smith'
p120
sg46
S'0.0'
p121
sg48
S'W38-20'
p122
sg50
S'2015'
p123
ssS'15'
p124
(dp125
g5
S'--'
p126
sg7
S'15'
p127
sg9
S'--'
p128
sg11
S'--'
p129
sg13
S'--'
p130
sg15
S'--'
p131
sg17
S'--'
p132
sg19
S'--'
p133
sg21
S'@DAL'
p134
sg23
g24
sg25
S'--'
p135
sg27
S'--'
p136
sg29
S'--'
p137
sg31
g24
sg32
S'--'
p138
sg34
S'--'
p139
sg36
S'--'
p140
sg38
S'--'
p141
sg40
S'--'
p142
sg42
S'12/19'
p143
sg44
S'Geno Smith'
p144
sg46
S'0.0'
p145
sg48
S'W19-16'
p146
sg50
S'2015'
p147
ssS'14'
p148
(dp149
g5
S'--'
p150
sg7
S'14'
p151
sg9
S'--'
p152
sg11
S'--'
p153
sg13
S'--'
p154
sg15
S'--'
p155
sg17
S'--'
p156
sg19
S'--'
p157
sg21
S'TEN'
p158
sg23
g24
sg25
S'--'
p159
sg27
S'--'
p160
sg29
S'--'
p161
sg31
g24
sg32
S'--'
p162
sg34
S'--'
p163
sg36
S'--'
p164
sg38
S'--'
p165
sg40
S'--'
p166
sg42
S'12/13'
p167
sg44
S'Geno Smith'
p168
sg46
S'0.0'
p169
sg48
S'W30-8'
p170
sg50
S'2015'
p171
ssS'17'
p172
(dp173
g5
S'--'
p174
sg7
S'17'
p175
sg9
S'--'
p176
sg11
S'--'
p177
sg13
S'--'
p178
sg15
S'--'
p179
sg17
S'--'
p180
sg19
S'--'
p181
sg21
S'@BUF'
p182
sg23
g24
sg25
S'--'
p183
sg27
S'--'
p184
sg29
S'--'
p185
sg31
g24
sg32
S'--'
p186
sg34
S'--'
p187
sg36
S'--'
p188
sg38
S'--'
p189
sg40
S'--'
p190
sg42
S'01/03'
p191
sg44
S'Geno Smith'
p192
sg46
S'0.0'
p193
sg48
S'L17-22'
p194
sg50
S'2015'
p195
ssS'16'
p196
(dp197
g5
S'--'
p198
sg7
S'16'
p199
sg9
S'--'
p200
sg11
S'--'
p201
sg13
S'--'
p202
sg15
S'--'
p203
sg17
S'--'
p204
sg19
S'--'
p205
sg21
S'NE'
p206
sg23
g24
sg25
S'--'
p207
sg27
S'--'
p208
sg29
S'--'
p209
sg31
g24
sg32
S'--'
p210
sg34
S'--'
p211
sg36
S'--'
p212
sg38
S'--'
p213
sg40
S'--'
p214
sg42
S'12/27'
p215
sg44
S'Geno Smith'
p216
sg46
S'0.0'
p217
sg48
S'W26-20'
p218
sg50
S'2015'
p219
ssS'1'
p220
(dp221
g5
S'--'
p222
sg7
g220
sg9
S'--'
p223
sg11
S'--'
p224
sg13
S'--'
p225
sg15
S'--'
p226
sg17
S'--'
p227
sg19
S'--'
p228
sg21
S'CLE'
p229
sg23
g24
sg25
S'--'
p230
sg27
S'--'
p231
sg29
S'--'
p232
sg31
g24
sg32
S'--'
p233
sg34
S'--'
p234
sg36
S'--'
p235
sg38
S'--'
p236
sg40
S'--'
p237
sg42
S'09/13'
p238
sg44
S'Geno Smith'
p239
sg46
S'0.0'
p240
sg48
S'W31-10'
p241
sg50
S'2015'
p242
ssS'3'
p243
(dp244
g5
S'--'
p245
sg7
g243
sg9
S'--'
p246
sg11
S'--'
p247
sg13
S'--'
p248
sg15
S'--'
p249
sg17
S'--'
p250
sg19
S'--'
p251
sg21
S'PHI'
p252
sg23
g24
sg25
S'--'
p253
sg27
S'--'
p254
sg29
S'--'
p255
sg31
g24
sg32
S'--'
p256
sg34
S'--'
p257
sg36
S'--'
p258
sg38
S'--'
p259
sg40
S'--'
p260
sg42
S'09/27'
p261
sg44
S'Geno Smith'
p262
sg46
S'0.0'
p263
sg48
S'L17-24'
p264
sg50
S'2015'
p265
ssS'2'
p266
(dp267
g5
S'--'
p268
sg7
g266
sg9
S'--'
p269
sg11
S'--'
p270
sg13
S'--'
p271
sg15
S'--'
p272
sg17
S'--'
p273
sg19
S'--'
p274
sg21
S'@IND'
p275
sg23
g24
sg25
S'--'
p276
sg27
S'--'
p277
sg29
S'--'
p278
sg31
g24
sg32
S'--'
p279
sg34
S'--'
p280
sg36
S'--'
p281
sg38
S'--'
p282
sg40
S'--'
p283
sg42
S'09/21'
p284
sg44
S'Geno Smith'
p285
sg46
S'0.0'
p286
sg48
S'W20-7'
p287
sg50
S'2015'
p288
ssS'5'
p289
(dp290
g5
S''
p291
sg7
g289
sg9
g291
sg11
g291
sg13
g291
sg15
g291
sg17
g291
sg19
g291
sg21
g291
sg23
g291
sg25
g291
sg27
g291
sg29
g291
sg31
g291
sg32
g291
sg34
g291
sg36
g291
sg38
g291
sg40
g291
sg42
S'Bye'
p292
sg44
S'Geno Smith'
p293
sg46
g291
sg48
g291
sg50
S'2015'
p294
ssS'4'
p295
(dp296
g5
S'--'
p297
sg7
g295
sg9
S'--'
p298
sg11
S'--'
p299
sg13
S'--'
p300
sg15
S'--'
p301
sg17
S'--'
p302
sg19
S'--'
p303
sg21
S'@MIA'
p304
sg23
g24
sg25
S'--'
p305
sg27
S'--'
p306
sg29
S'--'
p307
sg31
g24
sg32
S'--'
p308
sg34
S'--'
p309
sg36
S'--'
p310
sg38
S'--'
p311
sg40
S'--'
p312
sg42
S'10/04'
p313
sg44
S'Geno Smith'
p314
sg46
S'0.0'
p315
sg48
S'W27-14'
p316
sg50
S'2015'
p317
ssS'7'
p318
(dp319
g5
S'--'
p320
sg7
g318
sg9
S'--'
p321
sg11
S'--'
p322
sg13
S'--'
p323
sg15
S'--'
p324
sg17
S'--'
p325
sg19
S'--'
p326
sg21
S'@NE'
p327
sg23
g24
sg25
S'--'
p328
sg27
S'--'
p329
sg29
S'--'
p330
sg31
g24
sg32
S'--'
p331
sg34
S'--'
p332
sg36
S'--'
p333
sg38
S'--'
p334
sg40
S'--'
p335
sg42
S'10/25'
p336
sg44
S'Geno Smith'
p337
sg46
S'0.0'
p338
sg48
S'L23-30'
p339
sg50
S'2015'
p340
ssS'6'
p341
(dp342
g5
S'--'
p343
sg7
g341
sg9
S'--'
p344
sg11
S'--'
p345
sg13
S'--'
p346
sg15
S'--'
p347
sg17
S'--'
p348
sg19
S'--'
p349
sg21
S'WAS'
p350
sg23
g24
sg25
S'--'
p351
sg27
S'--'
p352
sg29
S'--'
p353
sg31
g24
sg32
S'--'
p354
sg34
S'--'
p355
sg36
S'--'
p356
sg38
S'--'
p357
sg40
S'--'
p358
sg42
S'10/18'
p359
sg44
S'Geno Smith'
p360
sg46
S'0.0'
p361
sg48
S'W34-20'
p362
sg50
S'2015'
p363
ssS'9'
p364
(dp365
g5
S'--'
p366
sg7
g364
sg9
S'--'
p367
sg11
S'--'
p368
sg13
S'--'
p369
sg15
S'--'
p370
sg17
S'--'
p371
sg19
S'--'
p372
sg21
S'JAC'
p373
sg23
g24
sg25
S'--'
p374
sg27
S'--'
p375
sg29
S'--'
p376
sg31
g24
sg32
S'--'
p377
sg34
S'--'
p378
sg36
S'--'
p379
sg38
S'--'
p380
sg40
S'--'
p381
sg42
S'11/08'
p382
sg44
S'Geno Smith'
p383
sg46
S'0.0'
p384
sg48
S'W28-23'
p385
sg50
S'2015'
p386
ssS'8'
p387
(dp388
g5
S'42'
p389
sg7
g387
sg9
S'17.0'
p390
sg11
S'64.3'
p391
sg13
g266
sg15
S'265'
p392
sg17
S'6.3'
p393
sg19
S'--'
p394
sg21
S'@OAK'
p395
sg23
g220
sg25
S'27'
p396
sg27
S'19'
p397
sg29
S'34'
p398
sg31
g24
sg32
S'--'
p399
sg34
g24
sg36
g266
sg38
g243
sg40
g220
sg42
S'11/01'
p400
sg44
S'Geno Smith'
p401
sg46
S'87.9'
p402
sg48
S'L20-34'
p403
sg50
S'2015'
p404
sssS'2014'
p405
(dp406
g3
(dp407
g5
g291
sg7
S'11'
p408
sg9
g291
sg11
g291
sg13
g291
sg15
g291
sg17
g291
sg19
g291
sg21
g291
sg23
g291
sg25
g291
sg27
g291
sg29
g291
sg31
g291
sg32
g291
sg34
g291
sg36
g291
sg38
g291
sg40
g291
sg42
S'Bye'
p409
sg44
S'Geno Smith'
p410
sg46
g291
sg48
g291
sg50
S'2014'
p411
ssg52
(dp412
g5
S'--'
p413
sg7
S'10'
p414
sg9
S'--'
p415
sg11
S'--'
p416
sg13
S'--'
p417
sg15
S'--'
p418
sg17
S'--'
p419
sg19
S'--'
p420
sg21
S'PIT'
p421
sg23
g24
sg25
S'--'
p422
sg27
S'--'
p423
sg29
S'--'
p424
sg31
g24
sg32
S'--'
p425
sg34
S'--'
p426
sg36
S'--'
p427
sg38
S'--'
p428
sg40
S'--'
p429
sg42
S'11/09'
p430
sg44
S'Geno Smith'
p431
sg46
S'0.0'
p432
sg48
S'W20-13'
p433
sg50
S'2014'
p434
ssg76
(dp435
g5
S'13'
p436
sg7
S'13'
p437
sg9
S'4.8'
p438
sg11
S'53.8'
p439
sg13
g295
sg15
S'65'
p440
sg17
S'5.0'
p441
sg19
g220
sg21
S'MIA'
p442
sg23
g220
sg25
g318
sg27
S'16'
p443
sg29
S'19'
p444
sg31
g220
sg32
g24
sg34
g24
sg36
g24
sg38
g266
sg40
g220
sg42
S'12/01'
p445
sg44
S'Geno Smith'
p446
sg46
S'35.7'
p447
sg48
S'L13-16'
p448
sg50
S'2014'
p449
ssg100
(dp450
g5
S'12'
p451
sg7
S'12'
p452
sg9
S'2.0'
p453
sg11
S'83.3'
p454
sg13
g266
sg15
S'89'
p455
sg17
S'7.4'
p456
sg19
S'--'
p457
sg21
S'@BUF'
p458
sg23
g220
sg25
S'10'
p459
sg27
g364
sg29
g295
sg31
g24
sg32
S'--'
p460
sg34
g24
sg36
g24
sg38
g266
sg40
g24
sg42
S'11/24'
p461
sg44
S'Geno Smith'
p462
sg46
S'97.6'
p463
sg48
S'L3-38'
p464
sg50
S'2014'
p465
ssg124
(dp466
g5
S'28'
p467
sg7
S'15'
p468
sg9
S'4.0'
p469
sg11
S'57.1'
p470
sg13
g295
sg15
S'179'
p471
sg17
S'6.4'
p472
sg19
S'--'
p473
sg21
S'@TEN'
p474
sg23
g220
sg25
S'16'
p475
sg27
S'16'
p476
sg29
S'16'
p477
sg31
g220
sg32
S'--'
p478
sg34
g24
sg36
g220
sg38
g243
sg40
g24
sg42
S'12/14'
p479
sg44
S'Geno Smith'
p480
sg46
S'88.2'
p481
sg48
S'W16-11'
p482
sg50
S'2014'
p483
ssg148
(dp484
g5
S'29'
p485
sg7
S'14'
p486
sg9
S'5.5'
p487
sg11
S'62.1'
p488
sg13
g341
sg15
S'254'
p489
sg17
S'8.8'
p490
sg19
S'--'
p491
sg21
S'@MIN'
p492
sg23
g220
sg25
S'18'
p493
sg27
S'12'
p494
sg29
S'33'
p495
sg31
g220
sg32
S'--'
p496
sg34
g24
sg36
g220
sg38
g243
sg40
g220
sg42
S'12/07'
p497
sg44
S'Geno Smith'
p498
sg46
S'87.4'
p499
sg48
S'L24-30'
p500
sg50
S'2014'
p501
ssg172
(dp502
g5
S'25'
p503
sg7
S'17'
p504
sg9
S'3.6'
p505
sg11
S'80.0'
p506
sg13
g289
sg15
S'358'
p507
sg17
S'14.3'
p508
sg19
g220
sg21
S'@MIA'
p509
sg23
g220
sg25
S'20'
p510
sg27
g341
sg29
S'18'
p511
sg31
g220
sg32
g220
sg34
g24
sg36
g243
sg38
g220
sg40
g24
sg42
S'12/28'
p512
sg44
S'Geno Smith'
p513
sg46
S'158.3'
p514
sg48
S'W37-24'
p515
sg50
S'2014'
p516
ssg196
(dp517
g5
S'27'
p518
sg7
S'16'
p519
sg9
S'3.0'
p520
sg11
S'63.0'
p521
sg13
g243
sg15
S'210'
p522
sg17
S'7.8'
p523
sg19
S'--'
p524
sg21
S'NE'
p525
sg23
g220
sg25
S'17'
p526
sg27
S'19'
p527
sg29
g364
sg31
g220
sg32
S'--'
p528
sg34
g24
sg36
g220
sg38
g266
sg40
g220
sg42
S'12/21'
p529
sg44
S'Geno Smith'
p530
sg46
S'83.9'
p531
sg48
S'L16-17'
p532
sg50
S'2014'
p533
ssg220
(dp534
g5
S'28'
p535
sg7
g220
sg9
S'3.8'
p536
sg11
S'82.1'
p537
sg13
S'10'
p538
sg15
S'221'
p539
sg17
S'7.9'
p540
sg19
g266
sg21
S'OAK'
p541
sg23
g220
sg25
S'23'
p542
sg27
S'31'
p543
sg29
S'38'
p544
sg31
g220
sg32
g220
sg34
g24
sg36
g220
sg38
g266
sg40
g220
sg42
S'09/07'
p545
sg44
S'Geno Smith'
p546
sg46
S'96.6'
p547
sg48
S'W19-14'
p548
sg50
S'2014'
p549
ssg243
(dp550
g5
S'43'
p551
sg7
g243
sg9
S'6.7'
p552
sg11
S'60.5'
p553
sg13
g243
sg15
S'316'
p554
sg17
S'7.3'
p555
sg19
S'--'
p556
sg21
S'CHI'
p557
sg23
g220
sg25
S'26'
p558
sg27
S'16'
p559
sg29
S'20'
p560
sg31
g220
sg32
S'--'
p561
sg34
g24
sg36
g220
sg38
g243
sg40
g266
sg42
S'09/22'
p562
sg44
S'Geno Smith'
p563
sg46
S'71.5'
p564
sg48
S'L19-27'
p565
sg50
S'2014'
p566
ssg266
(dp567
g5
S'32'
p568
sg7
g266
sg9
S'3.7'
p569
sg11
S'50.0'
p570
sg13
g318
sg15
S'176'
p571
sg17
S'5.5'
p572
sg19
S'--'
p573
sg21
S'@GB'
p574
sg23
g220
sg25
S'16'
p575
sg27
g318
sg29
S'26'
p576
sg31
g220
sg32
S'--'
p577
sg34
g220
sg36
g220
sg38
g220
sg40
g220
sg42
S'09/14'
p578
sg44
S'Geno Smith'
p579
sg46
S'64.1'
p580
sg48
S'L24-31'
p581
sg50
S'2014'
p582
ssg289
(dp583
g5
S'12'
p584
sg7
g289
sg9
S'3.0'
p585
sg11
S'33.3'
p586
sg13
g220
sg15
S'27'
p587
sg17
S'2.3'
p588
sg19
S'--'
p589
sg21
S'@SD'
p590
sg23
g220
sg25
g295
sg27
g24
sg29
g243
sg31
g220
sg32
S'--'
p591
sg34
g24
sg36
g24
sg38
g24
sg40
g220
sg42
S'10/05'
p592
sg44
S'Geno Smith'
p593
sg46
S'7.6'
p594
sg48
S'L0-31'
p595
sg50
S'2014'
p596
ssg295
(dp597
g5
S'33'
p598
sg7
g295
sg9
S'1.0'
p599
sg11
S'51.5'
p600
sg13
g295
sg15
S'209'
p601
sg17
S'6.3'
p602
sg19
g266
sg21
S'DET'
p603
sg23
g220
sg25
S'17'
p604
sg27
g289
sg29
g295
sg31
g220
sg32
g220
sg34
g24
sg36
g220
sg38
g266
sg40
g220
sg42
S'09/28'
p605
sg44
S'Geno Smith'
p606
sg46
S'68.9'
p607
sg48
S'L17-24'
p608
sg50
S'2014'
p609
ssg318
(dp610
g5
S'34'
p611
sg7
g318
sg9
S'5.3'
p612
sg11
S'58.8'
p613
sg13
g318
sg15
S'226'
p614
sg17
S'6.6'
p615
sg19
g220
sg21
S'@NE'
p616
sg23
g220
sg25
S'20'
p617
sg27
S'21'
p618
sg29
S'37'
p619
sg31
g220
sg32
g24
sg34
g24
sg36
g220
sg38
g243
sg40
g24
sg42
S'10/16'
p620
sg44
S'Geno Smith'
p621
sg46
S'88.6'
p622
sg48
S'L25-27'
p623
sg50
S'2014'
p624
ssg341
(dp625
g5
S'43'
p626
sg7
g341
sg9
S'5.5'
p627
sg11
S'53.5'
p628
sg13
g266
sg15
S'190'
p629
sg17
S'4.4'
p630
sg19
g220
sg21
S'DEN'
p631
sg23
g220
sg25
S'23'
p632
sg27
S'17'
p633
sg29
S'11'
p634
sg31
g220
sg32
g24
sg34
g24
sg36
g266
sg38
g295
sg40
g220
sg42
S'10/12'
p635
sg44
S'Geno Smith'
p636
sg46
S'70.9'
p637
sg48
S'L17-31'
p638
sg50
S'2014'
p639
ssg364
(dp640
g5
S'--'
p641
sg7
g364
sg9
S'--'
p642
sg11
S'--'
p643
sg13
S'--'
p644
sg15
S'--'
p645
sg17
S'--'
p646
sg19
S'--'
p647
sg21
S'@KC'
p648
sg23
g24
sg25
S'--'
p649
sg27
S'--'
p650
sg29
S'--'
p651
sg31
g24
sg32
S'--'
p652
sg34
S'--'
p653
sg36
S'--'
p654
sg38
S'--'
p655
sg40
S'--'
p656
sg42
S'11/02'
p657
sg44
S'Geno Smith'
p658
sg46
S'0.0'
p659
sg48
S'L10-24'
p660
sg50
S'2014'
p661
ssg387
(dp662
g5
g387
sg7
g387
sg9
S'0.0'
p663
sg11
S'25.0'
p664
sg13
g220
sg15
g289
sg17
S'0.6'
p665
sg19
S'--'
p666
sg21
S'BUF'
p667
sg23
g220
sg25
g266
sg27
g24
sg29
g24
sg31
g220
sg32
S'--'
p668
sg34
g24
sg36
g24
sg38
g24
sg40
g243
sg42
S'10/26'
p669
sg44
S'Geno Smith'
p670
sg46
S'0.0'
p671
sg48
S'L23-43'
p672
sg50
S'2014'
p673
sssS'2013'
p674
(dp675
g3
(dp676
g5
S'23'
p677
sg7
S'11'
p678
sg9
S'0.0'
p679
sg11
S'34.8'
p680
sg13
g220
sg15
S'103'
p681
sg17
S'4.5'
p682
sg19
g266
sg21
S'@BUF'
p683
sg23
g220
sg25
g387
sg27
S'30'
p684
sg29
g24
sg31
g220
sg32
g220
sg34
g24
sg36
g24
sg38
g295
sg40
g243
sg42
S'11/17'
p685
sg44
S'Geno Smith'
p686
sg46
S'10.1'
p687
sg48
S'L14-37'
p688
sg50
S'2013'
p689
ssg52
(dp690
g5
g291
sg7
S'10'
p691
sg9
g291
sg11
g291
sg13
g291
sg15
g291
sg17
g291
sg19
g291
sg21
g291
sg23
g291
sg25
g291
sg27
g291
sg29
g291
sg31
g291
sg32
g291
sg34
g291
sg36
g291
sg38
g291
sg40
g291
sg42
S'Bye'
p692
sg44
S'Geno Smith'
p693
sg46
g291
sg48
g291
sg50
S'2013'
p694
ssg76
(dp695
g5
S'10'
p696
sg7
S'13'
p697
sg9
S'2.0'
p698
sg11
S'40.0'
p699
sg13
g220
sg15
S'29'
p700
sg17
S'2.9'
p701
sg19
S'--'
p702
sg21
S'MIA'
p703
sg23
g220
sg25
g295
sg27
g387
sg29
g266
sg31
g220
sg32
S'--'
p704
sg34
g24
sg36
g24
sg38
g220
sg40
g220
sg42
S'12/01'
p705
sg44
S'Geno Smith'
p706
sg46
S'8.3'
p707
sg48
S'L3-23'
p708
sg50
S'2013'
p709
ssg100
(dp710
g5
S'22'
p711
sg7
S'12'
p712
sg9
S'2.0'
p713
sg11
S'40.9'
p714
sg13
g243
sg15
S'127'
p715
sg17
S'5.8'
p716
sg19
S'--'
p717
sg21
S'@BAL'
p718
sg23
g220
sg25
g364
sg27
S'22'
p719
sg29
g341
sg31
g220
sg32
S'--'
p720
sg34
g24
sg36
g24
sg38
g243
sg40
g266
sg42
S'11/24'
p721
sg44
S'Geno Smith'
p722
sg46
S'22.3'
p723
sg48
S'L3-19'
p724
sg50
S'2013'
p725
ssg124
(dp726
g5
S'28'
p727
sg7
S'15'
p728
sg9
S'7.3'
p729
sg11
S'53.6'
p730
sg13
g341
sg15
S'167'
p731
sg17
S'6.0'
p732
sg19
S'--'
p733
sg21
S'@CAR'
p734
sg23
g220
sg25
S'15'
p735
sg27
S'27'
p736
sg29
S'44'
p737
sg31
g220
sg32
S'--'
p738
sg34
g24
sg36
g220
sg38
g295
sg40
g220
sg42
S'12/15'
p739
sg44
S'Geno Smith'
p740
sg46
S'68.6'
p741
sg48
S'L20-30'
p742
sg50
S'2013'
p743
ssg148
(dp744
g5
S'25'
p745
sg7
S'14'
p746
sg9
S'10.0'
p747
sg11
S'64.0'
p748
sg13
g289
sg15
S'219'
p749
sg17
S'8.8'
p750
sg19
S'--'
p751
sg21
S'OAK'
p752
sg23
g220
sg25
S'16'
p753
sg27
S'10'
p754
sg29
S'50'
p755
sg31
g220
sg32
S'--'
p756
sg34
g220
sg36
g220
sg38
g220
sg40
g220
sg42
S'12/08'
p757
sg44
S'Geno Smith'
p758
sg46
S'88.6'
p759
sg48
S'W37-27'
p760
sg50
S'2013'
p761
ssg172
(dp762
g5
S'27'
p763
sg7
S'17'
p764
sg9
S'4.4'
p765
sg11
S'63.0'
p766
sg13
S'10'
p767
sg15
S'190'
p768
sg17
S'7.0'
p769
sg19
S'--'
p770
sg21
S'@MIA'
p771
sg23
g220
sg25
S'17'
p772
sg27
g24
sg29
S'44'
p773
sg31
g220
sg32
S'--'
p774
sg34
g220
sg36
g24
sg38
g24
sg40
g24
sg42
S'12/29'
p775
sg44
S'Geno Smith'
p776
sg46
S'83.9'
p777
sg48
S'W20-7'
p778
sg50
S'2013'
p779
ssg196
(dp780
g5
S'36'
p781
sg7
S'16'
p782
sg9
S'4.8'
p783
sg11
S'55.6'
p784
sg13
S'10'
p785
sg15
S'214'
p786
sg17
S'5.9'
p787
sg19
S'--'
p788
sg21
S'CLE'
p789
sg23
g220
sg25
S'20'
p790
sg27
g24
sg29
S'48'
p791
sg31
g220
sg32
S'--'
p792
sg34
g220
sg36
g266
sg38
g24
sg40
g24
sg42
S'12/22'
p793
sg44
S'Geno Smith'
p794
sg46
S'91.7'
p795
sg48
S'W24-13'
p796
sg50
S'2013'
p797
ssg220
(dp798
g5
S'38'
p799
sg7
g220
sg9
S'7.8'
p800
sg11
S'63.2'
p801
sg13
g341
sg15
S'256'
p802
sg17
S'6.7'
p803
sg19
g220
sg21
S'TB'
p804
sg23
g220
sg25
S'24'
p805
sg27
S'42'
p806
sg29
S'47'
p807
sg31
g220
sg32
g220
sg34
g24
sg36
g220
sg38
g289
sg40
g220
sg42
S'09/08'
p808
sg44
S'Geno Smith'
p809
sg46
S'80.6'
p810
sg48
S'W18-17'
p811
sg50
S'2013'
p812
ssg243
(dp813
g5
S'29'
p814
sg7
g243
sg9
S'3.5'
p815
sg11
S'55.2'
p816
sg13
g295
sg15
S'331'
p817
sg17
S'11.4'
p818
sg19
S'--'
p819
sg21
S'BUF'
p820
sg23
g220
sg25
S'16'
p821
sg27
g24
sg29
S'14'
p822
sg31
g220
sg32
S'--'
p823
sg34
g220
sg36
g266
sg38
g24
sg40
g266
sg42
S'09/22'
p824
sg44
S'Geno Smith'
p825
sg46
S'89.9'
p826
sg48
S'W27-20'
p827
sg50
S'2013'
p828
ssg266
(dp829
g5
S'35'
p830
sg7
g266
sg9
S'5.7'
p831
sg11
S'42.9'
p832
sg13
g243
sg15
S'214'
p833
sg17
S'6.1'
p834
sg19
S'--'
p835
sg21
S'@NE'
p836
sg23
g220
sg25
S'15'
p837
sg27
S'25'
p838
sg29
S'17'
p839
sg31
g220
sg32
S'--'
p840
sg34
g24
sg36
g24
sg38
g295
sg40
g243
sg42
S'09/12'
p841
sg44
S'Geno Smith'
p842
sg46
S'27.6'
p843
sg48
S'L10-13'
p844
sg50
S'2013'
p845
ssg289
(dp846
g5
S'20'
p847
sg7
g289
sg9
S'7.0'
p848
sg11
S'80.0'
p849
sg13
g243
sg15
S'199'
p850
sg17
S'10.0'
p851
sg19
S'--'
p852
sg21
S'@ATL'
p853
sg23
g220
sg25
S'16'
p854
sg27
S'29'
p855
sg29
S'21'
p856
sg31
g220
sg32
S'--'
p857
sg34
g24
sg36
g243
sg38
g295
sg40
g24
sg42
S'10/07'
p858
sg44
S'Geno Smith'
p859
sg46
S'147.7'
p860
sg48
S'W30-28'
p861
sg50
S'2013'
p862
ssg295
(dp863
g5
S'34'
p864
sg7
g295
sg9
S'2.3'
p865
sg11
S'67.6'
p866
sg13
g243
sg15
S'289'
p867
sg17
S'8.5'
p868
sg19
g266
sg21
S'@TEN'
p869
sg23
g220
sg25
S'23'
p870
sg27
S'50'
p871
sg29
g318
sg31
g220
sg32
g266
sg34
g24
sg36
g220
sg38
g289
sg40
g266
sg42
S'09/29'
p872
sg44
S'Geno Smith'
p873
sg46
S'79.2'
p874
sg48
S'L13-38'
p875
sg50
S'2013'
p876
ssg318
(dp877
g5
S'33'
p878
sg7
g318
sg9
S'5.3'
p879
sg11
S'51.5'
p880
sg13
g341
sg15
S'233'
p881
sg17
S'7.1'
p882
sg19
g266
sg21
S'NE'
p883
sg23
g220
sg25
S'17'
p884
sg27
S'27'
p885
sg29
S'32'
p886
sg31
g220
sg32
g24
sg34
g220
sg36
g220
sg38
g295
sg40
g220
sg42
S'10/20'
p887
sg44
S'Geno Smith'
p888
sg46
S'71.9'
p889
sg48
S'W30-27'
p890
sg50
S'2013'
p891
ssg341
(dp892
g5
S'34'
p893
sg7
g341
sg9
S'2.7'
p894
sg11
S'55.9'
p895
sg13
g243
sg15
S'201'
p896
sg17
S'5.9'
p897
sg19
g220
sg21
S'PIT'
p898
sg23
g220
sg25
S'19'
p899
sg27
S'17'
p900
sg29
g387
sg31
g220
sg32
g24
sg34
g24
sg36
g24
sg38
g243
sg40
g266
sg42
S'10/13'
p901
sg44
S'Geno Smith'
p902
sg46
S'48.8'
p903
sg48
S'L6-19'
p904
sg50
S'2013'
p905
ssg364
(dp906
g5
S'19'
p907
sg7
g364
sg9
S'3.0'
p908
sg11
S'42.1'
p909
sg13
g341
sg15
S'115'
p910
sg17
S'6.1'
p911
sg19
S'--'
p912
sg21
S'NO'
p913
sg23
g220
sg25
g387
sg27
g24
sg29
S'18'
p914
sg31
g220
sg32
S'--'
p915
sg34
g220
sg36
g24
sg38
g266
sg40
g24
sg42
S'11/03'
p916
sg44
S'Geno Smith'
p917
sg46
S'62.4'
p918
sg48
S'W26-20'
p919
sg50
S'2013'
p920
ssg387
(dp921
g5
S'30'
p922
sg7
g387
sg9
S'4.0'
p923
sg11
S'66.7'
p924
sg13
g266
sg15
S'159'
p925
sg17
S'5.3'
p926
sg19
S'--'
p927
sg21
S'@CIN'
p928
sg23
g220
sg25
S'20'
p929
sg27
S'28'
p930
sg29
g387
sg31
g220
sg32
S'--'
p931
sg34
g24
sg36
g24
sg38
g243
sg40
g266
sg42
S'10/27'
p932
sg44
S'Geno Smith'
p933
sg46
S'51.9'
p934
sg48
S'L9-49'
p935
sg50
S'2013'
p936
sss.