(dp0
S'2015'
p1
(dp2
S'11'
p3
(dp4
S'PassAtt'
p5
S'32'
p6
sS'WK'
p7
S'11'
p8
sS'RushAvg'
p9
S'9.7'
p10
sS'Pct'
p11
S'56.3'
p12
sS'RushAtt'
p13
S'3'
p14
sS'PassYds'
p15
S'265'
p16
sS'PassAvg'
p17
S'8.3'
p18
sS'FUM'
p19
S'1'
p20
sS'Opp'
p21
S'DEN'
p22
sS'G'
p23
g20
sS'Comp'
p24
S'18'
p25
sS'SckY'
p26
S'4'
p27
sS'RushYds'
p28
S'29'
p29
sS'GS'
p30
g20
sS'Lost'
p31
g20
sS'RushTD'
p32
S'0'
p33
sS'PassTD'
p34
g33
sS'Sck'
p35
S'2'
p36
sS'Int'
p37
g20
sS'Game Date'
p38
S'11/22'
p39
sS'Player'
p40
S'Jay Cutler'
p41
sS'Rate'
p42
S'70.4'
p43
sS'Result'
p44
S'L15-17'
p45
sS'Year'
p46
S'2015'
p47
ssS'10'
p48
(dp49
g5
S'24'
p50
sg7
S'10'
p51
sg9
S'8.0'
p52
sg11
S'79.2'
p53
sg13
g14
sg15
S'258'
p54
sg17
S'10.8'
p55
sg19
S'--'
p56
sg21
S'@STL'
p57
sg23
g20
sg24
S'19'
p58
sg26
S'14'
p59
sg28
S'24'
p60
sg30
g20
sg31
S'--'
p61
sg32
g33
sg34
g14
sg35
g36
sg37
g33
sg38
S'11/15'
p62
sg40
S'Jay Cutler'
p63
sg42
S'151.0'
p64
sg44
S'W37-13'
p65
sg46
S'2015'
p66
ssS'13'
p67
(dp68
g5
S'31'
p69
sg7
S'13'
p70
sg9
S'2.5'
p71
sg11
S'58.1'
p72
sg13
g27
sg15
S'202'
p73
sg17
S'6.5'
p74
sg19
S'--'
p75
sg21
S'SF'
p76
sg23
g20
sg24
S'18'
p77
sg26
S'8'
p78
sg28
S'10'
p79
sg30
g20
sg31
S'--'
p80
sg32
g33
sg34
g33
sg35
g20
sg37
g20
sg38
S'12/06'
p81
sg40
S'Jay Cutler'
p82
sg42
S'64.2'
p83
sg44
S'L20-26'
p84
sg46
S'2015'
p85
ssS'12'
p86
(dp87
g5
S'31'
p88
sg7
S'12'
p89
sg9
S'2.3'
p90
sg11
S'61.3'
p91
sg13
g27
sg15
S'200'
p92
sg17
S'6.5'
p93
sg19
g20
sg21
S'@GB'
p94
sg23
g20
sg24
S'19'
p95
sg26
S'11'
p96
sg28
S'9'
p97
sg30
g20
sg31
g33
sg32
g33
sg34
g20
sg35
g20
sg37
g33
sg38
S'11/26'
p98
sg40
S'Jay Cutler'
p99
sg42
S'90.8'
p100
sg44
S'W17-13'
p101
sg46
S'2015'
p102
ssS'15'
p103
(dp104
g5
S'37'
p105
sg7
S'15'
p106
sg9
S'1.0'
p107
sg11
S'70.3'
p108
sg13
g20
sg15
S'231'
p109
sg17
S'6.2'
p110
sg19
g20
sg21
S'@MIN'
p111
sg23
g20
sg24
S'26'
p112
sg26
S'32'
p113
sg28
g20
sg30
g20
sg31
g20
sg32
g33
sg34
g36
sg35
S'5'
p114
sg37
g20
sg38
S'12/20'
p115
sg40
S'Jay Cutler'
p116
sg42
S'93.4'
p117
sg44
S'L17-38'
p118
sg46
S'2015'
p119
ssS'14'
p120
(dp121
g5
S'31'
p122
sg7
S'14'
p123
sg9
S'5.0'
p124
sg11
S'61.3'
p125
sg13
g20
sg15
S'315'
p126
sg17
S'10.2'
p127
sg19
g20
sg21
S'WAS'
p128
sg23
g20
sg24
S'19'
p129
sg26
S'25'
p130
sg28
g114
sg30
g20
sg31
g20
sg32
g33
sg34
g36
sg35
g14
sg37
g33
sg38
S'12/13'
p131
sg40
S'Jay Cutler'
p132
sg42
S'117.0'
p133
sg44
S'L21-24'
p134
sg46
S'2015'
p135
ssS'17'
p136
(dp137
g5
S'23'
p138
sg7
S'17'
p139
sg9
S'11.0'
p140
sg11
S'73.9'
p141
sg13
g20
sg15
S'245'
p142
sg17
S'10.7'
p143
sg19
S'--'
p144
sg21
S'DET'
p145
sg23
g20
sg24
S'17'
p146
sg26
S'11'
p147
sg28
S'11'
p148
sg30
g20
sg31
S'--'
p149
sg32
g33
sg34
g36
sg35
g27
sg37
g14
sg38
S'01/03'
p150
sg40
S'Jay Cutler'
p151
sg42
S'97.5'
p152
sg44
S'L20-24'
p153
sg46
S'2015'
p154
ssS'16'
p155
(dp156
g5
S'27'
p157
sg7
S'16'
p158
sg9
S'10.5'
p159
sg11
S'74.1'
p160
sg13
g36
sg15
S'156'
p161
sg17
S'5.8'
p162
sg19
S'--'
p163
sg21
S'@TB'
p164
sg23
g20
sg24
S'20'
p165
sg26
g14
sg28
S'21'
p166
sg30
g20
sg31
S'--'
p167
sg32
g33
sg34
g20
sg35
g20
sg37
g33
sg38
S'12/27'
p168
sg40
S'Jay Cutler'
p169
sg42
S'100.2'
p170
sg44
S'W26-21'
p171
sg46
S'2015'
p172
ssg20
(dp173
g5
S'36'
p174
sg7
g20
sg9
S'7.8'
p175
sg11
S'50.0'
p176
sg13
g27
sg15
S'225'
p177
sg17
S'6.3'
p178
sg19
S'--'
p179
sg21
S'GB'
p180
sg23
g20
sg24
S'18'
p181
sg26
S'12'
p182
sg28
S'31'
p183
sg30
g20
sg31
S'--'
p184
sg32
g33
sg34
g20
sg35
g36
sg37
g20
sg38
S'09/13'
p185
sg40
S'Jay Cutler'
p186
sg42
S'67.5'
p187
sg44
S'L23-31'
p188
sg46
S'2015'
p189
ssg14
(dp190
g5
S'--'
p191
sg7
g14
sg9
S'--'
p192
sg11
S'--'
p193
sg13
S'--'
p194
sg15
S'--'
p195
sg17
S'--'
p196
sg19
S'--'
p197
sg21
S'@SEA'
p198
sg23
g33
sg24
S'--'
p199
sg26
S'--'
p200
sg28
S'--'
p201
sg30
g33
sg31
S'--'
p202
sg32
S'--'
p203
sg34
S'--'
p204
sg35
S'--'
p205
sg37
S'--'
p206
sg38
S'09/27'
p207
sg40
S'Jay Cutler'
p208
sg42
S'0.0'
p209
sg44
S'L0-26'
p210
sg46
S'2015'
p211
ssg36
(dp212
g5
g97
sg7
g36
sg9
S'8.0'
p213
sg11
S'88.9'
p214
sg13
g14
sg15
S'120'
p215
sg17
S'13.3'
p216
sg19
g20
sg21
S'ARI'
p217
sg23
g20
sg24
g78
sg26
g33
sg28
S'24'
p218
sg30
g20
sg31
g33
sg32
g33
sg34
g20
sg35
g33
sg37
g20
sg38
S'09/20'
p219
sg40
S'Jay Cutler'
p220
sg42
S'116.2'
p221
sg44
S'L23-48'
p222
sg46
S'2015'
p223
ssg114
(dp224
g5
S'45'
p225
sg7
g114
sg9
S'3.8'
p226
sg11
S'57.8'
p227
sg13
g27
sg15
S'252'
p228
sg17
S'5.6'
p229
sg19
g36
sg21
S'@KC'
p230
sg23
g20
sg24
S'26'
p231
sg26
S'11'
p232
sg28
S'15'
p233
sg30
g20
sg31
g20
sg32
g33
sg34
g36
sg35
g36
sg37
g33
sg38
S'10/11'
p234
sg40
S'Jay Cutler'
p235
sg42
S'88.4'
p236
sg44
S'W18-17'
p237
sg46
S'2015'
p238
ssg27
(dp239
g5
S'43'
p240
sg7
g27
sg9
S'0.0'
p241
sg11
S'65.1'
p242
sg13
g20
sg15
S'281'
p243
sg17
S'6.5'
p244
sg19
S'--'
p245
sg21
S'OAK'
p246
sg23
g20
sg24
S'28'
p247
sg26
g78
sg28
g33
sg30
g20
sg31
S'--'
p248
sg32
g33
sg34
g36
sg35
g14
sg37
g20
sg38
S'10/04'
p249
sg40
S'Jay Cutler'
p250
sg42
S'89.4'
p251
sg44
S'W22-20'
p252
sg46
S'2015'
p253
ssS'7'
p254
(dp255
g5
S''
p256
sg7
g254
sg9
g256
sg11
g256
sg13
g256
sg15
g256
sg17
g256
sg19
g256
sg21
g256
sg23
g256
sg24
g256
sg26
g256
sg28
g256
sg30
g256
sg31
g256
sg32
g256
sg34
g256
sg35
g256
sg37
g256
sg38
S'Bye'
p257
sg40
S'Jay Cutler'
p258
sg42
g256
sg44
g256
sg46
S'2015'
p259
ssS'6'
p260
(dp261
g5
S'41'
p262
sg7
g260
sg9
S'6.0'
p263
sg11
S'63.4'
p264
sg13
g36
sg15
S'353'
p265
sg17
S'8.6'
p266
sg19
S'--'
p267
sg21
S'@DET'
p268
sg23
g20
sg24
S'26'
p269
sg26
g33
sg28
S'12'
p270
sg30
g20
sg31
S'--'
p271
sg32
g33
sg34
g20
sg35
g20
sg37
g20
sg38
S'10/18'
p272
sg40
S'Jay Cutler'
p273
sg42
S'88.8'
p274
sg44
S'L34-37'
p275
sg46
S'2015'
p276
ssg97
(dp277
g5
S'40'
p278
sg7
g97
sg9
S'-0.7'
p279
sg11
S'67.5'
p280
sg13
g14
sg15
S'345'
p281
sg17
S'8.6'
p282
sg19
g20
sg21
S'@SD'
p283
sg23
g20
sg24
S'27'
p284
sg26
g78
sg28
S'-2'
p285
sg30
g20
sg31
g20
sg32
g33
sg34
g36
sg35
g20
sg37
g20
sg38
S'11/09'
p286
sg40
S'Jay Cutler'
p287
sg42
S'100.5'
p288
sg44
S'W22-19'
p289
sg46
S'2015'
p290
ssg78
(dp291
g5
S'33'
p292
sg7
g78
sg9
S'5.5'
p293
sg11
S'66.7'
p294
sg13
g36
sg15
S'211'
p295
sg17
S'6.4'
p296
sg19
S'--'
p297
sg21
S'MIN'
p298
sg23
g20
sg24
S'22'
p299
sg26
g14
sg28
S'11'
p300
sg30
g20
sg31
S'--'
p301
sg32
g20
sg34
g20
sg35
g20
sg37
g33
sg38
S'11/01'
p302
sg40
S'Jay Cutler'
p303
sg42
S'94.4'
p304
sg44
S'L20-23'
p305
sg46
S'2015'
p306
sssS'2014'
p307
(dp308
g3
(dp309
g5
S'43'
p310
sg7
S'11'
p311
sg9
S'4.2'
p312
sg11
S'72.1'
p313
sg13
g114
sg15
S'330'
p314
sg17
S'7.7'
p315
sg19
S'--'
p316
sg21
S'MIN'
p317
sg23
g20
sg24
S'31'
p318
sg26
g33
sg28
S'21'
p319
sg30
g20
sg31
S'--'
p320
sg32
g33
sg34
g14
sg35
g33
sg37
g36
sg38
S'11/16'
p321
sg40
S'Jay Cutler'
p322
sg42
S'98.0'
p323
sg44
S'W21-13'
p324
sg46
S'2014'
p325
ssg48
(dp326
g5
S'37'
p327
sg7
S'10'
p328
sg9
S'0.0'
p329
sg11
S'59.5'
p330
sg13
g36
sg15
S'272'
p331
sg17
S'7.4'
p332
sg19
g20
sg21
S'@GB'
p333
sg23
g20
sg24
S'22'
p334
sg26
S'18'
p335
sg28
g33
sg30
g20
sg31
g20
sg32
g33
sg34
g20
sg35
g14
sg37
g36
sg38
S'11/09'
p336
sg40
S'Jay Cutler'
p337
sg42
S'68.8'
p338
sg44
S'L14-55'
p339
sg46
S'2014'
p340
ssg67
(dp341
g5
S'48'
p342
sg7
S'13'
p343
sg9
S'-1.0'
p344
sg11
S'64.6'
p345
sg13
g20
sg15
S'280'
p346
sg17
S'5.8'
p347
sg19
S'--'
p348
sg21
S'@DET'
p349
sg23
g20
sg24
S'31'
p350
sg26
S'24'
p351
sg28
S'-1'
p352
sg30
g20
sg31
S'--'
p353
sg32
g33
sg34
g36
sg35
g14
sg37
g36
sg38
S'11/27'
p354
sg40
S'Jay Cutler'
p355
sg42
S'76.7'
p356
sg44
S'L17-34'
p357
sg46
S'2014'
p358
ssg86
(dp359
g5
S'27'
p360
sg7
S'12'
p361
sg9
S'--'
p362
sg11
S'63.0'
p363
sg13
S'--'
p364
sg15
S'130'
p365
sg17
S'4.8'
p366
sg19
g20
sg21
S'TB'
p367
sg23
g20
sg24
S'17'
p368
sg26
S'18'
p369
sg28
S'--'
p370
sg30
g20
sg31
g20
sg32
S'--'
p371
sg34
g20
sg35
g14
sg37
g33
sg38
S'11/23'
p372
sg40
S'Jay Cutler'
p373
sg42
S'87.0'
p374
sg44
S'W21-13'
p375
sg46
S'2014'
p376
ssg103
(dp377
g5
S'31'
p378
sg7
S'15'
p379
sg9
S'20.0'
p380
sg11
S'54.8'
p381
sg13
g20
sg15
S'194'
p382
sg17
S'6.3'
p383
sg19
g20
sg21
S'NO'
p384
sg23
g20
sg24
S'17'
p385
sg26
S'41'
p386
sg28
S'20'
p387
sg30
g20
sg31
g33
sg32
g33
sg34
g36
sg35
g254
sg37
g14
sg38
S'12/15'
p388
sg40
S'Jay Cutler'
p389
sg42
S'55.8'
p390
sg44
S'L15-31'
p391
sg46
S'2014'
p392
ssg120
(dp393
g5
S'46'
p394
sg7
S'14'
p395
sg9
S'4.5'
p396
sg11
S'69.6'
p397
sg13
g36
sg15
S'341'
p398
sg17
S'7.4'
p399
sg19
S'--'
p400
sg21
S'DAL'
p401
sg23
g20
sg24
S'32'
p402
sg26
g33
sg28
g97
sg30
g20
sg31
S'--'
p403
sg32
g20
sg34
g36
sg35
g33
sg37
g20
sg38
S'12/04'
p404
sg40
S'Jay Cutler'
p405
sg42
S'96.4'
p406
sg44
S'L28-41'
p407
sg46
S'2014'
p408
ssg136
(dp409
g5
S'36'
p410
sg7
S'17'
p411
sg9
S'13.0'
p412
sg11
S'63.9'
p413
sg13
g14
sg15
S'172'
p414
sg17
S'4.8'
p415
sg19
S'--'
p416
sg21
S'@MIN'
p417
sg23
g20
sg24
S'23'
p418
sg26
g254
sg28
S'39'
p419
sg30
g20
sg31
S'--'
p420
sg32
g33
sg34
g33
sg35
g36
sg37
g33
sg38
S'12/28'
p421
sg40
S'Jay Cutler'
p422
sg42
S'75.2'
p423
sg44
S'L9-13'
p424
sg46
S'2014'
p425
ssg155
(dp426
g5
S'--'
p427
sg7
S'16'
p428
sg9
S'--'
p429
sg11
S'--'
p430
sg13
S'--'
p431
sg15
S'--'
p432
sg17
S'--'
p433
sg19
S'--'
p434
sg21
S'DET'
p435
sg23
g33
sg24
S'--'
p436
sg26
S'--'
p437
sg28
S'--'
p438
sg30
g33
sg31
S'--'
p439
sg32
S'--'
p440
sg34
S'--'
p441
sg35
S'--'
p442
sg37
S'--'
p443
sg38
S'12/21'
p444
sg40
S'Jay Cutler'
p445
sg42
S'0.0'
p446
sg44
S'L14-20'
p447
sg46
S'2014'
p448
ssg20
(dp449
g5
S'49'
p450
sg7
g20
sg9
S'--'
p451
sg11
S'69.4'
p452
sg13
S'--'
p453
sg15
S'349'
p454
sg17
S'7.1'
p455
sg19
S'--'
p456
sg21
S'BUF'
p457
sg23
g20
sg24
S'34'
p458
sg26
g78
sg28
S'--'
p459
sg30
g20
sg31
S'--'
p460
sg32
S'--'
p461
sg34
g36
sg35
g36
sg37
g36
sg38
S'09/07'
p462
sg40
S'Jay Cutler'
p463
sg42
S'86.2'
p464
sg44
S'L20-23'
p465
sg46
S'2014'
p466
ssg14
(dp467
g5
S'38'
p468
sg7
g14
sg9
S'2.8'
p469
sg11
S'60.5'
p470
sg13
g114
sg15
S'225'
p471
sg17
S'5.9'
p472
sg19
g20
sg21
S'@NYJ'
p473
sg23
g20
sg24
S'23'
p474
sg26
S'28'
p475
sg28
S'14'
p476
sg30
g20
sg31
g20
sg32
g33
sg34
g36
sg35
g27
sg37
g33
sg38
S'09/22'
p477
sg40
S'Jay Cutler'
p478
sg42
S'94.7'
p479
sg44
S'W27-19'
p480
sg46
S'2014'
p481
ssg36
(dp482
g5
S'34'
p483
sg7
g36
sg9
S'5.0'
p484
sg11
S'67.6'
p485
sg13
g114
sg15
S'176'
p486
sg17
S'5.2'
p487
sg19
g20
sg21
S'@SF'
p488
sg23
g20
sg24
S'23'
p489
sg26
g260
sg28
S'25'
p490
sg30
g20
sg31
g33
sg32
g33
sg34
g27
sg35
g20
sg37
g33
sg38
S'09/14'
p491
sg40
S'Jay Cutler'
p492
sg42
S'119.2'
p493
sg44
S'W28-20'
p494
sg46
S'2014'
p495
ssg114
(dp496
g5
S'36'
p497
sg7
g114
sg9
S'7.3'
p498
sg11
S'77.8'
p499
sg13
g14
sg15
S'289'
p500
sg17
S'8.0'
p501
sg19
g20
sg21
S'@CAR'
p502
sg23
g20
sg24
S'28'
p503
sg26
S'27'
p504
sg28
S'22'
p505
sg30
g20
sg31
g20
sg32
g20
sg34
g36
sg35
g27
sg37
g36
sg38
S'10/05'
p506
sg40
S'Jay Cutler'
p507
sg42
S'95.5'
p508
sg44
S'L24-31'
p509
sg46
S'2014'
p510
ssg27
(dp511
g5
S'34'
p512
sg7
g27
sg9
S'9.7'
p513
sg11
S'64.7'
p514
sg13
g14
sg15
S'256'
p515
sg17
S'7.5'
p516
sg19
g36
sg21
S'GB'
p517
sg23
g20
sg24
S'22'
p518
sg26
g27
sg28
S'29'
p519
sg30
g20
sg31
g33
sg32
g33
sg34
g36
sg35
g20
sg37
g36
sg38
S'09/28'
p520
sg40
S'Jay Cutler'
p521
sg42
S'82.5'
p522
sg44
S'L17-38'
p523
sg46
S'2014'
p524
ssg254
(dp525
g5
S'34'
p526
sg7
g254
sg9
S'1.5'
p527
sg11
S'61.8'
p528
sg13
g36
sg15
S'190'
p529
sg17
S'5.6'
p530
sg19
g14
sg21
S'MIA'
p531
sg23
g20
sg24
S'21'
p532
sg26
S'18'
p533
sg28
g14
sg30
g20
sg31
g20
sg32
g33
sg34
g20
sg35
g14
sg37
g20
sg38
S'10/19'
p534
sg40
S'Jay Cutler'
p535
sg42
S'74.4'
p536
sg44
S'L14-27'
p537
sg46
S'2014'
p538
ssg260
(dp539
g5
S'38'
p540
sg7
g260
sg9
S'0.7'
p541
sg11
S'68.4'
p542
sg13
g260
sg15
S'381'
p543
sg17
S'10.0'
p544
sg19
S'--'
p545
sg21
S'@ATL'
p546
sg23
g20
sg24
S'26'
p547
sg26
g260
sg28
g27
sg30
g20
sg31
S'--'
p548
sg32
g33
sg34
g20
sg35
g36
sg37
g33
sg38
S'10/12'
p549
sg40
S'Jay Cutler'
p550
sg42
S'109.6'
p551
sg44
S'W27-13'
p552
sg46
S'2014'
p553
ssg97
(dp554
g5
g256
sg7
g97
sg9
g256
sg11
g256
sg13
g256
sg15
g256
sg17
g256
sg19
g256
sg21
g256
sg23
g256
sg24
g256
sg26
g256
sg28
g256
sg30
g256
sg31
g256
sg32
g256
sg34
g256
sg35
g256
sg37
g256
sg38
S'Bye'
p555
sg40
S'Jay Cutler'
p556
sg42
g256
sg44
g256
sg46
S'2014'
p557
ssg78
(dp558
g5
S'30'
p559
sg7
g78
sg9
S'6.0'
p560
sg11
S'66.7'
p561
sg13
g20
sg15
S'227'
p562
sg17
S'7.6'
p563
sg19
g20
sg21
S'@NE'
p564
sg23
g20
sg24
S'20'
p565
sg26
S'18'
p566
sg28
g260
sg30
g20
sg31
g20
sg32
g33
sg34
g14
sg35
g14
sg37
g20
sg38
S'10/26'
p567
sg40
S'Jay Cutler'
p568
sg42
S'108.6'
p569
sg44
S'L23-51'
p570
sg46
S'2014'
p571
sssS'2011'
p572
(dp573
g3
(dp574
g5
S'31'
p575
sg7
S'11'
p576
sg9
S'2.0'
p577
sg11
S'58.1'
p578
sg13
g114
sg15
S'286'
p579
sg17
S'9.2'
p580
sg19
S'--'
p581
sg21
S'SD'
p582
sg23
g20
sg24
S'18'
p583
sg26
g33
sg28
S'10'
p584
sg30
g20
sg31
S'--'
p585
sg32
g20
sg34
g36
sg35
g33
sg37
g20
sg38
S'11/20'
p586
sg40
S'Jay Cutler'
p587
sg42
S'97.0'
p588
sg44
S'W31-20'
p589
sg46
S'2011'
p590
ssg48
(dp591
g5
S'19'
p592
sg7
S'10'
p593
sg9
S'4.5'
p594
sg11
S'47.4'
p595
sg13
g27
sg15
S'123'
p596
sg17
S'6.5'
p597
sg19
g36
sg21
S'DET'
p598
sg23
g20
sg24
g97
sg26
S'16'
p599
sg28
S'18'
p600
sg30
g20
sg31
g20
sg32
g33
sg34
g33
sg35
g36
sg37
g33
sg38
S'11/13'
p601
sg40
S'Jay Cutler'
p602
sg42
S'68.5'
p603
sg44
S'W37-13'
p604
sg46
S'2011'
p605
ssg67
(dp606
g5
S'--'
p607
sg7
S'13'
p608
sg9
S'--'
p609
sg11
S'--'
p610
sg13
S'--'
p611
sg15
S'--'
p612
sg17
S'--'
p613
sg19
S'--'
p614
sg21
S'KC'
p615
sg23
g33
sg24
S'--'
p616
sg26
S'--'
p617
sg28
S'--'
p618
sg30
g33
sg31
S'--'
p619
sg32
S'--'
p620
sg34
S'--'
p621
sg35
S'--'
p622
sg37
S'--'
p623
sg38
S'12/04'
p624
sg40
S'Jay Cutler'
p625
sg42
S'0.0'
p626
sg44
S'L3-10'
p627
sg46
S'2011'
p628
ssg86
(dp629
g5
S'--'
p630
sg7
S'12'
p631
sg9
S'--'
p632
sg11
S'--'
p633
sg13
S'--'
p634
sg15
S'--'
p635
sg17
S'--'
p636
sg19
S'--'
p637
sg21
S'@OAK'
p638
sg23
g33
sg24
S'--'
p639
sg26
S'--'
p640
sg28
S'--'
p641
sg30
g33
sg31
S'--'
p642
sg32
S'--'
p643
sg34
S'--'
p644
sg35
S'--'
p645
sg37
S'--'
p646
sg38
S'11/27'
p647
sg40
S'Jay Cutler'
p648
sg42
S'0.0'
p649
sg44
S'L20-25'
p650
sg46
S'2011'
p651
ssg103
(dp652
g5
S'--'
p653
sg7
S'15'
p654
sg9
S'--'
p655
sg11
S'--'
p656
sg13
S'--'
p657
sg15
S'--'
p658
sg17
S'--'
p659
sg19
S'--'
p660
sg21
S'SEA'
p661
sg23
g33
sg24
S'--'
p662
sg26
S'--'
p663
sg28
S'--'
p664
sg30
g33
sg31
S'--'
p665
sg32
S'--'
p666
sg34
S'--'
p667
sg35
S'--'
p668
sg37
S'--'
p669
sg38
S'12/18'
p670
sg40
S'Jay Cutler'
p671
sg42
S'0.0'
p672
sg44
S'L14-38'
p673
sg46
S'2011'
p674
ssg120
(dp675
g5
S'--'
p676
sg7
S'14'
p677
sg9
S'--'
p678
sg11
S'--'
p679
sg13
S'--'
p680
sg15
S'--'
p681
sg17
S'--'
p682
sg19
S'--'
p683
sg21
S'@DEN'
p684
sg23
g33
sg24
S'--'
p685
sg26
S'--'
p686
sg28
S'--'
p687
sg30
g33
sg31
S'--'
p688
sg32
S'--'
p689
sg34
S'--'
p690
sg35
S'--'
p691
sg37
S'--'
p692
sg38
S'12/11'
p693
sg40
S'Jay Cutler'
p694
sg42
S'0.0'
p695
sg44
S'L10-13'
p696
sg46
S'2011'
p697
ssg155
(dp698
g5
S'--'
p699
sg7
S'16'
p700
sg9
S'--'
p701
sg11
S'--'
p702
sg13
S'--'
p703
sg15
S'--'
p704
sg17
S'--'
p705
sg19
S'--'
p706
sg21
S'@GB'
p707
sg23
g33
sg24
S'--'
p708
sg26
S'--'
p709
sg28
S'--'
p710
sg30
g33
sg31
S'--'
p711
sg32
S'--'
p712
sg34
S'--'
p713
sg35
S'--'
p714
sg37
S'--'
p715
sg38
S'12/25'
p716
sg40
S'Jay Cutler'
p717
sg42
S'0.0'
p718
sg44
S'L21-35'
p719
sg46
S'2011'
p720
ssg20
(dp721
g5
S'32'
p722
sg7
g20
sg9
S'--'
p723
sg11
S'68.8'
p724
sg13
S'--'
p725
sg15
S'312'
p726
sg17
S'9.8'
p727
sg19
g20
sg21
S'ATL'
p728
sg23
g20
sg24
S'22'
p729
sg26
S'23'
p730
sg28
S'--'
p731
sg30
g20
sg31
g33
sg32
S'--'
p732
sg34
g36
sg35
g114
sg37
g20
sg38
S'09/11'
p733
sg40
S'Jay Cutler'
p734
sg42
S'107.8'
p735
sg44
S'W30-12'
p736
sg46
S'2011'
p737
ssg14
(dp738
g5
S'37'
p739
sg7
g14
sg9
S'3.7'
p740
sg11
S'56.8'
p741
sg13
g14
sg15
S'302'
p742
sg17
S'8.2'
p743
sg19
g20
sg21
S'GB'
p744
sg23
g20
sg24
S'21'
p745
sg26
S'24'
p746
sg28
S'11'
p747
sg30
g20
sg31
g33
sg32
g33
sg34
g36
sg35
g14
sg37
g36
sg38
S'09/25'
p748
sg40
S'Jay Cutler'
p749
sg42
S'78.9'
p750
sg44
S'L17-27'
p751
sg46
S'2011'
p752
ssg36
(dp753
g5
S'45'
p754
sg7
g36
sg9
S'12.0'
p755
sg11
S'42.2'
p756
sg13
g20
sg15
S'244'
p757
sg17
S'5.4'
p758
sg19
g20
sg21
S'@NO'
p759
sg23
g20
sg24
S'19'
p760
sg26
S'58'
p761
sg28
S'12'
p762
sg30
g20
sg31
g20
sg32
g33
sg34
g20
sg35
g260
sg37
g33
sg38
S'09/18'
p763
sg40
S'Jay Cutler'
p764
sg42
S'67.3'
p765
sg44
S'L13-30'
p766
sg46
S'2011'
p767
ssg114
(dp768
g5
S'38'
p769
sg7
g114
sg9
S'1.5'
p770
sg11
S'73.7'
p771
sg13
g36
sg15
S'249'
p772
sg17
S'6.6'
p773
sg19
S'--'
p774
sg21
S'@DET'
p775
sg23
g20
sg24
S'28'
p776
sg26
S'12'
p777
sg28
g14
sg30
g20
sg31
S'--'
p778
sg32
g33
sg34
g20
sg35
g14
sg37
g33
sg38
S'10/10'
p779
sg40
S'Jay Cutler'
p780
sg42
S'99.6'
p781
sg44
S'L13-24'
p782
sg46
S'2011'
p783
ssg27
(dp784
g5
S'17'
p785
sg7
g27
sg9
S'2.0'
p786
sg11
S'52.9'
p787
sg13
g20
sg15
S'102'
p788
sg17
S'6.0'
p789
sg19
S'--'
p790
sg21
S'CAR'
p791
sg23
g20
sg24
g97
sg26
g97
sg28
g36
sg30
g20
sg31
S'--'
p792
sg32
g33
sg34
g33
sg35
g20
sg37
g20
sg38
S'10/02'
p793
sg40
S'Jay Cutler'
p794
sg42
S'46.7'
p795
sg44
S'W34-29'
p796
sg46
S'2011'
p797
ssg254
(dp798
g5
S'32'
p799
sg7
g254
sg9
S'-1.0'
p800
sg11
S'53.1'
p801
sg13
g20
sg15
S'226'
p802
sg17
S'7.1'
p803
sg19
S'--'
p804
sg21
S'@TB'
p805
sg23
g20
sg24
S'17'
p806
sg26
g78
sg28
S'-1'
p807
sg30
g20
sg31
S'--'
p808
sg32
g33
sg34
g20
sg35
g36
sg37
g36
sg38
S'10/23'
p809
sg40
S'Jay Cutler'
p810
sg42
S'60.2'
p811
sg44
S'W24-18'
p812
sg46
S'2011'
p813
ssg260
(dp814
g5
S'31'
p815
sg7
g260
sg9
S'--'
p816
sg11
S'67.7'
p817
sg13
S'--'
p818
sg15
S'267'
p819
sg17
S'8.6'
p820
sg19
g20
sg21
S'MIN'
p821
sg23
g20
sg24
S'21'
p822
sg26
g97
sg28
S'--'
p823
sg30
g20
sg31
g20
sg32
S'--'
p824
sg34
g36
sg35
g20
sg37
g33
sg38
S'10/16'
p825
sg40
S'Jay Cutler'
p826
sg42
S'115.9'
p827
sg44
S'W39-10'
p828
sg46
S'2011'
p829
ssg97
(dp830
g5
S'32'
p831
sg7
g97
sg9
S'0.0'
p832
sg11
S'56.3'
p833
sg13
g20
sg15
S'208'
p834
sg17
S'6.5'
p835
sg19
g20
sg21
S'@PHI'
p836
sg23
g20
sg24
S'18'
p837
sg26
g33
sg28
g33
sg30
g20
sg31
g33
sg32
g33
sg34
g36
sg35
g33
sg37
g33
sg38
S'11/07'
p838
sg40
S'Jay Cutler'
p839
sg42
S'96.9'
p840
sg44
S'W30-24'
p841
sg46
S'2011'
p842
ssg78
(dp843
g5
g256
sg7
g78
sg9
g256
sg11
g256
sg13
g256
sg15
g256
sg17
g256
sg19
g256
sg21
g256
sg23
g256
sg24
g256
sg26
g256
sg28
g256
sg30
g256
sg31
g256
sg32
g256
sg34
g256
sg35
g256
sg37
g256
sg38
S'Bye'
p844
sg40
S'Jay Cutler'
p845
sg42
g256
sg44
g256
sg46
S'2011'
p846
sssS'2010'
p847
(dp848
g3
(dp849
g5
S'25'
p850
sg7
S'11'
p851
sg9
S'7.0'
p852
sg11
S'64.0'
p853
sg13
g27
sg15
S'156'
p854
sg17
S'6.2'
p855
sg19
g20
sg21
S'@MIA'
p856
sg23
g20
sg24
S'16'
p857
sg26
S'23'
p858
sg28
S'28'
p859
sg30
g20
sg31
g33
sg32
g33
sg34
g33
sg35
g14
sg37
g20
sg38
S'11/18'
p860
sg40
S'Jay Cutler'
p861
sg42
S'64.8'
p862
sg44
S'W16-0'
p863
sg46
S'2010'
p864
ssg48
(dp865
g5
S'35'
p866
sg7
S'10'
p867
sg9
S'6.0'
p868
sg11
S'62.9'
p869
sg13
g27
sg15
S'237'
p870
sg17
S'6.8'
p871
sg19
S'--'
p872
sg21
S'MIN'
p873
sg23
g20
sg24
S'22'
p874
sg26
g254
sg28
S'24'
p875
sg30
g20
sg31
S'--'
p876
sg32
g33
sg34
g14
sg35
g36
sg37
g36
sg38
S'11/14'
p877
sg40
S'Jay Cutler'
p878
sg42
S'87.4'
p879
sg44
S'W27-13'
p880
sg46
S'2010'
p881
ssg67
(dp882
g5
S'26'
p883
sg7
S'13'
p884
sg9
S'2.4'
p885
sg11
S'80.8'
p886
sg13
g114
sg15
S'234'
p887
sg17
S'9.0'
p888
sg19
g20
sg21
S'@DET'
p889
sg23
g20
sg24
S'21'
p890
sg26
S'37'
p891
sg28
S'12'
p892
sg30
g20
sg31
g20
sg32
g33
sg34
g20
sg35
g27
sg37
g33
sg38
S'12/05'
p893
sg40
S'Jay Cutler'
p894
sg42
S'117.0'
p895
sg44
S'W24-20'
p896
sg46
S'2010'
p897
ssg86
(dp898
g5
S'21'
p899
sg7
S'12'
p900
sg9
S'2.4'
p901
sg11
S'66.7'
p902
sg13
g254
sg15
S'247'
p903
sg17
S'11.8'
p904
sg19
S'--'
p905
sg21
S'PHI'
p906
sg23
g20
sg24
S'14'
p907
sg26
S'29'
p908
sg28
S'17'
p909
sg30
g20
sg31
S'--'
p910
sg32
g33
sg34
g27
sg35
g27
sg37
g33
sg38
S'11/28'
p911
sg40
S'Jay Cutler'
p912
sg42
S'146.2'
p913
sg44
S'W31-26'
p914
sg46
S'2010'
p915
ssg103
(dp916
g5
S'24'
p917
sg7
S'15'
p918
sg9
S'-1.0'
p919
sg11
S'58.3'
p920
sg13
g20
sg15
S'194'
p921
sg17
S'8.1'
p922
sg19
S'--'
p923
sg21
S'@MIN'
p924
sg23
g20
sg24
S'14'
p925
sg26
g114
sg28
S'-1'
p926
sg30
g20
sg31
S'--'
p927
sg32
g33
sg34
g14
sg35
g20
sg37
g20
sg38
S'12/20'
p928
sg40
S'Jay Cutler'
p929
sg42
S'106.6'
p930
sg44
S'W40-14'
p931
sg46
S'2010'
p932
ssg120
(dp933
g5
S'26'
p934
sg7
S'14'
p935
sg9
S'10.5'
p936
sg11
S'46.2'
p937
sg13
g36
sg15
S'152'
p938
sg17
S'5.8'
p939
sg19
g20
sg21
S'NE'
p940
sg23
g20
sg24
S'12'
p941
sg26
S'14'
p942
sg28
S'21'
p943
sg30
g20
sg31
g20
sg32
g33
sg34
g33
sg35
g36
sg37
g36
sg38
S'12/12'
p944
sg40
S'Jay Cutler'
p945
sg42
S'32.9'
p946
sg44
S'L7-36'
p947
sg46
S'2010'
p948
ssg136
(dp949
g5
S'39'
p950
sg7
S'17'
p951
sg9
S'4.0'
p952
sg11
S'53.8'
p953
sg13
g36
sg15
S'168'
p954
sg17
S'4.3'
p955
sg19
S'--'
p956
sg21
S'@GB'
p957
sg23
g20
sg24
S'21'
p958
sg26
S'51'
p959
sg28
g78
sg30
g20
sg31
S'--'
p960
sg32
g33
sg34
g33
sg35
g260
sg37
g36
sg38
S'01/02'
p961
sg40
S'Jay Cutler'
p962
sg42
S'43.5'
p963
sg44
S'L3-10'
p964
sg46
S'2010'
p965
ssg155
(dp966
g5
S'25'
p967
sg7
S'16'
p968
sg9
S'0.8'
p969
sg11
S'52.0'
p970
sg13
g27
sg15
S'215'
p971
sg17
S'8.6'
p972
sg19
S'--'
p973
sg21
S'NYJ'
p974
sg23
g20
sg24
S'13'
p975
sg26
S'13'
p976
sg28
g14
sg30
g20
sg31
S'--'
p977
sg32
g20
sg34
g14
sg35
g36
sg37
g20
sg38
S'12/26'
p978
sg40
S'Jay Cutler'
p979
sg42
S'104.2'
p980
sg44
S'W38-34'
p981
sg46
S'2010'
p982
ssg20
(dp983
g5
S'35'
p984
sg7
g20
sg9
S'4.4'
p985
sg11
S'65.7'
p986
sg13
g114
sg15
S'372'
p987
sg17
S'10.6'
p988
sg19
g20
sg21
S'DET'
p989
sg23
g20
sg24
S'23'
p990
sg26
S'10'
p991
sg28
S'22'
p992
sg30
g20
sg31
g20
sg32
g33
sg34
g36
sg35
g27
sg37
g20
sg38
S'09/12'
p993
sg40
S'Jay Cutler'
p994
sg42
S'108.3'
p995
sg44
S'W19-14'
p996
sg46
S'2010'
p997
ssg14
(dp998
g5
S'27'
p999
sg7
g14
sg9
S'12.3'
p1000
sg11
S'59.3'
p1001
sg13
g14
sg15
S'221'
p1002
sg17
S'8.2'
p1003
sg19
S'--'
p1004
sg21
S'GB'
p1005
sg23
g20
sg24
S'16'
p1006
sg26
S'22'
p1007
sg28
S'37'
p1008
sg30
g20
sg31
S'--'
p1009
sg32
g33
sg34
g20
sg35
g14
sg37
g20
sg38
S'09/27'
p1010
sg40
S'Jay Cutler'
p1011
sg42
S'82.5'
p1012
sg44
S'W20-17'
p1013
sg46
S'2010'
p1014
ssg36
(dp1015
g5
S'29'
p1016
sg7
g36
sg9
S'0.6'
p1017
sg11
S'72.4'
p1018
sg13
g114
sg15
S'277'
p1019
sg17
S'9.6'
p1020
sg19
S'--'
p1021
sg21
S'@DAL'
p1022
sg23
g20
sg24
S'21'
p1023
sg26
g254
sg28
g14
sg30
g20
sg31
S'--'
p1024
sg32
g33
sg34
g14
sg35
g20
sg37
g33
sg38
S'09/19'
p1025
sg40
S'Jay Cutler'
p1026
sg42
S'136.7'
p1027
sg44
S'W27-20'
p1028
sg46
S'2010'
p1029
ssg114
(dp1030
g5
S'--'
p1031
sg7
g114
sg9
S'--'
p1032
sg11
S'--'
p1033
sg13
S'--'
p1034
sg15
S'--'
p1035
sg17
S'--'
p1036
sg19
S'--'
p1037
sg21
S'@CAR'
p1038
sg23
g33
sg24
S'--'
p1039
sg26
S'--'
p1040
sg28
S'--'
p1041
sg30
g33
sg31
S'--'
p1042
sg32
S'--'
p1043
sg34
S'--'
p1044
sg35
S'--'
p1045
sg37
S'--'
p1046
sg38
S'10/10'
p1047
sg40
S'Jay Cutler'
p1048
sg42
S'0.0'
p1049
sg44
S'W23-6'
p1050
sg46
S'2010'
p1051
ssg27
(dp1052
g5
S'11'
p1053
sg7
g27
sg9
S'--'
p1054
sg11
S'72.7'
p1055
sg13
S'--'
p1056
sg15
S'42'
p1057
sg17
S'3.8'
p1058
sg19
g14
sg21
S'@NYG'
p1059
sg23
g20
sg24
g78
sg26
S'55'
p1060
sg28
S'--'
p1061
sg30
g20
sg31
g20
sg32
S'--'
p1062
sg34
g33
sg35
g97
sg37
g20
sg38
S'10/03'
p1063
sg40
S'Jay Cutler'
p1064
sg42
S'40.7'
p1065
sg44
S'L3-17'
p1066
sg46
S'2010'
p1067
ssg254
(dp1068
g5
S'40'
p1069
sg7
g254
sg9
S'0.0'
p1070
sg11
S'65.0'
p1071
sg13
g20
sg15
S'281'
p1072
sg17
S'7.0'
p1073
sg19
g20
sg21
S'WAS'
p1074
sg23
g20
sg24
S'26'
p1075
sg26
S'25'
p1076
sg28
g33
sg30
g20
sg31
g20
sg32
g33
sg34
g20
sg35
g27
sg37
g27
sg38
S'10/24'
p1077
sg40
S'Jay Cutler'
p1078
sg42
S'54.3'
p1079
sg44
S'L14-17'
p1080
sg46
S'2010'
p1081
ssg260
(dp1082
g5
S'39'
p1083
sg7
g260
sg9
S'9.5'
p1084
sg11
S'43.6'
p1085
sg13
g36
sg15
S'290'
p1086
sg17
S'7.4'
p1087
sg19
g20
sg21
S'SEA'
p1088
sg23
g20
sg24
S'17'
p1089
sg26
S'44'
p1090
sg28
S'19'
p1091
sg30
g20
sg31
g33
sg32
g33
sg34
g33
sg35
g260
sg37
g33
sg38
S'10/17'
p1092
sg40
S'Jay Cutler'
p1093
sg42
S'69.4'
p1094
sg44
S'L20-23'
p1095
sg46
S'2010'
p1096
ssg97
(dp1097
g5
S'30'
p1098
sg7
g97
sg9
S'7.8'
p1099
sg11
S'56.7'
p1100
sg13
g114
sg15
S'188'
p1101
sg17
S'6.3'
p1102
sg19
g20
sg21
S'@BUF'
p1103
sg23
g20
sg24
S'17'
p1104
sg26
S'10'
p1105
sg28
S'39'
p1106
sg30
g20
sg31
g20
sg32
g33
sg34
g36
sg35
g20
sg37
g33
sg38
S'11/07'
p1107
sg40
S'Jay Cutler'
p1108
sg42
S'97.6'
p1109
sg44
S'W22-19'
p1110
sg46
S'2010'
p1111
ssg78
(dp1112
g5
g256
sg7
g78
sg9
g256
sg11
g256
sg13
g256
sg15
g256
sg17
g256
sg19
g256
sg21
g256
sg23
g256
sg24
g256
sg26
g256
sg28
g256
sg30
g256
sg31
g256
sg32
g256
sg34
g256
sg35
g256
sg37
g256
sg38
S'Bye'
p1113
sg40
S'Jay Cutler'
p1114
sg42
g256
sg44
g256
sg46
S'2010'
p1115
sssS'2013'
p1116
(dp1117
g3
(dp1118
g5
S'--'
p1119
sg7
S'11'
p1120
sg9
S'--'
p1121
sg11
S'--'
p1122
sg13
S'--'
p1123
sg15
S'--'
p1124
sg17
S'--'
p1125
sg19
S'--'
p1126
sg21
S'BAL'
p1127
sg23
g33
sg24
S'--'
p1128
sg26
S'--'
p1129
sg28
S'--'
p1130
sg30
g33
sg31
S'--'
p1131
sg32
S'--'
p1132
sg34
S'--'
p1133
sg35
S'--'
p1134
sg37
S'--'
p1135
sg38
S'11/17'
p1136
sg40
S'Jay Cutler'
p1137
sg42
S'0.0'
p1138
sg44
S'W23-20'
p1139
sg46
S'2013'
p1140
ssg48
(dp1141
g5
S'40'
p1142
sg7
S'10'
p1143
sg9
S'--'
p1144
sg11
S'52.5'
p1145
sg13
S'--'
p1146
sg15
S'250'
p1147
sg17
S'6.3'
p1148
sg19
S'--'
p1149
sg21
S'DET'
p1150
sg23
g20
sg24
S'21'
p1151
sg26
g97
sg28
S'--'
p1152
sg30
g20
sg31
S'--'
p1153
sg32
S'--'
p1154
sg34
g20
sg35
g20
sg37
g20
sg38
S'11/10'
p1155
sg40
S'Jay Cutler'
p1156
sg42
S'69.8'
p1157
sg44
S'L19-21'
p1158
sg46
S'2013'
p1159
ssg67
(dp1160
g5
S'--'
p1161
sg7
S'13'
p1162
sg9
S'--'
p1163
sg11
S'--'
p1164
sg13
S'--'
p1165
sg15
S'--'
p1166
sg17
S'--'
p1167
sg19
S'--'
p1168
sg21
S'@MIN'
p1169
sg23
g33
sg24
S'--'
p1170
sg26
S'--'
p1171
sg28
S'--'
p1172
sg30
g33
sg31
S'--'
p1173
sg32
S'--'
p1174
sg34
S'--'
p1175
sg35
S'--'
p1176
sg37
S'--'
p1177
sg38
S'12/01'
p1178
sg40
S'Jay Cutler'
p1179
sg42
S'0.0'
p1180
sg44
S'L20-23'
p1181
sg46
S'2013'
p1182
ssg86
(dp1183
g5
S'--'
p1184
sg7
S'12'
p1185
sg9
S'--'
p1186
sg11
S'--'
p1187
sg13
S'--'
p1188
sg15
S'--'
p1189
sg17
S'--'
p1190
sg19
S'--'
p1191
sg21
S'@STL'
p1192
sg23
g33
sg24
S'--'
p1193
sg26
S'--'
p1194
sg28
S'--'
p1195
sg30
g33
sg31
S'--'
p1196
sg32
S'--'
p1197
sg34
S'--'
p1198
sg35
S'--'
p1199
sg37
S'--'
p1200
sg38
S'11/24'
p1201
sg40
S'Jay Cutler'
p1202
sg42
S'0.0'
p1203
sg44
S'L21-42'
p1204
sg46
S'2013'
p1205
ssg103
(dp1206
g5
S'31'
p1207
sg7
S'15'
p1208
sg9
S'3.7'
p1209
sg11
S'71.0'
p1210
sg13
g14
sg15
S'265'
p1211
sg17
S'8.5'
p1212
sg19
S'--'
p1213
sg21
S'@CLE'
p1214
sg23
g20
sg24
S'22'
p1215
sg26
g27
sg28
S'11'
p1216
sg30
g20
sg31
S'--'
p1217
sg32
g33
sg34
g14
sg35
g36
sg37
g36
sg38
S'12/15'
p1218
sg40
S'Jay Cutler'
p1219
sg42
S'102.2'
p1220
sg44
S'W38-31'
p1221
sg46
S'2013'
p1222
ssg120
(dp1223
g5
S'--'
p1224
sg7
S'14'
p1225
sg9
S'--'
p1226
sg11
S'--'
p1227
sg13
S'--'
p1228
sg15
S'--'
p1229
sg17
S'--'
p1230
sg19
S'--'
p1231
sg21
S'DAL'
p1232
sg23
g33
sg24
S'--'
p1233
sg26
S'--'
p1234
sg28
S'--'
p1235
sg30
g33
sg31
S'--'
p1236
sg32
S'--'
p1237
sg34
S'--'
p1238
sg35
S'--'
p1239
sg37
S'--'
p1240
sg38
S'12/09'
p1241
sg40
S'Jay Cutler'
p1242
sg42
S'0.0'
p1243
sg44
S'W45-28'
p1244
sg46
S'2013'
p1245
ssg136
(dp1246
g5
S'24'
p1247
sg7
S'17'
p1248
sg9
S'--'
p1249
sg11
S'62.5'
p1250
sg13
S'--'
p1251
sg15
S'226'
p1252
sg17
S'9.4'
p1253
sg19
S'--'
p1254
sg21
S'GB'
p1255
sg23
g20
sg24
S'15'
p1256
sg26
g36
sg28
S'--'
p1257
sg30
g20
sg31
S'--'
p1258
sg32
S'--'
p1259
sg34
g36
sg35
g20
sg37
g20
sg38
S'12/29'
p1260
sg40
S'Jay Cutler'
p1261
sg42
S'103.8'
p1262
sg44
S'L28-33'
p1263
sg46
S'2013'
p1264
ssg155
(dp1265
g5
S'35'
p1266
sg7
S'16'
p1267
sg9
S'7.5'
p1268
sg11
S'57.1'
p1269
sg13
g36
sg15
S'222'
p1270
sg17
S'6.3'
p1271
sg19
g20
sg21
S'@PHI'
p1272
sg23
g20
sg24
S'20'
p1273
sg26
S'46'
p1274
sg28
S'15'
p1275
sg30
g20
sg31
g33
sg32
g33
sg34
g20
sg35
g114
sg37
g20
sg38
S'12/22'
p1276
sg40
S'Jay Cutler'
p1277
sg42
S'73.8'
p1278
sg44
S'L11-54'
p1279
sg46
S'2013'
p1280
ssg20
(dp1281
g5
S'33'
p1282
sg7
g20
sg9
S'5.3'
p1283
sg11
S'63.6'
p1284
sg13
g14
sg15
S'242'
p1285
sg17
S'7.3'
p1286
sg19
S'--'
p1287
sg21
S'CIN'
p1288
sg23
g20
sg24
S'21'
p1289
sg26
g33
sg28
S'16'
p1290
sg30
g20
sg31
S'--'
p1291
sg32
g33
sg34
g36
sg35
g33
sg37
g20
sg38
S'09/08'
p1292
sg40
S'Jay Cutler'
p1293
sg42
S'93.2'
p1294
sg44
S'W24-21'
p1295
sg46
S'2013'
p1296
ssg14
(dp1297
g5
S'30'
p1298
sg7
g14
sg9
S'2.8'
p1299
sg11
S'66.7'
p1300
sg13
g27
sg15
S'159'
p1301
sg17
S'5.3'
p1302
sg19
S'--'
p1303
sg21
S'@PIT'
p1304
sg23
g20
sg24
S'20'
p1305
sg26
g78
sg28
S'11'
p1306
sg30
g20
sg31
S'--'
p1307
sg32
g33
sg34
g20
sg35
g36
sg37
g33
sg38
S'09/22'
p1308
sg40
S'Jay Cutler'
p1309
sg42
S'90.8'
p1310
sg44
S'W40-23'
p1311
sg46
S'2013'
p1312
ssg36
(dp1313
g5
S'38'
p1314
sg7
g36
sg9
S'3.0'
p1315
sg11
S'71.1'
p1316
sg13
g14
sg15
S'292'
p1317
sg17
S'7.7'
p1318
sg19
g20
sg21
S'MIN'
p1319
sg23
g20
sg24
S'27'
p1320
sg26
g78
sg28
g97
sg30
g20
sg31
g20
sg32
g33
sg34
g14
sg35
g20
sg37
g36
sg38
S'09/15'
p1321
sg40
S'Jay Cutler'
p1322
sg42
S'97.7'
p1323
sg44
S'W31-30'
p1324
sg46
S'2013'
p1325
ssg114
(dp1326
g5
S'33'
p1327
sg7
g114
sg9
S'6.8'
p1328
sg11
S'72.7'
p1329
sg13
g27
sg15
S'358'
p1330
sg17
S'10.8'
p1331
sg19
g36
sg21
S'NO'
p1332
sg23
g20
sg24
S'24'
p1333
sg26
S'18'
p1334
sg28
S'27'
p1335
sg30
g20
sg31
g20
sg32
g33
sg34
g36
sg35
g14
sg37
g33
sg38
S'10/06'
p1336
sg40
S'Jay Cutler'
p1337
sg42
S'128.1'
p1338
sg44
S'L18-26'
p1339
sg46
S'2013'
p1340
ssg27
(dp1341
g5
S'47'
p1342
sg7
g27
sg9
S'9.0'
p1343
sg11
S'57.4'
p1344
sg13
g20
sg15
S'317'
p1345
sg17
S'6.7'
p1346
sg19
g20
sg21
S'@DET'
p1347
sg23
g20
sg24
S'27'
p1348
sg26
S'31'
p1349
sg28
g97
sg30
g20
sg31
g20
sg32
g33
sg34
g36
sg35
g14
sg37
g14
sg38
S'09/29'
p1350
sg40
S'Jay Cutler'
p1351
sg42
S'65.6'
p1352
sg44
S'L32-40'
p1353
sg46
S'2013'
p1354
ssg254
(dp1355
g5
g78
sg7
g254
sg9
S'--'
p1356
sg11
S'37.5'
p1357
sg13
S'--'
p1358
sg15
S'28'
p1359
sg17
S'3.5'
p1360
sg19
S'--'
p1361
sg21
S'@WAS'
p1362
sg23
g20
sg24
g14
sg26
g260
sg28
S'--'
p1363
sg30
g20
sg31
S'--'
p1364
sg32
S'--'
p1365
sg34
g33
sg35
g20
sg37
g20
sg38
S'10/20'
p1366
sg40
S'Jay Cutler'
p1367
sg42
S'8.3'
p1368
sg44
S'L41-45'
p1369
sg46
S'2013'
p1370
ssg260
(dp1371
g5
S'36'
p1372
sg7
g260
sg9
S'6.7'
p1373
sg11
S'66.7'
p1374
sg13
g14
sg15
S'262'
p1375
sg17
S'7.3'
p1376
sg19
S'--'
p1377
sg21
S'NYG'
p1378
sg23
g20
sg24
S'24'
p1379
sg26
g33
sg28
S'20'
p1380
sg30
g20
sg31
S'--'
p1381
sg32
g33
sg34
g36
sg35
g33
sg37
g33
sg38
S'10/10'
p1382
sg40
S'Jay Cutler'
p1383
sg42
S'106.5'
p1384
sg44
S'W27-21'
p1385
sg46
S'2013'
p1386
ssg97
(dp1387
g5
S'--'
p1388
sg7
g97
sg9
S'--'
p1389
sg11
S'--'
p1390
sg13
S'--'
p1391
sg15
S'--'
p1392
sg17
S'--'
p1393
sg19
S'--'
p1394
sg21
S'@GB'
p1395
sg23
g33
sg24
S'--'
p1396
sg26
S'--'
p1397
sg28
S'--'
p1398
sg30
g33
sg31
S'--'
p1399
sg32
S'--'
p1400
sg34
S'--'
p1401
sg35
S'--'
p1402
sg37
S'--'
p1403
sg38
S'11/04'
p1404
sg40
S'Jay Cutler'
p1405
sg42
S'0.0'
p1406
sg44
S'W27-20'
p1407
sg46
S'2013'
p1408
ssg78
(dp1409
g5
g256
sg7
g78
sg9
g256
sg11
g256
sg13
g256
sg15
g256
sg17
g256
sg19
g256
sg21
g256
sg23
g256
sg24
g256
sg26
g256
sg28
g256
sg30
g256
sg31
g256
sg32
g256
sg34
g256
sg35
g256
sg37
g256
sg38
S'Bye'
p1410
sg40
S'Jay Cutler'
p1411
sg42
g256
sg44
g256
sg46
S'2013'
p1412
sssS'2012'
p1413
(dp1414
g3
(dp1415
g5
S'--'
p1416
sg7
S'11'
p1417
sg9
S'--'
p1418
sg11
S'--'
p1419
sg13
S'--'
p1420
sg15
S'--'
p1421
sg17
S'--'
p1422
sg19
S'--'
p1423
sg21
S'@SF'
p1424
sg23
g33
sg24
S'--'
p1425
sg26
S'--'
p1426
sg28
S'--'
p1427
sg30
g33
sg31
S'--'
p1428
sg32
S'--'
p1429
sg34
S'--'
p1430
sg35
S'--'
p1431
sg37
S'--'
p1432
sg38
S'11/19'
p1433
sg40
S'Jay Cutler'
p1434
sg42
S'0.0'
p1435
sg44
S'L7-32'
p1436
sg46
S'2012'
p1437
ssg48
(dp1438
g5
S'14'
p1439
sg7
S'10'
p1440
sg9
S'12.3'
p1441
sg11
S'50.0'
p1442
sg13
g14
sg15
S'40'
p1443
sg17
S'2.9'
p1444
sg19
S'--'
p1445
sg21
S'HOU'
p1446
sg23
g20
sg24
g254
sg26
g33
sg28
S'37'
p1447
sg30
g20
sg31
S'--'
p1448
sg32
g33
sg34
g33
sg35
g33
sg37
g36
sg38
S'11/11'
p1449
sg40
S'Jay Cutler'
p1450
sg42
S'16.7'
p1451
sg44
S'L6-13'
p1452
sg46
S'2012'
p1453
ssg67
(dp1454
g5
S'26'
p1455
sg7
S'13'
p1456
sg9
S'5.4'
p1457
sg11
S'65.4'
p1458
sg13
g114
sg15
S'233'
p1459
sg17
S'9.0'
p1460
sg19
g20
sg21
S'SEA'
p1461
sg23
g20
sg24
S'17'
p1462
sg26
g33
sg28
S'27'
p1463
sg30
g20
sg31
g33
sg32
g33
sg34
g36
sg35
g33
sg37
g33
sg38
S'12/02'
p1464
sg40
S'Jay Cutler'
p1465
sg42
S'119.6'
p1466
sg44
S'L17-23'
p1467
sg46
S'2012'
p1468
ssg86
(dp1469
g5
S'31'
p1470
sg7
S'12'
p1471
sg9
S'3.0'
p1472
sg11
S'74.2'
p1473
sg13
g14
sg15
S'188'
p1474
sg17
S'6.1'
p1475
sg19
S'--'
p1476
sg21
S'MIN'
p1477
sg23
g20
sg24
S'23'
p1478
sg26
g114
sg28
g97
sg30
g20
sg31
S'--'
p1479
sg32
g33
sg34
g20
sg35
g20
sg37
g20
sg38
S'11/25'
p1480
sg40
S'Jay Cutler'
p1481
sg42
S'86.5'
p1482
sg44
S'W28-10'
p1483
sg46
S'2012'
p1484
ssg103
(dp1485
g5
S'21'
p1486
sg7
S'15'
p1487
sg9
S'9.0'
p1488
sg11
S'57.1'
p1489
sg13
g20
sg15
S'135'
p1490
sg17
S'6.4'
p1491
sg19
g20
sg21
S'GB'
p1492
sg23
g20
sg24
S'12'
p1493
sg26
S'28'
p1494
sg28
g97
sg30
g20
sg31
g33
sg32
g33
sg34
g20
sg35
g27
sg37
g20
sg38
S'12/16'
p1495
sg40
S'Jay Cutler'
p1496
sg42
S'72.5'
p1497
sg44
S'L13-21'
p1498
sg46
S'2012'
p1499
ssg120
(dp1500
g5
S'44'
p1501
sg7
S'14'
p1502
sg9
S'8.0'
p1503
sg11
S'50.0'
p1504
sg13
g36
sg15
S'260'
p1505
sg17
S'5.9'
p1506
sg19
g20
sg21
S'@MIN'
p1507
sg23
g20
sg24
S'22'
p1508
sg26
g27
sg28
S'16'
p1509
sg30
g20
sg31
g33
sg32
g33
sg34
g20
sg35
g36
sg37
g36
sg38
S'12/09'
p1510
sg40
S'Jay Cutler'
p1511
sg42
S'57.0'
p1512
sg44
S'L14-21'
p1513
sg46
S'2012'
p1514
ssg136
(dp1515
g5
S'31'
p1516
sg7
S'17'
p1517
sg9
S'5.8'
p1518
sg11
S'58.1'
p1519
sg13
g114
sg15
S'257'
p1520
sg17
S'8.3'
p1521
sg19
g20
sg21
S'@DET'
p1522
sg23
g20
sg24
S'18'
p1523
sg26
S'12'
p1524
sg28
S'29'
p1525
sg30
g20
sg31
g33
sg32
g33
sg34
g20
sg35
g36
sg37
g33
sg38
S'12/30'
p1526
sg40
S'Jay Cutler'
p1527
sg42
S'95.8'
p1528
sg44
S'W26-24'
p1529
sg46
S'2012'
p1530
ssg155
(dp1531
g5
S'26'
p1532
sg7
S'16'
p1533
sg9
S'2.7'
p1534
sg11
S'46.2'
p1535
sg13
g14
sg15
S'146'
p1536
sg17
S'5.6'
p1537
sg19
S'--'
p1538
sg21
S'@ARI'
p1539
sg23
g20
sg24
S'12'
p1540
sg26
g20
sg28
g78
sg30
g20
sg31
S'--'
p1541
sg32
g33
sg34
g20
sg35
g20
sg37
g33
sg38
S'12/23'
p1542
sg40
S'Jay Cutler'
p1543
sg42
S'76.8'
p1544
sg44
S'W28-13'
p1545
sg46
S'2012'
p1546
ssg20
(dp1547
g5
S'35'
p1548
sg7
g20
sg9
S'-1.0'
p1549
sg11
S'60.0'
p1550
sg13
g27
sg15
S'333'
p1551
sg17
S'9.5'
p1552
sg19
S'--'
p1553
sg21
S'IND'
p1554
sg23
g20
sg24
S'21'
p1555
sg26
S'19'
p1556
sg28
S'-4'
p1557
sg30
g20
sg31
S'--'
p1558
sg32
g33
sg34
g36
sg35
g36
sg37
g20
sg38
S'09/09'
p1559
sg40
S'Jay Cutler'
p1560
sg42
S'98.9'
p1561
sg44
S'W41-21'
p1562
sg46
S'2012'
p1563
ssg14
(dp1564
g5
S'31'
p1565
sg7
g14
sg9
S'4.5'
p1566
sg11
S'54.8'
p1567
sg13
g27
sg15
S'183'
p1568
sg17
S'5.9'
p1569
sg19
S'--'
p1570
sg21
S'STL'
p1571
sg23
g20
sg24
S'17'
p1572
sg26
S'12'
p1573
sg28
S'18'
p1574
sg30
g20
sg31
S'--'
p1575
sg32
g33
sg34
g33
sg35
g36
sg37
g20
sg38
S'09/23'
p1576
sg40
S'Jay Cutler'
p1577
sg42
S'58.9'
p1578
sg44
S'W23-6'
p1579
sg46
S'2012'
p1580
ssg36
(dp1581
g5
S'27'
p1582
sg7
g36
sg9
S'12.0'
p1583
sg11
S'40.7'
p1584
sg13
g20
sg15
S'126'
p1585
sg17
S'4.7'
p1586
sg19
S'--'
p1587
sg21
S'@GB'
p1588
sg23
g20
sg24
S'11'
p1589
sg26
S'52'
p1590
sg28
S'12'
p1591
sg30
g20
sg31
S'--'
p1592
sg32
g33
sg34
g20
sg35
g254
sg37
g27
sg38
S'09/13'
p1593
sg40
S'Jay Cutler'
p1594
sg42
S'28.2'
p1595
sg44
S'L10-23'
p1596
sg46
S'2012'
p1597
ssg114
(dp1598
g5
S'39'
p1599
sg7
g114
sg9
S'11.0'
p1600
sg11
S'59.0'
p1601
sg13
g36
sg15
S'292'
p1602
sg17
S'7.5'
p1603
sg19
S'--'
p1604
sg21
S'@JAC'
p1605
sg23
g20
sg24
S'23'
p1606
sg26
g114
sg28
S'22'
p1607
sg30
g20
sg31
S'--'
p1608
sg32
g33
sg34
g36
sg35
g20
sg37
g20
sg38
S'10/07'
p1609
sg40
S'Jay Cutler'
p1610
sg42
S'88.8'
p1611
sg44
S'W41-3'
p1612
sg46
S'2012'
p1613
ssg27
(dp1614
g5
S'24'
p1615
sg7
g27
sg9
S'0.0'
p1616
sg11
S'75.0'
p1617
sg13
g14
sg15
S'275'
p1618
sg17
S'11.5'
p1619
sg19
g20
sg21
S'@DAL'
p1620
sg23
g20
sg24
S'18'
p1621
sg26
g78
sg28
g33
sg30
g20
sg31
g20
sg32
g33
sg34
g36
sg35
g36
sg37
g33
sg38
S'10/01'
p1622
sg40
S'Jay Cutler'
p1623
sg42
S'140.1'
p1624
sg44
S'W34-18'
p1625
sg46
S'2012'
p1626
ssg254
(dp1627
g5
S'31'
p1628
sg7
g254
sg9
S'11.3'
p1629
sg11
S'51.6'
p1630
sg13
g14
sg15
S'150'
p1631
sg17
S'4.8'
p1632
sg19
S'--'
p1633
sg21
S'DET'
p1634
sg23
g20
sg24
S'16'
p1635
sg26
S'25'
p1636
sg28
S'34'
p1637
sg30
g20
sg31
S'--'
p1638
sg32
g33
sg34
g20
sg35
g114
sg37
g33
sg38
S'10/22'
p1639
sg40
S'Jay Cutler'
p1640
sg42
S'76.0'
p1641
sg44
S'W13-7'
p1642
sg46
S'2012'
p1643
ssg260
(dp1644
g5
g256
sg7
g260
sg9
g256
sg11
g256
sg13
g256
sg15
g256
sg17
g256
sg19
g256
sg21
g256
sg23
g256
sg24
g256
sg26
g256
sg28
g256
sg30
g256
sg31
g256
sg32
g256
sg34
g256
sg35
g256
sg37
g256
sg38
S'Bye'
p1645
sg40
S'Jay Cutler'
p1646
sg42
g256
sg44
g256
sg46
S'2012'
p1647
ssg97
(dp1648
g5
S'26'
p1649
sg7
g97
sg9
S'12.0'
p1650
sg11
S'73.1'
p1651
sg13
g20
sg15
S'229'
p1652
sg17
S'8.8'
p1653
sg19
g20
sg21
S'@TEN'
p1654
sg23
g20
sg24
S'19'
p1655
sg26
S'24'
p1656
sg28
S'12'
p1657
sg30
g20
sg31
g20
sg32
g33
sg34
g14
sg35
g14
sg37
g33
sg38
S'11/04'
p1658
sg40
S'Jay Cutler'
p1659
sg42
S'138.1'
p1660
sg44
S'W51-20'
p1661
sg46
S'2012'
p1662
ssg78
(dp1663
g5
S'28'
p1664
sg7
g78
sg9
S'4.0'
p1665
sg11
S'67.9'
p1666
sg13
g20
sg15
S'186'
p1667
sg17
S'6.6'
p1668
sg19
g36
sg21
S'CAR'
p1669
sg23
g20
sg24
S'19'
p1670
sg26
S'55'
p1671
sg28
g27
sg30
g20
sg31
g36
sg32
g33
sg34
g20
sg35
g260
sg37
g20
sg38
S'10/28'
p1672
sg40
S'Jay Cutler'
p1673
sg42
S'83.3'
p1674
sg44
S'W23-22'
p1675
sg46
S'2012'
p1676
sss.