(dp0
S'2015'
p1
(dp2
S'11'
p3
(dp4
S'PassAtt'
p5
S'--'
p6
sS'WK'
p7
S'11'
p8
sS'RushAvg'
p9
S'--'
p10
sS'Pct'
p11
S'--'
p12
sS'RushAtt'
p13
S'--'
p14
sS'PassYds'
p15
S'--'
p16
sS'PassAvg'
p17
S'--'
p18
sS'FUM'
p19
S'--'
p20
sS'Opp'
p21
S'DEN'
p22
sS'G'
p23
S'0'
p24
sS'Comp'
p25
S'--'
p26
sS'SckY'
p27
S'--'
p28
sS'RushYds'
p29
S'--'
p30
sS'GS'
p31
g24
sS'Lost'
p32
S'--'
p33
sS'RushTD'
p34
S'--'
p35
sS'PassTD'
p36
S'--'
p37
sS'Sck'
p38
S'--'
p39
sS'Int'
p40
S'--'
p41
sS'Game Date'
p42
S'11/22'
p43
sS'Player'
p44
S'Jimmy Clausen'
p45
sS'Rate'
p46
S'0.0'
p47
sS'Result'
p48
S'L15-17'
p49
sS'Year'
p50
S'2015'
p51
ssS'10'
p52
(dp53
g5
S'--'
p54
sg7
S'10'
p55
sg9
S'--'
p56
sg11
S'--'
p57
sg13
S'--'
p58
sg15
S'--'
p59
sg17
S'--'
p60
sg19
S'--'
p61
sg21
S'@STL'
p62
sg23
g24
sg25
S'--'
p63
sg27
S'--'
p64
sg29
S'--'
p65
sg31
g24
sg32
S'--'
p66
sg34
S'--'
p67
sg36
S'--'
p68
sg38
S'--'
p69
sg40
S'--'
p70
sg42
S'11/15'
p71
sg44
S'Jimmy Clausen'
p72
sg46
S'0.0'
p73
sg48
S'W37-13'
p74
sg50
S'2015'
p75
ssS'13'
p76
(dp77
g5
S'--'
p78
sg7
S'13'
p79
sg9
S'--'
p80
sg11
S'--'
p81
sg13
S'--'
p82
sg15
S'--'
p83
sg17
S'--'
p84
sg19
S'--'
p85
sg21
S'@MIA'
p86
sg23
g24
sg25
S'--'
p87
sg27
S'--'
p88
sg29
S'--'
p89
sg31
g24
sg32
S'--'
p90
sg34
S'--'
p91
sg36
S'--'
p92
sg38
S'--'
p93
sg40
S'--'
p94
sg42
S'12/06'
p95
sg44
S'Jimmy Clausen'
p96
sg46
S'0.0'
p97
sg48
S'L13-15'
p98
sg50
S'2015'
p99
ssS'12'
p100
(dp101
g5
S'--'
p102
sg7
S'12'
p103
sg9
S'--'
p104
sg11
S'--'
p105
sg13
S'--'
p106
sg15
S'--'
p107
sg17
S'--'
p108
sg19
S'--'
p109
sg21
S'@CLE'
p110
sg23
g24
sg25
S'--'
p111
sg27
S'--'
p112
sg29
S'--'
p113
sg31
g24
sg32
S'--'
p114
sg34
S'--'
p115
sg36
S'--'
p116
sg38
S'--'
p117
sg40
S'--'
p118
sg42
S'11/30'
p119
sg44
S'Jimmy Clausen'
p120
sg46
S'0.0'
p121
sg48
S'W33-27'
p122
sg50
S'2015'
p123
ssS'15'
p124
(dp125
g5
S'45'
p126
sg7
S'15'
p127
sg9
S'6.0'
p128
sg11
S'57.8'
p129
sg13
S'5'
p130
sg15
S'281'
p131
sg17
S'6.2'
p132
sg19
S'--'
p133
sg21
S'KC'
p134
sg23
S'1'
p135
sg25
S'26'
p136
sg27
S'8'
p137
sg29
S'30'
p138
sg31
g135
sg32
S'--'
p139
sg34
g24
sg36
S'2'
p140
sg38
g140
sg40
g140
sg42
S'12/20'
p141
sg44
S'Jimmy Clausen'
p142
sg46
S'72.5'
p143
sg48
S'L14-34'
p144
sg50
S'2015'
p145
ssS'14'
p146
(dp147
g5
S'40'
p148
sg7
S'14'
p149
sg9
S'-2.0'
p150
sg11
S'57.5'
p151
sg13
g135
sg15
S'274'
p152
sg17
S'6.9'
p153
sg19
S'--'
p154
sg21
S'SEA'
p155
sg23
g135
sg25
S'23'
p156
sg27
g24
sg29
S'-2'
p157
sg31
g135
sg32
S'--'
p158
sg34
g24
sg36
g24
sg38
g135
sg40
g135
sg42
S'12/13'
p159
sg44
S'Jimmy Clausen'
p160
sg46
S'68.1'
p161
sg48
S'L6-35'
p162
sg50
S'2015'
p163
ssS'17'
p164
(dp165
g5
S'--'
p166
sg7
S'17'
p167
sg9
S'--'
p168
sg11
S'--'
p169
sg13
S'--'
p170
sg15
S'--'
p171
sg17
S'--'
p172
sg19
S'--'
p173
sg21
S'@CIN'
p174
sg23
g24
sg25
S'--'
p175
sg27
S'--'
p176
sg29
S'--'
p177
sg31
g24
sg32
S'--'
p178
sg34
S'--'
p179
sg36
S'--'
p180
sg38
S'--'
p181
sg40
S'--'
p182
sg42
S'01/03'
p183
sg44
S'Jimmy Clausen'
p184
sg46
S'0.0'
p185
sg48
S'L16-24'
p186
sg50
S'2015'
p187
ssS'16'
p188
(dp189
g5
S'--'
p190
sg7
S'16'
p191
sg9
S'--'
p192
sg11
S'--'
p193
sg13
S'--'
p194
sg15
S'--'
p195
sg17
S'--'
p196
sg19
S'--'
p197
sg21
S'PIT'
p198
sg23
g24
sg25
S'--'
p199
sg27
S'--'
p200
sg29
S'--'
p201
sg31
g24
sg32
S'--'
p202
sg34
S'--'
p203
sg36
S'--'
p204
sg38
S'--'
p205
sg40
S'--'
p206
sg42
S'12/27'
p207
sg44
S'Jimmy Clausen'
p208
sg46
S'0.0'
p209
sg48
S'W20-17'
p210
sg50
S'2015'
p211
ssg135
(dp212
g5
S'--'
p213
sg7
g135
sg9
S'--'
p214
sg11
S'--'
p215
sg13
S'--'
p216
sg15
S'--'
p217
sg17
S'--'
p218
sg19
S'--'
p219
sg21
S'GB'
p220
sg23
g24
sg25
S'--'
p221
sg27
S'--'
p222
sg29
S'--'
p223
sg31
g24
sg32
S'--'
p224
sg34
S'--'
p225
sg36
S'--'
p226
sg38
S'--'
p227
sg40
S'--'
p228
sg42
S'09/13'
p229
sg44
S'Jimmy Clausen'
p230
sg46
S'0.0'
p231
sg48
S'L23-31'
p232
sg50
S'2015'
p233
ssS'3'
p234
(dp235
g5
S'17'
p236
sg7
g234
sg9
S'4.3'
p237
sg11
S'52.9'
p238
sg13
g234
sg15
S'63'
p239
sg17
S'3.7'
p240
sg19
S'--'
p241
sg21
S'@SEA'
p242
sg23
g135
sg25
S'9'
p243
sg27
S'15'
p244
sg29
S'13'
p245
sg31
g135
sg32
S'--'
p246
sg34
g24
sg36
g24
sg38
g140
sg40
g24
sg42
S'09/27'
p247
sg44
S'Jimmy Clausen'
p248
sg46
S'61.6'
p249
sg48
S'L0-26'
p250
sg50
S'2015'
p251
ssg140
(dp252
g5
S'23'
p253
sg7
g140
sg9
S'-2.5'
p254
sg11
S'60.9'
p255
sg13
g140
sg15
S'121'
p256
sg17
S'5.3'
p257
sg19
g135
sg21
S'ARI'
p258
sg23
g135
sg25
S'14'
p259
sg27
S'15'
p260
sg29
S'-5'
p261
sg31
g24
sg32
g24
sg34
g24
sg36
g24
sg38
g140
sg40
g135
sg42
S'09/20'
p262
sg44
S'Jimmy Clausen'
p263
sg46
S'56.6'
p264
sg48
S'L23-48'
p265
sg50
S'2015'
p266
ssg130
(dp267
g5
S'--'
p268
sg7
g130
sg9
S'--'
p269
sg11
S'--'
p270
sg13
S'--'
p271
sg15
S'--'
p272
sg17
S'--'
p273
sg19
S'--'
p274
sg21
S'@KC'
p275
sg23
g24
sg25
S'--'
p276
sg27
S'--'
p277
sg29
S'--'
p278
sg31
g24
sg32
S'--'
p279
sg34
S'--'
p280
sg36
S'--'
p281
sg38
S'--'
p282
sg40
S'--'
p283
sg42
S'10/11'
p284
sg44
S'Jimmy Clausen'
p285
sg46
S'0.0'
p286
sg48
S'W18-17'
p287
sg50
S'2015'
p288
ssS'4'
p289
(dp290
g5
S'--'
p291
sg7
g289
sg9
S'--'
p292
sg11
S'--'
p293
sg13
S'--'
p294
sg15
S'--'
p295
sg17
S'--'
p296
sg19
S'--'
p297
sg21
S'OAK'
p298
sg23
g24
sg25
S'--'
p299
sg27
S'--'
p300
sg29
S'--'
p301
sg31
g24
sg32
S'--'
p302
sg34
S'--'
p303
sg36
S'--'
p304
sg38
S'--'
p305
sg40
S'--'
p306
sg42
S'10/04'
p307
sg44
S'Jimmy Clausen'
p308
sg46
S'0.0'
p309
sg48
S'W22-20'
p310
sg50
S'2015'
p311
ssS'7'
p312
(dp313
g5
S''
p314
sg7
g312
sg9
g314
sg11
g314
sg13
g314
sg15
g314
sg17
g314
sg19
g314
sg21
g314
sg23
g314
sg25
g314
sg27
g314
sg29
g314
sg31
g314
sg32
g314
sg34
g314
sg36
g314
sg38
g314
sg40
g314
sg42
S'Bye'
p315
sg44
S'Jimmy Clausen'
p316
sg46
g314
sg48
g314
sg50
S'2015'
p317
ssS'6'
p318
(dp319
g5
S'--'
p320
sg7
g318
sg9
S'--'
p321
sg11
S'--'
p322
sg13
S'--'
p323
sg15
S'--'
p324
sg17
S'--'
p325
sg19
S'--'
p326
sg21
S'@DET'
p327
sg23
g24
sg25
S'--'
p328
sg27
S'--'
p329
sg29
S'--'
p330
sg31
g24
sg32
S'--'
p331
sg34
S'--'
p332
sg36
S'--'
p333
sg38
S'--'
p334
sg40
S'--'
p335
sg42
S'10/18'
p336
sg44
S'Jimmy Clausen'
p337
sg46
S'0.0'
p338
sg48
S'L34-37'
p339
sg50
S'2015'
p340
ssg243
(dp341
g5
S'--'
p342
sg7
g243
sg9
S'--'
p343
sg11
S'--'
p344
sg13
S'--'
p345
sg15
S'--'
p346
sg17
S'--'
p347
sg19
S'--'
p348
sg21
S'@SD'
p349
sg23
g24
sg25
S'--'
p350
sg27
S'--'
p351
sg29
S'--'
p352
sg31
g24
sg32
S'--'
p353
sg34
S'--'
p354
sg36
S'--'
p355
sg38
S'--'
p356
sg40
S'--'
p357
sg42
S'11/09'
p358
sg44
S'Jimmy Clausen'
p359
sg46
S'0.0'
p360
sg48
S'W22-19'
p361
sg50
S'2015'
p362
ssg137
(dp363
g5
S'--'
p364
sg7
g137
sg9
S'--'
p365
sg11
S'--'
p366
sg13
S'--'
p367
sg15
S'--'
p368
sg17
S'--'
p369
sg19
S'--'
p370
sg21
S'MIN'
p371
sg23
g24
sg25
S'--'
p372
sg27
S'--'
p373
sg29
S'--'
p374
sg31
g24
sg32
S'--'
p375
sg34
S'--'
p376
sg36
S'--'
p377
sg38
S'--'
p378
sg40
S'--'
p379
sg42
S'11/01'
p380
sg44
S'Jimmy Clausen'
p381
sg46
S'0.0'
p382
sg48
S'L20-23'
p383
sg50
S'2015'
p384
sssS'2014'
p385
(dp386
g3
(dp387
g5
S'--'
p388
sg7
S'11'
p389
sg9
S'--'
p390
sg11
S'--'
p391
sg13
S'--'
p392
sg15
S'--'
p393
sg17
S'--'
p394
sg19
S'--'
p395
sg21
S'MIN'
p396
sg23
g24
sg25
S'--'
p397
sg27
S'--'
p398
sg29
S'--'
p399
sg31
g24
sg32
S'--'
p400
sg34
S'--'
p401
sg36
S'--'
p402
sg38
S'--'
p403
sg40
S'--'
p404
sg42
S'11/16'
p405
sg44
S'Jimmy Clausen'
p406
sg46
S'0.0'
p407
sg48
S'W21-13'
p408
sg50
S'2014'
p409
ssg52
(dp410
g5
g234
sg7
S'10'
p411
sg9
S'--'
p412
sg11
S'33.3'
p413
sg13
S'--'
p414
sg15
S'11'
p415
sg17
S'3.7'
p416
sg19
S'--'
p417
sg21
S'@GB'
p418
sg23
g135
sg25
g135
sg27
g243
sg29
S'--'
p419
sg31
g24
sg32
S'--'
p420
sg34
S'--'
p421
sg36
g24
sg38
g135
sg40
g24
sg42
S'11/09'
p422
sg44
S'Jimmy Clausen'
p423
sg46
S'45.1'
p424
sg48
S'L14-55'
p425
sg50
S'2014'
p426
ssg76
(dp427
g5
S'--'
p428
sg7
S'13'
p429
sg9
S'--'
p430
sg11
S'--'
p431
sg13
S'--'
p432
sg15
S'--'
p433
sg17
S'--'
p434
sg19
S'--'
p435
sg21
S'@DET'
p436
sg23
g24
sg25
S'--'
p437
sg27
S'--'
p438
sg29
S'--'
p439
sg31
g24
sg32
S'--'
p440
sg34
S'--'
p441
sg36
S'--'
p442
sg38
S'--'
p443
sg40
S'--'
p444
sg42
S'11/27'
p445
sg44
S'Jimmy Clausen'
p446
sg46
S'0.0'
p447
sg48
S'L17-34'
p448
sg50
S'2014'
p449
ssg100
(dp450
g5
S'--'
p451
sg7
S'12'
p452
sg9
S'--'
p453
sg11
S'--'
p454
sg13
S'--'
p455
sg15
S'--'
p456
sg17
S'--'
p457
sg19
S'--'
p458
sg21
S'TB'
p459
sg23
g24
sg25
S'--'
p460
sg27
S'--'
p461
sg29
S'--'
p462
sg31
g24
sg32
S'--'
p463
sg34
S'--'
p464
sg36
S'--'
p465
sg38
S'--'
p466
sg40
S'--'
p467
sg42
S'11/23'
p468
sg44
S'Jimmy Clausen'
p469
sg46
S'0.0'
p470
sg48
S'W21-13'
p471
sg50
S'2014'
p472
ssg124
(dp473
g5
S'--'
p474
sg7
S'15'
p475
sg9
S'--'
p476
sg11
S'--'
p477
sg13
S'--'
p478
sg15
S'--'
p479
sg17
S'--'
p480
sg19
S'--'
p481
sg21
S'NO'
p482
sg23
g24
sg25
S'--'
p483
sg27
S'--'
p484
sg29
S'--'
p485
sg31
g24
sg32
S'--'
p486
sg34
S'--'
p487
sg36
S'--'
p488
sg38
S'--'
p489
sg40
S'--'
p490
sg42
S'12/15'
p491
sg44
S'Jimmy Clausen'
p492
sg46
S'0.0'
p493
sg48
S'L15-31'
p494
sg50
S'2014'
p495
ssg146
(dp496
g5
S'--'
p497
sg7
S'14'
p498
sg9
S'--'
p499
sg11
S'--'
p500
sg13
S'--'
p501
sg15
S'--'
p502
sg17
S'--'
p503
sg19
S'--'
p504
sg21
S'DAL'
p505
sg23
g24
sg25
S'--'
p506
sg27
S'--'
p507
sg29
S'--'
p508
sg31
g24
sg32
S'--'
p509
sg34
S'--'
p510
sg36
S'--'
p511
sg38
S'--'
p512
sg40
S'--'
p513
sg42
S'12/04'
p514
sg44
S'Jimmy Clausen'
p515
sg46
S'0.0'
p516
sg48
S'L28-41'
p517
sg50
S'2014'
p518
ssg164
(dp519
g5
S'--'
p520
sg7
S'17'
p521
sg9
S'--'
p522
sg11
S'--'
p523
sg13
S'--'
p524
sg15
S'--'
p525
sg17
S'--'
p526
sg19
S'--'
p527
sg21
S'@MIN'
p528
sg23
g24
sg25
S'--'
p529
sg27
S'--'
p530
sg29
S'--'
p531
sg31
g24
sg32
S'--'
p532
sg34
S'--'
p533
sg36
S'--'
p534
sg38
S'--'
p535
sg40
S'--'
p536
sg42
S'12/28'
p537
sg44
S'Jimmy Clausen'
p538
sg46
S'0.0'
p539
sg48
S'L9-13'
p540
sg50
S'2014'
p541
ssg188
(dp542
g5
S'39'
p543
sg7
S'16'
p544
sg9
S'3.0'
p545
sg11
S'59.0'
p546
sg13
g234
sg15
S'181'
p547
sg17
S'4.6'
p548
sg19
S'--'
p549
sg21
S'DET'
p550
sg23
g135
sg25
S'23'
p551
sg27
S'11'
p552
sg29
g243
sg31
g135
sg32
S'--'
p553
sg34
g24
sg36
g140
sg38
g140
sg40
g135
sg42
S'12/21'
p554
sg44
S'Jimmy Clausen'
p555
sg46
S'77.0'
p556
sg48
S'L14-20'
p557
sg50
S'2014'
p558
ssg135
(dp559
g5
S'--'
p560
sg7
g135
sg9
S'--'
p561
sg11
S'--'
p562
sg13
S'--'
p563
sg15
S'--'
p564
sg17
S'--'
p565
sg19
S'--'
p566
sg21
S'BUF'
p567
sg23
g24
sg25
S'--'
p568
sg27
S'--'
p569
sg29
S'--'
p570
sg31
g24
sg32
S'--'
p571
sg34
S'--'
p572
sg36
S'--'
p573
sg38
S'--'
p574
sg40
S'--'
p575
sg42
S'09/07'
p576
sg44
S'Jimmy Clausen'
p577
sg46
S'0.0'
p578
sg48
S'L20-23'
p579
sg50
S'2014'
p580
ssg234
(dp581
g5
S'--'
p582
sg7
g234
sg9
S'--'
p583
sg11
S'--'
p584
sg13
S'--'
p585
sg15
S'--'
p586
sg17
S'--'
p587
sg19
S'--'
p588
sg21
S'@NYJ'
p589
sg23
g24
sg25
S'--'
p590
sg27
S'--'
p591
sg29
S'--'
p592
sg31
g24
sg32
S'--'
p593
sg34
S'--'
p594
sg36
S'--'
p595
sg38
S'--'
p596
sg40
S'--'
p597
sg42
S'09/22'
p598
sg44
S'Jimmy Clausen'
p599
sg46
S'0.0'
p600
sg48
S'W27-19'
p601
sg50
S'2014'
p602
ssg140
(dp603
g5
S'--'
p604
sg7
g140
sg9
S'--'
p605
sg11
S'--'
p606
sg13
S'--'
p607
sg15
S'--'
p608
sg17
S'--'
p609
sg19
S'--'
p610
sg21
S'@SF'
p611
sg23
g24
sg25
S'--'
p612
sg27
S'--'
p613
sg29
S'--'
p614
sg31
g24
sg32
S'--'
p615
sg34
S'--'
p616
sg36
S'--'
p617
sg38
S'--'
p618
sg40
S'--'
p619
sg42
S'09/14'
p620
sg44
S'Jimmy Clausen'
p621
sg46
S'0.0'
p622
sg48
S'W28-20'
p623
sg50
S'2014'
p624
ssg130
(dp625
g5
S'--'
p626
sg7
g130
sg9
S'--'
p627
sg11
S'--'
p628
sg13
S'--'
p629
sg15
S'--'
p630
sg17
S'--'
p631
sg19
S'--'
p632
sg21
S'@CAR'
p633
sg23
g24
sg25
S'--'
p634
sg27
S'--'
p635
sg29
S'--'
p636
sg31
g24
sg32
S'--'
p637
sg34
S'--'
p638
sg36
S'--'
p639
sg38
S'--'
p640
sg40
S'--'
p641
sg42
S'10/05'
p642
sg44
S'Jimmy Clausen'
p643
sg46
S'0.0'
p644
sg48
S'L24-31'
p645
sg50
S'2014'
p646
ssg289
(dp647
g5
g135
sg7
g289
sg9
S'--'
p648
sg11
S'100.0'
p649
sg13
S'--'
p650
sg15
g243
sg17
S'9.0'
p651
sg19
S'--'
p652
sg21
S'GB'
p653
sg23
g135
sg25
g135
sg27
g24
sg29
S'--'
p654
sg31
g24
sg32
S'--'
p655
sg34
S'--'
p656
sg36
g24
sg38
g24
sg40
g24
sg42
S'09/28'
p657
sg44
S'Jimmy Clausen'
p658
sg46
S'104.2'
p659
sg48
S'L17-38'
p660
sg50
S'2014'
p661
ssg312
(dp662
g5
S'--'
p663
sg7
g312
sg9
S'--'
p664
sg11
S'--'
p665
sg13
S'--'
p666
sg15
S'--'
p667
sg17
S'--'
p668
sg19
S'--'
p669
sg21
S'MIA'
p670
sg23
g24
sg25
S'--'
p671
sg27
S'--'
p672
sg29
S'--'
p673
sg31
g24
sg32
S'--'
p674
sg34
S'--'
p675
sg36
S'--'
p676
sg38
S'--'
p677
sg40
S'--'
p678
sg42
S'10/19'
p679
sg44
S'Jimmy Clausen'
p680
sg46
S'0.0'
p681
sg48
S'L14-27'
p682
sg50
S'2014'
p683
ssg318
(dp684
g5
S'--'
p685
sg7
g318
sg9
S'--'
p686
sg11
S'--'
p687
sg13
S'--'
p688
sg15
S'--'
p689
sg17
S'--'
p690
sg19
S'--'
p691
sg21
S'@ATL'
p692
sg23
g24
sg25
S'--'
p693
sg27
S'--'
p694
sg29
S'--'
p695
sg31
g24
sg32
S'--'
p696
sg34
S'--'
p697
sg36
S'--'
p698
sg38
S'--'
p699
sg40
S'--'
p700
sg42
S'10/12'
p701
sg44
S'Jimmy Clausen'
p702
sg46
S'0.0'
p703
sg48
S'W27-13'
p704
sg50
S'2014'
p705
ssg243
(dp706
g5
g314
sg7
g243
sg9
g314
sg11
g314
sg13
g314
sg15
g314
sg17
g314
sg19
g314
sg21
g314
sg23
g314
sg25
g314
sg27
g314
sg29
g314
sg31
g314
sg32
g314
sg34
g314
sg36
g314
sg38
g314
sg40
g314
sg42
S'Bye'
p707
sg44
S'Jimmy Clausen'
p708
sg46
g314
sg48
g314
sg50
S'2014'
p709
ssg137
(dp710
g5
g130
sg7
g137
sg9
S'--'
p711
sg11
S'20.0'
p712
sg13
S'--'
p713
sg15
S'22'
p714
sg17
S'4.4'
p715
sg19
S'--'
p716
sg21
S'@NE'
p717
sg23
g135
sg25
g135
sg27
g24
sg29
S'--'
p718
sg31
g24
sg32
S'--'
p719
sg34
S'--'
p720
sg36
g24
sg38
g24
sg40
g24
sg42
S'10/26'
p721
sg44
S'Jimmy Clausen'
p722
sg46
S'45.4'
p723
sg48
S'L23-51'
p724
sg50
S'2014'
p725
sssS'2011'
p726
(dp727
g3
(dp728
g5
S'--'
p729
sg7
S'11'
p730
sg9
S'--'
p731
sg11
S'--'
p732
sg13
S'--'
p733
sg15
S'--'
p734
sg17
S'--'
p735
sg19
S'--'
p736
sg21
S'@DET'
p737
sg23
g24
sg25
S'--'
p738
sg27
S'--'
p739
sg29
S'--'
p740
sg31
g24
sg32
S'--'
p741
sg34
S'--'
p742
sg36
S'--'
p743
sg38
S'--'
p744
sg40
S'--'
p745
sg42
S'11/20'
p746
sg44
S'Jimmy Clausen'
p747
sg46
S'0.0'
p748
sg48
S'L35-49'
p749
sg50
S'2011'
p750
ssg52
(dp751
g5
S'--'
p752
sg7
S'10'
p753
sg9
S'--'
p754
sg11
S'--'
p755
sg13
S'--'
p756
sg15
S'--'
p757
sg17
S'--'
p758
sg19
S'--'
p759
sg21
S'TEN'
p760
sg23
g24
sg25
S'--'
p761
sg27
S'--'
p762
sg29
S'--'
p763
sg31
g24
sg32
S'--'
p764
sg34
S'--'
p765
sg36
S'--'
p766
sg38
S'--'
p767
sg40
S'--'
p768
sg42
S'11/13'
p769
sg44
S'Jimmy Clausen'
p770
sg46
S'0.0'
p771
sg48
S'L3-30'
p772
sg50
S'2011'
p773
ssg76
(dp774
g5
S'--'
p775
sg7
S'13'
p776
sg9
S'--'
p777
sg11
S'--'
p778
sg13
S'--'
p779
sg15
S'--'
p780
sg17
S'--'
p781
sg19
S'--'
p782
sg21
S'@TB'
p783
sg23
g24
sg25
S'--'
p784
sg27
S'--'
p785
sg29
S'--'
p786
sg31
g24
sg32
S'--'
p787
sg34
S'--'
p788
sg36
S'--'
p789
sg38
S'--'
p790
sg40
S'--'
p791
sg42
S'12/04'
p792
sg44
S'Jimmy Clausen'
p793
sg46
S'0.0'
p794
sg48
S'W38-19'
p795
sg50
S'2011'
p796
ssg100
(dp797
g5
S'--'
p798
sg7
S'12'
p799
sg9
S'--'
p800
sg11
S'--'
p801
sg13
S'--'
p802
sg15
S'--'
p803
sg17
S'--'
p804
sg19
S'--'
p805
sg21
S'@IND'
p806
sg23
g24
sg25
S'--'
p807
sg27
S'--'
p808
sg29
S'--'
p809
sg31
g24
sg32
S'--'
p810
sg34
S'--'
p811
sg36
S'--'
p812
sg38
S'--'
p813
sg40
S'--'
p814
sg42
S'11/27'
p815
sg44
S'Jimmy Clausen'
p816
sg46
S'0.0'
p817
sg48
S'W27-19'
p818
sg50
S'2011'
p819
ssg124
(dp820
g5
S'--'
p821
sg7
S'15'
p822
sg9
S'--'
p823
sg11
S'--'
p824
sg13
S'--'
p825
sg15
S'--'
p826
sg17
S'--'
p827
sg19
S'--'
p828
sg21
S'@HOU'
p829
sg23
g24
sg25
S'--'
p830
sg27
S'--'
p831
sg29
S'--'
p832
sg31
g24
sg32
S'--'
p833
sg34
S'--'
p834
sg36
S'--'
p835
sg38
S'--'
p836
sg40
S'--'
p837
sg42
S'12/18'
p838
sg44
S'Jimmy Clausen'
p839
sg46
S'0.0'
p840
sg48
S'W28-13'
p841
sg50
S'2011'
p842
ssg146
(dp843
g5
S'--'
p844
sg7
S'14'
p845
sg9
S'--'
p846
sg11
S'--'
p847
sg13
S'--'
p848
sg15
S'--'
p849
sg17
S'--'
p850
sg19
S'--'
p851
sg21
S'ATL'
p852
sg23
g24
sg25
S'--'
p853
sg27
S'--'
p854
sg29
S'--'
p855
sg31
g24
sg32
S'--'
p856
sg34
S'--'
p857
sg36
S'--'
p858
sg38
S'--'
p859
sg40
S'--'
p860
sg42
S'12/11'
p861
sg44
S'Jimmy Clausen'
p862
sg46
S'0.0'
p863
sg48
S'L23-31'
p864
sg50
S'2011'
p865
ssg164
(dp866
g5
S'--'
p867
sg7
S'17'
p868
sg9
S'--'
p869
sg11
S'--'
p870
sg13
S'--'
p871
sg15
S'--'
p872
sg17
S'--'
p873
sg19
S'--'
p874
sg21
S'@NO'
p875
sg23
g24
sg25
S'--'
p876
sg27
S'--'
p877
sg29
S'--'
p878
sg31
g24
sg32
S'--'
p879
sg34
S'--'
p880
sg36
S'--'
p881
sg38
S'--'
p882
sg40
S'--'
p883
sg42
S'01/01'
p884
sg44
S'Jimmy Clausen'
p885
sg46
S'0.0'
p886
sg48
S'L17-45'
p887
sg50
S'2011'
p888
ssg188
(dp889
g5
S'--'
p890
sg7
S'16'
p891
sg9
S'--'
p892
sg11
S'--'
p893
sg13
S'--'
p894
sg15
S'--'
p895
sg17
S'--'
p896
sg19
S'--'
p897
sg21
S'TB'
p898
sg23
g24
sg25
S'--'
p899
sg27
S'--'
p900
sg29
S'--'
p901
sg31
g24
sg32
S'--'
p902
sg34
S'--'
p903
sg36
S'--'
p904
sg38
S'--'
p905
sg40
S'--'
p906
sg42
S'12/24'
p907
sg44
S'Jimmy Clausen'
p908
sg46
S'0.0'
p909
sg48
S'W48-16'
p910
sg50
S'2011'
p911
ssg135
(dp912
g5
S'--'
p913
sg7
g135
sg9
S'--'
p914
sg11
S'--'
p915
sg13
S'--'
p916
sg15
S'--'
p917
sg17
S'--'
p918
sg19
S'--'
p919
sg21
S'@ARI'
p920
sg23
g24
sg25
S'--'
p921
sg27
S'--'
p922
sg29
S'--'
p923
sg31
g24
sg32
S'--'
p924
sg34
S'--'
p925
sg36
S'--'
p926
sg38
S'--'
p927
sg40
S'--'
p928
sg42
S'09/11'
p929
sg44
S'Jimmy Clausen'
p930
sg46
S'0.0'
p931
sg48
S'L21-28'
p932
sg50
S'2011'
p933
ssg234
(dp934
g5
S'--'
p935
sg7
g234
sg9
S'--'
p936
sg11
S'--'
p937
sg13
S'--'
p938
sg15
S'--'
p939
sg17
S'--'
p940
sg19
S'--'
p941
sg21
S'JAC'
p942
sg23
g24
sg25
S'--'
p943
sg27
S'--'
p944
sg29
S'--'
p945
sg31
g24
sg32
S'--'
p946
sg34
S'--'
p947
sg36
S'--'
p948
sg38
S'--'
p949
sg40
S'--'
p950
sg42
S'09/25'
p951
sg44
S'Jimmy Clausen'
p952
sg46
S'0.0'
p953
sg48
S'W16-10'
p954
sg50
S'2011'
p955
ssg140
(dp956
g5
S'--'
p957
sg7
g140
sg9
S'--'
p958
sg11
S'--'
p959
sg13
S'--'
p960
sg15
S'--'
p961
sg17
S'--'
p962
sg19
S'--'
p963
sg21
S'GB'
p964
sg23
g24
sg25
S'--'
p965
sg27
S'--'
p966
sg29
S'--'
p967
sg31
g24
sg32
S'--'
p968
sg34
S'--'
p969
sg36
S'--'
p970
sg38
S'--'
p971
sg40
S'--'
p972
sg42
S'09/18'
p973
sg44
S'Jimmy Clausen'
p974
sg46
S'0.0'
p975
sg48
S'L23-30'
p976
sg50
S'2011'
p977
ssg130
(dp978
g5
S'--'
p979
sg7
g130
sg9
S'--'
p980
sg11
S'--'
p981
sg13
S'--'
p982
sg15
S'--'
p983
sg17
S'--'
p984
sg19
S'--'
p985
sg21
S'NO'
p986
sg23
g24
sg25
S'--'
p987
sg27
S'--'
p988
sg29
S'--'
p989
sg31
g24
sg32
S'--'
p990
sg34
S'--'
p991
sg36
S'--'
p992
sg38
S'--'
p993
sg40
S'--'
p994
sg42
S'10/09'
p995
sg44
S'Jimmy Clausen'
p996
sg46
S'0.0'
p997
sg48
S'L27-30'
p998
sg50
S'2011'
p999
ssg289
(dp1000
g5
S'--'
p1001
sg7
g289
sg9
S'--'
p1002
sg11
S'--'
p1003
sg13
S'--'
p1004
sg15
S'--'
p1005
sg17
S'--'
p1006
sg19
S'--'
p1007
sg21
S'@CHI'
p1008
sg23
g24
sg25
S'--'
p1009
sg27
S'--'
p1010
sg29
S'--'
p1011
sg31
g24
sg32
S'--'
p1012
sg34
S'--'
p1013
sg36
S'--'
p1014
sg38
S'--'
p1015
sg40
S'--'
p1016
sg42
S'10/02'
p1017
sg44
S'Jimmy Clausen'
p1018
sg46
S'0.0'
p1019
sg48
S'L29-34'
p1020
sg50
S'2011'
p1021
ssg312
(dp1022
g5
S'--'
p1023
sg7
g312
sg9
S'--'
p1024
sg11
S'--'
p1025
sg13
S'--'
p1026
sg15
S'--'
p1027
sg17
S'--'
p1028
sg19
S'--'
p1029
sg21
S'WAS'
p1030
sg23
g24
sg25
S'--'
p1031
sg27
S'--'
p1032
sg29
S'--'
p1033
sg31
g24
sg32
S'--'
p1034
sg34
S'--'
p1035
sg36
S'--'
p1036
sg38
S'--'
p1037
sg40
S'--'
p1038
sg42
S'10/23'
p1039
sg44
S'Jimmy Clausen'
p1040
sg46
S'0.0'
p1041
sg48
S'W33-20'
p1042
sg50
S'2011'
p1043
ssg318
(dp1044
g5
S'--'
p1045
sg7
g318
sg9
S'--'
p1046
sg11
S'--'
p1047
sg13
S'--'
p1048
sg15
S'--'
p1049
sg17
S'--'
p1050
sg19
S'--'
p1051
sg21
S'@ATL'
p1052
sg23
g24
sg25
S'--'
p1053
sg27
S'--'
p1054
sg29
S'--'
p1055
sg31
g24
sg32
S'--'
p1056
sg34
S'--'
p1057
sg36
S'--'
p1058
sg38
S'--'
p1059
sg40
S'--'
p1060
sg42
S'10/16'
p1061
sg44
S'Jimmy Clausen'
p1062
sg46
S'0.0'
p1063
sg48
S'L17-31'
p1064
sg50
S'2011'
p1065
ssg243
(dp1066
g5
g314
sg7
g243
sg9
g314
sg11
g314
sg13
g314
sg15
g314
sg17
g314
sg19
g314
sg21
g314
sg23
g314
sg25
g314
sg27
g314
sg29
g314
sg31
g314
sg32
g314
sg34
g314
sg36
g314
sg38
g314
sg40
g314
sg42
S'Bye'
p1067
sg44
S'Jimmy Clausen'
p1068
sg46
g314
sg48
g314
sg50
S'2011'
p1069
ssg137
(dp1070
g5
S'--'
p1071
sg7
g137
sg9
S'--'
p1072
sg11
S'--'
p1073
sg13
S'--'
p1074
sg15
S'--'
p1075
sg17
S'--'
p1076
sg19
S'--'
p1077
sg21
S'MIN'
p1078
sg23
g24
sg25
S'--'
p1079
sg27
S'--'
p1080
sg29
S'--'
p1081
sg31
g24
sg32
S'--'
p1082
sg34
S'--'
p1083
sg36
S'--'
p1084
sg38
S'--'
p1085
sg40
S'--'
p1086
sg42
S'10/30'
p1087
sg44
S'Jimmy Clausen'
p1088
sg46
S'0.0'
p1089
sg48
S'L21-24'
p1090
sg50
S'2011'
p1091
sssS'2010'
p1092
(dp1093
g3
(dp1094
g5
S'--'
p1095
sg7
S'11'
p1096
sg9
S'--'
p1097
sg11
S'--'
p1098
sg13
S'--'
p1099
sg15
S'--'
p1100
sg17
S'--'
p1101
sg19
S'--'
p1102
sg21
S'BAL'
p1103
sg23
g24
sg25
S'--'
p1104
sg27
S'--'
p1105
sg29
S'--'
p1106
sg31
g24
sg32
S'--'
p1107
sg34
S'--'
p1108
sg36
S'--'
p1109
sg38
S'--'
p1110
sg40
S'--'
p1111
sg42
S'11/21'
p1112
sg44
S'Jimmy Clausen'
p1113
sg46
S'0.0'
p1114
sg48
S'L13-37'
p1115
sg50
S'2010'
p1116
ssg52
(dp1117
g5
S'29'
p1118
sg7
S'10'
p1119
sg9
S'2.2'
p1120
sg11
S'55.2'
p1121
sg13
g130
sg15
S'191'
p1122
sg17
S'6.6'
p1123
sg19
S'--'
p1124
sg21
S'@TB'
p1125
sg23
g135
sg25
S'16'
p1126
sg27
g243
sg29
S'11'
p1127
sg31
g135
sg32
S'--'
p1128
sg34
g24
sg36
g24
sg38
g140
sg40
g24
sg42
S'11/14'
p1129
sg44
S'Jimmy Clausen'
p1130
sg46
S'75.5'
p1131
sg48
S'L16-31'
p1132
sg50
S'2010'
p1133
ssg76
(dp1134
g5
S'34'
p1135
sg7
S'13'
p1136
sg9
S'0.0'
p1137
sg11
S'52.9'
p1138
sg13
g135
sg15
S'169'
p1139
sg17
S'5.0'
p1140
sg19
g135
sg21
S'@SEA'
p1141
sg23
g135
sg25
S'18'
p1142
sg27
S'17'
p1143
sg29
g24
sg31
g135
sg32
g24
sg34
g24
sg36
g24
sg38
g234
sg40
g135
sg42
S'12/05'
p1144
sg44
S'Jimmy Clausen'
p1145
sg46
S'54.7'
p1146
sg48
S'L14-31'
p1147
sg50
S'2010'
p1148
ssg100
(dp1149
g5
S'28'
p1150
sg7
S'12'
p1151
sg9
S'--'
p1152
sg11
S'57.1'
p1153
sg13
S'--'
p1154
sg15
S'195'
p1155
sg17
S'7.0'
p1156
sg19
S'--'
p1157
sg21
S'@CLE'
p1158
sg23
g135
sg25
S'16'
p1159
sg27
S'20'
p1160
sg29
S'--'
p1161
sg31
g135
sg32
S'--'
p1162
sg34
S'--'
p1163
sg36
g24
sg38
g234
sg40
g135
sg42
S'11/28'
p1164
sg44
S'Jimmy Clausen'
p1165
sg46
S'63.8'
p1166
sg48
S'L23-24'
p1167
sg50
S'2010'
p1168
ssg124
(dp1169
g5
S'19'
p1170
sg7
S'15'
p1171
sg9
S'2.8'
p1172
sg11
S'68.4'
p1173
sg13
g130
sg15
S'141'
p1174
sg17
S'7.4'
p1175
sg19
S'--'
p1176
sg21
S'ARI'
p1177
sg23
g135
sg25
S'13'
p1178
sg27
S'15'
p1179
sg29
S'14'
p1180
sg31
g135
sg32
S'--'
p1181
sg34
g24
sg36
g135
sg38
g140
sg40
g24
sg42
S'12/19'
p1182
sg44
S'Jimmy Clausen'
p1183
sg46
S'107.6'
p1184
sg48
S'W19-12'
p1185
sg50
S'2010'
p1186
ssg146
(dp1187
g5
S'24'
p1188
sg7
S'14'
p1189
sg9
S'--'
p1190
sg11
S'58.3'
p1191
sg13
S'--'
p1192
sg15
S'107'
p1193
sg17
S'4.5'
p1194
sg19
S'--'
p1195
sg21
S'ATL'
p1196
sg23
g135
sg25
S'14'
p1197
sg27
S'31'
p1198
sg29
S'--'
p1199
sg31
g135
sg32
S'--'
p1200
sg34
S'--'
p1201
sg36
g24
sg38
g130
sg40
g135
sg42
S'12/12'
p1202
sg44
S'Jimmy Clausen'
p1203
sg46
S'51.9'
p1204
sg48
S'L10-31'
p1205
sg50
S'2010'
p1206
ssg164
(dp1207
g5
S'33'
p1208
sg7
S'17'
p1209
sg9
S'--'
p1210
sg11
S'57.6'
p1211
sg13
S'--'
p1212
sg15
S'182'
p1213
sg17
S'5.5'
p1214
sg19
g135
sg21
S'@ATL'
p1215
sg23
g135
sg25
S'19'
p1216
sg27
S'28'
p1217
sg29
S'--'
p1218
sg31
g135
sg32
g24
sg34
S'--'
p1219
sg36
g135
sg38
g234
sg40
g135
sg42
S'01/02'
p1220
sg44
S'Jimmy Clausen'
p1221
sg46
S'70.5'
p1222
sg48
S'L10-31'
p1223
sg50
S'2010'
p1224
ssg188
(dp1225
g5
S'23'
p1226
sg7
S'16'
p1227
sg9
S'--'
p1228
sg11
S'43.5'
p1229
sg13
S'--'
p1230
sg15
S'72'
p1231
sg17
S'3.1'
p1232
sg19
S'--'
p1233
sg21
S'@PIT'
p1234
sg23
g135
sg25
S'10'
p1235
sg27
S'27'
p1236
sg29
S'--'
p1237
sg31
g135
sg32
S'--'
p1238
sg34
S'--'
p1239
sg36
g24
sg38
g289
sg40
g135
sg42
S'12/23'
p1240
sg44
S'Jimmy Clausen'
p1241
sg46
S'33.2'
p1242
sg48
S'L3-27'
p1243
sg50
S'2010'
p1244
ssg135
(dp1245
g5
g140
sg7
g135
sg9
S'--'
p1246
sg11
S'0.0'
p1247
sg13
S'--'
p1248
sg15
g24
sg17
S'0.0'
p1249
sg19
S'--'
p1250
sg21
S'@NYG'
p1251
sg23
g135
sg25
g24
sg27
g24
sg29
S'--'
p1252
sg31
g24
sg32
S'--'
p1253
sg34
S'--'
p1254
sg36
g24
sg38
g24
sg40
g24
sg42
S'09/12'
p1255
sg44
S'Jimmy Clausen'
p1256
sg46
S'39.6'
p1257
sg48
S'L18-31'
p1258
sg50
S'2010'
p1259
ssg234
(dp1260
g5
S'33'
p1261
sg7
g234
sg9
S'1.7'
p1262
sg11
S'48.5'
p1263
sg13
g318
sg15
S'188'
p1264
sg17
S'5.7'
p1265
sg19
g234
sg21
S'CIN'
p1266
sg23
g135
sg25
S'16'
p1267
sg27
g137
sg29
S'10'
p1268
sg31
g135
sg32
g140
sg34
g24
sg36
g24
sg38
g135
sg40
g135
sg42
S'09/26'
p1269
sg44
S'Jimmy Clausen'
p1270
sg46
S'53.6'
p1271
sg48
S'L7-20'
p1272
sg50
S'2010'
p1273
ssg140
(dp1274
g5
S'13'
p1275
sg7
g140
sg9
S'0.0'
p1276
sg11
S'53.8'
p1277
sg13
g135
sg15
S'59'
p1278
sg17
S'4.5'
p1279
sg19
g135
sg21
S'TB'
p1280
sg23
g135
sg25
g312
sg27
g24
sg29
g24
sg31
g24
sg32
g24
sg34
g24
sg36
g24
sg38
g24
sg40
g135
sg42
S'09/19'
p1281
sg44
S'Jimmy Clausen'
p1282
sg46
S'33.8'
p1283
sg48
S'L7-20'
p1284
sg50
S'2010'
p1285
ssg130
(dp1286
g5
S'22'
p1287
sg7
g130
sg9
S'0.0'
p1288
sg11
S'40.9'
p1289
sg13
g140
sg15
S'61'
p1290
sg17
S'2.8'
p1291
sg19
g234
sg21
S'CHI'
p1292
sg23
g135
sg25
g243
sg27
S'34'
p1293
sg29
g24
sg31
g135
sg32
g24
sg34
g24
sg36
g24
sg38
g130
sg40
g135
sg42
S'10/10'
p1294
sg44
S'Jimmy Clausen'
p1295
sg46
S'29.7'
p1296
sg48
S'L6-23'
p1297
sg50
S'2010'
p1298
ssg289
(dp1299
g5
S'21'
p1300
sg7
g289
sg9
S'5.5'
p1301
sg11
S'52.4'
p1302
sg13
g140
sg15
S'146'
p1303
sg17
S'7.0'
p1304
sg19
S'--'
p1305
sg21
S'@NO'
p1306
sg23
g135
sg25
S'11'
p1307
sg27
S'13'
p1308
sg29
S'11'
p1309
sg31
g135
sg32
S'--'
p1310
sg34
g24
sg36
g135
sg38
g234
sg40
g24
sg42
S'10/03'
p1311
sg44
S'Jimmy Clausen'
p1312
sg46
S'90.6'
p1313
sg48
S'L14-16'
p1314
sg50
S'2010'
p1315
ssg312
(dp1316
g5
S'--'
p1317
sg7
g312
sg9
S'--'
p1318
sg11
S'--'
p1319
sg13
S'--'
p1320
sg15
S'--'
p1321
sg17
S'--'
p1322
sg19
S'--'
p1323
sg21
S'SF'
p1324
sg23
g24
sg25
S'--'
p1325
sg27
S'--'
p1326
sg29
S'--'
p1327
sg31
g24
sg32
S'--'
p1328
sg34
S'--'
p1329
sg36
S'--'
p1330
sg38
S'--'
p1331
sg40
S'--'
p1332
sg42
S'10/24'
p1333
sg44
S'Jimmy Clausen'
p1334
sg46
S'0.0'
p1335
sg48
S'W23-20'
p1336
sg50
S'2010'
p1337
ssg318
(dp1338
g5
g314
sg7
g318
sg9
g314
sg11
g314
sg13
g314
sg15
g314
sg17
g314
sg19
g314
sg21
g314
sg23
g314
sg25
g314
sg27
g314
sg29
g314
sg31
g314
sg32
g314
sg34
g314
sg36
g314
sg38
g314
sg40
g314
sg42
S'Bye'
p1339
sg44
S'Jimmy Clausen'
p1340
sg46
g314
sg48
g314
sg50
S'2010'
p1341
ssg243
(dp1342
g5
S'18'
p1343
sg7
g243
sg9
S'11.0'
p1344
sg11
S'44.4'
p1345
sg13
g135
sg15
S'47'
p1346
sg17
S'2.6'
p1347
sg19
S'--'
p1348
sg21
S'NO'
p1349
sg23
g135
sg25
g137
sg27
S'21'
p1350
sg29
S'11'
p1351
sg31
g24
sg32
S'--'
p1352
sg34
g24
sg36
g24
sg38
g140
sg40
g135
sg42
S'11/07'
p1353
sg44
S'Jimmy Clausen'
p1354
sg46
S'28.5'
p1355
sg48
S'L3-34'
p1356
sg50
S'2010'
p1357
ssg137
(dp1358
g5
S'--'
p1359
sg7
g137
sg9
S'--'
p1360
sg11
S'--'
p1361
sg13
S'--'
p1362
sg15
S'--'
p1363
sg17
S'--'
p1364
sg19
S'--'
p1365
sg21
S'@STL'
p1366
sg23
g24
sg25
S'--'
p1367
sg27
S'--'
p1368
sg29
S'--'
p1369
sg31
g24
sg32
S'--'
p1370
sg34
S'--'
p1371
sg36
S'--'
p1372
sg38
S'--'
p1373
sg40
S'--'
p1374
sg42
S'10/31'
p1375
sg44
S'Jimmy Clausen'
p1376
sg46
S'0.0'
p1377
sg48
S'L10-20'
p1378
sg50
S'2010'
p1379
sssS'2012'
p1380
(dp1381
g3
(dp1382
g5
S'--'
p1383
sg7
S'11'
p1384
sg9
S'--'
p1385
sg11
S'--'
p1386
sg13
S'--'
p1387
sg15
S'--'
p1388
sg17
S'--'
p1389
sg19
S'--'
p1390
sg21
S'TB'
p1391
sg23
g24
sg25
S'--'
p1392
sg27
S'--'
p1393
sg29
S'--'
p1394
sg31
g24
sg32
S'--'
p1395
sg34
S'--'
p1396
sg36
S'--'
p1397
sg38
S'--'
p1398
sg40
S'--'
p1399
sg42
S'11/18'
p1400
sg44
S'Jimmy Clausen'
p1401
sg46
S'0.0'
p1402
sg48
S'L21-27'
p1403
sg50
S'2012'
p1404
ssg52
(dp1405
g5
S'--'
p1406
sg7
S'10'
p1407
sg9
S'--'
p1408
sg11
S'--'
p1409
sg13
S'--'
p1410
sg15
S'--'
p1411
sg17
S'--'
p1412
sg19
S'--'
p1413
sg21
S'DEN'
p1414
sg23
g24
sg25
S'--'
p1415
sg27
S'--'
p1416
sg29
S'--'
p1417
sg31
g24
sg32
S'--'
p1418
sg34
S'--'
p1419
sg36
S'--'
p1420
sg38
S'--'
p1421
sg40
S'--'
p1422
sg42
S'11/11'
p1423
sg44
S'Jimmy Clausen'
p1424
sg46
S'0.0'
p1425
sg48
S'L14-36'
p1426
sg50
S'2012'
p1427
ssg76
(dp1428
g5
S'--'
p1429
sg7
S'13'
p1430
sg9
S'--'
p1431
sg11
S'--'
p1432
sg13
S'--'
p1433
sg15
S'--'
p1434
sg17
S'--'
p1435
sg19
S'--'
p1436
sg21
S'@KC'
p1437
sg23
g24
sg25
S'--'
p1438
sg27
S'--'
p1439
sg29
S'--'
p1440
sg31
g24
sg32
S'--'
p1441
sg34
S'--'
p1442
sg36
S'--'
p1443
sg38
S'--'
p1444
sg40
S'--'
p1445
sg42
S'12/02'
p1446
sg44
S'Jimmy Clausen'
p1447
sg46
S'0.0'
p1448
sg48
S'L21-27'
p1449
sg50
S'2012'
p1450
ssg100
(dp1451
g5
S'--'
p1452
sg7
S'12'
p1453
sg9
S'--'
p1454
sg11
S'--'
p1455
sg13
S'--'
p1456
sg15
S'--'
p1457
sg17
S'--'
p1458
sg19
S'--'
p1459
sg21
S'@PHI'
p1460
sg23
g24
sg25
S'--'
p1461
sg27
S'--'
p1462
sg29
S'--'
p1463
sg31
g24
sg32
S'--'
p1464
sg34
S'--'
p1465
sg36
S'--'
p1466
sg38
S'--'
p1467
sg40
S'--'
p1468
sg42
S'11/26'
p1469
sg44
S'Jimmy Clausen'
p1470
sg46
S'0.0'
p1471
sg48
S'W30-22'
p1472
sg50
S'2012'
p1473
ssg124
(dp1474
g5
S'--'
p1475
sg7
S'15'
p1476
sg9
S'--'
p1477
sg11
S'--'
p1478
sg13
S'--'
p1479
sg15
S'--'
p1480
sg17
S'--'
p1481
sg19
S'--'
p1482
sg21
S'@SD'
p1483
sg23
g24
sg25
S'--'
p1484
sg27
S'--'
p1485
sg29
S'--'
p1486
sg31
g24
sg32
S'--'
p1487
sg34
S'--'
p1488
sg36
S'--'
p1489
sg38
S'--'
p1490
sg40
S'--'
p1491
sg42
S'12/16'
p1492
sg44
S'Jimmy Clausen'
p1493
sg46
S'0.0'
p1494
sg48
S'W31-7'
p1495
sg50
S'2012'
p1496
ssg146
(dp1497
g5
S'--'
p1498
sg7
S'14'
p1499
sg9
S'--'
p1500
sg11
S'--'
p1501
sg13
S'--'
p1502
sg15
S'--'
p1503
sg17
S'--'
p1504
sg19
S'--'
p1505
sg21
S'ATL'
p1506
sg23
g24
sg25
S'--'
p1507
sg27
S'--'
p1508
sg29
S'--'
p1509
sg31
g24
sg32
S'--'
p1510
sg34
S'--'
p1511
sg36
S'--'
p1512
sg38
S'--'
p1513
sg40
S'--'
p1514
sg42
S'12/09'
p1515
sg44
S'Jimmy Clausen'
p1516
sg46
S'0.0'
p1517
sg48
S'W30-20'
p1518
sg50
S'2012'
p1519
ssg164
(dp1520
g5
S'--'
p1521
sg7
S'17'
p1522
sg9
S'--'
p1523
sg11
S'--'
p1524
sg13
S'--'
p1525
sg15
S'--'
p1526
sg17
S'--'
p1527
sg19
S'--'
p1528
sg21
S'@NO'
p1529
sg23
g24
sg25
S'--'
p1530
sg27
S'--'
p1531
sg29
S'--'
p1532
sg31
g24
sg32
S'--'
p1533
sg34
S'--'
p1534
sg36
S'--'
p1535
sg38
S'--'
p1536
sg40
S'--'
p1537
sg42
S'12/30'
p1538
sg44
S'Jimmy Clausen'
p1539
sg46
S'0.0'
p1540
sg48
S'W44-38'
p1541
sg50
S'2012'
p1542
ssg188
(dp1543
g5
S'--'
p1544
sg7
S'16'
p1545
sg9
S'--'
p1546
sg11
S'--'
p1547
sg13
S'--'
p1548
sg15
S'--'
p1549
sg17
S'--'
p1550
sg19
S'--'
p1551
sg21
S'OAK'
p1552
sg23
g24
sg25
S'--'
p1553
sg27
S'--'
p1554
sg29
S'--'
p1555
sg31
g24
sg32
S'--'
p1556
sg34
S'--'
p1557
sg36
S'--'
p1558
sg38
S'--'
p1559
sg40
S'--'
p1560
sg42
S'12/23'
p1561
sg44
S'Jimmy Clausen'
p1562
sg46
S'0.0'
p1563
sg48
S'W17-6'
p1564
sg50
S'2012'
p1565
ssg135
(dp1566
g5
S'--'
p1567
sg7
g135
sg9
S'--'
p1568
sg11
S'--'
p1569
sg13
S'--'
p1570
sg15
S'--'
p1571
sg17
S'--'
p1572
sg19
S'--'
p1573
sg21
S'@TB'
p1574
sg23
g24
sg25
S'--'
p1575
sg27
S'--'
p1576
sg29
S'--'
p1577
sg31
g24
sg32
S'--'
p1578
sg34
S'--'
p1579
sg36
S'--'
p1580
sg38
S'--'
p1581
sg40
S'--'
p1582
sg42
S'09/09'
p1583
sg44
S'Jimmy Clausen'
p1584
sg46
S'0.0'
p1585
sg48
S'L10-16'
p1586
sg50
S'2012'
p1587
ssg234
(dp1588
g5
S'--'
p1589
sg7
g234
sg9
S'--'
p1590
sg11
S'--'
p1591
sg13
S'--'
p1592
sg15
S'--'
p1593
sg17
S'--'
p1594
sg19
S'--'
p1595
sg21
S'NYG'
p1596
sg23
g24
sg25
S'--'
p1597
sg27
S'--'
p1598
sg29
S'--'
p1599
sg31
g24
sg32
S'--'
p1600
sg34
S'--'
p1601
sg36
S'--'
p1602
sg38
S'--'
p1603
sg40
S'--'
p1604
sg42
S'09/20'
p1605
sg44
S'Jimmy Clausen'
p1606
sg46
S'0.0'
p1607
sg48
S'L7-36'
p1608
sg50
S'2012'
p1609
ssg140
(dp1610
g5
S'--'
p1611
sg7
g140
sg9
S'--'
p1612
sg11
S'--'
p1613
sg13
S'--'
p1614
sg15
S'--'
p1615
sg17
S'--'
p1616
sg19
S'--'
p1617
sg21
S'NO'
p1618
sg23
g24
sg25
S'--'
p1619
sg27
S'--'
p1620
sg29
S'--'
p1621
sg31
g24
sg32
S'--'
p1622
sg34
S'--'
p1623
sg36
S'--'
p1624
sg38
S'--'
p1625
sg40
S'--'
p1626
sg42
S'09/16'
p1627
sg44
S'Jimmy Clausen'
p1628
sg46
S'0.0'
p1629
sg48
S'W35-27'
p1630
sg50
S'2012'
p1631
ssg130
(dp1632
g5
S'--'
p1633
sg7
g130
sg9
S'--'
p1634
sg11
S'--'
p1635
sg13
S'--'
p1636
sg15
S'--'
p1637
sg17
S'--'
p1638
sg19
S'--'
p1639
sg21
S'SEA'
p1640
sg23
g24
sg25
S'--'
p1641
sg27
S'--'
p1642
sg29
S'--'
p1643
sg31
g24
sg32
S'--'
p1644
sg34
S'--'
p1645
sg36
S'--'
p1646
sg38
S'--'
p1647
sg40
S'--'
p1648
sg42
S'10/07'
p1649
sg44
S'Jimmy Clausen'
p1650
sg46
S'0.0'
p1651
sg48
S'L12-16'
p1652
sg50
S'2012'
p1653
ssg289
(dp1654
g5
S'--'
p1655
sg7
g289
sg9
S'--'
p1656
sg11
S'--'
p1657
sg13
S'--'
p1658
sg15
S'--'
p1659
sg17
S'--'
p1660
sg19
S'--'
p1661
sg21
S'@ATL'
p1662
sg23
g24
sg25
S'--'
p1663
sg27
S'--'
p1664
sg29
S'--'
p1665
sg31
g24
sg32
S'--'
p1666
sg34
S'--'
p1667
sg36
S'--'
p1668
sg38
S'--'
p1669
sg40
S'--'
p1670
sg42
S'09/30'
p1671
sg44
S'Jimmy Clausen'
p1672
sg46
S'0.0'
p1673
sg48
S'L28-30'
p1674
sg50
S'2012'
p1675
ssg312
(dp1676
g5
S'--'
p1677
sg7
g312
sg9
S'--'
p1678
sg11
S'--'
p1679
sg13
S'--'
p1680
sg15
S'--'
p1681
sg17
S'--'
p1682
sg19
S'--'
p1683
sg21
S'DAL'
p1684
sg23
g24
sg25
S'--'
p1685
sg27
S'--'
p1686
sg29
S'--'
p1687
sg31
g24
sg32
S'--'
p1688
sg34
S'--'
p1689
sg36
S'--'
p1690
sg38
S'--'
p1691
sg40
S'--'
p1692
sg42
S'10/21'
p1693
sg44
S'Jimmy Clausen'
p1694
sg46
S'0.0'
p1695
sg48
S'L14-19'
p1696
sg50
S'2012'
p1697
ssg318
(dp1698
g5
g314
sg7
g318
sg9
g314
sg11
g314
sg13
g314
sg15
g314
sg17
g314
sg19
g314
sg21
g314
sg23
g314
sg25
g314
sg27
g314
sg29
g314
sg31
g314
sg32
g314
sg34
g314
sg36
g314
sg38
g314
sg40
g314
sg42
S'Bye'
p1699
sg44
S'Jimmy Clausen'
p1700
sg46
g314
sg48
g314
sg50
S'2012'
p1701
ssg243
(dp1702
g5
S'--'
p1703
sg7
g243
sg9
S'--'
p1704
sg11
S'--'
p1705
sg13
S'--'
p1706
sg15
S'--'
p1707
sg17
S'--'
p1708
sg19
S'--'
p1709
sg21
S'@WAS'
p1710
sg23
g24
sg25
S'--'
p1711
sg27
S'--'
p1712
sg29
S'--'
p1713
sg31
g24
sg32
S'--'
p1714
sg34
S'--'
p1715
sg36
S'--'
p1716
sg38
S'--'
p1717
sg40
S'--'
p1718
sg42
S'11/04'
p1719
sg44
S'Jimmy Clausen'
p1720
sg46
S'0.0'
p1721
sg48
S'W21-13'
p1722
sg50
S'2012'
p1723
ssg137
(dp1724
g5
S'--'
p1725
sg7
g137
sg9
S'--'
p1726
sg11
S'--'
p1727
sg13
S'--'
p1728
sg15
S'--'
p1729
sg17
S'--'
p1730
sg19
S'--'
p1731
sg21
S'@CHI'
p1732
sg23
g24
sg25
S'--'
p1733
sg27
S'--'
p1734
sg29
S'--'
p1735
sg31
g24
sg32
S'--'
p1736
sg34
S'--'
p1737
sg36
S'--'
p1738
sg38
S'--'
p1739
sg40
S'--'
p1740
sg42
S'10/28'
p1741
sg44
S'Jimmy Clausen'
p1742
sg46
S'0.0'
p1743
sg48
S'L22-23'
p1744
sg50
S'2012'
p1745
sss.