(dp0
S'2015'
p1
(dp2
S'11'
p3
(dp4
S'PassAtt'
p5
S'--'
p6
sS'WK'
p7
S'11'
p8
sS'RushAvg'
p9
S'--'
p10
sS'Pct'
p11
S'--'
p12
sS'RushAtt'
p13
S'--'
p14
sS'PassYds'
p15
S'--'
p16
sS'PassAvg'
p17
S'--'
p18
sS'FUM'
p19
S'--'
p20
sS'Opp'
p21
S'BUF'
p22
sS'G'
p23
S'0'
p24
sS'Comp'
p25
S'--'
p26
sS'SckY'
p27
S'--'
p28
sS'RushYds'
p29
S'--'
p30
sS'GS'
p31
g24
sS'Lost'
p32
S'--'
p33
sS'RushTD'
p34
S'--'
p35
sS'PassTD'
p36
S'--'
p37
sS'Sck'
p38
S'--'
p39
sS'Int'
p40
S'--'
p41
sS'Game Date'
p42
S'11/23'
p43
sS'Player'
p44
S'Jimmy Garoppolo'
p45
sS'Rate'
p46
S'0.0'
p47
sS'Result'
p48
S'W20-13'
p49
sS'Year'
p50
S'2015'
p51
ssS'10'
p52
(dp53
g5
S'--'
p54
sg7
S'10'
p55
sg9
S'--'
p56
sg11
S'--'
p57
sg13
S'--'
p58
sg15
S'--'
p59
sg17
S'--'
p60
sg19
S'--'
p61
sg21
S'@NYG'
p62
sg23
g24
sg25
S'--'
p63
sg27
S'--'
p64
sg29
S'--'
p65
sg31
g24
sg32
S'--'
p66
sg34
S'--'
p67
sg36
S'--'
p68
sg38
S'--'
p69
sg40
S'--'
p70
sg42
S'11/15'
p71
sg44
S'Jimmy Garoppolo'
p72
sg46
S'0.0'
p73
sg48
S'W27-26'
p74
sg50
S'2015'
p75
ssS'13'
p76
(dp77
g5
S'--'
p78
sg7
S'13'
p79
sg9
S'--'
p80
sg11
S'--'
p81
sg13
S'--'
p82
sg15
S'--'
p83
sg17
S'--'
p84
sg19
S'--'
p85
sg21
S'PHI'
p86
sg23
g24
sg25
S'--'
p87
sg27
S'--'
p88
sg29
S'--'
p89
sg31
g24
sg32
S'--'
p90
sg34
S'--'
p91
sg36
S'--'
p92
sg38
S'--'
p93
sg40
S'--'
p94
sg42
S'12/06'
p95
sg44
S'Jimmy Garoppolo'
p96
sg46
S'0.0'
p97
sg48
S'L28-35'
p98
sg50
S'2015'
p99
ssS'12'
p100
(dp101
g5
S'--'
p102
sg7
S'12'
p103
sg9
S'--'
p104
sg11
S'--'
p105
sg13
S'--'
p106
sg15
S'--'
p107
sg17
S'--'
p108
sg19
S'--'
p109
sg21
S'@DEN'
p110
sg23
g24
sg25
S'--'
p111
sg27
S'--'
p112
sg29
S'--'
p113
sg31
g24
sg32
S'--'
p114
sg34
S'--'
p115
sg36
S'--'
p116
sg38
S'--'
p117
sg40
S'--'
p118
sg42
S'11/29'
p119
sg44
S'Jimmy Garoppolo'
p120
sg46
S'0.0'
p121
sg48
S'L24-30'
p122
sg50
S'2015'
p123
ssS'15'
p124
(dp125
g5
S'--'
p126
sg7
S'15'
p127
sg9
S'--'
p128
sg11
S'--'
p129
sg13
S'--'
p130
sg15
S'--'
p131
sg17
S'--'
p132
sg19
S'--'
p133
sg21
S'TEN'
p134
sg23
g24
sg25
S'--'
p135
sg27
S'--'
p136
sg29
S'--'
p137
sg31
g24
sg32
S'--'
p138
sg34
S'--'
p139
sg36
S'--'
p140
sg38
S'--'
p141
sg40
S'--'
p142
sg42
S'12/20'
p143
sg44
S'Jimmy Garoppolo'
p144
sg46
S'0.0'
p145
sg48
S'W33-16'
p146
sg50
S'2015'
p147
ssS'14'
p148
(dp149
g5
S'--'
p150
sg7
S'14'
p151
sg9
S'--'
p152
sg11
S'--'
p153
sg13
S'--'
p154
sg15
S'--'
p155
sg17
S'--'
p156
sg19
S'--'
p157
sg21
S'@HOU'
p158
sg23
g24
sg25
S'--'
p159
sg27
S'--'
p160
sg29
S'--'
p161
sg31
g24
sg32
S'--'
p162
sg34
S'--'
p163
sg36
S'--'
p164
sg38
S'--'
p165
sg40
S'--'
p166
sg42
S'12/13'
p167
sg44
S'Jimmy Garoppolo'
p168
sg46
S'0.0'
p169
sg48
S'W27-6'
p170
sg50
S'2015'
p171
ssS'17'
p172
(dp173
g5
S'4'
p174
sg7
S'17'
p175
sg9
S'--'
p176
sg11
S'25.0'
p177
sg13
S'--'
p178
sg15
S'6'
p179
sg17
S'1.5'
p180
sg19
S'--'
p181
sg21
S'@MIA'
p182
sg23
S'1'
p183
sg25
g183
sg27
g24
sg29
S'--'
p184
sg31
g24
sg32
S'--'
p185
sg34
S'--'
p186
sg36
g24
sg38
g24
sg40
g24
sg42
S'01/03'
p187
sg44
S'Jimmy Garoppolo'
p188
sg46
S'39.6'
p189
sg48
S'L10-20'
p190
sg50
S'2015'
p191
ssS'16'
p192
(dp193
g5
S'--'
p194
sg7
S'16'
p195
sg9
S'--'
p196
sg11
S'--'
p197
sg13
S'--'
p198
sg15
S'--'
p199
sg17
S'--'
p200
sg19
S'--'
p201
sg21
S'@NYJ'
p202
sg23
g24
sg25
S'--'
p203
sg27
S'--'
p204
sg29
S'--'
p205
sg31
g24
sg32
S'--'
p206
sg34
S'--'
p207
sg36
S'--'
p208
sg38
S'--'
p209
sg40
S'--'
p210
sg42
S'12/27'
p211
sg44
S'Jimmy Garoppolo'
p212
sg46
S'0.0'
p213
sg48
S'L20-26'
p214
sg50
S'2015'
p215
ssg183
(dp216
g5
S'--'
p217
sg7
g183
sg9
S'--'
p218
sg11
S'--'
p219
sg13
S'--'
p220
sg15
S'--'
p221
sg17
S'--'
p222
sg19
S'--'
p223
sg21
S'PIT'
p224
sg23
g24
sg25
S'--'
p225
sg27
S'--'
p226
sg29
S'--'
p227
sg31
g24
sg32
S'--'
p228
sg34
S'--'
p229
sg36
S'--'
p230
sg38
S'--'
p231
sg40
S'--'
p232
sg42
S'09/10'
p233
sg44
S'Jimmy Garoppolo'
p234
sg46
S'0.0'
p235
sg48
S'W28-21'
p236
sg50
S'2015'
p237
ssS'3'
p238
(dp239
g5
S'--'
p240
sg7
g238
sg9
S'-1.0'
p241
sg11
S'--'
p242
sg13
S'2'
p243
sg15
S'--'
p244
sg17
S'--'
p245
sg19
S'--'
p246
sg21
S'JAC'
p247
sg23
g183
sg25
S'--'
p248
sg27
S'--'
p249
sg29
S'-2'
p250
sg31
g24
sg32
S'--'
p251
sg34
g24
sg36
S'--'
p252
sg38
S'--'
p253
sg40
S'--'
p254
sg42
S'09/27'
p255
sg44
S'Jimmy Garoppolo'
p256
sg46
S'0.0'
p257
sg48
S'W51-17'
p258
sg50
S'2015'
p259
ssg243
(dp260
g5
S'--'
p261
sg7
g243
sg9
S'--'
p262
sg11
S'--'
p263
sg13
S'--'
p264
sg15
S'--'
p265
sg17
S'--'
p266
sg19
S'--'
p267
sg21
S'@BUF'
p268
sg23
g24
sg25
S'--'
p269
sg27
S'--'
p270
sg29
S'--'
p271
sg31
g24
sg32
S'--'
p272
sg34
S'--'
p273
sg36
S'--'
p274
sg38
S'--'
p275
sg40
S'--'
p276
sg42
S'09/20'
p277
sg44
S'Jimmy Garoppolo'
p278
sg46
S'0.0'
p279
sg48
S'W40-32'
p280
sg50
S'2015'
p281
ssS'5'
p282
(dp283
g5
S'--'
p284
sg7
g282
sg9
S'-1.0'
p285
sg11
S'--'
p286
sg13
g243
sg15
S'--'
p287
sg17
S'--'
p288
sg19
S'--'
p289
sg21
S'@DAL'
p290
sg23
g183
sg25
S'--'
p291
sg27
S'--'
p292
sg29
S'-2'
p293
sg31
g24
sg32
S'--'
p294
sg34
g24
sg36
S'--'
p295
sg38
S'--'
p296
sg40
S'--'
p297
sg42
S'10/11'
p298
sg44
S'Jimmy Garoppolo'
p299
sg46
S'0.0'
p300
sg48
S'W30-6'
p301
sg50
S'2015'
p302
ssg174
(dp303
g5
S''
p304
sg7
g174
sg9
g304
sg11
g304
sg13
g304
sg15
g304
sg17
g304
sg19
g304
sg21
g304
sg23
g304
sg25
g304
sg27
g304
sg29
g304
sg31
g304
sg32
g304
sg34
g304
sg36
g304
sg38
g304
sg40
g304
sg42
S'Bye'
p305
sg44
S'Jimmy Garoppolo'
p306
sg46
g304
sg48
g304
sg50
S'2015'
p307
ssS'7'
p308
(dp309
g5
S'--'
p310
sg7
g308
sg9
S'--'
p311
sg11
S'--'
p312
sg13
S'--'
p313
sg15
S'--'
p314
sg17
S'--'
p315
sg19
S'--'
p316
sg21
S'NYJ'
p317
sg23
g24
sg25
S'--'
p318
sg27
S'--'
p319
sg29
S'--'
p320
sg31
g24
sg32
S'--'
p321
sg34
S'--'
p322
sg36
S'--'
p323
sg38
S'--'
p324
sg40
S'--'
p325
sg42
S'10/25'
p326
sg44
S'Jimmy Garoppolo'
p327
sg46
S'0.0'
p328
sg48
S'W30-23'
p329
sg50
S'2015'
p330
ssg179
(dp331
g5
S'--'
p332
sg7
g179
sg9
S'--'
p333
sg11
S'--'
p334
sg13
S'--'
p335
sg15
S'--'
p336
sg17
S'--'
p337
sg19
S'--'
p338
sg21
S'@IND'
p339
sg23
g24
sg25
S'--'
p340
sg27
S'--'
p341
sg29
S'--'
p342
sg31
g24
sg32
S'--'
p343
sg34
S'--'
p344
sg36
S'--'
p345
sg38
S'--'
p346
sg40
S'--'
p347
sg42
S'10/18'
p348
sg44
S'Jimmy Garoppolo'
p349
sg46
S'0.0'
p350
sg48
S'W34-27'
p351
sg50
S'2015'
p352
ssS'9'
p353
(dp354
g5
S'--'
p355
sg7
g353
sg9
S'-1.0'
p356
sg11
S'--'
p357
sg13
g183
sg15
S'--'
p358
sg17
S'--'
p359
sg19
S'--'
p360
sg21
S'WAS'
p361
sg23
g183
sg25
S'--'
p362
sg27
S'--'
p363
sg29
S'-1'
p364
sg31
g24
sg32
S'--'
p365
sg34
g24
sg36
S'--'
p366
sg38
S'--'
p367
sg40
S'--'
p368
sg42
S'11/08'
p369
sg44
S'Jimmy Garoppolo'
p370
sg46
S'0.0'
p371
sg48
S'W27-10'
p372
sg50
S'2015'
p373
ssS'8'
p374
(dp375
g5
S'--'
p376
sg7
g374
sg9
S'--'
p377
sg11
S'--'
p378
sg13
S'--'
p379
sg15
S'--'
p380
sg17
S'--'
p381
sg19
S'--'
p382
sg21
S'MIA'
p383
sg23
g183
sg25
S'--'
p384
sg27
S'--'
p385
sg29
S'--'
p386
sg31
g24
sg32
S'--'
p387
sg34
S'--'
p388
sg36
S'--'
p389
sg38
S'--'
p390
sg40
S'--'
p391
sg42
S'10/29'
p392
sg44
S'Jimmy Garoppolo'
p393
sg46
S'0.0'
p394
sg48
S'W36-7'
p395
sg50
S'2015'
p396
sssS'2014'
p397
(dp398
g3
(dp399
g5
S'--'
p400
sg7
S'11'
p401
sg9
S'-1.0'
p402
sg11
S'--'
p403
sg13
g243
sg15
S'--'
p404
sg17
S'--'
p405
sg19
S'--'
p406
sg21
S'@IND'
p407
sg23
g183
sg25
S'--'
p408
sg27
S'--'
p409
sg29
S'-2'
p410
sg31
g24
sg32
S'--'
p411
sg34
g24
sg36
S'--'
p412
sg38
S'--'
p413
sg40
S'--'
p414
sg42
S'11/16'
p415
sg44
S'Jimmy Garoppolo'
p416
sg46
S'0.0'
p417
sg48
S'W42-20'
p418
sg50
S'2014'
p419
ssg52
(dp420
g5
g304
sg7
S'10'
p421
sg9
g304
sg11
g304
sg13
g304
sg15
g304
sg17
g304
sg19
g304
sg21
g304
sg23
g304
sg25
g304
sg27
g304
sg29
g304
sg31
g304
sg32
g304
sg34
g304
sg36
g304
sg38
g304
sg40
g304
sg42
S'Bye'
p422
sg44
S'Jimmy Garoppolo'
p423
sg46
g304
sg48
g304
sg50
S'2014'
p424
ssg76
(dp425
g5
S'--'
p426
sg7
S'13'
p427
sg9
S'--'
p428
sg11
S'--'
p429
sg13
S'--'
p430
sg15
S'--'
p431
sg17
S'--'
p432
sg19
S'--'
p433
sg21
S'@GB'
p434
sg23
g24
sg25
S'--'
p435
sg27
S'--'
p436
sg29
S'--'
p437
sg31
g24
sg32
S'--'
p438
sg34
S'--'
p439
sg36
S'--'
p440
sg38
S'--'
p441
sg40
S'--'
p442
sg42
S'11/30'
p443
sg44
S'Jimmy Garoppolo'
p444
sg46
S'0.0'
p445
sg48
S'L21-26'
p446
sg50
S'2014'
p447
ssg100
(dp448
g5
S'--'
p449
sg7
S'12'
p450
sg9
S'--'
p451
sg11
S'--'
p452
sg13
S'--'
p453
sg15
S'--'
p454
sg17
S'--'
p455
sg19
S'--'
p456
sg21
S'DET'
p457
sg23
g24
sg25
S'--'
p458
sg27
S'--'
p459
sg29
S'--'
p460
sg31
g24
sg32
S'--'
p461
sg34
S'--'
p462
sg36
S'--'
p463
sg38
S'--'
p464
sg40
S'--'
p465
sg42
S'11/23'
p466
sg44
S'Jimmy Garoppolo'
p467
sg46
S'0.0'
p468
sg48
S'W34-9'
p469
sg50
S'2014'
p470
ssg124
(dp471
g5
S'--'
p472
sg7
S'15'
p473
sg9
S'--'
p474
sg11
S'--'
p475
sg13
S'--'
p476
sg15
S'--'
p477
sg17
S'--'
p478
sg19
S'--'
p479
sg21
S'MIA'
p480
sg23
g183
sg25
S'--'
p481
sg27
S'--'
p482
sg29
S'--'
p483
sg31
g24
sg32
S'--'
p484
sg34
S'--'
p485
sg36
S'--'
p486
sg38
S'--'
p487
sg40
S'--'
p488
sg42
S'12/14'
p489
sg44
S'Jimmy Garoppolo'
p490
sg46
S'0.0'
p491
sg48
S'W41-13'
p492
sg50
S'2014'
p493
ssg148
(dp494
g5
S'--'
p495
sg7
S'14'
p496
sg9
S'--'
p497
sg11
S'--'
p498
sg13
S'--'
p499
sg15
S'--'
p500
sg17
S'--'
p501
sg19
S'--'
p502
sg21
S'@SD'
p503
sg23
g24
sg25
S'--'
p504
sg27
S'--'
p505
sg29
S'--'
p506
sg31
g24
sg32
S'--'
p507
sg34
S'--'
p508
sg36
S'--'
p509
sg38
S'--'
p510
sg40
S'--'
p511
sg42
S'12/07'
p512
sg44
S'Jimmy Garoppolo'
p513
sg46
S'0.0'
p514
sg48
S'W23-14'
p515
sg50
S'2014'
p516
ssg172
(dp517
g5
S'17'
p518
sg7
S'17'
p519
sg9
S'4.0'
p520
sg11
S'58.8'
p521
sg13
g174
sg15
S'90'
p522
sg17
S'5.3'
p523
sg19
S'--'
p524
sg21
S'BUF'
p525
sg23
g183
sg25
S'10'
p526
sg27
S'19'
p527
sg29
S'16'
p528
sg31
g24
sg32
S'--'
p529
sg34
g24
sg36
g24
sg38
g238
sg40
g24
sg42
S'12/28'
p530
sg44
S'Jimmy Garoppolo'
p531
sg46
S'73.2'
p532
sg48
S'L9-17'
p533
sg50
S'2014'
p534
ssg192
(dp535
g5
S'--'
p536
sg7
S'16'
p537
sg9
S'--'
p538
sg11
S'--'
p539
sg13
S'--'
p540
sg15
S'--'
p541
sg17
S'--'
p542
sg19
S'--'
p543
sg21
S'@NYJ'
p544
sg23
g24
sg25
S'--'
p545
sg27
S'--'
p546
sg29
S'--'
p547
sg31
g24
sg32
S'--'
p548
sg34
S'--'
p549
sg36
S'--'
p550
sg38
S'--'
p551
sg40
S'--'
p552
sg42
S'12/21'
p553
sg44
S'Jimmy Garoppolo'
p554
sg46
S'0.0'
p555
sg48
S'W17-16'
p556
sg50
S'2014'
p557
ssg183
(dp558
g5
S'--'
p559
sg7
g183
sg9
S'--'
p560
sg11
S'--'
p561
sg13
S'--'
p562
sg15
S'--'
p563
sg17
S'--'
p564
sg19
S'--'
p565
sg21
S'@MIA'
p566
sg23
g24
sg25
S'--'
p567
sg27
S'--'
p568
sg29
S'--'
p569
sg31
g24
sg32
S'--'
p570
sg34
S'--'
p571
sg36
S'--'
p572
sg38
S'--'
p573
sg40
S'--'
p574
sg42
S'09/07'
p575
sg44
S'Jimmy Garoppolo'
p576
sg46
S'0.0'
p577
sg48
S'L20-33'
p578
sg50
S'2014'
p579
ssg238
(dp580
g5
S'--'
p581
sg7
g238
sg9
S'--'
p582
sg11
S'--'
p583
sg13
S'--'
p584
sg15
S'--'
p585
sg17
S'--'
p586
sg19
S'--'
p587
sg21
S'OAK'
p588
sg23
g24
sg25
S'--'
p589
sg27
S'--'
p590
sg29
S'--'
p591
sg31
g24
sg32
S'--'
p592
sg34
S'--'
p593
sg36
S'--'
p594
sg38
S'--'
p595
sg40
S'--'
p596
sg42
S'09/21'
p597
sg44
S'Jimmy Garoppolo'
p598
sg46
S'0.0'
p599
sg48
S'W16-9'
p600
sg50
S'2014'
p601
ssg243
(dp602
g5
S'--'
p603
sg7
g243
sg9
S'--'
p604
sg11
S'--'
p605
sg13
S'--'
p606
sg15
S'--'
p607
sg17
S'--'
p608
sg19
S'--'
p609
sg21
S'@MIN'
p610
sg23
g24
sg25
S'--'
p611
sg27
S'--'
p612
sg29
S'--'
p613
sg31
g24
sg32
S'--'
p614
sg34
S'--'
p615
sg36
S'--'
p616
sg38
S'--'
p617
sg40
S'--'
p618
sg42
S'09/14'
p619
sg44
S'Jimmy Garoppolo'
p620
sg46
S'0.0'
p621
sg48
S'W30-7'
p622
sg50
S'2014'
p623
ssg282
(dp624
g5
S'--'
p625
sg7
g282
sg9
S'-1.3'
p626
sg11
S'--'
p627
sg13
g238
sg15
S'--'
p628
sg17
S'--'
p629
sg19
S'--'
p630
sg21
S'CIN'
p631
sg23
g183
sg25
S'--'
p632
sg27
S'--'
p633
sg29
S'-4'
p634
sg31
g24
sg32
S'--'
p635
sg34
g24
sg36
S'--'
p636
sg38
S'--'
p637
sg40
S'--'
p638
sg42
S'10/05'
p639
sg44
S'Jimmy Garoppolo'
p640
sg46
S'0.0'
p641
sg48
S'W43-17'
p642
sg50
S'2014'
p643
ssg174
(dp644
g5
g308
sg7
g174
sg9
S'--'
p645
sg11
S'85.7'
p646
sg13
S'--'
p647
sg15
S'70'
p648
sg17
S'10.0'
p649
sg19
S'--'
p650
sg21
S'@KC'
p651
sg23
g183
sg25
g179
sg27
g179
sg29
S'--'
p652
sg31
g24
sg32
S'--'
p653
sg34
S'--'
p654
sg36
g183
sg38
g183
sg40
g24
sg42
S'09/29'
p655
sg44
S'Jimmy Garoppolo'
p656
sg46
S'147.9'
p657
sg48
S'L14-41'
p658
sg50
S'2014'
p659
ssg308
(dp660
g5
S'--'
p661
sg7
g308
sg9
S'--'
p662
sg11
S'--'
p663
sg13
S'--'
p664
sg15
S'--'
p665
sg17
S'--'
p666
sg19
S'--'
p667
sg21
S'NYJ'
p668
sg23
g24
sg25
S'--'
p669
sg27
S'--'
p670
sg29
S'--'
p671
sg31
g24
sg32
S'--'
p672
sg34
S'--'
p673
sg36
S'--'
p674
sg38
S'--'
p675
sg40
S'--'
p676
sg42
S'10/16'
p677
sg44
S'Jimmy Garoppolo'
p678
sg46
S'0.0'
p679
sg48
S'W27-25'
p680
sg50
S'2014'
p681
ssg179
(dp682
g5
S'--'
p683
sg7
g179
sg9
S'--'
p684
sg11
S'--'
p685
sg13
S'--'
p686
sg15
S'--'
p687
sg17
S'--'
p688
sg19
S'--'
p689
sg21
S'@BUF'
p690
sg23
g24
sg25
S'--'
p691
sg27
S'--'
p692
sg29
S'--'
p693
sg31
g24
sg32
S'--'
p694
sg34
S'--'
p695
sg36
S'--'
p696
sg38
S'--'
p697
sg40
S'--'
p698
sg42
S'10/12'
p699
sg44
S'Jimmy Garoppolo'
p700
sg46
S'0.0'
p701
sg48
S'W37-22'
p702
sg50
S'2014'
p703
ssg353
(dp704
g5
S'--'
p705
sg7
g353
sg9
S'--'
p706
sg11
S'--'
p707
sg13
S'--'
p708
sg15
S'--'
p709
sg17
S'--'
p710
sg19
S'--'
p711
sg21
S'DEN'
p712
sg23
g24
sg25
S'--'
p713
sg27
S'--'
p714
sg29
S'--'
p715
sg31
g24
sg32
S'--'
p716
sg34
S'--'
p717
sg36
S'--'
p718
sg38
S'--'
p719
sg40
S'--'
p720
sg42
S'11/02'
p721
sg44
S'Jimmy Garoppolo'
p722
sg46
S'0.0'
p723
sg48
S'W43-21'
p724
sg50
S'2014'
p725
ssg374
(dp726
g5
g238
sg7
g374
sg9
S'-1.0'
p727
sg11
S'100.0'
p728
sg13
g183
sg15
S'22'
p729
sg17
S'7.3'
p730
sg19
S'--'
p731
sg21
S'CHI'
p732
sg23
g183
sg25
g238
sg27
S'11'
p733
sg29
S'-1'
p734
sg31
g24
sg32
S'--'
p735
sg34
g24
sg36
g24
sg38
g183
sg40
g24
sg42
S'10/26'
p736
sg44
S'Jimmy Garoppolo'
p737
sg46
S'97.2'
p738
sg48
S'W51-23'
p739
sg50
S'2014'
p740
sss.