(dp0
S'2015'
p1
(dp2
S'11'
p3
(dp4
S'PassAtt'
p5
S'--'
p6
sS'WK'
p7
S'11'
p8
sS'RushAvg'
p9
S'--'
p10
sS'Pct'
p11
S'--'
p12
sS'RushAtt'
p13
S'--'
p14
sS'PassYds'
p15
S'--'
p16
sS'PassAvg'
p17
S'--'
p18
sS'FUM'
p19
S'--'
p20
sS'Opp'
p21
S'WAS'
p22
sS'G'
p23
S'1'
p24
sS'Comp'
p25
S'--'
p26
sS'SckY'
p27
S'--'
p28
sS'RushYds'
p29
S'--'
p30
sS'GS'
p31
S'0'
p32
sS'Lost'
p33
S'--'
p34
sS'RushTD'
p35
S'--'
p36
sS'PassTD'
p37
S'--'
p38
sS'Sck'
p39
S'--'
p40
sS'Int'
p41
S'--'
p42
sS'Game Date'
p43
S'11/22'
p44
sS'Player'
p45
S'Joe Webb'
p46
sS'Rate'
p47
S'0.0'
p48
sS'Result'
p49
S'W44-16'
p50
sS'Year'
p51
S'2015'
p52
ssS'10'
p53
(dp54
g5
S'--'
p55
sg7
S'10'
p56
sg9
S'--'
p57
sg11
S'--'
p58
sg13
S'--'
p59
sg15
S'--'
p60
sg17
S'--'
p61
sg19
S'--'
p62
sg21
S'@TEN'
p63
sg23
g24
sg25
S'--'
p64
sg27
S'--'
p65
sg29
S'--'
p66
sg31
g32
sg33
S'--'
p67
sg35
S'--'
p68
sg37
S'--'
p69
sg39
S'--'
p70
sg41
S'--'
p71
sg43
S'11/15'
p72
sg45
S'Joe Webb'
p73
sg47
S'0.0'
p74
sg49
S'W27-10'
p75
sg51
S'2015'
p76
ssS'13'
p77
(dp78
g5
S'--'
p79
sg7
S'13'
p80
sg9
S'--'
p81
sg11
S'--'
p82
sg13
S'--'
p83
sg15
S'--'
p84
sg17
S'--'
p85
sg19
S'--'
p86
sg21
S'@NO'
p87
sg23
g24
sg25
S'--'
p88
sg27
S'--'
p89
sg29
S'--'
p90
sg31
g32
sg33
S'--'
p91
sg35
S'--'
p92
sg37
S'--'
p93
sg39
S'--'
p94
sg41
S'--'
p95
sg43
S'12/06'
p96
sg45
S'Joe Webb'
p97
sg47
S'0.0'
p98
sg49
S'W41-38'
p99
sg51
S'2015'
p100
ssS'12'
p101
(dp102
g5
S'--'
p103
sg7
S'12'
p104
sg9
S'--'
p105
sg11
S'--'
p106
sg13
S'--'
p107
sg15
S'--'
p108
sg17
S'--'
p109
sg19
S'--'
p110
sg21
S'@DAL'
p111
sg23
g24
sg25
S'--'
p112
sg27
S'--'
p113
sg29
S'--'
p114
sg31
g32
sg33
S'--'
p115
sg35
S'--'
p116
sg37
S'--'
p117
sg39
S'--'
p118
sg41
S'--'
p119
sg43
S'11/26'
p120
sg45
S'Joe Webb'
p121
sg47
S'0.0'
p122
sg49
S'W33-14'
p123
sg51
S'2015'
p124
ssS'15'
p125
(dp126
g5
S'--'
p127
sg7
S'15'
p128
sg9
S'--'
p129
sg11
S'--'
p130
sg13
S'--'
p131
sg15
S'--'
p132
sg17
S'--'
p133
sg19
S'--'
p134
sg21
S'@NYG'
p135
sg23
g24
sg25
S'--'
p136
sg27
S'--'
p137
sg29
S'--'
p138
sg31
g32
sg33
S'--'
p139
sg35
S'--'
p140
sg37
S'--'
p141
sg39
S'--'
p142
sg41
S'--'
p143
sg43
S'12/20'
p144
sg45
S'Joe Webb'
p145
sg47
S'0.0'
p146
sg49
S'W38-35'
p147
sg51
S'2015'
p148
ssS'14'
p149
(dp150
g5
S'--'
p151
sg7
S'14'
p152
sg9
S'--'
p153
sg11
S'--'
p154
sg13
S'--'
p155
sg15
S'--'
p156
sg17
S'--'
p157
sg19
S'--'
p158
sg21
S'ATL'
p159
sg23
g24
sg25
S'--'
p160
sg27
S'--'
p161
sg29
S'--'
p162
sg31
g32
sg33
S'--'
p163
sg35
S'--'
p164
sg37
S'--'
p165
sg39
S'--'
p166
sg41
S'--'
p167
sg43
S'12/13'
p168
sg45
S'Joe Webb'
p169
sg47
S'0.0'
p170
sg49
S'W38-0'
p171
sg51
S'2015'
p172
ssS'17'
p173
(dp174
g5
S'--'
p175
sg7
S'17'
p176
sg9
S'--'
p177
sg11
S'--'
p178
sg13
S'--'
p179
sg15
S'--'
p180
sg17
S'--'
p181
sg19
S'--'
p182
sg21
S'TB'
p183
sg23
g24
sg25
S'--'
p184
sg27
S'--'
p185
sg29
S'--'
p186
sg31
g32
sg33
S'--'
p187
sg35
S'--'
p188
sg37
S'--'
p189
sg39
S'--'
p190
sg41
S'--'
p191
sg43
S'01/03'
p192
sg45
S'Joe Webb'
p193
sg47
S'0.0'
p194
sg49
S'W38-10'
p195
sg51
S'2015'
p196
ssS'16'
p197
(dp198
g5
S'--'
p199
sg7
S'16'
p200
sg9
S'--'
p201
sg11
S'--'
p202
sg13
S'--'
p203
sg15
S'--'
p204
sg17
S'--'
p205
sg19
S'--'
p206
sg21
S'@ATL'
p207
sg23
g24
sg25
S'--'
p208
sg27
S'--'
p209
sg29
S'--'
p210
sg31
g32
sg33
S'--'
p211
sg35
S'--'
p212
sg37
S'--'
p213
sg39
S'--'
p214
sg41
S'--'
p215
sg43
S'12/27'
p216
sg45
S'Joe Webb'
p217
sg47
S'0.0'
p218
sg49
S'L13-20'
p219
sg51
S'2015'
p220
ssg24
(dp221
g5
S'--'
p222
sg7
g24
sg9
S'--'
p223
sg11
S'--'
p224
sg13
S'--'
p225
sg15
S'--'
p226
sg17
S'--'
p227
sg19
S'--'
p228
sg21
S'@JAC'
p229
sg23
g24
sg25
S'--'
p230
sg27
S'--'
p231
sg29
S'--'
p232
sg31
g32
sg33
S'--'
p233
sg35
S'--'
p234
sg37
S'--'
p235
sg39
S'--'
p236
sg41
S'--'
p237
sg43
S'09/13'
p238
sg45
S'Joe Webb'
p239
sg47
S'0.0'
p240
sg49
S'W20-9'
p241
sg51
S'2015'
p242
ssS'3'
p243
(dp244
g5
S'--'
p245
sg7
g243
sg9
S'--'
p246
sg11
S'--'
p247
sg13
S'--'
p248
sg15
S'--'
p249
sg17
S'--'
p250
sg19
S'--'
p251
sg21
S'NO'
p252
sg23
g24
sg25
S'--'
p253
sg27
S'--'
p254
sg29
S'--'
p255
sg31
g32
sg33
S'--'
p256
sg35
S'--'
p257
sg37
S'--'
p258
sg39
S'--'
p259
sg41
S'--'
p260
sg43
S'09/27'
p261
sg45
S'Joe Webb'
p262
sg47
S'0.0'
p263
sg49
S'W27-22'
p264
sg51
S'2015'
p265
ssS'2'
p266
(dp267
g5
S'--'
p268
sg7
g266
sg9
S'--'
p269
sg11
S'--'
p270
sg13
S'--'
p271
sg15
S'--'
p272
sg17
S'--'
p273
sg19
S'--'
p274
sg21
S'HOU'
p275
sg23
g24
sg25
S'--'
p276
sg27
S'--'
p277
sg29
S'--'
p278
sg31
g32
sg33
S'--'
p279
sg35
S'--'
p280
sg37
S'--'
p281
sg39
S'--'
p282
sg41
S'--'
p283
sg43
S'09/20'
p284
sg45
S'Joe Webb'
p285
sg47
S'0.0'
p286
sg49
S'W24-17'
p287
sg51
S'2015'
p288
ssS'5'
p289
(dp290
g5
S''
p291
sg7
g289
sg9
g291
sg11
g291
sg13
g291
sg15
g291
sg17
g291
sg19
g291
sg21
g291
sg23
g291
sg25
g291
sg27
g291
sg29
g291
sg31
g291
sg33
g291
sg35
g291
sg37
g291
sg39
g291
sg41
g291
sg43
S'Bye'
p292
sg45
S'Joe Webb'
p293
sg47
g291
sg49
g291
sg51
S'2015'
p294
ssS'4'
p295
(dp296
g5
S'--'
p297
sg7
g295
sg9
S'--'
p298
sg11
S'--'
p299
sg13
S'--'
p300
sg15
S'--'
p301
sg17
S'--'
p302
sg19
S'--'
p303
sg21
S'@TB'
p304
sg23
g24
sg25
S'--'
p305
sg27
S'--'
p306
sg29
S'--'
p307
sg31
g32
sg33
S'--'
p308
sg35
S'--'
p309
sg37
S'--'
p310
sg39
S'--'
p311
sg41
S'--'
p312
sg43
S'10/04'
p313
sg45
S'Joe Webb'
p314
sg47
S'0.0'
p315
sg49
S'W37-23'
p316
sg51
S'2015'
p317
ssS'7'
p318
(dp319
g5
S'--'
p320
sg7
g318
sg9
S'--'
p321
sg11
S'--'
p322
sg13
S'--'
p323
sg15
S'--'
p324
sg17
S'--'
p325
sg19
S'--'
p326
sg21
S'PHI'
p327
sg23
g24
sg25
S'--'
p328
sg27
S'--'
p329
sg29
S'--'
p330
sg31
g32
sg33
S'--'
p331
sg35
S'--'
p332
sg37
S'--'
p333
sg39
S'--'
p334
sg41
S'--'
p335
sg43
S'10/25'
p336
sg45
S'Joe Webb'
p337
sg47
S'0.0'
p338
sg49
S'W27-16'
p339
sg51
S'2015'
p340
ssS'6'
p341
(dp342
g5
S'--'
p343
sg7
g341
sg9
S'--'
p344
sg11
S'--'
p345
sg13
S'--'
p346
sg15
S'--'
p347
sg17
S'--'
p348
sg19
S'--'
p349
sg21
S'@SEA'
p350
sg23
g24
sg25
S'--'
p351
sg27
S'--'
p352
sg29
S'--'
p353
sg31
g32
sg33
S'--'
p354
sg35
S'--'
p355
sg37
S'--'
p356
sg39
S'--'
p357
sg41
S'--'
p358
sg43
S'10/18'
p359
sg45
S'Joe Webb'
p360
sg47
S'0.0'
p361
sg49
S'W27-23'
p362
sg51
S'2015'
p363
ssS'9'
p364
(dp365
g5
S'--'
p366
sg7
g364
sg9
S'-1.0'
p367
sg11
S'--'
p368
sg13
g24
sg15
S'--'
p369
sg17
S'--'
p370
sg19
S'--'
p371
sg21
S'GB'
p372
sg23
g24
sg25
S'--'
p373
sg27
S'--'
p374
sg29
S'-1'
p375
sg31
g32
sg33
S'--'
p376
sg35
g32
sg37
S'--'
p377
sg39
S'--'
p378
sg41
S'--'
p379
sg43
S'11/08'
p380
sg45
S'Joe Webb'
p381
sg47
S'0.0'
p382
sg49
S'W37-29'
p383
sg51
S'2015'
p384
ssS'8'
p385
(dp386
g5
S'--'
p387
sg7
g385
sg9
S'--'
p388
sg11
S'--'
p389
sg13
S'--'
p390
sg15
S'--'
p391
sg17
S'--'
p392
sg19
S'--'
p393
sg21
S'IND'
p394
sg23
g24
sg25
S'--'
p395
sg27
S'--'
p396
sg29
S'--'
p397
sg31
g32
sg33
S'--'
p398
sg35
S'--'
p399
sg37
S'--'
p400
sg39
S'--'
p401
sg41
S'--'
p402
sg43
S'11/02'
p403
sg45
S'Joe Webb'
p404
sg47
S'0.0'
p405
sg49
S'W29-26'
p406
sg51
S'2015'
p407
sssS'2014'
p408
(dp409
g3
(dp410
g5
S'--'
p411
sg7
S'11'
p412
sg9
S'--'
p413
sg11
S'--'
p414
sg13
S'--'
p415
sg15
S'--'
p416
sg17
S'--'
p417
sg19
S'--'
p418
sg21
S'ATL'
p419
sg23
g24
sg25
S'--'
p420
sg27
S'--'
p421
sg29
S'--'
p422
sg31
g32
sg33
S'--'
p423
sg35
S'--'
p424
sg37
S'--'
p425
sg39
S'--'
p426
sg41
S'--'
p427
sg43
S'11/16'
p428
sg45
S'Joe Webb'
p429
sg47
S'0.0'
p430
sg49
S'L17-19'
p431
sg51
S'2014'
p432
ssg53
(dp433
g5
S'--'
p434
sg7
S'10'
p435
sg9
S'--'
p436
sg11
S'--'
p437
sg13
S'--'
p438
sg15
S'--'
p439
sg17
S'--'
p440
sg19
S'--'
p441
sg21
S'@PHI'
p442
sg23
g24
sg25
S'--'
p443
sg27
S'--'
p444
sg29
S'--'
p445
sg31
g32
sg33
S'--'
p446
sg35
S'--'
p447
sg37
S'--'
p448
sg39
S'--'
p449
sg41
S'--'
p450
sg43
S'11/10'
p451
sg45
S'Joe Webb'
p452
sg47
S'0.0'
p453
sg49
S'L21-45'
p454
sg51
S'2014'
p455
ssg77
(dp456
g5
S'--'
p457
sg7
S'13'
p458
sg9
S'--'
p459
sg11
S'--'
p460
sg13
S'--'
p461
sg15
S'--'
p462
sg17
S'--'
p463
sg19
S'--'
p464
sg21
S'@MIN'
p465
sg23
g32
sg25
S'--'
p466
sg27
S'--'
p467
sg29
S'--'
p468
sg31
g32
sg33
S'--'
p469
sg35
S'--'
p470
sg37
S'--'
p471
sg39
S'--'
p472
sg41
S'--'
p473
sg43
S'11/30'
p474
sg45
S'Joe Webb'
p475
sg47
S'0.0'
p476
sg49
S'L13-31'
p477
sg51
S'2014'
p478
ssg101
(dp479
g5
g291
sg7
S'12'
p480
sg9
g291
sg11
g291
sg13
g291
sg15
g291
sg17
g291
sg19
g291
sg21
g291
sg23
g291
sg25
g291
sg27
g291
sg29
g291
sg31
g291
sg33
g291
sg35
g291
sg37
g291
sg39
g291
sg41
g291
sg43
S'Bye'
p481
sg45
S'Joe Webb'
p482
sg47
g291
sg49
g291
sg51
S'2014'
p483
ssg125
(dp484
g5
S'--'
p485
sg7
S'15'
p486
sg9
S'--'
p487
sg11
S'--'
p488
sg13
S'--'
p489
sg15
S'--'
p490
sg17
S'--'
p491
sg19
S'--'
p492
sg21
S'TB'
p493
sg23
g32
sg25
S'--'
p494
sg27
S'--'
p495
sg29
S'--'
p496
sg31
g32
sg33
S'--'
p497
sg35
S'--'
p498
sg37
S'--'
p499
sg39
S'--'
p500
sg41
S'--'
p501
sg43
S'12/14'
p502
sg45
S'Joe Webb'
p503
sg47
S'0.0'
p504
sg49
S'W19-17'
p505
sg51
S'2014'
p506
ssg149
(dp507
g5
S'--'
p508
sg7
S'14'
p509
sg9
S'--'
p510
sg11
S'--'
p511
sg13
S'--'
p512
sg15
S'--'
p513
sg17
S'--'
p514
sg19
S'--'
p515
sg21
S'@NO'
p516
sg23
g24
sg25
S'--'
p517
sg27
S'--'
p518
sg29
S'--'
p519
sg31
g32
sg33
S'--'
p520
sg35
S'--'
p521
sg37
S'--'
p522
sg39
S'--'
p523
sg41
S'--'
p524
sg43
S'12/07'
p525
sg45
S'Joe Webb'
p526
sg47
S'0.0'
p527
sg49
S'W41-10'
p528
sg51
S'2014'
p529
ssg173
(dp530
g5
S'--'
p531
sg7
S'17'
p532
sg9
S'--'
p533
sg11
S'--'
p534
sg13
S'--'
p535
sg15
S'--'
p536
sg17
S'--'
p537
sg19
S'--'
p538
sg21
S'@ATL'
p539
sg23
g24
sg25
S'--'
p540
sg27
S'--'
p541
sg29
S'--'
p542
sg31
g32
sg33
S'--'
p543
sg35
S'--'
p544
sg37
S'--'
p545
sg39
S'--'
p546
sg41
S'--'
p547
sg43
S'12/28'
p548
sg45
S'Joe Webb'
p549
sg47
S'0.0'
p550
sg49
S'W34-3'
p551
sg51
S'2014'
p552
ssg197
(dp553
g5
S'--'
p554
sg7
S'16'
p555
sg9
S'--'
p556
sg11
S'--'
p557
sg13
S'--'
p558
sg15
S'--'
p559
sg17
S'--'
p560
sg19
S'--'
p561
sg21
S'CLE'
p562
sg23
g24
sg25
S'--'
p563
sg27
S'--'
p564
sg29
S'--'
p565
sg31
g32
sg33
S'--'
p566
sg35
S'--'
p567
sg37
S'--'
p568
sg39
S'--'
p569
sg41
S'--'
p570
sg43
S'12/21'
p571
sg45
S'Joe Webb'
p572
sg47
S'0.0'
p573
sg49
S'W17-13'
p574
sg51
S'2014'
p575
ssg24
(dp576
g5
S'--'
p577
sg7
g24
sg9
S'--'
p578
sg11
S'--'
p579
sg13
S'--'
p580
sg15
S'--'
p581
sg17
S'--'
p582
sg19
S'--'
p583
sg21
S'@TB'
p584
sg23
g32
sg25
S'--'
p585
sg27
S'--'
p586
sg29
S'--'
p587
sg31
g32
sg33
S'--'
p588
sg35
S'--'
p589
sg37
S'--'
p590
sg39
S'--'
p591
sg41
S'--'
p592
sg43
S'09/07'
p593
sg45
S'Joe Webb'
p594
sg47
S'0.0'
p595
sg49
S'W20-14'
p596
sg51
S'2014'
p597
ssg243
(dp598
g5
S'--'
p599
sg7
g243
sg9
S'--'
p600
sg11
S'--'
p601
sg13
S'--'
p602
sg15
S'--'
p603
sg17
S'--'
p604
sg19
S'--'
p605
sg21
S'PIT'
p606
sg23
g32
sg25
S'--'
p607
sg27
S'--'
p608
sg29
S'--'
p609
sg31
g32
sg33
S'--'
p610
sg35
S'--'
p611
sg37
S'--'
p612
sg39
S'--'
p613
sg41
S'--'
p614
sg43
S'09/21'
p615
sg45
S'Joe Webb'
p616
sg47
S'0.0'
p617
sg49
S'L19-37'
p618
sg51
S'2014'
p619
ssg266
(dp620
g5
S'--'
p621
sg7
g266
sg9
S'--'
p622
sg11
S'--'
p623
sg13
S'--'
p624
sg15
S'--'
p625
sg17
S'--'
p626
sg19
S'--'
p627
sg21
S'DET'
p628
sg23
g32
sg25
S'--'
p629
sg27
S'--'
p630
sg29
S'--'
p631
sg31
g32
sg33
S'--'
p632
sg35
S'--'
p633
sg37
S'--'
p634
sg39
S'--'
p635
sg41
S'--'
p636
sg43
S'09/14'
p637
sg45
S'Joe Webb'
p638
sg47
S'0.0'
p639
sg49
S'W24-7'
p640
sg51
S'2014'
p641
ssg289
(dp642
g5
S'--'
p643
sg7
g289
sg9
S'--'
p644
sg11
S'--'
p645
sg13
S'--'
p646
sg15
S'--'
p647
sg17
S'--'
p648
sg19
S'--'
p649
sg21
S'CHI'
p650
sg23
g32
sg25
S'--'
p651
sg27
S'--'
p652
sg29
S'--'
p653
sg31
g32
sg33
S'--'
p654
sg35
S'--'
p655
sg37
S'--'
p656
sg39
S'--'
p657
sg41
S'--'
p658
sg43
S'10/05'
p659
sg45
S'Joe Webb'
p660
sg47
S'0.0'
p661
sg49
S'W31-24'
p662
sg51
S'2014'
p663
ssg295
(dp664
g5
S'--'
p665
sg7
g295
sg9
S'--'
p666
sg11
S'--'
p667
sg13
S'--'
p668
sg15
S'--'
p669
sg17
S'--'
p670
sg19
S'--'
p671
sg21
S'@BAL'
p672
sg23
g32
sg25
S'--'
p673
sg27
S'--'
p674
sg29
S'--'
p675
sg31
g32
sg33
S'--'
p676
sg35
S'--'
p677
sg37
S'--'
p678
sg39
S'--'
p679
sg41
S'--'
p680
sg43
S'09/28'
p681
sg45
S'Joe Webb'
p682
sg47
S'0.0'
p683
sg49
S'L10-38'
p684
sg51
S'2014'
p685
ssg318
(dp686
g5
S'--'
p687
sg7
g318
sg9
S'--'
p688
sg11
S'--'
p689
sg13
S'--'
p690
sg15
S'--'
p691
sg17
S'--'
p692
sg19
S'--'
p693
sg21
S'@GB'
p694
sg23
g32
sg25
S'--'
p695
sg27
S'--'
p696
sg29
S'--'
p697
sg31
g32
sg33
S'--'
p698
sg35
S'--'
p699
sg37
S'--'
p700
sg39
S'--'
p701
sg41
S'--'
p702
sg43
S'10/19'
p703
sg45
S'Joe Webb'
p704
sg47
S'0.0'
p705
sg49
S'L17-38'
p706
sg51
S'2014'
p707
ssg341
(dp708
g5
S'--'
p709
sg7
g341
sg9
S'--'
p710
sg11
S'--'
p711
sg13
S'--'
p712
sg15
S'--'
p713
sg17
S'--'
p714
sg19
S'--'
p715
sg21
S'@CIN'
p716
sg23
g32
sg25
S'--'
p717
sg27
S'--'
p718
sg29
S'--'
p719
sg31
g32
sg33
S'--'
p720
sg35
S'--'
p721
sg37
S'--'
p722
sg39
S'--'
p723
sg41
S'--'
p724
sg43
S'10/12'
p725
sg45
S'Joe Webb'
p726
sg47
S'0.0'
p727
sg49
S'T37-37'
p728
sg51
S'2014'
p729
ssg364
(dp730
g5
S'--'
p731
sg7
g364
sg9
S'--'
p732
sg11
S'--'
p733
sg13
S'--'
p734
sg15
S'--'
p735
sg17
S'--'
p736
sg19
S'--'
p737
sg21
S'NO'
p738
sg23
g24
sg25
S'--'
p739
sg27
S'--'
p740
sg29
S'--'
p741
sg31
g32
sg33
S'--'
p742
sg35
S'--'
p743
sg37
S'--'
p744
sg39
S'--'
p745
sg41
S'--'
p746
sg43
S'10/30'
p747
sg45
S'Joe Webb'
p748
sg47
S'0.0'
p749
sg49
S'L10-28'
p750
sg51
S'2014'
p751
ssg385
(dp752
g5
S'--'
p753
sg7
g385
sg9
S'--'
p754
sg11
S'--'
p755
sg13
S'--'
p756
sg15
S'--'
p757
sg17
S'--'
p758
sg19
S'--'
p759
sg21
S'SEA'
p760
sg23
g24
sg25
S'--'
p761
sg27
S'--'
p762
sg29
S'--'
p763
sg31
g32
sg33
S'--'
p764
sg35
S'--'
p765
sg37
S'--'
p766
sg39
S'--'
p767
sg41
S'--'
p768
sg43
S'10/26'
p769
sg45
S'Joe Webb'
p770
sg47
S'0.0'
p771
sg49
S'L9-13'
p772
sg51
S'2014'
p773
sssS'2011'
p774
(dp775
g3
(dp776
g5
S'--'
p777
sg7
S'11'
p778
sg9
S'--'
p779
sg11
S'--'
p780
sg13
S'--'
p781
sg15
S'--'
p782
sg17
S'--'
p783
sg19
S'--'
p784
sg21
S'OAK'
p785
sg23
g32
sg25
S'--'
p786
sg27
S'--'
p787
sg29
S'--'
p788
sg31
g32
sg33
S'--'
p789
sg35
S'--'
p790
sg37
S'--'
p791
sg39
S'--'
p792
sg41
S'--'
p793
sg43
S'11/20'
p794
sg45
S'Joe Webb'
p795
sg47
S'0.0'
p796
sg49
S'L21-27'
p797
sg51
S'2011'
p798
ssg53
(dp799
g5
S'--'
p800
sg7
S'10'
p801
sg9
S'6.0'
p802
sg11
S'--'
p803
sg13
g24
sg15
S'--'
p804
sg17
S'--'
p805
sg19
S'--'
p806
sg21
S'@GB'
p807
sg23
g24
sg25
S'--'
p808
sg27
S'--'
p809
sg29
g341
sg31
g32
sg33
S'--'
p810
sg35
g32
sg37
S'--'
p811
sg39
S'--'
p812
sg41
S'--'
p813
sg43
S'11/14'
p814
sg45
S'Joe Webb'
p815
sg47
S'0.0'
p816
sg49
S'L7-45'
p817
sg51
S'2011'
p818
ssg77
(dp819
g5
g24
sg7
S'13'
p820
sg9
S'4.0'
p821
sg11
S'100.0'
p822
sg13
g24
sg15
g385
sg17
S'8.0'
p823
sg19
S'--'
p824
sg21
S'DEN'
p825
sg23
g24
sg25
g24
sg27
g32
sg29
g295
sg31
g24
sg33
S'--'
p826
sg35
g32
sg37
g32
sg39
g32
sg41
g32
sg43
S'12/04'
p827
sg45
S'Joe Webb'
p828
sg47
S'100.0'
p829
sg49
S'L32-35'
p830
sg51
S'2011'
p831
ssg101
(dp832
g5
S'--'
p833
sg7
S'12'
p834
sg9
S'--'
p835
sg11
S'--'
p836
sg13
S'--'
p837
sg15
S'--'
p838
sg17
S'--'
p839
sg19
S'--'
p840
sg21
S'@ATL'
p841
sg23
g32
sg25
S'--'
p842
sg27
S'--'
p843
sg29
S'--'
p844
sg31
g32
sg33
S'--'
p845
sg35
S'--'
p846
sg37
S'--'
p847
sg39
S'--'
p848
sg41
S'--'
p849
sg43
S'11/27'
p850
sg45
S'Joe Webb'
p851
sg47
S'0.0'
p852
sg49
S'L14-24'
p853
sg51
S'2011'
p854
ssg125
(dp855
g5
g24
sg7
S'15'
p856
sg9
S'0.0'
p857
sg11
S'0.0'
p858
sg13
g266
sg15
g32
sg17
S'0.0'
p859
sg19
S'--'
p860
sg21
S'NO'
p861
sg23
g24
sg25
g32
sg27
g32
sg29
g32
sg31
g32
sg33
S'--'
p862
sg35
g32
sg37
g32
sg39
g32
sg41
g32
sg43
S'12/18'
p863
sg45
S'Joe Webb'
p864
sg47
S'39.6'
p865
sg49
S'L20-42'
p866
sg51
S'2011'
p867
ssg149
(dp868
g5
S'23'
p869
sg7
S'14'
p870
sg9
S'15.6'
p871
sg11
S'52.2'
p872
sg13
g318
sg15
S'84'
p873
sg17
S'3.7'
p874
sg19
g24
sg21
S'@DET'
p875
sg23
g24
sg25
S'12'
p876
sg27
S'15'
p877
sg29
S'109'
p878
sg31
g32
sg33
g24
sg35
g24
sg37
g24
sg39
g24
sg41
g32
sg43
S'12/11'
p879
sg45
S'Joe Webb'
p880
sg47
S'75.3'
p881
sg49
S'L28-34'
p882
sg51
S'2011'
p883
ssg173
(dp884
g5
S'32'
p885
sg7
S'17'
p886
sg9
S'0.5'
p887
sg11
S'53.1'
p888
sg13
g295
sg15
S'200'
p889
sg17
S'6.3'
p890
sg19
S'--'
p891
sg21
S'CHI'
p892
sg23
g24
sg25
S'17'
p893
sg27
g243
sg29
g266
sg31
g32
sg33
S'--'
p894
sg35
g32
sg37
g32
sg39
g24
sg41
g266
sg43
S'01/01'
p895
sg45
S'Joe Webb'
p896
sg47
S'46.4'
p897
sg49
S'L13-17'
p898
sg51
S'2011'
p899
ssg197
(dp900
g5
g289
sg7
S'16'
p901
sg9
S'6.8'
p902
sg11
S'80.0'
p903
sg13
g289
sg15
S'84'
p904
sg17
S'16.8'
p905
sg19
S'--'
p906
sg21
S'@WAS'
p907
sg23
g24
sg25
g295
sg27
g243
sg29
S'34'
p908
sg31
g32
sg33
S'--'
p909
sg35
g24
sg37
g266
sg39
g24
sg41
g32
sg43
S'12/24'
p910
sg45
S'Joe Webb'
p911
sg47
S'158.3'
p912
sg49
S'W33-26'
p913
sg51
S'2011'
p914
ssg24
(dp915
g5
S'--'
p916
sg7
g24
sg9
S'-2.0'
p917
sg11
S'--'
p918
sg13
g24
sg15
S'--'
p919
sg17
S'--'
p920
sg19
S'--'
p921
sg21
S'@SD'
p922
sg23
g24
sg25
S'--'
p923
sg27
S'--'
p924
sg29
S'-2'
p925
sg31
g32
sg33
S'--'
p926
sg35
g32
sg37
S'--'
p927
sg39
S'--'
p928
sg41
S'--'
p929
sg43
S'09/11'
p930
sg45
S'Joe Webb'
p931
sg47
S'0.0'
p932
sg49
S'L17-24'
p933
sg51
S'2011'
p934
ssg243
(dp935
g5
S'--'
p936
sg7
g243
sg9
S'--'
p937
sg11
S'--'
p938
sg13
S'--'
p939
sg15
S'--'
p940
sg17
S'--'
p941
sg19
S'--'
p942
sg21
S'DET'
p943
sg23
g24
sg25
S'--'
p944
sg27
S'--'
p945
sg29
S'--'
p946
sg31
g32
sg33
S'--'
p947
sg35
S'--'
p948
sg37
S'--'
p949
sg39
S'--'
p950
sg41
S'--'
p951
sg43
S'09/25'
p952
sg45
S'Joe Webb'
p953
sg47
S'0.0'
p954
sg49
S'L23-26'
p955
sg51
S'2011'
p956
ssg266
(dp957
g5
S'--'
p958
sg7
g266
sg9
S'--'
p959
sg11
S'--'
p960
sg13
S'--'
p961
sg15
S'--'
p962
sg17
S'--'
p963
sg19
S'--'
p964
sg21
S'TB'
p965
sg23
g32
sg25
S'--'
p966
sg27
S'--'
p967
sg29
S'--'
p968
sg31
g32
sg33
S'--'
p969
sg35
S'--'
p970
sg37
S'--'
p971
sg39
S'--'
p972
sg41
S'--'
p973
sg43
S'09/18'
p974
sg45
S'Joe Webb'
p975
sg47
S'0.0'
p976
sg49
S'L20-24'
p977
sg51
S'2011'
p978
ssg289
(dp979
g5
S'--'
p980
sg7
g289
sg9
S'--'
p981
sg11
S'--'
p982
sg13
S'--'
p983
sg15
S'--'
p984
sg17
S'--'
p985
sg19
S'--'
p986
sg21
S'ARI'
p987
sg23
g32
sg25
S'--'
p988
sg27
S'--'
p989
sg29
S'--'
p990
sg31
g32
sg33
S'--'
p991
sg35
S'--'
p992
sg37
S'--'
p993
sg39
S'--'
p994
sg41
S'--'
p995
sg43
S'10/09'
p996
sg45
S'Joe Webb'
p997
sg47
S'0.0'
p998
sg49
S'W34-10'
p999
sg51
S'2011'
p1000
ssg295
(dp1001
g5
S'--'
p1002
sg7
g295
sg9
S'--'
p1003
sg11
S'--'
p1004
sg13
S'--'
p1005
sg15
S'--'
p1006
sg17
S'--'
p1007
sg19
S'--'
p1008
sg21
S'@KC'
p1009
sg23
g24
sg25
S'--'
p1010
sg27
S'--'
p1011
sg29
S'--'
p1012
sg31
g32
sg33
S'--'
p1013
sg35
S'--'
p1014
sg37
S'--'
p1015
sg39
S'--'
p1016
sg41
S'--'
p1017
sg43
S'10/02'
p1018
sg45
S'Joe Webb'
p1019
sg47
S'0.0'
p1020
sg49
S'L17-22'
p1021
sg51
S'2011'
p1022
ssg318
(dp1023
g5
S'--'
p1024
sg7
g318
sg9
S'--'
p1025
sg11
S'--'
p1026
sg13
S'--'
p1027
sg15
S'--'
p1028
sg17
S'--'
p1029
sg19
S'--'
p1030
sg21
S'GB'
p1031
sg23
g32
sg25
S'--'
p1032
sg27
S'--'
p1033
sg29
S'--'
p1034
sg31
g32
sg33
S'--'
p1035
sg35
S'--'
p1036
sg37
S'--'
p1037
sg39
S'--'
p1038
sg41
S'--'
p1039
sg43
S'10/23'
p1040
sg45
S'Joe Webb'
p1041
sg47
S'0.0'
p1042
sg49
S'L27-33'
p1043
sg51
S'2011'
p1044
ssg341
(dp1045
g5
g24
sg7
g341
sg9
S'1.0'
p1046
sg11
S'0.0'
p1047
sg13
g24
sg15
g32
sg17
S'0.0'
p1048
sg19
S'--'
p1049
sg21
S'@CHI'
p1050
sg23
g24
sg25
g32
sg27
g32
sg29
g24
sg31
g32
sg33
S'--'
p1051
sg35
g32
sg37
g32
sg39
g32
sg41
g32
sg43
S'10/16'
p1052
sg45
S'Joe Webb'
p1053
sg47
S'39.6'
p1054
sg49
S'L10-39'
p1055
sg51
S'2011'
p1056
ssg364
(dp1057
g5
g291
sg7
g364
sg9
g291
sg11
g291
sg13
g291
sg15
g291
sg17
g291
sg19
g291
sg21
g291
sg23
g291
sg25
g291
sg27
g291
sg29
g291
sg31
g291
sg33
g291
sg35
g291
sg37
g291
sg39
g291
sg41
g291
sg43
S'Bye'
p1058
sg45
S'Joe Webb'
p1059
sg47
g291
sg49
g291
sg51
S'2011'
p1060
ssg385
(dp1061
g5
S'--'
p1062
sg7
g385
sg9
S'--'
p1063
sg11
S'--'
p1064
sg13
S'--'
p1065
sg15
S'--'
p1066
sg17
S'--'
p1067
sg19
S'--'
p1068
sg21
S'@CAR'
p1069
sg23
g24
sg25
S'--'
p1070
sg27
S'--'
p1071
sg29
S'--'
p1072
sg31
g32
sg33
S'--'
p1073
sg35
S'--'
p1074
sg37
S'--'
p1075
sg39
S'--'
p1076
sg41
S'--'
p1077
sg43
S'10/30'
p1078
sg45
S'Joe Webb'
p1079
sg47
S'0.0'
p1080
sg49
S'W24-21'
p1081
sg51
S'2011'
p1082
sssS'2010'
p1083
(dp1084
g3
(dp1085
g5
S'--'
p1086
sg7
S'11'
p1087
sg9
S'--'
p1088
sg11
S'--'
p1089
sg13
S'--'
p1090
sg15
S'--'
p1091
sg17
S'--'
p1092
sg19
S'--'
p1093
sg21
S'GB'
p1094
sg23
g32
sg25
S'--'
p1095
sg27
S'--'
p1096
sg29
S'--'
p1097
sg31
g32
sg33
S'--'
p1098
sg35
S'--'
p1099
sg37
S'--'
p1100
sg39
S'--'
p1101
sg41
S'--'
p1102
sg43
S'11/21'
p1103
sg45
S'Joe Webb'
p1104
sg47
S'0.0'
p1105
sg49
S'L3-31'
p1106
sg51
S'2010'
p1107
ssg53
(dp1108
g5
S'--'
p1109
sg7
S'10'
p1110
sg9
S'--'
p1111
sg11
S'--'
p1112
sg13
S'--'
p1113
sg15
S'--'
p1114
sg17
S'--'
p1115
sg19
S'--'
p1116
sg21
S'@CHI'
p1117
sg23
g32
sg25
S'--'
p1118
sg27
S'--'
p1119
sg29
S'--'
p1120
sg31
g32
sg33
S'--'
p1121
sg35
S'--'
p1122
sg37
S'--'
p1123
sg39
S'--'
p1124
sg41
S'--'
p1125
sg43
S'11/14'
p1126
sg45
S'Joe Webb'
p1127
sg47
S'0.0'
p1128
sg49
S'L13-27'
p1129
sg51
S'2010'
p1130
ssg77
(dp1131
g5
S'--'
p1132
sg7
S'13'
p1133
sg9
S'--'
p1134
sg11
S'--'
p1135
sg13
S'--'
p1136
sg15
S'--'
p1137
sg17
S'--'
p1138
sg19
S'--'
p1139
sg21
S'BUF'
p1140
sg23
g24
sg25
S'--'
p1141
sg27
S'--'
p1142
sg29
S'--'
p1143
sg31
g32
sg33
S'--'
p1144
sg35
S'--'
p1145
sg37
S'--'
p1146
sg39
S'--'
p1147
sg41
S'--'
p1148
sg43
S'12/05'
p1149
sg45
S'Joe Webb'
p1150
sg47
S'0.0'
p1151
sg49
S'W38-14'
p1152
sg51
S'2010'
p1153
ssg101
(dp1154
g5
S'--'
p1155
sg7
S'12'
p1156
sg9
S'--'
p1157
sg11
S'--'
p1158
sg13
S'--'
p1159
sg15
S'--'
p1160
sg17
S'--'
p1161
sg19
S'--'
p1162
sg21
S'@WAS'
p1163
sg23
g32
sg25
S'--'
p1164
sg27
S'--'
p1165
sg29
S'--'
p1166
sg31
g32
sg33
S'--'
p1167
sg35
S'--'
p1168
sg37
S'--'
p1169
sg39
S'--'
p1170
sg41
S'--'
p1171
sg43
S'11/28'
p1172
sg45
S'Joe Webb'
p1173
sg47
S'0.0'
p1174
sg49
S'W17-13'
p1175
sg51
S'2010'
p1176
ssg125
(dp1177
g5
S'26'
p1178
sg7
S'15'
p1179
sg9
S'6.3'
p1180
sg11
S'57.7'
p1181
sg13
g341
sg15
S'129'
p1182
sg17
S'5.0'
p1183
sg19
g24
sg21
S'CHI'
p1184
sg23
g24
sg25
S'15'
p1185
sg27
S'21'
p1186
sg29
S'38'
p1187
sg31
g32
sg33
g32
sg35
g24
sg37
g32
sg39
g243
sg41
g266
sg43
S'12/20'
p1188
sg45
S'Joe Webb'
p1189
sg47
S'38.8'
p1190
sg49
S'L14-40'
p1191
sg51
S'2010'
p1192
ssg149
(dp1193
g5
g289
sg7
S'14'
p1194
sg9
S'16.0'
p1195
sg11
S'40.0'
p1196
sg13
g24
sg15
g385
sg17
S'1.6'
p1197
sg19
S'--'
p1198
sg21
S'NYG'
p1199
sg23
g24
sg25
g266
sg27
g32
sg29
S'16'
p1200
sg31
g32
sg33
S'--'
p1201
sg35
g32
sg37
g32
sg39
g32
sg41
g32
sg43
S'12/13'
p1202
sg45
S'Joe Webb'
p1203
sg47
S'47.9'
p1204
sg49
S'L3-21'
p1205
sg51
S'2010'
p1206
ssg173
(dp1207
g5
S'32'
p1208
sg7
S'17'
p1209
sg9
S'7.0'
p1210
sg11
S'62.5'
p1211
sg13
g289
sg15
S'145'
p1212
sg17
S'4.5'
p1213
sg19
S'--'
p1214
sg21
S'@DET'
p1215
sg23
g24
sg25
S'20'
p1216
sg27
g385
sg29
S'35'
p1217
sg31
g24
sg33
S'--'
p1218
sg35
g32
sg37
g32
sg39
g243
sg41
g24
sg43
S'01/02'
p1219
sg45
S'Joe Webb'
p1220
sg47
S'60.0'
p1221
sg49
S'L13-20'
p1222
sg51
S'2010'
p1223
ssg197
(dp1224
g5
S'26'
p1225
sg7
S'16'
p1226
sg9
S'5.2'
p1227
sg11
S'65.4'
p1228
sg13
g341
sg15
S'195'
p1229
sg17
S'7.5'
p1230
sg19
S'--'
p1231
sg21
S'@PHI'
p1232
sg23
g24
sg25
S'17'
p1233
sg27
S'19'
p1234
sg29
S'31'
p1235
sg31
g24
sg33
S'--'
p1236
sg35
g24
sg37
g32
sg39
g266
sg41
g32
sg43
S'12/28'
p1237
sg45
S'Joe Webb'
p1238
sg47
S'87.8'
p1239
sg49
S'W24-14'
p1240
sg51
S'2010'
p1241
ssg24
(dp1242
g5
S'--'
p1243
sg7
g24
sg9
S'--'
p1244
sg11
S'--'
p1245
sg13
S'--'
p1246
sg15
S'--'
p1247
sg17
S'--'
p1248
sg19
S'--'
p1249
sg21
S'@NO'
p1250
sg23
g32
sg25
S'--'
p1251
sg27
S'--'
p1252
sg29
S'--'
p1253
sg31
g32
sg33
S'--'
p1254
sg35
S'--'
p1255
sg37
S'--'
p1256
sg39
S'--'
p1257
sg41
S'--'
p1258
sg43
S'09/09'
p1259
sg45
S'Joe Webb'
p1260
sg47
S'0.0'
p1261
sg49
S'L9-14'
p1262
sg51
S'2010'
p1263
ssg243
(dp1264
g5
S'--'
p1265
sg7
g243
sg9
S'--'
p1266
sg11
S'--'
p1267
sg13
S'--'
p1268
sg15
S'--'
p1269
sg17
S'--'
p1270
sg19
S'--'
p1271
sg21
S'DET'
p1272
sg23
g32
sg25
S'--'
p1273
sg27
S'--'
p1274
sg29
S'--'
p1275
sg31
g32
sg33
S'--'
p1276
sg35
S'--'
p1277
sg37
S'--'
p1278
sg39
S'--'
p1279
sg41
S'--'
p1280
sg43
S'09/26'
p1281
sg45
S'Joe Webb'
p1282
sg47
S'0.0'
p1283
sg49
S'W24-10'
p1284
sg51
S'2010'
p1285
ssg266
(dp1286
g5
S'--'
p1287
sg7
g266
sg9
S'--'
p1288
sg11
S'--'
p1289
sg13
S'--'
p1290
sg15
S'--'
p1291
sg17
S'--'
p1292
sg19
S'--'
p1293
sg21
S'MIA'
p1294
sg23
g32
sg25
S'--'
p1295
sg27
S'--'
p1296
sg29
S'--'
p1297
sg31
g32
sg33
S'--'
p1298
sg35
S'--'
p1299
sg37
S'--'
p1300
sg39
S'--'
p1301
sg41
S'--'
p1302
sg43
S'09/19'
p1303
sg45
S'Joe Webb'
p1304
sg47
S'0.0'
p1305
sg49
S'L10-14'
p1306
sg51
S'2010'
p1307
ssg289
(dp1308
g5
S'--'
p1309
sg7
g289
sg9
S'--'
p1310
sg11
S'--'
p1311
sg13
S'--'
p1312
sg15
S'--'
p1313
sg17
S'--'
p1314
sg19
S'--'
p1315
sg21
S'@NYJ'
p1316
sg23
g32
sg25
S'--'
p1317
sg27
S'--'
p1318
sg29
S'--'
p1319
sg31
g32
sg33
S'--'
p1320
sg35
S'--'
p1321
sg37
S'--'
p1322
sg39
S'--'
p1323
sg41
S'--'
p1324
sg43
S'10/11'
p1325
sg45
S'Joe Webb'
p1326
sg47
S'0.0'
p1327
sg49
S'L20-29'
p1328
sg51
S'2010'
p1329
ssg295
(dp1330
g5
g291
sg7
g295
sg9
g291
sg11
g291
sg13
g291
sg15
g291
sg17
g291
sg19
g291
sg21
g291
sg23
g291
sg25
g291
sg27
g291
sg29
g291
sg31
g291
sg33
g291
sg35
g291
sg37
g291
sg39
g291
sg41
g291
sg43
S'Bye'
p1331
sg45
S'Joe Webb'
p1332
sg47
g291
sg49
g291
sg51
S'2010'
p1333
ssg318
(dp1334
g5
S'--'
p1335
sg7
g318
sg9
S'--'
p1336
sg11
S'--'
p1337
sg13
S'--'
p1338
sg15
S'--'
p1339
sg17
S'--'
p1340
sg19
S'--'
p1341
sg21
S'@GB'
p1342
sg23
g32
sg25
S'--'
p1343
sg27
S'--'
p1344
sg29
S'--'
p1345
sg31
g32
sg33
S'--'
p1346
sg35
S'--'
p1347
sg37
S'--'
p1348
sg39
S'--'
p1349
sg41
S'--'
p1350
sg43
S'10/24'
p1351
sg45
S'Joe Webb'
p1352
sg47
S'0.0'
p1353
sg49
S'L24-28'
p1354
sg51
S'2010'
p1355
ssg341
(dp1356
g5
S'--'
p1357
sg7
g341
sg9
S'--'
p1358
sg11
S'--'
p1359
sg13
S'--'
p1360
sg15
S'--'
p1361
sg17
S'--'
p1362
sg19
S'--'
p1363
sg21
S'DAL'
p1364
sg23
g32
sg25
S'--'
p1365
sg27
S'--'
p1366
sg29
S'--'
p1367
sg31
g32
sg33
S'--'
p1368
sg35
S'--'
p1369
sg37
S'--'
p1370
sg39
S'--'
p1371
sg41
S'--'
p1372
sg43
S'10/17'
p1373
sg45
S'Joe Webb'
p1374
sg47
S'0.0'
p1375
sg49
S'W24-21'
p1376
sg51
S'2010'
p1377
ssg364
(dp1378
g5
S'--'
p1379
sg7
g364
sg9
S'--'
p1380
sg11
S'--'
p1381
sg13
S'--'
p1382
sg15
S'--'
p1383
sg17
S'--'
p1384
sg19
S'--'
p1385
sg21
S'ARI'
p1386
sg23
g32
sg25
S'--'
p1387
sg27
S'--'
p1388
sg29
S'--'
p1389
sg31
g32
sg33
S'--'
p1390
sg35
S'--'
p1391
sg37
S'--'
p1392
sg39
S'--'
p1393
sg41
S'--'
p1394
sg43
S'11/07'
p1395
sg45
S'Joe Webb'
p1396
sg47
S'0.0'
p1397
sg49
S'W27-24'
p1398
sg51
S'2010'
p1399
ssg385
(dp1400
g5
S'--'
p1401
sg7
g385
sg9
S'--'
p1402
sg11
S'--'
p1403
sg13
S'--'
p1404
sg15
S'--'
p1405
sg17
S'--'
p1406
sg19
S'--'
p1407
sg21
S'@NE'
p1408
sg23
g32
sg25
S'--'
p1409
sg27
S'--'
p1410
sg29
S'--'
p1411
sg31
g32
sg33
S'--'
p1412
sg35
S'--'
p1413
sg37
S'--'
p1414
sg39
S'--'
p1415
sg41
S'--'
p1416
sg43
S'10/31'
p1417
sg45
S'Joe Webb'
p1418
sg47
S'0.0'
p1419
sg49
S'L18-28'
p1420
sg51
S'2010'
p1421
sssS'2013'
p1422
(dp1423
g3
(dp1424
g5
S'--'
p1425
sg7
S'11'
p1426
sg9
S'--'
p1427
sg11
S'--'
p1428
sg13
S'--'
p1429
sg15
S'--'
p1430
sg17
S'--'
p1431
sg19
S'--'
p1432
sg21
S'@SEA'
p1433
sg23
g24
sg25
S'--'
p1434
sg27
S'--'
p1435
sg29
S'--'
p1436
sg31
g32
sg33
S'--'
p1437
sg35
S'--'
p1438
sg37
S'--'
p1439
sg39
S'--'
p1440
sg41
S'--'
p1441
sg43
S'11/17'
p1442
sg45
S'Joe Webb'
p1443
sg47
S'0.0'
p1444
sg49
S'L20-41'
p1445
sg51
S'2013'
p1446
ssg53
(dp1447
g5
S'--'
p1448
sg7
S'10'
p1449
sg9
S'--'
p1450
sg11
S'--'
p1451
sg13
S'--'
p1452
sg15
S'--'
p1453
sg17
S'--'
p1454
sg19
S'--'
p1455
sg21
S'WAS'
p1456
sg23
g24
sg25
S'--'
p1457
sg27
S'--'
p1458
sg29
S'--'
p1459
sg31
g32
sg33
S'--'
p1460
sg35
S'--'
p1461
sg37
S'--'
p1462
sg39
S'--'
p1463
sg41
S'--'
p1464
sg43
S'11/07'
p1465
sg45
S'Joe Webb'
p1466
sg47
S'0.0'
p1467
sg49
S'W34-27'
p1468
sg51
S'2013'
p1469
ssg77
(dp1470
g5
S'--'
p1471
sg7
S'13'
p1472
sg9
S'--'
p1473
sg11
S'--'
p1474
sg13
S'--'
p1475
sg15
S'--'
p1476
sg17
S'--'
p1477
sg19
S'--'
p1478
sg21
S'CHI'
p1479
sg23
g24
sg25
S'--'
p1480
sg27
S'--'
p1481
sg29
S'--'
p1482
sg31
g32
sg33
S'--'
p1483
sg35
S'--'
p1484
sg37
S'--'
p1485
sg39
S'--'
p1486
sg41
S'--'
p1487
sg43
S'12/01'
p1488
sg45
S'Joe Webb'
p1489
sg47
S'0.0'
p1490
sg49
S'W23-20'
p1491
sg51
S'2013'
p1492
ssg101
(dp1493
g5
S'--'
p1494
sg7
S'12'
p1495
sg9
S'--'
p1496
sg11
S'--'
p1497
sg13
S'--'
p1498
sg15
S'--'
p1499
sg17
S'--'
p1500
sg19
S'--'
p1501
sg21
S'@GB'
p1502
sg23
g24
sg25
S'--'
p1503
sg27
S'--'
p1504
sg29
S'--'
p1505
sg31
g32
sg33
S'--'
p1506
sg35
S'--'
p1507
sg37
S'--'
p1508
sg39
S'--'
p1509
sg41
S'--'
p1510
sg43
S'11/24'
p1511
sg45
S'Joe Webb'
p1512
sg47
S'0.0'
p1513
sg49
S'T26-26'
p1514
sg51
S'2013'
p1515
ssg125
(dp1516
g5
S'--'
p1517
sg7
S'15'
p1518
sg9
S'--'
p1519
sg11
S'--'
p1520
sg13
S'--'
p1521
sg15
S'--'
p1522
sg17
S'--'
p1523
sg19
S'--'
p1524
sg21
S'PHI'
p1525
sg23
g24
sg25
S'--'
p1526
sg27
S'--'
p1527
sg29
S'--'
p1528
sg31
g32
sg33
S'--'
p1529
sg35
S'--'
p1530
sg37
S'--'
p1531
sg39
S'--'
p1532
sg41
S'--'
p1533
sg43
S'12/15'
p1534
sg45
S'Joe Webb'
p1535
sg47
S'0.0'
p1536
sg49
S'W48-30'
p1537
sg51
S'2013'
p1538
ssg149
(dp1539
g5
S'--'
p1540
sg7
S'14'
p1541
sg9
S'--'
p1542
sg11
S'--'
p1543
sg13
S'--'
p1544
sg15
S'--'
p1545
sg17
S'--'
p1546
sg19
S'--'
p1547
sg21
S'@BAL'
p1548
sg23
g24
sg25
S'--'
p1549
sg27
S'--'
p1550
sg29
S'--'
p1551
sg31
g32
sg33
S'--'
p1552
sg35
S'--'
p1553
sg37
S'--'
p1554
sg39
S'--'
p1555
sg41
S'--'
p1556
sg43
S'12/08'
p1557
sg45
S'Joe Webb'
p1558
sg47
S'0.0'
p1559
sg49
S'L26-29'
p1560
sg51
S'2013'
p1561
ssg173
(dp1562
g5
S'--'
p1563
sg7
S'17'
p1564
sg9
S'--'
p1565
sg11
S'--'
p1566
sg13
S'--'
p1567
sg15
S'--'
p1568
sg17
S'--'
p1569
sg19
S'--'
p1570
sg21
S'DET'
p1571
sg23
g24
sg25
S'--'
p1572
sg27
S'--'
p1573
sg29
S'--'
p1574
sg31
g24
sg33
S'--'
p1575
sg35
S'--'
p1576
sg37
S'--'
p1577
sg39
S'--'
p1578
sg41
S'--'
p1579
sg43
S'12/29'
p1580
sg45
S'Joe Webb'
p1581
sg47
S'0.0'
p1582
sg49
S'W14-13'
p1583
sg51
S'2013'
p1584
ssg197
(dp1585
g5
S'--'
p1586
sg7
S'16'
p1587
sg9
S'--'
p1588
sg11
S'--'
p1589
sg13
S'--'
p1590
sg15
S'--'
p1591
sg17
S'--'
p1592
sg19
S'--'
p1593
sg21
S'@CIN'
p1594
sg23
g24
sg25
S'--'
p1595
sg27
S'--'
p1596
sg29
S'--'
p1597
sg31
g32
sg33
S'--'
p1598
sg35
S'--'
p1599
sg37
S'--'
p1600
sg39
S'--'
p1601
sg41
S'--'
p1602
sg43
S'12/22'
p1603
sg45
S'Joe Webb'
p1604
sg47
S'0.0'
p1605
sg49
S'L14-42'
p1606
sg51
S'2013'
p1607
ssg24
(dp1608
g5
S'--'
p1609
sg7
g24
sg9
S'--'
p1610
sg11
S'--'
p1611
sg13
S'--'
p1612
sg15
S'--'
p1613
sg17
S'--'
p1614
sg19
S'--'
p1615
sg21
S'@DET'
p1616
sg23
g24
sg25
S'--'
p1617
sg27
S'--'
p1618
sg29
S'--'
p1619
sg31
g32
sg33
S'--'
p1620
sg35
S'--'
p1621
sg37
S'--'
p1622
sg39
S'--'
p1623
sg41
S'--'
p1624
sg43
S'09/08'
p1625
sg45
S'Joe Webb'
p1626
sg47
S'0.0'
p1627
sg49
S'L24-34'
p1628
sg51
S'2013'
p1629
ssg243
(dp1630
g5
S'--'
p1631
sg7
g243
sg9
S'--'
p1632
sg11
S'--'
p1633
sg13
S'--'
p1634
sg15
S'--'
p1635
sg17
S'--'
p1636
sg19
S'--'
p1637
sg21
S'CLE'
p1638
sg23
g24
sg25
S'--'
p1639
sg27
S'--'
p1640
sg29
S'--'
p1641
sg31
g32
sg33
S'--'
p1642
sg35
S'--'
p1643
sg37
S'--'
p1644
sg39
S'--'
p1645
sg41
S'--'
p1646
sg43
S'09/22'
p1647
sg45
S'Joe Webb'
p1648
sg47
S'0.0'
p1649
sg49
S'L27-31'
p1650
sg51
S'2013'
p1651
ssg266
(dp1652
g5
S'--'
p1653
sg7
g266
sg9
S'--'
p1654
sg11
S'--'
p1655
sg13
S'--'
p1656
sg15
S'--'
p1657
sg17
S'--'
p1658
sg19
S'--'
p1659
sg21
S'@CHI'
p1660
sg23
g24
sg25
S'--'
p1661
sg27
S'--'
p1662
sg29
S'--'
p1663
sg31
g32
sg33
S'--'
p1664
sg35
S'--'
p1665
sg37
S'--'
p1666
sg39
S'--'
p1667
sg41
S'--'
p1668
sg43
S'09/15'
p1669
sg45
S'Joe Webb'
p1670
sg47
S'0.0'
p1671
sg49
S'L30-31'
p1672
sg51
S'2013'
p1673
ssg289
(dp1674
g5
g291
sg7
g289
sg9
g291
sg11
g291
sg13
g291
sg15
g291
sg17
g291
sg19
g291
sg21
g291
sg23
g291
sg25
g291
sg27
g291
sg29
g291
sg31
g291
sg33
g291
sg35
g291
sg37
g291
sg39
g291
sg41
g291
sg43
S'Bye'
p1675
sg45
S'Joe Webb'
p1676
sg47
g291
sg49
g291
sg51
S'2013'
p1677
ssg295
(dp1678
g5
S'--'
p1679
sg7
g295
sg9
S'--'
p1680
sg11
S'--'
p1681
sg13
S'--'
p1682
sg15
S'--'
p1683
sg17
S'--'
p1684
sg19
S'--'
p1685
sg21
S'PIT'
p1686
sg23
g24
sg25
S'--'
p1687
sg27
S'--'
p1688
sg29
S'--'
p1689
sg31
g32
sg33
S'--'
p1690
sg35
S'--'
p1691
sg37
S'--'
p1692
sg39
S'--'
p1693
sg41
S'--'
p1694
sg43
S'09/29'
p1695
sg45
S'Joe Webb'
p1696
sg47
S'0.0'
p1697
sg49
S'W34-27'
p1698
sg51
S'2013'
p1699
ssg318
(dp1700
g5
S'--'
p1701
sg7
g318
sg9
S'--'
p1702
sg11
S'--'
p1703
sg13
S'--'
p1704
sg15
S'--'
p1705
sg17
S'--'
p1706
sg19
S'--'
p1707
sg21
S'@NYG'
p1708
sg23
g24
sg25
S'--'
p1709
sg27
S'--'
p1710
sg29
S'--'
p1711
sg31
g32
sg33
S'--'
p1712
sg35
S'--'
p1713
sg37
S'--'
p1714
sg39
S'--'
p1715
sg41
S'--'
p1716
sg43
S'10/21'
p1717
sg45
S'Joe Webb'
p1718
sg47
S'0.0'
p1719
sg49
S'L7-23'
p1720
sg51
S'2013'
p1721
ssg341
(dp1722
g5
S'--'
p1723
sg7
g341
sg9
S'--'
p1724
sg11
S'--'
p1725
sg13
S'--'
p1726
sg15
S'--'
p1727
sg17
S'--'
p1728
sg19
S'--'
p1729
sg21
S'CAR'
p1730
sg23
g24
sg25
S'--'
p1731
sg27
S'--'
p1732
sg29
S'--'
p1733
sg31
g32
sg33
S'--'
p1734
sg35
S'--'
p1735
sg37
S'--'
p1736
sg39
S'--'
p1737
sg41
S'--'
p1738
sg43
S'10/13'
p1739
sg45
S'Joe Webb'
p1740
sg47
S'0.0'
p1741
sg49
S'L10-35'
p1742
sg51
S'2013'
p1743
ssg364
(dp1744
g5
S'--'
p1745
sg7
g364
sg9
S'--'
p1746
sg11
S'--'
p1747
sg13
S'--'
p1748
sg15
S'--'
p1749
sg17
S'--'
p1750
sg19
S'--'
p1751
sg21
S'@DAL'
p1752
sg23
g24
sg25
S'--'
p1753
sg27
S'--'
p1754
sg29
S'--'
p1755
sg31
g32
sg33
S'--'
p1756
sg35
S'--'
p1757
sg37
S'--'
p1758
sg39
S'--'
p1759
sg41
S'--'
p1760
sg43
S'11/03'
p1761
sg45
S'Joe Webb'
p1762
sg47
S'0.0'
p1763
sg49
S'L23-27'
p1764
sg51
S'2013'
p1765
ssg385
(dp1766
g5
S'--'
p1767
sg7
g385
sg9
S'--'
p1768
sg11
S'--'
p1769
sg13
S'--'
p1770
sg15
S'--'
p1771
sg17
S'--'
p1772
sg19
S'--'
p1773
sg21
S'GB'
p1774
sg23
g24
sg25
S'--'
p1775
sg27
S'--'
p1776
sg29
S'--'
p1777
sg31
g32
sg33
S'--'
p1778
sg35
S'--'
p1779
sg37
S'--'
p1780
sg39
S'--'
p1781
sg41
S'--'
p1782
sg43
S'10/27'
p1783
sg45
S'Joe Webb'
p1784
sg47
S'0.0'
p1785
sg49
S'L31-44'
p1786
sg51
S'2013'
p1787
sssS'2012'
p1788
(dp1789
g3
(dp1790
g5
g291
sg7
S'11'
p1791
sg9
g291
sg11
g291
sg13
g291
sg15
g291
sg17
g291
sg19
g291
sg21
g291
sg23
g291
sg25
g291
sg27
g291
sg29
g291
sg31
g291
sg33
g291
sg35
g291
sg37
g291
sg39
g291
sg41
g291
sg43
S'Bye'
p1792
sg45
S'Joe Webb'
p1793
sg47
g291
sg49
g291
sg51
S'2012'
p1794
ssg53
(dp1795
g5
S'--'
p1796
sg7
S'10'
p1797
sg9
S'--'
p1798
sg11
S'--'
p1799
sg13
S'--'
p1800
sg15
S'--'
p1801
sg17
S'--'
p1802
sg19
S'--'
p1803
sg21
S'DET'
p1804
sg23
g32
sg25
S'--'
p1805
sg27
S'--'
p1806
sg29
S'--'
p1807
sg31
g32
sg33
S'--'
p1808
sg35
S'--'
p1809
sg37
S'--'
p1810
sg39
S'--'
p1811
sg41
S'--'
p1812
sg43
S'11/11'
p1813
sg45
S'Joe Webb'
p1814
sg47
S'0.0'
p1815
sg49
S'W34-24'
p1816
sg51
S'2012'
p1817
ssg77
(dp1818
g5
S'--'
p1819
sg7
S'13'
p1820
sg9
S'--'
p1821
sg11
S'--'
p1822
sg13
S'--'
p1823
sg15
S'--'
p1824
sg17
S'--'
p1825
sg19
S'--'
p1826
sg21
S'@GB'
p1827
sg23
g32
sg25
S'--'
p1828
sg27
S'--'
p1829
sg29
S'--'
p1830
sg31
g32
sg33
S'--'
p1831
sg35
S'--'
p1832
sg37
S'--'
p1833
sg39
S'--'
p1834
sg41
S'--'
p1835
sg43
S'12/02'
p1836
sg45
S'Joe Webb'
p1837
sg47
S'0.0'
p1838
sg49
S'L14-23'
p1839
sg51
S'2012'
p1840
ssg101
(dp1841
g5
S'--'
p1842
sg7
S'12'
p1843
sg9
S'--'
p1844
sg11
S'--'
p1845
sg13
S'--'
p1846
sg15
S'--'
p1847
sg17
S'--'
p1848
sg19
S'--'
p1849
sg21
S'@CHI'
p1850
sg23
g32
sg25
S'--'
p1851
sg27
S'--'
p1852
sg29
S'--'
p1853
sg31
g32
sg33
S'--'
p1854
sg35
S'--'
p1855
sg37
S'--'
p1856
sg39
S'--'
p1857
sg41
S'--'
p1858
sg43
S'11/25'
p1859
sg45
S'Joe Webb'
p1860
sg47
S'0.0'
p1861
sg49
S'L10-28'
p1862
sg51
S'2012'
p1863
ssg125
(dp1864
g5
S'--'
p1865
sg7
S'15'
p1866
sg9
S'--'
p1867
sg11
S'--'
p1868
sg13
S'--'
p1869
sg15
S'--'
p1870
sg17
S'--'
p1871
sg19
S'--'
p1872
sg21
S'@STL'
p1873
sg23
g32
sg25
S'--'
p1874
sg27
S'--'
p1875
sg29
S'--'
p1876
sg31
g32
sg33
S'--'
p1877
sg35
S'--'
p1878
sg37
S'--'
p1879
sg39
S'--'
p1880
sg41
S'--'
p1881
sg43
S'12/16'
p1882
sg45
S'Joe Webb'
p1883
sg47
S'0.0'
p1884
sg49
S'W36-22'
p1885
sg51
S'2012'
p1886
ssg149
(dp1887
g5
S'--'
p1888
sg7
S'14'
p1889
sg9
S'--'
p1890
sg11
S'--'
p1891
sg13
S'--'
p1892
sg15
S'--'
p1893
sg17
S'--'
p1894
sg19
S'--'
p1895
sg21
S'CHI'
p1896
sg23
g32
sg25
S'--'
p1897
sg27
S'--'
p1898
sg29
S'--'
p1899
sg31
g32
sg33
S'--'
p1900
sg35
S'--'
p1901
sg37
S'--'
p1902
sg39
S'--'
p1903
sg41
S'--'
p1904
sg43
S'12/09'
p1905
sg45
S'Joe Webb'
p1906
sg47
S'0.0'
p1907
sg49
S'W21-14'
p1908
sg51
S'2012'
p1909
ssg173
(dp1910
g5
S'--'
p1911
sg7
S'17'
p1912
sg9
S'--'
p1913
sg11
S'--'
p1914
sg13
S'--'
p1915
sg15
S'--'
p1916
sg17
S'--'
p1917
sg19
S'--'
p1918
sg21
S'GB'
p1919
sg23
g32
sg25
S'--'
p1920
sg27
S'--'
p1921
sg29
S'--'
p1922
sg31
g32
sg33
S'--'
p1923
sg35
S'--'
p1924
sg37
S'--'
p1925
sg39
S'--'
p1926
sg41
S'--'
p1927
sg43
S'12/30'
p1928
sg45
S'Joe Webb'
p1929
sg47
S'0.0'
p1930
sg49
S'W37-34'
p1931
sg51
S'2012'
p1932
ssg197
(dp1933
g5
S'--'
p1934
sg7
S'16'
p1935
sg9
S'--'
p1936
sg11
S'--'
p1937
sg13
S'--'
p1938
sg15
S'--'
p1939
sg17
S'--'
p1940
sg19
S'--'
p1941
sg21
S'@HOU'
p1942
sg23
g32
sg25
S'--'
p1943
sg27
S'--'
p1944
sg29
S'--'
p1945
sg31
g32
sg33
S'--'
p1946
sg35
S'--'
p1947
sg37
S'--'
p1948
sg39
S'--'
p1949
sg41
S'--'
p1950
sg43
S'12/23'
p1951
sg45
S'Joe Webb'
p1952
sg47
S'0.0'
p1953
sg49
S'W23-6'
p1954
sg51
S'2012'
p1955
ssg24
(dp1956
g5
S'--'
p1957
sg7
g24
sg9
S'--'
p1958
sg11
S'--'
p1959
sg13
S'--'
p1960
sg15
S'--'
p1961
sg17
S'--'
p1962
sg19
S'--'
p1963
sg21
S'JAC'
p1964
sg23
g32
sg25
S'--'
p1965
sg27
S'--'
p1966
sg29
S'--'
p1967
sg31
g32
sg33
S'--'
p1968
sg35
S'--'
p1969
sg37
S'--'
p1970
sg39
S'--'
p1971
sg41
S'--'
p1972
sg43
S'09/09'
p1973
sg45
S'Joe Webb'
p1974
sg47
S'0.0'
p1975
sg49
S'W26-23'
p1976
sg51
S'2012'
p1977
ssg243
(dp1978
g5
S'--'
p1979
sg7
g243
sg9
S'--'
p1980
sg11
S'--'
p1981
sg13
S'--'
p1982
sg15
S'--'
p1983
sg17
S'--'
p1984
sg19
S'--'
p1985
sg21
S'SF'
p1986
sg23
g32
sg25
S'--'
p1987
sg27
S'--'
p1988
sg29
S'--'
p1989
sg31
g32
sg33
S'--'
p1990
sg35
S'--'
p1991
sg37
S'--'
p1992
sg39
S'--'
p1993
sg41
S'--'
p1994
sg43
S'09/23'
p1995
sg45
S'Joe Webb'
p1996
sg47
S'0.0'
p1997
sg49
S'W24-13'
p1998
sg51
S'2012'
p1999
ssg266
(dp2000
g5
S'--'
p2001
sg7
g266
sg9
S'--'
p2002
sg11
S'--'
p2003
sg13
S'--'
p2004
sg15
S'--'
p2005
sg17
S'--'
p2006
sg19
S'--'
p2007
sg21
S'@IND'
p2008
sg23
g32
sg25
S'--'
p2009
sg27
S'--'
p2010
sg29
S'--'
p2011
sg31
g32
sg33
S'--'
p2012
sg35
S'--'
p2013
sg37
S'--'
p2014
sg39
S'--'
p2015
sg41
S'--'
p2016
sg43
S'09/16'
p2017
sg45
S'Joe Webb'
p2018
sg47
S'0.0'
p2019
sg49
S'L20-23'
p2020
sg51
S'2012'
p2021
ssg289
(dp2022
g5
S'--'
p2023
sg7
g289
sg9
S'-1.0'
p2024
sg11
S'--'
p2025
sg13
g24
sg15
S'--'
p2026
sg17
S'--'
p2027
sg19
S'--'
p2028
sg21
S'TEN'
p2029
sg23
g24
sg25
S'--'
p2030
sg27
S'--'
p2031
sg29
S'-1'
p2032
sg31
g32
sg33
S'--'
p2033
sg35
g32
sg37
S'--'
p2034
sg39
S'--'
p2035
sg41
S'--'
p2036
sg43
S'10/07'
p2037
sg45
S'Joe Webb'
p2038
sg47
S'0.0'
p2039
sg49
S'W30-7'
p2040
sg51
S'2012'
p2041
ssg295
(dp2042
g5
S'--'
p2043
sg7
g295
sg9
S'--'
p2044
sg11
S'--'
p2045
sg13
S'--'
p2046
sg15
S'--'
p2047
sg17
S'--'
p2048
sg19
S'--'
p2049
sg21
S'@DET'
p2050
sg23
g32
sg25
S'--'
p2051
sg27
S'--'
p2052
sg29
S'--'
p2053
sg31
g32
sg33
S'--'
p2054
sg35
S'--'
p2055
sg37
S'--'
p2056
sg39
S'--'
p2057
sg41
S'--'
p2058
sg43
S'09/30'
p2059
sg45
S'Joe Webb'
p2060
sg47
S'0.0'
p2061
sg49
S'W20-13'
p2062
sg51
S'2012'
p2063
ssg318
(dp2064
g5
S'--'
p2065
sg7
g318
sg9
S'--'
p2066
sg11
S'--'
p2067
sg13
S'--'
p2068
sg15
S'--'
p2069
sg17
S'--'
p2070
sg19
S'--'
p2071
sg21
S'ARI'
p2072
sg23
g32
sg25
S'--'
p2073
sg27
S'--'
p2074
sg29
S'--'
p2075
sg31
g32
sg33
S'--'
p2076
sg35
S'--'
p2077
sg37
S'--'
p2078
sg39
S'--'
p2079
sg41
S'--'
p2080
sg43
S'10/21'
p2081
sg45
S'Joe Webb'
p2082
sg47
S'0.0'
p2083
sg49
S'W21-14'
p2084
sg51
S'2012'
p2085
ssg341
(dp2086
g5
S'--'
p2087
sg7
g341
sg9
S'--'
p2088
sg11
S'--'
p2089
sg13
S'--'
p2090
sg15
S'--'
p2091
sg17
S'--'
p2092
sg19
S'--'
p2093
sg21
S'@WAS'
p2094
sg23
g32
sg25
S'--'
p2095
sg27
S'--'
p2096
sg29
S'--'
p2097
sg31
g32
sg33
S'--'
p2098
sg35
S'--'
p2099
sg37
S'--'
p2100
sg39
S'--'
p2101
sg41
S'--'
p2102
sg43
S'10/14'
p2103
sg45
S'Joe Webb'
p2104
sg47
S'0.0'
p2105
sg49
S'L26-38'
p2106
sg51
S'2012'
p2107
ssg364
(dp2108
g5
S'--'
p2109
sg7
g364
sg9
S'--'
p2110
sg11
S'--'
p2111
sg13
S'--'
p2112
sg15
S'--'
p2113
sg17
S'--'
p2114
sg19
S'--'
p2115
sg21
S'@SEA'
p2116
sg23
g32
sg25
S'--'
p2117
sg27
S'--'
p2118
sg29
S'--'
p2119
sg31
g32
sg33
S'--'
p2120
sg35
S'--'
p2121
sg37
S'--'
p2122
sg39
S'--'
p2123
sg41
S'--'
p2124
sg43
S'11/04'
p2125
sg45
S'Joe Webb'
p2126
sg47
S'0.0'
p2127
sg49
S'L20-30'
p2128
sg51
S'2012'
p2129
ssg385
(dp2130
g5
S'--'
p2131
sg7
g385
sg9
S'--'
p2132
sg11
S'--'
p2133
sg13
S'--'
p2134
sg15
S'--'
p2135
sg17
S'--'
p2136
sg19
S'--'
p2137
sg21
S'TB'
p2138
sg23
g32
sg25
S'--'
p2139
sg27
S'--'
p2140
sg29
S'--'
p2141
sg31
g32
sg33
S'--'
p2142
sg35
S'--'
p2143
sg37
S'--'
p2144
sg39
S'--'
p2145
sg41
S'--'
p2146
sg43
S'10/25'
p2147
sg45
S'Joe Webb'
p2148
sg47
S'0.0'
p2149
sg49
S'L17-36'
p2150
sg51
S'2012'
p2151
sss.