(dp0
S'2015'
p1
(dp2
S'11'
p3
(dp4
S'PassAtt'
p5
S'--'
p6
sS'WK'
p7
S'11'
p8
sS'RushAvg'
p9
S'--'
p10
sS'Pct'
p11
S'--'
p12
sS'RushAtt'
p13
S'--'
p14
sS'PassYds'
p15
S'--'
p16
sS'PassAvg'
p17
S'--'
p18
sS'FUM'
p19
S'--'
p20
sS'Opp'
p21
S'@NE'
p22
sS'G'
p23
S'0'
p24
sS'Comp'
p25
S'--'
p26
sS'SckY'
p27
S'--'
p28
sS'RushYds'
p29
S'--'
p30
sS'GS'
p31
g24
sS'Lost'
p32
S'--'
p33
sS'RushTD'
p34
S'--'
p35
sS'PassTD'
p36
S'--'
p37
sS'Sck'
p38
S'--'
p39
sS'Int'
p40
S'--'
p41
sS'Game Date'
p42
S'11/23'
p43
sS'Player'
p44
S'Josh Johnson'
p45
sS'Rate'
p46
S'0.0'
p47
sS'Result'
p48
S'L13-20'
p49
sS'Year'
p50
S'2015'
p51
ssS'10'
p52
(dp53
g5
S'--'
p54
sg7
S'10'
p55
sg9
S'--'
p56
sg11
S'--'
p57
sg13
S'--'
p58
sg15
S'--'
p59
sg17
S'--'
p60
sg19
S'--'
p61
sg21
S'@NYJ'
p62
sg23
g24
sg25
S'--'
p63
sg27
S'--'
p64
sg29
S'--'
p65
sg31
g24
sg32
S'--'
p66
sg34
S'--'
p67
sg36
S'--'
p68
sg38
S'--'
p69
sg40
S'--'
p70
sg42
S'11/12'
p71
sg44
S'Josh Johnson'
p72
sg46
S'0.0'
p73
sg48
S'W22-17'
p74
sg50
S'2015'
p75
ssS'13'
p76
(dp77
g5
S'--'
p78
sg7
S'13'
p79
sg9
S'--'
p80
sg11
S'--'
p81
sg13
S'--'
p82
sg15
S'--'
p83
sg17
S'--'
p84
sg19
S'--'
p85
sg21
S'HOU'
p86
sg23
g24
sg25
S'--'
p87
sg27
S'--'
p88
sg29
S'--'
p89
sg31
g24
sg32
S'--'
p90
sg34
S'--'
p91
sg36
S'--'
p92
sg38
S'--'
p93
sg40
S'--'
p94
sg42
S'12/06'
p95
sg44
S'Josh Johnson'
p96
sg46
S'0.0'
p97
sg48
S'W30-21'
p98
sg50
S'2015'
p99
ssS'12'
p100
(dp101
g5
S'--'
p102
sg7
S'12'
p103
sg9
S'--'
p104
sg11
S'--'
p105
sg13
S'--'
p106
sg15
S'--'
p107
sg17
S'--'
p108
sg19
S'--'
p109
sg21
S'@KC'
p110
sg23
g24
sg25
S'--'
p111
sg27
S'--'
p112
sg29
S'--'
p113
sg31
g24
sg32
S'--'
p114
sg34
S'--'
p115
sg36
S'--'
p116
sg38
S'--'
p117
sg40
S'--'
p118
sg42
S'11/29'
p119
sg44
S'Josh Johnson'
p120
sg46
S'0.0'
p121
sg48
S'L22-30'
p122
sg50
S'2015'
p123
ssS'15'
p124
(dp125
g5
S'--'
p126
sg7
S'15'
p127
sg9
S'--'
p128
sg11
S'--'
p129
sg13
S'--'
p130
sg15
S'--'
p131
sg17
S'--'
p132
sg19
S'--'
p133
sg21
S'@WAS'
p134
sg23
g24
sg25
S'--'
p135
sg27
S'--'
p136
sg29
S'--'
p137
sg31
g24
sg32
S'--'
p138
sg34
S'--'
p139
sg36
S'--'
p140
sg38
S'--'
p141
sg40
S'--'
p142
sg42
S'12/20'
p143
sg44
S'Josh Johnson'
p144
sg46
S'0.0'
p145
sg48
S'L25-35'
p146
sg50
S'2015'
p147
ssS'14'
p148
(dp149
g5
S'--'
p150
sg7
S'14'
p151
sg9
S'--'
p152
sg11
S'--'
p153
sg13
S'--'
p154
sg15
S'--'
p155
sg17
S'--'
p156
sg19
S'--'
p157
sg21
S'@PHI'
p158
sg23
g24
sg25
S'--'
p159
sg27
S'--'
p160
sg29
S'--'
p161
sg31
g24
sg32
S'--'
p162
sg34
S'--'
p163
sg36
S'--'
p164
sg38
S'--'
p165
sg40
S'--'
p166
sg42
S'12/13'
p167
sg44
S'Josh Johnson'
p168
sg46
S'0.0'
p169
sg48
S'L20-23'
p170
sg50
S'2015'
p171
ssS'17'
p172
(dp173
g5
S'--'
p174
sg7
S'17'
p175
sg9
S'--'
p176
sg11
S'--'
p177
sg13
S'--'
p178
sg15
S'--'
p179
sg17
S'--'
p180
sg19
S'--'
p181
sg21
S'NYJ'
p182
sg23
g24
sg25
S'--'
p183
sg27
S'--'
p184
sg29
S'--'
p185
sg31
g24
sg32
S'--'
p186
sg34
S'--'
p187
sg36
S'--'
p188
sg38
S'--'
p189
sg40
S'--'
p190
sg42
S'01/03'
p191
sg44
S'Josh Johnson'
p192
sg46
S'0.0'
p193
sg48
S'W22-17'
p194
sg50
S'2015'
p195
ssS'16'
p196
(dp197
g5
S'--'
p198
sg7
S'16'
p199
sg9
S'--'
p200
sg11
S'--'
p201
sg13
S'--'
p202
sg15
S'--'
p203
sg17
S'--'
p204
sg19
S'--'
p205
sg21
S'DAL'
p206
sg23
g24
sg25
S'--'
p207
sg27
S'--'
p208
sg29
S'--'
p209
sg31
g24
sg32
S'--'
p210
sg34
S'--'
p211
sg36
S'--'
p212
sg38
S'--'
p213
sg40
S'--'
p214
sg42
S'12/27'
p215
sg44
S'Josh Johnson'
p216
sg46
S'0.0'
p217
sg48
S'W16-6'
p218
sg50
S'2015'
p219
ssS'5'
p220
(dp221
g5
S'--'
p222
sg7
g220
sg9
S'--'
p223
sg11
S'--'
p224
sg13
S'--'
p225
sg15
S'--'
p226
sg17
S'--'
p227
sg19
S'--'
p228
sg21
S'@HOU'
p229
sg23
g24
sg25
S'--'
p230
sg27
S'--'
p231
sg29
S'--'
p232
sg31
g24
sg32
S'--'
p233
sg34
S'--'
p234
sg36
S'--'
p235
sg38
S'--'
p236
sg40
S'--'
p237
sg42
S'10/08'
p238
sg44
S'Josh Johnson'
p239
sg46
S'0.0'
p240
sg48
S'W27-20'
p241
sg50
S'2015'
p242
ssS'4'
p243
(dp244
g5
S'--'
p245
sg7
g243
sg9
S'--'
p246
sg11
S'--'
p247
sg13
S'--'
p248
sg15
S'--'
p249
sg17
S'--'
p250
sg19
S'--'
p251
sg21
S'JAC'
p252
sg23
g24
sg25
S'--'
p253
sg27
S'--'
p254
sg29
S'--'
p255
sg31
g24
sg32
S'--'
p256
sg34
S'--'
p257
sg36
S'--'
p258
sg38
S'--'
p259
sg40
S'--'
p260
sg42
S'10/04'
p261
sg44
S'Josh Johnson'
p262
sg46
S'0.0'
p263
sg48
S'W16-13'
p264
sg50
S'2015'
p265
ssS'7'
p266
(dp267
g5
S'--'
p268
sg7
g266
sg9
S'--'
p269
sg11
S'--'
p270
sg13
S'--'
p271
sg15
S'--'
p272
sg17
S'--'
p273
sg19
S'--'
p274
sg21
S'@JAC'
p275
sg23
g24
sg25
S'--'
p276
sg27
S'--'
p277
sg29
S'--'
p278
sg31
g24
sg32
S'--'
p279
sg34
S'--'
p280
sg36
S'--'
p281
sg38
S'--'
p282
sg40
S'--'
p283
sg42
S'10/25'
p284
sg44
S'Josh Johnson'
p285
sg46
S'0.0'
p286
sg48
S'L31-34'
p287
sg50
S'2015'
p288
ssS'6'
p289
(dp290
g5
S'--'
p291
sg7
g289
sg9
S'--'
p292
sg11
S'--'
p293
sg13
S'--'
p294
sg15
S'--'
p295
sg17
S'--'
p296
sg19
S'--'
p297
sg21
S'CIN'
p298
sg23
g24
sg25
S'--'
p299
sg27
S'--'
p300
sg29
S'--'
p301
sg31
g24
sg32
S'--'
p302
sg34
S'--'
p303
sg36
S'--'
p304
sg38
S'--'
p305
sg40
S'--'
p306
sg42
S'10/18'
p307
sg44
S'Josh Johnson'
p308
sg46
S'0.0'
p309
sg48
S'L21-34'
p310
sg50
S'2015'
p311
ssS'9'
p312
(dp313
g5
S'--'
p314
sg7
g312
sg9
S'--'
p315
sg11
S'--'
p316
sg13
S'--'
p317
sg15
S'--'
p318
sg17
S'--'
p319
sg19
S'--'
p320
sg21
S'MIA'
p321
sg23
g24
sg25
S'--'
p322
sg27
S'--'
p323
sg29
S'--'
p324
sg31
g24
sg32
S'--'
p325
sg34
S'--'
p326
sg36
S'--'
p327
sg38
S'--'
p328
sg40
S'--'
p329
sg42
S'11/08'
p330
sg44
S'Josh Johnson'
p331
sg46
S'0.0'
p332
sg48
S'W33-17'
p333
sg50
S'2015'
p334
ssS'8'
p335
(dp336
g5
S''
p337
sg7
g335
sg9
g337
sg11
g337
sg13
g337
sg15
g337
sg17
g337
sg19
g337
sg21
g337
sg23
g337
sg25
g337
sg27
g337
sg29
g337
sg31
g337
sg32
g337
sg34
g337
sg36
g337
sg38
g337
sg40
g337
sg42
S'Bye'
p338
sg44
S'Josh Johnson'
p339
sg46
g337
sg48
g337
sg50
S'2015'
p340
sssS'2014'
p341
(dp342
g3
(dp343
g5
S'--'
p344
sg7
S'11'
p345
sg9
S'--'
p346
sg11
S'--'
p347
sg13
S'--'
p348
sg15
S'--'
p349
sg17
S'--'
p350
sg19
S'--'
p351
sg21
S'@NYG'
p352
sg23
g24
sg25
S'--'
p353
sg27
S'--'
p354
sg29
S'--'
p355
sg31
g24
sg32
S'--'
p356
sg34
S'--'
p357
sg36
S'--'
p358
sg38
S'--'
p359
sg40
S'--'
p360
sg42
S'11/16'
p361
sg44
S'Josh Johnson'
p362
sg46
S'0.0'
p363
sg48
S'W16-10'
p364
sg50
S'2014'
p365
ssg52
(dp366
g5
S'--'
p367
sg7
S'10'
p368
sg9
S'--'
p369
sg11
S'--'
p370
sg13
S'--'
p371
sg15
S'--'
p372
sg17
S'--'
p373
sg19
S'--'
p374
sg21
S'@NO'
p375
sg23
g24
sg25
S'--'
p376
sg27
S'--'
p377
sg29
S'--'
p378
sg31
g24
sg32
S'--'
p379
sg34
S'--'
p380
sg36
S'--'
p381
sg38
S'--'
p382
sg40
S'--'
p383
sg42
S'11/09'
p384
sg44
S'Josh Johnson'
p385
sg46
S'0.0'
p386
sg48
S'W27-24'
p387
sg50
S'2014'
p388
ssg76
(dp389
g5
S'--'
p390
sg7
S'13'
p391
sg9
S'--'
p392
sg11
S'--'
p393
sg13
S'--'
p394
sg15
S'--'
p395
sg17
S'--'
p396
sg19
S'--'
p397
sg21
S'SEA'
p398
sg23
g24
sg25
S'--'
p399
sg27
S'--'
p400
sg29
S'--'
p401
sg31
g24
sg32
S'--'
p402
sg34
S'--'
p403
sg36
S'--'
p404
sg38
S'--'
p405
sg40
S'--'
p406
sg42
S'11/27'
p407
sg44
S'Josh Johnson'
p408
sg46
S'0.0'
p409
sg48
S'L3-19'
p410
sg50
S'2014'
p411
ssg100
(dp412
g5
S'--'
p413
sg7
S'12'
p414
sg9
S'--'
p415
sg11
S'--'
p416
sg13
S'--'
p417
sg15
S'--'
p418
sg17
S'--'
p419
sg19
S'--'
p420
sg21
S'WAS'
p421
sg23
g24
sg25
S'--'
p422
sg27
S'--'
p423
sg29
S'--'
p424
sg31
g24
sg32
S'--'
p425
sg34
S'--'
p426
sg36
S'--'
p427
sg38
S'--'
p428
sg40
S'--'
p429
sg42
S'11/23'
p430
sg44
S'Josh Johnson'
p431
sg46
S'0.0'
p432
sg48
S'W17-13'
p433
sg50
S'2014'
p434
ssg124
(dp435
g5
S'--'
p436
sg7
S'15'
p437
sg9
S'--'
p438
sg11
S'--'
p439
sg13
S'--'
p440
sg15
S'--'
p441
sg17
S'--'
p442
sg19
S'--'
p443
sg21
S'@SEA'
p444
sg23
g24
sg25
S'--'
p445
sg27
S'--'
p446
sg29
S'--'
p447
sg31
g24
sg32
S'--'
p448
sg34
S'--'
p449
sg36
S'--'
p450
sg38
S'--'
p451
sg40
S'--'
p452
sg42
S'12/14'
p453
sg44
S'Josh Johnson'
p454
sg46
S'0.0'
p455
sg48
S'L7-17'
p456
sg50
S'2014'
p457
ssg148
(dp458
g5
S'--'
p459
sg7
S'14'
p460
sg9
S'--'
p461
sg11
S'--'
p462
sg13
S'--'
p463
sg15
S'--'
p464
sg17
S'--'
p465
sg19
S'--'
p466
sg21
S'@OAK'
p467
sg23
g24
sg25
S'--'
p468
sg27
S'--'
p469
sg29
S'--'
p470
sg31
g24
sg32
S'--'
p471
sg34
S'--'
p472
sg36
S'--'
p473
sg38
S'--'
p474
sg40
S'--'
p475
sg42
S'12/07'
p476
sg44
S'Josh Johnson'
p477
sg46
S'0.0'
p478
sg48
S'L13-24'
p479
sg50
S'2014'
p480
ssg172
(dp481
g5
S'--'
p482
sg7
S'17'
p483
sg9
S'--'
p484
sg11
S'--'
p485
sg13
S'--'
p486
sg15
S'--'
p487
sg17
S'--'
p488
sg19
S'--'
p489
sg21
S'ARI'
p490
sg23
g24
sg25
S'--'
p491
sg27
S'--'
p492
sg29
S'--'
p493
sg31
g24
sg32
S'--'
p494
sg34
S'--'
p495
sg36
S'--'
p496
sg38
S'--'
p497
sg40
S'--'
p498
sg42
S'12/28'
p499
sg44
S'Josh Johnson'
p500
sg46
S'0.0'
p501
sg48
S'W20-17'
p502
sg50
S'2014'
p503
ssg196
(dp504
g5
S'--'
p505
sg7
S'16'
p506
sg9
S'--'
p507
sg11
S'--'
p508
sg13
S'--'
p509
sg15
S'--'
p510
sg17
S'--'
p511
sg19
S'--'
p512
sg21
S'SD'
p513
sg23
g24
sg25
S'--'
p514
sg27
S'--'
p515
sg29
S'--'
p516
sg31
g24
sg32
S'--'
p517
sg34
S'--'
p518
sg36
S'--'
p519
sg38
S'--'
p520
sg40
S'--'
p521
sg42
S'12/20'
p522
sg44
S'Josh Johnson'
p523
sg46
S'0.0'
p524
sg48
S'L35-38'
p525
sg50
S'2014'
p526
ssS'1'
p527
(dp528
g5
S'--'
p529
sg7
g527
sg9
S'--'
p530
sg11
S'--'
p531
sg13
S'--'
p532
sg15
S'--'
p533
sg17
S'--'
p534
sg19
S'--'
p535
sg21
S'@DAL'
p536
sg23
g24
sg25
S'--'
p537
sg27
S'--'
p538
sg29
S'--'
p539
sg31
g24
sg32
S'--'
p540
sg34
S'--'
p541
sg36
S'--'
p542
sg38
S'--'
p543
sg40
S'--'
p544
sg42
S'09/07'
p545
sg44
S'Josh Johnson'
p546
sg46
S'0.0'
p547
sg48
S'W28-17'
p548
sg50
S'2014'
p549
ssS'2'
p550
(dp551
g5
S'--'
p552
sg7
g550
sg9
S'--'
p553
sg11
S'--'
p554
sg13
S'--'
p555
sg15
S'--'
p556
sg17
S'--'
p557
sg19
S'--'
p558
sg21
S'CHI'
p559
sg23
g24
sg25
S'--'
p560
sg27
S'--'
p561
sg29
S'--'
p562
sg31
g24
sg32
S'--'
p563
sg34
S'--'
p564
sg36
S'--'
p565
sg38
S'--'
p566
sg40
S'--'
p567
sg42
S'09/14'
p568
sg44
S'Josh Johnson'
p569
sg46
S'0.0'
p570
sg48
S'L20-28'
p571
sg50
S'2014'
p572
ssg220
(dp573
g5
S'--'
p574
sg7
g220
sg9
S'--'
p575
sg11
S'--'
p576
sg13
S'--'
p577
sg15
S'--'
p578
sg17
S'--'
p579
sg19
S'--'
p580
sg21
S'KC'
p581
sg23
g24
sg25
S'--'
p582
sg27
S'--'
p583
sg29
S'--'
p584
sg31
g24
sg32
S'--'
p585
sg34
S'--'
p586
sg36
S'--'
p587
sg38
S'--'
p588
sg40
S'--'
p589
sg42
S'10/05'
p590
sg44
S'Josh Johnson'
p591
sg46
S'0.0'
p592
sg48
S'W22-17'
p593
sg50
S'2014'
p594
ssg243
(dp595
g5
S'--'
p596
sg7
g243
sg9
S'--'
p597
sg11
S'--'
p598
sg13
S'--'
p599
sg15
S'--'
p600
sg17
S'--'
p601
sg19
S'--'
p602
sg21
S'PHI'
p603
sg23
g24
sg25
S'--'
p604
sg27
S'--'
p605
sg29
S'--'
p606
sg31
g24
sg32
S'--'
p607
sg34
S'--'
p608
sg36
S'--'
p609
sg38
S'--'
p610
sg40
S'--'
p611
sg42
S'09/28'
p612
sg44
S'Josh Johnson'
p613
sg46
S'0.0'
p614
sg48
S'W26-21'
p615
sg50
S'2014'
p616
ssg312
(dp617
g5
S'--'
p618
sg7
g312
sg9
S'--'
p619
sg11
S'--'
p620
sg13
S'--'
p621
sg15
S'--'
p622
sg17
S'--'
p623
sg19
S'--'
p624
sg21
S'STL'
p625
sg23
g24
sg25
S'--'
p626
sg27
S'--'
p627
sg29
S'--'
p628
sg31
g24
sg32
S'--'
p629
sg34
S'--'
p630
sg36
S'--'
p631
sg38
S'--'
p632
sg40
S'--'
p633
sg42
S'11/02'
p634
sg44
S'Josh Johnson'
p635
sg46
S'0.0'
p636
sg48
S'L10-13'
p637
sg50
S'2014'
p638
ssg335
(dp639
g5
g337
sg7
g335
sg9
g337
sg11
g337
sg13
g337
sg15
g337
sg17
g337
sg19
g337
sg21
g337
sg23
g337
sg25
g337
sg27
g337
sg29
g337
sg31
g337
sg32
g337
sg34
g337
sg36
g337
sg38
g337
sg40
g337
sg42
S'Bye'
p640
sg44
S'Josh Johnson'
p641
sg46
g337
sg48
g337
sg50
S'2014'
p642
sssS'2011'
p643
(dp644
g3
(dp645
g5
S'--'
p646
sg7
S'11'
p647
sg9
S'--'
p648
sg11
S'--'
p649
sg13
S'--'
p650
sg15
S'--'
p651
sg17
S'--'
p652
sg19
S'--'
p653
sg21
S'@GB'
p654
sg23
g24
sg25
S'--'
p655
sg27
S'--'
p656
sg29
S'--'
p657
sg31
g24
sg32
S'--'
p658
sg34
S'--'
p659
sg36
S'--'
p660
sg38
S'--'
p661
sg40
S'--'
p662
sg42
S'11/20'
p663
sg44
S'Josh Johnson'
p664
sg46
S'0.0'
p665
sg48
S'L26-35'
p666
sg50
S'2011'
p667
ssg52
(dp668
g5
g550
sg7
S'10'
p669
sg9
S'0.0'
p670
sg11
S'0.0'
p671
sg13
g527
sg15
g24
sg17
S'0.0'
p672
sg19
g527
sg21
S'HOU'
p673
sg23
g527
sg25
g24
sg27
g24
sg29
g24
sg31
g24
sg32
g527
sg34
g24
sg36
g24
sg38
g24
sg40
g24
sg42
S'11/13'
p674
sg44
S'Josh Johnson'
p675
sg46
S'39.6'
p676
sg48
S'L9-37'
p677
sg50
S'2011'
p678
ssg76
(dp679
g5
S'27'
p680
sg7
S'13'
p681
sg9
S'9.0'
p682
sg11
S'59.3'
p683
sg13
g220
sg15
S'229'
p684
sg17
S'8.5'
p685
sg19
S'--'
p686
sg21
S'CAR'
p687
sg23
g527
sg25
S'16'
p688
sg27
S'22'
p689
sg29
S'45'
p690
sg31
g527
sg32
S'--'
p691
sg34
g24
sg36
g527
sg38
g550
sg40
g527
sg42
S'12/04'
p692
sg44
S'Josh Johnson'
p693
sg46
S'83.7'
p694
sg48
S'L19-38'
p695
sg50
S'2011'
p696
ssg100
(dp697
g5
S'--'
p698
sg7
S'12'
p699
sg9
S'6.0'
p700
sg11
S'--'
p701
sg13
g527
sg15
S'--'
p702
sg17
S'--'
p703
sg19
S'--'
p704
sg21
S'@TEN'
p705
sg23
g527
sg25
S'--'
p706
sg27
S'--'
p707
sg29
g289
sg31
g24
sg32
S'--'
p708
sg34
g24
sg36
S'--'
p709
sg38
S'--'
p710
sg40
S'--'
p711
sg42
S'11/27'
p712
sg44
S'Josh Johnson'
p713
sg46
S'0.0'
p714
sg48
S'L17-23'
p715
sg50
S'2011'
p716
ssg124
(dp717
g5
S'--'
p718
sg7
S'15'
p719
sg9
S'--'
p720
sg11
S'--'
p721
sg13
S'--'
p722
sg15
S'--'
p723
sg17
S'--'
p724
sg19
S'--'
p725
sg21
S'DAL'
p726
sg23
g24
sg25
S'--'
p727
sg27
S'--'
p728
sg29
S'--'
p729
sg31
g24
sg32
S'--'
p730
sg34
S'--'
p731
sg36
S'--'
p732
sg38
S'--'
p733
sg40
S'--'
p734
sg42
S'12/17'
p735
sg44
S'Josh Johnson'
p736
sg46
S'0.0'
p737
sg48
S'L15-31'
p738
sg50
S'2011'
p739
ssg148
(dp740
g5
g550
sg7
S'14'
p741
sg9
S'--'
p742
sg11
S'50.0'
p743
sg13
S'--'
p744
sg15
S'3'
p745
sg17
S'1.5'
p746
sg19
S'--'
p747
sg21
S'@JAC'
p748
sg23
g527
sg25
g527
sg27
g24
sg29
S'--'
p749
sg31
g24
sg32
S'--'
p750
sg34
S'--'
p751
sg36
g24
sg38
g24
sg40
g527
sg42
S'12/11'
p752
sg44
S'Josh Johnson'
p753
sg46
S'16.7'
p754
sg48
S'L14-41'
p755
sg50
S'2011'
p756
ssg172
(dp757
g5
S'--'
p758
sg7
S'17'
p759
sg9
S'5.0'
p760
sg11
S'--'
p761
sg13
g527
sg15
S'--'
p762
sg17
S'--'
p763
sg19
S'--'
p764
sg21
S'@ATL'
p765
sg23
g527
sg25
S'--'
p766
sg27
S'--'
p767
sg29
g220
sg31
g24
sg32
S'--'
p768
sg34
g24
sg36
S'--'
p769
sg38
S'--'
p770
sg40
S'--'
p771
sg42
S'01/01'
p772
sg44
S'Josh Johnson'
p773
sg46
S'0.0'
p774
sg48
S'L24-45'
p775
sg50
S'2011'
p776
ssg196
(dp777
g5
S'--'
p778
sg7
S'16'
p779
sg9
S'--'
p780
sg11
S'--'
p781
sg13
S'--'
p782
sg15
S'--'
p783
sg17
S'--'
p784
sg19
S'--'
p785
sg21
S'@CAR'
p786
sg23
g24
sg25
S'--'
p787
sg27
S'--'
p788
sg29
S'--'
p789
sg31
g24
sg32
S'--'
p790
sg34
S'--'
p791
sg36
S'--'
p792
sg38
S'--'
p793
sg40
S'--'
p794
sg42
S'12/24'
p795
sg44
S'Josh Johnson'
p796
sg46
S'0.0'
p797
sg48
S'L16-48'
p798
sg50
S'2011'
p799
ssg527
(dp800
g5
g745
sg7
g527
sg9
S'2.0'
p801
sg11
S'33.3'
p802
sg13
g527
sg15
g266
sg17
S'2.3'
p803
sg19
S'--'
p804
sg21
S'DET'
p805
sg23
g527
sg25
g527
sg27
g24
sg29
g550
sg31
g24
sg32
S'--'
p806
sg34
g24
sg36
g24
sg38
g24
sg40
g24
sg42
S'09/11'
p807
sg44
S'Josh Johnson'
p808
sg46
S'42.4'
p809
sg48
S'L20-27'
p810
sg50
S'2011'
p811
ssg745
(dp812
g5
S'--'
p813
sg7
g745
sg9
S'--'
p814
sg11
S'--'
p815
sg13
S'--'
p816
sg15
S'--'
p817
sg17
S'--'
p818
sg19
S'--'
p819
sg21
S'ATL'
p820
sg23
g24
sg25
S'--'
p821
sg27
S'--'
p822
sg29
S'--'
p823
sg31
g24
sg32
S'--'
p824
sg34
S'--'
p825
sg36
S'--'
p826
sg38
S'--'
p827
sg40
S'--'
p828
sg42
S'09/25'
p829
sg44
S'Josh Johnson'
p830
sg46
S'0.0'
p831
sg48
S'W16-13'
p832
sg50
S'2011'
p833
ssg550
(dp834
g5
S'--'
p835
sg7
g550
sg9
S'--'
p836
sg11
S'--'
p837
sg13
S'--'
p838
sg15
S'--'
p839
sg17
S'--'
p840
sg19
S'--'
p841
sg21
S'@MIN'
p842
sg23
g24
sg25
S'--'
p843
sg27
S'--'
p844
sg29
S'--'
p845
sg31
g24
sg32
S'--'
p846
sg34
S'--'
p847
sg36
S'--'
p848
sg38
S'--'
p849
sg40
S'--'
p850
sg42
S'09/18'
p851
sg44
S'Josh Johnson'
p852
sg46
S'0.0'
p853
sg48
S'W24-20'
p854
sg50
S'2011'
p855
ssg220
(dp856
g5
g550
sg7
g220
sg9
S'--'
p857
sg11
S'50.0'
p858
sg13
S'--'
p859
sg15
g266
sg17
S'3.5'
p860
sg19
S'--'
p861
sg21
S'@SF'
p862
sg23
g527
sg25
g527
sg27
g550
sg29
S'--'
p863
sg31
g24
sg32
S'--'
p864
sg34
S'--'
p865
sg36
g24
sg38
g527
sg40
g24
sg42
S'10/09'
p866
sg44
S'Josh Johnson'
p867
sg46
S'58.3'
p868
sg48
S'L3-48'
p869
sg50
S'2011'
p870
ssg243
(dp871
g5
S'--'
p872
sg7
g243
sg9
S'8.0'
p873
sg11
S'--'
p874
sg13
g527
sg15
S'--'
p875
sg17
S'--'
p876
sg19
S'--'
p877
sg21
S'IND'
p878
sg23
g527
sg25
S'--'
p879
sg27
S'--'
p880
sg29
g335
sg31
g24
sg32
S'--'
p881
sg34
g24
sg36
S'--'
p882
sg38
S'--'
p883
sg40
S'--'
p884
sg42
S'10/03'
p885
sg44
S'Josh Johnson'
p886
sg46
S'0.0'
p887
sg48
S'W24-17'
p888
sg50
S'2011'
p889
ssg266
(dp890
g5
S'--'
p891
sg7
g266
sg9
S'--'
p892
sg11
S'--'
p893
sg13
S'--'
p894
sg15
S'--'
p895
sg17
S'--'
p896
sg19
S'--'
p897
sg21
S'CHI'
p898
sg23
g24
sg25
S'--'
p899
sg27
S'--'
p900
sg29
S'--'
p901
sg31
g24
sg32
S'--'
p902
sg34
S'--'
p903
sg36
S'--'
p904
sg38
S'--'
p905
sg40
S'--'
p906
sg42
S'10/23'
p907
sg44
S'Josh Johnson'
p908
sg46
S'0.0'
p909
sg48
S'L18-24'
p910
sg50
S'2011'
p911
ssg289
(dp912
g5
S'--'
p913
sg7
g289
sg9
S'--'
p914
sg11
S'--'
p915
sg13
S'--'
p916
sg15
S'--'
p917
sg17
S'--'
p918
sg19
S'--'
p919
sg21
S'NO'
p920
sg23
g24
sg25
S'--'
p921
sg27
S'--'
p922
sg29
S'--'
p923
sg31
g24
sg32
S'--'
p924
sg34
S'--'
p925
sg36
S'--'
p926
sg38
S'--'
p927
sg40
S'--'
p928
sg42
S'10/16'
p929
sg44
S'Josh Johnson'
p930
sg46
S'0.0'
p931
sg48
S'W26-20'
p932
sg50
S'2011'
p933
ssg312
(dp934
g5
S'--'
p935
sg7
g312
sg9
S'1.0'
p936
sg11
S'--'
p937
sg13
g527
sg15
S'--'
p938
sg17
S'--'
p939
sg19
S'--'
p940
sg21
S'@NO'
p941
sg23
g527
sg25
S'--'
p942
sg27
S'--'
p943
sg29
g527
sg31
g24
sg32
S'--'
p944
sg34
g24
sg36
S'--'
p945
sg38
S'--'
p946
sg40
S'--'
p947
sg42
S'11/06'
p948
sg44
S'Josh Johnson'
p949
sg46
S'0.0'
p950
sg48
S'L16-27'
p951
sg50
S'2011'
p952
ssg335
(dp953
g5
g337
sg7
g335
sg9
g337
sg11
g337
sg13
g337
sg15
g337
sg17
g337
sg19
g337
sg21
g337
sg23
g337
sg25
g337
sg27
g337
sg29
g337
sg31
g337
sg32
g337
sg34
g337
sg36
g337
sg38
g337
sg40
g337
sg42
S'Bye'
p954
sg44
S'Josh Johnson'
p955
sg46
g337
sg48
g337
sg50
S'2011'
p956
sssS'2010'
p957
(dp958
g3
(dp959
g5
g527
sg7
S'11'
p960
sg9
S'7.0'
p961
sg11
S'100.0'
p962
sg13
g527
sg15
g266
sg17
S'7.0'
p963
sg19
S'--'
p964
sg21
S'@SF'
p965
sg23
g527
sg25
g527
sg27
g24
sg29
g266
sg31
g24
sg32
S'--'
p966
sg34
g24
sg36
g24
sg38
g24
sg40
g24
sg42
S'11/21'
p967
sg44
S'Josh Johnson'
p968
sg46
S'95.8'
p969
sg48
S'W21-0'
p970
sg50
S'2010'
p971
ssg52
(dp972
g5
S'--'
p973
sg7
S'10'
p974
sg9
S'14.0'
p975
sg11
S'--'
p976
sg13
g527
sg15
S'--'
p977
sg17
S'--'
p978
sg19
S'--'
p979
sg21
S'CAR'
p980
sg23
g527
sg25
S'--'
p981
sg27
S'--'
p982
sg29
S'14'
p983
sg31
g24
sg32
S'--'
p984
sg34
g24
sg36
S'--'
p985
sg38
S'--'
p986
sg40
S'--'
p987
sg42
S'11/14'
p988
sg44
S'Josh Johnson'
p989
sg46
S'0.0'
p990
sg48
S'W31-16'
p991
sg50
S'2010'
p992
ssg76
(dp993
g5
S'--'
p994
sg7
S'13'
p995
sg9
S'--'
p996
sg11
S'--'
p997
sg13
S'--'
p998
sg15
S'--'
p999
sg17
S'--'
p1000
sg19
S'--'
p1001
sg21
S'ATL'
p1002
sg23
g527
sg25
S'--'
p1003
sg27
S'--'
p1004
sg29
S'--'
p1005
sg31
g24
sg32
S'--'
p1006
sg34
S'--'
p1007
sg36
S'--'
p1008
sg38
S'--'
p1009
sg40
S'--'
p1010
sg42
S'12/05'
p1011
sg44
S'Josh Johnson'
p1012
sg46
S'0.0'
p1013
sg48
S'L24-28'
p1014
sg50
S'2010'
p1015
ssg100
(dp1016
g5
S'--'
p1017
sg7
S'12'
p1018
sg9
S'--'
p1019
sg11
S'--'
p1020
sg13
S'--'
p1021
sg15
S'--'
p1022
sg17
S'--'
p1023
sg19
S'--'
p1024
sg21
S'@BAL'
p1025
sg23
g527
sg25
S'--'
p1026
sg27
S'--'
p1027
sg29
S'--'
p1028
sg31
g24
sg32
S'--'
p1029
sg34
S'--'
p1030
sg36
S'--'
p1031
sg38
S'--'
p1032
sg40
S'--'
p1033
sg42
S'11/28'
p1034
sg44
S'Josh Johnson'
p1035
sg46
S'0.0'
p1036
sg48
S'L10-17'
p1037
sg50
S'2010'
p1038
ssg124
(dp1039
g5
g527
sg7
S'15'
p1040
sg9
S'--'
p1041
sg11
S'100.0'
p1042
sg13
S'--'
p1043
sg15
g527
sg17
S'1.0'
p1044
sg19
S'--'
p1045
sg21
S'DET'
p1046
sg23
g527
sg25
g527
sg27
g24
sg29
S'--'
p1047
sg31
g24
sg32
S'--'
p1048
sg34
S'--'
p1049
sg36
g24
sg38
g24
sg40
g24
sg42
S'12/19'
p1050
sg44
S'Josh Johnson'
p1051
sg46
S'79.2'
p1052
sg48
S'L20-23'
p1053
sg50
S'2010'
p1054
ssg148
(dp1055
g5
S'--'
p1056
sg7
S'14'
p1057
sg9
S'--'
p1058
sg11
S'--'
p1059
sg13
S'--'
p1060
sg15
S'--'
p1061
sg17
S'--'
p1062
sg19
S'--'
p1063
sg21
S'@WAS'
p1064
sg23
g527
sg25
S'--'
p1065
sg27
S'--'
p1066
sg29
S'--'
p1067
sg31
g24
sg32
S'--'
p1068
sg34
S'--'
p1069
sg36
S'--'
p1070
sg38
S'--'
p1071
sg40
S'--'
p1072
sg42
S'12/12'
p1073
sg44
S'Josh Johnson'
p1074
sg46
S'0.0'
p1075
sg48
S'W17-16'
p1076
sg50
S'2010'
p1077
ssg172
(dp1078
g5
S'--'
p1079
sg7
S'17'
p1080
sg9
S'--'
p1081
sg11
S'--'
p1082
sg13
S'--'
p1083
sg15
S'--'
p1084
sg17
S'--'
p1085
sg19
S'--'
p1086
sg21
S'@NO'
p1087
sg23
g527
sg25
S'--'
p1088
sg27
S'--'
p1089
sg29
S'--'
p1090
sg31
g24
sg32
S'--'
p1091
sg34
S'--'
p1092
sg36
S'--'
p1093
sg38
S'--'
p1094
sg40
S'--'
p1095
sg42
S'01/02'
p1096
sg44
S'Josh Johnson'
p1097
sg46
S'0.0'
p1098
sg48
S'W23-13'
p1099
sg50
S'2010'
p1100
ssg196
(dp1101
g5
g550
sg7
S'16'
p1102
sg9
S'--'
p1103
sg11
S'100.0'
p1104
sg13
S'--'
p1105
sg15
S'15'
p1106
sg17
S'7.5'
p1107
sg19
S'--'
p1108
sg21
S'SEA'
p1109
sg23
g527
sg25
g550
sg27
g24
sg29
S'--'
p1110
sg31
g24
sg32
S'--'
p1111
sg34
S'--'
p1112
sg36
g24
sg38
g24
sg40
g24
sg42
S'12/26'
p1113
sg44
S'Josh Johnson'
p1114
sg46
S'97.9'
p1115
sg48
S'W38-15'
p1116
sg50
S'2010'
p1117
ssg527
(dp1118
g5
S'--'
p1119
sg7
g527
sg9
S'--'
p1120
sg11
S'--'
p1121
sg13
S'--'
p1122
sg15
S'--'
p1123
sg17
S'--'
p1124
sg19
S'--'
p1125
sg21
S'CLE'
p1126
sg23
g24
sg25
S'--'
p1127
sg27
S'--'
p1128
sg29
S'--'
p1129
sg31
g24
sg32
S'--'
p1130
sg34
S'--'
p1131
sg36
S'--'
p1132
sg38
S'--'
p1133
sg40
S'--'
p1134
sg42
S'09/12'
p1135
sg44
S'Josh Johnson'
p1136
sg46
S'0.0'
p1137
sg48
S'W17-14'
p1138
sg50
S'2010'
p1139
ssg745
(dp1140
g5
g289
sg7
g745
sg9
S'7.0'
p1141
sg11
S'100.0'
p1142
sg13
g527
sg15
S'67'
p1143
sg17
S'11.2'
p1144
sg19
S'--'
p1145
sg21
S'PIT'
p1146
sg23
g527
sg25
g289
sg27
g266
sg29
g266
sg31
g24
sg32
S'--'
p1147
sg34
g24
sg36
g24
sg38
g527
sg40
g24
sg42
S'09/26'
p1148
sg44
S'Josh Johnson'
p1149
sg46
S'113.2'
p1150
sg48
S'L13-38'
p1151
sg50
S'2010'
p1152
ssg550
(dp1153
g5
S'--'
p1154
sg7
g550
sg9
S'--'
p1155
sg11
S'--'
p1156
sg13
S'--'
p1157
sg15
S'--'
p1158
sg17
S'--'
p1159
sg19
S'--'
p1160
sg21
S'@CAR'
p1161
sg23
g24
sg25
S'--'
p1162
sg27
S'--'
p1163
sg29
S'--'
p1164
sg31
g24
sg32
S'--'
p1165
sg34
S'--'
p1166
sg36
S'--'
p1167
sg38
S'--'
p1168
sg40
S'--'
p1169
sg42
S'09/19'
p1170
sg44
S'Josh Johnson'
p1171
sg46
S'0.0'
p1172
sg48
S'W20-7'
p1173
sg50
S'2010'
p1174
ssg220
(dp1175
g5
g550
sg7
g220
sg9
S'--'
p1176
sg11
S'100.0'
p1177
sg13
S'--'
p1178
sg15
g243
sg17
S'2.0'
p1179
sg19
S'--'
p1180
sg21
S'@CIN'
p1181
sg23
g527
sg25
g550
sg27
g24
sg29
S'--'
p1182
sg31
g24
sg32
S'--'
p1183
sg34
S'--'
p1184
sg36
g24
sg38
g24
sg40
g24
sg42
S'10/10'
p1185
sg44
S'Josh Johnson'
p1186
sg46
S'79.2'
p1187
sg48
S'W24-21'
p1188
sg50
S'2010'
p1189
ssg243
(dp1190
g5
g337
sg7
g243
sg9
g337
sg11
g337
sg13
g337
sg15
g337
sg17
g337
sg19
g337
sg21
g337
sg23
g337
sg25
g337
sg27
g337
sg29
g337
sg31
g337
sg32
g337
sg34
g337
sg36
g337
sg38
g337
sg40
g337
sg42
S'Bye'
p1191
sg44
S'Josh Johnson'
p1192
sg46
g337
sg48
g337
sg50
S'2010'
p1193
ssg266
(dp1194
g5
S'--'
p1195
sg7
g266
sg9
S'--'
p1196
sg11
S'--'
p1197
sg13
S'--'
p1198
sg15
S'--'
p1199
sg17
S'--'
p1200
sg19
S'--'
p1201
sg21
S'STL'
p1202
sg23
g24
sg25
S'--'
p1203
sg27
S'--'
p1204
sg29
S'--'
p1205
sg31
g24
sg32
S'--'
p1206
sg34
S'--'
p1207
sg36
S'--'
p1208
sg38
S'--'
p1209
sg40
S'--'
p1210
sg42
S'10/24'
p1211
sg44
S'Josh Johnson'
p1212
sg46
S'0.0'
p1213
sg48
S'W18-17'
p1214
sg50
S'2010'
p1215
ssg289
(dp1216
g5
g243
sg7
g289
sg9
S'11.0'
p1217
sg11
S'50.0'
p1218
sg13
g527
sg15
S'17'
p1219
sg17
S'4.3'
p1220
sg19
S'--'
p1221
sg21
S'NO'
p1222
sg23
g527
sg25
g550
sg27
g527
sg29
S'11'
p1223
sg31
g24
sg32
S'--'
p1224
sg34
g24
sg36
g24
sg38
g527
sg40
g24
sg42
S'10/17'
p1225
sg44
S'Josh Johnson'
p1226
sg46
S'61.5'
p1227
sg48
S'L6-31'
p1228
sg50
S'2010'
p1229
ssg312
(dp1230
g5
S'--'
p1231
sg7
g312
sg9
S'--'
p1232
sg11
S'--'
p1233
sg13
S'--'
p1234
sg15
S'--'
p1235
sg17
S'--'
p1236
sg19
S'--'
p1237
sg21
S'@ATL'
p1238
sg23
g24
sg25
S'--'
p1239
sg27
S'--'
p1240
sg29
S'--'
p1241
sg31
g24
sg32
S'--'
p1242
sg34
S'--'
p1243
sg36
S'--'
p1244
sg38
S'--'
p1245
sg40
S'--'
p1246
sg42
S'11/07'
p1247
sg44
S'Josh Johnson'
p1248
sg46
S'0.0'
p1249
sg48
S'L21-27'
p1250
sg50
S'2010'
p1251
ssg335
(dp1252
g5
S'--'
p1253
sg7
g335
sg9
S'--'
p1254
sg11
S'--'
p1255
sg13
S'--'
p1256
sg15
S'--'
p1257
sg17
S'--'
p1258
sg19
S'--'
p1259
sg21
S'@ARI'
p1260
sg23
g24
sg25
S'--'
p1261
sg27
S'--'
p1262
sg29
S'--'
p1263
sg31
g24
sg32
S'--'
p1264
sg34
S'--'
p1265
sg36
S'--'
p1266
sg38
S'--'
p1267
sg40
S'--'
p1268
sg42
S'10/31'
p1269
sg44
S'Josh Johnson'
p1270
sg46
S'0.0'
p1271
sg48
S'W38-35'
p1272
sg50
S'2010'
p1273
sssS'2013'
p1274
(dp1275
g3
(dp1276
g5
S'--'
p1277
sg7
S'11'
p1278
sg9
S'--'
p1279
sg11
S'--'
p1280
sg13
S'--'
p1281
sg15
S'--'
p1282
sg17
S'--'
p1283
sg19
S'--'
p1284
sg21
S'CLE'
p1285
sg23
g24
sg25
S'--'
p1286
sg27
S'--'
p1287
sg29
S'--'
p1288
sg31
g24
sg32
S'--'
p1289
sg34
S'--'
p1290
sg36
S'--'
p1291
sg38
S'--'
p1292
sg40
S'--'
p1293
sg42
S'11/17'
p1294
sg44
S'Josh Johnson'
p1295
sg46
S'0.0'
p1296
sg48
S'W41-20'
p1297
sg50
S'2013'
p1298
ssg52
(dp1299
g5
S'--'
p1300
sg7
S'10'
p1301
sg9
S'--'
p1302
sg11
S'--'
p1303
sg13
S'--'
p1304
sg15
S'--'
p1305
sg17
S'--'
p1306
sg19
S'--'
p1307
sg21
S'@BAL'
p1308
sg23
g24
sg25
S'--'
p1309
sg27
S'--'
p1310
sg29
S'--'
p1311
sg31
g24
sg32
S'--'
p1312
sg34
S'--'
p1313
sg36
S'--'
p1314
sg38
S'--'
p1315
sg40
S'--'
p1316
sg42
S'11/10'
p1317
sg44
S'Josh Johnson'
p1318
sg46
S'0.0'
p1319
sg48
S'L17-20'
p1320
sg50
S'2013'
p1321
ssg76
(dp1322
g5
S'--'
p1323
sg7
S'13'
p1324
sg9
S'--'
p1325
sg11
S'--'
p1326
sg13
S'--'
p1327
sg15
S'--'
p1328
sg17
S'--'
p1329
sg19
S'--'
p1330
sg21
S'@SD'
p1331
sg23
g24
sg25
S'--'
p1332
sg27
S'--'
p1333
sg29
S'--'
p1334
sg31
g24
sg32
S'--'
p1335
sg34
S'--'
p1336
sg36
S'--'
p1337
sg38
S'--'
p1338
sg40
S'--'
p1339
sg42
S'12/01'
p1340
sg44
S'Josh Johnson'
p1341
sg46
S'0.0'
p1342
sg48
S'W17-10'
p1343
sg50
S'2013'
p1344
ssg100
(dp1345
g5
g337
sg7
S'12'
p1346
sg9
g337
sg11
g337
sg13
g337
sg15
g337
sg17
g337
sg19
g337
sg21
g337
sg23
g337
sg25
g337
sg27
g337
sg29
g337
sg31
g337
sg32
g337
sg34
g337
sg36
g337
sg38
g337
sg40
g337
sg42
S'Bye'
p1347
sg44
S'Josh Johnson'
p1348
sg46
g337
sg48
g337
sg50
S'2013'
p1349
ssg124
(dp1350
g5
S'--'
p1351
sg7
S'15'
p1352
sg9
S'--'
p1353
sg11
S'--'
p1354
sg13
S'--'
p1355
sg15
S'--'
p1356
sg17
S'--'
p1357
sg19
S'--'
p1358
sg21
S'@PIT'
p1359
sg23
g24
sg25
S'--'
p1360
sg27
S'--'
p1361
sg29
S'--'
p1362
sg31
g24
sg32
S'--'
p1363
sg34
S'--'
p1364
sg36
S'--'
p1365
sg38
S'--'
p1366
sg40
S'--'
p1367
sg42
S'12/15'
p1368
sg44
S'Josh Johnson'
p1369
sg46
S'0.0'
p1370
sg48
S'L20-30'
p1371
sg50
S'2013'
p1372
ssg148
(dp1373
g5
S'--'
p1374
sg7
S'14'
p1375
sg9
S'--'
p1376
sg11
S'--'
p1377
sg13
S'--'
p1378
sg15
S'--'
p1379
sg17
S'--'
p1380
sg19
S'--'
p1381
sg21
S'IND'
p1382
sg23
g24
sg25
S'--'
p1383
sg27
S'--'
p1384
sg29
S'--'
p1385
sg31
g24
sg32
S'--'
p1386
sg34
S'--'
p1387
sg36
S'--'
p1388
sg38
S'--'
p1389
sg40
S'--'
p1390
sg42
S'12/08'
p1391
sg44
S'Josh Johnson'
p1392
sg46
S'0.0'
p1393
sg48
S'W42-28'
p1394
sg50
S'2013'
p1395
ssg172
(dp1396
g5
S'--'
p1397
sg7
S'17'
p1398
sg9
S'--'
p1399
sg11
S'--'
p1400
sg13
S'--'
p1401
sg15
S'--'
p1402
sg17
S'--'
p1403
sg19
S'--'
p1404
sg21
S'BAL'
p1405
sg23
g24
sg25
S'--'
p1406
sg27
S'--'
p1407
sg29
S'--'
p1408
sg31
g24
sg32
S'--'
p1409
sg34
S'--'
p1410
sg36
S'--'
p1411
sg38
S'--'
p1412
sg40
S'--'
p1413
sg42
S'12/29'
p1414
sg44
S'Josh Johnson'
p1415
sg46
S'0.0'
p1416
sg48
S'W34-17'
p1417
sg50
S'2013'
p1418
ssg196
(dp1419
g5
S'--'
p1420
sg7
S'16'
p1421
sg9
S'0.8'
p1422
sg11
S'--'
p1423
sg13
g243
sg15
S'--'
p1424
sg17
S'--'
p1425
sg19
S'--'
p1426
sg21
S'MIN'
p1427
sg23
g527
sg25
S'--'
p1428
sg27
S'--'
p1429
sg29
g745
sg31
g24
sg32
S'--'
p1430
sg34
g24
sg36
S'--'
p1431
sg38
S'--'
p1432
sg40
S'--'
p1433
sg42
S'12/22'
p1434
sg44
S'Josh Johnson'
p1435
sg46
S'0.0'
p1436
sg48
S'W42-14'
p1437
sg50
S'2013'
p1438
ssg527
(dp1439
g5
S'--'
p1440
sg7
g527
sg9
S'--'
p1441
sg11
S'--'
p1442
sg13
S'--'
p1443
sg15
S'--'
p1444
sg17
S'--'
p1445
sg19
S'--'
p1446
sg21
S'@CHI'
p1447
sg23
g24
sg25
S'--'
p1448
sg27
S'--'
p1449
sg29
S'--'
p1450
sg31
g24
sg32
S'--'
p1451
sg34
S'--'
p1452
sg36
S'--'
p1453
sg38
S'--'
p1454
sg40
S'--'
p1455
sg42
S'09/08'
p1456
sg44
S'Josh Johnson'
p1457
sg46
S'0.0'
p1458
sg48
S'L21-24'
p1459
sg50
S'2013'
p1460
ssg745
(dp1461
g5
S'--'
p1462
sg7
g745
sg9
S'--'
p1463
sg11
S'--'
p1464
sg13
S'--'
p1465
sg15
S'--'
p1466
sg17
S'--'
p1467
sg19
S'--'
p1468
sg21
S'GB'
p1469
sg23
g24
sg25
S'--'
p1470
sg27
S'--'
p1471
sg29
S'--'
p1472
sg31
g24
sg32
S'--'
p1473
sg34
S'--'
p1474
sg36
S'--'
p1475
sg38
S'--'
p1476
sg40
S'--'
p1477
sg42
S'09/22'
p1478
sg44
S'Josh Johnson'
p1479
sg46
S'0.0'
p1480
sg48
S'W34-30'
p1481
sg50
S'2013'
p1482
ssg550
(dp1483
g5
S'--'
p1484
sg7
g550
sg9
S'--'
p1485
sg11
S'--'
p1486
sg13
S'--'
p1487
sg15
S'--'
p1488
sg17
S'--'
p1489
sg19
S'--'
p1490
sg21
S'PIT'
p1491
sg23
g24
sg25
S'--'
p1492
sg27
S'--'
p1493
sg29
S'--'
p1494
sg31
g24
sg32
S'--'
p1495
sg34
S'--'
p1496
sg36
S'--'
p1497
sg38
S'--'
p1498
sg40
S'--'
p1499
sg42
S'09/16'
p1500
sg44
S'Josh Johnson'
p1501
sg46
S'0.0'
p1502
sg48
S'W20-10'
p1503
sg50
S'2013'
p1504
ssg220
(dp1505
g5
S'--'
p1506
sg7
g220
sg9
S'--'
p1507
sg11
S'--'
p1508
sg13
S'--'
p1509
sg15
S'--'
p1510
sg17
S'--'
p1511
sg19
S'--'
p1512
sg21
S'NE'
p1513
sg23
g24
sg25
S'--'
p1514
sg27
S'--'
p1515
sg29
S'--'
p1516
sg31
g24
sg32
S'--'
p1517
sg34
S'--'
p1518
sg36
S'--'
p1519
sg38
S'--'
p1520
sg40
S'--'
p1521
sg42
S'10/06'
p1522
sg44
S'Josh Johnson'
p1523
sg46
S'0.0'
p1524
sg48
S'W13-6'
p1525
sg50
S'2013'
p1526
ssg243
(dp1527
g5
S'--'
p1528
sg7
g243
sg9
S'--'
p1529
sg11
S'--'
p1530
sg13
S'--'
p1531
sg15
S'--'
p1532
sg17
S'--'
p1533
sg19
S'--'
p1534
sg21
S'@CLE'
p1535
sg23
g24
sg25
S'--'
p1536
sg27
S'--'
p1537
sg29
S'--'
p1538
sg31
g24
sg32
S'--'
p1539
sg34
S'--'
p1540
sg36
S'--'
p1541
sg38
S'--'
p1542
sg40
S'--'
p1543
sg42
S'09/29'
p1544
sg44
S'Josh Johnson'
p1545
sg46
S'0.0'
p1546
sg48
S'L6-17'
p1547
sg50
S'2013'
p1548
ssg266
(dp1549
g5
S'--'
p1550
sg7
g266
sg9
S'--'
p1551
sg11
S'--'
p1552
sg13
S'--'
p1553
sg15
S'--'
p1554
sg17
S'--'
p1555
sg19
S'--'
p1556
sg21
S'@DET'
p1557
sg23
g24
sg25
S'--'
p1558
sg27
S'--'
p1559
sg29
S'--'
p1560
sg31
g24
sg32
S'--'
p1561
sg34
S'--'
p1562
sg36
S'--'
p1563
sg38
S'--'
p1564
sg40
S'--'
p1565
sg42
S'10/20'
p1566
sg44
S'Josh Johnson'
p1567
sg46
S'0.0'
p1568
sg48
S'W27-24'
p1569
sg50
S'2013'
p1570
ssg289
(dp1571
g5
S'--'
p1572
sg7
g289
sg9
S'--'
p1573
sg11
S'--'
p1574
sg13
S'--'
p1575
sg15
S'--'
p1576
sg17
S'--'
p1577
sg19
S'--'
p1578
sg21
S'@BUF'
p1579
sg23
g24
sg25
S'--'
p1580
sg27
S'--'
p1581
sg29
S'--'
p1582
sg31
g24
sg32
S'--'
p1583
sg34
S'--'
p1584
sg36
S'--'
p1585
sg38
S'--'
p1586
sg40
S'--'
p1587
sg42
S'10/13'
p1588
sg44
S'Josh Johnson'
p1589
sg46
S'0.0'
p1590
sg48
S'W27-24'
p1591
sg50
S'2013'
p1592
ssg312
(dp1593
g5
S'--'
p1594
sg7
g312
sg9
S'--'
p1595
sg11
S'--'
p1596
sg13
S'--'
p1597
sg15
S'--'
p1598
sg17
S'--'
p1599
sg19
S'--'
p1600
sg21
S'@MIA'
p1601
sg23
g24
sg25
S'--'
p1602
sg27
S'--'
p1603
sg29
S'--'
p1604
sg31
g24
sg32
S'--'
p1605
sg34
S'--'
p1606
sg36
S'--'
p1607
sg38
S'--'
p1608
sg40
S'--'
p1609
sg42
S'10/31'
p1610
sg44
S'Josh Johnson'
p1611
sg46
S'0.0'
p1612
sg48
S'L20-22'
p1613
sg50
S'2013'
p1614
ssg335
(dp1615
g5
S'--'
p1616
sg7
g335
sg9
S'5.7'
p1617
sg11
S'--'
p1618
sg13
g745
sg15
S'--'
p1619
sg17
S'--'
p1620
sg19
g527
sg21
S'NYJ'
p1621
sg23
g527
sg25
S'--'
p1622
sg27
S'--'
p1623
sg29
S'17'
p1624
sg31
g24
sg32
g24
sg34
g24
sg36
S'--'
p1625
sg38
S'--'
p1626
sg40
S'--'
p1627
sg42
S'10/27'
p1628
sg44
S'Josh Johnson'
p1629
sg46
S'0.0'
p1630
sg48
S'W49-9'
p1631
sg50
S'2013'
p1632
sssS'2012'
p1633
(dp1634
g172
(dp1635
g5
g24
sg7
S'17'
p1636
sg9
S'--'
p1637
sg11
S'--'
p1638
sg13
S'--'
p1639
sg15
g24
sg17
S'--'
p1640
sg19
g527
sg21
S'@PIT'
p1641
sg23
g527
sg25
g24
sg27
g335
sg29
S'--'
p1642
sg31
g24
sg32
g527
sg34
S'--'
p1643
sg36
g24
sg38
g527
sg40
g24
sg42
S'12/30'
p1644
sg44
S'Josh Johnson'
p1645
sg46
S'0.0'
p1646
sg48
S'L10-24'
p1647
sg50
S'2012'
p1648
sss.