(dp0
S'2015'
p1
(dp2
S'11'
p3
(dp4
S'PassAtt'
p5
S''
p6
sS'WK'
p7
S'11'
p8
sS'RushAvg'
p9
g6
sS'Pct'
p10
g6
sS'RushAtt'
p11
g6
sS'PassYds'
p12
g6
sS'PassAvg'
p13
g6
sS'FUM'
p14
g6
sS'Opp'
p15
g6
sS'G'
p16
g6
sS'Comp'
p17
g6
sS'SckY'
p18
g6
sS'RushYds'
p19
g6
sS'GS'
p20
g6
sS'Lost'
p21
g6
sS'RushTD'
p22
g6
sS'PassTD'
p23
g6
sS'Sck'
p24
g6
sS'Int'
p25
g6
sS'Game Date'
p26
S'Bye'
p27
sS'Player'
p28
S'Josh McCown'
p29
sS'Rate'
p30
g6
sS'Result'
p31
g6
sS'Year'
p32
S'2015'
p33
ssS'10'
p34
(dp35
g5
S'--'
p36
sg7
S'10'
p37
sg9
S'--'
p38
sg10
S'--'
p39
sg11
S'--'
p40
sg12
S'--'
p41
sg13
S'--'
p42
sg14
S'--'
p43
sg15
S'@PIT'
p44
sg16
S'0'
p45
sg17
S'--'
p46
sg18
S'--'
p47
sg19
S'--'
p48
sg20
g45
sg21
S'--'
p49
sg22
S'--'
p50
sg23
S'--'
p51
sg24
S'--'
p52
sg25
S'--'
p53
sg26
S'11/15'
p54
sg28
S'Josh McCown'
p55
sg30
S'0.0'
p56
sg31
S'L9-30'
p57
sg32
S'2015'
p58
ssS'12'
p59
(dp60
g5
S'38'
p61
sg7
S'12'
p62
sg9
S'6.0'
p63
sg10
S'55.3'
p64
sg11
S'2'
p65
sg12
S'212'
p66
sg13
S'5.6'
p67
sg14
S'--'
p68
sg15
S'BAL'
p69
sg16
S'1'
p70
sg17
S'21'
p71
sg18
S'6'
p72
sg19
S'12'
p73
sg20
g70
sg21
S'--'
p74
sg22
g45
sg23
g70
sg24
g70
sg25
g45
sg26
S'11/30'
p75
sg28
S'Josh McCown'
p76
sg30
S'80.2'
p77
sg31
S'L27-33'
p78
sg32
S'2015'
p79
ssg70
(dp80
g5
S'8'
p81
sg7
g70
sg9
S'7.7'
p82
sg10
S'62.5'
p83
sg11
S'3'
p84
sg12
S'49'
p85
sg13
S'6.1'
p86
sg14
g70
sg15
S'@NYJ'
p87
sg16
g70
sg17
S'5'
p88
sg18
g45
sg19
S'23'
p89
sg20
g70
sg21
g70
sg22
g45
sg23
g45
sg24
g45
sg25
g45
sg26
S'09/13'
p90
sg28
S'Josh McCown'
p91
sg30
S'79.7'
p92
sg31
S'L10-31'
p93
sg32
S'2015'
p94
ssg84
(dp95
g5
S'49'
p96
sg7
g84
sg9
S'--'
p97
sg10
S'57.1'
p98
sg11
S'--'
p99
sg12
S'341'
p100
sg13
S'7.0'
p101
sg14
g70
sg15
S'OAK'
p102
sg16
g70
sg17
S'28'
p103
sg18
S'25'
p104
sg19
S'--'
p105
sg20
g70
sg21
g45
sg22
S'--'
p106
sg23
g65
sg24
g88
sg25
g70
sg26
S'09/27'
p107
sg28
S'Josh McCown'
p108
sg30
S'83.8'
p109
sg31
S'L20-27'
p110
sg32
S'2015'
p111
ssg65
(dp112
g5
S'--'
p113
sg7
g65
sg9
S'--'
p114
sg10
S'--'
p115
sg11
S'--'
p116
sg12
S'--'
p117
sg13
S'--'
p118
sg14
S'--'
p119
sg15
S'TEN'
p120
sg16
g45
sg17
S'--'
p121
sg18
S'--'
p122
sg19
S'--'
p123
sg20
g45
sg21
S'--'
p124
sg22
S'--'
p125
sg23
S'--'
p126
sg24
S'--'
p127
sg25
S'--'
p128
sg26
S'09/20'
p129
sg28
S'Josh McCown'
p130
sg30
S'0.0'
p131
sg31
S'W28-14'
p132
sg32
S'2015'
p133
ssg88
(dp134
g5
S'51'
p135
sg7
g88
sg9
S'4.0'
p136
sg10
S'70.6'
p137
sg11
g84
sg12
S'457'
p138
sg13
S'9.0'
p139
sg14
S'--'
p140
sg15
S'@BAL'
p141
sg16
g70
sg17
S'36'
p142
sg18
S'35'
p143
sg19
S'12'
p144
sg20
g70
sg21
S'--'
p145
sg22
g70
sg23
g65
sg24
S'4'
p146
sg25
g45
sg26
S'10/11'
p147
sg28
S'Josh McCown'
p148
sg30
S'111.3'
p149
sg31
S'W33-30'
p150
sg32
S'2015'
p151
ssg146
(dp152
g5
S'41'
p153
sg7
g146
sg9
S'--'
p154
sg10
S'78.0'
p155
sg11
S'--'
p156
sg12
S'356'
p157
sg13
S'8.7'
p158
sg14
g70
sg15
S'@SD'
p159
sg16
g70
sg17
S'32'
p160
sg18
S'24'
p161
sg19
S'--'
p162
sg20
g70
sg21
g70
sg22
S'--'
p163
sg23
g65
sg24
g146
sg25
g45
sg26
S'10/04'
p164
sg28
S'Josh McCown'
p165
sg30
S'119.1'
p166
sg31
S'L27-30'
p167
sg32
S'2015'
p168
ssS'7'
p169
(dp170
g5
S'32'
p171
sg7
g169
sg9
S'5.3'
p172
sg10
S'81.3'
p173
sg11
g146
sg12
S'270'
p174
sg13
S'8.4'
p175
sg14
g65
sg15
S'@STL'
p176
sg16
g70
sg17
S'26'
p177
sg18
S'15'
p178
sg19
S'21'
p179
sg20
g70
sg21
g65
sg22
g45
sg23
g45
sg24
g146
sg25
g45
sg26
S'10/25'
p180
sg28
S'Josh McCown'
p181
sg30
S'101.8'
p182
sg31
S'L6-24'
p183
sg32
S'2015'
p184
ssg72
(dp185
g5
S'39'
p186
sg7
g72
sg9
S'4.0'
p187
sg10
S'51.3'
p188
sg11
g84
sg12
S'213'
p189
sg13
S'5.5'
p190
sg14
g70
sg15
S'DEN'
p191
sg16
g70
sg17
S'20'
p192
sg18
S'24'
p193
sg19
S'12'
p194
sg20
g70
sg21
g70
sg22
g45
sg23
g65
sg24
g146
sg25
g65
sg26
S'10/18'
p195
sg28
S'Josh McCown'
p196
sg30
S'63.3'
p197
sg31
S'L23-26'
p198
sg32
S'2015'
p199
ssS'9'
p200
(dp201
g5
S'--'
p202
sg7
g200
sg9
S'--'
p203
sg10
S'--'
p204
sg11
S'--'
p205
sg12
S'--'
p206
sg13
S'--'
p207
sg14
S'--'
p208
sg15
S'@CIN'
p209
sg16
g45
sg17
S'--'
p210
sg18
S'--'
p211
sg19
S'--'
p212
sg20
g45
sg21
S'--'
p213
sg22
S'--'
p214
sg23
S'--'
p215
sg24
S'--'
p216
sg25
S'--'
p217
sg26
S'11/05'
p218
sg28
S'Josh McCown'
p219
sg30
S'0.0'
p220
sg31
S'L10-31'
p221
sg32
S'2015'
p222
ssg81
(dp223
g5
S'34'
p224
sg7
g81
sg9
S'3.6'
p225
sg10
S'52.9'
p226
sg11
g88
sg12
S'211'
p227
sg13
S'6.2'
p228
sg14
g84
sg15
S'ARI'
p229
sg16
g70
sg17
S'18'
p230
sg18
g81
sg19
S'18'
p231
sg20
g70
sg21
g70
sg22
g45
sg23
g84
sg24
g70
sg25
g70
sg26
S'11/01'
p232
sg28
S'Josh McCown'
p233
sg30
S'89.2'
p234
sg31
S'L20-34'
p235
sg32
S'2015'
p236
sssS'2014'
p237
(dp238
g3
(dp239
g5
S'23'
p240
sg7
S'11'
p241
sg9
S'2.7'
p242
sg10
S'65.2'
p243
sg11
g84
sg12
S'288'
p244
sg13
S'12.5'
p245
sg14
g70
sg15
S'@WAS'
p246
sg16
g70
sg17
S'15'
p247
sg18
g169
sg19
g81
sg20
g70
sg21
g45
sg22
g45
sg23
g65
sg24
g65
sg25
g45
sg26
S'11/16'
p248
sg28
S'Josh McCown'
p249
sg30
S'137.5'
p250
sg31
S'W27-7'
p251
sg32
S'2014'
p252
ssg34
(dp253
g5
S'43'
p254
sg7
S'10'
p255
sg9
S'7.8'
p256
sg10
S'62.8'
p257
sg11
g88
sg12
S'301'
p258
sg13
S'7.0'
p259
sg14
S'--'
p260
sg15
S'ATL'
p261
sg16
g70
sg17
S'27'
p262
sg18
S'20'
p263
sg19
S'39'
p264
sg20
g70
sg21
S'--'
p265
sg22
g45
sg23
g65
sg24
g146
sg25
g65
sg26
S'11/09'
p266
sg28
S'Josh McCown'
p267
sg30
S'79.7'
p268
sg31
S'L17-27'
p269
sg32
S'2014'
p270
ssS'13'
p271
(dp272
g5
S'29'
p273
sg7
S'13'
p274
sg9
S'0.0'
p275
sg10
S'51.7'
p276
sg11
g70
sg12
S'190'
p277
sg13
S'6.6'
p278
sg14
S'--'
p279
sg15
S'CIN'
p280
sg16
g70
sg17
S'15'
p281
sg18
g65
sg19
g45
sg20
g70
sg21
S'--'
p282
sg22
g45
sg23
g45
sg24
g70
sg25
g70
sg26
S'11/30'
p283
sg28
S'Josh McCown'
p284
sg30
S'58.1'
p285
sg31
S'L13-14'
p286
sg32
S'2014'
p287
ssg59
(dp288
g5
S'48'
p289
sg7
S'12'
p290
sg9
S'4.0'
p291
sg10
S'52.1'
p292
sg11
g84
sg12
S'341'
p293
sg13
S'7.1'
p294
sg14
g65
sg15
S'@CHI'
p295
sg16
g70
sg17
S'25'
p296
sg18
S'40'
p297
sg19
S'12'
p298
sg20
g70
sg21
g70
sg22
g45
sg23
g70
sg24
g88
sg25
g65
sg26
S'11/23'
p299
sg28
S'Josh McCown'
p300
sg30
S'64.7'
p301
sg31
S'L13-21'
p302
sg32
S'2014'
p303
ssS'15'
p304
(dp305
g5
S'28'
p306
sg7
S'15'
p307
sg9
S'10.5'
p308
sg10
S'46.4'
p309
sg11
g65
sg12
S'154'
p310
sg13
S'5.5'
p311
sg14
g84
sg15
S'@CAR'
p312
sg16
g70
sg17
S'13'
p313
sg18
S'18'
p314
sg19
S'21'
p315
sg20
g70
sg21
g65
sg22
g70
sg23
g70
sg24
g84
sg25
g70
sg26
S'12/14'
p316
sg28
S'Josh McCown'
p317
sg30
S'60.7'
p318
sg31
S'L17-19'
p319
sg32
S'2014'
p320
ssS'14'
p321
(dp322
g5
S'39'
p323
sg7
S'14'
p324
sg9
S'2.0'
p325
sg10
S'51.3'
p326
sg11
g146
sg12
S'250'
p327
sg13
S'6.4'
p328
sg14
g70
sg15
S'@DET'
p329
sg16
g70
sg17
S'20'
p330
sg18
S'43'
p331
sg19
g81
sg20
g70
sg21
g70
sg22
g45
sg23
g65
sg24
g72
sg25
g65
sg26
S'12/07'
p332
sg28
S'Josh McCown'
p333
sg30
S'67.3'
p334
sg31
S'L17-34'
p335
sg32
S'2014'
p336
ssS'17'
p337
(dp338
g5
S'23'
p339
sg7
S'17'
p340
sg9
S'3.0'
p341
sg10
S'60.9'
p342
sg11
g65
sg12
S'115'
p343
sg13
S'5.0'
p344
sg14
S'--'
p345
sg15
S'NO'
p346
sg16
g70
sg17
S'14'
p347
sg18
S'18'
p348
sg19
g72
sg20
g70
sg21
S'--'
p349
sg22
g45
sg23
g70
sg24
g84
sg25
g70
sg26
S'12/28'
p350
sg28
S'Josh McCown'
p351
sg30
S'70.0'
p352
sg31
S'L20-23'
p353
sg32
S'2014'
p354
ssS'16'
p355
(dp356
g5
S'26'
p357
sg7
S'16'
p358
sg9
S'--'
p359
sg10
S'46.2'
p360
sg11
S'--'
p361
sg12
S'147'
p362
sg13
S'5.7'
p363
sg14
g70
sg15
S'GB'
p364
sg16
g70
sg17
S'12'
p365
sg18
S'54'
p366
sg19
S'--'
p367
sg20
g70
sg21
g45
sg22
S'--'
p368
sg23
g45
sg24
g169
sg25
g70
sg26
S'12/21'
p369
sg28
S'Josh McCown'
p370
sg30
S'48.1'
p371
sg31
S'L3-20'
p372
sg32
S'2014'
p373
ssg70
(dp374
g5
S'35'
p375
sg7
g70
sg9
S'9.0'
p376
sg10
S'62.9'
p377
sg11
g84
sg12
S'183'
p378
sg13
S'5.2'
p379
sg14
g65
sg15
S'CAR'
p380
sg16
g70
sg17
S'22'
p381
sg18
S'21'
p382
sg19
S'27'
p383
sg20
g70
sg21
g45
sg22
g45
sg23
g65
sg24
g84
sg25
g65
sg26
S'09/07'
p384
sg28
S'Josh McCown'
p385
sg30
S'71.5'
p386
sg31
S'L14-20'
p387
sg32
S'2014'
p388
ssg84
(dp389
g5
S'12'
p390
sg7
g84
sg9
S'--'
p391
sg10
S'41.7'
p392
sg11
S'--'
p393
sg12
S'58'
p394
sg13
S'4.8'
p395
sg14
S'--'
p396
sg15
S'@ATL'
p397
sg16
g70
sg17
g88
sg18
g81
sg19
S'--'
p398
sg20
g70
sg21
S'--'
p399
sg22
S'--'
p400
sg23
g45
sg24
g70
sg25
g70
sg26
S'09/18'
p401
sg28
S'Josh McCown'
p402
sg30
S'22.2'
p403
sg31
S'L14-56'
p404
sg32
S'2014'
p405
ssg65
(dp406
g5
S'21'
p407
sg7
g65
sg9
S'3.0'
p408
sg10
S'76.2'
p409
sg11
g65
sg12
S'179'
p410
sg13
S'8.5'
p411
sg14
S'--'
p412
sg15
S'STL'
p413
sg16
g70
sg17
S'16'
p414
sg18
g146
sg19
g72
sg20
g70
sg21
S'--'
p415
sg22
g65
sg23
g45
sg24
g70
sg25
g70
sg26
S'09/14'
p416
sg28
S'Josh McCown'
p417
sg30
S'81.2'
p418
sg31
S'L17-19'
p419
sg32
S'2014'
p420
ssg88
(dp421
g5
S'--'
p422
sg7
g88
sg9
S'--'
p423
sg10
S'--'
p424
sg11
S'--'
p425
sg12
S'--'
p426
sg13
S'--'
p427
sg14
S'--'
p428
sg15
S'@NO'
p429
sg16
g45
sg17
S'--'
p430
sg18
S'--'
p431
sg19
S'--'
p432
sg20
g45
sg21
S'--'
p433
sg22
S'--'
p434
sg23
S'--'
p435
sg24
S'--'
p436
sg25
S'--'
p437
sg26
S'10/05'
p438
sg28
S'Josh McCown'
p439
sg30
S'0.0'
p440
sg31
S'L31-37'
p441
sg32
S'2014'
p442
ssg146
(dp443
g5
S'--'
p444
sg7
g146
sg9
S'--'
p445
sg10
S'--'
p446
sg11
S'--'
p447
sg12
S'--'
p448
sg13
S'--'
p449
sg14
S'--'
p450
sg15
S'@PIT'
p451
sg16
g45
sg17
S'--'
p452
sg18
S'--'
p453
sg19
S'--'
p454
sg20
g45
sg21
S'--'
p455
sg22
S'--'
p456
sg23
S'--'
p457
sg24
S'--'
p458
sg25
S'--'
p459
sg26
S'09/28'
p460
sg28
S'Josh McCown'
p461
sg30
S'0.0'
p462
sg31
S'W27-24'
p463
sg32
S'2014'
p464
ssg169
(dp465
g5
g6
sg7
g169
sg9
g6
sg10
g6
sg11
g6
sg12
g6
sg13
g6
sg14
g6
sg15
g6
sg16
g6
sg17
g6
sg18
g6
sg19
g6
sg20
g6
sg21
g6
sg22
g6
sg23
g6
sg24
g6
sg25
g6
sg26
S'Bye'
p466
sg28
S'Josh McCown'
p467
sg30
g6
sg31
g6
sg32
S'2014'
p468
ssg72
(dp469
g5
S'--'
p470
sg7
g72
sg9
S'--'
p471
sg10
S'--'
p472
sg11
S'--'
p473
sg12
S'--'
p474
sg13
S'--'
p475
sg14
S'--'
p476
sg15
S'BAL'
p477
sg16
g45
sg17
S'--'
p478
sg18
S'--'
p479
sg19
S'--'
p480
sg20
g45
sg21
S'--'
p481
sg22
S'--'
p482
sg23
S'--'
p483
sg24
S'--'
p484
sg25
S'--'
p485
sg26
S'10/12'
p486
sg28
S'Josh McCown'
p487
sg30
S'0.0'
p488
sg31
S'L17-48'
p489
sg32
S'2014'
p490
ssg200
(dp491
g5
S'--'
p492
sg7
g200
sg9
S'--'
p493
sg10
S'--'
p494
sg11
S'--'
p495
sg12
S'--'
p496
sg13
S'--'
p497
sg14
S'--'
p498
sg15
S'@CLE'
p499
sg16
g45
sg17
S'--'
p500
sg18
S'--'
p501
sg19
S'--'
p502
sg20
g45
sg21
S'--'
p503
sg22
S'--'
p504
sg23
S'--'
p505
sg24
S'--'
p506
sg25
S'--'
p507
sg26
S'11/02'
p508
sg28
S'Josh McCown'
p509
sg30
S'0.0'
p510
sg31
S'L17-22'
p511
sg32
S'2014'
p512
ssg81
(dp513
g5
S'--'
p514
sg7
g81
sg9
S'--'
p515
sg10
S'--'
p516
sg11
S'--'
p517
sg12
S'--'
p518
sg13
S'--'
p519
sg14
S'--'
p520
sg15
S'MIN'
p521
sg16
g45
sg17
S'--'
p522
sg18
S'--'
p523
sg19
S'--'
p524
sg20
g45
sg21
S'--'
p525
sg22
S'--'
p526
sg23
S'--'
p527
sg24
S'--'
p528
sg25
S'--'
p529
sg26
S'10/26'
p530
sg28
S'Josh McCown'
p531
sg30
S'0.0'
p532
sg31
S'L13-19'
p533
sg32
S'2014'
p534
sssS'2011'
p535
(dp536
g271
(dp537
g5
S'--'
p538
sg7
S'13'
p539
sg9
S'--'
p540
sg10
S'--'
p541
sg11
S'--'
p542
sg12
S'--'
p543
sg13
S'--'
p544
sg14
S'--'
p545
sg15
S'KC'
p546
sg16
g45
sg17
S'--'
p547
sg18
S'--'
p548
sg19
S'--'
p549
sg20
g45
sg21
S'--'
p550
sg22
S'--'
p551
sg23
S'--'
p552
sg24
S'--'
p553
sg25
S'--'
p554
sg26
S'12/04'
p555
sg28
S'Josh McCown'
p556
sg30
S'0.0'
p557
sg31
S'L3-10'
p558
sg32
S'2011'
p559
ssg59
(dp560
g5
S'--'
p561
sg7
S'12'
p562
sg9
S'--'
p563
sg10
S'--'
p564
sg11
S'--'
p565
sg12
S'--'
p566
sg13
S'--'
p567
sg14
S'--'
p568
sg15
S'@OAK'
p569
sg16
g45
sg17
S'--'
p570
sg18
S'--'
p571
sg19
S'--'
p572
sg20
g45
sg21
S'--'
p573
sg22
S'--'
p574
sg23
S'--'
p575
sg24
S'--'
p576
sg25
S'--'
p577
sg26
S'11/27'
p578
sg28
S'Josh McCown'
p579
sg30
S'0.0'
p580
sg31
S'L20-25'
p581
sg32
S'2011'
p582
ssg304
(dp583
g5
g65
sg7
S'15'
p584
sg9
S'--'
p585
sg10
S'50.0'
p586
sg11
S'--'
p587
sg12
S'12'
p588
sg13
S'6.0'
p589
sg14
S'--'
p590
sg15
S'SEA'
p591
sg16
g70
sg17
g70
sg18
g45
sg19
S'--'
p592
sg20
g45
sg21
S'--'
p593
sg22
S'--'
p594
sg23
g45
sg24
g45
sg25
g70
sg26
S'12/18'
p595
sg28
S'Josh McCown'
p596
sg30
S'29.2'
p597
sg31
S'L14-38'
p598
sg32
S'2011'
p599
ssg321
(dp600
g5
S'--'
p601
sg7
S'14'
p602
sg9
S'--'
p603
sg10
S'--'
p604
sg11
S'--'
p605
sg12
S'--'
p606
sg13
S'--'
p607
sg14
S'--'
p608
sg15
S'@DEN'
p609
sg16
g45
sg17
S'--'
p610
sg18
S'--'
p611
sg19
S'--'
p612
sg20
g45
sg21
S'--'
p613
sg22
S'--'
p614
sg23
S'--'
p615
sg24
S'--'
p616
sg25
S'--'
p617
sg26
S'12/11'
p618
sg28
S'Josh McCown'
p619
sg30
S'0.0'
p620
sg31
S'L10-13'
p621
sg32
S'2011'
p622
ssg337
(dp623
g5
S'25'
p624
sg7
S'17'
p625
sg9
S'7.5'
p626
sg10
S'60.0'
p627
sg11
g146
sg12
S'160'
p628
sg13
S'6.4'
p629
sg14
g65
sg15
S'@MIN'
p630
sg16
g70
sg17
S'15'
p631
sg18
S'43'
p632
sg19
S'30'
p633
sg20
g70
sg21
g45
sg22
g45
sg23
g70
sg24
g169
sg25
g70
sg26
S'01/01'
p634
sg28
S'Josh McCown'
p635
sg30
S'75.4'
p636
sg31
S'W17-13'
p637
sg32
S'2011'
p638
ssg355
(dp639
g5
S'28'
p640
sg7
S'16'
p641
sg9
S'4.8'
p642
sg10
S'67.9'
p643
sg11
g81
sg12
S'242'
p644
sg13
S'8.6'
p645
sg14
S'--'
p646
sg15
S'@GB'
p647
sg16
g70
sg17
S'19'
p648
sg18
g45
sg19
S'38'
p649
sg20
g70
sg21
S'--'
p650
sg22
g45
sg23
g70
sg24
g45
sg25
g65
sg26
S'12/25'
p651
sg28
S'Josh McCown'
p652
sg30
S'76.8'
p653
sg31
S'L21-35'
p654
sg32
S'2011'
p655
sssS'2013'
p656
(dp657
g3
(dp658
g5
S'31'
p659
sg7
S'11'
p660
sg9
S'-0.5'
p661
sg10
S'61.3'
p662
sg11
g65
sg12
S'216'
p663
sg13
S'7.0'
p664
sg14
S'--'
p665
sg15
S'BAL'
p666
sg16
g70
sg17
S'19'
p667
sg18
g70
sg19
S'-1'
p668
sg20
g70
sg21
S'--'
p669
sg22
g45
sg23
g70
sg24
g65
sg25
g45
sg26
S'11/17'
p670
sg28
S'Josh McCown'
p671
sg30
S'92.9'
p672
sg31
S'W23-20'
p673
sg32
S'2013'
p674
ssg34
(dp675
g5
g200
sg7
S'10'
p676
sg9
S'--'
p677
sg10
S'66.7'
p678
sg11
S'--'
p679
sg12
S'62'
p680
sg13
S'6.9'
p681
sg14
S'--'
p682
sg15
S'DET'
p683
sg16
g70
sg17
g72
sg18
g84
sg19
S'--'
p684
sg20
g45
sg21
S'--'
p685
sg22
S'--'
p686
sg23
g70
sg24
g70
sg25
g45
sg26
S'11/10'
p687
sg28
S'Josh McCown'
p688
sg30
S'123.4'
p689
sg31
S'L19-21'
p690
sg32
S'2013'
p691
ssg271
(dp692
g5
S'36'
p693
sg7
S'13'
p694
sg9
S'--'
p695
sg10
S'63.9'
p696
sg11
S'--'
p697
sg12
S'355'
p698
sg13
S'9.9'
p699
sg14
g70
sg15
S'@MIN'
p700
sg16
g70
sg17
S'23'
p701
sg18
S'10'
p702
sg19
S'--'
p703
sg20
g70
sg21
g45
sg22
S'--'
p704
sg23
g65
sg24
g146
sg25
g45
sg26
S'12/01'
p705
sg28
S'Josh McCown'
p706
sg30
S'114.9'
p707
sg31
S'L20-23'
p708
sg32
S'2013'
p709
ssg59
(dp710
g5
S'47'
p711
sg7
S'12'
p712
sg9
S'2.0'
p713
sg10
S'76.6'
p714
sg11
g65
sg12
S'352'
p715
sg13
S'7.5'
p716
sg14
g70
sg15
S'@STL'
p717
sg16
g70
sg17
S'36'
p718
sg18
g81
sg19
g146
sg20
g70
sg21
g70
sg22
g45
sg23
g65
sg24
g70
sg25
g70
sg26
S'11/24'
p719
sg28
S'Josh McCown'
p720
sg30
S'102.4'
p721
sg31
S'L21-42'
p722
sg32
S'2013'
p723
ssg304
(dp724
g5
S'--'
p725
sg7
S'15'
p726
sg9
S'--'
p727
sg10
S'--'
p728
sg11
S'--'
p729
sg12
S'--'
p730
sg13
S'--'
p731
sg14
S'--'
p732
sg15
S'@CLE'
p733
sg16
g45
sg17
S'--'
p734
sg18
S'--'
p735
sg19
S'--'
p736
sg20
g45
sg21
S'--'
p737
sg22
S'--'
p738
sg23
S'--'
p739
sg24
S'--'
p740
sg25
S'--'
p741
sg26
S'12/15'
p742
sg28
S'Josh McCown'
p743
sg30
S'0.0'
p744
sg31
S'W38-31'
p745
sg32
S'2013'
p746
ssg321
(dp747
g5
S'36'
p748
sg7
S'14'
p749
sg9
S'5.3'
p750
sg10
S'75.0'
p751
sg11
g84
sg12
S'348'
p752
sg13
S'9.7'
p753
sg14
S'--'
p754
sg15
S'DAL'
p755
sg16
g70
sg17
S'27'
p756
sg18
g169
sg19
S'16'
p757
sg20
g70
sg21
S'--'
p758
sg22
g70
sg23
g146
sg24
g70
sg25
g45
sg26
S'12/09'
p759
sg28
S'Josh McCown'
p760
sg30
S'141.9'
p761
sg31
S'W45-28'
p762
sg32
S'2013'
p763
ssg337
(dp764
g5
S'--'
p765
sg7
S'17'
p766
sg9
S'--'
p767
sg10
S'--'
p768
sg11
S'--'
p769
sg12
S'--'
p770
sg13
S'--'
p771
sg14
S'--'
p772
sg15
S'GB'
p773
sg16
g45
sg17
S'--'
p774
sg18
S'--'
p775
sg19
S'--'
p776
sg20
g45
sg21
S'--'
p777
sg22
S'--'
p778
sg23
S'--'
p779
sg24
S'--'
p780
sg25
S'--'
p781
sg26
S'12/29'
p782
sg28
S'Josh McCown'
p783
sg30
S'0.0'
p784
sg31
S'L28-33'
p785
sg32
S'2013'
p786
ssg355
(dp787
g5
g146
sg7
S'16'
p788
sg9
S'-3.0'
p789
sg10
S'50.0'
p790
sg11
g70
sg12
S'20'
p791
sg13
S'5.0'
p792
sg14
g70
sg15
S'@PHI'
p793
sg16
g70
sg17
g65
sg18
g45
sg19
S'-3'
p794
sg20
g45
sg21
g45
sg22
g45
sg23
g45
sg24
g45
sg25
g45
sg26
S'12/22'
p795
sg28
S'Josh McCown'
p796
sg30
S'64.6'
p797
sg31
S'L11-54'
p798
sg32
S'2013'
p799
ssg70
(dp800
g5
S'--'
p801
sg7
g70
sg9
S'--'
p802
sg10
S'--'
p803
sg11
S'--'
p804
sg12
S'--'
p805
sg13
S'--'
p806
sg14
S'--'
p807
sg15
S'CIN'
p808
sg16
g45
sg17
S'--'
p809
sg18
S'--'
p810
sg19
S'--'
p811
sg20
g45
sg21
S'--'
p812
sg22
S'--'
p813
sg23
S'--'
p814
sg24
S'--'
p815
sg25
S'--'
p816
sg26
S'09/08'
p817
sg28
S'Josh McCown'
p818
sg30
S'0.0'
p819
sg31
S'W24-21'
p820
sg32
S'2013'
p821
ssg84
(dp822
g5
S'--'
p823
sg7
g84
sg9
S'--'
p824
sg10
S'--'
p825
sg11
S'--'
p826
sg12
S'--'
p827
sg13
S'--'
p828
sg14
S'--'
p829
sg15
S'@PIT'
p830
sg16
g45
sg17
S'--'
p831
sg18
S'--'
p832
sg19
S'--'
p833
sg20
g45
sg21
S'--'
p834
sg22
S'--'
p835
sg23
S'--'
p836
sg24
S'--'
p837
sg25
S'--'
p838
sg26
S'09/22'
p839
sg28
S'Josh McCown'
p840
sg30
S'0.0'
p841
sg31
S'W40-23'
p842
sg32
S'2013'
p843
ssg65
(dp844
g5
S'--'
p845
sg7
g65
sg9
S'--'
p846
sg10
S'--'
p847
sg11
S'--'
p848
sg12
S'--'
p849
sg13
S'--'
p850
sg14
S'--'
p851
sg15
S'MIN'
p852
sg16
g45
sg17
S'--'
p853
sg18
S'--'
p854
sg19
S'--'
p855
sg20
g45
sg21
S'--'
p856
sg22
S'--'
p857
sg23
S'--'
p858
sg24
S'--'
p859
sg25
S'--'
p860
sg26
S'09/15'
p861
sg28
S'Josh McCown'
p862
sg30
S'0.0'
p863
sg31
S'W31-30'
p864
sg32
S'2013'
p865
ssg88
(dp866
g5
S'--'
p867
sg7
g88
sg9
S'--'
p868
sg10
S'--'
p869
sg11
S'--'
p870
sg12
S'--'
p871
sg13
S'--'
p872
sg14
S'--'
p873
sg15
S'NO'
p874
sg16
g45
sg17
S'--'
p875
sg18
S'--'
p876
sg19
S'--'
p877
sg20
g45
sg21
S'--'
p878
sg22
S'--'
p879
sg23
S'--'
p880
sg24
S'--'
p881
sg25
S'--'
p882
sg26
S'10/06'
p883
sg28
S'Josh McCown'
p884
sg30
S'0.0'
p885
sg31
S'L18-26'
p886
sg32
S'2013'
p887
ssg146
(dp888
g5
S'--'
p889
sg7
g146
sg9
S'--'
p890
sg10
S'--'
p891
sg11
S'--'
p892
sg12
S'--'
p893
sg13
S'--'
p894
sg14
S'--'
p895
sg15
S'@DET'
p896
sg16
g45
sg17
S'--'
p897
sg18
S'--'
p898
sg19
S'--'
p899
sg20
g45
sg21
S'--'
p900
sg22
S'--'
p901
sg23
S'--'
p902
sg24
S'--'
p903
sg25
S'--'
p904
sg26
S'09/29'
p905
sg28
S'Josh McCown'
p906
sg30
S'0.0'
p907
sg31
S'L32-40'
p908
sg32
S'2013'
p909
ssg169
(dp910
g5
S'20'
p911
sg7
g169
sg9
S'8.3'
p912
sg10
S'70.0'
p913
sg11
g146
sg12
S'204'
p914
sg13
S'10.2'
p915
sg14
S'--'
p916
sg15
S'@WAS'
p917
sg16
g70
sg17
S'14'
p918
sg18
g169
sg19
S'33'
p919
sg20
g45
sg21
S'--'
p920
sg22
g45
sg23
g70
sg24
g70
sg25
g45
sg26
S'10/20'
p921
sg28
S'Josh McCown'
p922
sg30
S'119.6'
p923
sg31
S'L41-45'
p924
sg32
S'2013'
p925
ssg72
(dp926
g5
S'--'
p927
sg7
g72
sg9
S'--'
p928
sg10
S'--'
p929
sg11
S'--'
p930
sg12
S'--'
p931
sg13
S'--'
p932
sg14
S'--'
p933
sg15
S'NYG'
p934
sg16
g45
sg17
S'--'
p935
sg18
S'--'
p936
sg19
S'--'
p937
sg20
g45
sg21
S'--'
p938
sg22
S'--'
p939
sg23
S'--'
p940
sg24
S'--'
p941
sg25
S'--'
p942
sg26
S'10/10'
p943
sg28
S'Josh McCown'
p944
sg30
S'0.0'
p945
sg31
S'W27-21'
p946
sg32
S'2013'
p947
ssg200
(dp948
g5
S'41'
p949
sg7
g200
sg9
S'20.0'
p950
sg10
S'53.7'
p951
sg11
g70
sg12
S'272'
p952
sg13
S'6.6'
p953
sg14
S'--'
p954
sg15
S'@GB'
p955
sg16
g70
sg17
S'22'
p956
sg18
g70
sg19
S'20'
p957
sg20
g70
sg21
S'--'
p958
sg22
g45
sg23
g65
sg24
g70
sg25
g45
sg26
S'11/04'
p959
sg28
S'Josh McCown'
p960
sg30
S'90.7'
p961
sg31
S'W27-20'
p962
sg32
S'2013'
p963
ssg81
(dp964
g5
g6
sg7
g81
sg9
g6
sg10
g6
sg11
g6
sg12
g6
sg13
g6
sg14
g6
sg15
g6
sg16
g6
sg17
g6
sg18
g6
sg19
g6
sg20
g6
sg21
g6
sg22
g6
sg23
g6
sg24
g6
sg25
g6
sg26
S'Bye'
p965
sg28
S'Josh McCown'
p966
sg30
g6
sg31
g6
sg32
S'2013'
p967
sssS'2012'
p968
(dp969
g3
(dp970
g5
S'--'
p971
sg7
S'11'
p972
sg9
S'--'
p973
sg10
S'--'
p974
sg11
S'--'
p975
sg12
S'--'
p976
sg13
S'--'
p977
sg14
S'--'
p978
sg15
S'@SF'
p979
sg16
g45
sg17
S'--'
p980
sg18
S'--'
p981
sg19
S'--'
p982
sg20
g45
sg21
S'--'
p983
sg22
S'--'
p984
sg23
S'--'
p985
sg24
S'--'
p986
sg25
S'--'
p987
sg26
S'11/19'
p988
sg28
S'Josh McCown'
p989
sg30
S'0.0'
p990
sg31
S'L7-32'
p991
sg32
S'2012'
p992
ssg271
(dp993
g5
S'--'
p994
sg7
S'13'
p995
sg9
S'--'
p996
sg10
S'--'
p997
sg11
S'--'
p998
sg12
S'--'
p999
sg13
S'--'
p1000
sg14
S'--'
p1001
sg15
S'SEA'
p1002
sg16
g45
sg17
S'--'
p1003
sg18
S'--'
p1004
sg19
S'--'
p1005
sg20
g45
sg21
S'--'
p1006
sg22
S'--'
p1007
sg23
S'--'
p1008
sg24
S'--'
p1009
sg25
S'--'
p1010
sg26
S'12/02'
p1011
sg28
S'Josh McCown'
p1012
sg30
S'0.0'
p1013
sg31
S'L17-23'
p1014
sg32
S'2012'
p1015
ssg59
(dp1016
g5
S'--'
p1017
sg7
S'12'
p1018
sg9
S'--'
p1019
sg10
S'--'
p1020
sg11
S'--'
p1021
sg12
S'--'
p1022
sg13
S'--'
p1023
sg14
S'--'
p1024
sg15
S'MIN'
p1025
sg16
g45
sg17
S'--'
p1026
sg18
S'--'
p1027
sg19
S'--'
p1028
sg20
g45
sg21
S'--'
p1029
sg22
S'--'
p1030
sg23
S'--'
p1031
sg24
S'--'
p1032
sg25
S'--'
p1033
sg26
S'11/25'
p1034
sg28
S'Josh McCown'
p1035
sg30
S'0.0'
p1036
sg31
S'W28-10'
p1037
sg32
S'2012'
p1038
ssg304
(dp1039
g5
S'--'
p1040
sg7
S'15'
p1041
sg9
S'--'
p1042
sg10
S'--'
p1043
sg11
S'--'
p1044
sg12
S'--'
p1045
sg13
S'--'
p1046
sg14
S'--'
p1047
sg15
S'GB'
p1048
sg16
g45
sg17
S'--'
p1049
sg18
S'--'
p1050
sg19
S'--'
p1051
sg20
g45
sg21
S'--'
p1052
sg22
S'--'
p1053
sg23
S'--'
p1054
sg24
S'--'
p1055
sg25
S'--'
p1056
sg26
S'12/16'
p1057
sg28
S'Josh McCown'
p1058
sg30
S'0.0'
p1059
sg31
S'L13-21'
p1060
sg32
S'2012'
p1061
ssg321
(dp1062
g5
S'--'
p1063
sg7
S'14'
p1064
sg9
S'--'
p1065
sg10
S'--'
p1066
sg11
S'--'
p1067
sg12
S'--'
p1068
sg13
S'--'
p1069
sg14
S'--'
p1070
sg15
S'@MIN'
p1071
sg16
g45
sg17
S'--'
p1072
sg18
S'--'
p1073
sg19
S'--'
p1074
sg20
g45
sg21
S'--'
p1075
sg22
S'--'
p1076
sg23
S'--'
p1077
sg24
S'--'
p1078
sg25
S'--'
p1079
sg26
S'12/09'
p1080
sg28
S'Josh McCown'
p1081
sg30
S'0.0'
p1082
sg31
S'L14-21'
p1083
sg32
S'2012'
p1084
ssg337
(dp1085
g5
S'--'
p1086
sg7
S'17'
p1087
sg9
S'--'
p1088
sg10
S'--'
p1089
sg11
S'--'
p1090
sg12
S'--'
p1091
sg13
S'--'
p1092
sg14
S'--'
p1093
sg15
S'@DET'
p1094
sg16
g45
sg17
S'--'
p1095
sg18
S'--'
p1096
sg19
S'--'
p1097
sg20
g45
sg21
S'--'
p1098
sg22
S'--'
p1099
sg23
S'--'
p1100
sg24
S'--'
p1101
sg25
S'--'
p1102
sg26
S'12/30'
p1103
sg28
S'Josh McCown'
p1104
sg30
S'0.0'
p1105
sg31
S'W26-24'
p1106
sg32
S'2012'
p1107
ssg355
(dp1108
g5
S'--'
p1109
sg7
S'16'
p1110
sg9
S'--'
p1111
sg10
S'--'
p1112
sg11
S'--'
p1113
sg12
S'--'
p1114
sg13
S'--'
p1115
sg14
S'--'
p1116
sg15
S'@ARI'
p1117
sg16
g45
sg17
S'--'
p1118
sg18
S'--'
p1119
sg19
S'--'
p1120
sg20
g45
sg21
S'--'
p1121
sg22
S'--'
p1122
sg23
S'--'
p1123
sg24
S'--'
p1124
sg25
S'--'
p1125
sg26
S'12/23'
p1126
sg28
S'Josh McCown'
p1127
sg30
S'0.0'
p1128
sg31
S'W28-13'
p1129
sg32
S'2012'
p1130
sss.