(dp0
S'2015'
p1
(dp2
S'15'
p3
(dp4
S'PassAtt'
p5
S'--'
p6
sS'WK'
p7
S'15'
p8
sS'RushAvg'
p9
S'--'
p10
sS'Pct'
p11
S'--'
p12
sS'RushAtt'
p13
S'--'
p14
sS'PassYds'
p15
S'--'
p16
sS'PassAvg'
p17
S'--'
p18
sS'FUM'
p19
S'--'
p20
sS'Opp'
p21
S'@SF'
p22
sS'G'
p23
S'0'
p24
sS'Comp'
p25
S'--'
p26
sS'SckY'
p27
S'--'
p28
sS'RushYds'
p29
S'--'
p30
sS'GS'
p31
g24
sS'Lost'
p32
S'--'
p33
sS'RushTD'
p34
S'--'
p35
sS'PassTD'
p36
S'--'
p37
sS'Sck'
p38
S'--'
p39
sS'Int'
p40
S'--'
p41
sS'Game Date'
p42
S'12/20'
p43
sS'Player'
p44
S'Keith Wenning'
p45
sS'Rate'
p46
S'0.0'
p47
sS'Result'
p48
S'W24-14'
p49
sS'Year'
p50
S'2015'
p51
ssS'17'
p52
(dp53
g5
S'--'
p54
sg7
S'17'
p55
sg9
S'--'
p56
sg11
S'--'
p57
sg13
S'--'
p58
sg15
S'--'
p59
sg17
S'--'
p60
sg19
S'--'
p61
sg21
S'BAL'
p62
sg23
g24
sg25
S'--'
p63
sg27
S'--'
p64
sg29
S'--'
p65
sg31
g24
sg32
S'--'
p66
sg34
S'--'
p67
sg36
S'--'
p68
sg38
S'--'
p69
sg40
S'--'
p70
sg42
S'01/03'
p71
sg44
S'Keith Wenning'
p72
sg46
S'0.0'
p73
sg48
S'W24-16'
p74
sg50
S'2015'
p75
ssS'16'
p76
(dp77
g5
S'--'
p78
sg7
S'16'
p79
sg9
S'--'
p80
sg11
S'--'
p81
sg13
S'--'
p82
sg15
S'--'
p83
sg17
S'--'
p84
sg19
S'--'
p85
sg21
S'@DEN'
p86
sg23
g24
sg25
S'--'
p87
sg27
S'--'
p88
sg29
S'--'
p89
sg31
g24
sg32
S'--'
p90
sg34
S'--'
p91
sg36
S'--'
p92
sg38
S'--'
p93
sg40
S'--'
p94
sg42
S'12/28'
p95
sg44
S'Keith Wenning'
p96
sg46
S'0.0'
p97
sg48
S'L17-20'
p98
sg50
S'2015'
p99
sss.