(dp0
S'2015'
p1
(dp2
S'11'
p3
(dp4
S'PassAtt'
p5
S'--'
p6
sS'WK'
p7
S'11'
p8
sS'RushAvg'
p9
S'--'
p10
sS'Pct'
p11
S'--'
p12
sS'RushAtt'
p13
S'--'
p14
sS'PassYds'
p15
S'--'
p16
sS'PassAvg'
p17
S'--'
p18
sS'FUM'
p19
S'--'
p20
sS'Opp'
p21
S'KC'
p22
sS'G'
p23
S'0'
p24
sS'Comp'
p25
S'--'
p26
sS'SckY'
p27
S'--'
p28
sS'RushYds'
p29
S'--'
p30
sS'GS'
p31
g24
sS'Lost'
p32
S'--'
p33
sS'RushTD'
p34
S'--'
p35
sS'PassTD'
p36
S'--'
p37
sS'Sck'
p38
S'--'
p39
sS'Int'
p40
S'--'
p41
sS'Game Date'
p42
S'11/22'
p43
sS'Player'
p44
S'Kellen Clemens'
p45
sS'Rate'
p46
S'0.0'
p47
sS'Result'
p48
S'L3-33'
p49
sS'Year'
p50
S'2015'
p51
ssS'10'
p52
(dp53
g5
S''
p54
sg7
S'10'
p55
sg9
g54
sg11
g54
sg13
g54
sg15
g54
sg17
g54
sg19
g54
sg21
g54
sg23
g54
sg25
g54
sg27
g54
sg29
g54
sg31
g54
sg32
g54
sg34
g54
sg36
g54
sg38
g54
sg40
g54
sg42
S'Bye'
p56
sg44
S'Kellen Clemens'
p57
sg46
g54
sg48
g54
sg50
S'2015'
p58
ssS'13'
p59
(dp60
g5
S'--'
p61
sg7
S'13'
p62
sg9
S'--'
p63
sg11
S'--'
p64
sg13
S'--'
p65
sg15
S'--'
p66
sg17
S'--'
p67
sg19
S'--'
p68
sg21
S'DEN'
p69
sg23
g24
sg25
S'--'
p70
sg27
S'--'
p71
sg29
S'--'
p72
sg31
g24
sg32
S'--'
p73
sg34
S'--'
p74
sg36
S'--'
p75
sg38
S'--'
p76
sg40
S'--'
p77
sg42
S'12/06'
p78
sg44
S'Kellen Clemens'
p79
sg46
S'0.0'
p80
sg48
S'L3-17'
p81
sg50
S'2015'
p82
ssS'12'
p83
(dp84
g5
S'--'
p85
sg7
S'12'
p86
sg9
S'--'
p87
sg11
S'--'
p88
sg13
S'--'
p89
sg15
S'--'
p90
sg17
S'--'
p91
sg19
S'--'
p92
sg21
S'@JAC'
p93
sg23
g24
sg25
S'--'
p94
sg27
S'--'
p95
sg29
S'--'
p96
sg31
g24
sg32
S'--'
p97
sg34
S'--'
p98
sg36
S'--'
p99
sg38
S'--'
p100
sg40
S'--'
p101
sg42
S'11/29'
p102
sg44
S'Kellen Clemens'
p103
sg46
S'0.0'
p104
sg48
S'W31-25'
p105
sg50
S'2015'
p106
ssS'15'
p107
(dp108
g5
S'--'
p109
sg7
S'15'
p110
sg9
S'-1.0'
p111
sg11
S'--'
p112
sg13
S'1'
p113
sg15
S'--'
p114
sg17
S'--'
p115
sg19
S'--'
p116
sg21
S'MIA'
p117
sg23
g113
sg25
S'--'
p118
sg27
S'--'
p119
sg29
S'-1'
p120
sg31
g24
sg32
S'--'
p121
sg34
g24
sg36
S'--'
p122
sg38
S'--'
p123
sg40
S'--'
p124
sg42
S'12/20'
p125
sg44
S'Kellen Clemens'
p126
sg46
S'0.0'
p127
sg48
S'W30-14'
p128
sg50
S'2015'
p129
ssS'14'
p130
(dp131
g5
S'--'
p132
sg7
S'14'
p133
sg9
S'--'
p134
sg11
S'--'
p135
sg13
S'--'
p136
sg15
S'--'
p137
sg17
S'--'
p138
sg19
S'--'
p139
sg21
S'@KC'
p140
sg23
g24
sg25
S'--'
p141
sg27
S'--'
p142
sg29
S'--'
p143
sg31
g24
sg32
S'--'
p144
sg34
S'--'
p145
sg36
S'--'
p146
sg38
S'--'
p147
sg40
S'--'
p148
sg42
S'12/13'
p149
sg44
S'Kellen Clemens'
p150
sg46
S'0.0'
p151
sg48
S'L3-10'
p152
sg50
S'2015'
p153
ssS'17'
p154
(dp155
g5
S'--'
p156
sg7
S'17'
p157
sg9
S'--'
p158
sg11
S'--'
p159
sg13
S'--'
p160
sg15
S'--'
p161
sg17
S'--'
p162
sg19
S'--'
p163
sg21
S'@DEN'
p164
sg23
g24
sg25
S'--'
p165
sg27
S'--'
p166
sg29
S'--'
p167
sg31
g24
sg32
S'--'
p168
sg34
S'--'
p169
sg36
S'--'
p170
sg38
S'--'
p171
sg40
S'--'
p172
sg42
S'01/03'
p173
sg44
S'Kellen Clemens'
p174
sg46
S'0.0'
p175
sg48
S'L20-27'
p176
sg50
S'2015'
p177
ssS'16'
p178
(dp179
g5
S'--'
p180
sg7
S'16'
p181
sg9
S'--'
p182
sg11
S'--'
p183
sg13
S'--'
p184
sg15
S'--'
p185
sg17
S'--'
p186
sg19
S'--'
p187
sg21
S'@OAK'
p188
sg23
g24
sg25
S'--'
p189
sg27
S'--'
p190
sg29
S'--'
p191
sg31
g24
sg32
S'--'
p192
sg34
S'--'
p193
sg36
S'--'
p194
sg38
S'--'
p195
sg40
S'--'
p196
sg42
S'12/24'
p197
sg44
S'Kellen Clemens'
p198
sg46
S'0.0'
p199
sg48
S'L20-23'
p200
sg50
S'2015'
p201
ssg113
(dp202
g5
S'--'
p203
sg7
g113
sg9
S'--'
p204
sg11
S'--'
p205
sg13
S'--'
p206
sg15
S'--'
p207
sg17
S'--'
p208
sg19
S'--'
p209
sg21
S'DET'
p210
sg23
g24
sg25
S'--'
p211
sg27
S'--'
p212
sg29
S'--'
p213
sg31
g24
sg32
S'--'
p214
sg34
S'--'
p215
sg36
S'--'
p216
sg38
S'--'
p217
sg40
S'--'
p218
sg42
S'09/13'
p219
sg44
S'Kellen Clemens'
p220
sg46
S'0.0'
p221
sg48
S'W33-28'
p222
sg50
S'2015'
p223
ssS'3'
p224
(dp225
g5
S'6'
p226
sg7
g224
sg9
S'--'
p227
sg11
S'83.3'
p228
sg13
S'--'
p229
sg15
S'63'
p230
sg17
S'10.5'
p231
sg19
S'--'
p232
sg21
S'@MIN'
p233
sg23
g113
sg25
S'5'
p234
sg27
g24
sg29
S'--'
p235
sg31
g24
sg32
S'--'
p236
sg34
S'--'
p237
sg36
g113
sg38
g24
sg40
g24
sg42
S'09/27'
p238
sg44
S'Kellen Clemens'
p239
sg46
S'150.0'
p240
sg48
S'L14-31'
p241
sg50
S'2015'
p242
ssS'2'
p243
(dp244
g5
S'--'
p245
sg7
g243
sg9
S'--'
p246
sg11
S'--'
p247
sg13
S'--'
p248
sg15
S'--'
p249
sg17
S'--'
p250
sg19
S'--'
p251
sg21
S'@CIN'
p252
sg23
g24
sg25
S'--'
p253
sg27
S'--'
p254
sg29
S'--'
p255
sg31
g24
sg32
S'--'
p256
sg34
S'--'
p257
sg36
S'--'
p258
sg38
S'--'
p259
sg40
S'--'
p260
sg42
S'09/20'
p261
sg44
S'Kellen Clemens'
p262
sg46
S'0.0'
p263
sg48
S'L19-24'
p264
sg50
S'2015'
p265
ssg234
(dp266
g5
S'--'
p267
sg7
g234
sg9
S'--'
p268
sg11
S'--'
p269
sg13
S'--'
p270
sg15
S'--'
p271
sg17
S'--'
p272
sg19
S'--'
p273
sg21
S'PIT'
p274
sg23
g24
sg25
S'--'
p275
sg27
S'--'
p276
sg29
S'--'
p277
sg31
g24
sg32
S'--'
p278
sg34
S'--'
p279
sg36
S'--'
p280
sg38
S'--'
p281
sg40
S'--'
p282
sg42
S'10/12'
p283
sg44
S'Kellen Clemens'
p284
sg46
S'0.0'
p285
sg48
S'L20-24'
p286
sg50
S'2015'
p287
ssS'4'
p288
(dp289
g5
S'--'
p290
sg7
g288
sg9
S'--'
p291
sg11
S'--'
p292
sg13
S'--'
p293
sg15
S'--'
p294
sg17
S'--'
p295
sg19
S'--'
p296
sg21
S'CLE'
p297
sg23
g24
sg25
S'--'
p298
sg27
S'--'
p299
sg29
S'--'
p300
sg31
g24
sg32
S'--'
p301
sg34
S'--'
p302
sg36
S'--'
p303
sg38
S'--'
p304
sg40
S'--'
p305
sg42
S'10/04'
p306
sg44
S'Kellen Clemens'
p307
sg46
S'0.0'
p308
sg48
S'W30-27'
p309
sg50
S'2015'
p310
ssS'7'
p311
(dp312
g5
S'--'
p313
sg7
g311
sg9
S'--'
p314
sg11
S'--'
p315
sg13
S'--'
p316
sg15
S'--'
p317
sg17
S'--'
p318
sg19
S'--'
p319
sg21
S'OAK'
p320
sg23
g24
sg25
S'--'
p321
sg27
S'--'
p322
sg29
S'--'
p323
sg31
g24
sg32
S'--'
p324
sg34
S'--'
p325
sg36
S'--'
p326
sg38
S'--'
p327
sg40
S'--'
p328
sg42
S'10/25'
p329
sg44
S'Kellen Clemens'
p330
sg46
S'0.0'
p331
sg48
S'L29-37'
p332
sg50
S'2015'
p333
ssg226
(dp334
g5
S'--'
p335
sg7
g226
sg9
S'--'
p336
sg11
S'--'
p337
sg13
S'--'
p338
sg15
S'--'
p339
sg17
S'--'
p340
sg19
S'--'
p341
sg21
S'@GB'
p342
sg23
g24
sg25
S'--'
p343
sg27
S'--'
p344
sg29
S'--'
p345
sg31
g24
sg32
S'--'
p346
sg34
S'--'
p347
sg36
S'--'
p348
sg38
S'--'
p349
sg40
S'--'
p350
sg42
S'10/18'
p351
sg44
S'Kellen Clemens'
p352
sg46
S'0.0'
p353
sg48
S'L20-27'
p354
sg50
S'2015'
p355
ssS'9'
p356
(dp357
g5
S'--'
p358
sg7
g356
sg9
S'--'
p359
sg11
S'--'
p360
sg13
S'--'
p361
sg15
S'--'
p362
sg17
S'--'
p363
sg19
S'--'
p364
sg21
S'CHI'
p365
sg23
g24
sg25
S'--'
p366
sg27
S'--'
p367
sg29
S'--'
p368
sg31
g24
sg32
S'--'
p369
sg34
S'--'
p370
sg36
S'--'
p371
sg38
S'--'
p372
sg40
S'--'
p373
sg42
S'11/09'
p374
sg44
S'Kellen Clemens'
p375
sg46
S'0.0'
p376
sg48
S'L19-22'
p377
sg50
S'2015'
p378
ssS'8'
p379
(dp380
g5
S'--'
p381
sg7
g379
sg9
S'--'
p382
sg11
S'--'
p383
sg13
S'--'
p384
sg15
S'--'
p385
sg17
S'--'
p386
sg19
S'--'
p387
sg21
S'@BAL'
p388
sg23
g24
sg25
S'--'
p389
sg27
S'--'
p390
sg29
S'--'
p391
sg31
g24
sg32
S'--'
p392
sg34
S'--'
p393
sg36
S'--'
p394
sg38
S'--'
p395
sg40
S'--'
p396
sg42
S'11/01'
p397
sg44
S'Kellen Clemens'
p398
sg46
S'0.0'
p399
sg48
S'L26-29'
p400
sg50
S'2015'
p401
sssS'2014'
p402
(dp403
g3
(dp404
g5
S'--'
p405
sg7
S'11'
p406
sg9
S'--'
p407
sg11
S'--'
p408
sg13
S'--'
p409
sg15
S'--'
p410
sg17
S'--'
p411
sg19
S'--'
p412
sg21
S'OAK'
p413
sg23
g24
sg25
S'--'
p414
sg27
S'--'
p415
sg29
S'--'
p416
sg31
g24
sg32
S'--'
p417
sg34
S'--'
p418
sg36
S'--'
p419
sg38
S'--'
p420
sg40
S'--'
p421
sg42
S'11/16'
p422
sg44
S'Kellen Clemens'
p423
sg46
S'0.0'
p424
sg48
S'W13-6'
p425
sg50
S'2014'
p426
ssg52
(dp427
g5
g54
sg7
S'10'
p428
sg9
g54
sg11
g54
sg13
g54
sg15
g54
sg17
g54
sg19
g54
sg21
g54
sg23
g54
sg25
g54
sg27
g54
sg29
g54
sg31
g54
sg32
g54
sg34
g54
sg36
g54
sg38
g54
sg40
g54
sg42
S'Bye'
p429
sg44
S'Kellen Clemens'
p430
sg46
g54
sg48
g54
sg50
S'2014'
p431
ssg59
(dp432
g5
S'--'
p433
sg7
S'13'
p434
sg9
S'--'
p435
sg11
S'--'
p436
sg13
S'--'
p437
sg15
S'--'
p438
sg17
S'--'
p439
sg19
S'--'
p440
sg21
S'@BAL'
p441
sg23
g24
sg25
S'--'
p442
sg27
S'--'
p443
sg29
S'--'
p444
sg31
g24
sg32
S'--'
p445
sg34
S'--'
p446
sg36
S'--'
p447
sg38
S'--'
p448
sg40
S'--'
p449
sg42
S'11/30'
p450
sg44
S'Kellen Clemens'
p451
sg46
S'0.0'
p452
sg48
S'W34-33'
p453
sg50
S'2014'
p454
ssg83
(dp455
g5
S'--'
p456
sg7
S'12'
p457
sg9
S'--'
p458
sg11
S'--'
p459
sg13
S'--'
p460
sg15
S'--'
p461
sg17
S'--'
p462
sg19
S'--'
p463
sg21
S'STL'
p464
sg23
g24
sg25
S'--'
p465
sg27
S'--'
p466
sg29
S'--'
p467
sg31
g24
sg32
S'--'
p468
sg34
S'--'
p469
sg36
S'--'
p470
sg38
S'--'
p471
sg40
S'--'
p472
sg42
S'11/23'
p473
sg44
S'Kellen Clemens'
p474
sg46
S'0.0'
p475
sg48
S'W27-24'
p476
sg50
S'2014'
p477
ssg107
(dp478
g5
S'--'
p479
sg7
S'15'
p480
sg9
S'--'
p481
sg11
S'--'
p482
sg13
S'--'
p483
sg15
S'--'
p484
sg17
S'--'
p485
sg19
S'--'
p486
sg21
S'DEN'
p487
sg23
g24
sg25
S'--'
p488
sg27
S'--'
p489
sg29
S'--'
p490
sg31
g24
sg32
S'--'
p491
sg34
S'--'
p492
sg36
S'--'
p493
sg38
S'--'
p494
sg40
S'--'
p495
sg42
S'12/14'
p496
sg44
S'Kellen Clemens'
p497
sg46
S'0.0'
p498
sg48
S'L10-22'
p499
sg50
S'2014'
p500
ssg130
(dp501
g5
S'--'
p502
sg7
S'14'
p503
sg9
S'--'
p504
sg11
S'--'
p505
sg13
S'--'
p506
sg15
S'--'
p507
sg17
S'--'
p508
sg19
S'--'
p509
sg21
S'NE'
p510
sg23
g24
sg25
S'--'
p511
sg27
S'--'
p512
sg29
S'--'
p513
sg31
g24
sg32
S'--'
p514
sg34
S'--'
p515
sg36
S'--'
p516
sg38
S'--'
p517
sg40
S'--'
p518
sg42
S'12/07'
p519
sg44
S'Kellen Clemens'
p520
sg46
S'0.0'
p521
sg48
S'L14-23'
p522
sg50
S'2014'
p523
ssg154
(dp524
g5
S'--'
p525
sg7
S'17'
p526
sg9
S'--'
p527
sg11
S'--'
p528
sg13
S'--'
p529
sg15
S'--'
p530
sg17
S'--'
p531
sg19
S'--'
p532
sg21
S'@KC'
p533
sg23
g24
sg25
S'--'
p534
sg27
S'--'
p535
sg29
S'--'
p536
sg31
g24
sg32
S'--'
p537
sg34
S'--'
p538
sg36
S'--'
p539
sg38
S'--'
p540
sg40
S'--'
p541
sg42
S'12/28'
p542
sg44
S'Kellen Clemens'
p543
sg46
S'0.0'
p544
sg48
S'L7-19'
p545
sg50
S'2014'
p546
ssg178
(dp547
g5
S'--'
p548
sg7
S'16'
p549
sg9
S'--'
p550
sg11
S'--'
p551
sg13
S'--'
p552
sg15
S'--'
p553
sg17
S'--'
p554
sg19
S'--'
p555
sg21
S'@SF'
p556
sg23
g24
sg25
S'--'
p557
sg27
S'--'
p558
sg29
S'--'
p559
sg31
g24
sg32
S'--'
p560
sg34
S'--'
p561
sg36
S'--'
p562
sg38
S'--'
p563
sg40
S'--'
p564
sg42
S'12/20'
p565
sg44
S'Kellen Clemens'
p566
sg46
S'0.0'
p567
sg48
S'W38-35'
p568
sg50
S'2014'
p569
ssg113
(dp570
g5
S'--'
p571
sg7
g113
sg9
S'--'
p572
sg11
S'--'
p573
sg13
S'--'
p574
sg15
S'--'
p575
sg17
S'--'
p576
sg19
S'--'
p577
sg21
S'@ARI'
p578
sg23
g24
sg25
S'--'
p579
sg27
S'--'
p580
sg29
S'--'
p581
sg31
g24
sg32
S'--'
p582
sg34
S'--'
p583
sg36
S'--'
p584
sg38
S'--'
p585
sg40
S'--'
p586
sg42
S'09/08'
p587
sg44
S'Kellen Clemens'
p588
sg46
S'0.0'
p589
sg48
S'L17-18'
p590
sg50
S'2014'
p591
ssg224
(dp592
g5
S'--'
p593
sg7
g224
sg9
S'--'
p594
sg11
S'--'
p595
sg13
S'--'
p596
sg15
S'--'
p597
sg17
S'--'
p598
sg19
S'--'
p599
sg21
S'@BUF'
p600
sg23
g24
sg25
S'--'
p601
sg27
S'--'
p602
sg29
S'--'
p603
sg31
g24
sg32
S'--'
p604
sg34
S'--'
p605
sg36
S'--'
p606
sg38
S'--'
p607
sg40
S'--'
p608
sg42
S'09/21'
p609
sg44
S'Kellen Clemens'
p610
sg46
S'0.0'
p611
sg48
S'W22-10'
p612
sg50
S'2014'
p613
ssg243
(dp614
g5
S'--'
p615
sg7
g243
sg9
S'--'
p616
sg11
S'--'
p617
sg13
S'--'
p618
sg15
S'--'
p619
sg17
S'--'
p620
sg19
S'--'
p621
sg21
S'SEA'
p622
sg23
g24
sg25
S'--'
p623
sg27
S'--'
p624
sg29
S'--'
p625
sg31
g24
sg32
S'--'
p626
sg34
S'--'
p627
sg36
S'--'
p628
sg38
S'--'
p629
sg40
S'--'
p630
sg42
S'09/14'
p631
sg44
S'Kellen Clemens'
p632
sg46
S'0.0'
p633
sg48
S'W30-21'
p634
sg50
S'2014'
p635
ssg234
(dp636
g5
S'--'
p637
sg7
g234
sg9
S'--'
p638
sg11
S'--'
p639
sg13
S'--'
p640
sg15
S'--'
p641
sg17
S'--'
p642
sg19
S'--'
p643
sg21
S'NYJ'
p644
sg23
g113
sg25
S'--'
p645
sg27
S'--'
p646
sg29
S'--'
p647
sg31
g24
sg32
S'--'
p648
sg34
S'--'
p649
sg36
S'--'
p650
sg38
S'--'
p651
sg40
S'--'
p652
sg42
S'10/05'
p653
sg44
S'Kellen Clemens'
p654
sg46
S'0.0'
p655
sg48
S'W31-0'
p656
sg50
S'2014'
p657
ssg288
(dp658
g5
S'--'
p659
sg7
g288
sg9
S'--'
p660
sg11
S'--'
p661
sg13
S'--'
p662
sg15
S'--'
p663
sg17
S'--'
p664
sg19
S'--'
p665
sg21
S'JAC'
p666
sg23
g24
sg25
S'--'
p667
sg27
S'--'
p668
sg29
S'--'
p669
sg31
g24
sg32
S'--'
p670
sg34
S'--'
p671
sg36
S'--'
p672
sg38
S'--'
p673
sg40
S'--'
p674
sg42
S'09/28'
p675
sg44
S'Kellen Clemens'
p676
sg46
S'0.0'
p677
sg48
S'W33-14'
p678
sg50
S'2014'
p679
ssg311
(dp680
g5
S'--'
p681
sg7
g311
sg9
S'--'
p682
sg11
S'--'
p683
sg13
S'--'
p684
sg15
S'--'
p685
sg17
S'--'
p686
sg19
S'--'
p687
sg21
S'KC'
p688
sg23
g24
sg25
S'--'
p689
sg27
S'--'
p690
sg29
S'--'
p691
sg31
g24
sg32
S'--'
p692
sg34
S'--'
p693
sg36
S'--'
p694
sg38
S'--'
p695
sg40
S'--'
p696
sg42
S'10/19'
p697
sg44
S'Kellen Clemens'
p698
sg46
S'0.0'
p699
sg48
S'L20-23'
p700
sg50
S'2014'
p701
ssg226
(dp702
g5
S'--'
p703
sg7
g226
sg9
S'--'
p704
sg11
S'--'
p705
sg13
S'--'
p706
sg15
S'--'
p707
sg17
S'--'
p708
sg19
S'--'
p709
sg21
S'@OAK'
p710
sg23
g24
sg25
S'--'
p711
sg27
S'--'
p712
sg29
S'--'
p713
sg31
g24
sg32
S'--'
p714
sg34
S'--'
p715
sg36
S'--'
p716
sg38
S'--'
p717
sg40
S'--'
p718
sg42
S'10/12'
p719
sg44
S'Kellen Clemens'
p720
sg46
S'0.0'
p721
sg48
S'W31-28'
p722
sg50
S'2014'
p723
ssg356
(dp724
g5
g224
sg7
g356
sg9
S'--'
p725
sg11
S'33.3'
p726
sg13
S'--'
p727
sg15
S'10'
p728
sg17
S'3.3'
p729
sg19
S'--'
p730
sg21
S'@MIA'
p731
sg23
g113
sg25
g113
sg27
g356
sg29
S'--'
p732
sg31
g24
sg32
S'--'
p733
sg34
S'--'
p734
sg36
g24
sg38
g113
sg40
g24
sg42
S'11/02'
p735
sg44
S'Kellen Clemens'
p736
sg46
S'43.8'
p737
sg48
S'L0-37'
p738
sg50
S'2014'
p739
ssg379
(dp740
g5
S'--'
p741
sg7
g379
sg9
S'--'
p742
sg11
S'--'
p743
sg13
S'--'
p744
sg15
S'--'
p745
sg17
S'--'
p746
sg19
S'--'
p747
sg21
S'@DEN'
p748
sg23
g24
sg25
S'--'
p749
sg27
S'--'
p750
sg29
S'--'
p751
sg31
g24
sg32
S'--'
p752
sg34
S'--'
p753
sg36
S'--'
p754
sg38
S'--'
p755
sg40
S'--'
p756
sg42
S'10/23'
p757
sg44
S'Kellen Clemens'
p758
sg46
S'0.0'
p759
sg48
S'L21-35'
p760
sg50
S'2014'
p761
sssS'2011'
p762
(dp763
g3
(dp764
g5
g54
sg7
S'11'
p765
sg9
g54
sg11
g54
sg13
g54
sg15
g54
sg17
g54
sg19
g54
sg21
g54
sg23
g54
sg25
g54
sg27
g54
sg29
g54
sg31
g54
sg32
g54
sg34
g54
sg36
g54
sg38
g54
sg40
g54
sg42
S'Bye'
p766
sg44
S'Kellen Clemens'
p767
sg46
g54
sg48
g54
sg50
S'2011'
p768
ssg59
(dp769
g5
S'--'
p770
sg7
S'13'
p771
sg9
S'--'
p772
sg11
S'--'
p773
sg13
S'--'
p774
sg15
S'--'
p775
sg17
S'--'
p776
sg19
S'--'
p777
sg21
S'ATL'
p778
sg23
g24
sg25
S'--'
p779
sg27
S'--'
p780
sg29
S'--'
p781
sg31
g24
sg32
S'--'
p782
sg34
S'--'
p783
sg36
S'--'
p784
sg38
S'--'
p785
sg40
S'--'
p786
sg42
S'12/04'
p787
sg44
S'Kellen Clemens'
p788
sg46
S'0.0'
p789
sg48
S'W17-10'
p790
sg50
S'2011'
p791
ssg83
(dp792
g5
S'--'
p793
sg7
S'12'
p794
sg9
S'--'
p795
sg11
S'--'
p796
sg13
S'--'
p797
sg15
S'--'
p798
sg17
S'--'
p799
sg19
S'--'
p800
sg21
S'@JAC'
p801
sg23
g24
sg25
S'--'
p802
sg27
S'--'
p803
sg29
S'--'
p804
sg31
g24
sg32
S'--'
p805
sg34
S'--'
p806
sg36
S'--'
p807
sg38
S'--'
p808
sg40
S'--'
p809
sg42
S'11/27'
p810
sg44
S'Kellen Clemens'
p811
sg46
S'0.0'
p812
sg48
S'W20-13'
p813
sg50
S'2011'
p814
ssg107
(dp815
g5
S'36'
p816
sg7
S'15'
p817
sg9
S'4.5'
p818
sg11
S'69.4'
p819
sg13
g243
sg15
S'229'
p820
sg17
S'6.4'
p821
sg19
g113
sg21
S'CIN'
p822
sg23
g113
sg25
S'25'
p823
sg27
S'19'
p824
sg29
g356
sg31
g113
sg32
g24
sg34
g24
sg36
g113
sg38
g224
sg40
g24
sg42
S'12/18'
p825
sg44
S'Kellen Clemens'
p826
sg46
S'95.7'
p827
sg48
S'L13-20'
p828
sg50
S'2011'
p829
ssg130
(dp830
g5
S'--'
p831
sg7
S'14'
p832
sg9
S'--'
p833
sg11
S'--'
p834
sg13
S'--'
p835
sg15
S'--'
p836
sg17
S'--'
p837
sg19
S'--'
p838
sg21
S'@SEA'
p839
sg23
g24
sg25
S'--'
p840
sg27
S'--'
p841
sg29
S'--'
p842
sg31
g24
sg32
S'--'
p843
sg34
S'--'
p844
sg36
S'--'
p845
sg38
S'--'
p846
sg40
S'--'
p847
sg42
S'12/12'
p848
sg44
S'Kellen Clemens'
p849
sg46
S'0.0'
p850
sg48
S'L13-30'
p851
sg50
S'2011'
p852
ssg154
(dp853
g5
S'31'
p854
sg7
S'17'
p855
sg9
S'9.0'
p856
sg11
S'45.2'
p857
sg13
g243
sg15
S'226'
p858
sg17
S'7.3'
p859
sg19
S'--'
p860
sg21
S'SF'
p861
sg23
g113
sg25
S'14'
p862
sg27
S'26'
p863
sg29
S'18'
p864
sg31
g113
sg32
S'--'
p865
sg34
g113
sg36
g113
sg38
g224
sg40
g113
sg42
S'01/01'
p866
sg44
S'Kellen Clemens'
p867
sg46
S'67.4'
p868
sg48
S'L27-34'
p869
sg50
S'2011'
p870
ssg178
(dp871
g5
S'24'
p872
sg7
S'16'
p873
sg9
S'5.0'
p874
sg11
S'37.5'
p875
sg13
g243
sg15
S'91'
p876
sg17
S'3.8'
p877
sg19
g113
sg21
S'@PIT'
p878
sg23
g113
sg25
g356
sg27
S'23'
p879
sg29
S'10'
p880
sg31
g113
sg32
g24
sg34
g24
sg36
g24
sg38
g224
sg40
g24
sg42
S'12/24'
p881
sg44
S'Kellen Clemens'
p882
sg46
S'49.1'
p883
sg48
S'L0-27'
p884
sg50
S'2011'
p885
sssS'2010'
p886
(dp887
g3
(dp888
g5
S'--'
p889
sg7
S'11'
p890
sg9
S'--'
p891
sg11
S'--'
p892
sg13
S'--'
p893
sg15
S'--'
p894
sg17
S'--'
p895
sg19
S'--'
p896
sg21
S'HOU'
p897
sg23
g24
sg25
S'--'
p898
sg27
S'--'
p899
sg29
S'--'
p900
sg31
g24
sg32
S'--'
p901
sg34
S'--'
p902
sg36
S'--'
p903
sg38
S'--'
p904
sg40
S'--'
p905
sg42
S'11/21'
p906
sg44
S'Kellen Clemens'
p907
sg46
S'0.0'
p908
sg48
S'W30-27'
p909
sg50
S'2010'
p910
ssg52
(dp911
g5
S'--'
p912
sg7
S'10'
p913
sg9
S'--'
p914
sg11
S'--'
p915
sg13
S'--'
p916
sg15
S'--'
p917
sg17
S'--'
p918
sg19
S'--'
p919
sg21
S'@CLE'
p920
sg23
g24
sg25
S'--'
p921
sg27
S'--'
p922
sg29
S'--'
p923
sg31
g24
sg32
S'--'
p924
sg34
S'--'
p925
sg36
S'--'
p926
sg38
S'--'
p927
sg40
S'--'
p928
sg42
S'11/14'
p929
sg44
S'Kellen Clemens'
p930
sg46
S'0.0'
p931
sg48
S'W26-20'
p932
sg50
S'2010'
p933
ssg59
(dp934
g5
S'--'
p935
sg7
S'13'
p936
sg9
S'--'
p937
sg11
S'--'
p938
sg13
S'--'
p939
sg15
S'--'
p940
sg17
S'--'
p941
sg19
S'--'
p942
sg21
S'@NE'
p943
sg23
g24
sg25
S'--'
p944
sg27
S'--'
p945
sg29
S'--'
p946
sg31
g24
sg32
S'--'
p947
sg34
S'--'
p948
sg36
S'--'
p949
sg38
S'--'
p950
sg40
S'--'
p951
sg42
S'12/06'
p952
sg44
S'Kellen Clemens'
p953
sg46
S'0.0'
p954
sg48
S'L3-45'
p955
sg50
S'2010'
p956
ssg83
(dp957
g5
S'--'
p958
sg7
S'12'
p959
sg9
S'--'
p960
sg11
S'--'
p961
sg13
S'--'
p962
sg15
S'--'
p963
sg17
S'--'
p964
sg19
S'--'
p965
sg21
S'CIN'
p966
sg23
g24
sg25
S'--'
p967
sg27
S'--'
p968
sg29
S'--'
p969
sg31
g24
sg32
S'--'
p970
sg34
S'--'
p971
sg36
S'--'
p972
sg38
S'--'
p973
sg40
S'--'
p974
sg42
S'11/25'
p975
sg44
S'Kellen Clemens'
p976
sg46
S'0.0'
p977
sg48
S'W26-10'
p978
sg50
S'2010'
p979
ssg107
(dp980
g5
S'--'
p981
sg7
S'15'
p982
sg9
S'--'
p983
sg11
S'--'
p984
sg13
S'--'
p985
sg15
S'--'
p986
sg17
S'--'
p987
sg19
S'--'
p988
sg21
S'@PIT'
p989
sg23
g24
sg25
S'--'
p990
sg27
S'--'
p991
sg29
S'--'
p992
sg31
g24
sg32
S'--'
p993
sg34
S'--'
p994
sg36
S'--'
p995
sg38
S'--'
p996
sg40
S'--'
p997
sg42
S'12/19'
p998
sg44
S'Kellen Clemens'
p999
sg46
S'0.0'
p1000
sg48
S'W22-17'
p1001
sg50
S'2010'
p1002
ssg130
(dp1003
g5
S'--'
p1004
sg7
S'14'
p1005
sg9
S'--'
p1006
sg11
S'--'
p1007
sg13
S'--'
p1008
sg15
S'--'
p1009
sg17
S'--'
p1010
sg19
S'--'
p1011
sg21
S'MIA'
p1012
sg23
g24
sg25
S'--'
p1013
sg27
S'--'
p1014
sg29
S'--'
p1015
sg31
g24
sg32
S'--'
p1016
sg34
S'--'
p1017
sg36
S'--'
p1018
sg38
S'--'
p1019
sg40
S'--'
p1020
sg42
S'12/12'
p1021
sg44
S'Kellen Clemens'
p1022
sg46
S'0.0'
p1023
sg48
S'L6-10'
p1024
sg50
S'2010'
p1025
ssg154
(dp1026
g5
g243
sg7
S'17'
p1027
sg9
S'4.5'
p1028
sg11
S'50.0'
p1029
sg13
g243
sg15
g226
sg17
S'3.0'
p1030
sg19
S'--'
p1031
sg21
S'BUF'
p1032
sg23
g113
sg25
g113
sg27
g24
sg29
g356
sg31
g24
sg32
S'--'
p1033
sg34
g113
sg36
g24
sg38
g24
sg40
g24
sg42
S'01/02'
p1034
sg44
S'Kellen Clemens'
p1035
sg46
S'56.2'
p1036
sg48
S'W38-7'
p1037
sg50
S'2010'
p1038
ssg178
(dp1039
g5
S'--'
p1040
sg7
S'16'
p1041
sg9
S'--'
p1042
sg11
S'--'
p1043
sg13
S'--'
p1044
sg15
S'--'
p1045
sg17
S'--'
p1046
sg19
S'--'
p1047
sg21
S'@CHI'
p1048
sg23
g24
sg25
S'--'
p1049
sg27
S'--'
p1050
sg29
S'--'
p1051
sg31
g24
sg32
S'--'
p1052
sg34
S'--'
p1053
sg36
S'--'
p1054
sg38
S'--'
p1055
sg40
S'--'
p1056
sg42
S'12/26'
p1057
sg44
S'Kellen Clemens'
p1058
sg46
S'0.0'
p1059
sg48
S'L34-38'
p1060
sg50
S'2010'
p1061
ssg113
(dp1062
g5
S'--'
p1063
sg7
g113
sg9
S'--'
p1064
sg11
S'--'
p1065
sg13
S'--'
p1066
sg15
S'--'
p1067
sg17
S'--'
p1068
sg19
S'--'
p1069
sg21
S'BAL'
p1070
sg23
g24
sg25
S'--'
p1071
sg27
S'--'
p1072
sg29
S'--'
p1073
sg31
g24
sg32
S'--'
p1074
sg34
S'--'
p1075
sg36
S'--'
p1076
sg38
S'--'
p1077
sg40
S'--'
p1078
sg42
S'09/13'
p1079
sg44
S'Kellen Clemens'
p1080
sg46
S'0.0'
p1081
sg48
S'L9-10'
p1082
sg50
S'2010'
p1083
ssg224
(dp1084
g5
S'--'
p1085
sg7
g224
sg9
S'--'
p1086
sg11
S'--'
p1087
sg13
S'--'
p1088
sg15
S'--'
p1089
sg17
S'--'
p1090
sg19
S'--'
p1091
sg21
S'@MIA'
p1092
sg23
g24
sg25
S'--'
p1093
sg27
S'--'
p1094
sg29
S'--'
p1095
sg31
g24
sg32
S'--'
p1096
sg34
S'--'
p1097
sg36
S'--'
p1098
sg38
S'--'
p1099
sg40
S'--'
p1100
sg42
S'09/26'
p1101
sg44
S'Kellen Clemens'
p1102
sg46
S'0.0'
p1103
sg48
S'W31-23'
p1104
sg50
S'2010'
p1105
ssg243
(dp1106
g5
S'--'
p1107
sg7
g243
sg9
S'--'
p1108
sg11
S'--'
p1109
sg13
S'--'
p1110
sg15
S'--'
p1111
sg17
S'--'
p1112
sg19
S'--'
p1113
sg21
S'NE'
p1114
sg23
g24
sg25
S'--'
p1115
sg27
S'--'
p1116
sg29
S'--'
p1117
sg31
g24
sg32
S'--'
p1118
sg34
S'--'
p1119
sg36
S'--'
p1120
sg38
S'--'
p1121
sg40
S'--'
p1122
sg42
S'09/19'
p1123
sg44
S'Kellen Clemens'
p1124
sg46
S'0.0'
p1125
sg48
S'W28-14'
p1126
sg50
S'2010'
p1127
ssg234
(dp1128
g5
S'--'
p1129
sg7
g234
sg9
S'--'
p1130
sg11
S'--'
p1131
sg13
S'--'
p1132
sg15
S'--'
p1133
sg17
S'--'
p1134
sg19
S'--'
p1135
sg21
S'MIN'
p1136
sg23
g24
sg25
S'--'
p1137
sg27
S'--'
p1138
sg29
S'--'
p1139
sg31
g24
sg32
S'--'
p1140
sg34
S'--'
p1141
sg36
S'--'
p1142
sg38
S'--'
p1143
sg40
S'--'
p1144
sg42
S'10/11'
p1145
sg44
S'Kellen Clemens'
p1146
sg46
S'0.0'
p1147
sg48
S'W29-20'
p1148
sg50
S'2010'
p1149
ssg288
(dp1150
g5
S'--'
p1151
sg7
g288
sg9
S'--'
p1152
sg11
S'--'
p1153
sg13
S'--'
p1154
sg15
S'--'
p1155
sg17
S'--'
p1156
sg19
S'--'
p1157
sg21
S'@BUF'
p1158
sg23
g24
sg25
S'--'
p1159
sg27
S'--'
p1160
sg29
S'--'
p1161
sg31
g24
sg32
S'--'
p1162
sg34
S'--'
p1163
sg36
S'--'
p1164
sg38
S'--'
p1165
sg40
S'--'
p1166
sg42
S'10/03'
p1167
sg44
S'Kellen Clemens'
p1168
sg46
S'0.0'
p1169
sg48
S'W38-14'
p1170
sg50
S'2010'
p1171
ssg311
(dp1172
g5
g54
sg7
g311
sg9
g54
sg11
g54
sg13
g54
sg15
g54
sg17
g54
sg19
g54
sg21
g54
sg23
g54
sg25
g54
sg27
g54
sg29
g54
sg31
g54
sg32
g54
sg34
g54
sg36
g54
sg38
g54
sg40
g54
sg42
S'Bye'
p1173
sg44
S'Kellen Clemens'
p1174
sg46
g54
sg48
g54
sg50
S'2010'
p1175
ssg226
(dp1176
g5
S'--'
p1177
sg7
g226
sg9
S'--'
p1178
sg11
S'--'
p1179
sg13
S'--'
p1180
sg15
S'--'
p1181
sg17
S'--'
p1182
sg19
S'--'
p1183
sg21
S'@DEN'
p1184
sg23
g24
sg25
S'--'
p1185
sg27
S'--'
p1186
sg29
S'--'
p1187
sg31
g24
sg32
S'--'
p1188
sg34
S'--'
p1189
sg36
S'--'
p1190
sg38
S'--'
p1191
sg40
S'--'
p1192
sg42
S'10/17'
p1193
sg44
S'Kellen Clemens'
p1194
sg46
S'0.0'
p1195
sg48
S'W24-20'
p1196
sg50
S'2010'
p1197
ssg356
(dp1198
g5
S'--'
p1199
sg7
g356
sg9
S'--'
p1200
sg11
S'--'
p1201
sg13
S'--'
p1202
sg15
S'--'
p1203
sg17
S'--'
p1204
sg19
S'--'
p1205
sg21
S'@DET'
p1206
sg23
g24
sg25
S'--'
p1207
sg27
S'--'
p1208
sg29
S'--'
p1209
sg31
g24
sg32
S'--'
p1210
sg34
S'--'
p1211
sg36
S'--'
p1212
sg38
S'--'
p1213
sg40
S'--'
p1214
sg42
S'11/07'
p1215
sg44
S'Kellen Clemens'
p1216
sg46
S'0.0'
p1217
sg48
S'W23-20'
p1218
sg50
S'2010'
p1219
ssg379
(dp1220
g5
S'--'
p1221
sg7
g379
sg9
S'--'
p1222
sg11
S'--'
p1223
sg13
S'--'
p1224
sg15
S'--'
p1225
sg17
S'--'
p1226
sg19
S'--'
p1227
sg21
S'GB'
p1228
sg23
g24
sg25
S'--'
p1229
sg27
S'--'
p1230
sg29
S'--'
p1231
sg31
g24
sg32
S'--'
p1232
sg34
S'--'
p1233
sg36
S'--'
p1234
sg38
S'--'
p1235
sg40
S'--'
p1236
sg42
S'10/31'
p1237
sg44
S'Kellen Clemens'
p1238
sg46
S'0.0'
p1239
sg48
S'L0-9'
p1240
sg50
S'2010'
p1241
sssS'2013'
p1242
(dp1243
g3
(dp1244
g5
g54
sg7
S'11'
p1245
sg9
g54
sg11
g54
sg13
g54
sg15
g54
sg17
g54
sg19
g54
sg21
g54
sg23
g54
sg25
g54
sg27
g54
sg29
g54
sg31
g54
sg32
g54
sg34
g54
sg36
g54
sg38
g54
sg40
g54
sg42
S'Bye'
p1246
sg44
S'Kellen Clemens'
p1247
sg46
g54
sg48
g54
sg50
S'2013'
p1248
ssg52
(dp1249
g5
S'16'
p1250
sg7
S'10'
p1251
sg9
S'0.7'
p1252
sg11
S'56.3'
p1253
sg13
g224
sg15
S'247'
p1254
sg17
S'15.4'
p1255
sg19
g113
sg21
S'@IND'
p1256
sg23
g113
sg25
g356
sg27
S'15'
p1257
sg29
g243
sg31
g113
sg32
g113
sg34
g24
sg36
g243
sg38
g243
sg40
g24
sg42
S'11/10'
p1258
sg44
S'Kellen Clemens'
p1259
sg46
S'140.6'
p1260
sg48
S'W38-8'
p1261
sg50
S'2013'
p1262
ssg59
(dp1263
g5
S'37'
p1264
sg7
S'13'
p1265
sg9
S'7.0'
p1266
sg11
S'51.4'
p1267
sg13
g224
sg15
S'218'
p1268
sg17
S'5.9'
p1269
sg19
S'--'
p1270
sg21
S'@SF'
p1271
sg23
g113
sg25
S'19'
p1272
sg27
S'20'
p1273
sg29
S'21'
p1274
sg31
g113
sg32
S'--'
p1275
sg34
g24
sg36
g113
sg38
g224
sg40
g113
sg42
S'12/01'
p1276
sg44
S'Kellen Clemens'
p1277
sg46
S'67.2'
p1278
sg48
S'L13-23'
p1279
sg50
S'2013'
p1280
ssg83
(dp1281
g5
S'22'
p1282
sg7
S'12'
p1283
sg9
S'-1.0'
p1284
sg11
S'45.5'
p1285
sg13
g224
sg15
S'167'
p1286
sg17
S'7.6'
p1287
sg19
S'--'
p1288
sg21
S'CHI'
p1289
sg23
g113
sg25
S'10'
p1290
sg27
S'19'
p1291
sg29
S'-3'
p1292
sg31
g113
sg32
S'--'
p1293
sg34
g24
sg36
g113
sg38
g243
sg40
g24
sg42
S'11/24'
p1294
sg44
S'Kellen Clemens'
p1295
sg46
S'86.7'
p1296
sg48
S'W42-21'
p1297
sg50
S'2013'
p1298
ssg107
(dp1299
g5
S'20'
p1300
sg7
S'15'
p1301
sg9
S'1.7'
p1302
sg11
S'70.0'
p1303
sg13
g224
sg15
S'158'
p1304
sg17
S'7.9'
p1305
sg19
S'--'
p1306
sg21
S'NO'
p1307
sg23
g113
sg25
S'14'
p1308
sg27
g24
sg29
g234
sg31
g113
sg32
S'--'
p1309
sg34
g24
sg36
g243
sg38
g24
sg40
g24
sg42
S'12/15'
p1310
sg44
S'Kellen Clemens'
p1311
sg46
S'126.7'
p1312
sg48
S'W27-16'
p1313
sg50
S'2013'
p1314
ssg130
(dp1315
g5
S'27'
p1316
sg7
S'14'
p1317
sg9
S'5.0'
p1318
sg11
S'59.3'
p1319
sg13
g243
sg15
S'181'
p1320
sg17
S'6.7'
p1321
sg19
g113
sg21
S'@ARI'
p1322
sg23
g113
sg25
S'16'
p1323
sg27
S'24'
p1324
sg29
S'10'
p1325
sg31
g113
sg32
g24
sg34
g24
sg36
g24
sg38
g288
sg40
g243
sg42
S'12/08'
p1326
sg44
S'Kellen Clemens'
p1327
sg46
S'48.5'
p1328
sg48
S'L10-30'
p1329
sg50
S'2013'
p1330
ssg154
(dp1331
g5
S'30'
p1332
sg7
S'17'
p1333
sg9
S'1.0'
p1334
sg11
S'70.0'
p1335
sg13
g243
sg15
S'157'
p1336
sg17
S'5.2'
p1337
sg19
S'--'
p1338
sg21
S'@SEA'
p1339
sg23
g113
sg25
S'21'
p1340
sg27
S'12'
p1341
sg29
g243
sg31
g113
sg32
S'--'
p1342
sg34
g24
sg36
g113
sg38
g243
sg40
g243
sg42
S'12/29'
p1343
sg44
S'Kellen Clemens'
p1344
sg46
S'65.6'
p1345
sg48
S'L9-27'
p1346
sg50
S'2013'
p1347
ssg178
(dp1348
g5
S'20'
p1349
sg7
S'16'
p1350
sg9
S'0.0'
p1351
sg11
S'80.0'
p1352
sg13
g288
sg15
S'158'
p1353
sg17
S'7.9'
p1354
sg19
g113
sg21
S'TB'
p1355
sg23
g113
sg25
S'16'
p1356
sg27
S'10'
p1357
sg29
g24
sg31
g113
sg32
g113
sg34
g24
sg36
g24
sg38
g113
sg40
g24
sg42
S'12/22'
p1358
sg44
S'Kellen Clemens'
p1359
sg46
S'99.6'
p1360
sg48
S'W23-13'
p1361
sg50
S'2013'
p1362
ssg113
(dp1363
g5
S'--'
p1364
sg7
g113
sg9
S'--'
p1365
sg11
S'--'
p1366
sg13
S'--'
p1367
sg15
S'--'
p1368
sg17
S'--'
p1369
sg19
S'--'
p1370
sg21
S'ARI'
p1371
sg23
g24
sg25
S'--'
p1372
sg27
S'--'
p1373
sg29
S'--'
p1374
sg31
g24
sg32
S'--'
p1375
sg34
S'--'
p1376
sg36
S'--'
p1377
sg38
S'--'
p1378
sg40
S'--'
p1379
sg42
S'09/08'
p1380
sg44
S'Kellen Clemens'
p1381
sg46
S'0.0'
p1382
sg48
S'W27-24'
p1383
sg50
S'2013'
p1384
ssg224
(dp1385
g5
S'--'
p1386
sg7
g224
sg9
S'--'
p1387
sg11
S'--'
p1388
sg13
S'--'
p1389
sg15
S'--'
p1390
sg17
S'--'
p1391
sg19
S'--'
p1392
sg21
S'@DAL'
p1393
sg23
g24
sg25
S'--'
p1394
sg27
S'--'
p1395
sg29
S'--'
p1396
sg31
g24
sg32
S'--'
p1397
sg34
S'--'
p1398
sg36
S'--'
p1399
sg38
S'--'
p1400
sg40
S'--'
p1401
sg42
S'09/22'
p1402
sg44
S'Kellen Clemens'
p1403
sg46
S'0.0'
p1404
sg48
S'L7-31'
p1405
sg50
S'2013'
p1406
ssg243
(dp1407
g5
S'--'
p1408
sg7
g243
sg9
S'--'
p1409
sg11
S'--'
p1410
sg13
S'--'
p1411
sg15
S'--'
p1412
sg17
S'--'
p1413
sg19
S'--'
p1414
sg21
S'@ATL'
p1415
sg23
g24
sg25
S'--'
p1416
sg27
S'--'
p1417
sg29
S'--'
p1418
sg31
g24
sg32
S'--'
p1419
sg34
S'--'
p1420
sg36
S'--'
p1421
sg38
S'--'
p1422
sg40
S'--'
p1423
sg42
S'09/15'
p1424
sg44
S'Kellen Clemens'
p1425
sg46
S'0.0'
p1426
sg48
S'L24-31'
p1427
sg50
S'2013'
p1428
ssg234
(dp1429
g5
S'--'
p1430
sg7
g234
sg9
S'--'
p1431
sg11
S'--'
p1432
sg13
S'--'
p1433
sg15
S'--'
p1434
sg17
S'--'
p1435
sg19
S'--'
p1436
sg21
S'JAC'
p1437
sg23
g24
sg25
S'--'
p1438
sg27
S'--'
p1439
sg29
S'--'
p1440
sg31
g24
sg32
S'--'
p1441
sg34
S'--'
p1442
sg36
S'--'
p1443
sg38
S'--'
p1444
sg40
S'--'
p1445
sg42
S'10/06'
p1446
sg44
S'Kellen Clemens'
p1447
sg46
S'0.0'
p1448
sg48
S'W34-20'
p1449
sg50
S'2013'
p1450
ssg288
(dp1451
g5
S'--'
p1452
sg7
g288
sg9
S'--'
p1453
sg11
S'--'
p1454
sg13
S'--'
p1455
sg15
S'--'
p1456
sg17
S'--'
p1457
sg19
S'--'
p1458
sg21
S'SF'
p1459
sg23
g24
sg25
S'--'
p1460
sg27
S'--'
p1461
sg29
S'--'
p1462
sg31
g24
sg32
S'--'
p1463
sg34
S'--'
p1464
sg36
S'--'
p1465
sg38
S'--'
p1466
sg40
S'--'
p1467
sg42
S'09/26'
p1468
sg44
S'Kellen Clemens'
p1469
sg46
S'0.0'
p1470
sg48
S'L11-35'
p1471
sg50
S'2013'
p1472
ssg311
(dp1473
g5
g288
sg7
g311
sg9
S'--'
p1474
sg11
S'50.0'
p1475
sg13
S'--'
p1476
sg15
S'19'
p1477
sg17
S'4.8'
p1478
sg19
g243
sg21
S'@CAR'
p1479
sg23
g113
sg25
g243
sg27
S'12'
p1480
sg29
S'--'
p1481
sg31
g24
sg32
g113
sg34
S'--'
p1482
sg36
g24
sg38
g243
sg40
g24
sg42
S'10/20'
p1483
sg44
S'Kellen Clemens'
p1484
sg46
S'63.5'
p1485
sg48
S'L15-30'
p1486
sg50
S'2013'
p1487
ssg226
(dp1488
g5
S'--'
p1489
sg7
g226
sg9
S'--'
p1490
sg11
S'--'
p1491
sg13
S'--'
p1492
sg15
S'--'
p1493
sg17
S'--'
p1494
sg19
S'--'
p1495
sg21
S'@HOU'
p1496
sg23
g24
sg25
S'--'
p1497
sg27
S'--'
p1498
sg29
S'--'
p1499
sg31
g24
sg32
S'--'
p1500
sg34
S'--'
p1501
sg36
S'--'
p1502
sg38
S'--'
p1503
sg40
S'--'
p1504
sg42
S'10/13'
p1505
sg44
S'Kellen Clemens'
p1506
sg46
S'0.0'
p1507
sg48
S'W38-13'
p1508
sg50
S'2013'
p1509
ssg356
(dp1510
g5
S'35'
p1511
sg7
g356
sg9
S'16.0'
p1512
sg11
S'57.1'
p1513
sg13
g113
sg15
S'210'
p1514
sg17
S'6.0'
p1515
sg19
g113
sg21
S'TEN'
p1516
sg23
g113
sg25
S'20'
p1517
sg27
g311
sg29
S'16'
p1518
sg31
g113
sg32
g113
sg34
g24
sg36
g113
sg38
g243
sg40
g24
sg42
S'11/03'
p1519
sg44
S'Kellen Clemens'
p1520
sg46
S'84.2'
p1521
sg48
S'L21-28'
p1522
sg50
S'2013'
p1523
ssg379
(dp1524
g5
S'31'
p1525
sg7
g379
sg9
S'5.5'
p1526
sg11
S'48.4'
p1527
sg13
g243
sg15
S'158'
p1528
sg17
S'5.1'
p1529
sg19
g113
sg21
S'SEA'
p1530
sg23
g113
sg25
S'15'
p1531
sg27
S'19'
p1532
sg29
S'11'
p1533
sg31
g113
sg32
g24
sg34
g24
sg36
g24
sg38
g224
sg40
g243
sg42
S'10/28'
p1534
sg44
S'Kellen Clemens'
p1535
sg46
S'36.8'
p1536
sg48
S'L9-14'
p1537
sg50
S'2013'
p1538
sssS'2012'
p1539
(dp1540
g3
(dp1541
g5
S'--'
p1542
sg7
S'11'
p1543
sg9
S'--'
p1544
sg11
S'--'
p1545
sg13
S'--'
p1546
sg15
S'--'
p1547
sg17
S'--'
p1548
sg19
S'--'
p1549
sg21
S'NYJ'
p1550
sg23
g24
sg25
S'--'
p1551
sg27
S'--'
p1552
sg29
S'--'
p1553
sg31
g24
sg32
S'--'
p1554
sg34
S'--'
p1555
sg36
S'--'
p1556
sg38
S'--'
p1557
sg40
S'--'
p1558
sg42
S'11/18'
p1559
sg44
S'Kellen Clemens'
p1560
sg46
S'0.0'
p1561
sg48
S'L13-27'
p1562
sg50
S'2012'
p1563
ssg52
(dp1564
g5
S'--'
p1565
sg7
S'10'
p1566
sg9
S'--'
p1567
sg11
S'--'
p1568
sg13
S'--'
p1569
sg15
S'--'
p1570
sg17
S'--'
p1571
sg19
S'--'
p1572
sg21
S'@SF'
p1573
sg23
g24
sg25
S'--'
p1574
sg27
S'--'
p1575
sg29
S'--'
p1576
sg31
g24
sg32
S'--'
p1577
sg34
S'--'
p1578
sg36
S'--'
p1579
sg38
S'--'
p1580
sg40
S'--'
p1581
sg42
S'11/11'
p1582
sg44
S'Kellen Clemens'
p1583
sg46
S'0.0'
p1584
sg48
S'T24-24'
p1585
sg50
S'2012'
p1586
ssg59
(dp1587
g5
S'--'
p1588
sg7
S'13'
p1589
sg9
S'--'
p1590
sg11
S'--'
p1591
sg13
S'--'
p1592
sg15
S'--'
p1593
sg17
S'--'
p1594
sg19
S'--'
p1595
sg21
S'SF'
p1596
sg23
g24
sg25
S'--'
p1597
sg27
S'--'
p1598
sg29
S'--'
p1599
sg31
g24
sg32
S'--'
p1600
sg34
S'--'
p1601
sg36
S'--'
p1602
sg38
S'--'
p1603
sg40
S'--'
p1604
sg42
S'12/02'
p1605
sg44
S'Kellen Clemens'
p1606
sg46
S'0.0'
p1607
sg48
S'W16-13'
p1608
sg50
S'2012'
p1609
ssg83
(dp1610
g5
g113
sg7
S'12'
p1611
sg9
S'--'
p1612
sg11
S'0.0'
p1613
sg13
S'--'
p1614
sg15
g24
sg17
S'0.0'
p1615
sg19
S'--'
p1616
sg21
S'@ARI'
p1617
sg23
g113
sg25
g24
sg27
g24
sg29
S'--'
p1618
sg31
g24
sg32
S'--'
p1619
sg34
S'--'
p1620
sg36
g24
sg38
g24
sg40
g24
sg42
S'11/25'
p1621
sg44
S'Kellen Clemens'
p1622
sg46
S'39.6'
p1623
sg48
S'W31-17'
p1624
sg50
S'2012'
p1625
ssg107
(dp1626
g5
S'--'
p1627
sg7
S'15'
p1628
sg9
S'--'
p1629
sg11
S'--'
p1630
sg13
S'--'
p1631
sg15
S'--'
p1632
sg17
S'--'
p1633
sg19
S'--'
p1634
sg21
S'MIN'
p1635
sg23
g24
sg25
S'--'
p1636
sg27
S'--'
p1637
sg29
S'--'
p1638
sg31
g24
sg32
S'--'
p1639
sg34
S'--'
p1640
sg36
S'--'
p1641
sg38
S'--'
p1642
sg40
S'--'
p1643
sg42
S'12/16'
p1644
sg44
S'Kellen Clemens'
p1645
sg46
S'0.0'
p1646
sg48
S'L22-36'
p1647
sg50
S'2012'
p1648
ssg130
(dp1649
g5
S'--'
p1650
sg7
S'14'
p1651
sg9
S'--'
p1652
sg11
S'--'
p1653
sg13
S'--'
p1654
sg15
S'--'
p1655
sg17
S'--'
p1656
sg19
S'--'
p1657
sg21
S'@BUF'
p1658
sg23
g24
sg25
S'--'
p1659
sg27
S'--'
p1660
sg29
S'--'
p1661
sg31
g24
sg32
S'--'
p1662
sg34
S'--'
p1663
sg36
S'--'
p1664
sg38
S'--'
p1665
sg40
S'--'
p1666
sg42
S'12/09'
p1667
sg44
S'Kellen Clemens'
p1668
sg46
S'0.0'
p1669
sg48
S'W15-12'
p1670
sg50
S'2012'
p1671
ssg154
(dp1672
g5
S'--'
p1673
sg7
S'17'
p1674
sg9
S'--'
p1675
sg11
S'--'
p1676
sg13
S'--'
p1677
sg15
S'--'
p1678
sg17
S'--'
p1679
sg19
S'--'
p1680
sg21
S'@SEA'
p1681
sg23
g24
sg25
S'--'
p1682
sg27
S'--'
p1683
sg29
S'--'
p1684
sg31
g24
sg32
S'--'
p1685
sg34
S'--'
p1686
sg36
S'--'
p1687
sg38
S'--'
p1688
sg40
S'--'
p1689
sg42
S'12/30'
p1690
sg44
S'Kellen Clemens'
p1691
sg46
S'0.0'
p1692
sg48
S'L13-20'
p1693
sg50
S'2012'
p1694
ssg178
(dp1695
g5
S'--'
p1696
sg7
S'16'
p1697
sg9
S'--'
p1698
sg11
S'--'
p1699
sg13
S'--'
p1700
sg15
S'--'
p1701
sg17
S'--'
p1702
sg19
S'--'
p1703
sg21
S'@TB'
p1704
sg23
g24
sg25
S'--'
p1705
sg27
S'--'
p1706
sg29
S'--'
p1707
sg31
g24
sg32
S'--'
p1708
sg34
S'--'
p1709
sg36
S'--'
p1710
sg38
S'--'
p1711
sg40
S'--'
p1712
sg42
S'12/23'
p1713
sg44
S'Kellen Clemens'
p1714
sg46
S'0.0'
p1715
sg48
S'W28-13'
p1716
sg50
S'2012'
p1717
ssg224
(dp1718
g5
S'--'
p1719
sg7
g224
sg9
S'--'
p1720
sg11
S'--'
p1721
sg13
S'--'
p1722
sg15
S'--'
p1723
sg17
S'--'
p1724
sg19
S'--'
p1725
sg21
S'@CHI'
p1726
sg23
g24
sg25
S'--'
p1727
sg27
S'--'
p1728
sg29
S'--'
p1729
sg31
g24
sg32
S'--'
p1730
sg34
S'--'
p1731
sg36
S'--'
p1732
sg38
S'--'
p1733
sg40
S'--'
p1734
sg42
S'09/23'
p1735
sg44
S'Kellen Clemens'
p1736
sg46
S'0.0'
p1737
sg48
S'L6-23'
p1738
sg50
S'2012'
p1739
ssg243
(dp1740
g5
S'--'
p1741
sg7
g243
sg9
S'--'
p1742
sg11
S'--'
p1743
sg13
S'--'
p1744
sg15
S'--'
p1745
sg17
S'--'
p1746
sg19
S'--'
p1747
sg21
S'WAS'
p1748
sg23
g24
sg25
S'--'
p1749
sg27
S'--'
p1750
sg29
S'--'
p1751
sg31
g24
sg32
S'--'
p1752
sg34
S'--'
p1753
sg36
S'--'
p1754
sg38
S'--'
p1755
sg40
S'--'
p1756
sg42
S'09/16'
p1757
sg44
S'Kellen Clemens'
p1758
sg46
S'0.0'
p1759
sg48
S'W31-28'
p1760
sg50
S'2012'
p1761
ssg234
(dp1762
g5
S'--'
p1763
sg7
g234
sg9
S'--'
p1764
sg11
S'--'
p1765
sg13
S'--'
p1766
sg15
S'--'
p1767
sg17
S'--'
p1768
sg19
S'--'
p1769
sg21
S'ARI'
p1770
sg23
g24
sg25
S'--'
p1771
sg27
S'--'
p1772
sg29
S'--'
p1773
sg31
g24
sg32
S'--'
p1774
sg34
S'--'
p1775
sg36
S'--'
p1776
sg38
S'--'
p1777
sg40
S'--'
p1778
sg42
S'10/04'
p1779
sg44
S'Kellen Clemens'
p1780
sg46
S'0.0'
p1781
sg48
S'W17-3'
p1782
sg50
S'2012'
p1783
ssg288
(dp1784
g5
S'--'
p1785
sg7
g288
sg9
S'--'
p1786
sg11
S'--'
p1787
sg13
S'--'
p1788
sg15
S'--'
p1789
sg17
S'--'
p1790
sg19
S'--'
p1791
sg21
S'SEA'
p1792
sg23
g24
sg25
S'--'
p1793
sg27
S'--'
p1794
sg29
S'--'
p1795
sg31
g24
sg32
S'--'
p1796
sg34
S'--'
p1797
sg36
S'--'
p1798
sg38
S'--'
p1799
sg40
S'--'
p1800
sg42
S'09/30'
p1801
sg44
S'Kellen Clemens'
p1802
sg46
S'0.0'
p1803
sg48
S'W19-13'
p1804
sg50
S'2012'
p1805
ssg311
(dp1806
g5
S'--'
p1807
sg7
g311
sg9
S'--'
p1808
sg11
S'--'
p1809
sg13
S'--'
p1810
sg15
S'--'
p1811
sg17
S'--'
p1812
sg19
S'--'
p1813
sg21
S'GB'
p1814
sg23
g24
sg25
S'--'
p1815
sg27
S'--'
p1816
sg29
S'--'
p1817
sg31
g24
sg32
S'--'
p1818
sg34
S'--'
p1819
sg36
S'--'
p1820
sg38
S'--'
p1821
sg40
S'--'
p1822
sg42
S'10/21'
p1823
sg44
S'Kellen Clemens'
p1824
sg46
S'0.0'
p1825
sg48
S'L20-30'
p1826
sg50
S'2012'
p1827
ssg226
(dp1828
g5
S'--'
p1829
sg7
g226
sg9
S'--'
p1830
sg11
S'--'
p1831
sg13
S'--'
p1832
sg15
S'--'
p1833
sg17
S'--'
p1834
sg19
S'--'
p1835
sg21
S'@MIA'
p1836
sg23
g24
sg25
S'--'
p1837
sg27
S'--'
p1838
sg29
S'--'
p1839
sg31
g24
sg32
S'--'
p1840
sg34
S'--'
p1841
sg36
S'--'
p1842
sg38
S'--'
p1843
sg40
S'--'
p1844
sg42
S'10/14'
p1845
sg44
S'Kellen Clemens'
p1846
sg46
S'0.0'
p1847
sg48
S'L14-17'
p1848
sg50
S'2012'
p1849
ssg356
(dp1850
g5
g54
sg7
g356
sg9
g54
sg11
g54
sg13
g54
sg15
g54
sg17
g54
sg19
g54
sg21
g54
sg23
g54
sg25
g54
sg27
g54
sg29
g54
sg31
g54
sg32
g54
sg34
g54
sg36
g54
sg38
g54
sg40
g54
sg42
S'Bye'
p1851
sg44
S'Kellen Clemens'
p1852
sg46
g54
sg48
g54
sg50
S'2012'
p1853
ssg379
(dp1854
g5
g243
sg7
g379
sg9
S'2.5'
p1855
sg11
S'50.0'
p1856
sg13
g243
sg15
S'39'
p1857
sg17
S'19.5'
p1858
sg19
g113
sg21
S'NE'
p1859
sg23
g113
sg25
g113
sg27
g24
sg29
g234
sg31
g24
sg32
g24
sg34
g24
sg36
g24
sg38
g24
sg40
g113
sg42
S'10/28'
p1860
sg44
S'Kellen Clemens'
p1861
sg46
S'56.2'
p1862
sg48
S'L7-45'
p1863
sg50
S'2012'
p1864
sss.