(dp0
S'2015'
p1
(dp2
S'15'
p3
(dp4
S'PassAtt'
p5
S'--'
p6
sS'WK'
p7
S'15'
p8
sS'RushAvg'
p9
S'--'
p10
sS'Pct'
p11
S'--'
p12
sS'RushAtt'
p13
S'--'
p14
sS'PassYds'
p15
S'--'
p16
sS'PassAvg'
p17
S'--'
p18
sS'FUM'
p19
S'--'
p20
sS'Opp'
p21
S'@SD'
p22
sS'G'
p23
S'0'
p24
sS'Comp'
p25
S'--'
p26
sS'SckY'
p27
S'--'
p28
sS'RushYds'
p29
S'--'
p30
sS'GS'
p31
g24
sS'Lost'
p32
S'--'
p33
sS'RushTD'
p34
S'--'
p35
sS'PassTD'
p36
S'--'
p37
sS'Sck'
p38
S'--'
p39
sS'Int'
p40
S'--'
p41
sS'Game Date'
p42
S'12/20'
p43
sS'Player'
p44
S'Logan Thomas'
p45
sS'Rate'
p46
S'0.0'
p47
sS'Result'
p48
S'L14-30'
p49
sS'Year'
p50
S'2015'
p51
ssS'17'
p52
(dp53
g5
S'--'
p54
sg7
S'17'
p55
sg9
S'--'
p56
sg11
S'--'
p57
sg13
S'--'
p58
sg15
S'--'
p59
sg17
S'--'
p60
sg19
S'--'
p61
sg21
S'NE'
p62
sg23
g24
sg25
S'--'
p63
sg27
S'--'
p64
sg29
S'--'
p65
sg31
g24
sg32
S'--'
p66
sg34
S'--'
p67
sg36
S'--'
p68
sg38
S'--'
p69
sg40
S'--'
p70
sg42
S'01/03'
p71
sg44
S'Logan Thomas'
p72
sg46
S'0.0'
p73
sg48
S'W20-10'
p74
sg50
S'2015'
p75
ssS'16'
p76
(dp77
g5
S'--'
p78
sg7
S'16'
p79
sg9
S'--'
p80
sg11
S'--'
p81
sg13
S'--'
p82
sg15
S'--'
p83
sg17
S'--'
p84
sg19
S'--'
p85
sg21
S'IND'
p86
sg23
g24
sg25
S'--'
p87
sg27
S'--'
p88
sg29
S'--'
p89
sg31
g24
sg32
S'--'
p90
sg34
S'--'
p91
sg36
S'--'
p92
sg38
S'--'
p93
sg40
S'--'
p94
sg42
S'12/27'
p95
sg44
S'Logan Thomas'
p96
sg46
S'0.0'
p97
sg48
S'L12-18'
p98
sg50
S'2015'
p99
sssS'2014'
p100
(dp101
S'11'
p102
(dp103
g5
S'--'
p104
sg7
S'11'
p105
sg9
S'--'
p106
sg11
S'--'
p107
sg13
S'--'
p108
sg15
S'--'
p109
sg17
S'--'
p110
sg19
S'--'
p111
sg21
S'DET'
p112
sg23
g24
sg25
S'--'
p113
sg27
S'--'
p114
sg29
S'--'
p115
sg31
g24
sg32
S'--'
p116
sg34
S'--'
p117
sg36
S'--'
p118
sg38
S'--'
p119
sg40
S'--'
p120
sg42
S'11/16'
p121
sg44
S'Logan Thomas'
p122
sg46
S'0.0'
p123
sg48
S'W14-6'
p124
sg50
S'2014'
p125
ssS'10'
p126
(dp127
g5
S'--'
p128
sg7
S'10'
p129
sg9
S'--'
p130
sg11
S'--'
p131
sg13
S'--'
p132
sg15
S'--'
p133
sg17
S'--'
p134
sg19
S'--'
p135
sg21
S'STL'
p136
sg23
g24
sg25
S'--'
p137
sg27
S'--'
p138
sg29
S'--'
p139
sg31
g24
sg32
S'--'
p140
sg34
S'--'
p141
sg36
S'--'
p142
sg38
S'--'
p143
sg40
S'--'
p144
sg42
S'11/09'
p145
sg44
S'Logan Thomas'
p146
sg46
S'0.0'
p147
sg48
S'W31-14'
p148
sg50
S'2014'
p149
ssS'13'
p150
(dp151
g5
S'--'
p152
sg7
S'13'
p153
sg9
S'--'
p154
sg11
S'--'
p155
sg13
S'--'
p156
sg15
S'--'
p157
sg17
S'--'
p158
sg19
S'--'
p159
sg21
S'@ATL'
p160
sg23
g24
sg25
S'--'
p161
sg27
S'--'
p162
sg29
S'--'
p163
sg31
g24
sg32
S'--'
p164
sg34
S'--'
p165
sg36
S'--'
p166
sg38
S'--'
p167
sg40
S'--'
p168
sg42
S'11/30'
p169
sg44
S'Logan Thomas'
p170
sg46
S'0.0'
p171
sg48
S'L18-29'
p172
sg50
S'2014'
p173
ssS'12'
p174
(dp175
g5
S'--'
p176
sg7
S'12'
p177
sg9
S'--'
p178
sg11
S'--'
p179
sg13
S'--'
p180
sg15
S'--'
p181
sg17
S'--'
p182
sg19
S'--'
p183
sg21
S'@SEA'
p184
sg23
g24
sg25
S'--'
p185
sg27
S'--'
p186
sg29
S'--'
p187
sg31
g24
sg32
S'--'
p188
sg34
S'--'
p189
sg36
S'--'
p190
sg38
S'--'
p191
sg40
S'--'
p192
sg42
S'11/23'
p193
sg44
S'Logan Thomas'
p194
sg46
S'0.0'
p195
sg48
S'L3-19'
p196
sg50
S'2014'
p197
ssg3
(dp198
g5
S'--'
p199
sg7
S'15'
p200
sg9
S'--'
p201
sg11
S'--'
p202
sg13
S'--'
p203
sg15
S'--'
p204
sg17
S'--'
p205
sg19
S'--'
p206
sg21
S'@STL'
p207
sg23
g24
sg25
S'--'
p208
sg27
S'--'
p209
sg29
S'--'
p210
sg31
g24
sg32
S'--'
p211
sg34
S'--'
p212
sg36
S'--'
p213
sg38
S'--'
p214
sg40
S'--'
p215
sg42
S'12/11'
p216
sg44
S'Logan Thomas'
p217
sg46
S'0.0'
p218
sg48
S'W12-6'
p219
sg50
S'2014'
p220
ssS'14'
p221
(dp222
g5
S'--'
p223
sg7
S'14'
p224
sg9
S'--'
p225
sg11
S'--'
p226
sg13
S'--'
p227
sg15
S'--'
p228
sg17
S'--'
p229
sg19
S'--'
p230
sg21
S'KC'
p231
sg23
g24
sg25
S'--'
p232
sg27
S'--'
p233
sg29
S'--'
p234
sg31
g24
sg32
S'--'
p235
sg34
S'--'
p236
sg36
S'--'
p237
sg38
S'--'
p238
sg40
S'--'
p239
sg42
S'12/07'
p240
sg44
S'Logan Thomas'
p241
sg46
S'0.0'
p242
sg48
S'W17-14'
p243
sg50
S'2014'
p244
ssg52
(dp245
g5
S'--'
p246
sg7
S'17'
p247
sg9
S'--'
p248
sg11
S'--'
p249
sg13
S'--'
p250
sg15
S'--'
p251
sg17
S'--'
p252
sg19
S'--'
p253
sg21
S'@SF'
p254
sg23
g24
sg25
S'--'
p255
sg27
S'--'
p256
sg29
S'--'
p257
sg31
g24
sg32
S'--'
p258
sg34
S'--'
p259
sg36
S'--'
p260
sg38
S'--'
p261
sg40
S'--'
p262
sg42
S'12/28'
p263
sg44
S'Logan Thomas'
p264
sg46
S'0.0'
p265
sg48
S'L17-20'
p266
sg50
S'2014'
p267
ssg76
(dp268
g5
S'1'
p269
sg7
S'16'
p270
sg9
S'--'
p271
sg11
S'0.0'
p272
sg13
S'--'
p273
sg15
g24
sg17
S'0.0'
p274
sg19
S'--'
p275
sg21
S'SEA'
p276
sg23
g269
sg25
g24
sg27
g24
sg29
S'--'
p277
sg31
g24
sg32
S'--'
p278
sg34
S'--'
p279
sg36
g24
sg38
g24
sg40
g24
sg42
S'12/21'
p280
sg44
S'Logan Thomas'
p281
sg46
S'39.6'
p282
sg48
S'L6-35'
p283
sg50
S'2014'
p284
ssg269
(dp285
g5
S'--'
p286
sg7
g269
sg9
S'--'
p287
sg11
S'--'
p288
sg13
S'--'
p289
sg15
S'--'
p290
sg17
S'--'
p291
sg19
S'--'
p292
sg21
S'SD'
p293
sg23
g24
sg25
S'--'
p294
sg27
S'--'
p295
sg29
S'--'
p296
sg31
g24
sg32
S'--'
p297
sg34
S'--'
p298
sg36
S'--'
p299
sg38
S'--'
p300
sg40
S'--'
p301
sg42
S'09/08'
p302
sg44
S'Logan Thomas'
p303
sg46
S'0.0'
p304
sg48
S'W18-17'
p305
sg50
S'2014'
p306
ssS'3'
p307
(dp308
g5
S'--'
p309
sg7
g307
sg9
S'--'
p310
sg11
S'--'
p311
sg13
S'--'
p312
sg15
S'--'
p313
sg17
S'--'
p314
sg19
S'--'
p315
sg21
S'SF'
p316
sg23
g24
sg25
S'--'
p317
sg27
S'--'
p318
sg29
S'--'
p319
sg31
g24
sg32
S'--'
p320
sg34
S'--'
p321
sg36
S'--'
p322
sg38
S'--'
p323
sg40
S'--'
p324
sg42
S'09/21'
p325
sg44
S'Logan Thomas'
p326
sg46
S'0.0'
p327
sg48
S'W23-14'
p328
sg50
S'2014'
p329
ssS'2'
p330
(dp331
g5
S'--'
p332
sg7
g330
sg9
S'--'
p333
sg11
S'--'
p334
sg13
S'--'
p335
sg15
S'--'
p336
sg17
S'--'
p337
sg19
S'--'
p338
sg21
S'@NYG'
p339
sg23
g24
sg25
S'--'
p340
sg27
S'--'
p341
sg29
S'--'
p342
sg31
g24
sg32
S'--'
p343
sg34
S'--'
p344
sg36
S'--'
p345
sg38
S'--'
p346
sg40
S'--'
p347
sg42
S'09/14'
p348
sg44
S'Logan Thomas'
p349
sg46
S'0.0'
p350
sg48
S'W25-14'
p351
sg50
S'2014'
p352
ssS'5'
p353
(dp354
g5
S'8'
p355
sg7
g353
sg9
S'--'
p356
sg11
S'12.5'
p357
sg13
S'--'
p358
sg15
S'81'
p359
sg17
S'10.1'
p360
sg19
S'--'
p361
sg21
S'@DEN'
p362
sg23
g269
sg25
g269
sg27
S'11'
p363
sg29
S'--'
p364
sg31
g24
sg32
S'--'
p365
sg34
S'--'
p366
sg36
g269
sg38
g330
sg40
g24
sg42
S'10/05'
p367
sg44
S'Logan Thomas'
p368
sg46
S'108.9'
p369
sg48
S'L20-41'
p370
sg50
S'2014'
p371
ssS'4'
p372
(dp373
g5
S''
p374
sg7
g372
sg9
g374
sg11
g374
sg13
g374
sg15
g374
sg17
g374
sg19
g374
sg21
g374
sg23
g374
sg25
g374
sg27
g374
sg29
g374
sg31
g374
sg32
g374
sg34
g374
sg36
g374
sg38
g374
sg40
g374
sg42
S'Bye'
p375
sg44
S'Logan Thomas'
p376
sg46
g374
sg48
g374
sg50
S'2014'
p377
ssS'7'
p378
(dp379
g5
S'--'
p380
sg7
g378
sg9
S'--'
p381
sg11
S'--'
p382
sg13
S'--'
p383
sg15
S'--'
p384
sg17
S'--'
p385
sg19
S'--'
p386
sg21
S'@OAK'
p387
sg23
g24
sg25
S'--'
p388
sg27
S'--'
p389
sg29
S'--'
p390
sg31
g24
sg32
S'--'
p391
sg34
S'--'
p392
sg36
S'--'
p393
sg38
S'--'
p394
sg40
S'--'
p395
sg42
S'10/19'
p396
sg44
S'Logan Thomas'
p397
sg46
S'0.0'
p398
sg48
S'W24-13'
p399
sg50
S'2014'
p400
ssS'6'
p401
(dp402
g5
S'--'
p403
sg7
g401
sg9
S'--'
p404
sg11
S'--'
p405
sg13
S'--'
p406
sg15
S'--'
p407
sg17
S'--'
p408
sg19
S'--'
p409
sg21
S'WAS'
p410
sg23
g24
sg25
S'--'
p411
sg27
S'--'
p412
sg29
S'--'
p413
sg31
g24
sg32
S'--'
p414
sg34
S'--'
p415
sg36
S'--'
p416
sg38
S'--'
p417
sg40
S'--'
p418
sg42
S'10/12'
p419
sg44
S'Logan Thomas'
p420
sg46
S'0.0'
p421
sg48
S'W30-20'
p422
sg50
S'2014'
p423
ssS'9'
p424
(dp425
g5
S'--'
p426
sg7
g424
sg9
S'--'
p427
sg11
S'--'
p428
sg13
S'--'
p429
sg15
S'--'
p430
sg17
S'--'
p431
sg19
S'--'
p432
sg21
S'@DAL'
p433
sg23
g24
sg25
S'--'
p434
sg27
S'--'
p435
sg29
S'--'
p436
sg31
g24
sg32
S'--'
p437
sg34
S'--'
p438
sg36
S'--'
p439
sg38
S'--'
p440
sg40
S'--'
p441
sg42
S'11/02'
p442
sg44
S'Logan Thomas'
p443
sg46
S'0.0'
p444
sg48
S'W28-17'
p445
sg50
S'2014'
p446
ssg355
(dp447
g5
S'--'
p448
sg7
g355
sg9
S'--'
p449
sg11
S'--'
p450
sg13
S'--'
p451
sg15
S'--'
p452
sg17
S'--'
p453
sg19
S'--'
p454
sg21
S'PHI'
p455
sg23
g24
sg25
S'--'
p456
sg27
S'--'
p457
sg29
S'--'
p458
sg31
g24
sg32
S'--'
p459
sg34
S'--'
p460
sg36
S'--'
p461
sg38
S'--'
p462
sg40
S'--'
p463
sg42
S'10/26'
p464
sg44
S'Logan Thomas'
p465
sg46
S'0.0'
p466
sg48
S'W24-20'
p467
sg50
S'2014'
p468
sss.