(dp0
S'2015'
p1
(dp2
S'11'
p3
(dp4
S'PassAtt'
p5
S'35'
p6
sS'WK'
p7
S'11'
p8
sS'RushAvg'
p9
S'5.8'
p10
sS'Pct'
p11
S'62.9'
p12
sS'RushAtt'
p13
S'5'
p14
sS'PassYds'
p15
S'231'
p16
sS'PassAvg'
p17
S'6.6'
p18
sS'FUM'
p19
S'--'
p20
sS'Opp'
p21
S'@JAC'
p22
sS'G'
p23
S'1'
p24
sS'Comp'
p25
S'22'
p26
sS'SckY'
p27
S'19'
p28
sS'RushYds'
p29
S'29'
p30
sS'GS'
p31
g24
sS'Lost'
p32
S'--'
p33
sS'RushTD'
p34
g24
sS'PassTD'
p35
S'0'
p36
sS'Sck'
p37
S'4'
p38
sS'Int'
p39
g36
sS'Game Date'
p40
S'11/19'
p41
sS'Player'
p42
S'Marcus Mariota'
p43
sS'Rate'
p44
S'82.0'
p45
sS'Result'
p46
S'L13-19'
p47
sS'Year'
p48
S'2015'
p49
ssS'10'
p50
(dp51
g5
S'24'
p52
sg7
S'10'
p53
sg9
S'4.8'
p54
sg11
S'66.7'
p55
sg13
g14
sg15
S'185'
p56
sg17
S'7.7'
p57
sg19
S'2'
p58
sg21
S'CAR'
p59
sg23
g24
sg25
S'16'
p60
sg27
S'7'
p61
sg29
S'24'
p62
sg31
g24
sg32
g36
sg34
g36
sg35
g36
sg37
g24
sg39
g24
sg40
S'11/15'
p63
sg42
S'Marcus Mariota'
p64
sg44
S'72.4'
p65
sg46
S'L10-27'
p66
sg48
S'2015'
p67
ssS'13'
p68
(dp69
g5
S'29'
p70
sg7
S'13'
p71
sg9
S'12.4'
p72
sg11
S'69.0'
p73
sg13
S'9'
p74
sg15
S'268'
p75
sg17
S'9.2'
p76
sg19
g24
sg21
S'JAC'
p77
sg23
g24
sg25
S'20'
p78
sg27
S'11'
p79
sg29
S'112'
p80
sg31
g24
sg32
g24
sg34
g24
sg35
S'3'
p81
sg37
g38
sg39
g24
sg40
S'12/06'
p82
sg42
S'Marcus Mariota'
p83
sg44
S'118.2'
p84
sg46
S'W42-39'
p85
sg48
S'2015'
p86
ssS'12'
p87
(dp88
g5
S'37'
p89
sg7
S'12'
p90
sg9
S'7.0'
p91
sg11
S'45.9'
p92
sg13
g24
sg15
S'218'
p93
sg17
S'5.9'
p94
sg19
S'--'
p95
sg21
S'OAK'
p96
sg23
g24
sg25
S'17'
p97
sg27
S'13'
p98
sg29
g61
sg31
g24
sg32
S'--'
p99
sg34
g36
sg35
g81
sg37
g58
sg39
g58
sg40
S'11/29'
p100
sg42
S'Marcus Mariota'
p101
sg44
S'69.4'
p102
sg46
S'L21-24'
p103
sg48
S'2015'
p104
ssS'15'
p105
(dp106
g5
S'6'
p107
sg7
S'15'
p108
sg9
S'--'
p109
sg11
S'50.0'
p110
sg13
S'--'
p111
sg15
S'32'
p112
sg17
S'5.3'
p113
sg19
g24
sg21
S'@NE'
p114
sg23
g24
sg25
g81
sg27
S'32'
p115
sg29
S'--'
p116
sg31
g24
sg32
g24
sg34
S'--'
p117
sg35
g36
sg37
g81
sg39
g36
sg40
S'12/20'
p118
sg42
S'Marcus Mariota'
p119
sg44
S'66.0'
p120
sg46
S'L16-33'
p121
sg48
S'2015'
p122
ssS'14'
p123
(dp124
g5
S'39'
p125
sg7
S'14'
p126
sg9
S'1.0'
p127
sg11
S'53.8'
p128
sg13
g81
sg15
S'274'
p129
sg17
S'7.0'
p130
sg19
g24
sg21
S'@NYJ'
p131
sg23
g24
sg25
S'21'
p132
sg27
S'47'
p133
sg29
g81
sg31
g24
sg32
g36
sg34
g36
sg35
g36
sg37
g14
sg39
g24
sg40
S'12/13'
p134
sg42
S'Marcus Mariota'
p135
sg44
S'65.5'
p136
sg46
S'L8-30'
p137
sg48
S'2015'
p138
ssS'17'
p139
(dp140
g5
S'--'
p141
sg7
S'17'
p142
sg9
S'--'
p143
sg11
S'--'
p144
sg13
S'--'
p145
sg15
S'--'
p146
sg17
S'--'
p147
sg19
S'--'
p148
sg21
S'@IND'
p149
sg23
g36
sg25
S'--'
p150
sg27
S'--'
p151
sg29
S'--'
p152
sg31
g36
sg32
S'--'
p153
sg34
S'--'
p154
sg35
S'--'
p155
sg37
S'--'
p156
sg39
S'--'
p157
sg40
S'01/03'
p158
sg42
S'Marcus Mariota'
p159
sg44
S'0.0'
p160
sg46
S'L24-30'
p161
sg48
S'2015'
p162
ssS'16'
p163
(dp164
g5
S'--'
p165
sg7
S'16'
p166
sg9
S'--'
p167
sg11
S'--'
p168
sg13
S'--'
p169
sg15
S'--'
p170
sg17
S'--'
p171
sg19
S'--'
p172
sg21
S'HOU'
p173
sg23
g36
sg25
S'--'
p174
sg27
S'--'
p175
sg29
S'--'
p176
sg31
g36
sg32
S'--'
p177
sg34
S'--'
p178
sg35
S'--'
p179
sg37
S'--'
p180
sg39
S'--'
p181
sg40
S'12/27'
p182
sg42
S'Marcus Mariota'
p183
sg44
S'0.0'
p184
sg46
S'L6-34'
p185
sg48
S'2015'
p186
ssg24
(dp187
g5
S'15'
p188
sg7
g24
sg9
S'3.0'
p189
sg11
S'86.7'
p190
sg13
g58
sg15
S'209'
p191
sg17
S'13.9'
p192
sg19
S'--'
p193
sg21
S'@TB'
p194
sg23
g24
sg25
S'13'
p195
sg27
S'24'
p196
sg29
g107
sg31
g24
sg32
S'--'
p197
sg34
g36
sg35
g38
sg37
g58
sg39
g36
sg40
S'09/13'
p198
sg42
S'Marcus Mariota'
p199
sg44
S'158.3'
p200
sg46
S'W42-14'
p201
sg48
S'2015'
p202
ssg81
(dp203
g5
S'44'
p204
sg7
g81
sg9
S'--'
p205
sg11
S'61.4'
p206
sg13
S'--'
p207
sg15
S'367'
p208
sg17
S'8.3'
p209
sg19
S'--'
p210
sg21
S'IND'
p211
sg23
g24
sg25
S'27'
p212
sg27
S'22'
p213
sg29
S'--'
p214
sg31
g24
sg32
S'--'
p215
sg34
S'--'
p216
sg35
g58
sg37
g81
sg39
g58
sg40
S'09/27'
p217
sg42
S'Marcus Mariota'
p218
sg44
S'84.2'
p219
sg46
S'L33-35'
p220
sg48
S'2015'
p221
ssg58
(dp222
g5
S'37'
p223
sg7
g58
sg9
S'6.3'
p224
sg11
S'56.8'
p225
sg13
g81
sg15
S'257'
p226
sg17
S'6.9'
p227
sg19
g81
sg21
S'@CLE'
p228
sg23
g24
sg25
S'21'
p229
sg27
S'38'
p230
sg29
S'19'
p231
sg31
g24
sg32
g58
sg34
g36
sg35
g58
sg37
g61
sg39
g36
sg40
S'09/20'
p232
sg42
S'Marcus Mariota'
p233
sg44
S'96.3'
p234
sg46
S'L14-28'
p235
sg48
S'2015'
p236
ssg14
(dp237
g5
S'32'
p238
sg7
g14
sg9
S'9.4'
p239
sg11
S'65.6'
p240
sg13
g14
sg15
S'187'
p241
sg17
S'5.8'
p242
sg19
S'--'
p243
sg21
S'BUF'
p244
sg23
g24
sg25
S'21'
p245
sg27
S'8'
p246
sg29
S'47'
p247
sg31
g24
sg32
S'--'
p248
sg34
g36
sg35
g36
sg37
g58
sg39
g24
sg40
S'10/11'
p249
sg42
S'Marcus Mariota'
p250
sg44
S'68.1'
p251
sg46
S'L13-14'
p252
sg48
S'2015'
p253
ssg38
(dp254
g5
S''
p255
sg7
g38
sg9
g255
sg11
g255
sg13
g255
sg15
g255
sg17
g255
sg19
g255
sg21
g255
sg23
g255
sg25
g255
sg27
g255
sg29
g255
sg31
g255
sg32
g255
sg34
g255
sg35
g255
sg37
g255
sg39
g255
sg40
S'Bye'
p256
sg42
S'Marcus Mariota'
p257
sg44
g255
sg46
g255
sg48
S'2015'
p258
ssg61
(dp259
g5
S'--'
p260
sg7
g61
sg9
S'--'
p261
sg11
S'--'
p262
sg13
S'--'
p263
sg15
S'--'
p264
sg17
S'--'
p265
sg19
S'--'
p266
sg21
S'ATL'
p267
sg23
g36
sg25
S'--'
p268
sg27
S'--'
p269
sg29
S'--'
p270
sg31
g36
sg32
S'--'
p271
sg34
S'--'
p272
sg35
S'--'
p273
sg37
S'--'
p274
sg39
S'--'
p275
sg40
S'10/25'
p276
sg42
S'Marcus Mariota'
p277
sg44
S'0.0'
p278
sg46
S'L7-10'
p279
sg48
S'2015'
p280
ssg107
(dp281
g5
S'33'
p282
sg7
g107
sg9
S'--'
p283
sg11
S'63.6'
p284
sg13
S'--'
p285
sg15
S'219'
p286
sg17
S'6.6'
p287
sg19
g58
sg21
S'MIA'
p288
sg23
g24
sg25
S'21'
p289
sg27
S'37'
p290
sg29
S'--'
p291
sg31
g24
sg32
g58
sg34
S'--'
p292
sg35
g24
sg37
g14
sg39
g58
sg40
S'10/18'
p293
sg42
S'Marcus Mariota'
p294
sg44
S'67.6'
p295
sg46
S'L10-38'
p296
sg48
S'2015'
p297
ssg74
(dp298
g5
S'39'
p299
sg7
g74
sg9
S'5.0'
p300
sg11
S'71.8'
p301
sg13
g24
sg15
S'371'
p302
sg17
S'9.5'
p303
sg19
S'--'
p304
sg21
S'@NO'
p305
sg23
g24
sg25
S'28'
p306
sg27
g36
sg29
g14
sg31
g24
sg32
S'--'
p307
sg34
g36
sg35
g38
sg37
g36
sg39
g36
sg40
S'11/08'
p308
sg42
S'Marcus Mariota'
p309
sg44
S'135.7'
p310
sg46
S'W34-28'
p311
sg48
S'2015'
p312
ssg246
(dp313
g5
S'--'
p314
sg7
g246
sg9
S'--'
p315
sg11
S'--'
p316
sg13
S'--'
p317
sg15
S'--'
p318
sg17
S'--'
p319
sg19
S'--'
p320
sg21
S'@HOU'
p321
sg23
g36
sg25
S'--'
p322
sg27
S'--'
p323
sg29
S'--'
p324
sg31
g36
sg32
S'--'
p325
sg34
S'--'
p326
sg35
S'--'
p327
sg37
S'--'
p328
sg39
S'--'
p329
sg40
S'11/01'
p330
sg42
S'Marcus Mariota'
p331
sg44
S'0.0'
p332
sg46
S'L6-20'
p333
sg48
S'2015'
p334
sss.