(dp0
S'2015'
p1
(dp2
S'11'
p3
(dp4
S'PassAtt'
p5
S'--'
p6
sS'WK'
p7
S'11'
p8
sS'RushAvg'
p9
S'--'
p10
sS'Pct'
p11
S'--'
p12
sS'RushAtt'
p13
S'--'
p14
sS'PassYds'
p15
S'--'
p16
sS'PassAvg'
p17
S'--'
p18
sS'FUM'
p19
S'--'
p20
sS'Opp'
p21
S'CIN'
p22
sS'G'
p23
S'0'
p24
sS'Comp'
p25
S'--'
p26
sS'SckY'
p27
S'--'
p28
sS'RushYds'
p29
S'--'
p30
sS'GS'
p31
g24
sS'Lost'
p32
S'--'
p33
sS'RushTD'
p34
S'--'
p35
sS'PassTD'
p36
S'--'
p37
sS'Sck'
p38
S'--'
p39
sS'Int'
p40
S'--'
p41
sS'Game Date'
p42
S'11/22'
p43
sS'Player'
p44
S'Matt Barkley'
p45
sS'Rate'
p46
S'0.0'
p47
sS'Result'
p48
S'W34-31'
p49
sS'Year'
p50
S'2015'
p51
ssS'10'
p52
(dp53
g5
S'--'
p54
sg7
S'10'
p55
sg9
S'--'
p56
sg11
S'--'
p57
sg13
S'--'
p58
sg15
S'--'
p59
sg17
S'--'
p60
sg19
S'--'
p61
sg21
S'@SEA'
p62
sg23
g24
sg25
S'--'
p63
sg27
S'--'
p64
sg29
S'--'
p65
sg31
g24
sg32
S'--'
p66
sg34
S'--'
p67
sg36
S'--'
p68
sg38
S'--'
p69
sg40
S'--'
p70
sg42
S'11/15'
p71
sg44
S'Matt Barkley'
p72
sg46
S'0.0'
p73
sg48
S'W39-32'
p74
sg50
S'2015'
p75
ssS'13'
p76
(dp77
g5
S'--'
p78
sg7
S'13'
p79
sg9
S'--'
p80
sg11
S'--'
p81
sg13
S'--'
p82
sg15
S'--'
p83
sg17
S'--'
p84
sg19
S'--'
p85
sg21
S'@STL'
p86
sg23
g24
sg25
S'--'
p87
sg27
S'--'
p88
sg29
S'--'
p89
sg31
g24
sg32
S'--'
p90
sg34
S'--'
p91
sg36
S'--'
p92
sg38
S'--'
p93
sg40
S'--'
p94
sg42
S'12/06'
p95
sg44
S'Matt Barkley'
p96
sg46
S'0.0'
p97
sg48
S'W27-3'
p98
sg50
S'2015'
p99
ssS'12'
p100
(dp101
g5
S'--'
p102
sg7
S'12'
p103
sg9
S'--'
p104
sg11
S'--'
p105
sg13
S'--'
p106
sg15
S'--'
p107
sg17
S'--'
p108
sg19
S'--'
p109
sg21
S'@SF'
p110
sg23
g24
sg25
S'--'
p111
sg27
S'--'
p112
sg29
S'--'
p113
sg31
g24
sg32
S'--'
p114
sg34
S'--'
p115
sg36
S'--'
p116
sg38
S'--'
p117
sg40
S'--'
p118
sg42
S'11/29'
p119
sg44
S'Matt Barkley'
p120
sg46
S'0.0'
p121
sg48
S'W19-13'
p122
sg50
S'2015'
p123
ssS'15'
p124
(dp125
g5
S'--'
p126
sg7
S'15'
p127
sg9
S'--'
p128
sg11
S'--'
p129
sg13
S'--'
p130
sg15
S'--'
p131
sg17
S'--'
p132
sg19
S'--'
p133
sg21
S'@PHI'
p134
sg23
g24
sg25
S'--'
p135
sg27
S'--'
p136
sg29
S'--'
p137
sg31
g24
sg32
S'--'
p138
sg34
S'--'
p139
sg36
S'--'
p140
sg38
S'--'
p141
sg40
S'--'
p142
sg42
S'12/20'
p143
sg44
S'Matt Barkley'
p144
sg46
S'0.0'
p145
sg48
S'W40-17'
p146
sg50
S'2015'
p147
ssS'14'
p148
(dp149
g5
S'--'
p150
sg7
S'14'
p151
sg9
S'--'
p152
sg11
S'--'
p153
sg13
S'--'
p154
sg15
S'--'
p155
sg17
S'--'
p156
sg19
S'--'
p157
sg21
S'MIN'
p158
sg23
g24
sg25
S'--'
p159
sg27
S'--'
p160
sg29
S'--'
p161
sg31
g24
sg32
S'--'
p162
sg34
S'--'
p163
sg36
S'--'
p164
sg38
S'--'
p165
sg40
S'--'
p166
sg42
S'12/10'
p167
sg44
S'Matt Barkley'
p168
sg46
S'0.0'
p169
sg48
S'W23-20'
p170
sg50
S'2015'
p171
ssS'17'
p172
(dp173
g5
S'--'
p174
sg7
S'17'
p175
sg9
S'--'
p176
sg11
S'--'
p177
sg13
S'--'
p178
sg15
S'--'
p179
sg17
S'--'
p180
sg19
S'--'
p181
sg21
S'SEA'
p182
sg23
g24
sg25
S'--'
p183
sg27
S'--'
p184
sg29
S'--'
p185
sg31
g24
sg32
S'--'
p186
sg34
S'--'
p187
sg36
S'--'
p188
sg38
S'--'
p189
sg40
S'--'
p190
sg42
S'01/03'
p191
sg44
S'Matt Barkley'
p192
sg46
S'0.0'
p193
sg48
S'L6-36'
p194
sg50
S'2015'
p195
ssS'16'
p196
(dp197
g5
S'--'
p198
sg7
S'16'
p199
sg9
S'--'
p200
sg11
S'--'
p201
sg13
S'--'
p202
sg15
S'--'
p203
sg17
S'--'
p204
sg19
S'--'
p205
sg21
S'GB'
p206
sg23
g24
sg25
S'--'
p207
sg27
S'--'
p208
sg29
S'--'
p209
sg31
g24
sg32
S'--'
p210
sg34
S'--'
p211
sg36
S'--'
p212
sg38
S'--'
p213
sg40
S'--'
p214
sg42
S'12/27'
p215
sg44
S'Matt Barkley'
p216
sg46
S'0.0'
p217
sg48
S'W38-8'
p218
sg50
S'2015'
p219
ssS'1'
p220
(dp221
g5
S'--'
p222
sg7
g220
sg9
S'--'
p223
sg11
S'--'
p224
sg13
S'--'
p225
sg15
S'--'
p226
sg17
S'--'
p227
sg19
S'--'
p228
sg21
S'NO'
p229
sg23
g24
sg25
S'--'
p230
sg27
S'--'
p231
sg29
S'--'
p232
sg31
g24
sg32
S'--'
p233
sg34
S'--'
p234
sg36
S'--'
p235
sg38
S'--'
p236
sg40
S'--'
p237
sg42
S'09/13'
p238
sg44
S'Matt Barkley'
p239
sg46
S'0.0'
p240
sg48
S'W31-19'
p241
sg50
S'2015'
p242
ssS'3'
p243
(dp244
g5
S'--'
p245
sg7
g243
sg9
S'--'
p246
sg11
S'--'
p247
sg13
S'--'
p248
sg15
S'--'
p249
sg17
S'--'
p250
sg19
S'--'
p251
sg21
S'SF'
p252
sg23
g24
sg25
S'--'
p253
sg27
S'--'
p254
sg29
S'--'
p255
sg31
g24
sg32
S'--'
p256
sg34
S'--'
p257
sg36
S'--'
p258
sg38
S'--'
p259
sg40
S'--'
p260
sg42
S'09/27'
p261
sg44
S'Matt Barkley'
p262
sg46
S'0.0'
p263
sg48
S'W47-7'
p264
sg50
S'2015'
p265
ssS'2'
p266
(dp267
g5
S'--'
p268
sg7
g266
sg9
S'--'
p269
sg11
S'--'
p270
sg13
S'--'
p271
sg15
S'--'
p272
sg17
S'--'
p273
sg19
S'--'
p274
sg21
S'@CHI'
p275
sg23
g24
sg25
S'--'
p276
sg27
S'--'
p277
sg29
S'--'
p278
sg31
g24
sg32
S'--'
p279
sg34
S'--'
p280
sg36
S'--'
p281
sg38
S'--'
p282
sg40
S'--'
p283
sg42
S'09/20'
p284
sg44
S'Matt Barkley'
p285
sg46
S'0.0'
p286
sg48
S'W48-23'
p287
sg50
S'2015'
p288
ssS'5'
p289
(dp290
g5
S'--'
p291
sg7
g289
sg9
S'--'
p292
sg11
S'--'
p293
sg13
S'--'
p294
sg15
S'--'
p295
sg17
S'--'
p296
sg19
S'--'
p297
sg21
S'@DET'
p298
sg23
g24
sg25
S'--'
p299
sg27
S'--'
p300
sg29
S'--'
p301
sg31
g24
sg32
S'--'
p302
sg34
S'--'
p303
sg36
S'--'
p304
sg38
S'--'
p305
sg40
S'--'
p306
sg42
S'10/11'
p307
sg44
S'Matt Barkley'
p308
sg46
S'0.0'
p309
sg48
S'W42-17'
p310
sg50
S'2015'
p311
ssS'4'
p312
(dp313
g5
S'--'
p314
sg7
g312
sg9
S'--'
p315
sg11
S'--'
p316
sg13
S'--'
p317
sg15
S'--'
p318
sg17
S'--'
p319
sg19
S'--'
p320
sg21
S'STL'
p321
sg23
g24
sg25
S'--'
p322
sg27
S'--'
p323
sg29
S'--'
p324
sg31
g24
sg32
S'--'
p325
sg34
S'--'
p326
sg36
S'--'
p327
sg38
S'--'
p328
sg40
S'--'
p329
sg42
S'10/04'
p330
sg44
S'Matt Barkley'
p331
sg46
S'0.0'
p332
sg48
S'L22-24'
p333
sg50
S'2015'
p334
ssS'7'
p335
(dp336
g5
S'--'
p337
sg7
g335
sg9
S'--'
p338
sg11
S'--'
p339
sg13
S'--'
p340
sg15
S'--'
p341
sg17
S'--'
p342
sg19
S'--'
p343
sg21
S'BAL'
p344
sg23
g24
sg25
S'--'
p345
sg27
S'--'
p346
sg29
S'--'
p347
sg31
g24
sg32
S'--'
p348
sg34
S'--'
p349
sg36
S'--'
p350
sg38
S'--'
p351
sg40
S'--'
p352
sg42
S'10/26'
p353
sg44
S'Matt Barkley'
p354
sg46
S'0.0'
p355
sg48
S'W26-18'
p356
sg50
S'2015'
p357
ssS'6'
p358
(dp359
g5
S'--'
p360
sg7
g358
sg9
S'--'
p361
sg11
S'--'
p362
sg13
S'--'
p363
sg15
S'--'
p364
sg17
S'--'
p365
sg19
S'--'
p366
sg21
S'@PIT'
p367
sg23
g24
sg25
S'--'
p368
sg27
S'--'
p369
sg29
S'--'
p370
sg31
g24
sg32
S'--'
p371
sg34
S'--'
p372
sg36
S'--'
p373
sg38
S'--'
p374
sg40
S'--'
p375
sg42
S'10/18'
p376
sg44
S'Matt Barkley'
p377
sg46
S'0.0'
p378
sg48
S'L13-25'
p379
sg50
S'2015'
p380
ssS'9'
p381
(dp382
g5
S''
p383
sg7
g381
sg9
g383
sg11
g383
sg13
g383
sg15
g383
sg17
g383
sg19
g383
sg21
g383
sg23
g383
sg25
g383
sg27
g383
sg29
g383
sg31
g383
sg32
g383
sg34
g383
sg36
g383
sg38
g383
sg40
g383
sg42
S'Bye'
p384
sg44
S'Matt Barkley'
p385
sg46
g383
sg48
g383
sg50
S'2015'
p386
ssS'8'
p387
(dp388
g5
S'--'
p389
sg7
g387
sg9
S'--'
p390
sg11
S'--'
p391
sg13
S'--'
p392
sg15
S'--'
p393
sg17
S'--'
p394
sg19
S'--'
p395
sg21
S'@CLE'
p396
sg23
g24
sg25
S'--'
p397
sg27
S'--'
p398
sg29
S'--'
p399
sg31
g24
sg32
S'--'
p400
sg34
S'--'
p401
sg36
S'--'
p402
sg38
S'--'
p403
sg40
S'--'
p404
sg42
S'11/01'
p405
sg44
S'Matt Barkley'
p406
sg46
S'0.0'
p407
sg48
S'W34-20'
p408
sg50
S'2015'
p409
sssS'2014'
p410
(dp411
g3
(dp412
g5
S'--'
p413
sg7
S'11'
p414
sg9
S'--'
p415
sg11
S'--'
p416
sg13
S'--'
p417
sg15
S'--'
p418
sg17
S'--'
p419
sg19
S'--'
p420
sg21
S'@GB'
p421
sg23
g24
sg25
S'--'
p422
sg27
S'--'
p423
sg29
S'--'
p424
sg31
g24
sg32
S'--'
p425
sg34
S'--'
p426
sg36
S'--'
p427
sg38
S'--'
p428
sg40
S'--'
p429
sg42
S'11/16'
p430
sg44
S'Matt Barkley'
p431
sg46
S'0.0'
p432
sg48
S'L20-53'
p433
sg50
S'2014'
p434
ssg52
(dp435
g5
g220
sg7
S'10'
p436
sg9
S'0.0'
p437
sg11
S'0.0'
p438
sg13
g243
sg15
g24
sg17
S'0.0'
p439
sg19
S'--'
p440
sg21
S'CAR'
p441
sg23
g220
sg25
g24
sg27
g24
sg29
g24
sg31
g24
sg32
S'--'
p442
sg34
g24
sg36
g24
sg38
g24
sg40
g24
sg42
S'11/10'
p443
sg44
S'Matt Barkley'
p444
sg46
S'39.6'
p445
sg48
S'W45-21'
p446
sg50
S'2014'
p447
ssg76
(dp448
g5
S'--'
p449
sg7
S'13'
p450
sg9
S'--'
p451
sg11
S'--'
p452
sg13
S'--'
p453
sg15
S'--'
p454
sg17
S'--'
p455
sg19
S'--'
p456
sg21
S'@DAL'
p457
sg23
g24
sg25
S'--'
p458
sg27
S'--'
p459
sg29
S'--'
p460
sg31
g24
sg32
S'--'
p461
sg34
S'--'
p462
sg36
S'--'
p463
sg38
S'--'
p464
sg40
S'--'
p465
sg42
S'11/27'
p466
sg44
S'Matt Barkley'
p467
sg46
S'0.0'
p468
sg48
S'W33-10'
p469
sg50
S'2014'
p470
ssg100
(dp471
g5
S'--'
p472
sg7
S'12'
p473
sg9
S'--'
p474
sg11
S'--'
p475
sg13
S'--'
p476
sg15
S'--'
p477
sg17
S'--'
p478
sg19
S'--'
p479
sg21
S'TEN'
p480
sg23
g24
sg25
S'--'
p481
sg27
S'--'
p482
sg29
S'--'
p483
sg31
g24
sg32
S'--'
p484
sg34
S'--'
p485
sg36
S'--'
p486
sg38
S'--'
p487
sg40
S'--'
p488
sg42
S'11/23'
p489
sg44
S'Matt Barkley'
p490
sg46
S'0.0'
p491
sg48
S'W43-24'
p492
sg50
S'2014'
p493
ssg124
(dp494
g5
S'--'
p495
sg7
S'15'
p496
sg9
S'--'
p497
sg11
S'--'
p498
sg13
S'--'
p499
sg15
S'--'
p500
sg17
S'--'
p501
sg19
S'--'
p502
sg21
S'DAL'
p503
sg23
g24
sg25
S'--'
p504
sg27
S'--'
p505
sg29
S'--'
p506
sg31
g24
sg32
S'--'
p507
sg34
S'--'
p508
sg36
S'--'
p509
sg38
S'--'
p510
sg40
S'--'
p511
sg42
S'12/14'
p512
sg44
S'Matt Barkley'
p513
sg46
S'0.0'
p514
sg48
S'L27-38'
p515
sg50
S'2014'
p516
ssg148
(dp517
g5
S'--'
p518
sg7
S'14'
p519
sg9
S'--'
p520
sg11
S'--'
p521
sg13
S'--'
p522
sg15
S'--'
p523
sg17
S'--'
p524
sg19
S'--'
p525
sg21
S'SEA'
p526
sg23
g24
sg25
S'--'
p527
sg27
S'--'
p528
sg29
S'--'
p529
sg31
g24
sg32
S'--'
p530
sg34
S'--'
p531
sg36
S'--'
p532
sg38
S'--'
p533
sg40
S'--'
p534
sg42
S'12/07'
p535
sg44
S'Matt Barkley'
p536
sg46
S'0.0'
p537
sg48
S'L14-24'
p538
sg50
S'2014'
p539
ssg172
(dp540
g5
S'--'
p541
sg7
S'17'
p542
sg9
S'--'
p543
sg11
S'--'
p544
sg13
S'--'
p545
sg15
S'--'
p546
sg17
S'--'
p547
sg19
S'--'
p548
sg21
S'@NYG'
p549
sg23
g24
sg25
S'--'
p550
sg27
S'--'
p551
sg29
S'--'
p552
sg31
g24
sg32
S'--'
p553
sg34
S'--'
p554
sg36
S'--'
p555
sg38
S'--'
p556
sg40
S'--'
p557
sg42
S'12/28'
p558
sg44
S'Matt Barkley'
p559
sg46
S'0.0'
p560
sg48
S'W34-26'
p561
sg50
S'2014'
p562
ssg196
(dp563
g5
S'--'
p564
sg7
S'16'
p565
sg9
S'--'
p566
sg11
S'--'
p567
sg13
S'--'
p568
sg15
S'--'
p569
sg17
S'--'
p570
sg19
S'--'
p571
sg21
S'@WAS'
p572
sg23
g24
sg25
S'--'
p573
sg27
S'--'
p574
sg29
S'--'
p575
sg31
g24
sg32
S'--'
p576
sg34
S'--'
p577
sg36
S'--'
p578
sg38
S'--'
p579
sg40
S'--'
p580
sg42
S'12/20'
p581
sg44
S'Matt Barkley'
p582
sg46
S'0.0'
p583
sg48
S'L24-27'
p584
sg50
S'2014'
p585
ssg220
(dp586
g5
S'--'
p587
sg7
g220
sg9
S'--'
p588
sg11
S'--'
p589
sg13
S'--'
p590
sg15
S'--'
p591
sg17
S'--'
p592
sg19
S'--'
p593
sg21
S'JAC'
p594
sg23
g24
sg25
S'--'
p595
sg27
S'--'
p596
sg29
S'--'
p597
sg31
g24
sg32
S'--'
p598
sg34
S'--'
p599
sg36
S'--'
p600
sg38
S'--'
p601
sg40
S'--'
p602
sg42
S'09/07'
p603
sg44
S'Matt Barkley'
p604
sg46
S'0.0'
p605
sg48
S'W34-17'
p606
sg50
S'2014'
p607
ssg243
(dp608
g5
S'--'
p609
sg7
g243
sg9
S'--'
p610
sg11
S'--'
p611
sg13
S'--'
p612
sg15
S'--'
p613
sg17
S'--'
p614
sg19
S'--'
p615
sg21
S'WAS'
p616
sg23
g24
sg25
S'--'
p617
sg27
S'--'
p618
sg29
S'--'
p619
sg31
g24
sg32
S'--'
p620
sg34
S'--'
p621
sg36
S'--'
p622
sg38
S'--'
p623
sg40
S'--'
p624
sg42
S'09/21'
p625
sg44
S'Matt Barkley'
p626
sg46
S'0.0'
p627
sg48
S'W37-34'
p628
sg50
S'2014'
p629
ssg266
(dp630
g5
S'--'
p631
sg7
g266
sg9
S'--'
p632
sg11
S'--'
p633
sg13
S'--'
p634
sg15
S'--'
p635
sg17
S'--'
p636
sg19
S'--'
p637
sg21
S'@IND'
p638
sg23
g24
sg25
S'--'
p639
sg27
S'--'
p640
sg29
S'--'
p641
sg31
g24
sg32
S'--'
p642
sg34
S'--'
p643
sg36
S'--'
p644
sg38
S'--'
p645
sg40
S'--'
p646
sg42
S'09/15'
p647
sg44
S'Matt Barkley'
p648
sg46
S'0.0'
p649
sg48
S'W30-27'
p650
sg50
S'2014'
p651
ssg289
(dp652
g5
S'--'
p653
sg7
g289
sg9
S'--'
p654
sg11
S'--'
p655
sg13
S'--'
p656
sg15
S'--'
p657
sg17
S'--'
p658
sg19
S'--'
p659
sg21
S'STL'
p660
sg23
g24
sg25
S'--'
p661
sg27
S'--'
p662
sg29
S'--'
p663
sg31
g24
sg32
S'--'
p664
sg34
S'--'
p665
sg36
S'--'
p666
sg38
S'--'
p667
sg40
S'--'
p668
sg42
S'10/05'
p669
sg44
S'Matt Barkley'
p670
sg46
S'0.0'
p671
sg48
S'W34-28'
p672
sg50
S'2014'
p673
ssg312
(dp674
g5
S'--'
p675
sg7
g312
sg9
S'--'
p676
sg11
S'--'
p677
sg13
S'--'
p678
sg15
S'--'
p679
sg17
S'--'
p680
sg19
S'--'
p681
sg21
S'@SF'
p682
sg23
g24
sg25
S'--'
p683
sg27
S'--'
p684
sg29
S'--'
p685
sg31
g24
sg32
S'--'
p686
sg34
S'--'
p687
sg36
S'--'
p688
sg38
S'--'
p689
sg40
S'--'
p690
sg42
S'09/28'
p691
sg44
S'Matt Barkley'
p692
sg46
S'0.0'
p693
sg48
S'L21-26'
p694
sg50
S'2014'
p695
ssg335
(dp696
g5
g383
sg7
g335
sg9
g383
sg11
g383
sg13
g383
sg15
g383
sg17
g383
sg19
g383
sg21
g383
sg23
g383
sg25
g383
sg27
g383
sg29
g383
sg31
g383
sg32
g383
sg34
g383
sg36
g383
sg38
g383
sg40
g383
sg42
S'Bye'
p697
sg44
S'Matt Barkley'
p698
sg46
g383
sg48
g383
sg50
S'2014'
p699
ssg358
(dp700
g5
S'--'
p701
sg7
g358
sg9
S'--'
p702
sg11
S'--'
p703
sg13
S'--'
p704
sg15
S'--'
p705
sg17
S'--'
p706
sg19
S'--'
p707
sg21
S'NYG'
p708
sg23
g24
sg25
S'--'
p709
sg27
S'--'
p710
sg29
S'--'
p711
sg31
g24
sg32
S'--'
p712
sg34
S'--'
p713
sg36
S'--'
p714
sg38
S'--'
p715
sg40
S'--'
p716
sg42
S'10/12'
p717
sg44
S'Matt Barkley'
p718
sg46
S'0.0'
p719
sg48
S'W27-0'
p720
sg50
S'2014'
p721
ssg381
(dp722
g5
S'--'
p723
sg7
g381
sg9
S'--'
p724
sg11
S'--'
p725
sg13
S'--'
p726
sg15
S'--'
p727
sg17
S'--'
p728
sg19
S'--'
p729
sg21
S'@HOU'
p730
sg23
g24
sg25
S'--'
p731
sg27
S'--'
p732
sg29
S'--'
p733
sg31
g24
sg32
S'--'
p734
sg34
S'--'
p735
sg36
S'--'
p736
sg38
S'--'
p737
sg40
S'--'
p738
sg42
S'11/02'
p739
sg44
S'Matt Barkley'
p740
sg46
S'0.0'
p741
sg48
S'W31-21'
p742
sg50
S'2014'
p743
ssg387
(dp744
g5
S'--'
p745
sg7
g387
sg9
S'--'
p746
sg11
S'--'
p747
sg13
S'--'
p748
sg15
S'--'
p749
sg17
S'--'
p750
sg19
S'--'
p751
sg21
S'@ARI'
p752
sg23
g24
sg25
S'--'
p753
sg27
S'--'
p754
sg29
S'--'
p755
sg31
g24
sg32
S'--'
p756
sg34
S'--'
p757
sg36
S'--'
p758
sg38
S'--'
p759
sg40
S'--'
p760
sg42
S'10/26'
p761
sg44
S'Matt Barkley'
p762
sg46
S'0.0'
p763
sg48
S'L20-24'
p764
sg50
S'2014'
p765
sssS'2013'
p766
(dp767
g3
(dp768
g5
S'--'
p769
sg7
S'11'
p770
sg9
S'--'
p771
sg11
S'--'
p772
sg13
S'--'
p773
sg15
S'--'
p774
sg17
S'--'
p775
sg19
S'--'
p776
sg21
S'WAS'
p777
sg23
g24
sg25
S'--'
p778
sg27
S'--'
p779
sg29
S'--'
p780
sg31
g24
sg32
S'--'
p781
sg34
S'--'
p782
sg36
S'--'
p783
sg38
S'--'
p784
sg40
S'--'
p785
sg42
S'11/17'
p786
sg44
S'Matt Barkley'
p787
sg46
S'0.0'
p788
sg48
S'W24-16'
p789
sg50
S'2013'
p790
ssg52
(dp791
g5
S'--'
p792
sg7
S'10'
p793
sg9
S'--'
p794
sg11
S'--'
p795
sg13
S'--'
p796
sg15
S'--'
p797
sg17
S'--'
p798
sg19
S'--'
p799
sg21
S'@GB'
p800
sg23
g24
sg25
S'--'
p801
sg27
S'--'
p802
sg29
S'--'
p803
sg31
g24
sg32
S'--'
p804
sg34
S'--'
p805
sg36
S'--'
p806
sg38
S'--'
p807
sg40
S'--'
p808
sg42
S'11/10'
p809
sg44
S'Matt Barkley'
p810
sg46
S'0.0'
p811
sg48
S'W27-13'
p812
sg50
S'2013'
p813
ssg76
(dp814
g5
S'--'
p815
sg7
S'13'
p816
sg9
S'--'
p817
sg11
S'--'
p818
sg13
S'--'
p819
sg15
S'--'
p820
sg17
S'--'
p821
sg19
S'--'
p822
sg21
S'ARI'
p823
sg23
g24
sg25
S'--'
p824
sg27
S'--'
p825
sg29
S'--'
p826
sg31
g24
sg32
S'--'
p827
sg34
S'--'
p828
sg36
S'--'
p829
sg38
S'--'
p830
sg40
S'--'
p831
sg42
S'12/01'
p832
sg44
S'Matt Barkley'
p833
sg46
S'0.0'
p834
sg48
S'W24-21'
p835
sg50
S'2013'
p836
ssg100
(dp837
g5
g383
sg7
S'12'
p838
sg9
g383
sg11
g383
sg13
g383
sg15
g383
sg17
g383
sg19
g383
sg21
g383
sg23
g383
sg25
g383
sg27
g383
sg29
g383
sg31
g383
sg32
g383
sg34
g383
sg36
g383
sg38
g383
sg40
g383
sg42
S'Bye'
p839
sg44
S'Matt Barkley'
p840
sg46
g383
sg48
g383
sg50
S'2013'
p841
ssg124
(dp842
g5
S'--'
p843
sg7
S'15'
p844
sg9
S'--'
p845
sg11
S'--'
p846
sg13
S'--'
p847
sg15
S'--'
p848
sg17
S'--'
p849
sg19
S'--'
p850
sg21
S'@MIN'
p851
sg23
g24
sg25
S'--'
p852
sg27
S'--'
p853
sg29
S'--'
p854
sg31
g24
sg32
S'--'
p855
sg34
S'--'
p856
sg36
S'--'
p857
sg38
S'--'
p858
sg40
S'--'
p859
sg42
S'12/15'
p860
sg44
S'Matt Barkley'
p861
sg46
S'0.0'
p862
sg48
S'L30-48'
p863
sg50
S'2013'
p864
ssg148
(dp865
g5
S'--'
p866
sg7
S'14'
p867
sg9
S'--'
p868
sg11
S'--'
p869
sg13
S'--'
p870
sg15
S'--'
p871
sg17
S'--'
p872
sg19
S'--'
p873
sg21
S'DET'
p874
sg23
g24
sg25
S'--'
p875
sg27
S'--'
p876
sg29
S'--'
p877
sg31
g24
sg32
S'--'
p878
sg34
S'--'
p879
sg36
S'--'
p880
sg38
S'--'
p881
sg40
S'--'
p882
sg42
S'12/08'
p883
sg44
S'Matt Barkley'
p884
sg46
S'0.0'
p885
sg48
S'W34-20'
p886
sg50
S'2013'
p887
ssg172
(dp888
g5
S'--'
p889
sg7
S'17'
p890
sg9
S'--'
p891
sg11
S'--'
p892
sg13
S'--'
p893
sg15
S'--'
p894
sg17
S'--'
p895
sg19
S'--'
p896
sg21
S'@DAL'
p897
sg23
g24
sg25
S'--'
p898
sg27
S'--'
p899
sg29
S'--'
p900
sg31
g24
sg32
S'--'
p901
sg34
S'--'
p902
sg36
S'--'
p903
sg38
S'--'
p904
sg40
S'--'
p905
sg42
S'12/29'
p906
sg44
S'Matt Barkley'
p907
sg46
S'0.0'
p908
sg48
S'W24-22'
p909
sg50
S'2013'
p910
ssg196
(dp911
g5
S'--'
p912
sg7
S'16'
p913
sg9
S'--'
p914
sg11
S'--'
p915
sg13
S'--'
p916
sg15
S'--'
p917
sg17
S'--'
p918
sg19
S'--'
p919
sg21
S'CHI'
p920
sg23
g24
sg25
S'--'
p921
sg27
S'--'
p922
sg29
S'--'
p923
sg31
g24
sg32
S'--'
p924
sg34
S'--'
p925
sg36
S'--'
p926
sg38
S'--'
p927
sg40
S'--'
p928
sg42
S'12/22'
p929
sg44
S'Matt Barkley'
p930
sg46
S'0.0'
p931
sg48
S'W54-11'
p932
sg50
S'2013'
p933
ssg220
(dp934
g5
S'--'
p935
sg7
g220
sg9
S'--'
p936
sg11
S'--'
p937
sg13
S'--'
p938
sg15
S'--'
p939
sg17
S'--'
p940
sg19
S'--'
p941
sg21
S'@WAS'
p942
sg23
g24
sg25
S'--'
p943
sg27
S'--'
p944
sg29
S'--'
p945
sg31
g24
sg32
S'--'
p946
sg34
S'--'
p947
sg36
S'--'
p948
sg38
S'--'
p949
sg40
S'--'
p950
sg42
S'09/09'
p951
sg44
S'Matt Barkley'
p952
sg46
S'0.0'
p953
sg48
S'W33-27'
p954
sg50
S'2013'
p955
ssg243
(dp956
g5
S'--'
p957
sg7
g243
sg9
S'--'
p958
sg11
S'--'
p959
sg13
S'--'
p960
sg15
S'--'
p961
sg17
S'--'
p962
sg19
S'--'
p963
sg21
S'KC'
p964
sg23
g24
sg25
S'--'
p965
sg27
S'--'
p966
sg29
S'--'
p967
sg31
g24
sg32
S'--'
p968
sg34
S'--'
p969
sg36
S'--'
p970
sg38
S'--'
p971
sg40
S'--'
p972
sg42
S'09/19'
p973
sg44
S'Matt Barkley'
p974
sg46
S'0.0'
p975
sg48
S'L16-26'
p976
sg50
S'2013'
p977
ssg266
(dp978
g5
S'--'
p979
sg7
g266
sg9
S'--'
p980
sg11
S'--'
p981
sg13
S'--'
p982
sg15
S'--'
p983
sg17
S'--'
p984
sg19
S'--'
p985
sg21
S'SD'
p986
sg23
g24
sg25
S'--'
p987
sg27
S'--'
p988
sg29
S'--'
p989
sg31
g24
sg32
S'--'
p990
sg34
S'--'
p991
sg36
S'--'
p992
sg38
S'--'
p993
sg40
S'--'
p994
sg42
S'09/15'
p995
sg44
S'Matt Barkley'
p996
sg46
S'0.0'
p997
sg48
S'L30-33'
p998
sg50
S'2013'
p999
ssg289
(dp1000
g5
S'--'
p1001
sg7
g289
sg9
S'--'
p1002
sg11
S'--'
p1003
sg13
S'--'
p1004
sg15
S'--'
p1005
sg17
S'--'
p1006
sg19
S'--'
p1007
sg21
S'@NYG'
p1008
sg23
g24
sg25
S'--'
p1009
sg27
S'--'
p1010
sg29
S'--'
p1011
sg31
g24
sg32
S'--'
p1012
sg34
S'--'
p1013
sg36
S'--'
p1014
sg38
S'--'
p1015
sg40
S'--'
p1016
sg42
S'10/06'
p1017
sg44
S'Matt Barkley'
p1018
sg46
S'0.0'
p1019
sg48
S'W36-21'
p1020
sg50
S'2013'
p1021
ssg312
(dp1022
g5
S'--'
p1023
sg7
g312
sg9
S'--'
p1024
sg11
S'--'
p1025
sg13
S'--'
p1026
sg15
S'--'
p1027
sg17
S'--'
p1028
sg19
S'--'
p1029
sg21
S'@DEN'
p1030
sg23
g24
sg25
S'--'
p1031
sg27
S'--'
p1032
sg29
S'--'
p1033
sg31
g24
sg32
S'--'
p1034
sg34
S'--'
p1035
sg36
S'--'
p1036
sg38
S'--'
p1037
sg40
S'--'
p1038
sg42
S'09/29'
p1039
sg44
S'Matt Barkley'
p1040
sg46
S'0.0'
p1041
sg48
S'L20-52'
p1042
sg50
S'2013'
p1043
ssg335
(dp1044
g5
S'20'
p1045
sg7
g335
sg9
S'--'
p1046
sg11
S'55.0'
p1047
sg13
S'--'
p1048
sg15
S'129'
p1049
sg17
S'6.5'
p1050
sg19
S'--'
p1051
sg21
S'DAL'
p1052
sg23
g220
sg25
S'11'
p1053
sg27
g24
sg29
S'--'
p1054
sg31
g24
sg32
S'--'
p1055
sg34
S'--'
p1056
sg36
g24
sg38
g24
sg40
g243
sg42
S'10/20'
p1057
sg44
S'Matt Barkley'
p1058
sg46
S'35.2'
p1059
sg48
S'L3-17'
p1060
sg50
S'2013'
p1061
ssg358
(dp1062
g5
S'--'
p1063
sg7
g358
sg9
S'--'
p1064
sg11
S'--'
p1065
sg13
S'--'
p1066
sg15
S'--'
p1067
sg17
S'--'
p1068
sg19
S'--'
p1069
sg21
S'@TB'
p1070
sg23
g24
sg25
S'--'
p1071
sg27
S'--'
p1072
sg29
S'--'
p1073
sg31
g24
sg32
S'--'
p1074
sg34
S'--'
p1075
sg36
S'--'
p1076
sg38
S'--'
p1077
sg40
S'--'
p1078
sg42
S'10/13'
p1079
sg44
S'Matt Barkley'
p1080
sg46
S'0.0'
p1081
sg48
S'W31-20'
p1082
sg50
S'2013'
p1083
ssg381
(dp1084
g5
g243
sg7
g381
sg9
S'-1.0'
p1085
sg11
S'66.7'
p1086
sg13
g266
sg15
S'13'
p1087
sg17
S'4.3'
p1088
sg19
S'--'
p1089
sg21
S'@OAK'
p1090
sg23
g220
sg25
g266
sg27
g24
sg29
S'-2'
p1091
sg31
g24
sg32
S'--'
p1092
sg34
g24
sg36
g24
sg38
g24
sg40
g24
sg42
S'11/03'
p1093
sg44
S'Matt Barkley'
p1094
sg46
S'75.7'
p1095
sg48
S'W49-20'
p1096
sg50
S'2013'
p1097
ssg387
(dp1098
g5
S'26'
p1099
sg7
g387
sg9
S'--'
p1100
sg11
S'65.4'
p1101
sg13
S'--'
p1102
sg15
S'158'
p1103
sg17
S'6.1'
p1104
sg19
g243
sg21
S'NYG'
p1105
sg23
g220
sg25
S'17'
p1106
sg27
S'24'
p1107
sg29
S'--'
p1108
sg31
g24
sg32
g220
sg34
S'--'
p1109
sg36
g24
sg38
g243
sg40
g220
sg42
S'10/27'
p1110
sg44
S'Matt Barkley'
p1111
sg46
S'65.9'
p1112
sg48
S'L7-15'
p1113
sg50
S'2013'
p1114
sss.