(dp0
S'2015'
p1
(dp2
S'11'
p3
(dp4
S'PassAtt'
p5
S'--'
p6
sS'WK'
p7
S'11'
p8
sS'RushAvg'
p9
S'--'
p10
sS'Pct'
p11
S'--'
p12
sS'RushAtt'
p13
S'--'
p14
sS'PassYds'
p15
S'--'
p16
sS'PassAvg'
p17
S'--'
p18
sS'FUM'
p19
S'--'
p20
sS'Opp'
p21
S'DAL'
p22
sS'G'
p23
S'0'
p24
sS'Comp'
p25
S'--'
p26
sS'SckY'
p27
S'--'
p28
sS'RushYds'
p29
S'--'
p30
sS'GS'
p31
g24
sS'Lost'
p32
S'--'
p33
sS'RushTD'
p34
S'--'
p35
sS'PassTD'
p36
S'--'
p37
sS'Sck'
p38
S'--'
p39
sS'Int'
p40
S'--'
p41
sS'Game Date'
p42
S'11/22'
p43
sS'Player'
p44
S'Matt Moore'
p45
sS'Rate'
p46
S'0.0'
p47
sS'Result'
p48
S'L14-24'
p49
sS'Year'
p50
S'2015'
p51
ssS'10'
p52
(dp53
g5
S'--'
p54
sg7
S'10'
p55
sg9
S'--'
p56
sg11
S'--'
p57
sg13
S'--'
p58
sg15
S'--'
p59
sg17
S'--'
p60
sg19
S'--'
p61
sg21
S'@PHI'
p62
sg23
g24
sg25
S'--'
p63
sg27
S'--'
p64
sg29
S'--'
p65
sg31
g24
sg32
S'--'
p66
sg34
S'--'
p67
sg36
S'--'
p68
sg38
S'--'
p69
sg40
S'--'
p70
sg42
S'11/15'
p71
sg44
S'Matt Moore'
p72
sg46
S'0.0'
p73
sg48
S'W20-19'
p74
sg50
S'2015'
p75
ssS'13'
p76
(dp77
g5
S'--'
p78
sg7
S'13'
p79
sg9
S'--'
p80
sg11
S'--'
p81
sg13
S'--'
p82
sg15
S'--'
p83
sg17
S'--'
p84
sg19
S'--'
p85
sg21
S'BAL'
p86
sg23
g24
sg25
S'--'
p87
sg27
S'--'
p88
sg29
S'--'
p89
sg31
g24
sg32
S'--'
p90
sg34
S'--'
p91
sg36
S'--'
p92
sg38
S'--'
p93
sg40
S'--'
p94
sg42
S'12/06'
p95
sg44
S'Matt Moore'
p96
sg46
S'0.0'
p97
sg48
S'W15-13'
p98
sg50
S'2015'
p99
ssS'12'
p100
(dp101
g5
S'--'
p102
sg7
S'12'
p103
sg9
S'--'
p104
sg11
S'--'
p105
sg13
S'--'
p106
sg15
S'--'
p107
sg17
S'--'
p108
sg19
S'--'
p109
sg21
S'@NYJ'
p110
sg23
g24
sg25
S'--'
p111
sg27
S'--'
p112
sg29
S'--'
p113
sg31
g24
sg32
S'--'
p114
sg34
S'--'
p115
sg36
S'--'
p116
sg38
S'--'
p117
sg40
S'--'
p118
sg42
S'11/29'
p119
sg44
S'Matt Moore'
p120
sg46
S'0.0'
p121
sg48
S'L20-38'
p122
sg50
S'2015'
p123
ssS'15'
p124
(dp125
g5
S'--'
p126
sg7
S'15'
p127
sg9
S'--'
p128
sg11
S'--'
p129
sg13
S'--'
p130
sg15
S'--'
p131
sg17
S'--'
p132
sg19
S'--'
p133
sg21
S'@SD'
p134
sg23
g24
sg25
S'--'
p135
sg27
S'--'
p136
sg29
S'--'
p137
sg31
g24
sg32
S'--'
p138
sg34
S'--'
p139
sg36
S'--'
p140
sg38
S'--'
p141
sg40
S'--'
p142
sg42
S'12/20'
p143
sg44
S'Matt Moore'
p144
sg46
S'0.0'
p145
sg48
S'L14-30'
p146
sg50
S'2015'
p147
ssS'14'
p148
(dp149
g5
S'--'
p150
sg7
S'14'
p151
sg9
S'--'
p152
sg11
S'--'
p153
sg13
S'--'
p154
sg15
S'--'
p155
sg17
S'--'
p156
sg19
S'--'
p157
sg21
S'NYG'
p158
sg23
g24
sg25
S'--'
p159
sg27
S'--'
p160
sg29
S'--'
p161
sg31
g24
sg32
S'--'
p162
sg34
S'--'
p163
sg36
S'--'
p164
sg38
S'--'
p165
sg40
S'--'
p166
sg42
S'12/14'
p167
sg44
S'Matt Moore'
p168
sg46
S'0.0'
p169
sg48
S'L24-31'
p170
sg50
S'2015'
p171
ssS'17'
p172
(dp173
g5
S'--'
p174
sg7
S'17'
p175
sg9
S'--'
p176
sg11
S'--'
p177
sg13
S'--'
p178
sg15
S'--'
p179
sg17
S'--'
p180
sg19
S'--'
p181
sg21
S'NE'
p182
sg23
g24
sg25
S'--'
p183
sg27
S'--'
p184
sg29
S'--'
p185
sg31
g24
sg32
S'--'
p186
sg34
S'--'
p187
sg36
S'--'
p188
sg38
S'--'
p189
sg40
S'--'
p190
sg42
S'01/03'
p191
sg44
S'Matt Moore'
p192
sg46
S'0.0'
p193
sg48
S'W20-10'
p194
sg50
S'2015'
p195
ssS'16'
p196
(dp197
g5
S'--'
p198
sg7
S'16'
p199
sg9
S'--'
p200
sg11
S'--'
p201
sg13
S'--'
p202
sg15
S'--'
p203
sg17
S'--'
p204
sg19
S'--'
p205
sg21
S'IND'
p206
sg23
g24
sg25
S'--'
p207
sg27
S'--'
p208
sg29
S'--'
p209
sg31
g24
sg32
S'--'
p210
sg34
S'--'
p211
sg36
S'--'
p212
sg38
S'--'
p213
sg40
S'--'
p214
sg42
S'12/27'
p215
sg44
S'Matt Moore'
p216
sg46
S'0.0'
p217
sg48
S'L12-18'
p218
sg50
S'2015'
p219
ssS'1'
p220
(dp221
g5
S'--'
p222
sg7
g220
sg9
S'--'
p223
sg11
S'--'
p224
sg13
S'--'
p225
sg15
S'--'
p226
sg17
S'--'
p227
sg19
S'--'
p228
sg21
S'@WAS'
p229
sg23
g24
sg25
S'--'
p230
sg27
S'--'
p231
sg29
S'--'
p232
sg31
g24
sg32
S'--'
p233
sg34
S'--'
p234
sg36
S'--'
p235
sg38
S'--'
p236
sg40
S'--'
p237
sg42
S'09/13'
p238
sg44
S'Matt Moore'
p239
sg46
S'0.0'
p240
sg48
S'W17-10'
p241
sg50
S'2015'
p242
ssS'3'
p243
(dp244
g5
S'--'
p245
sg7
g243
sg9
S'--'
p246
sg11
S'--'
p247
sg13
S'--'
p248
sg15
S'--'
p249
sg17
S'--'
p250
sg19
S'--'
p251
sg21
S'BUF'
p252
sg23
g24
sg25
S'--'
p253
sg27
S'--'
p254
sg29
S'--'
p255
sg31
g24
sg32
S'--'
p256
sg34
S'--'
p257
sg36
S'--'
p258
sg38
S'--'
p259
sg40
S'--'
p260
sg42
S'09/27'
p261
sg44
S'Matt Moore'
p262
sg46
S'0.0'
p263
sg48
S'L14-41'
p264
sg50
S'2015'
p265
ssS'2'
p266
(dp267
g5
S'--'
p268
sg7
g266
sg9
S'--'
p269
sg11
S'--'
p270
sg13
S'--'
p271
sg15
S'--'
p272
sg17
S'--'
p273
sg19
S'--'
p274
sg21
S'@JAC'
p275
sg23
g24
sg25
S'--'
p276
sg27
S'--'
p277
sg29
S'--'
p278
sg31
g24
sg32
S'--'
p279
sg34
S'--'
p280
sg36
S'--'
p281
sg38
S'--'
p282
sg40
S'--'
p283
sg42
S'09/20'
p284
sg44
S'Matt Moore'
p285
sg46
S'0.0'
p286
sg48
S'L20-23'
p287
sg50
S'2015'
p288
ssS'5'
p289
(dp290
g5
S''
p291
sg7
g289
sg9
g291
sg11
g291
sg13
g291
sg15
g291
sg17
g291
sg19
g291
sg21
g291
sg23
g291
sg25
g291
sg27
g291
sg29
g291
sg31
g291
sg32
g291
sg34
g291
sg36
g291
sg38
g291
sg40
g291
sg42
S'Bye'
p292
sg44
S'Matt Moore'
p293
sg46
g291
sg48
g291
sg50
S'2015'
p294
ssS'4'
p295
(dp296
g5
S'--'
p297
sg7
g295
sg9
S'--'
p298
sg11
S'--'
p299
sg13
S'--'
p300
sg15
S'--'
p301
sg17
S'--'
p302
sg19
S'--'
p303
sg21
S'NYJ'
p304
sg23
g24
sg25
S'--'
p305
sg27
S'--'
p306
sg29
S'--'
p307
sg31
g24
sg32
S'--'
p308
sg34
S'--'
p309
sg36
S'--'
p310
sg38
S'--'
p311
sg40
S'--'
p312
sg42
S'10/04'
p313
sg44
S'Matt Moore'
p314
sg46
S'0.0'
p315
sg48
S'L14-27'
p316
sg50
S'2015'
p317
ssS'7'
p318
(dp319
g5
g220
sg7
g318
sg9
S'-0.7'
p320
sg11
S'100.0'
p321
sg13
g243
sg15
S'14'
p322
sg17
S'14.0'
p323
sg19
S'--'
p324
sg21
S'HOU'
p325
sg23
g220
sg25
g220
sg27
g24
sg29
S'-2'
p326
sg31
g24
sg32
S'--'
p327
sg34
g24
sg36
g24
sg38
g24
sg40
g24
sg42
S'10/25'
p328
sg44
S'Matt Moore'
p329
sg46
S'118.8'
p330
sg48
S'W44-26'
p331
sg50
S'2015'
p332
ssS'6'
p333
(dp334
g5
S'--'
p335
sg7
g333
sg9
S'--'
p336
sg11
S'--'
p337
sg13
S'--'
p338
sg15
S'--'
p339
sg17
S'--'
p340
sg19
S'--'
p341
sg21
S'@TEN'
p342
sg23
g24
sg25
S'--'
p343
sg27
S'--'
p344
sg29
S'--'
p345
sg31
g24
sg32
S'--'
p346
sg34
S'--'
p347
sg36
S'--'
p348
sg38
S'--'
p349
sg40
S'--'
p350
sg42
S'10/18'
p351
sg44
S'Matt Moore'
p352
sg46
S'0.0'
p353
sg48
S'W38-10'
p354
sg50
S'2015'
p355
ssS'9'
p356
(dp357
g5
S'--'
p358
sg7
g356
sg9
S'--'
p359
sg11
S'--'
p360
sg13
S'--'
p361
sg15
S'--'
p362
sg17
S'--'
p363
sg19
S'--'
p364
sg21
S'@BUF'
p365
sg23
g24
sg25
S'--'
p366
sg27
S'--'
p367
sg29
S'--'
p368
sg31
g24
sg32
S'--'
p369
sg34
S'--'
p370
sg36
S'--'
p371
sg38
S'--'
p372
sg40
S'--'
p373
sg42
S'11/08'
p374
sg44
S'Matt Moore'
p375
sg46
S'0.0'
p376
sg48
S'L17-33'
p377
sg50
S'2015'
p378
ssS'8'
p379
(dp380
g5
S'--'
p381
sg7
g379
sg9
S'--'
p382
sg11
S'--'
p383
sg13
S'--'
p384
sg15
S'--'
p385
sg17
S'--'
p386
sg19
S'--'
p387
sg21
S'@NE'
p388
sg23
g24
sg25
S'--'
p389
sg27
S'--'
p390
sg29
S'--'
p391
sg31
g24
sg32
S'--'
p392
sg34
S'--'
p393
sg36
S'--'
p394
sg38
S'--'
p395
sg40
S'--'
p396
sg42
S'10/29'
p397
sg44
S'Matt Moore'
p398
sg46
S'0.0'
p399
sg48
S'L7-36'
p400
sg50
S'2015'
p401
sssS'2014'
p402
(dp403
g3
(dp404
g5
S'--'
p405
sg7
S'11'
p406
sg9
S'--'
p407
sg11
S'--'
p408
sg13
S'--'
p409
sg15
S'--'
p410
sg17
S'--'
p411
sg19
S'--'
p412
sg21
S'BUF'
p413
sg23
g24
sg25
S'--'
p414
sg27
S'--'
p415
sg29
S'--'
p416
sg31
g24
sg32
S'--'
p417
sg34
S'--'
p418
sg36
S'--'
p419
sg38
S'--'
p420
sg40
S'--'
p421
sg42
S'11/13'
p422
sg44
S'Matt Moore'
p423
sg46
S'0.0'
p424
sg48
S'W22-9'
p425
sg50
S'2014'
p426
ssg52
(dp427
g5
S'--'
p428
sg7
S'10'
p429
sg9
S'--'
p430
sg11
S'--'
p431
sg13
S'--'
p432
sg15
S'--'
p433
sg17
S'--'
p434
sg19
S'--'
p435
sg21
S'@DET'
p436
sg23
g24
sg25
S'--'
p437
sg27
S'--'
p438
sg29
S'--'
p439
sg31
g24
sg32
S'--'
p440
sg34
S'--'
p441
sg36
S'--'
p442
sg38
S'--'
p443
sg40
S'--'
p444
sg42
S'11/09'
p445
sg44
S'Matt Moore'
p446
sg46
S'0.0'
p447
sg48
S'L16-20'
p448
sg50
S'2014'
p449
ssg76
(dp450
g5
S'--'
p451
sg7
S'13'
p452
sg9
S'--'
p453
sg11
S'--'
p454
sg13
S'--'
p455
sg15
S'--'
p456
sg17
S'--'
p457
sg19
S'--'
p458
sg21
S'@NYJ'
p459
sg23
g24
sg25
S'--'
p460
sg27
S'--'
p461
sg29
S'--'
p462
sg31
g24
sg32
S'--'
p463
sg34
S'--'
p464
sg36
S'--'
p465
sg38
S'--'
p466
sg40
S'--'
p467
sg42
S'12/01'
p468
sg44
S'Matt Moore'
p469
sg46
S'0.0'
p470
sg48
S'W16-13'
p471
sg50
S'2014'
p472
ssg100
(dp473
g5
S'--'
p474
sg7
S'12'
p475
sg9
S'--'
p476
sg11
S'--'
p477
sg13
S'--'
p478
sg15
S'--'
p479
sg17
S'--'
p480
sg19
S'--'
p481
sg21
S'@DEN'
p482
sg23
g24
sg25
S'--'
p483
sg27
S'--'
p484
sg29
S'--'
p485
sg31
g24
sg32
S'--'
p486
sg34
S'--'
p487
sg36
S'--'
p488
sg38
S'--'
p489
sg40
S'--'
p490
sg42
S'11/23'
p491
sg44
S'Matt Moore'
p492
sg46
S'0.0'
p493
sg48
S'L36-39'
p494
sg50
S'2014'
p495
ssg124
(dp496
g5
S'--'
p497
sg7
S'15'
p498
sg9
S'--'
p499
sg11
S'--'
p500
sg13
S'--'
p501
sg15
S'--'
p502
sg17
S'--'
p503
sg19
S'--'
p504
sg21
S'@NE'
p505
sg23
g24
sg25
S'--'
p506
sg27
S'--'
p507
sg29
S'--'
p508
sg31
g24
sg32
S'--'
p509
sg34
S'--'
p510
sg36
S'--'
p511
sg38
S'--'
p512
sg40
S'--'
p513
sg42
S'12/14'
p514
sg44
S'Matt Moore'
p515
sg46
S'0.0'
p516
sg48
S'L13-41'
p517
sg50
S'2014'
p518
ssg148
(dp519
g5
S'--'
p520
sg7
S'14'
p521
sg9
S'--'
p522
sg11
S'--'
p523
sg13
S'--'
p524
sg15
S'--'
p525
sg17
S'--'
p526
sg19
S'--'
p527
sg21
S'BAL'
p528
sg23
g24
sg25
S'--'
p529
sg27
S'--'
p530
sg29
S'--'
p531
sg31
g24
sg32
S'--'
p532
sg34
S'--'
p533
sg36
S'--'
p534
sg38
S'--'
p535
sg40
S'--'
p536
sg42
S'12/07'
p537
sg44
S'Matt Moore'
p538
sg46
S'0.0'
p539
sg48
S'L13-28'
p540
sg50
S'2014'
p541
ssg172
(dp542
g5
S'--'
p543
sg7
S'17'
p544
sg9
S'--'
p545
sg11
S'--'
p546
sg13
S'--'
p547
sg15
S'--'
p548
sg17
S'--'
p549
sg19
S'--'
p550
sg21
S'NYJ'
p551
sg23
g24
sg25
S'--'
p552
sg27
S'--'
p553
sg29
S'--'
p554
sg31
g24
sg32
S'--'
p555
sg34
S'--'
p556
sg36
S'--'
p557
sg38
S'--'
p558
sg40
S'--'
p559
sg42
S'12/28'
p560
sg44
S'Matt Moore'
p561
sg46
S'0.0'
p562
sg48
S'L24-37'
p563
sg50
S'2014'
p564
ssg196
(dp565
g5
S'--'
p566
sg7
S'16'
p567
sg9
S'--'
p568
sg11
S'--'
p569
sg13
S'--'
p570
sg15
S'--'
p571
sg17
S'--'
p572
sg19
S'--'
p573
sg21
S'MIN'
p574
sg23
g24
sg25
S'--'
p575
sg27
S'--'
p576
sg29
S'--'
p577
sg31
g24
sg32
S'--'
p578
sg34
S'--'
p579
sg36
S'--'
p580
sg38
S'--'
p581
sg40
S'--'
p582
sg42
S'12/21'
p583
sg44
S'Matt Moore'
p584
sg46
S'0.0'
p585
sg48
S'W37-35'
p586
sg50
S'2014'
p587
ssg220
(dp588
g5
S'--'
p589
sg7
g220
sg9
S'--'
p590
sg11
S'--'
p591
sg13
S'--'
p592
sg15
S'--'
p593
sg17
S'--'
p594
sg19
S'--'
p595
sg21
S'NE'
p596
sg23
g24
sg25
S'--'
p597
sg27
S'--'
p598
sg29
S'--'
p599
sg31
g24
sg32
S'--'
p600
sg34
S'--'
p601
sg36
S'--'
p602
sg38
S'--'
p603
sg40
S'--'
p604
sg42
S'09/07'
p605
sg44
S'Matt Moore'
p606
sg46
S'0.0'
p607
sg48
S'W33-20'
p608
sg50
S'2014'
p609
ssg243
(dp610
g5
S'--'
p611
sg7
g243
sg9
S'--'
p612
sg11
S'--'
p613
sg13
S'--'
p614
sg15
S'--'
p615
sg17
S'--'
p616
sg19
S'--'
p617
sg21
S'KC'
p618
sg23
g24
sg25
S'--'
p619
sg27
S'--'
p620
sg29
S'--'
p621
sg31
g24
sg32
S'--'
p622
sg34
S'--'
p623
sg36
S'--'
p624
sg38
S'--'
p625
sg40
S'--'
p626
sg42
S'09/21'
p627
sg44
S'Matt Moore'
p628
sg46
S'0.0'
p629
sg48
S'L15-34'
p630
sg50
S'2014'
p631
ssg266
(dp632
g5
S'--'
p633
sg7
g266
sg9
S'--'
p634
sg11
S'--'
p635
sg13
S'--'
p636
sg15
S'--'
p637
sg17
S'--'
p638
sg19
S'--'
p639
sg21
S'@BUF'
p640
sg23
g24
sg25
S'--'
p641
sg27
S'--'
p642
sg29
S'--'
p643
sg31
g24
sg32
S'--'
p644
sg34
S'--'
p645
sg36
S'--'
p646
sg38
S'--'
p647
sg40
S'--'
p648
sg42
S'09/14'
p649
sg44
S'Matt Moore'
p650
sg46
S'0.0'
p651
sg48
S'L10-29'
p652
sg50
S'2014'
p653
ssg289
(dp654
g5
g291
sg7
g289
sg9
g291
sg11
g291
sg13
g291
sg15
g291
sg17
g291
sg19
g291
sg21
g291
sg23
g291
sg25
g291
sg27
g291
sg29
g291
sg31
g291
sg32
g291
sg34
g291
sg36
g291
sg38
g291
sg40
g291
sg42
S'Bye'
p655
sg44
S'Matt Moore'
p656
sg46
g291
sg48
g291
sg50
S'2014'
p657
ssg295
(dp658
g5
S'--'
p659
sg7
g295
sg9
S'-1.0'
p660
sg11
S'--'
p661
sg13
g266
sg15
S'--'
p662
sg17
S'--'
p663
sg19
S'--'
p664
sg21
S'@OAK'
p665
sg23
g220
sg25
S'--'
p666
sg27
S'--'
p667
sg29
S'-2'
p668
sg31
g24
sg32
S'--'
p669
sg34
g24
sg36
S'--'
p670
sg38
S'--'
p671
sg40
S'--'
p672
sg42
S'09/28'
p673
sg44
S'Matt Moore'
p674
sg46
S'0.0'
p675
sg48
S'W38-14'
p676
sg50
S'2014'
p677
ssg318
(dp678
g5
S'--'
p679
sg7
g318
sg9
S'--'
p680
sg11
S'--'
p681
sg13
S'--'
p682
sg15
S'--'
p683
sg17
S'--'
p684
sg19
S'--'
p685
sg21
S'@CHI'
p686
sg23
g24
sg25
S'--'
p687
sg27
S'--'
p688
sg29
S'--'
p689
sg31
g24
sg32
S'--'
p690
sg34
S'--'
p691
sg36
S'--'
p692
sg38
S'--'
p693
sg40
S'--'
p694
sg42
S'10/19'
p695
sg44
S'Matt Moore'
p696
sg46
S'0.0'
p697
sg48
S'W27-14'
p698
sg50
S'2014'
p699
ssg333
(dp700
g5
S'--'
p701
sg7
g333
sg9
S'--'
p702
sg11
S'--'
p703
sg13
S'--'
p704
sg15
S'--'
p705
sg17
S'--'
p706
sg19
S'--'
p707
sg21
S'GB'
p708
sg23
g24
sg25
S'--'
p709
sg27
S'--'
p710
sg29
S'--'
p711
sg31
g24
sg32
S'--'
p712
sg34
S'--'
p713
sg36
S'--'
p714
sg38
S'--'
p715
sg40
S'--'
p716
sg42
S'10/12'
p717
sg44
S'Matt Moore'
p718
sg46
S'0.0'
p719
sg48
S'L24-27'
p720
sg50
S'2014'
p721
ssg356
(dp722
g5
g295
sg7
g356
sg9
S'--'
p723
sg11
S'50.0'
p724
sg13
S'--'
p725
sg15
S'21'
p726
sg17
S'5.3'
p727
sg19
S'--'
p728
sg21
S'SD'
p729
sg23
g220
sg25
g266
sg27
g24
sg29
S'--'
p730
sg31
g24
sg32
S'--'
p731
sg34
S'--'
p732
sg36
g24
sg38
g24
sg40
g24
sg42
S'11/02'
p733
sg44
S'Matt Moore'
p734
sg46
S'65.6'
p735
sg48
S'W37-0'
p736
sg50
S'2014'
p737
ssg379
(dp738
g5
S'--'
p739
sg7
g379
sg9
S'--'
p740
sg11
S'--'
p741
sg13
S'--'
p742
sg15
S'--'
p743
sg17
S'--'
p744
sg19
S'--'
p745
sg21
S'@JAC'
p746
sg23
g24
sg25
S'--'
p747
sg27
S'--'
p748
sg29
S'--'
p749
sg31
g24
sg32
S'--'
p750
sg34
S'--'
p751
sg36
S'--'
p752
sg38
S'--'
p753
sg40
S'--'
p754
sg42
S'10/26'
p755
sg44
S'Matt Moore'
p756
sg46
S'0.0'
p757
sg48
S'W27-13'
p758
sg50
S'2014'
p759
sssS'2011'
p760
(dp761
g3
(dp762
g5
S'20'
p763
sg7
S'11'
p764
sg9
S'0.7'
p765
sg11
S'70.0'
p766
sg13
g243
sg15
S'160'
p767
sg17
S'8.0'
p768
sg19
S'--'
p769
sg21
S'BUF'
p770
sg23
g220
sg25
S'14'
p771
sg27
S'13'
p772
sg29
g266
sg31
g220
sg32
S'--'
p773
sg34
g24
sg36
g243
sg38
g220
sg40
g24
sg42
S'11/20'
p774
sg44
S'Matt Moore'
p775
sg46
S'133.3'
p776
sg48
S'W35-8'
p777
sg50
S'2011'
p778
ssg52
(dp779
g5
S'29'
p780
sg7
S'10'
p781
sg9
S'7.0'
p782
sg11
S'69.0'
p783
sg13
g266
sg15
S'209'
p784
sg17
S'7.2'
p785
sg19
g266
sg21
S'WAS'
p786
sg23
g220
sg25
S'20'
p787
sg27
g356
sg29
S'14'
p788
sg31
g220
sg32
g220
sg34
g24
sg36
g24
sg38
g266
sg40
g220
sg42
S'11/13'
p789
sg44
S'Matt Moore'
p790
sg46
S'75.2'
p791
sg48
S'W20-9'
p792
sg50
S'2011'
p793
ssg76
(dp794
g5
S'25'
p795
sg7
S'13'
p796
sg9
S'4.4'
p797
sg11
S'52.0'
p798
sg13
g289
sg15
S'162'
p799
sg17
S'6.5'
p800
sg19
S'--'
p801
sg21
S'OAK'
p802
sg23
g220
sg25
S'13'
p803
sg27
g356
sg29
S'22'
p804
sg31
g220
sg32
S'--'
p805
sg34
g220
sg36
g220
sg38
g220
sg40
g24
sg42
S'12/04'
p806
sg44
S'Matt Moore'
p807
sg46
S'85.8'
p808
sg48
S'W34-14'
p809
sg50
S'2011'
p810
ssg100
(dp811
g5
S'32'
p812
sg7
S'12'
p813
sg9
S'1.0'
p814
sg11
S'59.4'
p815
sg13
g243
sg15
S'288'
p816
sg17
S'9.0'
p817
sg19
g243
sg21
S'@DAL'
p818
sg23
g220
sg25
S'19'
p819
sg27
S'25'
p820
sg29
g243
sg31
g220
sg32
g220
sg34
g24
sg36
g220
sg38
g295
sg40
g24
sg42
S'11/24'
p821
sg44
S'Matt Moore'
p822
sg46
S'99.5'
p823
sg48
S'L19-20'
p824
sg50
S'2011'
p825
ssg124
(dp826
g5
S'20'
p827
sg7
S'15'
p828
sg9
S'--'
p829
sg11
S'50.0'
p830
sg13
S'--'
p831
sg15
S'217'
p832
sg17
S'10.9'
p833
sg19
g220
sg21
S'@BUF'
p834
sg23
g220
sg25
S'10'
p835
sg27
S'23'
p836
sg29
S'--'
p837
sg31
g220
sg32
g220
sg34
S'--'
p838
sg36
g266
sg38
g266
sg40
g24
sg42
S'12/18'
p839
sg44
S'Matt Moore'
p840
sg46
S'122.3'
p841
sg48
S'W30-23'
p842
sg50
S'2011'
p843
ssg148
(dp844
g5
S'19'
p845
sg7
S'14'
p846
sg9
S'1.0'
p847
sg11
S'57.9'
p848
sg13
g220
sg15
S'95'
p849
sg17
S'5.0'
p850
sg19
g220
sg21
S'PHI'
p851
sg23
g220
sg25
S'11'
p852
sg27
S'22'
p853
sg29
g220
sg31
g220
sg32
g220
sg34
g24
sg36
g220
sg38
g295
sg40
g220
sg42
S'12/11'
p854
sg44
S'Matt Moore'
p855
sg46
S'66.8'
p856
sg48
S'L10-26'
p857
sg50
S'2011'
p858
ssg172
(dp859
g5
S'32'
p860
sg7
S'17'
p861
sg9
S'-0.3'
p862
sg11
S'68.8'
p863
sg13
g243
sg15
S'135'
p864
sg17
S'4.2'
p865
sg19
S'--'
p866
sg21
S'NYJ'
p867
sg23
g220
sg25
S'22'
p868
sg27
g318
sg29
S'-1'
p869
sg31
g220
sg32
S'--'
p870
sg34
g24
sg36
g220
sg38
g220
sg40
g266
sg42
S'01/01'
p871
sg44
S'Matt Moore'
p872
sg46
S'61.3'
p873
sg48
S'W19-17'
p874
sg50
S'2011'
p875
ssg196
(dp876
g5
S'32'
p877
sg7
S'16'
p878
sg9
S'-2.7'
p879
sg11
S'50.0'
p880
sg13
g243
sg15
S'281'
p881
sg17
S'8.8'
p882
sg19
g243
sg21
S'@NE'
p883
sg23
g220
sg25
S'16'
p884
sg27
S'28'
p885
sg29
S'-8'
p886
sg31
g220
sg32
g220
sg34
g24
sg36
g243
sg38
g289
sg40
g220
sg42
S'12/24'
p887
sg44
S'Matt Moore'
p888
sg46
S'98.6'
p889
sg48
S'L24-27'
p890
sg50
S'2011'
p891
ssg220
(dp892
g5
S'--'
p893
sg7
g220
sg9
S'--'
p894
sg11
S'--'
p895
sg13
S'--'
p896
sg15
S'--'
p897
sg17
S'--'
p898
sg19
S'--'
p899
sg21
S'NE'
p900
sg23
g24
sg25
S'--'
p901
sg27
S'--'
p902
sg29
S'--'
p903
sg31
g24
sg32
S'--'
p904
sg34
S'--'
p905
sg36
S'--'
p906
sg38
S'--'
p907
sg40
S'--'
p908
sg42
S'09/12'
p909
sg44
S'Matt Moore'
p910
sg46
S'0.0'
p911
sg48
S'L24-38'
p912
sg50
S'2011'
p913
ssg243
(dp914
g5
S'--'
p915
sg7
g243
sg9
S'--'
p916
sg11
S'--'
p917
sg13
S'--'
p918
sg15
S'--'
p919
sg17
S'--'
p920
sg19
S'--'
p921
sg21
S'@CLE'
p922
sg23
g24
sg25
S'--'
p923
sg27
S'--'
p924
sg29
S'--'
p925
sg31
g24
sg32
S'--'
p926
sg34
S'--'
p927
sg36
S'--'
p928
sg38
S'--'
p929
sg40
S'--'
p930
sg42
S'09/25'
p931
sg44
S'Matt Moore'
p932
sg46
S'0.0'
p933
sg48
S'L16-17'
p934
sg50
S'2011'
p935
ssg266
(dp936
g5
S'--'
p937
sg7
g266
sg9
S'--'
p938
sg11
S'--'
p939
sg13
S'--'
p940
sg15
S'--'
p941
sg17
S'--'
p942
sg19
S'--'
p943
sg21
S'HOU'
p944
sg23
g24
sg25
S'--'
p945
sg27
S'--'
p946
sg29
S'--'
p947
sg31
g24
sg32
S'--'
p948
sg34
S'--'
p949
sg36
S'--'
p950
sg38
S'--'
p951
sg40
S'--'
p952
sg42
S'09/18'
p953
sg44
S'Matt Moore'
p954
sg46
S'0.0'
p955
sg48
S'L13-23'
p956
sg50
S'2011'
p957
ssg289
(dp958
g5
g291
sg7
g289
sg9
g291
sg11
g291
sg13
g291
sg15
g291
sg17
g291
sg19
g291
sg21
g291
sg23
g291
sg25
g291
sg27
g291
sg29
g291
sg31
g291
sg32
g291
sg34
g291
sg36
g291
sg38
g291
sg40
g291
sg42
S'Bye'
p959
sg44
S'Matt Moore'
p960
sg46
g291
sg48
g291
sg50
S'2011'
p961
ssg295
(dp962
g5
S'26'
p963
sg7
g295
sg9
S'-1.0'
p964
sg11
S'65.4'
p965
sg13
g220
sg15
S'167'
p966
sg17
S'6.4'
p967
sg19
S'--'
p968
sg21
S'@SD'
p969
sg23
g220
sg25
S'17'
p970
sg27
S'18'
p971
sg29
S'-1'
p972
sg31
g24
sg32
S'--'
p973
sg34
g24
sg36
g24
sg38
g243
sg40
g220
sg42
S'10/02'
p974
sg44
S'Matt Moore'
p975
sg46
S'67.3'
p976
sg48
S'L16-26'
p977
sg50
S'2011'
p978
ssg318
(dp979
g5
S'33'
p980
sg7
g318
sg9
S'-0.5'
p981
sg11
S'66.7'
p982
sg13
g266
sg15
S'197'
p983
sg17
S'6.0'
p984
sg19
g266
sg21
S'DEN'
p985
sg23
g220
sg25
S'22'
p986
sg27
S'24'
p987
sg29
S'-1'
p988
sg31
g220
sg32
g220
sg34
g24
sg36
g220
sg38
g295
sg40
g24
sg42
S'10/23'
p989
sg44
S'Matt Moore'
p990
sg46
S'92.6'
p991
sg48
S'L15-18'
p992
sg50
S'2011'
p993
ssg333
(dp994
g5
S'34'
p995
sg7
g333
sg9
S'--'
p996
sg11
S'47.1'
p997
sg13
S'--'
p998
sg15
S'204'
p999
sg17
S'6.0'
p1000
sg19
g266
sg21
S'@NYJ'
p1001
sg23
g220
sg25
S'16'
p1002
sg27
S'14'
p1003
sg29
S'--'
p1004
sg31
g220
sg32
g24
sg34
S'--'
p1005
sg36
g24
sg38
g295
sg40
g266
sg42
S'10/17'
p1006
sg44
S'Matt Moore'
p1007
sg46
S'41.8'
p1008
sg48
S'L6-24'
p1009
sg50
S'2011'
p1010
ssg356
(dp1011
g5
S'23'
p1012
sg7
g356
sg9
S'0.8'
p1013
sg11
S'73.9'
p1014
sg13
g295
sg15
S'244'
p1015
sg17
S'10.6'
p1016
sg19
S'--'
p1017
sg21
S'@KC'
p1018
sg23
g220
sg25
S'17'
p1019
sg27
g24
sg29
g243
sg31
g220
sg32
S'--'
p1020
sg34
g24
sg36
g243
sg38
g24
sg40
g24
sg42
S'11/06'
p1021
sg44
S'Matt Moore'
p1022
sg46
S'147.5'
p1023
sg48
S'W31-3'
p1024
sg50
S'2011'
p1025
ssg379
(dp1026
g5
S'22'
p1027
sg7
g379
sg9
S'6.2'
p1028
sg11
S'59.1'
p1029
sg13
g289
sg15
S'138'
p1030
sg17
S'6.3'
p1031
sg19
S'--'
p1032
sg21
S'@NYG'
p1033
sg23
g220
sg25
S'13'
p1034
sg27
S'37'
p1035
sg29
S'31'
p1036
sg31
g220
sg32
S'--'
p1037
sg34
g220
sg36
g24
sg38
g289
sg40
g220
sg42
S'10/30'
p1038
sg44
S'Matt Moore'
p1039
sg46
S'58.5'
p1040
sg48
S'L17-20'
p1041
sg50
S'2011'
p1042
sssS'2010'
p1043
(dp1044
g220
(dp1045
g5
S'33'
p1046
sg7
g220
sg9
S'7.5'
p1047
sg11
S'42.4'
p1048
sg13
g266
sg15
S'182'
p1049
sg17
S'5.5'
p1050
sg19
g266
sg21
S'@NYG'
p1051
sg23
g220
sg25
S'14'
p1052
sg27
S'34'
p1053
sg29
S'15'
p1054
sg31
g220
sg32
g220
sg34
g24
sg36
g220
sg38
g295
sg40
g243
sg42
S'09/12'
p1055
sg44
S'Matt Moore'
p1056
sg46
S'32.6'
p1057
sg48
S'L18-31'
p1058
sg50
S'2010'
p1059
ssg243
(dp1060
g5
S'--'
p1061
sg7
g243
sg9
S'--'
p1062
sg11
S'--'
p1063
sg13
S'--'
p1064
sg15
S'--'
p1065
sg17
S'--'
p1066
sg19
S'--'
p1067
sg21
S'CIN'
p1068
sg23
g24
sg25
S'--'
p1069
sg27
S'--'
p1070
sg29
S'--'
p1071
sg31
g24
sg32
S'--'
p1072
sg34
S'--'
p1073
sg36
S'--'
p1074
sg38
S'--'
p1075
sg40
S'--'
p1076
sg42
S'09/26'
p1077
sg44
S'Matt Moore'
p1078
sg46
S'0.0'
p1079
sg48
S'L7-20'
p1080
sg50
S'2010'
p1081
ssg266
(dp1082
g5
S'16'
p1083
sg7
g266
sg9
S'2.0'
p1084
sg11
S'37.5'
p1085
sg13
g220
sg15
S'125'
p1086
sg17
S'7.8'
p1087
sg19
g220
sg21
S'TB'
p1088
sg23
g220
sg25
g333
sg27
S'25'
p1089
sg29
g266
sg31
g220
sg32
g220
sg34
g24
sg36
g220
sg38
g295
sg40
g220
sg42
S'09/19'
p1090
sg44
S'Matt Moore'
p1091
sg46
S'60.7'
p1092
sg48
S'L7-20'
p1093
sg50
S'2010'
p1094
ssg289
(dp1095
g5
S'10'
p1096
sg7
g289
sg9
S'--'
p1097
sg11
S'50.0'
p1098
sg13
S'--'
p1099
sg15
S'35'
p1100
sg17
S'3.5'
p1101
sg19
S'--'
p1102
sg21
S'CHI'
p1103
sg23
g220
sg25
g289
sg27
g24
sg29
S'--'
p1104
sg31
g24
sg32
S'--'
p1105
sg34
S'--'
p1106
sg36
g24
sg38
g24
sg40
g266
sg42
S'10/10'
p1107
sg44
S'Matt Moore'
p1108
sg46
S'18.8'
p1109
sg48
S'L6-23'
p1110
sg50
S'2010'
p1111
ssg295
(dp1112
g5
S'--'
p1113
sg7
g295
sg9
S'--'
p1114
sg11
S'--'
p1115
sg13
S'--'
p1116
sg15
S'--'
p1117
sg17
S'--'
p1118
sg19
S'--'
p1119
sg21
S'@NO'
p1120
sg23
g24
sg25
S'--'
p1121
sg27
S'--'
p1122
sg29
S'--'
p1123
sg31
g24
sg32
S'--'
p1124
sg34
S'--'
p1125
sg36
S'--'
p1126
sg38
S'--'
p1127
sg40
S'--'
p1128
sg42
S'10/03'
p1129
sg44
S'Matt Moore'
p1130
sg46
S'0.0'
p1131
sg48
S'L14-16'
p1132
sg50
S'2010'
p1133
ssg318
(dp1134
g5
S'41'
p1135
sg7
g318
sg9
S'3.0'
p1136
sg11
S'68.3'
p1137
sg13
g220
sg15
S'308'
p1138
sg17
S'7.5'
p1139
sg19
S'--'
p1140
sg21
S'SF'
p1141
sg23
g220
sg25
S'28'
p1142
sg27
g289
sg29
g243
sg31
g220
sg32
S'--'
p1143
sg34
g24
sg36
g266
sg38
g220
sg40
g220
sg42
S'10/24'
p1144
sg44
S'Matt Moore'
p1145
sg46
S'96.4'
p1146
sg48
S'W23-20'
p1147
sg50
S'2010'
p1148
ssg333
(dp1149
g5
g291
sg7
g333
sg9
g291
sg11
g291
sg13
g291
sg15
g291
sg17
g291
sg19
g291
sg21
g291
sg23
g291
sg25
g291
sg27
g291
sg29
g291
sg31
g291
sg32
g291
sg34
g291
sg36
g291
sg38
g291
sg40
g291
sg42
S'Bye'
p1150
sg44
S'Matt Moore'
p1151
sg46
g291
sg48
g291
sg50
S'2010'
p1152
ssg356
(dp1153
g5
g333
sg7
g356
sg9
S'--'
p1154
sg11
S'50.0'
p1155
sg13
S'--'
p1156
sg15
S'13'
p1157
sg17
S'2.2'
p1158
sg19
S'--'
p1159
sg21
S'NO'
p1160
sg23
g220
sg25
g243
sg27
g379
sg29
S'--'
p1161
sg31
g220
sg32
S'--'
p1162
sg34
S'--'
p1163
sg36
g24
sg38
g220
sg40
g24
sg42
S'11/07'
p1164
sg44
S'Matt Moore'
p1165
sg46
S'56.2'
p1166
sg48
S'L3-34'
p1167
sg50
S'2010'
p1168
ssg379
(dp1169
g5
S'37'
p1170
sg7
g379
sg9
S'5.0'
p1171
sg11
S'62.2'
p1172
sg13
g220
sg15
S'194'
p1173
sg17
S'5.2'
p1174
sg19
g220
sg21
S'@STL'
p1175
sg23
g220
sg25
S'23'
p1176
sg27
S'18'
p1177
sg29
g289
sg31
g220
sg32
g24
sg34
g24
sg36
g220
sg38
g243
sg40
g243
sg42
S'10/31'
p1178
sg44
S'Matt Moore'
p1179
sg46
S'51.0'
p1180
sg48
S'L10-20'
p1181
sg50
S'2010'
p1182
sssS'2013'
p1183
(dp1184
g3
(dp1185
g5
S'--'
p1186
sg7
S'11'
p1187
sg9
S'--'
p1188
sg11
S'--'
p1189
sg13
S'--'
p1190
sg15
S'--'
p1191
sg17
S'--'
p1192
sg19
S'--'
p1193
sg21
S'SD'
p1194
sg23
g24
sg25
S'--'
p1195
sg27
S'--'
p1196
sg29
S'--'
p1197
sg31
g24
sg32
S'--'
p1198
sg34
S'--'
p1199
sg36
S'--'
p1200
sg38
S'--'
p1201
sg40
S'--'
p1202
sg42
S'11/17'
p1203
sg44
S'Matt Moore'
p1204
sg46
S'0.0'
p1205
sg48
S'W20-16'
p1206
sg50
S'2013'
p1207
ssg52
(dp1208
g5
S'--'
p1209
sg7
S'10'
p1210
sg9
S'--'
p1211
sg11
S'--'
p1212
sg13
S'--'
p1213
sg15
S'--'
p1214
sg17
S'--'
p1215
sg19
S'--'
p1216
sg21
S'@TB'
p1217
sg23
g24
sg25
S'--'
p1218
sg27
S'--'
p1219
sg29
S'--'
p1220
sg31
g24
sg32
S'--'
p1221
sg34
S'--'
p1222
sg36
S'--'
p1223
sg38
S'--'
p1224
sg40
S'--'
p1225
sg42
S'11/11'
p1226
sg44
S'Matt Moore'
p1227
sg46
S'0.0'
p1228
sg48
S'L19-22'
p1229
sg50
S'2013'
p1230
ssg76
(dp1231
g5
S'--'
p1232
sg7
S'13'
p1233
sg9
S'--'
p1234
sg11
S'--'
p1235
sg13
S'--'
p1236
sg15
S'--'
p1237
sg17
S'--'
p1238
sg19
S'--'
p1239
sg21
S'@NYJ'
p1240
sg23
g24
sg25
S'--'
p1241
sg27
S'--'
p1242
sg29
S'--'
p1243
sg31
g24
sg32
S'--'
p1244
sg34
S'--'
p1245
sg36
S'--'
p1246
sg38
S'--'
p1247
sg40
S'--'
p1248
sg42
S'12/01'
p1249
sg44
S'Matt Moore'
p1250
sg46
S'0.0'
p1251
sg48
S'W23-3'
p1252
sg50
S'2013'
p1253
ssg100
(dp1254
g5
S'--'
p1255
sg7
S'12'
p1256
sg9
S'--'
p1257
sg11
S'--'
p1258
sg13
S'--'
p1259
sg15
S'--'
p1260
sg17
S'--'
p1261
sg19
S'--'
p1262
sg21
S'CAR'
p1263
sg23
g24
sg25
S'--'
p1264
sg27
S'--'
p1265
sg29
S'--'
p1266
sg31
g24
sg32
S'--'
p1267
sg34
S'--'
p1268
sg36
S'--'
p1269
sg38
S'--'
p1270
sg40
S'--'
p1271
sg42
S'11/24'
p1272
sg44
S'Matt Moore'
p1273
sg46
S'0.0'
p1274
sg48
S'L16-20'
p1275
sg50
S'2013'
p1276
ssg124
(dp1277
g5
S'--'
p1278
sg7
S'15'
p1279
sg9
S'--'
p1280
sg11
S'--'
p1281
sg13
S'--'
p1282
sg15
S'--'
p1283
sg17
S'--'
p1284
sg19
S'--'
p1285
sg21
S'NE'
p1286
sg23
g24
sg25
S'--'
p1287
sg27
S'--'
p1288
sg29
S'--'
p1289
sg31
g24
sg32
S'--'
p1290
sg34
S'--'
p1291
sg36
S'--'
p1292
sg38
S'--'
p1293
sg40
S'--'
p1294
sg42
S'12/15'
p1295
sg44
S'Matt Moore'
p1296
sg46
S'0.0'
p1297
sg48
S'W24-20'
p1298
sg50
S'2013'
p1299
ssg148
(dp1300
g5
S'--'
p1301
sg7
S'14'
p1302
sg9
S'--'
p1303
sg11
S'--'
p1304
sg13
S'--'
p1305
sg15
S'--'
p1306
sg17
S'--'
p1307
sg19
S'--'
p1308
sg21
S'@PIT'
p1309
sg23
g24
sg25
S'--'
p1310
sg27
S'--'
p1311
sg29
S'--'
p1312
sg31
g24
sg32
S'--'
p1313
sg34
S'--'
p1314
sg36
S'--'
p1315
sg38
S'--'
p1316
sg40
S'--'
p1317
sg42
S'12/08'
p1318
sg44
S'Matt Moore'
p1319
sg46
S'0.0'
p1320
sg48
S'W34-28'
p1321
sg50
S'2013'
p1322
ssg172
(dp1323
g5
S'--'
p1324
sg7
S'17'
p1325
sg9
S'--'
p1326
sg11
S'--'
p1327
sg13
S'--'
p1328
sg15
S'--'
p1329
sg17
S'--'
p1330
sg19
S'--'
p1331
sg21
S'NYJ'
p1332
sg23
g24
sg25
S'--'
p1333
sg27
S'--'
p1334
sg29
S'--'
p1335
sg31
g24
sg32
S'--'
p1336
sg34
S'--'
p1337
sg36
S'--'
p1338
sg38
S'--'
p1339
sg40
S'--'
p1340
sg42
S'12/29'
p1341
sg44
S'Matt Moore'
p1342
sg46
S'0.0'
p1343
sg48
S'L7-20'
p1344
sg50
S'2013'
p1345
ssg196
(dp1346
g5
g333
sg7
S'16'
p1347
sg9
S'--'
p1348
sg11
S'33.3'
p1349
sg13
S'--'
p1350
sg15
S'53'
p1351
sg17
S'8.8'
p1352
sg19
g220
sg21
S'@BUF'
p1353
sg23
g220
sg25
g266
sg27
g24
sg29
S'--'
p1354
sg31
g24
sg32
g24
sg34
S'--'
p1355
sg36
g24
sg38
g24
sg40
g266
sg42
S'12/22'
p1356
sg44
S'Matt Moore'
p1357
sg46
S'27.1'
p1358
sg48
S'L0-19'
p1359
sg50
S'2013'
p1360
ssg220
(dp1361
g5
S'--'
p1362
sg7
g220
sg9
S'--'
p1363
sg11
S'--'
p1364
sg13
S'--'
p1365
sg15
S'--'
p1366
sg17
S'--'
p1367
sg19
S'--'
p1368
sg21
S'@CLE'
p1369
sg23
g24
sg25
S'--'
p1370
sg27
S'--'
p1371
sg29
S'--'
p1372
sg31
g24
sg32
S'--'
p1373
sg34
S'--'
p1374
sg36
S'--'
p1375
sg38
S'--'
p1376
sg40
S'--'
p1377
sg42
S'09/08'
p1378
sg44
S'Matt Moore'
p1379
sg46
S'0.0'
p1380
sg48
S'W23-10'
p1381
sg50
S'2013'
p1382
ssg243
(dp1383
g5
S'--'
p1384
sg7
g243
sg9
S'--'
p1385
sg11
S'--'
p1386
sg13
S'--'
p1387
sg15
S'--'
p1388
sg17
S'--'
p1389
sg19
S'--'
p1390
sg21
S'ATL'
p1391
sg23
g24
sg25
S'--'
p1392
sg27
S'--'
p1393
sg29
S'--'
p1394
sg31
g24
sg32
S'--'
p1395
sg34
S'--'
p1396
sg36
S'--'
p1397
sg38
S'--'
p1398
sg40
S'--'
p1399
sg42
S'09/22'
p1400
sg44
S'Matt Moore'
p1401
sg46
S'0.0'
p1402
sg48
S'W27-23'
p1403
sg50
S'2013'
p1404
ssg266
(dp1405
g5
S'--'
p1406
sg7
g266
sg9
S'--'
p1407
sg11
S'--'
p1408
sg13
S'--'
p1409
sg15
S'--'
p1410
sg17
S'--'
p1411
sg19
S'--'
p1412
sg21
S'@IND'
p1413
sg23
g24
sg25
S'--'
p1414
sg27
S'--'
p1415
sg29
S'--'
p1416
sg31
g24
sg32
S'--'
p1417
sg34
S'--'
p1418
sg36
S'--'
p1419
sg38
S'--'
p1420
sg40
S'--'
p1421
sg42
S'09/15'
p1422
sg44
S'Matt Moore'
p1423
sg46
S'0.0'
p1424
sg48
S'W24-20'
p1425
sg50
S'2013'
p1426
ssg289
(dp1427
g5
S'--'
p1428
sg7
g289
sg9
S'--'
p1429
sg11
S'--'
p1430
sg13
S'--'
p1431
sg15
S'--'
p1432
sg17
S'--'
p1433
sg19
S'--'
p1434
sg21
S'BAL'
p1435
sg23
g24
sg25
S'--'
p1436
sg27
S'--'
p1437
sg29
S'--'
p1438
sg31
g24
sg32
S'--'
p1439
sg34
S'--'
p1440
sg36
S'--'
p1441
sg38
S'--'
p1442
sg40
S'--'
p1443
sg42
S'10/06'
p1444
sg44
S'Matt Moore'
p1445
sg46
S'0.0'
p1446
sg48
S'L23-26'
p1447
sg50
S'2013'
p1448
ssg295
(dp1449
g5
S'--'
p1450
sg7
g295
sg9
S'--'
p1451
sg11
S'--'
p1452
sg13
S'--'
p1453
sg15
S'--'
p1454
sg17
S'--'
p1455
sg19
S'--'
p1456
sg21
S'@NO'
p1457
sg23
g24
sg25
S'--'
p1458
sg27
S'--'
p1459
sg29
S'--'
p1460
sg31
g24
sg32
S'--'
p1461
sg34
S'--'
p1462
sg36
S'--'
p1463
sg38
S'--'
p1464
sg40
S'--'
p1465
sg42
S'09/30'
p1466
sg44
S'Matt Moore'
p1467
sg46
S'0.0'
p1468
sg48
S'L17-38'
p1469
sg50
S'2013'
p1470
ssg318
(dp1471
g5
S'--'
p1472
sg7
g318
sg9
S'--'
p1473
sg11
S'--'
p1474
sg13
S'--'
p1475
sg15
S'--'
p1476
sg17
S'--'
p1477
sg19
S'--'
p1478
sg21
S'BUF'
p1479
sg23
g24
sg25
S'--'
p1480
sg27
S'--'
p1481
sg29
S'--'
p1482
sg31
g24
sg32
S'--'
p1483
sg34
S'--'
p1484
sg36
S'--'
p1485
sg38
S'--'
p1486
sg40
S'--'
p1487
sg42
S'10/20'
p1488
sg44
S'Matt Moore'
p1489
sg46
S'0.0'
p1490
sg48
S'L21-23'
p1491
sg50
S'2013'
p1492
ssg333
(dp1493
g5
g291
sg7
g333
sg9
g291
sg11
g291
sg13
g291
sg15
g291
sg17
g291
sg19
g291
sg21
g291
sg23
g291
sg25
g291
sg27
g291
sg29
g291
sg31
g291
sg32
g291
sg34
g291
sg36
g291
sg38
g291
sg40
g291
sg42
S'Bye'
p1494
sg44
S'Matt Moore'
p1495
sg46
g291
sg48
g291
sg50
S'2013'
p1496
ssg356
(dp1497
g5
S'--'
p1498
sg7
g356
sg9
S'--'
p1499
sg11
S'--'
p1500
sg13
S'--'
p1501
sg15
S'--'
p1502
sg17
S'--'
p1503
sg19
S'--'
p1504
sg21
S'CIN'
p1505
sg23
g24
sg25
S'--'
p1506
sg27
S'--'
p1507
sg29
S'--'
p1508
sg31
g24
sg32
S'--'
p1509
sg34
S'--'
p1510
sg36
S'--'
p1511
sg38
S'--'
p1512
sg40
S'--'
p1513
sg42
S'10/31'
p1514
sg44
S'Matt Moore'
p1515
sg46
S'0.0'
p1516
sg48
S'W22-20'
p1517
sg50
S'2013'
p1518
ssg379
(dp1519
g5
S'--'
p1520
sg7
g379
sg9
S'--'
p1521
sg11
S'--'
p1522
sg13
S'--'
p1523
sg15
S'--'
p1524
sg17
S'--'
p1525
sg19
S'--'
p1526
sg21
S'@NE'
p1527
sg23
g24
sg25
S'--'
p1528
sg27
S'--'
p1529
sg29
S'--'
p1530
sg31
g24
sg32
S'--'
p1531
sg34
S'--'
p1532
sg36
S'--'
p1533
sg38
S'--'
p1534
sg40
S'--'
p1535
sg42
S'10/27'
p1536
sg44
S'Matt Moore'
p1537
sg46
S'0.0'
p1538
sg48
S'L17-27'
p1539
sg50
S'2013'
p1540
sssS'2012'
p1541
(dp1542
g3
(dp1543
g5
S'--'
p1544
sg7
S'11'
p1545
sg9
S'--'
p1546
sg11
S'--'
p1547
sg13
S'--'
p1548
sg15
S'--'
p1549
sg17
S'--'
p1550
sg19
S'--'
p1551
sg21
S'@BUF'
p1552
sg23
g24
sg25
S'--'
p1553
sg27
S'--'
p1554
sg29
S'--'
p1555
sg31
g24
sg32
S'--'
p1556
sg34
S'--'
p1557
sg36
S'--'
p1558
sg38
S'--'
p1559
sg40
S'--'
p1560
sg42
S'11/15'
p1561
sg44
S'Matt Moore'
p1562
sg46
S'0.0'
p1563
sg48
S'L14-19'
p1564
sg50
S'2012'
p1565
ssg52
(dp1566
g5
g24
sg7
S'10'
p1567
sg9
S'1.0'
p1568
sg11
S'--'
p1569
sg13
g220
sg15
g24
sg17
S'--'
p1570
sg19
S'--'
p1571
sg21
S'TEN'
p1572
sg23
g220
sg25
g24
sg27
g379
sg29
g220
sg31
g24
sg32
S'--'
p1573
sg34
g24
sg36
g24
sg38
g220
sg40
g24
sg42
S'11/11'
p1574
sg44
S'Matt Moore'
p1575
sg46
S'0.0'
p1576
sg48
S'L3-37'
p1577
sg50
S'2012'
p1578
ssg76
(dp1579
g5
S'--'
p1580
sg7
S'13'
p1581
sg9
S'--'
p1582
sg11
S'--'
p1583
sg13
S'--'
p1584
sg15
S'--'
p1585
sg17
S'--'
p1586
sg19
S'--'
p1587
sg21
S'NE'
p1588
sg23
g24
sg25
S'--'
p1589
sg27
S'--'
p1590
sg29
S'--'
p1591
sg31
g24
sg32
S'--'
p1592
sg34
S'--'
p1593
sg36
S'--'
p1594
sg38
S'--'
p1595
sg40
S'--'
p1596
sg42
S'12/02'
p1597
sg44
S'Matt Moore'
p1598
sg46
S'0.0'
p1599
sg48
S'L16-23'
p1600
sg50
S'2012'
p1601
ssg100
(dp1602
g5
S'--'
p1603
sg7
S'12'
p1604
sg9
S'--'
p1605
sg11
S'--'
p1606
sg13
S'--'
p1607
sg15
S'--'
p1608
sg17
S'--'
p1609
sg19
S'--'
p1610
sg21
S'SEA'
p1611
sg23
g24
sg25
S'--'
p1612
sg27
S'--'
p1613
sg29
S'--'
p1614
sg31
g24
sg32
S'--'
p1615
sg34
S'--'
p1616
sg36
S'--'
p1617
sg38
S'--'
p1618
sg40
S'--'
p1619
sg42
S'11/25'
p1620
sg44
S'Matt Moore'
p1621
sg46
S'0.0'
p1622
sg48
S'W24-21'
p1623
sg50
S'2012'
p1624
ssg124
(dp1625
g5
S'--'
p1626
sg7
S'15'
p1627
sg9
S'--'
p1628
sg11
S'--'
p1629
sg13
S'--'
p1630
sg15
S'--'
p1631
sg17
S'--'
p1632
sg19
S'--'
p1633
sg21
S'JAC'
p1634
sg23
g24
sg25
S'--'
p1635
sg27
S'--'
p1636
sg29
S'--'
p1637
sg31
g24
sg32
S'--'
p1638
sg34
S'--'
p1639
sg36
S'--'
p1640
sg38
S'--'
p1641
sg40
S'--'
p1642
sg42
S'12/16'
p1643
sg44
S'Matt Moore'
p1644
sg46
S'0.0'
p1645
sg48
S'W24-3'
p1646
sg50
S'2012'
p1647
ssg148
(dp1648
g5
S'--'
p1649
sg7
S'14'
p1650
sg9
S'--'
p1651
sg11
S'--'
p1652
sg13
S'--'
p1653
sg15
S'--'
p1654
sg17
S'--'
p1655
sg19
S'--'
p1656
sg21
S'@SF'
p1657
sg23
g24
sg25
S'--'
p1658
sg27
S'--'
p1659
sg29
S'--'
p1660
sg31
g24
sg32
S'--'
p1661
sg34
S'--'
p1662
sg36
S'--'
p1663
sg38
S'--'
p1664
sg40
S'--'
p1665
sg42
S'12/09'
p1666
sg44
S'Matt Moore'
p1667
sg46
S'0.0'
p1668
sg48
S'L13-27'
p1669
sg50
S'2012'
p1670
ssg172
(dp1671
g5
S'--'
p1672
sg7
S'17'
p1673
sg9
S'--'
p1674
sg11
S'--'
p1675
sg13
S'--'
p1676
sg15
S'--'
p1677
sg17
S'--'
p1678
sg19
S'--'
p1679
sg21
S'@NE'
p1680
sg23
g24
sg25
S'--'
p1681
sg27
S'--'
p1682
sg29
S'--'
p1683
sg31
g24
sg32
S'--'
p1684
sg34
S'--'
p1685
sg36
S'--'
p1686
sg38
S'--'
p1687
sg40
S'--'
p1688
sg42
S'12/30'
p1689
sg44
S'Matt Moore'
p1690
sg46
S'0.0'
p1691
sg48
S'L0-28'
p1692
sg50
S'2012'
p1693
ssg196
(dp1694
g5
S'--'
p1695
sg7
S'16'
p1696
sg9
S'--'
p1697
sg11
S'--'
p1698
sg13
S'--'
p1699
sg15
S'--'
p1700
sg17
S'--'
p1701
sg19
S'--'
p1702
sg21
S'BUF'
p1703
sg23
g24
sg25
S'--'
p1704
sg27
S'--'
p1705
sg29
S'--'
p1706
sg31
g24
sg32
S'--'
p1707
sg34
S'--'
p1708
sg36
S'--'
p1709
sg38
S'--'
p1710
sg40
S'--'
p1711
sg42
S'12/23'
p1712
sg44
S'Matt Moore'
p1713
sg46
S'0.0'
p1714
sg48
S'W24-10'
p1715
sg50
S'2012'
p1716
ssg220
(dp1717
g5
S'--'
p1718
sg7
g220
sg9
S'--'
p1719
sg11
S'--'
p1720
sg13
S'--'
p1721
sg15
S'--'
p1722
sg17
S'--'
p1723
sg19
S'--'
p1724
sg21
S'@HOU'
p1725
sg23
g24
sg25
S'--'
p1726
sg27
S'--'
p1727
sg29
S'--'
p1728
sg31
g24
sg32
S'--'
p1729
sg34
S'--'
p1730
sg36
S'--'
p1731
sg38
S'--'
p1732
sg40
S'--'
p1733
sg42
S'09/09'
p1734
sg44
S'Matt Moore'
p1735
sg46
S'0.0'
p1736
sg48
S'L10-30'
p1737
sg50
S'2012'
p1738
ssg243
(dp1739
g5
S'--'
p1740
sg7
g243
sg9
S'--'
p1741
sg11
S'--'
p1742
sg13
S'--'
p1743
sg15
S'--'
p1744
sg17
S'--'
p1745
sg19
S'--'
p1746
sg21
S'NYJ'
p1747
sg23
g24
sg25
S'--'
p1748
sg27
S'--'
p1749
sg29
S'--'
p1750
sg31
g24
sg32
S'--'
p1751
sg34
S'--'
p1752
sg36
S'--'
p1753
sg38
S'--'
p1754
sg40
S'--'
p1755
sg42
S'09/23'
p1756
sg44
S'Matt Moore'
p1757
sg46
S'0.0'
p1758
sg48
S'L20-23'
p1759
sg50
S'2012'
p1760
ssg266
(dp1761
g5
S'--'
p1762
sg7
g266
sg9
S'--'
p1763
sg11
S'--'
p1764
sg13
S'--'
p1765
sg15
S'--'
p1766
sg17
S'--'
p1767
sg19
S'--'
p1768
sg21
S'OAK'
p1769
sg23
g24
sg25
S'--'
p1770
sg27
S'--'
p1771
sg29
S'--'
p1772
sg31
g24
sg32
S'--'
p1773
sg34
S'--'
p1774
sg36
S'--'
p1775
sg38
S'--'
p1776
sg40
S'--'
p1777
sg42
S'09/16'
p1778
sg44
S'Matt Moore'
p1779
sg46
S'0.0'
p1780
sg48
S'W35-13'
p1781
sg50
S'2012'
p1782
ssg289
(dp1783
g5
S'--'
p1784
sg7
g289
sg9
S'--'
p1785
sg11
S'--'
p1786
sg13
S'--'
p1787
sg15
S'--'
p1788
sg17
S'--'
p1789
sg19
S'--'
p1790
sg21
S'@CIN'
p1791
sg23
g24
sg25
S'--'
p1792
sg27
S'--'
p1793
sg29
S'--'
p1794
sg31
g24
sg32
S'--'
p1795
sg34
S'--'
p1796
sg36
S'--'
p1797
sg38
S'--'
p1798
sg40
S'--'
p1799
sg42
S'10/07'
p1800
sg44
S'Matt Moore'
p1801
sg46
S'0.0'
p1802
sg48
S'W17-13'
p1803
sg50
S'2012'
p1804
ssg295
(dp1805
g5
S'--'
p1806
sg7
g295
sg9
S'--'
p1807
sg11
S'--'
p1808
sg13
S'--'
p1809
sg15
S'--'
p1810
sg17
S'--'
p1811
sg19
S'--'
p1812
sg21
S'@ARI'
p1813
sg23
g24
sg25
S'--'
p1814
sg27
S'--'
p1815
sg29
S'--'
p1816
sg31
g24
sg32
S'--'
p1817
sg34
S'--'
p1818
sg36
S'--'
p1819
sg38
S'--'
p1820
sg40
S'--'
p1821
sg42
S'09/30'
p1822
sg44
S'Matt Moore'
p1823
sg46
S'0.0'
p1824
sg48
S'L21-24'
p1825
sg50
S'2012'
p1826
ssg318
(dp1827
g5
g291
sg7
g318
sg9
g291
sg11
g291
sg13
g291
sg15
g291
sg17
g291
sg19
g291
sg21
g291
sg23
g291
sg25
g291
sg27
g291
sg29
g291
sg31
g291
sg32
g291
sg34
g291
sg36
g291
sg38
g291
sg40
g291
sg42
S'Bye'
p1828
sg44
S'Matt Moore'
p1829
sg46
g291
sg48
g291
sg50
S'2012'
p1830
ssg333
(dp1831
g5
S'--'
p1832
sg7
g333
sg9
S'--'
p1833
sg11
S'--'
p1834
sg13
S'--'
p1835
sg15
S'--'
p1836
sg17
S'--'
p1837
sg19
S'--'
p1838
sg21
S'STL'
p1839
sg23
g24
sg25
S'--'
p1840
sg27
S'--'
p1841
sg29
S'--'
p1842
sg31
g24
sg32
S'--'
p1843
sg34
S'--'
p1844
sg36
S'--'
p1845
sg38
S'--'
p1846
sg40
S'--'
p1847
sg42
S'10/14'
p1848
sg44
S'Matt Moore'
p1849
sg46
S'0.0'
p1850
sg48
S'W17-14'
p1851
sg50
S'2012'
p1852
ssg356
(dp1853
g5
S'--'
p1854
sg7
g356
sg9
S'--'
p1855
sg11
S'--'
p1856
sg13
S'--'
p1857
sg15
S'--'
p1858
sg17
S'--'
p1859
sg19
S'--'
p1860
sg21
S'@IND'
p1861
sg23
g24
sg25
S'--'
p1862
sg27
S'--'
p1863
sg29
S'--'
p1864
sg31
g24
sg32
S'--'
p1865
sg34
S'--'
p1866
sg36
S'--'
p1867
sg38
S'--'
p1868
sg40
S'--'
p1869
sg42
S'11/04'
p1870
sg44
S'Matt Moore'
p1871
sg46
S'0.0'
p1872
sg48
S'L20-23'
p1873
sg50
S'2012'
p1874
ssg379
(dp1875
g5
S'19'
p1876
sg7
g379
sg9
S'-1.0'
p1877
sg11
S'57.9'
p1878
sg13
g295
sg15
S'131'
p1879
sg17
S'6.9'
p1880
sg19
S'--'
p1881
sg21
S'@NYJ'
p1882
sg23
g220
sg25
S'11'
p1883
sg27
g220
sg29
S'-4'
p1884
sg31
g24
sg32
S'--'
p1885
sg34
g24
sg36
g220
sg38
g220
sg40
g24
sg42
S'10/28'
p1886
sg44
S'Matt Moore'
p1887
sg46
S'96.6'
p1888
sg48
S'W30-9'
p1889
sg50
S'2012'
p1890
sss.