(dp0
S'2014'
p1
(dp2
S'11'
p3
(dp4
S'PassAtt'
p5
S''
p6
sS'WK'
p7
S'11'
p8
sS'RushAvg'
p9
g6
sS'Pct'
p10
g6
sS'RushAtt'
p11
g6
sS'PassYds'
p12
g6
sS'PassAvg'
p13
g6
sS'FUM'
p14
g6
sS'Opp'
p15
g6
sS'G'
p16
g6
sS'Comp'
p17
g6
sS'SckY'
p18
g6
sS'RushYds'
p19
g6
sS'GS'
p20
g6
sS'Lost'
p21
g6
sS'RushTD'
p22
g6
sS'PassTD'
p23
g6
sS'Sck'
p24
g6
sS'Int'
p25
g6
sS'Game Date'
p26
S'Bye'
p27
sS'Player'
p28
S'Matt Simms'
p29
sS'Rate'
p30
g6
sS'Result'
p31
g6
sS'Year'
p32
S'2014'
p33
ssS'10'
p34
(dp35
g5
S'--'
p36
sg7
S'10'
p37
sg9
S'--'
p38
sg10
S'--'
p39
sg11
S'--'
p40
sg12
S'--'
p41
sg13
S'--'
p42
sg14
S'--'
p43
sg15
S'PIT'
p44
sg16
S'0'
p45
sg17
S'--'
p46
sg18
S'--'
p47
sg19
S'--'
p48
sg20
g45
sg21
S'--'
p49
sg22
S'--'
p50
sg23
S'--'
p51
sg24
S'--'
p52
sg25
S'--'
p53
sg26
S'11/09'
p54
sg28
S'Matt Simms'
p55
sg30
S'0.0'
p56
sg31
S'W20-13'
p57
sg32
S'2014'
p58
ssS'13'
p59
(dp60
g5
S'--'
p61
sg7
S'13'
p62
sg9
S'--'
p63
sg10
S'--'
p64
sg11
S'--'
p65
sg12
S'--'
p66
sg13
S'--'
p67
sg14
S'--'
p68
sg15
S'MIA'
p69
sg16
g45
sg17
S'--'
p70
sg18
S'--'
p71
sg19
S'--'
p72
sg20
g45
sg21
S'--'
p73
sg22
S'--'
p74
sg23
S'--'
p75
sg24
S'--'
p76
sg25
S'--'
p77
sg26
S'12/01'
p78
sg28
S'Matt Simms'
p79
sg30
S'0.0'
p80
sg31
S'L13-16'
p81
sg32
S'2014'
p82
ssS'12'
p83
(dp84
g5
S'--'
p85
sg7
S'12'
p86
sg9
S'--'
p87
sg10
S'--'
p88
sg11
S'--'
p89
sg12
S'--'
p90
sg13
S'--'
p91
sg14
S'--'
p92
sg15
S'@BUF'
p93
sg16
g45
sg17
S'--'
p94
sg18
S'--'
p95
sg19
S'--'
p96
sg20
g45
sg21
S'--'
p97
sg22
S'--'
p98
sg23
S'--'
p99
sg24
S'--'
p100
sg25
S'--'
p101
sg26
S'11/24'
p102
sg28
S'Matt Simms'
p103
sg30
S'0.0'
p104
sg31
S'L3-38'
p105
sg32
S'2014'
p106
ssS'15'
p107
(dp108
g5
S'--'
p109
sg7
S'15'
p110
sg9
S'--'
p111
sg10
S'--'
p112
sg11
S'--'
p113
sg12
S'--'
p114
sg13
S'--'
p115
sg14
S'--'
p116
sg15
S'@TEN'
p117
sg16
g45
sg17
S'--'
p118
sg18
S'--'
p119
sg19
S'--'
p120
sg20
g45
sg21
S'--'
p121
sg22
S'--'
p122
sg23
S'--'
p123
sg24
S'--'
p124
sg25
S'--'
p125
sg26
S'12/14'
p126
sg28
S'Matt Simms'
p127
sg30
S'0.0'
p128
sg31
S'W16-11'
p129
sg32
S'2014'
p130
ssS'14'
p131
(dp132
g5
S'--'
p133
sg7
S'14'
p134
sg9
S'--'
p135
sg10
S'--'
p136
sg11
S'--'
p137
sg12
S'--'
p138
sg13
S'--'
p139
sg14
S'--'
p140
sg15
S'@MIN'
p141
sg16
g45
sg17
S'--'
p142
sg18
S'--'
p143
sg19
S'--'
p144
sg20
g45
sg21
S'--'
p145
sg22
S'--'
p146
sg23
S'--'
p147
sg24
S'--'
p148
sg25
S'--'
p149
sg26
S'12/07'
p150
sg28
S'Matt Simms'
p151
sg30
S'0.0'
p152
sg31
S'L24-30'
p153
sg32
S'2014'
p154
ssS'17'
p155
(dp156
g5
S'--'
p157
sg7
S'17'
p158
sg9
S'--'
p159
sg10
S'--'
p160
sg11
S'--'
p161
sg12
S'--'
p162
sg13
S'--'
p163
sg14
S'--'
p164
sg15
S'@MIA'
p165
sg16
g45
sg17
S'--'
p166
sg18
S'--'
p167
sg19
S'--'
p168
sg20
g45
sg21
S'--'
p169
sg22
S'--'
p170
sg23
S'--'
p171
sg24
S'--'
p172
sg25
S'--'
p173
sg26
S'12/28'
p174
sg28
S'Matt Simms'
p175
sg30
S'0.0'
p176
sg31
S'W37-24'
p177
sg32
S'2014'
p178
ssS'16'
p179
(dp180
g5
S'--'
p181
sg7
S'16'
p182
sg9
S'--'
p183
sg10
S'--'
p184
sg11
S'--'
p185
sg12
S'--'
p186
sg13
S'--'
p187
sg14
S'--'
p188
sg15
S'NE'
p189
sg16
g45
sg17
S'--'
p190
sg18
S'--'
p191
sg19
S'--'
p192
sg20
g45
sg21
S'--'
p193
sg22
S'--'
p194
sg23
S'--'
p195
sg24
S'--'
p196
sg25
S'--'
p197
sg26
S'12/21'
p198
sg28
S'Matt Simms'
p199
sg30
S'0.0'
p200
sg31
S'L16-17'
p201
sg32
S'2014'
p202
ssS'9'
p203
(dp204
g5
S'8'
p205
sg7
g203
sg9
S'2.0'
p206
sg10
S'37.5'
p207
sg11
S'1'
p208
sg12
S'39'
p209
sg13
S'4.9'
p210
sg14
S'--'
p211
sg15
S'@KC'
p212
sg16
g208
sg17
S'3'
p213
sg18
g45
sg19
S'2'
p214
sg20
g45
sg21
S'--'
p215
sg22
g45
sg23
g45
sg24
g45
sg25
g45
sg26
S'11/02'
p216
sg28
S'Matt Simms'
p217
sg30
S'53.6'
p218
sg31
S'L10-24'
p219
sg32
S'2014'
p220
sssS'2013'
p221
(dp222
g3
(dp223
g5
S'6'
p224
sg7
S'11'
p225
sg9
S'--'
p226
sg10
S'66.7'
p227
sg11
S'--'
p228
sg12
S'60'
p229
sg13
S'10.0'
p230
sg14
S'--'
p231
sg15
S'@BUF'
p232
sg16
g208
sg17
S'4'
p233
sg18
g45
sg19
S'--'
p234
sg20
g45
sg21
S'--'
p235
sg22
S'--'
p236
sg23
g208
sg24
g45
sg25
g45
sg26
S'11/17'
p237
sg28
S'Matt Simms'
p238
sg30
S'138.9'
p239
sg31
S'L14-37'
p240
sg32
S'2013'
p241
ssg34
(dp242
g5
g6
sg7
S'10'
p243
sg9
g6
sg10
g6
sg11
g6
sg12
g6
sg13
g6
sg14
g6
sg15
g6
sg16
g6
sg17
g6
sg18
g6
sg19
g6
sg20
g6
sg21
g6
sg22
g6
sg23
g6
sg24
g6
sg25
g6
sg26
S'Bye'
p244
sg28
S'Matt Simms'
p245
sg30
g6
sg31
g6
sg32
S'2013'
p246
ssg59
(dp247
g5
S'18'
p248
sg7
S'13'
p249
sg9
S'1.0'
p250
sg10
S'50.0'
p251
sg11
g214
sg12
S'79'
p252
sg13
S'4.4'
p253
sg14
g208
sg15
S'MIA'
p254
sg16
g208
sg17
g203
sg18
S'22'
p255
sg19
g214
sg20
g45
sg21
g208
sg22
g45
sg23
g45
sg24
g213
sg25
g208
sg26
S'12/01'
p256
sg28
S'Matt Simms'
p257
sg30
S'38.9'
p258
sg31
S'L3-23'
p259
sg32
S'2013'
p260
ssg83
(dp261
g5
S'--'
p262
sg7
S'12'
p263
sg9
S'--'
p264
sg10
S'--'
p265
sg11
S'--'
p266
sg12
S'--'
p267
sg13
S'--'
p268
sg14
S'--'
p269
sg15
S'@BAL'
p270
sg16
g45
sg17
S'--'
p271
sg18
S'--'
p272
sg19
S'--'
p273
sg20
g45
sg21
S'--'
p274
sg22
S'--'
p275
sg23
S'--'
p276
sg24
S'--'
p277
sg25
S'--'
p278
sg26
S'11/24'
p279
sg28
S'Matt Simms'
p280
sg30
S'0.0'
p281
sg31
S'L3-19'
p282
sg32
S'2013'
p283
ssg107
(dp284
g5
S'--'
p285
sg7
S'15'
p286
sg9
S'--'
p287
sg10
S'--'
p288
sg11
S'--'
p289
sg12
S'--'
p290
sg13
S'--'
p291
sg14
S'--'
p292
sg15
S'@CAR'
p293
sg16
g45
sg17
S'--'
p294
sg18
S'--'
p295
sg19
S'--'
p296
sg20
g45
sg21
S'--'
p297
sg22
S'--'
p298
sg23
S'--'
p299
sg24
S'--'
p300
sg25
S'--'
p301
sg26
S'12/15'
p302
sg28
S'Matt Simms'
p303
sg30
S'0.0'
p304
sg31
S'L20-30'
p305
sg32
S'2013'
p306
ssg131
(dp307
g5
S'--'
p308
sg7
S'14'
p309
sg9
S'--'
p310
sg10
S'--'
p311
sg11
S'--'
p312
sg12
S'--'
p313
sg13
S'--'
p314
sg14
S'--'
p315
sg15
S'OAK'
p316
sg16
g45
sg17
S'--'
p317
sg18
S'--'
p318
sg19
S'--'
p319
sg20
g45
sg21
S'--'
p320
sg22
S'--'
p321
sg23
S'--'
p322
sg24
S'--'
p323
sg25
S'--'
p324
sg26
S'12/08'
p325
sg28
S'Matt Simms'
p326
sg30
S'0.0'
p327
sg31
S'W37-27'
p328
sg32
S'2013'
p329
ssg155
(dp330
g5
S'--'
p331
sg7
S'17'
p332
sg9
S'--'
p333
sg10
S'--'
p334
sg11
S'--'
p335
sg12
S'--'
p336
sg13
S'--'
p337
sg14
S'--'
p338
sg15
S'@MIA'
p339
sg16
g45
sg17
S'--'
p340
sg18
S'--'
p341
sg19
S'--'
p342
sg20
g45
sg21
S'--'
p343
sg22
S'--'
p344
sg23
S'--'
p345
sg24
S'--'
p346
sg25
S'--'
p347
sg26
S'12/29'
p348
sg28
S'Matt Simms'
p349
sg30
S'0.0'
p350
sg31
S'W20-7'
p351
sg32
S'2013'
p352
ssg179
(dp353
g5
S'--'
p354
sg7
S'16'
p355
sg9
S'--'
p356
sg10
S'--'
p357
sg11
S'--'
p358
sg12
S'--'
p359
sg13
S'--'
p360
sg14
S'--'
p361
sg15
S'CLE'
p362
sg16
g45
sg17
S'--'
p363
sg18
S'--'
p364
sg19
S'--'
p365
sg20
g45
sg21
S'--'
p366
sg22
S'--'
p367
sg23
S'--'
p368
sg24
S'--'
p369
sg25
S'--'
p370
sg26
S'12/22'
p371
sg28
S'Matt Simms'
p372
sg30
S'0.0'
p373
sg31
S'W24-13'
p374
sg32
S'2013'
p375
ssg208
(dp376
g5
S'--'
p377
sg7
g208
sg9
S'--'
p378
sg10
S'--'
p379
sg11
S'--'
p380
sg12
S'--'
p381
sg13
S'--'
p382
sg14
S'--'
p383
sg15
S'TB'
p384
sg16
g45
sg17
S'--'
p385
sg18
S'--'
p386
sg19
S'--'
p387
sg20
g45
sg21
S'--'
p388
sg22
S'--'
p389
sg23
S'--'
p390
sg24
S'--'
p391
sg25
S'--'
p392
sg26
S'09/08'
p393
sg28
S'Matt Simms'
p394
sg30
S'0.0'
p395
sg31
S'W18-17'
p396
sg32
S'2013'
p397
ssg213
(dp398
g5
S'--'
p399
sg7
g213
sg9
S'--'
p400
sg10
S'--'
p401
sg11
S'--'
p402
sg12
S'--'
p403
sg13
S'--'
p404
sg14
S'--'
p405
sg15
S'BUF'
p406
sg16
g45
sg17
S'--'
p407
sg18
S'--'
p408
sg19
S'--'
p409
sg20
g45
sg21
S'--'
p410
sg22
S'--'
p411
sg23
S'--'
p412
sg24
S'--'
p413
sg25
S'--'
p414
sg26
S'09/22'
p415
sg28
S'Matt Simms'
p416
sg30
S'0.0'
p417
sg31
S'W27-20'
p418
sg32
S'2013'
p419
ssg214
(dp420
g5
S'--'
p421
sg7
g214
sg9
S'--'
p422
sg10
S'--'
p423
sg11
S'--'
p424
sg12
S'--'
p425
sg13
S'--'
p426
sg14
S'--'
p427
sg15
S'@NE'
p428
sg16
g45
sg17
S'--'
p429
sg18
S'--'
p430
sg19
S'--'
p431
sg20
g45
sg21
S'--'
p432
sg22
S'--'
p433
sg23
S'--'
p434
sg24
S'--'
p435
sg25
S'--'
p436
sg26
S'09/12'
p437
sg28
S'Matt Simms'
p438
sg30
S'0.0'
p439
sg31
S'L10-13'
p440
sg32
S'2013'
p441
ssS'5'
p442
(dp443
g5
S'--'
p444
sg7
g442
sg9
S'--'
p445
sg10
S'--'
p446
sg11
S'--'
p447
sg12
S'--'
p448
sg13
S'--'
p449
sg14
S'--'
p450
sg15
S'@ATL'
p451
sg16
g45
sg17
S'--'
p452
sg18
S'--'
p453
sg19
S'--'
p454
sg20
g45
sg21
S'--'
p455
sg22
S'--'
p456
sg23
S'--'
p457
sg24
S'--'
p458
sg25
S'--'
p459
sg26
S'10/07'
p460
sg28
S'Matt Simms'
p461
sg30
S'0.0'
p462
sg31
S'W30-28'
p463
sg32
S'2013'
p464
ssg233
(dp465
g5
S'--'
p466
sg7
g233
sg9
S'--'
p467
sg10
S'--'
p468
sg11
S'--'
p469
sg12
S'--'
p470
sg13
S'--'
p471
sg14
S'--'
p472
sg15
S'@TEN'
p473
sg16
g45
sg17
S'--'
p474
sg18
S'--'
p475
sg19
S'--'
p476
sg20
g45
sg21
S'--'
p477
sg22
S'--'
p478
sg23
S'--'
p479
sg24
S'--'
p480
sg25
S'--'
p481
sg26
S'09/29'
p482
sg28
S'Matt Simms'
p483
sg30
S'0.0'
p484
sg31
S'L13-38'
p485
sg32
S'2013'
p486
ssS'7'
p487
(dp488
g5
S'--'
p489
sg7
g487
sg9
S'--'
p490
sg10
S'--'
p491
sg11
S'--'
p492
sg12
S'--'
p493
sg13
S'--'
p494
sg14
S'--'
p495
sg15
S'NE'
p496
sg16
g45
sg17
S'--'
p497
sg18
S'--'
p498
sg19
S'--'
p499
sg20
g45
sg21
S'--'
p500
sg22
S'--'
p501
sg23
S'--'
p502
sg24
S'--'
p503
sg25
S'--'
p504
sg26
S'10/20'
p505
sg28
S'Matt Simms'
p506
sg30
S'0.0'
p507
sg31
S'W30-27'
p508
sg32
S'2013'
p509
ssg224
(dp510
g5
S'--'
p511
sg7
g224
sg9
S'--'
p512
sg10
S'--'
p513
sg11
S'--'
p514
sg12
S'--'
p515
sg13
S'--'
p516
sg14
S'--'
p517
sg15
S'PIT'
p518
sg16
g45
sg17
S'--'
p519
sg18
S'--'
p520
sg19
S'--'
p521
sg20
g45
sg21
S'--'
p522
sg22
S'--'
p523
sg23
S'--'
p524
sg24
S'--'
p525
sg25
S'--'
p526
sg26
S'10/13'
p527
sg28
S'Matt Simms'
p528
sg30
S'0.0'
p529
sg31
S'L6-19'
p530
sg32
S'2013'
p531
ssg203
(dp532
g5
S'--'
p533
sg7
g203
sg9
S'--'
p534
sg10
S'--'
p535
sg11
S'--'
p536
sg12
S'--'
p537
sg13
S'--'
p538
sg14
S'--'
p539
sg15
S'NO'
p540
sg16
g45
sg17
S'--'
p541
sg18
S'--'
p542
sg19
S'--'
p543
sg20
g45
sg21
S'--'
p544
sg22
S'--'
p545
sg23
S'--'
p546
sg24
S'--'
p547
sg25
S'--'
p548
sg26
S'11/03'
p549
sg28
S'Matt Simms'
p550
sg30
S'0.0'
p551
sg31
S'W26-20'
p552
sg32
S'2013'
p553
ssg205
(dp554
g5
g487
sg7
g205
sg9
S'11.7'
p555
sg10
S'42.9'
p556
sg11
g213
sg12
S'17'
p557
sg13
S'2.4'
p558
sg14
S'--'
p559
sg15
S'@CIN'
p560
sg16
g208
sg17
g213
sg18
g208
sg19
S'35'
p561
sg20
g45
sg21
S'--'
p562
sg22
g45
sg23
g45
sg24
g208
sg25
g45
sg26
S'10/27'
p563
sg28
S'Matt Simms'
p564
sg30
S'50.3'
p565
sg31
S'L9-49'
p566
sg32
S'2013'
p567
sss.