(dp0
S'2015'
p1
(dp2
S'11'
p3
(dp4
S'PassAtt'
p5
S'--'
p6
sS'WK'
p7
S'11'
p8
sS'RushAvg'
p9
S'--'
p10
sS'Pct'
p11
S'--'
p12
sS'RushAtt'
p13
S'--'
p14
sS'PassYds'
p15
S'--'
p16
sS'PassAvg'
p17
S'--'
p18
sS'FUM'
p19
S'--'
p20
sS'Opp'
p21
S'@MIA'
p22
sS'G'
p23
S'0'
p24
sS'Comp'
p25
S'--'
p26
sS'SckY'
p27
S'--'
p28
sS'RushYds'
p29
S'--'
p30
sS'GS'
p31
g24
sS'Lost'
p32
S'--'
p33
sS'RushTD'
p34
S'--'
p35
sS'PassTD'
p36
S'--'
p37
sS'Sck'
p38
S'--'
p39
sS'Int'
p40
S'--'
p41
sS'Game Date'
p42
S'11/22'
p43
sS'Player'
p44
S'Matt Cassel'
p45
sS'Rate'
p46
S'0.0'
p47
sS'Result'
p48
S'W24-14'
p49
sS'Year'
p50
S'2015'
p51
ssS'10'
p52
(dp53
g5
S'29'
p54
sg7
S'10'
p55
sg9
S'2.0'
p56
sg11
S'65.5'
p57
sg13
S'1'
p58
sg15
S'186'
p59
sg17
S'6.4'
p60
sg19
g58
sg21
S'@TB'
p61
sg23
g58
sg25
S'19'
p62
sg27
S'12'
p63
sg29
S'2'
p64
sg31
g58
sg32
g24
sg34
g24
sg36
g24
sg38
S'3'
p65
sg40
g58
sg42
S'11/15'
p66
sg44
S'Matt Cassel'
p67
sg46
S'69.0'
p68
sg48
S'L6-10'
p69
sg50
S'2015'
p70
ssS'13'
p71
(dp72
g5
S'29'
p73
sg7
S'13'
p74
sg9
S'-1.5'
p75
sg11
S'55.2'
p76
sg13
g64
sg15
S'223'
p77
sg17
S'7.7'
p78
sg19
g58
sg21
S'@WAS'
p79
sg23
g58
sg25
S'16'
p80
sg27
g64
sg29
S'-3'
p81
sg31
g58
sg32
g24
sg34
g24
sg36
g24
sg38
g58
sg40
g24
sg42
S'12/07'
p82
sg44
S'Matt Cassel'
p83
sg46
S'80.1'
p84
sg48
S'W19-16'
p85
sg50
S'2015'
p86
ssS'12'
p87
(dp88
g5
S'19'
p89
sg7
S'12'
p90
sg9
S'4.5'
p91
sg11
S'68.4'
p92
sg13
g64
sg15
S'93'
p93
sg17
S'4.9'
p94
sg19
S'--'
p95
sg21
S'CAR'
p96
sg23
g58
sg25
S'13'
p97
sg27
S'10'
p98
sg29
S'9'
p99
sg31
g24
sg32
S'--'
p100
sg34
g24
sg36
g58
sg38
g58
sg40
g24
sg42
S'11/26'
p101
sg44
S'Matt Cassel'
p102
sg46
S'97.0'
p103
sg48
S'L14-33'
p104
sg50
S'2015'
p105
ssS'15'
p106
(dp107
g5
S'8'
p108
sg7
S'15'
p109
sg9
S'--'
p110
sg11
S'37.5'
p111
sg13
S'--'
p112
sg15
S'37'
p113
sg17
S'4.6'
p114
sg19
S'--'
p115
sg21
S'NYJ'
p116
sg23
g58
sg25
g65
sg27
S'19'
p117
sg29
S'--'
p118
sg31
g58
sg32
S'--'
p119
sg34
S'--'
p120
sg36
g24
sg38
g58
sg40
g58
sg42
S'12/19'
p121
sg44
S'Matt Cassel'
p122
sg46
S'13.0'
p123
sg48
S'L16-19'
p124
sg50
S'2015'
p125
ssS'14'
p126
(dp127
g5
S'29'
p128
sg7
S'14'
p129
sg9
S'2.0'
p130
sg11
S'44.8'
p131
sg13
g65
sg15
S'114'
p132
sg17
S'3.9'
p133
sg19
S'--'
p134
sg21
S'@GB'
p135
sg23
g58
sg25
S'13'
p136
sg27
S'15'
p137
sg29
S'6'
p138
sg31
g58
sg32
S'--'
p139
sg34
g24
sg36
g24
sg38
g64
sg40
g58
sg42
S'12/13'
p140
sg44
S'Matt Cassel'
p141
sg46
S'41.5'
p142
sg48
S'L7-28'
p143
sg50
S'2015'
p144
ssS'17'
p145
(dp146
g5
S'--'
p147
sg7
S'17'
p148
sg9
S'--'
p149
sg11
S'--'
p150
sg13
S'--'
p151
sg15
S'--'
p152
sg17
S'--'
p153
sg19
S'--'
p154
sg21
S'WAS'
p155
sg23
g24
sg25
S'--'
p156
sg27
S'--'
p157
sg29
S'--'
p158
sg31
g24
sg32
S'--'
p159
sg34
S'--'
p160
sg36
S'--'
p161
sg38
S'--'
p162
sg40
S'--'
p163
sg42
S'01/03'
p164
sg44
S'Matt Cassel'
p165
sg46
S'0.0'
p166
sg48
S'L23-34'
p167
sg50
S'2015'
p168
ssS'16'
p169
(dp170
g5
S'--'
p171
sg7
S'16'
p172
sg9
S'--'
p173
sg11
S'--'
p174
sg13
S'--'
p175
sg15
S'--'
p176
sg17
S'--'
p177
sg19
S'--'
p178
sg21
S'@BUF'
p179
sg23
g24
sg25
S'--'
p180
sg27
S'--'
p181
sg29
S'--'
p182
sg31
g24
sg32
S'--'
p183
sg34
S'--'
p184
sg36
S'--'
p185
sg38
S'--'
p186
sg40
S'--'
p187
sg42
S'12/27'
p188
sg44
S'Matt Cassel'
p189
sg46
S'0.0'
p190
sg48
S'L6-16'
p191
sg50
S'2015'
p192
ssg58
(dp193
g5
S'--'
p194
sg7
g58
sg9
S'--'
p195
sg11
S'--'
p196
sg13
S'--'
p197
sg15
S'--'
p198
sg17
S'--'
p199
sg19
S'--'
p200
sg21
S'IND'
p201
sg23
g58
sg25
S'--'
p202
sg27
S'--'
p203
sg29
S'--'
p204
sg31
g58
sg32
S'--'
p205
sg34
S'--'
p206
sg36
S'--'
p207
sg38
S'--'
p208
sg40
S'--'
p209
sg42
S'09/13'
p210
sg44
S'Matt Cassel'
p211
sg46
S'0.0'
p212
sg48
S'W27-14'
p213
sg50
S'2015'
p214
ssg65
(dp215
g5
S'--'
p216
sg7
g65
sg9
S'--'
p217
sg11
S'--'
p218
sg13
S'--'
p219
sg15
S'--'
p220
sg17
S'--'
p221
sg19
S'--'
p222
sg21
S'ATL'
p223
sg23
g24
sg25
S'--'
p224
sg27
S'--'
p225
sg29
S'--'
p226
sg31
g24
sg32
S'--'
p227
sg34
S'--'
p228
sg36
S'--'
p229
sg38
S'--'
p230
sg40
S'--'
p231
sg42
S'09/27'
p232
sg44
S'Matt Cassel'
p233
sg46
S'0.0'
p234
sg48
S'L28-39'
p235
sg50
S'2015'
p236
ssg64
(dp237
g5
S'--'
p238
sg7
g64
sg9
S'--'
p239
sg11
S'--'
p240
sg13
S'--'
p241
sg15
S'--'
p242
sg17
S'--'
p243
sg19
S'--'
p244
sg21
S'NE'
p245
sg23
g24
sg25
S'--'
p246
sg27
S'--'
p247
sg29
S'--'
p248
sg31
g24
sg32
S'--'
p249
sg34
S'--'
p250
sg36
S'--'
p251
sg38
S'--'
p252
sg40
S'--'
p253
sg42
S'09/20'
p254
sg44
S'Matt Cassel'
p255
sg46
S'0.0'
p256
sg48
S'L32-40'
p257
sg50
S'2015'
p258
ssS'5'
p259
(dp260
g5
S'--'
p261
sg7
g259
sg9
S'--'
p262
sg11
S'--'
p263
sg13
S'--'
p264
sg15
S'--'
p265
sg17
S'--'
p266
sg19
S'--'
p267
sg21
S'NE'
p268
sg23
g24
sg25
S'--'
p269
sg27
S'--'
p270
sg29
S'--'
p271
sg31
g24
sg32
S'--'
p272
sg34
S'--'
p273
sg36
S'--'
p274
sg38
S'--'
p275
sg40
S'--'
p276
sg42
S'10/11'
p277
sg44
S'Matt Cassel'
p278
sg46
S'0.0'
p279
sg48
S'L6-30'
p280
sg50
S'2015'
p281
ssS'4'
p282
(dp283
g5
S'--'
p284
sg7
g282
sg9
S'--'
p285
sg11
S'--'
p286
sg13
S'--'
p287
sg15
S'--'
p288
sg17
S'--'
p289
sg19
S'--'
p290
sg21
S'@NO'
p291
sg23
g24
sg25
S'--'
p292
sg27
S'--'
p293
sg29
S'--'
p294
sg31
g24
sg32
S'--'
p295
sg34
S'--'
p296
sg36
S'--'
p297
sg38
S'--'
p298
sg40
S'--'
p299
sg42
S'10/04'
p300
sg44
S'Matt Cassel'
p301
sg46
S'0.0'
p302
sg48
S'L20-26'
p303
sg50
S'2015'
p304
ssS'7'
p305
(dp306
g5
S'27'
p307
sg7
g305
sg9
S'4.0'
p308
sg11
S'63.0'
p309
sg13
g58
sg15
S'227'
p310
sg17
S'8.4'
p311
sg19
S'--'
p312
sg21
S'@NYG'
p313
sg23
g58
sg25
S'17'
p314
sg27
g24
sg29
g282
sg31
g58
sg32
S'--'
p315
sg34
g24
sg36
g58
sg38
g58
sg40
g65
sg42
S'10/25'
p316
sg44
S'Matt Cassel'
p317
sg46
S'62.3'
p318
sg48
S'L20-27'
p319
sg50
S'2015'
p320
ssg138
(dp321
g5
S''
p322
sg7
g138
sg9
g322
sg11
g322
sg13
g322
sg15
g322
sg17
g322
sg19
g322
sg21
g322
sg23
g322
sg25
g322
sg27
g322
sg29
g322
sg31
g322
sg32
g322
sg34
g322
sg36
g322
sg38
g322
sg40
g322
sg42
S'Bye'
p323
sg44
S'Matt Cassel'
p324
sg46
g322
sg48
g322
sg50
S'2015'
p325
ssg99
(dp326
g5
S'38'
p327
sg7
g99
sg9
S'8.5'
p328
sg11
S'65.8'
p329
sg13
g64
sg15
S'299'
p330
sg17
S'7.9'
p331
sg19
g64
sg21
S'PHI'
p332
sg23
g58
sg25
S'25'
p333
sg27
S'22'
p334
sg29
S'17'
p335
sg31
g58
sg32
g24
sg34
g24
sg36
g65
sg38
g282
sg40
g58
sg42
S'11/08'
p336
sg44
S'Matt Cassel'
p337
sg46
S'105.0'
p338
sg48
S'L27-33'
p339
sg50
S'2015'
p340
ssg108
(dp341
g5
S'25'
p342
sg7
g108
sg9
S'10.8'
p343
sg11
S'52.0'
p344
sg13
g282
sg15
S'97'
p345
sg17
S'3.9'
p346
sg19
S'--'
p347
sg21
S'SEA'
p348
sg23
g58
sg25
S'13'
p349
sg27
g138
sg29
S'43'
p350
sg31
g58
sg32
S'--'
p351
sg34
g24
sg36
g24
sg38
g58
sg40
g24
sg42
S'11/01'
p352
sg44
S'Matt Cassel'
p353
sg46
S'61.6'
p354
sg48
S'L12-13'
p355
sg50
S'2015'
p356
sssS'2014'
p357
(dp358
g58
(dp359
g5
S'25'
p360
sg7
g58
sg9
S'-0.6'
p361
sg11
S'68.0'
p362
sg13
g259
sg15
S'170'
p363
sg17
S'6.8'
p364
sg19
g64
sg21
S'@STL'
p365
sg23
g58
sg25
S'17'
p366
sg27
g24
sg29
S'-3'
p367
sg31
g58
sg32
g24
sg34
g24
sg36
g64
sg38
g24
sg40
g24
sg42
S'09/07'
p368
sg44
S'Matt Cassel'
p369
sg46
S'113.8'
p370
sg48
S'W34-6'
p371
sg50
S'2014'
p372
ssg65
(dp373
g5
S'10'
p374
sg7
g65
sg9
S'5.0'
p375
sg11
S'50.0'
p376
sg13
g58
sg15
S'53'
p377
sg17
S'5.3'
p378
sg19
S'--'
p379
sg21
S'@NO'
p380
sg23
g58
sg25
g259
sg27
g24
sg29
g259
sg31
g58
sg32
S'--'
p381
sg34
g24
sg36
g24
sg38
g24
sg40
g24
sg42
S'09/21'
p382
sg44
S'Matt Cassel'
p383
sg46
S'65.8'
p384
sg48
S'L9-20'
p385
sg50
S'2014'
p386
ssg64
(dp387
g5
S'36'
p388
sg7
g64
sg9
S'5.3'
p389
sg11
S'52.8'
p390
sg13
g65
sg15
S'202'
p391
sg17
S'5.6'
p392
sg19
g58
sg21
S'NE'
p393
sg23
g58
sg25
S'19'
p394
sg27
S'39'
p395
sg29
S'16'
p396
sg31
g58
sg32
g24
sg34
g24
sg36
g58
sg38
g138
sg40
g282
sg42
S'09/14'
p397
sg44
S'Matt Cassel'
p398
sg46
S'39.1'
p399
sg48
S'L7-30'
p400
sg50
S'2014'
p401
sssS'2011'
p402
(dp403
g52
(dp404
g5
S'28'
p405
sg7
S'10'
p406
sg9
S'8.0'
p407
sg11
S'46.4'
p408
sg13
g64
sg15
S'93'
p409
sg17
S'3.3'
p410
sg19
g58
sg21
S'DEN'
p411
sg23
g58
sg25
S'13'
p412
sg27
S'16'
p413
sg29
S'16'
p414
sg31
g58
sg32
g24
sg34
g24
sg36
g58
sg38
g282
sg40
g24
sg42
S'11/13'
p415
sg44
S'Matt Cassel'
p416
sg46
S'66.5'
p417
sg48
S'L10-17'
p418
sg50
S'2011'
p419
ssg58
(dp420
g5
S'36'
p421
sg7
g58
sg9
S'--'
p422
sg11
S'61.1'
p423
sg13
S'--'
p424
sg15
S'119'
p425
sg17
S'3.3'
p426
sg19
S'--'
p427
sg21
S'BUF'
p428
sg23
g58
sg25
S'22'
p429
sg27
S'14'
p430
sg29
S'--'
p431
sg31
g58
sg32
S'--'
p432
sg34
S'--'
p433
sg36
g58
sg38
g64
sg40
g58
sg42
S'09/11'
p434
sg44
S'Matt Cassel'
p435
sg46
S'64.5'
p436
sg48
S'L7-41'
p437
sg50
S'2011'
p438
ssg65
(dp439
g5
S'24'
p440
sg7
g65
sg9
S'1.0'
p441
sg11
S'70.8'
p442
sg13
g58
sg15
S'176'
p443
sg17
S'7.3'
p444
sg19
g58
sg21
S'@SD'
p445
sg23
g58
sg25
S'17'
p446
sg27
g259
sg29
g58
sg31
g58
sg32
g24
sg34
g24
sg36
g64
sg38
g58
sg40
g58
sg42
S'09/25'
p447
sg44
S'Matt Cassel'
p448
sg46
S'102.1'
p449
sg48
S'L17-20'
p450
sg50
S'2011'
p451
ssg64
(dp452
g5
S'22'
p453
sg7
g64
sg9
S'--'
p454
sg11
S'68.2'
p455
sg13
S'--'
p456
sg15
S'133'
p457
sg17
S'6.0'
p458
sg19
g58
sg21
S'@DET'
p459
sg23
g58
sg25
S'15'
p460
sg27
S'17'
p461
sg29
S'--'
p462
sg31
g58
sg32
g58
sg34
S'--'
p463
sg36
g24
sg38
g64
sg40
g65
sg42
S'09/18'
p464
sg44
S'Matt Cassel'
p465
sg46
S'44.5'
p466
sg48
S'L3-48'
p467
sg50
S'2011'
p468
ssg259
(dp469
g5
S'29'
p470
sg7
g259
sg9
S'2.4'
p471
sg11
S'72.4'
p472
sg13
g259
sg15
S'257'
p473
sg17
S'8.9'
p474
sg19
S'--'
p475
sg21
S'@IND'
p476
sg23
g58
sg25
S'21'
p477
sg27
S'15'
p478
sg29
S'12'
p479
sg31
g58
sg32
S'--'
p480
sg34
g24
sg36
g282
sg38
g64
sg40
g24
sg42
S'10/09'
p481
sg44
S'Matt Cassel'
p482
sg46
S'138.9'
p483
sg48
S'W28-24'
p484
sg50
S'2011'
p485
ssg282
(dp486
g5
S'29'
p487
sg7
g282
sg9
S'5.0'
p488
sg11
S'62.1'
p489
sg13
g282
sg15
S'260'
p490
sg17
S'9.0'
p491
sg19
S'--'
p492
sg21
S'MIN'
p493
sg23
g58
sg25
S'18'
p494
sg27
S'13'
p495
sg29
S'20'
p496
sg31
g58
sg32
S'--'
p497
sg34
g24
sg36
g58
sg38
g65
sg40
g24
sg42
S'10/02'
p498
sg44
S'Matt Cassel'
p499
sg46
S'102.7'
p500
sg48
S'W22-17'
p501
sg50
S'2011'
p502
ssg305
(dp503
g5
S'30'
p504
sg7
g305
sg9
S'-1.0'
p505
sg11
S'50.0'
p506
sg13
g64
sg15
S'161'
p507
sg17
S'5.4'
p508
sg19
S'--'
p509
sg21
S'@OAK'
p510
sg23
g58
sg25
S'15'
p511
sg27
g24
sg29
S'-2'
p512
sg31
g58
sg32
S'--'
p513
sg34
g24
sg36
g24
sg38
g24
sg40
g64
sg42
S'10/23'
p514
sg44
S'Matt Cassel'
p515
sg46
S'38.3'
p516
sg48
S'W28-0'
p517
sg50
S'2011'
p518
ssg138
(dp519
g5
g322
sg7
g138
sg9
g322
sg11
g322
sg13
g322
sg15
g322
sg17
g322
sg19
g322
sg21
g322
sg23
g322
sg25
g322
sg27
g322
sg29
g322
sg31
g322
sg32
g322
sg34
g322
sg36
g322
sg38
g322
sg40
g322
sg42
S'Bye'
p520
sg44
S'Matt Cassel'
p521
sg46
g322
sg48
g322
sg50
S'2011'
p522
ssg99
(dp523
g5
S'39'
p524
sg7
g99
sg9
S'4.2'
p525
sg11
S'51.3'
p526
sg13
g99
sg15
S'253'
p527
sg17
S'6.5'
p528
sg19
g58
sg21
S'MIA'
p529
sg23
g58
sg25
S'20'
p530
sg27
S'26'
p531
sg29
S'38'
p532
sg31
g58
sg32
g24
sg34
g24
sg36
g24
sg38
g259
sg40
g24
sg42
S'11/06'
p533
sg44
S'Matt Cassel'
p534
sg46
S'71.8'
p535
sg48
S'L3-31'
p536
sg50
S'2011'
p537
ssg108
(dp538
g5
S'32'
p539
sg7
g108
sg9
S'7.0'
p540
sg11
S'59.4'
p541
sg13
g64
sg15
S'261'
p542
sg17
S'8.2'
p543
sg19
g58
sg21
S'SD'
p544
sg23
g58
sg25
S'19'
p545
sg27
S'14'
p546
sg29
S'14'
p547
sg31
g58
sg32
g58
sg34
g24
sg36
g58
sg38
g65
sg40
g64
sg42
S'10/31'
p548
sg44
S'Matt Cassel'
p549
sg46
S'69.9'
p550
sg48
S'W23-20'
p551
sg50
S'2011'
p552
sssS'2010'
p553
(dp554
g3
(dp555
g5
S'24'
p556
sg7
S'11'
p557
sg9
S'--'
p558
sg11
S'62.5'
p559
sg13
S'--'
p560
sg15
S'193'
p561
sg17
S'8.0'
p562
sg19
S'--'
p563
sg21
S'ARI'
p564
sg23
g58
sg25
S'15'
p565
sg27
g24
sg29
S'--'
p566
sg31
g58
sg32
S'--'
p567
sg34
S'--'
p568
sg36
g64
sg38
g24
sg40
g24
sg42
S'11/21'
p569
sg44
S'Matt Cassel'
p570
sg46
S'115.5'
p571
sg48
S'W31-13'
p572
sg50
S'2010'
p573
ssg52
(dp574
g5
S'53'
p575
sg7
S'10'
p576
sg9
S'1.5'
p577
sg11
S'62.3'
p578
sg13
g64
sg15
S'469'
p579
sg17
S'8.8'
p580
sg19
g58
sg21
S'@DEN'
p581
sg23
g58
sg25
S'33'
p582
sg27
S'36'
p583
sg29
g65
sg31
g58
sg32
g58
sg34
g24
sg36
g282
sg38
g282
sg40
g24
sg42
S'11/14'
p584
sg44
S'Matt Cassel'
p585
sg46
S'116.0'
p586
sg48
S'L29-49'
p587
sg50
S'2010'
p588
ssg71
(dp589
g5
S'31'
p590
sg7
S'13'
p591
sg9
S'2.5'
p592
sg11
S'54.8'
p593
sg13
g64
sg15
S'196'
p594
sg17
S'6.3'
p595
sg19
S'--'
p596
sg21
S'DEN'
p597
sg23
g58
sg25
S'17'
p598
sg27
S'22'
p599
sg29
g259
sg31
g58
sg32
S'--'
p600
sg34
g24
sg36
g58
sg38
g64
sg40
g24
sg42
S'12/05'
p601
sg44
S'Matt Cassel'
p602
sg46
S'84.9'
p603
sg48
S'W10-6'
p604
sg50
S'2010'
p605
ssg87
(dp606
g5
S'32'
p607
sg7
S'12'
p608
sg9
S'5.6'
p609
sg11
S'68.8'
p610
sg13
g259
sg15
S'233'
p611
sg17
S'7.3'
p612
sg19
S'--'
p613
sg21
S'@SEA'
p614
sg23
g58
sg25
S'22'
p615
sg27
g24
sg29
S'28'
p616
sg31
g58
sg32
S'--'
p617
sg34
g24
sg36
g282
sg38
g24
sg40
g24
sg42
S'11/28'
p618
sg44
S'Matt Cassel'
p619
sg46
S'129.3'
p620
sg48
S'W42-24'
p621
sg50
S'2010'
p622
ssg106
(dp623
g5
S'29'
p624
sg7
S'15'
p625
sg9
S'2.8'
p626
sg11
S'51.7'
p627
sg13
g138
sg15
S'184'
p628
sg17
S'6.3'
p629
sg19
S'--'
p630
sg21
S'@STL'
p631
sg23
g58
sg25
S'15'
p632
sg27
S'11'
p633
sg29
S'17'
p634
sg31
g58
sg32
S'--'
p635
sg34
g24
sg36
g58
sg38
g65
sg40
g58
sg42
S'12/19'
p636
sg44
S'Matt Cassel'
p637
sg46
S'68.8'
p638
sg48
S'W27-13'
p639
sg50
S'2010'
p640
ssg126
(dp641
g5
S'--'
p642
sg7
S'14'
p643
sg9
S'--'
p644
sg11
S'--'
p645
sg13
S'--'
p646
sg15
S'--'
p647
sg17
S'--'
p648
sg19
S'--'
p649
sg21
S'@SD'
p650
sg23
g24
sg25
S'--'
p651
sg27
S'--'
p652
sg29
S'--'
p653
sg31
g24
sg32
S'--'
p654
sg34
S'--'
p655
sg36
S'--'
p656
sg38
S'--'
p657
sg40
S'--'
p658
sg42
S'12/12'
p659
sg44
S'Matt Cassel'
p660
sg46
S'0.0'
p661
sg48
S'L0-31'
p662
sg50
S'2010'
p663
ssg145
(dp664
g5
S'33'
p665
sg7
S'17'
p666
sg9
S'--'
p667
sg11
S'33.3'
p668
sg13
S'--'
p669
sg15
S'115'
p670
sg17
S'3.5'
p671
sg19
S'--'
p672
sg21
S'OAK'
p673
sg23
g58
sg25
S'11'
p674
sg27
S'46'
p675
sg29
S'--'
p676
sg31
g58
sg32
S'--'
p677
sg34
S'--'
p678
sg36
g24
sg38
g259
sg40
g64
sg42
S'01/02'
p679
sg44
S'Matt Cassel'
p680
sg46
S'19.1'
p681
sg48
S'L10-31'
p682
sg50
S'2010'
p683
ssg169
(dp684
g5
S'34'
p685
sg7
S'16'
p686
sg9
S'6.7'
p687
sg11
S'70.6'
p688
sg13
g65
sg15
S'314'
p689
sg17
S'9.2'
p690
sg19
g58
sg21
S'TEN'
p691
sg23
g58
sg25
S'24'
p692
sg27
g138
sg29
S'20'
p693
sg31
g58
sg32
g24
sg34
g24
sg36
g65
sg38
g58
sg40
g24
sg42
S'12/26'
p694
sg44
S'Matt Cassel'
p695
sg46
S'128.8'
p696
sg48
S'W34-14'
p697
sg50
S'2010'
p698
ssg58
(dp699
g5
S'22'
p700
sg7
g58
sg9
S'2.0'
p701
sg11
S'45.5'
p702
sg13
g64
sg15
S'68'
p703
sg17
S'3.1'
p704
sg19
S'--'
p705
sg21
S'SD'
p706
sg23
g58
sg25
S'10'
p707
sg27
g138
sg29
g282
sg31
g58
sg32
S'--'
p708
sg34
g24
sg36
g58
sg38
g58
sg40
g24
sg42
S'09/13'
p709
sg44
S'Matt Cassel'
p710
sg46
S'68.0'
p711
sg48
S'W21-14'
p712
sg50
S'2010'
p713
ssg65
(dp714
g5
S'27'
p715
sg7
g65
sg9
S'3.5'
p716
sg11
S'59.3'
p717
sg13
g64
sg15
S'250'
p718
sg17
S'9.3'
p719
sg19
S'--'
p720
sg21
S'SF'
p721
sg23
g58
sg25
S'16'
p722
sg27
g24
sg29
g305
sg31
g58
sg32
S'--'
p723
sg34
g24
sg36
g65
sg38
g24
sg40
g58
sg42
S'09/26'
p724
sg44
S'Matt Cassel'
p725
sg46
S'111.7'
p726
sg48
S'W31-10'
p727
sg50
S'2010'
p728
ssg64
(dp729
g5
S'28'
p730
sg7
g64
sg9
S'1.3'
p731
sg11
S'57.1'
p732
sg13
g282
sg15
S'176'
p733
sg17
S'6.3'
p734
sg19
S'--'
p735
sg21
S'@CLE'
p736
sg23
g58
sg25
S'16'
p737
sg27
g282
sg29
g259
sg31
g58
sg32
S'--'
p738
sg34
g24
sg36
g24
sg38
g58
sg40
g64
sg42
S'09/19'
p739
sg44
S'Matt Cassel'
p740
sg46
S'46.1'
p741
sg48
S'W16-14'
p742
sg50
S'2010'
p743
ssg259
(dp744
g5
S'29'
p745
sg7
g259
sg9
S'1.0'
p746
sg11
S'55.2'
p747
sg13
g58
sg15
S'156'
p748
sg17
S'5.4'
p749
sg19
g58
sg21
S'@IND'
p750
sg23
g58
sg25
S'16'
p751
sg27
g108
sg29
g58
sg31
g58
sg32
g24
sg34
g24
sg36
g24
sg38
g58
sg40
g24
sg42
S'10/10'
p752
sg44
S'Matt Cassel'
p753
sg46
S'70.5'
p754
sg48
S'L9-19'
p755
sg50
S'2010'
p756
ssg282
(dp757
g5
g322
sg7
g282
sg9
g322
sg11
g322
sg13
g322
sg15
g322
sg17
g322
sg19
g322
sg21
g322
sg23
g322
sg25
g322
sg27
g322
sg29
g322
sg31
g322
sg32
g322
sg34
g322
sg36
g322
sg38
g322
sg40
g322
sg42
S'Bye'
p758
sg44
S'Matt Cassel'
p759
sg46
g322
sg48
g322
sg50
S'2010'
p760
ssg305
(dp761
g5
S'18'
p762
sg7
g305
sg9
S'--'
p763
sg11
S'72.2'
p764
sg13
S'--'
p765
sg15
S'193'
p766
sg17
S'10.7'
p767
sg19
S'--'
p768
sg21
S'JAC'
p769
sg23
g58
sg25
S'13'
p770
sg27
g65
sg29
S'--'
p771
sg31
g58
sg32
S'--'
p772
sg34
S'--'
p773
sg36
g64
sg38
g58
sg40
g24
sg42
S'10/24'
p774
sg44
S'Matt Cassel'
p775
sg46
S'144.0'
p776
sg48
S'W42-20'
p777
sg50
S'2010'
p778
ssg138
(dp779
g5
S'29'
p780
sg7
g138
sg9
S'8.0'
p781
sg11
S'69.0'
p782
sg13
g58
sg15
S'201'
p783
sg17
S'6.9'
p784
sg19
S'--'
p785
sg21
S'@HOU'
p786
sg23
g58
sg25
S'20'
p787
sg27
S'12'
p788
sg29
g108
sg31
g58
sg32
S'--'
p789
sg34
g24
sg36
g65
sg38
g58
sg40
g24
sg42
S'10/17'
p790
sg44
S'Matt Cassel'
p791
sg46
S'122.9'
p792
sg48
S'L31-35'
p793
sg50
S'2010'
p794
ssg99
(dp795
g5
S'35'
p796
sg7
g99
sg9
S'4.7'
p797
sg11
S'57.1'
p798
sg13
g65
sg15
S'216'
p799
sg17
S'6.2'
p800
sg19
S'--'
p801
sg21
S'@OAK'
p802
sg23
g58
sg25
S'20'
p803
sg27
S'16'
p804
sg29
S'14'
p805
sg31
g58
sg32
S'--'
p806
sg34
g24
sg36
g64
sg38
g65
sg40
g58
sg42
S'11/07'
p807
sg44
S'Matt Cassel'
p808
sg46
S'82.6'
p809
sg48
S'L20-23'
p810
sg50
S'2010'
p811
ssg108
(dp812
g5
S'26'
p813
sg7
g108
sg9
S'6.5'
p814
sg11
S'53.8'
p815
sg13
g64
sg15
S'152'
p816
sg17
S'5.8'
p817
sg19
S'--'
p818
sg21
S'BUF'
p819
sg23
g58
sg25
S'14'
p820
sg27
S'12'
p821
sg29
S'13'
p822
sg31
g58
sg32
S'--'
p823
sg34
g24
sg36
g58
sg38
g65
sg40
g24
sg42
S'10/31'
p824
sg44
S'Matt Cassel'
p825
sg46
S'84.1'
p826
sg48
S'W13-10'
p827
sg50
S'2010'
p828
sssS'2013'
p829
(dp830
g3
(dp831
g5
S'13'
p832
sg7
S'11'
p833
sg9
S'--'
p834
sg11
S'38.5'
p835
sg13
S'--'
p836
sg15
S'78'
p837
sg17
S'6.0'
p838
sg19
S'--'
p839
sg21
S'@SEA'
p840
sg23
g58
sg25
g259
sg27
g24
sg29
S'--'
p841
sg31
g24
sg32
S'--'
p842
sg34
S'--'
p843
sg36
g58
sg38
g24
sg40
g58
sg42
S'11/17'
p844
sg44
S'Matt Cassel'
p845
sg46
S'52.7'
p846
sg48
S'L20-41'
p847
sg50
S'2013'
p848
ssg52
(dp849
g5
g138
sg7
S'10'
p850
sg9
S'-1.0'
p851
sg11
S'66.7'
p852
sg13
g58
sg15
S'47'
p853
sg17
S'7.8'
p854
sg19
S'--'
p855
sg21
S'WAS'
p856
sg23
g58
sg25
g282
sg27
g24
sg29
S'-1'
p857
sg31
g24
sg32
S'--'
p858
sg34
g24
sg36
g24
sg38
g24
sg40
g24
sg42
S'11/07'
p859
sg44
S'Matt Cassel'
p860
sg46
S'90.3'
p861
sg48
S'W34-27'
p862
sg50
S'2013'
p863
ssg71
(dp864
g5
S'33'
p865
sg7
S'13'
p866
sg9
S'0.0'
p867
sg11
S'60.6'
p868
sg13
g58
sg15
S'243'
p869
sg17
S'7.4'
p870
sg19
g58
sg21
S'CHI'
p871
sg23
g58
sg25
S'20'
p872
sg27
g99
sg29
g24
sg31
g24
sg32
g24
sg34
g24
sg36
g58
sg38
g64
sg40
g58
sg42
S'12/01'
p873
sg44
S'Matt Cassel'
p874
sg46
S'80.7'
p875
sg48
S'W23-20'
p876
sg50
S'2013'
p877
ssg87
(dp878
g5
S'--'
p879
sg7
S'12'
p880
sg9
S'--'
p881
sg11
S'--'
p882
sg13
S'--'
p883
sg15
S'--'
p884
sg17
S'--'
p885
sg19
S'--'
p886
sg21
S'@GB'
p887
sg23
g24
sg25
S'--'
p888
sg27
S'--'
p889
sg29
S'--'
p890
sg31
g24
sg32
S'--'
p891
sg34
S'--'
p892
sg36
S'--'
p893
sg38
S'--'
p894
sg40
S'--'
p895
sg42
S'11/24'
p896
sg44
S'Matt Cassel'
p897
sg46
S'0.0'
p898
sg48
S'T26-26'
p899
sg50
S'2013'
p900
ssg106
(dp901
g5
S'35'
p902
sg7
S'15'
p903
sg9
S'6.3'
p904
sg11
S'74.3'
p905
sg13
g65
sg15
S'382'
p906
sg17
S'10.9'
p907
sg19
S'--'
p908
sg21
S'PHI'
p909
sg23
g58
sg25
S'26'
p910
sg27
S'12'
p911
sg29
S'19'
p912
sg31
g58
sg32
S'--'
p913
sg34
g58
sg36
g64
sg38
g65
sg40
g58
sg42
S'12/15'
p914
sg44
S'Matt Cassel'
p915
sg46
S'116.6'
p916
sg48
S'W48-30'
p917
sg50
S'2013'
p918
ssg126
(dp919
g5
S'38'
p920
sg7
S'14'
p921
sg9
S'3.0'
p922
sg11
S'44.7'
p923
sg13
g64
sg15
S'265'
p924
sg17
S'7.0'
p925
sg19
S'--'
p926
sg21
S'@BAL'
p927
sg23
g58
sg25
S'17'
p928
sg27
g24
sg29
g138
sg31
g58
sg32
S'--'
p929
sg34
g24
sg36
g64
sg38
g24
sg40
g24
sg42
S'12/08'
p930
sg44
S'Matt Cassel'
p931
sg46
S'86.0'
p932
sg48
S'L26-29'
p933
sg50
S'2013'
p934
ssg145
(dp935
g5
S'33'
p936
sg7
S'17'
p937
sg9
S'1.3'
p938
sg11
S'60.6'
p939
sg13
g282
sg15
S'189'
p940
sg17
S'5.7'
p941
sg19
S'--'
p942
sg21
S'DET'
p943
sg23
g58
sg25
S'20'
p944
sg27
S'18'
p945
sg29
g259
sg31
g58
sg32
S'--'
p946
sg34
g24
sg36
g58
sg38
g65
sg40
g58
sg42
S'12/29'
p947
sg44
S'Matt Cassel'
p948
sg46
S'73.9'
p949
sg48
S'W14-13'
p950
sg50
S'2013'
p951
ssg169
(dp952
g5
S'27'
p953
sg7
S'16'
p954
sg9
S'5.3'
p955
sg11
S'48.1'
p956
sg13
g65
sg15
S'114'
p957
sg17
S'4.2'
p958
sg19
g58
sg21
S'@CIN'
p959
sg23
g58
sg25
S'13'
p960
sg27
S'20'
p961
sg29
S'16'
p962
sg31
g58
sg32
g58
sg34
g24
sg36
g58
sg38
g282
sg40
g65
sg42
S'12/22'
p963
sg44
S'Matt Cassel'
p964
sg46
S'32.6'
p965
sg48
S'L14-42'
p966
sg50
S'2013'
p967
ssg58
(dp968
g5
S'--'
p969
sg7
g58
sg9
S'--'
p970
sg11
S'--'
p971
sg13
S'--'
p972
sg15
S'--'
p973
sg17
S'--'
p974
sg19
S'--'
p975
sg21
S'@DET'
p976
sg23
g24
sg25
S'--'
p977
sg27
S'--'
p978
sg29
S'--'
p979
sg31
g24
sg32
S'--'
p980
sg34
S'--'
p981
sg36
S'--'
p982
sg38
S'--'
p983
sg40
S'--'
p984
sg42
S'09/08'
p985
sg44
S'Matt Cassel'
p986
sg46
S'0.0'
p987
sg48
S'L24-34'
p988
sg50
S'2013'
p989
ssg65
(dp990
g5
S'--'
p991
sg7
g65
sg9
S'--'
p992
sg11
S'--'
p993
sg13
S'--'
p994
sg15
S'--'
p995
sg17
S'--'
p996
sg19
S'--'
p997
sg21
S'CLE'
p998
sg23
g24
sg25
S'--'
p999
sg27
S'--'
p1000
sg29
S'--'
p1001
sg31
g24
sg32
S'--'
p1002
sg34
S'--'
p1003
sg36
S'--'
p1004
sg38
S'--'
p1005
sg40
S'--'
p1006
sg42
S'09/22'
p1007
sg44
S'Matt Cassel'
p1008
sg46
S'0.0'
p1009
sg48
S'L27-31'
p1010
sg50
S'2013'
p1011
ssg64
(dp1012
g5
S'--'
p1013
sg7
g64
sg9
S'--'
p1014
sg11
S'--'
p1015
sg13
S'--'
p1016
sg15
S'--'
p1017
sg17
S'--'
p1018
sg19
S'--'
p1019
sg21
S'@CHI'
p1020
sg23
g24
sg25
S'--'
p1021
sg27
S'--'
p1022
sg29
S'--'
p1023
sg31
g24
sg32
S'--'
p1024
sg34
S'--'
p1025
sg36
S'--'
p1026
sg38
S'--'
p1027
sg40
S'--'
p1028
sg42
S'09/15'
p1029
sg44
S'Matt Cassel'
p1030
sg46
S'0.0'
p1031
sg48
S'L30-31'
p1032
sg50
S'2013'
p1033
ssg259
(dp1034
g5
g322
sg7
g259
sg9
g322
sg11
g322
sg13
g322
sg15
g322
sg17
g322
sg19
g322
sg21
g322
sg23
g322
sg25
g322
sg27
g322
sg29
g322
sg31
g322
sg32
g322
sg34
g322
sg36
g322
sg38
g322
sg40
g322
sg42
S'Bye'
p1035
sg44
S'Matt Cassel'
p1036
sg46
g322
sg48
g322
sg50
S'2013'
p1037
ssg282
(dp1038
g5
S'25'
p1039
sg7
g282
sg9
S'2.5'
p1040
sg11
S'64.0'
p1041
sg13
g64
sg15
S'248'
p1042
sg17
S'9.9'
p1043
sg19
g58
sg21
S'PIT'
p1044
sg23
g58
sg25
S'16'
p1045
sg27
g24
sg29
g259
sg31
g58
sg32
g24
sg34
g24
sg36
g64
sg38
g58
sg40
g24
sg42
S'09/29'
p1046
sg44
S'Matt Cassel'
p1047
sg46
S'123.4'
p1048
sg48
S'W34-27'
p1049
sg50
S'2013'
p1050
ssg305
(dp1051
g5
S'--'
p1052
sg7
g305
sg9
S'--'
p1053
sg11
S'--'
p1054
sg13
S'--'
p1055
sg15
S'--'
p1056
sg17
S'--'
p1057
sg19
S'--'
p1058
sg21
S'@NYG'
p1059
sg23
g24
sg25
S'--'
p1060
sg27
S'--'
p1061
sg29
S'--'
p1062
sg31
g24
sg32
S'--'
p1063
sg34
S'--'
p1064
sg36
S'--'
p1065
sg38
S'--'
p1066
sg40
S'--'
p1067
sg42
S'10/21'
p1068
sg44
S'Matt Cassel'
p1069
sg46
S'0.0'
p1070
sg48
S'L7-23'
p1071
sg50
S'2013'
p1072
ssg138
(dp1073
g5
S'44'
p1074
sg7
g138
sg9
S'3.5'
p1075
sg11
S'72.7'
p1076
sg13
g64
sg15
S'241'
p1077
sg17
S'5.5'
p1078
sg19
S'--'
p1079
sg21
S'CAR'
p1080
sg23
g58
sg25
S'32'
p1081
sg27
S'26'
p1082
sg29
g305
sg31
g58
sg32
S'--'
p1083
sg34
g24
sg36
g58
sg38
g65
sg40
g64
sg42
S'10/13'
p1084
sg44
S'Matt Cassel'
p1085
sg46
S'74.1'
p1086
sg48
S'L10-35'
p1087
sg50
S'2013'
p1088
ssg99
(dp1089
g5
S'--'
p1090
sg7
g99
sg9
S'--'
p1091
sg11
S'--'
p1092
sg13
S'--'
p1093
sg15
S'--'
p1094
sg17
S'--'
p1095
sg19
S'--'
p1096
sg21
S'@DAL'
p1097
sg23
g24
sg25
S'--'
p1098
sg27
S'--'
p1099
sg29
S'--'
p1100
sg31
g24
sg32
S'--'
p1101
sg34
S'--'
p1102
sg36
S'--'
p1103
sg38
S'--'
p1104
sg40
S'--'
p1105
sg42
S'11/03'
p1106
sg44
S'Matt Cassel'
p1107
sg46
S'0.0'
p1108
sg48
S'L23-27'
p1109
sg50
S'2013'
p1110
ssg108
(dp1111
g5
S'--'
p1112
sg7
g108
sg9
S'--'
p1113
sg11
S'--'
p1114
sg13
S'--'
p1115
sg15
S'--'
p1116
sg17
S'--'
p1117
sg19
S'--'
p1118
sg21
S'GB'
p1119
sg23
g24
sg25
S'--'
p1120
sg27
S'--'
p1121
sg29
S'--'
p1122
sg31
g24
sg32
S'--'
p1123
sg34
S'--'
p1124
sg36
S'--'
p1125
sg38
S'--'
p1126
sg40
S'--'
p1127
sg42
S'10/27'
p1128
sg44
S'Matt Cassel'
p1129
sg46
S'0.0'
p1130
sg48
S'L31-44'
p1131
sg50
S'2013'
p1132
sssS'2012'
p1133
(dp1134
g3
(dp1135
g5
S'16'
p1136
sg7
S'11'
p1137
sg9
S'0.0'
p1138
sg11
S'50.0'
p1139
sg13
g58
sg15
S'93'
p1140
sg17
S'5.8'
p1141
sg19
g58
sg21
S'CIN'
p1142
sg23
g58
sg25
g108
sg27
g58
sg29
g24
sg31
g58
sg32
g24
sg34
g24
sg36
g24
sg38
g58
sg40
g24
sg42
S'11/18'
p1143
sg44
S'Matt Cassel'
p1144
sg46
S'68.0'
p1145
sg48
S'L6-28'
p1146
sg50
S'2012'
p1147
ssg52
(dp1148
g5
S'26'
p1149
sg7
S'10'
p1150
sg9
S'6.0'
p1151
sg11
S'42.3'
p1152
sg13
g64
sg15
S'154'
p1153
sg17
S'5.9'
p1154
sg19
S'--'
p1155
sg21
S'@PIT'
p1156
sg23
g58
sg25
S'11'
p1157
sg27
g138
sg29
S'12'
p1158
sg31
g58
sg32
S'--'
p1159
sg34
g24
sg36
g24
sg38
g64
sg40
g58
sg42
S'11/12'
p1160
sg44
S'Matt Cassel'
p1161
sg46
S'46.0'
p1162
sg48
S'L13-16'
p1163
sg50
S'2012'
p1164
ssg71
(dp1165
g5
S'--'
p1166
sg7
S'13'
p1167
sg9
S'--'
p1168
sg11
S'--'
p1169
sg13
S'--'
p1170
sg15
S'--'
p1171
sg17
S'--'
p1172
sg19
S'--'
p1173
sg21
S'CAR'
p1174
sg23
g24
sg25
S'--'
p1175
sg27
S'--'
p1176
sg29
S'--'
p1177
sg31
g24
sg32
S'--'
p1178
sg34
S'--'
p1179
sg36
S'--'
p1180
sg38
S'--'
p1181
sg40
S'--'
p1182
sg42
S'12/02'
p1183
sg44
S'Matt Cassel'
p1184
sg46
S'0.0'
p1185
sg48
S'W27-21'
p1186
sg50
S'2012'
p1187
ssg87
(dp1188
g5
S'--'
p1189
sg7
S'12'
p1190
sg9
S'--'
p1191
sg11
S'--'
p1192
sg13
S'--'
p1193
sg15
S'--'
p1194
sg17
S'--'
p1195
sg19
S'--'
p1196
sg21
S'DEN'
p1197
sg23
g24
sg25
S'--'
p1198
sg27
S'--'
p1199
sg29
S'--'
p1200
sg31
g24
sg32
S'--'
p1201
sg34
S'--'
p1202
sg36
S'--'
p1203
sg38
S'--'
p1204
sg40
S'--'
p1205
sg42
S'11/25'
p1206
sg44
S'Matt Cassel'
p1207
sg46
S'0.0'
p1208
sg48
S'L9-17'
p1209
sg50
S'2012'
p1210
ssg106
(dp1211
g5
S'--'
p1212
sg7
S'15'
p1213
sg9
S'--'
p1214
sg11
S'--'
p1215
sg13
S'--'
p1216
sg15
S'--'
p1217
sg17
S'--'
p1218
sg19
S'--'
p1219
sg21
S'@OAK'
p1220
sg23
g24
sg25
S'--'
p1221
sg27
S'--'
p1222
sg29
S'--'
p1223
sg31
g24
sg32
S'--'
p1224
sg34
S'--'
p1225
sg36
S'--'
p1226
sg38
S'--'
p1227
sg40
S'--'
p1228
sg42
S'12/16'
p1229
sg44
S'Matt Cassel'
p1230
sg46
S'0.0'
p1231
sg48
S'L0-15'
p1232
sg50
S'2012'
p1233
ssg126
(dp1234
g5
S'--'
p1235
sg7
S'14'
p1236
sg9
S'--'
p1237
sg11
S'--'
p1238
sg13
S'--'
p1239
sg15
S'--'
p1240
sg17
S'--'
p1241
sg19
S'--'
p1242
sg21
S'@CLE'
p1243
sg23
g24
sg25
S'--'
p1244
sg27
S'--'
p1245
sg29
S'--'
p1246
sg31
g24
sg32
S'--'
p1247
sg34
S'--'
p1248
sg36
S'--'
p1249
sg38
S'--'
p1250
sg40
S'--'
p1251
sg42
S'12/09'
p1252
sg44
S'Matt Cassel'
p1253
sg46
S'0.0'
p1254
sg48
S'L7-30'
p1255
sg50
S'2012'
p1256
ssg145
(dp1257
g5
S'--'
p1258
sg7
S'17'
p1259
sg9
S'--'
p1260
sg11
S'--'
p1261
sg13
S'--'
p1262
sg15
S'--'
p1263
sg17
S'--'
p1264
sg19
S'--'
p1265
sg21
S'@DEN'
p1266
sg23
g24
sg25
S'--'
p1267
sg27
S'--'
p1268
sg29
S'--'
p1269
sg31
g24
sg32
S'--'
p1270
sg34
S'--'
p1271
sg36
S'--'
p1272
sg38
S'--'
p1273
sg40
S'--'
p1274
sg42
S'12/30'
p1275
sg44
S'Matt Cassel'
p1276
sg46
S'0.0'
p1277
sg48
S'L3-38'
p1278
sg50
S'2012'
p1279
ssg169
(dp1280
g5
S'--'
p1281
sg7
S'16'
p1282
sg9
S'--'
p1283
sg11
S'--'
p1284
sg13
S'--'
p1285
sg15
S'--'
p1286
sg17
S'--'
p1287
sg19
S'--'
p1288
sg21
S'IND'
p1289
sg23
g24
sg25
S'--'
p1290
sg27
S'--'
p1291
sg29
S'--'
p1292
sg31
g24
sg32
S'--'
p1293
sg34
S'--'
p1294
sg36
S'--'
p1295
sg38
S'--'
p1296
sg40
S'--'
p1297
sg42
S'12/23'
p1298
sg44
S'Matt Cassel'
p1299
sg46
S'0.0'
p1300
sg48
S'L13-20'
p1301
sg50
S'2012'
p1302
ssg58
(dp1303
g5
S'33'
p1304
sg7
g58
sg9
S'5.0'
p1305
sg11
S'63.6'
p1306
sg13
g282
sg15
S'258'
p1307
sg17
S'7.8'
p1308
sg19
g58
sg21
S'ATL'
p1309
sg23
g58
sg25
S'21'
p1310
sg27
S'17'
p1311
sg29
S'20'
p1312
sg31
g58
sg32
g58
sg34
g58
sg36
g58
sg38
g65
sg40
g64
sg42
S'09/09'
p1313
sg44
S'Matt Cassel'
p1314
sg46
S'72.5'
p1315
sg48
S'L24-40'
p1316
sg50
S'2012'
p1317
ssg65
(dp1318
g5
S'44'
p1319
sg7
g65
sg9
S'2.0'
p1320
sg11
S'59.1'
p1321
sg13
g58
sg15
S'248'
p1322
sg17
S'5.6'
p1323
sg19
g58
sg21
S'@NO'
p1324
sg23
g58
sg25
S'26'
p1325
sg27
S'11'
p1326
sg29
g64
sg31
g58
sg32
g58
sg34
g24
sg36
g24
sg38
g65
sg40
g58
sg42
S'09/23'
p1327
sg44
S'Matt Cassel'
p1328
sg46
S'65.3'
p1329
sg48
S'W27-24'
p1330
sg50
S'2012'
p1331
ssg64
(dp1332
g5
S'42'
p1333
sg7
g64
sg9
S'12.5'
p1334
sg11
S'54.8'
p1335
sg13
g64
sg15
S'301'
p1336
sg17
S'7.2'
p1337
sg19
g58
sg21
S'@BUF'
p1338
sg23
g58
sg25
S'23'
p1339
sg27
S'29'
p1340
sg29
S'25'
p1341
sg31
g58
sg32
g58
sg34
g24
sg36
g64
sg38
g259
sg40
g58
sg42
S'09/16'
p1342
sg44
S'Matt Cassel'
p1343
sg46
S'83.5'
p1344
sg48
S'L17-35'
p1345
sg50
S'2012'
p1346
ssg259
(dp1347
g5
S'15'
p1348
sg7
g259
sg9
S'3.5'
p1349
sg11
S'60.0'
p1350
sg13
g282
sg15
S'92'
p1351
sg17
S'6.1'
p1352
sg19
g64
sg21
S'BAL'
p1353
sg23
g58
sg25
g99
sg27
g24
sg29
S'14'
p1354
sg31
g58
sg32
g64
sg34
g24
sg36
g24
sg38
g24
sg40
g64
sg42
S'10/07'
p1355
sg44
S'Matt Cassel'
p1356
sg46
S'38.1'
p1357
sg48
S'L6-9'
p1358
sg50
S'2012'
p1359
ssg282
(dp1360
g5
S'42'
p1361
sg7
g282
sg9
S'--'
p1362
sg11
S'57.1'
p1363
sg13
S'--'
p1364
sg15
S'251'
p1365
sg17
S'6.0'
p1366
sg19
g58
sg21
S'SD'
p1367
sg23
g58
sg25
S'24'
p1368
sg27
S'17'
p1369
sg29
S'--'
p1370
sg31
g58
sg32
g24
sg34
S'--'
p1371
sg36
g64
sg38
g64
sg40
g65
sg42
S'09/30'
p1372
sg44
S'Matt Cassel'
p1373
sg46
S'60.7'
p1374
sg48
S'L20-37'
p1375
sg50
S'2012'
p1376
ssg305
(dp1377
g5
g322
sg7
g305
sg9
g322
sg11
g322
sg13
g322
sg15
g322
sg17
g322
sg19
g322
sg21
g322
sg23
g322
sg25
g322
sg27
g322
sg29
g322
sg31
g322
sg32
g322
sg34
g322
sg36
g322
sg38
g322
sg40
g322
sg42
S'Bye'
p1378
sg44
S'Matt Cassel'
p1379
sg46
g322
sg48
g322
sg50
S'2012'
p1380
ssg138
(dp1381
g5
S'--'
p1382
sg7
g138
sg9
S'--'
p1383
sg11
S'--'
p1384
sg13
S'--'
p1385
sg15
S'--'
p1386
sg17
S'--'
p1387
sg19
S'--'
p1388
sg21
S'@TB'
p1389
sg23
g24
sg25
S'--'
p1390
sg27
S'--'
p1391
sg29
S'--'
p1392
sg31
g24
sg32
S'--'
p1393
sg34
S'--'
p1394
sg36
S'--'
p1395
sg38
S'--'
p1396
sg40
S'--'
p1397
sg42
S'10/14'
p1398
sg44
S'Matt Cassel'
p1399
sg46
S'0.0'
p1400
sg48
S'L10-38'
p1401
sg50
S'2012'
p1402
ssg99
(dp1403
g5
S'29'
p1404
sg7
g99
sg9
S'6.2'
p1405
sg11
S'65.5'
p1406
sg13
g138
sg15
S'181'
p1407
sg17
S'6.2'
p1408
sg19
g58
sg21
S'@SD'
p1409
sg23
g58
sg25
S'19'
p1410
sg27
g259
sg29
S'37'
p1411
sg31
g58
sg32
g58
sg34
g24
sg36
g24
sg38
g58
sg40
g58
sg42
S'11/01'
p1412
sg44
S'Matt Cassel'
p1413
sg46
S'68.3'
p1414
sg48
S'L13-31'
p1415
sg50
S'2012'
p1416
ssg108
(dp1417
g5
S'30'
p1418
sg7
g108
sg9
S'5.0'
p1419
sg11
S'66.7'
p1420
sg13
g305
sg15
S'218'
p1421
sg17
S'7.3'
p1422
sg19
g58
sg21
S'OAK'
p1423
sg23
g58
sg25
S'20'
p1424
sg27
S'15'
p1425
sg29
S'35'
p1426
sg31
g24
sg32
g58
sg34
g24
sg36
g58
sg38
g64
sg40
g58
sg42
S'10/28'
p1427
sg44
S'Matt Cassel'
p1428
sg46
S'85.1'
p1429
sg48
S'L16-26'
p1430
sg50
S'2012'
p1431
sss.