(dp0
S'2015'
p1
(dp2
S'11'
p3
(dp4
S'PassAtt'
p5
S'--'
p6
sS'WK'
p7
S'11'
p8
sS'RushAvg'
p9
S'--'
p10
sS'Pct'
p11
S'--'
p12
sS'RushAtt'
p13
S'--'
p14
sS'PassYds'
p15
S'--'
p16
sS'PassAvg'
p17
S'--'
p18
sS'FUM'
p19
S'--'
p20
sS'Opp'
p21
S'@PHI'
p22
sS'G'
p23
S'0'
p24
sS'Comp'
p25
S'--'
p26
sS'SckY'
p27
S'--'
p28
sS'RushYds'
p29
S'--'
p30
sS'GS'
p31
g24
sS'Lost'
p32
S'--'
p33
sS'RushTD'
p34
S'--'
p35
sS'PassTD'
p36
S'--'
p37
sS'Sck'
p38
S'--'
p39
sS'Int'
p40
S'--'
p41
sS'Game Date'
p42
S'11/22'
p43
sS'Player'
p44
S'Mike Glennon'
p45
sS'Rate'
p46
S'0.0'
p47
sS'Result'
p48
S'W45-17'
p49
sS'Year'
p50
S'2015'
p51
ssS'10'
p52
(dp53
g5
S'--'
p54
sg7
S'10'
p55
sg9
S'--'
p56
sg11
S'--'
p57
sg13
S'--'
p58
sg15
S'--'
p59
sg17
S'--'
p60
sg19
S'--'
p61
sg21
S'DAL'
p62
sg23
g24
sg25
S'--'
p63
sg27
S'--'
p64
sg29
S'--'
p65
sg31
g24
sg32
S'--'
p66
sg34
S'--'
p67
sg36
S'--'
p68
sg38
S'--'
p69
sg40
S'--'
p70
sg42
S'11/15'
p71
sg44
S'Mike Glennon'
p72
sg46
S'0.0'
p73
sg48
S'W10-6'
p74
sg50
S'2015'
p75
ssS'13'
p76
(dp77
g5
S'--'
p78
sg7
S'13'
p79
sg9
S'--'
p80
sg11
S'--'
p81
sg13
S'--'
p82
sg15
S'--'
p83
sg17
S'--'
p84
sg19
S'--'
p85
sg21
S'ATL'
p86
sg23
g24
sg25
S'--'
p87
sg27
S'--'
p88
sg29
S'--'
p89
sg31
g24
sg32
S'--'
p90
sg34
S'--'
p91
sg36
S'--'
p92
sg38
S'--'
p93
sg40
S'--'
p94
sg42
S'12/06'
p95
sg44
S'Mike Glennon'
p96
sg46
S'0.0'
p97
sg48
S'W23-19'
p98
sg50
S'2015'
p99
ssS'12'
p100
(dp101
g5
S'--'
p102
sg7
S'12'
p103
sg9
S'--'
p104
sg11
S'--'
p105
sg13
S'--'
p106
sg15
S'--'
p107
sg17
S'--'
p108
sg19
S'--'
p109
sg21
S'@IND'
p110
sg23
g24
sg25
S'--'
p111
sg27
S'--'
p112
sg29
S'--'
p113
sg31
g24
sg32
S'--'
p114
sg34
S'--'
p115
sg36
S'--'
p116
sg38
S'--'
p117
sg40
S'--'
p118
sg42
S'11/29'
p119
sg44
S'Mike Glennon'
p120
sg46
S'0.0'
p121
sg48
S'L12-25'
p122
sg50
S'2015'
p123
ssS'15'
p124
(dp125
g5
S'--'
p126
sg7
S'15'
p127
sg9
S'--'
p128
sg11
S'--'
p129
sg13
S'--'
p130
sg15
S'--'
p131
sg17
S'--'
p132
sg19
S'--'
p133
sg21
S'@STL'
p134
sg23
g24
sg25
S'--'
p135
sg27
S'--'
p136
sg29
S'--'
p137
sg31
g24
sg32
S'--'
p138
sg34
S'--'
p139
sg36
S'--'
p140
sg38
S'--'
p141
sg40
S'--'
p142
sg42
S'12/17'
p143
sg44
S'Mike Glennon'
p144
sg46
S'0.0'
p145
sg48
S'L23-31'
p146
sg50
S'2015'
p147
ssS'14'
p148
(dp149
g5
S'--'
p150
sg7
S'14'
p151
sg9
S'--'
p152
sg11
S'--'
p153
sg13
S'--'
p154
sg15
S'--'
p155
sg17
S'--'
p156
sg19
S'--'
p157
sg21
S'NO'
p158
sg23
g24
sg25
S'--'
p159
sg27
S'--'
p160
sg29
S'--'
p161
sg31
g24
sg32
S'--'
p162
sg34
S'--'
p163
sg36
S'--'
p164
sg38
S'--'
p165
sg40
S'--'
p166
sg42
S'12/13'
p167
sg44
S'Mike Glennon'
p168
sg46
S'0.0'
p169
sg48
S'L17-24'
p170
sg50
S'2015'
p171
ssS'17'
p172
(dp173
g5
S'--'
p174
sg7
S'17'
p175
sg9
S'--'
p176
sg11
S'--'
p177
sg13
S'--'
p178
sg15
S'--'
p179
sg17
S'--'
p180
sg19
S'--'
p181
sg21
S'@CAR'
p182
sg23
g24
sg25
S'--'
p183
sg27
S'--'
p184
sg29
S'--'
p185
sg31
g24
sg32
S'--'
p186
sg34
S'--'
p187
sg36
S'--'
p188
sg38
S'--'
p189
sg40
S'--'
p190
sg42
S'01/03'
p191
sg44
S'Mike Glennon'
p192
sg46
S'0.0'
p193
sg48
S'L10-38'
p194
sg50
S'2015'
p195
ssS'16'
p196
(dp197
g5
S'--'
p198
sg7
S'16'
p199
sg9
S'--'
p200
sg11
S'--'
p201
sg13
S'--'
p202
sg15
S'--'
p203
sg17
S'--'
p204
sg19
S'--'
p205
sg21
S'CHI'
p206
sg23
g24
sg25
S'--'
p207
sg27
S'--'
p208
sg29
S'--'
p209
sg31
g24
sg32
S'--'
p210
sg34
S'--'
p211
sg36
S'--'
p212
sg38
S'--'
p213
sg40
S'--'
p214
sg42
S'12/27'
p215
sg44
S'Mike Glennon'
p216
sg46
S'0.0'
p217
sg48
S'L21-26'
p218
sg50
S'2015'
p219
ssS'1'
p220
(dp221
g5
S'--'
p222
sg7
g220
sg9
S'--'
p223
sg11
S'--'
p224
sg13
S'--'
p225
sg15
S'--'
p226
sg17
S'--'
p227
sg19
S'--'
p228
sg21
S'TEN'
p229
sg23
g24
sg25
S'--'
p230
sg27
S'--'
p231
sg29
S'--'
p232
sg31
g24
sg32
S'--'
p233
sg34
S'--'
p234
sg36
S'--'
p235
sg38
S'--'
p236
sg40
S'--'
p237
sg42
S'09/13'
p238
sg44
S'Mike Glennon'
p239
sg46
S'0.0'
p240
sg48
S'L14-42'
p241
sg50
S'2015'
p242
ssS'3'
p243
(dp244
g5
S'--'
p245
sg7
g243
sg9
S'--'
p246
sg11
S'--'
p247
sg13
S'--'
p248
sg15
S'--'
p249
sg17
S'--'
p250
sg19
S'--'
p251
sg21
S'@HOU'
p252
sg23
g24
sg25
S'--'
p253
sg27
S'--'
p254
sg29
S'--'
p255
sg31
g24
sg32
S'--'
p256
sg34
S'--'
p257
sg36
S'--'
p258
sg38
S'--'
p259
sg40
S'--'
p260
sg42
S'09/27'
p261
sg44
S'Mike Glennon'
p262
sg46
S'0.0'
p263
sg48
S'L9-19'
p264
sg50
S'2015'
p265
ssS'2'
p266
(dp267
g5
S'--'
p268
sg7
g266
sg9
S'--'
p269
sg11
S'--'
p270
sg13
S'--'
p271
sg15
S'--'
p272
sg17
S'--'
p273
sg19
S'--'
p274
sg21
S'@NO'
p275
sg23
g24
sg25
S'--'
p276
sg27
S'--'
p277
sg29
S'--'
p278
sg31
g24
sg32
S'--'
p279
sg34
S'--'
p280
sg36
S'--'
p281
sg38
S'--'
p282
sg40
S'--'
p283
sg42
S'09/20'
p284
sg44
S'Mike Glennon'
p285
sg46
S'0.0'
p286
sg48
S'W26-19'
p287
sg50
S'2015'
p288
ssS'5'
p289
(dp290
g5
S'--'
p291
sg7
g289
sg9
S'--'
p292
sg11
S'--'
p293
sg13
S'--'
p294
sg15
S'--'
p295
sg17
S'--'
p296
sg19
S'--'
p297
sg21
S'JAC'
p298
sg23
g24
sg25
S'--'
p299
sg27
S'--'
p300
sg29
S'--'
p301
sg31
g24
sg32
S'--'
p302
sg34
S'--'
p303
sg36
S'--'
p304
sg38
S'--'
p305
sg40
S'--'
p306
sg42
S'10/11'
p307
sg44
S'Mike Glennon'
p308
sg46
S'0.0'
p309
sg48
S'W38-31'
p310
sg50
S'2015'
p311
ssS'4'
p312
(dp313
g5
S'--'
p314
sg7
g312
sg9
S'--'
p315
sg11
S'--'
p316
sg13
S'--'
p317
sg15
S'--'
p318
sg17
S'--'
p319
sg19
S'--'
p320
sg21
S'CAR'
p321
sg23
g24
sg25
S'--'
p322
sg27
S'--'
p323
sg29
S'--'
p324
sg31
g24
sg32
S'--'
p325
sg34
S'--'
p326
sg36
S'--'
p327
sg38
S'--'
p328
sg40
S'--'
p329
sg42
S'10/04'
p330
sg44
S'Mike Glennon'
p331
sg46
S'0.0'
p332
sg48
S'L23-37'
p333
sg50
S'2015'
p334
ssS'7'
p335
(dp336
g5
S'--'
p337
sg7
g335
sg9
S'--'
p338
sg11
S'--'
p339
sg13
S'--'
p340
sg15
S'--'
p341
sg17
S'--'
p342
sg19
S'--'
p343
sg21
S'@WAS'
p344
sg23
g24
sg25
S'--'
p345
sg27
S'--'
p346
sg29
S'--'
p347
sg31
g24
sg32
S'--'
p348
sg34
S'--'
p349
sg36
S'--'
p350
sg38
S'--'
p351
sg40
S'--'
p352
sg42
S'10/25'
p353
sg44
S'Mike Glennon'
p354
sg46
S'0.0'
p355
sg48
S'L30-31'
p356
sg50
S'2015'
p357
ssS'6'
p358
(dp359
g5
S''
p360
sg7
g358
sg9
g360
sg11
g360
sg13
g360
sg15
g360
sg17
g360
sg19
g360
sg21
g360
sg23
g360
sg25
g360
sg27
g360
sg29
g360
sg31
g360
sg32
g360
sg34
g360
sg36
g360
sg38
g360
sg40
g360
sg42
S'Bye'
p361
sg44
S'Mike Glennon'
p362
sg46
g360
sg48
g360
sg50
S'2015'
p363
ssS'9'
p364
(dp365
g5
S'--'
p366
sg7
g364
sg9
S'--'
p367
sg11
S'--'
p368
sg13
S'--'
p369
sg15
S'--'
p370
sg17
S'--'
p371
sg19
S'--'
p372
sg21
S'NYG'
p373
sg23
g24
sg25
S'--'
p374
sg27
S'--'
p375
sg29
S'--'
p376
sg31
g24
sg32
S'--'
p377
sg34
S'--'
p378
sg36
S'--'
p379
sg38
S'--'
p380
sg40
S'--'
p381
sg42
S'11/08'
p382
sg44
S'Mike Glennon'
p383
sg46
S'0.0'
p384
sg48
S'L18-32'
p385
sg50
S'2015'
p386
ssS'8'
p387
(dp388
g5
S'--'
p389
sg7
g387
sg9
S'--'
p390
sg11
S'--'
p391
sg13
S'--'
p392
sg15
S'--'
p393
sg17
S'--'
p394
sg19
S'--'
p395
sg21
S'@ATL'
p396
sg23
g24
sg25
S'--'
p397
sg27
S'--'
p398
sg29
S'--'
p399
sg31
g24
sg32
S'--'
p400
sg34
S'--'
p401
sg36
S'--'
p402
sg38
S'--'
p403
sg40
S'--'
p404
sg42
S'11/01'
p405
sg44
S'Mike Glennon'
p406
sg46
S'0.0'
p407
sg48
S'W23-20'
p408
sg50
S'2015'
p409
sssS'2014'
p410
(dp411
g3
(dp412
g5
S'--'
p413
sg7
S'11'
p414
sg9
S'--'
p415
sg11
S'--'
p416
sg13
S'--'
p417
sg15
S'--'
p418
sg17
S'--'
p419
sg19
S'--'
p420
sg21
S'@WAS'
p421
sg23
g24
sg25
S'--'
p422
sg27
S'--'
p423
sg29
S'--'
p424
sg31
g24
sg32
S'--'
p425
sg34
S'--'
p426
sg36
S'--'
p427
sg38
S'--'
p428
sg40
S'--'
p429
sg42
S'11/16'
p430
sg44
S'Mike Glennon'
p431
sg46
S'0.0'
p432
sg48
S'W27-7'
p433
sg50
S'2014'
p434
ssg52
(dp435
g5
S'--'
p436
sg7
S'10'
p437
sg9
S'--'
p438
sg11
S'--'
p439
sg13
S'--'
p440
sg15
S'--'
p441
sg17
S'--'
p442
sg19
S'--'
p443
sg21
S'ATL'
p444
sg23
g24
sg25
S'--'
p445
sg27
S'--'
p446
sg29
S'--'
p447
sg31
g24
sg32
S'--'
p448
sg34
S'--'
p449
sg36
S'--'
p450
sg38
S'--'
p451
sg40
S'--'
p452
sg42
S'11/09'
p453
sg44
S'Mike Glennon'
p454
sg46
S'0.0'
p455
sg48
S'L17-27'
p456
sg50
S'2014'
p457
ssg76
(dp458
g5
S'--'
p459
sg7
S'13'
p460
sg9
S'--'
p461
sg11
S'--'
p462
sg13
S'--'
p463
sg15
S'--'
p464
sg17
S'--'
p465
sg19
S'--'
p466
sg21
S'CIN'
p467
sg23
g24
sg25
S'--'
p468
sg27
S'--'
p469
sg29
S'--'
p470
sg31
g24
sg32
S'--'
p471
sg34
S'--'
p472
sg36
S'--'
p473
sg38
S'--'
p474
sg40
S'--'
p475
sg42
S'11/30'
p476
sg44
S'Mike Glennon'
p477
sg46
S'0.0'
p478
sg48
S'L13-14'
p479
sg50
S'2014'
p480
ssg100
(dp481
g5
S'--'
p482
sg7
S'12'
p483
sg9
S'--'
p484
sg11
S'--'
p485
sg13
S'--'
p486
sg15
S'--'
p487
sg17
S'--'
p488
sg19
S'--'
p489
sg21
S'@CHI'
p490
sg23
g24
sg25
S'--'
p491
sg27
S'--'
p492
sg29
S'--'
p493
sg31
g24
sg32
S'--'
p494
sg34
S'--'
p495
sg36
S'--'
p496
sg38
S'--'
p497
sg40
S'--'
p498
sg42
S'11/23'
p499
sg44
S'Mike Glennon'
p500
sg46
S'0.0'
p501
sg48
S'L13-21'
p502
sg50
S'2014'
p503
ssg124
(dp504
g5
S'--'
p505
sg7
S'15'
p506
sg9
S'--'
p507
sg11
S'--'
p508
sg13
S'--'
p509
sg15
S'--'
p510
sg17
S'--'
p511
sg19
S'--'
p512
sg21
S'@CAR'
p513
sg23
g24
sg25
S'--'
p514
sg27
S'--'
p515
sg29
S'--'
p516
sg31
g24
sg32
S'--'
p517
sg34
S'--'
p518
sg36
S'--'
p519
sg38
S'--'
p520
sg40
S'--'
p521
sg42
S'12/14'
p522
sg44
S'Mike Glennon'
p523
sg46
S'0.0'
p524
sg48
S'L17-19'
p525
sg50
S'2014'
p526
ssg148
(dp527
g5
S'--'
p528
sg7
S'14'
p529
sg9
S'--'
p530
sg11
S'--'
p531
sg13
S'--'
p532
sg15
S'--'
p533
sg17
S'--'
p534
sg19
S'--'
p535
sg21
S'@DET'
p536
sg23
g24
sg25
S'--'
p537
sg27
S'--'
p538
sg29
S'--'
p539
sg31
g24
sg32
S'--'
p540
sg34
S'--'
p541
sg36
S'--'
p542
sg38
S'--'
p543
sg40
S'--'
p544
sg42
S'12/07'
p545
sg44
S'Mike Glennon'
p546
sg46
S'0.0'
p547
sg48
S'L17-34'
p548
sg50
S'2014'
p549
ssg172
(dp550
g5
S'--'
p551
sg7
S'17'
p552
sg9
S'--'
p553
sg11
S'--'
p554
sg13
S'--'
p555
sg15
S'--'
p556
sg17
S'--'
p557
sg19
S'--'
p558
sg21
S'NO'
p559
sg23
g24
sg25
S'--'
p560
sg27
S'--'
p561
sg29
S'--'
p562
sg31
g24
sg32
S'--'
p563
sg34
S'--'
p564
sg36
S'--'
p565
sg38
S'--'
p566
sg40
S'--'
p567
sg42
S'12/28'
p568
sg44
S'Mike Glennon'
p569
sg46
S'0.0'
p570
sg48
S'L20-23'
p571
sg50
S'2014'
p572
ssg196
(dp573
g5
S'--'
p574
sg7
S'16'
p575
sg9
S'--'
p576
sg11
S'--'
p577
sg13
S'--'
p578
sg15
S'--'
p579
sg17
S'--'
p580
sg19
S'--'
p581
sg21
S'GB'
p582
sg23
g24
sg25
S'--'
p583
sg27
S'--'
p584
sg29
S'--'
p585
sg31
g24
sg32
S'--'
p586
sg34
S'--'
p587
sg36
S'--'
p588
sg38
S'--'
p589
sg40
S'--'
p590
sg42
S'12/21'
p591
sg44
S'Mike Glennon'
p592
sg46
S'0.0'
p593
sg48
S'L3-20'
p594
sg50
S'2014'
p595
ssg220
(dp596
g5
S'--'
p597
sg7
g220
sg9
S'--'
p598
sg11
S'--'
p599
sg13
S'--'
p600
sg15
S'--'
p601
sg17
S'--'
p602
sg19
S'--'
p603
sg21
S'CAR'
p604
sg23
g24
sg25
S'--'
p605
sg27
S'--'
p606
sg29
S'--'
p607
sg31
g24
sg32
S'--'
p608
sg34
S'--'
p609
sg36
S'--'
p610
sg38
S'--'
p611
sg40
S'--'
p612
sg42
S'09/07'
p613
sg44
S'Mike Glennon'
p614
sg46
S'0.0'
p615
sg48
S'L14-20'
p616
sg50
S'2014'
p617
ssg243
(dp618
g5
S'24'
p619
sg7
g243
sg9
S'6.3'
p620
sg11
S'70.8'
p621
sg13
g243
sg15
S'121'
p622
sg17
S'5.0'
p623
sg19
S'--'
p624
sg21
S'@ATL'
p625
sg23
g220
sg25
S'17'
p626
sg27
S'18'
p627
sg29
S'19'
p628
sg31
g24
sg32
S'--'
p629
sg34
g24
sg36
g220
sg38
g266
sg40
g24
sg42
S'09/18'
p630
sg44
S'Mike Glennon'
p631
sg46
S'96.0'
p632
sg48
S'L14-56'
p633
sg50
S'2014'
p634
ssg266
(dp635
g5
S'--'
p636
sg7
g266
sg9
S'--'
p637
sg11
S'--'
p638
sg13
S'--'
p639
sg15
S'--'
p640
sg17
S'--'
p641
sg19
S'--'
p642
sg21
S'STL'
p643
sg23
g24
sg25
S'--'
p644
sg27
S'--'
p645
sg29
S'--'
p646
sg31
g24
sg32
S'--'
p647
sg34
S'--'
p648
sg36
S'--'
p649
sg38
S'--'
p650
sg40
S'--'
p651
sg42
S'09/14'
p652
sg44
S'Mike Glennon'
p653
sg46
S'0.0'
p654
sg48
S'L17-19'
p655
sg50
S'2014'
p656
ssg289
(dp657
g5
S'32'
p658
sg7
g289
sg9
S'0.0'
p659
sg11
S'59.4'
p660
sg13
g220
sg15
S'249'
p661
sg17
S'7.8'
p662
sg19
g220
sg21
S'@NO'
p663
sg23
g220
sg25
S'19'
p664
sg27
g220
sg29
g24
sg31
g220
sg32
g24
sg34
g24
sg36
g266
sg38
g220
sg40
g220
sg42
S'10/05'
p665
sg44
S'Mike Glennon'
p666
sg46
S'91.8'
p667
sg48
S'L31-37'
p668
sg50
S'2014'
p669
ssg312
(dp670
g5
S'42'
p671
sg7
g312
sg9
S'--'
p672
sg11
S'50.0'
p673
sg13
S'--'
p674
sg15
S'302'
p675
sg17
S'7.2'
p676
sg19
S'--'
p677
sg21
S'@PIT'
p678
sg23
g220
sg25
S'21'
p679
sg27
S'15'
p680
sg29
S'--'
p681
sg31
g220
sg32
S'--'
p682
sg34
S'--'
p683
sg36
g266
sg38
g220
sg40
g220
sg42
S'09/28'
p684
sg44
S'Mike Glennon'
p685
sg46
S'79.7'
p686
sg48
S'W27-24'
p687
sg50
S'2014'
p688
ssg335
(dp689
g5
g360
sg7
g335
sg9
g360
sg11
g360
sg13
g360
sg15
g360
sg17
g360
sg19
g360
sg21
g360
sg23
g360
sg25
g360
sg27
g360
sg29
g360
sg31
g360
sg32
g360
sg34
g360
sg36
g360
sg38
g360
sg40
g360
sg42
S'Bye'
p690
sg44
S'Mike Glennon'
p691
sg46
g360
sg48
g360
sg50
S'2014'
p692
ssg358
(dp693
g5
S'44'
p694
sg7
g358
sg9
S'--'
p695
sg11
S'54.5'
p696
sg13
S'--'
p697
sg15
S'314'
p698
sg17
S'7.1'
p699
sg19
g220
sg21
S'BAL'
p700
sg23
g220
sg25
S'24'
p701
sg27
S'37'
p702
sg29
S'--'
p703
sg31
g220
sg32
g24
sg34
S'--'
p704
sg36
g266
sg38
g289
sg40
g220
sg42
S'10/12'
p705
sg44
S'Mike Glennon'
p706
sg46
S'83.0'
p707
sg48
S'L17-48'
p708
sg50
S'2014'
p709
ssg364
(dp710
g5
S'33'
p711
sg7
g364
sg9
S'5.7'
p712
sg11
S'51.5'
p713
sg13
g243
sg15
S'260'
p714
sg17
S'7.9'
p715
sg19
S'--'
p716
sg21
S'@CLE'
p717
sg23
g220
sg25
S'17'
p718
sg27
g387
sg29
S'17'
p719
sg31
g220
sg32
S'--'
p720
sg34
g24
sg36
g266
sg38
g266
sg40
g266
sg42
S'11/02'
p721
sg44
S'Mike Glennon'
p722
sg46
S'72.8'
p723
sg48
S'L17-22'
p724
sg50
S'2014'
p725
ssg387
(dp726
g5
S'28'
p727
sg7
g387
sg9
S'4.3'
p728
sg11
S'67.9'
p729
sg13
g243
sg15
S'171'
p730
sg17
S'6.1'
p731
sg19
S'--'
p732
sg21
S'MIN'
p733
sg23
g220
sg25
S'19'
p734
sg27
S'12'
p735
sg29
S'13'
p736
sg31
g220
sg32
S'--'
p737
sg34
g24
sg36
g220
sg38
g289
sg40
g220
sg42
S'10/26'
p738
sg44
S'Mike Glennon'
p739
sg46
S'81.1'
p740
sg48
S'L13-19'
p741
sg50
S'2014'
p742
sssS'2013'
p743
(dp744
g3
(dp745
g5
S'23'
p746
sg7
S'11'
p747
sg9
S'4.0'
p748
sg11
S'87.0'
p749
sg13
g220
sg15
S'231'
p750
sg17
S'10.0'
p751
sg19
S'--'
p752
sg21
S'ATL'
p753
sg23
g220
sg25
S'20'
p754
sg27
g335
sg29
g312
sg31
g220
sg32
S'--'
p755
sg34
g24
sg36
g266
sg38
g266
sg40
g24
sg42
S'11/17'
p756
sg44
S'Mike Glennon'
p757
sg46
S'137.5'
p758
sg48
S'W41-28'
p759
sg50
S'2013'
p760
ssg52
(dp761
g5
S'21'
p762
sg7
S'10'
p763
sg9
S'-0.8'
p764
sg11
S'52.4'
p765
sg13
g312
sg15
S'139'
p766
sg17
S'6.6'
p767
sg19
S'--'
p768
sg21
S'MIA'
p769
sg23
g220
sg25
S'11'
p770
sg27
S'15'
p771
sg29
S'-3'
p772
sg31
g220
sg32
S'--'
p773
sg34
g24
sg36
g220
sg38
g266
sg40
g220
sg42
S'11/11'
p774
sg44
S'Mike Glennon'
p775
sg46
S'69.3'
p776
sg48
S'W22-19'
p777
sg50
S'2013'
p778
ssg76
(dp779
g5
S'21'
p780
sg7
S'13'
p781
sg9
S'1.5'
p782
sg11
S'66.7'
p783
sg13
g266
sg15
S'180'
p784
sg17
S'8.6'
p785
sg19
g220
sg21
S'@CAR'
p786
sg23
g220
sg25
S'14'
p787
sg27
S'40'
p788
sg29
g243
sg31
g220
sg32
g220
sg34
g24
sg36
g24
sg38
g289
sg40
g220
sg42
S'12/01'
p789
sg44
S'Mike Glennon'
p790
sg46
S'73.5'
p791
sg48
S'L6-27'
p792
sg50
S'2013'
p793
ssg100
(dp794
g5
S'21'
p795
sg7
S'12'
p796
sg9
S'-4.3'
p797
sg11
S'66.7'
p798
sg13
g312
sg15
S'247'
p799
sg17
S'11.8'
p800
sg19
S'--'
p801
sg21
S'@DET'
p802
sg23
g220
sg25
S'14'
p803
sg27
S'40'
p804
sg29
S'-17'
p805
sg31
g220
sg32
S'--'
p806
sg34
g24
sg36
g266
sg38
g312
sg40
g24
sg42
S'11/24'
p807
sg44
S'Mike Glennon'
p808
sg46
S'138.4'
p809
sg48
S'W24-21'
p810
sg50
S'2013'
p811
ssg124
(dp812
g5
S'34'
p813
sg7
S'15'
p814
sg9
S'--'
p815
sg11
S'52.9'
p816
sg13
S'--'
p817
sg15
S'179'
p818
sg17
S'5.3'
p819
sg19
S'--'
p820
sg21
S'SF'
p821
sg23
g220
sg25
S'18'
p822
sg27
S'35'
p823
sg29
S'--'
p824
sg31
g220
sg32
S'--'
p825
sg34
S'--'
p826
sg36
g266
sg38
g312
sg40
g220
sg42
S'12/15'
p827
sg44
S'Mike Glennon'
p828
sg46
S'75.5'
p829
sg48
S'L14-33'
p830
sg50
S'2013'
p831
ssg148
(dp832
g5
S'25'
p833
sg7
S'14'
p834
sg9
S'0.0'
p835
sg11
S'36.0'
p836
sg13
g220
sg15
S'90'
p837
sg17
S'3.6'
p838
sg19
S'--'
p839
sg21
S'BUF'
p840
sg23
g220
sg25
g364
sg27
g364
sg29
g24
sg31
g220
sg32
S'--'
p841
sg34
g24
sg36
g266
sg38
g220
sg40
g266
sg42
S'12/08'
p842
sg44
S'Mike Glennon'
p843
sg46
S'40.4'
p844
sg48
S'W27-6'
p845
sg50
S'2013'
p846
ssg172
(dp847
g5
S'41'
p848
sg7
S'17'
p849
sg9
S'--'
p850
sg11
S'53.7'
p851
sg13
S'--'
p852
sg15
S'219'
p853
sg17
S'5.3'
p854
sg19
S'--'
p855
sg21
S'@NO'
p856
sg23
g220
sg25
S'22'
p857
sg27
g312
sg29
S'--'
p858
sg31
g220
sg32
S'--'
p859
sg34
S'--'
p860
sg36
g266
sg38
g266
sg40
g220
sg42
S'12/29'
p861
sg44
S'Mike Glennon'
p862
sg46
S'75.2'
p863
sg48
S'L17-42'
p864
sg50
S'2013'
p865
ssg196
(dp866
g5
S'26'
p867
sg7
S'16'
p868
sg9
S'1.5'
p869
sg11
S'61.5'
p870
sg13
g266
sg15
S'158'
p871
sg17
S'6.1'
p872
sg19
g220
sg21
S'@STL'
p873
sg23
g220
sg25
S'16'
p874
sg27
S'47'
p875
sg29
g243
sg31
g220
sg32
g220
sg34
g24
sg36
g24
sg38
g335
sg40
g24
sg42
S'12/22'
p876
sg44
S'Mike Glennon'
p877
sg46
S'78.7'
p878
sg48
S'L13-23'
p879
sg50
S'2013'
p880
ssg220
(dp881
g5
S'--'
p882
sg7
g220
sg9
S'--'
p883
sg11
S'--'
p884
sg13
S'--'
p885
sg15
S'--'
p886
sg17
S'--'
p887
sg19
S'--'
p888
sg21
S'@NYJ'
p889
sg23
g24
sg25
S'--'
p890
sg27
S'--'
p891
sg29
S'--'
p892
sg31
g24
sg32
S'--'
p893
sg34
S'--'
p894
sg36
S'--'
p895
sg38
S'--'
p896
sg40
S'--'
p897
sg42
S'09/08'
p898
sg44
S'Mike Glennon'
p899
sg46
S'0.0'
p900
sg48
S'L17-18'
p901
sg50
S'2013'
p902
ssg243
(dp903
g5
S'--'
p904
sg7
g243
sg9
S'--'
p905
sg11
S'--'
p906
sg13
S'--'
p907
sg15
S'--'
p908
sg17
S'--'
p909
sg19
S'--'
p910
sg21
S'@NE'
p911
sg23
g24
sg25
S'--'
p912
sg27
S'--'
p913
sg29
S'--'
p914
sg31
g24
sg32
S'--'
p915
sg34
S'--'
p916
sg36
S'--'
p917
sg38
S'--'
p918
sg40
S'--'
p919
sg42
S'09/22'
p920
sg44
S'Mike Glennon'
p921
sg46
S'0.0'
p922
sg48
S'L3-23'
p923
sg50
S'2013'
p924
ssg266
(dp925
g5
S'--'
p926
sg7
g266
sg9
S'--'
p927
sg11
S'--'
p928
sg13
S'--'
p929
sg15
S'--'
p930
sg17
S'--'
p931
sg19
S'--'
p932
sg21
S'NO'
p933
sg23
g24
sg25
S'--'
p934
sg27
S'--'
p935
sg29
S'--'
p936
sg31
g24
sg32
S'--'
p937
sg34
S'--'
p938
sg36
S'--'
p939
sg38
S'--'
p940
sg40
S'--'
p941
sg42
S'09/15'
p942
sg44
S'Mike Glennon'
p943
sg46
S'0.0'
p944
sg48
S'L14-16'
p945
sg50
S'2013'
p946
ssg289
(dp947
g5
g360
sg7
g289
sg9
g360
sg11
g360
sg13
g360
sg15
g360
sg17
g360
sg19
g360
sg21
g360
sg23
g360
sg25
g360
sg27
g360
sg29
g360
sg31
g360
sg32
g360
sg34
g360
sg36
g360
sg38
g360
sg40
g360
sg42
S'Bye'
p948
sg44
S'Mike Glennon'
p949
sg46
g360
sg48
g360
sg50
S'2013'
p950
ssg312
(dp951
g5
S'43'
p952
sg7
g312
sg9
S'-0.5'
p953
sg11
S'55.8'
p954
sg13
g266
sg15
S'193'
p955
sg17
S'4.5'
p956
sg19
g220
sg21
S'ARI'
p957
sg23
g220
sg25
S'24'
p958
sg27
S'20'
p959
sg29
S'-1'
p960
sg31
g220
sg32
g220
sg34
g24
sg36
g220
sg38
g266
sg40
g266
sg42
S'09/29'
p961
sg44
S'Mike Glennon'
p962
sg46
S'55.7'
p963
sg48
S'L10-13'
p964
sg50
S'2013'
p965
ssg335
(dp966
g5
S'44'
p967
sg7
g335
sg9
S'13.0'
p968
sg11
S'59.1'
p969
sg13
g220
sg15
S'256'
p970
sg17
S'5.8'
p971
sg19
g220
sg21
S'@ATL'
p972
sg23
g220
sg25
S'26'
p973
sg27
S'30'
p974
sg29
S'13'
p975
sg31
g220
sg32
g220
sg34
g24
sg36
g266
sg38
g243
sg40
g24
sg42
S'10/20'
p976
sg44
S'Mike Glennon'
p977
sg46
S'90.7'
p978
sg48
S'L23-31'
p979
sg50
S'2013'
p980
ssg358
(dp981
g5
S'43'
p982
sg7
g358
sg9
S'6.7'
p983
sg11
S'60.5'
p984
sg13
g243
sg15
S'273'
p985
sg17
S'6.3'
p986
sg19
g220
sg21
S'PHI'
p987
sg23
g220
sg25
S'26'
p988
sg27
S'16'
p989
sg29
S'20'
p990
sg31
g220
sg32
g24
sg34
g24
sg36
g266
sg38
g266
sg40
g220
sg42
S'10/13'
p991
sg44
S'Mike Glennon'
p992
sg46
S'84.7'
p993
sg48
S'L20-31'
p994
sg50
S'2013'
p995
ssg364
(dp996
g5
S'23'
p997
sg7
g364
sg9
S'3.3'
p998
sg11
S'73.9'
p999
sg13
g312
sg15
S'168'
p1000
sg17
S'7.3'
p1001
sg19
S'--'
p1002
sg21
S'@SEA'
p1003
sg23
g220
sg25
S'17'
p1004
sg27
S'25'
p1005
sg29
S'13'
p1006
sg31
g220
sg32
S'--'
p1007
sg34
g24
sg36
g266
sg38
g243
sg40
g24
sg42
S'11/03'
p1008
sg44
S'Mike Glennon'
p1009
sg46
S'123.1'
p1010
sg48
S'L24-27'
p1011
sg50
S'2013'
p1012
ssg387
(dp1013
g5
S'51'
p1014
sg7
g387
sg9
S'0.7'
p1015
sg11
S'58.8'
p1016
sg13
g243
sg15
S'275'
p1017
sg17
S'5.4'
p1018
sg19
g266
sg21
S'CAR'
p1019
sg23
g220
sg25
S'30'
p1020
sg27
S'26'
p1021
sg29
g266
sg31
g220
sg32
g24
sg34
g24
sg36
g220
sg38
g243
sg40
g24
sg42
S'10/24'
p1022
sg44
S'Mike Glennon'
p1023
sg46
S'80.1'
p1024
sg48
S'L13-31'
p1025
sg50
S'2013'
p1026
sss.