(dp0
S'2015'
p1
(dp2
S'11'
p3
(dp4
S'PassAtt'
p5
S'30'
p6
sS'WK'
p7
S'11'
p8
sS'RushAvg'
p9
S'2.0'
p10
sS'Pct'
p11
S'63.3'
p12
sS'RushAtt'
p13
S'4'
p14
sS'PassYds'
p15
S'178'
p16
sS'PassAvg'
p17
S'5.9'
p18
sS'FUM'
p19
S'--'
p20
sS'Opp'
p21
S'KC'
p22
sS'G'
p23
S'1'
p24
sS'Comp'
p25
S'19'
p26
sS'SckY'
p27
S'29'
p28
sS'RushYds'
p29
S'8'
p30
sS'GS'
p31
g24
sS'Lost'
p32
S'--'
p33
sS'RushTD'
p34
S'0'
p35
sS'PassTD'
p36
g35
sS'Sck'
p37
S'3'
p38
sS'Int'
p39
g24
sS'Game Date'
p40
S'11/22'
p41
sS'Player'
p42
S'Philip Rivers'
p43
sS'Rate'
p44
S'65.7'
p45
sS'Result'
p46
S'L3-33'
p47
sS'Year'
p48
S'2015'
p49
ssS'10'
p50
(dp51
g5
S''
p52
sg7
S'10'
p53
sg9
g52
sg11
g52
sg13
g52
sg15
g52
sg17
g52
sg19
g52
sg21
g52
sg23
g52
sg25
g52
sg27
g52
sg29
g52
sg31
g52
sg32
g52
sg34
g52
sg36
g52
sg37
g52
sg39
g52
sg40
S'Bye'
p54
sg42
S'Philip Rivers'
p55
sg44
g52
sg46
g52
sg48
S'2015'
p56
ssS'13'
p57
(dp58
g5
S'35'
p59
sg7
S'13'
p60
sg9
S'--'
p61
sg11
S'51.4'
p62
sg13
S'--'
p63
sg15
S'202'
p64
sg17
S'5.8'
p65
sg19
S'--'
p66
sg21
S'DEN'
p67
sg23
g24
sg25
S'18'
p68
sg27
S'23'
p69
sg29
S'--'
p70
sg31
g24
sg32
S'--'
p71
sg34
S'--'
p72
sg36
g35
sg37
g14
sg39
g24
sg40
S'12/06'
p73
sg42
S'Philip Rivers'
p74
sg44
S'57.1'
p75
sg46
S'L3-17'
p76
sg48
S'2015'
p77
ssS'12'
p78
(dp79
g5
S'43'
p80
sg7
S'12'
p81
sg9
S'1.8'
p82
sg11
S'67.4'
p83
sg13
S'5'
p84
sg15
S'300'
p85
sg17
S'7.0'
p86
sg19
S'--'
p87
sg21
S'@JAC'
p88
sg23
g24
sg25
S'29'
p89
sg27
S'10'
p90
sg29
S'9'
p91
sg31
g24
sg32
S'--'
p92
sg34
g35
sg36
g14
sg37
S'2'
p93
sg39
g35
sg40
S'11/29'
p94
sg42
S'Philip Rivers'
p95
sg44
S'118.4'
p96
sg46
S'W31-25'
p97
sg48
S'2015'
p98
ssS'15'
p99
(dp100
g5
S'36'
p101
sg7
S'15'
p102
sg9
S'--'
p103
sg11
S'72.2'
p104
sg13
S'--'
p105
sg15
S'311'
p106
sg17
S'8.6'
p107
sg19
S'--'
p108
sg21
S'MIA'
p109
sg23
g24
sg25
S'26'
p110
sg27
g91
sg29
S'--'
p111
sg31
g24
sg32
S'--'
p112
sg34
S'--'
p113
sg36
g38
sg37
g24
sg39
g93
sg40
S'12/20'
p114
sg42
S'Philip Rivers'
p115
sg44
S'102.9'
p116
sg46
S'W30-14'
p117
sg48
S'2015'
p118
ssS'14'
p119
(dp120
g5
S'43'
p121
sg7
S'14'
p122
sg9
S'4.0'
p123
sg11
S'55.8'
p124
sg13
g24
sg15
S'263'
p125
sg17
S'6.1'
p126
sg19
S'--'
p127
sg21
S'@KC'
p128
sg23
g24
sg25
S'24'
p129
sg27
S'27'
p130
sg29
g14
sg31
g24
sg32
S'--'
p131
sg34
g35
sg36
g35
sg37
g84
sg39
g24
sg40
S'12/13'
p132
sg42
S'Philip Rivers'
p133
sg44
S'64.4'
p134
sg46
S'L3-10'
p135
sg48
S'2015'
p136
ssS'17'
p137
(dp138
g5
S'35'
p139
sg7
S'17'
p140
sg9
S'2.5'
p141
sg11
S'60.0'
p142
sg13
g93
sg15
S'228'
p143
sg17
S'6.5'
p144
sg19
g24
sg21
S'@DEN'
p145
sg23
g24
sg25
S'21'
p146
sg27
S'21'
p147
sg29
g84
sg31
g24
sg32
g35
sg34
g35
sg36
g93
sg37
g38
sg39
g24
sg40
S'01/03'
p148
sg42
S'Philip Rivers'
p149
sg44
S'86.4'
p150
sg46
S'L20-27'
p151
sg48
S'2015'
p152
ssS'16'
p153
(dp154
g5
S'49'
p155
sg7
S'16'
p156
sg9
S'--'
p157
sg11
S'63.3'
p158
sg13
S'--'
p159
sg15
S'277'
p160
sg17
S'5.7'
p161
sg19
S'--'
p162
sg21
S'@OAK'
p163
sg23
g24
sg25
S'31'
p164
sg27
S'6'
p165
sg29
S'--'
p166
sg31
g24
sg32
S'--'
p167
sg34
S'--'
p168
sg36
g24
sg37
g24
sg39
g35
sg40
S'12/24'
p169
sg42
S'Philip Rivers'
p170
sg44
S'85.2'
p171
sg46
S'L20-23'
p172
sg48
S'2015'
p173
ssg24
(dp174
g5
S'41'
p175
sg7
g24
sg9
S'-1.0'
p176
sg11
S'82.9'
p177
sg13
g93
sg15
S'403'
p178
sg17
S'9.8'
p179
sg19
S'--'
p180
sg21
S'DET'
p181
sg23
g24
sg25
S'34'
p182
sg27
S'16'
p183
sg29
S'-2'
p184
sg31
g24
sg32
S'--'
p185
sg34
g35
sg36
g93
sg37
g93
sg39
g93
sg40
S'09/13'
p186
sg42
S'Philip Rivers'
p187
sg44
S'103.6'
p188
sg46
S'W33-28'
p189
sg48
S'2015'
p190
ssg38
(dp191
g5
S'34'
p192
sg7
g38
sg9
S'--'
p193
sg11
S'61.8'
p194
sg13
S'--'
p195
sg15
S'246'
p196
sg17
S'7.2'
p197
sg19
g24
sg21
S'@MIN'
p198
sg23
g24
sg25
S'21'
p199
sg27
S'30'
p200
sg29
S'--'
p201
sg31
g24
sg32
g24
sg34
S'--'
p202
sg36
g24
sg37
g14
sg39
g24
sg40
S'09/27'
p203
sg42
S'Philip Rivers'
p204
sg44
S'81.2'
p205
sg46
S'L14-31'
p206
sg48
S'2015'
p207
ssg93
(dp208
g5
S'27'
p209
sg7
g93
sg9
S'5.0'
p210
sg11
S'77.8'
p211
sg13
g24
sg15
S'241'
p212
sg17
S'8.9'
p213
sg19
g24
sg21
S'@CIN'
p214
sg23
g24
sg25
S'21'
p215
sg27
S'18'
p216
sg29
g84
sg31
g24
sg32
g24
sg34
g35
sg36
g93
sg37
g14
sg39
g24
sg40
S'09/20'
p217
sg42
S'Philip Rivers'
p218
sg44
S'113.1'
p219
sg46
S'L19-24'
p220
sg48
S'2015'
p221
ssg84
(dp222
g5
S'48'
p223
sg7
g84
sg9
S'--'
p224
sg11
S'72.9'
p225
sg13
S'--'
p226
sg15
S'365'
p227
sg17
S'7.6'
p228
sg19
S'--'
p229
sg21
S'PIT'
p230
sg23
g24
sg25
S'35'
p231
sg27
S'11'
p232
sg29
S'--'
p233
sg31
g24
sg32
S'--'
p234
sg34
S'--'
p235
sg36
g93
sg37
g93
sg39
g24
sg40
S'10/12'
p236
sg42
S'Philip Rivers'
p237
sg44
S'99.7'
p238
sg46
S'L20-24'
p239
sg48
S'2015'
p240
ssg14
(dp241
g5
S'38'
p242
sg7
g14
sg9
S'-1.0'
p243
sg11
S'60.5'
p244
sg13
g24
sg15
S'358'
p245
sg17
S'9.4'
p246
sg19
S'--'
p247
sg21
S'CLE'
p248
sg23
g24
sg25
S'23'
p249
sg27
S'11'
p250
sg29
S'-1'
p251
sg31
g24
sg32
S'--'
p252
sg34
g35
sg36
g38
sg37
g93
sg39
g35
sg40
S'10/04'
p253
sg42
S'Philip Rivers'
p254
sg44
S'118.1'
p255
sg46
S'W30-27'
p256
sg48
S'2015'
p257
ssS'7'
p258
(dp259
g5
S'58'
p260
sg7
g258
sg9
S'--'
p261
sg11
S'65.5'
p262
sg13
S'--'
p263
sg15
S'336'
p264
sg17
S'5.8'
p265
sg19
S'--'
p266
sg21
S'OAK'
p267
sg23
g24
sg25
S'38'
p268
sg27
g91
sg29
S'--'
p269
sg31
g24
sg32
S'--'
p270
sg34
S'--'
p271
sg36
g38
sg37
g24
sg39
g93
sg40
S'10/25'
p272
sg42
S'Philip Rivers'
p273
sg44
S'83.7'
p274
sg46
S'L29-37'
p275
sg48
S'2015'
p276
ssg165
(dp277
g5
S'65'
p278
sg7
g165
sg9
S'--'
p279
sg11
S'66.2'
p280
sg13
S'--'
p281
sg15
S'503'
p282
sg17
S'7.7'
p283
sg19
S'--'
p284
sg21
S'@GB'
p285
sg23
g24
sg25
S'43'
p286
sg27
S'15'
p287
sg29
S'--'
p288
sg31
g24
sg32
S'--'
p289
sg34
S'--'
p290
sg36
g93
sg37
g38
sg39
g35
sg40
S'10/18'
p291
sg42
S'Philip Rivers'
p292
sg44
S'99.7'
p293
sg46
S'L20-27'
p294
sg48
S'2015'
p295
ssg91
(dp296
g5
S'42'
p297
sg7
g91
sg9
S'--'
p298
sg11
S'61.9'
p299
sg13
S'--'
p300
sg15
S'280'
p301
sg17
S'6.7'
p302
sg19
S'--'
p303
sg21
S'CHI'
p304
sg23
g24
sg25
S'26'
p305
sg27
S'18'
p306
sg29
S'--'
p307
sg31
g24
sg32
S'--'
p308
sg34
S'--'
p309
sg36
g24
sg37
g93
sg39
g35
sg40
S'11/09'
p310
sg42
S'Philip Rivers'
p311
sg44
S'89.4'
p312
sg46
S'L19-22'
p313
sg48
S'2015'
p314
ssg30
(dp315
g5
S'37'
p316
sg7
g30
sg9
S'0.0'
p317
sg11
S'75.7'
p318
sg13
g24
sg15
S'301'
p319
sg17
S'8.1'
p320
sg19
g24
sg21
S'@BAL'
p321
sg23
g24
sg25
S'28'
p322
sg27
S'11'
p323
sg29
g35
sg31
g24
sg32
g35
sg34
g35
sg36
g38
sg37
g24
sg39
g35
sg40
S'11/01'
p324
sg42
S'Philip Rivers'
p325
sg44
S'126.1'
p326
sg46
S'L26-29'
p327
sg48
S'2015'
p328
sssS'2014'
p329
(dp330
g3
(dp331
g5
S'34'
p332
sg7
S'11'
p333
sg9
S'-1.0'
p334
sg11
S'64.7'
p335
sg13
g24
sg15
S'193'
p336
sg17
S'5.7'
p337
sg19
S'--'
p338
sg21
S'OAK'
p339
sg23
g24
sg25
S'22'
p340
sg27
S'13'
p341
sg29
S'-1'
p342
sg31
g24
sg32
S'--'
p343
sg34
g35
sg36
g24
sg37
g93
sg39
g35
sg40
S'11/16'
p344
sg42
S'Philip Rivers'
p345
sg44
S'89.5'
p346
sg46
S'W13-6'
p347
sg48
S'2014'
p348
ssg50
(dp349
g5
g52
sg7
S'10'
p350
sg9
g52
sg11
g52
sg13
g52
sg15
g52
sg17
g52
sg19
g52
sg21
g52
sg23
g52
sg25
g52
sg27
g52
sg29
g52
sg31
g52
sg32
g52
sg34
g52
sg36
g52
sg37
g52
sg39
g52
sg40
S'Bye'
p351
sg42
S'Philip Rivers'
p352
sg44
g52
sg46
g52
sg48
S'2014'
p353
ssg57
(dp354
g5
S'45'
p355
sg7
S'13'
p356
sg9
S'4.8'
p357
sg11
S'75.6'
p358
sg13
g14
sg15
S'383'
p359
sg17
S'8.5'
p360
sg19
S'--'
p361
sg21
S'@BAL'
p362
sg23
g24
sg25
S'34'
p363
sg27
g258
sg29
S'19'
p364
sg31
g24
sg32
S'--'
p365
sg34
g35
sg36
g38
sg37
g93
sg39
g24
sg40
S'11/30'
p366
sg42
S'Philip Rivers'
p367
sg44
S'113.5'
p368
sg46
S'W34-33'
p369
sg48
S'2014'
p370
ssg78
(dp371
g5
S'35'
p372
sg7
S'12'
p373
sg9
S'-0.3'
p374
sg11
S'82.9'
p375
sg13
g38
sg15
S'291'
p376
sg17
S'8.3'
p377
sg19
S'--'
p378
sg21
S'STL'
p379
sg23
g24
sg25
S'29'
p380
sg27
g91
sg29
S'-1'
p381
sg31
g24
sg32
S'--'
p382
sg34
g35
sg36
g24
sg37
g38
sg39
g24
sg40
S'11/23'
p383
sg42
S'Philip Rivers'
p384
sg44
S'98.9'
p385
sg46
S'W27-24'
p386
sg48
S'2014'
p387
ssg99
(dp388
g5
S'41'
p389
sg7
S'15'
p390
sg9
S'3.0'
p391
sg11
S'58.5'
p392
sg13
g24
sg15
S'232'
p393
sg17
S'5.7'
p394
sg19
S'--'
p395
sg21
S'DEN'
p396
sg23
g24
sg25
S'24'
p397
sg27
g35
sg29
g38
sg31
g24
sg32
S'--'
p398
sg34
g35
sg36
g24
sg37
g35
sg39
g93
sg40
S'12/14'
p399
sg42
S'Philip Rivers'
p400
sg44
S'62.2'
p401
sg46
S'L10-22'
p402
sg48
S'2014'
p403
ssg119
(dp404
g5
S'33'
p405
sg7
S'14'
p406
sg9
S'2.7'
p407
sg11
S'60.6'
p408
sg13
g38
sg15
S'189'
p409
sg17
S'5.7'
p410
sg19
S'--'
p411
sg21
S'NE'
p412
sg23
g24
sg25
S'20'
p413
sg27
S'26'
p414
sg29
g30
sg31
g24
sg32
S'--'
p415
sg34
g35
sg36
g24
sg37
g14
sg39
g24
sg40
S'12/07'
p416
sg42
S'Philip Rivers'
p417
sg44
S'73.9'
p418
sg46
S'L14-23'
p419
sg48
S'2014'
p420
ssg137
(dp421
g5
S'34'
p422
sg7
S'17'
p423
sg9
S'2.0'
p424
sg11
S'58.8'
p425
sg13
g24
sg15
S'291'
p426
sg17
S'8.6'
p427
sg19
g24
sg21
S'@KC'
p428
sg23
g24
sg25
S'20'
p429
sg27
S'42'
p430
sg29
g93
sg31
g24
sg32
g24
sg34
g35
sg36
g35
sg37
g258
sg39
g93
sg40
S'12/28'
p431
sg42
S'Philip Rivers'
p432
sg44
S'62.3'
p433
sg46
S'L7-19'
p434
sg48
S'2014'
p435
ssg153
(dp436
g5
S'54'
p437
sg7
S'16'
p438
sg9
S'--'
p439
sg11
S'61.1'
p440
sg13
S'--'
p441
sg15
S'356'
p442
sg17
S'6.6'
p443
sg19
g24
sg21
S'@SF'
p444
sg23
g24
sg25
S'33'
p445
sg27
g30
sg29
S'--'
p446
sg31
g24
sg32
g35
sg34
S'--'
p447
sg36
g14
sg37
g93
sg39
g38
sg40
S'12/20'
p448
sg42
S'Philip Rivers'
p449
sg44
S'82.0'
p450
sg46
S'W38-35'
p451
sg48
S'2014'
p452
ssg24
(dp453
g5
S'36'
p454
sg7
g24
sg9
S'5.0'
p455
sg11
S'58.3'
p456
sg13
g93
sg15
S'238'
p457
sg17
S'6.6'
p458
sg19
g24
sg21
S'@ARI'
p459
sg23
g24
sg25
S'21'
p460
sg27
g35
sg29
S'10'
p461
sg31
g24
sg32
g35
sg34
g35
sg36
g24
sg37
g35
sg39
g24
sg40
S'09/08'
p462
sg42
S'Philip Rivers'
p463
sg44
S'75.9'
p464
sg46
S'L17-18'
p465
sg48
S'2014'
p466
ssg38
(dp467
g5
S'25'
p468
sg7
g38
sg9
S'9.0'
p469
sg11
S'72.0'
p470
sg13
g24
sg15
S'256'
p471
sg17
S'10.2'
p472
sg19
S'--'
p473
sg21
S'@BUF'
p474
sg23
g24
sg25
S'18'
p475
sg27
g165
sg29
g91
sg31
g24
sg32
S'--'
p476
sg34
g35
sg36
g93
sg37
g93
sg39
g35
sg40
S'09/21'
p477
sg42
S'Philip Rivers'
p478
sg44
S'131.4'
p479
sg46
S'W22-10'
p480
sg48
S'2014'
p481
ssg93
(dp482
g5
S'37'
p483
sg7
g93
sg9
S'1.5'
p484
sg11
S'75.7'
p485
sg13
S'11'
p486
sg15
S'284'
p487
sg17
S'7.7'
p488
sg19
g93
sg21
S'SEA'
p489
sg23
g24
sg25
S'28'
p490
sg27
g30
sg29
S'17'
p491
sg31
g24
sg32
g35
sg34
g35
sg36
g38
sg37
g24
sg39
g35
sg40
S'09/14'
p492
sg42
S'Philip Rivers'
p493
sg44
S'124.2'
p494
sg46
S'W30-21'
p495
sg48
S'2014'
p496
ssg84
(dp497
g5
S'28'
p498
sg7
g84
sg9
S'1.5'
p499
sg11
S'71.4'
p500
sg13
g93
sg15
S'288'
p501
sg17
S'10.3'
p502
sg19
S'--'
p503
sg21
S'NYJ'
p504
sg23
g24
sg25
S'20'
p505
sg27
S'11'
p506
sg29
g38
sg31
g24
sg32
S'--'
p507
sg34
g35
sg36
g38
sg37
g38
sg39
g24
sg40
S'10/05'
p508
sg42
S'Philip Rivers'
p509
sg44
S'125.3'
p510
sg46
S'W31-0'
p511
sg48
S'2014'
p512
ssg14
(dp513
g5
S'39'
p514
sg7
g14
sg9
S'0.0'
p515
sg11
S'74.4'
p516
sg13
g24
sg15
S'377'
p517
sg17
S'9.7'
p518
sg19
g24
sg21
S'JAC'
p519
sg23
g24
sg25
S'29'
p520
sg27
S'12'
p521
sg29
g35
sg31
g24
sg32
g35
sg34
g35
sg36
g38
sg37
g93
sg39
g35
sg40
S'09/28'
p522
sg42
S'Philip Rivers'
p523
sg44
S'130.0'
p524
sg46
S'W33-14'
p525
sg48
S'2014'
p526
ssg258
(dp527
g5
S'31'
p528
sg7
g258
sg9
S'--'
p529
sg11
S'54.8'
p530
sg13
S'--'
p531
sg15
S'205'
p532
sg17
S'6.6'
p533
sg19
g24
sg21
S'KC'
p534
sg23
g24
sg25
S'17'
p535
sg27
S'23'
p536
sg29
S'--'
p537
sg31
g24
sg32
g35
sg34
S'--'
p538
sg36
g93
sg37
g93
sg39
g24
sg40
S'10/19'
p539
sg42
S'Philip Rivers'
p540
sg44
S'83.4'
p541
sg46
S'L20-23'
p542
sg48
S'2014'
p543
ssg165
(dp544
g5
S'34'
p545
sg7
g165
sg9
S'2.6'
p546
sg11
S'64.7'
p547
sg13
g84
sg15
S'313'
p548
sg17
S'9.2'
p549
sg19
S'--'
p550
sg21
S'@OAK'
p551
sg23
g24
sg25
S'22'
p552
sg27
g165
sg29
S'13'
p553
sg31
g24
sg32
S'--'
p554
sg34
g35
sg36
g38
sg37
g24
sg39
g35
sg40
S'10/12'
p555
sg42
S'Philip Rivers'
p556
sg44
S'123.8'
p557
sg46
S'W31-28'
p558
sg48
S'2014'
p559
ssg91
(dp560
g5
S'23'
p561
sg7
g91
sg9
S'3.0'
p562
sg11
S'52.2'
p563
sg13
g24
sg15
S'138'
p564
sg17
S'6.0'
p565
sg19
g24
sg21
S'@MIA'
p566
sg23
g24
sg25
S'12'
p567
sg27
S'11'
p568
sg29
g38
sg31
g24
sg32
g24
sg34
g35
sg36
g35
sg37
g38
sg39
g38
sg40
S'11/02'
p569
sg42
S'Philip Rivers'
p570
sg44
S'31.0'
p571
sg46
S'L0-37'
p572
sg48
S'2014'
p573
ssg30
(dp574
g5
S'41'
p575
sg7
g30
sg9
S'17.0'
p576
sg11
S'73.2'
p577
sg13
g24
sg15
S'252'
p578
sg17
S'6.1'
p579
sg19
S'--'
p580
sg21
S'@DEN'
p581
sg23
g24
sg25
S'30'
p582
sg27
g258
sg29
S'17'
p583
sg31
g24
sg32
S'--'
p584
sg34
g35
sg36
g38
sg37
g93
sg39
g93
sg40
S'10/23'
p585
sg42
S'Philip Rivers'
p586
sg44
S'92.7'
p587
sg46
S'L21-35'
p588
sg48
S'2014'
p589
sssS'2011'
p590
(dp591
g3
(dp592
g5
S'31'
p593
sg7
S'11'
p594
sg9
S'--'
p595
sg11
S'67.7'
p596
sg13
S'--'
p597
sg15
S'280'
p598
sg17
S'9.0'
p599
sg19
S'--'
p600
sg21
S'@CHI'
p601
sg23
g24
sg25
S'21'
p602
sg27
g35
sg29
S'--'
p603
sg31
g24
sg32
S'--'
p604
sg34
S'--'
p605
sg36
g93
sg37
g35
sg39
g93
sg40
S'11/20'
p606
sg42
S'Philip Rivers'
p607
sg44
S'90.8'
p608
sg46
S'L20-31'
p609
sg48
S'2011'
p610
ssg50
(dp611
g5
S'47'
p612
sg7
S'10'
p613
sg9
S'4.0'
p614
sg11
S'48.9'
p615
sg13
g24
sg15
S'274'
p616
sg17
S'5.8'
p617
sg19
g24
sg21
S'OAK'
p618
sg23
g24
sg25
S'23'
p619
sg27
S'35'
p620
sg29
g14
sg31
g24
sg32
g24
sg34
g35
sg36
g93
sg37
g165
sg39
g24
sg40
S'11/10'
p621
sg42
S'Philip Rivers'
p622
sg44
S'72.5'
p623
sg46
S'L17-24'
p624
sg48
S'2011'
p625
ssg57
(dp626
g5
S'28'
p627
sg7
S'13'
p628
sg9
S'--'
p629
sg11
S'78.6'
p630
sg13
S'--'
p631
sg15
S'294'
p632
sg17
S'10.5'
p633
sg19
S'--'
p634
sg21
S'@JAC'
p635
sg23
g24
sg25
S'22'
p636
sg27
g35
sg29
S'--'
p637
sg31
g24
sg32
S'--'
p638
sg34
S'--'
p639
sg36
g38
sg37
g35
sg39
g35
sg40
S'12/05'
p640
sg42
S'Philip Rivers'
p641
sg44
S'146.1'
p642
sg46
S'W38-14'
p643
sg48
S'2011'
p644
ssg78
(dp645
g5
S'36'
p646
sg7
S'12'
p647
sg9
S'1.0'
p648
sg11
S'52.8'
p649
sg13
g24
sg15
S'188'
p650
sg17
S'5.2'
p651
sg19
S'--'
p652
sg21
S'DEN'
p653
sg23
g24
sg25
S'19'
p654
sg27
S'29'
p655
sg29
g24
sg31
g24
sg32
S'--'
p656
sg34
g35
sg36
g24
sg37
g38
sg39
g35
sg40
S'11/27'
p657
sg42
S'Philip Rivers'
p658
sg44
S'77.1'
p659
sg46
S'L13-16'
p660
sg48
S'2011'
p661
ssg99
(dp662
g5
S'23'
p663
sg7
S'15'
p664
sg9
S'--'
p665
sg11
S'73.9'
p666
sg13
S'--'
p667
sg15
S'270'
p668
sg17
S'11.7'
p669
sg19
S'--'
p670
sg21
S'BAL'
p671
sg23
g24
sg25
S'17'
p672
sg27
g35
sg29
S'--'
p673
sg31
g24
sg32
S'--'
p674
sg34
S'--'
p675
sg36
g24
sg37
g35
sg39
g35
sg40
S'12/18'
p676
sg42
S'Philip Rivers'
p677
sg44
S'127.1'
p678
sg46
S'W34-14'
p679
sg48
S'2011'
p680
ssg119
(dp681
g5
S'33'
p682
sg7
S'14'
p683
sg9
S'--'
p684
sg11
S'72.7'
p685
sg13
S'--'
p686
sg15
S'240'
p687
sg17
S'7.3'
p688
sg19
g24
sg21
S'BUF'
p689
sg23
g24
sg25
S'24'
p690
sg27
S'24'
p691
sg29
S'--'
p692
sg31
g24
sg32
g24
sg34
S'--'
p693
sg36
g38
sg37
g93
sg39
g35
sg40
S'12/11'
p694
sg42
S'Philip Rivers'
p695
sg44
S'123.3'
p696
sg46
S'W37-10'
p697
sg48
S'2011'
p698
ssg137
(dp699
g5
S'26'
p700
sg7
S'17'
p701
sg9
S'-1.0'
p702
sg11
S'73.1'
p703
sg13
g38
sg15
S'310'
p704
sg17
S'11.9'
p705
sg19
S'--'
p706
sg21
S'@OAK'
p707
sg23
g24
sg25
S'19'
p708
sg27
g35
sg29
S'-3'
p709
sg31
g24
sg32
S'--'
p710
sg34
g35
sg36
g38
sg37
g35
sg39
g24
sg40
S'01/01'
p711
sg42
S'Philip Rivers'
p712
sg44
S'135.1'
p713
sg46
S'W38-26'
p714
sg48
S'2011'
p715
ssg153
(dp716
g5
S'53'
p717
sg7
S'16'
p718
sg9
S'--'
p719
sg11
S'52.8'
p720
sg13
S'--'
p721
sg15
S'299'
p722
sg17
S'5.6'
p723
sg19
S'--'
p724
sg21
S'@DET'
p725
sg23
g24
sg25
S'28'
p726
sg27
g35
sg29
S'--'
p727
sg31
g24
sg32
S'--'
p728
sg34
S'--'
p729
sg36
g24
sg37
g35
sg39
g93
sg40
S'12/24'
p730
sg42
S'Philip Rivers'
p731
sg44
S'60.2'
p732
sg46
S'L10-38'
p733
sg48
S'2011'
p734
ssg24
(dp735
g5
S'48'
p736
sg7
g24
sg9
S'-1.0'
p737
sg11
S'68.8'
p738
sg13
g38
sg15
S'335'
p739
sg17
S'7.0'
p740
sg19
S'--'
p741
sg21
S'MIN'
p742
sg23
g24
sg25
S'33'
p743
sg27
g84
sg29
S'-3'
p744
sg31
g24
sg32
S'--'
p745
sg34
g35
sg36
g93
sg37
g93
sg39
g93
sg40
S'09/11'
p746
sg42
S'Philip Rivers'
p747
sg44
S'85.0'
p748
sg46
S'W24-17'
p749
sg48
S'2011'
p750
ssg38
(dp751
g5
S'38'
p752
sg7
g38
sg9
S'-0.7'
p753
sg11
S'63.2'
p754
sg13
g38
sg15
S'266'
p755
sg17
S'7.0'
p756
sg19
g24
sg21
S'KC'
p757
sg23
g24
sg25
S'24'
p758
sg27
g30
sg29
S'-2'
p759
sg31
g24
sg32
g35
sg34
g35
sg36
g35
sg37
g93
sg39
g93
sg40
S'09/25'
p760
sg42
S'Philip Rivers'
p761
sg44
S'62.0'
p762
sg46
S'W20-17'
p763
sg48
S'2011'
p764
ssg93
(dp765
g5
S'40'
p766
sg7
g93
sg9
S'6.0'
p767
sg11
S'72.5'
p768
sg13
g93
sg15
S'378'
p769
sg17
S'9.5'
p770
sg19
g24
sg21
S'@NE'
p771
sg23
g24
sg25
S'29'
p772
sg27
g165
sg29
S'12'
p773
sg31
g24
sg32
g24
sg34
g35
sg36
g93
sg37
g93
sg39
g93
sg40
S'09/18'
p774
sg42
S'Philip Rivers'
p775
sg44
S'97.7'
p776
sg46
S'L21-35'
p777
sg48
S'2011'
p778
ssg84
(dp779
g5
S'29'
p780
sg7
g84
sg9
S'3.3'
p781
sg11
S'62.1'
p782
sg13
g38
sg15
S'250'
p783
sg17
S'8.6'
p784
sg19
g93
sg21
S'@DEN'
p785
sg23
g24
sg25
S'18'
p786
sg27
S'38'
p787
sg29
S'10'
p788
sg31
g24
sg32
g24
sg34
g24
sg36
g24
sg37
g84
sg39
g24
sg40
S'10/09'
p789
sg42
S'Philip Rivers'
p790
sg44
S'86.9'
p791
sg46
S'W29-24'
p792
sg48
S'2011'
p793
ssg14
(dp794
g5
S'31'
p795
sg7
g14
sg9
S'3.6'
p796
sg11
S'67.7'
p797
sg13
g84
sg15
S'307'
p798
sg17
S'9.9'
p799
sg19
S'--'
p800
sg21
S'MIA'
p801
sg23
g24
sg25
S'21'
p802
sg27
S'12'
p803
sg29
S'18'
p804
sg31
g24
sg32
S'--'
p805
sg34
g35
sg36
g24
sg37
g93
sg39
g35
sg40
S'10/02'
p806
sg42
S'Philip Rivers'
p807
sg44
S'110.6'
p808
sg46
S'W26-16'
p809
sg48
S'2011'
p810
ssg258
(dp811
g5
S'32'
p812
sg7
g258
sg9
S'-1.0'
p813
sg11
S'50.0'
p814
sg13
g24
sg15
S'179'
p815
sg17
S'5.6'
p816
sg19
S'--'
p817
sg21
S'@NYJ'
p818
sg23
g24
sg25
S'16'
p819
sg27
g258
sg29
S'-1'
p820
sg31
g24
sg32
S'--'
p821
sg34
g35
sg36
g24
sg37
g24
sg39
g93
sg40
S'10/23'
p822
sg42
S'Philip Rivers'
p823
sg44
S'51.4'
p824
sg46
S'L21-27'
p825
sg48
S'2011'
p826
ssg165
(dp827
g5
g52
sg7
g165
sg9
g52
sg11
g52
sg13
g52
sg15
g52
sg17
g52
sg19
g52
sg21
g52
sg23
g52
sg25
g52
sg27
g52
sg29
g52
sg31
g52
sg32
g52
sg34
g52
sg36
g52
sg37
g52
sg39
g52
sg40
S'Bye'
p828
sg42
S'Philip Rivers'
p829
sg44
g52
sg46
g52
sg48
S'2011'
p830
ssg91
(dp831
g5
S'46'
p832
sg7
g91
sg9
S'-1.0'
p833
sg11
S'56.5'
p834
sg13
g24
sg15
S'385'
p835
sg17
S'8.4'
p836
sg19
g24
sg21
S'GB'
p837
sg23
g24
sg25
S'26'
p838
sg27
S'10'
p839
sg29
S'-1'
p840
sg31
g24
sg32
g35
sg34
g35
sg36
g14
sg37
g93
sg39
g38
sg40
S'11/06'
p841
sg42
S'Philip Rivers'
p842
sg44
S'85.9'
p843
sg46
S'L38-45'
p844
sg48
S'2011'
p845
ssg30
(dp846
g5
S'41'
p847
sg7
g30
sg9
S'0.3'
p848
sg11
S'63.4'
p849
sg13
g38
sg15
S'369'
p850
sg17
S'9.0'
p851
sg19
g93
sg21
S'@KC'
p852
sg23
g24
sg25
S'26'
p853
sg27
S'24'
p854
sg29
g24
sg31
g24
sg32
g24
sg34
g35
sg36
g35
sg37
g38
sg39
g93
sg40
S'10/31'
p855
sg42
S'Philip Rivers'
p856
sg44
S'72.1'
p857
sg46
S'L20-23'
p858
sg48
S'2011'
p859
sssS'2010'
p860
(dp861
g3
(dp862
g5
S'24'
p863
sg7
S'11'
p864
sg9
S'1.5'
p865
sg11
S'62.5'
p866
sg13
g14
sg15
S'233'
p867
sg17
S'9.7'
p868
sg19
S'--'
p869
sg21
S'DEN'
p870
sg23
g24
sg25
S'15'
p871
sg27
g30
sg29
g165
sg31
g24
sg32
S'--'
p872
sg34
g35
sg36
g14
sg37
g24
sg39
g24
sg40
S'11/22'
p873
sg42
S'Philip Rivers'
p874
sg44
S'116.8'
p875
sg46
S'W35-14'
p876
sg48
S'2010'
p877
ssg50
(dp878
g5
g52
sg7
S'10'
p879
sg9
g52
sg11
g52
sg13
g52
sg15
g52
sg17
g52
sg19
g52
sg21
g52
sg23
g52
sg25
g52
sg27
g52
sg29
g52
sg31
g52
sg32
g52
sg34
g52
sg36
g52
sg37
g52
sg39
g52
sg40
S'Bye'
p880
sg42
S'Philip Rivers'
p881
sg44
g52
sg46
g52
sg48
S'2010'
p882
ssg57
(dp883
g5
S'39'
p884
sg7
S'13'
p885
sg9
S'5.0'
p886
sg11
S'59.0'
p887
sg13
g24
sg15
S'280'
p888
sg17
S'7.2'
p889
sg19
S'--'
p890
sg21
S'OAK'
p891
sg23
g24
sg25
S'23'
p892
sg27
S'15'
p893
sg29
g84
sg31
g24
sg32
S'--'
p894
sg34
g35
sg36
g24
sg37
g14
sg39
g24
sg40
S'12/05'
p895
sg42
S'Philip Rivers'
p896
sg44
S'79.0'
p897
sg46
S'L13-28'
p898
sg48
S'2010'
p899
ssg78
(dp900
g5
S'23'
p901
sg7
S'12'
p902
sg9
S'2.3'
p903
sg11
S'82.6'
p904
sg13
g38
sg15
S'185'
p905
sg17
S'8.0'
p906
sg19
S'--'
p907
sg21
S'@IND'
p908
sg23
g24
sg25
S'19'
p909
sg27
S'13'
p910
sg29
g258
sg31
g24
sg32
S'--'
p911
sg34
g35
sg36
g35
sg37
g93
sg39
g35
sg40
S'11/28'
p912
sg42
S'Philip Rivers'
p913
sg44
S'100.2'
p914
sg46
S'W36-14'
p915
sg48
S'2010'
p916
ssg99
(dp917
g5
S'25'
p918
sg7
S'15'
p919
sg9
S'--'
p920
sg11
S'76.0'
p921
sg13
S'--'
p922
sg15
S'273'
p923
sg17
S'10.9'
p924
sg19
S'--'
p925
sg21
S'SF'
p926
sg23
g24
sg25
S'19'
p927
sg27
g258
sg29
S'--'
p928
sg31
g24
sg32
S'--'
p929
sg34
S'--'
p930
sg36
g38
sg37
g24
sg39
g35
sg40
S'12/16'
p931
sg42
S'Philip Rivers'
p932
sg44
S'150.5'
p933
sg46
S'W34-7'
p934
sg48
S'2010'
p935
ssg119
(dp936
g5
S'24'
p937
sg7
S'14'
p938
sg9
S'2.5'
p939
sg11
S'75.0'
p940
sg13
g93
sg15
S'226'
p941
sg17
S'9.4'
p942
sg19
g24
sg21
S'KC'
p943
sg23
g24
sg25
S'18'
p944
sg27
g258
sg29
g84
sg31
g24
sg32
g24
sg34
g35
sg36
g93
sg37
g93
sg39
g24
sg40
S'12/12'
p945
sg42
S'Philip Rivers'
p946
sg44
S'114.2'
p947
sg46
S'W31-0'
p948
sg48
S'2010'
p949
ssg137
(dp950
g5
S'37'
p951
sg7
S'17'
p952
sg9
S'1.0'
p953
sg11
S'56.8'
p954
sg13
g24
sg15
S'313'
p955
sg17
S'8.5'
p956
sg19
S'--'
p957
sg21
S'@DEN'
p958
sg23
g24
sg25
S'21'
p959
sg27
S'30'
p960
sg29
g24
sg31
g24
sg32
S'--'
p961
sg34
g35
sg36
g35
sg37
g84
sg39
g24
sg40
S'01/02'
p962
sg42
S'Philip Rivers'
p963
sg44
S'73.4'
p964
sg46
S'W33-28'
p965
sg48
S'2010'
p966
ssg153
(dp967
g5
S'40'
p968
sg7
S'16'
p969
sg9
S'2.0'
p970
sg11
S'67.5'
p971
sg13
g24
sg15
S'256'
p972
sg17
S'6.4'
p973
sg19
S'--'
p974
sg21
S'@CIN'
p975
sg23
g24
sg25
S'27'
p976
sg27
g258
sg29
g93
sg31
g24
sg32
S'--'
p977
sg34
g35
sg36
g24
sg37
g24
sg39
g24
sg40
S'12/26'
p978
sg42
S'Philip Rivers'
p979
sg44
S'82.9'
p980
sg46
S'L20-34'
p981
sg48
S'2010'
p982
ssg24
(dp983
g5
S'39'
p984
sg7
g24
sg9
S'1.7'
p985
sg11
S'56.4'
p986
sg13
g38
sg15
S'298'
p987
sg17
S'7.6'
p988
sg19
g93
sg21
S'@KC'
p989
sg23
g24
sg25
S'22'
p990
sg27
S'18'
p991
sg29
g84
sg31
g24
sg32
g35
sg34
g35
sg36
g93
sg37
g93
sg39
g35
sg40
S'09/13'
p992
sg42
S'Philip Rivers'
p993
sg44
S'98.0'
p994
sg46
S'L14-21'
p995
sg48
S'2010'
p996
ssg38
(dp997
g5
S'53'
p998
sg7
g38
sg9
S'2.0'
p999
sg11
S'54.7'
p1000
sg13
g24
sg15
S'455'
p1001
sg17
S'8.6'
p1002
sg19
S'--'
p1003
sg21
S'@SEA'
p1004
sg23
g24
sg25
S'29'
p1005
sg27
S'26'
p1006
sg29
g93
sg31
g24
sg32
S'--'
p1007
sg34
g35
sg36
g93
sg37
g14
sg39
g93
sg40
S'09/26'
p1008
sg42
S'Philip Rivers'
p1009
sg44
S'80.3'
p1010
sg46
S'L20-27'
p1011
sg48
S'2010'
p1012
ssg93
(dp1013
g5
S'29'
p1014
sg7
g93
sg9
S'--'
p1015
sg11
S'75.9'
p1016
sg13
S'--'
p1017
sg15
S'334'
p1018
sg17
S'11.5'
p1019
sg19
S'--'
p1020
sg21
S'JAC'
p1021
sg23
g24
sg25
S'22'
p1022
sg27
g30
sg29
S'--'
p1023
sg31
g24
sg32
S'--'
p1024
sg34
S'--'
p1025
sg36
g38
sg37
g24
sg39
g93
sg40
S'09/19'
p1026
sg42
S'Philip Rivers'
p1027
sg44
S'119.0'
p1028
sg46
S'W38-13'
p1029
sg48
S'2010'
p1030
ssg84
(dp1031
g5
S'42'
p1032
sg7
g84
sg9
S'14.0'
p1033
sg11
S'64.3'
p1034
sg13
g24
sg15
S'431'
p1035
sg17
S'10.3'
p1036
sg19
g93
sg21
S'@OAK'
p1037
sg23
g24
sg25
S'27'
p1038
sg27
S'16'
p1039
sg29
S'14'
p1040
sg31
g24
sg32
g93
sg34
g35
sg36
g93
sg37
g38
sg39
g35
sg40
S'10/10'
p1041
sg42
S'Philip Rivers'
p1042
sg44
S'114.3'
p1043
sg46
S'L27-35'
p1044
sg48
S'2010'
p1045
ssg14
(dp1046
g5
S'20'
p1047
sg7
g14
sg9
S'--'
p1048
sg11
S'75.0'
p1049
sg13
S'--'
p1050
sg15
S'241'
p1051
sg17
S'12.0'
p1052
sg19
S'--'
p1053
sg21
S'ARI'
p1054
sg23
g24
sg25
S'15'
p1055
sg27
S'10'
p1056
sg29
S'--'
p1057
sg31
g24
sg32
S'--'
p1058
sg34
S'--'
p1059
sg36
g93
sg37
g24
sg39
g35
sg40
S'10/03'
p1060
sg42
S'Philip Rivers'
p1061
sg44
S'148.1'
p1062
sg46
S'W41-10'
p1063
sg48
S'2010'
p1064
ssg258
(dp1065
g5
S'50'
p1066
sg7
g258
sg9
S'1.5'
p1067
sg11
S'68.0'
p1068
sg13
g165
sg15
S'336'
p1069
sg17
S'6.7'
p1070
sg19
g93
sg21
S'NE'
p1071
sg23
g24
sg25
S'34'
p1072
sg27
S'11'
p1073
sg29
g91
sg31
g24
sg32
g24
sg34
g35
sg36
g24
sg37
g93
sg39
g24
sg40
S'10/24'
p1074
sg42
S'Philip Rivers'
p1075
sg44
S'85.1'
p1076
sg46
S'L20-23'
p1077
sg48
S'2010'
p1078
ssg165
(dp1079
g5
S'37'
p1080
sg7
g165
sg9
S'--'
p1081
sg11
S'59.5'
p1082
sg13
S'--'
p1083
sg15
S'249'
p1084
sg17
S'6.7'
p1085
sg19
S'--'
p1086
sg21
S'@STL'
p1087
sg23
g24
sg25
S'22'
p1088
sg27
S'41'
p1089
sg29
S'--'
p1090
sg31
g24
sg32
S'--'
p1091
sg34
S'--'
p1092
sg36
g24
sg37
g258
sg39
g24
sg40
S'10/17'
p1093
sg42
S'Philip Rivers'
p1094
sg44
S'77.4'
p1095
sg46
S'L17-20'
p1096
sg48
S'2010'
p1097
ssg91
(dp1098
g5
S'23'
p1099
sg7
g91
sg9
S'-1.8'
p1100
sg11
S'73.9'
p1101
sg13
g14
sg15
S'295'
p1102
sg17
S'12.8'
p1103
sg19
S'--'
p1104
sg21
S'@HOU'
p1105
sg23
g24
sg25
S'17'
p1106
sg27
g84
sg29
S'-7'
p1107
sg31
g24
sg32
S'--'
p1108
sg34
g35
sg36
g14
sg37
g24
sg39
g24
sg40
S'11/07'
p1109
sg42
S'Philip Rivers'
p1110
sg44
S'137.2'
p1111
sg46
S'W29-23'
p1112
sg48
S'2010'
p1113
ssg30
(dp1114
g5
S'36'
p1115
sg7
g30
sg9
S'1.5'
p1116
sg11
S'75.0'
p1117
sg13
g93
sg15
S'305'
p1118
sg17
S'8.5'
p1119
sg19
S'--'
p1120
sg21
S'TEN'
p1121
sg23
g24
sg25
S'27'
p1122
sg27
g84
sg29
g38
sg31
g24
sg32
S'--'
p1123
sg34
g35
sg36
g93
sg37
g24
sg39
g24
sg40
S'10/31'
p1124
sg42
S'Philip Rivers'
p1125
sg44
S'106.8'
p1126
sg46
S'W33-25'
p1127
sg48
S'2010'
p1128
sssS'2013'
p1129
(dp1130
g3
(dp1131
g5
S'34'
p1132
sg7
S'11'
p1133
sg9
S'3.0'
p1134
sg11
S'64.7'
p1135
sg13
g93
sg15
S'298'
p1136
sg17
S'8.8'
p1137
sg19
S'--'
p1138
sg21
S'@MIA'
p1139
sg23
g24
sg25
S'22'
p1140
sg27
S'17'
p1141
sg29
g165
sg31
g24
sg32
S'--'
p1142
sg34
g35
sg36
g24
sg37
g38
sg39
g24
sg40
S'11/17'
p1143
sg42
S'Philip Rivers'
p1144
sg44
S'90.1'
p1145
sg46
S'L16-20'
p1146
sg48
S'2013'
p1147
ssg50
(dp1148
g5
S'29'
p1149
sg7
S'10'
p1150
sg9
S'1.4'
p1151
sg11
S'65.5'
p1152
sg13
g84
sg15
S'218'
p1153
sg17
S'7.5'
p1154
sg19
g24
sg21
S'DEN'
p1155
sg23
g24
sg25
S'19'
p1156
sg27
S'20'
p1157
sg29
g258
sg31
g24
sg32
g35
sg34
g35
sg36
g24
sg37
g14
sg39
g35
sg40
S'11/10'
p1158
sg42
S'Philip Rivers'
p1159
sg44
S'99.5'
p1160
sg46
S'L20-28'
p1161
sg48
S'2013'
p1162
ssg57
(dp1163
g5
S'37'
p1164
sg7
S'13'
p1165
sg9
S'4.0'
p1166
sg11
S'62.2'
p1167
sg13
g24
sg15
S'252'
p1168
sg17
S'6.8'
p1169
sg19
S'--'
p1170
sg21
S'CIN'
p1171
sg23
g24
sg25
S'23'
p1172
sg27
g91
sg29
g14
sg31
g24
sg32
S'--'
p1173
sg34
g35
sg36
g24
sg37
g93
sg39
g24
sg40
S'12/01'
p1174
sg42
S'Philip Rivers'
p1175
sg44
S'80.0'
p1176
sg46
S'L10-17'
p1177
sg48
S'2013'
p1178
ssg78
(dp1179
g5
S'39'
p1180
sg7
S'12'
p1181
sg9
S'1.0'
p1182
sg11
S'69.2'
p1183
sg13
g24
sg15
S'392'
p1184
sg17
S'10.1'
p1185
sg19
S'--'
p1186
sg21
S'@KC'
p1187
sg23
g24
sg25
S'27'
p1188
sg27
g84
sg29
g24
sg31
g24
sg32
S'--'
p1189
sg34
g35
sg36
g38
sg37
g24
sg39
g35
sg40
S'11/24'
p1190
sg42
S'Philip Rivers'
p1191
sg44
S'127.3'
p1192
sg46
S'W41-38'
p1193
sg48
S'2013'
p1194
ssg99
(dp1195
g5
S'20'
p1196
sg7
S'15'
p1197
sg9
S'3.0'
p1198
sg11
S'60.0'
p1199
sg13
g38
sg15
S'166'
p1200
sg17
S'8.3'
p1201
sg19
S'--'
p1202
sg21
S'@DEN'
p1203
sg23
g24
sg25
S'12'
p1204
sg27
g165
sg29
g91
sg31
g24
sg32
S'--'
p1205
sg34
g35
sg36
g93
sg37
g93
sg39
g35
sg40
S'12/12'
p1206
sg42
S'Philip Rivers'
p1207
sg44
S'120.0'
p1208
sg46
S'W27-20'
p1209
sg48
S'2013'
p1210
ssg119
(dp1211
g5
S'28'
p1212
sg7
S'14'
p1213
sg9
S'--'
p1214
sg11
S'75.0'
p1215
sg13
S'--'
p1216
sg15
S'249'
p1217
sg17
S'8.9'
p1218
sg19
g24
sg21
S'NYG'
p1219
sg23
g24
sg25
S'21'
p1220
sg27
g84
sg29
S'--'
p1221
sg31
g24
sg32
g24
sg34
S'--'
p1222
sg36
g38
sg37
g93
sg39
g35
sg40
S'12/08'
p1223
sg42
S'Philip Rivers'
p1224
sg44
S'137.4'
p1225
sg46
S'W37-14'
p1226
sg48
S'2013'
p1227
ssg137
(dp1228
g5
S'33'
p1229
sg7
S'17'
p1230
sg9
S'0.7'
p1231
sg11
S'66.7'
p1232
sg13
g38
sg15
S'229'
p1233
sg17
S'6.9'
p1234
sg19
S'--'
p1235
sg21
S'KC'
p1236
sg23
g24
sg25
S'22'
p1237
sg27
S'10'
p1238
sg29
g93
sg31
g24
sg32
S'--'
p1239
sg34
g35
sg36
g38
sg37
g38
sg39
g24
sg40
S'12/29'
p1240
sg42
S'Philip Rivers'
p1241
sg44
S'104.2'
p1242
sg46
S'W27-24'
p1243
sg48
S'2013'
p1244
ssg153
(dp1245
g5
S'29'
p1246
sg7
S'16'
p1247
sg9
S'-0.8'
p1248
sg11
S'65.5'
p1249
sg13
g14
sg15
S'201'
p1250
sg17
S'6.9'
p1251
sg19
g24
sg21
S'OAK'
p1252
sg23
g24
sg25
S'19'
p1253
sg27
g84
sg29
S'-3'
p1254
sg31
g24
sg32
g24
sg34
g35
sg36
g24
sg37
g24
sg39
g24
sg40
S'12/22'
p1255
sg42
S'Philip Rivers'
p1256
sg44
S'82.7'
p1257
sg46
S'W26-13'
p1258
sg48
S'2013'
p1259
ssg24
(dp1260
g5
S'29'
p1261
sg7
g24
sg9
S'18.0'
p1262
sg11
S'48.3'
p1263
sg13
g24
sg15
S'195'
p1264
sg17
S'6.7'
p1265
sg19
S'--'
p1266
sg21
S'HOU'
p1267
sg23
g24
sg25
S'14'
p1268
sg27
S'12'
p1269
sg29
S'18'
p1270
sg31
g24
sg32
S'--'
p1271
sg34
g35
sg36
g14
sg37
g93
sg39
g24
sg40
S'09/09'
p1272
sg42
S'Philip Rivers'
p1273
sg44
S'95.5'
p1274
sg46
S'L28-31'
p1275
sg48
S'2013'
p1276
ssg38
(dp1277
g5
S'24'
p1278
sg7
g38
sg9
S'--'
p1279
sg11
S'83.3'
p1280
sg13
S'--'
p1281
sg15
S'184'
p1282
sg17
S'7.7'
p1283
sg19
S'--'
p1284
sg21
S'@TEN'
p1285
sg23
g24
sg25
S'20'
p1286
sg27
g91
sg29
S'--'
p1287
sg31
g24
sg32
S'--'
p1288
sg34
S'--'
p1289
sg36
g24
sg37
g93
sg39
g35
sg40
S'09/22'
p1290
sg42
S'Philip Rivers'
p1291
sg44
S'112.5'
p1292
sg46
S'L17-20'
p1293
sg48
S'2013'
p1294
ssg93
(dp1295
g5
S'47'
p1296
sg7
g93
sg9
S'3.7'
p1297
sg11
S'76.6'
p1298
sg13
g38
sg15
S'419'
p1299
sg17
S'8.9'
p1300
sg19
S'--'
p1301
sg21
S'@PHI'
p1302
sg23
g24
sg25
S'36'
p1303
sg27
g165
sg29
S'11'
p1304
sg31
g24
sg32
S'--'
p1305
sg34
g35
sg36
g38
sg37
g24
sg39
g35
sg40
S'09/15'
p1306
sg42
S'Philip Rivers'
p1307
sg44
S'124.3'
p1308
sg46
S'W33-30'
p1309
sg48
S'2013'
p1310
ssg84
(dp1311
g5
S'48'
p1312
sg7
g84
sg9
S'--'
p1313
sg11
S'72.9'
p1314
sg13
S'--'
p1315
sg15
S'411'
p1316
sg17
S'8.6'
p1317
sg19
S'--'
p1318
sg21
S'@OAK'
p1319
sg23
g24
sg25
S'35'
p1320
sg27
S'20'
p1321
sg29
S'--'
p1322
sg31
g24
sg32
S'--'
p1323
sg34
S'--'
p1324
sg36
g93
sg37
g93
sg39
g38
sg40
S'10/06'
p1325
sg42
S'Philip Rivers'
p1326
sg44
S'86.4'
p1327
sg46
S'L17-27'
p1328
sg48
S'2013'
p1329
ssg14
(dp1330
g5
S'42'
p1331
sg7
g14
sg9
S'--'
p1332
sg11
S'83.3'
p1333
sg13
S'--'
p1334
sg15
S'401'
p1335
sg17
S'9.5'
p1336
sg19
S'--'
p1337
sg21
S'DAL'
p1338
sg23
g24
sg25
S'35'
p1339
sg27
g258
sg29
S'--'
p1340
sg31
g24
sg32
S'--'
p1341
sg34
S'--'
p1342
sg36
g38
sg37
g24
sg39
g24
sg40
S'09/29'
p1343
sg42
S'Philip Rivers'
p1344
sg44
S'120.3'
p1345
sg46
S'W30-21'
p1346
sg48
S'2013'
p1347
ssg258
(dp1348
g5
S'26'
p1349
sg7
g258
sg9
S'2.0'
p1350
sg11
S'84.6'
p1351
sg13
g93
sg15
S'285'
p1352
sg17
S'11.0'
p1353
sg19
S'--'
p1354
sg21
S'@JAC'
p1355
sg23
g24
sg25
S'22'
p1356
sg27
g91
sg29
g14
sg31
g24
sg32
S'--'
p1357
sg34
g35
sg36
g24
sg37
g24
sg39
g35
sg40
S'10/20'
p1358
sg42
S'Philip Rivers'
p1359
sg44
S'125.2'
p1360
sg46
S'W24-6'
p1361
sg48
S'2013'
p1362
ssg165
(dp1363
g5
S'33'
p1364
sg7
g165
sg9
S'-1.0'
p1365
sg11
S'66.7'
p1366
sg13
g24
sg15
S'237'
p1367
sg17
S'7.2'
p1368
sg19
S'--'
p1369
sg21
S'IND'
p1370
sg23
g24
sg25
S'22'
p1371
sg27
S'10'
p1372
sg29
S'-1'
p1373
sg31
g24
sg32
S'--'
p1374
sg34
g35
sg36
g24
sg37
g93
sg39
g35
sg40
S'10/14'
p1375
sg42
S'Philip Rivers'
p1376
sg44
S'97.7'
p1377
sg46
S'W19-9'
p1378
sg48
S'2013'
p1379
ssg91
(dp1380
g5
S'46'
p1381
sg7
g91
sg9
S'7.0'
p1382
sg11
S'63.0'
p1383
sg13
g93
sg15
S'341'
p1384
sg17
S'7.4'
p1385
sg19
S'--'
p1386
sg21
S'@WAS'
p1387
sg23
g24
sg25
S'29'
p1388
sg27
g35
sg29
S'14'
p1389
sg31
g24
sg32
S'--'
p1390
sg34
g35
sg36
g93
sg37
g24
sg39
g93
sg40
S'11/03'
p1391
sg42
S'Philip Rivers'
p1392
sg44
S'81.9'
p1393
sg46
S'L24-30'
p1394
sg48
S'2013'
p1395
ssg30
(dp1396
g5
g52
sg7
g30
sg9
g52
sg11
g52
sg13
g52
sg15
g52
sg17
g52
sg19
g52
sg21
g52
sg23
g52
sg25
g52
sg27
g52
sg29
g52
sg31
g52
sg32
g52
sg34
g52
sg36
g52
sg37
g52
sg39
g52
sg40
S'Bye'
p1397
sg42
S'Philip Rivers'
p1398
sg44
g52
sg46
g52
sg48
S'2013'
p1399
sssS'2012'
p1400
(dp1401
g3
(dp1402
g5
S'40'
p1403
sg7
S'11'
p1404
sg9
S'--'
p1405
sg11
S'60.0'
p1406
sg13
S'--'
p1407
sg15
S'258'
p1408
sg17
S'6.5'
p1409
sg19
g38
sg21
S'@DEN'
p1410
sg23
g24
sg25
S'24'
p1411
sg27
S'34'
p1412
sg29
S'--'
p1413
sg31
g24
sg32
g24
sg34
S'--'
p1414
sg36
g93
sg37
g14
sg39
g93
sg40
S'11/18'
p1415
sg42
S'Philip Rivers'
p1416
sg44
S'74.8'
p1417
sg46
S'L23-30'
p1418
sg48
S'2012'
p1419
ssg50
(dp1420
g5
S'37'
p1421
sg7
S'10'
p1422
sg9
S'2.5'
p1423
sg11
S'78.4'
p1424
sg13
g93
sg15
S'337'
p1425
sg17
S'9.1'
p1426
sg19
S'--'
p1427
sg21
S'@TB'
p1428
sg23
g24
sg25
S'29'
p1429
sg27
S'14'
p1430
sg29
g84
sg31
g24
sg32
S'--'
p1431
sg34
g35
sg36
g38
sg37
g93
sg39
g93
sg40
S'11/11'
p1432
sg42
S'Philip Rivers'
p1433
sg44
S'109.1'
p1434
sg46
S'L24-34'
p1435
sg48
S'2012'
p1436
ssg57
(dp1437
g5
S'48'
p1438
sg7
S'13'
p1439
sg9
S'10.0'
p1440
sg11
S'54.2'
p1441
sg13
g93
sg15
S'280'
p1442
sg17
S'5.8'
p1443
sg19
g93
sg21
S'CIN'
p1444
sg23
g24
sg25
S'26'
p1445
sg27
S'29'
p1446
sg29
S'20'
p1447
sg31
g24
sg32
g24
sg34
g35
sg36
g35
sg37
g14
sg39
g24
sg40
S'12/02'
p1448
sg42
S'Philip Rivers'
p1449
sg44
S'62.8'
p1450
sg46
S'L13-20'
p1451
sg48
S'2012'
p1452
ssg78
(dp1453
g5
S'36'
p1454
sg7
S'12'
p1455
sg9
S'--'
p1456
sg11
S'63.9'
p1457
sg13
S'--'
p1458
sg15
S'228'
p1459
sg17
S'6.3'
p1460
sg19
S'--'
p1461
sg21
S'BAL'
p1462
sg23
g24
sg25
S'23'
p1463
sg27
S'39'
p1464
sg29
S'--'
p1465
sg31
g24
sg32
S'--'
p1466
sg34
S'--'
p1467
sg36
g24
sg37
g165
sg39
g35
sg40
S'11/25'
p1468
sg42
S'Philip Rivers'
p1469
sg44
S'91.0'
p1470
sg46
S'L13-16'
p1471
sg48
S'2012'
p1472
ssg99
(dp1473
g5
S'23'
p1474
sg7
S'15'
p1475
sg9
S'1.3'
p1476
sg11
S'69.6'
p1477
sg13
g38
sg15
S'121'
p1478
sg17
S'5.3'
p1479
sg19
g14
sg21
S'CAR'
p1480
sg23
g24
sg25
S'16'
p1481
sg27
S'27'
p1482
sg29
g14
sg31
g24
sg32
g93
sg34
g35
sg36
g24
sg37
g165
sg39
g35
sg40
S'12/16'
p1483
sg42
S'Philip Rivers'
p1484
sg44
S'96.5'
p1485
sg46
S'L7-31'
p1486
sg48
S'2012'
p1487
ssg119
(dp1488
g5
S'41'
p1489
sg7
S'14'
p1490
sg9
S'1.0'
p1491
sg11
S'51.2'
p1492
sg13
g38
sg15
S'200'
p1493
sg17
S'4.9'
p1494
sg19
S'--'
p1495
sg21
S'@PIT'
p1496
sg23
g24
sg25
S'21'
p1497
sg27
g35
sg29
g38
sg31
g24
sg32
S'--'
p1498
sg34
g35
sg36
g38
sg37
g24
sg39
g35
sg40
S'12/09'
p1499
sg42
S'Philip Rivers'
p1500
sg44
S'89.5'
p1501
sg46
S'W34-24'
p1502
sg48
S'2012'
p1503
ssg137
(dp1504
g5
S'17'
p1505
sg7
S'17'
p1506
sg9
S'-1.0'
p1507
sg11
S'76.5'
p1508
sg13
g38
sg15
S'151'
p1509
sg17
S'8.9'
p1510
sg19
S'--'
p1511
sg21
S'OAK'
p1512
sg23
g24
sg25
S'13'
p1513
sg27
S'11'
p1514
sg29
S'-3'
p1515
sg31
g24
sg32
S'--'
p1516
sg34
g35
sg36
g93
sg37
g93
sg39
g35
sg40
S'12/30'
p1517
sg42
S'Philip Rivers'
p1518
sg44
S'142.0'
p1519
sg46
S'W24-21'
p1520
sg48
S'2012'
p1521
ssg153
(dp1522
g5
S'22'
p1523
sg7
S'16'
p1524
sg9
S'0.8'
p1525
sg11
S'50.0'
p1526
sg13
g84
sg15
S'165'
p1527
sg17
S'7.5'
p1528
sg19
S'--'
p1529
sg21
S'@NYJ'
p1530
sg23
g24
sg25
S'11'
p1531
sg27
S'29'
p1532
sg29
g14
sg31
g24
sg32
S'--'
p1533
sg34
g35
sg36
g93
sg37
g14
sg39
g35
sg40
S'12/23'
p1534
sg42
S'Philip Rivers'
p1535
sg44
S'105.3'
p1536
sg46
S'W27-17'
p1537
sg48
S'2012'
p1538
ssg24
(dp1539
g5
S'33'
p1540
sg7
g24
sg9
S'-2.0'
p1541
sg11
S'72.7'
p1542
sg13
g24
sg15
S'231'
p1543
sg17
S'7.0'
p1544
sg19
S'--'
p1545
sg21
S'@OAK'
p1546
sg23
g24
sg25
S'24'
p1547
sg27
g84
sg29
S'-2'
p1548
sg31
g24
sg32
S'--'
p1549
sg34
g35
sg36
g24
sg37
g24
sg39
g35
sg40
S'09/10'
p1550
sg42
S'Philip Rivers'
p1551
sg44
S'102.0'
p1552
sg46
S'W22-14'
p1553
sg48
S'2012'
p1554
ssg38
(dp1555
g5
S'38'
p1556
sg7
g38
sg9
S'1.0'
p1557
sg11
S'55.3'
p1558
sg13
g93
sg15
S'173'
p1559
sg17
S'4.6'
p1560
sg19
S'--'
p1561
sg21
S'ATL'
p1562
sg23
g24
sg25
S'21'
p1563
sg27
g91
sg29
g93
sg31
g24
sg32
S'--'
p1564
sg34
g35
sg36
g35
sg37
g24
sg39
g93
sg40
S'09/23'
p1565
sg42
S'Philip Rivers'
p1566
sg44
S'45.2'
p1567
sg46
S'L3-27'
p1568
sg48
S'2012'
p1569
ssg93
(dp1570
g5
S'32'
p1571
sg7
g93
sg9
S'9.0'
p1572
sg11
S'75.0'
p1573
sg13
g24
sg15
S'284'
p1574
sg17
S'8.9'
p1575
sg19
g93
sg21
S'TEN'
p1576
sg23
g24
sg25
S'24'
p1577
sg27
S'16'
p1578
sg29
g91
sg31
g24
sg32
g35
sg34
g35
sg36
g38
sg37
g14
sg39
g24
sg40
S'09/16'
p1579
sg42
S'Philip Rivers'
p1580
sg44
S'119.8'
p1581
sg46
S'W38-10'
p1582
sg48
S'2012'
p1583
ssg84
(dp1584
g5
S'42'
p1585
sg7
g84
sg9
S'--'
p1586
sg11
S'64.3'
p1587
sg13
S'--'
p1588
sg15
S'354'
p1589
sg17
S'8.4'
p1590
sg19
g24
sg21
S'@NO'
p1591
sg23
g24
sg25
S'27'
p1592
sg27
S'44'
p1593
sg29
S'--'
p1594
sg31
g24
sg32
g24
sg34
S'--'
p1595
sg36
g93
sg37
g84
sg39
g24
sg40
S'10/07'
p1596
sg42
S'Philip Rivers'
p1597
sg44
S'96.7'
p1598
sg46
S'L24-31'
p1599
sg48
S'2012'
p1600
ssg14
(dp1601
g5
S'23'
p1602
sg7
g14
sg9
S'0.0'
p1603
sg11
S'78.3'
p1604
sg13
g38
sg15
S'209'
p1605
sg17
S'9.1'
p1606
sg19
g24
sg21
S'@KC'
p1607
sg23
g24
sg25
S'18'
p1608
sg27
S'20'
p1609
sg29
g35
sg31
g24
sg32
g35
sg34
g35
sg36
g93
sg37
g38
sg39
g24
sg40
S'09/30'
p1610
sg42
S'Philip Rivers'
p1611
sg44
S'115.4'
p1612
sg46
S'W37-20'
p1613
sg48
S'2012'
p1614
ssg258
(dp1615
g5
g52
sg7
g258
sg9
g52
sg11
g52
sg13
g52
sg15
g52
sg17
g52
sg19
g52
sg21
g52
sg23
g52
sg25
g52
sg27
g52
sg29
g52
sg31
g52
sg32
g52
sg34
g52
sg36
g52
sg37
g52
sg39
g52
sg40
S'Bye'
p1616
sg42
S'Philip Rivers'
p1617
sg44
g52
sg46
g52
sg48
S'2012'
p1618
ssg165
(dp1619
g5
S'41'
p1620
sg7
g165
sg9
S'--'
p1621
sg11
S'61.0'
p1622
sg13
S'--'
p1623
sg15
S'241'
p1624
sg17
S'5.9'
p1625
sg19
g93
sg21
S'DEN'
p1626
sg23
g24
sg25
S'25'
p1627
sg27
S'24'
p1628
sg29
S'--'
p1629
sg31
g24
sg32
g93
sg34
S'--'
p1630
sg36
g93
sg37
g14
sg39
g14
sg40
S'10/15'
p1631
sg42
S'Philip Rivers'
p1632
sg44
S'54.1'
p1633
sg46
S'L24-35'
p1634
sg48
S'2012'
p1635
ssg91
(dp1636
g5
S'20'
p1637
sg7
g91
sg9
S'-1.0'
p1638
sg11
S'90.0'
p1639
sg13
g93
sg15
S'220'
p1640
sg17
S'11.0'
p1641
sg19
S'--'
p1642
sg21
S'KC'
p1643
sg23
g24
sg25
S'18'
p1644
sg27
g14
sg29
S'-2'
p1645
sg31
g24
sg32
S'--'
p1646
sg34
g35
sg36
g93
sg37
g24
sg39
g24
sg40
S'11/01'
p1647
sg42
S'Philip Rivers'
p1648
sg44
S'125.0'
p1649
sg46
S'W31-13'
p1650
sg48
S'2012'
p1651
ssg30
(dp1652
g5
S'34'
p1653
sg7
g30
sg9
S'--'
p1654
sg11
S'52.9'
p1655
sg13
S'--'
p1656
sg15
S'154'
p1657
sg17
S'4.5'
p1658
sg19
S'--'
p1659
sg21
S'@CLE'
p1660
sg23
g24
sg25
S'18'
p1661
sg27
g165
sg29
S'--'
p1662
sg31
g24
sg32
S'--'
p1663
sg34
S'--'
p1664
sg36
g35
sg37
g24
sg39
g35
sg40
S'10/28'
p1665
sg42
S'Philip Rivers'
p1666
sg44
S'65.1'
p1667
sg46
S'L6-7'
p1668
sg48
S'2012'
p1669
sss.