(dp0
S'2015'
p1
(dp2
S'11'
p3
(dp4
S'PassAtt'
p5
S''
p6
sS'WK'
p7
S'11'
p8
sS'RushAvg'
p9
g6
sS'Pct'
p10
g6
sS'RushAtt'
p11
g6
sS'PassYds'
p12
g6
sS'PassAvg'
p13
g6
sS'FUM'
p14
g6
sS'Opp'
p15
g6
sS'G'
p16
g6
sS'Comp'
p17
g6
sS'SckY'
p18
g6
sS'RushYds'
p19
g6
sS'GS'
p20
g6
sS'Lost'
p21
g6
sS'RushTD'
p22
g6
sS'PassTD'
p23
g6
sS'Sck'
p24
g6
sS'Int'
p25
g6
sS'Game Date'
p26
S'Bye'
p27
sS'Player'
p28
S'Ryan Nassib'
p29
sS'Rate'
p30
g6
sS'Result'
p31
g6
sS'Year'
p32
S'2015'
p33
ssS'10'
p34
(dp35
g5
S'--'
p36
sg7
S'10'
p37
sg9
S'--'
p38
sg10
S'--'
p39
sg11
S'--'
p40
sg12
S'--'
p41
sg13
S'--'
p42
sg14
S'--'
p43
sg15
S'NE'
p44
sg16
S'0'
p45
sg17
S'--'
p46
sg18
S'--'
p47
sg19
S'--'
p48
sg20
g45
sg21
S'--'
p49
sg22
S'--'
p50
sg23
S'--'
p51
sg24
S'--'
p52
sg25
S'--'
p53
sg26
S'11/15'
p54
sg28
S'Ryan Nassib'
p55
sg30
S'0.0'
p56
sg31
S'L26-27'
p57
sg32
S'2015'
p58
ssS'13'
p59
(dp60
g5
S'--'
p61
sg7
S'13'
p62
sg9
S'--'
p63
sg10
S'--'
p64
sg11
S'--'
p65
sg12
S'--'
p66
sg13
S'--'
p67
sg14
S'--'
p68
sg15
S'NYJ'
p69
sg16
g45
sg17
S'--'
p70
sg18
S'--'
p71
sg19
S'--'
p72
sg20
g45
sg21
S'--'
p73
sg22
S'--'
p74
sg23
S'--'
p75
sg24
S'--'
p76
sg25
S'--'
p77
sg26
S'12/06'
p78
sg28
S'Ryan Nassib'
p79
sg30
S'0.0'
p80
sg31
S'L20-23'
p81
sg32
S'2015'
p82
ssS'12'
p83
(dp84
g5
S'--'
p85
sg7
S'12'
p86
sg9
S'--'
p87
sg10
S'--'
p88
sg11
S'--'
p89
sg12
S'--'
p90
sg13
S'--'
p91
sg14
S'--'
p92
sg15
S'@WAS'
p93
sg16
g45
sg17
S'--'
p94
sg18
S'--'
p95
sg19
S'--'
p96
sg20
g45
sg21
S'--'
p97
sg22
S'--'
p98
sg23
S'--'
p99
sg24
S'--'
p100
sg25
S'--'
p101
sg26
S'11/29'
p102
sg28
S'Ryan Nassib'
p103
sg30
S'0.0'
p104
sg31
S'L14-20'
p105
sg32
S'2015'
p106
ssS'15'
p107
(dp108
g5
S'--'
p109
sg7
S'15'
p110
sg9
S'--'
p111
sg10
S'--'
p112
sg11
S'--'
p113
sg12
S'--'
p114
sg13
S'--'
p115
sg14
S'--'
p116
sg15
S'CAR'
p117
sg16
g45
sg17
S'--'
p118
sg18
S'--'
p119
sg19
S'--'
p120
sg20
g45
sg21
S'--'
p121
sg22
S'--'
p122
sg23
S'--'
p123
sg24
S'--'
p124
sg25
S'--'
p125
sg26
S'12/20'
p126
sg28
S'Ryan Nassib'
p127
sg30
S'0.0'
p128
sg31
S'L35-38'
p129
sg32
S'2015'
p130
ssS'14'
p131
(dp132
g5
S'--'
p133
sg7
S'14'
p134
sg9
S'--'
p135
sg10
S'--'
p136
sg11
S'--'
p137
sg12
S'--'
p138
sg13
S'--'
p139
sg14
S'--'
p140
sg15
S'@MIA'
p141
sg16
g45
sg17
S'--'
p142
sg18
S'--'
p143
sg19
S'--'
p144
sg20
g45
sg21
S'--'
p145
sg22
S'--'
p146
sg23
S'--'
p147
sg24
S'--'
p148
sg25
S'--'
p149
sg26
S'12/14'
p150
sg28
S'Ryan Nassib'
p151
sg30
S'0.0'
p152
sg31
S'W31-24'
p153
sg32
S'2015'
p154
ssS'17'
p155
(dp156
g5
S'--'
p157
sg7
S'17'
p158
sg9
S'--'
p159
sg10
S'--'
p160
sg11
S'--'
p161
sg12
S'--'
p162
sg13
S'--'
p163
sg14
S'--'
p164
sg15
S'PHI'
p165
sg16
g45
sg17
S'--'
p166
sg18
S'--'
p167
sg19
S'--'
p168
sg20
g45
sg21
S'--'
p169
sg22
S'--'
p170
sg23
S'--'
p171
sg24
S'--'
p172
sg25
S'--'
p173
sg26
S'01/03'
p174
sg28
S'Ryan Nassib'
p175
sg30
S'0.0'
p176
sg31
S'L30-35'
p177
sg32
S'2015'
p178
ssS'16'
p179
(dp180
g5
S'5'
p181
sg7
S'16'
p182
sg9
S'--'
p183
sg10
S'100.0'
p184
sg11
S'--'
p185
sg12
S'68'
p186
sg13
S'13.6'
p187
sg14
S'--'
p188
sg15
S'@MIN'
p189
sg16
S'1'
p190
sg17
g181
sg18
g45
sg19
S'--'
p191
sg20
g45
sg21
S'--'
p192
sg22
S'--'
p193
sg23
g190
sg24
g45
sg25
g45
sg26
S'12/27'
p194
sg28
S'Ryan Nassib'
p195
sg30
S'158.3'
p196
sg31
S'L17-49'
p197
sg32
S'2015'
p198
ssg190
(dp199
g5
S'--'
p200
sg7
g190
sg9
S'--'
p201
sg10
S'--'
p202
sg11
S'--'
p203
sg12
S'--'
p204
sg13
S'--'
p205
sg14
S'--'
p206
sg15
S'@DAL'
p207
sg16
g45
sg17
S'--'
p208
sg18
S'--'
p209
sg19
S'--'
p210
sg20
g45
sg21
S'--'
p211
sg22
S'--'
p212
sg23
S'--'
p213
sg24
S'--'
p214
sg25
S'--'
p215
sg26
S'09/13'
p216
sg28
S'Ryan Nassib'
p217
sg30
S'0.0'
p218
sg31
S'L26-27'
p219
sg32
S'2015'
p220
ssS'3'
p221
(dp222
g5
S'--'
p223
sg7
g221
sg9
S'--'
p224
sg10
S'--'
p225
sg11
S'--'
p226
sg12
S'--'
p227
sg13
S'--'
p228
sg14
S'--'
p229
sg15
S'WAS'
p230
sg16
g45
sg17
S'--'
p231
sg18
S'--'
p232
sg19
S'--'
p233
sg20
g45
sg21
S'--'
p234
sg22
S'--'
p235
sg23
S'--'
p236
sg24
S'--'
p237
sg25
S'--'
p238
sg26
S'09/24'
p239
sg28
S'Ryan Nassib'
p240
sg30
S'0.0'
p241
sg31
S'W32-21'
p242
sg32
S'2015'
p243
ssS'2'
p244
(dp245
g5
S'--'
p246
sg7
g244
sg9
S'--'
p247
sg10
S'--'
p248
sg11
S'--'
p249
sg12
S'--'
p250
sg13
S'--'
p251
sg14
S'--'
p252
sg15
S'ATL'
p253
sg16
g45
sg17
S'--'
p254
sg18
S'--'
p255
sg19
S'--'
p256
sg20
g45
sg21
S'--'
p257
sg22
S'--'
p258
sg23
S'--'
p259
sg24
S'--'
p260
sg25
S'--'
p261
sg26
S'09/20'
p262
sg28
S'Ryan Nassib'
p263
sg30
S'0.0'
p264
sg31
S'L20-24'
p265
sg32
S'2015'
p266
ssg181
(dp267
g5
S'--'
p268
sg7
g181
sg9
S'--'
p269
sg10
S'--'
p270
sg11
S'--'
p271
sg12
S'--'
p272
sg13
S'--'
p273
sg14
S'--'
p274
sg15
S'SF'
p275
sg16
g45
sg17
S'--'
p276
sg18
S'--'
p277
sg19
S'--'
p278
sg20
g45
sg21
S'--'
p279
sg22
S'--'
p280
sg23
S'--'
p281
sg24
S'--'
p282
sg25
S'--'
p283
sg26
S'10/11'
p284
sg28
S'Ryan Nassib'
p285
sg30
S'0.0'
p286
sg31
S'W30-27'
p287
sg32
S'2015'
p288
ssS'4'
p289
(dp290
g5
S'--'
p291
sg7
g289
sg9
S'--'
p292
sg10
S'--'
p293
sg11
S'--'
p294
sg12
S'--'
p295
sg13
S'--'
p296
sg14
S'--'
p297
sg15
S'@BUF'
p298
sg16
g45
sg17
S'--'
p299
sg18
S'--'
p300
sg19
S'--'
p301
sg20
g45
sg21
S'--'
p302
sg22
S'--'
p303
sg23
S'--'
p304
sg24
S'--'
p305
sg25
S'--'
p306
sg26
S'10/04'
p307
sg28
S'Ryan Nassib'
p308
sg30
S'0.0'
p309
sg31
S'W24-10'
p310
sg32
S'2015'
p311
ssS'7'
p312
(dp313
g5
S'--'
p314
sg7
g312
sg9
S'--'
p315
sg10
S'--'
p316
sg11
S'--'
p317
sg12
S'--'
p318
sg13
S'--'
p319
sg14
S'--'
p320
sg15
S'DAL'
p321
sg16
g45
sg17
S'--'
p322
sg18
S'--'
p323
sg19
S'--'
p324
sg20
g45
sg21
S'--'
p325
sg22
S'--'
p326
sg23
S'--'
p327
sg24
S'--'
p328
sg25
S'--'
p329
sg26
S'10/25'
p330
sg28
S'Ryan Nassib'
p331
sg30
S'0.0'
p332
sg31
S'W27-20'
p333
sg32
S'2015'
p334
ssS'6'
p335
(dp336
g5
S'--'
p337
sg7
g335
sg9
S'--'
p338
sg10
S'--'
p339
sg11
S'--'
p340
sg12
S'--'
p341
sg13
S'--'
p342
sg14
S'--'
p343
sg15
S'@PHI'
p344
sg16
g45
sg17
S'--'
p345
sg18
S'--'
p346
sg19
S'--'
p347
sg20
g45
sg21
S'--'
p348
sg22
S'--'
p349
sg23
S'--'
p350
sg24
S'--'
p351
sg25
S'--'
p352
sg26
S'10/19'
p353
sg28
S'Ryan Nassib'
p354
sg30
S'0.0'
p355
sg31
S'L7-27'
p356
sg32
S'2015'
p357
ssS'9'
p358
(dp359
g5
S'--'
p360
sg7
g358
sg9
S'--'
p361
sg10
S'--'
p362
sg11
S'--'
p363
sg12
S'--'
p364
sg13
S'--'
p365
sg14
S'--'
p366
sg15
S'@TB'
p367
sg16
g45
sg17
S'--'
p368
sg18
S'--'
p369
sg19
S'--'
p370
sg20
g45
sg21
S'--'
p371
sg22
S'--'
p372
sg23
S'--'
p373
sg24
S'--'
p374
sg25
S'--'
p375
sg26
S'11/08'
p376
sg28
S'Ryan Nassib'
p377
sg30
S'0.0'
p378
sg31
S'W32-18'
p379
sg32
S'2015'
p380
ssS'8'
p381
(dp382
g5
S'--'
p383
sg7
g381
sg9
S'--'
p384
sg10
S'--'
p385
sg11
S'--'
p386
sg12
S'--'
p387
sg13
S'--'
p388
sg14
S'--'
p389
sg15
S'@NO'
p390
sg16
g45
sg17
S'--'
p391
sg18
S'--'
p392
sg19
S'--'
p393
sg20
g45
sg21
S'--'
p394
sg22
S'--'
p395
sg23
S'--'
p396
sg24
S'--'
p397
sg25
S'--'
p398
sg26
S'11/01'
p399
sg28
S'Ryan Nassib'
p400
sg30
S'0.0'
p401
sg31
S'L49-52'
p402
sg32
S'2015'
p403
sssS'2014'
p404
(dp405
g3
(dp406
g5
S'--'
p407
sg7
S'11'
p408
sg9
S'--'
p409
sg10
S'--'
p410
sg11
S'--'
p411
sg12
S'--'
p412
sg13
S'--'
p413
sg14
S'--'
p414
sg15
S'SF'
p415
sg16
g45
sg17
S'--'
p416
sg18
S'--'
p417
sg19
S'--'
p418
sg20
g45
sg21
S'--'
p419
sg22
S'--'
p420
sg23
S'--'
p421
sg24
S'--'
p422
sg25
S'--'
p423
sg26
S'11/16'
p424
sg28
S'Ryan Nassib'
p425
sg30
S'0.0'
p426
sg31
S'L10-16'
p427
sg32
S'2014'
p428
ssg34
(dp429
g5
S'--'
p430
sg7
S'10'
p431
sg9
S'--'
p432
sg10
S'--'
p433
sg11
S'--'
p434
sg12
S'--'
p435
sg13
S'--'
p436
sg14
S'--'
p437
sg15
S'@SEA'
p438
sg16
g45
sg17
S'--'
p439
sg18
S'--'
p440
sg19
S'--'
p441
sg20
g45
sg21
S'--'
p442
sg22
S'--'
p443
sg23
S'--'
p444
sg24
S'--'
p445
sg25
S'--'
p446
sg26
S'11/09'
p447
sg28
S'Ryan Nassib'
p448
sg30
S'0.0'
p449
sg31
S'L17-38'
p450
sg32
S'2014'
p451
ssg59
(dp452
g5
S'--'
p453
sg7
S'13'
p454
sg9
S'--'
p455
sg10
S'--'
p456
sg11
S'--'
p457
sg12
S'--'
p458
sg13
S'--'
p459
sg14
S'--'
p460
sg15
S'@JAC'
p461
sg16
g45
sg17
S'--'
p462
sg18
S'--'
p463
sg19
S'--'
p464
sg20
g45
sg21
S'--'
p465
sg22
S'--'
p466
sg23
S'--'
p467
sg24
S'--'
p468
sg25
S'--'
p469
sg26
S'11/30'
p470
sg28
S'Ryan Nassib'
p471
sg30
S'0.0'
p472
sg31
S'L24-25'
p473
sg32
S'2014'
p474
ssg83
(dp475
g5
S'--'
p476
sg7
S'12'
p477
sg9
S'--'
p478
sg10
S'--'
p479
sg11
S'--'
p480
sg12
S'--'
p481
sg13
S'--'
p482
sg14
S'--'
p483
sg15
S'DAL'
p484
sg16
g45
sg17
S'--'
p485
sg18
S'--'
p486
sg19
S'--'
p487
sg20
g45
sg21
S'--'
p488
sg22
S'--'
p489
sg23
S'--'
p490
sg24
S'--'
p491
sg25
S'--'
p492
sg26
S'11/23'
p493
sg28
S'Ryan Nassib'
p494
sg30
S'0.0'
p495
sg31
S'L28-31'
p496
sg32
S'2014'
p497
ssg107
(dp498
g5
S'--'
p499
sg7
S'15'
p500
sg9
S'--'
p501
sg10
S'--'
p502
sg11
S'--'
p503
sg12
S'--'
p504
sg13
S'--'
p505
sg14
S'--'
p506
sg15
S'WAS'
p507
sg16
g45
sg17
S'--'
p508
sg18
S'--'
p509
sg19
S'--'
p510
sg20
g45
sg21
S'--'
p511
sg22
S'--'
p512
sg23
S'--'
p513
sg24
S'--'
p514
sg25
S'--'
p515
sg26
S'12/14'
p516
sg28
S'Ryan Nassib'
p517
sg30
S'0.0'
p518
sg31
S'W24-13'
p519
sg32
S'2014'
p520
ssg131
(dp521
g5
S'--'
p522
sg7
S'14'
p523
sg9
S'-1.5'
p524
sg10
S'--'
p525
sg11
g244
sg12
S'--'
p526
sg13
S'--'
p527
sg14
S'--'
p528
sg15
S'@TEN'
p529
sg16
g190
sg17
S'--'
p530
sg18
S'--'
p531
sg19
S'-3'
p532
sg20
g45
sg21
S'--'
p533
sg22
g45
sg23
S'--'
p534
sg24
S'--'
p535
sg25
S'--'
p536
sg26
S'12/07'
p537
sg28
S'Ryan Nassib'
p538
sg30
S'0.0'
p539
sg31
S'W36-7'
p540
sg32
S'2014'
p541
ssg155
(dp542
g5
S'--'
p543
sg7
S'17'
p544
sg9
S'--'
p545
sg10
S'--'
p546
sg11
S'--'
p547
sg12
S'--'
p548
sg13
S'--'
p549
sg14
S'--'
p550
sg15
S'PHI'
p551
sg16
g45
sg17
S'--'
p552
sg18
S'--'
p553
sg19
S'--'
p554
sg20
g45
sg21
S'--'
p555
sg22
S'--'
p556
sg23
S'--'
p557
sg24
S'--'
p558
sg25
S'--'
p559
sg26
S'12/28'
p560
sg28
S'Ryan Nassib'
p561
sg30
S'0.0'
p562
sg31
S'L26-34'
p563
sg32
S'2014'
p564
ssg179
(dp565
g5
S'--'
p566
sg7
S'16'
p567
sg9
S'--'
p568
sg10
S'--'
p569
sg11
S'--'
p570
sg12
S'--'
p571
sg13
S'--'
p572
sg14
S'--'
p573
sg15
S'@STL'
p574
sg16
g45
sg17
S'--'
p575
sg18
S'--'
p576
sg19
S'--'
p577
sg20
g45
sg21
S'--'
p578
sg22
S'--'
p579
sg23
S'--'
p580
sg24
S'--'
p581
sg25
S'--'
p582
sg26
S'12/21'
p583
sg28
S'Ryan Nassib'
p584
sg30
S'0.0'
p585
sg31
S'W37-27'
p586
sg32
S'2014'
p587
ssg190
(dp588
g5
S'--'
p589
sg7
g190
sg9
S'--'
p590
sg10
S'--'
p591
sg11
S'--'
p592
sg12
S'--'
p593
sg13
S'--'
p594
sg14
S'--'
p595
sg15
S'@DET'
p596
sg16
g45
sg17
S'--'
p597
sg18
S'--'
p598
sg19
S'--'
p599
sg20
g45
sg21
S'--'
p600
sg22
S'--'
p601
sg23
S'--'
p602
sg24
S'--'
p603
sg25
S'--'
p604
sg26
S'09/08'
p605
sg28
S'Ryan Nassib'
p606
sg30
S'0.0'
p607
sg31
S'L14-35'
p608
sg32
S'2014'
p609
ssg221
(dp610
g5
S'--'
p611
sg7
g221
sg9
S'--'
p612
sg10
S'--'
p613
sg11
S'--'
p614
sg12
S'--'
p615
sg13
S'--'
p616
sg14
S'--'
p617
sg15
S'HOU'
p618
sg16
g45
sg17
S'--'
p619
sg18
S'--'
p620
sg19
S'--'
p621
sg20
g45
sg21
S'--'
p622
sg22
S'--'
p623
sg23
S'--'
p624
sg24
S'--'
p625
sg25
S'--'
p626
sg26
S'09/21'
p627
sg28
S'Ryan Nassib'
p628
sg30
S'0.0'
p629
sg31
S'W30-17'
p630
sg32
S'2014'
p631
ssg244
(dp632
g5
S'--'
p633
sg7
g244
sg9
S'--'
p634
sg10
S'--'
p635
sg11
S'--'
p636
sg12
S'--'
p637
sg13
S'--'
p638
sg14
S'--'
p639
sg15
S'ARI'
p640
sg16
g45
sg17
S'--'
p641
sg18
S'--'
p642
sg19
S'--'
p643
sg20
g45
sg21
S'--'
p644
sg22
S'--'
p645
sg23
S'--'
p646
sg24
S'--'
p647
sg25
S'--'
p648
sg26
S'09/14'
p649
sg28
S'Ryan Nassib'
p650
sg30
S'0.0'
p651
sg31
S'L14-25'
p652
sg32
S'2014'
p653
ssg181
(dp654
g5
S'--'
p655
sg7
g181
sg9
S'--'
p656
sg10
S'--'
p657
sg11
S'--'
p658
sg12
S'--'
p659
sg13
S'--'
p660
sg14
S'--'
p661
sg15
S'ATL'
p662
sg16
g45
sg17
S'--'
p663
sg18
S'--'
p664
sg19
S'--'
p665
sg20
g45
sg21
S'--'
p666
sg22
S'--'
p667
sg23
S'--'
p668
sg24
S'--'
p669
sg25
S'--'
p670
sg26
S'10/05'
p671
sg28
S'Ryan Nassib'
p672
sg30
S'0.0'
p673
sg31
S'W30-20'
p674
sg32
S'2014'
p675
ssg289
(dp676
g5
S'--'
p677
sg7
g289
sg9
S'--'
p678
sg10
S'--'
p679
sg11
S'--'
p680
sg12
S'--'
p681
sg13
S'--'
p682
sg14
S'--'
p683
sg15
S'@WAS'
p684
sg16
g190
sg17
S'--'
p685
sg18
S'--'
p686
sg19
S'--'
p687
sg20
g45
sg21
S'--'
p688
sg22
S'--'
p689
sg23
S'--'
p690
sg24
S'--'
p691
sg25
S'--'
p692
sg26
S'09/25'
p693
sg28
S'Ryan Nassib'
p694
sg30
S'0.0'
p695
sg31
S'W45-14'
p696
sg32
S'2014'
p697
ssg312
(dp698
g5
S'--'
p699
sg7
g312
sg9
S'--'
p700
sg10
S'--'
p701
sg11
S'--'
p702
sg12
S'--'
p703
sg13
S'--'
p704
sg14
S'--'
p705
sg15
S'@DAL'
p706
sg16
g45
sg17
S'--'
p707
sg18
S'--'
p708
sg19
S'--'
p709
sg20
g45
sg21
S'--'
p710
sg22
S'--'
p711
sg23
S'--'
p712
sg24
S'--'
p713
sg25
S'--'
p714
sg26
S'10/19'
p715
sg28
S'Ryan Nassib'
p716
sg30
S'0.0'
p717
sg31
S'L21-31'
p718
sg32
S'2014'
p719
ssg335
(dp720
g5
g181
sg7
g335
sg9
S'--'
p721
sg10
S'80.0'
p722
sg11
S'--'
p723
sg12
S'60'
p724
sg13
S'12.0'
p725
sg14
g190
sg15
S'@PHI'
p726
sg16
g190
sg17
g289
sg18
S'11'
p727
sg19
S'--'
p728
sg20
g45
sg21
g45
sg22
S'--'
p729
sg23
g45
sg24
g244
sg25
g45
sg26
S'10/12'
p730
sg28
S'Ryan Nassib'
p731
sg30
S'116.7'
p732
sg31
S'L0-27'
p733
sg32
S'2014'
p734
ssg358
(dp735
g5
S'--'
p736
sg7
g358
sg9
S'--'
p737
sg10
S'--'
p738
sg11
S'--'
p739
sg12
S'--'
p740
sg13
S'--'
p741
sg14
S'--'
p742
sg15
S'IND'
p743
sg16
g190
sg17
S'--'
p744
sg18
S'--'
p745
sg19
S'--'
p746
sg20
g45
sg21
S'--'
p747
sg22
S'--'
p748
sg23
S'--'
p749
sg24
S'--'
p750
sg25
S'--'
p751
sg26
S'11/03'
p752
sg28
S'Ryan Nassib'
p753
sg30
S'0.0'
p754
sg31
S'L24-40'
p755
sg32
S'2014'
p756
ssg381
(dp757
g5
g6
sg7
g381
sg9
g6
sg10
g6
sg11
g6
sg12
g6
sg13
g6
sg14
g6
sg15
g6
sg16
g6
sg17
g6
sg18
g6
sg19
g6
sg20
g6
sg21
g6
sg22
g6
sg23
g6
sg24
g6
sg25
g6
sg26
S'Bye'
p758
sg28
S'Ryan Nassib'
p759
sg30
g6
sg31
g6
sg32
S'2014'
p760
sssS'2013'
p761
(dp762
g3
(dp763
g5
S'--'
p764
sg7
S'11'
p765
sg9
S'--'
p766
sg10
S'--'
p767
sg11
S'--'
p768
sg12
S'--'
p769
sg13
S'--'
p770
sg14
S'--'
p771
sg15
S'GB'
p772
sg16
g45
sg17
S'--'
p773
sg18
S'--'
p774
sg19
S'--'
p775
sg20
g45
sg21
S'--'
p776
sg22
S'--'
p777
sg23
S'--'
p778
sg24
S'--'
p779
sg25
S'--'
p780
sg26
S'11/17'
p781
sg28
S'Ryan Nassib'
p782
sg30
S'0.0'
p783
sg31
S'W27-13'
p784
sg32
S'2013'
p785
ssg34
(dp786
g5
S'--'
p787
sg7
S'10'
p788
sg9
S'--'
p789
sg10
S'--'
p790
sg11
S'--'
p791
sg12
S'--'
p792
sg13
S'--'
p793
sg14
S'--'
p794
sg15
S'OAK'
p795
sg16
g45
sg17
S'--'
p796
sg18
S'--'
p797
sg19
S'--'
p798
sg20
g45
sg21
S'--'
p799
sg22
S'--'
p800
sg23
S'--'
p801
sg24
S'--'
p802
sg25
S'--'
p803
sg26
S'11/10'
p804
sg28
S'Ryan Nassib'
p805
sg30
S'0.0'
p806
sg31
S'W24-20'
p807
sg32
S'2013'
p808
ssg59
(dp809
g5
S'--'
p810
sg7
S'13'
p811
sg9
S'--'
p812
sg10
S'--'
p813
sg11
S'--'
p814
sg12
S'--'
p815
sg13
S'--'
p816
sg14
S'--'
p817
sg15
S'@WAS'
p818
sg16
g45
sg17
S'--'
p819
sg18
S'--'
p820
sg19
S'--'
p821
sg20
g45
sg21
S'--'
p822
sg22
S'--'
p823
sg23
S'--'
p824
sg24
S'--'
p825
sg25
S'--'
p826
sg26
S'12/01'
p827
sg28
S'Ryan Nassib'
p828
sg30
S'0.0'
p829
sg31
S'W24-17'
p830
sg32
S'2013'
p831
ssg83
(dp832
g5
S'--'
p833
sg7
S'12'
p834
sg9
S'--'
p835
sg10
S'--'
p836
sg11
S'--'
p837
sg12
S'--'
p838
sg13
S'--'
p839
sg14
S'--'
p840
sg15
S'DAL'
p841
sg16
g45
sg17
S'--'
p842
sg18
S'--'
p843
sg19
S'--'
p844
sg20
g45
sg21
S'--'
p845
sg22
S'--'
p846
sg23
S'--'
p847
sg24
S'--'
p848
sg25
S'--'
p849
sg26
S'11/24'
p850
sg28
S'Ryan Nassib'
p851
sg30
S'0.0'
p852
sg31
S'L21-24'
p853
sg32
S'2013'
p854
ssg107
(dp855
g5
S'--'
p856
sg7
S'15'
p857
sg9
S'--'
p858
sg10
S'--'
p859
sg11
S'--'
p860
sg12
S'--'
p861
sg13
S'--'
p862
sg14
S'--'
p863
sg15
S'SEA'
p864
sg16
g45
sg17
S'--'
p865
sg18
S'--'
p866
sg19
S'--'
p867
sg20
g45
sg21
S'--'
p868
sg22
S'--'
p869
sg23
S'--'
p870
sg24
S'--'
p871
sg25
S'--'
p872
sg26
S'12/15'
p873
sg28
S'Ryan Nassib'
p874
sg30
S'0.0'
p875
sg31
S'L0-23'
p876
sg32
S'2013'
p877
ssg131
(dp878
g5
S'--'
p879
sg7
S'14'
p880
sg9
S'--'
p881
sg10
S'--'
p882
sg11
S'--'
p883
sg12
S'--'
p884
sg13
S'--'
p885
sg14
S'--'
p886
sg15
S'@SD'
p887
sg16
g45
sg17
S'--'
p888
sg18
S'--'
p889
sg19
S'--'
p890
sg20
g45
sg21
S'--'
p891
sg22
S'--'
p892
sg23
S'--'
p893
sg24
S'--'
p894
sg25
S'--'
p895
sg26
S'12/08'
p896
sg28
S'Ryan Nassib'
p897
sg30
S'0.0'
p898
sg31
S'L14-37'
p899
sg32
S'2013'
p900
ssg155
(dp901
g5
S'--'
p902
sg7
S'17'
p903
sg9
S'--'
p904
sg10
S'--'
p905
sg11
S'--'
p906
sg12
S'--'
p907
sg13
S'--'
p908
sg14
S'--'
p909
sg15
S'WAS'
p910
sg16
g45
sg17
S'--'
p911
sg18
S'--'
p912
sg19
S'--'
p913
sg20
g45
sg21
S'--'
p914
sg22
S'--'
p915
sg23
S'--'
p916
sg24
S'--'
p917
sg25
S'--'
p918
sg26
S'12/29'
p919
sg28
S'Ryan Nassib'
p920
sg30
S'0.0'
p921
sg31
S'W20-6'
p922
sg32
S'2013'
p923
ssg179
(dp924
g5
S'--'
p925
sg7
S'16'
p926
sg9
S'--'
p927
sg10
S'--'
p928
sg11
S'--'
p929
sg12
S'--'
p930
sg13
S'--'
p931
sg14
S'--'
p932
sg15
S'@DET'
p933
sg16
g45
sg17
S'--'
p934
sg18
S'--'
p935
sg19
S'--'
p936
sg20
g45
sg21
S'--'
p937
sg22
S'--'
p938
sg23
S'--'
p939
sg24
S'--'
p940
sg25
S'--'
p941
sg26
S'12/22'
p942
sg28
S'Ryan Nassib'
p943
sg30
S'0.0'
p944
sg31
S'W23-20'
p945
sg32
S'2013'
p946
ssg190
(dp947
g5
S'--'
p948
sg7
g190
sg9
S'--'
p949
sg10
S'--'
p950
sg11
S'--'
p951
sg12
S'--'
p952
sg13
S'--'
p953
sg14
S'--'
p954
sg15
S'@DAL'
p955
sg16
g45
sg17
S'--'
p956
sg18
S'--'
p957
sg19
S'--'
p958
sg20
g45
sg21
S'--'
p959
sg22
S'--'
p960
sg23
S'--'
p961
sg24
S'--'
p962
sg25
S'--'
p963
sg26
S'09/08'
p964
sg28
S'Ryan Nassib'
p965
sg30
S'0.0'
p966
sg31
S'L31-36'
p967
sg32
S'2013'
p968
ssg221
(dp969
g5
S'--'
p970
sg7
g221
sg9
S'--'
p971
sg10
S'--'
p972
sg11
S'--'
p973
sg12
S'--'
p974
sg13
S'--'
p975
sg14
S'--'
p976
sg15
S'@CAR'
p977
sg16
g45
sg17
S'--'
p978
sg18
S'--'
p979
sg19
S'--'
p980
sg20
g45
sg21
S'--'
p981
sg22
S'--'
p982
sg23
S'--'
p983
sg24
S'--'
p984
sg25
S'--'
p985
sg26
S'09/22'
p986
sg28
S'Ryan Nassib'
p987
sg30
S'0.0'
p988
sg31
S'L0-38'
p989
sg32
S'2013'
p990
ssg244
(dp991
g5
S'--'
p992
sg7
g244
sg9
S'--'
p993
sg10
S'--'
p994
sg11
S'--'
p995
sg12
S'--'
p996
sg13
S'--'
p997
sg14
S'--'
p998
sg15
S'DEN'
p999
sg16
g45
sg17
S'--'
p1000
sg18
S'--'
p1001
sg19
S'--'
p1002
sg20
g45
sg21
S'--'
p1003
sg22
S'--'
p1004
sg23
S'--'
p1005
sg24
S'--'
p1006
sg25
S'--'
p1007
sg26
S'09/15'
p1008
sg28
S'Ryan Nassib'
p1009
sg30
S'0.0'
p1010
sg31
S'L23-41'
p1011
sg32
S'2013'
p1012
ssg181
(dp1013
g5
S'--'
p1014
sg7
g181
sg9
S'--'
p1015
sg10
S'--'
p1016
sg11
S'--'
p1017
sg12
S'--'
p1018
sg13
S'--'
p1019
sg14
S'--'
p1020
sg15
S'PHI'
p1021
sg16
g45
sg17
S'--'
p1022
sg18
S'--'
p1023
sg19
S'--'
p1024
sg20
g45
sg21
S'--'
p1025
sg22
S'--'
p1026
sg23
S'--'
p1027
sg24
S'--'
p1028
sg25
S'--'
p1029
sg26
S'10/06'
p1030
sg28
S'Ryan Nassib'
p1031
sg30
S'0.0'
p1032
sg31
S'L21-36'
p1033
sg32
S'2013'
p1034
ssg289
(dp1035
g5
S'--'
p1036
sg7
g289
sg9
S'--'
p1037
sg10
S'--'
p1038
sg11
S'--'
p1039
sg12
S'--'
p1040
sg13
S'--'
p1041
sg14
S'--'
p1042
sg15
S'@KC'
p1043
sg16
g45
sg17
S'--'
p1044
sg18
S'--'
p1045
sg19
S'--'
p1046
sg20
g45
sg21
S'--'
p1047
sg22
S'--'
p1048
sg23
S'--'
p1049
sg24
S'--'
p1050
sg25
S'--'
p1051
sg26
S'09/29'
p1052
sg28
S'Ryan Nassib'
p1053
sg30
S'0.0'
p1054
sg31
S'L7-31'
p1055
sg32
S'2013'
p1056
ssg312
(dp1057
g5
S'--'
p1058
sg7
g312
sg9
S'--'
p1059
sg10
S'--'
p1060
sg11
S'--'
p1061
sg12
S'--'
p1062
sg13
S'--'
p1063
sg14
S'--'
p1064
sg15
S'MIN'
p1065
sg16
g45
sg17
S'--'
p1066
sg18
S'--'
p1067
sg19
S'--'
p1068
sg20
g45
sg21
S'--'
p1069
sg22
S'--'
p1070
sg23
S'--'
p1071
sg24
S'--'
p1072
sg25
S'--'
p1073
sg26
S'10/21'
p1074
sg28
S'Ryan Nassib'
p1075
sg30
S'0.0'
p1076
sg31
S'W23-7'
p1077
sg32
S'2013'
p1078
ssg335
(dp1079
g5
S'--'
p1080
sg7
g335
sg9
S'--'
p1081
sg10
S'--'
p1082
sg11
S'--'
p1083
sg12
S'--'
p1084
sg13
S'--'
p1085
sg14
S'--'
p1086
sg15
S'@CHI'
p1087
sg16
g45
sg17
S'--'
p1088
sg18
S'--'
p1089
sg19
S'--'
p1090
sg20
g45
sg21
S'--'
p1091
sg22
S'--'
p1092
sg23
S'--'
p1093
sg24
S'--'
p1094
sg25
S'--'
p1095
sg26
S'10/10'
p1096
sg28
S'Ryan Nassib'
p1097
sg30
S'0.0'
p1098
sg31
S'L21-27'
p1099
sg32
S'2013'
p1100
ssg358
(dp1101
g5
g6
sg7
g358
sg9
g6
sg10
g6
sg11
g6
sg12
g6
sg13
g6
sg14
g6
sg15
g6
sg16
g6
sg17
g6
sg18
g6
sg19
g6
sg20
g6
sg21
g6
sg22
g6
sg23
g6
sg24
g6
sg25
g6
sg26
S'Bye'
p1102
sg28
S'Ryan Nassib'
p1103
sg30
g6
sg31
g6
sg32
S'2013'
p1104
ssg381
(dp1105
g5
S'--'
p1106
sg7
g381
sg9
S'--'
p1107
sg10
S'--'
p1108
sg11
S'--'
p1109
sg12
S'--'
p1110
sg13
S'--'
p1111
sg14
S'--'
p1112
sg15
S'@PHI'
p1113
sg16
g45
sg17
S'--'
p1114
sg18
S'--'
p1115
sg19
S'--'
p1116
sg20
g45
sg21
S'--'
p1117
sg22
S'--'
p1118
sg23
S'--'
p1119
sg24
S'--'
p1120
sg25
S'--'
p1121
sg26
S'10/27'
p1122
sg28
S'Ryan Nassib'
p1123
sg30
S'0.0'
p1124
sg31
S'W15-7'
p1125
sg32
S'2013'
p1126
sss.