(dp0
S'2015'
p1
(dp2
S'15'
p3
(dp4
S'PassAtt'
p5
S'--'
p6
sS'WK'
p7
S'15'
p8
sS'RushAvg'
p9
S'--'
p10
sS'Pct'
p11
S'--'
p12
sS'RushAtt'
p13
S'--'
p14
sS'PassYds'
p15
S'--'
p16
sS'PassAvg'
p17
S'--'
p18
sS'FUM'
p19
S'--'
p20
sS'Opp'
p21
S'KC'
p22
sS'G'
p23
S'0'
p24
sS'Comp'
p25
S'--'
p26
sS'SckY'
p27
S'--'
p28
sS'RushYds'
p29
S'--'
p30
sS'GS'
p31
g24
sS'Lost'
p32
S'--'
p33
sS'RushTD'
p34
S'--'
p35
sS'PassTD'
p36
S'--'
p37
sS'Sck'
p38
S'--'
p39
sS'Int'
p40
S'--'
p41
sS'Game Date'
p42
S'12/20'
p43
sS'Player'
p44
S'Ryan Mallett'
p45
sS'Rate'
p46
S'0.0'
p47
sS'Result'
p48
S'L14-34'
p49
sS'Year'
p50
S'2015'
p51
ssS'17'
p52
(dp53
g5
S'56'
p54
sg7
S'17'
p55
sg9
S'4.0'
p56
sg11
S'53.6'
p57
sg13
S'1'
p58
sg15
S'292'
p59
sg17
S'5.2'
p60
sg19
S'--'
p61
sg21
S'@CIN'
p62
sg23
g58
sg25
S'30'
p63
sg27
S'10'
p64
sg29
S'4'
p65
sg31
g58
sg32
S'--'
p66
sg34
g24
sg36
g58
sg38
g58
sg40
S'2'
p67
sg42
S'01/03'
p68
sg44
S'Ryan Mallett'
p69
sg46
S'59.5'
p70
sg48
S'L16-24'
p71
sg50
S'2015'
p72
ssS'16'
p73
(dp74
g5
S'41'
p75
sg7
S'16'
p76
sg9
S'--'
p77
sg11
S'68.3'
p78
sg13
S'--'
p79
sg15
S'274'
p80
sg17
S'6.7'
p81
sg19
S'--'
p82
sg21
S'PIT'
p83
sg23
g58
sg25
S'28'
p84
sg27
S'9'
p85
sg29
S'--'
p86
sg31
g58
sg32
S'--'
p87
sg34
S'--'
p88
sg36
g58
sg38
g58
sg40
g24
sg42
S'12/27'
p89
sg44
S'Ryan Mallett'
p90
sg46
S'95.0'
p91
sg48
S'W20-17'
p92
sg50
S'2015'
p93
ssg58
(dp94
g5
S'13'
p95
sg7
g58
sg9
S'6.0'
p96
sg11
S'61.5'
p97
sg13
g58
sg15
S'98'
p98
sg17
S'7.5'
p99
sg19
S'--'
p100
sg21
S'KC'
p101
sg23
g58
sg25
S'8'
p102
sg27
S'7'
p103
sg29
S'6'
p104
sg31
g24
sg32
S'--'
p105
sg34
g24
sg36
g58
sg38
g58
sg40
g24
sg42
S'09/13'
p106
sg44
S'Ryan Mallett'
p107
sg46
S'110.4'
p108
sg48
S'L20-27'
p109
sg50
S'2015'
p110
ssS'3'
p111
(dp112
g5
S'39'
p113
sg7
g111
sg9
S'-1.0'
p114
sg11
S'61.5'
p115
sg13
g58
sg15
S'228'
p116
sg17
S'5.8'
p117
sg19
S'--'
p118
sg21
S'TB'
p119
sg23
g58
sg25
S'24'
p120
sg27
g58
sg29
S'-1'
p121
sg31
g58
sg32
S'--'
p122
sg34
g24
sg36
g58
sg38
g58
sg40
g58
sg42
S'09/27'
p123
sg44
S'Ryan Mallett'
p124
sg46
S'75.6'
p125
sg48
S'W19-9'
p126
sg50
S'2015'
p127
ssg67
(dp128
g5
S'58'
p129
sg7
g67
sg9
S'6.0'
p130
sg11
S'46.6'
p131
sg13
g58
sg15
S'244'
p132
sg17
S'4.2'
p133
sg19
S'--'
p134
sg21
S'@CAR'
p135
sg23
g58
sg25
S'27'
p136
sg27
S'5'
p137
sg29
g104
sg31
g58
sg32
S'--'
p138
sg34
g58
sg36
g58
sg38
g58
sg40
g58
sg42
S'09/20'
p139
sg44
S'Ryan Mallett'
p140
sg46
S'57.0'
p141
sg48
S'L17-24'
p142
sg50
S'2015'
p143
ssg137
(dp144
g5
S'10'
p145
sg7
g137
sg9
S'0.0'
p146
sg11
S'70.0'
p147
sg13
g58
sg15
S'50'
p148
sg17
S'5.0'
p149
sg19
S'--'
p150
sg21
S'IND'
p151
sg23
g58
sg25
g103
sg27
g24
sg29
g24
sg31
g58
sg32
S'--'
p152
sg34
g24
sg36
g24
sg38
g58
sg40
g58
sg42
S'10/08'
p153
sg44
S'Ryan Mallett'
p154
sg46
S'41.7'
p155
sg48
S'L20-27'
p156
sg50
S'2015'
p157
ssg65
(dp158
g5
S'27'
p159
sg7
g65
sg9
S'--'
p160
sg11
S'44.4'
p161
sg13
S'--'
p162
sg15
S'150'
p163
sg17
S'5.6'
p164
sg19
S'--'
p165
sg21
S'@ATL'
p166
sg23
g58
sg25
S'12'
p167
sg27
g24
sg29
S'--'
p168
sg31
g58
sg32
S'--'
p169
sg34
S'--'
p170
sg36
g24
sg38
g24
sg40
g58
sg42
S'10/04'
p171
sg44
S'Ryan Mallett'
p172
sg46
S'46.8'
p173
sg48
S'L21-48'
p174
sg50
S'2015'
p175
ssg103
(dp176
g5
S'--'
p177
sg7
g103
sg9
S'--'
p178
sg11
S'--'
p179
sg13
S'--'
p180
sg15
S'--'
p181
sg17
S'--'
p182
sg19
S'--'
p183
sg21
S'@MIA'
p184
sg23
g24
sg25
S'--'
p185
sg27
S'--'
p186
sg29
S'--'
p187
sg31
g24
sg32
S'--'
p188
sg34
S'--'
p189
sg36
S'--'
p190
sg38
S'--'
p191
sg40
S'--'
p192
sg42
S'10/25'
p193
sg44
S'Ryan Mallett'
p194
sg46
S'0.0'
p195
sg48
S'L26-44'
p196
sg50
S'2015'
p197
ssg104
(dp198
g5
S'--'
p199
sg7
g104
sg9
S'--'
p200
sg11
S'--'
p201
sg13
S'--'
p202
sg15
S'--'
p203
sg17
S'--'
p204
sg19
S'--'
p205
sg21
S'@JAC'
p206
sg23
g58
sg25
S'--'
p207
sg27
S'--'
p208
sg29
S'--'
p209
sg31
g24
sg32
S'--'
p210
sg34
S'--'
p211
sg36
S'--'
p212
sg38
S'--'
p213
sg40
S'--'
p214
sg42
S'10/18'
p215
sg44
S'Ryan Mallett'
p216
sg46
S'0.0'
p217
sg48
S'W31-20'
p218
sg50
S'2015'
p219
sssS'2014'
p220
(dp221
S'11'
p222
(dp223
g5
S'30'
p224
sg7
S'11'
p225
sg9
S'-0.8'
p226
sg11
S'66.7'
p227
sg13
g65
sg15
S'211'
p228
sg17
S'7.0'
p229
sg19
S'--'
p230
sg21
S'@CLE'
p231
sg23
g58
sg25
S'20'
p232
sg27
g24
sg29
S'-3'
p233
sg31
g58
sg32
S'--'
p234
sg34
g24
sg36
g67
sg38
g24
sg40
g58
sg42
S'11/16'
p235
sg44
S'Ryan Mallett'
p236
sg46
S'95.3'
p237
sg48
S'W23-7'
p238
sg50
S'2014'
p239
ssS'10'
p240
(dp241
g5
S''
p242
sg7
S'10'
p243
sg9
g242
sg11
g242
sg13
g242
sg15
g242
sg17
g242
sg19
g242
sg21
g242
sg23
g242
sg25
g242
sg27
g242
sg29
g242
sg31
g242
sg32
g242
sg34
g242
sg36
g242
sg38
g242
sg40
g242
sg42
S'Bye'
p244
sg44
S'Ryan Mallett'
p245
sg46
g242
sg48
g242
sg50
S'2014'
p246
ssS'12'
p247
(dp248
g5
S'45'
p249
sg7
S'12'
p250
sg9
S'2.0'
p251
sg11
S'46.7'
p252
sg13
g58
sg15
S'189'
p253
sg17
S'4.2'
p254
sg19
S'--'
p255
sg21
S'CIN'
p256
sg23
g58
sg25
S'21'
p257
sg27
g137
sg29
g67
sg31
g58
sg32
S'--'
p258
sg34
g24
sg36
g24
sg38
g58
sg40
g58
sg42
S'11/23'
p259
sg44
S'Ryan Mallett'
p260
sg46
S'49.2'
p261
sg48
S'L13-22'
p262
sg50
S'2014'
p263
ssg58
(dp264
g5
S'--'
p265
sg7
g58
sg9
S'--'
p266
sg11
S'--'
p267
sg13
S'--'
p268
sg15
S'--'
p269
sg17
S'--'
p270
sg19
S'--'
p271
sg21
S'WAS'
p272
sg23
g24
sg25
S'--'
p273
sg27
S'--'
p274
sg29
S'--'
p275
sg31
g24
sg32
S'--'
p276
sg34
S'--'
p277
sg36
S'--'
p278
sg38
S'--'
p279
sg40
S'--'
p280
sg42
S'09/07'
p281
sg44
S'Ryan Mallett'
p282
sg46
S'0.0'
p283
sg48
S'W17-6'
p284
sg50
S'2014'
p285
ssg111
(dp286
g5
S'--'
p287
sg7
g111
sg9
S'--'
p288
sg11
S'--'
p289
sg13
S'--'
p290
sg15
S'--'
p291
sg17
S'--'
p292
sg19
S'--'
p293
sg21
S'@NYG'
p294
sg23
g24
sg25
S'--'
p295
sg27
S'--'
p296
sg29
S'--'
p297
sg31
g24
sg32
S'--'
p298
sg34
S'--'
p299
sg36
S'--'
p300
sg38
S'--'
p301
sg40
S'--'
p302
sg42
S'09/21'
p303
sg44
S'Ryan Mallett'
p304
sg46
S'0.0'
p305
sg48
S'L17-30'
p306
sg50
S'2014'
p307
ssg67
(dp308
g5
S'--'
p309
sg7
g67
sg9
S'-1.0'
p310
sg11
S'--'
p311
sg13
g58
sg15
S'--'
p312
sg17
S'--'
p313
sg19
S'--'
p314
sg21
S'@OAK'
p315
sg23
g58
sg25
S'--'
p316
sg27
S'--'
p317
sg29
S'-1'
p318
sg31
g24
sg32
S'--'
p319
sg34
g24
sg36
S'--'
p320
sg38
S'--'
p321
sg40
S'--'
p322
sg42
S'09/14'
p323
sg44
S'Ryan Mallett'
p324
sg46
S'0.0'
p325
sg48
S'W30-14'
p326
sg50
S'2014'
p327
ssg137
(dp328
g5
S'--'
p329
sg7
g137
sg9
S'--'
p330
sg11
S'--'
p331
sg13
S'--'
p332
sg15
S'--'
p333
sg17
S'--'
p334
sg19
S'--'
p335
sg21
S'@DAL'
p336
sg23
g24
sg25
S'--'
p337
sg27
S'--'
p338
sg29
S'--'
p339
sg31
g24
sg32
S'--'
p340
sg34
S'--'
p341
sg36
S'--'
p342
sg38
S'--'
p343
sg40
S'--'
p344
sg42
S'10/05'
p345
sg44
S'Ryan Mallett'
p346
sg46
S'0.0'
p347
sg48
S'L17-20'
p348
sg50
S'2014'
p349
ssg65
(dp350
g5
S'--'
p351
sg7
g65
sg9
S'--'
p352
sg11
S'--'
p353
sg13
S'--'
p354
sg15
S'--'
p355
sg17
S'--'
p356
sg19
S'--'
p357
sg21
S'BUF'
p358
sg23
g24
sg25
S'--'
p359
sg27
S'--'
p360
sg29
S'--'
p361
sg31
g24
sg32
S'--'
p362
sg34
S'--'
p363
sg36
S'--'
p364
sg38
S'--'
p365
sg40
S'--'
p366
sg42
S'09/28'
p367
sg44
S'Ryan Mallett'
p368
sg46
S'0.0'
p369
sg48
S'W23-17'
p370
sg50
S'2014'
p371
ssg103
(dp372
g5
S'--'
p373
sg7
g103
sg9
S'--'
p374
sg11
S'--'
p375
sg13
S'--'
p376
sg15
S'--'
p377
sg17
S'--'
p378
sg19
S'--'
p379
sg21
S'@PIT'
p380
sg23
g24
sg25
S'--'
p381
sg27
S'--'
p382
sg29
S'--'
p383
sg31
g24
sg32
S'--'
p384
sg34
S'--'
p385
sg36
S'--'
p386
sg38
S'--'
p387
sg40
S'--'
p388
sg42
S'10/20'
p389
sg44
S'Ryan Mallett'
p390
sg46
S'0.0'
p391
sg48
S'L23-30'
p392
sg50
S'2014'
p393
ssg104
(dp394
g5
S'--'
p395
sg7
g104
sg9
S'--'
p396
sg11
S'--'
p397
sg13
S'--'
p398
sg15
S'--'
p399
sg17
S'--'
p400
sg19
S'--'
p401
sg21
S'IND'
p402
sg23
g24
sg25
S'--'
p403
sg27
S'--'
p404
sg29
S'--'
p405
sg31
g24
sg32
S'--'
p406
sg34
S'--'
p407
sg36
S'--'
p408
sg38
S'--'
p409
sg40
S'--'
p410
sg42
S'10/09'
p411
sg44
S'Ryan Mallett'
p412
sg46
S'0.0'
p413
sg48
S'L28-33'
p414
sg50
S'2014'
p415
ssg85
(dp416
g5
S'--'
p417
sg7
g85
sg9
S'--'
p418
sg11
S'--'
p419
sg13
S'--'
p420
sg15
S'--'
p421
sg17
S'--'
p422
sg19
S'--'
p423
sg21
S'PHI'
p424
sg23
g24
sg25
S'--'
p425
sg27
S'--'
p426
sg29
S'--'
p427
sg31
g24
sg32
S'--'
p428
sg34
S'--'
p429
sg36
S'--'
p430
sg38
S'--'
p431
sg40
S'--'
p432
sg42
S'11/02'
p433
sg44
S'Ryan Mallett'
p434
sg46
S'0.0'
p435
sg48
S'L21-31'
p436
sg50
S'2014'
p437
ssg102
(dp438
g5
S'--'
p439
sg7
g102
sg9
S'--'
p440
sg11
S'--'
p441
sg13
S'--'
p442
sg15
S'--'
p443
sg17
S'--'
p444
sg19
S'--'
p445
sg21
S'@TEN'
p446
sg23
g24
sg25
S'--'
p447
sg27
S'--'
p448
sg29
S'--'
p449
sg31
g24
sg32
S'--'
p450
sg34
S'--'
p451
sg36
S'--'
p452
sg38
S'--'
p453
sg40
S'--'
p454
sg42
S'10/26'
p455
sg44
S'Ryan Mallett'
p456
sg46
S'0.0'
p457
sg48
S'W30-16'
p458
sg50
S'2014'
p459
sssS'2011'
p460
(dp461
g222
(dp462
g5
S'--'
p463
sg7
S'11'
p464
sg9
S'--'
p465
sg11
S'--'
p466
sg13
S'--'
p467
sg15
S'--'
p468
sg17
S'--'
p469
sg19
S'--'
p470
sg21
S'KC'
p471
sg23
g24
sg25
S'--'
p472
sg27
S'--'
p473
sg29
S'--'
p474
sg31
g24
sg32
S'--'
p475
sg34
S'--'
p476
sg36
S'--'
p477
sg38
S'--'
p478
sg40
S'--'
p479
sg42
S'11/21'
p480
sg44
S'Ryan Mallett'
p481
sg46
S'0.0'
p482
sg48
S'W34-3'
p483
sg50
S'2011'
p484
ssg240
(dp485
g5
S'--'
p486
sg7
S'10'
p487
sg9
S'--'
p488
sg11
S'--'
p489
sg13
S'--'
p490
sg15
S'--'
p491
sg17
S'--'
p492
sg19
S'--'
p493
sg21
S'@NYJ'
p494
sg23
g24
sg25
S'--'
p495
sg27
S'--'
p496
sg29
S'--'
p497
sg31
g24
sg32
S'--'
p498
sg34
S'--'
p499
sg36
S'--'
p500
sg38
S'--'
p501
sg40
S'--'
p502
sg42
S'11/13'
p503
sg44
S'Ryan Mallett'
p504
sg46
S'0.0'
p505
sg48
S'W37-16'
p506
sg50
S'2011'
p507
ssS'13'
p508
(dp509
g5
S'--'
p510
sg7
S'13'
p511
sg9
S'--'
p512
sg11
S'--'
p513
sg13
S'--'
p514
sg15
S'--'
p515
sg17
S'--'
p516
sg19
S'--'
p517
sg21
S'IND'
p518
sg23
g24
sg25
S'--'
p519
sg27
S'--'
p520
sg29
S'--'
p521
sg31
g24
sg32
S'--'
p522
sg34
S'--'
p523
sg36
S'--'
p524
sg38
S'--'
p525
sg40
S'--'
p526
sg42
S'12/04'
p527
sg44
S'Ryan Mallett'
p528
sg46
S'0.0'
p529
sg48
S'W31-24'
p530
sg50
S'2011'
p531
ssg247
(dp532
g5
S'--'
p533
sg7
S'12'
p534
sg9
S'--'
p535
sg11
S'--'
p536
sg13
S'--'
p537
sg15
S'--'
p538
sg17
S'--'
p539
sg19
S'--'
p540
sg21
S'@PHI'
p541
sg23
g24
sg25
S'--'
p542
sg27
S'--'
p543
sg29
S'--'
p544
sg31
g24
sg32
S'--'
p545
sg34
S'--'
p546
sg36
S'--'
p547
sg38
S'--'
p548
sg40
S'--'
p549
sg42
S'11/27'
p550
sg44
S'Ryan Mallett'
p551
sg46
S'0.0'
p552
sg48
S'W38-20'
p553
sg50
S'2011'
p554
ssg3
(dp555
g5
S'--'
p556
sg7
S'15'
p557
sg9
S'--'
p558
sg11
S'--'
p559
sg13
S'--'
p560
sg15
S'--'
p561
sg17
S'--'
p562
sg19
S'--'
p563
sg21
S'@DEN'
p564
sg23
g24
sg25
S'--'
p565
sg27
S'--'
p566
sg29
S'--'
p567
sg31
g24
sg32
S'--'
p568
sg34
S'--'
p569
sg36
S'--'
p570
sg38
S'--'
p571
sg40
S'--'
p572
sg42
S'12/18'
p573
sg44
S'Ryan Mallett'
p574
sg46
S'0.0'
p575
sg48
S'W41-23'
p576
sg50
S'2011'
p577
ssS'14'
p578
(dp579
g5
S'--'
p580
sg7
S'14'
p581
sg9
S'--'
p582
sg11
S'--'
p583
sg13
S'--'
p584
sg15
S'--'
p585
sg17
S'--'
p586
sg19
S'--'
p587
sg21
S'@WAS'
p588
sg23
g24
sg25
S'--'
p589
sg27
S'--'
p590
sg29
S'--'
p591
sg31
g24
sg32
S'--'
p592
sg34
S'--'
p593
sg36
S'--'
p594
sg38
S'--'
p595
sg40
S'--'
p596
sg42
S'12/11'
p597
sg44
S'Ryan Mallett'
p598
sg46
S'0.0'
p599
sg48
S'W34-27'
p600
sg50
S'2011'
p601
ssg52
(dp602
g5
S'--'
p603
sg7
S'17'
p604
sg9
S'--'
p605
sg11
S'--'
p606
sg13
S'--'
p607
sg15
S'--'
p608
sg17
S'--'
p609
sg19
S'--'
p610
sg21
S'BUF'
p611
sg23
g24
sg25
S'--'
p612
sg27
S'--'
p613
sg29
S'--'
p614
sg31
g24
sg32
S'--'
p615
sg34
S'--'
p616
sg36
S'--'
p617
sg38
S'--'
p618
sg40
S'--'
p619
sg42
S'01/01'
p620
sg44
S'Ryan Mallett'
p621
sg46
S'0.0'
p622
sg48
S'W49-21'
p623
sg50
S'2011'
p624
ssg73
(dp625
g5
S'--'
p626
sg7
S'16'
p627
sg9
S'--'
p628
sg11
S'--'
p629
sg13
S'--'
p630
sg15
S'--'
p631
sg17
S'--'
p632
sg19
S'--'
p633
sg21
S'MIA'
p634
sg23
g24
sg25
S'--'
p635
sg27
S'--'
p636
sg29
S'--'
p637
sg31
g24
sg32
S'--'
p638
sg34
S'--'
p639
sg36
S'--'
p640
sg38
S'--'
p641
sg40
S'--'
p642
sg42
S'12/24'
p643
sg44
S'Ryan Mallett'
p644
sg46
S'0.0'
p645
sg48
S'W27-24'
p646
sg50
S'2011'
p647
ssg58
(dp648
g5
S'--'
p649
sg7
g58
sg9
S'--'
p650
sg11
S'--'
p651
sg13
S'--'
p652
sg15
S'--'
p653
sg17
S'--'
p654
sg19
S'--'
p655
sg21
S'@MIA'
p656
sg23
g24
sg25
S'--'
p657
sg27
S'--'
p658
sg29
S'--'
p659
sg31
g24
sg32
S'--'
p660
sg34
S'--'
p661
sg36
S'--'
p662
sg38
S'--'
p663
sg40
S'--'
p664
sg42
S'09/12'
p665
sg44
S'Ryan Mallett'
p666
sg46
S'0.0'
p667
sg48
S'W38-24'
p668
sg50
S'2011'
p669
ssg111
(dp670
g5
S'--'
p671
sg7
g111
sg9
S'--'
p672
sg11
S'--'
p673
sg13
S'--'
p674
sg15
S'--'
p675
sg17
S'--'
p676
sg19
S'--'
p677
sg21
S'@BUF'
p678
sg23
g24
sg25
S'--'
p679
sg27
S'--'
p680
sg29
S'--'
p681
sg31
g24
sg32
S'--'
p682
sg34
S'--'
p683
sg36
S'--'
p684
sg38
S'--'
p685
sg40
S'--'
p686
sg42
S'09/25'
p687
sg44
S'Ryan Mallett'
p688
sg46
S'0.0'
p689
sg48
S'L31-34'
p690
sg50
S'2011'
p691
ssg67
(dp692
g5
S'--'
p693
sg7
g67
sg9
S'--'
p694
sg11
S'--'
p695
sg13
S'--'
p696
sg15
S'--'
p697
sg17
S'--'
p698
sg19
S'--'
p699
sg21
S'SD'
p700
sg23
g24
sg25
S'--'
p701
sg27
S'--'
p702
sg29
S'--'
p703
sg31
g24
sg32
S'--'
p704
sg34
S'--'
p705
sg36
S'--'
p706
sg38
S'--'
p707
sg40
S'--'
p708
sg42
S'09/18'
p709
sg44
S'Ryan Mallett'
p710
sg46
S'0.0'
p711
sg48
S'W35-21'
p712
sg50
S'2011'
p713
ssg137
(dp714
g5
S'--'
p715
sg7
g137
sg9
S'--'
p716
sg11
S'--'
p717
sg13
S'--'
p718
sg15
S'--'
p719
sg17
S'--'
p720
sg19
S'--'
p721
sg21
S'NYJ'
p722
sg23
g24
sg25
S'--'
p723
sg27
S'--'
p724
sg29
S'--'
p725
sg31
g24
sg32
S'--'
p726
sg34
S'--'
p727
sg36
S'--'
p728
sg38
S'--'
p729
sg40
S'--'
p730
sg42
S'10/09'
p731
sg44
S'Ryan Mallett'
p732
sg46
S'0.0'
p733
sg48
S'W30-21'
p734
sg50
S'2011'
p735
ssg65
(dp736
g5
S'--'
p737
sg7
g65
sg9
S'--'
p738
sg11
S'--'
p739
sg13
S'--'
p740
sg15
S'--'
p741
sg17
S'--'
p742
sg19
S'--'
p743
sg21
S'@OAK'
p744
sg23
g24
sg25
S'--'
p745
sg27
S'--'
p746
sg29
S'--'
p747
sg31
g24
sg32
S'--'
p748
sg34
S'--'
p749
sg36
S'--'
p750
sg38
S'--'
p751
sg40
S'--'
p752
sg42
S'10/02'
p753
sg44
S'Ryan Mallett'
p754
sg46
S'0.0'
p755
sg48
S'W31-19'
p756
sg50
S'2011'
p757
ssg103
(dp758
g5
g242
sg7
g103
sg9
g242
sg11
g242
sg13
g242
sg15
g242
sg17
g242
sg19
g242
sg21
g242
sg23
g242
sg25
g242
sg27
g242
sg29
g242
sg31
g242
sg32
g242
sg34
g242
sg36
g242
sg38
g242
sg40
g242
sg42
S'Bye'
p759
sg44
S'Ryan Mallett'
p760
sg46
g242
sg48
g242
sg50
S'2011'
p761
ssg104
(dp762
g5
S'--'
p763
sg7
g104
sg9
S'--'
p764
sg11
S'--'
p765
sg13
S'--'
p766
sg15
S'--'
p767
sg17
S'--'
p768
sg19
S'--'
p769
sg21
S'DAL'
p770
sg23
g24
sg25
S'--'
p771
sg27
S'--'
p772
sg29
S'--'
p773
sg31
g24
sg32
S'--'
p774
sg34
S'--'
p775
sg36
S'--'
p776
sg38
S'--'
p777
sg40
S'--'
p778
sg42
S'10/16'
p779
sg44
S'Ryan Mallett'
p780
sg46
S'0.0'
p781
sg48
S'W20-16'
p782
sg50
S'2011'
p783
ssg85
(dp784
g5
S'--'
p785
sg7
g85
sg9
S'--'
p786
sg11
S'--'
p787
sg13
S'--'
p788
sg15
S'--'
p789
sg17
S'--'
p790
sg19
S'--'
p791
sg21
S'NYG'
p792
sg23
g24
sg25
S'--'
p793
sg27
S'--'
p794
sg29
S'--'
p795
sg31
g24
sg32
S'--'
p796
sg34
S'--'
p797
sg36
S'--'
p798
sg38
S'--'
p799
sg40
S'--'
p800
sg42
S'11/06'
p801
sg44
S'Ryan Mallett'
p802
sg46
S'0.0'
p803
sg48
S'L20-24'
p804
sg50
S'2011'
p805
ssg102
(dp806
g5
S'--'
p807
sg7
g102
sg9
S'--'
p808
sg11
S'--'
p809
sg13
S'--'
p810
sg15
S'--'
p811
sg17
S'--'
p812
sg19
S'--'
p813
sg21
S'@PIT'
p814
sg23
g24
sg25
S'--'
p815
sg27
S'--'
p816
sg29
S'--'
p817
sg31
g24
sg32
S'--'
p818
sg34
S'--'
p819
sg36
S'--'
p820
sg38
S'--'
p821
sg40
S'--'
p822
sg42
S'10/30'
p823
sg44
S'Ryan Mallett'
p824
sg46
S'0.0'
p825
sg48
S'L17-25'
p826
sg50
S'2011'
p827
sssS'2013'
p828
(dp829
g222
(dp830
g5
S'--'
p831
sg7
S'11'
p832
sg9
S'--'
p833
sg11
S'--'
p834
sg13
S'--'
p835
sg15
S'--'
p836
sg17
S'--'
p837
sg19
S'--'
p838
sg21
S'@CAR'
p839
sg23
g24
sg25
S'--'
p840
sg27
S'--'
p841
sg29
S'--'
p842
sg31
g24
sg32
S'--'
p843
sg34
S'--'
p844
sg36
S'--'
p845
sg38
S'--'
p846
sg40
S'--'
p847
sg42
S'11/18'
p848
sg44
S'Ryan Mallett'
p849
sg46
S'0.0'
p850
sg48
S'L20-24'
p851
sg50
S'2013'
p852
ssg240
(dp853
g5
g242
sg7
S'10'
p854
sg9
g242
sg11
g242
sg13
g242
sg15
g242
sg17
g242
sg19
g242
sg21
g242
sg23
g242
sg25
g242
sg27
g242
sg29
g242
sg31
g242
sg32
g242
sg34
g242
sg36
g242
sg38
g242
sg40
g242
sg42
S'Bye'
p855
sg44
S'Ryan Mallett'
p856
sg46
g242
sg48
g242
sg50
S'2013'
p857
ssg508
(dp858
g5
S'--'
p859
sg7
S'13'
p860
sg9
S'--'
p861
sg11
S'--'
p862
sg13
S'--'
p863
sg15
S'--'
p864
sg17
S'--'
p865
sg19
S'--'
p866
sg21
S'@HOU'
p867
sg23
g24
sg25
S'--'
p868
sg27
S'--'
p869
sg29
S'--'
p870
sg31
g24
sg32
S'--'
p871
sg34
S'--'
p872
sg36
S'--'
p873
sg38
S'--'
p874
sg40
S'--'
p875
sg42
S'12/01'
p876
sg44
S'Ryan Mallett'
p877
sg46
S'0.0'
p878
sg48
S'W34-31'
p879
sg50
S'2013'
p880
ssg247
(dp881
g5
S'--'
p882
sg7
S'12'
p883
sg9
S'--'
p884
sg11
S'--'
p885
sg13
S'--'
p886
sg15
S'--'
p887
sg17
S'--'
p888
sg19
S'--'
p889
sg21
S'DEN'
p890
sg23
g24
sg25
S'--'
p891
sg27
S'--'
p892
sg29
S'--'
p893
sg31
g24
sg32
S'--'
p894
sg34
S'--'
p895
sg36
S'--'
p896
sg38
S'--'
p897
sg40
S'--'
p898
sg42
S'11/24'
p899
sg44
S'Ryan Mallett'
p900
sg46
S'0.0'
p901
sg48
S'W34-31'
p902
sg50
S'2013'
p903
ssg3
(dp904
g5
S'--'
p905
sg7
S'15'
p906
sg9
S'--'
p907
sg11
S'--'
p908
sg13
S'--'
p909
sg15
S'--'
p910
sg17
S'--'
p911
sg19
S'--'
p912
sg21
S'@MIA'
p913
sg23
g24
sg25
S'--'
p914
sg27
S'--'
p915
sg29
S'--'
p916
sg31
g24
sg32
S'--'
p917
sg34
S'--'
p918
sg36
S'--'
p919
sg38
S'--'
p920
sg40
S'--'
p921
sg42
S'12/15'
p922
sg44
S'Ryan Mallett'
p923
sg46
S'0.0'
p924
sg48
S'L20-24'
p925
sg50
S'2013'
p926
ssg578
(dp927
g5
S'--'
p928
sg7
S'14'
p929
sg9
S'--'
p930
sg11
S'--'
p931
sg13
S'--'
p932
sg15
S'--'
p933
sg17
S'--'
p934
sg19
S'--'
p935
sg21
S'CLE'
p936
sg23
g24
sg25
S'--'
p937
sg27
S'--'
p938
sg29
S'--'
p939
sg31
g24
sg32
S'--'
p940
sg34
S'--'
p941
sg36
S'--'
p942
sg38
S'--'
p943
sg40
S'--'
p944
sg42
S'12/08'
p945
sg44
S'Ryan Mallett'
p946
sg46
S'0.0'
p947
sg48
S'W27-26'
p948
sg50
S'2013'
p949
ssg52
(dp950
g5
S'--'
p951
sg7
S'17'
p952
sg9
S'--'
p953
sg11
S'--'
p954
sg13
S'--'
p955
sg15
S'--'
p956
sg17
S'--'
p957
sg19
S'--'
p958
sg21
S'BUF'
p959
sg23
g24
sg25
S'--'
p960
sg27
S'--'
p961
sg29
S'--'
p962
sg31
g24
sg32
S'--'
p963
sg34
S'--'
p964
sg36
S'--'
p965
sg38
S'--'
p966
sg40
S'--'
p967
sg42
S'12/29'
p968
sg44
S'Ryan Mallett'
p969
sg46
S'0.0'
p970
sg48
S'W34-20'
p971
sg50
S'2013'
p972
ssg73
(dp973
g5
S'--'
p974
sg7
S'16'
p975
sg9
S'--'
p976
sg11
S'--'
p977
sg13
S'--'
p978
sg15
S'--'
p979
sg17
S'--'
p980
sg19
S'--'
p981
sg21
S'@BAL'
p982
sg23
g24
sg25
S'--'
p983
sg27
S'--'
p984
sg29
S'--'
p985
sg31
g24
sg32
S'--'
p986
sg34
S'--'
p987
sg36
S'--'
p988
sg38
S'--'
p989
sg40
S'--'
p990
sg42
S'12/22'
p991
sg44
S'Ryan Mallett'
p992
sg46
S'0.0'
p993
sg48
S'W41-7'
p994
sg50
S'2013'
p995
ssg58
(dp996
g5
S'--'
p997
sg7
g58
sg9
S'--'
p998
sg11
S'--'
p999
sg13
S'--'
p1000
sg15
S'--'
p1001
sg17
S'--'
p1002
sg19
S'--'
p1003
sg21
S'@BUF'
p1004
sg23
g24
sg25
S'--'
p1005
sg27
S'--'
p1006
sg29
S'--'
p1007
sg31
g24
sg32
S'--'
p1008
sg34
S'--'
p1009
sg36
S'--'
p1010
sg38
S'--'
p1011
sg40
S'--'
p1012
sg42
S'09/08'
p1013
sg44
S'Ryan Mallett'
p1014
sg46
S'0.0'
p1015
sg48
S'W23-21'
p1016
sg50
S'2013'
p1017
ssg111
(dp1018
g5
S'--'
p1019
sg7
g111
sg9
S'--'
p1020
sg11
S'--'
p1021
sg13
S'--'
p1022
sg15
S'--'
p1023
sg17
S'--'
p1024
sg19
S'--'
p1025
sg21
S'TB'
p1026
sg23
g24
sg25
S'--'
p1027
sg27
S'--'
p1028
sg29
S'--'
p1029
sg31
g24
sg32
S'--'
p1030
sg34
S'--'
p1031
sg36
S'--'
p1032
sg38
S'--'
p1033
sg40
S'--'
p1034
sg42
S'09/22'
p1035
sg44
S'Ryan Mallett'
p1036
sg46
S'0.0'
p1037
sg48
S'W23-3'
p1038
sg50
S'2013'
p1039
ssg67
(dp1040
g5
S'--'
p1041
sg7
g67
sg9
S'--'
p1042
sg11
S'--'
p1043
sg13
S'--'
p1044
sg15
S'--'
p1045
sg17
S'--'
p1046
sg19
S'--'
p1047
sg21
S'NYJ'
p1048
sg23
g24
sg25
S'--'
p1049
sg27
S'--'
p1050
sg29
S'--'
p1051
sg31
g24
sg32
S'--'
p1052
sg34
S'--'
p1053
sg36
S'--'
p1054
sg38
S'--'
p1055
sg40
S'--'
p1056
sg42
S'09/12'
p1057
sg44
S'Ryan Mallett'
p1058
sg46
S'0.0'
p1059
sg48
S'W13-10'
p1060
sg50
S'2013'
p1061
ssg137
(dp1062
g5
S'--'
p1063
sg7
g137
sg9
S'--'
p1064
sg11
S'--'
p1065
sg13
S'--'
p1066
sg15
S'--'
p1067
sg17
S'--'
p1068
sg19
S'--'
p1069
sg21
S'@CIN'
p1070
sg23
g24
sg25
S'--'
p1071
sg27
S'--'
p1072
sg29
S'--'
p1073
sg31
g24
sg32
S'--'
p1074
sg34
S'--'
p1075
sg36
S'--'
p1076
sg38
S'--'
p1077
sg40
S'--'
p1078
sg42
S'10/06'
p1079
sg44
S'Ryan Mallett'
p1080
sg46
S'0.0'
p1081
sg48
S'L6-13'
p1082
sg50
S'2013'
p1083
ssg65
(dp1084
g5
S'--'
p1085
sg7
g65
sg9
S'--'
p1086
sg11
S'--'
p1087
sg13
S'--'
p1088
sg15
S'--'
p1089
sg17
S'--'
p1090
sg19
S'--'
p1091
sg21
S'@ATL'
p1092
sg23
g24
sg25
S'--'
p1093
sg27
S'--'
p1094
sg29
S'--'
p1095
sg31
g24
sg32
S'--'
p1096
sg34
S'--'
p1097
sg36
S'--'
p1098
sg38
S'--'
p1099
sg40
S'--'
p1100
sg42
S'09/29'
p1101
sg44
S'Ryan Mallett'
p1102
sg46
S'0.0'
p1103
sg48
S'W30-23'
p1104
sg50
S'2013'
p1105
ssg103
(dp1106
g5
S'--'
p1107
sg7
g103
sg9
S'--'
p1108
sg11
S'--'
p1109
sg13
S'--'
p1110
sg15
S'--'
p1111
sg17
S'--'
p1112
sg19
S'--'
p1113
sg21
S'@NYJ'
p1114
sg23
g24
sg25
S'--'
p1115
sg27
S'--'
p1116
sg29
S'--'
p1117
sg31
g24
sg32
S'--'
p1118
sg34
S'--'
p1119
sg36
S'--'
p1120
sg38
S'--'
p1121
sg40
S'--'
p1122
sg42
S'10/20'
p1123
sg44
S'Ryan Mallett'
p1124
sg46
S'0.0'
p1125
sg48
S'L27-30'
p1126
sg50
S'2013'
p1127
ssg104
(dp1128
g5
S'--'
p1129
sg7
g104
sg9
S'--'
p1130
sg11
S'--'
p1131
sg13
S'--'
p1132
sg15
S'--'
p1133
sg17
S'--'
p1134
sg19
S'--'
p1135
sg21
S'NO'
p1136
sg23
g24
sg25
S'--'
p1137
sg27
S'--'
p1138
sg29
S'--'
p1139
sg31
g24
sg32
S'--'
p1140
sg34
S'--'
p1141
sg36
S'--'
p1142
sg38
S'--'
p1143
sg40
S'--'
p1144
sg42
S'10/13'
p1145
sg44
S'Ryan Mallett'
p1146
sg46
S'0.0'
p1147
sg48
S'W30-27'
p1148
sg50
S'2013'
p1149
ssg85
(dp1150
g5
S'--'
p1151
sg7
g85
sg9
S'--'
p1152
sg11
S'--'
p1153
sg13
S'--'
p1154
sg15
S'--'
p1155
sg17
S'--'
p1156
sg19
S'--'
p1157
sg21
S'PIT'
p1158
sg23
g24
sg25
S'--'
p1159
sg27
S'--'
p1160
sg29
S'--'
p1161
sg31
g24
sg32
S'--'
p1162
sg34
S'--'
p1163
sg36
S'--'
p1164
sg38
S'--'
p1165
sg40
S'--'
p1166
sg42
S'11/03'
p1167
sg44
S'Ryan Mallett'
p1168
sg46
S'0.0'
p1169
sg48
S'W55-31'
p1170
sg50
S'2013'
p1171
ssg102
(dp1172
g5
S'--'
p1173
sg7
g102
sg9
S'--'
p1174
sg11
S'--'
p1175
sg13
S'--'
p1176
sg15
S'--'
p1177
sg17
S'--'
p1178
sg19
S'--'
p1179
sg21
S'MIA'
p1180
sg23
g24
sg25
S'--'
p1181
sg27
S'--'
p1182
sg29
S'--'
p1183
sg31
g24
sg32
S'--'
p1184
sg34
S'--'
p1185
sg36
S'--'
p1186
sg38
S'--'
p1187
sg40
S'--'
p1188
sg42
S'10/27'
p1189
sg44
S'Ryan Mallett'
p1190
sg46
S'0.0'
p1191
sg48
S'W27-17'
p1192
sg50
S'2013'
p1193
sssS'2012'
p1194
(dp1195
g222
(dp1196
g5
S'--'
p1197
sg7
S'11'
p1198
sg9
S'--'
p1199
sg11
S'--'
p1200
sg13
S'--'
p1201
sg15
S'--'
p1202
sg17
S'--'
p1203
sg19
S'--'
p1204
sg21
S'IND'
p1205
sg23
g58
sg25
S'--'
p1206
sg27
S'--'
p1207
sg29
S'--'
p1208
sg31
g24
sg32
S'--'
p1209
sg34
S'--'
p1210
sg36
S'--'
p1211
sg38
S'--'
p1212
sg40
S'--'
p1213
sg42
S'11/18'
p1214
sg44
S'Ryan Mallett'
p1215
sg46
S'0.0'
p1216
sg48
S'W59-24'
p1217
sg50
S'2012'
p1218
ssg240
(dp1219
g5
S'--'
p1220
sg7
S'10'
p1221
sg9
S'--'
p1222
sg11
S'--'
p1223
sg13
S'--'
p1224
sg15
S'--'
p1225
sg17
S'--'
p1226
sg19
S'--'
p1227
sg21
S'BUF'
p1228
sg23
g24
sg25
S'--'
p1229
sg27
S'--'
p1230
sg29
S'--'
p1231
sg31
g24
sg32
S'--'
p1232
sg34
S'--'
p1233
sg36
S'--'
p1234
sg38
S'--'
p1235
sg40
S'--'
p1236
sg42
S'11/11'
p1237
sg44
S'Ryan Mallett'
p1238
sg46
S'0.0'
p1239
sg48
S'W37-31'
p1240
sg50
S'2012'
p1241
ssg508
(dp1242
g5
S'--'
p1243
sg7
S'13'
p1244
sg9
S'--'
p1245
sg11
S'--'
p1246
sg13
S'--'
p1247
sg15
S'--'
p1248
sg17
S'--'
p1249
sg19
S'--'
p1250
sg21
S'@MIA'
p1251
sg23
g24
sg25
S'--'
p1252
sg27
S'--'
p1253
sg29
S'--'
p1254
sg31
g24
sg32
S'--'
p1255
sg34
S'--'
p1256
sg36
S'--'
p1257
sg38
S'--'
p1258
sg40
S'--'
p1259
sg42
S'12/02'
p1260
sg44
S'Ryan Mallett'
p1261
sg46
S'0.0'
p1262
sg48
S'W23-16'
p1263
sg50
S'2012'
p1264
ssg247
(dp1265
g5
S'--'
p1266
sg7
S'12'
p1267
sg9
S'-1.5'
p1268
sg11
S'--'
p1269
sg13
g67
sg15
S'--'
p1270
sg17
S'--'
p1271
sg19
S'--'
p1272
sg21
S'@NYJ'
p1273
sg23
g58
sg25
S'--'
p1274
sg27
S'--'
p1275
sg29
S'-3'
p1276
sg31
g24
sg32
S'--'
p1277
sg34
g24
sg36
S'--'
p1278
sg38
S'--'
p1279
sg40
S'--'
p1280
sg42
S'11/22'
p1281
sg44
S'Ryan Mallett'
p1282
sg46
S'0.0'
p1283
sg48
S'W49-19'
p1284
sg50
S'2012'
p1285
ssg3
(dp1286
g5
S'--'
p1287
sg7
S'15'
p1288
sg9
S'--'
p1289
sg11
S'--'
p1290
sg13
S'--'
p1291
sg15
S'--'
p1292
sg17
S'--'
p1293
sg19
S'--'
p1294
sg21
S'SF'
p1295
sg23
g24
sg25
S'--'
p1296
sg27
S'--'
p1297
sg29
S'--'
p1298
sg31
g24
sg32
S'--'
p1299
sg34
S'--'
p1300
sg36
S'--'
p1301
sg38
S'--'
p1302
sg40
S'--'
p1303
sg42
S'12/16'
p1304
sg44
S'Ryan Mallett'
p1305
sg46
S'0.0'
p1306
sg48
S'L34-41'
p1307
sg50
S'2012'
p1308
ssg578
(dp1309
g5
g58
sg7
S'14'
p1310
sg9
S'-1.0'
p1311
sg11
S'0.0'
p1312
sg13
g111
sg15
g24
sg17
S'0.0'
p1313
sg19
S'--'
p1314
sg21
S'HOU'
p1315
sg23
g58
sg25
g24
sg27
g24
sg29
S'-3'
p1316
sg31
g24
sg32
S'--'
p1317
sg34
g24
sg36
g24
sg38
g24
sg40
g58
sg42
S'12/10'
p1318
sg44
S'Ryan Mallett'
p1319
sg46
S'0.0'
p1320
sg48
S'W42-14'
p1321
sg50
S'2012'
p1322
ssg52
(dp1323
g5
S'--'
p1324
sg7
S'17'
p1325
sg9
S'--'
p1326
sg11
S'--'
p1327
sg13
S'--'
p1328
sg15
S'--'
p1329
sg17
S'--'
p1330
sg19
S'--'
p1331
sg21
S'MIA'
p1332
sg23
g24
sg25
S'--'
p1333
sg27
S'--'
p1334
sg29
S'--'
p1335
sg31
g24
sg32
S'--'
p1336
sg34
S'--'
p1337
sg36
S'--'
p1338
sg38
S'--'
p1339
sg40
S'--'
p1340
sg42
S'12/30'
p1341
sg44
S'Ryan Mallett'
p1342
sg46
S'0.0'
p1343
sg48
S'W28-0'
p1344
sg50
S'2012'
p1345
ssg73
(dp1346
g5
S'--'
p1347
sg7
S'16'
p1348
sg9
S'--'
p1349
sg11
S'--'
p1350
sg13
S'--'
p1351
sg15
S'--'
p1352
sg17
S'--'
p1353
sg19
S'--'
p1354
sg21
S'@JAC'
p1355
sg23
g24
sg25
S'--'
p1356
sg27
S'--'
p1357
sg29
S'--'
p1358
sg31
g24
sg32
S'--'
p1359
sg34
S'--'
p1360
sg36
S'--'
p1361
sg38
S'--'
p1362
sg40
S'--'
p1363
sg42
S'12/23'
p1364
sg44
S'Ryan Mallett'
p1365
sg46
S'0.0'
p1366
sg48
S'W23-16'
p1367
sg50
S'2012'
p1368
ssg58
(dp1369
g5
S'--'
p1370
sg7
g58
sg9
S'--'
p1371
sg11
S'--'
p1372
sg13
S'--'
p1373
sg15
S'--'
p1374
sg17
S'--'
p1375
sg19
S'--'
p1376
sg21
S'@TEN'
p1377
sg23
g24
sg25
S'--'
p1378
sg27
S'--'
p1379
sg29
S'--'
p1380
sg31
g24
sg32
S'--'
p1381
sg34
S'--'
p1382
sg36
S'--'
p1383
sg38
S'--'
p1384
sg40
S'--'
p1385
sg42
S'09/09'
p1386
sg44
S'Ryan Mallett'
p1387
sg46
S'0.0'
p1388
sg48
S'W34-13'
p1389
sg50
S'2012'
p1390
ssg111
(dp1391
g5
S'--'
p1392
sg7
g111
sg9
S'--'
p1393
sg11
S'--'
p1394
sg13
S'--'
p1395
sg15
S'--'
p1396
sg17
S'--'
p1397
sg19
S'--'
p1398
sg21
S'@BAL'
p1399
sg23
g24
sg25
S'--'
p1400
sg27
S'--'
p1401
sg29
S'--'
p1402
sg31
g24
sg32
S'--'
p1403
sg34
S'--'
p1404
sg36
S'--'
p1405
sg38
S'--'
p1406
sg40
S'--'
p1407
sg42
S'09/23'
p1408
sg44
S'Ryan Mallett'
p1409
sg46
S'0.0'
p1410
sg48
S'L30-31'
p1411
sg50
S'2012'
p1412
ssg67
(dp1413
g5
S'--'
p1414
sg7
g67
sg9
S'--'
p1415
sg11
S'--'
p1416
sg13
S'--'
p1417
sg15
S'--'
p1418
sg17
S'--'
p1419
sg19
S'--'
p1420
sg21
S'ARI'
p1421
sg23
g24
sg25
S'--'
p1422
sg27
S'--'
p1423
sg29
S'--'
p1424
sg31
g24
sg32
S'--'
p1425
sg34
S'--'
p1426
sg36
S'--'
p1427
sg38
S'--'
p1428
sg40
S'--'
p1429
sg42
S'09/16'
p1430
sg44
S'Ryan Mallett'
p1431
sg46
S'0.0'
p1432
sg48
S'L18-20'
p1433
sg50
S'2012'
p1434
ssg137
(dp1435
g5
S'--'
p1436
sg7
g137
sg9
S'--'
p1437
sg11
S'--'
p1438
sg13
S'--'
p1439
sg15
S'--'
p1440
sg17
S'--'
p1441
sg19
S'--'
p1442
sg21
S'DEN'
p1443
sg23
g24
sg25
S'--'
p1444
sg27
S'--'
p1445
sg29
S'--'
p1446
sg31
g24
sg32
S'--'
p1447
sg34
S'--'
p1448
sg36
S'--'
p1449
sg38
S'--'
p1450
sg40
S'--'
p1451
sg42
S'10/07'
p1452
sg44
S'Ryan Mallett'
p1453
sg46
S'0.0'
p1454
sg48
S'W31-21'
p1455
sg50
S'2012'
p1456
ssg65
(dp1457
g5
S'--'
p1458
sg7
g65
sg9
S'--'
p1459
sg11
S'--'
p1460
sg13
S'--'
p1461
sg15
S'--'
p1462
sg17
S'--'
p1463
sg19
S'--'
p1464
sg21
S'@BUF'
p1465
sg23
g24
sg25
S'--'
p1466
sg27
S'--'
p1467
sg29
S'--'
p1468
sg31
g24
sg32
S'--'
p1469
sg34
S'--'
p1470
sg36
S'--'
p1471
sg38
S'--'
p1472
sg40
S'--'
p1473
sg42
S'09/30'
p1474
sg44
S'Ryan Mallett'
p1475
sg46
S'0.0'
p1476
sg48
S'W52-28'
p1477
sg50
S'2012'
p1478
ssg103
(dp1479
g5
S'--'
p1480
sg7
g103
sg9
S'--'
p1481
sg11
S'--'
p1482
sg13
S'--'
p1483
sg15
S'--'
p1484
sg17
S'--'
p1485
sg19
S'--'
p1486
sg21
S'NYJ'
p1487
sg23
g24
sg25
S'--'
p1488
sg27
S'--'
p1489
sg29
S'--'
p1490
sg31
g24
sg32
S'--'
p1491
sg34
S'--'
p1492
sg36
S'--'
p1493
sg38
S'--'
p1494
sg40
S'--'
p1495
sg42
S'10/21'
p1496
sg44
S'Ryan Mallett'
p1497
sg46
S'0.0'
p1498
sg48
S'W29-26'
p1499
sg50
S'2012'
p1500
ssg104
(dp1501
g5
S'--'
p1502
sg7
g104
sg9
S'--'
p1503
sg11
S'--'
p1504
sg13
S'--'
p1505
sg15
S'--'
p1506
sg17
S'--'
p1507
sg19
S'--'
p1508
sg21
S'@SEA'
p1509
sg23
g24
sg25
S'--'
p1510
sg27
S'--'
p1511
sg29
S'--'
p1512
sg31
g24
sg32
S'--'
p1513
sg34
S'--'
p1514
sg36
S'--'
p1515
sg38
S'--'
p1516
sg40
S'--'
p1517
sg42
S'10/14'
p1518
sg44
S'Ryan Mallett'
p1519
sg46
S'0.0'
p1520
sg48
S'L23-24'
p1521
sg50
S'2012'
p1522
ssg85
(dp1523
g5
g242
sg7
g85
sg9
g242
sg11
g242
sg13
g242
sg15
g242
sg17
g242
sg19
g242
sg21
g242
sg23
g242
sg25
g242
sg27
g242
sg29
g242
sg31
g242
sg32
g242
sg34
g242
sg36
g242
sg38
g242
sg40
g242
sg42
S'Bye'
p1524
sg44
S'Ryan Mallett'
p1525
sg46
g242
sg48
g242
sg50
S'2012'
p1526
ssg102
(dp1527
g5
g111
sg7
g102
sg9
S'-1.0'
p1528
sg11
S'33.3'
p1529
sg13
g111
sg15
S'17'
p1530
sg17
S'5.7'
p1531
sg19
S'--'
p1532
sg21
S'@STL'
p1533
sg23
g58
sg25
g58
sg27
g24
sg29
S'-3'
p1534
sg31
g24
sg32
S'--'
p1535
sg34
g24
sg36
g24
sg38
g24
sg40
g24
sg42
S'10/28'
p1536
sg44
S'Ryan Mallett'
p1537
sg46
S'53.5'
p1538
sg48
S'W45-7'
p1539
sg50
S'2012'
p1540
sss.