(dp0
S'2015'
p1
(dp2
S'11'
p3
(dp4
S'PassAtt'
p5
S'--'
p6
sS'WK'
p7
S'11'
p8
sS'RushAvg'
p9
S'--'
p10
sS'Pct'
p11
S'--'
p12
sS'RushAtt'
p13
S'--'
p14
sS'PassYds'
p15
S'--'
p16
sS'PassAvg'
p17
S'--'
p18
sS'FUM'
p19
S'--'
p20
sS'Opp'
p21
S'@PHI'
p22
sS'G'
p23
S'0'
p24
sS'Comp'
p25
S'--'
p26
sS'SckY'
p27
S'--'
p28
sS'RushYds'
p29
S'--'
p30
sS'GS'
p31
g24
sS'Lost'
p32
S'--'
p33
sS'RushTD'
p34
S'--'
p35
sS'PassTD'
p36
S'--'
p37
sS'Sck'
p38
S'--'
p39
sS'Int'
p40
S'--'
p41
sS'Game Date'
p42
S'11/22'
p43
sS'Player'
p44
S'Ryan Griffin'
p45
sS'Rate'
p46
S'0.0'
p47
sS'Result'
p48
S'W45-17'
p49
sS'Year'
p50
S'2015'
p51
ssS'10'
p52
(dp53
g5
S'--'
p54
sg7
S'10'
p55
sg9
S'--'
p56
sg11
S'--'
p57
sg13
S'--'
p58
sg15
S'--'
p59
sg17
S'--'
p60
sg19
S'--'
p61
sg21
S'DAL'
p62
sg23
g24
sg25
S'--'
p63
sg27
S'--'
p64
sg29
S'--'
p65
sg31
g24
sg32
S'--'
p66
sg34
S'--'
p67
sg36
S'--'
p68
sg38
S'--'
p69
sg40
S'--'
p70
sg42
S'11/15'
p71
sg44
S'Ryan Griffin'
p72
sg46
S'0.0'
p73
sg48
S'W10-6'
p74
sg50
S'2015'
p75
ssS'13'
p76
(dp77
g5
S'--'
p78
sg7
S'13'
p79
sg9
S'--'
p80
sg11
S'--'
p81
sg13
S'--'
p82
sg15
S'--'
p83
sg17
S'--'
p84
sg19
S'--'
p85
sg21
S'ATL'
p86
sg23
g24
sg25
S'--'
p87
sg27
S'--'
p88
sg29
S'--'
p89
sg31
g24
sg32
S'--'
p90
sg34
S'--'
p91
sg36
S'--'
p92
sg38
S'--'
p93
sg40
S'--'
p94
sg42
S'12/06'
p95
sg44
S'Ryan Griffin'
p96
sg46
S'0.0'
p97
sg48
S'W23-19'
p98
sg50
S'2015'
p99
ssS'12'
p100
(dp101
g5
S'--'
p102
sg7
S'12'
p103
sg9
S'--'
p104
sg11
S'--'
p105
sg13
S'--'
p106
sg15
S'--'
p107
sg17
S'--'
p108
sg19
S'--'
p109
sg21
S'@IND'
p110
sg23
g24
sg25
S'--'
p111
sg27
S'--'
p112
sg29
S'--'
p113
sg31
g24
sg32
S'--'
p114
sg34
S'--'
p115
sg36
S'--'
p116
sg38
S'--'
p117
sg40
S'--'
p118
sg42
S'11/29'
p119
sg44
S'Ryan Griffin'
p120
sg46
S'0.0'
p121
sg48
S'L12-25'
p122
sg50
S'2015'
p123
ssS'15'
p124
(dp125
g5
S'--'
p126
sg7
S'15'
p127
sg9
S'--'
p128
sg11
S'--'
p129
sg13
S'--'
p130
sg15
S'--'
p131
sg17
S'--'
p132
sg19
S'--'
p133
sg21
S'@STL'
p134
sg23
g24
sg25
S'--'
p135
sg27
S'--'
p136
sg29
S'--'
p137
sg31
g24
sg32
S'--'
p138
sg34
S'--'
p139
sg36
S'--'
p140
sg38
S'--'
p141
sg40
S'--'
p142
sg42
S'12/17'
p143
sg44
S'Ryan Griffin'
p144
sg46
S'0.0'
p145
sg48
S'L23-31'
p146
sg50
S'2015'
p147
ssS'14'
p148
(dp149
g5
S'--'
p150
sg7
S'14'
p151
sg9
S'--'
p152
sg11
S'--'
p153
sg13
S'--'
p154
sg15
S'--'
p155
sg17
S'--'
p156
sg19
S'--'
p157
sg21
S'NO'
p158
sg23
g24
sg25
S'--'
p159
sg27
S'--'
p160
sg29
S'--'
p161
sg31
g24
sg32
S'--'
p162
sg34
S'--'
p163
sg36
S'--'
p164
sg38
S'--'
p165
sg40
S'--'
p166
sg42
S'12/13'
p167
sg44
S'Ryan Griffin'
p168
sg46
S'0.0'
p169
sg48
S'L17-24'
p170
sg50
S'2015'
p171
ssS'17'
p172
(dp173
g5
S'--'
p174
sg7
S'17'
p175
sg9
S'--'
p176
sg11
S'--'
p177
sg13
S'--'
p178
sg15
S'--'
p179
sg17
S'--'
p180
sg19
S'--'
p181
sg21
S'@CAR'
p182
sg23
g24
sg25
S'--'
p183
sg27
S'--'
p184
sg29
S'--'
p185
sg31
g24
sg32
S'--'
p186
sg34
S'--'
p187
sg36
S'--'
p188
sg38
S'--'
p189
sg40
S'--'
p190
sg42
S'01/03'
p191
sg44
S'Ryan Griffin'
p192
sg46
S'0.0'
p193
sg48
S'L10-38'
p194
sg50
S'2015'
p195
ssS'16'
p196
(dp197
g5
S'--'
p198
sg7
S'16'
p199
sg9
S'--'
p200
sg11
S'--'
p201
sg13
S'--'
p202
sg15
S'--'
p203
sg17
S'--'
p204
sg19
S'--'
p205
sg21
S'CHI'
p206
sg23
g24
sg25
S'--'
p207
sg27
S'--'
p208
sg29
S'--'
p209
sg31
g24
sg32
S'--'
p210
sg34
S'--'
p211
sg36
S'--'
p212
sg38
S'--'
p213
sg40
S'--'
p214
sg42
S'12/27'
p215
sg44
S'Ryan Griffin'
p216
sg46
S'0.0'
p217
sg48
S'L21-26'
p218
sg50
S'2015'
p219
ssS'1'
p220
(dp221
g5
S'--'
p222
sg7
g220
sg9
S'--'
p223
sg11
S'--'
p224
sg13
S'--'
p225
sg15
S'--'
p226
sg17
S'--'
p227
sg19
S'--'
p228
sg21
S'TEN'
p229
sg23
g24
sg25
S'--'
p230
sg27
S'--'
p231
sg29
S'--'
p232
sg31
g24
sg32
S'--'
p233
sg34
S'--'
p234
sg36
S'--'
p235
sg38
S'--'
p236
sg40
S'--'
p237
sg42
S'09/13'
p238
sg44
S'Ryan Griffin'
p239
sg46
S'0.0'
p240
sg48
S'L14-42'
p241
sg50
S'2015'
p242
ssS'3'
p243
(dp244
g5
S'--'
p245
sg7
g243
sg9
S'--'
p246
sg11
S'--'
p247
sg13
S'--'
p248
sg15
S'--'
p249
sg17
S'--'
p250
sg19
S'--'
p251
sg21
S'@HOU'
p252
sg23
g24
sg25
S'--'
p253
sg27
S'--'
p254
sg29
S'--'
p255
sg31
g24
sg32
S'--'
p256
sg34
S'--'
p257
sg36
S'--'
p258
sg38
S'--'
p259
sg40
S'--'
p260
sg42
S'09/27'
p261
sg44
S'Ryan Griffin'
p262
sg46
S'0.0'
p263
sg48
S'L9-19'
p264
sg50
S'2015'
p265
ssS'2'
p266
(dp267
g5
S'--'
p268
sg7
g266
sg9
S'--'
p269
sg11
S'--'
p270
sg13
S'--'
p271
sg15
S'--'
p272
sg17
S'--'
p273
sg19
S'--'
p274
sg21
S'@NO'
p275
sg23
g24
sg25
S'--'
p276
sg27
S'--'
p277
sg29
S'--'
p278
sg31
g24
sg32
S'--'
p279
sg34
S'--'
p280
sg36
S'--'
p281
sg38
S'--'
p282
sg40
S'--'
p283
sg42
S'09/20'
p284
sg44
S'Ryan Griffin'
p285
sg46
S'0.0'
p286
sg48
S'W26-19'
p287
sg50
S'2015'
p288
ssS'5'
p289
(dp290
g5
S'--'
p291
sg7
g289
sg9
S'--'
p292
sg11
S'--'
p293
sg13
S'--'
p294
sg15
S'--'
p295
sg17
S'--'
p296
sg19
S'--'
p297
sg21
S'JAC'
p298
sg23
g24
sg25
S'--'
p299
sg27
S'--'
p300
sg29
S'--'
p301
sg31
g24
sg32
S'--'
p302
sg34
S'--'
p303
sg36
S'--'
p304
sg38
S'--'
p305
sg40
S'--'
p306
sg42
S'10/11'
p307
sg44
S'Ryan Griffin'
p308
sg46
S'0.0'
p309
sg48
S'W38-31'
p310
sg50
S'2015'
p311
ssS'4'
p312
(dp313
g5
S'--'
p314
sg7
g312
sg9
S'--'
p315
sg11
S'--'
p316
sg13
S'--'
p317
sg15
S'--'
p318
sg17
S'--'
p319
sg19
S'--'
p320
sg21
S'CAR'
p321
sg23
g24
sg25
S'--'
p322
sg27
S'--'
p323
sg29
S'--'
p324
sg31
g24
sg32
S'--'
p325
sg34
S'--'
p326
sg36
S'--'
p327
sg38
S'--'
p328
sg40
S'--'
p329
sg42
S'10/04'
p330
sg44
S'Ryan Griffin'
p331
sg46
S'0.0'
p332
sg48
S'L23-37'
p333
sg50
S'2015'
p334
ssS'7'
p335
(dp336
g5
S'--'
p337
sg7
g335
sg9
S'--'
p338
sg11
S'--'
p339
sg13
S'--'
p340
sg15
S'--'
p341
sg17
S'--'
p342
sg19
S'--'
p343
sg21
S'@WAS'
p344
sg23
g24
sg25
S'--'
p345
sg27
S'--'
p346
sg29
S'--'
p347
sg31
g24
sg32
S'--'
p348
sg34
S'--'
p349
sg36
S'--'
p350
sg38
S'--'
p351
sg40
S'--'
p352
sg42
S'10/25'
p353
sg44
S'Ryan Griffin'
p354
sg46
S'0.0'
p355
sg48
S'L30-31'
p356
sg50
S'2015'
p357
ssS'6'
p358
(dp359
g5
S''
p360
sg7
g358
sg9
g360
sg11
g360
sg13
g360
sg15
g360
sg17
g360
sg19
g360
sg21
g360
sg23
g360
sg25
g360
sg27
g360
sg29
g360
sg31
g360
sg32
g360
sg34
g360
sg36
g360
sg38
g360
sg40
g360
sg42
S'Bye'
p361
sg44
S'Ryan Griffin'
p362
sg46
g360
sg48
g360
sg50
S'2015'
p363
ssS'9'
p364
(dp365
g5
S'--'
p366
sg7
g364
sg9
S'--'
p367
sg11
S'--'
p368
sg13
S'--'
p369
sg15
S'--'
p370
sg17
S'--'
p371
sg19
S'--'
p372
sg21
S'NYG'
p373
sg23
g24
sg25
S'--'
p374
sg27
S'--'
p375
sg29
S'--'
p376
sg31
g24
sg32
S'--'
p377
sg34
S'--'
p378
sg36
S'--'
p379
sg38
S'--'
p380
sg40
S'--'
p381
sg42
S'11/08'
p382
sg44
S'Ryan Griffin'
p383
sg46
S'0.0'
p384
sg48
S'L18-32'
p385
sg50
S'2015'
p386
ssS'8'
p387
(dp388
g5
S'--'
p389
sg7
g387
sg9
S'--'
p390
sg11
S'--'
p391
sg13
S'--'
p392
sg15
S'--'
p393
sg17
S'--'
p394
sg19
S'--'
p395
sg21
S'@ATL'
p396
sg23
g24
sg25
S'--'
p397
sg27
S'--'
p398
sg29
S'--'
p399
sg31
g24
sg32
S'--'
p400
sg34
S'--'
p401
sg36
S'--'
p402
sg38
S'--'
p403
sg40
S'--'
p404
sg42
S'11/01'
p405
sg44
S'Ryan Griffin'
p406
sg46
S'0.0'
p407
sg48
S'W23-20'
p408
sg50
S'2015'
p409
sssS'2014'
p410
(dp411
g172
(dp412
g5
S'--'
p413
sg7
S'17'
p414
sg9
S'--'
p415
sg11
S'--'
p416
sg13
S'--'
p417
sg15
S'--'
p418
sg17
S'--'
p419
sg19
S'--'
p420
sg21
S'@TB'
p421
sg23
g24
sg25
S'--'
p422
sg27
S'--'
p423
sg29
S'--'
p424
sg31
g24
sg32
S'--'
p425
sg34
S'--'
p426
sg36
S'--'
p427
sg38
S'--'
p428
sg40
S'--'
p429
sg42
S'12/28'
p430
sg44
S'Ryan Griffin'
p431
sg46
S'0.0'
p432
sg48
S'W23-20'
p433
sg50
S'2014'
p434
sssS'2013'
p435
(dp436
g3
(dp437
g5
S'--'
p438
sg7
S'11'
p439
sg9
S'--'
p440
sg11
S'--'
p441
sg13
S'--'
p442
sg15
S'--'
p443
sg17
S'--'
p444
sg19
S'--'
p445
sg21
S'SF'
p446
sg23
g24
sg25
S'--'
p447
sg27
S'--'
p448
sg29
S'--'
p449
sg31
g24
sg32
S'--'
p450
sg34
S'--'
p451
sg36
S'--'
p452
sg38
S'--'
p453
sg40
S'--'
p454
sg42
S'11/17'
p455
sg44
S'Ryan Griffin'
p456
sg46
S'0.0'
p457
sg48
S'W23-20'
p458
sg50
S'2013'
p459
ssg52
(dp460
g5
S'--'
p461
sg7
S'10'
p462
sg9
S'--'
p463
sg11
S'--'
p464
sg13
S'--'
p465
sg15
S'--'
p466
sg17
S'--'
p467
sg19
S'--'
p468
sg21
S'DAL'
p469
sg23
g24
sg25
S'--'
p470
sg27
S'--'
p471
sg29
S'--'
p472
sg31
g24
sg32
S'--'
p473
sg34
S'--'
p474
sg36
S'--'
p475
sg38
S'--'
p476
sg40
S'--'
p477
sg42
S'11/10'
p478
sg44
S'Ryan Griffin'
p479
sg46
S'0.0'
p480
sg48
S'W49-17'
p481
sg50
S'2013'
p482
ssg76
(dp483
g5
S'--'
p484
sg7
S'13'
p485
sg9
S'--'
p486
sg11
S'--'
p487
sg13
S'--'
p488
sg15
S'--'
p489
sg17
S'--'
p490
sg19
S'--'
p491
sg21
S'@SEA'
p492
sg23
g24
sg25
S'--'
p493
sg27
S'--'
p494
sg29
S'--'
p495
sg31
g24
sg32
S'--'
p496
sg34
S'--'
p497
sg36
S'--'
p498
sg38
S'--'
p499
sg40
S'--'
p500
sg42
S'12/02'
p501
sg44
S'Ryan Griffin'
p502
sg46
S'0.0'
p503
sg48
S'L7-34'
p504
sg50
S'2013'
p505
ssg100
(dp506
g5
S'--'
p507
sg7
S'12'
p508
sg9
S'--'
p509
sg11
S'--'
p510
sg13
S'--'
p511
sg15
S'--'
p512
sg17
S'--'
p513
sg19
S'--'
p514
sg21
S'@ATL'
p515
sg23
g24
sg25
S'--'
p516
sg27
S'--'
p517
sg29
S'--'
p518
sg31
g24
sg32
S'--'
p519
sg34
S'--'
p520
sg36
S'--'
p521
sg38
S'--'
p522
sg40
S'--'
p523
sg42
S'11/21'
p524
sg44
S'Ryan Griffin'
p525
sg46
S'0.0'
p526
sg48
S'W17-13'
p527
sg50
S'2013'
p528
ssg124
(dp529
g5
S'--'
p530
sg7
S'15'
p531
sg9
S'--'
p532
sg11
S'--'
p533
sg13
S'--'
p534
sg15
S'--'
p535
sg17
S'--'
p536
sg19
S'--'
p537
sg21
S'@STL'
p538
sg23
g24
sg25
S'--'
p539
sg27
S'--'
p540
sg29
S'--'
p541
sg31
g24
sg32
S'--'
p542
sg34
S'--'
p543
sg36
S'--'
p544
sg38
S'--'
p545
sg40
S'--'
p546
sg42
S'12/15'
p547
sg44
S'Ryan Griffin'
p548
sg46
S'0.0'
p549
sg48
S'L16-27'
p550
sg50
S'2013'
p551
ssg148
(dp552
g5
S'--'
p553
sg7
S'14'
p554
sg9
S'--'
p555
sg11
S'--'
p556
sg13
S'--'
p557
sg15
S'--'
p558
sg17
S'--'
p559
sg19
S'--'
p560
sg21
S'CAR'
p561
sg23
g24
sg25
S'--'
p562
sg27
S'--'
p563
sg29
S'--'
p564
sg31
g24
sg32
S'--'
p565
sg34
S'--'
p566
sg36
S'--'
p567
sg38
S'--'
p568
sg40
S'--'
p569
sg42
S'12/08'
p570
sg44
S'Ryan Griffin'
p571
sg46
S'0.0'
p572
sg48
S'W31-13'
p573
sg50
S'2013'
p574
ssg172
(dp575
g5
S'--'
p576
sg7
S'17'
p577
sg9
S'--'
p578
sg11
S'--'
p579
sg13
S'--'
p580
sg15
S'--'
p581
sg17
S'--'
p582
sg19
S'--'
p583
sg21
S'TB'
p584
sg23
g24
sg25
S'--'
p585
sg27
S'--'
p586
sg29
S'--'
p587
sg31
g24
sg32
S'--'
p588
sg34
S'--'
p589
sg36
S'--'
p590
sg38
S'--'
p591
sg40
S'--'
p592
sg42
S'12/29'
p593
sg44
S'Ryan Griffin'
p594
sg46
S'0.0'
p595
sg48
S'W42-17'
p596
sg50
S'2013'
p597
ssg196
(dp598
g5
S'--'
p599
sg7
S'16'
p600
sg9
S'--'
p601
sg11
S'--'
p602
sg13
S'--'
p603
sg15
S'--'
p604
sg17
S'--'
p605
sg19
S'--'
p606
sg21
S'@CAR'
p607
sg23
g24
sg25
S'--'
p608
sg27
S'--'
p609
sg29
S'--'
p610
sg31
g24
sg32
S'--'
p611
sg34
S'--'
p612
sg36
S'--'
p613
sg38
S'--'
p614
sg40
S'--'
p615
sg42
S'12/22'
p616
sg44
S'Ryan Griffin'
p617
sg46
S'0.0'
p618
sg48
S'L13-17'
p619
sg50
S'2013'
p620
ssg335
(dp621
g5
g360
sg7
g335
sg9
g360
sg11
g360
sg13
g360
sg15
g360
sg17
g360
sg19
g360
sg21
g360
sg23
g360
sg25
g360
sg27
g360
sg29
g360
sg31
g360
sg32
g360
sg34
g360
sg36
g360
sg38
g360
sg40
g360
sg42
S'Bye'
p622
sg44
S'Ryan Griffin'
p623
sg46
g360
sg48
g360
sg50
S'2013'
p624
ssg364
(dp625
g5
S'--'
p626
sg7
g364
sg9
S'--'
p627
sg11
S'--'
p628
sg13
S'--'
p629
sg15
S'--'
p630
sg17
S'--'
p631
sg19
S'--'
p632
sg21
S'@NYJ'
p633
sg23
g24
sg25
S'--'
p634
sg27
S'--'
p635
sg29
S'--'
p636
sg31
g24
sg32
S'--'
p637
sg34
S'--'
p638
sg36
S'--'
p639
sg38
S'--'
p640
sg40
S'--'
p641
sg42
S'11/03'
p642
sg44
S'Ryan Griffin'
p643
sg46
S'0.0'
p644
sg48
S'L20-26'
p645
sg50
S'2013'
p646
ssg387
(dp647
g5
S'--'
p648
sg7
g387
sg9
S'--'
p649
sg11
S'--'
p650
sg13
S'--'
p651
sg15
S'--'
p652
sg17
S'--'
p653
sg19
S'--'
p654
sg21
S'BUF'
p655
sg23
g24
sg25
S'--'
p656
sg27
S'--'
p657
sg29
S'--'
p658
sg31
g24
sg32
S'--'
p659
sg34
S'--'
p660
sg36
S'--'
p661
sg38
S'--'
p662
sg40
S'--'
p663
sg42
S'10/27'
p664
sg44
S'Ryan Griffin'
p665
sg46
S'0.0'
p666
sg48
S'W35-17'
p667
sg50
S'2013'
p668
sss.