(dp0
S'2015'
p1
(dp2
S'11'
p3
(dp4
S'PassAtt'
p5
S'--'
p6
sS'WK'
p7
S'11'
p8
sS'RushAvg'
p9
S'--'
p10
sS'Pct'
p11
S'--'
p12
sS'RushAtt'
p13
S'--'
p14
sS'PassYds'
p15
S'--'
p16
sS'PassAvg'
p17
S'--'
p18
sS'FUM'
p19
S'--'
p20
sS'Opp'
p21
S'@MIN'
p22
sS'G'
p23
S'0'
p24
sS'Comp'
p25
S'--'
p26
sS'SckY'
p27
S'--'
p28
sS'RushYds'
p29
S'--'
p30
sS'GS'
p31
g24
sS'Lost'
p32
S'--'
p33
sS'RushTD'
p34
S'--'
p35
sS'PassTD'
p36
S'--'
p37
sS'Sck'
p38
S'--'
p39
sS'Int'
p40
S'--'
p41
sS'Game Date'
p42
S'11/22'
p43
sS'Player'
p44
S'Scott Tolzien'
p45
sS'Rate'
p46
S'0.0'
p47
sS'Result'
p48
S'W30-13'
p49
sS'Year'
p50
S'2015'
p51
ssS'10'
p52
(dp53
g5
S'--'
p54
sg7
S'10'
p55
sg9
S'--'
p56
sg11
S'--'
p57
sg13
S'--'
p58
sg15
S'--'
p59
sg17
S'--'
p60
sg19
S'--'
p61
sg21
S'DET'
p62
sg23
g24
sg25
S'--'
p63
sg27
S'--'
p64
sg29
S'--'
p65
sg31
g24
sg32
S'--'
p66
sg34
S'--'
p67
sg36
S'--'
p68
sg38
S'--'
p69
sg40
S'--'
p70
sg42
S'11/15'
p71
sg44
S'Scott Tolzien'
p72
sg46
S'0.0'
p73
sg48
S'L16-18'
p74
sg50
S'2015'
p75
ssS'13'
p76
(dp77
g5
S'--'
p78
sg7
S'13'
p79
sg9
S'--'
p80
sg11
S'--'
p81
sg13
S'--'
p82
sg15
S'--'
p83
sg17
S'--'
p84
sg19
S'--'
p85
sg21
S'@DET'
p86
sg23
g24
sg25
S'--'
p87
sg27
S'--'
p88
sg29
S'--'
p89
sg31
g24
sg32
S'--'
p90
sg34
S'--'
p91
sg36
S'--'
p92
sg38
S'--'
p93
sg40
S'--'
p94
sg42
S'12/03'
p95
sg44
S'Scott Tolzien'
p96
sg46
S'0.0'
p97
sg48
S'W27-23'
p98
sg50
S'2015'
p99
ssS'12'
p100
(dp101
g5
S'--'
p102
sg7
S'12'
p103
sg9
S'--'
p104
sg11
S'--'
p105
sg13
S'--'
p106
sg15
S'--'
p107
sg17
S'--'
p108
sg19
S'--'
p109
sg21
S'CHI'
p110
sg23
g24
sg25
S'--'
p111
sg27
S'--'
p112
sg29
S'--'
p113
sg31
g24
sg32
S'--'
p114
sg34
S'--'
p115
sg36
S'--'
p116
sg38
S'--'
p117
sg40
S'--'
p118
sg42
S'11/26'
p119
sg44
S'Scott Tolzien'
p120
sg46
S'0.0'
p121
sg48
S'L13-17'
p122
sg50
S'2015'
p123
ssS'15'
p124
(dp125
g5
S'--'
p126
sg7
S'15'
p127
sg9
S'--'
p128
sg11
S'--'
p129
sg13
S'--'
p130
sg15
S'--'
p131
sg17
S'--'
p132
sg19
S'--'
p133
sg21
S'@OAK'
p134
sg23
g24
sg25
S'--'
p135
sg27
S'--'
p136
sg29
S'--'
p137
sg31
g24
sg32
S'--'
p138
sg34
S'--'
p139
sg36
S'--'
p140
sg38
S'--'
p141
sg40
S'--'
p142
sg42
S'12/20'
p143
sg44
S'Scott Tolzien'
p144
sg46
S'0.0'
p145
sg48
S'W30-20'
p146
sg50
S'2015'
p147
ssS'14'
p148
(dp149
g5
S'--'
p150
sg7
S'14'
p151
sg9
S'-1.5'
p152
sg11
S'--'
p153
sg13
S'2'
p154
sg15
S'--'
p155
sg17
S'--'
p156
sg19
S'--'
p157
sg21
S'DAL'
p158
sg23
S'1'
p159
sg25
S'--'
p160
sg27
S'--'
p161
sg29
S'-3'
p162
sg31
g24
sg32
S'--'
p163
sg34
g24
sg36
S'--'
p164
sg38
S'--'
p165
sg40
S'--'
p166
sg42
S'12/13'
p167
sg44
S'Scott Tolzien'
p168
sg46
S'0.0'
p169
sg48
S'W28-7'
p170
sg50
S'2015'
p171
ssS'17'
p172
(dp173
g5
S'--'
p174
sg7
S'17'
p175
sg9
S'--'
p176
sg11
S'--'
p177
sg13
S'--'
p178
sg15
S'--'
p179
sg17
S'--'
p180
sg19
S'--'
p181
sg21
S'MIN'
p182
sg23
g24
sg25
S'--'
p183
sg27
S'--'
p184
sg29
S'--'
p185
sg31
g24
sg32
S'--'
p186
sg34
S'--'
p187
sg36
S'--'
p188
sg38
S'--'
p189
sg40
S'--'
p190
sg42
S'01/03'
p191
sg44
S'Scott Tolzien'
p192
sg46
S'0.0'
p193
sg48
S'L13-20'
p194
sg50
S'2015'
p195
ssS'16'
p196
(dp197
g5
g159
sg7
S'16'
p198
sg9
S'0.0'
p199
sg11
S'100.0'
p200
sg13
g159
sg15
S'4'
p201
sg17
S'4.0'
p202
sg19
g159
sg21
S'@ARI'
p203
sg23
g159
sg25
g159
sg27
S'8'
p204
sg29
g24
sg31
g24
sg32
g24
sg34
g24
sg36
g24
sg38
g159
sg40
g24
sg42
S'12/27'
p205
sg44
S'Scott Tolzien'
p206
sg46
S'83.3'
p207
sg48
S'L8-38'
p208
sg50
S'2015'
p209
ssg159
(dp210
g5
S'--'
p211
sg7
g159
sg9
S'--'
p212
sg11
S'--'
p213
sg13
S'--'
p214
sg15
S'--'
p215
sg17
S'--'
p216
sg19
S'--'
p217
sg21
S'@CHI'
p218
sg23
g24
sg25
S'--'
p219
sg27
S'--'
p220
sg29
S'--'
p221
sg31
g24
sg32
S'--'
p222
sg34
S'--'
p223
sg36
S'--'
p224
sg38
S'--'
p225
sg40
S'--'
p226
sg42
S'09/13'
p227
sg44
S'Scott Tolzien'
p228
sg46
S'0.0'
p229
sg48
S'W31-23'
p230
sg50
S'2015'
p231
ssS'3'
p232
(dp233
g5
S'--'
p234
sg7
g232
sg9
S'--'
p235
sg11
S'--'
p236
sg13
S'--'
p237
sg15
S'--'
p238
sg17
S'--'
p239
sg19
S'--'
p240
sg21
S'KC'
p241
sg23
g24
sg25
S'--'
p242
sg27
S'--'
p243
sg29
S'--'
p244
sg31
g24
sg32
S'--'
p245
sg34
S'--'
p246
sg36
S'--'
p247
sg38
S'--'
p248
sg40
S'--'
p249
sg42
S'09/28'
p250
sg44
S'Scott Tolzien'
p251
sg46
S'0.0'
p252
sg48
S'W38-28'
p253
sg50
S'2015'
p254
ssg154
(dp255
g5
S'--'
p256
sg7
g154
sg9
S'--'
p257
sg11
S'--'
p258
sg13
S'--'
p259
sg15
S'--'
p260
sg17
S'--'
p261
sg19
S'--'
p262
sg21
S'SEA'
p263
sg23
g24
sg25
S'--'
p264
sg27
S'--'
p265
sg29
S'--'
p266
sg31
g24
sg32
S'--'
p267
sg34
S'--'
p268
sg36
S'--'
p269
sg38
S'--'
p270
sg40
S'--'
p271
sg42
S'09/20'
p272
sg44
S'Scott Tolzien'
p273
sg46
S'0.0'
p274
sg48
S'W27-17'
p275
sg50
S'2015'
p276
ssS'5'
p277
(dp278
g5
S'--'
p279
sg7
g277
sg9
S'--'
p280
sg11
S'--'
p281
sg13
S'--'
p282
sg15
S'--'
p283
sg17
S'--'
p284
sg19
S'--'
p285
sg21
S'STL'
p286
sg23
g24
sg25
S'--'
p287
sg27
S'--'
p288
sg29
S'--'
p289
sg31
g24
sg32
S'--'
p290
sg34
S'--'
p291
sg36
S'--'
p292
sg38
S'--'
p293
sg40
S'--'
p294
sg42
S'10/11'
p295
sg44
S'Scott Tolzien'
p296
sg46
S'0.0'
p297
sg48
S'W24-10'
p298
sg50
S'2015'
p299
ssg201
(dp300
g5
S'--'
p301
sg7
g201
sg9
S'--'
p302
sg11
S'--'
p303
sg13
S'--'
p304
sg15
S'--'
p305
sg17
S'--'
p306
sg19
S'--'
p307
sg21
S'@SF'
p308
sg23
g24
sg25
S'--'
p309
sg27
S'--'
p310
sg29
S'--'
p311
sg31
g24
sg32
S'--'
p312
sg34
S'--'
p313
sg36
S'--'
p314
sg38
S'--'
p315
sg40
S'--'
p316
sg42
S'10/04'
p317
sg44
S'Scott Tolzien'
p318
sg46
S'0.0'
p319
sg48
S'W17-3'
p320
sg50
S'2015'
p321
ssS'7'
p322
(dp323
g5
S''
p324
sg7
g322
sg9
g324
sg11
g324
sg13
g324
sg15
g324
sg17
g324
sg19
g324
sg21
g324
sg23
g324
sg25
g324
sg27
g324
sg29
g324
sg31
g324
sg32
g324
sg34
g324
sg36
g324
sg38
g324
sg40
g324
sg42
S'Bye'
p325
sg44
S'Scott Tolzien'
p326
sg46
g324
sg48
g324
sg50
S'2015'
p327
ssS'6'
p328
(dp329
g5
S'--'
p330
sg7
g328
sg9
S'--'
p331
sg11
S'--'
p332
sg13
S'--'
p333
sg15
S'--'
p334
sg17
S'--'
p335
sg19
S'--'
p336
sg21
S'SD'
p337
sg23
g24
sg25
S'--'
p338
sg27
S'--'
p339
sg29
S'--'
p340
sg31
g24
sg32
S'--'
p341
sg34
S'--'
p342
sg36
S'--'
p343
sg38
S'--'
p344
sg40
S'--'
p345
sg42
S'10/18'
p346
sg44
S'Scott Tolzien'
p347
sg46
S'0.0'
p348
sg48
S'W27-20'
p349
sg50
S'2015'
p350
ssS'9'
p351
(dp352
g5
S'--'
p353
sg7
g351
sg9
S'--'
p354
sg11
S'--'
p355
sg13
S'--'
p356
sg15
S'--'
p357
sg17
S'--'
p358
sg19
S'--'
p359
sg21
S'@CAR'
p360
sg23
g24
sg25
S'--'
p361
sg27
S'--'
p362
sg29
S'--'
p363
sg31
g24
sg32
S'--'
p364
sg34
S'--'
p365
sg36
S'--'
p366
sg38
S'--'
p367
sg40
S'--'
p368
sg42
S'11/08'
p369
sg44
S'Scott Tolzien'
p370
sg46
S'0.0'
p371
sg48
S'L29-37'
p372
sg50
S'2015'
p373
ssg204
(dp374
g5
S'--'
p375
sg7
g204
sg9
S'--'
p376
sg11
S'--'
p377
sg13
S'--'
p378
sg15
S'--'
p379
sg17
S'--'
p380
sg19
S'--'
p381
sg21
S'@DEN'
p382
sg23
g159
sg25
S'--'
p383
sg27
S'--'
p384
sg29
S'--'
p385
sg31
g24
sg32
S'--'
p386
sg34
S'--'
p387
sg36
S'--'
p388
sg38
S'--'
p389
sg40
S'--'
p390
sg42
S'11/01'
p391
sg44
S'Scott Tolzien'
p392
sg46
S'0.0'
p393
sg48
S'L10-29'
p394
sg50
S'2015'
p395
sssS'2014'
p396
(dp397
g3
(dp398
g5
S'--'
p399
sg7
S'11'
p400
sg9
S'--'
p401
sg11
S'--'
p402
sg13
S'--'
p403
sg15
S'--'
p404
sg17
S'--'
p405
sg19
S'--'
p406
sg21
S'PHI'
p407
sg23
g24
sg25
S'--'
p408
sg27
S'--'
p409
sg29
S'--'
p410
sg31
g24
sg32
S'--'
p411
sg34
S'--'
p412
sg36
S'--'
p413
sg38
S'--'
p414
sg40
S'--'
p415
sg42
S'11/16'
p416
sg44
S'Scott Tolzien'
p417
sg46
S'0.0'
p418
sg48
S'W53-20'
p419
sg50
S'2014'
p420
ssg52
(dp421
g5
S'--'
p422
sg7
S'10'
p423
sg9
S'--'
p424
sg11
S'--'
p425
sg13
S'--'
p426
sg15
S'--'
p427
sg17
S'--'
p428
sg19
S'--'
p429
sg21
S'CHI'
p430
sg23
g24
sg25
S'--'
p431
sg27
S'--'
p432
sg29
S'--'
p433
sg31
g24
sg32
S'--'
p434
sg34
S'--'
p435
sg36
S'--'
p436
sg38
S'--'
p437
sg40
S'--'
p438
sg42
S'11/09'
p439
sg44
S'Scott Tolzien'
p440
sg46
S'0.0'
p441
sg48
S'W55-14'
p442
sg50
S'2014'
p443
ssg76
(dp444
g5
S'--'
p445
sg7
S'13'
p446
sg9
S'--'
p447
sg11
S'--'
p448
sg13
S'--'
p449
sg15
S'--'
p450
sg17
S'--'
p451
sg19
S'--'
p452
sg21
S'NE'
p453
sg23
g24
sg25
S'--'
p454
sg27
S'--'
p455
sg29
S'--'
p456
sg31
g24
sg32
S'--'
p457
sg34
S'--'
p458
sg36
S'--'
p459
sg38
S'--'
p460
sg40
S'--'
p461
sg42
S'11/30'
p462
sg44
S'Scott Tolzien'
p463
sg46
S'0.0'
p464
sg48
S'W26-21'
p465
sg50
S'2014'
p466
ssg100
(dp467
g5
S'--'
p468
sg7
S'12'
p469
sg9
S'--'
p470
sg11
S'--'
p471
sg13
S'--'
p472
sg15
S'--'
p473
sg17
S'--'
p474
sg19
S'--'
p475
sg21
S'@MIN'
p476
sg23
g24
sg25
S'--'
p477
sg27
S'--'
p478
sg29
S'--'
p479
sg31
g24
sg32
S'--'
p480
sg34
S'--'
p481
sg36
S'--'
p482
sg38
S'--'
p483
sg40
S'--'
p484
sg42
S'11/23'
p485
sg44
S'Scott Tolzien'
p486
sg46
S'0.0'
p487
sg48
S'W24-21'
p488
sg50
S'2014'
p489
ssg124
(dp490
g5
S'--'
p491
sg7
S'15'
p492
sg9
S'--'
p493
sg11
S'--'
p494
sg13
S'--'
p495
sg15
S'--'
p496
sg17
S'--'
p497
sg19
S'--'
p498
sg21
S'@BUF'
p499
sg23
g24
sg25
S'--'
p500
sg27
S'--'
p501
sg29
S'--'
p502
sg31
g24
sg32
S'--'
p503
sg34
S'--'
p504
sg36
S'--'
p505
sg38
S'--'
p506
sg40
S'--'
p507
sg42
S'12/14'
p508
sg44
S'Scott Tolzien'
p509
sg46
S'0.0'
p510
sg48
S'L13-21'
p511
sg50
S'2014'
p512
ssg148
(dp513
g5
S'--'
p514
sg7
S'14'
p515
sg9
S'--'
p516
sg11
S'--'
p517
sg13
S'--'
p518
sg15
S'--'
p519
sg17
S'--'
p520
sg19
S'--'
p521
sg21
S'ATL'
p522
sg23
g24
sg25
S'--'
p523
sg27
S'--'
p524
sg29
S'--'
p525
sg31
g24
sg32
S'--'
p526
sg34
S'--'
p527
sg36
S'--'
p528
sg38
S'--'
p529
sg40
S'--'
p530
sg42
S'12/08'
p531
sg44
S'Scott Tolzien'
p532
sg46
S'0.0'
p533
sg48
S'W43-37'
p534
sg50
S'2014'
p535
ssg172
(dp536
g5
S'--'
p537
sg7
S'17'
p538
sg9
S'--'
p539
sg11
S'--'
p540
sg13
S'--'
p541
sg15
S'--'
p542
sg17
S'--'
p543
sg19
S'--'
p544
sg21
S'DET'
p545
sg23
g24
sg25
S'--'
p546
sg27
S'--'
p547
sg29
S'--'
p548
sg31
g24
sg32
S'--'
p549
sg34
S'--'
p550
sg36
S'--'
p551
sg38
S'--'
p552
sg40
S'--'
p553
sg42
S'12/28'
p554
sg44
S'Scott Tolzien'
p555
sg46
S'0.0'
p556
sg48
S'W30-20'
p557
sg50
S'2014'
p558
ssg196
(dp559
g5
S'--'
p560
sg7
S'16'
p561
sg9
S'--'
p562
sg11
S'--'
p563
sg13
S'--'
p564
sg15
S'--'
p565
sg17
S'--'
p566
sg19
S'--'
p567
sg21
S'@TB'
p568
sg23
g24
sg25
S'--'
p569
sg27
S'--'
p570
sg29
S'--'
p571
sg31
g24
sg32
S'--'
p572
sg34
S'--'
p573
sg36
S'--'
p574
sg38
S'--'
p575
sg40
S'--'
p576
sg42
S'12/21'
p577
sg44
S'Scott Tolzien'
p578
sg46
S'0.0'
p579
sg48
S'W20-3'
p580
sg50
S'2014'
p581
ssg159
(dp582
g5
S'--'
p583
sg7
g159
sg9
S'--'
p584
sg11
S'--'
p585
sg13
S'--'
p586
sg15
S'--'
p587
sg17
S'--'
p588
sg19
S'--'
p589
sg21
S'@SEA'
p590
sg23
g24
sg25
S'--'
p591
sg27
S'--'
p592
sg29
S'--'
p593
sg31
g24
sg32
S'--'
p594
sg34
S'--'
p595
sg36
S'--'
p596
sg38
S'--'
p597
sg40
S'--'
p598
sg42
S'09/04'
p599
sg44
S'Scott Tolzien'
p600
sg46
S'0.0'
p601
sg48
S'L16-36'
p602
sg50
S'2014'
p603
ssg232
(dp604
g5
S'--'
p605
sg7
g232
sg9
S'--'
p606
sg11
S'--'
p607
sg13
S'--'
p608
sg15
S'--'
p609
sg17
S'--'
p610
sg19
S'--'
p611
sg21
S'@DET'
p612
sg23
g24
sg25
S'--'
p613
sg27
S'--'
p614
sg29
S'--'
p615
sg31
g24
sg32
S'--'
p616
sg34
S'--'
p617
sg36
S'--'
p618
sg38
S'--'
p619
sg40
S'--'
p620
sg42
S'09/21'
p621
sg44
S'Scott Tolzien'
p622
sg46
S'0.0'
p623
sg48
S'L7-19'
p624
sg50
S'2014'
p625
ssg154
(dp626
g5
S'--'
p627
sg7
g154
sg9
S'--'
p628
sg11
S'--'
p629
sg13
S'--'
p630
sg15
S'--'
p631
sg17
S'--'
p632
sg19
S'--'
p633
sg21
S'NYJ'
p634
sg23
g24
sg25
S'--'
p635
sg27
S'--'
p636
sg29
S'--'
p637
sg31
g24
sg32
S'--'
p638
sg34
S'--'
p639
sg36
S'--'
p640
sg38
S'--'
p641
sg40
S'--'
p642
sg42
S'09/14'
p643
sg44
S'Scott Tolzien'
p644
sg46
S'0.0'
p645
sg48
S'W31-24'
p646
sg50
S'2014'
p647
ssg277
(dp648
g5
S'--'
p649
sg7
g277
sg9
S'--'
p650
sg11
S'--'
p651
sg13
S'--'
p652
sg15
S'--'
p653
sg17
S'--'
p654
sg19
S'--'
p655
sg21
S'MIN'
p656
sg23
g24
sg25
S'--'
p657
sg27
S'--'
p658
sg29
S'--'
p659
sg31
g24
sg32
S'--'
p660
sg34
S'--'
p661
sg36
S'--'
p662
sg38
S'--'
p663
sg40
S'--'
p664
sg42
S'10/02'
p665
sg44
S'Scott Tolzien'
p666
sg46
S'0.0'
p667
sg48
S'W42-10'
p668
sg50
S'2014'
p669
ssg201
(dp670
g5
S'--'
p671
sg7
g201
sg9
S'--'
p672
sg11
S'--'
p673
sg13
S'--'
p674
sg15
S'--'
p675
sg17
S'--'
p676
sg19
S'--'
p677
sg21
S'@CHI'
p678
sg23
g24
sg25
S'--'
p679
sg27
S'--'
p680
sg29
S'--'
p681
sg31
g24
sg32
S'--'
p682
sg34
S'--'
p683
sg36
S'--'
p684
sg38
S'--'
p685
sg40
S'--'
p686
sg42
S'09/28'
p687
sg44
S'Scott Tolzien'
p688
sg46
S'0.0'
p689
sg48
S'W38-17'
p690
sg50
S'2014'
p691
ssg322
(dp692
g5
S'--'
p693
sg7
g322
sg9
S'--'
p694
sg11
S'--'
p695
sg13
S'--'
p696
sg15
S'--'
p697
sg17
S'--'
p698
sg19
S'--'
p699
sg21
S'CAR'
p700
sg23
g24
sg25
S'--'
p701
sg27
S'--'
p702
sg29
S'--'
p703
sg31
g24
sg32
S'--'
p704
sg34
S'--'
p705
sg36
S'--'
p706
sg38
S'--'
p707
sg40
S'--'
p708
sg42
S'10/19'
p709
sg44
S'Scott Tolzien'
p710
sg46
S'0.0'
p711
sg48
S'W38-17'
p712
sg50
S'2014'
p713
ssg328
(dp714
g5
S'--'
p715
sg7
g328
sg9
S'--'
p716
sg11
S'--'
p717
sg13
S'--'
p718
sg15
S'--'
p719
sg17
S'--'
p720
sg19
S'--'
p721
sg21
S'@MIA'
p722
sg23
g24
sg25
S'--'
p723
sg27
S'--'
p724
sg29
S'--'
p725
sg31
g24
sg32
S'--'
p726
sg34
S'--'
p727
sg36
S'--'
p728
sg38
S'--'
p729
sg40
S'--'
p730
sg42
S'10/12'
p731
sg44
S'Scott Tolzien'
p732
sg46
S'0.0'
p733
sg48
S'W27-24'
p734
sg50
S'2014'
p735
ssg351
(dp736
g5
g324
sg7
g351
sg9
g324
sg11
g324
sg13
g324
sg15
g324
sg17
g324
sg19
g324
sg21
g324
sg23
g324
sg25
g324
sg27
g324
sg29
g324
sg31
g324
sg32
g324
sg34
g324
sg36
g324
sg38
g324
sg40
g324
sg42
S'Bye'
p737
sg44
S'Scott Tolzien'
p738
sg46
g324
sg48
g324
sg50
S'2014'
p739
ssg204
(dp740
g5
S'--'
p741
sg7
g204
sg9
S'--'
p742
sg11
S'--'
p743
sg13
S'--'
p744
sg15
S'--'
p745
sg17
S'--'
p746
sg19
S'--'
p747
sg21
S'@NO'
p748
sg23
g24
sg25
S'--'
p749
sg27
S'--'
p750
sg29
S'--'
p751
sg31
g24
sg32
S'--'
p752
sg34
S'--'
p753
sg36
S'--'
p754
sg38
S'--'
p755
sg40
S'--'
p756
sg42
S'10/26'
p757
sg44
S'Scott Tolzien'
p758
sg46
S'0.0'
p759
sg48
S'L23-44'
p760
sg50
S'2014'
p761
sssS'2011'
p762
(dp763
g3
(dp764
g5
S'--'
p765
sg7
S'11'
p766
sg9
S'--'
p767
sg11
S'--'
p768
sg13
S'--'
p769
sg15
S'--'
p770
sg17
S'--'
p771
sg19
S'--'
p772
sg21
S'ARI'
p773
sg23
g24
sg25
S'--'
p774
sg27
S'--'
p775
sg29
S'--'
p776
sg31
g24
sg32
S'--'
p777
sg34
S'--'
p778
sg36
S'--'
p779
sg38
S'--'
p780
sg40
S'--'
p781
sg42
S'11/20'
p782
sg44
S'Scott Tolzien'
p783
sg46
S'0.0'
p784
sg48
S'W23-7'
p785
sg50
S'2011'
p786
ssg52
(dp787
g5
S'--'
p788
sg7
S'10'
p789
sg9
S'--'
p790
sg11
S'--'
p791
sg13
S'--'
p792
sg15
S'--'
p793
sg17
S'--'
p794
sg19
S'--'
p795
sg21
S'NYG'
p796
sg23
g24
sg25
S'--'
p797
sg27
S'--'
p798
sg29
S'--'
p799
sg31
g24
sg32
S'--'
p800
sg34
S'--'
p801
sg36
S'--'
p802
sg38
S'--'
p803
sg40
S'--'
p804
sg42
S'11/13'
p805
sg44
S'Scott Tolzien'
p806
sg46
S'0.0'
p807
sg48
S'W27-20'
p808
sg50
S'2011'
p809
ssg76
(dp810
g5
S'--'
p811
sg7
S'13'
p812
sg9
S'--'
p813
sg11
S'--'
p814
sg13
S'--'
p815
sg15
S'--'
p816
sg17
S'--'
p817
sg19
S'--'
p818
sg21
S'STL'
p819
sg23
g24
sg25
S'--'
p820
sg27
S'--'
p821
sg29
S'--'
p822
sg31
g24
sg32
S'--'
p823
sg34
S'--'
p824
sg36
S'--'
p825
sg38
S'--'
p826
sg40
S'--'
p827
sg42
S'12/04'
p828
sg44
S'Scott Tolzien'
p829
sg46
S'0.0'
p830
sg48
S'W26-0'
p831
sg50
S'2011'
p832
ssg100
(dp833
g5
S'--'
p834
sg7
S'12'
p835
sg9
S'--'
p836
sg11
S'--'
p837
sg13
S'--'
p838
sg15
S'--'
p839
sg17
S'--'
p840
sg19
S'--'
p841
sg21
S'@BAL'
p842
sg23
g24
sg25
S'--'
p843
sg27
S'--'
p844
sg29
S'--'
p845
sg31
g24
sg32
S'--'
p846
sg34
S'--'
p847
sg36
S'--'
p848
sg38
S'--'
p849
sg40
S'--'
p850
sg42
S'11/24'
p851
sg44
S'Scott Tolzien'
p852
sg46
S'0.0'
p853
sg48
S'L6-16'
p854
sg50
S'2011'
p855
ssg124
(dp856
g5
S'--'
p857
sg7
S'15'
p858
sg9
S'--'
p859
sg11
S'--'
p860
sg13
S'--'
p861
sg15
S'--'
p862
sg17
S'--'
p863
sg19
S'--'
p864
sg21
S'PIT'
p865
sg23
g24
sg25
S'--'
p866
sg27
S'--'
p867
sg29
S'--'
p868
sg31
g24
sg32
S'--'
p869
sg34
S'--'
p870
sg36
S'--'
p871
sg38
S'--'
p872
sg40
S'--'
p873
sg42
S'12/19'
p874
sg44
S'Scott Tolzien'
p875
sg46
S'0.0'
p876
sg48
S'W20-3'
p877
sg50
S'2011'
p878
ssg148
(dp879
g5
S'--'
p880
sg7
S'14'
p881
sg9
S'--'
p882
sg11
S'--'
p883
sg13
S'--'
p884
sg15
S'--'
p885
sg17
S'--'
p886
sg19
S'--'
p887
sg21
S'@ARI'
p888
sg23
g24
sg25
S'--'
p889
sg27
S'--'
p890
sg29
S'--'
p891
sg31
g24
sg32
S'--'
p892
sg34
S'--'
p893
sg36
S'--'
p894
sg38
S'--'
p895
sg40
S'--'
p896
sg42
S'12/11'
p897
sg44
S'Scott Tolzien'
p898
sg46
S'0.0'
p899
sg48
S'L19-21'
p900
sg50
S'2011'
p901
ssg172
(dp902
g5
S'--'
p903
sg7
S'17'
p904
sg9
S'--'
p905
sg11
S'--'
p906
sg13
S'--'
p907
sg15
S'--'
p908
sg17
S'--'
p909
sg19
S'--'
p910
sg21
S'@STL'
p911
sg23
g24
sg25
S'--'
p912
sg27
S'--'
p913
sg29
S'--'
p914
sg31
g24
sg32
S'--'
p915
sg34
S'--'
p916
sg36
S'--'
p917
sg38
S'--'
p918
sg40
S'--'
p919
sg42
S'01/01'
p920
sg44
S'Scott Tolzien'
p921
sg46
S'0.0'
p922
sg48
S'W34-27'
p923
sg50
S'2011'
p924
ssg196
(dp925
g5
S'--'
p926
sg7
S'16'
p927
sg9
S'--'
p928
sg11
S'--'
p929
sg13
S'--'
p930
sg15
S'--'
p931
sg17
S'--'
p932
sg19
S'--'
p933
sg21
S'@SEA'
p934
sg23
g24
sg25
S'--'
p935
sg27
S'--'
p936
sg29
S'--'
p937
sg31
g24
sg32
S'--'
p938
sg34
S'--'
p939
sg36
S'--'
p940
sg38
S'--'
p941
sg40
S'--'
p942
sg42
S'12/24'
p943
sg44
S'Scott Tolzien'
p944
sg46
S'0.0'
p945
sg48
S'W19-17'
p946
sg50
S'2011'
p947
ssg159
(dp948
g5
S'--'
p949
sg7
g159
sg9
S'--'
p950
sg11
S'--'
p951
sg13
S'--'
p952
sg15
S'--'
p953
sg17
S'--'
p954
sg19
S'--'
p955
sg21
S'SEA'
p956
sg23
g24
sg25
S'--'
p957
sg27
S'--'
p958
sg29
S'--'
p959
sg31
g24
sg32
S'--'
p960
sg34
S'--'
p961
sg36
S'--'
p962
sg38
S'--'
p963
sg40
S'--'
p964
sg42
S'09/11'
p965
sg44
S'Scott Tolzien'
p966
sg46
S'0.0'
p967
sg48
S'W33-17'
p968
sg50
S'2011'
p969
ssg232
(dp970
g5
S'--'
p971
sg7
g232
sg9
S'--'
p972
sg11
S'--'
p973
sg13
S'--'
p974
sg15
S'--'
p975
sg17
S'--'
p976
sg19
S'--'
p977
sg21
S'@CIN'
p978
sg23
g24
sg25
S'--'
p979
sg27
S'--'
p980
sg29
S'--'
p981
sg31
g24
sg32
S'--'
p982
sg34
S'--'
p983
sg36
S'--'
p984
sg38
S'--'
p985
sg40
S'--'
p986
sg42
S'09/25'
p987
sg44
S'Scott Tolzien'
p988
sg46
S'0.0'
p989
sg48
S'W13-8'
p990
sg50
S'2011'
p991
ssg154
(dp992
g5
S'--'
p993
sg7
g154
sg9
S'--'
p994
sg11
S'--'
p995
sg13
S'--'
p996
sg15
S'--'
p997
sg17
S'--'
p998
sg19
S'--'
p999
sg21
S'DAL'
p1000
sg23
g24
sg25
S'--'
p1001
sg27
S'--'
p1002
sg29
S'--'
p1003
sg31
g24
sg32
S'--'
p1004
sg34
S'--'
p1005
sg36
S'--'
p1006
sg38
S'--'
p1007
sg40
S'--'
p1008
sg42
S'09/18'
p1009
sg44
S'Scott Tolzien'
p1010
sg46
S'0.0'
p1011
sg48
S'L24-27'
p1012
sg50
S'2011'
p1013
ssg277
(dp1014
g5
S'--'
p1015
sg7
g277
sg9
S'--'
p1016
sg11
S'--'
p1017
sg13
S'--'
p1018
sg15
S'--'
p1019
sg17
S'--'
p1020
sg19
S'--'
p1021
sg21
S'TB'
p1022
sg23
g24
sg25
S'--'
p1023
sg27
S'--'
p1024
sg29
S'--'
p1025
sg31
g24
sg32
S'--'
p1026
sg34
S'--'
p1027
sg36
S'--'
p1028
sg38
S'--'
p1029
sg40
S'--'
p1030
sg42
S'10/09'
p1031
sg44
S'Scott Tolzien'
p1032
sg46
S'0.0'
p1033
sg48
S'W48-3'
p1034
sg50
S'2011'
p1035
ssg201
(dp1036
g5
S'--'
p1037
sg7
g201
sg9
S'--'
p1038
sg11
S'--'
p1039
sg13
S'--'
p1040
sg15
S'--'
p1041
sg17
S'--'
p1042
sg19
S'--'
p1043
sg21
S'@PHI'
p1044
sg23
g24
sg25
S'--'
p1045
sg27
S'--'
p1046
sg29
S'--'
p1047
sg31
g24
sg32
S'--'
p1048
sg34
S'--'
p1049
sg36
S'--'
p1050
sg38
S'--'
p1051
sg40
S'--'
p1052
sg42
S'10/02'
p1053
sg44
S'Scott Tolzien'
p1054
sg46
S'0.0'
p1055
sg48
S'W24-23'
p1056
sg50
S'2011'
p1057
ssg322
(dp1058
g5
g324
sg7
g322
sg9
g324
sg11
g324
sg13
g324
sg15
g324
sg17
g324
sg19
g324
sg21
g324
sg23
g324
sg25
g324
sg27
g324
sg29
g324
sg31
g324
sg32
g324
sg34
g324
sg36
g324
sg38
g324
sg40
g324
sg42
S'Bye'
p1059
sg44
S'Scott Tolzien'
p1060
sg46
g324
sg48
g324
sg50
S'2011'
p1061
ssg328
(dp1062
g5
S'--'
p1063
sg7
g328
sg9
S'--'
p1064
sg11
S'--'
p1065
sg13
S'--'
p1066
sg15
S'--'
p1067
sg17
S'--'
p1068
sg19
S'--'
p1069
sg21
S'@DET'
p1070
sg23
g24
sg25
S'--'
p1071
sg27
S'--'
p1072
sg29
S'--'
p1073
sg31
g24
sg32
S'--'
p1074
sg34
S'--'
p1075
sg36
S'--'
p1076
sg38
S'--'
p1077
sg40
S'--'
p1078
sg42
S'10/16'
p1079
sg44
S'Scott Tolzien'
p1080
sg46
S'0.0'
p1081
sg48
S'W25-19'
p1082
sg50
S'2011'
p1083
ssg351
(dp1084
g5
S'--'
p1085
sg7
g351
sg9
S'--'
p1086
sg11
S'--'
p1087
sg13
S'--'
p1088
sg15
S'--'
p1089
sg17
S'--'
p1090
sg19
S'--'
p1091
sg21
S'@WAS'
p1092
sg23
g24
sg25
S'--'
p1093
sg27
S'--'
p1094
sg29
S'--'
p1095
sg31
g24
sg32
S'--'
p1096
sg34
S'--'
p1097
sg36
S'--'
p1098
sg38
S'--'
p1099
sg40
S'--'
p1100
sg42
S'11/06'
p1101
sg44
S'Scott Tolzien'
p1102
sg46
S'0.0'
p1103
sg48
S'W19-11'
p1104
sg50
S'2011'
p1105
ssg204
(dp1106
g5
S'--'
p1107
sg7
g204
sg9
S'--'
p1108
sg11
S'--'
p1109
sg13
S'--'
p1110
sg15
S'--'
p1111
sg17
S'--'
p1112
sg19
S'--'
p1113
sg21
S'CLE'
p1114
sg23
g24
sg25
S'--'
p1115
sg27
S'--'
p1116
sg29
S'--'
p1117
sg31
g24
sg32
S'--'
p1118
sg34
S'--'
p1119
sg36
S'--'
p1120
sg38
S'--'
p1121
sg40
S'--'
p1122
sg42
S'10/30'
p1123
sg44
S'Scott Tolzien'
p1124
sg46
S'0.0'
p1125
sg48
S'W20-10'
p1126
sg50
S'2011'
p1127
sssS'2013'
p1128
(dp1129
g3
(dp1130
g5
S'34'
p1131
sg7
S'11'
p1132
sg9
S'5.5'
p1133
sg11
S'70.6'
p1134
sg13
g154
sg15
S'339'
p1135
sg17
S'10.0'
p1136
sg19
S'--'
p1137
sg21
S'@NYG'
p1138
sg23
g159
sg25
S'24'
p1139
sg27
g24
sg29
S'11'
p1140
sg31
g159
sg32
S'--'
p1141
sg34
g24
sg36
g24
sg38
g24
sg40
g232
sg42
S'11/17'
p1142
sg44
S'Scott Tolzien'
p1143
sg46
S'65.7'
p1144
sg48
S'L13-27'
p1145
sg50
S'2013'
p1146
ssg52
(dp1147
g5
S'39'
p1148
sg7
S'10'
p1149
sg9
S'19.0'
p1150
sg11
S'61.5'
p1151
sg13
g159
sg15
S'280'
p1152
sg17
S'7.2'
p1153
sg19
S'--'
p1154
sg21
S'PHI'
p1155
sg23
g159
sg25
S'24'
p1156
sg27
g204
sg29
S'19'
p1157
sg31
g24
sg32
S'--'
p1158
sg34
g24
sg36
g159
sg38
g159
sg40
g154
sg42
S'11/10'
p1159
sg44
S'Scott Tolzien'
p1160
sg46
S'70.5'
p1161
sg48
S'L13-27'
p1162
sg50
S'2013'
p1163
ssg76
(dp1164
g5
S'--'
p1165
sg7
S'13'
p1166
sg9
S'--'
p1167
sg11
S'--'
p1168
sg13
S'--'
p1169
sg15
S'--'
p1170
sg17
S'--'
p1171
sg19
S'--'
p1172
sg21
S'@DET'
p1173
sg23
g24
sg25
S'--'
p1174
sg27
S'--'
p1175
sg29
S'--'
p1176
sg31
g24
sg32
S'--'
p1177
sg34
S'--'
p1178
sg36
S'--'
p1179
sg38
S'--'
p1180
sg40
S'--'
p1181
sg42
S'11/28'
p1182
sg44
S'Scott Tolzien'
p1183
sg46
S'0.0'
p1184
sg48
S'L10-40'
p1185
sg50
S'2013'
p1186
ssg100
(dp1187
g5
S'17'
p1188
sg7
S'12'
p1189
sg9
S'12.5'
p1190
sg11
S'41.2'
p1191
sg13
g154
sg15
S'98'
p1192
sg17
S'5.8'
p1193
sg19
S'--'
p1194
sg21
S'MIN'
p1195
sg23
g159
sg25
g322
sg27
S'18'
p1196
sg29
S'25'
p1197
sg31
g159
sg32
S'--'
p1198
sg34
g159
sg36
g24
sg38
g154
sg40
g24
sg42
S'11/24'
p1199
sg44
S'Scott Tolzien'
p1200
sg46
S'60.4'
p1201
sg48
S'T26-26'
p1202
sg50
S'2013'
p1203
ssg124
(dp1204
g5
S'--'
p1205
sg7
S'15'
p1206
sg9
S'--'
p1207
sg11
S'--'
p1208
sg13
S'--'
p1209
sg15
S'--'
p1210
sg17
S'--'
p1211
sg19
S'--'
p1212
sg21
S'@DAL'
p1213
sg23
g24
sg25
S'--'
p1214
sg27
S'--'
p1215
sg29
S'--'
p1216
sg31
g24
sg32
S'--'
p1217
sg34
S'--'
p1218
sg36
S'--'
p1219
sg38
S'--'
p1220
sg40
S'--'
p1221
sg42
S'12/15'
p1222
sg44
S'Scott Tolzien'
p1223
sg46
S'0.0'
p1224
sg48
S'W37-36'
p1225
sg50
S'2013'
p1226
ssg148
(dp1227
g5
S'--'
p1228
sg7
S'14'
p1229
sg9
S'--'
p1230
sg11
S'--'
p1231
sg13
S'--'
p1232
sg15
S'--'
p1233
sg17
S'--'
p1234
sg19
S'--'
p1235
sg21
S'ATL'
p1236
sg23
g24
sg25
S'--'
p1237
sg27
S'--'
p1238
sg29
S'--'
p1239
sg31
g24
sg32
S'--'
p1240
sg34
S'--'
p1241
sg36
S'--'
p1242
sg38
S'--'
p1243
sg40
S'--'
p1244
sg42
S'12/08'
p1245
sg44
S'Scott Tolzien'
p1246
sg46
S'0.0'
p1247
sg48
S'W22-21'
p1248
sg50
S'2013'
p1249
ssg172
(dp1250
g5
S'--'
p1251
sg7
S'17'
p1252
sg9
S'--'
p1253
sg11
S'--'
p1254
sg13
S'--'
p1255
sg15
S'--'
p1256
sg17
S'--'
p1257
sg19
S'--'
p1258
sg21
S'@CHI'
p1259
sg23
g24
sg25
S'--'
p1260
sg27
S'--'
p1261
sg29
S'--'
p1262
sg31
g24
sg32
S'--'
p1263
sg34
S'--'
p1264
sg36
S'--'
p1265
sg38
S'--'
p1266
sg40
S'--'
p1267
sg42
S'12/29'
p1268
sg44
S'Scott Tolzien'
p1269
sg46
S'0.0'
p1270
sg48
S'W33-28'
p1271
sg50
S'2013'
p1272
ssg196
(dp1273
g5
S'--'
p1274
sg7
S'16'
p1275
sg9
S'--'
p1276
sg11
S'--'
p1277
sg13
S'--'
p1278
sg15
S'--'
p1279
sg17
S'--'
p1280
sg19
S'--'
p1281
sg21
S'PIT'
p1282
sg23
g24
sg25
S'--'
p1283
sg27
S'--'
p1284
sg29
S'--'
p1285
sg31
g24
sg32
S'--'
p1286
sg34
S'--'
p1287
sg36
S'--'
p1288
sg38
S'--'
p1289
sg40
S'--'
p1290
sg42
S'12/22'
p1291
sg44
S'Scott Tolzien'
p1292
sg46
S'0.0'
p1293
sg48
S'L31-38'
p1294
sg50
S'2013'
p1295
sssS'2012'
p1296
(dp1297
g3
(dp1298
g5
S'--'
p1299
sg7
S'11'
p1300
sg9
S'--'
p1301
sg11
S'--'
p1302
sg13
S'--'
p1303
sg15
S'--'
p1304
sg17
S'--'
p1305
sg19
S'--'
p1306
sg21
S'CHI'
p1307
sg23
g24
sg25
S'--'
p1308
sg27
S'--'
p1309
sg29
S'--'
p1310
sg31
g24
sg32
S'--'
p1311
sg34
S'--'
p1312
sg36
S'--'
p1313
sg38
S'--'
p1314
sg40
S'--'
p1315
sg42
S'11/19'
p1316
sg44
S'Scott Tolzien'
p1317
sg46
S'0.0'
p1318
sg48
S'W32-7'
p1319
sg50
S'2012'
p1320
ssg52
(dp1321
g5
S'--'
p1322
sg7
S'10'
p1323
sg9
S'--'
p1324
sg11
S'--'
p1325
sg13
S'--'
p1326
sg15
S'--'
p1327
sg17
S'--'
p1328
sg19
S'--'
p1329
sg21
S'STL'
p1330
sg23
g24
sg25
S'--'
p1331
sg27
S'--'
p1332
sg29
S'--'
p1333
sg31
g24
sg32
S'--'
p1334
sg34
S'--'
p1335
sg36
S'--'
p1336
sg38
S'--'
p1337
sg40
S'--'
p1338
sg42
S'11/11'
p1339
sg44
S'Scott Tolzien'
p1340
sg46
S'0.0'
p1341
sg48
S'T24-24'
p1342
sg50
S'2012'
p1343
ssg76
(dp1344
g5
S'--'
p1345
sg7
S'13'
p1346
sg9
S'--'
p1347
sg11
S'--'
p1348
sg13
S'--'
p1349
sg15
S'--'
p1350
sg17
S'--'
p1351
sg19
S'--'
p1352
sg21
S'@STL'
p1353
sg23
g24
sg25
S'--'
p1354
sg27
S'--'
p1355
sg29
S'--'
p1356
sg31
g24
sg32
S'--'
p1357
sg34
S'--'
p1358
sg36
S'--'
p1359
sg38
S'--'
p1360
sg40
S'--'
p1361
sg42
S'12/02'
p1362
sg44
S'Scott Tolzien'
p1363
sg46
S'0.0'
p1364
sg48
S'L13-16'
p1365
sg50
S'2012'
p1366
ssg100
(dp1367
g5
S'--'
p1368
sg7
S'12'
p1369
sg9
S'--'
p1370
sg11
S'--'
p1371
sg13
S'--'
p1372
sg15
S'--'
p1373
sg17
S'--'
p1374
sg19
S'--'
p1375
sg21
S'@NO'
p1376
sg23
g24
sg25
S'--'
p1377
sg27
S'--'
p1378
sg29
S'--'
p1379
sg31
g24
sg32
S'--'
p1380
sg34
S'--'
p1381
sg36
S'--'
p1382
sg38
S'--'
p1383
sg40
S'--'
p1384
sg42
S'11/25'
p1385
sg44
S'Scott Tolzien'
p1386
sg46
S'0.0'
p1387
sg48
S'W31-21'
p1388
sg50
S'2012'
p1389
ssg124
(dp1390
g5
S'--'
p1391
sg7
S'15'
p1392
sg9
S'--'
p1393
sg11
S'--'
p1394
sg13
S'--'
p1395
sg15
S'--'
p1396
sg17
S'--'
p1397
sg19
S'--'
p1398
sg21
S'@NE'
p1399
sg23
g24
sg25
S'--'
p1400
sg27
S'--'
p1401
sg29
S'--'
p1402
sg31
g24
sg32
S'--'
p1403
sg34
S'--'
p1404
sg36
S'--'
p1405
sg38
S'--'
p1406
sg40
S'--'
p1407
sg42
S'12/16'
p1408
sg44
S'Scott Tolzien'
p1409
sg46
S'0.0'
p1410
sg48
S'W41-34'
p1411
sg50
S'2012'
p1412
ssg148
(dp1413
g5
S'--'
p1414
sg7
S'14'
p1415
sg9
S'--'
p1416
sg11
S'--'
p1417
sg13
S'--'
p1418
sg15
S'--'
p1419
sg17
S'--'
p1420
sg19
S'--'
p1421
sg21
S'MIA'
p1422
sg23
g24
sg25
S'--'
p1423
sg27
S'--'
p1424
sg29
S'--'
p1425
sg31
g24
sg32
S'--'
p1426
sg34
S'--'
p1427
sg36
S'--'
p1428
sg38
S'--'
p1429
sg40
S'--'
p1430
sg42
S'12/09'
p1431
sg44
S'Scott Tolzien'
p1432
sg46
S'0.0'
p1433
sg48
S'W27-13'
p1434
sg50
S'2012'
p1435
ssg172
(dp1436
g5
S'--'
p1437
sg7
S'17'
p1438
sg9
S'--'
p1439
sg11
S'--'
p1440
sg13
S'--'
p1441
sg15
S'--'
p1442
sg17
S'--'
p1443
sg19
S'--'
p1444
sg21
S'ARI'
p1445
sg23
g24
sg25
S'--'
p1446
sg27
S'--'
p1447
sg29
S'--'
p1448
sg31
g24
sg32
S'--'
p1449
sg34
S'--'
p1450
sg36
S'--'
p1451
sg38
S'--'
p1452
sg40
S'--'
p1453
sg42
S'12/30'
p1454
sg44
S'Scott Tolzien'
p1455
sg46
S'0.0'
p1456
sg48
S'W27-13'
p1457
sg50
S'2012'
p1458
ssg196
(dp1459
g5
S'--'
p1460
sg7
S'16'
p1461
sg9
S'--'
p1462
sg11
S'--'
p1463
sg13
S'--'
p1464
sg15
S'--'
p1465
sg17
S'--'
p1466
sg19
S'--'
p1467
sg21
S'@SEA'
p1468
sg23
g24
sg25
S'--'
p1469
sg27
S'--'
p1470
sg29
S'--'
p1471
sg31
g24
sg32
S'--'
p1472
sg34
S'--'
p1473
sg36
S'--'
p1474
sg38
S'--'
p1475
sg40
S'--'
p1476
sg42
S'12/23'
p1477
sg44
S'Scott Tolzien'
p1478
sg46
S'0.0'
p1479
sg48
S'L13-42'
p1480
sg50
S'2012'
p1481
ssg159
(dp1482
g5
S'--'
p1483
sg7
g159
sg9
S'--'
p1484
sg11
S'--'
p1485
sg13
S'--'
p1486
sg15
S'--'
p1487
sg17
S'--'
p1488
sg19
S'--'
p1489
sg21
S'@GB'
p1490
sg23
g24
sg25
S'--'
p1491
sg27
S'--'
p1492
sg29
S'--'
p1493
sg31
g24
sg32
S'--'
p1494
sg34
S'--'
p1495
sg36
S'--'
p1496
sg38
S'--'
p1497
sg40
S'--'
p1498
sg42
S'09/09'
p1499
sg44
S'Scott Tolzien'
p1500
sg46
S'0.0'
p1501
sg48
S'W30-22'
p1502
sg50
S'2012'
p1503
ssg232
(dp1504
g5
S'--'
p1505
sg7
g232
sg9
S'--'
p1506
sg11
S'--'
p1507
sg13
S'--'
p1508
sg15
S'--'
p1509
sg17
S'--'
p1510
sg19
S'--'
p1511
sg21
S'@MIN'
p1512
sg23
g24
sg25
S'--'
p1513
sg27
S'--'
p1514
sg29
S'--'
p1515
sg31
g24
sg32
S'--'
p1516
sg34
S'--'
p1517
sg36
S'--'
p1518
sg38
S'--'
p1519
sg40
S'--'
p1520
sg42
S'09/23'
p1521
sg44
S'Scott Tolzien'
p1522
sg46
S'0.0'
p1523
sg48
S'L13-24'
p1524
sg50
S'2012'
p1525
ssg154
(dp1526
g5
S'--'
p1527
sg7
g154
sg9
S'--'
p1528
sg11
S'--'
p1529
sg13
S'--'
p1530
sg15
S'--'
p1531
sg17
S'--'
p1532
sg19
S'--'
p1533
sg21
S'DET'
p1534
sg23
g24
sg25
S'--'
p1535
sg27
S'--'
p1536
sg29
S'--'
p1537
sg31
g24
sg32
S'--'
p1538
sg34
S'--'
p1539
sg36
S'--'
p1540
sg38
S'--'
p1541
sg40
S'--'
p1542
sg42
S'09/16'
p1543
sg44
S'Scott Tolzien'
p1544
sg46
S'0.0'
p1545
sg48
S'W27-19'
p1546
sg50
S'2012'
p1547
ssg277
(dp1548
g5
S'--'
p1549
sg7
g277
sg9
S'--'
p1550
sg11
S'--'
p1551
sg13
S'--'
p1552
sg15
S'--'
p1553
sg17
S'--'
p1554
sg19
S'--'
p1555
sg21
S'BUF'
p1556
sg23
g24
sg25
S'--'
p1557
sg27
S'--'
p1558
sg29
S'--'
p1559
sg31
g24
sg32
S'--'
p1560
sg34
S'--'
p1561
sg36
S'--'
p1562
sg38
S'--'
p1563
sg40
S'--'
p1564
sg42
S'10/07'
p1565
sg44
S'Scott Tolzien'
p1566
sg46
S'0.0'
p1567
sg48
S'W45-3'
p1568
sg50
S'2012'
p1569
ssg201
(dp1570
g5
S'--'
p1571
sg7
g201
sg9
S'--'
p1572
sg11
S'--'
p1573
sg13
S'--'
p1574
sg15
S'--'
p1575
sg17
S'--'
p1576
sg19
S'--'
p1577
sg21
S'@NYJ'
p1578
sg23
g24
sg25
S'--'
p1579
sg27
S'--'
p1580
sg29
S'--'
p1581
sg31
g24
sg32
S'--'
p1582
sg34
S'--'
p1583
sg36
S'--'
p1584
sg38
S'--'
p1585
sg40
S'--'
p1586
sg42
S'09/30'
p1587
sg44
S'Scott Tolzien'
p1588
sg46
S'0.0'
p1589
sg48
S'W34-0'
p1590
sg50
S'2012'
p1591
ssg322
(dp1592
g5
S'--'
p1593
sg7
g322
sg9
S'--'
p1594
sg11
S'--'
p1595
sg13
S'--'
p1596
sg15
S'--'
p1597
sg17
S'--'
p1598
sg19
S'--'
p1599
sg21
S'SEA'
p1600
sg23
g24
sg25
S'--'
p1601
sg27
S'--'
p1602
sg29
S'--'
p1603
sg31
g24
sg32
S'--'
p1604
sg34
S'--'
p1605
sg36
S'--'
p1606
sg38
S'--'
p1607
sg40
S'--'
p1608
sg42
S'10/18'
p1609
sg44
S'Scott Tolzien'
p1610
sg46
S'0.0'
p1611
sg48
S'W13-6'
p1612
sg50
S'2012'
p1613
ssg328
(dp1614
g5
S'--'
p1615
sg7
g328
sg9
S'--'
p1616
sg11
S'--'
p1617
sg13
S'--'
p1618
sg15
S'--'
p1619
sg17
S'--'
p1620
sg19
S'--'
p1621
sg21
S'NYG'
p1622
sg23
g24
sg25
S'--'
p1623
sg27
S'--'
p1624
sg29
S'--'
p1625
sg31
g24
sg32
S'--'
p1626
sg34
S'--'
p1627
sg36
S'--'
p1628
sg38
S'--'
p1629
sg40
S'--'
p1630
sg42
S'10/14'
p1631
sg44
S'Scott Tolzien'
p1632
sg46
S'0.0'
p1633
sg48
S'L3-26'
p1634
sg50
S'2012'
p1635
ssg351
(dp1636
g5
g324
sg7
g351
sg9
g324
sg11
g324
sg13
g324
sg15
g324
sg17
g324
sg19
g324
sg21
g324
sg23
g324
sg25
g324
sg27
g324
sg29
g324
sg31
g324
sg32
g324
sg34
g324
sg36
g324
sg38
g324
sg40
g324
sg42
S'Bye'
p1637
sg44
S'Scott Tolzien'
p1638
sg46
g324
sg48
g324
sg50
S'2012'
p1639
ssg204
(dp1640
g5
S'--'
p1641
sg7
g204
sg9
S'--'
p1642
sg11
S'--'
p1643
sg13
S'--'
p1644
sg15
S'--'
p1645
sg17
S'--'
p1646
sg19
S'--'
p1647
sg21
S'@ARI'
p1648
sg23
g24
sg25
S'--'
p1649
sg27
S'--'
p1650
sg29
S'--'
p1651
sg31
g24
sg32
S'--'
p1652
sg34
S'--'
p1653
sg36
S'--'
p1654
sg38
S'--'
p1655
sg40
S'--'
p1656
sg42
S'10/29'
p1657
sg44
S'Scott Tolzien'
p1658
sg46
S'0.0'
p1659
sg48
S'W24-3'
p1660
sg50
S'2012'
p1661
sss.