(dp0
S'2015'
p1
(dp2
S'11'
p3
(dp4
S'PassAtt'
p5
S'--'
p6
sS'WK'
p7
S'11'
p8
sS'RushAvg'
p9
S'--'
p10
sS'Pct'
p11
S'--'
p12
sS'RushAtt'
p13
S'--'
p14
sS'PassYds'
p15
S'--'
p16
sS'PassAvg'
p17
S'--'
p18
sS'FUM'
p19
S'--'
p20
sS'Opp'
p21
S'@BAL'
p22
sS'G'
p23
S'0'
p24
sS'Comp'
p25
S'--'
p26
sS'SckY'
p27
S'--'
p28
sS'RushYds'
p29
S'--'
p30
sS'GS'
p31
g24
sS'Lost'
p32
S'--'
p33
sS'RushTD'
p34
S'--'
p35
sS'PassTD'
p36
S'--'
p37
sS'Sck'
p38
S'--'
p39
sS'Int'
p40
S'--'
p41
sS'Game Date'
p42
S'11/22'
p43
sS'Player'
p44
S'Sean Mannion'
p45
sS'Rate'
p46
S'0.0'
p47
sS'Result'
p48
S'L13-16'
p49
sS'Year'
p50
S'2015'
p51
ssS'10'
p52
(dp53
g5
S'--'
p54
sg7
S'10'
p55
sg9
S'--'
p56
sg11
S'--'
p57
sg13
S'--'
p58
sg15
S'--'
p59
sg17
S'--'
p60
sg19
S'--'
p61
sg21
S'CHI'
p62
sg23
g24
sg25
S'--'
p63
sg27
S'--'
p64
sg29
S'--'
p65
sg31
g24
sg32
S'--'
p66
sg34
S'--'
p67
sg36
S'--'
p68
sg38
S'--'
p69
sg40
S'--'
p70
sg42
S'11/15'
p71
sg44
S'Sean Mannion'
p72
sg46
S'0.0'
p73
sg48
S'L13-37'
p74
sg50
S'2015'
p75
ssS'13'
p76
(dp77
g5
S'--'
p78
sg7
S'13'
p79
sg9
S'--'
p80
sg11
S'--'
p81
sg13
S'--'
p82
sg15
S'--'
p83
sg17
S'--'
p84
sg19
S'--'
p85
sg21
S'ARI'
p86
sg23
g24
sg25
S'--'
p87
sg27
S'--'
p88
sg29
S'--'
p89
sg31
g24
sg32
S'--'
p90
sg34
S'--'
p91
sg36
S'--'
p92
sg38
S'--'
p93
sg40
S'--'
p94
sg42
S'12/06'
p95
sg44
S'Sean Mannion'
p96
sg46
S'0.0'
p97
sg48
S'L3-27'
p98
sg50
S'2015'
p99
ssS'12'
p100
(dp101
g5
S'7'
p102
sg7
S'12'
p103
sg9
S'--'
p104
sg11
S'85.7'
p105
sg13
S'--'
p106
sg15
S'31'
p107
sg17
S'4.4'
p108
sg19
S'--'
p109
sg21
S'@CIN'
p110
sg23
S'1'
p111
sg25
S'6'
p112
sg27
g24
sg29
S'--'
p113
sg31
g24
sg32
S'--'
p114
sg34
S'--'
p115
sg36
g24
sg38
g24
sg40
g24
sg42
S'11/29'
p116
sg44
S'Sean Mannion'
p117
sg46
S'85.1'
p118
sg48
S'L7-31'
p119
sg50
S'2015'
p120
ssS'15'
p121
(dp122
g5
S'--'
p123
sg7
S'15'
p124
sg9
S'--'
p125
sg11
S'--'
p126
sg13
S'--'
p127
sg15
S'--'
p128
sg17
S'--'
p129
sg19
S'--'
p130
sg21
S'TB'
p131
sg23
g24
sg25
S'--'
p132
sg27
S'--'
p133
sg29
S'--'
p134
sg31
g24
sg32
S'--'
p135
sg34
S'--'
p136
sg36
S'--'
p137
sg38
S'--'
p138
sg40
S'--'
p139
sg42
S'12/17'
p140
sg44
S'Sean Mannion'
p141
sg46
S'0.0'
p142
sg48
S'W31-23'
p143
sg50
S'2015'
p144
ssS'14'
p145
(dp146
g5
S'--'
p147
sg7
S'14'
p148
sg9
S'--'
p149
sg11
S'--'
p150
sg13
S'--'
p151
sg15
S'--'
p152
sg17
S'--'
p153
sg19
S'--'
p154
sg21
S'DET'
p155
sg23
g24
sg25
S'--'
p156
sg27
S'--'
p157
sg29
S'--'
p158
sg31
g24
sg32
S'--'
p159
sg34
S'--'
p160
sg36
S'--'
p161
sg38
S'--'
p162
sg40
S'--'
p163
sg42
S'12/13'
p164
sg44
S'Sean Mannion'
p165
sg46
S'0.0'
p166
sg48
S'W21-14'
p167
sg50
S'2015'
p168
ssS'17'
p169
(dp170
g5
S'--'
p171
sg7
S'17'
p172
sg9
S'--'
p173
sg11
S'--'
p174
sg13
S'--'
p175
sg15
S'--'
p176
sg17
S'--'
p177
sg19
S'--'
p178
sg21
S'@SF'
p179
sg23
g24
sg25
S'--'
p180
sg27
S'--'
p181
sg29
S'--'
p182
sg31
g24
sg32
S'--'
p183
sg34
S'--'
p184
sg36
S'--'
p185
sg38
S'--'
p186
sg40
S'--'
p187
sg42
S'01/03'
p188
sg44
S'Sean Mannion'
p189
sg46
S'0.0'
p190
sg48
S'L16-19'
p191
sg50
S'2015'
p192
ssS'16'
p193
(dp194
g5
S'--'
p195
sg7
S'16'
p196
sg9
S'--'
p197
sg11
S'--'
p198
sg13
S'--'
p199
sg15
S'--'
p200
sg17
S'--'
p201
sg19
S'--'
p202
sg21
S'@SEA'
p203
sg23
g24
sg25
S'--'
p204
sg27
S'--'
p205
sg29
S'--'
p206
sg31
g24
sg32
S'--'
p207
sg34
S'--'
p208
sg36
S'--'
p209
sg38
S'--'
p210
sg40
S'--'
p211
sg42
S'12/27'
p212
sg44
S'Sean Mannion'
p213
sg46
S'0.0'
p214
sg48
S'W23-17'
p215
sg50
S'2015'
p216
ssg111
(dp217
g5
S'--'
p218
sg7
g111
sg9
S'--'
p219
sg11
S'--'
p220
sg13
S'--'
p221
sg15
S'--'
p222
sg17
S'--'
p223
sg19
S'--'
p224
sg21
S'SEA'
p225
sg23
g24
sg25
S'--'
p226
sg27
S'--'
p227
sg29
S'--'
p228
sg31
g24
sg32
S'--'
p229
sg34
S'--'
p230
sg36
S'--'
p231
sg38
S'--'
p232
sg40
S'--'
p233
sg42
S'09/13'
p234
sg44
S'Sean Mannion'
p235
sg46
S'0.0'
p236
sg48
S'W34-31'
p237
sg50
S'2015'
p238
ssS'3'
p239
(dp240
g5
S'--'
p241
sg7
g239
sg9
S'--'
p242
sg11
S'--'
p243
sg13
S'--'
p244
sg15
S'--'
p245
sg17
S'--'
p246
sg19
S'--'
p247
sg21
S'PIT'
p248
sg23
g24
sg25
S'--'
p249
sg27
S'--'
p250
sg29
S'--'
p251
sg31
g24
sg32
S'--'
p252
sg34
S'--'
p253
sg36
S'--'
p254
sg38
S'--'
p255
sg40
S'--'
p256
sg42
S'09/27'
p257
sg44
S'Sean Mannion'
p258
sg46
S'0.0'
p259
sg48
S'L6-12'
p260
sg50
S'2015'
p261
ssS'2'
p262
(dp263
g5
S'--'
p264
sg7
g262
sg9
S'--'
p265
sg11
S'--'
p266
sg13
S'--'
p267
sg15
S'--'
p268
sg17
S'--'
p269
sg19
S'--'
p270
sg21
S'@WAS'
p271
sg23
g24
sg25
S'--'
p272
sg27
S'--'
p273
sg29
S'--'
p274
sg31
g24
sg32
S'--'
p275
sg34
S'--'
p276
sg36
S'--'
p277
sg38
S'--'
p278
sg40
S'--'
p279
sg42
S'09/20'
p280
sg44
S'Sean Mannion'
p281
sg46
S'0.0'
p282
sg48
S'L10-24'
p283
sg50
S'2015'
p284
ssS'5'
p285
(dp286
g5
S'--'
p287
sg7
g285
sg9
S'--'
p288
sg11
S'--'
p289
sg13
S'--'
p290
sg15
S'--'
p291
sg17
S'--'
p292
sg19
S'--'
p293
sg21
S'@GB'
p294
sg23
g24
sg25
S'--'
p295
sg27
S'--'
p296
sg29
S'--'
p297
sg31
g24
sg32
S'--'
p298
sg34
S'--'
p299
sg36
S'--'
p300
sg38
S'--'
p301
sg40
S'--'
p302
sg42
S'10/11'
p303
sg44
S'Sean Mannion'
p304
sg46
S'0.0'
p305
sg48
S'L10-24'
p306
sg50
S'2015'
p307
ssS'4'
p308
(dp309
g5
S'--'
p310
sg7
g308
sg9
S'--'
p311
sg11
S'--'
p312
sg13
S'--'
p313
sg15
S'--'
p314
sg17
S'--'
p315
sg19
S'--'
p316
sg21
S'@ARI'
p317
sg23
g24
sg25
S'--'
p318
sg27
S'--'
p319
sg29
S'--'
p320
sg31
g24
sg32
S'--'
p321
sg34
S'--'
p322
sg36
S'--'
p323
sg38
S'--'
p324
sg40
S'--'
p325
sg42
S'10/04'
p326
sg44
S'Sean Mannion'
p327
sg46
S'0.0'
p328
sg48
S'W24-22'
p329
sg50
S'2015'
p330
ssg102
(dp331
g5
S'--'
p332
sg7
g102
sg9
S'--'
p333
sg11
S'--'
p334
sg13
S'--'
p335
sg15
S'--'
p336
sg17
S'--'
p337
sg19
S'--'
p338
sg21
S'CLE'
p339
sg23
g24
sg25
S'--'
p340
sg27
S'--'
p341
sg29
S'--'
p342
sg31
g24
sg32
S'--'
p343
sg34
S'--'
p344
sg36
S'--'
p345
sg38
S'--'
p346
sg40
S'--'
p347
sg42
S'10/25'
p348
sg44
S'Sean Mannion'
p349
sg46
S'0.0'
p350
sg48
S'W24-6'
p351
sg50
S'2015'
p352
ssg112
(dp353
g5
S''
p354
sg7
g112
sg9
g354
sg11
g354
sg13
g354
sg15
g354
sg17
g354
sg19
g354
sg21
g354
sg23
g354
sg25
g354
sg27
g354
sg29
g354
sg31
g354
sg32
g354
sg34
g354
sg36
g354
sg38
g354
sg40
g354
sg42
S'Bye'
p355
sg44
S'Sean Mannion'
p356
sg46
g354
sg48
g354
sg50
S'2015'
p357
ssS'9'
p358
(dp359
g5
S'--'
p360
sg7
g358
sg9
S'--'
p361
sg11
S'--'
p362
sg13
S'--'
p363
sg15
S'--'
p364
sg17
S'--'
p365
sg19
S'--'
p366
sg21
S'@MIN'
p367
sg23
g24
sg25
S'--'
p368
sg27
S'--'
p369
sg29
S'--'
p370
sg31
g24
sg32
S'--'
p371
sg34
S'--'
p372
sg36
S'--'
p373
sg38
S'--'
p374
sg40
S'--'
p375
sg42
S'11/08'
p376
sg44
S'Sean Mannion'
p377
sg46
S'0.0'
p378
sg48
S'L18-21'
p379
sg50
S'2015'
p380
ssS'8'
p381
(dp382
g5
S'--'
p383
sg7
g381
sg9
S'--'
p384
sg11
S'--'
p385
sg13
S'--'
p386
sg15
S'--'
p387
sg17
S'--'
p388
sg19
S'--'
p389
sg21
S'SF'
p390
sg23
g24
sg25
S'--'
p391
sg27
S'--'
p392
sg29
S'--'
p393
sg31
g24
sg32
S'--'
p394
sg34
S'--'
p395
sg36
S'--'
p396
sg38
S'--'
p397
sg40
S'--'
p398
sg42
S'11/01'
p399
sg44
S'Sean Mannion'
p400
sg46
S'0.0'
p401
sg48
S'W27-6'
p402
sg50
S'2015'
p403
sss.