(dp0
S'2015'
p1
(dp2
S'11'
p3
(dp4
S'PassAtt'
p5
S'--'
p6
sS'WK'
p7
S'11'
p8
sS'RushAvg'
p9
S'--'
p10
sS'Pct'
p11
S'--'
p12
sS'RushAtt'
p13
S'--'
p14
sS'PassYds'
p15
S'--'
p16
sS'PassAvg'
p17
S'--'
p18
sS'FUM'
p19
S'--'
p20
sS'Opp'
p21
S'SF'
p22
sS'G'
p23
S'0'
p24
sS'Comp'
p25
S'--'
p26
sS'SckY'
p27
S'--'
p28
sS'RushYds'
p29
S'--'
p30
sS'GS'
p31
g24
sS'Lost'
p32
S'--'
p33
sS'RushTD'
p34
S'--'
p35
sS'PassTD'
p36
S'--'
p37
sS'Sck'
p38
S'--'
p39
sS'Int'
p40
S'--'
p41
sS'Game Date'
p42
S'11/22'
p43
sS'Player'
p44
S'Tarvaris Jackson'
p45
sS'Rate'
p46
S'0.0'
p47
sS'Result'
p48
S'W29-13'
p49
sS'Year'
p50
S'2015'
p51
ssS'10'
p52
(dp53
g5
S'--'
p54
sg7
S'10'
p55
sg9
S'--'
p56
sg11
S'--'
p57
sg13
S'--'
p58
sg15
S'--'
p59
sg17
S'--'
p60
sg19
S'--'
p61
sg21
S'ARI'
p62
sg23
g24
sg25
S'--'
p63
sg27
S'--'
p64
sg29
S'--'
p65
sg31
g24
sg32
S'--'
p66
sg34
S'--'
p67
sg36
S'--'
p68
sg38
S'--'
p69
sg40
S'--'
p70
sg42
S'11/15'
p71
sg44
S'Tarvaris Jackson'
p72
sg46
S'0.0'
p73
sg48
S'L32-39'
p74
sg50
S'2015'
p75
ssS'13'
p76
(dp77
g5
S'1'
p78
sg7
S'13'
p79
sg9
S'-1.0'
p80
sg11
S'0.0'
p81
sg13
S'2'
p82
sg15
g24
sg17
S'0.0'
p83
sg19
S'--'
p84
sg21
S'@MIN'
p85
sg23
g78
sg25
g24
sg27
S'6'
p86
sg29
S'-2'
p87
sg31
g24
sg32
S'--'
p88
sg34
g24
sg36
g24
sg38
g78
sg40
g24
sg42
S'12/06'
p89
sg44
S'Tarvaris Jackson'
p90
sg46
S'39.6'
p91
sg48
S'W38-7'
p92
sg50
S'2015'
p93
ssS'12'
p94
(dp95
g5
S'--'
p96
sg7
S'12'
p97
sg9
S'--'
p98
sg11
S'--'
p99
sg13
S'--'
p100
sg15
S'--'
p101
sg17
S'--'
p102
sg19
S'--'
p103
sg21
S'PIT'
p104
sg23
g24
sg25
S'--'
p105
sg27
S'--'
p106
sg29
S'--'
p107
sg31
g24
sg32
S'--'
p108
sg34
S'--'
p109
sg36
S'--'
p110
sg38
S'--'
p111
sg40
S'--'
p112
sg42
S'11/29'
p113
sg44
S'Tarvaris Jackson'
p114
sg46
S'0.0'
p115
sg48
S'W39-30'
p116
sg50
S'2015'
p117
ssS'15'
p118
(dp119
g5
S'--'
p120
sg7
S'15'
p121
sg9
S'-1.0'
p122
sg11
S'--'
p123
sg13
g78
sg15
S'--'
p124
sg17
S'--'
p125
sg19
S'--'
p126
sg21
S'CLE'
p127
sg23
g78
sg25
S'--'
p128
sg27
S'--'
p129
sg29
S'-1'
p130
sg31
g24
sg32
S'--'
p131
sg34
g24
sg36
S'--'
p132
sg38
S'--'
p133
sg40
S'--'
p134
sg42
S'12/20'
p135
sg44
S'Tarvaris Jackson'
p136
sg46
S'0.0'
p137
sg48
S'W30-13'
p138
sg50
S'2015'
p139
ssS'14'
p140
(dp141
g5
g78
sg7
S'14'
p142
sg9
S'-1.0'
p143
sg11
S'100.0'
p144
sg13
S'3'
p145
sg15
S'9'
p146
sg17
S'9.0'
p147
sg19
S'--'
p148
sg21
S'@BAL'
p149
sg23
g78
sg25
g78
sg27
g24
sg29
S'-3'
p150
sg31
g24
sg32
S'--'
p151
sg34
g24
sg36
g24
sg38
g24
sg40
g24
sg42
S'12/13'
p152
sg44
S'Tarvaris Jackson'
p153
sg46
S'104.2'
p154
sg48
S'W35-6'
p155
sg50
S'2015'
p156
ssS'17'
p157
(dp158
g5
S'4'
p159
sg7
S'17'
p160
sg9
S'-1.0'
p161
sg11
S'75.0'
p162
sg13
g82
sg15
S'28'
p163
sg17
S'7.0'
p164
sg19
S'--'
p165
sg21
S'@ARI'
p166
sg23
g78
sg25
g145
sg27
g24
sg29
S'-2'
p167
sg31
g24
sg32
S'--'
p168
sg34
g24
sg36
g24
sg38
g24
sg40
g24
sg42
S'01/03'
p169
sg44
S'Tarvaris Jackson'
p170
sg46
S'93.8'
p171
sg48
S'W36-6'
p172
sg50
S'2015'
p173
ssS'16'
p174
(dp175
g5
S'--'
p176
sg7
S'16'
p177
sg9
S'--'
p178
sg11
S'--'
p179
sg13
S'--'
p180
sg15
S'--'
p181
sg17
S'--'
p182
sg19
S'--'
p183
sg21
S'STL'
p184
sg23
g24
sg25
S'--'
p185
sg27
S'--'
p186
sg29
S'--'
p187
sg31
g24
sg32
S'--'
p188
sg34
S'--'
p189
sg36
S'--'
p190
sg38
S'--'
p191
sg40
S'--'
p192
sg42
S'12/27'
p193
sg44
S'Tarvaris Jackson'
p194
sg46
S'0.0'
p195
sg48
S'L17-23'
p196
sg50
S'2015'
p197
ssg78
(dp198
g5
S'--'
p199
sg7
g78
sg9
S'--'
p200
sg11
S'--'
p201
sg13
S'--'
p202
sg15
S'--'
p203
sg17
S'--'
p204
sg19
S'--'
p205
sg21
S'@STL'
p206
sg23
g24
sg25
S'--'
p207
sg27
S'--'
p208
sg29
S'--'
p209
sg31
g24
sg32
S'--'
p210
sg34
S'--'
p211
sg36
S'--'
p212
sg38
S'--'
p213
sg40
S'--'
p214
sg42
S'09/13'
p215
sg44
S'Tarvaris Jackson'
p216
sg46
S'0.0'
p217
sg48
S'L31-34'
p218
sg50
S'2015'
p219
ssg145
(dp220
g5
S'--'
p221
sg7
g145
sg9
S'--'
p222
sg11
S'--'
p223
sg13
S'--'
p224
sg15
S'--'
p225
sg17
S'--'
p226
sg19
S'--'
p227
sg21
S'CHI'
p228
sg23
g24
sg25
S'--'
p229
sg27
S'--'
p230
sg29
S'--'
p231
sg31
g24
sg32
S'--'
p232
sg34
S'--'
p233
sg36
S'--'
p234
sg38
S'--'
p235
sg40
S'--'
p236
sg42
S'09/27'
p237
sg44
S'Tarvaris Jackson'
p238
sg46
S'0.0'
p239
sg48
S'W26-0'
p240
sg50
S'2015'
p241
ssg82
(dp242
g5
S'--'
p243
sg7
g82
sg9
S'--'
p244
sg11
S'--'
p245
sg13
S'--'
p246
sg15
S'--'
p247
sg17
S'--'
p248
sg19
S'--'
p249
sg21
S'@GB'
p250
sg23
g24
sg25
S'--'
p251
sg27
S'--'
p252
sg29
S'--'
p253
sg31
g24
sg32
S'--'
p254
sg34
S'--'
p255
sg36
S'--'
p256
sg38
S'--'
p257
sg40
S'--'
p258
sg42
S'09/20'
p259
sg44
S'Tarvaris Jackson'
p260
sg46
S'0.0'
p261
sg48
S'L17-27'
p262
sg50
S'2015'
p263
ssS'5'
p264
(dp265
g5
S'--'
p266
sg7
g264
sg9
S'--'
p267
sg11
S'--'
p268
sg13
S'--'
p269
sg15
S'--'
p270
sg17
S'--'
p271
sg19
S'--'
p272
sg21
S'@CIN'
p273
sg23
g24
sg25
S'--'
p274
sg27
S'--'
p275
sg29
S'--'
p276
sg31
g24
sg32
S'--'
p277
sg34
S'--'
p278
sg36
S'--'
p279
sg38
S'--'
p280
sg40
S'--'
p281
sg42
S'10/11'
p282
sg44
S'Tarvaris Jackson'
p283
sg46
S'0.0'
p284
sg48
S'L24-27'
p285
sg50
S'2015'
p286
ssg159
(dp287
g5
S'--'
p288
sg7
g159
sg9
S'--'
p289
sg11
S'--'
p290
sg13
S'--'
p291
sg15
S'--'
p292
sg17
S'--'
p293
sg19
S'--'
p294
sg21
S'DET'
p295
sg23
g24
sg25
S'--'
p296
sg27
S'--'
p297
sg29
S'--'
p298
sg31
g24
sg32
S'--'
p299
sg34
S'--'
p300
sg36
S'--'
p301
sg38
S'--'
p302
sg40
S'--'
p303
sg42
S'10/05'
p304
sg44
S'Tarvaris Jackson'
p305
sg46
S'0.0'
p306
sg48
S'W13-10'
p307
sg50
S'2015'
p308
ssS'7'
p309
(dp310
g5
S'--'
p311
sg7
g309
sg9
S'--'
p312
sg11
S'--'
p313
sg13
S'--'
p314
sg15
S'--'
p315
sg17
S'--'
p316
sg19
S'--'
p317
sg21
S'@SF'
p318
sg23
g24
sg25
S'--'
p319
sg27
S'--'
p320
sg29
S'--'
p321
sg31
g24
sg32
S'--'
p322
sg34
S'--'
p323
sg36
S'--'
p324
sg38
S'--'
p325
sg40
S'--'
p326
sg42
S'10/22'
p327
sg44
S'Tarvaris Jackson'
p328
sg46
S'0.0'
p329
sg48
S'W20-3'
p330
sg50
S'2015'
p331
ssg86
(dp332
g5
S'--'
p333
sg7
g86
sg9
S'--'
p334
sg11
S'--'
p335
sg13
S'--'
p336
sg15
S'--'
p337
sg17
S'--'
p338
sg19
S'--'
p339
sg21
S'CAR'
p340
sg23
g24
sg25
S'--'
p341
sg27
S'--'
p342
sg29
S'--'
p343
sg31
g24
sg32
S'--'
p344
sg34
S'--'
p345
sg36
S'--'
p346
sg38
S'--'
p347
sg40
S'--'
p348
sg42
S'10/18'
p349
sg44
S'Tarvaris Jackson'
p350
sg46
S'0.0'
p351
sg48
S'L23-27'
p352
sg50
S'2015'
p353
ssg146
(dp354
g5
S''
p355
sg7
g146
sg9
g355
sg11
g355
sg13
g355
sg15
g355
sg17
g355
sg19
g355
sg21
g355
sg23
g355
sg25
g355
sg27
g355
sg29
g355
sg31
g355
sg32
g355
sg34
g355
sg36
g355
sg38
g355
sg40
g355
sg42
S'Bye'
p356
sg44
S'Tarvaris Jackson'
p357
sg46
g355
sg48
g355
sg50
S'2015'
p358
ssS'8'
p359
(dp360
g5
S'--'
p361
sg7
g359
sg9
S'--'
p362
sg11
S'--'
p363
sg13
S'--'
p364
sg15
S'--'
p365
sg17
S'--'
p366
sg19
S'--'
p367
sg21
S'@DAL'
p368
sg23
g24
sg25
S'--'
p369
sg27
S'--'
p370
sg29
S'--'
p371
sg31
g24
sg32
S'--'
p372
sg34
S'--'
p373
sg36
S'--'
p374
sg38
S'--'
p375
sg40
S'--'
p376
sg42
S'11/01'
p377
sg44
S'Tarvaris Jackson'
p378
sg46
S'0.0'
p379
sg48
S'W13-12'
p380
sg50
S'2015'
p381
sssS'2014'
p382
(dp383
g3
(dp384
g5
S'--'
p385
sg7
S'11'
p386
sg9
S'--'
p387
sg11
S'--'
p388
sg13
S'--'
p389
sg15
S'--'
p390
sg17
S'--'
p391
sg19
S'--'
p392
sg21
S'@KC'
p393
sg23
g24
sg25
S'--'
p394
sg27
S'--'
p395
sg29
S'--'
p396
sg31
g24
sg32
S'--'
p397
sg34
S'--'
p398
sg36
S'--'
p399
sg38
S'--'
p400
sg40
S'--'
p401
sg42
S'11/16'
p402
sg44
S'Tarvaris Jackson'
p403
sg46
S'0.0'
p404
sg48
S'L20-24'
p405
sg50
S'2014'
p406
ssg52
(dp407
g5
S'--'
p408
sg7
S'10'
p409
sg9
S'--'
p410
sg11
S'--'
p411
sg13
S'--'
p412
sg15
S'--'
p413
sg17
S'--'
p414
sg19
S'--'
p415
sg21
S'NYG'
p416
sg23
g24
sg25
S'--'
p417
sg27
S'--'
p418
sg29
S'--'
p419
sg31
g24
sg32
S'--'
p420
sg34
S'--'
p421
sg36
S'--'
p422
sg38
S'--'
p423
sg40
S'--'
p424
sg42
S'11/09'
p425
sg44
S'Tarvaris Jackson'
p426
sg46
S'0.0'
p427
sg48
S'W38-17'
p428
sg50
S'2014'
p429
ssg76
(dp430
g5
S'--'
p431
sg7
S'13'
p432
sg9
S'--'
p433
sg11
S'--'
p434
sg13
S'--'
p435
sg15
S'--'
p436
sg17
S'--'
p437
sg19
S'--'
p438
sg21
S'@SF'
p439
sg23
g24
sg25
S'--'
p440
sg27
S'--'
p441
sg29
S'--'
p442
sg31
g24
sg32
S'--'
p443
sg34
S'--'
p444
sg36
S'--'
p445
sg38
S'--'
p446
sg40
S'--'
p447
sg42
S'11/27'
p448
sg44
S'Tarvaris Jackson'
p449
sg46
S'0.0'
p450
sg48
S'W19-3'
p451
sg50
S'2014'
p452
ssg94
(dp453
g5
S'--'
p454
sg7
S'12'
p455
sg9
S'--'
p456
sg11
S'--'
p457
sg13
S'--'
p458
sg15
S'--'
p459
sg17
S'--'
p460
sg19
S'--'
p461
sg21
S'ARI'
p462
sg23
g24
sg25
S'--'
p463
sg27
S'--'
p464
sg29
S'--'
p465
sg31
g24
sg32
S'--'
p466
sg34
S'--'
p467
sg36
S'--'
p468
sg38
S'--'
p469
sg40
S'--'
p470
sg42
S'11/23'
p471
sg44
S'Tarvaris Jackson'
p472
sg46
S'0.0'
p473
sg48
S'W19-3'
p474
sg50
S'2014'
p475
ssg118
(dp476
g5
S'--'
p477
sg7
S'15'
p478
sg9
S'--'
p479
sg11
S'--'
p480
sg13
S'--'
p481
sg15
S'--'
p482
sg17
S'--'
p483
sg19
S'--'
p484
sg21
S'SF'
p485
sg23
g24
sg25
S'--'
p486
sg27
S'--'
p487
sg29
S'--'
p488
sg31
g24
sg32
S'--'
p489
sg34
S'--'
p490
sg36
S'--'
p491
sg38
S'--'
p492
sg40
S'--'
p493
sg42
S'12/14'
p494
sg44
S'Tarvaris Jackson'
p495
sg46
S'0.0'
p496
sg48
S'W17-7'
p497
sg50
S'2014'
p498
ssg140
(dp499
g5
S'--'
p500
sg7
S'14'
p501
sg9
S'--'
p502
sg11
S'--'
p503
sg13
S'--'
p504
sg15
S'--'
p505
sg17
S'--'
p506
sg19
S'--'
p507
sg21
S'@PHI'
p508
sg23
g24
sg25
S'--'
p509
sg27
S'--'
p510
sg29
S'--'
p511
sg31
g24
sg32
S'--'
p512
sg34
S'--'
p513
sg36
S'--'
p514
sg38
S'--'
p515
sg40
S'--'
p516
sg42
S'12/07'
p517
sg44
S'Tarvaris Jackson'
p518
sg46
S'0.0'
p519
sg48
S'W24-14'
p520
sg50
S'2014'
p521
ssg157
(dp522
g5
S'--'
p523
sg7
S'17'
p524
sg9
S'--'
p525
sg11
S'--'
p526
sg13
S'--'
p527
sg15
S'--'
p528
sg17
S'--'
p529
sg19
S'--'
p530
sg21
S'STL'
p531
sg23
g24
sg25
S'--'
p532
sg27
S'--'
p533
sg29
S'--'
p534
sg31
g24
sg32
S'--'
p535
sg34
S'--'
p536
sg36
S'--'
p537
sg38
S'--'
p538
sg40
S'--'
p539
sg42
S'12/28'
p540
sg44
S'Tarvaris Jackson'
p541
sg46
S'0.0'
p542
sg48
S'W20-6'
p543
sg50
S'2014'
p544
ssg174
(dp545
g5
g78
sg7
S'16'
p546
sg9
S'--'
p547
sg11
S'100.0'
p548
sg13
S'--'
p549
sg15
g24
sg17
S'0.0'
p550
sg19
S'--'
p551
sg21
S'@ARI'
p552
sg23
g78
sg25
g78
sg27
g24
sg29
S'--'
p553
sg31
g24
sg32
S'--'
p554
sg34
S'--'
p555
sg36
g24
sg38
g24
sg40
g24
sg42
S'12/21'
p556
sg44
S'Tarvaris Jackson'
p557
sg46
S'79.2'
p558
sg48
S'W35-6'
p559
sg50
S'2014'
p560
ssg78
(dp561
g5
S'--'
p562
sg7
g78
sg9
S'--'
p563
sg11
S'--'
p564
sg13
S'--'
p565
sg15
S'--'
p566
sg17
S'--'
p567
sg19
S'--'
p568
sg21
S'GB'
p569
sg23
g24
sg25
S'--'
p570
sg27
S'--'
p571
sg29
S'--'
p572
sg31
g24
sg32
S'--'
p573
sg34
S'--'
p574
sg36
S'--'
p575
sg38
S'--'
p576
sg40
S'--'
p577
sg42
S'09/04'
p578
sg44
S'Tarvaris Jackson'
p579
sg46
S'0.0'
p580
sg48
S'W36-16'
p581
sg50
S'2014'
p582
ssg145
(dp583
g5
S'--'
p584
sg7
g145
sg9
S'--'
p585
sg11
S'--'
p586
sg13
S'--'
p587
sg15
S'--'
p588
sg17
S'--'
p589
sg19
S'--'
p590
sg21
S'DEN'
p591
sg23
g24
sg25
S'--'
p592
sg27
S'--'
p593
sg29
S'--'
p594
sg31
g24
sg32
S'--'
p595
sg34
S'--'
p596
sg36
S'--'
p597
sg38
S'--'
p598
sg40
S'--'
p599
sg42
S'09/21'
p600
sg44
S'Tarvaris Jackson'
p601
sg46
S'0.0'
p602
sg48
S'W26-20'
p603
sg50
S'2014'
p604
ssg82
(dp605
g5
S'--'
p606
sg7
g82
sg9
S'--'
p607
sg11
S'--'
p608
sg13
S'--'
p609
sg15
S'--'
p610
sg17
S'--'
p611
sg19
S'--'
p612
sg21
S'@SD'
p613
sg23
g24
sg25
S'--'
p614
sg27
S'--'
p615
sg29
S'--'
p616
sg31
g24
sg32
S'--'
p617
sg34
S'--'
p618
sg36
S'--'
p619
sg38
S'--'
p620
sg40
S'--'
p621
sg42
S'09/14'
p622
sg44
S'Tarvaris Jackson'
p623
sg46
S'0.0'
p624
sg48
S'L21-30'
p625
sg50
S'2014'
p626
ssg264
(dp627
g5
S'--'
p628
sg7
g264
sg9
S'--'
p629
sg11
S'--'
p630
sg13
S'--'
p631
sg15
S'--'
p632
sg17
S'--'
p633
sg19
S'--'
p634
sg21
S'@WAS'
p635
sg23
g24
sg25
S'--'
p636
sg27
S'--'
p637
sg29
S'--'
p638
sg31
g24
sg32
S'--'
p639
sg34
S'--'
p640
sg36
S'--'
p641
sg38
S'--'
p642
sg40
S'--'
p643
sg42
S'10/06'
p644
sg44
S'Tarvaris Jackson'
p645
sg46
S'0.0'
p646
sg48
S'W27-17'
p647
sg50
S'2014'
p648
ssg159
(dp649
g5
g355
sg7
g159
sg9
g355
sg11
g355
sg13
g355
sg15
g355
sg17
g355
sg19
g355
sg21
g355
sg23
g355
sg25
g355
sg27
g355
sg29
g355
sg31
g355
sg32
g355
sg34
g355
sg36
g355
sg38
g355
sg40
g355
sg42
S'Bye'
p650
sg44
S'Tarvaris Jackson'
p651
sg46
g355
sg48
g355
sg50
S'2014'
p652
ssg309
(dp653
g5
S'--'
p654
sg7
g309
sg9
S'--'
p655
sg11
S'--'
p656
sg13
S'--'
p657
sg15
S'--'
p658
sg17
S'--'
p659
sg19
S'--'
p660
sg21
S'@STL'
p661
sg23
g24
sg25
S'--'
p662
sg27
S'--'
p663
sg29
S'--'
p664
sg31
g24
sg32
S'--'
p665
sg34
S'--'
p666
sg36
S'--'
p667
sg38
S'--'
p668
sg40
S'--'
p669
sg42
S'10/19'
p670
sg44
S'Tarvaris Jackson'
p671
sg46
S'0.0'
p672
sg48
S'L26-28'
p673
sg50
S'2014'
p674
ssg86
(dp675
g5
S'--'
p676
sg7
g86
sg9
S'--'
p677
sg11
S'--'
p678
sg13
S'--'
p679
sg15
S'--'
p680
sg17
S'--'
p681
sg19
S'--'
p682
sg21
S'DAL'
p683
sg23
g24
sg25
S'--'
p684
sg27
S'--'
p685
sg29
S'--'
p686
sg31
g24
sg32
S'--'
p687
sg34
S'--'
p688
sg36
S'--'
p689
sg38
S'--'
p690
sg40
S'--'
p691
sg42
S'10/12'
p692
sg44
S'Tarvaris Jackson'
p693
sg46
S'0.0'
p694
sg48
S'L23-30'
p695
sg50
S'2014'
p696
ssg146
(dp697
g5
S'--'
p698
sg7
g146
sg9
S'--'
p699
sg11
S'--'
p700
sg13
S'--'
p701
sg15
S'--'
p702
sg17
S'--'
p703
sg19
S'--'
p704
sg21
S'OAK'
p705
sg23
g24
sg25
S'--'
p706
sg27
S'--'
p707
sg29
S'--'
p708
sg31
g24
sg32
S'--'
p709
sg34
S'--'
p710
sg36
S'--'
p711
sg38
S'--'
p712
sg40
S'--'
p713
sg42
S'11/02'
p714
sg44
S'Tarvaris Jackson'
p715
sg46
S'0.0'
p716
sg48
S'W30-24'
p717
sg50
S'2014'
p718
ssg359
(dp719
g5
S'--'
p720
sg7
g359
sg9
S'--'
p721
sg11
S'--'
p722
sg13
S'--'
p723
sg15
S'--'
p724
sg17
S'--'
p725
sg19
S'--'
p726
sg21
S'@CAR'
p727
sg23
g24
sg25
S'--'
p728
sg27
S'--'
p729
sg29
S'--'
p730
sg31
g24
sg32
S'--'
p731
sg34
S'--'
p732
sg36
S'--'
p733
sg38
S'--'
p734
sg40
S'--'
p735
sg42
S'10/26'
p736
sg44
S'Tarvaris Jackson'
p737
sg46
S'0.0'
p738
sg48
S'W13-9'
p739
sg50
S'2014'
p740
sssS'2011'
p741
(dp742
g3
(dp743
g5
S'24'
p744
sg7
S'11'
p745
sg9
S'5.0'
p746
sg11
S'58.3'
p747
sg13
g82
sg15
S'148'
p748
sg17
S'6.2'
p749
sg19
S'--'
p750
sg21
S'@STL'
p751
sg23
g78
sg25
S'14'
p752
sg27
S'40'
p753
sg29
S'10'
p754
sg31
g78
sg32
S'--'
p755
sg34
g24
sg36
g78
sg38
g159
sg40
g82
sg42
S'11/20'
p756
sg44
S'Tarvaris Jackson'
p757
sg46
S'55.6'
p758
sg48
S'W24-7'
p759
sg50
S'2011'
p760
ssg52
(dp761
g5
S'27'
p762
sg7
S'10'
p763
sg9
S'0.6'
p764
sg11
S'63.0'
p765
sg13
g264
sg15
S'217'
p766
sg17
S'8.0'
p767
sg19
S'--'
p768
sg21
S'BAL'
p769
sg23
g78
sg25
S'17'
p770
sg27
g146
sg29
g145
sg31
g78
sg32
S'--'
p771
sg34
g24
sg36
g24
sg38
g78
sg40
g24
sg42
S'11/13'
p772
sg44
S'Tarvaris Jackson'
p773
sg46
S'88.0'
p774
sg48
S'W22-17'
p775
sg50
S'2011'
p776
ssg76
(dp777
g5
S'16'
p778
sg7
S'13'
p779
sg9
S'2.0'
p780
sg11
S'81.3'
p781
sg13
g82
sg15
S'190'
p782
sg17
S'11.9'
p783
sg19
g78
sg21
S'PHI'
p784
sg23
g78
sg25
S'13'
p785
sg27
S'17'
p786
sg29
g159
sg31
g78
sg32
g24
sg34
g24
sg36
g78
sg38
g145
sg40
g24
sg42
S'12/01'
p787
sg44
S'Tarvaris Jackson'
p788
sg46
S'137.0'
p789
sg48
S'W31-14'
p790
sg50
S'2011'
p791
ssg94
(dp792
g5
S'30'
p793
sg7
S'12'
p794
sg9
S'--'
p795
sg11
S'46.7'
p796
sg13
S'--'
p797
sg15
S'144'
p798
sg17
S'4.8'
p799
sg19
S'--'
p800
sg21
S'WAS'
p801
sg23
g78
sg25
S'14'
p802
sg27
S'18'
p803
sg29
S'--'
p804
sg31
g78
sg32
S'--'
p805
sg34
S'--'
p806
sg36
g82
sg38
g82
sg40
g78
sg42
S'11/27'
p807
sg44
S'Tarvaris Jackson'
p808
sg46
S'69.3'
p809
sg48
S'L17-23'
p810
sg50
S'2011'
p811
ssg118
(dp812
g5
S'31'
p813
sg7
S'15'
p814
sg9
S'-0.7'
p815
sg11
S'61.3'
p816
sg13
g145
sg15
S'227'
p817
sg17
S'7.3'
p818
sg19
g78
sg21
S'@CHI'
p819
sg23
g78
sg25
S'19'
p820
sg27
g78
sg29
S'-2'
p821
sg31
g78
sg32
g78
sg34
g24
sg36
g78
sg38
g78
sg40
g24
sg42
S'12/18'
p822
sg44
S'Tarvaris Jackson'
p823
sg46
S'94.4'
p824
sg48
S'W38-14'
p825
sg50
S'2011'
p826
ssg140
(dp827
g5
S'32'
p828
sg7
S'14'
p829
sg9
S'0.8'
p830
sg11
S'65.6'
p831
sg13
g264
sg15
S'224'
p832
sg17
S'7.0'
p833
sg19
g82
sg21
S'STL'
p834
sg23
g78
sg25
S'21'
p835
sg27
S'10'
p836
sg29
g159
sg31
g78
sg32
g78
sg34
g24
sg36
g78
sg38
g82
sg40
g24
sg42
S'12/12'
p837
sg44
S'Tarvaris Jackson'
p838
sg46
S'96.4'
p839
sg48
S'W30-13'
p840
sg50
S'2011'
p841
ssg157
(dp842
g5
S'35'
p843
sg7
S'17'
p844
sg9
S'3.0'
p845
sg11
S'60.0'
p846
sg13
g78
sg15
S'222'
p847
sg17
S'6.3'
p848
sg19
g78
sg21
S'@ARI'
p849
sg23
g78
sg25
S'21'
p850
sg27
S'31'
p851
sg29
g145
sg31
g78
sg32
g24
sg34
g24
sg36
g78
sg38
g159
sg40
g78
sg42
S'01/01'
p852
sg44
S'Tarvaris Jackson'
p853
sg46
S'76.1'
p854
sg48
S'L20-23'
p855
sg50
S'2011'
p856
ssg174
(dp857
g5
S'28'
p858
sg7
S'16'
p859
sg9
S'1.5'
p860
sg11
S'53.6'
p861
sg13
g82
sg15
S'163'
p862
sg17
S'5.8'
p863
sg19
g78
sg21
S'SF'
p864
sg23
g78
sg25
S'15'
p865
sg27
S'22'
p866
sg29
g145
sg31
g78
sg32
g78
sg34
g24
sg36
g78
sg38
g159
sg40
g24
sg42
S'12/24'
p867
sg44
S'Tarvaris Jackson'
p868
sg46
S'82.9'
p869
sg48
S'L17-19'
p870
sg50
S'2011'
p871
ssg78
(dp872
g5
S'37'
p873
sg7
g78
sg9
S'3.3'
p874
sg11
S'56.8'
p875
sg13
g159
sg15
S'197'
p876
sg17
S'5.3'
p877
sg19
g145
sg21
S'@SF'
p878
sg23
g78
sg25
S'21'
p879
sg27
S'42'
p880
sg29
S'13'
p881
sg31
g78
sg32
g82
sg34
g24
sg36
g82
sg38
g264
sg40
g78
sg42
S'09/11'
p882
sg44
S'Tarvaris Jackson'
p883
sg46
S'78.3'
p884
sg48
S'L17-33'
p885
sg50
S'2011'
p886
ssg145
(dp887
g5
S'31'
p888
sg7
g145
sg9
S'5.0'
p889
sg11
S'58.1'
p890
sg13
g159
sg15
S'171'
p891
sg17
S'5.5'
p892
sg19
S'--'
p893
sg21
S'ARI'
p894
sg23
g78
sg25
S'18'
p895
sg27
S'32'
p896
sg29
S'20'
p897
sg31
g78
sg32
S'--'
p898
sg34
g78
sg36
g24
sg38
g159
sg40
g78
sg42
S'09/25'
p899
sg44
S'Tarvaris Jackson'
p900
sg46
S'60.0'
p901
sg48
S'W13-10'
p902
sg50
S'2011'
p903
ssg82
(dp904
g5
S'29'
p905
sg7
g82
sg9
S'4.0'
p906
sg11
S'69.0'
p907
sg13
g145
sg15
S'159'
p908
sg17
S'5.5'
p909
sg19
S'--'
p910
sg21
S'@PIT'
p911
sg23
g78
sg25
S'20'
p912
sg27
S'26'
p913
sg29
S'12'
p914
sg31
g78
sg32
S'--'
p915
sg34
g24
sg36
g24
sg38
g264
sg40
g24
sg42
S'09/18'
p916
sg44
S'Tarvaris Jackson'
p917
sg46
S'82.4'
p918
sg48
S'L0-24'
p919
sg50
S'2011'
p920
ssg264
(dp921
g5
S'22'
p922
sg7
g264
sg9
S'4.3'
p923
sg11
S'68.2'
p924
sg13
g159
sg15
S'166'
p925
sg17
S'7.5'
p926
sg19
S'--'
p927
sg21
S'@NYG'
p928
sg23
g78
sg25
S'15'
p929
sg27
S'24'
p930
sg29
S'17'
p931
sg31
g78
sg32
S'--'
p932
sg34
g24
sg36
g78
sg38
g159
sg40
g78
sg42
S'10/09'
p933
sg44
S'Tarvaris Jackson'
p934
sg46
S'86.6'
p935
sg48
S'W36-25'
p936
sg50
S'2011'
p937
ssg159
(dp938
g5
S'38'
p939
sg7
g159
sg9
S'8.0'
p940
sg11
S'65.8'
p941
sg13
g82
sg15
S'319'
p942
sg17
S'8.4'
p943
sg19
S'--'
p944
sg21
S'ATL'
p945
sg23
g78
sg25
S'25'
p946
sg27
g24
sg29
S'16'
p947
sg31
g78
sg32
S'--'
p948
sg34
g24
sg36
g145
sg38
g24
sg40
g82
sg42
S'10/02'
p949
sg44
S'Tarvaris Jackson'
p950
sg46
S'96.3'
p951
sg48
S'L28-30'
p952
sg50
S'2011'
p953
ssg309
(dp954
g5
S'--'
p955
sg7
g309
sg9
S'--'
p956
sg11
S'--'
p957
sg13
S'--'
p958
sg15
S'--'
p959
sg17
S'--'
p960
sg19
S'--'
p961
sg21
S'@CLE'
p962
sg23
g24
sg25
S'--'
p963
sg27
S'--'
p964
sg29
S'--'
p965
sg31
g24
sg32
S'--'
p966
sg34
S'--'
p967
sg36
S'--'
p968
sg38
S'--'
p969
sg40
S'--'
p970
sg42
S'10/23'
p971
sg44
S'Tarvaris Jackson'
p972
sg46
S'0.0'
p973
sg48
S'L3-6'
p974
sg50
S'2011'
p975
ssg86
(dp976
g5
g355
sg7
g86
sg9
g355
sg11
g355
sg13
g355
sg15
g355
sg17
g355
sg19
g355
sg21
g355
sg23
g355
sg25
g355
sg27
g355
sg29
g355
sg31
g355
sg32
g355
sg34
g355
sg36
g355
sg38
g355
sg40
g355
sg42
S'Bye'
p977
sg44
S'Tarvaris Jackson'
p978
sg46
g355
sg48
g355
sg50
S'2011'
p979
ssg146
(dp980
g5
S'30'
p981
sg7
g146
sg9
S'1.5'
p982
sg11
S'56.7'
p983
sg13
g82
sg15
S'221'
p984
sg17
S'7.4'
p985
sg19
S'--'
p986
sg21
S'@DAL'
p987
sg23
g78
sg25
S'17'
p988
sg27
g82
sg29
g145
sg31
g78
sg32
S'--'
p989
sg34
g24
sg36
g24
sg38
g78
sg40
g145
sg42
S'11/06'
p990
sg44
S'Tarvaris Jackson'
p991
sg46
S'40.4'
p992
sg48
S'L13-23'
p993
sg50
S'2011'
p994
ssg359
(dp995
g5
S'40'
p996
sg7
g359
sg9
S'2.0'
p997
sg11
S'52.5'
p998
sg13
g78
sg15
S'323'
p999
sg17
S'8.1'
p1000
sg19
S'--'
p1001
sg21
S'CIN'
p1002
sg23
g78
sg25
S'21'
p1003
sg27
S'19'
p1004
sg29
g82
sg31
g24
sg32
S'--'
p1005
sg34
g24
sg36
g24
sg38
g82
sg40
g78
sg42
S'10/30'
p1006
sg44
S'Tarvaris Jackson'
p1007
sg46
S'69.1'
p1008
sg48
S'L12-34'
p1009
sg50
S'2011'
p1010
sssS'2010'
p1011
(dp1012
g3
(dp1013
g5
S'--'
p1014
sg7
S'11'
p1015
sg9
S'--'
p1016
sg11
S'--'
p1017
sg13
S'--'
p1018
sg15
S'--'
p1019
sg17
S'--'
p1020
sg19
S'--'
p1021
sg21
S'GB'
p1022
sg23
g24
sg25
S'--'
p1023
sg27
S'--'
p1024
sg29
S'--'
p1025
sg31
g24
sg32
S'--'
p1026
sg34
S'--'
p1027
sg36
S'--'
p1028
sg38
S'--'
p1029
sg40
S'--'
p1030
sg42
S'11/21'
p1031
sg44
S'Tarvaris Jackson'
p1032
sg46
S'0.0'
p1033
sg48
S'L3-31'
p1034
sg50
S'2010'
p1035
ssg52
(dp1036
g5
S'--'
p1037
sg7
S'10'
p1038
sg9
S'--'
p1039
sg11
S'--'
p1040
sg13
S'--'
p1041
sg15
S'--'
p1042
sg17
S'--'
p1043
sg19
S'--'
p1044
sg21
S'@CHI'
p1045
sg23
g24
sg25
S'--'
p1046
sg27
S'--'
p1047
sg29
S'--'
p1048
sg31
g24
sg32
S'--'
p1049
sg34
S'--'
p1050
sg36
S'--'
p1051
sg38
S'--'
p1052
sg40
S'--'
p1053
sg42
S'11/14'
p1054
sg44
S'Tarvaris Jackson'
p1055
sg46
S'0.0'
p1056
sg48
S'L13-27'
p1057
sg50
S'2010'
p1058
ssg76
(dp1059
g5
S'22'
p1060
sg7
S'13'
p1061
sg9
S'11.0'
p1062
sg11
S'68.2'
p1063
sg13
g82
sg15
S'187'
p1064
sg17
S'8.5'
p1065
sg19
S'--'
p1066
sg21
S'BUF'
p1067
sg23
g78
sg25
S'15'
p1068
sg27
S'10'
p1069
sg29
S'22'
p1070
sg31
g24
sg32
S'--'
p1071
sg34
g24
sg36
g82
sg38
g78
sg40
g145
sg42
S'12/05'
p1072
sg44
S'Tarvaris Jackson'
p1073
sg46
S'85.0'
p1074
sg48
S'W38-14'
p1075
sg50
S'2010'
p1076
ssg94
(dp1077
g5
S'--'
p1078
sg7
S'12'
p1079
sg9
S'--'
p1080
sg11
S'--'
p1081
sg13
S'--'
p1082
sg15
S'--'
p1083
sg17
S'--'
p1084
sg19
S'--'
p1085
sg21
S'@WAS'
p1086
sg23
g24
sg25
S'--'
p1087
sg27
S'--'
p1088
sg29
S'--'
p1089
sg31
g24
sg32
S'--'
p1090
sg34
S'--'
p1091
sg36
S'--'
p1092
sg38
S'--'
p1093
sg40
S'--'
p1094
sg42
S'11/28'
p1095
sg44
S'Tarvaris Jackson'
p1096
sg46
S'0.0'
p1097
sg48
S'W17-13'
p1098
sg50
S'2010'
p1099
ssg140
(dp1100
g5
S'30'
p1101
sg7
S'14'
p1102
sg9
S'2.0'
p1103
sg11
S'50.0'
p1104
sg13
g159
sg15
S'118'
p1105
sg17
S'3.9'
p1106
sg19
g78
sg21
S'NYG'
p1107
sg23
g78
sg25
S'15'
p1108
sg27
S'23'
p1109
sg29
g359
sg31
g78
sg32
g24
sg34
g24
sg36
g24
sg38
g159
sg40
g78
sg42
S'12/13'
p1110
sg44
S'Tarvaris Jackson'
p1111
sg46
S'46.2'
p1112
sg48
S'L3-21'
p1113
sg50
S'2010'
p1114
ssg78
(dp1115
g5
S'--'
p1116
sg7
g78
sg9
S'--'
p1117
sg11
S'--'
p1118
sg13
S'--'
p1119
sg15
S'--'
p1120
sg17
S'--'
p1121
sg19
S'--'
p1122
sg21
S'@NO'
p1123
sg23
g24
sg25
S'--'
p1124
sg27
S'--'
p1125
sg29
S'--'
p1126
sg31
g24
sg32
S'--'
p1127
sg34
S'--'
p1128
sg36
S'--'
p1129
sg38
S'--'
p1130
sg40
S'--'
p1131
sg42
S'09/09'
p1132
sg44
S'Tarvaris Jackson'
p1133
sg46
S'0.0'
p1134
sg48
S'L9-14'
p1135
sg50
S'2010'
p1136
ssg145
(dp1137
g5
S'--'
p1138
sg7
g145
sg9
S'--'
p1139
sg11
S'--'
p1140
sg13
S'--'
p1141
sg15
S'--'
p1142
sg17
S'--'
p1143
sg19
S'--'
p1144
sg21
S'DET'
p1145
sg23
g24
sg25
S'--'
p1146
sg27
S'--'
p1147
sg29
S'--'
p1148
sg31
g24
sg32
S'--'
p1149
sg34
S'--'
p1150
sg36
S'--'
p1151
sg38
S'--'
p1152
sg40
S'--'
p1153
sg42
S'09/26'
p1154
sg44
S'Tarvaris Jackson'
p1155
sg46
S'0.0'
p1156
sg48
S'W24-10'
p1157
sg50
S'2010'
p1158
ssg82
(dp1159
g5
S'--'
p1160
sg7
g82
sg9
S'--'
p1161
sg11
S'--'
p1162
sg13
S'--'
p1163
sg15
S'--'
p1164
sg17
S'--'
p1165
sg19
S'--'
p1166
sg21
S'MIA'
p1167
sg23
g24
sg25
S'--'
p1168
sg27
S'--'
p1169
sg29
S'--'
p1170
sg31
g24
sg32
S'--'
p1171
sg34
S'--'
p1172
sg36
S'--'
p1173
sg38
S'--'
p1174
sg40
S'--'
p1175
sg42
S'09/19'
p1176
sg44
S'Tarvaris Jackson'
p1177
sg46
S'0.0'
p1178
sg48
S'L10-14'
p1179
sg50
S'2010'
p1180
ssg264
(dp1181
g5
S'--'
p1182
sg7
g264
sg9
S'--'
p1183
sg11
S'--'
p1184
sg13
S'--'
p1185
sg15
S'--'
p1186
sg17
S'--'
p1187
sg19
S'--'
p1188
sg21
S'@NYJ'
p1189
sg23
g24
sg25
S'--'
p1190
sg27
S'--'
p1191
sg29
S'--'
p1192
sg31
g24
sg32
S'--'
p1193
sg34
S'--'
p1194
sg36
S'--'
p1195
sg38
S'--'
p1196
sg40
S'--'
p1197
sg42
S'10/11'
p1198
sg44
S'Tarvaris Jackson'
p1199
sg46
S'0.0'
p1200
sg48
S'L20-29'
p1201
sg50
S'2010'
p1202
ssg159
(dp1203
g5
g355
sg7
g159
sg9
g355
sg11
g355
sg13
g355
sg15
g355
sg17
g355
sg19
g355
sg21
g355
sg23
g355
sg25
g355
sg27
g355
sg29
g355
sg31
g355
sg32
g355
sg34
g355
sg36
g355
sg38
g355
sg40
g355
sg42
S'Bye'
p1204
sg44
S'Tarvaris Jackson'
p1205
sg46
g355
sg48
g355
sg50
S'2010'
p1206
ssg309
(dp1207
g5
S'--'
p1208
sg7
g309
sg9
S'--'
p1209
sg11
S'--'
p1210
sg13
S'--'
p1211
sg15
S'--'
p1212
sg17
S'--'
p1213
sg19
S'--'
p1214
sg21
S'@GB'
p1215
sg23
g24
sg25
S'--'
p1216
sg27
S'--'
p1217
sg29
S'--'
p1218
sg31
g24
sg32
S'--'
p1219
sg34
S'--'
p1220
sg36
S'--'
p1221
sg38
S'--'
p1222
sg40
S'--'
p1223
sg42
S'10/24'
p1224
sg44
S'Tarvaris Jackson'
p1225
sg46
S'0.0'
p1226
sg48
S'L24-28'
p1227
sg50
S'2010'
p1228
ssg86
(dp1229
g5
S'--'
p1230
sg7
g86
sg9
S'--'
p1231
sg11
S'--'
p1232
sg13
S'--'
p1233
sg15
S'--'
p1234
sg17
S'--'
p1235
sg19
S'--'
p1236
sg21
S'DAL'
p1237
sg23
g24
sg25
S'--'
p1238
sg27
S'--'
p1239
sg29
S'--'
p1240
sg31
g24
sg32
S'--'
p1241
sg34
S'--'
p1242
sg36
S'--'
p1243
sg38
S'--'
p1244
sg40
S'--'
p1245
sg42
S'10/17'
p1246
sg44
S'Tarvaris Jackson'
p1247
sg46
S'0.0'
p1248
sg48
S'W24-21'
p1249
sg50
S'2010'
p1250
ssg146
(dp1251
g5
S'--'
p1252
sg7
g146
sg9
S'--'
p1253
sg11
S'--'
p1254
sg13
S'--'
p1255
sg15
S'--'
p1256
sg17
S'--'
p1257
sg19
S'--'
p1258
sg21
S'ARI'
p1259
sg23
g24
sg25
S'--'
p1260
sg27
S'--'
p1261
sg29
S'--'
p1262
sg31
g24
sg32
S'--'
p1263
sg34
S'--'
p1264
sg36
S'--'
p1265
sg38
S'--'
p1266
sg40
S'--'
p1267
sg42
S'11/07'
p1268
sg44
S'Tarvaris Jackson'
p1269
sg46
S'0.0'
p1270
sg48
S'W27-24'
p1271
sg50
S'2010'
p1272
ssg359
(dp1273
g5
g86
sg7
g359
sg9
S'33.0'
p1274
sg11
S'66.7'
p1275
sg13
g78
sg15
S'36'
p1276
sg17
S'6.0'
p1277
sg19
S'--'
p1278
sg21
S'@NE'
p1279
sg23
g78
sg25
g159
sg27
S'10'
p1280
sg29
S'33'
p1281
sg31
g24
sg32
S'--'
p1282
sg34
g24
sg36
g78
sg38
g78
sg40
g24
sg42
S'10/31'
p1283
sg44
S'Tarvaris Jackson'
p1284
sg46
S'122.2'
p1285
sg48
S'L18-28'
p1286
sg50
S'2010'
p1287
sssS'2013'
p1288
(dp1289
g3
(dp1290
g5
g145
sg7
S'11'
p1291
sg9
S'-1.0'
p1292
sg11
S'33.3'
p1293
sg13
g78
sg15
g86
sg17
S'2.0'
p1294
sg19
S'--'
p1295
sg21
S'MIN'
p1296
sg23
g78
sg25
g78
sg27
g24
sg29
S'-1'
p1297
sg31
g24
sg32
S'--'
p1298
sg34
g24
sg36
g24
sg38
g24
sg40
g24
sg42
S'11/17'
p1299
sg44
S'Tarvaris Jackson'
p1300
sg46
S'42.4'
p1301
sg48
S'W41-20'
p1302
sg50
S'2013'
p1303
ssg52
(dp1304
g5
S'--'
p1305
sg7
S'10'
p1306
sg9
S'--'
p1307
sg11
S'--'
p1308
sg13
S'--'
p1309
sg15
S'--'
p1310
sg17
S'--'
p1311
sg19
S'--'
p1312
sg21
S'@ATL'
p1313
sg23
g24
sg25
S'--'
p1314
sg27
S'--'
p1315
sg29
S'--'
p1316
sg31
g24
sg32
S'--'
p1317
sg34
S'--'
p1318
sg36
S'--'
p1319
sg38
S'--'
p1320
sg40
S'--'
p1321
sg42
S'11/10'
p1322
sg44
S'Tarvaris Jackson'
p1323
sg46
S'0.0'
p1324
sg48
S'W33-10'
p1325
sg50
S'2013'
p1326
ssg76
(dp1327
g5
S'--'
p1328
sg7
S'13'
p1329
sg9
S'--'
p1330
sg11
S'--'
p1331
sg13
S'--'
p1332
sg15
S'--'
p1333
sg17
S'--'
p1334
sg19
S'--'
p1335
sg21
S'NO'
p1336
sg23
g24
sg25
S'--'
p1337
sg27
S'--'
p1338
sg29
S'--'
p1339
sg31
g24
sg32
S'--'
p1340
sg34
S'--'
p1341
sg36
S'--'
p1342
sg38
S'--'
p1343
sg40
S'--'
p1344
sg42
S'12/02'
p1345
sg44
S'Tarvaris Jackson'
p1346
sg46
S'0.0'
p1347
sg48
S'W34-7'
p1348
sg50
S'2013'
p1349
ssg94
(dp1350
g5
g355
sg7
S'12'
p1351
sg9
g355
sg11
g355
sg13
g355
sg15
g355
sg17
g355
sg19
g355
sg21
g355
sg23
g355
sg25
g355
sg27
g355
sg29
g355
sg31
g355
sg32
g355
sg34
g355
sg36
g355
sg38
g355
sg40
g355
sg42
S'Bye'
p1352
sg44
S'Tarvaris Jackson'
p1353
sg46
g355
sg48
g355
sg50
S'2013'
p1354
ssg118
(dp1355
g5
g82
sg7
S'15'
p1356
sg9
S'--'
p1357
sg11
S'100.0'
p1358
sg13
S'--'
p1359
sg15
S'16'
p1360
sg17
S'8.0'
p1361
sg19
S'--'
p1362
sg21
S'@NYG'
p1363
sg23
g78
sg25
g82
sg27
g24
sg29
S'--'
p1364
sg31
g24
sg32
S'--'
p1365
sg34
S'--'
p1366
sg36
g24
sg38
g24
sg40
g24
sg42
S'12/15'
p1367
sg44
S'Tarvaris Jackson'
p1368
sg46
S'100.0'
p1369
sg48
S'W23-0'
p1370
sg50
S'2013'
p1371
ssg140
(dp1372
g5
S'--'
p1373
sg7
S'14'
p1374
sg9
S'--'
p1375
sg11
S'--'
p1376
sg13
S'--'
p1377
sg15
S'--'
p1378
sg17
S'--'
p1379
sg19
S'--'
p1380
sg21
S'@SF'
p1381
sg23
g24
sg25
S'--'
p1382
sg27
S'--'
p1383
sg29
S'--'
p1384
sg31
g24
sg32
S'--'
p1385
sg34
S'--'
p1386
sg36
S'--'
p1387
sg38
S'--'
p1388
sg40
S'--'
p1389
sg42
S'12/08'
p1390
sg44
S'Tarvaris Jackson'
p1391
sg46
S'0.0'
p1392
sg48
S'L17-19'
p1393
sg50
S'2013'
p1394
ssg157
(dp1395
g5
S'--'
p1396
sg7
S'17'
p1397
sg9
S'--'
p1398
sg11
S'--'
p1399
sg13
S'--'
p1400
sg15
S'--'
p1401
sg17
S'--'
p1402
sg19
S'--'
p1403
sg21
S'STL'
p1404
sg23
g24
sg25
S'--'
p1405
sg27
S'--'
p1406
sg29
S'--'
p1407
sg31
g24
sg32
S'--'
p1408
sg34
S'--'
p1409
sg36
S'--'
p1410
sg38
S'--'
p1411
sg40
S'--'
p1412
sg42
S'12/29'
p1413
sg44
S'Tarvaris Jackson'
p1414
sg46
S'0.0'
p1415
sg48
S'W27-9'
p1416
sg50
S'2013'
p1417
ssg174
(dp1418
g5
S'--'
p1419
sg7
S'16'
p1420
sg9
S'--'
p1421
sg11
S'--'
p1422
sg13
S'--'
p1423
sg15
S'--'
p1424
sg17
S'--'
p1425
sg19
S'--'
p1426
sg21
S'ARI'
p1427
sg23
g24
sg25
S'--'
p1428
sg27
S'--'
p1429
sg29
S'--'
p1430
sg31
g24
sg32
S'--'
p1431
sg34
S'--'
p1432
sg36
S'--'
p1433
sg38
S'--'
p1434
sg40
S'--'
p1435
sg42
S'12/22'
p1436
sg44
S'Tarvaris Jackson'
p1437
sg46
S'0.0'
p1438
sg48
S'L10-17'
p1439
sg50
S'2013'
p1440
ssg78
(dp1441
g5
S'--'
p1442
sg7
g78
sg9
S'--'
p1443
sg11
S'--'
p1444
sg13
S'--'
p1445
sg15
S'--'
p1446
sg17
S'--'
p1447
sg19
S'--'
p1448
sg21
S'@CAR'
p1449
sg23
g24
sg25
S'--'
p1450
sg27
S'--'
p1451
sg29
S'--'
p1452
sg31
g24
sg32
S'--'
p1453
sg34
S'--'
p1454
sg36
S'--'
p1455
sg38
S'--'
p1456
sg40
S'--'
p1457
sg42
S'09/08'
p1458
sg44
S'Tarvaris Jackson'
p1459
sg46
S'0.0'
p1460
sg48
S'W12-7'
p1461
sg50
S'2013'
p1462
ssg145
(dp1463
g5
g359
sg7
g145
sg9
S'0.7'
p1464
sg11
S'87.5'
p1465
sg13
g145
sg15
S'129'
p1466
sg17
S'16.1'
p1467
sg19
S'--'
p1468
sg21
S'JAC'
p1469
sg23
g78
sg25
g309
sg27
g24
sg29
g82
sg31
g24
sg32
S'--'
p1470
sg34
g78
sg36
g78
sg38
g24
sg40
g24
sg42
S'09/22'
p1471
sg44
S'Tarvaris Jackson'
p1472
sg46
S'158.3'
p1473
sg48
S'W45-17'
p1474
sg50
S'2013'
p1475
ssg82
(dp1476
g5
S'--'
p1477
sg7
g82
sg9
S'--'
p1478
sg11
S'--'
p1479
sg13
S'--'
p1480
sg15
S'--'
p1481
sg17
S'--'
p1482
sg19
S'--'
p1483
sg21
S'SF'
p1484
sg23
g24
sg25
S'--'
p1485
sg27
S'--'
p1486
sg29
S'--'
p1487
sg31
g24
sg32
S'--'
p1488
sg34
S'--'
p1489
sg36
S'--'
p1490
sg38
S'--'
p1491
sg40
S'--'
p1492
sg42
S'09/15'
p1493
sg44
S'Tarvaris Jackson'
p1494
sg46
S'0.0'
p1495
sg48
S'W29-3'
p1496
sg50
S'2013'
p1497
ssg264
(dp1498
g5
S'--'
p1499
sg7
g264
sg9
S'--'
p1500
sg11
S'--'
p1501
sg13
S'--'
p1502
sg15
S'--'
p1503
sg17
S'--'
p1504
sg19
S'--'
p1505
sg21
S'@IND'
p1506
sg23
g24
sg25
S'--'
p1507
sg27
S'--'
p1508
sg29
S'--'
p1509
sg31
g24
sg32
S'--'
p1510
sg34
S'--'
p1511
sg36
S'--'
p1512
sg38
S'--'
p1513
sg40
S'--'
p1514
sg42
S'10/06'
p1515
sg44
S'Tarvaris Jackson'
p1516
sg46
S'0.0'
p1517
sg48
S'L28-34'
p1518
sg50
S'2013'
p1519
ssg159
(dp1520
g5
S'--'
p1521
sg7
g159
sg9
S'--'
p1522
sg11
S'--'
p1523
sg13
S'--'
p1524
sg15
S'--'
p1525
sg17
S'--'
p1526
sg19
S'--'
p1527
sg21
S'@HOU'
p1528
sg23
g24
sg25
S'--'
p1529
sg27
S'--'
p1530
sg29
S'--'
p1531
sg31
g24
sg32
S'--'
p1532
sg34
S'--'
p1533
sg36
S'--'
p1534
sg38
S'--'
p1535
sg40
S'--'
p1536
sg42
S'09/29'
p1537
sg44
S'Tarvaris Jackson'
p1538
sg46
S'0.0'
p1539
sg48
S'W23-20'
p1540
sg50
S'2013'
p1541
ssg309
(dp1542
g5
S'--'
p1543
sg7
g309
sg9
S'--'
p1544
sg11
S'--'
p1545
sg13
S'--'
p1546
sg15
S'--'
p1547
sg17
S'--'
p1548
sg19
S'--'
p1549
sg21
S'@ARI'
p1550
sg23
g24
sg25
S'--'
p1551
sg27
S'--'
p1552
sg29
S'--'
p1553
sg31
g24
sg32
S'--'
p1554
sg34
S'--'
p1555
sg36
S'--'
p1556
sg38
S'--'
p1557
sg40
S'--'
p1558
sg42
S'10/17'
p1559
sg44
S'Tarvaris Jackson'
p1560
sg46
S'0.0'
p1561
sg48
S'W34-22'
p1562
sg50
S'2013'
p1563
ssg86
(dp1564
g5
S'--'
p1565
sg7
g86
sg9
S'--'
p1566
sg11
S'--'
p1567
sg13
S'--'
p1568
sg15
S'--'
p1569
sg17
S'--'
p1570
sg19
S'--'
p1571
sg21
S'TEN'
p1572
sg23
g24
sg25
S'--'
p1573
sg27
S'--'
p1574
sg29
S'--'
p1575
sg31
g24
sg32
S'--'
p1576
sg34
S'--'
p1577
sg36
S'--'
p1578
sg38
S'--'
p1579
sg40
S'--'
p1580
sg42
S'10/13'
p1581
sg44
S'Tarvaris Jackson'
p1582
sg46
S'0.0'
p1583
sg48
S'W20-13'
p1584
sg50
S'2013'
p1585
ssg146
(dp1586
g5
S'--'
p1587
sg7
g146
sg9
S'--'
p1588
sg11
S'--'
p1589
sg13
S'--'
p1590
sg15
S'--'
p1591
sg17
S'--'
p1592
sg19
S'--'
p1593
sg21
S'TB'
p1594
sg23
g24
sg25
S'--'
p1595
sg27
S'--'
p1596
sg29
S'--'
p1597
sg31
g24
sg32
S'--'
p1598
sg34
S'--'
p1599
sg36
S'--'
p1600
sg38
S'--'
p1601
sg40
S'--'
p1602
sg42
S'11/03'
p1603
sg44
S'Tarvaris Jackson'
p1604
sg46
S'0.0'
p1605
sg48
S'W27-24'
p1606
sg50
S'2013'
p1607
ssg359
(dp1608
g5
S'--'
p1609
sg7
g359
sg9
S'--'
p1610
sg11
S'--'
p1611
sg13
S'--'
p1612
sg15
S'--'
p1613
sg17
S'--'
p1614
sg19
S'--'
p1615
sg21
S'@STL'
p1616
sg23
g24
sg25
S'--'
p1617
sg27
S'--'
p1618
sg29
S'--'
p1619
sg31
g24
sg32
S'--'
p1620
sg34
S'--'
p1621
sg36
S'--'
p1622
sg38
S'--'
p1623
sg40
S'--'
p1624
sg42
S'10/28'
p1625
sg44
S'Tarvaris Jackson'
p1626
sg46
S'0.0'
p1627
sg48
S'W14-9'
p1628
sg50
S'2013'
p1629
sssS'2012'
p1630
(dp1631
g3
(dp1632
g5
S'--'
p1633
sg7
S'11'
p1634
sg9
S'--'
p1635
sg11
S'--'
p1636
sg13
S'--'
p1637
sg15
S'--'
p1638
sg17
S'--'
p1639
sg19
S'--'
p1640
sg21
S'MIA'
p1641
sg23
g24
sg25
S'--'
p1642
sg27
S'--'
p1643
sg29
S'--'
p1644
sg31
g24
sg32
S'--'
p1645
sg34
S'--'
p1646
sg36
S'--'
p1647
sg38
S'--'
p1648
sg40
S'--'
p1649
sg42
S'11/15'
p1650
sg44
S'Tarvaris Jackson'
p1651
sg46
S'0.0'
p1652
sg48
S'W19-14'
p1653
sg50
S'2012'
p1654
ssg52
(dp1655
g5
S'--'
p1656
sg7
S'10'
p1657
sg9
S'--'
p1658
sg11
S'--'
p1659
sg13
S'--'
p1660
sg15
S'--'
p1661
sg17
S'--'
p1662
sg19
S'--'
p1663
sg21
S'@NE'
p1664
sg23
g24
sg25
S'--'
p1665
sg27
S'--'
p1666
sg29
S'--'
p1667
sg31
g24
sg32
S'--'
p1668
sg34
S'--'
p1669
sg36
S'--'
p1670
sg38
S'--'
p1671
sg40
S'--'
p1672
sg42
S'11/11'
p1673
sg44
S'Tarvaris Jackson'
p1674
sg46
S'0.0'
p1675
sg48
S'L31-37'
p1676
sg50
S'2012'
p1677
ssg76
(dp1678
g5
S'--'
p1679
sg7
S'13'
p1680
sg9
S'--'
p1681
sg11
S'--'
p1682
sg13
S'--'
p1683
sg15
S'--'
p1684
sg17
S'--'
p1685
sg19
S'--'
p1686
sg21
S'JAC'
p1687
sg23
g24
sg25
S'--'
p1688
sg27
S'--'
p1689
sg29
S'--'
p1690
sg31
g24
sg32
S'--'
p1691
sg34
S'--'
p1692
sg36
S'--'
p1693
sg38
S'--'
p1694
sg40
S'--'
p1695
sg42
S'12/02'
p1696
sg44
S'Tarvaris Jackson'
p1697
sg46
S'0.0'
p1698
sg48
S'W34-18'
p1699
sg50
S'2012'
p1700
ssg94
(dp1701
g5
S'--'
p1702
sg7
S'12'
p1703
sg9
S'--'
p1704
sg11
S'--'
p1705
sg13
S'--'
p1706
sg15
S'--'
p1707
sg17
S'--'
p1708
sg19
S'--'
p1709
sg21
S'@IND'
p1710
sg23
g24
sg25
S'--'
p1711
sg27
S'--'
p1712
sg29
S'--'
p1713
sg31
g24
sg32
S'--'
p1714
sg34
S'--'
p1715
sg36
S'--'
p1716
sg38
S'--'
p1717
sg40
S'--'
p1718
sg42
S'11/25'
p1719
sg44
S'Tarvaris Jackson'
p1720
sg46
S'0.0'
p1721
sg48
S'L13-20'
p1722
sg50
S'2012'
p1723
ssg118
(dp1724
g5
S'--'
p1725
sg7
S'15'
p1726
sg9
S'--'
p1727
sg11
S'--'
p1728
sg13
S'--'
p1729
sg15
S'--'
p1730
sg17
S'--'
p1731
sg19
S'--'
p1732
sg21
S'SEA'
p1733
sg23
g24
sg25
S'--'
p1734
sg27
S'--'
p1735
sg29
S'--'
p1736
sg31
g24
sg32
S'--'
p1737
sg34
S'--'
p1738
sg36
S'--'
p1739
sg38
S'--'
p1740
sg40
S'--'
p1741
sg42
S'12/16'
p1742
sg44
S'Tarvaris Jackson'
p1743
sg46
S'0.0'
p1744
sg48
S'L17-50'
p1745
sg50
S'2012'
p1746
ssg140
(dp1747
g5
S'--'
p1748
sg7
S'14'
p1749
sg9
S'--'
p1750
sg11
S'--'
p1751
sg13
S'--'
p1752
sg15
S'--'
p1753
sg17
S'--'
p1754
sg19
S'--'
p1755
sg21
S'STL'
p1756
sg23
g24
sg25
S'--'
p1757
sg27
S'--'
p1758
sg29
S'--'
p1759
sg31
g24
sg32
S'--'
p1760
sg34
S'--'
p1761
sg36
S'--'
p1762
sg38
S'--'
p1763
sg40
S'--'
p1764
sg42
S'12/09'
p1765
sg44
S'Tarvaris Jackson'
p1766
sg46
S'0.0'
p1767
sg48
S'L12-15'
p1768
sg50
S'2012'
p1769
ssg157
(dp1770
g5
S'--'
p1771
sg7
S'17'
p1772
sg9
S'--'
p1773
sg11
S'--'
p1774
sg13
S'--'
p1775
sg15
S'--'
p1776
sg17
S'--'
p1777
sg19
S'--'
p1778
sg21
S'NYJ'
p1779
sg23
g24
sg25
S'--'
p1780
sg27
S'--'
p1781
sg29
S'--'
p1782
sg31
g24
sg32
S'--'
p1783
sg34
S'--'
p1784
sg36
S'--'
p1785
sg38
S'--'
p1786
sg40
S'--'
p1787
sg42
S'12/30'
p1788
sg44
S'Tarvaris Jackson'
p1789
sg46
S'0.0'
p1790
sg48
S'W28-9'
p1791
sg50
S'2012'
p1792
ssg174
(dp1793
g5
S'--'
p1794
sg7
S'16'
p1795
sg9
S'--'
p1796
sg11
S'--'
p1797
sg13
S'--'
p1798
sg15
S'--'
p1799
sg17
S'--'
p1800
sg19
S'--'
p1801
sg21
S'@MIA'
p1802
sg23
g24
sg25
S'--'
p1803
sg27
S'--'
p1804
sg29
S'--'
p1805
sg31
g24
sg32
S'--'
p1806
sg34
S'--'
p1807
sg36
S'--'
p1808
sg38
S'--'
p1809
sg40
S'--'
p1810
sg42
S'12/23'
p1811
sg44
S'Tarvaris Jackson'
p1812
sg46
S'0.0'
p1813
sg48
S'L10-24'
p1814
sg50
S'2012'
p1815
ssg78
(dp1816
g5
S'--'
p1817
sg7
g78
sg9
S'--'
p1818
sg11
S'--'
p1819
sg13
S'--'
p1820
sg15
S'--'
p1821
sg17
S'--'
p1822
sg19
S'--'
p1823
sg21
S'@NYJ'
p1824
sg23
g24
sg25
S'--'
p1825
sg27
S'--'
p1826
sg29
S'--'
p1827
sg31
g24
sg32
S'--'
p1828
sg34
S'--'
p1829
sg36
S'--'
p1830
sg38
S'--'
p1831
sg40
S'--'
p1832
sg42
S'09/09'
p1833
sg44
S'Tarvaris Jackson'
p1834
sg46
S'0.0'
p1835
sg48
S'L28-48'
p1836
sg50
S'2012'
p1837
ssg145
(dp1838
g5
S'--'
p1839
sg7
g145
sg9
S'--'
p1840
sg11
S'--'
p1841
sg13
S'--'
p1842
sg15
S'--'
p1843
sg17
S'--'
p1844
sg19
S'--'
p1845
sg21
S'@CLE'
p1846
sg23
g24
sg25
S'--'
p1847
sg27
S'--'
p1848
sg29
S'--'
p1849
sg31
g24
sg32
S'--'
p1850
sg34
S'--'
p1851
sg36
S'--'
p1852
sg38
S'--'
p1853
sg40
S'--'
p1854
sg42
S'09/23'
p1855
sg44
S'Tarvaris Jackson'
p1856
sg46
S'0.0'
p1857
sg48
S'W24-14'
p1858
sg50
S'2012'
p1859
ssg82
(dp1860
g5
S'--'
p1861
sg7
g82
sg9
S'--'
p1862
sg11
S'--'
p1863
sg13
S'--'
p1864
sg15
S'--'
p1865
sg17
S'--'
p1866
sg19
S'--'
p1867
sg21
S'KC'
p1868
sg23
g24
sg25
S'--'
p1869
sg27
S'--'
p1870
sg29
S'--'
p1871
sg31
g24
sg32
S'--'
p1872
sg34
S'--'
p1873
sg36
S'--'
p1874
sg38
S'--'
p1875
sg40
S'--'
p1876
sg42
S'09/16'
p1877
sg44
S'Tarvaris Jackson'
p1878
sg46
S'0.0'
p1879
sg48
S'W35-17'
p1880
sg50
S'2012'
p1881
ssg264
(dp1882
g5
S'--'
p1883
sg7
g264
sg9
S'--'
p1884
sg11
S'--'
p1885
sg13
S'--'
p1886
sg15
S'--'
p1887
sg17
S'--'
p1888
sg19
S'--'
p1889
sg21
S'@SF'
p1890
sg23
g24
sg25
S'--'
p1891
sg27
S'--'
p1892
sg29
S'--'
p1893
sg31
g24
sg32
S'--'
p1894
sg34
S'--'
p1895
sg36
S'--'
p1896
sg38
S'--'
p1897
sg40
S'--'
p1898
sg42
S'10/07'
p1899
sg44
S'Tarvaris Jackson'
p1900
sg46
S'0.0'
p1901
sg48
S'L3-45'
p1902
sg50
S'2012'
p1903
ssg159
(dp1904
g5
S'--'
p1905
sg7
g159
sg9
S'--'
p1906
sg11
S'--'
p1907
sg13
S'--'
p1908
sg15
S'--'
p1909
sg17
S'--'
p1910
sg19
S'--'
p1911
sg21
S'NE'
p1912
sg23
g24
sg25
S'--'
p1913
sg27
S'--'
p1914
sg29
S'--'
p1915
sg31
g24
sg32
S'--'
p1916
sg34
S'--'
p1917
sg36
S'--'
p1918
sg38
S'--'
p1919
sg40
S'--'
p1920
sg42
S'09/30'
p1921
sg44
S'Tarvaris Jackson'
p1922
sg46
S'0.0'
p1923
sg48
S'L28-52'
p1924
sg50
S'2012'
p1925
ssg309
(dp1926
g5
S'--'
p1927
sg7
g309
sg9
S'--'
p1928
sg11
S'--'
p1929
sg13
S'--'
p1930
sg15
S'--'
p1931
sg17
S'--'
p1932
sg19
S'--'
p1933
sg21
S'TEN'
p1934
sg23
g24
sg25
S'--'
p1935
sg27
S'--'
p1936
sg29
S'--'
p1937
sg31
g24
sg32
S'--'
p1938
sg34
S'--'
p1939
sg36
S'--'
p1940
sg38
S'--'
p1941
sg40
S'--'
p1942
sg42
S'10/21'
p1943
sg44
S'Tarvaris Jackson'
p1944
sg46
S'0.0'
p1945
sg48
S'L34-35'
p1946
sg50
S'2012'
p1947
ssg86
(dp1948
g5
S'--'
p1949
sg7
g86
sg9
S'--'
p1950
sg11
S'--'
p1951
sg13
S'--'
p1952
sg15
S'--'
p1953
sg17
S'--'
p1954
sg19
S'--'
p1955
sg21
S'@ARI'
p1956
sg23
g24
sg25
S'--'
p1957
sg27
S'--'
p1958
sg29
S'--'
p1959
sg31
g24
sg32
S'--'
p1960
sg34
S'--'
p1961
sg36
S'--'
p1962
sg38
S'--'
p1963
sg40
S'--'
p1964
sg42
S'10/14'
p1965
sg44
S'Tarvaris Jackson'
p1966
sg46
S'0.0'
p1967
sg48
S'W19-16'
p1968
sg50
S'2012'
p1969
ssg146
(dp1970
g5
S'--'
p1971
sg7
g146
sg9
S'--'
p1972
sg11
S'--'
p1973
sg13
S'--'
p1974
sg15
S'--'
p1975
sg17
S'--'
p1976
sg19
S'--'
p1977
sg21
S'@HOU'
p1978
sg23
g24
sg25
S'--'
p1979
sg27
S'--'
p1980
sg29
S'--'
p1981
sg31
g24
sg32
S'--'
p1982
sg34
S'--'
p1983
sg36
S'--'
p1984
sg38
S'--'
p1985
sg40
S'--'
p1986
sg42
S'11/04'
p1987
sg44
S'Tarvaris Jackson'
p1988
sg46
S'0.0'
p1989
sg48
S'L9-21'
p1990
sg50
S'2012'
p1991
ssg359
(dp1992
g5
g355
sg7
g359
sg9
g355
sg11
g355
sg13
g355
sg15
g355
sg17
g355
sg19
g355
sg21
g355
sg23
g355
sg25
g355
sg27
g355
sg29
g355
sg31
g355
sg32
g355
sg34
g355
sg36
g355
sg38
g355
sg40
g355
sg42
S'Bye'
p1993
sg44
S'Tarvaris Jackson'
p1994
sg46
g355
sg48
g355
sg50
S'2012'
p1995
sss.