(dp0
S'2015'
p1
(dp2
S'11'
p3
(dp4
S'PassAtt'
p5
S'--'
p6
sS'WK'
p7
S'11'
p8
sS'RushAvg'
p9
S'--'
p10
sS'Pct'
p11
S'--'
p12
sS'RushAtt'
p13
S'--'
p14
sS'PassYds'
p15
S'--'
p16
sS'PassAvg'
p17
S'--'
p18
sS'FUM'
p19
S'--'
p20
sS'Opp'
p21
S'GB'
p22
sS'G'
p23
S'0'
p24
sS'Comp'
p25
S'--'
p26
sS'SckY'
p27
S'--'
p28
sS'RushYds'
p29
S'--'
p30
sS'GS'
p31
g24
sS'Lost'
p32
S'--'
p33
sS'RushTD'
p34
S'--'
p35
sS'PassTD'
p36
S'--'
p37
sS'Sck'
p38
S'--'
p39
sS'Int'
p40
S'--'
p41
sS'Game Date'
p42
S'11/22'
p43
sS'Player'
p44
S'Taylor Heinicke'
p45
sS'Rate'
p46
S'0.0'
p47
sS'Result'
p48
S'L13-30'
p49
sS'Year'
p50
S'2015'
p51
ssS'10'
p52
(dp53
g5
S'--'
p54
sg7
S'10'
p55
sg9
S'--'
p56
sg11
S'--'
p57
sg13
S'--'
p58
sg15
S'--'
p59
sg17
S'--'
p60
sg19
S'--'
p61
sg21
S'@OAK'
p62
sg23
g24
sg25
S'--'
p63
sg27
S'--'
p64
sg29
S'--'
p65
sg31
g24
sg32
S'--'
p66
sg34
S'--'
p67
sg36
S'--'
p68
sg38
S'--'
p69
sg40
S'--'
p70
sg42
S'11/15'
p71
sg44
S'Taylor Heinicke'
p72
sg46
S'0.0'
p73
sg48
S'W30-14'
p74
sg50
S'2015'
p75
ssS'13'
p76
(dp77
g5
S'--'
p78
sg7
S'13'
p79
sg9
S'--'
p80
sg11
S'--'
p81
sg13
S'--'
p82
sg15
S'--'
p83
sg17
S'--'
p84
sg19
S'--'
p85
sg21
S'SEA'
p86
sg23
g24
sg25
S'--'
p87
sg27
S'--'
p88
sg29
S'--'
p89
sg31
g24
sg32
S'--'
p90
sg34
S'--'
p91
sg36
S'--'
p92
sg38
S'--'
p93
sg40
S'--'
p94
sg42
S'12/06'
p95
sg44
S'Taylor Heinicke'
p96
sg46
S'0.0'
p97
sg48
S'L7-38'
p98
sg50
S'2015'
p99
ssS'12'
p100
(dp101
g5
S'--'
p102
sg7
S'12'
p103
sg9
S'--'
p104
sg11
S'--'
p105
sg13
S'--'
p106
sg15
S'--'
p107
sg17
S'--'
p108
sg19
S'--'
p109
sg21
S'@ATL'
p110
sg23
g24
sg25
S'--'
p111
sg27
S'--'
p112
sg29
S'--'
p113
sg31
g24
sg32
S'--'
p114
sg34
S'--'
p115
sg36
S'--'
p116
sg38
S'--'
p117
sg40
S'--'
p118
sg42
S'11/29'
p119
sg44
S'Taylor Heinicke'
p120
sg46
S'0.0'
p121
sg48
S'W20-10'
p122
sg50
S'2015'
p123
ssS'15'
p124
(dp125
g5
S'--'
p126
sg7
S'15'
p127
sg9
S'--'
p128
sg11
S'--'
p129
sg13
S'--'
p130
sg15
S'--'
p131
sg17
S'--'
p132
sg19
S'--'
p133
sg21
S'CHI'
p134
sg23
g24
sg25
S'--'
p135
sg27
S'--'
p136
sg29
S'--'
p137
sg31
g24
sg32
S'--'
p138
sg34
S'--'
p139
sg36
S'--'
p140
sg38
S'--'
p141
sg40
S'--'
p142
sg42
S'12/20'
p143
sg44
S'Taylor Heinicke'
p144
sg46
S'0.0'
p145
sg48
S'W38-17'
p146
sg50
S'2015'
p147
ssS'14'
p148
(dp149
g5
S'--'
p150
sg7
S'14'
p151
sg9
S'--'
p152
sg11
S'--'
p153
sg13
S'--'
p154
sg15
S'--'
p155
sg17
S'--'
p156
sg19
S'--'
p157
sg21
S'@ARI'
p158
sg23
g24
sg25
S'--'
p159
sg27
S'--'
p160
sg29
S'--'
p161
sg31
g24
sg32
S'--'
p162
sg34
S'--'
p163
sg36
S'--'
p164
sg38
S'--'
p165
sg40
S'--'
p166
sg42
S'12/10'
p167
sg44
S'Taylor Heinicke'
p168
sg46
S'0.0'
p169
sg48
S'L20-23'
p170
sg50
S'2015'
p171
ssS'17'
p172
(dp173
g5
S'--'
p174
sg7
S'17'
p175
sg9
S'--'
p176
sg11
S'--'
p177
sg13
S'--'
p178
sg15
S'--'
p179
sg17
S'--'
p180
sg19
S'--'
p181
sg21
S'@GB'
p182
sg23
g24
sg25
S'--'
p183
sg27
S'--'
p184
sg29
S'--'
p185
sg31
g24
sg32
S'--'
p186
sg34
S'--'
p187
sg36
S'--'
p188
sg38
S'--'
p189
sg40
S'--'
p190
sg42
S'01/03'
p191
sg44
S'Taylor Heinicke'
p192
sg46
S'0.0'
p193
sg48
S'W20-13'
p194
sg50
S'2015'
p195
ssS'16'
p196
(dp197
g5
S'--'
p198
sg7
S'16'
p199
sg9
S'--'
p200
sg11
S'--'
p201
sg13
S'--'
p202
sg15
S'--'
p203
sg17
S'--'
p204
sg19
S'--'
p205
sg21
S'NYG'
p206
sg23
g24
sg25
S'--'
p207
sg27
S'--'
p208
sg29
S'--'
p209
sg31
g24
sg32
S'--'
p210
sg34
S'--'
p211
sg36
S'--'
p212
sg38
S'--'
p213
sg40
S'--'
p214
sg42
S'12/27'
p215
sg44
S'Taylor Heinicke'
p216
sg46
S'0.0'
p217
sg48
S'W49-17'
p218
sg50
S'2015'
p219
ssS'1'
p220
(dp221
g5
S'--'
p222
sg7
g220
sg9
S'--'
p223
sg11
S'--'
p224
sg13
S'--'
p225
sg15
S'--'
p226
sg17
S'--'
p227
sg19
S'--'
p228
sg21
S'@SF'
p229
sg23
g24
sg25
S'--'
p230
sg27
S'--'
p231
sg29
S'--'
p232
sg31
g24
sg32
S'--'
p233
sg34
S'--'
p234
sg36
S'--'
p235
sg38
S'--'
p236
sg40
S'--'
p237
sg42
S'09/14'
p238
sg44
S'Taylor Heinicke'
p239
sg46
S'0.0'
p240
sg48
S'L3-20'
p241
sg50
S'2015'
p242
ssS'3'
p243
(dp244
g5
S'--'
p245
sg7
g243
sg9
S'--'
p246
sg11
S'--'
p247
sg13
S'--'
p248
sg15
S'--'
p249
sg17
S'--'
p250
sg19
S'--'
p251
sg21
S'SD'
p252
sg23
g24
sg25
S'--'
p253
sg27
S'--'
p254
sg29
S'--'
p255
sg31
g24
sg32
S'--'
p256
sg34
S'--'
p257
sg36
S'--'
p258
sg38
S'--'
p259
sg40
S'--'
p260
sg42
S'09/27'
p261
sg44
S'Taylor Heinicke'
p262
sg46
S'0.0'
p263
sg48
S'W31-14'
p264
sg50
S'2015'
p265
ssS'2'
p266
(dp267
g5
S'--'
p268
sg7
g266
sg9
S'--'
p269
sg11
S'--'
p270
sg13
S'--'
p271
sg15
S'--'
p272
sg17
S'--'
p273
sg19
S'--'
p274
sg21
S'DET'
p275
sg23
g24
sg25
S'--'
p276
sg27
S'--'
p277
sg29
S'--'
p278
sg31
g24
sg32
S'--'
p279
sg34
S'--'
p280
sg36
S'--'
p281
sg38
S'--'
p282
sg40
S'--'
p283
sg42
S'09/20'
p284
sg44
S'Taylor Heinicke'
p285
sg46
S'0.0'
p286
sg48
S'W26-16'
p287
sg50
S'2015'
p288
ssS'5'
p289
(dp290
g5
S''
p291
sg7
g289
sg9
g291
sg11
g291
sg13
g291
sg15
g291
sg17
g291
sg19
g291
sg21
g291
sg23
g291
sg25
g291
sg27
g291
sg29
g291
sg31
g291
sg32
g291
sg34
g291
sg36
g291
sg38
g291
sg40
g291
sg42
S'Bye'
p292
sg44
S'Taylor Heinicke'
p293
sg46
g291
sg48
g291
sg50
S'2015'
p294
ssS'4'
p295
(dp296
g5
S'--'
p297
sg7
g295
sg9
S'--'
p298
sg11
S'--'
p299
sg13
S'--'
p300
sg15
S'--'
p301
sg17
S'--'
p302
sg19
S'--'
p303
sg21
S'@DEN'
p304
sg23
g24
sg25
S'--'
p305
sg27
S'--'
p306
sg29
S'--'
p307
sg31
g24
sg32
S'--'
p308
sg34
S'--'
p309
sg36
S'--'
p310
sg38
S'--'
p311
sg40
S'--'
p312
sg42
S'10/04'
p313
sg44
S'Taylor Heinicke'
p314
sg46
S'0.0'
p315
sg48
S'L20-23'
p316
sg50
S'2015'
p317
ssS'7'
p318
(dp319
g5
S'--'
p320
sg7
g318
sg9
S'--'
p321
sg11
S'--'
p322
sg13
S'--'
p323
sg15
S'--'
p324
sg17
S'--'
p325
sg19
S'--'
p326
sg21
S'@DET'
p327
sg23
g24
sg25
S'--'
p328
sg27
S'--'
p329
sg29
S'--'
p330
sg31
g24
sg32
S'--'
p331
sg34
S'--'
p332
sg36
S'--'
p333
sg38
S'--'
p334
sg40
S'--'
p335
sg42
S'10/25'
p336
sg44
S'Taylor Heinicke'
p337
sg46
S'0.0'
p338
sg48
S'W28-19'
p339
sg50
S'2015'
p340
ssS'6'
p341
(dp342
g5
S'--'
p343
sg7
g341
sg9
S'--'
p344
sg11
S'--'
p345
sg13
S'--'
p346
sg15
S'--'
p347
sg17
S'--'
p348
sg19
S'--'
p349
sg21
S'KC'
p350
sg23
g24
sg25
S'--'
p351
sg27
S'--'
p352
sg29
S'--'
p353
sg31
g24
sg32
S'--'
p354
sg34
S'--'
p355
sg36
S'--'
p356
sg38
S'--'
p357
sg40
S'--'
p358
sg42
S'10/18'
p359
sg44
S'Taylor Heinicke'
p360
sg46
S'0.0'
p361
sg48
S'W16-10'
p362
sg50
S'2015'
p363
ssS'9'
p364
(dp365
g5
S'--'
p366
sg7
g364
sg9
S'--'
p367
sg11
S'--'
p368
sg13
S'--'
p369
sg15
S'--'
p370
sg17
S'--'
p371
sg19
S'--'
p372
sg21
S'STL'
p373
sg23
g24
sg25
S'--'
p374
sg27
S'--'
p375
sg29
S'--'
p376
sg31
g24
sg32
S'--'
p377
sg34
S'--'
p378
sg36
S'--'
p379
sg38
S'--'
p380
sg40
S'--'
p381
sg42
S'11/08'
p382
sg44
S'Taylor Heinicke'
p383
sg46
S'0.0'
p384
sg48
S'W21-18'
p385
sg50
S'2015'
p386
ssS'8'
p387
(dp388
g5
S'--'
p389
sg7
g387
sg9
S'--'
p390
sg11
S'--'
p391
sg13
S'--'
p392
sg15
S'--'
p393
sg17
S'--'
p394
sg19
S'--'
p395
sg21
S'@CHI'
p396
sg23
g24
sg25
S'--'
p397
sg27
S'--'
p398
sg29
S'--'
p399
sg31
g24
sg32
S'--'
p400
sg34
S'--'
p401
sg36
S'--'
p402
sg38
S'--'
p403
sg40
S'--'
p404
sg42
S'11/01'
p405
sg44
S'Taylor Heinicke'
p406
sg46
S'0.0'
p407
sg48
S'W23-20'
p408
sg50
S'2015'
p409
sss.