(dp0
S'2015'
p1
(dp2
S'11'
p3
(dp4
S'PassAtt'
p5
S'37'
p6
sS'WK'
p7
S'11'
p8
sS'RushAvg'
p9
S'10.8'
p10
sS'Pct'
p11
S'67.6'
p12
sS'RushAtt'
p13
S'4'
p14
sS'PassYds'
p15
S'296'
p16
sS'PassAvg'
p17
S'8.0'
p18
sS'FUM'
p19
S'--'
p20
sS'Opp'
p21
S'GB'
p22
sS'G'
p23
S'1'
p24
sS'Comp'
p25
S'25'
p26
sS'SckY'
p27
S'48'
p28
sS'RushYds'
p29
S'43'
p30
sS'GS'
p31
g24
sS'Lost'
p32
S'--'
p33
sS'RushTD'
p34
S'0'
p35
sS'PassTD'
p36
g24
sS'Sck'
p37
S'6'
p38
sS'Int'
p39
g35
sS'Game Date'
p40
S'11/22'
p41
sS'Player'
p42
S'Teddy Bridgewater'
p43
sS'Rate'
p44
S'100.7'
p45
sS'Result'
p46
S'L13-30'
p47
sS'Year'
p48
S'2015'
p49
ssS'10'
p50
(dp51
g5
S'22'
p52
sg7
S'10'
p53
sg9
S'11.5'
p54
sg11
S'63.6'
p55
sg13
S'2'
p56
sg15
S'140'
p57
sg17
S'6.4'
p58
sg19
g24
sg21
S'@OAK'
p59
sg23
g24
sg25
S'14'
p60
sg27
S'18'
p61
sg29
S'23'
p62
sg31
g24
sg32
g35
sg34
g35
sg36
g24
sg37
g14
sg39
g35
sg40
S'11/15'
p63
sg42
S'Teddy Bridgewater'
p64
sg44
S'96.8'
p65
sg46
S'W30-14'
p66
sg48
S'2015'
p67
ssS'13'
p68
(dp69
g5
S'28'
p70
sg7
S'13'
p71
sg9
S'2.0'
p72
sg11
S'60.7'
p73
sg13
g24
sg15
S'118'
p74
sg17
S'4.2'
p75
sg19
g24
sg21
S'SEA'
p76
sg23
g24
sg25
S'17'
p77
sg27
S'24'
p78
sg29
g56
sg31
g24
sg32
g35
sg34
g35
sg36
g35
sg37
g14
sg39
g24
sg40
S'12/06'
p79
sg42
S'Teddy Bridgewater'
p80
sg44
S'55.4'
p81
sg46
S'L7-38'
p82
sg48
S'2015'
p83
ssS'12'
p84
(dp85
g5
S'28'
p86
sg7
S'12'
p87
sg9
S'-0.8'
p88
sg11
S'71.4'
p89
sg13
g14
sg15
S'174'
p90
sg17
S'6.2'
p91
sg19
S'--'
p92
sg21
S'@ATL'
p93
sg23
g24
sg25
S'20'
p94
sg27
g35
sg29
S'-3'
p95
sg31
g24
sg32
S'--'
p96
sg34
g35
sg36
g35
sg37
g35
sg39
g24
sg40
S'11/29'
p97
sg42
S'Teddy Bridgewater'
p98
sg44
S'72.6'
p99
sg46
S'W20-10'
p100
sg48
S'2015'
p101
ssS'15'
p102
(dp103
g5
S'20'
p104
sg7
S'15'
p105
sg9
S'4.3'
p106
sg11
S'85.0'
p107
sg13
g14
sg15
S'231'
p108
sg17
S'11.5'
p109
sg19
g24
sg21
S'CHI'
p110
sg23
g24
sg25
S'17'
p111
sg27
S'10'
p112
sg29
S'17'
p113
sg31
g24
sg32
g35
sg34
g24
sg36
g14
sg37
g24
sg39
g35
sg40
S'12/20'
p114
sg42
S'Teddy Bridgewater'
p115
sg44
S'154.4'
p116
sg46
S'W38-17'
p117
sg48
S'2015'
p118
ssS'14'
p119
(dp120
g5
S'36'
p121
sg7
S'14'
p122
sg9
S'3.0'
p123
sg11
S'69.4'
p124
sg13
g24
sg15
S'335'
p125
sg17
S'9.3'
p126
sg19
g24
sg21
S'@ARI'
p127
sg23
g24
sg25
S'25'
p128
sg27
S'18'
p129
sg29
S'3'
p130
sg31
g24
sg32
g24
sg34
g35
sg36
g24
sg37
g130
sg39
g35
sg40
S'12/10'
p131
sg42
S'Teddy Bridgewater'
p132
sg44
S'108.0'
p133
sg46
S'L20-23'
p134
sg48
S'2015'
p135
ssS'17'
p136
(dp137
g5
S'19'
p138
sg7
S'17'
p139
sg9
S'1.0'
p140
sg11
S'52.6'
p141
sg13
g56
sg15
S'99'
p142
sg17
S'5.2'
p143
sg19
g24
sg21
S'@GB'
p144
sg23
g24
sg25
S'10'
p145
sg27
S'8'
p146
sg29
g56
sg31
g24
sg32
g35
sg34
g35
sg36
g35
sg37
g130
sg39
g24
sg40
S'01/03'
p147
sg42
S'Teddy Bridgewater'
p148
sg44
S'45.7'
p149
sg46
S'W20-13'
p150
sg48
S'2015'
p151
ssS'16'
p152
(dp153
g5
S'25'
p154
sg7
S'16'
p155
sg9
S'6.0'
p156
sg11
S'60.0'
p157
sg13
g56
sg15
S'168'
p158
sg17
S'6.7'
p159
sg19
S'--'
p160
sg21
S'NYG'
p161
sg23
g24
sg25
S'15'
p162
sg27
S'18'
p163
sg29
S'12'
p164
sg31
g24
sg32
S'--'
p165
sg34
g35
sg36
g24
sg37
g130
sg39
g35
sg40
S'12/27'
p166
sg42
S'Teddy Bridgewater'
p167
sg44
S'93.4'
p168
sg46
S'W49-17'
p169
sg48
S'2015'
p170
ssg24
(dp171
g5
S'32'
p172
sg7
g24
sg9
S'5.3'
p173
sg11
S'71.9'
p174
sg13
g130
sg15
S'231'
p175
sg17
S'7.2'
p176
sg19
S'--'
p177
sg21
S'@SF'
p178
sg23
g24
sg25
S'23'
p179
sg27
S'54'
p180
sg29
S'16'
p181
sg31
g24
sg32
S'--'
p182
sg34
g35
sg36
g35
sg37
S'5'
p183
sg39
g24
sg40
S'09/14'
p184
sg42
S'Teddy Bridgewater'
p185
sg44
S'79.0'
p186
sg46
S'L3-20'
p187
sg48
S'2015'
p188
ssg130
(dp189
g5
S'24'
p190
sg7
g130
sg9
S'-1.0'
p191
sg11
S'54.2'
p192
sg13
g24
sg15
S'121'
p193
sg17
S'5.0'
p194
sg19
S'--'
p195
sg21
S'SD'
p196
sg23
g24
sg25
S'13'
p197
sg27
g35
sg29
S'-1'
p198
sg31
g24
sg32
S'--'
p199
sg34
g35
sg36
g35
sg37
g35
sg39
g24
sg40
S'09/27'
p200
sg42
S'Teddy Bridgewater'
p201
sg44
S'50.9'
p202
sg46
S'W31-14'
p203
sg48
S'2015'
p204
ssg56
(dp205
g5
S'18'
p206
sg7
g56
sg9
S'3.5'
p207
sg11
S'77.8'
p208
sg13
g38
sg15
S'153'
p209
sg17
S'8.5'
p210
sg19
S'--'
p211
sg21
S'DET'
p212
sg23
g24
sg25
S'14'
p213
sg27
g56
sg29
S'21'
p214
sg31
g24
sg32
S'--'
p215
sg34
g24
sg36
g24
sg37
g24
sg39
g35
sg40
S'09/20'
p216
sg42
S'Teddy Bridgewater'
p217
sg44
S'120.6'
p218
sg46
S'W26-16'
p219
sg48
S'2015'
p220
ssg183
(dp221
g5
S''
p222
sg7
g183
sg9
g222
sg11
g222
sg13
g222
sg15
g222
sg17
g222
sg19
g222
sg21
g222
sg23
g222
sg25
g222
sg27
g222
sg29
g222
sg31
g222
sg32
g222
sg34
g222
sg36
g222
sg37
g222
sg39
g222
sg40
S'Bye'
p223
sg42
S'Teddy Bridgewater'
p224
sg44
g222
sg46
g222
sg48
S'2015'
p225
ssg14
(dp226
g5
S'41'
p227
sg7
g14
sg9
S'7.7'
p228
sg11
S'65.9'
p229
sg13
g130
sg15
S'269'
p230
sg17
S'6.6'
p231
sg19
g24
sg21
S'@DEN'
p232
sg23
g24
sg25
S'27'
p233
sg27
S'57'
p234
sg29
S'23'
p235
sg31
g24
sg32
g24
sg34
g35
sg36
g24
sg37
S'7'
p236
sg39
g35
sg40
S'10/04'
p237
sg42
S'Teddy Bridgewater'
p238
sg44
S'92.4'
p239
sg46
S'L20-23'
p240
sg48
S'2015'
p241
ssg236
(dp242
g5
S'35'
p243
sg7
g236
sg9
S'0.3'
p244
sg11
S'71.4'
p245
sg13
g130
sg15
S'316'
p246
sg17
S'9.0'
p247
sg19
g56
sg21
S'@DET'
p248
sg23
g24
sg25
S'25'
p249
sg27
S'31'
p250
sg29
g24
sg31
g24
sg32
g24
sg34
g35
sg36
g56
sg37
g14
sg39
g35
sg40
S'10/25'
p251
sg42
S'Teddy Bridgewater'
p252
sg44
S'118.3'
p253
sg46
S'W28-19'
p254
sg48
S'2015'
p255
ssg38
(dp256
g5
S'31'
p257
sg7
g38
sg9
S'-1.7'
p258
sg11
S'54.8'
p259
sg13
g130
sg15
S'249'
p260
sg17
S'8.0'
p261
sg19
S'--'
p262
sg21
S'KC'
p263
sg23
g24
sg25
S'17'
p264
sg27
S'12'
p265
sg29
S'-5'
p266
sg31
g24
sg32
S'--'
p267
sg34
g35
sg36
g24
sg37
g56
sg39
g56
sg40
S'10/18'
p268
sg42
S'Teddy Bridgewater'
p269
sg44
S'65.1'
p270
sg46
S'W16-10'
p271
sg48
S'2015'
p272
ssS'9'
p273
(dp274
g5
S'21'
p275
sg7
g273
sg9
S'5.7'
p276
sg11
S'61.9'
p277
sg13
g130
sg15
S'144'
p278
sg17
S'6.9'
p279
sg19
S'--'
p280
sg21
S'STL'
p281
sg23
g24
sg25
S'13'
p282
sg27
g35
sg29
S'17'
p283
sg31
g24
sg32
S'--'
p284
sg34
g24
sg36
g35
sg37
g35
sg39
g24
sg40
S'11/08'
p285
sg42
S'Teddy Bridgewater'
p286
sg44
S'62.4'
p287
sg46
S'W21-18'
p288
sg48
S'2015'
p289
ssg146
(dp290
g5
S'30'
p291
sg7
g146
sg9
S'10.5'
p292
sg11
S'56.7'
p293
sg13
g56
sg15
S'187'
p294
sg17
S'6.2'
p295
sg19
S'--'
p296
sg21
S'@CHI'
p297
sg23
g24
sg25
S'17'
p298
sg27
g236
sg29
S'21'
p299
sg31
g24
sg32
S'--'
p300
sg34
g35
sg36
g24
sg37
g24
sg39
g24
sg40
S'11/01'
p301
sg42
S'Teddy Bridgewater'
p302
sg44
S'72.5'
p303
sg46
S'W23-20'
p304
sg48
S'2015'
p305
sssS'2014'
p306
(dp307
g3
(dp308
g5
S'28'
p309
sg7
S'11'
p310
sg9
S'0.5'
p311
sg11
S'64.3'
p312
sg13
g14
sg15
S'158'
p313
sg17
S'5.6'
p314
sg19
S'--'
p315
sg21
S'@CHI'
p316
sg23
g24
sg25
S'18'
p317
sg27
S'11'
p318
sg29
g56
sg31
g24
sg32
S'--'
p319
sg34
g35
sg36
g24
sg37
g56
sg39
g24
sg40
S'11/16'
p320
sg42
S'Teddy Bridgewater'
p321
sg44
S'76.2'
p322
sg46
S'L13-21'
p323
sg48
S'2014'
p324
ssg50
(dp325
g5
g222
sg7
S'10'
p326
sg9
g222
sg11
g222
sg13
g222
sg15
g222
sg17
g222
sg19
g222
sg21
g222
sg23
g222
sg25
g222
sg27
g222
sg29
g222
sg31
g222
sg32
g222
sg34
g222
sg36
g222
sg37
g222
sg39
g222
sg40
S'Bye'
p327
sg42
S'Teddy Bridgewater'
p328
sg44
g222
sg46
g222
sg48
S'2014'
p329
ssg68
(dp330
g5
S'21'
p331
sg7
S'13'
p332
sg9
S'6.0'
p333
sg11
S'71.4'
p334
sg13
g56
sg15
S'138'
p335
sg17
S'6.6'
p336
sg19
g24
sg21
S'CAR'
p337
sg23
g24
sg25
S'15'
p338
sg27
S'20'
p339
sg29
S'12'
p340
sg31
g24
sg32
g35
sg34
g35
sg36
g56
sg37
g130
sg39
g35
sg40
S'11/30'
p341
sg42
S'Teddy Bridgewater'
p342
sg44
S'120.7'
p343
sg46
S'W31-13'
p344
sg48
S'2014'
p345
ssg84
(dp346
g5
S'37'
p347
sg7
S'12'
p348
sg9
S'6.4'
p349
sg11
S'56.8'
p350
sg13
g183
sg15
S'210'
p351
sg17
S'5.7'
p352
sg19
S'--'
p353
sg21
S'GB'
p354
sg23
g24
sg25
S'21'
p355
sg27
S'14'
p356
sg29
S'32'
p357
sg31
g24
sg32
S'--'
p358
sg34
g35
sg36
g56
sg37
g56
sg39
g24
sg40
S'11/23'
p359
sg42
S'Teddy Bridgewater'
p360
sg44
S'79.8'
p361
sg46
S'L21-24'
p362
sg48
S'2014'
p363
ssg102
(dp364
g5
S'41'
p365
sg7
S'15'
p366
sg9
S'10.0'
p367
sg11
S'75.6'
p368
sg13
g130
sg15
S'315'
p369
sg17
S'7.7'
p370
sg19
g24
sg21
S'@DET'
p371
sg23
g24
sg25
S'31'
p372
sg27
S'31'
p373
sg29
S'30'
p374
sg31
g24
sg32
g35
sg34
g35
sg36
g24
sg37
g14
sg39
g56
sg40
S'12/14'
p375
sg42
S'Teddy Bridgewater'
p376
sg44
S'84.9'
p377
sg46
S'L14-16'
p378
sg48
S'2014'
p379
ssg119
(dp380
g5
S'27'
p381
sg7
S'14'
p382
sg9
S'2.3'
p383
sg11
S'70.4'
p384
sg13
g130
sg15
S'309'
p385
sg17
S'11.4'
p386
sg19
S'--'
p387
sg21
S'NYJ'
p388
sg23
g24
sg25
S'19'
p389
sg27
S'12'
p390
sg29
g236
sg31
g24
sg32
S'--'
p391
sg34
g35
sg36
g56
sg37
g130
sg39
g24
sg40
S'12/07'
p392
sg42
S'Teddy Bridgewater'
p393
sg44
S'117.7'
p394
sg46
S'W30-24'
p395
sg48
S'2014'
p396
ssg136
(dp397
g5
S'25'
p398
sg7
S'17'
p399
sg9
S'3.0'
p400
sg11
S'68.0'
p401
sg13
g38
sg15
S'209'
p402
sg17
S'8.4'
p403
sg19
S'--'
p404
sg21
S'CHI'
p405
sg23
g24
sg25
S'17'
p406
sg27
S'19'
p407
sg29
S'18'
p408
sg31
g24
sg32
S'--'
p409
sg34
g35
sg36
g24
sg37
g130
sg39
g24
sg40
S'12/28'
p410
sg42
S'Teddy Bridgewater'
p411
sg44
S'90.2'
p412
sg46
S'W13-9'
p413
sg48
S'2014'
p414
ssg152
(dp415
g5
S'26'
p416
sg7
S'16'
p417
sg9
S'2.6'
p418
sg11
S'73.1'
p419
sg13
g183
sg15
S'259'
p420
sg17
S'10.0'
p421
sg19
S'--'
p422
sg21
S'@MIA'
p423
sg23
g24
sg25
S'19'
p424
sg27
S'21'
p425
sg29
S'13'
p426
sg31
g24
sg32
S'--'
p427
sg34
g35
sg36
g56
sg37
g14
sg39
g24
sg40
S'12/21'
p428
sg42
S'Teddy Bridgewater'
p429
sg44
S'114.1'
p430
sg46
S'L35-37'
p431
sg48
S'2014'
p432
ssg24
(dp433
g5
S'--'
p434
sg7
g24
sg9
S'--'
p435
sg11
S'--'
p436
sg13
S'--'
p437
sg15
S'--'
p438
sg17
S'--'
p439
sg19
S'--'
p440
sg21
S'@STL'
p441
sg23
g35
sg25
S'--'
p442
sg27
S'--'
p443
sg29
S'--'
p444
sg31
g35
sg32
S'--'
p445
sg34
S'--'
p446
sg36
S'--'
p447
sg37
S'--'
p448
sg39
S'--'
p449
sg40
S'09/07'
p450
sg42
S'Teddy Bridgewater'
p451
sg44
S'0.0'
p452
sg46
S'W34-6'
p453
sg48
S'2014'
p454
ssg130
(dp455
g5
S'20'
p456
sg7
g130
sg9
S'4.5'
p457
sg11
S'60.0'
p458
sg13
g38
sg15
S'150'
p459
sg17
S'7.5'
p460
sg19
S'--'
p461
sg21
S'@NO'
p462
sg23
g24
sg25
S'12'
p463
sg27
S'15'
p464
sg29
S'27'
p465
sg31
g35
sg32
S'--'
p466
sg34
g35
sg36
g35
sg37
g56
sg39
g35
sg40
S'09/21'
p467
sg42
S'Teddy Bridgewater'
p468
sg44
S'83.3'
p469
sg46
S'L9-20'
p470
sg48
S'2014'
p471
ssg56
(dp472
g5
S'--'
p473
sg7
g56
sg9
S'--'
p474
sg11
S'--'
p475
sg13
S'--'
p476
sg15
S'--'
p477
sg17
S'--'
p478
sg19
S'--'
p479
sg21
S'NE'
p480
sg23
g35
sg25
S'--'
p481
sg27
S'--'
p482
sg29
S'--'
p483
sg31
g35
sg32
S'--'
p484
sg34
S'--'
p485
sg36
S'--'
p486
sg37
S'--'
p487
sg39
S'--'
p488
sg40
S'09/14'
p489
sg42
S'Teddy Bridgewater'
p490
sg44
S'0.0'
p491
sg46
S'L7-30'
p492
sg48
S'2014'
p493
ssg183
(dp494
g5
S'--'
p495
sg7
g183
sg9
S'--'
p496
sg11
S'--'
p497
sg13
S'--'
p498
sg15
S'--'
p499
sg17
S'--'
p500
sg19
S'--'
p501
sg21
S'@GB'
p502
sg23
g35
sg25
S'--'
p503
sg27
S'--'
p504
sg29
S'--'
p505
sg31
g35
sg32
S'--'
p506
sg34
S'--'
p507
sg36
S'--'
p508
sg37
S'--'
p509
sg39
S'--'
p510
sg40
S'10/02'
p511
sg42
S'Teddy Bridgewater'
p512
sg44
S'0.0'
p513
sg46
S'L10-42'
p514
sg48
S'2014'
p515
ssg14
(dp516
g5
S'30'
p517
sg7
g14
sg9
S'5.4'
p518
sg11
S'63.3'
p519
sg13
g183
sg15
S'317'
p520
sg17
S'10.6'
p521
sg19
S'--'
p522
sg21
S'ATL'
p523
sg23
g24
sg25
S'19'
p524
sg27
g35
sg29
S'27'
p525
sg31
g24
sg32
S'--'
p526
sg34
g24
sg36
g35
sg37
g35
sg39
g35
sg40
S'09/28'
p527
sg42
S'Teddy Bridgewater'
p528
sg44
S'98.9'
p529
sg46
S'W41-28'
p530
sg48
S'2014'
p531
ssg236
(dp532
g5
S'26'
p533
sg7
g236
sg9
S'7.0'
p534
sg11
S'57.7'
p535
sg13
g24
sg15
S'157'
p536
sg17
S'6.0'
p537
sg19
S'--'
p538
sg21
S'@BUF'
p539
sg23
g24
sg25
S'15'
p540
sg27
S'39'
p541
sg29
g236
sg31
g24
sg32
S'--'
p542
sg34
g35
sg36
g24
sg37
g183
sg39
g56
sg40
S'10/19'
p543
sg42
S'Teddy Bridgewater'
p544
sg44
S'56.1'
p545
sg46
S'L16-17'
p546
sg48
S'2014'
p547
ssg38
(dp548
g5
S'37'
p549
sg7
g38
sg9
S'3.7'
p550
sg11
S'62.2'
p551
sg13
g130
sg15
S'188'
p552
sg17
S'5.1'
p553
sg19
g24
sg21
S'DET'
p554
sg23
g24
sg25
S'23'
p555
sg27
S'45'
p556
sg29
S'11'
p557
sg31
g24
sg32
g35
sg34
g35
sg36
g35
sg37
g146
sg39
g130
sg40
S'10/12'
p558
sg42
S'Teddy Bridgewater'
p559
sg44
S'41.3'
p560
sg46
S'L3-17'
p561
sg48
S'2014'
p562
ssg273
(dp563
g5
S'42'
p564
sg7
g273
sg9
S'6.7'
p565
sg11
S'61.9'
p566
sg13
g130
sg15
S'268'
p567
sg17
S'6.4'
p568
sg19
S'--'
p569
sg21
S'WAS'
p570
sg23
g24
sg25
S'26'
p571
sg27
S'16'
p572
sg29
S'20'
p573
sg31
g24
sg32
S'--'
p574
sg34
g35
sg36
g24
sg37
g56
sg39
g35
sg40
S'11/02'
p575
sg42
S'Teddy Bridgewater'
p576
sg44
S'88.2'
p577
sg46
S'W29-26'
p578
sg48
S'2014'
p579
ssg146
(dp580
g5
S'42'
p581
sg7
g146
sg9
S'3.0'
p582
sg11
S'57.1'
p583
sg13
g24
sg15
S'241'
p584
sg17
S'5.7'
p585
sg19
S'--'
p586
sg21
S'@TB'
p587
sg23
g24
sg25
S'24'
p588
sg27
g38
sg29
g130
sg31
g24
sg32
S'--'
p589
sg34
g35
sg36
g24
sg37
g24
sg39
g35
sg40
S'10/26'
p590
sg42
S'Teddy Bridgewater'
p591
sg44
S'81.5'
p592
sg46
S'W19-13'
p593
sg48
S'2014'
p594
sss.