(dp0
S'2015'
p1
(dp2
S'11'
p3
(dp4
S'PassAtt'
p5
S'--'
p6
sS'WK'
p7
S'11'
p8
sS'RushAvg'
p9
S'--'
p10
sS'Pct'
p11
S'--'
p12
sS'RushAtt'
p13
S'--'
p14
sS'PassYds'
p15
S'--'
p16
sS'PassAvg'
p17
S'--'
p18
sS'FUM'
p19
S'--'
p20
sS'Opp'
p21
S'TB'
p22
sS'G'
p23
S'0'
p24
sS'Comp'
p25
S'--'
p26
sS'SckY'
p27
S'--'
p28
sS'RushYds'
p29
S'--'
p30
sS'GS'
p31
g24
sS'Lost'
p32
S'--'
p33
sS'RushTD'
p34
S'--'
p35
sS'PassTD'
p36
S'--'
p37
sS'Sck'
p38
S'--'
p39
sS'Int'
p40
S'--'
p41
sS'Game Date'
p42
S'11/22'
p43
sS'Player'
p44
S'Thad Lewis'
p45
sS'Rate'
p46
S'0.0'
p47
sS'Result'
p48
S'L17-45'
p49
sS'Year'
p50
S'2015'
p51
ssS'10'
p52
(dp53
g5
S'--'
p54
sg7
S'10'
p55
sg9
S'--'
p56
sg11
S'--'
p57
sg13
S'--'
p58
sg15
S'--'
p59
sg17
S'--'
p60
sg19
S'--'
p61
sg21
S'MIA'
p62
sg23
g24
sg25
S'--'
p63
sg27
S'--'
p64
sg29
S'--'
p65
sg31
g24
sg32
S'--'
p66
sg34
S'--'
p67
sg36
S'--'
p68
sg38
S'--'
p69
sg40
S'--'
p70
sg42
S'11/15'
p71
sg44
S'Thad Lewis'
p72
sg46
S'0.0'
p73
sg48
S'L19-20'
p74
sg50
S'2015'
p75
ssS'13'
p76
(dp77
g5
S'--'
p78
sg7
S'13'
p79
sg9
S'--'
p80
sg11
S'--'
p81
sg13
S'--'
p82
sg15
S'--'
p83
sg17
S'--'
p84
sg19
S'--'
p85
sg21
S'@NE'
p86
sg23
g24
sg25
S'--'
p87
sg27
S'--'
p88
sg29
S'--'
p89
sg31
g24
sg32
S'--'
p90
sg34
S'--'
p91
sg36
S'--'
p92
sg38
S'--'
p93
sg40
S'--'
p94
sg42
S'12/06'
p95
sg44
S'Thad Lewis'
p96
sg46
S'0.0'
p97
sg48
S'W35-28'
p98
sg50
S'2015'
p99
ssS'12'
p100
(dp101
g5
S'--'
p102
sg7
S'12'
p103
sg9
S'--'
p104
sg11
S'--'
p105
sg13
S'--'
p106
sg15
S'--'
p107
sg17
S'--'
p108
sg19
S'--'
p109
sg21
S'@DET'
p110
sg23
g24
sg25
S'--'
p111
sg27
S'--'
p112
sg29
S'--'
p113
sg31
g24
sg32
S'--'
p114
sg34
S'--'
p115
sg36
S'--'
p116
sg38
S'--'
p117
sg40
S'--'
p118
sg42
S'11/26'
p119
sg44
S'Thad Lewis'
p120
sg46
S'0.0'
p121
sg48
S'L14-45'
p122
sg50
S'2015'
p123
ssS'15'
p124
(dp125
g5
S'--'
p126
sg7
S'15'
p127
sg9
S'--'
p128
sg11
S'--'
p129
sg13
S'--'
p130
sg15
S'--'
p131
sg17
S'--'
p132
sg19
S'--'
p133
sg21
S'ARI'
p134
sg23
g24
sg25
S'--'
p135
sg27
S'--'
p136
sg29
S'--'
p137
sg31
g24
sg32
S'--'
p138
sg34
S'--'
p139
sg36
S'--'
p140
sg38
S'--'
p141
sg40
S'--'
p142
sg42
S'12/20'
p143
sg44
S'Thad Lewis'
p144
sg46
S'0.0'
p145
sg48
S'L17-40'
p146
sg50
S'2015'
p147
ssS'14'
p148
(dp149
g5
S'--'
p150
sg7
S'14'
p151
sg9
S'--'
p152
sg11
S'--'
p153
sg13
S'--'
p154
sg15
S'--'
p155
sg17
S'--'
p156
sg19
S'--'
p157
sg21
S'BUF'
p158
sg23
g24
sg25
S'--'
p159
sg27
S'--'
p160
sg29
S'--'
p161
sg31
g24
sg32
S'--'
p162
sg34
S'--'
p163
sg36
S'--'
p164
sg38
S'--'
p165
sg40
S'--'
p166
sg42
S'12/13'
p167
sg44
S'Thad Lewis'
p168
sg46
S'0.0'
p169
sg48
S'W23-20'
p170
sg50
S'2015'
p171
ssS'17'
p172
(dp173
g5
S'--'
p174
sg7
S'17'
p175
sg9
S'--'
p176
sg11
S'--'
p177
sg13
S'--'
p178
sg15
S'--'
p179
sg17
S'--'
p180
sg19
S'--'
p181
sg21
S'@NYG'
p182
sg23
g24
sg25
S'--'
p183
sg27
S'--'
p184
sg29
S'--'
p185
sg31
g24
sg32
S'--'
p186
sg34
S'--'
p187
sg36
S'--'
p188
sg38
S'--'
p189
sg40
S'--'
p190
sg42
S'01/03'
p191
sg44
S'Thad Lewis'
p192
sg46
S'0.0'
p193
sg48
S'W35-30'
p194
sg50
S'2015'
p195
ssS'16'
p196
(dp197
g5
S'--'
p198
sg7
S'16'
p199
sg9
S'--'
p200
sg11
S'--'
p201
sg13
S'--'
p202
sg15
S'--'
p203
sg17
S'--'
p204
sg19
S'--'
p205
sg21
S'WAS'
p206
sg23
g24
sg25
S'--'
p207
sg27
S'--'
p208
sg29
S'--'
p209
sg31
g24
sg32
S'--'
p210
sg34
S'--'
p211
sg36
S'--'
p212
sg38
S'--'
p213
sg40
S'--'
p214
sg42
S'12/26'
p215
sg44
S'Thad Lewis'
p216
sg46
S'0.0'
p217
sg48
S'L24-38'
p218
sg50
S'2015'
p219
ssS'3'
p220
(dp221
g5
S'--'
p222
sg7
g220
sg9
S'--'
p223
sg11
S'--'
p224
sg13
S'--'
p225
sg15
S'--'
p226
sg17
S'--'
p227
sg19
S'--'
p228
sg21
S'@NYJ'
p229
sg23
g24
sg25
S'--'
p230
sg27
S'--'
p231
sg29
S'--'
p232
sg31
g24
sg32
S'--'
p233
sg34
S'--'
p234
sg36
S'--'
p235
sg38
S'--'
p236
sg40
S'--'
p237
sg42
S'09/27'
p238
sg44
S'Thad Lewis'
p239
sg46
S'0.0'
p240
sg48
S'W24-17'
p241
sg50
S'2015'
p242
ssS'5'
p243
(dp244
g5
S'--'
p245
sg7
g243
sg9
S'--'
p246
sg11
S'--'
p247
sg13
S'--'
p248
sg15
S'--'
p249
sg17
S'--'
p250
sg19
S'--'
p251
sg21
S'NO'
p252
sg23
g24
sg25
S'--'
p253
sg27
S'--'
p254
sg29
S'--'
p255
sg31
g24
sg32
S'--'
p256
sg34
S'--'
p257
sg36
S'--'
p258
sg38
S'--'
p259
sg40
S'--'
p260
sg42
S'10/11'
p261
sg44
S'Thad Lewis'
p262
sg46
S'0.0'
p263
sg48
S'W39-17'
p264
sg50
S'2015'
p265
ssS'4'
p266
(dp267
g5
S'--'
p268
sg7
g266
sg9
S'--'
p269
sg11
S'--'
p270
sg13
S'--'
p271
sg15
S'--'
p272
sg17
S'--'
p273
sg19
S'--'
p274
sg21
S'@WAS'
p275
sg23
g24
sg25
S'--'
p276
sg27
S'--'
p277
sg29
S'--'
p278
sg31
g24
sg32
S'--'
p279
sg34
S'--'
p280
sg36
S'--'
p281
sg38
S'--'
p282
sg40
S'--'
p283
sg42
S'10/04'
p284
sg44
S'Thad Lewis'
p285
sg46
S'0.0'
p286
sg48
S'L20-23'
p287
sg50
S'2015'
p288
ssS'7'
p289
(dp290
g5
S'--'
p291
sg7
g289
sg9
S'--'
p292
sg11
S'--'
p293
sg13
S'--'
p294
sg15
S'--'
p295
sg17
S'--'
p296
sg19
S'--'
p297
sg21
S'@CAR'
p298
sg23
g24
sg25
S'--'
p299
sg27
S'--'
p300
sg29
S'--'
p301
sg31
g24
sg32
S'--'
p302
sg34
S'--'
p303
sg36
S'--'
p304
sg38
S'--'
p305
sg40
S'--'
p306
sg42
S'10/25'
p307
sg44
S'Thad Lewis'
p308
sg46
S'0.0'
p309
sg48
S'L16-27'
p310
sg50
S'2015'
p311
ssS'6'
p312
(dp313
g5
S'--'
p314
sg7
g312
sg9
S'--'
p315
sg11
S'--'
p316
sg13
S'--'
p317
sg15
S'--'
p318
sg17
S'--'
p319
sg19
S'--'
p320
sg21
S'NYG'
p321
sg23
g24
sg25
S'--'
p322
sg27
S'--'
p323
sg29
S'--'
p324
sg31
g24
sg32
S'--'
p325
sg34
S'--'
p326
sg36
S'--'
p327
sg38
S'--'
p328
sg40
S'--'
p329
sg42
S'10/19'
p330
sg44
S'Thad Lewis'
p331
sg46
S'0.0'
p332
sg48
S'W27-7'
p333
sg50
S'2015'
p334
ssS'9'
p335
(dp336
g5
S'--'
p337
sg7
g335
sg9
S'--'
p338
sg11
S'--'
p339
sg13
S'--'
p340
sg15
S'--'
p341
sg17
S'--'
p342
sg19
S'--'
p343
sg21
S'@DAL'
p344
sg23
g24
sg25
S'--'
p345
sg27
S'--'
p346
sg29
S'--'
p347
sg31
g24
sg32
S'--'
p348
sg34
S'--'
p349
sg36
S'--'
p350
sg38
S'--'
p351
sg40
S'--'
p352
sg42
S'11/08'
p353
sg44
S'Thad Lewis'
p354
sg46
S'0.0'
p355
sg48
S'W33-27'
p356
sg50
S'2015'
p357
ssS'8'
p358
(dp359
g5
S''
p360
sg7
g358
sg9
g360
sg11
g360
sg13
g360
sg15
g360
sg17
g360
sg19
g360
sg21
g360
sg23
g360
sg25
g360
sg27
g360
sg29
g360
sg31
g360
sg32
g360
sg34
g360
sg36
g360
sg38
g360
sg40
g360
sg42
S'Bye'
p361
sg44
S'Thad Lewis'
p362
sg46
g360
sg48
g360
sg50
S'2015'
p363
sssS'2014'
p364
(dp365
g76
(dp366
g5
S'--'
p367
sg7
S'13'
p368
sg9
S'--'
p369
sg11
S'--'
p370
sg13
S'--'
p371
sg15
S'--'
p372
sg17
S'--'
p373
sg19
S'--'
p374
sg21
S'TEN'
p375
sg23
g24
sg25
S'--'
p376
sg27
S'--'
p377
sg29
S'--'
p378
sg31
g24
sg32
S'--'
p379
sg34
S'--'
p380
sg36
S'--'
p381
sg38
S'--'
p382
sg40
S'--'
p383
sg42
S'11/30'
p384
sg44
S'Thad Lewis'
p385
sg46
S'0.0'
p386
sg48
S'W45-21'
p387
sg50
S'2014'
p388
ssg124
(dp389
g5
S'--'
p390
sg7
S'15'
p391
sg9
S'--'
p392
sg11
S'--'
p393
sg13
S'--'
p394
sg15
S'--'
p395
sg17
S'--'
p396
sg19
S'--'
p397
sg21
S'@IND'
p398
sg23
g24
sg25
S'--'
p399
sg27
S'--'
p400
sg29
S'--'
p401
sg31
g24
sg32
S'--'
p402
sg34
S'--'
p403
sg36
S'--'
p404
sg38
S'--'
p405
sg40
S'--'
p406
sg42
S'12/14'
p407
sg44
S'Thad Lewis'
p408
sg46
S'0.0'
p409
sg48
S'L10-17'
p410
sg50
S'2014'
p411
ssg148
(dp412
g5
S'--'
p413
sg7
S'14'
p414
sg9
S'--'
p415
sg11
S'--'
p416
sg13
S'--'
p417
sg15
S'--'
p418
sg17
S'--'
p419
sg19
S'--'
p420
sg21
S'@JAC'
p421
sg23
g24
sg25
S'--'
p422
sg27
S'--'
p423
sg29
S'--'
p424
sg31
g24
sg32
S'--'
p425
sg34
S'--'
p426
sg36
S'--'
p427
sg38
S'--'
p428
sg40
S'--'
p429
sg42
S'12/07'
p430
sg44
S'Thad Lewis'
p431
sg46
S'0.0'
p432
sg48
S'W27-13'
p433
sg50
S'2014'
p434
ssg172
(dp435
g5
S'--'
p436
sg7
S'17'
p437
sg9
S'--'
p438
sg11
S'--'
p439
sg13
S'--'
p440
sg15
S'--'
p441
sg17
S'--'
p442
sg19
S'--'
p443
sg21
S'JAC'
p444
sg23
g24
sg25
S'--'
p445
sg27
S'--'
p446
sg29
S'--'
p447
sg31
g24
sg32
S'--'
p448
sg34
S'--'
p449
sg36
S'--'
p450
sg38
S'--'
p451
sg40
S'--'
p452
sg42
S'12/28'
p453
sg44
S'Thad Lewis'
p454
sg46
S'0.0'
p455
sg48
S'W23-17'
p456
sg50
S'2014'
p457
ssg196
(dp458
g5
S'--'
p459
sg7
S'16'
p460
sg9
S'--'
p461
sg11
S'--'
p462
sg13
S'--'
p463
sg15
S'--'
p464
sg17
S'--'
p465
sg19
S'--'
p466
sg21
S'BAL'
p467
sg23
g24
sg25
S'--'
p468
sg27
S'--'
p469
sg29
S'--'
p470
sg31
g24
sg32
S'--'
p471
sg34
S'--'
p472
sg36
S'--'
p473
sg38
S'--'
p474
sg40
S'--'
p475
sg42
S'12/21'
p476
sg44
S'Thad Lewis'
p477
sg46
S'0.0'
p478
sg48
S'W25-13'
p479
sg50
S'2014'
p480
sssS'2011'
p481
(dp482
g3
(dp483
g5
S'--'
p484
sg7
S'11'
p485
sg9
S'--'
p486
sg11
S'--'
p487
sg13
S'--'
p488
sg15
S'--'
p489
sg17
S'--'
p490
sg19
S'--'
p491
sg21
S'JAC'
p492
sg23
g24
sg25
S'--'
p493
sg27
S'--'
p494
sg29
S'--'
p495
sg31
g24
sg32
S'--'
p496
sg34
S'--'
p497
sg36
S'--'
p498
sg38
S'--'
p499
sg40
S'--'
p500
sg42
S'11/20'
p501
sg44
S'Thad Lewis'
p502
sg46
S'0.0'
p503
sg48
S'W14-10'
p504
sg50
S'2011'
p505
ssg52
(dp506
g5
S'--'
p507
sg7
S'10'
p508
sg9
S'--'
p509
sg11
S'--'
p510
sg13
S'--'
p511
sg15
S'--'
p512
sg17
S'--'
p513
sg19
S'--'
p514
sg21
S'STL'
p515
sg23
g24
sg25
S'--'
p516
sg27
S'--'
p517
sg29
S'--'
p518
sg31
g24
sg32
S'--'
p519
sg34
S'--'
p520
sg36
S'--'
p521
sg38
S'--'
p522
sg40
S'--'
p523
sg42
S'11/13'
p524
sg44
S'Thad Lewis'
p525
sg46
S'0.0'
p526
sg48
S'L12-13'
p527
sg50
S'2011'
p528
ssg76
(dp529
g5
S'--'
p530
sg7
S'13'
p531
sg9
S'--'
p532
sg11
S'--'
p533
sg13
S'--'
p534
sg15
S'--'
p535
sg17
S'--'
p536
sg19
S'--'
p537
sg21
S'BAL'
p538
sg23
g24
sg25
S'--'
p539
sg27
S'--'
p540
sg29
S'--'
p541
sg31
g24
sg32
S'--'
p542
sg34
S'--'
p543
sg36
S'--'
p544
sg38
S'--'
p545
sg40
S'--'
p546
sg42
S'12/04'
p547
sg44
S'Thad Lewis'
p548
sg46
S'0.0'
p549
sg48
S'L10-24'
p550
sg50
S'2011'
p551
ssg100
(dp552
g5
S'--'
p553
sg7
S'12'
p554
sg9
S'--'
p555
sg11
S'--'
p556
sg13
S'--'
p557
sg15
S'--'
p558
sg17
S'--'
p559
sg19
S'--'
p560
sg21
S'@CIN'
p561
sg23
g24
sg25
S'--'
p562
sg27
S'--'
p563
sg29
S'--'
p564
sg31
g24
sg32
S'--'
p565
sg34
S'--'
p566
sg36
S'--'
p567
sg38
S'--'
p568
sg40
S'--'
p569
sg42
S'11/27'
p570
sg44
S'Thad Lewis'
p571
sg46
S'0.0'
p572
sg48
S'L20-23'
p573
sg50
S'2011'
p574
ssg124
(dp575
g5
S'--'
p576
sg7
S'15'
p577
sg9
S'--'
p578
sg11
S'--'
p579
sg13
S'--'
p580
sg15
S'--'
p581
sg17
S'--'
p582
sg19
S'--'
p583
sg21
S'@ARI'
p584
sg23
g24
sg25
S'--'
p585
sg27
S'--'
p586
sg29
S'--'
p587
sg31
g24
sg32
S'--'
p588
sg34
S'--'
p589
sg36
S'--'
p590
sg38
S'--'
p591
sg40
S'--'
p592
sg42
S'12/18'
p593
sg44
S'Thad Lewis'
p594
sg46
S'0.0'
p595
sg48
S'L17-20'
p596
sg50
S'2011'
p597
ssg148
(dp598
g5
S'--'
p599
sg7
S'14'
p600
sg9
S'--'
p601
sg11
S'--'
p602
sg13
S'--'
p603
sg15
S'--'
p604
sg17
S'--'
p605
sg19
S'--'
p606
sg21
S'@PIT'
p607
sg23
g24
sg25
S'--'
p608
sg27
S'--'
p609
sg29
S'--'
p610
sg31
g24
sg32
S'--'
p611
sg34
S'--'
p612
sg36
S'--'
p613
sg38
S'--'
p614
sg40
S'--'
p615
sg42
S'12/08'
p616
sg44
S'Thad Lewis'
p617
sg46
S'0.0'
p618
sg48
S'L3-14'
p619
sg50
S'2011'
p620
ssg172
(dp621
g5
S'--'
p622
sg7
S'17'
p623
sg9
S'--'
p624
sg11
S'--'
p625
sg13
S'--'
p626
sg15
S'--'
p627
sg17
S'--'
p628
sg19
S'--'
p629
sg21
S'PIT'
p630
sg23
g24
sg25
S'--'
p631
sg27
S'--'
p632
sg29
S'--'
p633
sg31
g24
sg32
S'--'
p634
sg34
S'--'
p635
sg36
S'--'
p636
sg38
S'--'
p637
sg40
S'--'
p638
sg42
S'01/01'
p639
sg44
S'Thad Lewis'
p640
sg46
S'0.0'
p641
sg48
S'L9-13'
p642
sg50
S'2011'
p643
ssg196
(dp644
g5
S'--'
p645
sg7
S'16'
p646
sg9
S'--'
p647
sg11
S'--'
p648
sg13
S'--'
p649
sg15
S'--'
p650
sg17
S'--'
p651
sg19
S'--'
p652
sg21
S'@BAL'
p653
sg23
g24
sg25
S'--'
p654
sg27
S'--'
p655
sg29
S'--'
p656
sg31
g24
sg32
S'--'
p657
sg34
S'--'
p658
sg36
S'--'
p659
sg38
S'--'
p660
sg40
S'--'
p661
sg42
S'12/24'
p662
sg44
S'Thad Lewis'
p663
sg46
S'0.0'
p664
sg48
S'L14-20'
p665
sg50
S'2011'
p666
ssS'1'
p667
(dp668
g5
S'--'
p669
sg7
g667
sg9
S'--'
p670
sg11
S'--'
p671
sg13
S'--'
p672
sg15
S'--'
p673
sg17
S'--'
p674
sg19
S'--'
p675
sg21
S'CIN'
p676
sg23
g24
sg25
S'--'
p677
sg27
S'--'
p678
sg29
S'--'
p679
sg31
g24
sg32
S'--'
p680
sg34
S'--'
p681
sg36
S'--'
p682
sg38
S'--'
p683
sg40
S'--'
p684
sg42
S'09/11'
p685
sg44
S'Thad Lewis'
p686
sg46
S'0.0'
p687
sg48
S'L17-27'
p688
sg50
S'2011'
p689
ssg220
(dp690
g5
S'--'
p691
sg7
g220
sg9
S'--'
p692
sg11
S'--'
p693
sg13
S'--'
p694
sg15
S'--'
p695
sg17
S'--'
p696
sg19
S'--'
p697
sg21
S'MIA'
p698
sg23
g24
sg25
S'--'
p699
sg27
S'--'
p700
sg29
S'--'
p701
sg31
g24
sg32
S'--'
p702
sg34
S'--'
p703
sg36
S'--'
p704
sg38
S'--'
p705
sg40
S'--'
p706
sg42
S'09/25'
p707
sg44
S'Thad Lewis'
p708
sg46
S'0.0'
p709
sg48
S'W17-16'
p710
sg50
S'2011'
p711
ssS'2'
p712
(dp713
g5
S'--'
p714
sg7
g712
sg9
S'--'
p715
sg11
S'--'
p716
sg13
S'--'
p717
sg15
S'--'
p718
sg17
S'--'
p719
sg19
S'--'
p720
sg21
S'@IND'
p721
sg23
g24
sg25
S'--'
p722
sg27
S'--'
p723
sg29
S'--'
p724
sg31
g24
sg32
S'--'
p725
sg34
S'--'
p726
sg36
S'--'
p727
sg38
S'--'
p728
sg40
S'--'
p729
sg42
S'09/18'
p730
sg44
S'Thad Lewis'
p731
sg46
S'0.0'
p732
sg48
S'W27-19'
p733
sg50
S'2011'
p734
ssg243
(dp735
g5
g360
sg7
g243
sg9
g360
sg11
g360
sg13
g360
sg15
g360
sg17
g360
sg19
g360
sg21
g360
sg23
g360
sg25
g360
sg27
g360
sg29
g360
sg31
g360
sg32
g360
sg34
g360
sg36
g360
sg38
g360
sg40
g360
sg42
S'Bye'
p736
sg44
S'Thad Lewis'
p737
sg46
g360
sg48
g360
sg50
S'2011'
p738
ssg266
(dp739
g5
S'--'
p740
sg7
g266
sg9
S'--'
p741
sg11
S'--'
p742
sg13
S'--'
p743
sg15
S'--'
p744
sg17
S'--'
p745
sg19
S'--'
p746
sg21
S'TEN'
p747
sg23
g24
sg25
S'--'
p748
sg27
S'--'
p749
sg29
S'--'
p750
sg31
g24
sg32
S'--'
p751
sg34
S'--'
p752
sg36
S'--'
p753
sg38
S'--'
p754
sg40
S'--'
p755
sg42
S'10/02'
p756
sg44
S'Thad Lewis'
p757
sg46
S'0.0'
p758
sg48
S'L13-31'
p759
sg50
S'2011'
p760
ssg289
(dp761
g5
S'--'
p762
sg7
g289
sg9
S'--'
p763
sg11
S'--'
p764
sg13
S'--'
p765
sg15
S'--'
p766
sg17
S'--'
p767
sg19
S'--'
p768
sg21
S'SEA'
p769
sg23
g24
sg25
S'--'
p770
sg27
S'--'
p771
sg29
S'--'
p772
sg31
g24
sg32
S'--'
p773
sg34
S'--'
p774
sg36
S'--'
p775
sg38
S'--'
p776
sg40
S'--'
p777
sg42
S'10/23'
p778
sg44
S'Thad Lewis'
p779
sg46
S'0.0'
p780
sg48
S'W6-3'
p781
sg50
S'2011'
p782
ssg312
(dp783
g5
S'--'
p784
sg7
g312
sg9
S'--'
p785
sg11
S'--'
p786
sg13
S'--'
p787
sg15
S'--'
p788
sg17
S'--'
p789
sg19
S'--'
p790
sg21
S'@OAK'
p791
sg23
g24
sg25
S'--'
p792
sg27
S'--'
p793
sg29
S'--'
p794
sg31
g24
sg32
S'--'
p795
sg34
S'--'
p796
sg36
S'--'
p797
sg38
S'--'
p798
sg40
S'--'
p799
sg42
S'10/16'
p800
sg44
S'Thad Lewis'
p801
sg46
S'0.0'
p802
sg48
S'L17-24'
p803
sg50
S'2011'
p804
ssg335
(dp805
g5
S'--'
p806
sg7
g335
sg9
S'--'
p807
sg11
S'--'
p808
sg13
S'--'
p809
sg15
S'--'
p810
sg17
S'--'
p811
sg19
S'--'
p812
sg21
S'@HOU'
p813
sg23
g24
sg25
S'--'
p814
sg27
S'--'
p815
sg29
S'--'
p816
sg31
g24
sg32
S'--'
p817
sg34
S'--'
p818
sg36
S'--'
p819
sg38
S'--'
p820
sg40
S'--'
p821
sg42
S'11/06'
p822
sg44
S'Thad Lewis'
p823
sg46
S'0.0'
p824
sg48
S'L12-30'
p825
sg50
S'2011'
p826
ssg358
(dp827
g5
S'--'
p828
sg7
g358
sg9
S'--'
p829
sg11
S'--'
p830
sg13
S'--'
p831
sg15
S'--'
p832
sg17
S'--'
p833
sg19
S'--'
p834
sg21
S'@SF'
p835
sg23
g24
sg25
S'--'
p836
sg27
S'--'
p837
sg29
S'--'
p838
sg31
g24
sg32
S'--'
p839
sg34
S'--'
p840
sg36
S'--'
p841
sg38
S'--'
p842
sg40
S'--'
p843
sg42
S'10/30'
p844
sg44
S'Thad Lewis'
p845
sg46
S'0.0'
p846
sg48
S'L10-20'
p847
sg50
S'2011'
p848
sssS'2010'
p849
(dp850
g667
(dp851
g5
S'--'
p852
sg7
g667
sg9
S'--'
p853
sg11
S'--'
p854
sg13
S'--'
p855
sg15
S'--'
p856
sg17
S'--'
p857
sg19
S'--'
p858
sg21
S'ARI'
p859
sg23
g24
sg25
S'--'
p860
sg27
S'--'
p861
sg29
S'--'
p862
sg31
g24
sg32
S'--'
p863
sg34
S'--'
p864
sg36
S'--'
p865
sg38
S'--'
p866
sg40
S'--'
p867
sg42
S'09/12'
p868
sg44
S'Thad Lewis'
p869
sg46
S'0.0'
p870
sg48
S'L13-17'
p871
sg50
S'2010'
p872
sssS'2013'
p873
(dp874
g3
(dp875
g5
S'--'
p876
sg7
S'11'
p877
sg9
S'--'
p878
sg11
S'--'
p879
sg13
S'--'
p880
sg15
S'--'
p881
sg17
S'--'
p882
sg19
S'--'
p883
sg21
S'NYJ'
p884
sg23
g24
sg25
S'--'
p885
sg27
S'--'
p886
sg29
S'--'
p887
sg31
g24
sg32
S'--'
p888
sg34
S'--'
p889
sg36
S'--'
p890
sg38
S'--'
p891
sg40
S'--'
p892
sg42
S'11/17'
p893
sg44
S'Thad Lewis'
p894
sg46
S'0.0'
p895
sg48
S'W37-14'
p896
sg50
S'2013'
p897
ssg52
(dp898
g5
S'--'
p899
sg7
S'10'
p900
sg9
S'--'
p901
sg11
S'--'
p902
sg13
S'--'
p903
sg15
S'--'
p904
sg17
S'--'
p905
sg19
S'--'
p906
sg21
S'@PIT'
p907
sg23
g24
sg25
S'--'
p908
sg27
S'--'
p909
sg29
S'--'
p910
sg31
g24
sg32
S'--'
p911
sg34
S'--'
p912
sg36
S'--'
p913
sg38
S'--'
p914
sg40
S'--'
p915
sg42
S'11/10'
p916
sg44
S'Thad Lewis'
p917
sg46
S'0.0'
p918
sg48
S'L10-23'
p919
sg50
S'2013'
p920
ssg76
(dp921
g5
S'--'
p922
sg7
S'13'
p923
sg9
S'--'
p924
sg11
S'--'
p925
sg13
S'--'
p926
sg15
S'--'
p927
sg17
S'--'
p928
sg19
S'--'
p929
sg21
S'ATL'
p930
sg23
g667
sg25
S'--'
p931
sg27
S'--'
p932
sg29
S'--'
p933
sg31
g24
sg32
S'--'
p934
sg34
S'--'
p935
sg36
S'--'
p936
sg38
S'--'
p937
sg40
S'--'
p938
sg42
S'12/01'
p939
sg44
S'Thad Lewis'
p940
sg46
S'0.0'
p941
sg48
S'L31-34'
p942
sg50
S'2013'
p943
ssg100
(dp944
g5
g360
sg7
S'12'
p945
sg9
g360
sg11
g360
sg13
g360
sg15
g360
sg17
g360
sg19
g360
sg21
g360
sg23
g360
sg25
g360
sg27
g360
sg29
g360
sg31
g360
sg32
g360
sg34
g360
sg36
g360
sg38
g360
sg40
g360
sg42
S'Bye'
p946
sg44
S'Thad Lewis'
p947
sg46
g360
sg48
g360
sg50
S'2013'
p948
ssg124
(dp949
g5
S'--'
p950
sg7
S'15'
p951
sg9
S'--'
p952
sg11
S'--'
p953
sg13
S'--'
p954
sg15
S'--'
p955
sg17
S'--'
p956
sg19
S'--'
p957
sg21
S'@JAC'
p958
sg23
g24
sg25
S'--'
p959
sg27
S'--'
p960
sg29
S'--'
p961
sg31
g24
sg32
S'--'
p962
sg34
S'--'
p963
sg36
S'--'
p964
sg38
S'--'
p965
sg40
S'--'
p966
sg42
S'12/15'
p967
sg44
S'Thad Lewis'
p968
sg46
S'0.0'
p969
sg48
S'W27-20'
p970
sg50
S'2013'
p971
ssg148
(dp972
g5
S'--'
p973
sg7
S'14'
p974
sg9
S'--'
p975
sg11
S'--'
p976
sg13
S'--'
p977
sg15
S'--'
p978
sg17
S'--'
p979
sg19
S'--'
p980
sg21
S'@TB'
p981
sg23
g24
sg25
S'--'
p982
sg27
S'--'
p983
sg29
S'--'
p984
sg31
g24
sg32
S'--'
p985
sg34
S'--'
p986
sg36
S'--'
p987
sg38
S'--'
p988
sg40
S'--'
p989
sg42
S'12/08'
p990
sg44
S'Thad Lewis'
p991
sg46
S'0.0'
p992
sg48
S'L6-27'
p993
sg50
S'2013'
p994
ssg172
(dp995
g5
S'29'
p996
sg7
S'17'
p997
sg9
S'2.0'
p998
sg11
S'55.2'
p999
sg13
g712
sg15
S'247'
p1000
sg17
S'8.5'
p1001
sg19
g667
sg21
S'@NE'
p1002
sg23
g667
sg25
S'16'
p1003
sg27
S'23'
p1004
sg29
g266
sg31
g667
sg32
g24
sg34
g24
sg36
g667
sg38
g266
sg40
g24
sg42
S'12/29'
p1005
sg44
S'Thad Lewis'
p1006
sg46
S'95.0'
p1007
sg48
S'L20-34'
p1008
sg50
S'2013'
p1009
ssg196
(dp1010
g5
S'25'
p1011
sg7
S'16'
p1012
sg9
S'1.6'
p1013
sg11
S'60.0'
p1014
sg13
g358
sg15
S'193'
p1015
sg17
S'7.7'
p1016
sg19
S'--'
p1017
sg21
S'MIA'
p1018
sg23
g667
sg25
S'15'
p1019
sg27
g312
sg29
S'13'
p1020
sg31
g667
sg32
S'--'
p1021
sg34
g24
sg36
g24
sg38
g667
sg40
g667
sg42
S'12/22'
p1022
sg44
S'Thad Lewis'
p1023
sg46
S'67.6'
p1024
sg48
S'W19-0'
p1025
sg50
S'2013'
p1026
ssg289
(dp1027
g5
S'32'
p1028
sg7
g289
sg9
S'2.6'
p1029
sg11
S'65.6'
p1030
sg13
g243
sg15
S'202'
p1031
sg17
S'6.3'
p1032
sg19
g712
sg21
S'@MIA'
p1033
sg23
g667
sg25
S'21'
p1034
sg27
S'24'
p1035
sg29
S'13'
p1036
sg31
g667
sg32
g24
sg34
g24
sg36
g24
sg38
g266
sg40
g667
sg42
S'10/20'
p1037
sg44
S'Thad Lewis'
p1038
sg46
S'70.1'
p1039
sg48
S'W23-21'
p1040
sg50
S'2013'
p1041
ssg312
(dp1042
g5
S'32'
p1043
sg7
g312
sg9
S'2.4'
p1044
sg11
S'59.4'
p1045
sg13
g289
sg15
S'216'
p1046
sg17
S'6.8'
p1047
sg19
g667
sg21
S'CIN'
p1048
sg23
g667
sg25
S'19'
p1049
sg27
S'24'
p1050
sg29
S'17'
p1051
sg31
g667
sg32
g667
sg34
g667
sg36
g712
sg38
g243
sg40
g24
sg42
S'10/13'
p1052
sg44
S'Thad Lewis'
p1053
sg46
S'100.5'
p1054
sg48
S'L24-27'
p1055
sg50
S'2013'
p1056
ssg335
(dp1057
g5
S'--'
p1058
sg7
g335
sg9
S'--'
p1059
sg11
S'--'
p1060
sg13
S'--'
p1061
sg15
S'--'
p1062
sg17
S'--'
p1063
sg19
S'--'
p1064
sg21
S'KC'
p1065
sg23
g24
sg25
S'--'
p1066
sg27
S'--'
p1067
sg29
S'--'
p1068
sg31
g24
sg32
S'--'
p1069
sg34
S'--'
p1070
sg36
S'--'
p1071
sg38
S'--'
p1072
sg40
S'--'
p1073
sg42
S'11/03'
p1074
sg44
S'Thad Lewis'
p1075
sg46
S'0.0'
p1076
sg48
S'L13-23'
p1077
sg50
S'2013'
p1078
ssg358
(dp1079
g5
S'39'
p1080
sg7
g358
sg9
S'2.5'
p1081
sg11
S'56.4'
p1082
sg13
g712
sg15
S'234'
p1083
sg17
S'6.0'
p1084
sg19
g220
sg21
S'@NO'
p1085
sg23
g667
sg25
S'22'
p1086
sg27
S'23'
p1087
sg29
g243
sg31
g667
sg32
g712
sg34
g24
sg36
g667
sg38
g266
sg40
g667
sg42
S'10/27'
p1088
sg44
S'Thad Lewis'
p1089
sg46
S'72.0'
p1090
sg48
S'L17-35'
p1091
sg50
S'2013'
p1092
sssS'2012'
p1093
(dp1094
g172
(dp1095
g5
S'32'
p1096
sg7
S'17'
p1097
sg9
S'3.0'
p1098
sg11
S'68.8'
p1099
sg13
g667
sg15
S'204'
p1100
sg17
S'6.4'
p1101
sg19
S'--'
p1102
sg21
S'@PIT'
p1103
sg23
g667
sg25
S'22'
p1104
sg27
S'14'
p1105
sg29
g220
sg31
g667
sg32
S'--'
p1106
sg34
g24
sg36
g667
sg38
g220
sg40
g667
sg42
S'12/30'
p1107
sg44
S'Thad Lewis'
p1108
sg46
S'83.3'
p1109
sg48
S'L10-24'
p1110
sg50
S'2012'
p1111
ssg667
(dp1112
g5
S'--'
p1113
sg7
g667
sg9
S'--'
p1114
sg11
S'--'
p1115
sg13
S'--'
p1116
sg15
S'--'
p1117
sg17
S'--'
p1118
sg19
S'--'
p1119
sg21
S'PHI'
p1120
sg23
g24
sg25
S'--'
p1121
sg27
S'--'
p1122
sg29
S'--'
p1123
sg31
g24
sg32
S'--'
p1124
sg34
S'--'
p1125
sg36
S'--'
p1126
sg38
S'--'
p1127
sg40
S'--'
p1128
sg42
S'09/09'
p1129
sg44
S'Thad Lewis'
p1130
sg46
S'0.0'
p1131
sg48
S'L16-17'
p1132
sg50
S'2012'
p1133
ssg220
(dp1134
g5
S'--'
p1135
sg7
g220
sg9
S'--'
p1136
sg11
S'--'
p1137
sg13
S'--'
p1138
sg15
S'--'
p1139
sg17
S'--'
p1140
sg19
S'--'
p1141
sg21
S'BUF'
p1142
sg23
g24
sg25
S'--'
p1143
sg27
S'--'
p1144
sg29
S'--'
p1145
sg31
g24
sg32
S'--'
p1146
sg34
S'--'
p1147
sg36
S'--'
p1148
sg38
S'--'
p1149
sg40
S'--'
p1150
sg42
S'09/23'
p1151
sg44
S'Thad Lewis'
p1152
sg46
S'0.0'
p1153
sg48
S'L14-24'
p1154
sg50
S'2012'
p1155
ssg712
(dp1156
g5
S'--'
p1157
sg7
g712
sg9
S'--'
p1158
sg11
S'--'
p1159
sg13
S'--'
p1160
sg15
S'--'
p1161
sg17
S'--'
p1162
sg19
S'--'
p1163
sg21
S'@CIN'
p1164
sg23
g24
sg25
S'--'
p1165
sg27
S'--'
p1166
sg29
S'--'
p1167
sg31
g24
sg32
S'--'
p1168
sg34
S'--'
p1169
sg36
S'--'
p1170
sg38
S'--'
p1171
sg40
S'--'
p1172
sg42
S'09/16'
p1173
sg44
S'Thad Lewis'
p1174
sg46
S'0.0'
p1175
sg48
S'L27-34'
p1176
sg50
S'2012'
p1177
ssg243
(dp1178
g5
S'--'
p1179
sg7
g243
sg9
S'--'
p1180
sg11
S'--'
p1181
sg13
S'--'
p1182
sg15
S'--'
p1183
sg17
S'--'
p1184
sg19
S'--'
p1185
sg21
S'@NYG'
p1186
sg23
g24
sg25
S'--'
p1187
sg27
S'--'
p1188
sg29
S'--'
p1189
sg31
g24
sg32
S'--'
p1190
sg34
S'--'
p1191
sg36
S'--'
p1192
sg38
S'--'
p1193
sg40
S'--'
p1194
sg42
S'10/07'
p1195
sg44
S'Thad Lewis'
p1196
sg46
S'0.0'
p1197
sg48
S'L27-41'
p1198
sg50
S'2012'
p1199
ssg266
(dp1200
g5
S'--'
p1201
sg7
g266
sg9
S'--'
p1202
sg11
S'--'
p1203
sg13
S'--'
p1204
sg15
S'--'
p1205
sg17
S'--'
p1206
sg19
S'--'
p1207
sg21
S'@BAL'
p1208
sg23
g24
sg25
S'--'
p1209
sg27
S'--'
p1210
sg29
S'--'
p1211
sg31
g24
sg32
S'--'
p1212
sg34
S'--'
p1213
sg36
S'--'
p1214
sg38
S'--'
p1215
sg40
S'--'
p1216
sg42
S'09/27'
p1217
sg44
S'Thad Lewis'
p1218
sg46
S'0.0'
p1219
sg48
S'L16-23'
p1220
sg50
S'2012'
p1221
sss.