(dp0
S'2014'
p1
(dp2
S'11'
p3
(dp4
S'PassAtt'
p5
S'--'
p6
sS'WK'
p7
S'11'
p8
sS'RushAvg'
p9
S'--'
p10
sS'Pct'
p11
S'--'
p12
sS'RushAtt'
p13
S'--'
p14
sS'PassYds'
p15
S'--'
p16
sS'PassAvg'
p17
S'--'
p18
sS'FUM'
p19
S'--'
p20
sS'Opp'
p21
S'@CLE'
p22
sS'G'
p23
S'0'
p24
sS'Comp'
p25
S'--'
p26
sS'SckY'
p27
S'--'
p28
sS'RushYds'
p29
S'--'
p30
sS'GS'
p31
g24
sS'Lost'
p32
S'--'
p33
sS'RushTD'
p34
S'--'
p35
sS'PassTD'
p36
S'--'
p37
sS'Sck'
p38
S'--'
p39
sS'Int'
p40
S'--'
p41
sS'Game Date'
p42
S'11/16'
p43
sS'Player'
p44
S'Tom Savage'
p45
sS'Rate'
p46
S'0.0'
p47
sS'Result'
p48
S'W23-7'
p49
sS'Year'
p50
S'2014'
p51
ssS'10'
p52
(dp53
g5
S''
p54
sg7
S'10'
p55
sg9
g54
sg11
g54
sg13
g54
sg15
g54
sg17
g54
sg19
g54
sg21
g54
sg23
g54
sg25
g54
sg27
g54
sg29
g54
sg31
g54
sg32
g54
sg34
g54
sg36
g54
sg38
g54
sg40
g54
sg42
S'Bye'
p56
sg44
S'Tom Savage'
p57
sg46
g54
sg48
g54
sg50
S'2014'
p58
ssS'13'
p59
(dp60
g5
S'--'
p61
sg7
S'13'
p62
sg9
S'-1.0'
p63
sg11
S'--'
p64
sg13
S'2'
p65
sg15
S'--'
p66
sg17
S'--'
p67
sg19
S'--'
p68
sg21
S'TEN'
p69
sg23
S'1'
p70
sg25
S'--'
p71
sg27
S'--'
p72
sg29
S'-2'
p73
sg31
g24
sg32
S'--'
p74
sg34
g24
sg36
S'--'
p75
sg38
S'--'
p76
sg40
S'--'
p77
sg42
S'11/30'
p78
sg44
S'Tom Savage'
p79
sg46
S'0.0'
p80
sg48
S'W45-21'
p81
sg50
S'2014'
p82
ssS'12'
p83
(dp84
g5
S'--'
p85
sg7
S'12'
p86
sg9
S'--'
p87
sg11
S'--'
p88
sg13
S'--'
p89
sg15
S'--'
p90
sg17
S'--'
p91
sg19
S'--'
p92
sg21
S'CIN'
p93
sg23
g24
sg25
S'--'
p94
sg27
S'--'
p95
sg29
S'--'
p96
sg31
g24
sg32
S'--'
p97
sg34
S'--'
p98
sg36
S'--'
p99
sg38
S'--'
p100
sg40
S'--'
p101
sg42
S'11/23'
p102
sg44
S'Tom Savage'
p103
sg46
S'0.0'
p104
sg48
S'L13-22'
p105
sg50
S'2014'
p106
ssS'15'
p107
(dp108
g5
S'19'
p109
sg7
S'15'
p110
sg9
S'-1.0'
p111
sg11
S'52.6'
p112
sg13
S'4'
p113
sg15
S'127'
p114
sg17
S'6.7'
p115
sg19
g65
sg21
S'@IND'
p116
sg23
g70
sg25
S'10'
p117
sg27
S'5'
p118
sg29
S'-4'
p119
sg31
g24
sg32
g70
sg34
g24
sg36
g24
sg38
g70
sg40
g70
sg42
S'12/14'
p120
sg44
S'Tom Savage'
p121
sg46
S'51.9'
p122
sg48
S'L10-17'
p123
sg50
S'2014'
p124
ssS'14'
p125
(dp126
g5
S'--'
p127
sg7
S'14'
p128
sg9
S'--'
p129
sg11
S'--'
p130
sg13
S'--'
p131
sg15
S'--'
p132
sg17
S'--'
p133
sg19
S'--'
p134
sg21
S'@JAC'
p135
sg23
g24
sg25
S'--'
p136
sg27
S'--'
p137
sg29
S'--'
p138
sg31
g24
sg32
S'--'
p139
sg34
S'--'
p140
sg36
S'--'
p141
sg38
S'--'
p142
sg40
S'--'
p143
sg42
S'12/07'
p144
sg44
S'Tom Savage'
p145
sg46
S'0.0'
p146
sg48
S'W27-13'
p147
sg50
S'2014'
p148
ssS'17'
p149
(dp150
g5
S'--'
p151
sg7
S'17'
p152
sg9
S'--'
p153
sg11
S'--'
p154
sg13
S'--'
p155
sg15
S'--'
p156
sg17
S'--'
p157
sg19
S'--'
p158
sg21
S'JAC'
p159
sg23
g24
sg25
S'--'
p160
sg27
S'--'
p161
sg29
S'--'
p162
sg31
g24
sg32
S'--'
p163
sg34
S'--'
p164
sg36
S'--'
p165
sg38
S'--'
p166
sg40
S'--'
p167
sg42
S'12/28'
p168
sg44
S'Tom Savage'
p169
sg46
S'0.0'
p170
sg48
S'W23-17'
p171
sg50
S'2014'
p172
ssS'16'
p173
(dp174
g5
S'--'
p175
sg7
S'16'
p176
sg9
S'--'
p177
sg11
S'--'
p178
sg13
S'--'
p179
sg15
S'--'
p180
sg17
S'--'
p181
sg19
S'--'
p182
sg21
S'BAL'
p183
sg23
g24
sg25
S'--'
p184
sg27
S'--'
p185
sg29
S'--'
p186
sg31
g24
sg32
S'--'
p187
sg34
S'--'
p188
sg36
S'--'
p189
sg38
S'--'
p190
sg40
S'--'
p191
sg42
S'12/21'
p192
sg44
S'Tom Savage'
p193
sg46
S'0.0'
p194
sg48
S'W25-13'
p195
sg50
S'2014'
p196
ssg70
(dp197
g5
S'--'
p198
sg7
g70
sg9
S'--'
p199
sg11
S'--'
p200
sg13
S'--'
p201
sg15
S'--'
p202
sg17
S'--'
p203
sg19
S'--'
p204
sg21
S'WAS'
p205
sg23
g24
sg25
S'--'
p206
sg27
S'--'
p207
sg29
S'--'
p208
sg31
g24
sg32
S'--'
p209
sg34
S'--'
p210
sg36
S'--'
p211
sg38
S'--'
p212
sg40
S'--'
p213
sg42
S'09/07'
p214
sg44
S'Tom Savage'
p215
sg46
S'0.0'
p216
sg48
S'W17-6'
p217
sg50
S'2014'
p218
ssS'3'
p219
(dp220
g5
S'--'
p221
sg7
g219
sg9
S'--'
p222
sg11
S'--'
p223
sg13
S'--'
p224
sg15
S'--'
p225
sg17
S'--'
p226
sg19
S'--'
p227
sg21
S'@NYG'
p228
sg23
g24
sg25
S'--'
p229
sg27
S'--'
p230
sg29
S'--'
p231
sg31
g24
sg32
S'--'
p232
sg34
S'--'
p233
sg36
S'--'
p234
sg38
S'--'
p235
sg40
S'--'
p236
sg42
S'09/21'
p237
sg44
S'Tom Savage'
p238
sg46
S'0.0'
p239
sg48
S'L17-30'
p240
sg50
S'2014'
p241
ssg65
(dp242
g5
S'--'
p243
sg7
g65
sg9
S'--'
p244
sg11
S'--'
p245
sg13
S'--'
p246
sg15
S'--'
p247
sg17
S'--'
p248
sg19
S'--'
p249
sg21
S'@OAK'
p250
sg23
g24
sg25
S'--'
p251
sg27
S'--'
p252
sg29
S'--'
p253
sg31
g24
sg32
S'--'
p254
sg34
S'--'
p255
sg36
S'--'
p256
sg38
S'--'
p257
sg40
S'--'
p258
sg42
S'09/14'
p259
sg44
S'Tom Savage'
p260
sg46
S'0.0'
p261
sg48
S'W30-14'
p262
sg50
S'2014'
p263
ssg118
(dp264
g5
S'--'
p265
sg7
g118
sg9
S'--'
p266
sg11
S'--'
p267
sg13
S'--'
p268
sg15
S'--'
p269
sg17
S'--'
p270
sg19
S'--'
p271
sg21
S'@DAL'
p272
sg23
g24
sg25
S'--'
p273
sg27
S'--'
p274
sg29
S'--'
p275
sg31
g24
sg32
S'--'
p276
sg34
S'--'
p277
sg36
S'--'
p278
sg38
S'--'
p279
sg40
S'--'
p280
sg42
S'10/05'
p281
sg44
S'Tom Savage'
p282
sg46
S'0.0'
p283
sg48
S'L17-20'
p284
sg50
S'2014'
p285
ssg113
(dp286
g5
S'--'
p287
sg7
g113
sg9
S'--'
p288
sg11
S'--'
p289
sg13
S'--'
p290
sg15
S'--'
p291
sg17
S'--'
p292
sg19
S'--'
p293
sg21
S'BUF'
p294
sg23
g24
sg25
S'--'
p295
sg27
S'--'
p296
sg29
S'--'
p297
sg31
g24
sg32
S'--'
p298
sg34
S'--'
p299
sg36
S'--'
p300
sg38
S'--'
p301
sg40
S'--'
p302
sg42
S'09/28'
p303
sg44
S'Tom Savage'
p304
sg46
S'0.0'
p305
sg48
S'W23-17'
p306
sg50
S'2014'
p307
ssS'7'
p308
(dp309
g5
S'--'
p310
sg7
g308
sg9
S'--'
p311
sg11
S'--'
p312
sg13
S'--'
p313
sg15
S'--'
p314
sg17
S'--'
p315
sg19
S'--'
p316
sg21
S'@PIT'
p317
sg23
g24
sg25
S'--'
p318
sg27
S'--'
p319
sg29
S'--'
p320
sg31
g24
sg32
S'--'
p321
sg34
S'--'
p322
sg36
S'--'
p323
sg38
S'--'
p324
sg40
S'--'
p325
sg42
S'10/20'
p326
sg44
S'Tom Savage'
p327
sg46
S'0.0'
p328
sg48
S'L23-30'
p329
sg50
S'2014'
p330
ssS'6'
p331
(dp332
g5
S'--'
p333
sg7
g331
sg9
S'--'
p334
sg11
S'--'
p335
sg13
S'--'
p336
sg15
S'--'
p337
sg17
S'--'
p338
sg19
S'--'
p339
sg21
S'IND'
p340
sg23
g24
sg25
S'--'
p341
sg27
S'--'
p342
sg29
S'--'
p343
sg31
g24
sg32
S'--'
p344
sg34
S'--'
p345
sg36
S'--'
p346
sg38
S'--'
p347
sg40
S'--'
p348
sg42
S'10/09'
p349
sg44
S'Tom Savage'
p350
sg46
S'0.0'
p351
sg48
S'L28-33'
p352
sg50
S'2014'
p353
ssS'9'
p354
(dp355
g5
S'--'
p356
sg7
g354
sg9
S'--'
p357
sg11
S'--'
p358
sg13
S'--'
p359
sg15
S'--'
p360
sg17
S'--'
p361
sg19
S'--'
p362
sg21
S'PHI'
p363
sg23
g24
sg25
S'--'
p364
sg27
S'--'
p365
sg29
S'--'
p366
sg31
g24
sg32
S'--'
p367
sg34
S'--'
p368
sg36
S'--'
p369
sg38
S'--'
p370
sg40
S'--'
p371
sg42
S'11/02'
p372
sg44
S'Tom Savage'
p373
sg46
S'0.0'
p374
sg48
S'L21-31'
p375
sg50
S'2014'
p376
ssS'8'
p377
(dp378
g5
S'--'
p379
sg7
g377
sg9
S'--'
p380
sg11
S'--'
p381
sg13
S'--'
p382
sg15
S'--'
p383
sg17
S'--'
p384
sg19
S'--'
p385
sg21
S'@TEN'
p386
sg23
g24
sg25
S'--'
p387
sg27
S'--'
p388
sg29
S'--'
p389
sg31
g24
sg32
S'--'
p390
sg34
S'--'
p391
sg36
S'--'
p392
sg38
S'--'
p393
sg40
S'--'
p394
sg42
S'10/26'
p395
sg44
S'Tom Savage'
p396
sg46
S'0.0'
p397
sg48
S'W30-16'
p398
sg50
S'2014'
p399
sss.