(dp0
S'2015'
p1
(dp2
S'11'
p3
(dp4
S'PassAtt'
p5
S'39'
p6
sS'WK'
p7
S'11'
p8
sS'RushAvg'
p9
S'--'
p10
sS'Pct'
p11
S'51.3'
p12
sS'RushAtt'
p13
S'--'
p14
sS'PassYds'
p15
S'277'
p16
sS'PassAvg'
p17
S'7.1'
p18
sS'FUM'
p19
S'--'
p20
sS'Opp'
p21
S'BUF'
p22
sS'G'
p23
S'1'
p24
sS'Comp'
p25
S'20'
p26
sS'SckY'
p27
S'6'
p28
sS'RushYds'
p29
S'--'
p30
sS'GS'
p31
g24
sS'Lost'
p32
S'--'
p33
sS'RushTD'
p34
S'--'
p35
sS'PassTD'
p36
g24
sS'Sck'
p37
g24
sS'Int'
p38
g24
sS'Game Date'
p39
S'11/23'
p40
sS'Player'
p41
S'Tom Brady'
p42
sS'Rate'
p43
S'72.3'
p44
sS'Result'
p45
S'W20-13'
p46
sS'Year'
p47
S'2015'
p48
ssS'10'
p49
(dp50
g5
S'42'
p51
sg7
S'10'
p52
sg9
S'4.5'
p53
sg11
S'61.9'
p54
sg13
S'2'
p55
sg15
S'334'
p56
sg17
S'8.0'
p57
sg19
g55
sg21
S'@NYG'
p58
sg23
g24
sg25
S'26'
p59
sg27
S'5'
p60
sg29
S'9'
p61
sg31
g24
sg32
g24
sg34
S'0'
p62
sg36
g55
sg37
S'3'
p63
sg38
g24
sg39
S'11/15'
p64
sg41
S'Tom Brady'
p65
sg43
S'92.8'
p66
sg45
S'W27-26'
p67
sg47
S'2015'
p68
ssS'13'
p69
(dp70
g5
S'56'
p71
sg7
S'13'
p72
sg9
S'2.8'
p73
sg11
S'51.8'
p74
sg13
g28
sg15
S'312'
p75
sg17
S'5.6'
p76
sg19
S'--'
p77
sg21
S'PHI'
p78
sg23
g24
sg25
S'29'
p79
sg27
S'24'
p80
sg29
S'17'
p81
sg31
g24
sg32
S'--'
p82
sg34
g24
sg36
g63
sg37
S'4'
p83
sg38
g55
sg39
S'12/06'
p84
sg41
S'Tom Brady'
p85
sg43
S'71.4'
p86
sg45
S'L28-35'
p87
sg47
S'2015'
p88
ssS'12'
p89
(dp90
g5
S'42'
p91
sg7
S'12'
p92
sg9
S'--'
p93
sg11
S'54.8'
p94
sg13
S'--'
p95
sg15
S'280'
p96
sg17
S'6.7'
p97
sg19
S'--'
p98
sg21
S'@DEN'
p99
sg23
g24
sg25
S'23'
p100
sg27
S'18'
p101
sg29
S'--'
p102
sg31
g24
sg32
S'--'
p103
sg34
S'--'
p104
sg36
g63
sg37
g63
sg38
g62
sg39
S'11/29'
p105
sg41
S'Tom Brady'
p106
sg43
S'99.3'
p107
sg45
S'L24-30'
p108
sg47
S'2015'
p109
ssS'15'
p110
(dp111
g5
S'35'
p112
sg7
S'15'
p113
sg9
S'--'
p114
sg11
S'65.7'
p115
sg13
S'--'
p116
sg15
S'267'
p117
sg17
S'7.6'
p118
sg19
S'--'
p119
sg21
S'TEN'
p120
sg23
g24
sg25
S'23'
p121
sg27
S'14'
p122
sg29
S'--'
p123
sg31
g24
sg32
S'--'
p124
sg34
S'--'
p125
sg36
g55
sg37
g55
sg38
g62
sg39
S'12/20'
p126
sg41
S'Tom Brady'
p127
sg43
S'107.7'
p128
sg45
S'W33-16'
p129
sg47
S'2015'
p130
ssS'14'
p131
(dp132
g5
S'30'
p133
sg7
S'14'
p134
sg9
S'2.5'
p135
sg11
S'73.3'
p136
sg13
g83
sg15
S'226'
p137
sg17
S'7.5'
p138
sg19
S'--'
p139
sg21
S'@HOU'
p140
sg23
g24
sg25
S'22'
p141
sg27
S'29'
p142
sg29
S'10'
p143
sg31
g24
sg32
S'--'
p144
sg34
g62
sg36
g55
sg37
g63
sg38
g62
sg39
S'12/13'
p145
sg41
S'Tom Brady'
p146
sg43
S'116.8'
p147
sg45
S'W27-6'
p148
sg47
S'2015'
p149
ssS'17'
p150
(dp151
g5
S'21'
p152
sg7
S'17'
p153
sg9
S'-1.0'
p154
sg11
S'57.1'
p155
sg13
g24
sg15
S'134'
p156
sg17
S'6.4'
p157
sg19
g24
sg21
S'@MIA'
p158
sg23
g24
sg25
S'12'
p159
sg27
S'14'
p160
sg29
S'-1'
p161
sg31
g24
sg32
g62
sg34
g62
sg36
g62
sg37
g55
sg38
g62
sg39
S'01/03'
p162
sg41
S'Tom Brady'
p163
sg43
S'76.3'
p164
sg45
S'L10-20'
p165
sg47
S'2015'
p166
ssS'16'
p167
(dp168
g5
S'31'
p169
sg7
S'16'
p170
sg9
S'-1.0'
p171
sg11
S'71.0'
p172
sg13
g24
sg15
S'231'
p173
sg17
S'7.5'
p174
sg19
S'--'
p175
sg21
S'@NYJ'
p176
sg23
g24
sg25
S'22'
p177
sg27
S'10'
p178
sg29
S'-1'
p179
sg31
g24
sg32
S'--'
p180
sg34
g62
sg36
g24
sg37
g55
sg38
g24
sg39
S'12/27'
p181
sg41
S'Tom Brady'
p182
sg43
S'89.6'
p183
sg45
S'L20-26'
p184
sg47
S'2015'
p185
ssg24
(dp186
g5
S'32'
p187
sg7
g24
sg9
S'0.3'
p188
sg11
S'78.1'
p189
sg13
g63
sg15
S'288'
p190
sg17
S'9.0'
p191
sg19
S'--'
p192
sg21
S'PIT'
p193
sg23
g24
sg25
S'25'
p194
sg27
S'7'
p195
sg29
g24
sg31
g24
sg32
S'--'
p196
sg34
g62
sg36
g83
sg37
g55
sg38
g62
sg39
S'09/10'
p197
sg41
S'Tom Brady'
p198
sg43
S'143.8'
p199
sg45
S'W28-21'
p200
sg47
S'2015'
p201
ssg63
(dp202
g5
S'42'
p203
sg7
g63
sg9
S'2.0'
p204
sg11
S'78.6'
p205
sg13
g55
sg15
S'358'
p206
sg17
S'8.5'
p207
sg19
S'--'
p208
sg21
S'JAC'
p209
sg23
g24
sg25
S'33'
p210
sg27
S'12'
p211
sg29
g83
sg31
g24
sg32
S'--'
p212
sg34
g62
sg36
g55
sg37
g55
sg38
g62
sg39
S'09/27'
p213
sg41
S'Tom Brady'
p214
sg43
S'118.1'
p215
sg45
S'W51-17'
p216
sg47
S'2015'
p217
ssg55
(dp218
g5
S'59'
p219
sg7
g55
sg9
S'-1.3'
p220
sg11
S'64.4'
p221
sg13
g63
sg15
S'466'
p222
sg17
S'7.9'
p223
sg19
g24
sg21
S'@BUF'
p224
sg23
g24
sg25
S'38'
p225
sg27
S'15'
p226
sg29
S'-4'
p227
sg31
g24
sg32
g24
sg34
g62
sg36
g63
sg37
g55
sg38
g62
sg39
S'09/20'
p228
sg41
S'Tom Brady'
p229
sg43
S'105.6'
p230
sg45
S'W40-32'
p231
sg47
S'2015'
p232
ssg60
(dp233
g5
S'27'
p234
sg7
g60
sg9
S'1.5'
p235
sg11
S'74.1'
p236
sg13
g55
sg15
S'275'
p237
sg17
S'10.2'
p238
sg19
g24
sg21
S'@DAL'
p239
sg23
g24
sg25
S'20'
p240
sg27
S'28'
p241
sg29
g63
sg31
g24
sg32
g62
sg34
g24
sg36
g55
sg37
g60
sg38
g62
sg39
S'10/11'
p242
sg41
S'Tom Brady'
p243
sg43
S'130.9'
p244
sg45
S'W30-6'
p245
sg47
S'2015'
p246
ssg83
(dp247
g5
S''
p248
sg7
g83
sg9
g248
sg11
g248
sg13
g248
sg15
g248
sg17
g248
sg19
g248
sg21
g248
sg23
g248
sg25
g248
sg27
g248
sg29
g248
sg31
g248
sg32
g248
sg34
g248
sg36
g248
sg37
g248
sg38
g248
sg39
S'Bye'
p249
sg41
S'Tom Brady'
p250
sg43
g248
sg45
g248
sg47
S'2015'
p251
ssg195
(dp252
g5
S'54'
p253
sg7
g195
sg9
S'3.8'
p254
sg11
S'63.0'
p255
sg13
g83
sg15
S'355'
p256
sg17
S'6.6'
p257
sg19
g24
sg21
S'NYJ'
p258
sg23
g24
sg25
S'34'
p259
sg27
S'18'
p260
sg29
S'15'
p261
sg31
g24
sg32
g62
sg34
g24
sg36
g55
sg37
g63
sg38
g62
sg39
S'10/25'
p262
sg41
S'Tom Brady'
p263
sg43
S'94.3'
p264
sg45
S'W30-23'
p265
sg47
S'2015'
p266
ssg28
(dp267
g5
S'37'
p268
sg7
g28
sg9
S'0.0'
p269
sg11
S'62.2'
p270
sg13
g83
sg15
S'312'
p271
sg17
S'8.4'
p272
sg19
S'--'
p273
sg21
S'@IND'
p274
sg23
g24
sg25
S'23'
p275
sg27
S'11'
p276
sg29
g62
sg31
g24
sg32
S'--'
p277
sg34
g62
sg36
g63
sg37
g55
sg38
g24
sg39
S'10/18'
p278
sg41
S'Tom Brady'
p279
sg43
S'104.8'
p280
sg45
S'W34-27'
p281
sg47
S'2015'
p282
ssg61
(dp283
g5
S'39'
p284
sg7
g61
sg9
S'-1.0'
p285
sg11
S'66.7'
p286
sg13
g24
sg15
S'299'
p287
sg17
S'7.7'
p288
sg19
S'--'
p289
sg21
S'WAS'
p290
sg23
g24
sg25
S'26'
p291
sg27
g62
sg29
S'-1'
p292
sg31
g24
sg32
S'--'
p293
sg34
g62
sg36
g55
sg37
g62
sg38
g24
sg39
S'11/08'
p294
sg41
S'Tom Brady'
p295
sg43
S'96.0'
p296
sg45
S'W27-10'
p297
sg47
S'2015'
p298
ssS'8'
p299
(dp300
g5
S'38'
p301
sg7
g299
sg9
S'1.0'
p302
sg11
S'68.4'
p303
sg13
g24
sg15
S'356'
p304
sg17
S'9.4'
p305
sg19
S'--'
p306
sg21
S'MIA'
p307
sg23
g24
sg25
S'26'
p308
sg27
S'14'
p309
sg29
g24
sg31
g24
sg32
S'--'
p310
sg34
g62
sg36
g83
sg37
g55
sg38
g62
sg39
S'10/29'
p311
sg41
S'Tom Brady'
p312
sg43
S'133.2'
p313
sg45
S'W36-7'
p314
sg47
S'2015'
p315
sssS'2014'
p316
(dp317
g3
(dp318
g5
S'30'
p319
sg7
S'11'
p320
sg9
S'-1.0'
p321
sg11
S'63.3'
p322
sg13
g55
sg15
S'257'
p323
sg17
S'8.6'
p324
sg19
S'--'
p325
sg21
S'@IND'
p326
sg23
g24
sg25
S'19'
p327
sg27
g62
sg29
S'-2'
p328
sg31
g24
sg32
S'--'
p329
sg34
g62
sg36
g55
sg37
g62
sg38
g55
sg39
S'11/16'
p330
sg41
S'Tom Brady'
p331
sg43
S'85.0'
p332
sg45
S'W42-20'
p333
sg47
S'2014'
p334
ssg49
(dp335
g5
g248
sg7
S'10'
p336
sg9
g248
sg11
g248
sg13
g248
sg15
g248
sg17
g248
sg19
g248
sg21
g248
sg23
g248
sg25
g248
sg27
g248
sg29
g248
sg31
g248
sg32
g248
sg34
g248
sg36
g248
sg37
g248
sg38
g248
sg39
S'Bye'
p337
sg41
S'Tom Brady'
p338
sg43
g248
sg45
g248
sg47
S'2014'
p339
ssg69
(dp340
g5
S'35'
p341
sg7
S'13'
p342
sg9
S'-1.0'
p343
sg11
S'62.9'
p344
sg13
g24
sg15
S'245'
p345
sg17
S'7.0'
p346
sg19
S'--'
p347
sg21
S'@GB'
p348
sg23
g24
sg25
S'22'
p349
sg27
g61
sg29
S'-1'
p350
sg31
g24
sg32
S'--'
p351
sg34
g62
sg36
g55
sg37
g24
sg38
g62
sg39
S'11/30'
p352
sg41
S'Tom Brady'
p353
sg43
S'102.7'
p354
sg45
S'L21-26'
p355
sg47
S'2014'
p356
ssg89
(dp357
g5
S'53'
p358
sg7
S'12'
p359
sg9
S'--'
p360
sg11
S'71.7'
p361
sg13
S'--'
p362
sg15
S'349'
p363
sg17
S'6.6'
p364
sg19
S'--'
p365
sg21
S'DET'
p366
sg23
g24
sg25
S'38'
p367
sg27
g62
sg29
S'--'
p368
sg31
g24
sg32
S'--'
p369
sg34
S'--'
p370
sg36
g55
sg37
g62
sg38
g24
sg39
S'11/23'
p371
sg41
S'Tom Brady'
p372
sg43
S'94.0'
p373
sg45
S'W34-9'
p374
sg47
S'2014'
p375
ssg110
(dp376
g5
S'35'
p377
sg7
S'15'
p378
sg9
S'6.0'
p379
sg11
S'60.0'
p380
sg13
g63
sg15
S'287'
p381
sg17
S'8.2'
p382
sg19
S'--'
p383
sg21
S'MIA'
p384
sg23
g24
sg25
S'21'
p385
sg27
g62
sg29
S'18'
p386
sg31
g24
sg32
S'--'
p387
sg34
g62
sg36
g55
sg37
g62
sg38
g24
sg39
S'12/14'
p388
sg41
S'Tom Brady'
p389
sg43
S'93.4'
p390
sg45
S'W41-13'
p391
sg47
S'2014'
p392
ssg131
(dp393
g5
S'44'
p394
sg7
S'14'
p395
sg9
S'1.8'
p396
sg11
S'63.6'
p397
sg13
g83
sg15
S'317'
p398
sg17
S'7.2'
p399
sg19
S'--'
p400
sg21
S'@SD'
p401
sg23
g24
sg25
S'28'
p402
sg27
g195
sg29
g195
sg31
g24
sg32
S'--'
p403
sg34
g62
sg36
g55
sg37
g24
sg38
g24
sg39
S'12/07'
p404
sg41
S'Tom Brady'
p405
sg43
S'90.8'
p406
sg45
S'W23-14'
p407
sg47
S'2014'
p408
ssg150
(dp409
g5
S'16'
p410
sg7
S'17'
p411
sg9
S'4.5'
p412
sg11
S'50.0'
p413
sg13
g55
sg15
S'80'
p414
sg17
S'5.0'
p415
sg19
S'--'
p416
sg21
S'BUF'
p417
sg23
g24
sg25
g299
sg27
g195
sg29
g61
sg31
g24
sg32
S'--'
p418
sg34
g62
sg36
g62
sg37
g24
sg38
g62
sg39
S'12/28'
p419
sg41
S'Tom Brady'
p420
sg43
S'64.6'
p421
sg45
S'L9-17'
p422
sg47
S'2014'
p423
ssg167
(dp424
g5
S'35'
p425
sg7
S'16'
p426
sg9
S'1.4'
p427
sg11
S'65.7'
p428
sg13
g195
sg15
S'182'
p429
sg17
S'5.2'
p430
sg19
S'--'
p431
sg21
S'@NYJ'
p432
sg23
g24
sg25
S'23'
p433
sg27
S'36'
p434
sg29
S'10'
p435
sg31
g24
sg32
S'--'
p436
sg34
g62
sg36
g24
sg37
g83
sg38
g24
sg39
S'12/21'
p437
sg41
S'Tom Brady'
p438
sg43
S'76.1'
p439
sg45
S'W17-16'
p440
sg47
S'2014'
p441
ssg24
(dp442
g5
S'56'
p443
sg7
g24
sg9
S'3.0'
p444
sg11
S'51.8'
p445
sg13
g24
sg15
S'249'
p446
sg17
S'4.4'
p447
sg19
g55
sg21
S'@MIA'
p448
sg23
g24
sg25
S'29'
p449
sg27
S'23'
p450
sg29
g63
sg31
g24
sg32
g55
sg34
g62
sg36
g24
sg37
g83
sg38
g62
sg39
S'09/07'
p451
sg41
S'Tom Brady'
p452
sg43
S'69.7'
p453
sg45
S'L20-33'
p454
sg47
S'2014'
p455
ssg63
(dp456
g5
S'37'
p457
sg7
g63
sg9
S'-2.3'
p458
sg11
S'64.9'
p459
sg13
g63
sg15
S'234'
p460
sg17
S'6.3'
p461
sg19
g24
sg21
S'OAK'
p462
sg23
g24
sg25
S'24'
p463
sg27
S'13'
p464
sg29
S'-7'
p465
sg31
g24
sg32
g62
sg34
g62
sg36
g24
sg37
g55
sg38
g62
sg39
S'09/21'
p466
sg41
S'Tom Brady'
p467
sg43
S'91.5'
p468
sg45
S'W16-9'
p469
sg47
S'2014'
p470
ssg55
(dp471
g5
S'21'
p472
sg7
g55
sg9
S'0.0'
p473
sg11
S'66.7'
p474
sg13
g24
sg15
S'149'
p475
sg17
S'7.1'
p476
sg19
S'--'
p477
sg21
S'@MIN'
p478
sg23
g24
sg25
S'14'
p479
sg27
g195
sg29
g62
sg31
g24
sg32
S'--'
p480
sg34
g62
sg36
g24
sg37
g24
sg38
g62
sg39
S'09/14'
p481
sg41
S'Tom Brady'
p482
sg43
S'103.1'
p483
sg45
S'W30-7'
p484
sg47
S'2014'
p485
ssg60
(dp486
g5
S'35'
p487
sg7
g60
sg9
S'3.3'
p488
sg11
S'65.7'
p489
sg13
g83
sg15
S'292'
p490
sg17
S'8.3'
p491
sg19
S'--'
p492
sg21
S'CIN'
p493
sg23
g24
sg25
S'23'
p494
sg27
g195
sg29
S'13'
p495
sg31
g24
sg32
S'--'
p496
sg34
g62
sg36
g55
sg37
g24
sg38
g62
sg39
S'10/05'
p497
sg41
S'Tom Brady'
p498
sg43
S'110.7'
p499
sg45
S'W43-17'
p500
sg47
S'2014'
p501
ssg83
(dp502
g5
S'23'
p503
sg7
g83
sg9
S'--'
p504
sg11
S'60.9'
p505
sg13
S'--'
p506
sg15
S'159'
p507
sg17
S'6.9'
p508
sg19
g55
sg21
S'@KC'
p509
sg23
g24
sg25
S'14'
p510
sg27
g299
sg29
S'--'
p511
sg31
g24
sg32
g24
sg34
S'--'
p512
sg36
g24
sg37
g55
sg38
g55
sg39
S'09/29'
p513
sg41
S'Tom Brady'
p514
sg43
S'59.9'
p515
sg45
S'L14-41'
p516
sg47
S'2014'
p517
ssg195
(dp518
g5
S'37'
p519
sg7
g195
sg9
S'--'
p520
sg11
S'54.1'
p521
sg13
S'--'
p522
sg15
S'261'
p523
sg17
S'7.1'
p524
sg19
S'--'
p525
sg21
S'NYJ'
p526
sg23
g24
sg25
S'20'
p527
sg27
g24
sg29
S'--'
p528
sg31
g24
sg32
S'--'
p529
sg34
S'--'
p530
sg36
g63
sg37
g24
sg38
g62
sg39
S'10/16'
p531
sg41
S'Tom Brady'
p532
sg43
S'103.5'
p533
sg45
S'W27-25'
p534
sg47
S'2014'
p535
ssg28
(dp536
g5
S'37'
p537
sg7
g28
sg9
S'0.8'
p538
sg11
S'73.0'
p539
sg13
g83
sg15
S'361'
p540
sg17
S'9.8'
p541
sg19
S'--'
p542
sg21
S'@BUF'
p543
sg23
g24
sg25
S'27'
p544
sg27
S'15'
p545
sg29
g63
sg31
g24
sg32
S'--'
p546
sg34
g62
sg36
g83
sg37
g55
sg38
g62
sg39
S'10/12'
p547
sg41
S'Tom Brady'
p548
sg43
S'139.6'
p549
sg45
S'W37-22'
p550
sg47
S'2014'
p551
ssg61
(dp552
g5
S'53'
p553
sg7
g61
sg9
S'2.0'
p554
sg11
S'62.3'
p555
sg13
g55
sg15
S'333'
p556
sg17
S'6.3'
p557
sg19
S'--'
p558
sg21
S'DEN'
p559
sg23
g24
sg25
S'33'
p560
sg27
g24
sg29
g83
sg31
g24
sg32
S'--'
p561
sg34
g62
sg36
g83
sg37
g24
sg38
g24
sg39
S'11/02'
p562
sg41
S'Tom Brady'
p563
sg43
S'97.4'
p564
sg45
S'W43-21'
p565
sg47
S'2014'
p566
ssg299
(dp567
g5
S'35'
p568
sg7
g299
sg9
S'0.0'
p569
sg11
S'85.7'
p570
sg13
g55
sg15
S'354'
p571
sg17
S'10.1'
p572
sg19
g24
sg21
S'CHI'
p573
sg23
g24
sg25
S'30'
p574
sg27
g62
sg29
g62
sg31
g24
sg32
g62
sg34
g62
sg36
g60
sg37
g62
sg38
g62
sg39
S'10/26'
p575
sg41
S'Tom Brady'
p576
sg43
S'148.4'
p577
sg45
S'W51-23'
p578
sg47
S'2014'
p579
sssS'2011'
p580
(dp581
g3
(dp582
g5
S'27'
p583
sg7
S'11'
p584
sg9
S'5.0'
p585
sg11
S'55.6'
p586
sg13
g55
sg15
S'234'
p587
sg17
S'8.7'
p588
sg19
g24
sg21
S'KC'
p589
sg23
g24
sg25
S'15'
p590
sg27
S'11'
p591
sg29
S'10'
p592
sg31
g24
sg32
g24
sg34
g62
sg36
g55
sg37
g63
sg38
g62
sg39
S'11/21'
p593
sg41
S'Tom Brady'
p594
sg43
S'109.2'
p595
sg45
S'W34-3'
p596
sg47
S'2011'
p597
ssg49
(dp598
g5
S'39'
p599
sg7
S'10'
p600
sg9
S'0.7'
p601
sg11
S'66.7'
p602
sg13
g63
sg15
S'329'
p603
sg17
S'8.4'
p604
sg19
g24
sg21
S'@NYJ'
p605
sg23
g24
sg25
S'26'
p606
sg27
g62
sg29
g55
sg31
g24
sg32
g62
sg34
g62
sg36
g63
sg37
g62
sg38
g62
sg39
S'11/13'
p607
sg41
S'Tom Brady'
p608
sg43
S'118.4'
p609
sg45
S'W37-16'
p610
sg47
S'2011'
p611
ssg69
(dp612
g5
S'38'
p613
sg7
S'13'
p614
sg9
S'2.3'
p615
sg11
S'76.3'
p616
sg13
g63
sg15
S'289'
p617
sg17
S'7.6'
p618
sg19
S'--'
p619
sg21
S'IND'
p620
sg23
g24
sg25
S'29'
p621
sg27
g62
sg29
g195
sg31
g24
sg32
S'--'
p622
sg34
g62
sg36
g55
sg37
g24
sg38
g62
sg39
S'12/04'
p623
sg41
S'Tom Brady'
p624
sg43
S'114.9'
p625
sg45
S'W31-24'
p626
sg47
S'2011'
p627
ssg89
(dp628
g5
S'34'
p629
sg7
S'12'
p630
sg9
S'5.6'
p631
sg11
S'70.6'
p632
sg13
g60
sg15
S'361'
p633
sg17
S'10.6'
p634
sg19
S'--'
p635
sg21
S'@PHI'
p636
sg23
g24
sg25
S'24'
p637
sg27
g299
sg29
S'28'
p638
sg31
g24
sg32
S'--'
p639
sg34
g62
sg36
g63
sg37
g24
sg38
g62
sg39
S'11/27'
p640
sg41
S'Tom Brady'
p641
sg43
S'134.6'
p642
sg45
S'W38-20'
p643
sg47
S'2011'
p644
ssg110
(dp645
g5
S'34'
p646
sg7
S'15'
p647
sg9
S'0.3'
p648
sg11
S'67.6'
p649
sg13
g28
sg15
S'320'
p650
sg17
S'9.4'
p651
sg19
g24
sg21
S'@DEN'
p652
sg23
g24
sg25
S'23'
p653
sg27
S'10'
p654
sg29
g55
sg31
g24
sg32
g62
sg34
g24
sg36
g55
sg37
g55
sg38
g62
sg39
S'12/18'
p655
sg41
S'Tom Brady'
p656
sg43
S'117.3'
p657
sg45
S'W41-23'
p658
sg47
S'2011'
p659
ssg131
(dp660
g5
S'37'
p661
sg7
S'14'
p662
sg9
S'2.0'
p663
sg11
S'59.5'
p664
sg13
g83
sg15
S'357'
p665
sg17
S'9.6'
p666
sg19
S'--'
p667
sg21
S'@WAS'
p668
sg23
g24
sg25
S'22'
p669
sg27
g60
sg29
g299
sg31
g24
sg32
S'--'
p670
sg34
g62
sg36
g63
sg37
g24
sg38
g24
sg39
S'12/11'
p671
sg41
S'Tom Brady'
p672
sg43
S'107.6'
p673
sg45
S'W34-27'
p674
sg47
S'2011'
p675
ssg150
(dp676
g5
S'35'
p677
sg7
S'17'
p678
sg9
S'--'
p679
sg11
S'65.7'
p680
sg13
S'--'
p681
sg15
S'338'
p682
sg17
S'9.7'
p683
sg19
g24
sg21
S'BUF'
p684
sg23
g24
sg25
S'23'
p685
sg27
S'18'
p686
sg29
S'--'
p687
sg31
g24
sg32
g62
sg34
S'--'
p688
sg36
g63
sg37
g83
sg38
g24
sg39
S'01/01'
p689
sg41
S'Tom Brady'
p690
sg43
S'113.7'
p691
sg45
S'W49-21'
p692
sg47
S'2011'
p693
ssg167
(dp694
g5
S'46'
p695
sg7
S'16'
p696
sg9
S'1.9'
p697
sg11
S'58.7'
p698
sg13
g61
sg15
S'304'
p699
sg17
S'6.6'
p700
sg19
S'--'
p701
sg21
S'MIA'
p702
sg23
g24
sg25
S'27'
p703
sg27
S'23'
p704
sg29
S'17'
p705
sg31
g24
sg32
S'--'
p706
sg34
g55
sg36
g24
sg37
g83
sg38
g62
sg39
S'12/24'
p707
sg41
S'Tom Brady'
p708
sg43
S'85.8'
p709
sg45
S'W27-24'
p710
sg47
S'2011'
p711
ssg24
(dp712
g5
S'48'
p713
sg7
g24
sg9
S'3.0'
p714
sg11
S'66.7'
p715
sg13
g24
sg15
S'517'
p716
sg17
S'10.8'
p717
sg19
S'--'
p718
sg21
S'@MIA'
p719
sg23
g24
sg25
S'32'
p720
sg27
g24
sg29
g63
sg31
g24
sg32
S'--'
p721
sg34
g62
sg36
g83
sg37
g24
sg38
g24
sg39
S'09/12'
p722
sg41
S'Tom Brady'
p723
sg43
S'121.6'
p724
sg45
S'W38-24'
p725
sg47
S'2011'
p726
ssg63
(dp727
g5
S'45'
p728
sg7
g63
sg9
S'5.0'
p729
sg11
S'66.7'
p730
sg13
g24
sg15
S'387'
p731
sg17
S'8.6'
p732
sg19
S'--'
p733
sg21
S'@BUF'
p734
sg23
g24
sg25
S'30'
p735
sg27
g62
sg29
g60
sg31
g24
sg32
S'--'
p736
sg34
g62
sg36
g83
sg37
g62
sg38
g83
sg39
S'09/25'
p737
sg41
S'Tom Brady'
p738
sg43
S'86.1'
p739
sg45
S'L31-34'
p740
sg47
S'2011'
p741
ssg55
(dp742
g5
S'40'
p743
sg7
g55
sg9
S'1.5'
p744
sg11
S'77.5'
p745
sg13
g55
sg15
S'423'
p746
sg17
S'10.6'
p747
sg19
S'--'
p748
sg21
S'SD'
p749
sg23
g24
sg25
S'31'
p750
sg27
S'13'
p751
sg29
g63
sg31
g24
sg32
S'--'
p752
sg34
g62
sg36
g63
sg37
g55
sg38
g62
sg39
S'09/18'
p753
sg41
S'Tom Brady'
p754
sg43
S'135.7'
p755
sg45
S'W35-21'
p756
sg47
S'2011'
p757
ssg60
(dp758
g5
S'33'
p759
sg7
g60
sg9
S'3.0'
p760
sg11
S'72.7'
p761
sg13
g24
sg15
S'321'
p762
sg17
S'9.7'
p763
sg19
S'--'
p764
sg21
S'NYJ'
p765
sg23
g24
sg25
S'24'
p766
sg27
S'27'
p767
sg29
g63
sg31
g24
sg32
S'--'
p768
sg34
g62
sg36
g24
sg37
g83
sg38
g24
sg39
S'10/09'
p769
sg41
S'Tom Brady'
p770
sg43
S'100.7'
p771
sg45
S'W30-21'
p772
sg47
S'2011'
p773
ssg83
(dp774
g5
S'30'
p775
sg7
g83
sg9
S'-1.0'
p776
sg11
S'53.3'
p777
sg13
g24
sg15
S'226'
p778
sg17
S'7.5'
p779
sg19
S'--'
p780
sg21
S'@OAK'
p781
sg23
g24
sg25
S'16'
p782
sg27
g62
sg29
S'-1'
p783
sg31
g24
sg32
S'--'
p784
sg34
g62
sg36
g55
sg37
g24
sg38
g62
sg39
S'10/02'
p785
sg41
S'Tom Brady'
p786
sg43
S'100.1'
p787
sg45
S'W31-19'
p788
sg47
S'2011'
p789
ssg195
(dp790
g5
g248
sg7
g195
sg9
g248
sg11
g248
sg13
g248
sg15
g248
sg17
g248
sg19
g248
sg21
g248
sg23
g248
sg25
g248
sg27
g248
sg29
g248
sg31
g248
sg32
g248
sg34
g248
sg36
g248
sg37
g248
sg38
g248
sg39
S'Bye'
p791
sg41
S'Tom Brady'
p792
sg43
g248
sg45
g248
sg47
S'2011'
p793
ssg28
(dp794
g5
S'41'
p795
sg7
g28
sg9
S'4.3'
p796
sg11
S'65.9'
p797
sg13
g83
sg15
S'289'
p798
sg17
S'7.0'
p799
sg19
S'--'
p800
sg21
S'DAL'
p801
sg23
g24
sg25
S'27'
p802
sg27
S'19'
p803
sg29
S'17'
p804
sg31
g24
sg32
S'--'
p805
sg34
g62
sg36
g55
sg37
g63
sg38
g55
sg39
S'10/16'
p806
sg41
S'Tom Brady'
p807
sg43
S'82.3'
p808
sg45
S'W20-16'
p809
sg47
S'2011'
p810
ssg61
(dp811
g5
S'49'
p812
sg7
g61
sg9
S'5.0'
p813
sg11
S'57.1'
p814
sg13
g24
sg15
S'342'
p815
sg17
S'7.0'
p816
sg19
g24
sg21
S'NYG'
p817
sg23
g24
sg25
S'28'
p818
sg27
S'10'
p819
sg29
g60
sg31
g24
sg32
g24
sg34
g62
sg36
g55
sg37
g55
sg38
g55
sg39
S'11/06'
p820
sg41
S'Tom Brady'
p821
sg43
S'75.4'
p822
sg45
S'L20-24'
p823
sg47
S'2011'
p824
ssg299
(dp825
g5
S'35'
p826
sg7
g299
sg9
S'--'
p827
sg11
S'68.6'
p828
sg13
S'--'
p829
sg15
S'198'
p830
sg17
S'5.7'
p831
sg19
g24
sg21
S'@PIT'
p832
sg23
g24
sg25
S'24'
p833
sg27
S'28'
p834
sg29
S'--'
p835
sg31
g24
sg32
g62
sg34
S'--'
p836
sg36
g55
sg37
g63
sg38
g62
sg39
S'10/30'
p837
sg41
S'Tom Brady'
p838
sg43
S'101.8'
p839
sg45
S'L17-25'
p840
sg47
S'2011'
p841
sssS'2010'
p842
(dp843
g3
(dp844
g5
S'25'
p845
sg7
S'11'
p846
sg9
S'-0.5'
p847
sg11
S'76.0'
p848
sg13
g83
sg15
S'186'
p849
sg17
S'7.4'
p850
sg19
g24
sg21
S'IND'
p851
sg23
g24
sg25
S'19'
p852
sg27
g299
sg29
S'-2'
p853
sg31
g24
sg32
g62
sg34
g62
sg36
g55
sg37
g24
sg38
g62
sg39
S'11/21'
p854
sg41
S'Tom Brady'
p855
sg43
S'123.1'
p856
sg45
S'W31-28'
p857
sg47
S'2010'
p858
ssg49
(dp859
g5
S'43'
p860
sg7
S'10'
p861
sg9
S'3.0'
p862
sg11
S'69.8'
p863
sg13
g24
sg15
S'350'
p864
sg17
S'8.1'
p865
sg19
S'--'
p866
sg21
S'@PIT'
p867
sg23
g24
sg25
S'30'
p868
sg27
g62
sg29
g63
sg31
g24
sg32
S'--'
p869
sg34
g24
sg36
g63
sg37
g62
sg38
g62
sg39
S'11/14'
p870
sg41
S'Tom Brady'
p871
sg43
S'117.4'
p872
sg45
S'W39-26'
p873
sg47
S'2010'
p874
ssg69
(dp875
g5
S'29'
p876
sg7
S'13'
p877
sg9
S'3.0'
p878
sg11
S'72.4'
p879
sg13
g24
sg15
S'326'
p880
sg17
S'11.2'
p881
sg19
S'--'
p882
sg21
S'NYJ'
p883
sg23
g24
sg25
S'21'
p884
sg27
S'22'
p885
sg29
g63
sg31
g24
sg32
S'--'
p886
sg34
g62
sg36
g83
sg37
g63
sg38
g62
sg39
S'12/06'
p887
sg41
S'Tom Brady'
p888
sg43
S'148.9'
p889
sg45
S'W45-3'
p890
sg47
S'2010'
p891
ssg89
(dp892
g5
S'27'
p893
sg7
S'12'
p894
sg9
S'0.3'
p895
sg11
S'77.8'
p896
sg13
g83
sg15
S'341'
p897
sg17
S'12.6'
p898
sg19
S'--'
p899
sg21
S'@DET'
p900
sg23
g24
sg25
S'21'
p901
sg27
g63
sg29
g24
sg31
g24
sg32
S'--'
p902
sg34
g62
sg36
g83
sg37
g24
sg38
g62
sg39
S'11/25'
p903
sg41
S'Tom Brady'
p904
sg43
S'158.3'
p905
sg45
S'W45-24'
p906
sg47
S'2010'
p907
ssg110
(dp908
g5
S'24'
p909
sg7
S'15'
p910
sg9
S'--'
p911
sg11
S'62.5'
p912
sg13
S'--'
p913
sg15
S'163'
p914
sg17
S'6.8'
p915
sg19
g24
sg21
S'GB'
p916
sg23
g24
sg25
S'15'
p917
sg27
S'27'
p918
sg29
S'--'
p919
sg31
g24
sg32
g62
sg34
S'--'
p920
sg36
g55
sg37
g63
sg38
g62
sg39
S'12/19'
p921
sg41
S'Tom Brady'
p922
sg43
S'110.2'
p923
sg45
S'W31-27'
p924
sg47
S'2010'
p925
ssg131
(dp926
g5
S'40'
p927
sg7
S'14'
p928
sg9
S'--'
p929
sg11
S'67.5'
p930
sg13
S'--'
p931
sg15
S'369'
p932
sg17
S'9.2'
p933
sg19
S'--'
p934
sg21
S'@CHI'
p935
sg23
g24
sg25
S'27'
p936
sg27
S'18'
p937
sg29
S'--'
p938
sg31
g24
sg32
S'--'
p939
sg34
S'--'
p940
sg36
g55
sg37
g63
sg38
g62
sg39
S'12/12'
p941
sg41
S'Tom Brady'
p942
sg43
S'113.4'
p943
sg45
S'W36-7'
p944
sg47
S'2010'
p945
ssg150
(dp946
g5
S'16'
p947
sg7
S'17'
p948
sg9
S'--'
p949
sg11
S'62.5'
p950
sg13
S'--'
p951
sg15
S'199'
p952
sg17
S'12.4'
p953
sg19
S'--'
p954
sg21
S'MIA'
p955
sg23
g24
sg25
S'10'
p956
sg27
g62
sg29
S'--'
p957
sg31
g24
sg32
S'--'
p958
sg34
S'--'
p959
sg36
g55
sg37
g62
sg38
g62
sg39
S'01/02'
p960
sg41
S'Tom Brady'
p961
sg43
S'145.6'
p962
sg45
S'W38-7'
p963
sg47
S'2010'
p964
ssg167
(dp965
g5
S'27'
p966
sg7
S'16'
p967
sg9
S'4.3'
p968
sg11
S'55.6'
p969
sg13
g63
sg15
S'140'
p970
sg17
S'5.2'
p971
sg19
S'--'
p972
sg21
S'@BUF'
p973
sg23
g24
sg25
S'15'
p974
sg27
g61
sg29
S'13'
p975
sg31
g24
sg32
S'--'
p976
sg34
g62
sg36
g63
sg37
g24
sg38
g62
sg39
S'12/26'
p977
sg41
S'Tom Brady'
p978
sg43
S'107.0'
p979
sg45
S'W34-3'
p980
sg47
S'2010'
p981
ssg24
(dp982
g5
S'35'
p983
sg7
g24
sg9
S'--'
p984
sg11
S'71.4'
p985
sg13
S'--'
p986
sg15
S'258'
p987
sg17
S'7.4'
p988
sg19
S'--'
p989
sg21
S'CIN'
p990
sg23
g24
sg25
S'25'
p991
sg27
g62
sg29
S'--'
p992
sg31
g24
sg32
S'--'
p993
sg34
S'--'
p994
sg36
g63
sg37
g62
sg38
g62
sg39
S'09/12'
p995
sg41
S'Tom Brady'
p996
sg43
S'120.9'
p997
sg45
S'W38-24'
p998
sg47
S'2010'
p999
ssg63
(dp1000
g5
S'27'
p1001
sg7
g63
sg9
S'1.5'
p1002
sg11
S'77.8'
p1003
sg13
g83
sg15
S'252'
p1004
sg17
S'9.3'
p1005
sg19
S'--'
p1006
sg21
S'BUF'
p1007
sg23
g24
sg25
S'21'
p1008
sg27
g195
sg29
g28
sg31
g24
sg32
S'--'
p1009
sg34
g62
sg36
g63
sg37
g24
sg38
g62
sg39
S'09/26'
p1010
sg41
S'Tom Brady'
p1011
sg43
S'142.6'
p1012
sg45
S'W38-30'
p1013
sg47
S'2010'
p1014
ssg55
(dp1015
g5
S'36'
p1016
sg7
g55
sg9
S'--'
p1017
sg11
S'55.6'
p1018
sg13
S'--'
p1019
sg15
S'248'
p1020
sg17
S'6.9'
p1021
sg19
g24
sg21
S'@NYJ'
p1022
sg23
g24
sg25
S'20'
p1023
sg27
g61
sg29
S'--'
p1024
sg31
g24
sg32
g24
sg34
S'--'
p1025
sg36
g55
sg37
g24
sg38
g55
sg39
S'09/19'
p1026
sg41
S'Tom Brady'
p1027
sg43
S'72.5'
p1028
sg45
S'L14-28'
p1029
sg47
S'2010'
p1030
ssg60
(dp1031
g5
g248
sg7
g60
sg9
g248
sg11
g248
sg13
g248
sg15
g248
sg17
g248
sg19
g248
sg21
g248
sg23
g248
sg25
g248
sg27
g248
sg29
g248
sg31
g248
sg32
g248
sg34
g248
sg36
g248
sg37
g248
sg38
g248
sg39
S'Bye'
p1032
sg41
S'Tom Brady'
p1033
sg43
g248
sg45
g248
sg47
S'2010'
p1034
ssg83
(dp1035
g5
S'24'
p1036
sg7
g83
sg9
S'1.2'
p1037
sg11
S'79.2'
p1038
sg13
g60
sg15
S'153'
p1039
sg17
S'6.4'
p1040
sg19
S'--'
p1041
sg21
S'@MIA'
p1042
sg23
g24
sg25
S'19'
p1043
sg27
g195
sg29
g28
sg31
g24
sg32
S'--'
p1044
sg34
g62
sg36
g24
sg37
g63
sg38
g62
sg39
S'10/04'
p1045
sg41
S'Tom Brady'
p1046
sg43
S'107.1'
p1047
sg45
S'W41-14'
p1048
sg47
S'2010'
p1049
ssg195
(dp1050
g5
S'32'
p1051
sg7
g195
sg9
S'0.5'
p1052
sg11
S'59.4'
p1053
sg13
g55
sg15
S'159'
p1054
sg17
S'5.0'
p1055
sg19
S'--'
p1056
sg21
S'@SD'
p1057
sg23
g24
sg25
S'19'
p1058
sg27
S'31'
p1059
sg29
g24
sg31
g24
sg32
S'--'
p1060
sg34
g62
sg36
g24
sg37
g83
sg38
g62
sg39
S'10/24'
p1061
sg41
S'Tom Brady'
p1062
sg43
S'82.7'
p1063
sg45
S'W23-20'
p1064
sg47
S'2010'
p1065
ssg28
(dp1066
g5
S'44'
p1067
sg7
g28
sg9
S'0.5'
p1068
sg11
S'61.4'
p1069
sg13
g55
sg15
S'292'
p1070
sg17
S'6.6'
p1071
sg19
S'--'
p1072
sg21
S'BAL'
p1073
sg23
g24
sg25
S'27'
p1074
sg27
S'25'
p1075
sg29
g24
sg31
g24
sg32
S'--'
p1076
sg34
g62
sg36
g24
sg37
g63
sg38
g55
sg39
S'10/17'
p1077
sg41
S'Tom Brady'
p1078
sg43
S'69.5'
p1079
sg45
S'W23-20'
p1080
sg47
S'2010'
p1081
ssg61
(dp1082
g5
S'36'
p1083
sg7
g61
sg9
S'1.0'
p1084
sg11
S'52.8'
p1085
sg13
g24
sg15
S'224'
p1086
sg17
S'6.2'
p1087
sg19
S'--'
p1088
sg21
S'@CLE'
p1089
sg23
g24
sg25
S'19'
p1090
sg27
g61
sg29
g24
sg31
g24
sg32
S'--'
p1091
sg34
g62
sg36
g55
sg37
g24
sg38
g62
sg39
S'11/07'
p1092
sg41
S'Tom Brady'
p1093
sg43
S'90.5'
p1094
sg45
S'L14-34'
p1095
sg47
S'2010'
p1096
ssg299
(dp1097
g5
S'27'
p1098
sg7
g299
sg9
S'-0.8'
p1099
sg11
S'59.3'
p1100
sg13
g83
sg15
S'240'
p1101
sg17
S'8.9'
p1102
sg19
S'--'
p1103
sg21
S'MIN'
p1104
sg23
g24
sg25
S'16'
p1105
sg27
g62
sg29
S'-3'
p1106
sg31
g24
sg32
S'--'
p1107
sg34
g62
sg36
g24
sg37
g62
sg38
g62
sg39
S'10/31'
p1108
sg41
S'Tom Brady'
p1109
sg43
S'100.8'
p1110
sg45
S'W28-18'
p1111
sg47
S'2010'
p1112
sssS'2013'
p1113
(dp1114
g3
(dp1115
g5
S'40'
p1116
sg7
S'11'
p1117
sg9
S'3.0'
p1118
sg11
S'72.5'
p1119
sg13
g24
sg15
S'296'
p1120
sg17
S'7.4'
p1121
sg19
S'--'
p1122
sg21
S'@CAR'
p1123
sg23
g24
sg25
S'29'
p1124
sg27
S'13'
p1125
sg29
g63
sg31
g24
sg32
S'--'
p1126
sg34
g62
sg36
g24
sg37
g55
sg38
g24
sg39
S'11/18'
p1127
sg41
S'Tom Brady'
p1128
sg43
S'91.2'
p1129
sg45
S'L20-24'
p1130
sg47
S'2013'
p1131
ssg49
(dp1132
g5
g248
sg7
S'10'
p1133
sg9
g248
sg11
g248
sg13
g248
sg15
g248
sg17
g248
sg19
g248
sg21
g248
sg23
g248
sg25
g248
sg27
g248
sg29
g248
sg31
g248
sg32
g248
sg34
g248
sg36
g248
sg37
g248
sg38
g248
sg39
S'Bye'
p1134
sg41
S'Tom Brady'
p1135
sg43
g248
sg45
g248
sg47
S'2013'
p1136
ssg69
(dp1137
g5
S'41'
p1138
sg7
S'13'
p1139
sg9
S'--'
p1140
sg11
S'70.7'
p1141
sg13
S'--'
p1142
sg15
S'371'
p1143
sg17
S'9.0'
p1144
sg19
S'--'
p1145
sg21
S'@HOU'
p1146
sg23
g24
sg25
S'29'
p1147
sg27
g28
sg29
S'--'
p1148
sg31
g24
sg32
S'--'
p1149
sg34
S'--'
p1150
sg36
g55
sg37
g24
sg38
g24
sg39
S'12/01'
p1151
sg41
S'Tom Brady'
p1152
sg43
S'104.8'
p1153
sg45
S'W34-31'
p1154
sg47
S'2013'
p1155
ssg89
(dp1156
g5
S'50'
p1157
sg7
S'12'
p1158
sg9
S'0.0'
p1159
sg11
S'68.0'
p1160
sg13
g55
sg15
S'344'
p1161
sg17
S'6.9'
p1162
sg19
g55
sg21
S'DEN'
p1163
sg23
g24
sg25
S'34'
p1164
sg27
S'20'
p1165
sg29
g62
sg31
g24
sg32
g24
sg34
g62
sg36
g63
sg37
g63
sg38
g62
sg39
S'11/24'
p1166
sg41
S'Tom Brady'
p1167
sg43
S'107.4'
p1168
sg45
S'W34-31'
p1169
sg47
S'2013'
p1170
ssg110
(dp1171
g5
S'55'
p1172
sg7
S'15'
p1173
sg9
S'--'
p1174
sg11
S'61.8'
p1175
sg13
S'--'
p1176
sg15
S'364'
p1177
sg17
S'6.6'
p1178
sg19
S'--'
p1179
sg21
S'@MIA'
p1180
sg23
g24
sg25
S'34'
p1181
sg27
g195
sg29
S'--'
p1182
sg31
g24
sg32
S'--'
p1183
sg34
S'--'
p1184
sg36
g55
sg37
g24
sg38
g24
sg39
S'12/15'
p1185
sg41
S'Tom Brady'
p1186
sg43
S'85.7'
p1187
sg45
S'L20-24'
p1188
sg47
S'2013'
p1189
ssg131
(dp1190
g5
S'52'
p1191
sg7
S'14'
p1192
sg9
S'0.5'
p1193
sg11
S'61.5'
p1194
sg13
g55
sg15
S'418'
p1195
sg17
S'8.0'
p1196
sg19
g24
sg21
S'CLE'
p1197
sg23
g24
sg25
S'32'
p1198
sg27
S'21'
p1199
sg29
g24
sg31
g24
sg32
g24
sg34
g62
sg36
g55
sg37
g83
sg38
g24
sg39
S'12/08'
p1200
sg41
S'Tom Brady'
p1201
sg43
S'91.7'
p1202
sg45
S'W27-26'
p1203
sg47
S'2013'
p1204
ssg150
(dp1205
g5
S'24'
p1206
sg7
S'17'
p1207
sg9
S'-0.8'
p1208
sg11
S'58.3'
p1209
sg13
g83
sg15
S'122'
p1210
sg17
S'5.1'
p1211
sg19
g24
sg21
S'BUF'
p1212
sg23
g24
sg25
S'14'
p1213
sg27
g195
sg29
S'-3'
p1214
sg31
g24
sg32
g62
sg34
g62
sg36
g24
sg37
g24
sg38
g24
sg39
S'12/29'
p1215
sg41
S'Tom Brady'
p1216
sg43
S'68.4'
p1217
sg45
S'W34-20'
p1218
sg47
S'2013'
p1219
ssg167
(dp1220
g5
S'26'
p1221
sg7
S'16'
p1222
sg9
S'--'
p1223
sg11
S'53.8'
p1224
sg13
S'--'
p1225
sg15
S'172'
p1226
sg17
S'6.6'
p1227
sg19
S'--'
p1228
sg21
S'@BAL'
p1229
sg23
g24
sg25
S'14'
p1230
sg27
S'14'
p1231
sg29
S'--'
p1232
sg31
g24
sg32
S'--'
p1233
sg34
S'--'
p1234
sg36
g24
sg37
g55
sg38
g62
sg39
S'12/22'
p1235
sg41
S'Tom Brady'
p1236
sg43
S'87.3'
p1237
sg45
S'W41-7'
p1238
sg47
S'2013'
p1239
ssg24
(dp1240
g5
S'52'
p1241
sg7
g24
sg9
S'-1.0'
p1242
sg11
S'55.8'
p1243
sg13
g83
sg15
S'288'
p1244
sg17
S'5.5'
p1245
sg19
g24
sg21
S'@BUF'
p1246
sg23
g24
sg25
S'29'
p1247
sg27
S'15'
p1248
sg29
S'-4'
p1249
sg31
g24
sg32
g24
sg34
g62
sg36
g55
sg37
g63
sg38
g24
sg39
S'09/08'
p1250
sg41
S'Tom Brady'
p1251
sg43
S'76.4'
p1252
sg45
S'W23-21'
p1253
sg47
S'2013'
p1254
ssg63
(dp1255
g5
S'36'
p1256
sg7
g63
sg9
S'1.0'
p1257
sg11
S'69.4'
p1258
sg13
g60
sg15
S'225'
p1259
sg17
S'6.3'
p1260
sg19
S'--'
p1261
sg21
S'TB'
p1262
sg23
g24
sg25
S'25'
p1263
sg27
S'23'
p1264
sg29
g60
sg31
g24
sg32
S'--'
p1265
sg34
g62
sg36
g55
sg37
g63
sg38
g24
sg39
S'09/22'
p1266
sg41
S'Tom Brady'
p1267
sg43
S'92.9'
p1268
sg45
S'W23-3'
p1269
sg47
S'2013'
p1270
ssg55
(dp1271
g5
S'39'
p1272
sg7
g55
sg9
S'-1.0'
p1273
sg11
S'48.7'
p1274
sg13
g55
sg15
S'185'
p1275
sg17
S'4.7'
p1276
sg19
S'--'
p1277
sg21
S'NYJ'
p1278
sg23
g24
sg25
S'19'
p1279
sg27
g195
sg29
S'-2'
p1280
sg31
g24
sg32
S'--'
p1281
sg34
g62
sg36
g24
sg37
g24
sg38
g62
sg39
S'09/12'
p1282
sg41
S'Tom Brady'
p1283
sg43
S'71.0'
p1284
sg45
S'W13-10'
p1285
sg47
S'2013'
p1286
ssg60
(dp1287
g5
S'38'
p1288
sg7
g60
sg9
S'--'
p1289
sg11
S'47.4'
p1290
sg13
S'--'
p1291
sg15
S'197'
p1292
sg17
S'5.2'
p1293
sg19
g24
sg21
S'@CIN'
p1294
sg23
g24
sg25
S'18'
p1295
sg27
S'31'
p1296
sg29
S'--'
p1297
sg31
g24
sg32
g62
sg34
S'--'
p1298
sg36
g62
sg37
g83
sg38
g24
sg39
S'10/06'
p1299
sg41
S'Tom Brady'
p1300
sg43
S'52.2'
p1301
sg45
S'L6-13'
p1302
sg47
S'2013'
p1303
ssg83
(dp1304
g5
S'31'
p1305
sg7
g83
sg9
S'-0.4'
p1306
sg11
S'64.5'
p1307
sg13
g60
sg15
S'316'
p1308
sg17
S'10.2'
p1309
sg19
g24
sg21
S'@ATL'
p1310
sg23
g24
sg25
S'20'
p1311
sg27
g62
sg29
S'-2'
p1312
sg31
g24
sg32
g62
sg34
g62
sg36
g55
sg37
g62
sg38
g62
sg39
S'09/29'
p1313
sg41
S'Tom Brady'
p1314
sg43
S'119.8'
p1315
sg45
S'W30-23'
p1316
sg47
S'2013'
p1317
ssg195
(dp1318
g5
S'46'
p1319
sg7
g195
sg9
S'--'
p1320
sg11
S'47.8'
p1321
sg13
S'--'
p1322
sg15
S'228'
p1323
sg17
S'5.0'
p1324
sg19
g55
sg21
S'@NYJ'
p1325
sg23
g24
sg25
S'22'
p1326
sg27
S'23'
p1327
sg29
S'--'
p1328
sg31
g24
sg32
g62
sg34
S'--'
p1329
sg36
g62
sg37
g83
sg38
g24
sg39
S'10/20'
p1330
sg41
S'Tom Brady'
p1331
sg43
S'53.5'
p1332
sg45
S'L27-30'
p1333
sg47
S'2013'
p1334
ssg28
(dp1335
g5
S'43'
p1336
sg7
g28
sg9
S'8.0'
p1337
sg11
S'58.1'
p1338
sg13
g55
sg15
S'269'
p1339
sg17
S'6.3'
p1340
sg19
S'--'
p1341
sg21
S'NO'
p1342
sg23
g24
sg25
S'25'
p1343
sg27
S'34'
p1344
sg29
S'16'
p1345
sg31
g24
sg32
S'--'
p1346
sg34
g62
sg36
g24
sg37
g60
sg38
g24
sg39
S'10/13'
p1347
sg41
S'Tom Brady'
p1348
sg43
S'74.7'
p1349
sg45
S'W30-27'
p1350
sg47
S'2013'
p1351
ssg61
(dp1352
g5
S'33'
p1353
sg7
g61
sg9
S'-1.0'
p1354
sg11
S'69.7'
p1355
sg13
g24
sg15
S'432'
p1356
sg17
S'13.1'
p1357
sg19
S'--'
p1358
sg21
S'PIT'
p1359
sg23
g24
sg25
S'23'
p1360
sg27
S'19'
p1361
sg29
S'-1'
p1362
sg31
g24
sg32
S'--'
p1363
sg34
g62
sg36
g83
sg37
g63
sg38
g62
sg39
S'11/03'
p1364
sg41
S'Tom Brady'
p1365
sg43
S'151.8'
p1366
sg45
S'W55-31'
p1367
sg47
S'2013'
p1368
ssg299
(dp1369
g5
S'22'
p1370
sg7
g299
sg9
S'1.3'
p1371
sg11
S'59.1'
p1372
sg13
g83
sg15
S'116'
p1373
sg17
S'5.3'
p1374
sg19
S'--'
p1375
sg21
S'MIA'
p1376
sg23
g24
sg25
S'13'
p1377
sg27
S'16'
p1378
sg29
g60
sg31
g24
sg32
S'--'
p1379
sg34
g62
sg36
g24
sg37
g63
sg38
g24
sg39
S'10/27'
p1380
sg41
S'Tom Brady'
p1381
sg43
S'69.5'
p1382
sg45
S'W27-17'
p1383
sg47
S'2013'
p1384
sssS'2012'
p1385
(dp1386
g3
(dp1387
g5
S'35'
p1388
sg7
S'11'
p1389
sg9
S'--'
p1390
sg11
S'68.6'
p1391
sg13
S'--'
p1392
sg15
S'331'
p1393
sg17
S'9.5'
p1394
sg19
S'--'
p1395
sg21
S'IND'
p1396
sg23
g24
sg25
S'24'
p1397
sg27
g62
sg29
S'--'
p1398
sg31
g24
sg32
S'--'
p1399
sg34
S'--'
p1400
sg36
g63
sg37
g62
sg38
g62
sg39
S'11/18'
p1401
sg41
S'Tom Brady'
p1402
sg43
S'127.2'
p1403
sg45
S'W59-24'
p1404
sg47
S'2012'
p1405
ssg49
(dp1406
g5
S'38'
p1407
sg7
S'10'
p1408
sg9
S'-1.0'
p1409
sg11
S'60.5'
p1410
sg13
g24
sg15
S'237'
p1411
sg17
S'6.2'
p1412
sg19
S'--'
p1413
sg21
S'BUF'
p1414
sg23
g24
sg25
S'23'
p1415
sg27
g195
sg29
S'-1'
p1416
sg31
g24
sg32
S'--'
p1417
sg34
g62
sg36
g55
sg37
g24
sg38
g62
sg39
S'11/11'
p1418
sg41
S'Tom Brady'
p1419
sg43
S'96.1'
p1420
sg45
S'W37-31'
p1421
sg47
S'2012'
p1422
ssg69
(dp1423
g5
S'40'
p1424
sg7
S'13'
p1425
sg9
S'-0.3'
p1426
sg11
S'60.0'
p1427
sg13
g83
sg15
S'238'
p1428
sg17
S'6.0'
p1429
sg19
S'--'
p1430
sg21
S'@MIA'
p1431
sg23
g24
sg25
S'24'
p1432
sg27
S'25'
p1433
sg29
S'-1'
p1434
sg31
g24
sg32
S'--'
p1435
sg34
g62
sg36
g24
sg37
g83
sg38
g24
sg39
S'12/02'
p1436
sg41
S'Tom Brady'
p1437
sg43
S'74.8'
p1438
sg45
S'W23-16'
p1439
sg47
S'2012'
p1440
ssg89
(dp1441
g5
S'27'
p1442
sg7
S'12'
p1443
sg9
S'1.7'
p1444
sg11
S'66.7'
p1445
sg13
g63
sg15
S'323'
p1446
sg17
S'12.0'
p1447
sg19
S'--'
p1448
sg21
S'@NYJ'
p1449
sg23
g24
sg25
S'18'
p1450
sg27
g62
sg29
g60
sg31
g24
sg32
S'--'
p1451
sg34
g24
sg36
g63
sg37
g62
sg38
g62
sg39
S'11/22'
p1452
sg41
S'Tom Brady'
p1453
sg43
S'144.5'
p1454
sg45
S'W49-19'
p1455
sg47
S'2012'
p1456
ssg110
(dp1457
g5
S'65'
p1458
sg7
S'15'
p1459
sg9
S'3.7'
p1460
sg11
S'55.4'
p1461
sg13
g63
sg15
S'443'
p1462
sg17
S'6.8'
p1463
sg19
S'--'
p1464
sg21
S'SF'
p1465
sg23
g24
sg25
S'36'
p1466
sg27
S'18'
p1467
sg29
S'11'
p1468
sg31
g24
sg32
S'--'
p1469
sg34
g24
sg36
g24
sg37
g63
sg38
g55
sg39
S'12/16'
p1470
sg41
S'Tom Brady'
p1471
sg43
S'68.9'
p1472
sg45
S'L34-41'
p1473
sg47
S'2012'
p1474
ssg131
(dp1475
g5
S'35'
p1476
sg7
S'14'
p1477
sg9
S'6.0'
p1478
sg11
S'60.0'
p1479
sg13
g24
sg15
S'296'
p1480
sg17
S'8.5'
p1481
sg19
S'--'
p1482
sg21
S'HOU'
p1483
sg23
g24
sg25
S'21'
p1484
sg27
g195
sg29
g28
sg31
g24
sg32
S'--'
p1485
sg34
g62
sg36
g83
sg37
g24
sg38
g62
sg39
S'12/10'
p1486
sg41
S'Tom Brady'
p1487
sg43
S'125.4'
p1488
sg45
S'W42-14'
p1489
sg47
S'2012'
p1490
ssg150
(dp1491
g5
S'36'
p1492
sg7
S'17'
p1493
sg9
S'--'
p1494
sg11
S'61.1'
p1495
sg13
S'--'
p1496
sg15
S'284'
p1497
sg17
S'7.9'
p1498
sg19
S'--'
p1499
sg21
S'MIA'
p1500
sg23
g24
sg25
S'22'
p1501
sg27
g299
sg29
S'--'
p1502
sg31
g24
sg32
S'--'
p1503
sg34
S'--'
p1504
sg36
g55
sg37
g24
sg38
g62
sg39
S'12/30'
p1505
sg41
S'Tom Brady'
p1506
sg43
S'104.4'
p1507
sg45
S'W28-0'
p1508
sg47
S'2012'
p1509
ssg167
(dp1510
g5
S'41'
p1511
sg7
S'16'
p1512
sg9
S'--'
p1513
sg11
S'58.5'
p1514
sg13
S'--'
p1515
sg15
S'267'
p1516
sg17
S'6.5'
p1517
sg19
S'--'
p1518
sg21
S'@JAC'
p1519
sg23
g24
sg25
S'24'
p1520
sg27
S'21'
p1521
sg29
S'--'
p1522
sg31
g24
sg32
S'--'
p1523
sg34
S'--'
p1524
sg36
g55
sg37
g63
sg38
g55
sg39
S'12/23'
p1525
sg41
S'Tom Brady'
p1526
sg43
S'73.9'
p1527
sg45
S'W23-16'
p1528
sg47
S'2012'
p1529
ssg24
(dp1530
g5
S'31'
p1531
sg7
g24
sg9
S'0.5'
p1532
sg11
S'74.2'
p1533
sg13
g55
sg15
S'236'
p1534
sg17
S'7.6'
p1535
sg19
S'--'
p1536
sg21
S'@TEN'
p1537
sg23
g24
sg25
S'23'
p1538
sg27
g299
sg29
g24
sg31
g24
sg32
S'--'
p1539
sg34
g62
sg36
g55
sg37
g24
sg38
g62
sg39
S'09/09'
p1540
sg41
S'Tom Brady'
p1541
sg43
S'117.1'
p1542
sg45
S'W34-13'
p1543
sg47
S'2012'
p1544
ssg63
(dp1545
g5
S'41'
p1546
sg7
g63
sg9
S'3.5'
p1547
sg11
S'68.3'
p1548
sg13
g55
sg15
S'335'
p1549
sg17
S'8.2'
p1550
sg19
g24
sg21
S'@BAL'
p1551
sg23
g24
sg25
S'28'
p1552
sg27
S'16'
p1553
sg29
g195
sg31
g24
sg32
g62
sg34
g62
sg36
g24
sg37
g55
sg38
g62
sg39
S'09/23'
p1554
sg41
S'Tom Brady'
p1555
sg43
S'101.2'
p1556
sg45
S'L30-31'
p1557
sg47
S'2012'
p1558
ssg55
(dp1559
g5
S'46'
p1560
sg7
g55
sg9
S'-1.0'
p1561
sg11
S'60.9'
p1562
sg13
g24
sg15
S'316'
p1563
sg17
S'6.9'
p1564
sg19
S'--'
p1565
sg21
S'ARI'
p1566
sg23
g24
sg25
S'28'
p1567
sg27
S'19'
p1568
sg29
S'-1'
p1569
sg31
g24
sg32
S'--'
p1570
sg34
g62
sg36
g24
sg37
g83
sg38
g24
sg39
S'09/16'
p1571
sg41
S'Tom Brady'
p1572
sg43
S'79.6'
p1573
sg45
S'L18-20'
p1574
sg47
S'2012'
p1575
ssg60
(dp1576
g5
S'31'
p1577
sg7
g60
sg9
S'-0.5'
p1578
sg11
S'74.2'
p1579
sg13
g83
sg15
S'223'
p1580
sg17
S'7.2'
p1581
sg19
g24
sg21
S'DEN'
p1582
sg23
g24
sg25
S'23'
p1583
sg27
S'30'
p1584
sg29
S'-2'
p1585
sg31
g24
sg32
g62
sg34
g24
sg36
g24
sg37
g83
sg38
g62
sg39
S'10/07'
p1586
sg41
S'Tom Brady'
p1587
sg43
S'104.6'
p1588
sg45
S'W31-21'
p1589
sg47
S'2012'
p1590
ssg83
(dp1591
g5
S'36'
p1592
sg7
g83
sg9
S'4.0'
p1593
sg11
S'61.1'
p1594
sg13
g24
sg15
S'340'
p1595
sg17
S'9.4'
p1596
sg19
S'--'
p1597
sg21
S'@BUF'
p1598
sg23
g24
sg25
S'22'
p1599
sg27
g195
sg29
g83
sg31
g24
sg32
S'--'
p1600
sg34
g24
sg36
g63
sg37
g24
sg38
g62
sg39
S'09/30'
p1601
sg41
S'Tom Brady'
p1602
sg43
S'120.1'
p1603
sg45
S'W52-28'
p1604
sg47
S'2012'
p1605
ssg195
(dp1606
g5
S'42'
p1607
sg7
g195
sg9
S'--'
p1608
sg11
S'61.9'
p1609
sg13
S'--'
p1610
sg15
S'259'
p1611
sg17
S'6.2'
p1612
sg19
S'--'
p1613
sg21
S'NYJ'
p1614
sg23
g24
sg25
S'26'
p1615
sg27
g61
sg29
S'--'
p1616
sg31
g24
sg32
S'--'
p1617
sg34
S'--'
p1618
sg36
g55
sg37
g24
sg38
g62
sg39
S'10/21'
p1619
sg41
S'Tom Brady'
p1620
sg43
S'95.2'
p1621
sg45
S'W29-26'
p1622
sg47
S'2012'
p1623
ssg28
(dp1624
g5
S'58'
p1625
sg7
g28
sg9
S'--'
p1626
sg11
S'62.1'
p1627
sg13
S'--'
p1628
sg15
S'395'
p1629
sg17
S'6.8'
p1630
sg19
S'--'
p1631
sg21
S'@SEA'
p1632
sg23
g24
sg25
S'36'
p1633
sg27
g195
sg29
S'--'
p1634
sg31
g24
sg32
S'--'
p1635
sg34
S'--'
p1636
sg36
g55
sg37
g24
sg38
g55
sg39
S'10/14'
p1637
sg41
S'Tom Brady'
p1638
sg43
S'79.3'
p1639
sg45
S'L23-24'
p1640
sg47
S'2012'
p1641
ssg61
(dp1642
g5
g248
sg7
g61
sg9
g248
sg11
g248
sg13
g248
sg15
g248
sg17
g248
sg19
g248
sg21
g248
sg23
g248
sg25
g248
sg27
g248
sg29
g248
sg31
g248
sg32
g248
sg34
g248
sg36
g248
sg37
g248
sg38
g248
sg39
S'Bye'
p1643
sg41
S'Tom Brady'
p1644
sg43
g248
sg45
g248
sg47
S'2012'
p1645
ssg299
(dp1646
g5
S'35'
p1647
sg7
g299
sg9
S'3.0'
p1648
sg11
S'65.7'
p1649
sg13
g24
sg15
S'304'
p1650
sg17
S'8.7'
p1651
sg19
S'--'
p1652
sg21
S'@STL'
p1653
sg23
g24
sg25
S'23'
p1654
sg27
g62
sg29
g63
sg31
g24
sg32
S'--'
p1655
sg34
g62
sg36
g83
sg37
g62
sg38
g62
sg39
S'10/28'
p1656
sg41
S'Tom Brady'
p1657
sg43
S'131.1'
p1658
sg45
S'W45-7'
p1659
sg47
S'2012'
p1660
sss.