(dp0
S'2013'
p1
(dp2
S'11'
p3
(dp4
S'PassAtt'
p5
S'--'
p6
sS'WK'
p7
S'11'
p8
sS'RushAvg'
p9
S'--'
p10
sS'Pct'
p11
S'--'
p12
sS'RushAtt'
p13
S'--'
p14
sS'PassYds'
p15
S'--'
p16
sS'PassAvg'
p17
S'--'
p18
sS'FUM'
p19
S'--'
p20
sS'Opp'
p21
S'@DEN'
p22
sS'G'
p23
S'0'
p24
sS'Comp'
p25
S'--'
p26
sS'SckY'
p27
S'--'
p28
sS'RushYds'
p29
S'--'
p30
sS'GS'
p31
g24
sS'Lost'
p32
S'--'
p33
sS'RushTD'
p34
S'--'
p35
sS'PassTD'
p36
S'--'
p37
sS'Sck'
p38
S'--'
p39
sS'Int'
p40
S'--'
p41
sS'Game Date'
p42
S'11/17'
p43
sS'Player'
p44
S'Tyler Bray'
p45
sS'Rate'
p46
S'0.0'
p47
sS'Result'
p48
S'L17-27'
p49
sS'Year'
p50
S'2013'
p51
ssS'10'
p52
(dp53
g5
S''
p54
sg7
S'10'
p55
sg9
g54
sg11
g54
sg13
g54
sg15
g54
sg17
g54
sg19
g54
sg21
g54
sg23
g54
sg25
g54
sg27
g54
sg29
g54
sg31
g54
sg32
g54
sg34
g54
sg36
g54
sg38
g54
sg40
g54
sg42
S'Bye'
p56
sg44
S'Tyler Bray'
p57
sg46
g54
sg48
g54
sg50
S'2013'
p58
ssS'13'
p59
(dp60
g5
S'--'
p61
sg7
S'13'
p62
sg9
S'--'
p63
sg11
S'--'
p64
sg13
S'--'
p65
sg15
S'--'
p66
sg17
S'--'
p67
sg19
S'--'
p68
sg21
S'DEN'
p69
sg23
g24
sg25
S'--'
p70
sg27
S'--'
p71
sg29
S'--'
p72
sg31
g24
sg32
S'--'
p73
sg34
S'--'
p74
sg36
S'--'
p75
sg38
S'--'
p76
sg40
S'--'
p77
sg42
S'12/01'
p78
sg44
S'Tyler Bray'
p79
sg46
S'0.0'
p80
sg48
S'L28-35'
p81
sg50
S'2013'
p82
ssS'12'
p83
(dp84
g5
S'--'
p85
sg7
S'12'
p86
sg9
S'--'
p87
sg11
S'--'
p88
sg13
S'--'
p89
sg15
S'--'
p90
sg17
S'--'
p91
sg19
S'--'
p92
sg21
S'SD'
p93
sg23
g24
sg25
S'--'
p94
sg27
S'--'
p95
sg29
S'--'
p96
sg31
g24
sg32
S'--'
p97
sg34
S'--'
p98
sg36
S'--'
p99
sg38
S'--'
p100
sg40
S'--'
p101
sg42
S'11/24'
p102
sg44
S'Tyler Bray'
p103
sg46
S'0.0'
p104
sg48
S'L38-41'
p105
sg50
S'2013'
p106
ssS'15'
p107
(dp108
g5
S'--'
p109
sg7
S'15'
p110
sg9
S'--'
p111
sg11
S'--'
p112
sg13
S'--'
p113
sg15
S'--'
p114
sg17
S'--'
p115
sg19
S'--'
p116
sg21
S'@OAK'
p117
sg23
g24
sg25
S'--'
p118
sg27
S'--'
p119
sg29
S'--'
p120
sg31
g24
sg32
S'--'
p121
sg34
S'--'
p122
sg36
S'--'
p123
sg38
S'--'
p124
sg40
S'--'
p125
sg42
S'12/15'
p126
sg44
S'Tyler Bray'
p127
sg46
S'0.0'
p128
sg48
S'W56-31'
p129
sg50
S'2013'
p130
ssS'14'
p131
(dp132
g5
S'--'
p133
sg7
S'14'
p134
sg9
S'--'
p135
sg11
S'--'
p136
sg13
S'--'
p137
sg15
S'--'
p138
sg17
S'--'
p139
sg19
S'--'
p140
sg21
S'@WAS'
p141
sg23
g24
sg25
S'--'
p142
sg27
S'--'
p143
sg29
S'--'
p144
sg31
g24
sg32
S'--'
p145
sg34
S'--'
p146
sg36
S'--'
p147
sg38
S'--'
p148
sg40
S'--'
p149
sg42
S'12/08'
p150
sg44
S'Tyler Bray'
p151
sg46
S'0.0'
p152
sg48
S'W45-10'
p153
sg50
S'2013'
p154
ssS'17'
p155
(dp156
g5
S'--'
p157
sg7
S'17'
p158
sg9
S'--'
p159
sg11
S'--'
p160
sg13
S'--'
p161
sg15
S'--'
p162
sg17
S'--'
p163
sg19
S'--'
p164
sg21
S'@SD'
p165
sg23
g24
sg25
S'--'
p166
sg27
S'--'
p167
sg29
S'--'
p168
sg31
g24
sg32
S'--'
p169
sg34
S'--'
p170
sg36
S'--'
p171
sg38
S'--'
p172
sg40
S'--'
p173
sg42
S'12/29'
p174
sg44
S'Tyler Bray'
p175
sg46
S'0.0'
p176
sg48
S'L24-27'
p177
sg50
S'2013'
p178
ssS'16'
p179
(dp180
g5
S'--'
p181
sg7
S'16'
p182
sg9
S'--'
p183
sg11
S'--'
p184
sg13
S'--'
p185
sg15
S'--'
p186
sg17
S'--'
p187
sg19
S'--'
p188
sg21
S'IND'
p189
sg23
g24
sg25
S'--'
p190
sg27
S'--'
p191
sg29
S'--'
p192
sg31
g24
sg32
S'--'
p193
sg34
S'--'
p194
sg36
S'--'
p195
sg38
S'--'
p196
sg40
S'--'
p197
sg42
S'12/22'
p198
sg44
S'Tyler Bray'
p199
sg46
S'0.0'
p200
sg48
S'L7-23'
p201
sg50
S'2013'
p202
ssS'1'
p203
(dp204
g5
S'--'
p205
sg7
g203
sg9
S'--'
p206
sg11
S'--'
p207
sg13
S'--'
p208
sg15
S'--'
p209
sg17
S'--'
p210
sg19
S'--'
p211
sg21
S'@JAC'
p212
sg23
g24
sg25
S'--'
p213
sg27
S'--'
p214
sg29
S'--'
p215
sg31
g24
sg32
S'--'
p216
sg34
S'--'
p217
sg36
S'--'
p218
sg38
S'--'
p219
sg40
S'--'
p220
sg42
S'09/08'
p221
sg44
S'Tyler Bray'
p222
sg46
S'0.0'
p223
sg48
S'W28-2'
p224
sg50
S'2013'
p225
ssS'3'
p226
(dp227
g5
S'--'
p228
sg7
g226
sg9
S'--'
p229
sg11
S'--'
p230
sg13
S'--'
p231
sg15
S'--'
p232
sg17
S'--'
p233
sg19
S'--'
p234
sg21
S'@PHI'
p235
sg23
g24
sg25
S'--'
p236
sg27
S'--'
p237
sg29
S'--'
p238
sg31
g24
sg32
S'--'
p239
sg34
S'--'
p240
sg36
S'--'
p241
sg38
S'--'
p242
sg40
S'--'
p243
sg42
S'09/19'
p244
sg44
S'Tyler Bray'
p245
sg46
S'0.0'
p246
sg48
S'W26-16'
p247
sg50
S'2013'
p248
ssS'2'
p249
(dp250
g5
S'--'
p251
sg7
g249
sg9
S'--'
p252
sg11
S'--'
p253
sg13
S'--'
p254
sg15
S'--'
p255
sg17
S'--'
p256
sg19
S'--'
p257
sg21
S'DAL'
p258
sg23
g24
sg25
S'--'
p259
sg27
S'--'
p260
sg29
S'--'
p261
sg31
g24
sg32
S'--'
p262
sg34
S'--'
p263
sg36
S'--'
p264
sg38
S'--'
p265
sg40
S'--'
p266
sg42
S'09/15'
p267
sg44
S'Tyler Bray'
p268
sg46
S'0.0'
p269
sg48
S'W17-16'
p270
sg50
S'2013'
p271
ssS'5'
p272
(dp273
g5
S'--'
p274
sg7
g272
sg9
S'--'
p275
sg11
S'--'
p276
sg13
S'--'
p277
sg15
S'--'
p278
sg17
S'--'
p279
sg19
S'--'
p280
sg21
S'@TEN'
p281
sg23
g24
sg25
S'--'
p282
sg27
S'--'
p283
sg29
S'--'
p284
sg31
g24
sg32
S'--'
p285
sg34
S'--'
p286
sg36
S'--'
p287
sg38
S'--'
p288
sg40
S'--'
p289
sg42
S'10/06'
p290
sg44
S'Tyler Bray'
p291
sg46
S'0.0'
p292
sg48
S'W26-17'
p293
sg50
S'2013'
p294
ssS'4'
p295
(dp296
g5
S'--'
p297
sg7
g295
sg9
S'--'
p298
sg11
S'--'
p299
sg13
S'--'
p300
sg15
S'--'
p301
sg17
S'--'
p302
sg19
S'--'
p303
sg21
S'NYG'
p304
sg23
g24
sg25
S'--'
p305
sg27
S'--'
p306
sg29
S'--'
p307
sg31
g24
sg32
S'--'
p308
sg34
S'--'
p309
sg36
S'--'
p310
sg38
S'--'
p311
sg40
S'--'
p312
sg42
S'09/29'
p313
sg44
S'Tyler Bray'
p314
sg46
S'0.0'
p315
sg48
S'W31-7'
p316
sg50
S'2013'
p317
ssS'7'
p318
(dp319
g5
S'--'
p320
sg7
g318
sg9
S'--'
p321
sg11
S'--'
p322
sg13
S'--'
p323
sg15
S'--'
p324
sg17
S'--'
p325
sg19
S'--'
p326
sg21
S'HOU'
p327
sg23
g24
sg25
S'--'
p328
sg27
S'--'
p329
sg29
S'--'
p330
sg31
g24
sg32
S'--'
p331
sg34
S'--'
p332
sg36
S'--'
p333
sg38
S'--'
p334
sg40
S'--'
p335
sg42
S'10/20'
p336
sg44
S'Tyler Bray'
p337
sg46
S'0.0'
p338
sg48
S'W17-16'
p339
sg50
S'2013'
p340
ssS'6'
p341
(dp342
g5
S'--'
p343
sg7
g341
sg9
S'--'
p344
sg11
S'--'
p345
sg13
S'--'
p346
sg15
S'--'
p347
sg17
S'--'
p348
sg19
S'--'
p349
sg21
S'OAK'
p350
sg23
g24
sg25
S'--'
p351
sg27
S'--'
p352
sg29
S'--'
p353
sg31
g24
sg32
S'--'
p354
sg34
S'--'
p355
sg36
S'--'
p356
sg38
S'--'
p357
sg40
S'--'
p358
sg42
S'10/13'
p359
sg44
S'Tyler Bray'
p360
sg46
S'0.0'
p361
sg48
S'W24-7'
p362
sg50
S'2013'
p363
ssS'9'
p364
(dp365
g5
S'--'
p366
sg7
g364
sg9
S'--'
p367
sg11
S'--'
p368
sg13
S'--'
p369
sg15
S'--'
p370
sg17
S'--'
p371
sg19
S'--'
p372
sg21
S'@BUF'
p373
sg23
g24
sg25
S'--'
p374
sg27
S'--'
p375
sg29
S'--'
p376
sg31
g24
sg32
S'--'
p377
sg34
S'--'
p378
sg36
S'--'
p379
sg38
S'--'
p380
sg40
S'--'
p381
sg42
S'11/03'
p382
sg44
S'Tyler Bray'
p383
sg46
S'0.0'
p384
sg48
S'W23-13'
p385
sg50
S'2013'
p386
ssS'8'
p387
(dp388
g5
S'--'
p389
sg7
g387
sg9
S'--'
p390
sg11
S'--'
p391
sg13
S'--'
p392
sg15
S'--'
p393
sg17
S'--'
p394
sg19
S'--'
p395
sg21
S'CLE'
p396
sg23
g24
sg25
S'--'
p397
sg27
S'--'
p398
sg29
S'--'
p399
sg31
g24
sg32
S'--'
p400
sg34
S'--'
p401
sg36
S'--'
p402
sg38
S'--'
p403
sg40
S'--'
p404
sg42
S'10/27'
p405
sg44
S'Tyler Bray'
p406
sg46
S'0.0'
p407
sg48
S'W23-17'
p408
sg50
S'2013'
p409
sss.