(dp0
S'2015'
p1
(dp2
S'11'
p3
(dp4
S'PassAtt'
p5
S'36'
p6
sS'WK'
p7
S'11'
p8
sS'RushAvg'
p9
S'0.3'
p10
sS'Pct'
p11
S'55.6'
p12
sS'RushAtt'
p13
S'4'
p14
sS'PassYds'
p15
S'233'
p16
sS'PassAvg'
p17
S'6.5'
p18
sS'FUM'
p19
S'1'
p20
sS'Opp'
p21
S'@NE'
p22
sS'G'
p23
g20
sS'Comp'
p24
S'20'
p25
sS'SckY'
p26
S'8'
p27
sS'RushYds'
p28
g20
sS'GS'
p29
g20
sS'Lost'
p30
S'0'
p31
sS'RushTD'
p32
g31
sS'PassTD'
p33
g31
sS'Sck'
p34
S'2'
p35
sS'Int'
p36
g31
sS'Game Date'
p37
S'11/23'
p38
sS'Player'
p39
S'Tyrod Taylor'
p40
sS'Rate'
p41
S'75.3'
p42
sS'Result'
p43
S'L13-20'
p44
sS'Year'
p45
S'2015'
p46
ssS'10'
p47
(dp48
g5
S'27'
p49
sg7
S'10'
p50
sg9
S'2.0'
p51
sg11
S'63.0'
p52
sg13
S'6'
p53
sg15
S'158'
p54
sg17
S'5.9'
p55
sg19
S'--'
p56
sg21
S'@NYJ'
p57
sg23
g20
sg24
S'17'
p58
sg26
S'26'
p59
sg28
S'12'
p60
sg29
g20
sg30
S'--'
p61
sg32
g31
sg33
g20
sg34
g14
sg36
g31
sg37
S'11/12'
p62
sg39
S'Tyrod Taylor'
p63
sg41
S'91.3'
p64
sg43
S'W22-17'
p65
sg45
S'2015'
p66
ssS'13'
p67
(dp68
g5
S'21'
p69
sg7
S'13'
p70
sg9
S'4.0'
p71
sg11
S'52.4'
p72
sg13
S'7'
p73
sg15
S'211'
p74
sg17
S'10.0'
p75
sg19
S'--'
p76
sg21
S'HOU'
p77
sg23
g20
sg24
S'11'
p78
sg26
g27
sg28
S'28'
p79
sg29
g20
sg30
S'--'
p80
sg32
g20
sg33
S'3'
p81
sg34
g20
sg36
g31
sg37
S'12/06'
p82
sg39
S'Tyrod Taylor'
p83
sg41
S'127.2'
p84
sg43
S'W30-21'
p85
sg45
S'2015'
p86
ssS'12'
p87
(dp88
g5
S'38'
p89
sg7
S'12'
p90
sg9
S'9.2'
p91
sg11
S'55.3'
p92
sg13
S'5'
p93
sg15
S'291'
p94
sg17
S'7.7'
p95
sg19
g81
sg21
S'@KC'
p96
sg23
g20
sg24
S'21'
p97
sg26
g93
sg28
S'46'
p98
sg29
g20
sg30
g20
sg32
g31
sg33
g81
sg34
g20
sg36
g31
sg37
S'11/29'
p99
sg39
S'Tyrod Taylor'
p100
sg41
S'106.4'
p101
sg43
S'L22-30'
p102
sg45
S'2015'
p103
ssS'15'
p104
(dp105
g5
S'27'
p106
sg7
S'15'
p107
sg9
S'8.8'
p108
sg11
S'59.3'
p109
sg13
S'9'
p110
sg15
S'235'
p111
sg17
S'8.7'
p112
sg19
g20
sg21
S'@WAS'
p113
sg23
g20
sg24
S'16'
p114
sg26
S'23'
p115
sg28
S'79'
p116
sg29
g20
sg30
g31
sg32
g31
sg33
g35
sg34
g93
sg36
g31
sg37
S'12/20'
p117
sg39
S'Tyrod Taylor'
p118
sg41
S'112.4'
p119
sg43
S'L25-35'
p120
sg45
S'2015'
p121
ssS'14'
p122
(dp123
g5
S'36'
p124
sg7
S'14'
p125
sg9
S'6.6'
p126
sg11
S'52.8'
p127
sg13
g27
sg15
S'268'
p128
sg17
S'7.4'
p129
sg19
S'--'
p130
sg21
S'@PHI'
p131
sg23
g20
sg24
S'19'
p132
sg26
g27
sg28
S'53'
p133
sg29
g20
sg30
S'--'
p134
sg32
g31
sg33
g20
sg34
g20
sg36
g20
sg37
S'12/13'
p135
sg39
S'Tyrod Taylor'
p136
sg41
S'74.8'
p137
sg43
S'L20-23'
p138
sg45
S'2015'
p139
ssS'17'
p140
(dp141
g5
S'28'
p142
sg7
S'17'
p143
sg9
S'5.1'
p144
sg11
S'64.3'
p145
sg13
S'10'
p146
sg15
S'182'
p147
sg17
S'6.5'
p148
sg19
g20
sg21
S'NYJ'
p149
sg23
g20
sg24
S'18'
p150
sg26
g31
sg28
S'51'
p151
sg29
g20
sg30
g31
sg32
g20
sg33
g31
sg34
g35
sg36
g31
sg37
S'01/03'
p152
sg39
S'Tyrod Taylor'
p153
sg41
S'82.7'
p154
sg43
S'W22-17'
p155
sg45
S'2015'
p156
ssS'16'
p157
(dp158
g5
S'18'
p159
sg7
S'16'
p160
sg9
S'4.8'
p161
sg11
S'72.2'
p162
sg13
S'14'
p163
sg15
S'179'
p164
sg17
S'9.9'
p165
sg19
S'--'
p166
sg21
S'DAL'
p167
sg23
g20
sg24
S'13'
p168
sg26
g73
sg28
S'67'
p169
sg29
g20
sg30
S'--'
p170
sg32
g31
sg33
g31
sg34
g81
sg36
g20
sg37
S'12/27'
p171
sg39
S'Tyrod Taylor'
p172
sg41
S'80.6'
p173
sg43
S'W16-6'
p174
sg45
S'2015'
p175
ssg20
(dp176
g5
S'19'
p177
sg7
g20
sg9
S'4.6'
p178
sg11
S'73.7'
p179
sg13
g110
sg15
S'195'
p180
sg17
S'10.3'
p181
sg19
g20
sg21
S'IND'
p182
sg23
g20
sg24
S'14'
p183
sg26
g31
sg28
S'41'
p184
sg29
g20
sg30
g31
sg32
g31
sg33
g20
sg34
g31
sg36
g31
sg37
S'09/13'
p185
sg39
S'Tyrod Taylor'
p186
sg41
S'123.8'
p187
sg43
S'W27-14'
p188
sg45
S'2015'
p189
ssg81
(dp190
g5
S'29'
p191
sg7
g81
sg9
S'4.0'
p192
sg11
S'72.4'
p193
sg13
g81
sg15
S'277'
p194
sg17
S'9.6'
p195
sg19
S'--'
p196
sg21
S'@MIA'
p197
sg23
g20
sg24
S'21'
p198
sg26
g31
sg28
S'12'
p199
sg29
g20
sg30
S'--'
p200
sg32
g31
sg33
g81
sg34
g31
sg36
g31
sg37
S'09/27'
p201
sg39
S'Tyrod Taylor'
p202
sg41
S'136.7'
p203
sg43
S'W41-14'
p204
sg45
S'2015'
p205
ssg35
(dp206
g5
S'30'
p207
sg7
g35
sg9
S'8.6'
p208
sg11
S'76.7'
p209
sg13
g93
sg15
S'242'
p210
sg17
S'8.1'
p211
sg19
g35
sg21
S'NE'
p212
sg23
g20
sg24
S'23'
p213
sg26
S'53'
p214
sg28
S'43'
p215
sg29
g20
sg30
g31
sg32
g20
sg33
g81
sg34
g27
sg36
g81
sg37
S'09/20'
p216
sg39
S'Tyrod Taylor'
p217
sg41
S'93.3'
p218
sg43
S'L32-40'
p219
sg45
S'2015'
p220
ssg93
(dp221
g5
S'17'
p222
sg7
g93
sg9
S'9.5'
p223
sg11
S'58.8'
p224
sg13
g27
sg15
S'109'
p225
sg17
S'6.4'
p226
sg19
S'--'
p227
sg21
S'@TEN'
p228
sg23
g20
sg24
S'10'
p229
sg26
S'31'
p230
sg28
S'76'
p231
sg29
g20
sg30
S'--'
p232
sg32
g20
sg33
g20
sg34
g14
sg36
g31
sg37
S'10/11'
p233
sg39
S'Tyrod Taylor'
p234
sg41
S'97.4'
p235
sg43
S'W14-13'
p236
sg45
S'2015'
p237
ssg14
(dp238
g5
S'42'
p239
sg7
g14
sg9
S'2.5'
p240
sg11
S'66.7'
p241
sg13
g53
sg15
S'274'
p242
sg17
S'6.5'
p243
sg19
S'--'
p244
sg21
S'NYG'
p245
sg23
g20
sg24
S'28'
p246
sg26
S'16'
p247
sg28
S'15'
p248
sg29
g20
sg30
S'--'
p249
sg32
g31
sg33
g20
sg34
g35
sg36
g20
sg37
S'10/04'
p250
sg39
S'Tyrod Taylor'
p251
sg41
S'82.8'
p252
sg43
S'L10-24'
p253
sg45
S'2015'
p254
ssg73
(dp255
g5
S'--'
p256
sg7
g73
sg9
S'--'
p257
sg11
S'--'
p258
sg13
S'--'
p259
sg15
S'--'
p260
sg17
S'--'
p261
sg19
S'--'
p262
sg21
S'@JAC'
p263
sg23
g31
sg24
S'--'
p264
sg26
S'--'
p265
sg28
S'--'
p266
sg29
g31
sg30
S'--'
p267
sg32
S'--'
p268
sg33
S'--'
p269
sg34
S'--'
p270
sg36
S'--'
p271
sg37
S'10/25'
p272
sg39
S'Tyrod Taylor'
p273
sg41
S'0.0'
p274
sg43
S'L31-34'
p275
sg45
S'2015'
p276
ssg53
(dp277
g5
S'--'
p278
sg7
g53
sg9
S'--'
p279
sg11
S'--'
p280
sg13
S'--'
p281
sg15
S'--'
p282
sg17
S'--'
p283
sg19
S'--'
p284
sg21
S'CIN'
p285
sg23
g31
sg24
S'--'
p286
sg26
S'--'
p287
sg28
S'--'
p288
sg29
g31
sg30
S'--'
p289
sg32
S'--'
p290
sg33
S'--'
p291
sg34
S'--'
p292
sg36
S'--'
p293
sg37
S'10/18'
p294
sg39
S'Tyrod Taylor'
p295
sg41
S'0.0'
p296
sg43
S'L21-34'
p297
sg45
S'2015'
p298
ssg110
(dp299
g5
S'12'
p300
sg7
g110
sg9
S'4.4'
p301
sg11
S'91.7'
p302
sg13
S'10'
p303
sg15
S'181'
p304
sg17
S'15.1'
p305
sg19
S'--'
p306
sg21
S'MIA'
p307
sg23
g20
sg24
S'11'
p308
sg26
S'27'
p309
sg28
S'44'
p310
sg29
g20
sg30
S'--'
p311
sg32
g31
sg33
g20
sg34
g81
sg36
g31
sg37
S'11/08'
p312
sg39
S'Tyrod Taylor'
p313
sg41
S'146.5'
p314
sg43
S'W33-17'
p315
sg45
S'2015'
p316
ssg27
(dp317
g5
S''
p318
sg7
g27
sg9
g318
sg11
g318
sg13
g318
sg15
g318
sg17
g318
sg19
g318
sg21
g318
sg23
g318
sg24
g318
sg26
g318
sg28
g318
sg29
g318
sg30
g318
sg32
g318
sg33
g318
sg34
g318
sg36
g318
sg37
S'Bye'
p319
sg39
S'Tyrod Taylor'
p320
sg41
g318
sg43
g318
sg45
S'2015'
p321
sssS'2014'
p322
(dp323
g3
(dp324
g5
g318
sg7
S'11'
p325
sg9
g318
sg11
g318
sg13
g318
sg15
g318
sg17
g318
sg19
g318
sg21
g318
sg23
g318
sg24
g318
sg26
g318
sg28
g318
sg29
g318
sg30
g318
sg32
g318
sg33
g318
sg34
g318
sg36
g318
sg37
S'Bye'
p326
sg39
S'Tyrod Taylor'
p327
sg41
g318
sg43
g318
sg45
S'2014'
p328
ssg47
(dp329
g5
S'--'
p330
sg7
S'10'
p331
sg9
S'--'
p332
sg11
S'--'
p333
sg13
S'--'
p334
sg15
S'--'
p335
sg17
S'--'
p336
sg19
S'--'
p337
sg21
S'TEN'
p338
sg23
g31
sg24
S'--'
p339
sg26
S'--'
p340
sg28
S'--'
p341
sg29
g31
sg30
S'--'
p342
sg32
S'--'
p343
sg33
S'--'
p344
sg34
S'--'
p345
sg36
S'--'
p346
sg37
S'11/09'
p347
sg39
S'Tyrod Taylor'
p348
sg41
S'0.0'
p349
sg43
S'W21-7'
p350
sg45
S'2014'
p351
ssg67
(dp352
g5
S'--'
p353
sg7
S'13'
p354
sg9
S'--'
p355
sg11
S'--'
p356
sg13
S'--'
p357
sg15
S'--'
p358
sg17
S'--'
p359
sg19
S'--'
p360
sg21
S'SD'
p361
sg23
g31
sg24
S'--'
p362
sg26
S'--'
p363
sg28
S'--'
p364
sg29
g31
sg30
S'--'
p365
sg32
S'--'
p366
sg33
S'--'
p367
sg34
S'--'
p368
sg36
S'--'
p369
sg37
S'11/30'
p370
sg39
S'Tyrod Taylor'
p371
sg41
S'0.0'
p372
sg43
S'L33-34'
p373
sg45
S'2014'
p374
ssg87
(dp375
g5
S'--'
p376
sg7
S'12'
p377
sg9
S'--'
p378
sg11
S'--'
p379
sg13
S'--'
p380
sg15
S'--'
p381
sg17
S'--'
p382
sg19
S'--'
p383
sg21
S'@NO'
p384
sg23
g31
sg24
S'--'
p385
sg26
S'--'
p386
sg28
S'--'
p387
sg29
g31
sg30
S'--'
p388
sg32
S'--'
p389
sg33
S'--'
p390
sg34
S'--'
p391
sg36
S'--'
p392
sg37
S'11/24'
p393
sg39
S'Tyrod Taylor'
p394
sg41
S'0.0'
p395
sg43
S'W34-27'
p396
sg45
S'2014'
p397
ssg104
(dp398
g5
S'--'
p399
sg7
S'15'
p400
sg9
S'--'
p401
sg11
S'--'
p402
sg13
S'--'
p403
sg15
S'--'
p404
sg17
S'--'
p405
sg19
S'--'
p406
sg21
S'JAC'
p407
sg23
g31
sg24
S'--'
p408
sg26
S'--'
p409
sg28
S'--'
p410
sg29
g31
sg30
S'--'
p411
sg32
S'--'
p412
sg33
S'--'
p413
sg34
S'--'
p414
sg36
S'--'
p415
sg37
S'12/14'
p416
sg39
S'Tyrod Taylor'
p417
sg41
S'0.0'
p418
sg43
S'W20-12'
p419
sg45
S'2014'
p420
ssg122
(dp421
g5
S'--'
p422
sg7
S'14'
p423
sg9
S'--'
p424
sg11
S'--'
p425
sg13
S'--'
p426
sg15
S'--'
p427
sg17
S'--'
p428
sg19
S'--'
p429
sg21
S'@MIA'
p430
sg23
g31
sg24
S'--'
p431
sg26
S'--'
p432
sg28
S'--'
p433
sg29
g31
sg30
S'--'
p434
sg32
S'--'
p435
sg33
S'--'
p436
sg34
S'--'
p437
sg36
S'--'
p438
sg37
S'12/07'
p439
sg39
S'Tyrod Taylor'
p440
sg41
S'0.0'
p441
sg43
S'W28-13'
p442
sg45
S'2014'
p443
ssg140
(dp444
g5
S'--'
p445
sg7
S'17'
p446
sg9
S'--'
p447
sg11
S'--'
p448
sg13
S'--'
p449
sg15
S'--'
p450
sg17
S'--'
p451
sg19
S'--'
p452
sg21
S'CLE'
p453
sg23
g31
sg24
S'--'
p454
sg26
S'--'
p455
sg28
S'--'
p456
sg29
g31
sg30
S'--'
p457
sg32
S'--'
p458
sg33
S'--'
p459
sg34
S'--'
p460
sg36
S'--'
p461
sg37
S'12/28'
p462
sg39
S'Tyrod Taylor'
p463
sg41
S'0.0'
p464
sg43
S'W20-10'
p465
sg45
S'2014'
p466
ssg157
(dp467
g5
S'--'
p468
sg7
S'16'
p469
sg9
S'--'
p470
sg11
S'--'
p471
sg13
S'--'
p472
sg15
S'--'
p473
sg17
S'--'
p474
sg19
S'--'
p475
sg21
S'@HOU'
p476
sg23
g31
sg24
S'--'
p477
sg26
S'--'
p478
sg28
S'--'
p479
sg29
g31
sg30
S'--'
p480
sg32
S'--'
p481
sg33
S'--'
p482
sg34
S'--'
p483
sg36
S'--'
p484
sg37
S'12/21'
p485
sg39
S'Tyrod Taylor'
p486
sg41
S'0.0'
p487
sg43
S'L13-25'
p488
sg45
S'2014'
p489
ssg20
(dp490
g5
S'--'
p491
sg7
g20
sg9
S'--'
p492
sg11
S'--'
p493
sg13
S'--'
p494
sg15
S'--'
p495
sg17
S'--'
p496
sg19
S'--'
p497
sg21
S'CIN'
p498
sg23
g31
sg24
S'--'
p499
sg26
S'--'
p500
sg28
S'--'
p501
sg29
g31
sg30
S'--'
p502
sg32
S'--'
p503
sg33
S'--'
p504
sg34
S'--'
p505
sg36
S'--'
p506
sg37
S'09/07'
p507
sg39
S'Tyrod Taylor'
p508
sg41
S'0.0'
p509
sg43
S'L16-23'
p510
sg45
S'2014'
p511
ssg81
(dp512
g5
S'--'
p513
sg7
g81
sg9
S'--'
p514
sg11
S'--'
p515
sg13
S'--'
p516
sg15
S'--'
p517
sg17
S'--'
p518
sg19
S'--'
p519
sg21
S'@CLE'
p520
sg23
g31
sg24
S'--'
p521
sg26
S'--'
p522
sg28
S'--'
p523
sg29
g31
sg30
S'--'
p524
sg32
S'--'
p525
sg33
S'--'
p526
sg34
S'--'
p527
sg36
S'--'
p528
sg37
S'09/21'
p529
sg39
S'Tyrod Taylor'
p530
sg41
S'0.0'
p531
sg43
S'W23-21'
p532
sg45
S'2014'
p533
ssg35
(dp534
g5
S'--'
p535
sg7
g35
sg9
S'--'
p536
sg11
S'--'
p537
sg13
S'--'
p538
sg15
S'--'
p539
sg17
S'--'
p540
sg19
S'--'
p541
sg21
S'PIT'
p542
sg23
g31
sg24
S'--'
p543
sg26
S'--'
p544
sg28
S'--'
p545
sg29
g31
sg30
S'--'
p546
sg32
S'--'
p547
sg33
S'--'
p548
sg34
S'--'
p549
sg36
S'--'
p550
sg37
S'09/11'
p551
sg39
S'Tyrod Taylor'
p552
sg41
S'0.0'
p553
sg43
S'W26-6'
p554
sg45
S'2014'
p555
ssg93
(dp556
g5
S'--'
p557
sg7
g93
sg9
S'--'
p558
sg11
S'--'
p559
sg13
S'--'
p560
sg15
S'--'
p561
sg17
S'--'
p562
sg19
S'--'
p563
sg21
S'@IND'
p564
sg23
g31
sg24
S'--'
p565
sg26
S'--'
p566
sg28
S'--'
p567
sg29
g31
sg30
S'--'
p568
sg32
S'--'
p569
sg33
S'--'
p570
sg34
S'--'
p571
sg36
S'--'
p572
sg37
S'10/05'
p573
sg39
S'Tyrod Taylor'
p574
sg41
S'0.0'
p575
sg43
S'L13-20'
p576
sg45
S'2014'
p577
ssg14
(dp578
g5
S'--'
p579
sg7
g14
sg9
S'--'
p580
sg11
S'--'
p581
sg13
S'--'
p582
sg15
S'--'
p583
sg17
S'--'
p584
sg19
S'--'
p585
sg21
S'CAR'
p586
sg23
g31
sg24
S'--'
p587
sg26
S'--'
p588
sg28
S'--'
p589
sg29
g31
sg30
S'--'
p590
sg32
S'--'
p591
sg33
S'--'
p592
sg34
S'--'
p593
sg36
S'--'
p594
sg37
S'09/28'
p595
sg39
S'Tyrod Taylor'
p596
sg41
S'0.0'
p597
sg43
S'W38-10'
p598
sg45
S'2014'
p599
ssg73
(dp600
g5
S'--'
p601
sg7
g73
sg9
S'--'
p602
sg11
S'--'
p603
sg13
S'--'
p604
sg15
S'--'
p605
sg17
S'--'
p606
sg19
S'--'
p607
sg21
S'ATL'
p608
sg23
g31
sg24
S'--'
p609
sg26
S'--'
p610
sg28
S'--'
p611
sg29
g31
sg30
S'--'
p612
sg32
S'--'
p613
sg33
S'--'
p614
sg34
S'--'
p615
sg36
S'--'
p616
sg37
S'10/19'
p617
sg39
S'Tyrod Taylor'
p618
sg41
S'0.0'
p619
sg43
S'W29-7'
p620
sg45
S'2014'
p621
ssg53
(dp622
g5
S'--'
p623
sg7
g53
sg9
S'-0.8'
p624
sg11
S'--'
p625
sg13
g14
sg15
S'--'
p626
sg17
S'--'
p627
sg19
S'--'
p628
sg21
S'@TB'
p629
sg23
g20
sg24
S'--'
p630
sg26
S'--'
p631
sg28
S'-3'
p632
sg29
g31
sg30
S'--'
p633
sg32
g31
sg33
S'--'
p634
sg34
S'--'
p635
sg36
S'--'
p636
sg37
S'10/12'
p637
sg39
S'Tyrod Taylor'
p638
sg41
S'0.0'
p639
sg43
S'W48-17'
p640
sg45
S'2014'
p641
ssg110
(dp642
g5
S'--'
p643
sg7
g110
sg9
S'--'
p644
sg11
S'--'
p645
sg13
S'--'
p646
sg15
S'--'
p647
sg17
S'--'
p648
sg19
S'--'
p649
sg21
S'@PIT'
p650
sg23
g31
sg24
S'--'
p651
sg26
S'--'
p652
sg28
S'--'
p653
sg29
g31
sg30
S'--'
p654
sg32
S'--'
p655
sg33
S'--'
p656
sg34
S'--'
p657
sg36
S'--'
p658
sg37
S'11/02'
p659
sg39
S'Tyrod Taylor'
p660
sg41
S'0.0'
p661
sg43
S'L23-43'
p662
sg45
S'2014'
p663
ssg27
(dp664
g5
S'--'
p665
sg7
g27
sg9
S'--'
p666
sg11
S'--'
p667
sg13
S'--'
p668
sg15
S'--'
p669
sg17
S'--'
p670
sg19
S'--'
p671
sg21
S'@CIN'
p672
sg23
g31
sg24
S'--'
p673
sg26
S'--'
p674
sg28
S'--'
p675
sg29
g31
sg30
S'--'
p676
sg32
S'--'
p677
sg33
S'--'
p678
sg34
S'--'
p679
sg36
S'--'
p680
sg37
S'10/26'
p681
sg39
S'Tyrod Taylor'
p682
sg41
S'0.0'
p683
sg43
S'L24-27'
p684
sg45
S'2014'
p685
sssS'2011'
p686
(dp687
g3
(dp688
g5
S'--'
p689
sg7
S'11'
p690
sg9
S'--'
p691
sg11
S'--'
p692
sg13
S'--'
p693
sg15
S'--'
p694
sg17
S'--'
p695
sg19
S'--'
p696
sg21
S'CIN'
p697
sg23
g31
sg24
S'--'
p698
sg26
S'--'
p699
sg28
S'--'
p700
sg29
g31
sg30
S'--'
p701
sg32
S'--'
p702
sg33
S'--'
p703
sg34
S'--'
p704
sg36
S'--'
p705
sg37
S'11/20'
p706
sg39
S'Tyrod Taylor'
p707
sg41
S'0.0'
p708
sg43
S'W31-24'
p709
sg45
S'2011'
p710
ssg47
(dp711
g5
S'--'
p712
sg7
S'10'
p713
sg9
S'--'
p714
sg11
S'--'
p715
sg13
S'--'
p716
sg15
S'--'
p717
sg17
S'--'
p718
sg19
S'--'
p719
sg21
S'@SEA'
p720
sg23
g31
sg24
S'--'
p721
sg26
S'--'
p722
sg28
S'--'
p723
sg29
g31
sg30
S'--'
p724
sg32
S'--'
p725
sg33
S'--'
p726
sg34
S'--'
p727
sg36
S'--'
p728
sg37
S'11/13'
p729
sg39
S'Tyrod Taylor'
p730
sg41
S'0.0'
p731
sg43
S'L17-22'
p732
sg45
S'2011'
p733
ssg67
(dp734
g5
S'--'
p735
sg7
S'13'
p736
sg9
S'2.0'
p737
sg11
S'--'
p738
sg13
g20
sg15
S'--'
p739
sg17
S'--'
p740
sg19
S'--'
p741
sg21
S'@CLE'
p742
sg23
g20
sg24
S'--'
p743
sg26
S'--'
p744
sg28
g35
sg29
g31
sg30
S'--'
p745
sg32
g31
sg33
S'--'
p746
sg34
S'--'
p747
sg36
S'--'
p748
sg37
S'12/04'
p749
sg39
S'Tyrod Taylor'
p750
sg41
S'0.0'
p751
sg43
S'W24-10'
p752
sg45
S'2011'
p753
ssg87
(dp754
g5
S'--'
p755
sg7
S'12'
p756
sg9
S'--'
p757
sg11
S'--'
p758
sg13
S'--'
p759
sg15
S'--'
p760
sg17
S'--'
p761
sg19
S'--'
p762
sg21
S'SF'
p763
sg23
g31
sg24
S'--'
p764
sg26
S'--'
p765
sg28
S'--'
p766
sg29
g31
sg30
S'--'
p767
sg32
S'--'
p768
sg33
S'--'
p769
sg34
S'--'
p770
sg36
S'--'
p771
sg37
S'11/24'
p772
sg39
S'Tyrod Taylor'
p773
sg41
S'0.0'
p774
sg43
S'W16-6'
p775
sg45
S'2011'
p776
ssg104
(dp777
g5
g20
sg7
S'15'
p778
sg9
S'--'
p779
sg11
S'100.0'
p780
sg13
S'--'
p781
sg15
S'18'
p782
sg17
S'18.0'
p783
sg19
S'--'
p784
sg21
S'@SD'
p785
sg23
g20
sg24
g20
sg26
g81
sg28
S'--'
p786
sg29
g31
sg30
S'--'
p787
sg32
S'--'
p788
sg33
g31
sg34
g35
sg36
g31
sg37
S'12/18'
p789
sg39
S'Tyrod Taylor'
p790
sg41
S'118.8'
p791
sg43
S'L14-34'
p792
sg45
S'2011'
p793
ssg122
(dp794
g5
S'--'
p795
sg7
S'14'
p796
sg9
S'--'
p797
sg11
S'--'
p798
sg13
S'--'
p799
sg15
S'--'
p800
sg17
S'--'
p801
sg19
S'--'
p802
sg21
S'IND'
p803
sg23
g20
sg24
S'--'
p804
sg26
S'--'
p805
sg28
S'--'
p806
sg29
g31
sg30
S'--'
p807
sg32
S'--'
p808
sg33
S'--'
p809
sg34
S'--'
p810
sg36
S'--'
p811
sg37
S'12/11'
p812
sg39
S'Tyrod Taylor'
p813
sg41
S'0.0'
p814
sg43
S'W24-10'
p815
sg45
S'2011'
p816
ssg140
(dp817
g5
S'--'
p818
sg7
S'17'
p819
sg9
S'--'
p820
sg11
S'--'
p821
sg13
S'--'
p822
sg15
S'--'
p823
sg17
S'--'
p824
sg19
S'--'
p825
sg21
S'@CIN'
p826
sg23
g31
sg24
S'--'
p827
sg26
S'--'
p828
sg28
S'--'
p829
sg29
g31
sg30
S'--'
p830
sg32
S'--'
p831
sg33
S'--'
p832
sg34
S'--'
p833
sg36
S'--'
p834
sg37
S'01/01'
p835
sg39
S'Tyrod Taylor'
p836
sg41
S'0.0'
p837
sg43
S'W24-16'
p838
sg45
S'2011'
p839
ssg157
(dp840
g5
S'--'
p841
sg7
S'16'
p842
sg9
S'--'
p843
sg11
S'--'
p844
sg13
S'--'
p845
sg15
S'--'
p846
sg17
S'--'
p847
sg19
S'--'
p848
sg21
S'CLE'
p849
sg23
g31
sg24
S'--'
p850
sg26
S'--'
p851
sg28
S'--'
p852
sg29
g31
sg30
S'--'
p853
sg32
S'--'
p854
sg33
S'--'
p855
sg34
S'--'
p856
sg36
S'--'
p857
sg37
S'12/24'
p858
sg39
S'Tyrod Taylor'
p859
sg41
S'0.0'
p860
sg43
S'W20-14'
p861
sg45
S'2011'
p862
ssg20
(dp863
g5
S'--'
p864
sg7
g20
sg9
S'--'
p865
sg11
S'--'
p866
sg13
S'--'
p867
sg15
S'--'
p868
sg17
S'--'
p869
sg19
S'--'
p870
sg21
S'PIT'
p871
sg23
g31
sg24
S'--'
p872
sg26
S'--'
p873
sg28
S'--'
p874
sg29
g31
sg30
S'--'
p875
sg32
S'--'
p876
sg33
S'--'
p877
sg34
S'--'
p878
sg36
S'--'
p879
sg37
S'09/11'
p880
sg39
S'Tyrod Taylor'
p881
sg41
S'0.0'
p882
sg43
S'W35-7'
p883
sg45
S'2011'
p884
ssg81
(dp885
g5
S'--'
p886
sg7
g81
sg9
S'--'
p887
sg11
S'--'
p888
sg13
S'--'
p889
sg15
S'--'
p890
sg17
S'--'
p891
sg19
S'--'
p892
sg21
S'@STL'
p893
sg23
g31
sg24
S'--'
p894
sg26
S'--'
p895
sg28
S'--'
p896
sg29
g31
sg30
S'--'
p897
sg32
S'--'
p898
sg33
S'--'
p899
sg34
S'--'
p900
sg36
S'--'
p901
sg37
S'09/25'
p902
sg39
S'Tyrod Taylor'
p903
sg41
S'0.0'
p904
sg43
S'W37-7'
p905
sg45
S'2011'
p906
ssg35
(dp907
g5
S'--'
p908
sg7
g35
sg9
S'--'
p909
sg11
S'--'
p910
sg13
S'--'
p911
sg15
S'--'
p912
sg17
S'--'
p913
sg19
S'--'
p914
sg21
S'@TEN'
p915
sg23
g31
sg24
S'--'
p916
sg26
S'--'
p917
sg28
S'--'
p918
sg29
g31
sg30
S'--'
p919
sg32
S'--'
p920
sg33
S'--'
p921
sg34
S'--'
p922
sg36
S'--'
p923
sg37
S'09/18'
p924
sg39
S'Tyrod Taylor'
p925
sg41
S'0.0'
p926
sg43
S'L13-26'
p927
sg45
S'2011'
p928
ssg93
(dp929
g5
g318
sg7
g93
sg9
g318
sg11
g318
sg13
g318
sg15
g318
sg17
g318
sg19
g318
sg21
g318
sg23
g318
sg24
g318
sg26
g318
sg28
g318
sg29
g318
sg30
g318
sg32
g318
sg33
g318
sg34
g318
sg36
g318
sg37
S'Bye'
p930
sg39
S'Tyrod Taylor'
p931
sg41
g318
sg43
g318
sg45
S'2011'
p932
ssg14
(dp933
g5
S'--'
p934
sg7
g14
sg9
S'--'
p935
sg11
S'--'
p936
sg13
S'--'
p937
sg15
S'--'
p938
sg17
S'--'
p939
sg19
S'--'
p940
sg21
S'NYJ'
p941
sg23
g31
sg24
S'--'
p942
sg26
S'--'
p943
sg28
S'--'
p944
sg29
g31
sg30
S'--'
p945
sg32
S'--'
p946
sg33
S'--'
p947
sg34
S'--'
p948
sg36
S'--'
p949
sg37
S'10/02'
p950
sg39
S'Tyrod Taylor'
p951
sg41
S'0.0'
p952
sg43
S'W34-17'
p953
sg45
S'2011'
p954
ssg73
(dp955
g5
S'--'
p956
sg7
g73
sg9
S'--'
p957
sg11
S'--'
p958
sg13
S'--'
p959
sg15
S'--'
p960
sg17
S'--'
p961
sg19
S'--'
p962
sg21
S'@JAC'
p963
sg23
g31
sg24
S'--'
p964
sg26
S'--'
p965
sg28
S'--'
p966
sg29
g31
sg30
S'--'
p967
sg32
S'--'
p968
sg33
S'--'
p969
sg34
S'--'
p970
sg36
S'--'
p971
sg37
S'10/24'
p972
sg39
S'Tyrod Taylor'
p973
sg41
S'0.0'
p974
sg43
S'L7-12'
p975
sg45
S'2011'
p976
ssg53
(dp977
g5
S'--'
p978
sg7
g53
sg9
S'--'
p979
sg11
S'--'
p980
sg13
S'--'
p981
sg15
S'--'
p982
sg17
S'--'
p983
sg19
S'--'
p984
sg21
S'HOU'
p985
sg23
g31
sg24
S'--'
p986
sg26
S'--'
p987
sg28
S'--'
p988
sg29
g31
sg30
S'--'
p989
sg32
S'--'
p990
sg33
S'--'
p991
sg34
S'--'
p992
sg36
S'--'
p993
sg37
S'10/16'
p994
sg39
S'Tyrod Taylor'
p995
sg41
S'0.0'
p996
sg43
S'W29-14'
p997
sg45
S'2011'
p998
ssg110
(dp999
g5
S'--'
p1000
sg7
g110
sg9
S'--'
p1001
sg11
S'--'
p1002
sg13
S'--'
p1003
sg15
S'--'
p1004
sg17
S'--'
p1005
sg19
S'--'
p1006
sg21
S'@PIT'
p1007
sg23
g31
sg24
S'--'
p1008
sg26
S'--'
p1009
sg28
S'--'
p1010
sg29
g31
sg30
S'--'
p1011
sg32
S'--'
p1012
sg33
S'--'
p1013
sg34
S'--'
p1014
sg36
S'--'
p1015
sg37
S'11/06'
p1016
sg39
S'Tyrod Taylor'
p1017
sg41
S'0.0'
p1018
sg43
S'W23-20'
p1019
sg45
S'2011'
p1020
ssg27
(dp1021
g5
S'--'
p1022
sg7
g27
sg9
S'--'
p1023
sg11
S'--'
p1024
sg13
S'--'
p1025
sg15
S'--'
p1026
sg17
S'--'
p1027
sg19
S'--'
p1028
sg21
S'ARI'
p1029
sg23
g31
sg24
S'--'
p1030
sg26
S'--'
p1031
sg28
S'--'
p1032
sg29
g31
sg30
S'--'
p1033
sg32
S'--'
p1034
sg33
S'--'
p1035
sg34
S'--'
p1036
sg36
S'--'
p1037
sg37
S'10/30'
p1038
sg39
S'Tyrod Taylor'
p1039
sg41
S'0.0'
p1040
sg43
S'W30-27'
p1041
sg45
S'2011'
p1042
sssS'2013'
p1043
(dp1044
g3
(dp1045
g5
S'--'
p1046
sg7
S'11'
p1047
sg9
S'--'
p1048
sg11
S'--'
p1049
sg13
S'--'
p1050
sg15
S'--'
p1051
sg17
S'--'
p1052
sg19
S'--'
p1053
sg21
S'@CHI'
p1054
sg23
g31
sg24
S'--'
p1055
sg26
S'--'
p1056
sg28
S'--'
p1057
sg29
g31
sg30
S'--'
p1058
sg32
S'--'
p1059
sg33
S'--'
p1060
sg34
S'--'
p1061
sg36
S'--'
p1062
sg37
S'11/17'
p1063
sg39
S'Tyrod Taylor'
p1064
sg41
S'0.0'
p1065
sg43
S'L20-23'
p1066
sg45
S'2013'
p1067
ssg47
(dp1068
g5
S'--'
p1069
sg7
S'10'
p1070
sg9
S'18.0'
p1071
sg11
S'--'
p1072
sg13
g20
sg15
S'--'
p1073
sg17
S'--'
p1074
sg19
S'--'
p1075
sg21
S'CIN'
p1076
sg23
g20
sg24
S'--'
p1077
sg26
S'--'
p1078
sg28
S'18'
p1079
sg29
g31
sg30
S'--'
p1080
sg32
g31
sg33
S'--'
p1081
sg34
S'--'
p1082
sg36
S'--'
p1083
sg37
S'11/10'
p1084
sg39
S'Tyrod Taylor'
p1085
sg41
S'0.0'
p1086
sg43
S'W20-17'
p1087
sg45
S'2013'
p1088
ssg67
(dp1089
g5
S'--'
p1090
sg7
S'13'
p1091
sg9
S'--'
p1092
sg11
S'--'
p1093
sg13
S'--'
p1094
sg15
S'--'
p1095
sg17
S'--'
p1096
sg19
S'--'
p1097
sg21
S'PIT'
p1098
sg23
g31
sg24
S'--'
p1099
sg26
S'--'
p1100
sg28
S'--'
p1101
sg29
g31
sg30
S'--'
p1102
sg32
S'--'
p1103
sg33
S'--'
p1104
sg34
S'--'
p1105
sg36
S'--'
p1106
sg37
S'11/28'
p1107
sg39
S'Tyrod Taylor'
p1108
sg41
S'0.0'
p1109
sg43
S'W22-20'
p1110
sg45
S'2013'
p1111
ssg87
(dp1112
g5
g20
sg7
S'12'
p1113
sg9
S'1.8'
p1114
sg11
S'0.0'
p1115
sg13
g14
sg15
g31
sg17
S'0.0'
p1116
sg19
S'--'
p1117
sg21
S'NYJ'
p1118
sg23
g20
sg24
g31
sg26
g31
sg28
g73
sg29
g31
sg30
S'--'
p1119
sg32
g31
sg33
g31
sg34
g31
sg36
g31
sg37
S'11/24'
p1120
sg39
S'Tyrod Taylor'
p1121
sg41
S'39.6'
p1122
sg43
S'W19-3'
p1123
sg45
S'2013'
p1124
ssg104
(dp1125
g5
S'--'
p1126
sg7
S'15'
p1127
sg9
S'--'
p1128
sg11
S'--'
p1129
sg13
S'--'
p1130
sg15
S'--'
p1131
sg17
S'--'
p1132
sg19
S'--'
p1133
sg21
S'@DET'
p1134
sg23
g31
sg24
S'--'
p1135
sg26
S'--'
p1136
sg28
S'--'
p1137
sg29
g31
sg30
S'--'
p1138
sg32
S'--'
p1139
sg33
S'--'
p1140
sg34
S'--'
p1141
sg36
S'--'
p1142
sg37
S'12/16'
p1143
sg39
S'Tyrod Taylor'
p1144
sg41
S'0.0'
p1145
sg43
S'W18-16'
p1146
sg45
S'2013'
p1147
ssg122
(dp1148
g5
S'--'
p1149
sg7
S'14'
p1150
sg9
S'--'
p1151
sg11
S'--'
p1152
sg13
S'--'
p1153
sg15
S'--'
p1154
sg17
S'--'
p1155
sg19
S'--'
p1156
sg21
S'MIN'
p1157
sg23
g31
sg24
S'--'
p1158
sg26
S'--'
p1159
sg28
S'--'
p1160
sg29
g31
sg30
S'--'
p1161
sg32
S'--'
p1162
sg33
S'--'
p1163
sg34
S'--'
p1164
sg36
S'--'
p1165
sg37
S'12/08'
p1166
sg39
S'Tyrod Taylor'
p1167
sg41
S'0.0'
p1168
sg43
S'W29-26'
p1169
sg45
S'2013'
p1170
ssg140
(dp1171
g5
S'--'
p1172
sg7
S'17'
p1173
sg9
S'--'
p1174
sg11
S'--'
p1175
sg13
S'--'
p1176
sg15
S'--'
p1177
sg17
S'--'
p1178
sg19
S'--'
p1179
sg21
S'@CIN'
p1180
sg23
g31
sg24
S'--'
p1181
sg26
S'--'
p1182
sg28
S'--'
p1183
sg29
g31
sg30
S'--'
p1184
sg32
S'--'
p1185
sg33
S'--'
p1186
sg34
S'--'
p1187
sg36
S'--'
p1188
sg37
S'12/29'
p1189
sg39
S'Tyrod Taylor'
p1190
sg41
S'0.0'
p1191
sg43
S'L17-34'
p1192
sg45
S'2013'
p1193
ssg157
(dp1194
g5
g14
sg7
S'16'
p1195
sg9
S'13.0'
p1196
sg11
S'25.0'
p1197
sg13
g81
sg15
g35
sg17
S'0.5'
p1198
sg19
S'--'
p1199
sg21
S'NE'
p1200
sg23
g20
sg24
g20
sg26
g31
sg28
S'39'
p1201
sg29
g31
sg30
S'--'
p1202
sg32
g31
sg33
g31
sg34
g31
sg36
g20
sg37
S'12/22'
p1203
sg39
S'Tyrod Taylor'
p1204
sg41
S'0.0'
p1205
sg43
S'L7-41'
p1206
sg45
S'2013'
p1207
ssg20
(dp1208
g5
S'--'
p1209
sg7
g20
sg9
S'--'
p1210
sg11
S'--'
p1211
sg13
S'--'
p1212
sg15
S'--'
p1213
sg17
S'--'
p1214
sg19
S'--'
p1215
sg21
S'@DEN'
p1216
sg23
g31
sg24
S'--'
p1217
sg26
S'--'
p1218
sg28
S'--'
p1219
sg29
g31
sg30
S'--'
p1220
sg32
S'--'
p1221
sg33
S'--'
p1222
sg34
S'--'
p1223
sg36
S'--'
p1224
sg37
S'09/05'
p1225
sg39
S'Tyrod Taylor'
p1226
sg41
S'0.0'
p1227
sg43
S'L27-49'
p1228
sg45
S'2013'
p1229
ssg81
(dp1230
g5
S'--'
p1231
sg7
g81
sg9
S'--'
p1232
sg11
S'--'
p1233
sg13
S'--'
p1234
sg15
S'--'
p1235
sg17
S'--'
p1236
sg19
S'--'
p1237
sg21
S'HOU'
p1238
sg23
g31
sg24
S'--'
p1239
sg26
S'--'
p1240
sg28
S'--'
p1241
sg29
g31
sg30
S'--'
p1242
sg32
S'--'
p1243
sg33
S'--'
p1244
sg34
S'--'
p1245
sg36
S'--'
p1246
sg37
S'09/22'
p1247
sg39
S'Tyrod Taylor'
p1248
sg41
S'0.0'
p1249
sg43
S'W30-9'
p1250
sg45
S'2013'
p1251
ssg35
(dp1252
g5
S'--'
p1253
sg7
g35
sg9
S'--'
p1254
sg11
S'--'
p1255
sg13
S'--'
p1256
sg15
S'--'
p1257
sg17
S'--'
p1258
sg19
S'--'
p1259
sg21
S'CLE'
p1260
sg23
g31
sg24
S'--'
p1261
sg26
S'--'
p1262
sg28
S'--'
p1263
sg29
g31
sg30
S'--'
p1264
sg32
S'--'
p1265
sg33
S'--'
p1266
sg34
S'--'
p1267
sg36
S'--'
p1268
sg37
S'09/15'
p1269
sg39
S'Tyrod Taylor'
p1270
sg41
S'0.0'
p1271
sg43
S'W14-6'
p1272
sg45
S'2013'
p1273
ssg93
(dp1274
g5
S'--'
p1275
sg7
g93
sg9
S'--'
p1276
sg11
S'--'
p1277
sg13
S'--'
p1278
sg15
S'--'
p1279
sg17
S'--'
p1280
sg19
S'--'
p1281
sg21
S'@MIA'
p1282
sg23
g31
sg24
S'--'
p1283
sg26
S'--'
p1284
sg28
S'--'
p1285
sg29
g31
sg30
S'--'
p1286
sg32
S'--'
p1287
sg33
S'--'
p1288
sg34
S'--'
p1289
sg36
S'--'
p1290
sg37
S'10/06'
p1291
sg39
S'Tyrod Taylor'
p1292
sg41
S'0.0'
p1293
sg43
S'W26-23'
p1294
sg45
S'2013'
p1295
ssg14
(dp1296
g5
S'--'
p1297
sg7
g14
sg9
S'--'
p1298
sg11
S'--'
p1299
sg13
S'--'
p1300
sg15
S'--'
p1301
sg17
S'--'
p1302
sg19
S'--'
p1303
sg21
S'@BUF'
p1304
sg23
g31
sg24
S'--'
p1305
sg26
S'--'
p1306
sg28
S'--'
p1307
sg29
g31
sg30
S'--'
p1308
sg32
S'--'
p1309
sg33
S'--'
p1310
sg34
S'--'
p1311
sg36
S'--'
p1312
sg37
S'09/29'
p1313
sg39
S'Tyrod Taylor'
p1314
sg41
S'0.0'
p1315
sg43
S'L20-23'
p1316
sg45
S'2013'
p1317
ssg73
(dp1318
g5
S'--'
p1319
sg7
g73
sg9
S'--'
p1320
sg11
S'--'
p1321
sg13
S'--'
p1322
sg15
S'--'
p1323
sg17
S'--'
p1324
sg19
S'--'
p1325
sg21
S'@PIT'
p1326
sg23
g31
sg24
S'--'
p1327
sg26
S'--'
p1328
sg28
S'--'
p1329
sg29
g31
sg30
S'--'
p1330
sg32
S'--'
p1331
sg33
S'--'
p1332
sg34
S'--'
p1333
sg36
S'--'
p1334
sg37
S'10/20'
p1335
sg39
S'Tyrod Taylor'
p1336
sg41
S'0.0'
p1337
sg43
S'L16-19'
p1338
sg45
S'2013'
p1339
ssg53
(dp1340
g5
S'--'
p1341
sg7
g53
sg9
S'--'
p1342
sg11
S'--'
p1343
sg13
S'--'
p1344
sg15
S'--'
p1345
sg17
S'--'
p1346
sg19
S'--'
p1347
sg21
S'GB'
p1348
sg23
g31
sg24
S'--'
p1349
sg26
S'--'
p1350
sg28
S'--'
p1351
sg29
g31
sg30
S'--'
p1352
sg32
S'--'
p1353
sg33
S'--'
p1354
sg34
S'--'
p1355
sg36
S'--'
p1356
sg37
S'10/13'
p1357
sg39
S'Tyrod Taylor'
p1358
sg41
S'0.0'
p1359
sg43
S'L17-19'
p1360
sg45
S'2013'
p1361
ssg110
(dp1362
g5
S'--'
p1363
sg7
g110
sg9
S'--'
p1364
sg11
S'--'
p1365
sg13
S'--'
p1366
sg15
S'--'
p1367
sg17
S'--'
p1368
sg19
S'--'
p1369
sg21
S'@CLE'
p1370
sg23
g31
sg24
S'--'
p1371
sg26
S'--'
p1372
sg28
S'--'
p1373
sg29
g31
sg30
S'--'
p1374
sg32
S'--'
p1375
sg33
S'--'
p1376
sg34
S'--'
p1377
sg36
S'--'
p1378
sg37
S'11/03'
p1379
sg39
S'Tyrod Taylor'
p1380
sg41
S'0.0'
p1381
sg43
S'L18-24'
p1382
sg45
S'2013'
p1383
ssg27
(dp1384
g5
g318
sg7
g27
sg9
g318
sg11
g318
sg13
g318
sg15
g318
sg17
g318
sg19
g318
sg21
g318
sg23
g318
sg24
g318
sg26
g318
sg28
g318
sg29
g318
sg30
g318
sg32
g318
sg33
g318
sg34
g318
sg36
g318
sg37
S'Bye'
p1385
sg39
S'Tyrod Taylor'
p1386
sg41
g318
sg43
g318
sg45
S'2013'
p1387
sssS'2012'
p1388
(dp1389
g3
(dp1390
g5
S'--'
p1391
sg7
S'11'
p1392
sg9
S'--'
p1393
sg11
S'--'
p1394
sg13
S'--'
p1395
sg15
S'--'
p1396
sg17
S'--'
p1397
sg19
S'--'
p1398
sg21
S'@PIT'
p1399
sg23
g31
sg24
S'--'
p1400
sg26
S'--'
p1401
sg28
S'--'
p1402
sg29
g31
sg30
S'--'
p1403
sg32
S'--'
p1404
sg33
S'--'
p1405
sg34
S'--'
p1406
sg36
S'--'
p1407
sg37
S'11/18'
p1408
sg39
S'Tyrod Taylor'
p1409
sg41
S'0.0'
p1410
sg43
S'W13-10'
p1411
sg45
S'2012'
p1412
ssg47
(dp1413
g5
g20
sg7
S'10'
p1414
sg9
S'--'
p1415
sg11
S'0.0'
p1416
sg13
S'--'
p1417
sg15
g31
sg17
S'0.0'
p1418
sg19
S'--'
p1419
sg21
S'OAK'
p1420
sg23
g20
sg24
g31
sg26
g31
sg28
S'--'
p1421
sg29
g31
sg30
S'--'
p1422
sg32
S'--'
p1423
sg33
g31
sg34
g31
sg36
g31
sg37
S'11/11'
p1424
sg39
S'Tyrod Taylor'
p1425
sg41
S'39.6'
p1426
sg43
S'W55-20'
p1427
sg45
S'2012'
p1428
ssg67
(dp1429
g5
S'--'
p1430
sg7
S'13'
p1431
sg9
S'--'
p1432
sg11
S'--'
p1433
sg13
S'--'
p1434
sg15
S'--'
p1435
sg17
S'--'
p1436
sg19
S'--'
p1437
sg21
S'PIT'
p1438
sg23
g31
sg24
S'--'
p1439
sg26
S'--'
p1440
sg28
S'--'
p1441
sg29
g31
sg30
S'--'
p1442
sg32
S'--'
p1443
sg33
S'--'
p1444
sg34
S'--'
p1445
sg36
S'--'
p1446
sg37
S'12/02'
p1447
sg39
S'Tyrod Taylor'
p1448
sg41
S'0.0'
p1449
sg43
S'L20-23'
p1450
sg45
S'2012'
p1451
ssg87
(dp1452
g5
S'--'
p1453
sg7
S'12'
p1454
sg9
S'--'
p1455
sg11
S'--'
p1456
sg13
S'--'
p1457
sg15
S'--'
p1458
sg17
S'--'
p1459
sg19
S'--'
p1460
sg21
S'@SD'
p1461
sg23
g31
sg24
S'--'
p1462
sg26
S'--'
p1463
sg28
S'--'
p1464
sg29
g31
sg30
S'--'
p1465
sg32
S'--'
p1466
sg33
S'--'
p1467
sg34
S'--'
p1468
sg36
S'--'
p1469
sg37
S'11/25'
p1470
sg39
S'Tyrod Taylor'
p1471
sg41
S'0.0'
p1472
sg43
S'W16-13'
p1473
sg45
S'2012'
p1474
ssg104
(dp1475
g5
S'--'
p1476
sg7
S'15'
p1477
sg9
S'--'
p1478
sg11
S'--'
p1479
sg13
S'--'
p1480
sg15
S'--'
p1481
sg17
S'--'
p1482
sg19
S'--'
p1483
sg21
S'DEN'
p1484
sg23
g31
sg24
S'--'
p1485
sg26
S'--'
p1486
sg28
S'--'
p1487
sg29
g31
sg30
S'--'
p1488
sg32
S'--'
p1489
sg33
S'--'
p1490
sg34
S'--'
p1491
sg36
S'--'
p1492
sg37
S'12/16'
p1493
sg39
S'Tyrod Taylor'
p1494
sg41
S'0.0'
p1495
sg43
S'L17-34'
p1496
sg45
S'2012'
p1497
ssg122
(dp1498
g5
S'--'
p1499
sg7
S'14'
p1500
sg9
S'--'
p1501
sg11
S'--'
p1502
sg13
S'--'
p1503
sg15
S'--'
p1504
sg17
S'--'
p1505
sg19
S'--'
p1506
sg21
S'@WAS'
p1507
sg23
g31
sg24
S'--'
p1508
sg26
S'--'
p1509
sg28
S'--'
p1510
sg29
g31
sg30
S'--'
p1511
sg32
S'--'
p1512
sg33
S'--'
p1513
sg34
S'--'
p1514
sg36
S'--'
p1515
sg37
S'12/09'
p1516
sg39
S'Tyrod Taylor'
p1517
sg41
S'0.0'
p1518
sg43
S'L28-31'
p1519
sg45
S'2012'
p1520
ssg140
(dp1521
g5
S'25'
p1522
sg7
S'17'
p1523
sg9
S'7.2'
p1524
sg11
S'60.0'
p1525
sg13
g110
sg15
S'149'
p1526
sg17
S'6.0'
p1527
sg19
S'--'
p1528
sg21
S'@CIN'
p1529
sg23
g20
sg24
S'15'
p1530
sg26
S'30'
p1531
sg28
S'65'
p1532
sg29
g31
sg30
S'--'
p1533
sg32
g20
sg33
g31
sg34
g81
sg36
g20
sg37
S'12/30'
p1534
sg39
S'Tyrod Taylor'
p1535
sg41
S'60.3'
p1536
sg43
S'L17-23'
p1537
sg45
S'2012'
p1538
ssg157
(dp1539
g5
S'--'
p1540
sg7
S'16'
p1541
sg9
S'-1.0'
p1542
sg11
S'--'
p1543
sg13
g81
sg15
S'--'
p1544
sg17
S'--'
p1545
sg19
S'--'
p1546
sg21
S'NYG'
p1547
sg23
g20
sg24
S'--'
p1548
sg26
S'--'
p1549
sg28
S'-3'
p1550
sg29
g31
sg30
S'--'
p1551
sg32
g31
sg33
S'--'
p1552
sg34
S'--'
p1553
sg36
S'--'
p1554
sg37
S'12/23'
p1555
sg39
S'Tyrod Taylor'
p1556
sg41
S'0.0'
p1557
sg43
S'W33-14'
p1558
sg45
S'2012'
p1559
ssg20
(dp1560
g5
g81
sg7
g20
sg9
S'7.0'
p1561
sg11
S'66.7'
p1562
sg13
g20
sg15
S'30'
p1563
sg17
S'10.0'
p1564
sg19
S'--'
p1565
sg21
S'CIN'
p1566
sg23
g20
sg24
g35
sg26
g31
sg28
g73
sg29
g31
sg30
S'--'
p1567
sg32
g31
sg33
g31
sg34
g31
sg36
g31
sg37
S'09/10'
p1568
sg39
S'Tyrod Taylor'
p1569
sg41
S'99.3'
p1570
sg43
S'W44-13'
p1571
sg45
S'2012'
p1572
ssg81
(dp1573
g5
S'--'
p1574
sg7
g81
sg9
S'--'
p1575
sg11
S'--'
p1576
sg13
S'--'
p1577
sg15
S'--'
p1578
sg17
S'--'
p1579
sg19
S'--'
p1580
sg21
S'NE'
p1581
sg23
g31
sg24
S'--'
p1582
sg26
S'--'
p1583
sg28
S'--'
p1584
sg29
g31
sg30
S'--'
p1585
sg32
S'--'
p1586
sg33
S'--'
p1587
sg34
S'--'
p1588
sg36
S'--'
p1589
sg37
S'09/23'
p1590
sg39
S'Tyrod Taylor'
p1591
sg41
S'0.0'
p1592
sg43
S'W31-30'
p1593
sg45
S'2012'
p1594
ssg35
(dp1595
g5
S'--'
p1596
sg7
g35
sg9
S'--'
p1597
sg11
S'--'
p1598
sg13
S'--'
p1599
sg15
S'--'
p1600
sg17
S'--'
p1601
sg19
S'--'
p1602
sg21
S'@PHI'
p1603
sg23
g31
sg24
S'--'
p1604
sg26
S'--'
p1605
sg28
S'--'
p1606
sg29
g31
sg30
S'--'
p1607
sg32
S'--'
p1608
sg33
S'--'
p1609
sg34
S'--'
p1610
sg36
S'--'
p1611
sg37
S'09/16'
p1612
sg39
S'Tyrod Taylor'
p1613
sg41
S'0.0'
p1614
sg43
S'L23-24'
p1615
sg45
S'2012'
p1616
ssg93
(dp1617
g5
S'--'
p1618
sg7
g93
sg9
S'--'
p1619
sg11
S'--'
p1620
sg13
S'--'
p1621
sg15
S'--'
p1622
sg17
S'--'
p1623
sg19
S'--'
p1624
sg21
S'@KC'
p1625
sg23
g20
sg24
S'--'
p1626
sg26
S'--'
p1627
sg28
S'--'
p1628
sg29
g31
sg30
S'--'
p1629
sg32
S'--'
p1630
sg33
S'--'
p1631
sg34
S'--'
p1632
sg36
S'--'
p1633
sg37
S'10/07'
p1634
sg39
S'Tyrod Taylor'
p1635
sg41
S'0.0'
p1636
sg43
S'W9-6'
p1637
sg45
S'2012'
p1638
ssg14
(dp1639
g5
S'--'
p1640
sg7
g14
sg9
S'--'
p1641
sg11
S'--'
p1642
sg13
S'--'
p1643
sg15
S'--'
p1644
sg17
S'--'
p1645
sg19
S'--'
p1646
sg21
S'CLE'
p1647
sg23
g20
sg24
S'--'
p1648
sg26
S'--'
p1649
sg28
S'--'
p1650
sg29
g31
sg30
S'--'
p1651
sg32
S'--'
p1652
sg33
S'--'
p1653
sg34
S'--'
p1654
sg36
S'--'
p1655
sg37
S'09/27'
p1656
sg39
S'Tyrod Taylor'
p1657
sg41
S'0.0'
p1658
sg43
S'W23-16'
p1659
sg45
S'2012'
p1660
ssg73
(dp1661
g5
S'--'
p1662
sg7
g73
sg9
S'--'
p1663
sg11
S'--'
p1664
sg13
S'--'
p1665
sg15
S'--'
p1666
sg17
S'--'
p1667
sg19
S'--'
p1668
sg21
S'@HOU'
p1669
sg23
g31
sg24
S'--'
p1670
sg26
S'--'
p1671
sg28
S'--'
p1672
sg29
g31
sg30
S'--'
p1673
sg32
S'--'
p1674
sg33
S'--'
p1675
sg34
S'--'
p1676
sg36
S'--'
p1677
sg37
S'10/21'
p1678
sg39
S'Tyrod Taylor'
p1679
sg41
S'0.0'
p1680
sg43
S'L13-43'
p1681
sg45
S'2012'
p1682
ssg53
(dp1683
g5
S'--'
p1684
sg7
g53
sg9
S'--'
p1685
sg11
S'--'
p1686
sg13
S'--'
p1687
sg15
S'--'
p1688
sg17
S'--'
p1689
sg19
S'--'
p1690
sg21
S'DAL'
p1691
sg23
g31
sg24
S'--'
p1692
sg26
S'--'
p1693
sg28
S'--'
p1694
sg29
g31
sg30
S'--'
p1695
sg32
S'--'
p1696
sg33
S'--'
p1697
sg34
S'--'
p1698
sg36
S'--'
p1699
sg37
S'10/14'
p1700
sg39
S'Tyrod Taylor'
p1701
sg41
S'0.0'
p1702
sg43
S'W31-29'
p1703
sg45
S'2012'
p1704
ssg110
(dp1705
g5
S'--'
p1706
sg7
g110
sg9
S'4.0'
p1707
sg11
S'--'
p1708
sg13
g20
sg15
S'--'
p1709
sg17
S'--'
p1710
sg19
S'--'
p1711
sg21
S'@CLE'
p1712
sg23
g20
sg24
S'--'
p1713
sg26
S'--'
p1714
sg28
g14
sg29
g31
sg30
S'--'
p1715
sg32
g31
sg33
S'--'
p1716
sg34
S'--'
p1717
sg36
S'--'
p1718
sg37
S'11/04'
p1719
sg39
S'Tyrod Taylor'
p1720
sg41
S'0.0'
p1721
sg43
S'W25-15'
p1722
sg45
S'2012'
p1723
ssg27
(dp1724
g5
g318
sg7
g27
sg9
g318
sg11
g318
sg13
g318
sg15
g318
sg17
g318
sg19
g318
sg21
g318
sg23
g318
sg24
g318
sg26
g318
sg28
g318
sg29
g318
sg30
g318
sg32
g318
sg33
g318
sg34
g318
sg36
g318
sg37
S'Bye'
p1725
sg39
S'Tyrod Taylor'
p1726
sg41
g318
sg43
g318
sg45
S'2012'
p1727
sss.