(dp0
S'2015'
p1
(dp2
S'11'
p3
(dp4
S'PassAtt'
p5
S'--'
p6
sS'WK'
p7
S'11'
p8
sS'RushAvg'
p9
S'--'
p10
sS'Pct'
p11
S'--'
p12
sS'RushAtt'
p13
S'--'
p14
sS'PassYds'
p15
S'--'
p16
sS'PassAvg'
p17
S'--'
p18
sS'FUM'
p19
S'--'
p20
sS'Opp'
p21
S'@JAC'
p22
sS'G'
p23
S'0'
p24
sS'Comp'
p25
S'--'
p26
sS'SckY'
p27
S'--'
p28
sS'RushYds'
p29
S'--'
p30
sS'GS'
p31
g24
sS'Lost'
p32
S'--'
p33
sS'RushTD'
p34
S'--'
p35
sS'PassTD'
p36
S'--'
p37
sS'Sck'
p38
S'--'
p39
sS'Int'
p40
S'--'
p41
sS'Game Date'
p42
S'11/19'
p43
sS'Player'
p44
S'Zach Mettenberger'
p45
sS'Rate'
p46
S'0.0'
p47
sS'Result'
p48
S'L13-19'
p49
sS'Year'
p50
S'2015'
p51
ssS'10'
p52
(dp53
g5
S'--'
p54
sg7
S'10'
p55
sg9
S'--'
p56
sg11
S'--'
p57
sg13
S'--'
p58
sg15
S'--'
p59
sg17
S'--'
p60
sg19
S'--'
p61
sg21
S'CAR'
p62
sg23
g24
sg25
S'--'
p63
sg27
S'--'
p64
sg29
S'--'
p65
sg31
g24
sg32
S'--'
p66
sg34
S'--'
p67
sg36
S'--'
p68
sg38
S'--'
p69
sg40
S'--'
p70
sg42
S'11/15'
p71
sg44
S'Zach Mettenberger'
p72
sg46
S'0.0'
p73
sg48
S'L10-27'
p74
sg50
S'2015'
p75
ssS'13'
p76
(dp77
g5
S'--'
p78
sg7
S'13'
p79
sg9
S'--'
p80
sg11
S'--'
p81
sg13
S'--'
p82
sg15
S'--'
p83
sg17
S'--'
p84
sg19
S'--'
p85
sg21
S'JAC'
p86
sg23
g24
sg25
S'--'
p87
sg27
S'--'
p88
sg29
S'--'
p89
sg31
g24
sg32
S'--'
p90
sg34
S'--'
p91
sg36
S'--'
p92
sg38
S'--'
p93
sg40
S'--'
p94
sg42
S'12/06'
p95
sg44
S'Zach Mettenberger'
p96
sg46
S'0.0'
p97
sg48
S'W42-39'
p98
sg50
S'2015'
p99
ssS'12'
p100
(dp101
g5
S'--'
p102
sg7
S'12'
p103
sg9
S'--'
p104
sg11
S'--'
p105
sg13
S'--'
p106
sg15
S'--'
p107
sg17
S'--'
p108
sg19
S'--'
p109
sg21
S'OAK'
p110
sg23
g24
sg25
S'--'
p111
sg27
S'--'
p112
sg29
S'--'
p113
sg31
g24
sg32
S'--'
p114
sg34
S'--'
p115
sg36
S'--'
p116
sg38
S'--'
p117
sg40
S'--'
p118
sg42
S'11/29'
p119
sg44
S'Zach Mettenberger'
p120
sg46
S'0.0'
p121
sg48
S'L21-24'
p122
sg50
S'2015'
p123
ssS'15'
p124
(dp125
g5
S'28'
p126
sg7
S'15'
p127
sg9
S'2.5'
p128
sg11
S'71.4'
p129
sg13
S'2'
p130
sg15
S'242'
p131
sg17
S'8.6'
p132
sg19
S'1'
p133
sg21
S'@NE'
p134
sg23
g133
sg25
S'20'
p135
sg27
S'19'
p136
sg29
S'5'
p137
sg31
g24
sg32
g24
sg34
g24
sg36
g130
sg38
g130
sg40
g130
sg42
S'12/20'
p138
sg44
S'Zach Mettenberger'
p139
sg46
S'91.7'
p140
sg48
S'L16-33'
p141
sg50
S'2015'
p142
ssS'14'
p143
(dp144
g5
S'--'
p145
sg7
S'14'
p146
sg9
S'--'
p147
sg11
S'--'
p148
sg13
S'--'
p149
sg15
S'--'
p150
sg17
S'--'
p151
sg19
S'--'
p152
sg21
S'@NYJ'
p153
sg23
g24
sg25
S'--'
p154
sg27
S'--'
p155
sg29
S'--'
p156
sg31
g24
sg32
S'--'
p157
sg34
S'--'
p158
sg36
S'--'
p159
sg38
S'--'
p160
sg40
S'--'
p161
sg42
S'12/13'
p162
sg44
S'Zach Mettenberger'
p163
sg46
S'0.0'
p164
sg48
S'L8-30'
p165
sg50
S'2015'
p166
ssS'17'
p167
(dp168
g5
S'13'
p169
sg7
S'17'
p170
sg9
S'2.0'
p171
sg11
S'38.5'
p172
sg13
g130
sg15
S'38'
p173
sg17
S'2.9'
p174
sg19
S'--'
p175
sg21
S'@IND'
p176
sg23
g133
sg25
g137
sg27
S'9'
p177
sg29
S'4'
p178
sg31
g133
sg32
S'--'
p179
sg34
g133
sg36
g24
sg38
g133
sg40
g133
sg42
S'01/03'
p180
sg44
S'Zach Mettenberger'
p181
sg46
S'14.6'
p182
sg48
S'L24-30'
p183
sg50
S'2015'
p184
ssS'16'
p185
(dp186
g5
S'51'
p187
sg7
S'16'
p188
sg9
S'--'
p189
sg11
S'52.9'
p190
sg13
S'--'
p191
sg15
S'234'
p192
sg17
S'4.6'
p193
sg19
g133
sg21
S'HOU'
p194
sg23
g133
sg25
S'27'
p195
sg27
S'7'
p196
sg29
S'--'
p197
sg31
g133
sg32
g133
sg34
S'--'
p198
sg36
g133
sg38
g133
sg40
g133
sg42
S'12/27'
p199
sg44
S'Zach Mettenberger'
p200
sg46
S'63.7'
p201
sg48
S'L6-34'
p202
sg50
S'2015'
p203
ssg133
(dp204
g5
S'--'
p205
sg7
g133
sg9
S'-1.7'
p206
sg11
S'--'
p207
sg13
S'3'
p208
sg15
S'--'
p209
sg17
S'--'
p210
sg19
S'--'
p211
sg21
S'@TB'
p212
sg23
g133
sg25
S'--'
p213
sg27
S'--'
p214
sg29
S'-5'
p215
sg31
g24
sg32
S'--'
p216
sg34
g24
sg36
S'--'
p217
sg38
S'--'
p218
sg40
S'--'
p219
sg42
S'09/13'
p220
sg44
S'Zach Mettenberger'
p221
sg46
S'0.0'
p222
sg48
S'W42-14'
p223
sg50
S'2015'
p224
ssg208
(dp225
g5
S'--'
p226
sg7
g208
sg9
S'--'
p227
sg11
S'--'
p228
sg13
S'--'
p229
sg15
S'--'
p230
sg17
S'--'
p231
sg19
S'--'
p232
sg21
S'IND'
p233
sg23
g24
sg25
S'--'
p234
sg27
S'--'
p235
sg29
S'--'
p236
sg31
g24
sg32
S'--'
p237
sg34
S'--'
p238
sg36
S'--'
p239
sg38
S'--'
p240
sg40
S'--'
p241
sg42
S'09/27'
p242
sg44
S'Zach Mettenberger'
p243
sg46
S'0.0'
p244
sg48
S'L33-35'
p245
sg50
S'2015'
p246
ssg130
(dp247
g5
S'--'
p248
sg7
g130
sg9
S'--'
p249
sg11
S'--'
p250
sg13
S'--'
p251
sg15
S'--'
p252
sg17
S'--'
p253
sg19
S'--'
p254
sg21
S'@CLE'
p255
sg23
g24
sg25
S'--'
p256
sg27
S'--'
p257
sg29
S'--'
p258
sg31
g24
sg32
S'--'
p259
sg34
S'--'
p260
sg36
S'--'
p261
sg38
S'--'
p262
sg40
S'--'
p263
sg42
S'09/20'
p264
sg44
S'Zach Mettenberger'
p265
sg46
S'0.0'
p266
sg48
S'L14-28'
p267
sg50
S'2015'
p268
ssg137
(dp269
g5
S'--'
p270
sg7
g137
sg9
S'--'
p271
sg11
S'--'
p272
sg13
S'--'
p273
sg15
S'--'
p274
sg17
S'--'
p275
sg19
S'--'
p276
sg21
S'BUF'
p277
sg23
g24
sg25
S'--'
p278
sg27
S'--'
p279
sg29
S'--'
p280
sg31
g24
sg32
S'--'
p281
sg34
S'--'
p282
sg36
S'--'
p283
sg38
S'--'
p284
sg40
S'--'
p285
sg42
S'10/11'
p286
sg44
S'Zach Mettenberger'
p287
sg46
S'0.0'
p288
sg48
S'L13-14'
p289
sg50
S'2015'
p290
ssg178
(dp291
g5
S''
p292
sg7
g178
sg9
g292
sg11
g292
sg13
g292
sg15
g292
sg17
g292
sg19
g292
sg21
g292
sg23
g292
sg25
g292
sg27
g292
sg29
g292
sg31
g292
sg32
g292
sg34
g292
sg36
g292
sg38
g292
sg40
g292
sg42
S'Bye'
p293
sg44
S'Zach Mettenberger'
p294
sg46
g292
sg48
g292
sg50
S'2015'
p295
ssg196
(dp296
g5
S'35'
p297
sg7
g196
sg9
S'0.0'
p298
sg11
S'62.9'
p299
sg13
g133
sg15
S'187'
p300
sg17
S'5.3'
p301
sg19
g133
sg21
S'ATL'
p302
sg23
g133
sg25
S'22'
p303
sg27
S'8'
p304
sg29
g24
sg31
g133
sg32
g24
sg34
g24
sg36
g133
sg38
g133
sg40
g130
sg42
S'10/25'
p305
sg44
S'Zach Mettenberger'
p306
sg46
S'62.4'
p307
sg48
S'L7-10'
p308
sg50
S'2015'
p309
ssS'6'
p310
(dp311
g5
g304
sg7
g310
sg9
S'4.0'
p312
sg11
S'62.5'
p313
sg13
g133
sg15
S'63'
p314
sg17
S'7.9'
p315
sg19
S'--'
p316
sg21
S'MIA'
p317
sg23
g133
sg25
g137
sg27
g177
sg29
g178
sg31
g24
sg32
S'--'
p318
sg34
g24
sg36
g24
sg38
g133
sg40
g24
sg42
S'10/18'
p319
sg44
S'Zach Mettenberger'
p320
sg46
S'87.0'
p321
sg48
S'L10-38'
p322
sg50
S'2015'
p323
ssg177
(dp324
g5
S'--'
p325
sg7
g177
sg9
S'--'
p326
sg11
S'--'
p327
sg13
S'--'
p328
sg15
S'--'
p329
sg17
S'--'
p330
sg19
S'--'
p331
sg21
S'@NO'
p332
sg23
g24
sg25
S'--'
p333
sg27
S'--'
p334
sg29
S'--'
p335
sg31
g24
sg32
S'--'
p336
sg34
S'--'
p337
sg36
S'--'
p338
sg38
S'--'
p339
sg40
S'--'
p340
sg42
S'11/08'
p341
sg44
S'Zach Mettenberger'
p342
sg46
S'0.0'
p343
sg48
S'W34-28'
p344
sg50
S'2015'
p345
ssg304
(dp346
g5
S'31'
p347
sg7
g304
sg9
S'--'
p348
sg11
S'71.0'
p349
sg13
S'--'
p350
sg15
S'171'
p351
sg17
S'5.5'
p352
sg19
g133
sg21
S'@HOU'
p353
sg23
g133
sg25
S'22'
p354
sg27
S'46'
p355
sg29
S'--'
p356
sg31
g133
sg32
g133
sg34
S'--'
p357
sg36
g24
sg38
g196
sg40
g133
sg42
S'11/01'
p358
sg44
S'Zach Mettenberger'
p359
sg46
S'70.8'
p360
sg48
S'L6-20'
p361
sg50
S'2015'
p362
sssS'2014'
p363
(dp364
g3
(dp365
g5
S'24'
p366
sg7
S'11'
p367
sg9
S'--'
p368
sg11
S'62.5'
p369
sg13
S'--'
p370
sg15
S'263'
p371
sg17
S'11.0'
p372
sg19
S'--'
p373
sg21
S'PIT'
p374
sg23
g133
sg25
S'15'
p375
sg27
g24
sg29
S'--'
p376
sg31
g133
sg32
S'--'
p377
sg34
S'--'
p378
sg36
g130
sg38
g24
sg40
g133
sg42
S'11/17'
p379
sg44
S'Zach Mettenberger'
p380
sg46
S'110.2'
p381
sg48
S'L24-27'
p382
sg50
S'2014'
p383
ssg52
(dp384
g5
S'27'
p385
sg7
S'10'
p386
sg9
S'--'
p387
sg11
S'59.3'
p388
sg13
S'--'
p389
sg15
S'179'
p390
sg17
S'6.6'
p391
sg19
S'--'
p392
sg21
S'@BAL'
p393
sg23
g133
sg25
S'16'
p394
sg27
S'36'
p395
sg29
S'--'
p396
sg31
g133
sg32
S'--'
p397
sg34
S'--'
p398
sg36
g133
sg38
g137
sg40
g133
sg42
S'11/09'
p399
sg44
S'Zach Mettenberger'
p400
sg46
S'76.0'
p401
sg48
S'L7-21'
p402
sg50
S'2014'
p403
ssg76
(dp404
g5
S'19'
p405
sg7
S'13'
p406
sg9
S'8.0'
p407
sg11
S'68.4'
p408
sg13
g133
sg15
S'184'
p409
sg17
S'9.7'
p410
sg19
S'--'
p411
sg21
S'@HOU'
p412
sg23
g133
sg25
S'13'
p413
sg27
S'14'
p414
sg29
g304
sg31
g133
sg32
S'--'
p415
sg34
g24
sg36
g133
sg38
g133
sg40
g133
sg42
S'11/30'
p416
sg44
S'Zach Mettenberger'
p417
sg46
S'95.1'
p418
sg48
S'L21-45'
p419
sg50
S'2014'
p420
ssg100
(dp421
g5
S'39'
p422
sg7
S'12'
p423
sg9
S'-1.0'
p424
sg11
S'51.3'
p425
sg13
g130
sg15
S'345'
p426
sg17
S'8.8'
p427
sg19
g133
sg21
S'@PHI'
p428
sg23
g133
sg25
S'20'
p429
sg27
S'46'
p430
sg29
S'-2'
p431
sg31
g133
sg32
g24
sg34
g24
sg36
g130
sg38
g137
sg40
g133
sg42
S'11/23'
p432
sg44
S'Zach Mettenberger'
p433
sg46
S'88.1'
p434
sg48
S'L24-43'
p435
sg50
S'2014'
p436
ssg124
(dp437
g5
S'--'
p438
sg7
S'15'
p439
sg9
S'--'
p440
sg11
S'--'
p441
sg13
S'--'
p442
sg15
S'--'
p443
sg17
S'--'
p444
sg19
S'--'
p445
sg21
S'NYJ'
p446
sg23
g24
sg25
S'--'
p447
sg27
S'--'
p448
sg29
S'--'
p449
sg31
g24
sg32
S'--'
p450
sg34
S'--'
p451
sg36
S'--'
p452
sg38
S'--'
p453
sg40
S'--'
p454
sg42
S'12/14'
p455
sg44
S'Zach Mettenberger'
p456
sg46
S'0.0'
p457
sg48
S'L11-16'
p458
sg50
S'2014'
p459
ssg143
(dp460
g5
S'24'
p461
sg7
S'14'
p462
sg9
S'-1.0'
p463
sg11
S'58.3'
p464
sg13
g133
sg15
S'125'
p465
sg17
S'5.2'
p466
sg19
g130
sg21
S'NYG'
p467
sg23
g133
sg25
S'14'
p468
sg27
S'33'
p469
sg29
S'-1'
p470
sg31
g133
sg32
g133
sg34
g24
sg36
g24
sg38
g137
sg40
g133
sg42
S'12/07'
p471
sg44
S'Zach Mettenberger'
p472
sg46
S'55.0'
p473
sg48
S'L7-36'
p474
sg50
S'2014'
p475
ssg167
(dp476
g5
S'--'
p477
sg7
S'17'
p478
sg9
S'--'
p479
sg11
S'--'
p480
sg13
S'--'
p481
sg15
S'--'
p482
sg17
S'--'
p483
sg19
S'--'
p484
sg21
S'IND'
p485
sg23
g24
sg25
S'--'
p486
sg27
S'--'
p487
sg29
S'--'
p488
sg31
g24
sg32
S'--'
p489
sg34
S'--'
p490
sg36
S'--'
p491
sg38
S'--'
p492
sg40
S'--'
p493
sg42
S'12/28'
p494
sg44
S'Zach Mettenberger'
p495
sg46
S'0.0'
p496
sg48
S'L10-27'
p497
sg50
S'2014'
p498
ssg185
(dp499
g5
S'--'
p500
sg7
S'16'
p501
sg9
S'--'
p502
sg11
S'--'
p503
sg13
S'--'
p504
sg15
S'--'
p505
sg17
S'--'
p506
sg19
S'--'
p507
sg21
S'@JAC'
p508
sg23
g24
sg25
S'--'
p509
sg27
S'--'
p510
sg29
S'--'
p511
sg31
g24
sg32
S'--'
p512
sg34
S'--'
p513
sg36
S'--'
p514
sg38
S'--'
p515
sg40
S'--'
p516
sg42
S'12/18'
p517
sg44
S'Zach Mettenberger'
p518
sg46
S'0.0'
p519
sg48
S'L13-21'
p520
sg50
S'2014'
p521
ssg133
(dp522
g5
S'--'
p523
sg7
g133
sg9
S'--'
p524
sg11
S'--'
p525
sg13
S'--'
p526
sg15
S'--'
p527
sg17
S'--'
p528
sg19
S'--'
p529
sg21
S'@KC'
p530
sg23
g24
sg25
S'--'
p531
sg27
S'--'
p532
sg29
S'--'
p533
sg31
g24
sg32
S'--'
p534
sg34
S'--'
p535
sg36
S'--'
p536
sg38
S'--'
p537
sg40
S'--'
p538
sg42
S'09/07'
p539
sg44
S'Zach Mettenberger'
p540
sg46
S'0.0'
p541
sg48
S'W26-10'
p542
sg50
S'2014'
p543
ssg208
(dp544
g5
S'--'
p545
sg7
g208
sg9
S'--'
p546
sg11
S'--'
p547
sg13
S'--'
p548
sg15
S'--'
p549
sg17
S'--'
p550
sg19
S'--'
p551
sg21
S'@CIN'
p552
sg23
g24
sg25
S'--'
p553
sg27
S'--'
p554
sg29
S'--'
p555
sg31
g24
sg32
S'--'
p556
sg34
S'--'
p557
sg36
S'--'
p558
sg38
S'--'
p559
sg40
S'--'
p560
sg42
S'09/21'
p561
sg44
S'Zach Mettenberger'
p562
sg46
S'0.0'
p563
sg48
S'L7-33'
p564
sg50
S'2014'
p565
ssg130
(dp566
g5
S'--'
p567
sg7
g130
sg9
S'--'
p568
sg11
S'--'
p569
sg13
S'--'
p570
sg15
S'--'
p571
sg17
S'--'
p572
sg19
S'--'
p573
sg21
S'DAL'
p574
sg23
g24
sg25
S'--'
p575
sg27
S'--'
p576
sg29
S'--'
p577
sg31
g24
sg32
S'--'
p578
sg34
S'--'
p579
sg36
S'--'
p580
sg38
S'--'
p581
sg40
S'--'
p582
sg42
S'09/14'
p583
sg44
S'Zach Mettenberger'
p584
sg46
S'0.0'
p585
sg48
S'L10-26'
p586
sg50
S'2014'
p587
ssg137
(dp588
g5
S'--'
p589
sg7
g137
sg9
S'--'
p590
sg11
S'--'
p591
sg13
S'--'
p592
sg15
S'--'
p593
sg17
S'--'
p594
sg19
S'--'
p595
sg21
S'CLE'
p596
sg23
g24
sg25
S'--'
p597
sg27
S'--'
p598
sg29
S'--'
p599
sg31
g24
sg32
S'--'
p600
sg34
S'--'
p601
sg36
S'--'
p602
sg38
S'--'
p603
sg40
S'--'
p604
sg42
S'10/05'
p605
sg44
S'Zach Mettenberger'
p606
sg46
S'0.0'
p607
sg48
S'L28-29'
p608
sg50
S'2014'
p609
ssg178
(dp610
g5
g137
sg7
g178
sg9
S'--'
p611
sg11
S'40.0'
p612
sg13
S'--'
p613
sg15
S'17'
p614
sg17
S'3.4'
p615
sg19
S'--'
p616
sg21
S'@IND'
p617
sg23
g133
sg25
g130
sg27
g24
sg29
S'--'
p618
sg31
g24
sg32
S'--'
p619
sg34
S'--'
p620
sg36
g24
sg38
g24
sg40
g133
sg42
S'09/28'
p621
sg44
S'Zach Mettenberger'
p622
sg46
S'10.0'
p623
sg48
S'L17-41'
p624
sg50
S'2014'
p625
ssg196
(dp626
g5
S'--'
p627
sg7
g196
sg9
S'--'
p628
sg11
S'--'
p629
sg13
S'--'
p630
sg15
S'--'
p631
sg17
S'--'
p632
sg19
S'--'
p633
sg21
S'@WAS'
p634
sg23
g24
sg25
S'--'
p635
sg27
S'--'
p636
sg29
S'--'
p637
sg31
g24
sg32
S'--'
p638
sg34
S'--'
p639
sg36
S'--'
p640
sg38
S'--'
p641
sg40
S'--'
p642
sg42
S'10/19'
p643
sg44
S'Zach Mettenberger'
p644
sg46
S'0.0'
p645
sg48
S'L17-19'
p646
sg50
S'2014'
p647
ssg310
(dp648
g5
S'--'
p649
sg7
g310
sg9
S'--'
p650
sg11
S'--'
p651
sg13
S'--'
p652
sg15
S'--'
p653
sg17
S'--'
p654
sg19
S'--'
p655
sg21
S'JAC'
p656
sg23
g24
sg25
S'--'
p657
sg27
S'--'
p658
sg29
S'--'
p659
sg31
g24
sg32
S'--'
p660
sg34
S'--'
p661
sg36
S'--'
p662
sg38
S'--'
p663
sg40
S'--'
p664
sg42
S'10/12'
p665
sg44
S'Zach Mettenberger'
p666
sg46
S'0.0'
p667
sg48
S'W16-14'
p668
sg50
S'2014'
p669
ssg177
(dp670
g5
g292
sg7
g177
sg9
g292
sg11
g292
sg13
g292
sg15
g292
sg17
g292
sg19
g292
sg21
g292
sg23
g292
sg25
g292
sg27
g292
sg29
g292
sg31
g292
sg32
g292
sg34
g292
sg36
g292
sg38
g292
sg40
g292
sg42
S'Bye'
p671
sg44
S'Zach Mettenberger'
p672
sg46
g292
sg48
g292
sg50
S'2014'
p673
ssg304
(dp674
g5
S'41'
p675
sg7
g304
sg9
S'-1.0'
p676
sg11
S'65.9'
p677
sg13
g133
sg15
S'299'
p678
sg17
S'7.3'
p679
sg19
g133
sg21
S'HOU'
p680
sg23
g133
sg25
S'27'
p681
sg27
g177
sg29
S'-1'
p682
sg31
g133
sg32
g133
sg34
g24
sg36
g130
sg38
g130
sg40
g133
sg42
S'10/26'
p683
sg44
S'Zach Mettenberger'
p684
sg46
S'93.4'
p685
sg48
S'L16-30'
p686
sg50
S'2014'
p687
sss.